MODULE Linux arm64 4DE5AEF001C3042457BFD2C3C26CC9D60 thesillydoggo.gradientpages.android64.so
INFO CODE_ID F0AEE54DC301240457BFD2C3C26CC9D649A1D1A9
INFO GENERATOR mozilla/dump_syms 2.3.4
PUBLIC 63c80 0 __on_dlclose
PUBLIC 63c98 0 __on_dlclose_late
PUBLIC 63ca0 0 __atexit_handler_wrapper
PUBLIC 63cb4 0 atexit
PUBLIC 63cd0 0 pthread_atfork
PUBLIC m 63ce0 0 std::__ndk1::__sort<std::__ndk1::__less<char, char>&, char*>(char*, char*, std::__ndk1::__less<char, char>&)
PUBLIC 63d04 0 std::__ndk1::__introsort<std::__ndk1::_ClassicAlgPolicy, std::__ndk1::__less<char, char>&, char*, true>(char*, char*, std::__ndk1::__less<char, char>&, std::__ndk1::iterator_traits<char*>::difference_type, bool)
PUBLIC m 6441c 0 std::__ndk1::__sort<std::__ndk1::__less<wchar_t, wchar_t>&, wchar_t*>(wchar_t*, wchar_t*, std::__ndk1::__less<wchar_t, wchar_t>&)
PUBLIC 64444 0 std::__ndk1::__introsort<std::__ndk1::_ClassicAlgPolicy, std::__ndk1::__less<wchar_t, wchar_t>&, wchar_t*, true>(wchar_t*, wchar_t*, std::__ndk1::__less<wchar_t, wchar_t>&, std::__ndk1::iterator_traits<wchar_t*>::difference_type, bool)
PUBLIC m 64b2c 0 std::__ndk1::__sort<std::__ndk1::__less<signed char, signed char>&, signed char*>(signed char*, signed char*, std::__ndk1::__less<signed char, signed char>&)
PUBLIC 64b50 0 std::__ndk1::__introsort<std::__ndk1::_ClassicAlgPolicy, std::__ndk1::__less<signed char, signed char>&, signed char*, true>(signed char*, signed char*, std::__ndk1::__less<signed char, signed char>&, std::__ndk1::iterator_traits<signed char*>::difference_type, bool)
PUBLIC m 65268 0 std::__ndk1::__sort<std::__ndk1::__less<unsigned char, unsigned char>&, unsigned char*>(unsigned char*, unsigned char*, std::__ndk1::__less<unsigned char, unsigned char>&)
PUBLIC 6528c 0 std::__ndk1::__introsort<std::__ndk1::_ClassicAlgPolicy, std::__ndk1::__less<unsigned char, unsigned char>&, unsigned char*, true>(unsigned char*, unsigned char*, std::__ndk1::__less<unsigned char, unsigned char>&, std::__ndk1::iterator_traits<unsigned char*>::difference_type, bool)
PUBLIC m 659a4 0 std::__ndk1::__sort<std::__ndk1::__less<short, short>&, short*>(short*, short*, std::__ndk1::__less<short, short>&)
PUBLIC 659cc 0 std::__ndk1::__introsort<std::__ndk1::_ClassicAlgPolicy, std::__ndk1::__less<short, short>&, short*, true>(short*, short*, std::__ndk1::__less<short, short>&, std::__ndk1::iterator_traits<short*>::difference_type, bool)
PUBLIC m 660e8 0 std::__ndk1::__sort<std::__ndk1::__less<unsigned short, unsigned short>&, unsigned short*>(unsigned short*, unsigned short*, std::__ndk1::__less<unsigned short, unsigned short>&)
PUBLIC 66110 0 std::__ndk1::__introsort<std::__ndk1::_ClassicAlgPolicy, std::__ndk1::__less<unsigned short, unsigned short>&, unsigned short*, true>(unsigned short*, unsigned short*, std::__ndk1::__less<unsigned short, unsigned short>&, std::__ndk1::iterator_traits<unsigned short*>::difference_type, bool)
PUBLIC m 6682c 0 std::__ndk1::__sort<std::__ndk1::__less<int, int>&, int*>(int*, int*, std::__ndk1::__less<int, int>&)
PUBLIC 66854 0 std::__ndk1::__introsort<std::__ndk1::_ClassicAlgPolicy, std::__ndk1::__less<int, int>&, int*, true>(int*, int*, std::__ndk1::__less<int, int>&, std::__ndk1::iterator_traits<int*>::difference_type, bool)
PUBLIC m 66f3c 0 std::__ndk1::__sort<std::__ndk1::__less<unsigned int, unsigned int>&, unsigned int*>(unsigned int*, unsigned int*, std::__ndk1::__less<unsigned int, unsigned int>&)
PUBLIC 66f64 0 std::__ndk1::__introsort<std::__ndk1::_ClassicAlgPolicy, std::__ndk1::__less<unsigned int, unsigned int>&, unsigned int*, true>(unsigned int*, unsigned int*, std::__ndk1::__less<unsigned int, unsigned int>&, std::__ndk1::iterator_traits<unsigned int*>::difference_type, bool)
PUBLIC m 6764c 0 std::__ndk1::__sort<std::__ndk1::__less<long, long>&, long*>(long*, long*, std::__ndk1::__less<long, long>&)
PUBLIC 67674 0 std::__ndk1::__introsort<std::__ndk1::_ClassicAlgPolicy, std::__ndk1::__less<long, long>&, long*, true>(long*, long*, std::__ndk1::__less<long, long>&, std::__ndk1::iterator_traits<long*>::difference_type, bool)
PUBLIC m 67d5c 0 std::__ndk1::__sort<std::__ndk1::__less<unsigned long, unsigned long>&, unsigned long*>(unsigned long*, unsigned long*, std::__ndk1::__less<unsigned long, unsigned long>&)
PUBLIC 67d84 0 std::__ndk1::__introsort<std::__ndk1::_ClassicAlgPolicy, std::__ndk1::__less<unsigned long, unsigned long>&, unsigned long*, true>(unsigned long*, unsigned long*, std::__ndk1::__less<unsigned long, unsigned long>&, std::__ndk1::iterator_traits<unsigned long*>::difference_type, bool)
PUBLIC m 6846c 0 std::__ndk1::__sort<std::__ndk1::__less<long long, long long>&, long long*>(long long*, long long*, std::__ndk1::__less<long long, long long>&)
PUBLIC 68494 0 std::__ndk1::__introsort<std::__ndk1::_ClassicAlgPolicy, std::__ndk1::__less<long long, long long>&, long long*, true>(long long*, long long*, std::__ndk1::__less<long long, long long>&, std::__ndk1::iterator_traits<long long*>::difference_type, bool)
PUBLIC m 68b7c 0 std::__ndk1::__sort<std::__ndk1::__less<unsigned long long, unsigned long long>&, unsigned long long*>(unsigned long long*, unsigned long long*, std::__ndk1::__less<unsigned long long, unsigned long long>&)
PUBLIC 68ba4 0 std::__ndk1::__introsort<std::__ndk1::_ClassicAlgPolicy, std::__ndk1::__less<unsigned long long, unsigned long long>&, unsigned long long*, true>(unsigned long long*, unsigned long long*, std::__ndk1::__less<unsigned long long, unsigned long long>&, std::__ndk1::iterator_traits<unsigned long long*>::difference_type, bool)
PUBLIC m 6928c 0 std::__ndk1::__sort<std::__ndk1::__less<float, float>&, float*>(float*, float*, std::__ndk1::__less<float, float>&)
PUBLIC 692b4 0 std::__ndk1::__introsort<std::__ndk1::_ClassicAlgPolicy, std::__ndk1::__less<float, float>&, float*, true>(float*, float*, std::__ndk1::__less<float, float>&, std::__ndk1::iterator_traits<float*>::difference_type, bool)
PUBLIC m 699ac 0 std::__ndk1::__sort<std::__ndk1::__less<double, double>&, double*>(double*, double*, std::__ndk1::__less<double, double>&)
PUBLIC 699d4 0 std::__ndk1::__introsort<std::__ndk1::_ClassicAlgPolicy, std::__ndk1::__less<double, double>&, double*, true>(double*, double*, std::__ndk1::__less<double, double>&, std::__ndk1::iterator_traits<double*>::difference_type, bool)
PUBLIC m 6a0cc 0 std::__ndk1::__sort<std::__ndk1::__less<long double, long double>&, long double*>(long double*, long double*, std::__ndk1::__less<long double, long double>&)
PUBLIC 6a0f4 0 std::__ndk1::__introsort<std::__ndk1::_ClassicAlgPolicy, std::__ndk1::__less<long double, long double>&, long double*, false>(long double*, long double*, std::__ndk1::__less<long double, long double>&, std::__ndk1::iterator_traits<long double*>::difference_type, bool)
PUBLIC m 6ac30 0 std::__ndk1::__insertion_sort_incomplete<std::__ndk1::__less<char, char>&, char*>(char*, char*, std::__ndk1::__less<char, char>&)
PUBLIC m 6af44 0 std::__ndk1::__insertion_sort_incomplete<std::__ndk1::__less<wchar_t, wchar_t>&, wchar_t*>(wchar_t*, wchar_t*, std::__ndk1::__less<wchar_t, wchar_t>&)
PUBLIC m 6b224 0 std::__ndk1::__insertion_sort_incomplete<std::__ndk1::__less<signed char, signed char>&, signed char*>(signed char*, signed char*, std::__ndk1::__less<signed char, signed char>&)
PUBLIC m 6b538 0 std::__ndk1::__insertion_sort_incomplete<std::__ndk1::__less<unsigned char, unsigned char>&, unsigned char*>(unsigned char*, unsigned char*, std::__ndk1::__less<unsigned char, unsigned char>&)
PUBLIC m 6b84c 0 std::__ndk1::__insertion_sort_incomplete<std::__ndk1::__less<short, short>&, short*>(short*, short*, std::__ndk1::__less<short, short>&)
PUBLIC m 6bb64 0 std::__ndk1::__insertion_sort_incomplete<std::__ndk1::__less<unsigned short, unsigned short>&, unsigned short*>(unsigned short*, unsigned short*, std::__ndk1::__less<unsigned short, unsigned short>&)
PUBLIC m 6be7c 0 std::__ndk1::__insertion_sort_incomplete<std::__ndk1::__less<int, int>&, int*>(int*, int*, std::__ndk1::__less<int, int>&)
PUBLIC m 6c15c 0 std::__ndk1::__insertion_sort_incomplete<std::__ndk1::__less<unsigned int, unsigned int>&, unsigned int*>(unsigned int*, unsigned int*, std::__ndk1::__less<unsigned int, unsigned int>&)
PUBLIC m 6c43c 0 std::__ndk1::__insertion_sort_incomplete<std::__ndk1::__less<long, long>&, long*>(long*, long*, std::__ndk1::__less<long, long>&)
PUBLIC m 6c71c 0 std::__ndk1::__insertion_sort_incomplete<std::__ndk1::__less<unsigned long, unsigned long>&, unsigned long*>(unsigned long*, unsigned long*, std::__ndk1::__less<unsigned long, unsigned long>&)
PUBLIC m 6c9fc 0 std::__ndk1::__insertion_sort_incomplete<std::__ndk1::__less<long long, long long>&, long long*>(long long*, long long*, std::__ndk1::__less<long long, long long>&)
PUBLIC m 6ccdc 0 std::__ndk1::__insertion_sort_incomplete<std::__ndk1::__less<unsigned long long, unsigned long long>&, unsigned long long*>(unsigned long long*, unsigned long long*, std::__ndk1::__less<unsigned long long, unsigned long long>&)
PUBLIC m 6cfbc 0 std::__ndk1::__insertion_sort_incomplete<std::__ndk1::__less<float, float>&, float*>(float*, float*, std::__ndk1::__less<float, float>&)
PUBLIC m 6d2a4 0 std::__ndk1::__insertion_sort_incomplete<std::__ndk1::__less<double, double>&, double*>(double*, double*, std::__ndk1::__less<double, double>&)
PUBLIC m 6d58c 0 std::__ndk1::__insertion_sort_incomplete<std::__ndk1::__less<long double, long double>&, long double*>(long double*, long double*, std::__ndk1::__less<long double, long double>&)
PUBLIC m 6d9ec 0 std::__ndk1::__sort5<std::__ndk1::__less<long double, long double>&, long double*>(long double*, long double*, long double*, long double*, long double*, std::__ndk1::__less<long double, long double>&)
PUBLIC 6dcdc 0 std::__ndk1::__bitset_partition[abi:v170000]<std::__ndk1::_ClassicAlgPolicy, char*, std::__ndk1::__less<char, char>&>(std::__ndk1::pair, std::__ndk1::pair, std::__ndk1::__less<char, char>&)
PUBLIC 6eb28 0 std::__ndk1::__partial_sort_impl[abi:v170000]<std::__ndk1::_ClassicAlgPolicy, std::__ndk1::__less<char, char>&, char*, std::__ndk1::__less<char, char>&>(char*, char*, std::__ndk1::__less<char, char>&, std::__ndk1::__less<char, char>&)
PUBLIC 6ee70 0 std::__ndk1::__bitset_partition[abi:v170000]<std::__ndk1::_ClassicAlgPolicy, wchar_t*, std::__ndk1::__less<wchar_t, wchar_t>&>(std::__ndk1::pair, std::__ndk1::pair, std::__ndk1::__less<wchar_t, wchar_t>&)
PUBLIC 6f928 0 std::__ndk1::__partial_sort_impl[abi:v170000]<std::__ndk1::_ClassicAlgPolicy, std::__ndk1::__less<wchar_t, wchar_t>&, wchar_t*, std::__ndk1::__less<wchar_t, wchar_t>&>(wchar_t*, wchar_t*, std::__ndk1::__less<wchar_t, wchar_t>&, std::__ndk1::__less<wchar_t, wchar_t>&)
PUBLIC 6fc94 0 std::__ndk1::__bitset_partition[abi:v170000]<std::__ndk1::_ClassicAlgPolicy, signed char*, std::__ndk1::__less<signed char, signed char>&>(std::__ndk1::pair, std::__ndk1::pair, std::__ndk1::__less<signed char, signed char>&)
PUBLIC 70ae0 0 std::__ndk1::__partial_sort_impl[abi:v170000]<std::__ndk1::_ClassicAlgPolicy, std::__ndk1::__less<signed char, signed char>&, signed char*, std::__ndk1::__less<signed char, signed char>&>(signed char*, signed char*, std::__ndk1::__less<signed char, signed char>&, std::__ndk1::__less<signed char, signed char>&)
PUBLIC 70e28 0 std::__ndk1::__bitset_partition[abi:v170000]<std::__ndk1::_ClassicAlgPolicy, unsigned char*, std::__ndk1::__less<unsigned char, unsigned char>&>(std::__ndk1::pair, std::__ndk1::pair, std::__ndk1::__less<unsigned char, unsigned char>&)
PUBLIC 71c74 0 std::__ndk1::__partial_sort_impl[abi:v170000]<std::__ndk1::_ClassicAlgPolicy, std::__ndk1::__less<unsigned char, unsigned char>&, unsigned char*, std::__ndk1::__less<unsigned char, unsigned char>&>(unsigned char*, unsigned char*, std::__ndk1::__less<unsigned char, unsigned char>&, std::__ndk1::__less<unsigned char, unsigned char>&)
PUBLIC 71fbc 0 std::__ndk1::__bitset_partition[abi:v170000]<std::__ndk1::_ClassicAlgPolicy, short*, std::__ndk1::__less<short, short>&>(std::__ndk1::pair, std::__ndk1::pair, std::__ndk1::__less<short, short>&)
PUBLIC 72b94 0 std::__ndk1::__partial_sort_impl[abi:v170000]<std::__ndk1::_ClassicAlgPolicy, std::__ndk1::__less<short, short>&, short*, std::__ndk1::__less<short, short>&>(short*, short*, std::__ndk1::__less<short, short>&, std::__ndk1::__less<short, short>&)
PUBLIC 72f10 0 std::__ndk1::__bitset_partition[abi:v170000]<std::__ndk1::_ClassicAlgPolicy, unsigned short*, std::__ndk1::__less<unsigned short, unsigned short>&>(std::__ndk1::pair, std::__ndk1::pair, std::__ndk1::__less<unsigned short, unsigned short>&)
PUBLIC 73ae8 0 std::__ndk1::__partial_sort_impl[abi:v170000]<std::__ndk1::_ClassicAlgPolicy, std::__ndk1::__less<unsigned short, unsigned short>&, unsigned short*, std::__ndk1::__less<unsigned short, unsigned short>&>(unsigned short*, unsigned short*, std::__ndk1::__less<unsigned short, unsigned short>&, std::__ndk1::__less<unsigned short, unsigned short>&)
PUBLIC 73e64 0 std::__ndk1::__bitset_partition[abi:v170000]<std::__ndk1::_ClassicAlgPolicy, int*, std::__ndk1::__less<int, int>&>(std::__ndk1::pair, std::__ndk1::pair, std::__ndk1::__less<int, int>&)
PUBLIC 7491c 0 std::__ndk1::__partial_sort_impl[abi:v170000]<std::__ndk1::_ClassicAlgPolicy, std::__ndk1::__less<int, int>&, int*, std::__ndk1::__less<int, int>&>(int*, int*, std::__ndk1::__less<int, int>&, std::__ndk1::__less<int, int>&)
PUBLIC 74c88 0 std::__ndk1::__bitset_partition[abi:v170000]<std::__ndk1::_ClassicAlgPolicy, unsigned int*, std::__ndk1::__less<unsigned int, unsigned int>&>(std::__ndk1::pair, std::__ndk1::pair, std::__ndk1::__less<unsigned int, unsigned int>&)
PUBLIC 75740 0 std::__ndk1::__partial_sort_impl[abi:v170000]<std::__ndk1::_ClassicAlgPolicy, std::__ndk1::__less<unsigned int, unsigned int>&, unsigned int*, std::__ndk1::__less<unsigned int, unsigned int>&>(unsigned int*, unsigned int*, std::__ndk1::__less<unsigned int, unsigned int>&, std::__ndk1::__less<unsigned int, unsigned int>&)
PUBLIC 75aac 0 std::__ndk1::__bitset_partition[abi:v170000]<std::__ndk1::_ClassicAlgPolicy, long*, std::__ndk1::__less<long, long>&>(std::__ndk1::pair, std::__ndk1::pair, std::__ndk1::__less<long, long>&)
PUBLIC 764c4 0 std::__ndk1::__partial_sort_impl[abi:v170000]<std::__ndk1::_ClassicAlgPolicy, std::__ndk1::__less<long, long>&, long*, std::__ndk1::__less<long, long>&>(long*, long*, std::__ndk1::__less<long, long>&, std::__ndk1::__less<long, long>&)
PUBLIC 76830 0 std::__ndk1::__bitset_partition[abi:v170000]<std::__ndk1::_ClassicAlgPolicy, unsigned long*, std::__ndk1::__less<unsigned long, unsigned long>&>(std::__ndk1::pair, std::__ndk1::pair, std::__ndk1::__less<unsigned long, unsigned long>&)
PUBLIC 77248 0 std::__ndk1::__partial_sort_impl[abi:v170000]<std::__ndk1::_ClassicAlgPolicy, std::__ndk1::__less<unsigned long, unsigned long>&, unsigned long*, std::__ndk1::__less<unsigned long, unsigned long>&>(unsigned long*, unsigned long*, std::__ndk1::__less<unsigned long, unsigned long>&, std::__ndk1::__less<unsigned long, unsigned long>&)
PUBLIC 775b4 0 std::__ndk1::__bitset_partition[abi:v170000]<std::__ndk1::_ClassicAlgPolicy, long long*, std::__ndk1::__less<long long, long long>&>(std::__ndk1::pair, std::__ndk1::pair, std::__ndk1::__less<long long, long long>&)
PUBLIC 77fe0 0 std::__ndk1::__partial_sort_impl[abi:v170000]<std::__ndk1::_ClassicAlgPolicy, std::__ndk1::__less<long long, long long>&, long long*, std::__ndk1::__less<long long, long long>&>(long long*, long long*, std::__ndk1::__less<long long, long long>&, std::__ndk1::__less<long long, long long>&)
PUBLIC 7834c 0 std::__ndk1::__bitset_partition[abi:v170000]<std::__ndk1::_ClassicAlgPolicy, unsigned long long*, std::__ndk1::__less<unsigned long long, unsigned long long>&>(std::__ndk1::pair, std::__ndk1::pair, std::__ndk1::__less<unsigned long long, unsigned long long>&)
PUBLIC 78d78 0 std::__ndk1::__partial_sort_impl[abi:v170000]<std::__ndk1::_ClassicAlgPolicy, std::__ndk1::__less<unsigned long long, unsigned long long>&, unsigned long long*, std::__ndk1::__less<unsigned long long, unsigned long long>&>(unsigned long long*, unsigned long long*, std::__ndk1::__less<unsigned long long, unsigned long long>&, std::__ndk1::__less<unsigned long long, unsigned long long>&)
PUBLIC 790e4 0 std::__ndk1::__bitset_partition[abi:v170000]<std::__ndk1::_ClassicAlgPolicy, float*, std::__ndk1::__less<float, float>&>(std::__ndk1::pair, std::__ndk1::pair, std::__ndk1::__less<float, float>&)
PUBLIC 79bf4 0 std::__ndk1::__partial_sort_impl[abi:v170000]<std::__ndk1::_ClassicAlgPolicy, std::__ndk1::__less<float, float>&, float*, std::__ndk1::__less<float, float>&>(float*, float*, std::__ndk1::__less<float, float>&, std::__ndk1::__less<float, float>&)
PUBLIC 79f40 0 std::__ndk1::__bitset_partition[abi:v170000]<std::__ndk1::_ClassicAlgPolicy, double*, std::__ndk1::__less<double, double>&>(std::__ndk1::pair, std::__ndk1::pair, std::__ndk1::__less<double, double>&)
PUBLIC 7aa3c 0 std::__ndk1::__partial_sort_impl[abi:v170000]<std::__ndk1::_ClassicAlgPolicy, std::__ndk1::__less<double, double>&, double*, std::__ndk1::__less<double, double>&>(double*, double*, std::__ndk1::__less<double, double>&, std::__ndk1::__less<double, double>&)
PUBLIC 7ad88 0 std::__ndk1::__partial_sort_impl[abi:v170000]<std::__ndk1::_ClassicAlgPolicy, std::__ndk1::__less<long double, long double>&, long double*, std::__ndk1::__less<long double, long double>&>(long double*, long double*, std::__ndk1::__less<long double, long double>&, std::__ndk1::__less<long double, long double>&)
PUBLIC m 7b1f8 0 std::__ndk1::chrono::system_clock::now()
PUBLIC m 7b270 0 std::__ndk1::chrono::system_clock::to_time_t(std::__ndk1::chrono::time_point<std::__ndk1::chrono::system_clock, std::__ndk1::chrono::duration<long long, std::__ndk1::ratio<(long)1, (long)1000000> > > const&)
PUBLIC m 7b298 0 std::__ndk1::chrono::system_clock::from_time_t(long)
PUBLIC m 7b2ac 0 std::__ndk1::chrono::steady_clock::now()
PUBLIC m 7b304 0 std::__ndk1::condition_variable::~condition_variable()
PUBLIC m 7b324 0 std::__ndk1::__next_prime(unsigned long)
PUBLIC 7ba5c 0 std::__ndk1::__throw_overflow_error[abi:v170000](char const*)
PUBLIC 7bab0 0 std::overflow_error::overflow_error[abi:v170000](char const*)
PUBLIC m 7bae8 0 std::__ndk1::bad_weak_ptr::~bad_weak_ptr()
PUBLIC m 7baf0 0 std::__ndk1::bad_weak_ptr::~bad_weak_ptr()
PUBLIC m 7bb1c 0 std::__ndk1::bad_weak_ptr::what() const
PUBLIC m 7bb2c 0 std::__ndk1::__shared_weak_count::~__shared_weak_count()
PUBLIC m 7bb34 0 std::__ndk1::__shared_count::~__shared_count()
PUBLIC m 7bb3c 0 std::__ndk1::__shared_weak_count::~__shared_weak_count()
PUBLIC m 7bb44 0 std::__ndk1::__shared_count::__add_shared()
PUBLIC m 7bb68 0 std::__ndk1::__shared_count::__release_shared()
PUBLIC m 7bbd0 0 std::__ndk1::__shared_weak_count::__add_shared()
PUBLIC m 7bbf4 0 std::__ndk1::__shared_weak_count::__add_weak()
PUBLIC m 7bc18 0 std::__ndk1::__shared_weak_count::__release_shared()
PUBLIC m 7bc94 0 std::__ndk1::__shared_weak_count::__release_weak()
PUBLIC m 7bcec 0 std::__ndk1::__shared_weak_count::lock()
PUBLIC m 7bd4c 0 std::__ndk1::__shared_weak_count::__get_deleter(std::type_info const&) const
PUBLIC m 7bd58 0 std::__ndk1::__sp_mut::lock()
PUBLIC m 7bd7c 0 std::__ndk1::__sp_mut::unlock()
PUBLIC m 7bda0 0 std::__ndk1::__get_sp_mut(void const*)
PUBLIC m 7bdf4 0 std::__ndk1::align(unsigned long, unsigned long, void*&, unsigned long&)
PUBLIC m 7be48 0 std::__ndk1::mutex::lock()
PUBLIC m 7be74 0 std::__ndk1::mutex::try_lock()
PUBLIC m 7be9c 0 std::__ndk1::mutex::unlock()
PUBLIC m 7bebc 0 std::__ndk1::recursive_mutex::recursive_mutex()
PUBLIC m 7bf60 0 std::__ndk1::recursive_mutex::~recursive_mutex()
PUBLIC m 7bf80 0 std::__ndk1::recursive_mutex::lock()
PUBLIC m 7bfac 0 std::__ndk1::recursive_mutex::unlock()
PUBLIC m 7bfcc 0 std::__ndk1::recursive_mutex::try_lock()
PUBLIC m 7bff4 0 std::__ndk1::timed_mutex::timed_mutex()
PUBLIC m 7c010 0 std::__ndk1::timed_mutex::~timed_mutex()
PUBLIC m 7c064 0 std::__ndk1::timed_mutex::lock()
PUBLIC 7c0f8 0 std::__ndk1::unique_lock<std::__ndk1::mutex>::~unique_lock[abi:v170000]()
PUBLIC m 7c124 0 std::__ndk1::timed_mutex::try_lock()
PUBLIC m 7c184 0 std::__ndk1::timed_mutex::unlock()
PUBLIC m 7c1d8 0 std::__ndk1::recursive_timed_mutex::recursive_timed_mutex()
PUBLIC m 7c1f4 0 std::__ndk1::recursive_timed_mutex::~recursive_timed_mutex()
PUBLIC m 7c248 0 std::__ndk1::recursive_timed_mutex::lock()
PUBLIC m 7c344 0 std::__ndk1::recursive_timed_mutex::try_lock()
PUBLIC m 7c3dc 0 std::__ndk1::recursive_timed_mutex::unlock()
PUBLIC m 7c458 0 std::__ndk1::__call_once(unsigned long volatile&, void*, void (*)(void*))
PUBLIC m 7c570 0 std::__ndk1::condition_variable::notify_one()
PUBLIC m 7c590 0 std::__ndk1::condition_variable::notify_all()
PUBLIC m 7c5b0 0 std::__ndk1::condition_variable::wait(std::__ndk1::unique_lock<std::__ndk1::mutex>&)
PUBLIC m 7c5fc 0 std::__ndk1::condition_variable::__do_timed_wait(std::__ndk1::unique_lock<std::__ndk1::mutex>&, std::__ndk1::chrono::time_point<std::__ndk1::chrono::system_clock, std::__ndk1::chrono::duration<long long, std::__ndk1::ratio<(long)1, (long)1000000000> > >)
PUBLIC m 7c69c 0 std::__ndk1::notify_all_at_thread_exit(std::__ndk1::condition_variable&, std::__ndk1::unique_lock<std::__ndk1::mutex>)
PUBLIC m 7c72c 0 std::__ndk1::mutex::~mutex()
PUBLIC m 7c74c 0 std::bad_optional_access::~bad_optional_access()
PUBLIC m 7c754 0 std::bad_optional_access::~bad_optional_access()
PUBLIC m 7c780 0 std::bad_optional_access::what() const
PUBLIC m 7c790 0 std::experimental::bad_optional_access::~bad_optional_access()
PUBLIC m 7c798 0 std::experimental::bad_optional_access::~bad_optional_access()
PUBLIC m 7c7c4 0 std::logic_error::logic_error(std::__ndk1::basic_string<char, std::__ndk1::char_traits<char>, std::__ndk1::allocator<char> > const&)
PUBLIC m 7c858 0 std::logic_error::logic_error(char const*)
PUBLIC m 7c8e0 0 std::logic_error::logic_error(std::logic_error const&)
PUBLIC m 7c918 0 std::logic_error::operator=(std::logic_error const&)
PUBLIC m 7c988 0 std::runtime_error::runtime_error(std::__ndk1::basic_string<char, std::__ndk1::char_traits<char>, std::__ndk1::allocator<char> > const&)
PUBLIC m 7ca1c 0 std::runtime_error::runtime_error(char const*)
PUBLIC m 7caa4 0 std::runtime_error::runtime_error(std::runtime_error const&)
PUBLIC m 7cadc 0 std::runtime_error::operator=(std::runtime_error const&)
PUBLIC m 7cb4c 0 std::__ndk1::basic_string<char, std::__ndk1::char_traits<char>, std::__ndk1::allocator<char> >::replace(unsigned long, unsigned long, char const*, unsigned long)
PUBLIC 7cdf8 0 std::__ndk1::basic_string<char, std::__ndk1::char_traits<char>, std::__ndk1::allocator<char> >::__throw_out_of_range[abi:v170000]() const
PUBLIC m 7ce10 0 std::__ndk1::basic_string<char, std::__ndk1::char_traits<char>, std::__ndk1::allocator<char> >::__grow_by_and_replace(unsigned long, unsigned long, unsigned long, unsigned long, unsigned long, unsigned long, char const*)
PUBLIC m 7cf5c 0 std::__ndk1::basic_string<char, std::__ndk1::char_traits<char>, std::__ndk1::allocator<char> >::rfind(char const*, unsigned long, unsigned long) const
PUBLIC m 7d028 0 std::__ndk1::basic_string<char, std::__ndk1::char_traits<char>, std::__ndk1::allocator<char> >::__init(char const*, unsigned long, unsigned long)
PUBLIC m 7d0b0 0 std::__ndk1::basic_string<char, std::__ndk1::char_traits<char>, std::__ndk1::allocator<char> >::basic_string(std::__ndk1::basic_string<char, std::__ndk1::char_traits<char>, std::__ndk1::allocator<char> > const&)
PUBLIC m 7d158 0 std::__ndk1::basic_string<char, std::__ndk1::char_traits<char>, std::__ndk1::allocator<char> >::replace(unsigned long, unsigned long, char const*)
PUBLIC m 7d1ac 0 std::__ndk1::basic_string<char, std::__ndk1::char_traits<char>, std::__ndk1::allocator<char> >::basic_string(std::__ndk1::basic_string<char, std::__ndk1::char_traits<char>, std::__ndk1::allocator<char> > const&, std::__ndk1::allocator<char> const&)
PUBLIC m 7d254 0 std::__ndk1::basic_string<char, std::__ndk1::char_traits<char>, std::__ndk1::allocator<char> >::find_last_not_of(char const*, unsigned long, unsigned long) const
PUBLIC m 7d30c 0 std::__ndk1::basic_string<char, std::__ndk1::char_traits<char>, std::__ndk1::allocator<char> >::~basic_string()
PUBLIC m 7d324 0 std::__ndk1::basic_string<char, std::__ndk1::char_traits<char>, std::__ndk1::allocator<char> >::find_first_not_of(char const*, unsigned long, unsigned long) const
PUBLIC m 7d3c4 0 std::__ndk1::basic_string<char, std::__ndk1::char_traits<char>, std::__ndk1::allocator<char> >::insert(unsigned long, unsigned long, char)
PUBLIC m 7d57c 0 std::__ndk1::basic_string<char, std::__ndk1::char_traits<char>, std::__ndk1::allocator<char> >::__grow_by(unsigned long, unsigned long, unsigned long, unsigned long, unsigned long, unsigned long)
PUBLIC m 7d6a4 0 std::__ndk1::basic_string<char, std::__ndk1::char_traits<char>, std::__ndk1::allocator<char> >::operator=(char)
PUBLIC m 7d6e0 0 std::__ndk1::basic_string<char, std::__ndk1::char_traits<char>, std::__ndk1::allocator<char> >::__init(char const*, unsigned long)
PUBLIC m 7d768 0 std::__ndk1::basic_string<char, std::__ndk1::char_traits<char>, std::__ndk1::allocator<char> >::at(unsigned long) const
PUBLIC m 7d7b0 0 std::__ndk1::basic_string<char, std::__ndk1::char_traits<char>, std::__ndk1::allocator<char> >::insert(unsigned long, char const*, unsigned long)
PUBLIC m 7d9a8 0 std::__ndk1::basic_string<char, std::__ndk1::char_traits<char>, std::__ndk1::allocator<char> >::find_first_of(char const*, unsigned long, unsigned long) const
PUBLIC m 7da24 0 std::__ndk1::basic_string<char, std::__ndk1::char_traits<char>, std::__ndk1::allocator<char> >::replace(unsigned long, unsigned long, unsigned long, char)
PUBLIC m 7dc18 0 std::__ndk1::basic_string<char, std::__ndk1::char_traits<char>, std::__ndk1::allocator<char> >::assign(char const*, unsigned long)
PUBLIC 7dc20 0 std::__ndk1::basic_string<char, std::__ndk1::char_traits<char>, std::__ndk1::allocator<char> >::__assign_external(char const*, unsigned long)
PUBLIC m 7dd64 0 std::__ndk1::basic_string<char, std::__ndk1::char_traits<char>, std::__ndk1::allocator<char> >::reserve(unsigned long)
PUBLIC 7ddec 0 std::__ndk1::basic_string<char, std::__ndk1::char_traits<char>, std::__ndk1::allocator<char> >::__shrink_or_extend[abi:v170000](unsigned long)
PUBLIC m 7df00 0 std::__ndk1::basic_string<char, std::__ndk1::char_traits<char>, std::__ndk1::allocator<char> >::append(char const*, unsigned long)
PUBLIC m 7e08c 0 std::__ndk1::basic_string<char, std::__ndk1::char_traits<char>, std::__ndk1::allocator<char> >::assign(std::__ndk1::basic_string<char, std::__ndk1::char_traits<char>, std::__ndk1::allocator<char> > const&, unsigned long, unsigned long)
PUBLIC m 7e0e0 0 std::__ndk1::basic_string<char, std::__ndk1::char_traits<char>, std::__ndk1::allocator<char> >::copy(char*, unsigned long, unsigned long) const
PUBLIC m 7e14c 0 std::__ndk1::basic_string<char, std::__ndk1::char_traits<char>, std::__ndk1::allocator<char> >::basic_string(std::__ndk1::basic_string<char, std::__ndk1::char_traits<char>, std::__ndk1::allocator<char> > const&, unsigned long, unsigned long, std::__ndk1::allocator<char> const&)
PUBLIC m 7e21c 0 std::__ndk1::basic_string<char, std::__ndk1::char_traits<char>, std::__ndk1::allocator<char> >::find(char, unsigned long) const
PUBLIC m 7e294 0 std::__ndk1::basic_string<char, std::__ndk1::char_traits<char>, std::__ndk1::allocator<char> >::__init(unsigned long, char)
PUBLIC m 7e334 0 std::__ndk1::basic_string<char, std::__ndk1::char_traits<char>, std::__ndk1::allocator<char> >::insert(unsigned long, char const*)
PUBLIC m 7e380 0 std::__ndk1::basic_string<char, std::__ndk1::char_traits<char>, std::__ndk1::allocator<char> >::find_last_of(char const*, unsigned long, unsigned long) const
PUBLIC m 7e41c 0 std::__ndk1::basic_string<char, std::__ndk1::char_traits<char>, std::__ndk1::allocator<char> >::push_back(char)
PUBLIC m 7e534 0 std::__ndk1::basic_string<char, std::__ndk1::char_traits<char>, std::__ndk1::allocator<char> >::append(unsigned long, char)
PUBLIC m 7e6bc 0 std::__ndk1::basic_string<char, std::__ndk1::char_traits<char>, std::__ndk1::allocator<char> >::rfind(char, unsigned long) const
PUBLIC m 7e70c 0 std::__ndk1::basic_string<char, std::__ndk1::char_traits<char>, std::__ndk1::allocator<char> >::assign(unsigned long, char)
PUBLIC m 7e84c 0 std::__ndk1::basic_string<char, std::__ndk1::char_traits<char>, std::__ndk1::allocator<char> >::erase(unsigned long, unsigned long)
PUBLIC m 7e920 0 std::__ndk1::basic_string<char, std::__ndk1::char_traits<char>, std::__ndk1::allocator<char> >::append(std::__ndk1::basic_string<char, std::__ndk1::char_traits<char>, std::__ndk1::allocator<char> > const&, unsigned long, unsigned long)
PUBLIC m 7e970 0 std::__ndk1::basic_string<char, std::__ndk1::char_traits<char>, std::__ndk1::allocator<char> >::compare(char const*) const
PUBLIC m 7ea18 0 std::__ndk1::basic_string<char, std::__ndk1::char_traits<char>, std::__ndk1::allocator<char> >::compare(unsigned long, unsigned long, char const*, unsigned long) const
PUBLIC m 7eab0 0 std::__ndk1::basic_string<char, std::__ndk1::char_traits<char>, std::__ndk1::allocator<char> >::compare(unsigned long, unsigned long, char const*) const
PUBLIC m 7eb7c 0 std::__ndk1::basic_string<char, std::__ndk1::char_traits<char>, std::__ndk1::allocator<char> >::at(unsigned long)
PUBLIC m 7ebc4 0 std::__ndk1::basic_string<char, std::__ndk1::char_traits<char>, std::__ndk1::allocator<char> >::assign(char const*)
PUBLIC m 7ec00 0 std::__ndk1::basic_string<char, std::__ndk1::char_traits<char>, std::__ndk1::allocator<char> >::find(char const*, unsigned long, unsigned long) const
PUBLIC m 7ecc8 0 std::__ndk1::basic_string<char, std::__ndk1::char_traits<char>, std::__ndk1::allocator<char> >::compare(unsigned long, unsigned long, std::__ndk1::basic_string<char, std::__ndk1::char_traits<char>, std::__ndk1::allocator<char> > const&, unsigned long, unsigned long) const
PUBLIC m 7ed80 0 std::__ndk1::basic_string<char, std::__ndk1::char_traits<char>, std::__ndk1::allocator<char> >::operator=(std::__ndk1::basic_string<char, std::__ndk1::char_traits<char>, std::__ndk1::allocator<char> > const&)
PUBLIC m 7ef50 0 std::__ndk1::basic_string<char, std::__ndk1::char_traits<char>, std::__ndk1::allocator<char> >::append(char const*)
PUBLIC m 7ef8c 0 std::__ndk1::basic_string<char, std::__ndk1::char_traits<char>, std::__ndk1::allocator<char> >::replace(unsigned long, unsigned long, std::__ndk1::basic_string<char, std::__ndk1::char_traits<char>, std::__ndk1::allocator<char> > const&, unsigned long, unsigned long)
PUBLIC m 7efdc 0 std::__ndk1::basic_string<char, std::__ndk1::char_traits<char>, std::__ndk1::allocator<char> >::insert(std::__ndk1::__wrap_iter<char const*>, char)
PUBLIC m 7f19c 0 std::__ndk1::basic_string<char, std::__ndk1::char_traits<char>, std::__ndk1::allocator<char> >::resize(unsigned long, char)
PUBLIC m 7f1e8 0 std::__ndk1::basic_string<char, std::__ndk1::char_traits<char>, std::__ndk1::allocator<char> >::insert(unsigned long, std::__ndk1::basic_string<char, std::__ndk1::char_traits<char>, std::__ndk1::allocator<char> > const&, unsigned long, unsigned long)
PUBLIC m 7f238 0 std::__ndk1::basic_string<wchar_t, std::__ndk1::char_traits<wchar_t>, std::__ndk1::allocator<wchar_t> >::replace(unsigned long, unsigned long, wchar_t const*, unsigned long)
PUBLIC 7f40c 0 std::__ndk1::basic_string<wchar_t, std::__ndk1::char_traits<wchar_t>, std::__ndk1::allocator<wchar_t> >::__throw_out_of_range[abi:v170000]() const
PUBLIC m 7f424 0 std::__ndk1::basic_string<wchar_t, std::__ndk1::char_traits<wchar_t>, std::__ndk1::allocator<wchar_t> >::__grow_by_and_replace(unsigned long, unsigned long, unsigned long, unsigned long, unsigned long, unsigned long, wchar_t const*)
PUBLIC m 7f594 0 std::__ndk1::basic_string<wchar_t, std::__ndk1::char_traits<wchar_t>, std::__ndk1::allocator<wchar_t> >::rfind(wchar_t const*, unsigned long, unsigned long) const
PUBLIC m 7f670 0 std::__ndk1::basic_string<wchar_t, std::__ndk1::char_traits<wchar_t>, std::__ndk1::allocator<wchar_t> >::__init(wchar_t const*, unsigned long, unsigned long)
PUBLIC 7f714 0 std::__ndk1::basic_string<wchar_t, std::__ndk1::char_traits<wchar_t>, std::__ndk1::allocator<wchar_t> >::__throw_length_error[abi:v170000]() const
PUBLIC m 7f72c 0 std::__ndk1::basic_string<wchar_t, std::__ndk1::char_traits<wchar_t>, std::__ndk1::allocator<wchar_t> >::basic_string(std::__ndk1::basic_string<wchar_t, std::__ndk1::char_traits<wchar_t>, std::__ndk1::allocator<wchar_t> > const&)
PUBLIC m 7f7f0 0 std::__ndk1::basic_string<wchar_t, std::__ndk1::char_traits<wchar_t>, std::__ndk1::allocator<wchar_t> >::replace(unsigned long, unsigned long, wchar_t const*)
PUBLIC m 7f844 0 std::__ndk1::basic_string<wchar_t, std::__ndk1::char_traits<wchar_t>, std::__ndk1::allocator<wchar_t> >::basic_string(std::__ndk1::basic_string<wchar_t, std::__ndk1::char_traits<wchar_t>, std::__ndk1::allocator<wchar_t> > const&, std::__ndk1::allocator<wchar_t> const&)
PUBLIC m 7f908 0 std::__ndk1::basic_string<wchar_t, std::__ndk1::char_traits<wchar_t>, std::__ndk1::allocator<wchar_t> >::find_last_not_of(wchar_t const*, unsigned long, unsigned long) const
PUBLIC m 7f9b8 0 std::__ndk1::basic_string<wchar_t, std::__ndk1::char_traits<wchar_t>, std::__ndk1::allocator<wchar_t> >::~basic_string()
PUBLIC m 7f9d0 0 std::__ndk1::basic_string<wchar_t, std::__ndk1::char_traits<wchar_t>, std::__ndk1::allocator<wchar_t> >::find_first_not_of(wchar_t const*, unsigned long, unsigned long) const
PUBLIC m 7fa80 0 std::__ndk1::basic_string<wchar_t, std::__ndk1::char_traits<wchar_t>, std::__ndk1::allocator<wchar_t> >::insert(unsigned long, unsigned long, wchar_t)
PUBLIC m 7fc84 0 std::__ndk1::basic_string<wchar_t, std::__ndk1::char_traits<wchar_t>, std::__ndk1::allocator<wchar_t> >::__grow_by(unsigned long, unsigned long, unsigned long, unsigned long, unsigned long, unsigned long)
PUBLIC m 7fdb0 0 std::__ndk1::basic_string<wchar_t, std::__ndk1::char_traits<wchar_t>, std::__ndk1::allocator<wchar_t> >::operator=(wchar_t)
PUBLIC m 7fde4 0 std::__ndk1::basic_string<wchar_t, std::__ndk1::char_traits<wchar_t>, std::__ndk1::allocator<wchar_t> >::__init(wchar_t const*, unsigned long)
PUBLIC m 7fe88 0 std::__ndk1::basic_string<wchar_t, std::__ndk1::char_traits<wchar_t>, std::__ndk1::allocator<wchar_t> >::at(unsigned long) const
PUBLIC m 7fed4 0 std::__ndk1::basic_string<wchar_t, std::__ndk1::char_traits<wchar_t>, std::__ndk1::allocator<wchar_t> >::insert(unsigned long, wchar_t const*, unsigned long)
PUBLIC m 7fff8 0 std::__ndk1::basic_string<wchar_t, std::__ndk1::char_traits<wchar_t>, std::__ndk1::allocator<wchar_t> >::find_first_of(wchar_t const*, unsigned long, unsigned long) const
PUBLIC m 8007c 0 std::__ndk1::basic_string<wchar_t, std::__ndk1::char_traits<wchar_t>, std::__ndk1::allocator<wchar_t> >::replace(unsigned long, unsigned long, unsigned long, wchar_t)
PUBLIC m 802c0 0 std::__ndk1::basic_string<wchar_t, std::__ndk1::char_traits<wchar_t>, std::__ndk1::allocator<wchar_t> >::assign(wchar_t const*, unsigned long)
PUBLIC m 80398 0 std::__ndk1::basic_string<wchar_t, std::__ndk1::char_traits<wchar_t>, std::__ndk1::allocator<wchar_t> >::reserve(unsigned long)
PUBLIC 80424 0 std::__ndk1::basic_string<wchar_t, std::__ndk1::char_traits<wchar_t>, std::__ndk1::allocator<wchar_t> >::__shrink_or_extend[abi:v170000](unsigned long)
PUBLIC m 8056c 0 std::__ndk1::basic_string<wchar_t, std::__ndk1::char_traits<wchar_t>, std::__ndk1::allocator<wchar_t> >::append(wchar_t const*, unsigned long)
PUBLIC m 80658 0 std::__ndk1::basic_string<wchar_t, std::__ndk1::char_traits<wchar_t>, std::__ndk1::allocator<wchar_t> >::assign(std::__ndk1::basic_string<wchar_t, std::__ndk1::char_traits<wchar_t>, std::__ndk1::allocator<wchar_t> > const&, unsigned long, unsigned long)
PUBLIC m 80764 0 std::__ndk1::basic_string<wchar_t, std::__ndk1::char_traits<wchar_t>, std::__ndk1::allocator<wchar_t> >::copy(wchar_t*, unsigned long, unsigned long) const
PUBLIC m 807d4 0 std::__ndk1::basic_string<wchar_t, std::__ndk1::char_traits<wchar_t>, std::__ndk1::allocator<wchar_t> >::basic_string(std::__ndk1::basic_string<wchar_t, std::__ndk1::char_traits<wchar_t>, std::__ndk1::allocator<wchar_t> > const&, unsigned long, unsigned long, std::__ndk1::allocator<wchar_t> const&)
PUBLIC m 808c4 0 std::__ndk1::basic_string<wchar_t, std::__ndk1::char_traits<wchar_t>, std::__ndk1::allocator<wchar_t> >::find(wchar_t, unsigned long) const
PUBLIC m 80940 0 std::__ndk1::basic_string<wchar_t, std::__ndk1::char_traits<wchar_t>, std::__ndk1::allocator<wchar_t> >::__init(unsigned long, wchar_t)
PUBLIC m 80a30 0 std::__ndk1::basic_string<wchar_t, std::__ndk1::char_traits<wchar_t>, std::__ndk1::allocator<wchar_t> >::insert(unsigned long, wchar_t const*)
PUBLIC m 80a7c 0 std::__ndk1::basic_string<wchar_t, std::__ndk1::char_traits<wchar_t>, std::__ndk1::allocator<wchar_t> >::find_last_of(wchar_t const*, unsigned long, unsigned long) const
PUBLIC m 80b1c 0 std::__ndk1::basic_string<wchar_t, std::__ndk1::char_traits<wchar_t>, std::__ndk1::allocator<wchar_t> >::push_back(wchar_t)
PUBLIC m 80c44 0 std::__ndk1::basic_string<wchar_t, std::__ndk1::char_traits<wchar_t>, std::__ndk1::allocator<wchar_t> >::append(unsigned long, wchar_t)
PUBLIC m 80e04 0 std::__ndk1::basic_string<wchar_t, std::__ndk1::char_traits<wchar_t>, std::__ndk1::allocator<wchar_t> >::rfind(wchar_t, unsigned long) const
PUBLIC m 80e5c 0 std::__ndk1::basic_string<wchar_t, std::__ndk1::char_traits<wchar_t>, std::__ndk1::allocator<wchar_t> >::assign(unsigned long, wchar_t)
PUBLIC m 80fd8 0 std::__ndk1::basic_string<wchar_t, std::__ndk1::char_traits<wchar_t>, std::__ndk1::allocator<wchar_t> >::erase(unsigned long, unsigned long)
PUBLIC m 810b4 0 std::__ndk1::basic_string<wchar_t, std::__ndk1::char_traits<wchar_t>, std::__ndk1::allocator<wchar_t> >::append(std::__ndk1::basic_string<wchar_t, std::__ndk1::char_traits<wchar_t>, std::__ndk1::allocator<wchar_t> > const&, unsigned long, unsigned long)
PUBLIC m 811d8 0 std::__ndk1::basic_string<wchar_t, std::__ndk1::char_traits<wchar_t>, std::__ndk1::allocator<wchar_t> >::compare(wchar_t const*) const
PUBLIC m 81284 0 std::__ndk1::basic_string<wchar_t, std::__ndk1::char_traits<wchar_t>, std::__ndk1::allocator<wchar_t> >::compare(unsigned long, unsigned long, wchar_t const*, unsigned long) const
PUBLIC m 81320 0 std::__ndk1::basic_string<wchar_t, std::__ndk1::char_traits<wchar_t>, std::__ndk1::allocator<wchar_t> >::compare(unsigned long, unsigned long, wchar_t const*) const
PUBLIC m 813f0 0 std::__ndk1::basic_string<wchar_t, std::__ndk1::char_traits<wchar_t>, std::__ndk1::allocator<wchar_t> >::at(unsigned long)
PUBLIC m 8143c 0 std::__ndk1::basic_string<wchar_t, std::__ndk1::char_traits<wchar_t>, std::__ndk1::allocator<wchar_t> >::assign(wchar_t const*)
PUBLIC m 8151c 0 std::__ndk1::basic_string<wchar_t, std::__ndk1::char_traits<wchar_t>, std::__ndk1::allocator<wchar_t> >::find(wchar_t const*, unsigned long, unsigned long) const
PUBLIC m 815f4 0 std::__ndk1::basic_string<wchar_t, std::__ndk1::char_traits<wchar_t>, std::__ndk1::allocator<wchar_t> >::compare(unsigned long, unsigned long, std::__ndk1::basic_string<wchar_t, std::__ndk1::char_traits<wchar_t>, std::__ndk1::allocator<wchar_t> > const&, unsigned long, unsigned long) const
PUBLIC m 816c8 0 std::__ndk1::basic_string<wchar_t, std::__ndk1::char_traits<wchar_t>, std::__ndk1::allocator<wchar_t> >::operator=(std::__ndk1::basic_string<wchar_t, std::__ndk1::char_traits<wchar_t>, std::__ndk1::allocator<wchar_t> > const&)
PUBLIC m 81838 0 std::__ndk1::basic_string<wchar_t, std::__ndk1::char_traits<wchar_t>, std::__ndk1::allocator<wchar_t> >::append(wchar_t const*)
PUBLIC m 81920 0 std::__ndk1::basic_string<wchar_t, std::__ndk1::char_traits<wchar_t>, std::__ndk1::allocator<wchar_t> >::replace(unsigned long, unsigned long, std::__ndk1::basic_string<wchar_t, std::__ndk1::char_traits<wchar_t>, std::__ndk1::allocator<wchar_t> > const&, unsigned long, unsigned long)
PUBLIC m 81974 0 std::__ndk1::basic_string<wchar_t, std::__ndk1::char_traits<wchar_t>, std::__ndk1::allocator<wchar_t> >::insert(std::__ndk1::__wrap_iter<wchar_t const*>, wchar_t)
PUBLIC m 81b3c 0 std::__ndk1::basic_string<wchar_t, std::__ndk1::char_traits<wchar_t>, std::__ndk1::allocator<wchar_t> >::resize(unsigned long, wchar_t)
PUBLIC m 81b88 0 std::__ndk1::basic_string<wchar_t, std::__ndk1::char_traits<wchar_t>, std::__ndk1::allocator<wchar_t> >::insert(unsigned long, std::__ndk1::basic_string<wchar_t, std::__ndk1::char_traits<wchar_t>, std::__ndk1::allocator<wchar_t> > const&, unsigned long, unsigned long)
PUBLIC m 81bdc 0 std::__ndk1::operator+<char, std::__ndk1::char_traits<char>, std::__ndk1::allocator<char> >(char const*, std::__ndk1::basic_string<char, std::__ndk1::char_traits<char>, std::__ndk1::allocator<char> > const&)
PUBLIC m 81cc4 0 std::__ndk1::__basic_string_common<true>::__throw_length_error() const
PUBLIC m 81cdc 0 std::__ndk1::__basic_string_common<true>::__throw_out_of_range() const
PUBLIC m 81cf4 0 std::__ndk1::stoi(std::__ndk1::basic_string<char, std::__ndk1::char_traits<char>, std::__ndk1::allocator<char> > const&, unsigned long*, int)
PUBLIC m 81de0 0 std::__ndk1::stol(std::__ndk1::basic_string<char, std::__ndk1::char_traits<char>, std::__ndk1::allocator<char> > const&, unsigned long*, int)
PUBLIC m 81ec4 0 std::__ndk1::stoul(std::__ndk1::basic_string<char, std::__ndk1::char_traits<char>, std::__ndk1::allocator<char> > const&, unsigned long*, int)
PUBLIC m 81fac 0 std::__ndk1::stoll(std::__ndk1::basic_string<char, std::__ndk1::char_traits<char>, std::__ndk1::allocator<char> > const&, unsigned long*, int)
PUBLIC m 82094 0 std::__ndk1::stoull(std::__ndk1::basic_string<char, std::__ndk1::char_traits<char>, std::__ndk1::allocator<char> > const&, unsigned long*, int)
PUBLIC m 82180 0 std::__ndk1::stof(std::__ndk1::basic_string<char, std::__ndk1::char_traits<char>, std::__ndk1::allocator<char> > const&, unsigned long*)
PUBLIC m 8225c 0 std::__ndk1::stod(std::__ndk1::basic_string<char, std::__ndk1::char_traits<char>, std::__ndk1::allocator<char> > const&, unsigned long*)
PUBLIC m 82338 0 std::__ndk1::stold(std::__ndk1::basic_string<char, std::__ndk1::char_traits<char>, std::__ndk1::allocator<char> > const&, unsigned long*)
PUBLIC m 82410 0 std::__ndk1::stoi(std::__ndk1::basic_string<wchar_t, std::__ndk1::char_traits<wchar_t>, std::__ndk1::allocator<wchar_t> > const&, unsigned long*, int)
PUBLIC m 82504 0 std::__ndk1::stol(std::__ndk1::basic_string<wchar_t, std::__ndk1::char_traits<wchar_t>, std::__ndk1::allocator<wchar_t> > const&, unsigned long*, int)
PUBLIC m 825f0 0 std::__ndk1::stoul(std::__ndk1::basic_string<wchar_t, std::__ndk1::char_traits<wchar_t>, std::__ndk1::allocator<wchar_t> > const&, unsigned long*, int)
PUBLIC m 826e0 0 std::__ndk1::stoll(std::__ndk1::basic_string<wchar_t, std::__ndk1::char_traits<wchar_t>, std::__ndk1::allocator<wchar_t> > const&, unsigned long*, int)
PUBLIC m 827d0 0 std::__ndk1::stoull(std::__ndk1::basic_string<wchar_t, std::__ndk1::char_traits<wchar_t>, std::__ndk1::allocator<wchar_t> > const&, unsigned long*, int)
PUBLIC m 828c4 0 std::__ndk1::stof(std::__ndk1::basic_string<wchar_t, std::__ndk1::char_traits<wchar_t>, std::__ndk1::allocator<wchar_t> > const&, unsigned long*)
PUBLIC m 829a8 0 std::__ndk1::stod(std::__ndk1::basic_string<wchar_t, std::__ndk1::char_traits<wchar_t>, std::__ndk1::allocator<wchar_t> > const&, unsigned long*)
PUBLIC m 82a8c 0 std::__ndk1::stold(std::__ndk1::basic_string<wchar_t, std::__ndk1::char_traits<wchar_t>, std::__ndk1::allocator<wchar_t> > const&, unsigned long*)
PUBLIC m 82b6c 0 std::__ndk1::to_string(int)
PUBLIC m 82c9c 0 std::__ndk1::to_string(long)
PUBLIC m 82eac 0 std::__ndk1::to_string(long long)
PUBLIC m 830bc 0 std::__ndk1::to_string(unsigned int)
PUBLIC m 83178 0 std::__ndk1::to_string(unsigned long)
PUBLIC m 83324 0 std::__ndk1::to_string(unsigned long long)
PUBLIC m 834d0 0 std::__ndk1::to_wstring(int)
PUBLIC m 836b0 0 std::__ndk1::to_wstring(long)
PUBLIC m 83970 0 std::__ndk1::to_wstring(long long)
PUBLIC m 83c30 0 std::__ndk1::to_wstring(unsigned int)
PUBLIC m 83d9c 0 std::__ndk1::to_wstring(unsigned long)
PUBLIC m 83ff8 0 std::__ndk1::to_wstring(unsigned long long)
PUBLIC m 84254 0 std::__ndk1::to_string(float)
PUBLIC m 843f4 0 std::__ndk1::to_string(double)
PUBLIC m 84590 0 std::__ndk1::to_string(long double)
PUBLIC m 84724 0 std::__ndk1::to_wstring(float)
PUBLIC m 848e8 0 std::__ndk1::to_wstring(double)
PUBLIC m 84aa8 0 std::__ndk1::to_wstring(long double)
PUBLIC 84c60 0 std::__ndk1::(anonymous namespace)::throw_from_string_out_of_range(std::__ndk1::basic_string<char, std::__ndk1::char_traits<char>, std::__ndk1::allocator<char> > const&)
PUBLIC 84d98 0 std::__ndk1::(anonymous namespace)::throw_from_string_invalid_arg(std::__ndk1::basic_string<char, std::__ndk1::char_traits<char>, std::__ndk1::allocator<char> > const&)
PUBLIC 84ed0 0 std::__ndk1::__itoa::__base_10_u32[abi:v170000](char*, unsigned int)
PUBLIC m 8525c 0 std::__ndk1::error_category::error_category()
PUBLIC m 85274 0 std::__ndk1::error_category::~error_category()
PUBLIC m 8527c 0 std::__ndk1::error_category::default_error_condition(int) const
PUBLIC m 85290 0 std::__ndk1::error_category::equivalent(int, std::__ndk1::error_condition const&) const
PUBLIC m 852d4 0 std::__ndk1::error_category::equivalent(std::__ndk1::error_code const&, int) const
PUBLIC 852f0 0 std::__ndk1::__do_message::message(int) const
PUBLIC 853fc 0 std::__ndk1::__generic_error_category::name() const
PUBLIC 8540c 0 std::__ndk1::__generic_error_category::message(int) const
PUBLIC m 85480 0 std::__ndk1::generic_category()
PUBLIC 854ec 0 std::__ndk1::__system_error_category::name() const
PUBLIC 854fc 0 std::__ndk1::__system_error_category::message(int) const
PUBLIC 8556c 0 std::__ndk1::__system_error_category::default_error_condition(int) const
PUBLIC m 85678 0 std::__ndk1::system_category()
PUBLIC m 856e4 0 std::__ndk1::error_condition::message() const
PUBLIC m 85700 0 std::__ndk1::error_code::message() const
PUBLIC m 8571c 0 std::__ndk1::system_error::__init(std::__ndk1::error_code const&, std::__ndk1::basic_string<char, std::__ndk1::char_traits<char>, std::__ndk1::allocator<char> >)
PUBLIC m 85810 0 std::__ndk1::system_error::system_error(std::__ndk1::error_code, std::__ndk1::basic_string<char, std::__ndk1::char_traits<char>, std::__ndk1::allocator<char> > const&)
PUBLIC m 85958 0 std::__ndk1::system_error::system_error(std::__ndk1::error_code, char const*)
PUBLIC m 85aa4 0 std::__ndk1::system_error::system_error(std::__ndk1::error_code)
PUBLIC m 85b78 0 std::__ndk1::system_error::system_error(int, std::__ndk1::error_category const&, std::__ndk1::basic_string<char, std::__ndk1::char_traits<char>, std::__ndk1::allocator<char> > const&)
PUBLIC m 85cd4 0 std::__ndk1::system_error::system_error(int, std::__ndk1::error_category const&, char const*)
PUBLIC m 85e34 0 std::__ndk1::system_error::system_error(int, std::__ndk1::error_category const&)
PUBLIC m 85f1c 0 std::__ndk1::system_error::~system_error()
PUBLIC m 85f24 0 std::__ndk1::system_error::~system_error()
PUBLIC m 85f50 0 std::__ndk1::__throw_system_error(int, char const*)
PUBLIC m 85ff8 0 std::__ndk1::error_category::~error_category()
PUBLIC 86000 0 std::__ndk1::__generic_error_category::~__generic_error_category()
PUBLIC 86008 0 std::__ndk1::__system_error_category::~__system_error_category()
PUBLIC m 86010 0 std::__ndk1::thread::~thread()
PUBLIC m 86034 0 std::__ndk1::thread::join()
PUBLIC m 86080 0 std::__ndk1::thread::detach()
PUBLIC m 860c8 0 std::__ndk1::thread::hardware_concurrency()
PUBLIC m 860f4 0 std::__ndk1::this_thread::sleep_for(std::__ndk1::chrono::duration<long long, std::__ndk1::ratio<(long)1, (long)1000000000> > const&)
PUBLIC m 86170 0 std::__ndk1::__thread_local_data()
PUBLIC 86204 0 std::__ndk1::__thread_specific_ptr<std::__ndk1::__thread_struct>::__thread_specific_ptr()
PUBLIC m 86238 0 std::__ndk1::__thread_struct_imp::~__thread_struct_imp()
PUBLIC m 86304 0 std::__ndk1::__thread_struct::__thread_struct()
PUBLIC m 86340 0 std::__ndk1::__thread_struct::~__thread_struct()
PUBLIC m 86384 0 std::__ndk1::__thread_struct::notify_all_at_thread_exit(std::__ndk1::condition_variable*, std::__ndk1::mutex*)
PUBLIC m 864bc 0 std::__ndk1::__thread_struct::__make_ready_at_thread_exit(std::__ndk1::__assoc_sub_state*)
PUBLIC 86638 0 std::__ndk1::vector<std::__ndk1::pair<std::__ndk1::condition_variable*, std::__ndk1::mutex*>, std::__ndk1::__hidden_allocator<std::__ndk1::pair<std::__ndk1::condition_variable*, std::__ndk1::mutex*> > >::__throw_length_error[abi:v170000]() const
PUBLIC 86650 0 std::__ndk1::vector<std::__ndk1::__assoc_sub_state*, std::__ndk1::__hidden_allocator<std::__ndk1::__assoc_sub_state*> >::__throw_length_error[abi:v170000]() const
PUBLIC 86668 0 std::__ndk1::__thread_specific_ptr<std::__ndk1::__thread_struct>::__at_thread_exit(void*)
PUBLIC 866a0 0 std::__ndk1::__future_error_category::name() const
PUBLIC 866b0 0 std::__ndk1::__future_error_category::message(int) const
PUBLIC m 86880 0 std::__ndk1::future_category()
PUBLIC m 868fc 0 std::__ndk1::future_error::future_error(std::__ndk1::error_code)
PUBLIC m 86988 0 std::__ndk1::future_error::~future_error()
PUBLIC m 86990 0 std::__ndk1::future_error::~future_error()
PUBLIC m 869bc 0 std::__ndk1::__assoc_sub_state::__on_zero_shared()
PUBLIC m 869cc 0 std::__ndk1::__assoc_sub_state::set_value()
PUBLIC 86a5c 0 std::__ndk1::__throw_future_error[abi:v170000](std::__ndk1::future_errc)
PUBLIC m 86b08 0 std::__ndk1::__assoc_sub_state::set_value_at_thread_exit()
PUBLIC m 86ba0 0 std::__ndk1::__assoc_sub_state::set_exception(std::exception_ptr)
PUBLIC m 86c48 0 std::__ndk1::__assoc_sub_state::set_exception_at_thread_exit(std::exception_ptr)
PUBLIC m 86cf0 0 std::__ndk1::__assoc_sub_state::__make_ready()
PUBLIC m 86d38 0 std::__ndk1::__assoc_sub_state::copy()
PUBLIC m 86e24 0 std::__ndk1::__assoc_sub_state::__sub_wait(std::__ndk1::unique_lock<std::__ndk1::mutex>&)
PUBLIC m 86ec4 0 std::__ndk1::__assoc_sub_state::wait()
PUBLIC m 86f6c 0 std::__ndk1::__assoc_sub_state::__execute()
PUBLIC m 86f80 0 std::__ndk1::future<void>::future(std::__ndk1::__assoc_sub_state*)
PUBLIC m 86ff8 0 std::__ndk1::future<void>::~future()
PUBLIC m 8704c 0 std::__ndk1::future<void>::get()
PUBLIC m 870d8 0 std::__ndk1::promise<void>::promise()
PUBLIC m 8712c 0 std::__ndk1::promise<void>::~promise()
PUBLIC m 872b4 0 std::__ndk1::promise<void>::get_future()
PUBLIC m 872e0 0 std::__ndk1::promise<void>::set_value()
PUBLIC m 8737c 0 std::__ndk1::promise<void>::set_exception(std::exception_ptr)
PUBLIC m 873dc 0 std::__ndk1::promise<void>::set_value_at_thread_exit()
PUBLIC m 87404 0 std::__ndk1::promise<void>::set_exception_at_thread_exit(std::exception_ptr)
PUBLIC m 87464 0 std::__ndk1::shared_future<void>::~shared_future()
PUBLIC m 874b8 0 std::__ndk1::shared_future<void>::operator=(std::__ndk1::shared_future<void> const&)
PUBLIC 87530 0 std::__ndk1::__assoc_sub_state::~__assoc_sub_state()
PUBLIC 87584 0 std::__ndk1::__assoc_sub_state::~__assoc_sub_state()
PUBLIC 875e0 0 std::__ndk1::__future_error_category::~__future_error_category()
PUBLIC m 8760c 0 std::uncaught_exception()
PUBLIC m 87630 0 std::uncaught_exceptions()
PUBLIC m 87638 0 std::exception_ptr::~exception_ptr()
PUBLIC m 87644 0 std::exception_ptr::exception_ptr(std::exception_ptr const&)
PUBLIC m 8765c 0 std::exception_ptr::operator=(std::exception_ptr const&)
PUBLIC m 876ac 0 std::nested_exception::nested_exception()
PUBLIC m 876e8 0 std::current_exception()
PUBLIC m 87714 0 std::nested_exception::~nested_exception()
PUBLIC m 8772c 0 std::nested_exception::~nested_exception()
PUBLIC m 87758 0 std::nested_exception::rethrow_nested() const
PUBLIC m 877b0 0 std::rethrow_exception(std::exception_ptr)
PUBLIC m 877c8 0 std::bad_variant_access::what() const
PUBLIC 877d8 0 std::bad_variant_access::~bad_variant_access()
PUBLIC m 87804 0 std::__ndk1::random_device::random_device(std::__ndk1::basic_string<char, std::__ndk1::char_traits<char>, std::__ndk1::allocator<char> > const&)
PUBLIC m 878ac 0 std::__ndk1::random_device::~random_device()
PUBLIC m 878d0 0 std::__ndk1::random_device::operator()()
PUBLIC m 87964 0 std::__ndk1::random_device::entropy() const
PUBLIC 879bc 0 std::__ndk1::__iostream_category::name() const
PUBLIC 879cc 0 std::__ndk1::__iostream_category::message(int) const
PUBLIC m 87a4c 0 std::__ndk1::iostream_category()
PUBLIC m 87ac8 0 std::__ndk1::ios_base::failure::failure(std::__ndk1::basic_string<char, std::__ndk1::char_traits<char>, std::__ndk1::allocator<char> > const&, std::__ndk1::error_code const&)
PUBLIC m 87b08 0 std::__ndk1::ios_base::failure::failure(char const*, std::__ndk1::error_code const&)
PUBLIC m 87b48 0 std::__ndk1::ios_base::failure::~failure()
PUBLIC m 87b50 0 std::__ndk1::ios_base::failure::~failure()
PUBLIC m 87b7c 0 std::__ndk1::ios_base::__call_callbacks(std::__ndk1::ios_base::event)
PUBLIC m 87bdc 0 std::__ndk1::ios_base::imbue(std::__ndk1::locale const&)
PUBLIC m 87c70 0 std::__ndk1::ios_base::getloc() const
PUBLIC m 87c80 0 std::__ndk1::ios_base::xalloc()
PUBLIC m 87ca8 0 std::__ndk1::ios_base::iword(int)
PUBLIC m 87dbc 0 std::__ndk1::ios_base::pword(int)
PUBLIC m 87ed0 0 std::__ndk1::ios_base::register_callback(void (*)(std::__ndk1::ios_base::event, std::__ndk1::ios_base&, int), int)
PUBLIC m 87fb0 0 std::__ndk1::ios_base::~ios_base()
PUBLIC m 8803c 0 std::__ndk1::ios_base::~ios_base()
PUBLIC m 88068 0 std::__ndk1::ios_base::clear(unsigned int)
PUBLIC 880ac 0 std::__ndk1::__throw_failure[abi:v170000](char const*)
PUBLIC m 88168 0 std::__ndk1::ios_base::init(void*)
PUBLIC m 881b4 0 std::__ndk1::ios_base::copyfmt(std::__ndk1::ios_base const&)
PUBLIC m 88484 0 std::__ndk1::ios_base::move(std::__ndk1::ios_base&)
PUBLIC m 88520 0 std::__ndk1::ios_base::swap(std::__ndk1::ios_base&)
PUBLIC m 88650 0 std::__ndk1::ios_base::__set_badbit_and_consider_rethrow()
PUBLIC m 88680 0 std::__ndk1::ios_base::__set_failbit_and_consider_rethrow()
PUBLIC m 886b0 0 std::__ndk1::ios_base::sync_with_stdio(bool)
PUBLIC 886c8 0 std::__ndk1::__iostream_category::~__iostream_category()
PUBLIC m 886f4 0 std::__throw_bad_alloc()
PUBLIC m 8872c 0 std::__ndk1::basic_ios<char, std::__ndk1::char_traits<char> >::~basic_ios()
PUBLIC m 88734 0 std::__ndk1::basic_ios<char, std::__ndk1::char_traits<char> >::~basic_ios()
PUBLIC m 88760 0 std::__ndk1::basic_ios<char, std::__ndk1::char_traits<char> >::copyfmt(std::__ndk1::basic_ios<char, std::__ndk1::char_traits<char> > const&)
PUBLIC m 887dc 0 std::__ndk1::basic_streambuf<char, std::__ndk1::char_traits<char> >::~basic_streambuf()
PUBLIC m 887f4 0 std::__ndk1::basic_streambuf<char, std::__ndk1::char_traits<char> >::~basic_streambuf()
PUBLIC m 88820 0 std::__ndk1::basic_streambuf<char, std::__ndk1::char_traits<char> >::pubimbue(std::__ndk1::locale const&)
PUBLIC m 88874 0 std::__ndk1::basic_streambuf<char, std::__ndk1::char_traits<char> >::getloc() const
PUBLIC m 88884 0 std::__ndk1::basic_streambuf<char, std::__ndk1::char_traits<char> >::pubsetbuf(char*, long)
PUBLIC m 88894 0 std::__ndk1::basic_streambuf<char, std::__ndk1::char_traits<char> >::pubseekoff(long long, std::__ndk1::ios_base::seekdir, unsigned int)
PUBLIC m 888a4 0 std::__ndk1::basic_streambuf<char, std::__ndk1::char_traits<char> >::pubseekpos(std::__ndk1::fpos<mbstate_t>, unsigned int)
PUBLIC m 888b4 0 std::__ndk1::basic_streambuf<char, std::__ndk1::char_traits<char> >::pubsync()
PUBLIC m 888c4 0 std::__ndk1::basic_streambuf<char, std::__ndk1::char_traits<char> >::in_avail()
PUBLIC m 888e8 0 std::__ndk1::basic_streambuf<char, std::__ndk1::char_traits<char> >::snextc()
PUBLIC m 88970 0 std::__ndk1::basic_streambuf<char, std::__ndk1::char_traits<char> >::sbumpc()
PUBLIC m 8899c 0 std::__ndk1::basic_streambuf<char, std::__ndk1::char_traits<char> >::sgetc()
PUBLIC m 889c0 0 std::__ndk1::basic_streambuf<char, std::__ndk1::char_traits<char> >::sgetn(char*, long)
PUBLIC m 889d0 0 std::__ndk1::basic_streambuf<char, std::__ndk1::char_traits<char> >::sputbackc(char)
PUBLIC m 88a08 0 std::__ndk1::basic_streambuf<char, std::__ndk1::char_traits<char> >::sungetc()
PUBLIC m 88a38 0 std::__ndk1::basic_streambuf<char, std::__ndk1::char_traits<char> >::sputc(char)
PUBLIC m 88a74 0 std::__ndk1::basic_streambuf<char, std::__ndk1::char_traits<char> >::sputn(char const*, long)
PUBLIC m 88a84 0 std::__ndk1::basic_streambuf<char, std::__ndk1::char_traits<char> >::basic_streambuf()
PUBLIC m 88acc 0 std::__ndk1::basic_streambuf<char, std::__ndk1::char_traits<char> >::basic_streambuf(std::__ndk1::basic_streambuf<char, std::__ndk1::char_traits<char> > const&)
PUBLIC m 88b28 0 std::__ndk1::basic_streambuf<char, std::__ndk1::char_traits<char> >::operator=(std::__ndk1::basic_streambuf<char, std::__ndk1::char_traits<char> > const&)
PUBLIC m 88b78 0 std::__ndk1::basic_streambuf<char, std::__ndk1::char_traits<char> >::swap(std::__ndk1::basic_streambuf<char, std::__ndk1::char_traits<char> >&)
PUBLIC m 88c44 0 std::__ndk1::basic_streambuf<char, std::__ndk1::char_traits<char> >::gbump(int)
PUBLIC m 88c58 0 std::__ndk1::basic_streambuf<char, std::__ndk1::char_traits<char> >::setg(char*, char*, char*)
PUBLIC m 88c68 0 std::__ndk1::basic_streambuf<char, std::__ndk1::char_traits<char> >::pbump(int)
PUBLIC m 88c7c 0 std::__ndk1::basic_streambuf<char, std::__ndk1::char_traits<char> >::setp(char*, char*)
PUBLIC m 88c8c 0 std::__ndk1::basic_streambuf<char, std::__ndk1::char_traits<char> >::imbue(std::__ndk1::locale const&)
PUBLIC m 88c94 0 std::__ndk1::basic_streambuf<char, std::__ndk1::char_traits<char> >::setbuf(char*, long)
PUBLIC m 88c9c 0 std::__ndk1::basic_streambuf<char, std::__ndk1::char_traits<char> >::seekoff(long long, std::__ndk1::ios_base::seekdir, unsigned int)
PUBLIC m 88cac 0 std::__ndk1::basic_streambuf<char, std::__ndk1::char_traits<char> >::seekpos(std::__ndk1::fpos<mbstate_t>, unsigned int)
PUBLIC m 88cbc 0 std::__ndk1::basic_streambuf<char, std::__ndk1::char_traits<char> >::sync()
PUBLIC m 88cc8 0 std::__ndk1::basic_streambuf<char, std::__ndk1::char_traits<char> >::showmanyc()
PUBLIC m 88cd4 0 std::__ndk1::basic_streambuf<char, std::__ndk1::char_traits<char> >::xsgetn(char*, long)
PUBLIC m 88db4 0 std::__ndk1::basic_streambuf<char, std::__ndk1::char_traits<char> >::underflow()
PUBLIC m 88dc0 0 std::__ndk1::basic_streambuf<char, std::__ndk1::char_traits<char> >::uflow()
PUBLIC m 88e08 0 std::__ndk1::basic_streambuf<char, std::__ndk1::char_traits<char> >::pbackfail(int)
PUBLIC m 88e14 0 std::__ndk1::basic_streambuf<char, std::__ndk1::char_traits<char> >::xsputn(char const*, long)
PUBLIC m 88edc 0 std::__ndk1::basic_streambuf<char, std::__ndk1::char_traits<char> >::overflow(int)
PUBLIC m 88ee8 0 std::__ndk1::basic_istream<char, std::__ndk1::char_traits<char> >::basic_istream(std::__ndk1::basic_streambuf<char, std::__ndk1::char_traits<char> >*)
PUBLIC m 88f44 0 std::__ndk1::basic_istream<char, std::__ndk1::char_traits<char> >::basic_istream(std::__ndk1::basic_streambuf<char, std::__ndk1::char_traits<char> >*)
PUBLIC m 88fac 0 std::__ndk1::basic_istream<char, std::__ndk1::char_traits<char> >::~basic_istream()
PUBLIC m 88fb4 0 std::__ndk1::basic_istream<char, std::__ndk1::char_traits<char> >::~basic_istream()
PUBLIC m 88fc0 0 {virtual override thunk({virtual offset(0, -24)}, std::__ndk1::basic_istream<char, std::__ndk1::char_traits<char> >::~basic_istream())}
PUBLIC m 88fd8 0 std::__ndk1::basic_istream<char, std::__ndk1::char_traits<char> >::~basic_istream()
PUBLIC m 89008 0 {virtual override thunk({virtual offset(0, -24)}, std::__ndk1::basic_istream<char, std::__ndk1::char_traits<char> >::~basic_istream())}
PUBLIC m 89040 0 std::__ndk1::basic_istream<char, std::__ndk1::char_traits<char> >::swap(std::__ndk1::basic_istream<char, std::__ndk1::char_traits<char> >&)
PUBLIC m 890ac 0 std::__ndk1::basic_istream<char, std::__ndk1::char_traits<char> >::sentry::sentry(std::__ndk1::basic_istream<char, std::__ndk1::char_traits<char> >&, bool)
PUBLIC m 89278 0 std::__ndk1::basic_ostream<char, std::__ndk1::char_traits<char> >::flush()
PUBLIC m 89370 0 std::__ndk1::basic_istream<char, std::__ndk1::char_traits<char> >::operator>>(std::__ndk1::basic_istream<char, std::__ndk1::char_traits<char> >& (*)(std::__ndk1::basic_istream<char, std::__ndk1::char_traits<char> >&))
PUBLIC m 8937c 0 std::__ndk1::basic_istream<char, std::__ndk1::char_traits<char> >::operator>>(std::__ndk1::basic_ios<char, std::__ndk1::char_traits<char> >& (*)(std::__ndk1::basic_ios<char, std::__ndk1::char_traits<char> >&))
PUBLIC m 893b4 0 std::__ndk1::basic_istream<char, std::__ndk1::char_traits<char> >::operator>>(std::__ndk1::ios_base& (*)(std::__ndk1::ios_base&))
PUBLIC m 893ec 0 std::__ndk1::basic_istream<char, std::__ndk1::char_traits<char> >::operator>>(std::__ndk1::basic_streambuf<char, std::__ndk1::char_traits<char> >*)
PUBLIC m 89584 0 std::__ndk1::basic_istream<char, std::__ndk1::char_traits<char> >::operator>>(bool&)
PUBLIC 8958c 0 std::__ndk1::__input_arithmetic[abi:v170000]<bool, char, std::__ndk1::char_traits<char> >(std::__ndk1::basic_istream<char, std::__ndk1::char_traits<char> >, bool&)
PUBLIC m 896bc 0 std::__ndk1::basic_istream<char, std::__ndk1::char_traits<char> >::operator>>(short&)
PUBLIC 896c4 0 std::__ndk1::__input_arithmetic_with_numeric_limits[abi:v170000]<short, char, std::__ndk1::char_traits<char> >(std::__ndk1::basic_istream<char, std::__ndk1::char_traits<char> >, short&)
PUBLIC m 89834 0 std::__ndk1::basic_istream<char, std::__ndk1::char_traits<char> >::operator>>(unsigned short&)
PUBLIC 8983c 0 std::__ndk1::__input_arithmetic[abi:v170000]<unsigned short, char, std::__ndk1::char_traits<char> >(std::__ndk1::basic_istream<char, std::__ndk1::char_traits<char> >, unsigned short&)
PUBLIC m 8996c 0 std::__ndk1::basic_istream<char, std::__ndk1::char_traits<char> >::operator>>(int&)
PUBLIC 89974 0 std::__ndk1::__input_arithmetic_with_numeric_limits[abi:v170000]<int, char, std::__ndk1::char_traits<char> >(std::__ndk1::basic_istream<char, std::__ndk1::char_traits<char> >, int&)
PUBLIC m 89ae8 0 std::__ndk1::basic_istream<char, std::__ndk1::char_traits<char> >::operator>>(unsigned int&)
PUBLIC 89af0 0 std::__ndk1::__input_arithmetic[abi:v170000]<unsigned int, char, std::__ndk1::char_traits<char> >(std::__ndk1::basic_istream<char, std::__ndk1::char_traits<char> >, unsigned int&)
PUBLIC m 89c20 0 std::__ndk1::basic_istream<char, std::__ndk1::char_traits<char> >::operator>>(long&)
PUBLIC 89c28 0 std::__ndk1::__input_arithmetic[abi:v170000]<long, char, std::__ndk1::char_traits<char> >(std::__ndk1::basic_istream<char, std::__ndk1::char_traits<char> >, long&)
PUBLIC m 89d58 0 std::__ndk1::basic_istream<char, std::__ndk1::char_traits<char> >::operator>>(unsigned long&)
PUBLIC 89d60 0 std::__ndk1::__input_arithmetic[abi:v170000]<unsigned long, char, std::__ndk1::char_traits<char> >(std::__ndk1::basic_istream<char, std::__ndk1::char_traits<char> >, unsigned long&)
PUBLIC m 89e90 0 std::__ndk1::basic_istream<char, std::__ndk1::char_traits<char> >::operator>>(long long&)
PUBLIC 89e98 0 std::__ndk1::__input_arithmetic[abi:v170000]<long long, char, std::__ndk1::char_traits<char> >(std::__ndk1::basic_istream<char, std::__ndk1::char_traits<char> >, long long&)
PUBLIC m 89fc8 0 std::__ndk1::basic_istream<char, std::__ndk1::char_traits<char> >::operator>>(unsigned long long&)
PUBLIC 89fd0 0 std::__ndk1::__input_arithmetic[abi:v170000]<unsigned long long, char, std::__ndk1::char_traits<char> >(std::__ndk1::basic_istream<char, std::__ndk1::char_traits<char> >, unsigned long long&)
PUBLIC m 8a100 0 std::__ndk1::basic_istream<char, std::__ndk1::char_traits<char> >::operator>>(float&)
PUBLIC 8a108 0 std::__ndk1::__input_arithmetic[abi:v170000]<float, char, std::__ndk1::char_traits<char> >(std::__ndk1::basic_istream<char, std::__ndk1::char_traits<char> >, float&)
PUBLIC m 8a238 0 std::__ndk1::basic_istream<char, std::__ndk1::char_traits<char> >::operator>>(double&)
PUBLIC 8a240 0 std::__ndk1::__input_arithmetic[abi:v170000]<double, char, std::__ndk1::char_traits<char> >(std::__ndk1::basic_istream<char, std::__ndk1::char_traits<char> >, double&)
PUBLIC m 8a370 0 std::__ndk1::basic_istream<char, std::__ndk1::char_traits<char> >::operator>>(long double&)
PUBLIC 8a378 0 std::__ndk1::__input_arithmetic[abi:v170000]<long double, char, std::__ndk1::char_traits<char> >(std::__ndk1::basic_istream<char, std::__ndk1::char_traits<char> >, long double&)
PUBLIC m 8a4a8 0 std::__ndk1::basic_istream<char, std::__ndk1::char_traits<char> >::operator>>(void*&)
PUBLIC 8a4b0 0 std::__ndk1::__input_arithmetic[abi:v170000]<void*, char, std::__ndk1::char_traits<char> >(std::__ndk1::basic_istream<char, std::__ndk1::char_traits<char> >, void*&)
PUBLIC m 8a5e0 0 std::__ndk1::basic_istream<char, std::__ndk1::char_traits<char> >::get()
PUBLIC m 8a70c 0 std::__ndk1::basic_istream<char, std::__ndk1::char_traits<char> >::get(char&)
PUBLIC m 8a748 0 std::__ndk1::basic_istream<char, std::__ndk1::char_traits<char> >::get(char*, long)
PUBLIC m 8a7ec 0 std::__ndk1::basic_istream<char, std::__ndk1::char_traits<char> >::get(char*, long, char)
PUBLIC m 8a9cc 0 std::__ndk1::basic_istream<char, std::__ndk1::char_traits<char> >::get(std::__ndk1::basic_streambuf<char, std::__ndk1::char_traits<char> >&)
PUBLIC m 8aa60 0 std::__ndk1::basic_istream<char, std::__ndk1::char_traits<char> >::get(std::__ndk1::basic_streambuf<char, std::__ndk1::char_traits<char> >&, char)
PUBLIC m 8abbc 0 std::__ndk1::basic_istream<char, std::__ndk1::char_traits<char> >::getline(char*, long)
PUBLIC m 8ac60 0 std::__ndk1::basic_istream<char, std::__ndk1::char_traits<char> >::getline(char*, long, char)
PUBLIC m 8ae78 0 std::__ndk1::basic_istream<char, std::__ndk1::char_traits<char> >::ignore(long, int)
PUBLIC m 8b01c 0 std::__ndk1::basic_istream<char, std::__ndk1::char_traits<char> >::peek()
PUBLIC m 8b130 0 std::__ndk1::basic_istream<char, std::__ndk1::char_traits<char> >::read(char*, long)
PUBLIC m 8b228 0 std::__ndk1::basic_istream<char, std::__ndk1::char_traits<char> >::readsome(char*, long)
PUBLIC m 8b378 0 std::__ndk1::basic_istream<char, std::__ndk1::char_traits<char> >::putback(char)
PUBLIC m 8b4ac 0 std::__ndk1::basic_istream<char, std::__ndk1::char_traits<char> >::unget()
PUBLIC m 8b5d4 0 std::__ndk1::basic_istream<char, std::__ndk1::char_traits<char> >::sync()
PUBLIC m 8b6c4 0 std::__ndk1::basic_istream<char, std::__ndk1::char_traits<char> >::tellg()
PUBLIC m 8b7c0 0 std::__ndk1::basic_istream<char, std::__ndk1::char_traits<char> >::seekg(std::__ndk1::fpos<mbstate_t>)
PUBLIC m 8b8d0 0 std::__ndk1::basic_istream<char, std::__ndk1::char_traits<char> >::seekg(long long, std::__ndk1::ios_base::seekdir)
PUBLIC m 8b9e0 0 std::__ndk1::basic_ostream<char, std::__ndk1::char_traits<char> >::basic_ostream(std::__ndk1::basic_streambuf<char, std::__ndk1::char_traits<char> >*)
PUBLIC m 8ba38 0 std::__ndk1::basic_ostream<char, std::__ndk1::char_traits<char> >::basic_ostream(std::__ndk1::basic_streambuf<char, std::__ndk1::char_traits<char> >*)
PUBLIC m 8baa0 0 std::__ndk1::basic_ostream<char, std::__ndk1::char_traits<char> >::~basic_ostream()
PUBLIC m 8baa8 0 std::__ndk1::basic_ostream<char, std::__ndk1::char_traits<char> >::~basic_ostream()
PUBLIC m 8bab4 0 {virtual override thunk({virtual offset(0, -24)}, std::__ndk1::basic_ostream<char, std::__ndk1::char_traits<char> >::~basic_ostream())}
PUBLIC m 8bacc 0 std::__ndk1::basic_ostream<char, std::__ndk1::char_traits<char> >::~basic_ostream()
PUBLIC m 8bafc 0 {virtual override thunk({virtual offset(0, -24)}, std::__ndk1::basic_ostream<char, std::__ndk1::char_traits<char> >::~basic_ostream())}
PUBLIC m 8bb34 0 std::__ndk1::basic_ostream<char, std::__ndk1::char_traits<char> >::swap(std::__ndk1::basic_ostream<char, std::__ndk1::char_traits<char> >&)
PUBLIC m 8bb98 0 std::__ndk1::basic_ostream<char, std::__ndk1::char_traits<char> >::sentry::sentry(std::__ndk1::basic_ostream<char, std::__ndk1::char_traits<char> >&)
PUBLIC m 8bbfc 0 std::__ndk1::basic_ostream<char, std::__ndk1::char_traits<char> >::sentry::~sentry()
PUBLIC m 8bca4 0 std::__ndk1::basic_ostream<char, std::__ndk1::char_traits<char> >::operator<<(std::__ndk1::basic_ostream<char, std::__ndk1::char_traits<char> >& (*)(std::__ndk1::basic_ostream<char, std::__ndk1::char_traits<char> >&))
PUBLIC m 8bcb0 0 std::__ndk1::basic_ostream<char, std::__ndk1::char_traits<char> >::operator<<(std::__ndk1::basic_ios<char, std::__ndk1::char_traits<char> >& (*)(std::__ndk1::basic_ios<char, std::__ndk1::char_traits<char> >&))
PUBLIC m 8bce8 0 std::__ndk1::basic_ostream<char, std::__ndk1::char_traits<char> >::operator<<(std::__ndk1::ios_base& (*)(std::__ndk1::ios_base&))
PUBLIC m 8bd20 0 std::__ndk1::basic_ostream<char, std::__ndk1::char_traits<char> >::operator<<(bool)
PUBLIC m 8beac 0 std::__ndk1::basic_ostream<char, std::__ndk1::char_traits<char> >::operator<<(short)
PUBLIC m 8c060 0 std::__ndk1::basic_ostream<char, std::__ndk1::char_traits<char> >::operator<<(unsigned short)
PUBLIC m 8c1ec 0 std::__ndk1::basic_ostream<char, std::__ndk1::char_traits<char> >::operator<<(int)
PUBLIC m 8c3a0 0 std::__ndk1::basic_ostream<char, std::__ndk1::char_traits<char> >::operator<<(unsigned int)
PUBLIC m 8c52c 0 std::__ndk1::basic_ostream<char, std::__ndk1::char_traits<char> >::operator<<(long)
PUBLIC m 8c6b8 0 std::__ndk1::basic_ostream<char, std::__ndk1::char_traits<char> >::operator<<(unsigned long)
PUBLIC m 8c844 0 std::__ndk1::basic_ostream<char, std::__ndk1::char_traits<char> >::operator<<(long long)
PUBLIC m 8c9d0 0 std::__ndk1::basic_ostream<char, std::__ndk1::char_traits<char> >::operator<<(unsigned long long)
PUBLIC m 8cb5c 0 std::__ndk1::basic_ostream<char, std::__ndk1::char_traits<char> >::operator<<(float)
PUBLIC m 8ccf0 0 std::__ndk1::basic_ostream<char, std::__ndk1::char_traits<char> >::operator<<(double)
PUBLIC m 8ce84 0 std::__ndk1::basic_ostream<char, std::__ndk1::char_traits<char> >::operator<<(long double)
PUBLIC m 8d010 0 std::__ndk1::basic_ostream<char, std::__ndk1::char_traits<char> >::operator<<(void const*)
PUBLIC m 8d19c 0 std::__ndk1::basic_ostream<char, std::__ndk1::char_traits<char> >::operator<<(std::__ndk1::basic_streambuf<char, std::__ndk1::char_traits<char> >*)
PUBLIC m 8d3b0 0 std::__ndk1::basic_ostream<char, std::__ndk1::char_traits<char> >::put(char)
PUBLIC m 8d4bc 0 std::__ndk1::basic_ostream<char, std::__ndk1::char_traits<char> >::write(char const*, long)
PUBLIC m 8d5a8 0 std::__ndk1::basic_ostream<char, std::__ndk1::char_traits<char> >::tellp()
PUBLIC m 8d60c 0 std::__ndk1::basic_ostream<char, std::__ndk1::char_traits<char> >::seekp(std::__ndk1::fpos<mbstate_t>)
PUBLIC m 8d6d0 0 std::__ndk1::basic_ostream<char, std::__ndk1::char_traits<char> >::seekp(long long, std::__ndk1::ios_base::seekdir)
PUBLIC m 8d794 0 std::__ndk1::basic_iostream<char, std::__ndk1::char_traits<char> >::basic_iostream(std::__ndk1::basic_streambuf<char, std::__ndk1::char_traits<char> >*)
PUBLIC m 8d834 0 std::__ndk1::basic_iostream<char, std::__ndk1::char_traits<char> >::basic_iostream(std::__ndk1::basic_streambuf<char, std::__ndk1::char_traits<char> >*)
PUBLIC m 8d8b8 0 std::__ndk1::basic_iostream<char, std::__ndk1::char_traits<char> >::~basic_iostream()
PUBLIC m 8d8c0 0 std::__ndk1::basic_iostream<char, std::__ndk1::char_traits<char> >::~basic_iostream()
PUBLIC m 8d8cc 0 {virtual override thunk({offset(-16)}, std::__ndk1::basic_iostream<char, std::__ndk1::char_traits<char> >::~basic_iostream())}
PUBLIC m 8d8d8 0 {virtual override thunk({virtual offset(0, -24)}, std::__ndk1::basic_iostream<char, std::__ndk1::char_traits<char> >::~basic_iostream())}
PUBLIC m 8d8f0 0 std::__ndk1::basic_iostream<char, std::__ndk1::char_traits<char> >::~basic_iostream()
PUBLIC m 8d920 0 {virtual override thunk({offset(-16)}, std::__ndk1::basic_iostream<char, std::__ndk1::char_traits<char> >::~basic_iostream())}
PUBLIC m 8d950 0 {virtual override thunk({virtual offset(0, -24)}, std::__ndk1::basic_iostream<char, std::__ndk1::char_traits<char> >::~basic_iostream())}
PUBLIC m 8d988 0 std::__ndk1::basic_iostream<char, std::__ndk1::char_traits<char> >::swap(std::__ndk1::basic_iostream<char, std::__ndk1::char_traits<char> >&)
PUBLIC m 8d9f4 0 std::__ndk1::basic_ios<wchar_t, std::__ndk1::char_traits<wchar_t> >::~basic_ios()
PUBLIC m 8d9fc 0 std::__ndk1::basic_ios<wchar_t, std::__ndk1::char_traits<wchar_t> >::~basic_ios()
PUBLIC m 8da28 0 std::__ndk1::basic_ios<wchar_t, std::__ndk1::char_traits<wchar_t> >::copyfmt(std::__ndk1::basic_ios<wchar_t, std::__ndk1::char_traits<wchar_t> > const&)
PUBLIC m 8daa4 0 std::__ndk1::basic_streambuf<wchar_t, std::__ndk1::char_traits<wchar_t> >::~basic_streambuf()
PUBLIC m 8dabc 0 std::__ndk1::basic_streambuf<wchar_t, std::__ndk1::char_traits<wchar_t> >::~basic_streambuf()
PUBLIC m 8dae8 0 std::__ndk1::basic_streambuf<wchar_t, std::__ndk1::char_traits<wchar_t> >::pubimbue(std::__ndk1::locale const&)
PUBLIC m 8db3c 0 std::__ndk1::basic_streambuf<wchar_t, std::__ndk1::char_traits<wchar_t> >::getloc() const
PUBLIC m 8db4c 0 std::__ndk1::basic_streambuf<wchar_t, std::__ndk1::char_traits<wchar_t> >::pubsetbuf(wchar_t*, long)
PUBLIC m 8db5c 0 std::__ndk1::basic_streambuf<wchar_t, std::__ndk1::char_traits<wchar_t> >::pubseekoff(long long, std::__ndk1::ios_base::seekdir, unsigned int)
PUBLIC m 8db6c 0 std::__ndk1::basic_streambuf<wchar_t, std::__ndk1::char_traits<wchar_t> >::pubseekpos(std::__ndk1::fpos<mbstate_t>, unsigned int)
PUBLIC m 8db7c 0 std::__ndk1::basic_streambuf<wchar_t, std::__ndk1::char_traits<wchar_t> >::pubsync()
PUBLIC m 8db8c 0 std::__ndk1::basic_streambuf<wchar_t, std::__ndk1::char_traits<wchar_t> >::in_avail()
PUBLIC m 8dbb4 0 std::__ndk1::basic_streambuf<wchar_t, std::__ndk1::char_traits<wchar_t> >::snextc()
PUBLIC m 8dc48 0 std::__ndk1::basic_streambuf<wchar_t, std::__ndk1::char_traits<wchar_t> >::sbumpc()
PUBLIC m 8dc78 0 std::__ndk1::basic_streambuf<wchar_t, std::__ndk1::char_traits<wchar_t> >::sgetc()
PUBLIC m 8dc9c 0 std::__ndk1::basic_streambuf<wchar_t, std::__ndk1::char_traits<wchar_t> >::sgetn(wchar_t*, long)
PUBLIC m 8dcac 0 std::__ndk1::basic_streambuf<wchar_t, std::__ndk1::char_traits<wchar_t> >::sputbackc(wchar_t)
PUBLIC m 8dce8 0 std::__ndk1::basic_streambuf<wchar_t, std::__ndk1::char_traits<wchar_t> >::sungetc()
PUBLIC m 8dd1c 0 std::__ndk1::basic_streambuf<wchar_t, std::__ndk1::char_traits<wchar_t> >::sputc(wchar_t)
PUBLIC m 8dd50 0 std::__ndk1::basic_streambuf<wchar_t, std::__ndk1::char_traits<wchar_t> >::sputn(wchar_t const*, long)
PUBLIC m 8dd60 0 std::__ndk1::basic_streambuf<wchar_t, std::__ndk1::char_traits<wchar_t> >::basic_streambuf()
PUBLIC m 8dda8 0 std::__ndk1::basic_streambuf<wchar_t, std::__ndk1::char_traits<wchar_t> >::basic_streambuf(std::__ndk1::basic_streambuf<wchar_t, std::__ndk1::char_traits<wchar_t> > const&)
PUBLIC m 8de04 0 std::__ndk1::basic_streambuf<wchar_t, std::__ndk1::char_traits<wchar_t> >::operator=(std::__ndk1::basic_streambuf<wchar_t, std::__ndk1::char_traits<wchar_t> > const&)
PUBLIC m 8de54 0 std::__ndk1::basic_streambuf<wchar_t, std::__ndk1::char_traits<wchar_t> >::swap(std::__ndk1::basic_streambuf<wchar_t, std::__ndk1::char_traits<wchar_t> >&)
PUBLIC m 8df20 0 std::__ndk1::basic_streambuf<wchar_t, std::__ndk1::char_traits<wchar_t> >::gbump(int)
PUBLIC m 8df34 0 std::__ndk1::basic_streambuf<wchar_t, std::__ndk1::char_traits<wchar_t> >::setg(wchar_t*, wchar_t*, wchar_t*)
PUBLIC m 8df44 0 std::__ndk1::basic_streambuf<wchar_t, std::__ndk1::char_traits<wchar_t> >::pbump(int)
PUBLIC m 8df58 0 std::__ndk1::basic_streambuf<wchar_t, std::__ndk1::char_traits<wchar_t> >::setp(wchar_t*, wchar_t*)
PUBLIC m 8df68 0 std::__ndk1::basic_streambuf<wchar_t, std::__ndk1::char_traits<wchar_t> >::imbue(std::__ndk1::locale const&)
PUBLIC m 8df70 0 std::__ndk1::basic_streambuf<wchar_t, std::__ndk1::char_traits<wchar_t> >::setbuf(wchar_t*, long)
PUBLIC m 8df78 0 std::__ndk1::basic_streambuf<wchar_t, std::__ndk1::char_traits<wchar_t> >::seekoff(long long, std::__ndk1::ios_base::seekdir, unsigned int)
PUBLIC m 8df88 0 std::__ndk1::basic_streambuf<wchar_t, std::__ndk1::char_traits<wchar_t> >::seekpos(std::__ndk1::fpos<mbstate_t>, unsigned int)
PUBLIC m 8df98 0 std::__ndk1::basic_streambuf<wchar_t, std::__ndk1::char_traits<wchar_t> >::sync()
PUBLIC m 8dfa4 0 std::__ndk1::basic_streambuf<wchar_t, std::__ndk1::char_traits<wchar_t> >::showmanyc()
PUBLIC m 8dfb0 0 std::__ndk1::basic_streambuf<wchar_t, std::__ndk1::char_traits<wchar_t> >::xsgetn(wchar_t*, long)
PUBLIC m 8e098 0 std::__ndk1::basic_streambuf<wchar_t, std::__ndk1::char_traits<wchar_t> >::underflow()
PUBLIC m 8e0a4 0 std::__ndk1::basic_streambuf<wchar_t, std::__ndk1::char_traits<wchar_t> >::uflow()
PUBLIC m 8e0e8 0 std::__ndk1::basic_streambuf<wchar_t, std::__ndk1::char_traits<wchar_t> >::pbackfail(unsigned int)
PUBLIC m 8e0f4 0 std::__ndk1::basic_streambuf<wchar_t, std::__ndk1::char_traits<wchar_t> >::xsputn(wchar_t const*, long)
PUBLIC m 8e1c4 0 std::__ndk1::basic_streambuf<wchar_t, std::__ndk1::char_traits<wchar_t> >::overflow(unsigned int)
PUBLIC m 8e1d0 0 std::__ndk1::basic_istream<wchar_t, std::__ndk1::char_traits<wchar_t> >::basic_istream(std::__ndk1::basic_streambuf<wchar_t, std::__ndk1::char_traits<wchar_t> >*)
PUBLIC m 8e22c 0 std::__ndk1::basic_istream<wchar_t, std::__ndk1::char_traits<wchar_t> >::basic_istream(std::__ndk1::basic_streambuf<wchar_t, std::__ndk1::char_traits<wchar_t> >*)
PUBLIC m 8e294 0 std::__ndk1::basic_istream<wchar_t, std::__ndk1::char_traits<wchar_t> >::~basic_istream()
PUBLIC m 8e29c 0 std::__ndk1::basic_istream<wchar_t, std::__ndk1::char_traits<wchar_t> >::~basic_istream()
PUBLIC m 8e2a8 0 {virtual override thunk({virtual offset(0, -24)}, std::__ndk1::basic_istream<wchar_t, std::__ndk1::char_traits<wchar_t> >::~basic_istream())}
PUBLIC m 8e2c0 0 std::__ndk1::basic_istream<wchar_t, std::__ndk1::char_traits<wchar_t> >::~basic_istream()
PUBLIC m 8e2f0 0 {virtual override thunk({virtual offset(0, -24)}, std::__ndk1::basic_istream<wchar_t, std::__ndk1::char_traits<wchar_t> >::~basic_istream())}
PUBLIC m 8e328 0 std::__ndk1::basic_istream<wchar_t, std::__ndk1::char_traits<wchar_t> >::swap(std::__ndk1::basic_istream<wchar_t, std::__ndk1::char_traits<wchar_t> >&)
PUBLIC m 8e394 0 std::__ndk1::basic_istream<wchar_t, std::__ndk1::char_traits<wchar_t> >::sentry::sentry(std::__ndk1::basic_istream<wchar_t, std::__ndk1::char_traits<wchar_t> >&, bool)
PUBLIC m 8e5ac 0 std::__ndk1::basic_ostream<wchar_t, std::__ndk1::char_traits<wchar_t> >::flush()
PUBLIC m 8e6a4 0 std::__ndk1::basic_istream<wchar_t, std::__ndk1::char_traits<wchar_t> >::operator>>(std::__ndk1::basic_istream<wchar_t, std::__ndk1::char_traits<wchar_t> >& (*)(std::__ndk1::basic_istream<wchar_t, std::__ndk1::char_traits<wchar_t> >&))
PUBLIC m 8e6b0 0 std::__ndk1::basic_istream<wchar_t, std::__ndk1::char_traits<wchar_t> >::operator>>(std::__ndk1::basic_ios<wchar_t, std::__ndk1::char_traits<wchar_t> >& (*)(std::__ndk1::basic_ios<wchar_t, std::__ndk1::char_traits<wchar_t> >&))
PUBLIC m 8e6e8 0 std::__ndk1::basic_istream<wchar_t, std::__ndk1::char_traits<wchar_t> >::operator>>(std::__ndk1::ios_base& (*)(std::__ndk1::ios_base&))
PUBLIC m 8e720 0 std::__ndk1::basic_istream<wchar_t, std::__ndk1::char_traits<wchar_t> >::operator>>(std::__ndk1::basic_streambuf<wchar_t, std::__ndk1::char_traits<wchar_t> >*)
PUBLIC m 8e8b4 0 std::__ndk1::basic_istream<wchar_t, std::__ndk1::char_traits<wchar_t> >::operator>>(bool&)
PUBLIC 8e8bc 0 std::__ndk1::__input_arithmetic[abi:v170000]<bool, wchar_t, std::__ndk1::char_traits<wchar_t> >(std::__ndk1::basic_istream<wchar_t, std::__ndk1::char_traits<wchar_t> >, bool&)
PUBLIC m 8e9ec 0 std::__ndk1::basic_istream<wchar_t, std::__ndk1::char_traits<wchar_t> >::operator>>(short&)
PUBLIC 8e9f4 0 std::__ndk1::__input_arithmetic_with_numeric_limits[abi:v170000]<short, wchar_t, std::__ndk1::char_traits<wchar_t> >(std::__ndk1::basic_istream<wchar_t, std::__ndk1::char_traits<wchar_t> >, short&)
PUBLIC m 8eb64 0 std::__ndk1::basic_istream<wchar_t, std::__ndk1::char_traits<wchar_t> >::operator>>(unsigned short&)
PUBLIC 8eb6c 0 std::__ndk1::__input_arithmetic[abi:v170000]<unsigned short, wchar_t, std::__ndk1::char_traits<wchar_t> >(std::__ndk1::basic_istream<wchar_t, std::__ndk1::char_traits<wchar_t> >, unsigned short&)
PUBLIC m 8ec9c 0 std::__ndk1::basic_istream<wchar_t, std::__ndk1::char_traits<wchar_t> >::operator>>(int&)
PUBLIC 8eca4 0 std::__ndk1::__input_arithmetic_with_numeric_limits[abi:v170000]<int, wchar_t, std::__ndk1::char_traits<wchar_t> >(std::__ndk1::basic_istream<wchar_t, std::__ndk1::char_traits<wchar_t> >, int&)
PUBLIC m 8ee18 0 std::__ndk1::basic_istream<wchar_t, std::__ndk1::char_traits<wchar_t> >::operator>>(unsigned int&)
PUBLIC 8ee20 0 std::__ndk1::__input_arithmetic[abi:v170000]<unsigned int, wchar_t, std::__ndk1::char_traits<wchar_t> >(std::__ndk1::basic_istream<wchar_t, std::__ndk1::char_traits<wchar_t> >, unsigned int&)
PUBLIC m 8ef50 0 std::__ndk1::basic_istream<wchar_t, std::__ndk1::char_traits<wchar_t> >::operator>>(long&)
PUBLIC 8ef58 0 std::__ndk1::__input_arithmetic[abi:v170000]<long, wchar_t, std::__ndk1::char_traits<wchar_t> >(std::__ndk1::basic_istream<wchar_t, std::__ndk1::char_traits<wchar_t> >, long&)
PUBLIC m 8f088 0 std::__ndk1::basic_istream<wchar_t, std::__ndk1::char_traits<wchar_t> >::operator>>(unsigned long&)
PUBLIC 8f090 0 std::__ndk1::__input_arithmetic[abi:v170000]<unsigned long, wchar_t, std::__ndk1::char_traits<wchar_t> >(std::__ndk1::basic_istream<wchar_t, std::__ndk1::char_traits<wchar_t> >, unsigned long&)
PUBLIC m 8f1c0 0 std::__ndk1::basic_istream<wchar_t, std::__ndk1::char_traits<wchar_t> >::operator>>(long long&)
PUBLIC 8f1c8 0 std::__ndk1::__input_arithmetic[abi:v170000]<long long, wchar_t, std::__ndk1::char_traits<wchar_t> >(std::__ndk1::basic_istream<wchar_t, std::__ndk1::char_traits<wchar_t> >, long long&)
PUBLIC m 8f2f8 0 std::__ndk1::basic_istream<wchar_t, std::__ndk1::char_traits<wchar_t> >::operator>>(unsigned long long&)
PUBLIC 8f300 0 std::__ndk1::__input_arithmetic[abi:v170000]<unsigned long long, wchar_t, std::__ndk1::char_traits<wchar_t> >(std::__ndk1::basic_istream<wchar_t, std::__ndk1::char_traits<wchar_t> >, unsigned long long&)
PUBLIC m 8f430 0 std::__ndk1::basic_istream<wchar_t, std::__ndk1::char_traits<wchar_t> >::operator>>(float&)
PUBLIC 8f438 0 std::__ndk1::__input_arithmetic[abi:v170000]<float, wchar_t, std::__ndk1::char_traits<wchar_t> >(std::__ndk1::basic_istream<wchar_t, std::__ndk1::char_traits<wchar_t> >, float&)
PUBLIC m 8f568 0 std::__ndk1::basic_istream<wchar_t, std::__ndk1::char_traits<wchar_t> >::operator>>(double&)
PUBLIC 8f570 0 std::__ndk1::__input_arithmetic[abi:v170000]<double, wchar_t, std::__ndk1::char_traits<wchar_t> >(std::__ndk1::basic_istream<wchar_t, std::__ndk1::char_traits<wchar_t> >, double&)
PUBLIC m 8f6a0 0 std::__ndk1::basic_istream<wchar_t, std::__ndk1::char_traits<wchar_t> >::operator>>(long double&)
PUBLIC 8f6a8 0 std::__ndk1::__input_arithmetic[abi:v170000]<long double, wchar_t, std::__ndk1::char_traits<wchar_t> >(std::__ndk1::basic_istream<wchar_t, std::__ndk1::char_traits<wchar_t> >, long double&)
PUBLIC m 8f7d8 0 std::__ndk1::basic_istream<wchar_t, std::__ndk1::char_traits<wchar_t> >::operator>>(void*&)
PUBLIC 8f7e0 0 std::__ndk1::__input_arithmetic[abi:v170000]<void*, wchar_t, std::__ndk1::char_traits<wchar_t> >(std::__ndk1::basic_istream<wchar_t, std::__ndk1::char_traits<wchar_t> >, void*&)
PUBLIC m 8f910 0 std::__ndk1::basic_istream<wchar_t, std::__ndk1::char_traits<wchar_t> >::get()
PUBLIC m 8fa3c 0 std::__ndk1::basic_istream<wchar_t, std::__ndk1::char_traits<wchar_t> >::get(wchar_t&)
PUBLIC m 8fa78 0 std::__ndk1::basic_istream<wchar_t, std::__ndk1::char_traits<wchar_t> >::get(wchar_t*, long)
PUBLIC m 8fb1c 0 std::__ndk1::basic_istream<wchar_t, std::__ndk1::char_traits<wchar_t> >::get(wchar_t*, long, wchar_t)
PUBLIC m 8fcf0 0 std::__ndk1::basic_istream<wchar_t, std::__ndk1::char_traits<wchar_t> >::get(std::__ndk1::basic_streambuf<wchar_t, std::__ndk1::char_traits<wchar_t> >&)
PUBLIC m 8fd84 0 std::__ndk1::basic_istream<wchar_t, std::__ndk1::char_traits<wchar_t> >::get(std::__ndk1::basic_streambuf<wchar_t, std::__ndk1::char_traits<wchar_t> >&, wchar_t)
PUBLIC m 8fee8 0 std::__ndk1::basic_istream<wchar_t, std::__ndk1::char_traits<wchar_t> >::getline(wchar_t*, long)
PUBLIC m 8ff8c 0 std::__ndk1::basic_istream<wchar_t, std::__ndk1::char_traits<wchar_t> >::getline(wchar_t*, long, wchar_t)
PUBLIC m 9019c 0 std::__ndk1::basic_istream<wchar_t, std::__ndk1::char_traits<wchar_t> >::ignore(long, unsigned int)
PUBLIC m 90330 0 std::__ndk1::basic_istream<wchar_t, std::__ndk1::char_traits<wchar_t> >::peek()
PUBLIC m 90444 0 std::__ndk1::basic_istream<wchar_t, std::__ndk1::char_traits<wchar_t> >::read(wchar_t*, long)
PUBLIC m 9053c 0 std::__ndk1::basic_istream<wchar_t, std::__ndk1::char_traits<wchar_t> >::readsome(wchar_t*, long)
PUBLIC m 90690 0 std::__ndk1::basic_istream<wchar_t, std::__ndk1::char_traits<wchar_t> >::putback(wchar_t)
PUBLIC m 907d0 0 std::__ndk1::basic_istream<wchar_t, std::__ndk1::char_traits<wchar_t> >::unget()
PUBLIC m 90904 0 std::__ndk1::basic_istream<wchar_t, std::__ndk1::char_traits<wchar_t> >::sync()
PUBLIC m 909f4 0 std::__ndk1::basic_istream<wchar_t, std::__ndk1::char_traits<wchar_t> >::tellg()
PUBLIC m 90af0 0 std::__ndk1::basic_istream<wchar_t, std::__ndk1::char_traits<wchar_t> >::seekg(std::__ndk1::fpos<mbstate_t>)
PUBLIC m 90c00 0 std::__ndk1::basic_istream<wchar_t, std::__ndk1::char_traits<wchar_t> >::seekg(long long, std::__ndk1::ios_base::seekdir)
PUBLIC m 90d10 0 std::__ndk1::basic_ostream<wchar_t, std::__ndk1::char_traits<wchar_t> >::basic_ostream(std::__ndk1::basic_streambuf<wchar_t, std::__ndk1::char_traits<wchar_t> >*)
PUBLIC m 90d68 0 std::__ndk1::basic_ostream<wchar_t, std::__ndk1::char_traits<wchar_t> >::basic_ostream(std::__ndk1::basic_streambuf<wchar_t, std::__ndk1::char_traits<wchar_t> >*)
PUBLIC m 90dd0 0 std::__ndk1::basic_ostream<wchar_t, std::__ndk1::char_traits<wchar_t> >::~basic_ostream()
PUBLIC m 90dd8 0 std::__ndk1::basic_ostream<wchar_t, std::__ndk1::char_traits<wchar_t> >::~basic_ostream()
PUBLIC m 90de4 0 {virtual override thunk({virtual offset(0, -24)}, std::__ndk1::basic_ostream<wchar_t, std::__ndk1::char_traits<wchar_t> >::~basic_ostream())}
PUBLIC m 90dfc 0 std::__ndk1::basic_ostream<wchar_t, std::__ndk1::char_traits<wchar_t> >::~basic_ostream()
PUBLIC m 90e2c 0 {virtual override thunk({virtual offset(0, -24)}, std::__ndk1::basic_ostream<wchar_t, std::__ndk1::char_traits<wchar_t> >::~basic_ostream())}
PUBLIC m 90e64 0 std::__ndk1::basic_ostream<wchar_t, std::__ndk1::char_traits<wchar_t> >::swap(std::__ndk1::basic_ostream<wchar_t, std::__ndk1::char_traits<wchar_t> >&)
PUBLIC m 90ec8 0 std::__ndk1::basic_ostream<wchar_t, std::__ndk1::char_traits<wchar_t> >::sentry::sentry(std::__ndk1::basic_ostream<wchar_t, std::__ndk1::char_traits<wchar_t> >&)
PUBLIC m 90f2c 0 std::__ndk1::basic_ostream<wchar_t, std::__ndk1::char_traits<wchar_t> >::sentry::~sentry()
PUBLIC m 90fd4 0 std::__ndk1::basic_ostream<wchar_t, std::__ndk1::char_traits<wchar_t> >::operator<<(std::__ndk1::basic_ostream<wchar_t, std::__ndk1::char_traits<wchar_t> >& (*)(std::__ndk1::basic_ostream<wchar_t, std::__ndk1::char_traits<wchar_t> >&))
PUBLIC m 90fe0 0 std::__ndk1::basic_ostream<wchar_t, std::__ndk1::char_traits<wchar_t> >::operator<<(std::__ndk1::basic_ios<wchar_t, std::__ndk1::char_traits<wchar_t> >& (*)(std::__ndk1::basic_ios<wchar_t, std::__ndk1::char_traits<wchar_t> >&))
PUBLIC m 91018 0 std::__ndk1::basic_ostream<wchar_t, std::__ndk1::char_traits<wchar_t> >::operator<<(std::__ndk1::ios_base& (*)(std::__ndk1::ios_base&))
PUBLIC m 91050 0 std::__ndk1::basic_ostream<wchar_t, std::__ndk1::char_traits<wchar_t> >::operator<<(bool)
PUBLIC m 911dc 0 std::__ndk1::basic_ostream<wchar_t, std::__ndk1::char_traits<wchar_t> >::operator<<(short)
PUBLIC m 91390 0 std::__ndk1::basic_ostream<wchar_t, std::__ndk1::char_traits<wchar_t> >::operator<<(unsigned short)
PUBLIC m 9151c 0 std::__ndk1::basic_ostream<wchar_t, std::__ndk1::char_traits<wchar_t> >::operator<<(int)
PUBLIC m 916d0 0 std::__ndk1::basic_ostream<wchar_t, std::__ndk1::char_traits<wchar_t> >::operator<<(unsigned int)
PUBLIC m 9185c 0 std::__ndk1::basic_ostream<wchar_t, std::__ndk1::char_traits<wchar_t> >::operator<<(long)
PUBLIC m 919e8 0 std::__ndk1::basic_ostream<wchar_t, std::__ndk1::char_traits<wchar_t> >::operator<<(unsigned long)
PUBLIC m 91b74 0 std::__ndk1::basic_ostream<wchar_t, std::__ndk1::char_traits<wchar_t> >::operator<<(long long)
PUBLIC m 91d00 0 std::__ndk1::basic_ostream<wchar_t, std::__ndk1::char_traits<wchar_t> >::operator<<(unsigned long long)
PUBLIC m 91e8c 0 std::__ndk1::basic_ostream<wchar_t, std::__ndk1::char_traits<wchar_t> >::operator<<(float)
PUBLIC m 92020 0 std::__ndk1::basic_ostream<wchar_t, std::__ndk1::char_traits<wchar_t> >::operator<<(double)
PUBLIC m 921b4 0 std::__ndk1::basic_ostream<wchar_t, std::__ndk1::char_traits<wchar_t> >::operator<<(long double)
PUBLIC m 92340 0 std::__ndk1::basic_ostream<wchar_t, std::__ndk1::char_traits<wchar_t> >::operator<<(void const*)
PUBLIC m 924cc 0 std::__ndk1::basic_ostream<wchar_t, std::__ndk1::char_traits<wchar_t> >::operator<<(std::__ndk1::basic_streambuf<wchar_t, std::__ndk1::char_traits<wchar_t> >*)
PUBLIC m 9270c 0 std::__ndk1::basic_ostream<wchar_t, std::__ndk1::char_traits<wchar_t> >::put(wchar_t)
PUBLIC m 92820 0 std::__ndk1::basic_ostream<wchar_t, std::__ndk1::char_traits<wchar_t> >::write(wchar_t const*, long)
PUBLIC m 9290c 0 std::__ndk1::basic_ostream<wchar_t, std::__ndk1::char_traits<wchar_t> >::tellp()
PUBLIC m 92970 0 std::__ndk1::basic_ostream<wchar_t, std::__ndk1::char_traits<wchar_t> >::seekp(std::__ndk1::fpos<mbstate_t>)
PUBLIC m 92a34 0 std::__ndk1::basic_ostream<wchar_t, std::__ndk1::char_traits<wchar_t> >::seekp(long long, std::__ndk1::ios_base::seekdir)
PUBLIC m 92af8 0 std::__ndk1::basic_stringbuf<char, std::__ndk1::char_traits<char>, std::__ndk1::allocator<char> >::basic_stringbuf(std::__ndk1::basic_stringbuf<char, std::__ndk1::char_traits<char>, std::__ndk1::allocator<char> >&&)
PUBLIC m 92d0c 0 std::__ndk1::basic_stringbuf<char, std::__ndk1::char_traits<char>, std::__ndk1::allocator<char> >::operator=(std::__ndk1::basic_stringbuf<char, std::__ndk1::char_traits<char>, std::__ndk1::allocator<char> >&&)
PUBLIC m 92f14 0 std::__ndk1::basic_stringbuf<char, std::__ndk1::char_traits<char>, std::__ndk1::allocator<char> >::swap(std::__ndk1::basic_stringbuf<char, std::__ndk1::char_traits<char>, std::__ndk1::allocator<char> >&)
PUBLIC m 9321c 0 std::__ndk1::basic_stringbuf<char, std::__ndk1::char_traits<char>, std::__ndk1::allocator<char> >::str() const
PUBLIC m 93424 0 std::__ndk1::basic_stringbuf<char, std::__ndk1::char_traits<char>, std::__ndk1::allocator<char> >::str(std::__ndk1::basic_string<char, std::__ndk1::char_traits<char>, std::__ndk1::allocator<char> > const&)
PUBLIC m 93598 0 std::__ndk1::basic_stringbuf<char, std::__ndk1::char_traits<char>, std::__ndk1::allocator<char> >::underflow()
PUBLIC m 935ec 0 std::__ndk1::basic_stringbuf<char, std::__ndk1::char_traits<char>, std::__ndk1::allocator<char> >::pbackfail(int)
PUBLIC m 93660 0 std::__ndk1::basic_stringbuf<char, std::__ndk1::char_traits<char>, std::__ndk1::allocator<char> >::overflow(int)
PUBLIC m 93828 0 std::__ndk1::basic_stringbuf<char, std::__ndk1::char_traits<char>, std::__ndk1::allocator<char> >::seekoff(long long, std::__ndk1::ios_base::seekdir, unsigned int)
PUBLIC m 93950 0 std::__ndk1::basic_stringstream<char, std::__ndk1::char_traits<char>, std::__ndk1::allocator<char> >::operator=(std::__ndk1::basic_stringstream<char, std::__ndk1::char_traits<char>, std::__ndk1::allocator<char> >&&)
PUBLIC m 939dc 0 std::__ndk1::basic_ostringstream<char, std::__ndk1::char_traits<char>, std::__ndk1::allocator<char> >::operator=(std::__ndk1::basic_ostringstream<char, std::__ndk1::char_traits<char>, std::__ndk1::allocator<char> >&&)
PUBLIC m 93a6c 0 std::__ndk1::basic_istringstream<char, std::__ndk1::char_traits<char>, std::__ndk1::allocator<char> >::operator=(std::__ndk1::basic_istringstream<char, std::__ndk1::char_traits<char>, std::__ndk1::allocator<char> >&&)
PUBLIC m 93af8 0 std::__ndk1::basic_ifstream<char, std::__ndk1::char_traits<char> >::open(char const*, unsigned int)
PUBLIC m 93b58 0 std::__ndk1::basic_filebuf<char, std::__ndk1::char_traits<char> >::open(char const*, unsigned int)
PUBLIC m 93cd4 0 std::__ndk1::basic_ifstream<char, std::__ndk1::char_traits<char> >::open(std::__ndk1::basic_string<char, std::__ndk1::char_traits<char>, std::__ndk1::allocator<char> > const&, unsigned int)
PUBLIC m 93d44 0 std::__ndk1::basic_ofstream<char, std::__ndk1::char_traits<char> >::open(char const*, unsigned int)
PUBLIC m 93da4 0 std::__ndk1::basic_ofstream<char, std::__ndk1::char_traits<char> >::open(std::__ndk1::basic_string<char, std::__ndk1::char_traits<char>, std::__ndk1::allocator<char> > const&, unsigned int)
PUBLIC m 93e14 0 std::__ndk1::basic_filebuf<char, std::__ndk1::char_traits<char> >::basic_filebuf()
PUBLIC m 93f48 0 std::__ndk1::basic_filebuf<char, std::__ndk1::char_traits<char> >::basic_filebuf(std::__ndk1::basic_filebuf<char, std::__ndk1::char_traits<char> >&&)
PUBLIC m 940dc 0 std::__ndk1::basic_filebuf<char, std::__ndk1::char_traits<char> >::~basic_filebuf()
PUBLIC m 941b0 0 std::__ndk1::basic_filebuf<char, std::__ndk1::char_traits<char> >::close()
PUBLIC m 9423c 0 std::__ndk1::basic_filebuf<char, std::__ndk1::char_traits<char> >::~basic_filebuf()
PUBLIC m 94268 0 std::__ndk1::basic_filebuf<char, std::__ndk1::char_traits<char> >::swap(std::__ndk1::basic_filebuf<char, std::__ndk1::char_traits<char> >&)
PUBLIC m 945a8 0 std::__ndk1::basic_filebuf<char, std::__ndk1::char_traits<char> >::underflow()
PUBLIC m 94840 0 std::__ndk1::basic_filebuf<char, std::__ndk1::char_traits<char> >::__read_mode()
PUBLIC 9489c 0 std::__ndk1::__throw_bad_cast[abi:v170000]()
PUBLIC m 948d4 0 std::__ndk1::basic_filebuf<char, std::__ndk1::char_traits<char> >::pbackfail(int)
PUBLIC m 94938 0 std::__ndk1::basic_filebuf<char, std::__ndk1::char_traits<char> >::overflow(int)
PUBLIC m 94b54 0 std::__ndk1::basic_filebuf<char, std::__ndk1::char_traits<char> >::__write_mode()
PUBLIC m 94bc0 0 std::__ndk1::basic_filebuf<char, std::__ndk1::char_traits<char> >::setbuf(char*, long)
PUBLIC m 94ce8 0 std::__ndk1::basic_filebuf<char, std::__ndk1::char_traits<char> >::seekoff(long long, std::__ndk1::ios_base::seekdir, unsigned int)
PUBLIC m 94dc0 0 std::__ndk1::basic_filebuf<char, std::__ndk1::char_traits<char> >::seekpos(std::__ndk1::fpos<mbstate_t>, unsigned int)
PUBLIC m 94e38 0 std::__ndk1::basic_filebuf<char, std::__ndk1::char_traits<char> >::sync()
PUBLIC m 95010 0 std::__ndk1::basic_filebuf<char, std::__ndk1::char_traits<char> >::imbue(std::__ndk1::locale const&)
PUBLIC 95120 0 std::__ndk1::basic_stringbuf<char, std::__ndk1::char_traits<char>, std::__ndk1::allocator<char> >::~basic_stringbuf()
PUBLIC 95178 0 std::__ndk1::basic_stringbuf<char, std::__ndk1::char_traits<char>, std::__ndk1::allocator<char> >::~basic_stringbuf()
PUBLIC 951d8 0 std::__ndk1::basic_stringbuf<char, std::__ndk1::char_traits<char>, std::__ndk1::allocator<char> >::seekpos(std::__ndk1::fpos<mbstate_t>, unsigned int)
PUBLIC 951f0 0 std::__ndk1::basic_stringstream<char, std::__ndk1::char_traits<char>, std::__ndk1::allocator<char> >::~basic_stringstream()
PUBLIC 95270 0 std::__ndk1::basic_stringstream<char, std::__ndk1::char_traits<char>, std::__ndk1::allocator<char> >::~basic_stringstream()
PUBLIC 952f8 0 {virtual override thunk({offset(-16)}, std::__ndk1::basic_stringstream<char, std::__ndk1::char_traits<char>, std::__ndk1::allocator<char> >::~basic_stringstream())}
PUBLIC 95378 0 {virtual override thunk({offset(-16)}, std::__ndk1::basic_stringstream<char, std::__ndk1::char_traits<char>, std::__ndk1::allocator<char> >::~basic_stringstream())}
PUBLIC 9540c 0 {virtual override thunk({virtual offset(0, -24)}, std::__ndk1::basic_stringstream<char, std::__ndk1::char_traits<char>, std::__ndk1::allocator<char> >::~basic_stringstream())}
PUBLIC 95494 0 {virtual override thunk({virtual offset(0, -24)}, std::__ndk1::basic_stringstream<char, std::__ndk1::char_traits<char>, std::__ndk1::allocator<char> >::~basic_stringstream())}
PUBLIC 95524 0 std::__ndk1::basic_ostringstream<char, std::__ndk1::char_traits<char>, std::__ndk1::allocator<char> >::~basic_ostringstream()
PUBLIC 9559c 0 std::__ndk1::basic_ostringstream<char, std::__ndk1::char_traits<char>, std::__ndk1::allocator<char> >::~basic_ostringstream()
PUBLIC 9561c 0 {virtual override thunk({virtual offset(0, -24)}, std::__ndk1::basic_ostringstream<char, std::__ndk1::char_traits<char>, std::__ndk1::allocator<char> >::~basic_ostringstream())}
PUBLIC 9569c 0 {virtual override thunk({virtual offset(0, -24)}, std::__ndk1::basic_ostringstream<char, std::__ndk1::char_traits<char>, std::__ndk1::allocator<char> >::~basic_ostringstream())}
PUBLIC 95724 0 std::__ndk1::basic_istringstream<char, std::__ndk1::char_traits<char>, std::__ndk1::allocator<char> >::~basic_istringstream()
PUBLIC 957a0 0 std::__ndk1::basic_istringstream<char, std::__ndk1::char_traits<char>, std::__ndk1::allocator<char> >::~basic_istringstream()
PUBLIC 95824 0 {virtual override thunk({virtual offset(0, -24)}, std::__ndk1::basic_istringstream<char, std::__ndk1::char_traits<char>, std::__ndk1::allocator<char> >::~basic_istringstream())}
PUBLIC 958a8 0 {virtual override thunk({virtual offset(0, -24)}, std::__ndk1::basic_istringstream<char, std::__ndk1::char_traits<char>, std::__ndk1::allocator<char> >::~basic_istringstream())}
PUBLIC 95934 0 std::__ndk1::basic_ifstream<char, std::__ndk1::char_traits<char> >::~basic_ifstream()
PUBLIC 95978 0 std::__ndk1::basic_ifstream<char, std::__ndk1::char_traits<char> >::~basic_ifstream()
PUBLIC 959c8 0 {virtual override thunk({virtual offset(0, -24)}, std::__ndk1::basic_ifstream<char, std::__ndk1::char_traits<char> >::~basic_ifstream())}
PUBLIC 95a18 0 {virtual override thunk({virtual offset(0, -24)}, std::__ndk1::basic_ifstream<char, std::__ndk1::char_traits<char> >::~basic_ifstream())}
PUBLIC 95a74 0 std::__ndk1::basic_ofstream<char, std::__ndk1::char_traits<char> >::~basic_ofstream()
PUBLIC 95ab8 0 std::__ndk1::basic_ofstream<char, std::__ndk1::char_traits<char> >::~basic_ofstream()
PUBLIC 95b08 0 {virtual override thunk({virtual offset(0, -24)}, std::__ndk1::basic_ofstream<char, std::__ndk1::char_traits<char> >::~basic_ofstream())}
PUBLIC 95b58 0 {virtual override thunk({virtual offset(0, -24)}, std::__ndk1::basic_ofstream<char, std::__ndk1::char_traits<char> >::~basic_ofstream())}
PUBLIC m 95bb4 0 std::__ndk1::collate<char>::~collate()
PUBLIC m 95bbc 0 std::__ndk1::collate<char>::~collate()
PUBLIC m 95be8 0 std::__ndk1::collate<char>::do_compare(char const*, char const*, char const*, char const*) const
PUBLIC m 95c4c 0 std::__ndk1::collate<char>::do_transform(char const*, char const*) const
PUBLIC m 95cf4 0 std::__ndk1::collate<char>::do_hash(char const*, char const*) const
PUBLIC m 95d2c 0 std::__ndk1::collate<wchar_t>::~collate()
PUBLIC m 95d34 0 std::__ndk1::collate<wchar_t>::~collate()
PUBLIC m 95d60 0 std::__ndk1::collate<wchar_t>::do_compare(wchar_t const*, wchar_t const*, wchar_t const*, wchar_t const*) const
PUBLIC m 95db8 0 std::__ndk1::collate<wchar_t>::do_transform(wchar_t const*, wchar_t const*) const
PUBLIC m 95e74 0 std::__ndk1::collate<wchar_t>::do_hash(wchar_t const*, wchar_t const*) const
PUBLIC m 95eac 0 std::__ndk1::num_get<char, std::__ndk1::istreambuf_iterator<char, std::__ndk1::char_traits<char> > >::do_get(std::__ndk1::istreambuf_iterator<char, std::__ndk1::char_traits<char> >, std::__ndk1::istreambuf_iterator<char, std::__ndk1::char_traits<char> >, std::__ndk1::ios_base&, unsigned int&, bool&) const
PUBLIC 96148 0 std::__ndk1::__scan_keyword[abi:v170000]<std::__ndk1::istreambuf_iterator<char, std::__ndk1::char_traits<char> >, std::__ndk1::basic_string<char, std::__ndk1::char_traits, std::__ndk1::allocator<char> > const*, std::__ndk1::ctype<char> >(std::__ndk1::istreambuf_iterator<char, std::__ndk1::char_traits<char> >&, std::__ndk1::basic_string<char, std::__ndk1::char_traits, std::__ndk1::allocator<char> > const*, std::__ndk1::ctype<char>, std::__ndk1::ctype<char>, std::__ndk1::ctype<char> const&, unsigned int&, bool)
PUBLIC m 965fc 0 std::__ndk1::num_get<char, std::__ndk1::istreambuf_iterator<char, std::__ndk1::char_traits<char> > >::do_get(std::__ndk1::istreambuf_iterator<char, std::__ndk1::char_traits<char> >, std::__ndk1::istreambuf_iterator<char, std::__ndk1::char_traits<char> >, std::__ndk1::ios_base&, unsigned int&, long&) const
PUBLIC 96604 0 std::__ndk1::num_get<char, std::__ndk1::istreambuf_iterator<char, std::__ndk1::char_traits<char> > >::__do_get_signed<long>(std::__ndk1::istreambuf_iterator<char, std::__ndk1::char_traits<char> >, std::__ndk1::istreambuf_iterator<char, std::__ndk1::char_traits<char> >, std::__ndk1::ios_base&, unsigned int&, long&) const
PUBLIC m 96ba0 0 std::__ndk1::num_get<char, std::__ndk1::istreambuf_iterator<char, std::__ndk1::char_traits<char> > >::do_get(std::__ndk1::istreambuf_iterator<char, std::__ndk1::char_traits<char> >, std::__ndk1::istreambuf_iterator<char, std::__ndk1::char_traits<char> >, std::__ndk1::ios_base&, unsigned int&, long long&) const
PUBLIC 96ba8 0 std::__ndk1::num_get<char, std::__ndk1::istreambuf_iterator<char, std::__ndk1::char_traits<char> > >::__do_get_signed<long long>(std::__ndk1::istreambuf_iterator<char, std::__ndk1::char_traits<char> >, std::__ndk1::istreambuf_iterator<char, std::__ndk1::char_traits<char> >, std::__ndk1::ios_base&, unsigned int&, long long&) const
PUBLIC m 97144 0 std::__ndk1::num_get<char, std::__ndk1::istreambuf_iterator<char, std::__ndk1::char_traits<char> > >::do_get(std::__ndk1::istreambuf_iterator<char, std::__ndk1::char_traits<char> >, std::__ndk1::istreambuf_iterator<char, std::__ndk1::char_traits<char> >, std::__ndk1::ios_base&, unsigned int&, unsigned short&) const
PUBLIC 9714c 0 std::__ndk1::num_get<char, std::__ndk1::istreambuf_iterator<char, std::__ndk1::char_traits<char> > >::__do_get_unsigned<unsigned short>(std::__ndk1::istreambuf_iterator<char, std::__ndk1::char_traits<char> >, std::__ndk1::istreambuf_iterator<char, std::__ndk1::char_traits<char> >, std::__ndk1::ios_base&, unsigned int&, unsigned short&) const
PUBLIC m 976e8 0 std::__ndk1::num_get<char, std::__ndk1::istreambuf_iterator<char, std::__ndk1::char_traits<char> > >::do_get(std::__ndk1::istreambuf_iterator<char, std::__ndk1::char_traits<char> >, std::__ndk1::istreambuf_iterator<char, std::__ndk1::char_traits<char> >, std::__ndk1::ios_base&, unsigned int&, unsigned int&) const
PUBLIC 976f0 0 std::__ndk1::num_get<char, std::__ndk1::istreambuf_iterator<char, std::__ndk1::char_traits<char> > >::__do_get_unsigned<unsigned int>(std::__ndk1::istreambuf_iterator<char, std::__ndk1::char_traits<char> >, std::__ndk1::istreambuf_iterator<char, std::__ndk1::char_traits<char> >, std::__ndk1::ios_base&, unsigned int&, unsigned int&) const
PUBLIC m 97c8c 0 std::__ndk1::num_get<char, std::__ndk1::istreambuf_iterator<char, std::__ndk1::char_traits<char> > >::do_get(std::__ndk1::istreambuf_iterator<char, std::__ndk1::char_traits<char> >, std::__ndk1::istreambuf_iterator<char, std::__ndk1::char_traits<char> >, std::__ndk1::ios_base&, unsigned int&, unsigned long&) const
PUBLIC 97c94 0 std::__ndk1::num_get<char, std::__ndk1::istreambuf_iterator<char, std::__ndk1::char_traits<char> > >::__do_get_unsigned<unsigned long>(std::__ndk1::istreambuf_iterator<char, std::__ndk1::char_traits<char> >, std::__ndk1::istreambuf_iterator<char, std::__ndk1::char_traits<char> >, std::__ndk1::ios_base&, unsigned int&, unsigned long&) const
PUBLIC m 98230 0 std::__ndk1::num_get<char, std::__ndk1::istreambuf_iterator<char, std::__ndk1::char_traits<char> > >::do_get(std::__ndk1::istreambuf_iterator<char, std::__ndk1::char_traits<char> >, std::__ndk1::istreambuf_iterator<char, std::__ndk1::char_traits<char> >, std::__ndk1::ios_base&, unsigned int&, unsigned long long&) const
PUBLIC 98238 0 std::__ndk1::num_get<char, std::__ndk1::istreambuf_iterator<char, std::__ndk1::char_traits<char> > >::__do_get_unsigned<unsigned long long>(std::__ndk1::istreambuf_iterator<char, std::__ndk1::char_traits<char> >, std::__ndk1::istreambuf_iterator<char, std::__ndk1::char_traits<char> >, std::__ndk1::ios_base&, unsigned int&, unsigned long long&) const
PUBLIC m 987d4 0 std::__ndk1::num_get<char, std::__ndk1::istreambuf_iterator<char, std::__ndk1::char_traits<char> > >::do_get(std::__ndk1::istreambuf_iterator<char, std::__ndk1::char_traits<char> >, std::__ndk1::istreambuf_iterator<char, std::__ndk1::char_traits<char> >, std::__ndk1::ios_base&, unsigned int&, float&) const
PUBLIC 987dc 0 std::__ndk1::num_get<char, std::__ndk1::istreambuf_iterator<char, std::__ndk1::char_traits<char> > >::__do_get_floating_point<float>(std::__ndk1::istreambuf_iterator<char, std::__ndk1::char_traits<char> >, std::__ndk1::istreambuf_iterator<char, std::__ndk1::char_traits<char> >, std::__ndk1::ios_base&, unsigned int&, float&) const
PUBLIC m 98d60 0 std::__ndk1::num_get<char, std::__ndk1::istreambuf_iterator<char, std::__ndk1::char_traits<char> > >::do_get(std::__ndk1::istreambuf_iterator<char, std::__ndk1::char_traits<char> >, std::__ndk1::istreambuf_iterator<char, std::__ndk1::char_traits<char> >, std::__ndk1::ios_base&, unsigned int&, double&) const
PUBLIC 98d68 0 std::__ndk1::num_get<char, std::__ndk1::istreambuf_iterator<char, std::__ndk1::char_traits<char> > >::__do_get_floating_point<double>(std::__ndk1::istreambuf_iterator<char, std::__ndk1::char_traits<char> >, std::__ndk1::istreambuf_iterator<char, std::__ndk1::char_traits<char> >, std::__ndk1::ios_base&, unsigned int&, double&) const
PUBLIC m 992ec 0 std::__ndk1::num_get<char, std::__ndk1::istreambuf_iterator<char, std::__ndk1::char_traits<char> > >::do_get(std::__ndk1::istreambuf_iterator<char, std::__ndk1::char_traits<char> >, std::__ndk1::istreambuf_iterator<char, std::__ndk1::char_traits<char> >, std::__ndk1::ios_base&, unsigned int&, long double&) const
PUBLIC 992f4 0 std::__ndk1::num_get<char, std::__ndk1::istreambuf_iterator<char, std::__ndk1::char_traits<char> > >::__do_get_floating_point<long double>(std::__ndk1::istreambuf_iterator<char, std::__ndk1::char_traits<char> >, std::__ndk1::istreambuf_iterator<char, std::__ndk1::char_traits<char> >, std::__ndk1::ios_base&, unsigned int&, long double&) const
PUBLIC m 99878 0 std::__ndk1::num_get<char, std::__ndk1::istreambuf_iterator<char, std::__ndk1::char_traits<char> > >::do_get(std::__ndk1::istreambuf_iterator<char, std::__ndk1::char_traits<char> >, std::__ndk1::istreambuf_iterator<char, std::__ndk1::char_traits<char> >, std::__ndk1::ios_base&, unsigned int&, void*&) const
PUBLIC m 99e1c 0 std::__ndk1::__num_get<char>::__stage2_int_loop(char, int, char*, char*&, unsigned int&, char, std::__ndk1::basic_string<char, std::__ndk1::char_traits<char>, std::__ndk1::allocator<char> > const&, unsigned int*, unsigned int*&, char*)
PUBLIC 9a138 0 std::__ndk1::__libcpp_sscanf_l(char const*, __locale_t*, char const*, ...)
PUBLIC m 9a1ec 0 std::__ndk1::__cloc()
PUBLIC m 9a28c 0 std::__ndk1::num_get<wchar_t, std::__ndk1::istreambuf_iterator<wchar_t, std::__ndk1::char_traits<wchar_t> > >::do_get(std::__ndk1::istreambuf_iterator<wchar_t, std::__ndk1::char_traits<wchar_t> >, std::__ndk1::istreambuf_iterator<wchar_t, std::__ndk1::char_traits<wchar_t> >, std::__ndk1::ios_base&, unsigned int&, bool&) const
PUBLIC 9a528 0 std::__ndk1::__scan_keyword[abi:v170000]<std::__ndk1::istreambuf_iterator<wchar_t, std::__ndk1::char_traits<wchar_t> >, std::__ndk1::basic_string<wchar_t, std::__ndk1::char_traits, std::__ndk1::allocator<wchar_t> > const*, std::__ndk1::ctype<wchar_t> >(std::__ndk1::istreambuf_iterator<wchar_t, std::__ndk1::char_traits<wchar_t> >&, std::__ndk1::basic_string<wchar_t, std::__ndk1::char_traits, std::__ndk1::allocator<wchar_t> > const*, std::__ndk1::ctype<wchar_t>, std::__ndk1::ctype<wchar_t>, std::__ndk1::ctype<wchar_t> const&, unsigned int&, bool)
PUBLIC m 9a9e4 0 std::__ndk1::num_get<wchar_t, std::__ndk1::istreambuf_iterator<wchar_t, std::__ndk1::char_traits<wchar_t> > >::do_get(std::__ndk1::istreambuf_iterator<wchar_t, std::__ndk1::char_traits<wchar_t> >, std::__ndk1::istreambuf_iterator<wchar_t, std::__ndk1::char_traits<wchar_t> >, std::__ndk1::ios_base&, unsigned int&, long&) const
PUBLIC 9a9ec 0 std::__ndk1::num_get<wchar_t, std::__ndk1::istreambuf_iterator<wchar_t, std::__ndk1::char_traits<wchar_t> > >::__do_get_signed<long>(std::__ndk1::istreambuf_iterator<wchar_t, std::__ndk1::char_traits<wchar_t> >, std::__ndk1::istreambuf_iterator<wchar_t, std::__ndk1::char_traits<wchar_t> >, std::__ndk1::ios_base&, unsigned int&, long&) const
PUBLIC m 9af84 0 std::__ndk1::num_get<wchar_t, std::__ndk1::istreambuf_iterator<wchar_t, std::__ndk1::char_traits<wchar_t> > >::do_get(std::__ndk1::istreambuf_iterator<wchar_t, std::__ndk1::char_traits<wchar_t> >, std::__ndk1::istreambuf_iterator<wchar_t, std::__ndk1::char_traits<wchar_t> >, std::__ndk1::ios_base&, unsigned int&, long long&) const
PUBLIC 9af8c 0 std::__ndk1::num_get<wchar_t, std::__ndk1::istreambuf_iterator<wchar_t, std::__ndk1::char_traits<wchar_t> > >::__do_get_signed<long long>(std::__ndk1::istreambuf_iterator<wchar_t, std::__ndk1::char_traits<wchar_t> >, std::__ndk1::istreambuf_iterator<wchar_t, std::__ndk1::char_traits<wchar_t> >, std::__ndk1::ios_base&, unsigned int&, long long&) const
PUBLIC m 9b524 0 std::__ndk1::num_get<wchar_t, std::__ndk1::istreambuf_iterator<wchar_t, std::__ndk1::char_traits<wchar_t> > >::do_get(std::__ndk1::istreambuf_iterator<wchar_t, std::__ndk1::char_traits<wchar_t> >, std::__ndk1::istreambuf_iterator<wchar_t, std::__ndk1::char_traits<wchar_t> >, std::__ndk1::ios_base&, unsigned int&, unsigned short&) const
PUBLIC 9b52c 0 std::__ndk1::num_get<wchar_t, std::__ndk1::istreambuf_iterator<wchar_t, std::__ndk1::char_traits<wchar_t> > >::__do_get_unsigned<unsigned short>(std::__ndk1::istreambuf_iterator<wchar_t, std::__ndk1::char_traits<wchar_t> >, std::__ndk1::istreambuf_iterator<wchar_t, std::__ndk1::char_traits<wchar_t> >, std::__ndk1::ios_base&, unsigned int&, unsigned short&) const
PUBLIC m 9bac4 0 std::__ndk1::num_get<wchar_t, std::__ndk1::istreambuf_iterator<wchar_t, std::__ndk1::char_traits<wchar_t> > >::do_get(std::__ndk1::istreambuf_iterator<wchar_t, std::__ndk1::char_traits<wchar_t> >, std::__ndk1::istreambuf_iterator<wchar_t, std::__ndk1::char_traits<wchar_t> >, std::__ndk1::ios_base&, unsigned int&, unsigned int&) const
PUBLIC 9bacc 0 std::__ndk1::num_get<wchar_t, std::__ndk1::istreambuf_iterator<wchar_t, std::__ndk1::char_traits<wchar_t> > >::__do_get_unsigned<unsigned int>(std::__ndk1::istreambuf_iterator<wchar_t, std::__ndk1::char_traits<wchar_t> >, std::__ndk1::istreambuf_iterator<wchar_t, std::__ndk1::char_traits<wchar_t> >, std::__ndk1::ios_base&, unsigned int&, unsigned int&) const
PUBLIC m 9c064 0 std::__ndk1::num_get<wchar_t, std::__ndk1::istreambuf_iterator<wchar_t, std::__ndk1::char_traits<wchar_t> > >::do_get(std::__ndk1::istreambuf_iterator<wchar_t, std::__ndk1::char_traits<wchar_t> >, std::__ndk1::istreambuf_iterator<wchar_t, std::__ndk1::char_traits<wchar_t> >, std::__ndk1::ios_base&, unsigned int&, unsigned long&) const
PUBLIC 9c06c 0 std::__ndk1::num_get<wchar_t, std::__ndk1::istreambuf_iterator<wchar_t, std::__ndk1::char_traits<wchar_t> > >::__do_get_unsigned<unsigned long>(std::__ndk1::istreambuf_iterator<wchar_t, std::__ndk1::char_traits<wchar_t> >, std::__ndk1::istreambuf_iterator<wchar_t, std::__ndk1::char_traits<wchar_t> >, std::__ndk1::ios_base&, unsigned int&, unsigned long&) const
PUBLIC m 9c604 0 std::__ndk1::num_get<wchar_t, std::__ndk1::istreambuf_iterator<wchar_t, std::__ndk1::char_traits<wchar_t> > >::do_get(std::__ndk1::istreambuf_iterator<wchar_t, std::__ndk1::char_traits<wchar_t> >, std::__ndk1::istreambuf_iterator<wchar_t, std::__ndk1::char_traits<wchar_t> >, std::__ndk1::ios_base&, unsigned int&, unsigned long long&) const
PUBLIC 9c60c 0 std::__ndk1::num_get<wchar_t, std::__ndk1::istreambuf_iterator<wchar_t, std::__ndk1::char_traits<wchar_t> > >::__do_get_unsigned<unsigned long long>(std::__ndk1::istreambuf_iterator<wchar_t, std::__ndk1::char_traits<wchar_t> >, std::__ndk1::istreambuf_iterator<wchar_t, std::__ndk1::char_traits<wchar_t> >, std::__ndk1::ios_base&, unsigned int&, unsigned long long&) const
PUBLIC m 9cba4 0 std::__ndk1::num_get<wchar_t, std::__ndk1::istreambuf_iterator<wchar_t, std::__ndk1::char_traits<wchar_t> > >::do_get(std::__ndk1::istreambuf_iterator<wchar_t, std::__ndk1::char_traits<wchar_t> >, std::__ndk1::istreambuf_iterator<wchar_t, std::__ndk1::char_traits<wchar_t> >, std::__ndk1::ios_base&, unsigned int&, float&) const
PUBLIC 9cbac 0 std::__ndk1::num_get<wchar_t, std::__ndk1::istreambuf_iterator<wchar_t, std::__ndk1::char_traits<wchar_t> > >::__do_get_floating_point<float>(std::__ndk1::istreambuf_iterator<wchar_t, std::__ndk1::char_traits<wchar_t> >, std::__ndk1::istreambuf_iterator<wchar_t, std::__ndk1::char_traits<wchar_t> >, std::__ndk1::ios_base&, unsigned int&, float&) const
PUBLIC m 9d128 0 std::__ndk1::num_get<wchar_t, std::__ndk1::istreambuf_iterator<wchar_t, std::__ndk1::char_traits<wchar_t> > >::do_get(std::__ndk1::istreambuf_iterator<wchar_t, std::__ndk1::char_traits<wchar_t> >, std::__ndk1::istreambuf_iterator<wchar_t, std::__ndk1::char_traits<wchar_t> >, std::__ndk1::ios_base&, unsigned int&, double&) const
PUBLIC 9d130 0 std::__ndk1::num_get<wchar_t, std::__ndk1::istreambuf_iterator<wchar_t, std::__ndk1::char_traits<wchar_t> > >::__do_get_floating_point<double>(std::__ndk1::istreambuf_iterator<wchar_t, std::__ndk1::char_traits<wchar_t> >, std::__ndk1::istreambuf_iterator<wchar_t, std::__ndk1::char_traits<wchar_t> >, std::__ndk1::ios_base&, unsigned int&, double&) const
PUBLIC m 9d6ac 0 std::__ndk1::num_get<wchar_t, std::__ndk1::istreambuf_iterator<wchar_t, std::__ndk1::char_traits<wchar_t> > >::do_get(std::__ndk1::istreambuf_iterator<wchar_t, std::__ndk1::char_traits<wchar_t> >, std::__ndk1::istreambuf_iterator<wchar_t, std::__ndk1::char_traits<wchar_t> >, std::__ndk1::ios_base&, unsigned int&, long double&) const
PUBLIC 9d6b4 0 std::__ndk1::num_get<wchar_t, std::__ndk1::istreambuf_iterator<wchar_t, std::__ndk1::char_traits<wchar_t> > >::__do_get_floating_point<long double>(std::__ndk1::istreambuf_iterator<wchar_t, std::__ndk1::char_traits<wchar_t> >, std::__ndk1::istreambuf_iterator<wchar_t, std::__ndk1::char_traits<wchar_t> >, std::__ndk1::ios_base&, unsigned int&, long double&) const
PUBLIC m 9dc30 0 std::__ndk1::num_get<wchar_t, std::__ndk1::istreambuf_iterator<wchar_t, std::__ndk1::char_traits<wchar_t> > >::do_get(std::__ndk1::istreambuf_iterator<wchar_t, std::__ndk1::char_traits<wchar_t> >, std::__ndk1::istreambuf_iterator<wchar_t, std::__ndk1::char_traits<wchar_t> >, std::__ndk1::ios_base&, unsigned int&, void*&) const
PUBLIC m 9e1d0 0 std::__ndk1::__num_get<wchar_t>::__stage2_int_loop(wchar_t, int, char*, char*&, unsigned int&, wchar_t, std::__ndk1::basic_string<char, std::__ndk1::char_traits<char>, std::__ndk1::allocator<char> > const&, unsigned int*, unsigned int*&, wchar_t*)
PUBLIC m 9e54c 0 std::__ndk1::__num_get<char>::__stage2_float_prep(std::__ndk1::ios_base&, char*, char&, char&)
PUBLIC m 9e6fc 0 std::__ndk1::__num_get<char>::__stage2_float_loop(char, bool&, char&, char*, char*&, char, char, std::__ndk1::basic_string<char, std::__ndk1::char_traits<char>, std::__ndk1::allocator<char> > const&, unsigned int*, unsigned int*&, unsigned int&, char*)
PUBLIC m 9eb08 0 std::__ndk1::__num_get<char>::__stage2_int_prep(std::__ndk1::ios_base&, char*, char&)
PUBLIC m 9ec90 0 std::__ndk1::__num_get<wchar_t>::__stage2_float_prep(std::__ndk1::ios_base&, wchar_t*, wchar_t&, wchar_t&)
PUBLIC m 9ee40 0 std::__ndk1::__num_get<wchar_t>::__stage2_float_loop(wchar_t, bool&, char&, char*, char*&, wchar_t, wchar_t, std::__ndk1::basic_string<char, std::__ndk1::char_traits<char>, std::__ndk1::allocator<char> > const&, unsigned int*, unsigned int*&, unsigned int&, wchar_t*)
PUBLIC m 9f2c4 0 std::__ndk1::__num_get<wchar_t>::__stage2_int_prep(std::__ndk1::ios_base&, wchar_t*, wchar_t&)
PUBLIC m 9f44c 0 std::__ndk1::num_put<char, std::__ndk1::ostreambuf_iterator<char, std::__ndk1::char_traits<char> > >::do_put(std::__ndk1::ostreambuf_iterator<char, std::__ndk1::char_traits<char> >, std::__ndk1::ios_base&, char, bool) const
PUBLIC m 9f64c 0 std::__ndk1::num_put<char, std::__ndk1::ostreambuf_iterator<char, std::__ndk1::char_traits<char> > >::do_put(std::__ndk1::ostreambuf_iterator<char, std::__ndk1::char_traits<char> >, std::__ndk1::ios_base&, char, long) const
PUBLIC 9f65c 0 std::__ndk1::num_put<char, std::__ndk1::ostreambuf_iterator<char, std::__ndk1::char_traits<char> > >::__do_put_integral[abi:v170000]<long>(std::__ndk1::ostreambuf_iterator<char, std::__ndk1::char_traits<char> >, std::__ndk1::ios_base&, char, long, char const*) const
PUBLIC m 9f89c 0 std::__ndk1::num_put<char, std::__ndk1::ostreambuf_iterator<char, std::__ndk1::char_traits<char> > >::do_put(std::__ndk1::ostreambuf_iterator<char, std::__ndk1::char_traits<char> >, std::__ndk1::ios_base&, char, long long) const
PUBLIC 9f8ac 0 std::__ndk1::num_put<char, std::__ndk1::ostreambuf_iterator<char, std::__ndk1::char_traits<char> > >::__do_put_integral[abi:v170000]<long long>(std::__ndk1::ostreambuf_iterator<char, std::__ndk1::char_traits<char> >, std::__ndk1::ios_base&, char, long long, char const*) const
PUBLIC m 9faec 0 std::__ndk1::num_put<char, std::__ndk1::ostreambuf_iterator<char, std::__ndk1::char_traits<char> > >::do_put(std::__ndk1::ostreambuf_iterator<char, std::__ndk1::char_traits<char> >, std::__ndk1::ios_base&, char, unsigned long) const
PUBLIC 9fafc 0 std::__ndk1::num_put<char, std::__ndk1::ostreambuf_iterator<char, std::__ndk1::char_traits<char> > >::__do_put_integral[abi:v170000]<unsigned long>(std::__ndk1::ostreambuf_iterator<char, std::__ndk1::char_traits<char> >, std::__ndk1::ios_base&, char, unsigned long, char const*) const
PUBLIC m 9fd20 0 std::__ndk1::num_put<char, std::__ndk1::ostreambuf_iterator<char, std::__ndk1::char_traits<char> > >::do_put(std::__ndk1::ostreambuf_iterator<char, std::__ndk1::char_traits<char> >, std::__ndk1::ios_base&, char, unsigned long long) const
PUBLIC 9fd30 0 std::__ndk1::num_put<char, std::__ndk1::ostreambuf_iterator<char, std::__ndk1::char_traits<char> > >::__do_put_integral[abi:v170000]<unsigned long long>(std::__ndk1::ostreambuf_iterator<char, std::__ndk1::char_traits<char> >, std::__ndk1::ios_base&, char, unsigned long long, char const*) const
PUBLIC m 9ff54 0 std::__ndk1::num_put<char, std::__ndk1::ostreambuf_iterator<char, std::__ndk1::char_traits<char> > >::do_put(std::__ndk1::ostreambuf_iterator<char, std::__ndk1::char_traits<char> >, std::__ndk1::ios_base&, char, double) const
PUBLIC 9ff64 0 std::__ndk1::num_put<char, std::__ndk1::ostreambuf_iterator<char, std::__ndk1::char_traits<char> > >::__do_put_floating_point[abi:v170000]<double>(std::__ndk1::ostreambuf_iterator<char, std::__ndk1::char_traits<char> >, std::__ndk1::ios_base&, char, double, char const*) const
PUBLIC m a0418 0 std::__ndk1::num_put<char, std::__ndk1::ostreambuf_iterator<char, std::__ndk1::char_traits<char> > >::do_put(std::__ndk1::ostreambuf_iterator<char, std::__ndk1::char_traits<char> >, std::__ndk1::ios_base&, char, long double) const
PUBLIC a0428 0 std::__ndk1::num_put<char, std::__ndk1::ostreambuf_iterator<char, std::__ndk1::char_traits<char> > >::__do_put_floating_point[abi:v170000]<long double>(std::__ndk1::ostreambuf_iterator<char, std::__ndk1::char_traits<char> >, std::__ndk1::ios_base&, char, long double, char const*) const
PUBLIC m a08d4 0 std::__ndk1::num_put<char, std::__ndk1::ostreambuf_iterator<char, std::__ndk1::char_traits<char> > >::do_put(std::__ndk1::ostreambuf_iterator<char, std::__ndk1::char_traits<char> >, std::__ndk1::ios_base&, char, void const*) const
PUBLIC a0b08 0 std::__ndk1::__libcpp_snprintf_l(char*, unsigned long, __locale_t*, char const*, ...)
PUBLIC m a0bc8 0 std::__ndk1::__num_put_base::__identify_padding(char*, char*, std::__ndk1::ios_base const&)
PUBLIC a0c38 0 std::__ndk1::__pad_and_output[abi:v170000]<char, std::__ndk1::char_traits<char> >(std::__ndk1::char_traits<char>, std::__ndk1::ostreambuf_iterator const*, std::__ndk1::ostreambuf_iterator const, std::__ndk1::ostreambuf_iterator const, std::__ndk1::ios_base&, std::__ndk1::ostreambuf_iterator)
PUBLIC m a0dbc 0 std::__ndk1::num_put<wchar_t, std::__ndk1::ostreambuf_iterator<wchar_t, std::__ndk1::char_traits<wchar_t> > >::do_put(std::__ndk1::ostreambuf_iterator<wchar_t, std::__ndk1::char_traits<wchar_t> >, std::__ndk1::ios_base&, wchar_t, bool) const
PUBLIC m a0fbc 0 std::__ndk1::num_put<wchar_t, std::__ndk1::ostreambuf_iterator<wchar_t, std::__ndk1::char_traits<wchar_t> > >::do_put(std::__ndk1::ostreambuf_iterator<wchar_t, std::__ndk1::char_traits<wchar_t> >, std::__ndk1::ios_base&, wchar_t, long) const
PUBLIC a0fcc 0 std::__ndk1::num_put<wchar_t, std::__ndk1::ostreambuf_iterator<wchar_t, std::__ndk1::char_traits<wchar_t> > >::__do_put_integral[abi:v170000]<long>(std::__ndk1::ostreambuf_iterator<wchar_t, std::__ndk1::char_traits<wchar_t> >, std::__ndk1::ios_base&, wchar_t, long, char const*) const
PUBLIC m a120c 0 std::__ndk1::num_put<wchar_t, std::__ndk1::ostreambuf_iterator<wchar_t, std::__ndk1::char_traits<wchar_t> > >::do_put(std::__ndk1::ostreambuf_iterator<wchar_t, std::__ndk1::char_traits<wchar_t> >, std::__ndk1::ios_base&, wchar_t, long long) const
PUBLIC a121c 0 std::__ndk1::num_put<wchar_t, std::__ndk1::ostreambuf_iterator<wchar_t, std::__ndk1::char_traits<wchar_t> > >::__do_put_integral[abi:v170000]<long long>(std::__ndk1::ostreambuf_iterator<wchar_t, std::__ndk1::char_traits<wchar_t> >, std::__ndk1::ios_base&, wchar_t, long long, char const*) const
PUBLIC m a145c 0 std::__ndk1::num_put<wchar_t, std::__ndk1::ostreambuf_iterator<wchar_t, std::__ndk1::char_traits<wchar_t> > >::do_put(std::__ndk1::ostreambuf_iterator<wchar_t, std::__ndk1::char_traits<wchar_t> >, std::__ndk1::ios_base&, wchar_t, unsigned long) const
PUBLIC a146c 0 std::__ndk1::num_put<wchar_t, std::__ndk1::ostreambuf_iterator<wchar_t, std::__ndk1::char_traits<wchar_t> > >::__do_put_integral[abi:v170000]<unsigned long>(std::__ndk1::ostreambuf_iterator<wchar_t, std::__ndk1::char_traits<wchar_t> >, std::__ndk1::ios_base&, wchar_t, unsigned long, char const*) const
PUBLIC m a1690 0 std::__ndk1::num_put<wchar_t, std::__ndk1::ostreambuf_iterator<wchar_t, std::__ndk1::char_traits<wchar_t> > >::do_put(std::__ndk1::ostreambuf_iterator<wchar_t, std::__ndk1::char_traits<wchar_t> >, std::__ndk1::ios_base&, wchar_t, unsigned long long) const
PUBLIC a16a0 0 std::__ndk1::num_put<wchar_t, std::__ndk1::ostreambuf_iterator<wchar_t, std::__ndk1::char_traits<wchar_t> > >::__do_put_integral[abi:v170000]<unsigned long long>(std::__ndk1::ostreambuf_iterator<wchar_t, std::__ndk1::char_traits<wchar_t> >, std::__ndk1::ios_base&, wchar_t, unsigned long long, char const*) const
PUBLIC m a18c4 0 std::__ndk1::num_put<wchar_t, std::__ndk1::ostreambuf_iterator<wchar_t, std::__ndk1::char_traits<wchar_t> > >::do_put(std::__ndk1::ostreambuf_iterator<wchar_t, std::__ndk1::char_traits<wchar_t> >, std::__ndk1::ios_base&, wchar_t, double) const
PUBLIC a18d4 0 std::__ndk1::num_put<wchar_t, std::__ndk1::ostreambuf_iterator<wchar_t, std::__ndk1::char_traits<wchar_t> > >::__do_put_floating_point[abi:v170000]<double>(std::__ndk1::ostreambuf_iterator<wchar_t, std::__ndk1::char_traits<wchar_t> >, std::__ndk1::ios_base&, wchar_t, double, char const*) const
PUBLIC m a1d88 0 std::__ndk1::num_put<wchar_t, std::__ndk1::ostreambuf_iterator<wchar_t, std::__ndk1::char_traits<wchar_t> > >::do_put(std::__ndk1::ostreambuf_iterator<wchar_t, std::__ndk1::char_traits<wchar_t> >, std::__ndk1::ios_base&, wchar_t, long double) const
PUBLIC a1d98 0 std::__ndk1::num_put<wchar_t, std::__ndk1::ostreambuf_iterator<wchar_t, std::__ndk1::char_traits<wchar_t> > >::__do_put_floating_point[abi:v170000]<long double>(std::__ndk1::ostreambuf_iterator<wchar_t, std::__ndk1::char_traits<wchar_t> >, std::__ndk1::ios_base&, wchar_t, long double, char const*) const
PUBLIC m a2244 0 std::__ndk1::num_put<wchar_t, std::__ndk1::ostreambuf_iterator<wchar_t, std::__ndk1::char_traits<wchar_t> > >::do_put(std::__ndk1::ostreambuf_iterator<wchar_t, std::__ndk1::char_traits<wchar_t> >, std::__ndk1::ios_base&, wchar_t, void const*) const
PUBLIC a2484 0 std::__ndk1::__pad_and_output[abi:v170000]<wchar_t, std::__ndk1::char_traits<wchar_t> >(std::__ndk1::char_traits<wchar_t>, std::__ndk1::ostreambuf_iterator const*, std::__ndk1::ostreambuf_iterator const, std::__ndk1::ostreambuf_iterator const, std::__ndk1::ios_base&, std::__ndk1::ostreambuf_iterator)
PUBLIC m a2684 0 std::__ndk1::__num_put<char>::__widen_and_group_int(char*, char*, char*, char*, char*&, char*&, std::__ndk1::locale const&)
PUBLIC m a2a94 0 std::__ndk1::__num_put<char>::__widen_and_group_float(char*, char*, char*, char*, char*&, char*&, std::__ndk1::locale const&)
PUBLIC m a30c8 0 std::__ndk1::__num_put<wchar_t>::__widen_and_group_int(char*, char*, char*, wchar_t*, wchar_t*&, wchar_t*&, std::__ndk1::locale const&)
PUBLIC m a34d4 0 std::__ndk1::__num_put<wchar_t>::__widen_and_group_float(char*, char*, char*, wchar_t*, wchar_t*&, wchar_t*&, std::__ndk1::locale const&)
PUBLIC m a3b08 0 std::__ndk1::time_get<char, std::__ndk1::istreambuf_iterator<char, std::__ndk1::char_traits<char> > >::get(std::__ndk1::istreambuf_iterator<char, std::__ndk1::char_traits<char> >, std::__ndk1::istreambuf_iterator<char, std::__ndk1::char_traits<char> >, std::__ndk1::ios_base&, unsigned int&, tm*, char const*, char const*) const
PUBLIC m a3ff8 0 std::__ndk1::time_get<char, std::__ndk1::istreambuf_iterator<char, std::__ndk1::char_traits<char> > >::do_date_order() const
PUBLIC m a4004 0 std::__ndk1::time_get<char, std::__ndk1::istreambuf_iterator<char, std::__ndk1::char_traits<char> > >::do_get_time(std::__ndk1::istreambuf_iterator<char, std::__ndk1::char_traits<char> >, std::__ndk1::istreambuf_iterator<char, std::__ndk1::char_traits<char> >, std::__ndk1::ios_base&, unsigned int&, tm*) const
PUBLIC m a4048 0 std::__ndk1::time_get<char, std::__ndk1::istreambuf_iterator<char, std::__ndk1::char_traits<char> > >::do_get_date(std::__ndk1::istreambuf_iterator<char, std::__ndk1::char_traits<char> >, std::__ndk1::istreambuf_iterator<char, std::__ndk1::char_traits<char> >, std::__ndk1::ios_base&, unsigned int&, tm*) const
PUBLIC m a40d4 0 std::__ndk1::time_get<char, std::__ndk1::istreambuf_iterator<char, std::__ndk1::char_traits<char> > >::do_get_weekday(std::__ndk1::istreambuf_iterator<char, std::__ndk1::char_traits<char> >, std::__ndk1::istreambuf_iterator<char, std::__ndk1::char_traits<char> >, std::__ndk1::ios_base&, unsigned int&, tm*) const
PUBLIC m a4238 0 std::__ndk1::time_get<char, std::__ndk1::istreambuf_iterator<char, std::__ndk1::char_traits<char> > >::__get_weekdayname(int&, std::__ndk1::istreambuf_iterator<char, std::__ndk1::char_traits<char> >&, std::__ndk1::istreambuf_iterator<char, std::__ndk1::char_traits<char> >, unsigned int&, std::__ndk1::ctype<char> const&) const
PUBLIC m a42f4 0 std::__ndk1::time_get<char, std::__ndk1::istreambuf_iterator<char, std::__ndk1::char_traits<char> > >::do_get_monthname(std::__ndk1::istreambuf_iterator<char, std::__ndk1::char_traits<char> >, std::__ndk1::istreambuf_iterator<char, std::__ndk1::char_traits<char> >, std::__ndk1::ios_base&, unsigned int&, tm*) const
PUBLIC m a4454 0 std::__ndk1::time_get<char, std::__ndk1::istreambuf_iterator<char, std::__ndk1::char_traits<char> > >::__get_monthname(int&, std::__ndk1::istreambuf_iterator<char, std::__ndk1::char_traits<char> >&, std::__ndk1::istreambuf_iterator<char, std::__ndk1::char_traits<char> >, unsigned int&, std::__ndk1::ctype<char> const&) const
PUBLIC m a450c 0 std::__ndk1::time_get<char, std::__ndk1::istreambuf_iterator<char, std::__ndk1::char_traits<char> > >::do_get_year(std::__ndk1::istreambuf_iterator<char, std::__ndk1::char_traits<char> >, std::__ndk1::istreambuf_iterator<char, std::__ndk1::char_traits<char> >, std::__ndk1::ios_base&, unsigned int&, tm*) const
PUBLIC m a4634 0 std::__ndk1::time_get<char, std::__ndk1::istreambuf_iterator<char, std::__ndk1::char_traits<char> > >::__get_year(int&, std::__ndk1::istreambuf_iterator<char, std::__ndk1::char_traits<char> >&, std::__ndk1::istreambuf_iterator<char, std::__ndk1::char_traits<char> >, unsigned int&, std::__ndk1::ctype<char> const&) const
PUBLIC m a469c 0 std::__ndk1::time_get<char, std::__ndk1::istreambuf_iterator<char, std::__ndk1::char_traits<char> > >::do_get(std::__ndk1::istreambuf_iterator<char, std::__ndk1::char_traits<char> >, std::__ndk1::istreambuf_iterator<char, std::__ndk1::char_traits<char> >, std::__ndk1::ios_base&, unsigned int&, tm*, char, char) const
PUBLIC m a4d20 0 std::__ndk1::time_get<char, std::__ndk1::istreambuf_iterator<char, std::__ndk1::char_traits<char> > >::__get_day(int&, std::__ndk1::istreambuf_iterator<char, std::__ndk1::char_traits<char> >&, std::__ndk1::istreambuf_iterator<char, std::__ndk1::char_traits<char> >, unsigned int&, std::__ndk1::ctype<char> const&) const
PUBLIC m a4d94 0 std::__ndk1::time_get<char, std::__ndk1::istreambuf_iterator<char, std::__ndk1::char_traits<char> > >::__get_hour(int&, std::__ndk1::istreambuf_iterator<char, std::__ndk1::char_traits<char> >&, std::__ndk1::istreambuf_iterator<char, std::__ndk1::char_traits<char> >, unsigned int&, std::__ndk1::ctype<char> const&) const
PUBLIC m a4e04 0 std::__ndk1::time_get<char, std::__ndk1::istreambuf_iterator<char, std::__ndk1::char_traits<char> > >::__get_12_hour(int&, std::__ndk1::istreambuf_iterator<char, std::__ndk1::char_traits<char> >&, std::__ndk1::istreambuf_iterator<char, std::__ndk1::char_traits<char> >, unsigned int&, std::__ndk1::ctype<char> const&) const
PUBLIC m a4e78 0 std::__ndk1::time_get<char, std::__ndk1::istreambuf_iterator<char, std::__ndk1::char_traits<char> > >::__get_day_year_num(int&, std::__ndk1::istreambuf_iterator<char, std::__ndk1::char_traits<char> >&, std::__ndk1::istreambuf_iterator<char, std::__ndk1::char_traits<char> >, unsigned int&, std::__ndk1::ctype<char> const&) const
PUBLIC m a4ee8 0 std::__ndk1::time_get<char, std::__ndk1::istreambuf_iterator<char, std::__ndk1::char_traits<char> > >::__get_month(int&, std::__ndk1::istreambuf_iterator<char, std::__ndk1::char_traits<char> >&, std::__ndk1::istreambuf_iterator<char, std::__ndk1::char_traits<char> >, unsigned int&, std::__ndk1::ctype<char> const&) const
PUBLIC m a4f5c 0 std::__ndk1::time_get<char, std::__ndk1::istreambuf_iterator<char, std::__ndk1::char_traits<char> > >::__get_minute(int&, std::__ndk1::istreambuf_iterator<char, std::__ndk1::char_traits<char> >&, std::__ndk1::istreambuf_iterator<char, std::__ndk1::char_traits<char> >, unsigned int&, std::__ndk1::ctype<char> const&) const
PUBLIC m a4fcc 0 std::__ndk1::time_get<char, std::__ndk1::istreambuf_iterator<char, std::__ndk1::char_traits<char> > >::__get_white_space(std::__ndk1::istreambuf_iterator<char, std::__ndk1::char_traits<char> >&, std::__ndk1::istreambuf_iterator<char, std::__ndk1::char_traits<char> >, unsigned int&, std::__ndk1::ctype<char> const&) const
PUBLIC m a51c4 0 std::__ndk1::time_get<char, std::__ndk1::istreambuf_iterator<char, std::__ndk1::char_traits<char> > >::__get_am_pm(int&, std::__ndk1::istreambuf_iterator<char, std::__ndk1::char_traits<char> >&, std::__ndk1::istreambuf_iterator<char, std::__ndk1::char_traits<char> >, unsigned int&, std::__ndk1::ctype<char> const&) const
PUBLIC m a52d4 0 std::__ndk1::time_get<char, std::__ndk1::istreambuf_iterator<char, std::__ndk1::char_traits<char> > >::__get_second(int&, std::__ndk1::istreambuf_iterator<char, std::__ndk1::char_traits<char> >&, std::__ndk1::istreambuf_iterator<char, std::__ndk1::char_traits<char> >, unsigned int&, std::__ndk1::ctype<char> const&) const
PUBLIC m a5344 0 std::__ndk1::time_get<char, std::__ndk1::istreambuf_iterator<char, std::__ndk1::char_traits<char> > >::__get_weekday(int&, std::__ndk1::istreambuf_iterator<char, std::__ndk1::char_traits<char> >&, std::__ndk1::istreambuf_iterator<char, std::__ndk1::char_traits<char> >, unsigned int&, std::__ndk1::ctype<char> const&) const
PUBLIC m a53b4 0 std::__ndk1::time_get<char, std::__ndk1::istreambuf_iterator<char, std::__ndk1::char_traits<char> > >::__get_year4(int&, std::__ndk1::istreambuf_iterator<char, std::__ndk1::char_traits<char> >&, std::__ndk1::istreambuf_iterator<char, std::__ndk1::char_traits<char> >, unsigned int&, std::__ndk1::ctype<char> const&) const
PUBLIC m a5404 0 std::__ndk1::time_get<char, std::__ndk1::istreambuf_iterator<char, std::__ndk1::char_traits<char> > >::__get_percent(std::__ndk1::istreambuf_iterator<char, std::__ndk1::char_traits<char> >&, std::__ndk1::istreambuf_iterator<char, std::__ndk1::char_traits<char> >, unsigned int&, std::__ndk1::ctype<char> const&) const
PUBLIC a5628 0 std::__ndk1::__get_up_to_n_digits[abi:v170000]<char, std::__ndk1::istreambuf_iterator<char, std::__ndk1::char_traits<char> > >(std::__ndk1::istreambuf_iterator<char, std::__ndk1::char_traits<char> >&, std::__ndk1::istreambuf_iterator<char, std::__ndk1::char_traits<char> >, unsigned int&, std::__ndk1::ctype<char> const&, int)
PUBLIC m a59a8 0 std::__ndk1::time_get<wchar_t, std::__ndk1::istreambuf_iterator<wchar_t, std::__ndk1::char_traits<wchar_t> > >::get(std::__ndk1::istreambuf_iterator<wchar_t, std::__ndk1::char_traits<wchar_t> >, std::__ndk1::istreambuf_iterator<wchar_t, std::__ndk1::char_traits<wchar_t> >, std::__ndk1::ios_base&, unsigned int&, tm*, wchar_t const*, wchar_t const*) const
PUBLIC m a5f00 0 std::__ndk1::time_get<wchar_t, std::__ndk1::istreambuf_iterator<wchar_t, std::__ndk1::char_traits<wchar_t> > >::do_date_order() const
PUBLIC m a5f0c 0 std::__ndk1::time_get<wchar_t, std::__ndk1::istreambuf_iterator<wchar_t, std::__ndk1::char_traits<wchar_t> > >::do_get_time(std::__ndk1::istreambuf_iterator<wchar_t, std::__ndk1::char_traits<wchar_t> >, std::__ndk1::istreambuf_iterator<wchar_t, std::__ndk1::char_traits<wchar_t> >, std::__ndk1::ios_base&, unsigned int&, tm*) const
PUBLIC m a5f4c 0 std::__ndk1::time_get<wchar_t, std::__ndk1::istreambuf_iterator<wchar_t, std::__ndk1::char_traits<wchar_t> > >::do_get_date(std::__ndk1::istreambuf_iterator<wchar_t, std::__ndk1::char_traits<wchar_t> >, std::__ndk1::istreambuf_iterator<wchar_t, std::__ndk1::char_traits<wchar_t> >, std::__ndk1::ios_base&, unsigned int&, tm*) const
PUBLIC m a5fdc 0 std::__ndk1::time_get<wchar_t, std::__ndk1::istreambuf_iterator<wchar_t, std::__ndk1::char_traits<wchar_t> > >::do_get_weekday(std::__ndk1::istreambuf_iterator<wchar_t, std::__ndk1::char_traits<wchar_t> >, std::__ndk1::istreambuf_iterator<wchar_t, std::__ndk1::char_traits<wchar_t> >, std::__ndk1::ios_base&, unsigned int&, tm*) const
PUBLIC m a6140 0 std::__ndk1::time_get<wchar_t, std::__ndk1::istreambuf_iterator<wchar_t, std::__ndk1::char_traits<wchar_t> > >::__get_weekdayname(int&, std::__ndk1::istreambuf_iterator<wchar_t, std::__ndk1::char_traits<wchar_t> >&, std::__ndk1::istreambuf_iterator<wchar_t, std::__ndk1::char_traits<wchar_t> >, unsigned int&, std::__ndk1::ctype<wchar_t> const&) const
PUBLIC m a61fc 0 std::__ndk1::time_get<wchar_t, std::__ndk1::istreambuf_iterator<wchar_t, std::__ndk1::char_traits<wchar_t> > >::do_get_monthname(std::__ndk1::istreambuf_iterator<wchar_t, std::__ndk1::char_traits<wchar_t> >, std::__ndk1::istreambuf_iterator<wchar_t, std::__ndk1::char_traits<wchar_t> >, std::__ndk1::ios_base&, unsigned int&, tm*) const
PUBLIC m a635c 0 std::__ndk1::time_get<wchar_t, std::__ndk1::istreambuf_iterator<wchar_t, std::__ndk1::char_traits<wchar_t> > >::__get_monthname(int&, std::__ndk1::istreambuf_iterator<wchar_t, std::__ndk1::char_traits<wchar_t> >&, std::__ndk1::istreambuf_iterator<wchar_t, std::__ndk1::char_traits<wchar_t> >, unsigned int&, std::__ndk1::ctype<wchar_t> const&) const
PUBLIC m a6414 0 std::__ndk1::time_get<wchar_t, std::__ndk1::istreambuf_iterator<wchar_t, std::__ndk1::char_traits<wchar_t> > >::do_get_year(std::__ndk1::istreambuf_iterator<wchar_t, std::__ndk1::char_traits<wchar_t> >, std::__ndk1::istreambuf_iterator<wchar_t, std::__ndk1::char_traits<wchar_t> >, std::__ndk1::ios_base&, unsigned int&, tm*) const
PUBLIC m a653c 0 std::__ndk1::time_get<wchar_t, std::__ndk1::istreambuf_iterator<wchar_t, std::__ndk1::char_traits<wchar_t> > >::__get_year(int&, std::__ndk1::istreambuf_iterator<wchar_t, std::__ndk1::char_traits<wchar_t> >&, std::__ndk1::istreambuf_iterator<wchar_t, std::__ndk1::char_traits<wchar_t> >, unsigned int&, std::__ndk1::ctype<wchar_t> const&) const
PUBLIC m a65a4 0 std::__ndk1::time_get<wchar_t, std::__ndk1::istreambuf_iterator<wchar_t, std::__ndk1::char_traits<wchar_t> > >::do_get(std::__ndk1::istreambuf_iterator<wchar_t, std::__ndk1::char_traits<wchar_t> >, std::__ndk1::istreambuf_iterator<wchar_t, std::__ndk1::char_traits<wchar_t> >, std::__ndk1::ios_base&, unsigned int&, tm*, char, char) const
PUBLIC m a6c18 0 std::__ndk1::time_get<wchar_t, std::__ndk1::istreambuf_iterator<wchar_t, std::__ndk1::char_traits<wchar_t> > >::__get_day(int&, std::__ndk1::istreambuf_iterator<wchar_t, std::__ndk1::char_traits<wchar_t> >&, std::__ndk1::istreambuf_iterator<wchar_t, std::__ndk1::char_traits<wchar_t> >, unsigned int&, std::__ndk1::ctype<wchar_t> const&) const
PUBLIC m a6c8c 0 std::__ndk1::time_get<wchar_t, std::__ndk1::istreambuf_iterator<wchar_t, std::__ndk1::char_traits<wchar_t> > >::__get_hour(int&, std::__ndk1::istreambuf_iterator<wchar_t, std::__ndk1::char_traits<wchar_t> >&, std::__ndk1::istreambuf_iterator<wchar_t, std::__ndk1::char_traits<wchar_t> >, unsigned int&, std::__ndk1::ctype<wchar_t> const&) const
PUBLIC m a6cfc 0 std::__ndk1::time_get<wchar_t, std::__ndk1::istreambuf_iterator<wchar_t, std::__ndk1::char_traits<wchar_t> > >::__get_12_hour(int&, std::__ndk1::istreambuf_iterator<wchar_t, std::__ndk1::char_traits<wchar_t> >&, std::__ndk1::istreambuf_iterator<wchar_t, std::__ndk1::char_traits<wchar_t> >, unsigned int&, std::__ndk1::ctype<wchar_t> const&) const
PUBLIC m a6d70 0 std::__ndk1::time_get<wchar_t, std::__ndk1::istreambuf_iterator<wchar_t, std::__ndk1::char_traits<wchar_t> > >::__get_day_year_num(int&, std::__ndk1::istreambuf_iterator<wchar_t, std::__ndk1::char_traits<wchar_t> >&, std::__ndk1::istreambuf_iterator<wchar_t, std::__ndk1::char_traits<wchar_t> >, unsigned int&, std::__ndk1::ctype<wchar_t> const&) const
PUBLIC m a6de0 0 std::__ndk1::time_get<wchar_t, std::__ndk1::istreambuf_iterator<wchar_t, std::__ndk1::char_traits<wchar_t> > >::__get_month(int&, std::__ndk1::istreambuf_iterator<wchar_t, std::__ndk1::char_traits<wchar_t> >&, std::__ndk1::istreambuf_iterator<wchar_t, std::__ndk1::char_traits<wchar_t> >, unsigned int&, std::__ndk1::ctype<wchar_t> const&) const
PUBLIC m a6e54 0 std::__ndk1::time_get<wchar_t, std::__ndk1::istreambuf_iterator<wchar_t, std::__ndk1::char_traits<wchar_t> > >::__get_minute(int&, std::__ndk1::istreambuf_iterator<wchar_t, std::__ndk1::char_traits<wchar_t> >&, std::__ndk1::istreambuf_iterator<wchar_t, std::__ndk1::char_traits<wchar_t> >, unsigned int&, std::__ndk1::ctype<wchar_t> const&) const
PUBLIC m a6ec4 0 std::__ndk1::time_get<wchar_t, std::__ndk1::istreambuf_iterator<wchar_t, std::__ndk1::char_traits<wchar_t> > >::__get_white_space(std::__ndk1::istreambuf_iterator<wchar_t, std::__ndk1::char_traits<wchar_t> >&, std::__ndk1::istreambuf_iterator<wchar_t, std::__ndk1::char_traits<wchar_t> >, unsigned int&, std::__ndk1::ctype<wchar_t> const&) const
PUBLIC m a70f8 0 std::__ndk1::time_get<wchar_t, std::__ndk1::istreambuf_iterator<wchar_t, std::__ndk1::char_traits<wchar_t> > >::__get_am_pm(int&, std::__ndk1::istreambuf_iterator<wchar_t, std::__ndk1::char_traits<wchar_t> >&, std::__ndk1::istreambuf_iterator<wchar_t, std::__ndk1::char_traits<wchar_t> >, unsigned int&, std::__ndk1::ctype<wchar_t> const&) const
PUBLIC m a7208 0 std::__ndk1::time_get<wchar_t, std::__ndk1::istreambuf_iterator<wchar_t, std::__ndk1::char_traits<wchar_t> > >::__get_second(int&, std::__ndk1::istreambuf_iterator<wchar_t, std::__ndk1::char_traits<wchar_t> >&, std::__ndk1::istreambuf_iterator<wchar_t, std::__ndk1::char_traits<wchar_t> >, unsigned int&, std::__ndk1::ctype<wchar_t> const&) const
PUBLIC m a7278 0 std::__ndk1::time_get<wchar_t, std::__ndk1::istreambuf_iterator<wchar_t, std::__ndk1::char_traits<wchar_t> > >::__get_weekday(int&, std::__ndk1::istreambuf_iterator<wchar_t, std::__ndk1::char_traits<wchar_t> >&, std::__ndk1::istreambuf_iterator<wchar_t, std::__ndk1::char_traits<wchar_t> >, unsigned int&, std::__ndk1::ctype<wchar_t> const&) const
PUBLIC m a72e8 0 std::__ndk1::time_get<wchar_t, std::__ndk1::istreambuf_iterator<wchar_t, std::__ndk1::char_traits<wchar_t> > >::__get_year4(int&, std::__ndk1::istreambuf_iterator<wchar_t, std::__ndk1::char_traits<wchar_t> >&, std::__ndk1::istreambuf_iterator<wchar_t, std::__ndk1::char_traits<wchar_t> >, unsigned int&, std::__ndk1::ctype<wchar_t> const&) const
PUBLIC m a7338 0 std::__ndk1::time_get<wchar_t, std::__ndk1::istreambuf_iterator<wchar_t, std::__ndk1::char_traits<wchar_t> > >::__get_percent(std::__ndk1::istreambuf_iterator<wchar_t, std::__ndk1::char_traits<wchar_t> >&, std::__ndk1::istreambuf_iterator<wchar_t, std::__ndk1::char_traits<wchar_t> >, unsigned int&, std::__ndk1::ctype<wchar_t> const&) const
PUBLIC a7580 0 std::__ndk1::__get_up_to_n_digits[abi:v170000]<wchar_t, std::__ndk1::istreambuf_iterator<wchar_t, std::__ndk1::char_traits<wchar_t> > >(std::__ndk1::istreambuf_iterator<wchar_t, std::__ndk1::char_traits<wchar_t> >&, std::__ndk1::istreambuf_iterator<wchar_t, std::__ndk1::char_traits<wchar_t> >, unsigned int&, std::__ndk1::ctype<wchar_t> const&, int)
PUBLIC m a7940 0 std::__ndk1::time_put<char, std::__ndk1::ostreambuf_iterator<char, std::__ndk1::char_traits<char> > >::put(std::__ndk1::ostreambuf_iterator<char, std::__ndk1::char_traits<char> >, std::__ndk1::ios_base&, char, tm const*, char const*, char const*) const
PUBLIC m a7bec 0 std::__ndk1::time_put<char, std::__ndk1::ostreambuf_iterator<char, std::__ndk1::char_traits<char> > >::do_put(std::__ndk1::ostreambuf_iterator<char, std::__ndk1::char_traits<char> >, std::__ndk1::ios_base&, char, tm const*, char, char) const
PUBLIC m a7cbc 0 std::__ndk1::__time_put::__do_put(char*, char*&, tm const*, char, char) const
PUBLIC m a7d30 0 std::__ndk1::time_put<wchar_t, std::__ndk1::ostreambuf_iterator<wchar_t, std::__ndk1::char_traits<wchar_t> > >::put(std::__ndk1::ostreambuf_iterator<wchar_t, std::__ndk1::char_traits<wchar_t> >, std::__ndk1::ios_base&, wchar_t, tm const*, wchar_t const*, wchar_t const*) const
PUBLIC m a7fec 0 std::__ndk1::time_put<wchar_t, std::__ndk1::ostreambuf_iterator<wchar_t, std::__ndk1::char_traits<wchar_t> > >::do_put(std::__ndk1::ostreambuf_iterator<wchar_t, std::__ndk1::char_traits<wchar_t> >, std::__ndk1::ios_base&, wchar_t, tm const*, char, char) const
PUBLIC m a80b8 0 std::__ndk1::__time_put::__do_put(wchar_t*, wchar_t*&, tm const*, char, char) const
PUBLIC m a81b0 0 std::__ndk1::moneypunct<char, false>::do_decimal_point() const
PUBLIC m a81bc 0 std::__ndk1::moneypunct<char, false>::do_thousands_sep() const
PUBLIC m a81c8 0 std::__ndk1::moneypunct<char, false>::do_grouping() const
PUBLIC m a81d8 0 std::__ndk1::moneypunct<char, false>::do_curr_symbol() const
PUBLIC m a81e8 0 std::__ndk1::moneypunct<char, false>::do_positive_sign() const
PUBLIC m a81f8 0 std::__ndk1::moneypunct<char, false>::do_negative_sign() const
PUBLIC m a820c 0 std::__ndk1::moneypunct<char, false>::do_frac_digits() const
PUBLIC m a8218 0 std::__ndk1::moneypunct<char, false>::do_pos_format() const
PUBLIC m a8228 0 std::__ndk1::moneypunct<char, false>::do_neg_format() const
PUBLIC m a8238 0 std::__ndk1::moneypunct<char, true>::do_decimal_point() const
PUBLIC m a8244 0 std::__ndk1::moneypunct<char, true>::do_thousands_sep() const
PUBLIC m a8250 0 std::__ndk1::moneypunct<char, true>::do_grouping() const
PUBLIC m a8260 0 std::__ndk1::moneypunct<char, true>::do_curr_symbol() const
PUBLIC m a8270 0 std::__ndk1::moneypunct<char, true>::do_positive_sign() const
PUBLIC m a8280 0 std::__ndk1::moneypunct<char, true>::do_negative_sign() const
PUBLIC m a8294 0 std::__ndk1::moneypunct<char, true>::do_frac_digits() const
PUBLIC m a82a0 0 std::__ndk1::moneypunct<char, true>::do_pos_format() const
PUBLIC m a82b0 0 std::__ndk1::moneypunct<char, true>::do_neg_format() const
PUBLIC m a82c0 0 std::__ndk1::moneypunct<wchar_t, false>::do_decimal_point() const
PUBLIC m a82cc 0 std::__ndk1::moneypunct<wchar_t, false>::do_thousands_sep() const
PUBLIC m a82d8 0 std::__ndk1::moneypunct<wchar_t, false>::do_grouping() const
PUBLIC m a82e8 0 std::__ndk1::moneypunct<wchar_t, false>::do_curr_symbol() const
PUBLIC m a82f8 0 std::__ndk1::moneypunct<wchar_t, false>::do_positive_sign() const
PUBLIC m a8308 0 std::__ndk1::moneypunct<wchar_t, false>::do_negative_sign() const
PUBLIC m a8324 0 std::__ndk1::moneypunct<wchar_t, false>::do_frac_digits() const
PUBLIC m a8330 0 std::__ndk1::moneypunct<wchar_t, false>::do_pos_format() const
PUBLIC m a8340 0 std::__ndk1::moneypunct<wchar_t, false>::do_neg_format() const
PUBLIC m a8350 0 std::__ndk1::moneypunct<wchar_t, true>::do_decimal_point() const
PUBLIC m a835c 0 std::__ndk1::moneypunct<wchar_t, true>::do_thousands_sep() const
PUBLIC m a8368 0 std::__ndk1::moneypunct<wchar_t, true>::do_grouping() const
PUBLIC m a8378 0 std::__ndk1::moneypunct<wchar_t, true>::do_curr_symbol() const
PUBLIC m a8388 0 std::__ndk1::moneypunct<wchar_t, true>::do_positive_sign() const
PUBLIC m a8398 0 std::__ndk1::moneypunct<wchar_t, true>::do_negative_sign() const
PUBLIC m a83b4 0 std::__ndk1::moneypunct<wchar_t, true>::do_frac_digits() const
PUBLIC m a83c0 0 std::__ndk1::moneypunct<wchar_t, true>::do_pos_format() const
PUBLIC m a83d0 0 std::__ndk1::moneypunct<wchar_t, true>::do_neg_format() const
PUBLIC m a83e0 0 std::__ndk1::moneypunct_byname<char, false>::do_decimal_point() const
PUBLIC m a83ec 0 std::__ndk1::moneypunct_byname<char, false>::do_thousands_sep() const
PUBLIC m a83f8 0 std::__ndk1::moneypunct_byname<char, false>::do_grouping() const
PUBLIC m a84a4 0 std::__ndk1::moneypunct_byname<char, false>::do_curr_symbol() const
PUBLIC m a8550 0 std::__ndk1::moneypunct_byname<char, false>::do_positive_sign() const
PUBLIC m a85fc 0 std::__ndk1::moneypunct_byname<char, false>::do_negative_sign() const
PUBLIC m a86a8 0 std::__ndk1::moneypunct_byname<char, false>::do_frac_digits() const
PUBLIC m a86b4 0 std::__ndk1::moneypunct_byname<char, false>::do_pos_format() const
PUBLIC m a86c0 0 std::__ndk1::moneypunct_byname<char, false>::do_neg_format() const
PUBLIC m a86cc 0 std::__ndk1::moneypunct_byname<char, true>::do_decimal_point() const
PUBLIC m a86d8 0 std::__ndk1::moneypunct_byname<char, true>::do_thousands_sep() const
PUBLIC m a86e4 0 std::__ndk1::moneypunct_byname<char, true>::do_grouping() const
PUBLIC m a8790 0 std::__ndk1::moneypunct_byname<char, true>::do_curr_symbol() const
PUBLIC m a883c 0 std::__ndk1::moneypunct_byname<char, true>::do_positive_sign() const
PUBLIC m a88e8 0 std::__ndk1::moneypunct_byname<char, true>::do_negative_sign() const
PUBLIC m a8994 0 std::__ndk1::moneypunct_byname<char, true>::do_frac_digits() const
PUBLIC m a89a0 0 std::__ndk1::moneypunct_byname<char, true>::do_pos_format() const
PUBLIC m a89ac 0 std::__ndk1::moneypunct_byname<char, true>::do_neg_format() const
PUBLIC m a89b8 0 std::__ndk1::moneypunct_byname<wchar_t, false>::do_decimal_point() const
PUBLIC m a89c4 0 std::__ndk1::moneypunct_byname<wchar_t, false>::do_thousands_sep() const
PUBLIC m a89d0 0 std::__ndk1::moneypunct_byname<wchar_t, false>::do_grouping() const
PUBLIC m a8a7c 0 std::__ndk1::moneypunct_byname<wchar_t, false>::do_curr_symbol() const
PUBLIC m a8b44 0 std::__ndk1::moneypunct_byname<wchar_t, false>::do_positive_sign() const
PUBLIC m a8c0c 0 std::__ndk1::moneypunct_byname<wchar_t, false>::do_negative_sign() const
PUBLIC m a8cd4 0 std::__ndk1::moneypunct_byname<wchar_t, false>::do_frac_digits() const
PUBLIC m a8ce0 0 std::__ndk1::moneypunct_byname<wchar_t, false>::do_pos_format() const
PUBLIC m a8cec 0 std::__ndk1::moneypunct_byname<wchar_t, false>::do_neg_format() const
PUBLIC m a8cf8 0 std::__ndk1::moneypunct_byname<wchar_t, true>::do_decimal_point() const
PUBLIC m a8d04 0 std::__ndk1::moneypunct_byname<wchar_t, true>::do_thousands_sep() const
PUBLIC m a8d10 0 std::__ndk1::moneypunct_byname<wchar_t, true>::do_grouping() const
PUBLIC m a8dbc 0 std::__ndk1::moneypunct_byname<wchar_t, true>::do_curr_symbol() const
PUBLIC m a8e84 0 std::__ndk1::moneypunct_byname<wchar_t, true>::do_positive_sign() const
PUBLIC m a8f4c 0 std::__ndk1::moneypunct_byname<wchar_t, true>::do_negative_sign() const
PUBLIC m a9014 0 std::__ndk1::moneypunct_byname<wchar_t, true>::do_frac_digits() const
PUBLIC m a9020 0 std::__ndk1::moneypunct_byname<wchar_t, true>::do_pos_format() const
PUBLIC m a902c 0 std::__ndk1::moneypunct_byname<wchar_t, true>::do_neg_format() const
PUBLIC m a9038 0 std::__ndk1::money_get<char, std::__ndk1::istreambuf_iterator<char, std::__ndk1::char_traits<char> > >::do_get(std::__ndk1::istreambuf_iterator<char, std::__ndk1::char_traits<char> >, std::__ndk1::istreambuf_iterator<char, std::__ndk1::char_traits<char> >, bool, std::__ndk1::ios_base&, unsigned int&, long double&) const
PUBLIC m a9450 0 std::__ndk1::__do_nothing(void*)
PUBLIC m a9458 0 std::__ndk1::money_get<char, std::__ndk1::istreambuf_iterator<char, std::__ndk1::char_traits<char> > >::__do_get(std::__ndk1::istreambuf_iterator<char, std::__ndk1::char_traits<char> >&, std::__ndk1::istreambuf_iterator<char, std::__ndk1::char_traits<char> >, bool, std::__ndk1::locale const&, unsigned int, unsigned int&, bool&, std::__ndk1::ctype<char> const&, std::__ndk1::unique_ptr<char, void (*)(void*)>&, char*&, char*)
PUBLIC m aa8a0 0 std::__ndk1::__throw_runtime_error(char const*)
PUBLIC m aa8f4 0 std::__ndk1::money_get<char, std::__ndk1::istreambuf_iterator<char, std::__ndk1::char_traits<char> > >::do_get(std::__ndk1::istreambuf_iterator<char, std::__ndk1::char_traits<char> >, std::__ndk1::istreambuf_iterator<char, std::__ndk1::char_traits<char> >, bool, std::__ndk1::ios_base&, unsigned int&, std::__ndk1::basic_string<char, std::__ndk1::char_traits<char>, std::__ndk1::allocator<char> >&) const
PUBLIC aabdc 0 std::__ndk1::basic_string<char, std::__ndk1::char_traits<char>, std::__ndk1::allocator<char> >::append[abi:v170000]<char*>(std::__ndk1::enable_if, std::__ndk1::enable_if)
PUBLIC m aae94 0 std::__ndk1::__money_get<char>::__gather_info(bool, std::__ndk1::locale const&, std::__ndk1::money_base::pattern&, char&, char&, std::__ndk1::basic_string<char, std::__ndk1::char_traits<char>, std::__ndk1::allocator<char> >&, std::__ndk1::basic_string<char, std::__ndk1::char_traits<char>, std::__ndk1::allocator<char> >&, std::__ndk1::basic_string<char, std::__ndk1::char_traits<char>, std::__ndk1::allocator<char> >&, std::__ndk1::basic_string<char, std::__ndk1::char_traits<char>, std::__ndk1::allocator<char> >&, int&)
PUBLIC m ab0d4 0 std::__ndk1::__check_grouping(std::__ndk1::basic_string<char, std::__ndk1::char_traits<char>, std::__ndk1::allocator<char> > const&, unsigned int*, unsigned int*, unsigned int&)
PUBLIC m ab1d0 0 std::__ndk1::money_get<wchar_t, std::__ndk1::istreambuf_iterator<wchar_t, std::__ndk1::char_traits<wchar_t> > >::do_get(std::__ndk1::istreambuf_iterator<wchar_t, std::__ndk1::char_traits<wchar_t> >, std::__ndk1::istreambuf_iterator<wchar_t, std::__ndk1::char_traits<wchar_t> >, bool, std::__ndk1::ios_base&, unsigned int&, long double&) const
PUBLIC m ab5ec 0 std::__ndk1::money_get<wchar_t, std::__ndk1::istreambuf_iterator<wchar_t, std::__ndk1::char_traits<wchar_t> > >::__do_get(std::__ndk1::istreambuf_iterator<wchar_t, std::__ndk1::char_traits<wchar_t> >&, std::__ndk1::istreambuf_iterator<wchar_t, std::__ndk1::char_traits<wchar_t> >, bool, std::__ndk1::locale const&, unsigned int, unsigned int&, bool&, std::__ndk1::ctype<wchar_t> const&, std::__ndk1::unique_ptr<wchar_t, void (*)(void*)>&, wchar_t*&, wchar_t*)
PUBLIC m aca5c 0 std::__ndk1::money_get<wchar_t, std::__ndk1::istreambuf_iterator<wchar_t, std::__ndk1::char_traits<wchar_t> > >::do_get(std::__ndk1::istreambuf_iterator<wchar_t, std::__ndk1::char_traits<wchar_t> >, std::__ndk1::istreambuf_iterator<wchar_t, std::__ndk1::char_traits<wchar_t> >, bool, std::__ndk1::ios_base&, unsigned int&, std::__ndk1::basic_string<wchar_t, std::__ndk1::char_traits<wchar_t>, std::__ndk1::allocator<wchar_t> >&) const
PUBLIC acd34 0 std::__ndk1::basic_string<wchar_t, std::__ndk1::char_traits<wchar_t>, std::__ndk1::allocator<wchar_t> >::append[abi:v170000]<wchar_t*>(std::__ndk1::enable_if, std::__ndk1::enable_if)
PUBLIC m ad0c0 0 std::__ndk1::__money_get<wchar_t>::__gather_info(bool, std::__ndk1::locale const&, std::__ndk1::money_base::pattern&, wchar_t&, wchar_t&, std::__ndk1::basic_string<char, std::__ndk1::char_traits<char>, std::__ndk1::allocator<char> >&, std::__ndk1::basic_string<wchar_t, std::__ndk1::char_traits<wchar_t>, std::__ndk1::allocator<wchar_t> >&, std::__ndk1::basic_string<wchar_t, std::__ndk1::char_traits<wchar_t>, std::__ndk1::allocator<wchar_t> >&, std::__ndk1::basic_string<wchar_t, std::__ndk1::char_traits<wchar_t>, std::__ndk1::allocator<wchar_t> >&, int&)
PUBLIC m ad300 0 std::__ndk1::money_put<char, std::__ndk1::ostreambuf_iterator<char, std::__ndk1::char_traits<char> > >::do_put(std::__ndk1::ostreambuf_iterator<char, std::__ndk1::char_traits<char> >, bool, std::__ndk1::ios_base&, char, long double) const
PUBLIC ad7d0 0 std::__ndk1::__libcpp_asprintf_l(char**, __locale_t*, char const*, ...)
PUBLIC m ad89c 0 std::__ndk1::__money_put<char>::__gather_info(bool, bool, std::__ndk1::locale const&, std::__ndk1::money_base::pattern&, char&, char&, std::__ndk1::basic_string<char, std::__ndk1::char_traits<char>, std::__ndk1::allocator<char> >&, std::__ndk1::basic_string<char, std::__ndk1::char_traits<char>, std::__ndk1::allocator<char> >&, std::__ndk1::basic_string<char, std::__ndk1::char_traits<char>, std::__ndk1::allocator<char> >&, int&)
PUBLIC m adadc 0 std::__ndk1::__money_put<char>::__format(char*, char*&, char*&, unsigned int, char const*, char const*, std::__ndk1::ctype<char> const&, bool, std::__ndk1::money_base::pattern const&, char, char, std::__ndk1::basic_string<char, std::__ndk1::char_traits<char>, std::__ndk1::allocator<char> > const&, std::__ndk1::basic_string<char, std::__ndk1::char_traits<char>, std::__ndk1::allocator<char> > const&, std::__ndk1::basic_string<char, std::__ndk1::char_traits<char>, std::__ndk1::allocator<char> > const&, int)
PUBLIC m adf78 0 std::__ndk1::money_put<char, std::__ndk1::ostreambuf_iterator<char, std::__ndk1::char_traits<char> > >::do_put(std::__ndk1::ostreambuf_iterator<char, std::__ndk1::char_traits<char> >, bool, std::__ndk1::ios_base&, char, std::__ndk1::basic_string<char, std::__ndk1::char_traits<char>, std::__ndk1::allocator<char> > const&) const
PUBLIC m ae348 0 std::__ndk1::money_put<wchar_t, std::__ndk1::ostreambuf_iterator<wchar_t, std::__ndk1::char_traits<wchar_t> > >::do_put(std::__ndk1::ostreambuf_iterator<wchar_t, std::__ndk1::char_traits<wchar_t> >, bool, std::__ndk1::ios_base&, wchar_t, long double) const
PUBLIC m ae824 0 std::__ndk1::__money_put<wchar_t>::__gather_info(bool, bool, std::__ndk1::locale const&, std::__ndk1::money_base::pattern&, wchar_t&, wchar_t&, std::__ndk1::basic_string<char, std::__ndk1::char_traits<char>, std::__ndk1::allocator<char> >&, std::__ndk1::basic_string<wchar_t, std::__ndk1::char_traits<wchar_t>, std::__ndk1::allocator<wchar_t> >&, std::__ndk1::basic_string<wchar_t, std::__ndk1::char_traits<wchar_t>, std::__ndk1::allocator<wchar_t> >&, int&)
PUBLIC m aea64 0 std::__ndk1::__money_put<wchar_t>::__format(wchar_t*, wchar_t*&, wchar_t*&, unsigned int, wchar_t const*, wchar_t const*, std::__ndk1::ctype<wchar_t> const&, bool, std::__ndk1::money_base::pattern const&, wchar_t, wchar_t, std::__ndk1::basic_string<char, std::__ndk1::char_traits<char>, std::__ndk1::allocator<char> > const&, std::__ndk1::basic_string<wchar_t, std::__ndk1::char_traits<wchar_t>, std::__ndk1::allocator<wchar_t> > const&, std::__ndk1::basic_string<wchar_t, std::__ndk1::char_traits<wchar_t>, std::__ndk1::allocator<wchar_t> > const&, int)
PUBLIC m aef58 0 std::__ndk1::money_put<wchar_t, std::__ndk1::ostreambuf_iterator<wchar_t, std::__ndk1::char_traits<wchar_t> > >::do_put(std::__ndk1::ostreambuf_iterator<wchar_t, std::__ndk1::char_traits<wchar_t> >, bool, std::__ndk1::ios_base&, wchar_t, std::__ndk1::basic_string<wchar_t, std::__ndk1::char_traits<wchar_t>, std::__ndk1::allocator<wchar_t> > const&) const
PUBLIC m af330 0 std::__ndk1::messages<char>::do_open(std::__ndk1::basic_string<char, std::__ndk1::char_traits<char>, std::__ndk1::allocator<char> > const&, std::__ndk1::locale const&) const
PUBLIC m af33c 0 std::__ndk1::messages<char>::do_get(long, int, int, std::__ndk1::basic_string<char, std::__ndk1::char_traits<char>, std::__ndk1::allocator<char> > const&) const
PUBLIC m af3e4 0 std::__ndk1::messages<char>::do_close(long) const
PUBLIC m af3ec 0 std::__ndk1::messages<wchar_t>::do_open(std::__ndk1::basic_string<char, std::__ndk1::char_traits<char>, std::__ndk1::allocator<char> > const&, std::__ndk1::locale const&) const
PUBLIC m af3f8 0 std::__ndk1::messages<wchar_t>::do_get(long, int, int, std::__ndk1::basic_string<wchar_t, std::__ndk1::char_traits<wchar_t>, std::__ndk1::allocator<wchar_t> > const&) const
PUBLIC m af4bc 0 std::__ndk1::messages<wchar_t>::do_close(long) const
PUBLIC m af4c4 0 std::__ndk1::codecvt_byname<char, char, mbstate_t>::~codecvt_byname()
PUBLIC m af4cc 0 std::__ndk1::codecvt_byname<char, char, mbstate_t>::~codecvt_byname()
PUBLIC m af4f8 0 std::__ndk1::codecvt_byname<wchar_t, char, mbstate_t>::~codecvt_byname()
PUBLIC m af500 0 std::__ndk1::codecvt_byname<wchar_t, char, mbstate_t>::~codecvt_byname()
PUBLIC m af52c 0 std::__ndk1::codecvt_byname<char16_t, char, mbstate_t>::~codecvt_byname()
PUBLIC m af534 0 std::__ndk1::codecvt_byname<char16_t, char, mbstate_t>::~codecvt_byname()
PUBLIC m af560 0 std::__ndk1::codecvt_byname<char32_t, char, mbstate_t>::~codecvt_byname()
PUBLIC m af568 0 std::__ndk1::codecvt_byname<char32_t, char, mbstate_t>::~codecvt_byname()
PUBLIC m af594 0 std::__ndk1::codecvt_byname<char16_t, char8_t, mbstate_t>::~codecvt_byname()
PUBLIC m af59c 0 std::__ndk1::codecvt_byname<char16_t, char8_t, mbstate_t>::~codecvt_byname()
PUBLIC m af5c8 0 std::__ndk1::codecvt_byname<char32_t, char8_t, mbstate_t>::~codecvt_byname()
PUBLIC m af5d0 0 std::__ndk1::codecvt_byname<char32_t, char8_t, mbstate_t>::~codecvt_byname()
PUBLIC m af5fc 0 std::__ndk1::locale::__imp::__imp(unsigned long)
PUBLIC afbb4 0 std::__ndk1::basic_string<char, std::__ndk1::char_traits<char>, std::__ndk1::allocator<char> >::basic_string[abi:v170000]<std::nullptr_t>()
PUBLIC afc44 0 std::__ndk1::locale::__imp::install<std::__ndk1::collate<char> >(std::__ndk1::collate<char>*)
PUBLIC afd78 0 std::__ndk1::locale::__imp::install<std::__ndk1::collate<wchar_t> >(std::__ndk1::collate<wchar_t>*)
PUBLIC afeac 0 std::__ndk1::locale::__imp::install<std::__ndk1::ctype<char> >(std::__ndk1::ctype<char>*)
PUBLIC affe0 0 std::__ndk1::locale::__imp::install<std::__ndk1::ctype<wchar_t> >(std::__ndk1::ctype<wchar_t>*)
PUBLIC b0114 0 std::__ndk1::locale::__imp::install<std::__ndk1::codecvt<char, char, mbstate_t> >(std::__ndk1::codecvt<char, char, mbstate_t>*)
PUBLIC b0248 0 std::__ndk1::locale::__imp::install<std::__ndk1::codecvt<wchar_t, char, mbstate_t> >(std::__ndk1::codecvt<wchar_t, char, mbstate_t>*)
PUBLIC b037c 0 std::__ndk1::locale::__imp::install<std::__ndk1::codecvt<char16_t, char, mbstate_t> >(std::__ndk1::codecvt<char16_t, char, mbstate_t>*)
PUBLIC b04b0 0 std::__ndk1::locale::__imp::install<std::__ndk1::codecvt<char32_t, char, mbstate_t> >(std::__ndk1::codecvt<char32_t, char, mbstate_t>*)
PUBLIC b05e4 0 std::__ndk1::locale::__imp::install<std::__ndk1::codecvt<char16_t, char8_t, mbstate_t> >(std::__ndk1::codecvt<char16_t, char8_t, mbstate_t>*)
PUBLIC b0718 0 std::__ndk1::locale::__imp::install<std::__ndk1::codecvt<char32_t, char8_t, mbstate_t> >(std::__ndk1::codecvt<char32_t, char8_t, mbstate_t>*)
PUBLIC b084c 0 std::__ndk1::locale::__imp::install<std::__ndk1::numpunct<char> >(std::__ndk1::numpunct<char>*)
PUBLIC b0980 0 std::__ndk1::locale::__imp::install<std::__ndk1::numpunct<wchar_t> >(std::__ndk1::numpunct<wchar_t>*)
PUBLIC b0ab4 0 std::__ndk1::locale::__imp::install<std::__ndk1::num_get<char, std::__ndk1::istreambuf_iterator<char, std::__ndk1::char_traits<char> > > >(std::__ndk1::num_get<char, std::__ndk1::istreambuf_iterator<char, std::__ndk1::char_traits<char> > >*)
PUBLIC b0be8 0 std::__ndk1::locale::__imp::install<std::__ndk1::num_get<wchar_t, std::__ndk1::istreambuf_iterator<wchar_t, std::__ndk1::char_traits<wchar_t> > > >(std::__ndk1::num_get<wchar_t, std::__ndk1::istreambuf_iterator<wchar_t, std::__ndk1::char_traits<wchar_t> > >*)
PUBLIC b0d1c 0 std::__ndk1::locale::__imp::install<std::__ndk1::num_put<char, std::__ndk1::ostreambuf_iterator<char, std::__ndk1::char_traits<char> > > >(std::__ndk1::num_put<char, std::__ndk1::ostreambuf_iterator<char, std::__ndk1::char_traits<char> > >*)
PUBLIC b0e50 0 std::__ndk1::locale::__imp::install<std::__ndk1::num_put<wchar_t, std::__ndk1::ostreambuf_iterator<wchar_t, std::__ndk1::char_traits<wchar_t> > > >(std::__ndk1::num_put<wchar_t, std::__ndk1::ostreambuf_iterator<wchar_t, std::__ndk1::char_traits<wchar_t> > >*)
PUBLIC b0f84 0 std::__ndk1::locale::__imp::install<std::__ndk1::moneypunct<char, false> >(std::__ndk1::moneypunct<char, false>*)
PUBLIC b10b8 0 std::__ndk1::locale::__imp::install<std::__ndk1::moneypunct<char, true> >(std::__ndk1::moneypunct<char, true>*)
PUBLIC b11ec 0 std::__ndk1::locale::__imp::install<std::__ndk1::moneypunct<wchar_t, false> >(std::__ndk1::moneypunct<wchar_t, false>*)
PUBLIC b1320 0 std::__ndk1::locale::__imp::install<std::__ndk1::moneypunct<wchar_t, true> >(std::__ndk1::moneypunct<wchar_t, true>*)
PUBLIC b1454 0 std::__ndk1::locale::__imp::install<std::__ndk1::money_get<char, std::__ndk1::istreambuf_iterator<char, std::__ndk1::char_traits<char> > > >(std::__ndk1::money_get<char, std::__ndk1::istreambuf_iterator<char, std::__ndk1::char_traits<char> > >*)
PUBLIC b1588 0 std::__ndk1::locale::__imp::install<std::__ndk1::money_get<wchar_t, std::__ndk1::istreambuf_iterator<wchar_t, std::__ndk1::char_traits<wchar_t> > > >(std::__ndk1::money_get<wchar_t, std::__ndk1::istreambuf_iterator<wchar_t, std::__ndk1::char_traits<wchar_t> > >*)
PUBLIC b16bc 0 std::__ndk1::locale::__imp::install<std::__ndk1::money_put<char, std::__ndk1::ostreambuf_iterator<char, std::__ndk1::char_traits<char> > > >(std::__ndk1::money_put<char, std::__ndk1::ostreambuf_iterator<char, std::__ndk1::char_traits<char> > >*)
PUBLIC b17f0 0 std::__ndk1::locale::__imp::install<std::__ndk1::money_put<wchar_t, std::__ndk1::ostreambuf_iterator<wchar_t, std::__ndk1::char_traits<wchar_t> > > >(std::__ndk1::money_put<wchar_t, std::__ndk1::ostreambuf_iterator<wchar_t, std::__ndk1::char_traits<wchar_t> > >*)
PUBLIC b1924 0 std::__ndk1::locale::__imp::install<std::__ndk1::time_get<char, std::__ndk1::istreambuf_iterator<char, std::__ndk1::char_traits<char> > > >(std::__ndk1::time_get<char, std::__ndk1::istreambuf_iterator<char, std::__ndk1::char_traits<char> > >*)
PUBLIC b1a58 0 std::__ndk1::locale::__imp::install<std::__ndk1::time_get<wchar_t, std::__ndk1::istreambuf_iterator<wchar_t, std::__ndk1::char_traits<wchar_t> > > >(std::__ndk1::time_get<wchar_t, std::__ndk1::istreambuf_iterator<wchar_t, std::__ndk1::char_traits<wchar_t> > >*)
PUBLIC b1b8c 0 std::__ndk1::locale::__imp::install<std::__ndk1::time_put<char, std::__ndk1::ostreambuf_iterator<char, std::__ndk1::char_traits<char> > > >(std::__ndk1::time_put<char, std::__ndk1::ostreambuf_iterator<char, std::__ndk1::char_traits<char> > >*)
PUBLIC b1cc0 0 std::__ndk1::locale::__imp::install<std::__ndk1::time_put<wchar_t, std::__ndk1::ostreambuf_iterator<wchar_t, std::__ndk1::char_traits<wchar_t> > > >(std::__ndk1::time_put<wchar_t, std::__ndk1::ostreambuf_iterator<wchar_t, std::__ndk1::char_traits<wchar_t> > >*)
PUBLIC b1df4 0 std::__ndk1::locale::__imp::install<std::__ndk1::messages<char> >(std::__ndk1::messages<char>*)
PUBLIC b1f28 0 std::__ndk1::locale::__imp::install<std::__ndk1::messages<wchar_t> >(std::__ndk1::messages<wchar_t>*)
PUBLIC m b205c 0 std::__ndk1::locale::__imp::__imp(std::__ndk1::basic_string<char, std::__ndk1::char_traits<char>, std::__ndk1::allocator<char> > const&, unsigned long)
PUBLIC m b2740 0 std::__ndk1::locale::classic()
PUBLIC b27e0 0 std::__ndk1::locale::__imp::install<std::__ndk1::collate_byname<char> >(std::__ndk1::collate_byname<char>*)
PUBLIC b2914 0 std::__ndk1::locale::__imp::install<std::__ndk1::collate_byname<wchar_t> >(std::__ndk1::collate_byname<wchar_t>*)
PUBLIC b2a48 0 std::__ndk1::locale::__imp::install<std::__ndk1::ctype_byname<char> >(std::__ndk1::ctype_byname<char>*)
PUBLIC b2b7c 0 std::__ndk1::locale::__imp::install<std::__ndk1::ctype_byname<wchar_t> >(std::__ndk1::ctype_byname<wchar_t>*)
PUBLIC b2cb0 0 std::__ndk1::locale::__imp::install<std::__ndk1::codecvt_byname<char, char, mbstate_t> >(std::__ndk1::codecvt_byname<char, char, mbstate_t>*)
PUBLIC b2de4 0 std::__ndk1::locale::__imp::install<std::__ndk1::codecvt_byname<wchar_t, char, mbstate_t> >(std::__ndk1::codecvt_byname<wchar_t, char, mbstate_t>*)
PUBLIC b2f18 0 std::__ndk1::locale::__imp::install<std::__ndk1::codecvt_byname<char16_t, char, mbstate_t> >(std::__ndk1::codecvt_byname<char16_t, char, mbstate_t>*)
PUBLIC b304c 0 std::__ndk1::locale::__imp::install<std::__ndk1::codecvt_byname<char32_t, char, mbstate_t> >(std::__ndk1::codecvt_byname<char32_t, char, mbstate_t>*)
PUBLIC b3180 0 std::__ndk1::locale::__imp::install<std::__ndk1::codecvt_byname<char16_t, char8_t, mbstate_t> >(std::__ndk1::codecvt_byname<char16_t, char8_t, mbstate_t>*)
PUBLIC b32b4 0 std::__ndk1::locale::__imp::install<std::__ndk1::codecvt_byname<char32_t, char8_t, mbstate_t> >(std::__ndk1::codecvt_byname<char32_t, char8_t, mbstate_t>*)
PUBLIC b33e8 0 std::__ndk1::locale::__imp::install<std::__ndk1::numpunct_byname<char> >(std::__ndk1::numpunct_byname<char>*)
PUBLIC b351c 0 std::__ndk1::locale::__imp::install<std::__ndk1::numpunct_byname<wchar_t> >(std::__ndk1::numpunct_byname<wchar_t>*)
PUBLIC b3650 0 std::__ndk1::locale::__imp::install<std::__ndk1::moneypunct_byname<char, false> >(std::__ndk1::moneypunct_byname<char, false>*)
PUBLIC b3784 0 std::__ndk1::moneypunct_byname<char, false>::moneypunct_byname[abi:v170000](std::__ndk1::basic_string<char, std::__ndk1::char_traits<char>, std::__ndk1::allocator<char> > const&, unsigned long)
PUBLIC b3874 0 std::__ndk1::locale::__imp::install<std::__ndk1::moneypunct_byname<char, true> >(std::__ndk1::moneypunct_byname<char, true>*)
PUBLIC b39a8 0 std::__ndk1::moneypunct_byname<char, true>::moneypunct_byname[abi:v170000](std::__ndk1::basic_string<char, std::__ndk1::char_traits<char>, std::__ndk1::allocator<char> > const&, unsigned long)
PUBLIC b3a98 0 std::__ndk1::locale::__imp::install<std::__ndk1::moneypunct_byname<wchar_t, false> >(std::__ndk1::moneypunct_byname<wchar_t, false>*)
PUBLIC b3bcc 0 std::__ndk1::moneypunct_byname<wchar_t, false>::moneypunct_byname[abi:v170000](std::__ndk1::basic_string<char, std::__ndk1::char_traits<char>, std::__ndk1::allocator<char> > const&, unsigned long)
PUBLIC b3cbc 0 std::__ndk1::locale::__imp::install<std::__ndk1::moneypunct_byname<wchar_t, true> >(std::__ndk1::moneypunct_byname<wchar_t, true>*)
PUBLIC b3df0 0 std::__ndk1::moneypunct_byname<wchar_t, true>::moneypunct_byname[abi:v170000](std::__ndk1::basic_string<char, std::__ndk1::char_traits<char>, std::__ndk1::allocator<char> > const&, unsigned long)
PUBLIC b3ee0 0 std::__ndk1::locale::__imp::install<std::__ndk1::time_get_byname<char, std::__ndk1::istreambuf_iterator<char, std::__ndk1::char_traits<char> > > >(std::__ndk1::time_get_byname<char, std::__ndk1::istreambuf_iterator<char, std::__ndk1::char_traits<char> > >*)
PUBLIC b4014 0 std::__ndk1::locale::__imp::install<std::__ndk1::time_get_byname<wchar_t, std::__ndk1::istreambuf_iterator<wchar_t, std::__ndk1::char_traits<wchar_t> > > >(std::__ndk1::time_get_byname<wchar_t, std::__ndk1::istreambuf_iterator<wchar_t, std::__ndk1::char_traits<wchar_t> > >*)
PUBLIC b4148 0 std::__ndk1::locale::__imp::install<std::__ndk1::time_put_byname<char, std::__ndk1::ostreambuf_iterator<char, std::__ndk1::char_traits<char> > > >(std::__ndk1::time_put_byname<char, std::__ndk1::ostreambuf_iterator<char, std::__ndk1::char_traits<char> > >*)
PUBLIC b427c 0 std::__ndk1::locale::__imp::install<std::__ndk1::time_put_byname<wchar_t, std::__ndk1::ostreambuf_iterator<wchar_t, std::__ndk1::char_traits<wchar_t> > > >(std::__ndk1::time_put_byname<wchar_t, std::__ndk1::ostreambuf_iterator<wchar_t, std::__ndk1::char_traits<wchar_t> > >*)
PUBLIC b43b0 0 std::__ndk1::locale::__imp::install<std::__ndk1::messages_byname<char> >(std::__ndk1::messages_byname<char>*)
PUBLIC b44e4 0 std::__ndk1::locale::__imp::install<std::__ndk1::messages_byname<wchar_t> >(std::__ndk1::messages_byname<wchar_t>*)
PUBLIC m b4618 0 std::__ndk1::locale::__imp::__imp(std::__ndk1::locale::__imp const&, std::__ndk1::basic_string<char, std::__ndk1::char_traits<char>, std::__ndk1::allocator<char> > const&, int)
PUBLIC m b4c2c 0 std::__ndk1::locale::__imp::__imp(std::__ndk1::locale::__imp const&, std::__ndk1::locale::__imp const&, int)
PUBLIC b4f74 0 std::__ndk1::locale::__imp::install_from<std::__ndk1::collate<char> >(std::__ndk1::locale::__imp const&)
PUBLIC b50c0 0 std::__ndk1::locale::__imp::install_from<std::__ndk1::collate<wchar_t> >(std::__ndk1::locale::__imp const&)
PUBLIC b520c 0 std::__ndk1::locale::__imp::install_from<std::__ndk1::ctype<char> >(std::__ndk1::locale::__imp const&)
PUBLIC b5358 0 std::__ndk1::locale::__imp::install_from<std::__ndk1::ctype<wchar_t> >(std::__ndk1::locale::__imp const&)
PUBLIC b54a4 0 std::__ndk1::locale::__imp::install_from<std::__ndk1::codecvt<char, char, mbstate_t> >(std::__ndk1::locale::__imp const&)
PUBLIC b55f0 0 std::__ndk1::locale::__imp::install_from<std::__ndk1::codecvt<char16_t, char, mbstate_t> >(std::__ndk1::locale::__imp const&)
PUBLIC b573c 0 std::__ndk1::locale::__imp::install_from<std::__ndk1::codecvt<char32_t, char, mbstate_t> >(std::__ndk1::locale::__imp const&)
PUBLIC b5888 0 std::__ndk1::locale::__imp::install_from<std::__ndk1::codecvt<char16_t, char8_t, mbstate_t> >(std::__ndk1::locale::__imp const&)
PUBLIC b59d4 0 std::__ndk1::locale::__imp::install_from<std::__ndk1::codecvt<char32_t, char8_t, mbstate_t> >(std::__ndk1::locale::__imp const&)
PUBLIC b5b20 0 std::__ndk1::locale::__imp::install_from<std::__ndk1::codecvt<wchar_t, char, mbstate_t> >(std::__ndk1::locale::__imp const&)
PUBLIC b5c6c 0 std::__ndk1::locale::__imp::install_from<std::__ndk1::moneypunct<char, false> >(std::__ndk1::locale::__imp const&)
PUBLIC b5db8 0 std::__ndk1::locale::__imp::install_from<std::__ndk1::moneypunct<char, true> >(std::__ndk1::locale::__imp const&)
PUBLIC b5f04 0 std::__ndk1::locale::__imp::install_from<std::__ndk1::moneypunct<wchar_t, false> >(std::__ndk1::locale::__imp const&)
PUBLIC b6050 0 std::__ndk1::locale::__imp::install_from<std::__ndk1::moneypunct<wchar_t, true> >(std::__ndk1::locale::__imp const&)
PUBLIC b619c 0 std::__ndk1::locale::__imp::install_from<std::__ndk1::money_get<char, std::__ndk1::istreambuf_iterator<char, std::__ndk1::char_traits<char> > > >(std::__ndk1::locale::__imp const&)
PUBLIC b62e8 0 std::__ndk1::locale::__imp::install_from<std::__ndk1::money_get<wchar_t, std::__ndk1::istreambuf_iterator<wchar_t, std::__ndk1::char_traits<wchar_t> > > >(std::__ndk1::locale::__imp const&)
PUBLIC b6434 0 std::__ndk1::locale::__imp::install_from<std::__ndk1::money_put<char, std::__ndk1::ostreambuf_iterator<char, std::__ndk1::char_traits<char> > > >(std::__ndk1::locale::__imp const&)
PUBLIC b6580 0 std::__ndk1::locale::__imp::install_from<std::__ndk1::money_put<wchar_t, std::__ndk1::ostreambuf_iterator<wchar_t, std::__ndk1::char_traits<wchar_t> > > >(std::__ndk1::locale::__imp const&)
PUBLIC b66cc 0 std::__ndk1::locale::__imp::install_from<std::__ndk1::numpunct<char> >(std::__ndk1::locale::__imp const&)
PUBLIC b6818 0 std::__ndk1::locale::__imp::install_from<std::__ndk1::numpunct<wchar_t> >(std::__ndk1::locale::__imp const&)
PUBLIC b6964 0 std::__ndk1::locale::__imp::install_from<std::__ndk1::num_get<char, std::__ndk1::istreambuf_iterator<char, std::__ndk1::char_traits<char> > > >(std::__ndk1::locale::__imp const&)
PUBLIC b6ab0 0 std::__ndk1::locale::__imp::install_from<std::__ndk1::num_get<wchar_t, std::__ndk1::istreambuf_iterator<wchar_t, std::__ndk1::char_traits<wchar_t> > > >(std::__ndk1::locale::__imp const&)
PUBLIC b6bfc 0 std::__ndk1::locale::__imp::install_from<std::__ndk1::num_put<char, std::__ndk1::ostreambuf_iterator<char, std::__ndk1::char_traits<char> > > >(std::__ndk1::locale::__imp const&)
PUBLIC b6d48 0 std::__ndk1::locale::__imp::install_from<std::__ndk1::num_put<wchar_t, std::__ndk1::ostreambuf_iterator<wchar_t, std::__ndk1::char_traits<wchar_t> > > >(std::__ndk1::locale::__imp const&)
PUBLIC b6e94 0 std::__ndk1::locale::__imp::install_from<std::__ndk1::time_get<char, std::__ndk1::istreambuf_iterator<char, std::__ndk1::char_traits<char> > > >(std::__ndk1::locale::__imp const&)
PUBLIC b6fe0 0 std::__ndk1::locale::__imp::install_from<std::__ndk1::time_get<wchar_t, std::__ndk1::istreambuf_iterator<wchar_t, std::__ndk1::char_traits<wchar_t> > > >(std::__ndk1::locale::__imp const&)
PUBLIC b712c 0 std::__ndk1::locale::__imp::install_from<std::__ndk1::time_put<char, std::__ndk1::ostreambuf_iterator<char, std::__ndk1::char_traits<char> > > >(std::__ndk1::locale::__imp const&)
PUBLIC b7278 0 std::__ndk1::locale::__imp::install_from<std::__ndk1::time_put<wchar_t, std::__ndk1::ostreambuf_iterator<wchar_t, std::__ndk1::char_traits<wchar_t> > > >(std::__ndk1::locale::__imp const&)
PUBLIC b73c4 0 std::__ndk1::locale::__imp::install_from<std::__ndk1::messages<char> >(std::__ndk1::locale::__imp const&)
PUBLIC b7510 0 std::__ndk1::locale::__imp::install_from<std::__ndk1::messages<wchar_t> >(std::__ndk1::locale::__imp const&)
PUBLIC m b765c 0 std::__ndk1::locale::__imp::__imp(std::__ndk1::locale::__imp const&, std::__ndk1::locale::facet*, long)
PUBLIC m b7954 0 std::__ndk1::locale::__imp::~__imp()
PUBLIC b7a34 0 std::__ndk1::locale::__imp::~__imp()
PUBLIC b7b08 0 std::__ndk1::locale::__imp::make_global()
PUBLIC m b7ba4 0 std::__ndk1::locale::__global()
PUBLIC m b7c34 0 std::__ndk1::locale::locale()
PUBLIC m b7cc4 0 std::__ndk1::locale::locale(std::__ndk1::locale const&)
PUBLIC m b7cf0 0 std::__ndk1::locale::~locale()
PUBLIC m b7d40 0 std::__ndk1::locale::operator=(std::__ndk1::locale const&)
PUBLIC m b7db0 0 std::__ndk1::locale::locale(char const*)
PUBLIC m b7ed4 0 std::__ndk1::locale::locale(std::__ndk1::basic_string<char, std::__ndk1::char_traits<char>, std::__ndk1::allocator<char> > const&)
PUBLIC m b7f40 0 std::__ndk1::locale::locale(std::__ndk1::locale const&, char const*, int)
PUBLIC m b807c 0 std::__ndk1::locale::locale(std::__ndk1::locale const&, std::__ndk1::basic_string<char, std::__ndk1::char_traits<char>, std::__ndk1::allocator<char> > const&, int)
PUBLIC m b80fc 0 std::__ndk1::locale::locale(std::__ndk1::locale const&, std::__ndk1::locale const&, int)
PUBLIC m b817c 0 std::__ndk1::locale::name() const
PUBLIC m b822c 0 std::__ndk1::locale::__install_ctor(std::__ndk1::locale const&, std::__ndk1::locale::facet*, long)
PUBLIC m b82b8 0 std::__ndk1::locale::global(std::__ndk1::locale const&)
PUBLIC m b8558 0 std::__ndk1::locale::has_facet(std::__ndk1::locale::id&) const
PUBLIC m b8600 0 std::__ndk1::locale::id::__get()
PUBLIC m b8674 0 std::__ndk1::locale::use_facet(std::__ndk1::locale::id&) const
PUBLIC m b8704 0 std::__ndk1::locale::operator==(std::__ndk1::locale const&) const
PUBLIC m b87f8 0 std::__ndk1::locale::facet::~facet()
PUBLIC m b8824 0 std::__ndk1::locale::facet::__on_zero_shared()
PUBLIC m b8834 0 std::__ndk1::locale::id::__init()
PUBLIC m b8870 0 std::__ndk1::collate_byname<char>::collate_byname(char const*, unsigned long)
PUBLIC b8964 0 std::__ndk1::(anonymous namespace)::__throw_runtime_error(std::__ndk1::basic_string<char, std::__ndk1::char_traits<char>, std::__ndk1::allocator<char> > const&)
PUBLIC b89b8 0 std::__ndk1::operator+[abi:v170000]<char, std::__ndk1::char_traits<char>, std::__ndk1::allocator<char> >(std::__ndk1::basic_string const*, std::__ndk1::allocator<char>&&)
PUBLIC m b8a1c 0 std::__ndk1::collate_byname<char>::collate_byname(std::__ndk1::basic_string<char, std::__ndk1::char_traits<char>, std::__ndk1::allocator<char> > const&, unsigned long)
PUBLIC m b8ad0 0 std::__ndk1::collate_byname<char>::~collate_byname()
PUBLIC m b8b14 0 std::__ndk1::collate_byname<char>::~collate_byname()
PUBLIC m b8b40 0 std::__ndk1::collate_byname<char>::do_compare(char const*, char const*, char const*, char const*) const
PUBLIC m b8cfc 0 std::__ndk1::collate_byname<char>::do_transform(char const*, char const*) const
PUBLIC m b8edc 0 std::__ndk1::collate_byname<wchar_t>::collate_byname(char const*, unsigned long)
PUBLIC m b8fd0 0 std::__ndk1::collate_byname<wchar_t>::collate_byname(std::__ndk1::basic_string<char, std::__ndk1::char_traits<char>, std::__ndk1::allocator<char> > const&, unsigned long)
PUBLIC m b9084 0 std::__ndk1::collate_byname<wchar_t>::~collate_byname()
PUBLIC m b90c8 0 std::__ndk1::collate_byname<wchar_t>::~collate_byname()
PUBLIC m b90f4 0 std::__ndk1::collate_byname<wchar_t>::do_compare(wchar_t const*, wchar_t const*, wchar_t const*, wchar_t const*) const
PUBLIC m b92dc 0 std::__ndk1::collate_byname<wchar_t>::do_transform(wchar_t const*, wchar_t const*) const
PUBLIC m b94e8 0 std::__ndk1::ctype<wchar_t>::~ctype()
PUBLIC m b9514 0 std::__ndk1::ctype<wchar_t>::do_is(unsigned long, wchar_t) const
PUBLIC m b9540 0 std::__ndk1::ctype<char>::classic_table()
PUBLIC m b9550 0 std::__ndk1::ctype<wchar_t>::do_is(wchar_t const*, wchar_t const*, unsigned long*) const
PUBLIC m b95a8 0 std::__ndk1::ctype<wchar_t>::do_scan_is(unsigned long, wchar_t const*, wchar_t const*) const
PUBLIC m b95f4 0 std::__ndk1::ctype<wchar_t>::do_scan_not(unsigned long, wchar_t const*, wchar_t const*) const
PUBLIC m b9638 0 std::__ndk1::ctype<wchar_t>::do_toupper(wchar_t) const
PUBLIC m b96e8 0 std::__ndk1::ctype<wchar_t>::do_toupper(wchar_t*, wchar_t const*) const
PUBLIC m b97dc 0 std::__ndk1::ctype<wchar_t>::do_tolower(wchar_t) const
PUBLIC m b988c 0 std::__ndk1::ctype<wchar_t>::do_tolower(wchar_t*, wchar_t const*) const
PUBLIC m b9980 0 std::__ndk1::ctype<wchar_t>::do_widen(char) const
PUBLIC m b998c 0 std::__ndk1::ctype<wchar_t>::do_widen(char const*, char const*, wchar_t*) const
PUBLIC m b9ab0 0 std::__ndk1::ctype<wchar_t>::do_narrow(wchar_t, char) const
PUBLIC m b9ac0 0 std::__ndk1::ctype<wchar_t>::do_narrow(wchar_t const*, wchar_t const*, char, char*) const
PUBLIC m b9c4c 0 std::__ndk1::ctype<char>::ctype(unsigned long const*, bool, unsigned long)
PUBLIC m b9c84 0 std::__ndk1::ctype<char>::~ctype()
PUBLIC m b9cd0 0 std::__ndk1::ctype<char>::~ctype()
PUBLIC m b9cfc 0 std::__ndk1::ctype<char>::do_toupper(char) const
PUBLIC m b9da8 0 std::__ndk1::ctype<char>::do_toupper(char*, char const*) const
PUBLIC m b9e98 0 std::__ndk1::ctype<char>::do_tolower(char) const
PUBLIC m b9f44 0 std::__ndk1::ctype<char>::do_tolower(char*, char const*) const
PUBLIC m ba034 0 std::__ndk1::ctype<char>::do_widen(char) const
PUBLIC m ba040 0 std::__ndk1::ctype<char>::do_widen(char const*, char const*, char*) const
PUBLIC m ba114 0 std::__ndk1::ctype<char>::do_narrow(char, char) const
PUBLIC m ba128 0 std::__ndk1::ctype<char>::do_narrow(char const*, char const*, char, char*) const
PUBLIC m ba220 0 std::__ndk1::ctype_byname<char>::ctype_byname(char const*, unsigned long)
PUBLIC m ba324 0 std::__ndk1::ctype_byname<char>::ctype_byname(std::__ndk1::basic_string<char, std::__ndk1::char_traits<char>, std::__ndk1::allocator<char> > const&, unsigned long)
PUBLIC m ba3e8 0 std::__ndk1::ctype_byname<char>::~ctype_byname()
PUBLIC m ba414 0 std::__ndk1::ctype_byname<char>::do_toupper(char) const
PUBLIC m ba43c 0 std::__ndk1::ctype_byname<char>::do_toupper(char*, char const*) const
PUBLIC m ba498 0 std::__ndk1::ctype_byname<char>::do_tolower(char) const
PUBLIC m ba4c0 0 std::__ndk1::ctype_byname<char>::do_tolower(char*, char const*) const
PUBLIC m ba51c 0 std::__ndk1::ctype_byname<wchar_t>::ctype_byname(char const*, unsigned long)
PUBLIC m ba610 0 std::__ndk1::ctype_byname<wchar_t>::ctype_byname(std::__ndk1::basic_string<char, std::__ndk1::char_traits<char>, std::__ndk1::allocator<char> > const&, unsigned long)
PUBLIC m ba6c4 0 std::__ndk1::ctype_byname<wchar_t>::~ctype_byname()
PUBLIC m ba6f0 0 std::__ndk1::ctype_byname<wchar_t>::do_is(unsigned long, wchar_t) const
PUBLIC m ba858 0 std::__ndk1::ctype_byname<wchar_t>::do_is(wchar_t const*, wchar_t const*, unsigned long*) const
PUBLIC m ba9f4 0 std::__ndk1::ctype_byname<wchar_t>::do_scan_is(unsigned long, wchar_t const*, wchar_t const*) const
PUBLIC m bab24 0 std::__ndk1::ctype_byname<wchar_t>::do_scan_not(unsigned long, wchar_t const*, wchar_t const*) const
PUBLIC m bac54 0 std::__ndk1::ctype_byname<wchar_t>::do_toupper(wchar_t) const
PUBLIC m bac68 0 std::__ndk1::ctype_byname<wchar_t>::do_toupper(wchar_t*, wchar_t const*) const
PUBLIC m bacc4 0 std::__ndk1::ctype_byname<wchar_t>::do_tolower(wchar_t) const
PUBLIC m bacd8 0 std::__ndk1::ctype_byname<wchar_t>::do_tolower(wchar_t*, wchar_t const*) const
PUBLIC m bad34 0 std::__ndk1::ctype_byname<wchar_t>::do_widen(char) const
PUBLIC m bada0 0 std::__ndk1::ctype_byname<wchar_t>::do_widen(char const*, char const*, wchar_t*) const
PUBLIC m bae50 0 std::__ndk1::ctype_byname<wchar_t>::do_narrow(wchar_t, char) const
PUBLIC m baecc 0 std::__ndk1::ctype_byname<wchar_t>::do_narrow(wchar_t const*, wchar_t const*, char, char*) const
PUBLIC m baf90 0 std::__ndk1::codecvt<char, char, mbstate_t>::~codecvt()
PUBLIC m bafbc 0 std::__ndk1::codecvt<char, char, mbstate_t>::do_out(mbstate_t&, char const*, char const*, char const*&, char*, char*, char*&) const
PUBLIC m bafd0 0 std::__ndk1::codecvt<char, char, mbstate_t>::do_in(mbstate_t&, char const*, char const*, char const*&, char*, char*, char*&) const
PUBLIC m bafe4 0 std::__ndk1::codecvt<char, char, mbstate_t>::do_unshift(mbstate_t&, char*, char*, char*&) const
PUBLIC m baff4 0 std::__ndk1::codecvt<char, char, mbstate_t>::do_encoding() const
PUBLIC m bb000 0 std::__ndk1::codecvt<char, char, mbstate_t>::do_always_noconv() const
PUBLIC m bb00c 0 std::__ndk1::codecvt<char, char, mbstate_t>::do_length(mbstate_t&, char const*, char const*, unsigned long) const
PUBLIC m bb020 0 std::__ndk1::codecvt<char, char, mbstate_t>::do_max_length() const
PUBLIC m bb02c 0 std::__ndk1::codecvt<wchar_t, char, mbstate_t>::codecvt(unsigned long)
PUBLIC m bb0dc 0 std::__ndk1::codecvt<wchar_t, char, mbstate_t>::codecvt(char const*, unsigned long)
PUBLIC m bb1d0 0 std::__ndk1::codecvt<wchar_t, char, mbstate_t>::~codecvt()
PUBLIC m bb1fc 0 std::__ndk1::codecvt<wchar_t, char, mbstate_t>::do_out(mbstate_t&, wchar_t const*, wchar_t const*, wchar_t const*&, char*, char*, char*&) const
PUBLIC m bb4f0 0 std::__ndk1::codecvt<wchar_t, char, mbstate_t>::do_in(mbstate_t&, char const*, char const*, char const*&, wchar_t*, wchar_t*, wchar_t*&) const
PUBLIC m bb7bc 0 std::__ndk1::codecvt<wchar_t, char, mbstate_t>::do_unshift(mbstate_t&, char*, char*, char*&) const
PUBLIC m bb8c8 0 std::__ndk1::codecvt<wchar_t, char, mbstate_t>::do_encoding() const
PUBLIC m bb9ac 0 std::__ndk1::codecvt<wchar_t, char, mbstate_t>::do_always_noconv() const
PUBLIC m bb9b8 0 std::__ndk1::codecvt<wchar_t, char, mbstate_t>::do_length(mbstate_t&, char const*, char const*, unsigned long) const
PUBLIC m bbac0 0 std::__ndk1::codecvt<wchar_t, char, mbstate_t>::do_max_length() const
PUBLIC m bbb4c 0 std::__ndk1::codecvt<char16_t, char, mbstate_t>::~codecvt()
PUBLIC m bbb78 0 std::__ndk1::codecvt<char16_t, char, mbstate_t>::do_out(mbstate_t&, char16_t const*, char16_t const*, char16_t const*&, char*, char*, char*&) const
PUBLIC bbbe0 0 std::__ndk1::utf16_to_utf8(unsigned short const*, unsigned short const*, unsigned short const*&, unsigned char*, unsigned char*, unsigned char*&, unsigned long, std::__ndk1::codecvt_mode)
PUBLIC m bbe00 0 std::__ndk1::codecvt<char16_t, char, mbstate_t>::do_in(mbstate_t&, char const*, char const*, char const*&, char16_t*, char16_t*, char16_t*&) const
PUBLIC bbe68 0 std::__ndk1::utf8_to_utf16(unsigned char const*, unsigned char const*, unsigned char const*&, unsigned short*, unsigned short*, unsigned short*&, unsigned long, std::__ndk1::codecvt_mode)
PUBLIC m bc0cc 0 std::__ndk1::codecvt<char16_t, char, mbstate_t>::do_unshift(mbstate_t&, char*, char*, char*&) const
PUBLIC m bc0dc 0 std::__ndk1::codecvt<char16_t, char, mbstate_t>::do_encoding() const
PUBLIC m bc0e8 0 std::__ndk1::codecvt<char16_t, char, mbstate_t>::do_always_noconv() const
PUBLIC m bc0f4 0 std::__ndk1::codecvt<char16_t, char, mbstate_t>::do_length(mbstate_t&, char const*, char const*, unsigned long) const
PUBLIC bc110 0 std::__ndk1::utf8_to_utf16_length(unsigned char const*, unsigned char const*, unsigned long, unsigned long, std::__ndk1::codecvt_mode)
PUBLIC m bc31c 0 std::__ndk1::codecvt<char16_t, char, mbstate_t>::do_max_length() const
PUBLIC m bc328 0 std::__ndk1::codecvt<char16_t, char8_t, mbstate_t>::~codecvt()
PUBLIC m bc354 0 std::__ndk1::codecvt<char16_t, char8_t, mbstate_t>::do_out(mbstate_t&, char16_t const*, char16_t const*, char16_t const*&, char8_t*, char8_t*, char8_t*&) const
PUBLIC m bc3bc 0 std::__ndk1::codecvt<char16_t, char8_t, mbstate_t>::do_in(mbstate_t&, char8_t const*, char8_t const*, char8_t const*&, char16_t*, char16_t*, char16_t*&) const
PUBLIC m bc424 0 std::__ndk1::codecvt<char16_t, char8_t, mbstate_t>::do_unshift(mbstate_t&, char8_t*, char8_t*, char8_t*&) const
PUBLIC m bc434 0 std::__ndk1::codecvt<char16_t, char8_t, mbstate_t>::do_encoding() const
PUBLIC m bc440 0 std::__ndk1::codecvt<char16_t, char8_t, mbstate_t>::do_always_noconv() const
PUBLIC m bc44c 0 std::__ndk1::codecvt<char16_t, char8_t, mbstate_t>::do_length(mbstate_t&, char8_t const*, char8_t const*, unsigned long) const
PUBLIC m bc468 0 std::__ndk1::codecvt<char16_t, char8_t, mbstate_t>::do_max_length() const
PUBLIC m bc474 0 std::__ndk1::codecvt<char32_t, char, mbstate_t>::~codecvt()
PUBLIC m bc4a0 0 std::__ndk1::codecvt<char32_t, char, mbstate_t>::do_out(mbstate_t&, char32_t const*, char32_t const*, char32_t const*&, char*, char*, char*&) const
PUBLIC bc5e4 0 std::__ndk1::ucs4_to_utf8(unsigned int const*, unsigned int const*, unsigned int const*&, unsigned char*, unsigned char*, unsigned char*&, unsigned long, std::__ndk1::codecvt_mode)
PUBLIC m bc778 0 std::__ndk1::codecvt<char32_t, char, mbstate_t>::do_in(mbstate_t&, char const*, char const*, char const*&, char32_t*, char32_t*, char32_t*&) const
PUBLIC bc7e0 0 std::__ndk1::utf8_to_ucs4(unsigned char const*, unsigned char const*, unsigned char const*&, unsigned int*, unsigned int*, unsigned int*&, unsigned long, std::__ndk1::codecvt_mode)
PUBLIC m bc9fc 0 std::__ndk1::codecvt<char32_t, char, mbstate_t>::do_unshift(mbstate_t&, char*, char*, char*&) const
PUBLIC m bca0c 0 std::__ndk1::codecvt<char32_t, char, mbstate_t>::do_encoding() const
PUBLIC m bca18 0 std::__ndk1::codecvt<char32_t, char, mbstate_t>::do_always_noconv() const
PUBLIC m bca24 0 std::__ndk1::codecvt<char32_t, char, mbstate_t>::do_length(mbstate_t&, char const*, char const*, unsigned long) const
PUBLIC bca40 0 std::__ndk1::utf8_to_ucs4_length(unsigned char const*, unsigned char const*, unsigned long, unsigned long, std::__ndk1::codecvt_mode)
PUBLIC m bcc50 0 std::__ndk1::codecvt<char32_t, char, mbstate_t>::do_max_length() const
PUBLIC m bcc5c 0 std::__ndk1::codecvt<char32_t, char8_t, mbstate_t>::~codecvt()
PUBLIC m bcc88 0 std::__ndk1::codecvt<char32_t, char8_t, mbstate_t>::do_out(mbstate_t&, char32_t const*, char32_t const*, char32_t const*&, char8_t*, char8_t*, char8_t*&) const
PUBLIC m bcdcc 0 std::__ndk1::codecvt<char32_t, char8_t, mbstate_t>::do_in(mbstate_t&, char8_t const*, char8_t const*, char8_t const*&, char32_t*, char32_t*, char32_t*&) const
PUBLIC m bce34 0 std::__ndk1::codecvt<char32_t, char8_t, mbstate_t>::do_unshift(mbstate_t&, char8_t*, char8_t*, char8_t*&) const
PUBLIC m bce44 0 std::__ndk1::codecvt<char32_t, char8_t, mbstate_t>::do_encoding() const
PUBLIC m bce50 0 std::__ndk1::codecvt<char32_t, char8_t, mbstate_t>::do_always_noconv() const
PUBLIC m bce5c 0 std::__ndk1::codecvt<char32_t, char8_t, mbstate_t>::do_length(mbstate_t&, char8_t const*, char8_t const*, unsigned long) const
PUBLIC m bce78 0 std::__ndk1::codecvt<char32_t, char8_t, mbstate_t>::do_max_length() const
PUBLIC m bce84 0 std::__ndk1::__codecvt_utf8<wchar_t>::do_out(mbstate_t&, wchar_t const*, wchar_t const*, wchar_t const*&, char*, char*, char*&) const
PUBLIC m bcef4 0 std::__ndk1::__codecvt_utf8<wchar_t>::do_in(mbstate_t&, char const*, char const*, char const*&, wchar_t*, wchar_t*, wchar_t*&) const
PUBLIC m bcf64 0 std::__ndk1::__codecvt_utf8<wchar_t>::do_unshift(mbstate_t&, char*, char*, char*&) const
PUBLIC m bcf74 0 std::__ndk1::__codecvt_utf8<wchar_t>::do_encoding() const
PUBLIC m bcf80 0 std::__ndk1::__codecvt_utf8<wchar_t>::do_always_noconv() const
PUBLIC m bcf8c 0 std::__ndk1::__codecvt_utf8<wchar_t>::do_length(mbstate_t&, char const*, char const*, unsigned long) const
PUBLIC m bcfac 0 std::__ndk1::__codecvt_utf8<wchar_t>::do_max_length() const
PUBLIC m bcfc8 0 std::__ndk1::__codecvt_utf8<char16_t>::do_out(mbstate_t&, char16_t const*, char16_t const*, char16_t const*&, char*, char*, char*&) const
PUBLIC m bd0ec 0 std::__ndk1::__codecvt_utf8<char16_t>::do_in(mbstate_t&, char const*, char const*, char const*&, char16_t*, char16_t*, char16_t*&) const
PUBLIC m bd2c8 0 std::__ndk1::__codecvt_utf8<char16_t>::do_unshift(mbstate_t&, char*, char*, char*&) const
PUBLIC m bd2d8 0 std::__ndk1::__codecvt_utf8<char16_t>::do_encoding() const
PUBLIC m bd2e4 0 std::__ndk1::__codecvt_utf8<char16_t>::do_always_noconv() const
PUBLIC m bd2f0 0 std::__ndk1::__codecvt_utf8<char16_t>::do_length(mbstate_t&, char const*, char const*, unsigned long) const
PUBLIC m bd46c 0 std::__ndk1::__codecvt_utf8<char16_t>::do_max_length() const
PUBLIC m bd488 0 std::__ndk1::__codecvt_utf8<char32_t>::do_out(mbstate_t&, char32_t const*, char32_t const*, char32_t const*&, char*, char*, char*&) const
PUBLIC m bd4f8 0 std::__ndk1::__codecvt_utf8<char32_t>::do_in(mbstate_t&, char const*, char const*, char const*&, char32_t*, char32_t*, char32_t*&) const
PUBLIC m bd568 0 std::__ndk1::__codecvt_utf8<char32_t>::do_unshift(mbstate_t&, char*, char*, char*&) const
PUBLIC m bd578 0 std::__ndk1::__codecvt_utf8<char32_t>::do_encoding() const
PUBLIC m bd584 0 std::__ndk1::__codecvt_utf8<char32_t>::do_always_noconv() const
PUBLIC m bd590 0 std::__ndk1::__codecvt_utf8<char32_t>::do_length(mbstate_t&, char const*, char const*, unsigned long) const
PUBLIC m bd5b0 0 std::__ndk1::__codecvt_utf8<char32_t>::do_max_length() const
PUBLIC m bd5cc 0 std::__ndk1::__codecvt_utf16<wchar_t, false>::do_out(mbstate_t&, wchar_t const*, wchar_t const*, wchar_t const*&, char*, char*, char*&) const
PUBLIC m bd6c0 0 std::__ndk1::__codecvt_utf16<wchar_t, false>::do_in(mbstate_t&, char const*, char const*, char const*&, wchar_t*, wchar_t*, wchar_t*&) const
PUBLIC m bd7cc 0 std::__ndk1::__codecvt_utf16<wchar_t, false>::do_unshift(mbstate_t&, char*, char*, char*&) const
PUBLIC m bd7dc 0 std::__ndk1::__codecvt_utf16<wchar_t, false>::do_encoding() const
PUBLIC m bd7e8 0 std::__ndk1::__codecvt_utf16<wchar_t, false>::do_always_noconv() const
PUBLIC m bd7f4 0 std::__ndk1::__codecvt_utf16<wchar_t, false>::do_length(mbstate_t&, char const*, char const*, unsigned long) const
PUBLIC m bd8e8 0 std::__ndk1::__codecvt_utf16<wchar_t, false>::do_max_length() const
PUBLIC m bd904 0 std::__ndk1::__codecvt_utf16<wchar_t, true>::do_out(mbstate_t&, wchar_t const*, wchar_t const*, wchar_t const*&, char*, char*, char*&) const
PUBLIC m bd9e8 0 std::__ndk1::__codecvt_utf16<wchar_t, true>::do_in(mbstate_t&, char const*, char const*, char const*&, wchar_t*, wchar_t*, wchar_t*&) const
PUBLIC m bdb00 0 std::__ndk1::__codecvt_utf16<wchar_t, true>::do_unshift(mbstate_t&, char*, char*, char*&) const
PUBLIC m bdb10 0 std::__ndk1::__codecvt_utf16<wchar_t, true>::do_encoding() const
PUBLIC m bdb1c 0 std::__ndk1::__codecvt_utf16<wchar_t, true>::do_always_noconv() const
PUBLIC m bdb28 0 std::__ndk1::__codecvt_utf16<wchar_t, true>::do_length(mbstate_t&, char const*, char const*, unsigned long) const
PUBLIC m bdc1c 0 std::__ndk1::__codecvt_utf16<wchar_t, true>::do_max_length() const
PUBLIC m bdc38 0 std::__ndk1::__codecvt_utf16<char16_t, false>::do_out(mbstate_t&, char16_t const*, char16_t const*, char16_t const*&, char*, char*, char*&) const
PUBLIC m bdce8 0 std::__ndk1::__codecvt_utf16<char16_t, false>::do_in(mbstate_t&, char const*, char const*, char const*&, char16_t*, char16_t*, char16_t*&) const
PUBLIC m bdd7c 0 std::__ndk1::__codecvt_utf16<char16_t, false>::do_unshift(mbstate_t&, char*, char*, char*&) const
PUBLIC m bdd8c 0 std::__ndk1::__codecvt_utf16<char16_t, false>::do_encoding() const
PUBLIC m bdd98 0 std::__ndk1::__codecvt_utf16<char16_t, false>::do_always_noconv() const
PUBLIC m bdda4 0 std::__ndk1::__codecvt_utf16<char16_t, false>::do_length(mbstate_t&, char const*, char const*, unsigned long) const
PUBLIC m bde40 0 std::__ndk1::__codecvt_utf16<char16_t, false>::do_max_length() const
PUBLIC m bde5c 0 std::__ndk1::__codecvt_utf16<char16_t, true>::do_out(mbstate_t&, char16_t const*, char16_t const*, char16_t const*&, char*, char*, char*&) const
PUBLIC m bdf0c 0 std::__ndk1::__codecvt_utf16<char16_t, true>::do_in(mbstate_t&, char const*, char const*, char const*&, char16_t*, char16_t*, char16_t*&) const
PUBLIC m bdfb0 0 std::__ndk1::__codecvt_utf16<char16_t, true>::do_unshift(mbstate_t&, char*, char*, char*&) const
PUBLIC m bdfc0 0 std::__ndk1::__codecvt_utf16<char16_t, true>::do_encoding() const
PUBLIC m bdfcc 0 std::__ndk1::__codecvt_utf16<char16_t, true>::do_always_noconv() const
PUBLIC m bdfd8 0 std::__ndk1::__codecvt_utf16<char16_t, true>::do_length(mbstate_t&, char const*, char const*, unsigned long) const
PUBLIC m be074 0 std::__ndk1::__codecvt_utf16<char16_t, true>::do_max_length() const
PUBLIC m be090 0 std::__ndk1::__codecvt_utf16<char32_t, false>::do_out(mbstate_t&, char32_t const*, char32_t const*, char32_t const*&, char*, char*, char*&) const
PUBLIC m be184 0 std::__ndk1::__codecvt_utf16<char32_t, false>::do_in(mbstate_t&, char const*, char const*, char const*&, char32_t*, char32_t*, char32_t*&) const
PUBLIC m be290 0 std::__ndk1::__codecvt_utf16<char32_t, false>::do_unshift(mbstate_t&, char*, char*, char*&) const
PUBLIC m be2a0 0 std::__ndk1::__codecvt_utf16<char32_t, false>::do_encoding() const
PUBLIC m be2ac 0 std::__ndk1::__codecvt_utf16<char32_t, false>::do_always_noconv() const
PUBLIC m be2b8 0 std::__ndk1::__codecvt_utf16<char32_t, false>::do_length(mbstate_t&, char const*, char const*, unsigned long) const
PUBLIC m be3ac 0 std::__ndk1::__codecvt_utf16<char32_t, false>::do_max_length() const
PUBLIC m be3c8 0 std::__ndk1::__codecvt_utf16<char32_t, true>::do_out(mbstate_t&, char32_t const*, char32_t const*, char32_t const*&, char*, char*, char*&) const
PUBLIC m be4ac 0 std::__ndk1::__codecvt_utf16<char32_t, true>::do_in(mbstate_t&, char const*, char const*, char const*&, char32_t*, char32_t*, char32_t*&) const
PUBLIC m be5c4 0 std::__ndk1::__codecvt_utf16<char32_t, true>::do_unshift(mbstate_t&, char*, char*, char*&) const
PUBLIC m be5d4 0 std::__ndk1::__codecvt_utf16<char32_t, true>::do_encoding() const
PUBLIC m be5e0 0 std::__ndk1::__codecvt_utf16<char32_t, true>::do_always_noconv() const
PUBLIC m be5ec 0 std::__ndk1::__codecvt_utf16<char32_t, true>::do_length(mbstate_t&, char const*, char const*, unsigned long) const
PUBLIC m be6e0 0 std::__ndk1::__codecvt_utf16<char32_t, true>::do_max_length() const
PUBLIC m be6fc 0 std::__ndk1::__codecvt_utf8_utf16<wchar_t>::do_out(mbstate_t&, wchar_t const*, wchar_t const*, wchar_t const*&, char*, char*, char*&) const
PUBLIC be76c 0 std::__ndk1::utf16_to_utf8(unsigned int const*, unsigned int const*, unsigned int const*&, unsigned char*, unsigned char*, unsigned char*&, unsigned long, std::__ndk1::codecvt_mode)
PUBLIC m be98c 0 std::__ndk1::__codecvt_utf8_utf16<wchar_t>::do_in(mbstate_t&, char const*, char const*, char const*&, wchar_t*, wchar_t*, wchar_t*&) const
PUBLIC be9fc 0 std::__ndk1::utf8_to_utf16(unsigned char const*, unsigned char const*, unsigned char const*&, unsigned int*, unsigned int*, unsigned int*&, unsigned long, std::__ndk1::codecvt_mode)
PUBLIC m bec5c 0 std::__ndk1::__codecvt_utf8_utf16<wchar_t>::do_unshift(mbstate_t&, char*, char*, char*&) const
PUBLIC m bec6c 0 std::__ndk1::__codecvt_utf8_utf16<wchar_t>::do_encoding() const
PUBLIC m bec78 0 std::__ndk1::__codecvt_utf8_utf16<wchar_t>::do_always_noconv() const
PUBLIC m bec84 0 std::__ndk1::__codecvt_utf8_utf16<wchar_t>::do_length(mbstate_t&, char const*, char const*, unsigned long) const
PUBLIC m beca4 0 std::__ndk1::__codecvt_utf8_utf16<wchar_t>::do_max_length() const
PUBLIC m becc0 0 std::__ndk1::__codecvt_utf8_utf16<char16_t>::do_out(mbstate_t&, char16_t const*, char16_t const*, char16_t const*&, char*, char*, char*&) const
PUBLIC m bed30 0 std::__ndk1::__codecvt_utf8_utf16<char16_t>::do_in(mbstate_t&, char const*, char const*, char const*&, char16_t*, char16_t*, char16_t*&) const
PUBLIC m beda0 0 std::__ndk1::__codecvt_utf8_utf16<char16_t>::do_unshift(mbstate_t&, char*, char*, char*&) const
PUBLIC m bedb0 0 std::__ndk1::__codecvt_utf8_utf16<char16_t>::do_encoding() const
PUBLIC m bedbc 0 std::__ndk1::__codecvt_utf8_utf16<char16_t>::do_always_noconv() const
PUBLIC m bedc8 0 std::__ndk1::__codecvt_utf8_utf16<char16_t>::do_length(mbstate_t&, char const*, char const*, unsigned long) const
PUBLIC m bede8 0 std::__ndk1::__codecvt_utf8_utf16<char16_t>::do_max_length() const
PUBLIC m bee04 0 std::__ndk1::__codecvt_utf8_utf16<char32_t>::do_out(mbstate_t&, char32_t const*, char32_t const*, char32_t const*&, char*, char*, char*&) const
PUBLIC m bee74 0 std::__ndk1::__codecvt_utf8_utf16<char32_t>::do_in(mbstate_t&, char const*, char const*, char const*&, char32_t*, char32_t*, char32_t*&) const
PUBLIC m beee4 0 std::__ndk1::__codecvt_utf8_utf16<char32_t>::do_unshift(mbstate_t&, char*, char*, char*&) const
PUBLIC m beef4 0 std::__ndk1::__codecvt_utf8_utf16<char32_t>::do_encoding() const
PUBLIC m bef00 0 std::__ndk1::__codecvt_utf8_utf16<char32_t>::do_always_noconv() const
PUBLIC m bef0c 0 std::__ndk1::__codecvt_utf8_utf16<char32_t>::do_length(mbstate_t&, char const*, char const*, unsigned long) const
PUBLIC m bef2c 0 std::__ndk1::__codecvt_utf8_utf16<char32_t>::do_max_length() const
PUBLIC m bef48 0 std::__ndk1::__narrow_to_utf8<(unsigned long)16>::~__narrow_to_utf8()
PUBLIC m bef74 0 std::__ndk1::__narrow_to_utf8<(unsigned long)32>::~__narrow_to_utf8()
PUBLIC m befa0 0 std::__ndk1::__widen_from_utf8<(unsigned long)16>::~__widen_from_utf8()
PUBLIC m befcc 0 std::__ndk1::__widen_from_utf8<(unsigned long)32>::~__widen_from_utf8()
PUBLIC m beff8 0 std::__ndk1::numpunct<char>::numpunct(unsigned long)
PUBLIC m bf024 0 std::__ndk1::numpunct<wchar_t>::numpunct(unsigned long)
PUBLIC m bf054 0 std::__ndk1::numpunct<char>::~numpunct()
PUBLIC m bf09c 0 std::__ndk1::numpunct<char>::~numpunct()
PUBLIC m bf0c8 0 std::__ndk1::numpunct<wchar_t>::~numpunct()
PUBLIC m bf110 0 std::__ndk1::numpunct<wchar_t>::~numpunct()
PUBLIC m bf13c 0 std::__ndk1::numpunct<char>::do_decimal_point() const
PUBLIC m bf148 0 std::__ndk1::numpunct<wchar_t>::do_decimal_point() const
PUBLIC m bf154 0 std::__ndk1::numpunct<char>::do_thousands_sep() const
PUBLIC m bf160 0 std::__ndk1::numpunct<wchar_t>::do_thousands_sep() const
PUBLIC m bf16c 0 std::__ndk1::numpunct<char>::do_grouping() const
PUBLIC m bf218 0 std::__ndk1::numpunct<wchar_t>::do_grouping() const
PUBLIC m bf2c4 0 std::__ndk1::numpunct<char>::do_truename() const
PUBLIC m bf2e4 0 std::__ndk1::numpunct<wchar_t>::do_truename() const
PUBLIC bf308 0 std::__ndk1::basic_string<wchar_t, std::__ndk1::char_traits<wchar_t>, std::__ndk1::allocator<wchar_t> >::basic_string[abi:v170000]<std::nullptr_t>()
PUBLIC m bf3b4 0 std::__ndk1::numpunct<char>::do_falsename() const
PUBLIC m bf3d8 0 std::__ndk1::numpunct<wchar_t>::do_falsename() const
PUBLIC m bf42c 0 std::__ndk1::numpunct_byname<char>::numpunct_byname(char const*, unsigned long)
PUBLIC m bf48c 0 std::__ndk1::numpunct_byname<char>::__init(char const*)
PUBLIC m bf628 0 std::__ndk1::numpunct_byname<char>::numpunct_byname(std::__ndk1::basic_string<char, std::__ndk1::char_traits<char>, std::__ndk1::allocator<char> > const&, unsigned long)
PUBLIC m bf698 0 std::__ndk1::numpunct_byname<char>::~numpunct_byname()
PUBLIC bf6c4 0 std::__ndk1::checked_string_to_char_convert(char&, char const*, __locale_t*)
PUBLIC bf7c0 0 std::__ndk1::__libcpp_unique_locale::~__libcpp_unique_locale()
PUBLIC m bf7e8 0 std::__ndk1::numpunct_byname<wchar_t>::numpunct_byname(char const*, unsigned long)
PUBLIC m bf84c 0 std::__ndk1::numpunct_byname<wchar_t>::__init(char const*)
PUBLIC m bf9d8 0 std::__ndk1::numpunct_byname<wchar_t>::numpunct_byname(std::__ndk1::basic_string<char, std::__ndk1::char_traits<char>, std::__ndk1::allocator<char> > const&, unsigned long)
PUBLIC m bfa4c 0 std::__ndk1::numpunct_byname<wchar_t>::~numpunct_byname()
PUBLIC bfa78 0 std::__ndk1::checked_string_to_wchar_convert(wchar_t&, char const*, __locale_t*)
PUBLIC m bfb50 0 std::__ndk1::__num_get_base::__get_base(std::__ndk1::ios_base&)
PUBLIC m bfb94 0 std::__ndk1::__num_put_base::__format_int(char*, char const*, bool, unsigned int)
PUBLIC m bfc38 0 std::__ndk1::__num_put_base::__format_float(char*, char const*, unsigned int)
PUBLIC m bfd40 0 std::__ndk1::__time_get_c_storage<char>::__weeks() const
PUBLIC bfdd0 0 std::__ndk1::init_weeks()
PUBLIC m c0294 0 std::__ndk1::__time_get_c_storage<wchar_t>::__weeks() const
PUBLIC c0324 0 std::__ndk1::init_wweeks()
PUBLIC m c09a8 0 std::__ndk1::__time_get_c_storage<char>::__months() const
PUBLIC c0a38 0 std::__ndk1::init_months()
PUBLIC m c1210 0 std::__ndk1::__time_get_c_storage<wchar_t>::__months() const
PUBLIC c12a0 0 std::__ndk1::init_wmonths()
PUBLIC m c1c7c 0 std::__ndk1::__time_get_c_storage<char>::__am_pm() const
PUBLIC c1d0c 0 std::__ndk1::init_am_pm()
PUBLIC m c1e14 0 std::__ndk1::__time_get_c_storage<wchar_t>::__am_pm() const
PUBLIC c1ea4 0 std::__ndk1::init_wam_pm()
PUBLIC m c1f9c 0 std::__ndk1::__time_get_c_storage<char>::__x() const
PUBLIC m c204c 0 std::__ndk1::__time_get_c_storage<wchar_t>::__x() const
PUBLIC m c20fc 0 std::__ndk1::__time_get_c_storage<char>::__X() const
PUBLIC m c21ac 0 std::__ndk1::__time_get_c_storage<wchar_t>::__X() const
PUBLIC m c225c 0 std::__ndk1::__time_get_c_storage<char>::__c() const
PUBLIC m c230c 0 std::__ndk1::__time_get_c_storage<wchar_t>::__c() const
PUBLIC m c23bc 0 std::__ndk1::__time_get_c_storage<char>::__r() const
PUBLIC m c246c 0 std::__ndk1::__time_get_c_storage<wchar_t>::__r() const
PUBLIC m c251c 0 std::__ndk1::__time_get::__time_get(char const*)
PUBLIC m c25d4 0 std::__ndk1::__time_get::__time_get(std::__ndk1::basic_string<char, std::__ndk1::char_traits<char>, std::__ndk1::allocator<char> > const&)
PUBLIC m c2660 0 std::__ndk1::__time_get::~__time_get()
PUBLIC m c2684 0 std::__ndk1::__time_get_storage<char>::__analyze(char, std::__ndk1::ctype<char> const&)
PUBLIC c2c84 0 std::__ndk1::__scan_keyword[abi:v170000]<char*, std::__ndk1::basic_string<char, std::__ndk1::char_traits<char>, std::__ndk1::allocator<char> >*, std::__ndk1::ctype<char> >(char*&, std::__ndk1::basic_string<char, std::__ndk1::char_traits<char>, std::__ndk1::allocator<char> >*, std::__ndk1::ctype<char>, std::__ndk1::ctype<char>, std::__ndk1::ctype<char> const&, unsigned int&, bool)
PUBLIC m c2fd4 0 std::__ndk1::__time_get_storage<wchar_t>::__analyze(char, std::__ndk1::ctype<wchar_t> const&)
PUBLIC c36e4 0 std::__ndk1::__scan_keyword[abi:v170000]<wchar_t*, std::__ndk1::basic_string<wchar_t, std::__ndk1::char_traits<wchar_t>, std::__ndk1::allocator<wchar_t> >*, std::__ndk1::ctype<wchar_t> >(wchar_t*&, std::__ndk1::basic_string<wchar_t, std::__ndk1::char_traits<wchar_t>, std::__ndk1::allocator<wchar_t> >*, std::__ndk1::ctype<wchar_t>, std::__ndk1::ctype<wchar_t>, std::__ndk1::ctype<wchar_t> const&, unsigned int&, bool)
PUBLIC m c3a34 0 std::__ndk1::__time_get_storage<char>::init(std::__ndk1::ctype<char> const&)
PUBLIC m c3f4c 0 std::__ndk1::__time_get_storage<wchar_t>::init(std::__ndk1::ctype<wchar_t> const&)
PUBLIC c43ec 0 std::__ndk1::basic_string<wchar_t, std::__ndk1::char_traits<wchar_t>, std::__ndk1::allocator<wchar_t> >::assign<wchar_t*>(wchar_t*, wchar_t*)
PUBLIC m c4750 0 std::__ndk1::__time_get_storage<char>::__time_get_storage(char const*)
PUBLIC m c4c50 0 std::__ndk1::ctype_byname<char>::~ctype_byname()
PUBLIC m c4cb8 0 std::__ndk1::__time_get_storage<char>::__time_get_storage(std::__ndk1::basic_string<char, std::__ndk1::char_traits<char>, std::__ndk1::allocator<char> > const&)
PUBLIC m c5208 0 std::__ndk1::__time_get_storage<wchar_t>::__time_get_storage(char const*)
PUBLIC m c56e4 0 std::__ndk1::ctype_byname<wchar_t>::~ctype_byname()
PUBLIC m c5728 0 std::__ndk1::__time_get_storage<wchar_t>::__time_get_storage(std::__ndk1::basic_string<char, std::__ndk1::char_traits<char>, std::__ndk1::allocator<char> > const&)
PUBLIC c5c44 0 std::__ndk1::__time_get_temp<wchar_t>::__time_get_temp(std::__ndk1::basic_string<char, std::__ndk1::char_traits<char>, std::__ndk1::allocator<char> > const&)
PUBLIC m c5dc4 0 std::__ndk1::__time_get_storage<char>::__do_date_order() const
PUBLIC m c603c 0 std::__ndk1::__time_get_storage<wchar_t>::__do_date_order() const
PUBLIC m c62ac 0 std::__ndk1::__time_put::__time_put(char const*)
PUBLIC m c6364 0 std::__ndk1::__time_put::__time_put(std::__ndk1::basic_string<char, std::__ndk1::char_traits<char>, std::__ndk1::allocator<char> > const&)
PUBLIC m c63f0 0 std::__ndk1::__time_put::~__time_put()
PUBLIC m c6498 0 std::__ndk1::moneypunct_byname<char, false>::init(char const*)
PUBLIC c67e4 0 std::__ndk1::__init_pat<char>(std::__ndk1::money_base::pattern&, std::__ndk1::basic_string<char, std::__ndk1::char_traits<char>, std::__ndk1::allocator<char> >&, bool, char, char, char, char)
PUBLIC m c6cfc 0 std::__ndk1::moneypunct_byname<char, true>::init(char const*)
PUBLIC m c7048 0 std::__ndk1::moneypunct_byname<wchar_t, false>::init(char const*)
PUBLIC c74b8 0 std::__ndk1::__init_pat<wchar_t>(std::__ndk1::money_base::pattern&, std::__ndk1::basic_string<wchar_t, std::__ndk1::char_traits<wchar_t>, std::__ndk1::allocator<wchar_t> >&, bool, char, char, char, wchar_t)
PUBLIC m c79d0 0 std::__ndk1::moneypunct_byname<wchar_t, true>::init(char const*)
PUBLIC c7e40 0 std::__ndk1::__codecvt_utf8<wchar_t>::~__codecvt_utf8()
PUBLIC c7e6c 0 std::__ndk1::__codecvt_utf8<char16_t>::~__codecvt_utf8()
PUBLIC c7e98 0 std::__ndk1::__codecvt_utf8<char32_t>::~__codecvt_utf8()
PUBLIC c7ec4 0 std::__ndk1::__codecvt_utf16<wchar_t, false>::~__codecvt_utf16()
PUBLIC m c7ef0 0 std::__ndk1::codecvt<wchar_t, char, mbstate_t>::~codecvt()
PUBLIC c7fac 0 std::__ndk1::__codecvt_utf16<wchar_t, true>::~__codecvt_utf16()
PUBLIC c7fd8 0 std::__ndk1::__codecvt_utf16<char16_t, false>::~__codecvt_utf16()
PUBLIC c8004 0 std::__ndk1::__codecvt_utf16<char16_t, true>::~__codecvt_utf16()
PUBLIC c8030 0 std::__ndk1::__codecvt_utf16<char32_t, false>::~__codecvt_utf16()
PUBLIC c805c 0 std::__ndk1::__codecvt_utf16<char32_t, true>::~__codecvt_utf16()
PUBLIC c8088 0 std::__ndk1::__codecvt_utf8_utf16<wchar_t>::~__codecvt_utf8_utf16()
PUBLIC c80b4 0 std::__ndk1::__codecvt_utf8_utf16<char32_t>::~__codecvt_utf8_utf16()
PUBLIC c80e0 0 std::__ndk1::__codecvt_utf8_utf16<char16_t>::~__codecvt_utf8_utf16()
PUBLIC c810c 0 std::__ndk1::num_get<char, std::__ndk1::istreambuf_iterator<char, std::__ndk1::char_traits<char> > >::~num_get()
PUBLIC c8138 0 std::__ndk1::num_get<wchar_t, std::__ndk1::istreambuf_iterator<wchar_t, std::__ndk1::char_traits<wchar_t> > >::~num_get()
PUBLIC c8164 0 std::__ndk1::num_put<char, std::__ndk1::ostreambuf_iterator<char, std::__ndk1::char_traits<char> > >::~num_put()
PUBLIC c8190 0 std::__ndk1::num_put<wchar_t, std::__ndk1::ostreambuf_iterator<wchar_t, std::__ndk1::char_traits<wchar_t> > >::~num_put()
PUBLIC c81bc 0 std::__ndk1::time_get<char, std::__ndk1::istreambuf_iterator<char, std::__ndk1::char_traits<char> > >::~time_get()
PUBLIC c81c4 0 std::__ndk1::time_get<char, std::__ndk1::istreambuf_iterator<char, std::__ndk1::char_traits<char> > >::~time_get()
PUBLIC c81f0 0 std::__ndk1::time_get<wchar_t, std::__ndk1::istreambuf_iterator<wchar_t, std::__ndk1::char_traits<wchar_t> > >::~time_get()
PUBLIC c81f8 0 std::__ndk1::time_get<wchar_t, std::__ndk1::istreambuf_iterator<wchar_t, std::__ndk1::char_traits<wchar_t> > >::~time_get()
PUBLIC c8224 0 std::__ndk1::time_get_byname<char, std::__ndk1::istreambuf_iterator<char, std::__ndk1::char_traits<char> > >::~time_get_byname()
PUBLIC c8254 0 std::__ndk1::time_get_byname<char, std::__ndk1::istreambuf_iterator<char, std::__ndk1::char_traits<char> > >::~time_get_byname()
PUBLIC c828c 0 std::__ndk1::time_get_byname<char, std::__ndk1::istreambuf_iterator<char, std::__ndk1::char_traits<char> > >::do_date_order() const
PUBLIC c8298 0 std::__ndk1::time_get_byname<char, std::__ndk1::istreambuf_iterator<char, std::__ndk1::char_traits<char> > >::__weeks() const
PUBLIC c82a4 0 std::__ndk1::time_get_byname<char, std::__ndk1::istreambuf_iterator<char, std::__ndk1::char_traits<char> > >::__months() const
PUBLIC c82b0 0 std::__ndk1::time_get_byname<char, std::__ndk1::istreambuf_iterator<char, std::__ndk1::char_traits<char> > >::__am_pm() const
PUBLIC c82bc 0 std::__ndk1::time_get_byname<char, std::__ndk1::istreambuf_iterator<char, std::__ndk1::char_traits<char> > >::__c() const
PUBLIC c82c8 0 std::__ndk1::time_get_byname<char, std::__ndk1::istreambuf_iterator<char, std::__ndk1::char_traits<char> > >::__r() const
PUBLIC c82d4 0 std::__ndk1::time_get_byname<char, std::__ndk1::istreambuf_iterator<char, std::__ndk1::char_traits<char> > >::__x() const
PUBLIC c82e0 0 std::__ndk1::time_get_byname<char, std::__ndk1::istreambuf_iterator<char, std::__ndk1::char_traits<char> > >::__X() const
PUBLIC c82ec 0 {virtual override thunk({offset(-16)}, std::__ndk1::time_get_byname<char, std::__ndk1::istreambuf_iterator<char, std::__ndk1::char_traits<char> > >::__weeks() const)}
PUBLIC c82f8 0 {virtual override thunk({offset(-16)}, std::__ndk1::time_get_byname<char, std::__ndk1::istreambuf_iterator<char, std::__ndk1::char_traits<char> > >::__months() const)}
PUBLIC c8304 0 {virtual override thunk({offset(-16)}, std::__ndk1::time_get_byname<char, std::__ndk1::istreambuf_iterator<char, std::__ndk1::char_traits<char> > >::__am_pm() const)}
PUBLIC c8310 0 {virtual override thunk({offset(-16)}, std::__ndk1::time_get_byname<char, std::__ndk1::istreambuf_iterator<char, std::__ndk1::char_traits<char> > >::__c() const)}
PUBLIC c831c 0 {virtual override thunk({offset(-16)}, std::__ndk1::time_get_byname<char, std::__ndk1::istreambuf_iterator<char, std::__ndk1::char_traits<char> > >::__r() const)}
PUBLIC c8328 0 {virtual override thunk({offset(-16)}, std::__ndk1::time_get_byname<char, std::__ndk1::istreambuf_iterator<char, std::__ndk1::char_traits<char> > >::__x() const)}
PUBLIC c8334 0 {virtual override thunk({offset(-16)}, std::__ndk1::time_get_byname<char, std::__ndk1::istreambuf_iterator<char, std::__ndk1::char_traits<char> > >::__X() const)}
PUBLIC c8340 0 std::__ndk1::time_get_byname<wchar_t, std::__ndk1::istreambuf_iterator<wchar_t, std::__ndk1::char_traits<wchar_t> > >::~time_get_byname()
PUBLIC c8370 0 std::__ndk1::time_get_byname<wchar_t, std::__ndk1::istreambuf_iterator<wchar_t, std::__ndk1::char_traits<wchar_t> > >::~time_get_byname()
PUBLIC c83a8 0 std::__ndk1::time_get_byname<wchar_t, std::__ndk1::istreambuf_iterator<wchar_t, std::__ndk1::char_traits<wchar_t> > >::do_date_order() const
PUBLIC c83b4 0 std::__ndk1::time_get_byname<wchar_t, std::__ndk1::istreambuf_iterator<wchar_t, std::__ndk1::char_traits<wchar_t> > >::__weeks() const
PUBLIC c83c0 0 std::__ndk1::time_get_byname<wchar_t, std::__ndk1::istreambuf_iterator<wchar_t, std::__ndk1::char_traits<wchar_t> > >::__months() const
PUBLIC c83cc 0 std::__ndk1::time_get_byname<wchar_t, std::__ndk1::istreambuf_iterator<wchar_t, std::__ndk1::char_traits<wchar_t> > >::__am_pm() const
PUBLIC c83d8 0 std::__ndk1::time_get_byname<wchar_t, std::__ndk1::istreambuf_iterator<wchar_t, std::__ndk1::char_traits<wchar_t> > >::__c() const
PUBLIC c83e4 0 std::__ndk1::time_get_byname<wchar_t, std::__ndk1::istreambuf_iterator<wchar_t, std::__ndk1::char_traits<wchar_t> > >::__r() const
PUBLIC c83f0 0 std::__ndk1::time_get_byname<wchar_t, std::__ndk1::istreambuf_iterator<wchar_t, std::__ndk1::char_traits<wchar_t> > >::__x() const
PUBLIC c83fc 0 std::__ndk1::time_get_byname<wchar_t, std::__ndk1::istreambuf_iterator<wchar_t, std::__ndk1::char_traits<wchar_t> > >::__X() const
PUBLIC c8408 0 {virtual override thunk({offset(-16)}, std::__ndk1::time_get_byname<wchar_t, std::__ndk1::istreambuf_iterator<wchar_t, std::__ndk1::char_traits<wchar_t> > >::__weeks() const)}
PUBLIC c8414 0 {virtual override thunk({offset(-16)}, std::__ndk1::time_get_byname<wchar_t, std::__ndk1::istreambuf_iterator<wchar_t, std::__ndk1::char_traits<wchar_t> > >::__months() const)}
PUBLIC c8420 0 {virtual override thunk({offset(-16)}, std::__ndk1::time_get_byname<wchar_t, std::__ndk1::istreambuf_iterator<wchar_t, std::__ndk1::char_traits<wchar_t> > >::__am_pm() const)}
PUBLIC c842c 0 {virtual override thunk({offset(-16)}, std::__ndk1::time_get_byname<wchar_t, std::__ndk1::istreambuf_iterator<wchar_t, std::__ndk1::char_traits<wchar_t> > >::__c() const)}
PUBLIC c8438 0 {virtual override thunk({offset(-16)}, std::__ndk1::time_get_byname<wchar_t, std::__ndk1::istreambuf_iterator<wchar_t, std::__ndk1::char_traits<wchar_t> > >::__r() const)}
PUBLIC c8444 0 {virtual override thunk({offset(-16)}, std::__ndk1::time_get_byname<wchar_t, std::__ndk1::istreambuf_iterator<wchar_t, std::__ndk1::char_traits<wchar_t> > >::__x() const)}
PUBLIC c8450 0 {virtual override thunk({offset(-16)}, std::__ndk1::time_get_byname<wchar_t, std::__ndk1::istreambuf_iterator<wchar_t, std::__ndk1::char_traits<wchar_t> > >::__X() const)}
PUBLIC c845c 0 std::__ndk1::time_put<char, std::__ndk1::ostreambuf_iterator<char, std::__ndk1::char_traits<char> > >::~time_put()
PUBLIC c8494 0 std::__ndk1::time_put<wchar_t, std::__ndk1::ostreambuf_iterator<wchar_t, std::__ndk1::char_traits<wchar_t> > >::~time_put()
PUBLIC c84c4 0 std::__ndk1::time_put<wchar_t, std::__ndk1::ostreambuf_iterator<wchar_t, std::__ndk1::char_traits<wchar_t> > >::~time_put()
PUBLIC c84fc 0 std::__ndk1::time_put<char, std::__ndk1::ostreambuf_iterator<char, std::__ndk1::char_traits<char> > >::~time_put()
PUBLIC c852c 0 std::__ndk1::time_put_byname<char, std::__ndk1::ostreambuf_iterator<char, std::__ndk1::char_traits<char> > >::~time_put_byname()
PUBLIC c8564 0 std::__ndk1::time_put_byname<wchar_t, std::__ndk1::ostreambuf_iterator<wchar_t, std::__ndk1::char_traits<wchar_t> > >::~time_put_byname()
PUBLIC c859c 0 std::__ndk1::moneypunct<char, false>::~moneypunct()
PUBLIC c85c8 0 std::__ndk1::moneypunct<char, true>::~moneypunct()
PUBLIC m c85f4 0 std::__ndk1::locale::facet::~facet()
PUBLIC c85fc 0 std::__ndk1::moneypunct<wchar_t, false>::~moneypunct()
PUBLIC c8628 0 std::__ndk1::moneypunct<wchar_t, true>::~moneypunct()
PUBLIC c8654 0 std::__ndk1::moneypunct_byname<char, false>::~moneypunct_byname()
PUBLIC c86f8 0 std::__ndk1::moneypunct_byname<char, false>::~moneypunct_byname()
PUBLIC c8794 0 std::__ndk1::moneypunct_byname<char, true>::~moneypunct_byname()
PUBLIC c8838 0 std::__ndk1::moneypunct_byname<char, true>::~moneypunct_byname()
PUBLIC c88d4 0 std::__ndk1::moneypunct_byname<wchar_t, false>::~moneypunct_byname()
PUBLIC c8978 0 std::__ndk1::moneypunct_byname<wchar_t, false>::~moneypunct_byname()
PUBLIC c8a14 0 std::__ndk1::moneypunct_byname<wchar_t, true>::~moneypunct_byname()
PUBLIC c8ab8 0 std::__ndk1::moneypunct_byname<wchar_t, true>::~moneypunct_byname()
PUBLIC c8b54 0 std::__ndk1::money_get<char, std::__ndk1::istreambuf_iterator<char, std::__ndk1::char_traits<char> > >::~money_get()
PUBLIC c8b80 0 std::__ndk1::money_get<wchar_t, std::__ndk1::istreambuf_iterator<wchar_t, std::__ndk1::char_traits<wchar_t> > >::~money_get()
PUBLIC c8bac 0 std::__ndk1::money_put<char, std::__ndk1::ostreambuf_iterator<char, std::__ndk1::char_traits<char> > >::~money_put()
PUBLIC c8bd8 0 std::__ndk1::money_put<wchar_t, std::__ndk1::ostreambuf_iterator<wchar_t, std::__ndk1::char_traits<wchar_t> > >::~money_put()
PUBLIC c8c04 0 std::__ndk1::messages<char>::~messages()
PUBLIC c8c30 0 std::__ndk1::messages<wchar_t>::~messages()
PUBLIC c8c5c 0 std::__ndk1::messages_byname<char>::~messages_byname()
PUBLIC c8c88 0 std::__ndk1::messages_byname<wchar_t>::~messages_byname()
PUBLIC c8cb4 0 std::__ndk1::__libcpp_locale_guard::~__libcpp_locale_guard[abi:v170000]()
PUBLIC c8cdc 0 std::__ndk1::__exception_guard<std::__ndk1::vector<std::__ndk1::locale::facet*, std::__ndk1::__sso_allocator<std::__ndk1::locale::facet*, (unsigned long)30> >::__destroy_vector>::~__exception_guard[abi:v170000]()
PUBLIC c8d14 0 std::__ndk1::vector<std::__ndk1::locale::facet*, std::__ndk1::__sso_allocator<std::__ndk1::locale::facet*, (unsigned long)30> >::__throw_length_error[abi:v170000]() const
PUBLIC c8d2c 0 std::__ndk1::vector<std::__ndk1::locale::facet*, std::__ndk1::__sso_allocator<std::__ndk1::locale::facet*, (unsigned long)30> >::assign<std::__ndk1::locale::facet**, 0>(std::__ndk1::locale::facet**, std::__ndk1::locale::facet**)
PUBLIC c8fa4 0 std::__ndk1::vector<std::__ndk1::locale::facet*, std::__ndk1::__sso_allocator<std::__ndk1::locale::facet*, (unsigned long)30> >::__append(unsigned long)
PUBLIC c9174 0 __cxx_global_array_dtor
PUBLIC c9380 0 __cxx_global_array_dtor.84
PUBLIC c958c 0 __cxx_global_array_dtor.99
PUBLIC c9900 0 __cxx_global_array_dtor.123
PUBLIC c9c74 0 __cxx_global_array_dtor.147
PUBLIC c9cc4 0 __cxx_global_array_dtor.150
PUBLIC c9d14 0 std::__ndk1::time_put<char, std::__ndk1::ostreambuf_iterator<char, std::__ndk1::char_traits<char> > >::time_put[abi:v170000](std::__ndk1::basic_string<char, std::__ndk1::char_traits<char>, std::__ndk1::allocator<char> > const&, unsigned long)
PUBLIC c9dd4 0 std::__ndk1::time_put<wchar_t, std::__ndk1::ostreambuf_iterator<wchar_t, std::__ndk1::char_traits<wchar_t> > >::time_put[abi:v170000](std::__ndk1::basic_string<char, std::__ndk1::char_traits<char>, std::__ndk1::allocator<char> > const&, unsigned long)
PUBLIC c9e94 0 std::__ndk1::__call_once_proxy[abi:v170000]<std::__ndk1::tuple<std::__ndk1::(anonymous namespace)::__fake_bind&&> >(void*)
PUBLIC c9ebc 0 std::__ndk1::__time_get_temp<char>::~__time_get_temp()
PUBLIC c9f2c 0 std::__ndk1::__time_get_temp<wchar_t>::~__time_get_temp()
PUBLIC c9f78 0 std::__ndk1::basic_string<char, std::__ndk1::char_traits<char>, std::__ndk1::allocator<char> >::erase[abi:v170000](std::__ndk1::__wrap_iter<char const*>)
PUBLIC ca018 0 std::__ndk1::basic_string<wchar_t, std::__ndk1::char_traits<wchar_t>, std::__ndk1::allocator<wchar_t> >::erase[abi:v170000](std::__ndk1::__wrap_iter<wchar_t const*>)
PUBLIC ca0c4 0 std::__ndk1::__num_get_signed_integral[abi:v170000]<long>(char const*, char const, unsigned int&, int)
PUBLIC ca1ec 0 std::__ndk1::__num_get_signed_integral[abi:v170000]<long long>(char const*, char const, unsigned int&, int)
PUBLIC ca314 0 std::__ndk1::__num_get_unsigned_integral[abi:v170000]<unsigned short>(char const*, char const, unsigned int&, int)
PUBLIC ca468 0 std::__ndk1::__num_get_unsigned_integral[abi:v170000]<unsigned int>(char const*, char const, unsigned int&, int)
PUBLIC ca5b8 0 std::__ndk1::__num_get_unsigned_integral[abi:v170000]<unsigned long>(char const*, char const, unsigned int&, int)
PUBLIC ca6fc 0 std::__ndk1::__num_get_unsigned_integral[abi:v170000]<unsigned long long>(char const*, char const, unsigned int&, int)
PUBLIC ca840 0 std::__ndk1::__num_get_float[abi:v170000]<float>(char const*, char const, unsigned int&)
PUBLIC ca96c 0 std::__ndk1::__num_get_float[abi:v170000]<double>(char const*, char const, unsigned int&)
PUBLIC caa98 0 std::__ndk1::__num_get_float[abi:v170000]<long double>(char const*, char const, unsigned int&)
PUBLIC cabe0 0 std::__ndk1::__time_get_storage<char>::~__time_get_storage[abi:v170000]()
PUBLIC cb02c 0 std::__ndk1::__time_get_storage<wchar_t>::~__time_get_storage[abi:v170000]()
PUBLIC m cb478 0 std::__ndk1::__fs::filesystem::_FilesystemClock::now()
PUBLIC m cb4e0 0 std::__ndk1::__fs::filesystem::filesystem_error::~filesystem_error()
PUBLIC cb55c 0 std::__ndk1::shared_ptr<std::__ndk1::__fs::filesystem::filesystem_error::_Storage>::~shared_ptr[abi:v170000]()
PUBLIC m cb5b8 0 std::__ndk1::__fs::filesystem::filesystem_error::~filesystem_error()
PUBLIC m cb5e4 0 std::__ndk1::__fs::filesystem::filesystem_error::__create_what(int)
PUBLIC m cb6e8 0 std::__ndk1::__fs::filesystem::__absolute(std::__ndk1::__fs::filesystem::path const&, std::__ndk1::error_code*)
PUBLIC cb768 0 std::__ndk1::__fs::filesystem::__do_absolute(std::__ndk1::__fs::filesystem::path const&, std::__ndk1::__fs::filesystem::path*, std::__ndk1::error_code*)
PUBLIC m cb96c 0 std::__ndk1::__fs::filesystem::__canonical(std::__ndk1::__fs::filesystem::path const&, std::__ndk1::error_code*)
PUBLIC cbb08 0 std::__ndk1::__fs::filesystem::detail::(anonymous namespace)::ErrorHandler<std::__ndk1::__fs::filesystem::path>::report(std::__ndk1::error_code const&) const
PUBLIC m cbbfc 0 std::__ndk1::__fs::filesystem::__copy(std::__ndk1::__fs::filesystem::path const&, std::__ndk1::__fs::filesystem::path const&, std::__ndk1::__fs::filesystem::copy_options, std::__ndk1::error_code*)
PUBLIC cc414 0 std::__ndk1::__fs::filesystem::detail::(anonymous namespace)::ErrorHandler<void>::report(std::__ndk1::error_code const&) const
PUBLIC cc4fc 0 std::__ndk1::__fs::filesystem::detail::(anonymous namespace)::ErrorHandler<void>::report(std::__ndk1::errc const&) const
PUBLIC m cc544 0 std::__ndk1::__fs::filesystem::__copy_symlink(std::__ndk1::__fs::filesystem::path const&, std::__ndk1::__fs::filesystem::path const&, std::__ndk1::error_code*)
PUBLIC m cc5c8 0 std::__ndk1::__fs::filesystem::__create_symlink(std::__ndk1::__fs::filesystem::path const&, std::__ndk1::__fs::filesystem::path const&, std::__ndk1::error_code*)
PUBLIC m cc684 0 std::__ndk1::__fs::filesystem::__create_hard_link(std::__ndk1::__fs::filesystem::path const&, std::__ndk1::__fs::filesystem::path const&, std::__ndk1::error_code*)
PUBLIC m cc740 0 std::__ndk1::__fs::filesystem::__copy_file(std::__ndk1::__fs::filesystem::path const&, std::__ndk1::__fs::filesystem::path const&, std::__ndk1::__fs::filesystem::copy_options, std::__ndk1::error_code*)
PUBLIC ccaf8 0 std::__ndk1::__fs::filesystem::operator/[abi:v170000](std::__ndk1::__fs::filesystem::path const&, std::__ndk1::__fs::filesystem::path const)
PUBLIC ccbc4 0 std::__ndk1::__fs::filesystem::path::filename[abi:v170000]() const
PUBLIC m ccc78 0 std::__ndk1::__fs::filesystem::__create_directory(std::__ndk1::__fs::filesystem::path const&, std::__ndk1::__fs::filesystem::path const&, std::__ndk1::error_code*)
PUBLIC cceb8 0 std::__ndk1::__fs::filesystem::directory_iterator::~directory_iterator[abi:v170000]()
PUBLIC ccf14 0 std::__ndk1::__fs::filesystem::detail::(anonymous namespace)::ErrorHandler<bool>::report(std::__ndk1::error_code const&) const
PUBLIC ccffc 0 std::__ndk1::__fs::filesystem::detail::(anonymous namespace)::ErrorHandler<bool>::report(std::__ndk1::errc const&) const
PUBLIC cd044 0 std::__ndk1::__fs::filesystem::detail::(anonymous namespace)::FileDescriptor::create_with_status<int, unsigned int>(std::__ndk1::__fs::filesystem::path const*, std::__ndk1::error_code&, int, unsigned int)
PUBLIC cd13c 0 std::__ndk1::__fs::filesystem::detail::(anonymous namespace)::posix_fchmod(std::__ndk1::__fs::filesystem::detail::(anonymous namespace)::FileDescriptor const&, stat const&, std::__ndk1::error_code&)
PUBLIC cd1a0 0 std::__ndk1::__fs::filesystem::detail::(anonymous namespace)::posix_ftruncate(std::__ndk1::__fs::filesystem::detail::(anonymous namespace)::FileDescriptor const&, long, std::__ndk1::error_code&)
PUBLIC cd208 0 std::__ndk1::__fs::filesystem::detail::(anonymous namespace)::copy_file_impl(std::__ndk1::__fs::filesystem::detail::(anonymous namespace)::FileDescriptor&, std::__ndk1::__fs::filesystem::detail::(anonymous namespace)::FileDescriptor&, std::__ndk1::error_code&)
PUBLIC cd298 0 std::__ndk1::__fs::filesystem::detail::(anonymous namespace)::FileDescriptor::~FileDescriptor()
PUBLIC m cd2d8 0 std::__ndk1::__fs::filesystem::__read_symlink(std::__ndk1::__fs::filesystem::path const&, std::__ndk1::error_code*)
PUBLIC m cd3f0 0 std::__ndk1::__fs::filesystem::__create_directories(std::__ndk1::__fs::filesystem::path const&, std::__ndk1::error_code*)
PUBLIC cd748 0 std::__ndk1::__fs::filesystem::operator==[abi:v170000](std::__ndk1::__fs::filesystem::path const&, std::__ndk1::__fs::filesystem::path const)
PUBLIC m cd784 0 std::__ndk1::__fs::filesystem::__create_directory(std::__ndk1::__fs::filesystem::path const&, std::__ndk1::error_code*)
PUBLIC cd8f4 0 std::__ndk1::__fs::filesystem::detail::(anonymous namespace)::ErrorHandler<bool>::report(std::__ndk1::errc const&, char const*, ...) const
PUBLIC m cdb70 0 std::__ndk1::__fs::filesystem::__create_directory_symlink(std::__ndk1::__fs::filesystem::path const&, std::__ndk1::__fs::filesystem::path const&, std::__ndk1::error_code*)
PUBLIC m cdc2c 0 std::__ndk1::__fs::filesystem::__current_path(std::__ndk1::error_code*)
PUBLIC cdd34 0 std::__ndk1::__fs::filesystem::detail::(anonymous namespace)::ErrorHandler<std::__ndk1::__fs::filesystem::path>::report(std::__ndk1::error_code const&, char const*, ...) const
PUBLIC m cddd4 0 std::__ndk1::__fs::filesystem::__current_path(std::__ndk1::__fs::filesystem::path const&, std::__ndk1::error_code*)
PUBLIC m cde70 0 std::__ndk1::__fs::filesystem::__equivalent(std::__ndk1::__fs::filesystem::path const&, std::__ndk1::__fs::filesystem::path const&, std::__ndk1::error_code*)
PUBLIC m ce1e8 0 std::__ndk1::__fs::filesystem::__file_size(std::__ndk1::__fs::filesystem::path const&, std::__ndk1::error_code*)
PUBLIC ce338 0 std::__ndk1::__fs::filesystem::detail::(anonymous namespace)::ErrorHandler<unsigned long>::report(std::__ndk1::error_code const&) const
PUBLIC m ce420 0 std::__ndk1::__fs::filesystem::__hard_link_count(std::__ndk1::__fs::filesystem::path const&, std::__ndk1::error_code*)
PUBLIC m ce538 0 std::__ndk1::__fs::filesystem::__fs_is_empty(std::__ndk1::__fs::filesystem::path const&, std::__ndk1::error_code*)
PUBLIC m ce730 0 std::__ndk1::__fs::filesystem::__last_write_time(std::__ndk1::__fs::filesystem::path const&, std::__ndk1::error_code*)
PUBLIC m ce940 0 std::__ndk1::__fs::filesystem::__last_write_time(std::__ndk1::__fs::filesystem::path const&, std::__ndk1::chrono::time_point<std::__ndk1::__fs::filesystem::_FilesystemClock, std::__ndk1::chrono::duration<__int128, std::__ndk1::ratio<(long)1, (long)1000000000> > >, std::__ndk1::error_code*)
PUBLIC m ceb00 0 std::__ndk1::__fs::filesystem::__permissions(std::__ndk1::__fs::filesystem::path const&, std::__ndk1::__fs::filesystem::perms, std::__ndk1::__fs::filesystem::perm_options, std::__ndk1::error_code*)
PUBLIC m ced04 0 std::__ndk1::__fs::filesystem::__remove(std::__ndk1::__fs::filesystem::path const&, std::__ndk1::error_code*)
PUBLIC m ceda0 0 std::__ndk1::__fs::filesystem::__remove_all(std::__ndk1::__fs::filesystem::path const&, std::__ndk1::error_code*)
PUBLIC cee24 0 std::__ndk1::__fs::filesystem::(anonymous namespace)::remove_all_impl(int, std::__ndk1::__fs::filesystem::path const&, std::__ndk1::error_code&)
PUBLIC m cf16c 0 std::__ndk1::__fs::filesystem::__rename(std::__ndk1::__fs::filesystem::path const&, std::__ndk1::__fs::filesystem::path const&, std::__ndk1::error_code*)
PUBLIC m cf228 0 std::__ndk1::__fs::filesystem::__resize_file(std::__ndk1::__fs::filesystem::path const&, unsigned long, std::__ndk1::error_code*)
PUBLIC m cf2d8 0 std::__ndk1::__fs::filesystem::__space(std::__ndk1::__fs::filesystem::path const&, std::__ndk1::error_code*)
PUBLIC m cf420 0 std::__ndk1::__fs::filesystem::__status(std::__ndk1::__fs::filesystem::path const&, std::__ndk1::error_code*)
PUBLIC m cf4b4 0 std::__ndk1::__fs::filesystem::__symlink_status(std::__ndk1::__fs::filesystem::path const&, std::__ndk1::error_code*)
PUBLIC m cf548 0 std::__ndk1::__fs::filesystem::__temp_directory_path(std::__ndk1::error_code*)
PUBLIC cf760 0 std::__ndk1::__fs::filesystem::detail::(anonymous namespace)::ErrorHandler<std::__ndk1::__fs::filesystem::path>::report(std::__ndk1::errc const&, char const*, ...) const
PUBLIC m cf828 0 std::__ndk1::__fs::filesystem::__weakly_canonical(std::__ndk1::__fs::filesystem::path const&, std::__ndk1::error_code*)
PUBLIC cfe4c 0 std::__ndk1::__fs::filesystem::(anonymous namespace)::parser::PathParser::operator--()
PUBLIC m d0060 0 std::__ndk1::__fs::filesystem::path::lexically_normal() const
PUBLIC m d06e8 0 std::__ndk1::__fs::filesystem::path::replace_extension(std::__ndk1::__fs::filesystem::path const&)
PUBLIC d0818 0 std::__ndk1::__fs::filesystem::path::extension[abi:v170000]() const
PUBLIC m d0974 0 std::__ndk1::__fs::filesystem::path::__root_name() const
PUBLIC m d09d8 0 std::__ndk1::__fs::filesystem::path::__root_directory() const
PUBLIC m d0a84 0 std::__ndk1::__fs::filesystem::path::__root_path_raw() const
PUBLIC m d0b6c 0 std::__ndk1::__fs::filesystem::path::__relative_path() const
PUBLIC m d0c14 0 std::__ndk1::__fs::filesystem::path::__parent_path() const
PUBLIC m d0cf4 0 std::__ndk1::__fs::filesystem::path::__filename() const
PUBLIC m d0e20 0 std::__ndk1::__fs::filesystem::path::__stem() const
PUBLIC m d0ee0 0 std::__ndk1::__fs::filesystem::path::__extension() const
PUBLIC m d0fb0 0 std::__ndk1::__fs::filesystem::path::lexically_relative(std::__ndk1::__fs::filesystem::path const&) const
PUBLIC m d1528 0 std::__ndk1::__fs::filesystem::path::__compare(std::__ndk1::basic_string_view<char, std::__ndk1::char_traits<char> >) const
PUBLIC m d1844 0 std::__ndk1::__fs::filesystem::hash_value(std::__ndk1::__fs::filesystem::path const&)
PUBLIC m d197c 0 std::__ndk1::__fs::filesystem::path::begin() const
PUBLIC m d1ad4 0 std::__ndk1::__fs::filesystem::path::end() const
PUBLIC m d1af4 0 std::__ndk1::__fs::filesystem::path::iterator::__increment()
PUBLIC m d1c58 0 std::__ndk1::__fs::filesystem::path::iterator::__decrement()
PUBLIC m d1dbc 0 std::__ndk1::__fs::filesystem::directory_entry::__do_refresh()
PUBLIC d2194 0 std::__ndk1::__fs::filesystem::filesystem_error::what() const
PUBLIC d21b4 0 std::__ndk1::__fs::filesystem::detail::(anonymous namespace)::format_string(char const*, ...)
PUBLIC d2274 0 std::__ndk1::__fs::filesystem::detail::(anonymous namespace)::format_string_impl(char const*, std::__va_list)
PUBLIC d2354 0 std::__ndk1::basic_string<char, std::__ndk1::char_traits<char>, std::__ndk1::allocator<char> >::__resize_default_init[abi:v170000](unsigned long)
PUBLIC d24ec 0 std::__ndk1::__fs::filesystem::detail::(anonymous namespace)::create_file_status(std::__ndk1::error_code&, std::__ndk1::__fs::filesystem::path const&, stat const&, std::__ndk1::error_code*)
PUBLIC d25e8 0 std::__ndk1::__fs::filesystem::detail::(anonymous namespace)::ErrorHandler<void>::report(std::__ndk1::error_code const&, char const*, ...) const
PUBLIC d2860 0 std::__ndk1::operator+[abi:v170000]<char, std::__ndk1::char_traits<char>, std::__ndk1::allocator<char> >(std::__ndk1::allocator<char>&&, std::__ndk1::basic_string<char, std::__ndk1::char_traits<char>, std::__ndk1::allocator<char> >)
PUBLIC d28b8 0 std::__ndk1::operator+[abi:v170000]<char, std::__ndk1::char_traits<char>, std::__ndk1::allocator<char> >(std::__ndk1::allocator<char>&&, std::__ndk1::basic_string const*)
PUBLIC d291c 0 std::__ndk1::__fs::filesystem::__throw_filesystem_error[abi:v170000]<std::__ndk1::basic_string<char, std::__ndk1::char_traits<char>, std::__ndk1::allocator<char> >&, std::__ndk1::error_code const&>(std::__ndk1::basic_string<char, std::__ndk1::char_traits<char>, std::__ndk1::allocator<char> >&, std::__ndk1::error_code const&)
PUBLIC d297c 0 std::__ndk1::__fs::filesystem::__throw_filesystem_error[abi:v170000]<std::__ndk1::basic_string<char, std::__ndk1::char_traits<char>, std::__ndk1::allocator<char> >&, std::__ndk1::__fs::filesystem::path const&, std::__ndk1::error_code const&>(std::__ndk1::basic_string<char, std::__ndk1::char_traits<char>, std::__ndk1::allocator<char> >&, std::__ndk1::__fs::filesystem::path const&, std::__ndk1::error_code const&)
PUBLIC d29e4 0 std::__ndk1::__fs::filesystem::__throw_filesystem_error[abi:v170000]<std::__ndk1::basic_string<char, std::__ndk1::char_traits<char>, std::__ndk1::allocator<char> >&, std::__ndk1::__fs::filesystem::path const&, std::__ndk1::__fs::filesystem::path const, std::__ndk1::error_code const&>(std::__ndk1::basic_string<char, std::__ndk1::char_traits<char>, std::__ndk1::allocator<char> >&, std::__ndk1::__fs::filesystem::path const&, std::__ndk1::__fs::filesystem::path const, std::__ndk1::error_code const&)
PUBLIC d2a58 0 std::__ndk1::__fs::filesystem::filesystem_error::filesystem_error[abi:v170000](std::__ndk1::basic_string<char, std::__ndk1::char_traits<char>, std::__ndk1::allocator<char> > const&, std::__ndk1::error_code)
PUBLIC d2be8 0 std::__ndk1::__shared_ptr_emplace<std::__ndk1::__fs::filesystem::filesystem_error::_Storage, std::__ndk1::allocator<std::__ndk1::__fs::filesystem::filesystem_error::_Storage> >::~__shared_ptr_emplace()
PUBLIC d2bfc 0 std::__ndk1::__shared_ptr_emplace<std::__ndk1::__fs::filesystem::filesystem_error::_Storage, std::__ndk1::allocator<std::__ndk1::__fs::filesystem::filesystem_error::_Storage> >::~__shared_ptr_emplace()
PUBLIC d2c34 0 std::__ndk1::__shared_ptr_emplace<std::__ndk1::__fs::filesystem::filesystem_error::_Storage, std::__ndk1::allocator<std::__ndk1::__fs::filesystem::filesystem_error::_Storage> >::__on_zero_shared()
PUBLIC d2ca4 0 std::__ndk1::__shared_ptr_emplace<std::__ndk1::__fs::filesystem::filesystem_error::_Storage, std::__ndk1::allocator<std::__ndk1::__fs::filesystem::filesystem_error::_Storage> >::__on_zero_shared_weak()
PUBLIC d2cac 0 std::__ndk1::__fs::filesystem::filesystem_error::_Storage::_Storage[abi:v170000](std::__ndk1::__fs::filesystem::path const&, std::__ndk1::__fs::filesystem::path const)
PUBLIC d2dec 0 std::__ndk1::__fs::filesystem::filesystem_error::filesystem_error[abi:v170000](std::__ndk1::basic_string<char, std::__ndk1::char_traits<char>, std::__ndk1::allocator<char> > const&, std::__ndk1::__fs::filesystem::path const&, std::__ndk1::error_code)
PUBLIC d2f44 0 std::__ndk1::__fs::filesystem::filesystem_error::filesystem_error[abi:v170000](std::__ndk1::basic_string<char, std::__ndk1::char_traits<char>, std::__ndk1::allocator<char> > const&, std::__ndk1::__fs::filesystem::path const&, std::__ndk1::__fs::filesystem::path const, std::__ndk1::error_code)
PUBLIC d3088 0 std::__ndk1::__fs::filesystem::path::operator/=[abi:v170000](std::__ndk1::__fs::filesystem::path const&)
PUBLIC d3174 0 std::__ndk1::basic_string<char, std::__ndk1::char_traits<char>, std::__ndk1::allocator<char> >::append[abi:v170000]<char const*>(std::__ndk1::enable_if, std::__ndk1::enable_if)
PUBLIC d342c 0 std::__ndk1::vector<std::__ndk1::basic_string_view<char, std::__ndk1::char_traits<char> >, std::__ndk1::allocator<std::__ndk1::basic_string_view<char, std::__ndk1::char_traits<char> > > >::__throw_length_error[abi:v170000]() const
PUBLIC d3444 0 std::__ndk1::__fs::filesystem::(anonymous namespace)::parser::PathParser::increment()
PUBLIC d368c 0 std::__ndk1::vector<std::__ndk1::pair<std::__ndk1::basic_string_view<char, std::__ndk1::char_traits<char> >, std::__ndk1::__fs::filesystem::PathPartKind>, std::__ndk1::allocator<std::__ndk1::pair<std::__ndk1::basic_string_view<char, std::__ndk1::char_traits<char> >, std::__ndk1::__fs::filesystem::PathPartKind> > >::__throw_length_error[abi:v170000]() const
PUBLIC d36a4 0 std::__ndk1::__murmur2_or_cityhash<unsigned long, (unsigned long)64>::operator()(void const*, unsigned long)
PUBLIC d3b60 0 std::__ndk1::__fs::filesystem::detail::(anonymous namespace)::FileDescriptor::refresh_status(std::__ndk1::error_code&)
PUBLIC d3c94 0 std::__ndk1::__fs::filesystem::detail::(anonymous namespace)::ErrorHandler<std::__ndk1::__fs::filesystem::path>::report_impl(std::__ndk1::error_code const&, char const*, std::__va_list) const
PUBLIC m d3e8c 0 std::__ndk1::__fs::filesystem::directory_iterator::directory_iterator(std::__ndk1::__fs::filesystem::path const&, std::__ndk1::error_code*, std::__ndk1::__fs::filesystem::directory_options)
PUBLIC d4008 0 std::__ndk1::shared_ptr<std::__ndk1::__fs::filesystem::__dir_stream>::~shared_ptr[abi:v170000]()
PUBLIC d4064 0 std::__ndk1::__fs::filesystem::detail::(anonymous namespace)::ErrorHandler<void>::report(std::__ndk1::error_code const&) const
PUBLIC m d414c 0 std::__ndk1::__fs::filesystem::directory_iterator::__increment(std::__ndk1::error_code*)
PUBLIC d427c 0 std::__ndk1::__fs::filesystem::__dir_stream::advance(std::__ndk1::error_code&)
PUBLIC d44a4 0 std::__ndk1::__fs::filesystem::detail::(anonymous namespace)::ErrorHandler<void>::report(std::__ndk1::error_code const&, char const*, ...) const
PUBLIC m d471c 0 std::__ndk1::__fs::filesystem::directory_iterator::__dereference() const
PUBLIC m d472c 0 std::__ndk1::__fs::filesystem::recursive_directory_iterator::recursive_directory_iterator(std::__ndk1::__fs::filesystem::path const&, std::__ndk1::__fs::filesystem::directory_options, std::__ndk1::error_code*)
PUBLIC d49ac 0 std::__ndk1::__fs::filesystem::__dir_stream::__dir_stream(std::__ndk1::__fs::filesystem::path const&, std::__ndk1::__fs::filesystem::directory_options, std::__ndk1::error_code&)
PUBLIC d4b20 0 std::__ndk1::shared_ptr<std::__ndk1::__fs::filesystem::recursive_directory_iterator::__shared_imp>::~shared_ptr[abi:v170000]()
PUBLIC d4b7c 0 std::__ndk1::__fs::filesystem::__dir_stream::~__dir_stream()
PUBLIC m d4bf8 0 std::__ndk1::__fs::filesystem::recursive_directory_iterator::__pop(std::__ndk1::error_code*)
PUBLIC m d4c9c 0 std::__ndk1::__fs::filesystem::recursive_directory_iterator::__advance(std::__ndk1::error_code*)
PUBLIC m d4ee4 0 std::__ndk1::__fs::filesystem::recursive_directory_iterator::options() const
PUBLIC m d4ef4 0 std::__ndk1::__fs::filesystem::recursive_directory_iterator::depth() const
PUBLIC m d4f08 0 std::__ndk1::__fs::filesystem::recursive_directory_iterator::__dereference() const
PUBLIC m d4f58 0 std::__ndk1::__fs::filesystem::recursive_directory_iterator::__increment(std::__ndk1::error_code*)
PUBLIC m d4fe0 0 std::__ndk1::__fs::filesystem::recursive_directory_iterator::__try_recursion(std::__ndk1::error_code*)
PUBLIC d540c 0 std::__ndk1::__shared_ptr_emplace<std::__ndk1::__fs::filesystem::__dir_stream, std::__ndk1::allocator<std::__ndk1::__fs::filesystem::__dir_stream> >::~__shared_ptr_emplace()
PUBLIC d5420 0 std::__ndk1::__shared_ptr_emplace<std::__ndk1::__fs::filesystem::__dir_stream, std::__ndk1::allocator<std::__ndk1::__fs::filesystem::__dir_stream> >::~__shared_ptr_emplace()
PUBLIC d5458 0 std::__ndk1::__shared_ptr_emplace<std::__ndk1::__fs::filesystem::__dir_stream, std::__ndk1::allocator<std::__ndk1::__fs::filesystem::__dir_stream> >::__on_zero_shared()
PUBLIC d54d4 0 std::__ndk1::__shared_ptr_emplace<std::__ndk1::__fs::filesystem::__dir_stream, std::__ndk1::allocator<std::__ndk1::__fs::filesystem::__dir_stream> >::__on_zero_shared_weak()
PUBLIC d54dc 0 std::__ndk1::__fs::filesystem::detail::(anonymous namespace)::format_string_impl(char const*, std::__va_list)
PUBLIC d55bc 0 std::__ndk1::__shared_ptr_emplace<std::__ndk1::__fs::filesystem::recursive_directory_iterator::__shared_imp, std::__ndk1::allocator<std::__ndk1::__fs::filesystem::recursive_directory_iterator::__shared_imp> >::~__shared_ptr_emplace()
PUBLIC d55d0 0 std::__ndk1::__shared_ptr_emplace<std::__ndk1::__fs::filesystem::recursive_directory_iterator::__shared_imp, std::__ndk1::allocator<std::__ndk1::__fs::filesystem::recursive_directory_iterator::__shared_imp> >::~__shared_ptr_emplace()
PUBLIC d5608 0 std::__ndk1::__shared_ptr_emplace<std::__ndk1::__fs::filesystem::recursive_directory_iterator::__shared_imp, std::__ndk1::allocator<std::__ndk1::__fs::filesystem::recursive_directory_iterator::__shared_imp> >::__on_zero_shared()
PUBLIC d5698 0 std::__ndk1::__shared_ptr_emplace<std::__ndk1::__fs::filesystem::recursive_directory_iterator::__shared_imp, std::__ndk1::allocator<std::__ndk1::__fs::filesystem::recursive_directory_iterator::__shared_imp> >::__on_zero_shared_weak()
PUBLIC d56a0 0 std::__ndk1::deque<std::__ndk1::__fs::filesystem::__dir_stream, std::__ndk1::allocator<std::__ndk1::__fs::filesystem::__dir_stream> >::clear()
PUBLIC d583c 0 std::__ndk1::deque<std::__ndk1::__fs::filesystem::__dir_stream, std::__ndk1::allocator<std::__ndk1::__fs::filesystem::__dir_stream> >::__add_back_capacity()
PUBLIC d5dc0 0 std::__ndk1::__split_buffer<std::__ndk1::__fs::filesystem::__dir_stream*, std::__ndk1::allocator<std::__ndk1::__fs::filesystem::__dir_stream*> >::push_back(std::__ndk1::__fs::filesystem::__dir_stream*&&)
PUBLIC d5f4c 0 std::__ndk1::__split_buffer<std::__ndk1::__fs::filesystem::__dir_stream*, std::__ndk1::allocator<std::__ndk1::__fs::filesystem::__dir_stream*> >::push_front(std::__ndk1::__fs::filesystem::__dir_stream*&&)
PUBLIC d60e4 0 std::__ndk1::deque<std::__ndk1::__fs::filesystem::__dir_stream, std::__ndk1::allocator<std::__ndk1::__fs::filesystem::__dir_stream> >::pop_back()
PUBLIC m d6204 0 std::bad_array_new_length::~bad_array_new_length()
PUBLIC m d620c 0 std::exception::~exception()
PUBLIC m d6238 0 std::exception::what() const
PUBLIC m d6248 0 std::bad_exception::~bad_exception()
PUBLIC m d6274 0 std::bad_exception::what() const
PUBLIC m d6284 0 std::bad_alloc::bad_alloc()
PUBLIC m d629c 0 std::bad_alloc::~bad_alloc()
PUBLIC m d62c8 0 std::bad_alloc::what() const
PUBLIC m d62d8 0 std::bad_array_new_length::bad_array_new_length()
PUBLIC m d62f0 0 std::bad_array_new_length::~bad_array_new_length()
PUBLIC m d631c 0 std::bad_array_new_length::what() const
PUBLIC m d632c 0 std::length_error::~length_error()
PUBLIC m d6398 0 std::logic_error::~logic_error()
PUBLIC m d63c4 0 std::logic_error::what() const
PUBLIC m d63d0 0 std::runtime_error::~runtime_error()
PUBLIC m d643c 0 std::runtime_error::~runtime_error()
PUBLIC m d6468 0 std::runtime_error::what() const
PUBLIC m d6474 0 std::domain_error::~domain_error()
PUBLIC m d64a0 0 std::invalid_argument::~invalid_argument()
PUBLIC m d64cc 0 std::length_error::~length_error()
PUBLIC m d64f8 0 std::out_of_range::~out_of_range()
PUBLIC m d6524 0 std::range_error::~range_error()
PUBLIC m d6550 0 std::overflow_error::~overflow_error()
PUBLIC m d657c 0 std::underflow_error::~underflow_error()
PUBLIC m d65a8 0 std::type_info::~type_info()
PUBLIC m d65b0 0 std::type_info::~type_info()
PUBLIC m d65dc 0 std::bad_cast::bad_cast()
PUBLIC m d65f4 0 std::bad_cast::~bad_cast()
PUBLIC m d65fc 0 std::bad_cast::~bad_cast()
PUBLIC m d6628 0 std::bad_cast::what() const
PUBLIC m d6638 0 std::bad_typeid::bad_typeid()
PUBLIC m d6650 0 std::bad_typeid::~bad_typeid()
PUBLIC m d6658 0 std::bad_typeid::~bad_typeid()
PUBLIC m d6684 0 std::bad_typeid::what() const
PUBLIC d6694 0 __cxxabiv1::__getExceptionClass(_Unwind_Exception const*)
PUBLIC d66a0 0 __cxxabiv1::__isOurExceptionClass(_Unwind_Exception const*)
PUBLIC m d66c4 0 __cxa_allocate_exception
PUBLIC m d6718 0 __cxa_begin_catch
PUBLIC m d67c4 0 __cxa_free_exception
PUBLIC m d67e8 0 __cxa_allocate_dependent_exception
PUBLIC m d6824 0 __cxa_free_dependent_exception
PUBLIC m d682c 0 __cxa_throw
PUBLIC d68b0 0 __cxxabiv1::exception_cleanup_func(_Unwind_Reason_Code, _Unwind_Exception*)
PUBLIC d6918 0 __cxxabiv1::failed_throw(__cxxabiv1::__cxa_exception*)
PUBLIC m d693c 0 __cxa_get_exception_ptr
PUBLIC m d6948 0 __cxa_end_catch
PUBLIC m d6a48 0 __cxa_decrement_exception_refcount
PUBLIC m d6aa4 0 __cxa_current_exception_type
PUBLIC m d6afc 0 __cxa_rethrow
PUBLIC m d6be0 0 __cxa_increment_exception_refcount
PUBLIC m d6c0c 0 __cxa_current_primary_exception
PUBLIC m d6c9c 0 __cxa_rethrow_primary_exception
PUBLIC d6dcc 0 __cxxabiv1::dependent_exception_cleanup(_Unwind_Reason_Code, _Unwind_Exception*)
PUBLIC m d6e40 0 __cxa_uncaught_exception
PUBLIC m d6e88 0 __cxa_uncaught_exceptions
PUBLIC d6eb0 0 __cxxabiv1::__aligned_malloc_with_fallback(unsigned long)
PUBLIC d6f0c 0 (anonymous namespace)::fallback_malloc(unsigned long)
PUBLIC d70a8 0 __cxxabiv1::__aligned_free_with_fallback(void*)
PUBLIC m d71e8 0 std::get_unexpected()
PUBLIC m d71fc 0 std::terminate()
PUBLIC d723c 0 std::__unexpected(void (*)())
PUBLIC m d7258 0 std::unexpected()
PUBLIC m d7274 0 std::get_terminate()
PUBLIC d7288 0 std::__terminate(void (*)())
PUBLIC m d72b8 0 std::get_new_handler()
PUBLIC d72cc 0 demangling_terminate_handler()
PUBLIC d741c 0 demangling_unexpected_handler()
PUBLIC m d743c 0 std::set_unexpected(void (*)())
PUBLIC m d7470 0 std::set_terminate(void (*)())
PUBLIC m d74a4 0 std::set_new_handler(void (*)())
PUBLIC d74c8 0 demangle(char const*)::$_0::__invoke(char const*)
PUBLIC d74d0 0 demangle(char const*)::$_1::__invoke(char const*)
PUBLIC d74d8 0 abort_message
PUBLIC m d75e0 0 __cxa_thread_atexit
PUBLIC d7734 0 __cxxabiv1::(anonymous namespace)::DtorsManager::DtorsManager()
PUBLIC d7770 0 __cxxabiv1::(anonymous namespace)::DtorsManager::~DtorsManager()
PUBLIC d77dc 0 __cxxabiv1::(anonymous namespace)::run_dtors(void*)
PUBLIC d7844 0 __divti3
PUBLIC d789c 0 __udivmodti4
PUBLIC m d7ad0 0 __emutls_get_address
PUBLIC d7c9c 0 __emutls_unregister_key
PUBLIC d7cd4 0 emutls_init
PUBLIC d7d10 0 emutls_key_destructor
PUBLIC d7da0 0 __aarch64_cas8_acq_rel
PUBLIC d7dd4 0 init_have_lse_atomics
PUBLIC d7e6c 0 init_cpu_features_resolver
PUBLIC d82a4 0 init_cpu_features
PUBLIC d8340 0 __aarch64_swp8_acq_rel
PUBLIC d8370 0 __aarch64_ldadd4_acq_rel
PUBLIC d83a0 0 __aarch64_ldadd8_relax
PUBLIC d83d0 0 __aarch64_ldadd8_acq_rel
PUBLIC d8400 0 __cxx_global_var_init
PUBLIC d8990 0 geode::modifier::ModifyBase<geode::modifier::ModifyDerive<ProfilePageExt, ProfilePage> >::~ModifyBase()
PUBLIC d89a8 0 __cxx_global_var_init.1
PUBLIC d8f10 0 __cxx_global_var_init.2
PUBLIC d9478 0 __cxx_global_var_init.3
PUBLIC d99e0 0 __cxx_global_var_init.4
PUBLIC d9f48 0 __cxx_global_var_init.5
PUBLIC da4b0 0 __cxx_global_var_init.6
PUBLIC daa18 0 __cxx_global_var_init.7
PUBLIC daf80 0 __cxx_global_var_init.8
PUBLIC db4e8 0 __cxx_global_var_init.9
PUBLIC dbcb0 0 __cxx_global_var_init.10
PUBLIC dc218 0 __cxx_global_var_init.11
PUBLIC dc780 0 __cxx_global_var_init.12
PUBLIC dcce8 0 geode::modifier::ModifyBase<geode::modifier::ModifyDerive<hook337<(anonymous namespace)::hook337Parent>, GJAccountSettingsLayer> >::~ModifyBase()
PUBLIC dcd00 0 geode::modifier::ModifyBase<geode::modifier::ModifyDerive<hook357<(anonymous namespace)::hook357Parent>, FRequestProfilePage> >::~ModifyBase()
PUBLIC dcd18 0 geode::modifier::ModifyBase<geode::modifier::ModifyDerive<hook441<(anonymous namespace)::hook441Parent>, MessagesProfilePage> >::~ModifyBase()
PUBLIC dcd30 0 geode::modifier::ModifyBase<geode::modifier::ModifyDerive<hook525<(anonymous namespace)::hook525Parent>, FriendsProfilePage> >::~ModifyBase()
PUBLIC dcd48 0 geode::modifier::ModifyBase<geode::modifier::ModifyDerive<hook609<(anonymous namespace)::hook609Parent>, InfoLayer> >::~ModifyBase()
PUBLIC dcd60 0 geode::modifier::ModifyBase<geode::modifier::ModifyDerive<hook693<(anonymous namespace)::hook693Parent>, ItemInfoPopup> >::~ModifyBase()
PUBLIC dcd78 0 geode::modifier::ModifyBase<geode::modifier::ModifyDerive<hook713<(anonymous namespace)::hook713Parent>, ShardsPage> >::~ModifyBase()
PUBLIC dcd90 0 geode::modifier::ModifyBase<geode::modifier::ModifyDerive<hook733<(anonymous namespace)::hook733Parent>, CommunityCreditsPage> >::~ModifyBase()
PUBLIC dcda8 0 geode::modifier::ModifyBase<geode::modifier::ModifyDerive<hook753<(anonymous namespace)::hook753Parent>, DemonFilterSelectLayer> >::~ModifyBase()
PUBLIC dcdc0 0 geode::modifier::ModifyBase<geode::modifier::ModifyDerive<hook777<(anonymous namespace)::hook777Parent>, MoreSearchLayer> >::~ModifyBase()
PUBLIC dcdd8 0 geode::modifier::ModifyBase<geode::modifier::ModifyDerive<hook797<(anonymous namespace)::hook797Parent>, ChallengesPage> >::~ModifyBase()
PUBLIC dcdf0 0 geode::modifier::ModifyBase<geode::modifier::ModifyDerive<hook817<(anonymous namespace)::hook817Parent>, SetIDPopup> >::~ModifyBase()
PUBLIC dce08 0 geode::modifier::ModifyDerive<ProfilePageExt, ProfilePage>::apply()
PUBLIC dd808 0 std::__ndk1::shared_ptr<geode::Hook>::~shared_ptr[abi:v170000]()
PUBLIC dd858 0 geode::modifier::ModifyBase<geode::modifier::ModifyDerive<ProfilePageExt, ProfilePage> >::apply()
PUBLIC dd85c 0 std::__ndk1::basic_string<char, std::__ndk1::char_traits<char>, std::__ndk1::allocator<char> >::__throw_length_error[abi:v170000]() const
PUBLIC dd870 0 std::__ndk1::__throw_length_error[abi:v170000](char const*)
PUBLIC dd8c0 0 std::length_error::length_error[abi:v170000](char const*)
PUBLIC dd8f0 0 std::__throw_bad_array_new_length([abi:v170000], void)
PUBLIC dd924 0 std::__ndk1::vector<std::__ndk1::basic_string<char, std::__ndk1::char_traits<char>, std::__ndk1::allocator<char> >, std::__ndk1::allocator<std::__ndk1::basic_string<char, std::__ndk1::char_traits<char>, std::__ndk1::allocator<char> > > >::__push_back_slow_path<std::__ndk1::basic_string<char, std::__ndk1::char_traits<char>, std::__ndk1::allocator<char> > const&>(std::__ndk1::basic_string<char, std::__ndk1::char_traits<char>, std::__ndk1::allocator<char> > const&)
PUBLIC ddbac 0 std::__ndk1::__split_buffer<std::__ndk1::basic_string<char, std::__ndk1::char_traits<char>, std::__ndk1::allocator<char> >, std::__ndk1::allocator<std::__ndk1::basic_string<char, std::__ndk1::char_traits<char>, std::__ndk1::allocator<char> > >&>::~__split_buffer()
PUBLIC ddc14 0 std::__ndk1::vector<std::__ndk1::basic_string<char, std::__ndk1::char_traits<char>, std::__ndk1::allocator<char> >, std::__ndk1::allocator<std::__ndk1::basic_string<char, std::__ndk1::char_traits<char>, std::__ndk1::allocator<char> > > >::__throw_length_error[abi:v170000]() const
PUBLIC ddc28 0 std::__ndk1::__tree<std::__ndk1::__value_type<std::__ndk1::basic_string<char, std::__ndk1::char_traits<char>, std::__ndk1::allocator<char> >, std::__ndk1::shared_ptr<geode::Hook> >, std::__ndk1::__map_value_compare<std::__ndk1::basic_string<char, std::__ndk1::char_traits<char>, std::__ndk1::allocator<char> >, std::__ndk1::__value_type<std::__ndk1::basic_string<char, std::__ndk1::char_traits<char>, std::__ndk1::allocator<char> >, std::__ndk1::shared_ptr<geode::Hook> >, std::__ndk1::less<std::__ndk1::basic_string<char, std::__ndk1::char_traits<char>, std::__ndk1::allocator<char> > >, true>, std::__ndk1::allocator<std::__ndk1::__value_type<std::__ndk1::basic_string<char, std::__ndk1::char_traits<char>, std::__ndk1::allocator<char> >, std::__ndk1::shared_ptr<geode::Hook> > > >::find<std::__ndk1::basic_string<char, std::__ndk1::char_traits<char>, std::__ndk1::allocator<char> > >(std::__ndk1::basic_string<char, std::__ndk1::char_traits<char>, std::__ndk1::allocator<char> > const&)
PUBLIC ddd34 0 std::__ndk1::__tree<std::__ndk1::__value_type<std::__ndk1::basic_string<char, std::__ndk1::char_traits<char>, std::__ndk1::allocator<char> >, std::__ndk1::shared_ptr<geode::Hook> >, std::__ndk1::__map_value_compare<std::__ndk1::basic_string<char, std::__ndk1::char_traits<char>, std::__ndk1::allocator<char> >, std::__ndk1::__value_type<std::__ndk1::basic_string<char, std::__ndk1::char_traits<char>, std::__ndk1::allocator<char> >, std::__ndk1::shared_ptr<geode::Hook> >, std::__ndk1::less<std::__ndk1::basic_string<char, std::__ndk1::char_traits<char>, std::__ndk1::allocator<char> > >, true>, std::__ndk1::allocator<std::__ndk1::__value_type<std::__ndk1::basic_string<char, std::__ndk1::char_traits<char>, std::__ndk1::allocator<char> >, std::__ndk1::shared_ptr<geode::Hook> > > >::erase(std::__ndk1::__tree_const_iterator<std::__ndk1::__value_type<std::__ndk1::basic_string<char, std::__ndk1::char_traits<char>, std::__ndk1::allocator<char> >, std::__ndk1::shared_ptr<geode::Hook> >, std::__ndk1::__tree_node<std::__ndk1::__value_type<std::__ndk1::basic_string<char, std::__ndk1::char_traits<char>, std::__ndk1::allocator<char> >, std::__ndk1::shared_ptr<geode::Hook> >, void*>*, long>)
PUBLIC de1dc 0 std::__ndk1::__tree<std::__ndk1::__value_type<std::__ndk1::basic_string<char, std::__ndk1::char_traits<char>, std::__ndk1::allocator<char> >, std::__ndk1::shared_ptr<geode::Hook> >, std::__ndk1::__map_value_compare<std::__ndk1::basic_string<char, std::__ndk1::char_traits<char>, std::__ndk1::allocator<char> >, std::__ndk1::__value_type<std::__ndk1::basic_string<char, std::__ndk1::char_traits<char>, std::__ndk1::allocator<char> >, std::__ndk1::shared_ptr<geode::Hook> >, std::__ndk1::less<std::__ndk1::basic_string<char, std::__ndk1::char_traits<char>, std::__ndk1::allocator<char> > >, true>, std::__ndk1::allocator<std::__ndk1::__value_type<std::__ndk1::basic_string<char, std::__ndk1::char_traits<char>, std::__ndk1::allocator<char> >, std::__ndk1::shared_ptr<geode::Hook> > > >::destroy(std::__ndk1::__tree_node<std::__ndk1::__value_type<std::__ndk1::basic_string<char, std::__ndk1::char_traits<char>, std::__ndk1::allocator<char> >, std::__ndk1::shared_ptr<geode::Hook> >, void*>*)
PUBLIC de260 0 geode::modifier::AsStaticFunction_create<ProfilePageExt, ProfilePage* (*)(int, bool)>::Impl<ProfilePage* (*)(int, bool)>::function(int, bool)
PUBLIC decd8 0 geode::modifier::AsStaticFunction_loadPageFromUserInfo<ProfilePageExt, void (ProfilePageExt::*)(GJUserScore*)>::Impl<void (ProfilePageExt::*)(GJUserScore*)>::function(ProfilePageExt*, GJUserScore*)
PUBLIC df074 0 geode::modifier::AsStaticFunction_setupCommentsBrowser<ProfilePageExt, void (ProfilePageExt::*)(cocos2d::CCArray*)>::Impl<void (ProfilePageExt::*)(cocos2d::CCArray*)>::function(ProfilePageExt*, cocos2d::CCArray*)
PUBLIC df190 0 std::__ndk1::shared_ptr<tulip::hook::CallingConvention>::~shared_ptr[abi:v170000]()
PUBLIC df1e0 0 tulip::hook::HandlerMetadata::~HandlerMetadata()
PUBLIC df244 0 ProfilePageExt::updateCommentList()
PUBLIC df7e0 0 geode::cast::traverseTypeinfoFor(void*, geode::cast::ClassTypeinfoType const*, char const*)
PUBLIC df8d4 0 std::__ndk1::__tree<std::__ndk1::__value_type<std::__ndk1::basic_string<char, std::__ndk1::char_traits<char>, std::__ndk1::allocator<char> >, std::__ndk1::shared_ptr<geode::Hook> >, std::__ndk1::__map_value_compare<std::__ndk1::basic_string<char, std::__ndk1::char_traits<char>, std::__ndk1::allocator<char> >, std::__ndk1::__value_type<std::__ndk1::basic_string<char, std::__ndk1::char_traits<char>, std::__ndk1::allocator<char> >, std::__ndk1::shared_ptr<geode::Hook> >, std::__ndk1::less<std::__ndk1::basic_string<char, std::__ndk1::char_traits<char>, std::__ndk1::allocator<char> > >, true>, std::__ndk1::allocator<std::__ndk1::__value_type<std::__ndk1::basic_string<char, std::__ndk1::char_traits<char>, std::__ndk1::allocator<char> >, std::__ndk1::shared_ptr<geode::Hook> > > >::__find_equal<std::__ndk1::basic_string<char, std::__ndk1::char_traits<char>, std::__ndk1::allocator<char> > >(std::__ndk1::__tree_end_node<std::__ndk1::__tree_node_base<void*>*>*&, std::__ndk1::basic_string<char, std::__ndk1::char_traits<char>, std::__ndk1::allocator<char> > const&)
PUBLIC df9d8 0 std::__ndk1::__tree_balance_after_insert[abi:v170000]<std::__ndk1::__tree_node_base<void*>*>(std::__ndk1::__tree_node_base<void*>*, std::__ndk1::__tree_node_base<void*>*)
PUBLIC dfb8c 0 geode::modifier::ModifyDerive<hook337<(anonymous namespace)::hook337Parent>, GJAccountSettingsLayer>::apply()
PUBLIC dff6c 0 geode::modifier::ModifyBase<geode::modifier::ModifyDerive<hook337<(anonymous namespace)::hook337Parent>, GJAccountSettingsLayer> >::apply()
PUBLIC dff70 0 geode::modifier::AsStaticFunction_init<hook337<(anonymous namespace)::hook337Parent>, bool (hook337<(anonymous namespace)::hook337Parent>::*)(int)>::Impl<bool (hook337<(anonymous namespace)::hook337Parent>::*)(int)>::function(hook337<(anonymous namespace)::hook337Parent>*, int)
PUBLIC e0188 0 GradientPages::createGradientWithSize(cocos2d::CCPoint, GJUserScore*)
PUBLIC e08e0 0 geode::modifier::ModifyDerive<hook357<(anonymous namespace)::hook357Parent>, FRequestProfilePage>::apply()
PUBLIC e1004 0 geode::modifier::ModifyBase<geode::modifier::ModifyDerive<hook357<(anonymous namespace)::hook357Parent>, FRequestProfilePage> >::apply()
PUBLIC e1008 0 geode::modifier::AsStaticFunction_init<hook357<(anonymous namespace)::hook357Parent>, bool (hook357<(anonymous namespace)::hook357Parent>::*)(bool)>::Impl<bool (hook357<(anonymous namespace)::hook357Parent>::*)(bool)>::function(hook357<(anonymous namespace)::hook357Parent>*, bool)
PUBLIC e1190 0 geode::modifier::AsStaticFunction_setupCommentsBrowser<hook357<(anonymous namespace)::hook357Parent>, void (hook357<(anonymous namespace)::hook357Parent>::*)(cocos2d::CCArray*)>::Impl<void (hook357<(anonymous namespace)::hook357Parent>::*)(cocos2d::CCArray*)>::function(hook357<(anonymous namespace)::hook357Parent>*, cocos2d::CCArray*)
PUBLIC e1618 0 geode::modifier::ModifyDerive<hook441<(anonymous namespace)::hook441Parent>, MessagesProfilePage>::apply()
PUBLIC e1d3c 0 geode::modifier::ModifyBase<geode::modifier::ModifyDerive<hook441<(anonymous namespace)::hook441Parent>, MessagesProfilePage> >::apply()
PUBLIC e1d40 0 geode::modifier::AsStaticFunction_init<hook441<(anonymous namespace)::hook441Parent>, bool (hook441<(anonymous namespace)::hook441Parent>::*)(bool)>::Impl<bool (hook441<(anonymous namespace)::hook441Parent>::*)(bool)>::function(hook441<(anonymous namespace)::hook441Parent>*, bool)
PUBLIC e1ec8 0 geode::modifier::AsStaticFunction_setupCommentsBrowser<hook441<(anonymous namespace)::hook441Parent>, void (hook441<(anonymous namespace)::hook441Parent>::*)(cocos2d::CCArray*)>::Impl<void (hook441<(anonymous namespace)::hook441Parent>::*)(cocos2d::CCArray*)>::function(hook441<(anonymous namespace)::hook441Parent>*, cocos2d::CCArray*)
PUBLIC e2350 0 geode::modifier::ModifyDerive<hook525<(anonymous namespace)::hook525Parent>, FriendsProfilePage>::apply()
PUBLIC e2ac0 0 geode::modifier::ModifyBase<geode::modifier::ModifyDerive<hook525<(anonymous namespace)::hook525Parent>, FriendsProfilePage> >::apply()
PUBLIC e2ac4 0 geode::modifier::AsStaticFunction_init<hook525<(anonymous namespace)::hook525Parent>, bool (hook525<(anonymous namespace)::hook525Parent>::*)(UserListType)>::Impl<bool (hook525<(anonymous namespace)::hook525Parent>::*)(UserListType)>::function(hook525<(anonymous namespace)::hook525Parent>*, UserListType)
PUBLIC e2c4c 0 geode::modifier::AsStaticFunction_setupUsersBrowser<hook525<(anonymous namespace)::hook525Parent>, void (hook525<(anonymous namespace)::hook525Parent>::*)(cocos2d::CCArray*, UserListType)>::Impl<void (hook525<(anonymous namespace)::hook525Parent>::*)(cocos2d::CCArray*, UserListType)>::function(hook525<(anonymous namespace)::hook525Parent>*, cocos2d::CCArray*, UserListType)
PUBLIC e30d4 0 geode::modifier::ModifyDerive<hook609<(anonymous namespace)::hook609Parent>, InfoLayer>::apply()
PUBLIC e3828 0 geode::modifier::ModifyBase<geode::modifier::ModifyDerive<hook609<(anonymous namespace)::hook609Parent>, InfoLayer> >::apply()
PUBLIC e382c 0 geode::modifier::AsStaticFunction_init<hook609<(anonymous namespace)::hook609Parent>, bool (hook609<(anonymous namespace)::hook609Parent>::*)(GJGameLevel*, GJUserScore*, GJLevelList*)>::Impl<bool (hook609<(anonymous namespace)::hook609Parent>::*)(GJGameLevel*, GJUserScore*, GJLevelList*)>::function(hook609<(anonymous namespace)::hook609Parent>*, GJGameLevel*, GJUserScore*, GJLevelList*)
PUBLIC e3a50 0 geode::modifier::AsStaticFunction_setupCommentsBrowser<hook609<(anonymous namespace)::hook609Parent>, void (hook609<(anonymous namespace)::hook609Parent>::*)(cocos2d::CCArray*)>::Impl<void (hook609<(anonymous namespace)::hook609Parent>::*)(cocos2d::CCArray*)>::function(hook609<(anonymous namespace)::hook609Parent>*, cocos2d::CCArray*)
PUBLIC e3f68 0 geode::modifier::ModifyDerive<hook693<(anonymous namespace)::hook693Parent>, ItemInfoPopup>::apply()
PUBLIC e436c 0 geode::modifier::ModifyBase<geode::modifier::ModifyDerive<hook693<(anonymous namespace)::hook693Parent>, ItemInfoPopup> >::apply()
PUBLIC e4370 0 geode::modifier::AsStaticFunction_init<hook693<(anonymous namespace)::hook693Parent>, bool (hook693<(anonymous namespace)::hook693Parent>::*)(int, UnlockType)>::Impl<bool (hook693<(anonymous namespace)::hook693Parent>::*)(int, UnlockType)>::function(hook693<(anonymous namespace)::hook693Parent>*, int, UnlockType)
PUBLIC e44f8 0 geode::modifier::ModifyDerive<hook713<(anonymous namespace)::hook713Parent>, ShardsPage>::apply()
PUBLIC e4848 0 geode::modifier::ModifyBase<geode::modifier::ModifyDerive<hook713<(anonymous namespace)::hook713Parent>, ShardsPage> >::apply()
PUBLIC e484c 0 geode::modifier::AsStaticFunction_init<hook713<(anonymous namespace)::hook713Parent>, bool (hook713<(anonymous namespace)::hook713Parent>::*)()>::Impl<bool (hook713<(anonymous namespace)::hook713Parent>::*)()>::function(hook713<(anonymous namespace)::hook713Parent>*)
PUBLIC e49d4 0 geode::addresser::Addresser::addressOfVirtual<bool, ShardsPage, >(bool (ShardsPage::*)())
PUBLIC e4ac8 0 geode::modifier::ModifyDerive<hook733<(anonymous namespace)::hook733Parent>, CommunityCreditsPage>::apply()
PUBLIC e4e5c 0 geode::modifier::ModifyBase<geode::modifier::ModifyDerive<hook733<(anonymous namespace)::hook733Parent>, CommunityCreditsPage> >::apply()
PUBLIC e4e60 0 geode::modifier::AsStaticFunction_init<hook733<(anonymous namespace)::hook733Parent>, bool (hook733<(anonymous namespace)::hook733Parent>::*)()>::Impl<bool (hook733<(anonymous namespace)::hook733Parent>::*)()>::function(hook733<(anonymous namespace)::hook733Parent>*)
PUBLIC e4fe8 0 geode::addresser::Addresser::addressOfVirtual<bool, CommunityCreditsPage, >(bool (CommunityCreditsPage::*)())
PUBLIC e50dc 0 geode::modifier::ModifyDerive<hook753<(anonymous namespace)::hook753Parent>, DemonFilterSelectLayer>::apply()
PUBLIC e5470 0 geode::modifier::ModifyBase<geode::modifier::ModifyDerive<hook753<(anonymous namespace)::hook753Parent>, DemonFilterSelectLayer> >::apply()
PUBLIC e5474 0 geode::modifier::AsStaticFunction_init<hook753<(anonymous namespace)::hook753Parent>, bool (hook753<(anonymous namespace)::hook753Parent>::*)()>::Impl<bool (hook753<(anonymous namespace)::hook753Parent>::*)()>::function(hook753<(anonymous namespace)::hook753Parent>*)
PUBLIC e55fc 0 geode::addresser::Addresser::addressOfVirtual<bool, DemonFilterSelectLayer, >(bool (DemonFilterSelectLayer::*)())
PUBLIC e56f0 0 geode::modifier::ModifyDerive<hook777<(anonymous namespace)::hook777Parent>, MoreSearchLayer>::apply()
PUBLIC e5a4c 0 geode::modifier::ModifyBase<geode::modifier::ModifyDerive<hook777<(anonymous namespace)::hook777Parent>, MoreSearchLayer> >::apply()
PUBLIC e5a50 0 geode::modifier::AsStaticFunction_init<hook777<(anonymous namespace)::hook777Parent>, bool (hook777<(anonymous namespace)::hook777Parent>::*)()>::Impl<bool (hook777<(anonymous namespace)::hook777Parent>::*)()>::function(hook777<(anonymous namespace)::hook777Parent>*)
PUBLIC e5bd8 0 geode::addresser::Addresser::addressOfVirtual<bool, MoreSearchLayer, >(bool (MoreSearchLayer::*)())
PUBLIC e5cd4 0 geode::modifier::ModifyDerive<hook797<(anonymous namespace)::hook797Parent>, ChallengesPage>::apply()
PUBLIC e603c 0 geode::modifier::ModifyBase<geode::modifier::ModifyDerive<hook797<(anonymous namespace)::hook797Parent>, ChallengesPage> >::apply()
PUBLIC e6040 0 geode::modifier::AsStaticFunction_init<hook797<(anonymous namespace)::hook797Parent>, bool (hook797<(anonymous namespace)::hook797Parent>::*)()>::Impl<bool (hook797<(anonymous namespace)::hook797Parent>::*)()>::function(hook797<(anonymous namespace)::hook797Parent>*)
PUBLIC e61c8 0 geode::addresser::Addresser::addressOfVirtual<bool, ChallengesPage, >(bool (ChallengesPage::*)())
PUBLIC e62d4 0 geode::modifier::ModifyDerive<hook817<(anonymous namespace)::hook817Parent>, SetIDPopup>::apply()
PUBLIC e6794 0 geode::modifier::ModifyBase<geode::modifier::ModifyDerive<hook817<(anonymous namespace)::hook817Parent>, SetIDPopup> >::apply()
PUBLIC e6798 0 geode::modifier::AsStaticFunction_init<hook817<(anonymous namespace)::hook817Parent>, bool (hook817<(anonymous namespace)::hook817Parent>::*)(int, int, int, gd::string, gd::string, bool, int, float, bool, bool)>::Impl<bool (hook817<(anonymous namespace)::hook817Parent>::*)(int, int, int, gd::string, gd::string, bool, int, float, bool, bool)>::function(hook817<(anonymous namespace)::hook817Parent>*, int, int, int, gd::string, gd::string, bool, int, float, bool, bool)
PUBLIC m e6a54 0 geodeImplicitEntry
PUBLIC e6a90 0 __clang_call_terminate
PUBLIC e6aa0 0 wrapFunction(unsigned long, tulip::hook::WrapperMetadata const&)
PUBLIC e6bdc 0 tulip::hook::Result<void*, std::__ndk1::basic_string<char, std::__ndk1::char_traits<char>, std::__ndk1::allocator<char> > >::unwrapErr() &
PUBLIC e6c98 0 tulip::hook::Result<void*, std::__ndk1::basic_string<char, std::__ndk1::char_traits<char>, std::__ndk1::allocator<char> > >::unwrap() &
PUBLIC e6d98 0 tulip::hook::WrapperMetadata::~WrapperMetadata()
PUBLIC e6dfc 0 SetIDPopup::init(int, int, int, gd::string, gd::string, bool, int, float, bool, bool)
PUBLIC e7008 0 tulip::hook::AbstractFunction::from<bool, SetIDPopup*, int, int, int, gd::string, gd::string, bool, int, float, bool, bool>(bool (*)(SetIDPopup*, int, int, int, gd::string, gd::string, bool, int, float, bool, bool))
PUBLIC e7960 0 tulip::hook::lib::bitwizeshift::bad_result_access<std::__ndk1::basic_string<char, std::__ndk1::char_traits<char>, std::__ndk1::allocator<char> > >::~bad_result_access()
PUBLIC e799c 0 tulip::hook::lib::bitwizeshift::bad_result_access<std::__ndk1::basic_string<char, std::__ndk1::char_traits<char>, std::__ndk1::allocator<char> > >::~bad_result_access()
PUBLIC e79e0 0 std::__ndk1::__throw_out_of_range[abi:v170000](char const*)
PUBLIC e7a30 0 std::out_of_range::out_of_range[abi:v170000](char const*)
PUBLIC e7a60 0 std::__ndk1::vector<tulip::hook::AbstractType, std::__ndk1::allocator<tulip::hook::AbstractType> >::__throw_length_error[abi:v170000]() const
PUBLIC e7a74 0 __udivti3
PUBLIC m e7a80 0 __eqtf2
PUBLIC e7b20 0 __unordtf2
PUBLIC e7b58 0 fmt::v10::detail::throw_format_error(char const*)
PUBLIC m e7ba8 0 fmt::v10::format_error::runtime_error(char const*)
PUBLIC e7bd8 0 fmt::v10::detail::write_loc(fmt::v10::appender, fmt::v10::loc_value, fmt::v10::format_specs<char> const&, fmt::v10::detail::locale_ref)
PUBLIC e7dd4 0 fmt::v10::format_facet<std::__ndk1::locale>::~format_facet()
PUBLIC e7e50 0 fmt::v10::format_facet<std::__ndk1::locale>::do_put(fmt::v10::appender, fmt::v10::loc_value, fmt::v10::format_specs<char> const&) const
PUBLIC e8afc 0 fmt::v10::detail::loc_writer<char>::~loc_writer()
PUBLIC e8b60 0 fmt::v10::detail::vformat_to<char>(fmt::v10::detail::buffer<char>&, fmt::v10::basic_string_view<char>, fmt::v10::detail::vformat_args<char>::type, fmt::v10::detail::locale_ref)
PUBLIC e9260 0 fmt::v10::detail::is_printable(unsigned int)
PUBLIC e9484 0 fmt::v10::detail::dragonbox::to_decimal<float>(float)
PUBLIC e978c 0 fmt::v10::detail::dragonbox::to_decimal<double>(double)
PUBLIC m e9d38 0 fmt::v10::format_error::~format_error()
PUBLIC e9d5c 0 fmt::v10::basic_memory_buffer<char, (unsigned long)500, std::__ndk1::allocator<char> >::grow(unsigned long)
PUBLIC e9e94 0 fmt::v10::format_facet<std::__ndk1::locale>::~format_facet()
PUBLIC e9f20 0 fmt::v10::detail::write<char, fmt::v10::appender, int, 0>(fmt::v10::appender, int)
PUBLIC ea158 0 fmt::v10::detail::copy_str_noinline<char, char*, fmt::v10::appender>(char*, char*, fmt::v10::appender)
PUBLIC ea2c4 0 fmt::v10::detail::write<char, fmt::v10::appender, unsigned int, 0>(fmt::v10::appender, unsigned int)
PUBLIC ea470 0 fmt::v10::detail::write<char, fmt::v10::appender, long long, 0>(fmt::v10::appender, long long)
PUBLIC ea6cc 0 fmt::v10::detail::write<char, fmt::v10::appender, unsigned long long, 0>(fmt::v10::appender, unsigned long long)
PUBLIC ea8a0 0 fmt::v10::detail::write<char, fmt::v10::appender, __int128, 0>(fmt::v10::appender, __int128)
PUBLIC eabd4 0 fmt::v10::detail::write<char, fmt::v10::appender, unsigned __int128, 0>(fmt::v10::appender, unsigned __int128)
PUBLIC eaea4 0 fmt::v10::detail::write<char, fmt::v10::appender, bool, 0>(fmt::v10::appender, bool, fmt::v10::format_specs<char> const&, fmt::v10::detail::locale_ref)
PUBLIC eb130 0 fmt::v10::detail::write_int_noinline<char, fmt::v10::appender, unsigned int>(fmt::v10::appender, fmt::v10::detail::write_int_arg<unsigned int>, fmt::v10::format_specs<char> const&, fmt::v10::detail::locale_ref)
PUBLIC ebdf8 0 fmt::v10::detail::fill<fmt::v10::appender, char>(fmt::v10::appender, unsigned long, fmt::v10::detail::fill_t<char> const&)
PUBLIC ebfe8 0 fmt::v10::detail::write_escaped_cp<fmt::v10::appender, char>(fmt::v10::appender, fmt::v10::detail::find_escape_result<char> const&)
PUBLIC ec410 0 fmt::v10::detail::write_codepoint<(unsigned long)2, char, fmt::v10::appender>(fmt::v10::appender, char, unsigned int)
PUBLIC ec590 0 fmt::v10::detail::write_padded<(fmt::v10::align::type)1, fmt::v10::appender, char, fmt::v10::detail::write_nonfinite<char, fmt::v10::appender>(fmt::v10::appender, bool, fmt::v10::format_specs<char>, fmt::v10::detail::float_specs const&)::{lambda(fmt::v10::appender&)#1}>(fmt::v10::appender, fmt::v10::format_specs<char> const&, unsigned long, unsigned long, fmt::v10::detail::write_nonfinite<char, fmt::v10::appender>(fmt::v10::appender, bool, fmt::v10::format_specs<char>, fmt::v10::detail::float_specs const&)::{lambda(fmt::v10::appender&)#1})
PUBLIC ec7bc 0 fmt::v10::detail::do_write_float<fmt::v10::appender, fmt::v10::detail::dragonbox::decimal_fp<float>, char, fmt::v10::detail::digit_grouping<char> >(fmt::v10::appender, fmt::v10::detail::dragonbox::decimal_fp<float> const&, fmt::v10::format_specs<char> const&, fmt::v10::detail::float_specs, fmt::v10::detail::locale_ref)
PUBLIC ed3b4 0 fmt::v10::detail::do_write_float<fmt::v10::appender, fmt::v10::detail::dragonbox::decimal_fp<float>, char, fmt::v10::detail::digit_grouping<char> >(fmt::v10::appender, fmt::v10::detail::dragonbox::decimal_fp<float> const&, fmt::v10::format_specs<char> const&, fmt::v10::detail::float_specs, fmt::v10::detail::locale_ref)::{lambda(fmt::v10::appender(fmt::v10::appender))#1}::operator() const
PUBLIC ed508 0 fmt::v10::detail::digit_grouping<char>::digit_grouping(fmt::v10::detail::locale_ref, bool)
PUBLIC ed77c 0 fmt::v10::detail::digit_grouping<char>::~digit_grouping()
PUBLIC ed7c0 0 fmt::v10::detail::write_exponent<char, fmt::v10::appender>(int, fmt::v10::appender)
PUBLIC ed9a8 0 fmt::v10::detail::write_significand<char, unsigned int, 0>(char*, unsigned int, int, int, char)
PUBLIC edb30 0 fmt::v10::detail::digit_grouping<char>::apply<fmt::v10::appender, char>(fmt::v10::appender, fmt::v10::basic_string_view<char>) const
PUBLIC edf0c 0 fmt::v10::basic_memory_buffer<int, (unsigned long)500, std::__ndk1::allocator<int> >::grow(unsigned long)
PUBLIC ee01c 0 fmt::v10::detail::do_write_float<fmt::v10::appender, fmt::v10::detail::dragonbox::decimal_fp<double>, char, fmt::v10::detail::digit_grouping<char> >(fmt::v10::appender, fmt::v10::detail::dragonbox::decimal_fp<double> const&, fmt::v10::format_specs<char> const&, fmt::v10::detail::float_specs, fmt::v10::detail::locale_ref)
PUBLIC eec3c 0 fmt::v10::detail::do_write_float<fmt::v10::appender, fmt::v10::detail::dragonbox::decimal_fp<double>, char, fmt::v10::detail::digit_grouping<char> >(fmt::v10::appender, fmt::v10::detail::dragonbox::decimal_fp<double> const&, fmt::v10::format_specs<char> const&, fmt::v10::detail::float_specs, fmt::v10::detail::locale_ref)::{lambda(fmt::v10::appender(fmt::v10::appender))#1}::operator() const
PUBLIC eed94 0 fmt::v10::detail::write_significand<char, unsigned long, 0>(char*, unsigned long, int, int, char)
PUBLIC eef40 0 fmt::v10::detail::write_float<char, fmt::v10::appender, long double>(fmt::v10::appender, long double, fmt::v10::format_specs<char>, fmt::v10::detail::locale_ref)
PUBLIC efab0 0 fmt::v10::detail::write_bytes<(fmt::v10::align::type)2, char, fmt::v10::appender>(fmt::v10::appender, fmt::v10::basic_string_view<char>, fmt::v10::format_specs<char> const&)
PUBLIC efc80 0 fmt::v10::detail::format_dragon(fmt::v10::detail::basic_fp<unsigned __int128>, unsigned int, int, fmt::v10::detail::buffer<char>&, int&)
PUBLIC f10e4 0 fmt::v10::detail::bigint::operator<<=(int)
PUBLIC f1210 0 fmt::v10::detail::bigint::assign_pow10(int)
PUBLIC f1940 0 fmt::v10::detail::bigint::divmod_assign(fmt::v10::detail::bigint const&)
PUBLIC f1cac 0 fmt::v10::basic_memory_buffer<unsigned int, (unsigned long)32, std::__ndk1::allocator<unsigned int> >::grow(unsigned long)
PUBLIC f1dbc 0 fmt::v10::detail::do_write_float<fmt::v10::appender, fmt::v10::detail::big_decimal_fp, char, fmt::v10::detail::digit_grouping<char> >(fmt::v10::appender, fmt::v10::detail::big_decimal_fp const&, fmt::v10::format_specs<char> const&, fmt::v10::detail::float_specs, fmt::v10::detail::locale_ref)
PUBLIC f2ca8 0 fmt::v10::detail::do_write_float<fmt::v10::appender, fmt::v10::detail::big_decimal_fp, char, fmt::v10::detail::digit_grouping<char> >(fmt::v10::appender, fmt::v10::detail::big_decimal_fp const&, fmt::v10::format_specs<char> const&, fmt::v10::detail::float_specs, fmt::v10::detail::locale_ref)::{lambda(fmt::v10::appender(fmt::v10::appender))#1}::operator() const
PUBLIC f2e1c 0 fmt::v10::detail::copy_str_noinline<char, char const*, fmt::v10::appender>(char const*, char const*, fmt::v10::appender)
PUBLIC f2f88 0 fmt::v10::detail::write_padded<(fmt::v10::align::type)2, fmt::v10::appender, char, fmt::v10::detail::write_ptr<char, fmt::v10::appender, unsigned long>(fmt::v10::appender, unsigned long, fmt::v10::format_specs<char> const*)::{lambda(fmt::v10::appender&)#1}>(fmt::v10::appender, fmt::v10::format_specs<char> const&, unsigned long, unsigned long, fmt::v10::detail::write_ptr<char, fmt::v10::appender, unsigned long>(fmt::v10::appender, unsigned long, fmt::v10::format_specs<char> const*)::{lambda(fmt::v10::appender&)#1})
PUBLIC f314c 0 fmt::v10::detail::parse_replacement_field<char, fmt::v10::detail::vformat_to<char>(fmt::v10::detail::buffer<char>&, fmt::v10::basic_string_view<char>, fmt::v10::detail::vformat_args<char>::type, fmt::v10::detail::locale_ref)::format_handler&>(char const*, char const*, fmt::v10::detail::vformat_to<char>(fmt::v10::detail::buffer<char>&, fmt::v10::basic_string_view<char>, fmt::v10::detail::vformat_args<char>::type, fmt::v10::detail::locale_ref)::format_handler&)
PUBLIC f5030 0 fmt::v10::detail::parse_dynamic_spec<char>(char const*, char const*, int&, fmt::v10::detail::arg_ref<char>&, fmt::v10::basic_format_parse_context<char>&)
PUBLIC f52c4 0 fmt::v10::basic_format_args<fmt::v10::basic_format_context<fmt::v10::appender, char> >::get<char>(fmt::v10::basic_string_view<char>) const
PUBLIC f5420 0 fmt::v10::detail::write_int_noinline<char, fmt::v10::appender, unsigned long>(fmt::v10::appender, fmt::v10::detail::write_int_arg<unsigned long>, fmt::v10::format_specs<char> const&, fmt::v10::detail::locale_ref)
PUBLIC f6138 0 fmt::v10::detail::write_int_noinline<char, fmt::v10::appender, unsigned __int128>(fmt::v10::appender, fmt::v10::detail::write_int_arg<unsigned __int128>, fmt::v10::format_specs<char> const&, fmt::v10::detail::locale_ref)
PUBLIC f7084 0 fmt::v10::detail::format_hexfloat<double, 0>(double, int, fmt::v10::detail::float_specs, fmt::v10::detail::buffer<char>&)
PUBLIC f75e4 0 fmt::v10::detail::format_float<double>(double, int, fmt::v10::detail::float_specs, fmt::v10::detail::buffer<char>&)
PUBLIC f7f64 0 fmt::v10::detail::write<char, fmt::v10::appender>(fmt::v10::appender, fmt::v10::basic_string_view<char>, fmt::v10::format_specs<char> const&)
PUBLIC f8d38 0 fmt::v10::detail::for_each_codepoint<fmt::v10::detail::compute_width(fmt::v10::basic_string_view<char>)::count_code_points>(fmt::v10::basic_string_view<char>, fmt::v10::detail::compute_width(fmt::v10::basic_string_view<char>)::count_code_points)::{lambda(char const*, char const*)#1}::operator()(char const*, char const*) const
PUBLIC f8eec 0 fmt::v10::detail::write_int<fmt::v10::appender, unsigned long, char>(fmt::v10::appender, unsigned long, unsigned int, fmt::v10::format_specs<char> const&, fmt::v10::detail::digit_grouping<char> const&)
PUBLIC f9134 0 fmt::v10::detail::write_int<fmt::v10::appender, unsigned __int128, char>(fmt::v10::appender, unsigned __int128, unsigned int, fmt::v10::format_specs<char> const&, fmt::v10::detail::digit_grouping<char> const&)
PUBLIC f9450 0 <.plt ELF section in thesillydoggo.gradientpages.android64.so>
STACK CFI INIT 63c80 10 .cfa: sp 0 +
STACK CFI INIT 63c90 8 .cfa: sp 0 +
STACK CFI INIT 63c98 8 .cfa: sp 0 +
STACK CFI INIT 63ca0 14 .cfa: sp 0 +
STACK CFI INIT 63cb4 1c .cfa: sp 0 +
STACK CFI INIT 63cd0 10 .cfa: sp 0 +
STACK CFI INIT 63ce0 24 .cfa: sp 0 +
STACK CFI INIT 63d04 718 .cfa: sp 0 +
STACK CFI INIT 6441c 28 .cfa: sp 0 +
STACK CFI INIT 64444 6e8 .cfa: sp 0 +
STACK CFI INIT 64b2c 24 .cfa: sp 0 +
STACK CFI INIT 64b50 718 .cfa: sp 0 +
STACK CFI INIT 65268 24 .cfa: sp 0 +
STACK CFI INIT 6528c 718 .cfa: sp 0 +
STACK CFI INIT 659a4 28 .cfa: sp 0 +
STACK CFI INIT 659cc 71c .cfa: sp 0 +
STACK CFI INIT 660e8 28 .cfa: sp 0 +
STACK CFI INIT 66110 71c .cfa: sp 0 +
STACK CFI INIT 6682c 28 .cfa: sp 0 +
STACK CFI INIT 66854 6e8 .cfa: sp 0 +
STACK CFI INIT 66f3c 28 .cfa: sp 0 +
STACK CFI INIT 66f64 6e8 .cfa: sp 0 +
STACK CFI INIT 6764c 28 .cfa: sp 0 +
STACK CFI INIT 67674 6e8 .cfa: sp 0 +
STACK CFI INIT 67d5c 28 .cfa: sp 0 +
STACK CFI INIT 67d84 6e8 .cfa: sp 0 +
STACK CFI INIT 6846c 28 .cfa: sp 0 +
STACK CFI INIT 68494 6e8 .cfa: sp 0 +
STACK CFI INIT 68b7c 28 .cfa: sp 0 +
STACK CFI INIT 68ba4 6e8 .cfa: sp 0 +
STACK CFI INIT 6928c 28 .cfa: sp 0 +
STACK CFI INIT 692b4 6f8 .cfa: sp 0 +
STACK CFI INIT 699ac 28 .cfa: sp 0 +
STACK CFI INIT 699d4 6f8 .cfa: sp 0 +
STACK CFI INIT 6a0cc 28 .cfa: sp 0 +
STACK CFI INIT 6a0f4 b3c .cfa: sp 0 +
STACK CFI INIT 6ac30 314 .cfa: sp 0 +
STACK CFI INIT 6af44 2e0 .cfa: sp 0 +
STACK CFI INIT 6b224 314 .cfa: sp 0 +
STACK CFI INIT 6b538 314 .cfa: sp 0 +
STACK CFI INIT 6b84c 318 .cfa: sp 0 +
STACK CFI INIT 6bb64 318 .cfa: sp 0 +
STACK CFI INIT 6be7c 2e0 .cfa: sp 0 +
STACK CFI INIT 6c15c 2e0 .cfa: sp 0 +
STACK CFI INIT 6c43c 2e0 .cfa: sp 0 +
STACK CFI INIT 6c71c 2e0 .cfa: sp 0 +
STACK CFI INIT 6c9fc 2e0 .cfa: sp 0 +
STACK CFI INIT 6ccdc 2e0 .cfa: sp 0 +
STACK CFI INIT 6cfbc 2e8 .cfa: sp 0 +
STACK CFI INIT 6d2a4 2e8 .cfa: sp 0 +
STACK CFI INIT 6d58c 460 .cfa: sp 0 +
STACK CFI INIT 6d9ec 2f0 .cfa: sp 0 +
STACK CFI INIT 6dcdc e4c .cfa: sp 0 +
STACK CFI 6dce4 .cfa: sp 384 +
STACK CFI 6dcf8 x29: .cfa -16 + ^ v8: .cfa -24 + ^ v9: .cfa -32 + ^ v10: .cfa -40 + ^ v11: .cfa -48 + ^ v12: .cfa -56 + ^ v13: .cfa -64 + ^ v14: .cfa -72 + ^ v15: .cfa -80 + ^
STACK CFI 6eae0 .cfa: sp 0 +
STACK CFI 6eae4 .cfa: sp 384 +
STACK CFI INIT 6eb28 348 .cfa: sp 0 +
STACK CFI INIT 6ee70 ab8 .cfa: sp 0 +
STACK CFI 6ee78 .cfa: sp 160 +
STACK CFI 6ee88 v8: .cfa -8 + ^ v9: .cfa -16 + ^ v10: .cfa -24 + ^ v11: .cfa -32 + ^ v12: .cfa -40 + ^ v13: .cfa -48 + ^ v14: .cfa -56 + ^ v15: .cfa -64 + ^
STACK CFI 6f924 .cfa: sp 0 +
STACK CFI INIT 6f928 36c .cfa: sp 0 +
STACK CFI INIT 6fc94 e4c .cfa: sp 0 +
STACK CFI 6fc9c .cfa: sp 384 +
STACK CFI 6fcb0 x29: .cfa -16 + ^ v8: .cfa -24 + ^ v9: .cfa -32 + ^ v10: .cfa -40 + ^ v11: .cfa -48 + ^ v12: .cfa -56 + ^ v13: .cfa -64 + ^ v14: .cfa -72 + ^ v15: .cfa -80 + ^
STACK CFI 70a98 .cfa: sp 0 +
STACK CFI 70a9c .cfa: sp 384 +
STACK CFI INIT 70ae0 348 .cfa: sp 0 +
STACK CFI INIT 70e28 e4c .cfa: sp 0 +
STACK CFI 70e30 .cfa: sp 384 +
STACK CFI 70e44 x29: .cfa -16 + ^ v8: .cfa -24 + ^ v9: .cfa -32 + ^ v10: .cfa -40 + ^ v11: .cfa -48 + ^ v12: .cfa -56 + ^ v13: .cfa -64 + ^ v14: .cfa -72 + ^ v15: .cfa -80 + ^
STACK CFI 71c2c .cfa: sp 0 +
STACK CFI 71c30 .cfa: sp 384 +
STACK CFI INIT 71c74 348 .cfa: sp 0 +
STACK CFI INIT 71fbc bd8 .cfa: sp 0 +
STACK CFI 71fc4 .cfa: sp 240 +
STACK CFI 71fd4 v8: .cfa -8 + ^ v9: .cfa -16 + ^ v10: .cfa -24 + ^ v11: .cfa -32 + ^ v12: .cfa -40 + ^ v13: .cfa -48 + ^ v14: .cfa -56 + ^ v15: .cfa -64 + ^
STACK CFI 72b90 .cfa: sp 0 +
STACK CFI INIT 72b94 37c .cfa: sp 0 +
STACK CFI INIT 72f10 bd8 .cfa: sp 0 +
STACK CFI 72f18 .cfa: sp 240 +
STACK CFI 72f28 v8: .cfa -8 + ^ v9: .cfa -16 + ^ v10: .cfa -24 + ^ v11: .cfa -32 + ^ v12: .cfa -40 + ^ v13: .cfa -48 + ^ v14: .cfa -56 + ^ v15: .cfa -64 + ^
STACK CFI 73ae4 .cfa: sp 0 +
STACK CFI INIT 73ae8 37c .cfa: sp 0 +
STACK CFI INIT 73e64 ab8 .cfa: sp 0 +
STACK CFI 73e6c .cfa: sp 160 +
STACK CFI 73e7c v8: .cfa -8 + ^ v9: .cfa -16 + ^ v10: .cfa -24 + ^ v11: .cfa -32 + ^ v12: .cfa -40 + ^ v13: .cfa -48 + ^ v14: .cfa -56 + ^ v15: .cfa -64 + ^
STACK CFI 74918 .cfa: sp 0 +
STACK CFI INIT 7491c 36c .cfa: sp 0 +
STACK CFI INIT 74c88 ab8 .cfa: sp 0 +
STACK CFI 74c90 .cfa: sp 160 +
STACK CFI 74ca0 v8: .cfa -8 + ^ v9: .cfa -16 + ^ v10: .cfa -24 + ^ v11: .cfa -32 + ^ v12: .cfa -40 + ^ v13: .cfa -48 + ^ v14: .cfa -56 + ^ v15: .cfa -64 + ^
STACK CFI 7573c .cfa: sp 0 +
STACK CFI INIT 75740 36c .cfa: sp 0 +
STACK CFI INIT 75aac a18 .cfa: sp 0 +
STACK CFI 75ab4 .cfa: sp 128 +
STACK CFI 75ac4 v8: .cfa -8 + ^ v9: .cfa -16 + ^ v10: .cfa -24 + ^ v11: .cfa -32 + ^ v12: .cfa -40 + ^ v13: .cfa -48 + ^ v14: .cfa -56 + ^ v15: .cfa -64 + ^
STACK CFI 7647c .cfa: sp 0 +
STACK CFI 76480 .cfa: sp 128 +
STACK CFI INIT 764c4 36c .cfa: sp 0 +
STACK CFI INIT 76830 a18 .cfa: sp 0 +
STACK CFI 76838 .cfa: sp 128 +
STACK CFI 76848 v8: .cfa -8 + ^ v9: .cfa -16 + ^ v10: .cfa -24 + ^ v11: .cfa -32 + ^ v12: .cfa -40 + ^ v13: .cfa -48 + ^ v14: .cfa -56 + ^ v15: .cfa -64 + ^
STACK CFI 77200 .cfa: sp 0 +
STACK CFI 77204 .cfa: sp 128 +
STACK CFI INIT 77248 36c .cfa: sp 0 +
STACK CFI INIT 775b4 a2c .cfa: sp 0 +
STACK CFI 775bc .cfa: sp 128 +
STACK CFI 775cc v8: .cfa -8 + ^ v9: .cfa -16 + ^ v10: .cfa -24 + ^ v11: .cfa -32 + ^ v12: .cfa -40 + ^ v13: .cfa -48 + ^ v14: .cfa -56 + ^ v15: .cfa -64 + ^
STACK CFI 77fdc .cfa: sp 0 +
STACK CFI INIT 77fe0 36c .cfa: sp 0 +
STACK CFI INIT 7834c a2c .cfa: sp 0 +
STACK CFI 78354 .cfa: sp 128 +
STACK CFI 78364 v8: .cfa -8 + ^ v9: .cfa -16 + ^ v10: .cfa -24 + ^ v11: .cfa -32 + ^ v12: .cfa -40 + ^ v13: .cfa -48 + ^ v14: .cfa -56 + ^ v15: .cfa -64 + ^
STACK CFI 78d74 .cfa: sp 0 +
STACK CFI INIT 78d78 36c .cfa: sp 0 +
STACK CFI INIT 790e4 b10 .cfa: sp 0 +
STACK CFI 790ec .cfa: sp 176 +
STACK CFI 790fc v8: .cfa -8 + ^ v9: .cfa -16 + ^ v10: .cfa -24 + ^ v11: .cfa -32 + ^ v12: .cfa -40 + ^ v13: .cfa -48 + ^ v14: .cfa -56 + ^ v15: .cfa -64 + ^
STACK CFI 79bf0 .cfa: sp 0 +
STACK CFI INIT 79bf4 34c .cfa: sp 0 +
STACK CFI INIT 79f40 afc .cfa: sp 0 +
STACK CFI 79f48 .cfa: sp 144 +
STACK CFI 79f58 v8: .cfa -8 + ^ v9: .cfa -16 + ^ v10: .cfa -24 + ^ v11: .cfa -32 + ^ v12: .cfa -40 + ^ v13: .cfa -48 + ^ v14: .cfa -56 + ^ v15: .cfa -64 + ^
STACK CFI 7aa38 .cfa: sp 0 +
STACK CFI INIT 7aa3c 34c .cfa: sp 0 +
STACK CFI INIT 7ad88 470 .cfa: sp 0 +
STACK CFI INIT 7b270 28 .cfa: sp 0 +
STACK CFI INIT 7b298 14 .cfa: sp 0 +
STACK CFI INIT 7b324 738 .cfa: sp 0 +
STACK CFI INIT 7bab0 38 .cfa: sp 0 +
STACK CFI INIT 7bae8 8 .cfa: sp 0 +
STACK CFI INIT 7baf0 2c .cfa: sp 0 +
STACK CFI INIT 7bb1c 10 .cfa: sp 0 +
STACK CFI INIT 7bb2c 8 .cfa: sp 0 +
STACK CFI INIT 7bb34 8 .cfa: sp 0 +
STACK CFI INIT 7bb3c 8 .cfa: sp 0 +
STACK CFI INIT 7bb44 24 .cfa: sp 0 +
STACK CFI INIT 7bb68 68 .cfa: sp 0 +
STACK CFI INIT 7bbd0 24 .cfa: sp 0 +
STACK CFI INIT 7bbf4 24 .cfa: sp 0 +
STACK CFI INIT 7bc18 7c .cfa: sp 0 +
STACK CFI INIT 7bc94 58 .cfa: sp 0 +
STACK CFI INIT 7bcec 60 .cfa: sp 0 +
STACK CFI INIT 7bd4c c .cfa: sp 0 +
STACK CFI INIT 7bda0 54 .cfa: sp 0 +
STACK CFI INIT 7bdf4 54 .cfa: sp 0 +
STACK CFI INIT 7be48 2c .cfa: sp 0 +
STACK CFI INIT 7bebc a4 .cfa: sp 0 +
STACK CFI INIT 7bf80 2c .cfa: sp 0 +
STACK CFI INIT 7bff4 1c .cfa: sp 0 +
STACK CFI INIT 7c1d8 1c .cfa: sp 0 +
STACK CFI INIT 7c74c 8 .cfa: sp 0 +
STACK CFI INIT 7c754 2c .cfa: sp 0 +
STACK CFI INIT 7c780 10 .cfa: sp 0 +
STACK CFI INIT 7c790 8 .cfa: sp 0 +
STACK CFI INIT 7c798 2c .cfa: sp 0 +
STACK CFI INIT 7c8e0 38 .cfa: sp 0 +
STACK CFI INIT 7c918 70 .cfa: sp 0 +
STACK CFI INIT 7caa4 38 .cfa: sp 0 +
STACK CFI INIT 7cadc 70 .cfa: sp 0 +
STACK CFI INIT 7cb4c 2ac .cfa: sp 0 +
STACK CFI INIT 7cdf8 18 .cfa: sp 0 +
STACK CFI INIT 7ce10 14c .cfa: sp 0 +
STACK CFI INIT 7cf5c cc .cfa: sp 0 +
STACK CFI INIT 7d028 88 .cfa: sp 0 +
STACK CFI INIT 7d0b0 a8 .cfa: sp 0 +
STACK CFI INIT 7d158 54 .cfa: sp 0 +
STACK CFI INIT 7d1ac a8 .cfa: sp 0 +
STACK CFI INIT 7d254 b8 .cfa: sp 0 +
STACK CFI INIT 7d30c 18 .cfa: sp 0 +
STACK CFI INIT 7d324 a0 .cfa: sp 0 +
STACK CFI INIT 7d3c4 1b8 .cfa: sp 0 +
STACK CFI INIT 7d57c 128 .cfa: sp 0 +
STACK CFI INIT 7d6a4 3c .cfa: sp 0 +
STACK CFI INIT 7d6e0 88 .cfa: sp 0 +
STACK CFI INIT 7d768 48 .cfa: sp 0 +
STACK CFI INIT 7d7b0 1f8 .cfa: sp 0 +
STACK CFI INIT 7d9a8 7c .cfa: sp 0 +
STACK CFI INIT 7da24 1f4 .cfa: sp 0 +
STACK CFI INIT 7dc18 8 .cfa: sp 0 +
STACK CFI INIT 7dc20 144 .cfa: sp 0 +
STACK CFI INIT 7dd64 88 .cfa: sp 0 +
STACK CFI INIT 7df00 18c .cfa: sp 0 +
STACK CFI INIT 7e08c 54 .cfa: sp 0 +
STACK CFI INIT 7e0e0 6c .cfa: sp 0 +
STACK CFI INIT 7e14c d0 .cfa: sp 0 +
STACK CFI INIT 7e21c 78 .cfa: sp 0 +
STACK CFI INIT 7e294 a0 .cfa: sp 0 +
STACK CFI INIT 7e334 4c .cfa: sp 0 +
STACK CFI INIT 7e380 9c .cfa: sp 0 +
STACK CFI INIT 7e41c 118 .cfa: sp 0 +
STACK CFI INIT 7e534 188 .cfa: sp 0 +
STACK CFI INIT 7e6bc 50 .cfa: sp 0 +
STACK CFI INIT 7e70c 140 .cfa: sp 0 +
STACK CFI INIT 7e84c d4 .cfa: sp 0 +
STACK CFI INIT 7e920 50 .cfa: sp 0 +
STACK CFI INIT 7ea18 98 .cfa: sp 0 +
STACK CFI INIT 7eab0 cc .cfa: sp 0 +
STACK CFI INIT 7eb7c 48 .cfa: sp 0 +
STACK CFI INIT 7ebc4 3c .cfa: sp 0 +
STACK CFI INIT 7ec00 c8 .cfa: sp 0 +
STACK CFI INIT 7ecc8 b8 .cfa: sp 0 +
STACK CFI INIT 7ed80 1d0 .cfa: sp 0 +
STACK CFI INIT 7ef50 3c .cfa: sp 0 +
STACK CFI INIT 7ef8c 50 .cfa: sp 0 +
STACK CFI INIT 7efdc 1c0 .cfa: sp 0 +
STACK CFI INIT 7f19c 4c .cfa: sp 0 +
STACK CFI INIT 7f1e8 50 .cfa: sp 0 +
STACK CFI INIT 7f238 1d4 .cfa: sp 0 +
STACK CFI INIT 7f40c 18 .cfa: sp 0 +
STACK CFI INIT 7f424 170 .cfa: sp 0 +
STACK CFI INIT 7f594 dc .cfa: sp 0 +
STACK CFI INIT 7f670 a4 .cfa: sp 0 +
STACK CFI INIT 7f714 18 .cfa: sp 0 +
STACK CFI INIT 7f72c c4 .cfa: sp 0 +
STACK CFI INIT 7f7f0 54 .cfa: sp 0 +
STACK CFI INIT 7f844 c4 .cfa: sp 0 +
STACK CFI INIT 7f908 b0 .cfa: sp 0 +
STACK CFI INIT 7f9b8 18 .cfa: sp 0 +
STACK CFI INIT 7f9d0 b0 .cfa: sp 0 +
STACK CFI INIT 7fa80 204 .cfa: sp 0 +
STACK CFI INIT 7fc84 12c .cfa: sp 0 +
STACK CFI INIT 7fdb0 34 .cfa: sp 0 +
STACK CFI INIT 7fde4 a4 .cfa: sp 0 +
STACK CFI INIT 7fe88 4c .cfa: sp 0 +
STACK CFI INIT 7fed4 124 .cfa: sp 0 +
STACK CFI INIT 7fff8 84 .cfa: sp 0 +
STACK CFI INIT 8007c 244 .cfa: sp 0 +
STACK CFI INIT 802c0 d8 .cfa: sp 0 +
STACK CFI INIT 80398 8c .cfa: sp 0 +
STACK CFI INIT 8056c ec .cfa: sp 0 +
STACK CFI INIT 80658 10c .cfa: sp 0 +
STACK CFI INIT 80764 70 .cfa: sp 0 +
STACK CFI INIT 807d4 f0 .cfa: sp 0 +
STACK CFI INIT 808c4 7c .cfa: sp 0 +
STACK CFI INIT 80940 f0 .cfa: sp 0 +
STACK CFI INIT 80a30 4c .cfa: sp 0 +
STACK CFI INIT 80a7c a0 .cfa: sp 0 +
STACK CFI INIT 80b1c 128 .cfa: sp 0 +
STACK CFI INIT 80c44 1c0 .cfa: sp 0 +
STACK CFI INIT 80e04 58 .cfa: sp 0 +
STACK CFI INIT 80e5c 17c .cfa: sp 0 +
STACK CFI INIT 80fd8 dc .cfa: sp 0 +
STACK CFI INIT 810b4 124 .cfa: sp 0 +
STACK CFI INIT 81284 9c .cfa: sp 0 +
STACK CFI INIT 81320 d0 .cfa: sp 0 +
STACK CFI INIT 813f0 4c .cfa: sp 0 +
STACK CFI INIT 8143c e0 .cfa: sp 0 +
STACK CFI INIT 8151c d8 .cfa: sp 0 +
STACK CFI INIT 815f4 d4 .cfa: sp 0 +
STACK CFI INIT 816c8 170 .cfa: sp 0 +
STACK CFI INIT 81838 e8 .cfa: sp 0 +
STACK CFI INIT 81920 54 .cfa: sp 0 +
STACK CFI INIT 81974 1c8 .cfa: sp 0 +
STACK CFI INIT 81b3c 4c .cfa: sp 0 +
STACK CFI INIT 81b88 54 .cfa: sp 0 +
STACK CFI INIT 81bdc e8 .cfa: sp 0 +
STACK CFI INIT 81cc4 18 .cfa: sp 0 +
STACK CFI INIT 81cdc 18 .cfa: sp 0 +
STACK CFI INIT 82b6c 130 .cfa: sp 0 +
STACK CFI INIT 82c9c 210 .cfa: sp 0 +
STACK CFI INIT 82eac 210 .cfa: sp 0 +
STACK CFI INIT 830bc bc .cfa: sp 0 +
STACK CFI INIT 83178 1ac .cfa: sp 0 +
STACK CFI INIT 83324 1ac .cfa: sp 0 +
STACK CFI INIT 834d0 1e0 .cfa: sp 0 +
STACK CFI INIT 836b0 2c0 .cfa: sp 0 +
STACK CFI INIT 83970 2c0 .cfa: sp 0 +
STACK CFI INIT 83c30 16c .cfa: sp 0 +
STACK CFI INIT 83d9c 25c .cfa: sp 0 +
STACK CFI INIT 83ff8 25c .cfa: sp 0 +
STACK CFI INIT 84ed0 38c .cfa: sp 0 +
STACK CFI INIT 8525c 18 .cfa: sp 0 +
STACK CFI INIT 85274 8 .cfa: sp 0 +
STACK CFI INIT 8527c 14 .cfa: sp 0 +
STACK CFI INIT 85290 44 .cfa: sp 0 +
STACK CFI INIT 852d4 1c .cfa: sp 0 +
STACK CFI INIT 852f0 10c .cfa: sp 0 +
STACK CFI INIT 853fc 10 .cfa: sp 0 +
STACK CFI INIT 8540c 74 .cfa: sp 0 +
STACK CFI INIT 85480 6c .cfa: sp 0 +
STACK CFI INIT 854ec 10 .cfa: sp 0 +
STACK CFI INIT 854fc 70 .cfa: sp 0 +
STACK CFI INIT 8556c 10c .cfa: sp 0 +
STACK CFI INIT 85678 6c .cfa: sp 0 +
STACK CFI INIT 856e4 1c .cfa: sp 0 +
STACK CFI INIT 85700 1c .cfa: sp 0 +
STACK CFI INIT 85f1c 8 .cfa: sp 0 +
STACK CFI INIT 85f24 2c .cfa: sp 0 +
STACK CFI INIT 85ff8 8 .cfa: sp 0 +
STACK CFI INIT 86000 8 .cfa: sp 0 +
STACK CFI INIT 86008 8 .cfa: sp 0 +
STACK CFI INIT 86010 24 .cfa: sp 0 +
STACK CFI INIT 86034 4c .cfa: sp 0 +
STACK CFI INIT 86080 48 .cfa: sp 0 +
STACK CFI INIT 860f4 7c .cfa: sp 0 +
STACK CFI INIT 86204 34 .cfa: sp 0 +
STACK CFI INIT 86304 3c .cfa: sp 0 +
STACK CFI INIT 86340 44 .cfa: sp 0 +
STACK CFI INIT 86384 138 .cfa: sp 0 +
STACK CFI INIT 864bc 17c .cfa: sp 0 +
STACK CFI INIT 86638 18 .cfa: sp 0 +
STACK CFI INIT 86650 18 .cfa: sp 0 +
STACK CFI INIT 86668 38 .cfa: sp 0 +
STACK CFI INIT 866a0 10 .cfa: sp 0 +
STACK CFI INIT 866b0 1d0 .cfa: sp 0 +
STACK CFI INIT 86880 7c .cfa: sp 0 +
STACK CFI INIT 86988 8 .cfa: sp 0 +
STACK CFI INIT 86990 2c .cfa: sp 0 +
STACK CFI INIT 869bc 10 .cfa: sp 0 +
STACK CFI INIT 86cf0 48 .cfa: sp 0 +
STACK CFI INIT 86e24 a0 .cfa: sp 0 +
STACK CFI INIT 86ec4 a8 .cfa: sp 0 +
STACK CFI INIT 86f6c 14 .cfa: sp 0 +
STACK CFI INIT 86ff8 54 .cfa: sp 0 +
STACK CFI INIT 870d8 54 .cfa: sp 0 +
STACK CFI INIT 872b4 2c .cfa: sp 0 +
STACK CFI INIT 873dc 28 .cfa: sp 0 +
STACK CFI INIT 87464 54 .cfa: sp 0 +
STACK CFI INIT 874b8 78 .cfa: sp 0 +
STACK CFI INIT 87530 54 .cfa: sp 0 +
STACK CFI INIT 87584 5c .cfa: sp 0 +
STACK CFI INIT 875e0 2c .cfa: sp 0 +
STACK CFI INIT 8760c 24 .cfa: sp 0 +
STACK CFI INIT 87630 8 .cfa: sp 0 +
STACK CFI INIT 87638 c .cfa: sp 0 +
STACK CFI INIT 87644 18 .cfa: sp 0 +
STACK CFI INIT 8765c 50 .cfa: sp 0 +
STACK CFI INIT 876ac 3c .cfa: sp 0 +
STACK CFI INIT 876e8 2c .cfa: sp 0 +
STACK CFI INIT 87714 18 .cfa: sp 0 +
STACK CFI INIT 8772c 2c .cfa: sp 0 +
STACK CFI INIT 877b0 18 .cfa: sp 0 +
STACK CFI INIT 877c8 10 .cfa: sp 0 +
STACK CFI INIT 877d8 2c .cfa: sp 0 +
STACK CFI INIT 878d0 94 .cfa: sp 0 +
STACK CFI INIT 879bc 10 .cfa: sp 0 +
STACK CFI INIT 879cc 80 .cfa: sp 0 +
STACK CFI INIT 87a4c 7c .cfa: sp 0 +
STACK CFI INIT 87ac8 40 .cfa: sp 0 +
STACK CFI INIT 87b08 40 .cfa: sp 0 +
STACK CFI INIT 87b48 8 .cfa: sp 0 +
STACK CFI INIT 87b50 2c .cfa: sp 0 +
STACK CFI INIT 87b7c 60 .cfa: sp 0 +
STACK CFI INIT 87c70 10 .cfa: sp 0 +
STACK CFI INIT 87c80 28 .cfa: sp 0 +
STACK CFI INIT 87ca8 114 .cfa: sp 0 +
STACK CFI INIT 87dbc 114 .cfa: sp 0 +
STACK CFI INIT 87ed0 e0 .cfa: sp 0 +
STACK CFI INIT 8803c 2c .cfa: sp 0 +
STACK CFI INIT 88068 44 .cfa: sp 0 +
STACK CFI INIT 88168 4c .cfa: sp 0 +
STACK CFI INIT 88484 9c .cfa: sp 0 +
STACK CFI INIT 88520 130 .cfa: sp 0 +
STACK CFI INIT 88650 30 .cfa: sp 0 +
STACK CFI INIT 88680 30 .cfa: sp 0 +
STACK CFI INIT 886b0 18 .cfa: sp 0 +
STACK CFI INIT 886c8 2c .cfa: sp 0 +
STACK CFI INIT 886f4 38 .cfa: sp 0 +
STACK CFI INIT 8872c 8 .cfa: sp 0 +
STACK CFI INIT 88734 2c .cfa: sp 0 +
STACK CFI INIT 88760 7c .cfa: sp 0 +
STACK CFI INIT 887dc 18 .cfa: sp 0 +
STACK CFI INIT 887f4 2c .cfa: sp 0 +
STACK CFI INIT 88820 54 .cfa: sp 0 +
STACK CFI INIT 88874 10 .cfa: sp 0 +
STACK CFI INIT 88884 10 .cfa: sp 0 +
STACK CFI INIT 88894 10 .cfa: sp 0 +
STACK CFI INIT 888a4 10 .cfa: sp 0 +
STACK CFI INIT 888b4 10 .cfa: sp 0 +
STACK CFI INIT 888c4 24 .cfa: sp 0 +
STACK CFI INIT 888e8 88 .cfa: sp 0 +
STACK CFI INIT 88970 2c .cfa: sp 0 +
STACK CFI INIT 8899c 24 .cfa: sp 0 +
STACK CFI INIT 889c0 10 .cfa: sp 0 +
STACK CFI INIT 889d0 38 .cfa: sp 0 +
STACK CFI INIT 88a08 30 .cfa: sp 0 +
STACK CFI INIT 88a38 3c .cfa: sp 0 +
STACK CFI INIT 88a74 10 .cfa: sp 0 +
STACK CFI INIT 88a84 48 .cfa: sp 0 +
STACK CFI INIT 88acc 5c .cfa: sp 0 +
STACK CFI INIT 88b28 50 .cfa: sp 0 +
STACK CFI INIT 88b78 cc .cfa: sp 0 +
STACK CFI INIT 88c44 14 .cfa: sp 0 +
STACK CFI INIT 88c58 10 .cfa: sp 0 +
STACK CFI INIT 88c68 14 .cfa: sp 0 +
STACK CFI INIT 88c7c 10 .cfa: sp 0 +
STACK CFI INIT 88c8c 8 .cfa: sp 0 +
STACK CFI INIT 88c94 8 .cfa: sp 0 +
STACK CFI INIT 88c9c 10 .cfa: sp 0 +
STACK CFI INIT 88cac 10 .cfa: sp 0 +
STACK CFI INIT 88cbc c .cfa: sp 0 +
STACK CFI INIT 88cc8 c .cfa: sp 0 +
STACK CFI INIT 88cd4 e0 .cfa: sp 0 +
STACK CFI INIT 88db4 c .cfa: sp 0 +
STACK CFI INIT 88dc0 48 .cfa: sp 0 +
STACK CFI INIT 88e08 c .cfa: sp 0 +
STACK CFI INIT 88e14 c8 .cfa: sp 0 +
STACK CFI INIT 88edc c .cfa: sp 0 +
STACK CFI INIT 88ee8 5c .cfa: sp 0 +
STACK CFI INIT 88fac 8 .cfa: sp 0 +
STACK CFI INIT 88fb4 c .cfa: sp 0 +
STACK CFI INIT 88fc0 18 .cfa: sp 0 +
STACK CFI INIT 88fd8 30 .cfa: sp 0 +
STACK CFI INIT 89008 38 .cfa: sp 0 +
STACK CFI INIT 89040 6c .cfa: sp 0 +
STACK CFI INIT 89370 c .cfa: sp 0 +
STACK CFI INIT 8937c 38 .cfa: sp 0 +
STACK CFI INIT 893b4 38 .cfa: sp 0 +
STACK CFI INIT 89584 8 .cfa: sp 0 +
STACK CFI INIT 896bc 8 .cfa: sp 0 +
STACK CFI INIT 89834 8 .cfa: sp 0 +
STACK CFI INIT 8996c 8 .cfa: sp 0 +
STACK CFI INIT 89ae8 8 .cfa: sp 0 +
STACK CFI INIT 89c20 8 .cfa: sp 0 +
STACK CFI INIT 89d58 8 .cfa: sp 0 +
STACK CFI INIT 89e90 8 .cfa: sp 0 +
STACK CFI INIT 89fc8 8 .cfa: sp 0 +
STACK CFI INIT 8a100 8 .cfa: sp 0 +
STACK CFI INIT 8a238 8 .cfa: sp 0 +
STACK CFI INIT 8a370 8 .cfa: sp 0 +
STACK CFI INIT 8a4a8 8 .cfa: sp 0 +
STACK CFI INIT 8a70c 3c .cfa: sp 0 +
STACK CFI INIT 8b9e0 58 .cfa: sp 0 +
STACK CFI INIT 8baa0 8 .cfa: sp 0 +
STACK CFI INIT 8baa8 c .cfa: sp 0 +
STACK CFI INIT 8bab4 18 .cfa: sp 0 +
STACK CFI INIT 8bacc 30 .cfa: sp 0 +
STACK CFI INIT 8bafc 38 .cfa: sp 0 +
STACK CFI INIT 8bb34 64 .cfa: sp 0 +
STACK CFI INIT 8bb98 64 .cfa: sp 0 +
STACK CFI INIT 8bca4 c .cfa: sp 0 +
STACK CFI INIT 8bcb0 38 .cfa: sp 0 +
STACK CFI INIT 8bce8 38 .cfa: sp 0 +
STACK CFI INIT 8d5a8 64 .cfa: sp 0 +
STACK CFI INIT 8d794 a0 .cfa: sp 0 +
STACK CFI INIT 8d8b8 8 .cfa: sp 0 +
STACK CFI INIT 8d8c0 c .cfa: sp 0 +
STACK CFI INIT 8d8cc c .cfa: sp 0 +
STACK CFI INIT 8d8d8 18 .cfa: sp 0 +
STACK CFI INIT 8d8f0 30 .cfa: sp 0 +
STACK CFI INIT 8d920 30 .cfa: sp 0 +
STACK CFI INIT 8d950 38 .cfa: sp 0 +
STACK CFI INIT 8d988 6c .cfa: sp 0 +
STACK CFI INIT 8d9f4 8 .cfa: sp 0 +
STACK CFI INIT 8d9fc 2c .cfa: sp 0 +
STACK CFI INIT 8da28 7c .cfa: sp 0 +
STACK CFI INIT 8daa4 18 .cfa: sp 0 +
STACK CFI INIT 8dabc 2c .cfa: sp 0 +
STACK CFI INIT 8dae8 54 .cfa: sp 0 +
STACK CFI INIT 8db3c 10 .cfa: sp 0 +
STACK CFI INIT 8db4c 10 .cfa: sp 0 +
STACK CFI INIT 8db5c 10 .cfa: sp 0 +
STACK CFI INIT 8db6c 10 .cfa: sp 0 +
STACK CFI INIT 8db7c 10 .cfa: sp 0 +
STACK CFI INIT 8db8c 28 .cfa: sp 0 +
STACK CFI INIT 8dbb4 94 .cfa: sp 0 +
STACK CFI INIT 8dc48 30 .cfa: sp 0 +
STACK CFI INIT 8dc78 24 .cfa: sp 0 +
STACK CFI INIT 8dc9c 10 .cfa: sp 0 +
STACK CFI INIT 8dcac 3c .cfa: sp 0 +
STACK CFI INIT 8dce8 34 .cfa: sp 0 +
STACK CFI INIT 8dd1c 34 .cfa: sp 0 +
STACK CFI INIT 8dd50 10 .cfa: sp 0 +
STACK CFI INIT 8dd60 48 .cfa: sp 0 +
STACK CFI INIT 8dda8 5c .cfa: sp 0 +
STACK CFI INIT 8de04 50 .cfa: sp 0 +
STACK CFI INIT 8de54 cc .cfa: sp 0 +
STACK CFI INIT 8df20 14 .cfa: sp 0 +
STACK CFI INIT 8df34 10 .cfa: sp 0 +
STACK CFI INIT 8df44 14 .cfa: sp 0 +
STACK CFI INIT 8df58 10 .cfa: sp 0 +
STACK CFI INIT 8df68 8 .cfa: sp 0 +
STACK CFI INIT 8df70 8 .cfa: sp 0 +
STACK CFI INIT 8df78 10 .cfa: sp 0 +
STACK CFI INIT 8df88 10 .cfa: sp 0 +
STACK CFI INIT 8df98 c .cfa: sp 0 +
STACK CFI INIT 8dfa4 c .cfa: sp 0 +
STACK CFI INIT 8dfb0 e8 .cfa: sp 0 +
STACK CFI INIT 8e098 c .cfa: sp 0 +
STACK CFI INIT 8e0a4 44 .cfa: sp 0 +
STACK CFI INIT 8e0e8 c .cfa: sp 0 +
STACK CFI INIT 8e0f4 d0 .cfa: sp 0 +
STACK CFI INIT 8e1c4 c .cfa: sp 0 +
STACK CFI INIT 8e1d0 5c .cfa: sp 0 +
STACK CFI INIT 8e294 8 .cfa: sp 0 +
STACK CFI INIT 8e29c c .cfa: sp 0 +
STACK CFI INIT 8e2a8 18 .cfa: sp 0 +
STACK CFI INIT 8e2c0 30 .cfa: sp 0 +
STACK CFI INIT 8e2f0 38 .cfa: sp 0 +
STACK CFI INIT 8e328 6c .cfa: sp 0 +
STACK CFI INIT 8e6a4 c .cfa: sp 0 +
STACK CFI INIT 8e6b0 38 .cfa: sp 0 +
STACK CFI INIT 8e6e8 38 .cfa: sp 0 +
STACK CFI INIT 8e8b4 8 .cfa: sp 0 +
STACK CFI INIT 8e9ec 8 .cfa: sp 0 +
STACK CFI INIT 8eb64 8 .cfa: sp 0 +
STACK CFI INIT 8ec9c 8 .cfa: sp 0 +
STACK CFI INIT 8ee18 8 .cfa: sp 0 +
STACK CFI INIT 8ef50 8 .cfa: sp 0 +
STACK CFI INIT 8f088 8 .cfa: sp 0 +
STACK CFI INIT 8f1c0 8 .cfa: sp 0 +
STACK CFI INIT 8f2f8 8 .cfa: sp 0 +
STACK CFI INIT 8f430 8 .cfa: sp 0 +
STACK CFI INIT 8f568 8 .cfa: sp 0 +
STACK CFI INIT 8f6a0 8 .cfa: sp 0 +
STACK CFI INIT 8f7d8 8 .cfa: sp 0 +
STACK CFI INIT 8fa3c 3c .cfa: sp 0 +
STACK CFI INIT 90d10 58 .cfa: sp 0 +
STACK CFI INIT 90dd0 8 .cfa: sp 0 +
STACK CFI INIT 90dd8 c .cfa: sp 0 +
STACK CFI INIT 90de4 18 .cfa: sp 0 +
STACK CFI INIT 90dfc 30 .cfa: sp 0 +
STACK CFI INIT 90e2c 38 .cfa: sp 0 +
STACK CFI INIT 90e64 64 .cfa: sp 0 +
STACK CFI INIT 90ec8 64 .cfa: sp 0 +
STACK CFI INIT 90fd4 c .cfa: sp 0 +
STACK CFI INIT 90fe0 38 .cfa: sp 0 +
STACK CFI INIT 91018 38 .cfa: sp 0 +
STACK CFI INIT 9290c 64 .cfa: sp 0 +
STACK CFI INIT 9321c 208 .cfa: sp 0 +
STACK CFI INIT 93424 174 .cfa: sp 0 +
STACK CFI INIT 93598 54 .cfa: sp 0 +
STACK CFI INIT 935ec 74 .cfa: sp 0 +
STACK CFI INIT 93828 128 .cfa: sp 0 +
STACK CFI INIT 93950 8c .cfa: sp 0 +
STACK CFI INIT 939dc 90 .cfa: sp 0 +
STACK CFI INIT 93a6c 8c .cfa: sp 0 +
STACK CFI INIT 93af8 60 .cfa: sp 0 +
STACK CFI INIT 93b58 17c .cfa: sp 0 +
STACK CFI INIT 93cd4 70 .cfa: sp 0 +
STACK CFI INIT 93d44 60 .cfa: sp 0 +
STACK CFI INIT 93da4 70 .cfa: sp 0 +
STACK CFI INIT 93f48 194 .cfa: sp 0 +
STACK CFI INIT 9423c 2c .cfa: sp 0 +
STACK CFI INIT 94268 340 .cfa: sp 0 +
STACK CFI INIT 945a8 298 .cfa: sp 0 +
STACK CFI INIT 94840 5c .cfa: sp 0 +
STACK CFI INIT 9489c 38 .cfa: sp 0 +
STACK CFI INIT 948d4 64 .cfa: sp 0 +
STACK CFI INIT 94938 21c .cfa: sp 0 +
STACK CFI INIT 94b54 6c .cfa: sp 0 +
STACK CFI INIT 94bc0 128 .cfa: sp 0 +
STACK CFI INIT 94ce8 d8 .cfa: sp 0 +
STACK CFI INIT 94dc0 78 .cfa: sp 0 +
STACK CFI INIT 94e38 1d8 .cfa: sp 0 +
STACK CFI INIT 95010 110 .cfa: sp 0 +
STACK CFI INIT 95120 58 .cfa: sp 0 +
STACK CFI INIT 95178 60 .cfa: sp 0 +
STACK CFI INIT 951d8 18 .cfa: sp 0 +
STACK CFI INIT 951f0 80 .cfa: sp 0 +
STACK CFI INIT 95270 88 .cfa: sp 0 +
STACK CFI INIT 952f8 80 .cfa: sp 0 +
STACK CFI INIT 95378 94 .cfa: sp 0 +
STACK CFI INIT 9540c 88 .cfa: sp 0 +
STACK CFI INIT 95494 90 .cfa: sp 0 +
STACK CFI INIT 95524 78 .cfa: sp 0 +
STACK CFI INIT 9559c 80 .cfa: sp 0 +
STACK CFI INIT 9561c 80 .cfa: sp 0 +
STACK CFI INIT 9569c 88 .cfa: sp 0 +
STACK CFI INIT 95724 7c .cfa: sp 0 +
STACK CFI INIT 957a0 84 .cfa: sp 0 +
STACK CFI INIT 95824 84 .cfa: sp 0 +
STACK CFI INIT 958a8 8c .cfa: sp 0 +
STACK CFI INIT 95934 44 .cfa: sp 0 +
STACK CFI INIT 95978 50 .cfa: sp 0 +
STACK CFI INIT 959c8 50 .cfa: sp 0 +
STACK CFI INIT 95a18 5c .cfa: sp 0 +
STACK CFI INIT 95a74 44 .cfa: sp 0 +
STACK CFI INIT 95ab8 50 .cfa: sp 0 +
STACK CFI INIT 95b08 50 .cfa: sp 0 +
STACK CFI INIT 95b58 5c .cfa: sp 0 +
STACK CFI INIT 95bb4 8 .cfa: sp 0 +
STACK CFI INIT 95bbc 2c .cfa: sp 0 +
STACK CFI INIT 95be8 64 .cfa: sp 0 +
STACK CFI INIT 95c4c a8 .cfa: sp 0 +
STACK CFI INIT 95cf4 38 .cfa: sp 0 +
STACK CFI INIT 95d2c 8 .cfa: sp 0 +
STACK CFI INIT 95d34 2c .cfa: sp 0 +
STACK CFI INIT 95d60 58 .cfa: sp 0 +
STACK CFI INIT 95db8 bc .cfa: sp 0 +
STACK CFI INIT 95e74 38 .cfa: sp 0 +
STACK CFI INIT 965fc 8 .cfa: sp 0 +
STACK CFI INIT 96ba0 8 .cfa: sp 0 +
STACK CFI INIT 97144 8 .cfa: sp 0 +
STACK CFI INIT 976e8 8 .cfa: sp 0 +
STACK CFI INIT 97c8c 8 .cfa: sp 0 +
STACK CFI INIT 98230 8 .cfa: sp 0 +
STACK CFI INIT 987d4 8 .cfa: sp 0 +
STACK CFI INIT 98d60 8 .cfa: sp 0 +
STACK CFI INIT 992ec 8 .cfa: sp 0 +
STACK CFI INIT 99e1c 31c .cfa: sp 0 +
STACK CFI INIT 9a9e4 8 .cfa: sp 0 +
STACK CFI INIT 9af84 8 .cfa: sp 0 +
STACK CFI INIT 9b524 8 .cfa: sp 0 +
STACK CFI INIT 9bac4 8 .cfa: sp 0 +
STACK CFI INIT 9c064 8 .cfa: sp 0 +
STACK CFI INIT 9c604 8 .cfa: sp 0 +
STACK CFI INIT 9cba4 8 .cfa: sp 0 +
STACK CFI INIT 9d128 8 .cfa: sp 0 +
STACK CFI INIT 9d6ac 8 .cfa: sp 0 +
STACK CFI INIT 9e1d0 37c .cfa: sp 0 +
STACK CFI INIT 9e6fc 40c .cfa: sp 0 +
STACK CFI INIT 9ee40 484 .cfa: sp 0 +
STACK CFI INIT 9f64c 10 .cfa: sp 0 +
STACK CFI INIT 9f89c 10 .cfa: sp 0 +
STACK CFI INIT 9faec 10 .cfa: sp 0 +
STACK CFI INIT 9fd20 10 .cfa: sp 0 +
STACK CFI INIT 9ff54 10 .cfa: sp 0 +
STACK CFI INIT a0418 10 .cfa: sp 0 +
STACK CFI INIT a0bc8 70 .cfa: sp 0 +
STACK CFI INIT a0fbc 10 .cfa: sp 0 +
STACK CFI INIT a120c 10 .cfa: sp 0 +
STACK CFI INIT a145c 10 .cfa: sp 0 +
STACK CFI INIT a1690 10 .cfa: sp 0 +
STACK CFI INIT a18c4 10 .cfa: sp 0 +
STACK CFI INIT a1d88 10 .cfa: sp 0 +
STACK CFI INIT a3ff8 c .cfa: sp 0 +
STACK CFI INIT a4004 44 .cfa: sp 0 +
STACK CFI INIT a4048 8c .cfa: sp 0 +
STACK CFI INIT a4238 bc .cfa: sp 0 +
STACK CFI INIT a4454 b8 .cfa: sp 0 +
STACK CFI INIT a4634 68 .cfa: sp 0 +
STACK CFI INIT a4d20 74 .cfa: sp 0 +
STACK CFI INIT a4d94 70 .cfa: sp 0 +
STACK CFI INIT a4e04 74 .cfa: sp 0 +
STACK CFI INIT a4e78 70 .cfa: sp 0 +
STACK CFI INIT a4ee8 74 .cfa: sp 0 +
STACK CFI INIT a4f5c 70 .cfa: sp 0 +
STACK CFI INIT a4fcc 1f8 .cfa: sp 0 +
STACK CFI INIT a51c4 110 .cfa: sp 0 +
STACK CFI INIT a52d4 70 .cfa: sp 0 +
STACK CFI INIT a5344 70 .cfa: sp 0 +
STACK CFI INIT a53b4 50 .cfa: sp 0 +
STACK CFI INIT a5404 224 .cfa: sp 0 +
STACK CFI INIT a5628 380 .cfa: sp 0 +
STACK CFI INIT a5f00 c .cfa: sp 0 +
STACK CFI INIT a5f0c 40 .cfa: sp 0 +
STACK CFI INIT a5f4c 90 .cfa: sp 0 +
STACK CFI INIT a6140 bc .cfa: sp 0 +
STACK CFI INIT a635c b8 .cfa: sp 0 +
STACK CFI INIT a653c 68 .cfa: sp 0 +
STACK CFI INIT a6c18 74 .cfa: sp 0 +
STACK CFI INIT a6c8c 70 .cfa: sp 0 +
STACK CFI INIT a6cfc 74 .cfa: sp 0 +
STACK CFI INIT a6d70 70 .cfa: sp 0 +
STACK CFI INIT a6de0 74 .cfa: sp 0 +
STACK CFI INIT a6e54 70 .cfa: sp 0 +
STACK CFI INIT a6ec4 234 .cfa: sp 0 +
STACK CFI INIT a70f8 110 .cfa: sp 0 +
STACK CFI INIT a7208 70 .cfa: sp 0 +
STACK CFI INIT a7278 70 .cfa: sp 0 +
STACK CFI INIT a72e8 50 .cfa: sp 0 +
STACK CFI INIT a7338 248 .cfa: sp 0 +
STACK CFI INIT a7580 3c0 .cfa: sp 0 +
STACK CFI INIT a7bec d0 .cfa: sp 0 +
STACK CFI INIT a7cbc 74 .cfa: sp 0 +
STACK CFI INIT a7fec cc .cfa: sp 0 +
STACK CFI INIT a81b0 c .cfa: sp 0 +
STACK CFI INIT a81bc c .cfa: sp 0 +
STACK CFI INIT a81c8 10 .cfa: sp 0 +
STACK CFI INIT a81d8 10 .cfa: sp 0 +
STACK CFI INIT a81e8 10 .cfa: sp 0 +
STACK CFI INIT a81f8 14 .cfa: sp 0 +
STACK CFI INIT a820c c .cfa: sp 0 +
STACK CFI INIT a8218 10 .cfa: sp 0 +
STACK CFI INIT a8228 10 .cfa: sp 0 +
STACK CFI INIT a8238 c .cfa: sp 0 +
STACK CFI INIT a8244 c .cfa: sp 0 +
STACK CFI INIT a8250 10 .cfa: sp 0 +
STACK CFI INIT a8260 10 .cfa: sp 0 +
STACK CFI INIT a8270 10 .cfa: sp 0 +
STACK CFI INIT a8280 14 .cfa: sp 0 +
STACK CFI INIT a8294 c .cfa: sp 0 +
STACK CFI INIT a82a0 10 .cfa: sp 0 +
STACK CFI INIT a82b0 10 .cfa: sp 0 +
STACK CFI INIT a82c0 c .cfa: sp 0 +
STACK CFI INIT a82cc c .cfa: sp 0 +
STACK CFI INIT a82d8 10 .cfa: sp 0 +
STACK CFI INIT a82e8 10 .cfa: sp 0 +
STACK CFI INIT a82f8 10 .cfa: sp 0 +
STACK CFI INIT a8308 1c .cfa: sp 0 +
STACK CFI INIT a8324 c .cfa: sp 0 +
STACK CFI INIT a8330 10 .cfa: sp 0 +
STACK CFI INIT a8340 10 .cfa: sp 0 +
STACK CFI INIT a8350 c .cfa: sp 0 +
STACK CFI INIT a835c c .cfa: sp 0 +
STACK CFI INIT a8368 10 .cfa: sp 0 +
STACK CFI INIT a8378 10 .cfa: sp 0 +
STACK CFI INIT a8388 10 .cfa: sp 0 +
STACK CFI INIT a8398 1c .cfa: sp 0 +
STACK CFI INIT a83b4 c .cfa: sp 0 +
STACK CFI INIT a83c0 10 .cfa: sp 0 +
STACK CFI INIT a83d0 10 .cfa: sp 0 +
STACK CFI INIT a83e0 c .cfa: sp 0 +
STACK CFI INIT a83ec c .cfa: sp 0 +
STACK CFI INIT a83f8 ac .cfa: sp 0 +
STACK CFI INIT a84a4 ac .cfa: sp 0 +
STACK CFI INIT a8550 ac .cfa: sp 0 +
STACK CFI INIT a85fc ac .cfa: sp 0 +
STACK CFI INIT a86a8 c .cfa: sp 0 +
STACK CFI INIT a86b4 c .cfa: sp 0 +
STACK CFI INIT a86c0 c .cfa: sp 0 +
STACK CFI INIT a86cc c .cfa: sp 0 +
STACK CFI INIT a86d8 c .cfa: sp 0 +
STACK CFI INIT a86e4 ac .cfa: sp 0 +
STACK CFI INIT a8790 ac .cfa: sp 0 +
STACK CFI INIT a883c ac .cfa: sp 0 +
STACK CFI INIT a88e8 ac .cfa: sp 0 +
STACK CFI INIT a8994 c .cfa: sp 0 +
STACK CFI INIT a89a0 c .cfa: sp 0 +
STACK CFI INIT a89ac c .cfa: sp 0 +
STACK CFI INIT a89b8 c .cfa: sp 0 +
STACK CFI INIT a89c4 c .cfa: sp 0 +
STACK CFI INIT a89d0 ac .cfa: sp 0 +
STACK CFI INIT a8a7c c8 .cfa: sp 0 +
STACK CFI INIT a8b44 c8 .cfa: sp 0 +
STACK CFI INIT a8c0c c8 .cfa: sp 0 +
STACK CFI INIT a8cd4 c .cfa: sp 0 +
STACK CFI INIT a8ce0 c .cfa: sp 0 +
STACK CFI INIT a8cec c .cfa: sp 0 +
STACK CFI INIT a8cf8 c .cfa: sp 0 +
STACK CFI INIT a8d04 c .cfa: sp 0 +
STACK CFI INIT a8d10 ac .cfa: sp 0 +
STACK CFI INIT a8dbc c8 .cfa: sp 0 +
STACK CFI INIT a8e84 c8 .cfa: sp 0 +
STACK CFI INIT a8f4c c8 .cfa: sp 0 +
STACK CFI INIT a9014 c .cfa: sp 0 +
STACK CFI INIT a9020 c .cfa: sp 0 +
STACK CFI INIT a902c c .cfa: sp 0 +
STACK CFI INIT a9450 8 .cfa: sp 0 +
STACK CFI INIT aae94 240 .cfa: sp 0 +
STACK CFI INIT ab0d4 fc .cfa: sp 0 +
STACK CFI INIT ad0c0 240 .cfa: sp 0 +
STACK CFI INIT ad89c 240 .cfa: sp 0 +
STACK CFI INIT adadc 49c .cfa: sp 0 +
STACK CFI INIT ae824 240 .cfa: sp 0 +
STACK CFI INIT aea64 4f4 .cfa: sp 0 +
STACK CFI INIT af330 c .cfa: sp 0 +
STACK CFI INIT af33c a8 .cfa: sp 0 +
STACK CFI INIT af3e4 8 .cfa: sp 0 +
STACK CFI INIT af3ec c .cfa: sp 0 +
STACK CFI INIT af3f8 c4 .cfa: sp 0 +
STACK CFI INIT af4bc 8 .cfa: sp 0 +
STACK CFI INIT af4c4 8 .cfa: sp 0 +
STACK CFI INIT af4cc 2c .cfa: sp 0 +
STACK CFI INIT af4f8 8 .cfa: sp 0 +
STACK CFI INIT af500 2c .cfa: sp 0 +
STACK CFI INIT af52c 8 .cfa: sp 0 +
STACK CFI INIT af534 2c .cfa: sp 0 +
STACK CFI INIT af560 8 .cfa: sp 0 +
STACK CFI INIT af568 2c .cfa: sp 0 +
STACK CFI INIT af594 8 .cfa: sp 0 +
STACK CFI INIT af59c 2c .cfa: sp 0 +
STACK CFI INIT af5c8 8 .cfa: sp 0 +
STACK CFI INIT af5d0 2c .cfa: sp 0 +
STACK CFI INIT afbb4 90 .cfa: sp 0 +
STACK CFI INIT b7954 e0 .cfa: sp 0 +
STACK CFI INIT b7a34 d4 .cfa: sp 0 +
STACK CFI INIT b7cc4 2c .cfa: sp 0 +
STACK CFI INIT b7cf0 50 .cfa: sp 0 +
STACK CFI INIT b7d40 70 .cfa: sp 0 +
STACK CFI INIT b817c b0 .cfa: sp 0 +
STACK CFI INIT b8558 a8 .cfa: sp 0 +
STACK CFI INIT b8600 74 .cfa: sp 0 +
STACK CFI INIT b8674 90 .cfa: sp 0 +
STACK CFI INIT b8704 f4 .cfa: sp 0 +
STACK CFI INIT b87f8 2c .cfa: sp 0 +
STACK CFI INIT b8824 10 .cfa: sp 0 +
STACK CFI INIT b8834 3c .cfa: sp 0 +
STACK CFI INIT b89b8 64 .cfa: sp 0 +
STACK CFI INIT b8b14 2c .cfa: sp 0 +
STACK CFI INIT b90c8 2c .cfa: sp 0 +
STACK CFI INIT b94e8 2c .cfa: sp 0 +
STACK CFI INIT b9514 2c .cfa: sp 0 +
STACK CFI INIT b9540 10 .cfa: sp 0 +
STACK CFI INIT b9550 58 .cfa: sp 0 +
STACK CFI INIT b95a8 4c .cfa: sp 0 +
STACK CFI INIT b95f4 44 .cfa: sp 0 +
STACK CFI INIT b9980 c .cfa: sp 0 +
STACK CFI INIT b998c 124 .cfa: sp 0 +
STACK CFI INIT b9ab0 10 .cfa: sp 0 +
STACK CFI INIT b9ac0 18c .cfa: sp 0 +
STACK CFI INIT b9c4c 38 .cfa: sp 0 +
STACK CFI INIT b9c84 4c .cfa: sp 0 +
STACK CFI INIT b9cd0 2c .cfa: sp 0 +
STACK CFI INIT ba034 c .cfa: sp 0 +
STACK CFI INIT ba040 d4 .cfa: sp 0 +
STACK CFI INIT ba114 14 .cfa: sp 0 +
STACK CFI INIT ba128 f8 .cfa: sp 0 +
STACK CFI INIT ba3e8 2c .cfa: sp 0 +
STACK CFI INIT ba414 28 .cfa: sp 0 +
STACK CFI INIT ba43c 5c .cfa: sp 0 +
STACK CFI INIT ba498 28 .cfa: sp 0 +
STACK CFI INIT ba4c0 5c .cfa: sp 0 +
STACK CFI INIT ba6c4 2c .cfa: sp 0 +
STACK CFI INIT ba6f0 168 .cfa: sp 0 +
STACK CFI INIT ba858 19c .cfa: sp 0 +
STACK CFI INIT ba9f4 130 .cfa: sp 0 +
STACK CFI INIT bab24 130 .cfa: sp 0 +
STACK CFI INIT bac54 14 .cfa: sp 0 +
STACK CFI INIT bac68 5c .cfa: sp 0 +
STACK CFI INIT bacc4 14 .cfa: sp 0 +
STACK CFI INIT bacd8 5c .cfa: sp 0 +
STACK CFI INIT baf90 2c .cfa: sp 0 +
STACK CFI INIT bafbc 14 .cfa: sp 0 +
STACK CFI INIT bafd0 14 .cfa: sp 0 +
STACK CFI INIT bafe4 10 .cfa: sp 0 +
STACK CFI INIT baff4 c .cfa: sp 0 +
STACK CFI INIT bb000 c .cfa: sp 0 +
STACK CFI INIT bb00c 14 .cfa: sp 0 +
STACK CFI INIT bb020 c .cfa: sp 0 +
STACK CFI INIT bb1d0 2c .cfa: sp 0 +
STACK CFI INIT bb9ac c .cfa: sp 0 +
STACK CFI INIT bbb4c 2c .cfa: sp 0 +
STACK CFI INIT bbb78 68 .cfa: sp 0 +
STACK CFI INIT bbbe0 220 .cfa: sp 0 +
STACK CFI INIT bbe00 68 .cfa: sp 0 +
STACK CFI INIT bbe68 264 .cfa: sp 0 +
STACK CFI INIT bc0cc 10 .cfa: sp 0 +
STACK CFI INIT bc0dc c .cfa: sp 0 +
STACK CFI INIT bc0e8 c .cfa: sp 0 +
STACK CFI INIT bc0f4 1c .cfa: sp 0 +
STACK CFI INIT bc110 20c .cfa: sp 0 +
STACK CFI INIT bc31c c .cfa: sp 0 +
STACK CFI INIT bc328 2c .cfa: sp 0 +
STACK CFI INIT bc354 68 .cfa: sp 0 +
STACK CFI INIT bc3bc 68 .cfa: sp 0 +
STACK CFI INIT bc424 10 .cfa: sp 0 +
STACK CFI INIT bc434 c .cfa: sp 0 +
STACK CFI INIT bc440 c .cfa: sp 0 +
STACK CFI INIT bc44c 1c .cfa: sp 0 +
STACK CFI INIT bc468 c .cfa: sp 0 +
STACK CFI INIT bc474 2c .cfa: sp 0 +
STACK CFI INIT bc4a0 144 .cfa: sp 0 +
STACK CFI INIT bc5e4 194 .cfa: sp 0 +
STACK CFI INIT bc778 68 .cfa: sp 0 +
STACK CFI INIT bc7e0 21c .cfa: sp 0 +
STACK CFI INIT bc9fc 10 .cfa: sp 0 +
STACK CFI INIT bca0c c .cfa: sp 0 +
STACK CFI INIT bca18 c .cfa: sp 0 +
STACK CFI INIT bca24 1c .cfa: sp 0 +
STACK CFI INIT bca40 210 .cfa: sp 0 +
STACK CFI INIT bcc50 c .cfa: sp 0 +
STACK CFI INIT bcc5c 2c .cfa: sp 0 +
STACK CFI INIT bcc88 144 .cfa: sp 0 +
STACK CFI INIT bcdcc 68 .cfa: sp 0 +
STACK CFI INIT bce34 10 .cfa: sp 0 +
STACK CFI INIT bce44 c .cfa: sp 0 +
STACK CFI INIT bce50 c .cfa: sp 0 +
STACK CFI INIT bce5c 1c .cfa: sp 0 +
STACK CFI INIT bce78 c .cfa: sp 0 +
STACK CFI INIT bce84 70 .cfa: sp 0 +
STACK CFI INIT bcef4 70 .cfa: sp 0 +
STACK CFI INIT bcf64 10 .cfa: sp 0 +
STACK CFI INIT bcf74 c .cfa: sp 0 +
STACK CFI INIT bcf80 c .cfa: sp 0 +
STACK CFI INIT bcf8c 20 .cfa: sp 0 +
STACK CFI INIT bcfac 1c .cfa: sp 0 +
STACK CFI INIT bcfc8 124 .cfa: sp 0 +
STACK CFI INIT bd0ec 1dc .cfa: sp 0 +
STACK CFI INIT bd2c8 10 .cfa: sp 0 +
STACK CFI INIT bd2d8 c .cfa: sp 0 +
STACK CFI INIT bd2e4 c .cfa: sp 0 +
STACK CFI INIT bd2f0 17c .cfa: sp 0 +
STACK CFI INIT bd46c 1c .cfa: sp 0 +
STACK CFI INIT bd488 70 .cfa: sp 0 +
STACK CFI INIT bd4f8 70 .cfa: sp 0 +
STACK CFI INIT bd568 10 .cfa: sp 0 +
STACK CFI INIT bd578 c .cfa: sp 0 +
STACK CFI INIT bd584 c .cfa: sp 0 +
STACK CFI INIT bd590 20 .cfa: sp 0 +
STACK CFI INIT bd5b0 1c .cfa: sp 0 +
STACK CFI INIT bd5cc f4 .cfa: sp 0 +
STACK CFI INIT bd6c0 10c .cfa: sp 0 +
STACK CFI INIT bd7cc 10 .cfa: sp 0 +
STACK CFI INIT bd7dc c .cfa: sp 0 +
STACK CFI INIT bd7e8 c .cfa: sp 0 +
STACK CFI INIT bd7f4 f4 .cfa: sp 0 +
STACK CFI INIT bd8e8 1c .cfa: sp 0 +
STACK CFI INIT bd904 e4 .cfa: sp 0 +
STACK CFI INIT bd9e8 118 .cfa: sp 0 +
STACK CFI INIT bdb00 10 .cfa: sp 0 +
STACK CFI INIT bdb10 c .cfa: sp 0 +
STACK CFI INIT bdb1c c .cfa: sp 0 +
STACK CFI INIT bdb28 f4 .cfa: sp 0 +
STACK CFI INIT bdc1c 1c .cfa: sp 0 +
STACK CFI INIT bdc38 b0 .cfa: sp 0 +
STACK CFI INIT bdce8 94 .cfa: sp 0 +
STACK CFI INIT bdd7c 10 .cfa: sp 0 +
STACK CFI INIT bdd8c c .cfa: sp 0 +
STACK CFI INIT bdd98 c .cfa: sp 0 +
STACK CFI INIT bdda4 9c .cfa: sp 0 +
STACK CFI INIT bde40 1c .cfa: sp 0 +
STACK CFI INIT bde5c b0 .cfa: sp 0 +
STACK CFI INIT bdf0c a4 .cfa: sp 0 +
STACK CFI INIT bdfb0 10 .cfa: sp 0 +
STACK CFI INIT bdfc0 c .cfa: sp 0 +
STACK CFI INIT bdfcc c .cfa: sp 0 +
STACK CFI INIT bdfd8 9c .cfa: sp 0 +
STACK CFI INIT be074 1c .cfa: sp 0 +
STACK CFI INIT be090 f4 .cfa: sp 0 +
STACK CFI INIT be184 10c .cfa: sp 0 +
STACK CFI INIT be290 10 .cfa: sp 0 +
STACK CFI INIT be2a0 c .cfa: sp 0 +
STACK CFI INIT be2ac c .cfa: sp 0 +
STACK CFI INIT be2b8 f4 .cfa: sp 0 +
STACK CFI INIT be3ac 1c .cfa: sp 0 +
STACK CFI INIT be3c8 e4 .cfa: sp 0 +
STACK CFI INIT be4ac 118 .cfa: sp 0 +
STACK CFI INIT be5c4 10 .cfa: sp 0 +
STACK CFI INIT be5d4 c .cfa: sp 0 +
STACK CFI INIT be5e0 c .cfa: sp 0 +
STACK CFI INIT be5ec f4 .cfa: sp 0 +
STACK CFI INIT be6e0 1c .cfa: sp 0 +
STACK CFI INIT be6fc 70 .cfa: sp 0 +
STACK CFI INIT be76c 220 .cfa: sp 0 +
STACK CFI INIT be98c 70 .cfa: sp 0 +
STACK CFI INIT be9fc 260 .cfa: sp 0 +
STACK CFI INIT bec5c 10 .cfa: sp 0 +
STACK CFI INIT bec6c c .cfa: sp 0 +
STACK CFI INIT bec78 c .cfa: sp 0 +
STACK CFI INIT bec84 20 .cfa: sp 0 +
STACK CFI INIT beca4 1c .cfa: sp 0 +
STACK CFI INIT becc0 70 .cfa: sp 0 +
STACK CFI INIT bed30 70 .cfa: sp 0 +
STACK CFI INIT beda0 10 .cfa: sp 0 +
STACK CFI INIT bedb0 c .cfa: sp 0 +
STACK CFI INIT bedbc c .cfa: sp 0 +
STACK CFI INIT bedc8 20 .cfa: sp 0 +
STACK CFI INIT bede8 1c .cfa: sp 0 +
STACK CFI INIT bee04 70 .cfa: sp 0 +
STACK CFI INIT bee74 70 .cfa: sp 0 +
STACK CFI INIT beee4 10 .cfa: sp 0 +
STACK CFI INIT beef4 c .cfa: sp 0 +
STACK CFI INIT bef00 c .cfa: sp 0 +
STACK CFI INIT bef0c 20 .cfa: sp 0 +
STACK CFI INIT bef2c 1c .cfa: sp 0 +
STACK CFI INIT bef48 2c .cfa: sp 0 +
STACK CFI INIT bef74 2c .cfa: sp 0 +
STACK CFI INIT befa0 2c .cfa: sp 0 +
STACK CFI INIT befcc 2c .cfa: sp 0 +
STACK CFI INIT beff8 2c .cfa: sp 0 +
STACK CFI INIT bf024 30 .cfa: sp 0 +
STACK CFI INIT bf054 48 .cfa: sp 0 +
STACK CFI INIT bf09c 2c .cfa: sp 0 +
STACK CFI INIT bf0c8 48 .cfa: sp 0 +
STACK CFI INIT bf110 2c .cfa: sp 0 +
STACK CFI INIT bf13c c .cfa: sp 0 +
STACK CFI INIT bf148 c .cfa: sp 0 +
STACK CFI INIT bf154 c .cfa: sp 0 +
STACK CFI INIT bf160 c .cfa: sp 0 +
STACK CFI INIT bf16c ac .cfa: sp 0 +
STACK CFI INIT bf218 ac .cfa: sp 0 +
STACK CFI INIT bf2c4 20 .cfa: sp 0 +
STACK CFI INIT bf2e4 24 .cfa: sp 0 +
STACK CFI INIT bf308 ac .cfa: sp 0 +
STACK CFI INIT bf3b4 24 .cfa: sp 0 +
STACK CFI INIT bf3d8 54 .cfa: sp 0 +
STACK CFI INIT bf698 2c .cfa: sp 0 +
STACK CFI INIT bfa4c 2c .cfa: sp 0 +
STACK CFI INIT bfb50 44 .cfa: sp 0 +
STACK CFI INIT bfb94 a4 .cfa: sp 0 +
STACK CFI INIT bfc38 108 .cfa: sp 0 +
STACK CFI INIT bfdd0 4c4 .cfa: sp 0 +
STACK CFI INIT c0324 684 .cfa: sp 0 +
STACK CFI INIT c0a38 7d8 .cfa: sp 0 +
STACK CFI INIT c12a0 9dc .cfa: sp 0 +
STACK CFI INIT c1d0c 108 .cfa: sp 0 +
STACK CFI INIT c1ea4 f8 .cfa: sp 0 +
STACK CFI INIT c3a34 518 .cfa: sp 0 +
STACK CFI INIT c5dc4 278 .cfa: sp 0 +
STACK CFI INIT c603c 270 .cfa: sp 0 +
STACK CFI INIT c67e4 518 .cfa: sp 0 +
STACK CFI INIT c74b8 518 .cfa: sp 0 +
STACK CFI INIT c7e40 2c .cfa: sp 0 +
STACK CFI INIT c7e6c 2c .cfa: sp 0 +
STACK CFI INIT c7e98 2c .cfa: sp 0 +
STACK CFI INIT c7ec4 2c .cfa: sp 0 +
STACK CFI INIT c7fac 2c .cfa: sp 0 +
STACK CFI INIT c7fd8 2c .cfa: sp 0 +
STACK CFI INIT c8004 2c .cfa: sp 0 +
STACK CFI INIT c8030 2c .cfa: sp 0 +
STACK CFI INIT c805c 2c .cfa: sp 0 +
STACK CFI INIT c8088 2c .cfa: sp 0 +
STACK CFI INIT c80b4 2c .cfa: sp 0 +
STACK CFI INIT c80e0 2c .cfa: sp 0 +
STACK CFI INIT c810c 2c .cfa: sp 0 +
STACK CFI INIT c8138 2c .cfa: sp 0 +
STACK CFI INIT c8164 2c .cfa: sp 0 +
STACK CFI INIT c8190 2c .cfa: sp 0 +
STACK CFI INIT c81bc 8 .cfa: sp 0 +
STACK CFI INIT c81c4 2c .cfa: sp 0 +
STACK CFI INIT c81f0 8 .cfa: sp 0 +
STACK CFI INIT c81f8 2c .cfa: sp 0 +
STACK CFI INIT c8224 30 .cfa: sp 0 +
STACK CFI INIT c8254 38 .cfa: sp 0 +
STACK CFI INIT c828c c .cfa: sp 0 +
STACK CFI INIT c8298 c .cfa: sp 0 +
STACK CFI INIT c82a4 c .cfa: sp 0 +
STACK CFI INIT c82b0 c .cfa: sp 0 +
STACK CFI INIT c82bc c .cfa: sp 0 +
STACK CFI INIT c82c8 c .cfa: sp 0 +
STACK CFI INIT c82d4 c .cfa: sp 0 +
STACK CFI INIT c82e0 c .cfa: sp 0 +
STACK CFI INIT c82ec c .cfa: sp 0 +
STACK CFI INIT c82f8 c .cfa: sp 0 +
STACK CFI INIT c8304 c .cfa: sp 0 +
STACK CFI INIT c8310 c .cfa: sp 0 +
STACK CFI INIT c831c c .cfa: sp 0 +
STACK CFI INIT c8328 c .cfa: sp 0 +
STACK CFI INIT c8334 c .cfa: sp 0 +
STACK CFI INIT c8340 30 .cfa: sp 0 +
STACK CFI INIT c8370 38 .cfa: sp 0 +
STACK CFI INIT c83a8 c .cfa: sp 0 +
STACK CFI INIT c83b4 c .cfa: sp 0 +
STACK CFI INIT c83c0 c .cfa: sp 0 +
STACK CFI INIT c83cc c .cfa: sp 0 +
STACK CFI INIT c83d8 c .cfa: sp 0 +
STACK CFI INIT c83e4 c .cfa: sp 0 +
STACK CFI INIT c83f0 c .cfa: sp 0 +
STACK CFI INIT c83fc c .cfa: sp 0 +
STACK CFI INIT c8408 c .cfa: sp 0 +
STACK CFI INIT c8414 c .cfa: sp 0 +
STACK CFI INIT c8420 c .cfa: sp 0 +
STACK CFI INIT c842c c .cfa: sp 0 +
STACK CFI INIT c8438 c .cfa: sp 0 +
STACK CFI INIT c8444 c .cfa: sp 0 +
STACK CFI INIT c8450 c .cfa: sp 0 +
STACK CFI INIT c845c 38 .cfa: sp 0 +
STACK CFI INIT c8494 30 .cfa: sp 0 +
STACK CFI INIT c84c4 38 .cfa: sp 0 +
STACK CFI INIT c84fc 30 .cfa: sp 0 +
STACK CFI INIT c852c 38 .cfa: sp 0 +
STACK CFI INIT c8564 38 .cfa: sp 0 +
STACK CFI INIT c859c 2c .cfa: sp 0 +
STACK CFI INIT c85c8 2c .cfa: sp 0 +
STACK CFI INIT c85f4 8 .cfa: sp 0 +
STACK CFI INIT c85fc 2c .cfa: sp 0 +
STACK CFI INIT c8628 2c .cfa: sp 0 +
STACK CFI INIT c8654 a4 .cfa: sp 0 +
STACK CFI INIT c86f8 9c .cfa: sp 0 +
STACK CFI INIT c8794 a4 .cfa: sp 0 +
STACK CFI INIT c8838 9c .cfa: sp 0 +
STACK CFI INIT c88d4 a4 .cfa: sp 0 +
STACK CFI INIT c8978 9c .cfa: sp 0 +
STACK CFI INIT c8a14 a4 .cfa: sp 0 +
STACK CFI INIT c8ab8 9c .cfa: sp 0 +
STACK CFI INIT c8b54 2c .cfa: sp 0 +
STACK CFI INIT c8b80 2c .cfa: sp 0 +
STACK CFI INIT c8bac 2c .cfa: sp 0 +
STACK CFI INIT c8bd8 2c .cfa: sp 0 +
STACK CFI INIT c8c04 2c .cfa: sp 0 +
STACK CFI INIT c8c30 2c .cfa: sp 0 +
STACK CFI INIT c8c5c 2c .cfa: sp 0 +
STACK CFI INIT c8c88 2c .cfa: sp 0 +
STACK CFI INIT c8cdc 38 .cfa: sp 0 +
STACK CFI INIT c8d14 18 .cfa: sp 0 +
STACK CFI INIT c8d2c 278 .cfa: sp 0 +
STACK CFI INIT c8fa4 1d0 .cfa: sp 0 +
STACK CFI INIT c9174 20c .cfa: sp 0 +
STACK CFI INIT c9380 20c .cfa: sp 0 +
STACK CFI INIT c958c 374 .cfa: sp 0 +
STACK CFI INIT c9900 374 .cfa: sp 0 +
STACK CFI INIT c9c74 50 .cfa: sp 0 +
STACK CFI INIT c9cc4 50 .cfa: sp 0 +
STACK CFI INIT c9e94 28 .cfa: sp 0 +
STACK CFI INIT c9f78 a0 .cfa: sp 0 +
STACK CFI INIT ca018 ac .cfa: sp 0 +
STACK CFI INIT cb4e0 7c .cfa: sp 0 +
STACK CFI INIT cb55c 5c .cfa: sp 0 +
STACK CFI INIT cb5b8 2c .cfa: sp 0 +
STACK CFI INIT cb5e4 104 .cfa: sp 0 +
STACK CFI INIT cc4fc 48 .cfa: sp 0 +
STACK CFI INIT cc5c8 bc .cfa: sp 0 +
STACK CFI INIT cc684 bc .cfa: sp 0 +
STACK CFI INIT ccbc4 b4 .cfa: sp 0 +
STACK CFI INIT cceb8 5c .cfa: sp 0 +
STACK CFI INIT ccffc 48 .cfa: sp 0 +
STACK CFI INIT cd13c 64 .cfa: sp 0 +
STACK CFI INIT cd1a0 68 .cfa: sp 0 +
STACK CFI INIT cd208 90 .cfa: sp 0 +
STACK CFI INIT cd748 3c .cfa: sp 0 +
STACK CFI INIT cdb70 bc .cfa: sp 0 +
STACK CFI INIT cddd4 9c .cfa: sp 0 +
STACK CFI INIT ce1e8 150 .cfa: sp 0 +
STACK CFI INIT ce420 118 .cfa: sp 0 +
STACK CFI INIT ce538 1f8 .cfa: sp 0 +
STACK CFI INIT ce940 1c0 .cfa: sp 0 +
STACK CFI INIT ceb00 204 .cfa: sp 0 +
STACK CFI INIT ced04 9c .cfa: sp 0 +
STACK CFI INIT ceda0 84 .cfa: sp 0 +
STACK CFI INIT cf16c bc .cfa: sp 0 +
STACK CFI INIT cf228 b0 .cfa: sp 0 +
STACK CFI INIT cf2d8 148 .cfa: sp 0 +
STACK CFI INIT cf420 94 .cfa: sp 0 +
STACK CFI INIT cf4b4 94 .cfa: sp 0 +
STACK CFI INIT cfe4c 214 .cfa: sp 0 +
STACK CFI INIT d0818 15c .cfa: sp 0 +
STACK CFI INIT d0974 64 .cfa: sp 0 +
STACK CFI INIT d09d8 ac .cfa: sp 0 +
STACK CFI INIT d0a84 e8 .cfa: sp 0 +
STACK CFI INIT d0b6c a8 .cfa: sp 0 +
STACK CFI INIT d0c14 e0 .cfa: sp 0 +
STACK CFI INIT d0cf4 12c .cfa: sp 0 +
STACK CFI INIT d0e20 c0 .cfa: sp 0 +
STACK CFI INIT d0ee0 d0 .cfa: sp 0 +
STACK CFI INIT d1528 31c .cfa: sp 0 +
STACK CFI INIT d1ad4 20 .cfa: sp 0 +
STACK CFI INIT d2194 20 .cfa: sp 0 +
STACK CFI INIT d2354 198 .cfa: sp 0 +
STACK CFI INIT d24ec fc .cfa: sp 0 +
STACK CFI INIT d2860 58 .cfa: sp 0 +
STACK CFI INIT d28b8 64 .cfa: sp 0 +
STACK CFI INIT d2be8 14 .cfa: sp 0 +
STACK CFI INIT d2bfc 38 .cfa: sp 0 +
STACK CFI INIT d2c34 70 .cfa: sp 0 +
STACK CFI INIT d2ca4 8 .cfa: sp 0 +
STACK CFI INIT d3088 ec .cfa: sp 0 +
STACK CFI INIT d342c 18 .cfa: sp 0 +
STACK CFI INIT d3444 248 .cfa: sp 0 +
STACK CFI INIT d368c 18 .cfa: sp 0 +
STACK CFI INIT d36a4 4bc .cfa: sp 0 +
STACK CFI d36ac .cfa: sp 16 + x19: .cfa -16 + ^
STACK CFI d370c .cfa: sp 0 +
STACK CFI d3710 .cfa: sp 16 +
STACK CFI d382c .cfa: sp 0 +
STACK CFI d3830 .cfa: sp 16 +
STACK CFI d38dc .cfa: sp 0 +
STACK CFI d38e0 .cfa: sp 16 +
STACK CFI d3ab4 .cfa: sp 0 +
STACK CFI d3ab8 .cfa: sp 16 +
STACK CFI d3b00 .cfa: sp 0 +
STACK CFI d3b04 .cfa: sp 16 +
STACK CFI d3b5c .cfa: sp 0 +
STACK CFI INIT d3b60 134 .cfa: sp 0 +
STACK CFI INIT d4008 5c .cfa: sp 0 +
STACK CFI INIT d471c 10 .cfa: sp 0 +
STACK CFI INIT d4b20 5c .cfa: sp 0 +
STACK CFI INIT d4b7c 7c .cfa: sp 0 +
STACK CFI INIT d4bf8 a4 .cfa: sp 0 +
STACK CFI INIT d4ee4 10 .cfa: sp 0 +
STACK CFI INIT d4ef4 14 .cfa: sp 0 +
STACK CFI INIT d4f08 50 .cfa: sp 0 +
STACK CFI INIT d4f58 88 .cfa: sp 0 +
STACK CFI INIT d540c 14 .cfa: sp 0 +
STACK CFI INIT d5420 38 .cfa: sp 0 +
STACK CFI INIT d5458 7c .cfa: sp 0 +
STACK CFI INIT d54d4 8 .cfa: sp 0 +
STACK CFI INIT d55bc 14 .cfa: sp 0 +
STACK CFI INIT d55d0 38 .cfa: sp 0 +
STACK CFI INIT d5608 90 .cfa: sp 0 +
STACK CFI INIT d5698 8 .cfa: sp 0 +
STACK CFI INIT d56a0 19c .cfa: sp 0 +
STACK CFI INIT d5dc0 18c .cfa: sp 0 +
STACK CFI INIT d5f4c 198 .cfa: sp 0 +
STACK CFI INIT d60e4 120 .cfa: sp 0 +
STACK CFI INIT d6204 8 .cfa: sp 0 +
STACK CFI INIT d620c 2c .cfa: sp 0 +
STACK CFI INIT d6238 10 .cfa: sp 0 +
STACK CFI INIT d6248 2c .cfa: sp 0 +
STACK CFI INIT d6274 10 .cfa: sp 0 +
STACK CFI INIT d6284 18 .cfa: sp 0 +
STACK CFI INIT d629c 2c .cfa: sp 0 +
STACK CFI INIT d62c8 10 .cfa: sp 0 +
STACK CFI INIT d62d8 18 .cfa: sp 0 +
STACK CFI INIT d62f0 2c .cfa: sp 0 +
STACK CFI INIT d631c 10 .cfa: sp 0 +
STACK CFI INIT d632c 6c .cfa: sp 0 +
STACK CFI INIT d6398 2c .cfa: sp 0 +
STACK CFI INIT d63c4 c .cfa: sp 0 +
STACK CFI INIT d63d0 6c .cfa: sp 0 +
STACK CFI INIT d643c 2c .cfa: sp 0 +
STACK CFI INIT d6468 c .cfa: sp 0 +
STACK CFI INIT d6474 2c .cfa: sp 0 +
STACK CFI INIT d64a0 2c .cfa: sp 0 +
STACK CFI INIT d64cc 2c .cfa: sp 0 +
STACK CFI INIT d64f8 2c .cfa: sp 0 +
STACK CFI INIT d6524 2c .cfa: sp 0 +
STACK CFI INIT d6550 2c .cfa: sp 0 +
STACK CFI INIT d657c 2c .cfa: sp 0 +
STACK CFI INIT d65a8 8 .cfa: sp 0 +
STACK CFI INIT d65b0 2c .cfa: sp 0 +
STACK CFI INIT d65dc 18 .cfa: sp 0 +
STACK CFI INIT d65f4 8 .cfa: sp 0 +
STACK CFI INIT d65fc 2c .cfa: sp 0 +
STACK CFI INIT d6628 10 .cfa: sp 0 +
STACK CFI INIT d6638 18 .cfa: sp 0 +
STACK CFI INIT d6650 8 .cfa: sp 0 +
STACK CFI INIT d6658 2c .cfa: sp 0 +
STACK CFI INIT d6684 10 .cfa: sp 0 +
STACK CFI INIT d6694 c .cfa: sp 0 +
STACK CFI INIT d66a0 24 .cfa: sp 0 +
STACK CFI INIT d67e8 3c .cfa: sp 0 +
STACK CFI INIT d6824 8 .cfa: sp 0 +
STACK CFI INIT d682c 84 .cfa: sp 0 +
STACK CFI INIT d6918 24 .cfa: sp 0 +
STACK CFI INIT d693c c .cfa: sp 0 +
STACK CFI INIT d6aa4 58 .cfa: sp 0 +
STACK CFI INIT d6be0 2c .cfa: sp 0 +
STACK CFI INIT d6eb0 5c .cfa: sp 0 +
STACK CFI INIT d71e8 14 .cfa: sp 0 +
STACK CFI INIT d723c 1c .cfa: sp 0 +
STACK CFI INIT d7258 1c .cfa: sp 0 +
STACK CFI INIT d7274 14 .cfa: sp 0 +
STACK CFI INIT d72b8 14 .cfa: sp 0 +
STACK CFI INIT d741c 20 .cfa: sp 0 +
STACK CFI INIT d743c 34 .cfa: sp 0 +
STACK CFI INIT d7470 34 .cfa: sp 0 +
STACK CFI INIT d74a4 24 .cfa: sp 0 +
STACK CFI INIT d74c8 8 .cfa: sp 0 +
STACK CFI INIT d74d0 8 .cfa: sp 0 +
STACK CFI INIT d74d8 108 .cfa: sp 0 +
STACK CFI INIT d7734 3c .cfa: sp 0 +
STACK CFI INIT d77dc 68 .cfa: sp 0 +
STACK CFI INIT d7844 58 .cfa: sp 0 +
STACK CFI INIT d789c 234 .cfa: sp 0 +
STACK CFI INIT d7ad0 1cc .cfa: sp 0 +
STACK CFI INIT d7c9c 38 .cfa: sp 0 +
STACK CFI INIT d7cd4 3c .cfa: sp 0 +
STACK CFI INIT d7d10 88 .cfa: sp 0 +
STACK CFI INIT d7da0 34 .cfa: sp 0 +
STACK CFI INIT d7dd4 98 .cfa: sp 0 +
STACK CFI INIT d7e6c 438 .cfa: sp 0 +
STACK CFI d7e74 .cfa: sp 48 +
STACK CFI d7e7c x19: .cfa -8 + ^ x20: .cfa -16 + ^ x21: .cfa -24 + ^ x22: .cfa -32 + ^ x23: .cfa -40 + ^ x24: .cfa -48 + ^
STACK CFI d7e94 .cfa: sp 0 +
STACK CFI d7e98 .cfa: sp 48 +
STACK CFI d8284 .cfa: sp 0 +
STACK CFI d8288 .cfa: sp 48 +
STACK CFI d82a0 .cfa: sp 0 +
STACK CFI INIT d82a4 98 .cfa: sp 0 +
STACK CFI INIT d8340 2c .cfa: sp 0 +
STACK CFI INIT d8370 30 .cfa: sp 0 +
STACK CFI INIT d83a0 30 .cfa: sp 0 +
STACK CFI INIT d83d0 30 .cfa: sp 0 +
STACK CFI INIT d8990 18 .cfa: sp 0 +
STACK CFI INIT dcce8 18 .cfa: sp 0 +
STACK CFI INIT dcd00 18 .cfa: sp 0 +
STACK CFI INIT dcd18 18 .cfa: sp 0 +
STACK CFI INIT dcd30 18 .cfa: sp 0 +
STACK CFI INIT dcd48 18 .cfa: sp 0 +
STACK CFI INIT dcd60 18 .cfa: sp 0 +
STACK CFI INIT dcd78 18 .cfa: sp 0 +
STACK CFI INIT dcd90 18 .cfa: sp 0 +
STACK CFI INIT dcda8 18 .cfa: sp 0 +
STACK CFI INIT dcdc0 18 .cfa: sp 0 +
STACK CFI INIT dcdd8 18 .cfa: sp 0 +
STACK CFI INIT dcdf0 18 .cfa: sp 0 +
STACK CFI INIT dd808 50 .cfa: sp 0 +
STACK CFI dd80c .cfa: sp 32 +
STACK CFI dd814 .cfa: x29 32 + x19: .cfa -16 + ^ .ra: .cfa -24 + ^ x29: .cfa -32 + ^
STACK CFI dd82c .cfa: sp 32 +
STACK CFI dd834 .cfa: sp 0 +
STACK CFI dd838 .cfa: x29 32 +
STACK CFI dd84c .cfa: sp 32 +
STACK CFI dd854 .cfa: sp 0 +
STACK CFI INIT dd858 4 .cfa: sp 0 +
STACK CFI INIT dd85c 14 .cfa: sp 0 +
STACK CFI dd860 .cfa: sp 16 +
STACK CFI dd864 .cfa: x29 16 + .ra: .cfa -8 + ^ x29: .cfa -16 + ^
STACK CFI INIT dd8c0 30 .cfa: sp 0 +
STACK CFI dd8c4 .cfa: sp 32 +
STACK CFI dd8cc .cfa: x29 32 + x19: .cfa -16 + ^ .ra: .cfa -24 + ^ x29: .cfa -32 + ^
STACK CFI dd8e4 .cfa: sp 32 +
STACK CFI dd8ec .cfa: sp 0 +
STACK CFI INIT dd8f0 34 .cfa: sp 0 +
STACK CFI dd8f4 .cfa: sp 32 +
STACK CFI dd8fc .cfa: x29 32 + x19: .cfa -16 + ^ .ra: .cfa -24 + ^ x29: .cfa -32 + ^
STACK CFI INIT ddbac 68 .cfa: sp 0 +
STACK CFI ddbb0 .cfa: sp 32 +
STACK CFI ddbb8 .cfa: x29 32 + x19: .cfa -8 + ^ x20: .cfa -16 + ^ .ra: .cfa -24 + ^ x29: .cfa -32 + ^
STACK CFI ddbd0 .cfa: sp 32 +
STACK CFI ddbd8 .cfa: sp 0 +
STACK CFI ddbdc .cfa: x29 32 +
STACK CFI ddc08 .cfa: sp 32 +
STACK CFI ddc10 .cfa: sp 0 +
STACK CFI INIT ddc14 14 .cfa: sp 0 +
STACK CFI ddc18 .cfa: sp 16 +
STACK CFI ddc1c .cfa: x29 16 + .ra: .cfa -8 + ^ x29: .cfa -16 + ^
STACK CFI INIT ddc28 10c .cfa: sp 0 +
STACK CFI ddc2c .cfa: sp 64 +
STACK CFI ddc3c .cfa: x29 64 + x19: .cfa -8 + ^ x20: .cfa -16 + ^ x21: .cfa -24 + ^ x22: .cfa -32 + ^ x23: .cfa -40 + ^ x24: .cfa -48 + ^ .ra: .cfa -56 + ^ x29: .cfa -64 + ^
STACK CFI ddd20 .cfa: sp 64 +
STACK CFI ddd30 .cfa: sp 0 +
STACK CFI INIT ddd34 4a8 .cfa: sp 0 +
STACK CFI ddd38 .cfa: sp 32 +
STACK CFI ddd40 .cfa: x29 32 + x19: .cfa -8 + ^ x20: .cfa -16 + ^ .ra: .cfa -24 + ^ x29: .cfa -32 + ^
STACK CFI de11c .cfa: sp 32 +
STACK CFI de124 .cfa: sp 0 +
STACK CFI de128 .cfa: x29 32 +
STACK CFI INIT de1dc 84 .cfa: sp 0 +
STACK CFI de1e4 .cfa: sp 32 +
STACK CFI de1ec .cfa: x29 32 + x19: .cfa -8 + ^ x20: .cfa -16 + ^ .ra: .cfa -24 + ^ x29: .cfa -32 + ^
STACK CFI de22c .cfa: sp 32 +
STACK CFI de234 .cfa: sp 0 +
STACK CFI de23c .cfa: x29 32 +
STACK CFI INIT df190 50 .cfa: sp 0 +
STACK CFI df194 .cfa: sp 32 +
STACK CFI df19c .cfa: x29 32 + x19: .cfa -16 + ^ .ra: .cfa -24 + ^ x29: .cfa -32 + ^
STACK CFI df1b4 .cfa: sp 32 +
STACK CFI df1bc .cfa: sp 0 +
STACK CFI df1c0 .cfa: x29 32 +
STACK CFI df1d4 .cfa: sp 32 +
STACK CFI df1dc .cfa: sp 0 +
STACK CFI INIT df1e0 64 .cfa: sp 0 +
STACK CFI df1e4 .cfa: sp 32 +
STACK CFI df1ec .cfa: x29 32 + x19: .cfa -16 + ^ .ra: .cfa -24 + ^ x29: .cfa -32 + ^
STACK CFI df218 .cfa: sp 32 +
STACK CFI df220 .cfa: sp 0 +
STACK CFI df224 .cfa: x29 32 +
STACK CFI df238 .cfa: sp 32 +
STACK CFI df240 .cfa: sp 0 +
STACK CFI INIT df7e0 f4 .cfa: sp 0 +
STACK CFI df7e4 .cfa: sp 64 +
STACK CFI df7f4 .cfa: x29 64 + x19: .cfa -8 + ^ x20: .cfa -16 + ^ x21: .cfa -24 + ^ x22: .cfa -32 + ^ x23: .cfa -48 + ^ .ra: .cfa -56 + ^ x29: .cfa -64 + ^
STACK CFI df84c .cfa: sp 64 +
STACK CFI df85c .cfa: sp 0 +
STACK CFI df860 .cfa: x29 64 +
STACK CFI df87c .cfa: sp 64 +
STACK CFI df88c .cfa: sp 0 +
STACK CFI df890 .cfa: x29 64 +
STACK CFI df8c0 .cfa: sp 64 +
STACK CFI df8d0 .cfa: sp 0 +
STACK CFI INIT df8d4 104 .cfa: sp 0 +
STACK CFI df8d8 .cfa: sp 80 +
STACK CFI df8ec .cfa: x29 80 + x19: .cfa -8 + ^ x20: .cfa -16 + ^ x21: .cfa -24 + ^ x22: .cfa -32 + ^ x23: .cfa -40 + ^ x24: .cfa -48 + ^ x25: .cfa -56 + ^ x26: .cfa -64 + ^ .ra: .cfa -72 + ^ x29: .cfa -80 + ^
STACK CFI df9c0 .cfa: sp 80 +
STACK CFI df9d4 .cfa: sp 0 +
STACK CFI INIT df9d8 1b4 .cfa: sp 0 +
STACK CFI INIT dff6c 4 .cfa: sp 0 +
STACK CFI INIT e1004 4 .cfa: sp 0 +
STACK CFI INIT e1008 188 .cfa: sp 0 +
STACK CFI e100c .cfa: sp 80 +
STACK CFI e1020 .cfa: x29 64 + x19: .cfa -8 + ^ x20: .cfa -16 + ^ x21: .cfa -24 + ^ x22: .cfa -32 + ^ x23: .cfa -40 + ^ x24: .cfa -48 + ^ .ra: .cfa -56 + ^ x29: .cfa -64 + ^
STACK CFI e1174 .cfa: sp 80 +
STACK CFI e1188 .cfa: sp 0 +
STACK CFI e118c .cfa: x29 64 +
STACK CFI INIT e1190 488 .cfa: sp 0 +
STACK CFI e1194 .cfa: sp 112 +
STACK CFI e11b0 .cfa: x29 80 + x19: .cfa -8 + ^ x20: .cfa -16 + ^ x21: .cfa -24 + ^ x22: .cfa -32 + ^ x23: .cfa -40 + ^ x24: .cfa -48 + ^ x25: .cfa -56 + ^ x26: .cfa -64 + ^ .ra: .cfa -72 + ^ x29: .cfa -80 + ^ v8: .cfa -96 + ^
STACK CFI e1510 .cfa: sp 112 +
STACK CFI e152c .cfa: sp 0 +
STACK CFI e1530 .cfa: x29 80 +
STACK CFI INIT e1d3c 4 .cfa: sp 0 +
STACK CFI INIT e1d40 188 .cfa: sp 0 +
STACK CFI e1d44 .cfa: sp 80 +
STACK CFI e1d58 .cfa: x29 64 + x19: .cfa -8 + ^ x20: .cfa -16 + ^ x21: .cfa -24 + ^ x22: .cfa -32 + ^ x23: .cfa -40 + ^ x24: .cfa -48 + ^ .ra: .cfa -56 + ^ x29: .cfa -64 + ^
STACK CFI e1eac .cfa: sp 80 +
STACK CFI e1ec0 .cfa: sp 0 +
STACK CFI e1ec4 .cfa: x29 64 +
STACK CFI INIT e1ec8 488 .cfa: sp 0 +
STACK CFI e1ecc .cfa: sp 112 +
STACK CFI e1ee8 .cfa: x29 80 + x19: .cfa -8 + ^ x20: .cfa -16 + ^ x21: .cfa -24 + ^ x22: .cfa -32 + ^ x23: .cfa -40 + ^ x24: .cfa -48 + ^ x25: .cfa -56 + ^ x26: .cfa -64 + ^ .ra: .cfa -72 + ^ x29: .cfa -80 + ^ v8: .cfa -96 + ^
STACK CFI e2248 .cfa: sp 112 +
STACK CFI e2264 .cfa: sp 0 +
STACK CFI e2268 .cfa: x29 80 +
STACK CFI INIT e2ac0 4 .cfa: sp 0 +
STACK CFI INIT e2ac4 188 .cfa: sp 0 +
STACK CFI e2ac8 .cfa: sp 80 +
STACK CFI e2adc .cfa: x29 64 + x19: .cfa -8 + ^ x20: .cfa -16 + ^ x21: .cfa -24 + ^ x22: .cfa -32 + ^ x23: .cfa -40 + ^ x24: .cfa -48 + ^ .ra: .cfa -56 + ^ x29: .cfa -64 + ^
STACK CFI e2c30 .cfa: sp 80 +
STACK CFI e2c44 .cfa: sp 0 +
STACK CFI e2c48 .cfa: x29 64 +
STACK CFI INIT e2c4c 488 .cfa: sp 0 +
STACK CFI e2c50 .cfa: sp 112 +
STACK CFI e2c6c .cfa: x29 80 + x19: .cfa -8 + ^ x20: .cfa -16 + ^ x21: .cfa -24 + ^ x22: .cfa -32 + ^ x23: .cfa -40 + ^ x24: .cfa -48 + ^ x25: .cfa -56 + ^ x26: .cfa -64 + ^ .ra: .cfa -72 + ^ x29: .cfa -80 + ^ v8: .cfa -96 + ^
STACK CFI e2fcc .cfa: sp 112 +
STACK CFI e2fe8 .cfa: sp 0 +
STACK CFI e2fec .cfa: x29 80 +
STACK CFI INIT e3828 4 .cfa: sp 0 +
STACK CFI INIT e436c 4 .cfa: sp 0 +
STACK CFI INIT e4370 188 .cfa: sp 0 +
STACK CFI e4374 .cfa: sp 80 +
STACK CFI e4388 .cfa: x29 64 + x19: .cfa -8 + ^ x20: .cfa -16 + ^ x21: .cfa -24 + ^ x22: .cfa -32 + ^ x23: .cfa -40 + ^ x24: .cfa -48 + ^ .ra: .cfa -56 + ^ x29: .cfa -64 + ^
STACK CFI e44dc .cfa: sp 80 +
STACK CFI e44f0 .cfa: sp 0 +
STACK CFI e44f4 .cfa: x29 64 +
STACK CFI INIT e4848 4 .cfa: sp 0 +
STACK CFI INIT e484c 188 .cfa: sp 0 +
STACK CFI e4850 .cfa: sp 80 +
STACK CFI e4864 .cfa: x29 64 + x19: .cfa -8 + ^ x20: .cfa -16 + ^ x21: .cfa -24 + ^ x22: .cfa -32 + ^ x23: .cfa -40 + ^ x24: .cfa -48 + ^ .ra: .cfa -56 + ^ x29: .cfa -64 + ^
STACK CFI e49b8 .cfa: sp 80 +
STACK CFI e49cc .cfa: sp 0 +
STACK CFI e49d0 .cfa: x29 64 +
STACK CFI INIT e4e5c 4 .cfa: sp 0 +
STACK CFI INIT e4e60 188 .cfa: sp 0 +
STACK CFI e4e64 .cfa: sp 80 +
STACK CFI e4e78 .cfa: x29 64 + x19: .cfa -8 + ^ x20: .cfa -16 + ^ x21: .cfa -24 + ^ x22: .cfa -32 + ^ x23: .cfa -40 + ^ x24: .cfa -48 + ^ .ra: .cfa -56 + ^ x29: .cfa -64 + ^
STACK CFI e4fcc .cfa: sp 80 +
STACK CFI e4fe0 .cfa: sp 0 +
STACK CFI e4fe4 .cfa: x29 64 +
STACK CFI INIT e5470 4 .cfa: sp 0 +
STACK CFI INIT e5474 188 .cfa: sp 0 +
STACK CFI e5478 .cfa: sp 80 +
STACK CFI e548c .cfa: x29 64 + x19: .cfa -8 + ^ x20: .cfa -16 + ^ x21: .cfa -24 + ^ x22: .cfa -32 + ^ x23: .cfa -40 + ^ x24: .cfa -48 + ^ .ra: .cfa -56 + ^ x29: .cfa -64 + ^
STACK CFI e55e0 .cfa: sp 80 +
STACK CFI e55f4 .cfa: sp 0 +
STACK CFI e55f8 .cfa: x29 64 +
STACK CFI INIT e5a4c 4 .cfa: sp 0 +
STACK CFI INIT e5a50 188 .cfa: sp 0 +
STACK CFI e5a54 .cfa: sp 80 +
STACK CFI e5a68 .cfa: x29 64 + x19: .cfa -8 + ^ x20: .cfa -16 + ^ x21: .cfa -24 + ^ x22: .cfa -32 + ^ x23: .cfa -40 + ^ x24: .cfa -48 + ^ .ra: .cfa -56 + ^ x29: .cfa -64 + ^
STACK CFI e5bbc .cfa: sp 80 +
STACK CFI e5bd0 .cfa: sp 0 +
STACK CFI e5bd4 .cfa: x29 64 +
STACK CFI INIT e603c 4 .cfa: sp 0 +
STACK CFI INIT e6040 188 .cfa: sp 0 +
STACK CFI e6044 .cfa: sp 80 +
STACK CFI e6058 .cfa: x29 64 + x19: .cfa -8 + ^ x20: .cfa -16 + ^ x21: .cfa -24 + ^ x22: .cfa -32 + ^ x23: .cfa -40 + ^ x24: .cfa -48 + ^ .ra: .cfa -56 + ^ x29: .cfa -64 + ^
STACK CFI e61ac .cfa: sp 80 +
STACK CFI e61c0 .cfa: sp 0 +
STACK CFI e61c4 .cfa: x29 64 +
STACK CFI INIT e6794 4 .cfa: sp 0 +
STACK CFI INIT e6a54 3c .cfa: sp 0 +
STACK CFI e6a58 .cfa: sp 32 +
STACK CFI e6a60 .cfa: x29 32 + x19: .cfa -16 + ^ .ra: .cfa -24 + ^ x29: .cfa -32 + ^
STACK CFI e6a6c .cfa: sp 32 +
STACK CFI e6a74 .cfa: sp 0 +
STACK CFI e6a78 .cfa: x29 32 +
STACK CFI e6a84 .cfa: sp 32 +
STACK CFI e6a8c .cfa: sp 0 +
STACK CFI INIT e6a90 10 .cfa: sp 0 +
STACK CFI e6a94 .cfa: sp 16 +
STACK CFI e6a98 .cfa: x29 16 + .ra: .cfa -8 + ^ x29: .cfa -16 + ^
STACK CFI INIT e6bdc bc .cfa: sp 0 +
STACK CFI e6be0 .cfa: sp 48 +
STACK CFI e6bec .cfa: x29 48 + x19: .cfa -8 + ^ x20: .cfa -16 + ^ x21: .cfa -24 + ^ x22: .cfa -32 + ^ .ra: .cfa -40 + ^ x29: .cfa -48 + ^
STACK CFI e6c00 .cfa: sp 48 +
STACK CFI e6c0c .cfa: sp 0 +
STACK CFI e6c10 .cfa: x29 48 +
STACK CFI e6c28 .cfa: sp 48 +
STACK CFI e6c34 .cfa: sp 0 +
STACK CFI e6c38 .cfa: x29 48 +
STACK CFI e6c80 .cfa: sp 48 +
STACK CFI e6c8c .cfa: sp 0 +
STACK CFI e6c90 .cfa: x29 48 +
STACK CFI INIT e6d98 64 .cfa: sp 0 +
STACK CFI e6d9c .cfa: sp 32 +
STACK CFI e6da4 .cfa: x29 32 + x19: .cfa -16 + ^ .ra: .cfa -24 + ^ x29: .cfa -32 + ^
STACK CFI e6dd0 .cfa: sp 32 +
STACK CFI e6dd8 .cfa: sp 0 +
STACK CFI e6ddc .cfa: x29 32 +
STACK CFI e6df0 .cfa: sp 32 +
STACK CFI e6df8 .cfa: sp 0 +
STACK CFI INIT e7960 3c .cfa: sp 0 +
STACK CFI e7964 .cfa: sp 32 +
STACK CFI e796c .cfa: x29 32 + x19: .cfa -16 + ^ .ra: .cfa -24 + ^ x29: .cfa -32 + ^
STACK CFI e7990 .cfa: sp 32 +
STACK CFI e7998 .cfa: sp 0 +
STACK CFI INIT e799c 44 .cfa: sp 0 +
STACK CFI e79a0 .cfa: sp 32 +
STACK CFI e79a8 .cfa: x29 32 + x19: .cfa -16 + ^ .ra: .cfa -24 + ^ x29: .cfa -32 + ^
STACK CFI e79d4 .cfa: sp 32 +
STACK CFI e79dc .cfa: sp 0 +
STACK CFI INIT e7a30 30 .cfa: sp 0 +
STACK CFI e7a34 .cfa: sp 32 +
STACK CFI e7a3c .cfa: x29 32 + x19: .cfa -16 + ^ .ra: .cfa -24 + ^ x29: .cfa -32 + ^
STACK CFI e7a54 .cfa: sp 32 +
STACK CFI e7a5c .cfa: sp 0 +
STACK CFI INIT e7a60 14 .cfa: sp 0 +
STACK CFI e7a64 .cfa: sp 16 +
STACK CFI e7a68 .cfa: x29 16 + .ra: .cfa -8 + ^ x29: .cfa -16 + ^
STACK CFI INIT e7a74 c .cfa: sp 0 +
STACK CFI INIT e7a80 a0 .cfa: sp 0 +
STACK CFI e7a8c .cfa: sp 32 +
STACK CFI e7ae4 .cfa: sp 0 +
STACK CFI e7ae8 .cfa: sp 32 +
STACK CFI e7af0 .cfa: sp 0 +
STACK CFI e7af4 .cfa: sp 32 +
STACK CFI e7b08 .cfa: sp 0 +
STACK CFI e7b0c .cfa: sp 32 +
STACK CFI e7b1c .cfa: sp 0 +
STACK CFI INIT e7b20 38 .cfa: sp 0 +
STACK CFI e7b2c .cfa: sp 32 +
STACK CFI e7b54 .cfa: sp 0 +
STACK CFI INIT e7ba8 30 .cfa: sp 0 +
STACK CFI e7bac .cfa: sp 32 +
STACK CFI e7bb4 .cfa: x29 32 + x19: .cfa -16 + ^ .ra: .cfa -24 + ^ x29: .cfa -32 + ^
STACK CFI e7bcc .cfa: sp 32 +
STACK CFI e7bd4 .cfa: sp 0 +
STACK CFI INIT e7dd4 7c .cfa: sp 0 +
STACK CFI e7dd8 .cfa: sp 32 +
STACK CFI e7de0 .cfa: x29 32 + x19: .cfa -16 + ^ .ra: .cfa -24 + ^ x29: .cfa -32 + ^
STACK CFI e7e0c .cfa: sp 32 +
STACK CFI e7e14 .cfa: sp 0 +
STACK CFI e7e18 .cfa: x29 32 +
STACK CFI e7e44 .cfa: sp 32 +
STACK CFI e7e4c .cfa: sp 0 +
STACK CFI INIT e8afc 64 .cfa: sp 0 +
STACK CFI e8b00 .cfa: sp 32 +
STACK CFI e8b08 .cfa: x29 32 + x19: .cfa -16 + ^ .ra: .cfa -24 + ^ x29: .cfa -32 + ^
STACK CFI e8b24 .cfa: sp 32 +
STACK CFI e8b2c .cfa: sp 0 +
STACK CFI e8b30 .cfa: x29 32 +
STACK CFI e8b54 .cfa: sp 32 +
STACK CFI e8b5c .cfa: sp 0 +
STACK CFI INIT e8b60 700 .cfa: sp 0 +
STACK CFI e8b64 .cfa: sp 192 +
STACK CFI e8b78 .cfa: x29 64 + x19: .cfa -8 + ^ x20: .cfa -16 + ^ x21: .cfa -24 + ^ x22: .cfa -32 + ^ x23: .cfa -40 + ^ x24: .cfa -48 + ^ .ra: .cfa -56 + ^ x29: .cfa -64 + ^
STACK CFI e8dbc .cfa: sp 192 +
STACK CFI e8dd0 .cfa: sp 0 +
STACK CFI e8dd4 .cfa: x29 64 +
STACK CFI e8e38 .cfa: sp 192 +
STACK CFI e8e4c .cfa: sp 0 +
STACK CFI e8e50 .cfa: x29 64 +
STACK CFI e8e6c .cfa: sp 192 +
STACK CFI e8e80 .cfa: sp 0 +
STACK CFI e8e84 .cfa: x29 64 +
STACK CFI e8f40 .cfa: sp 192 +
STACK CFI e8f54 .cfa: sp 0 +
STACK CFI e8f58 .cfa: x29 64 +
STACK CFI e8f94 .cfa: sp 192 +
STACK CFI e8fa8 .cfa: sp 0 +
STACK CFI e8fac .cfa: x29 64 +
STACK CFI e8fc4 .cfa: sp 192 +
STACK CFI e8fd8 .cfa: sp 0 +
STACK CFI e8fdc .cfa: x29 64 +
STACK CFI e8ff4 .cfa: sp 192 +
STACK CFI e9008 .cfa: sp 0 +
STACK CFI e900c .cfa: x29 64 +
STACK CFI e9028 .cfa: sp 192 +
STACK CFI e903c .cfa: sp 0 +
STACK CFI e9040 .cfa: x29 64 +
STACK CFI e9160 .cfa: sp 192 +
STACK CFI e9174 .cfa: sp 0 +
STACK CFI e9178 .cfa: x29 64 +
STACK CFI INIT e9260 224 .cfa: sp 0 +
STACK CFI INIT e9484 308 .cfa: sp 0 +
STACK CFI INIT e978c 5ac .cfa: sp 0 +
STACK CFI INIT e9d38 24 .cfa: sp 0 +
STACK CFI e9d3c .cfa: sp 32 +
STACK CFI e9d44 .cfa: x29 32 + x19: .cfa -16 + ^ .ra: .cfa -24 + ^ x29: .cfa -32 + ^
STACK CFI e9d50 .cfa: sp 32 +
STACK CFI e9d58 .cfa: sp 0 +
STACK CFI INIT e9d5c 138 .cfa: sp 0 +
STACK CFI e9d60 .cfa: sp 48 +
STACK CFI e9d6c .cfa: x29 48 + x19: .cfa -8 + ^ x20: .cfa -16 + ^ x21: .cfa -32 + ^ .ra: .cfa -40 + ^ x29: .cfa -48 + ^
STACK CFI e9e74 .cfa: sp 48 +
STACK CFI e9e80 .cfa: sp 0 +
STACK CFI e9e84 .cfa: sp 48 +
STACK CFI e9e90 .cfa: sp 0 +
STACK CFI INIT e9e94 8c .cfa: sp 0 +
STACK CFI e9e98 .cfa: sp 32 +
STACK CFI e9ea0 .cfa: x29 32 + x19: .cfa -16 + ^ .ra: .cfa -24 + ^ x29: .cfa -32 + ^
STACK CFI e9ed4 .cfa: sp 32 +
STACK CFI e9edc .cfa: sp 0 +
STACK CFI e9ee0 .cfa: x29 32 +
STACK CFI e9f14 .cfa: sp 32 +
STACK CFI e9f1c .cfa: sp 0 +
STACK CFI INIT e9f20 238 .cfa: sp 0 +
STACK CFI e9f24 .cfa: sp 80 +
STACK CFI e9f34 .cfa: x29 48 + x19: .cfa -8 + ^ x20: .cfa -16 + ^ x21: .cfa -24 + ^ x22: .cfa -32 + ^ .ra: .cfa -40 + ^ x29: .cfa -48 + ^
STACK CFI ea100 .cfa: sp 80 +
STACK CFI ea110 .cfa: sp 0 +
STACK CFI ea114 .cfa: x29 48 +
STACK CFI INIT ea158 16c .cfa: sp 0 +
STACK CFI ea15c .cfa: sp 48 +
STACK CFI ea168 .cfa: x29 48 + x19: .cfa -8 + ^ x20: .cfa -16 + ^ x21: .cfa -24 + ^ x22: .cfa -32 + ^ .ra: .cfa -40 + ^ x29: .cfa -48 + ^
STACK CFI ea2b4 .cfa: sp 48 +
STACK CFI ea2c0 .cfa: sp 0 +
STACK CFI INIT ea2c4 1ac .cfa: sp 0 +
STACK CFI ea2c8 .cfa: sp 64 +
STACK CFI ea2d4 .cfa: x29 32 + x19: .cfa -8 + ^ x20: .cfa -16 + ^ .ra: .cfa -24 + ^ x29: .cfa -32 + ^
STACK CFI ea438 .cfa: sp 64 +
STACK CFI ea444 .cfa: sp 0 +
STACK CFI ea448 .cfa: x29 32 +
STACK CFI INIT ea470 25c .cfa: sp 0 +
STACK CFI ea474 .cfa: sp 80 +
STACK CFI ea484 .cfa: x29 48 + x19: .cfa -8 + ^ x20: .cfa -16 + ^ x21: .cfa -24 + ^ x22: .cfa -32 + ^ .ra: .cfa -40 + ^ x29: .cfa -48 + ^
STACK CFI ea674 .cfa: sp 80 +
STACK CFI ea684 .cfa: sp 0 +
STACK CFI ea688 .cfa: x29 48 +
STACK CFI INIT ea6cc 1d4 .cfa: sp 0 +
STACK CFI ea6d0 .cfa: sp 64 +
STACK CFI ea6dc .cfa: x29 32 + x19: .cfa -8 + ^ x20: .cfa -16 + ^ .ra: .cfa -24 + ^ x29: .cfa -32 + ^
STACK CFI ea868 .cfa: sp 64 +
STACK CFI ea874 .cfa: sp 0 +
STACK CFI ea878 .cfa: x29 32 +
STACK CFI INIT ea8a0 334 .cfa: sp 0 +
STACK CFI ea8a4 .cfa: sp 160 +
STACK CFI ea8c0 .cfa: x29 96 + x19: .cfa -8 + ^ x20: .cfa -16 + ^ x21: .cfa -24 + ^ x22: .cfa -32 + ^ x23: .cfa -40 + ^ x24: .cfa -48 + ^ x25: .cfa -56 + ^ x26: .cfa -64 + ^ x27: .cfa -72 + ^ x28: .cfa -80 + ^ .ra: .cfa -88 + ^ x29: .cfa -96 + ^
STACK CFI eab60 .cfa: sp 160 +
STACK CFI eab7c .cfa: sp 0 +
STACK CFI eab80 .cfa: x29 96 +
STACK CFI INIT eabd4 2d0 .cfa: sp 0 +
STACK CFI eabd8 .cfa: sp 144 +
STACK CFI eabf4 .cfa: x29 96 + x19: .cfa -8 + ^ x20: .cfa -16 + ^ x21: .cfa -24 + ^ x22: .cfa -32 + ^ x23: .cfa -40 + ^ x24: .cfa -48 + ^ x25: .cfa -56 + ^ x26: .cfa -64 + ^ x27: .cfa -72 + ^ x28: .cfa -80 + ^ .ra: .cfa -88 + ^ x29: .cfa -96 + ^
STACK CFI eae80 .cfa: sp 144 +
STACK CFI eae9c .cfa: sp 0 +
STACK CFI eaea0 .cfa: x29 96 +
STACK CFI INIT eaea4 28c .cfa: sp 0 +
STACK CFI eaea8 .cfa: sp 128 +
STACK CFI eaec0 .cfa: x29 80 + x19: .cfa -8 + ^ x20: .cfa -16 + ^ x21: .cfa -24 + ^ x22: .cfa -32 + ^ x23: .cfa -40 + ^ x24: .cfa -48 + ^ x25: .cfa -56 + ^ x26: .cfa -64 + ^ .ra: .cfa -72 + ^ x29: .cfa -80 + ^
STACK CFI eb110 .cfa: sp 128 +
STACK CFI eb128 .cfa: sp 0 +
STACK CFI eb12c .cfa: x29 80 +
STACK CFI INIT eb130 cc8 .cfa: sp 0 +
STACK CFI eb134 .cfa: sp 144 +
STACK CFI eb150 .cfa: x29 96 + x19: .cfa -8 + ^ x20: .cfa -16 + ^ x21: .cfa -24 + ^ x22: .cfa -32 + ^ x23: .cfa -40 + ^ x24: .cfa -48 + ^ x25: .cfa -56 + ^ x26: .cfa -64 + ^ x27: .cfa -72 + ^ x28: .cfa -80 + ^ .ra: .cfa -88 + ^ x29: .cfa -96 + ^
STACK CFI ebdb8 .cfa: sp 144 +
STACK CFI ebdd4 .cfa: sp 0 +
STACK CFI ebdd8 .cfa: x29 96 +
STACK CFI INIT ebdf8 1f0 .cfa: sp 0 +
STACK CFI ebdfc .cfa: sp 80 +
STACK CFI ebe10 .cfa: x29 80 + x19: .cfa -8 + ^ x20: .cfa -16 + ^ x21: .cfa -24 + ^ x22: .cfa -32 + ^ x23: .cfa -40 + ^ x24: .cfa -48 + ^ x25: .cfa -64 + ^ .ra: .cfa -72 + ^ x29: .cfa -80 + ^
STACK CFI ebfd0 .cfa: sp 80 +
STACK CFI ebfe4 .cfa: sp 0 +
STACK CFI INIT ebfe8 428 .cfa: sp 0 +
STACK CFI ebfec .cfa: sp 80 +
STACK CFI ec000 .cfa: x29 64 + x19: .cfa -8 + ^ x20: .cfa -16 + ^ x21: .cfa -24 + ^ x22: .cfa -32 + ^ x23: .cfa -40 + ^ x24: .cfa -48 + ^ .ra: .cfa -56 + ^ x29: .cfa -64 + ^
STACK CFI ec178 .cfa: sp 80 +
STACK CFI ec18c .cfa: sp 0 +
STACK CFI ec190 .cfa: x29 64 +
STACK CFI INIT ec410 180 .cfa: sp 0 +
STACK CFI ec414 .cfa: sp 80 +
STACK CFI ec428 .cfa: x29 64 + x19: .cfa -8 + ^ x20: .cfa -16 + ^ x21: .cfa -24 + ^ x22: .cfa -32 + ^ x23: .cfa -40 + ^ x24: .cfa -48 + ^ .ra: .cfa -56 + ^ x29: .cfa -64 + ^
STACK CFI ec574 .cfa: sp 80 +
STACK CFI ec588 .cfa: sp 0 +
STACK CFI ec58c .cfa: x29 64 +
STACK CFI INIT ec590 22c .cfa: sp 0 +
STACK CFI ec594 .cfa: sp 96 +
STACK CFI ec5ac .cfa: x29 96 + x19: .cfa -8 + ^ x20: .cfa -16 + ^ x21: .cfa -24 + ^ x22: .cfa -32 + ^ x23: .cfa -40 + ^ x24: .cfa -48 + ^ x25: .cfa -56 + ^ x26: .cfa -64 + ^ x27: .cfa -72 + ^ x28: .cfa -80 + ^ .ra: .cfa -88 + ^ x29: .cfa -96 + ^
STACK CFI ec7a0 .cfa: sp 96 +
STACK CFI ec7b8 .cfa: sp 0 +
STACK CFI INIT ed3b4 154 .cfa: sp 0 +
STACK CFI ed3b8 .cfa: sp 80 +
STACK CFI ed3c8 .cfa: x29 48 + x19: .cfa -8 + ^ x20: .cfa -16 + ^ x21: .cfa -24 + ^ x22: .cfa -32 + ^ .ra: .cfa -40 + ^ x29: .cfa -48 + ^
STACK CFI ed4ac .cfa: sp 80 +
STACK CFI ed4bc .cfa: sp 0 +
STACK CFI ed4c0 .cfa: x29 48 +
STACK CFI INIT ed77c 44 .cfa: sp 0 +
STACK CFI ed780 .cfa: sp 32 +
STACK CFI ed788 .cfa: x29 32 + x19: .cfa -16 + ^ .ra: .cfa -24 + ^ x29: .cfa -32 + ^
STACK CFI ed7a4 .cfa: sp 32 +
STACK CFI ed7ac .cfa: sp 0 +
STACK CFI ed7b0 .cfa: x29 32 +
STACK CFI ed7b4 .cfa: sp 32 +
STACK CFI ed7bc .cfa: sp 0 +
STACK CFI INIT ed7c0 1e8 .cfa: sp 0 +
STACK CFI ed7c4 .cfa: sp 64 +
STACK CFI ed7d4 .cfa: x29 64 + x19: .cfa -8 + ^ x20: .cfa -16 + ^ x21: .cfa -24 + ^ x22: .cfa -32 + ^ x23: .cfa -40 + ^ x24: .cfa -48 + ^ .ra: .cfa -56 + ^ x29: .cfa -64 + ^
STACK CFI ed8a0 .cfa: sp 64 +
STACK CFI ed8b0 .cfa: sp 0 +
STACK CFI ed8b4 .cfa: x29 64 +
STACK CFI INIT ed9a8 188 .cfa: sp 0 +
STACK CFI INIT edf0c 110 .cfa: sp 0 +
STACK CFI edf10 .cfa: sp 48 +
STACK CFI edf1c .cfa: x29 48 + x19: .cfa -8 + ^ x20: .cfa -16 + ^ x21: .cfa -32 + ^ .ra: .cfa -40 + ^ x29: .cfa -48 + ^
STACK CFI edff8 .cfa: sp 48 +
STACK CFI ee004 .cfa: sp 0 +
STACK CFI ee008 .cfa: sp 48 +
STACK CFI ee014 .cfa: sp 0 +
STACK CFI ee018 .cfa: x29 48 +
STACK CFI INIT eec3c 158 .cfa: sp 0 +
STACK CFI eec40 .cfa: sp 80 +
STACK CFI eec50 .cfa: x29 48 + x19: .cfa -8 + ^ x20: .cfa -16 + ^ x21: .cfa -24 + ^ x22: .cfa -32 + ^ .ra: .cfa -40 + ^ x29: .cfa -48 + ^
STACK CFI eed38 .cfa: sp 80 +
STACK CFI eed48 .cfa: sp 0 +
STACK CFI eed4c .cfa: x29 48 +
STACK CFI INIT eed94 1ac .cfa: sp 0 +
STACK CFI INIT efab0 1d0 .cfa: sp 0 +
STACK CFI efab4 .cfa: sp 80 +
STACK CFI efac8 .cfa: x29 80 + x19: .cfa -8 + ^ x20: .cfa -16 + ^ x21: .cfa -24 + ^ x22: .cfa -32 + ^ x23: .cfa -40 + ^ x24: .cfa -48 + ^ x25: .cfa -64 + ^ .ra: .cfa -72 + ^ x29: .cfa -80 + ^
STACK CFI efc68 .cfa: sp 80 +
STACK CFI efc7c .cfa: sp 0 +
STACK CFI INIT f10e4 12c .cfa: sp 0 +
STACK CFI f10e8 .cfa: sp 32 +
STACK CFI f10f0 .cfa: x29 32 + x19: .cfa -8 + ^ x20: .cfa -16 + ^ .ra: .cfa -24 + ^ x29: .cfa -32 + ^
STACK CFI f1204 .cfa: sp 32 +
STACK CFI f120c .cfa: sp 0 +
STACK CFI INIT f1940 36c .cfa: sp 0 +
STACK CFI f1944 .cfa: sp 80 +
STACK CFI f1958 .cfa: x29 80 + x19: .cfa -8 + ^ x20: .cfa -16 + ^ x21: .cfa -24 + ^ x22: .cfa -32 + ^ x23: .cfa -40 + ^ x24: .cfa -48 + ^ x25: .cfa -64 + ^ .ra: .cfa -72 + ^ x29: .cfa -80 + ^
STACK CFI f1ae8 .cfa: sp 80 +
STACK CFI f1afc .cfa: sp 0 +
STACK CFI f1b00 .cfa: x29 80 +
STACK CFI INIT f1cac 110 .cfa: sp 0 +
STACK CFI f1cb0 .cfa: sp 48 +
STACK CFI f1cbc .cfa: x29 48 + x19: .cfa -8 + ^ x20: .cfa -16 + ^ x21: .cfa -32 + ^ .ra: .cfa -40 + ^ x29: .cfa -48 + ^
STACK CFI f1d98 .cfa: sp 48 +
STACK CFI f1da4 .cfa: sp 0 +
STACK CFI f1da8 .cfa: sp 48 +
STACK CFI f1db4 .cfa: sp 0 +
STACK CFI f1db8 .cfa: x29 48 +
STACK CFI INIT f2ca8 174 .cfa: sp 0 +
STACK CFI f2cac .cfa: sp 64 +
STACK CFI f2cbc .cfa: x29 64 + x19: .cfa -8 + ^ x20: .cfa -16 + ^ x21: .cfa -24 + ^ x22: .cfa -32 + ^ x23: .cfa -40 + ^ x24: .cfa -48 + ^ .ra: .cfa -56 + ^ x29: .cfa -64 + ^
STACK CFI f2dc4 .cfa: sp 64 +
STACK CFI f2dd4 .cfa: sp 0 +
STACK CFI f2dd8 .cfa: x29 64 +
STACK CFI INIT f2e1c 16c .cfa: sp 0 +
STACK CFI f2e20 .cfa: sp 48 +
STACK CFI f2e2c .cfa: x29 48 + x19: .cfa -8 + ^ x20: .cfa -16 + ^ x21: .cfa -24 + ^ x22: .cfa -32 + ^ .ra: .cfa -40 + ^ x29: .cfa -48 + ^
STACK CFI f2f78 .cfa: sp 48 +
STACK CFI f2f84 .cfa: sp 0 +
STACK CFI INIT f2f88 1c4 .cfa: sp 0 +
STACK CFI f2f8c .cfa: sp 96 +
STACK CFI f2fa0 .cfa: x29 64 + x19: .cfa -8 + ^ x20: .cfa -16 + ^ x21: .cfa -24 + ^ x22: .cfa -32 + ^ x23: .cfa -40 + ^ x24: .cfa -48 + ^ .ra: .cfa -56 + ^ x29: .cfa -64 + ^
STACK CFI f30e4 .cfa: sp 96 +
STACK CFI f30f8 .cfa: sp 0 +
STACK CFI f30fc .cfa: x29 64 +
STACK CFI INIT f5030 294 .cfa: sp 0 +
STACK CFI f5034 .cfa: sp 16 +
STACK CFI f5038 .cfa: x29 16 + .ra: .cfa -8 + ^ x29: .cfa -16 + ^
STACK CFI f50cc .cfa: sp 16 +
STACK CFI f50d0 .cfa: sp 0 +
STACK CFI f50d4 .cfa: x29 16 +
STACK CFI f5138 .cfa: sp 16 +
STACK CFI f513c .cfa: sp 0 +
STACK CFI f5140 .cfa: sp 16 +
STACK CFI f5144 .cfa: sp 0 +
STACK CFI f5148 .cfa: x29 16 +
STACK CFI INIT f52c4 15c .cfa: sp 0 +
STACK CFI f52c8 .cfa: sp 112 +
STACK CFI f52e4 .cfa: x29 96 + x19: .cfa -8 + ^ x20: .cfa -16 + ^ x21: .cfa -24 + ^ x22: .cfa -32 + ^ x23: .cfa -40 + ^ x24: .cfa -48 + ^ x25: .cfa -56 + ^ x26: .cfa -64 + ^ x27: .cfa -72 + ^ x28: .cfa -80 + ^ .ra: .cfa -88 + ^ x29: .cfa -96 + ^
STACK CFI f53d0 .cfa: sp 112 +
STACK CFI f53d4 .cfa: x29 96 +
STACK CFI f53dc .cfa: sp 112 +
STACK CFI f53f8 .cfa: sp 0 +
STACK CFI f53fc .cfa: x29 96 +
STACK CFI f541c .cfa: sp 112 +
STACK CFI INIT f5420 d18 .cfa: sp 0 +
STACK CFI f5424 .cfa: sp 192 +
STACK CFI f5440 .cfa: x29 96 + x19: .cfa -8 + ^ x20: .cfa -16 + ^ x21: .cfa -24 + ^ x22: .cfa -32 + ^ x23: .cfa -40 + ^ x24: .cfa -48 + ^ x25: .cfa -56 + ^ x26: .cfa -64 + ^ x27: .cfa -72 + ^ x28: .cfa -80 + ^ .ra: .cfa -88 + ^ x29: .cfa -96 + ^
STACK CFI f60f8 .cfa: sp 192 +
STACK CFI f6114 .cfa: sp 0 +
STACK CFI f6118 .cfa: x29 96 +
STACK CFI INIT f6138 f4c .cfa: sp 0 +
STACK CFI f613c .cfa: sp 288 +
STACK CFI f6158 .cfa: x29 96 + x19: .cfa -8 + ^ x20: .cfa -16 + ^ x21: .cfa -24 + ^ x22: .cfa -32 + ^ x23: .cfa -40 + ^ x24: .cfa -48 + ^ x25: .cfa -56 + ^ x26: .cfa -64 + ^ x27: .cfa -72 + ^ x28: .cfa -80 + ^ .ra: .cfa -88 + ^ x29: .cfa -96 + ^
STACK CFI f6e9c .cfa: sp 288 +
STACK CFI f6eb8 .cfa: sp 0 +
STACK CFI f6ebc .cfa: x29 96 +
STACK CFI INIT f7084 560 .cfa: sp 0 +
STACK CFI f7088 .cfa: sp 144 +
STACK CFI f70a4 .cfa: x29 96 + x19: .cfa -8 + ^ x20: .cfa -16 + ^ x21: .cfa -24 + ^ x22: .cfa -32 + ^ x23: .cfa -40 + ^ x24: .cfa -48 + ^ x25: .cfa -56 + ^ x26: .cfa -64 + ^ x27: .cfa -72 + ^ x28: .cfa -80 + ^ .ra: .cfa -88 + ^ x29: .cfa -96 + ^
STACK CFI f75c0 .cfa: sp 144 +
STACK CFI f75dc .cfa: sp 0 +
STACK CFI f75e0 .cfa: x29 96 +
STACK CFI INIT f7f64 dd4 .cfa: sp 0 +
STACK CFI f7f68 .cfa: sp 224 +
STACK CFI f7f84 .cfa: x29 96 + x19: .cfa -8 + ^ x20: .cfa -16 + ^ x21: .cfa -24 + ^ x22: .cfa -32 + ^ x23: .cfa -40 + ^ x24: .cfa -48 + ^ x25: .cfa -56 + ^ x26: .cfa -64 + ^ x27: .cfa -72 + ^ x28: .cfa -80 + ^ .ra: .cfa -88 + ^ x29: .cfa -96 + ^
STACK CFI f8d14 .cfa: sp 224 +
STACK CFI f8d30 .cfa: sp 0 +
STACK CFI f8d34 .cfa: x29 96 +
STACK CFI INIT f8d38 1b4 .cfa: sp 0 +
STACK CFI INIT f8eec 248 .cfa: sp 0 +
STACK CFI f8ef0 .cfa: sp 128 +
STACK CFI f8f08 .cfa: x29 80 + x19: .cfa -8 + ^ x20: .cfa -16 + ^ x21: .cfa -24 + ^ x22: .cfa -32 + ^ x23: .cfa -40 + ^ x24: .cfa -48 + ^ x25: .cfa -56 + ^ x26: .cfa -64 + ^ .ra: .cfa -72 + ^ x29: .cfa -80 + ^
STACK CFI f9114 .cfa: sp 128 +
STACK CFI f912c .cfa: sp 0 +
STACK CFI f9130 .cfa: x29 80 +
STACK CFI INIT f9134 318 .cfa: sp 0 +
STACK CFI f9138 .cfa: sp 176 +
STACK CFI f9154 .cfa: x29 96 + x19: .cfa -8 + ^ x20: .cfa -16 + ^ x21: .cfa -24 + ^ x22: .cfa -32 + ^ x23: .cfa -40 + ^ x24: .cfa -48 + ^ x25: .cfa -56 + ^ x26: .cfa -64 + ^ x27: .cfa -72 + ^ x28: .cfa -80 + ^ .ra: .cfa -88 + ^ x29: .cfa -96 + ^
STACK CFI f9428 .cfa: sp 176 +
STACK CFI f9444 .cfa: sp 0 +
STACK CFI f9448 .cfa: x29 96 +
STACK CFI INIT 7b1f8 78 .cfa: sp 0 +
STACK CFI INIT 7b2ac 58 .cfa: sp 0 +
STACK CFI INIT 7b304 20 .cfa: sp 0 +
STACK CFI INIT 7ba5c 54 .cfa: sp 0 +
STACK CFI INIT 7bd58 24 .cfa: sp 0 +
STACK CFI INIT 7bd7c 24 .cfa: sp 0 +
STACK CFI INIT 7be74 28 .cfa: sp 0 +
STACK CFI INIT 7be9c 20 .cfa: sp 0 +
STACK CFI INIT 7bf60 20 .cfa: sp 0 +
STACK CFI INIT 7bfac 20 .cfa: sp 0 +
STACK CFI INIT 7bfcc 28 .cfa: sp 0 +
STACK CFI INIT 7c010 54 .cfa: sp 0 +
STACK CFI INIT 7c064 94 .cfa: sp 0 +
STACK CFI INIT 7c0f8 2c .cfa: sp 0 +
STACK CFI INIT 7c124 60 .cfa: sp 0 +
STACK CFI INIT 7c184 54 .cfa: sp 0 +
STACK CFI INIT 7c1f4 54 .cfa: sp 0 +
STACK CFI INIT 7c248 fc .cfa: sp 0 +
STACK CFI INIT 7c344 98 .cfa: sp 0 +
STACK CFI INIT 7c3dc 7c .cfa: sp 0 +
STACK CFI INIT 7c458 118 .cfa: sp 0 +
STACK CFI INIT 7c570 20 .cfa: sp 0 +
STACK CFI INIT 7c590 20 .cfa: sp 0 +
STACK CFI INIT 7c5b0 4c .cfa: sp 0 +
STACK CFI INIT 7c5fc a0 .cfa: sp 0 +
STACK CFI INIT 7c69c 90 .cfa: sp 0 +
STACK CFI INIT 7c72c 20 .cfa: sp 0 +
STACK CFI INIT 7c7c4 94 .cfa: sp 0 +
STACK CFI INIT 7c858 88 .cfa: sp 0 +
STACK CFI INIT 7c988 94 .cfa: sp 0 +
STACK CFI INIT 7ca1c 88 .cfa: sp 0 +
STACK CFI INIT 7ddec 114 .cfa: sp 0 +
STACK CFI INIT 7e970 a8 .cfa: sp 0 +
STACK CFI INIT 80424 148 .cfa: sp 0 +
STACK CFI INIT 811d8 ac .cfa: sp 0 +
STACK CFI INIT 81cf4 ec .cfa: sp 0 +
STACK CFI INIT 81de0 e4 .cfa: sp 0 +
STACK CFI INIT 81ec4 e8 .cfa: sp 0 +
STACK CFI INIT 81fac e8 .cfa: sp 0 +
STACK CFI INIT 82094 ec .cfa: sp 0 +
STACK CFI INIT 82180 dc .cfa: sp 0 +
STACK CFI INIT 8225c dc .cfa: sp 0 +
STACK CFI INIT 82338 d8 .cfa: sp 0 +
STACK CFI INIT 82410 f4 .cfa: sp 0 +
STACK CFI INIT 82504 ec .cfa: sp 0 +
STACK CFI INIT 825f0 f0 .cfa: sp 0 +
STACK CFI INIT 826e0 f0 .cfa: sp 0 +
STACK CFI INIT 827d0 f4 .cfa: sp 0 +
STACK CFI INIT 828c4 e4 .cfa: sp 0 +
STACK CFI INIT 829a8 e4 .cfa: sp 0 +
STACK CFI INIT 82a8c e0 .cfa: sp 0 +
STACK CFI INIT 84254 1a0 .cfa: sp 0 +
STACK CFI INIT 843f4 19c .cfa: sp 0 +
STACK CFI INIT 84590 194 .cfa: sp 0 +
STACK CFI INIT 84724 1c4 .cfa: sp 0 +
STACK CFI INIT 848e8 1c0 .cfa: sp 0 +
STACK CFI INIT 84aa8 1b8 .cfa: sp 0 +
STACK CFI INIT 84c60 138 .cfa: sp 0 +
STACK CFI INIT 84d98 138 .cfa: sp 0 +
STACK CFI INIT 8571c f4 .cfa: sp 0 +
STACK CFI INIT 85810 148 .cfa: sp 0 +
STACK CFI INIT 85958 14c .cfa: sp 0 +
STACK CFI INIT 85aa4 d4 .cfa: sp 0 +
STACK CFI INIT 85b78 15c .cfa: sp 0 +
STACK CFI INIT 85cd4 160 .cfa: sp 0 +
STACK CFI INIT 85e34 e8 .cfa: sp 0 +
STACK CFI INIT 85f50 a8 .cfa: sp 0 +
STACK CFI INIT 860c8 2c .cfa: sp 0 +
STACK CFI INIT 86170 94 .cfa: sp 0 +
STACK CFI INIT 86238 cc .cfa: sp 0 +
STACK CFI INIT 868fc 8c .cfa: sp 0 +
STACK CFI INIT 869cc 90 .cfa: sp 0 +
STACK CFI INIT 86a5c ac .cfa: sp 0 +
STACK CFI INIT 86b08 98 .cfa: sp 0 +
STACK CFI INIT 86ba0 a8 .cfa: sp 0 +
STACK CFI INIT 86c48 a8 .cfa: sp 0 +
STACK CFI INIT 86d38 ec .cfa: sp 0 +
STACK CFI INIT 86f80 78 .cfa: sp 0 +
STACK CFI INIT 8704c 8c .cfa: sp 0 +
STACK CFI INIT 8712c 188 .cfa: sp 0 +
STACK CFI INIT 872e0 9c .cfa: sp 0 +
STACK CFI INIT 8737c 60 .cfa: sp 0 +
STACK CFI INIT 87404 60 .cfa: sp 0 +
STACK CFI INIT 87758 58 .cfa: sp 0 +
STACK CFI INIT 87804 a8 .cfa: sp 0 +
STACK CFI INIT 878ac 24 .cfa: sp 0 +
STACK CFI INIT 87964 58 .cfa: sp 0 +
STACK CFI INIT 87bdc 94 .cfa: sp 0 +
STACK CFI INIT 87fb0 8c .cfa: sp 0 +
STACK CFI INIT 880ac bc .cfa: sp 0 +
STACK CFI INIT 881b4 2d0 .cfa: sp 0 +
STACK CFI INIT 88f44 68 .cfa: sp 0 +
STACK CFI INIT 890ac 1cc .cfa: sp 0 +
STACK CFI INIT 89278 f8 .cfa: sp 0 +
STACK CFI INIT 893ec 198 .cfa: sp 0 +
STACK CFI INIT 8958c 130 .cfa: sp 0 +
STACK CFI INIT 896c4 170 .cfa: sp 0 +
STACK CFI INIT 8983c 130 .cfa: sp 0 +
STACK CFI INIT 89974 174 .cfa: sp 0 +
STACK CFI INIT 89af0 130 .cfa: sp 0 +
STACK CFI INIT 89c28 130 .cfa: sp 0 +
STACK CFI INIT 89d60 130 .cfa: sp 0 +
STACK CFI INIT 89e98 130 .cfa: sp 0 +
STACK CFI INIT 89fd0 130 .cfa: sp 0 +
STACK CFI INIT 8a108 130 .cfa: sp 0 +
STACK CFI INIT 8a240 130 .cfa: sp 0 +
STACK CFI INIT 8a378 130 .cfa: sp 0 +
STACK CFI INIT 8a4b0 130 .cfa: sp 0 +
STACK CFI INIT 8a5e0 12c .cfa: sp 0 +
STACK CFI INIT 8a748 a4 .cfa: sp 0 +
STACK CFI INIT 8a7ec 1e0 .cfa: sp 0 +
STACK CFI INIT 8a9cc 94 .cfa: sp 0 +
STACK CFI INIT 8aa60 15c .cfa: sp 0 +
STACK CFI INIT 8abbc a4 .cfa: sp 0 +
STACK CFI INIT 8ac60 218 .cfa: sp 0 +
STACK CFI INIT 8ae78 1a4 .cfa: sp 0 +
STACK CFI INIT 8b01c 114 .cfa: sp 0 +
STACK CFI INIT 8b130 f8 .cfa: sp 0 +
STACK CFI INIT 8b228 150 .cfa: sp 0 +
STACK CFI INIT 8b378 134 .cfa: sp 0 +
STACK CFI INIT 8b4ac 128 .cfa: sp 0 +
STACK CFI INIT 8b5d4 f0 .cfa: sp 0 +
STACK CFI INIT 8b6c4 fc .cfa: sp 0 +
STACK CFI INIT 8b7c0 110 .cfa: sp 0 +
STACK CFI INIT 8b8d0 110 .cfa: sp 0 +
STACK CFI INIT 8ba38 68 .cfa: sp 0 +
STACK CFI INIT 8bbfc a8 .cfa: sp 0 +
STACK CFI INIT 8bd20 18c .cfa: sp 0 +
STACK CFI INIT 8beac 1b4 .cfa: sp 0 +
STACK CFI INIT 8c060 18c .cfa: sp 0 +
STACK CFI INIT 8c1ec 1b4 .cfa: sp 0 +
STACK CFI INIT 8c3a0 18c .cfa: sp 0 +
STACK CFI INIT 8c52c 18c .cfa: sp 0 +
STACK CFI INIT 8c6b8 18c .cfa: sp 0 +
STACK CFI INIT 8c844 18c .cfa: sp 0 +
STACK CFI INIT 8c9d0 18c .cfa: sp 0 +
STACK CFI INIT 8cb5c 194 .cfa: sp 0 +
STACK CFI INIT 8ccf0 194 .cfa: sp 0 +
STACK CFI INIT 8ce84 18c .cfa: sp 0 +
STACK CFI INIT 8d010 18c .cfa: sp 0 +
STACK CFI INIT 8d19c 214 .cfa: sp 0 +
STACK CFI INIT 8d3b0 10c .cfa: sp 0 +
STACK CFI INIT 8d4bc ec .cfa: sp 0 +
STACK CFI INIT 8d60c c4 .cfa: sp 0 +
STACK CFI INIT 8d6d0 c4 .cfa: sp 0 +
STACK CFI INIT 8d834 84 .cfa: sp 0 +
STACK CFI INIT 8e22c 68 .cfa: sp 0 +
STACK CFI INIT 8e394 218 .cfa: sp 0 +
STACK CFI INIT 8e5ac f8 .cfa: sp 0 +
STACK CFI INIT 8e720 194 .cfa: sp 0 +
STACK CFI INIT 8e8bc 130 .cfa: sp 0 +
STACK CFI INIT 8e9f4 170 .cfa: sp 0 +
STACK CFI INIT 8eb6c 130 .cfa: sp 0 +
STACK CFI INIT 8eca4 174 .cfa: sp 0 +
STACK CFI INIT 8ee20 130 .cfa: sp 0 +
STACK CFI INIT 8ef58 130 .cfa: sp 0 +
STACK CFI INIT 8f090 130 .cfa: sp 0 +
STACK CFI INIT 8f1c8 130 .cfa: sp 0 +
STACK CFI INIT 8f300 130 .cfa: sp 0 +
STACK CFI INIT 8f438 130 .cfa: sp 0 +
STACK CFI INIT 8f570 130 .cfa: sp 0 +
STACK CFI INIT 8f6a8 130 .cfa: sp 0 +
STACK CFI INIT 8f7e0 130 .cfa: sp 0 +
STACK CFI INIT 8f910 12c .cfa: sp 0 +
STACK CFI INIT 8fa78 a4 .cfa: sp 0 +
STACK CFI INIT 8fb1c 1d4 .cfa: sp 0 +
STACK CFI INIT 8fcf0 94 .cfa: sp 0 +
STACK CFI INIT 8fd84 164 .cfa: sp 0 +
STACK CFI INIT 8fee8 a4 .cfa: sp 0 +
STACK CFI INIT 8ff8c 210 .cfa: sp 0 +
STACK CFI INIT 9019c 194 .cfa: sp 0 +
STACK CFI INIT 90330 114 .cfa: sp 0 +
STACK CFI INIT 90444 f8 .cfa: sp 0 +
STACK CFI INIT 9053c 154 .cfa: sp 0 +
STACK CFI INIT 90690 140 .cfa: sp 0 +
STACK CFI INIT 907d0 134 .cfa: sp 0 +
STACK CFI INIT 90904 f0 .cfa: sp 0 +
STACK CFI INIT 909f4 fc .cfa: sp 0 +
STACK CFI INIT 90af0 110 .cfa: sp 0 +
STACK CFI INIT 90c00 110 .cfa: sp 0 +
STACK CFI INIT 90d68 68 .cfa: sp 0 +
STACK CFI INIT 90f2c a8 .cfa: sp 0 +
STACK CFI INIT 91050 18c .cfa: sp 0 +
STACK CFI INIT 911dc 1b4 .cfa: sp 0 +
STACK CFI INIT 91390 18c .cfa: sp 0 +
STACK CFI INIT 9151c 1b4 .cfa: sp 0 +
STACK CFI INIT 916d0 18c .cfa: sp 0 +
STACK CFI INIT 9185c 18c .cfa: sp 0 +
STACK CFI INIT 919e8 18c .cfa: sp 0 +
STACK CFI INIT 91b74 18c .cfa: sp 0 +
STACK CFI INIT 91d00 18c .cfa: sp 0 +
STACK CFI INIT 91e8c 194 .cfa: sp 0 +
STACK CFI INIT 92020 194 .cfa: sp 0 +
STACK CFI INIT 921b4 18c .cfa: sp 0 +
STACK CFI INIT 92340 18c .cfa: sp 0 +
STACK CFI INIT 924cc 240 .cfa: sp 0 +
STACK CFI INIT 9270c 114 .cfa: sp 0 +
STACK CFI INIT 92820 ec .cfa: sp 0 +
STACK CFI INIT 92970 c4 .cfa: sp 0 +
STACK CFI INIT 92a34 c4 .cfa: sp 0 +
STACK CFI INIT 92af8 214 .cfa: sp 0 +
STACK CFI INIT 92d0c 208 .cfa: sp 0 +
STACK CFI INIT 92f14 308 .cfa: sp 0 +
STACK CFI INIT 93660 1c8 .cfa: sp 0 +
STACK CFI INIT 93e14 134 .cfa: sp 0 +
STACK CFI INIT 940dc d4 .cfa: sp 0 +
STACK CFI INIT 941b0 8c .cfa: sp 0 +
STACK CFI INIT 95eac 29c .cfa: sp 0 +
STACK CFI INIT 96148 4b4 .cfa: sp 0 +
STACK CFI INIT 96604 59c .cfa: sp 0 +
STACK CFI INIT 96ba8 59c .cfa: sp 0 +
STACK CFI INIT 9714c 59c .cfa: sp 0 +
STACK CFI INIT 976f0 59c .cfa: sp 0 +
STACK CFI INIT 97c94 59c .cfa: sp 0 +
STACK CFI INIT 98238 59c .cfa: sp 0 +
STACK CFI INIT 987dc 584 .cfa: sp 0 +
STACK CFI INIT 98d68 584 .cfa: sp 0 +
STACK CFI INIT 992f4 584 .cfa: sp 0 +
STACK CFI INIT 99878 5a4 .cfa: sp 0 +
STACK CFI INIT 9a138 b4 .cfa: sp 0 +
STACK CFI INIT 9a1ec a0 .cfa: sp 0 +
STACK CFI INIT 9a28c 29c .cfa: sp 0 +
STACK CFI INIT 9a528 4bc .cfa: sp 0 +
STACK CFI INIT 9a9ec 598 .cfa: sp 0 +
STACK CFI INIT 9af8c 598 .cfa: sp 0 +
STACK CFI INIT 9b52c 598 .cfa: sp 0 +
STACK CFI INIT 9bacc 598 .cfa: sp 0 +
STACK CFI INIT 9c06c 598 .cfa: sp 0 +
STACK CFI INIT 9c60c 598 .cfa: sp 0 +
STACK CFI INIT 9cbac 57c .cfa: sp 0 +
STACK CFI INIT 9d130 57c .cfa: sp 0 +
STACK CFI INIT 9d6b4 57c .cfa: sp 0 +
STACK CFI INIT 9dc30 5a0 .cfa: sp 0 +
STACK CFI INIT 9e54c 1b0 .cfa: sp 0 +
STACK CFI INIT 9eb08 188 .cfa: sp 0 +
STACK CFI INIT 9ec90 1b0 .cfa: sp 0 +
STACK CFI INIT 9f2c4 188 .cfa: sp 0 +
STACK CFI INIT 9f44c 200 .cfa: sp 0 +
STACK CFI INIT 9f65c 240 .cfa: sp 0 +
STACK CFI INIT 9f8ac 240 .cfa: sp 0 +
STACK CFI INIT 9fafc 224 .cfa: sp 0 +
STACK CFI INIT 9fd30 224 .cfa: sp 0 +
STACK CFI INIT 9ff64 4b4 .cfa: sp 0 +
STACK CFI INIT a0428 4ac .cfa: sp 0 +
STACK CFI INIT a08d4 234 .cfa: sp 0 +
STACK CFI INIT a0b08 c0 .cfa: sp 0 +
STACK CFI INIT a0c38 184 .cfa: sp 0 +
STACK CFI INIT a0dbc 200 .cfa: sp 0 +
STACK CFI INIT a0fcc 240 .cfa: sp 0 +
STACK CFI INIT a121c 240 .cfa: sp 0 +
STACK CFI INIT a146c 224 .cfa: sp 0 +
STACK CFI INIT a16a0 224 .cfa: sp 0 +
STACK CFI INIT a18d4 4b4 .cfa: sp 0 +
STACK CFI INIT a1d98 4ac .cfa: sp 0 +
STACK CFI INIT a2244 240 .cfa: sp 0 +
STACK CFI INIT a2484 200 .cfa: sp 0 +
STACK CFI INIT a2684 410 .cfa: sp 0 +
STACK CFI INIT a2a94 634 .cfa: sp 0 +
STACK CFI INIT a30c8 40c .cfa: sp 0 +
STACK CFI INIT a34d4 634 .cfa: sp 0 +
STACK CFI INIT a3b08 4f0 .cfa: sp 0 +
STACK CFI INIT a40d4 164 .cfa: sp 0 +
STACK CFI INIT a42f4 160 .cfa: sp 0 +
STACK CFI INIT a450c 128 .cfa: sp 0 +
STACK CFI INIT a469c 684 .cfa: sp 0 +
STACK CFI INIT a59a8 558 .cfa: sp 0 +
STACK CFI INIT a5fdc 164 .cfa: sp 0 +
STACK CFI INIT a61fc 160 .cfa: sp 0 +
STACK CFI INIT a6414 128 .cfa: sp 0 +
STACK CFI INIT a65a4 674 .cfa: sp 0 +
STACK CFI INIT a7940 2ac .cfa: sp 0 +
STACK CFI INIT a7d30 2bc .cfa: sp 0 +
STACK CFI INIT a80b8 f8 .cfa: sp 0 +
STACK CFI INIT a9038 418 .cfa: sp 0 +
STACK CFI INIT a9458 1448 .cfa: sp 0 +
STACK CFI INIT aa8a0 54 .cfa: sp 0 +
STACK CFI INIT aa8f4 2e8 .cfa: sp 0 +
STACK CFI INIT aabdc 2b8 .cfa: sp 0 +
STACK CFI INIT ab1d0 41c .cfa: sp 0 +
STACK CFI INIT ab5ec 1470 .cfa: sp 0 +
STACK CFI INIT aca5c 2d8 .cfa: sp 0 +
STACK CFI INIT acd34 38c .cfa: sp 0 +
STACK CFI INIT ad300 4d0 .cfa: sp 0 +
STACK CFI INIT ad7d0 cc .cfa: sp 0 +
STACK CFI INIT adf78 3d0 .cfa: sp 0 +
STACK CFI INIT ae348 4dc .cfa: sp 0 +
STACK CFI INIT aef58 3d8 .cfa: sp 0 +
STACK CFI INIT af5fc 5b8 .cfa: sp 0 +
STACK CFI INIT afc44 134 .cfa: sp 0 +
STACK CFI INIT afd78 134 .cfa: sp 0 +
STACK CFI INIT afeac 134 .cfa: sp 0 +
STACK CFI INIT affe0 134 .cfa: sp 0 +
STACK CFI INIT b0114 134 .cfa: sp 0 +
STACK CFI INIT b0248 134 .cfa: sp 0 +
STACK CFI INIT b037c 134 .cfa: sp 0 +
STACK CFI INIT b04b0 134 .cfa: sp 0 +
STACK CFI INIT b05e4 134 .cfa: sp 0 +
STACK CFI INIT b0718 134 .cfa: sp 0 +
STACK CFI INIT b084c 134 .cfa: sp 0 +
STACK CFI INIT b0980 134 .cfa: sp 0 +
STACK CFI INIT b0ab4 134 .cfa: sp 0 +
STACK CFI INIT b0be8 134 .cfa: sp 0 +
STACK CFI INIT b0d1c 134 .cfa: sp 0 +
STACK CFI INIT b0e50 134 .cfa: sp 0 +
STACK CFI INIT b0f84 134 .cfa: sp 0 +
STACK CFI INIT b10b8 134 .cfa: sp 0 +
STACK CFI INIT b11ec 134 .cfa: sp 0 +
STACK CFI INIT b1320 134 .cfa: sp 0 +
STACK CFI INIT b1454 134 .cfa: sp 0 +
STACK CFI INIT b1588 134 .cfa: sp 0 +
STACK CFI INIT b16bc 134 .cfa: sp 0 +
STACK CFI INIT b17f0 134 .cfa: sp 0 +
STACK CFI INIT b1924 134 .cfa: sp 0 +
STACK CFI INIT b1a58 134 .cfa: sp 0 +
STACK CFI INIT b1b8c 134 .cfa: sp 0 +
STACK CFI INIT b1cc0 134 .cfa: sp 0 +
STACK CFI INIT b1df4 134 .cfa: sp 0 +
STACK CFI INIT b1f28 134 .cfa: sp 0 +
STACK CFI INIT b205c 6e4 .cfa: sp 0 +
STACK CFI INIT b2740 a0 .cfa: sp 0 +
STACK CFI INIT b27e0 134 .cfa: sp 0 +
STACK CFI INIT b2914 134 .cfa: sp 0 +
STACK CFI INIT b2a48 134 .cfa: sp 0 +
STACK CFI INIT b2b7c 134 .cfa: sp 0 +
STACK CFI INIT b2cb0 134 .cfa: sp 0 +
STACK CFI INIT b2de4 134 .cfa: sp 0 +
STACK CFI INIT b2f18 134 .cfa: sp 0 +
STACK CFI INIT b304c 134 .cfa: sp 0 +
STACK CFI INIT b3180 134 .cfa: sp 0 +
STACK CFI INIT b32b4 134 .cfa: sp 0 +
STACK CFI INIT b33e8 134 .cfa: sp 0 +
STACK CFI INIT b351c 134 .cfa: sp 0 +
STACK CFI INIT b3650 134 .cfa: sp 0 +
STACK CFI INIT b3784 f0 .cfa: sp 0 +
STACK CFI INIT b3874 134 .cfa: sp 0 +
STACK CFI INIT b39a8 f0 .cfa: sp 0 +
STACK CFI INIT b3a98 134 .cfa: sp 0 +
STACK CFI INIT b3bcc f0 .cfa: sp 0 +
STACK CFI INIT b3cbc 134 .cfa: sp 0 +
STACK CFI INIT b3df0 f0 .cfa: sp 0 +
STACK CFI INIT b3ee0 134 .cfa: sp 0 +
STACK CFI INIT b4014 134 .cfa: sp 0 +
STACK CFI INIT b4148 134 .cfa: sp 0 +
STACK CFI INIT b427c 134 .cfa: sp 0 +
STACK CFI INIT b43b0 134 .cfa: sp 0 +
STACK CFI INIT b44e4 134 .cfa: sp 0 +
STACK CFI INIT b4618 614 .cfa: sp 0 +
STACK CFI INIT b4c2c 348 .cfa: sp 0 +
STACK CFI INIT b4f74 14c .cfa: sp 0 +
STACK CFI INIT b50c0 14c .cfa: sp 0 +
STACK CFI INIT b520c 14c .cfa: sp 0 +
STACK CFI INIT b5358 14c .cfa: sp 0 +
STACK CFI INIT b54a4 14c .cfa: sp 0 +
STACK CFI INIT b55f0 14c .cfa: sp 0 +
STACK CFI INIT b573c 14c .cfa: sp 0 +
STACK CFI INIT b5888 14c .cfa: sp 0 +
STACK CFI INIT b59d4 14c .cfa: sp 0 +
STACK CFI INIT b5b20 14c .cfa: sp 0 +
STACK CFI INIT b5c6c 14c .cfa: sp 0 +
STACK CFI INIT b5db8 14c .cfa: sp 0 +
STACK CFI INIT b5f04 14c .cfa: sp 0 +
STACK CFI INIT b6050 14c .cfa: sp 0 +
STACK CFI INIT b619c 14c .cfa: sp 0 +
STACK CFI INIT b62e8 14c .cfa: sp 0 +
STACK CFI INIT b6434 14c .cfa: sp 0 +
STACK CFI INIT b6580 14c .cfa: sp 0 +
STACK CFI INIT b66cc 14c .cfa: sp 0 +
STACK CFI INIT b6818 14c .cfa: sp 0 +
STACK CFI INIT b6964 14c .cfa: sp 0 +
STACK CFI INIT b6ab0 14c .cfa: sp 0 +
STACK CFI INIT b6bfc 14c .cfa: sp 0 +
STACK CFI INIT b6d48 14c .cfa: sp 0 +
STACK CFI INIT b6e94 14c .cfa: sp 0 +
STACK CFI INIT b6fe0 14c .cfa: sp 0 +
STACK CFI INIT b712c 14c .cfa: sp 0 +
STACK CFI INIT b7278 14c .cfa: sp 0 +
STACK CFI INIT b73c4 14c .cfa: sp 0 +
STACK CFI INIT b7510 14c .cfa: sp 0 +
STACK CFI INIT b765c 2f8 .cfa: sp 0 +
STACK CFI INIT b7b08 9c .cfa: sp 0 +
STACK CFI INIT b7ba4 90 .cfa: sp 0 +
STACK CFI INIT b7c34 90 .cfa: sp 0 +
STACK CFI INIT b7db0 124 .cfa: sp 0 +
STACK CFI INIT b7ed4 6c .cfa: sp 0 +
STACK CFI INIT b7f40 13c .cfa: sp 0 +
STACK CFI INIT b807c 80 .cfa: sp 0 +
STACK CFI INIT b80fc 80 .cfa: sp 0 +
STACK CFI INIT b822c 8c .cfa: sp 0 +
STACK CFI INIT b82b8 2a0 .cfa: sp 0 +
STACK CFI INIT b8870 f4 .cfa: sp 0 +
STACK CFI INIT b8964 54 .cfa: sp 0 +
STACK CFI INIT b8a1c b4 .cfa: sp 0 +
STACK CFI INIT b8ad0 44 .cfa: sp 0 +
STACK CFI INIT b8b40 1bc .cfa: sp 0 +
STACK CFI INIT b8cfc 1e0 .cfa: sp 0 +
STACK CFI INIT b8edc f4 .cfa: sp 0 +
STACK CFI INIT b8fd0 b4 .cfa: sp 0 +
STACK CFI INIT b9084 44 .cfa: sp 0 +
STACK CFI INIT b90f4 1e8 .cfa: sp 0 +
STACK CFI INIT b92dc 20c .cfa: sp 0 +
STACK CFI INIT b9638 b0 .cfa: sp 0 +
STACK CFI INIT b96e8 f4 .cfa: sp 0 +
STACK CFI INIT b97dc b0 .cfa: sp 0 +
STACK CFI INIT b988c f4 .cfa: sp 0 +
STACK CFI INIT b9cfc ac .cfa: sp 0 +
STACK CFI INIT b9da8 f0 .cfa: sp 0 +
STACK CFI INIT b9e98 ac .cfa: sp 0 +
STACK CFI INIT b9f44 f0 .cfa: sp 0 +
STACK CFI INIT ba220 104 .cfa: sp 0 +
STACK CFI INIT ba324 c4 .cfa: sp 0 +
STACK CFI INIT ba51c f4 .cfa: sp 0 +
STACK CFI INIT ba610 b4 .cfa: sp 0 +
STACK CFI INIT bad34 6c .cfa: sp 0 +
STACK CFI INIT bada0 b0 .cfa: sp 0 +
STACK CFI INIT bae50 7c .cfa: sp 0 +
STACK CFI INIT baecc c4 .cfa: sp 0 +
STACK CFI INIT bb02c b0 .cfa: sp 0 +
STACK CFI INIT bb0dc f4 .cfa: sp 0 +
STACK CFI INIT bb1fc 2f4 .cfa: sp 0 +
STACK CFI INIT bb4f0 2cc .cfa: sp 0 +
STACK CFI INIT bb7bc 10c .cfa: sp 0 +
STACK CFI INIT bb8c8 e4 .cfa: sp 0 +
STACK CFI INIT bb9b8 108 .cfa: sp 0 +
STACK CFI INIT bbac0 8c .cfa: sp 0 +
STACK CFI INIT bf42c 60 .cfa: sp 0 +
STACK CFI INIT bf48c 19c .cfa: sp 0 +
STACK CFI INIT bf628 70 .cfa: sp 0 +
STACK CFI INIT bf6c4 fc .cfa: sp 0 +
STACK CFI INIT bf7c0 28 .cfa: sp 0 +
STACK CFI INIT bf7e8 64 .cfa: sp 0 +
STACK CFI INIT bf84c 18c .cfa: sp 0 +
STACK CFI INIT bf9d8 74 .cfa: sp 0 +
STACK CFI INIT bfa78 d8 .cfa: sp 0 +
STACK CFI INIT bfd40 90 .cfa: sp 0 +
STACK CFI INIT c0294 90 .cfa: sp 0 +
STACK CFI INIT c09a8 90 .cfa: sp 0 +
STACK CFI INIT c1210 90 .cfa: sp 0 +
STACK CFI INIT c1c7c 90 .cfa: sp 0 +
STACK CFI INIT c1e14 90 .cfa: sp 0 +
STACK CFI INIT c1f9c b0 .cfa: sp 0 +
STACK CFI INIT c204c b0 .cfa: sp 0 +
STACK CFI INIT c20fc b0 .cfa: sp 0 +
STACK CFI INIT c21ac b0 .cfa: sp 0 +
STACK CFI INIT c225c b0 .cfa: sp 0 +
STACK CFI INIT c230c b0 .cfa: sp 0 +
STACK CFI INIT c23bc b0 .cfa: sp 0 +
STACK CFI INIT c246c b0 .cfa: sp 0 +
STACK CFI INIT c251c b8 .cfa: sp 0 +
STACK CFI INIT c25d4 8c .cfa: sp 0 +
STACK CFI INIT c2660 24 .cfa: sp 0 +
STACK CFI INIT c2684 600 .cfa: sp 0 +
STACK CFI INIT c2c84 350 .cfa: sp 0 +
STACK CFI INIT c2fd4 710 .cfa: sp 0 +
STACK CFI INIT c36e4 350 .cfa: sp 0 +
STACK CFI INIT c3f4c 4a0 .cfa: sp 0 +
STACK CFI INIT c43ec 364 .cfa: sp 0 +
STACK CFI INIT c4750 500 .cfa: sp 0 +
STACK CFI INIT c4c50 68 .cfa: sp 0 +
STACK CFI INIT c4cb8 550 .cfa: sp 0 +
STACK CFI INIT c5208 4dc .cfa: sp 0 +
STACK CFI INIT c56e4 44 .cfa: sp 0 +
STACK CFI INIT c5728 51c .cfa: sp 0 +
STACK CFI INIT c5c44 180 .cfa: sp 0 +
STACK CFI INIT c62ac b8 .cfa: sp 0 +
STACK CFI INIT c6364 8c .cfa: sp 0 +
STACK CFI INIT c63f0 a8 .cfa: sp 0 +
STACK CFI INIT c6498 34c .cfa: sp 0 +
STACK CFI INIT c6cfc 34c .cfa: sp 0 +
STACK CFI INIT c7048 470 .cfa: sp 0 +
STACK CFI INIT c79d0 470 .cfa: sp 0 +
STACK CFI INIT c7ef0 bc .cfa: sp 0 +
STACK CFI INIT c8cb4 28 .cfa: sp 0 +
STACK CFI INIT c9d14 c0 .cfa: sp 0 +
STACK CFI INIT c9dd4 c0 .cfa: sp 0 +
STACK CFI INIT c9ebc 70 .cfa: sp 0 +
STACK CFI INIT c9f2c 4c .cfa: sp 0 +
STACK CFI INIT ca0c4 128 .cfa: sp 0 +
STACK CFI INIT ca1ec 128 .cfa: sp 0 +
STACK CFI INIT ca314 154 .cfa: sp 0 +
STACK CFI INIT ca468 150 .cfa: sp 0 +
STACK CFI INIT ca5b8 144 .cfa: sp 0 +
STACK CFI INIT ca6fc 144 .cfa: sp 0 +
STACK CFI INIT ca840 12c .cfa: sp 0 +
STACK CFI INIT ca96c 12c .cfa: sp 0 +
STACK CFI INIT caa98 148 .cfa: sp 0 +
STACK CFI INIT cabe0 44c .cfa: sp 0 +
STACK CFI INIT cb02c 44c .cfa: sp 0 +
STACK CFI INIT cb478 68 .cfa: sp 0 +
STACK CFI INIT cb6e8 80 .cfa: sp 0 +
STACK CFI INIT cb768 204 .cfa: sp 0 +
STACK CFI INIT cb96c 19c .cfa: sp 0 +
STACK CFI INIT cbb08 f4 .cfa: sp 0 +
STACK CFI INIT cbbfc 818 .cfa: sp 0 +
STACK CFI INIT cc414 e8 .cfa: sp 0 +
STACK CFI INIT cc544 84 .cfa: sp 0 +
STACK CFI INIT cc740 3b8 .cfa: sp 0 +
STACK CFI INIT ccaf8 cc .cfa: sp 0 +
STACK CFI INIT ccc78 240 .cfa: sp 0 +
STACK CFI INIT ccf14 e8 .cfa: sp 0 +
STACK CFI INIT cd044 f8 .cfa: sp 0 +
STACK CFI INIT cd298 40 .cfa: sp 0 +
STACK CFI INIT cd2d8 118 .cfa: sp 0 +
STACK CFI INIT cd3f0 358 .cfa: sp 0 +
STACK CFI INIT cd784 170 .cfa: sp 0 +
STACK CFI INIT cd8f4 27c .cfa: sp 0 +
STACK CFI INIT cdc2c 108 .cfa: sp 0 +
STACK CFI INIT cdd34 a0 .cfa: sp 0 +
STACK CFI INIT cde70 378 .cfa: sp 0 +
STACK CFI INIT ce338 e8 .cfa: sp 0 +
STACK CFI INIT ce730 210 .cfa: sp 0 +
STACK CFI INIT cee24 348 .cfa: sp 0 +
STACK CFI INIT cf548 218 .cfa: sp 0 +
STACK CFI INIT cf760 c8 .cfa: sp 0 +
STACK CFI INIT cf828 624 .cfa: sp 0 +
STACK CFI INIT d0060 688 .cfa: sp 0 +
STACK CFI INIT d06e8 130 .cfa: sp 0 +
STACK CFI INIT d0fb0 578 .cfa: sp 0 +
STACK CFI INIT d1844 138 .cfa: sp 0 +
STACK CFI INIT d197c 158 .cfa: sp 0 +
STACK CFI INIT d1af4 164 .cfa: sp 0 +
STACK CFI INIT d1c58 164 .cfa: sp 0 +
STACK CFI INIT d1dbc 3d8 .cfa: sp 0 +
STACK CFI INIT d21b4 c0 .cfa: sp 0 +
STACK CFI INIT d2274 e0 .cfa: sp 0 +
STACK CFI INIT d25e8 278 .cfa: sp 0 +
STACK CFI INIT d291c 60 .cfa: sp 0 +
STACK CFI INIT d297c 68 .cfa: sp 0 +
STACK CFI INIT d29e4 74 .cfa: sp 0 +
STACK CFI INIT d2a58 190 .cfa: sp 0 +
STACK CFI INIT d2cac 140 .cfa: sp 0 +
STACK CFI INIT d2dec 158 .cfa: sp 0 +
STACK CFI INIT d2f44 144 .cfa: sp 0 +
STACK CFI INIT d3174 2b8 .cfa: sp 0 +
STACK CFI INIT d3c94 1f8 .cfa: sp 0 +
STACK CFI INIT d3e8c 17c .cfa: sp 0 +
STACK CFI INIT d4064 e8 .cfa: sp 0 +
STACK CFI INIT d414c 130 .cfa: sp 0 +
STACK CFI INIT d427c 228 .cfa: sp 0 +
STACK CFI INIT d44a4 278 .cfa: sp 0 +
STACK CFI INIT d472c 280 .cfa: sp 0 +
STACK CFI INIT d49ac 174 .cfa: sp 0 +
STACK CFI INIT d4c9c 248 .cfa: sp 0 +
STACK CFI INIT d4fe0 42c .cfa: sp 0 +
STACK CFI INIT d54dc e0 .cfa: sp 0 +
STACK CFI INIT d583c 584 .cfa: sp 0 +
STACK CFI INIT d66c4 54 .cfa: sp 0 +
STACK CFI INIT d6718 ac .cfa: sp 0 +
STACK CFI INIT d67c4 24 .cfa: sp 0 +
STACK CFI INIT d68b0 68 .cfa: sp 0 +
STACK CFI INIT d6948 100 .cfa: sp 0 +
STACK CFI INIT d6a48 5c .cfa: sp 0 +
STACK CFI INIT d6afc e4 .cfa: sp 0 +
STACK CFI INIT d6c0c 90 .cfa: sp 0 +
STACK CFI INIT d6c9c 130 .cfa: sp 0 +
STACK CFI INIT d6dcc 74 .cfa: sp 0 +
STACK CFI INIT d6e40 48 .cfa: sp 0 +
STACK CFI INIT d6e88 28 .cfa: sp 0 +
STACK CFI INIT d6f0c 19c .cfa: sp 0 +
STACK CFI INIT d70a8 140 .cfa: sp 0 +
STACK CFI INIT d71fc 40 .cfa: sp 0 +
STACK CFI INIT d7288 30 .cfa: sp 0 +
STACK CFI INIT d72cc 150 .cfa: sp 0 +
STACK CFI INIT d75e0 154 .cfa: sp 0 +
STACK CFI INIT d7770 6c .cfa: sp 0 +
STACK CFI INIT d8400 590 .cfa: sp 0 +
STACK CFI d8404 .cfa: sp 256 +
STACK CFI d8420 .cfa: x29 96 + x19: .cfa -8 + ^ x20: .cfa -16 + ^ x21: .cfa -24 + ^ x22: .cfa -32 + ^ x23: .cfa -40 + ^ x24: .cfa -48 + ^ x25: .cfa -56 + ^ x26: .cfa -64 + ^ x27: .cfa -72 + ^ x28: .cfa -80 + ^ .ra: .cfa -88 + ^ x29: .cfa -96 + ^
STACK CFI d872c .cfa: sp 256 +
STACK CFI d8748 .cfa: sp 0 +
STACK CFI d874c .cfa: x29 96 +
STACK CFI d8820 .cfa: sp 256 +
STACK CFI d883c .cfa: sp 0 +
STACK CFI d8840 .cfa: x29 96 +
STACK CFI INIT d89a8 568 .cfa: sp 0 +
STACK CFI d89ac .cfa: sp 256 +
STACK CFI d89c8 .cfa: x29 96 + x19: .cfa -8 + ^ x20: .cfa -16 + ^ x21: .cfa -24 + ^ x22: .cfa -32 + ^ x23: .cfa -40 + ^ x24: .cfa -48 + ^ x25: .cfa -56 + ^ x26: .cfa -64 + ^ x27: .cfa -72 + ^ x28: .cfa -80 + ^ .ra: .cfa -88 + ^ x29: .cfa -96 + ^
STACK CFI d8da0 .cfa: sp 256 +
STACK CFI d8dbc .cfa: sp 0 +
STACK CFI d8dc0 .cfa: x29 96 +
STACK CFI INIT d8f10 568 .cfa: sp 0 +
STACK CFI d8f14 .cfa: sp 256 +
STACK CFI d8f30 .cfa: x29 96 + x19: .cfa -8 + ^ x20: .cfa -16 + ^ x21: .cfa -24 + ^ x22: .cfa -32 + ^ x23: .cfa -40 + ^ x24: .cfa -48 + ^ x25: .cfa -56 + ^ x26: .cfa -64 + ^ x27: .cfa -72 + ^ x28: .cfa -80 + ^ .ra: .cfa -88 + ^ x29: .cfa -96 + ^
STACK CFI d9308 .cfa: sp 256 +
STACK CFI d9324 .cfa: sp 0 +
STACK CFI d9328 .cfa: x29 96 +
STACK CFI INIT d9478 568 .cfa: sp 0 +
STACK CFI d947c .cfa: sp 256 +
STACK CFI d9498 .cfa: x29 96 + x19: .cfa -8 + ^ x20: .cfa -16 + ^ x21: .cfa -24 + ^ x22: .cfa -32 + ^ x23: .cfa -40 + ^ x24: .cfa -48 + ^ x25: .cfa -56 + ^ x26: .cfa -64 + ^ x27: .cfa -72 + ^ x28: .cfa -80 + ^ .ra: .cfa -88 + ^ x29: .cfa -96 + ^
STACK CFI d9870 .cfa: sp 256 +
STACK CFI d988c .cfa: sp 0 +
STACK CFI d9890 .cfa: x29 96 +
STACK CFI INIT d99e0 568 .cfa: sp 0 +
STACK CFI d99e4 .cfa: sp 256 +
STACK CFI d9a00 .cfa: x29 96 + x19: .cfa -8 + ^ x20: .cfa -16 + ^ x21: .cfa -24 + ^ x22: .cfa -32 + ^ x23: .cfa -40 + ^ x24: .cfa -48 + ^ x25: .cfa -56 + ^ x26: .cfa -64 + ^ x27: .cfa -72 + ^ x28: .cfa -80 + ^ .ra: .cfa -88 + ^ x29: .cfa -96 + ^
STACK CFI d9dd8 .cfa: sp 256 +
STACK CFI d9df4 .cfa: sp 0 +
STACK CFI d9df8 .cfa: x29 96 +
STACK CFI INIT d9f48 568 .cfa: sp 0 +
STACK CFI d9f4c .cfa: sp 256 +
STACK CFI d9f68 .cfa: x29 96 + x19: .cfa -8 + ^ x20: .cfa -16 + ^ x21: .cfa -24 + ^ x22: .cfa -32 + ^ x23: .cfa -40 + ^ x24: .cfa -48 + ^ x25: .cfa -56 + ^ x26: .cfa -64 + ^ x27: .cfa -72 + ^ x28: .cfa -80 + ^ .ra: .cfa -88 + ^ x29: .cfa -96 + ^
STACK CFI da340 .cfa: sp 256 +
STACK CFI da35c .cfa: sp 0 +
STACK CFI da360 .cfa: x29 96 +
STACK CFI INIT da4b0 568 .cfa: sp 0 +
STACK CFI da4b4 .cfa: sp 256 +
STACK CFI da4d0 .cfa: x29 96 + x19: .cfa -8 + ^ x20: .cfa -16 + ^ x21: .cfa -24 + ^ x22: .cfa -32 + ^ x23: .cfa -40 + ^ x24: .cfa -48 + ^ x25: .cfa -56 + ^ x26: .cfa -64 + ^ x27: .cfa -72 + ^ x28: .cfa -80 + ^ .ra: .cfa -88 + ^ x29: .cfa -96 + ^
STACK CFI da8a8 .cfa: sp 256 +
STACK CFI da8c4 .cfa: sp 0 +
STACK CFI da8c8 .cfa: x29 96 +
STACK CFI INIT daa18 568 .cfa: sp 0 +
STACK CFI daa1c .cfa: sp 256 +
STACK CFI daa38 .cfa: x29 96 + x19: .cfa -8 + ^ x20: .cfa -16 + ^ x21: .cfa -24 + ^ x22: .cfa -32 + ^ x23: .cfa -40 + ^ x24: .cfa -48 + ^ x25: .cfa -56 + ^ x26: .cfa -64 + ^ x27: .cfa -72 + ^ x28: .cfa -80 + ^ .ra: .cfa -88 + ^ x29: .cfa -96 + ^
STACK CFI dae10 .cfa: sp 256 +
STACK CFI dae2c .cfa: sp 0 +
STACK CFI dae30 .cfa: x29 96 +
STACK CFI INIT daf80 568 .cfa: sp 0 +
STACK CFI daf84 .cfa: sp 256 +
STACK CFI dafa0 .cfa: x29 96 + x19: .cfa -8 + ^ x20: .cfa -16 + ^ x21: .cfa -24 + ^ x22: .cfa -32 + ^ x23: .cfa -40 + ^ x24: .cfa -48 + ^ x25: .cfa -56 + ^ x26: .cfa -64 + ^ x27: .cfa -72 + ^ x28: .cfa -80 + ^ .ra: .cfa -88 + ^ x29: .cfa -96 + ^
STACK CFI db378 .cfa: sp 256 +
STACK CFI db394 .cfa: sp 0 +
STACK CFI db398 .cfa: x29 96 +
STACK CFI INIT db4e8 7c8 .cfa: sp 0 +
STACK CFI db4ec .cfa: sp 96 +
STACK CFI db504 .cfa: x29 96 + x19: .cfa -8 + ^ x20: .cfa -16 + ^ x21: .cfa -24 + ^ x22: .cfa -32 + ^ x23: .cfa -40 + ^ x24: .cfa -48 + ^ x25: .cfa -56 + ^ x26: .cfa -64 + ^ x27: .cfa -72 + ^ x28: .cfa -80 + ^ .ra: .cfa -88 + ^ x29: .cfa -96 + ^
STACK CFI dbaec .cfa: sp 96 +
STACK CFI dbb04 .cfa: sp 0 +
STACK CFI dbb08 .cfa: x29 96 +
STACK CFI INIT dbcb0 568 .cfa: sp 0 +
STACK CFI dbcb4 .cfa: sp 256 +
STACK CFI dbcd0 .cfa: x29 96 + x19: .cfa -8 + ^ x20: .cfa -16 + ^ x21: .cfa -24 + ^ x22: .cfa -32 + ^ x23: .cfa -40 + ^ x24: .cfa -48 + ^ x25: .cfa -56 + ^ x26: .cfa -64 + ^ x27: .cfa -72 + ^ x28: .cfa -80 + ^ .ra: .cfa -88 + ^ x29: .cfa -96 + ^
STACK CFI dc0a8 .cfa: sp 256 +
STACK CFI dc0c4 .cfa: sp 0 +
STACK CFI dc0c8 .cfa: x29 96 +
STACK CFI INIT dc218 568 .cfa: sp 0 +
STACK CFI dc21c .cfa: sp 256 +
STACK CFI dc238 .cfa: x29 96 + x19: .cfa -8 + ^ x20: .cfa -16 + ^ x21: .cfa -24 + ^ x22: .cfa -32 + ^ x23: .cfa -40 + ^ x24: .cfa -48 + ^ x25: .cfa -56 + ^ x26: .cfa -64 + ^ x27: .cfa -72 + ^ x28: .cfa -80 + ^ .ra: .cfa -88 + ^ x29: .cfa -96 + ^
STACK CFI dc610 .cfa: sp 256 +
STACK CFI dc62c .cfa: sp 0 +
STACK CFI dc630 .cfa: x29 96 +
STACK CFI INIT dc780 568 .cfa: sp 0 +
STACK CFI dc784 .cfa: sp 256 +
STACK CFI dc7a0 .cfa: x29 96 + x19: .cfa -8 + ^ x20: .cfa -16 + ^ x21: .cfa -24 + ^ x22: .cfa -32 + ^ x23: .cfa -40 + ^ x24: .cfa -48 + ^ x25: .cfa -56 + ^ x26: .cfa -64 + ^ x27: .cfa -72 + ^ x28: .cfa -80 + ^ .ra: .cfa -88 + ^ x29: .cfa -96 + ^
STACK CFI dcb78 .cfa: sp 256 +
STACK CFI dcb94 .cfa: sp 0 +
STACK CFI dcb98 .cfa: x29 96 +
STACK CFI INIT dce08 a00 .cfa: sp 0 +
STACK CFI dce0c .cfa: sp 288 +
STACK CFI dce28 .cfa: x29 96 + x19: .cfa -8 + ^ x20: .cfa -16 + ^ x21: .cfa -24 + ^ x22: .cfa -32 + ^ x23: .cfa -40 + ^ x24: .cfa -48 + ^ x25: .cfa -56 + ^ x26: .cfa -64 + ^ x27: .cfa -72 + ^ x28: .cfa -80 + ^ .ra: .cfa -88 + ^ x29: .cfa -96 + ^
STACK CFI dd5a4 .cfa: sp 288 +
STACK CFI dd5c0 .cfa: sp 0 +
STACK CFI dd5c4 .cfa: x29 96 +
STACK CFI INIT dd870 50 .cfa: sp 0 +
STACK CFI dd874 .cfa: sp 32 +
STACK CFI dd87c .cfa: x29 32 + x19: .cfa -8 + ^ x20: .cfa -16 + ^ .ra: .cfa -24 + ^ x29: .cfa -32 + ^
STACK CFI INIT dd924 288 .cfa: sp 0 +
STACK CFI dd928 .cfa: sp 144 +
STACK CFI dd944 .cfa: x29 96 + x19: .cfa -8 + ^ x20: .cfa -16 + ^ x21: .cfa -24 + ^ x22: .cfa -32 + ^ x23: .cfa -40 + ^ x24: .cfa -48 + ^ x25: .cfa -56 + ^ x26: .cfa -64 + ^ x27: .cfa -80 + ^ .ra: .cfa -88 + ^ x29: .cfa -96 + ^
STACK CFI ddaf4 .cfa: sp 144 +
STACK CFI ddb10 .cfa: sp 0 +
STACK CFI ddb14 .cfa: x29 96 +
STACK CFI ddb24 .cfa: sp 144 +
STACK CFI ddb40 .cfa: sp 0 +
STACK CFI ddb44 .cfa: x29 96 +
STACK CFI INIT de260 a78 .cfa: sp 0 +
STACK CFI de264 .cfa: sp 160 +
STACK CFI de284 .cfa: x29 96 + x19: .cfa -8 + ^ x20: .cfa -16 + ^ x21: .cfa -24 + ^ x22: .cfa -32 + ^ x23: .cfa -40 + ^ x24: .cfa -48 + ^ x25: .cfa -56 + ^ x26: .cfa -64 + ^ x27: .cfa -72 + ^ x28: .cfa -80 + ^ .ra: .cfa -88 + ^ x29: .cfa -96 + ^ v8: .cfa -112 + ^
STACK CFI dec1c .cfa: sp 160 +
STACK CFI dec3c .cfa: sp 0 +
STACK CFI dec40 .cfa: x29 96 +
STACK CFI INIT decd8 39c .cfa: sp 0 +
STACK CFI decdc .cfa: sp 96 +
STACK CFI decf0 .cfa: x29 64 + x19: .cfa -8 + ^ x20: .cfa -16 + ^ x21: .cfa -24 + ^ x22: .cfa -32 + ^ x23: .cfa -40 + ^ x24: .cfa -48 + ^ .ra: .cfa -56 + ^ x29: .cfa -64 + ^
STACK CFI dedb0 .cfa: sp 96 +
STACK CFI dedc4 .cfa: sp 0 +
STACK CFI dedc8 .cfa: x29 64 +
STACK CFI INIT df074 11c .cfa: sp 0 +
STACK CFI df078 .cfa: sp 80 +
STACK CFI df088 .cfa: x29 48 + x19: .cfa -8 + ^ x20: .cfa -16 + ^ x21: .cfa -32 + ^ .ra: .cfa -40 + ^ x29: .cfa -48 + ^
STACK CFI df14c .cfa: sp 80 +
STACK CFI df15c .cfa: sp 0 +
STACK CFI df160 .cfa: x29 48 +
STACK CFI INIT df244 59c .cfa: sp 0 +
STACK CFI df248 .cfa: sp 192 +
STACK CFI df268 .cfa: x29 88 + x19: .cfa -8 + ^ x20: .cfa -16 + ^ x21: .cfa -24 + ^ x22: .cfa -32 + ^ x23: .cfa -40 + ^ x24: .cfa -48 + ^ x25: .cfa -56 + ^ x26: .cfa -64 + ^ x27: .cfa -72 + ^ .ra: .cfa -80 + ^ x29: .cfa -88 + ^ v8: .cfa -96 + ^
STACK CFI df5ec .cfa: sp 192 +
STACK CFI df60c .cfa: sp 0 +
STACK CFI df610 .cfa: x29 88 +
STACK CFI INIT dfb8c 3e0 .cfa: sp 0 +
STACK CFI dfb90 .cfa: sp 240 +
STACK CFI dfba4 .cfa: x29 64 + x19: .cfa -8 + ^ x20: .cfa -16 + ^ x21: .cfa -24 + ^ x22: .cfa -32 + ^ x23: .cfa -40 + ^ x24: .cfa -48 + ^ .ra: .cfa -56 + ^ x29: .cfa -64 + ^
STACK CFI dfe48 .cfa: sp 240 +
STACK CFI dfe5c .cfa: sp 0 +
STACK CFI dfe60 .cfa: x29 64 +
STACK CFI INIT dff70 218 .cfa: sp 0 +
STACK CFI dff74 .cfa: sp 96 +
STACK CFI dff88 .cfa: x29 64 + x19: .cfa -8 + ^ x20: .cfa -16 + ^ x21: .cfa -24 + ^ x22: .cfa -32 + ^ x23: .cfa -40 + ^ x24: .cfa -48 + ^ .ra: .cfa -56 + ^ x29: .cfa -64 + ^
STACK CFI e0140 .cfa: sp 96 +
STACK CFI e0154 .cfa: sp 0 +
STACK CFI e0158 .cfa: x29 64 +
STACK CFI INIT e0188 758 .cfa: sp 0 +
STACK CFI e018c .cfa: sp 128 +
STACK CFI e01a8 .cfa: x29 72 + x19: .cfa -8 + ^ x20: .cfa -16 + ^ x21: .cfa -24 + ^ x22: .cfa -32 + ^ x23: .cfa -40 + ^ x24: .cfa -48 + ^ x25: .cfa -56 + ^ .ra: .cfa -64 + ^ x29: .cfa -72 + ^ v8: .cfa -80 + ^
STACK CFI e0884 .cfa: sp 128 +
STACK CFI e08a0 .cfa: sp 0 +
STACK CFI e08a4 .cfa: x29 72 +
STACK CFI INIT e08e0 724 .cfa: sp 0 +
STACK CFI e08e4 .cfa: sp 304 +
STACK CFI e0900 .cfa: x29 96 + x19: .cfa -8 + ^ x20: .cfa -16 + ^ x21: .cfa -24 + ^ x22: .cfa -32 + ^ x23: .cfa -40 + ^ x24: .cfa -48 + ^ x25: .cfa -56 + ^ x26: .cfa -64 + ^ x28: .cfa -80 + ^ .ra: .cfa -88 + ^ x29: .cfa -96 + ^
STACK CFI e0e34 .cfa: sp 304 +
STACK CFI e0e50 .cfa: sp 0 +
STACK CFI e0e54 .cfa: x29 96 +
STACK CFI INIT e1618 724 .cfa: sp 0 +
STACK CFI e161c .cfa: sp 304 +
STACK CFI e1638 .cfa: x29 96 + x19: .cfa -8 + ^ x20: .cfa -16 + ^ x21: .cfa -24 + ^ x22: .cfa -32 + ^ x23: .cfa -40 + ^ x24: .cfa -48 + ^ x25: .cfa -56 + ^ x26: .cfa -64 + ^ x28: .cfa -80 + ^ .ra: .cfa -88 + ^ x29: .cfa -96 + ^
STACK CFI e1b6c .cfa: sp 304 +
STACK CFI e1b88 .cfa: sp 0 +
STACK CFI e1b8c .cfa: x29 96 +
STACK CFI INIT e2350 770 .cfa: sp 0 +
STACK CFI e2354 .cfa: sp 304 +
STACK CFI e2370 .cfa: x29 96 + x19: .cfa -8 + ^ x20: .cfa -16 + ^ x21: .cfa -24 + ^ x22: .cfa -32 + ^ x23: .cfa -40 + ^ x24: .cfa -48 + ^ x25: .cfa -56 + ^ x26: .cfa -64 + ^ x27: .cfa -72 + ^ x28: .cfa -80 + ^ .ra: .cfa -88 + ^ x29: .cfa -96 + ^
STACK CFI e28d4 .cfa: sp 304 +
STACK CFI e28f0 .cfa: sp 0 +
STACK CFI e28f4 .cfa: x29 96 +
STACK CFI INIT e30d4 754 .cfa: sp 0 +
STACK CFI e30d8 .cfa: sp 304 +
STACK CFI e30f4 .cfa: x29 96 + x19: .cfa -8 + ^ x20: .cfa -16 + ^ x21: .cfa -24 + ^ x22: .cfa -32 + ^ x23: .cfa -40 + ^ x24: .cfa -48 + ^ x25: .cfa -56 + ^ x26: .cfa -64 + ^ x27: .cfa -72 + ^ x28: .cfa -80 + ^ .ra: .cfa -88 + ^ x29: .cfa -96 + ^
STACK CFI e3640 .cfa: sp 304 +
STACK CFI e365c .cfa: sp 0 +
STACK CFI e3660 .cfa: x29 96 +
STACK CFI INIT e382c 224 .cfa: sp 0 +
STACK CFI e3830 .cfa: sp 112 +
STACK CFI e3848 .cfa: x29 80 + x19: .cfa -8 + ^ x20: .cfa -16 + ^ x21: .cfa -24 + ^ x22: .cfa -32 + ^ x23: .cfa -40 + ^ x24: .cfa -48 + ^ x25: .cfa -64 + ^ .ra: .cfa -72 + ^ x29: .cfa -80 + ^
STACK CFI e3a04 .cfa: sp 112 +
STACK CFI e3a1c .cfa: sp 0 +
STACK CFI e3a20 .cfa: x29 80 +
STACK CFI INIT e3a50 518 .cfa: sp 0 +
STACK CFI e3a54 .cfa: sp 128 +
STACK CFI e3a70 .cfa: x29 80 + x19: .cfa -8 + ^ x20: .cfa -16 + ^ x21: .cfa -24 + ^ x22: .cfa -32 + ^ x23: .cfa -40 + ^ x24: .cfa -48 + ^ x25: .cfa -56 + ^ x26: .cfa -64 + ^ .ra: .cfa -72 + ^ x29: .cfa -80 + ^ v8: .cfa -96 + ^
STACK CFI e3b2c .cfa: sp 128 +
STACK CFI e3b48 .cfa: sp 0 +
STACK CFI e3b4c .cfa: x29 80 +
STACK CFI INIT e3f68 404 .cfa: sp 0 +
STACK CFI e3f6c .cfa: sp 208 +
STACK CFI e3f80 .cfa: x29 64 + x19: .cfa -8 + ^ x20: .cfa -16 + ^ x21: .cfa -24 + ^ x22: .cfa -32 + ^ x23: .cfa -40 + ^ x24: .cfa -48 + ^ .ra: .cfa -56 + ^ x29: .cfa -64 + ^
STACK CFI e424c .cfa: sp 208 +
STACK CFI e4260 .cfa: sp 0 +
STACK CFI e4264 .cfa: x29 64 +
STACK CFI INIT e44f8 350 .cfa: sp 0 +
STACK CFI e44fc .cfa: sp 192 +
STACK CFI e4510 .cfa: x29 64 + x19: .cfa -8 + ^ x20: .cfa -16 + ^ x21: .cfa -24 + ^ x22: .cfa -32 + ^ x23: .cfa -48 + ^ .ra: .cfa -56 + ^ x29: .cfa -64 + ^
STACK CFI e4750 .cfa: sp 192 +
STACK CFI e4764 .cfa: sp 0 +
STACK CFI e4768 .cfa: x29 64 +
STACK CFI INIT e49d4 f4 .cfa: sp 0 +
STACK CFI e49d8 .cfa: sp 32 +
STACK CFI e49e0 .cfa: x29 32 + x19: .cfa -8 + ^ x20: .cfa -16 + ^ .ra: .cfa -24 + ^ x29: .cfa -32 + ^
STACK CFI e4a14 .cfa: sp 32 +
STACK CFI e4a1c .cfa: sp 0 +
STACK CFI e4a20 .cfa: x29 32 +
STACK CFI e4a24 .cfa: sp 32 +
STACK CFI e4a2c .cfa: sp 0 +
STACK CFI e4a30 .cfa: x29 32 +
STACK CFI INIT e4ac8 394 .cfa: sp 0 +
STACK CFI e4acc .cfa: sp 240 +
STACK CFI e4ae0 .cfa: x29 64 + x19: .cfa -8 + ^ x20: .cfa -16 + ^ x21: .cfa -24 + ^ x22: .cfa -32 + ^ x23: .cfa -40 + ^ x24: .cfa -48 + ^ .ra: .cfa -56 + ^ x29: .cfa -64 + ^
STACK CFI e4d54 .cfa: sp 240 +
STACK CFI e4d68 .cfa: sp 0 +
STACK CFI e4d6c .cfa: x29 64 +
STACK CFI INIT e4fe8 f4 .cfa: sp 0 +
STACK CFI e4fec .cfa: sp 32 +
STACK CFI e4ff4 .cfa: x29 32 + x19: .cfa -8 + ^ x20: .cfa -16 + ^ .ra: .cfa -24 + ^ x29: .cfa -32 + ^
STACK CFI e5028 .cfa: sp 32 +
STACK CFI e5030 .cfa: sp 0 +
STACK CFI e5034 .cfa: x29 32 +
STACK CFI e5038 .cfa: sp 32 +
STACK CFI e5040 .cfa: sp 0 +
STACK CFI e5044 .cfa: x29 32 +
STACK CFI INIT e50dc 394 .cfa: sp 0 +
STACK CFI e50e0 .cfa: sp 240 +
STACK CFI e50f4 .cfa: x29 64 + x19: .cfa -8 + ^ x20: .cfa -16 + ^ x21: .cfa -24 + ^ x22: .cfa -32 + ^ x23: .cfa -40 + ^ x24: .cfa -48 + ^ .ra: .cfa -56 + ^ x29: .cfa -64 + ^
STACK CFI e5368 .cfa: sp 240 +
STACK CFI e537c .cfa: sp 0 +
STACK CFI e5380 .cfa: x29 64 +
STACK CFI INIT e55fc f4 .cfa: sp 0 +
STACK CFI e5600 .cfa: sp 32 +
STACK CFI e5608 .cfa: x29 32 + x19: .cfa -8 + ^ x20: .cfa -16 + ^ .ra: .cfa -24 + ^ x29: .cfa -32 + ^
STACK CFI e563c .cfa: sp 32 +
STACK CFI e5644 .cfa: sp 0 +
STACK CFI e5648 .cfa: x29 32 +
STACK CFI e564c .cfa: sp 32 +
STACK CFI e5654 .cfa: sp 0 +
STACK CFI e5658 .cfa: x29 32 +
STACK CFI INIT e56f0 35c .cfa: sp 0 +
STACK CFI e56f4 .cfa: sp 192 +
STACK CFI e5708 .cfa: x29 64 + x19: .cfa -8 + ^ x20: .cfa -16 + ^ x21: .cfa -24 + ^ x22: .cfa -32 + ^ x23: .cfa -48 + ^ .ra: .cfa -56 + ^ x29: .cfa -64 + ^
STACK CFI e5954 .cfa: sp 192 +
STACK CFI e5968 .cfa: sp 0 +
STACK CFI e596c .cfa: x29 64 +
STACK CFI INIT e5bd8 fc .cfa: sp 0 +
STACK CFI e5bdc .cfa: sp 32 +
STACK CFI e5be4 .cfa: x29 32 + x19: .cfa -8 + ^ x20: .cfa -16 + ^ .ra: .cfa -24 + ^ x29: .cfa -32 + ^
STACK CFI e5c18 .cfa: sp 32 +
STACK CFI e5c20 .cfa: sp 0 +
STACK CFI e5c24 .cfa: x29 32 +
STACK CFI e5c28 .cfa: sp 32 +
STACK CFI e5c30 .cfa: sp 0 +
STACK CFI e5c34 .cfa: x29 32 +
STACK CFI INIT e5cd4 368 .cfa: sp 0 +
STACK CFI e5cd8 .cfa: sp 192 +
STACK CFI e5cec .cfa: x29 64 + x19: .cfa -8 + ^ x20: .cfa -16 + ^ x21: .cfa -24 + ^ x22: .cfa -32 + ^ x23: .cfa -48 + ^ .ra: .cfa -56 + ^ x29: .cfa -64 + ^
STACK CFI e5f44 .cfa: sp 192 +
STACK CFI e5f58 .cfa: sp 0 +
STACK CFI e5f5c .cfa: x29 64 +
STACK CFI INIT e61c8 10c .cfa: sp 0 +
STACK CFI e61cc .cfa: sp 32 +
STACK CFI e61d4 .cfa: x29 32 + x19: .cfa -8 + ^ x20: .cfa -16 + ^ .ra: .cfa -24 + ^ x29: .cfa -32 + ^
STACK CFI e6208 .cfa: sp 32 +
STACK CFI e6210 .cfa: sp 0 +
STACK CFI e6214 .cfa: x29 32 +
STACK CFI e6218 .cfa: sp 32 +
STACK CFI e6220 .cfa: sp 0 +
STACK CFI e6224 .cfa: x29 32 +
STACK CFI INIT e62d4 4c0 .cfa: sp 0 +
STACK CFI e62d8 .cfa: sp 240 +
STACK CFI e62ec .cfa: x29 64 + x19: .cfa -8 + ^ x20: .cfa -16 + ^ x21: .cfa -24 + ^ x22: .cfa -32 + ^ x23: .cfa -40 + ^ x24: .cfa -48 + ^ .ra: .cfa -56 + ^ x29: .cfa -64 + ^
STACK CFI e665c .cfa: sp 240 +
STACK CFI e6670 .cfa: sp 0 +
STACK CFI e6674 .cfa: x29 64 +
STACK CFI INIT e6798 2bc .cfa: sp 0 +
STACK CFI e679c .cfa: sp 160 +
STACK CFI e67b8 .cfa: x29 80 + x19: .cfa -8 + ^ x20: .cfa -16 + ^ x21: .cfa -24 + ^ x22: .cfa -32 + ^ x23: .cfa -40 + ^ x24: .cfa -48 + ^ x25: .cfa -56 + ^ x26: .cfa -64 + ^ .ra: .cfa -72 + ^ x29: .cfa -80 + ^ v8: .cfa -96 + ^
STACK CFI e69d0 .cfa: sp 160 +
STACK CFI e69ec .cfa: sp 0 +
STACK CFI e69f0 .cfa: x29 80 +
STACK CFI INIT e6aa0 13c .cfa: sp 0 +
STACK CFI e6aa4 .cfa: sp 112 +
STACK CFI e6ab4 .cfa: x29 48 + x19: .cfa -8 + ^ x20: .cfa -16 + ^ x21: .cfa -24 + ^ x22: .cfa -32 + ^ .ra: .cfa -40 + ^ x29: .cfa -48 + ^
STACK CFI e6b08 .cfa: sp 112 +
STACK CFI e6b18 .cfa: sp 0 +
STACK CFI e6b1c .cfa: x29 48 +
STACK CFI INIT e6c98 100 .cfa: sp 0 +
STACK CFI e6c9c .cfa: sp 48 +
STACK CFI e6ca8 .cfa: x29 48 + x19: .cfa -8 + ^ x20: .cfa -16 + ^ x21: .cfa -24 + ^ x22: .cfa -32 + ^ .ra: .cfa -40 + ^ x29: .cfa -48 + ^
STACK CFI e6cb8 .cfa: sp 48 +
STACK CFI e6cc4 .cfa: sp 0 +
STACK CFI e6cc8 .cfa: x29 48 +
STACK CFI INIT e6dfc 20c .cfa: sp 0 +
STACK CFI e6e00 .cfa: sp 224 +
STACK CFI e6e20 .cfa: x29 96 + x19: .cfa -8 + ^ x20: .cfa -16 + ^ x21: .cfa -24 + ^ x22: .cfa -32 + ^ x23: .cfa -40 + ^ x24: .cfa -48 + ^ x25: .cfa -56 + ^ x26: .cfa -64 + ^ x27: .cfa -72 + ^ x28: .cfa -80 + ^ .ra: .cfa -88 + ^ x29: .cfa -96 + ^ v8: .cfa -112 + ^
STACK CFI e6ee8 .cfa: sp 224 +
STACK CFI e6f08 .cfa: sp 0 +
STACK CFI e6f0c .cfa: x29 96 +
STACK CFI INIT e7008 958 .cfa: sp 0 +
STACK CFI e700c .cfa: sp 112 +
STACK CFI e7024 .cfa: x29 80 + x19: .cfa -8 + ^ x20: .cfa -16 + ^ x21: .cfa -24 + ^ x22: .cfa -32 + ^ x23: .cfa -40 + ^ x24: .cfa -48 + ^ x25: .cfa -56 + ^ x26: .cfa -64 + ^ .ra: .cfa -72 + ^ x29: .cfa -80 + ^
STACK CFI e77c4 .cfa: sp 112 +
STACK CFI e77dc .cfa: sp 0 +
STACK CFI e77e0 .cfa: x29 80 +
STACK CFI e78b8 .cfa: sp 112 +
STACK CFI e78d0 .cfa: sp 0 +
STACK CFI e78d4 .cfa: x29 80 +
STACK CFI INIT e79e0 50 .cfa: sp 0 +
STACK CFI e79e4 .cfa: sp 32 +
STACK CFI e79ec .cfa: x29 32 + x19: .cfa -8 + ^ x20: .cfa -16 + ^ .ra: .cfa -24 + ^ x29: .cfa -32 + ^
STACK CFI INIT e7b58 50 .cfa: sp 0 +
STACK CFI e7b5c .cfa: sp 32 +
STACK CFI e7b64 .cfa: x29 32 + x19: .cfa -8 + ^ x20: .cfa -16 + ^ .ra: .cfa -24 + ^ x29: .cfa -32 + ^
STACK CFI INIT e7bd8 1fc .cfa: sp 0 +
STACK CFI e7bdc .cfa: sp 240 +
STACK CFI e7bf4 .cfa: x29 80 + x19: .cfa -8 + ^ x20: .cfa -16 + ^ x21: .cfa -24 + ^ x22: .cfa -32 + ^ x23: .cfa -40 + ^ x24: .cfa -48 + ^ x25: .cfa -64 + ^ .ra: .cfa -72 + ^ x29: .cfa -80 + ^
STACK CFI e7d54 .cfa: sp 240 +
STACK CFI e7d6c .cfa: sp 0 +
STACK CFI e7d70 .cfa: x29 80 +
STACK CFI INIT e7e50 cac .cfa: sp 0 +
STACK CFI e7e54 .cfa: sp 336 +
STACK CFI e7e70 .cfa: x29 96 + x19: .cfa -8 + ^ x20: .cfa -16 + ^ x21: .cfa -24 + ^ x22: .cfa -32 + ^ x23: .cfa -40 + ^ x24: .cfa -48 + ^ x25: .cfa -56 + ^ x26: .cfa -64 + ^ x27: .cfa -72 + ^ x28: .cfa -80 + ^ .ra: .cfa -88 + ^ x29: .cfa -96 + ^
STACK CFI e88c0 .cfa: sp 336 +
STACK CFI e88dc .cfa: sp 0 +
STACK CFI e88e0 .cfa: x29 96 +
STACK CFI INIT ec7bc bf8 .cfa: sp 0 +
STACK CFI ec7c0 .cfa: sp 96 +
STACK CFI ec7d8 .cfa: x29 96 + x19: .cfa -8 + ^ x20: .cfa -16 + ^ x21: .cfa -24 + ^ x22: .cfa -32 + ^ x23: .cfa -40 + ^ x24: .cfa -48 + ^ x25: .cfa -56 + ^ x26: .cfa -64 + ^ x27: .cfa -72 + ^ x28: .cfa -80 + ^ .ra: .cfa -88 + ^ x29: .cfa -96 + ^
STACK CFI ed100 .cfa: sp 96 +
STACK CFI ed118 .cfa: sp 0 +
STACK CFI ed11c .cfa: x29 96 +
STACK CFI INIT ed508 274 .cfa: sp 0 +
STACK CFI ed50c .cfa: sp 160 +
STACK CFI ed524 .cfa: x29 80 + x19: .cfa -8 + ^ x20: .cfa -16 + ^ x21: .cfa -24 + ^ x22: .cfa -32 + ^ x23: .cfa -40 + ^ x24: .cfa -48 + ^ x25: .cfa -64 + ^ .ra: .cfa -72 + ^ x29: .cfa -80 + ^
STACK CFI ed6a8 .cfa: sp 160 +
STACK CFI ed6c0 .cfa: sp 0 +
STACK CFI ed6c4 .cfa: x29 80 +
STACK CFI INIT edb30 3dc .cfa: sp 0 +
STACK CFI edb34 .cfa: sp 96 +
STACK CFI edb4c .cfa: x29 96 + x19: .cfa -8 + ^ x20: .cfa -16 + ^ x21: .cfa -24 + ^ x22: .cfa -32 + ^ x23: .cfa -40 + ^ x24: .cfa -48 + ^ x25: .cfa -56 + ^ x26: .cfa -64 + ^ x27: .cfa -72 + ^ x28: .cfa -80 + ^ .ra: .cfa -88 + ^ x29: .cfa -96 + ^
STACK CFI edeac .cfa: sp 96 +
STACK CFI edec4 .cfa: sp 0 +
STACK CFI edec8 .cfa: x29 96 +
STACK CFI INIT ee01c c20 .cfa: sp 0 +
STACK CFI ee020 .cfa: sp 96 +
STACK CFI ee038 .cfa: x29 96 + x19: .cfa -8 + ^ x20: .cfa -16 + ^ x21: .cfa -24 + ^ x22: .cfa -32 + ^ x23: .cfa -40 + ^ x24: .cfa -48 + ^ x25: .cfa -56 + ^ x26: .cfa -64 + ^ x27: .cfa -72 + ^ x28: .cfa -80 + ^ .ra: .cfa -88 + ^ x29: .cfa -96 + ^
STACK CFI ee984 .cfa: sp 96 +
STACK CFI ee99c .cfa: sp 0 +
STACK CFI ee9a0 .cfa: x29 96 +
STACK CFI INIT eef40 b70 .cfa: sp 0 +
STACK CFI eef44 .cfa: sp 96 +
STACK CFI eef5c .cfa: x29 96 + x19: .cfa -8 + ^ x20: .cfa -16 + ^ x21: .cfa -24 + ^ x22: .cfa -32 + ^ x23: .cfa -40 + ^ x24: .cfa -48 + ^ x25: .cfa -56 + ^ x26: .cfa -64 + ^ x27: .cfa -72 + ^ x28: .cfa -80 + ^ .ra: .cfa -88 + ^ x29: .cfa -96 + ^
STACK CFI efa08 .cfa: sp 96 +
STACK CFI efa20 .cfa: sp 0 +
STACK CFI efa24 .cfa: x29 96 +
STACK CFI INIT efc80 1464 .cfa: sp 0 +
STACK CFI efc84 .cfa: sp 96 +
STACK CFI efc9c .cfa: x29 96 + x19: .cfa -8 + ^ x20: .cfa -16 + ^ x21: .cfa -24 + ^ x22: .cfa -32 + ^ x23: .cfa -40 + ^ x24: .cfa -48 + ^ x25: .cfa -56 + ^ x26: .cfa -64 + ^ x27: .cfa -72 + ^ x28: .cfa -80 + ^ .ra: .cfa -88 + ^ x29: .cfa -96 + ^
STACK CFI f0e14 .cfa: sp 96 +
STACK CFI f0e2c .cfa: sp 0 +
STACK CFI f0e30 .cfa: x29 96 +
STACK CFI INIT f1210 730 .cfa: sp 0 +
STACK CFI f1214 .cfa: sp 368 +
STACK CFI f1230 .cfa: x29 96 + x19: .cfa -8 + ^ x20: .cfa -16 + ^ x21: .cfa -24 + ^ x22: .cfa -32 + ^ x23: .cfa -40 + ^ x24: .cfa -48 + ^ x25: .cfa -56 + ^ x26: .cfa -64 + ^ x27: .cfa -72 + ^ x28: .cfa -80 + ^ .ra: .cfa -88 + ^ x29: .cfa -96 + ^
STACK CFI f12c8 .cfa: sp 368 +
STACK CFI f12e4 .cfa: sp 0 +
STACK CFI f12e8 .cfa: x29 96 +
STACK CFI f1334 .cfa: sp 368 +
STACK CFI f1350 .cfa: sp 0 +
STACK CFI f1354 .cfa: x29 96 +
STACK CFI INIT f1dbc eec .cfa: sp 0 +
STACK CFI f1dc0 .cfa: sp 96 +
STACK CFI f1dd8 .cfa: x29 96 + x19: .cfa -8 + ^ x20: .cfa -16 + ^ x21: .cfa -24 + ^ x22: .cfa -32 + ^ x23: .cfa -40 + ^ x24: .cfa -48 + ^ x25: .cfa -56 + ^ x26: .cfa -64 + ^ x27: .cfa -72 + ^ x28: .cfa -80 + ^ .ra: .cfa -88 + ^ x29: .cfa -96 + ^
STACK CFI f2938 .cfa: sp 96 +
STACK CFI f2950 .cfa: sp 0 +
STACK CFI f2954 .cfa: x29 96 +
STACK CFI INIT f314c 1ee4 .cfa: sp 0 +
STACK CFI f3150 .cfa: sp 112 +
STACK CFI f316c .cfa: x29 96 + x19: .cfa -8 + ^ x20: .cfa -16 + ^ x21: .cfa -24 + ^ x22: .cfa -32 + ^ x23: .cfa -40 + ^ x24: .cfa -48 + ^ x25: .cfa -56 + ^ x26: .cfa -64 + ^ x27: .cfa -72 + ^ x28: .cfa -80 + ^ .ra: .cfa -88 + ^ x29: .cfa -96 + ^ v8: .cfa -112 + ^
STACK CFI f4c10 .cfa: sp 112 +
STACK CFI f4c2c .cfa: sp 0 +
STACK CFI f4c30 .cfa: x29 96 +
STACK CFI INIT f75e4 980 .cfa: sp 0 +
STACK CFI f75e8 .cfa: sp 144 +
STACK CFI f7600 .cfa: x29 80 + x19: .cfa -8 + ^ x20: .cfa -16 + ^ x21: .cfa -24 + ^ x22: .cfa -32 + ^ x23: .cfa -40 + ^ x24: .cfa -48 + ^ x25: .cfa -64 + ^ .ra: .cfa -72 + ^ x29: .cfa -80 + ^
STACK CFI f7ee0 .cfa: sp 144 +
STACK CFI f7ef8 .cfa: sp 0 +
STACK CFI f7efc .cfa: x29 80 +
