MODULE Linux arm64 9897EFDB0A1DA056E29360F8A77163F30 raydeeux.yetanotherqolmod.android64.so
INFO CODE_ID DBEF97981D0A56A0E29360F8A77163F3F7BA55C1
INFO GENERATOR mozilla/dump_syms 2.3.4
PUBLIC 2d630 0 __on_dlclose
PUBLIC 2d640 0 __emutls_unregister_key
PUBLIC 2d648 0 __on_dlclose_late
PUBLIC 2d650 0 __atexit_handler_wrapper
PUBLIC 2d664 0 atexit
PUBLIC 2d680 0 pthread_atfork
PUBLIC 2d690 0 unwind_phase2
PUBLIC 2d7c4 0 _Unwind_Resume
PUBLIC 2d848 0 unwind_phase2_forced
PUBLIC m 2d93c 0 __unw_init_local
PUBLIC m 2d9e4 0 __unw_get_reg
PUBLIC 2da60 0 __unw_step_stage2
PUBLIC m 2da74 0 __unw_get_proc_info
PUBLIC m 2dab4 0 __unw_resume
PUBLIC 2dadc 0 libunwind::CFI_Parser<libunwind::LocalAddressSpace>::decodeFDE(libunwind::LocalAddressSpace&, unsigned long, libunwind::CFI_Parser<libunwind::LocalAddressSpace>::FDE_Info*, libunwind::CFI_Parser<libunwind::LocalAddressSpace>::CIE_Info*, bool)
PUBLIC 2dc6c 0 libunwind::CFI_Parser<libunwind::LocalAddressSpace>::parseCIE(libunwind::LocalAddressSpace&, unsigned long, libunwind::CFI_Parser<libunwind::LocalAddressSpace>::CIE_Info*)
PUBLIC 2df34 0 libunwind::AbstractUnwindCursor::~AbstractUnwindCursor()
PUBLIC 2df3c 0 libunwind::UnwindCursor<libunwind::LocalAddressSpace, libunwind::Registers_arm64>::~UnwindCursor()
PUBLIC 2df44 0 libunwind::UnwindCursor<libunwind::LocalAddressSpace, libunwind::Registers_arm64>::validReg(int)
PUBLIC 2df88 0 libunwind::UnwindCursor<libunwind::LocalAddressSpace, libunwind::Registers_arm64>::getReg(int)
PUBLIC 2e070 0 libunwind::UnwindCursor<libunwind::LocalAddressSpace, libunwind::Registers_arm64>::setReg(int, unsigned long)
PUBLIC 2e158 0 libunwind::UnwindCursor<libunwind::LocalAddressSpace, libunwind::Registers_arm64>::validFloatReg(int)
PUBLIC 2e16c 0 libunwind::UnwindCursor<libunwind::LocalAddressSpace, libunwind::Registers_arm64>::getFloatReg(int)
PUBLIC 2e17c 0 libunwind::UnwindCursor<libunwind::LocalAddressSpace, libunwind::Registers_arm64>::setFloatReg(int, double)
PUBLIC 2e18c 0 libunwind::UnwindCursor<libunwind::LocalAddressSpace, libunwind::Registers_arm64>::step(bool)
PUBLIC 2e27c 0 libunwind::UnwindCursor<libunwind::LocalAddressSpace, libunwind::Registers_arm64>::getInfo(unw_proc_info_t*)
PUBLIC 2e2c0 0 libunwind::UnwindCursor<libunwind::LocalAddressSpace, libunwind::Registers_arm64>::jumpto()
PUBLIC 2e2cc 0 libunwind::UnwindCursor<libunwind::LocalAddressSpace, libunwind::Registers_arm64>::isSignalFrame()
PUBLIC 2e2d8 0 libunwind::UnwindCursor<libunwind::LocalAddressSpace, libunwind::Registers_arm64>::getFunctionName(char*, unsigned long, unsigned long*)
PUBLIC 2e304 0 libunwind::UnwindCursor<libunwind::LocalAddressSpace, libunwind::Registers_arm64>::setInfoBasedOnIPRegister(bool)
PUBLIC 2e584 0 libunwind::UnwindCursor<libunwind::LocalAddressSpace, libunwind::Registers_arm64>::getRegisterName(int)
PUBLIC 2e590 0 libunwind::UnwindCursor<libunwind::LocalAddressSpace, libunwind::Registers_arm64>::stepThroughSigReturn(libunwind::Registers_arm64&)
PUBLIC 2e6b0 0 libunwind::DwarfInstructions<libunwind::LocalAddressSpace, libunwind::Registers_arm64>::stepWithDwarf(libunwind::LocalAddressSpace&, unsigned long, unsigned long, libunwind::Registers_arm64&, bool&, bool)
PUBLIC 2eb38 0 libunwind::CFI_Parser<libunwind::LocalAddressSpace>::parseFDEInstructions(libunwind::LocalAddressSpace&, libunwind::CFI_Parser<libunwind::LocalAddressSpace>::FDE_Info const&, libunwind::CFI_Parser<libunwind::LocalAddressSpace>::CIE_Info const&, unsigned long, int, libunwind::CFI_Parser<libunwind::LocalAddressSpace>::PrologInfo*)
PUBLIC 2f780 0 libunwind::DwarfInstructions<libunwind::LocalAddressSpace, libunwind::Registers_arm64>::getCFA(libunwind::LocalAddressSpace&, libunwind::CFI_Parser<libunwind::LocalAddressSpace>::PrologInfo const&, libunwind::Registers_arm64 const&)
PUBLIC 2f8b4 0 libunwind::DwarfInstructions<libunwind::LocalAddressSpace, libunwind::Registers_arm64>::getSavedRegister(libunwind::LocalAddressSpace&, libunwind::Registers_arm64 const&, unsigned long, libunwind::CFI_Parser<libunwind::LocalAddressSpace>::RegisterLocation const&)
PUBLIC 2fac4 0 libunwind::LocalAddressSpace::getEncodedP(unsigned long&, unsigned long, unsigned char, unsigned long)
PUBLIC 2fe50 0 libunwind::LocalAddressSpace::getULEB128(unsigned long&, unsigned long)
PUBLIC 30018 0 libunwind::DwarfInstructions<libunwind::LocalAddressSpace, libunwind::Registers_arm64>::evaluateExpression(unsigned long, libunwind::LocalAddressSpace&, libunwind::Registers_arm64 const&, unsigned long)
PUBLIC 309d4 0 libunwind::UnwindCursor<libunwind::LocalAddressSpace, libunwind::Registers_arm64>::getInfoFromDwarfSection(unsigned long, libunwind::UnwindInfoSections const&, unsigned int)
PUBLIC 30ca8 0 libunwind::findUnwindSectionsByPhdr(dl_phdr_info*, unsigned long, void*)
PUBLIC 30ddc 0 libunwind::EHHeaderParser<libunwind::LocalAddressSpace>::decodeEHHdr(libunwind::LocalAddressSpace&, unsigned long, unsigned long, libunwind::EHHeaderParser<libunwind::LocalAddressSpace>::EHHeaderInfo&)
PUBLIC 30efc 0 libunwind::CFI_Parser<libunwind::LocalAddressSpace>::findFDE(libunwind::LocalAddressSpace&, unsigned long, unsigned long, unsigned long, unsigned long, libunwind::CFI_Parser<libunwind::LocalAddressSpace>::FDE_Info*, libunwind::CFI_Parser<libunwind::LocalAddressSpace>::CIE_Info*)
PUBLIC 310c4 0 libunwind::EHHeaderParser<libunwind::LocalAddressSpace>::findFDE(libunwind::LocalAddressSpace&, unsigned long, unsigned long, unsigned int, libunwind::CFI_Parser<libunwind::LocalAddressSpace>::FDE_Info*, libunwind::CFI_Parser<libunwind::LocalAddressSpace>::CIE_Info*)
PUBLIC 3122c 0 libunwind::EHHeaderParser<libunwind::LocalAddressSpace>::getTableEntrySize(unsigned char)
PUBLIC 31328 0 libunwind::Registers_arm64::getRegisterName(int)
PUBLIC 31358 0 __libunwind_Registers_arm64_jumpto
PUBLIC m 313e8 0 __unw_getcontext
PUBLIC 31490 0 __aarch64_ldadd8_relax
PUBLIC 314c0 0 init_have_lse_atomics
PUBLIC 31558 0 __init_cpu_features_constructor
PUBLIC 31af4 0 __init_cpu_features
PUBLIC 31b80 0 __aarch64_ldadd8_acq_rel
PUBLIC 31bb0 0 Utils::getString(std::__ndk1::basic_string_view<char, std::__ndk1::char_traits<char> >, bool)
PUBLIC 31cfc 0 Utils::getSelectedPlayerObjectToModfy(PlayLayer const*)
PUBLIC 31e40 0 geode::Mod::getSavedValue<bool>(std::__ndk1::basic_string_view<char, std::__ndk1::char_traits<char> >)
PUBLIC 31fd0 0 Utils::addButtonToNode(cocos2d::CCNode*, cocos2d::CCLayer*, void (cocos2d::CCObject::*)(cocos2d::CCObject*))
PUBLIC 32164 0 Utils::isSupportedFMODExtension(std::__ndk1::basic_string<char, std::__ndk1::char_traits<char>, std::__ndk1::allocator<char> > const&)
PUBLIC 3230c 0 std::__ndk1::basic_string<char, std::__ndk1::char_traits<char>, std::__ndk1::allocator<char> >::__init_copy_ctor_external(char const*, unsigned long)
PUBLIC 3238c 0 std::__ndk1::basic_string<char, std::__ndk1::char_traits<char>, std::__ndk1::allocator<char> >::__throw_length_error[abi:ne180000]() const
PUBLIC 323a0 0 std::__ndk1::__throw_length_error[abi:ne180000](char const*)
PUBLIC 323f0 0 std::length_error::length_error[abi:ne180000](char const*)
PUBLIC 32420 0 __clang_call_terminate
PUBLIC 32430 0 _ZNSt6__ndk112basic_stringIcNS_11char_traitsIcEENS_9allocatorIcEEE6appendB8ne180000IPKcTnNS_9enable_ifIXsr31__has_forward_iterator_categoryIT_EE5valueEiE4typeELi0EEERS5_SA_SA_
PUBLIC 32734 0 std::__ndk1::basic_string<char, std::__ndk1::char_traits<char>, std::__ndk1::allocator<char> >::__assign_external(char const*, unsigned long)
PUBLIC 3285c 0 std::__ndk1::basic_string<char, std::__ndk1::char_traits<char>, std::__ndk1::allocator<char> >::__assign_external(char const*)
PUBLIC 32890 0 geode::Mod::getSettingValue<bool>(std::__ndk1::basic_string_view<char, std::__ndk1::char_traits<char> >) const
PUBLIC 329c4 0 geode::cast::traverseTypeinfoFor(void*, geode::cast::ClassTypeinfoType const*, char const*)
PUBLIC 32ac8 0 geode::Mod::getSettingValue<long>(std::__ndk1::basic_string_view<char, std::__ndk1::char_traits<char> >) const
PUBLIC 32be0 0 geode::Mod::getSettingValue<double>(std::__ndk1::basic_string_view<char, std::__ndk1::char_traits<char> >) const
PUBLIC 32d10 0 geode::Mod::getSettingValue<std::__ndk1::basic_string<char, std::__ndk1::char_traits<char>, std::__ndk1::allocator<char> > >(std::__ndk1::basic_string_view<char, std::__ndk1::char_traits<char> >) const
PUBLIC 32ea0 0 std::__ndk1::shared_ptr<geode::StringSettingV3>::~shared_ptr[abi:ne180000]()
PUBLIC 32ef0 0 geode::Mod::getSettingValue<std::__ndk1::__fs::filesystem::path>(std::__ndk1::basic_string_view<char, std::__ndk1::char_traits<char> >) const
PUBLIC 33080 0 std::__ndk1::shared_ptr<geode::FileSettingV3>::~shared_ptr[abi:ne180000]()
PUBLIC 330d0 0 geode::Mod::getSettingValue<cocos2d::_ccColor4B>(std::__ndk1::basic_string_view<char, std::__ndk1::char_traits<char> >) const
PUBLIC 331e8 0 geode::impl::ResultData<matjson::Value&, std::__ndk1::basic_string<char, std::__ndk1::char_traits<char>, std::__ndk1::allocator<char> > >::~ResultData()
PUBLIC 3325c 0 std::__ndk1::__throw_bad_variant_access[abi:ne180000]()
PUBLIC 33290 0 std::__ndk1::__variant_detail::__visitation::__base::__dispatcher<(unsigned long)0>::__dispatch[abi:ne180000]<std::__ndk1::__variant_detail::__dtor<std::__ndk1::__variant_detail::__traits<std::__ndk1::reference_wrapper<matjson::Value>, std::__ndk1::basic_string<char, std::__ndk1::char_traits<char>, std::__ndk1::allocator<char> > >, (std::__ndk1::__variant_detail::_Trait)1>::__destroy[abi:ne180000]()::{lambda(auto:1&)#1}, std::__ndk1::__variant_detail::__base<(std::__ndk1::__variant_detail::__traits<std::__ndk1::reference_wrapper<matjson::Value>, std::__ndk1::basic_string<char, std::__ndk1::char_traits<char>, std::__ndk1::allocator<char> > >)1, matjson::Value, std::__ndk1::allocator<char> >&>(std::__ndk1::__variant_detail::__dtor<std::__ndk1::__variant_detail::__traits<std::__ndk1::reference_wrapper<matjson::Value>, std::__ndk1::basic_string<char, std::__ndk1::char_traits<char>, std::__ndk1::allocator<char> > >, (std::__ndk1::__variant_detail::_Trait)1>, std::__ndk1::__variant_detail::__base<(std::__ndk1::__variant_detail::__traits<std::__ndk1::reference_wrapper<matjson::Value>, std::__ndk1::basic_string<char, std::__ndk1::char_traits<char>, std::__ndk1::allocator<char> > >)1, matjson::Value, std::__ndk1::allocator<char> >&)
PUBLIC 33294 0 std::__ndk1::__variant_detail::__visitation::__base::__dispatcher<(unsigned long)1>::__dispatch[abi:ne180000]<std::__ndk1::__variant_detail::__dtor<std::__ndk1::__variant_detail::__traits<std::__ndk1::reference_wrapper<matjson::Value>, std::__ndk1::basic_string<char, std::__ndk1::char_traits<char>, std::__ndk1::allocator<char> > >, (std::__ndk1::__variant_detail::_Trait)1>::__destroy[abi:ne180000]()::{lambda(auto:1&)#1}, std::__ndk1::__variant_detail::__base<(std::__ndk1::__variant_detail::__traits<std::__ndk1::reference_wrapper<matjson::Value>, std::__ndk1::basic_string<char, std::__ndk1::char_traits<char>, std::__ndk1::allocator<char> > >)1, matjson::Value, std::__ndk1::allocator<char> >&>(std::__ndk1::__variant_detail::__dtor<std::__ndk1::__variant_detail::__traits<std::__ndk1::reference_wrapper<matjson::Value>, std::__ndk1::basic_string<char, std::__ndk1::char_traits<char>, std::__ndk1::allocator<char> > >, (std::__ndk1::__variant_detail::_Trait)1>, std::__ndk1::__variant_detail::__base<(std::__ndk1::__variant_detail::__traits<std::__ndk1::reference_wrapper<matjson::Value>, std::__ndk1::basic_string<char, std::__ndk1::char_traits<char>, std::__ndk1::allocator<char> > >)1, matjson::Value, std::__ndk1::allocator<char> >&)
PUBLIC 332a8 0 std::__ndk1::__variant_detail::__visitation::__base::__dispatcher<(unsigned long)0>::__dispatch[abi:ne180000]<std::__ndk1::__variant_detail::__dtor<std::__ndk1::__variant_detail::__traits<bool, std::__ndk1::basic_string<char, std::__ndk1::char_traits<char>, std::__ndk1::allocator<char> > >, (std::__ndk1::__variant_detail::_Trait)1>::__destroy[abi:ne180000]()::{lambda(auto:1&)#1}, std::__ndk1::__variant_detail::__base<(std::__ndk1::__variant_detail::__traits<bool, std::__ndk1::basic_string<char, std::__ndk1::char_traits<char>, std::__ndk1::allocator<char> > >)1, bool, std::__ndk1::allocator<char> >&>(std::__ndk1::__variant_detail::__dtor<std::__ndk1::__variant_detail::__traits<bool, std::__ndk1::basic_string<char, std::__ndk1::char_traits<char>, std::__ndk1::allocator<char> > >, (std::__ndk1::__variant_detail::_Trait)1>, std::__ndk1::__variant_detail::__base<(std::__ndk1::__variant_detail::__traits<bool, std::__ndk1::basic_string<char, std::__ndk1::char_traits<char>, std::__ndk1::allocator<char> > >)1, bool, std::__ndk1::allocator<char> >&)
PUBLIC 332ac 0 std::__ndk1::__variant_detail::__visitation::__base::__dispatcher<(unsigned long)1>::__dispatch[abi:ne180000]<std::__ndk1::__variant_detail::__dtor<std::__ndk1::__variant_detail::__traits<bool, std::__ndk1::basic_string<char, std::__ndk1::char_traits<char>, std::__ndk1::allocator<char> > >, (std::__ndk1::__variant_detail::_Trait)1>::__destroy[abi:ne180000]()::{lambda(auto:1&)#1}, std::__ndk1::__variant_detail::__base<(std::__ndk1::__variant_detail::__traits<bool, std::__ndk1::basic_string<char, std::__ndk1::char_traits<char>, std::__ndk1::allocator<char> > >)1, bool, std::__ndk1::allocator<char> >&>(std::__ndk1::__variant_detail::__dtor<std::__ndk1::__variant_detail::__traits<bool, std::__ndk1::basic_string<char, std::__ndk1::char_traits<char>, std::__ndk1::allocator<char> > >, (std::__ndk1::__variant_detail::_Trait)1>, std::__ndk1::__variant_detail::__base<(std::__ndk1::__variant_detail::__traits<bool, std::__ndk1::basic_string<char, std::__ndk1::char_traits<char>, std::__ndk1::allocator<char> > >)1, bool, std::__ndk1::allocator<char> >&)
PUBLIC 332c0 0 createToggleSettingInTab(char const*, eclipse::MenuTab&, std::__ndk1::basic_string<char, std::__ndk1::char_traits<char>, std::__ndk1::allocator<char> >)
PUBLIC 33db0 0 _ZN7eclipse6config3setITkNS0_13SupportedTypeEbEEvNSt6__ndk112basic_stringIcNS2_11char_traitsIcEENS2_9allocatorIcEEEET_
PUBLIC 33ef8 0 std::__ndk1::shared_ptr<geode::SettingV3>::~shared_ptr[abi:ne180000]()
PUBLIC 33f48 0 geodeExecFunction23<(anonymous namespace)::ExecFuncUnique23>(geode::ModStateEvent*)
PUBLIC 34020 0 eclipse::events::AddComponentEvent<std::__ndk1::function<void (bool)> >::~AddComponentEvent()
PUBLIC 340cc 0 eclipse::events::AddComponentEvent<std::__ndk1::function<void (bool)> >::~AddComponentEvent()
PUBLIC 34188 0 eclipse::events::SetComponentDescriptionEvent::~SetComponentDescriptionEvent()
PUBLIC 341c8 0 eclipse::events::SetComponentDescriptionEvent::~SetComponentDescriptionEvent()
PUBLIC 3420c 0 std::__ndk1::shared_ptr<geode::BoolSettingV3>::~shared_ptr[abi:ne180000]()
PUBLIC 3425c 0 eclipse::events::SetConfigValueEvent<bool>::~SetConfigValueEvent()
PUBLIC 3429c 0 eclipse::events::SetConfigValueEvent<bool>::~SetConfigValueEvent()
PUBLIC 342e0 0 std::__ndk1::__function::__base<void (bool)>::~__base()
PUBLIC 342e4 0 std::__ndk1::__function::__func<createToggleSettingInTab(char const*, eclipse::MenuTab&, std::__ndk1::basic_string<char, std::__ndk1::char_traits<char>, std::__ndk1::allocator<char> >)::$_0, std::__ndk1::allocator<createToggleSettingInTab(char const*, eclipse::MenuTab&, std::__ndk1::basic_string<char, std::__ndk1::char_traits<char>, std::__ndk1::allocator<char> >)::$_0>, void (bool)>::~__func()
PUBLIC 342e8 0 std::__ndk1::__function::__func<createToggleSettingInTab(char const*, eclipse::MenuTab&, std::__ndk1::basic_string<char, std::__ndk1::char_traits<char>, std::__ndk1::allocator<char> >)::$_0, std::__ndk1::allocator<createToggleSettingInTab(char const*, eclipse::MenuTab&, std::__ndk1::basic_string<char, std::__ndk1::char_traits<char>, std::__ndk1::allocator<char> >)::$_0>, void (bool)>::__clone() const
PUBLIC 3431c 0 std::__ndk1::__function::__func<createToggleSettingInTab(char const*, eclipse::MenuTab&, std::__ndk1::basic_string<char, std::__ndk1::char_traits<char>, std::__ndk1::allocator<char> >)::$_0, std::__ndk1::allocator<createToggleSettingInTab(char const*, eclipse::MenuTab&, std::__ndk1::basic_string<char, std::__ndk1::char_traits<char>, std::__ndk1::allocator<char> >)::$_0>, void (bool)>::__clone(std::__ndk1::__function::__base<void (bool)>*) const
PUBLIC 34330 0 std::__ndk1::__function::__func<createToggleSettingInTab(char const*, eclipse::MenuTab&, std::__ndk1::basic_string<char, std::__ndk1::char_traits<char>, std::__ndk1::allocator<char> >)::$_0, std::__ndk1::allocator<createToggleSettingInTab(char const*, eclipse::MenuTab&, std::__ndk1::basic_string<char, std::__ndk1::char_traits<char>, std::__ndk1::allocator<char> >)::$_0>, void (bool)>::destroy()
PUBLIC 34334 0 std::__ndk1::__function::__func<createToggleSettingInTab(char const*, eclipse::MenuTab&, std::__ndk1::basic_string<char, std::__ndk1::char_traits<char>, std::__ndk1::allocator<char> >)::$_0, std::__ndk1::allocator<createToggleSettingInTab(char const*, eclipse::MenuTab&, std::__ndk1::basic_string<char, std::__ndk1::char_traits<char>, std::__ndk1::allocator<char> >)::$_0>, void (bool)>::destroy_deallocate()
PUBLIC 34338 0 std::__ndk1::__function::__func<createToggleSettingInTab(char const*, eclipse::MenuTab&, std::__ndk1::basic_string<char, std::__ndk1::char_traits<char>, std::__ndk1::allocator<char> >)::$_0, std::__ndk1::allocator<createToggleSettingInTab(char const*, eclipse::MenuTab&, std::__ndk1::basic_string<char, std::__ndk1::char_traits<char>, std::__ndk1::allocator<char> >)::$_0>, void (bool)>::operator()(bool&&)
PUBLIC 3461c 0 std::__ndk1::__function::__func<createToggleSettingInTab(char const*, eclipse::MenuTab&, std::__ndk1::basic_string<char, std::__ndk1::char_traits<char>, std::__ndk1::allocator<char> >)::$_0, std::__ndk1::allocator<createToggleSettingInTab(char const*, eclipse::MenuTab&, std::__ndk1::basic_string<char, std::__ndk1::char_traits<char>, std::__ndk1::allocator<char> >)::$_0>, void (bool)>::target(std::type_info const&) const
PUBLIC 34638 0 std::__ndk1::__function::__func<createToggleSettingInTab(char const*, eclipse::MenuTab&, std::__ndk1::basic_string<char, std::__ndk1::char_traits<char>, std::__ndk1::allocator<char> >)::$_0, std::__ndk1::allocator<createToggleSettingInTab(char const*, eclipse::MenuTab&, std::__ndk1::basic_string<char, std::__ndk1::char_traits<char>, std::__ndk1::allocator<char> >)::$_0>, void (bool)>::target_type() const
PUBLIC 34644 0 std::__ndk1::__variant_detail::__visitation::__base::__dispatcher<(unsigned long)0>::__dispatch[abi:ne180000]<std::__ndk1::__variant_detail::__dtor<std::__ndk1::__variant_detail::__traits<std::__ndk1::monostate, std::__ndk1::basic_string<char, std::__ndk1::char_traits<char>, std::__ndk1::allocator<char> > >, (std::__ndk1::__variant_detail::_Trait)1>::__destroy[abi:ne180000]()::{lambda(auto:1&)#1}, std::__ndk1::__variant_detail::__base<(std::__ndk1::__variant_detail::__traits<std::__ndk1::monostate, std::__ndk1::basic_string<char, std::__ndk1::char_traits<char>, std::__ndk1::allocator<char> > >)1, std::__ndk1::__variant_detail::__traits, std::__ndk1::allocator<char> >&>(std::__ndk1::__variant_detail::__dtor<std::__ndk1::__variant_detail::__traits<std::__ndk1::monostate, std::__ndk1::basic_string<char, std::__ndk1::char_traits<char>, std::__ndk1::allocator<char> > >, (std::__ndk1::__variant_detail::_Trait)1>, std::__ndk1::__variant_detail::__base<(std::__ndk1::__variant_detail::__traits<std::__ndk1::monostate, std::__ndk1::basic_string<char, std::__ndk1::char_traits<char>, std::__ndk1::allocator<char> > >)1, std::__ndk1::__variant_detail::__traits, std::__ndk1::allocator<char> >&)
PUBLIC 34648 0 std::__ndk1::__variant_detail::__visitation::__base::__dispatcher<(unsigned long)1>::__dispatch[abi:ne180000]<std::__ndk1::__variant_detail::__dtor<std::__ndk1::__variant_detail::__traits<std::__ndk1::monostate, std::__ndk1::basic_string<char, std::__ndk1::char_traits<char>, std::__ndk1::allocator<char> > >, (std::__ndk1::__variant_detail::_Trait)1>::__destroy[abi:ne180000]()::{lambda(auto:1&)#1}, std::__ndk1::__variant_detail::__base<(std::__ndk1::__variant_detail::__traits<std::__ndk1::monostate, std::__ndk1::basic_string<char, std::__ndk1::char_traits<char>, std::__ndk1::allocator<char> > >)1, std::__ndk1::__variant_detail::__traits, std::__ndk1::allocator<char> >&>(std::__ndk1::__variant_detail::__dtor<std::__ndk1::__variant_detail::__traits<std::__ndk1::monostate, std::__ndk1::basic_string<char, std::__ndk1::char_traits<char>, std::__ndk1::allocator<char> > >, (std::__ndk1::__variant_detail::_Trait)1>, std::__ndk1::__variant_detail::__base<(std::__ndk1::__variant_detail::__traits<std::__ndk1::monostate, std::__ndk1::basic_string<char, std::__ndk1::char_traits<char>, std::__ndk1::allocator<char> > >)1, std::__ndk1::__variant_detail::__traits, std::__ndk1::allocator<char> >&)
PUBLIC 3465c 0 geode::EventListener<geode::SettingChangedFilterV3>::EventListener(std::__ndk1::function<void (std::__ndk1::shared_ptr<geode::SettingV3>)>, geode::SettingChangedFilterV3)
PUBLIC 34750 0 geode::SettingChangedFilterV3::~SettingChangedFilterV3()
PUBLIC 347a0 0 std::__ndk1::__function::__func<geode::listenForSettingChangesV3<bool, createToggleSettingInTab(char const*, eclipse::MenuTab&, std::__ndk1::basic_string<char, std::__ndk1::char_traits<char>, std::__ndk1::allocator<char> >)::$_1>(std::__ndk1::basic_string_view<char, std::__ndk1::char_traits<char> >, createToggleSettingInTab(char const*, eclipse::MenuTab&, std::__ndk1::basic_string<char, std::__ndk1::char_traits<char>, std::__ndk1::allocator<char> >)::$_1&&, geode::Mod*)::{lambda(std::__ndk1::shared_ptr<geode::SettingV3>)#1}, std::__ndk1::allocator<geode::listenForSettingChangesV3<bool, createToggleSettingInTab(char const*, eclipse::MenuTab&, std::__ndk1::basic_string<char, std::__ndk1::char_traits<char>, std::__ndk1::allocator<char> >)::$_1>(std::__ndk1::basic_string_view<char, std::__ndk1::char_traits<char> >, createToggleSettingInTab(char const*, eclipse::MenuTab&, std::__ndk1::basic_string<char, std::__ndk1::char_traits<char>, std::__ndk1::allocator<char> >)::$_1&&, geode::Mod*)::{lambda(std::__ndk1::shared_ptr<geode::SettingV3>)#1}>, void (std::__ndk1::shared_ptr<geode::SettingV3>)>::~__func()
PUBLIC 347a4 0 std::__ndk1::__function::__func<geode::listenForSettingChangesV3<bool, createToggleSettingInTab(char const*, eclipse::MenuTab&, std::__ndk1::basic_string<char, std::__ndk1::char_traits<char>, std::__ndk1::allocator<char> >)::$_1>(std::__ndk1::basic_string_view<char, std::__ndk1::char_traits<char> >, createToggleSettingInTab(char const*, eclipse::MenuTab&, std::__ndk1::basic_string<char, std::__ndk1::char_traits<char>, std::__ndk1::allocator<char> >)::$_1&&, geode::Mod*)::{lambda(std::__ndk1::shared_ptr<geode::SettingV3>)#1}, std::__ndk1::allocator<geode::listenForSettingChangesV3<bool, createToggleSettingInTab(char const*, eclipse::MenuTab&, std::__ndk1::basic_string<char, std::__ndk1::char_traits<char>, std::__ndk1::allocator<char> >)::$_1>(std::__ndk1::basic_string_view<char, std::__ndk1::char_traits<char> >, createToggleSettingInTab(char const*, eclipse::MenuTab&, std::__ndk1::basic_string<char, std::__ndk1::char_traits<char>, std::__ndk1::allocator<char> >)::$_1&&, geode::Mod*)::{lambda(std::__ndk1::shared_ptr<geode::SettingV3>)#1}>, void (std::__ndk1::shared_ptr<geode::SettingV3>)>::__clone() const
PUBLIC 347d8 0 std::__ndk1::__function::__func<geode::listenForSettingChangesV3<bool, createToggleSettingInTab(char const*, eclipse::MenuTab&, std::__ndk1::basic_string<char, std::__ndk1::char_traits<char>, std::__ndk1::allocator<char> >)::$_1>(std::__ndk1::basic_string_view<char, std::__ndk1::char_traits<char> >, createToggleSettingInTab(char const*, eclipse::MenuTab&, std::__ndk1::basic_string<char, std::__ndk1::char_traits<char>, std::__ndk1::allocator<char> >)::$_1&&, geode::Mod*)::{lambda(std::__ndk1::shared_ptr<geode::SettingV3>)#1}, std::__ndk1::allocator<geode::listenForSettingChangesV3<bool, createToggleSettingInTab(char const*, eclipse::MenuTab&, std::__ndk1::basic_string<char, std::__ndk1::char_traits<char>, std::__ndk1::allocator<char> >)::$_1>(std::__ndk1::basic_string_view<char, std::__ndk1::char_traits<char> >, createToggleSettingInTab(char const*, eclipse::MenuTab&, std::__ndk1::basic_string<char, std::__ndk1::char_traits<char>, std::__ndk1::allocator<char> >)::$_1&&, geode::Mod*)::{lambda(std::__ndk1::shared_ptr<geode::SettingV3>)#1}>, void (std::__ndk1::shared_ptr<geode::SettingV3>)>::__clone(std::__ndk1::__function::__base<void (std::__ndk1::shared_ptr<geode::SettingV3>)>*) const
PUBLIC 347ec 0 std::__ndk1::__function::__func<geode::listenForSettingChangesV3<bool, createToggleSettingInTab(char const*, eclipse::MenuTab&, std::__ndk1::basic_string<char, std::__ndk1::char_traits<char>, std::__ndk1::allocator<char> >)::$_1>(std::__ndk1::basic_string_view<char, std::__ndk1::char_traits<char> >, createToggleSettingInTab(char const*, eclipse::MenuTab&, std::__ndk1::basic_string<char, std::__ndk1::char_traits<char>, std::__ndk1::allocator<char> >)::$_1&&, geode::Mod*)::{lambda(std::__ndk1::shared_ptr<geode::SettingV3>)#1}, std::__ndk1::allocator<geode::listenForSettingChangesV3<bool, createToggleSettingInTab(char const*, eclipse::MenuTab&, std::__ndk1::basic_string<char, std::__ndk1::char_traits<char>, std::__ndk1::allocator<char> >)::$_1>(std::__ndk1::basic_string_view<char, std::__ndk1::char_traits<char> >, createToggleSettingInTab(char const*, eclipse::MenuTab&, std::__ndk1::basic_string<char, std::__ndk1::char_traits<char>, std::__ndk1::allocator<char> >)::$_1&&, geode::Mod*)::{lambda(std::__ndk1::shared_ptr<geode::SettingV3>)#1}>, void (std::__ndk1::shared_ptr<geode::SettingV3>)>::destroy()
PUBLIC 347f0 0 std::__ndk1::__function::__func<geode::listenForSettingChangesV3<bool, createToggleSettingInTab(char const*, eclipse::MenuTab&, std::__ndk1::basic_string<char, std::__ndk1::char_traits<char>, std::__ndk1::allocator<char> >)::$_1>(std::__ndk1::basic_string_view<char, std::__ndk1::char_traits<char> >, createToggleSettingInTab(char const*, eclipse::MenuTab&, std::__ndk1::basic_string<char, std::__ndk1::char_traits<char>, std::__ndk1::allocator<char> >)::$_1&&, geode::Mod*)::{lambda(std::__ndk1::shared_ptr<geode::SettingV3>)#1}, std::__ndk1::allocator<geode::listenForSettingChangesV3<bool, createToggleSettingInTab(char const*, eclipse::MenuTab&, std::__ndk1::basic_string<char, std::__ndk1::char_traits<char>, std::__ndk1::allocator<char> >)::$_1>(std::__ndk1::basic_string_view<char, std::__ndk1::char_traits<char> >, createToggleSettingInTab(char const*, eclipse::MenuTab&, std::__ndk1::basic_string<char, std::__ndk1::char_traits<char>, std::__ndk1::allocator<char> >)::$_1&&, geode::Mod*)::{lambda(std::__ndk1::shared_ptr<geode::SettingV3>)#1}>, void (std::__ndk1::shared_ptr<geode::SettingV3>)>::destroy_deallocate()
PUBLIC 347f4 0 std::__ndk1::__function::__func<geode::listenForSettingChangesV3<bool, createToggleSettingInTab(char const*, eclipse::MenuTab&, std::__ndk1::basic_string<char, std::__ndk1::char_traits<char>, std::__ndk1::allocator<char> >)::$_1>(std::__ndk1::basic_string_view<char, std::__ndk1::char_traits<char> >, createToggleSettingInTab(char const*, eclipse::MenuTab&, std::__ndk1::basic_string<char, std::__ndk1::char_traits<char>, std::__ndk1::allocator<char> >)::$_1&&, geode::Mod*)::{lambda(std::__ndk1::shared_ptr<geode::SettingV3>)#1}, std::__ndk1::allocator<geode::listenForSettingChangesV3<bool, createToggleSettingInTab(char const*, eclipse::MenuTab&, std::__ndk1::basic_string<char, std::__ndk1::char_traits<char>, std::__ndk1::allocator<char> >)::$_1>(std::__ndk1::basic_string_view<char, std::__ndk1::char_traits<char> >, createToggleSettingInTab(char const*, eclipse::MenuTab&, std::__ndk1::basic_string<char, std::__ndk1::char_traits<char>, std::__ndk1::allocator<char> >)::$_1&&, geode::Mod*)::{lambda(std::__ndk1::shared_ptr<geode::SettingV3>)#1}>, void (std::__ndk1::shared_ptr<geode::SettingV3>)>::operator()(std::__ndk1::shared_ptr<geode::SettingV3>&&)
PUBLIC 34aa8 0 std::__ndk1::__function::__func<geode::listenForSettingChangesV3<bool, createToggleSettingInTab(char const*, eclipse::MenuTab&, std::__ndk1::basic_string<char, std::__ndk1::char_traits<char>, std::__ndk1::allocator<char> >)::$_1>(std::__ndk1::basic_string_view<char, std::__ndk1::char_traits<char> >, createToggleSettingInTab(char const*, eclipse::MenuTab&, std::__ndk1::basic_string<char, std::__ndk1::char_traits<char>, std::__ndk1::allocator<char> >)::$_1&&, geode::Mod*)::{lambda(std::__ndk1::shared_ptr<geode::SettingV3>)#1}, std::__ndk1::allocator<geode::listenForSettingChangesV3<bool, createToggleSettingInTab(char const*, eclipse::MenuTab&, std::__ndk1::basic_string<char, std::__ndk1::char_traits<char>, std::__ndk1::allocator<char> >)::$_1>(std::__ndk1::basic_string_view<char, std::__ndk1::char_traits<char> >, createToggleSettingInTab(char const*, eclipse::MenuTab&, std::__ndk1::basic_string<char, std::__ndk1::char_traits<char>, std::__ndk1::allocator<char> >)::$_1&&, geode::Mod*)::{lambda(std::__ndk1::shared_ptr<geode::SettingV3>)#1}>, void (std::__ndk1::shared_ptr<geode::SettingV3>)>::target(std::type_info const&) const
PUBLIC 34ac4 0 std::__ndk1::__function::__func<geode::listenForSettingChangesV3<bool, createToggleSettingInTab(char const*, eclipse::MenuTab&, std::__ndk1::basic_string<char, std::__ndk1::char_traits<char>, std::__ndk1::allocator<char> >)::$_1>(std::__ndk1::basic_string_view<char, std::__ndk1::char_traits<char> >, createToggleSettingInTab(char const*, eclipse::MenuTab&, std::__ndk1::basic_string<char, std::__ndk1::char_traits<char>, std::__ndk1::allocator<char> >)::$_1&&, geode::Mod*)::{lambda(std::__ndk1::shared_ptr<geode::SettingV3>)#1}, std::__ndk1::allocator<geode::listenForSettingChangesV3<bool, createToggleSettingInTab(char const*, eclipse::MenuTab&, std::__ndk1::basic_string<char, std::__ndk1::char_traits<char>, std::__ndk1::allocator<char> >)::$_1>(std::__ndk1::basic_string_view<char, std::__ndk1::char_traits<char> >, createToggleSettingInTab(char const*, eclipse::MenuTab&, std::__ndk1::basic_string<char, std::__ndk1::char_traits<char>, std::__ndk1::allocator<char> >)::$_1&&, geode::Mod*)::{lambda(std::__ndk1::shared_ptr<geode::SettingV3>)#1}>, void (std::__ndk1::shared_ptr<geode::SettingV3>)>::target_type() const
PUBLIC 34ad0 0 geode::EventListener<geode::SettingChangedFilterV3>::getPool() const
PUBLIC 34ad4 0 geode::EventListener<geode::SettingChangedFilterV3>::handle(geode::Event*)
PUBLIC 34c48 0 geode::EventListener<geode::SettingChangedFilterV3>::~EventListener()
PUBLIC 34ce4 0 geode::EventListener<geode::SettingChangedFilterV3>::~EventListener()
PUBLIC 34d88 0 std::__ndk1::__function::__base<void ()>::~__base()
PUBLIC 34d8c 0 std::__ndk1::__function::__func<geodeExecFunction23<(anonymous namespace)::ExecFuncUnique23>(geode::ModStateEvent*)::{lambda()#1}, std::__ndk1::allocator<geodeExecFunction23<(anonymous namespace)::ExecFuncUnique23>(geode::ModStateEvent*)::{lambda()#1}>, void ()>::~__func()
PUBLIC 34d90 0 std::__ndk1::__function::__func<geodeExecFunction23<(anonymous namespace)::ExecFuncUnique23>(geode::ModStateEvent*)::{lambda()#1}, std::__ndk1::allocator<geodeExecFunction23<(anonymous namespace)::ExecFuncUnique23>(geode::ModStateEvent*)::{lambda()#1}>, void ()>::__clone() const
PUBLIC 34db4 0 std::__ndk1::__function::__func<geodeExecFunction23<(anonymous namespace)::ExecFuncUnique23>(geode::ModStateEvent*)::{lambda()#1}, std::__ndk1::allocator<geodeExecFunction23<(anonymous namespace)::ExecFuncUnique23>(geode::ModStateEvent*)::{lambda()#1}>, void ()>::__clone(std::__ndk1::__function::__base<void ()>*) const
PUBLIC 34dc4 0 std::__ndk1::__function::__func<geodeExecFunction23<(anonymous namespace)::ExecFuncUnique23>(geode::ModStateEvent*)::{lambda()#1}, std::__ndk1::allocator<geodeExecFunction23<(anonymous namespace)::ExecFuncUnique23>(geode::ModStateEvent*)::{lambda()#1}>, void ()>::destroy()
PUBLIC 34dc8 0 std::__ndk1::__function::__func<geodeExecFunction23<(anonymous namespace)::ExecFuncUnique23>(geode::ModStateEvent*)::{lambda()#1}, std::__ndk1::allocator<geodeExecFunction23<(anonymous namespace)::ExecFuncUnique23>(geode::ModStateEvent*)::{lambda()#1}>, void ()>::destroy_deallocate()
PUBLIC 34dcc 0 std::__ndk1::__function::__func<geodeExecFunction23<(anonymous namespace)::ExecFuncUnique23>(geode::ModStateEvent*)::{lambda()#1}, std::__ndk1::allocator<geodeExecFunction23<(anonymous namespace)::ExecFuncUnique23>(geode::ModStateEvent*)::{lambda()#1}>, void ()>::operator()()
PUBLIC 36180 0 std::__ndk1::__function::__func<geodeExecFunction23<(anonymous namespace)::ExecFuncUnique23>(geode::ModStateEvent*)::{lambda()#1}, std::__ndk1::allocator<geodeExecFunction23<(anonymous namespace)::ExecFuncUnique23>(geode::ModStateEvent*)::{lambda()#1}>, void ()>::target(std::type_info const&) const
PUBLIC 3619c 0 std::__ndk1::__function::__func<geodeExecFunction23<(anonymous namespace)::ExecFuncUnique23>(geode::ModStateEvent*)::{lambda()#1}, std::__ndk1::allocator<geodeExecFunction23<(anonymous namespace)::ExecFuncUnique23>(geode::ModStateEvent*)::{lambda()#1}>, void ()>::target_type() const
PUBLIC 361a8 0 eclipse::MenuTab::addInputFloat(std::__ndk1::basic_string<char, std::__ndk1::char_traits<char>, std::__ndk1::allocator<char> > const&, std::__ndk1::basic_string<char, std::__ndk1::char_traits<char>, std::__ndk1::allocator<char> > const&, std::__ndk1::function<void (float)> const&) const
PUBLIC 365a8 0 eclipse::components::InputFloat::setFormat(std::__ndk1::basic_string<char, std::__ndk1::char_traits<char>, std::__ndk1::allocator<char> > const&)
PUBLIC 366fc 0 _ZN7eclipse6config11setInternalITkNS0_13SupportedTypeEfEEvNSt6__ndk112basic_stringIcNS2_11char_traitsIcEENS2_9allocatorIcEEEET_
PUBLIC 3684c 0 eclipse::events::CreateMenuTabEvent::~CreateMenuTabEvent()
PUBLIC 36880 0 eclipse::events::CreateMenuTabEvent::~CreateMenuTabEvent()
PUBLIC 368b8 0 eclipse::events::AddComponentEvent<std::__ndk1::function<void (float)> >::~AddComponentEvent()
PUBLIC 36964 0 eclipse::events::AddComponentEvent<std::__ndk1::function<void (float)> >::~AddComponentEvent()
PUBLIC 36a20 0 std::__ndk1::__function::__func<geodeExecFunction23<(anonymous namespace)::ExecFuncUnique23>(geode::ModStateEvent*)::{lambda()#1}::operator()() const::{lambda(float)#1}, std::__ndk1::allocator<geodeExecFunction23<(anonymous namespace)::ExecFuncUnique23>(geode::ModStateEvent*)::{lambda()#1}::operator()() const::{lambda(float)#1}>, void (float)>::~__func()
PUBLIC 36a24 0 std::__ndk1::__function::__func<geodeExecFunction23<(anonymous namespace)::ExecFuncUnique23>(geode::ModStateEvent*)::{lambda()#1}::operator()() const::{lambda(float)#1}, std::__ndk1::allocator<geodeExecFunction23<(anonymous namespace)::ExecFuncUnique23>(geode::ModStateEvent*)::{lambda()#1}::operator()() const::{lambda(float)#1}>, void (float)>::__clone() const
PUBLIC 36a48 0 std::__ndk1::__function::__func<geodeExecFunction23<(anonymous namespace)::ExecFuncUnique23>(geode::ModStateEvent*)::{lambda()#1}::operator()() const::{lambda(float)#1}, std::__ndk1::allocator<geodeExecFunction23<(anonymous namespace)::ExecFuncUnique23>(geode::ModStateEvent*)::{lambda()#1}::operator()() const::{lambda(float)#1}>, void (float)>::__clone(std::__ndk1::__function::__base<void (float)>*) const
PUBLIC 36a58 0 std::__ndk1::__function::__func<geodeExecFunction23<(anonymous namespace)::ExecFuncUnique23>(geode::ModStateEvent*)::{lambda()#1}::operator()() const::{lambda(float)#1}, std::__ndk1::allocator<geodeExecFunction23<(anonymous namespace)::ExecFuncUnique23>(geode::ModStateEvent*)::{lambda()#1}::operator()() const::{lambda(float)#1}>, void (float)>::destroy()
PUBLIC 36a5c 0 std::__ndk1::__function::__func<geodeExecFunction23<(anonymous namespace)::ExecFuncUnique23>(geode::ModStateEvent*)::{lambda()#1}::operator()() const::{lambda(float)#1}, std::__ndk1::allocator<geodeExecFunction23<(anonymous namespace)::ExecFuncUnique23>(geode::ModStateEvent*)::{lambda()#1}::operator()() const::{lambda(float)#1}>, void (float)>::destroy_deallocate()
PUBLIC 36a60 0 std::__ndk1::__function::__func<geodeExecFunction23<(anonymous namespace)::ExecFuncUnique23>(geode::ModStateEvent*)::{lambda()#1}::operator()() const::{lambda(float)#1}, std::__ndk1::allocator<geodeExecFunction23<(anonymous namespace)::ExecFuncUnique23>(geode::ModStateEvent*)::{lambda()#1}::operator()() const::{lambda(float)#1}>, void (float)>::operator()(float&&)
PUBLIC 36b20 0 std::__ndk1::__function::__func<geodeExecFunction23<(anonymous namespace)::ExecFuncUnique23>(geode::ModStateEvent*)::{lambda()#1}::operator()() const::{lambda(float)#1}, std::__ndk1::allocator<geodeExecFunction23<(anonymous namespace)::ExecFuncUnique23>(geode::ModStateEvent*)::{lambda()#1}::operator()() const::{lambda(float)#1}>, void (float)>::target(std::type_info const&) const
PUBLIC 36b3c 0 std::__ndk1::__function::__func<geodeExecFunction23<(anonymous namespace)::ExecFuncUnique23>(geode::ModStateEvent*)::{lambda()#1}::operator()() const::{lambda(float)#1}, std::__ndk1::allocator<geodeExecFunction23<(anonymous namespace)::ExecFuncUnique23>(geode::ModStateEvent*)::{lambda()#1}::operator()() const::{lambda(float)#1}>, void (float)>::target_type() const
PUBLIC 36b48 0 geode::Mod::setSettingValue<double>(std::__ndk1::basic_string_view<char, std::__ndk1::char_traits<char> >, double const&)
PUBLIC 36d00 0 std::__ndk1::shared_ptr<geode::FloatSettingV3>::~shared_ptr[abi:ne180000]()
PUBLIC 36d50 0 eclipse::events::SetInputFloatParamsEvent::~SetInputFloatParamsEvent()
PUBLIC 36d98 0 eclipse::events::SetInputFloatParamsEvent::~SetInputFloatParamsEvent()
PUBLIC 36de4 0 eclipse::events::SetConfigValueEvent<float>::~SetConfigValueEvent()
PUBLIC 36e24 0 eclipse::events::SetConfigValueEvent<float>::~SetConfigValueEvent()
PUBLIC 36e68 0 std::__ndk1::__function::__func<geode::listenForSettingChangesV3<double, geodeExecFunction23<(anonymous namespace)::ExecFuncUnique23>(geode::ModStateEvent*)::{lambda()#1}::operator()() const::{lambda(double)#1}>(std::__ndk1::basic_string_view<char, std::__ndk1::char_traits<char> >, geodeExecFunction23<(anonymous namespace)::ExecFuncUnique23>(geode::ModStateEvent*)::{lambda()#1}::operator()() const::{lambda(double)#1}&&, geode::Mod*)::{lambda(std::__ndk1::shared_ptr<geode::SettingV3>)#1}, std::__ndk1::allocator<geode::listenForSettingChangesV3<double, geodeExecFunction23<(anonymous namespace)::ExecFuncUnique23>(geode::ModStateEvent*)::{lambda()#1}::operator()() const::{lambda(double)#1}>(std::__ndk1::basic_string_view<char, std::__ndk1::char_traits<char> >, geodeExecFunction23<(anonymous namespace)::ExecFuncUnique23>(geode::ModStateEvent*)::{lambda()#1}::operator()() const::{lambda(double)#1}&&, geode::Mod*)::{lambda(std::__ndk1::shared_ptr<geode::SettingV3>)#1}>, void (std::__ndk1::shared_ptr<geode::SettingV3>)>::~__func()
PUBLIC 36e6c 0 std::__ndk1::__function::__func<geode::listenForSettingChangesV3<double, geodeExecFunction23<(anonymous namespace)::ExecFuncUnique23>(geode::ModStateEvent*)::{lambda()#1}::operator()() const::{lambda(double)#1}>(std::__ndk1::basic_string_view<char, std::__ndk1::char_traits<char> >, geodeExecFunction23<(anonymous namespace)::ExecFuncUnique23>(geode::ModStateEvent*)::{lambda()#1}::operator()() const::{lambda(double)#1}&&, geode::Mod*)::{lambda(std::__ndk1::shared_ptr<geode::SettingV3>)#1}, std::__ndk1::allocator<geode::listenForSettingChangesV3<double, geodeExecFunction23<(anonymous namespace)::ExecFuncUnique23>(geode::ModStateEvent*)::{lambda()#1}::operator()() const::{lambda(double)#1}>(std::__ndk1::basic_string_view<char, std::__ndk1::char_traits<char> >, geodeExecFunction23<(anonymous namespace)::ExecFuncUnique23>(geode::ModStateEvent*)::{lambda()#1}::operator()() const::{lambda(double)#1}&&, geode::Mod*)::{lambda(std::__ndk1::shared_ptr<geode::SettingV3>)#1}>, void (std::__ndk1::shared_ptr<geode::SettingV3>)>::__clone() const
PUBLIC 36ea4 0 std::__ndk1::__function::__func<geode::listenForSettingChangesV3<double, geodeExecFunction23<(anonymous namespace)::ExecFuncUnique23>(geode::ModStateEvent*)::{lambda()#1}::operator()() const::{lambda(double)#1}>(std::__ndk1::basic_string_view<char, std::__ndk1::char_traits<char> >, geodeExecFunction23<(anonymous namespace)::ExecFuncUnique23>(geode::ModStateEvent*)::{lambda()#1}::operator()() const::{lambda(double)#1}&&, geode::Mod*)::{lambda(std::__ndk1::shared_ptr<geode::SettingV3>)#1}, std::__ndk1::allocator<geode::listenForSettingChangesV3<double, geodeExecFunction23<(anonymous namespace)::ExecFuncUnique23>(geode::ModStateEvent*)::{lambda()#1}::operator()() const::{lambda(double)#1}>(std::__ndk1::basic_string_view<char, std::__ndk1::char_traits<char> >, geodeExecFunction23<(anonymous namespace)::ExecFuncUnique23>(geode::ModStateEvent*)::{lambda()#1}::operator()() const::{lambda(double)#1}&&, geode::Mod*)::{lambda(std::__ndk1::shared_ptr<geode::SettingV3>)#1}>, void (std::__ndk1::shared_ptr<geode::SettingV3>)>::__clone(std::__ndk1::__function::__base<void (std::__ndk1::shared_ptr<geode::SettingV3>)>*) const
PUBLIC 36ebc 0 std::__ndk1::__function::__func<geode::listenForSettingChangesV3<double, geodeExecFunction23<(anonymous namespace)::ExecFuncUnique23>(geode::ModStateEvent*)::{lambda()#1}::operator()() const::{lambda(double)#1}>(std::__ndk1::basic_string_view<char, std::__ndk1::char_traits<char> >, geodeExecFunction23<(anonymous namespace)::ExecFuncUnique23>(geode::ModStateEvent*)::{lambda()#1}::operator()() const::{lambda(double)#1}&&, geode::Mod*)::{lambda(std::__ndk1::shared_ptr<geode::SettingV3>)#1}, std::__ndk1::allocator<geode::listenForSettingChangesV3<double, geodeExecFunction23<(anonymous namespace)::ExecFuncUnique23>(geode::ModStateEvent*)::{lambda()#1}::operator()() const::{lambda(double)#1}>(std::__ndk1::basic_string_view<char, std::__ndk1::char_traits<char> >, geodeExecFunction23<(anonymous namespace)::ExecFuncUnique23>(geode::ModStateEvent*)::{lambda()#1}::operator()() const::{lambda(double)#1}&&, geode::Mod*)::{lambda(std::__ndk1::shared_ptr<geode::SettingV3>)#1}>, void (std::__ndk1::shared_ptr<geode::SettingV3>)>::destroy()
PUBLIC 36ec0 0 std::__ndk1::__function::__func<geode::listenForSettingChangesV3<double, geodeExecFunction23<(anonymous namespace)::ExecFuncUnique23>(geode::ModStateEvent*)::{lambda()#1}::operator()() const::{lambda(double)#1}>(std::__ndk1::basic_string_view<char, std::__ndk1::char_traits<char> >, geodeExecFunction23<(anonymous namespace)::ExecFuncUnique23>(geode::ModStateEvent*)::{lambda()#1}::operator()() const::{lambda(double)#1}&&, geode::Mod*)::{lambda(std::__ndk1::shared_ptr<geode::SettingV3>)#1}, std::__ndk1::allocator<geode::listenForSettingChangesV3<double, geodeExecFunction23<(anonymous namespace)::ExecFuncUnique23>(geode::ModStateEvent*)::{lambda()#1}::operator()() const::{lambda(double)#1}>(std::__ndk1::basic_string_view<char, std::__ndk1::char_traits<char> >, geodeExecFunction23<(anonymous namespace)::ExecFuncUnique23>(geode::ModStateEvent*)::{lambda()#1}::operator()() const::{lambda(double)#1}&&, geode::Mod*)::{lambda(std::__ndk1::shared_ptr<geode::SettingV3>)#1}>, void (std::__ndk1::shared_ptr<geode::SettingV3>)>::destroy_deallocate()
PUBLIC 36ec4 0 std::__ndk1::__function::__func<geode::listenForSettingChangesV3<double, geodeExecFunction23<(anonymous namespace)::ExecFuncUnique23>(geode::ModStateEvent*)::{lambda()#1}::operator()() const::{lambda(double)#1}>(std::__ndk1::basic_string_view<char, std::__ndk1::char_traits<char> >, geodeExecFunction23<(anonymous namespace)::ExecFuncUnique23>(geode::ModStateEvent*)::{lambda()#1}::operator()() const::{lambda(double)#1}&&, geode::Mod*)::{lambda(std::__ndk1::shared_ptr<geode::SettingV3>)#1}, std::__ndk1::allocator<geode::listenForSettingChangesV3<double, geodeExecFunction23<(anonymous namespace)::ExecFuncUnique23>(geode::ModStateEvent*)::{lambda()#1}::operator()() const::{lambda(double)#1}>(std::__ndk1::basic_string_view<char, std::__ndk1::char_traits<char> >, geodeExecFunction23<(anonymous namespace)::ExecFuncUnique23>(geode::ModStateEvent*)::{lambda()#1}::operator()() const::{lambda(double)#1}&&, geode::Mod*)::{lambda(std::__ndk1::shared_ptr<geode::SettingV3>)#1}>, void (std::__ndk1::shared_ptr<geode::SettingV3>)>::operator()(std::__ndk1::shared_ptr<geode::SettingV3>&&)
PUBLIC 370d8 0 std::__ndk1::__function::__func<geode::listenForSettingChangesV3<double, geodeExecFunction23<(anonymous namespace)::ExecFuncUnique23>(geode::ModStateEvent*)::{lambda()#1}::operator()() const::{lambda(double)#1}>(std::__ndk1::basic_string_view<char, std::__ndk1::char_traits<char> >, geodeExecFunction23<(anonymous namespace)::ExecFuncUnique23>(geode::ModStateEvent*)::{lambda()#1}::operator()() const::{lambda(double)#1}&&, geode::Mod*)::{lambda(std::__ndk1::shared_ptr<geode::SettingV3>)#1}, std::__ndk1::allocator<geode::listenForSettingChangesV3<double, geodeExecFunction23<(anonymous namespace)::ExecFuncUnique23>(geode::ModStateEvent*)::{lambda()#1}::operator()() const::{lambda(double)#1}>(std::__ndk1::basic_string_view<char, std::__ndk1::char_traits<char> >, geodeExecFunction23<(anonymous namespace)::ExecFuncUnique23>(geode::ModStateEvent*)::{lambda()#1}::operator()() const::{lambda(double)#1}&&, geode::Mod*)::{lambda(std::__ndk1::shared_ptr<geode::SettingV3>)#1}>, void (std::__ndk1::shared_ptr<geode::SettingV3>)>::target(std::type_info const&) const
PUBLIC 370f4 0 std::__ndk1::__function::__func<geode::listenForSettingChangesV3<double, geodeExecFunction23<(anonymous namespace)::ExecFuncUnique23>(geode::ModStateEvent*)::{lambda()#1}::operator()() const::{lambda(double)#1}>(std::__ndk1::basic_string_view<char, std::__ndk1::char_traits<char> >, geodeExecFunction23<(anonymous namespace)::ExecFuncUnique23>(geode::ModStateEvent*)::{lambda()#1}::operator()() const::{lambda(double)#1}&&, geode::Mod*)::{lambda(std::__ndk1::shared_ptr<geode::SettingV3>)#1}, std::__ndk1::allocator<geode::listenForSettingChangesV3<double, geodeExecFunction23<(anonymous namespace)::ExecFuncUnique23>(geode::ModStateEvent*)::{lambda()#1}::operator()() const::{lambda(double)#1}>(std::__ndk1::basic_string_view<char, std::__ndk1::char_traits<char> >, geodeExecFunction23<(anonymous namespace)::ExecFuncUnique23>(geode::ModStateEvent*)::{lambda()#1}::operator()() const::{lambda(double)#1}&&, geode::Mod*)::{lambda(std::__ndk1::shared_ptr<geode::SettingV3>)#1}>, void (std::__ndk1::shared_ptr<geode::SettingV3>)>::target_type() const
PUBLIC 37100 0 std::__ndk1::__function::__func<geodeExecFunction23<(anonymous namespace)::ExecFuncUnique23>(geode::ModStateEvent*)::{lambda()#1}::operator()() const::{lambda(float)#2}, std::__ndk1::allocator<geodeExecFunction23<(anonymous namespace)::ExecFuncUnique23>(geode::ModStateEvent*)::{lambda()#1}::operator()() const::{lambda(float)#2}>, void (float)>::~__func()
PUBLIC 37104 0 std::__ndk1::__function::__func<geodeExecFunction23<(anonymous namespace)::ExecFuncUnique23>(geode::ModStateEvent*)::{lambda()#1}::operator()() const::{lambda(float)#2}, std::__ndk1::allocator<geodeExecFunction23<(anonymous namespace)::ExecFuncUnique23>(geode::ModStateEvent*)::{lambda()#1}::operator()() const::{lambda(float)#2}>, void (float)>::__clone() const
PUBLIC 37128 0 std::__ndk1::__function::__func<geodeExecFunction23<(anonymous namespace)::ExecFuncUnique23>(geode::ModStateEvent*)::{lambda()#1}::operator()() const::{lambda(float)#2}, std::__ndk1::allocator<geodeExecFunction23<(anonymous namespace)::ExecFuncUnique23>(geode::ModStateEvent*)::{lambda()#1}::operator()() const::{lambda(float)#2}>, void (float)>::__clone(std::__ndk1::__function::__base<void (float)>*) const
PUBLIC 37138 0 std::__ndk1::__function::__func<geodeExecFunction23<(anonymous namespace)::ExecFuncUnique23>(geode::ModStateEvent*)::{lambda()#1}::operator()() const::{lambda(float)#2}, std::__ndk1::allocator<geodeExecFunction23<(anonymous namespace)::ExecFuncUnique23>(geode::ModStateEvent*)::{lambda()#1}::operator()() const::{lambda(float)#2}>, void (float)>::destroy()
PUBLIC 3713c 0 std::__ndk1::__function::__func<geodeExecFunction23<(anonymous namespace)::ExecFuncUnique23>(geode::ModStateEvent*)::{lambda()#1}::operator()() const::{lambda(float)#2}, std::__ndk1::allocator<geodeExecFunction23<(anonymous namespace)::ExecFuncUnique23>(geode::ModStateEvent*)::{lambda()#1}::operator()() const::{lambda(float)#2}>, void (float)>::destroy_deallocate()
PUBLIC 37140 0 std::__ndk1::__function::__func<geodeExecFunction23<(anonymous namespace)::ExecFuncUnique23>(geode::ModStateEvent*)::{lambda()#1}::operator()() const::{lambda(float)#2}, std::__ndk1::allocator<geodeExecFunction23<(anonymous namespace)::ExecFuncUnique23>(geode::ModStateEvent*)::{lambda()#1}::operator()() const::{lambda(float)#2}>, void (float)>::operator()(float&&)
PUBLIC 37200 0 std::__ndk1::__function::__func<geodeExecFunction23<(anonymous namespace)::ExecFuncUnique23>(geode::ModStateEvent*)::{lambda()#1}::operator()() const::{lambda(float)#2}, std::__ndk1::allocator<geodeExecFunction23<(anonymous namespace)::ExecFuncUnique23>(geode::ModStateEvent*)::{lambda()#1}::operator()() const::{lambda(float)#2}>, void (float)>::target(std::type_info const&) const
PUBLIC 3721c 0 std::__ndk1::__function::__func<geodeExecFunction23<(anonymous namespace)::ExecFuncUnique23>(geode::ModStateEvent*)::{lambda()#1}::operator()() const::{lambda(float)#2}, std::__ndk1::allocator<geodeExecFunction23<(anonymous namespace)::ExecFuncUnique23>(geode::ModStateEvent*)::{lambda()#1}::operator()() const::{lambda(float)#2}>, void (float)>::target_type() const
PUBLIC 37228 0 eclipse::components::Component<(eclipse::components::ComponentType)3>::setDescriptionImpl(std::__ndk1::basic_string<char, std::__ndk1::char_traits<char>, std::__ndk1::allocator<char> > const&) const
PUBLIC 3736c 0 std::__ndk1::__function::__func<geode::listenForSettingChangesV3<double, geodeExecFunction23<(anonymous namespace)::ExecFuncUnique23>(geode::ModStateEvent*)::{lambda()#1}::operator()() const::{lambda(double)#2}>(std::__ndk1::basic_string_view<char, std::__ndk1::char_traits<char> >, geodeExecFunction23<(anonymous namespace)::ExecFuncUnique23>(geode::ModStateEvent*)::{lambda()#1}::operator()() const::{lambda(double)#2}&&, geode::Mod*)::{lambda(std::__ndk1::shared_ptr<geode::SettingV3>)#1}, std::__ndk1::allocator<geode::listenForSettingChangesV3<double, geodeExecFunction23<(anonymous namespace)::ExecFuncUnique23>(geode::ModStateEvent*)::{lambda()#1}::operator()() const::{lambda(double)#2}>(std::__ndk1::basic_string_view<char, std::__ndk1::char_traits<char> >, geodeExecFunction23<(anonymous namespace)::ExecFuncUnique23>(geode::ModStateEvent*)::{lambda()#1}::operator()() const::{lambda(double)#2}&&, geode::Mod*)::{lambda(std::__ndk1::shared_ptr<geode::SettingV3>)#1}>, void (std::__ndk1::shared_ptr<geode::SettingV3>)>::~__func()
PUBLIC 37370 0 std::__ndk1::__function::__func<geode::listenForSettingChangesV3<double, geodeExecFunction23<(anonymous namespace)::ExecFuncUnique23>(geode::ModStateEvent*)::{lambda()#1}::operator()() const::{lambda(double)#2}>(std::__ndk1::basic_string_view<char, std::__ndk1::char_traits<char> >, geodeExecFunction23<(anonymous namespace)::ExecFuncUnique23>(geode::ModStateEvent*)::{lambda()#1}::operator()() const::{lambda(double)#2}&&, geode::Mod*)::{lambda(std::__ndk1::shared_ptr<geode::SettingV3>)#1}, std::__ndk1::allocator<geode::listenForSettingChangesV3<double, geodeExecFunction23<(anonymous namespace)::ExecFuncUnique23>(geode::ModStateEvent*)::{lambda()#1}::operator()() const::{lambda(double)#2}>(std::__ndk1::basic_string_view<char, std::__ndk1::char_traits<char> >, geodeExecFunction23<(anonymous namespace)::ExecFuncUnique23>(geode::ModStateEvent*)::{lambda()#1}::operator()() const::{lambda(double)#2}&&, geode::Mod*)::{lambda(std::__ndk1::shared_ptr<geode::SettingV3>)#1}>, void (std::__ndk1::shared_ptr<geode::SettingV3>)>::__clone() const
PUBLIC 373a8 0 std::__ndk1::__function::__func<geode::listenForSettingChangesV3<double, geodeExecFunction23<(anonymous namespace)::ExecFuncUnique23>(geode::ModStateEvent*)::{lambda()#1}::operator()() const::{lambda(double)#2}>(std::__ndk1::basic_string_view<char, std::__ndk1::char_traits<char> >, geodeExecFunction23<(anonymous namespace)::ExecFuncUnique23>(geode::ModStateEvent*)::{lambda()#1}::operator()() const::{lambda(double)#2}&&, geode::Mod*)::{lambda(std::__ndk1::shared_ptr<geode::SettingV3>)#1}, std::__ndk1::allocator<geode::listenForSettingChangesV3<double, geodeExecFunction23<(anonymous namespace)::ExecFuncUnique23>(geode::ModStateEvent*)::{lambda()#1}::operator()() const::{lambda(double)#2}>(std::__ndk1::basic_string_view<char, std::__ndk1::char_traits<char> >, geodeExecFunction23<(anonymous namespace)::ExecFuncUnique23>(geode::ModStateEvent*)::{lambda()#1}::operator()() const::{lambda(double)#2}&&, geode::Mod*)::{lambda(std::__ndk1::shared_ptr<geode::SettingV3>)#1}>, void (std::__ndk1::shared_ptr<geode::SettingV3>)>::__clone(std::__ndk1::__function::__base<void (std::__ndk1::shared_ptr<geode::SettingV3>)>*) const
PUBLIC 373c0 0 std::__ndk1::__function::__func<geode::listenForSettingChangesV3<double, geodeExecFunction23<(anonymous namespace)::ExecFuncUnique23>(geode::ModStateEvent*)::{lambda()#1}::operator()() const::{lambda(double)#2}>(std::__ndk1::basic_string_view<char, std::__ndk1::char_traits<char> >, geodeExecFunction23<(anonymous namespace)::ExecFuncUnique23>(geode::ModStateEvent*)::{lambda()#1}::operator()() const::{lambda(double)#2}&&, geode::Mod*)::{lambda(std::__ndk1::shared_ptr<geode::SettingV3>)#1}, std::__ndk1::allocator<geode::listenForSettingChangesV3<double, geodeExecFunction23<(anonymous namespace)::ExecFuncUnique23>(geode::ModStateEvent*)::{lambda()#1}::operator()() const::{lambda(double)#2}>(std::__ndk1::basic_string_view<char, std::__ndk1::char_traits<char> >, geodeExecFunction23<(anonymous namespace)::ExecFuncUnique23>(geode::ModStateEvent*)::{lambda()#1}::operator()() const::{lambda(double)#2}&&, geode::Mod*)::{lambda(std::__ndk1::shared_ptr<geode::SettingV3>)#1}>, void (std::__ndk1::shared_ptr<geode::SettingV3>)>::destroy()
PUBLIC 373c4 0 std::__ndk1::__function::__func<geode::listenForSettingChangesV3<double, geodeExecFunction23<(anonymous namespace)::ExecFuncUnique23>(geode::ModStateEvent*)::{lambda()#1}::operator()() const::{lambda(double)#2}>(std::__ndk1::basic_string_view<char, std::__ndk1::char_traits<char> >, geodeExecFunction23<(anonymous namespace)::ExecFuncUnique23>(geode::ModStateEvent*)::{lambda()#1}::operator()() const::{lambda(double)#2}&&, geode::Mod*)::{lambda(std::__ndk1::shared_ptr<geode::SettingV3>)#1}, std::__ndk1::allocator<geode::listenForSettingChangesV3<double, geodeExecFunction23<(anonymous namespace)::ExecFuncUnique23>(geode::ModStateEvent*)::{lambda()#1}::operator()() const::{lambda(double)#2}>(std::__ndk1::basic_string_view<char, std::__ndk1::char_traits<char> >, geodeExecFunction23<(anonymous namespace)::ExecFuncUnique23>(geode::ModStateEvent*)::{lambda()#1}::operator()() const::{lambda(double)#2}&&, geode::Mod*)::{lambda(std::__ndk1::shared_ptr<geode::SettingV3>)#1}>, void (std::__ndk1::shared_ptr<geode::SettingV3>)>::destroy_deallocate()
PUBLIC 373c8 0 std::__ndk1::__function::__func<geode::listenForSettingChangesV3<double, geodeExecFunction23<(anonymous namespace)::ExecFuncUnique23>(geode::ModStateEvent*)::{lambda()#1}::operator()() const::{lambda(double)#2}>(std::__ndk1::basic_string_view<char, std::__ndk1::char_traits<char> >, geodeExecFunction23<(anonymous namespace)::ExecFuncUnique23>(geode::ModStateEvent*)::{lambda()#1}::operator()() const::{lambda(double)#2}&&, geode::Mod*)::{lambda(std::__ndk1::shared_ptr<geode::SettingV3>)#1}, std::__ndk1::allocator<geode::listenForSettingChangesV3<double, geodeExecFunction23<(anonymous namespace)::ExecFuncUnique23>(geode::ModStateEvent*)::{lambda()#1}::operator()() const::{lambda(double)#2}>(std::__ndk1::basic_string_view<char, std::__ndk1::char_traits<char> >, geodeExecFunction23<(anonymous namespace)::ExecFuncUnique23>(geode::ModStateEvent*)::{lambda()#1}::operator()() const::{lambda(double)#2}&&, geode::Mod*)::{lambda(std::__ndk1::shared_ptr<geode::SettingV3>)#1}>, void (std::__ndk1::shared_ptr<geode::SettingV3>)>::operator()(std::__ndk1::shared_ptr<geode::SettingV3>&&)
PUBLIC 375dc 0 std::__ndk1::__function::__func<geode::listenForSettingChangesV3<double, geodeExecFunction23<(anonymous namespace)::ExecFuncUnique23>(geode::ModStateEvent*)::{lambda()#1}::operator()() const::{lambda(double)#2}>(std::__ndk1::basic_string_view<char, std::__ndk1::char_traits<char> >, geodeExecFunction23<(anonymous namespace)::ExecFuncUnique23>(geode::ModStateEvent*)::{lambda()#1}::operator()() const::{lambda(double)#2}&&, geode::Mod*)::{lambda(std::__ndk1::shared_ptr<geode::SettingV3>)#1}, std::__ndk1::allocator<geode::listenForSettingChangesV3<double, geodeExecFunction23<(anonymous namespace)::ExecFuncUnique23>(geode::ModStateEvent*)::{lambda()#1}::operator()() const::{lambda(double)#2}>(std::__ndk1::basic_string_view<char, std::__ndk1::char_traits<char> >, geodeExecFunction23<(anonymous namespace)::ExecFuncUnique23>(geode::ModStateEvent*)::{lambda()#1}::operator()() const::{lambda(double)#2}&&, geode::Mod*)::{lambda(std::__ndk1::shared_ptr<geode::SettingV3>)#1}>, void (std::__ndk1::shared_ptr<geode::SettingV3>)>::target(std::type_info const&) const
PUBLIC 375f8 0 std::__ndk1::__function::__func<geode::listenForSettingChangesV3<double, geodeExecFunction23<(anonymous namespace)::ExecFuncUnique23>(geode::ModStateEvent*)::{lambda()#1}::operator()() const::{lambda(double)#2}>(std::__ndk1::basic_string_view<char, std::__ndk1::char_traits<char> >, geodeExecFunction23<(anonymous namespace)::ExecFuncUnique23>(geode::ModStateEvent*)::{lambda()#1}::operator()() const::{lambda(double)#2}&&, geode::Mod*)::{lambda(std::__ndk1::shared_ptr<geode::SettingV3>)#1}, std::__ndk1::allocator<geode::listenForSettingChangesV3<double, geodeExecFunction23<(anonymous namespace)::ExecFuncUnique23>(geode::ModStateEvent*)::{lambda()#1}::operator()() const::{lambda(double)#2}>(std::__ndk1::basic_string_view<char, std::__ndk1::char_traits<char> >, geodeExecFunction23<(anonymous namespace)::ExecFuncUnique23>(geode::ModStateEvent*)::{lambda()#1}::operator()() const::{lambda(double)#2}&&, geode::Mod*)::{lambda(std::__ndk1::shared_ptr<geode::SettingV3>)#1}>, void (std::__ndk1::shared_ptr<geode::SettingV3>)>::target_type() const
PUBLIC 37604 0 std::__ndk1::__function::__func<geodeExecFunction23<(anonymous namespace)::ExecFuncUnique23>(geode::ModStateEvent*)::{lambda()#1}::operator()() const::{lambda(float)#3}, std::__ndk1::allocator<geodeExecFunction23<(anonymous namespace)::ExecFuncUnique23>(geode::ModStateEvent*)::{lambda()#1}::operator()() const::{lambda(float)#3}>, void (float)>::~__func()
PUBLIC 37608 0 std::__ndk1::__function::__func<geodeExecFunction23<(anonymous namespace)::ExecFuncUnique23>(geode::ModStateEvent*)::{lambda()#1}::operator()() const::{lambda(float)#3}, std::__ndk1::allocator<geodeExecFunction23<(anonymous namespace)::ExecFuncUnique23>(geode::ModStateEvent*)::{lambda()#1}::operator()() const::{lambda(float)#3}>, void (float)>::__clone() const
PUBLIC 3762c 0 std::__ndk1::__function::__func<geodeExecFunction23<(anonymous namespace)::ExecFuncUnique23>(geode::ModStateEvent*)::{lambda()#1}::operator()() const::{lambda(float)#3}, std::__ndk1::allocator<geodeExecFunction23<(anonymous namespace)::ExecFuncUnique23>(geode::ModStateEvent*)::{lambda()#1}::operator()() const::{lambda(float)#3}>, void (float)>::__clone(std::__ndk1::__function::__base<void (float)>*) const
PUBLIC 3763c 0 std::__ndk1::__function::__func<geodeExecFunction23<(anonymous namespace)::ExecFuncUnique23>(geode::ModStateEvent*)::{lambda()#1}::operator()() const::{lambda(float)#3}, std::__ndk1::allocator<geodeExecFunction23<(anonymous namespace)::ExecFuncUnique23>(geode::ModStateEvent*)::{lambda()#1}::operator()() const::{lambda(float)#3}>, void (float)>::destroy()
PUBLIC 37640 0 std::__ndk1::__function::__func<geodeExecFunction23<(anonymous namespace)::ExecFuncUnique23>(geode::ModStateEvent*)::{lambda()#1}::operator()() const::{lambda(float)#3}, std::__ndk1::allocator<geodeExecFunction23<(anonymous namespace)::ExecFuncUnique23>(geode::ModStateEvent*)::{lambda()#1}::operator()() const::{lambda(float)#3}>, void (float)>::destroy_deallocate()
PUBLIC 37644 0 std::__ndk1::__function::__func<geodeExecFunction23<(anonymous namespace)::ExecFuncUnique23>(geode::ModStateEvent*)::{lambda()#1}::operator()() const::{lambda(float)#3}, std::__ndk1::allocator<geodeExecFunction23<(anonymous namespace)::ExecFuncUnique23>(geode::ModStateEvent*)::{lambda()#1}::operator()() const::{lambda(float)#3}>, void (float)>::operator()(float&&)
PUBLIC 37704 0 std::__ndk1::__function::__func<geodeExecFunction23<(anonymous namespace)::ExecFuncUnique23>(geode::ModStateEvent*)::{lambda()#1}::operator()() const::{lambda(float)#3}, std::__ndk1::allocator<geodeExecFunction23<(anonymous namespace)::ExecFuncUnique23>(geode::ModStateEvent*)::{lambda()#1}::operator()() const::{lambda(float)#3}>, void (float)>::target(std::type_info const&) const
PUBLIC 37720 0 std::__ndk1::__function::__func<geodeExecFunction23<(anonymous namespace)::ExecFuncUnique23>(geode::ModStateEvent*)::{lambda()#1}::operator()() const::{lambda(float)#3}, std::__ndk1::allocator<geodeExecFunction23<(anonymous namespace)::ExecFuncUnique23>(geode::ModStateEvent*)::{lambda()#1}::operator()() const::{lambda(float)#3}>, void (float)>::target_type() const
PUBLIC 3772c 0 std::__ndk1::__function::__func<geode::listenForSettingChangesV3<double, geodeExecFunction23<(anonymous namespace)::ExecFuncUnique23>(geode::ModStateEvent*)::{lambda()#1}::operator()() const::{lambda(double)#3}>(std::__ndk1::basic_string_view<char, std::__ndk1::char_traits<char> >, geodeExecFunction23<(anonymous namespace)::ExecFuncUnique23>(geode::ModStateEvent*)::{lambda()#1}::operator()() const::{lambda(double)#3}&&, geode::Mod*)::{lambda(std::__ndk1::shared_ptr<geode::SettingV3>)#1}, std::__ndk1::allocator<geode::listenForSettingChangesV3<double, geodeExecFunction23<(anonymous namespace)::ExecFuncUnique23>(geode::ModStateEvent*)::{lambda()#1}::operator()() const::{lambda(double)#3}>(std::__ndk1::basic_string_view<char, std::__ndk1::char_traits<char> >, geodeExecFunction23<(anonymous namespace)::ExecFuncUnique23>(geode::ModStateEvent*)::{lambda()#1}::operator()() const::{lambda(double)#3}&&, geode::Mod*)::{lambda(std::__ndk1::shared_ptr<geode::SettingV3>)#1}>, void (std::__ndk1::shared_ptr<geode::SettingV3>)>::~__func()
PUBLIC 37730 0 std::__ndk1::__function::__func<geode::listenForSettingChangesV3<double, geodeExecFunction23<(anonymous namespace)::ExecFuncUnique23>(geode::ModStateEvent*)::{lambda()#1}::operator()() const::{lambda(double)#3}>(std::__ndk1::basic_string_view<char, std::__ndk1::char_traits<char> >, geodeExecFunction23<(anonymous namespace)::ExecFuncUnique23>(geode::ModStateEvent*)::{lambda()#1}::operator()() const::{lambda(double)#3}&&, geode::Mod*)::{lambda(std::__ndk1::shared_ptr<geode::SettingV3>)#1}, std::__ndk1::allocator<geode::listenForSettingChangesV3<double, geodeExecFunction23<(anonymous namespace)::ExecFuncUnique23>(geode::ModStateEvent*)::{lambda()#1}::operator()() const::{lambda(double)#3}>(std::__ndk1::basic_string_view<char, std::__ndk1::char_traits<char> >, geodeExecFunction23<(anonymous namespace)::ExecFuncUnique23>(geode::ModStateEvent*)::{lambda()#1}::operator()() const::{lambda(double)#3}&&, geode::Mod*)::{lambda(std::__ndk1::shared_ptr<geode::SettingV3>)#1}>, void (std::__ndk1::shared_ptr<geode::SettingV3>)>::__clone() const
PUBLIC 37768 0 std::__ndk1::__function::__func<geode::listenForSettingChangesV3<double, geodeExecFunction23<(anonymous namespace)::ExecFuncUnique23>(geode::ModStateEvent*)::{lambda()#1}::operator()() const::{lambda(double)#3}>(std::__ndk1::basic_string_view<char, std::__ndk1::char_traits<char> >, geodeExecFunction23<(anonymous namespace)::ExecFuncUnique23>(geode::ModStateEvent*)::{lambda()#1}::operator()() const::{lambda(double)#3}&&, geode::Mod*)::{lambda(std::__ndk1::shared_ptr<geode::SettingV3>)#1}, std::__ndk1::allocator<geode::listenForSettingChangesV3<double, geodeExecFunction23<(anonymous namespace)::ExecFuncUnique23>(geode::ModStateEvent*)::{lambda()#1}::operator()() const::{lambda(double)#3}>(std::__ndk1::basic_string_view<char, std::__ndk1::char_traits<char> >, geodeExecFunction23<(anonymous namespace)::ExecFuncUnique23>(geode::ModStateEvent*)::{lambda()#1}::operator()() const::{lambda(double)#3}&&, geode::Mod*)::{lambda(std::__ndk1::shared_ptr<geode::SettingV3>)#1}>, void (std::__ndk1::shared_ptr<geode::SettingV3>)>::__clone(std::__ndk1::__function::__base<void (std::__ndk1::shared_ptr<geode::SettingV3>)>*) const
PUBLIC 37780 0 std::__ndk1::__function::__func<geode::listenForSettingChangesV3<double, geodeExecFunction23<(anonymous namespace)::ExecFuncUnique23>(geode::ModStateEvent*)::{lambda()#1}::operator()() const::{lambda(double)#3}>(std::__ndk1::basic_string_view<char, std::__ndk1::char_traits<char> >, geodeExecFunction23<(anonymous namespace)::ExecFuncUnique23>(geode::ModStateEvent*)::{lambda()#1}::operator()() const::{lambda(double)#3}&&, geode::Mod*)::{lambda(std::__ndk1::shared_ptr<geode::SettingV3>)#1}, std::__ndk1::allocator<geode::listenForSettingChangesV3<double, geodeExecFunction23<(anonymous namespace)::ExecFuncUnique23>(geode::ModStateEvent*)::{lambda()#1}::operator()() const::{lambda(double)#3}>(std::__ndk1::basic_string_view<char, std::__ndk1::char_traits<char> >, geodeExecFunction23<(anonymous namespace)::ExecFuncUnique23>(geode::ModStateEvent*)::{lambda()#1}::operator()() const::{lambda(double)#3}&&, geode::Mod*)::{lambda(std::__ndk1::shared_ptr<geode::SettingV3>)#1}>, void (std::__ndk1::shared_ptr<geode::SettingV3>)>::destroy()
PUBLIC 37784 0 std::__ndk1::__function::__func<geode::listenForSettingChangesV3<double, geodeExecFunction23<(anonymous namespace)::ExecFuncUnique23>(geode::ModStateEvent*)::{lambda()#1}::operator()() const::{lambda(double)#3}>(std::__ndk1::basic_string_view<char, std::__ndk1::char_traits<char> >, geodeExecFunction23<(anonymous namespace)::ExecFuncUnique23>(geode::ModStateEvent*)::{lambda()#1}::operator()() const::{lambda(double)#3}&&, geode::Mod*)::{lambda(std::__ndk1::shared_ptr<geode::SettingV3>)#1}, std::__ndk1::allocator<geode::listenForSettingChangesV3<double, geodeExecFunction23<(anonymous namespace)::ExecFuncUnique23>(geode::ModStateEvent*)::{lambda()#1}::operator()() const::{lambda(double)#3}>(std::__ndk1::basic_string_view<char, std::__ndk1::char_traits<char> >, geodeExecFunction23<(anonymous namespace)::ExecFuncUnique23>(geode::ModStateEvent*)::{lambda()#1}::operator()() const::{lambda(double)#3}&&, geode::Mod*)::{lambda(std::__ndk1::shared_ptr<geode::SettingV3>)#1}>, void (std::__ndk1::shared_ptr<geode::SettingV3>)>::destroy_deallocate()
PUBLIC 37788 0 std::__ndk1::__function::__func<geode::listenForSettingChangesV3<double, geodeExecFunction23<(anonymous namespace)::ExecFuncUnique23>(geode::ModStateEvent*)::{lambda()#1}::operator()() const::{lambda(double)#3}>(std::__ndk1::basic_string_view<char, std::__ndk1::char_traits<char> >, geodeExecFunction23<(anonymous namespace)::ExecFuncUnique23>(geode::ModStateEvent*)::{lambda()#1}::operator()() const::{lambda(double)#3}&&, geode::Mod*)::{lambda(std::__ndk1::shared_ptr<geode::SettingV3>)#1}, std::__ndk1::allocator<geode::listenForSettingChangesV3<double, geodeExecFunction23<(anonymous namespace)::ExecFuncUnique23>(geode::ModStateEvent*)::{lambda()#1}::operator()() const::{lambda(double)#3}>(std::__ndk1::basic_string_view<char, std::__ndk1::char_traits<char> >, geodeExecFunction23<(anonymous namespace)::ExecFuncUnique23>(geode::ModStateEvent*)::{lambda()#1}::operator()() const::{lambda(double)#3}&&, geode::Mod*)::{lambda(std::__ndk1::shared_ptr<geode::SettingV3>)#1}>, void (std::__ndk1::shared_ptr<geode::SettingV3>)>::operator()(std::__ndk1::shared_ptr<geode::SettingV3>&&)
PUBLIC 3799c 0 std::__ndk1::__function::__func<geode::listenForSettingChangesV3<double, geodeExecFunction23<(anonymous namespace)::ExecFuncUnique23>(geode::ModStateEvent*)::{lambda()#1}::operator()() const::{lambda(double)#3}>(std::__ndk1::basic_string_view<char, std::__ndk1::char_traits<char> >, geodeExecFunction23<(anonymous namespace)::ExecFuncUnique23>(geode::ModStateEvent*)::{lambda()#1}::operator()() const::{lambda(double)#3}&&, geode::Mod*)::{lambda(std::__ndk1::shared_ptr<geode::SettingV3>)#1}, std::__ndk1::allocator<geode::listenForSettingChangesV3<double, geodeExecFunction23<(anonymous namespace)::ExecFuncUnique23>(geode::ModStateEvent*)::{lambda()#1}::operator()() const::{lambda(double)#3}>(std::__ndk1::basic_string_view<char, std::__ndk1::char_traits<char> >, geodeExecFunction23<(anonymous namespace)::ExecFuncUnique23>(geode::ModStateEvent*)::{lambda()#1}::operator()() const::{lambda(double)#3}&&, geode::Mod*)::{lambda(std::__ndk1::shared_ptr<geode::SettingV3>)#1}>, void (std::__ndk1::shared_ptr<geode::SettingV3>)>::target(std::type_info const&) const
PUBLIC 379b8 0 std::__ndk1::__function::__func<geode::listenForSettingChangesV3<double, geodeExecFunction23<(anonymous namespace)::ExecFuncUnique23>(geode::ModStateEvent*)::{lambda()#1}::operator()() const::{lambda(double)#3}>(std::__ndk1::basic_string_view<char, std::__ndk1::char_traits<char> >, geodeExecFunction23<(anonymous namespace)::ExecFuncUnique23>(geode::ModStateEvent*)::{lambda()#1}::operator()() const::{lambda(double)#3}&&, geode::Mod*)::{lambda(std::__ndk1::shared_ptr<geode::SettingV3>)#1}, std::__ndk1::allocator<geode::listenForSettingChangesV3<double, geodeExecFunction23<(anonymous namespace)::ExecFuncUnique23>(geode::ModStateEvent*)::{lambda()#1}::operator()() const::{lambda(double)#3}>(std::__ndk1::basic_string_view<char, std::__ndk1::char_traits<char> >, geodeExecFunction23<(anonymous namespace)::ExecFuncUnique23>(geode::ModStateEvent*)::{lambda()#1}::operator()() const::{lambda(double)#3}&&, geode::Mod*)::{lambda(std::__ndk1::shared_ptr<geode::SettingV3>)#1}>, void (std::__ndk1::shared_ptr<geode::SettingV3>)>::target_type() const
PUBLIC 379c4 0 std::__ndk1::__function::__base<void (float)>::~__base()
PUBLIC 379c8 0 std::__ndk1::__function::__func<geodeExecFunction23<(anonymous namespace)::ExecFuncUnique23>(geode::ModStateEvent*)::{lambda()#1}::operator()() const::{lambda(float)#4}, std::__ndk1::allocator<geodeExecFunction23<(anonymous namespace)::ExecFuncUnique23>(geode::ModStateEvent*)::{lambda()#1}::operator()() const::{lambda(float)#4}>, void (float)>::~__func()
PUBLIC 379cc 0 std::__ndk1::__function::__func<geodeExecFunction23<(anonymous namespace)::ExecFuncUnique23>(geode::ModStateEvent*)::{lambda()#1}::operator()() const::{lambda(float)#4}, std::__ndk1::allocator<geodeExecFunction23<(anonymous namespace)::ExecFuncUnique23>(geode::ModStateEvent*)::{lambda()#1}::operator()() const::{lambda(float)#4}>, void (float)>::__clone() const
PUBLIC 379f0 0 std::__ndk1::__function::__func<geodeExecFunction23<(anonymous namespace)::ExecFuncUnique23>(geode::ModStateEvent*)::{lambda()#1}::operator()() const::{lambda(float)#4}, std::__ndk1::allocator<geodeExecFunction23<(anonymous namespace)::ExecFuncUnique23>(geode::ModStateEvent*)::{lambda()#1}::operator()() const::{lambda(float)#4}>, void (float)>::__clone(std::__ndk1::__function::__base<void (float)>*) const
PUBLIC 37a00 0 std::__ndk1::__function::__func<geodeExecFunction23<(anonymous namespace)::ExecFuncUnique23>(geode::ModStateEvent*)::{lambda()#1}::operator()() const::{lambda(float)#4}, std::__ndk1::allocator<geodeExecFunction23<(anonymous namespace)::ExecFuncUnique23>(geode::ModStateEvent*)::{lambda()#1}::operator()() const::{lambda(float)#4}>, void (float)>::destroy()
PUBLIC 37a04 0 std::__ndk1::__function::__func<geodeExecFunction23<(anonymous namespace)::ExecFuncUnique23>(geode::ModStateEvent*)::{lambda()#1}::operator()() const::{lambda(float)#4}, std::__ndk1::allocator<geodeExecFunction23<(anonymous namespace)::ExecFuncUnique23>(geode::ModStateEvent*)::{lambda()#1}::operator()() const::{lambda(float)#4}>, void (float)>::destroy_deallocate()
PUBLIC 37a08 0 std::__ndk1::__function::__func<geodeExecFunction23<(anonymous namespace)::ExecFuncUnique23>(geode::ModStateEvent*)::{lambda()#1}::operator()() const::{lambda(float)#4}, std::__ndk1::allocator<geodeExecFunction23<(anonymous namespace)::ExecFuncUnique23>(geode::ModStateEvent*)::{lambda()#1}::operator()() const::{lambda(float)#4}>, void (float)>::operator()(float&&)
PUBLIC 37ac8 0 std::__ndk1::__function::__func<geodeExecFunction23<(anonymous namespace)::ExecFuncUnique23>(geode::ModStateEvent*)::{lambda()#1}::operator()() const::{lambda(float)#4}, std::__ndk1::allocator<geodeExecFunction23<(anonymous namespace)::ExecFuncUnique23>(geode::ModStateEvent*)::{lambda()#1}::operator()() const::{lambda(float)#4}>, void (float)>::target(std::type_info const&) const
PUBLIC 37ae4 0 std::__ndk1::__function::__func<geodeExecFunction23<(anonymous namespace)::ExecFuncUnique23>(geode::ModStateEvent*)::{lambda()#1}::operator()() const::{lambda(float)#4}, std::__ndk1::allocator<geodeExecFunction23<(anonymous namespace)::ExecFuncUnique23>(geode::ModStateEvent*)::{lambda()#1}::operator()() const::{lambda(float)#4}>, void (float)>::target_type() const
PUBLIC 37af0 0 std::__ndk1::__function::__base<void (std::__ndk1::shared_ptr<geode::SettingV3>)>::~__base()
PUBLIC 37af4 0 std::__ndk1::__function::__func<geode::listenForSettingChangesV3<double, geodeExecFunction23<(anonymous namespace)::ExecFuncUnique23>(geode::ModStateEvent*)::{lambda()#1}::operator()() const::{lambda(double)#4}>(std::__ndk1::basic_string_view<char, std::__ndk1::char_traits<char> >, geodeExecFunction23<(anonymous namespace)::ExecFuncUnique23>(geode::ModStateEvent*)::{lambda()#1}::operator()() const::{lambda(double)#4}&&, geode::Mod*)::{lambda(std::__ndk1::shared_ptr<geode::SettingV3>)#1}, std::__ndk1::allocator<geode::listenForSettingChangesV3<double, geodeExecFunction23<(anonymous namespace)::ExecFuncUnique23>(geode::ModStateEvent*)::{lambda()#1}::operator()() const::{lambda(double)#4}>(std::__ndk1::basic_string_view<char, std::__ndk1::char_traits<char> >, geodeExecFunction23<(anonymous namespace)::ExecFuncUnique23>(geode::ModStateEvent*)::{lambda()#1}::operator()() const::{lambda(double)#4}&&, geode::Mod*)::{lambda(std::__ndk1::shared_ptr<geode::SettingV3>)#1}>, void (std::__ndk1::shared_ptr<geode::SettingV3>)>::~__func()
PUBLIC 37af8 0 std::__ndk1::__function::__func<geode::listenForSettingChangesV3<double, geodeExecFunction23<(anonymous namespace)::ExecFuncUnique23>(geode::ModStateEvent*)::{lambda()#1}::operator()() const::{lambda(double)#4}>(std::__ndk1::basic_string_view<char, std::__ndk1::char_traits<char> >, geodeExecFunction23<(anonymous namespace)::ExecFuncUnique23>(geode::ModStateEvent*)::{lambda()#1}::operator()() const::{lambda(double)#4}&&, geode::Mod*)::{lambda(std::__ndk1::shared_ptr<geode::SettingV3>)#1}, std::__ndk1::allocator<geode::listenForSettingChangesV3<double, geodeExecFunction23<(anonymous namespace)::ExecFuncUnique23>(geode::ModStateEvent*)::{lambda()#1}::operator()() const::{lambda(double)#4}>(std::__ndk1::basic_string_view<char, std::__ndk1::char_traits<char> >, geodeExecFunction23<(anonymous namespace)::ExecFuncUnique23>(geode::ModStateEvent*)::{lambda()#1}::operator()() const::{lambda(double)#4}&&, geode::Mod*)::{lambda(std::__ndk1::shared_ptr<geode::SettingV3>)#1}>, void (std::__ndk1::shared_ptr<geode::SettingV3>)>::__clone() const
PUBLIC 37b30 0 std::__ndk1::__function::__func<geode::listenForSettingChangesV3<double, geodeExecFunction23<(anonymous namespace)::ExecFuncUnique23>(geode::ModStateEvent*)::{lambda()#1}::operator()() const::{lambda(double)#4}>(std::__ndk1::basic_string_view<char, std::__ndk1::char_traits<char> >, geodeExecFunction23<(anonymous namespace)::ExecFuncUnique23>(geode::ModStateEvent*)::{lambda()#1}::operator()() const::{lambda(double)#4}&&, geode::Mod*)::{lambda(std::__ndk1::shared_ptr<geode::SettingV3>)#1}, std::__ndk1::allocator<geode::listenForSettingChangesV3<double, geodeExecFunction23<(anonymous namespace)::ExecFuncUnique23>(geode::ModStateEvent*)::{lambda()#1}::operator()() const::{lambda(double)#4}>(std::__ndk1::basic_string_view<char, std::__ndk1::char_traits<char> >, geodeExecFunction23<(anonymous namespace)::ExecFuncUnique23>(geode::ModStateEvent*)::{lambda()#1}::operator()() const::{lambda(double)#4}&&, geode::Mod*)::{lambda(std::__ndk1::shared_ptr<geode::SettingV3>)#1}>, void (std::__ndk1::shared_ptr<geode::SettingV3>)>::__clone(std::__ndk1::__function::__base<void (std::__ndk1::shared_ptr<geode::SettingV3>)>*) const
PUBLIC 37b48 0 std::__ndk1::__function::__func<geode::listenForSettingChangesV3<double, geodeExecFunction23<(anonymous namespace)::ExecFuncUnique23>(geode::ModStateEvent*)::{lambda()#1}::operator()() const::{lambda(double)#4}>(std::__ndk1::basic_string_view<char, std::__ndk1::char_traits<char> >, geodeExecFunction23<(anonymous namespace)::ExecFuncUnique23>(geode::ModStateEvent*)::{lambda()#1}::operator()() const::{lambda(double)#4}&&, geode::Mod*)::{lambda(std::__ndk1::shared_ptr<geode::SettingV3>)#1}, std::__ndk1::allocator<geode::listenForSettingChangesV3<double, geodeExecFunction23<(anonymous namespace)::ExecFuncUnique23>(geode::ModStateEvent*)::{lambda()#1}::operator()() const::{lambda(double)#4}>(std::__ndk1::basic_string_view<char, std::__ndk1::char_traits<char> >, geodeExecFunction23<(anonymous namespace)::ExecFuncUnique23>(geode::ModStateEvent*)::{lambda()#1}::operator()() const::{lambda(double)#4}&&, geode::Mod*)::{lambda(std::__ndk1::shared_ptr<geode::SettingV3>)#1}>, void (std::__ndk1::shared_ptr<geode::SettingV3>)>::destroy()
PUBLIC 37b4c 0 std::__ndk1::__function::__func<geode::listenForSettingChangesV3<double, geodeExecFunction23<(anonymous namespace)::ExecFuncUnique23>(geode::ModStateEvent*)::{lambda()#1}::operator()() const::{lambda(double)#4}>(std::__ndk1::basic_string_view<char, std::__ndk1::char_traits<char> >, geodeExecFunction23<(anonymous namespace)::ExecFuncUnique23>(geode::ModStateEvent*)::{lambda()#1}::operator()() const::{lambda(double)#4}&&, geode::Mod*)::{lambda(std::__ndk1::shared_ptr<geode::SettingV3>)#1}, std::__ndk1::allocator<geode::listenForSettingChangesV3<double, geodeExecFunction23<(anonymous namespace)::ExecFuncUnique23>(geode::ModStateEvent*)::{lambda()#1}::operator()() const::{lambda(double)#4}>(std::__ndk1::basic_string_view<char, std::__ndk1::char_traits<char> >, geodeExecFunction23<(anonymous namespace)::ExecFuncUnique23>(geode::ModStateEvent*)::{lambda()#1}::operator()() const::{lambda(double)#4}&&, geode::Mod*)::{lambda(std::__ndk1::shared_ptr<geode::SettingV3>)#1}>, void (std::__ndk1::shared_ptr<geode::SettingV3>)>::destroy_deallocate()
PUBLIC 37b50 0 std::__ndk1::__function::__func<geode::listenForSettingChangesV3<double, geodeExecFunction23<(anonymous namespace)::ExecFuncUnique23>(geode::ModStateEvent*)::{lambda()#1}::operator()() const::{lambda(double)#4}>(std::__ndk1::basic_string_view<char, std::__ndk1::char_traits<char> >, geodeExecFunction23<(anonymous namespace)::ExecFuncUnique23>(geode::ModStateEvent*)::{lambda()#1}::operator()() const::{lambda(double)#4}&&, geode::Mod*)::{lambda(std::__ndk1::shared_ptr<geode::SettingV3>)#1}, std::__ndk1::allocator<geode::listenForSettingChangesV3<double, geodeExecFunction23<(anonymous namespace)::ExecFuncUnique23>(geode::ModStateEvent*)::{lambda()#1}::operator()() const::{lambda(double)#4}>(std::__ndk1::basic_string_view<char, std::__ndk1::char_traits<char> >, geodeExecFunction23<(anonymous namespace)::ExecFuncUnique23>(geode::ModStateEvent*)::{lambda()#1}::operator()() const::{lambda(double)#4}&&, geode::Mod*)::{lambda(std::__ndk1::shared_ptr<geode::SettingV3>)#1}>, void (std::__ndk1::shared_ptr<geode::SettingV3>)>::operator()(std::__ndk1::shared_ptr<geode::SettingV3>&&)
PUBLIC 37d64 0 std::__ndk1::__function::__func<geode::listenForSettingChangesV3<double, geodeExecFunction23<(anonymous namespace)::ExecFuncUnique23>(geode::ModStateEvent*)::{lambda()#1}::operator()() const::{lambda(double)#4}>(std::__ndk1::basic_string_view<char, std::__ndk1::char_traits<char> >, geodeExecFunction23<(anonymous namespace)::ExecFuncUnique23>(geode::ModStateEvent*)::{lambda()#1}::operator()() const::{lambda(double)#4}&&, geode::Mod*)::{lambda(std::__ndk1::shared_ptr<geode::SettingV3>)#1}, std::__ndk1::allocator<geode::listenForSettingChangesV3<double, geodeExecFunction23<(anonymous namespace)::ExecFuncUnique23>(geode::ModStateEvent*)::{lambda()#1}::operator()() const::{lambda(double)#4}>(std::__ndk1::basic_string_view<char, std::__ndk1::char_traits<char> >, geodeExecFunction23<(anonymous namespace)::ExecFuncUnique23>(geode::ModStateEvent*)::{lambda()#1}::operator()() const::{lambda(double)#4}&&, geode::Mod*)::{lambda(std::__ndk1::shared_ptr<geode::SettingV3>)#1}>, void (std::__ndk1::shared_ptr<geode::SettingV3>)>::target(std::type_info const&) const
PUBLIC 37d80 0 std::__ndk1::__function::__func<geode::listenForSettingChangesV3<double, geodeExecFunction23<(anonymous namespace)::ExecFuncUnique23>(geode::ModStateEvent*)::{lambda()#1}::operator()() const::{lambda(double)#4}>(std::__ndk1::basic_string_view<char, std::__ndk1::char_traits<char> >, geodeExecFunction23<(anonymous namespace)::ExecFuncUnique23>(geode::ModStateEvent*)::{lambda()#1}::operator()() const::{lambda(double)#4}&&, geode::Mod*)::{lambda(std::__ndk1::shared_ptr<geode::SettingV3>)#1}, std::__ndk1::allocator<geode::listenForSettingChangesV3<double, geodeExecFunction23<(anonymous namespace)::ExecFuncUnique23>(geode::ModStateEvent*)::{lambda()#1}::operator()() const::{lambda(double)#4}>(std::__ndk1::basic_string_view<char, std::__ndk1::char_traits<char> >, geodeExecFunction23<(anonymous namespace)::ExecFuncUnique23>(geode::ModStateEvent*)::{lambda()#1}::operator()() const::{lambda(double)#4}&&, geode::Mod*)::{lambda(std::__ndk1::shared_ptr<geode::SettingV3>)#1}>, void (std::__ndk1::shared_ptr<geode::SettingV3>)>::target_type() const
PUBLIC 37d8c 0 geode::EventListener<geode::ModStateFilter>::getPool() const
PUBLIC 37d90 0 geode::EventListener<geode::ModStateFilter>::handle(geode::Event*)
PUBLIC 37f04 0 geode::EventListener<geode::ModStateFilter>::~EventListener()
PUBLIC 37f60 0 geode::EventListener<geode::ModStateFilter>::~EventListener()
PUBLIC 37fc4 0 std::__ndk1::__function::__base<void (geode::ModStateEvent*)>::~__base()
PUBLIC 37fc8 0 std::__ndk1::__function::__func<void (*)(geode::ModStateEvent*), std::__ndk1::allocator<void (*)(geode::ModStateEvent*)>, void (geode::ModStateEvent*)>::~__func()
PUBLIC 37fcc 0 std::__ndk1::__function::__func<void (*)(geode::ModStateEvent*), std::__ndk1::allocator<void (*)(geode::ModStateEvent*)>, void (geode::ModStateEvent*)>::__clone() const
PUBLIC 38000 0 std::__ndk1::__function::__func<void (*)(geode::ModStateEvent*), std::__ndk1::allocator<void (*)(geode::ModStateEvent*)>, void (geode::ModStateEvent*)>::__clone(std::__ndk1::__function::__base<void (geode::ModStateEvent*)>*) const
PUBLIC 38014 0 std::__ndk1::__function::__func<void (*)(geode::ModStateEvent*), std::__ndk1::allocator<void (*)(geode::ModStateEvent*)>, void (geode::ModStateEvent*)>::destroy()
PUBLIC 38018 0 std::__ndk1::__function::__func<void (*)(geode::ModStateEvent*), std::__ndk1::allocator<void (*)(geode::ModStateEvent*)>, void (geode::ModStateEvent*)>::destroy_deallocate()
PUBLIC 3801c 0 std::__ndk1::__function::__func<void (*)(geode::ModStateEvent*), std::__ndk1::allocator<void (*)(geode::ModStateEvent*)>, void (geode::ModStateEvent*)>::operator()(geode::ModStateEvent*&&)
PUBLIC 3802c 0 std::__ndk1::__function::__func<void (*)(geode::ModStateEvent*), std::__ndk1::allocator<void (*)(geode::ModStateEvent*)>, void (geode::ModStateEvent*)>::target(std::type_info const&) const
PUBLIC 38048 0 std::__ndk1::__function::__func<void (*)(geode::ModStateEvent*), std::__ndk1::allocator<void (*)(geode::ModStateEvent*)>, void (geode::ModStateEvent*)>::target_type() const
PUBLIC 38054 0 _GLOBAL__sub_I_eclipseIntegration.cpp
PUBLIC 38180 0 __cxx_global_var_init
PUBLIC 387ac 0 geode::modifier::ModifyBase<geode::modifier::ModifyDerive<MyMusicDownloadManager, MusicDownloadManager> >::~ModifyBase()
PUBLIC 387c8 0 geode::modifier::ModifyDerive<MyMusicDownloadManager, MusicDownloadManager>::apply()
PUBLIC 38b44 0 std::__ndk1::shared_ptr<geode::Hook>::~shared_ptr[abi:ne180000]()
PUBLIC 38b94 0 geode::impl::ResultData<geode::Hook*, std::__ndk1::basic_string<char, std::__ndk1::char_traits<char>, std::__ndk1::allocator<char> > >::~ResultData()
PUBLIC 38c08 0 std::__ndk1::vector<std::__ndk1::basic_string<char, std::__ndk1::char_traits<char>, std::__ndk1::allocator<char> >, std::__ndk1::allocator<std::__ndk1::basic_string<char, std::__ndk1::char_traits<char>, std::__ndk1::allocator<char> > > >::~vector[abi:ne180000]()
PUBLIC 38c84 0 geode::modifier::ModifyBase<geode::modifier::ModifyDerive<MyMusicDownloadManager, MusicDownloadManager> >::apply()
PUBLIC 38c88 0 std::__throw_bad_array_new_length([abi:ne180000], void)
PUBLIC 38cbc 0 std::__ndk1::__tree<std::__ndk1::__value_type<std::__ndk1::basic_string<char, std::__ndk1::char_traits<char>, std::__ndk1::allocator<char> >, std::__ndk1::shared_ptr<geode::Hook> >, std::__ndk1::__map_value_compare<std::__ndk1::basic_string<char, std::__ndk1::char_traits<char>, std::__ndk1::allocator<char> >, std::__ndk1::__value_type<std::__ndk1::basic_string<char, std::__ndk1::char_traits<char>, std::__ndk1::allocator<char> >, std::__ndk1::shared_ptr<geode::Hook> >, std::__ndk1::less<std::__ndk1::basic_string<char, std::__ndk1::char_traits<char>, std::__ndk1::allocator<char> > >, true>, std::__ndk1::allocator<std::__ndk1::__value_type<std::__ndk1::basic_string<char, std::__ndk1::char_traits<char>, std::__ndk1::allocator<char> >, std::__ndk1::shared_ptr<geode::Hook> > > >::find<std::__ndk1::basic_string<char, std::__ndk1::char_traits<char>, std::__ndk1::allocator<char> > >(std::__ndk1::basic_string<char, std::__ndk1::char_traits<char>, std::__ndk1::allocator<char> > const&)
PUBLIC 38ddc 0 std::__ndk1::__tree<std::__ndk1::__value_type<std::__ndk1::basic_string<char, std::__ndk1::char_traits<char>, std::__ndk1::allocator<char> >, std::__ndk1::shared_ptr<geode::Hook> >, std::__ndk1::__map_value_compare<std::__ndk1::basic_string<char, std::__ndk1::char_traits<char>, std::__ndk1::allocator<char> >, std::__ndk1::__value_type<std::__ndk1::basic_string<char, std::__ndk1::char_traits<char>, std::__ndk1::allocator<char> >, std::__ndk1::shared_ptr<geode::Hook> >, std::__ndk1::less<std::__ndk1::basic_string<char, std::__ndk1::char_traits<char>, std::__ndk1::allocator<char> > >, true>, std::__ndk1::allocator<std::__ndk1::__value_type<std::__ndk1::basic_string<char, std::__ndk1::char_traits<char>, std::__ndk1::allocator<char> >, std::__ndk1::shared_ptr<geode::Hook> > > >::__emplace_unique_key_args<std::__ndk1::basic_string<char, std::__ndk1::char_traits<char>, std::__ndk1::allocator<char> >, std::__ndk1::piecewise_construct_t const&, std::__ndk1::tuple<std::__ndk1::basic_string<char, std::__ndk1::char_traits<char>, std::__ndk1::allocator<char> > const&>, std::__ndk1::tuple<> >(std::__ndk1::basic_string<char, std::__ndk1::char_traits<char>, std::__ndk1::allocator<char> > const&, std::__ndk1::piecewise_construct_t const&, std::__ndk1::tuple<std::__ndk1::basic_string<char, std::__ndk1::char_traits<char>, std::__ndk1::allocator<char> > const&>, std::__ndk1::tuple<>)
PUBLIC 38fd0 0 std::__ndk1::unique_ptr<std::__ndk1::__tree_node<std::__ndk1::__value_type<std::__ndk1::basic_string<char, std::__ndk1::char_traits<char>, std::__ndk1::allocator<char> >, std::__ndk1::shared_ptr<geode::Hook> >, void*>, std::__ndk1::__tree_node_destructor<std::__ndk1::allocator<std::__ndk1::__tree_node<std::__ndk1::__value_type<std::__ndk1::basic_string<char, std::__ndk1::char_traits<char>, std::__ndk1::allocator<char> >, std::__ndk1::shared_ptr<geode::Hook> >, void*> > > >::~unique_ptr[abi:ne180000]()
PUBLIC 3904c 0 std::__ndk1::__tree_balance_after_insert[abi:ne180000]<std::__ndk1::__tree_node_base<void*>*>(std::__ndk1::__tree_node_base<void*>*, std::__ndk1::__tree_node_base<void*>*)
PUBLIC 391fc 0 _ZN5geode15UnwrapExceptionC2IRPNS_4HookEQsr4implE18IsStringStreamableIT_EEENS_4impl5OkTagEOS5_
PUBLIC 39350 0 std::__ndk1::basic_stringstream<char, std::__ndk1::char_traits<char>, std::__ndk1::allocator<char> >::basic_stringstream[abi:ne180000]()
PUBLIC m 3947c 0 std::__ndk1::basic_stringstream<char, std::__ndk1::char_traits<char>, std::__ndk1::allocator<char> >::~basic_stringstream()
PUBLIC 394fc 0 geode::UnwrapException::~UnwrapException()
PUBLIC 39520 0 std::__ndk1::__put_character_sequence[abi:ne180000]<char, std::__ndk1::char_traits<char> >(std::__ndk1::basic_ostream<char, std::__ndk1::char_traits<char> >, std::__ndk1::basic_ostream const*, unsigned long)
PUBLIC 396c4 0 std::__ndk1::__pad_and_output[abi:ne180000]<char, std::__ndk1::char_traits<char> >(std::__ndk1::char_traits<char>, std::__ndk1::ostreambuf_iterator const*, std::__ndk1::ostreambuf_iterator const, std::__ndk1::ostreambuf_iterator const, std::__ndk1::ios_base&, std::__ndk1::ostreambuf_iterator)
PUBLIC 398a0 0 std::__ndk1::basic_stringbuf<char, std::__ndk1::char_traits<char>, std::__ndk1::allocator<char> >::str[abi:ne180000]() &&
PUBLIC 39a18 0 std::__ndk1::basic_stringbuf<char, std::__ndk1::char_traits<char>, std::__ndk1::allocator<char> >::__init_buf_ptrs[abi:ne180000]()
PUBLIC 39b60 0 _ZN5geode15UnwrapExceptionC2IRNSt6__ndk112basic_stringIcNS2_11char_traitsIcEENS2_9allocatorIcEEEEQsr4implE18IsStringStreamableIT_EEENS_4impl6ErrTagEOSA_
PUBLIC 39cc8 0 std::__ndk1::vector<std::__ndk1::basic_string<char, std::__ndk1::char_traits<char>, std::__ndk1::allocator<char> >, std::__ndk1::allocator<std::__ndk1::basic_string<char, std::__ndk1::char_traits<char>, std::__ndk1::allocator<char> > > >::__push_back_slow_path<std::__ndk1::basic_string<char, std::__ndk1::char_traits<char>, std::__ndk1::allocator<char> > const&>(std::__ndk1::basic_string<char, std::__ndk1::char_traits<char>, std::__ndk1::allocator<char> > const&)
PUBLIC 39ef0 0 std::__ndk1::__split_buffer<std::__ndk1::basic_string<char, std::__ndk1::char_traits<char>, std::__ndk1::allocator<char> >, std::__ndk1::allocator<std::__ndk1::basic_string<char, std::__ndk1::char_traits<char>, std::__ndk1::allocator<char> > >&>::~__split_buffer()
PUBLIC 39f58 0 std::__ndk1::vector<std::__ndk1::basic_string<char, std::__ndk1::char_traits<char>, std::__ndk1::allocator<char> >, std::__ndk1::allocator<std::__ndk1::basic_string<char, std::__ndk1::char_traits<char>, std::__ndk1::allocator<char> > > >::__throw_length_error[abi:ne180000]() const
PUBLIC 39f6c 0 std::__ndk1::__variant_detail::__visitation::__base::__dispatcher<(unsigned long)0>::__dispatch[abi:ne180000]<std::__ndk1::__variant_detail::__dtor<std::__ndk1::__variant_detail::__traits<geode::Hook*, std::__ndk1::basic_string<char, std::__ndk1::char_traits<char>, std::__ndk1::allocator<char> > >, (std::__ndk1::__variant_detail::_Trait)1>::__destroy[abi:ne180000]()::{lambda(auto:1&)#1}, std::__ndk1::__variant_detail::__base<(std::__ndk1::__variant_detail::__traits<geode::Hook*, std::__ndk1::basic_string<char, std::__ndk1::char_traits<char>, std::__ndk1::allocator<char> > >)1, geode::Hook, std::__ndk1::allocator<char> >&>(std::__ndk1::__variant_detail::__dtor<std::__ndk1::__variant_detail::__traits<geode::Hook*, std::__ndk1::basic_string<char, std::__ndk1::char_traits<char>, std::__ndk1::allocator<char> > >, (std::__ndk1::__variant_detail::_Trait)1>, std::__ndk1::__variant_detail::__base<(std::__ndk1::__variant_detail::__traits<geode::Hook*, std::__ndk1::basic_string<char, std::__ndk1::char_traits<char>, std::__ndk1::allocator<char> > >)1, geode::Hook, std::__ndk1::allocator<char> >&)
PUBLIC 39f70 0 std::__ndk1::__variant_detail::__visitation::__base::__dispatcher<(unsigned long)1>::__dispatch[abi:ne180000]<std::__ndk1::__variant_detail::__dtor<std::__ndk1::__variant_detail::__traits<geode::Hook*, std::__ndk1::basic_string<char, std::__ndk1::char_traits<char>, std::__ndk1::allocator<char> > >, (std::__ndk1::__variant_detail::_Trait)1>::__destroy[abi:ne180000]()::{lambda(auto:1&)#1}, std::__ndk1::__variant_detail::__base<(std::__ndk1::__variant_detail::__traits<geode::Hook*, std::__ndk1::basic_string<char, std::__ndk1::char_traits<char>, std::__ndk1::allocator<char> > >)1, geode::Hook, std::__ndk1::allocator<char> >&>(std::__ndk1::__variant_detail::__dtor<std::__ndk1::__variant_detail::__traits<geode::Hook*, std::__ndk1::basic_string<char, std::__ndk1::char_traits<char>, std::__ndk1::allocator<char> > >, (std::__ndk1::__variant_detail::_Trait)1>, std::__ndk1::__variant_detail::__base<(std::__ndk1::__variant_detail::__traits<geode::Hook*, std::__ndk1::basic_string<char, std::__ndk1::char_traits<char>, std::__ndk1::allocator<char> > >)1, geode::Hook, std::__ndk1::allocator<char> >&)
PUBLIC 39f84 0 std::__ndk1::__tree<std::__ndk1::__value_type<std::__ndk1::basic_string<char, std::__ndk1::char_traits<char>, std::__ndk1::allocator<char> >, std::__ndk1::shared_ptr<geode::Hook> >, std::__ndk1::__map_value_compare<std::__ndk1::basic_string<char, std::__ndk1::char_traits<char>, std::__ndk1::allocator<char> >, std::__ndk1::__value_type<std::__ndk1::basic_string<char, std::__ndk1::char_traits<char>, std::__ndk1::allocator<char> >, std::__ndk1::shared_ptr<geode::Hook> >, std::__ndk1::less<std::__ndk1::basic_string<char, std::__ndk1::char_traits<char>, std::__ndk1::allocator<char> > >, true>, std::__ndk1::allocator<std::__ndk1::__value_type<std::__ndk1::basic_string<char, std::__ndk1::char_traits<char>, std::__ndk1::allocator<char> >, std::__ndk1::shared_ptr<geode::Hook> > > >::erase(std::__ndk1::__tree_const_iterator<std::__ndk1::__value_type<std::__ndk1::basic_string<char, std::__ndk1::char_traits<char>, std::__ndk1::allocator<char> >, std::__ndk1::shared_ptr<geode::Hook> >, std::__ndk1::__tree_node<std::__ndk1::__value_type<std::__ndk1::basic_string<char, std::__ndk1::char_traits<char>, std::__ndk1::allocator<char> >, std::__ndk1::shared_ptr<geode::Hook> >, void*>*, long>)
PUBLIC 3a058 0 std::__ndk1::__tree_remove[abi:ne180000]<std::__ndk1::__tree_node_base<void*>*>(std::__ndk1::__tree_node_base<void*>*, std::__ndk1::__tree_node_base<void*>*)
PUBLIC 3a420 0 std::__ndk1::__tree<std::__ndk1::__value_type<std::__ndk1::basic_string<char, std::__ndk1::char_traits<char>, std::__ndk1::allocator<char> >, std::__ndk1::shared_ptr<geode::Hook> >, std::__ndk1::__map_value_compare<std::__ndk1::basic_string<char, std::__ndk1::char_traits<char>, std::__ndk1::allocator<char> >, std::__ndk1::__value_type<std::__ndk1::basic_string<char, std::__ndk1::char_traits<char>, std::__ndk1::allocator<char> >, std::__ndk1::shared_ptr<geode::Hook> >, std::__ndk1::less<std::__ndk1::basic_string<char, std::__ndk1::char_traits<char>, std::__ndk1::allocator<char> > >, true>, std::__ndk1::allocator<std::__ndk1::__value_type<std::__ndk1::basic_string<char, std::__ndk1::char_traits<char>, std::__ndk1::allocator<char> >, std::__ndk1::shared_ptr<geode::Hook> > > >::destroy(std::__ndk1::__tree_node<std::__ndk1::__value_type<std::__ndk1::basic_string<char, std::__ndk1::char_traits<char>, std::__ndk1::allocator<char> >, std::__ndk1::shared_ptr<geode::Hook> >, void*>*)
PUBLIC 3a4ac 0 geode::modifier::AsStaticFunction_pathForSFX<MyMusicDownloadManager, gd::string (MyMusicDownloadManager::*)(int)>::Impl<gd::string (MyMusicDownloadManager::*)(int)>::function(MyMusicDownloadManager*, int)
PUBLIC 3a7b0 0 std::__ndk1::shared_ptr<tulip::hook::CallingConvention>::~shared_ptr[abi:ne180000]()
PUBLIC 3a800 0 tulip::hook::HandlerMetadata::~HandlerMetadata()
PUBLIC 3a864 0 std::__ndk1::__tree<std::__ndk1::__value_type<std::__ndk1::basic_string<char, std::__ndk1::char_traits<char>, std::__ndk1::allocator<char> >, std::__ndk1::shared_ptr<geode::Hook> >, std::__ndk1::__map_value_compare<std::__ndk1::basic_string<char, std::__ndk1::char_traits<char>, std::__ndk1::allocator<char> >, std::__ndk1::__value_type<std::__ndk1::basic_string<char, std::__ndk1::char_traits<char>, std::__ndk1::allocator<char> >, std::__ndk1::shared_ptr<geode::Hook> >, std::__ndk1::less<std::__ndk1::basic_string<char, std::__ndk1::char_traits<char>, std::__ndk1::allocator<char> > >, true>, std::__ndk1::allocator<std::__ndk1::__value_type<std::__ndk1::basic_string<char, std::__ndk1::char_traits<char>, std::__ndk1::allocator<char> >, std::__ndk1::shared_ptr<geode::Hook> > > >::__emplace_unique_key_args<std::__ndk1::basic_string<char, std::__ndk1::char_traits<char>, std::__ndk1::allocator<char> >, std::__ndk1::piecewise_construct_t const&, std::__ndk1::tuple<std::__ndk1::basic_string<char, std::__ndk1::char_traits<char>, std::__ndk1::allocator<char> >&&>, std::__ndk1::tuple<> >(std::__ndk1::basic_string<char, std::__ndk1::char_traits<char>, std::__ndk1::allocator<char> > const&, std::__ndk1::piecewise_construct_t const&, std::__ndk1::tuple<std::__ndk1::basic_string<char, std::__ndk1::char_traits<char>, std::__ndk1::allocator<char> >&&>, std::__ndk1::tuple<>)
PUBLIC 3a9dc 0 __cxx_global_var_init
PUBLIC 3aa3c 0 geode::modifier::ModifyBase<geode::modifier::ModifyDerive<MyFMODAudioEngine, FMODAudioEngine> >::~ModifyBase()
PUBLIC 3aa58 0 geode::modifier::ModifyBase<geode::modifier::ModifyDerive<MyFMODAudioEngine, FMODAudioEngine> >::ModifyBase()
PUBLIC 3ae9c 0 geode::modifier::ModifyDerive<MyFMODAudioEngine, FMODAudioEngine>::apply()
PUBLIC 3b2c0 0 geode::modifier::ModifyBase<geode::modifier::ModifyDerive<MyFMODAudioEngine, FMODAudioEngine> >::apply()
PUBLIC 3b2c4 0 geode::modifier::ModifyBase<geode::modifier::ModifyDerive<MyFMODAudioEngine, FMODAudioEngine> >::setHookPriority(std::__ndk1::basic_string_view<char, std::__ndk1::char_traits<char> >, int)
PUBLIC 3b434 0 geode::modifier::ModifyBase<geode::modifier::ModifyDerive<MyFMODAudioEngine, FMODAudioEngine> >::getHook(std::__ndk1::basic_string_view<char, std::__ndk1::char_traits<char> >)
PUBLIC 3b5dc 0 geode::modifier::AsStaticFunction_playEffect<MyFMODAudioEngine, void (MyFMODAudioEngine::*)(gd::string, float, float, float)>::Impl<void (MyFMODAudioEngine::*)(gd::string, float, float, float)>::function(MyFMODAudioEngine*, gd::string, float, float, float)
PUBLIC 3b9b0 0 std::__ndk1::vector<tulip::hook::AbstractType, std::__ndk1::allocator<tulip::hook::AbstractType> >::__throw_length_error[abi:ne180000]() const
PUBLIC 3b9c4 0 __cxx_global_var_init
PUBLIC 3be44 0 geode::modifier::ModifyBase<geode::modifier::ModifyDerive<MyCCMotionStreak, cocos2d::CCMotionStreak> >::~ModifyBase()
PUBLIC 3be60 0 geode::modifier::ModifyDerive<MyCCMotionStreak, cocos2d::CCMotionStreak>::apply()
PUBLIC 3c1e0 0 geode::modifier::ModifyBase<geode::modifier::ModifyDerive<MyCCMotionStreak, cocos2d::CCMotionStreak> >::apply()
PUBLIC 3c1e4 0 geode::modifier::AsStaticFunction_update<MyCCMotionStreak, void (MyCCMotionStreak::*)(float)>::Impl<void (MyCCMotionStreak::*)(float)>::function(MyCCMotionStreak*, float)
PUBLIC 3c3a8 0 geode::addresser::Addresser::addressOfVirtual<void, cocos2d::CCMotionStreak, float>(void (cocos2d::CCMotionStreak::*)(float))
PUBLIC 3c450 0 cocos2d::CCMotionStreak::CCMotionStreak(geode::ZeroConstructorType)
PUBLIC 3c4d8 0 __cxx_global_var_init
PUBLIC 3cb0c 0 geode::modifier::ModifyBase<geode::modifier::ModifyDerive<MyPlayerObject, PlayerObject> >::~ModifyBase()
PUBLIC 3cb28 0 geode::modifier::ModifyDerive<MyPlayerObject, PlayerObject>::apply()
PUBLIC 3ce68 0 geode::modifier::ModifyBase<geode::modifier::ModifyDerive<MyPlayerObject, PlayerObject> >::apply()
PUBLIC 3ce6c 0 geode::modifier::AsStaticFunction_setupStreak<MyPlayerObject, void (MyPlayerObject::*)()>::Impl<void (MyPlayerObject::*)()>::function(MyPlayerObject*)
PUBLIC 3d680 0 cocos2d::CCCopying::copyWithZone(cocos2d::CCZone*)
PUBLIC 3d688 0 cocos2d::CCBool::~CCBool()
PUBLIC 3d6ac 0 cocos2d::CCBool::acceptVisitor(cocos2d::CCDataVisitor&)
PUBLIC 3d6c4 0 cocos2d::CCObject::update(float)
PUBLIC 3d6c8 0 geode::modifier::FieldContainer::getField(unsigned long)
PUBLIC 3d980 0 geode::modifier::FieldContainer::setField(unsigned long, unsigned long, std::__ndk1::function<void (void*)>)
PUBLIC 3da94 0 geode::modifier::FieldIntermediate<MyPlayerObject, PlayerObject>::fieldDestructor(void*)
PUBLIC 3db04 0 std::__ndk1::vector<void*, std::__ndk1::allocator<void*> >::__throw_length_error[abi:ne180000]() const
PUBLIC 3db18 0 std::__ndk1::vector<std::__ndk1::function<void (void*)>, std::__ndk1::allocator<std::__ndk1::function<void (void*)> > >::__push_back_slow_path<std::__ndk1::function<void (void*)> >(std::__ndk1::function<void (void*)>&&)
PUBLIC 3dd44 0 std::__ndk1::vector<std::__ndk1::function<void (void*)>, std::__ndk1::allocator<std::__ndk1::function<void (void*)> > >::__throw_length_error[abi:ne180000]() const
PUBLIC 3dd58 0 std::__ndk1::vector<void*, std::__ndk1::allocator<void*> >::__throw_out_of_range[abi:ne180000]() const
PUBLIC 3dd6c 0 std::__ndk1::__throw_out_of_range[abi:ne180000](char const*)
PUBLIC 3ddbc 0 std::out_of_range::out_of_range[abi:ne180000](char const*)
PUBLIC 3ddec 0 std::__ndk1::vector<std::__ndk1::function<void (void*)>, std::__ndk1::allocator<std::__ndk1::function<void (void*)> > >::__throw_out_of_range[abi:ne180000]() const
PUBLIC 3de00 0 std::__ndk1::__function::__base<void (void*)>::~__base()
PUBLIC 3de04 0 std::__ndk1::__function::__func<void (*)(void*), std::__ndk1::allocator<void (*)(void*)>, void (void*)>::~__func()
PUBLIC 3de08 0 std::__ndk1::__function::__func<void (*)(void*), std::__ndk1::allocator<void (*)(void*)>, void (void*)>::__clone() const
PUBLIC 3de40 0 std::__ndk1::__function::__func<void (*)(void*), std::__ndk1::allocator<void (*)(void*)>, void (void*)>::__clone(std::__ndk1::__function::__base<void (void*)>*) const
PUBLIC 3de58 0 std::__ndk1::__function::__func<void (*)(void*), std::__ndk1::allocator<void (*)(void*)>, void (void*)>::destroy()
PUBLIC 3de5c 0 std::__ndk1::__function::__func<void (*)(void*), std::__ndk1::allocator<void (*)(void*)>, void (void*)>::destroy_deallocate()
PUBLIC 3de60 0 std::__ndk1::__function::__func<void (*)(void*), std::__ndk1::allocator<void (*)(void*)>, void (void*)>::operator()(void*&&)
PUBLIC 3de70 0 std::__ndk1::__function::__func<void (*)(void*), std::__ndk1::allocator<void (*)(void*)>, void (void*)>::target(std::type_info const&) const
PUBLIC 3de8c 0 std::__ndk1::__function::__func<void (*)(void*), std::__ndk1::allocator<void (*)(void*)>, void (void*)>::target_type() const
PUBLIC 3de98 0 std::__ndk1::__hash_table<std::__ndk1::__hash_value_type<std::__ndk1::basic_string<char, std::__ndk1::char_traits<char>, std::__ndk1::allocator<char> >, BlendMode>, std::__ndk1::__unordered_map_hasher<std::__ndk1::basic_string<char, std::__ndk1::char_traits<char>, std::__ndk1::allocator<char> >, std::__ndk1::__hash_value_type<std::__ndk1::basic_string<char, std::__ndk1::char_traits<char>, std::__ndk1::allocator<char> >, BlendMode>, std::__ndk1::hash<std::__ndk1::basic_string<char, std::__ndk1::char_traits<char>, std::__ndk1::allocator<char> > >, std::__ndk1::equal_to<std::__ndk1::basic_string<char, std::__ndk1::char_traits<char>, std::__ndk1::allocator<char> > >, true>, std::__ndk1::__unordered_map_equal<std::__ndk1::basic_string<char, std::__ndk1::char_traits<char>, std::__ndk1::allocator<char> >, std::__ndk1::__hash_value_type<std::__ndk1::basic_string<char, std::__ndk1::char_traits<char>, std::__ndk1::allocator<char> >, BlendMode>, std::__ndk1::equal_to<std::__ndk1::basic_string<char, std::__ndk1::char_traits<char>, std::__ndk1::allocator<char> > >, std::__ndk1::hash<std::__ndk1::basic_string<char, std::__ndk1::char_traits<char>, std::__ndk1::allocator<char> > >, true>, std::__ndk1::allocator<std::__ndk1::__hash_value_type<std::__ndk1::basic_string<char, std::__ndk1::char_traits<char>, std::__ndk1::allocator<char> >, BlendMode> > >::~__hash_table()
PUBLIC 3df08 0 std::__ndk1::__hash_table<std::__ndk1::__hash_value_type<std::__ndk1::basic_string<char, std::__ndk1::char_traits<char>, std::__ndk1::allocator<char> >, BlendMode>, std::__ndk1::__unordered_map_hasher<std::__ndk1::basic_string<char, std::__ndk1::char_traits<char>, std::__ndk1::allocator<char> >, std::__ndk1::__hash_value_type<std::__ndk1::basic_string<char, std::__ndk1::char_traits<char>, std::__ndk1::allocator<char> >, BlendMode>, std::__ndk1::hash<std::__ndk1::basic_string<char, std::__ndk1::char_traits<char>, std::__ndk1::allocator<char> > >, std::__ndk1::equal_to<std::__ndk1::basic_string<char, std::__ndk1::char_traits<char>, std::__ndk1::allocator<char> > >, true>, std::__ndk1::__unordered_map_equal<std::__ndk1::basic_string<char, std::__ndk1::char_traits<char>, std::__ndk1::allocator<char> >, std::__ndk1::__hash_value_type<std::__ndk1::basic_string<char, std::__ndk1::char_traits<char>, std::__ndk1::allocator<char> >, BlendMode>, std::__ndk1::equal_to<std::__ndk1::basic_string<char, std::__ndk1::char_traits<char>, std::__ndk1::allocator<char> > >, std::__ndk1::hash<std::__ndk1::basic_string<char, std::__ndk1::char_traits<char>, std::__ndk1::allocator<char> > >, true>, std::__ndk1::allocator<std::__ndk1::__hash_value_type<std::__ndk1::basic_string<char, std::__ndk1::char_traits<char>, std::__ndk1::allocator<char> >, BlendMode> > >::__emplace_unique_key_args<std::__ndk1::basic_string<char, std::__ndk1::char_traits<char>, std::__ndk1::allocator<char> >, std::__ndk1::pair<std::__ndk1::basic_string<char, std::__ndk1::char_traits<char>, std::__ndk1::allocator<char> > const, BlendMode> const&>(std::__ndk1::basic_string<char, std::__ndk1::char_traits<char>, std::__ndk1::allocator<char> > const&, std::__ndk1::pair<std::__ndk1::basic_string<char, std::__ndk1::char_traits<char>, std::__ndk1::allocator<char> > const, BlendMode> const&)
PUBLIC 3e374 0 std::__ndk1::unique_ptr<std::__ndk1::__hash_node<std::__ndk1::__hash_value_type<std::__ndk1::basic_string<char, std::__ndk1::char_traits<char>, std::__ndk1::allocator<char> >, BlendMode>, void*>, std::__ndk1::__hash_node_destructor<std::__ndk1::allocator<std::__ndk1::__hash_node<std::__ndk1::__hash_value_type<std::__ndk1::basic_string<char, std::__ndk1::char_traits<char>, std::__ndk1::allocator<char> >, BlendMode>, void*> > > >::~unique_ptr[abi:ne180000]()
PUBLIC 3e3c4 0 std::__ndk1::__murmur2_or_cityhash<unsigned long, (unsigned long)64>::operator()[abi:ne180000](void const*, unsigned long) const
PUBLIC 3e810 0 std::__ndk1::__hash_table<std::__ndk1::__hash_value_type<std::__ndk1::basic_string<char, std::__ndk1::char_traits<char>, std::__ndk1::allocator<char> >, BlendMode>, std::__ndk1::__unordered_map_hasher<std::__ndk1::basic_string<char, std::__ndk1::char_traits<char>, std::__ndk1::allocator<char> >, std::__ndk1::__hash_value_type<std::__ndk1::basic_string<char, std::__ndk1::char_traits<char>, std::__ndk1::allocator<char> >, BlendMode>, std::__ndk1::hash<std::__ndk1::basic_string<char, std::__ndk1::char_traits<char>, std::__ndk1::allocator<char> > >, std::__ndk1::equal_to<std::__ndk1::basic_string<char, std::__ndk1::char_traits<char>, std::__ndk1::allocator<char> > >, true>, std::__ndk1::__unordered_map_equal<std::__ndk1::basic_string<char, std::__ndk1::char_traits<char>, std::__ndk1::allocator<char> >, std::__ndk1::__hash_value_type<std::__ndk1::basic_string<char, std::__ndk1::char_traits<char>, std::__ndk1::allocator<char> >, BlendMode>, std::__ndk1::equal_to<std::__ndk1::basic_string<char, std::__ndk1::char_traits<char>, std::__ndk1::allocator<char> > >, std::__ndk1::hash<std::__ndk1::basic_string<char, std::__ndk1::char_traits<char>, std::__ndk1::allocator<char> > >, true>, std::__ndk1::allocator<std::__ndk1::__hash_value_type<std::__ndk1::basic_string<char, std::__ndk1::char_traits<char>, std::__ndk1::allocator<char> >, BlendMode> > >::__do_rehash<true>(unsigned long)
PUBLIC 3e9bc 0 std::__ndk1::__hash_table<std::__ndk1::__hash_value_type<std::__ndk1::basic_string<char, std::__ndk1::char_traits<char>, std::__ndk1::allocator<char> >, BlendMode>, std::__ndk1::__unordered_map_hasher<std::__ndk1::basic_string<char, std::__ndk1::char_traits<char>, std::__ndk1::allocator<char> >, std::__ndk1::__hash_value_type<std::__ndk1::basic_string<char, std::__ndk1::char_traits<char>, std::__ndk1::allocator<char> >, BlendMode>, std::__ndk1::hash<std::__ndk1::basic_string<char, std::__ndk1::char_traits<char>, std::__ndk1::allocator<char> > >, std::__ndk1::equal_to<std::__ndk1::basic_string<char, std::__ndk1::char_traits<char>, std::__ndk1::allocator<char> > >, true>, std::__ndk1::__unordered_map_equal<std::__ndk1::basic_string<char, std::__ndk1::char_traits<char>, std::__ndk1::allocator<char> >, std::__ndk1::__hash_value_type<std::__ndk1::basic_string<char, std::__ndk1::char_traits<char>, std::__ndk1::allocator<char> >, BlendMode>, std::__ndk1::equal_to<std::__ndk1::basic_string<char, std::__ndk1::char_traits<char>, std::__ndk1::allocator<char> > >, std::__ndk1::hash<std::__ndk1::basic_string<char, std::__ndk1::char_traits<char>, std::__ndk1::allocator<char> > >, true>, std::__ndk1::allocator<std::__ndk1::__hash_value_type<std::__ndk1::basic_string<char, std::__ndk1::char_traits<char>, std::__ndk1::allocator<char> >, BlendMode> > >::find<std::__ndk1::basic_string<char, std::__ndk1::char_traits<char>, std::__ndk1::allocator<char> > >(std::__ndk1::basic_string<char, std::__ndk1::char_traits<char>, std::__ndk1::allocator<char> > const&) const
PUBLIC 3ec10 0 __cxx_global_var_init
PUBLIC 3f244 0 geode::modifier::ModifyBase<geode::modifier::ModifyDerive<MyHardStreak, HardStreak> >::~ModifyBase()
PUBLIC 3f260 0 geode::modifier::ModifyDerive<MyHardStreak, HardStreak>::apply()
PUBLIC 3f5e0 0 geode::modifier::ModifyBase<geode::modifier::ModifyDerive<MyHardStreak, HardStreak> >::apply()
PUBLIC 3f5e4 0 geode::modifier::AsStaticFunction_updateStroke<MyHardStreak, void (MyHardStreak::*)(float)>::Impl<void (MyHardStreak::*)(float)>::function(MyHardStreak*, float)
PUBLIC 3f6f4 0 __cxx_global_var_init
PUBLIC 3fd1c 0 geode::modifier::ModifyBase<geode::modifier::ModifyDerive<MyPauseLayer, PauseLayer> >::~ModifyBase()
PUBLIC 3fd38 0 __cxx_global_var_init.1
PUBLIC 4026c 0 geode::modifier::ModifyBase<geode::modifier::ModifyDerive<MyGJGarageLayer, GJGarageLayer> >::~ModifyBase()
PUBLIC 40288 0 __cxx_global_var_init.2
PUBLIC 40780 0 geode::modifier::ModifyBase<geode::modifier::ModifyDerive<MyCharacterColorPage, CharacterColorPage> >::~ModifyBase()
PUBLIC 4079c 0 __cxx_global_var_init.3
PUBLIC 40dc4 0 geode::modifier::ModifyBase<geode::modifier::ModifyDerive<MyGJShopLayer, GJShopLayer> >::~ModifyBase()
PUBLIC 40de0 0 geode::modifier::ModifyDerive<MyPauseLayer, PauseLayer>::apply()
PUBLIC 413dc 0 geode::modifier::ModifyBase<geode::modifier::ModifyDerive<MyPauseLayer, PauseLayer> >::apply()
PUBLIC 413e0 0 geode::modifier::AsStaticFunction_customSetup<MyPauseLayer, void (MyPauseLayer::*)()>::Impl<void (MyPauseLayer::*)()>::function(MyPauseLayer*)
PUBLIC 41670 0 geode::modifier::AsStaticFunction_onResume<MyPauseLayer, void (MyPauseLayer::*)(cocos2d::CCObject*)>::Impl<void (MyPauseLayer::*)(cocos2d::CCObject*)>::function(MyPauseLayer*, cocos2d::CCObject*)
PUBLIC 418dc 0 geode::addresser::Addresser::addressOfVirtual<void, PauseLayer, >(void (PauseLayer::*)())
PUBLIC 41984 0 PauseLayer::PauseLayer(geode::ZeroConstructorType)
PUBLIC 41a10 0 MyPauseLayer::onYAMMSettings(cocos2d::CCObject*)
PUBLIC 41a4c 0 MyPauseLayer::onYAMMGarage(cocos2d::CCObject*)
PUBLIC 41eac 0 geode::modifier::ModifyDerive<MyGJGarageLayer, GJGarageLayer>::apply()
PUBLIC 424ec 0 geode::modifier::ModifyBase<geode::modifier::ModifyDerive<MyGJGarageLayer, GJGarageLayer> >::apply()
PUBLIC 424f0 0 geode::modifier::ModifyBase<geode::modifier::ModifyDerive<MyGJGarageLayer, GJGarageLayer> >::setHookPriority(std::__ndk1::basic_string_view<char, std::__ndk1::char_traits<char> >, int)
PUBLIC 42738 0 geode::Hook::create<void (*)(MyGJGarageLayer*, cocos2d::CCObject*)>(void*, void (*)(MyGJGarageLayer*, cocos2d::CCObject*), std::__ndk1::basic_string<char, std::__ndk1::char_traits<char>, std::__ndk1::allocator<char> > const&, tulip::hook::TulipConvention, tulip::hook::HookMetadata const&)
PUBLIC 428bc 0 geode::modifier::AsStaticFunction_onBack<MyGJGarageLayer, void (MyGJGarageLayer::*)(cocos2d::CCObject*)>::Impl<void (MyGJGarageLayer::*)(cocos2d::CCObject*)>::function(MyGJGarageLayer*, cocos2d::CCObject*)
PUBLIC 42c10 0 geode::modifier::AsStaticFunction_onSelect<MyGJGarageLayer, void (MyGJGarageLayer::*)(cocos2d::CCObject*)>::Impl<void (MyGJGarageLayer::*)(cocos2d::CCObject*)>::function(MyGJGarageLayer*, cocos2d::CCObject*)
PUBLIC 42f58 0 geode::modifier::AsStaticFunction_onShop<MyGJGarageLayer, void (MyGJGarageLayer::*)(cocos2d::CCObject*)>::Impl<void (MyGJGarageLayer::*)(cocos2d::CCObject*)>::function(MyGJGarageLayer*, cocos2d::CCObject*)
PUBLIC 43380 0 geode::modifier::ModifyDerive<MyCharacterColorPage, CharacterColorPage>::apply()
PUBLIC 43818 0 geode::modifier::ModifyBase<geode::modifier::ModifyDerive<MyCharacterColorPage, CharacterColorPage> >::apply()
PUBLIC 4381c 0 geode::modifier::ModifyBase<geode::modifier::ModifyDerive<MyCharacterColorPage, CharacterColorPage> >::setHookPriority(std::__ndk1::basic_string_view<char, std::__ndk1::char_traits<char> >, int)
PUBLIC 43a64 0 geode::Hook::create<void (*)(MyCharacterColorPage*, cocos2d::CCObject*)>(void*, void (*)(MyCharacterColorPage*, cocos2d::CCObject*), std::__ndk1::basic_string<char, std::__ndk1::char_traits<char>, std::__ndk1::allocator<char> > const&, tulip::hook::TulipConvention, tulip::hook::HookMetadata const&)
PUBLIC 43be8 0 geode::modifier::AsStaticFunction_onPlayerColor<MyCharacterColorPage, void (MyCharacterColorPage::*)(cocos2d::CCObject*)>::Impl<void (MyCharacterColorPage::*)(cocos2d::CCObject*)>::function(MyCharacterColorPage*, cocos2d::CCObject*)
PUBLIC 43dd4 0 geode::modifier::AsStaticFunction_toggleGlow<MyCharacterColorPage, void (MyCharacterColorPage::*)(cocos2d::CCObject*)>::Impl<void (MyCharacterColorPage::*)(cocos2d::CCObject*)>::function(MyCharacterColorPage*, cocos2d::CCObject*)
PUBLIC 43f14 0 geode::modifier::ModifyDerive<MyGJShopLayer, GJShopLayer>::apply()
PUBLIC 44280 0 geode::modifier::ModifyBase<geode::modifier::ModifyDerive<MyGJShopLayer, GJShopLayer> >::apply()
PUBLIC 44284 0 geode::modifier::AsStaticFunction_onBack<MyGJShopLayer, void (MyGJShopLayer::*)(cocos2d::CCObject*)>::Impl<void (MyGJShopLayer::*)(cocos2d::CCObject*)>::function(MyGJShopLayer*, cocos2d::CCObject*)
PUBLIC 444c0 0 __cxx_global_var_init
PUBLIC 44a40 0 geode::modifier::ModifyBase<geode::modifier::ModifyDerive<MyPlayLayer, PlayLayer> >::~ModifyBase()
PUBLIC 44a5c 0 geode::modifier::ModifyDerive<MyPlayLayer, PlayLayer>::apply()
PUBLIC 45874 0 geode::modifier::ModifyBase<geode::modifier::ModifyDerive<MyPlayLayer, PlayLayer> >::apply()
PUBLIC 45878 0 geode::modifier::ModifyBase<geode::modifier::ModifyDerive<MyPlayLayer, PlayLayer> >::setHookPriority(std::__ndk1::basic_string_view<char, std::__ndk1::char_traits<char> >, int)
PUBLIC 45acc 0 geode::modifier::AsStaticFunction_postUpdate<MyPlayLayer, void (MyPlayLayer::*)(float)>::Impl<void (MyPlayLayer::*)(float)>::function(MyPlayLayer*, float)
PUBLIC 46004 0 geode::modifier::AsStaticFunction_addObject<MyPlayLayer, void (MyPlayLayer::*)(GameObject*)>::Impl<void (MyPlayLayer::*)(GameObject*)>::function(MyPlayLayer*, GameObject*)
PUBLIC 4651c 0 geode::Hook::create<void (*)(MyPlayLayer*)>(void*, void (*)(MyPlayLayer*), std::__ndk1::basic_string<char, std::__ndk1::char_traits<char>, std::__ndk1::allocator<char> > const&, tulip::hook::TulipConvention, tulip::hook::HookMetadata const&)
PUBLIC 46650 0 geode::modifier::AsStaticFunction_resetLevel<MyPlayLayer, void (MyPlayLayer::*)()>::Impl<void (MyPlayLayer::*)()>::function(MyPlayLayer*)
PUBLIC 466d8 0 geode::modifier::AsStaticFunction_resetLevelFromStart<MyPlayLayer, void (MyPlayLayer::*)()>::Impl<void (MyPlayLayer::*)()>::function(MyPlayLayer*)
PUBLIC 46760 0 geode::modifier::AsStaticFunction_setupHasCompleted<MyPlayLayer, void (MyPlayLayer::*)()>::Impl<void (MyPlayLayer::*)()>::function(MyPlayLayer*)
PUBLIC 46b44 0 geode::modifier::AsStaticFunction_updateProgressbar<MyPlayLayer, void (MyPlayLayer::*)()>::Impl<void (MyPlayLayer::*)()>::function(MyPlayLayer*)
PUBLIC 46e1c 0 geode::addresser::Addresser::addressOfVirtual<void, PlayLayer, float>(void (PlayLayer::*)(float))
PUBLIC 46ee4 0 PlayLayer::PlayLayer(geode::ZeroConstructorType)
PUBLIC 47710 0 GJGameState::GJGameState()
PUBLIC 47c88 0 geode::stl::unordered_map<int, int, geode::stl::hash<int>, geode::stl::equal_to<int>, std::__ndk1::allocator<std::__ndk1::pair<int const, int> > >::~unordered_map()
PUBLIC 47d00 0 geode::stl::unordered_set<int, geode::stl::hash<int>, geode::stl::equal_to<int>, std::__ndk1::allocator<int> >::~unordered_set()
PUBLIC 47d78 0 geode::stl::unordered_map<int, gd::string, geode::stl::hash<int>, geode::stl::equal_to<int>, std::__ndk1::allocator<std::__ndk1::pair<int const, gd::string> > >::~unordered_map()
PUBLIC 47dfc 0 gd::map<std::__ndk1::pair<int, int>, int>::~map()
PUBLIC 47e18 0 geode::stl::unordered_map<int, gd::vector<LabelGameObject*>, geode::stl::hash<int>, geode::stl::equal_to<int>, std::__ndk1::allocator<std::__ndk1::pair<int const, gd::vector<LabelGameObject*> > > >::~unordered_map()
PUBLIC 47ea4 0 geode::stl::unordered_map<int, std::__ndk1::pair<int, int>, geode::stl::hash<int>, geode::stl::equal_to<int>, std::__ndk1::allocator<std::__ndk1::pair<int const, std::__ndk1::pair<int, int> > > >::~unordered_map()
PUBLIC 47f1c 0 geode::stl::unordered_map<int, gd::vector<GameObject*>, geode::stl::hash<int>, geode::stl::equal_to<int>, std::__ndk1::allocator<std::__ndk1::pair<int const, gd::vector<GameObject*> > > >::~unordered_map()
PUBLIC 47fa8 0 geode::stl::unordered_map<int, cocos2d::CCPoint, geode::stl::hash<int>, geode::stl::equal_to<int>, std::__ndk1::allocator<std::__ndk1::pair<int const, cocos2d::CCPoint> > >::~unordered_map()
PUBLIC 48020 0 gd::vector<geode::stl::unordered_map<int, int, geode::stl::hash<int>, geode::stl::equal_to<int>, std::__ndk1::allocator<std::__ndk1::pair<int const, int> > > >::~vector()
PUBLIC 48124 0 GJGameState::~GJGameState()
PUBLIC 4851c 0 geode::stl::unordered_map<int, SongChannelState, geode::stl::hash<int>, geode::stl::equal_to<int>, std::__ndk1::allocator<std::__ndk1::pair<int const, SongChannelState> > >::~unordered_map()
PUBLIC 48594 0 gd::map<std::__ndk1::pair<int, int>, SFXTriggerInstance>::~map()
PUBLIC 485b0 0 geode::stl::unordered_map<int, std::__ndk1::vector<int, std::__ndk1::allocator<int> >, geode::stl::hash<int>, geode::stl::equal_to<int>, std::__ndk1::allocator<std::__ndk1::pair<int const, std::__ndk1::vector<int, std::__ndk1::allocator<int> > > > >::~unordered_map()
PUBLIC 48640 0 gd::vector<EnterEffectInstance>::~vector()
PUBLIC 486d8 0 geode::stl::unordered_map<int, std::__ndk1::vector<EnterEffectInstance, std::__ndk1::allocator<EnterEffectInstance> >, geode::stl::hash<int>, geode::stl::equal_to<int>, std::__ndk1::allocator<std::__ndk1::pair<int const, std::__ndk1::vector<EnterEffectInstance, std::__ndk1::allocator<EnterEffectInstance> > > > >::~unordered_map()
PUBLIC 48714 0 gd::map<std::__ndk1::pair<GJGameEvent, int>, int>::~map()
PUBLIC 48730 0 gd::map<std::__ndk1::pair<GJGameEvent, int>, gd::vector<EventTriggerInstance> >::~map()
PUBLIC 4874c 0 geode::stl::unordered_map<int, EnhancedGameObject*, geode::stl::hash<int>, geode::stl::equal_to<int>, std::__ndk1::allocator<std::__ndk1::pair<int const, EnhancedGameObject*> > >::~unordered_map()
PUBLIC 487c4 0 geode::stl::unordered_map<int, GameObjectPhysics, geode::stl::hash<int>, geode::stl::equal_to<int>, std::__ndk1::allocator<std::__ndk1::pair<int const, GameObjectPhysics> > >::~unordered_map()
PUBLIC 4883c 0 geode::stl::unordered_map<int, GJValueTween, geode::stl::hash<int>, geode::stl::equal_to<int>, std::__ndk1::allocator<std::__ndk1::pair<int const, GJValueTween> > >::~unordered_map()
PUBLIC 488b4 0 geode::stl::unordered_map<int, bool, geode::stl::hash<int>, geode::stl::equal_to<int>, std::__ndk1::allocator<std::__ndk1::pair<int const, bool> > >::~unordered_map()
PUBLIC 4892c 0 gd::map<std::__ndk1::pair<GJGameEvent, int>, gd::vector<EventTriggerInstance> >::map(std::__ndk1::map<std::__ndk1::pair<GJGameEvent, int>, gd::vector<EventTriggerInstance>, std::__ndk1::less<std::__ndk1::pair<GJGameEvent, int> >, std::__ndk1::allocator<std::__ndk1::pair<std::__ndk1::pair<GJGameEvent, int> const, gd::vector<EventTriggerInstance> > > >)
PUBLIC 48af8 0 gd::map<std::__ndk1::pair<GJGameEvent, int>, gd::vector<EventTriggerInstance> >::insert_pair(std::__ndk1::pair<std::__ndk1::pair<GJGameEvent, int>, gd::vector<EventTriggerInstance> > const&)
PUBLIC 48db0 0 std::__ndk1::pair<std::__ndk1::pair<GJGameEvent, int>, gd::vector<EventTriggerInstance> >::~pair()
PUBLIC 48e30 0 std::__ndk1::pair<std::__ndk1::pair<GJGameEvent, int> const, gd::vector<EventTriggerInstance> >::~pair()
PUBLIC 48eb0 0 gd::vector<EventTriggerInstance>::vector(gd::vector<EventTriggerInstance> const&)
PUBLIC 49050 0 geode::stl::_rb_insert_rebalance(bool, geode::stl::_rb_tree_base*, geode::stl::_rb_tree_base*, geode::stl::_rb_tree_base&)
PUBLIC 49308 0 gd::vector<EventTriggerInstance>::operator=(gd::vector<EventTriggerInstance> const&)
PUBLIC 494c4 0 gd::vector<EventTriggerInstance>::~vector()
PUBLIC 49544 0 std::__ndk1::__tree<std::__ndk1::__value_type<std::__ndk1::pair<GJGameEvent, int>, gd::vector<EventTriggerInstance> >, std::__ndk1::__map_value_compare<std::__ndk1::pair<GJGameEvent, int>, std::__ndk1::__value_type<std::__ndk1::pair<GJGameEvent, int>, gd::vector<EventTriggerInstance> >, std::__ndk1::less<std::__ndk1::pair<GJGameEvent, int> >, true>, std::__ndk1::allocator<std::__ndk1::__value_type<std::__ndk1::pair<GJGameEvent, int>, gd::vector<EventTriggerInstance> > > >::destroy(std::__ndk1::__tree_node<std::__ndk1::__value_type<std::__ndk1::pair<GJGameEvent, int>, gd::vector<EventTriggerInstance> >, void*>*)
PUBLIC 495dc 0 gd::map<std::__ndk1::pair<int, int>, SFXTriggerInstance>::erase(geode::stl::_rb_tree_node<std::__ndk1::pair<std::__ndk1::pair<int, int>, SFXTriggerInstance> >*)
PUBLIC 49630 0 gd::map<int, EnterEffectAnimValue>::erase(geode::stl::_rb_tree_node<std::__ndk1::pair<int, EnterEffectAnimValue> >*)
PUBLIC 49684 0 geode::stl::_Hashtable<int, std::__ndk1::pair<int const, std::__ndk1::vector<EnterEffectInstance, std::__ndk1::allocator<EnterEffectInstance> > >, std::__ndk1::allocator<std::__ndk1::pair<int const, std::__ndk1::vector<EnterEffectInstance, std::__ndk1::allocator<EnterEffectInstance> > > >, geode::stl::__detail::_Select1st, geode::stl::equal_to<int>, geode::stl::hash<int>, geode::stl::__detail::_Mod_range_hashing, geode::stl::__detail::_Default_ranged_hash, geode::stl::__detail::_Prime_rehash_policy, geode::stl::__detail::_Hashtable_traits<false, false, true> >::clear()
PUBLIC 4972c 0 gd::map<std::__ndk1::pair<GJGameEvent, int>, int>::erase(geode::stl::_rb_tree_node<std::__ndk1::pair<std::__ndk1::pair<GJGameEvent, int>, int> >*)
PUBLIC 49780 0 gd::map<std::__ndk1::pair<GJGameEvent, int>, gd::vector<EventTriggerInstance> >::erase(geode::stl::_rb_tree_node<std::__ndk1::pair<std::__ndk1::pair<GJGameEvent, int>, gd::vector<EventTriggerInstance> > >*)
PUBLIC 49828 0 gd::map<std::__ndk1::pair<int, int>, int>::erase(geode::stl::_rb_tree_node<std::__ndk1::pair<std::__ndk1::pair<int, int>, int> >*)
PUBLIC 4987c 0 geode::modifier::FieldIntermediate<MyPlayLayer, PlayLayer>::self()
PUBLIC 49c18 0 geode::modifier::FieldIntermediate<MyPlayLayer, PlayLayer>::fieldDestructor(void*)
PUBLIC 49cd8 0 std::__ndk1::unordered_map<std::__ndk1::basic_string<char, std::__ndk1::char_traits<char>, std::__ndk1::allocator<char> >, ColorMode, std::__ndk1::hash<std::__ndk1::basic_string<char, std::__ndk1::char_traits<char>, std::__ndk1::allocator<char> > >, std::__ndk1::equal_to<std::__ndk1::basic_string<char, std::__ndk1::char_traits<char>, std::__ndk1::allocator<char> > >, std::__ndk1::allocator<std::__ndk1::pair<std::__ndk1::basic_string<char, std::__ndk1::char_traits<char>, std::__ndk1::allocator<char> > const, ColorMode> > >::~unordered_map[abi:ne180000]()
PUBLIC 49d48 0 std::__ndk1::__hash_table<std::__ndk1::__hash_value_type<CoinsStatus, cocos2d::_ccColor3B>, std::__ndk1::__unordered_map_hasher<CoinsStatus, std::__ndk1::__hash_value_type<CoinsStatus, cocos2d::_ccColor3B>, std::__ndk1::hash<CoinsStatus>, std::__ndk1::equal_to<CoinsStatus>, true>, std::__ndk1::__unordered_map_equal<CoinsStatus, std::__ndk1::__hash_value_type<CoinsStatus, cocos2d::_ccColor3B>, std::__ndk1::equal_to<CoinsStatus>, std::__ndk1::hash<CoinsStatus>, true>, std::__ndk1::allocator<std::__ndk1::__hash_value_type<CoinsStatus, cocos2d::_ccColor3B> > >::~__hash_table()
PUBLIC 49d94 0 std::__ndk1::__hash_table<std::__ndk1::__hash_value_type<std::__ndk1::basic_string<char, std::__ndk1::char_traits<char>, std::__ndk1::allocator<char> >, ColorMode>, std::__ndk1::__unordered_map_hasher<std::__ndk1::basic_string<char, std::__ndk1::char_traits<char>, std::__ndk1::allocator<char> >, std::__ndk1::__hash_value_type<std::__ndk1::basic_string<char, std::__ndk1::char_traits<char>, std::__ndk1::allocator<char> >, ColorMode>, std::__ndk1::hash<std::__ndk1::basic_string<char, std::__ndk1::char_traits<char>, std::__ndk1::allocator<char> > >, std::__ndk1::equal_to<std::__ndk1::basic_string<char, std::__ndk1::char_traits<char>, std::__ndk1::allocator<char> > >, true>, std::__ndk1::__unordered_map_equal<std::__ndk1::basic_string<char, std::__ndk1::char_traits<char>, std::__ndk1::allocator<char> >, std::__ndk1::__hash_value_type<std::__ndk1::basic_string<char, std::__ndk1::char_traits<char>, std::__ndk1::allocator<char> >, ColorMode>, std::__ndk1::equal_to<std::__ndk1::basic_string<char, std::__ndk1::char_traits<char>, std::__ndk1::allocator<char> > >, std::__ndk1::hash<std::__ndk1::basic_string<char, std::__ndk1::char_traits<char>, std::__ndk1::allocator<char> > >, true>, std::__ndk1::allocator<std::__ndk1::__hash_value_type<std::__ndk1::basic_string<char, std::__ndk1::char_traits<char>, std::__ndk1::allocator<char> >, ColorMode> > >::~__hash_table()
PUBLIC 49e04 0 std::__ndk1::vector<bool, std::__ndk1::allocator<bool> >::__throw_length_error[abi:ne180000]() const
PUBLIC 49e18 0 std::__ndk1::__hash_table<std::__ndk1::__hash_value_type<std::__ndk1::basic_string<char, std::__ndk1::char_traits<char>, std::__ndk1::allocator<char> >, ColorMode>, std::__ndk1::__unordered_map_hasher<std::__ndk1::basic_string<char, std::__ndk1::char_traits<char>, std::__ndk1::allocator<char> >, std::__ndk1::__hash_value_type<std::__ndk1::basic_string<char, std::__ndk1::char_traits<char>, std::__ndk1::allocator<char> >, ColorMode>, std::__ndk1::hash<std::__ndk1::basic_string<char, std::__ndk1::char_traits<char>, std::__ndk1::allocator<char> > >, std::__ndk1::equal_to<std::__ndk1::basic_string<char, std::__ndk1::char_traits<char>, std::__ndk1::allocator<char> > >, true>, std::__ndk1::__unordered_map_equal<std::__ndk1::basic_string<char, std::__ndk1::char_traits<char>, std::__ndk1::allocator<char> >, std::__ndk1::__hash_value_type<std::__ndk1::basic_string<char, std::__ndk1::char_traits<char>, std::__ndk1::allocator<char> >, ColorMode>, std::__ndk1::equal_to<std::__ndk1::basic_string<char, std::__ndk1::char_traits<char>, std::__ndk1::allocator<char> > >, std::__ndk1::hash<std::__ndk1::basic_string<char, std::__ndk1::char_traits<char>, std::__ndk1::allocator<char> > >, true>, std::__ndk1::allocator<std::__ndk1::__hash_value_type<std::__ndk1::basic_string<char, std::__ndk1::char_traits<char>, std::__ndk1::allocator<char> >, ColorMode> > >::__emplace_unique_key_args<std::__ndk1::basic_string<char, std::__ndk1::char_traits<char>, std::__ndk1::allocator<char> >, std::__ndk1::pair<std::__ndk1::basic_string<char, std::__ndk1::char_traits<char>, std::__ndk1::allocator<char> > const, ColorMode> const&>(std::__ndk1::basic_string<char, std::__ndk1::char_traits<char>, std::__ndk1::allocator<char> > const&, std::__ndk1::pair<std::__ndk1::basic_string<char, std::__ndk1::char_traits<char>, std::__ndk1::allocator<char> > const, ColorMode> const&)
PUBLIC 4a458 0 std::__ndk1::unique_ptr<std::__ndk1::__hash_node<std::__ndk1::__hash_value_type<std::__ndk1::basic_string<char, std::__ndk1::char_traits<char>, std::__ndk1::allocator<char> >, ColorMode>, void*>, std::__ndk1::__hash_node_destructor<std::__ndk1::allocator<std::__ndk1::__hash_node<std::__ndk1::__hash_value_type<std::__ndk1::basic_string<char, std::__ndk1::char_traits<char>, std::__ndk1::allocator<char> >, ColorMode>, void*> > > >::~unique_ptr[abi:ne180000]()
PUBLIC 4a4a8 0 std::__ndk1::__hash_table<std::__ndk1::__hash_value_type<CoinsStatus, cocos2d::_ccColor3B>, std::__ndk1::__unordered_map_hasher<CoinsStatus, std::__ndk1::__hash_value_type<CoinsStatus, cocos2d::_ccColor3B>, std::__ndk1::hash<CoinsStatus>, std::__ndk1::equal_to<CoinsStatus>, true>, std::__ndk1::__unordered_map_equal<CoinsStatus, std::__ndk1::__hash_value_type<CoinsStatus, cocos2d::_ccColor3B>, std::__ndk1::equal_to<CoinsStatus>, std::__ndk1::hash<CoinsStatus>, true>, std::__ndk1::allocator<std::__ndk1::__hash_value_type<CoinsStatus, cocos2d::_ccColor3B> > >::__emplace_unique_key_args<CoinsStatus, std::__ndk1::pair<CoinsStatus const, cocos2d::_ccColor3B> const&>(CoinsStatus const&, std::__ndk1::pair<CoinsStatus const, cocos2d::_ccColor3B> const&)
PUBLIC 4a940 0 std::__ndk1::vector<bool, std::__ndk1::allocator<bool> >::__throw_out_of_range[abi:ne180000]() const
PUBLIC 4a954 0 std::__ndk1::vector<GameObject*, std::__ndk1::allocator<GameObject*> >::__throw_length_error[abi:ne180000]() const
PUBLIC 4a968 0 std::__ndk1::__hash_table<std::__ndk1::__hash_value_type<std::__ndk1::basic_string<char, std::__ndk1::char_traits<char>, std::__ndk1::allocator<char> >, ColorMode>, std::__ndk1::__unordered_map_hasher<std::__ndk1::basic_string<char, std::__ndk1::char_traits<char>, std::__ndk1::allocator<char> >, std::__ndk1::__hash_value_type<std::__ndk1::basic_string<char, std::__ndk1::char_traits<char>, std::__ndk1::allocator<char> >, ColorMode>, std::__ndk1::hash<std::__ndk1::basic_string<char, std::__ndk1::char_traits<char>, std::__ndk1::allocator<char> > >, std::__ndk1::equal_to<std::__ndk1::basic_string<char, std::__ndk1::char_traits<char>, std::__ndk1::allocator<char> > >, true>, std::__ndk1::__unordered_map_equal<std::__ndk1::basic_string<char, std::__ndk1::char_traits<char>, std::__ndk1::allocator<char> >, std::__ndk1::__hash_value_type<std::__ndk1::basic_string<char, std::__ndk1::char_traits<char>, std::__ndk1::allocator<char> >, ColorMode>, std::__ndk1::equal_to<std::__ndk1::basic_string<char, std::__ndk1::char_traits<char>, std::__ndk1::allocator<char> > >, std::__ndk1::hash<std::__ndk1::basic_string<char, std::__ndk1::char_traits<char>, std::__ndk1::allocator<char> > >, true>, std::__ndk1::allocator<std::__ndk1::__hash_value_type<std::__ndk1::basic_string<char, std::__ndk1::char_traits<char>, std::__ndk1::allocator<char> >, ColorMode> > >::find<std::__ndk1::basic_string<char, std::__ndk1::char_traits<char>, std::__ndk1::allocator<char> > >(std::__ndk1::basic_string<char, std::__ndk1::char_traits<char>, std::__ndk1::allocator<char> > const&) const
PUBLIC 4abbc 0 geodeExecFunction10<(anonymous namespace)::ExecFuncUnique10>(geode::ModStateEvent*)
PUBLIC 4d1b8 0 __cxx_global_var_init.1
PUBLIC 4da48 0 geode::modifier::ModifyBase<geode::modifier::ModifyDerive<MyMenuLayer, MenuLayer> >::~ModifyBase()
PUBLIC 4da64 0 __cxx_global_var_init.2
PUBLIC 4dee4 0 geode::modifier::ModifyBase<geode::modifier::ModifyDerive<MyEditLevelLayer, EditLevelLayer> >::~ModifyBase()
PUBLIC 4df00 0 __cxx_global_var_init.3
PUBLIC 4e380 0 geode::modifier::ModifyBase<geode::modifier::ModifyDerive<MyCreatorLayer, CreatorLayer> >::~ModifyBase()
PUBLIC 4e39c 0 __cxx_global_var_init.4
PUBLIC 4e81c 0 geode::modifier::ModifyBase<geode::modifier::ModifyDerive<MyEditorPauseLayer, EditorPauseLayer> >::~ModifyBase()
PUBLIC 4e838 0 __cxx_global_var_init.5
PUBLIC 4ecb8 0 geode::modifier::ModifyBase<geode::modifier::ModifyDerive<MyLevelInfoLayer, LevelInfoLayer> >::~ModifyBase()
PUBLIC 4ecd4 0 geode::Ref<keybinds::Bind>::~Ref()
PUBLIC 4ecf0 0 keybinds::BindableAction::~BindableAction()
PUBLIC 4edb4 0 std::__ndk1::vector<geode::Ref<keybinds::Bind>, std::__ndk1::allocator<geode::Ref<keybinds::Bind> > >::~vector[abi:ne180000]()
PUBLIC 4ee38 0 std::__ndk1::basic_string<char, std::__ndk1::char_traits<char>, std::__ndk1::allocator<char> >::__throw_out_of_range[abi:ne180000]() const
PUBLIC 4ee4c 0 std::__ndk1::__function::__func<geode::listenForSettingChangesV3<double, geodeExecFunction10<(anonymous namespace)::ExecFuncUnique10>(geode::ModStateEvent*)::{lambda(double)#1}>(std::__ndk1::basic_string_view<char, std::__ndk1::char_traits<char> >, geodeExecFunction10<(anonymous namespace)::ExecFuncUnique10>(geode::ModStateEvent*)::{lambda(double)#1}&&, geode::Mod*)::{lambda(std::__ndk1::shared_ptr<geode::SettingV3>)#1}, std::__ndk1::allocator<geode::listenForSettingChangesV3<double, geodeExecFunction10<(anonymous namespace)::ExecFuncUnique10>(geode::ModStateEvent*)::{lambda(double)#1}>(std::__ndk1::basic_string_view<char, std::__ndk1::char_traits<char> >, geodeExecFunction10<(anonymous namespace)::ExecFuncUnique10>(geode::ModStateEvent*)::{lambda(double)#1}&&, geode::Mod*)::{lambda(std::__ndk1::shared_ptr<geode::SettingV3>)#1}>, void (std::__ndk1::shared_ptr<geode::SettingV3>)>::~__func()
PUBLIC 4ee50 0 std::__ndk1::__function::__func<geode::listenForSettingChangesV3<double, geodeExecFunction10<(anonymous namespace)::ExecFuncUnique10>(geode::ModStateEvent*)::{lambda(double)#1}>(std::__ndk1::basic_string_view<char, std::__ndk1::char_traits<char> >, geodeExecFunction10<(anonymous namespace)::ExecFuncUnique10>(geode::ModStateEvent*)::{lambda(double)#1}&&, geode::Mod*)::{lambda(std::__ndk1::shared_ptr<geode::SettingV3>)#1}, std::__ndk1::allocator<geode::listenForSettingChangesV3<double, geodeExecFunction10<(anonymous namespace)::ExecFuncUnique10>(geode::ModStateEvent*)::{lambda(double)#1}>(std::__ndk1::basic_string_view<char, std::__ndk1::char_traits<char> >, geodeExecFunction10<(anonymous namespace)::ExecFuncUnique10>(geode::ModStateEvent*)::{lambda(double)#1}&&, geode::Mod*)::{lambda(std::__ndk1::shared_ptr<geode::SettingV3>)#1}>, void (std::__ndk1::shared_ptr<geode::SettingV3>)>::__clone() const
PUBLIC 4ee88 0 std::__ndk1::__function::__func<geode::listenForSettingChangesV3<double, geodeExecFunction10<(anonymous namespace)::ExecFuncUnique10>(geode::ModStateEvent*)::{lambda(double)#1}>(std::__ndk1::basic_string_view<char, std::__ndk1::char_traits<char> >, geodeExecFunction10<(anonymous namespace)::ExecFuncUnique10>(geode::ModStateEvent*)::{lambda(double)#1}&&, geode::Mod*)::{lambda(std::__ndk1::shared_ptr<geode::SettingV3>)#1}, std::__ndk1::allocator<geode::listenForSettingChangesV3<double, geodeExecFunction10<(anonymous namespace)::ExecFuncUnique10>(geode::ModStateEvent*)::{lambda(double)#1}>(std::__ndk1::basic_string_view<char, std::__ndk1::char_traits<char> >, geodeExecFunction10<(anonymous namespace)::ExecFuncUnique10>(geode::ModStateEvent*)::{lambda(double)#1}&&, geode::Mod*)::{lambda(std::__ndk1::shared_ptr<geode::SettingV3>)#1}>, void (std::__ndk1::shared_ptr<geode::SettingV3>)>::__clone(std::__ndk1::__function::__base<void (std::__ndk1::shared_ptr<geode::SettingV3>)>*) const
PUBLIC 4eea0 0 std::__ndk1::__function::__func<geode::listenForSettingChangesV3<double, geodeExecFunction10<(anonymous namespace)::ExecFuncUnique10>(geode::ModStateEvent*)::{lambda(double)#1}>(std::__ndk1::basic_string_view<char, std::__ndk1::char_traits<char> >, geodeExecFunction10<(anonymous namespace)::ExecFuncUnique10>(geode::ModStateEvent*)::{lambda(double)#1}&&, geode::Mod*)::{lambda(std::__ndk1::shared_ptr<geode::SettingV3>)#1}, std::__ndk1::allocator<geode::listenForSettingChangesV3<double, geodeExecFunction10<(anonymous namespace)::ExecFuncUnique10>(geode::ModStateEvent*)::{lambda(double)#1}>(std::__ndk1::basic_string_view<char, std::__ndk1::char_traits<char> >, geodeExecFunction10<(anonymous namespace)::ExecFuncUnique10>(geode::ModStateEvent*)::{lambda(double)#1}&&, geode::Mod*)::{lambda(std::__ndk1::shared_ptr<geode::SettingV3>)#1}>, void (std::__ndk1::shared_ptr<geode::SettingV3>)>::destroy()
PUBLIC 4eea4 0 std::__ndk1::__function::__func<geode::listenForSettingChangesV3<double, geodeExecFunction10<(anonymous namespace)::ExecFuncUnique10>(geode::ModStateEvent*)::{lambda(double)#1}>(std::__ndk1::basic_string_view<char, std::__ndk1::char_traits<char> >, geodeExecFunction10<(anonymous namespace)::ExecFuncUnique10>(geode::ModStateEvent*)::{lambda(double)#1}&&, geode::Mod*)::{lambda(std::__ndk1::shared_ptr<geode::SettingV3>)#1}, std::__ndk1::allocator<geode::listenForSettingChangesV3<double, geodeExecFunction10<(anonymous namespace)::ExecFuncUnique10>(geode::ModStateEvent*)::{lambda(double)#1}>(std::__ndk1::basic_string_view<char, std::__ndk1::char_traits<char> >, geodeExecFunction10<(anonymous namespace)::ExecFuncUnique10>(geode::ModStateEvent*)::{lambda(double)#1}&&, geode::Mod*)::{lambda(std::__ndk1::shared_ptr<geode::SettingV3>)#1}>, void (std::__ndk1::shared_ptr<geode::SettingV3>)>::destroy_deallocate()
PUBLIC 4eea8 0 std::__ndk1::__function::__func<geode::listenForSettingChangesV3<double, geodeExecFunction10<(anonymous namespace)::ExecFuncUnique10>(geode::ModStateEvent*)::{lambda(double)#1}>(std::__ndk1::basic_string_view<char, std::__ndk1::char_traits<char> >, geodeExecFunction10<(anonymous namespace)::ExecFuncUnique10>(geode::ModStateEvent*)::{lambda(double)#1}&&, geode::Mod*)::{lambda(std::__ndk1::shared_ptr<geode::SettingV3>)#1}, std::__ndk1::allocator<geode::listenForSettingChangesV3<double, geodeExecFunction10<(anonymous namespace)::ExecFuncUnique10>(geode::ModStateEvent*)::{lambda(double)#1}>(std::__ndk1::basic_string_view<char, std::__ndk1::char_traits<char> >, geodeExecFunction10<(anonymous namespace)::ExecFuncUnique10>(geode::ModStateEvent*)::{lambda(double)#1}&&, geode::Mod*)::{lambda(std::__ndk1::shared_ptr<geode::SettingV3>)#1}>, void (std::__ndk1::shared_ptr<geode::SettingV3>)>::operator()(std::__ndk1::shared_ptr<geode::SettingV3>&&)
PUBLIC 4f060 0 std::__ndk1::__function::__func<geode::listenForSettingChangesV3<double, geodeExecFunction10<(anonymous namespace)::ExecFuncUnique10>(geode::ModStateEvent*)::{lambda(double)#1}>(std::__ndk1::basic_string_view<char, std::__ndk1::char_traits<char> >, geodeExecFunction10<(anonymous namespace)::ExecFuncUnique10>(geode::ModStateEvent*)::{lambda(double)#1}&&, geode::Mod*)::{lambda(std::__ndk1::shared_ptr<geode::SettingV3>)#1}, std::__ndk1::allocator<geode::listenForSettingChangesV3<double, geodeExecFunction10<(anonymous namespace)::ExecFuncUnique10>(geode::ModStateEvent*)::{lambda(double)#1}>(std::__ndk1::basic_string_view<char, std::__ndk1::char_traits<char> >, geodeExecFunction10<(anonymous namespace)::ExecFuncUnique10>(geode::ModStateEvent*)::{lambda(double)#1}&&, geode::Mod*)::{lambda(std::__ndk1::shared_ptr<geode::SettingV3>)#1}>, void (std::__ndk1::shared_ptr<geode::SettingV3>)>::target(std::type_info const&) const
PUBLIC 4f07c 0 std::__ndk1::__function::__func<geode::listenForSettingChangesV3<double, geodeExecFunction10<(anonymous namespace)::ExecFuncUnique10>(geode::ModStateEvent*)::{lambda(double)#1}>(std::__ndk1::basic_string_view<char, std::__ndk1::char_traits<char> >, geodeExecFunction10<(anonymous namespace)::ExecFuncUnique10>(geode::ModStateEvent*)::{lambda(double)#1}&&, geode::Mod*)::{lambda(std::__ndk1::shared_ptr<geode::SettingV3>)#1}, std::__ndk1::allocator<geode::listenForSettingChangesV3<double, geodeExecFunction10<(anonymous namespace)::ExecFuncUnique10>(geode::ModStateEvent*)::{lambda(double)#1}>(std::__ndk1::basic_string_view<char, std::__ndk1::char_traits<char> >, geodeExecFunction10<(anonymous namespace)::ExecFuncUnique10>(geode::ModStateEvent*)::{lambda(double)#1}&&, geode::Mod*)::{lambda(std::__ndk1::shared_ptr<geode::SettingV3>)#1}>, void (std::__ndk1::shared_ptr<geode::SettingV3>)>::target_type() const
PUBLIC 4f088 0 std::__ndk1::__function::__func<geode::listenForSettingChangesV3<double, geodeExecFunction10<(anonymous namespace)::ExecFuncUnique10>(geode::ModStateEvent*)::{lambda(double)#2}>(std::__ndk1::basic_string_view<char, std::__ndk1::char_traits<char> >, geodeExecFunction10<(anonymous namespace)::ExecFuncUnique10>(geode::ModStateEvent*)::{lambda(double)#2}&&, geode::Mod*)::{lambda(std::__ndk1::shared_ptr<geode::SettingV3>)#1}, std::__ndk1::allocator<geode::listenForSettingChangesV3<double, geodeExecFunction10<(anonymous namespace)::ExecFuncUnique10>(geode::ModStateEvent*)::{lambda(double)#2}>(std::__ndk1::basic_string_view<char, std::__ndk1::char_traits<char> >, geodeExecFunction10<(anonymous namespace)::ExecFuncUnique10>(geode::ModStateEvent*)::{lambda(double)#2}&&, geode::Mod*)::{lambda(std::__ndk1::shared_ptr<geode::SettingV3>)#1}>, void (std::__ndk1::shared_ptr<geode::SettingV3>)>::~__func()
PUBLIC 4f08c 0 std::__ndk1::__function::__func<geode::listenForSettingChangesV3<double, geodeExecFunction10<(anonymous namespace)::ExecFuncUnique10>(geode::ModStateEvent*)::{lambda(double)#2}>(std::__ndk1::basic_string_view<char, std::__ndk1::char_traits<char> >, geodeExecFunction10<(anonymous namespace)::ExecFuncUnique10>(geode::ModStateEvent*)::{lambda(double)#2}&&, geode::Mod*)::{lambda(std::__ndk1::shared_ptr<geode::SettingV3>)#1}, std::__ndk1::allocator<geode::listenForSettingChangesV3<double, geodeExecFunction10<(anonymous namespace)::ExecFuncUnique10>(geode::ModStateEvent*)::{lambda(double)#2}>(std::__ndk1::basic_string_view<char, std::__ndk1::char_traits<char> >, geodeExecFunction10<(anonymous namespace)::ExecFuncUnique10>(geode::ModStateEvent*)::{lambda(double)#2}&&, geode::Mod*)::{lambda(std::__ndk1::shared_ptr<geode::SettingV3>)#1}>, void (std::__ndk1::shared_ptr<geode::SettingV3>)>::__clone() const
PUBLIC 4f0c4 0 std::__ndk1::__function::__func<geode::listenForSettingChangesV3<double, geodeExecFunction10<(anonymous namespace)::ExecFuncUnique10>(geode::ModStateEvent*)::{lambda(double)#2}>(std::__ndk1::basic_string_view<char, std::__ndk1::char_traits<char> >, geodeExecFunction10<(anonymous namespace)::ExecFuncUnique10>(geode::ModStateEvent*)::{lambda(double)#2}&&, geode::Mod*)::{lambda(std::__ndk1::shared_ptr<geode::SettingV3>)#1}, std::__ndk1::allocator<geode::listenForSettingChangesV3<double, geodeExecFunction10<(anonymous namespace)::ExecFuncUnique10>(geode::ModStateEvent*)::{lambda(double)#2}>(std::__ndk1::basic_string_view<char, std::__ndk1::char_traits<char> >, geodeExecFunction10<(anonymous namespace)::ExecFuncUnique10>(geode::ModStateEvent*)::{lambda(double)#2}&&, geode::Mod*)::{lambda(std::__ndk1::shared_ptr<geode::SettingV3>)#1}>, void (std::__ndk1::shared_ptr<geode::SettingV3>)>::__clone(std::__ndk1::__function::__base<void (std::__ndk1::shared_ptr<geode::SettingV3>)>*) const
PUBLIC 4f0dc 0 std::__ndk1::__function::__func<geode::listenForSettingChangesV3<double, geodeExecFunction10<(anonymous namespace)::ExecFuncUnique10>(geode::ModStateEvent*)::{lambda(double)#2}>(std::__ndk1::basic_string_view<char, std::__ndk1::char_traits<char> >, geodeExecFunction10<(anonymous namespace)::ExecFuncUnique10>(geode::ModStateEvent*)::{lambda(double)#2}&&, geode::Mod*)::{lambda(std::__ndk1::shared_ptr<geode::SettingV3>)#1}, std::__ndk1::allocator<geode::listenForSettingChangesV3<double, geodeExecFunction10<(anonymous namespace)::ExecFuncUnique10>(geode::ModStateEvent*)::{lambda(double)#2}>(std::__ndk1::basic_string_view<char, std::__ndk1::char_traits<char> >, geodeExecFunction10<(anonymous namespace)::ExecFuncUnique10>(geode::ModStateEvent*)::{lambda(double)#2}&&, geode::Mod*)::{lambda(std::__ndk1::shared_ptr<geode::SettingV3>)#1}>, void (std::__ndk1::shared_ptr<geode::SettingV3>)>::destroy()
PUBLIC 4f0e0 0 std::__ndk1::__function::__func<geode::listenForSettingChangesV3<double, geodeExecFunction10<(anonymous namespace)::ExecFuncUnique10>(geode::ModStateEvent*)::{lambda(double)#2}>(std::__ndk1::basic_string_view<char, std::__ndk1::char_traits<char> >, geodeExecFunction10<(anonymous namespace)::ExecFuncUnique10>(geode::ModStateEvent*)::{lambda(double)#2}&&, geode::Mod*)::{lambda(std::__ndk1::shared_ptr<geode::SettingV3>)#1}, std::__ndk1::allocator<geode::listenForSettingChangesV3<double, geodeExecFunction10<(anonymous namespace)::ExecFuncUnique10>(geode::ModStateEvent*)::{lambda(double)#2}>(std::__ndk1::basic_string_view<char, std::__ndk1::char_traits<char> >, geodeExecFunction10<(anonymous namespace)::ExecFuncUnique10>(geode::ModStateEvent*)::{lambda(double)#2}&&, geode::Mod*)::{lambda(std::__ndk1::shared_ptr<geode::SettingV3>)#1}>, void (std::__ndk1::shared_ptr<geode::SettingV3>)>::destroy_deallocate()
PUBLIC 4f0e4 0 std::__ndk1::__function::__func<geode::listenForSettingChangesV3<double, geodeExecFunction10<(anonymous namespace)::ExecFuncUnique10>(geode::ModStateEvent*)::{lambda(double)#2}>(std::__ndk1::basic_string_view<char, std::__ndk1::char_traits<char> >, geodeExecFunction10<(anonymous namespace)::ExecFuncUnique10>(geode::ModStateEvent*)::{lambda(double)#2}&&, geode::Mod*)::{lambda(std::__ndk1::shared_ptr<geode::SettingV3>)#1}, std::__ndk1::allocator<geode::listenForSettingChangesV3<double, geodeExecFunction10<(anonymous namespace)::ExecFuncUnique10>(geode::ModStateEvent*)::{lambda(double)#2}>(std::__ndk1::basic_string_view<char, std::__ndk1::char_traits<char> >, geodeExecFunction10<(anonymous namespace)::ExecFuncUnique10>(geode::ModStateEvent*)::{lambda(double)#2}&&, geode::Mod*)::{lambda(std::__ndk1::shared_ptr<geode::SettingV3>)#1}>, void (std::__ndk1::shared_ptr<geode::SettingV3>)>::operator()(std::__ndk1::shared_ptr<geode::SettingV3>&&)
PUBLIC 4f29c 0 std::__ndk1::__function::__func<geode::listenForSettingChangesV3<double, geodeExecFunction10<(anonymous namespace)::ExecFuncUnique10>(geode::ModStateEvent*)::{lambda(double)#2}>(std::__ndk1::basic_string_view<char, std::__ndk1::char_traits<char> >, geodeExecFunction10<(anonymous namespace)::ExecFuncUnique10>(geode::ModStateEvent*)::{lambda(double)#2}&&, geode::Mod*)::{lambda(std::__ndk1::shared_ptr<geode::SettingV3>)#1}, std::__ndk1::allocator<geode::listenForSettingChangesV3<double, geodeExecFunction10<(anonymous namespace)::ExecFuncUnique10>(geode::ModStateEvent*)::{lambda(double)#2}>(std::__ndk1::basic_string_view<char, std::__ndk1::char_traits<char> >, geodeExecFunction10<(anonymous namespace)::ExecFuncUnique10>(geode::ModStateEvent*)::{lambda(double)#2}&&, geode::Mod*)::{lambda(std::__ndk1::shared_ptr<geode::SettingV3>)#1}>, void (std::__ndk1::shared_ptr<geode::SettingV3>)>::target(std::type_info const&) const
PUBLIC 4f2b8 0 std::__ndk1::__function::__func<geode::listenForSettingChangesV3<double, geodeExecFunction10<(anonymous namespace)::ExecFuncUnique10>(geode::ModStateEvent*)::{lambda(double)#2}>(std::__ndk1::basic_string_view<char, std::__ndk1::char_traits<char> >, geodeExecFunction10<(anonymous namespace)::ExecFuncUnique10>(geode::ModStateEvent*)::{lambda(double)#2}&&, geode::Mod*)::{lambda(std::__ndk1::shared_ptr<geode::SettingV3>)#1}, std::__ndk1::allocator<geode::listenForSettingChangesV3<double, geodeExecFunction10<(anonymous namespace)::ExecFuncUnique10>(geode::ModStateEvent*)::{lambda(double)#2}>(std::__ndk1::basic_string_view<char, std::__ndk1::char_traits<char> >, geodeExecFunction10<(anonymous namespace)::ExecFuncUnique10>(geode::ModStateEvent*)::{lambda(double)#2}&&, geode::Mod*)::{lambda(std::__ndk1::shared_ptr<geode::SettingV3>)#1}>, void (std::__ndk1::shared_ptr<geode::SettingV3>)>::target_type() const
PUBLIC 4f2c4 0 std::__ndk1::__function::__func<geode::listenForSettingChangesV3<double, geodeExecFunction10<(anonymous namespace)::ExecFuncUnique10>(geode::ModStateEvent*)::{lambda(double)#3}>(std::__ndk1::basic_string_view<char, std::__ndk1::char_traits<char> >, geodeExecFunction10<(anonymous namespace)::ExecFuncUnique10>(geode::ModStateEvent*)::{lambda(double)#3}&&, geode::Mod*)::{lambda(std::__ndk1::shared_ptr<geode::SettingV3>)#1}, std::__ndk1::allocator<geode::listenForSettingChangesV3<double, geodeExecFunction10<(anonymous namespace)::ExecFuncUnique10>(geode::ModStateEvent*)::{lambda(double)#3}>(std::__ndk1::basic_string_view<char, std::__ndk1::char_traits<char> >, geodeExecFunction10<(anonymous namespace)::ExecFuncUnique10>(geode::ModStateEvent*)::{lambda(double)#3}&&, geode::Mod*)::{lambda(std::__ndk1::shared_ptr<geode::SettingV3>)#1}>, void (std::__ndk1::shared_ptr<geode::SettingV3>)>::~__func()
PUBLIC 4f2c8 0 std::__ndk1::__function::__func<geode::listenForSettingChangesV3<double, geodeExecFunction10<(anonymous namespace)::ExecFuncUnique10>(geode::ModStateEvent*)::{lambda(double)#3}>(std::__ndk1::basic_string_view<char, std::__ndk1::char_traits<char> >, geodeExecFunction10<(anonymous namespace)::ExecFuncUnique10>(geode::ModStateEvent*)::{lambda(double)#3}&&, geode::Mod*)::{lambda(std::__ndk1::shared_ptr<geode::SettingV3>)#1}, std::__ndk1::allocator<geode::listenForSettingChangesV3<double, geodeExecFunction10<(anonymous namespace)::ExecFuncUnique10>(geode::ModStateEvent*)::{lambda(double)#3}>(std::__ndk1::basic_string_view<char, std::__ndk1::char_traits<char> >, geodeExecFunction10<(anonymous namespace)::ExecFuncUnique10>(geode::ModStateEvent*)::{lambda(double)#3}&&, geode::Mod*)::{lambda(std::__ndk1::shared_ptr<geode::SettingV3>)#1}>, void (std::__ndk1::shared_ptr<geode::SettingV3>)>::__clone() const
PUBLIC 4f300 0 std::__ndk1::__function::__func<geode::listenForSettingChangesV3<double, geodeExecFunction10<(anonymous namespace)::ExecFuncUnique10>(geode::ModStateEvent*)::{lambda(double)#3}>(std::__ndk1::basic_string_view<char, std::__ndk1::char_traits<char> >, geodeExecFunction10<(anonymous namespace)::ExecFuncUnique10>(geode::ModStateEvent*)::{lambda(double)#3}&&, geode::Mod*)::{lambda(std::__ndk1::shared_ptr<geode::SettingV3>)#1}, std::__ndk1::allocator<geode::listenForSettingChangesV3<double, geodeExecFunction10<(anonymous namespace)::ExecFuncUnique10>(geode::ModStateEvent*)::{lambda(double)#3}>(std::__ndk1::basic_string_view<char, std::__ndk1::char_traits<char> >, geodeExecFunction10<(anonymous namespace)::ExecFuncUnique10>(geode::ModStateEvent*)::{lambda(double)#3}&&, geode::Mod*)::{lambda(std::__ndk1::shared_ptr<geode::SettingV3>)#1}>, void (std::__ndk1::shared_ptr<geode::SettingV3>)>::__clone(std::__ndk1::__function::__base<void (std::__ndk1::shared_ptr<geode::SettingV3>)>*) const
PUBLIC 4f318 0 std::__ndk1::__function::__func<geode::listenForSettingChangesV3<double, geodeExecFunction10<(anonymous namespace)::ExecFuncUnique10>(geode::ModStateEvent*)::{lambda(double)#3}>(std::__ndk1::basic_string_view<char, std::__ndk1::char_traits<char> >, geodeExecFunction10<(anonymous namespace)::ExecFuncUnique10>(geode::ModStateEvent*)::{lambda(double)#3}&&, geode::Mod*)::{lambda(std::__ndk1::shared_ptr<geode::SettingV3>)#1}, std::__ndk1::allocator<geode::listenForSettingChangesV3<double, geodeExecFunction10<(anonymous namespace)::ExecFuncUnique10>(geode::ModStateEvent*)::{lambda(double)#3}>(std::__ndk1::basic_string_view<char, std::__ndk1::char_traits<char> >, geodeExecFunction10<(anonymous namespace)::ExecFuncUnique10>(geode::ModStateEvent*)::{lambda(double)#3}&&, geode::Mod*)::{lambda(std::__ndk1::shared_ptr<geode::SettingV3>)#1}>, void (std::__ndk1::shared_ptr<geode::SettingV3>)>::destroy()
PUBLIC 4f31c 0 std::__ndk1::__function::__func<geode::listenForSettingChangesV3<double, geodeExecFunction10<(anonymous namespace)::ExecFuncUnique10>(geode::ModStateEvent*)::{lambda(double)#3}>(std::__ndk1::basic_string_view<char, std::__ndk1::char_traits<char> >, geodeExecFunction10<(anonymous namespace)::ExecFuncUnique10>(geode::ModStateEvent*)::{lambda(double)#3}&&, geode::Mod*)::{lambda(std::__ndk1::shared_ptr<geode::SettingV3>)#1}, std::__ndk1::allocator<geode::listenForSettingChangesV3<double, geodeExecFunction10<(anonymous namespace)::ExecFuncUnique10>(geode::ModStateEvent*)::{lambda(double)#3}>(std::__ndk1::basic_string_view<char, std::__ndk1::char_traits<char> >, geodeExecFunction10<(anonymous namespace)::ExecFuncUnique10>(geode::ModStateEvent*)::{lambda(double)#3}&&, geode::Mod*)::{lambda(std::__ndk1::shared_ptr<geode::SettingV3>)#1}>, void (std::__ndk1::shared_ptr<geode::SettingV3>)>::destroy_deallocate()
PUBLIC 4f320 0 std::__ndk1::__function::__func<geode::listenForSettingChangesV3<double, geodeExecFunction10<(anonymous namespace)::ExecFuncUnique10>(geode::ModStateEvent*)::{lambda(double)#3}>(std::__ndk1::basic_string_view<char, std::__ndk1::char_traits<char> >, geodeExecFunction10<(anonymous namespace)::ExecFuncUnique10>(geode::ModStateEvent*)::{lambda(double)#3}&&, geode::Mod*)::{lambda(std::__ndk1::shared_ptr<geode::SettingV3>)#1}, std::__ndk1::allocator<geode::listenForSettingChangesV3<double, geodeExecFunction10<(anonymous namespace)::ExecFuncUnique10>(geode::ModStateEvent*)::{lambda(double)#3}>(std::__ndk1::basic_string_view<char, std::__ndk1::char_traits<char> >, geodeExecFunction10<(anonymous namespace)::ExecFuncUnique10>(geode::ModStateEvent*)::{lambda(double)#3}&&, geode::Mod*)::{lambda(std::__ndk1::shared_ptr<geode::SettingV3>)#1}>, void (std::__ndk1::shared_ptr<geode::SettingV3>)>::operator()(std::__ndk1::shared_ptr<geode::SettingV3>&&)
PUBLIC 4f4d8 0 std::__ndk1::__function::__func<geode::listenForSettingChangesV3<double, geodeExecFunction10<(anonymous namespace)::ExecFuncUnique10>(geode::ModStateEvent*)::{lambda(double)#3}>(std::__ndk1::basic_string_view<char, std::__ndk1::char_traits<char> >, geodeExecFunction10<(anonymous namespace)::ExecFuncUnique10>(geode::ModStateEvent*)::{lambda(double)#3}&&, geode::Mod*)::{lambda(std::__ndk1::shared_ptr<geode::SettingV3>)#1}, std::__ndk1::allocator<geode::listenForSettingChangesV3<double, geodeExecFunction10<(anonymous namespace)::ExecFuncUnique10>(geode::ModStateEvent*)::{lambda(double)#3}>(std::__ndk1::basic_string_view<char, std::__ndk1::char_traits<char> >, geodeExecFunction10<(anonymous namespace)::ExecFuncUnique10>(geode::ModStateEvent*)::{lambda(double)#3}&&, geode::Mod*)::{lambda(std::__ndk1::shared_ptr<geode::SettingV3>)#1}>, void (std::__ndk1::shared_ptr<geode::SettingV3>)>::target(std::type_info const&) const
PUBLIC 4f4f4 0 std::__ndk1::__function::__func<geode::listenForSettingChangesV3<double, geodeExecFunction10<(anonymous namespace)::ExecFuncUnique10>(geode::ModStateEvent*)::{lambda(double)#3}>(std::__ndk1::basic_string_view<char, std::__ndk1::char_traits<char> >, geodeExecFunction10<(anonymous namespace)::ExecFuncUnique10>(geode::ModStateEvent*)::{lambda(double)#3}&&, geode::Mod*)::{lambda(std::__ndk1::shared_ptr<geode::SettingV3>)#1}, std::__ndk1::allocator<geode::listenForSettingChangesV3<double, geodeExecFunction10<(anonymous namespace)::ExecFuncUnique10>(geode::ModStateEvent*)::{lambda(double)#3}>(std::__ndk1::basic_string_view<char, std::__ndk1::char_traits<char> >, geodeExecFunction10<(anonymous namespace)::ExecFuncUnique10>(geode::ModStateEvent*)::{lambda(double)#3}&&, geode::Mod*)::{lambda(std::__ndk1::shared_ptr<geode::SettingV3>)#1}>, void (std::__ndk1::shared_ptr<geode::SettingV3>)>::target_type() const
PUBLIC 4f500 0 std::__ndk1::__function::__func<geode::listenForSettingChangesV3<double, geodeExecFunction10<(anonymous namespace)::ExecFuncUnique10>(geode::ModStateEvent*)::{lambda(double)#4}>(std::__ndk1::basic_string_view<char, std::__ndk1::char_traits<char> >, geodeExecFunction10<(anonymous namespace)::ExecFuncUnique10>(geode::ModStateEvent*)::{lambda(double)#4}&&, geode::Mod*)::{lambda(std::__ndk1::shared_ptr<geode::SettingV3>)#1}, std::__ndk1::allocator<geode::listenForSettingChangesV3<double, geodeExecFunction10<(anonymous namespace)::ExecFuncUnique10>(geode::ModStateEvent*)::{lambda(double)#4}>(std::__ndk1::basic_string_view<char, std::__ndk1::char_traits<char> >, geodeExecFunction10<(anonymous namespace)::ExecFuncUnique10>(geode::ModStateEvent*)::{lambda(double)#4}&&, geode::Mod*)::{lambda(std::__ndk1::shared_ptr<geode::SettingV3>)#1}>, void (std::__ndk1::shared_ptr<geode::SettingV3>)>::~__func()
PUBLIC 4f504 0 std::__ndk1::__function::__func<geode::listenForSettingChangesV3<double, geodeExecFunction10<(anonymous namespace)::ExecFuncUnique10>(geode::ModStateEvent*)::{lambda(double)#4}>(std::__ndk1::basic_string_view<char, std::__ndk1::char_traits<char> >, geodeExecFunction10<(anonymous namespace)::ExecFuncUnique10>(geode::ModStateEvent*)::{lambda(double)#4}&&, geode::Mod*)::{lambda(std::__ndk1::shared_ptr<geode::SettingV3>)#1}, std::__ndk1::allocator<geode::listenForSettingChangesV3<double, geodeExecFunction10<(anonymous namespace)::ExecFuncUnique10>(geode::ModStateEvent*)::{lambda(double)#4}>(std::__ndk1::basic_string_view<char, std::__ndk1::char_traits<char> >, geodeExecFunction10<(anonymous namespace)::ExecFuncUnique10>(geode::ModStateEvent*)::{lambda(double)#4}&&, geode::Mod*)::{lambda(std::__ndk1::shared_ptr<geode::SettingV3>)#1}>, void (std::__ndk1::shared_ptr<geode::SettingV3>)>::__clone() const
PUBLIC 4f53c 0 std::__ndk1::__function::__func<geode::listenForSettingChangesV3<double, geodeExecFunction10<(anonymous namespace)::ExecFuncUnique10>(geode::ModStateEvent*)::{lambda(double)#4}>(std::__ndk1::basic_string_view<char, std::__ndk1::char_traits<char> >, geodeExecFunction10<(anonymous namespace)::ExecFuncUnique10>(geode::ModStateEvent*)::{lambda(double)#4}&&, geode::Mod*)::{lambda(std::__ndk1::shared_ptr<geode::SettingV3>)#1}, std::__ndk1::allocator<geode::listenForSettingChangesV3<double, geodeExecFunction10<(anonymous namespace)::ExecFuncUnique10>(geode::ModStateEvent*)::{lambda(double)#4}>(std::__ndk1::basic_string_view<char, std::__ndk1::char_traits<char> >, geodeExecFunction10<(anonymous namespace)::ExecFuncUnique10>(geode::ModStateEvent*)::{lambda(double)#4}&&, geode::Mod*)::{lambda(std::__ndk1::shared_ptr<geode::SettingV3>)#1}>, void (std::__ndk1::shared_ptr<geode::SettingV3>)>::__clone(std::__ndk1::__function::__base<void (std::__ndk1::shared_ptr<geode::SettingV3>)>*) const
PUBLIC 4f554 0 std::__ndk1::__function::__func<geode::listenForSettingChangesV3<double, geodeExecFunction10<(anonymous namespace)::ExecFuncUnique10>(geode::ModStateEvent*)::{lambda(double)#4}>(std::__ndk1::basic_string_view<char, std::__ndk1::char_traits<char> >, geodeExecFunction10<(anonymous namespace)::ExecFuncUnique10>(geode::ModStateEvent*)::{lambda(double)#4}&&, geode::Mod*)::{lambda(std::__ndk1::shared_ptr<geode::SettingV3>)#1}, std::__ndk1::allocator<geode::listenForSettingChangesV3<double, geodeExecFunction10<(anonymous namespace)::ExecFuncUnique10>(geode::ModStateEvent*)::{lambda(double)#4}>(std::__ndk1::basic_string_view<char, std::__ndk1::char_traits<char> >, geodeExecFunction10<(anonymous namespace)::ExecFuncUnique10>(geode::ModStateEvent*)::{lambda(double)#4}&&, geode::Mod*)::{lambda(std::__ndk1::shared_ptr<geode::SettingV3>)#1}>, void (std::__ndk1::shared_ptr<geode::SettingV3>)>::destroy()
PUBLIC 4f558 0 std::__ndk1::__function::__func<geode::listenForSettingChangesV3<double, geodeExecFunction10<(anonymous namespace)::ExecFuncUnique10>(geode::ModStateEvent*)::{lambda(double)#4}>(std::__ndk1::basic_string_view<char, std::__ndk1::char_traits<char> >, geodeExecFunction10<(anonymous namespace)::ExecFuncUnique10>(geode::ModStateEvent*)::{lambda(double)#4}&&, geode::Mod*)::{lambda(std::__ndk1::shared_ptr<geode::SettingV3>)#1}, std::__ndk1::allocator<geode::listenForSettingChangesV3<double, geodeExecFunction10<(anonymous namespace)::ExecFuncUnique10>(geode::ModStateEvent*)::{lambda(double)#4}>(std::__ndk1::basic_string_view<char, std::__ndk1::char_traits<char> >, geodeExecFunction10<(anonymous namespace)::ExecFuncUnique10>(geode::ModStateEvent*)::{lambda(double)#4}&&, geode::Mod*)::{lambda(std::__ndk1::shared_ptr<geode::SettingV3>)#1}>, void (std::__ndk1::shared_ptr<geode::SettingV3>)>::destroy_deallocate()
PUBLIC 4f55c 0 std::__ndk1::__function::__func<geode::listenForSettingChangesV3<double, geodeExecFunction10<(anonymous namespace)::ExecFuncUnique10>(geode::ModStateEvent*)::{lambda(double)#4}>(std::__ndk1::basic_string_view<char, std::__ndk1::char_traits<char> >, geodeExecFunction10<(anonymous namespace)::ExecFuncUnique10>(geode::ModStateEvent*)::{lambda(double)#4}&&, geode::Mod*)::{lambda(std::__ndk1::shared_ptr<geode::SettingV3>)#1}, std::__ndk1::allocator<geode::listenForSettingChangesV3<double, geodeExecFunction10<(anonymous namespace)::ExecFuncUnique10>(geode::ModStateEvent*)::{lambda(double)#4}>(std::__ndk1::basic_string_view<char, std::__ndk1::char_traits<char> >, geodeExecFunction10<(anonymous namespace)::ExecFuncUnique10>(geode::ModStateEvent*)::{lambda(double)#4}&&, geode::Mod*)::{lambda(std::__ndk1::shared_ptr<geode::SettingV3>)#1}>, void (std::__ndk1::shared_ptr<geode::SettingV3>)>::operator()(std::__ndk1::shared_ptr<geode::SettingV3>&&)
PUBLIC 4f714 0 std::__ndk1::__function::__func<geode::listenForSettingChangesV3<double, geodeExecFunction10<(anonymous namespace)::ExecFuncUnique10>(geode::ModStateEvent*)::{lambda(double)#4}>(std::__ndk1::basic_string_view<char, std::__ndk1::char_traits<char> >, geodeExecFunction10<(anonymous namespace)::ExecFuncUnique10>(geode::ModStateEvent*)::{lambda(double)#4}&&, geode::Mod*)::{lambda(std::__ndk1::shared_ptr<geode::SettingV3>)#1}, std::__ndk1::allocator<geode::listenForSettingChangesV3<double, geodeExecFunction10<(anonymous namespace)::ExecFuncUnique10>(geode::ModStateEvent*)::{lambda(double)#4}>(std::__ndk1::basic_string_view<char, std::__ndk1::char_traits<char> >, geodeExecFunction10<(anonymous namespace)::ExecFuncUnique10>(geode::ModStateEvent*)::{lambda(double)#4}&&, geode::Mod*)::{lambda(std::__ndk1::shared_ptr<geode::SettingV3>)#1}>, void (std::__ndk1::shared_ptr<geode::SettingV3>)>::target(std::type_info const&) const
PUBLIC 4f730 0 std::__ndk1::__function::__func<geode::listenForSettingChangesV3<double, geodeExecFunction10<(anonymous namespace)::ExecFuncUnique10>(geode::ModStateEvent*)::{lambda(double)#4}>(std::__ndk1::basic_string_view<char, std::__ndk1::char_traits<char> >, geodeExecFunction10<(anonymous namespace)::ExecFuncUnique10>(geode::ModStateEvent*)::{lambda(double)#4}&&, geode::Mod*)::{lambda(std::__ndk1::shared_ptr<geode::SettingV3>)#1}, std::__ndk1::allocator<geode::listenForSettingChangesV3<double, geodeExecFunction10<(anonymous namespace)::ExecFuncUnique10>(geode::ModStateEvent*)::{lambda(double)#4}>(std::__ndk1::basic_string_view<char, std::__ndk1::char_traits<char> >, geodeExecFunction10<(anonymous namespace)::ExecFuncUnique10>(geode::ModStateEvent*)::{lambda(double)#4}&&, geode::Mod*)::{lambda(std::__ndk1::shared_ptr<geode::SettingV3>)#1}>, void (std::__ndk1::shared_ptr<geode::SettingV3>)>::target_type() const
PUBLIC 4f73c 0 std::__ndk1::__function::__func<geode::listenForSettingChangesV3<double, geodeExecFunction10<(anonymous namespace)::ExecFuncUnique10>(geode::ModStateEvent*)::{lambda(double)#5}>(std::__ndk1::basic_string_view<char, std::__ndk1::char_traits<char> >, geodeExecFunction10<(anonymous namespace)::ExecFuncUnique10>(geode::ModStateEvent*)::{lambda(double)#5}&&, geode::Mod*)::{lambda(std::__ndk1::shared_ptr<geode::SettingV3>)#1}, std::__ndk1::allocator<geode::listenForSettingChangesV3<double, geodeExecFunction10<(anonymous namespace)::ExecFuncUnique10>(geode::ModStateEvent*)::{lambda(double)#5}>(std::__ndk1::basic_string_view<char, std::__ndk1::char_traits<char> >, geodeExecFunction10<(anonymous namespace)::ExecFuncUnique10>(geode::ModStateEvent*)::{lambda(double)#5}&&, geode::Mod*)::{lambda(std::__ndk1::shared_ptr<geode::SettingV3>)#1}>, void (std::__ndk1::shared_ptr<geode::SettingV3>)>::~__func()
PUBLIC 4f740 0 std::__ndk1::__function::__func<geode::listenForSettingChangesV3<double, geodeExecFunction10<(anonymous namespace)::ExecFuncUnique10>(geode::ModStateEvent*)::{lambda(double)#5}>(std::__ndk1::basic_string_view<char, std::__ndk1::char_traits<char> >, geodeExecFunction10<(anonymous namespace)::ExecFuncUnique10>(geode::ModStateEvent*)::{lambda(double)#5}&&, geode::Mod*)::{lambda(std::__ndk1::shared_ptr<geode::SettingV3>)#1}, std::__ndk1::allocator<geode::listenForSettingChangesV3<double, geodeExecFunction10<(anonymous namespace)::ExecFuncUnique10>(geode::ModStateEvent*)::{lambda(double)#5}>(std::__ndk1::basic_string_view<char, std::__ndk1::char_traits<char> >, geodeExecFunction10<(anonymous namespace)::ExecFuncUnique10>(geode::ModStateEvent*)::{lambda(double)#5}&&, geode::Mod*)::{lambda(std::__ndk1::shared_ptr<geode::SettingV3>)#1}>, void (std::__ndk1::shared_ptr<geode::SettingV3>)>::__clone() const
PUBLIC 4f778 0 std::__ndk1::__function::__func<geode::listenForSettingChangesV3<double, geodeExecFunction10<(anonymous namespace)::ExecFuncUnique10>(geode::ModStateEvent*)::{lambda(double)#5}>(std::__ndk1::basic_string_view<char, std::__ndk1::char_traits<char> >, geodeExecFunction10<(anonymous namespace)::ExecFuncUnique10>(geode::ModStateEvent*)::{lambda(double)#5}&&, geode::Mod*)::{lambda(std::__ndk1::shared_ptr<geode::SettingV3>)#1}, std::__ndk1::allocator<geode::listenForSettingChangesV3<double, geodeExecFunction10<(anonymous namespace)::ExecFuncUnique10>(geode::ModStateEvent*)::{lambda(double)#5}>(std::__ndk1::basic_string_view<char, std::__ndk1::char_traits<char> >, geodeExecFunction10<(anonymous namespace)::ExecFuncUnique10>(geode::ModStateEvent*)::{lambda(double)#5}&&, geode::Mod*)::{lambda(std::__ndk1::shared_ptr<geode::SettingV3>)#1}>, void (std::__ndk1::shared_ptr<geode::SettingV3>)>::__clone(std::__ndk1::__function::__base<void (std::__ndk1::shared_ptr<geode::SettingV3>)>*) const
PUBLIC 4f790 0 std::__ndk1::__function::__func<geode::listenForSettingChangesV3<double, geodeExecFunction10<(anonymous namespace)::ExecFuncUnique10>(geode::ModStateEvent*)::{lambda(double)#5}>(std::__ndk1::basic_string_view<char, std::__ndk1::char_traits<char> >, geodeExecFunction10<(anonymous namespace)::ExecFuncUnique10>(geode::ModStateEvent*)::{lambda(double)#5}&&, geode::Mod*)::{lambda(std::__ndk1::shared_ptr<geode::SettingV3>)#1}, std::__ndk1::allocator<geode::listenForSettingChangesV3<double, geodeExecFunction10<(anonymous namespace)::ExecFuncUnique10>(geode::ModStateEvent*)::{lambda(double)#5}>(std::__ndk1::basic_string_view<char, std::__ndk1::char_traits<char> >, geodeExecFunction10<(anonymous namespace)::ExecFuncUnique10>(geode::ModStateEvent*)::{lambda(double)#5}&&, geode::Mod*)::{lambda(std::__ndk1::shared_ptr<geode::SettingV3>)#1}>, void (std::__ndk1::shared_ptr<geode::SettingV3>)>::destroy()
PUBLIC 4f794 0 std::__ndk1::__function::__func<geode::listenForSettingChangesV3<double, geodeExecFunction10<(anonymous namespace)::ExecFuncUnique10>(geode::ModStateEvent*)::{lambda(double)#5}>(std::__ndk1::basic_string_view<char, std::__ndk1::char_traits<char> >, geodeExecFunction10<(anonymous namespace)::ExecFuncUnique10>(geode::ModStateEvent*)::{lambda(double)#5}&&, geode::Mod*)::{lambda(std::__ndk1::shared_ptr<geode::SettingV3>)#1}, std::__ndk1::allocator<geode::listenForSettingChangesV3<double, geodeExecFunction10<(anonymous namespace)::ExecFuncUnique10>(geode::ModStateEvent*)::{lambda(double)#5}>(std::__ndk1::basic_string_view<char, std::__ndk1::char_traits<char> >, geodeExecFunction10<(anonymous namespace)::ExecFuncUnique10>(geode::ModStateEvent*)::{lambda(double)#5}&&, geode::Mod*)::{lambda(std::__ndk1::shared_ptr<geode::SettingV3>)#1}>, void (std::__ndk1::shared_ptr<geode::SettingV3>)>::destroy_deallocate()
PUBLIC 4f798 0 std::__ndk1::__function::__func<geode::listenForSettingChangesV3<double, geodeExecFunction10<(anonymous namespace)::ExecFuncUnique10>(geode::ModStateEvent*)::{lambda(double)#5}>(std::__ndk1::basic_string_view<char, std::__ndk1::char_traits<char> >, geodeExecFunction10<(anonymous namespace)::ExecFuncUnique10>(geode::ModStateEvent*)::{lambda(double)#5}&&, geode::Mod*)::{lambda(std::__ndk1::shared_ptr<geode::SettingV3>)#1}, std::__ndk1::allocator<geode::listenForSettingChangesV3<double, geodeExecFunction10<(anonymous namespace)::ExecFuncUnique10>(geode::ModStateEvent*)::{lambda(double)#5}>(std::__ndk1::basic_string_view<char, std::__ndk1::char_traits<char> >, geodeExecFunction10<(anonymous namespace)::ExecFuncUnique10>(geode::ModStateEvent*)::{lambda(double)#5}&&, geode::Mod*)::{lambda(std::__ndk1::shared_ptr<geode::SettingV3>)#1}>, void (std::__ndk1::shared_ptr<geode::SettingV3>)>::operator()(std::__ndk1::shared_ptr<geode::SettingV3>&&)
PUBLIC 4f950 0 std::__ndk1::__function::__func<geode::listenForSettingChangesV3<double, geodeExecFunction10<(anonymous namespace)::ExecFuncUnique10>(geode::ModStateEvent*)::{lambda(double)#5}>(std::__ndk1::basic_string_view<char, std::__ndk1::char_traits<char> >, geodeExecFunction10<(anonymous namespace)::ExecFuncUnique10>(geode::ModStateEvent*)::{lambda(double)#5}&&, geode::Mod*)::{lambda(std::__ndk1::shared_ptr<geode::SettingV3>)#1}, std::__ndk1::allocator<geode::listenForSettingChangesV3<double, geodeExecFunction10<(anonymous namespace)::ExecFuncUnique10>(geode::ModStateEvent*)::{lambda(double)#5}>(std::__ndk1::basic_string_view<char, std::__ndk1::char_traits<char> >, geodeExecFunction10<(anonymous namespace)::ExecFuncUnique10>(geode::ModStateEvent*)::{lambda(double)#5}&&, geode::Mod*)::{lambda(std::__ndk1::shared_ptr<geode::SettingV3>)#1}>, void (std::__ndk1::shared_ptr<geode::SettingV3>)>::target(std::type_info const&) const
PUBLIC 4f96c 0 std::__ndk1::__function::__func<geode::listenForSettingChangesV3<double, geodeExecFunction10<(anonymous namespace)::ExecFuncUnique10>(geode::ModStateEvent*)::{lambda(double)#5}>(std::__ndk1::basic_string_view<char, std::__ndk1::char_traits<char> >, geodeExecFunction10<(anonymous namespace)::ExecFuncUnique10>(geode::ModStateEvent*)::{lambda(double)#5}&&, geode::Mod*)::{lambda(std::__ndk1::shared_ptr<geode::SettingV3>)#1}, std::__ndk1::allocator<geode::listenForSettingChangesV3<double, geodeExecFunction10<(anonymous namespace)::ExecFuncUnique10>(geode::ModStateEvent*)::{lambda(double)#5}>(std::__ndk1::basic_string_view<char, std::__ndk1::char_traits<char> >, geodeExecFunction10<(anonymous namespace)::ExecFuncUnique10>(geode::ModStateEvent*)::{lambda(double)#5}&&, geode::Mod*)::{lambda(std::__ndk1::shared_ptr<geode::SettingV3>)#1}>, void (std::__ndk1::shared_ptr<geode::SettingV3>)>::target_type() const
PUBLIC 4f978 0 std::__ndk1::__function::__func<geode::listenForSettingChangesV3<std::__ndk1::basic_string<char, std::__ndk1::char_traits<char>, std::__ndk1::allocator<char> >, geodeExecFunction10<(anonymous namespace)::ExecFuncUnique10>(geode::ModStateEvent*)::{lambda(std::__ndk1::basic_string<char, std::__ndk1::char_traits<char>, std::__ndk1::allocator<char> >)#1}>(std::__ndk1::basic_string_view<char, std::__ndk1::char_traits<char> >, geodeExecFunction10<(anonymous namespace)::ExecFuncUnique10>(geode::ModStateEvent*)::{lambda(std::__ndk1::basic_string<char, std::__ndk1::char_traits<char>, std::__ndk1::allocator<char> >&&)#1}, geode::Mod*)::{lambda(std::__ndk1::shared_ptr<geode::SettingV3>)#1}, std::__ndk1::allocator<geode::listenForSettingChangesV3<std::__ndk1::basic_string<char, std::__ndk1::char_traits<char>, std::__ndk1::allocator<char> >, geodeExecFunction10<(anonymous namespace)::ExecFuncUnique10>(geode::ModStateEvent*)::{lambda(std::__ndk1::basic_string<char, std::__ndk1::char_traits<char>, std::__ndk1::allocator<char> >)#1}>(std::__ndk1::basic_string_view<char, std::__ndk1::char_traits<char> >, geodeExecFunction10<(anonymous namespace)::ExecFuncUnique10>(geode::ModStateEvent*)::{lambda(std::__ndk1::basic_string<char, std::__ndk1::char_traits<char>, std::__ndk1::allocator<char> >&&)#1}, geode::Mod*)::{lambda(std::__ndk1::shared_ptr<geode::SettingV3>)#1}>, void (std::__ndk1::shared_ptr<geode::SettingV3>)>::~__func()
PUBLIC 4f97c 0 std::__ndk1::__function::__func<geode::listenForSettingChangesV3<std::__ndk1::basic_string<char, std::__ndk1::char_traits<char>, std::__ndk1::allocator<char> >, geodeExecFunction10<(anonymous namespace)::ExecFuncUnique10>(geode::ModStateEvent*)::{lambda(std::__ndk1::basic_string<char, std::__ndk1::char_traits<char>, std::__ndk1::allocator<char> >)#1}>(std::__ndk1::basic_string_view<char, std::__ndk1::char_traits<char> >, geodeExecFunction10<(anonymous namespace)::ExecFuncUnique10>(geode::ModStateEvent*)::{lambda(std::__ndk1::basic_string<char, std::__ndk1::char_traits<char>, std::__ndk1::allocator<char> >&&)#1}, geode::Mod*)::{lambda(std::__ndk1::shared_ptr<geode::SettingV3>)#1}, std::__ndk1::allocator<geode::listenForSettingChangesV3<std::__ndk1::basic_string<char, std::__ndk1::char_traits<char>, std::__ndk1::allocator<char> >, geodeExecFunction10<(anonymous namespace)::ExecFuncUnique10>(geode::ModStateEvent*)::{lambda(std::__ndk1::basic_string<char, std::__ndk1::char_traits<char>, std::__ndk1::allocator<char> >)#1}>(std::__ndk1::basic_string_view<char, std::__ndk1::char_traits<char> >, geodeExecFunction10<(anonymous namespace)::ExecFuncUnique10>(geode::ModStateEvent*)::{lambda(std::__ndk1::basic_string<char, std::__ndk1::char_traits<char>, std::__ndk1::allocator<char> >&&)#1}, geode::Mod*)::{lambda(std::__ndk1::shared_ptr<geode::SettingV3>)#1}>, void (std::__ndk1::shared_ptr<geode::SettingV3>)>::__clone() const
PUBLIC 4f9b4 0 std::__ndk1::__function::__func<geode::listenForSettingChangesV3<std::__ndk1::basic_string<char, std::__ndk1::char_traits<char>, std::__ndk1::allocator<char> >, geodeExecFunction10<(anonymous namespace)::ExecFuncUnique10>(geode::ModStateEvent*)::{lambda(std::__ndk1::basic_string<char, std::__ndk1::char_traits<char>, std::__ndk1::allocator<char> >)#1}>(std::__ndk1::basic_string_view<char, std::__ndk1::char_traits<char> >, geodeExecFunction10<(anonymous namespace)::ExecFuncUnique10>(geode::ModStateEvent*)::{lambda(std::__ndk1::basic_string<char, std::__ndk1::char_traits<char>, std::__ndk1::allocator<char> >&&)#1}, geode::Mod*)::{lambda(std::__ndk1::shared_ptr<geode::SettingV3>)#1}, std::__ndk1::allocator<geode::listenForSettingChangesV3<std::__ndk1::basic_string<char, std::__ndk1::char_traits<char>, std::__ndk1::allocator<char> >, geodeExecFunction10<(anonymous namespace)::ExecFuncUnique10>(geode::ModStateEvent*)::{lambda(std::__ndk1::basic_string<char, std::__ndk1::char_traits<char>, std::__ndk1::allocator<char> >)#1}>(std::__ndk1::basic_string_view<char, std::__ndk1::char_traits<char> >, geodeExecFunction10<(anonymous namespace)::ExecFuncUnique10>(geode::ModStateEvent*)::{lambda(std::__ndk1::basic_string<char, std::__ndk1::char_traits<char>, std::__ndk1::allocator<char> >&&)#1}, geode::Mod*)::{lambda(std::__ndk1::shared_ptr<geode::SettingV3>)#1}>, void (std::__ndk1::shared_ptr<geode::SettingV3>)>::__clone(std::__ndk1::__function::__base<void (std::__ndk1::shared_ptr<geode::SettingV3>)>*) const
PUBLIC 4f9cc 0 std::__ndk1::__function::__func<geode::listenForSettingChangesV3<std::__ndk1::basic_string<char, std::__ndk1::char_traits<char>, std::__ndk1::allocator<char> >, geodeExecFunction10<(anonymous namespace)::ExecFuncUnique10>(geode::ModStateEvent*)::{lambda(std::__ndk1::basic_string<char, std::__ndk1::char_traits<char>, std::__ndk1::allocator<char> >)#1}>(std::__ndk1::basic_string_view<char, std::__ndk1::char_traits<char> >, geodeExecFunction10<(anonymous namespace)::ExecFuncUnique10>(geode::ModStateEvent*)::{lambda(std::__ndk1::basic_string<char, std::__ndk1::char_traits<char>, std::__ndk1::allocator<char> >&&)#1}, geode::Mod*)::{lambda(std::__ndk1::shared_ptr<geode::SettingV3>)#1}, std::__ndk1::allocator<geode::listenForSettingChangesV3<std::__ndk1::basic_string<char, std::__ndk1::char_traits<char>, std::__ndk1::allocator<char> >, geodeExecFunction10<(anonymous namespace)::ExecFuncUnique10>(geode::ModStateEvent*)::{lambda(std::__ndk1::basic_string<char, std::__ndk1::char_traits<char>, std::__ndk1::allocator<char> >)#1}>(std::__ndk1::basic_string_view<char, std::__ndk1::char_traits<char> >, geodeExecFunction10<(anonymous namespace)::ExecFuncUnique10>(geode::ModStateEvent*)::{lambda(std::__ndk1::basic_string<char, std::__ndk1::char_traits<char>, std::__ndk1::allocator<char> >&&)#1}, geode::Mod*)::{lambda(std::__ndk1::shared_ptr<geode::SettingV3>)#1}>, void (std::__ndk1::shared_ptr<geode::SettingV3>)>::destroy()
PUBLIC 4f9d0 0 std::__ndk1::__function::__func<geode::listenForSettingChangesV3<std::__ndk1::basic_string<char, std::__ndk1::char_traits<char>, std::__ndk1::allocator<char> >, geodeExecFunction10<(anonymous namespace)::ExecFuncUnique10>(geode::ModStateEvent*)::{lambda(std::__ndk1::basic_string<char, std::__ndk1::char_traits<char>, std::__ndk1::allocator<char> >)#1}>(std::__ndk1::basic_string_view<char, std::__ndk1::char_traits<char> >, geodeExecFunction10<(anonymous namespace)::ExecFuncUnique10>(geode::ModStateEvent*)::{lambda(std::__ndk1::basic_string<char, std::__ndk1::char_traits<char>, std::__ndk1::allocator<char> >&&)#1}, geode::Mod*)::{lambda(std::__ndk1::shared_ptr<geode::SettingV3>)#1}, std::__ndk1::allocator<geode::listenForSettingChangesV3<std::__ndk1::basic_string<char, std::__ndk1::char_traits<char>, std::__ndk1::allocator<char> >, geodeExecFunction10<(anonymous namespace)::ExecFuncUnique10>(geode::ModStateEvent*)::{lambda(std::__ndk1::basic_string<char, std::__ndk1::char_traits<char>, std::__ndk1::allocator<char> >)#1}>(std::__ndk1::basic_string_view<char, std::__ndk1::char_traits<char> >, geodeExecFunction10<(anonymous namespace)::ExecFuncUnique10>(geode::ModStateEvent*)::{lambda(std::__ndk1::basic_string<char, std::__ndk1::char_traits<char>, std::__ndk1::allocator<char> >&&)#1}, geode::Mod*)::{lambda(std::__ndk1::shared_ptr<geode::SettingV3>)#1}>, void (std::__ndk1::shared_ptr<geode::SettingV3>)>::destroy_deallocate()
PUBLIC 4f9d4 0 std::__ndk1::__function::__func<geode::listenForSettingChangesV3<std::__ndk1::basic_string<char, std::__ndk1::char_traits<char>, std::__ndk1::allocator<char> >, geodeExecFunction10<(anonymous namespace)::ExecFuncUnique10>(geode::ModStateEvent*)::{lambda(std::__ndk1::basic_string<char, std::__ndk1::char_traits<char>, std::__ndk1::allocator<char> >)#1}>(std::__ndk1::basic_string_view<char, std::__ndk1::char_traits<char> >, geodeExecFunction10<(anonymous namespace)::ExecFuncUnique10>(geode::ModStateEvent*)::{lambda(std::__ndk1::basic_string<char, std::__ndk1::char_traits<char>, std::__ndk1::allocator<char> >&&)#1}, geode::Mod*)::{lambda(std::__ndk1::shared_ptr<geode::SettingV3>)#1}, std::__ndk1::allocator<geode::listenForSettingChangesV3<std::__ndk1::basic_string<char, std::__ndk1::char_traits<char>, std::__ndk1::allocator<char> >, geodeExecFunction10<(anonymous namespace)::ExecFuncUnique10>(geode::ModStateEvent*)::{lambda(std::__ndk1::basic_string<char, std::__ndk1::char_traits<char>, std::__ndk1::allocator<char> >)#1}>(std::__ndk1::basic_string_view<char, std::__ndk1::char_traits<char> >, geodeExecFunction10<(anonymous namespace)::ExecFuncUnique10>(geode::ModStateEvent*)::{lambda(std::__ndk1::basic_string<char, std::__ndk1::char_traits<char>, std::__ndk1::allocator<char> >&&)#1}, geode::Mod*)::{lambda(std::__ndk1::shared_ptr<geode::SettingV3>)#1}>, void (std::__ndk1::shared_ptr<geode::SettingV3>)>::operator()(std::__ndk1::shared_ptr<geode::SettingV3>&&)
PUBLIC 4fbf8 0 std::__ndk1::__function::__func<geode::listenForSettingChangesV3<std::__ndk1::basic_string<char, std::__ndk1::char_traits<char>, std::__ndk1::allocator<char> >, geodeExecFunction10<(anonymous namespace)::ExecFuncUnique10>(geode::ModStateEvent*)::{lambda(std::__ndk1::basic_string<char, std::__ndk1::char_traits<char>, std::__ndk1::allocator<char> >)#1}>(std::__ndk1::basic_string_view<char, std::__ndk1::char_traits<char> >, geodeExecFunction10<(anonymous namespace)::ExecFuncUnique10>(geode::ModStateEvent*)::{lambda(std::__ndk1::basic_string<char, std::__ndk1::char_traits<char>, std::__ndk1::allocator<char> >&&)#1}, geode::Mod*)::{lambda(std::__ndk1::shared_ptr<geode::SettingV3>)#1}, std::__ndk1::allocator<geode::listenForSettingChangesV3<std::__ndk1::basic_string<char, std::__ndk1::char_traits<char>, std::__ndk1::allocator<char> >, geodeExecFunction10<(anonymous namespace)::ExecFuncUnique10>(geode::ModStateEvent*)::{lambda(std::__ndk1::basic_string<char, std::__ndk1::char_traits<char>, std::__ndk1::allocator<char> >)#1}>(std::__ndk1::basic_string_view<char, std::__ndk1::char_traits<char> >, geodeExecFunction10<(anonymous namespace)::ExecFuncUnique10>(geode::ModStateEvent*)::{lambda(std::__ndk1::basic_string<char, std::__ndk1::char_traits<char>, std::__ndk1::allocator<char> >&&)#1}, geode::Mod*)::{lambda(std::__ndk1::shared_ptr<geode::SettingV3>)#1}>, void (std::__ndk1::shared_ptr<geode::SettingV3>)>::target(std::type_info const&) const
PUBLIC 4fc14 0 std::__ndk1::__function::__func<geode::listenForSettingChangesV3<std::__ndk1::basic_string<char, std::__ndk1::char_traits<char>, std::__ndk1::allocator<char> >, geodeExecFunction10<(anonymous namespace)::ExecFuncUnique10>(geode::ModStateEvent*)::{lambda(std::__ndk1::basic_string<char, std::__ndk1::char_traits<char>, std::__ndk1::allocator<char> >)#1}>(std::__ndk1::basic_string_view<char, std::__ndk1::char_traits<char> >, geodeExecFunction10<(anonymous namespace)::ExecFuncUnique10>(geode::ModStateEvent*)::{lambda(std::__ndk1::basic_string<char, std::__ndk1::char_traits<char>, std::__ndk1::allocator<char> >&&)#1}, geode::Mod*)::{lambda(std::__ndk1::shared_ptr<geode::SettingV3>)#1}, std::__ndk1::allocator<geode::listenForSettingChangesV3<std::__ndk1::basic_string<char, std::__ndk1::char_traits<char>, std::__ndk1::allocator<char> >, geodeExecFunction10<(anonymous namespace)::ExecFuncUnique10>(geode::ModStateEvent*)::{lambda(std::__ndk1::basic_string<char, std::__ndk1::char_traits<char>, std::__ndk1::allocator<char> >)#1}>(std::__ndk1::basic_string_view<char, std::__ndk1::char_traits<char> >, geodeExecFunction10<(anonymous namespace)::ExecFuncUnique10>(geode::ModStateEvent*)::{lambda(std::__ndk1::basic_string<char, std::__ndk1::char_traits<char>, std::__ndk1::allocator<char> >&&)#1}, geode::Mod*)::{lambda(std::__ndk1::shared_ptr<geode::SettingV3>)#1}>, void (std::__ndk1::shared_ptr<geode::SettingV3>)>::target_type() const
PUBLIC 4fc20 0 std::__ndk1::__function::__func<geode::listenForSettingChangesV3<std::__ndk1::basic_string<char, std::__ndk1::char_traits<char>, std::__ndk1::allocator<char> >, geodeExecFunction10<(anonymous namespace)::ExecFuncUnique10>(geode::ModStateEvent*)::{lambda(std::__ndk1::basic_string<char, std::__ndk1::char_traits<char>, std::__ndk1::allocator<char> >)#2}>(std::__ndk1::basic_string_view<char, std::__ndk1::char_traits<char> >, geodeExecFunction10<(anonymous namespace)::ExecFuncUnique10>(geode::ModStateEvent*)::{lambda(std::__ndk1::basic_string<char, std::__ndk1::char_traits<char>, std::__ndk1::allocator<char> >&&)#2}, geode::Mod*)::{lambda(std::__ndk1::shared_ptr<geode::SettingV3>)#1}, std::__ndk1::allocator<geode::listenForSettingChangesV3<std::__ndk1::basic_string<char, std::__ndk1::char_traits<char>, std::__ndk1::allocator<char> >, geodeExecFunction10<(anonymous namespace)::ExecFuncUnique10>(geode::ModStateEvent*)::{lambda(std::__ndk1::basic_string<char, std::__ndk1::char_traits<char>, std::__ndk1::allocator<char> >)#2}>(std::__ndk1::basic_string_view<char, std::__ndk1::char_traits<char> >, geodeExecFunction10<(anonymous namespace)::ExecFuncUnique10>(geode::ModStateEvent*)::{lambda(std::__ndk1::basic_string<char, std::__ndk1::char_traits<char>, std::__ndk1::allocator<char> >&&)#2}, geode::Mod*)::{lambda(std::__ndk1::shared_ptr<geode::SettingV3>)#1}>, void (std::__ndk1::shared_ptr<geode::SettingV3>)>::~__func()
PUBLIC 4fc24 0 std::__ndk1::__function::__func<geode::listenForSettingChangesV3<std::__ndk1::basic_string<char, std::__ndk1::char_traits<char>, std::__ndk1::allocator<char> >, geodeExecFunction10<(anonymous namespace)::ExecFuncUnique10>(geode::ModStateEvent*)::{lambda(std::__ndk1::basic_string<char, std::__ndk1::char_traits<char>, std::__ndk1::allocator<char> >)#2}>(std::__ndk1::basic_string_view<char, std::__ndk1::char_traits<char> >, geodeExecFunction10<(anonymous namespace)::ExecFuncUnique10>(geode::ModStateEvent*)::{lambda(std::__ndk1::basic_string<char, std::__ndk1::char_traits<char>, std::__ndk1::allocator<char> >&&)#2}, geode::Mod*)::{lambda(std::__ndk1::shared_ptr<geode::SettingV3>)#1}, std::__ndk1::allocator<geode::listenForSettingChangesV3<std::__ndk1::basic_string<char, std::__ndk1::char_traits<char>, std::__ndk1::allocator<char> >, geodeExecFunction10<(anonymous namespace)::ExecFuncUnique10>(geode::ModStateEvent*)::{lambda(std::__ndk1::basic_string<char, std::__ndk1::char_traits<char>, std::__ndk1::allocator<char> >)#2}>(std::__ndk1::basic_string_view<char, std::__ndk1::char_traits<char> >, geodeExecFunction10<(anonymous namespace)::ExecFuncUnique10>(geode::ModStateEvent*)::{lambda(std::__ndk1::basic_string<char, std::__ndk1::char_traits<char>, std::__ndk1::allocator<char> >&&)#2}, geode::Mod*)::{lambda(std::__ndk1::shared_ptr<geode::SettingV3>)#1}>, void (std::__ndk1::shared_ptr<geode::SettingV3>)>::__clone() const
PUBLIC 4fc5c 0 std::__ndk1::__function::__func<geode::listenForSettingChangesV3<std::__ndk1::basic_string<char, std::__ndk1::char_traits<char>, std::__ndk1::allocator<char> >, geodeExecFunction10<(anonymous namespace)::ExecFuncUnique10>(geode::ModStateEvent*)::{lambda(std::__ndk1::basic_string<char, std::__ndk1::char_traits<char>, std::__ndk1::allocator<char> >)#2}>(std::__ndk1::basic_string_view<char, std::__ndk1::char_traits<char> >, geodeExecFunction10<(anonymous namespace)::ExecFuncUnique10>(geode::ModStateEvent*)::{lambda(std::__ndk1::basic_string<char, std::__ndk1::char_traits<char>, std::__ndk1::allocator<char> >&&)#2}, geode::Mod*)::{lambda(std::__ndk1::shared_ptr<geode::SettingV3>)#1}, std::__ndk1::allocator<geode::listenForSettingChangesV3<std::__ndk1::basic_string<char, std::__ndk1::char_traits<char>, std::__ndk1::allocator<char> >, geodeExecFunction10<(anonymous namespace)::ExecFuncUnique10>(geode::ModStateEvent*)::{lambda(std::__ndk1::basic_string<char, std::__ndk1::char_traits<char>, std::__ndk1::allocator<char> >)#2}>(std::__ndk1::basic_string_view<char, std::__ndk1::char_traits<char> >, geodeExecFunction10<(anonymous namespace)::ExecFuncUnique10>(geode::ModStateEvent*)::{lambda(std::__ndk1::basic_string<char, std::__ndk1::char_traits<char>, std::__ndk1::allocator<char> >&&)#2}, geode::Mod*)::{lambda(std::__ndk1::shared_ptr<geode::SettingV3>)#1}>, void (std::__ndk1::shared_ptr<geode::SettingV3>)>::__clone(std::__ndk1::__function::__base<void (std::__ndk1::shared_ptr<geode::SettingV3>)>*) const
PUBLIC 4fc74 0 std::__ndk1::__function::__func<geode::listenForSettingChangesV3<std::__ndk1::basic_string<char, std::__ndk1::char_traits<char>, std::__ndk1::allocator<char> >, geodeExecFunction10<(anonymous namespace)::ExecFuncUnique10>(geode::ModStateEvent*)::{lambda(std::__ndk1::basic_string<char, std::__ndk1::char_traits<char>, std::__ndk1::allocator<char> >)#2}>(std::__ndk1::basic_string_view<char, std::__ndk1::char_traits<char> >, geodeExecFunction10<(anonymous namespace)::ExecFuncUnique10>(geode::ModStateEvent*)::{lambda(std::__ndk1::basic_string<char, std::__ndk1::char_traits<char>, std::__ndk1::allocator<char> >&&)#2}, geode::Mod*)::{lambda(std::__ndk1::shared_ptr<geode::SettingV3>)#1}, std::__ndk1::allocator<geode::listenForSettingChangesV3<std::__ndk1::basic_string<char, std::__ndk1::char_traits<char>, std::__ndk1::allocator<char> >, geodeExecFunction10<(anonymous namespace)::ExecFuncUnique10>(geode::ModStateEvent*)::{lambda(std::__ndk1::basic_string<char, std::__ndk1::char_traits<char>, std::__ndk1::allocator<char> >)#2}>(std::__ndk1::basic_string_view<char, std::__ndk1::char_traits<char> >, geodeExecFunction10<(anonymous namespace)::ExecFuncUnique10>(geode::ModStateEvent*)::{lambda(std::__ndk1::basic_string<char, std::__ndk1::char_traits<char>, std::__ndk1::allocator<char> >&&)#2}, geode::Mod*)::{lambda(std::__ndk1::shared_ptr<geode::SettingV3>)#1}>, void (std::__ndk1::shared_ptr<geode::SettingV3>)>::destroy()
PUBLIC 4fc78 0 std::__ndk1::__function::__func<geode::listenForSettingChangesV3<std::__ndk1::basic_string<char, std::__ndk1::char_traits<char>, std::__ndk1::allocator<char> >, geodeExecFunction10<(anonymous namespace)::ExecFuncUnique10>(geode::ModStateEvent*)::{lambda(std::__ndk1::basic_string<char, std::__ndk1::char_traits<char>, std::__ndk1::allocator<char> >)#2}>(std::__ndk1::basic_string_view<char, std::__ndk1::char_traits<char> >, geodeExecFunction10<(anonymous namespace)::ExecFuncUnique10>(geode::ModStateEvent*)::{lambda(std::__ndk1::basic_string<char, std::__ndk1::char_traits<char>, std::__ndk1::allocator<char> >&&)#2}, geode::Mod*)::{lambda(std::__ndk1::shared_ptr<geode::SettingV3>)#1}, std::__ndk1::allocator<geode::listenForSettingChangesV3<std::__ndk1::basic_string<char, std::__ndk1::char_traits<char>, std::__ndk1::allocator<char> >, geodeExecFunction10<(anonymous namespace)::ExecFuncUnique10>(geode::ModStateEvent*)::{lambda(std::__ndk1::basic_string<char, std::__ndk1::char_traits<char>, std::__ndk1::allocator<char> >)#2}>(std::__ndk1::basic_string_view<char, std::__ndk1::char_traits<char> >, geodeExecFunction10<(anonymous namespace)::ExecFuncUnique10>(geode::ModStateEvent*)::{lambda(std::__ndk1::basic_string<char, std::__ndk1::char_traits<char>, std::__ndk1::allocator<char> >&&)#2}, geode::Mod*)::{lambda(std::__ndk1::shared_ptr<geode::SettingV3>)#1}>, void (std::__ndk1::shared_ptr<geode::SettingV3>)>::destroy_deallocate()
PUBLIC 4fc7c 0 std::__ndk1::__function::__func<geode::listenForSettingChangesV3<std::__ndk1::basic_string<char, std::__ndk1::char_traits<char>, std::__ndk1::allocator<char> >, geodeExecFunction10<(anonymous namespace)::ExecFuncUnique10>(geode::ModStateEvent*)::{lambda(std::__ndk1::basic_string<char, std::__ndk1::char_traits<char>, std::__ndk1::allocator<char> >)#2}>(std::__ndk1::basic_string_view<char, std::__ndk1::char_traits<char> >, geodeExecFunction10<(anonymous namespace)::ExecFuncUnique10>(geode::ModStateEvent*)::{lambda(std::__ndk1::basic_string<char, std::__ndk1::char_traits<char>, std::__ndk1::allocator<char> >&&)#2}, geode::Mod*)::{lambda(std::__ndk1::shared_ptr<geode::SettingV3>)#1}, std::__ndk1::allocator<geode::listenForSettingChangesV3<std::__ndk1::basic_string<char, std::__ndk1::char_traits<char>, std::__ndk1::allocator<char> >, geodeExecFunction10<(anonymous namespace)::ExecFuncUnique10>(geode::ModStateEvent*)::{lambda(std::__ndk1::basic_string<char, std::__ndk1::char_traits<char>, std::__ndk1::allocator<char> >)#2}>(std::__ndk1::basic_string_view<char, std::__ndk1::char_traits<char> >, geodeExecFunction10<(anonymous namespace)::ExecFuncUnique10>(geode::ModStateEvent*)::{lambda(std::__ndk1::basic_string<char, std::__ndk1::char_traits<char>, std::__ndk1::allocator<char> >&&)#2}, geode::Mod*)::{lambda(std::__ndk1::shared_ptr<geode::SettingV3>)#1}>, void (std::__ndk1::shared_ptr<geode::SettingV3>)>::operator()(std::__ndk1::shared_ptr<geode::SettingV3>&&)
PUBLIC 4fe70 0 std::__ndk1::__function::__func<geode::listenForSettingChangesV3<std::__ndk1::basic_string<char, std::__ndk1::char_traits<char>, std::__ndk1::allocator<char> >, geodeExecFunction10<(anonymous namespace)::ExecFuncUnique10>(geode::ModStateEvent*)::{lambda(std::__ndk1::basic_string<char, std::__ndk1::char_traits<char>, std::__ndk1::allocator<char> >)#2}>(std::__ndk1::basic_string_view<char, std::__ndk1::char_traits<char> >, geodeExecFunction10<(anonymous namespace)::ExecFuncUnique10>(geode::ModStateEvent*)::{lambda(std::__ndk1::basic_string<char, std::__ndk1::char_traits<char>, std::__ndk1::allocator<char> >&&)#2}, geode::Mod*)::{lambda(std::__ndk1::shared_ptr<geode::SettingV3>)#1}, std::__ndk1::allocator<geode::listenForSettingChangesV3<std::__ndk1::basic_string<char, std::__ndk1::char_traits<char>, std::__ndk1::allocator<char> >, geodeExecFunction10<(anonymous namespace)::ExecFuncUnique10>(geode::ModStateEvent*)::{lambda(std::__ndk1::basic_string<char, std::__ndk1::char_traits<char>, std::__ndk1::allocator<char> >)#2}>(std::__ndk1::basic_string_view<char, std::__ndk1::char_traits<char> >, geodeExecFunction10<(anonymous namespace)::ExecFuncUnique10>(geode::ModStateEvent*)::{lambda(std::__ndk1::basic_string<char, std::__ndk1::char_traits<char>, std::__ndk1::allocator<char> >&&)#2}, geode::Mod*)::{lambda(std::__ndk1::shared_ptr<geode::SettingV3>)#1}>, void (std::__ndk1::shared_ptr<geode::SettingV3>)>::target(std::type_info const&) const
PUBLIC 4fe8c 0 std::__ndk1::__function::__func<geode::listenForSettingChangesV3<std::__ndk1::basic_string<char, std::__ndk1::char_traits<char>, std::__ndk1::allocator<char> >, geodeExecFunction10<(anonymous namespace)::ExecFuncUnique10>(geode::ModStateEvent*)::{lambda(std::__ndk1::basic_string<char, std::__ndk1::char_traits<char>, std::__ndk1::allocator<char> >)#2}>(std::__ndk1::basic_string_view<char, std::__ndk1::char_traits<char> >, geodeExecFunction10<(anonymous namespace)::ExecFuncUnique10>(geode::ModStateEvent*)::{lambda(std::__ndk1::basic_string<char, std::__ndk1::char_traits<char>, std::__ndk1::allocator<char> >&&)#2}, geode::Mod*)::{lambda(std::__ndk1::shared_ptr<geode::SettingV3>)#1}, std::__ndk1::allocator<geode::listenForSettingChangesV3<std::__ndk1::basic_string<char, std::__ndk1::char_traits<char>, std::__ndk1::allocator<char> >, geodeExecFunction10<(anonymous namespace)::ExecFuncUnique10>(geode::ModStateEvent*)::{lambda(std::__ndk1::basic_string<char, std::__ndk1::char_traits<char>, std::__ndk1::allocator<char> >)#2}>(std::__ndk1::basic_string_view<char, std::__ndk1::char_traits<char> >, geodeExecFunction10<(anonymous namespace)::ExecFuncUnique10>(geode::ModStateEvent*)::{lambda(std::__ndk1::basic_string<char, std::__ndk1::char_traits<char>, std::__ndk1::allocator<char> >&&)#2}, geode::Mod*)::{lambda(std::__ndk1::shared_ptr<geode::SettingV3>)#1}>, void (std::__ndk1::shared_ptr<geode::SettingV3>)>::target_type() const
PUBLIC 4fe98 0 std::__ndk1::__function::__func<geode::listenForSettingChangesV3<cocos2d::_ccColor4B, geodeExecFunction10<(anonymous namespace)::ExecFuncUnique10>(geode::ModStateEvent*)::{lambda(cocos2d::_ccColor4B)#1}>(std::__ndk1::basic_string_view<char, std::__ndk1::char_traits<char> >, geodeExecFunction10<(anonymous namespace)::ExecFuncUnique10>(geode::ModStateEvent*)::{lambda(cocos2d::_ccColor4B&&)#1}, geode::Mod*)::{lambda(std::__ndk1::shared_ptr<geode::SettingV3>)#1}, std::__ndk1::allocator<geode::listenForSettingChangesV3<cocos2d::_ccColor4B, geodeExecFunction10<(anonymous namespace)::ExecFuncUnique10>(geode::ModStateEvent*)::{lambda(cocos2d::_ccColor4B)#1}>(std::__ndk1::basic_string_view<char, std::__ndk1::char_traits<char> >, geodeExecFunction10<(anonymous namespace)::ExecFuncUnique10>(geode::ModStateEvent*)::{lambda(cocos2d::_ccColor4B&&)#1}, geode::Mod*)::{lambda(std::__ndk1::shared_ptr<geode::SettingV3>)#1}>, void (std::__ndk1::shared_ptr<geode::SettingV3>)>::~__func()
PUBLIC 4fe9c 0 std::__ndk1::__function::__func<geode::listenForSettingChangesV3<cocos2d::_ccColor4B, geodeExecFunction10<(anonymous namespace)::ExecFuncUnique10>(geode::ModStateEvent*)::{lambda(cocos2d::_ccColor4B)#1}>(std::__ndk1::basic_string_view<char, std::__ndk1::char_traits<char> >, geodeExecFunction10<(anonymous namespace)::ExecFuncUnique10>(geode::ModStateEvent*)::{lambda(cocos2d::_ccColor4B&&)#1}, geode::Mod*)::{lambda(std::__ndk1::shared_ptr<geode::SettingV3>)#1}, std::__ndk1::allocator<geode::listenForSettingChangesV3<cocos2d::_ccColor4B, geodeExecFunction10<(anonymous namespace)::ExecFuncUnique10>(geode::ModStateEvent*)::{lambda(cocos2d::_ccColor4B)#1}>(std::__ndk1::basic_string_view<char, std::__ndk1::char_traits<char> >, geodeExecFunction10<(anonymous namespace)::ExecFuncUnique10>(geode::ModStateEvent*)::{lambda(cocos2d::_ccColor4B&&)#1}, geode::Mod*)::{lambda(std::__ndk1::shared_ptr<geode::SettingV3>)#1}>, void (std::__ndk1::shared_ptr<geode::SettingV3>)>::__clone() const
PUBLIC 4fed4 0 std::__ndk1::__function::__func<geode::listenForSettingChangesV3<cocos2d::_ccColor4B, geodeExecFunction10<(anonymous namespace)::ExecFuncUnique10>(geode::ModStateEvent*)::{lambda(cocos2d::_ccColor4B)#1}>(std::__ndk1::basic_string_view<char, std::__ndk1::char_traits<char> >, geodeExecFunction10<(anonymous namespace)::ExecFuncUnique10>(geode::ModStateEvent*)::{lambda(cocos2d::_ccColor4B&&)#1}, geode::Mod*)::{lambda(std::__ndk1::shared_ptr<geode::SettingV3>)#1}, std::__ndk1::allocator<geode::listenForSettingChangesV3<cocos2d::_ccColor4B, geodeExecFunction10<(anonymous namespace)::ExecFuncUnique10>(geode::ModStateEvent*)::{lambda(cocos2d::_ccColor4B)#1}>(std::__ndk1::basic_string_view<char, std::__ndk1::char_traits<char> >, geodeExecFunction10<(anonymous namespace)::ExecFuncUnique10>(geode::ModStateEvent*)::{lambda(cocos2d::_ccColor4B&&)#1}, geode::Mod*)::{lambda(std::__ndk1::shared_ptr<geode::SettingV3>)#1}>, void (std::__ndk1::shared_ptr<geode::SettingV3>)>::__clone(std::__ndk1::__function::__base<void (std::__ndk1::shared_ptr<geode::SettingV3>)>*) const
PUBLIC 4feec 0 std::__ndk1::__function::__func<geode::listenForSettingChangesV3<cocos2d::_ccColor4B, geodeExecFunction10<(anonymous namespace)::ExecFuncUnique10>(geode::ModStateEvent*)::{lambda(cocos2d::_ccColor4B)#1}>(std::__ndk1::basic_string_view<char, std::__ndk1::char_traits<char> >, geodeExecFunction10<(anonymous namespace)::ExecFuncUnique10>(geode::ModStateEvent*)::{lambda(cocos2d::_ccColor4B&&)#1}, geode::Mod*)::{lambda(std::__ndk1::shared_ptr<geode::SettingV3>)#1}, std::__ndk1::allocator<geode::listenForSettingChangesV3<cocos2d::_ccColor4B, geodeExecFunction10<(anonymous namespace)::ExecFuncUnique10>(geode::ModStateEvent*)::{lambda(cocos2d::_ccColor4B)#1}>(std::__ndk1::basic_string_view<char, std::__ndk1::char_traits<char> >, geodeExecFunction10<(anonymous namespace)::ExecFuncUnique10>(geode::ModStateEvent*)::{lambda(cocos2d::_ccColor4B&&)#1}, geode::Mod*)::{lambda(std::__ndk1::shared_ptr<geode::SettingV3>)#1}>, void (std::__ndk1::shared_ptr<geode::SettingV3>)>::destroy()
PUBLIC 4fef0 0 std::__ndk1::__function::__func<geode::listenForSettingChangesV3<cocos2d::_ccColor4B, geodeExecFunction10<(anonymous namespace)::ExecFuncUnique10>(geode::ModStateEvent*)::{lambda(cocos2d::_ccColor4B)#1}>(std::__ndk1::basic_string_view<char, std::__ndk1::char_traits<char> >, geodeExecFunction10<(anonymous namespace)::ExecFuncUnique10>(geode::ModStateEvent*)::{lambda(cocos2d::_ccColor4B&&)#1}, geode::Mod*)::{lambda(std::__ndk1::shared_ptr<geode::SettingV3>)#1}, std::__ndk1::allocator<geode::listenForSettingChangesV3<cocos2d::_ccColor4B, geodeExecFunction10<(anonymous namespace)::ExecFuncUnique10>(geode::ModStateEvent*)::{lambda(cocos2d::_ccColor4B)#1}>(std::__ndk1::basic_string_view<char, std::__ndk1::char_traits<char> >, geodeExecFunction10<(anonymous namespace)::ExecFuncUnique10>(geode::ModStateEvent*)::{lambda(cocos2d::_ccColor4B&&)#1}, geode::Mod*)::{lambda(std::__ndk1::shared_ptr<geode::SettingV3>)#1}>, void (std::__ndk1::shared_ptr<geode::SettingV3>)>::destroy_deallocate()
PUBLIC 4fef4 0 std::__ndk1::__function::__func<geode::listenForSettingChangesV3<cocos2d::_ccColor4B, geodeExecFunction10<(anonymous namespace)::ExecFuncUnique10>(geode::ModStateEvent*)::{lambda(cocos2d::_ccColor4B)#1}>(std::__ndk1::basic_string_view<char, std::__ndk1::char_traits<char> >, geodeExecFunction10<(anonymous namespace)::ExecFuncUnique10>(geode::ModStateEvent*)::{lambda(cocos2d::_ccColor4B&&)#1}, geode::Mod*)::{lambda(std::__ndk1::shared_ptr<geode::SettingV3>)#1}, std::__ndk1::allocator<geode::listenForSettingChangesV3<cocos2d::_ccColor4B, geodeExecFunction10<(anonymous namespace)::ExecFuncUnique10>(geode::ModStateEvent*)::{lambda(cocos2d::_ccColor4B)#1}>(std::__ndk1::basic_string_view<char, std::__ndk1::char_traits<char> >, geodeExecFunction10<(anonymous namespace)::ExecFuncUnique10>(geode::ModStateEvent*)::{lambda(cocos2d::_ccColor4B&&)#1}, geode::Mod*)::{lambda(std::__ndk1::shared_ptr<geode::SettingV3>)#1}>, void (std::__ndk1::shared_ptr<geode::SettingV3>)>::operator()(std::__ndk1::shared_ptr<geode::SettingV3>&&)
PUBLIC 50098 0 std::__ndk1::__function::__func<geode::listenForSettingChangesV3<cocos2d::_ccColor4B, geodeExecFunction10<(anonymous namespace)::ExecFuncUnique10>(geode::ModStateEvent*)::{lambda(cocos2d::_ccColor4B)#1}>(std::__ndk1::basic_string_view<char, std::__ndk1::char_traits<char> >, geodeExecFunction10<(anonymous namespace)::ExecFuncUnique10>(geode::ModStateEvent*)::{lambda(cocos2d::_ccColor4B&&)#1}, geode::Mod*)::{lambda(std::__ndk1::shared_ptr<geode::SettingV3>)#1}, std::__ndk1::allocator<geode::listenForSettingChangesV3<cocos2d::_ccColor4B, geodeExecFunction10<(anonymous namespace)::ExecFuncUnique10>(geode::ModStateEvent*)::{lambda(cocos2d::_ccColor4B)#1}>(std::__ndk1::basic_string_view<char, std::__ndk1::char_traits<char> >, geodeExecFunction10<(anonymous namespace)::ExecFuncUnique10>(geode::ModStateEvent*)::{lambda(cocos2d::_ccColor4B&&)#1}, geode::Mod*)::{lambda(std::__ndk1::shared_ptr<geode::SettingV3>)#1}>, void (std::__ndk1::shared_ptr<geode::SettingV3>)>::target(std::type_info const&) const
PUBLIC 500b4 0 std::__ndk1::__function::__func<geode::listenForSettingChangesV3<cocos2d::_ccColor4B, geodeExecFunction10<(anonymous namespace)::ExecFuncUnique10>(geode::ModStateEvent*)::{lambda(cocos2d::_ccColor4B)#1}>(std::__ndk1::basic_string_view<char, std::__ndk1::char_traits<char> >, geodeExecFunction10<(anonymous namespace)::ExecFuncUnique10>(geode::ModStateEvent*)::{lambda(cocos2d::_ccColor4B&&)#1}, geode::Mod*)::{lambda(std::__ndk1::shared_ptr<geode::SettingV3>)#1}, std::__ndk1::allocator<geode::listenForSettingChangesV3<cocos2d::_ccColor4B, geodeExecFunction10<(anonymous namespace)::ExecFuncUnique10>(geode::ModStateEvent*)::{lambda(cocos2d::_ccColor4B)#1}>(std::__ndk1::basic_string_view<char, std::__ndk1::char_traits<char> >, geodeExecFunction10<(anonymous namespace)::ExecFuncUnique10>(geode::ModStateEvent*)::{lambda(cocos2d::_ccColor4B&&)#1}, geode::Mod*)::{lambda(std::__ndk1::shared_ptr<geode::SettingV3>)#1}>, void (std::__ndk1::shared_ptr<geode::SettingV3>)>::target_type() const
PUBLIC 500c0 0 std::__ndk1::shared_ptr<geode::Color4BSettingV3>::~shared_ptr[abi:ne180000]()
PUBLIC 50110 0 std::__ndk1::__function::__func<geode::listenForSettingChangesV3<long, geodeExecFunction10<(anonymous namespace)::ExecFuncUnique10>(geode::ModStateEvent*)::{lambda(long)#1}>(std::__ndk1::basic_string_view<char, std::__ndk1::char_traits<char> >, geodeExecFunction10<(anonymous namespace)::ExecFuncUnique10>(geode::ModStateEvent*)::{lambda(long)#1}&&, geode::Mod*)::{lambda(std::__ndk1::shared_ptr<geode::SettingV3>)#1}, std::__ndk1::allocator<geode::listenForSettingChangesV3<long, geodeExecFunction10<(anonymous namespace)::ExecFuncUnique10>(geode::ModStateEvent*)::{lambda(long)#1}>(std::__ndk1::basic_string_view<char, std::__ndk1::char_traits<char> >, geodeExecFunction10<(anonymous namespace)::ExecFuncUnique10>(geode::ModStateEvent*)::{lambda(long)#1}&&, geode::Mod*)::{lambda(std::__ndk1::shared_ptr<geode::SettingV3>)#1}>, void (std::__ndk1::shared_ptr<geode::SettingV3>)>::~__func()
PUBLIC 50114 0 std::__ndk1::__function::__func<geode::listenForSettingChangesV3<long, geodeExecFunction10<(anonymous namespace)::ExecFuncUnique10>(geode::ModStateEvent*)::{lambda(long)#1}>(std::__ndk1::basic_string_view<char, std::__ndk1::char_traits<char> >, geodeExecFunction10<(anonymous namespace)::ExecFuncUnique10>(geode::ModStateEvent*)::{lambda(long)#1}&&, geode::Mod*)::{lambda(std::__ndk1::shared_ptr<geode::SettingV3>)#1}, std::__ndk1::allocator<geode::listenForSettingChangesV3<long, geodeExecFunction10<(anonymous namespace)::ExecFuncUnique10>(geode::ModStateEvent*)::{lambda(long)#1}>(std::__ndk1::basic_string_view<char, std::__ndk1::char_traits<char> >, geodeExecFunction10<(anonymous namespace)::ExecFuncUnique10>(geode::ModStateEvent*)::{lambda(long)#1}&&, geode::Mod*)::{lambda(std::__ndk1::shared_ptr<geode::SettingV3>)#1}>, void (std::__ndk1::shared_ptr<geode::SettingV3>)>::__clone() const
PUBLIC 5014c 0 std::__ndk1::__function::__func<geode::listenForSettingChangesV3<long, geodeExecFunction10<(anonymous namespace)::ExecFuncUnique10>(geode::ModStateEvent*)::{lambda(long)#1}>(std::__ndk1::basic_string_view<char, std::__ndk1::char_traits<char> >, geodeExecFunction10<(anonymous namespace)::ExecFuncUnique10>(geode::ModStateEvent*)::{lambda(long)#1}&&, geode::Mod*)::{lambda(std::__ndk1::shared_ptr<geode::SettingV3>)#1}, std::__ndk1::allocator<geode::listenForSettingChangesV3<long, geodeExecFunction10<(anonymous namespace)::ExecFuncUnique10>(geode::ModStateEvent*)::{lambda(long)#1}>(std::__ndk1::basic_string_view<char, std::__ndk1::char_traits<char> >, geodeExecFunction10<(anonymous namespace)::ExecFuncUnique10>(geode::ModStateEvent*)::{lambda(long)#1}&&, geode::Mod*)::{lambda(std::__ndk1::shared_ptr<geode::SettingV3>)#1}>, void (std::__ndk1::shared_ptr<geode::SettingV3>)>::__clone(std::__ndk1::__function::__base<void (std::__ndk1::shared_ptr<geode::SettingV3>)>*) const
PUBLIC 50164 0 std::__ndk1::__function::__func<geode::listenForSettingChangesV3<long, geodeExecFunction10<(anonymous namespace)::ExecFuncUnique10>(geode::ModStateEvent*)::{lambda(long)#1}>(std::__ndk1::basic_string_view<char, std::__ndk1::char_traits<char> >, geodeExecFunction10<(anonymous namespace)::ExecFuncUnique10>(geode::ModStateEvent*)::{lambda(long)#1}&&, geode::Mod*)::{lambda(std::__ndk1::shared_ptr<geode::SettingV3>)#1}, std::__ndk1::allocator<geode::listenForSettingChangesV3<long, geodeExecFunction10<(anonymous namespace)::ExecFuncUnique10>(geode::ModStateEvent*)::{lambda(long)#1}>(std::__ndk1::basic_string_view<char, std::__ndk1::char_traits<char> >, geodeExecFunction10<(anonymous namespace)::ExecFuncUnique10>(geode::ModStateEvent*)::{lambda(long)#1}&&, geode::Mod*)::{lambda(std::__ndk1::shared_ptr<geode::SettingV3>)#1}>, void (std::__ndk1::shared_ptr<geode::SettingV3>)>::destroy()
PUBLIC 50168 0 std::__ndk1::__function::__func<geode::listenForSettingChangesV3<long, geodeExecFunction10<(anonymous namespace)::ExecFuncUnique10>(geode::ModStateEvent*)::{lambda(long)#1}>(std::__ndk1::basic_string_view<char, std::__ndk1::char_traits<char> >, geodeExecFunction10<(anonymous namespace)::ExecFuncUnique10>(geode::ModStateEvent*)::{lambda(long)#1}&&, geode::Mod*)::{lambda(std::__ndk1::shared_ptr<geode::SettingV3>)#1}, std::__ndk1::allocator<geode::listenForSettingChangesV3<long, geodeExecFunction10<(anonymous namespace)::ExecFuncUnique10>(geode::ModStateEvent*)::{lambda(long)#1}>(std::__ndk1::basic_string_view<char, std::__ndk1::char_traits<char> >, geodeExecFunction10<(anonymous namespace)::ExecFuncUnique10>(geode::ModStateEvent*)::{lambda(long)#1}&&, geode::Mod*)::{lambda(std::__ndk1::shared_ptr<geode::SettingV3>)#1}>, void (std::__ndk1::shared_ptr<geode::SettingV3>)>::destroy_deallocate()
PUBLIC 5016c 0 std::__ndk1::__function::__func<geode::listenForSettingChangesV3<long, geodeExecFunction10<(anonymous namespace)::ExecFuncUnique10>(geode::ModStateEvent*)::{lambda(long)#1}>(std::__ndk1::basic_string_view<char, std::__ndk1::char_traits<char> >, geodeExecFunction10<(anonymous namespace)::ExecFuncUnique10>(geode::ModStateEvent*)::{lambda(long)#1}&&, geode::Mod*)::{lambda(std::__ndk1::shared_ptr<geode::SettingV3>)#1}, std::__ndk1::allocator<geode::listenForSettingChangesV3<long, geodeExecFunction10<(anonymous namespace)::ExecFuncUnique10>(geode::ModStateEvent*)::{lambda(long)#1}>(std::__ndk1::basic_string_view<char, std::__ndk1::char_traits<char> >, geodeExecFunction10<(anonymous namespace)::ExecFuncUnique10>(geode::ModStateEvent*)::{lambda(long)#1}&&, geode::Mod*)::{lambda(std::__ndk1::shared_ptr<geode::SettingV3>)#1}>, void (std::__ndk1::shared_ptr<geode::SettingV3>)>::operator()(std::__ndk1::shared_ptr<geode::SettingV3>&&)
PUBLIC 50310 0 std::__ndk1::__function::__func<geode::listenForSettingChangesV3<long, geodeExecFunction10<(anonymous namespace)::ExecFuncUnique10>(geode::ModStateEvent*)::{lambda(long)#1}>(std::__ndk1::basic_string_view<char, std::__ndk1::char_traits<char> >, geodeExecFunction10<(anonymous namespace)::ExecFuncUnique10>(geode::ModStateEvent*)::{lambda(long)#1}&&, geode::Mod*)::{lambda(std::__ndk1::shared_ptr<geode::SettingV3>)#1}, std::__ndk1::allocator<geode::listenForSettingChangesV3<long, geodeExecFunction10<(anonymous namespace)::ExecFuncUnique10>(geode::ModStateEvent*)::{lambda(long)#1}>(std::__ndk1::basic_string_view<char, std::__ndk1::char_traits<char> >, geodeExecFunction10<(anonymous namespace)::ExecFuncUnique10>(geode::ModStateEvent*)::{lambda(long)#1}&&, geode::Mod*)::{lambda(std::__ndk1::shared_ptr<geode::SettingV3>)#1}>, void (std::__ndk1::shared_ptr<geode::SettingV3>)>::target(std::type_info const&) const
PUBLIC 5032c 0 std::__ndk1::__function::__func<geode::listenForSettingChangesV3<long, geodeExecFunction10<(anonymous namespace)::ExecFuncUnique10>(geode::ModStateEvent*)::{lambda(long)#1}>(std::__ndk1::basic_string_view<char, std::__ndk1::char_traits<char> >, geodeExecFunction10<(anonymous namespace)::ExecFuncUnique10>(geode::ModStateEvent*)::{lambda(long)#1}&&, geode::Mod*)::{lambda(std::__ndk1::shared_ptr<geode::SettingV3>)#1}, std::__ndk1::allocator<geode::listenForSettingChangesV3<long, geodeExecFunction10<(anonymous namespace)::ExecFuncUnique10>(geode::ModStateEvent*)::{lambda(long)#1}>(std::__ndk1::basic_string_view<char, std::__ndk1::char_traits<char> >, geodeExecFunction10<(anonymous namespace)::ExecFuncUnique10>(geode::ModStateEvent*)::{lambda(long)#1}&&, geode::Mod*)::{lambda(std::__ndk1::shared_ptr<geode::SettingV3>)#1}>, void (std::__ndk1::shared_ptr<geode::SettingV3>)>::target_type() const
PUBLIC 50338 0 std::__ndk1::shared_ptr<geode::IntSettingV3>::~shared_ptr[abi:ne180000]()
PUBLIC 50388 0 std::__ndk1::__function::__func<geode::listenForSettingChangesV3<bool, geodeExecFunction10<(anonymous namespace)::ExecFuncUnique10>(geode::ModStateEvent*)::{lambda(bool)#1}>(std::__ndk1::basic_string_view<char, std::__ndk1::char_traits<char> >, geodeExecFunction10<(anonymous namespace)::ExecFuncUnique10>(geode::ModStateEvent*)::{lambda(bool)#1}&&, geode::Mod*)::{lambda(std::__ndk1::shared_ptr<geode::SettingV3>)#1}, std::__ndk1::allocator<geode::listenForSettingChangesV3<bool, geodeExecFunction10<(anonymous namespace)::ExecFuncUnique10>(geode::ModStateEvent*)::{lambda(bool)#1}>(std::__ndk1::basic_string_view<char, std::__ndk1::char_traits<char> >, geodeExecFunction10<(anonymous namespace)::ExecFuncUnique10>(geode::ModStateEvent*)::{lambda(bool)#1}&&, geode::Mod*)::{lambda(std::__ndk1::shared_ptr<geode::SettingV3>)#1}>, void (std::__ndk1::shared_ptr<geode::SettingV3>)>::~__func()
PUBLIC 5038c 0 std::__ndk1::__function::__func<geode::listenForSettingChangesV3<bool, geodeExecFunction10<(anonymous namespace)::ExecFuncUnique10>(geode::ModStateEvent*)::{lambda(bool)#1}>(std::__ndk1::basic_string_view<char, std::__ndk1::char_traits<char> >, geodeExecFunction10<(anonymous namespace)::ExecFuncUnique10>(geode::ModStateEvent*)::{lambda(bool)#1}&&, geode::Mod*)::{lambda(std::__ndk1::shared_ptr<geode::SettingV3>)#1}, std::__ndk1::allocator<geode::listenForSettingChangesV3<bool, geodeExecFunction10<(anonymous namespace)::ExecFuncUnique10>(geode::ModStateEvent*)::{lambda(bool)#1}>(std::__ndk1::basic_string_view<char, std::__ndk1::char_traits<char> >, geodeExecFunction10<(anonymous namespace)::ExecFuncUnique10>(geode::ModStateEvent*)::{lambda(bool)#1}&&, geode::Mod*)::{lambda(std::__ndk1::shared_ptr<geode::SettingV3>)#1}>, void (std::__ndk1::shared_ptr<geode::SettingV3>)>::__clone() const
PUBLIC 503c4 0 std::__ndk1::__function::__func<geode::listenForSettingChangesV3<bool, geodeExecFunction10<(anonymous namespace)::ExecFuncUnique10>(geode::ModStateEvent*)::{lambda(bool)#1}>(std::__ndk1::basic_string_view<char, std::__ndk1::char_traits<char> >, geodeExecFunction10<(anonymous namespace)::ExecFuncUnique10>(geode::ModStateEvent*)::{lambda(bool)#1}&&, geode::Mod*)::{lambda(std::__ndk1::shared_ptr<geode::SettingV3>)#1}, std::__ndk1::allocator<geode::listenForSettingChangesV3<bool, geodeExecFunction10<(anonymous namespace)::ExecFuncUnique10>(geode::ModStateEvent*)::{lambda(bool)#1}>(std::__ndk1::basic_string_view<char, std::__ndk1::char_traits<char> >, geodeExecFunction10<(anonymous namespace)::ExecFuncUnique10>(geode::ModStateEvent*)::{lambda(bool)#1}&&, geode::Mod*)::{lambda(std::__ndk1::shared_ptr<geode::SettingV3>)#1}>, void (std::__ndk1::shared_ptr<geode::SettingV3>)>::__clone(std::__ndk1::__function::__base<void (std::__ndk1::shared_ptr<geode::SettingV3>)>*) const
PUBLIC 503dc 0 std::__ndk1::__function::__func<geode::listenForSettingChangesV3<bool, geodeExecFunction10<(anonymous namespace)::ExecFuncUnique10>(geode::ModStateEvent*)::{lambda(bool)#1}>(std::__ndk1::basic_string_view<char, std::__ndk1::char_traits<char> >, geodeExecFunction10<(anonymous namespace)::ExecFuncUnique10>(geode::ModStateEvent*)::{lambda(bool)#1}&&, geode::Mod*)::{lambda(std::__ndk1::shared_ptr<geode::SettingV3>)#1}, std::__ndk1::allocator<geode::listenForSettingChangesV3<bool, geodeExecFunction10<(anonymous namespace)::ExecFuncUnique10>(geode::ModStateEvent*)::{lambda(bool)#1}>(std::__ndk1::basic_string_view<char, std::__ndk1::char_traits<char> >, geodeExecFunction10<(anonymous namespace)::ExecFuncUnique10>(geode::ModStateEvent*)::{lambda(bool)#1}&&, geode::Mod*)::{lambda(std::__ndk1::shared_ptr<geode::SettingV3>)#1}>, void (std::__ndk1::shared_ptr<geode::SettingV3>)>::destroy()
PUBLIC 503e0 0 std::__ndk1::__function::__func<geode::listenForSettingChangesV3<bool, geodeExecFunction10<(anonymous namespace)::ExecFuncUnique10>(geode::ModStateEvent*)::{lambda(bool)#1}>(std::__ndk1::basic_string_view<char, std::__ndk1::char_traits<char> >, geodeExecFunction10<(anonymous namespace)::ExecFuncUnique10>(geode::ModStateEvent*)::{lambda(bool)#1}&&, geode::Mod*)::{lambda(std::__ndk1::shared_ptr<geode::SettingV3>)#1}, std::__ndk1::allocator<geode::listenForSettingChangesV3<bool, geodeExecFunction10<(anonymous namespace)::ExecFuncUnique10>(geode::ModStateEvent*)::{lambda(bool)#1}>(std::__ndk1::basic_string_view<char, std::__ndk1::char_traits<char> >, geodeExecFunction10<(anonymous namespace)::ExecFuncUnique10>(geode::ModStateEvent*)::{lambda(bool)#1}&&, geode::Mod*)::{lambda(std::__ndk1::shared_ptr<geode::SettingV3>)#1}>, void (std::__ndk1::shared_ptr<geode::SettingV3>)>::destroy_deallocate()
PUBLIC 503e4 0 std::__ndk1::__function::__func<geode::listenForSettingChangesV3<bool, geodeExecFunction10<(anonymous namespace)::ExecFuncUnique10>(geode::ModStateEvent*)::{lambda(bool)#1}>(std::__ndk1::basic_string_view<char, std::__ndk1::char_traits<char> >, geodeExecFunction10<(anonymous namespace)::ExecFuncUnique10>(geode::ModStateEvent*)::{lambda(bool)#1}&&, geode::Mod*)::{lambda(std::__ndk1::shared_ptr<geode::SettingV3>)#1}, std::__ndk1::allocator<geode::listenForSettingChangesV3<bool, geodeExecFunction10<(anonymous namespace)::ExecFuncUnique10>(geode::ModStateEvent*)::{lambda(bool)#1}>(std::__ndk1::basic_string_view<char, std::__ndk1::char_traits<char> >, geodeExecFunction10<(anonymous namespace)::ExecFuncUnique10>(geode::ModStateEvent*)::{lambda(bool)#1}&&, geode::Mod*)::{lambda(std::__ndk1::shared_ptr<geode::SettingV3>)#1}>, void (std::__ndk1::shared_ptr<geode::SettingV3>)>::operator()(std::__ndk1::shared_ptr<geode::SettingV3>&&)
PUBLIC 50590 0 std::__ndk1::__function::__func<geode::listenForSettingChangesV3<bool, geodeExecFunction10<(anonymous namespace)::ExecFuncUnique10>(geode::ModStateEvent*)::{lambda(bool)#1}>(std::__ndk1::basic_string_view<char, std::__ndk1::char_traits<char> >, geodeExecFunction10<(anonymous namespace)::ExecFuncUnique10>(geode::ModStateEvent*)::{lambda(bool)#1}&&, geode::Mod*)::{lambda(std::__ndk1::shared_ptr<geode::SettingV3>)#1}, std::__ndk1::allocator<geode::listenForSettingChangesV3<bool, geodeExecFunction10<(anonymous namespace)::ExecFuncUnique10>(geode::ModStateEvent*)::{lambda(bool)#1}>(std::__ndk1::basic_string_view<char, std::__ndk1::char_traits<char> >, geodeExecFunction10<(anonymous namespace)::ExecFuncUnique10>(geode::ModStateEvent*)::{lambda(bool)#1}&&, geode::Mod*)::{lambda(std::__ndk1::shared_ptr<geode::SettingV3>)#1}>, void (std::__ndk1::shared_ptr<geode::SettingV3>)>::target(std::type_info const&) const
PUBLIC 505ac 0 std::__ndk1::__function::__func<geode::listenForSettingChangesV3<bool, geodeExecFunction10<(anonymous namespace)::ExecFuncUnique10>(geode::ModStateEvent*)::{lambda(bool)#1}>(std::__ndk1::basic_string_view<char, std::__ndk1::char_traits<char> >, geodeExecFunction10<(anonymous namespace)::ExecFuncUnique10>(geode::ModStateEvent*)::{lambda(bool)#1}&&, geode::Mod*)::{lambda(std::__ndk1::shared_ptr<geode::SettingV3>)#1}, std::__ndk1::allocator<geode::listenForSettingChangesV3<bool, geodeExecFunction10<(anonymous namespace)::ExecFuncUnique10>(geode::ModStateEvent*)::{lambda(bool)#1}>(std::__ndk1::basic_string_view<char, std::__ndk1::char_traits<char> >, geodeExecFunction10<(anonymous namespace)::ExecFuncUnique10>(geode::ModStateEvent*)::{lambda(bool)#1}&&, geode::Mod*)::{lambda(std::__ndk1::shared_ptr<geode::SettingV3>)#1}>, void (std::__ndk1::shared_ptr<geode::SettingV3>)>::target_type() const
PUBLIC 505b8 0 std::__ndk1::__function::__func<geode::listenForSettingChangesV3<bool, geodeExecFunction10<(anonymous namespace)::ExecFuncUnique10>(geode::ModStateEvent*)::{lambda(bool)#2}>(std::__ndk1::basic_string_view<char, std::__ndk1::char_traits<char> >, geodeExecFunction10<(anonymous namespace)::ExecFuncUnique10>(geode::ModStateEvent*)::{lambda(bool)#2}&&, geode::Mod*)::{lambda(std::__ndk1::shared_ptr<geode::SettingV3>)#1}, std::__ndk1::allocator<geode::listenForSettingChangesV3<bool, geodeExecFunction10<(anonymous namespace)::ExecFuncUnique10>(geode::ModStateEvent*)::{lambda(bool)#2}>(std::__ndk1::basic_string_view<char, std::__ndk1::char_traits<char> >, geodeExecFunction10<(anonymous namespace)::ExecFuncUnique10>(geode::ModStateEvent*)::{lambda(bool)#2}&&, geode::Mod*)::{lambda(std::__ndk1::shared_ptr<geode::SettingV3>)#1}>, void (std::__ndk1::shared_ptr<geode::SettingV3>)>::~__func()
PUBLIC 505bc 0 std::__ndk1::__function::__func<geode::listenForSettingChangesV3<bool, geodeExecFunction10<(anonymous namespace)::ExecFuncUnique10>(geode::ModStateEvent*)::{lambda(bool)#2}>(std::__ndk1::basic_string_view<char, std::__ndk1::char_traits<char> >, geodeExecFunction10<(anonymous namespace)::ExecFuncUnique10>(geode::ModStateEvent*)::{lambda(bool)#2}&&, geode::Mod*)::{lambda(std::__ndk1::shared_ptr<geode::SettingV3>)#1}, std::__ndk1::allocator<geode::listenForSettingChangesV3<bool, geodeExecFunction10<(anonymous namespace)::ExecFuncUnique10>(geode::ModStateEvent*)::{lambda(bool)#2}>(std::__ndk1::basic_string_view<char, std::__ndk1::char_traits<char> >, geodeExecFunction10<(anonymous namespace)::ExecFuncUnique10>(geode::ModStateEvent*)::{lambda(bool)#2}&&, geode::Mod*)::{lambda(std::__ndk1::shared_ptr<geode::SettingV3>)#1}>, void (std::__ndk1::shared_ptr<geode::SettingV3>)>::__clone() const
PUBLIC 505f4 0 std::__ndk1::__function::__func<geode::listenForSettingChangesV3<bool, geodeExecFunction10<(anonymous namespace)::ExecFuncUnique10>(geode::ModStateEvent*)::{lambda(bool)#2}>(std::__ndk1::basic_string_view<char, std::__ndk1::char_traits<char> >, geodeExecFunction10<(anonymous namespace)::ExecFuncUnique10>(geode::ModStateEvent*)::{lambda(bool)#2}&&, geode::Mod*)::{lambda(std::__ndk1::shared_ptr<geode::SettingV3>)#1}, std::__ndk1::allocator<geode::listenForSettingChangesV3<bool, geodeExecFunction10<(anonymous namespace)::ExecFuncUnique10>(geode::ModStateEvent*)::{lambda(bool)#2}>(std::__ndk1::basic_string_view<char, std::__ndk1::char_traits<char> >, geodeExecFunction10<(anonymous namespace)::ExecFuncUnique10>(geode::ModStateEvent*)::{lambda(bool)#2}&&, geode::Mod*)::{lambda(std::__ndk1::shared_ptr<geode::SettingV3>)#1}>, void (std::__ndk1::shared_ptr<geode::SettingV3>)>::__clone(std::__ndk1::__function::__base<void (std::__ndk1::shared_ptr<geode::SettingV3>)>*) const
PUBLIC 5060c 0 std::__ndk1::__function::__func<geode::listenForSettingChangesV3<bool, geodeExecFunction10<(anonymous namespace)::ExecFuncUnique10>(geode::ModStateEvent*)::{lambda(bool)#2}>(std::__ndk1::basic_string_view<char, std::__ndk1::char_traits<char> >, geodeExecFunction10<(anonymous namespace)::ExecFuncUnique10>(geode::ModStateEvent*)::{lambda(bool)#2}&&, geode::Mod*)::{lambda(std::__ndk1::shared_ptr<geode::SettingV3>)#1}, std::__ndk1::allocator<geode::listenForSettingChangesV3<bool, geodeExecFunction10<(anonymous namespace)::ExecFuncUnique10>(geode::ModStateEvent*)::{lambda(bool)#2}>(std::__ndk1::basic_string_view<char, std::__ndk1::char_traits<char> >, geodeExecFunction10<(anonymous namespace)::ExecFuncUnique10>(geode::ModStateEvent*)::{lambda(bool)#2}&&, geode::Mod*)::{lambda(std::__ndk1::shared_ptr<geode::SettingV3>)#1}>, void (std::__ndk1::shared_ptr<geode::SettingV3>)>::destroy()
PUBLIC 50610 0 std::__ndk1::__function::__func<geode::listenForSettingChangesV3<bool, geodeExecFunction10<(anonymous namespace)::ExecFuncUnique10>(geode::ModStateEvent*)::{lambda(bool)#2}>(std::__ndk1::basic_string_view<char, std::__ndk1::char_traits<char> >, geodeExecFunction10<(anonymous namespace)::ExecFuncUnique10>(geode::ModStateEvent*)::{lambda(bool)#2}&&, geode::Mod*)::{lambda(std::__ndk1::shared_ptr<geode::SettingV3>)#1}, std::__ndk1::allocator<geode::listenForSettingChangesV3<bool, geodeExecFunction10<(anonymous namespace)::ExecFuncUnique10>(geode::ModStateEvent*)::{lambda(bool)#2}>(std::__ndk1::basic_string_view<char, std::__ndk1::char_traits<char> >, geodeExecFunction10<(anonymous namespace)::ExecFuncUnique10>(geode::ModStateEvent*)::{lambda(bool)#2}&&, geode::Mod*)::{lambda(std::__ndk1::shared_ptr<geode::SettingV3>)#1}>, void (std::__ndk1::shared_ptr<geode::SettingV3>)>::destroy_deallocate()
PUBLIC 50614 0 std::__ndk1::__function::__func<geode::listenForSettingChangesV3<bool, geodeExecFunction10<(anonymous namespace)::ExecFuncUnique10>(geode::ModStateEvent*)::{lambda(bool)#2}>(std::__ndk1::basic_string_view<char, std::__ndk1::char_traits<char> >, geodeExecFunction10<(anonymous namespace)::ExecFuncUnique10>(geode::ModStateEvent*)::{lambda(bool)#2}&&, geode::Mod*)::{lambda(std::__ndk1::shared_ptr<geode::SettingV3>)#1}, std::__ndk1::allocator<geode::listenForSettingChangesV3<bool, geodeExecFunction10<(anonymous namespace)::ExecFuncUnique10>(geode::ModStateEvent*)::{lambda(bool)#2}>(std::__ndk1::basic_string_view<char, std::__ndk1::char_traits<char> >, geodeExecFunction10<(anonymous namespace)::ExecFuncUnique10>(geode::ModStateEvent*)::{lambda(bool)#2}&&, geode::Mod*)::{lambda(std::__ndk1::shared_ptr<geode::SettingV3>)#1}>, void (std::__ndk1::shared_ptr<geode::SettingV3>)>::operator()(std::__ndk1::shared_ptr<geode::SettingV3>&&)
PUBLIC 507c0 0 std::__ndk1::__function::__func<geode::listenForSettingChangesV3<bool, geodeExecFunction10<(anonymous namespace)::ExecFuncUnique10>(geode::ModStateEvent*)::{lambda(bool)#2}>(std::__ndk1::basic_string_view<char, std::__ndk1::char_traits<char> >, geodeExecFunction10<(anonymous namespace)::ExecFuncUnique10>(geode::ModStateEvent*)::{lambda(bool)#2}&&, geode::Mod*)::{lambda(std::__ndk1::shared_ptr<geode::SettingV3>)#1}, std::__ndk1::allocator<geode::listenForSettingChangesV3<bool, geodeExecFunction10<(anonymous namespace)::ExecFuncUnique10>(geode::ModStateEvent*)::{lambda(bool)#2}>(std::__ndk1::basic_string_view<char, std::__ndk1::char_traits<char> >, geodeExecFunction10<(anonymous namespace)::ExecFuncUnique10>(geode::ModStateEvent*)::{lambda(bool)#2}&&, geode::Mod*)::{lambda(std::__ndk1::shared_ptr<geode::SettingV3>)#1}>, void (std::__ndk1::shared_ptr<geode::SettingV3>)>::target(std::type_info const&) const
PUBLIC 507dc 0 std::__ndk1::__function::__func<geode::listenForSettingChangesV3<bool, geodeExecFunction10<(anonymous namespace)::ExecFuncUnique10>(geode::ModStateEvent*)::{lambda(bool)#2}>(std::__ndk1::basic_string_view<char, std::__ndk1::char_traits<char> >, geodeExecFunction10<(anonymous namespace)::ExecFuncUnique10>(geode::ModStateEvent*)::{lambda(bool)#2}&&, geode::Mod*)::{lambda(std::__ndk1::shared_ptr<geode::SettingV3>)#1}, std::__ndk1::allocator<geode::listenForSettingChangesV3<bool, geodeExecFunction10<(anonymous namespace)::ExecFuncUnique10>(geode::ModStateEvent*)::{lambda(bool)#2}>(std::__ndk1::basic_string_view<char, std::__ndk1::char_traits<char> >, geodeExecFunction10<(anonymous namespace)::ExecFuncUnique10>(geode::ModStateEvent*)::{lambda(bool)#2}&&, geode::Mod*)::{lambda(std::__ndk1::shared_ptr<geode::SettingV3>)#1}>, void (std::__ndk1::shared_ptr<geode::SettingV3>)>::target_type() const
PUBLIC 507e8 0 std::__ndk1::__function::__func<geode::listenForSettingChangesV3<bool, geodeExecFunction10<(anonymous namespace)::ExecFuncUnique10>(geode::ModStateEvent*)::{lambda(bool)#3}>(std::__ndk1::basic_string_view<char, std::__ndk1::char_traits<char> >, geodeExecFunction10<(anonymous namespace)::ExecFuncUnique10>(geode::ModStateEvent*)::{lambda(bool)#3}&&, geode::Mod*)::{lambda(std::__ndk1::shared_ptr<geode::SettingV3>)#1}, std::__ndk1::allocator<geode::listenForSettingChangesV3<bool, geodeExecFunction10<(anonymous namespace)::ExecFuncUnique10>(geode::ModStateEvent*)::{lambda(bool)#3}>(std::__ndk1::basic_string_view<char, std::__ndk1::char_traits<char> >, geodeExecFunction10<(anonymous namespace)::ExecFuncUnique10>(geode::ModStateEvent*)::{lambda(bool)#3}&&, geode::Mod*)::{lambda(std::__ndk1::shared_ptr<geode::SettingV3>)#1}>, void (std::__ndk1::shared_ptr<geode::SettingV3>)>::~__func()
PUBLIC 507ec 0 std::__ndk1::__function::__func<geode::listenForSettingChangesV3<bool, geodeExecFunction10<(anonymous namespace)::ExecFuncUnique10>(geode::ModStateEvent*)::{lambda(bool)#3}>(std::__ndk1::basic_string_view<char, std::__ndk1::char_traits<char> >, geodeExecFunction10<(anonymous namespace)::ExecFuncUnique10>(geode::ModStateEvent*)::{lambda(bool)#3}&&, geode::Mod*)::{lambda(std::__ndk1::shared_ptr<geode::SettingV3>)#1}, std::__ndk1::allocator<geode::listenForSettingChangesV3<bool, geodeExecFunction10<(anonymous namespace)::ExecFuncUnique10>(geode::ModStateEvent*)::{lambda(bool)#3}>(std::__ndk1::basic_string_view<char, std::__ndk1::char_traits<char> >, geodeExecFunction10<(anonymous namespace)::ExecFuncUnique10>(geode::ModStateEvent*)::{lambda(bool)#3}&&, geode::Mod*)::{lambda(std::__ndk1::shared_ptr<geode::SettingV3>)#1}>, void (std::__ndk1::shared_ptr<geode::SettingV3>)>::__clone() const
PUBLIC 50824 0 std::__ndk1::__function::__func<geode::listenForSettingChangesV3<bool, geodeExecFunction10<(anonymous namespace)::ExecFuncUnique10>(geode::ModStateEvent*)::{lambda(bool)#3}>(std::__ndk1::basic_string_view<char, std::__ndk1::char_traits<char> >, geodeExecFunction10<(anonymous namespace)::ExecFuncUnique10>(geode::ModStateEvent*)::{lambda(bool)#3}&&, geode::Mod*)::{lambda(std::__ndk1::shared_ptr<geode::SettingV3>)#1}, std::__ndk1::allocator<geode::listenForSettingChangesV3<bool, geodeExecFunction10<(anonymous namespace)::ExecFuncUnique10>(geode::ModStateEvent*)::{lambda(bool)#3}>(std::__ndk1::basic_string_view<char, std::__ndk1::char_traits<char> >, geodeExecFunction10<(anonymous namespace)::ExecFuncUnique10>(geode::ModStateEvent*)::{lambda(bool)#3}&&, geode::Mod*)::{lambda(std::__ndk1::shared_ptr<geode::SettingV3>)#1}>, void (std::__ndk1::shared_ptr<geode::SettingV3>)>::__clone(std::__ndk1::__function::__base<void (std::__ndk1::shared_ptr<geode::SettingV3>)>*) const
PUBLIC 5083c 0 std::__ndk1::__function::__func<geode::listenForSettingChangesV3<bool, geodeExecFunction10<(anonymous namespace)::ExecFuncUnique10>(geode::ModStateEvent*)::{lambda(bool)#3}>(std::__ndk1::basic_string_view<char, std::__ndk1::char_traits<char> >, geodeExecFunction10<(anonymous namespace)::ExecFuncUnique10>(geode::ModStateEvent*)::{lambda(bool)#3}&&, geode::Mod*)::{lambda(std::__ndk1::shared_ptr<geode::SettingV3>)#1}, std::__ndk1::allocator<geode::listenForSettingChangesV3<bool, geodeExecFunction10<(anonymous namespace)::ExecFuncUnique10>(geode::ModStateEvent*)::{lambda(bool)#3}>(std::__ndk1::basic_string_view<char, std::__ndk1::char_traits<char> >, geodeExecFunction10<(anonymous namespace)::ExecFuncUnique10>(geode::ModStateEvent*)::{lambda(bool)#3}&&, geode::Mod*)::{lambda(std::__ndk1::shared_ptr<geode::SettingV3>)#1}>, void (std::__ndk1::shared_ptr<geode::SettingV3>)>::destroy()
PUBLIC 50840 0 std::__ndk1::__function::__func<geode::listenForSettingChangesV3<bool, geodeExecFunction10<(anonymous namespace)::ExecFuncUnique10>(geode::ModStateEvent*)::{lambda(bool)#3}>(std::__ndk1::basic_string_view<char, std::__ndk1::char_traits<char> >, geodeExecFunction10<(anonymous namespace)::ExecFuncUnique10>(geode::ModStateEvent*)::{lambda(bool)#3}&&, geode::Mod*)::{lambda(std::__ndk1::shared_ptr<geode::SettingV3>)#1}, std::__ndk1::allocator<geode::listenForSettingChangesV3<bool, geodeExecFunction10<(anonymous namespace)::ExecFuncUnique10>(geode::ModStateEvent*)::{lambda(bool)#3}>(std::__ndk1::basic_string_view<char, std::__ndk1::char_traits<char> >, geodeExecFunction10<(anonymous namespace)::ExecFuncUnique10>(geode::ModStateEvent*)::{lambda(bool)#3}&&, geode::Mod*)::{lambda(std::__ndk1::shared_ptr<geode::SettingV3>)#1}>, void (std::__ndk1::shared_ptr<geode::SettingV3>)>::destroy_deallocate()
PUBLIC 50844 0 std::__ndk1::__function::__func<geode::listenForSettingChangesV3<bool, geodeExecFunction10<(anonymous namespace)::ExecFuncUnique10>(geode::ModStateEvent*)::{lambda(bool)#3}>(std::__ndk1::basic_string_view<char, std::__ndk1::char_traits<char> >, geodeExecFunction10<(anonymous namespace)::ExecFuncUnique10>(geode::ModStateEvent*)::{lambda(bool)#3}&&, geode::Mod*)::{lambda(std::__ndk1::shared_ptr<geode::SettingV3>)#1}, std::__ndk1::allocator<geode::listenForSettingChangesV3<bool, geodeExecFunction10<(anonymous namespace)::ExecFuncUnique10>(geode::ModStateEvent*)::{lambda(bool)#3}>(std::__ndk1::basic_string_view<char, std::__ndk1::char_traits<char> >, geodeExecFunction10<(anonymous namespace)::ExecFuncUnique10>(geode::ModStateEvent*)::{lambda(bool)#3}&&, geode::Mod*)::{lambda(std::__ndk1::shared_ptr<geode::SettingV3>)#1}>, void (std::__ndk1::shared_ptr<geode::SettingV3>)>::operator()(std::__ndk1::shared_ptr<geode::SettingV3>&&)
PUBLIC 509f0 0 std::__ndk1::__function::__func<geode::listenForSettingChangesV3<bool, geodeExecFunction10<(anonymous namespace)::ExecFuncUnique10>(geode::ModStateEvent*)::{lambda(bool)#3}>(std::__ndk1::basic_string_view<char, std::__ndk1::char_traits<char> >, geodeExecFunction10<(anonymous namespace)::ExecFuncUnique10>(geode::ModStateEvent*)::{lambda(bool)#3}&&, geode::Mod*)::{lambda(std::__ndk1::shared_ptr<geode::SettingV3>)#1}, std::__ndk1::allocator<geode::listenForSettingChangesV3<bool, geodeExecFunction10<(anonymous namespace)::ExecFuncUnique10>(geode::ModStateEvent*)::{lambda(bool)#3}>(std::__ndk1::basic_string_view<char, std::__ndk1::char_traits<char> >, geodeExecFunction10<(anonymous namespace)::ExecFuncUnique10>(geode::ModStateEvent*)::{lambda(bool)#3}&&, geode::Mod*)::{lambda(std::__ndk1::shared_ptr<geode::SettingV3>)#1}>, void (std::__ndk1::shared_ptr<geode::SettingV3>)>::target(std::type_info const&) const
PUBLIC 50a0c 0 std::__ndk1::__function::__func<geode::listenForSettingChangesV3<bool, geodeExecFunction10<(anonymous namespace)::ExecFuncUnique10>(geode::ModStateEvent*)::{lambda(bool)#3}>(std::__ndk1::basic_string_view<char, std::__ndk1::char_traits<char> >, geodeExecFunction10<(anonymous namespace)::ExecFuncUnique10>(geode::ModStateEvent*)::{lambda(bool)#3}&&, geode::Mod*)::{lambda(std::__ndk1::shared_ptr<geode::SettingV3>)#1}, std::__ndk1::allocator<geode::listenForSettingChangesV3<bool, geodeExecFunction10<(anonymous namespace)::ExecFuncUnique10>(geode::ModStateEvent*)::{lambda(bool)#3}>(std::__ndk1::basic_string_view<char, std::__ndk1::char_traits<char> >, geodeExecFunction10<(anonymous namespace)::ExecFuncUnique10>(geode::ModStateEvent*)::{lambda(bool)#3}&&, geode::Mod*)::{lambda(std::__ndk1::shared_ptr<geode::SettingV3>)#1}>, void (std::__ndk1::shared_ptr<geode::SettingV3>)>::target_type() const
PUBLIC 50a18 0 std::__ndk1::__function::__func<geode::listenForSettingChangesV3<bool, geodeExecFunction10<(anonymous namespace)::ExecFuncUnique10>(geode::ModStateEvent*)::{lambda(bool)#4}>(std::__ndk1::basic_string_view<char, std::__ndk1::char_traits<char> >, geodeExecFunction10<(anonymous namespace)::ExecFuncUnique10>(geode::ModStateEvent*)::{lambda(bool)#4}&&, geode::Mod*)::{lambda(std::__ndk1::shared_ptr<geode::SettingV3>)#1}, std::__ndk1::allocator<geode::listenForSettingChangesV3<bool, geodeExecFunction10<(anonymous namespace)::ExecFuncUnique10>(geode::ModStateEvent*)::{lambda(bool)#4}>(std::__ndk1::basic_string_view<char, std::__ndk1::char_traits<char> >, geodeExecFunction10<(anonymous namespace)::ExecFuncUnique10>(geode::ModStateEvent*)::{lambda(bool)#4}&&, geode::Mod*)::{lambda(std::__ndk1::shared_ptr<geode::SettingV3>)#1}>, void (std::__ndk1::shared_ptr<geode::SettingV3>)>::~__func()
PUBLIC 50a1c 0 std::__ndk1::__function::__func<geode::listenForSettingChangesV3<bool, geodeExecFunction10<(anonymous namespace)::ExecFuncUnique10>(geode::ModStateEvent*)::{lambda(bool)#4}>(std::__ndk1::basic_string_view<char, std::__ndk1::char_traits<char> >, geodeExecFunction10<(anonymous namespace)::ExecFuncUnique10>(geode::ModStateEvent*)::{lambda(bool)#4}&&, geode::Mod*)::{lambda(std::__ndk1::shared_ptr<geode::SettingV3>)#1}, std::__ndk1::allocator<geode::listenForSettingChangesV3<bool, geodeExecFunction10<(anonymous namespace)::ExecFuncUnique10>(geode::ModStateEvent*)::{lambda(bool)#4}>(std::__ndk1::basic_string_view<char, std::__ndk1::char_traits<char> >, geodeExecFunction10<(anonymous namespace)::ExecFuncUnique10>(geode::ModStateEvent*)::{lambda(bool)#4}&&, geode::Mod*)::{lambda(std::__ndk1::shared_ptr<geode::SettingV3>)#1}>, void (std::__ndk1::shared_ptr<geode::SettingV3>)>::__clone() const
PUBLIC 50a54 0 std::__ndk1::__function::__func<geode::listenForSettingChangesV3<bool, geodeExecFunction10<(anonymous namespace)::ExecFuncUnique10>(geode::ModStateEvent*)::{lambda(bool)#4}>(std::__ndk1::basic_string_view<char, std::__ndk1::char_traits<char> >, geodeExecFunction10<(anonymous namespace)::ExecFuncUnique10>(geode::ModStateEvent*)::{lambda(bool)#4}&&, geode::Mod*)::{lambda(std::__ndk1::shared_ptr<geode::SettingV3>)#1}, std::__ndk1::allocator<geode::listenForSettingChangesV3<bool, geodeExecFunction10<(anonymous namespace)::ExecFuncUnique10>(geode::ModStateEvent*)::{lambda(bool)#4}>(std::__ndk1::basic_string_view<char, std::__ndk1::char_traits<char> >, geodeExecFunction10<(anonymous namespace)::ExecFuncUnique10>(geode::ModStateEvent*)::{lambda(bool)#4}&&, geode::Mod*)::{lambda(std::__ndk1::shared_ptr<geode::SettingV3>)#1}>, void (std::__ndk1::shared_ptr<geode::SettingV3>)>::__clone(std::__ndk1::__function::__base<void (std::__ndk1::shared_ptr<geode::SettingV3>)>*) const
PUBLIC 50a6c 0 std::__ndk1::__function::__func<geode::listenForSettingChangesV3<bool, geodeExecFunction10<(anonymous namespace)::ExecFuncUnique10>(geode::ModStateEvent*)::{lambda(bool)#4}>(std::__ndk1::basic_string_view<char, std::__ndk1::char_traits<char> >, geodeExecFunction10<(anonymous namespace)::ExecFuncUnique10>(geode::ModStateEvent*)::{lambda(bool)#4}&&, geode::Mod*)::{lambda(std::__ndk1::shared_ptr<geode::SettingV3>)#1}, std::__ndk1::allocator<geode::listenForSettingChangesV3<bool, geodeExecFunction10<(anonymous namespace)::ExecFuncUnique10>(geode::ModStateEvent*)::{lambda(bool)#4}>(std::__ndk1::basic_string_view<char, std::__ndk1::char_traits<char> >, geodeExecFunction10<(anonymous namespace)::ExecFuncUnique10>(geode::ModStateEvent*)::{lambda(bool)#4}&&, geode::Mod*)::{lambda(std::__ndk1::shared_ptr<geode::SettingV3>)#1}>, void (std::__ndk1::shared_ptr<geode::SettingV3>)>::destroy()
PUBLIC 50a70 0 std::__ndk1::__function::__func<geode::listenForSettingChangesV3<bool, geodeExecFunction10<(anonymous namespace)::ExecFuncUnique10>(geode::ModStateEvent*)::{lambda(bool)#4}>(std::__ndk1::basic_string_view<char, std::__ndk1::char_traits<char> >, geodeExecFunction10<(anonymous namespace)::ExecFuncUnique10>(geode::ModStateEvent*)::{lambda(bool)#4}&&, geode::Mod*)::{lambda(std::__ndk1::shared_ptr<geode::SettingV3>)#1}, std::__ndk1::allocator<geode::listenForSettingChangesV3<bool, geodeExecFunction10<(anonymous namespace)::ExecFuncUnique10>(geode::ModStateEvent*)::{lambda(bool)#4}>(std::__ndk1::basic_string_view<char, std::__ndk1::char_traits<char> >, geodeExecFunction10<(anonymous namespace)::ExecFuncUnique10>(geode::ModStateEvent*)::{lambda(bool)#4}&&, geode::Mod*)::{lambda(std::__ndk1::shared_ptr<geode::SettingV3>)#1}>, void (std::__ndk1::shared_ptr<geode::SettingV3>)>::destroy_deallocate()
PUBLIC 50a74 0 std::__ndk1::__function::__func<geode::listenForSettingChangesV3<bool, geodeExecFunction10<(anonymous namespace)::ExecFuncUnique10>(geode::ModStateEvent*)::{lambda(bool)#4}>(std::__ndk1::basic_string_view<char, std::__ndk1::char_traits<char> >, geodeExecFunction10<(anonymous namespace)::ExecFuncUnique10>(geode::ModStateEvent*)::{lambda(bool)#4}&&, geode::Mod*)::{lambda(std::__ndk1::shared_ptr<geode::SettingV3>)#1}, std::__ndk1::allocator<geode::listenForSettingChangesV3<bool, geodeExecFunction10<(anonymous namespace)::ExecFuncUnique10>(geode::ModStateEvent*)::{lambda(bool)#4}>(std::__ndk1::basic_string_view<char, std::__ndk1::char_traits<char> >, geodeExecFunction10<(anonymous namespace)::ExecFuncUnique10>(geode::ModStateEvent*)::{lambda(bool)#4}&&, geode::Mod*)::{lambda(std::__ndk1::shared_ptr<geode::SettingV3>)#1}>, void (std::__ndk1::shared_ptr<geode::SettingV3>)>::operator()(std::__ndk1::shared_ptr<geode::SettingV3>&&)
PUBLIC 50c20 0 std::__ndk1::__function::__func<geode::listenForSettingChangesV3<bool, geodeExecFunction10<(anonymous namespace)::ExecFuncUnique10>(geode::ModStateEvent*)::{lambda(bool)#4}>(std::__ndk1::basic_string_view<char, std::__ndk1::char_traits<char> >, geodeExecFunction10<(anonymous namespace)::ExecFuncUnique10>(geode::ModStateEvent*)::{lambda(bool)#4}&&, geode::Mod*)::{lambda(std::__ndk1::shared_ptr<geode::SettingV3>)#1}, std::__ndk1::allocator<geode::listenForSettingChangesV3<bool, geodeExecFunction10<(anonymous namespace)::ExecFuncUnique10>(geode::ModStateEvent*)::{lambda(bool)#4}>(std::__ndk1::basic_string_view<char, std::__ndk1::char_traits<char> >, geodeExecFunction10<(anonymous namespace)::ExecFuncUnique10>(geode::ModStateEvent*)::{lambda(bool)#4}&&, geode::Mod*)::{lambda(std::__ndk1::shared_ptr<geode::SettingV3>)#1}>, void (std::__ndk1::shared_ptr<geode::SettingV3>)>::target(std::type_info const&) const
PUBLIC 50c3c 0 std::__ndk1::__function::__func<geode::listenForSettingChangesV3<bool, geodeExecFunction10<(anonymous namespace)::ExecFuncUnique10>(geode::ModStateEvent*)::{lambda(bool)#4}>(std::__ndk1::basic_string_view<char, std::__ndk1::char_traits<char> >, geodeExecFunction10<(anonymous namespace)::ExecFuncUnique10>(geode::ModStateEvent*)::{lambda(bool)#4}&&, geode::Mod*)::{lambda(std::__ndk1::shared_ptr<geode::SettingV3>)#1}, std::__ndk1::allocator<geode::listenForSettingChangesV3<bool, geodeExecFunction10<(anonymous namespace)::ExecFuncUnique10>(geode::ModStateEvent*)::{lambda(bool)#4}>(std::__ndk1::basic_string_view<char, std::__ndk1::char_traits<char> >, geodeExecFunction10<(anonymous namespace)::ExecFuncUnique10>(geode::ModStateEvent*)::{lambda(bool)#4}&&, geode::Mod*)::{lambda(std::__ndk1::shared_ptr<geode::SettingV3>)#1}>, void (std::__ndk1::shared_ptr<geode::SettingV3>)>::target_type() const
PUBLIC 50c48 0 std::__ndk1::__function::__func<geode::listenForSettingChangesV3<bool, geodeExecFunction10<(anonymous namespace)::ExecFuncUnique10>(geode::ModStateEvent*)::{lambda(bool)#5}>(std::__ndk1::basic_string_view<char, std::__ndk1::char_traits<char> >, geodeExecFunction10<(anonymous namespace)::ExecFuncUnique10>(geode::ModStateEvent*)::{lambda(bool)#5}&&, geode::Mod*)::{lambda(std::__ndk1::shared_ptr<geode::SettingV3>)#1}, std::__ndk1::allocator<geode::listenForSettingChangesV3<bool, geodeExecFunction10<(anonymous namespace)::ExecFuncUnique10>(geode::ModStateEvent*)::{lambda(bool)#5}>(std::__ndk1::basic_string_view<char, std::__ndk1::char_traits<char> >, geodeExecFunction10<(anonymous namespace)::ExecFuncUnique10>(geode::ModStateEvent*)::{lambda(bool)#5}&&, geode::Mod*)::{lambda(std::__ndk1::shared_ptr<geode::SettingV3>)#1}>, void (std::__ndk1::shared_ptr<geode::SettingV3>)>::~__func()
PUBLIC 50c4c 0 std::__ndk1::__function::__func<geode::listenForSettingChangesV3<bool, geodeExecFunction10<(anonymous namespace)::ExecFuncUnique10>(geode::ModStateEvent*)::{lambda(bool)#5}>(std::__ndk1::basic_string_view<char, std::__ndk1::char_traits<char> >, geodeExecFunction10<(anonymous namespace)::ExecFuncUnique10>(geode::ModStateEvent*)::{lambda(bool)#5}&&, geode::Mod*)::{lambda(std::__ndk1::shared_ptr<geode::SettingV3>)#1}, std::__ndk1::allocator<geode::listenForSettingChangesV3<bool, geodeExecFunction10<(anonymous namespace)::ExecFuncUnique10>(geode::ModStateEvent*)::{lambda(bool)#5}>(std::__ndk1::basic_string_view<char, std::__ndk1::char_traits<char> >, geodeExecFunction10<(anonymous namespace)::ExecFuncUnique10>(geode::ModStateEvent*)::{lambda(bool)#5}&&, geode::Mod*)::{lambda(std::__ndk1::shared_ptr<geode::SettingV3>)#1}>, void (std::__ndk1::shared_ptr<geode::SettingV3>)>::__clone() const
PUBLIC 50c84 0 std::__ndk1::__function::__func<geode::listenForSettingChangesV3<bool, geodeExecFunction10<(anonymous namespace)::ExecFuncUnique10>(geode::ModStateEvent*)::{lambda(bool)#5}>(std::__ndk1::basic_string_view<char, std::__ndk1::char_traits<char> >, geodeExecFunction10<(anonymous namespace)::ExecFuncUnique10>(geode::ModStateEvent*)::{lambda(bool)#5}&&, geode::Mod*)::{lambda(std::__ndk1::shared_ptr<geode::SettingV3>)#1}, std::__ndk1::allocator<geode::listenForSettingChangesV3<bool, geodeExecFunction10<(anonymous namespace)::ExecFuncUnique10>(geode::ModStateEvent*)::{lambda(bool)#5}>(std::__ndk1::basic_string_view<char, std::__ndk1::char_traits<char> >, geodeExecFunction10<(anonymous namespace)::ExecFuncUnique10>(geode::ModStateEvent*)::{lambda(bool)#5}&&, geode::Mod*)::{lambda(std::__ndk1::shared_ptr<geode::SettingV3>)#1}>, void (std::__ndk1::shared_ptr<geode::SettingV3>)>::__clone(std::__ndk1::__function::__base<void (std::__ndk1::shared_ptr<geode::SettingV3>)>*) const
PUBLIC 50c9c 0 std::__ndk1::__function::__func<geode::listenForSettingChangesV3<bool, geodeExecFunction10<(anonymous namespace)::ExecFuncUnique10>(geode::ModStateEvent*)::{lambda(bool)#5}>(std::__ndk1::basic_string_view<char, std::__ndk1::char_traits<char> >, geodeExecFunction10<(anonymous namespace)::ExecFuncUnique10>(geode::ModStateEvent*)::{lambda(bool)#5}&&, geode::Mod*)::{lambda(std::__ndk1::shared_ptr<geode::SettingV3>)#1}, std::__ndk1::allocator<geode::listenForSettingChangesV3<bool, geodeExecFunction10<(anonymous namespace)::ExecFuncUnique10>(geode::ModStateEvent*)::{lambda(bool)#5}>(std::__ndk1::basic_string_view<char, std::__ndk1::char_traits<char> >, geodeExecFunction10<(anonymous namespace)::ExecFuncUnique10>(geode::ModStateEvent*)::{lambda(bool)#5}&&, geode::Mod*)::{lambda(std::__ndk1::shared_ptr<geode::SettingV3>)#1}>, void (std::__ndk1::shared_ptr<geode::SettingV3>)>::destroy()
PUBLIC 50ca0 0 std::__ndk1::__function::__func<geode::listenForSettingChangesV3<bool, geodeExecFunction10<(anonymous namespace)::ExecFuncUnique10>(geode::ModStateEvent*)::{lambda(bool)#5}>(std::__ndk1::basic_string_view<char, std::__ndk1::char_traits<char> >, geodeExecFunction10<(anonymous namespace)::ExecFuncUnique10>(geode::ModStateEvent*)::{lambda(bool)#5}&&, geode::Mod*)::{lambda(std::__ndk1::shared_ptr<geode::SettingV3>)#1}, std::__ndk1::allocator<geode::listenForSettingChangesV3<bool, geodeExecFunction10<(anonymous namespace)::ExecFuncUnique10>(geode::ModStateEvent*)::{lambda(bool)#5}>(std::__ndk1::basic_string_view<char, std::__ndk1::char_traits<char> >, geodeExecFunction10<(anonymous namespace)::ExecFuncUnique10>(geode::ModStateEvent*)::{lambda(bool)#5}&&, geode::Mod*)::{lambda(std::__ndk1::shared_ptr<geode::SettingV3>)#1}>, void (std::__ndk1::shared_ptr<geode::SettingV3>)>::destroy_deallocate()
PUBLIC 50ca4 0 std::__ndk1::__function::__func<geode::listenForSettingChangesV3<bool, geodeExecFunction10<(anonymous namespace)::ExecFuncUnique10>(geode::ModStateEvent*)::{lambda(bool)#5}>(std::__ndk1::basic_string_view<char, std::__ndk1::char_traits<char> >, geodeExecFunction10<(anonymous namespace)::ExecFuncUnique10>(geode::ModStateEvent*)::{lambda(bool)#5}&&, geode::Mod*)::{lambda(std::__ndk1::shared_ptr<geode::SettingV3>)#1}, std::__ndk1::allocator<geode::listenForSettingChangesV3<bool, geodeExecFunction10<(anonymous namespace)::ExecFuncUnique10>(geode::ModStateEvent*)::{lambda(bool)#5}>(std::__ndk1::basic_string_view<char, std::__ndk1::char_traits<char> >, geodeExecFunction10<(anonymous namespace)::ExecFuncUnique10>(geode::ModStateEvent*)::{lambda(bool)#5}&&, geode::Mod*)::{lambda(std::__ndk1::shared_ptr<geode::SettingV3>)#1}>, void (std::__ndk1::shared_ptr<geode::SettingV3>)>::operator()(std::__ndk1::shared_ptr<geode::SettingV3>&&)
PUBLIC 50e50 0 std::__ndk1::__function::__func<geode::listenForSettingChangesV3<bool, geodeExecFunction10<(anonymous namespace)::ExecFuncUnique10>(geode::ModStateEvent*)::{lambda(bool)#5}>(std::__ndk1::basic_string_view<char, std::__ndk1::char_traits<char> >, geodeExecFunction10<(anonymous namespace)::ExecFuncUnique10>(geode::ModStateEvent*)::{lambda(bool)#5}&&, geode::Mod*)::{lambda(std::__ndk1::shared_ptr<geode::SettingV3>)#1}, std::__ndk1::allocator<geode::listenForSettingChangesV3<bool, geodeExecFunction10<(anonymous namespace)::ExecFuncUnique10>(geode::ModStateEvent*)::{lambda(bool)#5}>(std::__ndk1::basic_string_view<char, std::__ndk1::char_traits<char> >, geodeExecFunction10<(anonymous namespace)::ExecFuncUnique10>(geode::ModStateEvent*)::{lambda(bool)#5}&&, geode::Mod*)::{lambda(std::__ndk1::shared_ptr<geode::SettingV3>)#1}>, void (std::__ndk1::shared_ptr<geode::SettingV3>)>::target(std::type_info const&) const
PUBLIC 50e6c 0 std::__ndk1::__function::__func<geode::listenForSettingChangesV3<bool, geodeExecFunction10<(anonymous namespace)::ExecFuncUnique10>(geode::ModStateEvent*)::{lambda(bool)#5}>(std::__ndk1::basic_string_view<char, std::__ndk1::char_traits<char> >, geodeExecFunction10<(anonymous namespace)::ExecFuncUnique10>(geode::ModStateEvent*)::{lambda(bool)#5}&&, geode::Mod*)::{lambda(std::__ndk1::shared_ptr<geode::SettingV3>)#1}, std::__ndk1::allocator<geode::listenForSettingChangesV3<bool, geodeExecFunction10<(anonymous namespace)::ExecFuncUnique10>(geode::ModStateEvent*)::{lambda(bool)#5}>(std::__ndk1::basic_string_view<char, std::__ndk1::char_traits<char> >, geodeExecFunction10<(anonymous namespace)::ExecFuncUnique10>(geode::ModStateEvent*)::{lambda(bool)#5}&&, geode::Mod*)::{lambda(std::__ndk1::shared_ptr<geode::SettingV3>)#1}>, void (std::__ndk1::shared_ptr<geode::SettingV3>)>::target_type() const
PUBLIC 50e78 0 std::__ndk1::__function::__func<geode::listenForSettingChangesV3<bool, geodeExecFunction10<(anonymous namespace)::ExecFuncUnique10>(geode::ModStateEvent*)::{lambda(bool)#6}>(std::__ndk1::basic_string_view<char, std::__ndk1::char_traits<char> >, geodeExecFunction10<(anonymous namespace)::ExecFuncUnique10>(geode::ModStateEvent*)::{lambda(bool)#6}&&, geode::Mod*)::{lambda(std::__ndk1::shared_ptr<geode::SettingV3>)#1}, std::__ndk1::allocator<geode::listenForSettingChangesV3<bool, geodeExecFunction10<(anonymous namespace)::ExecFuncUnique10>(geode::ModStateEvent*)::{lambda(bool)#6}>(std::__ndk1::basic_string_view<char, std::__ndk1::char_traits<char> >, geodeExecFunction10<(anonymous namespace)::ExecFuncUnique10>(geode::ModStateEvent*)::{lambda(bool)#6}&&, geode::Mod*)::{lambda(std::__ndk1::shared_ptr<geode::SettingV3>)#1}>, void (std::__ndk1::shared_ptr<geode::SettingV3>)>::~__func()
PUBLIC 50e7c 0 std::__ndk1::__function::__func<geode::listenForSettingChangesV3<bool, geodeExecFunction10<(anonymous namespace)::ExecFuncUnique10>(geode::ModStateEvent*)::{lambda(bool)#6}>(std::__ndk1::basic_string_view<char, std::__ndk1::char_traits<char> >, geodeExecFunction10<(anonymous namespace)::ExecFuncUnique10>(geode::ModStateEvent*)::{lambda(bool)#6}&&, geode::Mod*)::{lambda(std::__ndk1::shared_ptr<geode::SettingV3>)#1}, std::__ndk1::allocator<geode::listenForSettingChangesV3<bool, geodeExecFunction10<(anonymous namespace)::ExecFuncUnique10>(geode::ModStateEvent*)::{lambda(bool)#6}>(std::__ndk1::basic_string_view<char, std::__ndk1::char_traits<char> >, geodeExecFunction10<(anonymous namespace)::ExecFuncUnique10>(geode::ModStateEvent*)::{lambda(bool)#6}&&, geode::Mod*)::{lambda(std::__ndk1::shared_ptr<geode::SettingV3>)#1}>, void (std::__ndk1::shared_ptr<geode::SettingV3>)>::__clone() const
PUBLIC 50eb4 0 std::__ndk1::__function::__func<geode::listenForSettingChangesV3<bool, geodeExecFunction10<(anonymous namespace)::ExecFuncUnique10>(geode::ModStateEvent*)::{lambda(bool)#6}>(std::__ndk1::basic_string_view<char, std::__ndk1::char_traits<char> >, geodeExecFunction10<(anonymous namespace)::ExecFuncUnique10>(geode::ModStateEvent*)::{lambda(bool)#6}&&, geode::Mod*)::{lambda(std::__ndk1::shared_ptr<geode::SettingV3>)#1}, std::__ndk1::allocator<geode::listenForSettingChangesV3<bool, geodeExecFunction10<(anonymous namespace)::ExecFuncUnique10>(geode::ModStateEvent*)::{lambda(bool)#6}>(std::__ndk1::basic_string_view<char, std::__ndk1::char_traits<char> >, geodeExecFunction10<(anonymous namespace)::ExecFuncUnique10>(geode::ModStateEvent*)::{lambda(bool)#6}&&, geode::Mod*)::{lambda(std::__ndk1::shared_ptr<geode::SettingV3>)#1}>, void (std::__ndk1::shared_ptr<geode::SettingV3>)>::__clone(std::__ndk1::__function::__base<void (std::__ndk1::shared_ptr<geode::SettingV3>)>*) const
PUBLIC 50ecc 0 std::__ndk1::__function::__func<geode::listenForSettingChangesV3<bool, geodeExecFunction10<(anonymous namespace)::ExecFuncUnique10>(geode::ModStateEvent*)::{lambda(bool)#6}>(std::__ndk1::basic_string_view<char, std::__ndk1::char_traits<char> >, geodeExecFunction10<(anonymous namespace)::ExecFuncUnique10>(geode::ModStateEvent*)::{lambda(bool)#6}&&, geode::Mod*)::{lambda(std::__ndk1::shared_ptr<geode::SettingV3>)#1}, std::__ndk1::allocator<geode::listenForSettingChangesV3<bool, geodeExecFunction10<(anonymous namespace)::ExecFuncUnique10>(geode::ModStateEvent*)::{lambda(bool)#6}>(std::__ndk1::basic_string_view<char, std::__ndk1::char_traits<char> >, geodeExecFunction10<(anonymous namespace)::ExecFuncUnique10>(geode::ModStateEvent*)::{lambda(bool)#6}&&, geode::Mod*)::{lambda(std::__ndk1::shared_ptr<geode::SettingV3>)#1}>, void (std::__ndk1::shared_ptr<geode::SettingV3>)>::destroy()
PUBLIC 50ed0 0 std::__ndk1::__function::__func<geode::listenForSettingChangesV3<bool, geodeExecFunction10<(anonymous namespace)::ExecFuncUnique10>(geode::ModStateEvent*)::{lambda(bool)#6}>(std::__ndk1::basic_string_view<char, std::__ndk1::char_traits<char> >, geodeExecFunction10<(anonymous namespace)::ExecFuncUnique10>(geode::ModStateEvent*)::{lambda(bool)#6}&&, geode::Mod*)::{lambda(std::__ndk1::shared_ptr<geode::SettingV3>)#1}, std::__ndk1::allocator<geode::listenForSettingChangesV3<bool, geodeExecFunction10<(anonymous namespace)::ExecFuncUnique10>(geode::ModStateEvent*)::{lambda(bool)#6}>(std::__ndk1::basic_string_view<char, std::__ndk1::char_traits<char> >, geodeExecFunction10<(anonymous namespace)::ExecFuncUnique10>(geode::ModStateEvent*)::{lambda(bool)#6}&&, geode::Mod*)::{lambda(std::__ndk1::shared_ptr<geode::SettingV3>)#1}>, void (std::__ndk1::shared_ptr<geode::SettingV3>)>::destroy_deallocate()
PUBLIC 50ed4 0 std::__ndk1::__function::__func<geode::listenForSettingChangesV3<bool, geodeExecFunction10<(anonymous namespace)::ExecFuncUnique10>(geode::ModStateEvent*)::{lambda(bool)#6}>(std::__ndk1::basic_string_view<char, std::__ndk1::char_traits<char> >, geodeExecFunction10<(anonymous namespace)::ExecFuncUnique10>(geode::ModStateEvent*)::{lambda(bool)#6}&&, geode::Mod*)::{lambda(std::__ndk1::shared_ptr<geode::SettingV3>)#1}, std::__ndk1::allocator<geode::listenForSettingChangesV3<bool, geodeExecFunction10<(anonymous namespace)::ExecFuncUnique10>(geode::ModStateEvent*)::{lambda(bool)#6}>(std::__ndk1::basic_string_view<char, std::__ndk1::char_traits<char> >, geodeExecFunction10<(anonymous namespace)::ExecFuncUnique10>(geode::ModStateEvent*)::{lambda(bool)#6}&&, geode::Mod*)::{lambda(std::__ndk1::shared_ptr<geode::SettingV3>)#1}>, void (std::__ndk1::shared_ptr<geode::SettingV3>)>::operator()(std::__ndk1::shared_ptr<geode::SettingV3>&&)
PUBLIC 51080 0 std::__ndk1::__function::__func<geode::listenForSettingChangesV3<bool, geodeExecFunction10<(anonymous namespace)::ExecFuncUnique10>(geode::ModStateEvent*)::{lambda(bool)#6}>(std::__ndk1::basic_string_view<char, std::__ndk1::char_traits<char> >, geodeExecFunction10<(anonymous namespace)::ExecFuncUnique10>(geode::ModStateEvent*)::{lambda(bool)#6}&&, geode::Mod*)::{lambda(std::__ndk1::shared_ptr<geode::SettingV3>)#1}, std::__ndk1::allocator<geode::listenForSettingChangesV3<bool, geodeExecFunction10<(anonymous namespace)::ExecFuncUnique10>(geode::ModStateEvent*)::{lambda(bool)#6}>(std::__ndk1::basic_string_view<char, std::__ndk1::char_traits<char> >, geodeExecFunction10<(anonymous namespace)::ExecFuncUnique10>(geode::ModStateEvent*)::{lambda(bool)#6}&&, geode::Mod*)::{lambda(std::__ndk1::shared_ptr<geode::SettingV3>)#1}>, void (std::__ndk1::shared_ptr<geode::SettingV3>)>::target(std::type_info const&) const
PUBLIC 5109c 0 std::__ndk1::__function::__func<geode::listenForSettingChangesV3<bool, geodeExecFunction10<(anonymous namespace)::ExecFuncUnique10>(geode::ModStateEvent*)::{lambda(bool)#6}>(std::__ndk1::basic_string_view<char, std::__ndk1::char_traits<char> >, geodeExecFunction10<(anonymous namespace)::ExecFuncUnique10>(geode::ModStateEvent*)::{lambda(bool)#6}&&, geode::Mod*)::{lambda(std::__ndk1::shared_ptr<geode::SettingV3>)#1}, std::__ndk1::allocator<geode::listenForSettingChangesV3<bool, geodeExecFunction10<(anonymous namespace)::ExecFuncUnique10>(geode::ModStateEvent*)::{lambda(bool)#6}>(std::__ndk1::basic_string_view<char, std::__ndk1::char_traits<char> >, geodeExecFunction10<(anonymous namespace)::ExecFuncUnique10>(geode::ModStateEvent*)::{lambda(bool)#6}&&, geode::Mod*)::{lambda(std::__ndk1::shared_ptr<geode::SettingV3>)#1}>, void (std::__ndk1::shared_ptr<geode::SettingV3>)>::target_type() const
PUBLIC 510a8 0 std::__ndk1::__function::__func<geode::listenForSettingChangesV3<bool, geodeExecFunction10<(anonymous namespace)::ExecFuncUnique10>(geode::ModStateEvent*)::{lambda(bool)#7}>(std::__ndk1::basic_string_view<char, std::__ndk1::char_traits<char> >, geodeExecFunction10<(anonymous namespace)::ExecFuncUnique10>(geode::ModStateEvent*)::{lambda(bool)#7}&&, geode::Mod*)::{lambda(std::__ndk1::shared_ptr<geode::SettingV3>)#1}, std::__ndk1::allocator<geode::listenForSettingChangesV3<bool, geodeExecFunction10<(anonymous namespace)::ExecFuncUnique10>(geode::ModStateEvent*)::{lambda(bool)#7}>(std::__ndk1::basic_string_view<char, std::__ndk1::char_traits<char> >, geodeExecFunction10<(anonymous namespace)::ExecFuncUnique10>(geode::ModStateEvent*)::{lambda(bool)#7}&&, geode::Mod*)::{lambda(std::__ndk1::shared_ptr<geode::SettingV3>)#1}>, void (std::__ndk1::shared_ptr<geode::SettingV3>)>::~__func()
PUBLIC 510ac 0 std::__ndk1::__function::__func<geode::listenForSettingChangesV3<bool, geodeExecFunction10<(anonymous namespace)::ExecFuncUnique10>(geode::ModStateEvent*)::{lambda(bool)#7}>(std::__ndk1::basic_string_view<char, std::__ndk1::char_traits<char> >, geodeExecFunction10<(anonymous namespace)::ExecFuncUnique10>(geode::ModStateEvent*)::{lambda(bool)#7}&&, geode::Mod*)::{lambda(std::__ndk1::shared_ptr<geode::SettingV3>)#1}, std::__ndk1::allocator<geode::listenForSettingChangesV3<bool, geodeExecFunction10<(anonymous namespace)::ExecFuncUnique10>(geode::ModStateEvent*)::{lambda(bool)#7}>(std::__ndk1::basic_string_view<char, std::__ndk1::char_traits<char> >, geodeExecFunction10<(anonymous namespace)::ExecFuncUnique10>(geode::ModStateEvent*)::{lambda(bool)#7}&&, geode::Mod*)::{lambda(std::__ndk1::shared_ptr<geode::SettingV3>)#1}>, void (std::__ndk1::shared_ptr<geode::SettingV3>)>::__clone() const
PUBLIC 510e4 0 std::__ndk1::__function::__func<geode::listenForSettingChangesV3<bool, geodeExecFunction10<(anonymous namespace)::ExecFuncUnique10>(geode::ModStateEvent*)::{lambda(bool)#7}>(std::__ndk1::basic_string_view<char, std::__ndk1::char_traits<char> >, geodeExecFunction10<(anonymous namespace)::ExecFuncUnique10>(geode::ModStateEvent*)::{lambda(bool)#7}&&, geode::Mod*)::{lambda(std::__ndk1::shared_ptr<geode::SettingV3>)#1}, std::__ndk1::allocator<geode::listenForSettingChangesV3<bool, geodeExecFunction10<(anonymous namespace)::ExecFuncUnique10>(geode::ModStateEvent*)::{lambda(bool)#7}>(std::__ndk1::basic_string_view<char, std::__ndk1::char_traits<char> >, geodeExecFunction10<(anonymous namespace)::ExecFuncUnique10>(geode::ModStateEvent*)::{lambda(bool)#7}&&, geode::Mod*)::{lambda(std::__ndk1::shared_ptr<geode::SettingV3>)#1}>, void (std::__ndk1::shared_ptr<geode::SettingV3>)>::__clone(std::__ndk1::__function::__base<void (std::__ndk1::shared_ptr<geode::SettingV3>)>*) const
PUBLIC 510fc 0 std::__ndk1::__function::__func<geode::listenForSettingChangesV3<bool, geodeExecFunction10<(anonymous namespace)::ExecFuncUnique10>(geode::ModStateEvent*)::{lambda(bool)#7}>(std::__ndk1::basic_string_view<char, std::__ndk1::char_traits<char> >, geodeExecFunction10<(anonymous namespace)::ExecFuncUnique10>(geode::ModStateEvent*)::{lambda(bool)#7}&&, geode::Mod*)::{lambda(std::__ndk1::shared_ptr<geode::SettingV3>)#1}, std::__ndk1::allocator<geode::listenForSettingChangesV3<bool, geodeExecFunction10<(anonymous namespace)::ExecFuncUnique10>(geode::ModStateEvent*)::{lambda(bool)#7}>(std::__ndk1::basic_string_view<char, std::__ndk1::char_traits<char> >, geodeExecFunction10<(anonymous namespace)::ExecFuncUnique10>(geode::ModStateEvent*)::{lambda(bool)#7}&&, geode::Mod*)::{lambda(std::__ndk1::shared_ptr<geode::SettingV3>)#1}>, void (std::__ndk1::shared_ptr<geode::SettingV3>)>::destroy()
PUBLIC 51100 0 std::__ndk1::__function::__func<geode::listenForSettingChangesV3<bool, geodeExecFunction10<(anonymous namespace)::ExecFuncUnique10>(geode::ModStateEvent*)::{lambda(bool)#7}>(std::__ndk1::basic_string_view<char, std::__ndk1::char_traits<char> >, geodeExecFunction10<(anonymous namespace)::ExecFuncUnique10>(geode::ModStateEvent*)::{lambda(bool)#7}&&, geode::Mod*)::{lambda(std::__ndk1::shared_ptr<geode::SettingV3>)#1}, std::__ndk1::allocator<geode::listenForSettingChangesV3<bool, geodeExecFunction10<(anonymous namespace)::ExecFuncUnique10>(geode::ModStateEvent*)::{lambda(bool)#7}>(std::__ndk1::basic_string_view<char, std::__ndk1::char_traits<char> >, geodeExecFunction10<(anonymous namespace)::ExecFuncUnique10>(geode::ModStateEvent*)::{lambda(bool)#7}&&, geode::Mod*)::{lambda(std::__ndk1::shared_ptr<geode::SettingV3>)#1}>, void (std::__ndk1::shared_ptr<geode::SettingV3>)>::destroy_deallocate()
PUBLIC 51104 0 std::__ndk1::__function::__func<geode::listenForSettingChangesV3<bool, geodeExecFunction10<(anonymous namespace)::ExecFuncUnique10>(geode::ModStateEvent*)::{lambda(bool)#7}>(std::__ndk1::basic_string_view<char, std::__ndk1::char_traits<char> >, geodeExecFunction10<(anonymous namespace)::ExecFuncUnique10>(geode::ModStateEvent*)::{lambda(bool)#7}&&, geode::Mod*)::{lambda(std::__ndk1::shared_ptr<geode::SettingV3>)#1}, std::__ndk1::allocator<geode::listenForSettingChangesV3<bool, geodeExecFunction10<(anonymous namespace)::ExecFuncUnique10>(geode::ModStateEvent*)::{lambda(bool)#7}>(std::__ndk1::basic_string_view<char, std::__ndk1::char_traits<char> >, geodeExecFunction10<(anonymous namespace)::ExecFuncUnique10>(geode::ModStateEvent*)::{lambda(bool)#7}&&, geode::Mod*)::{lambda(std::__ndk1::shared_ptr<geode::SettingV3>)#1}>, void (std::__ndk1::shared_ptr<geode::SettingV3>)>::operator()(std::__ndk1::shared_ptr<geode::SettingV3>&&)
PUBLIC 512b0 0 std::__ndk1::__function::__func<geode::listenForSettingChangesV3<bool, geodeExecFunction10<(anonymous namespace)::ExecFuncUnique10>(geode::ModStateEvent*)::{lambda(bool)#7}>(std::__ndk1::basic_string_view<char, std::__ndk1::char_traits<char> >, geodeExecFunction10<(anonymous namespace)::ExecFuncUnique10>(geode::ModStateEvent*)::{lambda(bool)#7}&&, geode::Mod*)::{lambda(std::__ndk1::shared_ptr<geode::SettingV3>)#1}, std::__ndk1::allocator<geode::listenForSettingChangesV3<bool, geodeExecFunction10<(anonymous namespace)::ExecFuncUnique10>(geode::ModStateEvent*)::{lambda(bool)#7}>(std::__ndk1::basic_string_view<char, std::__ndk1::char_traits<char> >, geodeExecFunction10<(anonymous namespace)::ExecFuncUnique10>(geode::ModStateEvent*)::{lambda(bool)#7}&&, geode::Mod*)::{lambda(std::__ndk1::shared_ptr<geode::SettingV3>)#1}>, void (std::__ndk1::shared_ptr<geode::SettingV3>)>::target(std::type_info const&) const
PUBLIC 512cc 0 std::__ndk1::__function::__func<geode::listenForSettingChangesV3<bool, geodeExecFunction10<(anonymous namespace)::ExecFuncUnique10>(geode::ModStateEvent*)::{lambda(bool)#7}>(std::__ndk1::basic_string_view<char, std::__ndk1::char_traits<char> >, geodeExecFunction10<(anonymous namespace)::ExecFuncUnique10>(geode::ModStateEvent*)::{lambda(bool)#7}&&, geode::Mod*)::{lambda(std::__ndk1::shared_ptr<geode::SettingV3>)#1}, std::__ndk1::allocator<geode::listenForSettingChangesV3<bool, geodeExecFunction10<(anonymous namespace)::ExecFuncUnique10>(geode::ModStateEvent*)::{lambda(bool)#7}>(std::__ndk1::basic_string_view<char, std::__ndk1::char_traits<char> >, geodeExecFunction10<(anonymous namespace)::ExecFuncUnique10>(geode::ModStateEvent*)::{lambda(bool)#7}&&, geode::Mod*)::{lambda(std::__ndk1::shared_ptr<geode::SettingV3>)#1}>, void (std::__ndk1::shared_ptr<geode::SettingV3>)>::target_type() const
PUBLIC 512d8 0 std::__ndk1::__function::__func<geode::listenForSettingChangesV3<bool, geodeExecFunction10<(anonymous namespace)::ExecFuncUnique10>(geode::ModStateEvent*)::{lambda(bool)#8}>(std::__ndk1::basic_string_view<char, std::__ndk1::char_traits<char> >, geodeExecFunction10<(anonymous namespace)::ExecFuncUnique10>(geode::ModStateEvent*)::{lambda(bool)#8}&&, geode::Mod*)::{lambda(std::__ndk1::shared_ptr<geode::SettingV3>)#1}, std::__ndk1::allocator<geode::listenForSettingChangesV3<bool, geodeExecFunction10<(anonymous namespace)::ExecFuncUnique10>(geode::ModStateEvent*)::{lambda(bool)#8}>(std::__ndk1::basic_string_view<char, std::__ndk1::char_traits<char> >, geodeExecFunction10<(anonymous namespace)::ExecFuncUnique10>(geode::ModStateEvent*)::{lambda(bool)#8}&&, geode::Mod*)::{lambda(std::__ndk1::shared_ptr<geode::SettingV3>)#1}>, void (std::__ndk1::shared_ptr<geode::SettingV3>)>::~__func()
PUBLIC 512dc 0 std::__ndk1::__function::__func<geode::listenForSettingChangesV3<bool, geodeExecFunction10<(anonymous namespace)::ExecFuncUnique10>(geode::ModStateEvent*)::{lambda(bool)#8}>(std::__ndk1::basic_string_view<char, std::__ndk1::char_traits<char> >, geodeExecFunction10<(anonymous namespace)::ExecFuncUnique10>(geode::ModStateEvent*)::{lambda(bool)#8}&&, geode::Mod*)::{lambda(std::__ndk1::shared_ptr<geode::SettingV3>)#1}, std::__ndk1::allocator<geode::listenForSettingChangesV3<bool, geodeExecFunction10<(anonymous namespace)::ExecFuncUnique10>(geode::ModStateEvent*)::{lambda(bool)#8}>(std::__ndk1::basic_string_view<char, std::__ndk1::char_traits<char> >, geodeExecFunction10<(anonymous namespace)::ExecFuncUnique10>(geode::ModStateEvent*)::{lambda(bool)#8}&&, geode::Mod*)::{lambda(std::__ndk1::shared_ptr<geode::SettingV3>)#1}>, void (std::__ndk1::shared_ptr<geode::SettingV3>)>::__clone() const
PUBLIC 51314 0 std::__ndk1::__function::__func<geode::listenForSettingChangesV3<bool, geodeExecFunction10<(anonymous namespace)::ExecFuncUnique10>(geode::ModStateEvent*)::{lambda(bool)#8}>(std::__ndk1::basic_string_view<char, std::__ndk1::char_traits<char> >, geodeExecFunction10<(anonymous namespace)::ExecFuncUnique10>(geode::ModStateEvent*)::{lambda(bool)#8}&&, geode::Mod*)::{lambda(std::__ndk1::shared_ptr<geode::SettingV3>)#1}, std::__ndk1::allocator<geode::listenForSettingChangesV3<bool, geodeExecFunction10<(anonymous namespace)::ExecFuncUnique10>(geode::ModStateEvent*)::{lambda(bool)#8}>(std::__ndk1::basic_string_view<char, std::__ndk1::char_traits<char> >, geodeExecFunction10<(anonymous namespace)::ExecFuncUnique10>(geode::ModStateEvent*)::{lambda(bool)#8}&&, geode::Mod*)::{lambda(std::__ndk1::shared_ptr<geode::SettingV3>)#1}>, void (std::__ndk1::shared_ptr<geode::SettingV3>)>::__clone(std::__ndk1::__function::__base<void (std::__ndk1::shared_ptr<geode::SettingV3>)>*) const
PUBLIC 5132c 0 std::__ndk1::__function::__func<geode::listenForSettingChangesV3<bool, geodeExecFunction10<(anonymous namespace)::ExecFuncUnique10>(geode::ModStateEvent*)::{lambda(bool)#8}>(std::__ndk1::basic_string_view<char, std::__ndk1::char_traits<char> >, geodeExecFunction10<(anonymous namespace)::ExecFuncUnique10>(geode::ModStateEvent*)::{lambda(bool)#8}&&, geode::Mod*)::{lambda(std::__ndk1::shared_ptr<geode::SettingV3>)#1}, std::__ndk1::allocator<geode::listenForSettingChangesV3<bool, geodeExecFunction10<(anonymous namespace)::ExecFuncUnique10>(geode::ModStateEvent*)::{lambda(bool)#8}>(std::__ndk1::basic_string_view<char, std::__ndk1::char_traits<char> >, geodeExecFunction10<(anonymous namespace)::ExecFuncUnique10>(geode::ModStateEvent*)::{lambda(bool)#8}&&, geode::Mod*)::{lambda(std::__ndk1::shared_ptr<geode::SettingV3>)#1}>, void (std::__ndk1::shared_ptr<geode::SettingV3>)>::destroy()
PUBLIC 51330 0 std::__ndk1::__function::__func<geode::listenForSettingChangesV3<bool, geodeExecFunction10<(anonymous namespace)::ExecFuncUnique10>(geode::ModStateEvent*)::{lambda(bool)#8}>(std::__ndk1::basic_string_view<char, std::__ndk1::char_traits<char> >, geodeExecFunction10<(anonymous namespace)::ExecFuncUnique10>(geode::ModStateEvent*)::{lambda(bool)#8}&&, geode::Mod*)::{lambda(std::__ndk1::shared_ptr<geode::SettingV3>)#1}, std::__ndk1::allocator<geode::listenForSettingChangesV3<bool, geodeExecFunction10<(anonymous namespace)::ExecFuncUnique10>(geode::ModStateEvent*)::{lambda(bool)#8}>(std::__ndk1::basic_string_view<char, std::__ndk1::char_traits<char> >, geodeExecFunction10<(anonymous namespace)::ExecFuncUnique10>(geode::ModStateEvent*)::{lambda(bool)#8}&&, geode::Mod*)::{lambda(std::__ndk1::shared_ptr<geode::SettingV3>)#1}>, void (std::__ndk1::shared_ptr<geode::SettingV3>)>::destroy_deallocate()
PUBLIC 51334 0 std::__ndk1::__function::__func<geode::listenForSettingChangesV3<bool, geodeExecFunction10<(anonymous namespace)::ExecFuncUnique10>(geode::ModStateEvent*)::{lambda(bool)#8}>(std::__ndk1::basic_string_view<char, std::__ndk1::char_traits<char> >, geodeExecFunction10<(anonymous namespace)::ExecFuncUnique10>(geode::ModStateEvent*)::{lambda(bool)#8}&&, geode::Mod*)::{lambda(std::__ndk1::shared_ptr<geode::SettingV3>)#1}, std::__ndk1::allocator<geode::listenForSettingChangesV3<bool, geodeExecFunction10<(anonymous namespace)::ExecFuncUnique10>(geode::ModStateEvent*)::{lambda(bool)#8}>(std::__ndk1::basic_string_view<char, std::__ndk1::char_traits<char> >, geodeExecFunction10<(anonymous namespace)::ExecFuncUnique10>(geode::ModStateEvent*)::{lambda(bool)#8}&&, geode::Mod*)::{lambda(std::__ndk1::shared_ptr<geode::SettingV3>)#1}>, void (std::__ndk1::shared_ptr<geode::SettingV3>)>::operator()(std::__ndk1::shared_ptr<geode::SettingV3>&&)
PUBLIC 514e0 0 std::__ndk1::__function::__func<geode::listenForSettingChangesV3<bool, geodeExecFunction10<(anonymous namespace)::ExecFuncUnique10>(geode::ModStateEvent*)::{lambda(bool)#8}>(std::__ndk1::basic_string_view<char, std::__ndk1::char_traits<char> >, geodeExecFunction10<(anonymous namespace)::ExecFuncUnique10>(geode::ModStateEvent*)::{lambda(bool)#8}&&, geode::Mod*)::{lambda(std::__ndk1::shared_ptr<geode::SettingV3>)#1}, std::__ndk1::allocator<geode::listenForSettingChangesV3<bool, geodeExecFunction10<(anonymous namespace)::ExecFuncUnique10>(geode::ModStateEvent*)::{lambda(bool)#8}>(std::__ndk1::basic_string_view<char, std::__ndk1::char_traits<char> >, geodeExecFunction10<(anonymous namespace)::ExecFuncUnique10>(geode::ModStateEvent*)::{lambda(bool)#8}&&, geode::Mod*)::{lambda(std::__ndk1::shared_ptr<geode::SettingV3>)#1}>, void (std::__ndk1::shared_ptr<geode::SettingV3>)>::target(std::type_info const&) const
PUBLIC 514fc 0 std::__ndk1::__function::__func<geode::listenForSettingChangesV3<bool, geodeExecFunction10<(anonymous namespace)::ExecFuncUnique10>(geode::ModStateEvent*)::{lambda(bool)#8}>(std::__ndk1::basic_string_view<char, std::__ndk1::char_traits<char> >, geodeExecFunction10<(anonymous namespace)::ExecFuncUnique10>(geode::ModStateEvent*)::{lambda(bool)#8}&&, geode::Mod*)::{lambda(std::__ndk1::shared_ptr<geode::SettingV3>)#1}, std::__ndk1::allocator<geode::listenForSettingChangesV3<bool, geodeExecFunction10<(anonymous namespace)::ExecFuncUnique10>(geode::ModStateEvent*)::{lambda(bool)#8}>(std::__ndk1::basic_string_view<char, std::__ndk1::char_traits<char> >, geodeExecFunction10<(anonymous namespace)::ExecFuncUnique10>(geode::ModStateEvent*)::{lambda(bool)#8}&&, geode::Mod*)::{lambda(std::__ndk1::shared_ptr<geode::SettingV3>)#1}>, void (std::__ndk1::shared_ptr<geode::SettingV3>)>::target_type() const
PUBLIC 51508 0 std::__ndk1::__function::__func<geode::listenForSettingChangesV3<bool, geodeExecFunction10<(anonymous namespace)::ExecFuncUnique10>(geode::ModStateEvent*)::{lambda(bool)#9}>(std::__ndk1::basic_string_view<char, std::__ndk1::char_traits<char> >, geodeExecFunction10<(anonymous namespace)::ExecFuncUnique10>(geode::ModStateEvent*)::{lambda(bool)#9}&&, geode::Mod*)::{lambda(std::__ndk1::shared_ptr<geode::SettingV3>)#1}, std::__ndk1::allocator<geode::listenForSettingChangesV3<bool, geodeExecFunction10<(anonymous namespace)::ExecFuncUnique10>(geode::ModStateEvent*)::{lambda(bool)#9}>(std::__ndk1::basic_string_view<char, std::__ndk1::char_traits<char> >, geodeExecFunction10<(anonymous namespace)::ExecFuncUnique10>(geode::ModStateEvent*)::{lambda(bool)#9}&&, geode::Mod*)::{lambda(std::__ndk1::shared_ptr<geode::SettingV3>)#1}>, void (std::__ndk1::shared_ptr<geode::SettingV3>)>::~__func()
PUBLIC 5150c 0 std::__ndk1::__function::__func<geode::listenForSettingChangesV3<bool, geodeExecFunction10<(anonymous namespace)::ExecFuncUnique10>(geode::ModStateEvent*)::{lambda(bool)#9}>(std::__ndk1::basic_string_view<char, std::__ndk1::char_traits<char> >, geodeExecFunction10<(anonymous namespace)::ExecFuncUnique10>(geode::ModStateEvent*)::{lambda(bool)#9}&&, geode::Mod*)::{lambda(std::__ndk1::shared_ptr<geode::SettingV3>)#1}, std::__ndk1::allocator<geode::listenForSettingChangesV3<bool, geodeExecFunction10<(anonymous namespace)::ExecFuncUnique10>(geode::ModStateEvent*)::{lambda(bool)#9}>(std::__ndk1::basic_string_view<char, std::__ndk1::char_traits<char> >, geodeExecFunction10<(anonymous namespace)::ExecFuncUnique10>(geode::ModStateEvent*)::{lambda(bool)#9}&&, geode::Mod*)::{lambda(std::__ndk1::shared_ptr<geode::SettingV3>)#1}>, void (std::__ndk1::shared_ptr<geode::SettingV3>)>::__clone() const
PUBLIC 51544 0 std::__ndk1::__function::__func<geode::listenForSettingChangesV3<bool, geodeExecFunction10<(anonymous namespace)::ExecFuncUnique10>(geode::ModStateEvent*)::{lambda(bool)#9}>(std::__ndk1::basic_string_view<char, std::__ndk1::char_traits<char> >, geodeExecFunction10<(anonymous namespace)::ExecFuncUnique10>(geode::ModStateEvent*)::{lambda(bool)#9}&&, geode::Mod*)::{lambda(std::__ndk1::shared_ptr<geode::SettingV3>)#1}, std::__ndk1::allocator<geode::listenForSettingChangesV3<bool, geodeExecFunction10<(anonymous namespace)::ExecFuncUnique10>(geode::ModStateEvent*)::{lambda(bool)#9}>(std::__ndk1::basic_string_view<char, std::__ndk1::char_traits<char> >, geodeExecFunction10<(anonymous namespace)::ExecFuncUnique10>(geode::ModStateEvent*)::{lambda(bool)#9}&&, geode::Mod*)::{lambda(std::__ndk1::shared_ptr<geode::SettingV3>)#1}>, void (std::__ndk1::shared_ptr<geode::SettingV3>)>::__clone(std::__ndk1::__function::__base<void (std::__ndk1::shared_ptr<geode::SettingV3>)>*) const
PUBLIC 5155c 0 std::__ndk1::__function::__func<geode::listenForSettingChangesV3<bool, geodeExecFunction10<(anonymous namespace)::ExecFuncUnique10>(geode::ModStateEvent*)::{lambda(bool)#9}>(std::__ndk1::basic_string_view<char, std::__ndk1::char_traits<char> >, geodeExecFunction10<(anonymous namespace)::ExecFuncUnique10>(geode::ModStateEvent*)::{lambda(bool)#9}&&, geode::Mod*)::{lambda(std::__ndk1::shared_ptr<geode::SettingV3>)#1}, std::__ndk1::allocator<geode::listenForSettingChangesV3<bool, geodeExecFunction10<(anonymous namespace)::ExecFuncUnique10>(geode::ModStateEvent*)::{lambda(bool)#9}>(std::__ndk1::basic_string_view<char, std::__ndk1::char_traits<char> >, geodeExecFunction10<(anonymous namespace)::ExecFuncUnique10>(geode::ModStateEvent*)::{lambda(bool)#9}&&, geode::Mod*)::{lambda(std::__ndk1::shared_ptr<geode::SettingV3>)#1}>, void (std::__ndk1::shared_ptr<geode::SettingV3>)>::destroy()
PUBLIC 51560 0 std::__ndk1::__function::__func<geode::listenForSettingChangesV3<bool, geodeExecFunction10<(anonymous namespace)::ExecFuncUnique10>(geode::ModStateEvent*)::{lambda(bool)#9}>(std::__ndk1::basic_string_view<char, std::__ndk1::char_traits<char> >, geodeExecFunction10<(anonymous namespace)::ExecFuncUnique10>(geode::ModStateEvent*)::{lambda(bool)#9}&&, geode::Mod*)::{lambda(std::__ndk1::shared_ptr<geode::SettingV3>)#1}, std::__ndk1::allocator<geode::listenForSettingChangesV3<bool, geodeExecFunction10<(anonymous namespace)::ExecFuncUnique10>(geode::ModStateEvent*)::{lambda(bool)#9}>(std::__ndk1::basic_string_view<char, std::__ndk1::char_traits<char> >, geodeExecFunction10<(anonymous namespace)::ExecFuncUnique10>(geode::ModStateEvent*)::{lambda(bool)#9}&&, geode::Mod*)::{lambda(std::__ndk1::shared_ptr<geode::SettingV3>)#1}>, void (std::__ndk1::shared_ptr<geode::SettingV3>)>::destroy_deallocate()
PUBLIC 51564 0 std::__ndk1::__function::__func<geode::listenForSettingChangesV3<bool, geodeExecFunction10<(anonymous namespace)::ExecFuncUnique10>(geode::ModStateEvent*)::{lambda(bool)#9}>(std::__ndk1::basic_string_view<char, std::__ndk1::char_traits<char> >, geodeExecFunction10<(anonymous namespace)::ExecFuncUnique10>(geode::ModStateEvent*)::{lambda(bool)#9}&&, geode::Mod*)::{lambda(std::__ndk1::shared_ptr<geode::SettingV3>)#1}, std::__ndk1::allocator<geode::listenForSettingChangesV3<bool, geodeExecFunction10<(anonymous namespace)::ExecFuncUnique10>(geode::ModStateEvent*)::{lambda(bool)#9}>(std::__ndk1::basic_string_view<char, std::__ndk1::char_traits<char> >, geodeExecFunction10<(anonymous namespace)::ExecFuncUnique10>(geode::ModStateEvent*)::{lambda(bool)#9}&&, geode::Mod*)::{lambda(std::__ndk1::shared_ptr<geode::SettingV3>)#1}>, void (std::__ndk1::shared_ptr<geode::SettingV3>)>::operator()(std::__ndk1::shared_ptr<geode::SettingV3>&&)
PUBLIC 51710 0 std::__ndk1::__function::__func<geode::listenForSettingChangesV3<bool, geodeExecFunction10<(anonymous namespace)::ExecFuncUnique10>(geode::ModStateEvent*)::{lambda(bool)#9}>(std::__ndk1::basic_string_view<char, std::__ndk1::char_traits<char> >, geodeExecFunction10<(anonymous namespace)::ExecFuncUnique10>(geode::ModStateEvent*)::{lambda(bool)#9}&&, geode::Mod*)::{lambda(std::__ndk1::shared_ptr<geode::SettingV3>)#1}, std::__ndk1::allocator<geode::listenForSettingChangesV3<bool, geodeExecFunction10<(anonymous namespace)::ExecFuncUnique10>(geode::ModStateEvent*)::{lambda(bool)#9}>(std::__ndk1::basic_string_view<char, std::__ndk1::char_traits<char> >, geodeExecFunction10<(anonymous namespace)::ExecFuncUnique10>(geode::ModStateEvent*)::{lambda(bool)#9}&&, geode::Mod*)::{lambda(std::__ndk1::shared_ptr<geode::SettingV3>)#1}>, void (std::__ndk1::shared_ptr<geode::SettingV3>)>::target(std::type_info const&) const
PUBLIC 5172c 0 std::__ndk1::__function::__func<geode::listenForSettingChangesV3<bool, geodeExecFunction10<(anonymous namespace)::ExecFuncUnique10>(geode::ModStateEvent*)::{lambda(bool)#9}>(std::__ndk1::basic_string_view<char, std::__ndk1::char_traits<char> >, geodeExecFunction10<(anonymous namespace)::ExecFuncUnique10>(geode::ModStateEvent*)::{lambda(bool)#9}&&, geode::Mod*)::{lambda(std::__ndk1::shared_ptr<geode::SettingV3>)#1}, std::__ndk1::allocator<geode::listenForSettingChangesV3<bool, geodeExecFunction10<(anonymous namespace)::ExecFuncUnique10>(geode::ModStateEvent*)::{lambda(bool)#9}>(std::__ndk1::basic_string_view<char, std::__ndk1::char_traits<char> >, geodeExecFunction10<(anonymous namespace)::ExecFuncUnique10>(geode::ModStateEvent*)::{lambda(bool)#9}&&, geode::Mod*)::{lambda(std::__ndk1::shared_ptr<geode::SettingV3>)#1}>, void (std::__ndk1::shared_ptr<geode::SettingV3>)>::target_type() const
PUBLIC 51738 0 std::__ndk1::__function::__func<geode::listenForSettingChangesV3<bool, geodeExecFunction10<(anonymous namespace)::ExecFuncUnique10>(geode::ModStateEvent*)::{lambda(bool)#10}>(std::__ndk1::basic_string_view<char, std::__ndk1::char_traits<char> >, geodeExecFunction10<(anonymous namespace)::ExecFuncUnique10>(geode::ModStateEvent*)::{lambda(bool)#10}&&, geode::Mod*)::{lambda(std::__ndk1::shared_ptr<geode::SettingV3>)#1}, std::__ndk1::allocator<geode::listenForSettingChangesV3<bool, geodeExecFunction10<(anonymous namespace)::ExecFuncUnique10>(geode::ModStateEvent*)::{lambda(bool)#10}>(std::__ndk1::basic_string_view<char, std::__ndk1::char_traits<char> >, geodeExecFunction10<(anonymous namespace)::ExecFuncUnique10>(geode::ModStateEvent*)::{lambda(bool)#10}&&, geode::Mod*)::{lambda(std::__ndk1::shared_ptr<geode::SettingV3>)#1}>, void (std::__ndk1::shared_ptr<geode::SettingV3>)>::~__func()
PUBLIC 5173c 0 std::__ndk1::__function::__func<geode::listenForSettingChangesV3<bool, geodeExecFunction10<(anonymous namespace)::ExecFuncUnique10>(geode::ModStateEvent*)::{lambda(bool)#10}>(std::__ndk1::basic_string_view<char, std::__ndk1::char_traits<char> >, geodeExecFunction10<(anonymous namespace)::ExecFuncUnique10>(geode::ModStateEvent*)::{lambda(bool)#10}&&, geode::Mod*)::{lambda(std::__ndk1::shared_ptr<geode::SettingV3>)#1}, std::__ndk1::allocator<geode::listenForSettingChangesV3<bool, geodeExecFunction10<(anonymous namespace)::ExecFuncUnique10>(geode::ModStateEvent*)::{lambda(bool)#10}>(std::__ndk1::basic_string_view<char, std::__ndk1::char_traits<char> >, geodeExecFunction10<(anonymous namespace)::ExecFuncUnique10>(geode::ModStateEvent*)::{lambda(bool)#10}&&, geode::Mod*)::{lambda(std::__ndk1::shared_ptr<geode::SettingV3>)#1}>, void (std::__ndk1::shared_ptr<geode::SettingV3>)>::__clone() const
PUBLIC 51774 0 std::__ndk1::__function::__func<geode::listenForSettingChangesV3<bool, geodeExecFunction10<(anonymous namespace)::ExecFuncUnique10>(geode::ModStateEvent*)::{lambda(bool)#10}>(std::__ndk1::basic_string_view<char, std::__ndk1::char_traits<char> >, geodeExecFunction10<(anonymous namespace)::ExecFuncUnique10>(geode::ModStateEvent*)::{lambda(bool)#10}&&, geode::Mod*)::{lambda(std::__ndk1::shared_ptr<geode::SettingV3>)#1}, std::__ndk1::allocator<geode::listenForSettingChangesV3<bool, geodeExecFunction10<(anonymous namespace)::ExecFuncUnique10>(geode::ModStateEvent*)::{lambda(bool)#10}>(std::__ndk1::basic_string_view<char, std::__ndk1::char_traits<char> >, geodeExecFunction10<(anonymous namespace)::ExecFuncUnique10>(geode::ModStateEvent*)::{lambda(bool)#10}&&, geode::Mod*)::{lambda(std::__ndk1::shared_ptr<geode::SettingV3>)#1}>, void (std::__ndk1::shared_ptr<geode::SettingV3>)>::__clone(std::__ndk1::__function::__base<void (std::__ndk1::shared_ptr<geode::SettingV3>)>*) const
PUBLIC 5178c 0 std::__ndk1::__function::__func<geode::listenForSettingChangesV3<bool, geodeExecFunction10<(anonymous namespace)::ExecFuncUnique10>(geode::ModStateEvent*)::{lambda(bool)#10}>(std::__ndk1::basic_string_view<char, std::__ndk1::char_traits<char> >, geodeExecFunction10<(anonymous namespace)::ExecFuncUnique10>(geode::ModStateEvent*)::{lambda(bool)#10}&&, geode::Mod*)::{lambda(std::__ndk1::shared_ptr<geode::SettingV3>)#1}, std::__ndk1::allocator<geode::listenForSettingChangesV3<bool, geodeExecFunction10<(anonymous namespace)::ExecFuncUnique10>(geode::ModStateEvent*)::{lambda(bool)#10}>(std::__ndk1::basic_string_view<char, std::__ndk1::char_traits<char> >, geodeExecFunction10<(anonymous namespace)::ExecFuncUnique10>(geode::ModStateEvent*)::{lambda(bool)#10}&&, geode::Mod*)::{lambda(std::__ndk1::shared_ptr<geode::SettingV3>)#1}>, void (std::__ndk1::shared_ptr<geode::SettingV3>)>::destroy()
PUBLIC 51790 0 std::__ndk1::__function::__func<geode::listenForSettingChangesV3<bool, geodeExecFunction10<(anonymous namespace)::ExecFuncUnique10>(geode::ModStateEvent*)::{lambda(bool)#10}>(std::__ndk1::basic_string_view<char, std::__ndk1::char_traits<char> >, geodeExecFunction10<(anonymous namespace)::ExecFuncUnique10>(geode::ModStateEvent*)::{lambda(bool)#10}&&, geode::Mod*)::{lambda(std::__ndk1::shared_ptr<geode::SettingV3>)#1}, std::__ndk1::allocator<geode::listenForSettingChangesV3<bool, geodeExecFunction10<(anonymous namespace)::ExecFuncUnique10>(geode::ModStateEvent*)::{lambda(bool)#10}>(std::__ndk1::basic_string_view<char, std::__ndk1::char_traits<char> >, geodeExecFunction10<(anonymous namespace)::ExecFuncUnique10>(geode::ModStateEvent*)::{lambda(bool)#10}&&, geode::Mod*)::{lambda(std::__ndk1::shared_ptr<geode::SettingV3>)#1}>, void (std::__ndk1::shared_ptr<geode::SettingV3>)>::destroy_deallocate()
PUBLIC 51794 0 std::__ndk1::__function::__func<geode::listenForSettingChangesV3<bool, geodeExecFunction10<(anonymous namespace)::ExecFuncUnique10>(geode::ModStateEvent*)::{lambda(bool)#10}>(std::__ndk1::basic_string_view<char, std::__ndk1::char_traits<char> >, geodeExecFunction10<(anonymous namespace)::ExecFuncUnique10>(geode::ModStateEvent*)::{lambda(bool)#10}&&, geode::Mod*)::{lambda(std::__ndk1::shared_ptr<geode::SettingV3>)#1}, std::__ndk1::allocator<geode::listenForSettingChangesV3<bool, geodeExecFunction10<(anonymous namespace)::ExecFuncUnique10>(geode::ModStateEvent*)::{lambda(bool)#10}>(std::__ndk1::basic_string_view<char, std::__ndk1::char_traits<char> >, geodeExecFunction10<(anonymous namespace)::ExecFuncUnique10>(geode::ModStateEvent*)::{lambda(bool)#10}&&, geode::Mod*)::{lambda(std::__ndk1::shared_ptr<geode::SettingV3>)#1}>, void (std::__ndk1::shared_ptr<geode::SettingV3>)>::operator()(std::__ndk1::shared_ptr<geode::SettingV3>&&)
PUBLIC 51940 0 std::__ndk1::__function::__func<geode::listenForSettingChangesV3<bool, geodeExecFunction10<(anonymous namespace)::ExecFuncUnique10>(geode::ModStateEvent*)::{lambda(bool)#10}>(std::__ndk1::basic_string_view<char, std::__ndk1::char_traits<char> >, geodeExecFunction10<(anonymous namespace)::ExecFuncUnique10>(geode::ModStateEvent*)::{lambda(bool)#10}&&, geode::Mod*)::{lambda(std::__ndk1::shared_ptr<geode::SettingV3>)#1}, std::__ndk1::allocator<geode::listenForSettingChangesV3<bool, geodeExecFunction10<(anonymous namespace)::ExecFuncUnique10>(geode::ModStateEvent*)::{lambda(bool)#10}>(std::__ndk1::basic_string_view<char, std::__ndk1::char_traits<char> >, geodeExecFunction10<(anonymous namespace)::ExecFuncUnique10>(geode::ModStateEvent*)::{lambda(bool)#10}&&, geode::Mod*)::{lambda(std::__ndk1::shared_ptr<geode::SettingV3>)#1}>, void (std::__ndk1::shared_ptr<geode::SettingV3>)>::target(std::type_info const&) const
PUBLIC 5195c 0 std::__ndk1::__function::__func<geode::listenForSettingChangesV3<bool, geodeExecFunction10<(anonymous namespace)::ExecFuncUnique10>(geode::ModStateEvent*)::{lambda(bool)#10}>(std::__ndk1::basic_string_view<char, std::__ndk1::char_traits<char> >, geodeExecFunction10<(anonymous namespace)::ExecFuncUnique10>(geode::ModStateEvent*)::{lambda(bool)#10}&&, geode::Mod*)::{lambda(std::__ndk1::shared_ptr<geode::SettingV3>)#1}, std::__ndk1::allocator<geode::listenForSettingChangesV3<bool, geodeExecFunction10<(anonymous namespace)::ExecFuncUnique10>(geode::ModStateEvent*)::{lambda(bool)#10}>(std::__ndk1::basic_string_view<char, std::__ndk1::char_traits<char> >, geodeExecFunction10<(anonymous namespace)::ExecFuncUnique10>(geode::ModStateEvent*)::{lambda(bool)#10}&&, geode::Mod*)::{lambda(std::__ndk1::shared_ptr<geode::SettingV3>)#1}>, void (std::__ndk1::shared_ptr<geode::SettingV3>)>::target_type() const
PUBLIC 51968 0 std::__ndk1::__function::__func<geode::listenForSettingChangesV3<bool, geodeExecFunction10<(anonymous namespace)::ExecFuncUnique10>(geode::ModStateEvent*)::{lambda(bool)#11}>(std::__ndk1::basic_string_view<char, std::__ndk1::char_traits<char> >, geodeExecFunction10<(anonymous namespace)::ExecFuncUnique10>(geode::ModStateEvent*)::{lambda(bool)#11}&&, geode::Mod*)::{lambda(std::__ndk1::shared_ptr<geode::SettingV3>)#1}, std::__ndk1::allocator<geode::listenForSettingChangesV3<bool, geodeExecFunction10<(anonymous namespace)::ExecFuncUnique10>(geode::ModStateEvent*)::{lambda(bool)#11}>(std::__ndk1::basic_string_view<char, std::__ndk1::char_traits<char> >, geodeExecFunction10<(anonymous namespace)::ExecFuncUnique10>(geode::ModStateEvent*)::{lambda(bool)#11}&&, geode::Mod*)::{lambda(std::__ndk1::shared_ptr<geode::SettingV3>)#1}>, void (std::__ndk1::shared_ptr<geode::SettingV3>)>::~__func()
PUBLIC 5196c 0 std::__ndk1::__function::__func<geode::listenForSettingChangesV3<bool, geodeExecFunction10<(anonymous namespace)::ExecFuncUnique10>(geode::ModStateEvent*)::{lambda(bool)#11}>(std::__ndk1::basic_string_view<char, std::__ndk1::char_traits<char> >, geodeExecFunction10<(anonymous namespace)::ExecFuncUnique10>(geode::ModStateEvent*)::{lambda(bool)#11}&&, geode::Mod*)::{lambda(std::__ndk1::shared_ptr<geode::SettingV3>)#1}, std::__ndk1::allocator<geode::listenForSettingChangesV3<bool, geodeExecFunction10<(anonymous namespace)::ExecFuncUnique10>(geode::ModStateEvent*)::{lambda(bool)#11}>(std::__ndk1::basic_string_view<char, std::__ndk1::char_traits<char> >, geodeExecFunction10<(anonymous namespace)::ExecFuncUnique10>(geode::ModStateEvent*)::{lambda(bool)#11}&&, geode::Mod*)::{lambda(std::__ndk1::shared_ptr<geode::SettingV3>)#1}>, void (std::__ndk1::shared_ptr<geode::SettingV3>)>::__clone() const
PUBLIC 519a4 0 std::__ndk1::__function::__func<geode::listenForSettingChangesV3<bool, geodeExecFunction10<(anonymous namespace)::ExecFuncUnique10>(geode::ModStateEvent*)::{lambda(bool)#11}>(std::__ndk1::basic_string_view<char, std::__ndk1::char_traits<char> >, geodeExecFunction10<(anonymous namespace)::ExecFuncUnique10>(geode::ModStateEvent*)::{lambda(bool)#11}&&, geode::Mod*)::{lambda(std::__ndk1::shared_ptr<geode::SettingV3>)#1}, std::__ndk1::allocator<geode::listenForSettingChangesV3<bool, geodeExecFunction10<(anonymous namespace)::ExecFuncUnique10>(geode::ModStateEvent*)::{lambda(bool)#11}>(std::__ndk1::basic_string_view<char, std::__ndk1::char_traits<char> >, geodeExecFunction10<(anonymous namespace)::ExecFuncUnique10>(geode::ModStateEvent*)::{lambda(bool)#11}&&, geode::Mod*)::{lambda(std::__ndk1::shared_ptr<geode::SettingV3>)#1}>, void (std::__ndk1::shared_ptr<geode::SettingV3>)>::__clone(std::__ndk1::__function::__base<void (std::__ndk1::shared_ptr<geode::SettingV3>)>*) const
PUBLIC 519bc 0 std::__ndk1::__function::__func<geode::listenForSettingChangesV3<bool, geodeExecFunction10<(anonymous namespace)::ExecFuncUnique10>(geode::ModStateEvent*)::{lambda(bool)#11}>(std::__ndk1::basic_string_view<char, std::__ndk1::char_traits<char> >, geodeExecFunction10<(anonymous namespace)::ExecFuncUnique10>(geode::ModStateEvent*)::{lambda(bool)#11}&&, geode::Mod*)::{lambda(std::__ndk1::shared_ptr<geode::SettingV3>)#1}, std::__ndk1::allocator<geode::listenForSettingChangesV3<bool, geodeExecFunction10<(anonymous namespace)::ExecFuncUnique10>(geode::ModStateEvent*)::{lambda(bool)#11}>(std::__ndk1::basic_string_view<char, std::__ndk1::char_traits<char> >, geodeExecFunction10<(anonymous namespace)::ExecFuncUnique10>(geode::ModStateEvent*)::{lambda(bool)#11}&&, geode::Mod*)::{lambda(std::__ndk1::shared_ptr<geode::SettingV3>)#1}>, void (std::__ndk1::shared_ptr<geode::SettingV3>)>::destroy()
PUBLIC 519c0 0 std::__ndk1::__function::__func<geode::listenForSettingChangesV3<bool, geodeExecFunction10<(anonymous namespace)::ExecFuncUnique10>(geode::ModStateEvent*)::{lambda(bool)#11}>(std::__ndk1::basic_string_view<char, std::__ndk1::char_traits<char> >, geodeExecFunction10<(anonymous namespace)::ExecFuncUnique10>(geode::ModStateEvent*)::{lambda(bool)#11}&&, geode::Mod*)::{lambda(std::__ndk1::shared_ptr<geode::SettingV3>)#1}, std::__ndk1::allocator<geode::listenForSettingChangesV3<bool, geodeExecFunction10<(anonymous namespace)::ExecFuncUnique10>(geode::ModStateEvent*)::{lambda(bool)#11}>(std::__ndk1::basic_string_view<char, std::__ndk1::char_traits<char> >, geodeExecFunction10<(anonymous namespace)::ExecFuncUnique10>(geode::ModStateEvent*)::{lambda(bool)#11}&&, geode::Mod*)::{lambda(std::__ndk1::shared_ptr<geode::SettingV3>)#1}>, void (std::__ndk1::shared_ptr<geode::SettingV3>)>::destroy_deallocate()
PUBLIC 519c4 0 std::__ndk1::__function::__func<geode::listenForSettingChangesV3<bool, geodeExecFunction10<(anonymous namespace)::ExecFuncUnique10>(geode::ModStateEvent*)::{lambda(bool)#11}>(std::__ndk1::basic_string_view<char, std::__ndk1::char_traits<char> >, geodeExecFunction10<(anonymous namespace)::ExecFuncUnique10>(geode::ModStateEvent*)::{lambda(bool)#11}&&, geode::Mod*)::{lambda(std::__ndk1::shared_ptr<geode::SettingV3>)#1}, std::__ndk1::allocator<geode::listenForSettingChangesV3<bool, geodeExecFunction10<(anonymous namespace)::ExecFuncUnique10>(geode::ModStateEvent*)::{lambda(bool)#11}>(std::__ndk1::basic_string_view<char, std::__ndk1::char_traits<char> >, geodeExecFunction10<(anonymous namespace)::ExecFuncUnique10>(geode::ModStateEvent*)::{lambda(bool)#11}&&, geode::Mod*)::{lambda(std::__ndk1::shared_ptr<geode::SettingV3>)#1}>, void (std::__ndk1::shared_ptr<geode::SettingV3>)>::operator()(std::__ndk1::shared_ptr<geode::SettingV3>&&)
PUBLIC 51b70 0 std::__ndk1::__function::__func<geode::listenForSettingChangesV3<bool, geodeExecFunction10<(anonymous namespace)::ExecFuncUnique10>(geode::ModStateEvent*)::{lambda(bool)#11}>(std::__ndk1::basic_string_view<char, std::__ndk1::char_traits<char> >, geodeExecFunction10<(anonymous namespace)::ExecFuncUnique10>(geode::ModStateEvent*)::{lambda(bool)#11}&&, geode::Mod*)::{lambda(std::__ndk1::shared_ptr<geode::SettingV3>)#1}, std::__ndk1::allocator<geode::listenForSettingChangesV3<bool, geodeExecFunction10<(anonymous namespace)::ExecFuncUnique10>(geode::ModStateEvent*)::{lambda(bool)#11}>(std::__ndk1::basic_string_view<char, std::__ndk1::char_traits<char> >, geodeExecFunction10<(anonymous namespace)::ExecFuncUnique10>(geode::ModStateEvent*)::{lambda(bool)#11}&&, geode::Mod*)::{lambda(std::__ndk1::shared_ptr<geode::SettingV3>)#1}>, void (std::__ndk1::shared_ptr<geode::SettingV3>)>::target(std::type_info const&) const
PUBLIC 51b8c 0 std::__ndk1::__function::__func<geode::listenForSettingChangesV3<bool, geodeExecFunction10<(anonymous namespace)::ExecFuncUnique10>(geode::ModStateEvent*)::{lambda(bool)#11}>(std::__ndk1::basic_string_view<char, std::__ndk1::char_traits<char> >, geodeExecFunction10<(anonymous namespace)::ExecFuncUnique10>(geode::ModStateEvent*)::{lambda(bool)#11}&&, geode::Mod*)::{lambda(std::__ndk1::shared_ptr<geode::SettingV3>)#1}, std::__ndk1::allocator<geode::listenForSettingChangesV3<bool, geodeExecFunction10<(anonymous namespace)::ExecFuncUnique10>(geode::ModStateEvent*)::{lambda(bool)#11}>(std::__ndk1::basic_string_view<char, std::__ndk1::char_traits<char> >, geodeExecFunction10<(anonymous namespace)::ExecFuncUnique10>(geode::ModStateEvent*)::{lambda(bool)#11}&&, geode::Mod*)::{lambda(std::__ndk1::shared_ptr<geode::SettingV3>)#1}>, void (std::__ndk1::shared_ptr<geode::SettingV3>)>::target_type() const
PUBLIC 51b98 0 std::__ndk1::__function::__func<geode::listenForSettingChangesV3<bool, geodeExecFunction10<(anonymous namespace)::ExecFuncUnique10>(geode::ModStateEvent*)::{lambda(bool)#12}>(std::__ndk1::basic_string_view<char, std::__ndk1::char_traits<char> >, geodeExecFunction10<(anonymous namespace)::ExecFuncUnique10>(geode::ModStateEvent*)::{lambda(bool)#12}&&, geode::Mod*)::{lambda(std::__ndk1::shared_ptr<geode::SettingV3>)#1}, std::__ndk1::allocator<geode::listenForSettingChangesV3<bool, geodeExecFunction10<(anonymous namespace)::ExecFuncUnique10>(geode::ModStateEvent*)::{lambda(bool)#12}>(std::__ndk1::basic_string_view<char, std::__ndk1::char_traits<char> >, geodeExecFunction10<(anonymous namespace)::ExecFuncUnique10>(geode::ModStateEvent*)::{lambda(bool)#12}&&, geode::Mod*)::{lambda(std::__ndk1::shared_ptr<geode::SettingV3>)#1}>, void (std::__ndk1::shared_ptr<geode::SettingV3>)>::~__func()
PUBLIC 51b9c 0 std::__ndk1::__function::__func<geode::listenForSettingChangesV3<bool, geodeExecFunction10<(anonymous namespace)::ExecFuncUnique10>(geode::ModStateEvent*)::{lambda(bool)#12}>(std::__ndk1::basic_string_view<char, std::__ndk1::char_traits<char> >, geodeExecFunction10<(anonymous namespace)::ExecFuncUnique10>(geode::ModStateEvent*)::{lambda(bool)#12}&&, geode::Mod*)::{lambda(std::__ndk1::shared_ptr<geode::SettingV3>)#1}, std::__ndk1::allocator<geode::listenForSettingChangesV3<bool, geodeExecFunction10<(anonymous namespace)::ExecFuncUnique10>(geode::ModStateEvent*)::{lambda(bool)#12}>(std::__ndk1::basic_string_view<char, std::__ndk1::char_traits<char> >, geodeExecFunction10<(anonymous namespace)::ExecFuncUnique10>(geode::ModStateEvent*)::{lambda(bool)#12}&&, geode::Mod*)::{lambda(std::__ndk1::shared_ptr<geode::SettingV3>)#1}>, void (std::__ndk1::shared_ptr<geode::SettingV3>)>::__clone() const
PUBLIC 51bd4 0 std::__ndk1::__function::__func<geode::listenForSettingChangesV3<bool, geodeExecFunction10<(anonymous namespace)::ExecFuncUnique10>(geode::ModStateEvent*)::{lambda(bool)#12}>(std::__ndk1::basic_string_view<char, std::__ndk1::char_traits<char> >, geodeExecFunction10<(anonymous namespace)::ExecFuncUnique10>(geode::ModStateEvent*)::{lambda(bool)#12}&&, geode::Mod*)::{lambda(std::__ndk1::shared_ptr<geode::SettingV3>)#1}, std::__ndk1::allocator<geode::listenForSettingChangesV3<bool, geodeExecFunction10<(anonymous namespace)::ExecFuncUnique10>(geode::ModStateEvent*)::{lambda(bool)#12}>(std::__ndk1::basic_string_view<char, std::__ndk1::char_traits<char> >, geodeExecFunction10<(anonymous namespace)::ExecFuncUnique10>(geode::ModStateEvent*)::{lambda(bool)#12}&&, geode::Mod*)::{lambda(std::__ndk1::shared_ptr<geode::SettingV3>)#1}>, void (std::__ndk1::shared_ptr<geode::SettingV3>)>::__clone(std::__ndk1::__function::__base<void (std::__ndk1::shared_ptr<geode::SettingV3>)>*) const
PUBLIC 51bec 0 std::__ndk1::__function::__func<geode::listenForSettingChangesV3<bool, geodeExecFunction10<(anonymous namespace)::ExecFuncUnique10>(geode::ModStateEvent*)::{lambda(bool)#12}>(std::__ndk1::basic_string_view<char, std::__ndk1::char_traits<char> >, geodeExecFunction10<(anonymous namespace)::ExecFuncUnique10>(geode::ModStateEvent*)::{lambda(bool)#12}&&, geode::Mod*)::{lambda(std::__ndk1::shared_ptr<geode::SettingV3>)#1}, std::__ndk1::allocator<geode::listenForSettingChangesV3<bool, geodeExecFunction10<(anonymous namespace)::ExecFuncUnique10>(geode::ModStateEvent*)::{lambda(bool)#12}>(std::__ndk1::basic_string_view<char, std::__ndk1::char_traits<char> >, geodeExecFunction10<(anonymous namespace)::ExecFuncUnique10>(geode::ModStateEvent*)::{lambda(bool)#12}&&, geode::Mod*)::{lambda(std::__ndk1::shared_ptr<geode::SettingV3>)#1}>, void (std::__ndk1::shared_ptr<geode::SettingV3>)>::destroy()
PUBLIC 51bf0 0 std::__ndk1::__function::__func<geode::listenForSettingChangesV3<bool, geodeExecFunction10<(anonymous namespace)::ExecFuncUnique10>(geode::ModStateEvent*)::{lambda(bool)#12}>(std::__ndk1::basic_string_view<char, std::__ndk1::char_traits<char> >, geodeExecFunction10<(anonymous namespace)::ExecFuncUnique10>(geode::ModStateEvent*)::{lambda(bool)#12}&&, geode::Mod*)::{lambda(std::__ndk1::shared_ptr<geode::SettingV3>)#1}, std::__ndk1::allocator<geode::listenForSettingChangesV3<bool, geodeExecFunction10<(anonymous namespace)::ExecFuncUnique10>(geode::ModStateEvent*)::{lambda(bool)#12}>(std::__ndk1::basic_string_view<char, std::__ndk1::char_traits<char> >, geodeExecFunction10<(anonymous namespace)::ExecFuncUnique10>(geode::ModStateEvent*)::{lambda(bool)#12}&&, geode::Mod*)::{lambda(std::__ndk1::shared_ptr<geode::SettingV3>)#1}>, void (std::__ndk1::shared_ptr<geode::SettingV3>)>::destroy_deallocate()
PUBLIC 51bf4 0 std::__ndk1::__function::__func<geode::listenForSettingChangesV3<bool, geodeExecFunction10<(anonymous namespace)::ExecFuncUnique10>(geode::ModStateEvent*)::{lambda(bool)#12}>(std::__ndk1::basic_string_view<char, std::__ndk1::char_traits<char> >, geodeExecFunction10<(anonymous namespace)::ExecFuncUnique10>(geode::ModStateEvent*)::{lambda(bool)#12}&&, geode::Mod*)::{lambda(std::__ndk1::shared_ptr<geode::SettingV3>)#1}, std::__ndk1::allocator<geode::listenForSettingChangesV3<bool, geodeExecFunction10<(anonymous namespace)::ExecFuncUnique10>(geode::ModStateEvent*)::{lambda(bool)#12}>(std::__ndk1::basic_string_view<char, std::__ndk1::char_traits<char> >, geodeExecFunction10<(anonymous namespace)::ExecFuncUnique10>(geode::ModStateEvent*)::{lambda(bool)#12}&&, geode::Mod*)::{lambda(std::__ndk1::shared_ptr<geode::SettingV3>)#1}>, void (std::__ndk1::shared_ptr<geode::SettingV3>)>::operator()(std::__ndk1::shared_ptr<geode::SettingV3>&&)
PUBLIC 51da0 0 std::__ndk1::__function::__func<geode::listenForSettingChangesV3<bool, geodeExecFunction10<(anonymous namespace)::ExecFuncUnique10>(geode::ModStateEvent*)::{lambda(bool)#12}>(std::__ndk1::basic_string_view<char, std::__ndk1::char_traits<char> >, geodeExecFunction10<(anonymous namespace)::ExecFuncUnique10>(geode::ModStateEvent*)::{lambda(bool)#12}&&, geode::Mod*)::{lambda(std::__ndk1::shared_ptr<geode::SettingV3>)#1}, std::__ndk1::allocator<geode::listenForSettingChangesV3<bool, geodeExecFunction10<(anonymous namespace)::ExecFuncUnique10>(geode::ModStateEvent*)::{lambda(bool)#12}>(std::__ndk1::basic_string_view<char, std::__ndk1::char_traits<char> >, geodeExecFunction10<(anonymous namespace)::ExecFuncUnique10>(geode::ModStateEvent*)::{lambda(bool)#12}&&, geode::Mod*)::{lambda(std::__ndk1::shared_ptr<geode::SettingV3>)#1}>, void (std::__ndk1::shared_ptr<geode::SettingV3>)>::target(std::type_info const&) const
PUBLIC 51dbc 0 std::__ndk1::__function::__func<geode::listenForSettingChangesV3<bool, geodeExecFunction10<(anonymous namespace)::ExecFuncUnique10>(geode::ModStateEvent*)::{lambda(bool)#12}>(std::__ndk1::basic_string_view<char, std::__ndk1::char_traits<char> >, geodeExecFunction10<(anonymous namespace)::ExecFuncUnique10>(geode::ModStateEvent*)::{lambda(bool)#12}&&, geode::Mod*)::{lambda(std::__ndk1::shared_ptr<geode::SettingV3>)#1}, std::__ndk1::allocator<geode::listenForSettingChangesV3<bool, geodeExecFunction10<(anonymous namespace)::ExecFuncUnique10>(geode::ModStateEvent*)::{lambda(bool)#12}>(std::__ndk1::basic_string_view<char, std::__ndk1::char_traits<char> >, geodeExecFunction10<(anonymous namespace)::ExecFuncUnique10>(geode::ModStateEvent*)::{lambda(bool)#12}&&, geode::Mod*)::{lambda(std::__ndk1::shared_ptr<geode::SettingV3>)#1}>, void (std::__ndk1::shared_ptr<geode::SettingV3>)>::target_type() const
PUBLIC 51dc8 0 std::__ndk1::__function::__func<geode::listenForSettingChangesV3<bool, geodeExecFunction10<(anonymous namespace)::ExecFuncUnique10>(geode::ModStateEvent*)::{lambda(bool)#13}>(std::__ndk1::basic_string_view<char, std::__ndk1::char_traits<char> >, geodeExecFunction10<(anonymous namespace)::ExecFuncUnique10>(geode::ModStateEvent*)::{lambda(bool)#13}&&, geode::Mod*)::{lambda(std::__ndk1::shared_ptr<geode::SettingV3>)#1}, std::__ndk1::allocator<geode::listenForSettingChangesV3<bool, geodeExecFunction10<(anonymous namespace)::ExecFuncUnique10>(geode::ModStateEvent*)::{lambda(bool)#13}>(std::__ndk1::basic_string_view<char, std::__ndk1::char_traits<char> >, geodeExecFunction10<(anonymous namespace)::ExecFuncUnique10>(geode::ModStateEvent*)::{lambda(bool)#13}&&, geode::Mod*)::{lambda(std::__ndk1::shared_ptr<geode::SettingV3>)#1}>, void (std::__ndk1::shared_ptr<geode::SettingV3>)>::~__func()
PUBLIC 51dcc 0 std::__ndk1::__function::__func<geode::listenForSettingChangesV3<bool, geodeExecFunction10<(anonymous namespace)::ExecFuncUnique10>(geode::ModStateEvent*)::{lambda(bool)#13}>(std::__ndk1::basic_string_view<char, std::__ndk1::char_traits<char> >, geodeExecFunction10<(anonymous namespace)::ExecFuncUnique10>(geode::ModStateEvent*)::{lambda(bool)#13}&&, geode::Mod*)::{lambda(std::__ndk1::shared_ptr<geode::SettingV3>)#1}, std::__ndk1::allocator<geode::listenForSettingChangesV3<bool, geodeExecFunction10<(anonymous namespace)::ExecFuncUnique10>(geode::ModStateEvent*)::{lambda(bool)#13}>(std::__ndk1::basic_string_view<char, std::__ndk1::char_traits<char> >, geodeExecFunction10<(anonymous namespace)::ExecFuncUnique10>(geode::ModStateEvent*)::{lambda(bool)#13}&&, geode::Mod*)::{lambda(std::__ndk1::shared_ptr<geode::SettingV3>)#1}>, void (std::__ndk1::shared_ptr<geode::SettingV3>)>::__clone() const
PUBLIC 51e04 0 std::__ndk1::__function::__func<geode::listenForSettingChangesV3<bool, geodeExecFunction10<(anonymous namespace)::ExecFuncUnique10>(geode::ModStateEvent*)::{lambda(bool)#13}>(std::__ndk1::basic_string_view<char, std::__ndk1::char_traits<char> >, geodeExecFunction10<(anonymous namespace)::ExecFuncUnique10>(geode::ModStateEvent*)::{lambda(bool)#13}&&, geode::Mod*)::{lambda(std::__ndk1::shared_ptr<geode::SettingV3>)#1}, std::__ndk1::allocator<geode::listenForSettingChangesV3<bool, geodeExecFunction10<(anonymous namespace)::ExecFuncUnique10>(geode::ModStateEvent*)::{lambda(bool)#13}>(std::__ndk1::basic_string_view<char, std::__ndk1::char_traits<char> >, geodeExecFunction10<(anonymous namespace)::ExecFuncUnique10>(geode::ModStateEvent*)::{lambda(bool)#13}&&, geode::Mod*)::{lambda(std::__ndk1::shared_ptr<geode::SettingV3>)#1}>, void (std::__ndk1::shared_ptr<geode::SettingV3>)>::__clone(std::__ndk1::__function::__base<void (std::__ndk1::shared_ptr<geode::SettingV3>)>*) const
PUBLIC 51e1c 0 std::__ndk1::__function::__func<geode::listenForSettingChangesV3<bool, geodeExecFunction10<(anonymous namespace)::ExecFuncUnique10>(geode::ModStateEvent*)::{lambda(bool)#13}>(std::__ndk1::basic_string_view<char, std::__ndk1::char_traits<char> >, geodeExecFunction10<(anonymous namespace)::ExecFuncUnique10>(geode::ModStateEvent*)::{lambda(bool)#13}&&, geode::Mod*)::{lambda(std::__ndk1::shared_ptr<geode::SettingV3>)#1}, std::__ndk1::allocator<geode::listenForSettingChangesV3<bool, geodeExecFunction10<(anonymous namespace)::ExecFuncUnique10>(geode::ModStateEvent*)::{lambda(bool)#13}>(std::__ndk1::basic_string_view<char, std::__ndk1::char_traits<char> >, geodeExecFunction10<(anonymous namespace)::ExecFuncUnique10>(geode::ModStateEvent*)::{lambda(bool)#13}&&, geode::Mod*)::{lambda(std::__ndk1::shared_ptr<geode::SettingV3>)#1}>, void (std::__ndk1::shared_ptr<geode::SettingV3>)>::destroy()
PUBLIC 51e20 0 std::__ndk1::__function::__func<geode::listenForSettingChangesV3<bool, geodeExecFunction10<(anonymous namespace)::ExecFuncUnique10>(geode::ModStateEvent*)::{lambda(bool)#13}>(std::__ndk1::basic_string_view<char, std::__ndk1::char_traits<char> >, geodeExecFunction10<(anonymous namespace)::ExecFuncUnique10>(geode::ModStateEvent*)::{lambda(bool)#13}&&, geode::Mod*)::{lambda(std::__ndk1::shared_ptr<geode::SettingV3>)#1}, std::__ndk1::allocator<geode::listenForSettingChangesV3<bool, geodeExecFunction10<(anonymous namespace)::ExecFuncUnique10>(geode::ModStateEvent*)::{lambda(bool)#13}>(std::__ndk1::basic_string_view<char, std::__ndk1::char_traits<char> >, geodeExecFunction10<(anonymous namespace)::ExecFuncUnique10>(geode::ModStateEvent*)::{lambda(bool)#13}&&, geode::Mod*)::{lambda(std::__ndk1::shared_ptr<geode::SettingV3>)#1}>, void (std::__ndk1::shared_ptr<geode::SettingV3>)>::destroy_deallocate()
PUBLIC 51e24 0 std::__ndk1::__function::__func<geode::listenForSettingChangesV3<bool, geodeExecFunction10<(anonymous namespace)::ExecFuncUnique10>(geode::ModStateEvent*)::{lambda(bool)#13}>(std::__ndk1::basic_string_view<char, std::__ndk1::char_traits<char> >, geodeExecFunction10<(anonymous namespace)::ExecFuncUnique10>(geode::ModStateEvent*)::{lambda(bool)#13}&&, geode::Mod*)::{lambda(std::__ndk1::shared_ptr<geode::SettingV3>)#1}, std::__ndk1::allocator<geode::listenForSettingChangesV3<bool, geodeExecFunction10<(anonymous namespace)::ExecFuncUnique10>(geode::ModStateEvent*)::{lambda(bool)#13}>(std::__ndk1::basic_string_view<char, std::__ndk1::char_traits<char> >, geodeExecFunction10<(anonymous namespace)::ExecFuncUnique10>(geode::ModStateEvent*)::{lambda(bool)#13}&&, geode::Mod*)::{lambda(std::__ndk1::shared_ptr<geode::SettingV3>)#1}>, void (std::__ndk1::shared_ptr<geode::SettingV3>)>::operator()(std::__ndk1::shared_ptr<geode::SettingV3>&&)
PUBLIC 51fd0 0 std::__ndk1::__function::__func<geode::listenForSettingChangesV3<bool, geodeExecFunction10<(anonymous namespace)::ExecFuncUnique10>(geode::ModStateEvent*)::{lambda(bool)#13}>(std::__ndk1::basic_string_view<char, std::__ndk1::char_traits<char> >, geodeExecFunction10<(anonymous namespace)::ExecFuncUnique10>(geode::ModStateEvent*)::{lambda(bool)#13}&&, geode::Mod*)::{lambda(std::__ndk1::shared_ptr<geode::SettingV3>)#1}, std::__ndk1::allocator<geode::listenForSettingChangesV3<bool, geodeExecFunction10<(anonymous namespace)::ExecFuncUnique10>(geode::ModStateEvent*)::{lambda(bool)#13}>(std::__ndk1::basic_string_view<char, std::__ndk1::char_traits<char> >, geodeExecFunction10<(anonymous namespace)::ExecFuncUnique10>(geode::ModStateEvent*)::{lambda(bool)#13}&&, geode::Mod*)::{lambda(std::__ndk1::shared_ptr<geode::SettingV3>)#1}>, void (std::__ndk1::shared_ptr<geode::SettingV3>)>::target(std::type_info const&) const
PUBLIC 51fec 0 std::__ndk1::__function::__func<geode::listenForSettingChangesV3<bool, geodeExecFunction10<(anonymous namespace)::ExecFuncUnique10>(geode::ModStateEvent*)::{lambda(bool)#13}>(std::__ndk1::basic_string_view<char, std::__ndk1::char_traits<char> >, geodeExecFunction10<(anonymous namespace)::ExecFuncUnique10>(geode::ModStateEvent*)::{lambda(bool)#13}&&, geode::Mod*)::{lambda(std::__ndk1::shared_ptr<geode::SettingV3>)#1}, std::__ndk1::allocator<geode::listenForSettingChangesV3<bool, geodeExecFunction10<(anonymous namespace)::ExecFuncUnique10>(geode::ModStateEvent*)::{lambda(bool)#13}>(std::__ndk1::basic_string_view<char, std::__ndk1::char_traits<char> >, geodeExecFunction10<(anonymous namespace)::ExecFuncUnique10>(geode::ModStateEvent*)::{lambda(bool)#13}&&, geode::Mod*)::{lambda(std::__ndk1::shared_ptr<geode::SettingV3>)#1}>, void (std::__ndk1::shared_ptr<geode::SettingV3>)>::target_type() const
PUBLIC 51ff8 0 std::__ndk1::__function::__func<geode::listenForSettingChangesV3<std::__ndk1::__fs::filesystem::path, geodeExecFunction10<(anonymous namespace)::ExecFuncUnique10>(geode::ModStateEvent*)::{lambda(std::__ndk1::__fs::filesystem::path)#1}>(std::__ndk1::basic_string_view<char, std::__ndk1::char_traits<char> >, geodeExecFunction10<(anonymous namespace)::ExecFuncUnique10>(geode::ModStateEvent*)::{lambda(std::__ndk1::__fs::filesystem::path&&)#1}, geode::Mod*)::{lambda(std::__ndk1::shared_ptr<geode::SettingV3>)#1}, std::__ndk1::allocator<geode::listenForSettingChangesV3<std::__ndk1::__fs::filesystem::path, geodeExecFunction10<(anonymous namespace)::ExecFuncUnique10>(geode::ModStateEvent*)::{lambda(std::__ndk1::__fs::filesystem::path)#1}>(std::__ndk1::basic_string_view<char, std::__ndk1::char_traits<char> >, geodeExecFunction10<(anonymous namespace)::ExecFuncUnique10>(geode::ModStateEvent*)::{lambda(std::__ndk1::__fs::filesystem::path&&)#1}, geode::Mod*)::{lambda(std::__ndk1::shared_ptr<geode::SettingV3>)#1}>, void (std::__ndk1::shared_ptr<geode::SettingV3>)>::~__func()
PUBLIC 51ffc 0 std::__ndk1::__function::__func<geode::listenForSettingChangesV3<std::__ndk1::__fs::filesystem::path, geodeExecFunction10<(anonymous namespace)::ExecFuncUnique10>(geode::ModStateEvent*)::{lambda(std::__ndk1::__fs::filesystem::path)#1}>(std::__ndk1::basic_string_view<char, std::__ndk1::char_traits<char> >, geodeExecFunction10<(anonymous namespace)::ExecFuncUnique10>(geode::ModStateEvent*)::{lambda(std::__ndk1::__fs::filesystem::path&&)#1}, geode::Mod*)::{lambda(std::__ndk1::shared_ptr<geode::SettingV3>)#1}, std::__ndk1::allocator<geode::listenForSettingChangesV3<std::__ndk1::__fs::filesystem::path, geodeExecFunction10<(anonymous namespace)::ExecFuncUnique10>(geode::ModStateEvent*)::{lambda(std::__ndk1::__fs::filesystem::path)#1}>(std::__ndk1::basic_string_view<char, std::__ndk1::char_traits<char> >, geodeExecFunction10<(anonymous namespace)::ExecFuncUnique10>(geode::ModStateEvent*)::{lambda(std::__ndk1::__fs::filesystem::path&&)#1}, geode::Mod*)::{lambda(std::__ndk1::shared_ptr<geode::SettingV3>)#1}>, void (std::__ndk1::shared_ptr<geode::SettingV3>)>::__clone() const
PUBLIC 52034 0 std::__ndk1::__function::__func<geode::listenForSettingChangesV3<std::__ndk1::__fs::filesystem::path, geodeExecFunction10<(anonymous namespace)::ExecFuncUnique10>(geode::ModStateEvent*)::{lambda(std::__ndk1::__fs::filesystem::path)#1}>(std::__ndk1::basic_string_view<char, std::__ndk1::char_traits<char> >, geodeExecFunction10<(anonymous namespace)::ExecFuncUnique10>(geode::ModStateEvent*)::{lambda(std::__ndk1::__fs::filesystem::path&&)#1}, geode::Mod*)::{lambda(std::__ndk1::shared_ptr<geode::SettingV3>)#1}, std::__ndk1::allocator<geode::listenForSettingChangesV3<std::__ndk1::__fs::filesystem::path, geodeExecFunction10<(anonymous namespace)::ExecFuncUnique10>(geode::ModStateEvent*)::{lambda(std::__ndk1::__fs::filesystem::path)#1}>(std::__ndk1::basic_string_view<char, std::__ndk1::char_traits<char> >, geodeExecFunction10<(anonymous namespace)::ExecFuncUnique10>(geode::ModStateEvent*)::{lambda(std::__ndk1::__fs::filesystem::path&&)#1}, geode::Mod*)::{lambda(std::__ndk1::shared_ptr<geode::SettingV3>)#1}>, void (std::__ndk1::shared_ptr<geode::SettingV3>)>::__clone(std::__ndk1::__function::__base<void (std::__ndk1::shared_ptr<geode::SettingV3>)>*) const
PUBLIC 5204c 0 std::__ndk1::__function::__func<geode::listenForSettingChangesV3<std::__ndk1::__fs::filesystem::path, geodeExecFunction10<(anonymous namespace)::ExecFuncUnique10>(geode::ModStateEvent*)::{lambda(std::__ndk1::__fs::filesystem::path)#1}>(std::__ndk1::basic_string_view<char, std::__ndk1::char_traits<char> >, geodeExecFunction10<(anonymous namespace)::ExecFuncUnique10>(geode::ModStateEvent*)::{lambda(std::__ndk1::__fs::filesystem::path&&)#1}, geode::Mod*)::{lambda(std::__ndk1::shared_ptr<geode::SettingV3>)#1}, std::__ndk1::allocator<geode::listenForSettingChangesV3<std::__ndk1::__fs::filesystem::path, geodeExecFunction10<(anonymous namespace)::ExecFuncUnique10>(geode::ModStateEvent*)::{lambda(std::__ndk1::__fs::filesystem::path)#1}>(std::__ndk1::basic_string_view<char, std::__ndk1::char_traits<char> >, geodeExecFunction10<(anonymous namespace)::ExecFuncUnique10>(geode::ModStateEvent*)::{lambda(std::__ndk1::__fs::filesystem::path&&)#1}, geode::Mod*)::{lambda(std::__ndk1::shared_ptr<geode::SettingV3>)#1}>, void (std::__ndk1::shared_ptr<geode::SettingV3>)>::destroy()
PUBLIC 52050 0 std::__ndk1::__function::__func<geode::listenForSettingChangesV3<std::__ndk1::__fs::filesystem::path, geodeExecFunction10<(anonymous namespace)::ExecFuncUnique10>(geode::ModStateEvent*)::{lambda(std::__ndk1::__fs::filesystem::path)#1}>(std::__ndk1::basic_string_view<char, std::__ndk1::char_traits<char> >, geodeExecFunction10<(anonymous namespace)::ExecFuncUnique10>(geode::ModStateEvent*)::{lambda(std::__ndk1::__fs::filesystem::path&&)#1}, geode::Mod*)::{lambda(std::__ndk1::shared_ptr<geode::SettingV3>)#1}, std::__ndk1::allocator<geode::listenForSettingChangesV3<std::__ndk1::__fs::filesystem::path, geodeExecFunction10<(anonymous namespace)::ExecFuncUnique10>(geode::ModStateEvent*)::{lambda(std::__ndk1::__fs::filesystem::path)#1}>(std::__ndk1::basic_string_view<char, std::__ndk1::char_traits<char> >, geodeExecFunction10<(anonymous namespace)::ExecFuncUnique10>(geode::ModStateEvent*)::{lambda(std::__ndk1::__fs::filesystem::path&&)#1}, geode::Mod*)::{lambda(std::__ndk1::shared_ptr<geode::SettingV3>)#1}>, void (std::__ndk1::shared_ptr<geode::SettingV3>)>::destroy_deallocate()
PUBLIC 52054 0 std::__ndk1::__function::__func<geode::listenForSettingChangesV3<std::__ndk1::__fs::filesystem::path, geodeExecFunction10<(anonymous namespace)::ExecFuncUnique10>(geode::ModStateEvent*)::{lambda(std::__ndk1::__fs::filesystem::path)#1}>(std::__ndk1::basic_string_view<char, std::__ndk1::char_traits<char> >, geodeExecFunction10<(anonymous namespace)::ExecFuncUnique10>(geode::ModStateEvent*)::{lambda(std::__ndk1::__fs::filesystem::path&&)#1}, geode::Mod*)::{lambda(std::__ndk1::shared_ptr<geode::SettingV3>)#1}, std::__ndk1::allocator<geode::listenForSettingChangesV3<std::__ndk1::__fs::filesystem::path, geodeExecFunction10<(anonymous namespace)::ExecFuncUnique10>(geode::ModStateEvent*)::{lambda(std::__ndk1::__fs::filesystem::path)#1}>(std::__ndk1::basic_string_view<char, std::__ndk1::char_traits<char> >, geodeExecFunction10<(anonymous namespace)::ExecFuncUnique10>(geode::ModStateEvent*)::{lambda(std::__ndk1::__fs::filesystem::path&&)#1}, geode::Mod*)::{lambda(std::__ndk1::shared_ptr<geode::SettingV3>)#1}>, void (std::__ndk1::shared_ptr<geode::SettingV3>)>::operator()(std::__ndk1::shared_ptr<geode::SettingV3>&&)
PUBLIC 5223c 0 std::__ndk1::__function::__func<geode::listenForSettingChangesV3<std::__ndk1::__fs::filesystem::path, geodeExecFunction10<(anonymous namespace)::ExecFuncUnique10>(geode::ModStateEvent*)::{lambda(std::__ndk1::__fs::filesystem::path)#1}>(std::__ndk1::basic_string_view<char, std::__ndk1::char_traits<char> >, geodeExecFunction10<(anonymous namespace)::ExecFuncUnique10>(geode::ModStateEvent*)::{lambda(std::__ndk1::__fs::filesystem::path&&)#1}, geode::Mod*)::{lambda(std::__ndk1::shared_ptr<geode::SettingV3>)#1}, std::__ndk1::allocator<geode::listenForSettingChangesV3<std::__ndk1::__fs::filesystem::path, geodeExecFunction10<(anonymous namespace)::ExecFuncUnique10>(geode::ModStateEvent*)::{lambda(std::__ndk1::__fs::filesystem::path)#1}>(std::__ndk1::basic_string_view<char, std::__ndk1::char_traits<char> >, geodeExecFunction10<(anonymous namespace)::ExecFuncUnique10>(geode::ModStateEvent*)::{lambda(std::__ndk1::__fs::filesystem::path&&)#1}, geode::Mod*)::{lambda(std::__ndk1::shared_ptr<geode::SettingV3>)#1}>, void (std::__ndk1::shared_ptr<geode::SettingV3>)>::target(std::type_info const&) const
PUBLIC 52258 0 std::__ndk1::__function::__func<geode::listenForSettingChangesV3<std::__ndk1::__fs::filesystem::path, geodeExecFunction10<(anonymous namespace)::ExecFuncUnique10>(geode::ModStateEvent*)::{lambda(std::__ndk1::__fs::filesystem::path)#1}>(std::__ndk1::basic_string_view<char, std::__ndk1::char_traits<char> >, geodeExecFunction10<(anonymous namespace)::ExecFuncUnique10>(geode::ModStateEvent*)::{lambda(std::__ndk1::__fs::filesystem::path&&)#1}, geode::Mod*)::{lambda(std::__ndk1::shared_ptr<geode::SettingV3>)#1}, std::__ndk1::allocator<geode::listenForSettingChangesV3<std::__ndk1::__fs::filesystem::path, geodeExecFunction10<(anonymous namespace)::ExecFuncUnique10>(geode::ModStateEvent*)::{lambda(std::__ndk1::__fs::filesystem::path)#1}>(std::__ndk1::basic_string_view<char, std::__ndk1::char_traits<char> >, geodeExecFunction10<(anonymous namespace)::ExecFuncUnique10>(geode::ModStateEvent*)::{lambda(std::__ndk1::__fs::filesystem::path&&)#1}, geode::Mod*)::{lambda(std::__ndk1::shared_ptr<geode::SettingV3>)#1}>, void (std::__ndk1::shared_ptr<geode::SettingV3>)>::target_type() const
PUBLIC 52264 0 std::__ndk1::__exception_guard_exceptions<std::__ndk1::vector<geode::Ref<keybinds::Bind>, std::__ndk1::allocator<geode::Ref<keybinds::Bind> > >::__destroy_vector>::~__exception_guard_exceptions[abi:ne180000]()
PUBLIC 522f8 0 std::__ndk1::__exception_guard_exceptions<std::__ndk1::_AllocatorDestroyRangeReverse<std::__ndk1::allocator<geode::Ref<keybinds::Bind> >, geode::Ref<keybinds::Bind>*> >::~__exception_guard_exceptions[abi:ne180000]()
PUBLIC 52340 0 std::__ndk1::__function::__base<geode::ListenerResult(keybinds::InvokeBindEvent*)>::~__base()
PUBLIC 52344 0 std::__ndk1::__function::__func<geodeExecFunction10<(anonymous namespace)::ExecFuncUnique10>(geode::ModStateEvent*)::{lambda(keybinds::InvokeBindEvent*)#1}, std::__ndk1::allocator<geodeExecFunction10<(anonymous namespace)::ExecFuncUnique10>(geode::ModStateEvent*)::{lambda(keybinds::InvokeBindEvent*)#1}>, geode::ListenerResult(keybinds::InvokeBindEvent*)>::~__func()
PUBLIC 52348 0 std::__ndk1::__function::__func<geodeExecFunction10<(anonymous namespace)::ExecFuncUnique10>(geode::ModStateEvent*)::{lambda(keybinds::InvokeBindEvent*)#1}, std::__ndk1::allocator<geodeExecFunction10<(anonymous namespace)::ExecFuncUnique10>(geode::ModStateEvent*)::{lambda(keybinds::InvokeBindEvent*)#1}>, geode::ListenerResult(keybinds::InvokeBindEvent*)>::__clone() const
PUBLIC 5236c 0 std::__ndk1::__function::__func<geodeExecFunction10<(anonymous namespace)::ExecFuncUnique10>(geode::ModStateEvent*)::{lambda(keybinds::InvokeBindEvent*)#1}, std::__ndk1::allocator<geodeExecFunction10<(anonymous namespace)::ExecFuncUnique10>(geode::ModStateEvent*)::{lambda(keybinds::InvokeBindEvent*)#1}>, geode::ListenerResult(keybinds::InvokeBindEvent*)>::__clone(std::__ndk1::__function::__base<geode::ListenerResult(keybinds::InvokeBindEvent*)>*) const
PUBLIC 5237c 0 std::__ndk1::__function::__func<geodeExecFunction10<(anonymous namespace)::ExecFuncUnique10>(geode::ModStateEvent*)::{lambda(keybinds::InvokeBindEvent*)#1}, std::__ndk1::allocator<geodeExecFunction10<(anonymous namespace)::ExecFuncUnique10>(geode::ModStateEvent*)::{lambda(keybinds::InvokeBindEvent*)#1}>, geode::ListenerResult(keybinds::InvokeBindEvent*)>::destroy()
PUBLIC 52380 0 std::__ndk1::__function::__func<geodeExecFunction10<(anonymous namespace)::ExecFuncUnique10>(geode::ModStateEvent*)::{lambda(keybinds::InvokeBindEvent*)#1}, std::__ndk1::allocator<geodeExecFunction10<(anonymous namespace)::ExecFuncUnique10>(geode::ModStateEvent*)::{lambda(keybinds::InvokeBindEvent*)#1}>, geode::ListenerResult(keybinds::InvokeBindEvent*)>::destroy_deallocate()
PUBLIC 52384 0 std::__ndk1::__function::__func<geodeExecFunction10<(anonymous namespace)::ExecFuncUnique10>(geode::ModStateEvent*)::{lambda(keybinds::InvokeBindEvent*)#1}, std::__ndk1::allocator<geodeExecFunction10<(anonymous namespace)::ExecFuncUnique10>(geode::ModStateEvent*)::{lambda(keybinds::InvokeBindEvent*)#1}>, geode::ListenerResult(keybinds::InvokeBindEvent*)>::operator()(keybinds::InvokeBindEvent*&&)
PUBLIC 52794 0 std::__ndk1::__function::__func<geodeExecFunction10<(anonymous namespace)::ExecFuncUnique10>(geode::ModStateEvent*)::{lambda(keybinds::InvokeBindEvent*)#1}, std::__ndk1::allocator<geodeExecFunction10<(anonymous namespace)::ExecFuncUnique10>(geode::ModStateEvent*)::{lambda(keybinds::InvokeBindEvent*)#1}>, geode::ListenerResult(keybinds::InvokeBindEvent*)>::target(std::type_info const&) const
PUBLIC 527b0 0 std::__ndk1::__function::__func<geodeExecFunction10<(anonymous namespace)::ExecFuncUnique10>(geode::ModStateEvent*)::{lambda(keybinds::InvokeBindEvent*)#1}, std::__ndk1::allocator<geodeExecFunction10<(anonymous namespace)::ExecFuncUnique10>(geode::ModStateEvent*)::{lambda(keybinds::InvokeBindEvent*)#1}>, geode::ListenerResult(keybinds::InvokeBindEvent*)>::target_type() const
PUBLIC 527bc 0 geode::cocos::CCArrayExt<cocos2d::CCNode*>::~CCArrayExt()
PUBLIC 527d8 0 geode::EventListener<keybinds::InvokeBindFilter>::getPool() const
PUBLIC 527dc 0 geode::EventListener<keybinds::InvokeBindFilter>::handle(geode::Event*)
PUBLIC 52950 0 geode::EventListener<keybinds::InvokeBindFilter>::~EventListener()
PUBLIC 529bc 0 geode::EventListener<keybinds::InvokeBindFilter>::~EventListener()
PUBLIC 52a30 0 geode::modifier::ModifyDerive<MyMenuLayer, MenuLayer>::apply()
PUBLIC 52d38 0 geode::modifier::ModifyBase<geode::modifier::ModifyDerive<MyMenuLayer, MenuLayer> >::apply()
PUBLIC 52d3c 0 geode::modifier::ModifyBase<geode::modifier::ModifyDerive<MyMenuLayer, MenuLayer> >::getHook(std::__ndk1::basic_string_view<char, std::__ndk1::char_traits<char> >)
PUBLIC 52e88 0 geode::modifier::ModifyBase<geode::modifier::ModifyDerive<MyMenuLayer, MenuLayer> >::setHookPriorityBefore(std::__ndk1::basic_string_view<char, std::__ndk1::char_traits<char> >, geode::Mod*)::{lambda(geode::ModStateEvent*)#1}::operator()(geode::ModStateEvent*) const
PUBLIC 52f98 0 std::__ndk1::__function::__func<geode::modifier::ModifyBase<geode::modifier::ModifyDerive<MyMenuLayer, MenuLayer> >::setHookPriorityBefore(std::__ndk1::basic_string_view<char, std::__ndk1::char_traits<char> >, geode::Mod*)::{lambda(geode::ModStateEvent*)#1}, std::__ndk1::allocator<geode::modifier::ModifyBase<geode::modifier::ModifyDerive<MyMenuLayer, MenuLayer> >::setHookPriorityBefore(std::__ndk1::basic_string_view<char, std::__ndk1::char_traits<char> >, geode::Mod*)::{lambda(geode::ModStateEvent*)#1}>, void (geode::ModStateEvent*)>::~__func()
PUBLIC 52f9c 0 std::__ndk1::__function::__func<geode::modifier::ModifyBase<geode::modifier::ModifyDerive<MyMenuLayer, MenuLayer> >::setHookPriorityBefore(std::__ndk1::basic_string_view<char, std::__ndk1::char_traits<char> >, geode::Mod*)::{lambda(geode::ModStateEvent*)#1}, std::__ndk1::allocator<geode::modifier::ModifyBase<geode::modifier::ModifyDerive<MyMenuLayer, MenuLayer> >::setHookPriorityBefore(std::__ndk1::basic_string_view<char, std::__ndk1::char_traits<char> >, geode::Mod*)::{lambda(geode::ModStateEvent*)#1}>, void (geode::ModStateEvent*)>::__clone() const
PUBLIC 52fd4 0 std::__ndk1::__function::__func<geode::modifier::ModifyBase<geode::modifier::ModifyDerive<MyMenuLayer, MenuLayer> >::setHookPriorityBefore(std::__ndk1::basic_string_view<char, std::__ndk1::char_traits<char> >, geode::Mod*)::{lambda(geode::ModStateEvent*)#1}, std::__ndk1::allocator<geode::modifier::ModifyBase<geode::modifier::ModifyDerive<MyMenuLayer, MenuLayer> >::setHookPriorityBefore(std::__ndk1::basic_string_view<char, std::__ndk1::char_traits<char> >, geode::Mod*)::{lambda(geode::ModStateEvent*)#1}>, void (geode::ModStateEvent*)>::__clone(std::__ndk1::__function::__base<void (geode::ModStateEvent*)>*) const
PUBLIC 52fec 0 std::__ndk1::__function::__func<geode::modifier::ModifyBase<geode::modifier::ModifyDerive<MyMenuLayer, MenuLayer> >::setHookPriorityBefore(std::__ndk1::basic_string_view<char, std::__ndk1::char_traits<char> >, geode::Mod*)::{lambda(geode::ModStateEvent*)#1}, std::__ndk1::allocator<geode::modifier::ModifyBase<geode::modifier::ModifyDerive<MyMenuLayer, MenuLayer> >::setHookPriorityBefore(std::__ndk1::basic_string_view<char, std::__ndk1::char_traits<char> >, geode::Mod*)::{lambda(geode::ModStateEvent*)#1}>, void (geode::ModStateEvent*)>::destroy()
PUBLIC 52ff0 0 std::__ndk1::__function::__func<geode::modifier::ModifyBase<geode::modifier::ModifyDerive<MyMenuLayer, MenuLayer> >::setHookPriorityBefore(std::__ndk1::basic_string_view<char, std::__ndk1::char_traits<char> >, geode::Mod*)::{lambda(geode::ModStateEvent*)#1}, std::__ndk1::allocator<geode::modifier::ModifyBase<geode::modifier::ModifyDerive<MyMenuLayer, MenuLayer> >::setHookPriorityBefore(std::__ndk1::basic_string_view<char, std::__ndk1::char_traits<char> >, geode::Mod*)::{lambda(geode::ModStateEvent*)#1}>, void (geode::ModStateEvent*)>::destroy_deallocate()
PUBLIC 52ff4 0 std::__ndk1::__function::__func<geode::modifier::ModifyBase<geode::modifier::ModifyDerive<MyMenuLayer, MenuLayer> >::setHookPriorityBefore(std::__ndk1::basic_string_view<char, std::__ndk1::char_traits<char> >, geode::Mod*)::{lambda(geode::ModStateEvent*)#1}, std::__ndk1::allocator<geode::modifier::ModifyBase<geode::modifier::ModifyDerive<MyMenuLayer, MenuLayer> >::setHookPriorityBefore(std::__ndk1::basic_string_view<char, std::__ndk1::char_traits<char> >, geode::Mod*)::{lambda(geode::ModStateEvent*)#1}>, void (geode::ModStateEvent*)>::operator()(geode::ModStateEvent*&&)
PUBLIC 52ffc 0 std::__ndk1::__function::__func<geode::modifier::ModifyBase<geode::modifier::ModifyDerive<MyMenuLayer, MenuLayer> >::setHookPriorityBefore(std::__ndk1::basic_string_view<char, std::__ndk1::char_traits<char> >, geode::Mod*)::{lambda(geode::ModStateEvent*)#1}, std::__ndk1::allocator<geode::modifier::ModifyBase<geode::modifier::ModifyDerive<MyMenuLayer, MenuLayer> >::setHookPriorityBefore(std::__ndk1::basic_string_view<char, std::__ndk1::char_traits<char> >, geode::Mod*)::{lambda(geode::ModStateEvent*)#1}>, void (geode::ModStateEvent*)>::target(std::type_info const&) const
PUBLIC 53018 0 std::__ndk1::__function::__func<geode::modifier::ModifyBase<geode::modifier::ModifyDerive<MyMenuLayer, MenuLayer> >::setHookPriorityBefore(std::__ndk1::basic_string_view<char, std::__ndk1::char_traits<char> >, geode::Mod*)::{lambda(geode::ModStateEvent*)#1}, std::__ndk1::allocator<geode::modifier::ModifyBase<geode::modifier::ModifyDerive<MyMenuLayer, MenuLayer> >::setHookPriorityBefore(std::__ndk1::basic_string_view<char, std::__ndk1::char_traits<char> >, geode::Mod*)::{lambda(geode::ModStateEvent*)#1}>, void (geode::ModStateEvent*)>::target_type() const
PUBLIC 53024 0 geode::modifier::AsStaticFunction_init<MyMenuLayer, bool (MyMenuLayer::*)()>::Impl<bool (MyMenuLayer::*)()>::function(MyMenuLayer*)
PUBLIC 534fc 0 geode::addresser::Addresser::addressOfVirtual<bool, MenuLayer, >(bool (MenuLayer::*)())
PUBLIC 535a4 0 MenuLayer::MenuLayer(geode::ZeroConstructorType)
PUBLIC 53640 0 MyMenuLayer::onYAMMSettings(cocos2d::CCObject*)
PUBLIC 5367c 0 PulsingNode::init()
PUBLIC 53768 0 PulsingNode::~PulsingNode()
PUBLIC 5378c 0 PulsingNode::update(float)
PUBLIC 53a1c 0 geode::modifier::ModifyDerive<MyEditLevelLayer, EditLevelLayer>::apply()
PUBLIC 53d88 0 geode::modifier::ModifyBase<geode::modifier::ModifyDerive<MyEditLevelLayer, EditLevelLayer> >::apply()
PUBLIC 53d8c 0 geode::modifier::AsStaticFunction_init<MyEditLevelLayer, bool (MyEditLevelLayer::*)(GJGameLevel*)>::Impl<bool (MyEditLevelLayer::*)(GJGameLevel*)>::function(MyEditLevelLayer*, GJGameLevel*)
PUBLIC 53de4 0 MyEditLevelLayer::onYAMMSettings(cocos2d::CCObject*)
PUBLIC 53e20 0 geode::modifier::ModifyDerive<MyCreatorLayer, CreatorLayer>::apply()
PUBLIC 54134 0 geode::modifier::ModifyBase<geode::modifier::ModifyDerive<MyCreatorLayer, CreatorLayer> >::apply()
PUBLIC 54138 0 geode::modifier::AsStaticFunction_init<MyCreatorLayer, bool (MyCreatorLayer::*)()>::Impl<bool (MyCreatorLayer::*)()>::function(MyCreatorLayer*)
PUBLIC 54190 0 geode::addresser::Addresser::addressOfVirtual<bool, CreatorLayer, >(bool (CreatorLayer::*)())
PUBLIC 54238 0 CreatorLayer::CreatorLayer(geode::ZeroConstructorType)
PUBLIC 542d0 0 MyCreatorLayer::onYAMMSettings(cocos2d::CCObject*)
PUBLIC 5430c 0 geode::modifier::ModifyDerive<MyEditorPauseLayer, EditorPauseLayer>::apply()
PUBLIC 5466c 0 geode::modifier::ModifyBase<geode::modifier::ModifyDerive<MyEditorPauseLayer, EditorPauseLayer> >::apply()
PUBLIC 54670 0 geode::modifier::AsStaticFunction_init<MyEditorPauseLayer, bool (MyEditorPauseLayer::*)(LevelEditorLayer*)>::Impl<bool (MyEditorPauseLayer::*)(LevelEditorLayer*)>::function(MyEditorPauseLayer*, LevelEditorLayer*)
PUBLIC 546c8 0 MyEditorPauseLayer::onYAMMSettings(cocos2d::CCObject*)
PUBLIC 54704 0 geode::modifier::ModifyDerive<MyLevelInfoLayer, LevelInfoLayer>::apply()
PUBLIC 54ab4 0 geode::modifier::ModifyBase<geode::modifier::ModifyDerive<MyLevelInfoLayer, LevelInfoLayer> >::apply()
PUBLIC 54ab8 0 geode::modifier::AsStaticFunction_init<MyLevelInfoLayer, bool (MyLevelInfoLayer::*)(GJGameLevel*, bool)>::Impl<bool (MyLevelInfoLayer::*)(GJGameLevel*, bool)>::function(MyLevelInfoLayer*, GJGameLevel*, bool)
PUBLIC 54b10 0 MyLevelInfoLayer::onYAMMSettings(cocos2d::CCObject*)
PUBLIC 54b4c 0 _GLOBAL__sub_I_MenuLayer.cpp
PUBLIC m 54c78 0 geodeImplicitEntry
PUBLIC 54cb4 0 std::__ndk1::unordered_map<void*, bool, std::__ndk1::hash<void*>, std::__ndk1::equal_to<void*>, std::__ndk1::allocator<std::__ndk1::pair<void* const, bool> > >::~unordered_map[abi:ne180000]()
PUBLIC 54d00 0 wrapFunction(unsigned long, tulip::hook::WrapperMetadata const&)
PUBLIC 54e34 0 geode::impl::ResultData<void*, std::__ndk1::basic_string<char, std::__ndk1::char_traits<char>, std::__ndk1::allocator<char> > >::unwrapErr() &
PUBLIC 54eac 0 geode::impl::ResultData<void*, std::__ndk1::basic_string<char, std::__ndk1::char_traits<char>, std::__ndk1::allocator<char> > >::~ResultData()
PUBLIC 54f20 0 tulip::hook::WrapperMetadata::~WrapperMetadata()
PUBLIC 54f84 0 cocos2d::CCObject::CCObject()
PUBLIC 551a8 0 cocos2d::CCObject::~CCObject()
PUBLIC 551cc 0 cocos2d::CCNode::CCNode()
PUBLIC 55428 0 cocos2d::CCNode::~CCNode()
PUBLIC 5544c 0 cocos2d::CCNodeRGBA::~CCNodeRGBA()
PUBLIC 55470 0 cocos2d::CCMotionStreak::~CCMotionStreak()
PUBLIC 55750 0 cocos2d::CCMotionStreak::~CCMotionStreak()
PUBLIC 55774 0 {virtual override thunk({offset(-320)}, cocos2d::CCLayer::~CCLayer())}
PUBLIC 5577c 0 cocos2d::CCLayer::~CCLayer()
PUBLIC 557a0 0 {virtual override thunk({offset(-320)}, cocos2d::CCLayer::~CCLayer())}
PUBLIC 557c8 0 FLAlertLayer::create(FLAlertLayerProtocol*, char const*, gd::string, char const*, char const*, float)
PUBLIC 55980 0 tulip::hook::AbstractFunction::from<FLAlertLayer*, FLAlertLayerProtocol*, char const*, gd::string, char const*, char const*, float>(FLAlertLayer* (*)(FLAlertLayerProtocol*, char const*, gd::string, char const*, char const*, float))
PUBLIC 55e64 0 cocos2d::CCNodeRGBA::~CCNodeRGBA()
PUBLIC 5611c 0 FMODAudioEngine::playEffect(gd::string, float, float, float)
PUBLIC 562bc 0 tulip::hook::AbstractFunction::from<void, FMODAudioEngine*, gd::string, float, float, float>(void (*)(FMODAudioEngine*, gd::string, float, float, float))
PUBLIC 56674 0 GJBaseGameLayer::~GJBaseGameLayer()
PUBLIC 56eb0 0 GJBaseGameLayer::GJBaseGameLayer(geode::CutoffConstructorType, unsigned long)
PUBLIC 57660 0 {virtual override thunk({offset(-320)}, GJBaseGameLayer::~GJBaseGameLayer())}
PUBLIC 57668 0 GJBaseGameLayer::~GJBaseGameLayer()
PUBLIC 5768c 0 {virtual override thunk({offset(-320)}, GJBaseGameLayer::~GJBaseGameLayer())}
PUBLIC 576b4 0 GJBaseGameLayer::toggleGroupTriggered(int, bool, gd::vector<int> const&, int, int)
PUBLIC 57820 0 tulip::hook::AbstractFunction::from<void, GJBaseGameLayer*, int, bool, gd::vector<int> const&, int, int>(void (*)(GJBaseGameLayer*, int, bool, gd::vector<int> const&, int, int))
PUBLIC 57ccc 0 {virtual override thunk({offset(-408)}, GJBaseGameLayer::toggleGroupTriggered(int, bool, gd::vector<int> const&, int, int))}
PUBLIC 57cd4 0 GJBaseGameLayer::spawnGroup(int, bool, double, gd::vector<int> const&, int, int)
PUBLIC 57e50 0 tulip::hook::AbstractFunction::from<void, GJBaseGameLayer*, int, bool, double, gd::vector<int> const&, int, int>(void (*)(GJBaseGameLayer*, int, bool, double, gd::vector<int> const&, int, int))
PUBLIC 583fc 0 {virtual override thunk({offset(-408)}, GJBaseGameLayer::spawnGroup(int, bool, double, gd::vector<int> const&, int, int))}
PUBLIC 58404 0 GJBaseGameLayer::spawnObject(GameObject*, double, gd::vector<int> const&)
PUBLIC 58560 0 tulip::hook::AbstractFunction::from<void, GJBaseGameLayer*, GameObject*, double, gd::vector<int> const&>(void (*)(GJBaseGameLayer*, GameObject*, double, gd::vector<int> const&))
PUBLIC 58834 0 {virtual override thunk({offset(-408)}, GJBaseGameLayer::spawnObject(GameObject*, double, gd::vector<int> const&))}
PUBLIC 5883c 0 GJBaseGameLayer::activatePlatformerEndTrigger(EndTriggerGameObject*, gd::vector<int> const&)
PUBLIC 58988 0 tulip::hook::AbstractFunction::from<void, GJBaseGameLayer*, EndTriggerGameObject*, gd::vector<int> const&>(void (*)(GJBaseGameLayer*, EndTriggerGameObject*, gd::vector<int> const&))
PUBLIC 58a90 0 GJBaseGameLayer::toggleGlitter(bool)
PUBLIC 58a94 0 GJBaseGameLayer::timeForPos(cocos2d::CCPoint, int, int, bool, int)
PUBLIC 58a9c 0 GJBaseGameLayer::posForTime(float)
PUBLIC 58aa4 0 GJBaseGameLayer::resetSPTriggered()
PUBLIC 58aa8 0 GJBaseGameLayer::createCustomParticle(gd::string const&, cocos2d::ParticleStruct const&, int, bool)
PUBLIC 58c0c 0 tulip::hook::AbstractFunction::from<TodoReturnPlaceholder, GJBaseGameLayer*, gd::string const&, cocos2d::ParticleStruct const&, int, bool>(TodoReturnPlaceholder (*)(GJBaseGameLayer*, gd::string const&, cocos2d::ParticleStruct const&, int, bool))
PUBLIC 58fe0 0 GJBaseGameLayer::claimCustomParticle(gd::string const&, cocos2d::ParticleStruct const&, int, int, int, bool)
PUBLIC 5915c 0 tulip::hook::AbstractFunction::from<TodoReturnPlaceholder, GJBaseGameLayer*, gd::string const&, cocos2d::ParticleStruct const&, int, int, int, bool>(TodoReturnPlaceholder (*)(GJBaseGameLayer*, gd::string const&, cocos2d::ParticleStruct const&, int, int, int, bool))
PUBLIC 59730 0 GJBaseGameLayer::unclaimCustomParticle(gd::string const&, cocos2d::CCParticleSystemQuad*)
PUBLIC 5987c 0 tulip::hook::AbstractFunction::from<TodoReturnPlaceholder, GJBaseGameLayer*, gd::string const&, cocos2d::CCParticleSystemQuad*>(TodoReturnPlaceholder (*)(GJBaseGameLayer*, gd::string const&, cocos2d::CCParticleSystemQuad*))
PUBLIC 59984 0 PlayLayer::~PlayLayer()
PUBLIC 59d00 0 {virtual override thunk({offset(-320)}, PlayLayer::~PlayLayer())}
PUBLIC 59d08 0 PlayLayer::~PlayLayer()
PUBLIC 59d2c 0 {virtual override thunk({offset(-320)}, PlayLayer::~PlayLayer())}
PUBLIC 59d54 0 PlayLayer::activatePlatformerEndTrigger(EndTriggerGameObject*, gd::vector<int> const&)
PUBLIC 59ea0 0 tulip::hook::AbstractFunction::from<void, PlayLayer*, EndTriggerGameObject*, gd::vector<int> const&>(void (*)(PlayLayer*, EndTriggerGameObject*, gd::vector<int> const&))
PUBLIC 59fa8 0 cocos2d::CCNodeRGBA::setOpacityModifyRGB(bool)
PUBLIC 59fac 0 cocos2d::CCNodeRGBA::isOpacityModifyRGB()
PUBLIC 59fb4 0 {virtual override thunk({offset(-320)}, cocos2d::CCNodeRGBA::setOpacityModifyRGB(bool))}
PUBLIC 59fb8 0 {virtual override thunk({offset(-320)}, cocos2d::CCNodeRGBA::isOpacityModifyRGB())}
PUBLIC 59fc0 0 cocos2d::CCKeyboardDelegate::keyUp(cocos2d::enumKeyCodes)
PUBLIC 59fc4 0 cocos2d::CCMouseDelegate::rightKeyDown()
PUBLIC 59fc8 0 cocos2d::CCMouseDelegate::rightKeyUp()
PUBLIC 59fcc 0 cocos2d::CCMouseDelegate::scrollWheel(float, float)
PUBLIC 59fd0 0 cocos2d::CCNode::~CCNode()
PUBLIC 5a270 0 cocos2d::CCLayer::~CCLayer()
PUBLIC 5a560 0 cocos2d::CCObject::~CCObject()
PUBLIC 5aa54 0 _ZN5geode15UnwrapExceptionC2IRPvQsr4implE18IsStringStreamableIT_EEENS_4impl5OkTagEOS4_
PUBLIC 5aba8 0 std::__ndk1::__variant_detail::__visitation::__base::__dispatcher<(unsigned long)0>::__dispatch[abi:ne180000]<std::__ndk1::__variant_detail::__dtor<std::__ndk1::__variant_detail::__traits<void*, std::__ndk1::basic_string<char, std::__ndk1::char_traits<char>, std::__ndk1::allocator<char> > >, (std::__ndk1::__variant_detail::_Trait)1>::__destroy[abi:ne180000]()::{lambda(auto:1&)#1}, std::__ndk1::__variant_detail::__base<(std::__ndk1::__variant_detail::__traits<void*, std::__ndk1::basic_string<char, std::__ndk1::char_traits<char>, std::__ndk1::allocator<char> > >)1, std::__ndk1::__variant_detail::__traits, std::__ndk1::allocator<char> >&>(std::__ndk1::__variant_detail::__dtor<std::__ndk1::__variant_detail::__traits<void*, std::__ndk1::basic_string<char, std::__ndk1::char_traits<char>, std::__ndk1::allocator<char> > >, (std::__ndk1::__variant_detail::_Trait)1>, std::__ndk1::__variant_detail::__base<(std::__ndk1::__variant_detail::__traits<void*, std::__ndk1::basic_string<char, std::__ndk1::char_traits<char>, std::__ndk1::allocator<char> > >)1, std::__ndk1::__variant_detail::__traits, std::__ndk1::allocator<char> >&)
PUBLIC 5abac 0 std::__ndk1::__variant_detail::__visitation::__base::__dispatcher<(unsigned long)1>::__dispatch[abi:ne180000]<std::__ndk1::__variant_detail::__dtor<std::__ndk1::__variant_detail::__traits<void*, std::__ndk1::basic_string<char, std::__ndk1::char_traits<char>, std::__ndk1::allocator<char> > >, (std::__ndk1::__variant_detail::_Trait)1>::__destroy[abi:ne180000]()::{lambda(auto:1&)#1}, std::__ndk1::__variant_detail::__base<(std::__ndk1::__variant_detail::__traits<void*, std::__ndk1::basic_string<char, std::__ndk1::char_traits<char>, std::__ndk1::allocator<char> > >)1, std::__ndk1::__variant_detail::__traits, std::__ndk1::allocator<char> >&>(std::__ndk1::__variant_detail::__dtor<std::__ndk1::__variant_detail::__traits<void*, std::__ndk1::basic_string<char, std::__ndk1::char_traits<char>, std::__ndk1::allocator<char> > >, (std::__ndk1::__variant_detail::_Trait)1>, std::__ndk1::__variant_detail::__base<(std::__ndk1::__variant_detail::__traits<void*, std::__ndk1::basic_string<char, std::__ndk1::char_traits<char>, std::__ndk1::allocator<char> > >)1, std::__ndk1::__variant_detail::__traits, std::__ndk1::allocator<char> >&)
PUBLIC 5abc0 0 std::__ndk1::__hash_table<std::__ndk1::__hash_value_type<void*, bool>, std::__ndk1::__unordered_map_hasher<void*, std::__ndk1::__hash_value_type<void*, bool>, std::__ndk1::hash<void*>, std::__ndk1::equal_to<void*>, true>, std::__ndk1::__unordered_map_equal<void*, std::__ndk1::__hash_value_type<void*, bool>, std::__ndk1::equal_to<void*>, std::__ndk1::hash<void*>, true>, std::__ndk1::allocator<std::__ndk1::__hash_value_type<void*, bool> > >::__emplace_unique_key_args<void*, std::__ndk1::piecewise_construct_t const&, std::__ndk1::tuple<void* const&>, std::__ndk1::tuple<> >(void* const&, std::__ndk1::piecewise_construct_t const&, std::__ndk1::tuple<void* const&>, std::__ndk1::tuple<>)
PUBLIC 5b0cc 0 __udivti3
PUBLIC 5b0d8 0 __udivmodti4
PUBLIC m 5b324 0 __eqtf2
PUBLIC 5b3c4 0 __unordtf2
PUBLIC 5b3fc 0 fmt::v11::detail::write_loc(fmt::v11::basic_appender<char>, fmt::v11::loc_value, fmt::v11::format_specs const&, fmt::v11::detail::locale_ref)
PUBLIC 5b690 0 fmt::v11::format_facet<std::__ndk1::locale>::~format_facet()
PUBLIC 5b70c 0 fmt::v11::report_error(char const*)
PUBLIC 5b75c 0 fmt::v11::format_error::runtime_error(char const*)
PUBLIC 5b788 0 fmt::v11::format_facet<std::__ndk1::locale>::do_put(fmt::v11::basic_appender<char>, fmt::v11::loc_value, fmt::v11::format_specs const&) const
PUBLIC 5bf48 0 fmt::v11::detail::loc_writer<char>::~loc_writer()
PUBLIC 5bfac 0 fmt::v11::detail::vformat_to<char>(fmt::v11::detail::buffer<char>&, fmt::v11::basic_string_view<char>, fmt::v11::detail::vformat_args<char>::type, fmt::v11::detail::locale_ref)
PUBLIC 5c51c 0 fmt::v11::detail::is_printable(unsigned int)
PUBLIC 5c744 0 fmt::v11::detail::dragonbox::to_decimal<float>(float)
PUBLIC 5ca20 0 fmt::v11::detail::dragonbox::to_decimal<double>(double)
PUBLIC 5cf5c 0 fmt::v11::basic_memory_buffer<char, (unsigned long)500, std::__ndk1::allocator<char> >::grow(fmt::v11::detail::buffer<char>&, unsigned long)
PUBLIC 5cfd4 0 fmt::v11::format_facet<std::__ndk1::locale>::~format_facet()
PUBLIC 5d060 0 fmt::v11::format_error::~format_error()
PUBLIC 5d084 0 fmt::v11::detail::copy_noinline<char, char const*, fmt::v11::basic_appender<char> >(char const*, char const*, fmt::v11::basic_appender<char>)
PUBLIC 5d1d4 0 fmt::v11::detail::default_arg_formatter<char>::operator()<bool>(bool)
PUBLIC 5d23c 0 fmt::v11::detail::default_arg_formatter<char>::operator()<char>(char)
PUBLIC 5d2cc 0 fmt::v11::detail::default_arg_formatter<char>::operator()<float>(float)
PUBLIC 5d3b8 0 fmt::v11::detail::default_arg_formatter<char>::operator()<double>(double)
PUBLIC 5d4a4 0 fmt::v11::detail::default_arg_formatter<char>::operator()<char const*>(char const*)
PUBLIC 5d4ec 0 fmt::v11::detail::default_arg_formatter<char>::operator()<void const*>(void const*)
PUBLIC 5d584 0 _ZN3fmt3v116detail5writeIcNS0_14basic_appenderIcEEiTnNSt6__ndk19enable_ifIXaaaasr11is_integralIT1_EE5valuentsr3std7is_sameIS7_bEE5valuentsr3std7is_sameIS7_T_EE5valueEiE4typeELi0EEET0_SB_S7_
PUBLIC 5d7e4 0 fmt::v11::detail::copy_noinline<char, char*, fmt::v11::basic_appender<char> >(char*, char*, fmt::v11::basic_appender<char>)
PUBLIC 5d934 0 _ZN3fmt3v116detail5writeIcNS0_14basic_appenderIcEEjTnNSt6__ndk19enable_ifIXaaaasr11is_integralIT1_EE5valuentsr3std7is_sameIS7_bEE5valuentsr3std7is_sameIS7_T_EE5valueEiE4typeELi0EEET0_SB_S7_
PUBLIC 5db14 0 _ZN3fmt3v116detail5writeIcNS0_14basic_appenderIcEExTnNSt6__ndk19enable_ifIXaaaasr11is_integralIT1_EE5valuentsr3std7is_sameIS7_bEE5valuentsr3std7is_sameIS7_T_EE5valueEiE4typeELi0EEET0_SB_S7_
PUBLIC 5dd98 0 _ZN3fmt3v116detail5writeIcNS0_14basic_appenderIcEEyTnNSt6__ndk19enable_ifIXaaaasr11is_integralIT1_EE5valuentsr3std7is_sameIS7_bEE5valuentsr3std7is_sameIS7_T_EE5valueEiE4typeELi0EEET0_SB_S7_
PUBLIC 5dfa0 0 _ZN3fmt3v116detail5writeIcNS0_14basic_appenderIcEEnTnNSt6__ndk19enable_ifIXaaaasr11is_integralIT1_EE5valuentsr3std7is_sameIS7_bEE5valuentsr3std7is_sameIS7_T_EE5valueEiE4typeELi0EEET0_SB_S7_
PUBLIC 5e300 0 _ZN3fmt3v116detail5writeIcNS0_14basic_appenderIcEEoTnNSt6__ndk19enable_ifIXaaaasr11is_integralIT1_EE5valuentsr3std7is_sameIS7_bEE5valuentsr3std7is_sameIS7_T_EE5valueEiE4typeELi0EEET0_SB_S7_
PUBLIC 5e614 0 _ZN3fmt3v116detail5writeIcNS0_14basic_appenderIcEEbTnNSt6__ndk19enable_ifIXsr3std7is_sameIT1_bEE5valueEiE4typeELi0EEET0_SA_S7_RKNS0_12format_specsENS1_10locale_refE
PUBLIC 5e8a4 0 fmt::v11::detail::write_int_noinline<char, fmt::v11::basic_appender<char>, unsigned int>(fmt::v11::basic_appender<char>, fmt::v11::detail::write_int_arg<unsigned int>, fmt::v11::format_specs const&, fmt::v11::detail::locale_ref)
PUBLIC 5f680 0 fmt::v11::detail::fill<char, fmt::v11::basic_appender<char> >(fmt::v11::basic_appender<char>, unsigned long, fmt::v11::detail::fill_t const&)
PUBLIC 5f850 0 fmt::v11::detail::write_padded<char, (fmt::v11::align::type)1, fmt::v11::basic_appender<char>, fmt::v11::detail::write_char<char, fmt::v11::basic_appender<char> >(fmt::v11::basic_appender<char>, char, fmt::v11::format_specs const&)::{lambda(fmt::v11::basic_appender<char>&)#1}>(fmt::v11::basic_appender<char>, fmt::v11::format_specs const&, unsigned long, unsigned long, fmt::v11::detail::write_char<char, fmt::v11::basic_appender<char> >(fmt::v11::basic_appender<char>, char, fmt::v11::format_specs const&)::{lambda(fmt::v11::basic_appender<char>&)#1})
PUBLIC 5fa8c 0 fmt::v11::detail::write_escaped_cp<fmt::v11::basic_appender<char>, char>(fmt::v11::basic_appender<char>, fmt::v11::detail::find_escape_result<char> const&)
PUBLIC 5fd98 0 fmt::v11::detail::write_codepoint<(unsigned long)2, char, fmt::v11::basic_appender<char> >(fmt::v11::basic_appender<char>, char, unsigned int)
PUBLIC 5ff10 0 fmt::v11::detail::write_codepoint<(unsigned long)8, char, fmt::v11::basic_appender<char> >(fmt::v11::basic_appender<char>, char, unsigned int)
PUBLIC 60088 0 fmt::v11::detail::write_padded<char, (fmt::v11::align::type)1, fmt::v11::basic_appender<char>, fmt::v11::detail::write_nonfinite<char, fmt::v11::basic_appender<char> >(fmt::v11::basic_appender<char>, bool, fmt::v11::format_specs, fmt::v11::sign::type)::{lambda(fmt::v11::basic_appender<char>&)#1}>(fmt::v11::basic_appender<char>, fmt::v11::format_specs const&, unsigned long, unsigned long, fmt::v11::detail::write_nonfinite<char, fmt::v11::basic_appender<char> >(fmt::v11::basic_appender<char>, bool, fmt::v11::format_specs, fmt::v11::sign::type)::{lambda(fmt::v11::basic_appender<char>&)#1})
PUBLIC 602c8 0 fmt::v11::detail::do_write_float<char, fmt::v11::basic_appender<char>, fmt::v11::detail::dragonbox::decimal_fp<float>, fmt::v11::detail::digit_grouping<char> >(fmt::v11::basic_appender<char>, fmt::v11::detail::dragonbox::decimal_fp<float> const&, fmt::v11::format_specs const&, fmt::v11::detail::float_specs, fmt::v11::detail::locale_ref)
PUBLIC 60f3c 0 fmt::v11::detail::do_write_float<char, fmt::v11::basic_appender<char>, fmt::v11::detail::dragonbox::decimal_fp<float>, fmt::v11::detail::digit_grouping<char> >(fmt::v11::basic_appender<char>, fmt::v11::detail::dragonbox::decimal_fp<float> const&, fmt::v11::format_specs const&, fmt::v11::detail::float_specs, fmt::v11::detail::locale_ref)::{lambda(fmt::v11::basic_appender<char>(fmt::v11::basic_appender<char>))#1}::operator() const
PUBLIC 61090 0 fmt::v11::detail::digit_grouping<char>::digit_grouping(fmt::v11::detail::locale_ref, bool)
PUBLIC 612fc 0 fmt::v11::detail::digit_grouping<char>::~digit_grouping()
PUBLIC 61340 0 fmt::v11::detail::write_exponent<char, fmt::v11::basic_appender<char> >(int, fmt::v11::basic_appender<char>)
PUBLIC 61510 0 _ZN3fmt3v116detail17write_significandIcjTnNSt6__ndk19enable_ifIXsr3std11is_integralIT0_EE5valueEiE4typeELi0EEEPT_S9_S5_iiS8_
PUBLIC 6168c 0 std::__ndk1::basic_string<char, std::__ndk1::char_traits<char>, std::__ndk1::allocator<char> >::__assign_no_alias<true>(char const*, unsigned long)
PUBLIC 61738 0 std::__ndk1::basic_string<char, std::__ndk1::char_traits<char>, std::__ndk1::allocator<char> >::__assign_no_alias<false>(char const*, unsigned long)
PUBLIC 61848 0 fmt::v11::detail::digit_grouping<char>::apply<fmt::v11::basic_appender<char>, char>(fmt::v11::basic_appender<char>, fmt::v11::basic_string_view<char>) const
PUBLIC 61c00 0 fmt::v11::basic_memory_buffer<int, (unsigned long)500, std::__ndk1::allocator<int> >::grow(fmt::v11::detail::buffer<int>&, unsigned long)
PUBLIC 61ca0 0 fmt::v11::detail::do_write_float<char, fmt::v11::basic_appender<char>, fmt::v11::detail::dragonbox::decimal_fp<double>, fmt::v11::detail::digit_grouping<char> >(fmt::v11::basic_appender<char>, fmt::v11::detail::dragonbox::decimal_fp<double> const&, fmt::v11::format_specs const&, fmt::v11::detail::float_specs, fmt::v11::detail::locale_ref)
PUBLIC 62954 0 fmt::v11::detail::do_write_float<char, fmt::v11::basic_appender<char>, fmt::v11::detail::dragonbox::decimal_fp<double>, fmt::v11::detail::digit_grouping<char> >(fmt::v11::basic_appender<char>, fmt::v11::detail::dragonbox::decimal_fp<double> const&, fmt::v11::format_specs const&, fmt::v11::detail::float_specs, fmt::v11::detail::locale_ref)::{lambda(fmt::v11::basic_appender<char>(fmt::v11::basic_appender<char>))#1}::operator() const
PUBLIC 62aac 0 _ZN3fmt3v116detail17write_significandIcmTnNSt6__ndk19enable_ifIXsr3std11is_integralIT0_EE5valueEiE4typeELi0EEEPT_S9_S5_iiS8_
PUBLIC 62c3c 0 fmt::v11::detail::write_float<char, fmt::v11::basic_appender<char>, long double>(fmt::v11::basic_appender<char>, long double, fmt::v11::format_specs, fmt::v11::detail::locale_ref)
PUBLIC 63738 0 fmt::v11::detail::write_padded<char, (fmt::v11::align::type)2, fmt::v11::basic_appender<char>, fmt::v11::detail::write_bytes<char, (fmt::v11::align::type)2, fmt::v11::basic_appender<char> >(fmt::v11::basic_appender<char>, fmt::v11::basic_string_view<char>, fmt::v11::format_specs const&)::{lambda(fmt::v11::basic_appender<char>&)#1}>(fmt::v11::basic_appender<char>, fmt::v11::format_specs const&, unsigned long, unsigned long, fmt::v11::detail::write_bytes<char, (fmt::v11::align::type)2, fmt::v11::basic_appender<char> >(fmt::v11::basic_appender<char>, fmt::v11::basic_string_view<char>, fmt::v11::format_specs const&)::{lambda(fmt::v11::basic_appender<char>&)#1})
PUBLIC 63914 0 fmt::v11::detail::format_dragon(fmt::v11::detail::basic_fp<unsigned __int128>, unsigned int, int, fmt::v11::detail::buffer<char>&, int&)
PUBLIC 64d44 0 fmt::v11::detail::bigint::operator<<=(int)
PUBLIC 64e68 0 fmt::v11::detail::bigint::assign_pow10(int)
PUBLIC 655c4 0 fmt::v11::detail::bigint::divmod_assign(fmt::v11::detail::bigint const&)
PUBLIC 658e4 0 fmt::v11::basic_memory_buffer<unsigned int, (unsigned long)32, std::__ndk1::allocator<unsigned int> >::grow(fmt::v11::detail::buffer<unsigned int>&, unsigned long)
PUBLIC 65984 0 fmt::v11::detail::do_write_float<char, fmt::v11::basic_appender<char>, fmt::v11::detail::big_decimal_fp, fmt::v11::detail::digit_grouping<char> >(fmt::v11::basic_appender<char>, fmt::v11::detail::big_decimal_fp const&, fmt::v11::format_specs const&, fmt::v11::detail::float_specs, fmt::v11::detail::locale_ref)
PUBLIC 66834 0 fmt::v11::detail::do_write_float<char, fmt::v11::basic_appender<char>, fmt::v11::detail::big_decimal_fp, fmt::v11::detail::digit_grouping<char> >(fmt::v11::basic_appender<char>, fmt::v11::detail::big_decimal_fp const&, fmt::v11::format_specs const&, fmt::v11::detail::float_specs, fmt::v11::detail::locale_ref)::{lambda(fmt::v11::basic_appender<char>(fmt::v11::basic_appender<char>))#1}::operator() const
PUBLIC 66994 0 fmt::v11::detail::write_padded<char, (fmt::v11::align::type)2, fmt::v11::basic_appender<char>, fmt::v11::detail::write_ptr<char, fmt::v11::basic_appender<char>, unsigned long>(fmt::v11::basic_appender<char>, unsigned long, fmt::v11::format_specs const*)::{lambda(fmt::v11::basic_appender<char>&)#1}>(fmt::v11::basic_appender<char>, fmt::v11::format_specs const&, unsigned long, unsigned long, fmt::v11::detail::write_ptr<char, fmt::v11::basic_appender<char>, unsigned long>(fmt::v11::basic_appender<char>, unsigned long, fmt::v11::format_specs const*)::{lambda(fmt::v11::basic_appender<char>&)#1})
PUBLIC 66ba8 0 fmt::v11::detail::parse_replacement_field<char, fmt::v11::detail::vformat_to<char>(fmt::v11::detail::buffer<char>&, fmt::v11::basic_string_view<char>, fmt::v11::detail::vformat_args<char>::type, fmt::v11::detail::locale_ref)::format_handler&>(char const*, char const*, fmt::v11::detail::vformat_to<char>(fmt::v11::detail::buffer<char>&, fmt::v11::basic_string_view<char>, fmt::v11::detail::vformat_args<char>::type, fmt::v11::detail::locale_ref)::format_handler&)
PUBLIC 68844 0 fmt::v11::detail::parse_dynamic_spec<char>(char const*, char const*, int&, fmt::v11::detail::arg_ref<char>&, fmt::v11::basic_format_parse_context<char>&)
PUBLIC 68ad4 0 fmt::v11::basic_format_args<fmt::v11::context>::get<char>(fmt::v11::basic_string_view<char>) const
PUBLIC 68c2c 0 fmt::v11::detail::write_int_noinline<char, fmt::v11::basic_appender<char>, unsigned long>(fmt::v11::basic_appender<char>, fmt::v11::detail::write_int_arg<unsigned long>, fmt::v11::format_specs const&, fmt::v11::detail::locale_ref)
PUBLIC 69a80 0 fmt::v11::detail::write_int_noinline<char, fmt::v11::basic_appender<char>, unsigned __int128>(fmt::v11::basic_appender<char>, fmt::v11::detail::write_int_arg<unsigned __int128>, fmt::v11::format_specs const&, fmt::v11::detail::locale_ref)
PUBLIC 6aae8 0 _ZN3fmt3v116detail15format_hexfloatIdTnNSt6__ndk19enable_ifIXntsr16is_double_doubleIT_EE5valueEiE4typeELi0EEEvS5_NS0_12format_specsERNS1_6bufferIcEE
PUBLIC 6b008 0 fmt::v11::detail::format_float<double>(double, int, fmt::v11::detail::float_specs, fmt::v11::detail::buffer<char>&)
PUBLIC 6b9a8 0 fmt::v11::detail::write<char, fmt::v11::basic_appender<char> >(fmt::v11::basic_appender<char>, fmt::v11::basic_string_view<char>, fmt::v11::format_specs const&)
PUBLIC 6cd14 0 fmt::v11::detail::for_each_codepoint<fmt::v11::detail::compute_width(fmt::v11::basic_string_view<char>)::count_code_points>(fmt::v11::basic_string_view<char>, fmt::v11::detail::compute_width(fmt::v11::basic_string_view<char>)::count_code_points)::{lambda(char const*, char const*)#1}::operator()(char const*, char const*) const
PUBLIC 6cecc 0 fmt::v11::detail::write_int<fmt::v11::basic_appender<char>, unsigned long, char>(fmt::v11::basic_appender<char>, unsigned long, unsigned int, fmt::v11::format_specs const&, fmt::v11::detail::digit_grouping<char> const&)
PUBLIC 6d448 0 fmt::v11::detail::write_int<fmt::v11::basic_appender<char>, unsigned __int128, char>(fmt::v11::basic_appender<char>, unsigned __int128, unsigned int, fmt::v11::format_specs const&, fmt::v11::detail::digit_grouping<char> const&)
PUBLIC 6dad0 0 <.plt ELF section in raydeeux.yetanotherqolmod.android64.so>
STACK CFI INIT 2d630 10 .cfa: sp 0 +
STACK CFI INIT 2d640 8 .cfa: sp 0 +
STACK CFI INIT 2d648 8 .cfa: sp 0 +
STACK CFI INIT 2d650 14 .cfa: sp 0 +
STACK CFI INIT 2d664 1c .cfa: sp 0 +
STACK CFI INIT 2d680 10 .cfa: sp 0 +
STACK CFI INIT 2d690 134 .cfa: sp 0 +
STACK CFI INIT 2d7c4 84 .cfa: sp 0 +
STACK CFI INIT 2d848 f4 .cfa: sp 0 +
STACK CFI INIT 2d93c a8 .cfa: sp 0 +
STACK CFI INIT 2d9e4 7c .cfa: sp 0 +
STACK CFI INIT 2da60 14 .cfa: sp 0 +
STACK CFI INIT 2da74 40 .cfa: sp 0 +
STACK CFI INIT 2dab4 28 .cfa: sp 0 +
STACK CFI INIT 2dadc 190 .cfa: sp 0 +
STACK CFI INIT 2dc6c 2c8 .cfa: sp 0 +
STACK CFI INIT 2df34 8 .cfa: sp 0 +
STACK CFI INIT 2df3c 8 .cfa: sp 0 +
STACK CFI INIT 2df44 44 .cfa: sp 0 +
STACK CFI INIT 2df88 e8 .cfa: sp 0 +
STACK CFI INIT 2e070 e8 .cfa: sp 0 +
STACK CFI INIT 2e158 14 .cfa: sp 0 +
STACK CFI INIT 2e16c 10 .cfa: sp 0 +
STACK CFI INIT 2e17c 10 .cfa: sp 0 +
STACK CFI INIT 2e18c f0 .cfa: sp 0 +
STACK CFI INIT 2e27c 44 .cfa: sp 0 +
STACK CFI INIT 2e2c0 c .cfa: sp 0 +
STACK CFI INIT 2e2cc c .cfa: sp 0 +
STACK CFI INIT 2e2d8 2c .cfa: sp 0 +
STACK CFI INIT 2e304 280 .cfa: sp 0 +
STACK CFI INIT 2e584 c .cfa: sp 0 +
STACK CFI INIT 2e590 120 .cfa: sp 0 +
STACK CFI INIT 2e6b0 488 .cfa: sp 0 +
STACK CFI INIT 2eb38 c48 .cfa: sp 0 +
STACK CFI INIT 2f780 134 .cfa: sp 0 +
STACK CFI INIT 2f8b4 210 .cfa: sp 0 +
STACK CFI INIT 2fac4 38c .cfa: sp 0 +
STACK CFI INIT 2fe50 1c8 .cfa: sp 0 +
STACK CFI INIT 30018 9bc .cfa: sp 0 +
STACK CFI INIT 309d4 2d4 .cfa: sp 0 +
STACK CFI INIT 30ca8 134 .cfa: sp 0 +
STACK CFI INIT 30ddc 120 .cfa: sp 0 +
STACK CFI INIT 30efc 1c8 .cfa: sp 0 +
STACK CFI INIT 310c4 168 .cfa: sp 0 +
STACK CFI INIT 3122c fc .cfa: sp 0 +
STACK CFI INIT 31328 30 .cfa: sp 0 +
STACK CFI INIT 31490 30 .cfa: sp 0 +
STACK CFI INIT 314c0 98 .cfa: sp 0 +
STACK CFI INIT 31558 59c .cfa: sp 0 +
STACK CFI INIT 31af4 8c .cfa: sp 0 +
STACK CFI INIT 31b80 30 .cfa: sp 0 +
STACK CFI INIT 3230c 80 .cfa: sp 0 +
STACK CFI 32310 .cfa: sp 48 +
STACK CFI 3231c .cfa: x29 48 + x19: .cfa -8 + ^ x20: .cfa -16 + ^ x21: .cfa -24 + ^ x22: .cfa -32 + ^ .ra: .cfa -40 + ^ x29: .cfa -48 + ^
STACK CFI 32334 .cfa: sp 48 +
STACK CFI 32340 .cfa: sp 0 +
STACK CFI 32344 .cfa: x29 48 +
STACK CFI 32374 .cfa: sp 48 +
STACK CFI 32380 .cfa: sp 0 +
STACK CFI 32384 .cfa: x29 48 +
STACK CFI INIT 3238c 14 .cfa: sp 0 +
STACK CFI 32390 .cfa: sp 16 +
STACK CFI 32394 .cfa: x29 16 + .ra: .cfa -8 + ^ x29: .cfa -16 + ^
STACK CFI INIT 323f0 30 .cfa: sp 0 +
STACK CFI 323f4 .cfa: sp 32 +
STACK CFI 323fc .cfa: x29 32 + x19: .cfa -16 + ^ .ra: .cfa -24 + ^ x29: .cfa -32 + ^
STACK CFI 32414 .cfa: sp 32 +
STACK CFI 3241c .cfa: sp 0 +
STACK CFI INIT 32420 10 .cfa: sp 0 +
STACK CFI 32424 .cfa: sp 16 +
STACK CFI 32428 .cfa: x29 16 + .ra: .cfa -8 + ^ x29: .cfa -16 + ^
STACK CFI INIT 32734 128 .cfa: sp 0 +
STACK CFI 32738 .cfa: sp 80 +
STACK CFI 3274c .cfa: x29 80 + x19: .cfa -8 + ^ x20: .cfa -16 + ^ x21: .cfa -24 + ^ x22: .cfa -32 + ^ x23: .cfa -40 + ^ x24: .cfa -48 + ^ x25: .cfa -64 + ^ .ra: .cfa -72 + ^ x29: .cfa -80 + ^
STACK CFI 3283c .cfa: sp 80 +
STACK CFI 32850 .cfa: sp 0 +
STACK CFI 32854 .cfa: x29 80 +
STACK CFI INIT 3285c 34 .cfa: sp 0 +
STACK CFI 32860 .cfa: sp 32 +
STACK CFI 32868 .cfa: x29 32 + x19: .cfa -8 + ^ x20: .cfa -16 + ^ .ra: .cfa -24 + ^ x29: .cfa -32 + ^
STACK CFI 32884 .cfa: sp 32 +
STACK CFI 3288c .cfa: sp 0 +
STACK CFI INIT 329c4 104 .cfa: sp 0 +
STACK CFI 329c8 .cfa: sp 64 +
STACK CFI 329d8 .cfa: x29 64 + x19: .cfa -8 + ^ x20: .cfa -16 + ^ x21: .cfa -24 + ^ x22: .cfa -32 + ^ x23: .cfa -48 + ^ .ra: .cfa -56 + ^ x29: .cfa -64 + ^
STACK CFI 32a34 .cfa: sp 64 +
STACK CFI 32a44 .cfa: sp 0 +
STACK CFI 32a48 .cfa: x29 64 +
STACK CFI 32a64 .cfa: sp 64 +
STACK CFI 32a74 .cfa: sp 0 +
STACK CFI 32a78 .cfa: x29 64 +
STACK CFI 32ab4 .cfa: sp 64 +
STACK CFI 32ac4 .cfa: sp 0 +
STACK CFI INIT 32ea0 50 .cfa: sp 0 +
STACK CFI 32ea4 .cfa: sp 32 +
STACK CFI 32eac .cfa: x29 32 + x19: .cfa -16 + ^ .ra: .cfa -24 + ^ x29: .cfa -32 + ^
STACK CFI 32ec4 .cfa: sp 32 +
STACK CFI 32ecc .cfa: sp 0 +
STACK CFI 32ed0 .cfa: x29 32 +
STACK CFI 32ee4 .cfa: sp 32 +
STACK CFI 32eec .cfa: sp 0 +
STACK CFI INIT 33080 50 .cfa: sp 0 +
STACK CFI 33084 .cfa: sp 32 +
STACK CFI 3308c .cfa: x29 32 + x19: .cfa -16 + ^ .ra: .cfa -24 + ^ x29: .cfa -32 + ^
STACK CFI 330a4 .cfa: sp 32 +
STACK CFI 330ac .cfa: sp 0 +
STACK CFI 330b0 .cfa: x29 32 +
STACK CFI 330c4 .cfa: sp 32 +
STACK CFI 330cc .cfa: sp 0 +
STACK CFI INIT 3325c 34 .cfa: sp 0 +
STACK CFI 33260 .cfa: sp 16 +
STACK CFI 33264 .cfa: x29 16 + .ra: .cfa -8 + ^ x29: .cfa -16 + ^
STACK CFI INIT 33290 4 .cfa: sp 0 +
STACK CFI INIT 33294 14 .cfa: sp 0 +
STACK CFI INIT 332a8 4 .cfa: sp 0 +
STACK CFI INIT 332ac 14 .cfa: sp 0 +
STACK CFI INIT 33ef8 50 .cfa: sp 0 +
STACK CFI 33efc .cfa: sp 32 +
STACK CFI 33f04 .cfa: x29 32 + x19: .cfa -16 + ^ .ra: .cfa -24 + ^ x29: .cfa -32 + ^
STACK CFI 33f1c .cfa: sp 32 +
STACK CFI 33f24 .cfa: sp 0 +
STACK CFI 33f28 .cfa: x29 32 +
STACK CFI 33f3c .cfa: sp 32 +
STACK CFI 33f44 .cfa: sp 0 +
STACK CFI INIT 34020 ac .cfa: sp 0 +
STACK CFI 34024 .cfa: sp 32 +
STACK CFI 3402c .cfa: x29 32 + x19: .cfa -16 + ^ .ra: .cfa -24 + ^ x29: .cfa -32 + ^
STACK CFI 34088 .cfa: sp 32 +
STACK CFI 34090 .cfa: sp 0 +
STACK CFI 34094 .cfa: x29 32 +
STACK CFI 340c0 .cfa: sp 32 +
STACK CFI 340c8 .cfa: sp 0 +
STACK CFI INIT 340cc bc .cfa: sp 0 +
STACK CFI 340d0 .cfa: sp 32 +
STACK CFI 340d8 .cfa: x29 32 + x19: .cfa -16 + ^ .ra: .cfa -24 + ^ x29: .cfa -32 + ^
STACK CFI 3413c .cfa: sp 32 +
STACK CFI 34144 .cfa: sp 0 +
STACK CFI 34148 .cfa: x29 32 +
STACK CFI 3417c .cfa: sp 32 +
STACK CFI 34184 .cfa: sp 0 +
STACK CFI INIT 34188 40 .cfa: sp 0 +
STACK CFI 341a0 .cfa: sp 32 +
STACK CFI 341a8 .cfa: x29 32 + x19: .cfa -16 + ^ .ra: .cfa -24 + ^ x29: .cfa -32 + ^
STACK CFI 341bc .cfa: sp 32 +
STACK CFI 341c4 .cfa: sp 0 +
STACK CFI INIT 341c8 44 .cfa: sp 0 +
STACK CFI 341cc .cfa: sp 32 +
STACK CFI 341d4 .cfa: x29 32 + x19: .cfa -16 + ^ .ra: .cfa -24 + ^ x29: .cfa -32 + ^
STACK CFI 34200 .cfa: sp 32 +
STACK CFI 34208 .cfa: sp 0 +
STACK CFI INIT 3420c 50 .cfa: sp 0 +
STACK CFI 34210 .cfa: sp 32 +
STACK CFI 34218 .cfa: x29 32 + x19: .cfa -16 + ^ .ra: .cfa -24 + ^ x29: .cfa -32 + ^
STACK CFI 34230 .cfa: sp 32 +
STACK CFI 34238 .cfa: sp 0 +
STACK CFI 3423c .cfa: x29 32 +
STACK CFI 34250 .cfa: sp 32 +
STACK CFI 34258 .cfa: sp 0 +
STACK CFI INIT 3425c 40 .cfa: sp 0 +
STACK CFI 34274 .cfa: sp 32 +
STACK CFI 3427c .cfa: x29 32 + x19: .cfa -16 + ^ .ra: .cfa -24 + ^ x29: .cfa -32 + ^
STACK CFI 34290 .cfa: sp 32 +
STACK CFI 34298 .cfa: sp 0 +
STACK CFI INIT 3429c 44 .cfa: sp 0 +
STACK CFI 342a0 .cfa: sp 32 +
STACK CFI 342a8 .cfa: x29 32 + x19: .cfa -16 + ^ .ra: .cfa -24 + ^ x29: .cfa -32 + ^
STACK CFI 342d4 .cfa: sp 32 +
STACK CFI 342dc .cfa: sp 0 +
STACK CFI INIT 342e0 4 .cfa: sp 0 +
STACK CFI INIT 342e4 4 .cfa: sp 0 +
STACK CFI INIT 342e8 34 .cfa: sp 0 +
STACK CFI 342ec .cfa: sp 32 +
STACK CFI 342f4 .cfa: x29 32 + x19: .cfa -16 + ^ .ra: .cfa -24 + ^ x29: .cfa -32 + ^
STACK CFI 34310 .cfa: sp 32 +
STACK CFI 34318 .cfa: sp 0 +
STACK CFI INIT 3431c 14 .cfa: sp 0 +
STACK CFI INIT 34330 4 .cfa: sp 0 +
STACK CFI INIT 34334 4 .cfa: sp 0 +
STACK CFI INIT 3461c 1c .cfa: sp 0 +
STACK CFI INIT 34638 c .cfa: sp 0 +
STACK CFI INIT 34644 4 .cfa: sp 0 +
STACK CFI INIT 34648 14 .cfa: sp 0 +
STACK CFI INIT 34750 50 .cfa: sp 0 +
STACK CFI 34754 .cfa: sp 32 +
STACK CFI 3475c .cfa: x29 32 + x19: .cfa -16 + ^ .ra: .cfa -24 + ^ x29: .cfa -32 + ^
STACK CFI 34774 .cfa: sp 32 +
STACK CFI 3477c .cfa: sp 0 +
STACK CFI 34780 .cfa: x29 32 +
STACK CFI 34794 .cfa: sp 32 +
STACK CFI 3479c .cfa: sp 0 +
STACK CFI INIT 347a0 4 .cfa: sp 0 +
STACK CFI INIT 347a4 34 .cfa: sp 0 +
STACK CFI 347a8 .cfa: sp 32 +
STACK CFI 347b0 .cfa: x29 32 + x19: .cfa -16 + ^ .ra: .cfa -24 + ^ x29: .cfa -32 + ^
STACK CFI 347cc .cfa: sp 32 +
STACK CFI 347d4 .cfa: sp 0 +
STACK CFI INIT 347d8 14 .cfa: sp 0 +
STACK CFI INIT 347ec 4 .cfa: sp 0 +
STACK CFI INIT 347f0 4 .cfa: sp 0 +
STACK CFI INIT 34aa8 1c .cfa: sp 0 +
STACK CFI INIT 34ac4 c .cfa: sp 0 +
STACK CFI INIT 34ad0 4 .cfa: sp 0 +
STACK CFI INIT 34c48 9c .cfa: sp 0 +
STACK CFI 34c4c .cfa: sp 32 +
STACK CFI 34c54 .cfa: x29 32 + x19: .cfa -8 + ^ x20: .cfa -16 + ^ .ra: .cfa -24 + ^ x29: .cfa -32 + ^
STACK CFI 34cd8 .cfa: sp 32 +
STACK CFI 34ce0 .cfa: sp 0 +
STACK CFI INIT 34ce4 a4 .cfa: sp 0 +
STACK CFI 34ce8 .cfa: sp 32 +
STACK CFI 34cf0 .cfa: x29 32 + x19: .cfa -8 + ^ x20: .cfa -16 + ^ .ra: .cfa -24 + ^ x29: .cfa -32 + ^
STACK CFI 34d7c .cfa: sp 32 +
STACK CFI 34d84 .cfa: sp 0 +
STACK CFI INIT 34d88 4 .cfa: sp 0 +
STACK CFI INIT 34d8c 4 .cfa: sp 0 +
STACK CFI INIT 34d90 24 .cfa: sp 0 +
STACK CFI 34d94 .cfa: sp 16 +
STACK CFI 34d98 .cfa: x29 16 + .ra: .cfa -8 + ^ x29: .cfa -16 + ^
STACK CFI 34dac .cfa: sp 16 +
STACK CFI 34db0 .cfa: sp 0 +
STACK CFI INIT 34db4 10 .cfa: sp 0 +
STACK CFI INIT 34dc4 4 .cfa: sp 0 +
STACK CFI INIT 34dc8 4 .cfa: sp 0 +
STACK CFI INIT 36180 1c .cfa: sp 0 +
STACK CFI INIT 3619c c .cfa: sp 0 +
STACK CFI INIT 3684c 34 .cfa: sp 0 +
STACK CFI 36858 .cfa: sp 32 +
STACK CFI 36860 .cfa: x29 32 + x19: .cfa -16 + ^ .ra: .cfa -24 + ^ x29: .cfa -32 + ^
STACK CFI 36874 .cfa: sp 32 +
STACK CFI 3687c .cfa: sp 0 +
STACK CFI INIT 36880 38 .cfa: sp 0 +
STACK CFI 36884 .cfa: sp 32 +
STACK CFI 3688c .cfa: x29 32 + x19: .cfa -16 + ^ .ra: .cfa -24 + ^ x29: .cfa -32 + ^
STACK CFI 368ac .cfa: sp 32 +
STACK CFI 368b4 .cfa: sp 0 +
STACK CFI INIT 368b8 ac .cfa: sp 0 +
STACK CFI 368bc .cfa: sp 32 +
STACK CFI 368c4 .cfa: x29 32 + x19: .cfa -16 + ^ .ra: .cfa -24 + ^ x29: .cfa -32 + ^
STACK CFI 36920 .cfa: sp 32 +
STACK CFI 36928 .cfa: sp 0 +
STACK CFI 3692c .cfa: x29 32 +
STACK CFI 36958 .cfa: sp 32 +
STACK CFI 36960 .cfa: sp 0 +
STACK CFI INIT 36964 bc .cfa: sp 0 +
STACK CFI 36968 .cfa: sp 32 +
STACK CFI 36970 .cfa: x29 32 + x19: .cfa -16 + ^ .ra: .cfa -24 + ^ x29: .cfa -32 + ^
STACK CFI 369d4 .cfa: sp 32 +
STACK CFI 369dc .cfa: sp 0 +
STACK CFI 369e0 .cfa: x29 32 +
STACK CFI 36a14 .cfa: sp 32 +
STACK CFI 36a1c .cfa: sp 0 +
STACK CFI INIT 36a20 4 .cfa: sp 0 +
STACK CFI INIT 36a24 24 .cfa: sp 0 +
STACK CFI 36a28 .cfa: sp 16 +
STACK CFI 36a2c .cfa: x29 16 + .ra: .cfa -8 + ^ x29: .cfa -16 + ^
STACK CFI 36a40 .cfa: sp 16 +
STACK CFI 36a44 .cfa: sp 0 +
STACK CFI INIT 36a48 10 .cfa: sp 0 +
STACK CFI INIT 36a58 4 .cfa: sp 0 +
STACK CFI INIT 36a5c 4 .cfa: sp 0 +
STACK CFI INIT 36a60 c0 .cfa: sp 0 +
STACK CFI 36a64 .cfa: sp 64 +
STACK CFI 36a74 .cfa: x29 32 + x19: .cfa -8 + ^ x20: .cfa -16 + ^ .ra: .cfa -24 + ^ x29: .cfa -32 + ^ v8: .cfa -48 + ^
STACK CFI 36b08 .cfa: sp 64 +
STACK CFI 36b18 .cfa: sp 0 +
STACK CFI 36b1c .cfa: x29 32 +
STACK CFI INIT 36b20 1c .cfa: sp 0 +
STACK CFI INIT 36b3c c .cfa: sp 0 +
STACK CFI INIT 36d00 50 .cfa: sp 0 +
STACK CFI 36d04 .cfa: sp 32 +
STACK CFI 36d0c .cfa: x29 32 + x19: .cfa -16 + ^ .ra: .cfa -24 + ^ x29: .cfa -32 + ^
STACK CFI 36d24 .cfa: sp 32 +
STACK CFI 36d2c .cfa: sp 0 +
STACK CFI 36d30 .cfa: x29 32 +
STACK CFI 36d44 .cfa: sp 32 +
STACK CFI 36d4c .cfa: sp 0 +
STACK CFI INIT 36d50 48 .cfa: sp 0 +
STACK CFI 36d70 .cfa: sp 32 +
STACK CFI 36d78 .cfa: x29 32 + x19: .cfa -16 + ^ .ra: .cfa -24 + ^ x29: .cfa -32 + ^
STACK CFI 36d8c .cfa: sp 32 +
STACK CFI 36d94 .cfa: sp 0 +
STACK CFI INIT 36d98 4c .cfa: sp 0 +
STACK CFI 36d9c .cfa: sp 32 +
STACK CFI 36da4 .cfa: x29 32 + x19: .cfa -16 + ^ .ra: .cfa -24 + ^ x29: .cfa -32 + ^
STACK CFI 36dd8 .cfa: sp 32 +
STACK CFI 36de0 .cfa: sp 0 +
STACK CFI INIT 36de4 40 .cfa: sp 0 +
STACK CFI 36dfc .cfa: sp 32 +
STACK CFI 36e04 .cfa: x29 32 + x19: .cfa -16 + ^ .ra: .cfa -24 + ^ x29: .cfa -32 + ^
STACK CFI 36e18 .cfa: sp 32 +
STACK CFI 36e20 .cfa: sp 0 +
STACK CFI INIT 36e24 44 .cfa: sp 0 +
STACK CFI 36e28 .cfa: sp 32 +
STACK CFI 36e30 .cfa: x29 32 + x19: .cfa -16 + ^ .ra: .cfa -24 + ^ x29: .cfa -32 + ^
STACK CFI 36e5c .cfa: sp 32 +
STACK CFI 36e64 .cfa: sp 0 +
STACK CFI INIT 36e68 4 .cfa: sp 0 +
STACK CFI INIT 36e6c 38 .cfa: sp 0 +
STACK CFI 36e70 .cfa: sp 32 +
STACK CFI 36e78 .cfa: x29 32 + x19: .cfa -16 + ^ .ra: .cfa -24 + ^ x29: .cfa -32 + ^
STACK CFI 36e98 .cfa: sp 32 +
STACK CFI 36ea0 .cfa: sp 0 +
STACK CFI INIT 36ea4 18 .cfa: sp 0 +
STACK CFI INIT 36ebc 4 .cfa: sp 0 +
STACK CFI INIT 36ec0 4 .cfa: sp 0 +
STACK CFI INIT 370d8 1c .cfa: sp 0 +
STACK CFI INIT 370f4 c .cfa: sp 0 +
STACK CFI INIT 37100 4 .cfa: sp 0 +
STACK CFI INIT 37104 24 .cfa: sp 0 +
STACK CFI 37108 .cfa: sp 16 +
STACK CFI 3710c .cfa: x29 16 + .ra: .cfa -8 + ^ x29: .cfa -16 + ^
STACK CFI 37120 .cfa: sp 16 +
STACK CFI 37124 .cfa: sp 0 +
STACK CFI INIT 37128 10 .cfa: sp 0 +
STACK CFI INIT 37138 4 .cfa: sp 0 +
STACK CFI INIT 3713c 4 .cfa: sp 0 +
STACK CFI INIT 37140 c0 .cfa: sp 0 +
STACK CFI 37144 .cfa: sp 64 +
STACK CFI 37154 .cfa: x29 32 + x19: .cfa -8 + ^ x20: .cfa -16 + ^ .ra: .cfa -24 + ^ x29: .cfa -32 + ^ v8: .cfa -48 + ^
STACK CFI 371e8 .cfa: sp 64 +
STACK CFI 371f8 .cfa: sp 0 +
STACK CFI 371fc .cfa: x29 32 +
STACK CFI INIT 37200 1c .cfa: sp 0 +
STACK CFI INIT 3721c c .cfa: sp 0 +
STACK CFI INIT 3736c 4 .cfa: sp 0 +
STACK CFI INIT 37370 38 .cfa: sp 0 +
STACK CFI 37374 .cfa: sp 32 +
STACK CFI 3737c .cfa: x29 32 + x19: .cfa -16 + ^ .ra: .cfa -24 + ^ x29: .cfa -32 + ^
STACK CFI 3739c .cfa: sp 32 +
STACK CFI 373a4 .cfa: sp 0 +
STACK CFI INIT 373a8 18 .cfa: sp 0 +
STACK CFI INIT 373c0 4 .cfa: sp 0 +
STACK CFI INIT 373c4 4 .cfa: sp 0 +
STACK CFI INIT 375dc 1c .cfa: sp 0 +
STACK CFI INIT 375f8 c .cfa: sp 0 +
STACK CFI INIT 37604 4 .cfa: sp 0 +
STACK CFI INIT 37608 24 .cfa: sp 0 +
STACK CFI 3760c .cfa: sp 16 +
STACK CFI 37610 .cfa: x29 16 + .ra: .cfa -8 + ^ x29: .cfa -16 + ^
STACK CFI 37624 .cfa: sp 16 +
STACK CFI 37628 .cfa: sp 0 +
STACK CFI INIT 3762c 10 .cfa: sp 0 +
STACK CFI INIT 3763c 4 .cfa: sp 0 +
STACK CFI INIT 37640 4 .cfa: sp 0 +
STACK CFI INIT 37644 c0 .cfa: sp 0 +
STACK CFI 37648 .cfa: sp 64 +
STACK CFI 37658 .cfa: x29 32 + x19: .cfa -8 + ^ x20: .cfa -16 + ^ .ra: .cfa -24 + ^ x29: .cfa -32 + ^ v8: .cfa -48 + ^
STACK CFI 376ec .cfa: sp 64 +
STACK CFI 376fc .cfa: sp 0 +
STACK CFI 37700 .cfa: x29 32 +
STACK CFI INIT 37704 1c .cfa: sp 0 +
STACK CFI INIT 37720 c .cfa: sp 0 +
STACK CFI INIT 3772c 4 .cfa: sp 0 +
STACK CFI INIT 37730 38 .cfa: sp 0 +
STACK CFI 37734 .cfa: sp 32 +
STACK CFI 3773c .cfa: x29 32 + x19: .cfa -16 + ^ .ra: .cfa -24 + ^ x29: .cfa -32 + ^
STACK CFI 3775c .cfa: sp 32 +
STACK CFI 37764 .cfa: sp 0 +
STACK CFI INIT 37768 18 .cfa: sp 0 +
STACK CFI INIT 37780 4 .cfa: sp 0 +
STACK CFI INIT 37784 4 .cfa: sp 0 +
STACK CFI INIT 3799c 1c .cfa: sp 0 +
STACK CFI INIT 379b8 c .cfa: sp 0 +
STACK CFI INIT 379c4 4 .cfa: sp 0 +
STACK CFI INIT 379c8 4 .cfa: sp 0 +
STACK CFI INIT 379cc 24 .cfa: sp 0 +
STACK CFI 379d0 .cfa: sp 16 +
STACK CFI 379d4 .cfa: x29 16 + .ra: .cfa -8 + ^ x29: .cfa -16 + ^
STACK CFI 379e8 .cfa: sp 16 +
STACK CFI 379ec .cfa: sp 0 +
STACK CFI INIT 379f0 10 .cfa: sp 0 +
STACK CFI INIT 37a00 4 .cfa: sp 0 +
STACK CFI INIT 37a04 4 .cfa: sp 0 +
STACK CFI INIT 37a08 c0 .cfa: sp 0 +
STACK CFI 37a0c .cfa: sp 64 +
STACK CFI 37a1c .cfa: x29 32 + x19: .cfa -8 + ^ x20: .cfa -16 + ^ .ra: .cfa -24 + ^ x29: .cfa -32 + ^ v8: .cfa -48 + ^
STACK CFI 37ab0 .cfa: sp 64 +
STACK CFI 37ac0 .cfa: sp 0 +
STACK CFI 37ac4 .cfa: x29 32 +
STACK CFI INIT 37ac8 1c .cfa: sp 0 +
STACK CFI INIT 37ae4 c .cfa: sp 0 +
STACK CFI INIT 37af0 4 .cfa: sp 0 +
STACK CFI INIT 37af4 4 .cfa: sp 0 +
STACK CFI INIT 37af8 38 .cfa: sp 0 +
STACK CFI 37afc .cfa: sp 32 +
STACK CFI 37b04 .cfa: x29 32 + x19: .cfa -16 + ^ .ra: .cfa -24 + ^ x29: .cfa -32 + ^
STACK CFI 37b24 .cfa: sp 32 +
STACK CFI 37b2c .cfa: sp 0 +
STACK CFI INIT 37b30 18 .cfa: sp 0 +
STACK CFI INIT 37b48 4 .cfa: sp 0 +
STACK CFI INIT 37b4c 4 .cfa: sp 0 +
STACK CFI INIT 37d64 1c .cfa: sp 0 +
STACK CFI INIT 37d80 c .cfa: sp 0 +
STACK CFI INIT 37d8c 4 .cfa: sp 0 +
STACK CFI INIT 37f04 5c .cfa: sp 0 +
STACK CFI 37f08 .cfa: sp 32 +
STACK CFI 37f10 .cfa: x29 32 + x19: .cfa -16 + ^ .ra: .cfa -24 + ^ x29: .cfa -32 + ^
STACK CFI 37f54 .cfa: sp 32 +
STACK CFI 37f5c .cfa: sp 0 +
STACK CFI INIT 37f60 64 .cfa: sp 0 +
STACK CFI 37f64 .cfa: sp 32 +
STACK CFI 37f6c .cfa: x29 32 + x19: .cfa -16 + ^ .ra: .cfa -24 + ^ x29: .cfa -32 + ^
STACK CFI 37fb8 .cfa: sp 32 +
STACK CFI 37fc0 .cfa: sp 0 +
STACK CFI INIT 37fc4 4 .cfa: sp 0 +
STACK CFI INIT 37fc8 4 .cfa: sp 0 +
STACK CFI INIT 37fcc 34 .cfa: sp 0 +
STACK CFI 37fd0 .cfa: sp 32 +
STACK CFI 37fd8 .cfa: x29 32 + x19: .cfa -16 + ^ .ra: .cfa -24 + ^ x29: .cfa -32 + ^
STACK CFI 37ff4 .cfa: sp 32 +
STACK CFI 37ffc .cfa: sp 0 +
STACK CFI INIT 38000 14 .cfa: sp 0 +
STACK CFI INIT 38014 4 .cfa: sp 0 +
STACK CFI INIT 38018 4 .cfa: sp 0 +
STACK CFI INIT 3801c 10 .cfa: sp 0 +
STACK CFI INIT 3802c 1c .cfa: sp 0 +
STACK CFI INIT 38048 c .cfa: sp 0 +
STACK CFI INIT 387ac 1c .cfa: sp 0 +
STACK CFI INIT 38b44 50 .cfa: sp 0 +
STACK CFI 38b48 .cfa: sp 32 +
STACK CFI 38b50 .cfa: x29 32 + x19: .cfa -16 + ^ .ra: .cfa -24 + ^ x29: .cfa -32 + ^
STACK CFI 38b68 .cfa: sp 32 +
STACK CFI 38b70 .cfa: sp 0 +
STACK CFI 38b74 .cfa: x29 32 +
STACK CFI 38b88 .cfa: sp 32 +
STACK CFI 38b90 .cfa: sp 0 +
STACK CFI INIT 38c08 7c .cfa: sp 0 +
STACK CFI 38c0c .cfa: sp 48 +
STACK CFI 38c18 .cfa: x29 48 + x19: .cfa -8 + ^ x20: .cfa -16 + ^ x21: .cfa -32 + ^ .ra: .cfa -40 + ^ x29: .cfa -48 + ^
STACK CFI 38c64 .cfa: sp 48 +
STACK CFI 38c70 .cfa: sp 0 +
STACK CFI 38c74 .cfa: sp 48 +
STACK CFI 38c80 .cfa: sp 0 +
STACK CFI INIT 38c84 4 .cfa: sp 0 +
STACK CFI INIT 38c88 34 .cfa: sp 0 +
STACK CFI 38c8c .cfa: sp 32 +
STACK CFI 38c94 .cfa: x29 32 + x19: .cfa -16 + ^ .ra: .cfa -24 + ^ x29: .cfa -32 + ^
STACK CFI INIT 38cbc 120 .cfa: sp 0 +
STACK CFI 38cc0 .cfa: sp 64 +
STACK CFI 38cd0 .cfa: x29 64 + x19: .cfa -8 + ^ x20: .cfa -16 + ^ x21: .cfa -24 + ^ x22: .cfa -32 + ^ x23: .cfa -40 + ^ x24: .cfa -48 + ^ .ra: .cfa -56 + ^ x29: .cfa -64 + ^
STACK CFI 38dc8 .cfa: sp 64 +
STACK CFI 38dd8 .cfa: sp 0 +
STACK CFI INIT 38fd0 7c .cfa: sp 0 +
STACK CFI 38fd4 .cfa: sp 32 +
STACK CFI 38fdc .cfa: x29 32 + x19: .cfa -8 + ^ x20: .cfa -16 + ^ .ra: .cfa -24 + ^ x29: .cfa -32 + ^
STACK CFI 39034 .cfa: sp 32 +
STACK CFI 3903c .cfa: sp 0 +
STACK CFI 39040 .cfa: sp 32 +
STACK CFI 39048 .cfa: sp 0 +
STACK CFI INIT 3904c 1b0 .cfa: sp 0 +
STACK CFI INIT 3947c 80 .cfa: sp 0 +
STACK CFI 39480 .cfa: sp 48 +
STACK CFI 3948c .cfa: x29 48 + x19: .cfa -8 + ^ x20: .cfa -16 + ^ x21: .cfa -32 + ^ .ra: .cfa -40 + ^ x29: .cfa -48 + ^
STACK CFI 394ec .cfa: sp 48 +
STACK CFI 394f8 .cfa: sp 0 +
STACK CFI INIT 394fc 24 .cfa: sp 0 +
STACK CFI 39500 .cfa: sp 32 +
STACK CFI 39508 .cfa: x29 32 + x19: .cfa -16 + ^ .ra: .cfa -24 + ^ x29: .cfa -32 + ^
STACK CFI 39514 .cfa: sp 32 +
STACK CFI 3951c .cfa: sp 0 +
STACK CFI INIT 39a18 148 .cfa: sp 0 +
STACK CFI 39a1c .cfa: sp 48 +
STACK CFI 39a28 .cfa: x29 48 + x19: .cfa -8 + ^ x20: .cfa -16 + ^ x21: .cfa -32 + ^ .ra: .cfa -40 + ^ x29: .cfa -48 + ^
STACK CFI 39b50 .cfa: sp 48 +
STACK CFI 39b5c .cfa: sp 0 +
STACK CFI INIT 39ef0 68 .cfa: sp 0 +
STACK CFI 39ef4 .cfa: sp 32 +
STACK CFI 39efc .cfa: x29 32 + x19: .cfa -8 + ^ x20: .cfa -16 + ^ .ra: .cfa -24 + ^ x29: .cfa -32 + ^
STACK CFI 39f14 .cfa: sp 32 +
STACK CFI 39f1c .cfa: sp 0 +
STACK CFI 39f20 .cfa: x29 32 +
STACK CFI 39f4c .cfa: sp 32 +
STACK CFI 39f54 .cfa: sp 0 +
STACK CFI INIT 39f58 14 .cfa: sp 0 +
STACK CFI 39f5c .cfa: sp 16 +
STACK CFI 39f60 .cfa: x29 16 + .ra: .cfa -8 + ^ x29: .cfa -16 + ^
STACK CFI INIT 39f6c 4 .cfa: sp 0 +
STACK CFI INIT 39f70 14 .cfa: sp 0 +
STACK CFI INIT 39f84 d4 .cfa: sp 0 +
STACK CFI 39f88 .cfa: sp 48 +
STACK CFI 39f94 .cfa: x29 48 + x19: .cfa -8 + ^ x20: .cfa -16 + ^ x21: .cfa -32 + ^ .ra: .cfa -40 + ^ x29: .cfa -48 + ^
STACK CFI 3a024 .cfa: sp 48 +
STACK CFI 3a030 .cfa: sp 0 +
STACK CFI 3a034 .cfa: x29 48 +
STACK CFI INIT 3a058 3c8 .cfa: sp 0 +
STACK CFI INIT 3a420 8c .cfa: sp 0 +
STACK CFI 3a428 .cfa: sp 32 +
STACK CFI 3a430 .cfa: x29 32 + x19: .cfa -8 + ^ x20: .cfa -16 + ^ .ra: .cfa -24 + ^ x29: .cfa -32 + ^
STACK CFI 3a478 .cfa: sp 32 +
STACK CFI 3a480 .cfa: sp 0 +
STACK CFI 3a488 .cfa: x29 32 +
STACK CFI INIT 3a7b0 50 .cfa: sp 0 +
STACK CFI 3a7b4 .cfa: sp 32 +
STACK CFI 3a7bc .cfa: x29 32 + x19: .cfa -16 + ^ .ra: .cfa -24 + ^ x29: .cfa -32 + ^
STACK CFI 3a7d4 .cfa: sp 32 +
STACK CFI 3a7dc .cfa: sp 0 +
STACK CFI 3a7e0 .cfa: x29 32 +
STACK CFI 3a7f4 .cfa: sp 32 +
STACK CFI 3a7fc .cfa: sp 0 +
STACK CFI INIT 3a800 64 .cfa: sp 0 +
STACK CFI 3a804 .cfa: sp 32 +
STACK CFI 3a80c .cfa: x29 32 + x19: .cfa -16 + ^ .ra: .cfa -24 + ^ x29: .cfa -32 + ^
STACK CFI 3a838 .cfa: sp 32 +
STACK CFI 3a840 .cfa: sp 0 +
STACK CFI 3a844 .cfa: x29 32 +
STACK CFI 3a858 .cfa: sp 32 +
STACK CFI 3a860 .cfa: sp 0 +
STACK CFI INIT 3a864 178 .cfa: sp 0 +
STACK CFI 3a868 .cfa: sp 80 +
STACK CFI 3a87c .cfa: x29 80 + x19: .cfa -8 + ^ x20: .cfa -16 + ^ x21: .cfa -24 + ^ x22: .cfa -32 + ^ x23: .cfa -40 + ^ x24: .cfa -48 + ^ x25: .cfa -56 + ^ x26: .cfa -64 + ^ .ra: .cfa -72 + ^ x29: .cfa -80 + ^
STACK CFI 3a9c4 .cfa: sp 80 +
STACK CFI 3a9d8 .cfa: sp 0 +
STACK CFI INIT 3a9dc 60 .cfa: sp 0 +
STACK CFI 3a9ec .cfa: sp 32 +
STACK CFI 3a9f4 .cfa: x29 32 + x19: .cfa -16 + ^ .ra: .cfa -24 + ^ x29: .cfa -32 + ^
STACK CFI 3aa2c .cfa: sp 32 +
STACK CFI 3aa34 .cfa: sp 0 +
STACK CFI INIT 3aa3c 1c .cfa: sp 0 +
STACK CFI INIT 3b2c0 4 .cfa: sp 0 +
STACK CFI INIT 3b9b0 14 .cfa: sp 0 +
STACK CFI 3b9b4 .cfa: sp 16 +
STACK CFI 3b9b8 .cfa: x29 16 + .ra: .cfa -8 + ^ x29: .cfa -16 + ^
STACK CFI INIT 3be44 1c .cfa: sp 0 +
STACK CFI INIT 3c1e0 4 .cfa: sp 0 +
STACK CFI INIT 3c450 88 .cfa: sp 0 +
STACK CFI INIT 3cb0c 1c .cfa: sp 0 +
STACK CFI INIT 3ce68 4 .cfa: sp 0 +
STACK CFI INIT 3d680 8 .cfa: sp 0 +
STACK CFI INIT 3d688 24 .cfa: sp 0 +
STACK CFI 3d68c .cfa: sp 32 +
STACK CFI 3d694 .cfa: x29 32 + x19: .cfa -16 + ^ .ra: .cfa -24 + ^ x29: .cfa -32 + ^
STACK CFI 3d6a0 .cfa: sp 32 +
STACK CFI 3d6a8 .cfa: sp 0 +
STACK CFI INIT 3d6ac 18 .cfa: sp 0 +
STACK CFI INIT 3d6c4 4 .cfa: sp 0 +
STACK CFI INIT 3da94 70 .cfa: sp 0 +
STACK CFI 3da98 .cfa: sp 48 +
STACK CFI 3daa4 .cfa: x29 48 + x19: .cfa -8 + ^ x20: .cfa -16 + ^ x21: .cfa -32 + ^ .ra: .cfa -40 + ^ x29: .cfa -48 + ^
STACK CFI 3dabc .cfa: sp 48 +
STACK CFI 3dac8 .cfa: sp 0 +
STACK CFI 3dacc .cfa: x29 48 +
STACK CFI 3daf4 .cfa: sp 48 +
STACK CFI 3db00 .cfa: sp 0 +
STACK CFI INIT 3db04 14 .cfa: sp 0 +
STACK CFI 3db08 .cfa: sp 16 +
STACK CFI 3db0c .cfa: x29 16 + .ra: .cfa -8 + ^ x29: .cfa -16 + ^
STACK CFI INIT 3dd44 14 .cfa: sp 0 +
STACK CFI 3dd48 .cfa: sp 16 +
STACK CFI 3dd4c .cfa: x29 16 + .ra: .cfa -8 + ^ x29: .cfa -16 + ^
STACK CFI INIT 3dd58 14 .cfa: sp 0 +
STACK CFI 3dd5c .cfa: sp 16 +
STACK CFI 3dd60 .cfa: x29 16 + .ra: .cfa -8 + ^ x29: .cfa -16 + ^
STACK CFI INIT 3ddbc 30 .cfa: sp 0 +
STACK CFI 3ddc0 .cfa: sp 32 +
STACK CFI 3ddc8 .cfa: x29 32 + x19: .cfa -16 + ^ .ra: .cfa -24 + ^ x29: .cfa -32 + ^
STACK CFI 3dde0 .cfa: sp 32 +
STACK CFI 3dde8 .cfa: sp 0 +
STACK CFI INIT 3ddec 14 .cfa: sp 0 +
STACK CFI 3ddf0 .cfa: sp 16 +
STACK CFI 3ddf4 .cfa: x29 16 + .ra: .cfa -8 + ^ x29: .cfa -16 + ^
STACK CFI INIT 3de00 4 .cfa: sp 0 +
STACK CFI INIT 3de04 4 .cfa: sp 0 +
STACK CFI INIT 3de08 38 .cfa: sp 0 +
STACK CFI 3de0c .cfa: sp 32 +
STACK CFI 3de14 .cfa: x29 32 + x19: .cfa -16 + ^ .ra: .cfa -24 + ^ x29: .cfa -32 + ^
STACK CFI 3de34 .cfa: sp 32 +
STACK CFI 3de3c .cfa: sp 0 +
STACK CFI INIT 3de40 18 .cfa: sp 0 +
STACK CFI INIT 3de58 4 .cfa: sp 0 +
STACK CFI INIT 3de5c 4 .cfa: sp 0 +
STACK CFI INIT 3de60 10 .cfa: sp 0 +
STACK CFI INIT 3de70 1c .cfa: sp 0 +
STACK CFI INIT 3de8c c .cfa: sp 0 +
STACK CFI INIT 3de98 70 .cfa: sp 0 +
STACK CFI 3de9c .cfa: sp 48 +
STACK CFI 3dea8 .cfa: x29 48 + x19: .cfa -8 + ^ x20: .cfa -16 + ^ x21: .cfa -32 + ^ .ra: .cfa -40 + ^ x29: .cfa -48 + ^
STACK CFI 3dec0 .cfa: sp 48 +
STACK CFI 3decc .cfa: sp 0 +
STACK CFI 3ded0 .cfa: x29 48 +
STACK CFI 3def8 .cfa: sp 48 +
STACK CFI 3df04 .cfa: sp 0 +
STACK CFI INIT 3e374 50 .cfa: sp 0 +
STACK CFI 3e398 .cfa: sp 32 +
STACK CFI 3e3a0 .cfa: x29 32 + x19: .cfa -16 + ^ .ra: .cfa -24 + ^ x29: .cfa -32 + ^
STACK CFI 3e3b4 .cfa: sp 32 +
STACK CFI 3e3bc .cfa: sp 0 +
STACK CFI INIT 3e3c4 44c .cfa: sp 0 +
STACK CFI INIT 3e810 1ac .cfa: sp 0 +
STACK CFI 3e814 .cfa: sp 32 +
STACK CFI 3e81c .cfa: x29 32 + x19: .cfa -8 + ^ x20: .cfa -16 + ^ .ra: .cfa -24 + ^ x29: .cfa -32 + ^
STACK CFI 3e90c .cfa: sp 32 +
STACK CFI 3e914 .cfa: sp 0 +
STACK CFI 3e918 .cfa: x29 32 +
STACK CFI INIT 3f244 1c .cfa: sp 0 +
STACK CFI INIT 3f5e0 4 .cfa: sp 0 +
STACK CFI INIT 3f5e4 110 .cfa: sp 0 +
STACK CFI 3f5e8 .cfa: sp 48 +
STACK CFI 3f5f8 .cfa: x29 40 + x19: .cfa -8 + ^ x20: .cfa -16 + ^ x21: .cfa -24 + ^ .ra: .cfa -32 + ^ x29: .cfa -40 + ^ v8: .cfa -48 + ^
STACK CFI 3f6e0 .cfa: sp 48 +
STACK CFI 3f6f0 .cfa: sp 0 +
STACK CFI INIT 3fd1c 1c .cfa: sp 0 +
STACK CFI INIT 4026c 1c .cfa: sp 0 +
STACK CFI INIT 40780 1c .cfa: sp 0 +
STACK CFI INIT 40dc4 1c .cfa: sp 0 +
STACK CFI INIT 413dc 4 .cfa: sp 0 +
STACK CFI INIT 41670 26c .cfa: sp 0 +
STACK CFI 41674 .cfa: sp 64 +
STACK CFI 41684 .cfa: x29 64 + x19: .cfa -8 + ^ x20: .cfa -16 + ^ x21: .cfa -24 + ^ x22: .cfa -32 + ^ x23: .cfa -48 + ^ .ra: .cfa -56 + ^ x29: .cfa -64 + ^
STACK CFI 41870 .cfa: sp 64 +
STACK CFI 41880 .cfa: sp 0 +
STACK CFI 41884 .cfa: x29 64 +
STACK CFI 418c8 .cfa: sp 64 +
STACK CFI 418d8 .cfa: sp 0 +
STACK CFI INIT 41984 8c .cfa: sp 0 +
STACK CFI 41988 .cfa: sp 32 +
STACK CFI 41990 .cfa: x29 32 + x19: .cfa -16 + ^ .ra: .cfa -24 + ^ x29: .cfa -32 + ^
STACK CFI 41a04 .cfa: sp 32 +
STACK CFI 41a0c .cfa: sp 0 +
STACK CFI INIT 41a10 3c .cfa: sp 0 +
STACK CFI 41a14 .cfa: sp 32 +
STACK CFI 41a1c .cfa: x29 32 + x19: .cfa -16 + ^ .ra: .cfa -24 + ^ x29: .cfa -32 + ^
STACK CFI 41a28 .cfa: sp 32 +
STACK CFI 41a30 .cfa: sp 0 +
STACK CFI 41a34 .cfa: x29 32 +
STACK CFI 41a40 .cfa: sp 32 +
STACK CFI 41a48 .cfa: sp 0 +
STACK CFI INIT 424ec 4 .cfa: sp 0 +
STACK CFI INIT 43818 4 .cfa: sp 0 +
STACK CFI INIT 43be8 1ec .cfa: sp 0 +
STACK CFI 43bec .cfa: sp 80 +
STACK CFI 43c00 .cfa: x29 64 + x19: .cfa -8 + ^ x20: .cfa -16 + ^ x21: .cfa -24 + ^ x22: .cfa -32 + ^ x23: .cfa -48 + ^ .ra: .cfa -56 + ^ x29: .cfa -64 + ^
STACK CFI 43db8 .cfa: sp 80 +
STACK CFI 43dcc .cfa: sp 0 +
STACK CFI 43dd0 .cfa: x29 64 +
STACK CFI INIT 43dd4 140 .cfa: sp 0 +
STACK CFI 43dd8 .cfa: sp 48 +
STACK CFI 43de4 .cfa: x29 48 + x19: .cfa -8 + ^ x20: .cfa -16 + ^ x21: .cfa -32 + ^ .ra: .cfa -40 + ^ x29: .cfa -48 + ^
STACK CFI 43ebc .cfa: sp 48 +
STACK CFI 43ec8 .cfa: sp 0 +
STACK CFI 43ecc .cfa: x29 48 +
STACK CFI 43f04 .cfa: sp 48 +
STACK CFI 43f10 .cfa: sp 0 +
STACK CFI INIT 44280 4 .cfa: sp 0 +
STACK CFI INIT 44a40 1c .cfa: sp 0 +
STACK CFI INIT 45874 4 .cfa: sp 0 +
STACK CFI INIT 45acc 538 .cfa: sp 0 +
STACK CFI 45ad0 .cfa: sp 224 +
STACK CFI 45af8 .cfa: x29 96 + x19: .cfa -8 + ^ x20: .cfa -16 + ^ x21: .cfa -24 + ^ x22: .cfa -32 + ^ x23: .cfa -40 + ^ x24: .cfa -48 + ^ x25: .cfa -56 + ^ x26: .cfa -64 + ^ x27: .cfa -72 + ^ x28: .cfa -80 + ^ .ra: .cfa -88 + ^ x29: .cfa -96 + ^ v8: .cfa -104 + ^ v9: .cfa -112 + ^ v10: .cfa -120 + ^ v11: .cfa -128 + ^ v12: .cfa -136 + ^ v13: .cfa -144 + ^
STACK CFI 45fc0 .cfa: sp 224 +
STACK CFI 45fe8 .cfa: sp 0 +
STACK CFI 45fec .cfa: x29 96 +
STACK CFI INIT 46004 518 .cfa: sp 0 +
STACK CFI 46008 .cfa: sp 80 +
STACK CFI 4601c .cfa: x29 80 + x19: .cfa -8 + ^ x20: .cfa -16 + ^ x21: .cfa -24 + ^ x22: .cfa -32 + ^ x23: .cfa -40 + ^ x24: .cfa -48 + ^ x25: .cfa -56 + ^ x26: .cfa -64 + ^ .ra: .cfa -72 + ^ x29: .cfa -80 + ^
STACK CFI 461e4 .cfa: sp 80 +
STACK CFI 461f8 .cfa: sp 0 +
STACK CFI 461fc .cfa: x29 80 +
STACK CFI 46234 .cfa: sp 80 +
STACK CFI 46248 .cfa: sp 0 +
STACK CFI 4624c .cfa: x29 80 +
STACK CFI 464fc .cfa: sp 80 +
STACK CFI 46510 .cfa: sp 0 +
STACK CFI 46514 .cfa: x29 80 +
STACK CFI INIT 46650 88 .cfa: sp 0 +
STACK CFI 46654 .cfa: sp 48 +
STACK CFI 46660 .cfa: x29 48 + x19: .cfa -8 + ^ x20: .cfa -16 + ^ x21: .cfa -32 + ^ .ra: .cfa -40 + ^ x29: .cfa -48 + ^
STACK CFI 466c8 .cfa: sp 48 +
STACK CFI 466d4 .cfa: sp 0 +
STACK CFI INIT 466d8 88 .cfa: sp 0 +
STACK CFI 466dc .cfa: sp 48 +
STACK CFI 466e8 .cfa: x29 48 + x19: .cfa -8 + ^ x20: .cfa -16 + ^ x21: .cfa -32 + ^ .ra: .cfa -40 + ^ x29: .cfa -48 + ^
STACK CFI 46750 .cfa: sp 48 +
STACK CFI 4675c .cfa: sp 0 +
STACK CFI INIT 47c88 78 .cfa: sp 0 +
STACK CFI 47c8c .cfa: sp 48 +
STACK CFI 47c98 .cfa: x29 48 + x19: .cfa -8 + ^ x20: .cfa -16 + ^ x21: .cfa -32 + ^ .ra: .cfa -40 + ^ x29: .cfa -48 + ^
STACK CFI 47ce0 .cfa: sp 48 +
STACK CFI 47cec .cfa: sp 0 +
STACK CFI 47cf0 .cfa: sp 48 +
STACK CFI 47cfc .cfa: sp 0 +
STACK CFI INIT 47d00 78 .cfa: sp 0 +
STACK CFI 47d04 .cfa: sp 48 +
STACK CFI 47d10 .cfa: x29 48 + x19: .cfa -8 + ^ x20: .cfa -16 + ^ x21: .cfa -32 + ^ .ra: .cfa -40 + ^ x29: .cfa -48 + ^
STACK CFI 47d58 .cfa: sp 48 +
STACK CFI 47d64 .cfa: sp 0 +
STACK CFI 47d68 .cfa: sp 48 +
STACK CFI 47d74 .cfa: sp 0 +
STACK CFI INIT 47d78 84 .cfa: sp 0 +
STACK CFI 47d7c .cfa: sp 48 +
STACK CFI 47d88 .cfa: x29 48 + x19: .cfa -8 + ^ x20: .cfa -16 + ^ x21: .cfa -24 + ^ x22: .cfa -32 + ^ .ra: .cfa -40 + ^ x29: .cfa -48 + ^
STACK CFI 47ddc .cfa: sp 48 +
STACK CFI 47de8 .cfa: sp 0 +
STACK CFI 47dec .cfa: sp 48 +
STACK CFI 47df8 .cfa: sp 0 +
STACK CFI INIT 47e18 8c .cfa: sp 0 +
STACK CFI 47e1c .cfa: sp 48 +
STACK CFI 47e28 .cfa: x29 48 + x19: .cfa -8 + ^ x20: .cfa -16 + ^ x21: .cfa -24 + ^ x22: .cfa -32 + ^ .ra: .cfa -40 + ^ x29: .cfa -48 + ^
STACK CFI 47e60 .cfa: sp 48 +
STACK CFI 47e6c .cfa: sp 0 +
STACK CFI 47e70 .cfa: x29 48 +
STACK CFI 47e94 .cfa: sp 48 +
STACK CFI 47ea0 .cfa: sp 0 +
STACK CFI INIT 47ea4 78 .cfa: sp 0 +
STACK CFI 47ea8 .cfa: sp 48 +
STACK CFI 47eb4 .cfa: x29 48 + x19: .cfa -8 + ^ x20: .cfa -16 + ^ x21: .cfa -32 + ^ .ra: .cfa -40 + ^ x29: .cfa -48 + ^
STACK CFI 47efc .cfa: sp 48 +
STACK CFI 47f08 .cfa: sp 0 +
STACK CFI 47f0c .cfa: sp 48 +
STACK CFI 47f18 .cfa: sp 0 +
STACK CFI INIT 47f1c 8c .cfa: sp 0 +
STACK CFI 47f20 .cfa: sp 48 +
STACK CFI 47f2c .cfa: x29 48 + x19: .cfa -8 + ^ x20: .cfa -16 + ^ x21: .cfa -24 + ^ x22: .cfa -32 + ^ .ra: .cfa -40 + ^ x29: .cfa -48 + ^
STACK CFI 47f64 .cfa: sp 48 +
STACK CFI 47f70 .cfa: sp 0 +
STACK CFI 47f74 .cfa: x29 48 +
STACK CFI 47f98 .cfa: sp 48 +
STACK CFI 47fa4 .cfa: sp 0 +
STACK CFI INIT 47fa8 78 .cfa: sp 0 +
STACK CFI 47fac .cfa: sp 48 +
STACK CFI 47fb8 .cfa: x29 48 + x19: .cfa -8 + ^ x20: .cfa -16 + ^ x21: .cfa -32 + ^ .ra: .cfa -40 + ^ x29: .cfa -48 + ^
STACK CFI 48000 .cfa: sp 48 +
STACK CFI 4800c .cfa: sp 0 +
STACK CFI 48010 .cfa: sp 48 +
STACK CFI 4801c .cfa: sp 0 +
STACK CFI INIT 48020 104 .cfa: sp 0 +
STACK CFI 48024 .cfa: sp 64 +
STACK CFI 48034 .cfa: x29 64 + x19: .cfa -8 + ^ x20: .cfa -16 + ^ x21: .cfa -24 + ^ x22: .cfa -32 + ^ x23: .cfa -48 + ^ .ra: .cfa -56 + ^ x29: .cfa -64 + ^
STACK CFI 480fc .cfa: sp 64 +
STACK CFI 4810c .cfa: sp 0 +
STACK CFI 48110 .cfa: sp 64 +
STACK CFI 48120 .cfa: sp 0 +
STACK CFI INIT 4851c 78 .cfa: sp 0 +
STACK CFI 48520 .cfa: sp 48 +
STACK CFI 4852c .cfa: x29 48 + x19: .cfa -8 + ^ x20: .cfa -16 + ^ x21: .cfa -32 + ^ .ra: .cfa -40 + ^ x29: .cfa -48 + ^
STACK CFI 48574 .cfa: sp 48 +
STACK CFI 48580 .cfa: sp 0 +
STACK CFI 48584 .cfa: sp 48 +
STACK CFI 48590 .cfa: sp 0 +
STACK CFI INIT 485b0 90 .cfa: sp 0 +
STACK CFI 485b4 .cfa: sp 48 +
STACK CFI 485c0 .cfa: x29 48 + x19: .cfa -8 + ^ x20: .cfa -16 + ^ x21: .cfa -24 + ^ x22: .cfa -32 + ^ .ra: .cfa -40 + ^ x29: .cfa -48 + ^
STACK CFI 485f8 .cfa: sp 48 +
STACK CFI 48604 .cfa: sp 0 +
STACK CFI 48608 .cfa: x29 48 +
STACK CFI 48630 .cfa: sp 48 +
STACK CFI 4863c .cfa: sp 0 +
STACK CFI INIT 486d8 3c .cfa: sp 0 +
STACK CFI 486dc .cfa: sp 32 +
STACK CFI 486e4 .cfa: x29 32 + x19: .cfa -16 + ^ .ra: .cfa -24 + ^ x29: .cfa -32 + ^
STACK CFI 486fc .cfa: sp 32 +
STACK CFI 48704 .cfa: sp 0 +
STACK CFI 48708 .cfa: sp 32 +
STACK CFI 48710 .cfa: sp 0 +
STACK CFI INIT 4874c 78 .cfa: sp 0 +
STACK CFI 48750 .cfa: sp 48 +
STACK CFI 4875c .cfa: x29 48 + x19: .cfa -8 + ^ x20: .cfa -16 + ^ x21: .cfa -32 + ^ .ra: .cfa -40 + ^ x29: .cfa -48 + ^
STACK CFI 487a4 .cfa: sp 48 +
STACK CFI 487b0 .cfa: sp 0 +
STACK CFI 487b4 .cfa: sp 48 +
STACK CFI 487c0 .cfa: sp 0 +
STACK CFI INIT 487c4 78 .cfa: sp 0 +
STACK CFI 487c8 .cfa: sp 48 +
STACK CFI 487d4 .cfa: x29 48 + x19: .cfa -8 + ^ x20: .cfa -16 + ^ x21: .cfa -32 + ^ .ra: .cfa -40 + ^ x29: .cfa -48 + ^
STACK CFI 4881c .cfa: sp 48 +
STACK CFI 48828 .cfa: sp 0 +
STACK CFI 4882c .cfa: sp 48 +
STACK CFI 48838 .cfa: sp 0 +
STACK CFI INIT 4883c 78 .cfa: sp 0 +
STACK CFI 48840 .cfa: sp 48 +
STACK CFI 4884c .cfa: x29 48 + x19: .cfa -8 + ^ x20: .cfa -16 + ^ x21: .cfa -32 + ^ .ra: .cfa -40 + ^ x29: .cfa -48 + ^
STACK CFI 48894 .cfa: sp 48 +
STACK CFI 488a0 .cfa: sp 0 +
STACK CFI 488a4 .cfa: sp 48 +
STACK CFI 488b0 .cfa: sp 0 +
STACK CFI INIT 488b4 78 .cfa: sp 0 +
STACK CFI 488b8 .cfa: sp 48 +
STACK CFI 488c4 .cfa: x29 48 + x19: .cfa -8 + ^ x20: .cfa -16 + ^ x21: .cfa -32 + ^ .ra: .cfa -40 + ^ x29: .cfa -48 + ^
STACK CFI 4890c .cfa: sp 48 +
STACK CFI 48918 .cfa: sp 0 +
STACK CFI 4891c .cfa: sp 48 +
STACK CFI 48928 .cfa: sp 0 +
STACK CFI INIT 48af8 2b8 .cfa: sp 0 +
STACK CFI 48afc .cfa: sp 80 +
STACK CFI 48b10 .cfa: x29 80 + x19: .cfa -8 + ^ x20: .cfa -16 + ^ x21: .cfa -24 + ^ x22: .cfa -32 + ^ x23: .cfa -40 + ^ x24: .cfa -48 + ^ x25: .cfa -64 + ^ .ra: .cfa -72 + ^ x29: .cfa -80 + ^
STACK CFI 48cbc .cfa: sp 80 +
STACK CFI 48cd0 .cfa: sp 0 +
STACK CFI 48cd4 .cfa: x29 80 +
STACK CFI 48d98 .cfa: sp 80 +
STACK CFI 48dac .cfa: sp 0 +
STACK CFI INIT 48db0 80 .cfa: sp 0 +
STACK CFI 48db4 .cfa: sp 48 +
STACK CFI 48dc0 .cfa: x29 48 + x19: .cfa -8 + ^ x20: .cfa -16 + ^ x21: .cfa -32 + ^ .ra: .cfa -40 + ^ x29: .cfa -48 + ^
STACK CFI 48e10 .cfa: sp 48 +
STACK CFI 48e1c .cfa: sp 0 +
STACK CFI 48e20 .cfa: sp 48 +
STACK CFI 48e2c .cfa: sp 0 +
STACK CFI INIT 48e30 80 .cfa: sp 0 +
STACK CFI 48e34 .cfa: sp 48 +
STACK CFI 48e40 .cfa: x29 48 + x19: .cfa -8 + ^ x20: .cfa -16 + ^ x21: .cfa -32 + ^ .ra: .cfa -40 + ^ x29: .cfa -48 + ^
STACK CFI 48e90 .cfa: sp 48 +
STACK CFI 48e9c .cfa: sp 0 +
STACK CFI 48ea0 .cfa: sp 48 +
STACK CFI 48eac .cfa: sp 0 +
STACK CFI INIT 49050 2b8 .cfa: sp 0 +
STACK CFI INIT 49308 1bc .cfa: sp 0 +
STACK CFI 4930c .cfa: sp 64 +
STACK CFI 4931c .cfa: x29 64 + x19: .cfa -8 + ^ x20: .cfa -16 + ^ x21: .cfa -24 + ^ x22: .cfa -32 + ^ x23: .cfa -48 + ^ .ra: .cfa -56 + ^ x29: .cfa -64 + ^
STACK CFI 4940c .cfa: sp 64 +
STACK CFI 4941c .cfa: sp 0 +
STACK CFI 49420 .cfa: x29 64 +
STACK CFI INIT 494c4 80 .cfa: sp 0 +
STACK CFI 494c8 .cfa: sp 48 +
STACK CFI 494d4 .cfa: x29 48 + x19: .cfa -8 + ^ x20: .cfa -16 + ^ x21: .cfa -32 + ^ .ra: .cfa -40 + ^ x29: .cfa -48 + ^
STACK CFI 49524 .cfa: sp 48 +
STACK CFI 49530 .cfa: sp 0 +
STACK CFI 49534 .cfa: sp 48 +
STACK CFI 49540 .cfa: sp 0 +
STACK CFI INIT 49544 98 .cfa: sp 0 +
STACK CFI 4954c .cfa: sp 48 +
STACK CFI 49558 .cfa: x29 48 + x19: .cfa -8 + ^ x20: .cfa -16 + ^ x21: .cfa -32 + ^ .ra: .cfa -40 + ^ x29: .cfa -48 + ^
STACK CFI 495a8 .cfa: sp 0 + x19: x19 x20: x20 x21: x21 .ra: x30 x29: x29
STACK CFI 495ac .cfa: x29 48 + x19: .cfa -8 + ^ x20: .cfa -16 + ^ x21: .cfa -32 + ^ .ra: .cfa -40 + ^ x29: .cfa -48 + ^
STACK CFI 495cc .cfa: sp 48 +
STACK CFI 495d8 .cfa: sp 0 +
STACK CFI INIT 495dc 54 .cfa: sp 0 +
STACK CFI 495e4 .cfa: sp 32 +
STACK CFI 495ec .cfa: x29 32 + x19: .cfa -8 + ^ x20: .cfa -16 + ^ .ra: .cfa -24 + ^ x29: .cfa -32 + ^
STACK CFI 49624 .cfa: sp 32 +
STACK CFI 4962c .cfa: sp 0 +
STACK CFI INIT 49630 54 .cfa: sp 0 +
STACK CFI 49638 .cfa: sp 32 +
STACK CFI 49640 .cfa: x29 32 + x19: .cfa -8 + ^ x20: .cfa -16 + ^ .ra: .cfa -24 + ^ x29: .cfa -32 + ^
STACK CFI 49678 .cfa: sp 32 +
STACK CFI 49680 .cfa: sp 0 +
STACK CFI INIT 4972c 54 .cfa: sp 0 +
STACK CFI 49734 .cfa: sp 32 +
STACK CFI 4973c .cfa: x29 32 + x19: .cfa -8 + ^ x20: .cfa -16 + ^ .ra: .cfa -24 + ^ x29: .cfa -32 + ^
STACK CFI 49774 .cfa: sp 32 +
STACK CFI 4977c .cfa: sp 0 +
STACK CFI INIT 49780 a8 .cfa: sp 0 +
STACK CFI 49788 .cfa: sp 48 +
STACK CFI 49794 .cfa: x29 48 + x19: .cfa -8 + ^ x20: .cfa -16 + ^ x21: .cfa -24 + ^ x22: .cfa -32 + ^ .ra: .cfa -40 + ^ x29: .cfa -48 + ^
STACK CFI 49818 .cfa: sp 48 +
STACK CFI 49824 .cfa: sp 0 +
STACK CFI INIT 49828 54 .cfa: sp 0 +
STACK CFI 49830 .cfa: sp 32 +
STACK CFI 49838 .cfa: x29 32 + x19: .cfa -8 + ^ x20: .cfa -16 + ^ .ra: .cfa -24 + ^ x29: .cfa -32 + ^
STACK CFI 49870 .cfa: sp 32 +
STACK CFI 49878 .cfa: sp 0 +
STACK CFI INIT 49c18 c0 .cfa: sp 0 +
STACK CFI 49c1c .cfa: sp 48 +
STACK CFI 49c28 .cfa: x29 48 + x19: .cfa -8 + ^ x20: .cfa -16 + ^ x21: .cfa -32 + ^ .ra: .cfa -40 + ^ x29: .cfa -48 + ^
STACK CFI 49c90 .cfa: sp 48 +
STACK CFI 49c9c .cfa: sp 0 +
STACK CFI 49ca0 .cfa: x29 48 +
STACK CFI 49cc8 .cfa: sp 48 +
STACK CFI 49cd4 .cfa: sp 0 +
STACK CFI INIT 49cd8 70 .cfa: sp 0 +
STACK CFI 49cdc .cfa: sp 48 +
STACK CFI 49ce8 .cfa: x29 48 + x19: .cfa -8 + ^ x20: .cfa -16 + ^ x21: .cfa -32 + ^ .ra: .cfa -40 + ^ x29: .cfa -48 + ^
STACK CFI 49d00 .cfa: sp 48 +
STACK CFI 49d0c .cfa: sp 0 +
STACK CFI 49d10 .cfa: x29 48 +
STACK CFI 49d38 .cfa: sp 48 +
STACK CFI 49d44 .cfa: sp 0 +
STACK CFI INIT 49d48 4c .cfa: sp 0 +
STACK CFI 49d4c .cfa: sp 32 +
STACK CFI 49d54 .cfa: x29 32 + x19: .cfa -8 + ^ x20: .cfa -16 + ^ .ra: .cfa -24 + ^ x29: .cfa -32 + ^
STACK CFI 49d7c .cfa: sp 32 +
STACK CFI 49d84 .cfa: sp 0 +
STACK CFI 49d88 .cfa: sp 32 +
STACK CFI 49d90 .cfa: sp 0 +
STACK CFI INIT 49d94 70 .cfa: sp 0 +
STACK CFI 49d98 .cfa: sp 48 +
STACK CFI 49da4 .cfa: x29 48 + x19: .cfa -8 + ^ x20: .cfa -16 + ^ x21: .cfa -32 + ^ .ra: .cfa -40 + ^ x29: .cfa -48 + ^
STACK CFI 49dbc .cfa: sp 48 +
STACK CFI 49dc8 .cfa: sp 0 +
STACK CFI 49dcc .cfa: x29 48 +
STACK CFI 49df4 .cfa: sp 48 +
STACK CFI 49e00 .cfa: sp 0 +
STACK CFI INIT 49e04 14 .cfa: sp 0 +
STACK CFI 49e08 .cfa: sp 16 +
STACK CFI 49e0c .cfa: x29 16 + .ra: .cfa -8 + ^ x29: .cfa -16 + ^
STACK CFI INIT 4a458 50 .cfa: sp 0 +
STACK CFI 4a47c .cfa: sp 32 +
STACK CFI 4a484 .cfa: x29 32 + x19: .cfa -16 + ^ .ra: .cfa -24 + ^ x29: .cfa -32 + ^
STACK CFI 4a498 .cfa: sp 32 +
STACK CFI 4a4a0 .cfa: sp 0 +
STACK CFI INIT 4a940 14 .cfa: sp 0 +
STACK CFI 4a944 .cfa: sp 16 +
STACK CFI 4a948 .cfa: x29 16 + .ra: .cfa -8 + ^ x29: .cfa -16 + ^
STACK CFI INIT 4a954 14 .cfa: sp 0 +
STACK CFI 4a958 .cfa: sp 16 +
STACK CFI 4a95c .cfa: x29 16 + .ra: .cfa -8 + ^ x29: .cfa -16 + ^
STACK CFI INIT 4da48 1c .cfa: sp 0 +
STACK CFI INIT 4dee4 1c .cfa: sp 0 +
STACK CFI INIT 4e380 1c .cfa: sp 0 +
STACK CFI INIT 4e81c 1c .cfa: sp 0 +
STACK CFI INIT 4ecb8 1c .cfa: sp 0 +
STACK CFI INIT 4ee38 14 .cfa: sp 0 +
STACK CFI 4ee3c .cfa: sp 16 +
STACK CFI 4ee40 .cfa: x29 16 + .ra: .cfa -8 + ^ x29: .cfa -16 + ^
STACK CFI INIT 4ee4c 4 .cfa: sp 0 +
STACK CFI INIT 4ee50 38 .cfa: sp 0 +
STACK CFI 4ee54 .cfa: sp 32 +
STACK CFI 4ee5c .cfa: x29 32 + x19: .cfa -16 + ^ .ra: .cfa -24 + ^ x29: .cfa -32 + ^
STACK CFI 4ee7c .cfa: sp 32 +
STACK CFI 4ee84 .cfa: sp 0 +
STACK CFI INIT 4ee88 18 .cfa: sp 0 +
STACK CFI INIT 4eea0 4 .cfa: sp 0 +
STACK CFI INIT 4eea4 4 .cfa: sp 0 +
STACK CFI INIT 4f060 1c .cfa: sp 0 +
STACK CFI INIT 4f07c c .cfa: sp 0 +
STACK CFI INIT 4f088 4 .cfa: sp 0 +
STACK CFI INIT 4f08c 38 .cfa: sp 0 +
STACK CFI 4f090 .cfa: sp 32 +
STACK CFI 4f098 .cfa: x29 32 + x19: .cfa -16 + ^ .ra: .cfa -24 + ^ x29: .cfa -32 + ^
STACK CFI 4f0b8 .cfa: sp 32 +
STACK CFI 4f0c0 .cfa: sp 0 +
STACK CFI INIT 4f0c4 18 .cfa: sp 0 +
STACK CFI INIT 4f0dc 4 .cfa: sp 0 +
STACK CFI INIT 4f0e0 4 .cfa: sp 0 +
STACK CFI INIT 4f29c 1c .cfa: sp 0 +
STACK CFI INIT 4f2b8 c .cfa: sp 0 +
STACK CFI INIT 4f2c4 4 .cfa: sp 0 +
STACK CFI INIT 4f2c8 38 .cfa: sp 0 +
STACK CFI 4f2cc .cfa: sp 32 +
STACK CFI 4f2d4 .cfa: x29 32 + x19: .cfa -16 + ^ .ra: .cfa -24 + ^ x29: .cfa -32 + ^
STACK CFI 4f2f4 .cfa: sp 32 +
STACK CFI 4f2fc .cfa: sp 0 +
STACK CFI INIT 4f300 18 .cfa: sp 0 +
STACK CFI INIT 4f318 4 .cfa: sp 0 +
STACK CFI INIT 4f31c 4 .cfa: sp 0 +
STACK CFI INIT 4f4d8 1c .cfa: sp 0 +
STACK CFI INIT 4f4f4 c .cfa: sp 0 +
STACK CFI INIT 4f500 4 .cfa: sp 0 +
STACK CFI INIT 4f504 38 .cfa: sp 0 +
STACK CFI 4f508 .cfa: sp 32 +
STACK CFI 4f510 .cfa: x29 32 + x19: .cfa -16 + ^ .ra: .cfa -24 + ^ x29: .cfa -32 + ^
STACK CFI 4f530 .cfa: sp 32 +
STACK CFI 4f538 .cfa: sp 0 +
STACK CFI INIT 4f53c 18 .cfa: sp 0 +
STACK CFI INIT 4f554 4 .cfa: sp 0 +
STACK CFI INIT 4f558 4 .cfa: sp 0 +
STACK CFI INIT 4f714 1c .cfa: sp 0 +
STACK CFI INIT 4f730 c .cfa: sp 0 +
STACK CFI INIT 4f73c 4 .cfa: sp 0 +
STACK CFI INIT 4f740 38 .cfa: sp 0 +
STACK CFI 4f744 .cfa: sp 32 +
STACK CFI 4f74c .cfa: x29 32 + x19: .cfa -16 + ^ .ra: .cfa -24 + ^ x29: .cfa -32 + ^
STACK CFI 4f76c .cfa: sp 32 +
STACK CFI 4f774 .cfa: sp 0 +
STACK CFI INIT 4f778 18 .cfa: sp 0 +
STACK CFI INIT 4f790 4 .cfa: sp 0 +
STACK CFI INIT 4f794 4 .cfa: sp 0 +
STACK CFI INIT 4f950 1c .cfa: sp 0 +
STACK CFI INIT 4f96c c .cfa: sp 0 +
STACK CFI INIT 4f978 4 .cfa: sp 0 +
STACK CFI INIT 4f97c 38 .cfa: sp 0 +
STACK CFI 4f980 .cfa: sp 32 +
STACK CFI 4f988 .cfa: x29 32 + x19: .cfa -16 + ^ .ra: .cfa -24 + ^ x29: .cfa -32 + ^
STACK CFI 4f9a8 .cfa: sp 32 +
STACK CFI 4f9b0 .cfa: sp 0 +
STACK CFI INIT 4f9b4 18 .cfa: sp 0 +
STACK CFI INIT 4f9cc 4 .cfa: sp 0 +
STACK CFI INIT 4f9d0 4 .cfa: sp 0 +
STACK CFI INIT 4fbf8 1c .cfa: sp 0 +
STACK CFI INIT 4fc14 c .cfa: sp 0 +
STACK CFI INIT 4fc20 4 .cfa: sp 0 +
STACK CFI INIT 4fc24 38 .cfa: sp 0 +
STACK CFI 4fc28 .cfa: sp 32 +
STACK CFI 4fc30 .cfa: x29 32 + x19: .cfa -16 + ^ .ra: .cfa -24 + ^ x29: .cfa -32 + ^
STACK CFI 4fc50 .cfa: sp 32 +
STACK CFI 4fc58 .cfa: sp 0 +
STACK CFI INIT 4fc5c 18 .cfa: sp 0 +
STACK CFI INIT 4fc74 4 .cfa: sp 0 +
STACK CFI INIT 4fc78 4 .cfa: sp 0 +
STACK CFI INIT 4fe70 1c .cfa: sp 0 +
STACK CFI INIT 4fe8c c .cfa: sp 0 +
STACK CFI INIT 4fe98 4 .cfa: sp 0 +
STACK CFI INIT 4fe9c 38 .cfa: sp 0 +
STACK CFI 4fea0 .cfa: sp 32 +
STACK CFI 4fea8 .cfa: x29 32 + x19: .cfa -16 + ^ .ra: .cfa -24 + ^ x29: .cfa -32 + ^
STACK CFI 4fec8 .cfa: sp 32 +
STACK CFI 4fed0 .cfa: sp 0 +
STACK CFI INIT 4fed4 18 .cfa: sp 0 +
STACK CFI INIT 4feec 4 .cfa: sp 0 +
STACK CFI INIT 4fef0 4 .cfa: sp 0 +
STACK CFI INIT 50098 1c .cfa: sp 0 +
STACK CFI INIT 500b4 c .cfa: sp 0 +
STACK CFI INIT 500c0 50 .cfa: sp 0 +
STACK CFI 500c4 .cfa: sp 32 +
STACK CFI 500cc .cfa: x29 32 + x19: .cfa -16 + ^ .ra: .cfa -24 + ^ x29: .cfa -32 + ^
STACK CFI 500e4 .cfa: sp 32 +
STACK CFI 500ec .cfa: sp 0 +
STACK CFI 500f0 .cfa: x29 32 +
STACK CFI 50104 .cfa: sp 32 +
STACK CFI 5010c .cfa: sp 0 +
STACK CFI INIT 50110 4 .cfa: sp 0 +
STACK CFI INIT 50114 38 .cfa: sp 0 +
STACK CFI 50118 .cfa: sp 32 +
STACK CFI 50120 .cfa: x29 32 + x19: .cfa -16 + ^ .ra: .cfa -24 + ^ x29: .cfa -32 + ^
STACK CFI 50140 .cfa: sp 32 +
STACK CFI 50148 .cfa: sp 0 +
STACK CFI INIT 5014c 18 .cfa: sp 0 +
STACK CFI INIT 50164 4 .cfa: sp 0 +
STACK CFI INIT 50168 4 .cfa: sp 0 +
STACK CFI INIT 50310 1c .cfa: sp 0 +
STACK CFI INIT 5032c c .cfa: sp 0 +
STACK CFI INIT 50338 50 .cfa: sp 0 +
STACK CFI 5033c .cfa: sp 32 +
STACK CFI 50344 .cfa: x29 32 + x19: .cfa -16 + ^ .ra: .cfa -24 + ^ x29: .cfa -32 + ^
STACK CFI 5035c .cfa: sp 32 +
STACK CFI 50364 .cfa: sp 0 +
STACK CFI 50368 .cfa: x29 32 +
STACK CFI 5037c .cfa: sp 32 +
STACK CFI 50384 .cfa: sp 0 +
STACK CFI INIT 50388 4 .cfa: sp 0 +
STACK CFI INIT 5038c 38 .cfa: sp 0 +
STACK CFI 50390 .cfa: sp 32 +
STACK CFI 50398 .cfa: x29 32 + x19: .cfa -16 + ^ .ra: .cfa -24 + ^ x29: .cfa -32 + ^
STACK CFI 503b8 .cfa: sp 32 +
STACK CFI 503c0 .cfa: sp 0 +
STACK CFI INIT 503c4 18 .cfa: sp 0 +
STACK CFI INIT 503dc 4 .cfa: sp 0 +
STACK CFI INIT 503e0 4 .cfa: sp 0 +
STACK CFI INIT 50590 1c .cfa: sp 0 +
STACK CFI INIT 505ac c .cfa: sp 0 +
STACK CFI INIT 505b8 4 .cfa: sp 0 +
STACK CFI INIT 505bc 38 .cfa: sp 0 +
STACK CFI 505c0 .cfa: sp 32 +
STACK CFI 505c8 .cfa: x29 32 + x19: .cfa -16 + ^ .ra: .cfa -24 + ^ x29: .cfa -32 + ^
STACK CFI 505e8 .cfa: sp 32 +
STACK CFI 505f0 .cfa: sp 0 +
STACK CFI INIT 505f4 18 .cfa: sp 0 +
STACK CFI INIT 5060c 4 .cfa: sp 0 +
STACK CFI INIT 50610 4 .cfa: sp 0 +
STACK CFI INIT 507c0 1c .cfa: sp 0 +
STACK CFI INIT 507dc c .cfa: sp 0 +
STACK CFI INIT 507e8 4 .cfa: sp 0 +
STACK CFI INIT 507ec 38 .cfa: sp 0 +
STACK CFI 507f0 .cfa: sp 32 +
STACK CFI 507f8 .cfa: x29 32 + x19: .cfa -16 + ^ .ra: .cfa -24 + ^ x29: .cfa -32 + ^
STACK CFI 50818 .cfa: sp 32 +
STACK CFI 50820 .cfa: sp 0 +
STACK CFI INIT 50824 18 .cfa: sp 0 +
STACK CFI INIT 5083c 4 .cfa: sp 0 +
STACK CFI INIT 50840 4 .cfa: sp 0 +
STACK CFI INIT 509f0 1c .cfa: sp 0 +
STACK CFI INIT 50a0c c .cfa: sp 0 +
STACK CFI INIT 50a18 4 .cfa: sp 0 +
STACK CFI INIT 50a1c 38 .cfa: sp 0 +
STACK CFI 50a20 .cfa: sp 32 +
STACK CFI 50a28 .cfa: x29 32 + x19: .cfa -16 + ^ .ra: .cfa -24 + ^ x29: .cfa -32 + ^
STACK CFI 50a48 .cfa: sp 32 +
STACK CFI 50a50 .cfa: sp 0 +
STACK CFI INIT 50a54 18 .cfa: sp 0 +
STACK CFI INIT 50a6c 4 .cfa: sp 0 +
STACK CFI INIT 50a70 4 .cfa: sp 0 +
STACK CFI INIT 50c20 1c .cfa: sp 0 +
STACK CFI INIT 50c3c c .cfa: sp 0 +
STACK CFI INIT 50c48 4 .cfa: sp 0 +
STACK CFI INIT 50c4c 38 .cfa: sp 0 +
STACK CFI 50c50 .cfa: sp 32 +
STACK CFI 50c58 .cfa: x29 32 + x19: .cfa -16 + ^ .ra: .cfa -24 + ^ x29: .cfa -32 + ^
STACK CFI 50c78 .cfa: sp 32 +
STACK CFI 50c80 .cfa: sp 0 +
STACK CFI INIT 50c84 18 .cfa: sp 0 +
STACK CFI INIT 50c9c 4 .cfa: sp 0 +
STACK CFI INIT 50ca0 4 .cfa: sp 0 +
STACK CFI INIT 50e50 1c .cfa: sp 0 +
STACK CFI INIT 50e6c c .cfa: sp 0 +
STACK CFI INIT 50e78 4 .cfa: sp 0 +
STACK CFI INIT 50e7c 38 .cfa: sp 0 +
STACK CFI 50e80 .cfa: sp 32 +
STACK CFI 50e88 .cfa: x29 32 + x19: .cfa -16 + ^ .ra: .cfa -24 + ^ x29: .cfa -32 + ^
STACK CFI 50ea8 .cfa: sp 32 +
STACK CFI 50eb0 .cfa: sp 0 +
STACK CFI INIT 50eb4 18 .cfa: sp 0 +
STACK CFI INIT 50ecc 4 .cfa: sp 0 +
STACK CFI INIT 50ed0 4 .cfa: sp 0 +
STACK CFI INIT 51080 1c .cfa: sp 0 +
STACK CFI INIT 5109c c .cfa: sp 0 +
STACK CFI INIT 510a8 4 .cfa: sp 0 +
STACK CFI INIT 510ac 38 .cfa: sp 0 +
STACK CFI 510b0 .cfa: sp 32 +
STACK CFI 510b8 .cfa: x29 32 + x19: .cfa -16 + ^ .ra: .cfa -24 + ^ x29: .cfa -32 + ^
STACK CFI 510d8 .cfa: sp 32 +
STACK CFI 510e0 .cfa: sp 0 +
STACK CFI INIT 510e4 18 .cfa: sp 0 +
STACK CFI INIT 510fc 4 .cfa: sp 0 +
STACK CFI INIT 51100 4 .cfa: sp 0 +
STACK CFI INIT 512b0 1c .cfa: sp 0 +
STACK CFI INIT 512cc c .cfa: sp 0 +
STACK CFI INIT 512d8 4 .cfa: sp 0 +
STACK CFI INIT 512dc 38 .cfa: sp 0 +
STACK CFI 512e0 .cfa: sp 32 +
STACK CFI 512e8 .cfa: x29 32 + x19: .cfa -16 + ^ .ra: .cfa -24 + ^ x29: .cfa -32 + ^
STACK CFI 51308 .cfa: sp 32 +
STACK CFI 51310 .cfa: sp 0 +
STACK CFI INIT 51314 18 .cfa: sp 0 +
STACK CFI INIT 5132c 4 .cfa: sp 0 +
STACK CFI INIT 51330 4 .cfa: sp 0 +
STACK CFI INIT 514e0 1c .cfa: sp 0 +
STACK CFI INIT 514fc c .cfa: sp 0 +
STACK CFI INIT 51508 4 .cfa: sp 0 +
STACK CFI INIT 5150c 38 .cfa: sp 0 +
STACK CFI 51510 .cfa: sp 32 +
STACK CFI 51518 .cfa: x29 32 + x19: .cfa -16 + ^ .ra: .cfa -24 + ^ x29: .cfa -32 + ^
STACK CFI 51538 .cfa: sp 32 +
STACK CFI 51540 .cfa: sp 0 +
STACK CFI INIT 51544 18 .cfa: sp 0 +
STACK CFI INIT 5155c 4 .cfa: sp 0 +
STACK CFI INIT 51560 4 .cfa: sp 0 +
STACK CFI INIT 51710 1c .cfa: sp 0 +
STACK CFI INIT 5172c c .cfa: sp 0 +
STACK CFI INIT 51738 4 .cfa: sp 0 +
STACK CFI INIT 5173c 38 .cfa: sp 0 +
STACK CFI 51740 .cfa: sp 32 +
STACK CFI 51748 .cfa: x29 32 + x19: .cfa -16 + ^ .ra: .cfa -24 + ^ x29: .cfa -32 + ^
STACK CFI 51768 .cfa: sp 32 +
STACK CFI 51770 .cfa: sp 0 +
STACK CFI INIT 51774 18 .cfa: sp 0 +
STACK CFI INIT 5178c 4 .cfa: sp 0 +
STACK CFI INIT 51790 4 .cfa: sp 0 +
STACK CFI INIT 51940 1c .cfa: sp 0 +
STACK CFI INIT 5195c c .cfa: sp 0 +
STACK CFI INIT 51968 4 .cfa: sp 0 +
STACK CFI INIT 5196c 38 .cfa: sp 0 +
STACK CFI 51970 .cfa: sp 32 +
STACK CFI 51978 .cfa: x29 32 + x19: .cfa -16 + ^ .ra: .cfa -24 + ^ x29: .cfa -32 + ^
STACK CFI 51998 .cfa: sp 32 +
STACK CFI 519a0 .cfa: sp 0 +
STACK CFI INIT 519a4 18 .cfa: sp 0 +
STACK CFI INIT 519bc 4 .cfa: sp 0 +
STACK CFI INIT 519c0 4 .cfa: sp 0 +
STACK CFI INIT 51b70 1c .cfa: sp 0 +
STACK CFI INIT 51b8c c .cfa: sp 0 +
STACK CFI INIT 51b98 4 .cfa: sp 0 +
STACK CFI INIT 51b9c 38 .cfa: sp 0 +
STACK CFI 51ba0 .cfa: sp 32 +
STACK CFI 51ba8 .cfa: x29 32 + x19: .cfa -16 + ^ .ra: .cfa -24 + ^ x29: .cfa -32 + ^
STACK CFI 51bc8 .cfa: sp 32 +
STACK CFI 51bd0 .cfa: sp 0 +
STACK CFI INIT 51bd4 18 .cfa: sp 0 +
STACK CFI INIT 51bec 4 .cfa: sp 0 +
STACK CFI INIT 51bf0 4 .cfa: sp 0 +
STACK CFI INIT 51da0 1c .cfa: sp 0 +
STACK CFI INIT 51dbc c .cfa: sp 0 +
STACK CFI INIT 51dc8 4 .cfa: sp 0 +
STACK CFI INIT 51dcc 38 .cfa: sp 0 +
STACK CFI 51dd0 .cfa: sp 32 +
STACK CFI 51dd8 .cfa: x29 32 + x19: .cfa -16 + ^ .ra: .cfa -24 + ^ x29: .cfa -32 + ^
STACK CFI 51df8 .cfa: sp 32 +
STACK CFI 51e00 .cfa: sp 0 +
STACK CFI INIT 51e04 18 .cfa: sp 0 +
STACK CFI INIT 51e1c 4 .cfa: sp 0 +
STACK CFI INIT 51e20 4 .cfa: sp 0 +
STACK CFI INIT 51fd0 1c .cfa: sp 0 +
STACK CFI INIT 51fec c .cfa: sp 0 +
STACK CFI INIT 51ff8 4 .cfa: sp 0 +
STACK CFI INIT 51ffc 38 .cfa: sp 0 +
STACK CFI 52000 .cfa: sp 32 +
STACK CFI 52008 .cfa: x29 32 + x19: .cfa -16 + ^ .ra: .cfa -24 + ^ x29: .cfa -32 + ^
STACK CFI 52028 .cfa: sp 32 +
STACK CFI 52030 .cfa: sp 0 +
STACK CFI INIT 52034 18 .cfa: sp 0 +
STACK CFI INIT 5204c 4 .cfa: sp 0 +
STACK CFI INIT 52050 4 .cfa: sp 0 +
STACK CFI INIT 5223c 1c .cfa: sp 0 +
STACK CFI INIT 52258 c .cfa: sp 0 +
STACK CFI INIT 52340 4 .cfa: sp 0 +
STACK CFI INIT 52344 4 .cfa: sp 0 +
STACK CFI INIT 52348 24 .cfa: sp 0 +
STACK CFI 5234c .cfa: sp 16 +
STACK CFI 52350 .cfa: x29 16 + .ra: .cfa -8 + ^ x29: .cfa -16 + ^
STACK CFI 52364 .cfa: sp 16 +
STACK CFI 52368 .cfa: sp 0 +
STACK CFI INIT 5236c 10 .cfa: sp 0 +
STACK CFI INIT 5237c 4 .cfa: sp 0 +
STACK CFI INIT 52380 4 .cfa: sp 0 +
STACK CFI INIT 52794 1c .cfa: sp 0 +
STACK CFI INIT 527b0 c .cfa: sp 0 +
STACK CFI INIT 527d8 4 .cfa: sp 0 +
STACK CFI INIT 52950 6c .cfa: sp 0 +
STACK CFI 52954 .cfa: sp 32 +
STACK CFI 5295c .cfa: x29 32 + x19: .cfa -16 + ^ .ra: .cfa -24 + ^ x29: .cfa -32 + ^
STACK CFI 529b0 .cfa: sp 32 +
STACK CFI 529b8 .cfa: sp 0 +
STACK CFI INIT 529bc 74 .cfa: sp 0 +
STACK CFI 529c0 .cfa: sp 32 +
STACK CFI 529c8 .cfa: x29 32 + x19: .cfa -16 + ^ .ra: .cfa -24 + ^ x29: .cfa -32 + ^
STACK CFI 52a24 .cfa: sp 32 +
STACK CFI 52a2c .cfa: sp 0 +
STACK CFI INIT 52d38 4 .cfa: sp 0 +
STACK CFI INIT 52f98 4 .cfa: sp 0 +
STACK CFI INIT 52f9c 38 .cfa: sp 0 +
STACK CFI 52fa0 .cfa: sp 32 +
STACK CFI 52fa8 .cfa: x29 32 + x19: .cfa -16 + ^ .ra: .cfa -24 + ^ x29: .cfa -32 + ^
STACK CFI 52fc8 .cfa: sp 32 +
STACK CFI 52fd0 .cfa: sp 0 +
STACK CFI INIT 52fd4 18 .cfa: sp 0 +
STACK CFI INIT 52fec 4 .cfa: sp 0 +
STACK CFI INIT 52ff0 4 .cfa: sp 0 +
STACK CFI INIT 52ff4 8 .cfa: sp 0 +
STACK CFI INIT 52ffc 1c .cfa: sp 0 +
STACK CFI INIT 53018 c .cfa: sp 0 +
STACK CFI INIT 535a4 9c .cfa: sp 0 +
STACK CFI INIT 53640 3c .cfa: sp 0 +
STACK CFI 53644 .cfa: sp 32 +
STACK CFI 5364c .cfa: x29 32 + x19: .cfa -16 + ^ .ra: .cfa -24 + ^ x29: .cfa -32 + ^
STACK CFI 53658 .cfa: sp 32 +
STACK CFI 53660 .cfa: sp 0 +
STACK CFI 53664 .cfa: x29 32 +
STACK CFI 53670 .cfa: sp 32 +
STACK CFI 53678 .cfa: sp 0 +
STACK CFI INIT 53768 24 .cfa: sp 0 +
STACK CFI 5376c .cfa: sp 32 +
STACK CFI 53774 .cfa: x29 32 + x19: .cfa -16 + ^ .ra: .cfa -24 + ^ x29: .cfa -32 + ^
STACK CFI 53780 .cfa: sp 32 +
STACK CFI 53788 .cfa: sp 0 +
STACK CFI INIT 5378c 290 .cfa: sp 0 +
STACK CFI 53790 .cfa: sp 48 +
STACK CFI 537a0 .cfa: x29 40 + x19: .cfa -8 + ^ x20: .cfa -16 + ^ x21: .cfa -24 + ^ .ra: .cfa -32 + ^ x29: .cfa -40 + ^ v8: .cfa -48 + ^
STACK CFI 537e0 .cfa: sp 48 +
STACK CFI 537f0 .cfa: sp 0 +
STACK CFI 537f4 .cfa: x29 40 +
STACK CFI 539a4 .cfa: sp 48 +
STACK CFI 539b4 .cfa: sp 0 +
STACK CFI 539b8 .cfa: x29 40 +
STACK CFI 539cc .cfa: sp 48 +
STACK CFI 539dc .cfa: sp 0 +
STACK CFI 539e0 .cfa: x29 40 +
STACK CFI INIT 53d88 4 .cfa: sp 0 +
STACK CFI INIT 53d8c 58 .cfa: sp 0 +
STACK CFI 53d90 .cfa: sp 32 +
STACK CFI 53d98 .cfa: x29 32 + x19: .cfa -8 + ^ x20: .cfa -16 + ^ .ra: .cfa -24 + ^ x29: .cfa -32 + ^
STACK CFI 53dd8 .cfa: sp 32 +
STACK CFI 53de0 .cfa: sp 0 +
STACK CFI INIT 53de4 3c .cfa: sp 0 +
STACK CFI 53de8 .cfa: sp 32 +
STACK CFI 53df0 .cfa: x29 32 + x19: .cfa -16 + ^ .ra: .cfa -24 + ^ x29: .cfa -32 + ^
STACK CFI 53dfc .cfa: sp 32 +
STACK CFI 53e04 .cfa: sp 0 +
STACK CFI 53e08 .cfa: x29 32 +
STACK CFI 53e14 .cfa: sp 32 +
STACK CFI 53e1c .cfa: sp 0 +
STACK CFI INIT 54134 4 .cfa: sp 0 +
STACK CFI INIT 54138 58 .cfa: sp 0 +
STACK CFI 5413c .cfa: sp 32 +
STACK CFI 54144 .cfa: x29 32 + x19: .cfa -8 + ^ x20: .cfa -16 + ^ .ra: .cfa -24 + ^ x29: .cfa -32 + ^
STACK CFI 54184 .cfa: sp 32 +
STACK CFI 5418c .cfa: sp 0 +
STACK CFI INIT 54238 98 .cfa: sp 0 +
STACK CFI INIT 542d0 3c .cfa: sp 0 +
STACK CFI 542d4 .cfa: sp 32 +
STACK CFI 542dc .cfa: x29 32 + x19: .cfa -16 + ^ .ra: .cfa -24 + ^ x29: .cfa -32 + ^
STACK CFI 542e8 .cfa: sp 32 +
STACK CFI 542f0 .cfa: sp 0 +
STACK CFI 542f4 .cfa: x29 32 +
STACK CFI 54300 .cfa: sp 32 +
STACK CFI 54308 .cfa: sp 0 +
STACK CFI INIT 5466c 4 .cfa: sp 0 +
STACK CFI INIT 54670 58 .cfa: sp 0 +
STACK CFI 54674 .cfa: sp 32 +
STACK CFI 5467c .cfa: x29 32 + x19: .cfa -8 + ^ x20: .cfa -16 + ^ .ra: .cfa -24 + ^ x29: .cfa -32 + ^
STACK CFI 546bc .cfa: sp 32 +
STACK CFI 546c4 .cfa: sp 0 +
STACK CFI INIT 546c8 3c .cfa: sp 0 +
STACK CFI 546cc .cfa: sp 32 +
STACK CFI 546d4 .cfa: x29 32 + x19: .cfa -16 + ^ .ra: .cfa -24 + ^ x29: .cfa -32 + ^
STACK CFI 546e0 .cfa: sp 32 +
STACK CFI 546e8 .cfa: sp 0 +
STACK CFI 546ec .cfa: x29 32 +
STACK CFI 546f8 .cfa: sp 32 +
STACK CFI 54700 .cfa: sp 0 +
STACK CFI INIT 54ab4 4 .cfa: sp 0 +
STACK CFI INIT 54ab8 58 .cfa: sp 0 +
STACK CFI 54abc .cfa: sp 32 +
STACK CFI 54ac4 .cfa: x29 32 + x19: .cfa -8 + ^ x20: .cfa -16 + ^ .ra: .cfa -24 + ^ x29: .cfa -32 + ^
STACK CFI 54b04 .cfa: sp 32 +
STACK CFI 54b0c .cfa: sp 0 +
STACK CFI INIT 54b10 3c .cfa: sp 0 +
STACK CFI 54b14 .cfa: sp 32 +
STACK CFI 54b1c .cfa: x29 32 + x19: .cfa -16 + ^ .ra: .cfa -24 + ^ x29: .cfa -32 + ^
STACK CFI 54b28 .cfa: sp 32 +
STACK CFI 54b30 .cfa: sp 0 +
STACK CFI 54b34 .cfa: x29 32 +
STACK CFI 54b40 .cfa: sp 32 +
STACK CFI 54b48 .cfa: sp 0 +
STACK CFI INIT 54c78 3c .cfa: sp 0 +
STACK CFI 54c7c .cfa: sp 32 +
STACK CFI 54c84 .cfa: x29 32 + x19: .cfa -16 + ^ .ra: .cfa -24 + ^ x29: .cfa -32 + ^
STACK CFI 54c90 .cfa: sp 32 +
STACK CFI 54c98 .cfa: sp 0 +
STACK CFI 54c9c .cfa: x29 32 +
STACK CFI 54ca8 .cfa: sp 32 +
STACK CFI 54cb0 .cfa: sp 0 +
STACK CFI INIT 54cb4 4c .cfa: sp 0 +
STACK CFI 54cb8 .cfa: sp 32 +
STACK CFI 54cc0 .cfa: x29 32 + x19: .cfa -8 + ^ x20: .cfa -16 + ^ .ra: .cfa -24 + ^ x29: .cfa -32 + ^
STACK CFI 54ce8 .cfa: sp 32 +
STACK CFI 54cf0 .cfa: sp 0 +
STACK CFI 54cf4 .cfa: sp 32 +
STACK CFI 54cfc .cfa: sp 0 +
STACK CFI INIT 54f20 64 .cfa: sp 0 +
STACK CFI 54f24 .cfa: sp 32 +
STACK CFI 54f2c .cfa: x29 32 + x19: .cfa -16 + ^ .ra: .cfa -24 + ^ x29: .cfa -32 + ^
STACK CFI 54f58 .cfa: sp 32 +
STACK CFI 54f60 .cfa: sp 0 +
STACK CFI 54f64 .cfa: x29 32 +
STACK CFI 54f78 .cfa: sp 32 +
STACK CFI 54f80 .cfa: sp 0 +
STACK CFI INIT 551a8 24 .cfa: sp 0 +
STACK CFI 551ac .cfa: sp 32 +
STACK CFI 551b4 .cfa: x29 32 + x19: .cfa -16 + ^ .ra: .cfa -24 + ^ x29: .cfa -32 + ^
STACK CFI 551c0 .cfa: sp 32 +
STACK CFI 551c8 .cfa: sp 0 +
STACK CFI INIT 55428 24 .cfa: sp 0 +
STACK CFI 5542c .cfa: sp 32 +
STACK CFI 55434 .cfa: x29 32 + x19: .cfa -16 + ^ .ra: .cfa -24 + ^ x29: .cfa -32 + ^
STACK CFI 55440 .cfa: sp 32 +
STACK CFI 55448 .cfa: sp 0 +
STACK CFI INIT 5544c 24 .cfa: sp 0 +
STACK CFI 55450 .cfa: sp 32 +
STACK CFI 55458 .cfa: x29 32 + x19: .cfa -16 + ^ .ra: .cfa -24 + ^ x29: .cfa -32 + ^
STACK CFI 55464 .cfa: sp 32 +
STACK CFI 5546c .cfa: sp 0 +
STACK CFI INIT 55750 24 .cfa: sp 0 +
STACK CFI 55754 .cfa: sp 32 +
STACK CFI 5575c .cfa: x29 32 + x19: .cfa -16 + ^ .ra: .cfa -24 + ^ x29: .cfa -32 + ^
STACK CFI 55768 .cfa: sp 32 +
STACK CFI 55770 .cfa: sp 0 +
STACK CFI INIT 55774 8 .cfa: sp 0 +
STACK CFI INIT 5577c 24 .cfa: sp 0 +
STACK CFI 55780 .cfa: sp 32 +
STACK CFI 55788 .cfa: x29 32 + x19: .cfa -16 + ^ .ra: .cfa -24 + ^ x29: .cfa -32 + ^
STACK CFI 55794 .cfa: sp 32 +
STACK CFI 5579c .cfa: sp 0 +
STACK CFI INIT 557a0 28 .cfa: sp 0 +
STACK CFI 557a4 .cfa: sp 32 +
STACK CFI 557ac .cfa: x29 32 + x19: .cfa -16 + ^ .ra: .cfa -24 + ^ x29: .cfa -32 + ^
STACK CFI 557bc .cfa: sp 32 +
STACK CFI 557c4 .cfa: sp 0 +
STACK CFI INIT 57660 8 .cfa: sp 0 +
STACK CFI INIT 57668 24 .cfa: sp 0 +
STACK CFI 5766c .cfa: sp 32 +
STACK CFI 57674 .cfa: x29 32 + x19: .cfa -16 + ^ .ra: .cfa -24 + ^ x29: .cfa -32 + ^
STACK CFI 57680 .cfa: sp 32 +
STACK CFI 57688 .cfa: sp 0 +
STACK CFI INIT 5768c 28 .cfa: sp 0 +
STACK CFI 57690 .cfa: sp 32 +
STACK CFI 57698 .cfa: x29 32 + x19: .cfa -16 + ^ .ra: .cfa -24 + ^ x29: .cfa -32 + ^
STACK CFI 576a8 .cfa: sp 32 +
STACK CFI 576b0 .cfa: sp 0 +
STACK CFI INIT 57ccc 8 .cfa: sp 0 +
STACK CFI INIT 583fc 8 .cfa: sp 0 +
STACK CFI INIT 58834 8 .cfa: sp 0 +
STACK CFI INIT 58a90 4 .cfa: sp 0 +
STACK CFI INIT 58a94 8 .cfa: sp 0 +
STACK CFI INIT 58a9c 8 .cfa: sp 0 +
STACK CFI INIT 58aa4 4 .cfa: sp 0 +
STACK CFI INIT 59d00 8 .cfa: sp 0 +
STACK CFI INIT 59d08 24 .cfa: sp 0 +
STACK CFI 59d0c .cfa: sp 32 +
STACK CFI 59d14 .cfa: x29 32 + x19: .cfa -16 + ^ .ra: .cfa -24 + ^ x29: .cfa -32 + ^
STACK CFI 59d20 .cfa: sp 32 +
STACK CFI 59d28 .cfa: sp 0 +
STACK CFI INIT 59d2c 28 .cfa: sp 0 +
STACK CFI 59d30 .cfa: sp 32 +
STACK CFI 59d38 .cfa: x29 32 + x19: .cfa -16 + ^ .ra: .cfa -24 + ^ x29: .cfa -32 + ^
STACK CFI 59d48 .cfa: sp 32 +
STACK CFI 59d50 .cfa: sp 0 +
STACK CFI INIT 59fa8 4 .cfa: sp 0 +
STACK CFI INIT 59fac 8 .cfa: sp 0 +
STACK CFI INIT 59fb4 4 .cfa: sp 0 +
STACK CFI INIT 59fb8 8 .cfa: sp 0 +
STACK CFI INIT 59fc0 4 .cfa: sp 0 +
STACK CFI INIT 59fc4 4 .cfa: sp 0 +
STACK CFI INIT 59fc8 4 .cfa: sp 0 +
STACK CFI INIT 59fcc 4 .cfa: sp 0 +
STACK CFI INIT 5aba8 4 .cfa: sp 0 +
STACK CFI INIT 5abac 14 .cfa: sp 0 +
STACK CFI INIT 5b0cc c .cfa: sp 0 +
STACK CFI INIT 5b0d8 24c .cfa: sp 0 +
STACK CFI INIT 5b324 a0 .cfa: sp 0 +
STACK CFI 5b330 .cfa: sp 32 +
STACK CFI 5b388 .cfa: sp 0 +
STACK CFI 5b38c .cfa: sp 32 +
STACK CFI 5b394 .cfa: sp 0 +
STACK CFI 5b398 .cfa: sp 32 +
STACK CFI 5b3ac .cfa: sp 0 +
STACK CFI 5b3b0 .cfa: sp 32 +
STACK CFI 5b3c0 .cfa: sp 0 +
STACK CFI INIT 5b3c4 38 .cfa: sp 0 +
STACK CFI 5b3d0 .cfa: sp 32 +
STACK CFI 5b3f8 .cfa: sp 0 +
STACK CFI INIT 5b690 7c .cfa: sp 0 +
STACK CFI 5b694 .cfa: sp 32 +
STACK CFI 5b69c .cfa: x29 32 + x19: .cfa -16 + ^ .ra: .cfa -24 + ^ x29: .cfa -32 + ^
STACK CFI 5b6c8 .cfa: sp 32 +
STACK CFI 5b6d0 .cfa: sp 0 +
STACK CFI 5b6d4 .cfa: x29 32 +
STACK CFI 5b700 .cfa: sp 32 +
STACK CFI 5b708 .cfa: sp 0 +
STACK CFI INIT 5b75c 2c .cfa: sp 0 +
STACK CFI 5b760 .cfa: sp 32 +
STACK CFI 5b768 .cfa: x29 32 + x19: .cfa -16 + ^ .ra: .cfa -24 + ^ x29: .cfa -32 + ^
STACK CFI 5b77c .cfa: sp 32 +
STACK CFI 5b784 .cfa: sp 0 +
STACK CFI INIT 5bf48 64 .cfa: sp 0 +
STACK CFI 5bf4c .cfa: sp 32 +
STACK CFI 5bf54 .cfa: x29 32 + x19: .cfa -16 + ^ .ra: .cfa -24 + ^ x29: .cfa -32 + ^
STACK CFI 5bf70 .cfa: sp 32 +
STACK CFI 5bf78 .cfa: sp 0 +
STACK CFI 5bf7c .cfa: x29 32 +
STACK CFI 5bfa0 .cfa: sp 32 +
STACK CFI 5bfa8 .cfa: sp 0 +
STACK CFI INIT 5bfac 570 .cfa: sp 0 +
STACK CFI 5bfb0 .cfa: sp 176 +
STACK CFI 5bfc4 .cfa: x29 64 + x19: .cfa -8 + ^ x20: .cfa -16 + ^ x21: .cfa -24 + ^ x22: .cfa -32 + ^ x23: .cfa -40 + ^ x24: .cfa -48 + ^ .ra: .cfa -56 + ^ x29: .cfa -64 + ^
STACK CFI 5c1f4 .cfa: sp 176 +
STACK CFI 5c208 .cfa: sp 0 +
STACK CFI 5c20c .cfa: x29 64 +
STACK CFI 5c258 .cfa: sp 176 +
STACK CFI 5c26c .cfa: sp 0 +
STACK CFI 5c270 .cfa: x29 64 +
STACK CFI 5c2a8 .cfa: sp 176 +
STACK CFI 5c2bc .cfa: sp 0 +
STACK CFI 5c2c0 .cfa: x29 64 +
STACK CFI 5c2d8 .cfa: sp 176 +
STACK CFI 5c2ec .cfa: sp 0 +
STACK CFI 5c2f0 .cfa: x29 64 +
STACK CFI 5c310 .cfa: sp 176 +
STACK CFI 5c324 .cfa: sp 0 +
STACK CFI 5c328 .cfa: x29 64 +
STACK CFI 5c340 .cfa: sp 176 +
STACK CFI 5c354 .cfa: sp 0 +
STACK CFI 5c358 .cfa: x29 64 +
STACK CFI 5c36c .cfa: sp 176 +
STACK CFI 5c380 .cfa: sp 0 +
STACK CFI 5c384 .cfa: x29 64 +
STACK CFI 5c398 .cfa: sp 176 +
STACK CFI 5c3ac .cfa: sp 0 +
STACK CFI 5c3b0 .cfa: x29 64 +
STACK CFI 5c3c0 .cfa: sp 176 +
STACK CFI 5c3d4 .cfa: sp 0 +
STACK CFI 5c3d8 .cfa: x29 64 +
STACK CFI 5c3e8 .cfa: sp 176 +
STACK CFI 5c3fc .cfa: sp 0 +
STACK CFI 5c400 .cfa: x29 64 +
STACK CFI 5c418 .cfa: sp 176 +
STACK CFI 5c42c .cfa: sp 0 +
STACK CFI 5c430 .cfa: x29 64 +
STACK CFI 5c444 .cfa: sp 176 +
STACK CFI 5c458 .cfa: sp 0 +
STACK CFI 5c45c .cfa: x29 64 +
STACK CFI 5c474 .cfa: sp 176 +
STACK CFI 5c488 .cfa: sp 0 +
STACK CFI 5c48c .cfa: x29 64 +
STACK CFI 5c4b8 .cfa: sp 176 +
STACK CFI 5c4cc .cfa: sp 0 +
STACK CFI 5c4d0 .cfa: x29 64 +
STACK CFI 5c4e4 .cfa: sp 176 +
STACK CFI 5c4f8 .cfa: sp 0 +
STACK CFI 5c4fc .cfa: x29 64 +
STACK CFI INIT 5c51c 228 .cfa: sp 0 +
STACK CFI INIT 5c744 2dc .cfa: sp 0 +
STACK CFI INIT 5ca20 53c .cfa: sp 0 +
STACK CFI INIT 5cf5c 78 .cfa: sp 0 +
STACK CFI 5cf60 .cfa: sp 48 +
STACK CFI 5cf6c .cfa: x29 48 + x19: .cfa -8 + ^ x20: .cfa -16 + ^ x21: .cfa -24 + ^ x22: .cfa -32 + ^ .ra: .cfa -40 + ^ x29: .cfa -48 + ^
STACK CFI 5cfb4 .cfa: sp 48 +
STACK CFI 5cfc0 .cfa: sp 0 +
STACK CFI 5cfc4 .cfa: sp 48 +
STACK CFI 5cfd0 .cfa: sp 0 +
STACK CFI INIT 5cfd4 8c .cfa: sp 0 +
STACK CFI 5cfd8 .cfa: sp 32 +
STACK CFI 5cfe0 .cfa: x29 32 + x19: .cfa -16 + ^ .ra: .cfa -24 + ^ x29: .cfa -32 + ^
STACK CFI 5d014 .cfa: sp 32 +
STACK CFI 5d01c .cfa: sp 0 +
STACK CFI 5d020 .cfa: x29 32 +
STACK CFI 5d054 .cfa: sp 32 +
STACK CFI 5d05c .cfa: sp 0 +
STACK CFI INIT 5d060 24 .cfa: sp 0 +
STACK CFI 5d064 .cfa: sp 32 +
STACK CFI 5d06c .cfa: x29 32 + x19: .cfa -16 + ^ .ra: .cfa -24 + ^ x29: .cfa -32 + ^
STACK CFI 5d078 .cfa: sp 32 +
STACK CFI 5d080 .cfa: sp 0 +
STACK CFI INIT 5d084 150 .cfa: sp 0 +
STACK CFI 5d088 .cfa: sp 48 +
STACK CFI 5d094 .cfa: x29 48 + x19: .cfa -8 + ^ x20: .cfa -16 + ^ x21: .cfa -24 + ^ x22: .cfa -32 + ^ .ra: .cfa -40 + ^ x29: .cfa -48 + ^
STACK CFI 5d1c4 .cfa: sp 48 +
STACK CFI 5d1d0 .cfa: sp 0 +
STACK CFI INIT 5d1d4 68 .cfa: sp 0 +
STACK CFI 5d1d8 .cfa: sp 64 +
STACK CFI 5d1e4 .cfa: x29 32 + x19: .cfa -16 + ^ .ra: .cfa -24 + ^ x29: .cfa -32 + ^
STACK CFI 5d228 .cfa: sp 64 +
STACK CFI 5d234 .cfa: sp 0 +
STACK CFI 5d238 .cfa: x29 32 +
STACK CFI INIT 5d23c 90 .cfa: sp 0 +
STACK CFI 5d240 .cfa: sp 32 +
STACK CFI 5d248 .cfa: x29 32 + x19: .cfa -8 + ^ x20: .cfa -16 + ^ .ra: .cfa -24 + ^ x29: .cfa -32 + ^
STACK CFI 5d274 .cfa: sp 32 +
STACK CFI 5d27c .cfa: sp 0 +
STACK CFI 5d280 .cfa: x29 32 +
STACK CFI 5d2c0 .cfa: sp 32 +
STACK CFI 5d2c8 .cfa: sp 0 +
STACK CFI INIT 5d2cc ec .cfa: sp 0 +
STACK CFI 5d2d0 .cfa: sp 112 +
STACK CFI 5d2e0 .cfa: x29 48 + x19: .cfa -8 + ^ x20: .cfa -16 + ^ x21: .cfa -32 + ^ .ra: .cfa -40 + ^ x29: .cfa -48 + ^
STACK CFI 5d3a0 .cfa: sp 112 +
STACK CFI 5d3b0 .cfa: sp 0 +
STACK CFI 5d3b4 .cfa: x29 48 +
STACK CFI INIT 5d3b8 ec .cfa: sp 0 +
STACK CFI 5d3bc .cfa: sp 112 +
STACK CFI 5d3cc .cfa: x29 48 + x19: .cfa -8 + ^ x20: .cfa -16 + ^ x21: .cfa -32 + ^ .ra: .cfa -40 + ^ x29: .cfa -48 + ^
STACK CFI 5d48c .cfa: sp 112 +
STACK CFI 5d49c .cfa: sp 0 +
STACK CFI 5d4a0 .cfa: x29 48 +
STACK CFI INIT 5d4a4 48 .cfa: sp 0 +
STACK CFI 5d4a8 .cfa: sp 32 +
STACK CFI 5d4b0 .cfa: x29 32 + x19: .cfa -8 + ^ x20: .cfa -16 + ^ .ra: .cfa -24 + ^ x29: .cfa -32 + ^
STACK CFI 5d4d4 .cfa: sp 32 +
STACK CFI 5d4dc .cfa: sp 0 +
STACK CFI 5d4e0 .cfa: x29 32 +
STACK CFI INIT 5d4ec 98 .cfa: sp 0 +
STACK CFI 5d4f0 .cfa: sp 80 +
STACK CFI 5d4fc .cfa: x29 32 + x19: .cfa -16 + ^ .ra: .cfa -24 + ^ x29: .cfa -32 + ^
STACK CFI 5d570 .cfa: sp 80 +
STACK CFI 5d57c .cfa: sp 0 +
STACK CFI 5d580 .cfa: x29 32 +
STACK CFI INIT 5d584 260 .cfa: sp 0 +
STACK CFI 5d588 .cfa: sp 112 +
STACK CFI 5d5a0 .cfa: x29 80 + x19: .cfa -8 + ^ x20: .cfa -16 + ^ x21: .cfa -24 + ^ x22: .cfa -32 + ^ x23: .cfa -40 + ^ x24: .cfa -48 + ^ x25: .cfa -64 + ^ .ra: .cfa -72 + ^ x29: .cfa -80 + ^
STACK CFI 5d784 .cfa: sp 112 +
STACK CFI 5d79c .cfa: sp 0 +
STACK CFI 5d7a0 .cfa: x29 80 +
STACK CFI INIT 5d7e4 150 .cfa: sp 0 +
STACK CFI 5d7e8 .cfa: sp 48 +
STACK CFI 5d7f4 .cfa: x29 48 + x19: .cfa -8 + ^ x20: .cfa -16 + ^ x21: .cfa -24 + ^ x22: .cfa -32 + ^ .ra: .cfa -40 + ^ x29: .cfa -48 + ^
STACK CFI 5d924 .cfa: sp 48 +
STACK CFI 5d930 .cfa: sp 0 +
STACK CFI INIT 5d934 1e0 .cfa: sp 0 +
STACK CFI 5d938 .cfa: sp 96 +
STACK CFI 5d94c .cfa: x29 64 + x19: .cfa -8 + ^ x20: .cfa -16 + ^ x21: .cfa -24 + ^ x22: .cfa -32 + ^ x23: .cfa -40 + ^ x24: .cfa -48 + ^ .ra: .cfa -56 + ^ x29: .cfa -64 + ^
STACK CFI 5dacc .cfa: sp 96 +
STACK CFI 5dae0 .cfa: sp 0 +
STACK CFI 5dae4 .cfa: x29 64 +
STACK CFI INIT 5db14 284 .cfa: sp 0 +
STACK CFI 5db18 .cfa: sp 112 +
STACK CFI 5db30 .cfa: x29 80 + x19: .cfa -8 + ^ x20: .cfa -16 + ^ x21: .cfa -24 + ^ x22: .cfa -32 + ^ x23: .cfa -40 + ^ x24: .cfa -48 + ^ x25: .cfa -64 + ^ .ra: .cfa -72 + ^ x29: .cfa -80 + ^
STACK CFI 5dd38 .cfa: sp 112 +
STACK CFI 5dd50 .cfa: sp 0 +
STACK CFI 5dd54 .cfa: x29 80 +
STACK CFI INIT 5dd98 208 .cfa: sp 0 +
STACK CFI 5dd9c .cfa: sp 96 +
STACK CFI 5ddb0 .cfa: x29 64 + x19: .cfa -8 + ^ x20: .cfa -16 + ^ x21: .cfa -24 + ^ x22: .cfa -32 + ^ x23: .cfa -40 + ^ x24: .cfa -48 + ^ .ra: .cfa -56 + ^ x29: .cfa -64 + ^
STACK CFI 5df58 .cfa: sp 96 +
STACK CFI 5df6c .cfa: sp 0 +
STACK CFI 5df70 .cfa: x29 64 +
STACK CFI INIT 5dfa0 360 .cfa: sp 0 +
STACK CFI 5dfa4 .cfa: sp 160 +
STACK CFI 5dfc0 .cfa: x29 96 + x19: .cfa -8 + ^ x20: .cfa -16 + ^ x21: .cfa -24 + ^ x22: .cfa -32 + ^ x23: .cfa -40 + ^ x24: .cfa -48 + ^ x25: .cfa -56 + ^ x26: .cfa -64 + ^ x27: .cfa -72 + ^ x28: .cfa -80 + ^ .ra: .cfa -88 + ^ x29: .cfa -96 + ^
STACK CFI 5e28c .cfa: sp 160 +
STACK CFI 5e2a8 .cfa: sp 0 +
STACK CFI 5e2ac .cfa: x29 96 +
STACK CFI INIT 5e300 314 .cfa: sp 0 +
STACK CFI 5e304 .cfa: sp 144 +
STACK CFI 5e320 .cfa: x29 96 + x19: .cfa -8 + ^ x20: .cfa -16 + ^ x21: .cfa -24 + ^ x22: .cfa -32 + ^ x23: .cfa -40 + ^ x24: .cfa -48 + ^ x25: .cfa -56 + ^ x26: .cfa -64 + ^ x27: .cfa -72 + ^ x28: .cfa -80 + ^ .ra: .cfa -88 + ^ x29: .cfa -96 + ^
STACK CFI 5e59c .cfa: sp 144 +
STACK CFI 5e5b8 .cfa: sp 0 +
STACK CFI 5e5bc .cfa: x29 96 +
STACK CFI INIT 5e614 290 .cfa: sp 0 +
STACK CFI 5e618 .cfa: sp 128 +
STACK CFI 5e630 .cfa: x29 80 + x19: .cfa -8 + ^ x20: .cfa -16 + ^ x21: .cfa -24 + ^ x22: .cfa -32 + ^ x23: .cfa -40 + ^ x24: .cfa -48 + ^ x25: .cfa -56 + ^ x26: .cfa -64 + ^ .ra: .cfa -72 + ^ x29: .cfa -80 + ^
STACK CFI 5e884 .cfa: sp 128 +
STACK CFI 5e89c .cfa: sp 0 +
STACK CFI 5e8a0 .cfa: x29 80 +
STACK CFI INIT 5e8a4 ddc .cfa: sp 0 +
STACK CFI 5e8a8 .cfa: sp 144 +
STACK CFI 5e8c4 .cfa: x29 96 + x19: .cfa -8 + ^ x20: .cfa -16 + ^ x21: .cfa -24 + ^ x22: .cfa -32 + ^ x23: .cfa -40 + ^ x24: .cfa -48 + ^ x25: .cfa -56 + ^ x26: .cfa -64 + ^ x27: .cfa -72 + ^ x28: .cfa -80 + ^ .ra: .cfa -88 + ^ x29: .cfa -96 + ^
STACK CFI 5f558 .cfa: sp 144 +
STACK CFI 5f574 .cfa: sp 0 +
STACK CFI 5f578 .cfa: x29 96 +
STACK CFI INIT 5f680 1d0 .cfa: sp 0 +
STACK CFI 5f684 .cfa: sp 80 +
STACK CFI 5f698 .cfa: x29 80 + x19: .cfa -8 + ^ x20: .cfa -16 + ^ x21: .cfa -24 + ^ x22: .cfa -32 + ^ x23: .cfa -40 + ^ x24: .cfa -48 + ^ x25: .cfa -64 + ^ .ra: .cfa -72 + ^ x29: .cfa -80 + ^
STACK CFI 5f838 .cfa: sp 80 +
STACK CFI 5f84c .cfa: sp 0 +
STACK CFI INIT 5f850 23c .cfa: sp 0 +
STACK CFI 5f854 .cfa: sp 112 +
STACK CFI 5f868 .cfa: x29 64 + x19: .cfa -8 + ^ x20: .cfa -16 + ^ x21: .cfa -24 + ^ x22: .cfa -32 + ^ x23: .cfa -40 + ^ x24: .cfa -48 + ^ .ra: .cfa -56 + ^ x29: .cfa -64 + ^
STACK CFI 5fa44 .cfa: sp 112 +
STACK CFI 5fa58 .cfa: sp 0 +
STACK CFI 5fa5c .cfa: x29 64 +
STACK CFI INIT 5fa8c 30c .cfa: sp 0 +
STACK CFI 5fa90 .cfa: sp 80 +
STACK CFI 5faa4 .cfa: x29 64 + x19: .cfa -8 + ^ x20: .cfa -16 + ^ x21: .cfa -24 + ^ x22: .cfa -32 + ^ x23: .cfa -40 + ^ x24: .cfa -48 + ^ .ra: .cfa -56 + ^ x29: .cfa -64 + ^
STACK CFI 5fc20 .cfa: sp 80 +
STACK CFI 5fc34 .cfa: sp 0 +
STACK CFI 5fc38 .cfa: x29 64 +
STACK CFI INIT 5fd98 178 .cfa: sp 0 +
STACK CFI 5fd9c .cfa: sp 80 +
STACK CFI 5fdb0 .cfa: x29 64 + x19: .cfa -8 + ^ x20: .cfa -16 + ^ x21: .cfa -24 + ^ x22: .cfa -32 + ^ x23: .cfa -40 + ^ x24: .cfa -48 + ^ .ra: .cfa -56 + ^ x29: .cfa -64 + ^
STACK CFI 5fef4 .cfa: sp 80 +
STACK CFI 5ff08 .cfa: sp 0 +
STACK CFI 5ff0c .cfa: x29 64 +
STACK CFI INIT 5ff10 178 .cfa: sp 0 +
STACK CFI 5ff14 .cfa: sp 80 +
STACK CFI 5ff28 .cfa: x29 64 + x19: .cfa -8 + ^ x20: .cfa -16 + ^ x21: .cfa -24 + ^ x22: .cfa -32 + ^ x23: .cfa -40 + ^ x24: .cfa -48 + ^ .ra: .cfa -56 + ^ x29: .cfa -64 + ^
STACK CFI 6006c .cfa: sp 80 +
STACK CFI 60080 .cfa: sp 0 +
STACK CFI 60084 .cfa: x29 64 +
STACK CFI INIT 60088 240 .cfa: sp 0 +
STACK CFI 6008c .cfa: sp 96 +
STACK CFI 600a4 .cfa: x29 96 + x19: .cfa -8 + ^ x20: .cfa -16 + ^ x21: .cfa -24 + ^ x22: .cfa -32 + ^ x23: .cfa -40 + ^ x24: .cfa -48 + ^ x25: .cfa -56 + ^ x26: .cfa -64 + ^ x27: .cfa -72 + ^ x28: .cfa -80 + ^ .ra: .cfa -88 + ^ x29: .cfa -96 + ^
STACK CFI 602ac .cfa: sp 96 +
STACK CFI 602c4 .cfa: sp 0 +
STACK CFI INIT 60f3c 154 .cfa: sp 0 +
STACK CFI 60f40 .cfa: sp 96 +
STACK CFI 60f54 .cfa: x29 64 + x19: .cfa -8 + ^ x20: .cfa -16 + ^ x21: .cfa -24 + ^ x22: .cfa -32 + ^ x23: .cfa -48 + ^ .ra: .cfa -56 + ^ x29: .cfa -64 + ^
STACK CFI 61034 .cfa: sp 96 +
STACK CFI 61048 .cfa: sp 0 +
STACK CFI 6104c .cfa: x29 64 +
STACK CFI INIT 612fc 44 .cfa: sp 0 +
STACK CFI 61300 .cfa: sp 32 +
STACK CFI 61308 .cfa: x29 32 + x19: .cfa -16 + ^ .ra: .cfa -24 + ^ x29: .cfa -32 + ^
STACK CFI 61324 .cfa: sp 32 +
STACK CFI 6132c .cfa: sp 0 +
STACK CFI 61330 .cfa: x29 32 +
STACK CFI 61334 .cfa: sp 32 +
STACK CFI 6133c .cfa: sp 0 +
STACK CFI INIT 61340 1d0 .cfa: sp 0 +
STACK CFI 61344 .cfa: sp 64 +
STACK CFI 61354 .cfa: x29 64 + x19: .cfa -8 + ^ x20: .cfa -16 + ^ x21: .cfa -24 + ^ x22: .cfa -32 + ^ x23: .cfa -40 + ^ x24: .cfa -48 + ^ .ra: .cfa -56 + ^ x29: .cfa -64 + ^
STACK CFI 61414 .cfa: sp 64 +
STACK CFI 61424 .cfa: sp 0 +
STACK CFI 61428 .cfa: x29 64 +
STACK CFI INIT 61510 17c .cfa: sp 0 +
STACK CFI INIT 6168c ac .cfa: sp 0 +
STACK CFI 61690 .cfa: sp 64 +
STACK CFI 616a0 .cfa: x29 64 + x19: .cfa -8 + ^ x20: .cfa -16 + ^ x21: .cfa -24 + ^ x22: .cfa -32 + ^ x23: .cfa -48 + ^ .ra: .cfa -56 + ^ x29: .cfa -64 + ^
STACK CFI 6171c .cfa: sp 64 +
STACK CFI 6172c .cfa: sp 0 +
STACK CFI 61730 .cfa: x29 64 +
STACK CFI INIT 61738 110 .cfa: sp 0 +
STACK CFI 6173c .cfa: sp 64 +
STACK CFI 6174c .cfa: x29 64 + x19: .cfa -8 + ^ x20: .cfa -16 + ^ x21: .cfa -24 + ^ x22: .cfa -32 + ^ x23: .cfa -40 + ^ x24: .cfa -48 + ^ .ra: .cfa -56 + ^ x29: .cfa -64 + ^
STACK CFI 6182c .cfa: sp 64 +
STACK CFI 6183c .cfa: sp 0 +
STACK CFI 61840 .cfa: x29 64 +
STACK CFI INIT 61c00 a0 .cfa: sp 0 +
STACK CFI 61c04 .cfa: sp 48 +
STACK CFI 61c10 .cfa: x29 48 + x19: .cfa -8 + ^ x20: .cfa -16 + ^ x21: .cfa -24 + ^ x22: .cfa -32 + ^ .ra: .cfa -40 + ^ x29: .cfa -48 + ^
STACK CFI 61c7c .cfa: sp 48 +
STACK CFI 61c88 .cfa: sp 0 +
STACK CFI 61c8c .cfa: sp 48 +
STACK CFI 61c98 .cfa: sp 0 +
STACK CFI 61c9c .cfa: x29 48 +
STACK CFI INIT 62954 158 .cfa: sp 0 +
STACK CFI 62958 .cfa: sp 96 +
STACK CFI 6296c .cfa: x29 64 + x19: .cfa -8 + ^ x20: .cfa -16 + ^ x21: .cfa -24 + ^ x22: .cfa -32 + ^ x23: .cfa -48 + ^ .ra: .cfa -56 + ^ x29: .cfa -64 + ^
STACK CFI 62a50 .cfa: sp 96 +
STACK CFI 62a64 .cfa: sp 0 +
STACK CFI 62a68 .cfa: x29 64 +
STACK CFI INIT 62aac 190 .cfa: sp 0 +
STACK CFI INIT 63738 1dc .cfa: sp 0 +
STACK CFI 6373c .cfa: sp 80 +
STACK CFI 63750 .cfa: x29 80 + x19: .cfa -8 + ^ x20: .cfa -16 + ^ x21: .cfa -24 + ^ x22: .cfa -32 + ^ x23: .cfa -40 + ^ x24: .cfa -48 + ^ x25: .cfa -64 + ^ .ra: .cfa -72 + ^ x29: .cfa -80 + ^
STACK CFI 638fc .cfa: sp 80 +
STACK CFI 63910 .cfa: sp 0 +
STACK CFI INIT 64d44 124 .cfa: sp 0 +
STACK CFI 64d74 .cfa: sp 32 +
STACK CFI 64d7c .cfa: x29 32 + x19: .cfa -8 + ^ x20: .cfa -16 + ^ .ra: .cfa -24 + ^ x29: .cfa -32 + ^
STACK CFI 64e5c .cfa: sp 32 +
STACK CFI 64e64 .cfa: sp 0 +
STACK CFI INIT 655c4 320 .cfa: sp 0 +
STACK CFI 655c8 .cfa: sp 64 +
STACK CFI 655d8 .cfa: x29 64 + x19: .cfa -8 + ^ x20: .cfa -16 + ^ x21: .cfa -24 + ^ x22: .cfa -32 + ^ x23: .cfa -40 + ^ x24: .cfa -48 + ^ .ra: .cfa -56 + ^ x29: .cfa -64 + ^
STACK CFI 65654 .cfa: sp 64 +
STACK CFI 65664 .cfa: sp 0 +
STACK CFI 65668 .cfa: x29 64 +
STACK CFI 6583c .cfa: sp 64 +
STACK CFI 6584c .cfa: sp 0 +
STACK CFI 65850 .cfa: x29 64 +
STACK CFI 65860 .cfa: sp 64 +
STACK CFI 65870 .cfa: sp 0 +
STACK CFI 65874 .cfa: x29 64 +
STACK CFI INIT 658e4 a0 .cfa: sp 0 +
STACK CFI 658e8 .cfa: sp 48 +
STACK CFI 658f4 .cfa: x29 48 + x19: .cfa -8 + ^ x20: .cfa -16 + ^ x21: .cfa -24 + ^ x22: .cfa -32 + ^ .ra: .cfa -40 + ^ x29: .cfa -48 + ^
STACK CFI 65960 .cfa: sp 48 +
STACK CFI 6596c .cfa: sp 0 +
STACK CFI 65970 .cfa: sp 48 +
STACK CFI 6597c .cfa: sp 0 +
STACK CFI 65980 .cfa: x29 48 +
STACK CFI INIT 66834 160 .cfa: sp 0 +
STACK CFI 66838 .cfa: sp 64 +
STACK CFI 66848 .cfa: x29 64 + x19: .cfa -8 + ^ x20: .cfa -16 + ^ x21: .cfa -24 + ^ x22: .cfa -32 + ^ x23: .cfa -48 + ^ .ra: .cfa -56 + ^ x29: .cfa -64 + ^
STACK CFI 66940 .cfa: sp 64 +
STACK CFI 66950 .cfa: sp 0 +
STACK CFI 66954 .cfa: x29 64 +
STACK CFI INIT 66994 214 .cfa: sp 0 +
STACK CFI 66998 .cfa: sp 128 +
STACK CFI 669b4 .cfa: x29 96 + x19: .cfa -8 + ^ x20: .cfa -16 + ^ x21: .cfa -24 + ^ x22: .cfa -32 + ^ x23: .cfa -40 + ^ x24: .cfa -48 + ^ x25: .cfa -56 + ^ x26: .cfa -64 + ^ x27: .cfa -80 + ^ .ra: .cfa -88 + ^ x29: .cfa -96 + ^
STACK CFI 66b30 .cfa: sp 128 +
STACK CFI 66b4c .cfa: sp 0 +
STACK CFI 66b50 .cfa: x29 96 +
STACK CFI INIT 68844 290 .cfa: sp 0 +
STACK CFI 68848 .cfa: sp 16 +
STACK CFI 6884c .cfa: x29 16 + .ra: .cfa -8 + ^ x29: .cfa -16 + ^
STACK CFI 688d8 .cfa: sp 16 +
STACK CFI 688dc .cfa: sp 0 +
STACK CFI 688e0 .cfa: x29 16 +
STACK CFI 68930 .cfa: sp 16 +
STACK CFI 68934 .cfa: sp 0 +
STACK CFI 68938 .cfa: x29 16 +
STACK CFI 68a9c .cfa: sp 16 +
STACK CFI 68aa0 .cfa: sp 0 +
STACK CFI 68aa4 .cfa: x29 16 +
STACK CFI INIT 68ad4 158 .cfa: sp 0 +
STACK CFI 68ad8 .cfa: sp 112 +
STACK CFI 68af4 .cfa: x29 96 + x19: .cfa -8 + ^ x20: .cfa -16 + ^ x21: .cfa -24 + ^ x22: .cfa -32 + ^ x23: .cfa -40 + ^ x24: .cfa -48 + ^ x25: .cfa -56 + ^ x26: .cfa -64 + ^ x27: .cfa -72 + ^ x28: .cfa -80 + ^ .ra: .cfa -88 + ^ x29: .cfa -96 + ^
STACK CFI 68bdc .cfa: sp 112 +
STACK CFI 68be0 .cfa: x29 96 +
STACK CFI 68be8 .cfa: sp 112 +
STACK CFI 68c04 .cfa: sp 0 +
STACK CFI 68c08 .cfa: x29 96 +
STACK CFI 68c28 .cfa: sp 112 +
STACK CFI INIT 68c2c e54 .cfa: sp 0 +
STACK CFI 68c30 .cfa: sp 192 +
STACK CFI 68c4c .cfa: x29 96 + x19: .cfa -8 + ^ x20: .cfa -16 + ^ x21: .cfa -24 + ^ x22: .cfa -32 + ^ x23: .cfa -40 + ^ x24: .cfa -48 + ^ x25: .cfa -56 + ^ x26: .cfa -64 + ^ x27: .cfa -72 + ^ x28: .cfa -80 + ^ .ra: .cfa -88 + ^ x29: .cfa -96 + ^
STACK CFI 69968 .cfa: sp 192 +
STACK CFI 69984 .cfa: sp 0 +
STACK CFI 69988 .cfa: x29 96 +
STACK CFI INIT 69a80 1068 .cfa: sp 0 +
STACK CFI 69a84 .cfa: sp 288 +
STACK CFI 69aa0 .cfa: x29 96 + x19: .cfa -8 + ^ x20: .cfa -16 + ^ x21: .cfa -24 + ^ x22: .cfa -32 + ^ x23: .cfa -40 + ^ x24: .cfa -48 + ^ x25: .cfa -56 + ^ x26: .cfa -64 + ^ x27: .cfa -72 + ^ x28: .cfa -80 + ^ .ra: .cfa -88 + ^ x29: .cfa -96 + ^
STACK CFI 6a830 .cfa: sp 288 +
STACK CFI 6a84c .cfa: sp 0 +
STACK CFI 6a850 .cfa: x29 96 +
STACK CFI INIT 6aae8 520 .cfa: sp 0 +
STACK CFI 6aaec .cfa: sp 144 +
STACK CFI 6ab08 .cfa: x29 96 + x19: .cfa -8 + ^ x20: .cfa -16 + ^ x21: .cfa -24 + ^ x22: .cfa -32 + ^ x23: .cfa -40 + ^ x24: .cfa -48 + ^ x25: .cfa -56 + ^ x26: .cfa -64 + ^ x27: .cfa -72 + ^ x28: .cfa -80 + ^ .ra: .cfa -88 + ^ x29: .cfa -96 + ^
STACK CFI 6afe4 .cfa: sp 144 +
STACK CFI 6b000 .cfa: sp 0 +
STACK CFI 6b004 .cfa: x29 96 +
STACK CFI INIT 6b9a8 136c .cfa: sp 0 +
STACK CFI 6b9ac .cfa: sp 224 +
STACK CFI 6b9c8 .cfa: x29 96 + x19: .cfa -8 + ^ x20: .cfa -16 + ^ x21: .cfa -24 + ^ x22: .cfa -32 + ^ x23: .cfa -40 + ^ x24: .cfa -48 + ^ x25: .cfa -56 + ^ x26: .cfa -64 + ^ x27: .cfa -72 + ^ x28: .cfa -80 + ^ .ra: .cfa -88 + ^ x29: .cfa -96 + ^
STACK CFI 6ccf0 .cfa: sp 224 +
STACK CFI 6cd0c .cfa: sp 0 +
STACK CFI 6cd10 .cfa: x29 96 +
STACK CFI INIT 6cd14 1b8 .cfa: sp 0 +
STACK CFI INIT 31bb0 14c .cfa: sp 0 +
STACK CFI 31bb4 .cfa: sp 96 +
STACK CFI 31bc8 .cfa: x29 64 + x19: .cfa -8 + ^ x20: .cfa -16 + ^ x21: .cfa -24 + ^ x22: .cfa -32 + ^ x23: .cfa -48 + ^ .ra: .cfa -56 + ^ x29: .cfa -64 + ^
STACK CFI 31c4c .cfa: sp 96 +
STACK CFI 31c60 .cfa: sp 0 +
STACK CFI 31c64 .cfa: x29 64 +
STACK CFI 31cb4 .cfa: sp 96 +
STACK CFI 31cc8 .cfa: sp 0 +
STACK CFI 31ccc .cfa: x29 64 +
STACK CFI INIT 31cfc 144 .cfa: sp 0 +
STACK CFI 31d00 .cfa: sp 80 +
STACK CFI 31d10 .cfa: x29 48 + x19: .cfa -8 + ^ x20: .cfa -16 + ^ x21: .cfa -32 + ^ .ra: .cfa -40 + ^ x29: .cfa -48 + ^
STACK CFI 31dfc .cfa: sp 80 +
STACK CFI 31e0c .cfa: sp 0 +
STACK CFI 31e10 .cfa: x29 48 +
STACK CFI INIT 31e40 190 .cfa: sp 0 +
STACK CFI 31e44 .cfa: sp 160 +
STACK CFI 31e54 .cfa: x29 48 + x19: .cfa -8 + ^ x20: .cfa -16 + ^ x21: .cfa -32 + ^ .ra: .cfa -40 + ^ x29: .cfa -48 + ^
STACK CFI 31f74 .cfa: sp 160 +
STACK CFI 31f84 .cfa: sp 0 +
STACK CFI 31f88 .cfa: x29 48 +
STACK CFI INIT 31fd0 194 .cfa: sp 0 +
STACK CFI 31fd4 .cfa: sp 96 +
STACK CFI 31fe8 .cfa: x29 64 + x19: .cfa -8 + ^ x20: .cfa -16 + ^ x21: .cfa -24 + ^ x22: .cfa -32 + ^ x23: .cfa -40 + ^ x24: .cfa -48 + ^ .ra: .cfa -56 + ^ x29: .cfa -64 + ^
STACK CFI 32118 .cfa: sp 96 +
STACK CFI 3212c .cfa: sp 0 +
STACK CFI 32130 .cfa: x29 64 +
STACK CFI INIT 32164 1a8 .cfa: sp 0 +
STACK CFI 32168 .cfa: sp 96 +
STACK CFI 32178 .cfa: x29 48 + x19: .cfa -8 + ^ x20: .cfa -16 + ^ x21: .cfa -32 + ^ .ra: .cfa -40 + ^ x29: .cfa -48 + ^
STACK CFI 322c4 .cfa: sp 96 +
STACK CFI 322d4 .cfa: sp 0 +
STACK CFI 322d8 .cfa: x29 48 +
STACK CFI INIT 323a0 50 .cfa: sp 0 +
STACK CFI 323a4 .cfa: sp 32 +
STACK CFI 323ac .cfa: x29 32 + x19: .cfa -8 + ^ x20: .cfa -16 + ^ .ra: .cfa -24 + ^ x29: .cfa -32 + ^
STACK CFI INIT 32430 304 .cfa: sp 0 +
STACK CFI 32434 .cfa: sp 128 +
STACK CFI 32450 .cfa: x29 96 + x19: .cfa -8 + ^ x20: .cfa -16 + ^ x21: .cfa -24 + ^ x22: .cfa -32 + ^ x23: .cfa -40 + ^ x24: .cfa -48 + ^ x25: .cfa -56 + ^ x26: .cfa -64 + ^ x27: .cfa -72 + ^ x28: .cfa -80 + ^ .ra: .cfa -88 + ^ x29: .cfa -96 + ^
STACK CFI 326b4 .cfa: sp 128 +
STACK CFI 326d0 .cfa: sp 0 +
STACK CFI 326d4 .cfa: x29 96 +
STACK CFI INIT 32890 134 .cfa: sp 0 +
STACK CFI 32894 .cfa: sp 80 +
STACK CFI 328a4 .cfa: x29 48 + x19: .cfa -8 + ^ x20: .cfa -16 + ^ x21: .cfa -24 + ^ x22: .cfa -32 + ^ .ra: .cfa -40 + ^ x29: .cfa -48 + ^
STACK CFI 329a8 .cfa: sp 80 +
STACK CFI 329b8 .cfa: sp 0 +
STACK CFI 329bc .cfa: x29 48 +
STACK CFI INIT 32ac8 118 .cfa: sp 0 +
STACK CFI 32acc .cfa: sp 80 +
STACK CFI 32adc .cfa: x29 48 + x19: .cfa -8 + ^ x20: .cfa -16 + ^ x21: .cfa -24 + ^ x22: .cfa -32 + ^ .ra: .cfa -40 + ^ x29: .cfa -48 + ^
STACK CFI 32bc4 .cfa: sp 80 +
STACK CFI 32bd4 .cfa: sp 0 +
STACK CFI 32bd8 .cfa: x29 48 +
STACK CFI INIT 32be0 130 .cfa: sp 0 +
STACK CFI 32be4 .cfa: sp 96 +
STACK CFI 32bf8 .cfa: x29 48 + x19: .cfa -8 + ^ x20: .cfa -16 + ^ x21: .cfa -24 + ^ x22: .cfa -32 + ^ .ra: .cfa -40 + ^ x29: .cfa -48 + ^ v8: .cfa -64 + ^
STACK CFI 32cf0 .cfa: sp 96 +
STACK CFI 32d04 .cfa: sp 0 +
STACK CFI 32d08 .cfa: x29 48 +
STACK CFI INIT 32d10 190 .cfa: sp 0 +
STACK CFI 32d14 .cfa: sp 96 +
STACK CFI 32d24 .cfa: x29 48 + x19: .cfa -8 + ^ x20: .cfa -16 + ^ x21: .cfa -24 + ^ x22: .cfa -32 + ^ .ra: .cfa -40 + ^ x29: .cfa -48 + ^
STACK CFI 32e1c .cfa: sp 96 +
STACK CFI 32e2c .cfa: sp 0 +
STACK CFI 32e30 .cfa: x29 48 +
STACK CFI INIT 32ef0 190 .cfa: sp 0 +
STACK CFI 32ef4 .cfa: sp 96 +
STACK CFI 32f04 .cfa: x29 48 + x19: .cfa -8 + ^ x20: .cfa -16 + ^ x21: .cfa -24 + ^ x22: .cfa -32 + ^ .ra: .cfa -40 + ^ x29: .cfa -48 + ^
STACK CFI 32ffc .cfa: sp 96 +
STACK CFI 3300c .cfa: sp 0 +
STACK CFI 33010 .cfa: x29 48 +
STACK CFI INIT 330d0 118 .cfa: sp 0 +
STACK CFI 330d4 .cfa: sp 80 +
STACK CFI 330e4 .cfa: x29 48 + x19: .cfa -8 + ^ x20: .cfa -16 + ^ x21: .cfa -24 + ^ x22: .cfa -32 + ^ .ra: .cfa -40 + ^ x29: .cfa -48 + ^
STACK CFI 331cc .cfa: sp 80 +
STACK CFI 331dc .cfa: sp 0 +
STACK CFI 331e0 .cfa: x29 48 +
STACK CFI INIT 331e8 74 .cfa: sp 0 +
STACK CFI 331ec .cfa: sp 48 +
STACK CFI 331f8 .cfa: x29 32 + x19: .cfa -8 + ^ x20: .cfa -16 + ^ .ra: .cfa -24 + ^ x29: .cfa -32 + ^
STACK CFI 33244 .cfa: sp 48 +
STACK CFI 33250 .cfa: sp 0 +
STACK CFI 33254 .cfa: x29 32 +
STACK CFI INIT 332c0 af0 .cfa: sp 0 +
STACK CFI 332c4 .cfa: sp 96 +
STACK CFI 332dc .cfa: x29 96 + x19: .cfa -8 + ^ x20: .cfa -16 + ^ x21: .cfa -24 + ^ x22: .cfa -32 + ^ x23: .cfa -40 + ^ x24: .cfa -48 + ^ x25: .cfa -56 + ^ x26: .cfa -64 + ^ x27: .cfa -72 + ^ x28: .cfa -80 + ^ .ra: .cfa -88 + ^ x29: .cfa -96 + ^
STACK CFI 33aa4 .cfa: sp 96 +
STACK CFI 33abc .cfa: sp 0 +
STACK CFI 33ac0 .cfa: x29 96 +
STACK CFI INIT 33db0 148 .cfa: sp 0 +
STACK CFI 33db4 .cfa: sp 128 +
STACK CFI 33dc4 .cfa: x29 48 + x19: .cfa -8 + ^ x20: .cfa -16 + ^ x21: .cfa -24 + ^ x22: .cfa -32 + ^ .ra: .cfa -40 + ^ x29: .cfa -48 + ^
STACK CFI 33eac .cfa: sp 128 +
STACK CFI 33ebc .cfa: sp 0 +
STACK CFI 33ec0 .cfa: x29 48 +
STACK CFI INIT 33f48 d8 .cfa: sp 0 +
STACK CFI 33f4c .cfa: sp 96 +
STACK CFI 33f58 .cfa: x29 32 + x19: .cfa -8 + ^ x20: .cfa -16 + ^ .ra: .cfa -24 + ^ x29: .cfa -32 + ^
STACK CFI 33fc0 .cfa: sp 96 +
STACK CFI 33fcc .cfa: sp 0 +
STACK CFI 33fd0 .cfa: x29 32 +
STACK CFI INIT 34338 2e4 .cfa: sp 0 +
STACK CFI 3433c .cfa: sp 128 +
STACK CFI 34350 .cfa: x29 64 + x19: .cfa -8 + ^ x20: .cfa -16 + ^ x21: .cfa -24 + ^ x22: .cfa -32 + ^ x23: .cfa -40 + ^ x24: .cfa -48 + ^ .ra: .cfa -56 + ^ x29: .cfa -64 + ^
STACK CFI 3455c .cfa: sp 128 +
STACK CFI 34570 .cfa: sp 0 +
STACK CFI 34574 .cfa: x29 64 +
STACK CFI INIT 3465c f4 .cfa: sp 0 +
STACK CFI 34660 .cfa: sp 48 +
STACK CFI 3466c .cfa: x29 48 + x19: .cfa -8 + ^ x20: .cfa -16 + ^ x21: .cfa -32 + ^ .ra: .cfa -40 + ^ x29: .cfa -48 + ^
STACK CFI 346d8 .cfa: sp 48 +
STACK CFI 346e4 .cfa: sp 0 +
STACK CFI 346e8 .cfa: x29 48 +
STACK CFI INIT 347f4 2b4 .cfa: sp 0 +
STACK CFI 347f8 .cfa: sp 144 +
STACK CFI 34810 .cfa: x29 80 + x19: .cfa -8 + ^ x20: .cfa -16 + ^ x21: .cfa -24 + ^ x22: .cfa -32 + ^ x23: .cfa -40 + ^ x24: .cfa -48 + ^ x25: .cfa -64 + ^ .ra: .cfa -72 + ^ x29: .cfa -80 + ^
STACK CFI 349c4 .cfa: sp 144 +
STACK CFI 349dc .cfa: sp 0 +
STACK CFI 349e0 .cfa: x29 80 +
STACK CFI 34a28 .cfa: sp 144 +
STACK CFI 34a40 .cfa: sp 0 +
STACK CFI 34a44 .cfa: x29 80 +
STACK CFI INIT 34ad4 174 .cfa: sp 0 +
STACK CFI 34ad8 .cfa: sp 112 +
STACK CFI 34ae8 .cfa: x29 48 + x19: .cfa -8 + ^ x20: .cfa -16 + ^ x21: .cfa -32 + ^ .ra: .cfa -40 + ^ x29: .cfa -48 + ^
STACK CFI 34be4 .cfa: sp 112 +
STACK CFI 34bf4 .cfa: sp 0 +
STACK CFI 34bf8 .cfa: x29 48 +
STACK CFI INIT 34dcc 13b4 .cfa: sp 0 +
STACK CFI 34dd0 .cfa: sp 96 +
STACK CFI 34de8 .cfa: x29 96 + x19: .cfa -8 + ^ x20: .cfa -16 + ^ x21: .cfa -24 + ^ x22: .cfa -32 + ^ x23: .cfa -40 + ^ x24: .cfa -48 + ^ x25: .cfa -56 + ^ x26: .cfa -64 + ^ x27: .cfa -72 + ^ x28: .cfa -80 + ^ .ra: .cfa -88 + ^ x29: .cfa -96 + ^
STACK CFI 35e24 .cfa: sp 96 +
STACK CFI 35e3c .cfa: sp 0 +
STACK CFI 35e40 .cfa: x29 96 +
STACK CFI INIT 361a8 400 .cfa: sp 0 +
STACK CFI 361ac .cfa: sp 400 +
STACK CFI 361c4 .cfa: x29 80 + x19: .cfa -8 + ^ x20: .cfa -16 + ^ x21: .cfa -24 + ^ x22: .cfa -32 + ^ x23: .cfa -40 + ^ x24: .cfa -48 + ^ x28: .cfa -64 + ^ .ra: .cfa -72 + ^ x29: .cfa -80 + ^
STACK CFI 364b0 .cfa: sp 400 +
STACK CFI 364c8 .cfa: sp 0 +
STACK CFI 364cc .cfa: x29 80 +
STACK CFI INIT 365a8 154 .cfa: sp 0 +
STACK CFI 365ac .cfa: sp 160 +
STACK CFI 365bc .cfa: x29 48 + x19: .cfa -8 + ^ x20: .cfa -16 + ^ x21: .cfa -24 + ^ x22: .cfa -32 + ^ .ra: .cfa -40 + ^ x29: .cfa -48 + ^
STACK CFI 366a8 .cfa: sp 160 +
STACK CFI 366b8 .cfa: sp 0 +
STACK CFI 366bc .cfa: x29 48 +
STACK CFI INIT 366fc 150 .cfa: sp 0 +
STACK CFI 36700 .cfa: sp 128 +
STACK CFI 36714 .cfa: x29 40 + x19: .cfa -8 + ^ x20: .cfa -16 + ^ x21: .cfa -24 + ^ .ra: .cfa -32 + ^ x29: .cfa -40 + ^ v8: .cfa -48 + ^
STACK CFI 367fc .cfa: sp 128 +
STACK CFI 36810 .cfa: sp 0 +
STACK CFI 36814 .cfa: x29 40 +
STACK CFI INIT 36b48 1b8 .cfa: sp 0 +
STACK CFI 36b4c .cfa: sp 112 +
STACK CFI 36b60 .cfa: x29 40 + x19: .cfa -8 + ^ x20: .cfa -16 + ^ x21: .cfa -24 + ^ .ra: .cfa -32 + ^ x29: .cfa -40 + ^ v8: .cfa -48 + ^
STACK CFI 36c94 .cfa: sp 112 +
STACK CFI 36ca8 .cfa: sp 0 +
STACK CFI 36cac .cfa: x29 40 +
STACK CFI INIT 36ec4 214 .cfa: sp 0 +
STACK CFI 36ec8 .cfa: sp 112 +
STACK CFI 36edc .cfa: x29 40 + x19: .cfa -8 + ^ x20: .cfa -16 + ^ x21: .cfa -24 + ^ .ra: .cfa -32 + ^ x29: .cfa -40 + ^ v8: .cfa -48 + ^
STACK CFI 3700c .cfa: sp 112 +
STACK CFI 37020 .cfa: sp 0 +
STACK CFI 37024 .cfa: x29 40 +
STACK CFI 3707c .cfa: sp 112 +
STACK CFI 37090 .cfa: sp 0 +
STACK CFI 37094 .cfa: x29 40 +
STACK CFI INIT 37228 144 .cfa: sp 0 +
STACK CFI 3722c .cfa: sp 128 +
STACK CFI 3723c .cfa: x29 48 + x19: .cfa -8 + ^ x20: .cfa -16 + ^ x21: .cfa -32 + ^ .ra: .cfa -40 + ^ x29: .cfa -48 + ^
STACK CFI 37320 .cfa: sp 128 +
STACK CFI 37330 .cfa: sp 0 +
STACK CFI 37334 .cfa: x29 48 +
STACK CFI INIT 373c8 214 .cfa: sp 0 +
STACK CFI 373cc .cfa: sp 112 +
STACK CFI 373e0 .cfa: x29 40 + x19: .cfa -8 + ^ x20: .cfa -16 + ^ x21: .cfa -24 + ^ .ra: .cfa -32 + ^ x29: .cfa -40 + ^ v8: .cfa -48 + ^
STACK CFI 37510 .cfa: sp 112 +
STACK CFI 37524 .cfa: sp 0 +
STACK CFI 37528 .cfa: x29 40 +
STACK CFI 37580 .cfa: sp 112 +
STACK CFI 37594 .cfa: sp 0 +
STACK CFI 37598 .cfa: x29 40 +
STACK CFI INIT 37788 214 .cfa: sp 0 +
STACK CFI 3778c .cfa: sp 112 +
STACK CFI 377a0 .cfa: x29 40 + x19: .cfa -8 + ^ x20: .cfa -16 + ^ x21: .cfa -24 + ^ .ra: .cfa -32 + ^ x29: .cfa -40 + ^ v8: .cfa -48 + ^
STACK CFI 378d0 .cfa: sp 112 +
STACK CFI 378e4 .cfa: sp 0 +
STACK CFI 378e8 .cfa: x29 40 +
STACK CFI 37940 .cfa: sp 112 +
STACK CFI 37954 .cfa: sp 0 +
STACK CFI 37958 .cfa: x29 40 +
STACK CFI INIT 37b50 214 .cfa: sp 0 +
STACK CFI 37b54 .cfa: sp 112 +
STACK CFI 37b68 .cfa: x29 40 + x19: .cfa -8 + ^ x20: .cfa -16 + ^ x21: .cfa -24 + ^ .ra: .cfa -32 + ^ x29: .cfa -40 + ^ v8: .cfa -48 + ^
STACK CFI 37c98 .cfa: sp 112 +
STACK CFI 37cac .cfa: sp 0 +
STACK CFI 37cb0 .cfa: x29 40 +
STACK CFI 37d08 .cfa: sp 112 +
STACK CFI 37d1c .cfa: sp 0 +
STACK CFI 37d20 .cfa: x29 40 +
STACK CFI INIT 37d90 174 .cfa: sp 0 +
STACK CFI 37d94 .cfa: sp 112 +
STACK CFI 37da4 .cfa: x29 48 + x19: .cfa -8 + ^ x20: .cfa -16 + ^ x21: .cfa -32 + ^ .ra: .cfa -40 + ^ x29: .cfa -48 + ^
STACK CFI 37ea0 .cfa: sp 112 +
STACK CFI 37eb0 .cfa: sp 0 +
STACK CFI 37eb4 .cfa: x29 48 +
STACK CFI INIT 38054 12c .cfa: sp 0 +
STACK CFI 38058 .cfa: sp 80 +
STACK CFI 38068 .cfa: x29 48 + x19: .cfa -8 + ^ x20: .cfa -16 + ^ x21: .cfa -32 + ^ .ra: .cfa -40 + ^ x29: .cfa -48 + ^
STACK CFI 38100 .cfa: sp 80 +
STACK CFI 38110 .cfa: sp 0 +
STACK CFI 38114 .cfa: x29 48 +
STACK CFI INIT 38180 62c .cfa: sp 0 +
STACK CFI 38184 .cfa: sp 224 +
STACK CFI 381a0 .cfa: x29 96 + x19: .cfa -8 + ^ x20: .cfa -16 + ^ x21: .cfa -24 + ^ x22: .cfa -32 + ^ x23: .cfa -40 + ^ x24: .cfa -48 + ^ x25: .cfa -56 + ^ x26: .cfa -64 + ^ x27: .cfa -80 + ^ .ra: .cfa -88 + ^ x29: .cfa -96 + ^
STACK CFI 382c8 .cfa: sp 224 +
STACK CFI 382e4 .cfa: sp 0 +
STACK CFI 382e8 .cfa: x29 96 +
STACK CFI 3866c .cfa: sp 224 +
STACK CFI 38688 .cfa: sp 0 +
STACK CFI 3868c .cfa: x29 96 +
STACK CFI INIT 387c8 37c .cfa: sp 0 +
STACK CFI 387cc .cfa: sp 240 +
STACK CFI 387e0 .cfa: x29 64 + x19: .cfa -8 + ^ x20: .cfa -16 + ^ x21: .cfa -24 + ^ x22: .cfa -32 + ^ x23: .cfa -48 + ^ .ra: .cfa -56 + ^ x29: .cfa -64 + ^
STACK CFI 38a18 .cfa: sp 240 +
STACK CFI 38a2c .cfa: sp 0 +
STACK CFI 38a30 .cfa: x29 64 +
STACK CFI INIT 38b94 74 .cfa: sp 0 +
STACK CFI 38b98 .cfa: sp 48 +
STACK CFI 38ba4 .cfa: x29 32 + x19: .cfa -8 + ^ x20: .cfa -16 + ^ .ra: .cfa -24 + ^ x29: .cfa -32 + ^
STACK CFI 38bf0 .cfa: sp 48 +
STACK CFI 38bfc .cfa: sp 0 +
STACK CFI 38c00 .cfa: x29 32 +
STACK CFI INIT 38ddc 1f4 .cfa: sp 0 +
STACK CFI 38de0 .cfa: sp 128 +
STACK CFI 38dfc .cfa: x29 96 + x19: .cfa -8 + ^ x20: .cfa -16 + ^ x21: .cfa -24 + ^ x22: .cfa -32 + ^ x23: .cfa -40 + ^ x24: .cfa -48 + ^ x25: .cfa -56 + ^ x26: .cfa -64 + ^ x27: .cfa -72 + ^ x28: .cfa -80 + ^ .ra: .cfa -88 + ^ x29: .cfa -96 + ^
STACK CFI 38f88 .cfa: sp 128 +
STACK CFI 38fa4 .cfa: sp 0 +
STACK CFI 38fa8 .cfa: x29 96 +
STACK CFI INIT 391fc 154 .cfa: sp 0 +
STACK CFI 39200 .cfa: sp 384 +
STACK CFI 39214 .cfa: x29 64 + x19: .cfa -8 + ^ x20: .cfa -16 + ^ x21: .cfa -24 + ^ x22: .cfa -32 + ^ x23: .cfa -40 + ^ x28: .cfa -48 + ^ .ra: .cfa -56 + ^ x29: .cfa -64 + ^
STACK CFI 392f8 .cfa: sp 384 +
STACK CFI 3930c .cfa: sp 0 +
STACK CFI 39310 .cfa: x29 64 +
STACK CFI INIT 39350 12c .cfa: sp 0 +
STACK CFI 39354 .cfa: sp 80 +
STACK CFI 39368 .cfa: x29 80 + x19: .cfa -8 + ^ x20: .cfa -16 + ^ x21: .cfa -24 + ^ x22: .cfa -32 + ^ x23: .cfa -40 + ^ x24: .cfa -48 + ^ x25: .cfa -56 + ^ x26: .cfa -64 + ^ .ra: .cfa -72 + ^ x29: .cfa -80 + ^
STACK CFI 39430 .cfa: sp 80 +
STACK CFI 39444 .cfa: sp 0 +
STACK CFI 39448 .cfa: x29 80 +
STACK CFI INIT 39520 1a4 .cfa: sp 0 +
STACK CFI 39524 .cfa: sp 112 +
STACK CFI 3953c .cfa: x29 80 + x19: .cfa -8 + ^ x20: .cfa -16 + ^ x21: .cfa -24 + ^ x22: .cfa -32 + ^ x23: .cfa -40 + ^ x24: .cfa -48 + ^ x25: .cfa -56 + ^ x26: .cfa -64 + ^ .ra: .cfa -72 + ^ x29: .cfa -80 + ^
STACK CFI 3962c .cfa: sp 112 +
STACK CFI 39644 .cfa: sp 0 +
STACK CFI 39648 .cfa: x29 80 +
STACK CFI INIT 396c4 1dc .cfa: sp 0 +
STACK CFI 396c8 .cfa: sp 128 +
STACK CFI 396e4 .cfa: x29 96 + x19: .cfa -8 + ^ x20: .cfa -16 + ^ x21: .cfa -24 + ^ x22: .cfa -32 + ^ x23: .cfa -40 + ^ x24: .cfa -48 + ^ x25: .cfa -56 + ^ x26: .cfa -64 + ^ x27: .cfa -80 + ^ .ra: .cfa -88 + ^ x29: .cfa -96 + ^
STACK CFI 39850 .cfa: sp 128 +
STACK CFI 3986c .cfa: sp 0 +
STACK CFI 39870 .cfa: x29 96 +
STACK CFI INIT 398a0 178 .cfa: sp 0 +
STACK CFI 398a4 .cfa: sp 80 +
STACK CFI 398b8 .cfa: x29 80 + x19: .cfa -8 + ^ x20: .cfa -16 + ^ x21: .cfa -24 + ^ x22: .cfa -32 + ^ x23: .cfa -40 + ^ x24: .cfa -48 + ^ x25: .cfa -64 + ^ .ra: .cfa -72 + ^ x29: .cfa -80 + ^
STACK CFI 399e4 .cfa: sp 80 +
STACK CFI 399f8 .cfa: sp 0 +
STACK CFI 399fc .cfa: x29 80 +
STACK CFI INIT 39b60 168 .cfa: sp 0 +
STACK CFI 39b64 .cfa: sp 384 +
STACK CFI 39b78 .cfa: x29 64 + x19: .cfa -8 + ^ x20: .cfa -16 + ^ x21: .cfa -24 + ^ x22: .cfa -32 + ^ x23: .cfa -40 + ^ x28: .cfa -48 + ^ .ra: .cfa -56 + ^ x29: .cfa -64 + ^
STACK CFI 39c70 .cfa: sp 384 +
STACK CFI 39c84 .cfa: sp 0 +
STACK CFI 39c88 .cfa: x29 64 +
STACK CFI INIT 39cc8 228 .cfa: sp 0 +
STACK CFI 39ccc .cfa: sp 128 +
STACK CFI 39ce4 .cfa: x29 80 + x19: .cfa -8 + ^ x20: .cfa -16 + ^ x21: .cfa -24 + ^ x22: .cfa -32 + ^ x23: .cfa -40 + ^ x24: .cfa -48 + ^ x25: .cfa -64 + ^ .ra: .cfa -72 + ^ x29: .cfa -80 + ^
STACK CFI 39e80 .cfa: sp 128 +
STACK CFI 39e98 .cfa: sp 0 +
STACK CFI 39e9c .cfa: x29 80 +
STACK CFI INIT 3a4ac 304 .cfa: sp 0 +
STACK CFI 3a4b0 .cfa: sp 128 +
STACK CFI 3a4c4 .cfa: x29 64 + x19: .cfa -8 + ^ x20: .cfa -16 + ^ x21: .cfa -24 + ^ x22: .cfa -32 + ^ x23: .cfa -48 + ^ .ra: .cfa -56 + ^ x29: .cfa -64 + ^
STACK CFI 3a6f8 .cfa: sp 128 +
STACK CFI 3a70c .cfa: sp 0 +
STACK CFI 3a710 .cfa: x29 64 +
STACK CFI INIT 3aa58 444 .cfa: sp 0 +
STACK CFI 3aa5c .cfa: sp 224 +
STACK CFI 3aa78 .cfa: x29 96 + x19: .cfa -8 + ^ x20: .cfa -16 + ^ x21: .cfa -24 + ^ x22: .cfa -32 + ^ x23: .cfa -40 + ^ x24: .cfa -48 + ^ x25: .cfa -56 + ^ x26: .cfa -64 + ^ x27: .cfa -72 + ^ x28: .cfa -80 + ^ .ra: .cfa -88 + ^ x29: .cfa -96 + ^
STACK CFI 3ad94 .cfa: sp 224 +
STACK CFI 3adb0 .cfa: sp 0 +
STACK CFI 3adb4 .cfa: x29 96 +
STACK CFI INIT 3ae9c 424 .cfa: sp 0 +
STACK CFI 3aea0 .cfa: sp 256 +
STACK CFI 3aeb4 .cfa: x29 64 + x19: .cfa -8 + ^ x20: .cfa -16 + ^ x21: .cfa -24 + ^ x22: .cfa -32 + ^ x23: .cfa -48 + ^ .ra: .cfa -56 + ^ x29: .cfa -64 + ^
STACK CFI 3b174 .cfa: sp 256 +
STACK CFI 3b188 .cfa: sp 0 +
STACK CFI 3b18c .cfa: x29 64 +
STACK CFI INIT 3b2c4 170 .cfa: sp 0 +
STACK CFI 3b2c8 .cfa: sp 112 +
STACK CFI 3b2d8 .cfa: x29 48 + x19: .cfa -8 + ^ x20: .cfa -16 + ^ x21: .cfa -32 + ^ .ra: .cfa -40 + ^ x29: .cfa -48 + ^
STACK CFI 3b384 .cfa: sp 112 +
STACK CFI 3b394 .cfa: sp 0 +
STACK CFI 3b398 .cfa: x29 48 +
STACK CFI INIT 3b434 1a8 .cfa: sp 0 +
STACK CFI 3b438 .cfa: sp 112 +
STACK CFI 3b44c .cfa: x29 64 + x19: .cfa -8 + ^ x20: .cfa -16 + ^ x21: .cfa -24 + ^ x22: .cfa -32 + ^ x23: .cfa -40 + ^ x24: .cfa -48 + ^ .ra: .cfa -56 + ^ x29: .cfa -64 + ^
STACK CFI 3b52c .cfa: sp 112 +
STACK CFI 3b540 .cfa: sp 0 +
STACK CFI 3b544 .cfa: x29 64 +
STACK CFI INIT 3b5dc 3d4 .cfa: sp 0 +
STACK CFI 3b5e0 .cfa: sp 160 +
STACK CFI 3b5f8 .cfa: x29 48 + x19: .cfa -8 + ^ x20: .cfa -16 + ^ x21: .cfa -24 + ^ x22: .cfa -32 + ^ .ra: .cfa -40 + ^ x29: .cfa -48 + ^ v8: .cfa -56 + ^ v9: .cfa -64 + ^ v10: .cfa -80 + ^
STACK CFI 3b884 .cfa: sp 160 +
STACK CFI 3b89c .cfa: sp 0 +
STACK CFI 3b8a0 .cfa: x29 48 +
STACK CFI INIT 3b9c4 480 .cfa: sp 0 +
STACK CFI 3b9c8 .cfa: sp 224 +
STACK CFI 3b9e4 .cfa: x29 96 + x19: .cfa -8 + ^ x20: .cfa -16 + ^ x21: .cfa -24 + ^ x22: .cfa -32 + ^ x23: .cfa -40 + ^ x24: .cfa -48 + ^ x25: .cfa -56 + ^ x26: .cfa -64 + ^ x27: .cfa -80 + ^ .ra: .cfa -88 + ^ x29: .cfa -96 + ^
STACK CFI 3bc50 .cfa: sp 224 +
STACK CFI 3bc6c .cfa: sp 0 +
STACK CFI 3bc70 .cfa: x29 96 +
STACK CFI 3bd3c .cfa: sp 224 +
STACK CFI 3bd58 .cfa: sp 0 +
STACK CFI 3bd5c .cfa: x29 96 +
STACK CFI INIT 3be60 380 .cfa: sp 0 +
STACK CFI 3be64 .cfa: sp 240 +
STACK CFI 3be78 .cfa: x29 64 + x19: .cfa -8 + ^ x20: .cfa -16 + ^ x21: .cfa -24 + ^ x22: .cfa -32 + ^ x23: .cfa -48 + ^ .ra: .cfa -56 + ^ x29: .cfa -64 + ^
STACK CFI 3c0bc .cfa: sp 240 +
STACK CFI 3c0d0 .cfa: sp 0 +
STACK CFI 3c0d4 .cfa: x29 64 +
STACK CFI INIT 3c1e4 1c4 .cfa: sp 0 +
STACK CFI 3c1e8 .cfa: sp 96 +
STACK CFI 3c1fc .cfa: x29 48 + x19: .cfa -8 + ^ x20: .cfa -16 + ^ x21: .cfa -24 + ^ x22: .cfa -32 + ^ .ra: .cfa -40 + ^ x29: .cfa -48 + ^ v8: .cfa -64 + ^
STACK CFI 3c360 .cfa: sp 96 +
STACK CFI 3c374 .cfa: sp 0 +
STACK CFI 3c378 .cfa: x29 48 +
STACK CFI INIT 3c3a8 a8 .cfa: sp 0 +
STACK CFI 3c3ac .cfa: sp 32 +
STACK CFI 3c3b4 .cfa: x29 32 + x19: .cfa -16 + ^ .ra: .cfa -24 + ^ x29: .cfa -32 + ^
STACK CFI 3c3e8 .cfa: sp 32 +
STACK CFI 3c3f0 .cfa: sp 0 +
STACK CFI 3c3f4 .cfa: x29 32 +
STACK CFI 3c3f8 .cfa: sp 32 +
STACK CFI 3c400 .cfa: sp 0 +
STACK CFI 3c404 .cfa: x29 32 +
STACK CFI INIT 3c4d8 634 .cfa: sp 0 +
STACK CFI 3c4dc .cfa: sp 224 +
STACK CFI 3c4f8 .cfa: x29 96 + x19: .cfa -8 + ^ x20: .cfa -16 + ^ x21: .cfa -24 + ^ x22: .cfa -32 + ^ x23: .cfa -40 + ^ x24: .cfa -48 + ^ x25: .cfa -56 + ^ x26: .cfa -64 + ^ x27: .cfa -80 + ^ .ra: .cfa -88 + ^ x29: .cfa -96 + ^
STACK CFI 3c628 .cfa: sp 224 +
STACK CFI 3c644 .cfa: sp 0 +
STACK CFI 3c648 .cfa: x29 96 +
STACK CFI 3c9cc .cfa: sp 224 +
STACK CFI 3c9e8 .cfa: sp 0 +
STACK CFI 3c9ec .cfa: x29 96 +
STACK CFI INIT 3cb28 340 .cfa: sp 0 +
STACK CFI 3cb2c .cfa: sp 240 +
STACK CFI 3cb40 .cfa: x29 64 + x19: .cfa -8 + ^ x20: .cfa -16 + ^ x21: .cfa -24 + ^ x22: .cfa -32 + ^ x23: .cfa -48 + ^ .ra: .cfa -56 + ^ x29: .cfa -64 + ^
STACK CFI 3cd50 .cfa: sp 240 +
STACK CFI 3cd64 .cfa: sp 0 +
STACK CFI 3cd68 .cfa: x29 64 +
STACK CFI INIT 3ce6c 814 .cfa: sp 0 +
STACK CFI 3ce70 .cfa: sp 352 +
STACK CFI 3ce84 .cfa: x29 64 + x19: .cfa -8 + ^ x20: .cfa -16 + ^ x21: .cfa -24 + ^ x22: .cfa -32 + ^ x23: .cfa -40 + ^ x28: .cfa -48 + ^ .ra: .cfa -56 + ^ x29: .cfa -64 + ^
STACK CFI 3d4e8 .cfa: sp 352 +
STACK CFI 3d4fc .cfa: sp 0 +
STACK CFI 3d500 .cfa: x29 64 +
STACK CFI INIT 3d6c8 2b8 .cfa: sp 0 +
STACK CFI 3d6cc .cfa: sp 160 +
STACK CFI 3d6e8 .cfa: x29 96 + x19: .cfa -8 + ^ x20: .cfa -16 + ^ x21: .cfa -24 + ^ x22: .cfa -32 + ^ x23: .cfa -40 + ^ x24: .cfa -48 + ^ x25: .cfa -56 + ^ x26: .cfa -64 + ^ x27: .cfa -72 + ^ x28: .cfa -80 + ^ .ra: .cfa -88 + ^ x29: .cfa -96 + ^
STACK CFI 3d720 .cfa: sp 160 +
STACK CFI 3d73c .cfa: sp 0 +
STACK CFI 3d740 .cfa: x29 96 +
STACK CFI INIT 3d980 114 .cfa: sp 0 +
STACK CFI 3d984 .cfa: sp 64 +
STACK CFI 3d994 .cfa: x29 64 + x19: .cfa -8 + ^ x20: .cfa -16 + ^ x21: .cfa -24 + ^ x22: .cfa -32 + ^ x23: .cfa -48 + ^ .ra: .cfa -56 + ^ x29: .cfa -64 + ^
STACK CFI 3da70 .cfa: sp 64 +
STACK CFI 3da80 .cfa: sp 0 +
STACK CFI 3da84 .cfa: x29 64 +
STACK CFI INIT 3db18 22c .cfa: sp 0 +
STACK CFI 3db1c .cfa: sp 96 +
STACK CFI 3db34 .cfa: x29 96 + x19: .cfa -8 + ^ x20: .cfa -16 + ^ x21: .cfa -24 + ^ x22: .cfa -32 + ^ x23: .cfa -40 + ^ x24: .cfa -48 + ^ x25: .cfa -56 + ^ x26: .cfa -64 + ^ x27: .cfa -80 + ^ .ra: .cfa -88 + ^ x29: .cfa -96 + ^
STACK CFI 3dcd8 .cfa: sp 96 +
STACK CFI 3dcf0 .cfa: sp 0 +
STACK CFI 3dcf4 .cfa: x29 96 +
STACK CFI INIT 3dd6c 50 .cfa: sp 0 +
STACK CFI 3dd70 .cfa: sp 32 +
STACK CFI 3dd78 .cfa: x29 32 + x19: .cfa -8 + ^ x20: .cfa -16 + ^ .ra: .cfa -24 + ^ x29: .cfa -32 + ^
STACK CFI INIT 3df08 46c .cfa: sp 0 +
STACK CFI 3df0c .cfa: sp 128 +
STACK CFI 3df28 .cfa: x29 96 + x19: .cfa -8 + ^ x20: .cfa -16 + ^ x21: .cfa -24 + ^ x22: .cfa -32 + ^ x23: .cfa -40 + ^ x24: .cfa -48 + ^ x25: .cfa -56 + ^ x26: .cfa -64 + ^ x27: .cfa -72 + ^ x28: .cfa -80 + ^ .ra: .cfa -88 + ^ x29: .cfa -96 + ^
STACK CFI 3e324 .cfa: sp 128 +
STACK CFI 3e340 .cfa: sp 0 +
STACK CFI 3e344 .cfa: x29 96 +
STACK CFI INIT 3e9bc 254 .cfa: sp 0 +
STACK CFI 3e9c0 .cfa: sp 96 +
STACK CFI 3e9d8 .cfa: x29 80 + x19: .cfa -8 + ^ x20: .cfa -16 + ^ x21: .cfa -24 + ^ x22: .cfa -32 + ^ x23: .cfa -40 + ^ x24: .cfa -48 + ^ x25: .cfa -64 + ^ .ra: .cfa -72 + ^ x29: .cfa -80 + ^
STACK CFI 3ebec .cfa: sp 96 +
STACK CFI 3ec04 .cfa: sp 0 +
STACK CFI 3ec08 .cfa: x29 80 +
STACK CFI INIT 3ec10 634 .cfa: sp 0 +
STACK CFI 3ec14 .cfa: sp 224 +
STACK CFI 3ec30 .cfa: x29 96 + x19: .cfa -8 + ^ x20: .cfa -16 + ^ x21: .cfa -24 + ^ x22: .cfa -32 + ^ x23: .cfa -40 + ^ x24: .cfa -48 + ^ x25: .cfa -56 + ^ x26: .cfa -64 + ^ x27: .cfa -80 + ^ .ra: .cfa -88 + ^ x29: .cfa -96 + ^
STACK CFI 3ed60 .cfa: sp 224 +
STACK CFI 3ed7c .cfa: sp 0 +
STACK CFI 3ed80 .cfa: x29 96 +
STACK CFI 3f104 .cfa: sp 224 +
STACK CFI 3f120 .cfa: sp 0 +
STACK CFI 3f124 .cfa: x29 96 +
STACK CFI INIT 3f260 380 .cfa: sp 0 +
STACK CFI 3f264 .cfa: sp 224 +
STACK CFI 3f278 .cfa: x29 64 + x19: .cfa -8 + ^ x20: .cfa -16 + ^ x21: .cfa -24 + ^ x22: .cfa -32 + ^ x23: .cfa -40 + ^ x24: .cfa -48 + ^ .ra: .cfa -56 + ^ x29: .cfa -64 + ^
STACK CFI 3f4b4 .cfa: sp 224 +
STACK CFI 3f4c8 .cfa: sp 0 +
STACK CFI 3f4cc .cfa: x29 64 +
STACK CFI INIT 3f6f4 628 .cfa: sp 0 +
STACK CFI 3f6f8 .cfa: sp 224 +
STACK CFI 3f714 .cfa: x29 96 + x19: .cfa -8 + ^ x20: .cfa -16 + ^ x21: .cfa -24 + ^ x22: .cfa -32 + ^ x23: .cfa -40 + ^ x24: .cfa -48 + ^ x25: .cfa -56 + ^ x26: .cfa -64 + ^ x27: .cfa -80 + ^ .ra: .cfa -88 + ^ x29: .cfa -96 + ^
STACK CFI 3f838 .cfa: sp 224 +
STACK CFI 3f854 .cfa: sp 0 +
STACK CFI 3f858 .cfa: x29 96 +
STACK CFI 3fbdc .cfa: sp 224 +
STACK CFI 3fbf8 .cfa: sp 0 +
STACK CFI 3fbfc .cfa: x29 96 +
STACK CFI INIT 3fd38 534 .cfa: sp 0 +
STACK CFI 3fd3c .cfa: sp 224 +
STACK CFI 3fd58 .cfa: x29 96 + x19: .cfa -8 + ^ x20: .cfa -16 + ^ x21: .cfa -24 + ^ x22: .cfa -32 + ^ x23: .cfa -40 + ^ x24: .cfa -48 + ^ x25: .cfa -56 + ^ x26: .cfa -64 + ^ x27: .cfa -80 + ^ .ra: .cfa -88 + ^ x29: .cfa -96 + ^
STACK CFI 4006c .cfa: sp 224 +
STACK CFI 40088 .cfa: sp 0 +
STACK CFI 4008c .cfa: x29 96 +
STACK CFI 40158 .cfa: sp 224 +
STACK CFI 40174 .cfa: sp 0 +
STACK CFI 40178 .cfa: x29 96 +
STACK CFI INIT 40288 4f8 .cfa: sp 0 +
STACK CFI 4028c .cfa: sp 224 +
STACK CFI 402a8 .cfa: x29 96 + x19: .cfa -8 + ^ x20: .cfa -16 + ^ x21: .cfa -24 + ^ x22: .cfa -32 + ^ x23: .cfa -40 + ^ x24: .cfa -48 + ^ x25: .cfa -56 + ^ x26: .cfa -64 + ^ x27: .cfa -80 + ^ .ra: .cfa -88 + ^ x29: .cfa -96 + ^
STACK CFI 40584 .cfa: sp 224 +
STACK CFI 405a0 .cfa: sp 0 +
STACK CFI 405a4 .cfa: x29 96 +
STACK CFI 40670 .cfa: sp 224 +
STACK CFI 4068c .cfa: sp 0 +
STACK CFI 40690 .cfa: x29 96 +
STACK CFI INIT 4079c 628 .cfa: sp 0 +
STACK CFI 407a0 .cfa: sp 224 +
STACK CFI 407bc .cfa: x29 96 + x19: .cfa -8 + ^ x20: .cfa -16 + ^ x21: .cfa -24 + ^ x22: .cfa -32 + ^ x23: .cfa -40 + ^ x24: .cfa -48 + ^ x25: .cfa -56 + ^ x26: .cfa -64 + ^ x27: .cfa -80 + ^ .ra: .cfa -88 + ^ x29: .cfa -96 + ^
STACK CFI 408e0 .cfa: sp 224 +
STACK CFI 408fc .cfa: sp 0 +
STACK CFI 40900 .cfa: x29 96 +
STACK CFI 40c84 .cfa: sp 224 +
STACK CFI 40ca0 .cfa: sp 0 +
STACK CFI 40ca4 .cfa: x29 96 +
STACK CFI INIT 40de0 5fc .cfa: sp 0 +
STACK CFI 40de4 .cfa: sp 240 +
STACK CFI 40dfc .cfa: x29 80 + x19: .cfa -8 + ^ x20: .cfa -16 + ^ x21: .cfa -24 + ^ x22: .cfa -32 + ^ x23: .cfa -40 + ^ x24: .cfa -48 + ^ x25: .cfa -56 + ^ x26: .cfa -64 + ^ .ra: .cfa -72 + ^ x29: .cfa -80 + ^
STACK CFI 4120c .cfa: sp 240 +
STACK CFI 41224 .cfa: sp 0 +
STACK CFI 41228 .cfa: x29 80 +
STACK CFI INIT 413e0 290 .cfa: sp 0 +
STACK CFI 413e4 .cfa: sp 96 +
STACK CFI 413f8 .cfa: x29 64 + x19: .cfa -8 + ^ x20: .cfa -16 + ^ x21: .cfa -24 + ^ x22: .cfa -32 + ^ x23: .cfa -48 + ^ .ra: .cfa -56 + ^ x29: .cfa -64 + ^
STACK CFI 41624 .cfa: sp 96 +
STACK CFI 41638 .cfa: sp 0 +
STACK CFI 4163c .cfa: x29 64 +
STACK CFI INIT 418dc a8 .cfa: sp 0 +
STACK CFI 418e0 .cfa: sp 32 +
STACK CFI 418e8 .cfa: x29 32 + x19: .cfa -16 + ^ .ra: .cfa -24 + ^ x29: .cfa -32 + ^
STACK CFI 4191c .cfa: sp 32 +
STACK CFI 41924 .cfa: sp 0 +
STACK CFI 41928 .cfa: x29 32 +
STACK CFI 4192c .cfa: sp 32 +
STACK CFI 41934 .cfa: sp 0 +
STACK CFI 41938 .cfa: x29 32 +
STACK CFI INIT 41a4c 460 .cfa: sp 0 +
STACK CFI 41a50 .cfa: sp 128 +
STACK CFI 41a68 .cfa: x29 80 + x19: .cfa -8 + ^ x20: .cfa -16 + ^ x21: .cfa -24 + ^ x22: .cfa -32 + ^ x23: .cfa -40 + ^ x24: .cfa -48 + ^ x25: .cfa -64 + ^ .ra: .cfa -72 + ^ x29: .cfa -80 + ^
STACK CFI 41dc4 .cfa: sp 128 +
STACK CFI 41ddc .cfa: sp 0 +
STACK CFI 41de0 .cfa: x29 80 +
STACK CFI INIT 41eac 640 .cfa: sp 0 +
STACK CFI 41eb0 .cfa: sp 160 +
STACK CFI 41ec4 .cfa: x29 64 + x19: .cfa -8 + ^ x20: .cfa -16 + ^ x21: .cfa -24 + ^ x22: .cfa -32 + ^ x23: .cfa -40 + ^ x24: .cfa -48 + ^ .ra: .cfa -56 + ^ x29: .cfa -64 + ^
STACK CFI 42328 .cfa: sp 160 +
STACK CFI 4233c .cfa: sp 0 +
STACK CFI 42340 .cfa: x29 64 +
STACK CFI INIT 424f0 248 .cfa: sp 0 +
STACK CFI 424f4 .cfa: sp 144 +
STACK CFI 42508 .cfa: x29 64 + x19: .cfa -8 + ^ x20: .cfa -16 + ^ x21: .cfa -24 + ^ x22: .cfa -32 + ^ x23: .cfa -40 + ^ x24: .cfa -48 + ^ .ra: .cfa -56 + ^ x29: .cfa -64 + ^
STACK CFI 426bc .cfa: sp 144 +
STACK CFI 426d0 .cfa: sp 0 +
STACK CFI 426d4 .cfa: x29 64 +
STACK CFI INIT 42738 184 .cfa: sp 0 +
STACK CFI 4273c .cfa: sp 160 +
STACK CFI 42754 .cfa: x29 80 + x19: .cfa -8 + ^ x20: .cfa -16 + ^ x21: .cfa -24 + ^ x22: .cfa -32 + ^ x23: .cfa -40 + ^ x24: .cfa -48 + ^ x25: .cfa -56 + ^ x26: .cfa -64 + ^ .ra: .cfa -72 + ^ x29: .cfa -80 + ^
STACK CFI 42854 .cfa: sp 160 +
STACK CFI 4286c .cfa: sp 0 +
STACK CFI 42870 .cfa: x29 80 +
STACK CFI INIT 428bc 354 .cfa: sp 0 +
STACK CFI 428c0 .cfa: sp 112 +
STACK CFI 428d4 .cfa: x29 64 + x19: .cfa -8 + ^ x20: .cfa -16 + ^ x21: .cfa -24 + ^ x22: .cfa -32 + ^ x23: .cfa -40 + ^ x24: .cfa -48 + ^ .ra: .cfa -56 + ^ x29: .cfa -64 + ^
STACK CFI 42a88 .cfa: sp 112 +
STACK CFI 42a9c .cfa: sp 0 +
STACK CFI 42aa0 .cfa: x29 64 +
STACK CFI INIT 42c10 348 .cfa: sp 0 +
STACK CFI 42c14 .cfa: sp 96 +
STACK CFI 42c28 .cfa: x29 64 + x19: .cfa -8 + ^ x20: .cfa -16 + ^ x21: .cfa -24 + ^ x22: .cfa -32 + ^ x23: .cfa -40 + ^ x24: .cfa -48 + ^ .ra: .cfa -56 + ^ x29: .cfa -64 + ^
STACK CFI 42f10 .cfa: sp 96 +
STACK CFI 42f24 .cfa: sp 0 +
STACK CFI 42f28 .cfa: x29 64 +
STACK CFI INIT 42f58 428 .cfa: sp 0 +
STACK CFI 42f5c .cfa: sp 176 +
STACK CFI 42f70 .cfa: x29 64 + x19: .cfa -8 + ^ x20: .cfa -16 + ^ x21: .cfa -24 + ^ x22: .cfa -32 + ^ x23: .cfa -48 + ^ .ra: .cfa -56 + ^ x29: .cfa -64 + ^
STACK CFI 4322c .cfa: sp 176 +
STACK CFI 43240 .cfa: sp 0 +
STACK CFI 43244 .cfa: x29 64 +
STACK CFI INIT 43380 498 .cfa: sp 0 +
STACK CFI 43384 .cfa: sp 176 +
STACK CFI 43398 .cfa: x29 64 + x19: .cfa -8 + ^ x20: .cfa -16 + ^ x21: .cfa -24 + ^ x22: .cfa -32 + ^ x23: .cfa -40 + ^ x24: .cfa -48 + ^ .ra: .cfa -56 + ^ x29: .cfa -64 + ^
STACK CFI 436c4 .cfa: sp 176 +
STACK CFI 436d8 .cfa: sp 0 +
STACK CFI 436dc .cfa: x29 64 +
STACK CFI INIT 4381c 248 .cfa: sp 0 +
STACK CFI 43820 .cfa: sp 144 +
STACK CFI 43834 .cfa: x29 64 + x19: .cfa -8 + ^ x20: .cfa -16 + ^ x21: .cfa -24 + ^ x22: .cfa -32 + ^ x23: .cfa -40 + ^ x24: .cfa -48 + ^ .ra: .cfa -56 + ^ x29: .cfa -64 + ^
STACK CFI 439e8 .cfa: sp 144 +
STACK CFI 439fc .cfa: sp 0 +
STACK CFI 43a00 .cfa: x29 64 +
STACK CFI INIT 43a64 184 .cfa: sp 0 +
STACK CFI 43a68 .cfa: sp 160 +
STACK CFI 43a80 .cfa: x29 80 + x19: .cfa -8 + ^ x20: .cfa -16 + ^ x21: .cfa -24 + ^ x22: .cfa -32 + ^ x23: .cfa -40 + ^ x24: .cfa -48 + ^ x25: .cfa -56 + ^ x26: .cfa -64 + ^ .ra: .cfa -72 + ^ x29: .cfa -80 + ^
STACK CFI 43b80 .cfa: sp 160 +
STACK CFI 43b98 .cfa: sp 0 +
STACK CFI 43b9c .cfa: x29 80 +
STACK CFI INIT 43f14 36c .cfa: sp 0 +
STACK CFI 43f18 .cfa: sp 208 +
STACK CFI 43f2c .cfa: x29 64 + x19: .cfa -8 + ^ x20: .cfa -16 + ^ x21: .cfa -24 + ^ x22: .cfa -32 + ^ x23: .cfa -48 + ^ .ra: .cfa -56 + ^ x29: .cfa -64 + ^
STACK CFI 4415c .cfa: sp 208 +
STACK CFI 44170 .cfa: sp 0 +
STACK CFI 44174 .cfa: x29 64 +
STACK CFI INIT 44284 23c .cfa: sp 0 +
STACK CFI 44288 .cfa: sp 112 +
STACK CFI 4429c .cfa: x29 64 + x19: .cfa -8 + ^ x20: .cfa -16 + ^ x21: .cfa -24 + ^ x22: .cfa -32 + ^ x23: .cfa -48 + ^ .ra: .cfa -56 + ^ x29: .cfa -64 + ^
STACK CFI 44478 .cfa: sp 112 +
STACK CFI 4448c .cfa: sp 0 +
STACK CFI 44490 .cfa: x29 64 +
STACK CFI INIT 444c0 580 .cfa: sp 0 +
STACK CFI 444c4 .cfa: sp 256 +
STACK CFI 444e0 .cfa: x29 96 + x19: .cfa -8 + ^ x20: .cfa -16 + ^ x21: .cfa -24 + ^ x22: .cfa -32 + ^ x23: .cfa -40 + ^ x24: .cfa -48 + ^ x25: .cfa -56 + ^ x26: .cfa -64 + ^ x27: .cfa -80 + ^ .ra: .cfa -88 + ^ x29: .cfa -96 + ^
STACK CFI 4483c .cfa: sp 256 +
STACK CFI 44858 .cfa: sp 0 +
STACK CFI 4485c .cfa: x29 96 +
STACK CFI 44928 .cfa: sp 256 +
STACK CFI 44944 .cfa: sp 0 +
STACK CFI 44948 .cfa: x29 96 +
STACK CFI INIT 44a5c e18 .cfa: sp 0 +
STACK CFI 44a60 .cfa: sp 240 +
STACK CFI 44a78 .cfa: x29 80 + x19: .cfa -8 + ^ x20: .cfa -16 + ^ x21: .cfa -24 + ^ x22: .cfa -32 + ^ x23: .cfa -40 + ^ x24: .cfa -48 + ^ x25: .cfa -56 + ^ x26: .cfa -64 + ^ .ra: .cfa -72 + ^ x29: .cfa -80 + ^
STACK CFI 454a4 .cfa: sp 240 +
STACK CFI 454bc .cfa: sp 0 +
STACK CFI 454c0 .cfa: x29 80 +
STACK CFI INIT 45878 254 .cfa: sp 0 +
STACK CFI 4587c .cfa: sp 160 +
STACK CFI 45894 .cfa: x29 80 + x19: .cfa -8 + ^ x20: .cfa -16 + ^ x21: .cfa -24 + ^ x22: .cfa -32 + ^ x23: .cfa -40 + ^ x24: .cfa -48 + ^ x25: .cfa -64 + ^ .ra: .cfa -72 + ^ x29: .cfa -80 + ^
STACK CFI 45a4c .cfa: sp 160 +
STACK CFI 45a64 .cfa: sp 0 +
STACK CFI 45a68 .cfa: x29 80 +
STACK CFI INIT 4651c 134 .cfa: sp 0 +
STACK CFI 46520 .cfa: sp 128 +
STACK CFI 46534 .cfa: x29 64 + x19: .cfa -8 + ^ x20: .cfa -16 + ^ x21: .cfa -24 + ^ x22: .cfa -32 + ^ x23: .cfa -40 + ^ x24: .cfa -48 + ^ .ra: .cfa -56 + ^ x29: .cfa -64 + ^
STACK CFI 46600 .cfa: sp 128 +
STACK CFI 46614 .cfa: sp 0 +
STACK CFI 46618 .cfa: x29 64 +
STACK CFI INIT 46760 3e4 .cfa: sp 0 +
STACK CFI 46764 .cfa: sp 96 +
STACK CFI 46778 .cfa: x29 64 + x19: .cfa -8 + ^ x20: .cfa -16 + ^ x21: .cfa -24 + ^ x22: .cfa -32 + ^ x23: .cfa -48 + ^ .ra: .cfa -56 + ^ x29: .cfa -64 + ^
STACK CFI 46afc .cfa: sp 96 +
STACK CFI 46b10 .cfa: sp 0 +
STACK CFI 46b14 .cfa: x29 64 +
STACK CFI INIT 46b44 2d8 .cfa: sp 0 +
STACK CFI 46b48 .cfa: sp 80 +
STACK CFI 46b5c .cfa: x29 80 + x19: .cfa -8 + ^ x20: .cfa -16 + ^ x21: .cfa -24 + ^ x22: .cfa -32 + ^ x23: .cfa -40 + ^ x24: .cfa -48 + ^ x25: .cfa -56 + ^ x28: .cfa -64 + ^ .ra: .cfa -72 + ^ x29: .cfa -80 + ^
STACK CFI 46dbc .cfa: sp 80 +
STACK CFI 46dd0 .cfa: sp 0 +
STACK CFI 46dd4 .cfa: x29 80 +
STACK CFI INIT 46e1c c8 .cfa: sp 0 +
STACK CFI 46e20 .cfa: sp 32 +
STACK CFI 46e28 .cfa: x29 32 + x19: .cfa -8 + ^ x20: .cfa -16 + ^ .ra: .cfa -24 + ^ x29: .cfa -32 + ^
STACK CFI 46e5c .cfa: sp 32 +
STACK CFI 46e64 .cfa: sp 0 +
STACK CFI 46e68 .cfa: x29 32 +
STACK CFI 46e6c .cfa: sp 32 +
STACK CFI 46e74 .cfa: sp 0 +
STACK CFI 46e78 .cfa: x29 32 +
STACK CFI INIT 46ee4 82c .cfa: sp 0 +
STACK CFI 46ee8 .cfa: sp 80 +
STACK CFI 46efc .cfa: x29 80 + x19: .cfa -8 + ^ x20: .cfa -16 + ^ x21: .cfa -24 + ^ x22: .cfa -32 + ^ x23: .cfa -40 + ^ x24: .cfa -48 + ^ x25: .cfa -56 + ^ x26: .cfa -64 + ^ .ra: .cfa -72 + ^ x29: .cfa -80 + ^
STACK CFI 47394 .cfa: sp 80 +
STACK CFI 473a8 .cfa: sp 0 +
STACK CFI 473ac .cfa: x29 80 +
STACK CFI INIT 47710 578 .cfa: sp 0 +
STACK CFI 47714 .cfa: sp 96 +
STACK CFI 47728 .cfa: x29 64 + x19: .cfa -8 + ^ x20: .cfa -16 + ^ x21: .cfa -24 + ^ x22: .cfa -32 + ^ x23: .cfa -48 + ^ .ra: .cfa -56 + ^ x29: .cfa -64 + ^
STACK CFI 47ac8 .cfa: sp 96 +
STACK CFI 47adc .cfa: sp 0 +
STACK CFI 47ae0 .cfa: x29 64 +
STACK CFI INIT 47dfc 1c .cfa: sp 0 +
STACK CFI 47e00 .cfa: sp 16 +
STACK CFI 47e04 .cfa: x29 16 + .ra: .cfa -8 + ^ x29: .cfa -16 + ^
STACK CFI 47e0c .cfa: sp 16 +
STACK CFI 47e10 .cfa: sp 0 +
STACK CFI 47e14 .cfa: x29 16 +
STACK CFI INIT 48124 3f8 .cfa: sp 0 +
STACK CFI 48128 .cfa: sp 48 +
STACK CFI 48134 .cfa: x29 48 + x19: .cfa -8 + ^ x20: .cfa -16 + ^ x21: .cfa -24 + ^ x22: .cfa -32 + ^ .ra: .cfa -40 + ^ x29: .cfa -48 + ^
STACK CFI 4849c .cfa: sp 48 +
STACK CFI 484a8 .cfa: sp 0 +
STACK CFI 484ac .cfa: x29 48 +
STACK CFI 484fc .cfa: sp 48 +
STACK CFI 48508 .cfa: sp 0 +
STACK CFI 4850c .cfa: x29 48 +
STACK CFI INIT 48594 1c .cfa: sp 0 +
STACK CFI 48598 .cfa: sp 16 +
STACK CFI 4859c .cfa: x29 16 + .ra: .cfa -8 + ^ x29: .cfa -16 + ^
STACK CFI 485a4 .cfa: sp 16 +
STACK CFI 485a8 .cfa: sp 0 +
STACK CFI 485ac .cfa: x29 16 +
STACK CFI INIT 48640 98 .cfa: sp 0 +
STACK CFI 48644 .cfa: sp 48 +
STACK CFI 48650 .cfa: x29 48 + x19: .cfa -8 + ^ x20: .cfa -16 + ^ x21: .cfa -32 + ^ .ra: .cfa -40 + ^ x29: .cfa -48 + ^
STACK CFI 486b0 .cfa: sp 48 +
STACK CFI 486bc .cfa: sp 0 +
STACK CFI 486c0 .cfa: sp 48 +
STACK CFI 486cc .cfa: sp 0 +
STACK CFI 486d0 .cfa: x29 48 +
STACK CFI INIT 48714 1c .cfa: sp 0 +
STACK CFI 48718 .cfa: sp 16 +
STACK CFI 4871c .cfa: x29 16 + .ra: .cfa -8 + ^ x29: .cfa -16 + ^
STACK CFI 48724 .cfa: sp 16 +
STACK CFI 48728 .cfa: sp 0 +
STACK CFI 4872c .cfa: x29 16 +
STACK CFI INIT 48730 1c .cfa: sp 0 +
STACK CFI 48734 .cfa: sp 16 +
STACK CFI 48738 .cfa: x29 16 + .ra: .cfa -8 + ^ x29: .cfa -16 + ^
STACK CFI 48740 .cfa: sp 16 +
STACK CFI 48744 .cfa: sp 0 +
STACK CFI 48748 .cfa: x29 16 +
STACK CFI INIT 4892c 1cc .cfa: sp 0 +
STACK CFI 48930 .cfa: sp 160 +
STACK CFI 48948 .cfa: x29 80 + x19: .cfa -8 + ^ x20: .cfa -16 + ^ x21: .cfa -24 + ^ x22: .cfa -32 + ^ x23: .cfa -40 + ^ x24: .cfa -48 + ^ x25: .cfa -56 + ^ x26: .cfa -64 + ^ .ra: .cfa -72 + ^ x29: .cfa -80 + ^
STACK CFI 48aa4 .cfa: sp 160 +
STACK CFI 48abc .cfa: sp 0 +
STACK CFI 48ac0 .cfa: x29 80 +
STACK CFI INIT 48eb0 1a0 .cfa: sp 0 +
STACK CFI 48eb4 .cfa: sp 64 +
STACK CFI 48ec4 .cfa: x29 64 + x19: .cfa -8 + ^ x20: .cfa -16 + ^ x21: .cfa -24 + ^ x22: .cfa -32 + ^ x23: .cfa -48 + ^ .ra: .cfa -56 + ^ x29: .cfa -64 + ^
STACK CFI 48f74 .cfa: sp 64 +
STACK CFI 48f84 .cfa: sp 0 +
STACK CFI 48f88 .cfa: x29 64 +
STACK CFI INIT 49684 a8 .cfa: sp 0 +
STACK CFI 49688 .cfa: sp 64 +
STACK CFI 49698 .cfa: x29 64 + x19: .cfa -8 + ^ x20: .cfa -16 + ^ x21: .cfa -24 + ^ x22: .cfa -32 + ^ x23: .cfa -40 + ^ x24: .cfa -48 + ^ .ra: .cfa -56 + ^ x29: .cfa -64 + ^
STACK CFI 496bc .cfa: sp 64 +
STACK CFI 496cc .cfa: sp 0 +
STACK CFI 496d0 .cfa: x29 64 +
STACK CFI INIT 4987c 39c .cfa: sp 0 +
STACK CFI 49880 .cfa: sp 176 +
STACK CFI 49890 .cfa: x29 48 + x19: .cfa -8 + ^ x20: .cfa -16 + ^ x21: .cfa -24 + ^ x22: .cfa -32 + ^ .ra: .cfa -40 + ^ x29: .cfa -48 + ^
STACK CFI 49acc .cfa: sp 176 +
STACK CFI 49adc .cfa: sp 0 +
STACK CFI 49ae0 .cfa: x29 48 +
STACK CFI INIT 49e18 640 .cfa: sp 0 +
STACK CFI 49e1c .cfa: sp 128 +
STACK CFI 49e38 .cfa: x29 96 + x19: .cfa -8 + ^ x20: .cfa -16 + ^ x21: .cfa -24 + ^ x22: .cfa -32 + ^ x23: .cfa -40 + ^ x24: .cfa -48 + ^ x25: .cfa -56 + ^ x26: .cfa -64 + ^ x27: .cfa -72 + ^ x28: .cfa -80 + ^ .ra: .cfa -88 + ^ x29: .cfa -96 + ^
STACK CFI 4a3f4 .cfa: sp 128 +
STACK CFI 4a410 .cfa: sp 0 +
STACK CFI 4a414 .cfa: x29 96 +
STACK CFI INIT 4a4a8 498 .cfa: sp 0 +
STACK CFI 4a4ac .cfa: sp 64 +
STACK CFI 4a4bc .cfa: x29 64 + x19: .cfa -8 + ^ x20: .cfa -16 + ^ x21: .cfa -24 + ^ x22: .cfa -32 + ^ x23: .cfa -40 + ^ x24: .cfa -48 + ^ .ra: .cfa -56 + ^ x29: .cfa -64 + ^
STACK CFI 4a914 .cfa: sp 64 +
STACK CFI 4a924 .cfa: sp 0 +
STACK CFI 4a928 .cfa: x29 64 +
STACK CFI INIT 4a968 254 .cfa: sp 0 +
STACK CFI 4a96c .cfa: sp 96 +
STACK CFI 4a984 .cfa: x29 80 + x19: .cfa -8 + ^ x20: .cfa -16 + ^ x21: .cfa -24 + ^ x22: .cfa -32 + ^ x23: .cfa -40 + ^ x24: .cfa -48 + ^ x25: .cfa -64 + ^ .ra: .cfa -72 + ^ x29: .cfa -80 + ^
STACK CFI 4ab98 .cfa: sp 96 +
STACK CFI 4abb0 .cfa: sp 0 +
STACK CFI 4abb4 .cfa: x29 80 +
STACK CFI INIT 4abbc 25fc .cfa: sp 0 +
STACK CFI 4abc0 .cfa: sp 96 +
STACK CFI 4abd8 .cfa: x29 96 + x19: .cfa -8 + ^ x20: .cfa -16 + ^ x21: .cfa -24 + ^ x22: .cfa -32 + ^ x23: .cfa -40 + ^ x24: .cfa -48 + ^ x25: .cfa -56 + ^ x26: .cfa -64 + ^ x27: .cfa -72 + ^ x28: .cfa -80 + ^ .ra: .cfa -88 + ^ x29: .cfa -96 + ^
STACK CFI 4cce4 .cfa: sp 96 +
STACK CFI 4ccfc .cfa: sp 0 +
STACK CFI 4cd00 .cfa: x29 96 +
STACK CFI INIT 4d1b8 890 .cfa: sp 0 +
STACK CFI 4d1bc .cfa: sp 272 +
STACK CFI 4d1d8 .cfa: x29 96 + x19: .cfa -8 + ^ x20: .cfa -16 + ^ x21: .cfa -24 + ^ x22: .cfa -32 + ^ x23: .cfa -40 + ^ x24: .cfa -48 + ^ x25: .cfa -56 + ^ x26: .cfa -64 + ^ x27: .cfa -72 + ^ x28: .cfa -80 + ^ .ra: .cfa -88 + ^ x29: .cfa -96 + ^
STACK CFI 4d308 .cfa: sp 272 +
STACK CFI 4d324 .cfa: sp 0 +
STACK CFI 4d328 .cfa: x29 96 +
STACK CFI 4d800 .cfa: sp 272 +
STACK CFI 4d81c .cfa: sp 0 +
STACK CFI 4d820 .cfa: x29 96 +
STACK CFI INIT 4da64 480 .cfa: sp 0 +
STACK CFI 4da68 .cfa: sp 224 +
STACK CFI 4da84 .cfa: x29 96 + x19: .cfa -8 + ^ x20: .cfa -16 + ^ x21: .cfa -24 + ^ x22: .cfa -32 + ^ x23: .cfa -40 + ^ x24: .cfa -48 + ^ x25: .cfa -56 + ^ x26: .cfa -64 + ^ x27: .cfa -80 + ^ .ra: .cfa -88 + ^ x29: .cfa -96 + ^
STACK CFI 4dcf0 .cfa: sp 224 +
STACK CFI 4dd0c .cfa: sp 0 +
STACK CFI 4dd10 .cfa: x29 96 +
STACK CFI 4dddc .cfa: sp 224 +
STACK CFI 4ddf8 .cfa: sp 0 +
STACK CFI 4ddfc .cfa: x29 96 +
STACK CFI INIT 4df00 480 .cfa: sp 0 +
STACK CFI 4df04 .cfa: sp 224 +
STACK CFI 4df20 .cfa: x29 96 + x19: .cfa -8 + ^ x20: .cfa -16 + ^ x21: .cfa -24 + ^ x22: .cfa -32 + ^ x23: .cfa -40 + ^ x24: .cfa -48 + ^ x25: .cfa -56 + ^ x26: .cfa -64 + ^ x27: .cfa -80 + ^ .ra: .cfa -88 + ^ x29: .cfa -96 + ^
STACK CFI 4e18c .cfa: sp 224 +
STACK CFI 4e1a8 .cfa: sp 0 +
STACK CFI 4e1ac .cfa: x29 96 +
STACK CFI 4e278 .cfa: sp 224 +
STACK CFI 4e294 .cfa: sp 0 +
STACK CFI 4e298 .cfa: x29 96 +
STACK CFI INIT 4e39c 480 .cfa: sp 0 +
STACK CFI 4e3a0 .cfa: sp 224 +
STACK CFI 4e3bc .cfa: x29 96 + x19: .cfa -8 + ^ x20: .cfa -16 + ^ x21: .cfa -24 + ^ x22: .cfa -32 + ^ x23: .cfa -40 + ^ x24: .cfa -48 + ^ x25: .cfa -56 + ^ x26: .cfa -64 + ^ x27: .cfa -80 + ^ .ra: .cfa -88 + ^ x29: .cfa -96 + ^
STACK CFI 4e628 .cfa: sp 224 +
STACK CFI 4e644 .cfa: sp 0 +
STACK CFI 4e648 .cfa: x29 96 +
STACK CFI 4e714 .cfa: sp 224 +
STACK CFI 4e730 .cfa: sp 0 +
STACK CFI 4e734 .cfa: x29 96 +
STACK CFI INIT 4e838 480 .cfa: sp 0 +
STACK CFI 4e83c .cfa: sp 224 +
STACK CFI 4e858 .cfa: x29 96 + x19: .cfa -8 + ^ x20: .cfa -16 + ^ x21: .cfa -24 + ^ x22: .cfa -32 + ^ x23: .cfa -40 + ^ x24: .cfa -48 + ^ x25: .cfa -56 + ^ x26: .cfa -64 + ^ x27: .cfa -80 + ^ .ra: .cfa -88 + ^ x29: .cfa -96 + ^
STACK CFI 4eac4 .cfa: sp 224 +
STACK CFI 4eae0 .cfa: sp 0 +
STACK CFI 4eae4 .cfa: x29 96 +
STACK CFI 4ebb0 .cfa: sp 224 +
STACK CFI 4ebcc .cfa: sp 0 +
STACK CFI 4ebd0 .cfa: x29 96 +
STACK CFI INIT 4ecd4 1c .cfa: sp 0 +
STACK CFI 4ecd8 .cfa: sp 16 +
STACK CFI 4ecdc .cfa: x29 16 + .ra: .cfa -8 + ^ x29: .cfa -16 + ^
STACK CFI 4ece4 .cfa: sp 16 +
STACK CFI 4ece8 .cfa: sp 0 +
STACK CFI 4ecec .cfa: x29 16 +
STACK CFI INIT 4ecf0 c4 .cfa: sp 0 +
STACK CFI 4ecf4 .cfa: sp 48 +
STACK CFI 4ed00 .cfa: x29 48 + x19: .cfa -8 + ^ x20: .cfa -16 + ^ x21: .cfa -32 + ^ .ra: .cfa -40 + ^ x29: .cfa -48 + ^
STACK CFI 4ed6c .cfa: sp 48 +
STACK CFI 4ed78 .cfa: sp 0 +
STACK CFI 4ed7c .cfa: x29 48 +
STACK CFI 4eda0 .cfa: sp 48 +
STACK CFI 4edac .cfa: sp 0 +
STACK CFI 4edb0 .cfa: x29 48 +
STACK CFI INIT 4edb4 84 .cfa: sp 0 +
STACK CFI 4edb8 .cfa: sp 48 +
STACK CFI 4edc4 .cfa: x29 48 + x19: .cfa -8 + ^ x20: .cfa -16 + ^ x21: .cfa -32 + ^ .ra: .cfa -40 + ^ x29: .cfa -48 + ^
STACK CFI 4ede4 .cfa: sp 48 +
STACK CFI 4edf0 .cfa: sp 0 +
STACK CFI 4edf4 .cfa: x29 48 +
STACK CFI 4ee14 .cfa: sp 48 +
STACK CFI 4ee20 .cfa: sp 0 +
STACK CFI 4ee24 .cfa: sp 48 +
STACK CFI 4ee30 .cfa: sp 0 +
STACK CFI 4ee34 .cfa: x29 48 +
STACK CFI INIT 4eea8 1b8 .cfa: sp 0 +
STACK CFI 4eeac .cfa: sp 96 +
STACK CFI 4eec0 .cfa: x29 40 + x19: .cfa -8 + ^ x20: .cfa -16 + ^ x21: .cfa -24 + ^ .ra: .cfa -32 + ^ x29: .cfa -40 + ^ v8: .cfa -48 + ^
STACK CFI 4efa4 .cfa: sp 96 +
STACK CFI 4efb8 .cfa: sp 0 +
STACK CFI 4efbc .cfa: x29 40 +
STACK CFI 4f014 .cfa: sp 96 +
STACK CFI 4f028 .cfa: sp 0 +
STACK CFI 4f02c .cfa: x29 40 +
STACK CFI INIT 4f0e4 1b8 .cfa: sp 0 +
STACK CFI 4f0e8 .cfa: sp 96 +
STACK CFI 4f0fc .cfa: x29 40 + x19: .cfa -8 + ^ x20: .cfa -16 + ^ x21: .cfa -24 + ^ .ra: .cfa -32 + ^ x29: .cfa -40 + ^ v8: .cfa -48 + ^
STACK CFI 4f1e0 .cfa: sp 96 +
STACK CFI 4f1f4 .cfa: sp 0 +
STACK CFI 4f1f8 .cfa: x29 40 +
STACK CFI 4f250 .cfa: sp 96 +
STACK CFI 4f264 .cfa: sp 0 +
STACK CFI 4f268 .cfa: x29 40 +
STACK CFI INIT 4f320 1b8 .cfa: sp 0 +
STACK CFI 4f324 .cfa: sp 96 +
STACK CFI 4f338 .cfa: x29 40 + x19: .cfa -8 + ^ x20: .cfa -16 + ^ x21: .cfa -24 + ^ .ra: .cfa -32 + ^ x29: .cfa -40 + ^ v8: .cfa -48 + ^
STACK CFI 4f41c .cfa: sp 96 +
STACK CFI 4f430 .cfa: sp 0 +
STACK CFI 4f434 .cfa: x29 40 +
STACK CFI 4f48c .cfa: sp 96 +
STACK CFI 4f4a0 .cfa: sp 0 +
STACK CFI 4f4a4 .cfa: x29 40 +
STACK CFI INIT 4f55c 1b8 .cfa: sp 0 +
STACK CFI 4f560 .cfa: sp 96 +
STACK CFI 4f574 .cfa: x29 40 + x19: .cfa -8 + ^ x20: .cfa -16 + ^ x21: .cfa -24 + ^ .ra: .cfa -32 + ^ x29: .cfa -40 + ^ v8: .cfa -48 + ^
STACK CFI 4f658 .cfa: sp 96 +
STACK CFI 4f66c .cfa: sp 0 +
STACK CFI 4f670 .cfa: x29 40 +
STACK CFI 4f6c8 .cfa: sp 96 +
STACK CFI 4f6dc .cfa: sp 0 +
STACK CFI 4f6e0 .cfa: x29 40 +
STACK CFI INIT 4f798 1b8 .cfa: sp 0 +
STACK CFI 4f79c .cfa: sp 96 +
STACK CFI 4f7b0 .cfa: x29 40 + x19: .cfa -8 + ^ x20: .cfa -16 + ^ x21: .cfa -24 + ^ .ra: .cfa -32 + ^ x29: .cfa -40 + ^ v8: .cfa -48 + ^
STACK CFI 4f894 .cfa: sp 96 +
STACK CFI 4f8a8 .cfa: sp 0 +
STACK CFI 4f8ac .cfa: x29 40 +
STACK CFI 4f904 .cfa: sp 96 +
STACK CFI 4f918 .cfa: sp 0 +
STACK CFI 4f91c .cfa: x29 40 +
STACK CFI INIT 4f9d4 224 .cfa: sp 0 +
STACK CFI 4f9d8 .cfa: sp 128 +
STACK CFI 4f9ec .cfa: x29 64 + x19: .cfa -8 + ^ x20: .cfa -16 + ^ x21: .cfa -24 + ^ x22: .cfa -32 + ^ x23: .cfa -40 + ^ x24: .cfa -48 + ^ .ra: .cfa -56 + ^ x29: .cfa -64 + ^
STACK CFI 4fb44 .cfa: sp 128 +
STACK CFI 4fb58 .cfa: sp 0 +
STACK CFI 4fb5c .cfa: x29 64 +
STACK CFI INIT 4fc7c 1f4 .cfa: sp 0 +
STACK CFI 4fc80 .cfa: sp 112 +
STACK CFI 4fc90 .cfa: x29 48 + x19: .cfa -8 + ^ x20: .cfa -16 + ^ x21: .cfa -32 + ^ .ra: .cfa -40 + ^ x29: .cfa -48 + ^
STACK CFI 4fdd0 .cfa: sp 112 +
STACK CFI 4fde0 .cfa: sp 0 +
STACK CFI 4fde4 .cfa: x29 48 +
STACK CFI INIT 4fef4 1a4 .cfa: sp 0 +
STACK CFI 4fef8 .cfa: sp 80 +
STACK CFI 4ff08 .cfa: x29 48 + x19: .cfa -8 + ^ x20: .cfa -16 + ^ x21: .cfa -24 + ^ x22: .cfa -32 + ^ .ra: .cfa -40 + ^ x29: .cfa -48 + ^
STACK CFI 4ffe8 .cfa: sp 80 +
STACK CFI 4fff8 .cfa: sp 0 +
STACK CFI 4fffc .cfa: x29 48 +
STACK CFI 50050 .cfa: sp 80 +
STACK CFI 50060 .cfa: sp 0 +
STACK CFI 50064 .cfa: x29 48 +
STACK CFI INIT 5016c 1a4 .cfa: sp 0 +
STACK CFI 50170 .cfa: sp 80 +
STACK CFI 50180 .cfa: x29 48 + x19: .cfa -8 + ^ x20: .cfa -16 + ^ x21: .cfa -24 + ^ x22: .cfa -32 + ^ .ra: .cfa -40 + ^ x29: .cfa -48 + ^
STACK CFI 50260 .cfa: sp 80 +
STACK CFI 50270 .cfa: sp 0 +
STACK CFI 50274 .cfa: x29 48 +
STACK CFI 502c8 .cfa: sp 80 +
STACK CFI 502d8 .cfa: sp 0 +
STACK CFI 502dc .cfa: x29 48 +
STACK CFI INIT 503e4 1ac .cfa: sp 0 +
STACK CFI 503e8 .cfa: sp 96 +
STACK CFI 503f8 .cfa: x29 48 + x19: .cfa -8 + ^ x20: .cfa -16 + ^ x21: .cfa -24 + ^ x22: .cfa -32 + ^ .ra: .cfa -40 + ^ x29: .cfa -48 + ^
STACK CFI 504dc .cfa: sp 96 +
STACK CFI 504ec .cfa: sp 0 +
STACK CFI 504f0 .cfa: x29 48 +
STACK CFI 50548 .cfa: sp 96 +
STACK CFI 50558 .cfa: sp 0 +
STACK CFI 5055c .cfa: x29 48 +
STACK CFI INIT 50614 1ac .cfa: sp 0 +
STACK CFI 50618 .cfa: sp 96 +
STACK CFI 50628 .cfa: x29 48 + x19: .cfa -8 + ^ x20: .cfa -16 + ^ x21: .cfa -24 + ^ x22: .cfa -32 + ^ .ra: .cfa -40 + ^ x29: .cfa -48 + ^
STACK CFI 5070c .cfa: sp 96 +
STACK CFI 5071c .cfa: sp 0 +
STACK CFI 50720 .cfa: x29 48 +
STACK CFI 50778 .cfa: sp 96 +
STACK CFI 50788 .cfa: sp 0 +
STACK CFI 5078c .cfa: x29 48 +
STACK CFI INIT 50844 1ac .cfa: sp 0 +
STACK CFI 50848 .cfa: sp 96 +
STACK CFI 50858 .cfa: x29 48 + x19: .cfa -8 + ^ x20: .cfa -16 + ^ x21: .cfa -24 + ^ x22: .cfa -32 + ^ .ra: .cfa -40 + ^ x29: .cfa -48 + ^
STACK CFI 5093c .cfa: sp 96 +
STACK CFI 5094c .cfa: sp 0 +
STACK CFI 50950 .cfa: x29 48 +
STACK CFI 509a8 .cfa: sp 96 +
STACK CFI 509b8 .cfa: sp 0 +
STACK CFI 509bc .cfa: x29 48 +
STACK CFI INIT 50a74 1ac .cfa: sp 0 +
STACK CFI 50a78 .cfa: sp 96 +
STACK CFI 50a88 .cfa: x29 48 + x19: .cfa -8 + ^ x20: .cfa -16 + ^ x21: .cfa -24 + ^ x22: .cfa -32 + ^ .ra: .cfa -40 + ^ x29: .cfa -48 + ^
STACK CFI 50b6c .cfa: sp 96 +
STACK CFI 50b7c .cfa: sp 0 +
STACK CFI 50b80 .cfa: x29 48 +
STACK CFI 50bd8 .cfa: sp 96 +
STACK CFI 50be8 .cfa: sp 0 +
STACK CFI 50bec .cfa: x29 48 +
STACK CFI INIT 50ca4 1ac .cfa: sp 0 +
STACK CFI 50ca8 .cfa: sp 96 +
STACK CFI 50cb8 .cfa: x29 48 + x19: .cfa -8 + ^ x20: .cfa -16 + ^ x21: .cfa -24 + ^ x22: .cfa -32 + ^ .ra: .cfa -40 + ^ x29: .cfa -48 + ^
STACK CFI 50d9c .cfa: sp 96 +
STACK CFI 50dac .cfa: sp 0 +
STACK CFI 50db0 .cfa: x29 48 +
STACK CFI 50e08 .cfa: sp 96 +
STACK CFI 50e18 .cfa: sp 0 +
STACK CFI 50e1c .cfa: x29 48 +
STACK CFI INIT 50ed4 1ac .cfa: sp 0 +
STACK CFI 50ed8 .cfa: sp 96 +
STACK CFI 50ee8 .cfa: x29 48 + x19: .cfa -8 + ^ x20: .cfa -16 + ^ x21: .cfa -24 + ^ x22: .cfa -32 + ^ .ra: .cfa -40 + ^ x29: .cfa -48 + ^
STACK CFI 50fcc .cfa: sp 96 +
STACK CFI 50fdc .cfa: sp 0 +
STACK CFI 50fe0 .cfa: x29 48 +
STACK CFI 51038 .cfa: sp 96 +
STACK CFI 51048 .cfa: sp 0 +
STACK CFI 5104c .cfa: x29 48 +
STACK CFI INIT 51104 1ac .cfa: sp 0 +
STACK CFI 51108 .cfa: sp 96 +
STACK CFI 51118 .cfa: x29 48 + x19: .cfa -8 + ^ x20: .cfa -16 + ^ x21: .cfa -24 + ^ x22: .cfa -32 + ^ .ra: .cfa -40 + ^ x29: .cfa -48 + ^
STACK CFI 511fc .cfa: sp 96 +
STACK CFI 5120c .cfa: sp 0 +
STACK CFI 51210 .cfa: x29 48 +
STACK CFI 51268 .cfa: sp 96 +
STACK CFI 51278 .cfa: sp 0 +
STACK CFI 5127c .cfa: x29 48 +
STACK CFI INIT 51334 1ac .cfa: sp 0 +
STACK CFI 51338 .cfa: sp 96 +
STACK CFI 51348 .cfa: x29 48 + x19: .cfa -8 + ^ x20: .cfa -16 + ^ x21: .cfa -24 + ^ x22: .cfa -32 + ^ .ra: .cfa -40 + ^ x29: .cfa -48 + ^
STACK CFI 5142c .cfa: sp 96 +
STACK CFI 5143c .cfa: sp 0 +
STACK CFI 51440 .cfa: x29 48 +
STACK CFI 51498 .cfa: sp 96 +
STACK CFI 514a8 .cfa: sp 0 +
STACK CFI 514ac .cfa: x29 48 +
STACK CFI INIT 51564 1ac .cfa: sp 0 +
STACK CFI 51568 .cfa: sp 96 +
STACK CFI 51578 .cfa: x29 48 + x19: .cfa -8 + ^ x20: .cfa -16 + ^ x21: .cfa -24 + ^ x22: .cfa -32 + ^ .ra: .cfa -40 + ^ x29: .cfa -48 + ^
STACK CFI 5165c .cfa: sp 96 +
STACK CFI 5166c .cfa: sp 0 +
STACK CFI 51670 .cfa: x29 48 +
STACK CFI 516c8 .cfa: sp 96 +
STACK CFI 516d8 .cfa: sp 0 +
STACK CFI 516dc .cfa: x29 48 +
STACK CFI INIT 51794 1ac .cfa: sp 0 +
STACK CFI 51798 .cfa: sp 96 +
STACK CFI 517a8 .cfa: x29 48 + x19: .cfa -8 + ^ x20: .cfa -16 + ^ x21: .cfa -24 + ^ x22: .cfa -32 + ^ .ra: .cfa -40 + ^ x29: .cfa -48 + ^
STACK CFI 5188c .cfa: sp 96 +
STACK CFI 5189c .cfa: sp 0 +
STACK CFI 518a0 .cfa: x29 48 +
STACK CFI 518f8 .cfa: sp 96 +
STACK CFI 51908 .cfa: sp 0 +
STACK CFI 5190c .cfa: x29 48 +
STACK CFI INIT 519c4 1ac .cfa: sp 0 +
STACK CFI 519c8 .cfa: sp 96 +
STACK CFI 519d8 .cfa: x29 48 + x19: .cfa -8 + ^ x20: .cfa -16 + ^ x21: .cfa -24 + ^ x22: .cfa -32 + ^ .ra: .cfa -40 + ^ x29: .cfa -48 + ^
STACK CFI 51abc .cfa: sp 96 +
STACK CFI 51acc .cfa: sp 0 +
STACK CFI 51ad0 .cfa: x29 48 +
STACK CFI 51b28 .cfa: sp 96 +
STACK CFI 51b38 .cfa: sp 0 +
STACK CFI 51b3c .cfa: x29 48 +
STACK CFI INIT 51bf4 1ac .cfa: sp 0 +
STACK CFI 51bf8 .cfa: sp 96 +
STACK CFI 51c08 .cfa: x29 48 + x19: .cfa -8 + ^ x20: .cfa -16 + ^ x21: .cfa -24 + ^ x22: .cfa -32 + ^ .ra: .cfa -40 + ^ x29: .cfa -48 + ^
STACK CFI 51cec .cfa: sp 96 +
STACK CFI 51cfc .cfa: sp 0 +
STACK CFI 51d00 .cfa: x29 48 +
STACK CFI 51d58 .cfa: sp 96 +
STACK CFI 51d68 .cfa: sp 0 +
STACK CFI 51d6c .cfa: x29 48 +
STACK CFI INIT 51e24 1ac .cfa: sp 0 +
STACK CFI 51e28 .cfa: sp 96 +
STACK CFI 51e38 .cfa: x29 48 + x19: .cfa -8 + ^ x20: .cfa -16 + ^ x21: .cfa -24 + ^ x22: .cfa -32 + ^ .ra: .cfa -40 + ^ x29: .cfa -48 + ^
STACK CFI 51f1c .cfa: sp 96 +
STACK CFI 51f2c .cfa: sp 0 +
STACK CFI 51f30 .cfa: x29 48 +
STACK CFI 51f88 .cfa: sp 96 +
STACK CFI 51f98 .cfa: sp 0 +
STACK CFI 51f9c .cfa: x29 48 +
STACK CFI INIT 52054 1e8 .cfa: sp 0 +
STACK CFI 52058 .cfa: sp 112 +
STACK CFI 52068 .cfa: x29 48 + x19: .cfa -8 + ^ x20: .cfa -16 + ^ x21: .cfa -24 + ^ x22: .cfa -32 + ^ .ra: .cfa -40 + ^ x29: .cfa -48 + ^
STACK CFI 521dc .cfa: sp 112 +
STACK CFI 521ec .cfa: sp 0 +
STACK CFI 521f0 .cfa: x29 48 +
STACK CFI INIT 52264 94 .cfa: sp 0 +
STACK CFI 52268 .cfa: sp 48 +
STACK CFI 52274 .cfa: x29 48 + x19: .cfa -8 + ^ x20: .cfa -16 + ^ x21: .cfa -24 + ^ x22: .cfa -32 + ^ .ra: .cfa -40 + ^ x29: .cfa -48 + ^
STACK CFI 5227c .cfa: sp 48 +
STACK CFI 52288 .cfa: sp 0 +
STACK CFI 5228c .cfa: x29 48 +
STACK CFI 522b0 .cfa: sp 48 +
STACK CFI 522bc .cfa: sp 0 +
STACK CFI 522c0 .cfa: x29 48 +
STACK CFI 522e4 .cfa: sp 48 +
STACK CFI 522f0 .cfa: sp 0 +
STACK CFI 522f4 .cfa: x29 48 +
STACK CFI INIT 522f8 48 .cfa: sp 0 +
STACK CFI 522fc .cfa: sp 32 +
STACK CFI 52304 .cfa: x29 32 + x19: .cfa -8 + ^ x20: .cfa -16 + ^ .ra: .cfa -24 + ^ x29: .cfa -32 + ^
STACK CFI 5230c .cfa: sp 32 +
STACK CFI 52314 .cfa: sp 0 +
STACK CFI 52318 .cfa: x29 32 +
STACK CFI INIT 52384 410 .cfa: sp 0 +
STACK CFI 52388 .cfa: sp 128 +
STACK CFI 523a0 .cfa: x29 80 + x19: .cfa -8 + ^ x20: .cfa -16 + ^ x21: .cfa -24 + ^ x22: .cfa -32 + ^ x23: .cfa -40 + ^ x24: .cfa -48 + ^ x25: .cfa -56 + ^ x26: .cfa -64 + ^ .ra: .cfa -72 + ^ x29: .cfa -80 + ^
STACK CFI 5271c .cfa: sp 128 +
STACK CFI 52734 .cfa: sp 0 +
STACK CFI 52738 .cfa: x29 80 +
STACK CFI INIT 527bc 1c .cfa: sp 0 +
STACK CFI 527c0 .cfa: sp 16 +
STACK CFI 527c4 .cfa: x29 16 + .ra: .cfa -8 + ^ x29: .cfa -16 + ^
STACK CFI 527cc .cfa: sp 16 +
STACK CFI 527d0 .cfa: sp 0 +
STACK CFI 527d4 .cfa: x29 16 +
STACK CFI INIT 527dc 174 .cfa: sp 0 +
STACK CFI 527e0 .cfa: sp 112 +
STACK CFI 527f0 .cfa: x29 48 + x19: .cfa -8 + ^ x20: .cfa -16 + ^ x21: .cfa -32 + ^ .ra: .cfa -40 + ^ x29: .cfa -48 + ^
STACK CFI 528ec .cfa: sp 112 +
STACK CFI 528fc .cfa: sp 0 +
STACK CFI 52900 .cfa: x29 48 +
STACK CFI INIT 52a30 308 .cfa: sp 0 +
STACK CFI 52a34 .cfa: sp 176 +
STACK CFI 52a48 .cfa: x29 64 + x19: .cfa -8 + ^ x20: .cfa -16 + ^ x21: .cfa -24 + ^ x22: .cfa -32 + ^ x23: .cfa -48 + ^ .ra: .cfa -56 + ^ x29: .cfa -64 + ^
STACK CFI 52c30 .cfa: sp 176 +
STACK CFI 52c44 .cfa: sp 0 +
STACK CFI 52c48 .cfa: x29 64 +
STACK CFI INIT 52d3c 14c .cfa: sp 0 +
STACK CFI 52d40 .cfa: sp 80 +
STACK CFI 52d4c .cfa: x29 32 + x19: .cfa -8 + ^ x20: .cfa -16 + ^ .ra: .cfa -24 + ^ x29: .cfa -32 + ^
STACK CFI 52df8 .cfa: sp 80 +
STACK CFI 52e04 .cfa: sp 0 +
STACK CFI 52e08 .cfa: x29 32 +
STACK CFI INIT 52e88 110 .cfa: sp 0 +
STACK CFI 52e8c .cfa: sp 96 +
STACK CFI 52ea0 .cfa: x29 64 + x19: .cfa -8 + ^ x20: .cfa -16 + ^ x21: .cfa -24 + ^ x22: .cfa -32 + ^ x23: .cfa -40 + ^ x24: .cfa -48 + ^ .ra: .cfa -56 + ^ x29: .cfa -64 + ^
STACK CFI 52ee8 .cfa: sp 96 +
STACK CFI 52efc .cfa: sp 0 +
STACK CFI 52f00 .cfa: x29 64 +
STACK CFI INIT 53024 4d8 .cfa: sp 0 +
STACK CFI 53028 .cfa: sp 96 +
STACK CFI 53040 .cfa: x29 96 + x19: .cfa -8 + ^ x20: .cfa -16 + ^ x21: .cfa -24 + ^ x22: .cfa -32 + ^ x23: .cfa -40 + ^ x24: .cfa -48 + ^ x25: .cfa -56 + ^ x26: .cfa -64 + ^ x27: .cfa -72 + ^ x28: .cfa -80 + ^ .ra: .cfa -88 + ^ x29: .cfa -96 + ^
STACK CFI 53424 .cfa: sp 96 +
STACK CFI 5343c .cfa: sp 0 +
STACK CFI 53440 .cfa: x29 96 +
STACK CFI INIT 534fc a8 .cfa: sp 0 +
STACK CFI 53500 .cfa: sp 32 +
STACK CFI 53508 .cfa: x29 32 + x19: .cfa -16 + ^ .ra: .cfa -24 + ^ x29: .cfa -32 + ^
STACK CFI 5353c .cfa: sp 32 +
STACK CFI 53544 .cfa: sp 0 +
STACK CFI 53548 .cfa: x29 32 +
STACK CFI 5354c .cfa: sp 32 +
STACK CFI 53554 .cfa: sp 0 +
STACK CFI 53558 .cfa: x29 32 +
STACK CFI INIT 5367c ec .cfa: sp 0 +
STACK CFI 53680 .cfa: sp 80 +
STACK CFI 53690 .cfa: x29 48 + x19: .cfa -8 + ^ x20: .cfa -16 + ^ x21: .cfa -32 + ^ .ra: .cfa -40 + ^ x29: .cfa -48 + ^
STACK CFI 53724 .cfa: sp 80 +
STACK CFI 53734 .cfa: sp 0 +
STACK CFI 53738 .cfa: x29 48 +
STACK CFI INIT 53a1c 36c .cfa: sp 0 +
STACK CFI 53a20 .cfa: sp 208 +
STACK CFI 53a34 .cfa: x29 64 + x19: .cfa -8 + ^ x20: .cfa -16 + ^ x21: .cfa -24 + ^ x22: .cfa -32 + ^ x23: .cfa -48 + ^ .ra: .cfa -56 + ^ x29: .cfa -64 + ^
STACK CFI 53c64 .cfa: sp 208 +
STACK CFI 53c78 .cfa: sp 0 +
STACK CFI 53c7c .cfa: x29 64 +
STACK CFI INIT 53e20 314 .cfa: sp 0 +
STACK CFI 53e24 .cfa: sp 192 +
STACK CFI 53e38 .cfa: x29 64 + x19: .cfa -8 + ^ x20: .cfa -16 + ^ x21: .cfa -24 + ^ x22: .cfa -32 + ^ x23: .cfa -48 + ^ .ra: .cfa -56 + ^ x29: .cfa -64 + ^
STACK CFI 5402c .cfa: sp 192 +
STACK CFI 54040 .cfa: sp 0 +
STACK CFI 54044 .cfa: x29 64 +
STACK CFI INIT 54190 a8 .cfa: sp 0 +
STACK CFI 54194 .cfa: sp 32 +
STACK CFI 5419c .cfa: x29 32 + x19: .cfa -16 + ^ .ra: .cfa -24 + ^ x29: .cfa -32 + ^
STACK CFI 541d0 .cfa: sp 32 +
STACK CFI 541d8 .cfa: sp 0 +
STACK CFI 541dc .cfa: x29 32 +
STACK CFI 541e0 .cfa: sp 32 +
STACK CFI 541e8 .cfa: sp 0 +
STACK CFI 541ec .cfa: x29 32 +
STACK CFI INIT 5430c 360 .cfa: sp 0 +
STACK CFI 54310 .cfa: sp 208 +
STACK CFI 54324 .cfa: x29 64 + x19: .cfa -8 + ^ x20: .cfa -16 + ^ x21: .cfa -24 + ^ x22: .cfa -32 + ^ x23: .cfa -40 + ^ x24: .cfa -48 + ^ .ra: .cfa -56 + ^ x29: .cfa -64 + ^
STACK CFI 54548 .cfa: sp 208 +
STACK CFI 5455c .cfa: sp 0 +
STACK CFI 54560 .cfa: x29 64 +
STACK CFI INIT 54704 3b0 .cfa: sp 0 +
STACK CFI 54708 .cfa: sp 224 +
STACK CFI 5471c .cfa: x29 64 + x19: .cfa -8 + ^ x20: .cfa -16 + ^ x21: .cfa -24 + ^ x22: .cfa -32 + ^ x23: .cfa -48 + ^ .ra: .cfa -56 + ^ x29: .cfa -64 + ^
STACK CFI 54984 .cfa: sp 224 +
STACK CFI 54998 .cfa: sp 0 +
STACK CFI 5499c .cfa: x29 64 +
STACK CFI INIT 54b4c 12c .cfa: sp 0 +
STACK CFI 54b50 .cfa: sp 80 +
STACK CFI 54b60 .cfa: x29 48 + x19: .cfa -8 + ^ x20: .cfa -16 + ^ x21: .cfa -32 + ^ .ra: .cfa -40 + ^ x29: .cfa -48 + ^
STACK CFI 54bf8 .cfa: sp 80 +
STACK CFI 54c08 .cfa: sp 0 +
STACK CFI 54c0c .cfa: x29 48 +
STACK CFI INIT 54d00 134 .cfa: sp 0 +
STACK CFI 54d04 .cfa: sp 80 +
STACK CFI 54d10 .cfa: x29 32 + x19: .cfa -8 + ^ x20: .cfa -16 + ^ .ra: .cfa -24 + ^ x29: .cfa -32 + ^
STACK CFI 54d40 .cfa: sp 80 +
STACK CFI 54d4c .cfa: sp 0 +
STACK CFI 54d50 .cfa: x29 32 +
STACK CFI INIT 54e34 78 .cfa: sp 0 +
STACK CFI 54e38 .cfa: sp 32 +
STACK CFI 54e40 .cfa: x29 32 + x19: .cfa -8 + ^ x20: .cfa -16 + ^ .ra: .cfa -24 + ^ x29: .cfa -32 + ^
STACK CFI 54e4c .cfa: sp 32 +
STACK CFI 54e54 .cfa: sp 0 +
STACK CFI 54e58 .cfa: x29 32 +
STACK CFI INIT 54eac 74 .cfa: sp 0 +
STACK CFI 54eb0 .cfa: sp 48 +
STACK CFI 54ebc .cfa: x29 32 + x19: .cfa -8 + ^ x20: .cfa -16 + ^ .ra: .cfa -24 + ^ x29: .cfa -32 + ^
STACK CFI 54f08 .cfa: sp 48 +
STACK CFI 54f14 .cfa: sp 0 +
STACK CFI 54f18 .cfa: x29 32 +
STACK CFI INIT 54f84 224 .cfa: sp 0 +
STACK CFI 54f88 .cfa: sp 128 +
STACK CFI 54f98 .cfa: x29 48 + x19: .cfa -8 + ^ x20: .cfa -16 + ^ x21: .cfa -32 + ^ .ra: .cfa -40 + ^ x29: .cfa -48 + ^
STACK CFI 55048 .cfa: sp 128 +
STACK CFI 55058 .cfa: sp 0 +
STACK CFI 5505c .cfa: x29 48 +
STACK CFI INIT 551cc 25c .cfa: sp 0 +
STACK CFI 551d0 .cfa: sp 128 +
STACK CFI 551e0 .cfa: x29 48 + x19: .cfa -8 + ^ x20: .cfa -16 + ^ x21: .cfa -32 + ^ .ra: .cfa -40 + ^ x29: .cfa -48 + ^
STACK CFI 552c8 .cfa: sp 128 +
STACK CFI 552d8 .cfa: sp 0 +
STACK CFI 552dc .cfa: x29 48 +
STACK CFI INIT 55470 2e0 .cfa: sp 0 +
STACK CFI 55474 .cfa: sp 144 +
STACK CFI 55488 .cfa: x29 64 + x19: .cfa -8 + ^ x20: .cfa -16 + ^ x21: .cfa -24 + ^ x22: .cfa -32 + ^ x23: .cfa -48 + ^ .ra: .cfa -56 + ^ x29: .cfa -64 + ^
STACK CFI 555fc .cfa: sp 144 +
STACK CFI 55610 .cfa: sp 0 +
STACK CFI 55614 .cfa: x29 64 +
STACK CFI INIT 557c8 1b8 .cfa: sp 0 +
STACK CFI 557cc .cfa: sp 160 +
STACK CFI 557e8 .cfa: x29 72 + x19: .cfa -8 + ^ x20: .cfa -16 + ^ x21: .cfa -24 + ^ x22: .cfa -32 + ^ x23: .cfa -40 + ^ x24: .cfa -48 + ^ x25: .cfa -56 + ^ .ra: .cfa -64 + ^ x29: .cfa -72 + ^ v8: .cfa -80 + ^
STACK CFI 5586c .cfa: sp 160 +
STACK CFI 55888 .cfa: sp 0 +
STACK CFI 5588c .cfa: x29 72 +
STACK CFI INIT 55980 4e4 .cfa: sp 0 +
STACK CFI 55984 .cfa: sp 96 +
STACK CFI 5599c .cfa: x29 80 + x19: .cfa -8 + ^ x20: .cfa -16 + ^ x21: .cfa -24 + ^ x22: .cfa -32 + ^ x23: .cfa -40 + ^ x24: .cfa -48 + ^ x25: .cfa -64 + ^ .ra: .cfa -72 + ^ x29: .cfa -80 + ^
STACK CFI 55de0 .cfa: sp 96 +
STACK CFI 55df8 .cfa: sp 0 +
STACK CFI 55dfc .cfa: x29 80 +
STACK CFI INIT 55e64 2b8 .cfa: sp 0 +
STACK CFI 55e68 .cfa: sp 144 +
STACK CFI 55e7c .cfa: x29 64 + x19: .cfa -8 + ^ x20: .cfa -16 + ^ x21: .cfa -24 + ^ x22: .cfa -32 + ^ x23: .cfa -48 + ^ .ra: .cfa -56 + ^ x29: .cfa -64 + ^
STACK CFI 55fc8 .cfa: sp 144 +
STACK CFI 55fdc .cfa: sp 0 +
STACK CFI 55fe0 .cfa: x29 64 +
STACK CFI INIT 5611c 1a0 .cfa: sp 0 +
STACK CFI 56120 .cfa: sp 160 +
STACK CFI 56138 .cfa: x29 48 + x19: .cfa -8 + ^ x20: .cfa -16 + ^ x21: .cfa -24 + ^ x22: .cfa -32 + ^ .ra: .cfa -40 + ^ x29: .cfa -48 + ^ v8: .cfa -56 + ^ v9: .cfa -64 + ^ v10: .cfa -80 + ^
STACK CFI 561ac .cfa: sp 160 +
STACK CFI 561c4 .cfa: sp 0 +
STACK CFI 561c8 .cfa: x29 48 +
STACK CFI INIT 562bc 3b8 .cfa: sp 0 +
STACK CFI 562c0 .cfa: sp 80 +
STACK CFI 562d4 .cfa: x29 80 + x19: .cfa -8 + ^ x20: .cfa -16 + ^ x21: .cfa -24 + ^ x22: .cfa -32 + ^ x23: .cfa -40 + ^ x24: .cfa -48 + ^ x25: .cfa -64 + ^ .ra: .cfa -72 + ^ x29: .cfa -80 + ^
STACK CFI 56604 .cfa: sp 80 +
STACK CFI 56618 .cfa: sp 0 +
STACK CFI 5661c .cfa: x29 80 +
STACK CFI INIT 56674 83c .cfa: sp 0 +
STACK CFI 56678 .cfa: sp 144 +
STACK CFI 5668c .cfa: x29 64 + x19: .cfa -8 + ^ x20: .cfa -16 + ^ x21: .cfa -24 + ^ x22: .cfa -32 + ^ x23: .cfa -48 + ^ .ra: .cfa -56 + ^ x29: .cfa -64 + ^
STACK CFI 56ce8 .cfa: sp 144 +
STACK CFI 56cfc .cfa: sp 0 +
STACK CFI 56d00 .cfa: x29 64 +
STACK CFI INIT 56eb0 7b0 .cfa: sp 0 +
STACK CFI 56eb4 .cfa: sp 80 +
STACK CFI 56ec8 .cfa: x29 80 + x19: .cfa -8 + ^ x20: .cfa -16 + ^ x21: .cfa -24 + ^ x22: .cfa -32 + ^ x23: .cfa -40 + ^ x24: .cfa -48 + ^ x25: .cfa -56 + ^ x26: .cfa -64 + ^ .ra: .cfa -72 + ^ x29: .cfa -80 + ^
STACK CFI 572e4 .cfa: sp 80 +
STACK CFI 572f8 .cfa: sp 0 +
STACK CFI 572fc .cfa: x29 80 +
STACK CFI INIT 576b4 16c .cfa: sp 0 +
STACK CFI 576b8 .cfa: sp 160 +
STACK CFI 576d0 .cfa: x29 80 + x19: .cfa -8 + ^ x20: .cfa -16 + ^ x21: .cfa -24 + ^ x22: .cfa -32 + ^ x23: .cfa -40 + ^ x24: .cfa -48 + ^ x25: .cfa -56 + ^ x26: .cfa -64 + ^ .ra: .cfa -72 + ^ x29: .cfa -80 + ^
STACK CFI 57738 .cfa: sp 160 +
STACK CFI 57750 .cfa: sp 0 +
STACK CFI 57754 .cfa: x29 80 +
STACK CFI INIT 57820 4ac .cfa: sp 0 +
STACK CFI 57824 .cfa: sp 128 +
STACK CFI 5783c .cfa: x29 80 + x19: .cfa -8 + ^ x20: .cfa -16 + ^ x21: .cfa -24 + ^ x22: .cfa -32 + ^ x23: .cfa -40 + ^ x24: .cfa -48 + ^ x25: .cfa -64 + ^ .ra: .cfa -72 + ^ x29: .cfa -80 + ^
STACK CFI 57c48 .cfa: sp 128 +
STACK CFI 57c60 .cfa: sp 0 +
STACK CFI 57c64 .cfa: x29 80 +
STACK CFI INIT 57cd4 17c .cfa: sp 0 +
STACK CFI 57cd8 .cfa: sp 176 +
STACK CFI 57cf4 .cfa: x29 80 + x19: .cfa -8 + ^ x20: .cfa -16 + ^ x21: .cfa -24 + ^ x22: .cfa -32 + ^ x23: .cfa -40 + ^ x24: .cfa -48 + ^ x25: .cfa -56 + ^ x26: .cfa -64 + ^ .ra: .cfa -72 + ^ x29: .cfa -80 + ^ v8: .cfa -96 + ^
STACK CFI 57d64 .cfa: sp 176 +
STACK CFI 57d80 .cfa: sp 0 +
STACK CFI 57d84 .cfa: x29 80 +
STACK CFI INIT 57e50 5ac .cfa: sp 0 +
STACK CFI 57e54 .cfa: sp 128 +
STACK CFI 57e6c .cfa: x29 80 + x19: .cfa -8 + ^ x20: .cfa -16 + ^ x21: .cfa -24 + ^ x22: .cfa -32 + ^ x23: .cfa -40 + ^ x24: .cfa -48 + ^ x25: .cfa -64 + ^ .ra: .cfa -72 + ^ x29: .cfa -80 + ^
STACK CFI 58368 .cfa: sp 128 +
STACK CFI 58380 .cfa: sp 0 +
STACK CFI 58384 .cfa: x29 80 +
STACK CFI INIT 58404 15c .cfa: sp 0 +
STACK CFI 58408 .cfa: sp 144 +
STACK CFI 58420 .cfa: x29 56 + x19: .cfa -8 + ^ x20: .cfa -16 + ^ x21: .cfa -24 + ^ x22: .cfa -32 + ^ x23: .cfa -40 + ^ .ra: .cfa -48 + ^ x29: .cfa -56 + ^ v8: .cfa -64 + ^
STACK CFI 58478 .cfa: sp 144 +
STACK CFI 58490 .cfa: sp 0 +
STACK CFI 58494 .cfa: x29 56 +
STACK CFI INIT 58560 2d4 .cfa: sp 0 +
STACK CFI 58564 .cfa: sp 96 +
STACK CFI 5857c .cfa: x29 80 + x19: .cfa -8 + ^ x20: .cfa -16 + ^ x21: .cfa -24 + ^ x22: .cfa -32 + ^ x23: .cfa -40 + ^ x24: .cfa -48 + ^ x25: .cfa -64 + ^ .ra: .cfa -72 + ^ x29: .cfa -80 + ^
STACK CFI 587d0 .cfa: sp 96 +
STACK CFI 587e8 .cfa: sp 0 +
STACK CFI 587ec .cfa: x29 80 +
STACK CFI INIT 5883c 14c .cfa: sp 0 +
STACK CFI 58840 .cfa: sp 144 +
STACK CFI 58854 .cfa: x29 64 + x19: .cfa -8 + ^ x20: .cfa -16 + ^ x21: .cfa -24 + ^ x22: .cfa -32 + ^ x23: .cfa -48 + ^ .ra: .cfa -56 + ^ x29: .cfa -64 + ^
STACK CFI 588a4 .cfa: sp 144 +
STACK CFI 588b8 .cfa: sp 0 +
STACK CFI 588bc .cfa: x29 64 +
STACK CFI INIT 58988 108 .cfa: sp 0 +
STACK CFI 5898c .cfa: sp 64 +
STACK CFI 5899c .cfa: x29 48 + x19: .cfa -8 + ^ x20: .cfa -16 + ^ x21: .cfa -24 + ^ x22: .cfa -32 + ^ .ra: .cfa -40 + ^ x29: .cfa -48 + ^
STACK CFI 58a48 .cfa: sp 64 +
STACK CFI 58a58 .cfa: sp 0 +
STACK CFI 58a5c .cfa: x29 48 +
STACK CFI INIT 58aa8 164 .cfa: sp 0 +
STACK CFI 58aac .cfa: sp 160 +
STACK CFI 58ac4 .cfa: x29 80 + x19: .cfa -8 + ^ x20: .cfa -16 + ^ x21: .cfa -24 + ^ x22: .cfa -32 + ^ x23: .cfa -40 + ^ x24: .cfa -48 + ^ x25: .cfa -64 + ^ .ra: .cfa -72 + ^ x29: .cfa -80 + ^
STACK CFI 58b24 .cfa: sp 160 +
STACK CFI 58b3c .cfa: sp 0 +
STACK CFI 58b40 .cfa: x29 80 +
STACK CFI INIT 58c0c 3d4 .cfa: sp 0 +
STACK CFI 58c10 .cfa: sp 96 +
STACK CFI 58c28 .cfa: x29 80 + x19: .cfa -8 + ^ x20: .cfa -16 + ^ x21: .cfa -24 + ^ x22: .cfa -32 + ^ x23: .cfa -40 + ^ x24: .cfa -48 + ^ x25: .cfa -64 + ^ .ra: .cfa -72 + ^ x29: .cfa -80 + ^
STACK CFI 58f6c .cfa: sp 96 +
STACK CFI 58f84 .cfa: sp 0 +
STACK CFI 58f88 .cfa: x29 80 +
STACK CFI INIT 58fe0 17c .cfa: sp 0 +
STACK CFI 58fe4 .cfa: sp 176 +
STACK CFI 59000 .cfa: x29 96 + x19: .cfa -8 + ^ x20: .cfa -16 + ^ x21: .cfa -24 + ^ x22: .cfa -32 + ^ x23: .cfa -40 + ^ x24: .cfa -48 + ^ x25: .cfa -56 + ^ x26: .cfa -64 + ^ x27: .cfa -80 + ^ .ra: .cfa -88 + ^ x29: .cfa -96 + ^
STACK CFI 59070 .cfa: sp 176 +
STACK CFI 5908c .cfa: sp 0 +
STACK CFI 59090 .cfa: x29 96 +
STACK CFI INIT 5915c 5d4 .cfa: sp 0 +
STACK CFI 59160 .cfa: sp 96 +
STACK CFI 59178 .cfa: x29 80 + x19: .cfa -8 + ^ x20: .cfa -16 + ^ x21: .cfa -24 + ^ x22: .cfa -32 + ^ x23: .cfa -40 + ^ x24: .cfa -48 + ^ x25: .cfa -64 + ^ .ra: .cfa -72 + ^ x29: .cfa -80 + ^
STACK CFI 5969c .cfa: sp 96 +
STACK CFI 596b4 .cfa: sp 0 +
STACK CFI 596b8 .cfa: x29 80 +
STACK CFI INIT 59730 14c .cfa: sp 0 +
STACK CFI 59734 .cfa: sp 144 +
STACK CFI 59748 .cfa: x29 64 + x19: .cfa -8 + ^ x20: .cfa -16 + ^ x21: .cfa -24 + ^ x22: .cfa -32 + ^ x23: .cfa -48 + ^ .ra: .cfa -56 + ^ x29: .cfa -64 + ^
STACK CFI 59798 .cfa: sp 144 +
STACK CFI 597ac .cfa: sp 0 +
STACK CFI 597b0 .cfa: x29 64 +
STACK CFI INIT 5987c 108 .cfa: sp 0 +
STACK CFI 59880 .cfa: sp 64 +
STACK CFI 59890 .cfa: x29 48 + x19: .cfa -8 + ^ x20: .cfa -16 + ^ x21: .cfa -24 + ^ x22: .cfa -32 + ^ .ra: .cfa -40 + ^ x29: .cfa -48 + ^
STACK CFI 5993c .cfa: sp 64 +
STACK CFI 5994c .cfa: sp 0 +
STACK CFI 59950 .cfa: x29 48 +
STACK CFI INIT 59984 37c .cfa: sp 0 +
STACK CFI 59988 .cfa: sp 144 +
STACK CFI 5999c .cfa: x29 64 + x19: .cfa -8 + ^ x20: .cfa -16 + ^ x21: .cfa -24 + ^ x22: .cfa -32 + ^ x23: .cfa -48 + ^ .ra: .cfa -56 + ^ x29: .cfa -64 + ^
STACK CFI 59bac .cfa: sp 144 +
STACK CFI 59bc0 .cfa: sp 0 +
STACK CFI 59bc4 .cfa: x29 64 +
STACK CFI INIT 59d54 14c .cfa: sp 0 +
STACK CFI 59d58 .cfa: sp 144 +
STACK CFI 59d6c .cfa: x29 64 + x19: .cfa -8 + ^ x20: .cfa -16 + ^ x21: .cfa -24 + ^ x22: .cfa -32 + ^ x23: .cfa -48 + ^ .ra: .cfa -56 + ^ x29: .cfa -64 + ^
STACK CFI 59dbc .cfa: sp 144 +
STACK CFI 59dd0 .cfa: sp 0 +
STACK CFI 59dd4 .cfa: x29 64 +
STACK CFI INIT 59ea0 108 .cfa: sp 0 +
STACK CFI 59ea4 .cfa: sp 64 +
STACK CFI 59eb4 .cfa: x29 48 + x19: .cfa -8 + ^ x20: .cfa -16 + ^ x21: .cfa -24 + ^ x22: .cfa -32 + ^ .ra: .cfa -40 + ^ x29: .cfa -48 + ^
STACK CFI 59f60 .cfa: sp 64 +
STACK CFI 59f70 .cfa: sp 0 +
STACK CFI 59f74 .cfa: x29 48 +
STACK CFI INIT 59fd0 2a0 .cfa: sp 0 +
STACK CFI 59fd4 .cfa: sp 144 +
STACK CFI 59fe8 .cfa: x29 64 + x19: .cfa -8 + ^ x20: .cfa -16 + ^ x21: .cfa -24 + ^ x22: .cfa -32 + ^ x23: .cfa -48 + ^ .ra: .cfa -56 + ^ x29: .cfa -64 + ^
STACK CFI 5a11c .cfa: sp 144 +
STACK CFI 5a130 .cfa: sp 0 +
STACK CFI 5a134 .cfa: x29 64 +
STACK CFI INIT 5a270 2f0 .cfa: sp 0 +
STACK CFI 5a274 .cfa: sp 144 +
STACK CFI 5a288 .cfa: x29 64 + x19: .cfa -8 + ^ x20: .cfa -16 + ^ x21: .cfa -24 + ^ x22: .cfa -32 + ^ x23: .cfa -48 + ^ .ra: .cfa -56 + ^ x29: .cfa -64 + ^
STACK CFI 5a40c .cfa: sp 144 +
STACK CFI 5a420 .cfa: sp 0 +
STACK CFI 5a424 .cfa: x29 64 +
STACK CFI INIT 5a560 4f4 .cfa: sp 0 +
STACK CFI 5a564 .cfa: sp 144 +
STACK CFI 5a578 .cfa: x29 64 + x19: .cfa -8 + ^ x20: .cfa -16 + ^ x21: .cfa -24 + ^ x22: .cfa -32 + ^ x23: .cfa -48 + ^ .ra: .cfa -56 + ^ x29: .cfa -64 + ^
STACK CFI 5a8ac .cfa: sp 144 +
STACK CFI 5a8c0 .cfa: sp 0 +
STACK CFI 5a8c4 .cfa: x29 64 +
STACK CFI INIT 5aa54 154 .cfa: sp 0 +
STACK CFI 5aa58 .cfa: sp 384 +
STACK CFI 5aa6c .cfa: x29 64 + x19: .cfa -8 + ^ x20: .cfa -16 + ^ x21: .cfa -24 + ^ x22: .cfa -32 + ^ x23: .cfa -40 + ^ x28: .cfa -48 + ^ .ra: .cfa -56 + ^ x29: .cfa -64 + ^
STACK CFI 5ab50 .cfa: sp 384 +
STACK CFI 5ab64 .cfa: sp 0 +
STACK CFI 5ab68 .cfa: x29 64 +
STACK CFI INIT 5abc0 50c .cfa: sp 0 +
STACK CFI 5abc4 .cfa: sp 64 +
STACK CFI 5abd4 .cfa: x29 64 + x19: .cfa -8 + ^ x20: .cfa -16 + ^ x21: .cfa -24 + ^ x22: .cfa -32 + ^ x23: .cfa -40 + ^ x24: .cfa -48 + ^ .ra: .cfa -56 + ^ x29: .cfa -64 + ^
STACK CFI 5acf4 .cfa: sp 64 +
STACK CFI 5ad04 .cfa: sp 0 +
STACK CFI 5ad08 .cfa: x29 64 +
STACK CFI 5b0a0 .cfa: sp 64 +
STACK CFI 5b0b0 .cfa: sp 0 +
STACK CFI 5b0b4 .cfa: x29 64 +
STACK CFI INIT 5b3fc 294 .cfa: sp 0 +
STACK CFI 5b400 .cfa: sp 240 +
STACK CFI 5b418 .cfa: x29 80 + x19: .cfa -8 + ^ x20: .cfa -16 + ^ x21: .cfa -24 + ^ x22: .cfa -32 + ^ x23: .cfa -40 + ^ x24: .cfa -48 + ^ x25: .cfa -64 + ^ .ra: .cfa -72 + ^ x29: .cfa -80 + ^
STACK CFI 5b5b8 .cfa: sp 240 +
STACK CFI 5b5d0 .cfa: sp 0 +
STACK CFI 5b5d4 .cfa: x29 80 +
STACK CFI INIT 5b70c 50 .cfa: sp 0 +
STACK CFI 5b710 .cfa: sp 32 +
STACK CFI 5b718 .cfa: x29 32 + x19: .cfa -8 + ^ x20: .cfa -16 + ^ .ra: .cfa -24 + ^ x29: .cfa -32 + ^
STACK CFI INIT 5b788 7c0 .cfa: sp 0 +
STACK CFI 5b78c .cfa: sp 320 +
STACK CFI 5b7a8 .cfa: x29 96 + x19: .cfa -8 + ^ x20: .cfa -16 + ^ x21: .cfa -24 + ^ x22: .cfa -32 + ^ x23: .cfa -40 + ^ x24: .cfa -48 + ^ x25: .cfa -56 + ^ x26: .cfa -64 + ^ x27: .cfa -72 + ^ x28: .cfa -80 + ^ .ra: .cfa -88 + ^ x29: .cfa -96 + ^
STACK CFI 5bdf8 .cfa: sp 320 +
STACK CFI 5be14 .cfa: sp 0 +
STACK CFI 5be18 .cfa: x29 96 +
STACK CFI INIT 602c8 c74 .cfa: sp 0 +
STACK CFI 602cc .cfa: sp 96 +
STACK CFI 602e4 .cfa: x29 96 + x19: .cfa -8 + ^ x20: .cfa -16 + ^ x21: .cfa -24 + ^ x22: .cfa -32 + ^ x23: .cfa -40 + ^ x24: .cfa -48 + ^ x25: .cfa -56 + ^ x26: .cfa -64 + ^ x27: .cfa -72 + ^ x28: .cfa -80 + ^ .ra: .cfa -88 + ^ x29: .cfa -96 + ^
STACK CFI 60d5c .cfa: sp 96 +
STACK CFI 60d74 .cfa: sp 0 +
STACK CFI 60d78 .cfa: x29 96 +
STACK CFI INIT 61090 26c .cfa: sp 0 +
STACK CFI 61094 .cfa: sp 128 +
STACK CFI 610a4 .cfa: x29 48 + x19: .cfa -8 + ^ x20: .cfa -16 + ^ x21: .cfa -24 + ^ x22: .cfa -32 + ^ .ra: .cfa -40 + ^ x29: .cfa -48 + ^
STACK CFI 61248 .cfa: sp 128 +
STACK CFI 61258 .cfa: sp 0 +
STACK CFI 6125c .cfa: x29 48 +
STACK CFI INIT 61848 3b8 .cfa: sp 0 +
STACK CFI 6184c .cfa: sp 96 +
STACK CFI 61864 .cfa: x29 96 + x19: .cfa -8 + ^ x20: .cfa -16 + ^ x21: .cfa -24 + ^ x22: .cfa -32 + ^ x23: .cfa -40 + ^ x24: .cfa -48 + ^ x25: .cfa -56 + ^ x26: .cfa -64 + ^ x27: .cfa -72 + ^ x28: .cfa -80 + ^ .ra: .cfa -88 + ^ x29: .cfa -96 + ^
STACK CFI 61ba0 .cfa: sp 96 +
STACK CFI 61bb8 .cfa: sp 0 +
STACK CFI 61bbc .cfa: x29 96 +
STACK CFI INIT 61ca0 cb4 .cfa: sp 0 +
STACK CFI 61ca4 .cfa: sp 96 +
STACK CFI 61cbc .cfa: x29 96 + x19: .cfa -8 + ^ x20: .cfa -16 + ^ x21: .cfa -24 + ^ x22: .cfa -32 + ^ x23: .cfa -40 + ^ x24: .cfa -48 + ^ x25: .cfa -56 + ^ x26: .cfa -64 + ^ x27: .cfa -72 + ^ x28: .cfa -80 + ^ .ra: .cfa -88 + ^ x29: .cfa -96 + ^
STACK CFI 62764 .cfa: sp 96 +
STACK CFI 6277c .cfa: sp 0 +
STACK CFI 62780 .cfa: x29 96 +
STACK CFI INIT 62c3c afc .cfa: sp 0 +
STACK CFI 62c40 .cfa: sp 96 +
STACK CFI 62c58 .cfa: x29 96 + x19: .cfa -8 + ^ x20: .cfa -16 + ^ x21: .cfa -24 + ^ x22: .cfa -32 + ^ x23: .cfa -40 + ^ x24: .cfa -48 + ^ x25: .cfa -56 + ^ x26: .cfa -64 + ^ x27: .cfa -72 + ^ x28: .cfa -80 + ^ .ra: .cfa -88 + ^ x29: .cfa -96 + ^
STACK CFI 636ac .cfa: sp 96 +
STACK CFI 636c4 .cfa: sp 0 +
STACK CFI 636c8 .cfa: x29 96 +
STACK CFI INIT 63914 1430 .cfa: sp 0 +
STACK CFI 63918 .cfa: sp 96 +
STACK CFI 63930 .cfa: x29 96 + x19: .cfa -8 + ^ x20: .cfa -16 + ^ x21: .cfa -24 + ^ x22: .cfa -32 + ^ x23: .cfa -40 + ^ x24: .cfa -48 + ^ x25: .cfa -56 + ^ x26: .cfa -64 + ^ x27: .cfa -72 + ^ x28: .cfa -80 + ^ .ra: .cfa -88 + ^ x29: .cfa -96 + ^
STACK CFI 64bcc .cfa: sp 96 +
STACK CFI 64be4 .cfa: sp 0 +
STACK CFI 64be8 .cfa: x29 96 +
STACK CFI INIT 64e68 75c .cfa: sp 0 +
STACK CFI 64e6c .cfa: sp 368 +
STACK CFI 64e88 .cfa: x29 96 + x19: .cfa -8 + ^ x20: .cfa -16 + ^ x21: .cfa -24 + ^ x22: .cfa -32 + ^ x23: .cfa -40 + ^ x24: .cfa -48 + ^ x25: .cfa -56 + ^ x26: .cfa -64 + ^ x27: .cfa -72 + ^ x28: .cfa -80 + ^ .ra: .cfa -88 + ^ x29: .cfa -96 + ^
STACK CFI 64f3c .cfa: sp 368 +
STACK CFI 64f58 .cfa: sp 0 +
STACK CFI 64f5c .cfa: x29 96 +
STACK CFI 64fb0 .cfa: sp 368 +
STACK CFI 64fcc .cfa: sp 0 +
STACK CFI 64fd0 .cfa: x29 96 +
STACK CFI INIT 65984 eb0 .cfa: sp 0 +
STACK CFI 65988 .cfa: sp 96 +
STACK CFI 659a0 .cfa: x29 96 + x19: .cfa -8 + ^ x20: .cfa -16 + ^ x21: .cfa -24 + ^ x22: .cfa -32 + ^ x23: .cfa -40 + ^ x24: .cfa -48 + ^ x25: .cfa -56 + ^ x26: .cfa -64 + ^ x27: .cfa -72 + ^ x28: .cfa -80 + ^ .ra: .cfa -88 + ^ x29: .cfa -96 + ^
STACK CFI 66648 .cfa: sp 96 +
STACK CFI 66660 .cfa: sp 0 +
STACK CFI 66664 .cfa: x29 96 +
STACK CFI INIT 66ba8 1c9c .cfa: sp 0 +
STACK CFI 66bac .cfa: sp 112 +
STACK CFI 66bc8 .cfa: x29 96 + x19: .cfa -8 + ^ x20: .cfa -16 + ^ x21: .cfa -24 + ^ x22: .cfa -32 + ^ x23: .cfa -40 + ^ x24: .cfa -48 + ^ x25: .cfa -56 + ^ x26: .cfa -64 + ^ x27: .cfa -72 + ^ x28: .cfa -80 + ^ .ra: .cfa -88 + ^ x29: .cfa -96 + ^ v8: .cfa -112 + ^
STACK CFI 66fb0 .cfa: sp 112 +
STACK CFI 66fcc .cfa: sp 0 +
STACK CFI 66fd0 .cfa: x29 96 +
STACK CFI INIT 6b008 9a0 .cfa: sp 0 +
STACK CFI 6b00c .cfa: sp 144 +
STACK CFI 6b024 .cfa: x29 80 + x19: .cfa -8 + ^ x20: .cfa -16 + ^ x21: .cfa -24 + ^ x22: .cfa -32 + ^ x23: .cfa -40 + ^ x24: .cfa -48 + ^ x25: .cfa -64 + ^ .ra: .cfa -72 + ^ x29: .cfa -80 + ^
STACK CFI 6b924 .cfa: sp 144 +
STACK CFI 6b93c .cfa: sp 0 +
STACK CFI 6b940 .cfa: x29 80 +
STACK CFI INIT 6cecc 57c .cfa: sp 0 +
STACK CFI 6ced0 .cfa: sp 96 +
STACK CFI 6cee8 .cfa: x29 96 + x19: .cfa -8 + ^ x20: .cfa -16 + ^ x21: .cfa -24 + ^ x22: .cfa -32 + ^ x23: .cfa -40 + ^ x24: .cfa -48 + ^ x25: .cfa -56 + ^ x26: .cfa -64 + ^ x27: .cfa -72 + ^ x28: .cfa -80 + ^ .ra: .cfa -88 + ^ x29: .cfa -96 + ^
STACK CFI 6d3ac .cfa: sp 96 +
STACK CFI 6d3c4 .cfa: sp 0 +
STACK CFI 6d3c8 .cfa: x29 96 +
STACK CFI INIT 6d448 67c .cfa: sp 0 +
STACK CFI 6d44c .cfa: sp 96 +
STACK CFI 6d464 .cfa: x29 96 + x19: .cfa -8 + ^ x20: .cfa -16 + ^ x21: .cfa -24 + ^ x22: .cfa -32 + ^ x23: .cfa -40 + ^ x24: .cfa -48 + ^ x25: .cfa -56 + ^ x26: .cfa -64 + ^ x27: .cfa -72 + ^ x28: .cfa -80 + ^ .ra: .cfa -88 + ^ x29: .cfa -96 + ^
STACK CFI 6da28 .cfa: sp 96 +
STACK CFI 6da40 .cfa: sp 0 +
STACK CFI 6da44 .cfa: x29 96 +
