MODULE Linux arm64 378792541327A77569EB743F174230320 colon.gold_user_coins.android64.so
INFO CODE_ID 54928737271375A769EB743F17423032BD4E6D4B
INFO GENERATOR mozilla/dump_syms 2.3.4
PUBLIC 6fb0 0 __on_dlclose
PUBLIC 6fc0 0 __emutls_unregister_key
PUBLIC 6fc8 0 __on_dlclose_late
PUBLIC 6fd0 0 __atexit_handler_wrapper
PUBLIC 6fe4 0 atexit
PUBLIC 7000 0 pthread_atfork
PUBLIC 7010 0 unwind_phase2
PUBLIC 7144 0 _Unwind_Resume
PUBLIC 71c8 0 unwind_phase2_forced
PUBLIC m 72bc 0 __unw_init_local
PUBLIC m 7364 0 __unw_get_reg
PUBLIC 73e0 0 __unw_step_stage2
PUBLIC m 73f4 0 __unw_get_proc_info
PUBLIC m 7434 0 __unw_resume
PUBLIC 745c 0 libunwind::CFI_Parser<libunwind::LocalAddressSpace>::decodeFDE(libunwind::LocalAddressSpace&, unsigned long, libunwind::CFI_Parser<libunwind::LocalAddressSpace>::FDE_Info*, libunwind::CFI_Parser<libunwind::LocalAddressSpace>::CIE_Info*, bool)
PUBLIC 75ec 0 libunwind::CFI_Parser<libunwind::LocalAddressSpace>::parseCIE(libunwind::LocalAddressSpace&, unsigned long, libunwind::CFI_Parser<libunwind::LocalAddressSpace>::CIE_Info*)
PUBLIC 78b4 0 libunwind::AbstractUnwindCursor::~AbstractUnwindCursor()
PUBLIC 78bc 0 libunwind::UnwindCursor<libunwind::LocalAddressSpace, libunwind::Registers_arm64>::~UnwindCursor()
PUBLIC 78c4 0 libunwind::UnwindCursor<libunwind::LocalAddressSpace, libunwind::Registers_arm64>::validReg(int)
PUBLIC 7908 0 libunwind::UnwindCursor<libunwind::LocalAddressSpace, libunwind::Registers_arm64>::getReg(int)
PUBLIC 79f0 0 libunwind::UnwindCursor<libunwind::LocalAddressSpace, libunwind::Registers_arm64>::setReg(int, unsigned long)
PUBLIC 7ad8 0 libunwind::UnwindCursor<libunwind::LocalAddressSpace, libunwind::Registers_arm64>::validFloatReg(int)
PUBLIC 7aec 0 libunwind::UnwindCursor<libunwind::LocalAddressSpace, libunwind::Registers_arm64>::getFloatReg(int)
PUBLIC 7afc 0 libunwind::UnwindCursor<libunwind::LocalAddressSpace, libunwind::Registers_arm64>::setFloatReg(int, double)
PUBLIC 7b0c 0 libunwind::UnwindCursor<libunwind::LocalAddressSpace, libunwind::Registers_arm64>::step(bool)
PUBLIC 7bfc 0 libunwind::UnwindCursor<libunwind::LocalAddressSpace, libunwind::Registers_arm64>::getInfo(unw_proc_info_t*)
PUBLIC 7c40 0 libunwind::UnwindCursor<libunwind::LocalAddressSpace, libunwind::Registers_arm64>::jumpto()
PUBLIC 7c4c 0 libunwind::UnwindCursor<libunwind::LocalAddressSpace, libunwind::Registers_arm64>::isSignalFrame()
PUBLIC 7c58 0 libunwind::UnwindCursor<libunwind::LocalAddressSpace, libunwind::Registers_arm64>::getFunctionName(char*, unsigned long, unsigned long*)
PUBLIC 7c84 0 libunwind::UnwindCursor<libunwind::LocalAddressSpace, libunwind::Registers_arm64>::setInfoBasedOnIPRegister(bool)
PUBLIC 7f04 0 libunwind::UnwindCursor<libunwind::LocalAddressSpace, libunwind::Registers_arm64>::getRegisterName(int)
PUBLIC 7f10 0 libunwind::UnwindCursor<libunwind::LocalAddressSpace, libunwind::Registers_arm64>::stepThroughSigReturn(libunwind::Registers_arm64&)
PUBLIC 8030 0 libunwind::DwarfInstructions<libunwind::LocalAddressSpace, libunwind::Registers_arm64>::stepWithDwarf(libunwind::LocalAddressSpace&, unsigned long, unsigned long, libunwind::Registers_arm64&, bool&, bool)
PUBLIC 84b8 0 libunwind::CFI_Parser<libunwind::LocalAddressSpace>::parseFDEInstructions(libunwind::LocalAddressSpace&, libunwind::CFI_Parser<libunwind::LocalAddressSpace>::FDE_Info const&, libunwind::CFI_Parser<libunwind::LocalAddressSpace>::CIE_Info const&, unsigned long, int, libunwind::CFI_Parser<libunwind::LocalAddressSpace>::PrologInfo*)
PUBLIC 9100 0 libunwind::DwarfInstructions<libunwind::LocalAddressSpace, libunwind::Registers_arm64>::getCFA(libunwind::LocalAddressSpace&, libunwind::CFI_Parser<libunwind::LocalAddressSpace>::PrologInfo const&, libunwind::Registers_arm64 const&)
PUBLIC 9234 0 libunwind::DwarfInstructions<libunwind::LocalAddressSpace, libunwind::Registers_arm64>::getSavedRegister(libunwind::LocalAddressSpace&, libunwind::Registers_arm64 const&, unsigned long, libunwind::CFI_Parser<libunwind::LocalAddressSpace>::RegisterLocation const&)
PUBLIC 9444 0 libunwind::LocalAddressSpace::getEncodedP(unsigned long&, unsigned long, unsigned char, unsigned long)
PUBLIC 97d0 0 libunwind::LocalAddressSpace::getULEB128(unsigned long&, unsigned long)
PUBLIC 9998 0 libunwind::DwarfInstructions<libunwind::LocalAddressSpace, libunwind::Registers_arm64>::evaluateExpression(unsigned long, libunwind::LocalAddressSpace&, libunwind::Registers_arm64 const&, unsigned long)
PUBLIC a354 0 libunwind::UnwindCursor<libunwind::LocalAddressSpace, libunwind::Registers_arm64>::getInfoFromDwarfSection(unsigned long, libunwind::UnwindInfoSections const&, unsigned int)
PUBLIC a628 0 libunwind::findUnwindSectionsByPhdr(dl_phdr_info*, unsigned long, void*)
PUBLIC a75c 0 libunwind::EHHeaderParser<libunwind::LocalAddressSpace>::decodeEHHdr(libunwind::LocalAddressSpace&, unsigned long, unsigned long, libunwind::EHHeaderParser<libunwind::LocalAddressSpace>::EHHeaderInfo&)
PUBLIC a87c 0 libunwind::CFI_Parser<libunwind::LocalAddressSpace>::findFDE(libunwind::LocalAddressSpace&, unsigned long, unsigned long, unsigned long, unsigned long, libunwind::CFI_Parser<libunwind::LocalAddressSpace>::FDE_Info*, libunwind::CFI_Parser<libunwind::LocalAddressSpace>::CIE_Info*)
PUBLIC aa44 0 libunwind::EHHeaderParser<libunwind::LocalAddressSpace>::findFDE(libunwind::LocalAddressSpace&, unsigned long, unsigned long, unsigned int, libunwind::CFI_Parser<libunwind::LocalAddressSpace>::FDE_Info*, libunwind::CFI_Parser<libunwind::LocalAddressSpace>::CIE_Info*)
PUBLIC abac 0 libunwind::EHHeaderParser<libunwind::LocalAddressSpace>::getTableEntrySize(unsigned char)
PUBLIC aca8 0 libunwind::Registers_arm64::getRegisterName(int)
PUBLIC acd8 0 __libunwind_Registers_arm64_jumpto
PUBLIC m ad68 0 __unw_getcontext
PUBLIC ae10 0 __aarch64_ldadd8_relax
PUBLIC ae40 0 init_have_lse_atomics
PUBLIC aed8 0 __init_cpu_features_constructor
PUBLIC b474 0 __init_cpu_features
PUBLIC b500 0 __aarch64_ldadd8_acq_rel
PUBLIC b530 0 __cxx_global_var_init
PUBLIC b98c 0 __cxx_global_var_init.1
PUBLIC bde8 0 __cxx_global_var_init.2
PUBLIC c244 0 __cxx_global_var_init.3
PUBLIC c6a0 0 __cxx_global_var_init.4
PUBLIC cafc 0 __cxx_global_var_init.5
PUBLIC cf58 0 __cxx_global_var_init.6
PUBLIC d3b4 0 __cxx_global_var_init.7
PUBLIC d810 0 geode::modifier::ModifyBase<geode::modifier::ModifyDerive<hook24<(anonymous namespace)::hook24Parent>, MenuLayer> >::~ModifyBase()
PUBLIC d828 0 geode::modifier::ModifyBase<geode::modifier::ModifyDerive<hook52<(anonymous namespace)::hook52Parent>, LoadingLayer> >::~ModifyBase()
PUBLIC d840 0 geode::modifier::ModifyBase<geode::modifier::ModifyDerive<hook60<(anonymous namespace)::hook60Parent>, cocos2d::CCSprite> >::~ModifyBase()
PUBLIC d858 0 geode::modifier::ModifyBase<geode::modifier::ModifyDerive<hook75<(anonymous namespace)::hook75Parent>, EndLevelLayer> >::~ModifyBase()
PUBLIC d870 0 geode::modifier::ModifyBase<geode::modifier::ModifyDerive<hook104<(anonymous namespace)::hook104Parent>, PauseLayer> >::~ModifyBase()
PUBLIC d888 0 geode::modifier::ModifyBase<geode::modifier::ModifyDerive<hook124<(anonymous namespace)::hook124Parent>, GameObject> >::~ModifyBase()
PUBLIC d8a0 0 geode::modifier::ModifyBase<geode::modifier::ModifyDerive<hook137<(anonymous namespace)::hook137Parent>, EnhancedGameObject> >::~ModifyBase()
PUBLIC d8b8 0 geode::modifier::ModifyBase<geode::modifier::ModifyDerive<hook149<(anonymous namespace)::hook149Parent>, EditorUI> >::~ModifyBase()
PUBLIC d8d0 0 geode::modifier::ModifyDerive<hook24<(anonymous namespace)::hook24Parent>, MenuLayer>::apply()
PUBLIC dbc8 0 std::__ndk1::shared_ptr<geode::Hook>::~shared_ptr[abi:ne180000]()
PUBLIC dc18 0 geode::impl::ResultData<geode::Hook*, std::__ndk1::basic_string<char, std::__ndk1::char_traits<char>, std::__ndk1::allocator<char> > >::~ResultData()
PUBLIC dc8c 0 std::__ndk1::vector<std::__ndk1::basic_string<char, std::__ndk1::char_traits<char>, std::__ndk1::allocator<char> >, std::__ndk1::allocator<std::__ndk1::basic_string<char, std::__ndk1::char_traits<char>, std::__ndk1::allocator<char> > > >::~vector[abi:ne180000]()
PUBLIC dd08 0 geode::modifier::ModifyBase<geode::modifier::ModifyDerive<hook24<(anonymous namespace)::hook24Parent>, MenuLayer> >::apply()
PUBLIC dd0c 0 __clang_call_terminate
PUBLIC dd1c 0 _ZN5geode15UnwrapExceptionC2IRPNS_4HookEQsr4implE18IsStringStreamableIT_EEENS_4impl5OkTagEOS5_
PUBLIC e418 0 std::__ndk1::__throw_bad_variant_access[abi:ne180000]()
PUBLIC m e44c 0 std::__ndk1::basic_stringstream<char, std::__ndk1::char_traits<char>, std::__ndk1::allocator<char> >::~basic_stringstream()
PUBLIC e4cc 0 geode::UnwrapException::~UnwrapException()
PUBLIC e4f0 0 std::__ndk1::basic_string<char, std::__ndk1::char_traits<char>, std::__ndk1::allocator<char> >::__throw_length_error[abi:ne180000]() const
PUBLIC e504 0 std::__ndk1::__throw_length_error[abi:ne180000](char const*)
PUBLIC e554 0 std::length_error::length_error[abi:ne180000](char const*)
PUBLIC e584 0 std::__throw_bad_array_new_length([abi:ne180000], void)
PUBLIC e5b8 0 std::__ndk1::vector<std::__ndk1::basic_string<char, std::__ndk1::char_traits<char>, std::__ndk1::allocator<char> >, std::__ndk1::allocator<std::__ndk1::basic_string<char, std::__ndk1::char_traits<char>, std::__ndk1::allocator<char> > > >::__push_back_slow_path<std::__ndk1::basic_string<char, std::__ndk1::char_traits<char>, std::__ndk1::allocator<char> > const&>(std::__ndk1::basic_string<char, std::__ndk1::char_traits<char>, std::__ndk1::allocator<char> > const&)
PUBLIC e7dc 0 std::__ndk1::basic_string<char, std::__ndk1::char_traits<char>, std::__ndk1::allocator<char> >::__init_copy_ctor_external(char const*, unsigned long)
PUBLIC e858 0 std::__ndk1::__split_buffer<std::__ndk1::basic_string<char, std::__ndk1::char_traits<char>, std::__ndk1::allocator<char> >, std::__ndk1::allocator<std::__ndk1::basic_string<char, std::__ndk1::char_traits<char>, std::__ndk1::allocator<char> > >&>::~__split_buffer()
PUBLIC e8c0 0 std::__ndk1::vector<std::__ndk1::basic_string<char, std::__ndk1::char_traits<char>, std::__ndk1::allocator<char> >, std::__ndk1::allocator<std::__ndk1::basic_string<char, std::__ndk1::char_traits<char>, std::__ndk1::allocator<char> > > >::__throw_length_error[abi:ne180000]() const
PUBLIC e8d4 0 std::__ndk1::__variant_detail::__visitation::__base::__dispatcher<(unsigned long)0>::__dispatch[abi:ne180000]<std::__ndk1::__variant_detail::__dtor<std::__ndk1::__variant_detail::__traits<geode::Hook*, std::__ndk1::basic_string<char, std::__ndk1::char_traits<char>, std::__ndk1::allocator<char> > >, (std::__ndk1::__variant_detail::_Trait)1>::__destroy[abi:ne180000]()::{lambda(auto:1&)#1}, std::__ndk1::__variant_detail::__base<(std::__ndk1::__variant_detail::__traits<geode::Hook*, std::__ndk1::basic_string<char, std::__ndk1::char_traits<char>, std::__ndk1::allocator<char> > >)1, geode::Hook, std::__ndk1::allocator<char> >&>(std::__ndk1::__variant_detail::__dtor<std::__ndk1::__variant_detail::__traits<geode::Hook*, std::__ndk1::basic_string<char, std::__ndk1::char_traits<char>, std::__ndk1::allocator<char> > >, (std::__ndk1::__variant_detail::_Trait)1>, std::__ndk1::__variant_detail::__base<(std::__ndk1::__variant_detail::__traits<geode::Hook*, std::__ndk1::basic_string<char, std::__ndk1::char_traits<char>, std::__ndk1::allocator<char> > >)1, geode::Hook, std::__ndk1::allocator<char> >&)
PUBLIC e8d8 0 std::__ndk1::__variant_detail::__visitation::__base::__dispatcher<(unsigned long)1>::__dispatch[abi:ne180000]<std::__ndk1::__variant_detail::__dtor<std::__ndk1::__variant_detail::__traits<geode::Hook*, std::__ndk1::basic_string<char, std::__ndk1::char_traits<char>, std::__ndk1::allocator<char> > >, (std::__ndk1::__variant_detail::_Trait)1>::__destroy[abi:ne180000]()::{lambda(auto:1&)#1}, std::__ndk1::__variant_detail::__base<(std::__ndk1::__variant_detail::__traits<geode::Hook*, std::__ndk1::basic_string<char, std::__ndk1::char_traits<char>, std::__ndk1::allocator<char> > >)1, geode::Hook, std::__ndk1::allocator<char> >&>(std::__ndk1::__variant_detail::__dtor<std::__ndk1::__variant_detail::__traits<geode::Hook*, std::__ndk1::basic_string<char, std::__ndk1::char_traits<char>, std::__ndk1::allocator<char> > >, (std::__ndk1::__variant_detail::_Trait)1>, std::__ndk1::__variant_detail::__base<(std::__ndk1::__variant_detail::__traits<geode::Hook*, std::__ndk1::basic_string<char, std::__ndk1::char_traits<char>, std::__ndk1::allocator<char> > >)1, geode::Hook, std::__ndk1::allocator<char> >&)
PUBLIC e8ec 0 std::__ndk1::__tree<std::__ndk1::__value_type<std::__ndk1::basic_string<char, std::__ndk1::char_traits<char>, std::__ndk1::allocator<char> >, std::__ndk1::shared_ptr<geode::Hook> >, std::__ndk1::__map_value_compare<std::__ndk1::basic_string<char, std::__ndk1::char_traits<char>, std::__ndk1::allocator<char> >, std::__ndk1::__value_type<std::__ndk1::basic_string<char, std::__ndk1::char_traits<char>, std::__ndk1::allocator<char> >, std::__ndk1::shared_ptr<geode::Hook> >, std::__ndk1::less<std::__ndk1::basic_string<char, std::__ndk1::char_traits<char>, std::__ndk1::allocator<char> > >, true>, std::__ndk1::allocator<std::__ndk1::__value_type<std::__ndk1::basic_string<char, std::__ndk1::char_traits<char>, std::__ndk1::allocator<char> >, std::__ndk1::shared_ptr<geode::Hook> > > >::find<std::__ndk1::basic_string<char, std::__ndk1::char_traits<char>, std::__ndk1::allocator<char> > >(std::__ndk1::basic_string<char, std::__ndk1::char_traits<char>, std::__ndk1::allocator<char> > const&)
PUBLIC ea0c 0 std::__ndk1::__tree<std::__ndk1::__value_type<std::__ndk1::basic_string<char, std::__ndk1::char_traits<char>, std::__ndk1::allocator<char> >, std::__ndk1::shared_ptr<geode::Hook> >, std::__ndk1::__map_value_compare<std::__ndk1::basic_string<char, std::__ndk1::char_traits<char>, std::__ndk1::allocator<char> >, std::__ndk1::__value_type<std::__ndk1::basic_string<char, std::__ndk1::char_traits<char>, std::__ndk1::allocator<char> >, std::__ndk1::shared_ptr<geode::Hook> >, std::__ndk1::less<std::__ndk1::basic_string<char, std::__ndk1::char_traits<char>, std::__ndk1::allocator<char> > >, true>, std::__ndk1::allocator<std::__ndk1::__value_type<std::__ndk1::basic_string<char, std::__ndk1::char_traits<char>, std::__ndk1::allocator<char> >, std::__ndk1::shared_ptr<geode::Hook> > > >::erase(std::__ndk1::__tree_const_iterator<std::__ndk1::__value_type<std::__ndk1::basic_string<char, std::__ndk1::char_traits<char>, std::__ndk1::allocator<char> >, std::__ndk1::shared_ptr<geode::Hook> >, std::__ndk1::__tree_node<std::__ndk1::__value_type<std::__ndk1::basic_string<char, std::__ndk1::char_traits<char>, std::__ndk1::allocator<char> >, std::__ndk1::shared_ptr<geode::Hook> >, void*>*, long>)
PUBLIC eeb0 0 std::__ndk1::__tree<std::__ndk1::__value_type<std::__ndk1::basic_string<char, std::__ndk1::char_traits<char>, std::__ndk1::allocator<char> >, std::__ndk1::shared_ptr<geode::Hook> >, std::__ndk1::__map_value_compare<std::__ndk1::basic_string<char, std::__ndk1::char_traits<char>, std::__ndk1::allocator<char> >, std::__ndk1::__value_type<std::__ndk1::basic_string<char, std::__ndk1::char_traits<char>, std::__ndk1::allocator<char> >, std::__ndk1::shared_ptr<geode::Hook> >, std::__ndk1::less<std::__ndk1::basic_string<char, std::__ndk1::char_traits<char>, std::__ndk1::allocator<char> > >, true>, std::__ndk1::allocator<std::__ndk1::__value_type<std::__ndk1::basic_string<char, std::__ndk1::char_traits<char>, std::__ndk1::allocator<char> >, std::__ndk1::shared_ptr<geode::Hook> > > >::destroy(std::__ndk1::__tree_node<std::__ndk1::__value_type<std::__ndk1::basic_string<char, std::__ndk1::char_traits<char>, std::__ndk1::allocator<char> >, std::__ndk1::shared_ptr<geode::Hook> >, void*>*)
PUBLIC ef34 0 geode::modifier::AsStaticFunction_init<hook24<(anonymous namespace)::hook24Parent>, bool (hook24<(anonymous namespace)::hook24Parent>::*)()>::Impl<bool (hook24<(anonymous namespace)::hook24Parent>::*)()>::function(hook24<(anonymous namespace)::hook24Parent>*)
PUBLIC f6cc 0 geode::addresser::Addresser::addressOfVirtual<bool, MenuLayer, >(bool (MenuLayer::*)())
PUBLIC f774 0 MenuLayer::MenuLayer(geode::ZeroConstructorType)
PUBLIC f810 0 std::__ndk1::shared_ptr<tulip::hook::CallingConvention>::~shared_ptr[abi:ne180000]()
PUBLIC f860 0 tulip::hook::HandlerMetadata::~HandlerMetadata()
PUBLIC f8c4 0 geode::Mod::getSettingValue<bool>(std::__ndk1::basic_string_view<char, std::__ndk1::char_traits<char> >) const
PUBLIC f9f4 0 geode::cast::traverseTypeinfoFor(void*, geode::cast::ClassTypeinfoType const*, char const*)
PUBLIC faec 0 std::__ndk1::__tree<std::__ndk1::__value_type<std::__ndk1::basic_string<char, std::__ndk1::char_traits<char>, std::__ndk1::allocator<char> >, std::__ndk1::shared_ptr<geode::Hook> >, std::__ndk1::__map_value_compare<std::__ndk1::basic_string<char, std::__ndk1::char_traits<char>, std::__ndk1::allocator<char> >, std::__ndk1::__value_type<std::__ndk1::basic_string<char, std::__ndk1::char_traits<char>, std::__ndk1::allocator<char> >, std::__ndk1::shared_ptr<geode::Hook> >, std::__ndk1::less<std::__ndk1::basic_string<char, std::__ndk1::char_traits<char>, std::__ndk1::allocator<char> > >, true>, std::__ndk1::allocator<std::__ndk1::__value_type<std::__ndk1::basic_string<char, std::__ndk1::char_traits<char>, std::__ndk1::allocator<char> >, std::__ndk1::shared_ptr<geode::Hook> > > >::__emplace_unique_key_args<std::__ndk1::basic_string<char, std::__ndk1::char_traits<char>, std::__ndk1::allocator<char> >, std::__ndk1::piecewise_construct_t const&, std::__ndk1::tuple<std::__ndk1::basic_string<char, std::__ndk1::char_traits<char>, std::__ndk1::allocator<char> >&&>, std::__ndk1::tuple<> >(std::__ndk1::basic_string<char, std::__ndk1::char_traits<char>, std::__ndk1::allocator<char> > const&, std::__ndk1::piecewise_construct_t const&, std::__ndk1::tuple<std::__ndk1::basic_string<char, std::__ndk1::char_traits<char>, std::__ndk1::allocator<char> >&&>, std::__ndk1::tuple<>)
PUBLIC fe00 0 geode::modifier::ModifyDerive<hook52<(anonymous namespace)::hook52Parent>, LoadingLayer>::apply()
PUBLIC 10150 0 geode::modifier::ModifyBase<geode::modifier::ModifyDerive<hook52<(anonymous namespace)::hook52Parent>, LoadingLayer> >::apply()
PUBLIC 10154 0 geode::modifier::AsStaticFunction_init<hook52<(anonymous namespace)::hook52Parent>, bool (hook52<(anonymous namespace)::hook52Parent>::*)(bool)>::Impl<bool (hook52<(anonymous namespace)::hook52Parent>::*)(bool)>::function(hook52<(anonymous namespace)::hook52Parent>*, bool)
PUBLIC 10160 0 geode::modifier::ModifyDerive<hook60<(anonymous namespace)::hook60Parent>, cocos2d::CCSprite>::apply()
PUBLIC 104cc 0 geode::modifier::ModifyBase<geode::modifier::ModifyDerive<hook60<(anonymous namespace)::hook60Parent>, cocos2d::CCSprite> >::apply()
PUBLIC 104d0 0 geode::modifier::AsStaticFunction_setColor<hook60<(anonymous namespace)::hook60Parent>, void (hook60<(anonymous namespace)::hook60Parent>::*)(cocos2d::_ccColor3B const&)>::Impl<void (hook60<(anonymous namespace)::hook60Parent>::*)(cocos2d::_ccColor3B const&)>::function(hook60<(anonymous namespace)::hook60Parent>*, cocos2d::_ccColor3B const&)
PUBLIC 10608 0 geode::addresser::Addresser::addressOfVirtual<void, cocos2d::CCSprite, cocos2d::_ccColor3B const&>(void (cocos2d::CCSprite::*)(cocos2d::_ccColor3B const&))
PUBLIC 106b0 0 cocos2d::CCSprite::CCSprite(geode::ZeroConstructorType)
PUBLIC 10730 0 geode::modifier::ModifyDerive<hook75<(anonymous namespace)::hook75Parent>, EndLevelLayer>::apply()
PUBLIC 10d18 0 geode::modifier::ModifyBase<geode::modifier::ModifyDerive<hook75<(anonymous namespace)::hook75Parent>, EndLevelLayer> >::apply()
PUBLIC 10d1c 0 geode::modifier::AsStaticFunction_customSetup<hook75<(anonymous namespace)::hook75Parent>, void (hook75<(anonymous namespace)::hook75Parent>::*)()>::Impl<void (hook75<(anonymous namespace)::hook75Parent>::*)()>::function(hook75<(anonymous namespace)::hook75Parent>*)
PUBLIC 11104 0 geode::modifier::AsStaticFunction_coinEnterFinished<hook75<(anonymous namespace)::hook75Parent>, void (hook75<(anonymous namespace)::hook75Parent>::*)(cocos2d::CCPoint)>::Impl<void (hook75<(anonymous namespace)::hook75Parent>::*)(cocos2d::CCPoint)>::function(hook75<(anonymous namespace)::hook75Parent>*, cocos2d::CCPoint)
PUBLIC 111cc 0 geode::addresser::Addresser::addressOfVirtual<void, EndLevelLayer, >(void (EndLevelLayer::*)())
PUBLIC 11274 0 EndLevelLayer::EndLevelLayer(geode::ZeroConstructorType)
PUBLIC 11304 0 geode::cocos::CCArrayExt<cocos2d::CCSprite*, cocos2d::CCSprite>::~CCArrayExt()
PUBLIC 11320 0 geode::modifier::ModifyDerive<hook104<(anonymous namespace)::hook104Parent>, PauseLayer>::apply()
PUBLIC 11640 0 geode::modifier::ModifyBase<geode::modifier::ModifyDerive<hook104<(anonymous namespace)::hook104Parent>, PauseLayer> >::apply()
PUBLIC 11644 0 geode::modifier::AsStaticFunction_customSetup<hook104<(anonymous namespace)::hook104Parent>, void (hook104<(anonymous namespace)::hook104Parent>::*)()>::Impl<void (hook104<(anonymous namespace)::hook104Parent>::*)()>::function(hook104<(anonymous namespace)::hook104Parent>*)
PUBLIC 11914 0 geode::addresser::Addresser::addressOfVirtual<void, PauseLayer, >(void (PauseLayer::*)())
PUBLIC 119bc 0 PauseLayer::PauseLayer(geode::ZeroConstructorType)
PUBLIC 11a48 0 geode::cocos::CCArrayExt<cocos2d::CCNode*, cocos2d::CCNode>::~CCArrayExt()
PUBLIC 11a64 0 geode::modifier::ModifyDerive<hook124<(anonymous namespace)::hook124Parent>, GameObject>::apply()
PUBLIC 11dd4 0 geode::modifier::ModifyBase<geode::modifier::ModifyDerive<hook124<(anonymous namespace)::hook124Parent>, GameObject> >::apply()
PUBLIC 11dd8 0 geode::modifier::AsStaticFunction_playDestroyObjectAnim<hook124<(anonymous namespace)::hook124Parent>, void (hook124<(anonymous namespace)::hook124Parent>::*)(GJBaseGameLayer*)>::Impl<void (hook124<(anonymous namespace)::hook124Parent>::*)(GJBaseGameLayer*)>::function(hook124<(anonymous namespace)::hook124Parent>*, GJBaseGameLayer*)
PUBLIC 11e18 0 geode::modifier::ModifyDerive<hook137<(anonymous namespace)::hook137Parent>, EnhancedGameObject>::apply()
PUBLIC 1214c 0 geode::modifier::ModifyBase<geode::modifier::ModifyDerive<hook137<(anonymous namespace)::hook137Parent>, EnhancedGameObject> >::apply()
PUBLIC 12150 0 geode::modifier::AsStaticFunction_updateUserCoin<hook137<(anonymous namespace)::hook137Parent>, void (hook137<(anonymous namespace)::hook137Parent>::*)()>::Impl<void (hook137<(anonymous namespace)::hook137Parent>::*)()>::function(hook137<(anonymous namespace)::hook137Parent>*)
PUBLIC 12190 0 geode::modifier::ModifyDerive<hook149<(anonymous namespace)::hook149Parent>, EditorUI>::apply()
PUBLIC 124fc 0 geode::modifier::ModifyBase<geode::modifier::ModifyDerive<hook149<(anonymous namespace)::hook149Parent>, EditorUI> >::apply()
PUBLIC 12500 0 geode::modifier::AsStaticFunction_onCreateObject<hook149<(anonymous namespace)::hook149Parent>, void (hook149<(anonymous namespace)::hook149Parent>::*)(int)>::Impl<void (hook149<(anonymous namespace)::hook149Parent>::*)(int)>::function(hook149<(anonymous namespace)::hook149Parent>*, int)
PUBLIC m 125a8 0 geodeImplicitEntry
PUBLIC 125f0 0 <.plt ELF section in colon.gold_user_coins.android64.so>
STACK CFI INIT 6fb0 10 .cfa: sp 0 +
STACK CFI INIT 6fc0 8 .cfa: sp 0 +
STACK CFI INIT 6fc8 8 .cfa: sp 0 +
STACK CFI INIT 6fd0 14 .cfa: sp 0 +
STACK CFI INIT 6fe4 1c .cfa: sp 0 +
STACK CFI INIT 7000 10 .cfa: sp 0 +
STACK CFI INIT 7010 134 .cfa: sp 0 +
STACK CFI INIT 7144 84 .cfa: sp 0 +
STACK CFI INIT 71c8 f4 .cfa: sp 0 +
STACK CFI INIT 72bc a8 .cfa: sp 0 +
STACK CFI INIT 7364 7c .cfa: sp 0 +
STACK CFI INIT 73e0 14 .cfa: sp 0 +
STACK CFI INIT 73f4 40 .cfa: sp 0 +
STACK CFI INIT 7434 28 .cfa: sp 0 +
STACK CFI INIT 745c 190 .cfa: sp 0 +
STACK CFI INIT 75ec 2c8 .cfa: sp 0 +
STACK CFI INIT 78b4 8 .cfa: sp 0 +
STACK CFI INIT 78bc 8 .cfa: sp 0 +
STACK CFI INIT 78c4 44 .cfa: sp 0 +
STACK CFI INIT 7908 e8 .cfa: sp 0 +
STACK CFI INIT 79f0 e8 .cfa: sp 0 +
STACK CFI INIT 7ad8 14 .cfa: sp 0 +
STACK CFI INIT 7aec 10 .cfa: sp 0 +
STACK CFI INIT 7afc 10 .cfa: sp 0 +
STACK CFI INIT 7b0c f0 .cfa: sp 0 +
STACK CFI INIT 7bfc 44 .cfa: sp 0 +
STACK CFI INIT 7c40 c .cfa: sp 0 +
STACK CFI INIT 7c4c c .cfa: sp 0 +
STACK CFI INIT 7c58 2c .cfa: sp 0 +
STACK CFI INIT 7c84 280 .cfa: sp 0 +
STACK CFI INIT 7f04 c .cfa: sp 0 +
STACK CFI INIT 7f10 120 .cfa: sp 0 +
STACK CFI INIT 8030 488 .cfa: sp 0 +
STACK CFI INIT 84b8 c48 .cfa: sp 0 +
STACK CFI INIT 9100 134 .cfa: sp 0 +
STACK CFI INIT 9234 210 .cfa: sp 0 +
STACK CFI INIT 9444 38c .cfa: sp 0 +
STACK CFI INIT 97d0 1c8 .cfa: sp 0 +
STACK CFI INIT 9998 9bc .cfa: sp 0 +
STACK CFI INIT a354 2d4 .cfa: sp 0 +
STACK CFI INIT a628 134 .cfa: sp 0 +
STACK CFI INIT a75c 120 .cfa: sp 0 +
STACK CFI INIT a87c 1c8 .cfa: sp 0 +
STACK CFI INIT aa44 168 .cfa: sp 0 +
STACK CFI INIT abac fc .cfa: sp 0 +
STACK CFI INIT aca8 30 .cfa: sp 0 +
STACK CFI INIT ae10 30 .cfa: sp 0 +
STACK CFI INIT ae40 98 .cfa: sp 0 +
STACK CFI INIT aed8 59c .cfa: sp 0 +
STACK CFI INIT b474 8c .cfa: sp 0 +
STACK CFI INIT b500 30 .cfa: sp 0 +
STACK CFI INIT d810 18 .cfa: sp 0 +
STACK CFI INIT d828 18 .cfa: sp 0 +
STACK CFI INIT d840 18 .cfa: sp 0 +
STACK CFI INIT d858 18 .cfa: sp 0 +
STACK CFI INIT d870 18 .cfa: sp 0 +
STACK CFI INIT d888 18 .cfa: sp 0 +
STACK CFI INIT d8a0 18 .cfa: sp 0 +
STACK CFI INIT d8b8 18 .cfa: sp 0 +
STACK CFI INIT dbc8 50 .cfa: sp 0 +
STACK CFI dbcc .cfa: sp 32 +
STACK CFI dbd4 .cfa: x29 32 + x19: .cfa -16 + ^ .ra: .cfa -24 + ^ x29: .cfa -32 + ^
STACK CFI dbec .cfa: sp 32 +
STACK CFI dbf4 .cfa: sp 0 +
STACK CFI dbf8 .cfa: x29 32 +
STACK CFI dc0c .cfa: sp 32 +
STACK CFI dc14 .cfa: sp 0 +
STACK CFI INIT dc8c 7c .cfa: sp 0 +
STACK CFI dc90 .cfa: sp 48 +
STACK CFI dc9c .cfa: x29 48 + x19: .cfa -8 + ^ x20: .cfa -16 + ^ x21: .cfa -32 + ^ .ra: .cfa -40 + ^ x29: .cfa -48 + ^
STACK CFI dce8 .cfa: sp 48 +
STACK CFI dcf4 .cfa: sp 0 +
STACK CFI dcf8 .cfa: sp 48 +
STACK CFI dd04 .cfa: sp 0 +
STACK CFI INIT dd08 4 .cfa: sp 0 +
STACK CFI INIT dd0c 10 .cfa: sp 0 +
STACK CFI dd10 .cfa: sp 16 +
STACK CFI dd14 .cfa: x29 16 + .ra: .cfa -8 + ^ x29: .cfa -16 + ^
STACK CFI INIT e418 34 .cfa: sp 0 +
STACK CFI e41c .cfa: sp 16 +
STACK CFI e420 .cfa: x29 16 + .ra: .cfa -8 + ^ x29: .cfa -16 + ^
STACK CFI INIT e44c 80 .cfa: sp 0 +
STACK CFI e450 .cfa: sp 48 +
STACK CFI e45c .cfa: x29 48 + x19: .cfa -8 + ^ x20: .cfa -16 + ^ x21: .cfa -32 + ^ .ra: .cfa -40 + ^ x29: .cfa -48 + ^
STACK CFI e4bc .cfa: sp 48 +
STACK CFI e4c8 .cfa: sp 0 +
STACK CFI INIT e4cc 24 .cfa: sp 0 +
STACK CFI e4d0 .cfa: sp 32 +
STACK CFI e4d8 .cfa: x29 32 + x19: .cfa -16 + ^ .ra: .cfa -24 + ^ x29: .cfa -32 + ^
STACK CFI e4e4 .cfa: sp 32 +
STACK CFI e4ec .cfa: sp 0 +
STACK CFI INIT e4f0 14 .cfa: sp 0 +
STACK CFI e4f4 .cfa: sp 16 +
STACK CFI e4f8 .cfa: x29 16 + .ra: .cfa -8 + ^ x29: .cfa -16 + ^
STACK CFI INIT e554 30 .cfa: sp 0 +
STACK CFI e558 .cfa: sp 32 +
STACK CFI e560 .cfa: x29 32 + x19: .cfa -16 + ^ .ra: .cfa -24 + ^ x29: .cfa -32 + ^
STACK CFI e578 .cfa: sp 32 +
STACK CFI e580 .cfa: sp 0 +
STACK CFI INIT e584 34 .cfa: sp 0 +
STACK CFI e588 .cfa: sp 32 +
STACK CFI e590 .cfa: x29 32 + x19: .cfa -16 + ^ .ra: .cfa -24 + ^ x29: .cfa -32 + ^
STACK CFI INIT e7dc 7c .cfa: sp 0 +
STACK CFI e7e0 .cfa: sp 48 +
STACK CFI e7ec .cfa: x29 48 + x19: .cfa -8 + ^ x20: .cfa -16 + ^ x21: .cfa -24 + ^ x22: .cfa -32 + ^ .ra: .cfa -40 + ^ x29: .cfa -48 + ^
STACK CFI e804 .cfa: sp 48 +
STACK CFI e810 .cfa: sp 0 +
STACK CFI e814 .cfa: x29 48 +
STACK CFI e844 .cfa: sp 48 +
STACK CFI e850 .cfa: sp 0 +
STACK CFI e854 .cfa: x29 48 +
STACK CFI INIT e858 68 .cfa: sp 0 +
STACK CFI e85c .cfa: sp 32 +
STACK CFI e864 .cfa: x29 32 + x19: .cfa -8 + ^ x20: .cfa -16 + ^ .ra: .cfa -24 + ^ x29: .cfa -32 + ^
STACK CFI e87c .cfa: sp 32 +
STACK CFI e884 .cfa: sp 0 +
STACK CFI e888 .cfa: x29 32 +
STACK CFI e8b4 .cfa: sp 32 +
STACK CFI e8bc .cfa: sp 0 +
STACK CFI INIT e8c0 14 .cfa: sp 0 +
STACK CFI e8c4 .cfa: sp 16 +
STACK CFI e8c8 .cfa: x29 16 + .ra: .cfa -8 + ^ x29: .cfa -16 + ^
STACK CFI INIT e8d4 4 .cfa: sp 0 +
STACK CFI INIT e8d8 14 .cfa: sp 0 +
STACK CFI INIT e8ec 120 .cfa: sp 0 +
STACK CFI e8f0 .cfa: sp 64 +
STACK CFI e900 .cfa: x29 64 + x19: .cfa -8 + ^ x20: .cfa -16 + ^ x21: .cfa -24 + ^ x22: .cfa -32 + ^ x23: .cfa -40 + ^ x24: .cfa -48 + ^ .ra: .cfa -56 + ^ x29: .cfa -64 + ^
STACK CFI e9f8 .cfa: sp 64 +
STACK CFI ea08 .cfa: sp 0 +
STACK CFI INIT ea0c 4a4 .cfa: sp 0 +
STACK CFI ea10 .cfa: sp 32 +
STACK CFI ea18 .cfa: x29 32 + x19: .cfa -8 + ^ x20: .cfa -16 + ^ .ra: .cfa -24 + ^ x29: .cfa -32 + ^
STACK CFI edf8 .cfa: sp 32 +
STACK CFI ee00 .cfa: sp 0 +
STACK CFI ee04 .cfa: x29 32 +
STACK CFI INIT eeb0 84 .cfa: sp 0 +
STACK CFI eeb8 .cfa: sp 32 +
STACK CFI eec0 .cfa: x29 32 + x19: .cfa -8 + ^ x20: .cfa -16 + ^ .ra: .cfa -24 + ^ x29: .cfa -32 + ^
STACK CFI ef00 .cfa: sp 32 +
STACK CFI ef08 .cfa: sp 0 +
STACK CFI ef10 .cfa: x29 32 +
STACK CFI INIT f774 9c .cfa: sp 0 +
STACK CFI INIT f810 50 .cfa: sp 0 +
STACK CFI f814 .cfa: sp 32 +
STACK CFI f81c .cfa: x29 32 + x19: .cfa -16 + ^ .ra: .cfa -24 + ^ x29: .cfa -32 + ^
STACK CFI f834 .cfa: sp 32 +
STACK CFI f83c .cfa: sp 0 +
STACK CFI f840 .cfa: x29 32 +
STACK CFI f854 .cfa: sp 32 +
STACK CFI f85c .cfa: sp 0 +
STACK CFI INIT f860 64 .cfa: sp 0 +
STACK CFI f864 .cfa: sp 32 +
STACK CFI f86c .cfa: x29 32 + x19: .cfa -16 + ^ .ra: .cfa -24 + ^ x29: .cfa -32 + ^
STACK CFI f898 .cfa: sp 32 +
STACK CFI f8a0 .cfa: sp 0 +
STACK CFI f8a4 .cfa: x29 32 +
STACK CFI f8b8 .cfa: sp 32 +
STACK CFI f8c0 .cfa: sp 0 +
STACK CFI INIT f8c4 130 .cfa: sp 0 +
STACK CFI f8c8 .cfa: sp 80 +
STACK CFI f8d8 .cfa: x29 48 + x19: .cfa -8 + ^ x20: .cfa -16 + ^ x21: .cfa -24 + ^ x22: .cfa -32 + ^ .ra: .cfa -40 + ^ x29: .cfa -48 + ^
STACK CFI f9dc .cfa: sp 80 +
STACK CFI f9ec .cfa: sp 0 +
STACK CFI f9f0 .cfa: x29 48 +
STACK CFI INIT f9f4 f8 .cfa: sp 0 +
STACK CFI f9f8 .cfa: sp 64 +
STACK CFI fa08 .cfa: x29 64 + x19: .cfa -8 + ^ x20: .cfa -16 + ^ x21: .cfa -24 + ^ x22: .cfa -32 + ^ x23: .cfa -48 + ^ .ra: .cfa -56 + ^ x29: .cfa -64 + ^
STACK CFI fa64 .cfa: sp 64 +
STACK CFI fa74 .cfa: sp 0 +
STACK CFI fa78 .cfa: x29 64 +
STACK CFI fa94 .cfa: sp 64 +
STACK CFI faa4 .cfa: sp 0 +
STACK CFI faa8 .cfa: x29 64 +
STACK CFI fad8 .cfa: sp 64 +
STACK CFI fae8 .cfa: sp 0 +
STACK CFI INIT faec 314 .cfa: sp 0 +
STACK CFI faf0 .cfa: sp 96 +
STACK CFI fb08 .cfa: x29 96 + x19: .cfa -8 + ^ x20: .cfa -16 + ^ x21: .cfa -24 + ^ x22: .cfa -32 + ^ x23: .cfa -40 + ^ x24: .cfa -48 + ^ x25: .cfa -56 + ^ x26: .cfa -64 + ^ x27: .cfa -80 + ^ .ra: .cfa -88 + ^ x29: .cfa -96 + ^
STACK CFI fdc4 .cfa: sp 96 +
STACK CFI fddc .cfa: sp 0 +
STACK CFI fde0 .cfa: x29 96 +
STACK CFI INIT 10150 4 .cfa: sp 0 +
STACK CFI INIT 10154 c .cfa: sp 0 +
STACK CFI INIT 104cc 4 .cfa: sp 0 +
STACK CFI INIT 104d0 138 .cfa: sp 0 +
STACK CFI 104d4 .cfa: sp 64 +
STACK CFI 104e4 .cfa: x29 48 + x19: .cfa -8 + ^ x20: .cfa -16 + ^ x21: .cfa -24 + ^ x22: .cfa -32 + ^ .ra: .cfa -40 + ^ x29: .cfa -48 + ^
STACK CFI 105c4 .cfa: sp 64 +
STACK CFI 105d4 .cfa: sp 0 +
STACK CFI 105d8 .cfa: x29 48 +
STACK CFI 105f0 .cfa: sp 64 +
STACK CFI 10600 .cfa: sp 0 +
STACK CFI 10604 .cfa: x29 48 +
STACK CFI INIT 106b0 80 .cfa: sp 0 +
STACK CFI 106b4 .cfa: sp 32 +
STACK CFI 106bc .cfa: x29 32 + x19: .cfa -16 + ^ .ra: .cfa -24 + ^ x29: .cfa -32 + ^
STACK CFI 10724 .cfa: sp 32 +
STACK CFI 1072c .cfa: sp 0 +
STACK CFI INIT 10d18 4 .cfa: sp 0 +
STACK CFI INIT 11104 c8 .cfa: sp 0 +
STACK CFI 11108 .cfa: sp 64 +
STACK CFI 1111c .cfa: x29 40 + x19: .cfa -8 + ^ x20: .cfa -16 + ^ x21: .cfa -24 + ^ .ra: .cfa -32 + ^ x29: .cfa -40 + ^ v8: .cfa -48 + ^
STACK CFI 11164 .cfa: sp 64 +
STACK CFI 11178 .cfa: sp 0 +
STACK CFI 1117c .cfa: x29 40 +
STACK CFI INIT 11274 90 .cfa: sp 0 +
STACK CFI 11278 .cfa: sp 32 +
STACK CFI 11280 .cfa: x29 32 + x19: .cfa -16 + ^ .ra: .cfa -24 + ^ x29: .cfa -32 + ^
STACK CFI 112f8 .cfa: sp 32 +
STACK CFI 11300 .cfa: sp 0 +
STACK CFI INIT 11640 4 .cfa: sp 0 +
STACK CFI INIT 119bc 8c .cfa: sp 0 +
STACK CFI 119c0 .cfa: sp 32 +
STACK CFI 119c8 .cfa: x29 32 + x19: .cfa -16 + ^ .ra: .cfa -24 + ^ x29: .cfa -32 + ^
STACK CFI 11a3c .cfa: sp 32 +
STACK CFI 11a44 .cfa: sp 0 +
STACK CFI INIT 11dd4 4 .cfa: sp 0 +
STACK CFI INIT 11dd8 40 .cfa: sp 0 +
STACK CFI 11de8 .cfa: sp 32 +
STACK CFI 11df0 .cfa: x29 32 + x19: .cfa -16 + ^ .ra: .cfa -24 + ^ x29: .cfa -32 + ^
STACK CFI 11e08 .cfa: sp 32 +
STACK CFI 11e10 .cfa: sp 0 +
STACK CFI INIT 1214c 4 .cfa: sp 0 +
STACK CFI INIT 12150 40 .cfa: sp 0 +
STACK CFI 12160 .cfa: sp 32 +
STACK CFI 12168 .cfa: x29 32 + x19: .cfa -16 + ^ .ra: .cfa -24 + ^ x29: .cfa -32 + ^
STACK CFI 12180 .cfa: sp 32 +
STACK CFI 12188 .cfa: sp 0 +
STACK CFI INIT 124fc 4 .cfa: sp 0 +
STACK CFI INIT 12500 a8 .cfa: sp 0 +
STACK CFI 12504 .cfa: sp 48 +
STACK CFI 12510 .cfa: x29 48 + x19: .cfa -8 + ^ x20: .cfa -16 + ^ x21: .cfa -32 + ^ .ra: .cfa -40 + ^ x29: .cfa -48 + ^
STACK CFI 12550 .cfa: sp 48 +
STACK CFI 1255c .cfa: sp 0 +
STACK CFI 12560 .cfa: x29 48 +
STACK CFI 12598 .cfa: sp 48 +
STACK CFI 125a4 .cfa: sp 0 +
STACK CFI INIT 125a8 3c .cfa: sp 0 +
STACK CFI 125ac .cfa: sp 32 +
STACK CFI 125b4 .cfa: x29 32 + x19: .cfa -16 + ^ .ra: .cfa -24 + ^ x29: .cfa -32 + ^
STACK CFI 125c0 .cfa: sp 32 +
STACK CFI 125c8 .cfa: sp 0 +
STACK CFI 125cc .cfa: x29 32 +
STACK CFI 125d8 .cfa: sp 32 +
STACK CFI 125e0 .cfa: sp 0 +
STACK CFI INIT b530 45c .cfa: sp 0 +
STACK CFI b534 .cfa: sp 224 +
STACK CFI b550 .cfa: x29 96 + x19: .cfa -8 + ^ x20: .cfa -16 + ^ x21: .cfa -24 + ^ x22: .cfa -32 + ^ x23: .cfa -40 + ^ x24: .cfa -48 + ^ x25: .cfa -56 + ^ x26: .cfa -64 + ^ x27: .cfa -72 + ^ x28: .cfa -80 + ^ .ra: .cfa -88 + ^ x29: .cfa -96 + ^
STACK CFI b874 .cfa: sp 224 +
STACK CFI b890 .cfa: sp 0 +
STACK CFI b894 .cfa: x29 96 +
STACK CFI INIT b98c 45c .cfa: sp 0 +
STACK CFI b990 .cfa: sp 224 +
STACK CFI b9ac .cfa: x29 96 + x19: .cfa -8 + ^ x20: .cfa -16 + ^ x21: .cfa -24 + ^ x22: .cfa -32 + ^ x23: .cfa -40 + ^ x24: .cfa -48 + ^ x25: .cfa -56 + ^ x26: .cfa -64 + ^ x27: .cfa -72 + ^ x28: .cfa -80 + ^ .ra: .cfa -88 + ^ x29: .cfa -96 + ^
STACK CFI bcd0 .cfa: sp 224 +
STACK CFI bcec .cfa: sp 0 +
STACK CFI bcf0 .cfa: x29 96 +
STACK CFI INIT bde8 45c .cfa: sp 0 +
STACK CFI bdec .cfa: sp 224 +
STACK CFI be08 .cfa: x29 96 + x19: .cfa -8 + ^ x20: .cfa -16 + ^ x21: .cfa -24 + ^ x22: .cfa -32 + ^ x23: .cfa -40 + ^ x24: .cfa -48 + ^ x25: .cfa -56 + ^ x26: .cfa -64 + ^ x27: .cfa -72 + ^ x28: .cfa -80 + ^ .ra: .cfa -88 + ^ x29: .cfa -96 + ^
STACK CFI c12c .cfa: sp 224 +
STACK CFI c148 .cfa: sp 0 +
STACK CFI c14c .cfa: x29 96 +
STACK CFI INIT c244 45c .cfa: sp 0 +
STACK CFI c248 .cfa: sp 224 +
STACK CFI c264 .cfa: x29 96 + x19: .cfa -8 + ^ x20: .cfa -16 + ^ x21: .cfa -24 + ^ x22: .cfa -32 + ^ x23: .cfa -40 + ^ x24: .cfa -48 + ^ x25: .cfa -56 + ^ x26: .cfa -64 + ^ x27: .cfa -72 + ^ x28: .cfa -80 + ^ .ra: .cfa -88 + ^ x29: .cfa -96 + ^
STACK CFI c588 .cfa: sp 224 +
STACK CFI c5a4 .cfa: sp 0 +
STACK CFI c5a8 .cfa: x29 96 +
STACK CFI INIT c6a0 45c .cfa: sp 0 +
STACK CFI c6a4 .cfa: sp 224 +
STACK CFI c6c0 .cfa: x29 96 + x19: .cfa -8 + ^ x20: .cfa -16 + ^ x21: .cfa -24 + ^ x22: .cfa -32 + ^ x23: .cfa -40 + ^ x24: .cfa -48 + ^ x25: .cfa -56 + ^ x26: .cfa -64 + ^ x27: .cfa -72 + ^ x28: .cfa -80 + ^ .ra: .cfa -88 + ^ x29: .cfa -96 + ^
STACK CFI c9e4 .cfa: sp 224 +
STACK CFI ca00 .cfa: sp 0 +
STACK CFI ca04 .cfa: x29 96 +
STACK CFI INIT cafc 45c .cfa: sp 0 +
STACK CFI cb00 .cfa: sp 224 +
STACK CFI cb1c .cfa: x29 96 + x19: .cfa -8 + ^ x20: .cfa -16 + ^ x21: .cfa -24 + ^ x22: .cfa -32 + ^ x23: .cfa -40 + ^ x24: .cfa -48 + ^ x25: .cfa -56 + ^ x26: .cfa -64 + ^ x27: .cfa -72 + ^ x28: .cfa -80 + ^ .ra: .cfa -88 + ^ x29: .cfa -96 + ^
STACK CFI ce40 .cfa: sp 224 +
STACK CFI ce5c .cfa: sp 0 +
STACK CFI ce60 .cfa: x29 96 +
STACK CFI INIT cf58 45c .cfa: sp 0 +
STACK CFI cf5c .cfa: sp 224 +
STACK CFI cf78 .cfa: x29 96 + x19: .cfa -8 + ^ x20: .cfa -16 + ^ x21: .cfa -24 + ^ x22: .cfa -32 + ^ x23: .cfa -40 + ^ x24: .cfa -48 + ^ x25: .cfa -56 + ^ x26: .cfa -64 + ^ x27: .cfa -72 + ^ x28: .cfa -80 + ^ .ra: .cfa -88 + ^ x29: .cfa -96 + ^
STACK CFI d29c .cfa: sp 224 +
STACK CFI d2b8 .cfa: sp 0 +
STACK CFI d2bc .cfa: x29 96 +
STACK CFI INIT d3b4 45c .cfa: sp 0 +
STACK CFI d3b8 .cfa: sp 224 +
STACK CFI d3d4 .cfa: x29 96 + x19: .cfa -8 + ^ x20: .cfa -16 + ^ x21: .cfa -24 + ^ x22: .cfa -32 + ^ x23: .cfa -40 + ^ x24: .cfa -48 + ^ x25: .cfa -56 + ^ x26: .cfa -64 + ^ x27: .cfa -72 + ^ x28: .cfa -80 + ^ .ra: .cfa -88 + ^ x29: .cfa -96 + ^
STACK CFI d6f8 .cfa: sp 224 +
STACK CFI d714 .cfa: sp 0 +
STACK CFI d718 .cfa: x29 96 +
STACK CFI INIT d8d0 2f8 .cfa: sp 0 +
STACK CFI d8d4 .cfa: sp 176 +
STACK CFI d8e8 .cfa: x29 64 + x19: .cfa -8 + ^ x20: .cfa -16 + ^ x21: .cfa -24 + ^ x22: .cfa -32 + ^ x23: .cfa -48 + ^ .ra: .cfa -56 + ^ x29: .cfa -64 + ^
STACK CFI dabc .cfa: sp 176 +
STACK CFI dad0 .cfa: sp 0 +
STACK CFI dad4 .cfa: x29 64 +
STACK CFI INIT dc18 74 .cfa: sp 0 +
STACK CFI dc1c .cfa: sp 48 +
STACK CFI dc28 .cfa: x29 32 + x19: .cfa -8 + ^ x20: .cfa -16 + ^ .ra: .cfa -24 + ^ x29: .cfa -32 + ^
STACK CFI dc74 .cfa: sp 48 +
STACK CFI dc80 .cfa: sp 0 +
STACK CFI dc84 .cfa: x29 32 +
STACK CFI INIT dd1c 6fc .cfa: sp 0 +
STACK CFI dd20 .cfa: sp 496 +
STACK CFI dd3c .cfa: x29 96 + x19: .cfa -8 + ^ x20: .cfa -16 + ^ x21: .cfa -24 + ^ x22: .cfa -32 + ^ x23: .cfa -40 + ^ x24: .cfa -48 + ^ x25: .cfa -56 + ^ x26: .cfa -64 + ^ x27: .cfa -72 + ^ x28: .cfa -80 + ^ .ra: .cfa -88 + ^ x29: .cfa -96 + ^
STACK CFI e2ec .cfa: sp 496 +
STACK CFI e308 .cfa: sp 0 +
STACK CFI e30c .cfa: x29 96 +
STACK CFI INIT e504 50 .cfa: sp 0 +
STACK CFI e508 .cfa: sp 32 +
STACK CFI e510 .cfa: x29 32 + x19: .cfa -8 + ^ x20: .cfa -16 + ^ .ra: .cfa -24 + ^ x29: .cfa -32 + ^
STACK CFI INIT e5b8 224 .cfa: sp 0 +
STACK CFI e5bc .cfa: sp 128 +
STACK CFI e5d4 .cfa: x29 80 + x19: .cfa -8 + ^ x20: .cfa -16 + ^ x21: .cfa -24 + ^ x22: .cfa -32 + ^ x23: .cfa -40 + ^ x24: .cfa -48 + ^ x25: .cfa -64 + ^ .ra: .cfa -72 + ^ x29: .cfa -80 + ^
STACK CFI e770 .cfa: sp 128 +
STACK CFI e788 .cfa: sp 0 +
STACK CFI e78c .cfa: x29 80 +
STACK CFI INIT ef34 798 .cfa: sp 0 +
STACK CFI ef38 .cfa: sp 368 +
STACK CFI ef54 .cfa: x29 96 + x19: .cfa -8 + ^ x20: .cfa -16 + ^ x21: .cfa -24 + ^ x22: .cfa -32 + ^ x23: .cfa -40 + ^ x24: .cfa -48 + ^ x25: .cfa -56 + ^ x26: .cfa -64 + ^ x27: .cfa -72 + ^ x28: .cfa -80 + ^ .ra: .cfa -88 + ^ x29: .cfa -96 + ^
STACK CFI f568 .cfa: sp 368 +
STACK CFI f584 .cfa: sp 0 +
STACK CFI f588 .cfa: x29 96 +
STACK CFI INIT f6cc a8 .cfa: sp 0 +
STACK CFI f6d0 .cfa: sp 32 +
STACK CFI f6d8 .cfa: x29 32 + x19: .cfa -16 + ^ .ra: .cfa -24 + ^ x29: .cfa -32 + ^
STACK CFI f70c .cfa: sp 32 +
STACK CFI f714 .cfa: sp 0 +
STACK CFI f718 .cfa: x29 32 +
STACK CFI f71c .cfa: sp 32 +
STACK CFI f724 .cfa: sp 0 +
STACK CFI f728 .cfa: x29 32 +
STACK CFI INIT fe00 350 .cfa: sp 0 +
STACK CFI fe04 .cfa: sp 208 +
STACK CFI fe18 .cfa: x29 64 + x19: .cfa -8 + ^ x20: .cfa -16 + ^ x21: .cfa -24 + ^ x22: .cfa -32 + ^ x23: .cfa -48 + ^ .ra: .cfa -56 + ^ x29: .cfa -64 + ^
STACK CFI 1002c .cfa: sp 208 +
STACK CFI 10040 .cfa: sp 0 +
STACK CFI 10044 .cfa: x29 64 +
STACK CFI INIT 10160 36c .cfa: sp 0 +
STACK CFI 10164 .cfa: sp 256 +
STACK CFI 10178 .cfa: x29 64 + x19: .cfa -8 + ^ x20: .cfa -16 + ^ x21: .cfa -24 + ^ x22: .cfa -32 + ^ x23: .cfa -48 + ^ .ra: .cfa -56 + ^ x29: .cfa -64 + ^
STACK CFI 103a8 .cfa: sp 256 +
STACK CFI 103bc .cfa: sp 0 +
STACK CFI 103c0 .cfa: x29 64 +
STACK CFI INIT 10608 a8 .cfa: sp 0 +
STACK CFI 1060c .cfa: sp 32 +
STACK CFI 10614 .cfa: x29 32 + x19: .cfa -16 + ^ .ra: .cfa -24 + ^ x29: .cfa -32 + ^
STACK CFI 10648 .cfa: sp 32 +
STACK CFI 10650 .cfa: sp 0 +
STACK CFI 10654 .cfa: x29 32 +
STACK CFI 10658 .cfa: sp 32 +
STACK CFI 10660 .cfa: sp 0 +
STACK CFI 10664 .cfa: x29 32 +
STACK CFI INIT 10730 5e8 .cfa: sp 0 +
STACK CFI 10734 .cfa: sp 256 +
STACK CFI 1074c .cfa: x29 80 + x19: .cfa -8 + ^ x20: .cfa -16 + ^ x21: .cfa -24 + ^ x22: .cfa -32 + ^ x23: .cfa -40 + ^ x24: .cfa -48 + ^ x25: .cfa -56 + ^ x26: .cfa -64 + ^ .ra: .cfa -72 + ^ x29: .cfa -80 + ^
STACK CFI 10b44 .cfa: sp 256 +
STACK CFI 10b5c .cfa: sp 0 +
STACK CFI 10b60 .cfa: x29 80 +
STACK CFI INIT 10d1c 3e8 .cfa: sp 0 +
STACK CFI 10d20 .cfa: sp 224 +
STACK CFI 10d34 .cfa: x29 64 + x19: .cfa -8 + ^ x20: .cfa -16 + ^ x21: .cfa -24 + ^ x22: .cfa -32 + ^ x23: .cfa -48 + ^ .ra: .cfa -56 + ^ x29: .cfa -64 + ^
STACK CFI 1102c .cfa: sp 224 +
STACK CFI 11040 .cfa: sp 0 +
STACK CFI 11044 .cfa: x29 64 +
STACK CFI INIT 111cc a8 .cfa: sp 0 +
STACK CFI 111d0 .cfa: sp 32 +
STACK CFI 111d8 .cfa: x29 32 + x19: .cfa -16 + ^ .ra: .cfa -24 + ^ x29: .cfa -32 + ^
STACK CFI 1120c .cfa: sp 32 +
STACK CFI 11214 .cfa: sp 0 +
STACK CFI 11218 .cfa: x29 32 +
STACK CFI 1121c .cfa: sp 32 +
STACK CFI 11224 .cfa: sp 0 +
STACK CFI 11228 .cfa: x29 32 +
STACK CFI INIT 11304 1c .cfa: sp 0 +
STACK CFI 11308 .cfa: sp 16 +
STACK CFI 1130c .cfa: x29 16 + .ra: .cfa -8 + ^ x29: .cfa -16 + ^
STACK CFI 11314 .cfa: sp 16 +
STACK CFI 11318 .cfa: sp 0 +
STACK CFI 1131c .cfa: x29 16 +
STACK CFI INIT 11320 320 .cfa: sp 0 +
STACK CFI 11324 .cfa: sp 224 +
STACK CFI 11338 .cfa: x29 64 + x19: .cfa -8 + ^ x20: .cfa -16 + ^ x21: .cfa -24 + ^ x22: .cfa -32 + ^ x23: .cfa -48 + ^ .ra: .cfa -56 + ^ x29: .cfa -64 + ^
STACK CFI 1152c .cfa: sp 224 +
STACK CFI 11540 .cfa: sp 0 +
STACK CFI 11544 .cfa: x29 64 +
STACK CFI INIT 11644 2d0 .cfa: sp 0 +
STACK CFI 11648 .cfa: sp 80 +
STACK CFI 1165c .cfa: x29 80 + x19: .cfa -8 + ^ x20: .cfa -16 + ^ x21: .cfa -24 + ^ x22: .cfa -32 + ^ x23: .cfa -40 + ^ x24: .cfa -48 + ^ x25: .cfa -56 + ^ x26: .cfa -64 + ^ .ra: .cfa -72 + ^ x29: .cfa -80 + ^
STACK CFI 118a8 .cfa: sp 80 +
STACK CFI 118bc .cfa: sp 0 +
STACK CFI 118c0 .cfa: x29 80 +
STACK CFI INIT 11914 a8 .cfa: sp 0 +
STACK CFI 11918 .cfa: sp 32 +
STACK CFI 11920 .cfa: x29 32 + x19: .cfa -16 + ^ .ra: .cfa -24 + ^ x29: .cfa -32 + ^
STACK CFI 11954 .cfa: sp 32 +
STACK CFI 1195c .cfa: sp 0 +
STACK CFI 11960 .cfa: x29 32 +
STACK CFI 11964 .cfa: sp 32 +
STACK CFI 1196c .cfa: sp 0 +
STACK CFI 11970 .cfa: x29 32 +
STACK CFI INIT 11a48 1c .cfa: sp 0 +
STACK CFI 11a4c .cfa: sp 16 +
STACK CFI 11a50 .cfa: x29 16 + .ra: .cfa -8 + ^ x29: .cfa -16 + ^
STACK CFI 11a58 .cfa: sp 16 +
STACK CFI 11a5c .cfa: sp 0 +
STACK CFI 11a60 .cfa: x29 16 +
STACK CFI INIT 11a64 370 .cfa: sp 0 +
STACK CFI 11a68 .cfa: sp 256 +
STACK CFI 11a7c .cfa: x29 64 + x19: .cfa -8 + ^ x20: .cfa -16 + ^ x21: .cfa -24 + ^ x22: .cfa -32 + ^ x23: .cfa -48 + ^ .ra: .cfa -56 + ^ x29: .cfa -64 + ^
STACK CFI 11ca8 .cfa: sp 256 +
STACK CFI 11cbc .cfa: sp 0 +
STACK CFI 11cc0 .cfa: x29 64 +
STACK CFI INIT 11e18 334 .cfa: sp 0 +
STACK CFI 11e1c .cfa: sp 240 +
STACK CFI 11e30 .cfa: x29 64 + x19: .cfa -8 + ^ x20: .cfa -16 + ^ x21: .cfa -24 + ^ x22: .cfa -32 + ^ x23: .cfa -48 + ^ .ra: .cfa -56 + ^ x29: .cfa -64 + ^
STACK CFI 12030 .cfa: sp 240 +
STACK CFI 12044 .cfa: sp 0 +
STACK CFI 12048 .cfa: x29 64 +
STACK CFI INIT 12190 36c .cfa: sp 0 +
STACK CFI 12194 .cfa: sp 224 +
STACK CFI 121a8 .cfa: x29 64 + x19: .cfa -8 + ^ x20: .cfa -16 + ^ x21: .cfa -24 + ^ x22: .cfa -32 + ^ x23: .cfa -40 + ^ x24: .cfa -48 + ^ .ra: .cfa -56 + ^ x29: .cfa -64 + ^
STACK CFI 123d0 .cfa: sp 224 +
STACK CFI 123e4 .cfa: sp 0 +
STACK CFI 123e8 .cfa: x29 64 +
