MODULE Linux arm64 C47227325E615271163551E9FE264C6F0 techstudent10.hide_locks.android64.so
INFO CODE_ID 322772C4615E7152163551E9FE264C6FC9DC5B2D
INFO GENERATOR mozilla/dump_syms 2.3.4
FILE 0 /usr/local/lib/android/sdk/ndk/27.2.12479018/toolchains/llvm/prebuilt/linux-x86_64/sysroot/usr/include/c++/v1/variant
FILE 1 /usr/local/lib/android/sdk/ndk/27.2.12479018/toolchains/llvm/prebuilt/linux-x86_64/sysroot/usr/include/c++/v1/stdexcept
FILE 2 /usr/local/lib/android/sdk/ndk/27.2.12479018/toolchains/llvm/prebuilt/linux-x86_64/sysroot/usr/include/c++/v1/new
FILE 3 /home/runner/work/HideLocks/HideLocks/build/bindings/bindings/Geode/modify/GJItemIcon.hpp
FILE 4 /home/runner/work/HideLocks/HideLocks/geode-sdk-clone/loader/include/Geode/modify/Modify.hpp
FILE 5 /usr/local/lib/android/sdk/ndk/27.2.12479018/toolchains/llvm/prebuilt/linux-x86_64/sysroot/usr/include/c++/v1/string
FILE 6 /home/runner/work/HideLocks/HideLocks/cpm-cache/result/28b1b03e0682509636d5e5825265ce2421aac4dc/include/Geode/Result.hpp
FILE 7 /usr/local/lib/android/sdk/ndk/27.2.12479018/toolchains/llvm/prebuilt/linux-x86_64/sysroot/usr/include/c++/v1/vector
FILE 8 /usr/local/lib/android/sdk/ndk/27.2.12479018/toolchains/llvm/prebuilt/linux-x86_64/sysroot/usr/include/c++/v1/__split_buffer
FILE 9 /usr/local/lib/android/sdk/ndk/27.2.12479018/toolchains/llvm/prebuilt/linux-x86_64/sysroot/usr/include/c++/v1/__memory/shared_ptr.h
FILE 10 /usr/local/lib/android/sdk/ndk/27.2.12479018/toolchains/llvm/prebuilt/linux-x86_64/sysroot/usr/include/c++/v1/__tree
FILE 11 /home/runner/work/HideLocks/HideLocks/cpm-cache/tuliphook/727bc6fdab39f84eb52f1519195d5488a312e77e/include/tulip/HandlerData.hpp
FILE 12 /usr/local/lib/android/sdk/ndk/27.2.12479018/toolchains/llvm/prebuilt/linux-x86_64/sysroot/usr/include/c++/v1/sstream
FILE 13 /home/runner/work/HideLocks/HideLocks/geode-sdk-clone/entry.cpp
PUBLIC 2810 0 __on_dlclose
PUBLIC 2820 0 __emutls_unregister_key
PUBLIC 2828 0 __on_dlclose_late
PUBLIC 2830 0 __atexit_handler_wrapper
PUBLIC 2844 0 atexit
PUBLIC 2860 0 pthread_atfork
PUBLIC 2870 0 __aarch64_ldadd8_relax
PUBLIC 28a0 0 init_have_lse_atomics
PUBLIC 2938 0 __init_cpu_features_constructor
PUBLIC 2ed4 0 __init_cpu_features
PUBLIC 2f60 0 __aarch64_ldadd8_acq_rel
FUNC 2f90 af4 0 __cxx_global_var_init
2fb4 ad0 346 4
FUNC 3a84 18 0 geode::modifier::ModifyBase<geode::modifier::ModifyDerive<hook6<(anonymous namespace)::hook6Parent>, GJItemIcon> >::~ModifyBase()
3a84 18 141 4
FUNC 3a9c 604 0 geode::modifier::ModifyDerive<hook6<(anonymous namespace)::hook6Parent>, GJItemIcon>::apply()
3a9c 34 116 3
3ad0 4e0 123 3
3fb0 30 129 3
3fe0 c0 123 3
FUNC 40a0 50 0 std::__ndk1::shared_ptr<geode::Hook>::~shared_ptr[abi:ne180000]()
40a0 c 643 9
40ac 8 644 9
40b4 10 645 9
40c4 c 646 9
40d0 20 645 9
FUNC 40f0 74 0 geode::impl::ResultData<geode::Hook*, std::__ndk1::basic_string<char, std::__ndk1::char_traits<char>, std::__ndk1::allocator<char> > >::~ResultData()
40f0 74 334 6
FUNC 4164 7c 0 std::__ndk1::vector<std::__ndk1::basic_string<char, std::__ndk1::char_traits<char>, std::__ndk1::allocator<char> >, std::__ndk1::allocator<std::__ndk1::basic_string<char, std::__ndk1::char_traits<char>, std::__ndk1::allocator<char> > > >::~vector[abi:ne180000]()
4164 7c 501 7
FUNC 41e0 4 0 geode::modifier::ModifyBase<geode::modifier::ModifyDerive<hook6<(anonymous namespace)::hook6Parent>, GJItemIcon> >::apply()
41e0 4 316 4
PUBLIC 41e4 0 __clang_call_terminate
FUNC 41f4 6e0 0 _ZN5geode15UnwrapExceptionC2IRPNS_4HookEQsr4implE18IsStringStreamableIT_EEENS_4impl5OkTagEOS5_
41f4 24 316 6
4218 50c 315 6
4724 4c 314 6
4770 4 315 6
4774 10 314 6
4784 4 315 6
4788 4 314 6
478c 3c 316 6
47c8 e4 315 6
48ac 28 314 6
FUNC 48d4 34 0 std::__ndk1::__throw_bad_variant_access[abi:ne180000]()
48d4 8 285 0
48dc 2c 287 0
FUNC 4908 80 0 std::__ndk1::basic_stringstream<char, std::__ndk1::char_traits<char>, std::__ndk1::allocator<char> >::~basic_stringstream()
4908 80 1102 12
FUNC 4988 24 0 geode::UnwrapException::~UnwrapException()
4988 24 325 6
FUNC 49ac 14 0 std::__ndk1::basic_string<char, std::__ndk1::char_traits<char>, std::__ndk1::allocator<char> >::__throw_length_error[abi:ne180000]() const
49ac 8 2118 5
49b4 c 2119 5
FUNC 49c0 50 0 std::__ndk1::__throw_length_error[abi:ne180000](char const*)
49c0 10 239 1
49d0 40 241 1
FUNC 4a10 30 0 std::length_error::length_error[abi:ne180000](char const*)
4a10 30 152 1
FUNC 4a40 34 0 std::__throw_bad_array_new_length([abi:ne180000], void)
4a40 c 172 2
4a4c 28 174 2
FUNC 4a74 6c 0 std::__ndk1::basic_string<char, std::__ndk1::char_traits<char>, std::__ndk1::allocator<char> >::__init_copy_ctor_external(char const*, unsigned long)
4a74 14 2232 5
4a88 8 2237 5
4a90 c 2239 5
4a9c 8 2241 5
4aa4 14 2243 5
4ab8 8 2247 5
4ac0 4 2246 5
4ac4 4 2247 5
4ac8 14 2250 5
4adc 4 2242 5
FUNC 4ae0 68 0 std::__ndk1::__split_buffer<std::__ndk1::basic_string<char, std::__ndk1::char_traits<char>, std::__ndk1::allocator<char> >, std::__ndk1::allocator<std::__ndk1::basic_string<char, std::__ndk1::char_traits<char>, std::__ndk1::allocator<char> > >&>::~__split_buffer()
4ae0 c 352 8
4aec 10 353 8
4afc 8 354 8
4b04 c 355 8
4b10 2c 353 8
4b3c c 356 8
FUNC 4b48 14 0 std::__ndk1::vector<std::__ndk1::basic_string<char, std::__ndk1::char_traits<char>, std::__ndk1::allocator<char> >, std::__ndk1::allocator<std::__ndk1::basic_string<char, std::__ndk1::char_traits<char>, std::__ndk1::allocator<char> > > >::__throw_length_error[abi:ne180000]() const
4b48 14 940 7
FUNC 4b5c 4 0 std::__ndk1::__variant_detail::__visitation::__base::__dispatcher<(unsigned long)0>::__dispatch[abi:ne180000]<std::__ndk1::__variant_detail::__dtor<std::__ndk1::__variant_detail::__traits<geode::Hook*, std::__ndk1::basic_string<char, std::__ndk1::char_traits<char>, std::__ndk1::allocator<char> > >, (std::__ndk1::__variant_detail::_Trait)1>::__destroy[abi:ne180000]()::{lambda(auto:1&)#1}, std::__ndk1::__variant_detail::__base<(std::__ndk1::__variant_detail::__traits<geode::Hook*, std::__ndk1::basic_string<char, std::__ndk1::char_traits<char>, std::__ndk1::allocator<char> > >)1, geode::Hook, std::__ndk1::allocator<char> >&>(std::__ndk1::__variant_detail::__dtor<std::__ndk1::__variant_detail::__traits<geode::Hook*, std::__ndk1::basic_string<char, std::__ndk1::char_traits<char>, std::__ndk1::allocator<char> > >, (std::__ndk1::__variant_detail::_Trait)1>, std::__ndk1::__variant_detail::__base<(std::__ndk1::__variant_detail::__traits<geode::Hook*, std::__ndk1::basic_string<char, std::__ndk1::char_traits<char>, std::__ndk1::allocator<char> > >)1, geode::Hook, std::__ndk1::allocator<char> >&)
4b5c 4 526 0
FUNC 4b60 14 0 std::__ndk1::__variant_detail::__visitation::__base::__dispatcher<(unsigned long)1>::__dispatch[abi:ne180000]<std::__ndk1::__variant_detail::__dtor<std::__ndk1::__variant_detail::__traits<geode::Hook*, std::__ndk1::basic_string<char, std::__ndk1::char_traits<char>, std::__ndk1::allocator<char> > >, (std::__ndk1::__variant_detail::_Trait)1>::__destroy[abi:ne180000]()::{lambda(auto:1&)#1}, std::__ndk1::__variant_detail::__base<(std::__ndk1::__variant_detail::__traits<geode::Hook*, std::__ndk1::basic_string<char, std::__ndk1::char_traits<char>, std::__ndk1::allocator<char> > >)1, geode::Hook, std::__ndk1::allocator<char> >&>(std::__ndk1::__variant_detail::__dtor<std::__ndk1::__variant_detail::__traits<geode::Hook*, std::__ndk1::basic_string<char, std::__ndk1::char_traits<char>, std::__ndk1::allocator<char> > >, (std::__ndk1::__variant_detail::_Trait)1>, std::__ndk1::__variant_detail::__base<(std::__ndk1::__variant_detail::__traits<geode::Hook*, std::__ndk1::basic_string<char, std::__ndk1::char_traits<char>, std::__ndk1::allocator<char> > >)1, geode::Hook, std::__ndk1::allocator<char> >&)
4b60 14 526 0
FUNC 4b74 84 0 std::__ndk1::__tree<std::__ndk1::__value_type<std::__ndk1::basic_string<char, std::__ndk1::char_traits<char>, std::__ndk1::allocator<char> >, std::__ndk1::shared_ptr<geode::Hook> >, std::__ndk1::__map_value_compare<std::__ndk1::basic_string<char, std::__ndk1::char_traits<char>, std::__ndk1::allocator<char> >, std::__ndk1::__value_type<std::__ndk1::basic_string<char, std::__ndk1::char_traits<char>, std::__ndk1::allocator<char> >, std::__ndk1::shared_ptr<geode::Hook> >, std::__ndk1::less<std::__ndk1::basic_string<char, std::__ndk1::char_traits<char>, std::__ndk1::allocator<char> > >, true>, std::__ndk1::allocator<std::__ndk1::__value_type<std::__ndk1::basic_string<char, std::__ndk1::char_traits<char>, std::__ndk1::allocator<char> >, std::__ndk1::shared_ptr<geode::Hook> > > >::destroy(std::__ndk1::__tree_node<std::__ndk1::__value_type<std::__ndk1::basic_string<char, std::__ndk1::char_traits<char>, std::__ndk1::allocator<char> >, std::__ndk1::shared_ptr<geode::Hook> >, void*>*)
4b74 14 1544 10
4b88 8 1545 10
4b90 8 1546 10
4b98 28 1548 10
4bc0 10 1549 10
4bd0 4 1551 10
4bd4 24 1548 10
FUNC 4bf8 f0 0 geode::modifier::AsStaticFunction_changeToLockedState<hook6<(anonymous namespace)::hook6Parent>, void (hook6<(anonymous namespace)::hook6Parent>::*)(float)>::Impl<void (hook6<(anonymous namespace)::hook6Parent>::*)(float)>::function(hook6<(anonymous namespace)::hook6Parent>*, float)
4bf8 f0 35 3
FUNC 4ce8 50 0 std::__ndk1::shared_ptr<tulip::hook::CallingConvention>::~shared_ptr[abi:ne180000]()
4ce8 c 643 9
4cf4 8 644 9
4cfc 10 645 9
4d0c c 646 9
4d18 20 645 9
FUNC 4d38 64 0 tulip::hook::HandlerMetadata::~HandlerMetadata()
4d38 64 12 11
FUNC 4d9c 30 0 geodeImplicitEntry
4d9c c 16 13
4da8 18 18 13
4dc0 c 19 13
PUBLIC 4dd0 0 <.plt ELF section in techstudent10.hide_locks.android64.so>
STACK CFI INIT 2810 10 .cfa: sp 0 +
STACK CFI INIT 2820 8 .cfa: sp 0 +
STACK CFI INIT 2828 8 .cfa: sp 0 +
STACK CFI INIT 2830 14 .cfa: sp 0 +
STACK CFI INIT 2844 1c .cfa: sp 0 +
STACK CFI INIT 2860 10 .cfa: sp 0 +
STACK CFI INIT 2870 30 .cfa: sp 0 +
STACK CFI INIT 28a0 98 .cfa: sp 0 +
STACK CFI INIT 2938 59c .cfa: sp 0 +
STACK CFI INIT 2ed4 8c .cfa: sp 0 +
STACK CFI INIT 2f60 30 .cfa: sp 0 +
STACK CFI INIT 3a84 18 .cfa: sp 0 +
STACK CFI INIT 40a0 50 .cfa: sp 0 +
STACK CFI 40a4 .cfa: sp 32 +
STACK CFI 40ac .cfa: x29 32 + x19: .cfa -16 + ^ .ra: .cfa -24 + ^ x29: .cfa -32 + ^
STACK CFI 40c4 .cfa: sp 32 +
STACK CFI 40cc .cfa: sp 0 +
STACK CFI 40d0 .cfa: x29 32 +
STACK CFI 40e4 .cfa: sp 32 +
STACK CFI 40ec .cfa: sp 0 +
STACK CFI INIT 4164 7c .cfa: sp 0 +
STACK CFI 4168 .cfa: sp 48 +
STACK CFI 4174 .cfa: x29 48 + x19: .cfa -8 + ^ x20: .cfa -16 + ^ x21: .cfa -32 + ^ .ra: .cfa -40 + ^ x29: .cfa -48 + ^
STACK CFI 41c0 .cfa: sp 48 +
STACK CFI 41cc .cfa: sp 0 +
STACK CFI 41d0 .cfa: sp 48 +
STACK CFI 41dc .cfa: sp 0 +
STACK CFI INIT 41e0 4 .cfa: sp 0 +
STACK CFI INIT 41e4 10 .cfa: sp 0 +
STACK CFI 41e8 .cfa: sp 16 +
STACK CFI 41ec .cfa: x29 16 + .ra: .cfa -8 + ^ x29: .cfa -16 + ^
STACK CFI INIT 48d4 34 .cfa: sp 0 +
STACK CFI 48d8 .cfa: sp 16 +
STACK CFI 48dc .cfa: x29 16 + .ra: .cfa -8 + ^ x29: .cfa -16 + ^
STACK CFI INIT 4908 80 .cfa: sp 0 +
STACK CFI 490c .cfa: sp 48 +
STACK CFI 4918 .cfa: x29 48 + x19: .cfa -8 + ^ x20: .cfa -16 + ^ x21: .cfa -32 + ^ .ra: .cfa -40 + ^ x29: .cfa -48 + ^
STACK CFI 4978 .cfa: sp 48 +
STACK CFI 4984 .cfa: sp 0 +
STACK CFI INIT 4988 24 .cfa: sp 0 +
STACK CFI 498c .cfa: sp 32 +
STACK CFI 4994 .cfa: x29 32 + x19: .cfa -16 + ^ .ra: .cfa -24 + ^ x29: .cfa -32 + ^
STACK CFI 49a0 .cfa: sp 32 +
STACK CFI 49a8 .cfa: sp 0 +
STACK CFI INIT 49ac 14 .cfa: sp 0 +
STACK CFI 49b0 .cfa: sp 16 +
STACK CFI 49b4 .cfa: x29 16 + .ra: .cfa -8 + ^ x29: .cfa -16 + ^
STACK CFI INIT 4a10 30 .cfa: sp 0 +
STACK CFI 4a14 .cfa: sp 32 +
STACK CFI 4a1c .cfa: x29 32 + x19: .cfa -16 + ^ .ra: .cfa -24 + ^ x29: .cfa -32 + ^
STACK CFI 4a34 .cfa: sp 32 +
STACK CFI 4a3c .cfa: sp 0 +
STACK CFI INIT 4a40 34 .cfa: sp 0 +
STACK CFI 4a44 .cfa: sp 32 +
STACK CFI 4a4c .cfa: x29 32 + x19: .cfa -16 + ^ .ra: .cfa -24 + ^ x29: .cfa -32 + ^
STACK CFI INIT 4a74 6c .cfa: sp 0 +
STACK CFI 4a78 .cfa: sp 48 +
STACK CFI 4a84 .cfa: x29 48 + x19: .cfa -8 + ^ x20: .cfa -16 + ^ x21: .cfa -24 + ^ x22: .cfa -32 + ^ .ra: .cfa -40 + ^ x29: .cfa -48 + ^
STACK CFI 4acc .cfa: sp 48 +
STACK CFI 4ad8 .cfa: sp 0 +
STACK CFI 4adc .cfa: x29 48 +
STACK CFI INIT 4ae0 68 .cfa: sp 0 +
STACK CFI 4ae4 .cfa: sp 32 +
STACK CFI 4aec .cfa: x29 32 + x19: .cfa -8 + ^ x20: .cfa -16 + ^ .ra: .cfa -24 + ^ x29: .cfa -32 + ^
STACK CFI 4b04 .cfa: sp 32 +
STACK CFI 4b0c .cfa: sp 0 +
STACK CFI 4b10 .cfa: x29 32 +
STACK CFI 4b3c .cfa: sp 32 +
STACK CFI 4b44 .cfa: sp 0 +
STACK CFI INIT 4b48 14 .cfa: sp 0 +
STACK CFI 4b4c .cfa: sp 16 +
STACK CFI 4b50 .cfa: x29 16 + .ra: .cfa -8 + ^ x29: .cfa -16 + ^
STACK CFI INIT 4b5c 4 .cfa: sp 0 +
STACK CFI INIT 4b60 14 .cfa: sp 0 +
STACK CFI INIT 4b74 84 .cfa: sp 0 +
STACK CFI 4b7c .cfa: sp 32 +
STACK CFI 4b84 .cfa: x29 32 + x19: .cfa -8 + ^ x20: .cfa -16 + ^ .ra: .cfa -24 + ^ x29: .cfa -32 + ^
STACK CFI 4bc4 .cfa: sp 32 +
STACK CFI 4bcc .cfa: sp 0 +
STACK CFI 4bd4 .cfa: x29 32 +
STACK CFI INIT 4bf8 f0 .cfa: sp 0 +
STACK CFI 4bfc .cfa: sp 48 +
STACK CFI 4c08 .cfa: x29 48 + x19: .cfa -8 + ^ x20: .cfa -16 + ^ x21: .cfa -32 + ^ .ra: .cfa -40 + ^ x29: .cfa -48 + ^
STACK CFI 4cd8 .cfa: sp 48 +
STACK CFI 4ce4 .cfa: sp 0 +
STACK CFI INIT 4ce8 50 .cfa: sp 0 +
STACK CFI 4cec .cfa: sp 32 +
STACK CFI 4cf4 .cfa: x29 32 + x19: .cfa -16 + ^ .ra: .cfa -24 + ^ x29: .cfa -32 + ^
STACK CFI 4d0c .cfa: sp 32 +
STACK CFI 4d14 .cfa: sp 0 +
STACK CFI 4d18 .cfa: x29 32 +
STACK CFI 4d2c .cfa: sp 32 +
STACK CFI 4d34 .cfa: sp 0 +
STACK CFI INIT 4d38 64 .cfa: sp 0 +
STACK CFI 4d3c .cfa: sp 32 +
STACK CFI 4d44 .cfa: x29 32 + x19: .cfa -16 + ^ .ra: .cfa -24 + ^ x29: .cfa -32 + ^
STACK CFI 4d70 .cfa: sp 32 +
STACK CFI 4d78 .cfa: sp 0 +
STACK CFI 4d7c .cfa: x29 32 +
STACK CFI 4d90 .cfa: sp 32 +
STACK CFI 4d98 .cfa: sp 0 +
STACK CFI INIT 4d9c 30 .cfa: sp 0 +
STACK CFI 4da0 .cfa: sp 32 +
STACK CFI 4da8 .cfa: x29 32 + x19: .cfa -16 + ^ .ra: .cfa -24 + ^ x29: .cfa -32 + ^
STACK CFI 4dc0 .cfa: sp 32 +
STACK CFI 4dc8 .cfa: sp 0 +
STACK CFI INIT 2f90 af4 .cfa: sp 0 +
STACK CFI 2f94 .cfa: sp 240 +
STACK CFI 2fb0 .cfa: x29 96 + x19: .cfa -8 + ^ x20: .cfa -16 + ^ x21: .cfa -24 + ^ x22: .cfa -32 + ^ x23: .cfa -40 + ^ x24: .cfa -48 + ^ x25: .cfa -56 + ^ x26: .cfa -64 + ^ x27: .cfa -72 + ^ x28: .cfa -80 + ^ .ra: .cfa -88 + ^ x29: .cfa -96 + ^
STACK CFI 3930 .cfa: sp 240 +
STACK CFI 394c .cfa: sp 0 +
STACK CFI 3950 .cfa: x29 96 +
STACK CFI INIT 3a9c 604 .cfa: sp 0 +
STACK CFI 3aa0 .cfa: sp 288 +
STACK CFI 3abc .cfa: x29 96 + x19: .cfa -8 + ^ x20: .cfa -16 + ^ x21: .cfa -24 + ^ x22: .cfa -32 + ^ x23: .cfa -40 + ^ x24: .cfa -48 + ^ x25: .cfa -56 + ^ x26: .cfa -64 + ^ x27: .cfa -72 + ^ x28: .cfa -80 + ^ .ra: .cfa -88 + ^ x29: .cfa -96 + ^
STACK CFI 3fc0 .cfa: sp 288 +
STACK CFI 3fdc .cfa: sp 0 +
STACK CFI 3fe0 .cfa: x29 96 +
STACK CFI INIT 40f0 74 .cfa: sp 0 +
STACK CFI 40f4 .cfa: sp 48 +
STACK CFI 4100 .cfa: x29 32 + x19: .cfa -8 + ^ x20: .cfa -16 + ^ .ra: .cfa -24 + ^ x29: .cfa -32 + ^
STACK CFI 414c .cfa: sp 48 +
STACK CFI 4158 .cfa: sp 0 +
STACK CFI 415c .cfa: x29 32 +
STACK CFI INIT 41f4 6e0 .cfa: sp 0 +
STACK CFI 41f8 .cfa: sp 496 +
STACK CFI 4214 .cfa: x29 96 + x19: .cfa -8 + ^ x20: .cfa -16 + ^ x21: .cfa -24 + ^ x22: .cfa -32 + ^ x23: .cfa -40 + ^ x24: .cfa -48 + ^ x25: .cfa -56 + ^ x26: .cfa -64 + ^ x27: .cfa -72 + ^ x28: .cfa -80 + ^ .ra: .cfa -88 + ^ x29: .cfa -96 + ^
STACK CFI 47a8 .cfa: sp 496 +
STACK CFI 47c4 .cfa: sp 0 +
STACK CFI 47c8 .cfa: x29 96 +
STACK CFI INIT 49c0 50 .cfa: sp 0 +
STACK CFI 49c4 .cfa: sp 32 +
STACK CFI 49cc .cfa: x29 32 + x19: .cfa -8 + ^ x20: .cfa -16 + ^ .ra: .cfa -24 + ^ x29: .cfa -32 + ^
