MODULE Linux arm64 7070CE10795D5A41E9DC97809BD02DDE0 alphalaneous.editortab_api.android64.so
INFO CODE_ID 10CE70705D79415AE9DC97809BD02DDE11049DBB
INFO GENERATOR mozilla/dump_syms 2.3.4
PUBLIC c410 0 __on_dlclose
PUBLIC c420 0 __emutls_unregister_key
PUBLIC c428 0 __on_dlclose_late
PUBLIC c430 0 __atexit_handler_wrapper
PUBLIC c444 0 atexit
PUBLIC c460 0 pthread_atfork
PUBLIC c470 0 __aarch64_ldadd8_relax
PUBLIC c4a0 0 init_have_lse_atomics
PUBLIC c538 0 __init_cpu_features_constructor
PUBLIC cad4 0 __init_cpu_features
PUBLIC cb60 0 __aarch64_ldadd8_acq_rel
PUBLIC cb90 0 getPagesChildrenCount(cocos2d::CCNode*)
PUBLIC m ccc4 0 EditorTabs::registerTab(TabType, std::__ndk1::basic_string<char, std::__ndk1::char_traits<char>, std::__ndk1::allocator<char> >, std::__ndk1::function<cocos2d::CCNode* (EditorUI*, CCMenuItemToggler*)>, std::__ndk1::function<void (EditorUI*, bool, cocos2d::CCNode*)>)
PUBLIC d060 0 TabData::~TabData()
PUBLIC m d0f4 0 EditorTabs::addTab(EditorUI*, TabData)
PUBLIC dda0 0 TabData::TabData(TabData const&)
PUBLIC df18 0 EditorTabs::addTab(EditorUI*, TabData)::$_0::~$_0()
PUBLIC m dfac 0 EditorTabs::addTab(EditorUI*, TabType, std::__ndk1::basic_string<char, std::__ndk1::char_traits<char>, std::__ndk1::allocator<char> >, std::__ndk1::function<cocos2d::CCNode* (EditorUI*, CCMenuItemToggler*)>, std::__ndk1::function<void (EditorUI*, bool, cocos2d::CCNode*)>)
PUBLIC m e398 0 EditorTabs::getRegisteredTabs()
PUBLIC e3c8 0 __cxx_global_var_init
PUBLIC e84c 0 geode::modifier::ModifyBase<geode::modifier::ModifyDerive<MyEditButtonBar, EditButtonBar> >::~ModifyBase()
PUBLIC e864 0 __cxx_global_var_init.4
PUBLIC ed9c 0 geode::modifier::ModifyBase<geode::modifier::ModifyDerive<MyEditorUI, EditorUI> >::~ModifyBase()
PUBLIC edb4 0 __cxx_global_var_init.5
PUBLIC f2ec 0 geode::modifier::ModifyBase<geode::modifier::ModifyDerive<LateEditorUI, EditorUI> >::~ModifyBase()
PUBLIC f304 0 __cxx_global_var_init.6
PUBLIC f760 0 geode::modifier::ModifyBase<geode::modifier::ModifyDerive<hook676<(anonymous namespace)::hook676Parent>, EditorPauseLayer> >::~ModifyBase()
PUBLIC f778 0 std::__ndk1::basic_string<char, std::__ndk1::char_traits<char>, std::__ndk1::allocator<char> >::__throw_length_error[abi:ne180000]() const
PUBLIC f78c 0 std::__ndk1::__throw_length_error[abi:ne180000](char const*)
PUBLIC f7dc 0 std::length_error::length_error[abi:ne180000](char const*)
PUBLIC f80c 0 std::__throw_bad_array_new_length([abi:ne180000], void)
PUBLIC f840 0 __clang_call_terminate
PUBLIC f850 0 std::__ndk1::basic_string<char, std::__ndk1::char_traits<char>, std::__ndk1::allocator<char> >::__init_copy_ctor_external(char const*, unsigned long)
PUBLIC f8d0 0 std::__ndk1::vector<TabData, std::__ndk1::allocator<TabData> >::__push_back_slow_path<TabData const&>(TabData const&)
PUBLIC fc14 0 std::__ndk1::__split_buffer<TabData, std::__ndk1::allocator<TabData>&>::~__split_buffer()
PUBLIC fce0 0 std::__ndk1::vector<TabData, std::__ndk1::allocator<TabData> >::__throw_length_error[abi:ne180000]() const
PUBLIC fcf4 0 geode::modifier::FieldIntermediate<MyEditorUI, EditorUI>::self()
PUBLIC fe90 0 geode::modifier::FieldContainer::getField(unsigned long)
PUBLIC 102d4 0 geode::modifier::FieldContainer::setField(unsigned long, unsigned long, std::__ndk1::function<void (void*)>)
PUBLIC 103e0 0 geode::modifier::FieldIntermediate<MyEditorUI, EditorUI>::fieldDestructor(void*)
PUBLIC 104f4 0 std::__ndk1::vector<void*, std::__ndk1::allocator<void*> >::__throw_length_error[abi:ne180000]() const
PUBLIC 10508 0 std::__ndk1::vector<std::__ndk1::function<void (void*)>, std::__ndk1::allocator<std::__ndk1::function<void (void*)> > >::__throw_length_error[abi:ne180000]() const
PUBLIC 1051c 0 std::__ndk1::vector<void*, std::__ndk1::allocator<void*> >::__throw_out_of_range[abi:ne180000]() const
PUBLIC 10528 0 std::__ndk1::__throw_out_of_range[abi:ne180000](char const*)
PUBLIC 10578 0 std::out_of_range::out_of_range[abi:ne180000](char const*)
PUBLIC 105a8 0 std::__ndk1::vector<std::__ndk1::function<void (void*)>, std::__ndk1::allocator<std::__ndk1::function<void (void*)> > >::__throw_out_of_range[abi:ne180000]() const
PUBLIC 105b4 0 std::__ndk1::vector<TabData, std::__ndk1::allocator<TabData> >::~vector[abi:ne180000]()
PUBLIC 10694 0 std::__ndk1::__function::__base<void (void*)>::~__base()
PUBLIC 10698 0 std::__ndk1::__function::__func<void (*)(void*), std::__ndk1::allocator<void (*)(void*)>, void (void*)>::~__func()
PUBLIC 1069c 0 std::__ndk1::__function::__func<void (*)(void*), std::__ndk1::allocator<void (*)(void*)>, void (void*)>::__clone() const
PUBLIC 106d4 0 std::__ndk1::__function::__func<void (*)(void*), std::__ndk1::allocator<void (*)(void*)>, void (void*)>::__clone(std::__ndk1::__function::__base<void (void*)>*) const
PUBLIC 106ec 0 std::__ndk1::__function::__func<void (*)(void*), std::__ndk1::allocator<void (*)(void*)>, void (void*)>::destroy()
PUBLIC 106f0 0 std::__ndk1::__function::__func<void (*)(void*), std::__ndk1::allocator<void (*)(void*)>, void (void*)>::destroy_deallocate()
PUBLIC 106f4 0 std::__ndk1::__function::__func<void (*)(void*), std::__ndk1::allocator<void (*)(void*)>, void (void*)>::operator()(void*&&)
PUBLIC 10704 0 std::__ndk1::__function::__func<void (*)(void*), std::__ndk1::allocator<void (*)(void*)>, void (void*)>::target(std::type_info const&) const
PUBLIC 10720 0 std::__ndk1::__function::__func<void (*)(void*), std::__ndk1::allocator<void (*)(void*)>, void (void*)>::target_type() const
PUBLIC 1072c 0 geode::cocos::CCMenuItemExt::LambdaCallback<CCMenuItemToggler>::execute(cocos2d::CCNode*)
PUBLIC 1079c 0 cocos2d::CCCopying::copyWithZone(cocos2d::CCZone*)
PUBLIC 107a4 0 geode::cocos::CCMenuItemExt::LambdaCallback<CCMenuItemToggler>::~LambdaCallback()
PUBLIC 10800 0 geode::cocos::CCMenuItemExt::LambdaCallback<CCMenuItemToggler>::~LambdaCallback()
PUBLIC 10864 0 cocos2d::CCObject::update(float)
PUBLIC 10868 0 std::__ndk1::__throw_bad_function_call[abi:ne180000]()
PUBLIC 1089c 0 std::__ndk1::bad_function_call::~bad_function_call()
PUBLIC 108c0 0 std::__ndk1::vector<TabData, std::__ndk1::allocator<TabData> >::__init_with_size[abi:ne180000]<TabData*, std::__ndk1::vector<TabData, std::__ndk1::allocator<TabData> >::__init_with_size[abi:ne180000]>(TabData*, std::__ndk1::vector<TabData, std::__ndk1::allocator<TabData> >::__init_with_size[abi:ne180000], unsigned long)
PUBLIC 10a04 0 std::__ndk1::__exception_guard_exceptions<std::__ndk1::vector<TabData, std::__ndk1::allocator<TabData> >::__destroy_vector>::~__exception_guard_exceptions[abi:ne180000]()
PUBLIC 10af4 0 std::__ndk1::__exception_guard_exceptions<std::__ndk1::_AllocatorDestroyRangeReverse<std::__ndk1::allocator<TabData>, TabData*> >::~__exception_guard_exceptions[abi:ne180000]()
PUBLIC 10bb8 0 geode::modifier::ModifyDerive<MyEditButtonBar, EditButtonBar>::apply()
PUBLIC 10fbc 0 std::__ndk1::shared_ptr<geode::Hook>::~shared_ptr[abi:ne180000]()
PUBLIC 1100c 0 geode::impl::ResultData<geode::Hook*, std::__ndk1::basic_string<char, std::__ndk1::char_traits<char>, std::__ndk1::allocator<char> > >::~ResultData()
PUBLIC 11080 0 std::__ndk1::vector<std::__ndk1::basic_string<char, std::__ndk1::char_traits<char>, std::__ndk1::allocator<char> >, std::__ndk1::allocator<std::__ndk1::basic_string<char, std::__ndk1::char_traits<char>, std::__ndk1::allocator<char> > > >::~vector[abi:ne180000]()
PUBLIC 110fc 0 geode::modifier::ModifyBase<geode::modifier::ModifyDerive<MyEditButtonBar, EditButtonBar> >::apply()
PUBLIC 11100 0 _ZN5geode15UnwrapExceptionC2IRPNS_4HookEQsr4implE18IsStringStreamableIT_EEENS_4impl5OkTagEOS5_
PUBLIC 11254 0 std::__ndk1::__throw_bad_variant_access[abi:ne180000]()
PUBLIC 11288 0 std::__ndk1::basic_stringstream<char, std::__ndk1::char_traits<char>, std::__ndk1::allocator<char> >::basic_stringstream[abi:ne180000]()
PUBLIC m 113b4 0 std::__ndk1::basic_stringstream<char, std::__ndk1::char_traits<char>, std::__ndk1::allocator<char> >::~basic_stringstream()
PUBLIC 11434 0 geode::UnwrapException::~UnwrapException()
PUBLIC 11458 0 std::__ndk1::__put_character_sequence[abi:ne180000]<char, std::__ndk1::char_traits<char> >(std::__ndk1::basic_ostream<char, std::__ndk1::char_traits<char> >, std::__ndk1::basic_ostream const*, unsigned long)
PUBLIC 115fc 0 std::__ndk1::__pad_and_output[abi:ne180000]<char, std::__ndk1::char_traits<char> >(std::__ndk1::char_traits<char>, std::__ndk1::ostreambuf_iterator const*, std::__ndk1::ostreambuf_iterator const, std::__ndk1::ostreambuf_iterator const, std::__ndk1::ios_base&, std::__ndk1::ostreambuf_iterator)
PUBLIC 117d8 0 std::__ndk1::basic_stringbuf<char, std::__ndk1::char_traits<char>, std::__ndk1::allocator<char> >::str[abi:ne180000]() &&
PUBLIC 11950 0 std::__ndk1::basic_stringbuf<char, std::__ndk1::char_traits<char>, std::__ndk1::allocator<char> >::__init_buf_ptrs[abi:ne180000]()
PUBLIC 11a98 0 std::__ndk1::vector<std::__ndk1::basic_string<char, std::__ndk1::char_traits<char>, std::__ndk1::allocator<char> >, std::__ndk1::allocator<std::__ndk1::basic_string<char, std::__ndk1::char_traits<char>, std::__ndk1::allocator<char> > > >::__push_back_slow_path<std::__ndk1::basic_string<char, std::__ndk1::char_traits<char>, std::__ndk1::allocator<char> > const&>(std::__ndk1::basic_string<char, std::__ndk1::char_traits<char>, std::__ndk1::allocator<char> > const&)
PUBLIC 11cbc 0 std::__ndk1::__split_buffer<std::__ndk1::basic_string<char, std::__ndk1::char_traits<char>, std::__ndk1::allocator<char> >, std::__ndk1::allocator<std::__ndk1::basic_string<char, std::__ndk1::char_traits<char>, std::__ndk1::allocator<char> > >&>::~__split_buffer()
PUBLIC 11d24 0 std::__ndk1::vector<std::__ndk1::basic_string<char, std::__ndk1::char_traits<char>, std::__ndk1::allocator<char> >, std::__ndk1::allocator<std::__ndk1::basic_string<char, std::__ndk1::char_traits<char>, std::__ndk1::allocator<char> > > >::__throw_length_error[abi:ne180000]() const
PUBLIC 11d38 0 std::__ndk1::__variant_detail::__visitation::__base::__dispatcher<(unsigned long)0>::__dispatch[abi:ne180000]<std::__ndk1::__variant_detail::__dtor<std::__ndk1::__variant_detail::__traits<geode::Hook*, std::__ndk1::basic_string<char, std::__ndk1::char_traits<char>, std::__ndk1::allocator<char> > >, (std::__ndk1::__variant_detail::_Trait)1>::__destroy[abi:ne180000]()::{lambda(auto:1&)#1}, std::__ndk1::__variant_detail::__base<(std::__ndk1::__variant_detail::__traits<geode::Hook*, std::__ndk1::basic_string<char, std::__ndk1::char_traits<char>, std::__ndk1::allocator<char> > >)1, geode::Hook, std::__ndk1::allocator<char> >&>(std::__ndk1::__variant_detail::__dtor<std::__ndk1::__variant_detail::__traits<geode::Hook*, std::__ndk1::basic_string<char, std::__ndk1::char_traits<char>, std::__ndk1::allocator<char> > >, (std::__ndk1::__variant_detail::_Trait)1>, std::__ndk1::__variant_detail::__base<(std::__ndk1::__variant_detail::__traits<geode::Hook*, std::__ndk1::basic_string<char, std::__ndk1::char_traits<char>, std::__ndk1::allocator<char> > >)1, geode::Hook, std::__ndk1::allocator<char> >&)
PUBLIC 11d3c 0 std::__ndk1::__variant_detail::__visitation::__base::__dispatcher<(unsigned long)1>::__dispatch[abi:ne180000]<std::__ndk1::__variant_detail::__dtor<std::__ndk1::__variant_detail::__traits<geode::Hook*, std::__ndk1::basic_string<char, std::__ndk1::char_traits<char>, std::__ndk1::allocator<char> > >, (std::__ndk1::__variant_detail::_Trait)1>::__destroy[abi:ne180000]()::{lambda(auto:1&)#1}, std::__ndk1::__variant_detail::__base<(std::__ndk1::__variant_detail::__traits<geode::Hook*, std::__ndk1::basic_string<char, std::__ndk1::char_traits<char>, std::__ndk1::allocator<char> > >)1, geode::Hook, std::__ndk1::allocator<char> >&>(std::__ndk1::__variant_detail::__dtor<std::__ndk1::__variant_detail::__traits<geode::Hook*, std::__ndk1::basic_string<char, std::__ndk1::char_traits<char>, std::__ndk1::allocator<char> > >, (std::__ndk1::__variant_detail::_Trait)1>, std::__ndk1::__variant_detail::__base<(std::__ndk1::__variant_detail::__traits<geode::Hook*, std::__ndk1::basic_string<char, std::__ndk1::char_traits<char>, std::__ndk1::allocator<char> > >)1, geode::Hook, std::__ndk1::allocator<char> >&)
PUBLIC 11d50 0 std::__ndk1::__tree<std::__ndk1::__value_type<std::__ndk1::basic_string<char, std::__ndk1::char_traits<char>, std::__ndk1::allocator<char> >, std::__ndk1::shared_ptr<geode::Hook> >, std::__ndk1::__map_value_compare<std::__ndk1::basic_string<char, std::__ndk1::char_traits<char>, std::__ndk1::allocator<char> >, std::__ndk1::__value_type<std::__ndk1::basic_string<char, std::__ndk1::char_traits<char>, std::__ndk1::allocator<char> >, std::__ndk1::shared_ptr<geode::Hook> >, std::__ndk1::less<std::__ndk1::basic_string<char, std::__ndk1::char_traits<char>, std::__ndk1::allocator<char> > >, true>, std::__ndk1::allocator<std::__ndk1::__value_type<std::__ndk1::basic_string<char, std::__ndk1::char_traits<char>, std::__ndk1::allocator<char> >, std::__ndk1::shared_ptr<geode::Hook> > > >::find<std::__ndk1::basic_string<char, std::__ndk1::char_traits<char>, std::__ndk1::allocator<char> > >(std::__ndk1::basic_string<char, std::__ndk1::char_traits<char>, std::__ndk1::allocator<char> > const&)
PUBLIC 11e70 0 std::__ndk1::__tree<std::__ndk1::__value_type<std::__ndk1::basic_string<char, std::__ndk1::char_traits<char>, std::__ndk1::allocator<char> >, std::__ndk1::shared_ptr<geode::Hook> >, std::__ndk1::__map_value_compare<std::__ndk1::basic_string<char, std::__ndk1::char_traits<char>, std::__ndk1::allocator<char> >, std::__ndk1::__value_type<std::__ndk1::basic_string<char, std::__ndk1::char_traits<char>, std::__ndk1::allocator<char> >, std::__ndk1::shared_ptr<geode::Hook> >, std::__ndk1::less<std::__ndk1::basic_string<char, std::__ndk1::char_traits<char>, std::__ndk1::allocator<char> > >, true>, std::__ndk1::allocator<std::__ndk1::__value_type<std::__ndk1::basic_string<char, std::__ndk1::char_traits<char>, std::__ndk1::allocator<char> >, std::__ndk1::shared_ptr<geode::Hook> > > >::erase(std::__ndk1::__tree_const_iterator<std::__ndk1::__value_type<std::__ndk1::basic_string<char, std::__ndk1::char_traits<char>, std::__ndk1::allocator<char> >, std::__ndk1::shared_ptr<geode::Hook> >, std::__ndk1::__tree_node<std::__ndk1::__value_type<std::__ndk1::basic_string<char, std::__ndk1::char_traits<char>, std::__ndk1::allocator<char> >, std::__ndk1::shared_ptr<geode::Hook> >, void*>*, long>)
PUBLIC 12314 0 std::__ndk1::__tree<std::__ndk1::__value_type<std::__ndk1::basic_string<char, std::__ndk1::char_traits<char>, std::__ndk1::allocator<char> >, std::__ndk1::shared_ptr<geode::Hook> >, std::__ndk1::__map_value_compare<std::__ndk1::basic_string<char, std::__ndk1::char_traits<char>, std::__ndk1::allocator<char> >, std::__ndk1::__value_type<std::__ndk1::basic_string<char, std::__ndk1::char_traits<char>, std::__ndk1::allocator<char> >, std::__ndk1::shared_ptr<geode::Hook> >, std::__ndk1::less<std::__ndk1::basic_string<char, std::__ndk1::char_traits<char>, std::__ndk1::allocator<char> > >, true>, std::__ndk1::allocator<std::__ndk1::__value_type<std::__ndk1::basic_string<char, std::__ndk1::char_traits<char>, std::__ndk1::allocator<char> >, std::__ndk1::shared_ptr<geode::Hook> > > >::destroy(std::__ndk1::__tree_node<std::__ndk1::__value_type<std::__ndk1::basic_string<char, std::__ndk1::char_traits<char>, std::__ndk1::allocator<char> >, std::__ndk1::shared_ptr<geode::Hook> >, void*>*)
PUBLIC 12398 0 geode::modifier::AsStaticFunction_loadFromItems<MyEditButtonBar, void (MyEditButtonBar::*)(cocos2d::CCArray*, int, int, bool)>::Impl<void (MyEditButtonBar::*)(cocos2d::CCArray*, int, int, bool)>::function(MyEditButtonBar*, cocos2d::CCArray*, int, int, bool)
PUBLIC 126d4 0 std::__ndk1::shared_ptr<tulip::hook::CallingConvention>::~shared_ptr[abi:ne180000]()
PUBLIC 12724 0 tulip::hook::HandlerMetadata::~HandlerMetadata()
PUBLIC 12788 0 geode::modifier::FieldIntermediate<MyEditButtonBar, EditButtonBar>::self()
PUBLIC 12910 0 MyEditButtonBar::updateUI(bool)
PUBLIC 1327c 0 geode::modifier::FieldIntermediate<MyEditButtonBar, EditButtonBar>::fieldDestructor(void*)
PUBLIC 13280 0 geode::cast::traverseTypeinfoFor(void*, geode::cast::ClassTypeinfoType const*, char const*)
PUBLIC 13378 0 geode::cocos::CCArrayExt<cocos2d::CCNode*, cocos2d::CCNode>::~CCArrayExt()
PUBLIC 13394 0 geode::cocos::CCArrayExt<ButtonPage*, ButtonPage>::~CCArrayExt()
PUBLIC 133b0 0 std::__ndk1::__tree<std::__ndk1::__value_type<std::__ndk1::basic_string<char, std::__ndk1::char_traits<char>, std::__ndk1::allocator<char> >, std::__ndk1::shared_ptr<geode::Hook> >, std::__ndk1::__map_value_compare<std::__ndk1::basic_string<char, std::__ndk1::char_traits<char>, std::__ndk1::allocator<char> >, std::__ndk1::__value_type<std::__ndk1::basic_string<char, std::__ndk1::char_traits<char>, std::__ndk1::allocator<char> >, std::__ndk1::shared_ptr<geode::Hook> >, std::__ndk1::less<std::__ndk1::basic_string<char, std::__ndk1::char_traits<char>, std::__ndk1::allocator<char> > >, true>, std::__ndk1::allocator<std::__ndk1::__value_type<std::__ndk1::basic_string<char, std::__ndk1::char_traits<char>, std::__ndk1::allocator<char> >, std::__ndk1::shared_ptr<geode::Hook> > > >::__emplace_unique_key_args<std::__ndk1::basic_string<char, std::__ndk1::char_traits<char>, std::__ndk1::allocator<char> >, std::__ndk1::piecewise_construct_t const&, std::__ndk1::tuple<std::__ndk1::basic_string<char, std::__ndk1::char_traits<char>, std::__ndk1::allocator<char> >&&>, std::__ndk1::tuple<> >(std::__ndk1::basic_string<char, std::__ndk1::char_traits<char>, std::__ndk1::allocator<char> > const&, std::__ndk1::piecewise_construct_t const&, std::__ndk1::tuple<std::__ndk1::basic_string<char, std::__ndk1::char_traits<char>, std::__ndk1::allocator<char> >&&>, std::__ndk1::tuple<>)
PUBLIC 13518 0 std::__ndk1::unique_ptr<std::__ndk1::__tree_node<std::__ndk1::__value_type<std::__ndk1::basic_string<char, std::__ndk1::char_traits<char>, std::__ndk1::allocator<char> >, std::__ndk1::shared_ptr<geode::Hook> >, void*>, std::__ndk1::__tree_node_destructor<std::__ndk1::allocator<std::__ndk1::__tree_node<std::__ndk1::__value_type<std::__ndk1::basic_string<char, std::__ndk1::char_traits<char>, std::__ndk1::allocator<char> >, std::__ndk1::shared_ptr<geode::Hook> >, void*> > > >::~unique_ptr[abi:ne180000]()
PUBLIC 13594 0 std::__ndk1::__tree_balance_after_insert[abi:ne180000]<std::__ndk1::__tree_node_base<void*>*>(std::__ndk1::__tree_node_base<void*>*, std::__ndk1::__tree_node_base<void*>*)
PUBLIC 13744 0 geode::modifier::ModifyDerive<MyEditorUI, EditorUI>::apply()
PUBLIC 14630 0 geode::modifier::ModifyBase<geode::modifier::ModifyDerive<MyEditorUI, EditorUI> >::apply()
PUBLIC 14634 0 geode::modifier::ModifyBase<geode::modifier::ModifyDerive<MyEditorUI, EditorUI> >::setHookPriority(std::__ndk1::basic_string_view<char, std::__ndk1::char_traits<char> >, int)
PUBLIC 1486c 0 std::__ndk1::__tree<std::__ndk1::__value_type<std::__ndk1::basic_string<char, std::__ndk1::char_traits<char>, std::__ndk1::allocator<char> >, std::__ndk1::shared_ptr<geode::Hook> >, std::__ndk1::__map_value_compare<std::__ndk1::basic_string<char, std::__ndk1::char_traits<char>, std::__ndk1::allocator<char> >, std::__ndk1::__value_type<std::__ndk1::basic_string<char, std::__ndk1::char_traits<char>, std::__ndk1::allocator<char> >, std::__ndk1::shared_ptr<geode::Hook> >, std::__ndk1::less<std::__ndk1::basic_string<char, std::__ndk1::char_traits<char>, std::__ndk1::allocator<char> > >, true>, std::__ndk1::allocator<std::__ndk1::__value_type<std::__ndk1::basic_string<char, std::__ndk1::char_traits<char>, std::__ndk1::allocator<char> >, std::__ndk1::shared_ptr<geode::Hook> > > >::__emplace_unique_key_args<std::__ndk1::basic_string<char, std::__ndk1::char_traits<char>, std::__ndk1::allocator<char> >, std::__ndk1::piecewise_construct_t const&, std::__ndk1::tuple<std::__ndk1::basic_string<char, std::__ndk1::char_traits<char>, std::__ndk1::allocator<char> > const&>, std::__ndk1::tuple<> >(std::__ndk1::basic_string<char, std::__ndk1::char_traits<char>, std::__ndk1::allocator<char> > const&, std::__ndk1::piecewise_construct_t const&, std::__ndk1::tuple<std::__ndk1::basic_string<char, std::__ndk1::char_traits<char>, std::__ndk1::allocator<char> > const&>, std::__ndk1::tuple<>)
PUBLIC 14a40 0 _ZN5geode15UnwrapExceptionC2IRNSt6__ndk112basic_stringIcNS2_11char_traitsIcEENS2_9allocatorIcEEEEQsr4implE18IsStringStreamableIT_EEENS_4impl6ErrTagEOSA_
PUBLIC 14ba8 0 std::__ndk1::__variant_detail::__visitation::__base::__dispatcher<(unsigned long)0>::__dispatch[abi:ne180000]<std::__ndk1::__variant_detail::__dtor<std::__ndk1::__variant_detail::__traits<std::__ndk1::monostate, std::__ndk1::basic_string<char, std::__ndk1::char_traits<char>, std::__ndk1::allocator<char> > >, (std::__ndk1::__variant_detail::_Trait)1>::__destroy[abi:ne180000]()::{lambda(auto:1&)#1}, std::__ndk1::__variant_detail::__base<(std::__ndk1::__variant_detail::__traits<std::__ndk1::monostate, std::__ndk1::basic_string<char, std::__ndk1::char_traits<char>, std::__ndk1::allocator<char> > >)1, std::__ndk1::__variant_detail::__traits, std::__ndk1::allocator<char> >&>(std::__ndk1::__variant_detail::__dtor<std::__ndk1::__variant_detail::__traits<std::__ndk1::monostate, std::__ndk1::basic_string<char, std::__ndk1::char_traits<char>, std::__ndk1::allocator<char> > >, (std::__ndk1::__variant_detail::_Trait)1>, std::__ndk1::__variant_detail::__base<(std::__ndk1::__variant_detail::__traits<std::__ndk1::monostate, std::__ndk1::basic_string<char, std::__ndk1::char_traits<char>, std::__ndk1::allocator<char> > >)1, std::__ndk1::__variant_detail::__traits, std::__ndk1::allocator<char> >&)
PUBLIC 14bac 0 std::__ndk1::__variant_detail::__visitation::__base::__dispatcher<(unsigned long)1>::__dispatch[abi:ne180000]<std::__ndk1::__variant_detail::__dtor<std::__ndk1::__variant_detail::__traits<std::__ndk1::monostate, std::__ndk1::basic_string<char, std::__ndk1::char_traits<char>, std::__ndk1::allocator<char> > >, (std::__ndk1::__variant_detail::_Trait)1>::__destroy[abi:ne180000]()::{lambda(auto:1&)#1}, std::__ndk1::__variant_detail::__base<(std::__ndk1::__variant_detail::__traits<std::__ndk1::monostate, std::__ndk1::basic_string<char, std::__ndk1::char_traits<char>, std::__ndk1::allocator<char> > >)1, std::__ndk1::__variant_detail::__traits, std::__ndk1::allocator<char> >&>(std::__ndk1::__variant_detail::__dtor<std::__ndk1::__variant_detail::__traits<std::__ndk1::monostate, std::__ndk1::basic_string<char, std::__ndk1::char_traits<char>, std::__ndk1::allocator<char> > >, (std::__ndk1::__variant_detail::_Trait)1>, std::__ndk1::__variant_detail::__base<(std::__ndk1::__variant_detail::__traits<std::__ndk1::monostate, std::__ndk1::basic_string<char, std::__ndk1::char_traits<char>, std::__ndk1::allocator<char> > >)1, std::__ndk1::__variant_detail::__traits, std::__ndk1::allocator<char> >&)
PUBLIC 14bc0 0 geode::modifier::AsStaticFunction_init<MyEditorUI, bool (MyEditorUI::*)(LevelEditorLayer*)>::Impl<bool (MyEditorUI::*)(LevelEditorLayer*)>::function(MyEditorUI*, LevelEditorLayer*)
PUBLIC 1553c 0 geode::Hook::create<void (*)(MyEditorUI*, cocos2d::CCObject*)>(void*, void (*)(MyEditorUI*, cocos2d::CCObject*), std::__ndk1::basic_string<char, std::__ndk1::char_traits<char>, std::__ndk1::allocator<char> > const&, tulip::hook::TulipConvention, tulip::hook::HookMetadata const&)
PUBLIC 156c0 0 geode::modifier::AsStaticFunction_onSelectBuildTab<MyEditorUI, void (MyEditorUI::*)(cocos2d::CCObject*)>::Impl<void (MyEditorUI::*)(cocos2d::CCObject*)>::function(MyEditorUI*, cocos2d::CCObject*)
PUBLIC 156f4 0 geode::modifier::AsStaticFunction_selectBuildTab<MyEditorUI, void (MyEditorUI::*)(int)>::Impl<void (MyEditorUI::*)(int)>::function(MyEditorUI*, int)
PUBLIC 15a84 0 geode::modifier::AsStaticFunction_showUI<MyEditorUI, void (MyEditorUI::*)(bool)>::Impl<void (MyEditorUI::*)(bool)>::function(MyEditorUI*, bool)
PUBLIC 15d18 0 geode::modifier::AsStaticFunction_toggleMode<MyEditorUI, void (MyEditorUI::*)(cocos2d::CCObject*)>::Impl<void (MyEditorUI::*)(cocos2d::CCObject*)>::function(MyEditorUI*, cocos2d::CCObject*)
PUBLIC 1660c 0 geode::modifier::AsStaticFunction_updateDeleteButtons<MyEditorUI, void (MyEditorUI::*)()>::Impl<void (MyEditorUI::*)()>::function(MyEditorUI*)
PUBLIC 16668 0 std::__ndk1::__function::__func<MyEditorUI::init(LevelEditorLayer*)::{lambda(EditorUI*, CCMenuItemToggler*)#1}, std::__ndk1::allocator<MyEditorUI::init(LevelEditorLayer*)::{lambda(EditorUI*, CCMenuItemToggler*)#1}>, cocos2d::CCNode* (EditorUI*, CCMenuItemToggler*)>::~__func()
PUBLIC 1666c 0 std::__ndk1::__function::__func<MyEditorUI::init(LevelEditorLayer*)::{lambda(EditorUI*, CCMenuItemToggler*)#1}, std::__ndk1::allocator<MyEditorUI::init(LevelEditorLayer*)::{lambda(EditorUI*, CCMenuItemToggler*)#1}>, cocos2d::CCNode* (EditorUI*, CCMenuItemToggler*)>::__clone() const
PUBLIC 16690 0 std::__ndk1::__function::__func<MyEditorUI::init(LevelEditorLayer*)::{lambda(EditorUI*, CCMenuItemToggler*)#1}, std::__ndk1::allocator<MyEditorUI::init(LevelEditorLayer*)::{lambda(EditorUI*, CCMenuItemToggler*)#1}>, cocos2d::CCNode* (EditorUI*, CCMenuItemToggler*)>::__clone(std::__ndk1::__function::__base<cocos2d::CCNode* (EditorUI*, CCMenuItemToggler*)>*) const
PUBLIC 166a0 0 std::__ndk1::__function::__func<MyEditorUI::init(LevelEditorLayer*)::{lambda(EditorUI*, CCMenuItemToggler*)#1}, std::__ndk1::allocator<MyEditorUI::init(LevelEditorLayer*)::{lambda(EditorUI*, CCMenuItemToggler*)#1}>, cocos2d::CCNode* (EditorUI*, CCMenuItemToggler*)>::destroy()
PUBLIC 166a4 0 std::__ndk1::__function::__func<MyEditorUI::init(LevelEditorLayer*)::{lambda(EditorUI*, CCMenuItemToggler*)#1}, std::__ndk1::allocator<MyEditorUI::init(LevelEditorLayer*)::{lambda(EditorUI*, CCMenuItemToggler*)#1}>, cocos2d::CCNode* (EditorUI*, CCMenuItemToggler*)>::destroy_deallocate()
PUBLIC 166a8 0 std::__ndk1::__function::__func<MyEditorUI::init(LevelEditorLayer*)::{lambda(EditorUI*, CCMenuItemToggler*)#1}, std::__ndk1::allocator<MyEditorUI::init(LevelEditorLayer*)::{lambda(EditorUI*, CCMenuItemToggler*)#1}>, cocos2d::CCNode* (EditorUI*, CCMenuItemToggler*)>::operator()(EditorUI*&&, CCMenuItemToggler*&&)
PUBLIC 16750 0 std::__ndk1::__function::__func<MyEditorUI::init(LevelEditorLayer*)::{lambda(EditorUI*, CCMenuItemToggler*)#1}, std::__ndk1::allocator<MyEditorUI::init(LevelEditorLayer*)::{lambda(EditorUI*, CCMenuItemToggler*)#1}>, cocos2d::CCNode* (EditorUI*, CCMenuItemToggler*)>::target(std::type_info const&) const
PUBLIC 1676c 0 std::__ndk1::__function::__func<MyEditorUI::init(LevelEditorLayer*)::{lambda(EditorUI*, CCMenuItemToggler*)#1}, std::__ndk1::allocator<MyEditorUI::init(LevelEditorLayer*)::{lambda(EditorUI*, CCMenuItemToggler*)#1}>, cocos2d::CCNode* (EditorUI*, CCMenuItemToggler*)>::target_type() const
PUBLIC 16778 0 EditorTabUtils::setTabIcons(CCMenuItemToggler*, cocos2d::CCNode*, cocos2d::CCNode*)
PUBLIC 168a4 0 std::__ndk1::__function::__func<MyEditorUI::init(LevelEditorLayer*)::{lambda(EditorUI*, bool, cocos2d::CCNode*)#1}, std::__ndk1::allocator<MyEditorUI::init(LevelEditorLayer*)::{lambda(EditorUI*, bool, cocos2d::CCNode*)#1}>, void (EditorUI*, bool, cocos2d::CCNode*)>::~__func()
PUBLIC 168a8 0 std::__ndk1::__function::__func<MyEditorUI::init(LevelEditorLayer*)::{lambda(EditorUI*, bool, cocos2d::CCNode*)#1}, std::__ndk1::allocator<MyEditorUI::init(LevelEditorLayer*)::{lambda(EditorUI*, bool, cocos2d::CCNode*)#1}>, void (EditorUI*, bool, cocos2d::CCNode*)>::__clone() const
PUBLIC 168cc 0 std::__ndk1::__function::__func<MyEditorUI::init(LevelEditorLayer*)::{lambda(EditorUI*, bool, cocos2d::CCNode*)#1}, std::__ndk1::allocator<MyEditorUI::init(LevelEditorLayer*)::{lambda(EditorUI*, bool, cocos2d::CCNode*)#1}>, void (EditorUI*, bool, cocos2d::CCNode*)>::__clone(std::__ndk1::__function::__base<void (EditorUI*, bool, cocos2d::CCNode*)>*) const
PUBLIC 168dc 0 std::__ndk1::__function::__func<MyEditorUI::init(LevelEditorLayer*)::{lambda(EditorUI*, bool, cocos2d::CCNode*)#1}, std::__ndk1::allocator<MyEditorUI::init(LevelEditorLayer*)::{lambda(EditorUI*, bool, cocos2d::CCNode*)#1}>, void (EditorUI*, bool, cocos2d::CCNode*)>::destroy()
PUBLIC 168e0 0 std::__ndk1::__function::__func<MyEditorUI::init(LevelEditorLayer*)::{lambda(EditorUI*, bool, cocos2d::CCNode*)#1}, std::__ndk1::allocator<MyEditorUI::init(LevelEditorLayer*)::{lambda(EditorUI*, bool, cocos2d::CCNode*)#1}>, void (EditorUI*, bool, cocos2d::CCNode*)>::destroy_deallocate()
PUBLIC 168e4 0 std::__ndk1::__function::__func<MyEditorUI::init(LevelEditorLayer*)::{lambda(EditorUI*, bool, cocos2d::CCNode*)#1}, std::__ndk1::allocator<MyEditorUI::init(LevelEditorLayer*)::{lambda(EditorUI*, bool, cocos2d::CCNode*)#1}>, void (EditorUI*, bool, cocos2d::CCNode*)>::operator()(EditorUI*&&, bool&&, cocos2d::CCNode*&&)
PUBLIC 16954 0 std::__ndk1::__function::__func<MyEditorUI::init(LevelEditorLayer*)::{lambda(EditorUI*, bool, cocos2d::CCNode*)#1}, std::__ndk1::allocator<MyEditorUI::init(LevelEditorLayer*)::{lambda(EditorUI*, bool, cocos2d::CCNode*)#1}>, void (EditorUI*, bool, cocos2d::CCNode*)>::target(std::type_info const&) const
PUBLIC 16970 0 std::__ndk1::__function::__func<MyEditorUI::init(LevelEditorLayer*)::{lambda(EditorUI*, bool, cocos2d::CCNode*)#1}, std::__ndk1::allocator<MyEditorUI::init(LevelEditorLayer*)::{lambda(EditorUI*, bool, cocos2d::CCNode*)#1}>, void (EditorUI*, bool, cocos2d::CCNode*)>::target_type() const
PUBLIC 1697c 0 std::__ndk1::__function::__base<cocos2d::CCNode* (EditorUI*, CCMenuItemToggler*)>::~__base()
PUBLIC 16980 0 std::__ndk1::__function::__func<MyEditorUI::init(LevelEditorLayer*)::{lambda(EditorUI*, CCMenuItemToggler*)#2}, std::__ndk1::allocator<MyEditorUI::init(LevelEditorLayer*)::{lambda(EditorUI*, CCMenuItemToggler*)#2}>, cocos2d::CCNode* (EditorUI*, CCMenuItemToggler*)>::~__func()
PUBLIC 16984 0 std::__ndk1::__function::__func<MyEditorUI::init(LevelEditorLayer*)::{lambda(EditorUI*, CCMenuItemToggler*)#2}, std::__ndk1::allocator<MyEditorUI::init(LevelEditorLayer*)::{lambda(EditorUI*, CCMenuItemToggler*)#2}>, cocos2d::CCNode* (EditorUI*, CCMenuItemToggler*)>::__clone() const
PUBLIC 169a8 0 std::__ndk1::__function::__func<MyEditorUI::init(LevelEditorLayer*)::{lambda(EditorUI*, CCMenuItemToggler*)#2}, std::__ndk1::allocator<MyEditorUI::init(LevelEditorLayer*)::{lambda(EditorUI*, CCMenuItemToggler*)#2}>, cocos2d::CCNode* (EditorUI*, CCMenuItemToggler*)>::__clone(std::__ndk1::__function::__base<cocos2d::CCNode* (EditorUI*, CCMenuItemToggler*)>*) const
PUBLIC 169b8 0 std::__ndk1::__function::__func<MyEditorUI::init(LevelEditorLayer*)::{lambda(EditorUI*, CCMenuItemToggler*)#2}, std::__ndk1::allocator<MyEditorUI::init(LevelEditorLayer*)::{lambda(EditorUI*, CCMenuItemToggler*)#2}>, cocos2d::CCNode* (EditorUI*, CCMenuItemToggler*)>::destroy()
PUBLIC 169bc 0 std::__ndk1::__function::__func<MyEditorUI::init(LevelEditorLayer*)::{lambda(EditorUI*, CCMenuItemToggler*)#2}, std::__ndk1::allocator<MyEditorUI::init(LevelEditorLayer*)::{lambda(EditorUI*, CCMenuItemToggler*)#2}>, cocos2d::CCNode* (EditorUI*, CCMenuItemToggler*)>::destroy_deallocate()
PUBLIC 169c0 0 std::__ndk1::__function::__func<MyEditorUI::init(LevelEditorLayer*)::{lambda(EditorUI*, CCMenuItemToggler*)#2}, std::__ndk1::allocator<MyEditorUI::init(LevelEditorLayer*)::{lambda(EditorUI*, CCMenuItemToggler*)#2}>, cocos2d::CCNode* (EditorUI*, CCMenuItemToggler*)>::operator()(EditorUI*&&, CCMenuItemToggler*&&)
PUBLIC 16aa8 0 std::__ndk1::__function::__func<MyEditorUI::init(LevelEditorLayer*)::{lambda(EditorUI*, CCMenuItemToggler*)#2}, std::__ndk1::allocator<MyEditorUI::init(LevelEditorLayer*)::{lambda(EditorUI*, CCMenuItemToggler*)#2}>, cocos2d::CCNode* (EditorUI*, CCMenuItemToggler*)>::target(std::type_info const&) const
PUBLIC 16ac4 0 std::__ndk1::__function::__func<MyEditorUI::init(LevelEditorLayer*)::{lambda(EditorUI*, CCMenuItemToggler*)#2}, std::__ndk1::allocator<MyEditorUI::init(LevelEditorLayer*)::{lambda(EditorUI*, CCMenuItemToggler*)#2}>, cocos2d::CCNode* (EditorUI*, CCMenuItemToggler*)>::target_type() const
PUBLIC 16ad0 0 std::__ndk1::__function::__base<void (EditorUI*, bool, cocos2d::CCNode*)>::~__base()
PUBLIC 16ad4 0 std::__ndk1::__function::__func<MyEditorUI::init(LevelEditorLayer*)::{lambda(EditorUI*, bool, cocos2d::CCNode*)#2}, std::__ndk1::allocator<MyEditorUI::init(LevelEditorLayer*)::{lambda(EditorUI*, bool, cocos2d::CCNode*)#2}>, void (EditorUI*, bool, cocos2d::CCNode*)>::~__func()
PUBLIC 16ad8 0 std::__ndk1::__function::__func<MyEditorUI::init(LevelEditorLayer*)::{lambda(EditorUI*, bool, cocos2d::CCNode*)#2}, std::__ndk1::allocator<MyEditorUI::init(LevelEditorLayer*)::{lambda(EditorUI*, bool, cocos2d::CCNode*)#2}>, void (EditorUI*, bool, cocos2d::CCNode*)>::__clone() const
PUBLIC 16afc 0 std::__ndk1::__function::__func<MyEditorUI::init(LevelEditorLayer*)::{lambda(EditorUI*, bool, cocos2d::CCNode*)#2}, std::__ndk1::allocator<MyEditorUI::init(LevelEditorLayer*)::{lambda(EditorUI*, bool, cocos2d::CCNode*)#2}>, void (EditorUI*, bool, cocos2d::CCNode*)>::__clone(std::__ndk1::__function::__base<void (EditorUI*, bool, cocos2d::CCNode*)>*) const
PUBLIC 16b0c 0 std::__ndk1::__function::__func<MyEditorUI::init(LevelEditorLayer*)::{lambda(EditorUI*, bool, cocos2d::CCNode*)#2}, std::__ndk1::allocator<MyEditorUI::init(LevelEditorLayer*)::{lambda(EditorUI*, bool, cocos2d::CCNode*)#2}>, void (EditorUI*, bool, cocos2d::CCNode*)>::destroy()
PUBLIC 16b10 0 std::__ndk1::__function::__func<MyEditorUI::init(LevelEditorLayer*)::{lambda(EditorUI*, bool, cocos2d::CCNode*)#2}, std::__ndk1::allocator<MyEditorUI::init(LevelEditorLayer*)::{lambda(EditorUI*, bool, cocos2d::CCNode*)#2}>, void (EditorUI*, bool, cocos2d::CCNode*)>::destroy_deallocate()
PUBLIC 16b14 0 std::__ndk1::__function::__func<MyEditorUI::init(LevelEditorLayer*)::{lambda(EditorUI*, bool, cocos2d::CCNode*)#2}, std::__ndk1::allocator<MyEditorUI::init(LevelEditorLayer*)::{lambda(EditorUI*, bool, cocos2d::CCNode*)#2}>, void (EditorUI*, bool, cocos2d::CCNode*)>::operator()(EditorUI*&&, bool&&, cocos2d::CCNode*&&)
PUBLIC 16b2c 0 std::__ndk1::__function::__func<MyEditorUI::init(LevelEditorLayer*)::{lambda(EditorUI*, bool, cocos2d::CCNode*)#2}, std::__ndk1::allocator<MyEditorUI::init(LevelEditorLayer*)::{lambda(EditorUI*, bool, cocos2d::CCNode*)#2}>, void (EditorUI*, bool, cocos2d::CCNode*)>::target(std::type_info const&) const
PUBLIC 16b48 0 std::__ndk1::__function::__func<MyEditorUI::init(LevelEditorLayer*)::{lambda(EditorUI*, bool, cocos2d::CCNode*)#2}, std::__ndk1::allocator<MyEditorUI::init(LevelEditorLayer*)::{lambda(EditorUI*, bool, cocos2d::CCNode*)#2}>, void (EditorUI*, bool, cocos2d::CCNode*)>::target_type() const
PUBLIC 16b54 0 MyEditorUI::setTabIcons(cocos2d::CCArray*)
PUBLIC 16d08 0 geode::cocos::CCArrayExt<CCMenuItemToggler*, CCMenuItemToggler>::~CCArrayExt()
PUBLIC 16d24 0 MyEditorUI::toggleAll(TabType, int)
PUBLIC 17120 0 MyEditorUI::selectEditTab(int)
PUBLIC 17274 0 MyEditorUI::selectDeleteTab(int)
PUBLIC 173c8 0 geode::modifier::ModifyDerive<LateEditorUI, EditorUI>::apply()
PUBLIC 17acc 0 geode::modifier::ModifyBase<geode::modifier::ModifyDerive<LateEditorUI, EditorUI> >::apply()
PUBLIC 17ad0 0 geode::modifier::ModifyBase<geode::modifier::ModifyDerive<LateEditorUI, EditorUI> >::setHookPriority(std::__ndk1::basic_string_view<char, std::__ndk1::char_traits<char> >, int)
PUBLIC 17d08 0 geode::modifier::AsStaticFunction_init<LateEditorUI, bool (LateEditorUI::*)(LevelEditorLayer*)>::Impl<bool (LateEditorUI::*)(LevelEditorLayer*)>::function(LateEditorUI*, LevelEditorLayer*)
PUBLIC 183a0 0 geode::Hook::create<void (*)(LateEditorUI*, cocos2d::CCObject*)>(void*, void (*)(LateEditorUI*, cocos2d::CCObject*), std::__ndk1::basic_string<char, std::__ndk1::char_traits<char>, std::__ndk1::allocator<char> > const&, tulip::hook::TulipConvention, tulip::hook::HookMetadata const&)
PUBLIC 18524 0 geode::modifier::AsStaticFunction_onPause<LateEditorUI, void (LateEditorUI::*)(cocos2d::CCObject*)>::Impl<void (LateEditorUI::*)(cocos2d::CCObject*)>::function(LateEditorUI*, cocos2d::CCObject*)
PUBLIC 185a4 0 geode::modifier::AsStaticFunction_toggleMode<LateEditorUI, void (LateEditorUI::*)(cocos2d::CCObject*)>::Impl<void (LateEditorUI::*)(cocos2d::CCObject*)>::function(LateEditorUI*, cocos2d::CCObject*)
PUBLIC 18624 0 geode::modifier::ModifyDerive<hook676<(anonymous namespace)::hook676Parent>, EditorPauseLayer>::apply()
PUBLIC 18998 0 geode::modifier::ModifyBase<geode::modifier::ModifyDerive<hook676<(anonymous namespace)::hook676Parent>, EditorPauseLayer> >::apply()
PUBLIC 1899c 0 geode::modifier::AsStaticFunction_onResume<hook676<(anonymous namespace)::hook676Parent>, void (hook676<(anonymous namespace)::hook676Parent>::*)(cocos2d::CCObject*)>::Impl<void (hook676<(anonymous namespace)::hook676Parent>::*)(cocos2d::CCObject*)>::function(hook676<(anonymous namespace)::hook676Parent>*, cocos2d::CCObject*)
PUBLIC 18a10 0 std::__ndk1::__function::__func<EditorTabs::addTab(EditorUI*, TabData)::$_0, std::__ndk1::allocator<EditorTabs::addTab(EditorUI*, TabData)::$_0>, void (CCMenuItemToggler*)>::~__func()
PUBLIC 18ab0 0 std::__ndk1::__function::__func<EditorTabs::addTab(EditorUI*, TabData)::$_0, std::__ndk1::allocator<EditorTabs::addTab(EditorUI*, TabData)::$_0>, void (CCMenuItemToggler*)>::~__func()
PUBLIC 18b4c 0 std::__ndk1::__function::__func<EditorTabs::addTab(EditorUI*, TabData)::$_0, std::__ndk1::allocator<EditorTabs::addTab(EditorUI*, TabData)::$_0>, void (CCMenuItemToggler*)>::__clone() const
PUBLIC 18bac 0 std::__ndk1::__function::__func<EditorTabs::addTab(EditorUI*, TabData)::$_0, std::__ndk1::allocator<EditorTabs::addTab(EditorUI*, TabData)::$_0>, void (CCMenuItemToggler*)>::__clone(std::__ndk1::__function::__base<void (CCMenuItemToggler*)>*) const
PUBLIC 18bd4 0 std::__ndk1::__function::__func<EditorTabs::addTab(EditorUI*, TabData)::$_0, std::__ndk1::allocator<EditorTabs::addTab(EditorUI*, TabData)::$_0>, void (CCMenuItemToggler*)>::destroy()
PUBLIC 18c68 0 std::__ndk1::__function::__func<EditorTabs::addTab(EditorUI*, TabData)::$_0, std::__ndk1::allocator<EditorTabs::addTab(EditorUI*, TabData)::$_0>, void (CCMenuItemToggler*)>::destroy_deallocate()
PUBLIC 18cf8 0 std::__ndk1::__function::__func<EditorTabs::addTab(EditorUI*, TabData)::$_0, std::__ndk1::allocator<EditorTabs::addTab(EditorUI*, TabData)::$_0>, void (CCMenuItemToggler*)>::operator()(CCMenuItemToggler*&&)
PUBLIC 18de0 0 std::__ndk1::__function::__func<EditorTabs::addTab(EditorUI*, TabData)::$_0, std::__ndk1::allocator<EditorTabs::addTab(EditorUI*, TabData)::$_0>, void (CCMenuItemToggler*)>::target(std::type_info const&) const
PUBLIC 18dfc 0 std::__ndk1::__function::__func<EditorTabs::addTab(EditorUI*, TabData)::$_0, std::__ndk1::allocator<EditorTabs::addTab(EditorUI*, TabData)::$_0>, void (CCMenuItemToggler*)>::target_type() const
PUBLIC m 18e08 0 geodeImplicitEntry
PUBLIC 18e44 0 std::__ndk1::unordered_map<void*, bool, std::__ndk1::hash<void*>, std::__ndk1::equal_to<void*>, std::__ndk1::allocator<std::__ndk1::pair<void* const, bool> > >::~unordered_map[abi:ne180000]()
PUBLIC 18e90 0 wrapFunction(unsigned long, tulip::hook::WrapperMetadata const&)
PUBLIC 18fc4 0 geode::impl::ResultData<void*, std::__ndk1::basic_string<char, std::__ndk1::char_traits<char>, std::__ndk1::allocator<char> > >::unwrapErr() &
PUBLIC 1903c 0 geode::impl::ResultData<void*, std::__ndk1::basic_string<char, std::__ndk1::char_traits<char>, std::__ndk1::allocator<char> > >::~ResultData()
PUBLIC 190b0 0 tulip::hook::WrapperMetadata::~WrapperMetadata()
PUBLIC 19114 0 cocos2d::CCObject::CCObject()
PUBLIC 19338 0 cocos2d::CCObject::~CCObject()
PUBLIC 1935c 0 cocos2d::CCObject::~CCObject()
PUBLIC 19850 0 _ZN5geode15UnwrapExceptionC2IRPvQsr4implE18IsStringStreamableIT_EEENS_4impl5OkTagEOS4_
PUBLIC 199a4 0 std::__ndk1::__variant_detail::__visitation::__base::__dispatcher<(unsigned long)0>::__dispatch[abi:ne180000]<std::__ndk1::__variant_detail::__dtor<std::__ndk1::__variant_detail::__traits<void*, std::__ndk1::basic_string<char, std::__ndk1::char_traits<char>, std::__ndk1::allocator<char> > >, (std::__ndk1::__variant_detail::_Trait)1>::__destroy[abi:ne180000]()::{lambda(auto:1&)#1}, std::__ndk1::__variant_detail::__base<(std::__ndk1::__variant_detail::__traits<void*, std::__ndk1::basic_string<char, std::__ndk1::char_traits<char>, std::__ndk1::allocator<char> > >)1, std::__ndk1::__variant_detail::__traits, std::__ndk1::allocator<char> >&>(std::__ndk1::__variant_detail::__dtor<std::__ndk1::__variant_detail::__traits<void*, std::__ndk1::basic_string<char, std::__ndk1::char_traits<char>, std::__ndk1::allocator<char> > >, (std::__ndk1::__variant_detail::_Trait)1>, std::__ndk1::__variant_detail::__base<(std::__ndk1::__variant_detail::__traits<void*, std::__ndk1::basic_string<char, std::__ndk1::char_traits<char>, std::__ndk1::allocator<char> > >)1, std::__ndk1::__variant_detail::__traits, std::__ndk1::allocator<char> >&)
PUBLIC 199a8 0 std::__ndk1::__variant_detail::__visitation::__base::__dispatcher<(unsigned long)1>::__dispatch[abi:ne180000]<std::__ndk1::__variant_detail::__dtor<std::__ndk1::__variant_detail::__traits<void*, std::__ndk1::basic_string<char, std::__ndk1::char_traits<char>, std::__ndk1::allocator<char> > >, (std::__ndk1::__variant_detail::_Trait)1>::__destroy[abi:ne180000]()::{lambda(auto:1&)#1}, std::__ndk1::__variant_detail::__base<(std::__ndk1::__variant_detail::__traits<void*, std::__ndk1::basic_string<char, std::__ndk1::char_traits<char>, std::__ndk1::allocator<char> > >)1, std::__ndk1::__variant_detail::__traits, std::__ndk1::allocator<char> >&>(std::__ndk1::__variant_detail::__dtor<std::__ndk1::__variant_detail::__traits<void*, std::__ndk1::basic_string<char, std::__ndk1::char_traits<char>, std::__ndk1::allocator<char> > >, (std::__ndk1::__variant_detail::_Trait)1>, std::__ndk1::__variant_detail::__base<(std::__ndk1::__variant_detail::__traits<void*, std::__ndk1::basic_string<char, std::__ndk1::char_traits<char>, std::__ndk1::allocator<char> > >)1, std::__ndk1::__variant_detail::__traits, std::__ndk1::allocator<char> >&)
PUBLIC 199bc 0 std::__ndk1::__hash_table<std::__ndk1::__hash_value_type<void*, bool>, std::__ndk1::__unordered_map_hasher<void*, std::__ndk1::__hash_value_type<void*, bool>, std::__ndk1::hash<void*>, std::__ndk1::equal_to<void*>, true>, std::__ndk1::__unordered_map_equal<void*, std::__ndk1::__hash_value_type<void*, bool>, std::__ndk1::equal_to<void*>, std::__ndk1::hash<void*>, true>, std::__ndk1::allocator<std::__ndk1::__hash_value_type<void*, bool> > >::__emplace_unique_key_args<void*, std::__ndk1::piecewise_construct_t const&, std::__ndk1::tuple<void* const&>, std::__ndk1::tuple<> >(void* const&, std::__ndk1::piecewise_construct_t const&, std::__ndk1::tuple<void* const&>, std::__ndk1::tuple<>)
PUBLIC 19ec8 0 __udivti3
PUBLIC 19ed4 0 __udivmodti4
PUBLIC m 1a120 0 __eqtf2
PUBLIC 1a1c0 0 __unordtf2
PUBLIC 1a1f8 0 fmt::v11::detail::write_loc(fmt::v11::basic_appender<char>, fmt::v11::loc_value, fmt::v11::format_specs const&, fmt::v11::detail::locale_ref)
PUBLIC 1a48c 0 fmt::v11::format_facet<std::__ndk1::locale>::~format_facet()
PUBLIC 1a508 0 fmt::v11::report_error(char const*)
PUBLIC 1a558 0 fmt::v11::format_error::runtime_error(char const*)
PUBLIC 1a584 0 fmt::v11::format_facet<std::__ndk1::locale>::do_put(fmt::v11::basic_appender<char>, fmt::v11::loc_value, fmt::v11::format_specs const&) const
PUBLIC 1ad44 0 fmt::v11::detail::loc_writer<char>::~loc_writer()
PUBLIC 1ada8 0 fmt::v11::detail::vformat_to<char>(fmt::v11::detail::buffer<char>&, fmt::v11::basic_string_view<char>, fmt::v11::detail::vformat_args<char>::type, fmt::v11::detail::locale_ref)
PUBLIC 1b318 0 fmt::v11::detail::is_printable(unsigned int)
PUBLIC 1b540 0 fmt::v11::detail::dragonbox::to_decimal<float>(float)
PUBLIC 1b81c 0 fmt::v11::detail::dragonbox::to_decimal<double>(double)
PUBLIC 1bd58 0 fmt::v11::basic_memory_buffer<char, (unsigned long)500, std::__ndk1::allocator<char> >::grow(fmt::v11::detail::buffer<char>&, unsigned long)
PUBLIC 1bdd0 0 fmt::v11::format_facet<std::__ndk1::locale>::~format_facet()
PUBLIC 1be5c 0 fmt::v11::format_error::~format_error()
PUBLIC 1be80 0 fmt::v11::detail::copy_noinline<char, char const*, fmt::v11::basic_appender<char> >(char const*, char const*, fmt::v11::basic_appender<char>)
PUBLIC 1bfd0 0 fmt::v11::detail::default_arg_formatter<char>::operator()<bool>(bool)
PUBLIC 1c038 0 fmt::v11::detail::default_arg_formatter<char>::operator()<char>(char)
PUBLIC 1c0c8 0 fmt::v11::detail::default_arg_formatter<char>::operator()<float>(float)
PUBLIC 1c1b4 0 fmt::v11::detail::default_arg_formatter<char>::operator()<double>(double)
PUBLIC 1c2a0 0 fmt::v11::detail::default_arg_formatter<char>::operator()<char const*>(char const*)
PUBLIC 1c2e8 0 fmt::v11::detail::default_arg_formatter<char>::operator()<void const*>(void const*)
PUBLIC 1c380 0 _ZN3fmt3v116detail5writeIcNS0_14basic_appenderIcEEiTnNSt6__ndk19enable_ifIXaaaasr11is_integralIT1_EE5valuentsr3std7is_sameIS7_bEE5valuentsr3std7is_sameIS7_T_EE5valueEiE4typeELi0EEET0_SB_S7_
PUBLIC 1c5e0 0 fmt::v11::detail::copy_noinline<char, char*, fmt::v11::basic_appender<char> >(char*, char*, fmt::v11::basic_appender<char>)
PUBLIC 1c730 0 _ZN3fmt3v116detail5writeIcNS0_14basic_appenderIcEEjTnNSt6__ndk19enable_ifIXaaaasr11is_integralIT1_EE5valuentsr3std7is_sameIS7_bEE5valuentsr3std7is_sameIS7_T_EE5valueEiE4typeELi0EEET0_SB_S7_
PUBLIC 1c910 0 _ZN3fmt3v116detail5writeIcNS0_14basic_appenderIcEExTnNSt6__ndk19enable_ifIXaaaasr11is_integralIT1_EE5valuentsr3std7is_sameIS7_bEE5valuentsr3std7is_sameIS7_T_EE5valueEiE4typeELi0EEET0_SB_S7_
PUBLIC 1cb94 0 _ZN3fmt3v116detail5writeIcNS0_14basic_appenderIcEEyTnNSt6__ndk19enable_ifIXaaaasr11is_integralIT1_EE5valuentsr3std7is_sameIS7_bEE5valuentsr3std7is_sameIS7_T_EE5valueEiE4typeELi0EEET0_SB_S7_
PUBLIC 1cd9c 0 _ZN3fmt3v116detail5writeIcNS0_14basic_appenderIcEEnTnNSt6__ndk19enable_ifIXaaaasr11is_integralIT1_EE5valuentsr3std7is_sameIS7_bEE5valuentsr3std7is_sameIS7_T_EE5valueEiE4typeELi0EEET0_SB_S7_
PUBLIC 1d0fc 0 _ZN3fmt3v116detail5writeIcNS0_14basic_appenderIcEEoTnNSt6__ndk19enable_ifIXaaaasr11is_integralIT1_EE5valuentsr3std7is_sameIS7_bEE5valuentsr3std7is_sameIS7_T_EE5valueEiE4typeELi0EEET0_SB_S7_
PUBLIC 1d410 0 _ZN3fmt3v116detail5writeIcNS0_14basic_appenderIcEEbTnNSt6__ndk19enable_ifIXsr3std7is_sameIT1_bEE5valueEiE4typeELi0EEET0_SA_S7_RKNS0_12format_specsENS1_10locale_refE
PUBLIC 1d6a0 0 fmt::v11::detail::write_int_noinline<char, fmt::v11::basic_appender<char>, unsigned int>(fmt::v11::basic_appender<char>, fmt::v11::detail::write_int_arg<unsigned int>, fmt::v11::format_specs const&, fmt::v11::detail::locale_ref)
PUBLIC 1e47c 0 fmt::v11::detail::fill<char, fmt::v11::basic_appender<char> >(fmt::v11::basic_appender<char>, unsigned long, fmt::v11::detail::fill_t const&)
PUBLIC 1e64c 0 fmt::v11::detail::write_padded<char, (fmt::v11::align::type)1, fmt::v11::basic_appender<char>, fmt::v11::detail::write_char<char, fmt::v11::basic_appender<char> >(fmt::v11::basic_appender<char>, char, fmt::v11::format_specs const&)::{lambda(fmt::v11::basic_appender<char>&)#1}>(fmt::v11::basic_appender<char>, fmt::v11::format_specs const&, unsigned long, unsigned long, fmt::v11::detail::write_char<char, fmt::v11::basic_appender<char> >(fmt::v11::basic_appender<char>, char, fmt::v11::format_specs const&)::{lambda(fmt::v11::basic_appender<char>&)#1})
PUBLIC 1e888 0 fmt::v11::detail::write_escaped_cp<fmt::v11::basic_appender<char>, char>(fmt::v11::basic_appender<char>, fmt::v11::detail::find_escape_result<char> const&)
PUBLIC 1eb94 0 fmt::v11::detail::write_codepoint<(unsigned long)2, char, fmt::v11::basic_appender<char> >(fmt::v11::basic_appender<char>, char, unsigned int)
PUBLIC 1ed0c 0 fmt::v11::detail::write_codepoint<(unsigned long)8, char, fmt::v11::basic_appender<char> >(fmt::v11::basic_appender<char>, char, unsigned int)
PUBLIC 1ee84 0 fmt::v11::detail::write_padded<char, (fmt::v11::align::type)1, fmt::v11::basic_appender<char>, fmt::v11::detail::write_nonfinite<char, fmt::v11::basic_appender<char> >(fmt::v11::basic_appender<char>, bool, fmt::v11::format_specs, fmt::v11::sign::type)::{lambda(fmt::v11::basic_appender<char>&)#1}>(fmt::v11::basic_appender<char>, fmt::v11::format_specs const&, unsigned long, unsigned long, fmt::v11::detail::write_nonfinite<char, fmt::v11::basic_appender<char> >(fmt::v11::basic_appender<char>, bool, fmt::v11::format_specs, fmt::v11::sign::type)::{lambda(fmt::v11::basic_appender<char>&)#1})
PUBLIC 1f0c4 0 fmt::v11::detail::do_write_float<char, fmt::v11::basic_appender<char>, fmt::v11::detail::dragonbox::decimal_fp<float>, fmt::v11::detail::digit_grouping<char> >(fmt::v11::basic_appender<char>, fmt::v11::detail::dragonbox::decimal_fp<float> const&, fmt::v11::format_specs const&, fmt::v11::detail::float_specs, fmt::v11::detail::locale_ref)
PUBLIC 1fd38 0 fmt::v11::detail::do_write_float<char, fmt::v11::basic_appender<char>, fmt::v11::detail::dragonbox::decimal_fp<float>, fmt::v11::detail::digit_grouping<char> >(fmt::v11::basic_appender<char>, fmt::v11::detail::dragonbox::decimal_fp<float> const&, fmt::v11::format_specs const&, fmt::v11::detail::float_specs, fmt::v11::detail::locale_ref)::{lambda(fmt::v11::basic_appender<char>(fmt::v11::basic_appender<char>))#1}::operator() const
PUBLIC 1fe8c 0 fmt::v11::detail::digit_grouping<char>::digit_grouping(fmt::v11::detail::locale_ref, bool)
PUBLIC 200f8 0 fmt::v11::detail::digit_grouping<char>::~digit_grouping()
PUBLIC 2013c 0 fmt::v11::detail::write_exponent<char, fmt::v11::basic_appender<char> >(int, fmt::v11::basic_appender<char>)
PUBLIC 2030c 0 _ZN3fmt3v116detail17write_significandIcjTnNSt6__ndk19enable_ifIXsr3std11is_integralIT0_EE5valueEiE4typeELi0EEEPT_S9_S5_iiS8_
PUBLIC 20488 0 std::__ndk1::basic_string<char, std::__ndk1::char_traits<char>, std::__ndk1::allocator<char> >::__assign_no_alias<true>(char const*, unsigned long)
PUBLIC 20534 0 std::__ndk1::basic_string<char, std::__ndk1::char_traits<char>, std::__ndk1::allocator<char> >::__assign_no_alias<false>(char const*, unsigned long)
PUBLIC 20644 0 fmt::v11::detail::digit_grouping<char>::apply<fmt::v11::basic_appender<char>, char>(fmt::v11::basic_appender<char>, fmt::v11::basic_string_view<char>) const
PUBLIC 209fc 0 fmt::v11::basic_memory_buffer<int, (unsigned long)500, std::__ndk1::allocator<int> >::grow(fmt::v11::detail::buffer<int>&, unsigned long)
PUBLIC 20a9c 0 fmt::v11::detail::do_write_float<char, fmt::v11::basic_appender<char>, fmt::v11::detail::dragonbox::decimal_fp<double>, fmt::v11::detail::digit_grouping<char> >(fmt::v11::basic_appender<char>, fmt::v11::detail::dragonbox::decimal_fp<double> const&, fmt::v11::format_specs const&, fmt::v11::detail::float_specs, fmt::v11::detail::locale_ref)
PUBLIC 21750 0 fmt::v11::detail::do_write_float<char, fmt::v11::basic_appender<char>, fmt::v11::detail::dragonbox::decimal_fp<double>, fmt::v11::detail::digit_grouping<char> >(fmt::v11::basic_appender<char>, fmt::v11::detail::dragonbox::decimal_fp<double> const&, fmt::v11::format_specs const&, fmt::v11::detail::float_specs, fmt::v11::detail::locale_ref)::{lambda(fmt::v11::basic_appender<char>(fmt::v11::basic_appender<char>))#1}::operator() const
PUBLIC 218a8 0 _ZN3fmt3v116detail17write_significandIcmTnNSt6__ndk19enable_ifIXsr3std11is_integralIT0_EE5valueEiE4typeELi0EEEPT_S9_S5_iiS8_
PUBLIC 21a38 0 fmt::v11::detail::write_float<char, fmt::v11::basic_appender<char>, long double>(fmt::v11::basic_appender<char>, long double, fmt::v11::format_specs, fmt::v11::detail::locale_ref)
PUBLIC 22534 0 fmt::v11::detail::write_padded<char, (fmt::v11::align::type)2, fmt::v11::basic_appender<char>, fmt::v11::detail::write_bytes<char, (fmt::v11::align::type)2, fmt::v11::basic_appender<char> >(fmt::v11::basic_appender<char>, fmt::v11::basic_string_view<char>, fmt::v11::format_specs const&)::{lambda(fmt::v11::basic_appender<char>&)#1}>(fmt::v11::basic_appender<char>, fmt::v11::format_specs const&, unsigned long, unsigned long, fmt::v11::detail::write_bytes<char, (fmt::v11::align::type)2, fmt::v11::basic_appender<char> >(fmt::v11::basic_appender<char>, fmt::v11::basic_string_view<char>, fmt::v11::format_specs const&)::{lambda(fmt::v11::basic_appender<char>&)#1})
PUBLIC 22710 0 fmt::v11::detail::format_dragon(fmt::v11::detail::basic_fp<unsigned __int128>, unsigned int, int, fmt::v11::detail::buffer<char>&, int&)
PUBLIC 23b40 0 fmt::v11::detail::bigint::operator<<=(int)
PUBLIC 23c64 0 fmt::v11::detail::bigint::assign_pow10(int)
PUBLIC 243c0 0 fmt::v11::detail::bigint::divmod_assign(fmt::v11::detail::bigint const&)
PUBLIC 246e0 0 fmt::v11::basic_memory_buffer<unsigned int, (unsigned long)32, std::__ndk1::allocator<unsigned int> >::grow(fmt::v11::detail::buffer<unsigned int>&, unsigned long)
PUBLIC 24780 0 fmt::v11::detail::do_write_float<char, fmt::v11::basic_appender<char>, fmt::v11::detail::big_decimal_fp, fmt::v11::detail::digit_grouping<char> >(fmt::v11::basic_appender<char>, fmt::v11::detail::big_decimal_fp const&, fmt::v11::format_specs const&, fmt::v11::detail::float_specs, fmt::v11::detail::locale_ref)
PUBLIC 25630 0 fmt::v11::detail::do_write_float<char, fmt::v11::basic_appender<char>, fmt::v11::detail::big_decimal_fp, fmt::v11::detail::digit_grouping<char> >(fmt::v11::basic_appender<char>, fmt::v11::detail::big_decimal_fp const&, fmt::v11::format_specs const&, fmt::v11::detail::float_specs, fmt::v11::detail::locale_ref)::{lambda(fmt::v11::basic_appender<char>(fmt::v11::basic_appender<char>))#1}::operator() const
PUBLIC 25790 0 fmt::v11::detail::write_padded<char, (fmt::v11::align::type)2, fmt::v11::basic_appender<char>, fmt::v11::detail::write_ptr<char, fmt::v11::basic_appender<char>, unsigned long>(fmt::v11::basic_appender<char>, unsigned long, fmt::v11::format_specs const*)::{lambda(fmt::v11::basic_appender<char>&)#1}>(fmt::v11::basic_appender<char>, fmt::v11::format_specs const&, unsigned long, unsigned long, fmt::v11::detail::write_ptr<char, fmt::v11::basic_appender<char>, unsigned long>(fmt::v11::basic_appender<char>, unsigned long, fmt::v11::format_specs const*)::{lambda(fmt::v11::basic_appender<char>&)#1})
PUBLIC 259a4 0 fmt::v11::detail::parse_replacement_field<char, fmt::v11::detail::vformat_to<char>(fmt::v11::detail::buffer<char>&, fmt::v11::basic_string_view<char>, fmt::v11::detail::vformat_args<char>::type, fmt::v11::detail::locale_ref)::format_handler&>(char const*, char const*, fmt::v11::detail::vformat_to<char>(fmt::v11::detail::buffer<char>&, fmt::v11::basic_string_view<char>, fmt::v11::detail::vformat_args<char>::type, fmt::v11::detail::locale_ref)::format_handler&)
PUBLIC 27640 0 fmt::v11::detail::parse_dynamic_spec<char>(char const*, char const*, int&, fmt::v11::detail::arg_ref<char>&, fmt::v11::basic_format_parse_context<char>&)
PUBLIC 278d0 0 fmt::v11::basic_format_args<fmt::v11::context>::get<char>(fmt::v11::basic_string_view<char>) const
PUBLIC 27a28 0 fmt::v11::detail::write_int_noinline<char, fmt::v11::basic_appender<char>, unsigned long>(fmt::v11::basic_appender<char>, fmt::v11::detail::write_int_arg<unsigned long>, fmt::v11::format_specs const&, fmt::v11::detail::locale_ref)
PUBLIC 2887c 0 fmt::v11::detail::write_int_noinline<char, fmt::v11::basic_appender<char>, unsigned __int128>(fmt::v11::basic_appender<char>, fmt::v11::detail::write_int_arg<unsigned __int128>, fmt::v11::format_specs const&, fmt::v11::detail::locale_ref)
PUBLIC 298e4 0 _ZN3fmt3v116detail15format_hexfloatIdTnNSt6__ndk19enable_ifIXntsr16is_double_doubleIT_EE5valueEiE4typeELi0EEEvS5_NS0_12format_specsERNS1_6bufferIcEE
PUBLIC 29e04 0 fmt::v11::detail::format_float<double>(double, int, fmt::v11::detail::float_specs, fmt::v11::detail::buffer<char>&)
PUBLIC 2a7a4 0 fmt::v11::detail::write<char, fmt::v11::basic_appender<char> >(fmt::v11::basic_appender<char>, fmt::v11::basic_string_view<char>, fmt::v11::format_specs const&)
PUBLIC 2bb10 0 fmt::v11::detail::for_each_codepoint<fmt::v11::detail::compute_width(fmt::v11::basic_string_view<char>)::count_code_points>(fmt::v11::basic_string_view<char>, fmt::v11::detail::compute_width(fmt::v11::basic_string_view<char>)::count_code_points)::{lambda(char const*, char const*)#1}::operator()(char const*, char const*) const
PUBLIC 2bcc8 0 fmt::v11::detail::write_int<fmt::v11::basic_appender<char>, unsigned long, char>(fmt::v11::basic_appender<char>, unsigned long, unsigned int, fmt::v11::format_specs const&, fmt::v11::detail::digit_grouping<char> const&)
PUBLIC 2c244 0 fmt::v11::detail::write_int<fmt::v11::basic_appender<char>, unsigned __int128, char>(fmt::v11::basic_appender<char>, unsigned __int128, unsigned int, fmt::v11::format_specs const&, fmt::v11::detail::digit_grouping<char> const&)
PUBLIC 2c8c0 0 <.plt ELF section in alphalaneous.editortab_api.android64.so>
STACK CFI INIT c410 10 .cfa: sp 0 +
STACK CFI INIT c420 8 .cfa: sp 0 +
STACK CFI INIT c428 8 .cfa: sp 0 +
STACK CFI INIT c430 14 .cfa: sp 0 +
STACK CFI INIT c444 1c .cfa: sp 0 +
STACK CFI INIT c460 10 .cfa: sp 0 +
STACK CFI INIT c470 30 .cfa: sp 0 +
STACK CFI INIT c4a0 98 .cfa: sp 0 +
STACK CFI INIT c538 59c .cfa: sp 0 +
STACK CFI INIT cad4 8c .cfa: sp 0 +
STACK CFI INIT cb60 30 .cfa: sp 0 +
STACK CFI INIT d060 94 .cfa: sp 0 +
STACK CFI d064 .cfa: sp 32 +
STACK CFI d06c .cfa: x29 32 + x19: .cfa -16 + ^ .ra: .cfa -24 + ^ x29: .cfa -32 + ^
STACK CFI d0d8 .cfa: sp 32 +
STACK CFI d0e0 .cfa: sp 0 +
STACK CFI d0e4 .cfa: x29 32 +
STACK CFI d0e8 .cfa: sp 32 +
STACK CFI d0f0 .cfa: sp 0 +
STACK CFI INIT df18 94 .cfa: sp 0 +
STACK CFI df1c .cfa: sp 32 +
STACK CFI df24 .cfa: x29 32 + x19: .cfa -16 + ^ .ra: .cfa -24 + ^ x29: .cfa -32 + ^
STACK CFI df90 .cfa: sp 32 +
STACK CFI df98 .cfa: sp 0 +
STACK CFI df9c .cfa: x29 32 +
STACK CFI dfa0 .cfa: sp 32 +
STACK CFI dfa8 .cfa: sp 0 +
STACK CFI INIT e398 30 .cfa: sp 0 +
STACK CFI INIT e84c 18 .cfa: sp 0 +
STACK CFI INIT ed9c 18 .cfa: sp 0 +
STACK CFI INIT f2ec 18 .cfa: sp 0 +
STACK CFI INIT f760 18 .cfa: sp 0 +
STACK CFI INIT f778 14 .cfa: sp 0 +
STACK CFI f77c .cfa: sp 16 +
STACK CFI f780 .cfa: x29 16 + .ra: .cfa -8 + ^ x29: .cfa -16 + ^
STACK CFI INIT f7dc 30 .cfa: sp 0 +
STACK CFI f7e0 .cfa: sp 32 +
STACK CFI f7e8 .cfa: x29 32 + x19: .cfa -16 + ^ .ra: .cfa -24 + ^ x29: .cfa -32 + ^
STACK CFI f800 .cfa: sp 32 +
STACK CFI f808 .cfa: sp 0 +
STACK CFI INIT f80c 34 .cfa: sp 0 +
STACK CFI f810 .cfa: sp 32 +
STACK CFI f818 .cfa: x29 32 + x19: .cfa -16 + ^ .ra: .cfa -24 + ^ x29: .cfa -32 + ^
STACK CFI INIT f840 10 .cfa: sp 0 +
STACK CFI f844 .cfa: sp 16 +
STACK CFI f848 .cfa: x29 16 + .ra: .cfa -8 + ^ x29: .cfa -16 + ^
STACK CFI INIT f850 80 .cfa: sp 0 +
STACK CFI f854 .cfa: sp 48 +
STACK CFI f860 .cfa: x29 48 + x19: .cfa -8 + ^ x20: .cfa -16 + ^ x21: .cfa -24 + ^ x22: .cfa -32 + ^ .ra: .cfa -40 + ^ x29: .cfa -48 + ^
STACK CFI f878 .cfa: sp 48 +
STACK CFI f884 .cfa: sp 0 +
STACK CFI f888 .cfa: x29 48 +
STACK CFI f8b8 .cfa: sp 48 +
STACK CFI f8c4 .cfa: sp 0 +
STACK CFI f8c8 .cfa: x29 48 +
STACK CFI INIT fc14 cc .cfa: sp 0 +
STACK CFI fc18 .cfa: sp 48 +
STACK CFI fc24 .cfa: x29 48 + x19: .cfa -8 + ^ x20: .cfa -16 + ^ x21: .cfa -32 + ^ .ra: .cfa -40 + ^ x29: .cfa -48 + ^
STACK CFI fcc0 .cfa: sp 48 +
STACK CFI fccc .cfa: sp 0 +
STACK CFI fcd0 .cfa: sp 48 +
STACK CFI fcdc .cfa: sp 0 +
STACK CFI INIT fce0 14 .cfa: sp 0 +
STACK CFI fce4 .cfa: sp 16 +
STACK CFI fce8 .cfa: x29 16 + .ra: .cfa -8 + ^ x29: .cfa -16 + ^
STACK CFI INIT 104f4 14 .cfa: sp 0 +
STACK CFI 104f8 .cfa: sp 16 +
STACK CFI 104fc .cfa: x29 16 + .ra: .cfa -8 + ^ x29: .cfa -16 + ^
STACK CFI INIT 10508 14 .cfa: sp 0 +
STACK CFI 1050c .cfa: sp 16 +
STACK CFI 10510 .cfa: x29 16 + .ra: .cfa -8 + ^ x29: .cfa -16 + ^
STACK CFI INIT 1051c c .cfa: sp 0 +
STACK CFI 10520 .cfa: sp 16 +
STACK CFI 10524 .cfa: x29 16 + .ra: .cfa -8 + ^ x29: .cfa -16 + ^
STACK CFI INIT 10578 30 .cfa: sp 0 +
STACK CFI 1057c .cfa: sp 32 +
STACK CFI 10584 .cfa: x29 32 + x19: .cfa -16 + ^ .ra: .cfa -24 + ^ x29: .cfa -32 + ^
STACK CFI 1059c .cfa: sp 32 +
STACK CFI 105a4 .cfa: sp 0 +
STACK CFI INIT 105a8 c .cfa: sp 0 +
STACK CFI 105ac .cfa: sp 16 +
STACK CFI 105b0 .cfa: x29 16 + .ra: .cfa -8 + ^ x29: .cfa -16 + ^
STACK CFI INIT 105b4 e0 .cfa: sp 0 +
STACK CFI 105b8 .cfa: sp 48 +
STACK CFI 105c4 .cfa: x29 48 + x19: .cfa -8 + ^ x20: .cfa -16 + ^ x21: .cfa -32 + ^ .ra: .cfa -40 + ^ x29: .cfa -48 + ^
STACK CFI 10674 .cfa: sp 48 +
STACK CFI 10680 .cfa: sp 0 +
STACK CFI 10684 .cfa: sp 48 +
STACK CFI 10690 .cfa: sp 0 +
STACK CFI INIT 10694 4 .cfa: sp 0 +
STACK CFI INIT 10698 4 .cfa: sp 0 +
STACK CFI INIT 1069c 38 .cfa: sp 0 +
STACK CFI 106a0 .cfa: sp 32 +
STACK CFI 106a8 .cfa: x29 32 + x19: .cfa -16 + ^ .ra: .cfa -24 + ^ x29: .cfa -32 + ^
STACK CFI 106c8 .cfa: sp 32 +
STACK CFI 106d0 .cfa: sp 0 +
STACK CFI INIT 106d4 18 .cfa: sp 0 +
STACK CFI INIT 106ec 4 .cfa: sp 0 +
STACK CFI INIT 106f0 4 .cfa: sp 0 +
STACK CFI INIT 106f4 10 .cfa: sp 0 +
STACK CFI INIT 10704 1c .cfa: sp 0 +
STACK CFI INIT 10720 c .cfa: sp 0 +
STACK CFI INIT 1072c 70 .cfa: sp 0 +
STACK CFI 10730 .cfa: sp 48 +
STACK CFI 1073c .cfa: x29 32 + x19: .cfa -16 + ^ .ra: .cfa -24 + ^ x29: .cfa -32 + ^
STACK CFI 10774 .cfa: sp 48 +
STACK CFI 10780 .cfa: sp 0 +
STACK CFI 10784 .cfa: x29 32 +
STACK CFI INIT 1079c 8 .cfa: sp 0 +
STACK CFI INIT 107a4 5c .cfa: sp 0 +
STACK CFI 107a8 .cfa: sp 32 +
STACK CFI 107b0 .cfa: x29 32 + x19: .cfa -16 + ^ .ra: .cfa -24 + ^ x29: .cfa -32 + ^
STACK CFI 107f4 .cfa: sp 32 +
STACK CFI 107fc .cfa: sp 0 +
STACK CFI INIT 10800 64 .cfa: sp 0 +
STACK CFI 10804 .cfa: sp 32 +
STACK CFI 1080c .cfa: x29 32 + x19: .cfa -16 + ^ .ra: .cfa -24 + ^ x29: .cfa -32 + ^
STACK CFI 10858 .cfa: sp 32 +
STACK CFI 10860 .cfa: sp 0 +
STACK CFI INIT 10864 4 .cfa: sp 0 +
STACK CFI INIT 10868 34 .cfa: sp 0 +
STACK CFI 1086c .cfa: sp 16 +
STACK CFI 10870 .cfa: x29 16 + .ra: .cfa -8 + ^ x29: .cfa -16 + ^
STACK CFI INIT 1089c 24 .cfa: sp 0 +
STACK CFI 108a0 .cfa: sp 32 +
STACK CFI 108a8 .cfa: x29 32 + x19: .cfa -16 + ^ .ra: .cfa -24 + ^ x29: .cfa -32 + ^
STACK CFI 108b4 .cfa: sp 32 +
STACK CFI 108bc .cfa: sp 0 +
STACK CFI INIT 10a04 f0 .cfa: sp 0 +
STACK CFI 10a08 .cfa: sp 48 +
STACK CFI 10a14 .cfa: x29 48 + x19: .cfa -8 + ^ x20: .cfa -16 + ^ x21: .cfa -24 + ^ x22: .cfa -32 + ^ .ra: .cfa -40 + ^ x29: .cfa -48 + ^
STACK CFI 10a1c .cfa: sp 48 +
STACK CFI 10a28 .cfa: sp 0 +
STACK CFI 10a2c .cfa: x29 48 +
STACK CFI 10ae4 .cfa: sp 48 +
STACK CFI 10af0 .cfa: sp 0 +
STACK CFI INIT 10af4 c4 .cfa: sp 0 +
STACK CFI 10b04 .cfa: sp 32 +
STACK CFI 10b0c .cfa: x29 32 + x19: .cfa -8 + ^ x20: .cfa -16 + ^ .ra: .cfa -24 + ^ x29: .cfa -32 + ^
STACK CFI 10bac .cfa: sp 32 +
STACK CFI 10bb4 .cfa: sp 0 +
STACK CFI INIT 10fbc 50 .cfa: sp 0 +
STACK CFI 10fc0 .cfa: sp 32 +
STACK CFI 10fc8 .cfa: x29 32 + x19: .cfa -16 + ^ .ra: .cfa -24 + ^ x29: .cfa -32 + ^
STACK CFI 10fe0 .cfa: sp 32 +
STACK CFI 10fe8 .cfa: sp 0 +
STACK CFI 10fec .cfa: x29 32 +
STACK CFI 11000 .cfa: sp 32 +
STACK CFI 11008 .cfa: sp 0 +
STACK CFI INIT 11080 7c .cfa: sp 0 +
STACK CFI 11084 .cfa: sp 48 +
STACK CFI 11090 .cfa: x29 48 + x19: .cfa -8 + ^ x20: .cfa -16 + ^ x21: .cfa -32 + ^ .ra: .cfa -40 + ^ x29: .cfa -48 + ^
STACK CFI 110dc .cfa: sp 48 +
STACK CFI 110e8 .cfa: sp 0 +
STACK CFI 110ec .cfa: sp 48 +
STACK CFI 110f8 .cfa: sp 0 +
STACK CFI INIT 110fc 4 .cfa: sp 0 +
STACK CFI INIT 11254 34 .cfa: sp 0 +
STACK CFI 11258 .cfa: sp 16 +
STACK CFI 1125c .cfa: x29 16 + .ra: .cfa -8 + ^ x29: .cfa -16 + ^
STACK CFI INIT 113b4 80 .cfa: sp 0 +
STACK CFI 113b8 .cfa: sp 48 +
STACK CFI 113c4 .cfa: x29 48 + x19: .cfa -8 + ^ x20: .cfa -16 + ^ x21: .cfa -32 + ^ .ra: .cfa -40 + ^ x29: .cfa -48 + ^
STACK CFI 11424 .cfa: sp 48 +
STACK CFI 11430 .cfa: sp 0 +
STACK CFI INIT 11434 24 .cfa: sp 0 +
STACK CFI 11438 .cfa: sp 32 +
STACK CFI 11440 .cfa: x29 32 + x19: .cfa -16 + ^ .ra: .cfa -24 + ^ x29: .cfa -32 + ^
STACK CFI 1144c .cfa: sp 32 +
STACK CFI 11454 .cfa: sp 0 +
STACK CFI INIT 11950 148 .cfa: sp 0 +
STACK CFI 11954 .cfa: sp 48 +
STACK CFI 11960 .cfa: x29 48 + x19: .cfa -8 + ^ x20: .cfa -16 + ^ x21: .cfa -32 + ^ .ra: .cfa -40 + ^ x29: .cfa -48 + ^
STACK CFI 11a88 .cfa: sp 48 +
STACK CFI 11a94 .cfa: sp 0 +
STACK CFI INIT 11cbc 68 .cfa: sp 0 +
STACK CFI 11cc0 .cfa: sp 32 +
STACK CFI 11cc8 .cfa: x29 32 + x19: .cfa -8 + ^ x20: .cfa -16 + ^ .ra: .cfa -24 + ^ x29: .cfa -32 + ^
STACK CFI 11ce0 .cfa: sp 32 +
STACK CFI 11ce8 .cfa: sp 0 +
STACK CFI 11cec .cfa: x29 32 +
STACK CFI 11d18 .cfa: sp 32 +
STACK CFI 11d20 .cfa: sp 0 +
STACK CFI INIT 11d24 14 .cfa: sp 0 +
STACK CFI 11d28 .cfa: sp 16 +
STACK CFI 11d2c .cfa: x29 16 + .ra: .cfa -8 + ^ x29: .cfa -16 + ^
STACK CFI INIT 11d38 4 .cfa: sp 0 +
STACK CFI INIT 11d3c 14 .cfa: sp 0 +
STACK CFI INIT 11d50 120 .cfa: sp 0 +
STACK CFI 11d54 .cfa: sp 64 +
STACK CFI 11d64 .cfa: x29 64 + x19: .cfa -8 + ^ x20: .cfa -16 + ^ x21: .cfa -24 + ^ x22: .cfa -32 + ^ x23: .cfa -40 + ^ x24: .cfa -48 + ^ .ra: .cfa -56 + ^ x29: .cfa -64 + ^
STACK CFI 11e5c .cfa: sp 64 +
STACK CFI 11e6c .cfa: sp 0 +
STACK CFI INIT 11e70 4a4 .cfa: sp 0 +
STACK CFI 11e74 .cfa: sp 32 +
STACK CFI 11e7c .cfa: x29 32 + x19: .cfa -8 + ^ x20: .cfa -16 + ^ .ra: .cfa -24 + ^ x29: .cfa -32 + ^
STACK CFI 1225c .cfa: sp 32 +
STACK CFI 12264 .cfa: sp 0 +
STACK CFI 12268 .cfa: x29 32 +
STACK CFI INIT 12314 84 .cfa: sp 0 +
STACK CFI 1231c .cfa: sp 32 +
STACK CFI 12324 .cfa: x29 32 + x19: .cfa -8 + ^ x20: .cfa -16 + ^ .ra: .cfa -24 + ^ x29: .cfa -32 + ^
STACK CFI 12364 .cfa: sp 32 +
STACK CFI 1236c .cfa: sp 0 +
STACK CFI 12374 .cfa: x29 32 +
STACK CFI INIT 126d4 50 .cfa: sp 0 +
STACK CFI 126d8 .cfa: sp 32 +
STACK CFI 126e0 .cfa: x29 32 + x19: .cfa -16 + ^ .ra: .cfa -24 + ^ x29: .cfa -32 + ^
STACK CFI 126f8 .cfa: sp 32 +
STACK CFI 12700 .cfa: sp 0 +
STACK CFI 12704 .cfa: x29 32 +
STACK CFI 12718 .cfa: sp 32 +
STACK CFI 12720 .cfa: sp 0 +
STACK CFI INIT 12724 64 .cfa: sp 0 +
STACK CFI 12728 .cfa: sp 32 +
STACK CFI 12730 .cfa: x29 32 + x19: .cfa -16 + ^ .ra: .cfa -24 + ^ x29: .cfa -32 + ^
STACK CFI 1275c .cfa: sp 32 +
STACK CFI 12764 .cfa: sp 0 +
STACK CFI 12768 .cfa: x29 32 +
STACK CFI 1277c .cfa: sp 32 +
STACK CFI 12784 .cfa: sp 0 +
STACK CFI INIT 1327c 4 .cfa: sp 0 +
STACK CFI INIT 13280 f8 .cfa: sp 0 +
STACK CFI 13284 .cfa: sp 64 +
STACK CFI 13294 .cfa: x29 64 + x19: .cfa -8 + ^ x20: .cfa -16 + ^ x21: .cfa -24 + ^ x22: .cfa -32 + ^ x23: .cfa -48 + ^ .ra: .cfa -56 + ^ x29: .cfa -64 + ^
STACK CFI 132f0 .cfa: sp 64 +
STACK CFI 13300 .cfa: sp 0 +
STACK CFI 13304 .cfa: x29 64 +
STACK CFI 13320 .cfa: sp 64 +
STACK CFI 13330 .cfa: sp 0 +
STACK CFI 13334 .cfa: x29 64 +
STACK CFI 13364 .cfa: sp 64 +
STACK CFI 13374 .cfa: sp 0 +
STACK CFI INIT 133b0 168 .cfa: sp 0 +
STACK CFI 133b4 .cfa: sp 80 +
STACK CFI 133c8 .cfa: x29 80 + x19: .cfa -8 + ^ x20: .cfa -16 + ^ x21: .cfa -24 + ^ x22: .cfa -32 + ^ x23: .cfa -40 + ^ x24: .cfa -48 + ^ x25: .cfa -56 + ^ x26: .cfa -64 + ^ .ra: .cfa -72 + ^ x29: .cfa -80 + ^
STACK CFI 13500 .cfa: sp 80 +
STACK CFI 13514 .cfa: sp 0 +
STACK CFI INIT 13518 7c .cfa: sp 0 +
STACK CFI 1351c .cfa: sp 32 +
STACK CFI 13524 .cfa: x29 32 + x19: .cfa -8 + ^ x20: .cfa -16 + ^ .ra: .cfa -24 + ^ x29: .cfa -32 + ^
STACK CFI 1357c .cfa: sp 32 +
STACK CFI 13584 .cfa: sp 0 +
STACK CFI 13588 .cfa: sp 32 +
STACK CFI 13590 .cfa: sp 0 +
STACK CFI INIT 13594 1b0 .cfa: sp 0 +
STACK CFI INIT 14630 4 .cfa: sp 0 +
STACK CFI INIT 14ba8 4 .cfa: sp 0 +
STACK CFI INIT 14bac 14 .cfa: sp 0 +
STACK CFI INIT 156c0 34 .cfa: sp 0 +
STACK CFI 156d0 .cfa: sp 32 +
STACK CFI 156d8 .cfa: x29 32 + x19: .cfa -16 + ^ .ra: .cfa -24 + ^ x29: .cfa -32 + ^
STACK CFI 156e4 .cfa: sp 32 +
STACK CFI 156ec .cfa: sp 0 +
STACK CFI INIT 1660c 5c .cfa: sp 0 +
STACK CFI 16610 .cfa: sp 32 +
STACK CFI 16618 .cfa: x29 32 + x19: .cfa -16 + ^ .ra: .cfa -24 + ^ x29: .cfa -32 + ^
STACK CFI 16650 .cfa: sp 32 +
STACK CFI 16658 .cfa: sp 0 +
STACK CFI 1665c .cfa: sp 32 +
STACK CFI 16664 .cfa: sp 0 +
STACK CFI INIT 16668 4 .cfa: sp 0 +
STACK CFI INIT 1666c 24 .cfa: sp 0 +
STACK CFI 16670 .cfa: sp 16 +
STACK CFI 16674 .cfa: x29 16 + .ra: .cfa -8 + ^ x29: .cfa -16 + ^
STACK CFI 16688 .cfa: sp 16 +
STACK CFI 1668c .cfa: sp 0 +
STACK CFI INIT 16690 10 .cfa: sp 0 +
STACK CFI INIT 166a0 4 .cfa: sp 0 +
STACK CFI INIT 166a4 4 .cfa: sp 0 +
STACK CFI INIT 166a8 a8 .cfa: sp 0 +
STACK CFI 166ac .cfa: sp 64 +
STACK CFI 166bc .cfa: x29 48 + x19: .cfa -8 + ^ x20: .cfa -16 + ^ x21: .cfa -24 + ^ x22: .cfa -32 + ^ .ra: .cfa -40 + ^ x29: .cfa -48 + ^ v8: .cfa -64 + ^
STACK CFI 1673c .cfa: sp 64 +
STACK CFI 1674c .cfa: sp 0 +
STACK CFI INIT 16750 1c .cfa: sp 0 +
STACK CFI INIT 1676c c .cfa: sp 0 +
STACK CFI INIT 16778 12c .cfa: sp 0 +
STACK CFI 1677c .cfa: sp 80 +
STACK CFI 16794 .cfa: x29 56 + x19: .cfa -8 + ^ x20: .cfa -16 + ^ x21: .cfa -24 + ^ x22: .cfa -32 + ^ x23: .cfa -40 + ^ .ra: .cfa -48 + ^ x29: .cfa -56 + ^ v8: .cfa -64 + ^
STACK CFI 16884 .cfa: sp 80 +
STACK CFI 1689c .cfa: sp 0 +
STACK CFI 168a0 .cfa: x29 56 +
STACK CFI INIT 168a4 4 .cfa: sp 0 +
STACK CFI INIT 168a8 24 .cfa: sp 0 +
STACK CFI 168ac .cfa: sp 16 +
STACK CFI 168b0 .cfa: x29 16 + .ra: .cfa -8 + ^ x29: .cfa -16 + ^
STACK CFI 168c4 .cfa: sp 16 +
STACK CFI 168c8 .cfa: sp 0 +
STACK CFI INIT 168cc 10 .cfa: sp 0 +
STACK CFI INIT 168dc 4 .cfa: sp 0 +
STACK CFI INIT 168e0 4 .cfa: sp 0 +
STACK CFI INIT 168e4 70 .cfa: sp 0 +
STACK CFI 168e8 .cfa: sp 48 +
STACK CFI 168f4 .cfa: x29 48 + x19: .cfa -8 + ^ x20: .cfa -16 + ^ x21: .cfa -32 + ^ .ra: .cfa -40 + ^ x29: .cfa -48 + ^
STACK CFI 16944 .cfa: sp 48 +
STACK CFI 16950 .cfa: sp 0 +
STACK CFI INIT 16954 1c .cfa: sp 0 +
STACK CFI INIT 16970 c .cfa: sp 0 +
STACK CFI INIT 1697c 4 .cfa: sp 0 +
STACK CFI INIT 16980 4 .cfa: sp 0 +
STACK CFI INIT 16984 24 .cfa: sp 0 +
STACK CFI 16988 .cfa: sp 16 +
STACK CFI 1698c .cfa: x29 16 + .ra: .cfa -8 + ^ x29: .cfa -16 + ^
STACK CFI 169a0 .cfa: sp 16 +
STACK CFI 169a4 .cfa: sp 0 +
STACK CFI INIT 169a8 10 .cfa: sp 0 +
STACK CFI INIT 169b8 4 .cfa: sp 0 +
STACK CFI INIT 169bc 4 .cfa: sp 0 +
STACK CFI INIT 169c0 e8 .cfa: sp 0 +
STACK CFI 169c4 .cfa: sp 64 +
STACK CFI 169d4 .cfa: x29 48 + x19: .cfa -8 + ^ x20: .cfa -16 + ^ x21: .cfa -24 + ^ x22: .cfa -32 + ^ .ra: .cfa -40 + ^ x29: .cfa -48 + ^
STACK CFI 16a90 .cfa: sp 64 +
STACK CFI 16aa0 .cfa: sp 0 +
STACK CFI 16aa4 .cfa: x29 48 +
STACK CFI INIT 16aa8 1c .cfa: sp 0 +
STACK CFI INIT 16ac4 c .cfa: sp 0 +
STACK CFI INIT 16ad0 4 .cfa: sp 0 +
STACK CFI INIT 16ad4 4 .cfa: sp 0 +
STACK CFI INIT 16ad8 24 .cfa: sp 0 +
STACK CFI 16adc .cfa: sp 16 +
STACK CFI 16ae0 .cfa: x29 16 + .ra: .cfa -8 + ^ x29: .cfa -16 + ^
STACK CFI 16af4 .cfa: sp 16 +
STACK CFI 16af8 .cfa: sp 0 +
STACK CFI INIT 16afc 10 .cfa: sp 0 +
STACK CFI INIT 16b0c 4 .cfa: sp 0 +
STACK CFI INIT 16b10 4 .cfa: sp 0 +
STACK CFI INIT 16b14 18 .cfa: sp 0 +
STACK CFI INIT 16b2c 1c .cfa: sp 0 +
STACK CFI INIT 16b48 c .cfa: sp 0 +
STACK CFI INIT 17acc 4 .cfa: sp 0 +
STACK CFI INIT 18524 80 .cfa: sp 0 +
STACK CFI 18528 .cfa: sp 32 +
STACK CFI 18530 .cfa: x29 32 + x19: .cfa -16 + ^ .ra: .cfa -24 + ^ x29: .cfa -32 + ^
STACK CFI 1858c .cfa: sp 32 +
STACK CFI 18594 .cfa: sp 0 +
STACK CFI 18598 .cfa: sp 32 +
STACK CFI 185a0 .cfa: sp 0 +
STACK CFI INIT 185a4 80 .cfa: sp 0 +
STACK CFI 185a8 .cfa: sp 32 +
STACK CFI 185b0 .cfa: x29 32 + x19: .cfa -16 + ^ .ra: .cfa -24 + ^ x29: .cfa -32 + ^
STACK CFI 1860c .cfa: sp 32 +
STACK CFI 18614 .cfa: sp 0 +
STACK CFI 18618 .cfa: sp 32 +
STACK CFI 18620 .cfa: sp 0 +
STACK CFI INIT 18998 4 .cfa: sp 0 +
STACK CFI INIT 1899c 74 .cfa: sp 0 +
STACK CFI 189a0 .cfa: sp 32 +
STACK CFI 189a8 .cfa: x29 32 + x19: .cfa -16 + ^ .ra: .cfa -24 + ^ x29: .cfa -32 + ^
STACK CFI 189f8 .cfa: sp 32 +
STACK CFI 18a00 .cfa: sp 0 +
STACK CFI 18a04 .cfa: sp 32 +
STACK CFI 18a0c .cfa: sp 0 +
STACK CFI INIT 18a10 a0 .cfa: sp 0 +
STACK CFI 18a14 .cfa: sp 32 +
STACK CFI 18a1c .cfa: x29 32 + x19: .cfa -16 + ^ .ra: .cfa -24 + ^ x29: .cfa -32 + ^
STACK CFI 18a94 .cfa: sp 32 +
STACK CFI 18a9c .cfa: sp 0 +
STACK CFI 18aa0 .cfa: x29 32 +
STACK CFI 18aa4 .cfa: sp 32 +
STACK CFI 18aac .cfa: sp 0 +
STACK CFI INIT 18ab0 9c .cfa: sp 0 +
STACK CFI 18ab4 .cfa: sp 32 +
STACK CFI 18abc .cfa: x29 32 + x19: .cfa -16 + ^ .ra: .cfa -24 + ^ x29: .cfa -32 + ^
STACK CFI 18b40 .cfa: sp 32 +
STACK CFI 18b48 .cfa: sp 0 +
STACK CFI INIT 18bac 28 .cfa: sp 0 +
STACK CFI INIT 18bd4 94 .cfa: sp 0 +
STACK CFI 18bd8 .cfa: sp 32 +
STACK CFI 18be0 .cfa: x29 32 + x19: .cfa -16 + ^ .ra: .cfa -24 + ^ x29: .cfa -32 + ^
STACK CFI 18c4c .cfa: sp 32 +
STACK CFI 18c54 .cfa: sp 0 +
STACK CFI 18c58 .cfa: x29 32 +
STACK CFI 18c5c .cfa: sp 32 +
STACK CFI 18c64 .cfa: sp 0 +
STACK CFI INIT 18c68 90 .cfa: sp 0 +
STACK CFI 18c6c .cfa: sp 32 +
STACK CFI 18c74 .cfa: x29 32 + x19: .cfa -16 + ^ .ra: .cfa -24 + ^ x29: .cfa -32 + ^
STACK CFI 18cec .cfa: sp 32 +
STACK CFI 18cf4 .cfa: sp 0 +
STACK CFI INIT 18cf8 e8 .cfa: sp 0 +
STACK CFI 18cfc .cfa: sp 32 +
STACK CFI 18d04 .cfa: x29 32 + x19: .cfa -8 + ^ x20: .cfa -16 + ^ .ra: .cfa -24 + ^ x29: .cfa -32 + ^
STACK CFI 18dd4 .cfa: sp 32 +
STACK CFI 18ddc .cfa: sp 0 +
STACK CFI INIT 18de0 1c .cfa: sp 0 +
STACK CFI INIT 18dfc c .cfa: sp 0 +
STACK CFI INIT 18e08 3c .cfa: sp 0 +
STACK CFI 18e0c .cfa: sp 32 +
STACK CFI 18e14 .cfa: x29 32 + x19: .cfa -16 + ^ .ra: .cfa -24 + ^ x29: .cfa -32 + ^
STACK CFI 18e20 .cfa: sp 32 +
STACK CFI 18e28 .cfa: sp 0 +
STACK CFI 18e2c .cfa: x29 32 +
STACK CFI 18e38 .cfa: sp 32 +
STACK CFI 18e40 .cfa: sp 0 +
STACK CFI INIT 18e44 4c .cfa: sp 0 +
STACK CFI 18e48 .cfa: sp 32 +
STACK CFI 18e50 .cfa: x29 32 + x19: .cfa -8 + ^ x20: .cfa -16 + ^ .ra: .cfa -24 + ^ x29: .cfa -32 + ^
STACK CFI 18e78 .cfa: sp 32 +
STACK CFI 18e80 .cfa: sp 0 +
STACK CFI 18e84 .cfa: sp 32 +
STACK CFI 18e8c .cfa: sp 0 +
STACK CFI INIT 190b0 64 .cfa: sp 0 +
STACK CFI 190b4 .cfa: sp 32 +
STACK CFI 190bc .cfa: x29 32 + x19: .cfa -16 + ^ .ra: .cfa -24 + ^ x29: .cfa -32 + ^
STACK CFI 190e8 .cfa: sp 32 +
STACK CFI 190f0 .cfa: sp 0 +
STACK CFI 190f4 .cfa: x29 32 +
STACK CFI 19108 .cfa: sp 32 +
STACK CFI 19110 .cfa: sp 0 +
STACK CFI INIT 19338 24 .cfa: sp 0 +
STACK CFI 1933c .cfa: sp 32 +
STACK CFI 19344 .cfa: x29 32 + x19: .cfa -16 + ^ .ra: .cfa -24 + ^ x29: .cfa -32 + ^
STACK CFI 19350 .cfa: sp 32 +
STACK CFI 19358 .cfa: sp 0 +
STACK CFI INIT 199a4 4 .cfa: sp 0 +
STACK CFI INIT 199a8 14 .cfa: sp 0 +
STACK CFI INIT 19ec8 c .cfa: sp 0 +
STACK CFI INIT 19ed4 24c .cfa: sp 0 +
STACK CFI INIT 1a120 a0 .cfa: sp 0 +
STACK CFI 1a12c .cfa: sp 32 +
STACK CFI 1a184 .cfa: sp 0 +
STACK CFI 1a188 .cfa: sp 32 +
STACK CFI 1a190 .cfa: sp 0 +
STACK CFI 1a194 .cfa: sp 32 +
STACK CFI 1a1a8 .cfa: sp 0 +
STACK CFI 1a1ac .cfa: sp 32 +
STACK CFI 1a1bc .cfa: sp 0 +
STACK CFI INIT 1a1c0 38 .cfa: sp 0 +
STACK CFI 1a1cc .cfa: sp 32 +
STACK CFI 1a1f4 .cfa: sp 0 +
STACK CFI INIT 1a48c 7c .cfa: sp 0 +
STACK CFI 1a490 .cfa: sp 32 +
STACK CFI 1a498 .cfa: x29 32 + x19: .cfa -16 + ^ .ra: .cfa -24 + ^ x29: .cfa -32 + ^
STACK CFI 1a4c4 .cfa: sp 32 +
STACK CFI 1a4cc .cfa: sp 0 +
STACK CFI 1a4d0 .cfa: x29 32 +
STACK CFI 1a4fc .cfa: sp 32 +
STACK CFI 1a504 .cfa: sp 0 +
STACK CFI INIT 1a558 2c .cfa: sp 0 +
STACK CFI 1a55c .cfa: sp 32 +
STACK CFI 1a564 .cfa: x29 32 + x19: .cfa -16 + ^ .ra: .cfa -24 + ^ x29: .cfa -32 + ^
STACK CFI 1a578 .cfa: sp 32 +
STACK CFI 1a580 .cfa: sp 0 +
STACK CFI INIT 1ad44 64 .cfa: sp 0 +
STACK CFI 1ad48 .cfa: sp 32 +
STACK CFI 1ad50 .cfa: x29 32 + x19: .cfa -16 + ^ .ra: .cfa -24 + ^ x29: .cfa -32 + ^
STACK CFI 1ad6c .cfa: sp 32 +
STACK CFI 1ad74 .cfa: sp 0 +
STACK CFI 1ad78 .cfa: x29 32 +
STACK CFI 1ad9c .cfa: sp 32 +
STACK CFI 1ada4 .cfa: sp 0 +
STACK CFI INIT 1ada8 570 .cfa: sp 0 +
STACK CFI 1adac .cfa: sp 176 +
STACK CFI 1adc0 .cfa: x29 64 + x19: .cfa -8 + ^ x20: .cfa -16 + ^ x21: .cfa -24 + ^ x22: .cfa -32 + ^ x23: .cfa -40 + ^ x24: .cfa -48 + ^ .ra: .cfa -56 + ^ x29: .cfa -64 + ^
STACK CFI 1aff0 .cfa: sp 176 +
STACK CFI 1b004 .cfa: sp 0 +
STACK CFI 1b008 .cfa: x29 64 +
STACK CFI 1b054 .cfa: sp 176 +
STACK CFI 1b068 .cfa: sp 0 +
STACK CFI 1b06c .cfa: x29 64 +
STACK CFI 1b0a4 .cfa: sp 176 +
STACK CFI 1b0b8 .cfa: sp 0 +
STACK CFI 1b0bc .cfa: x29 64 +
STACK CFI 1b0d4 .cfa: sp 176 +
STACK CFI 1b0e8 .cfa: sp 0 +
STACK CFI 1b0ec .cfa: x29 64 +
STACK CFI 1b10c .cfa: sp 176 +
STACK CFI 1b120 .cfa: sp 0 +
STACK CFI 1b124 .cfa: x29 64 +
STACK CFI 1b13c .cfa: sp 176 +
STACK CFI 1b150 .cfa: sp 0 +
STACK CFI 1b154 .cfa: x29 64 +
STACK CFI 1b168 .cfa: sp 176 +
STACK CFI 1b17c .cfa: sp 0 +
STACK CFI 1b180 .cfa: x29 64 +
STACK CFI 1b194 .cfa: sp 176 +
STACK CFI 1b1a8 .cfa: sp 0 +
STACK CFI 1b1ac .cfa: x29 64 +
STACK CFI 1b1bc .cfa: sp 176 +
STACK CFI 1b1d0 .cfa: sp 0 +
STACK CFI 1b1d4 .cfa: x29 64 +
STACK CFI 1b1e4 .cfa: sp 176 +
STACK CFI 1b1f8 .cfa: sp 0 +
STACK CFI 1b1fc .cfa: x29 64 +
STACK CFI 1b214 .cfa: sp 176 +
STACK CFI 1b228 .cfa: sp 0 +
STACK CFI 1b22c .cfa: x29 64 +
STACK CFI 1b240 .cfa: sp 176 +
STACK CFI 1b254 .cfa: sp 0 +
STACK CFI 1b258 .cfa: x29 64 +
STACK CFI 1b270 .cfa: sp 176 +
STACK CFI 1b284 .cfa: sp 0 +
STACK CFI 1b288 .cfa: x29 64 +
STACK CFI 1b2b4 .cfa: sp 176 +
STACK CFI 1b2c8 .cfa: sp 0 +
STACK CFI 1b2cc .cfa: x29 64 +
STACK CFI 1b2e0 .cfa: sp 176 +
STACK CFI 1b2f4 .cfa: sp 0 +
STACK CFI 1b2f8 .cfa: x29 64 +
STACK CFI INIT 1b318 228 .cfa: sp 0 +
STACK CFI INIT 1b540 2dc .cfa: sp 0 +
STACK CFI INIT 1b81c 53c .cfa: sp 0 +
STACK CFI INIT 1bd58 78 .cfa: sp 0 +
STACK CFI 1bd5c .cfa: sp 48 +
STACK CFI 1bd68 .cfa: x29 48 + x19: .cfa -8 + ^ x20: .cfa -16 + ^ x21: .cfa -24 + ^ x22: .cfa -32 + ^ .ra: .cfa -40 + ^ x29: .cfa -48 + ^
STACK CFI 1bdb0 .cfa: sp 48 +
STACK CFI 1bdbc .cfa: sp 0 +
STACK CFI 1bdc0 .cfa: sp 48 +
STACK CFI 1bdcc .cfa: sp 0 +
STACK CFI INIT 1bdd0 8c .cfa: sp 0 +
STACK CFI 1bdd4 .cfa: sp 32 +
STACK CFI 1bddc .cfa: x29 32 + x19: .cfa -16 + ^ .ra: .cfa -24 + ^ x29: .cfa -32 + ^
STACK CFI 1be10 .cfa: sp 32 +
STACK CFI 1be18 .cfa: sp 0 +
STACK CFI 1be1c .cfa: x29 32 +
STACK CFI 1be50 .cfa: sp 32 +
STACK CFI 1be58 .cfa: sp 0 +
STACK CFI INIT 1be5c 24 .cfa: sp 0 +
STACK CFI 1be60 .cfa: sp 32 +
STACK CFI 1be68 .cfa: x29 32 + x19: .cfa -16 + ^ .ra: .cfa -24 + ^ x29: .cfa -32 + ^
STACK CFI 1be74 .cfa: sp 32 +
STACK CFI 1be7c .cfa: sp 0 +
STACK CFI INIT 1be80 150 .cfa: sp 0 +
STACK CFI 1be84 .cfa: sp 48 +
STACK CFI 1be90 .cfa: x29 48 + x19: .cfa -8 + ^ x20: .cfa -16 + ^ x21: .cfa -24 + ^ x22: .cfa -32 + ^ .ra: .cfa -40 + ^ x29: .cfa -48 + ^
STACK CFI 1bfc0 .cfa: sp 48 +
STACK CFI 1bfcc .cfa: sp 0 +
STACK CFI INIT 1bfd0 68 .cfa: sp 0 +
STACK CFI 1bfd4 .cfa: sp 64 +
STACK CFI 1bfe0 .cfa: x29 32 + x19: .cfa -16 + ^ .ra: .cfa -24 + ^ x29: .cfa -32 + ^
STACK CFI 1c024 .cfa: sp 64 +
STACK CFI 1c030 .cfa: sp 0 +
STACK CFI 1c034 .cfa: x29 32 +
STACK CFI INIT 1c038 90 .cfa: sp 0 +
STACK CFI 1c03c .cfa: sp 32 +
STACK CFI 1c044 .cfa: x29 32 + x19: .cfa -8 + ^ x20: .cfa -16 + ^ .ra: .cfa -24 + ^ x29: .cfa -32 + ^
STACK CFI 1c070 .cfa: sp 32 +
STACK CFI 1c078 .cfa: sp 0 +
STACK CFI 1c07c .cfa: x29 32 +
STACK CFI 1c0bc .cfa: sp 32 +
STACK CFI 1c0c4 .cfa: sp 0 +
STACK CFI INIT 1c0c8 ec .cfa: sp 0 +
STACK CFI 1c0cc .cfa: sp 112 +
STACK CFI 1c0dc .cfa: x29 48 + x19: .cfa -8 + ^ x20: .cfa -16 + ^ x21: .cfa -32 + ^ .ra: .cfa -40 + ^ x29: .cfa -48 + ^
STACK CFI 1c19c .cfa: sp 112 +
STACK CFI 1c1ac .cfa: sp 0 +
STACK CFI 1c1b0 .cfa: x29 48 +
STACK CFI INIT 1c1b4 ec .cfa: sp 0 +
STACK CFI 1c1b8 .cfa: sp 112 +
STACK CFI 1c1c8 .cfa: x29 48 + x19: .cfa -8 + ^ x20: .cfa -16 + ^ x21: .cfa -32 + ^ .ra: .cfa -40 + ^ x29: .cfa -48 + ^
STACK CFI 1c288 .cfa: sp 112 +
STACK CFI 1c298 .cfa: sp 0 +
STACK CFI 1c29c .cfa: x29 48 +
STACK CFI INIT 1c2a0 48 .cfa: sp 0 +
STACK CFI 1c2a4 .cfa: sp 32 +
STACK CFI 1c2ac .cfa: x29 32 + x19: .cfa -8 + ^ x20: .cfa -16 + ^ .ra: .cfa -24 + ^ x29: .cfa -32 + ^
STACK CFI 1c2d0 .cfa: sp 32 +
STACK CFI 1c2d8 .cfa: sp 0 +
STACK CFI 1c2dc .cfa: x29 32 +
STACK CFI INIT 1c2e8 98 .cfa: sp 0 +
STACK CFI 1c2ec .cfa: sp 80 +
STACK CFI 1c2f8 .cfa: x29 32 + x19: .cfa -16 + ^ .ra: .cfa -24 + ^ x29: .cfa -32 + ^
STACK CFI 1c36c .cfa: sp 80 +
STACK CFI 1c378 .cfa: sp 0 +
STACK CFI 1c37c .cfa: x29 32 +
STACK CFI INIT 1c380 260 .cfa: sp 0 +
STACK CFI 1c384 .cfa: sp 112 +
STACK CFI 1c39c .cfa: x29 80 + x19: .cfa -8 + ^ x20: .cfa -16 + ^ x21: .cfa -24 + ^ x22: .cfa -32 + ^ x23: .cfa -40 + ^ x24: .cfa -48 + ^ x25: .cfa -64 + ^ .ra: .cfa -72 + ^ x29: .cfa -80 + ^
STACK CFI 1c580 .cfa: sp 112 +
STACK CFI 1c598 .cfa: sp 0 +
STACK CFI 1c59c .cfa: x29 80 +
STACK CFI INIT 1c5e0 150 .cfa: sp 0 +
STACK CFI 1c5e4 .cfa: sp 48 +
STACK CFI 1c5f0 .cfa: x29 48 + x19: .cfa -8 + ^ x20: .cfa -16 + ^ x21: .cfa -24 + ^ x22: .cfa -32 + ^ .ra: .cfa -40 + ^ x29: .cfa -48 + ^
STACK CFI 1c720 .cfa: sp 48 +
STACK CFI 1c72c .cfa: sp 0 +
STACK CFI INIT 1c730 1e0 .cfa: sp 0 +
STACK CFI 1c734 .cfa: sp 96 +
STACK CFI 1c748 .cfa: x29 64 + x19: .cfa -8 + ^ x20: .cfa -16 + ^ x21: .cfa -24 + ^ x22: .cfa -32 + ^ x23: .cfa -40 + ^ x24: .cfa -48 + ^ .ra: .cfa -56 + ^ x29: .cfa -64 + ^
STACK CFI 1c8c8 .cfa: sp 96 +
STACK CFI 1c8dc .cfa: sp 0 +
STACK CFI 1c8e0 .cfa: x29 64 +
STACK CFI INIT 1c910 284 .cfa: sp 0 +
STACK CFI 1c914 .cfa: sp 112 +
STACK CFI 1c92c .cfa: x29 80 + x19: .cfa -8 + ^ x20: .cfa -16 + ^ x21: .cfa -24 + ^ x22: .cfa -32 + ^ x23: .cfa -40 + ^ x24: .cfa -48 + ^ x25: .cfa -64 + ^ .ra: .cfa -72 + ^ x29: .cfa -80 + ^
STACK CFI 1cb34 .cfa: sp 112 +
STACK CFI 1cb4c .cfa: sp 0 +
STACK CFI 1cb50 .cfa: x29 80 +
STACK CFI INIT 1cb94 208 .cfa: sp 0 +
STACK CFI 1cb98 .cfa: sp 96 +
STACK CFI 1cbac .cfa: x29 64 + x19: .cfa -8 + ^ x20: .cfa -16 + ^ x21: .cfa -24 + ^ x22: .cfa -32 + ^ x23: .cfa -40 + ^ x24: .cfa -48 + ^ .ra: .cfa -56 + ^ x29: .cfa -64 + ^
STACK CFI 1cd54 .cfa: sp 96 +
STACK CFI 1cd68 .cfa: sp 0 +
STACK CFI 1cd6c .cfa: x29 64 +
STACK CFI INIT 1cd9c 360 .cfa: sp 0 +
STACK CFI 1cda0 .cfa: sp 160 +
STACK CFI 1cdbc .cfa: x29 96 + x19: .cfa -8 + ^ x20: .cfa -16 + ^ x21: .cfa -24 + ^ x22: .cfa -32 + ^ x23: .cfa -40 + ^ x24: .cfa -48 + ^ x25: .cfa -56 + ^ x26: .cfa -64 + ^ x27: .cfa -72 + ^ x28: .cfa -80 + ^ .ra: .cfa -88 + ^ x29: .cfa -96 + ^
STACK CFI 1d088 .cfa: sp 160 +
STACK CFI 1d0a4 .cfa: sp 0 +
STACK CFI 1d0a8 .cfa: x29 96 +
STACK CFI INIT 1d0fc 314 .cfa: sp 0 +
STACK CFI 1d100 .cfa: sp 144 +
STACK CFI 1d11c .cfa: x29 96 + x19: .cfa -8 + ^ x20: .cfa -16 + ^ x21: .cfa -24 + ^ x22: .cfa -32 + ^ x23: .cfa -40 + ^ x24: .cfa -48 + ^ x25: .cfa -56 + ^ x26: .cfa -64 + ^ x27: .cfa -72 + ^ x28: .cfa -80 + ^ .ra: .cfa -88 + ^ x29: .cfa -96 + ^
STACK CFI 1d398 .cfa: sp 144 +
STACK CFI 1d3b4 .cfa: sp 0 +
STACK CFI 1d3b8 .cfa: x29 96 +
STACK CFI INIT 1d410 290 .cfa: sp 0 +
STACK CFI 1d414 .cfa: sp 128 +
STACK CFI 1d42c .cfa: x29 80 + x19: .cfa -8 + ^ x20: .cfa -16 + ^ x21: .cfa -24 + ^ x22: .cfa -32 + ^ x23: .cfa -40 + ^ x24: .cfa -48 + ^ x25: .cfa -56 + ^ x26: .cfa -64 + ^ .ra: .cfa -72 + ^ x29: .cfa -80 + ^
STACK CFI 1d680 .cfa: sp 128 +
STACK CFI 1d698 .cfa: sp 0 +
STACK CFI 1d69c .cfa: x29 80 +
STACK CFI INIT 1d6a0 ddc .cfa: sp 0 +
STACK CFI 1d6a4 .cfa: sp 144 +
STACK CFI 1d6c0 .cfa: x29 96 + x19: .cfa -8 + ^ x20: .cfa -16 + ^ x21: .cfa -24 + ^ x22: .cfa -32 + ^ x23: .cfa -40 + ^ x24: .cfa -48 + ^ x25: .cfa -56 + ^ x26: .cfa -64 + ^ x27: .cfa -72 + ^ x28: .cfa -80 + ^ .ra: .cfa -88 + ^ x29: .cfa -96 + ^
STACK CFI 1e354 .cfa: sp 144 +
STACK CFI 1e370 .cfa: sp 0 +
STACK CFI 1e374 .cfa: x29 96 +
STACK CFI INIT 1e47c 1d0 .cfa: sp 0 +
STACK CFI 1e480 .cfa: sp 80 +
STACK CFI 1e494 .cfa: x29 80 + x19: .cfa -8 + ^ x20: .cfa -16 + ^ x21: .cfa -24 + ^ x22: .cfa -32 + ^ x23: .cfa -40 + ^ x24: .cfa -48 + ^ x25: .cfa -64 + ^ .ra: .cfa -72 + ^ x29: .cfa -80 + ^
STACK CFI 1e634 .cfa: sp 80 +
STACK CFI 1e648 .cfa: sp 0 +
STACK CFI INIT 1e64c 23c .cfa: sp 0 +
STACK CFI 1e650 .cfa: sp 112 +
STACK CFI 1e664 .cfa: x29 64 + x19: .cfa -8 + ^ x20: .cfa -16 + ^ x21: .cfa -24 + ^ x22: .cfa -32 + ^ x23: .cfa -40 + ^ x24: .cfa -48 + ^ .ra: .cfa -56 + ^ x29: .cfa -64 + ^
STACK CFI 1e840 .cfa: sp 112 +
STACK CFI 1e854 .cfa: sp 0 +
STACK CFI 1e858 .cfa: x29 64 +
STACK CFI INIT 1e888 30c .cfa: sp 0 +
STACK CFI 1e88c .cfa: sp 80 +
STACK CFI 1e8a0 .cfa: x29 64 + x19: .cfa -8 + ^ x20: .cfa -16 + ^ x21: .cfa -24 + ^ x22: .cfa -32 + ^ x23: .cfa -40 + ^ x24: .cfa -48 + ^ .ra: .cfa -56 + ^ x29: .cfa -64 + ^
STACK CFI 1ea1c .cfa: sp 80 +
STACK CFI 1ea30 .cfa: sp 0 +
STACK CFI 1ea34 .cfa: x29 64 +
STACK CFI INIT 1eb94 178 .cfa: sp 0 +
STACK CFI 1eb98 .cfa: sp 80 +
STACK CFI 1ebac .cfa: x29 64 + x19: .cfa -8 + ^ x20: .cfa -16 + ^ x21: .cfa -24 + ^ x22: .cfa -32 + ^ x23: .cfa -40 + ^ x24: .cfa -48 + ^ .ra: .cfa -56 + ^ x29: .cfa -64 + ^
STACK CFI 1ecf0 .cfa: sp 80 +
STACK CFI 1ed04 .cfa: sp 0 +
STACK CFI 1ed08 .cfa: x29 64 +
STACK CFI INIT 1ed0c 178 .cfa: sp 0 +
STACK CFI 1ed10 .cfa: sp 80 +
STACK CFI 1ed24 .cfa: x29 64 + x19: .cfa -8 + ^ x20: .cfa -16 + ^ x21: .cfa -24 + ^ x22: .cfa -32 + ^ x23: .cfa -40 + ^ x24: .cfa -48 + ^ .ra: .cfa -56 + ^ x29: .cfa -64 + ^
STACK CFI 1ee68 .cfa: sp 80 +
STACK CFI 1ee7c .cfa: sp 0 +
STACK CFI 1ee80 .cfa: x29 64 +
STACK CFI INIT 1ee84 240 .cfa: sp 0 +
STACK CFI 1ee88 .cfa: sp 96 +
STACK CFI 1eea0 .cfa: x29 96 + x19: .cfa -8 + ^ x20: .cfa -16 + ^ x21: .cfa -24 + ^ x22: .cfa -32 + ^ x23: .cfa -40 + ^ x24: .cfa -48 + ^ x25: .cfa -56 + ^ x26: .cfa -64 + ^ x27: .cfa -72 + ^ x28: .cfa -80 + ^ .ra: .cfa -88 + ^ x29: .cfa -96 + ^
STACK CFI 1f0a8 .cfa: sp 96 +
STACK CFI 1f0c0 .cfa: sp 0 +
STACK CFI INIT 1fd38 154 .cfa: sp 0 +
STACK CFI 1fd3c .cfa: sp 96 +
STACK CFI 1fd50 .cfa: x29 64 + x19: .cfa -8 + ^ x20: .cfa -16 + ^ x21: .cfa -24 + ^ x22: .cfa -32 + ^ x23: .cfa -48 + ^ .ra: .cfa -56 + ^ x29: .cfa -64 + ^
STACK CFI 1fe30 .cfa: sp 96 +
STACK CFI 1fe44 .cfa: sp 0 +
STACK CFI 1fe48 .cfa: x29 64 +
STACK CFI INIT 200f8 44 .cfa: sp 0 +
STACK CFI 200fc .cfa: sp 32 +
STACK CFI 20104 .cfa: x29 32 + x19: .cfa -16 + ^ .ra: .cfa -24 + ^ x29: .cfa -32 + ^
STACK CFI 20120 .cfa: sp 32 +
STACK CFI 20128 .cfa: sp 0 +
STACK CFI 2012c .cfa: x29 32 +
STACK CFI 20130 .cfa: sp 32 +
STACK CFI 20138 .cfa: sp 0 +
STACK CFI INIT 2013c 1d0 .cfa: sp 0 +
STACK CFI 20140 .cfa: sp 64 +
STACK CFI 20150 .cfa: x29 64 + x19: .cfa -8 + ^ x20: .cfa -16 + ^ x21: .cfa -24 + ^ x22: .cfa -32 + ^ x23: .cfa -40 + ^ x24: .cfa -48 + ^ .ra: .cfa -56 + ^ x29: .cfa -64 + ^
STACK CFI 20210 .cfa: sp 64 +
STACK CFI 20220 .cfa: sp 0 +
STACK CFI 20224 .cfa: x29 64 +
STACK CFI INIT 2030c 17c .cfa: sp 0 +
STACK CFI INIT 20488 ac .cfa: sp 0 +
STACK CFI 2048c .cfa: sp 64 +
STACK CFI 2049c .cfa: x29 64 + x19: .cfa -8 + ^ x20: .cfa -16 + ^ x21: .cfa -24 + ^ x22: .cfa -32 + ^ x23: .cfa -48 + ^ .ra: .cfa -56 + ^ x29: .cfa -64 + ^
STACK CFI 20518 .cfa: sp 64 +
STACK CFI 20528 .cfa: sp 0 +
STACK CFI 2052c .cfa: x29 64 +
STACK CFI INIT 20534 110 .cfa: sp 0 +
STACK CFI 20538 .cfa: sp 64 +
STACK CFI 20548 .cfa: x29 64 + x19: .cfa -8 + ^ x20: .cfa -16 + ^ x21: .cfa -24 + ^ x22: .cfa -32 + ^ x23: .cfa -40 + ^ x24: .cfa -48 + ^ .ra: .cfa -56 + ^ x29: .cfa -64 + ^
STACK CFI 20628 .cfa: sp 64 +
STACK CFI 20638 .cfa: sp 0 +
STACK CFI 2063c .cfa: x29 64 +
STACK CFI INIT 209fc a0 .cfa: sp 0 +
STACK CFI 20a00 .cfa: sp 48 +
STACK CFI 20a0c .cfa: x29 48 + x19: .cfa -8 + ^ x20: .cfa -16 + ^ x21: .cfa -24 + ^ x22: .cfa -32 + ^ .ra: .cfa -40 + ^ x29: .cfa -48 + ^
STACK CFI 20a78 .cfa: sp 48 +
STACK CFI 20a84 .cfa: sp 0 +
STACK CFI 20a88 .cfa: sp 48 +
STACK CFI 20a94 .cfa: sp 0 +
STACK CFI 20a98 .cfa: x29 48 +
STACK CFI INIT 21750 158 .cfa: sp 0 +
STACK CFI 21754 .cfa: sp 96 +
STACK CFI 21768 .cfa: x29 64 + x19: .cfa -8 + ^ x20: .cfa -16 + ^ x21: .cfa -24 + ^ x22: .cfa -32 + ^ x23: .cfa -48 + ^ .ra: .cfa -56 + ^ x29: .cfa -64 + ^
STACK CFI 2184c .cfa: sp 96 +
STACK CFI 21860 .cfa: sp 0 +
STACK CFI 21864 .cfa: x29 64 +
STACK CFI INIT 218a8 190 .cfa: sp 0 +
STACK CFI INIT 22534 1dc .cfa: sp 0 +
STACK CFI 22538 .cfa: sp 80 +
STACK CFI 2254c .cfa: x29 80 + x19: .cfa -8 + ^ x20: .cfa -16 + ^ x21: .cfa -24 + ^ x22: .cfa -32 + ^ x23: .cfa -40 + ^ x24: .cfa -48 + ^ x25: .cfa -64 + ^ .ra: .cfa -72 + ^ x29: .cfa -80 + ^
STACK CFI 226f8 .cfa: sp 80 +
STACK CFI 2270c .cfa: sp 0 +
STACK CFI INIT 23b40 124 .cfa: sp 0 +
STACK CFI 23b70 .cfa: sp 32 +
STACK CFI 23b78 .cfa: x29 32 + x19: .cfa -8 + ^ x20: .cfa -16 + ^ .ra: .cfa -24 + ^ x29: .cfa -32 + ^
STACK CFI 23c58 .cfa: sp 32 +
STACK CFI 23c60 .cfa: sp 0 +
STACK CFI INIT 243c0 320 .cfa: sp 0 +
STACK CFI 243c4 .cfa: sp 64 +
STACK CFI 243d4 .cfa: x29 64 + x19: .cfa -8 + ^ x20: .cfa -16 + ^ x21: .cfa -24 + ^ x22: .cfa -32 + ^ x23: .cfa -40 + ^ x24: .cfa -48 + ^ .ra: .cfa -56 + ^ x29: .cfa -64 + ^
STACK CFI 24450 .cfa: sp 64 +
STACK CFI 24460 .cfa: sp 0 +
STACK CFI 24464 .cfa: x29 64 +
STACK CFI 24638 .cfa: sp 64 +
STACK CFI 24648 .cfa: sp 0 +
STACK CFI 2464c .cfa: x29 64 +
STACK CFI 2465c .cfa: sp 64 +
STACK CFI 2466c .cfa: sp 0 +
STACK CFI 24670 .cfa: x29 64 +
STACK CFI INIT 246e0 a0 .cfa: sp 0 +
STACK CFI 246e4 .cfa: sp 48 +
STACK CFI 246f0 .cfa: x29 48 + x19: .cfa -8 + ^ x20: .cfa -16 + ^ x21: .cfa -24 + ^ x22: .cfa -32 + ^ .ra: .cfa -40 + ^ x29: .cfa -48 + ^
STACK CFI 2475c .cfa: sp 48 +
STACK CFI 24768 .cfa: sp 0 +
STACK CFI 2476c .cfa: sp 48 +
STACK CFI 24778 .cfa: sp 0 +
STACK CFI 2477c .cfa: x29 48 +
STACK CFI INIT 25630 160 .cfa: sp 0 +
STACK CFI 25634 .cfa: sp 64 +
STACK CFI 25644 .cfa: x29 64 + x19: .cfa -8 + ^ x20: .cfa -16 + ^ x21: .cfa -24 + ^ x22: .cfa -32 + ^ x23: .cfa -48 + ^ .ra: .cfa -56 + ^ x29: .cfa -64 + ^
STACK CFI 2573c .cfa: sp 64 +
STACK CFI 2574c .cfa: sp 0 +
STACK CFI 25750 .cfa: x29 64 +
STACK CFI INIT 25790 214 .cfa: sp 0 +
STACK CFI 25794 .cfa: sp 128 +
STACK CFI 257b0 .cfa: x29 96 + x19: .cfa -8 + ^ x20: .cfa -16 + ^ x21: .cfa -24 + ^ x22: .cfa -32 + ^ x23: .cfa -40 + ^ x24: .cfa -48 + ^ x25: .cfa -56 + ^ x26: .cfa -64 + ^ x27: .cfa -80 + ^ .ra: .cfa -88 + ^ x29: .cfa -96 + ^
STACK CFI 2592c .cfa: sp 128 +
STACK CFI 25948 .cfa: sp 0 +
STACK CFI 2594c .cfa: x29 96 +
STACK CFI INIT 27640 290 .cfa: sp 0 +
STACK CFI 27644 .cfa: sp 16 +
STACK CFI 27648 .cfa: x29 16 + .ra: .cfa -8 + ^ x29: .cfa -16 + ^
STACK CFI 276d4 .cfa: sp 16 +
STACK CFI 276d8 .cfa: sp 0 +
STACK CFI 276dc .cfa: x29 16 +
STACK CFI 2772c .cfa: sp 16 +
STACK CFI 27730 .cfa: sp 0 +
STACK CFI 27734 .cfa: x29 16 +
STACK CFI 27898 .cfa: sp 16 +
STACK CFI 2789c .cfa: sp 0 +
STACK CFI 278a0 .cfa: x29 16 +
STACK CFI INIT 278d0 158 .cfa: sp 0 +
STACK CFI 278d4 .cfa: sp 112 +
STACK CFI 278f0 .cfa: x29 96 + x19: .cfa -8 + ^ x20: .cfa -16 + ^ x21: .cfa -24 + ^ x22: .cfa -32 + ^ x23: .cfa -40 + ^ x24: .cfa -48 + ^ x25: .cfa -56 + ^ x26: .cfa -64 + ^ x27: .cfa -72 + ^ x28: .cfa -80 + ^ .ra: .cfa -88 + ^ x29: .cfa -96 + ^
STACK CFI 279d8 .cfa: sp 112 +
STACK CFI 279dc .cfa: x29 96 +
STACK CFI 279e4 .cfa: sp 112 +
STACK CFI 27a00 .cfa: sp 0 +
STACK CFI 27a04 .cfa: x29 96 +
STACK CFI 27a24 .cfa: sp 112 +
STACK CFI INIT 27a28 e54 .cfa: sp 0 +
STACK CFI 27a2c .cfa: sp 192 +
STACK CFI 27a48 .cfa: x29 96 + x19: .cfa -8 + ^ x20: .cfa -16 + ^ x21: .cfa -24 + ^ x22: .cfa -32 + ^ x23: .cfa -40 + ^ x24: .cfa -48 + ^ x25: .cfa -56 + ^ x26: .cfa -64 + ^ x27: .cfa -72 + ^ x28: .cfa -80 + ^ .ra: .cfa -88 + ^ x29: .cfa -96 + ^
STACK CFI 28764 .cfa: sp 192 +
STACK CFI 28780 .cfa: sp 0 +
STACK CFI 28784 .cfa: x29 96 +
STACK CFI INIT 2887c 1068 .cfa: sp 0 +
STACK CFI 28880 .cfa: sp 288 +
STACK CFI 2889c .cfa: x29 96 + x19: .cfa -8 + ^ x20: .cfa -16 + ^ x21: .cfa -24 + ^ x22: .cfa -32 + ^ x23: .cfa -40 + ^ x24: .cfa -48 + ^ x25: .cfa -56 + ^ x26: .cfa -64 + ^ x27: .cfa -72 + ^ x28: .cfa -80 + ^ .ra: .cfa -88 + ^ x29: .cfa -96 + ^
STACK CFI 2962c .cfa: sp 288 +
STACK CFI 29648 .cfa: sp 0 +
STACK CFI 2964c .cfa: x29 96 +
STACK CFI INIT 298e4 520 .cfa: sp 0 +
STACK CFI 298e8 .cfa: sp 144 +
STACK CFI 29904 .cfa: x29 96 + x19: .cfa -8 + ^ x20: .cfa -16 + ^ x21: .cfa -24 + ^ x22: .cfa -32 + ^ x23: .cfa -40 + ^ x24: .cfa -48 + ^ x25: .cfa -56 + ^ x26: .cfa -64 + ^ x27: .cfa -72 + ^ x28: .cfa -80 + ^ .ra: .cfa -88 + ^ x29: .cfa -96 + ^
STACK CFI 29de0 .cfa: sp 144 +
STACK CFI 29dfc .cfa: sp 0 +
STACK CFI 29e00 .cfa: x29 96 +
STACK CFI INIT 2a7a4 136c .cfa: sp 0 +
STACK CFI 2a7a8 .cfa: sp 224 +
STACK CFI 2a7c4 .cfa: x29 96 + x19: .cfa -8 + ^ x20: .cfa -16 + ^ x21: .cfa -24 + ^ x22: .cfa -32 + ^ x23: .cfa -40 + ^ x24: .cfa -48 + ^ x25: .cfa -56 + ^ x26: .cfa -64 + ^ x27: .cfa -72 + ^ x28: .cfa -80 + ^ .ra: .cfa -88 + ^ x29: .cfa -96 + ^
STACK CFI 2baec .cfa: sp 224 +
STACK CFI 2bb08 .cfa: sp 0 +
STACK CFI 2bb0c .cfa: x29 96 +
STACK CFI INIT 2bb10 1b8 .cfa: sp 0 +
STACK CFI INIT cb90 134 .cfa: sp 0 +
STACK CFI cb94 .cfa: sp 128 +
STACK CFI cba4 .cfa: x29 48 + x19: .cfa -8 + ^ x20: .cfa -16 + ^ x21: .cfa -24 + ^ x22: .cfa -32 + ^ .ra: .cfa -40 + ^ x29: .cfa -48 + ^
STACK CFI cc7c .cfa: sp 128 +
STACK CFI cc8c .cfa: sp 0 +
STACK CFI cc90 .cfa: x29 48 +
STACK CFI INIT ccc4 39c .cfa: sp 0 +
STACK CFI ccc8 .cfa: sp 240 +
STACK CFI cce0 .cfa: x29 80 + x19: .cfa -8 + ^ x20: .cfa -16 + ^ x21: .cfa -24 + ^ x22: .cfa -32 + ^ x23: .cfa -40 + ^ x24: .cfa -48 + ^ x25: .cfa -64 + ^ .ra: .cfa -72 + ^ x29: .cfa -80 + ^
STACK CFI cf38 .cfa: sp 240 +
STACK CFI cf50 .cfa: sp 0 +
STACK CFI cf54 .cfa: x29 80 +
STACK CFI INIT d0f4 cac .cfa: sp 0 +
STACK CFI d0f8 .cfa: sp 112 +
STACK CFI d114 .cfa: x29 96 + x19: .cfa -8 + ^ x20: .cfa -16 + ^ x21: .cfa -24 + ^ x22: .cfa -32 + ^ x23: .cfa -40 + ^ x24: .cfa -48 + ^ x25: .cfa -56 + ^ x26: .cfa -64 + ^ x27: .cfa -72 + ^ x28: .cfa -80 + ^ .ra: .cfa -88 + ^ x29: .cfa -96 + ^ v8: .cfa -112 + ^
STACK CFI dba8 .cfa: sp 112 +
STACK CFI dbc4 .cfa: sp 0 +
STACK CFI dbc8 .cfa: x29 96 +
STACK CFI INIT dda0 178 .cfa: sp 0 +
STACK CFI dda4 .cfa: sp 48 +
STACK CFI ddb0 .cfa: x29 48 + x19: .cfa -8 + ^ x20: .cfa -16 + ^ x21: .cfa -24 + ^ x22: .cfa -32 + ^ .ra: .cfa -40 + ^ x29: .cfa -48 + ^
STACK CFI de6c .cfa: sp 48 +
STACK CFI de78 .cfa: sp 0 +
STACK CFI de7c .cfa: x29 48 +
STACK CFI de9c .cfa: sp 48 +
STACK CFI dea8 .cfa: sp 0 +
STACK CFI deac .cfa: x29 48 +
STACK CFI INIT dfac 3ec .cfa: sp 0 +
STACK CFI dfb0 .cfa: sp 384 +
STACK CFI dfc8 .cfa: x29 80 + x19: .cfa -8 + ^ x20: .cfa -16 + ^ x21: .cfa -24 + ^ x22: .cfa -32 + ^ x23: .cfa -40 + ^ x24: .cfa -48 + ^ x28: .cfa -64 + ^ .ra: .cfa -72 + ^ x29: .cfa -80 + ^
STACK CFI e274 .cfa: sp 384 +
STACK CFI e28c .cfa: sp 0 +
STACK CFI e290 .cfa: x29 80 +
STACK CFI INIT e3c8 484 .cfa: sp 0 +
STACK CFI e3cc .cfa: sp 224 +
STACK CFI e3e8 .cfa: x29 96 + x19: .cfa -8 + ^ x20: .cfa -16 + ^ x21: .cfa -24 + ^ x22: .cfa -32 + ^ x23: .cfa -40 + ^ x24: .cfa -48 + ^ x25: .cfa -56 + ^ x26: .cfa -64 + ^ x27: .cfa -72 + ^ x28: .cfa -80 + ^ .ra: .cfa -88 + ^ x29: .cfa -96 + ^
STACK CFI e658 .cfa: sp 224 +
STACK CFI e674 .cfa: sp 0 +
STACK CFI e678 .cfa: x29 96 +
STACK CFI e744 .cfa: sp 224 +
STACK CFI e760 .cfa: sp 0 +
STACK CFI e764 .cfa: x29 96 +
STACK CFI INIT e864 538 .cfa: sp 0 +
STACK CFI e868 .cfa: sp 224 +
STACK CFI e884 .cfa: x29 96 + x19: .cfa -8 + ^ x20: .cfa -16 + ^ x21: .cfa -24 + ^ x22: .cfa -32 + ^ x23: .cfa -40 + ^ x24: .cfa -48 + ^ x25: .cfa -56 + ^ x26: .cfa -64 + ^ x27: .cfa -72 + ^ x28: .cfa -80 + ^ .ra: .cfa -88 + ^ x29: .cfa -96 + ^
STACK CFI eb9c .cfa: sp 224 +
STACK CFI ebb8 .cfa: sp 0 +
STACK CFI ebbc .cfa: x29 96 +
STACK CFI ec88 .cfa: sp 224 +
STACK CFI eca4 .cfa: sp 0 +
STACK CFI eca8 .cfa: x29 96 +
STACK CFI INIT edb4 538 .cfa: sp 0 +
STACK CFI edb8 .cfa: sp 224 +
STACK CFI edd4 .cfa: x29 96 + x19: .cfa -8 + ^ x20: .cfa -16 + ^ x21: .cfa -24 + ^ x22: .cfa -32 + ^ x23: .cfa -40 + ^ x24: .cfa -48 + ^ x25: .cfa -56 + ^ x26: .cfa -64 + ^ x27: .cfa -72 + ^ x28: .cfa -80 + ^ .ra: .cfa -88 + ^ x29: .cfa -96 + ^
STACK CFI f0ec .cfa: sp 224 +
STACK CFI f108 .cfa: sp 0 +
STACK CFI f10c .cfa: x29 96 +
STACK CFI f1d8 .cfa: sp 224 +
STACK CFI f1f4 .cfa: sp 0 +
STACK CFI f1f8 .cfa: x29 96 +
STACK CFI INIT f304 45c .cfa: sp 0 +
STACK CFI f308 .cfa: sp 224 +
STACK CFI f324 .cfa: x29 96 + x19: .cfa -8 + ^ x20: .cfa -16 + ^ x21: .cfa -24 + ^ x22: .cfa -32 + ^ x23: .cfa -40 + ^ x24: .cfa -48 + ^ x25: .cfa -56 + ^ x26: .cfa -64 + ^ x27: .cfa -72 + ^ x28: .cfa -80 + ^ .ra: .cfa -88 + ^ x29: .cfa -96 + ^
STACK CFI f648 .cfa: sp 224 +
STACK CFI f664 .cfa: sp 0 +
STACK CFI f668 .cfa: x29 96 +
STACK CFI INIT f78c 50 .cfa: sp 0 +
STACK CFI f790 .cfa: sp 32 +
STACK CFI f798 .cfa: x29 32 + x19: .cfa -8 + ^ x20: .cfa -16 + ^ .ra: .cfa -24 + ^ x29: .cfa -32 + ^
STACK CFI INIT f8d0 344 .cfa: sp 0 +
STACK CFI f8d4 .cfa: sp 128 +
STACK CFI f8ec .cfa: x29 80 + x19: .cfa -8 + ^ x20: .cfa -16 + ^ x21: .cfa -24 + ^ x22: .cfa -32 + ^ x23: .cfa -40 + ^ x24: .cfa -48 + ^ x25: .cfa -64 + ^ .ra: .cfa -72 + ^ x29: .cfa -80 + ^
STACK CFI fba0 .cfa: sp 128 +
STACK CFI fbb8 .cfa: sp 0 +
STACK CFI fbbc .cfa: x29 80 +
STACK CFI INIT fcf4 19c .cfa: sp 0 +
STACK CFI fcf8 .cfa: sp 112 +
STACK CFI fd08 .cfa: x29 48 + x19: .cfa -8 + ^ x20: .cfa -16 + ^ x21: .cfa -32 + ^ .ra: .cfa -40 + ^ x29: .cfa -48 + ^
STACK CFI fde8 .cfa: sp 112 +
STACK CFI fdf8 .cfa: sp 0 +
STACK CFI fdfc .cfa: x29 48 +
STACK CFI INIT fe90 444 .cfa: sp 0 +
STACK CFI fe94 .cfa: sp 176 +
STACK CFI feb0 .cfa: x29 96 + x19: .cfa -8 + ^ x20: .cfa -16 + ^ x21: .cfa -24 + ^ x22: .cfa -32 + ^ x23: .cfa -40 + ^ x24: .cfa -48 + ^ x25: .cfa -56 + ^ x26: .cfa -64 + ^ x27: .cfa -72 + ^ x28: .cfa -80 + ^ .ra: .cfa -88 + ^ x29: .cfa -96 + ^
STACK CFI fef0 .cfa: sp 176 +
STACK CFI ff0c .cfa: sp 0 +
STACK CFI ff10 .cfa: x29 96 +
STACK CFI INIT 102d4 10c .cfa: sp 0 +
STACK CFI 102d8 .cfa: sp 64 +
STACK CFI 102e8 .cfa: x29 64 + x19: .cfa -8 + ^ x20: .cfa -16 + ^ x21: .cfa -24 + ^ x22: .cfa -32 + ^ x23: .cfa -48 + ^ .ra: .cfa -56 + ^ x29: .cfa -64 + ^
STACK CFI 103c0 .cfa: sp 64 +
STACK CFI 103d0 .cfa: sp 0 +
STACK CFI 103d4 .cfa: x29 64 +
STACK CFI INIT 103e0 114 .cfa: sp 0 +
STACK CFI 103e4 .cfa: sp 48 +
STACK CFI 103f0 .cfa: x29 48 + x19: .cfa -8 + ^ x20: .cfa -16 + ^ x21: .cfa -32 + ^ .ra: .cfa -40 + ^ x29: .cfa -48 + ^
STACK CFI 104d4 .cfa: sp 48 +
STACK CFI 104e0 .cfa: sp 0 +
STACK CFI 104e4 .cfa: x29 48 +
STACK CFI INIT 10528 50 .cfa: sp 0 +
STACK CFI 1052c .cfa: sp 32 +
STACK CFI 10534 .cfa: x29 32 + x19: .cfa -8 + ^ x20: .cfa -16 + ^ .ra: .cfa -24 + ^ x29: .cfa -32 + ^
STACK CFI INIT 108c0 144 .cfa: sp 0 +
STACK CFI 108c4 .cfa: sp 144 +
STACK CFI 108d8 .cfa: x29 64 + x19: .cfa -8 + ^ x20: .cfa -16 + ^ x21: .cfa -24 + ^ x22: .cfa -32 + ^ x23: .cfa -40 + ^ x24: .cfa -48 + ^ .ra: .cfa -56 + ^ x29: .cfa -64 + ^
STACK CFI 1099c .cfa: sp 144 +
STACK CFI 109b0 .cfa: sp 0 +
STACK CFI 109b4 .cfa: x29 64 +
STACK CFI INIT 10bb8 404 .cfa: sp 0 +
STACK CFI 10bbc .cfa: sp 272 +
STACK CFI 10bd0 .cfa: x29 64 + x19: .cfa -8 + ^ x20: .cfa -16 + ^ x21: .cfa -24 + ^ x22: .cfa -32 + ^ x23: .cfa -40 + ^ x28: .cfa -48 + ^ .ra: .cfa -56 + ^ x29: .cfa -64 + ^
STACK CFI 10e80 .cfa: sp 272 +
STACK CFI 10e94 .cfa: sp 0 +
STACK CFI 10e98 .cfa: x29 64 +
STACK CFI INIT 1100c 74 .cfa: sp 0 +
STACK CFI 11010 .cfa: sp 48 +
STACK CFI 1101c .cfa: x29 32 + x19: .cfa -8 + ^ x20: .cfa -16 + ^ .ra: .cfa -24 + ^ x29: .cfa -32 + ^
STACK CFI 11068 .cfa: sp 48 +
STACK CFI 11074 .cfa: sp 0 +
STACK CFI 11078 .cfa: x29 32 +
STACK CFI INIT 11100 154 .cfa: sp 0 +
STACK CFI 11104 .cfa: sp 384 +
STACK CFI 11118 .cfa: x29 64 + x19: .cfa -8 + ^ x20: .cfa -16 + ^ x21: .cfa -24 + ^ x22: .cfa -32 + ^ x23: .cfa -40 + ^ x28: .cfa -48 + ^ .ra: .cfa -56 + ^ x29: .cfa -64 + ^
STACK CFI 111fc .cfa: sp 384 +
STACK CFI 11210 .cfa: sp 0 +
STACK CFI 11214 .cfa: x29 64 +
STACK CFI INIT 11288 12c .cfa: sp 0 +
STACK CFI 1128c .cfa: sp 80 +
STACK CFI 112a0 .cfa: x29 80 + x19: .cfa -8 + ^ x20: .cfa -16 + ^ x21: .cfa -24 + ^ x22: .cfa -32 + ^ x23: .cfa -40 + ^ x24: .cfa -48 + ^ x25: .cfa -56 + ^ x26: .cfa -64 + ^ .ra: .cfa -72 + ^ x29: .cfa -80 + ^
STACK CFI 11368 .cfa: sp 80 +
STACK CFI 1137c .cfa: sp 0 +
STACK CFI 11380 .cfa: x29 80 +
STACK CFI INIT 11458 1a4 .cfa: sp 0 +
STACK CFI 1145c .cfa: sp 112 +
STACK CFI 11474 .cfa: x29 80 + x19: .cfa -8 + ^ x20: .cfa -16 + ^ x21: .cfa -24 + ^ x22: .cfa -32 + ^ x23: .cfa -40 + ^ x24: .cfa -48 + ^ x25: .cfa -56 + ^ x26: .cfa -64 + ^ .ra: .cfa -72 + ^ x29: .cfa -80 + ^
STACK CFI 11564 .cfa: sp 112 +
STACK CFI 1157c .cfa: sp 0 +
STACK CFI 11580 .cfa: x29 80 +
STACK CFI INIT 115fc 1dc .cfa: sp 0 +
STACK CFI 11600 .cfa: sp 128 +
STACK CFI 1161c .cfa: x29 96 + x19: .cfa -8 + ^ x20: .cfa -16 + ^ x21: .cfa -24 + ^ x22: .cfa -32 + ^ x23: .cfa -40 + ^ x24: .cfa -48 + ^ x25: .cfa -56 + ^ x26: .cfa -64 + ^ x27: .cfa -80 + ^ .ra: .cfa -88 + ^ x29: .cfa -96 + ^
STACK CFI 11788 .cfa: sp 128 +
STACK CFI 117a4 .cfa: sp 0 +
STACK CFI 117a8 .cfa: x29 96 +
STACK CFI INIT 117d8 178 .cfa: sp 0 +
STACK CFI 117dc .cfa: sp 80 +
STACK CFI 117f0 .cfa: x29 80 + x19: .cfa -8 + ^ x20: .cfa -16 + ^ x21: .cfa -24 + ^ x22: .cfa -32 + ^ x23: .cfa -40 + ^ x24: .cfa -48 + ^ x25: .cfa -64 + ^ .ra: .cfa -72 + ^ x29: .cfa -80 + ^
STACK CFI 1191c .cfa: sp 80 +
STACK CFI 11930 .cfa: sp 0 +
STACK CFI 11934 .cfa: x29 80 +
STACK CFI INIT 11a98 224 .cfa: sp 0 +
STACK CFI 11a9c .cfa: sp 128 +
STACK CFI 11ab4 .cfa: x29 80 + x19: .cfa -8 + ^ x20: .cfa -16 + ^ x21: .cfa -24 + ^ x22: .cfa -32 + ^ x23: .cfa -40 + ^ x24: .cfa -48 + ^ x25: .cfa -64 + ^ .ra: .cfa -72 + ^ x29: .cfa -80 + ^
STACK CFI 11c50 .cfa: sp 128 +
STACK CFI 11c68 .cfa: sp 0 +
STACK CFI 11c6c .cfa: x29 80 +
STACK CFI INIT 12398 33c .cfa: sp 0 +
STACK CFI 1239c .cfa: sp 144 +
STACK CFI 123b4 .cfa: x29 80 + x19: .cfa -8 + ^ x20: .cfa -16 + ^ x21: .cfa -24 + ^ x22: .cfa -32 + ^ x23: .cfa -40 + ^ x24: .cfa -48 + ^ x25: .cfa -56 + ^ x26: .cfa -64 + ^ .ra: .cfa -72 + ^ x29: .cfa -80 + ^
STACK CFI 12680 .cfa: sp 144 +
STACK CFI 12698 .cfa: sp 0 +
STACK CFI 1269c .cfa: x29 80 +
STACK CFI INIT 12788 188 .cfa: sp 0 +
STACK CFI 1278c .cfa: sp 112 +
STACK CFI 1279c .cfa: x29 48 + x19: .cfa -8 + ^ x20: .cfa -16 + ^ x21: .cfa -32 + ^ .ra: .cfa -40 + ^ x29: .cfa -48 + ^
STACK CFI 12864 .cfa: sp 112 +
STACK CFI 12874 .cfa: sp 0 +
STACK CFI 12878 .cfa: x29 48 +
STACK CFI INIT 12910 96c .cfa: sp 0 +
STACK CFI 12914 .cfa: sp 208 +
STACK CFI 12940 .cfa: x29 96 + x19: .cfa -8 + ^ x20: .cfa -16 + ^ x21: .cfa -24 + ^ x22: .cfa -32 + ^ x23: .cfa -40 + ^ x24: .cfa -48 + ^ x25: .cfa -56 + ^ x26: .cfa -64 + ^ x27: .cfa -72 + ^ x28: .cfa -80 + ^ .ra: .cfa -88 + ^ x29: .cfa -96 + ^ v8: .cfa -104 + ^ v9: .cfa -112 + ^ v10: .cfa -120 + ^ v11: .cfa -128 + ^ v12: .cfa -136 + ^ v13: .cfa -144 + ^ v14: .cfa -152 + ^ v15: .cfa -160 + ^
STACK CFI 131c4 .cfa: sp 208 +
STACK CFI 131f0 .cfa: sp 0 +
STACK CFI 131f4 .cfa: x29 96 +
STACK CFI INIT 13378 1c .cfa: sp 0 +
STACK CFI 1337c .cfa: sp 16 +
STACK CFI 13380 .cfa: x29 16 + .ra: .cfa -8 + ^ x29: .cfa -16 + ^
STACK CFI 13388 .cfa: sp 16 +
STACK CFI 1338c .cfa: sp 0 +
STACK CFI 13390 .cfa: x29 16 +
STACK CFI INIT 13394 1c .cfa: sp 0 +
STACK CFI 13398 .cfa: sp 16 +
STACK CFI 1339c .cfa: x29 16 + .ra: .cfa -8 + ^ x29: .cfa -16 + ^
STACK CFI 133a4 .cfa: sp 16 +
STACK CFI 133a8 .cfa: sp 0 +
STACK CFI 133ac .cfa: x29 16 +
STACK CFI INIT 13744 eec .cfa: sp 0 +
STACK CFI 13748 .cfa: sp 272 +
STACK CFI 13764 .cfa: x29 96 + x19: .cfa -8 + ^ x20: .cfa -16 + ^ x21: .cfa -24 + ^ x22: .cfa -32 + ^ x23: .cfa -40 + ^ x24: .cfa -48 + ^ x25: .cfa -56 + ^ x26: .cfa -64 + ^ x27: .cfa -72 + ^ x28: .cfa -80 + ^ .ra: .cfa -88 + ^ x29: .cfa -96 + ^
STACK CFI 141fc .cfa: sp 272 +
STACK CFI 14218 .cfa: sp 0 +
STACK CFI 1421c .cfa: x29 96 +
STACK CFI INIT 14634 238 .cfa: sp 0 +
STACK CFI 14638 .cfa: sp 128 +
STACK CFI 1464c .cfa: x29 64 + x19: .cfa -8 + ^ x20: .cfa -16 + ^ x21: .cfa -24 + ^ x22: .cfa -32 + ^ x23: .cfa -48 + ^ .ra: .cfa -56 + ^ x29: .cfa -64 + ^
STACK CFI 147f4 .cfa: sp 128 +
STACK CFI 14808 .cfa: sp 0 +
STACK CFI 1480c .cfa: x29 64 +
STACK CFI INIT 1486c 1d4 .cfa: sp 0 +
STACK CFI 14870 .cfa: sp 128 +
STACK CFI 1488c .cfa: x29 96 + x19: .cfa -8 + ^ x20: .cfa -16 + ^ x21: .cfa -24 + ^ x22: .cfa -32 + ^ x23: .cfa -40 + ^ x24: .cfa -48 + ^ x25: .cfa -56 + ^ x26: .cfa -64 + ^ x27: .cfa -72 + ^ x28: .cfa -80 + ^ .ra: .cfa -88 + ^ x29: .cfa -96 + ^
STACK CFI 149f8 .cfa: sp 128 +
STACK CFI 14a14 .cfa: sp 0 +
STACK CFI 14a18 .cfa: x29 96 +
STACK CFI INIT 14a40 168 .cfa: sp 0 +
STACK CFI 14a44 .cfa: sp 384 +
STACK CFI 14a58 .cfa: x29 64 + x19: .cfa -8 + ^ x20: .cfa -16 + ^ x21: .cfa -24 + ^ x22: .cfa -32 + ^ x23: .cfa -40 + ^ x28: .cfa -48 + ^ .ra: .cfa -56 + ^ x29: .cfa -64 + ^
STACK CFI 14b50 .cfa: sp 384 +
STACK CFI 14b64 .cfa: sp 0 +
STACK CFI 14b68 .cfa: x29 64 +
STACK CFI INIT 14bc0 97c .cfa: sp 0 +
STACK CFI 14bc4 .cfa: sp 96 +
STACK CFI 14bdc .cfa: x29 96 + x19: .cfa -8 + ^ x20: .cfa -16 + ^ x21: .cfa -24 + ^ x22: .cfa -32 + ^ x23: .cfa -40 + ^ x24: .cfa -48 + ^ x25: .cfa -56 + ^ x26: .cfa -64 + ^ x27: .cfa -72 + ^ x28: .cfa -80 + ^ .ra: .cfa -88 + ^ x29: .cfa -96 + ^
STACK CFI 153ac .cfa: sp 96 +
STACK CFI 153c4 .cfa: sp 0 +
STACK CFI 153c8 .cfa: x29 96 +
STACK CFI INIT 1553c 184 .cfa: sp 0 +
STACK CFI 15540 .cfa: sp 160 +
STACK CFI 15558 .cfa: x29 80 + x19: .cfa -8 + ^ x20: .cfa -16 + ^ x21: .cfa -24 + ^ x22: .cfa -32 + ^ x23: .cfa -40 + ^ x24: .cfa -48 + ^ x25: .cfa -56 + ^ x26: .cfa -64 + ^ .ra: .cfa -72 + ^ x29: .cfa -80 + ^
STACK CFI 15658 .cfa: sp 160 +
STACK CFI 15670 .cfa: sp 0 +
STACK CFI 15674 .cfa: x29 80 +
STACK CFI INIT 156f4 390 .cfa: sp 0 +
STACK CFI 156f8 .cfa: sp 144 +
STACK CFI 15714 .cfa: x29 96 + x19: .cfa -8 + ^ x20: .cfa -16 + ^ x21: .cfa -24 + ^ x22: .cfa -32 + ^ x23: .cfa -40 + ^ x24: .cfa -48 + ^ x25: .cfa -56 + ^ x26: .cfa -64 + ^ x27: .cfa -72 + ^ x28: .cfa -80 + ^ .ra: .cfa -88 + ^ x29: .cfa -96 + ^
STACK CFI 15894 .cfa: sp 144 +
STACK CFI 158b0 .cfa: sp 0 +
STACK CFI 158b4 .cfa: x29 96 +
STACK CFI 15a14 .cfa: sp 144 +
STACK CFI 15a30 .cfa: sp 0 +
STACK CFI 15a34 .cfa: x29 96 +
STACK CFI INIT 15a84 294 .cfa: sp 0 +
STACK CFI 15a88 .cfa: sp 48 +
STACK CFI 15a94 .cfa: x29 48 + x19: .cfa -8 + ^ x20: .cfa -16 + ^ x21: .cfa -24 + ^ x22: .cfa -32 + ^ .ra: .cfa -40 + ^ x29: .cfa -48 + ^
STACK CFI 15c20 .cfa: sp 48 +
STACK CFI 15c2c .cfa: sp 0 +
STACK CFI 15c30 .cfa: x29 48 +
STACK CFI 15cdc .cfa: sp 48 +
STACK CFI 15ce8 .cfa: sp 0 +
STACK CFI 15cec .cfa: x29 48 +
STACK CFI INIT 15d18 8f4 .cfa: sp 0 +
STACK CFI 15d1c .cfa: sp 352 +
STACK CFI 15d38 .cfa: x29 96 + x19: .cfa -8 + ^ x20: .cfa -16 + ^ x21: .cfa -24 + ^ x22: .cfa -32 + ^ x23: .cfa -40 + ^ x24: .cfa -48 + ^ x25: .cfa -56 + ^ x26: .cfa -64 + ^ x27: .cfa -72 + ^ x28: .cfa -80 + ^ .ra: .cfa -88 + ^ x29: .cfa -96 + ^
STACK CFI 164e4 .cfa: sp 352 +
STACK CFI 16500 .cfa: sp 0 +
STACK CFI 16504 .cfa: x29 96 +
STACK CFI INIT 16b54 1b4 .cfa: sp 0 +
STACK CFI 16b58 .cfa: sp 80 +
STACK CFI 16b6c .cfa: x29 80 + x19: .cfa -8 + ^ x20: .cfa -16 + ^ x21: .cfa -24 + ^ x22: .cfa -32 + ^ x23: .cfa -40 + ^ x24: .cfa -48 + ^ x25: .cfa -56 + ^ x26: .cfa -64 + ^ .ra: .cfa -72 + ^ x29: .cfa -80 + ^
STACK CFI 16c74 .cfa: sp 80 +
STACK CFI 16c88 .cfa: sp 0 +
STACK CFI 16c8c .cfa: x29 80 +
STACK CFI INIT 16d08 1c .cfa: sp 0 +
STACK CFI 16d0c .cfa: sp 16 +
STACK CFI 16d10 .cfa: x29 16 + .ra: .cfa -8 + ^ x29: .cfa -16 + ^
STACK CFI 16d18 .cfa: sp 16 +
STACK CFI 16d1c .cfa: sp 0 +
STACK CFI 16d20 .cfa: x29 16 +
STACK CFI INIT 16d24 3fc .cfa: sp 0 +
STACK CFI 16d28 .cfa: sp 352 +
STACK CFI 16d44 .cfa: x29 96 + x19: .cfa -8 + ^ x20: .cfa -16 + ^ x21: .cfa -24 + ^ x22: .cfa -32 + ^ x23: .cfa -40 + ^ x24: .cfa -48 + ^ x25: .cfa -56 + ^ x26: .cfa -64 + ^ x27: .cfa -72 + ^ x28: .cfa -80 + ^ .ra: .cfa -88 + ^ x29: .cfa -96 + ^
STACK CFI 170ac .cfa: sp 352 +
STACK CFI 170c8 .cfa: sp 0 +
STACK CFI 170cc .cfa: x29 96 +
STACK CFI INIT 17120 154 .cfa: sp 0 +
STACK CFI 17124 .cfa: sp 64 +
STACK CFI 17134 .cfa: x29 64 + x19: .cfa -8 + ^ x20: .cfa -16 + ^ x21: .cfa -24 + ^ x22: .cfa -32 + ^ x23: .cfa -40 + ^ x24: .cfa -48 + ^ .ra: .cfa -56 + ^ x29: .cfa -64 + ^
STACK CFI 17208 .cfa: sp 64 +
STACK CFI 17218 .cfa: sp 0 +
STACK CFI 1721c .cfa: x29 64 +
STACK CFI INIT 17274 154 .cfa: sp 0 +
STACK CFI 17278 .cfa: sp 64 +
STACK CFI 17288 .cfa: x29 64 + x19: .cfa -8 + ^ x20: .cfa -16 + ^ x21: .cfa -24 + ^ x22: .cfa -32 + ^ x23: .cfa -40 + ^ x24: .cfa -48 + ^ .ra: .cfa -56 + ^ x29: .cfa -64 + ^
STACK CFI 1735c .cfa: sp 64 +
STACK CFI 1736c .cfa: sp 0 +
STACK CFI 17370 .cfa: x29 64 +
STACK CFI INIT 173c8 704 .cfa: sp 0 +
STACK CFI 173cc .cfa: sp 208 +
STACK CFI 173e4 .cfa: x29 80 + x19: .cfa -8 + ^ x20: .cfa -16 + ^ x21: .cfa -24 + ^ x22: .cfa -32 + ^ x23: .cfa -40 + ^ x24: .cfa -48 + ^ x25: .cfa -64 + ^ .ra: .cfa -72 + ^ x29: .cfa -80 + ^
STACK CFI 17894 .cfa: sp 208 +
STACK CFI 178ac .cfa: sp 0 +
STACK CFI 178b0 .cfa: x29 80 +
STACK CFI INIT 17ad0 238 .cfa: sp 0 +
STACK CFI 17ad4 .cfa: sp 128 +
STACK CFI 17ae8 .cfa: x29 64 + x19: .cfa -8 + ^ x20: .cfa -16 + ^ x21: .cfa -24 + ^ x22: .cfa -32 + ^ x23: .cfa -48 + ^ .ra: .cfa -56 + ^ x29: .cfa -64 + ^
STACK CFI 17c90 .cfa: sp 128 +
STACK CFI 17ca4 .cfa: sp 0 +
STACK CFI 17ca8 .cfa: x29 64 +
STACK CFI INIT 17d08 698 .cfa: sp 0 +
STACK CFI 17d0c .cfa: sp 176 +
STACK CFI 17d2c .cfa: x29 96 + x19: .cfa -8 + ^ x20: .cfa -16 + ^ x21: .cfa -24 + ^ x22: .cfa -32 + ^ x23: .cfa -40 + ^ x24: .cfa -48 + ^ x25: .cfa -56 + ^ x26: .cfa -64 + ^ x27: .cfa -72 + ^ x28: .cfa -80 + ^ .ra: .cfa -88 + ^ x29: .cfa -96 + ^ v8: .cfa -104 + ^ v9: .cfa -112 + ^
STACK CFI 182c0 .cfa: sp 176 +
STACK CFI 182e0 .cfa: sp 0 +
STACK CFI 182e4 .cfa: x29 96 +
STACK CFI INIT 183a0 184 .cfa: sp 0 +
STACK CFI 183a4 .cfa: sp 160 +
STACK CFI 183bc .cfa: x29 80 + x19: .cfa -8 + ^ x20: .cfa -16 + ^ x21: .cfa -24 + ^ x22: .cfa -32 + ^ x23: .cfa -40 + ^ x24: .cfa -48 + ^ x25: .cfa -56 + ^ x26: .cfa -64 + ^ .ra: .cfa -72 + ^ x29: .cfa -80 + ^
STACK CFI 184bc .cfa: sp 160 +
STACK CFI 184d4 .cfa: sp 0 +
STACK CFI 184d8 .cfa: x29 80 +
STACK CFI INIT 18624 374 .cfa: sp 0 +
STACK CFI 18628 .cfa: sp 256 +
STACK CFI 1863c .cfa: x29 64 + x19: .cfa -8 + ^ x20: .cfa -16 + ^ x21: .cfa -24 + ^ x22: .cfa -32 + ^ x23: .cfa -48 + ^ .ra: .cfa -56 + ^ x29: .cfa -64 + ^
STACK CFI 1886c .cfa: sp 256 +
STACK CFI 18880 .cfa: sp 0 +
STACK CFI 18884 .cfa: x29 64 +
STACK CFI INIT 18b4c 60 .cfa: sp 0 +
STACK CFI 18b50 .cfa: sp 32 +
STACK CFI 18b58 .cfa: x29 32 + x19: .cfa -8 + ^ x20: .cfa -16 + ^ .ra: .cfa -24 + ^ x29: .cfa -32 + ^
STACK CFI 18b8c .cfa: sp 32 +
STACK CFI 18b94 .cfa: sp 0 +
STACK CFI 18b98 .cfa: x29 32 +
STACK CFI INIT 18e90 134 .cfa: sp 0 +
STACK CFI 18e94 .cfa: sp 80 +
STACK CFI 18ea0 .cfa: x29 32 + x19: .cfa -8 + ^ x20: .cfa -16 + ^ .ra: .cfa -24 + ^ x29: .cfa -32 + ^
STACK CFI 18ed0 .cfa: sp 80 +
STACK CFI 18edc .cfa: sp 0 +
STACK CFI 18ee0 .cfa: x29 32 +
STACK CFI INIT 18fc4 78 .cfa: sp 0 +
STACK CFI 18fc8 .cfa: sp 32 +
STACK CFI 18fd0 .cfa: x29 32 + x19: .cfa -8 + ^ x20: .cfa -16 + ^ .ra: .cfa -24 + ^ x29: .cfa -32 + ^
STACK CFI 18fdc .cfa: sp 32 +
STACK CFI 18fe4 .cfa: sp 0 +
STACK CFI 18fe8 .cfa: x29 32 +
STACK CFI INIT 1903c 74 .cfa: sp 0 +
STACK CFI 19040 .cfa: sp 48 +
STACK CFI 1904c .cfa: x29 32 + x19: .cfa -8 + ^ x20: .cfa -16 + ^ .ra: .cfa -24 + ^ x29: .cfa -32 + ^
STACK CFI 19098 .cfa: sp 48 +
STACK CFI 190a4 .cfa: sp 0 +
STACK CFI 190a8 .cfa: x29 32 +
STACK CFI INIT 19114 224 .cfa: sp 0 +
STACK CFI 19118 .cfa: sp 128 +
STACK CFI 19128 .cfa: x29 48 + x19: .cfa -8 + ^ x20: .cfa -16 + ^ x21: .cfa -32 + ^ .ra: .cfa -40 + ^ x29: .cfa -48 + ^
STACK CFI 191d8 .cfa: sp 128 +
STACK CFI 191e8 .cfa: sp 0 +
STACK CFI 191ec .cfa: x29 48 +
STACK CFI INIT 1935c 4f4 .cfa: sp 0 +
STACK CFI 19360 .cfa: sp 144 +
STACK CFI 19374 .cfa: x29 64 + x19: .cfa -8 + ^ x20: .cfa -16 + ^ x21: .cfa -24 + ^ x22: .cfa -32 + ^ x23: .cfa -48 + ^ .ra: .cfa -56 + ^ x29: .cfa -64 + ^
STACK CFI 196a8 .cfa: sp 144 +
STACK CFI 196bc .cfa: sp 0 +
STACK CFI 196c0 .cfa: x29 64 +
STACK CFI INIT 19850 154 .cfa: sp 0 +
STACK CFI 19854 .cfa: sp 384 +
STACK CFI 19868 .cfa: x29 64 + x19: .cfa -8 + ^ x20: .cfa -16 + ^ x21: .cfa -24 + ^ x22: .cfa -32 + ^ x23: .cfa -40 + ^ x28: .cfa -48 + ^ .ra: .cfa -56 + ^ x29: .cfa -64 + ^
STACK CFI 1994c .cfa: sp 384 +
STACK CFI 19960 .cfa: sp 0 +
STACK CFI 19964 .cfa: x29 64 +
STACK CFI INIT 199bc 50c .cfa: sp 0 +
STACK CFI 199c0 .cfa: sp 64 +
STACK CFI 199d0 .cfa: x29 64 + x19: .cfa -8 + ^ x20: .cfa -16 + ^ x21: .cfa -24 + ^ x22: .cfa -32 + ^ x23: .cfa -40 + ^ x24: .cfa -48 + ^ .ra: .cfa -56 + ^ x29: .cfa -64 + ^
STACK CFI 19af0 .cfa: sp 64 +
STACK CFI 19b00 .cfa: sp 0 +
STACK CFI 19b04 .cfa: x29 64 +
STACK CFI 19e9c .cfa: sp 64 +
STACK CFI 19eac .cfa: sp 0 +
STACK CFI 19eb0 .cfa: x29 64 +
STACK CFI INIT 1a1f8 294 .cfa: sp 0 +
STACK CFI 1a1fc .cfa: sp 240 +
STACK CFI 1a214 .cfa: x29 80 + x19: .cfa -8 + ^ x20: .cfa -16 + ^ x21: .cfa -24 + ^ x22: .cfa -32 + ^ x23: .cfa -40 + ^ x24: .cfa -48 + ^ x25: .cfa -64 + ^ .ra: .cfa -72 + ^ x29: .cfa -80 + ^
STACK CFI 1a3b4 .cfa: sp 240 +
STACK CFI 1a3cc .cfa: sp 0 +
STACK CFI 1a3d0 .cfa: x29 80 +
STACK CFI INIT 1a508 50 .cfa: sp 0 +
STACK CFI 1a50c .cfa: sp 32 +
STACK CFI 1a514 .cfa: x29 32 + x19: .cfa -8 + ^ x20: .cfa -16 + ^ .ra: .cfa -24 + ^ x29: .cfa -32 + ^
STACK CFI INIT 1a584 7c0 .cfa: sp 0 +
STACK CFI 1a588 .cfa: sp 320 +
STACK CFI 1a5a4 .cfa: x29 96 + x19: .cfa -8 + ^ x20: .cfa -16 + ^ x21: .cfa -24 + ^ x22: .cfa -32 + ^ x23: .cfa -40 + ^ x24: .cfa -48 + ^ x25: .cfa -56 + ^ x26: .cfa -64 + ^ x27: .cfa -72 + ^ x28: .cfa -80 + ^ .ra: .cfa -88 + ^ x29: .cfa -96 + ^
STACK CFI 1abf4 .cfa: sp 320 +
STACK CFI 1ac10 .cfa: sp 0 +
STACK CFI 1ac14 .cfa: x29 96 +
STACK CFI INIT 1f0c4 c74 .cfa: sp 0 +
STACK CFI 1f0c8 .cfa: sp 96 +
STACK CFI 1f0e0 .cfa: x29 96 + x19: .cfa -8 + ^ x20: .cfa -16 + ^ x21: .cfa -24 + ^ x22: .cfa -32 + ^ x23: .cfa -40 + ^ x24: .cfa -48 + ^ x25: .cfa -56 + ^ x26: .cfa -64 + ^ x27: .cfa -72 + ^ x28: .cfa -80 + ^ .ra: .cfa -88 + ^ x29: .cfa -96 + ^
STACK CFI 1fb58 .cfa: sp 96 +
STACK CFI 1fb70 .cfa: sp 0 +
STACK CFI 1fb74 .cfa: x29 96 +
STACK CFI INIT 1fe8c 26c .cfa: sp 0 +
STACK CFI 1fe90 .cfa: sp 128 +
STACK CFI 1fea0 .cfa: x29 48 + x19: .cfa -8 + ^ x20: .cfa -16 + ^ x21: .cfa -24 + ^ x22: .cfa -32 + ^ .ra: .cfa -40 + ^ x29: .cfa -48 + ^
STACK CFI 20044 .cfa: sp 128 +
STACK CFI 20054 .cfa: sp 0 +
STACK CFI 20058 .cfa: x29 48 +
STACK CFI INIT 20644 3b8 .cfa: sp 0 +
STACK CFI 20648 .cfa: sp 96 +
STACK CFI 20660 .cfa: x29 96 + x19: .cfa -8 + ^ x20: .cfa -16 + ^ x21: .cfa -24 + ^ x22: .cfa -32 + ^ x23: .cfa -40 + ^ x24: .cfa -48 + ^ x25: .cfa -56 + ^ x26: .cfa -64 + ^ x27: .cfa -72 + ^ x28: .cfa -80 + ^ .ra: .cfa -88 + ^ x29: .cfa -96 + ^
STACK CFI 2099c .cfa: sp 96 +
STACK CFI 209b4 .cfa: sp 0 +
STACK CFI 209b8 .cfa: x29 96 +
STACK CFI INIT 20a9c cb4 .cfa: sp 0 +
STACK CFI 20aa0 .cfa: sp 96 +
STACK CFI 20ab8 .cfa: x29 96 + x19: .cfa -8 + ^ x20: .cfa -16 + ^ x21: .cfa -24 + ^ x22: .cfa -32 + ^ x23: .cfa -40 + ^ x24: .cfa -48 + ^ x25: .cfa -56 + ^ x26: .cfa -64 + ^ x27: .cfa -72 + ^ x28: .cfa -80 + ^ .ra: .cfa -88 + ^ x29: .cfa -96 + ^
STACK CFI 21560 .cfa: sp 96 +
STACK CFI 21578 .cfa: sp 0 +
STACK CFI 2157c .cfa: x29 96 +
STACK CFI INIT 21a38 afc .cfa: sp 0 +
STACK CFI 21a3c .cfa: sp 96 +
STACK CFI 21a54 .cfa: x29 96 + x19: .cfa -8 + ^ x20: .cfa -16 + ^ x21: .cfa -24 + ^ x22: .cfa -32 + ^ x23: .cfa -40 + ^ x24: .cfa -48 + ^ x25: .cfa -56 + ^ x26: .cfa -64 + ^ x27: .cfa -72 + ^ x28: .cfa -80 + ^ .ra: .cfa -88 + ^ x29: .cfa -96 + ^
STACK CFI 224a8 .cfa: sp 96 +
STACK CFI 224c0 .cfa: sp 0 +
STACK CFI 224c4 .cfa: x29 96 +
STACK CFI INIT 22710 1430 .cfa: sp 0 +
STACK CFI 22714 .cfa: sp 96 +
STACK CFI 2272c .cfa: x29 96 + x19: .cfa -8 + ^ x20: .cfa -16 + ^ x21: .cfa -24 + ^ x22: .cfa -32 + ^ x23: .cfa -40 + ^ x24: .cfa -48 + ^ x25: .cfa -56 + ^ x26: .cfa -64 + ^ x27: .cfa -72 + ^ x28: .cfa -80 + ^ .ra: .cfa -88 + ^ x29: .cfa -96 + ^
STACK CFI 239c8 .cfa: sp 96 +
STACK CFI 239e0 .cfa: sp 0 +
STACK CFI 239e4 .cfa: x29 96 +
STACK CFI INIT 23c64 75c .cfa: sp 0 +
STACK CFI 23c68 .cfa: sp 368 +
STACK CFI 23c84 .cfa: x29 96 + x19: .cfa -8 + ^ x20: .cfa -16 + ^ x21: .cfa -24 + ^ x22: .cfa -32 + ^ x23: .cfa -40 + ^ x24: .cfa -48 + ^ x25: .cfa -56 + ^ x26: .cfa -64 + ^ x27: .cfa -72 + ^ x28: .cfa -80 + ^ .ra: .cfa -88 + ^ x29: .cfa -96 + ^
STACK CFI 23d38 .cfa: sp 368 +
STACK CFI 23d54 .cfa: sp 0 +
STACK CFI 23d58 .cfa: x29 96 +
STACK CFI 23dac .cfa: sp 368 +
STACK CFI 23dc8 .cfa: sp 0 +
STACK CFI 23dcc .cfa: x29 96 +
STACK CFI INIT 24780 eb0 .cfa: sp 0 +
STACK CFI 24784 .cfa: sp 96 +
STACK CFI 2479c .cfa: x29 96 + x19: .cfa -8 + ^ x20: .cfa -16 + ^ x21: .cfa -24 + ^ x22: .cfa -32 + ^ x23: .cfa -40 + ^ x24: .cfa -48 + ^ x25: .cfa -56 + ^ x26: .cfa -64 + ^ x27: .cfa -72 + ^ x28: .cfa -80 + ^ .ra: .cfa -88 + ^ x29: .cfa -96 + ^
STACK CFI 25444 .cfa: sp 96 +
STACK CFI 2545c .cfa: sp 0 +
STACK CFI 25460 .cfa: x29 96 +
STACK CFI INIT 259a4 1c9c .cfa: sp 0 +
STACK CFI 259a8 .cfa: sp 112 +
STACK CFI 259c4 .cfa: x29 96 + x19: .cfa -8 + ^ x20: .cfa -16 + ^ x21: .cfa -24 + ^ x22: .cfa -32 + ^ x23: .cfa -40 + ^ x24: .cfa -48 + ^ x25: .cfa -56 + ^ x26: .cfa -64 + ^ x27: .cfa -72 + ^ x28: .cfa -80 + ^ .ra: .cfa -88 + ^ x29: .cfa -96 + ^ v8: .cfa -112 + ^
STACK CFI 25dac .cfa: sp 112 +
STACK CFI 25dc8 .cfa: sp 0 +
STACK CFI 25dcc .cfa: x29 96 +
STACK CFI INIT 29e04 9a0 .cfa: sp 0 +
STACK CFI 29e08 .cfa: sp 144 +
STACK CFI 29e20 .cfa: x29 80 + x19: .cfa -8 + ^ x20: .cfa -16 + ^ x21: .cfa -24 + ^ x22: .cfa -32 + ^ x23: .cfa -40 + ^ x24: .cfa -48 + ^ x25: .cfa -64 + ^ .ra: .cfa -72 + ^ x29: .cfa -80 + ^
STACK CFI 2a720 .cfa: sp 144 +
STACK CFI 2a738 .cfa: sp 0 +
STACK CFI 2a73c .cfa: x29 80 +
STACK CFI INIT 2bcc8 57c .cfa: sp 0 +
STACK CFI 2bccc .cfa: sp 96 +
STACK CFI 2bce4 .cfa: x29 96 + x19: .cfa -8 + ^ x20: .cfa -16 + ^ x21: .cfa -24 + ^ x22: .cfa -32 + ^ x23: .cfa -40 + ^ x24: .cfa -48 + ^ x25: .cfa -56 + ^ x26: .cfa -64 + ^ x27: .cfa -72 + ^ x28: .cfa -80 + ^ .ra: .cfa -88 + ^ x29: .cfa -96 + ^
STACK CFI 2c1a8 .cfa: sp 96 +
STACK CFI 2c1c0 .cfa: sp 0 +
STACK CFI 2c1c4 .cfa: x29 96 +
STACK CFI INIT 2c244 67c .cfa: sp 0 +
STACK CFI 2c248 .cfa: sp 96 +
STACK CFI 2c260 .cfa: x29 96 + x19: .cfa -8 + ^ x20: .cfa -16 + ^ x21: .cfa -24 + ^ x22: .cfa -32 + ^ x23: .cfa -40 + ^ x24: .cfa -48 + ^ x25: .cfa -56 + ^ x26: .cfa -64 + ^ x27: .cfa -72 + ^ x28: .cfa -80 + ^ .ra: .cfa -88 + ^ x29: .cfa -96 + ^
STACK CFI 2c824 .cfa: sp 96 +
STACK CFI 2c83c .cfa: sp 0 +
STACK CFI 2c840 .cfa: x29 96 +
