MODULE Linux arm64 DE395BDE1466F812EF40FE76734A20460 m336.modbadgeinfo.android64.so
INFO CODE_ID DE5B39DE661412F8EF40FE76734A2046866FA6A2
INFO GENERATOR mozilla/dump_syms 2.3.4
PUBLIC 5d60 0 __on_dlclose
PUBLIC 5d70 0 __emutls_unregister_key
PUBLIC 5d78 0 __on_dlclose_late
PUBLIC 5d80 0 __atexit_handler_wrapper
PUBLIC 5d94 0 atexit
PUBLIC 5db0 0 pthread_atfork
PUBLIC 5dc0 0 unwind_phase2
PUBLIC 5ef4 0 _Unwind_Resume
PUBLIC 5f78 0 unwind_phase2_forced
PUBLIC m 606c 0 __unw_init_local
PUBLIC m 6114 0 __unw_get_reg
PUBLIC 6190 0 __unw_step_stage2
PUBLIC m 61a4 0 __unw_get_proc_info
PUBLIC m 61e4 0 __unw_resume
PUBLIC 620c 0 libunwind::CFI_Parser<libunwind::LocalAddressSpace>::decodeFDE(libunwind::LocalAddressSpace&, unsigned long, libunwind::CFI_Parser<libunwind::LocalAddressSpace>::FDE_Info*, libunwind::CFI_Parser<libunwind::LocalAddressSpace>::CIE_Info*, bool)
PUBLIC 639c 0 libunwind::CFI_Parser<libunwind::LocalAddressSpace>::parseCIE(libunwind::LocalAddressSpace&, unsigned long, libunwind::CFI_Parser<libunwind::LocalAddressSpace>::CIE_Info*)
PUBLIC 6664 0 libunwind::AbstractUnwindCursor::~AbstractUnwindCursor()
PUBLIC 666c 0 libunwind::UnwindCursor<libunwind::LocalAddressSpace, libunwind::Registers_arm64>::~UnwindCursor()
PUBLIC 6674 0 libunwind::UnwindCursor<libunwind::LocalAddressSpace, libunwind::Registers_arm64>::validReg(int)
PUBLIC 66b8 0 libunwind::UnwindCursor<libunwind::LocalAddressSpace, libunwind::Registers_arm64>::getReg(int)
PUBLIC 67a0 0 libunwind::UnwindCursor<libunwind::LocalAddressSpace, libunwind::Registers_arm64>::setReg(int, unsigned long)
PUBLIC 6888 0 libunwind::UnwindCursor<libunwind::LocalAddressSpace, libunwind::Registers_arm64>::validFloatReg(int)
PUBLIC 689c 0 libunwind::UnwindCursor<libunwind::LocalAddressSpace, libunwind::Registers_arm64>::getFloatReg(int)
PUBLIC 68ac 0 libunwind::UnwindCursor<libunwind::LocalAddressSpace, libunwind::Registers_arm64>::setFloatReg(int, double)
PUBLIC 68bc 0 libunwind::UnwindCursor<libunwind::LocalAddressSpace, libunwind::Registers_arm64>::step(bool)
PUBLIC 69ac 0 libunwind::UnwindCursor<libunwind::LocalAddressSpace, libunwind::Registers_arm64>::getInfo(unw_proc_info_t*)
PUBLIC 69f0 0 libunwind::UnwindCursor<libunwind::LocalAddressSpace, libunwind::Registers_arm64>::jumpto()
PUBLIC 69fc 0 libunwind::UnwindCursor<libunwind::LocalAddressSpace, libunwind::Registers_arm64>::isSignalFrame()
PUBLIC 6a08 0 libunwind::UnwindCursor<libunwind::LocalAddressSpace, libunwind::Registers_arm64>::getFunctionName(char*, unsigned long, unsigned long*)
PUBLIC 6a34 0 libunwind::UnwindCursor<libunwind::LocalAddressSpace, libunwind::Registers_arm64>::setInfoBasedOnIPRegister(bool)
PUBLIC 6cb4 0 libunwind::UnwindCursor<libunwind::LocalAddressSpace, libunwind::Registers_arm64>::getRegisterName(int)
PUBLIC 6cc0 0 libunwind::UnwindCursor<libunwind::LocalAddressSpace, libunwind::Registers_arm64>::stepThroughSigReturn(libunwind::Registers_arm64&)
PUBLIC 6de0 0 libunwind::DwarfInstructions<libunwind::LocalAddressSpace, libunwind::Registers_arm64>::stepWithDwarf(libunwind::LocalAddressSpace&, unsigned long, unsigned long, libunwind::Registers_arm64&, bool&, bool)
PUBLIC 7268 0 libunwind::CFI_Parser<libunwind::LocalAddressSpace>::parseFDEInstructions(libunwind::LocalAddressSpace&, libunwind::CFI_Parser<libunwind::LocalAddressSpace>::FDE_Info const&, libunwind::CFI_Parser<libunwind::LocalAddressSpace>::CIE_Info const&, unsigned long, int, libunwind::CFI_Parser<libunwind::LocalAddressSpace>::PrologInfo*)
PUBLIC 7eb0 0 libunwind::DwarfInstructions<libunwind::LocalAddressSpace, libunwind::Registers_arm64>::getCFA(libunwind::LocalAddressSpace&, libunwind::CFI_Parser<libunwind::LocalAddressSpace>::PrologInfo const&, libunwind::Registers_arm64 const&)
PUBLIC 7fe4 0 libunwind::DwarfInstructions<libunwind::LocalAddressSpace, libunwind::Registers_arm64>::getSavedRegister(libunwind::LocalAddressSpace&, libunwind::Registers_arm64 const&, unsigned long, libunwind::CFI_Parser<libunwind::LocalAddressSpace>::RegisterLocation const&)
PUBLIC 81f4 0 libunwind::LocalAddressSpace::getEncodedP(unsigned long&, unsigned long, unsigned char, unsigned long)
PUBLIC 8580 0 libunwind::LocalAddressSpace::getULEB128(unsigned long&, unsigned long)
PUBLIC 8748 0 libunwind::DwarfInstructions<libunwind::LocalAddressSpace, libunwind::Registers_arm64>::evaluateExpression(unsigned long, libunwind::LocalAddressSpace&, libunwind::Registers_arm64 const&, unsigned long)
PUBLIC 9104 0 libunwind::UnwindCursor<libunwind::LocalAddressSpace, libunwind::Registers_arm64>::getInfoFromDwarfSection(unsigned long, libunwind::UnwindInfoSections const&, unsigned int)
PUBLIC 93d8 0 libunwind::findUnwindSectionsByPhdr(dl_phdr_info*, unsigned long, void*)
PUBLIC 950c 0 libunwind::EHHeaderParser<libunwind::LocalAddressSpace>::decodeEHHdr(libunwind::LocalAddressSpace&, unsigned long, unsigned long, libunwind::EHHeaderParser<libunwind::LocalAddressSpace>::EHHeaderInfo&)
PUBLIC 962c 0 libunwind::CFI_Parser<libunwind::LocalAddressSpace>::findFDE(libunwind::LocalAddressSpace&, unsigned long, unsigned long, unsigned long, unsigned long, libunwind::CFI_Parser<libunwind::LocalAddressSpace>::FDE_Info*, libunwind::CFI_Parser<libunwind::LocalAddressSpace>::CIE_Info*)
PUBLIC 97f4 0 libunwind::EHHeaderParser<libunwind::LocalAddressSpace>::findFDE(libunwind::LocalAddressSpace&, unsigned long, unsigned long, unsigned int, libunwind::CFI_Parser<libunwind::LocalAddressSpace>::FDE_Info*, libunwind::CFI_Parser<libunwind::LocalAddressSpace>::CIE_Info*)
PUBLIC 995c 0 libunwind::EHHeaderParser<libunwind::LocalAddressSpace>::getTableEntrySize(unsigned char)
PUBLIC 9a58 0 libunwind::Registers_arm64::getRegisterName(int)
PUBLIC 9a88 0 __libunwind_Registers_arm64_jumpto
PUBLIC m 9b18 0 __unw_getcontext
PUBLIC 9bc0 0 __aarch64_ldadd8_relax
PUBLIC 9bf0 0 init_have_lse_atomics
PUBLIC 9c88 0 __init_cpu_features_constructor
PUBLIC a224 0 __init_cpu_features
PUBLIC a2b0 0 __aarch64_ldadd8_acq_rel
PUBLIC a2e0 0 __cxx_global_var_init
PUBLIC aeb4 0 geode::modifier::ModifyBase<geode::modifier::ModifyDerive<ModBadgeInfoProfilePage, ProfilePage> >::~ModifyBase()
PUBLIC aecc 0 geode::modifier::ModifyDerive<ModBadgeInfoProfilePage, ProfilePage>::apply()
PUBLIC b350 0 std::__ndk1::shared_ptr<geode::Hook>::~shared_ptr[abi:ne180000]()
PUBLIC b3a0 0 geode::impl::ResultData<geode::Hook*, std::__ndk1::basic_string<char, std::__ndk1::char_traits<char>, std::__ndk1::allocator<char> > >::~ResultData()
PUBLIC b414 0 std::__ndk1::vector<std::__ndk1::basic_string<char, std::__ndk1::char_traits<char>, std::__ndk1::allocator<char> >, std::__ndk1::allocator<std::__ndk1::basic_string<char, std::__ndk1::char_traits<char>, std::__ndk1::allocator<char> > > >::~vector[abi:ne180000]()
PUBLIC b490 0 geode::modifier::ModifyBase<geode::modifier::ModifyDerive<ModBadgeInfoProfilePage, ProfilePage> >::apply()
PUBLIC b494 0 __clang_call_terminate
PUBLIC b4a4 0 _ZN5geode15UnwrapExceptionC2IRPNS_4HookEQsr4implE18IsStringStreamableIT_EEENS_4impl5OkTagEOS5_
PUBLIC b5f8 0 std::__ndk1::__throw_bad_variant_access[abi:ne180000]()
PUBLIC b62c 0 std::__ndk1::basic_stringstream<char, std::__ndk1::char_traits<char>, std::__ndk1::allocator<char> >::basic_stringstream[abi:ne180000]()
PUBLIC m b758 0 std::__ndk1::basic_stringstream<char, std::__ndk1::char_traits<char>, std::__ndk1::allocator<char> >::~basic_stringstream()
PUBLIC b7d8 0 geode::UnwrapException::~UnwrapException()
PUBLIC b7fc 0 std::__ndk1::__put_character_sequence[abi:ne180000]<char, std::__ndk1::char_traits<char> >(std::__ndk1::basic_ostream<char, std::__ndk1::char_traits<char> >, std::__ndk1::basic_ostream const*, unsigned long)
PUBLIC b9a0 0 std::__ndk1::__pad_and_output[abi:ne180000]<char, std::__ndk1::char_traits<char> >(std::__ndk1::char_traits<char>, std::__ndk1::ostreambuf_iterator const*, std::__ndk1::ostreambuf_iterator const, std::__ndk1::ostreambuf_iterator const, std::__ndk1::ios_base&, std::__ndk1::ostreambuf_iterator)
PUBLIC bb7c 0 std::__ndk1::basic_string<char, std::__ndk1::char_traits<char>, std::__ndk1::allocator<char> >::__throw_length_error[abi:ne180000]() const
PUBLIC bb90 0 std::__ndk1::__throw_length_error[abi:ne180000](char const*)
PUBLIC bbe0 0 std::length_error::length_error[abi:ne180000](char const*)
PUBLIC bc10 0 std::__throw_bad_array_new_length([abi:ne180000], void)
PUBLIC bc44 0 std::__ndk1::basic_stringbuf<char, std::__ndk1::char_traits<char>, std::__ndk1::allocator<char> >::str[abi:ne180000]() &&
PUBLIC bdbc 0 std::__ndk1::basic_stringbuf<char, std::__ndk1::char_traits<char>, std::__ndk1::allocator<char> >::__init_buf_ptrs[abi:ne180000]()
PUBLIC bf04 0 std::__ndk1::basic_string<char, std::__ndk1::char_traits<char>, std::__ndk1::allocator<char> >::__init_copy_ctor_external(char const*, unsigned long)
PUBLIC bf84 0 std::__ndk1::__split_buffer<std::__ndk1::basic_string<char, std::__ndk1::char_traits<char>, std::__ndk1::allocator<char> >, std::__ndk1::allocator<std::__ndk1::basic_string<char, std::__ndk1::char_traits<char>, std::__ndk1::allocator<char> > >&>::~__split_buffer()
PUBLIC bfec 0 std::__ndk1::vector<std::__ndk1::basic_string<char, std::__ndk1::char_traits<char>, std::__ndk1::allocator<char> >, std::__ndk1::allocator<std::__ndk1::basic_string<char, std::__ndk1::char_traits<char>, std::__ndk1::allocator<char> > > >::__throw_length_error[abi:ne180000]() const
PUBLIC c000 0 std::__ndk1::__variant_detail::__visitation::__base::__dispatcher<(unsigned long)0>::__dispatch[abi:ne180000]<std::__ndk1::__variant_detail::__dtor<std::__ndk1::__variant_detail::__traits<geode::Hook*, std::__ndk1::basic_string<char, std::__ndk1::char_traits<char>, std::__ndk1::allocator<char> > >, (std::__ndk1::__variant_detail::_Trait)1>::__destroy[abi:ne180000]()::{lambda(auto:1&)#1}, std::__ndk1::__variant_detail::__base<(std::__ndk1::__variant_detail::__traits<geode::Hook*, std::__ndk1::basic_string<char, std::__ndk1::char_traits<char>, std::__ndk1::allocator<char> > >)1, geode::Hook, std::__ndk1::allocator<char> >&>(std::__ndk1::__variant_detail::__dtor<std::__ndk1::__variant_detail::__traits<geode::Hook*, std::__ndk1::basic_string<char, std::__ndk1::char_traits<char>, std::__ndk1::allocator<char> > >, (std::__ndk1::__variant_detail::_Trait)1>, std::__ndk1::__variant_detail::__base<(std::__ndk1::__variant_detail::__traits<geode::Hook*, std::__ndk1::basic_string<char, std::__ndk1::char_traits<char>, std::__ndk1::allocator<char> > >)1, geode::Hook, std::__ndk1::allocator<char> >&)
PUBLIC c004 0 std::__ndk1::__variant_detail::__visitation::__base::__dispatcher<(unsigned long)1>::__dispatch[abi:ne180000]<std::__ndk1::__variant_detail::__dtor<std::__ndk1::__variant_detail::__traits<geode::Hook*, std::__ndk1::basic_string<char, std::__ndk1::char_traits<char>, std::__ndk1::allocator<char> > >, (std::__ndk1::__variant_detail::_Trait)1>::__destroy[abi:ne180000]()::{lambda(auto:1&)#1}, std::__ndk1::__variant_detail::__base<(std::__ndk1::__variant_detail::__traits<geode::Hook*, std::__ndk1::basic_string<char, std::__ndk1::char_traits<char>, std::__ndk1::allocator<char> > >)1, geode::Hook, std::__ndk1::allocator<char> >&>(std::__ndk1::__variant_detail::__dtor<std::__ndk1::__variant_detail::__traits<geode::Hook*, std::__ndk1::basic_string<char, std::__ndk1::char_traits<char>, std::__ndk1::allocator<char> > >, (std::__ndk1::__variant_detail::_Trait)1>, std::__ndk1::__variant_detail::__base<(std::__ndk1::__variant_detail::__traits<geode::Hook*, std::__ndk1::basic_string<char, std::__ndk1::char_traits<char>, std::__ndk1::allocator<char> > >)1, geode::Hook, std::__ndk1::allocator<char> >&)
PUBLIC c018 0 std::__ndk1::__tree<std::__ndk1::__value_type<std::__ndk1::basic_string<char, std::__ndk1::char_traits<char>, std::__ndk1::allocator<char> >, std::__ndk1::shared_ptr<geode::Hook> >, std::__ndk1::__map_value_compare<std::__ndk1::basic_string<char, std::__ndk1::char_traits<char>, std::__ndk1::allocator<char> >, std::__ndk1::__value_type<std::__ndk1::basic_string<char, std::__ndk1::char_traits<char>, std::__ndk1::allocator<char> >, std::__ndk1::shared_ptr<geode::Hook> >, std::__ndk1::less<std::__ndk1::basic_string<char, std::__ndk1::char_traits<char>, std::__ndk1::allocator<char> > >, true>, std::__ndk1::allocator<std::__ndk1::__value_type<std::__ndk1::basic_string<char, std::__ndk1::char_traits<char>, std::__ndk1::allocator<char> >, std::__ndk1::shared_ptr<geode::Hook> > > >::destroy(std::__ndk1::__tree_node<std::__ndk1::__value_type<std::__ndk1::basic_string<char, std::__ndk1::char_traits<char>, std::__ndk1::allocator<char> >, std::__ndk1::shared_ptr<geode::Hook> >, void*>*)
PUBLIC c09c 0 geode::modifier::AsStaticFunction_loadPageFromUserInfo<ModBadgeInfoProfilePage, void (ModBadgeInfoProfilePage::*)(GJUserScore*)>::Impl<void (ModBadgeInfoProfilePage::*)(GJUserScore*)>::function(ModBadgeInfoProfilePage*, GJUserScore*)
PUBLIC c2c4 0 std::__ndk1::shared_ptr<tulip::hook::CallingConvention>::~shared_ptr[abi:ne180000]()
PUBLIC c314 0 tulip::hook::HandlerMetadata::~HandlerMetadata()
PUBLIC c378 0 ModBadgeInfoProfilePage::onModBadgeBtn(cocos2d::CCObject*)
PUBLIC c5d0 0 geode::modifier::FieldIntermediate<ModBadgeInfoProfilePage, ProfilePage>::self()
PUBLIC cc14 0 geode::modifier::FieldIntermediate<ModBadgeInfoProfilePage, ProfilePage>::fieldDestructor(void*)
PUBLIC cc18 0 std::__ndk1::vector<void*, std::__ndk1::allocator<void*> >::__throw_length_error[abi:ne180000]() const
PUBLIC cc2c 0 std::__ndk1::vector<std::__ndk1::function<void (void*)>, std::__ndk1::allocator<std::__ndk1::function<void (void*)> > >::__throw_length_error[abi:ne180000]() const
PUBLIC cc40 0 std::__ndk1::vector<void*, std::__ndk1::allocator<void*> >::__throw_out_of_range[abi:ne180000]() const
PUBLIC cc4c 0 std::__ndk1::__throw_out_of_range[abi:ne180000](char const*)
PUBLIC cc9c 0 std::out_of_range::out_of_range[abi:ne180000](char const*)
PUBLIC cccc 0 std::__ndk1::vector<std::__ndk1::function<void (void*)>, std::__ndk1::allocator<std::__ndk1::function<void (void*)> > >::__throw_out_of_range[abi:ne180000]() const
PUBLIC ccd8 0 std::__ndk1::__function::__base<void (void*)>::~__base()
PUBLIC ccdc 0 std::__ndk1::__function::__func<void (*)(void*), std::__ndk1::allocator<void (*)(void*)>, void (void*)>::~__func()
PUBLIC cce0 0 std::__ndk1::__function::__func<void (*)(void*), std::__ndk1::allocator<void (*)(void*)>, void (void*)>::__clone() const
PUBLIC cd18 0 std::__ndk1::__function::__func<void (*)(void*), std::__ndk1::allocator<void (*)(void*)>, void (void*)>::__clone(std::__ndk1::__function::__base<void (void*)>*) const
PUBLIC cd30 0 std::__ndk1::__function::__func<void (*)(void*), std::__ndk1::allocator<void (*)(void*)>, void (void*)>::destroy()
PUBLIC cd34 0 std::__ndk1::__function::__func<void (*)(void*), std::__ndk1::allocator<void (*)(void*)>, void (void*)>::destroy_deallocate()
PUBLIC cd38 0 std::__ndk1::__function::__func<void (*)(void*), std::__ndk1::allocator<void (*)(void*)>, void (void*)>::operator()(void*&&)
PUBLIC cd48 0 std::__ndk1::__function::__func<void (*)(void*), std::__ndk1::allocator<void (*)(void*)>, void (void*)>::target(std::type_info const&) const
PUBLIC cd64 0 std::__ndk1::__function::__func<void (*)(void*), std::__ndk1::allocator<void (*)(void*)>, void (void*)>::target_type() const
PUBLIC cd70 0 std::__ndk1::__tree_balance_after_insert[abi:ne180000]<std::__ndk1::__tree_node_base<void*>*>(std::__ndk1::__tree_node_base<void*>*, std::__ndk1::__tree_node_base<void*>*)
PUBLIC m cf20 0 geodeImplicitEntry
PUBLIC cf5c 0 wrapFunction(unsigned long, tulip::hook::WrapperMetadata const&)
PUBLIC d090 0 geode::impl::ResultData<void*, std::__ndk1::basic_string<char, std::__ndk1::char_traits<char>, std::__ndk1::allocator<char> > >::unwrapErr() &
PUBLIC d108 0 geode::impl::ResultData<void*, std::__ndk1::basic_string<char, std::__ndk1::char_traits<char>, std::__ndk1::allocator<char> > >::~ResultData()
PUBLIC d17c 0 tulip::hook::WrapperMetadata::~WrapperMetadata()
PUBLIC d1e0 0 FLAlertLayer::create(FLAlertLayerProtocol*, char const*, gd::string, char const*, char const*, float)
PUBLIC d398 0 tulip::hook::AbstractFunction::from<FLAlertLayer*, FLAlertLayerProtocol*, char const*, gd::string, char const*, char const*, float>(FLAlertLayer* (*)(FLAlertLayerProtocol*, char const*, gd::string, char const*, char const*, float))
PUBLIC d504 0 _ZN5geode15UnwrapExceptionC2IRPvQsr4implE18IsStringStreamableIT_EEENS_4impl5OkTagEOS4_
PUBLIC d658 0 _ZN5geode15UnwrapExceptionC2IRNSt6__ndk112basic_stringIcNS2_11char_traitsIcEENS2_9allocatorIcEEEEQsr4implE18IsStringStreamableIT_EEENS_4impl6ErrTagEOSA_
PUBLIC d7c0 0 std::__ndk1::__variant_detail::__visitation::__base::__dispatcher<(unsigned long)0>::__dispatch[abi:ne180000]<std::__ndk1::__variant_detail::__dtor<std::__ndk1::__variant_detail::__traits<void*, std::__ndk1::basic_string<char, std::__ndk1::char_traits<char>, std::__ndk1::allocator<char> > >, (std::__ndk1::__variant_detail::_Trait)1>::__destroy[abi:ne180000]()::{lambda(auto:1&)#1}, std::__ndk1::__variant_detail::__base<(std::__ndk1::__variant_detail::__traits<void*, std::__ndk1::basic_string<char, std::__ndk1::char_traits<char>, std::__ndk1::allocator<char> > >)1, std::__ndk1::__variant_detail::__traits, std::__ndk1::allocator<char> >&>(std::__ndk1::__variant_detail::__dtor<std::__ndk1::__variant_detail::__traits<void*, std::__ndk1::basic_string<char, std::__ndk1::char_traits<char>, std::__ndk1::allocator<char> > >, (std::__ndk1::__variant_detail::_Trait)1>, std::__ndk1::__variant_detail::__base<(std::__ndk1::__variant_detail::__traits<void*, std::__ndk1::basic_string<char, std::__ndk1::char_traits<char>, std::__ndk1::allocator<char> > >)1, std::__ndk1::__variant_detail::__traits, std::__ndk1::allocator<char> >&)
PUBLIC d7c4 0 std::__ndk1::__variant_detail::__visitation::__base::__dispatcher<(unsigned long)1>::__dispatch[abi:ne180000]<std::__ndk1::__variant_detail::__dtor<std::__ndk1::__variant_detail::__traits<void*, std::__ndk1::basic_string<char, std::__ndk1::char_traits<char>, std::__ndk1::allocator<char> > >, (std::__ndk1::__variant_detail::_Trait)1>::__destroy[abi:ne180000]()::{lambda(auto:1&)#1}, std::__ndk1::__variant_detail::__base<(std::__ndk1::__variant_detail::__traits<void*, std::__ndk1::basic_string<char, std::__ndk1::char_traits<char>, std::__ndk1::allocator<char> > >)1, std::__ndk1::__variant_detail::__traits, std::__ndk1::allocator<char> >&>(std::__ndk1::__variant_detail::__dtor<std::__ndk1::__variant_detail::__traits<void*, std::__ndk1::basic_string<char, std::__ndk1::char_traits<char>, std::__ndk1::allocator<char> > >, (std::__ndk1::__variant_detail::_Trait)1>, std::__ndk1::__variant_detail::__base<(std::__ndk1::__variant_detail::__traits<void*, std::__ndk1::basic_string<char, std::__ndk1::char_traits<char>, std::__ndk1::allocator<char> > >)1, std::__ndk1::__variant_detail::__traits, std::__ndk1::allocator<char> >&)
PUBLIC d7e0 0 <.plt ELF section in m336.modbadgeinfo.android64.so>
STACK CFI INIT 5d60 10 .cfa: sp 0 +
STACK CFI INIT 5d70 8 .cfa: sp 0 +
STACK CFI INIT 5d78 8 .cfa: sp 0 +
STACK CFI INIT 5d80 14 .cfa: sp 0 +
STACK CFI INIT 5d94 1c .cfa: sp 0 +
STACK CFI INIT 5db0 10 .cfa: sp 0 +
STACK CFI INIT 5dc0 134 .cfa: sp 0 +
STACK CFI INIT 5ef4 84 .cfa: sp 0 +
STACK CFI INIT 5f78 f4 .cfa: sp 0 +
STACK CFI INIT 606c a8 .cfa: sp 0 +
STACK CFI INIT 6114 7c .cfa: sp 0 +
STACK CFI INIT 6190 14 .cfa: sp 0 +
STACK CFI INIT 61a4 40 .cfa: sp 0 +
STACK CFI INIT 61e4 28 .cfa: sp 0 +
STACK CFI INIT 620c 190 .cfa: sp 0 +
STACK CFI INIT 639c 2c8 .cfa: sp 0 +
STACK CFI INIT 6664 8 .cfa: sp 0 +
STACK CFI INIT 666c 8 .cfa: sp 0 +
STACK CFI INIT 6674 44 .cfa: sp 0 +
STACK CFI INIT 66b8 e8 .cfa: sp 0 +
STACK CFI INIT 67a0 e8 .cfa: sp 0 +
STACK CFI INIT 6888 14 .cfa: sp 0 +
STACK CFI INIT 689c 10 .cfa: sp 0 +
STACK CFI INIT 68ac 10 .cfa: sp 0 +
STACK CFI INIT 68bc f0 .cfa: sp 0 +
STACK CFI INIT 69ac 44 .cfa: sp 0 +
STACK CFI INIT 69f0 c .cfa: sp 0 +
STACK CFI INIT 69fc c .cfa: sp 0 +
STACK CFI INIT 6a08 2c .cfa: sp 0 +
STACK CFI INIT 6a34 280 .cfa: sp 0 +
STACK CFI INIT 6cb4 c .cfa: sp 0 +
STACK CFI INIT 6cc0 120 .cfa: sp 0 +
STACK CFI INIT 6de0 488 .cfa: sp 0 +
STACK CFI INIT 7268 c48 .cfa: sp 0 +
STACK CFI INIT 7eb0 134 .cfa: sp 0 +
STACK CFI INIT 7fe4 210 .cfa: sp 0 +
STACK CFI INIT 81f4 38c .cfa: sp 0 +
STACK CFI INIT 8580 1c8 .cfa: sp 0 +
STACK CFI INIT 8748 9bc .cfa: sp 0 +
STACK CFI INIT 9104 2d4 .cfa: sp 0 +
STACK CFI INIT 93d8 134 .cfa: sp 0 +
STACK CFI INIT 950c 120 .cfa: sp 0 +
STACK CFI INIT 962c 1c8 .cfa: sp 0 +
STACK CFI INIT 97f4 168 .cfa: sp 0 +
STACK CFI INIT 995c fc .cfa: sp 0 +
STACK CFI INIT 9a58 30 .cfa: sp 0 +
STACK CFI INIT 9bc0 30 .cfa: sp 0 +
STACK CFI INIT 9bf0 98 .cfa: sp 0 +
STACK CFI INIT 9c88 59c .cfa: sp 0 +
STACK CFI INIT a224 8c .cfa: sp 0 +
STACK CFI INIT a2b0 30 .cfa: sp 0 +
STACK CFI INIT aeb4 18 .cfa: sp 0 +
STACK CFI INIT b350 50 .cfa: sp 0 +
STACK CFI b354 .cfa: sp 32 +
STACK CFI b35c .cfa: x29 32 + x19: .cfa -16 + ^ .ra: .cfa -24 + ^ x29: .cfa -32 + ^
STACK CFI b374 .cfa: sp 32 +
STACK CFI b37c .cfa: sp 0 +
STACK CFI b380 .cfa: x29 32 +
STACK CFI b394 .cfa: sp 32 +
STACK CFI b39c .cfa: sp 0 +
STACK CFI INIT b414 7c .cfa: sp 0 +
STACK CFI b418 .cfa: sp 48 +
STACK CFI b424 .cfa: x29 48 + x19: .cfa -8 + ^ x20: .cfa -16 + ^ x21: .cfa -32 + ^ .ra: .cfa -40 + ^ x29: .cfa -48 + ^
STACK CFI b470 .cfa: sp 48 +
STACK CFI b47c .cfa: sp 0 +
STACK CFI b480 .cfa: sp 48 +
STACK CFI b48c .cfa: sp 0 +
STACK CFI INIT b490 4 .cfa: sp 0 +
STACK CFI INIT b494 10 .cfa: sp 0 +
STACK CFI b498 .cfa: sp 16 +
STACK CFI b49c .cfa: x29 16 + .ra: .cfa -8 + ^ x29: .cfa -16 + ^
STACK CFI INIT b5f8 34 .cfa: sp 0 +
STACK CFI b5fc .cfa: sp 16 +
STACK CFI b600 .cfa: x29 16 + .ra: .cfa -8 + ^ x29: .cfa -16 + ^
STACK CFI INIT b758 80 .cfa: sp 0 +
STACK CFI b75c .cfa: sp 48 +
STACK CFI b768 .cfa: x29 48 + x19: .cfa -8 + ^ x20: .cfa -16 + ^ x21: .cfa -32 + ^ .ra: .cfa -40 + ^ x29: .cfa -48 + ^
STACK CFI b7c8 .cfa: sp 48 +
STACK CFI b7d4 .cfa: sp 0 +
STACK CFI INIT b7d8 24 .cfa: sp 0 +
STACK CFI b7dc .cfa: sp 32 +
STACK CFI b7e4 .cfa: x29 32 + x19: .cfa -16 + ^ .ra: .cfa -24 + ^ x29: .cfa -32 + ^
STACK CFI b7f0 .cfa: sp 32 +
STACK CFI b7f8 .cfa: sp 0 +
STACK CFI INIT bb7c 14 .cfa: sp 0 +
STACK CFI bb80 .cfa: sp 16 +
STACK CFI bb84 .cfa: x29 16 + .ra: .cfa -8 + ^ x29: .cfa -16 + ^
STACK CFI INIT bbe0 30 .cfa: sp 0 +
STACK CFI bbe4 .cfa: sp 32 +
STACK CFI bbec .cfa: x29 32 + x19: .cfa -16 + ^ .ra: .cfa -24 + ^ x29: .cfa -32 + ^
STACK CFI bc04 .cfa: sp 32 +
STACK CFI bc0c .cfa: sp 0 +
STACK CFI INIT bc10 34 .cfa: sp 0 +
STACK CFI bc14 .cfa: sp 32 +
STACK CFI bc1c .cfa: x29 32 + x19: .cfa -16 + ^ .ra: .cfa -24 + ^ x29: .cfa -32 + ^
STACK CFI INIT bdbc 148 .cfa: sp 0 +
STACK CFI bdc0 .cfa: sp 48 +
STACK CFI bdcc .cfa: x29 48 + x19: .cfa -8 + ^ x20: .cfa -16 + ^ x21: .cfa -32 + ^ .ra: .cfa -40 + ^ x29: .cfa -48 + ^
STACK CFI bef4 .cfa: sp 48 +
STACK CFI bf00 .cfa: sp 0 +
STACK CFI INIT bf04 80 .cfa: sp 0 +
STACK CFI bf08 .cfa: sp 48 +
STACK CFI bf14 .cfa: x29 48 + x19: .cfa -8 + ^ x20: .cfa -16 + ^ x21: .cfa -24 + ^ x22: .cfa -32 + ^ .ra: .cfa -40 + ^ x29: .cfa -48 + ^
STACK CFI bf2c .cfa: sp 48 +
STACK CFI bf38 .cfa: sp 0 +
STACK CFI bf3c .cfa: x29 48 +
STACK CFI bf6c .cfa: sp 48 +
STACK CFI bf78 .cfa: sp 0 +
STACK CFI bf7c .cfa: x29 48 +
STACK CFI INIT bf84 68 .cfa: sp 0 +
STACK CFI bf88 .cfa: sp 32 +
STACK CFI bf90 .cfa: x29 32 + x19: .cfa -8 + ^ x20: .cfa -16 + ^ .ra: .cfa -24 + ^ x29: .cfa -32 + ^
STACK CFI bfa8 .cfa: sp 32 +
STACK CFI bfb0 .cfa: sp 0 +
STACK CFI bfb4 .cfa: x29 32 +
STACK CFI bfe0 .cfa: sp 32 +
STACK CFI bfe8 .cfa: sp 0 +
STACK CFI INIT bfec 14 .cfa: sp 0 +
STACK CFI bff0 .cfa: sp 16 +
STACK CFI bff4 .cfa: x29 16 + .ra: .cfa -8 + ^ x29: .cfa -16 + ^
STACK CFI INIT c000 4 .cfa: sp 0 +
STACK CFI INIT c004 14 .cfa: sp 0 +
STACK CFI INIT c018 84 .cfa: sp 0 +
STACK CFI c020 .cfa: sp 32 +
STACK CFI c028 .cfa: x29 32 + x19: .cfa -8 + ^ x20: .cfa -16 + ^ .ra: .cfa -24 + ^ x29: .cfa -32 + ^
STACK CFI c068 .cfa: sp 32 +
STACK CFI c070 .cfa: sp 0 +
STACK CFI c078 .cfa: x29 32 +
STACK CFI INIT c2c4 50 .cfa: sp 0 +
STACK CFI c2c8 .cfa: sp 32 +
STACK CFI c2d0 .cfa: x29 32 + x19: .cfa -16 + ^ .ra: .cfa -24 + ^ x29: .cfa -32 + ^
STACK CFI c2e8 .cfa: sp 32 +
STACK CFI c2f0 .cfa: sp 0 +
STACK CFI c2f4 .cfa: x29 32 +
STACK CFI c308 .cfa: sp 32 +
STACK CFI c310 .cfa: sp 0 +
STACK CFI INIT c314 64 .cfa: sp 0 +
STACK CFI c318 .cfa: sp 32 +
STACK CFI c320 .cfa: x29 32 + x19: .cfa -16 + ^ .ra: .cfa -24 + ^ x29: .cfa -32 + ^
STACK CFI c34c .cfa: sp 32 +
STACK CFI c354 .cfa: sp 0 +
STACK CFI c358 .cfa: x29 32 +
STACK CFI c36c .cfa: sp 32 +
STACK CFI c374 .cfa: sp 0 +
STACK CFI INIT cc14 4 .cfa: sp 0 +
STACK CFI INIT cc18 14 .cfa: sp 0 +
STACK CFI cc1c .cfa: sp 16 +
STACK CFI cc20 .cfa: x29 16 + .ra: .cfa -8 + ^ x29: .cfa -16 + ^
STACK CFI INIT cc2c 14 .cfa: sp 0 +
STACK CFI cc30 .cfa: sp 16 +
STACK CFI cc34 .cfa: x29 16 + .ra: .cfa -8 + ^ x29: .cfa -16 + ^
STACK CFI INIT cc40 c .cfa: sp 0 +
STACK CFI cc44 .cfa: sp 16 +
STACK CFI cc48 .cfa: x29 16 + .ra: .cfa -8 + ^ x29: .cfa -16 + ^
STACK CFI INIT cc9c 30 .cfa: sp 0 +
STACK CFI cca0 .cfa: sp 32 +
STACK CFI cca8 .cfa: x29 32 + x19: .cfa -16 + ^ .ra: .cfa -24 + ^ x29: .cfa -32 + ^
STACK CFI ccc0 .cfa: sp 32 +
STACK CFI ccc8 .cfa: sp 0 +
STACK CFI INIT cccc c .cfa: sp 0 +
STACK CFI ccd0 .cfa: sp 16 +
STACK CFI ccd4 .cfa: x29 16 + .ra: .cfa -8 + ^ x29: .cfa -16 + ^
STACK CFI INIT ccd8 4 .cfa: sp 0 +
STACK CFI INIT ccdc 4 .cfa: sp 0 +
STACK CFI INIT cce0 38 .cfa: sp 0 +
STACK CFI cce4 .cfa: sp 32 +
STACK CFI ccec .cfa: x29 32 + x19: .cfa -16 + ^ .ra: .cfa -24 + ^ x29: .cfa -32 + ^
STACK CFI cd0c .cfa: sp 32 +
STACK CFI cd14 .cfa: sp 0 +
STACK CFI INIT cd18 18 .cfa: sp 0 +
STACK CFI INIT cd30 4 .cfa: sp 0 +
STACK CFI INIT cd34 4 .cfa: sp 0 +
STACK CFI INIT cd38 10 .cfa: sp 0 +
STACK CFI INIT cd48 1c .cfa: sp 0 +
STACK CFI INIT cd64 c .cfa: sp 0 +
STACK CFI INIT cd70 1b0 .cfa: sp 0 +
STACK CFI INIT cf20 3c .cfa: sp 0 +
STACK CFI cf24 .cfa: sp 32 +
STACK CFI cf2c .cfa: x29 32 + x19: .cfa -16 + ^ .ra: .cfa -24 + ^ x29: .cfa -32 + ^
STACK CFI cf38 .cfa: sp 32 +
STACK CFI cf40 .cfa: sp 0 +
STACK CFI cf44 .cfa: x29 32 +
STACK CFI cf50 .cfa: sp 32 +
STACK CFI cf58 .cfa: sp 0 +
STACK CFI INIT d17c 64 .cfa: sp 0 +
STACK CFI d180 .cfa: sp 32 +
STACK CFI d188 .cfa: x29 32 + x19: .cfa -16 + ^ .ra: .cfa -24 + ^ x29: .cfa -32 + ^
STACK CFI d1b4 .cfa: sp 32 +
STACK CFI d1bc .cfa: sp 0 +
STACK CFI d1c0 .cfa: x29 32 +
STACK CFI d1d4 .cfa: sp 32 +
STACK CFI d1dc .cfa: sp 0 +
STACK CFI INIT d7c0 4 .cfa: sp 0 +
STACK CFI INIT d7c4 14 .cfa: sp 0 +
STACK CFI INIT a2e0 bd4 .cfa: sp 0 +
STACK CFI a2e4 .cfa: sp 240 +
STACK CFI a300 .cfa: x29 96 + x19: .cfa -8 + ^ x20: .cfa -16 + ^ x21: .cfa -24 + ^ x22: .cfa -32 + ^ x23: .cfa -40 + ^ x24: .cfa -48 + ^ x25: .cfa -56 + ^ x26: .cfa -64 + ^ x27: .cfa -72 + ^ x28: .cfa -80 + ^ .ra: .cfa -88 + ^ x29: .cfa -96 + ^
STACK CFI a6dc .cfa: sp 240 +
STACK CFI a6f8 .cfa: sp 0 +
STACK CFI a6fc .cfa: x29 96 +
STACK CFI ad5c .cfa: sp 240 +
STACK CFI ad78 .cfa: sp 0 +
STACK CFI ad7c .cfa: x29 96 +
STACK CFI INIT aecc 484 .cfa: sp 0 +
STACK CFI aed0 .cfa: sp 304 +
STACK CFI aeec .cfa: x29 96 + x19: .cfa -8 + ^ x20: .cfa -16 + ^ x21: .cfa -24 + ^ x22: .cfa -32 + ^ x23: .cfa -40 + ^ x24: .cfa -48 + ^ x25: .cfa -56 + ^ x26: .cfa -64 + ^ x27: .cfa -72 + ^ x28: .cfa -80 + ^ .ra: .cfa -88 + ^ x29: .cfa -96 + ^
STACK CFI b210 .cfa: sp 304 +
STACK CFI b22c .cfa: sp 0 +
STACK CFI b230 .cfa: x29 96 +
STACK CFI INIT b3a0 74 .cfa: sp 0 +
STACK CFI b3a4 .cfa: sp 48 +
STACK CFI b3b0 .cfa: x29 32 + x19: .cfa -8 + ^ x20: .cfa -16 + ^ .ra: .cfa -24 + ^ x29: .cfa -32 + ^
STACK CFI b3fc .cfa: sp 48 +
STACK CFI b408 .cfa: sp 0 +
STACK CFI b40c .cfa: x29 32 +
STACK CFI INIT b4a4 154 .cfa: sp 0 +
STACK CFI b4a8 .cfa: sp 384 +
STACK CFI b4bc .cfa: x29 64 + x19: .cfa -8 + ^ x20: .cfa -16 + ^ x21: .cfa -24 + ^ x22: .cfa -32 + ^ x23: .cfa -40 + ^ x28: .cfa -48 + ^ .ra: .cfa -56 + ^ x29: .cfa -64 + ^
STACK CFI b5a0 .cfa: sp 384 +
STACK CFI b5b4 .cfa: sp 0 +
STACK CFI b5b8 .cfa: x29 64 +
STACK CFI INIT b62c 12c .cfa: sp 0 +
STACK CFI b630 .cfa: sp 80 +
STACK CFI b644 .cfa: x29 80 + x19: .cfa -8 + ^ x20: .cfa -16 + ^ x21: .cfa -24 + ^ x22: .cfa -32 + ^ x23: .cfa -40 + ^ x24: .cfa -48 + ^ x25: .cfa -56 + ^ x26: .cfa -64 + ^ .ra: .cfa -72 + ^ x29: .cfa -80 + ^
STACK CFI b70c .cfa: sp 80 +
STACK CFI b720 .cfa: sp 0 +
STACK CFI b724 .cfa: x29 80 +
STACK CFI INIT b7fc 1a4 .cfa: sp 0 +
STACK CFI b800 .cfa: sp 112 +
STACK CFI b818 .cfa: x29 80 + x19: .cfa -8 + ^ x20: .cfa -16 + ^ x21: .cfa -24 + ^ x22: .cfa -32 + ^ x23: .cfa -40 + ^ x24: .cfa -48 + ^ x25: .cfa -56 + ^ x26: .cfa -64 + ^ .ra: .cfa -72 + ^ x29: .cfa -80 + ^
STACK CFI b908 .cfa: sp 112 +
STACK CFI b920 .cfa: sp 0 +
STACK CFI b924 .cfa: x29 80 +
STACK CFI INIT b9a0 1dc .cfa: sp 0 +
STACK CFI b9a4 .cfa: sp 128 +
STACK CFI b9c0 .cfa: x29 96 + x19: .cfa -8 + ^ x20: .cfa -16 + ^ x21: .cfa -24 + ^ x22: .cfa -32 + ^ x23: .cfa -40 + ^ x24: .cfa -48 + ^ x25: .cfa -56 + ^ x26: .cfa -64 + ^ x27: .cfa -80 + ^ .ra: .cfa -88 + ^ x29: .cfa -96 + ^
STACK CFI bb2c .cfa: sp 128 +
STACK CFI bb48 .cfa: sp 0 +
STACK CFI bb4c .cfa: x29 96 +
STACK CFI INIT bb90 50 .cfa: sp 0 +
STACK CFI bb94 .cfa: sp 32 +
STACK CFI bb9c .cfa: x29 32 + x19: .cfa -8 + ^ x20: .cfa -16 + ^ .ra: .cfa -24 + ^ x29: .cfa -32 + ^
STACK CFI INIT bc44 178 .cfa: sp 0 +
STACK CFI bc48 .cfa: sp 80 +
STACK CFI bc5c .cfa: x29 80 + x19: .cfa -8 + ^ x20: .cfa -16 + ^ x21: .cfa -24 + ^ x22: .cfa -32 + ^ x23: .cfa -40 + ^ x24: .cfa -48 + ^ x25: .cfa -64 + ^ .ra: .cfa -72 + ^ x29: .cfa -80 + ^
STACK CFI bd88 .cfa: sp 80 +
STACK CFI bd9c .cfa: sp 0 +
STACK CFI bda0 .cfa: x29 80 +
STACK CFI INIT c09c 228 .cfa: sp 0 +
STACK CFI c0a0 .cfa: sp 96 +
STACK CFI c0b4 .cfa: x29 64 + x19: .cfa -8 + ^ x20: .cfa -16 + ^ x21: .cfa -24 + ^ x22: .cfa -32 + ^ x23: .cfa -48 + ^ .ra: .cfa -56 + ^ x29: .cfa -64 + ^
STACK CFI c27c .cfa: sp 96 +
STACK CFI c290 .cfa: sp 0 +
STACK CFI c294 .cfa: x29 64 +
STACK CFI INIT c378 258 .cfa: sp 0 +
STACK CFI c37c .cfa: sp 64 +
STACK CFI c388 .cfa: x29 32 + x19: .cfa -8 + ^ x20: .cfa -16 + ^ .ra: .cfa -24 + ^ x29: .cfa -32 + ^
STACK CFI c420 .cfa: sp 64 +
STACK CFI c42c .cfa: sp 0 +
STACK CFI c430 .cfa: x29 32 +
STACK CFI INIT c5d0 644 .cfa: sp 0 +
STACK CFI c5d4 .cfa: sp 224 +
STACK CFI c5f0 .cfa: x29 96 + x19: .cfa -8 + ^ x20: .cfa -16 + ^ x21: .cfa -24 + ^ x22: .cfa -32 + ^ x23: .cfa -40 + ^ x24: .cfa -48 + ^ x25: .cfa -56 + ^ x26: .cfa -64 + ^ x27: .cfa -72 + ^ x28: .cfa -80 + ^ .ra: .cfa -88 + ^ x29: .cfa -96 + ^
STACK CFI caa4 .cfa: sp 224 +
STACK CFI cac0 .cfa: sp 0 +
STACK CFI cac4 .cfa: x29 96 +
STACK CFI INIT cc4c 50 .cfa: sp 0 +
STACK CFI cc50 .cfa: sp 32 +
STACK CFI cc58 .cfa: x29 32 + x19: .cfa -8 + ^ x20: .cfa -16 + ^ .ra: .cfa -24 + ^ x29: .cfa -32 + ^
STACK CFI INIT cf5c 134 .cfa: sp 0 +
STACK CFI cf60 .cfa: sp 80 +
STACK CFI cf6c .cfa: x29 32 + x19: .cfa -8 + ^ x20: .cfa -16 + ^ .ra: .cfa -24 + ^ x29: .cfa -32 + ^
STACK CFI cf9c .cfa: sp 80 +
STACK CFI cfa8 .cfa: sp 0 +
STACK CFI cfac .cfa: x29 32 +
STACK CFI INIT d090 78 .cfa: sp 0 +
STACK CFI d094 .cfa: sp 32 +
STACK CFI d09c .cfa: x29 32 + x19: .cfa -8 + ^ x20: .cfa -16 + ^ .ra: .cfa -24 + ^ x29: .cfa -32 + ^
STACK CFI d0a8 .cfa: sp 32 +
STACK CFI d0b0 .cfa: sp 0 +
STACK CFI d0b4 .cfa: x29 32 +
STACK CFI INIT d108 74 .cfa: sp 0 +
STACK CFI d10c .cfa: sp 48 +
STACK CFI d118 .cfa: x29 32 + x19: .cfa -8 + ^ x20: .cfa -16 + ^ .ra: .cfa -24 + ^ x29: .cfa -32 + ^
STACK CFI d164 .cfa: sp 48 +
STACK CFI d170 .cfa: sp 0 +
STACK CFI d174 .cfa: x29 32 +
STACK CFI INIT d1e0 1b8 .cfa: sp 0 +
STACK CFI d1e4 .cfa: sp 160 +
STACK CFI d200 .cfa: x29 72 + x19: .cfa -8 + ^ x20: .cfa -16 + ^ x21: .cfa -24 + ^ x22: .cfa -32 + ^ x23: .cfa -40 + ^ x24: .cfa -48 + ^ x25: .cfa -56 + ^ .ra: .cfa -64 + ^ x29: .cfa -72 + ^ v8: .cfa -80 + ^
STACK CFI d284 .cfa: sp 160 +
STACK CFI d2a0 .cfa: sp 0 +
STACK CFI d2a4 .cfa: x29 72 +
STACK CFI INIT d398 16c .cfa: sp 0 +
STACK CFI d39c .cfa: sp 64 +
STACK CFI d3ac .cfa: x29 48 + x19: .cfa -8 + ^ x20: .cfa -16 + ^ x21: .cfa -24 + ^ x22: .cfa -32 + ^ .ra: .cfa -40 + ^ x29: .cfa -48 + ^
STACK CFI d4a4 .cfa: sp 64 +
STACK CFI d4b4 .cfa: sp 0 +
STACK CFI d4b8 .cfa: x29 48 +
STACK CFI INIT d504 154 .cfa: sp 0 +
STACK CFI d508 .cfa: sp 384 +
STACK CFI d51c .cfa: x29 64 + x19: .cfa -8 + ^ x20: .cfa -16 + ^ x21: .cfa -24 + ^ x22: .cfa -32 + ^ x23: .cfa -40 + ^ x28: .cfa -48 + ^ .ra: .cfa -56 + ^ x29: .cfa -64 + ^
STACK CFI d600 .cfa: sp 384 +
STACK CFI d614 .cfa: sp 0 +
STACK CFI d618 .cfa: x29 64 +
STACK CFI INIT d658 168 .cfa: sp 0 +
STACK CFI d65c .cfa: sp 384 +
STACK CFI d670 .cfa: x29 64 + x19: .cfa -8 + ^ x20: .cfa -16 + ^ x21: .cfa -24 + ^ x22: .cfa -32 + ^ x23: .cfa -40 + ^ x28: .cfa -48 + ^ .ra: .cfa -56 + ^ x29: .cfa -64 + ^
STACK CFI d768 .cfa: sp 384 +
STACK CFI d77c .cfa: sp 0 +
STACK CFI d780 .cfa: x29 64 +
