MODULE Linux arm64 0AAD23ADCA76CFBB7C7A3D4B9659B5170 raydeeux.krazyplaylayer.android64.so
INFO CODE_ID AD23AD0A76CABBCF7C7A3D4B9659B517EBD5ADD4
INFO GENERATOR mozilla/dump_syms 2.3.4
PUBLIC 1e8d0 0 __on_dlclose
PUBLIC 1e8e0 0 __emutls_unregister_key
PUBLIC 1e8e8 0 __on_dlclose_late
PUBLIC 1e8f0 0 __atexit_handler_wrapper
PUBLIC 1e904 0 atexit
PUBLIC 1e920 0 pthread_atfork
PUBLIC 1e930 0 unwind_phase2
PUBLIC 1ea64 0 _Unwind_Resume
PUBLIC 1eae8 0 unwind_phase2_forced
PUBLIC m 1ebdc 0 __unw_init_local
PUBLIC m 1ec84 0 __unw_get_reg
PUBLIC 1ed00 0 __unw_step_stage2
PUBLIC m 1ed14 0 __unw_get_proc_info
PUBLIC m 1ed54 0 __unw_resume
PUBLIC 1ed7c 0 libunwind::CFI_Parser<libunwind::LocalAddressSpace>::decodeFDE(libunwind::LocalAddressSpace&, unsigned long, libunwind::CFI_Parser<libunwind::LocalAddressSpace>::FDE_Info*, libunwind::CFI_Parser<libunwind::LocalAddressSpace>::CIE_Info*, bool)
PUBLIC 1ef0c 0 libunwind::CFI_Parser<libunwind::LocalAddressSpace>::parseCIE(libunwind::LocalAddressSpace&, unsigned long, libunwind::CFI_Parser<libunwind::LocalAddressSpace>::CIE_Info*)
PUBLIC 1f1d4 0 libunwind::AbstractUnwindCursor::~AbstractUnwindCursor()
PUBLIC 1f1dc 0 libunwind::UnwindCursor<libunwind::LocalAddressSpace, libunwind::Registers_arm64>::~UnwindCursor()
PUBLIC 1f1e4 0 libunwind::UnwindCursor<libunwind::LocalAddressSpace, libunwind::Registers_arm64>::validReg(int)
PUBLIC 1f228 0 libunwind::UnwindCursor<libunwind::LocalAddressSpace, libunwind::Registers_arm64>::getReg(int)
PUBLIC 1f310 0 libunwind::UnwindCursor<libunwind::LocalAddressSpace, libunwind::Registers_arm64>::setReg(int, unsigned long)
PUBLIC 1f3f8 0 libunwind::UnwindCursor<libunwind::LocalAddressSpace, libunwind::Registers_arm64>::validFloatReg(int)
PUBLIC 1f40c 0 libunwind::UnwindCursor<libunwind::LocalAddressSpace, libunwind::Registers_arm64>::getFloatReg(int)
PUBLIC 1f41c 0 libunwind::UnwindCursor<libunwind::LocalAddressSpace, libunwind::Registers_arm64>::setFloatReg(int, double)
PUBLIC 1f42c 0 libunwind::UnwindCursor<libunwind::LocalAddressSpace, libunwind::Registers_arm64>::step(bool)
PUBLIC 1f51c 0 libunwind::UnwindCursor<libunwind::LocalAddressSpace, libunwind::Registers_arm64>::getInfo(unw_proc_info_t*)
PUBLIC 1f560 0 libunwind::UnwindCursor<libunwind::LocalAddressSpace, libunwind::Registers_arm64>::jumpto()
PUBLIC 1f56c 0 libunwind::UnwindCursor<libunwind::LocalAddressSpace, libunwind::Registers_arm64>::isSignalFrame()
PUBLIC 1f578 0 libunwind::UnwindCursor<libunwind::LocalAddressSpace, libunwind::Registers_arm64>::getFunctionName(char*, unsigned long, unsigned long*)
PUBLIC 1f5a4 0 libunwind::UnwindCursor<libunwind::LocalAddressSpace, libunwind::Registers_arm64>::setInfoBasedOnIPRegister(bool)
PUBLIC 1f824 0 libunwind::UnwindCursor<libunwind::LocalAddressSpace, libunwind::Registers_arm64>::getRegisterName(int)
PUBLIC 1f830 0 libunwind::UnwindCursor<libunwind::LocalAddressSpace, libunwind::Registers_arm64>::stepThroughSigReturn(libunwind::Registers_arm64&)
PUBLIC 1f950 0 libunwind::DwarfInstructions<libunwind::LocalAddressSpace, libunwind::Registers_arm64>::stepWithDwarf(libunwind::LocalAddressSpace&, unsigned long, unsigned long, libunwind::Registers_arm64&, bool&, bool)
PUBLIC 1fdd8 0 libunwind::CFI_Parser<libunwind::LocalAddressSpace>::parseFDEInstructions(libunwind::LocalAddressSpace&, libunwind::CFI_Parser<libunwind::LocalAddressSpace>::FDE_Info const&, libunwind::CFI_Parser<libunwind::LocalAddressSpace>::CIE_Info const&, unsigned long, int, libunwind::CFI_Parser<libunwind::LocalAddressSpace>::PrologInfo*)
PUBLIC 20a20 0 libunwind::DwarfInstructions<libunwind::LocalAddressSpace, libunwind::Registers_arm64>::getCFA(libunwind::LocalAddressSpace&, libunwind::CFI_Parser<libunwind::LocalAddressSpace>::PrologInfo const&, libunwind::Registers_arm64 const&)
PUBLIC 20b54 0 libunwind::DwarfInstructions<libunwind::LocalAddressSpace, libunwind::Registers_arm64>::getSavedRegister(libunwind::LocalAddressSpace&, libunwind::Registers_arm64 const&, unsigned long, libunwind::CFI_Parser<libunwind::LocalAddressSpace>::RegisterLocation const&)
PUBLIC 20d64 0 libunwind::LocalAddressSpace::getEncodedP(unsigned long&, unsigned long, unsigned char, unsigned long)
PUBLIC 210f0 0 libunwind::LocalAddressSpace::getULEB128(unsigned long&, unsigned long)
PUBLIC 212b8 0 libunwind::DwarfInstructions<libunwind::LocalAddressSpace, libunwind::Registers_arm64>::evaluateExpression(unsigned long, libunwind::LocalAddressSpace&, libunwind::Registers_arm64 const&, unsigned long)
PUBLIC 21c74 0 libunwind::UnwindCursor<libunwind::LocalAddressSpace, libunwind::Registers_arm64>::getInfoFromDwarfSection(unsigned long, libunwind::UnwindInfoSections const&, unsigned int)
PUBLIC 21f48 0 libunwind::findUnwindSectionsByPhdr(dl_phdr_info*, unsigned long, void*)
PUBLIC 2207c 0 libunwind::EHHeaderParser<libunwind::LocalAddressSpace>::decodeEHHdr(libunwind::LocalAddressSpace&, unsigned long, unsigned long, libunwind::EHHeaderParser<libunwind::LocalAddressSpace>::EHHeaderInfo&)
PUBLIC 2219c 0 libunwind::CFI_Parser<libunwind::LocalAddressSpace>::findFDE(libunwind::LocalAddressSpace&, unsigned long, unsigned long, unsigned long, unsigned long, libunwind::CFI_Parser<libunwind::LocalAddressSpace>::FDE_Info*, libunwind::CFI_Parser<libunwind::LocalAddressSpace>::CIE_Info*)
PUBLIC 22364 0 libunwind::EHHeaderParser<libunwind::LocalAddressSpace>::findFDE(libunwind::LocalAddressSpace&, unsigned long, unsigned long, unsigned int, libunwind::CFI_Parser<libunwind::LocalAddressSpace>::FDE_Info*, libunwind::CFI_Parser<libunwind::LocalAddressSpace>::CIE_Info*)
PUBLIC 224cc 0 libunwind::EHHeaderParser<libunwind::LocalAddressSpace>::getTableEntrySize(unsigned char)
PUBLIC 225c8 0 libunwind::Registers_arm64::getRegisterName(int)
PUBLIC 225f8 0 __libunwind_Registers_arm64_jumpto
PUBLIC m 22688 0 __unw_getcontext
PUBLIC 22730 0 __aarch64_ldadd8_relax
PUBLIC 22760 0 init_have_lse_atomics
PUBLIC 227f8 0 __init_cpu_features_constructor
PUBLIC 22d94 0 __init_cpu_features
PUBLIC 22e20 0 __aarch64_ldadd8_acq_rel
PUBLIC 22e50 0 __cxx_global_var_init
PUBLIC 23484 0 geode::modifier::ModifyBase<geode::modifier::ModifyDerive<MyCCCircleWave, CCCircleWave> >::~ModifyBase()
PUBLIC 234a0 0 geode::modifier::ModifyDerive<MyCCCircleWave, CCCircleWave>::apply()
PUBLIC 23820 0 std::__ndk1::shared_ptr<geode::Hook>::~shared_ptr[abi:ne180000]()
PUBLIC 23870 0 geode::impl::ResultData<geode::Hook*, std::__ndk1::basic_string<char, std::__ndk1::char_traits<char>, std::__ndk1::allocator<char> > >::~ResultData()
PUBLIC 238e4 0 std::__ndk1::vector<std::__ndk1::basic_string<char, std::__ndk1::char_traits<char>, std::__ndk1::allocator<char> >, std::__ndk1::allocator<std::__ndk1::basic_string<char, std::__ndk1::char_traits<char>, std::__ndk1::allocator<char> > > >::~vector[abi:ne180000]()
PUBLIC 23960 0 geode::modifier::ModifyBase<geode::modifier::ModifyDerive<MyCCCircleWave, CCCircleWave> >::apply()
PUBLIC 23964 0 __clang_call_terminate
PUBLIC 23974 0 std::__ndk1::basic_string<char, std::__ndk1::char_traits<char>, std::__ndk1::allocator<char> >::__throw_length_error[abi:ne180000]() const
PUBLIC 23988 0 std::__ndk1::__throw_length_error[abi:ne180000](char const*)
PUBLIC 239d8 0 std::length_error::length_error[abi:ne180000](char const*)
PUBLIC 23a08 0 std::__throw_bad_array_new_length([abi:ne180000], void)
PUBLIC 23a3c 0 std::__ndk1::__tree<std::__ndk1::__value_type<std::__ndk1::basic_string<char, std::__ndk1::char_traits<char>, std::__ndk1::allocator<char> >, std::__ndk1::shared_ptr<geode::Hook> >, std::__ndk1::__map_value_compare<std::__ndk1::basic_string<char, std::__ndk1::char_traits<char>, std::__ndk1::allocator<char> >, std::__ndk1::__value_type<std::__ndk1::basic_string<char, std::__ndk1::char_traits<char>, std::__ndk1::allocator<char> >, std::__ndk1::shared_ptr<geode::Hook> >, std::__ndk1::less<std::__ndk1::basic_string<char, std::__ndk1::char_traits<char>, std::__ndk1::allocator<char> > >, true>, std::__ndk1::allocator<std::__ndk1::__value_type<std::__ndk1::basic_string<char, std::__ndk1::char_traits<char>, std::__ndk1::allocator<char> >, std::__ndk1::shared_ptr<geode::Hook> > > >::find<std::__ndk1::basic_string<char, std::__ndk1::char_traits<char>, std::__ndk1::allocator<char> > >(std::__ndk1::basic_string<char, std::__ndk1::char_traits<char>, std::__ndk1::allocator<char> > const&)
PUBLIC 23b5c 0 std::__ndk1::__tree<std::__ndk1::__value_type<std::__ndk1::basic_string<char, std::__ndk1::char_traits<char>, std::__ndk1::allocator<char> >, std::__ndk1::shared_ptr<geode::Hook> >, std::__ndk1::__map_value_compare<std::__ndk1::basic_string<char, std::__ndk1::char_traits<char>, std::__ndk1::allocator<char> >, std::__ndk1::__value_type<std::__ndk1::basic_string<char, std::__ndk1::char_traits<char>, std::__ndk1::allocator<char> >, std::__ndk1::shared_ptr<geode::Hook> >, std::__ndk1::less<std::__ndk1::basic_string<char, std::__ndk1::char_traits<char>, std::__ndk1::allocator<char> > >, true>, std::__ndk1::allocator<std::__ndk1::__value_type<std::__ndk1::basic_string<char, std::__ndk1::char_traits<char>, std::__ndk1::allocator<char> >, std::__ndk1::shared_ptr<geode::Hook> > > >::__emplace_unique_key_args<std::__ndk1::basic_string<char, std::__ndk1::char_traits<char>, std::__ndk1::allocator<char> >, std::__ndk1::piecewise_construct_t const&, std::__ndk1::tuple<std::__ndk1::basic_string<char, std::__ndk1::char_traits<char>, std::__ndk1::allocator<char> > const&>, std::__ndk1::tuple<> >(std::__ndk1::basic_string<char, std::__ndk1::char_traits<char>, std::__ndk1::allocator<char> > const&, std::__ndk1::piecewise_construct_t const&, std::__ndk1::tuple<std::__ndk1::basic_string<char, std::__ndk1::char_traits<char>, std::__ndk1::allocator<char> > const&>, std::__ndk1::tuple<>)
PUBLIC 23d50 0 std::__ndk1::unique_ptr<std::__ndk1::__tree_node<std::__ndk1::__value_type<std::__ndk1::basic_string<char, std::__ndk1::char_traits<char>, std::__ndk1::allocator<char> >, std::__ndk1::shared_ptr<geode::Hook> >, void*>, std::__ndk1::__tree_node_destructor<std::__ndk1::allocator<std::__ndk1::__tree_node<std::__ndk1::__value_type<std::__ndk1::basic_string<char, std::__ndk1::char_traits<char>, std::__ndk1::allocator<char> >, std::__ndk1::shared_ptr<geode::Hook> >, void*> > > >::~unique_ptr[abi:ne180000]()
PUBLIC 23dcc 0 std::__ndk1::basic_string<char, std::__ndk1::char_traits<char>, std::__ndk1::allocator<char> >::__init_copy_ctor_external(char const*, unsigned long)
PUBLIC 23e4c 0 std::__ndk1::__tree_balance_after_insert[abi:ne180000]<std::__ndk1::__tree_node_base<void*>*>(std::__ndk1::__tree_node_base<void*>*, std::__ndk1::__tree_node_base<void*>*)
PUBLIC 23ffc 0 _ZN5geode15UnwrapExceptionC2IRPNS_4HookEQsr4implE18IsStringStreamableIT_EEENS_4impl5OkTagEOS5_
PUBLIC 24150 0 std::__ndk1::__throw_bad_variant_access[abi:ne180000]()
PUBLIC 24184 0 std::__ndk1::basic_stringstream<char, std::__ndk1::char_traits<char>, std::__ndk1::allocator<char> >::basic_stringstream[abi:ne180000]()
PUBLIC m 242b0 0 std::__ndk1::basic_stringstream<char, std::__ndk1::char_traits<char>, std::__ndk1::allocator<char> >::~basic_stringstream()
PUBLIC 24330 0 geode::UnwrapException::~UnwrapException()
PUBLIC 24354 0 std::__ndk1::__put_character_sequence[abi:ne180000]<char, std::__ndk1::char_traits<char> >(std::__ndk1::basic_ostream<char, std::__ndk1::char_traits<char> >, std::__ndk1::basic_ostream const*, unsigned long)
PUBLIC 244f8 0 std::__ndk1::__pad_and_output[abi:ne180000]<char, std::__ndk1::char_traits<char> >(std::__ndk1::char_traits<char>, std::__ndk1::ostreambuf_iterator const*, std::__ndk1::ostreambuf_iterator const, std::__ndk1::ostreambuf_iterator const, std::__ndk1::ios_base&, std::__ndk1::ostreambuf_iterator)
PUBLIC 246d4 0 std::__ndk1::basic_stringbuf<char, std::__ndk1::char_traits<char>, std::__ndk1::allocator<char> >::str[abi:ne180000]() &&
PUBLIC 2484c 0 std::__ndk1::basic_stringbuf<char, std::__ndk1::char_traits<char>, std::__ndk1::allocator<char> >::__init_buf_ptrs[abi:ne180000]()
PUBLIC 24994 0 _ZN5geode15UnwrapExceptionC2IRNSt6__ndk112basic_stringIcNS2_11char_traitsIcEENS2_9allocatorIcEEEEQsr4implE18IsStringStreamableIT_EEENS_4impl6ErrTagEOSA_
PUBLIC 24afc 0 std::__ndk1::__variant_detail::__visitation::__base::__dispatcher<(unsigned long)0>::__dispatch[abi:ne180000]<std::__ndk1::__variant_detail::__dtor<std::__ndk1::__variant_detail::__traits<std::__ndk1::monostate, std::__ndk1::basic_string<char, std::__ndk1::char_traits<char>, std::__ndk1::allocator<char> > >, (std::__ndk1::__variant_detail::_Trait)1>::__destroy[abi:ne180000]()::{lambda(auto:1&)#1}, std::__ndk1::__variant_detail::__base<(std::__ndk1::__variant_detail::__traits<std::__ndk1::monostate, std::__ndk1::basic_string<char, std::__ndk1::char_traits<char>, std::__ndk1::allocator<char> > >)1, std::__ndk1::__variant_detail::__traits, std::__ndk1::allocator<char> >&>(std::__ndk1::__variant_detail::__dtor<std::__ndk1::__variant_detail::__traits<std::__ndk1::monostate, std::__ndk1::basic_string<char, std::__ndk1::char_traits<char>, std::__ndk1::allocator<char> > >, (std::__ndk1::__variant_detail::_Trait)1>, std::__ndk1::__variant_detail::__base<(std::__ndk1::__variant_detail::__traits<std::__ndk1::monostate, std::__ndk1::basic_string<char, std::__ndk1::char_traits<char>, std::__ndk1::allocator<char> > >)1, std::__ndk1::__variant_detail::__traits, std::__ndk1::allocator<char> >&)
PUBLIC 24b00 0 std::__ndk1::__variant_detail::__visitation::__base::__dispatcher<(unsigned long)1>::__dispatch[abi:ne180000]<std::__ndk1::__variant_detail::__dtor<std::__ndk1::__variant_detail::__traits<std::__ndk1::monostate, std::__ndk1::basic_string<char, std::__ndk1::char_traits<char>, std::__ndk1::allocator<char> > >, (std::__ndk1::__variant_detail::_Trait)1>::__destroy[abi:ne180000]()::{lambda(auto:1&)#1}, std::__ndk1::__variant_detail::__base<(std::__ndk1::__variant_detail::__traits<std::__ndk1::monostate, std::__ndk1::basic_string<char, std::__ndk1::char_traits<char>, std::__ndk1::allocator<char> > >)1, std::__ndk1::__variant_detail::__traits, std::__ndk1::allocator<char> >&>(std::__ndk1::__variant_detail::__dtor<std::__ndk1::__variant_detail::__traits<std::__ndk1::monostate, std::__ndk1::basic_string<char, std::__ndk1::char_traits<char>, std::__ndk1::allocator<char> > >, (std::__ndk1::__variant_detail::_Trait)1>, std::__ndk1::__variant_detail::__base<(std::__ndk1::__variant_detail::__traits<std::__ndk1::monostate, std::__ndk1::basic_string<char, std::__ndk1::char_traits<char>, std::__ndk1::allocator<char> > >)1, std::__ndk1::__variant_detail::__traits, std::__ndk1::allocator<char> >&)
PUBLIC 24b14 0 std::__ndk1::vector<std::__ndk1::basic_string<char, std::__ndk1::char_traits<char>, std::__ndk1::allocator<char> >, std::__ndk1::allocator<std::__ndk1::basic_string<char, std::__ndk1::char_traits<char>, std::__ndk1::allocator<char> > > >::__push_back_slow_path<std::__ndk1::basic_string<char, std::__ndk1::char_traits<char>, std::__ndk1::allocator<char> > const&>(std::__ndk1::basic_string<char, std::__ndk1::char_traits<char>, std::__ndk1::allocator<char> > const&)
PUBLIC 24d3c 0 std::__ndk1::__split_buffer<std::__ndk1::basic_string<char, std::__ndk1::char_traits<char>, std::__ndk1::allocator<char> >, std::__ndk1::allocator<std::__ndk1::basic_string<char, std::__ndk1::char_traits<char>, std::__ndk1::allocator<char> > >&>::~__split_buffer()
PUBLIC 24da4 0 std::__ndk1::vector<std::__ndk1::basic_string<char, std::__ndk1::char_traits<char>, std::__ndk1::allocator<char> >, std::__ndk1::allocator<std::__ndk1::basic_string<char, std::__ndk1::char_traits<char>, std::__ndk1::allocator<char> > > >::__throw_length_error[abi:ne180000]() const
PUBLIC 24db8 0 std::__ndk1::__variant_detail::__visitation::__base::__dispatcher<(unsigned long)0>::__dispatch[abi:ne180000]<std::__ndk1::__variant_detail::__dtor<std::__ndk1::__variant_detail::__traits<geode::Hook*, std::__ndk1::basic_string<char, std::__ndk1::char_traits<char>, std::__ndk1::allocator<char> > >, (std::__ndk1::__variant_detail::_Trait)1>::__destroy[abi:ne180000]()::{lambda(auto:1&)#1}, std::__ndk1::__variant_detail::__base<(std::__ndk1::__variant_detail::__traits<geode::Hook*, std::__ndk1::basic_string<char, std::__ndk1::char_traits<char>, std::__ndk1::allocator<char> > >)1, geode::Hook, std::__ndk1::allocator<char> >&>(std::__ndk1::__variant_detail::__dtor<std::__ndk1::__variant_detail::__traits<geode::Hook*, std::__ndk1::basic_string<char, std::__ndk1::char_traits<char>, std::__ndk1::allocator<char> > >, (std::__ndk1::__variant_detail::_Trait)1>, std::__ndk1::__variant_detail::__base<(std::__ndk1::__variant_detail::__traits<geode::Hook*, std::__ndk1::basic_string<char, std::__ndk1::char_traits<char>, std::__ndk1::allocator<char> > >)1, geode::Hook, std::__ndk1::allocator<char> >&)
PUBLIC 24dbc 0 std::__ndk1::__variant_detail::__visitation::__base::__dispatcher<(unsigned long)1>::__dispatch[abi:ne180000]<std::__ndk1::__variant_detail::__dtor<std::__ndk1::__variant_detail::__traits<geode::Hook*, std::__ndk1::basic_string<char, std::__ndk1::char_traits<char>, std::__ndk1::allocator<char> > >, (std::__ndk1::__variant_detail::_Trait)1>::__destroy[abi:ne180000]()::{lambda(auto:1&)#1}, std::__ndk1::__variant_detail::__base<(std::__ndk1::__variant_detail::__traits<geode::Hook*, std::__ndk1::basic_string<char, std::__ndk1::char_traits<char>, std::__ndk1::allocator<char> > >)1, geode::Hook, std::__ndk1::allocator<char> >&>(std::__ndk1::__variant_detail::__dtor<std::__ndk1::__variant_detail::__traits<geode::Hook*, std::__ndk1::basic_string<char, std::__ndk1::char_traits<char>, std::__ndk1::allocator<char> > >, (std::__ndk1::__variant_detail::_Trait)1>, std::__ndk1::__variant_detail::__base<(std::__ndk1::__variant_detail::__traits<geode::Hook*, std::__ndk1::basic_string<char, std::__ndk1::char_traits<char>, std::__ndk1::allocator<char> > >)1, geode::Hook, std::__ndk1::allocator<char> >&)
PUBLIC 24dd0 0 std::__ndk1::__tree<std::__ndk1::__value_type<std::__ndk1::basic_string<char, std::__ndk1::char_traits<char>, std::__ndk1::allocator<char> >, std::__ndk1::shared_ptr<geode::Hook> >, std::__ndk1::__map_value_compare<std::__ndk1::basic_string<char, std::__ndk1::char_traits<char>, std::__ndk1::allocator<char> >, std::__ndk1::__value_type<std::__ndk1::basic_string<char, std::__ndk1::char_traits<char>, std::__ndk1::allocator<char> >, std::__ndk1::shared_ptr<geode::Hook> >, std::__ndk1::less<std::__ndk1::basic_string<char, std::__ndk1::char_traits<char>, std::__ndk1::allocator<char> > >, true>, std::__ndk1::allocator<std::__ndk1::__value_type<std::__ndk1::basic_string<char, std::__ndk1::char_traits<char>, std::__ndk1::allocator<char> >, std::__ndk1::shared_ptr<geode::Hook> > > >::erase(std::__ndk1::__tree_const_iterator<std::__ndk1::__value_type<std::__ndk1::basic_string<char, std::__ndk1::char_traits<char>, std::__ndk1::allocator<char> >, std::__ndk1::shared_ptr<geode::Hook> >, std::__ndk1::__tree_node<std::__ndk1::__value_type<std::__ndk1::basic_string<char, std::__ndk1::char_traits<char>, std::__ndk1::allocator<char> >, std::__ndk1::shared_ptr<geode::Hook> >, void*>*, long>)
PUBLIC 24ea4 0 std::__ndk1::__tree_remove[abi:ne180000]<std::__ndk1::__tree_node_base<void*>*>(std::__ndk1::__tree_node_base<void*>*, std::__ndk1::__tree_node_base<void*>*)
PUBLIC 2526c 0 std::__ndk1::__tree<std::__ndk1::__value_type<std::__ndk1::basic_string<char, std::__ndk1::char_traits<char>, std::__ndk1::allocator<char> >, std::__ndk1::shared_ptr<geode::Hook> >, std::__ndk1::__map_value_compare<std::__ndk1::basic_string<char, std::__ndk1::char_traits<char>, std::__ndk1::allocator<char> >, std::__ndk1::__value_type<std::__ndk1::basic_string<char, std::__ndk1::char_traits<char>, std::__ndk1::allocator<char> >, std::__ndk1::shared_ptr<geode::Hook> >, std::__ndk1::less<std::__ndk1::basic_string<char, std::__ndk1::char_traits<char>, std::__ndk1::allocator<char> > >, true>, std::__ndk1::allocator<std::__ndk1::__value_type<std::__ndk1::basic_string<char, std::__ndk1::char_traits<char>, std::__ndk1::allocator<char> >, std::__ndk1::shared_ptr<geode::Hook> > > >::destroy(std::__ndk1::__tree_node<std::__ndk1::__value_type<std::__ndk1::basic_string<char, std::__ndk1::char_traits<char>, std::__ndk1::allocator<char> >, std::__ndk1::shared_ptr<geode::Hook> >, void*>*)
PUBLIC 252f8 0 geode::modifier::AsStaticFunction_setPosition<MyCCCircleWave, void (MyCCCircleWave::*)(cocos2d::CCPoint const&)>::Impl<void (MyCCCircleWave::*)(cocos2d::CCPoint const&)>::function(MyCCCircleWave*, cocos2d::CCPoint const&)
PUBLIC 254cc 0 geode::addresser::Addresser::addressOfVirtual<void, CCCircleWave, cocos2d::CCPoint const&>(void (CCCircleWave::*)(cocos2d::CCPoint const&))
PUBLIC 25574 0 CCCircleWave::CCCircleWave(geode::ZeroConstructorType)
PUBLIC 255e4 0 std::__ndk1::shared_ptr<tulip::hook::CallingConvention>::~shared_ptr[abi:ne180000]()
PUBLIC 25634 0 tulip::hook::HandlerMetadata::~HandlerMetadata()
PUBLIC 25698 0 geode::cast::traverseTypeinfoFor(void*, geode::cast::ClassTypeinfoType const*, char const*)
PUBLIC 2579c 0 std::__ndk1::__tree<std::__ndk1::__value_type<std::__ndk1::basic_string<char, std::__ndk1::char_traits<char>, std::__ndk1::allocator<char> >, std::__ndk1::shared_ptr<geode::Hook> >, std::__ndk1::__map_value_compare<std::__ndk1::basic_string<char, std::__ndk1::char_traits<char>, std::__ndk1::allocator<char> >, std::__ndk1::__value_type<std::__ndk1::basic_string<char, std::__ndk1::char_traits<char>, std::__ndk1::allocator<char> >, std::__ndk1::shared_ptr<geode::Hook> >, std::__ndk1::less<std::__ndk1::basic_string<char, std::__ndk1::char_traits<char>, std::__ndk1::allocator<char> > >, true>, std::__ndk1::allocator<std::__ndk1::__value_type<std::__ndk1::basic_string<char, std::__ndk1::char_traits<char>, std::__ndk1::allocator<char> >, std::__ndk1::shared_ptr<geode::Hook> > > >::__emplace_unique_key_args<std::__ndk1::basic_string<char, std::__ndk1::char_traits<char>, std::__ndk1::allocator<char> >, std::__ndk1::piecewise_construct_t const&, std::__ndk1::tuple<std::__ndk1::basic_string<char, std::__ndk1::char_traits<char>, std::__ndk1::allocator<char> >&&>, std::__ndk1::tuple<> >(std::__ndk1::basic_string<char, std::__ndk1::char_traits<char>, std::__ndk1::allocator<char> > const&, std::__ndk1::piecewise_construct_t const&, std::__ndk1::tuple<std::__ndk1::basic_string<char, std::__ndk1::char_traits<char>, std::__ndk1::allocator<char> >&&>, std::__ndk1::tuple<>)
PUBLIC 25914 0 __cxx_global_var_init
PUBLIC 25f48 0 geode::modifier::ModifyBase<geode::modifier::ModifyDerive<MyCCLightFlash, CCLightFlash> >::~ModifyBase()
PUBLIC 25f64 0 geode::modifier::ModifyDerive<MyCCLightFlash, CCLightFlash>::apply()
PUBLIC 27844 0 geode::modifier::ModifyBase<geode::modifier::ModifyDerive<MyCCLightFlash, CCLightFlash> >::apply()
PUBLIC 27848 0 geode::modifier::AsStaticFunction_playEffect<MyCCLightFlash, void (MyCCLightFlash::*)(cocos2d::CCPoint, cocos2d::_ccColor3B, float, float, float, float, float, float, float, float, float, float, float, float, float, float, int, bool, bool, float)>::Impl<void (MyCCLightFlash::*)(cocos2d::CCPoint, cocos2d::_ccColor3B, float, float, float, float, float, float, float, float, float, float, float, float, float, float, int, bool, bool, float)>::function(MyCCLightFlash*, cocos2d::CCPoint, cocos2d::_ccColor3B, float, float, float, float, float, float, float, float, float, float, float, float, float, float, int, bool, bool, float)
PUBLIC 27a04 0 std::__ndk1::vector<tulip::hook::AbstractType, std::__ndk1::allocator<tulip::hook::AbstractType> >::__throw_length_error[abi:ne180000]() const
PUBLIC 27a18 0 __cxx_global_var_init
PUBLIC 2804c 0 geode::modifier::ModifyBase<geode::modifier::ModifyDerive<MyCCParticleSystem, cocos2d::CCParticleSystem> >::~ModifyBase()
PUBLIC 28068 0 geode::modifier::ModifyDerive<MyCCParticleSystem, cocos2d::CCParticleSystem>::apply()
PUBLIC 283f0 0 geode::modifier::ModifyBase<geode::modifier::ModifyDerive<MyCCParticleSystem, cocos2d::CCParticleSystem> >::apply()
PUBLIC 283f4 0 geode::modifier::AsStaticFunction_initParticle<MyCCParticleSystem, void (MyCCParticleSystem::*)(cocos2d::sCCParticle*)>::Impl<void (MyCCParticleSystem::*)(cocos2d::sCCParticle*)>::function(MyCCParticleSystem*, cocos2d::sCCParticle*)
PUBLIC 28700 0 std::__ndk1::operator==[abi:ne180000]<char, std::__ndk1::char_traits<char>, std::__ndk1::allocator<char> >(std::__ndk1::basic_string<char, std::__ndk1::char_traits<char>, std::__ndk1::allocator<char> > const&, std::__ndk1::basic_string const*)
PUBLIC 28780 0 geode::modifier::FieldIntermediate<MyCCParticleSystem, cocos2d::CCParticleSystem>::self()
PUBLIC 2896c 0 geode::modifier::FieldContainer::getField(unsigned long)
PUBLIC 28c24 0 geode::modifier::FieldContainer::setField(unsigned long, unsigned long, std::__ndk1::function<void (void*)>)
PUBLIC 28d38 0 geode::modifier::FieldIntermediate<MyCCParticleSystem, cocos2d::CCParticleSystem>::fieldDestructor(void*)
PUBLIC 28d3c 0 std::__ndk1::vector<void*, std::__ndk1::allocator<void*> >::__throw_length_error[abi:ne180000]() const
PUBLIC 28d50 0 std::__ndk1::vector<std::__ndk1::function<void (void*)>, std::__ndk1::allocator<std::__ndk1::function<void (void*)> > >::__push_back_slow_path<std::__ndk1::function<void (void*)> >(std::__ndk1::function<void (void*)>&&)
PUBLIC 28f7c 0 std::__ndk1::vector<std::__ndk1::function<void (void*)>, std::__ndk1::allocator<std::__ndk1::function<void (void*)> > >::__throw_length_error[abi:ne180000]() const
PUBLIC 28f90 0 std::__ndk1::vector<void*, std::__ndk1::allocator<void*> >::__throw_out_of_range[abi:ne180000]() const
PUBLIC 28fa4 0 std::__ndk1::__throw_out_of_range[abi:ne180000](char const*)
PUBLIC 28ff4 0 std::out_of_range::out_of_range[abi:ne180000](char const*)
PUBLIC 29024 0 std::__ndk1::vector<std::__ndk1::function<void (void*)>, std::__ndk1::allocator<std::__ndk1::function<void (void*)> > >::__throw_out_of_range[abi:ne180000]() const
PUBLIC 29038 0 std::__ndk1::__function::__base<void (void*)>::~__base()
PUBLIC 2903c 0 std::__ndk1::__function::__func<void (*)(void*), std::__ndk1::allocator<void (*)(void*)>, void (void*)>::~__func()
PUBLIC 29040 0 std::__ndk1::__function::__func<void (*)(void*), std::__ndk1::allocator<void (*)(void*)>, void (void*)>::__clone() const
PUBLIC 29078 0 std::__ndk1::__function::__func<void (*)(void*), std::__ndk1::allocator<void (*)(void*)>, void (void*)>::__clone(std::__ndk1::__function::__base<void (void*)>*) const
PUBLIC 29090 0 std::__ndk1::__function::__func<void (*)(void*), std::__ndk1::allocator<void (*)(void*)>, void (void*)>::destroy()
PUBLIC 29094 0 std::__ndk1::__function::__func<void (*)(void*), std::__ndk1::allocator<void (*)(void*)>, void (void*)>::destroy_deallocate()
PUBLIC 29098 0 std::__ndk1::__function::__func<void (*)(void*), std::__ndk1::allocator<void (*)(void*)>, void (void*)>::operator()(void*&&)
PUBLIC 290a8 0 std::__ndk1::__function::__func<void (*)(void*), std::__ndk1::allocator<void (*)(void*)>, void (void*)>::target(std::type_info const&) const
PUBLIC 290c4 0 std::__ndk1::__function::__func<void (*)(void*), std::__ndk1::allocator<void (*)(void*)>, void (void*)>::target_type() const
PUBLIC 290d0 0 Manager::Manager()
PUBLIC 293f4 0 __cxx_global_var_init
PUBLIC 29a28 0 geode::modifier::ModifyBase<geode::modifier::ModifyDerive<MyEffectGameObject, EffectGameObject> >::~ModifyBase()
PUBLIC 29a44 0 geode::modifier::ModifyDerive<MyEffectGameObject, EffectGameObject>::apply()
PUBLIC 29e28 0 geode::modifier::ModifyBase<geode::modifier::ModifyDerive<MyEffectGameObject, EffectGameObject> >::apply()
PUBLIC 29e2c 0 geode::modifier::AsStaticFunction_triggerObject<MyEffectGameObject, void (MyEffectGameObject::*)(GJBaseGameLayer*, int, gd::vector<int> const*)>::Impl<void (MyEffectGameObject::*)(GJBaseGameLayer*, int, gd::vector<int> const*)>::function(MyEffectGameObject*, GJBaseGameLayer*, int, gd::vector<int> const*)
PUBLIC 2a07c 0 geode::modifier::FieldIntermediate<MyEffectGameObject, EffectGameObject>::self()
PUBLIC 2a210 0 geode::modifier::FieldIntermediate<MyEffectGameObject, EffectGameObject>::fieldDestructor(void*)
PUBLIC 2a214 0 __cxx_global_var_init
PUBLIC 2a694 0 geode::modifier::ModifyBase<geode::modifier::ModifyDerive<MyEndPortalObject, EndPortalObject> >::~ModifyBase()
PUBLIC 2a6b0 0 geode::modifier::ModifyDerive<MyEndPortalObject, EndPortalObject>::apply()
PUBLIC 2aa38 0 geode::modifier::ModifyBase<geode::modifier::ModifyDerive<MyEndPortalObject, EndPortalObject> >::apply()
PUBLIC 2aa3c 0 geode::modifier::AsStaticFunction_updateEndPos<MyEndPortalObject, void (MyEndPortalObject::*)(bool)>::Impl<void (MyEndPortalObject::*)(bool)>::function(MyEndPortalObject*, bool)
PUBLIC 2ab94 0 geode::modifier::FieldIntermediate<MyEndPortalObject, EndPortalObject>::self()
PUBLIC 2ad80 0 geode::modifier::FieldIntermediate<MyEndPortalObject, EndPortalObject>::fieldDestructor(void*)
PUBLIC 2ad84 0 __cxx_global_var_init
PUBLIC 2b3bc 0 geode::modifier::ModifyBase<geode::modifier::ModifyDerive<MyEndTriggerGameObject, EndTriggerGameObject> >::~ModifyBase()
PUBLIC 2b3d8 0 geode::modifier::ModifyDerive<MyEndTriggerGameObject, EndTriggerGameObject>::apply()
PUBLIC 2b7c8 0 geode::modifier::ModifyBase<geode::modifier::ModifyDerive<MyEndTriggerGameObject, EndTriggerGameObject> >::apply()
PUBLIC 2b7cc 0 geode::modifier::AsStaticFunction_triggerObject<MyEndTriggerGameObject, void (MyEndTriggerGameObject::*)(GJBaseGameLayer*, int, gd::vector<int> const*)>::Impl<void (MyEndTriggerGameObject::*)(GJBaseGameLayer*, int, gd::vector<int> const*)>::function(MyEndTriggerGameObject*, GJBaseGameLayer*, int, gd::vector<int> const*)
PUBLIC 2bf7c 0 __cxx_global_var_init
PUBLIC 2c5b0 0 geode::modifier::ModifyBase<geode::modifier::ModifyDerive<MuteRewardsSFXFMODAEHook, FMODAudioEngine> >::~ModifyBase()
PUBLIC 2c5cc 0 geode::modifier::ModifyDerive<MuteRewardsSFXFMODAEHook, FMODAudioEngine>::apply()
PUBLIC 2c9f0 0 geode::modifier::ModifyBase<geode::modifier::ModifyDerive<MuteRewardsSFXFMODAEHook, FMODAudioEngine> >::apply()
PUBLIC 2c9f4 0 geode::modifier::AsStaticFunction_playEffect<MuteRewardsSFXFMODAEHook, void (MuteRewardsSFXFMODAEHook::*)(gd::string, float, float, float)>::Impl<void (MuteRewardsSFXFMODAEHook::*)(gd::string, float, float, float)>::function(MuteRewardsSFXFMODAEHook*, gd::string, float, float, float)
PUBLIC 2cc4c 0 _ZNKSt6__ndk16ranges6__find4__fnclB8ne180000ITkNS0_11input_rangeERKNS_5arrayINS_17basic_string_viewIcNS_11char_traitsIcEEEELm4EEES8_NS_8identityEQ25indirect_binary_predicateINS0_8equal_toENS_16__projected_implIDTclL_ZNS0_5__cpo5beginEEclsr3stdE7declvalIRT_EEEET1_E6__typeEPKT0_EEENS_7_IfImplIX14borrowed_rangeISG_EEE7_SelectISI_NS0_8danglingEEEOSG_RSN_SJ_
PUBLIC 2cd24 0 geode::modifier::FieldIntermediate<MuteRewardsSFXFMODAEHook, FMODAudioEngine>::self()
PUBLIC 2cec8 0 geode::modifier::FieldIntermediate<MuteRewardsSFXFMODAEHook, FMODAudioEngine>::fieldDestructor(void*)
PUBLIC 2cecc 0 __cxx_global_var_init
PUBLIC 2d500 0 geode::modifier::ModifyBase<geode::modifier::ModifyDerive<MyGameObject, GameObject> >::~ModifyBase()
PUBLIC 2d51c 0 geode::modifier::ModifyDerive<MyGameObject, GameObject>::apply()
PUBLIC 2d854 0 geode::modifier::ModifyBase<geode::modifier::ModifyDerive<MyGameObject, GameObject> >::apply()
PUBLIC 2d858 0 std::__ndk1::basic_string<char, std::__ndk1::char_traits<char>, std::__ndk1::allocator<char> >::basic_string[abi:ne180000]<0>()
PUBLIC 2d8f4 0 geode::modifier::AsStaticFunction_activateObject<MyGameObject, void (MyGameObject::*)()>::Impl<void (MyGameObject::*)()>::function(MyGameObject*)
PUBLIC 2dd3c 0 geode::addresser::Addresser::addressOfVirtual<void, GameObject, >(void (GameObject::*)())
PUBLIC 2de04 0 GameObject::GameObject(geode::ZeroConstructorType)
PUBLIC 2dee0 0 __cxx_global_var_init
PUBLIC 2e450 0 geode::modifier::ModifyBase<geode::modifier::ModifyDerive<MyPlayLayer, PlayLayer> >::~ModifyBase()
PUBLIC 2e46c 0 geode::modifier::ModifyDerive<MyPlayLayer, PlayLayer>::apply()
PUBLIC 2f318 0 geode::modifier::ModifyBase<geode::modifier::ModifyDerive<MyPlayLayer, PlayLayer> >::apply()
PUBLIC 2f31c 0 geode::modifier::ModifyBase<geode::modifier::ModifyDerive<MyPlayLayer, PlayLayer> >::setHookPriority(std::__ndk1::basic_string_view<char, std::__ndk1::char_traits<char> >, int)
PUBLIC 2f564 0 geode::modifier::AsStaticFunction_postUpdate<MyPlayLayer, void (MyPlayLayer::*)(float)>::Impl<void (MyPlayLayer::*)(float)>::function(MyPlayLayer*, float)
PUBLIC 2fe64 0 geode::modifier::AsStaticFunction_toggleGlitter<MyPlayLayer, void (MyPlayLayer::*)(bool)>::Impl<void (MyPlayLayer::*)(bool)>::function(MyPlayLayer*, bool)
PUBLIC 2ff30 0 geode::modifier::AsStaticFunction_addObject<MyPlayLayer, void (MyPlayLayer::*)(GameObject*)>::Impl<void (MyPlayLayer::*)(GameObject*)>::function(MyPlayLayer*, GameObject*)
PUBLIC 30694 0 geode::Hook::create<void (*)(MyPlayLayer*)>(void*, void (*)(MyPlayLayer*), std::__ndk1::basic_string<char, std::__ndk1::char_traits<char>, std::__ndk1::allocator<char> > const&, tulip::hook::TulipConvention, tulip::hook::HookMetadata const&)
PUBLIC 307c8 0 geode::modifier::AsStaticFunction_onQuit<MyPlayLayer, void (MyPlayLayer::*)()>::Impl<void (MyPlayLayer::*)()>::function(MyPlayLayer*)
PUBLIC 3083c 0 geode::modifier::AsStaticFunction_setupHasCompleted<MyPlayLayer, void (MyPlayLayer::*)()>::Impl<void (MyPlayLayer::*)()>::function(MyPlayLayer*)
PUBLIC 316a8 0 geode::modifier::AsStaticFunction_startGame<MyPlayLayer, void (MyPlayLayer::*)()>::Impl<void (MyPlayLayer::*)()>::function(MyPlayLayer*)
PUBLIC 316dc 0 geode::addresser::Addresser::addressOfVirtual<void, PlayLayer, float>(void (PlayLayer::*)(float))
PUBLIC 317a4 0 PlayLayer::PlayLayer(geode::ZeroConstructorType)
PUBLIC 31fc0 0 GJGameState::GJGameState()
PUBLIC 32538 0 geode::stl::unordered_map<int, int, geode::stl::hash<int>, geode::stl::equal_to<int>, std::__ndk1::allocator<std::__ndk1::pair<int const, int> > >::~unordered_map()
PUBLIC 325b0 0 geode::stl::unordered_set<int, geode::stl::hash<int>, geode::stl::equal_to<int>, std::__ndk1::allocator<int> >::~unordered_set()
PUBLIC 32628 0 geode::stl::unordered_map<int, gd::string, geode::stl::hash<int>, geode::stl::equal_to<int>, std::__ndk1::allocator<std::__ndk1::pair<int const, gd::string> > >::~unordered_map()
PUBLIC 326ac 0 gd::map<std::__ndk1::pair<int, int>, int>::~map()
PUBLIC 326c8 0 geode::stl::unordered_map<int, gd::vector<LabelGameObject*>, geode::stl::hash<int>, geode::stl::equal_to<int>, std::__ndk1::allocator<std::__ndk1::pair<int const, gd::vector<LabelGameObject*> > > >::~unordered_map()
PUBLIC 32754 0 geode::stl::unordered_map<int, std::__ndk1::pair<int, int>, geode::stl::hash<int>, geode::stl::equal_to<int>, std::__ndk1::allocator<std::__ndk1::pair<int const, std::__ndk1::pair<int, int> > > >::~unordered_map()
PUBLIC 327cc 0 geode::stl::unordered_map<int, gd::vector<GameObject*>, geode::stl::hash<int>, geode::stl::equal_to<int>, std::__ndk1::allocator<std::__ndk1::pair<int const, gd::vector<GameObject*> > > >::~unordered_map()
PUBLIC 32858 0 geode::stl::unordered_map<int, cocos2d::CCPoint, geode::stl::hash<int>, geode::stl::equal_to<int>, std::__ndk1::allocator<std::__ndk1::pair<int const, cocos2d::CCPoint> > >::~unordered_map()
PUBLIC 328d0 0 gd::vector<geode::stl::unordered_map<int, int, geode::stl::hash<int>, geode::stl::equal_to<int>, std::__ndk1::allocator<std::__ndk1::pair<int const, int> > > >::~vector()
PUBLIC 329d4 0 GJGameState::~GJGameState()
PUBLIC 32dcc 0 geode::stl::unordered_map<int, SongChannelState, geode::stl::hash<int>, geode::stl::equal_to<int>, std::__ndk1::allocator<std::__ndk1::pair<int const, SongChannelState> > >::~unordered_map()
PUBLIC 32e44 0 gd::map<std::__ndk1::pair<int, int>, SFXTriggerInstance>::~map()
PUBLIC 32e60 0 geode::stl::unordered_map<int, std::__ndk1::vector<int, std::__ndk1::allocator<int> >, geode::stl::hash<int>, geode::stl::equal_to<int>, std::__ndk1::allocator<std::__ndk1::pair<int const, std::__ndk1::vector<int, std::__ndk1::allocator<int> > > > >::~unordered_map()
PUBLIC 32ef0 0 gd::vector<EnterEffectInstance>::~vector()
PUBLIC 32f88 0 geode::stl::unordered_map<int, std::__ndk1::vector<EnterEffectInstance, std::__ndk1::allocator<EnterEffectInstance> >, geode::stl::hash<int>, geode::stl::equal_to<int>, std::__ndk1::allocator<std::__ndk1::pair<int const, std::__ndk1::vector<EnterEffectInstance, std::__ndk1::allocator<EnterEffectInstance> > > > >::~unordered_map()
PUBLIC 32fc4 0 gd::map<std::__ndk1::pair<GJGameEvent, int>, int>::~map()
PUBLIC 32fe0 0 gd::map<std::__ndk1::pair<GJGameEvent, int>, gd::vector<EventTriggerInstance> >::~map()
PUBLIC 32ffc 0 geode::stl::unordered_map<int, EnhancedGameObject*, geode::stl::hash<int>, geode::stl::equal_to<int>, std::__ndk1::allocator<std::__ndk1::pair<int const, EnhancedGameObject*> > >::~unordered_map()
PUBLIC 33074 0 geode::stl::unordered_map<int, GameObjectPhysics, geode::stl::hash<int>, geode::stl::equal_to<int>, std::__ndk1::allocator<std::__ndk1::pair<int const, GameObjectPhysics> > >::~unordered_map()
PUBLIC 330ec 0 geode::stl::unordered_map<int, GJValueTween, geode::stl::hash<int>, geode::stl::equal_to<int>, std::__ndk1::allocator<std::__ndk1::pair<int const, GJValueTween> > >::~unordered_map()
PUBLIC 33164 0 geode::stl::unordered_map<int, bool, geode::stl::hash<int>, geode::stl::equal_to<int>, std::__ndk1::allocator<std::__ndk1::pair<int const, bool> > >::~unordered_map()
PUBLIC 331dc 0 gd::map<std::__ndk1::pair<GJGameEvent, int>, gd::vector<EventTriggerInstance> >::map(std::__ndk1::map<std::__ndk1::pair<GJGameEvent, int>, gd::vector<EventTriggerInstance>, std::__ndk1::less<std::__ndk1::pair<GJGameEvent, int> >, std::__ndk1::allocator<std::__ndk1::pair<std::__ndk1::pair<GJGameEvent, int> const, gd::vector<EventTriggerInstance> > > >)
PUBLIC 333a8 0 gd::map<std::__ndk1::pair<GJGameEvent, int>, gd::vector<EventTriggerInstance> >::insert_pair(std::__ndk1::pair<std::__ndk1::pair<GJGameEvent, int>, gd::vector<EventTriggerInstance> > const&)
PUBLIC 33660 0 std::__ndk1::pair<std::__ndk1::pair<GJGameEvent, int>, gd::vector<EventTriggerInstance> >::~pair()
PUBLIC 336e0 0 std::__ndk1::pair<std::__ndk1::pair<GJGameEvent, int> const, gd::vector<EventTriggerInstance> >::~pair()
PUBLIC 33760 0 gd::vector<EventTriggerInstance>::vector(gd::vector<EventTriggerInstance> const&)
PUBLIC 33900 0 geode::stl::_rb_insert_rebalance(bool, geode::stl::_rb_tree_base*, geode::stl::_rb_tree_base*, geode::stl::_rb_tree_base&)
PUBLIC 33bb8 0 gd::vector<EventTriggerInstance>::operator=(gd::vector<EventTriggerInstance> const&)
PUBLIC 33d74 0 gd::vector<EventTriggerInstance>::~vector()
PUBLIC 33df4 0 std::__ndk1::__tree<std::__ndk1::__value_type<std::__ndk1::pair<GJGameEvent, int>, gd::vector<EventTriggerInstance> >, std::__ndk1::__map_value_compare<std::__ndk1::pair<GJGameEvent, int>, std::__ndk1::__value_type<std::__ndk1::pair<GJGameEvent, int>, gd::vector<EventTriggerInstance> >, std::__ndk1::less<std::__ndk1::pair<GJGameEvent, int> >, true>, std::__ndk1::allocator<std::__ndk1::__value_type<std::__ndk1::pair<GJGameEvent, int>, gd::vector<EventTriggerInstance> > > >::destroy(std::__ndk1::__tree_node<std::__ndk1::__value_type<std::__ndk1::pair<GJGameEvent, int>, gd::vector<EventTriggerInstance> >, void*>*)
PUBLIC 33e8c 0 gd::map<std::__ndk1::pair<int, int>, SFXTriggerInstance>::erase(geode::stl::_rb_tree_node<std::__ndk1::pair<std::__ndk1::pair<int, int>, SFXTriggerInstance> >*)
PUBLIC 33ee0 0 gd::map<int, EnterEffectAnimValue>::erase(geode::stl::_rb_tree_node<std::__ndk1::pair<int, EnterEffectAnimValue> >*)
PUBLIC 33f34 0 geode::stl::_Hashtable<int, std::__ndk1::pair<int const, std::__ndk1::vector<EnterEffectInstance, std::__ndk1::allocator<EnterEffectInstance> > >, std::__ndk1::allocator<std::__ndk1::pair<int const, std::__ndk1::vector<EnterEffectInstance, std::__ndk1::allocator<EnterEffectInstance> > > >, geode::stl::__detail::_Select1st, geode::stl::equal_to<int>, geode::stl::hash<int>, geode::stl::__detail::_Mod_range_hashing, geode::stl::__detail::_Default_ranged_hash, geode::stl::__detail::_Prime_rehash_policy, geode::stl::__detail::_Hashtable_traits<false, false, true> >::clear()
PUBLIC 33fdc 0 gd::map<std::__ndk1::pair<GJGameEvent, int>, int>::erase(geode::stl::_rb_tree_node<std::__ndk1::pair<std::__ndk1::pair<GJGameEvent, int>, int> >*)
PUBLIC 34030 0 gd::map<std::__ndk1::pair<GJGameEvent, int>, gd::vector<EventTriggerInstance> >::erase(geode::stl::_rb_tree_node<std::__ndk1::pair<std::__ndk1::pair<GJGameEvent, int>, gd::vector<EventTriggerInstance> > >*)
PUBLIC 340d8 0 gd::map<std::__ndk1::pair<int, int>, int>::erase(geode::stl::_rb_tree_node<std::__ndk1::pair<std::__ndk1::pair<int, int>, int> >*)
PUBLIC 3412c 0 geode::modifier::FieldIntermediate<MyPlayLayer, PlayLayer>::self()
PUBLIC 3431c 0 geode::modifier::FieldIntermediate<MyPlayLayer, PlayLayer>::fieldDestructor(void*)
PUBLIC 34320 0 std::__ndk1::vector<int, std::__ndk1::allocator<int> >::__throw_length_error[abi:ne180000]() const
PUBLIC 34334 0 geode::addresser::Addresser::addressOfVirtual<void, PlayLayer, bool>(void (PlayLayer::*)(bool))
PUBLIC 343fc 0 std::__ndk1::vector<int, std::__ndk1::allocator<int> >::vector(std::__ndk1::vector<int, std::__ndk1::allocator<int> > const&)
PUBLIC 34480 0 __cxx_global_var_init
PUBLIC 34ab4 0 geode::modifier::ModifyBase<geode::modifier::ModifyDerive<MyPlayerObject, PlayerObject> >::~ModifyBase()
PUBLIC 34ad0 0 geode::modifier::ModifyDerive<MyPlayerObject, PlayerObject>::apply()
PUBLIC 34e58 0 geode::modifier::ModifyBase<geode::modifier::ModifyDerive<MyPlayerObject, PlayerObject> >::apply()
PUBLIC 34e5c 0 geode::modifier::AsStaticFunction_playerDestroyed<MyPlayerObject, void (MyPlayerObject::*)(bool)>::Impl<void (MyPlayerObject::*)(bool)>::function(MyPlayerObject*, bool)
PUBLIC 35034 0 Utils::getBool(std::__ndk1::basic_string_view<char, std::__ndk1::char_traits<char> >)
PUBLIC 35098 0 Utils::showEclipseMenuAlert(std::__ndk1::basic_string<char, std::__ndk1::char_traits<char>, std::__ndk1::allocator<char> >)
PUBLIC 351d8 0 geode::Mod::getSettingValue<bool>(std::__ndk1::basic_string_view<char, std::__ndk1::char_traits<char> >) const
PUBLIC 3530c 0 std::__ndk1::shared_ptr<geode::BoolSettingV3>::~shared_ptr[abi:ne180000]()
PUBLIC 3535c 0 geode::Mod::getSettingValue<std::__ndk1::basic_string<char, std::__ndk1::char_traits<char>, std::__ndk1::allocator<char> > >(std::__ndk1::basic_string_view<char, std::__ndk1::char_traits<char> >) const
PUBLIC 354e4 0 std::__ndk1::shared_ptr<geode::StringSettingV3>::~shared_ptr[abi:ne180000]()
PUBLIC 35534 0 geodeExecFunction6<(anonymous namespace)::ExecFuncUnique6>(geode::ModStateEvent*)
PUBLIC 35a60 0 geode::EventListener<geode::SettingChangedFilterV3>::EventListener(std::__ndk1::function<void (std::__ndk1::shared_ptr<geode::SettingV3>)>, geode::SettingChangedFilterV3)
PUBLIC 35b58 0 geode::SettingChangedFilterV3::~SettingChangedFilterV3()
PUBLIC 35ba8 0 std::__ndk1::__function::__func<geode::listenForSettingChangesV3<bool, geodeExecFunction6<(anonymous namespace)::ExecFuncUnique6>(geode::ModStateEvent*)::{lambda(bool)#1}>(std::__ndk1::basic_string_view<char, std::__ndk1::char_traits<char> >, geodeExecFunction6<(anonymous namespace)::ExecFuncUnique6>(geode::ModStateEvent*)::{lambda(bool)#1}&&, geode::Mod*)::{lambda(std::__ndk1::shared_ptr<geode::SettingV3>)#1}, std::__ndk1::allocator<geode::listenForSettingChangesV3<bool, geodeExecFunction6<(anonymous namespace)::ExecFuncUnique6>(geode::ModStateEvent*)::{lambda(bool)#1}>(std::__ndk1::basic_string_view<char, std::__ndk1::char_traits<char> >, geodeExecFunction6<(anonymous namespace)::ExecFuncUnique6>(geode::ModStateEvent*)::{lambda(bool)#1}&&, geode::Mod*)::{lambda(std::__ndk1::shared_ptr<geode::SettingV3>)#1}>, void (std::__ndk1::shared_ptr<geode::SettingV3>)>::~__func()
PUBLIC 35bac 0 std::__ndk1::__function::__func<geode::listenForSettingChangesV3<bool, geodeExecFunction6<(anonymous namespace)::ExecFuncUnique6>(geode::ModStateEvent*)::{lambda(bool)#1}>(std::__ndk1::basic_string_view<char, std::__ndk1::char_traits<char> >, geodeExecFunction6<(anonymous namespace)::ExecFuncUnique6>(geode::ModStateEvent*)::{lambda(bool)#1}&&, geode::Mod*)::{lambda(std::__ndk1::shared_ptr<geode::SettingV3>)#1}, std::__ndk1::allocator<geode::listenForSettingChangesV3<bool, geodeExecFunction6<(anonymous namespace)::ExecFuncUnique6>(geode::ModStateEvent*)::{lambda(bool)#1}>(std::__ndk1::basic_string_view<char, std::__ndk1::char_traits<char> >, geodeExecFunction6<(anonymous namespace)::ExecFuncUnique6>(geode::ModStateEvent*)::{lambda(bool)#1}&&, geode::Mod*)::{lambda(std::__ndk1::shared_ptr<geode::SettingV3>)#1}>, void (std::__ndk1::shared_ptr<geode::SettingV3>)>::__clone() const
PUBLIC 35be4 0 std::__ndk1::__function::__func<geode::listenForSettingChangesV3<bool, geodeExecFunction6<(anonymous namespace)::ExecFuncUnique6>(geode::ModStateEvent*)::{lambda(bool)#1}>(std::__ndk1::basic_string_view<char, std::__ndk1::char_traits<char> >, geodeExecFunction6<(anonymous namespace)::ExecFuncUnique6>(geode::ModStateEvent*)::{lambda(bool)#1}&&, geode::Mod*)::{lambda(std::__ndk1::shared_ptr<geode::SettingV3>)#1}, std::__ndk1::allocator<geode::listenForSettingChangesV3<bool, geodeExecFunction6<(anonymous namespace)::ExecFuncUnique6>(geode::ModStateEvent*)::{lambda(bool)#1}>(std::__ndk1::basic_string_view<char, std::__ndk1::char_traits<char> >, geodeExecFunction6<(anonymous namespace)::ExecFuncUnique6>(geode::ModStateEvent*)::{lambda(bool)#1}&&, geode::Mod*)::{lambda(std::__ndk1::shared_ptr<geode::SettingV3>)#1}>, void (std::__ndk1::shared_ptr<geode::SettingV3>)>::__clone(std::__ndk1::__function::__base<void (std::__ndk1::shared_ptr<geode::SettingV3>)>*) const
PUBLIC 35bfc 0 std::__ndk1::__function::__func<geode::listenForSettingChangesV3<bool, geodeExecFunction6<(anonymous namespace)::ExecFuncUnique6>(geode::ModStateEvent*)::{lambda(bool)#1}>(std::__ndk1::basic_string_view<char, std::__ndk1::char_traits<char> >, geodeExecFunction6<(anonymous namespace)::ExecFuncUnique6>(geode::ModStateEvent*)::{lambda(bool)#1}&&, geode::Mod*)::{lambda(std::__ndk1::shared_ptr<geode::SettingV3>)#1}, std::__ndk1::allocator<geode::listenForSettingChangesV3<bool, geodeExecFunction6<(anonymous namespace)::ExecFuncUnique6>(geode::ModStateEvent*)::{lambda(bool)#1}>(std::__ndk1::basic_string_view<char, std::__ndk1::char_traits<char> >, geodeExecFunction6<(anonymous namespace)::ExecFuncUnique6>(geode::ModStateEvent*)::{lambda(bool)#1}&&, geode::Mod*)::{lambda(std::__ndk1::shared_ptr<geode::SettingV3>)#1}>, void (std::__ndk1::shared_ptr<geode::SettingV3>)>::destroy()
PUBLIC 35c00 0 std::__ndk1::__function::__func<geode::listenForSettingChangesV3<bool, geodeExecFunction6<(anonymous namespace)::ExecFuncUnique6>(geode::ModStateEvent*)::{lambda(bool)#1}>(std::__ndk1::basic_string_view<char, std::__ndk1::char_traits<char> >, geodeExecFunction6<(anonymous namespace)::ExecFuncUnique6>(geode::ModStateEvent*)::{lambda(bool)#1}&&, geode::Mod*)::{lambda(std::__ndk1::shared_ptr<geode::SettingV3>)#1}, std::__ndk1::allocator<geode::listenForSettingChangesV3<bool, geodeExecFunction6<(anonymous namespace)::ExecFuncUnique6>(geode::ModStateEvent*)::{lambda(bool)#1}>(std::__ndk1::basic_string_view<char, std::__ndk1::char_traits<char> >, geodeExecFunction6<(anonymous namespace)::ExecFuncUnique6>(geode::ModStateEvent*)::{lambda(bool)#1}&&, geode::Mod*)::{lambda(std::__ndk1::shared_ptr<geode::SettingV3>)#1}>, void (std::__ndk1::shared_ptr<geode::SettingV3>)>::destroy_deallocate()
PUBLIC 35c04 0 std::__ndk1::__function::__func<geode::listenForSettingChangesV3<bool, geodeExecFunction6<(anonymous namespace)::ExecFuncUnique6>(geode::ModStateEvent*)::{lambda(bool)#1}>(std::__ndk1::basic_string_view<char, std::__ndk1::char_traits<char> >, geodeExecFunction6<(anonymous namespace)::ExecFuncUnique6>(geode::ModStateEvent*)::{lambda(bool)#1}&&, geode::Mod*)::{lambda(std::__ndk1::shared_ptr<geode::SettingV3>)#1}, std::__ndk1::allocator<geode::listenForSettingChangesV3<bool, geodeExecFunction6<(anonymous namespace)::ExecFuncUnique6>(geode::ModStateEvent*)::{lambda(bool)#1}>(std::__ndk1::basic_string_view<char, std::__ndk1::char_traits<char> >, geodeExecFunction6<(anonymous namespace)::ExecFuncUnique6>(geode::ModStateEvent*)::{lambda(bool)#1}&&, geode::Mod*)::{lambda(std::__ndk1::shared_ptr<geode::SettingV3>)#1}>, void (std::__ndk1::shared_ptr<geode::SettingV3>)>::operator()(std::__ndk1::shared_ptr<geode::SettingV3>&&)
PUBLIC 35df0 0 std::__ndk1::__function::__func<geode::listenForSettingChangesV3<bool, geodeExecFunction6<(anonymous namespace)::ExecFuncUnique6>(geode::ModStateEvent*)::{lambda(bool)#1}>(std::__ndk1::basic_string_view<char, std::__ndk1::char_traits<char> >, geodeExecFunction6<(anonymous namespace)::ExecFuncUnique6>(geode::ModStateEvent*)::{lambda(bool)#1}&&, geode::Mod*)::{lambda(std::__ndk1::shared_ptr<geode::SettingV3>)#1}, std::__ndk1::allocator<geode::listenForSettingChangesV3<bool, geodeExecFunction6<(anonymous namespace)::ExecFuncUnique6>(geode::ModStateEvent*)::{lambda(bool)#1}>(std::__ndk1::basic_string_view<char, std::__ndk1::char_traits<char> >, geodeExecFunction6<(anonymous namespace)::ExecFuncUnique6>(geode::ModStateEvent*)::{lambda(bool)#1}&&, geode::Mod*)::{lambda(std::__ndk1::shared_ptr<geode::SettingV3>)#1}>, void (std::__ndk1::shared_ptr<geode::SettingV3>)>::target(std::type_info const&) const
PUBLIC 35e0c 0 std::__ndk1::__function::__func<geode::listenForSettingChangesV3<bool, geodeExecFunction6<(anonymous namespace)::ExecFuncUnique6>(geode::ModStateEvent*)::{lambda(bool)#1}>(std::__ndk1::basic_string_view<char, std::__ndk1::char_traits<char> >, geodeExecFunction6<(anonymous namespace)::ExecFuncUnique6>(geode::ModStateEvent*)::{lambda(bool)#1}&&, geode::Mod*)::{lambda(std::__ndk1::shared_ptr<geode::SettingV3>)#1}, std::__ndk1::allocator<geode::listenForSettingChangesV3<bool, geodeExecFunction6<(anonymous namespace)::ExecFuncUnique6>(geode::ModStateEvent*)::{lambda(bool)#1}>(std::__ndk1::basic_string_view<char, std::__ndk1::char_traits<char> >, geodeExecFunction6<(anonymous namespace)::ExecFuncUnique6>(geode::ModStateEvent*)::{lambda(bool)#1}&&, geode::Mod*)::{lambda(std::__ndk1::shared_ptr<geode::SettingV3>)#1}>, void (std::__ndk1::shared_ptr<geode::SettingV3>)>::target_type() const
PUBLIC 35e18 0 std::__ndk1::shared_ptr<geode::SettingV3>::~shared_ptr[abi:ne180000]()
PUBLIC 35e68 0 geode::EventListener<geode::SettingChangedFilterV3>::getPool() const
PUBLIC 35e6c 0 geode::EventListener<geode::SettingChangedFilterV3>::handle(geode::Event*)
PUBLIC 35fe0 0 geode::EventListener<geode::SettingChangedFilterV3>::~EventListener()
PUBLIC 3607c 0 geode::EventListener<geode::SettingChangedFilterV3>::~EventListener()
PUBLIC 36120 0 std::__ndk1::__function::__func<geode::listenForSettingChangesV3<bool, geodeExecFunction6<(anonymous namespace)::ExecFuncUnique6>(geode::ModStateEvent*)::{lambda(bool)#2}>(std::__ndk1::basic_string_view<char, std::__ndk1::char_traits<char> >, geodeExecFunction6<(anonymous namespace)::ExecFuncUnique6>(geode::ModStateEvent*)::{lambda(bool)#2}&&, geode::Mod*)::{lambda(std::__ndk1::shared_ptr<geode::SettingV3>)#1}, std::__ndk1::allocator<geode::listenForSettingChangesV3<bool, geodeExecFunction6<(anonymous namespace)::ExecFuncUnique6>(geode::ModStateEvent*)::{lambda(bool)#2}>(std::__ndk1::basic_string_view<char, std::__ndk1::char_traits<char> >, geodeExecFunction6<(anonymous namespace)::ExecFuncUnique6>(geode::ModStateEvent*)::{lambda(bool)#2}&&, geode::Mod*)::{lambda(std::__ndk1::shared_ptr<geode::SettingV3>)#1}>, void (std::__ndk1::shared_ptr<geode::SettingV3>)>::~__func()
PUBLIC 36124 0 std::__ndk1::__function::__func<geode::listenForSettingChangesV3<bool, geodeExecFunction6<(anonymous namespace)::ExecFuncUnique6>(geode::ModStateEvent*)::{lambda(bool)#2}>(std::__ndk1::basic_string_view<char, std::__ndk1::char_traits<char> >, geodeExecFunction6<(anonymous namespace)::ExecFuncUnique6>(geode::ModStateEvent*)::{lambda(bool)#2}&&, geode::Mod*)::{lambda(std::__ndk1::shared_ptr<geode::SettingV3>)#1}, std::__ndk1::allocator<geode::listenForSettingChangesV3<bool, geodeExecFunction6<(anonymous namespace)::ExecFuncUnique6>(geode::ModStateEvent*)::{lambda(bool)#2}>(std::__ndk1::basic_string_view<char, std::__ndk1::char_traits<char> >, geodeExecFunction6<(anonymous namespace)::ExecFuncUnique6>(geode::ModStateEvent*)::{lambda(bool)#2}&&, geode::Mod*)::{lambda(std::__ndk1::shared_ptr<geode::SettingV3>)#1}>, void (std::__ndk1::shared_ptr<geode::SettingV3>)>::__clone() const
PUBLIC 3615c 0 std::__ndk1::__function::__func<geode::listenForSettingChangesV3<bool, geodeExecFunction6<(anonymous namespace)::ExecFuncUnique6>(geode::ModStateEvent*)::{lambda(bool)#2}>(std::__ndk1::basic_string_view<char, std::__ndk1::char_traits<char> >, geodeExecFunction6<(anonymous namespace)::ExecFuncUnique6>(geode::ModStateEvent*)::{lambda(bool)#2}&&, geode::Mod*)::{lambda(std::__ndk1::shared_ptr<geode::SettingV3>)#1}, std::__ndk1::allocator<geode::listenForSettingChangesV3<bool, geodeExecFunction6<(anonymous namespace)::ExecFuncUnique6>(geode::ModStateEvent*)::{lambda(bool)#2}>(std::__ndk1::basic_string_view<char, std::__ndk1::char_traits<char> >, geodeExecFunction6<(anonymous namespace)::ExecFuncUnique6>(geode::ModStateEvent*)::{lambda(bool)#2}&&, geode::Mod*)::{lambda(std::__ndk1::shared_ptr<geode::SettingV3>)#1}>, void (std::__ndk1::shared_ptr<geode::SettingV3>)>::__clone(std::__ndk1::__function::__base<void (std::__ndk1::shared_ptr<geode::SettingV3>)>*) const
PUBLIC 36174 0 std::__ndk1::__function::__func<geode::listenForSettingChangesV3<bool, geodeExecFunction6<(anonymous namespace)::ExecFuncUnique6>(geode::ModStateEvent*)::{lambda(bool)#2}>(std::__ndk1::basic_string_view<char, std::__ndk1::char_traits<char> >, geodeExecFunction6<(anonymous namespace)::ExecFuncUnique6>(geode::ModStateEvent*)::{lambda(bool)#2}&&, geode::Mod*)::{lambda(std::__ndk1::shared_ptr<geode::SettingV3>)#1}, std::__ndk1::allocator<geode::listenForSettingChangesV3<bool, geodeExecFunction6<(anonymous namespace)::ExecFuncUnique6>(geode::ModStateEvent*)::{lambda(bool)#2}>(std::__ndk1::basic_string_view<char, std::__ndk1::char_traits<char> >, geodeExecFunction6<(anonymous namespace)::ExecFuncUnique6>(geode::ModStateEvent*)::{lambda(bool)#2}&&, geode::Mod*)::{lambda(std::__ndk1::shared_ptr<geode::SettingV3>)#1}>, void (std::__ndk1::shared_ptr<geode::SettingV3>)>::destroy()
PUBLIC 36178 0 std::__ndk1::__function::__func<geode::listenForSettingChangesV3<bool, geodeExecFunction6<(anonymous namespace)::ExecFuncUnique6>(geode::ModStateEvent*)::{lambda(bool)#2}>(std::__ndk1::basic_string_view<char, std::__ndk1::char_traits<char> >, geodeExecFunction6<(anonymous namespace)::ExecFuncUnique6>(geode::ModStateEvent*)::{lambda(bool)#2}&&, geode::Mod*)::{lambda(std::__ndk1::shared_ptr<geode::SettingV3>)#1}, std::__ndk1::allocator<geode::listenForSettingChangesV3<bool, geodeExecFunction6<(anonymous namespace)::ExecFuncUnique6>(geode::ModStateEvent*)::{lambda(bool)#2}>(std::__ndk1::basic_string_view<char, std::__ndk1::char_traits<char> >, geodeExecFunction6<(anonymous namespace)::ExecFuncUnique6>(geode::ModStateEvent*)::{lambda(bool)#2}&&, geode::Mod*)::{lambda(std::__ndk1::shared_ptr<geode::SettingV3>)#1}>, void (std::__ndk1::shared_ptr<geode::SettingV3>)>::destroy_deallocate()
PUBLIC 3617c 0 std::__ndk1::__function::__func<geode::listenForSettingChangesV3<bool, geodeExecFunction6<(anonymous namespace)::ExecFuncUnique6>(geode::ModStateEvent*)::{lambda(bool)#2}>(std::__ndk1::basic_string_view<char, std::__ndk1::char_traits<char> >, geodeExecFunction6<(anonymous namespace)::ExecFuncUnique6>(geode::ModStateEvent*)::{lambda(bool)#2}&&, geode::Mod*)::{lambda(std::__ndk1::shared_ptr<geode::SettingV3>)#1}, std::__ndk1::allocator<geode::listenForSettingChangesV3<bool, geodeExecFunction6<(anonymous namespace)::ExecFuncUnique6>(geode::ModStateEvent*)::{lambda(bool)#2}>(std::__ndk1::basic_string_view<char, std::__ndk1::char_traits<char> >, geodeExecFunction6<(anonymous namespace)::ExecFuncUnique6>(geode::ModStateEvent*)::{lambda(bool)#2}&&, geode::Mod*)::{lambda(std::__ndk1::shared_ptr<geode::SettingV3>)#1}>, void (std::__ndk1::shared_ptr<geode::SettingV3>)>::operator()(std::__ndk1::shared_ptr<geode::SettingV3>&&)
PUBLIC 3635c 0 std::__ndk1::__function::__func<geode::listenForSettingChangesV3<bool, geodeExecFunction6<(anonymous namespace)::ExecFuncUnique6>(geode::ModStateEvent*)::{lambda(bool)#2}>(std::__ndk1::basic_string_view<char, std::__ndk1::char_traits<char> >, geodeExecFunction6<(anonymous namespace)::ExecFuncUnique6>(geode::ModStateEvent*)::{lambda(bool)#2}&&, geode::Mod*)::{lambda(std::__ndk1::shared_ptr<geode::SettingV3>)#1}, std::__ndk1::allocator<geode::listenForSettingChangesV3<bool, geodeExecFunction6<(anonymous namespace)::ExecFuncUnique6>(geode::ModStateEvent*)::{lambda(bool)#2}>(std::__ndk1::basic_string_view<char, std::__ndk1::char_traits<char> >, geodeExecFunction6<(anonymous namespace)::ExecFuncUnique6>(geode::ModStateEvent*)::{lambda(bool)#2}&&, geode::Mod*)::{lambda(std::__ndk1::shared_ptr<geode::SettingV3>)#1}>, void (std::__ndk1::shared_ptr<geode::SettingV3>)>::target(std::type_info const&) const
PUBLIC 36378 0 std::__ndk1::__function::__func<geode::listenForSettingChangesV3<bool, geodeExecFunction6<(anonymous namespace)::ExecFuncUnique6>(geode::ModStateEvent*)::{lambda(bool)#2}>(std::__ndk1::basic_string_view<char, std::__ndk1::char_traits<char> >, geodeExecFunction6<(anonymous namespace)::ExecFuncUnique6>(geode::ModStateEvent*)::{lambda(bool)#2}&&, geode::Mod*)::{lambda(std::__ndk1::shared_ptr<geode::SettingV3>)#1}, std::__ndk1::allocator<geode::listenForSettingChangesV3<bool, geodeExecFunction6<(anonymous namespace)::ExecFuncUnique6>(geode::ModStateEvent*)::{lambda(bool)#2}>(std::__ndk1::basic_string_view<char, std::__ndk1::char_traits<char> >, geodeExecFunction6<(anonymous namespace)::ExecFuncUnique6>(geode::ModStateEvent*)::{lambda(bool)#2}&&, geode::Mod*)::{lambda(std::__ndk1::shared_ptr<geode::SettingV3>)#1}>, void (std::__ndk1::shared_ptr<geode::SettingV3>)>::target_type() const
PUBLIC 36384 0 std::__ndk1::__function::__func<geode::listenForSettingChangesV3<bool, geodeExecFunction6<(anonymous namespace)::ExecFuncUnique6>(geode::ModStateEvent*)::{lambda(bool)#3}>(std::__ndk1::basic_string_view<char, std::__ndk1::char_traits<char> >, geodeExecFunction6<(anonymous namespace)::ExecFuncUnique6>(geode::ModStateEvent*)::{lambda(bool)#3}&&, geode::Mod*)::{lambda(std::__ndk1::shared_ptr<geode::SettingV3>)#1}, std::__ndk1::allocator<geode::listenForSettingChangesV3<bool, geodeExecFunction6<(anonymous namespace)::ExecFuncUnique6>(geode::ModStateEvent*)::{lambda(bool)#3}>(std::__ndk1::basic_string_view<char, std::__ndk1::char_traits<char> >, geodeExecFunction6<(anonymous namespace)::ExecFuncUnique6>(geode::ModStateEvent*)::{lambda(bool)#3}&&, geode::Mod*)::{lambda(std::__ndk1::shared_ptr<geode::SettingV3>)#1}>, void (std::__ndk1::shared_ptr<geode::SettingV3>)>::~__func()
PUBLIC 36388 0 std::__ndk1::__function::__func<geode::listenForSettingChangesV3<bool, geodeExecFunction6<(anonymous namespace)::ExecFuncUnique6>(geode::ModStateEvent*)::{lambda(bool)#3}>(std::__ndk1::basic_string_view<char, std::__ndk1::char_traits<char> >, geodeExecFunction6<(anonymous namespace)::ExecFuncUnique6>(geode::ModStateEvent*)::{lambda(bool)#3}&&, geode::Mod*)::{lambda(std::__ndk1::shared_ptr<geode::SettingV3>)#1}, std::__ndk1::allocator<geode::listenForSettingChangesV3<bool, geodeExecFunction6<(anonymous namespace)::ExecFuncUnique6>(geode::ModStateEvent*)::{lambda(bool)#3}>(std::__ndk1::basic_string_view<char, std::__ndk1::char_traits<char> >, geodeExecFunction6<(anonymous namespace)::ExecFuncUnique6>(geode::ModStateEvent*)::{lambda(bool)#3}&&, geode::Mod*)::{lambda(std::__ndk1::shared_ptr<geode::SettingV3>)#1}>, void (std::__ndk1::shared_ptr<geode::SettingV3>)>::__clone() const
PUBLIC 363c0 0 std::__ndk1::__function::__func<geode::listenForSettingChangesV3<bool, geodeExecFunction6<(anonymous namespace)::ExecFuncUnique6>(geode::ModStateEvent*)::{lambda(bool)#3}>(std::__ndk1::basic_string_view<char, std::__ndk1::char_traits<char> >, geodeExecFunction6<(anonymous namespace)::ExecFuncUnique6>(geode::ModStateEvent*)::{lambda(bool)#3}&&, geode::Mod*)::{lambda(std::__ndk1::shared_ptr<geode::SettingV3>)#1}, std::__ndk1::allocator<geode::listenForSettingChangesV3<bool, geodeExecFunction6<(anonymous namespace)::ExecFuncUnique6>(geode::ModStateEvent*)::{lambda(bool)#3}>(std::__ndk1::basic_string_view<char, std::__ndk1::char_traits<char> >, geodeExecFunction6<(anonymous namespace)::ExecFuncUnique6>(geode::ModStateEvent*)::{lambda(bool)#3}&&, geode::Mod*)::{lambda(std::__ndk1::shared_ptr<geode::SettingV3>)#1}>, void (std::__ndk1::shared_ptr<geode::SettingV3>)>::__clone(std::__ndk1::__function::__base<void (std::__ndk1::shared_ptr<geode::SettingV3>)>*) const
PUBLIC 363d8 0 std::__ndk1::__function::__func<geode::listenForSettingChangesV3<bool, geodeExecFunction6<(anonymous namespace)::ExecFuncUnique6>(geode::ModStateEvent*)::{lambda(bool)#3}>(std::__ndk1::basic_string_view<char, std::__ndk1::char_traits<char> >, geodeExecFunction6<(anonymous namespace)::ExecFuncUnique6>(geode::ModStateEvent*)::{lambda(bool)#3}&&, geode::Mod*)::{lambda(std::__ndk1::shared_ptr<geode::SettingV3>)#1}, std::__ndk1::allocator<geode::listenForSettingChangesV3<bool, geodeExecFunction6<(anonymous namespace)::ExecFuncUnique6>(geode::ModStateEvent*)::{lambda(bool)#3}>(std::__ndk1::basic_string_view<char, std::__ndk1::char_traits<char> >, geodeExecFunction6<(anonymous namespace)::ExecFuncUnique6>(geode::ModStateEvent*)::{lambda(bool)#3}&&, geode::Mod*)::{lambda(std::__ndk1::shared_ptr<geode::SettingV3>)#1}>, void (std::__ndk1::shared_ptr<geode::SettingV3>)>::destroy()
PUBLIC 363dc 0 std::__ndk1::__function::__func<geode::listenForSettingChangesV3<bool, geodeExecFunction6<(anonymous namespace)::ExecFuncUnique6>(geode::ModStateEvent*)::{lambda(bool)#3}>(std::__ndk1::basic_string_view<char, std::__ndk1::char_traits<char> >, geodeExecFunction6<(anonymous namespace)::ExecFuncUnique6>(geode::ModStateEvent*)::{lambda(bool)#3}&&, geode::Mod*)::{lambda(std::__ndk1::shared_ptr<geode::SettingV3>)#1}, std::__ndk1::allocator<geode::listenForSettingChangesV3<bool, geodeExecFunction6<(anonymous namespace)::ExecFuncUnique6>(geode::ModStateEvent*)::{lambda(bool)#3}>(std::__ndk1::basic_string_view<char, std::__ndk1::char_traits<char> >, geodeExecFunction6<(anonymous namespace)::ExecFuncUnique6>(geode::ModStateEvent*)::{lambda(bool)#3}&&, geode::Mod*)::{lambda(std::__ndk1::shared_ptr<geode::SettingV3>)#1}>, void (std::__ndk1::shared_ptr<geode::SettingV3>)>::destroy_deallocate()
PUBLIC 363e0 0 std::__ndk1::__function::__func<geode::listenForSettingChangesV3<bool, geodeExecFunction6<(anonymous namespace)::ExecFuncUnique6>(geode::ModStateEvent*)::{lambda(bool)#3}>(std::__ndk1::basic_string_view<char, std::__ndk1::char_traits<char> >, geodeExecFunction6<(anonymous namespace)::ExecFuncUnique6>(geode::ModStateEvent*)::{lambda(bool)#3}&&, geode::Mod*)::{lambda(std::__ndk1::shared_ptr<geode::SettingV3>)#1}, std::__ndk1::allocator<geode::listenForSettingChangesV3<bool, geodeExecFunction6<(anonymous namespace)::ExecFuncUnique6>(geode::ModStateEvent*)::{lambda(bool)#3}>(std::__ndk1::basic_string_view<char, std::__ndk1::char_traits<char> >, geodeExecFunction6<(anonymous namespace)::ExecFuncUnique6>(geode::ModStateEvent*)::{lambda(bool)#3}&&, geode::Mod*)::{lambda(std::__ndk1::shared_ptr<geode::SettingV3>)#1}>, void (std::__ndk1::shared_ptr<geode::SettingV3>)>::operator()(std::__ndk1::shared_ptr<geode::SettingV3>&&)
PUBLIC 365c8 0 std::__ndk1::__function::__func<geode::listenForSettingChangesV3<bool, geodeExecFunction6<(anonymous namespace)::ExecFuncUnique6>(geode::ModStateEvent*)::{lambda(bool)#3}>(std::__ndk1::basic_string_view<char, std::__ndk1::char_traits<char> >, geodeExecFunction6<(anonymous namespace)::ExecFuncUnique6>(geode::ModStateEvent*)::{lambda(bool)#3}&&, geode::Mod*)::{lambda(std::__ndk1::shared_ptr<geode::SettingV3>)#1}, std::__ndk1::allocator<geode::listenForSettingChangesV3<bool, geodeExecFunction6<(anonymous namespace)::ExecFuncUnique6>(geode::ModStateEvent*)::{lambda(bool)#3}>(std::__ndk1::basic_string_view<char, std::__ndk1::char_traits<char> >, geodeExecFunction6<(anonymous namespace)::ExecFuncUnique6>(geode::ModStateEvent*)::{lambda(bool)#3}&&, geode::Mod*)::{lambda(std::__ndk1::shared_ptr<geode::SettingV3>)#1}>, void (std::__ndk1::shared_ptr<geode::SettingV3>)>::target(std::type_info const&) const
PUBLIC 365e4 0 std::__ndk1::__function::__func<geode::listenForSettingChangesV3<bool, geodeExecFunction6<(anonymous namespace)::ExecFuncUnique6>(geode::ModStateEvent*)::{lambda(bool)#3}>(std::__ndk1::basic_string_view<char, std::__ndk1::char_traits<char> >, geodeExecFunction6<(anonymous namespace)::ExecFuncUnique6>(geode::ModStateEvent*)::{lambda(bool)#3}&&, geode::Mod*)::{lambda(std::__ndk1::shared_ptr<geode::SettingV3>)#1}, std::__ndk1::allocator<geode::listenForSettingChangesV3<bool, geodeExecFunction6<(anonymous namespace)::ExecFuncUnique6>(geode::ModStateEvent*)::{lambda(bool)#3}>(std::__ndk1::basic_string_view<char, std::__ndk1::char_traits<char> >, geodeExecFunction6<(anonymous namespace)::ExecFuncUnique6>(geode::ModStateEvent*)::{lambda(bool)#3}&&, geode::Mod*)::{lambda(std::__ndk1::shared_ptr<geode::SettingV3>)#1}>, void (std::__ndk1::shared_ptr<geode::SettingV3>)>::target_type() const
PUBLIC 365f0 0 std::__ndk1::__function::__base<void (std::__ndk1::shared_ptr<geode::SettingV3>)>::~__base()
PUBLIC 365f4 0 std::__ndk1::__function::__func<geode::listenForSettingChangesV3<bool, geodeExecFunction6<(anonymous namespace)::ExecFuncUnique6>(geode::ModStateEvent*)::{lambda(bool)#4}>(std::__ndk1::basic_string_view<char, std::__ndk1::char_traits<char> >, geodeExecFunction6<(anonymous namespace)::ExecFuncUnique6>(geode::ModStateEvent*)::{lambda(bool)#4}&&, geode::Mod*)::{lambda(std::__ndk1::shared_ptr<geode::SettingV3>)#1}, std::__ndk1::allocator<geode::listenForSettingChangesV3<bool, geodeExecFunction6<(anonymous namespace)::ExecFuncUnique6>(geode::ModStateEvent*)::{lambda(bool)#4}>(std::__ndk1::basic_string_view<char, std::__ndk1::char_traits<char> >, geodeExecFunction6<(anonymous namespace)::ExecFuncUnique6>(geode::ModStateEvent*)::{lambda(bool)#4}&&, geode::Mod*)::{lambda(std::__ndk1::shared_ptr<geode::SettingV3>)#1}>, void (std::__ndk1::shared_ptr<geode::SettingV3>)>::~__func()
PUBLIC 365f8 0 std::__ndk1::__function::__func<geode::listenForSettingChangesV3<bool, geodeExecFunction6<(anonymous namespace)::ExecFuncUnique6>(geode::ModStateEvent*)::{lambda(bool)#4}>(std::__ndk1::basic_string_view<char, std::__ndk1::char_traits<char> >, geodeExecFunction6<(anonymous namespace)::ExecFuncUnique6>(geode::ModStateEvent*)::{lambda(bool)#4}&&, geode::Mod*)::{lambda(std::__ndk1::shared_ptr<geode::SettingV3>)#1}, std::__ndk1::allocator<geode::listenForSettingChangesV3<bool, geodeExecFunction6<(anonymous namespace)::ExecFuncUnique6>(geode::ModStateEvent*)::{lambda(bool)#4}>(std::__ndk1::basic_string_view<char, std::__ndk1::char_traits<char> >, geodeExecFunction6<(anonymous namespace)::ExecFuncUnique6>(geode::ModStateEvent*)::{lambda(bool)#4}&&, geode::Mod*)::{lambda(std::__ndk1::shared_ptr<geode::SettingV3>)#1}>, void (std::__ndk1::shared_ptr<geode::SettingV3>)>::__clone() const
PUBLIC 36630 0 std::__ndk1::__function::__func<geode::listenForSettingChangesV3<bool, geodeExecFunction6<(anonymous namespace)::ExecFuncUnique6>(geode::ModStateEvent*)::{lambda(bool)#4}>(std::__ndk1::basic_string_view<char, std::__ndk1::char_traits<char> >, geodeExecFunction6<(anonymous namespace)::ExecFuncUnique6>(geode::ModStateEvent*)::{lambda(bool)#4}&&, geode::Mod*)::{lambda(std::__ndk1::shared_ptr<geode::SettingV3>)#1}, std::__ndk1::allocator<geode::listenForSettingChangesV3<bool, geodeExecFunction6<(anonymous namespace)::ExecFuncUnique6>(geode::ModStateEvent*)::{lambda(bool)#4}>(std::__ndk1::basic_string_view<char, std::__ndk1::char_traits<char> >, geodeExecFunction6<(anonymous namespace)::ExecFuncUnique6>(geode::ModStateEvent*)::{lambda(bool)#4}&&, geode::Mod*)::{lambda(std::__ndk1::shared_ptr<geode::SettingV3>)#1}>, void (std::__ndk1::shared_ptr<geode::SettingV3>)>::__clone(std::__ndk1::__function::__base<void (std::__ndk1::shared_ptr<geode::SettingV3>)>*) const
PUBLIC 36648 0 std::__ndk1::__function::__func<geode::listenForSettingChangesV3<bool, geodeExecFunction6<(anonymous namespace)::ExecFuncUnique6>(geode::ModStateEvent*)::{lambda(bool)#4}>(std::__ndk1::basic_string_view<char, std::__ndk1::char_traits<char> >, geodeExecFunction6<(anonymous namespace)::ExecFuncUnique6>(geode::ModStateEvent*)::{lambda(bool)#4}&&, geode::Mod*)::{lambda(std::__ndk1::shared_ptr<geode::SettingV3>)#1}, std::__ndk1::allocator<geode::listenForSettingChangesV3<bool, geodeExecFunction6<(anonymous namespace)::ExecFuncUnique6>(geode::ModStateEvent*)::{lambda(bool)#4}>(std::__ndk1::basic_string_view<char, std::__ndk1::char_traits<char> >, geodeExecFunction6<(anonymous namespace)::ExecFuncUnique6>(geode::ModStateEvent*)::{lambda(bool)#4}&&, geode::Mod*)::{lambda(std::__ndk1::shared_ptr<geode::SettingV3>)#1}>, void (std::__ndk1::shared_ptr<geode::SettingV3>)>::destroy()
PUBLIC 3664c 0 std::__ndk1::__function::__func<geode::listenForSettingChangesV3<bool, geodeExecFunction6<(anonymous namespace)::ExecFuncUnique6>(geode::ModStateEvent*)::{lambda(bool)#4}>(std::__ndk1::basic_string_view<char, std::__ndk1::char_traits<char> >, geodeExecFunction6<(anonymous namespace)::ExecFuncUnique6>(geode::ModStateEvent*)::{lambda(bool)#4}&&, geode::Mod*)::{lambda(std::__ndk1::shared_ptr<geode::SettingV3>)#1}, std::__ndk1::allocator<geode::listenForSettingChangesV3<bool, geodeExecFunction6<(anonymous namespace)::ExecFuncUnique6>(geode::ModStateEvent*)::{lambda(bool)#4}>(std::__ndk1::basic_string_view<char, std::__ndk1::char_traits<char> >, geodeExecFunction6<(anonymous namespace)::ExecFuncUnique6>(geode::ModStateEvent*)::{lambda(bool)#4}&&, geode::Mod*)::{lambda(std::__ndk1::shared_ptr<geode::SettingV3>)#1}>, void (std::__ndk1::shared_ptr<geode::SettingV3>)>::destroy_deallocate()
PUBLIC 36650 0 std::__ndk1::__function::__func<geode::listenForSettingChangesV3<bool, geodeExecFunction6<(anonymous namespace)::ExecFuncUnique6>(geode::ModStateEvent*)::{lambda(bool)#4}>(std::__ndk1::basic_string_view<char, std::__ndk1::char_traits<char> >, geodeExecFunction6<(anonymous namespace)::ExecFuncUnique6>(geode::ModStateEvent*)::{lambda(bool)#4}&&, geode::Mod*)::{lambda(std::__ndk1::shared_ptr<geode::SettingV3>)#1}, std::__ndk1::allocator<geode::listenForSettingChangesV3<bool, geodeExecFunction6<(anonymous namespace)::ExecFuncUnique6>(geode::ModStateEvent*)::{lambda(bool)#4}>(std::__ndk1::basic_string_view<char, std::__ndk1::char_traits<char> >, geodeExecFunction6<(anonymous namespace)::ExecFuncUnique6>(geode::ModStateEvent*)::{lambda(bool)#4}&&, geode::Mod*)::{lambda(std::__ndk1::shared_ptr<geode::SettingV3>)#1}>, void (std::__ndk1::shared_ptr<geode::SettingV3>)>::operator()(std::__ndk1::shared_ptr<geode::SettingV3>&&)
PUBLIC 3683c 0 std::__ndk1::__function::__func<geode::listenForSettingChangesV3<bool, geodeExecFunction6<(anonymous namespace)::ExecFuncUnique6>(geode::ModStateEvent*)::{lambda(bool)#4}>(std::__ndk1::basic_string_view<char, std::__ndk1::char_traits<char> >, geodeExecFunction6<(anonymous namespace)::ExecFuncUnique6>(geode::ModStateEvent*)::{lambda(bool)#4}&&, geode::Mod*)::{lambda(std::__ndk1::shared_ptr<geode::SettingV3>)#1}, std::__ndk1::allocator<geode::listenForSettingChangesV3<bool, geodeExecFunction6<(anonymous namespace)::ExecFuncUnique6>(geode::ModStateEvent*)::{lambda(bool)#4}>(std::__ndk1::basic_string_view<char, std::__ndk1::char_traits<char> >, geodeExecFunction6<(anonymous namespace)::ExecFuncUnique6>(geode::ModStateEvent*)::{lambda(bool)#4}&&, geode::Mod*)::{lambda(std::__ndk1::shared_ptr<geode::SettingV3>)#1}>, void (std::__ndk1::shared_ptr<geode::SettingV3>)>::target(std::type_info const&) const
PUBLIC 36858 0 std::__ndk1::__function::__func<geode::listenForSettingChangesV3<bool, geodeExecFunction6<(anonymous namespace)::ExecFuncUnique6>(geode::ModStateEvent*)::{lambda(bool)#4}>(std::__ndk1::basic_string_view<char, std::__ndk1::char_traits<char> >, geodeExecFunction6<(anonymous namespace)::ExecFuncUnique6>(geode::ModStateEvent*)::{lambda(bool)#4}&&, geode::Mod*)::{lambda(std::__ndk1::shared_ptr<geode::SettingV3>)#1}, std::__ndk1::allocator<geode::listenForSettingChangesV3<bool, geodeExecFunction6<(anonymous namespace)::ExecFuncUnique6>(geode::ModStateEvent*)::{lambda(bool)#4}>(std::__ndk1::basic_string_view<char, std::__ndk1::char_traits<char> >, geodeExecFunction6<(anonymous namespace)::ExecFuncUnique6>(geode::ModStateEvent*)::{lambda(bool)#4}&&, geode::Mod*)::{lambda(std::__ndk1::shared_ptr<geode::SettingV3>)#1}>, void (std::__ndk1::shared_ptr<geode::SettingV3>)>::target_type() const
PUBLIC 36864 0 geode::EventListener<geode::ModStateFilter>::getPool() const
PUBLIC 36868 0 geode::EventListener<geode::ModStateFilter>::handle(geode::Event*)
PUBLIC 369dc 0 geode::EventListener<geode::ModStateFilter>::~EventListener()
PUBLIC 36a38 0 geode::EventListener<geode::ModStateFilter>::~EventListener()
PUBLIC 36a9c 0 std::__ndk1::__function::__base<void (geode::ModStateEvent*)>::~__base()
PUBLIC 36aa0 0 std::__ndk1::__function::__func<void (*)(geode::ModStateEvent*), std::__ndk1::allocator<void (*)(geode::ModStateEvent*)>, void (geode::ModStateEvent*)>::~__func()
PUBLIC 36aa4 0 std::__ndk1::__function::__func<void (*)(geode::ModStateEvent*), std::__ndk1::allocator<void (*)(geode::ModStateEvent*)>, void (geode::ModStateEvent*)>::__clone() const
PUBLIC 36ad8 0 std::__ndk1::__function::__func<void (*)(geode::ModStateEvent*), std::__ndk1::allocator<void (*)(geode::ModStateEvent*)>, void (geode::ModStateEvent*)>::__clone(std::__ndk1::__function::__base<void (geode::ModStateEvent*)>*) const
PUBLIC 36aec 0 std::__ndk1::__function::__func<void (*)(geode::ModStateEvent*), std::__ndk1::allocator<void (*)(geode::ModStateEvent*)>, void (geode::ModStateEvent*)>::destroy()
PUBLIC 36af0 0 std::__ndk1::__function::__func<void (*)(geode::ModStateEvent*), std::__ndk1::allocator<void (*)(geode::ModStateEvent*)>, void (geode::ModStateEvent*)>::destroy_deallocate()
PUBLIC 36af4 0 std::__ndk1::__function::__func<void (*)(geode::ModStateEvent*), std::__ndk1::allocator<void (*)(geode::ModStateEvent*)>, void (geode::ModStateEvent*)>::operator()(geode::ModStateEvent*&&)
PUBLIC 36b04 0 std::__ndk1::__function::__func<void (*)(geode::ModStateEvent*), std::__ndk1::allocator<void (*)(geode::ModStateEvent*)>, void (geode::ModStateEvent*)>::target(std::type_info const&) const
PUBLIC 36b20 0 std::__ndk1::__function::__func<void (*)(geode::ModStateEvent*), std::__ndk1::allocator<void (*)(geode::ModStateEvent*)>, void (geode::ModStateEvent*)>::target_type() const
PUBLIC 36b2c 0 _GLOBAL__sub_I_main.cpp
PUBLIC m 36c58 0 geodeImplicitEntry
PUBLIC 36c94 0 std::__ndk1::unordered_map<void*, bool, std::__ndk1::hash<void*>, std::__ndk1::equal_to<void*>, std::__ndk1::allocator<std::__ndk1::pair<void* const, bool> > >::~unordered_map[abi:ne180000]()
PUBLIC 36ce0 0 wrapFunction(unsigned long, tulip::hook::WrapperMetadata const&)
PUBLIC 36e14 0 geode::impl::ResultData<void*, std::__ndk1::basic_string<char, std::__ndk1::char_traits<char>, std::__ndk1::allocator<char> > >::unwrapErr() &
PUBLIC 36e8c 0 geode::impl::ResultData<void*, std::__ndk1::basic_string<char, std::__ndk1::char_traits<char>, std::__ndk1::allocator<char> > >::~ResultData()
PUBLIC 36f00 0 tulip::hook::WrapperMetadata::~WrapperMetadata()
PUBLIC 36f64 0 cocos2d::CCObject::~CCObject()
PUBLIC 36f88 0 cocos2d::CCNode::~CCNode()
PUBLIC 36fac 0 cocos2d::CCNodeRGBA::~CCNodeRGBA()
PUBLIC 36fd0 0 {virtual override thunk({offset(-320)}, cocos2d::CCLayer::~CCLayer())}
PUBLIC 36fd8 0 cocos2d::CCLayer::~CCLayer()
PUBLIC 36ffc 0 {virtual override thunk({offset(-320)}, cocos2d::CCLayer::~CCLayer())}
PUBLIC 37024 0 cocos2d::CCSprite::~CCSprite()
PUBLIC 37048 0 FLAlertLayer::create(FLAlertLayerProtocol*, char const*, gd::string, char const*, char const*, float)
PUBLIC 37200 0 tulip::hook::AbstractFunction::from<FLAlertLayer*, FLAlertLayerProtocol*, char const*, gd::string, char const*, char const*, float>(FLAlertLayer* (*)(FLAlertLayerProtocol*, char const*, gd::string, char const*, char const*, float))
PUBLIC 376e4 0 cocos2d::CCNodeRGBA::~CCNodeRGBA()
PUBLIC 37974 0 EffectGameObject::triggerObject(GJBaseGameLayer*, int, gd::vector<int> const*)
PUBLIC 37adc 0 tulip::hook::AbstractFunction::from<void, EffectGameObject*, GJBaseGameLayer*, int, gd::vector<int> const*>(void (*)(EffectGameObject*, GJBaseGameLayer*, int, gd::vector<int> const*))
PUBLIC 37db0 0 cocos2d::CCSprite::~CCSprite()
PUBLIC 38048 0 EndTriggerGameObject::triggerObject(GJBaseGameLayer*, int, gd::vector<int> const*)
PUBLIC 381b0 0 tulip::hook::AbstractFunction::from<void, EndTriggerGameObject*, GJBaseGameLayer*, int, gd::vector<int> const*>(void (*)(EndTriggerGameObject*, GJBaseGameLayer*, int, gd::vector<int> const*))
PUBLIC 38484 0 FMODAudioEngine::playEffect(gd::string, float, float, float)
PUBLIC 38624 0 tulip::hook::AbstractFunction::from<void, FMODAudioEngine*, gd::string, float, float, float>(void (*)(FMODAudioEngine*, gd::string, float, float, float))
PUBLIC 389dc 0 GJBaseGameLayer::~GJBaseGameLayer()
PUBLIC 391f0 0 GJBaseGameLayer::GJBaseGameLayer(geode::CutoffConstructorType, unsigned long)
PUBLIC 399a0 0 {virtual override thunk({offset(-320)}, GJBaseGameLayer::~GJBaseGameLayer())}
PUBLIC 399a8 0 GJBaseGameLayer::~GJBaseGameLayer()
PUBLIC 399cc 0 {virtual override thunk({offset(-320)}, GJBaseGameLayer::~GJBaseGameLayer())}
PUBLIC 399f4 0 GJBaseGameLayer::toggleGroupTriggered(int, bool, gd::vector<int> const&, int, int)
PUBLIC 39b60 0 tulip::hook::AbstractFunction::from<void, GJBaseGameLayer*, int, bool, gd::vector<int> const&, int, int>(void (*)(GJBaseGameLayer*, int, bool, gd::vector<int> const&, int, int))
PUBLIC 3a00c 0 {virtual override thunk({offset(-408)}, GJBaseGameLayer::toggleGroupTriggered(int, bool, gd::vector<int> const&, int, int))}
PUBLIC 3a014 0 GJBaseGameLayer::spawnGroup(int, bool, double, gd::vector<int> const&, int, int)
PUBLIC 3a190 0 tulip::hook::AbstractFunction::from<void, GJBaseGameLayer*, int, bool, double, gd::vector<int> const&, int, int>(void (*)(GJBaseGameLayer*, int, bool, double, gd::vector<int> const&, int, int))
PUBLIC 3a73c 0 {virtual override thunk({offset(-408)}, GJBaseGameLayer::spawnGroup(int, bool, double, gd::vector<int> const&, int, int))}
PUBLIC 3a744 0 GJBaseGameLayer::spawnObject(GameObject*, double, gd::vector<int> const&)
PUBLIC 3a8a0 0 tulip::hook::AbstractFunction::from<void, GJBaseGameLayer*, GameObject*, double, gd::vector<int> const&>(void (*)(GJBaseGameLayer*, GameObject*, double, gd::vector<int> const&))
PUBLIC 3ab74 0 {virtual override thunk({offset(-408)}, GJBaseGameLayer::spawnObject(GameObject*, double, gd::vector<int> const&))}
PUBLIC 3ab7c 0 GJBaseGameLayer::activatePlatformerEndTrigger(EndTriggerGameObject*, gd::vector<int> const&)
PUBLIC 3acc8 0 tulip::hook::AbstractFunction::from<void, GJBaseGameLayer*, EndTriggerGameObject*, gd::vector<int> const&>(void (*)(GJBaseGameLayer*, EndTriggerGameObject*, gd::vector<int> const&))
PUBLIC 3add0 0 GJBaseGameLayer::toggleGlitter(bool)
PUBLIC 3add4 0 GJBaseGameLayer::timeForPos(cocos2d::CCPoint, int, int, bool, int)
PUBLIC 3addc 0 GJBaseGameLayer::posForTime(float)
PUBLIC 3ade4 0 GJBaseGameLayer::resetSPTriggered()
PUBLIC 3ade8 0 GJBaseGameLayer::createCustomParticle(gd::string const&, cocos2d::ParticleStruct const&, int, bool)
PUBLIC 3af4c 0 tulip::hook::AbstractFunction::from<TodoReturnPlaceholder, GJBaseGameLayer*, gd::string const&, cocos2d::ParticleStruct const&, int, bool>(TodoReturnPlaceholder (*)(GJBaseGameLayer*, gd::string const&, cocos2d::ParticleStruct const&, int, bool))
PUBLIC 3b320 0 GJBaseGameLayer::claimCustomParticle(gd::string const&, cocos2d::ParticleStruct const&, int, int, int, bool)
PUBLIC 3b49c 0 tulip::hook::AbstractFunction::from<TodoReturnPlaceholder, GJBaseGameLayer*, gd::string const&, cocos2d::ParticleStruct const&, int, int, int, bool>(TodoReturnPlaceholder (*)(GJBaseGameLayer*, gd::string const&, cocos2d::ParticleStruct const&, int, int, int, bool))
PUBLIC 3ba70 0 GJBaseGameLayer::unclaimCustomParticle(gd::string const&, cocos2d::CCParticleSystemQuad*)
PUBLIC 3bbbc 0 tulip::hook::AbstractFunction::from<TodoReturnPlaceholder, GJBaseGameLayer*, gd::string const&, cocos2d::CCParticleSystemQuad*>(TodoReturnPlaceholder (*)(GJBaseGameLayer*, gd::string const&, cocos2d::CCParticleSystemQuad*))
PUBLIC 3bcc4 0 PlayLayer::~PlayLayer()
PUBLIC 3bfc8 0 {virtual override thunk({offset(-320)}, PlayLayer::~PlayLayer())}
PUBLIC 3bfd0 0 PlayLayer::~PlayLayer()
PUBLIC 3bff4 0 {virtual override thunk({offset(-320)}, PlayLayer::~PlayLayer())}
PUBLIC 3c01c 0 PlayLayer::activatePlatformerEndTrigger(EndTriggerGameObject*, gd::vector<int> const&)
PUBLIC 3c168 0 tulip::hook::AbstractFunction::from<void, PlayLayer*, EndTriggerGameObject*, gd::vector<int> const&>(void (*)(PlayLayer*, EndTriggerGameObject*, gd::vector<int> const&))
PUBLIC 3c270 0 cocos2d::CCCopying::copyWithZone(cocos2d::CCZone*)
PUBLIC 3c278 0 cocos2d::CCObject::update(float)
PUBLIC 3c27c 0 cocos2d::CCNodeRGBA::setOpacityModifyRGB(bool)
PUBLIC 3c280 0 cocos2d::CCNodeRGBA::isOpacityModifyRGB()
PUBLIC 3c288 0 {virtual override thunk({offset(-320)}, cocos2d::CCNodeRGBA::setOpacityModifyRGB(bool))}
PUBLIC 3c28c 0 {virtual override thunk({offset(-320)}, cocos2d::CCNodeRGBA::isOpacityModifyRGB())}
PUBLIC 3c294 0 cocos2d::CCSprite::setBlendFunc(cocos2d::_ccBlendFunc)
PUBLIC 3c2a0 0 cocos2d::CCSprite::getBlendFunc()
PUBLIC 3c2ac 0 cocos2d::CCSprite::isDirty()
PUBLIC 3c2b4 0 cocos2d::CCSprite::setDirty(bool)
PUBLIC 3c2bc 0 {virtual override thunk({offset(-344)}, cocos2d::CCSprite::setBlendFunc(cocos2d::_ccBlendFunc))}
PUBLIC 3c2c4 0 {virtual override thunk({offset(-344)}, cocos2d::CCSprite::getBlendFunc())}
PUBLIC 3c2cc 0 cocos2d::CCKeyboardDelegate::keyUp(cocos2d::enumKeyCodes)
PUBLIC 3c2d0 0 cocos2d::CCMouseDelegate::rightKeyDown()
PUBLIC 3c2d4 0 cocos2d::CCMouseDelegate::rightKeyUp()
PUBLIC 3c2d8 0 cocos2d::CCMouseDelegate::scrollWheel(float, float)
PUBLIC 3c2dc 0 cocos2d::CCNode::~CCNode()
PUBLIC 3c554 0 cocos2d::CCLayer::~CCLayer()
PUBLIC 3c81c 0 cocos2d::CCObject::~CCObject()
PUBLIC 3ccd8 0 _ZN5geode15UnwrapExceptionC2IRPvQsr4implE18IsStringStreamableIT_EEENS_4impl5OkTagEOS4_
PUBLIC 3ce2c 0 std::__ndk1::__variant_detail::__visitation::__base::__dispatcher<(unsigned long)0>::__dispatch[abi:ne180000]<std::__ndk1::__variant_detail::__dtor<std::__ndk1::__variant_detail::__traits<void*, std::__ndk1::basic_string<char, std::__ndk1::char_traits<char>, std::__ndk1::allocator<char> > >, (std::__ndk1::__variant_detail::_Trait)1>::__destroy[abi:ne180000]()::{lambda(auto:1&)#1}, std::__ndk1::__variant_detail::__base<(std::__ndk1::__variant_detail::__traits<void*, std::__ndk1::basic_string<char, std::__ndk1::char_traits<char>, std::__ndk1::allocator<char> > >)1, std::__ndk1::__variant_detail::__traits, std::__ndk1::allocator<char> >&>(std::__ndk1::__variant_detail::__dtor<std::__ndk1::__variant_detail::__traits<void*, std::__ndk1::basic_string<char, std::__ndk1::char_traits<char>, std::__ndk1::allocator<char> > >, (std::__ndk1::__variant_detail::_Trait)1>, std::__ndk1::__variant_detail::__base<(std::__ndk1::__variant_detail::__traits<void*, std::__ndk1::basic_string<char, std::__ndk1::char_traits<char>, std::__ndk1::allocator<char> > >)1, std::__ndk1::__variant_detail::__traits, std::__ndk1::allocator<char> >&)
PUBLIC 3ce30 0 std::__ndk1::__variant_detail::__visitation::__base::__dispatcher<(unsigned long)1>::__dispatch[abi:ne180000]<std::__ndk1::__variant_detail::__dtor<std::__ndk1::__variant_detail::__traits<void*, std::__ndk1::basic_string<char, std::__ndk1::char_traits<char>, std::__ndk1::allocator<char> > >, (std::__ndk1::__variant_detail::_Trait)1>::__destroy[abi:ne180000]()::{lambda(auto:1&)#1}, std::__ndk1::__variant_detail::__base<(std::__ndk1::__variant_detail::__traits<void*, std::__ndk1::basic_string<char, std::__ndk1::char_traits<char>, std::__ndk1::allocator<char> > >)1, std::__ndk1::__variant_detail::__traits, std::__ndk1::allocator<char> >&>(std::__ndk1::__variant_detail::__dtor<std::__ndk1::__variant_detail::__traits<void*, std::__ndk1::basic_string<char, std::__ndk1::char_traits<char>, std::__ndk1::allocator<char> > >, (std::__ndk1::__variant_detail::_Trait)1>, std::__ndk1::__variant_detail::__base<(std::__ndk1::__variant_detail::__traits<void*, std::__ndk1::basic_string<char, std::__ndk1::char_traits<char>, std::__ndk1::allocator<char> > >)1, std::__ndk1::__variant_detail::__traits, std::__ndk1::allocator<char> >&)
PUBLIC 3ce44 0 std::__ndk1::__hash_table<std::__ndk1::__hash_value_type<void*, bool>, std::__ndk1::__unordered_map_hasher<void*, std::__ndk1::__hash_value_type<void*, bool>, std::__ndk1::hash<void*>, std::__ndk1::equal_to<void*>, true>, std::__ndk1::__unordered_map_equal<void*, std::__ndk1::__hash_value_type<void*, bool>, std::__ndk1::equal_to<void*>, std::__ndk1::hash<void*>, true>, std::__ndk1::allocator<std::__ndk1::__hash_value_type<void*, bool> > >::__emplace_unique_key_args<void*, std::__ndk1::piecewise_construct_t const&, std::__ndk1::tuple<void* const&>, std::__ndk1::tuple<> >(void* const&, std::__ndk1::piecewise_construct_t const&, std::__ndk1::tuple<void* const&>, std::__ndk1::tuple<>)
PUBLIC 3d324 0 __udivti3
PUBLIC 3d330 0 __udivmodti4
PUBLIC m 3d57c 0 __eqtf2
PUBLIC 3d61c 0 __unordtf2
PUBLIC 3d654 0 fmt::v11::detail::write_loc(fmt::v11::basic_appender<char>, fmt::v11::loc_value, fmt::v11::format_specs const&, fmt::v11::detail::locale_ref)
PUBLIC 3d8e8 0 fmt::v11::format_facet<std::__ndk1::locale>::~format_facet()
PUBLIC 3d964 0 fmt::v11::report_error(char const*)
PUBLIC 3d9b4 0 fmt::v11::format_error::runtime_error(char const*)
PUBLIC 3d9e0 0 fmt::v11::format_facet<std::__ndk1::locale>::do_put(fmt::v11::basic_appender<char>, fmt::v11::loc_value, fmt::v11::format_specs const&) const
PUBLIC 3e1a0 0 fmt::v11::detail::loc_writer<char>::~loc_writer()
PUBLIC 3e204 0 fmt::v11::detail::vformat_to<char>(fmt::v11::detail::buffer<char>&, fmt::v11::basic_string_view<char>, fmt::v11::detail::vformat_args<char>::type, fmt::v11::detail::locale_ref)
PUBLIC 3e774 0 fmt::v11::detail::is_printable(unsigned int)
PUBLIC 3e99c 0 fmt::v11::detail::dragonbox::to_decimal<float>(float)
PUBLIC 3ec78 0 fmt::v11::detail::dragonbox::to_decimal<double>(double)
PUBLIC 3f1b4 0 fmt::v11::basic_memory_buffer<char, (unsigned long)500, std::__ndk1::allocator<char> >::grow(fmt::v11::detail::buffer<char>&, unsigned long)
PUBLIC 3f22c 0 fmt::v11::format_facet<std::__ndk1::locale>::~format_facet()
PUBLIC 3f2b8 0 fmt::v11::format_error::~format_error()
PUBLIC 3f2dc 0 fmt::v11::detail::copy_noinline<char, char const*, fmt::v11::basic_appender<char> >(char const*, char const*, fmt::v11::basic_appender<char>)
PUBLIC 3f42c 0 fmt::v11::detail::default_arg_formatter<char>::operator()<bool>(bool)
PUBLIC 3f494 0 fmt::v11::detail::default_arg_formatter<char>::operator()<char>(char)
PUBLIC 3f524 0 fmt::v11::detail::default_arg_formatter<char>::operator()<float>(float)
PUBLIC 3f610 0 fmt::v11::detail::default_arg_formatter<char>::operator()<double>(double)
PUBLIC 3f6fc 0 fmt::v11::detail::default_arg_formatter<char>::operator()<char const*>(char const*)
PUBLIC 3f744 0 fmt::v11::detail::default_arg_formatter<char>::operator()<void const*>(void const*)
PUBLIC 3f7dc 0 _ZN3fmt3v116detail5writeIcNS0_14basic_appenderIcEEiTnNSt6__ndk19enable_ifIXaaaasr11is_integralIT1_EE5valuentsr3std7is_sameIS7_bEE5valuentsr3std7is_sameIS7_T_EE5valueEiE4typeELi0EEET0_SB_S7_
PUBLIC 3fa3c 0 fmt::v11::detail::copy_noinline<char, char*, fmt::v11::basic_appender<char> >(char*, char*, fmt::v11::basic_appender<char>)
PUBLIC 3fb8c 0 _ZN3fmt3v116detail5writeIcNS0_14basic_appenderIcEEjTnNSt6__ndk19enable_ifIXaaaasr11is_integralIT1_EE5valuentsr3std7is_sameIS7_bEE5valuentsr3std7is_sameIS7_T_EE5valueEiE4typeELi0EEET0_SB_S7_
PUBLIC 3fd6c 0 _ZN3fmt3v116detail5writeIcNS0_14basic_appenderIcEExTnNSt6__ndk19enable_ifIXaaaasr11is_integralIT1_EE5valuentsr3std7is_sameIS7_bEE5valuentsr3std7is_sameIS7_T_EE5valueEiE4typeELi0EEET0_SB_S7_
PUBLIC 3fff0 0 _ZN3fmt3v116detail5writeIcNS0_14basic_appenderIcEEyTnNSt6__ndk19enable_ifIXaaaasr11is_integralIT1_EE5valuentsr3std7is_sameIS7_bEE5valuentsr3std7is_sameIS7_T_EE5valueEiE4typeELi0EEET0_SB_S7_
PUBLIC 401f8 0 _ZN3fmt3v116detail5writeIcNS0_14basic_appenderIcEEnTnNSt6__ndk19enable_ifIXaaaasr11is_integralIT1_EE5valuentsr3std7is_sameIS7_bEE5valuentsr3std7is_sameIS7_T_EE5valueEiE4typeELi0EEET0_SB_S7_
PUBLIC 40558 0 _ZN3fmt3v116detail5writeIcNS0_14basic_appenderIcEEoTnNSt6__ndk19enable_ifIXaaaasr11is_integralIT1_EE5valuentsr3std7is_sameIS7_bEE5valuentsr3std7is_sameIS7_T_EE5valueEiE4typeELi0EEET0_SB_S7_
PUBLIC 4086c 0 _ZN3fmt3v116detail5writeIcNS0_14basic_appenderIcEEbTnNSt6__ndk19enable_ifIXsr3std7is_sameIT1_bEE5valueEiE4typeELi0EEET0_SA_S7_RKNS0_12format_specsENS1_10locale_refE
PUBLIC 40afc 0 fmt::v11::detail::write_int_noinline<char, fmt::v11::basic_appender<char>, unsigned int>(fmt::v11::basic_appender<char>, fmt::v11::detail::write_int_arg<unsigned int>, fmt::v11::format_specs const&, fmt::v11::detail::locale_ref)
PUBLIC 418d8 0 fmt::v11::detail::fill<char, fmt::v11::basic_appender<char> >(fmt::v11::basic_appender<char>, unsigned long, fmt::v11::detail::fill_t const&)
PUBLIC 41aa8 0 fmt::v11::detail::write_padded<char, (fmt::v11::align::type)1, fmt::v11::basic_appender<char>, fmt::v11::detail::write_char<char, fmt::v11::basic_appender<char> >(fmt::v11::basic_appender<char>, char, fmt::v11::format_specs const&)::{lambda(fmt::v11::basic_appender<char>&)#1}>(fmt::v11::basic_appender<char>, fmt::v11::format_specs const&, unsigned long, unsigned long, fmt::v11::detail::write_char<char, fmt::v11::basic_appender<char> >(fmt::v11::basic_appender<char>, char, fmt::v11::format_specs const&)::{lambda(fmt::v11::basic_appender<char>&)#1})
PUBLIC 41ce4 0 fmt::v11::detail::write_escaped_cp<fmt::v11::basic_appender<char>, char>(fmt::v11::basic_appender<char>, fmt::v11::detail::find_escape_result<char> const&)
PUBLIC 41ff0 0 fmt::v11::detail::write_codepoint<(unsigned long)2, char, fmt::v11::basic_appender<char> >(fmt::v11::basic_appender<char>, char, unsigned int)
PUBLIC 42168 0 fmt::v11::detail::write_codepoint<(unsigned long)8, char, fmt::v11::basic_appender<char> >(fmt::v11::basic_appender<char>, char, unsigned int)
PUBLIC 422e0 0 fmt::v11::detail::write_padded<char, (fmt::v11::align::type)1, fmt::v11::basic_appender<char>, fmt::v11::detail::write_nonfinite<char, fmt::v11::basic_appender<char> >(fmt::v11::basic_appender<char>, bool, fmt::v11::format_specs, fmt::v11::sign::type)::{lambda(fmt::v11::basic_appender<char>&)#1}>(fmt::v11::basic_appender<char>, fmt::v11::format_specs const&, unsigned long, unsigned long, fmt::v11::detail::write_nonfinite<char, fmt::v11::basic_appender<char> >(fmt::v11::basic_appender<char>, bool, fmt::v11::format_specs, fmt::v11::sign::type)::{lambda(fmt::v11::basic_appender<char>&)#1})
PUBLIC 42520 0 fmt::v11::detail::do_write_float<char, fmt::v11::basic_appender<char>, fmt::v11::detail::dragonbox::decimal_fp<float>, fmt::v11::detail::digit_grouping<char> >(fmt::v11::basic_appender<char>, fmt::v11::detail::dragonbox::decimal_fp<float> const&, fmt::v11::format_specs const&, fmt::v11::detail::float_specs, fmt::v11::detail::locale_ref)
PUBLIC 43194 0 fmt::v11::detail::do_write_float<char, fmt::v11::basic_appender<char>, fmt::v11::detail::dragonbox::decimal_fp<float>, fmt::v11::detail::digit_grouping<char> >(fmt::v11::basic_appender<char>, fmt::v11::detail::dragonbox::decimal_fp<float> const&, fmt::v11::format_specs const&, fmt::v11::detail::float_specs, fmt::v11::detail::locale_ref)::{lambda(fmt::v11::basic_appender<char>(fmt::v11::basic_appender<char>))#1}::operator() const
PUBLIC 432e8 0 fmt::v11::detail::digit_grouping<char>::digit_grouping(fmt::v11::detail::locale_ref, bool)
PUBLIC 43554 0 fmt::v11::detail::digit_grouping<char>::~digit_grouping()
PUBLIC 43598 0 fmt::v11::detail::write_exponent<char, fmt::v11::basic_appender<char> >(int, fmt::v11::basic_appender<char>)
PUBLIC 43768 0 _ZN3fmt3v116detail17write_significandIcjTnNSt6__ndk19enable_ifIXsr3std11is_integralIT0_EE5valueEiE4typeELi0EEEPT_S9_S5_iiS8_
PUBLIC 438e4 0 std::__ndk1::basic_string<char, std::__ndk1::char_traits<char>, std::__ndk1::allocator<char> >::__assign_no_alias<true>(char const*, unsigned long)
PUBLIC 43990 0 std::__ndk1::basic_string<char, std::__ndk1::char_traits<char>, std::__ndk1::allocator<char> >::__assign_no_alias<false>(char const*, unsigned long)
PUBLIC 43aa0 0 fmt::v11::detail::digit_grouping<char>::apply<fmt::v11::basic_appender<char>, char>(fmt::v11::basic_appender<char>, fmt::v11::basic_string_view<char>) const
PUBLIC 43e58 0 fmt::v11::basic_memory_buffer<int, (unsigned long)500, std::__ndk1::allocator<int> >::grow(fmt::v11::detail::buffer<int>&, unsigned long)
PUBLIC 43ef8 0 fmt::v11::detail::do_write_float<char, fmt::v11::basic_appender<char>, fmt::v11::detail::dragonbox::decimal_fp<double>, fmt::v11::detail::digit_grouping<char> >(fmt::v11::basic_appender<char>, fmt::v11::detail::dragonbox::decimal_fp<double> const&, fmt::v11::format_specs const&, fmt::v11::detail::float_specs, fmt::v11::detail::locale_ref)
PUBLIC 44bac 0 fmt::v11::detail::do_write_float<char, fmt::v11::basic_appender<char>, fmt::v11::detail::dragonbox::decimal_fp<double>, fmt::v11::detail::digit_grouping<char> >(fmt::v11::basic_appender<char>, fmt::v11::detail::dragonbox::decimal_fp<double> const&, fmt::v11::format_specs const&, fmt::v11::detail::float_specs, fmt::v11::detail::locale_ref)::{lambda(fmt::v11::basic_appender<char>(fmt::v11::basic_appender<char>))#1}::operator() const
PUBLIC 44d04 0 _ZN3fmt3v116detail17write_significandIcmTnNSt6__ndk19enable_ifIXsr3std11is_integralIT0_EE5valueEiE4typeELi0EEEPT_S9_S5_iiS8_
PUBLIC 44e94 0 fmt::v11::detail::write_float<char, fmt::v11::basic_appender<char>, long double>(fmt::v11::basic_appender<char>, long double, fmt::v11::format_specs, fmt::v11::detail::locale_ref)
PUBLIC 45990 0 fmt::v11::detail::write_padded<char, (fmt::v11::align::type)2, fmt::v11::basic_appender<char>, fmt::v11::detail::write_bytes<char, (fmt::v11::align::type)2, fmt::v11::basic_appender<char> >(fmt::v11::basic_appender<char>, fmt::v11::basic_string_view<char>, fmt::v11::format_specs const&)::{lambda(fmt::v11::basic_appender<char>&)#1}>(fmt::v11::basic_appender<char>, fmt::v11::format_specs const&, unsigned long, unsigned long, fmt::v11::detail::write_bytes<char, (fmt::v11::align::type)2, fmt::v11::basic_appender<char> >(fmt::v11::basic_appender<char>, fmt::v11::basic_string_view<char>, fmt::v11::format_specs const&)::{lambda(fmt::v11::basic_appender<char>&)#1})
PUBLIC 45b6c 0 fmt::v11::detail::format_dragon(fmt::v11::detail::basic_fp<unsigned __int128>, unsigned int, int, fmt::v11::detail::buffer<char>&, int&)
PUBLIC 46f9c 0 fmt::v11::detail::bigint::operator<<=(int)
PUBLIC 470c0 0 fmt::v11::detail::bigint::assign_pow10(int)
PUBLIC 4781c 0 fmt::v11::detail::bigint::divmod_assign(fmt::v11::detail::bigint const&)
PUBLIC 47b3c 0 fmt::v11::basic_memory_buffer<unsigned int, (unsigned long)32, std::__ndk1::allocator<unsigned int> >::grow(fmt::v11::detail::buffer<unsigned int>&, unsigned long)
PUBLIC 47bdc 0 fmt::v11::detail::do_write_float<char, fmt::v11::basic_appender<char>, fmt::v11::detail::big_decimal_fp, fmt::v11::detail::digit_grouping<char> >(fmt::v11::basic_appender<char>, fmt::v11::detail::big_decimal_fp const&, fmt::v11::format_specs const&, fmt::v11::detail::float_specs, fmt::v11::detail::locale_ref)
PUBLIC 48a8c 0 fmt::v11::detail::do_write_float<char, fmt::v11::basic_appender<char>, fmt::v11::detail::big_decimal_fp, fmt::v11::detail::digit_grouping<char> >(fmt::v11::basic_appender<char>, fmt::v11::detail::big_decimal_fp const&, fmt::v11::format_specs const&, fmt::v11::detail::float_specs, fmt::v11::detail::locale_ref)::{lambda(fmt::v11::basic_appender<char>(fmt::v11::basic_appender<char>))#1}::operator() const
PUBLIC 48bec 0 fmt::v11::detail::write_padded<char, (fmt::v11::align::type)2, fmt::v11::basic_appender<char>, fmt::v11::detail::write_ptr<char, fmt::v11::basic_appender<char>, unsigned long>(fmt::v11::basic_appender<char>, unsigned long, fmt::v11::format_specs const*)::{lambda(fmt::v11::basic_appender<char>&)#1}>(fmt::v11::basic_appender<char>, fmt::v11::format_specs const&, unsigned long, unsigned long, fmt::v11::detail::write_ptr<char, fmt::v11::basic_appender<char>, unsigned long>(fmt::v11::basic_appender<char>, unsigned long, fmt::v11::format_specs const*)::{lambda(fmt::v11::basic_appender<char>&)#1})
PUBLIC 48e00 0 fmt::v11::detail::parse_replacement_field<char, fmt::v11::detail::vformat_to<char>(fmt::v11::detail::buffer<char>&, fmt::v11::basic_string_view<char>, fmt::v11::detail::vformat_args<char>::type, fmt::v11::detail::locale_ref)::format_handler&>(char const*, char const*, fmt::v11::detail::vformat_to<char>(fmt::v11::detail::buffer<char>&, fmt::v11::basic_string_view<char>, fmt::v11::detail::vformat_args<char>::type, fmt::v11::detail::locale_ref)::format_handler&)
PUBLIC 4aa9c 0 fmt::v11::detail::parse_dynamic_spec<char>(char const*, char const*, int&, fmt::v11::detail::arg_ref<char>&, fmt::v11::basic_format_parse_context<char>&)
PUBLIC 4ad2c 0 fmt::v11::basic_format_args<fmt::v11::context>::get<char>(fmt::v11::basic_string_view<char>) const
PUBLIC 4ae84 0 fmt::v11::detail::write_int_noinline<char, fmt::v11::basic_appender<char>, unsigned long>(fmt::v11::basic_appender<char>, fmt::v11::detail::write_int_arg<unsigned long>, fmt::v11::format_specs const&, fmt::v11::detail::locale_ref)
PUBLIC 4bcd8 0 fmt::v11::detail::write_int_noinline<char, fmt::v11::basic_appender<char>, unsigned __int128>(fmt::v11::basic_appender<char>, fmt::v11::detail::write_int_arg<unsigned __int128>, fmt::v11::format_specs const&, fmt::v11::detail::locale_ref)
PUBLIC 4cd40 0 _ZN3fmt3v116detail15format_hexfloatIdTnNSt6__ndk19enable_ifIXntsr16is_double_doubleIT_EE5valueEiE4typeELi0EEEvS5_NS0_12format_specsERNS1_6bufferIcEE
PUBLIC 4d260 0 fmt::v11::detail::format_float<double>(double, int, fmt::v11::detail::float_specs, fmt::v11::detail::buffer<char>&)
PUBLIC 4dc00 0 fmt::v11::detail::write<char, fmt::v11::basic_appender<char> >(fmt::v11::basic_appender<char>, fmt::v11::basic_string_view<char>, fmt::v11::format_specs const&)
PUBLIC 4ef6c 0 fmt::v11::detail::for_each_codepoint<fmt::v11::detail::compute_width(fmt::v11::basic_string_view<char>)::count_code_points>(fmt::v11::basic_string_view<char>, fmt::v11::detail::compute_width(fmt::v11::basic_string_view<char>)::count_code_points)::{lambda(char const*, char const*)#1}::operator()(char const*, char const*) const
PUBLIC 4f124 0 fmt::v11::detail::write_int<fmt::v11::basic_appender<char>, unsigned long, char>(fmt::v11::basic_appender<char>, unsigned long, unsigned int, fmt::v11::format_specs const&, fmt::v11::detail::digit_grouping<char> const&)
PUBLIC 4f6a0 0 fmt::v11::detail::write_int<fmt::v11::basic_appender<char>, unsigned __int128, char>(fmt::v11::basic_appender<char>, unsigned __int128, unsigned int, fmt::v11::format_specs const&, fmt::v11::detail::digit_grouping<char> const&)
PUBLIC 4fd1c 0 __CortexA53843419_26004
PUBLIC 4fd30 0 <.plt ELF section in raydeeux.krazyplaylayer.android64.so>
STACK CFI INIT 1e8d0 10 .cfa: sp 0 +
STACK CFI INIT 1e8e0 8 .cfa: sp 0 +
STACK CFI INIT 1e8e8 8 .cfa: sp 0 +
STACK CFI INIT 1e8f0 14 .cfa: sp 0 +
STACK CFI INIT 1e904 1c .cfa: sp 0 +
STACK CFI INIT 1e920 10 .cfa: sp 0 +
STACK CFI INIT 1e930 134 .cfa: sp 0 +
STACK CFI INIT 1ea64 84 .cfa: sp 0 +
STACK CFI INIT 1eae8 f4 .cfa: sp 0 +
STACK CFI INIT 1ebdc a8 .cfa: sp 0 +
STACK CFI INIT 1ec84 7c .cfa: sp 0 +
STACK CFI INIT 1ed00 14 .cfa: sp 0 +
STACK CFI INIT 1ed14 40 .cfa: sp 0 +
STACK CFI INIT 1ed54 28 .cfa: sp 0 +
STACK CFI INIT 1ed7c 190 .cfa: sp 0 +
STACK CFI INIT 1ef0c 2c8 .cfa: sp 0 +
STACK CFI INIT 1f1d4 8 .cfa: sp 0 +
STACK CFI INIT 1f1dc 8 .cfa: sp 0 +
STACK CFI INIT 1f1e4 44 .cfa: sp 0 +
STACK CFI INIT 1f228 e8 .cfa: sp 0 +
STACK CFI INIT 1f310 e8 .cfa: sp 0 +
STACK CFI INIT 1f3f8 14 .cfa: sp 0 +
STACK CFI INIT 1f40c 10 .cfa: sp 0 +
STACK CFI INIT 1f41c 10 .cfa: sp 0 +
STACK CFI INIT 1f42c f0 .cfa: sp 0 +
STACK CFI INIT 1f51c 44 .cfa: sp 0 +
STACK CFI INIT 1f560 c .cfa: sp 0 +
STACK CFI INIT 1f56c c .cfa: sp 0 +
STACK CFI INIT 1f578 2c .cfa: sp 0 +
STACK CFI INIT 1f5a4 280 .cfa: sp 0 +
STACK CFI INIT 1f824 c .cfa: sp 0 +
STACK CFI INIT 1f830 120 .cfa: sp 0 +
STACK CFI INIT 1f950 488 .cfa: sp 0 +
STACK CFI INIT 1fdd8 c48 .cfa: sp 0 +
STACK CFI INIT 20a20 134 .cfa: sp 0 +
STACK CFI INIT 20b54 210 .cfa: sp 0 +
STACK CFI INIT 20d64 38c .cfa: sp 0 +
STACK CFI INIT 210f0 1c8 .cfa: sp 0 +
STACK CFI INIT 212b8 9bc .cfa: sp 0 +
STACK CFI INIT 21c74 2d4 .cfa: sp 0 +
STACK CFI INIT 21f48 134 .cfa: sp 0 +
STACK CFI INIT 2207c 120 .cfa: sp 0 +
STACK CFI INIT 2219c 1c8 .cfa: sp 0 +
STACK CFI INIT 22364 168 .cfa: sp 0 +
STACK CFI INIT 224cc fc .cfa: sp 0 +
STACK CFI INIT 225c8 30 .cfa: sp 0 +
STACK CFI INIT 22730 30 .cfa: sp 0 +
STACK CFI INIT 22760 98 .cfa: sp 0 +
STACK CFI INIT 227f8 59c .cfa: sp 0 +
STACK CFI INIT 22d94 8c .cfa: sp 0 +
STACK CFI INIT 22e20 30 .cfa: sp 0 +
STACK CFI INIT 23484 1c .cfa: sp 0 +
STACK CFI INIT 23820 50 .cfa: sp 0 +
STACK CFI 23824 .cfa: sp 32 +
STACK CFI 2382c .cfa: x29 32 + x19: .cfa -16 + ^ .ra: .cfa -24 + ^ x29: .cfa -32 + ^
STACK CFI 23844 .cfa: sp 32 +
STACK CFI 2384c .cfa: sp 0 +
STACK CFI 23850 .cfa: x29 32 +
STACK CFI 23864 .cfa: sp 32 +
STACK CFI 2386c .cfa: sp 0 +
STACK CFI INIT 238e4 7c .cfa: sp 0 +
STACK CFI 238e8 .cfa: sp 48 +
STACK CFI 238f4 .cfa: x29 48 + x19: .cfa -8 + ^ x20: .cfa -16 + ^ x21: .cfa -32 + ^ .ra: .cfa -40 + ^ x29: .cfa -48 + ^
STACK CFI 23940 .cfa: sp 48 +
STACK CFI 2394c .cfa: sp 0 +
STACK CFI 23950 .cfa: sp 48 +
STACK CFI 2395c .cfa: sp 0 +
STACK CFI INIT 23960 4 .cfa: sp 0 +
STACK CFI INIT 23964 10 .cfa: sp 0 +
STACK CFI 23968 .cfa: sp 16 +
STACK CFI 2396c .cfa: x29 16 + .ra: .cfa -8 + ^ x29: .cfa -16 + ^
STACK CFI INIT 23974 14 .cfa: sp 0 +
STACK CFI 23978 .cfa: sp 16 +
STACK CFI 2397c .cfa: x29 16 + .ra: .cfa -8 + ^ x29: .cfa -16 + ^
STACK CFI INIT 239d8 30 .cfa: sp 0 +
STACK CFI 239dc .cfa: sp 32 +
STACK CFI 239e4 .cfa: x29 32 + x19: .cfa -16 + ^ .ra: .cfa -24 + ^ x29: .cfa -32 + ^
STACK CFI 239fc .cfa: sp 32 +
STACK CFI 23a04 .cfa: sp 0 +
STACK CFI INIT 23a08 34 .cfa: sp 0 +
STACK CFI 23a0c .cfa: sp 32 +
STACK CFI 23a14 .cfa: x29 32 + x19: .cfa -16 + ^ .ra: .cfa -24 + ^ x29: .cfa -32 + ^
STACK CFI INIT 23a3c 120 .cfa: sp 0 +
STACK CFI 23a40 .cfa: sp 64 +
STACK CFI 23a50 .cfa: x29 64 + x19: .cfa -8 + ^ x20: .cfa -16 + ^ x21: .cfa -24 + ^ x22: .cfa -32 + ^ x23: .cfa -40 + ^ x24: .cfa -48 + ^ .ra: .cfa -56 + ^ x29: .cfa -64 + ^
STACK CFI 23b48 .cfa: sp 64 +
STACK CFI 23b58 .cfa: sp 0 +
STACK CFI INIT 23d50 7c .cfa: sp 0 +
STACK CFI 23d54 .cfa: sp 32 +
STACK CFI 23d5c .cfa: x29 32 + x19: .cfa -8 + ^ x20: .cfa -16 + ^ .ra: .cfa -24 + ^ x29: .cfa -32 + ^
STACK CFI 23db4 .cfa: sp 32 +
STACK CFI 23dbc .cfa: sp 0 +
STACK CFI 23dc0 .cfa: sp 32 +
STACK CFI 23dc8 .cfa: sp 0 +
STACK CFI INIT 23dcc 80 .cfa: sp 0 +
STACK CFI 23dd0 .cfa: sp 48 +
STACK CFI 23ddc .cfa: x29 48 + x19: .cfa -8 + ^ x20: .cfa -16 + ^ x21: .cfa -24 + ^ x22: .cfa -32 + ^ .ra: .cfa -40 + ^ x29: .cfa -48 + ^
STACK CFI 23df4 .cfa: sp 48 +
STACK CFI 23e00 .cfa: sp 0 +
STACK CFI 23e04 .cfa: x29 48 +
STACK CFI 23e34 .cfa: sp 48 +
STACK CFI 23e40 .cfa: sp 0 +
STACK CFI 23e44 .cfa: x29 48 +
STACK CFI INIT 23e4c 1b0 .cfa: sp 0 +
STACK CFI INIT 24150 34 .cfa: sp 0 +
STACK CFI 24154 .cfa: sp 16 +
STACK CFI 24158 .cfa: x29 16 + .ra: .cfa -8 + ^ x29: .cfa -16 + ^
STACK CFI INIT 242b0 80 .cfa: sp 0 +
STACK CFI 242b4 .cfa: sp 48 +
STACK CFI 242c0 .cfa: x29 48 + x19: .cfa -8 + ^ x20: .cfa -16 + ^ x21: .cfa -32 + ^ .ra: .cfa -40 + ^ x29: .cfa -48 + ^
STACK CFI 24320 .cfa: sp 48 +
STACK CFI 2432c .cfa: sp 0 +
STACK CFI INIT 24330 24 .cfa: sp 0 +
STACK CFI 24334 .cfa: sp 32 +
STACK CFI 2433c .cfa: x29 32 + x19: .cfa -16 + ^ .ra: .cfa -24 + ^ x29: .cfa -32 + ^
STACK CFI 24348 .cfa: sp 32 +
STACK CFI 24350 .cfa: sp 0 +
STACK CFI INIT 2484c 148 .cfa: sp 0 +
STACK CFI 24850 .cfa: sp 48 +
STACK CFI 2485c .cfa: x29 48 + x19: .cfa -8 + ^ x20: .cfa -16 + ^ x21: .cfa -32 + ^ .ra: .cfa -40 + ^ x29: .cfa -48 + ^
STACK CFI 24984 .cfa: sp 48 +
STACK CFI 24990 .cfa: sp 0 +
STACK CFI INIT 24afc 4 .cfa: sp 0 +
STACK CFI INIT 24b00 14 .cfa: sp 0 +
STACK CFI INIT 24d3c 68 .cfa: sp 0 +
STACK CFI 24d40 .cfa: sp 32 +
STACK CFI 24d48 .cfa: x29 32 + x19: .cfa -8 + ^ x20: .cfa -16 + ^ .ra: .cfa -24 + ^ x29: .cfa -32 + ^
STACK CFI 24d60 .cfa: sp 32 +
STACK CFI 24d68 .cfa: sp 0 +
STACK CFI 24d6c .cfa: x29 32 +
STACK CFI 24d98 .cfa: sp 32 +
STACK CFI 24da0 .cfa: sp 0 +
STACK CFI INIT 24da4 14 .cfa: sp 0 +
STACK CFI 24da8 .cfa: sp 16 +
STACK CFI 24dac .cfa: x29 16 + .ra: .cfa -8 + ^ x29: .cfa -16 + ^
STACK CFI INIT 24db8 4 .cfa: sp 0 +
STACK CFI INIT 24dbc 14 .cfa: sp 0 +
STACK CFI INIT 24dd0 d4 .cfa: sp 0 +
STACK CFI 24dd4 .cfa: sp 48 +
STACK CFI 24de0 .cfa: x29 48 + x19: .cfa -8 + ^ x20: .cfa -16 + ^ x21: .cfa -32 + ^ .ra: .cfa -40 + ^ x29: .cfa -48 + ^
STACK CFI 24e70 .cfa: sp 48 +
STACK CFI 24e7c .cfa: sp 0 +
STACK CFI 24e80 .cfa: x29 48 +
STACK CFI INIT 24ea4 3c8 .cfa: sp 0 +
STACK CFI INIT 2526c 8c .cfa: sp 0 +
STACK CFI 25274 .cfa: sp 32 +
STACK CFI 2527c .cfa: x29 32 + x19: .cfa -8 + ^ x20: .cfa -16 + ^ .ra: .cfa -24 + ^ x29: .cfa -32 + ^
STACK CFI 252c4 .cfa: sp 32 +
STACK CFI 252cc .cfa: sp 0 +
STACK CFI 252d4 .cfa: x29 32 +
STACK CFI INIT 25574 70 .cfa: sp 0 +
STACK CFI INIT 255e4 50 .cfa: sp 0 +
STACK CFI 255e8 .cfa: sp 32 +
STACK CFI 255f0 .cfa: x29 32 + x19: .cfa -16 + ^ .ra: .cfa -24 + ^ x29: .cfa -32 + ^
STACK CFI 25608 .cfa: sp 32 +
STACK CFI 25610 .cfa: sp 0 +
STACK CFI 25614 .cfa: x29 32 +
STACK CFI 25628 .cfa: sp 32 +
STACK CFI 25630 .cfa: sp 0 +
STACK CFI INIT 25634 64 .cfa: sp 0 +
STACK CFI 25638 .cfa: sp 32 +
STACK CFI 25640 .cfa: x29 32 + x19: .cfa -16 + ^ .ra: .cfa -24 + ^ x29: .cfa -32 + ^
STACK CFI 2566c .cfa: sp 32 +
STACK CFI 25674 .cfa: sp 0 +
STACK CFI 25678 .cfa: x29 32 +
STACK CFI 2568c .cfa: sp 32 +
STACK CFI 25694 .cfa: sp 0 +
STACK CFI INIT 25698 104 .cfa: sp 0 +
STACK CFI 2569c .cfa: sp 64 +
STACK CFI 256ac .cfa: x29 64 + x19: .cfa -8 + ^ x20: .cfa -16 + ^ x21: .cfa -24 + ^ x22: .cfa -32 + ^ x23: .cfa -48 + ^ .ra: .cfa -56 + ^ x29: .cfa -64 + ^
STACK CFI 25708 .cfa: sp 64 +
STACK CFI 25718 .cfa: sp 0 +
STACK CFI 2571c .cfa: x29 64 +
STACK CFI 25738 .cfa: sp 64 +
STACK CFI 25748 .cfa: sp 0 +
STACK CFI 2574c .cfa: x29 64 +
STACK CFI 25788 .cfa: sp 64 +
STACK CFI 25798 .cfa: sp 0 +
STACK CFI INIT 2579c 178 .cfa: sp 0 +
STACK CFI 257a0 .cfa: sp 80 +
STACK CFI 257b4 .cfa: x29 80 + x19: .cfa -8 + ^ x20: .cfa -16 + ^ x21: .cfa -24 + ^ x22: .cfa -32 + ^ x23: .cfa -40 + ^ x24: .cfa -48 + ^ x25: .cfa -56 + ^ x26: .cfa -64 + ^ .ra: .cfa -72 + ^ x29: .cfa -80 + ^
STACK CFI 258fc .cfa: sp 80 +
STACK CFI 25910 .cfa: sp 0 +
STACK CFI INIT 25f48 1c .cfa: sp 0 +
STACK CFI INIT 27844 4 .cfa: sp 0 +
STACK CFI INIT 27a04 14 .cfa: sp 0 +
STACK CFI 27a08 .cfa: sp 16 +
STACK CFI 27a0c .cfa: x29 16 + .ra: .cfa -8 + ^ x29: .cfa -16 + ^
STACK CFI INIT 2804c 1c .cfa: sp 0 +
STACK CFI INIT 283f0 4 .cfa: sp 0 +
STACK CFI INIT 28700 80 .cfa: sp 0 +
STACK CFI 28704 .cfa: sp 48 +
STACK CFI 28710 .cfa: x29 48 + x19: .cfa -8 + ^ x20: .cfa -16 + ^ x21: .cfa -24 + ^ x22: .cfa -32 + ^ .ra: .cfa -40 + ^ x29: .cfa -48 + ^
STACK CFI 2875c .cfa: sp 48 +
STACK CFI 28768 .cfa: sp 0 +
STACK CFI 2876c .cfa: x29 48 +
STACK CFI 28770 .cfa: sp 48 +
STACK CFI 2877c .cfa: sp 0 +
STACK CFI INIT 28d38 4 .cfa: sp 0 +
STACK CFI INIT 28d3c 14 .cfa: sp 0 +
STACK CFI 28d40 .cfa: sp 16 +
STACK CFI 28d44 .cfa: x29 16 + .ra: .cfa -8 + ^ x29: .cfa -16 + ^
STACK CFI INIT 28f7c 14 .cfa: sp 0 +
STACK CFI 28f80 .cfa: sp 16 +
STACK CFI 28f84 .cfa: x29 16 + .ra: .cfa -8 + ^ x29: .cfa -16 + ^
STACK CFI INIT 28f90 14 .cfa: sp 0 +
STACK CFI 28f94 .cfa: sp 16 +
STACK CFI 28f98 .cfa: x29 16 + .ra: .cfa -8 + ^ x29: .cfa -16 + ^
STACK CFI INIT 28ff4 30 .cfa: sp 0 +
STACK CFI 28ff8 .cfa: sp 32 +
STACK CFI 29000 .cfa: x29 32 + x19: .cfa -16 + ^ .ra: .cfa -24 + ^ x29: .cfa -32 + ^
STACK CFI 29018 .cfa: sp 32 +
STACK CFI 29020 .cfa: sp 0 +
STACK CFI INIT 29024 14 .cfa: sp 0 +
STACK CFI 29028 .cfa: sp 16 +
STACK CFI 2902c .cfa: x29 16 + .ra: .cfa -8 + ^ x29: .cfa -16 + ^
STACK CFI INIT 29038 4 .cfa: sp 0 +
STACK CFI INIT 2903c 4 .cfa: sp 0 +
STACK CFI INIT 29040 38 .cfa: sp 0 +
STACK CFI 29044 .cfa: sp 32 +
STACK CFI 2904c .cfa: x29 32 + x19: .cfa -16 + ^ .ra: .cfa -24 + ^ x29: .cfa -32 + ^
STACK CFI 2906c .cfa: sp 32 +
STACK CFI 29074 .cfa: sp 0 +
STACK CFI INIT 29078 18 .cfa: sp 0 +
STACK CFI INIT 29090 4 .cfa: sp 0 +
STACK CFI INIT 29094 4 .cfa: sp 0 +
STACK CFI INIT 29098 10 .cfa: sp 0 +
STACK CFI INIT 290a8 1c .cfa: sp 0 +
STACK CFI INIT 290c4 c .cfa: sp 0 +
STACK CFI INIT 29a28 1c .cfa: sp 0 +
STACK CFI INIT 29e28 4 .cfa: sp 0 +
STACK CFI INIT 2a210 4 .cfa: sp 0 +
STACK CFI INIT 2a694 1c .cfa: sp 0 +
STACK CFI INIT 2aa38 4 .cfa: sp 0 +
STACK CFI INIT 2aa3c 158 .cfa: sp 0 +
STACK CFI 2aa40 .cfa: sp 48 +
STACK CFI 2aa4c .cfa: x29 32 + x19: .cfa -8 + ^ x20: .cfa -16 + ^ .ra: .cfa -24 + ^ x29: .cfa -32 + ^ v8: .cfa -48 + ^
STACK CFI 2aa74 .cfa: sp 48 +
STACK CFI 2aa80 .cfa: sp 0 +
STACK CFI 2aa84 .cfa: x29 32 +
STACK CFI 2ab84 .cfa: sp 48 +
STACK CFI 2ab90 .cfa: sp 0 +
STACK CFI INIT 2ad80 4 .cfa: sp 0 +
STACK CFI INIT 2b3bc 1c .cfa: sp 0 +
STACK CFI INIT 2b7c8 4 .cfa: sp 0 +
STACK CFI INIT 2c5b0 1c .cfa: sp 0 +
STACK CFI INIT 2c9f0 4 .cfa: sp 0 +
STACK CFI INIT 2cc4c d8 .cfa: sp 0 +
STACK CFI 2cc50 .cfa: sp 48 +
STACK CFI 2cc5c .cfa: x29 48 + x19: .cfa -8 + ^ x20: .cfa -16 + ^ x21: .cfa -24 + ^ x22: .cfa -32 + ^ .ra: .cfa -40 + ^ x29: .cfa -48 + ^
STACK CFI 2ccfc .cfa: sp 48 +
STACK CFI 2cd08 .cfa: sp 0 +
STACK CFI 2cd0c .cfa: x29 48 +
STACK CFI 2cd14 .cfa: sp 48 +
STACK CFI 2cd20 .cfa: sp 0 +
STACK CFI INIT 2cec8 4 .cfa: sp 0 +
STACK CFI INIT 2d500 1c .cfa: sp 0 +
STACK CFI INIT 2d854 4 .cfa: sp 0 +
STACK CFI INIT 2d858 9c .cfa: sp 0 +
STACK CFI 2d85c .cfa: sp 48 +
STACK CFI 2d868 .cfa: x29 48 + x19: .cfa -8 + ^ x20: .cfa -16 + ^ x21: .cfa -24 + ^ x22: .cfa -32 + ^ .ra: .cfa -40 + ^ x29: .cfa -48 + ^
STACK CFI 2d89c .cfa: sp 48 +
STACK CFI 2d8a8 .cfa: sp 0 +
STACK CFI 2d8ac .cfa: x29 48 +
STACK CFI 2d8dc .cfa: sp 48 +
STACK CFI 2d8e8 .cfa: sp 0 +
STACK CFI 2d8ec .cfa: x29 48 +
STACK CFI INIT 2e450 1c .cfa: sp 0 +
STACK CFI INIT 2f318 4 .cfa: sp 0 +
STACK CFI INIT 2fe64 cc .cfa: sp 0 +
STACK CFI 2fe68 .cfa: sp 48 +
STACK CFI 2fe74 .cfa: x29 48 + x19: .cfa -8 + ^ x20: .cfa -16 + ^ x21: .cfa -32 + ^ .ra: .cfa -40 + ^ x29: .cfa -48 + ^
STACK CFI 2fea8 .cfa: sp 48 +
STACK CFI 2feb4 .cfa: sp 0 +
STACK CFI 2feb8 .cfa: x29 48 +
STACK CFI 2ff20 .cfa: sp 48 +
STACK CFI 2ff2c .cfa: sp 0 +
STACK CFI INIT 307c8 74 .cfa: sp 0 +
STACK CFI 307cc .cfa: sp 32 +
STACK CFI 307d4 .cfa: x29 32 + x19: .cfa -8 + ^ x20: .cfa -16 + ^ .ra: .cfa -24 + ^ x29: .cfa -32 + ^
STACK CFI 30830 .cfa: sp 32 +
STACK CFI 30838 .cfa: sp 0 +
STACK CFI INIT 316a8 34 .cfa: sp 0 +
STACK CFI 316ac .cfa: sp 32 +
STACK CFI 316b4 .cfa: x29 32 + x19: .cfa -16 + ^ .ra: .cfa -24 + ^ x29: .cfa -32 + ^
STACK CFI 316d0 .cfa: sp 32 +
STACK CFI 316d8 .cfa: sp 0 +
STACK CFI INIT 32538 78 .cfa: sp 0 +
STACK CFI 3253c .cfa: sp 48 +
STACK CFI 32548 .cfa: x29 48 + x19: .cfa -8 + ^ x20: .cfa -16 + ^ x21: .cfa -32 + ^ .ra: .cfa -40 + ^ x29: .cfa -48 + ^
STACK CFI 32590 .cfa: sp 48 +
STACK CFI 3259c .cfa: sp 0 +
STACK CFI 325a0 .cfa: sp 48 +
STACK CFI 325ac .cfa: sp 0 +
STACK CFI INIT 325b0 78 .cfa: sp 0 +
STACK CFI 325b4 .cfa: sp 48 +
STACK CFI 325c0 .cfa: x29 48 + x19: .cfa -8 + ^ x20: .cfa -16 + ^ x21: .cfa -32 + ^ .ra: .cfa -40 + ^ x29: .cfa -48 + ^
STACK CFI 32608 .cfa: sp 48 +
STACK CFI 32614 .cfa: sp 0 +
STACK CFI 32618 .cfa: sp 48 +
STACK CFI 32624 .cfa: sp 0 +
STACK CFI INIT 32628 84 .cfa: sp 0 +
STACK CFI 3262c .cfa: sp 48 +
STACK CFI 32638 .cfa: x29 48 + x19: .cfa -8 + ^ x20: .cfa -16 + ^ x21: .cfa -24 + ^ x22: .cfa -32 + ^ .ra: .cfa -40 + ^ x29: .cfa -48 + ^
STACK CFI 3268c .cfa: sp 48 +
STACK CFI 32698 .cfa: sp 0 +
STACK CFI 3269c .cfa: sp 48 +
STACK CFI 326a8 .cfa: sp 0 +
STACK CFI INIT 326c8 8c .cfa: sp 0 +
STACK CFI 326cc .cfa: sp 48 +
STACK CFI 326d8 .cfa: x29 48 + x19: .cfa -8 + ^ x20: .cfa -16 + ^ x21: .cfa -24 + ^ x22: .cfa -32 + ^ .ra: .cfa -40 + ^ x29: .cfa -48 + ^
STACK CFI 32710 .cfa: sp 48 +
STACK CFI 3271c .cfa: sp 0 +
STACK CFI 32720 .cfa: x29 48 +
STACK CFI 32744 .cfa: sp 48 +
STACK CFI 32750 .cfa: sp 0 +
STACK CFI INIT 32754 78 .cfa: sp 0 +
STACK CFI 32758 .cfa: sp 48 +
STACK CFI 32764 .cfa: x29 48 + x19: .cfa -8 + ^ x20: .cfa -16 + ^ x21: .cfa -32 + ^ .ra: .cfa -40 + ^ x29: .cfa -48 + ^
STACK CFI 327ac .cfa: sp 48 +
STACK CFI 327b8 .cfa: sp 0 +
STACK CFI 327bc .cfa: sp 48 +
STACK CFI 327c8 .cfa: sp 0 +
STACK CFI INIT 327cc 8c .cfa: sp 0 +
STACK CFI 327d0 .cfa: sp 48 +
STACK CFI 327dc .cfa: x29 48 + x19: .cfa -8 + ^ x20: .cfa -16 + ^ x21: .cfa -24 + ^ x22: .cfa -32 + ^ .ra: .cfa -40 + ^ x29: .cfa -48 + ^
STACK CFI 32814 .cfa: sp 48 +
STACK CFI 32820 .cfa: sp 0 +
STACK CFI 32824 .cfa: x29 48 +
STACK CFI 32848 .cfa: sp 48 +
STACK CFI 32854 .cfa: sp 0 +
STACK CFI INIT 32858 78 .cfa: sp 0 +
STACK CFI 3285c .cfa: sp 48 +
STACK CFI 32868 .cfa: x29 48 + x19: .cfa -8 + ^ x20: .cfa -16 + ^ x21: .cfa -32 + ^ .ra: .cfa -40 + ^ x29: .cfa -48 + ^
STACK CFI 328b0 .cfa: sp 48 +
STACK CFI 328bc .cfa: sp 0 +
STACK CFI 328c0 .cfa: sp 48 +
STACK CFI 328cc .cfa: sp 0 +
STACK CFI INIT 328d0 104 .cfa: sp 0 +
STACK CFI 328d4 .cfa: sp 64 +
STACK CFI 328e4 .cfa: x29 64 + x19: .cfa -8 + ^ x20: .cfa -16 + ^ x21: .cfa -24 + ^ x22: .cfa -32 + ^ x23: .cfa -48 + ^ .ra: .cfa -56 + ^ x29: .cfa -64 + ^
STACK CFI 329ac .cfa: sp 64 +
STACK CFI 329bc .cfa: sp 0 +
STACK CFI 329c0 .cfa: sp 64 +
STACK CFI 329d0 .cfa: sp 0 +
STACK CFI INIT 32dcc 78 .cfa: sp 0 +
STACK CFI 32dd0 .cfa: sp 48 +
STACK CFI 32ddc .cfa: x29 48 + x19: .cfa -8 + ^ x20: .cfa -16 + ^ x21: .cfa -32 + ^ .ra: .cfa -40 + ^ x29: .cfa -48 + ^
STACK CFI 32e24 .cfa: sp 48 +
STACK CFI 32e30 .cfa: sp 0 +
STACK CFI 32e34 .cfa: sp 48 +
STACK CFI 32e40 .cfa: sp 0 +
STACK CFI INIT 32e60 90 .cfa: sp 0 +
STACK CFI 32e64 .cfa: sp 48 +
STACK CFI 32e70 .cfa: x29 48 + x19: .cfa -8 + ^ x20: .cfa -16 + ^ x21: .cfa -24 + ^ x22: .cfa -32 + ^ .ra: .cfa -40 + ^ x29: .cfa -48 + ^
STACK CFI 32ea8 .cfa: sp 48 +
STACK CFI 32eb4 .cfa: sp 0 +
STACK CFI 32eb8 .cfa: x29 48 +
STACK CFI 32ee0 .cfa: sp 48 +
STACK CFI 32eec .cfa: sp 0 +
STACK CFI INIT 32f88 3c .cfa: sp 0 +
STACK CFI 32f8c .cfa: sp 32 +
STACK CFI 32f94 .cfa: x29 32 + x19: .cfa -16 + ^ .ra: .cfa -24 + ^ x29: .cfa -32 + ^
STACK CFI 32fac .cfa: sp 32 +
STACK CFI 32fb4 .cfa: sp 0 +
STACK CFI 32fb8 .cfa: sp 32 +
STACK CFI 32fc0 .cfa: sp 0 +
STACK CFI INIT 32ffc 78 .cfa: sp 0 +
STACK CFI 33000 .cfa: sp 48 +
STACK CFI 3300c .cfa: x29 48 + x19: .cfa -8 + ^ x20: .cfa -16 + ^ x21: .cfa -32 + ^ .ra: .cfa -40 + ^ x29: .cfa -48 + ^
STACK CFI 33054 .cfa: sp 48 +
STACK CFI 33060 .cfa: sp 0 +
STACK CFI 33064 .cfa: sp 48 +
STACK CFI 33070 .cfa: sp 0 +
STACK CFI INIT 33074 78 .cfa: sp 0 +
STACK CFI 33078 .cfa: sp 48 +
STACK CFI 33084 .cfa: x29 48 + x19: .cfa -8 + ^ x20: .cfa -16 + ^ x21: .cfa -32 + ^ .ra: .cfa -40 + ^ x29: .cfa -48 + ^
STACK CFI 330cc .cfa: sp 48 +
STACK CFI 330d8 .cfa: sp 0 +
STACK CFI 330dc .cfa: sp 48 +
STACK CFI 330e8 .cfa: sp 0 +
STACK CFI INIT 330ec 78 .cfa: sp 0 +
STACK CFI 330f0 .cfa: sp 48 +
STACK CFI 330fc .cfa: x29 48 + x19: .cfa -8 + ^ x20: .cfa -16 + ^ x21: .cfa -32 + ^ .ra: .cfa -40 + ^ x29: .cfa -48 + ^
STACK CFI 33144 .cfa: sp 48 +
STACK CFI 33150 .cfa: sp 0 +
STACK CFI 33154 .cfa: sp 48 +
STACK CFI 33160 .cfa: sp 0 +
STACK CFI INIT 33164 78 .cfa: sp 0 +
STACK CFI 33168 .cfa: sp 48 +
STACK CFI 33174 .cfa: x29 48 + x19: .cfa -8 + ^ x20: .cfa -16 + ^ x21: .cfa -32 + ^ .ra: .cfa -40 + ^ x29: .cfa -48 + ^
STACK CFI 331bc .cfa: sp 48 +
STACK CFI 331c8 .cfa: sp 0 +
STACK CFI 331cc .cfa: sp 48 +
STACK CFI 331d8 .cfa: sp 0 +
STACK CFI INIT 333a8 2b8 .cfa: sp 0 +
STACK CFI 333ac .cfa: sp 80 +
STACK CFI 333c0 .cfa: x29 80 + x19: .cfa -8 + ^ x20: .cfa -16 + ^ x21: .cfa -24 + ^ x22: .cfa -32 + ^ x23: .cfa -40 + ^ x24: .cfa -48 + ^ x25: .cfa -64 + ^ .ra: .cfa -72 + ^ x29: .cfa -80 + ^
STACK CFI 3356c .cfa: sp 80 +
STACK CFI 33580 .cfa: sp 0 +
STACK CFI 33584 .cfa: x29 80 +
STACK CFI 33648 .cfa: sp 80 +
STACK CFI 3365c .cfa: sp 0 +
STACK CFI INIT 33660 80 .cfa: sp 0 +
STACK CFI 33664 .cfa: sp 48 +
STACK CFI 33670 .cfa: x29 48 + x19: .cfa -8 + ^ x20: .cfa -16 + ^ x21: .cfa -32 + ^ .ra: .cfa -40 + ^ x29: .cfa -48 + ^
STACK CFI 336c0 .cfa: sp 48 +
STACK CFI 336cc .cfa: sp 0 +
STACK CFI 336d0 .cfa: sp 48 +
STACK CFI 336dc .cfa: sp 0 +
STACK CFI INIT 336e0 80 .cfa: sp 0 +
STACK CFI 336e4 .cfa: sp 48 +
STACK CFI 336f0 .cfa: x29 48 + x19: .cfa -8 + ^ x20: .cfa -16 + ^ x21: .cfa -32 + ^ .ra: .cfa -40 + ^ x29: .cfa -48 + ^
STACK CFI 33740 .cfa: sp 48 +
STACK CFI 3374c .cfa: sp 0 +
STACK CFI 33750 .cfa: sp 48 +
STACK CFI 3375c .cfa: sp 0 +
STACK CFI INIT 33900 2b8 .cfa: sp 0 +
STACK CFI INIT 33bb8 1bc .cfa: sp 0 +
STACK CFI 33bbc .cfa: sp 64 +
STACK CFI 33bcc .cfa: x29 64 + x19: .cfa -8 + ^ x20: .cfa -16 + ^ x21: .cfa -24 + ^ x22: .cfa -32 + ^ x23: .cfa -48 + ^ .ra: .cfa -56 + ^ x29: .cfa -64 + ^
STACK CFI 33cd0 .cfa: sp 64 +
STACK CFI 33ce0 .cfa: sp 0 +
STACK CFI 33ce4 .cfa: x29 64 +
STACK CFI INIT 33d74 80 .cfa: sp 0 +
STACK CFI 33d78 .cfa: sp 48 +
STACK CFI 33d84 .cfa: x29 48 + x19: .cfa -8 + ^ x20: .cfa -16 + ^ x21: .cfa -32 + ^ .ra: .cfa -40 + ^ x29: .cfa -48 + ^
STACK CFI 33dd4 .cfa: sp 48 +
STACK CFI 33de0 .cfa: sp 0 +
STACK CFI 33de4 .cfa: sp 48 +
STACK CFI 33df0 .cfa: sp 0 +
STACK CFI INIT 33df4 98 .cfa: sp 0 +
STACK CFI 33dfc .cfa: sp 48 +
STACK CFI 33e08 .cfa: x29 48 + x19: .cfa -8 + ^ x20: .cfa -16 + ^ x21: .cfa -32 + ^ .ra: .cfa -40 + ^ x29: .cfa -48 + ^
STACK CFI 33e58 .cfa: sp 0 + x19: x19 x20: x20 x21: x21 .ra: x30 x29: x29
STACK CFI 33e5c .cfa: x29 48 + x19: .cfa -8 + ^ x20: .cfa -16 + ^ x21: .cfa -32 + ^ .ra: .cfa -40 + ^ x29: .cfa -48 + ^
STACK CFI 33e7c .cfa: sp 48 +
STACK CFI 33e88 .cfa: sp 0 +
STACK CFI INIT 33e8c 54 .cfa: sp 0 +
STACK CFI 33e94 .cfa: sp 32 +
STACK CFI 33e9c .cfa: x29 32 + x19: .cfa -8 + ^ x20: .cfa -16 + ^ .ra: .cfa -24 + ^ x29: .cfa -32 + ^
STACK CFI 33ed4 .cfa: sp 32 +
STACK CFI 33edc .cfa: sp 0 +
STACK CFI INIT 33ee0 54 .cfa: sp 0 +
STACK CFI 33ee8 .cfa: sp 32 +
STACK CFI 33ef0 .cfa: x29 32 + x19: .cfa -8 + ^ x20: .cfa -16 + ^ .ra: .cfa -24 + ^ x29: .cfa -32 + ^
STACK CFI 33f28 .cfa: sp 32 +
STACK CFI 33f30 .cfa: sp 0 +
STACK CFI INIT 33fdc 54 .cfa: sp 0 +
STACK CFI 33fe4 .cfa: sp 32 +
STACK CFI 33fec .cfa: x29 32 + x19: .cfa -8 + ^ x20: .cfa -16 + ^ .ra: .cfa -24 + ^ x29: .cfa -32 + ^
STACK CFI 34024 .cfa: sp 32 +
STACK CFI 3402c .cfa: sp 0 +
STACK CFI INIT 34030 a8 .cfa: sp 0 +
STACK CFI 34038 .cfa: sp 48 +
STACK CFI 34044 .cfa: x29 48 + x19: .cfa -8 + ^ x20: .cfa -16 + ^ x21: .cfa -24 + ^ x22: .cfa -32 + ^ .ra: .cfa -40 + ^ x29: .cfa -48 + ^
STACK CFI 340c8 .cfa: sp 48 +
STACK CFI 340d4 .cfa: sp 0 +
STACK CFI INIT 340d8 54 .cfa: sp 0 +
STACK CFI 340e0 .cfa: sp 32 +
STACK CFI 340e8 .cfa: x29 32 + x19: .cfa -8 + ^ x20: .cfa -16 + ^ .ra: .cfa -24 + ^ x29: .cfa -32 + ^
STACK CFI 34120 .cfa: sp 32 +
STACK CFI 34128 .cfa: sp 0 +
STACK CFI INIT 3431c 4 .cfa: sp 0 +
STACK CFI INIT 34320 14 .cfa: sp 0 +
STACK CFI 34324 .cfa: sp 16 +
STACK CFI 34328 .cfa: x29 16 + .ra: .cfa -8 + ^ x29: .cfa -16 + ^
STACK CFI INIT 34ab4 1c .cfa: sp 0 +
STACK CFI INIT 34e58 4 .cfa: sp 0 +
STACK CFI INIT 35034 64 .cfa: sp 0 +
STACK CFI 35038 .cfa: sp 48 +
STACK CFI 35044 .cfa: x29 48 + x19: .cfa -8 + ^ x20: .cfa -16 + ^ x21: .cfa -32 + ^ .ra: .cfa -40 + ^ x29: .cfa -48 + ^
STACK CFI 35064 .cfa: sp 48 +
STACK CFI 35070 .cfa: sp 0 +
STACK CFI 35074 .cfa: x29 48 +
STACK CFI 35088 .cfa: sp 48 +
STACK CFI 35094 .cfa: sp 0 +
STACK CFI INIT 3530c 50 .cfa: sp 0 +
STACK CFI 35310 .cfa: sp 32 +
STACK CFI 35318 .cfa: x29 32 + x19: .cfa -16 + ^ .ra: .cfa -24 + ^ x29: .cfa -32 + ^
STACK CFI 35330 .cfa: sp 32 +
STACK CFI 35338 .cfa: sp 0 +
STACK CFI 3533c .cfa: x29 32 +
STACK CFI 35350 .cfa: sp 32 +
STACK CFI 35358 .cfa: sp 0 +
STACK CFI INIT 354e4 50 .cfa: sp 0 +
STACK CFI 354e8 .cfa: sp 32 +
STACK CFI 354f0 .cfa: x29 32 + x19: .cfa -16 + ^ .ra: .cfa -24 + ^ x29: .cfa -32 + ^
STACK CFI 35508 .cfa: sp 32 +
STACK CFI 35510 .cfa: sp 0 +
STACK CFI 35514 .cfa: x29 32 +
STACK CFI 35528 .cfa: sp 32 +
STACK CFI 35530 .cfa: sp 0 +
STACK CFI INIT 35b58 50 .cfa: sp 0 +
STACK CFI 35b5c .cfa: sp 32 +
STACK CFI 35b64 .cfa: x29 32 + x19: .cfa -16 + ^ .ra: .cfa -24 + ^ x29: .cfa -32 + ^
STACK CFI 35b7c .cfa: sp 32 +
STACK CFI 35b84 .cfa: sp 0 +
STACK CFI 35b88 .cfa: x29 32 +
STACK CFI 35b9c .cfa: sp 32 +
STACK CFI 35ba4 .cfa: sp 0 +
STACK CFI INIT 35ba8 4 .cfa: sp 0 +
STACK CFI INIT 35bac 38 .cfa: sp 0 +
STACK CFI 35bb0 .cfa: sp 32 +
STACK CFI 35bb8 .cfa: x29 32 + x19: .cfa -16 + ^ .ra: .cfa -24 + ^ x29: .cfa -32 + ^
STACK CFI 35bd8 .cfa: sp 32 +
STACK CFI 35be0 .cfa: sp 0 +
STACK CFI INIT 35be4 18 .cfa: sp 0 +
STACK CFI INIT 35bfc 4 .cfa: sp 0 +
STACK CFI INIT 35c00 4 .cfa: sp 0 +
STACK CFI INIT 35df0 1c .cfa: sp 0 +
STACK CFI INIT 35e0c c .cfa: sp 0 +
STACK CFI INIT 35e18 50 .cfa: sp 0 +
STACK CFI 35e1c .cfa: sp 32 +
STACK CFI 35e24 .cfa: x29 32 + x19: .cfa -16 + ^ .ra: .cfa -24 + ^ x29: .cfa -32 + ^
STACK CFI 35e3c .cfa: sp 32 +
STACK CFI 35e44 .cfa: sp 0 +
STACK CFI 35e48 .cfa: x29 32 +
STACK CFI 35e5c .cfa: sp 32 +
STACK CFI 35e64 .cfa: sp 0 +
STACK CFI INIT 35e68 4 .cfa: sp 0 +
STACK CFI INIT 35fe0 9c .cfa: sp 0 +
STACK CFI 35fe4 .cfa: sp 32 +
STACK CFI 35fec .cfa: x29 32 + x19: .cfa -8 + ^ x20: .cfa -16 + ^ .ra: .cfa -24 + ^ x29: .cfa -32 + ^
STACK CFI 36070 .cfa: sp 32 +
STACK CFI 36078 .cfa: sp 0 +
STACK CFI INIT 3607c a4 .cfa: sp 0 +
STACK CFI 36080 .cfa: sp 32 +
STACK CFI 36088 .cfa: x29 32 + x19: .cfa -8 + ^ x20: .cfa -16 + ^ .ra: .cfa -24 + ^ x29: .cfa -32 + ^
STACK CFI 36114 .cfa: sp 32 +
STACK CFI 3611c .cfa: sp 0 +
STACK CFI INIT 36120 4 .cfa: sp 0 +
STACK CFI INIT 36124 38 .cfa: sp 0 +
STACK CFI 36128 .cfa: sp 32 +
STACK CFI 36130 .cfa: x29 32 + x19: .cfa -16 + ^ .ra: .cfa -24 + ^ x29: .cfa -32 + ^
STACK CFI 36150 .cfa: sp 32 +
STACK CFI 36158 .cfa: sp 0 +
STACK CFI INIT 3615c 18 .cfa: sp 0 +
STACK CFI INIT 36174 4 .cfa: sp 0 +
STACK CFI INIT 36178 4 .cfa: sp 0 +
STACK CFI INIT 3635c 1c .cfa: sp 0 +
STACK CFI INIT 36378 c .cfa: sp 0 +
STACK CFI INIT 36384 4 .cfa: sp 0 +
STACK CFI INIT 36388 38 .cfa: sp 0 +
STACK CFI 3638c .cfa: sp 32 +
STACK CFI 36394 .cfa: x29 32 + x19: .cfa -16 + ^ .ra: .cfa -24 + ^ x29: .cfa -32 + ^
STACK CFI 363b4 .cfa: sp 32 +
STACK CFI 363bc .cfa: sp 0 +
STACK CFI INIT 363c0 18 .cfa: sp 0 +
STACK CFI INIT 363d8 4 .cfa: sp 0 +
STACK CFI INIT 363dc 4 .cfa: sp 0 +
STACK CFI INIT 365c8 1c .cfa: sp 0 +
STACK CFI INIT 365e4 c .cfa: sp 0 +
STACK CFI INIT 365f0 4 .cfa: sp 0 +
STACK CFI INIT 365f4 4 .cfa: sp 0 +
STACK CFI INIT 365f8 38 .cfa: sp 0 +
STACK CFI 365fc .cfa: sp 32 +
STACK CFI 36604 .cfa: x29 32 + x19: .cfa -16 + ^ .ra: .cfa -24 + ^ x29: .cfa -32 + ^
STACK CFI 36624 .cfa: sp 32 +
STACK CFI 3662c .cfa: sp 0 +
STACK CFI INIT 36630 18 .cfa: sp 0 +
STACK CFI INIT 36648 4 .cfa: sp 0 +
STACK CFI INIT 3664c 4 .cfa: sp 0 +
STACK CFI INIT 3683c 1c .cfa: sp 0 +
STACK CFI INIT 36858 c .cfa: sp 0 +
STACK CFI INIT 36864 4 .cfa: sp 0 +
STACK CFI INIT 369dc 5c .cfa: sp 0 +
STACK CFI 369e0 .cfa: sp 32 +
STACK CFI 369e8 .cfa: x29 32 + x19: .cfa -16 + ^ .ra: .cfa -24 + ^ x29: .cfa -32 + ^
STACK CFI 36a2c .cfa: sp 32 +
STACK CFI 36a34 .cfa: sp 0 +
STACK CFI INIT 36a38 64 .cfa: sp 0 +
STACK CFI 36a3c .cfa: sp 32 +
STACK CFI 36a44 .cfa: x29 32 + x19: .cfa -16 + ^ .ra: .cfa -24 + ^ x29: .cfa -32 + ^
STACK CFI 36a90 .cfa: sp 32 +
STACK CFI 36a98 .cfa: sp 0 +
STACK CFI INIT 36a9c 4 .cfa: sp 0 +
STACK CFI INIT 36aa0 4 .cfa: sp 0 +
STACK CFI INIT 36aa4 34 .cfa: sp 0 +
STACK CFI 36aa8 .cfa: sp 32 +
STACK CFI 36ab0 .cfa: x29 32 + x19: .cfa -16 + ^ .ra: .cfa -24 + ^ x29: .cfa -32 + ^
STACK CFI 36acc .cfa: sp 32 +
STACK CFI 36ad4 .cfa: sp 0 +
STACK CFI INIT 36ad8 14 .cfa: sp 0 +
STACK CFI INIT 36aec 4 .cfa: sp 0 +
STACK CFI INIT 36af0 4 .cfa: sp 0 +
STACK CFI INIT 36af4 10 .cfa: sp 0 +
STACK CFI INIT 36b04 1c .cfa: sp 0 +
STACK CFI INIT 36b20 c .cfa: sp 0 +
STACK CFI INIT 36c58 3c .cfa: sp 0 +
STACK CFI 36c5c .cfa: sp 32 +
STACK CFI 36c64 .cfa: x29 32 + x19: .cfa -16 + ^ .ra: .cfa -24 + ^ x29: .cfa -32 + ^
STACK CFI 36c70 .cfa: sp 32 +
STACK CFI 36c78 .cfa: sp 0 +
STACK CFI 36c7c .cfa: x29 32 +
STACK CFI 36c88 .cfa: sp 32 +
STACK CFI 36c90 .cfa: sp 0 +
STACK CFI INIT 36c94 4c .cfa: sp 0 +
STACK CFI 36c98 .cfa: sp 32 +
STACK CFI 36ca0 .cfa: x29 32 + x19: .cfa -8 + ^ x20: .cfa -16 + ^ .ra: .cfa -24 + ^ x29: .cfa -32 + ^
STACK CFI 36cc8 .cfa: sp 32 +
STACK CFI 36cd0 .cfa: sp 0 +
STACK CFI 36cd4 .cfa: sp 32 +
STACK CFI 36cdc .cfa: sp 0 +
STACK CFI INIT 36f00 64 .cfa: sp 0 +
STACK CFI 36f04 .cfa: sp 32 +
STACK CFI 36f0c .cfa: x29 32 + x19: .cfa -16 + ^ .ra: .cfa -24 + ^ x29: .cfa -32 + ^
STACK CFI 36f38 .cfa: sp 32 +
STACK CFI 36f40 .cfa: sp 0 +
STACK CFI 36f44 .cfa: x29 32 +
STACK CFI 36f58 .cfa: sp 32 +
STACK CFI 36f60 .cfa: sp 0 +
STACK CFI INIT 36f64 24 .cfa: sp 0 +
STACK CFI 36f68 .cfa: sp 32 +
STACK CFI 36f70 .cfa: x29 32 + x19: .cfa -16 + ^ .ra: .cfa -24 + ^ x29: .cfa -32 + ^
STACK CFI 36f7c .cfa: sp 32 +
STACK CFI 36f84 .cfa: sp 0 +
STACK CFI INIT 36f88 24 .cfa: sp 0 +
STACK CFI 36f8c .cfa: sp 32 +
STACK CFI 36f94 .cfa: x29 32 + x19: .cfa -16 + ^ .ra: .cfa -24 + ^ x29: .cfa -32 + ^
STACK CFI 36fa0 .cfa: sp 32 +
STACK CFI 36fa8 .cfa: sp 0 +
STACK CFI INIT 36fac 24 .cfa: sp 0 +
STACK CFI 36fb0 .cfa: sp 32 +
STACK CFI 36fb8 .cfa: x29 32 + x19: .cfa -16 + ^ .ra: .cfa -24 + ^ x29: .cfa -32 + ^
STACK CFI 36fc4 .cfa: sp 32 +
STACK CFI 36fcc .cfa: sp 0 +
STACK CFI INIT 36fd0 8 .cfa: sp 0 +
STACK CFI INIT 36fd8 24 .cfa: sp 0 +
STACK CFI 36fdc .cfa: sp 32 +
STACK CFI 36fe4 .cfa: x29 32 + x19: .cfa -16 + ^ .ra: .cfa -24 + ^ x29: .cfa -32 + ^
STACK CFI 36ff0 .cfa: sp 32 +
STACK CFI 36ff8 .cfa: sp 0 +
STACK CFI INIT 36ffc 28 .cfa: sp 0 +
STACK CFI 37000 .cfa: sp 32 +
STACK CFI 37008 .cfa: x29 32 + x19: .cfa -16 + ^ .ra: .cfa -24 + ^ x29: .cfa -32 + ^
STACK CFI 37018 .cfa: sp 32 +
STACK CFI 37020 .cfa: sp 0 +
STACK CFI INIT 37024 24 .cfa: sp 0 +
STACK CFI 37028 .cfa: sp 32 +
STACK CFI 37030 .cfa: x29 32 + x19: .cfa -16 + ^ .ra: .cfa -24 + ^ x29: .cfa -32 + ^
STACK CFI 3703c .cfa: sp 32 +
STACK CFI 37044 .cfa: sp 0 +
STACK CFI INIT 399a0 8 .cfa: sp 0 +
STACK CFI INIT 399a8 24 .cfa: sp 0 +
STACK CFI 399ac .cfa: sp 32 +
STACK CFI 399b4 .cfa: x29 32 + x19: .cfa -16 + ^ .ra: .cfa -24 + ^ x29: .cfa -32 + ^
STACK CFI 399c0 .cfa: sp 32 +
STACK CFI 399c8 .cfa: sp 0 +
STACK CFI INIT 399cc 28 .cfa: sp 0 +
STACK CFI 399d0 .cfa: sp 32 +
STACK CFI 399d8 .cfa: x29 32 + x19: .cfa -16 + ^ .ra: .cfa -24 + ^ x29: .cfa -32 + ^
STACK CFI 399e8 .cfa: sp 32 +
STACK CFI 399f0 .cfa: sp 0 +
STACK CFI INIT 3a00c 8 .cfa: sp 0 +
STACK CFI INIT 3a73c 8 .cfa: sp 0 +
STACK CFI INIT 3ab74 8 .cfa: sp 0 +
STACK CFI INIT 3add0 4 .cfa: sp 0 +
STACK CFI INIT 3add4 8 .cfa: sp 0 +
STACK CFI INIT 3addc 8 .cfa: sp 0 +
STACK CFI INIT 3ade4 4 .cfa: sp 0 +
STACK CFI INIT 3bfc8 8 .cfa: sp 0 +
STACK CFI INIT 3bfd0 24 .cfa: sp 0 +
STACK CFI 3bfd4 .cfa: sp 32 +
STACK CFI 3bfdc .cfa: x29 32 + x19: .cfa -16 + ^ .ra: .cfa -24 + ^ x29: .cfa -32 + ^
STACK CFI 3bfe8 .cfa: sp 32 +
STACK CFI 3bff0 .cfa: sp 0 +
STACK CFI INIT 3bff4 28 .cfa: sp 0 +
STACK CFI 3bff8 .cfa: sp 32 +
STACK CFI 3c000 .cfa: x29 32 + x19: .cfa -16 + ^ .ra: .cfa -24 + ^ x29: .cfa -32 + ^
STACK CFI 3c010 .cfa: sp 32 +
STACK CFI 3c018 .cfa: sp 0 +
STACK CFI INIT 3c270 8 .cfa: sp 0 +
STACK CFI INIT 3c278 4 .cfa: sp 0 +
STACK CFI INIT 3c27c 4 .cfa: sp 0 +
STACK CFI INIT 3c280 8 .cfa: sp 0 +
STACK CFI INIT 3c288 4 .cfa: sp 0 +
STACK CFI INIT 3c28c 8 .cfa: sp 0 +
STACK CFI INIT 3c294 c .cfa: sp 0 +
STACK CFI INIT 3c2a0 c .cfa: sp 0 +
STACK CFI INIT 3c2ac 8 .cfa: sp 0 +
STACK CFI INIT 3c2b4 8 .cfa: sp 0 +
STACK CFI INIT 3c2bc 8 .cfa: sp 0 +
STACK CFI INIT 3c2c4 8 .cfa: sp 0 +
STACK CFI INIT 3c2cc 4 .cfa: sp 0 +
STACK CFI INIT 3c2d0 4 .cfa: sp 0 +
STACK CFI INIT 3c2d4 4 .cfa: sp 0 +
STACK CFI INIT 3c2d8 4 .cfa: sp 0 +
STACK CFI INIT 3ce2c 4 .cfa: sp 0 +
STACK CFI INIT 3ce30 14 .cfa: sp 0 +
STACK CFI INIT 3d324 c .cfa: sp 0 +
STACK CFI INIT 3d330 24c .cfa: sp 0 +
STACK CFI INIT 3d57c a0 .cfa: sp 0 +
STACK CFI 3d588 .cfa: sp 32 +
STACK CFI 3d5e0 .cfa: sp 0 +
STACK CFI 3d5e4 .cfa: sp 32 +
STACK CFI 3d5ec .cfa: sp 0 +
STACK CFI 3d5f0 .cfa: sp 32 +
STACK CFI 3d604 .cfa: sp 0 +
STACK CFI 3d608 .cfa: sp 32 +
STACK CFI 3d618 .cfa: sp 0 +
STACK CFI INIT 3d61c 38 .cfa: sp 0 +
STACK CFI 3d628 .cfa: sp 32 +
STACK CFI 3d650 .cfa: sp 0 +
STACK CFI INIT 3d8e8 7c .cfa: sp 0 +
STACK CFI 3d8ec .cfa: sp 32 +
STACK CFI 3d8f4 .cfa: x29 32 + x19: .cfa -16 + ^ .ra: .cfa -24 + ^ x29: .cfa -32 + ^
STACK CFI 3d920 .cfa: sp 32 +
STACK CFI 3d928 .cfa: sp 0 +
STACK CFI 3d92c .cfa: x29 32 +
STACK CFI 3d958 .cfa: sp 32 +
STACK CFI 3d960 .cfa: sp 0 +
STACK CFI INIT 3d9b4 2c .cfa: sp 0 +
STACK CFI 3d9b8 .cfa: sp 32 +
STACK CFI 3d9c0 .cfa: x29 32 + x19: .cfa -16 + ^ .ra: .cfa -24 + ^ x29: .cfa -32 + ^
STACK CFI 3d9d4 .cfa: sp 32 +
STACK CFI 3d9dc .cfa: sp 0 +
STACK CFI INIT 3e1a0 64 .cfa: sp 0 +
STACK CFI 3e1a4 .cfa: sp 32 +
STACK CFI 3e1ac .cfa: x29 32 + x19: .cfa -16 + ^ .ra: .cfa -24 + ^ x29: .cfa -32 + ^
STACK CFI 3e1c8 .cfa: sp 32 +
STACK CFI 3e1d0 .cfa: sp 0 +
STACK CFI 3e1d4 .cfa: x29 32 +
STACK CFI 3e1f8 .cfa: sp 32 +
STACK CFI 3e200 .cfa: sp 0 +
STACK CFI INIT 3e204 570 .cfa: sp 0 +
STACK CFI 3e208 .cfa: sp 176 +
STACK CFI 3e21c .cfa: x29 64 + x19: .cfa -8 + ^ x20: .cfa -16 + ^ x21: .cfa -24 + ^ x22: .cfa -32 + ^ x23: .cfa -40 + ^ x24: .cfa -48 + ^ .ra: .cfa -56 + ^ x29: .cfa -64 + ^
STACK CFI 3e44c .cfa: sp 176 +
STACK CFI 3e460 .cfa: sp 0 +
STACK CFI 3e464 .cfa: x29 64 +
STACK CFI 3e4b0 .cfa: sp 176 +
STACK CFI 3e4c4 .cfa: sp 0 +
STACK CFI 3e4c8 .cfa: x29 64 +
STACK CFI 3e500 .cfa: sp 176 +
STACK CFI 3e514 .cfa: sp 0 +
STACK CFI 3e518 .cfa: x29 64 +
STACK CFI 3e530 .cfa: sp 176 +
STACK CFI 3e544 .cfa: sp 0 +
STACK CFI 3e548 .cfa: x29 64 +
STACK CFI 3e568 .cfa: sp 176 +
STACK CFI 3e57c .cfa: sp 0 +
STACK CFI 3e580 .cfa: x29 64 +
STACK CFI 3e598 .cfa: sp 176 +
STACK CFI 3e5ac .cfa: sp 0 +
STACK CFI 3e5b0 .cfa: x29 64 +
STACK CFI 3e5c4 .cfa: sp 176 +
STACK CFI 3e5d8 .cfa: sp 0 +
STACK CFI 3e5dc .cfa: x29 64 +
STACK CFI 3e5f0 .cfa: sp 176 +
STACK CFI 3e604 .cfa: sp 0 +
STACK CFI 3e608 .cfa: x29 64 +
STACK CFI 3e618 .cfa: sp 176 +
STACK CFI 3e62c .cfa: sp 0 +
STACK CFI 3e630 .cfa: x29 64 +
STACK CFI 3e640 .cfa: sp 176 +
STACK CFI 3e654 .cfa: sp 0 +
STACK CFI 3e658 .cfa: x29 64 +
STACK CFI 3e670 .cfa: sp 176 +
STACK CFI 3e684 .cfa: sp 0 +
STACK CFI 3e688 .cfa: x29 64 +
STACK CFI 3e69c .cfa: sp 176 +
STACK CFI 3e6b0 .cfa: sp 0 +
STACK CFI 3e6b4 .cfa: x29 64 +
STACK CFI 3e6cc .cfa: sp 176 +
STACK CFI 3e6e0 .cfa: sp 0 +
STACK CFI 3e6e4 .cfa: x29 64 +
STACK CFI 3e710 .cfa: sp 176 +
STACK CFI 3e724 .cfa: sp 0 +
STACK CFI 3e728 .cfa: x29 64 +
STACK CFI 3e73c .cfa: sp 176 +
STACK CFI 3e750 .cfa: sp 0 +
STACK CFI 3e754 .cfa: x29 64 +
STACK CFI INIT 3e774 228 .cfa: sp 0 +
STACK CFI INIT 3e99c 2dc .cfa: sp 0 +
STACK CFI INIT 3ec78 53c .cfa: sp 0 +
STACK CFI INIT 3f1b4 78 .cfa: sp 0 +
STACK CFI 3f1b8 .cfa: sp 48 +
STACK CFI 3f1c4 .cfa: x29 48 + x19: .cfa -8 + ^ x20: .cfa -16 + ^ x21: .cfa -24 + ^ x22: .cfa -32 + ^ .ra: .cfa -40 + ^ x29: .cfa -48 + ^
STACK CFI 3f20c .cfa: sp 48 +
STACK CFI 3f218 .cfa: sp 0 +
STACK CFI 3f21c .cfa: sp 48 +
STACK CFI 3f228 .cfa: sp 0 +
STACK CFI INIT 3f22c 8c .cfa: sp 0 +
STACK CFI 3f230 .cfa: sp 32 +
STACK CFI 3f238 .cfa: x29 32 + x19: .cfa -16 + ^ .ra: .cfa -24 + ^ x29: .cfa -32 + ^
STACK CFI 3f26c .cfa: sp 32 +
STACK CFI 3f274 .cfa: sp 0 +
STACK CFI 3f278 .cfa: x29 32 +
STACK CFI 3f2ac .cfa: sp 32 +
STACK CFI 3f2b4 .cfa: sp 0 +
STACK CFI INIT 3f2b8 24 .cfa: sp 0 +
STACK CFI 3f2bc .cfa: sp 32 +
STACK CFI 3f2c4 .cfa: x29 32 + x19: .cfa -16 + ^ .ra: .cfa -24 + ^ x29: .cfa -32 + ^
STACK CFI 3f2d0 .cfa: sp 32 +
STACK CFI 3f2d8 .cfa: sp 0 +
STACK CFI INIT 3f2dc 150 .cfa: sp 0 +
STACK CFI 3f2e0 .cfa: sp 48 +
STACK CFI 3f2ec .cfa: x29 48 + x19: .cfa -8 + ^ x20: .cfa -16 + ^ x21: .cfa -24 + ^ x22: .cfa -32 + ^ .ra: .cfa -40 + ^ x29: .cfa -48 + ^
STACK CFI 3f41c .cfa: sp 48 +
STACK CFI 3f428 .cfa: sp 0 +
STACK CFI INIT 3f42c 68 .cfa: sp 0 +
STACK CFI 3f430 .cfa: sp 64 +
STACK CFI 3f43c .cfa: x29 32 + x19: .cfa -16 + ^ .ra: .cfa -24 + ^ x29: .cfa -32 + ^
STACK CFI 3f480 .cfa: sp 64 +
STACK CFI 3f48c .cfa: sp 0 +
STACK CFI 3f490 .cfa: x29 32 +
STACK CFI INIT 3f494 90 .cfa: sp 0 +
STACK CFI 3f498 .cfa: sp 32 +
STACK CFI 3f4a0 .cfa: x29 32 + x19: .cfa -8 + ^ x20: .cfa -16 + ^ .ra: .cfa -24 + ^ x29: .cfa -32 + ^
STACK CFI 3f4cc .cfa: sp 32 +
STACK CFI 3f4d4 .cfa: sp 0 +
STACK CFI 3f4d8 .cfa: x29 32 +
STACK CFI 3f518 .cfa: sp 32 +
STACK CFI 3f520 .cfa: sp 0 +
STACK CFI INIT 3f524 ec .cfa: sp 0 +
STACK CFI 3f528 .cfa: sp 112 +
STACK CFI 3f538 .cfa: x29 48 + x19: .cfa -8 + ^ x20: .cfa -16 + ^ x21: .cfa -32 + ^ .ra: .cfa -40 + ^ x29: .cfa -48 + ^
STACK CFI 3f5f8 .cfa: sp 112 +
STACK CFI 3f608 .cfa: sp 0 +
STACK CFI 3f60c .cfa: x29 48 +
STACK CFI INIT 3f610 ec .cfa: sp 0 +
STACK CFI 3f614 .cfa: sp 112 +
STACK CFI 3f624 .cfa: x29 48 + x19: .cfa -8 + ^ x20: .cfa -16 + ^ x21: .cfa -32 + ^ .ra: .cfa -40 + ^ x29: .cfa -48 + ^
STACK CFI 3f6e4 .cfa: sp 112 +
STACK CFI 3f6f4 .cfa: sp 0 +
STACK CFI 3f6f8 .cfa: x29 48 +
STACK CFI INIT 3f6fc 48 .cfa: sp 0 +
STACK CFI 3f700 .cfa: sp 32 +
STACK CFI 3f708 .cfa: x29 32 + x19: .cfa -8 + ^ x20: .cfa -16 + ^ .ra: .cfa -24 + ^ x29: .cfa -32 + ^
STACK CFI 3f72c .cfa: sp 32 +
STACK CFI 3f734 .cfa: sp 0 +
STACK CFI 3f738 .cfa: x29 32 +
STACK CFI INIT 3f744 98 .cfa: sp 0 +
STACK CFI 3f748 .cfa: sp 80 +
STACK CFI 3f754 .cfa: x29 32 + x19: .cfa -16 + ^ .ra: .cfa -24 + ^ x29: .cfa -32 + ^
STACK CFI 3f7c8 .cfa: sp 80 +
STACK CFI 3f7d4 .cfa: sp 0 +
STACK CFI 3f7d8 .cfa: x29 32 +
STACK CFI INIT 3f7dc 260 .cfa: sp 0 +
STACK CFI 3f7e0 .cfa: sp 112 +
STACK CFI 3f7f8 .cfa: x29 80 + x19: .cfa -8 + ^ x20: .cfa -16 + ^ x21: .cfa -24 + ^ x22: .cfa -32 + ^ x23: .cfa -40 + ^ x24: .cfa -48 + ^ x25: .cfa -64 + ^ .ra: .cfa -72 + ^ x29: .cfa -80 + ^
STACK CFI 3f9dc .cfa: sp 112 +
STACK CFI 3f9f4 .cfa: sp 0 +
STACK CFI 3f9f8 .cfa: x29 80 +
STACK CFI INIT 3fa3c 150 .cfa: sp 0 +
STACK CFI 3fa40 .cfa: sp 48 +
STACK CFI 3fa4c .cfa: x29 48 + x19: .cfa -8 + ^ x20: .cfa -16 + ^ x21: .cfa -24 + ^ x22: .cfa -32 + ^ .ra: .cfa -40 + ^ x29: .cfa -48 + ^
STACK CFI 3fb7c .cfa: sp 48 +
STACK CFI 3fb88 .cfa: sp 0 +
STACK CFI INIT 3fb8c 1e0 .cfa: sp 0 +
STACK CFI 3fb90 .cfa: sp 96 +
STACK CFI 3fba4 .cfa: x29 64 + x19: .cfa -8 + ^ x20: .cfa -16 + ^ x21: .cfa -24 + ^ x22: .cfa -32 + ^ x23: .cfa -40 + ^ x24: .cfa -48 + ^ .ra: .cfa -56 + ^ x29: .cfa -64 + ^
STACK CFI 3fd24 .cfa: sp 96 +
STACK CFI 3fd38 .cfa: sp 0 +
STACK CFI 3fd3c .cfa: x29 64 +
STACK CFI INIT 3fd6c 284 .cfa: sp 0 +
STACK CFI 3fd70 .cfa: sp 112 +
STACK CFI 3fd88 .cfa: x29 80 + x19: .cfa -8 + ^ x20: .cfa -16 + ^ x21: .cfa -24 + ^ x22: .cfa -32 + ^ x23: .cfa -40 + ^ x24: .cfa -48 + ^ x25: .cfa -64 + ^ .ra: .cfa -72 + ^ x29: .cfa -80 + ^
STACK CFI 3ff90 .cfa: sp 112 +
STACK CFI 3ffa8 .cfa: sp 0 +
STACK CFI 3ffac .cfa: x29 80 +
STACK CFI INIT 3fff0 208 .cfa: sp 0 +
STACK CFI 3fff4 .cfa: sp 96 +
STACK CFI 40008 .cfa: x29 64 + x19: .cfa -8 + ^ x20: .cfa -16 + ^ x21: .cfa -24 + ^ x22: .cfa -32 + ^ x23: .cfa -40 + ^ x24: .cfa -48 + ^ .ra: .cfa -56 + ^ x29: .cfa -64 + ^
STACK CFI 401b0 .cfa: sp 96 +
STACK CFI 401c4 .cfa: sp 0 +
STACK CFI 401c8 .cfa: x29 64 +
STACK CFI INIT 401f8 360 .cfa: sp 0 +
STACK CFI 401fc .cfa: sp 160 +
STACK CFI 40218 .cfa: x29 96 + x19: .cfa -8 + ^ x20: .cfa -16 + ^ x21: .cfa -24 + ^ x22: .cfa -32 + ^ x23: .cfa -40 + ^ x24: .cfa -48 + ^ x25: .cfa -56 + ^ x26: .cfa -64 + ^ x27: .cfa -72 + ^ x28: .cfa -80 + ^ .ra: .cfa -88 + ^ x29: .cfa -96 + ^
STACK CFI 404e4 .cfa: sp 160 +
STACK CFI 40500 .cfa: sp 0 +
STACK CFI 40504 .cfa: x29 96 +
STACK CFI INIT 40558 314 .cfa: sp 0 +
STACK CFI 4055c .cfa: sp 144 +
STACK CFI 40578 .cfa: x29 96 + x19: .cfa -8 + ^ x20: .cfa -16 + ^ x21: .cfa -24 + ^ x22: .cfa -32 + ^ x23: .cfa -40 + ^ x24: .cfa -48 + ^ x25: .cfa -56 + ^ x26: .cfa -64 + ^ x27: .cfa -72 + ^ x28: .cfa -80 + ^ .ra: .cfa -88 + ^ x29: .cfa -96 + ^
STACK CFI 407f4 .cfa: sp 144 +
STACK CFI 40810 .cfa: sp 0 +
STACK CFI 40814 .cfa: x29 96 +
STACK CFI INIT 4086c 290 .cfa: sp 0 +
STACK CFI 40870 .cfa: sp 128 +
STACK CFI 40888 .cfa: x29 80 + x19: .cfa -8 + ^ x20: .cfa -16 + ^ x21: .cfa -24 + ^ x22: .cfa -32 + ^ x23: .cfa -40 + ^ x24: .cfa -48 + ^ x25: .cfa -56 + ^ x26: .cfa -64 + ^ .ra: .cfa -72 + ^ x29: .cfa -80 + ^
STACK CFI 40adc .cfa: sp 128 +
STACK CFI 40af4 .cfa: sp 0 +
STACK CFI 40af8 .cfa: x29 80 +
STACK CFI INIT 40afc ddc .cfa: sp 0 +
STACK CFI 40b00 .cfa: sp 144 +
STACK CFI 40b1c .cfa: x29 96 + x19: .cfa -8 + ^ x20: .cfa -16 + ^ x21: .cfa -24 + ^ x22: .cfa -32 + ^ x23: .cfa -40 + ^ x24: .cfa -48 + ^ x25: .cfa -56 + ^ x26: .cfa -64 + ^ x27: .cfa -72 + ^ x28: .cfa -80 + ^ .ra: .cfa -88 + ^ x29: .cfa -96 + ^
STACK CFI 417b0 .cfa: sp 144 +
STACK CFI 417cc .cfa: sp 0 +
STACK CFI 417d0 .cfa: x29 96 +
STACK CFI INIT 418d8 1d0 .cfa: sp 0 +
STACK CFI 418dc .cfa: sp 80 +
STACK CFI 418f0 .cfa: x29 80 + x19: .cfa -8 + ^ x20: .cfa -16 + ^ x21: .cfa -24 + ^ x22: .cfa -32 + ^ x23: .cfa -40 + ^ x24: .cfa -48 + ^ x25: .cfa -64 + ^ .ra: .cfa -72 + ^ x29: .cfa -80 + ^
STACK CFI 41a90 .cfa: sp 80 +
STACK CFI 41aa4 .cfa: sp 0 +
STACK CFI INIT 41aa8 23c .cfa: sp 0 +
STACK CFI 41aac .cfa: sp 112 +
STACK CFI 41ac0 .cfa: x29 64 + x19: .cfa -8 + ^ x20: .cfa -16 + ^ x21: .cfa -24 + ^ x22: .cfa -32 + ^ x23: .cfa -40 + ^ x24: .cfa -48 + ^ .ra: .cfa -56 + ^ x29: .cfa -64 + ^
STACK CFI 41c9c .cfa: sp 112 +
STACK CFI 41cb0 .cfa: sp 0 +
STACK CFI 41cb4 .cfa: x29 64 +
STACK CFI INIT 41ce4 30c .cfa: sp 0 +
STACK CFI 41ce8 .cfa: sp 80 +
STACK CFI 41cfc .cfa: x29 64 + x19: .cfa -8 + ^ x20: .cfa -16 + ^ x21: .cfa -24 + ^ x22: .cfa -32 + ^ x23: .cfa -40 + ^ x24: .cfa -48 + ^ .ra: .cfa -56 + ^ x29: .cfa -64 + ^
STACK CFI 41e78 .cfa: sp 80 +
STACK CFI 41e8c .cfa: sp 0 +
STACK CFI 41e90 .cfa: x29 64 +
STACK CFI INIT 41ff0 178 .cfa: sp 0 +
STACK CFI 41ff4 .cfa: sp 80 +
STACK CFI 42008 .cfa: x29 64 + x19: .cfa -8 + ^ x20: .cfa -16 + ^ x21: .cfa -24 + ^ x22: .cfa -32 + ^ x23: .cfa -40 + ^ x24: .cfa -48 + ^ .ra: .cfa -56 + ^ x29: .cfa -64 + ^
STACK CFI 4214c .cfa: sp 80 +
STACK CFI 42160 .cfa: sp 0 +
STACK CFI 42164 .cfa: x29 64 +
STACK CFI INIT 42168 178 .cfa: sp 0 +
STACK CFI 4216c .cfa: sp 80 +
STACK CFI 42180 .cfa: x29 64 + x19: .cfa -8 + ^ x20: .cfa -16 + ^ x21: .cfa -24 + ^ x22: .cfa -32 + ^ x23: .cfa -40 + ^ x24: .cfa -48 + ^ .ra: .cfa -56 + ^ x29: .cfa -64 + ^
STACK CFI 422c4 .cfa: sp 80 +
STACK CFI 422d8 .cfa: sp 0 +
STACK CFI 422dc .cfa: x29 64 +
STACK CFI INIT 422e0 240 .cfa: sp 0 +
STACK CFI 422e4 .cfa: sp 96 +
STACK CFI 422fc .cfa: x29 96 + x19: .cfa -8 + ^ x20: .cfa -16 + ^ x21: .cfa -24 + ^ x22: .cfa -32 + ^ x23: .cfa -40 + ^ x24: .cfa -48 + ^ x25: .cfa -56 + ^ x26: .cfa -64 + ^ x27: .cfa -72 + ^ x28: .cfa -80 + ^ .ra: .cfa -88 + ^ x29: .cfa -96 + ^
STACK CFI 42504 .cfa: sp 96 +
STACK CFI 4251c .cfa: sp 0 +
STACK CFI INIT 43194 154 .cfa: sp 0 +
STACK CFI 43198 .cfa: sp 96 +
STACK CFI 431ac .cfa: x29 64 + x19: .cfa -8 + ^ x20: .cfa -16 + ^ x21: .cfa -24 + ^ x22: .cfa -32 + ^ x23: .cfa -48 + ^ .ra: .cfa -56 + ^ x29: .cfa -64 + ^
STACK CFI 4328c .cfa: sp 96 +
STACK CFI 432a0 .cfa: sp 0 +
STACK CFI 432a4 .cfa: x29 64 +
STACK CFI INIT 43554 44 .cfa: sp 0 +
STACK CFI 43558 .cfa: sp 32 +
STACK CFI 43560 .cfa: x29 32 + x19: .cfa -16 + ^ .ra: .cfa -24 + ^ x29: .cfa -32 + ^
STACK CFI 4357c .cfa: sp 32 +
STACK CFI 43584 .cfa: sp 0 +
STACK CFI 43588 .cfa: x29 32 +
STACK CFI 4358c .cfa: sp 32 +
STACK CFI 43594 .cfa: sp 0 +
STACK CFI INIT 43598 1d0 .cfa: sp 0 +
STACK CFI 4359c .cfa: sp 64 +
STACK CFI 435ac .cfa: x29 64 + x19: .cfa -8 + ^ x20: .cfa -16 + ^ x21: .cfa -24 + ^ x22: .cfa -32 + ^ x23: .cfa -40 + ^ x24: .cfa -48 + ^ .ra: .cfa -56 + ^ x29: .cfa -64 + ^
STACK CFI 4366c .cfa: sp 64 +
STACK CFI 4367c .cfa: sp 0 +
STACK CFI 43680 .cfa: x29 64 +
STACK CFI INIT 43768 17c .cfa: sp 0 +
STACK CFI INIT 438e4 ac .cfa: sp 0 +
STACK CFI 438e8 .cfa: sp 64 +
STACK CFI 438f8 .cfa: x29 64 + x19: .cfa -8 + ^ x20: .cfa -16 + ^ x21: .cfa -24 + ^ x22: .cfa -32 + ^ x23: .cfa -48 + ^ .ra: .cfa -56 + ^ x29: .cfa -64 + ^
STACK CFI 43974 .cfa: sp 64 +
STACK CFI 43984 .cfa: sp 0 +
STACK CFI 43988 .cfa: x29 64 +
STACK CFI INIT 43990 110 .cfa: sp 0 +
STACK CFI 43994 .cfa: sp 64 +
STACK CFI 439a4 .cfa: x29 64 + x19: .cfa -8 + ^ x20: .cfa -16 + ^ x21: .cfa -24 + ^ x22: .cfa -32 + ^ x23: .cfa -40 + ^ x24: .cfa -48 + ^ .ra: .cfa -56 + ^ x29: .cfa -64 + ^
STACK CFI 43a84 .cfa: sp 64 +
STACK CFI 43a94 .cfa: sp 0 +
STACK CFI 43a98 .cfa: x29 64 +
STACK CFI INIT 43e58 a0 .cfa: sp 0 +
STACK CFI 43e5c .cfa: sp 48 +
STACK CFI 43e68 .cfa: x29 48 + x19: .cfa -8 + ^ x20: .cfa -16 + ^ x21: .cfa -24 + ^ x22: .cfa -32 + ^ .ra: .cfa -40 + ^ x29: .cfa -48 + ^
STACK CFI 43ed4 .cfa: sp 48 +
STACK CFI 43ee0 .cfa: sp 0 +
STACK CFI 43ee4 .cfa: sp 48 +
STACK CFI 43ef0 .cfa: sp 0 +
STACK CFI 43ef4 .cfa: x29 48 +
STACK CFI INIT 44bac 158 .cfa: sp 0 +
STACK CFI 44bb0 .cfa: sp 96 +
STACK CFI 44bc4 .cfa: x29 64 + x19: .cfa -8 + ^ x20: .cfa -16 + ^ x21: .cfa -24 + ^ x22: .cfa -32 + ^ x23: .cfa -48 + ^ .ra: .cfa -56 + ^ x29: .cfa -64 + ^
STACK CFI 44ca8 .cfa: sp 96 +
STACK CFI 44cbc .cfa: sp 0 +
STACK CFI 44cc0 .cfa: x29 64 +
STACK CFI INIT 44d04 190 .cfa: sp 0 +
STACK CFI INIT 45990 1dc .cfa: sp 0 +
STACK CFI 45994 .cfa: sp 80 +
STACK CFI 459a8 .cfa: x29 80 + x19: .cfa -8 + ^ x20: .cfa -16 + ^ x21: .cfa -24 + ^ x22: .cfa -32 + ^ x23: .cfa -40 + ^ x24: .cfa -48 + ^ x25: .cfa -64 + ^ .ra: .cfa -72 + ^ x29: .cfa -80 + ^
STACK CFI 45b54 .cfa: sp 80 +
STACK CFI 45b68 .cfa: sp 0 +
STACK CFI INIT 46f9c 124 .cfa: sp 0 +
STACK CFI 46fcc .cfa: sp 32 +
STACK CFI 46fd4 .cfa: x29 32 + x19: .cfa -8 + ^ x20: .cfa -16 + ^ .ra: .cfa -24 + ^ x29: .cfa -32 + ^
STACK CFI 470b4 .cfa: sp 32 +
STACK CFI 470bc .cfa: sp 0 +
STACK CFI INIT 4781c 320 .cfa: sp 0 +
STACK CFI 47820 .cfa: sp 64 +
STACK CFI 47830 .cfa: x29 64 + x19: .cfa -8 + ^ x20: .cfa -16 + ^ x21: .cfa -24 + ^ x22: .cfa -32 + ^ x23: .cfa -40 + ^ x24: .cfa -48 + ^ .ra: .cfa -56 + ^ x29: .cfa -64 + ^
STACK CFI 478ac .cfa: sp 64 +
STACK CFI 478bc .cfa: sp 0 +
STACK CFI 478c0 .cfa: x29 64 +
STACK CFI 47a94 .cfa: sp 64 +
STACK CFI 47aa4 .cfa: sp 0 +
STACK CFI 47aa8 .cfa: x29 64 +
STACK CFI 47ab8 .cfa: sp 64 +
STACK CFI 47ac8 .cfa: sp 0 +
STACK CFI 47acc .cfa: x29 64 +
STACK CFI INIT 47b3c a0 .cfa: sp 0 +
STACK CFI 47b40 .cfa: sp 48 +
STACK CFI 47b4c .cfa: x29 48 + x19: .cfa -8 + ^ x20: .cfa -16 + ^ x21: .cfa -24 + ^ x22: .cfa -32 + ^ .ra: .cfa -40 + ^ x29: .cfa -48 + ^
STACK CFI 47bb8 .cfa: sp 48 +
STACK CFI 47bc4 .cfa: sp 0 +
STACK CFI 47bc8 .cfa: sp 48 +
STACK CFI 47bd4 .cfa: sp 0 +
STACK CFI 47bd8 .cfa: x29 48 +
STACK CFI INIT 48a8c 160 .cfa: sp 0 +
STACK CFI 48a90 .cfa: sp 64 +
STACK CFI 48aa0 .cfa: x29 64 + x19: .cfa -8 + ^ x20: .cfa -16 + ^ x21: .cfa -24 + ^ x22: .cfa -32 + ^ x23: .cfa -48 + ^ .ra: .cfa -56 + ^ x29: .cfa -64 + ^
STACK CFI 48b98 .cfa: sp 64 +
STACK CFI 48ba8 .cfa: sp 0 +
STACK CFI 48bac .cfa: x29 64 +
STACK CFI INIT 48bec 214 .cfa: sp 0 +
STACK CFI 48bf0 .cfa: sp 128 +
STACK CFI 48c0c .cfa: x29 96 + x19: .cfa -8 + ^ x20: .cfa -16 + ^ x21: .cfa -24 + ^ x22: .cfa -32 + ^ x23: .cfa -40 + ^ x24: .cfa -48 + ^ x25: .cfa -56 + ^ x26: .cfa -64 + ^ x27: .cfa -80 + ^ .ra: .cfa -88 + ^ x29: .cfa -96 + ^
STACK CFI 48d88 .cfa: sp 128 +
STACK CFI 48da4 .cfa: sp 0 +
STACK CFI 48da8 .cfa: x29 96 +
STACK CFI INIT 4aa9c 290 .cfa: sp 0 +
STACK CFI 4aaa0 .cfa: sp 16 +
STACK CFI 4aaa4 .cfa: x29 16 + .ra: .cfa -8 + ^ x29: .cfa -16 + ^
STACK CFI 4ab30 .cfa: sp 16 +
STACK CFI 4ab34 .cfa: sp 0 +
STACK CFI 4ab38 .cfa: x29 16 +
STACK CFI 4ab88 .cfa: sp 16 +
STACK CFI 4ab8c .cfa: sp 0 +
STACK CFI 4ab90 .cfa: x29 16 +
STACK CFI 4acf4 .cfa: sp 16 +
STACK CFI 4acf8 .cfa: sp 0 +
STACK CFI 4acfc .cfa: x29 16 +
STACK CFI INIT 4ad2c 158 .cfa: sp 0 +
STACK CFI 4ad30 .cfa: sp 112 +
STACK CFI 4ad4c .cfa: x29 96 + x19: .cfa -8 + ^ x20: .cfa -16 + ^ x21: .cfa -24 + ^ x22: .cfa -32 + ^ x23: .cfa -40 + ^ x24: .cfa -48 + ^ x25: .cfa -56 + ^ x26: .cfa -64 + ^ x27: .cfa -72 + ^ x28: .cfa -80 + ^ .ra: .cfa -88 + ^ x29: .cfa -96 + ^
STACK CFI 4ae34 .cfa: sp 112 +
STACK CFI 4ae38 .cfa: x29 96 +
STACK CFI 4ae40 .cfa: sp 112 +
STACK CFI 4ae5c .cfa: sp 0 +
STACK CFI 4ae60 .cfa: x29 96 +
STACK CFI 4ae80 .cfa: sp 112 +
STACK CFI INIT 4ae84 e54 .cfa: sp 0 +
STACK CFI 4ae88 .cfa: sp 192 +
STACK CFI 4aea4 .cfa: x29 96 + x19: .cfa -8 + ^ x20: .cfa -16 + ^ x21: .cfa -24 + ^ x22: .cfa -32 + ^ x23: .cfa -40 + ^ x24: .cfa -48 + ^ x25: .cfa -56 + ^ x26: .cfa -64 + ^ x27: .cfa -72 + ^ x28: .cfa -80 + ^ .ra: .cfa -88 + ^ x29: .cfa -96 + ^
STACK CFI 4bbc0 .cfa: sp 192 +
STACK CFI 4bbdc .cfa: sp 0 +
STACK CFI 4bbe0 .cfa: x29 96 +
STACK CFI INIT 4bcd8 1068 .cfa: sp 0 +
STACK CFI 4bcdc .cfa: sp 288 +
STACK CFI 4bcf8 .cfa: x29 96 + x19: .cfa -8 + ^ x20: .cfa -16 + ^ x21: .cfa -24 + ^ x22: .cfa -32 + ^ x23: .cfa -40 + ^ x24: .cfa -48 + ^ x25: .cfa -56 + ^ x26: .cfa -64 + ^ x27: .cfa -72 + ^ x28: .cfa -80 + ^ .ra: .cfa -88 + ^ x29: .cfa -96 + ^
STACK CFI 4ca88 .cfa: sp 288 +
STACK CFI 4caa4 .cfa: sp 0 +
STACK CFI 4caa8 .cfa: x29 96 +
STACK CFI INIT 4cd40 520 .cfa: sp 0 +
STACK CFI 4cd44 .cfa: sp 144 +
STACK CFI 4cd60 .cfa: x29 96 + x19: .cfa -8 + ^ x20: .cfa -16 + ^ x21: .cfa -24 + ^ x22: .cfa -32 + ^ x23: .cfa -40 + ^ x24: .cfa -48 + ^ x25: .cfa -56 + ^ x26: .cfa -64 + ^ x27: .cfa -72 + ^ x28: .cfa -80 + ^ .ra: .cfa -88 + ^ x29: .cfa -96 + ^
STACK CFI 4d23c .cfa: sp 144 +
STACK CFI 4d258 .cfa: sp 0 +
STACK CFI 4d25c .cfa: x29 96 +
STACK CFI INIT 4dc00 136c .cfa: sp 0 +
STACK CFI 4dc04 .cfa: sp 224 +
STACK CFI 4dc20 .cfa: x29 96 + x19: .cfa -8 + ^ x20: .cfa -16 + ^ x21: .cfa -24 + ^ x22: .cfa -32 + ^ x23: .cfa -40 + ^ x24: .cfa -48 + ^ x25: .cfa -56 + ^ x26: .cfa -64 + ^ x27: .cfa -72 + ^ x28: .cfa -80 + ^ .ra: .cfa -88 + ^ x29: .cfa -96 + ^
STACK CFI 4ef48 .cfa: sp 224 +
STACK CFI 4ef64 .cfa: sp 0 +
STACK CFI 4ef68 .cfa: x29 96 +
STACK CFI INIT 4ef6c 1b8 .cfa: sp 0 +
STACK CFI INIT 22e50 634 .cfa: sp 0 +
STACK CFI 22e54 .cfa: sp 224 +
STACK CFI 22e70 .cfa: x29 96 + x19: .cfa -8 + ^ x20: .cfa -16 + ^ x21: .cfa -24 + ^ x22: .cfa -32 + ^ x23: .cfa -40 + ^ x24: .cfa -48 + ^ x25: .cfa -56 + ^ x26: .cfa -64 + ^ x27: .cfa -80 + ^ .ra: .cfa -88 + ^ x29: .cfa -96 + ^
STACK CFI 22fa0 .cfa: sp 224 +
STACK CFI 22fbc .cfa: sp 0 +
STACK CFI 22fc0 .cfa: x29 96 +
STACK CFI 23344 .cfa: sp 224 +
STACK CFI 23360 .cfa: sp 0 +
STACK CFI 23364 .cfa: x29 96 +
STACK CFI INIT 234a0 380 .cfa: sp 0 +
STACK CFI 234a4 .cfa: sp 256 +
STACK CFI 234b8 .cfa: x29 64 + x19: .cfa -8 + ^ x20: .cfa -16 + ^ x21: .cfa -24 + ^ x22: .cfa -32 + ^ x23: .cfa -48 + ^ .ra: .cfa -56 + ^ x29: .cfa -64 + ^
STACK CFI 236fc .cfa: sp 256 +
STACK CFI 23710 .cfa: sp 0 +
STACK CFI 23714 .cfa: x29 64 +
STACK CFI INIT 23870 74 .cfa: sp 0 +
STACK CFI 23874 .cfa: sp 48 +
STACK CFI 23880 .cfa: x29 32 + x19: .cfa -8 + ^ x20: .cfa -16 + ^ .ra: .cfa -24 + ^ x29: .cfa -32 + ^
STACK CFI 238cc .cfa: sp 48 +
STACK CFI 238d8 .cfa: sp 0 +
STACK CFI 238dc .cfa: x29 32 +
STACK CFI INIT 23988 50 .cfa: sp 0 +
STACK CFI 2398c .cfa: sp 32 +
STACK CFI 23994 .cfa: x29 32 + x19: .cfa -8 + ^ x20: .cfa -16 + ^ .ra: .cfa -24 + ^ x29: .cfa -32 + ^
STACK CFI INIT 23b5c 1f4 .cfa: sp 0 +
STACK CFI 23b60 .cfa: sp 128 +
STACK CFI 23b7c .cfa: x29 96 + x19: .cfa -8 + ^ x20: .cfa -16 + ^ x21: .cfa -24 + ^ x22: .cfa -32 + ^ x23: .cfa -40 + ^ x24: .cfa -48 + ^ x25: .cfa -56 + ^ x26: .cfa -64 + ^ x27: .cfa -72 + ^ x28: .cfa -80 + ^ .ra: .cfa -88 + ^ x29: .cfa -96 + ^
STACK CFI 23d08 .cfa: sp 128 +
STACK CFI 23d24 .cfa: sp 0 +
STACK CFI 23d28 .cfa: x29 96 +
STACK CFI INIT 23ffc 154 .cfa: sp 0 +
STACK CFI 24000 .cfa: sp 384 +
STACK CFI 24014 .cfa: x29 64 + x19: .cfa -8 + ^ x20: .cfa -16 + ^ x21: .cfa -24 + ^ x22: .cfa -32 + ^ x23: .cfa -40 + ^ x28: .cfa -48 + ^ .ra: .cfa -56 + ^ x29: .cfa -64 + ^
STACK CFI 240f8 .cfa: sp 384 +
STACK CFI 2410c .cfa: sp 0 +
STACK CFI 24110 .cfa: x29 64 +
STACK CFI INIT 24184 12c .cfa: sp 0 +
STACK CFI 24188 .cfa: sp 80 +
STACK CFI 2419c .cfa: x29 80 + x19: .cfa -8 + ^ x20: .cfa -16 + ^ x21: .cfa -24 + ^ x22: .cfa -32 + ^ x23: .cfa -40 + ^ x24: .cfa -48 + ^ x25: .cfa -56 + ^ x26: .cfa -64 + ^ .ra: .cfa -72 + ^ x29: .cfa -80 + ^
STACK CFI 24264 .cfa: sp 80 +
STACK CFI 24278 .cfa: sp 0 +
STACK CFI 2427c .cfa: x29 80 +
STACK CFI INIT 24354 1a4 .cfa: sp 0 +
STACK CFI 24358 .cfa: sp 112 +
STACK CFI 24370 .cfa: x29 80 + x19: .cfa -8 + ^ x20: .cfa -16 + ^ x21: .cfa -24 + ^ x22: .cfa -32 + ^ x23: .cfa -40 + ^ x24: .cfa -48 + ^ x25: .cfa -56 + ^ x26: .cfa -64 + ^ .ra: .cfa -72 + ^ x29: .cfa -80 + ^
STACK CFI 24460 .cfa: sp 112 +
STACK CFI 24478 .cfa: sp 0 +
STACK CFI 2447c .cfa: x29 80 +
STACK CFI INIT 244f8 1dc .cfa: sp 0 +
STACK CFI 244fc .cfa: sp 128 +
STACK CFI 24518 .cfa: x29 96 + x19: .cfa -8 + ^ x20: .cfa -16 + ^ x21: .cfa -24 + ^ x22: .cfa -32 + ^ x23: .cfa -40 + ^ x24: .cfa -48 + ^ x25: .cfa -56 + ^ x26: .cfa -64 + ^ x27: .cfa -80 + ^ .ra: .cfa -88 + ^ x29: .cfa -96 + ^
STACK CFI 24684 .cfa: sp 128 +
STACK CFI 246a0 .cfa: sp 0 +
STACK CFI 246a4 .cfa: x29 96 +
STACK CFI INIT 246d4 178 .cfa: sp 0 +
STACK CFI 246d8 .cfa: sp 80 +
STACK CFI 246ec .cfa: x29 80 + x19: .cfa -8 + ^ x20: .cfa -16 + ^ x21: .cfa -24 + ^ x22: .cfa -32 + ^ x23: .cfa -40 + ^ x24: .cfa -48 + ^ x25: .cfa -64 + ^ .ra: .cfa -72 + ^ x29: .cfa -80 + ^
STACK CFI 24818 .cfa: sp 80 +
STACK CFI 2482c .cfa: sp 0 +
STACK CFI 24830 .cfa: x29 80 +
STACK CFI INIT 24994 168 .cfa: sp 0 +
STACK CFI 24998 .cfa: sp 384 +
STACK CFI 249ac .cfa: x29 64 + x19: .cfa -8 + ^ x20: .cfa -16 + ^ x21: .cfa -24 + ^ x22: .cfa -32 + ^ x23: .cfa -40 + ^ x28: .cfa -48 + ^ .ra: .cfa -56 + ^ x29: .cfa -64 + ^
STACK CFI 24aa4 .cfa: sp 384 +
STACK CFI 24ab8 .cfa: sp 0 +
STACK CFI 24abc .cfa: x29 64 +
STACK CFI INIT 24b14 228 .cfa: sp 0 +
STACK CFI 24b18 .cfa: sp 128 +
STACK CFI 24b30 .cfa: x29 80 + x19: .cfa -8 + ^ x20: .cfa -16 + ^ x21: .cfa -24 + ^ x22: .cfa -32 + ^ x23: .cfa -40 + ^ x24: .cfa -48 + ^ x25: .cfa -64 + ^ .ra: .cfa -72 + ^ x29: .cfa -80 + ^
STACK CFI 24ccc .cfa: sp 128 +
STACK CFI 24ce4 .cfa: sp 0 +
STACK CFI 24ce8 .cfa: x29 80 +
STACK CFI INIT 252f8 1d4 .cfa: sp 0 +
STACK CFI 252fc .cfa: sp 80 +
STACK CFI 2530c .cfa: x29 48 + x19: .cfa -8 + ^ x20: .cfa -16 + ^ x21: .cfa -32 + ^ .ra: .cfa -40 + ^ x29: .cfa -48 + ^
STACK CFI 25454 .cfa: sp 80 +
STACK CFI 25464 .cfa: sp 0 +
STACK CFI 25468 .cfa: x29 48 +
STACK CFI 25488 .cfa: sp 80 +
STACK CFI 25498 .cfa: sp 0 +
STACK CFI 2549c .cfa: x29 48 +
STACK CFI INIT 254cc a8 .cfa: sp 0 +
STACK CFI 254d0 .cfa: sp 32 +
STACK CFI 254d8 .cfa: x29 32 + x19: .cfa -16 + ^ .ra: .cfa -24 + ^ x29: .cfa -32 + ^
STACK CFI 2550c .cfa: sp 32 +
STACK CFI 25514 .cfa: sp 0 +
STACK CFI 25518 .cfa: x29 32 +
STACK CFI 2551c .cfa: sp 32 +
STACK CFI 25524 .cfa: sp 0 +
STACK CFI 25528 .cfa: x29 32 +
STACK CFI INIT 25914 634 .cfa: sp 0 +
STACK CFI 25918 .cfa: sp 224 +
STACK CFI 25934 .cfa: x29 96 + x19: .cfa -8 + ^ x20: .cfa -16 + ^ x21: .cfa -24 + ^ x22: .cfa -32 + ^ x23: .cfa -40 + ^ x24: .cfa -48 + ^ x25: .cfa -56 + ^ x26: .cfa -64 + ^ x27: .cfa -80 + ^ .ra: .cfa -88 + ^ x29: .cfa -96 + ^
STACK CFI 25a64 .cfa: sp 224 +
STACK CFI 25a80 .cfa: sp 0 +
STACK CFI 25a84 .cfa: x29 96 +
STACK CFI 25e08 .cfa: sp 224 +
STACK CFI 25e24 .cfa: sp 0 +
STACK CFI 25e28 .cfa: x29 96 +
STACK CFI INIT 25f64 18e0 .cfa: sp 0 +
STACK CFI 25f68 .cfa: sp 288 +
STACK CFI 25f84 .cfa: x29 96 + x19: .cfa -8 + ^ x20: .cfa -16 + ^ x21: .cfa -24 + ^ x22: .cfa -32 + ^ x23: .cfa -40 + ^ x24: .cfa -48 + ^ x25: .cfa -56 + ^ x26: .cfa -64 + ^ x27: .cfa -72 + ^ x28: .cfa -80 + ^ .ra: .cfa -88 + ^ x29: .cfa -96 + ^
STACK CFI 27378 .cfa: sp 288 +
STACK CFI 27394 .cfa: sp 0 +
STACK CFI 27398 .cfa: x29 96 +
STACK CFI INIT 27848 1bc .cfa: sp 0 +
STACK CFI 2784c .cfa: sp 144 +
STACK CFI 2785c .cfa: x29 48 + x19: .cfa -8 + ^ x20: .cfa -16 + ^ x21: .cfa -32 + ^ .ra: .cfa -40 + ^ x29: .cfa -48 + ^
STACK CFI 279c0 .cfa: sp 144 +
STACK CFI 279d0 .cfa: sp 0 +
STACK CFI 279d4 .cfa: x29 48 +
STACK CFI INIT 27a18 634 .cfa: sp 0 +
STACK CFI 27a1c .cfa: sp 224 +
STACK CFI 27a38 .cfa: x29 96 + x19: .cfa -8 + ^ x20: .cfa -16 + ^ x21: .cfa -24 + ^ x22: .cfa -32 + ^ x23: .cfa -40 + ^ x24: .cfa -48 + ^ x25: .cfa -56 + ^ x26: .cfa -64 + ^ x27: .cfa -80 + ^ .ra: .cfa -88 + ^ x29: .cfa -96 + ^
STACK CFI 27b68 .cfa: sp 224 +
STACK CFI 27b84 .cfa: sp 0 +
STACK CFI 27b88 .cfa: x29 96 +
STACK CFI 27f0c .cfa: sp 224 +
STACK CFI 27f28 .cfa: sp 0 +
STACK CFI 27f2c .cfa: x29 96 +
STACK CFI INIT 28068 388 .cfa: sp 0 +
STACK CFI 2806c .cfa: sp 256 +
STACK CFI 28080 .cfa: x29 64 + x19: .cfa -8 + ^ x20: .cfa -16 + ^ x21: .cfa -24 + ^ x22: .cfa -32 + ^ x23: .cfa -40 + ^ x24: .cfa -48 + ^ .ra: .cfa -56 + ^ x29: .cfa -64 + ^
STACK CFI 282c4 .cfa: sp 256 +
STACK CFI 282d8 .cfa: sp 0 +
STACK CFI 282dc .cfa: x29 64 +
STACK CFI INIT 283f4 30c .cfa: sp 0 +
STACK CFI 283f8 .cfa: sp 112 +
STACK CFI 28410 .cfa: x29 64 + x19: .cfa -8 + ^ x20: .cfa -16 + ^ x21: .cfa -24 + ^ x22: .cfa -32 + ^ x23: .cfa -40 + ^ x24: .cfa -48 + ^ .ra: .cfa -56 + ^ x29: .cfa -64 + ^ v8: .cfa -80 + ^
STACK CFI 28678 .cfa: sp 112 +
STACK CFI 28690 .cfa: sp 0 +
STACK CFI 28694 .cfa: x29 64 +
STACK CFI 286b4 .cfa: sp 112 +
STACK CFI 286cc .cfa: sp 0 +
STACK CFI 286d0 .cfa: x29 64 +
STACK CFI INIT 28780 1ec .cfa: sp 0 +
STACK CFI 28784 .cfa: sp 112 +
STACK CFI 28794 .cfa: x29 48 + x19: .cfa -8 + ^ x20: .cfa -16 + ^ x21: .cfa -24 + ^ x22: .cfa -32 + ^ .ra: .cfa -40 + ^ x29: .cfa -48 + ^
STACK CFI 288b0 .cfa: sp 112 +
STACK CFI 288c0 .cfa: sp 0 +
STACK CFI 288c4 .cfa: x29 48 +
STACK CFI INIT 2896c 2b8 .cfa: sp 0 +
STACK CFI 28970 .cfa: sp 160 +
STACK CFI 2898c .cfa: x29 96 + x19: .cfa -8 + ^ x20: .cfa -16 + ^ x21: .cfa -24 + ^ x22: .cfa -32 + ^ x23: .cfa -40 + ^ x24: .cfa -48 + ^ x25: .cfa -56 + ^ x26: .cfa -64 + ^ x27: .cfa -72 + ^ x28: .cfa -80 + ^ .ra: .cfa -88 + ^ x29: .cfa -96 + ^
STACK CFI 289c4 .cfa: sp 160 +
STACK CFI 289e0 .cfa: sp 0 +
STACK CFI 289e4 .cfa: x29 96 +
STACK CFI INIT 28c24 114 .cfa: sp 0 +
STACK CFI 28c28 .cfa: sp 64 +
STACK CFI 28c38 .cfa: x29 64 + x19: .cfa -8 + ^ x20: .cfa -16 + ^ x21: .cfa -24 + ^ x22: .cfa -32 + ^ x23: .cfa -48 + ^ .ra: .cfa -56 + ^ x29: .cfa -64 + ^
STACK CFI 28d14 .cfa: sp 64 +
STACK CFI 28d24 .cfa: sp 0 +
STACK CFI 28d28 .cfa: x29 64 +
STACK CFI INIT 28d50 22c .cfa: sp 0 +
STACK CFI 28d54 .cfa: sp 96 +
STACK CFI 28d6c .cfa: x29 96 + x19: .cfa -8 + ^ x20: .cfa -16 + ^ x21: .cfa -24 + ^ x22: .cfa -32 + ^ x23: .cfa -40 + ^ x24: .cfa -48 + ^ x25: .cfa -56 + ^ x26: .cfa -64 + ^ x27: .cfa -80 + ^ .ra: .cfa -88 + ^ x29: .cfa -96 + ^
STACK CFI 28f10 .cfa: sp 96 +
STACK CFI 28f28 .cfa: sp 0 +
STACK CFI 28f2c .cfa: x29 96 +
STACK CFI INIT 28fa4 50 .cfa: sp 0 +
STACK CFI 28fa8 .cfa: sp 32 +
STACK CFI 28fb0 .cfa: x29 32 + x19: .cfa -8 + ^ x20: .cfa -16 + ^ .ra: .cfa -24 + ^ x29: .cfa -32 + ^
STACK CFI INIT 290d0 324 .cfa: sp 0 +
STACK CFI 290d4 .cfa: sp 80 +
STACK CFI 290e8 .cfa: x29 80 + x19: .cfa -8 + ^ x20: .cfa -16 + ^ x21: .cfa -24 + ^ x22: .cfa -32 + ^ x23: .cfa -40 + ^ x24: .cfa -48 + ^ x25: .cfa -56 + ^ x26: .cfa -64 + ^ .ra: .cfa -72 + ^ x29: .cfa -80 + ^
STACK CFI 292b0 .cfa: sp 80 +
STACK CFI 292c4 .cfa: sp 0 +
STACK CFI 292c8 .cfa: x29 80 +
STACK CFI INIT 293f4 634 .cfa: sp 0 +
STACK CFI 293f8 .cfa: sp 224 +
STACK CFI 29414 .cfa: x29 96 + x19: .cfa -8 + ^ x20: .cfa -16 + ^ x21: .cfa -24 + ^ x22: .cfa -32 + ^ x23: .cfa -40 + ^ x24: .cfa -48 + ^ x25: .cfa -56 + ^ x26: .cfa -64 + ^ x27: .cfa -80 + ^ .ra: .cfa -88 + ^ x29: .cfa -96 + ^
STACK CFI 29544 .cfa: sp 224 +
STACK CFI 29560 .cfa: sp 0 +
STACK CFI 29564 .cfa: x29 96 +
STACK CFI 298e8 .cfa: sp 224 +
STACK CFI 29904 .cfa: sp 0 +
STACK CFI 29908 .cfa: x29 96 +
STACK CFI INIT 29a44 3e4 .cfa: sp 0 +
STACK CFI 29a48 .cfa: sp 256 +
STACK CFI 29a5c .cfa: x29 64 + x19: .cfa -8 + ^ x20: .cfa -16 + ^ x21: .cfa -24 + ^ x22: .cfa -32 + ^ x23: .cfa -40 + ^ x24: .cfa -48 + ^ .ra: .cfa -56 + ^ x29: .cfa -64 + ^
STACK CFI 29ce0 .cfa: sp 256 +
STACK CFI 29cf4 .cfa: sp 0 +
STACK CFI 29cf8 .cfa: x29 64 +
STACK CFI INIT 29e2c 250 .cfa: sp 0 +
STACK CFI 29e30 .cfa: sp 112 +
STACK CFI 29e48 .cfa: x29 80 + x19: .cfa -8 + ^ x20: .cfa -16 + ^ x21: .cfa -24 + ^ x22: .cfa -32 + ^ x23: .cfa -40 + ^ x24: .cfa -48 + ^ x25: .cfa -64 + ^ .ra: .cfa -72 + ^ x29: .cfa -80 + ^
STACK CFI 29ff4 .cfa: sp 112 +
STACK CFI 2a00c .cfa: sp 0 +
STACK CFI 2a010 .cfa: x29 80 +
STACK CFI 2a030 .cfa: sp 112 +
STACK CFI 2a048 .cfa: sp 0 +
STACK CFI 2a04c .cfa: x29 80 +
STACK CFI INIT 2a07c 194 .cfa: sp 0 +
STACK CFI 2a080 .cfa: sp 112 +
STACK CFI 2a090 .cfa: x29 48 + x19: .cfa -8 + ^ x20: .cfa -16 + ^ x21: .cfa -32 + ^ .ra: .cfa -40 + ^ x29: .cfa -48 + ^
STACK CFI 2a168 .cfa: sp 112 +
STACK CFI 2a178 .cfa: sp 0 +
STACK CFI 2a17c .cfa: x29 48 +
STACK CFI INIT 2a214 480 .cfa: sp 0 +
STACK CFI 2a218 .cfa: sp 224 +
STACK CFI 2a234 .cfa: x29 96 + x19: .cfa -8 + ^ x20: .cfa -16 + ^ x21: .cfa -24 + ^ x22: .cfa -32 + ^ x23: .cfa -40 + ^ x24: .cfa -48 + ^ x25: .cfa -56 + ^ x26: .cfa -64 + ^ x27: .cfa -80 + ^ .ra: .cfa -88 + ^ x29: .cfa -96 + ^
STACK CFI 2a4a0 .cfa: sp 224 +
STACK CFI 2a4bc .cfa: sp 0 +
STACK CFI 2a4c0 .cfa: x29 96 +
STACK CFI 2a58c .cfa: sp 224 +
STACK CFI 2a5a8 .cfa: sp 0 +
STACK CFI 2a5ac .cfa: x29 96 +
STACK CFI INIT 2a6b0 388 .cfa: sp 0 +
STACK CFI 2a6b4 .cfa: sp 256 +
STACK CFI 2a6c8 .cfa: x29 64 + x19: .cfa -8 + ^ x20: .cfa -16 + ^ x21: .cfa -24 + ^ x22: .cfa -32 + ^ x23: .cfa -48 + ^ .ra: .cfa -56 + ^ x29: .cfa -64 + ^
STACK CFI 2a90c .cfa: sp 256 +
STACK CFI 2a920 .cfa: sp 0 +
STACK CFI 2a924 .cfa: x29 64 +
STACK CFI INIT 2ab94 1ec .cfa: sp 0 +
STACK CFI 2ab98 .cfa: sp 112 +
STACK CFI 2aba8 .cfa: x29 48 + x19: .cfa -8 + ^ x20: .cfa -16 + ^ x21: .cfa -24 + ^ x22: .cfa -32 + ^ .ra: .cfa -40 + ^ x29: .cfa -48 + ^
STACK CFI 2acc4 .cfa: sp 112 +
STACK CFI 2acd4 .cfa: sp 0 +
STACK CFI 2acd8 .cfa: x29 48 +
STACK CFI INIT 2ad84 638 .cfa: sp 0 +
STACK CFI 2ad88 .cfa: sp 224 +
STACK CFI 2ada4 .cfa: x29 96 + x19: .cfa -8 + ^ x20: .cfa -16 + ^ x21: .cfa -24 + ^ x22: .cfa -32 + ^ x23: .cfa -40 + ^ x24: .cfa -48 + ^ x25: .cfa -56 + ^ x26: .cfa -64 + ^ x27: .cfa -80 + ^ .ra: .cfa -88 + ^ x29: .cfa -96 + ^
STACK CFI 2aed8 .cfa: sp 224 +
STACK CFI 2aef4 .cfa: sp 0 +
STACK CFI 2aef8 .cfa: x29 96 +
STACK CFI 2b27c .cfa: sp 224 +
STACK CFI 2b298 .cfa: sp 0 +
STACK CFI 2b29c .cfa: x29 96 +
STACK CFI INIT 2b3d8 3f0 .cfa: sp 0 +
STACK CFI 2b3dc .cfa: sp 256 +
STACK CFI 2b3f0 .cfa: x29 64 + x19: .cfa -8 + ^ x20: .cfa -16 + ^ x21: .cfa -24 + ^ x22: .cfa -32 + ^ x23: .cfa -40 + ^ x24: .cfa -48 + ^ .ra: .cfa -56 + ^ x29: .cfa -64 + ^
STACK CFI 2b680 .cfa: sp 256 +
STACK CFI 2b694 .cfa: sp 0 +
STACK CFI 2b698 .cfa: x29 64 +
STACK CFI INIT 2b7cc 7b0 .cfa: sp 0 +
STACK CFI 2b7d0 .cfa: sp 96 +
STACK CFI 2b7e8 .cfa: x29 96 + x19: .cfa -8 + ^ x20: .cfa -16 + ^ x21: .cfa -24 + ^ x22: .cfa -32 + ^ x23: .cfa -40 + ^ x24: .cfa -48 + ^ x25: .cfa -56 + ^ x26: .cfa -64 + ^ x27: .cfa -72 + ^ x28: .cfa -80 + ^ .ra: .cfa -88 + ^ x29: .cfa -96 + ^
STACK CFI 2b948 .cfa: sp 96 +
STACK CFI 2b960 .cfa: sp 0 +
STACK CFI 2b964 .cfa: x29 96 +
STACK CFI 2be48 .cfa: sp 96 +
STACK CFI 2be60 .cfa: sp 0 +
STACK CFI 2be64 .cfa: x29 96 +
STACK CFI INIT 2bf7c 634 .cfa: sp 0 +
STACK CFI 2bf80 .cfa: sp 224 +
STACK CFI 2bf9c .cfa: x29 96 + x19: .cfa -8 + ^ x20: .cfa -16 + ^ x21: .cfa -24 + ^ x22: .cfa -32 + ^ x23: .cfa -40 + ^ x24: .cfa -48 + ^ x25: .cfa -56 + ^ x26: .cfa -64 + ^ x27: .cfa -80 + ^ .ra: .cfa -88 + ^ x29: .cfa -96 + ^
STACK CFI 2c0cc .cfa: sp 224 +
STACK CFI 2c0e8 .cfa: sp 0 +
STACK CFI 2c0ec .cfa: x29 96 +
STACK CFI 2c470 .cfa: sp 224 +
STACK CFI 2c48c .cfa: sp 0 +
STACK CFI 2c490 .cfa: x29 96 +
STACK CFI INIT 2c5cc 424 .cfa: sp 0 +
STACK CFI 2c5d0 .cfa: sp 256 +
STACK CFI 2c5e4 .cfa: x29 64 + x19: .cfa -8 + ^ x20: .cfa -16 + ^ x21: .cfa -24 + ^ x22: .cfa -32 + ^ x23: .cfa -48 + ^ .ra: .cfa -56 + ^ x29: .cfa -64 + ^
STACK CFI 2c8a4 .cfa: sp 256 +
STACK CFI 2c8b8 .cfa: sp 0 +
STACK CFI 2c8bc .cfa: x29 64 +
STACK CFI INIT 2c9f4 258 .cfa: sp 0 +
STACK CFI 2c9f8 .cfa: sp 112 +
STACK CFI 2ca10 .cfa: x29 40 + x19: .cfa -8 + ^ x20: .cfa -16 + ^ x21: .cfa -24 + ^ .ra: .cfa -32 + ^ x29: .cfa -40 + ^ v8: .cfa -48 + ^ v9: .cfa -56 + ^ v10: .cfa -64 + ^
STACK CFI 2cb18 .cfa: sp 112 +
STACK CFI 2cb30 .cfa: sp 0 +
STACK CFI 2cb34 .cfa: x29 40 +
STACK CFI INIT 2cd24 1a4 .cfa: sp 0 +
STACK CFI 2cd28 .cfa: sp 112 +
STACK CFI 2cd38 .cfa: x29 48 + x19: .cfa -8 + ^ x20: .cfa -16 + ^ x21: .cfa -32 + ^ .ra: .cfa -40 + ^ x29: .cfa -48 + ^
STACK CFI 2ce20 .cfa: sp 112 +
STACK CFI 2ce30 .cfa: sp 0 +
STACK CFI 2ce34 .cfa: x29 48 +
STACK CFI INIT 2cecc 634 .cfa: sp 0 +
STACK CFI 2ced0 .cfa: sp 224 +
STACK CFI 2ceec .cfa: x29 96 + x19: .cfa -8 + ^ x20: .cfa -16 + ^ x21: .cfa -24 + ^ x22: .cfa -32 + ^ x23: .cfa -40 + ^ x24: .cfa -48 + ^ x25: .cfa -56 + ^ x26: .cfa -64 + ^ x27: .cfa -80 + ^ .ra: .cfa -88 + ^ x29: .cfa -96 + ^
STACK CFI 2d01c .cfa: sp 224 +
STACK CFI 2d038 .cfa: sp 0 +
STACK CFI 2d03c .cfa: x29 96 +
STACK CFI 2d3c0 .cfa: sp 224 +
STACK CFI 2d3dc .cfa: sp 0 +
STACK CFI 2d3e0 .cfa: x29 96 +
STACK CFI INIT 2d51c 338 .cfa: sp 0 +
STACK CFI 2d520 .cfa: sp 240 +
STACK CFI 2d534 .cfa: x29 64 + x19: .cfa -8 + ^ x20: .cfa -16 + ^ x21: .cfa -24 + ^ x22: .cfa -32 + ^ x23: .cfa -48 + ^ .ra: .cfa -56 + ^ x29: .cfa -64 + ^
STACK CFI 2d744 .cfa: sp 240 +
STACK CFI 2d758 .cfa: sp 0 +
STACK CFI 2d75c .cfa: x29 64 +
STACK CFI INIT 2d8f4 448 .cfa: sp 0 +
STACK CFI 2d8f8 .cfa: sp 112 +
STACK CFI 2d908 .cfa: x29 48 + x19: .cfa -8 + ^ x20: .cfa -16 + ^ x21: .cfa -32 + ^ .ra: .cfa -40 + ^ x29: .cfa -48 + ^
STACK CFI 2d980 .cfa: sp 112 +
STACK CFI 2d990 .cfa: sp 0 +
STACK CFI 2d994 .cfa: x29 48 +
STACK CFI 2dc8c .cfa: sp 112 +
STACK CFI 2dc9c .cfa: sp 0 +
STACK CFI 2dca0 .cfa: x29 48 +
STACK CFI INIT 2dd3c c8 .cfa: sp 0 +
STACK CFI 2dd40 .cfa: sp 32 +
STACK CFI 2dd48 .cfa: x29 32 + x19: .cfa -8 + ^ x20: .cfa -16 + ^ .ra: .cfa -24 + ^ x29: .cfa -32 + ^
STACK CFI 2dd7c .cfa: sp 32 +
STACK CFI 2dd84 .cfa: sp 0 +
STACK CFI 2dd88 .cfa: x29 32 +
STACK CFI 2dd8c .cfa: sp 32 +
STACK CFI 2dd94 .cfa: sp 0 +
STACK CFI 2dd98 .cfa: x29 32 +
STACK CFI INIT 2de04 dc .cfa: sp 0 +
STACK CFI 2de08 .cfa: sp 48 +
STACK CFI 2de14 .cfa: x29 32 + x19: .cfa -8 + ^ x20: .cfa -16 + ^ .ra: .cfa -24 + ^ x29: .cfa -32 + ^ v8: .cfa -48 + ^
STACK CFI 2debc .cfa: sp 48 +
STACK CFI 2dec8 .cfa: sp 0 +
STACK CFI 2decc .cfa: x29 32 +
STACK CFI INIT 2dee0 570 .cfa: sp 0 +
STACK CFI 2dee4 .cfa: sp 256 +
STACK CFI 2df00 .cfa: x29 96 + x19: .cfa -8 + ^ x20: .cfa -16 + ^ x21: .cfa -24 + ^ x22: .cfa -32 + ^ x23: .cfa -40 + ^ x24: .cfa -48 + ^ x25: .cfa -56 + ^ x26: .cfa -64 + ^ x27: .cfa -80 + ^ .ra: .cfa -88 + ^ x29: .cfa -96 + ^
STACK CFI 2e24c .cfa: sp 256 +
STACK CFI 2e268 .cfa: sp 0 +
STACK CFI 2e26c .cfa: x29 96 +
STACK CFI 2e338 .cfa: sp 256 +
STACK CFI 2e354 .cfa: sp 0 +
STACK CFI 2e358 .cfa: x29 96 +
STACK CFI INIT 2e46c eac .cfa: sp 0 +
STACK CFI 2e470 .cfa: sp 256 +
STACK CFI 2e488 .cfa: x29 80 + x19: .cfa -8 + ^ x20: .cfa -16 + ^ x21: .cfa -24 + ^ x22: .cfa -32 + ^ x23: .cfa -40 + ^ x24: .cfa -48 + ^ x25: .cfa -56 + ^ x26: .cfa -64 + ^ .ra: .cfa -72 + ^ x29: .cfa -80 + ^
STACK CFI 2ef2c .cfa: sp 256 +
STACK CFI 2ef44 .cfa: sp 0 +
STACK CFI 2ef48 .cfa: x29 80 +
STACK CFI INIT 2f31c 248 .cfa: sp 0 +
STACK CFI 2f320 .cfa: sp 144 +
STACK CFI 2f334 .cfa: x29 64 + x19: .cfa -8 + ^ x20: .cfa -16 + ^ x21: .cfa -24 + ^ x22: .cfa -32 + ^ x23: .cfa -40 + ^ x24: .cfa -48 + ^ .ra: .cfa -56 + ^ x29: .cfa -64 + ^
STACK CFI 2f4e8 .cfa: sp 144 +
STACK CFI 2f4fc .cfa: sp 0 +
STACK CFI 2f500 .cfa: x29 64 +
STACK CFI INIT 2f564 900 .cfa: sp 0 +
STACK CFI 2f568 .cfa: sp 160 +
STACK CFI 2f584 .cfa: x29 96 + x19: .cfa -8 + ^ x20: .cfa -16 + ^ x21: .cfa -24 + ^ x22: .cfa -32 + ^ x23: .cfa -40 + ^ x24: .cfa -48 + ^ x25: .cfa -56 + ^ x26: .cfa -64 + ^ x27: .cfa -72 + ^ x28: .cfa -80 + ^ .ra: .cfa -88 + ^ x29: .cfa -96 + ^
STACK CFI 2fd80 .cfa: sp 160 +
STACK CFI 2fd9c .cfa: sp 0 +
STACK CFI 2fda0 .cfa: x29 96 +
STACK CFI INIT 2ff30 764 .cfa: sp 0 +
STACK CFI 2ff34 .cfa: sp 320 +
STACK CFI 2ff50 .cfa: x29 96 + x19: .cfa -8 + ^ x20: .cfa -16 + ^ x21: .cfa -24 + ^ x22: .cfa -32 + ^ x23: .cfa -40 + ^ x24: .cfa -48 + ^ x25: .cfa -56 + ^ x26: .cfa -64 + ^ x27: .cfa -72 + ^ x28: .cfa -80 + ^ .ra: .cfa -88 + ^ x29: .cfa -96 + ^
STACK CFI 3004c .cfa: sp 320 +
STACK CFI 30068 .cfa: sp 0 +
STACK CFI 3006c .cfa: x29 96 +
STACK CFI 3062c .cfa: sp 320 +
STACK CFI 30648 .cfa: sp 0 +
STACK CFI 3064c .cfa: x29 96 +
STACK CFI INIT 30694 134 .cfa: sp 0 +
STACK CFI 30698 .cfa: sp 128 +
STACK CFI 306ac .cfa: x29 64 + x19: .cfa -8 + ^ x20: .cfa -16 + ^ x21: .cfa -24 + ^ x22: .cfa -32 + ^ x23: .cfa -40 + ^ x24: .cfa -48 + ^ .ra: .cfa -56 + ^ x29: .cfa -64 + ^
STACK CFI 30778 .cfa: sp 128 +
STACK CFI 3078c .cfa: sp 0 +
STACK CFI 30790 .cfa: x29 64 +
STACK CFI INIT 3083c e6c .cfa: sp 0 +
STACK CFI 30840 .cfa: sp 288 +
STACK CFI 3085c .cfa: x29 96 + x19: .cfa -8 + ^ x20: .cfa -16 + ^ x21: .cfa -24 + ^ x22: .cfa -32 + ^ x23: .cfa -40 + ^ x24: .cfa -48 + ^ x25: .cfa -56 + ^ x26: .cfa -64 + ^ x27: .cfa -72 + ^ x28: .cfa -80 + ^ .ra: .cfa -88 + ^ x29: .cfa -96 + ^
STACK CFI 30918 .cfa: sp 288 +
STACK CFI 30934 .cfa: sp 0 +
STACK CFI 30938 .cfa: x29 96 +
STACK CFI 31500 .cfa: sp 288 +
STACK CFI 3151c .cfa: sp 0 +
STACK CFI 31520 .cfa: x29 96 +
STACK CFI INIT 316dc c8 .cfa: sp 0 +
STACK CFI 316e0 .cfa: sp 32 +
STACK CFI 316e8 .cfa: x29 32 + x19: .cfa -8 + ^ x20: .cfa -16 + ^ .ra: .cfa -24 + ^ x29: .cfa -32 + ^
STACK CFI 3171c .cfa: sp 32 +
STACK CFI 31724 .cfa: sp 0 +
STACK CFI 31728 .cfa: x29 32 +
STACK CFI 3172c .cfa: sp 32 +
STACK CFI 31734 .cfa: sp 0 +
STACK CFI 31738 .cfa: x29 32 +
STACK CFI INIT 317a4 81c .cfa: sp 0 +
STACK CFI 317a8 .cfa: sp 80 +
STACK CFI 317bc .cfa: x29 80 + x19: .cfa -8 + ^ x20: .cfa -16 + ^ x21: .cfa -24 + ^ x22: .cfa -32 + ^ x23: .cfa -40 + ^ x24: .cfa -48 + ^ x25: .cfa -56 + ^ x26: .cfa -64 + ^ .ra: .cfa -72 + ^ x29: .cfa -80 + ^
STACK CFI 31c44 .cfa: sp 80 +
STACK CFI 31c58 .cfa: sp 0 +
STACK CFI 31c5c .cfa: x29 80 +
STACK CFI INIT 31fc0 578 .cfa: sp 0 +
STACK CFI 31fc4 .cfa: sp 96 +
STACK CFI 31fd8 .cfa: x29 64 + x19: .cfa -8 + ^ x20: .cfa -16 + ^ x21: .cfa -24 + ^ x22: .cfa -32 + ^ x23: .cfa -48 + ^ .ra: .cfa -56 + ^ x29: .cfa -64 + ^
STACK CFI 32378 .cfa: sp 96 +
STACK CFI 3238c .cfa: sp 0 +
STACK CFI 32390 .cfa: x29 64 +
STACK CFI INIT 326ac 1c .cfa: sp 0 +
STACK CFI 326b0 .cfa: sp 16 +
STACK CFI 326b4 .cfa: x29 16 + .ra: .cfa -8 + ^ x29: .cfa -16 + ^
STACK CFI 326bc .cfa: sp 16 +
STACK CFI 326c0 .cfa: sp 0 +
STACK CFI 326c4 .cfa: x29 16 +
STACK CFI INIT 329d4 3f8 .cfa: sp 0 +
STACK CFI 329d8 .cfa: sp 48 +
STACK CFI 329e4 .cfa: x29 48 + x19: .cfa -8 + ^ x20: .cfa -16 + ^ x21: .cfa -24 + ^ x22: .cfa -32 + ^ .ra: .cfa -40 + ^ x29: .cfa -48 + ^
STACK CFI 32d4c .cfa: sp 48 +
STACK CFI 32d58 .cfa: sp 0 +
STACK CFI 32d5c .cfa: x29 48 +
STACK CFI 32dac .cfa: sp 48 +
STACK CFI 32db8 .cfa: sp 0 +
STACK CFI 32dbc .cfa: x29 48 +
STACK CFI INIT 32e44 1c .cfa: sp 0 +
STACK CFI 32e48 .cfa: sp 16 +
STACK CFI 32e4c .cfa: x29 16 + .ra: .cfa -8 + ^ x29: .cfa -16 + ^
STACK CFI 32e54 .cfa: sp 16 +
STACK CFI 32e58 .cfa: sp 0 +
STACK CFI 32e5c .cfa: x29 16 +
STACK CFI INIT 32ef0 98 .cfa: sp 0 +
STACK CFI 32ef4 .cfa: sp 48 +
STACK CFI 32f00 .cfa: x29 48 + x19: .cfa -8 + ^ x20: .cfa -16 + ^ x21: .cfa -32 + ^ .ra: .cfa -40 + ^ x29: .cfa -48 + ^
STACK CFI 32f60 .cfa: sp 48 +
STACK CFI 32f6c .cfa: sp 0 +
STACK CFI 32f70 .cfa: sp 48 +
STACK CFI 32f7c .cfa: sp 0 +
STACK CFI 32f80 .cfa: x29 48 +
STACK CFI INIT 32fc4 1c .cfa: sp 0 +
STACK CFI 32fc8 .cfa: sp 16 +
STACK CFI 32fcc .cfa: x29 16 + .ra: .cfa -8 + ^ x29: .cfa -16 + ^
STACK CFI 32fd4 .cfa: sp 16 +
STACK CFI 32fd8 .cfa: sp 0 +
STACK CFI 32fdc .cfa: x29 16 +
STACK CFI INIT 32fe0 1c .cfa: sp 0 +
STACK CFI 32fe4 .cfa: sp 16 +
STACK CFI 32fe8 .cfa: x29 16 + .ra: .cfa -8 + ^ x29: .cfa -16 + ^
STACK CFI 32ff0 .cfa: sp 16 +
STACK CFI 32ff4 .cfa: sp 0 +
STACK CFI 32ff8 .cfa: x29 16 +
STACK CFI INIT 331dc 1cc .cfa: sp 0 +
STACK CFI 331e0 .cfa: sp 160 +
STACK CFI 331f8 .cfa: x29 80 + x19: .cfa -8 + ^ x20: .cfa -16 + ^ x21: .cfa -24 + ^ x22: .cfa -32 + ^ x23: .cfa -40 + ^ x24: .cfa -48 + ^ x25: .cfa -56 + ^ x26: .cfa -64 + ^ .ra: .cfa -72 + ^ x29: .cfa -80 + ^
STACK CFI 33354 .cfa: sp 160 +
STACK CFI 3336c .cfa: sp 0 +
STACK CFI 33370 .cfa: x29 80 +
STACK CFI INIT 33760 1a0 .cfa: sp 0 +
STACK CFI 33764 .cfa: sp 64 +
STACK CFI 33774 .cfa: x29 64 + x19: .cfa -8 + ^ x20: .cfa -16 + ^ x21: .cfa -24 + ^ x22: .cfa -32 + ^ x23: .cfa -48 + ^ .ra: .cfa -56 + ^ x29: .cfa -64 + ^
STACK CFI 33838 .cfa: sp 64 +
STACK CFI 33848 .cfa: sp 0 +
STACK CFI 3384c .cfa: x29 64 +
STACK CFI INIT 33f34 a8 .cfa: sp 0 +
STACK CFI 33f38 .cfa: sp 64 +
STACK CFI 33f48 .cfa: x29 64 + x19: .cfa -8 + ^ x20: .cfa -16 + ^ x21: .cfa -24 + ^ x22: .cfa -32 + ^ x23: .cfa -40 + ^ x24: .cfa -48 + ^ .ra: .cfa -56 + ^ x29: .cfa -64 + ^
STACK CFI 33f6c .cfa: sp 64 +
STACK CFI 33f7c .cfa: sp 0 +
STACK CFI 33f80 .cfa: x29 64 +
STACK CFI INIT 3412c 1f0 .cfa: sp 0 +
STACK CFI 34130 .cfa: sp 112 +
STACK CFI 34140 .cfa: x29 48 + x19: .cfa -8 + ^ x20: .cfa -16 + ^ x21: .cfa -24 + ^ x22: .cfa -32 + ^ .ra: .cfa -40 + ^ x29: .cfa -48 + ^
STACK CFI 3425c .cfa: sp 112 +
STACK CFI 3426c .cfa: sp 0 +
STACK CFI 34270 .cfa: x29 48 +
STACK CFI INIT 34334 c8 .cfa: sp 0 +
STACK CFI 34338 .cfa: sp 32 +
STACK CFI 34340 .cfa: x29 32 + x19: .cfa -8 + ^ x20: .cfa -16 + ^ .ra: .cfa -24 + ^ x29: .cfa -32 + ^
STACK CFI 34374 .cfa: sp 32 +
STACK CFI 3437c .cfa: sp 0 +
STACK CFI 34380 .cfa: x29 32 +
STACK CFI 34384 .cfa: sp 32 +
STACK CFI 3438c .cfa: sp 0 +
STACK CFI 34390 .cfa: x29 32 +
STACK CFI INIT 343fc 84 .cfa: sp 0 +
STACK CFI 34400 .cfa: sp 48 +
STACK CFI 3440c .cfa: x29 48 + x19: .cfa -8 + ^ x20: .cfa -16 + ^ x21: .cfa -24 + ^ x22: .cfa -32 + ^ .ra: .cfa -40 + ^ x29: .cfa -48 + ^
STACK CFI 3444c .cfa: sp 48 +
STACK CFI 34458 .cfa: sp 0 +
STACK CFI 3445c .cfa: x29 48 +
STACK CFI INIT 34480 634 .cfa: sp 0 +
STACK CFI 34484 .cfa: sp 224 +
STACK CFI 344a0 .cfa: x29 96 + x19: .cfa -8 + ^ x20: .cfa -16 + ^ x21: .cfa -24 + ^ x22: .cfa -32 + ^ x23: .cfa -40 + ^ x24: .cfa -48 + ^ x25: .cfa -56 + ^ x26: .cfa -64 + ^ x27: .cfa -80 + ^ .ra: .cfa -88 + ^ x29: .cfa -96 + ^
STACK CFI 345d0 .cfa: sp 224 +
STACK CFI 345ec .cfa: sp 0 +
STACK CFI 345f0 .cfa: x29 96 +
STACK CFI 34974 .cfa: sp 224 +
STACK CFI 34990 .cfa: sp 0 +
STACK CFI 34994 .cfa: x29 96 +
STACK CFI INIT 34ad0 388 .cfa: sp 0 +
STACK CFI 34ad4 .cfa: sp 256 +
STACK CFI 34ae8 .cfa: x29 64 + x19: .cfa -8 + ^ x20: .cfa -16 + ^ x21: .cfa -24 + ^ x22: .cfa -32 + ^ x23: .cfa -48 + ^ .ra: .cfa -56 + ^ x29: .cfa -64 + ^
STACK CFI 34d2c .cfa: sp 256 +
STACK CFI 34d40 .cfa: sp 0 +
STACK CFI 34d44 .cfa: x29 64 +
STACK CFI INIT 34e5c 1d8 .cfa: sp 0 +
STACK CFI 34e60 .cfa: sp 96 +
STACK CFI 34e74 .cfa: x29 64 + x19: .cfa -8 + ^ x20: .cfa -16 + ^ x21: .cfa -24 + ^ x22: .cfa -32 + ^ x23: .cfa -48 + ^ .ra: .cfa -56 + ^ x29: .cfa -64 + ^
STACK CFI 34fec .cfa: sp 96 +
STACK CFI 35000 .cfa: sp 0 +
STACK CFI 35004 .cfa: x29 64 +
STACK CFI INIT 35098 140 .cfa: sp 0 +
STACK CFI 3509c .cfa: sp 80 +
STACK CFI 350a8 .cfa: x29 32 + x19: .cfa -8 + ^ x20: .cfa -16 + ^ .ra: .cfa -24 + ^ x29: .cfa -32 + ^
STACK CFI 35178 .cfa: sp 80 +
STACK CFI 35184 .cfa: sp 0 +
STACK CFI 35188 .cfa: x29 32 +
STACK CFI INIT 351d8 134 .cfa: sp 0 +
STACK CFI 351dc .cfa: sp 80 +
STACK CFI 351ec .cfa: x29 48 + x19: .cfa -8 + ^ x20: .cfa -16 + ^ x21: .cfa -24 + ^ x22: .cfa -32 + ^ .ra: .cfa -40 + ^ x29: .cfa -48 + ^
STACK CFI 352f0 .cfa: sp 80 +
STACK CFI 35300 .cfa: sp 0 +
STACK CFI 35304 .cfa: x29 48 +
STACK CFI INIT 3535c 188 .cfa: sp 0 +
STACK CFI 35360 .cfa: sp 96 +
STACK CFI 35374 .cfa: x29 64 + x19: .cfa -8 + ^ x20: .cfa -16 + ^ x21: .cfa -24 + ^ x22: .cfa -32 + ^ x23: .cfa -48 + ^ .ra: .cfa -56 + ^ x29: .cfa -64 + ^
STACK CFI 35460 .cfa: sp 96 +
STACK CFI 35474 .cfa: sp 0 +
STACK CFI 35478 .cfa: x29 64 +
STACK CFI INIT 35534 52c .cfa: sp 0 +
STACK CFI 35538 .cfa: sp 176 +
STACK CFI 35548 .cfa: x29 48 + x19: .cfa -8 + ^ x20: .cfa -16 + ^ x21: .cfa -24 + ^ x22: .cfa -32 + ^ .ra: .cfa -40 + ^ x29: .cfa -48 + ^
STACK CFI 35980 .cfa: sp 176 +
STACK CFI 35990 .cfa: sp 0 +
STACK CFI 35994 .cfa: x29 48 +
STACK CFI INIT 35a60 f8 .cfa: sp 0 +
STACK CFI 35a64 .cfa: sp 48 +
STACK CFI 35a70 .cfa: x29 48 + x19: .cfa -8 + ^ x20: .cfa -16 + ^ x21: .cfa -32 + ^ .ra: .cfa -40 + ^ x29: .cfa -48 + ^
STACK CFI 35adc .cfa: sp 48 +
STACK CFI 35ae8 .cfa: sp 0 +
STACK CFI 35aec .cfa: x29 48 +
STACK CFI INIT 35c04 1ec .cfa: sp 0 +
STACK CFI 35c08 .cfa: sp 96 +
STACK CFI 35c18 .cfa: x29 48 + x19: .cfa -8 + ^ x20: .cfa -16 + ^ x21: .cfa -24 + ^ x22: .cfa -32 + ^ .ra: .cfa -40 + ^ x29: .cfa -48 + ^
STACK CFI 35d30 .cfa: sp 96 +
STACK CFI 35d40 .cfa: sp 0 +
STACK CFI 35d44 .cfa: x29 48 +
STACK CFI INIT 35e6c 174 .cfa: sp 0 +
STACK CFI 35e70 .cfa: sp 112 +
STACK CFI 35e80 .cfa: x29 48 + x19: .cfa -8 + ^ x20: .cfa -16 + ^ x21: .cfa -32 + ^ .ra: .cfa -40 + ^ x29: .cfa -48 + ^
STACK CFI 35f7c .cfa: sp 112 +
STACK CFI 35f8c .cfa: sp 0 +
STACK CFI 35f90 .cfa: x29 48 +
STACK CFI INIT 3617c 1e0 .cfa: sp 0 +
STACK CFI 36180 .cfa: sp 96 +
STACK CFI 36190 .cfa: x29 48 + x19: .cfa -8 + ^ x20: .cfa -16 + ^ x21: .cfa -24 + ^ x22: .cfa -32 + ^ .ra: .cfa -40 + ^ x29: .cfa -48 + ^
STACK CFI 3629c .cfa: sp 96 +
STACK CFI 362ac .cfa: sp 0 +
STACK CFI 362b0 .cfa: x29 48 +
STACK CFI INIT 363e0 1e8 .cfa: sp 0 +
STACK CFI 363e4 .cfa: sp 96 +
STACK CFI 363f4 .cfa: x29 48 + x19: .cfa -8 + ^ x20: .cfa -16 + ^ x21: .cfa -24 + ^ x22: .cfa -32 + ^ .ra: .cfa -40 + ^ x29: .cfa -48 + ^
STACK CFI 36508 .cfa: sp 96 +
STACK CFI 36518 .cfa: sp 0 +
STACK CFI 3651c .cfa: x29 48 +
STACK CFI INIT 36650 1ec .cfa: sp 0 +
STACK CFI 36654 .cfa: sp 96 +
STACK CFI 36664 .cfa: x29 48 + x19: .cfa -8 + ^ x20: .cfa -16 + ^ x21: .cfa -24 + ^ x22: .cfa -32 + ^ .ra: .cfa -40 + ^ x29: .cfa -48 + ^
STACK CFI 3677c .cfa: sp 96 +
STACK CFI 3678c .cfa: sp 0 +
STACK CFI 36790 .cfa: x29 48 +
STACK CFI INIT 36868 174 .cfa: sp 0 +
STACK CFI 3686c .cfa: sp 112 +
STACK CFI 3687c .cfa: x29 48 + x19: .cfa -8 + ^ x20: .cfa -16 + ^ x21: .cfa -32 + ^ .ra: .cfa -40 + ^ x29: .cfa -48 + ^
STACK CFI 36978 .cfa: sp 112 +
STACK CFI 36988 .cfa: sp 0 +
STACK CFI 3698c .cfa: x29 48 +
STACK CFI INIT 36b2c 12c .cfa: sp 0 +
STACK CFI 36b30 .cfa: sp 80 +
STACK CFI 36b40 .cfa: x29 48 + x19: .cfa -8 + ^ x20: .cfa -16 + ^ x21: .cfa -32 + ^ .ra: .cfa -40 + ^ x29: .cfa -48 + ^
STACK CFI 36bd8 .cfa: sp 80 +
STACK CFI 36be8 .cfa: sp 0 +
STACK CFI 36bec .cfa: x29 48 +
STACK CFI INIT 36ce0 134 .cfa: sp 0 +
STACK CFI 36ce4 .cfa: sp 80 +
STACK CFI 36cf0 .cfa: x29 32 + x19: .cfa -8 + ^ x20: .cfa -16 + ^ .ra: .cfa -24 + ^ x29: .cfa -32 + ^
STACK CFI 36d20 .cfa: sp 80 +
STACK CFI 36d2c .cfa: sp 0 +
STACK CFI 36d30 .cfa: x29 32 +
STACK CFI INIT 36e14 78 .cfa: sp 0 +
STACK CFI 36e18 .cfa: sp 32 +
STACK CFI 36e20 .cfa: x29 32 + x19: .cfa -8 + ^ x20: .cfa -16 + ^ .ra: .cfa -24 + ^ x29: .cfa -32 + ^
STACK CFI 36e2c .cfa: sp 32 +
STACK CFI 36e34 .cfa: sp 0 +
STACK CFI 36e38 .cfa: x29 32 +
STACK CFI INIT 36e8c 74 .cfa: sp 0 +
STACK CFI 36e90 .cfa: sp 48 +
STACK CFI 36e9c .cfa: x29 32 + x19: .cfa -8 + ^ x20: .cfa -16 + ^ .ra: .cfa -24 + ^ x29: .cfa -32 + ^
STACK CFI 36ee8 .cfa: sp 48 +
STACK CFI 36ef4 .cfa: sp 0 +
STACK CFI 36ef8 .cfa: x29 32 +
STACK CFI INIT 37048 1b8 .cfa: sp 0 +
STACK CFI 3704c .cfa: sp 160 +
STACK CFI 37068 .cfa: x29 72 + x19: .cfa -8 + ^ x20: .cfa -16 + ^ x21: .cfa -24 + ^ x22: .cfa -32 + ^ x23: .cfa -40 + ^ x24: .cfa -48 + ^ x25: .cfa -56 + ^ .ra: .cfa -64 + ^ x29: .cfa -72 + ^ v8: .cfa -80 + ^
STACK CFI 370ec .cfa: sp 160 +
STACK CFI 37108 .cfa: sp 0 +
STACK CFI 3710c .cfa: x29 72 +
STACK CFI INIT 37200 4e4 .cfa: sp 0 +
STACK CFI 37204 .cfa: sp 96 +
STACK CFI 3721c .cfa: x29 80 + x19: .cfa -8 + ^ x20: .cfa -16 + ^ x21: .cfa -24 + ^ x22: .cfa -32 + ^ x23: .cfa -40 + ^ x24: .cfa -48 + ^ x25: .cfa -64 + ^ .ra: .cfa -72 + ^ x29: .cfa -80 + ^
STACK CFI 37660 .cfa: sp 96 +
STACK CFI 37678 .cfa: sp 0 +
STACK CFI 3767c .cfa: x29 80 +
STACK CFI INIT 376e4 290 .cfa: sp 0 +
STACK CFI 376e8 .cfa: sp 128 +
STACK CFI 376fc .cfa: x29 64 + x19: .cfa -8 + ^ x20: .cfa -16 + ^ x21: .cfa -24 + ^ x22: .cfa -32 + ^ x23: .cfa -48 + ^ .ra: .cfa -56 + ^ x29: .cfa -64 + ^
STACK CFI 37820 .cfa: sp 128 +
STACK CFI 37834 .cfa: sp 0 +
STACK CFI 37838 .cfa: x29 64 +
STACK CFI INIT 37974 168 .cfa: sp 0 +
STACK CFI 37978 .cfa: sp 144 +
STACK CFI 3798c .cfa: x29 64 + x19: .cfa -8 + ^ x20: .cfa -16 + ^ x21: .cfa -24 + ^ x22: .cfa -32 + ^ x23: .cfa -40 + ^ x24: .cfa -48 + ^ .ra: .cfa -56 + ^ x29: .cfa -64 + ^
STACK CFI 379e4 .cfa: sp 144 +
STACK CFI 379f8 .cfa: sp 0 +
STACK CFI 379fc .cfa: x29 64 +
STACK CFI INIT 37adc 2d4 .cfa: sp 0 +
STACK CFI 37ae0 .cfa: sp 96 +
STACK CFI 37af8 .cfa: x29 80 + x19: .cfa -8 + ^ x20: .cfa -16 + ^ x21: .cfa -24 + ^ x22: .cfa -32 + ^ x23: .cfa -40 + ^ x24: .cfa -48 + ^ x25: .cfa -64 + ^ .ra: .cfa -72 + ^ x29: .cfa -80 + ^
STACK CFI 37d4c .cfa: sp 96 +
STACK CFI 37d64 .cfa: sp 0 +
STACK CFI 37d68 .cfa: x29 80 +
STACK CFI INIT 37db0 298 .cfa: sp 0 +
STACK CFI 37db4 .cfa: sp 128 +
STACK CFI 37dc8 .cfa: x29 64 + x19: .cfa -8 + ^ x20: .cfa -16 + ^ x21: .cfa -24 + ^ x22: .cfa -32 + ^ x23: .cfa -48 + ^ .ra: .cfa -56 + ^ x29: .cfa -64 + ^
STACK CFI 37ef4 .cfa: sp 128 +
STACK CFI 37f08 .cfa: sp 0 +
STACK CFI 37f0c .cfa: x29 64 +
STACK CFI INIT 38048 168 .cfa: sp 0 +
STACK CFI 3804c .cfa: sp 144 +
STACK CFI 38060 .cfa: x29 64 + x19: .cfa -8 + ^ x20: .cfa -16 + ^ x21: .cfa -24 + ^ x22: .cfa -32 + ^ x23: .cfa -40 + ^ x24: .cfa -48 + ^ .ra: .cfa -56 + ^ x29: .cfa -64 + ^
STACK CFI 380b8 .cfa: sp 144 +
STACK CFI 380cc .cfa: sp 0 +
STACK CFI 380d0 .cfa: x29 64 +
STACK CFI INIT 381b0 2d4 .cfa: sp 0 +
STACK CFI 381b4 .cfa: sp 96 +
STACK CFI 381cc .cfa: x29 80 + x19: .cfa -8 + ^ x20: .cfa -16 + ^ x21: .cfa -24 + ^ x22: .cfa -32 + ^ x23: .cfa -40 + ^ x24: .cfa -48 + ^ x25: .cfa -64 + ^ .ra: .cfa -72 + ^ x29: .cfa -80 + ^
STACK CFI 38420 .cfa: sp 96 +
STACK CFI 38438 .cfa: sp 0 +
STACK CFI 3843c .cfa: x29 80 +
STACK CFI INIT 38484 1a0 .cfa: sp 0 +
STACK CFI 38488 .cfa: sp 160 +
STACK CFI 384a0 .cfa: x29 48 + x19: .cfa -8 + ^ x20: .cfa -16 + ^ x21: .cfa -24 + ^ x22: .cfa -32 + ^ .ra: .cfa -40 + ^ x29: .cfa -48 + ^ v8: .cfa -56 + ^ v9: .cfa -64 + ^ v10: .cfa -80 + ^
STACK CFI 38514 .cfa: sp 160 +
STACK CFI 3852c .cfa: sp 0 +
STACK CFI 38530 .cfa: x29 48 +
STACK CFI INIT 38624 3b8 .cfa: sp 0 +
STACK CFI 38628 .cfa: sp 80 +
STACK CFI 3863c .cfa: x29 80 + x19: .cfa -8 + ^ x20: .cfa -16 + ^ x21: .cfa -24 + ^ x22: .cfa -32 + ^ x23: .cfa -40 + ^ x24: .cfa -48 + ^ x25: .cfa -64 + ^ .ra: .cfa -72 + ^ x29: .cfa -80 + ^
STACK CFI 3896c .cfa: sp 80 +
STACK CFI 38980 .cfa: sp 0 +
STACK CFI 38984 .cfa: x29 80 +
STACK CFI INIT 389dc 814 .cfa: sp 0 +
STACK CFI 389e0 .cfa: sp 128 +
STACK CFI 389f4 .cfa: x29 64 + x19: .cfa -8 + ^ x20: .cfa -16 + ^ x21: .cfa -24 + ^ x22: .cfa -32 + ^ x23: .cfa -48 + ^ .ra: .cfa -56 + ^ x29: .cfa -64 + ^
STACK CFI 39028 .cfa: sp 128 +
STACK CFI 3903c .cfa: sp 0 +
STACK CFI 39040 .cfa: x29 64 +
STACK CFI INIT 391f0 7b0 .cfa: sp 0 +
STACK CFI 391f4 .cfa: sp 80 +
STACK CFI 39208 .cfa: x29 80 + x19: .cfa -8 + ^ x20: .cfa -16 + ^ x21: .cfa -24 + ^ x22: .cfa -32 + ^ x23: .cfa -40 + ^ x24: .cfa -48 + ^ x25: .cfa -56 + ^ x26: .cfa -64 + ^ .ra: .cfa -72 + ^ x29: .cfa -80 + ^
STACK CFI 39624 .cfa: sp 80 +
STACK CFI 39638 .cfa: sp 0 +
STACK CFI 3963c .cfa: x29 80 +
STACK CFI INIT 399f4 16c .cfa: sp 0 +
STACK CFI 399f8 .cfa: sp 160 +
STACK CFI 39a10 .cfa: x29 80 + x19: .cfa -8 + ^ x20: .cfa -16 + ^ x21: .cfa -24 + ^ x22: .cfa -32 + ^ x23: .cfa -40 + ^ x24: .cfa -48 + ^ x25: .cfa -56 + ^ x26: .cfa -64 + ^ .ra: .cfa -72 + ^ x29: .cfa -80 + ^
STACK CFI 39a78 .cfa: sp 160 +
STACK CFI 39a90 .cfa: sp 0 +
STACK CFI 39a94 .cfa: x29 80 +
STACK CFI INIT 39b60 4ac .cfa: sp 0 +
STACK CFI 39b64 .cfa: sp 128 +
STACK CFI 39b7c .cfa: x29 80 + x19: .cfa -8 + ^ x20: .cfa -16 + ^ x21: .cfa -24 + ^ x22: .cfa -32 + ^ x23: .cfa -40 + ^ x24: .cfa -48 + ^ x25: .cfa -64 + ^ .ra: .cfa -72 + ^ x29: .cfa -80 + ^
STACK CFI 39f88 .cfa: sp 128 +
STACK CFI 39fa0 .cfa: sp 0 +
STACK CFI 39fa4 .cfa: x29 80 +
STACK CFI INIT 3a014 17c .cfa: sp 0 +
STACK CFI 3a018 .cfa: sp 176 +
STACK CFI 3a034 .cfa: x29 80 + x19: .cfa -8 + ^ x20: .cfa -16 + ^ x21: .cfa -24 + ^ x22: .cfa -32 + ^ x23: .cfa -40 + ^ x24: .cfa -48 + ^ x25: .cfa -56 + ^ x26: .cfa -64 + ^ .ra: .cfa -72 + ^ x29: .cfa -80 + ^ v8: .cfa -96 + ^
STACK CFI 3a0a4 .cfa: sp 176 +
STACK CFI 3a0c0 .cfa: sp 0 +
STACK CFI 3a0c4 .cfa: x29 80 +
STACK CFI INIT 3a190 5ac .cfa: sp 0 +
STACK CFI 3a194 .cfa: sp 128 +
STACK CFI 3a1ac .cfa: x29 80 + x19: .cfa -8 + ^ x20: .cfa -16 + ^ x21: .cfa -24 + ^ x22: .cfa -32 + ^ x23: .cfa -40 + ^ x24: .cfa -48 + ^ x25: .cfa -64 + ^ .ra: .cfa -72 + ^ x29: .cfa -80 + ^
STACK CFI 3a6a8 .cfa: sp 128 +
STACK CFI 3a6c0 .cfa: sp 0 +
STACK CFI 3a6c4 .cfa: x29 80 +
STACK CFI INIT 3a744 15c .cfa: sp 0 +
STACK CFI 3a748 .cfa: sp 144 +
STACK CFI 3a760 .cfa: x29 56 + x19: .cfa -8 + ^ x20: .cfa -16 + ^ x21: .cfa -24 + ^ x22: .cfa -32 + ^ x23: .cfa -40 + ^ .ra: .cfa -48 + ^ x29: .cfa -56 + ^ v8: .cfa -64 + ^
STACK CFI 3a7b8 .cfa: sp 144 +
STACK CFI 3a7d0 .cfa: sp 0 +
STACK CFI 3a7d4 .cfa: x29 56 +
STACK CFI INIT 3a8a0 2d4 .cfa: sp 0 +
STACK CFI 3a8a4 .cfa: sp 96 +
STACK CFI 3a8bc .cfa: x29 80 + x19: .cfa -8 + ^ x20: .cfa -16 + ^ x21: .cfa -24 + ^ x22: .cfa -32 + ^ x23: .cfa -40 + ^ x24: .cfa -48 + ^ x25: .cfa -64 + ^ .ra: .cfa -72 + ^ x29: .cfa -80 + ^
STACK CFI 3ab10 .cfa: sp 96 +
STACK CFI 3ab28 .cfa: sp 0 +
STACK CFI 3ab2c .cfa: x29 80 +
STACK CFI INIT 3ab7c 14c .cfa: sp 0 +
STACK CFI 3ab80 .cfa: sp 144 +
STACK CFI 3ab94 .cfa: x29 64 + x19: .cfa -8 + ^ x20: .cfa -16 + ^ x21: .cfa -24 + ^ x22: .cfa -32 + ^ x23: .cfa -48 + ^ .ra: .cfa -56 + ^ x29: .cfa -64 + ^
STACK CFI 3abe4 .cfa: sp 144 +
STACK CFI 3abf8 .cfa: sp 0 +
STACK CFI 3abfc .cfa: x29 64 +
STACK CFI INIT 3acc8 108 .cfa: sp 0 +
STACK CFI 3accc .cfa: sp 64 +
STACK CFI 3acdc .cfa: x29 48 + x19: .cfa -8 + ^ x20: .cfa -16 + ^ x21: .cfa -24 + ^ x22: .cfa -32 + ^ .ra: .cfa -40 + ^ x29: .cfa -48 + ^
STACK CFI 3ad88 .cfa: sp 64 +
STACK CFI 3ad98 .cfa: sp 0 +
STACK CFI 3ad9c .cfa: x29 48 +
STACK CFI INIT 3ade8 164 .cfa: sp 0 +
STACK CFI 3adec .cfa: sp 160 +
STACK CFI 3ae04 .cfa: x29 80 + x19: .cfa -8 + ^ x20: .cfa -16 + ^ x21: .cfa -24 + ^ x22: .cfa -32 + ^ x23: .cfa -40 + ^ x24: .cfa -48 + ^ x25: .cfa -64 + ^ .ra: .cfa -72 + ^ x29: .cfa -80 + ^
STACK CFI 3ae64 .cfa: sp 160 +
STACK CFI 3ae7c .cfa: sp 0 +
STACK CFI 3ae80 .cfa: x29 80 +
STACK CFI INIT 3af4c 3d4 .cfa: sp 0 +
STACK CFI 3af50 .cfa: sp 96 +
STACK CFI 3af68 .cfa: x29 80 + x19: .cfa -8 + ^ x20: .cfa -16 + ^ x21: .cfa -24 + ^ x22: .cfa -32 + ^ x23: .cfa -40 + ^ x24: .cfa -48 + ^ x25: .cfa -64 + ^ .ra: .cfa -72 + ^ x29: .cfa -80 + ^
STACK CFI 3b2ac .cfa: sp 96 +
STACK CFI 3b2c4 .cfa: sp 0 +
STACK CFI 3b2c8 .cfa: x29 80 +
STACK CFI INIT 3b320 17c .cfa: sp 0 +
STACK CFI 3b324 .cfa: sp 176 +
STACK CFI 3b340 .cfa: x29 96 + x19: .cfa -8 + ^ x20: .cfa -16 + ^ x21: .cfa -24 + ^ x22: .cfa -32 + ^ x23: .cfa -40 + ^ x24: .cfa -48 + ^ x25: .cfa -56 + ^ x26: .cfa -64 + ^ x27: .cfa -80 + ^ .ra: .cfa -88 + ^ x29: .cfa -96 + ^
STACK CFI 3b3b0 .cfa: sp 176 +
STACK CFI 3b3cc .cfa: sp 0 +
STACK CFI 3b3d0 .cfa: x29 96 +
STACK CFI INIT 3b49c 5d4 .cfa: sp 0 +
STACK CFI 3b4a0 .cfa: sp 96 +
STACK CFI 3b4b8 .cfa: x29 80 + x19: .cfa -8 + ^ x20: .cfa -16 + ^ x21: .cfa -24 + ^ x22: .cfa -32 + ^ x23: .cfa -40 + ^ x24: .cfa -48 + ^ x25: .cfa -64 + ^ .ra: .cfa -72 + ^ x29: .cfa -80 + ^
STACK CFI 3b9dc .cfa: sp 96 +
STACK CFI 3b9f4 .cfa: sp 0 +
STACK CFI 3b9f8 .cfa: x29 80 +
STACK CFI INIT 3ba70 14c .cfa: sp 0 +
STACK CFI 3ba74 .cfa: sp 144 +
STACK CFI 3ba88 .cfa: x29 64 + x19: .cfa -8 + ^ x20: .cfa -16 + ^ x21: .cfa -24 + ^ x22: .cfa -32 + ^ x23: .cfa -48 + ^ .ra: .cfa -56 + ^ x29: .cfa -64 + ^
STACK CFI 3bad8 .cfa: sp 144 +
STACK CFI 3baec .cfa: sp 0 +
STACK CFI 3baf0 .cfa: x29 64 +
STACK CFI INIT 3bbbc 108 .cfa: sp 0 +
STACK CFI 3bbc0 .cfa: sp 64 +
STACK CFI 3bbd0 .cfa: x29 48 + x19: .cfa -8 + ^ x20: .cfa -16 + ^ x21: .cfa -24 + ^ x22: .cfa -32 + ^ .ra: .cfa -40 + ^ x29: .cfa -48 + ^
STACK CFI 3bc7c .cfa: sp 64 +
STACK CFI 3bc8c .cfa: sp 0 +
STACK CFI 3bc90 .cfa: x29 48 +
STACK CFI INIT 3bcc4 304 .cfa: sp 0 +
STACK CFI 3bcc8 .cfa: sp 128 +
STACK CFI 3bcdc .cfa: x29 64 + x19: .cfa -8 + ^ x20: .cfa -16 + ^ x21: .cfa -24 + ^ x22: .cfa -32 + ^ x23: .cfa -48 + ^ .ra: .cfa -56 + ^ x29: .cfa -64 + ^
STACK CFI 3be74 .cfa: sp 128 +
STACK CFI 3be88 .cfa: sp 0 +
STACK CFI 3be8c .cfa: x29 64 +
STACK CFI INIT 3c01c 14c .cfa: sp 0 +
STACK CFI 3c020 .cfa: sp 144 +
STACK CFI 3c034 .cfa: x29 64 + x19: .cfa -8 + ^ x20: .cfa -16 + ^ x21: .cfa -24 + ^ x22: .cfa -32 + ^ x23: .cfa -48 + ^ .ra: .cfa -56 + ^ x29: .cfa -64 + ^
STACK CFI 3c084 .cfa: sp 144 +
STACK CFI 3c098 .cfa: sp 0 +
STACK CFI 3c09c .cfa: x29 64 +
STACK CFI INIT 3c168 108 .cfa: sp 0 +
STACK CFI 3c16c .cfa: sp 64 +
STACK CFI 3c17c .cfa: x29 48 + x19: .cfa -8 + ^ x20: .cfa -16 + ^ x21: .cfa -24 + ^ x22: .cfa -32 + ^ .ra: .cfa -40 + ^ x29: .cfa -48 + ^
STACK CFI 3c228 .cfa: sp 64 +
STACK CFI 3c238 .cfa: sp 0 +
STACK CFI 3c23c .cfa: x29 48 +
STACK CFI INIT 3c2dc 278 .cfa: sp 0 +
STACK CFI 3c2e0 .cfa: sp 128 +
STACK CFI 3c2f4 .cfa: x29 64 + x19: .cfa -8 + ^ x20: .cfa -16 + ^ x21: .cfa -24 + ^ x22: .cfa -32 + ^ x23: .cfa -48 + ^ .ra: .cfa -56 + ^ x29: .cfa -64 + ^
STACK CFI 3c400 .cfa: sp 128 +
STACK CFI 3c414 .cfa: sp 0 +
STACK CFI 3c418 .cfa: x29 64 +
STACK CFI INIT 3c554 2c8 .cfa: sp 0 +
STACK CFI 3c558 .cfa: sp 128 +
STACK CFI 3c56c .cfa: x29 64 + x19: .cfa -8 + ^ x20: .cfa -16 + ^ x21: .cfa -24 + ^ x22: .cfa -32 + ^ x23: .cfa -48 + ^ .ra: .cfa -56 + ^ x29: .cfa -64 + ^
STACK CFI 3c6c8 .cfa: sp 128 +
STACK CFI 3c6dc .cfa: sp 0 +
STACK CFI 3c6e0 .cfa: x29 64 +
STACK CFI INIT 3c81c 4bc .cfa: sp 0 +
STACK CFI 3c820 .cfa: sp 128 +
STACK CFI 3c834 .cfa: x29 64 + x19: .cfa -8 + ^ x20: .cfa -16 + ^ x21: .cfa -24 + ^ x22: .cfa -32 + ^ x23: .cfa -48 + ^ .ra: .cfa -56 + ^ x29: .cfa -64 + ^
STACK CFI 3cb30 .cfa: sp 128 +
STACK CFI 3cb44 .cfa: sp 0 +
STACK CFI 3cb48 .cfa: x29 64 +
STACK CFI INIT 3ccd8 154 .cfa: sp 0 +
STACK CFI 3ccdc .cfa: sp 384 +
STACK CFI 3ccf0 .cfa: x29 64 + x19: .cfa -8 + ^ x20: .cfa -16 + ^ x21: .cfa -24 + ^ x22: .cfa -32 + ^ x23: .cfa -40 + ^ x28: .cfa -48 + ^ .ra: .cfa -56 + ^ x29: .cfa -64 + ^
STACK CFI 3cdd4 .cfa: sp 384 +
STACK CFI 3cde8 .cfa: sp 0 +
STACK CFI 3cdec .cfa: x29 64 +
STACK CFI INIT 3ce44 4e0 .cfa: sp 0 +
STACK CFI 3ce48 .cfa: sp 64 +
STACK CFI 3ce58 .cfa: x29 64 + x19: .cfa -8 + ^ x20: .cfa -16 + ^ x21: .cfa -24 + ^ x22: .cfa -32 + ^ x23: .cfa -40 + ^ x24: .cfa -48 + ^ .ra: .cfa -56 + ^ x29: .cfa -64 + ^
STACK CFI 3d2f8 .cfa: sp 64 +
STACK CFI 3d308 .cfa: sp 0 +
STACK CFI 3d30c .cfa: x29 64 +
STACK CFI INIT 3d654 294 .cfa: sp 0 +
STACK CFI 3d658 .cfa: sp 240 +
STACK CFI 3d670 .cfa: x29 80 + x19: .cfa -8 + ^ x20: .cfa -16 + ^ x21: .cfa -24 + ^ x22: .cfa -32 + ^ x23: .cfa -40 + ^ x24: .cfa -48 + ^ x25: .cfa -64 + ^ .ra: .cfa -72 + ^ x29: .cfa -80 + ^
STACK CFI 3d810 .cfa: sp 240 +
STACK CFI 3d828 .cfa: sp 0 +
STACK CFI 3d82c .cfa: x29 80 +
STACK CFI INIT 3d964 50 .cfa: sp 0 +
STACK CFI 3d968 .cfa: sp 32 +
STACK CFI 3d970 .cfa: x29 32 + x19: .cfa -8 + ^ x20: .cfa -16 + ^ .ra: .cfa -24 + ^ x29: .cfa -32 + ^
STACK CFI INIT 3d9e0 7c0 .cfa: sp 0 +
STACK CFI 3d9e4 .cfa: sp 320 +
STACK CFI 3da00 .cfa: x29 96 + x19: .cfa -8 + ^ x20: .cfa -16 + ^ x21: .cfa -24 + ^ x22: .cfa -32 + ^ x23: .cfa -40 + ^ x24: .cfa -48 + ^ x25: .cfa -56 + ^ x26: .cfa -64 + ^ x27: .cfa -72 + ^ x28: .cfa -80 + ^ .ra: .cfa -88 + ^ x29: .cfa -96 + ^
STACK CFI 3e050 .cfa: sp 320 +
STACK CFI 3e06c .cfa: sp 0 +
STACK CFI 3e070 .cfa: x29 96 +
STACK CFI INIT 42520 c74 .cfa: sp 0 +
STACK CFI 42524 .cfa: sp 96 +
STACK CFI 4253c .cfa: x29 96 + x19: .cfa -8 + ^ x20: .cfa -16 + ^ x21: .cfa -24 + ^ x22: .cfa -32 + ^ x23: .cfa -40 + ^ x24: .cfa -48 + ^ x25: .cfa -56 + ^ x26: .cfa -64 + ^ x27: .cfa -72 + ^ x28: .cfa -80 + ^ .ra: .cfa -88 + ^ x29: .cfa -96 + ^
STACK CFI 42fb4 .cfa: sp 96 +
STACK CFI 42fcc .cfa: sp 0 +
STACK CFI 42fd0 .cfa: x29 96 +
STACK CFI INIT 432e8 26c .cfa: sp 0 +
STACK CFI 432ec .cfa: sp 128 +
STACK CFI 432fc .cfa: x29 48 + x19: .cfa -8 + ^ x20: .cfa -16 + ^ x21: .cfa -24 + ^ x22: .cfa -32 + ^ .ra: .cfa -40 + ^ x29: .cfa -48 + ^
STACK CFI 434a0 .cfa: sp 128 +
STACK CFI 434b0 .cfa: sp 0 +
STACK CFI 434b4 .cfa: x29 48 +
STACK CFI INIT 43aa0 3b8 .cfa: sp 0 +
STACK CFI 43aa4 .cfa: sp 96 +
STACK CFI 43abc .cfa: x29 96 + x19: .cfa -8 + ^ x20: .cfa -16 + ^ x21: .cfa -24 + ^ x22: .cfa -32 + ^ x23: .cfa -40 + ^ x24: .cfa -48 + ^ x25: .cfa -56 + ^ x26: .cfa -64 + ^ x27: .cfa -72 + ^ x28: .cfa -80 + ^ .ra: .cfa -88 + ^ x29: .cfa -96 + ^
STACK CFI 43df8 .cfa: sp 96 +
STACK CFI 43e10 .cfa: sp 0 +
STACK CFI 43e14 .cfa: x29 96 +
STACK CFI INIT 43ef8 cb4 .cfa: sp 0 +
STACK CFI 43efc .cfa: sp 96 +
STACK CFI 43f14 .cfa: x29 96 + x19: .cfa -8 + ^ x20: .cfa -16 + ^ x21: .cfa -24 + ^ x22: .cfa -32 + ^ x23: .cfa -40 + ^ x24: .cfa -48 + ^ x25: .cfa -56 + ^ x26: .cfa -64 + ^ x27: .cfa -72 + ^ x28: .cfa -80 + ^ .ra: .cfa -88 + ^ x29: .cfa -96 + ^
STACK CFI 449bc .cfa: sp 96 +
STACK CFI 449d4 .cfa: sp 0 +
STACK CFI 449d8 .cfa: x29 96 +
STACK CFI INIT 44e94 afc .cfa: sp 0 +
STACK CFI 44e98 .cfa: sp 96 +
STACK CFI 44eb0 .cfa: x29 96 + x19: .cfa -8 + ^ x20: .cfa -16 + ^ x21: .cfa -24 + ^ x22: .cfa -32 + ^ x23: .cfa -40 + ^ x24: .cfa -48 + ^ x25: .cfa -56 + ^ x26: .cfa -64 + ^ x27: .cfa -72 + ^ x28: .cfa -80 + ^ .ra: .cfa -88 + ^ x29: .cfa -96 + ^
STACK CFI 45904 .cfa: sp 96 +
STACK CFI 4591c .cfa: sp 0 +
STACK CFI 45920 .cfa: x29 96 +
STACK CFI INIT 45b6c 1430 .cfa: sp 0 +
STACK CFI 45b70 .cfa: sp 96 +
STACK CFI 45b88 .cfa: x29 96 + x19: .cfa -8 + ^ x20: .cfa -16 + ^ x21: .cfa -24 + ^ x22: .cfa -32 + ^ x23: .cfa -40 + ^ x24: .cfa -48 + ^ x25: .cfa -56 + ^ x26: .cfa -64 + ^ x27: .cfa -72 + ^ x28: .cfa -80 + ^ .ra: .cfa -88 + ^ x29: .cfa -96 + ^
STACK CFI 46e24 .cfa: sp 96 +
STACK CFI 46e3c .cfa: sp 0 +
STACK CFI 46e40 .cfa: x29 96 +
STACK CFI INIT 470c0 75c .cfa: sp 0 +
STACK CFI 470c4 .cfa: sp 368 +
STACK CFI 470e0 .cfa: x29 96 + x19: .cfa -8 + ^ x20: .cfa -16 + ^ x21: .cfa -24 + ^ x22: .cfa -32 + ^ x23: .cfa -40 + ^ x24: .cfa -48 + ^ x25: .cfa -56 + ^ x26: .cfa -64 + ^ x27: .cfa -72 + ^ x28: .cfa -80 + ^ .ra: .cfa -88 + ^ x29: .cfa -96 + ^
STACK CFI 47194 .cfa: sp 368 +
STACK CFI 471b0 .cfa: sp 0 +
STACK CFI 471b4 .cfa: x29 96 +
STACK CFI 47208 .cfa: sp 368 +
STACK CFI 47224 .cfa: sp 0 +
STACK CFI 47228 .cfa: x29 96 +
STACK CFI INIT 47bdc eb0 .cfa: sp 0 +
STACK CFI 47be0 .cfa: sp 96 +
STACK CFI 47bf8 .cfa: x29 96 + x19: .cfa -8 + ^ x20: .cfa -16 + ^ x21: .cfa -24 + ^ x22: .cfa -32 + ^ x23: .cfa -40 + ^ x24: .cfa -48 + ^ x25: .cfa -56 + ^ x26: .cfa -64 + ^ x27: .cfa -72 + ^ x28: .cfa -80 + ^ .ra: .cfa -88 + ^ x29: .cfa -96 + ^
STACK CFI 488a0 .cfa: sp 96 +
STACK CFI 488b8 .cfa: sp 0 +
STACK CFI 488bc .cfa: x29 96 +
STACK CFI INIT 48e00 1c9c .cfa: sp 0 +
STACK CFI 48e04 .cfa: sp 112 +
STACK CFI 48e20 .cfa: x29 96 + x19: .cfa -8 + ^ x20: .cfa -16 + ^ x21: .cfa -24 + ^ x22: .cfa -32 + ^ x23: .cfa -40 + ^ x24: .cfa -48 + ^ x25: .cfa -56 + ^ x26: .cfa -64 + ^ x27: .cfa -72 + ^ x28: .cfa -80 + ^ .ra: .cfa -88 + ^ x29: .cfa -96 + ^ v8: .cfa -112 + ^
STACK CFI 49208 .cfa: sp 112 +
STACK CFI 49224 .cfa: sp 0 +
STACK CFI 49228 .cfa: x29 96 +
STACK CFI INIT 4d260 9a0 .cfa: sp 0 +
STACK CFI 4d264 .cfa: sp 144 +
STACK CFI 4d27c .cfa: x29 80 + x19: .cfa -8 + ^ x20: .cfa -16 + ^ x21: .cfa -24 + ^ x22: .cfa -32 + ^ x23: .cfa -40 + ^ x24: .cfa -48 + ^ x25: .cfa -64 + ^ .ra: .cfa -72 + ^ x29: .cfa -80 + ^
STACK CFI 4db7c .cfa: sp 144 +
STACK CFI 4db94 .cfa: sp 0 +
STACK CFI 4db98 .cfa: x29 80 +
STACK CFI INIT 4f124 57c .cfa: sp 0 +
STACK CFI 4f128 .cfa: sp 96 +
STACK CFI 4f140 .cfa: x29 96 + x19: .cfa -8 + ^ x20: .cfa -16 + ^ x21: .cfa -24 + ^ x22: .cfa -32 + ^ x23: .cfa -40 + ^ x24: .cfa -48 + ^ x25: .cfa -56 + ^ x26: .cfa -64 + ^ x27: .cfa -72 + ^ x28: .cfa -80 + ^ .ra: .cfa -88 + ^ x29: .cfa -96 + ^
STACK CFI 4f604 .cfa: sp 96 +
STACK CFI 4f61c .cfa: sp 0 +
STACK CFI 4f620 .cfa: x29 96 +
STACK CFI INIT 4f6a0 67c .cfa: sp 0 +
STACK CFI 4f6a4 .cfa: sp 96 +
STACK CFI 4f6bc .cfa: x29 96 + x19: .cfa -8 + ^ x20: .cfa -16 + ^ x21: .cfa -24 + ^ x22: .cfa -32 + ^ x23: .cfa -40 + ^ x24: .cfa -48 + ^ x25: .cfa -56 + ^ x26: .cfa -64 + ^ x27: .cfa -72 + ^ x28: .cfa -80 + ^ .ra: .cfa -88 + ^ x29: .cfa -96 + ^
STACK CFI 4fc80 .cfa: sp 96 +
STACK CFI 4fc98 .cfa: sp 0 +
STACK CFI 4fc9c .cfa: x29 96 +
