MODULE Linux arm64 70E3319CF574CA779BDB30DC622E56560 colon.gd_in_2019.android64.so
INFO CODE_ID 9C31E37074F577CA9BDB30DC622E5656098BDF45
INFO GENERATOR mozilla/dump_syms 2.3.4
PUBLIC 5aa0 0 __on_dlclose
PUBLIC 5ab0 0 __emutls_unregister_key
PUBLIC 5ab8 0 __on_dlclose_late
PUBLIC 5ac0 0 __atexit_handler_wrapper
PUBLIC 5ad4 0 atexit
PUBLIC 5af0 0 pthread_atfork
PUBLIC 5b00 0 unwind_phase2
PUBLIC 5c34 0 _Unwind_Resume
PUBLIC 5cb8 0 unwind_phase2_forced
PUBLIC m 5dac 0 __unw_init_local
PUBLIC m 5e54 0 __unw_get_reg
PUBLIC 5ed0 0 __unw_step_stage2
PUBLIC m 5ee4 0 __unw_get_proc_info
PUBLIC m 5f24 0 __unw_resume
PUBLIC 5f4c 0 libunwind::CFI_Parser<libunwind::LocalAddressSpace>::decodeFDE(libunwind::LocalAddressSpace&, unsigned long, libunwind::CFI_Parser<libunwind::LocalAddressSpace>::FDE_Info*, libunwind::CFI_Parser<libunwind::LocalAddressSpace>::CIE_Info*, bool)
PUBLIC 60dc 0 libunwind::CFI_Parser<libunwind::LocalAddressSpace>::parseCIE(libunwind::LocalAddressSpace&, unsigned long, libunwind::CFI_Parser<libunwind::LocalAddressSpace>::CIE_Info*)
PUBLIC 63a4 0 libunwind::AbstractUnwindCursor::~AbstractUnwindCursor()
PUBLIC 63ac 0 libunwind::UnwindCursor<libunwind::LocalAddressSpace, libunwind::Registers_arm64>::~UnwindCursor()
PUBLIC 63b4 0 libunwind::UnwindCursor<libunwind::LocalAddressSpace, libunwind::Registers_arm64>::validReg(int)
PUBLIC 63f8 0 libunwind::UnwindCursor<libunwind::LocalAddressSpace, libunwind::Registers_arm64>::getReg(int)
PUBLIC 64e0 0 libunwind::UnwindCursor<libunwind::LocalAddressSpace, libunwind::Registers_arm64>::setReg(int, unsigned long)
PUBLIC 65c8 0 libunwind::UnwindCursor<libunwind::LocalAddressSpace, libunwind::Registers_arm64>::validFloatReg(int)
PUBLIC 65dc 0 libunwind::UnwindCursor<libunwind::LocalAddressSpace, libunwind::Registers_arm64>::getFloatReg(int)
PUBLIC 65ec 0 libunwind::UnwindCursor<libunwind::LocalAddressSpace, libunwind::Registers_arm64>::setFloatReg(int, double)
PUBLIC 65fc 0 libunwind::UnwindCursor<libunwind::LocalAddressSpace, libunwind::Registers_arm64>::step(bool)
PUBLIC 66ec 0 libunwind::UnwindCursor<libunwind::LocalAddressSpace, libunwind::Registers_arm64>::getInfo(unw_proc_info_t*)
PUBLIC 6730 0 libunwind::UnwindCursor<libunwind::LocalAddressSpace, libunwind::Registers_arm64>::jumpto()
PUBLIC 673c 0 libunwind::UnwindCursor<libunwind::LocalAddressSpace, libunwind::Registers_arm64>::isSignalFrame()
PUBLIC 6748 0 libunwind::UnwindCursor<libunwind::LocalAddressSpace, libunwind::Registers_arm64>::getFunctionName(char*, unsigned long, unsigned long*)
PUBLIC 6774 0 libunwind::UnwindCursor<libunwind::LocalAddressSpace, libunwind::Registers_arm64>::setInfoBasedOnIPRegister(bool)
PUBLIC 69f4 0 libunwind::UnwindCursor<libunwind::LocalAddressSpace, libunwind::Registers_arm64>::getRegisterName(int)
PUBLIC 6a00 0 libunwind::UnwindCursor<libunwind::LocalAddressSpace, libunwind::Registers_arm64>::stepThroughSigReturn(libunwind::Registers_arm64&)
PUBLIC 6b20 0 libunwind::DwarfInstructions<libunwind::LocalAddressSpace, libunwind::Registers_arm64>::stepWithDwarf(libunwind::LocalAddressSpace&, unsigned long, unsigned long, libunwind::Registers_arm64&, bool&, bool)
PUBLIC 6fa8 0 libunwind::CFI_Parser<libunwind::LocalAddressSpace>::parseFDEInstructions(libunwind::LocalAddressSpace&, libunwind::CFI_Parser<libunwind::LocalAddressSpace>::FDE_Info const&, libunwind::CFI_Parser<libunwind::LocalAddressSpace>::CIE_Info const&, unsigned long, int, libunwind::CFI_Parser<libunwind::LocalAddressSpace>::PrologInfo*)
PUBLIC 7bf0 0 libunwind::DwarfInstructions<libunwind::LocalAddressSpace, libunwind::Registers_arm64>::getCFA(libunwind::LocalAddressSpace&, libunwind::CFI_Parser<libunwind::LocalAddressSpace>::PrologInfo const&, libunwind::Registers_arm64 const&)
PUBLIC 7d24 0 libunwind::DwarfInstructions<libunwind::LocalAddressSpace, libunwind::Registers_arm64>::getSavedRegister(libunwind::LocalAddressSpace&, libunwind::Registers_arm64 const&, unsigned long, libunwind::CFI_Parser<libunwind::LocalAddressSpace>::RegisterLocation const&)
PUBLIC 7f34 0 libunwind::LocalAddressSpace::getEncodedP(unsigned long&, unsigned long, unsigned char, unsigned long)
PUBLIC 82c0 0 libunwind::LocalAddressSpace::getULEB128(unsigned long&, unsigned long)
PUBLIC 8488 0 libunwind::DwarfInstructions<libunwind::LocalAddressSpace, libunwind::Registers_arm64>::evaluateExpression(unsigned long, libunwind::LocalAddressSpace&, libunwind::Registers_arm64 const&, unsigned long)
PUBLIC 8e44 0 libunwind::UnwindCursor<libunwind::LocalAddressSpace, libunwind::Registers_arm64>::getInfoFromDwarfSection(unsigned long, libunwind::UnwindInfoSections const&, unsigned int)
PUBLIC 9118 0 libunwind::findUnwindSectionsByPhdr(dl_phdr_info*, unsigned long, void*)
PUBLIC 924c 0 libunwind::EHHeaderParser<libunwind::LocalAddressSpace>::decodeEHHdr(libunwind::LocalAddressSpace&, unsigned long, unsigned long, libunwind::EHHeaderParser<libunwind::LocalAddressSpace>::EHHeaderInfo&)
PUBLIC 936c 0 libunwind::CFI_Parser<libunwind::LocalAddressSpace>::findFDE(libunwind::LocalAddressSpace&, unsigned long, unsigned long, unsigned long, unsigned long, libunwind::CFI_Parser<libunwind::LocalAddressSpace>::FDE_Info*, libunwind::CFI_Parser<libunwind::LocalAddressSpace>::CIE_Info*)
PUBLIC 9534 0 libunwind::EHHeaderParser<libunwind::LocalAddressSpace>::findFDE(libunwind::LocalAddressSpace&, unsigned long, unsigned long, unsigned int, libunwind::CFI_Parser<libunwind::LocalAddressSpace>::FDE_Info*, libunwind::CFI_Parser<libunwind::LocalAddressSpace>::CIE_Info*)
PUBLIC 969c 0 libunwind::EHHeaderParser<libunwind::LocalAddressSpace>::getTableEntrySize(unsigned char)
PUBLIC 9798 0 libunwind::Registers_arm64::getRegisterName(int)
PUBLIC 97c8 0 __libunwind_Registers_arm64_jumpto
PUBLIC m 9858 0 __unw_getcontext
PUBLIC 9900 0 __aarch64_ldadd8_relax
PUBLIC 9930 0 init_have_lse_atomics
PUBLIC 99c8 0 __init_cpu_features_constructor
PUBLIC 9f64 0 __init_cpu_features
PUBLIC 9ff0 0 __aarch64_ldadd8_acq_rel
PUBLIC a020 0 __cxx_global_var_init
PUBLIC abc0 0 geode::modifier::ModifyBase<geode::modifier::ModifyDerive<hook6<(anonymous namespace)::hook6Parent>, CreatorLayer> >::~ModifyBase()
PUBLIC abd8 0 geode::modifier::ModifyDerive<hook6<(anonymous namespace)::hook6Parent>, CreatorLayer>::apply()
PUBLIC afec 0 std::__ndk1::shared_ptr<geode::Hook>::~shared_ptr[abi:ne180000]()
PUBLIC b03c 0 geode::impl::ResultData<geode::Hook*, std::__ndk1::basic_string<char, std::__ndk1::char_traits<char>, std::__ndk1::allocator<char> > >::~ResultData()
PUBLIC b0b0 0 std::__ndk1::vector<std::__ndk1::basic_string<char, std::__ndk1::char_traits<char>, std::__ndk1::allocator<char> >, std::__ndk1::allocator<std::__ndk1::basic_string<char, std::__ndk1::char_traits<char>, std::__ndk1::allocator<char> > > >::~vector[abi:ne180000]()
PUBLIC b12c 0 geode::modifier::ModifyBase<geode::modifier::ModifyDerive<hook6<(anonymous namespace)::hook6Parent>, CreatorLayer> >::apply()
PUBLIC b130 0 __clang_call_terminate
PUBLIC b140 0 _ZN5geode15UnwrapExceptionC2IRPNS_4HookEQsr4implE18IsStringStreamableIT_EEENS_4impl5OkTagEOS5_
PUBLIC b294 0 std::__ndk1::__throw_bad_variant_access[abi:ne180000]()
PUBLIC b2c8 0 std::__ndk1::basic_stringstream<char, std::__ndk1::char_traits<char>, std::__ndk1::allocator<char> >::basic_stringstream[abi:ne180000]()
PUBLIC m b3f4 0 std::__ndk1::basic_stringstream<char, std::__ndk1::char_traits<char>, std::__ndk1::allocator<char> >::~basic_stringstream()
PUBLIC b474 0 geode::UnwrapException::~UnwrapException()
PUBLIC b498 0 std::__ndk1::__put_character_sequence[abi:ne180000]<char, std::__ndk1::char_traits<char> >(std::__ndk1::basic_ostream<char, std::__ndk1::char_traits<char> >, std::__ndk1::basic_ostream const*, unsigned long)
PUBLIC b63c 0 std::__ndk1::__pad_and_output[abi:ne180000]<char, std::__ndk1::char_traits<char> >(std::__ndk1::char_traits<char>, std::__ndk1::ostreambuf_iterator const*, std::__ndk1::ostreambuf_iterator const, std::__ndk1::ostreambuf_iterator const, std::__ndk1::ios_base&, std::__ndk1::ostreambuf_iterator)
PUBLIC b818 0 std::__ndk1::basic_string<char, std::__ndk1::char_traits<char>, std::__ndk1::allocator<char> >::__throw_length_error[abi:ne180000]() const
PUBLIC b82c 0 std::__ndk1::__throw_length_error[abi:ne180000](char const*)
PUBLIC b87c 0 std::length_error::length_error[abi:ne180000](char const*)
PUBLIC b8ac 0 std::__throw_bad_array_new_length([abi:ne180000], void)
PUBLIC b8e0 0 std::__ndk1::basic_stringbuf<char, std::__ndk1::char_traits<char>, std::__ndk1::allocator<char> >::str[abi:ne180000]() &&
PUBLIC ba58 0 std::__ndk1::basic_stringbuf<char, std::__ndk1::char_traits<char>, std::__ndk1::allocator<char> >::__init_buf_ptrs[abi:ne180000]()
PUBLIC bba0 0 std::__ndk1::basic_string<char, std::__ndk1::char_traits<char>, std::__ndk1::allocator<char> >::__init_copy_ctor_external(char const*, unsigned long)
PUBLIC bc20 0 std::__ndk1::__split_buffer<std::__ndk1::basic_string<char, std::__ndk1::char_traits<char>, std::__ndk1::allocator<char> >, std::__ndk1::allocator<std::__ndk1::basic_string<char, std::__ndk1::char_traits<char>, std::__ndk1::allocator<char> > >&>::~__split_buffer()
PUBLIC bc88 0 std::__ndk1::vector<std::__ndk1::basic_string<char, std::__ndk1::char_traits<char>, std::__ndk1::allocator<char> >, std::__ndk1::allocator<std::__ndk1::basic_string<char, std::__ndk1::char_traits<char>, std::__ndk1::allocator<char> > > >::__throw_length_error[abi:ne180000]() const
PUBLIC bc9c 0 std::__ndk1::__variant_detail::__visitation::__base::__dispatcher<(unsigned long)0>::__dispatch[abi:ne180000]<std::__ndk1::__variant_detail::__dtor<std::__ndk1::__variant_detail::__traits<geode::Hook*, std::__ndk1::basic_string<char, std::__ndk1::char_traits<char>, std::__ndk1::allocator<char> > >, (std::__ndk1::__variant_detail::_Trait)1>::__destroy[abi:ne180000]()::{lambda(auto:1&)#1}, std::__ndk1::__variant_detail::__base<(std::__ndk1::__variant_detail::__traits<geode::Hook*, std::__ndk1::basic_string<char, std::__ndk1::char_traits<char>, std::__ndk1::allocator<char> > >)1, geode::Hook, std::__ndk1::allocator<char> >&>(std::__ndk1::__variant_detail::__dtor<std::__ndk1::__variant_detail::__traits<geode::Hook*, std::__ndk1::basic_string<char, std::__ndk1::char_traits<char>, std::__ndk1::allocator<char> > >, (std::__ndk1::__variant_detail::_Trait)1>, std::__ndk1::__variant_detail::__base<(std::__ndk1::__variant_detail::__traits<geode::Hook*, std::__ndk1::basic_string<char, std::__ndk1::char_traits<char>, std::__ndk1::allocator<char> > >)1, geode::Hook, std::__ndk1::allocator<char> >&)
PUBLIC bca0 0 std::__ndk1::__variant_detail::__visitation::__base::__dispatcher<(unsigned long)1>::__dispatch[abi:ne180000]<std::__ndk1::__variant_detail::__dtor<std::__ndk1::__variant_detail::__traits<geode::Hook*, std::__ndk1::basic_string<char, std::__ndk1::char_traits<char>, std::__ndk1::allocator<char> > >, (std::__ndk1::__variant_detail::_Trait)1>::__destroy[abi:ne180000]()::{lambda(auto:1&)#1}, std::__ndk1::__variant_detail::__base<(std::__ndk1::__variant_detail::__traits<geode::Hook*, std::__ndk1::basic_string<char, std::__ndk1::char_traits<char>, std::__ndk1::allocator<char> > >)1, geode::Hook, std::__ndk1::allocator<char> >&>(std::__ndk1::__variant_detail::__dtor<std::__ndk1::__variant_detail::__traits<geode::Hook*, std::__ndk1::basic_string<char, std::__ndk1::char_traits<char>, std::__ndk1::allocator<char> > >, (std::__ndk1::__variant_detail::_Trait)1>, std::__ndk1::__variant_detail::__base<(std::__ndk1::__variant_detail::__traits<geode::Hook*, std::__ndk1::basic_string<char, std::__ndk1::char_traits<char>, std::__ndk1::allocator<char> > >)1, geode::Hook, std::__ndk1::allocator<char> >&)
PUBLIC bcb4 0 std::__ndk1::__tree<std::__ndk1::__value_type<std::__ndk1::basic_string<char, std::__ndk1::char_traits<char>, std::__ndk1::allocator<char> >, std::__ndk1::shared_ptr<geode::Hook> >, std::__ndk1::__map_value_compare<std::__ndk1::basic_string<char, std::__ndk1::char_traits<char>, std::__ndk1::allocator<char> >, std::__ndk1::__value_type<std::__ndk1::basic_string<char, std::__ndk1::char_traits<char>, std::__ndk1::allocator<char> >, std::__ndk1::shared_ptr<geode::Hook> >, std::__ndk1::less<std::__ndk1::basic_string<char, std::__ndk1::char_traits<char>, std::__ndk1::allocator<char> > >, true>, std::__ndk1::allocator<std::__ndk1::__value_type<std::__ndk1::basic_string<char, std::__ndk1::char_traits<char>, std::__ndk1::allocator<char> >, std::__ndk1::shared_ptr<geode::Hook> > > >::destroy(std::__ndk1::__tree_node<std::__ndk1::__value_type<std::__ndk1::basic_string<char, std::__ndk1::char_traits<char>, std::__ndk1::allocator<char> >, std::__ndk1::shared_ptr<geode::Hook> >, void*>*)
PUBLIC bd38 0 geode::modifier::AsStaticFunction_init<hook6<(anonymous namespace)::hook6Parent>, bool (hook6<(anonymous namespace)::hook6Parent>::*)()>::Impl<bool (hook6<(anonymous namespace)::hook6Parent>::*)()>::function(hook6<(anonymous namespace)::hook6Parent>*)
PUBLIC e2e8 0 geode::addresser::Addresser::addressOfVirtual<bool, CreatorLayer, >(bool (CreatorLayer::*)())
PUBLIC e390 0 CreatorLayer::CreatorLayer(geode::ZeroConstructorType)
PUBLIC e428 0 std::__ndk1::shared_ptr<tulip::hook::CallingConvention>::~shared_ptr[abi:ne180000]()
PUBLIC e478 0 tulip::hook::HandlerMetadata::~HandlerMetadata()
PUBLIC e4dc 0 geode::modifier::FieldIntermediate<hook6<(anonymous namespace)::hook6Parent>, CreatorLayer>::operator->()
PUBLIC eb1c 0 hook6<(anonymous namespace)::hook6Parent>::makeLargeButton(std::__ndk1::basic_string<char, std::__ndk1::char_traits<char>, std::__ndk1::allocator<char> > const&, float, float, void (cocos2d::CCObject::*)(cocos2d::CCObject*))
PUBLIC ee50 0 geode::modifier::FieldIntermediate<hook6<(anonymous namespace)::hook6Parent>, CreatorLayer>::fieldDestructor(void*)
PUBLIC ee54 0 std::__ndk1::vector<void*, std::__ndk1::allocator<void*> >::__throw_length_error[abi:ne180000]() const
PUBLIC ee68 0 std::__ndk1::vector<std::__ndk1::function<void (void*)>, std::__ndk1::allocator<std::__ndk1::function<void (void*)> > >::__throw_length_error[abi:ne180000]() const
PUBLIC ee7c 0 std::__ndk1::vector<void*, std::__ndk1::allocator<void*> >::__throw_out_of_range[abi:ne180000]() const
PUBLIC ee88 0 std::__ndk1::__throw_out_of_range[abi:ne180000](char const*)
PUBLIC eed8 0 std::out_of_range::out_of_range[abi:ne180000](char const*)
PUBLIC ef08 0 std::__ndk1::vector<std::__ndk1::function<void (void*)>, std::__ndk1::allocator<std::__ndk1::function<void (void*)> > >::__throw_out_of_range[abi:ne180000]() const
PUBLIC ef14 0 std::__ndk1::__function::__base<void (void*)>::~__base()
PUBLIC ef18 0 std::__ndk1::__function::__func<void (*)(void*), std::__ndk1::allocator<void (*)(void*)>, void (void*)>::~__func()
PUBLIC ef1c 0 std::__ndk1::__function::__func<void (*)(void*), std::__ndk1::allocator<void (*)(void*)>, void (void*)>::__clone() const
PUBLIC ef54 0 std::__ndk1::__function::__func<void (*)(void*), std::__ndk1::allocator<void (*)(void*)>, void (void*)>::__clone(std::__ndk1::__function::__base<void (void*)>*) const
PUBLIC ef6c 0 std::__ndk1::__function::__func<void (*)(void*), std::__ndk1::allocator<void (*)(void*)>, void (void*)>::destroy()
PUBLIC ef70 0 std::__ndk1::__function::__func<void (*)(void*), std::__ndk1::allocator<void (*)(void*)>, void (void*)>::destroy_deallocate()
PUBLIC ef74 0 std::__ndk1::__function::__func<void (*)(void*), std::__ndk1::allocator<void (*)(void*)>, void (void*)>::operator()(void*&&)
PUBLIC ef84 0 std::__ndk1::__function::__func<void (*)(void*), std::__ndk1::allocator<void (*)(void*)>, void (void*)>::target(std::type_info const&) const
PUBLIC efa0 0 std::__ndk1::__function::__func<void (*)(void*), std::__ndk1::allocator<void (*)(void*)>, void (void*)>::target_type() const
PUBLIC efac 0 std::__ndk1::__tree_balance_after_insert[abi:ne180000]<std::__ndk1::__tree_node_base<void*>*>(std::__ndk1::__tree_node_base<void*>*, std::__ndk1::__tree_node_base<void*>*)
PUBLIC m f15c 0 geodeImplicitEntry
PUBLIC f1a0 0 <.plt ELF section in colon.gd_in_2019.android64.so>
STACK CFI INIT 5aa0 10 .cfa: sp 0 +
STACK CFI INIT 5ab0 8 .cfa: sp 0 +
STACK CFI INIT 5ab8 8 .cfa: sp 0 +
STACK CFI INIT 5ac0 14 .cfa: sp 0 +
STACK CFI INIT 5ad4 1c .cfa: sp 0 +
STACK CFI INIT 5af0 10 .cfa: sp 0 +
STACK CFI INIT 5b00 134 .cfa: sp 0 +
STACK CFI INIT 5c34 84 .cfa: sp 0 +
STACK CFI INIT 5cb8 f4 .cfa: sp 0 +
STACK CFI INIT 5dac a8 .cfa: sp 0 +
STACK CFI INIT 5e54 7c .cfa: sp 0 +
STACK CFI INIT 5ed0 14 .cfa: sp 0 +
STACK CFI INIT 5ee4 40 .cfa: sp 0 +
STACK CFI INIT 5f24 28 .cfa: sp 0 +
STACK CFI INIT 5f4c 190 .cfa: sp 0 +
STACK CFI INIT 60dc 2c8 .cfa: sp 0 +
STACK CFI INIT 63a4 8 .cfa: sp 0 +
STACK CFI INIT 63ac 8 .cfa: sp 0 +
STACK CFI INIT 63b4 44 .cfa: sp 0 +
STACK CFI INIT 63f8 e8 .cfa: sp 0 +
STACK CFI INIT 64e0 e8 .cfa: sp 0 +
STACK CFI INIT 65c8 14 .cfa: sp 0 +
STACK CFI INIT 65dc 10 .cfa: sp 0 +
STACK CFI INIT 65ec 10 .cfa: sp 0 +
STACK CFI INIT 65fc f0 .cfa: sp 0 +
STACK CFI INIT 66ec 44 .cfa: sp 0 +
STACK CFI INIT 6730 c .cfa: sp 0 +
STACK CFI INIT 673c c .cfa: sp 0 +
STACK CFI INIT 6748 2c .cfa: sp 0 +
STACK CFI INIT 6774 280 .cfa: sp 0 +
STACK CFI INIT 69f4 c .cfa: sp 0 +
STACK CFI INIT 6a00 120 .cfa: sp 0 +
STACK CFI INIT 6b20 488 .cfa: sp 0 +
STACK CFI INIT 6fa8 c48 .cfa: sp 0 +
STACK CFI INIT 7bf0 134 .cfa: sp 0 +
STACK CFI INIT 7d24 210 .cfa: sp 0 +
STACK CFI INIT 7f34 38c .cfa: sp 0 +
STACK CFI INIT 82c0 1c8 .cfa: sp 0 +
STACK CFI INIT 8488 9bc .cfa: sp 0 +
STACK CFI INIT 8e44 2d4 .cfa: sp 0 +
STACK CFI INIT 9118 134 .cfa: sp 0 +
STACK CFI INIT 924c 120 .cfa: sp 0 +
STACK CFI INIT 936c 1c8 .cfa: sp 0 +
STACK CFI INIT 9534 168 .cfa: sp 0 +
STACK CFI INIT 969c fc .cfa: sp 0 +
STACK CFI INIT 9798 30 .cfa: sp 0 +
STACK CFI INIT 9900 30 .cfa: sp 0 +
STACK CFI INIT 9930 98 .cfa: sp 0 +
STACK CFI INIT 99c8 59c .cfa: sp 0 +
STACK CFI INIT 9f64 8c .cfa: sp 0 +
STACK CFI INIT 9ff0 30 .cfa: sp 0 +
STACK CFI INIT abc0 18 .cfa: sp 0 +
STACK CFI INIT afec 50 .cfa: sp 0 +
STACK CFI aff0 .cfa: sp 32 +
STACK CFI aff8 .cfa: x29 32 + x19: .cfa -16 + ^ .ra: .cfa -24 + ^ x29: .cfa -32 + ^
STACK CFI b010 .cfa: sp 32 +
STACK CFI b018 .cfa: sp 0 +
STACK CFI b01c .cfa: x29 32 +
STACK CFI b030 .cfa: sp 32 +
STACK CFI b038 .cfa: sp 0 +
STACK CFI INIT b0b0 7c .cfa: sp 0 +
STACK CFI b0b4 .cfa: sp 48 +
STACK CFI b0c0 .cfa: x29 48 + x19: .cfa -8 + ^ x20: .cfa -16 + ^ x21: .cfa -32 + ^ .ra: .cfa -40 + ^ x29: .cfa -48 + ^
STACK CFI b10c .cfa: sp 48 +
STACK CFI b118 .cfa: sp 0 +
STACK CFI b11c .cfa: sp 48 +
STACK CFI b128 .cfa: sp 0 +
STACK CFI INIT b12c 4 .cfa: sp 0 +
STACK CFI INIT b130 10 .cfa: sp 0 +
STACK CFI b134 .cfa: sp 16 +
STACK CFI b138 .cfa: x29 16 + .ra: .cfa -8 + ^ x29: .cfa -16 + ^
STACK CFI INIT b294 34 .cfa: sp 0 +
STACK CFI b298 .cfa: sp 16 +
STACK CFI b29c .cfa: x29 16 + .ra: .cfa -8 + ^ x29: .cfa -16 + ^
STACK CFI INIT b3f4 80 .cfa: sp 0 +
STACK CFI b3f8 .cfa: sp 48 +
STACK CFI b404 .cfa: x29 48 + x19: .cfa -8 + ^ x20: .cfa -16 + ^ x21: .cfa -32 + ^ .ra: .cfa -40 + ^ x29: .cfa -48 + ^
STACK CFI b464 .cfa: sp 48 +
STACK CFI b470 .cfa: sp 0 +
STACK CFI INIT b474 24 .cfa: sp 0 +
STACK CFI b478 .cfa: sp 32 +
STACK CFI b480 .cfa: x29 32 + x19: .cfa -16 + ^ .ra: .cfa -24 + ^ x29: .cfa -32 + ^
STACK CFI b48c .cfa: sp 32 +
STACK CFI b494 .cfa: sp 0 +
STACK CFI INIT b818 14 .cfa: sp 0 +
STACK CFI b81c .cfa: sp 16 +
STACK CFI b820 .cfa: x29 16 + .ra: .cfa -8 + ^ x29: .cfa -16 + ^
STACK CFI INIT b87c 30 .cfa: sp 0 +
STACK CFI b880 .cfa: sp 32 +
STACK CFI b888 .cfa: x29 32 + x19: .cfa -16 + ^ .ra: .cfa -24 + ^ x29: .cfa -32 + ^
STACK CFI b8a0 .cfa: sp 32 +
STACK CFI b8a8 .cfa: sp 0 +
STACK CFI INIT b8ac 34 .cfa: sp 0 +
STACK CFI b8b0 .cfa: sp 32 +
STACK CFI b8b8 .cfa: x29 32 + x19: .cfa -16 + ^ .ra: .cfa -24 + ^ x29: .cfa -32 + ^
STACK CFI INIT ba58 148 .cfa: sp 0 +
STACK CFI ba5c .cfa: sp 48 +
STACK CFI ba68 .cfa: x29 48 + x19: .cfa -8 + ^ x20: .cfa -16 + ^ x21: .cfa -32 + ^ .ra: .cfa -40 + ^ x29: .cfa -48 + ^
STACK CFI bb90 .cfa: sp 48 +
STACK CFI bb9c .cfa: sp 0 +
STACK CFI INIT bba0 80 .cfa: sp 0 +
STACK CFI bba4 .cfa: sp 48 +
STACK CFI bbb0 .cfa: x29 48 + x19: .cfa -8 + ^ x20: .cfa -16 + ^ x21: .cfa -24 + ^ x22: .cfa -32 + ^ .ra: .cfa -40 + ^ x29: .cfa -48 + ^
STACK CFI bbc8 .cfa: sp 48 +
STACK CFI bbd4 .cfa: sp 0 +
STACK CFI bbd8 .cfa: x29 48 +
STACK CFI bc08 .cfa: sp 48 +
STACK CFI bc14 .cfa: sp 0 +
STACK CFI bc18 .cfa: x29 48 +
STACK CFI INIT bc20 68 .cfa: sp 0 +
STACK CFI bc24 .cfa: sp 32 +
STACK CFI bc2c .cfa: x29 32 + x19: .cfa -8 + ^ x20: .cfa -16 + ^ .ra: .cfa -24 + ^ x29: .cfa -32 + ^
STACK CFI bc44 .cfa: sp 32 +
STACK CFI bc4c .cfa: sp 0 +
STACK CFI bc50 .cfa: x29 32 +
STACK CFI bc7c .cfa: sp 32 +
STACK CFI bc84 .cfa: sp 0 +
STACK CFI INIT bc88 14 .cfa: sp 0 +
STACK CFI bc8c .cfa: sp 16 +
STACK CFI bc90 .cfa: x29 16 + .ra: .cfa -8 + ^ x29: .cfa -16 + ^
STACK CFI INIT bc9c 4 .cfa: sp 0 +
STACK CFI INIT bca0 14 .cfa: sp 0 +
STACK CFI INIT bcb4 84 .cfa: sp 0 +
STACK CFI bcbc .cfa: sp 32 +
STACK CFI bcc4 .cfa: x29 32 + x19: .cfa -8 + ^ x20: .cfa -16 + ^ .ra: .cfa -24 + ^ x29: .cfa -32 + ^
STACK CFI bd04 .cfa: sp 32 +
STACK CFI bd0c .cfa: sp 0 +
STACK CFI bd14 .cfa: x29 32 +
STACK CFI INIT bd38 25b0 .cfa: sp 0 +
STACK CFI bd3c .cfa: sp 320 +
STACK CFI bd68 .cfa: x29 96 + x19: .cfa -8 + ^ x20: .cfa -16 + ^ x21: .cfa -24 + ^ x22: .cfa -32 + ^ x23: .cfa -40 + ^ x24: .cfa -48 + ^ x25: .cfa -56 + ^ x26: .cfa -64 + ^ x27: .cfa -72 + ^ x28: .cfa -80 + ^ .ra: .cfa -88 + ^ x29: .cfa -96 + ^ v8: .cfa -104 + ^ v9: .cfa -112 + ^ v10: .cfa -120 + ^ v11: .cfa -128 + ^ v12: .cfa -136 + ^ v13: .cfa -144 + ^ v14: .cfa -152 + ^ v15: .cfa -160 + ^
STACK CFI e2b4 .cfa: sp 320 +
STACK CFI e2e0 .cfa: sp 0 +
STACK CFI e2e4 .cfa: x29 96 +
STACK CFI INIT e390 98 .cfa: sp 0 +
STACK CFI INIT e428 50 .cfa: sp 0 +
STACK CFI e42c .cfa: sp 32 +
STACK CFI e434 .cfa: x29 32 + x19: .cfa -16 + ^ .ra: .cfa -24 + ^ x29: .cfa -32 + ^
STACK CFI e44c .cfa: sp 32 +
STACK CFI e454 .cfa: sp 0 +
STACK CFI e458 .cfa: x29 32 +
STACK CFI e46c .cfa: sp 32 +
STACK CFI e474 .cfa: sp 0 +
STACK CFI INIT e478 64 .cfa: sp 0 +
STACK CFI e47c .cfa: sp 32 +
STACK CFI e484 .cfa: x29 32 + x19: .cfa -16 + ^ .ra: .cfa -24 + ^ x29: .cfa -32 + ^
STACK CFI e4b0 .cfa: sp 32 +
STACK CFI e4b8 .cfa: sp 0 +
STACK CFI e4bc .cfa: x29 32 +
STACK CFI e4d0 .cfa: sp 32 +
STACK CFI e4d8 .cfa: sp 0 +
STACK CFI INIT ee50 4 .cfa: sp 0 +
STACK CFI INIT ee54 14 .cfa: sp 0 +
STACK CFI ee58 .cfa: sp 16 +
STACK CFI ee5c .cfa: x29 16 + .ra: .cfa -8 + ^ x29: .cfa -16 + ^
STACK CFI INIT ee68 14 .cfa: sp 0 +
STACK CFI ee6c .cfa: sp 16 +
STACK CFI ee70 .cfa: x29 16 + .ra: .cfa -8 + ^ x29: .cfa -16 + ^
STACK CFI INIT ee7c c .cfa: sp 0 +
STACK CFI ee80 .cfa: sp 16 +
STACK CFI ee84 .cfa: x29 16 + .ra: .cfa -8 + ^ x29: .cfa -16 + ^
STACK CFI INIT eed8 30 .cfa: sp 0 +
STACK CFI eedc .cfa: sp 32 +
STACK CFI eee4 .cfa: x29 32 + x19: .cfa -16 + ^ .ra: .cfa -24 + ^ x29: .cfa -32 + ^
STACK CFI eefc .cfa: sp 32 +
STACK CFI ef04 .cfa: sp 0 +
STACK CFI INIT ef08 c .cfa: sp 0 +
STACK CFI ef0c .cfa: sp 16 +
STACK CFI ef10 .cfa: x29 16 + .ra: .cfa -8 + ^ x29: .cfa -16 + ^
STACK CFI INIT ef14 4 .cfa: sp 0 +
STACK CFI INIT ef18 4 .cfa: sp 0 +
STACK CFI INIT ef1c 38 .cfa: sp 0 +
STACK CFI ef20 .cfa: sp 32 +
STACK CFI ef28 .cfa: x29 32 + x19: .cfa -16 + ^ .ra: .cfa -24 + ^ x29: .cfa -32 + ^
STACK CFI ef48 .cfa: sp 32 +
STACK CFI ef50 .cfa: sp 0 +
STACK CFI INIT ef54 18 .cfa: sp 0 +
STACK CFI INIT ef6c 4 .cfa: sp 0 +
STACK CFI INIT ef70 4 .cfa: sp 0 +
STACK CFI INIT ef74 10 .cfa: sp 0 +
STACK CFI INIT ef84 1c .cfa: sp 0 +
STACK CFI INIT efa0 c .cfa: sp 0 +
STACK CFI INIT efac 1b0 .cfa: sp 0 +
STACK CFI INIT f15c 3c .cfa: sp 0 +
STACK CFI f160 .cfa: sp 32 +
STACK CFI f168 .cfa: x29 32 + x19: .cfa -16 + ^ .ra: .cfa -24 + ^ x29: .cfa -32 + ^
STACK CFI f174 .cfa: sp 32 +
STACK CFI f17c .cfa: sp 0 +
STACK CFI f180 .cfa: x29 32 +
STACK CFI f18c .cfa: sp 32 +
STACK CFI f194 .cfa: sp 0 +
STACK CFI INIT a020 ba0 .cfa: sp 0 +
STACK CFI a024 .cfa: sp 240 +
STACK CFI a040 .cfa: x29 96 + x19: .cfa -8 + ^ x20: .cfa -16 + ^ x21: .cfa -24 + ^ x22: .cfa -32 + ^ x23: .cfa -40 + ^ x24: .cfa -48 + ^ x25: .cfa -56 + ^ x26: .cfa -64 + ^ x27: .cfa -72 + ^ x28: .cfa -80 + ^ .ra: .cfa -88 + ^ x29: .cfa -96 + ^
STACK CFI aa68 .cfa: sp 240 +
STACK CFI aa84 .cfa: sp 0 +
STACK CFI aa88 .cfa: x29 96 +
STACK CFI INIT abd8 414 .cfa: sp 0 +
STACK CFI abdc .cfa: sp 224 +
STACK CFI abf8 .cfa: x29 96 + x19: .cfa -8 + ^ x20: .cfa -16 + ^ x21: .cfa -24 + ^ x22: .cfa -32 + ^ x23: .cfa -40 + ^ x24: .cfa -48 + ^ x25: .cfa -56 + ^ x26: .cfa -64 + ^ x27: .cfa -80 + ^ .ra: .cfa -88 + ^ x29: .cfa -96 + ^
STACK CFI aed8 .cfa: sp 224 +
STACK CFI aef4 .cfa: sp 0 +
STACK CFI aef8 .cfa: x29 96 +
STACK CFI INIT b03c 74 .cfa: sp 0 +
STACK CFI b040 .cfa: sp 48 +
STACK CFI b04c .cfa: x29 32 + x19: .cfa -8 + ^ x20: .cfa -16 + ^ .ra: .cfa -24 + ^ x29: .cfa -32 + ^
STACK CFI b098 .cfa: sp 48 +
STACK CFI b0a4 .cfa: sp 0 +
STACK CFI b0a8 .cfa: x29 32 +
STACK CFI INIT b140 154 .cfa: sp 0 +
STACK CFI b144 .cfa: sp 384 +
STACK CFI b158 .cfa: x29 64 + x19: .cfa -8 + ^ x20: .cfa -16 + ^ x21: .cfa -24 + ^ x22: .cfa -32 + ^ x23: .cfa -40 + ^ x28: .cfa -48 + ^ .ra: .cfa -56 + ^ x29: .cfa -64 + ^
STACK CFI b23c .cfa: sp 384 +
STACK CFI b250 .cfa: sp 0 +
STACK CFI b254 .cfa: x29 64 +
STACK CFI INIT b2c8 12c .cfa: sp 0 +
STACK CFI b2cc .cfa: sp 80 +
STACK CFI b2e0 .cfa: x29 80 + x19: .cfa -8 + ^ x20: .cfa -16 + ^ x21: .cfa -24 + ^ x22: .cfa -32 + ^ x23: .cfa -40 + ^ x24: .cfa -48 + ^ x25: .cfa -56 + ^ x26: .cfa -64 + ^ .ra: .cfa -72 + ^ x29: .cfa -80 + ^
STACK CFI b3a8 .cfa: sp 80 +
STACK CFI b3bc .cfa: sp 0 +
STACK CFI b3c0 .cfa: x29 80 +
STACK CFI INIT b498 1a4 .cfa: sp 0 +
STACK CFI b49c .cfa: sp 112 +
STACK CFI b4b4 .cfa: x29 80 + x19: .cfa -8 + ^ x20: .cfa -16 + ^ x21: .cfa -24 + ^ x22: .cfa -32 + ^ x23: .cfa -40 + ^ x24: .cfa -48 + ^ x25: .cfa -56 + ^ x26: .cfa -64 + ^ .ra: .cfa -72 + ^ x29: .cfa -80 + ^
STACK CFI b5a4 .cfa: sp 112 +
STACK CFI b5bc .cfa: sp 0 +
STACK CFI b5c0 .cfa: x29 80 +
STACK CFI INIT b63c 1dc .cfa: sp 0 +
STACK CFI b640 .cfa: sp 128 +
STACK CFI b65c .cfa: x29 96 + x19: .cfa -8 + ^ x20: .cfa -16 + ^ x21: .cfa -24 + ^ x22: .cfa -32 + ^ x23: .cfa -40 + ^ x24: .cfa -48 + ^ x25: .cfa -56 + ^ x26: .cfa -64 + ^ x27: .cfa -80 + ^ .ra: .cfa -88 + ^ x29: .cfa -96 + ^
STACK CFI b7c8 .cfa: sp 128 +
STACK CFI b7e4 .cfa: sp 0 +
STACK CFI b7e8 .cfa: x29 96 +
STACK CFI INIT b82c 50 .cfa: sp 0 +
STACK CFI b830 .cfa: sp 32 +
STACK CFI b838 .cfa: x29 32 + x19: .cfa -8 + ^ x20: .cfa -16 + ^ .ra: .cfa -24 + ^ x29: .cfa -32 + ^
STACK CFI INIT b8e0 178 .cfa: sp 0 +
STACK CFI b8e4 .cfa: sp 80 +
STACK CFI b8f8 .cfa: x29 80 + x19: .cfa -8 + ^ x20: .cfa -16 + ^ x21: .cfa -24 + ^ x22: .cfa -32 + ^ x23: .cfa -40 + ^ x24: .cfa -48 + ^ x25: .cfa -64 + ^ .ra: .cfa -72 + ^ x29: .cfa -80 + ^
STACK CFI ba24 .cfa: sp 80 +
STACK CFI ba38 .cfa: sp 0 +
STACK CFI ba3c .cfa: x29 80 +
STACK CFI INIT e2e8 a8 .cfa: sp 0 +
STACK CFI e2ec .cfa: sp 32 +
STACK CFI e2f4 .cfa: x29 32 + x19: .cfa -16 + ^ .ra: .cfa -24 + ^ x29: .cfa -32 + ^
STACK CFI e328 .cfa: sp 32 +
STACK CFI e330 .cfa: sp 0 +
STACK CFI e334 .cfa: x29 32 +
STACK CFI e338 .cfa: sp 32 +
STACK CFI e340 .cfa: sp 0 +
STACK CFI e344 .cfa: x29 32 +
STACK CFI INIT e4dc 640 .cfa: sp 0 +
STACK CFI e4e0 .cfa: sp 176 +
STACK CFI e4fc .cfa: x29 96 + x19: .cfa -8 + ^ x20: .cfa -16 + ^ x21: .cfa -24 + ^ x22: .cfa -32 + ^ x23: .cfa -40 + ^ x24: .cfa -48 + ^ x25: .cfa -56 + ^ x26: .cfa -64 + ^ x27: .cfa -72 + ^ x28: .cfa -80 + ^ .ra: .cfa -88 + ^ x29: .cfa -96 + ^
STACK CFI e9b8 .cfa: sp 176 +
STACK CFI e9d4 .cfa: sp 0 +
STACK CFI e9d8 .cfa: x29 96 +
STACK CFI INIT eb1c 334 .cfa: sp 0 +
STACK CFI eb20 .cfa: sp 176 +
STACK CFI eb44 .cfa: x29 88 + x19: .cfa -8 + ^ x20: .cfa -16 + ^ x21: .cfa -24 + ^ x22: .cfa -32 + ^ x23: .cfa -40 + ^ x24: .cfa -48 + ^ x25: .cfa -56 + ^ x26: .cfa -64 + ^ x27: .cfa -72 + ^ .ra: .cfa -80 + ^ x29: .cfa -88 + ^ v8: .cfa -96 + ^ v9: .cfa -104 + ^ v10: .cfa -112 + ^
STACK CFI edcc .cfa: sp 176 +
STACK CFI edf0 .cfa: sp 0 +
STACK CFI edf4 .cfa: x29 88 +
STACK CFI INIT ee88 50 .cfa: sp 0 +
STACK CFI ee8c .cfa: sp 32 +
STACK CFI ee94 .cfa: x29 32 + x19: .cfa -8 + ^ x20: .cfa -16 + ^ .ra: .cfa -24 + ^ x29: .cfa -32 + ^
