MODULE Linux arm64 633668F5F4560D54E0854B7AB115988C0 ninxout.redash.android64.so
INFO CODE_ID F568366356F4540DE0854B7AB115988C6C0BB767
INFO GENERATOR mozilla/dump_syms 2.3.4
PUBLIC 2a1c0 0 __on_dlclose
PUBLIC 2a1d0 0 __emutls_unregister_key
PUBLIC 2a1d8 0 __on_dlclose_late
PUBLIC 2a1e0 0 __atexit_handler_wrapper
PUBLIC 2a1f4 0 atexit
PUBLIC 2a210 0 pthread_atfork
FUNC 2a220 20 0 geode::Ref<cocos2d::CCDictionary>::~Ref()
FUNC 2a240 18 0 std::__ndk1::vector<ChallengesPage*, std::__ndk1::allocator<ChallengesPage*> >::~vector[abi:ne180000]()
PUBLIC 2a258 0 __clang_call_terminate
FUNC 2a268 60 0 _GLOBAL__sub_I_Variables.cpp
PUBLIC 2a2d0 0 __aarch64_ldadd8_relax
PUBLIC 2a300 0 init_have_lse_atomics
PUBLIC 2a398 0 __init_cpu_features_constructor
PUBLIC 2a934 0 __init_cpu_features
PUBLIC 2a9c0 0 __aarch64_ldadd8_acq_rel
FUNC 2a9f0 400 0 __cxx_global_var_init
FUNC 2adf0 1c 0 geode::modifier::ModifyBase<geode::modifier::ModifyDerive<hook6<(anonymous namespace)::hook6Parent>, CreatorLayer> >::~ModifyBase()
FUNC 2ae0c 3dc 0 geode::modifier::ModifyDerive<hook6<(anonymous namespace)::hook6Parent>, CreatorLayer>::apply()
FUNC 2b1e8 50 0 std::__ndk1::shared_ptr<geode::Hook>::~shared_ptr[abi:ne180000]()
FUNC 2b238 74 0 geode::impl::ResultData<geode::Hook*, std::__ndk1::basic_string<char, std::__ndk1::char_traits<char>, std::__ndk1::allocator<char> > >::~ResultData()
FUNC 2b2ac 7c 0 std::__ndk1::vector<std::__ndk1::basic_string<char, std::__ndk1::char_traits<char>, std::__ndk1::allocator<char> >, std::__ndk1::allocator<std::__ndk1::basic_string<char, std::__ndk1::char_traits<char>, std::__ndk1::allocator<char> > > >::~vector[abi:ne180000]()
FUNC 2b328 4 0 geode::modifier::ModifyBase<geode::modifier::ModifyDerive<hook6<(anonymous namespace)::hook6Parent>, CreatorLayer> >::apply()
FUNC 2b32c 154 0 _ZN5geode15UnwrapExceptionC2IRPNS_4HookEQsr4implE18IsStringStreamableIT_EEENS_4impl5OkTagEOS5_
FUNC 2b480 34 0 std::__ndk1::__throw_bad_variant_access[abi:ne180000]()
FUNC 2b4b4 124 0 std::__ndk1::basic_stringstream<char, std::__ndk1::char_traits<char>, std::__ndk1::allocator<char> >::basic_stringstream[abi:ne180000]()
FUNC 2b5d8 80 0 std::__ndk1::basic_stringstream<char, std::__ndk1::char_traits<char>, std::__ndk1::allocator<char> >::~basic_stringstream()
FUNC 2b658 24 0 geode::UnwrapException::~UnwrapException()
FUNC 2b67c 198 0 std::__ndk1::__put_character_sequence[abi:ne180000]<char, std::__ndk1::char_traits<char> >(std::__ndk1::basic_ostream<char, std::__ndk1::char_traits<char> >, std::__ndk1::basic_ostream const*, unsigned long)
FUNC 2b814 1b4 0 std::__ndk1::__pad_and_output[abi:ne180000]<char, std::__ndk1::char_traits<char> >(std::__ndk1::char_traits<char>, std::__ndk1::ostreambuf_iterator const*, std::__ndk1::ostreambuf_iterator const, std::__ndk1::ostreambuf_iterator const, std::__ndk1::ios_base&, std::__ndk1::ostreambuf_iterator)
FUNC 2b9c8 14 0 std::__ndk1::basic_string<char, std::__ndk1::char_traits<char>, std::__ndk1::allocator<char> >::__throw_length_error[abi:ne180000]() const
FUNC 2b9dc 50 0 std::__ndk1::__throw_length_error[abi:ne180000](char const*)
FUNC 2ba2c 30 0 std::length_error::length_error[abi:ne180000](char const*)
FUNC 2ba5c 34 0 std::__throw_bad_array_new_length([abi:ne180000], void)
FUNC 2ba90 15c 0 std::__ndk1::basic_stringbuf<char, std::__ndk1::char_traits<char>, std::__ndk1::allocator<char> >::str[abi:ne180000]() &&
FUNC 2bbec 148 0 std::__ndk1::basic_stringbuf<char, std::__ndk1::char_traits<char>, std::__ndk1::allocator<char> >::__init_buf_ptrs[abi:ne180000]()
FUNC 2bd34 21c 0 std::__ndk1::vector<std::__ndk1::basic_string<char, std::__ndk1::char_traits<char>, std::__ndk1::allocator<char> >, std::__ndk1::allocator<std::__ndk1::basic_string<char, std::__ndk1::char_traits<char>, std::__ndk1::allocator<char> > > >::__push_back_slow_path<std::__ndk1::basic_string<char, std::__ndk1::char_traits<char>, std::__ndk1::allocator<char> > const&>(std::__ndk1::basic_string<char, std::__ndk1::char_traits<char>, std::__ndk1::allocator<char> > const&)
FUNC 2bf50 70 0 std::__ndk1::basic_string<char, std::__ndk1::char_traits<char>, std::__ndk1::allocator<char> >::__init_copy_ctor_external(char const*, unsigned long)
FUNC 2bfc0 68 0 std::__ndk1::__split_buffer<std::__ndk1::basic_string<char, std::__ndk1::char_traits<char>, std::__ndk1::allocator<char> >, std::__ndk1::allocator<std::__ndk1::basic_string<char, std::__ndk1::char_traits<char>, std::__ndk1::allocator<char> > >&>::~__split_buffer()
FUNC 2c028 14 0 std::__ndk1::vector<std::__ndk1::basic_string<char, std::__ndk1::char_traits<char>, std::__ndk1::allocator<char> >, std::__ndk1::allocator<std::__ndk1::basic_string<char, std::__ndk1::char_traits<char>, std::__ndk1::allocator<char> > > >::__throw_length_error[abi:ne180000]() const
FUNC 2c03c 4 0 std::__ndk1::__variant_detail::__visitation::__base::__dispatcher<(unsigned long)0>::__dispatch[abi:ne180000]<std::__ndk1::__variant_detail::__dtor<std::__ndk1::__variant_detail::__traits<geode::Hook*, std::__ndk1::basic_string<char, std::__ndk1::char_traits<char>, std::__ndk1::allocator<char> > >, (std::__ndk1::__variant_detail::_Trait)1>::__destroy[abi:ne180000]()::{lambda(auto:1&)#1}, std::__ndk1::__variant_detail::__base<(std::__ndk1::__variant_detail::__traits<geode::Hook*, std::__ndk1::basic_string<char, std::__ndk1::char_traits<char>, std::__ndk1::allocator<char> > >)1, geode::Hook, std::__ndk1::allocator<char> >&>(std::__ndk1::__variant_detail::__dtor<std::__ndk1::__variant_detail::__traits<geode::Hook*, std::__ndk1::basic_string<char, std::__ndk1::char_traits<char>, std::__ndk1::allocator<char> > >, (std::__ndk1::__variant_detail::_Trait)1>, std::__ndk1::__variant_detail::__base<(std::__ndk1::__variant_detail::__traits<geode::Hook*, std::__ndk1::basic_string<char, std::__ndk1::char_traits<char>, std::__ndk1::allocator<char> > >)1, geode::Hook, std::__ndk1::allocator<char> >&)
FUNC 2c040 14 0 std::__ndk1::__variant_detail::__visitation::__base::__dispatcher<(unsigned long)1>::__dispatch[abi:ne180000]<std::__ndk1::__variant_detail::__dtor<std::__ndk1::__variant_detail::__traits<geode::Hook*, std::__ndk1::basic_string<char, std::__ndk1::char_traits<char>, std::__ndk1::allocator<char> > >, (std::__ndk1::__variant_detail::_Trait)1>::__destroy[abi:ne180000]()::{lambda(auto:1&)#1}, std::__ndk1::__variant_detail::__base<(std::__ndk1::__variant_detail::__traits<geode::Hook*, std::__ndk1::basic_string<char, std::__ndk1::char_traits<char>, std::__ndk1::allocator<char> > >)1, geode::Hook, std::__ndk1::allocator<char> >&>(std::__ndk1::__variant_detail::__dtor<std::__ndk1::__variant_detail::__traits<geode::Hook*, std::__ndk1::basic_string<char, std::__ndk1::char_traits<char>, std::__ndk1::allocator<char> > >, (std::__ndk1::__variant_detail::_Trait)1>, std::__ndk1::__variant_detail::__base<(std::__ndk1::__variant_detail::__traits<geode::Hook*, std::__ndk1::basic_string<char, std::__ndk1::char_traits<char>, std::__ndk1::allocator<char> > >)1, geode::Hook, std::__ndk1::allocator<char> >&)
FUNC 2c054 fc 0 std::__ndk1::__tree<std::__ndk1::__value_type<std::__ndk1::basic_string<char, std::__ndk1::char_traits<char>, std::__ndk1::allocator<char> >, std::__ndk1::shared_ptr<geode::Hook> >, std::__ndk1::__map_value_compare<std::__ndk1::basic_string<char, std::__ndk1::char_traits<char>, std::__ndk1::allocator<char> >, std::__ndk1::__value_type<std::__ndk1::basic_string<char, std::__ndk1::char_traits<char>, std::__ndk1::allocator<char> >, std::__ndk1::shared_ptr<geode::Hook> >, std::__ndk1::less<std::__ndk1::basic_string<char, std::__ndk1::char_traits<char>, std::__ndk1::allocator<char> > >, true>, std::__ndk1::allocator<std::__ndk1::__value_type<std::__ndk1::basic_string<char, std::__ndk1::char_traits<char>, std::__ndk1::allocator<char> >, std::__ndk1::shared_ptr<geode::Hook> > > >::find<std::__ndk1::basic_string<char, std::__ndk1::char_traits<char>, std::__ndk1::allocator<char> > >(std::__ndk1::basic_string<char, std::__ndk1::char_traits<char>, std::__ndk1::allocator<char> > const&)
FUNC 2c150 d4 0 std::__ndk1::__tree<std::__ndk1::__value_type<std::__ndk1::basic_string<char, std::__ndk1::char_traits<char>, std::__ndk1::allocator<char> >, std::__ndk1::shared_ptr<geode::Hook> >, std::__ndk1::__map_value_compare<std::__ndk1::basic_string<char, std::__ndk1::char_traits<char>, std::__ndk1::allocator<char> >, std::__ndk1::__value_type<std::__ndk1::basic_string<char, std::__ndk1::char_traits<char>, std::__ndk1::allocator<char> >, std::__ndk1::shared_ptr<geode::Hook> >, std::__ndk1::less<std::__ndk1::basic_string<char, std::__ndk1::char_traits<char>, std::__ndk1::allocator<char> > >, true>, std::__ndk1::allocator<std::__ndk1::__value_type<std::__ndk1::basic_string<char, std::__ndk1::char_traits<char>, std::__ndk1::allocator<char> >, std::__ndk1::shared_ptr<geode::Hook> > > >::erase(std::__ndk1::__tree_const_iterator<std::__ndk1::__value_type<std::__ndk1::basic_string<char, std::__ndk1::char_traits<char>, std::__ndk1::allocator<char> >, std::__ndk1::shared_ptr<geode::Hook> >, std::__ndk1::__tree_node<std::__ndk1::__value_type<std::__ndk1::basic_string<char, std::__ndk1::char_traits<char>, std::__ndk1::allocator<char> >, std::__ndk1::shared_ptr<geode::Hook> >, void*>*, long>)
FUNC 2c224 388 0 std::__ndk1::__tree_remove[abi:ne180000]<std::__ndk1::__tree_node_base<void*>*>(std::__ndk1::__tree_node_base<void*>*, std::__ndk1::__tree_node_base<void*>*)
FUNC 2c5ac 8c 0 std::__ndk1::__tree<std::__ndk1::__value_type<std::__ndk1::basic_string<char, std::__ndk1::char_traits<char>, std::__ndk1::allocator<char> >, std::__ndk1::shared_ptr<geode::Hook> >, std::__ndk1::__map_value_compare<std::__ndk1::basic_string<char, std::__ndk1::char_traits<char>, std::__ndk1::allocator<char> >, std::__ndk1::__value_type<std::__ndk1::basic_string<char, std::__ndk1::char_traits<char>, std::__ndk1::allocator<char> >, std::__ndk1::shared_ptr<geode::Hook> >, std::__ndk1::less<std::__ndk1::basic_string<char, std::__ndk1::char_traits<char>, std::__ndk1::allocator<char> > >, true>, std::__ndk1::allocator<std::__ndk1::__value_type<std::__ndk1::basic_string<char, std::__ndk1::char_traits<char>, std::__ndk1::allocator<char> >, std::__ndk1::shared_ptr<geode::Hook> > > >::destroy(std::__ndk1::__tree_node<std::__ndk1::__value_type<std::__ndk1::basic_string<char, std::__ndk1::char_traits<char>, std::__ndk1::allocator<char> >, std::__ndk1::shared_ptr<geode::Hook> >, void*>*)
FUNC 2c638 1f0 0 geode::modifier::AsStaticFunction_onChallenge<hook6<(anonymous namespace)::hook6Parent>, void (hook6<(anonymous namespace)::hook6Parent>::*)(cocos2d::CCObject*)>::Impl<void (hook6<(anonymous namespace)::hook6Parent>::*)(cocos2d::CCObject*)>::function(hook6<(anonymous namespace)::hook6Parent>*, cocos2d::CCObject*)
FUNC 2c828 50 0 std::__ndk1::shared_ptr<tulip::hook::CallingConvention>::~shared_ptr[abi:ne180000]()
FUNC 2c878 64 0 tulip::hook::HandlerMetadata::~HandlerMetadata()
FUNC 2c8dc 154 0 cocos2d::CCNode::getChildByType<MenuLayer>(int)
FUNC 2ca30 e4 0 geode::cast::traverseTypeinfoFor(void*, geode::cast::ClassTypeinfoType const*, char const*)
FUNC 2cb14 14 0 std::__ndk1::vector<ChallengesPage*, std::__ndk1::allocator<ChallengesPage*> >::__throw_length_error[abi:ne180000]() const
FUNC 2cb28 104 0 std::__ndk1::__tree<std::__ndk1::__value_type<std::__ndk1::basic_string<char, std::__ndk1::char_traits<char>, std::__ndk1::allocator<char> >, std::__ndk1::shared_ptr<geode::Hook> >, std::__ndk1::__map_value_compare<std::__ndk1::basic_string<char, std::__ndk1::char_traits<char>, std::__ndk1::allocator<char> >, std::__ndk1::__value_type<std::__ndk1::basic_string<char, std::__ndk1::char_traits<char>, std::__ndk1::allocator<char> >, std::__ndk1::shared_ptr<geode::Hook> >, std::__ndk1::less<std::__ndk1::basic_string<char, std::__ndk1::char_traits<char>, std::__ndk1::allocator<char> > >, true>, std::__ndk1::allocator<std::__ndk1::__value_type<std::__ndk1::basic_string<char, std::__ndk1::char_traits<char>, std::__ndk1::allocator<char> >, std::__ndk1::shared_ptr<geode::Hook> > > >::__find_equal<std::__ndk1::basic_string<char, std::__ndk1::char_traits<char>, std::__ndk1::allocator<char> > >(std::__ndk1::__tree_end_node<std::__ndk1::__tree_node_base<void*>*>*&, std::__ndk1::basic_string<char, std::__ndk1::char_traits<char>, std::__ndk1::allocator<char> > const&)
FUNC 2cc2c 19c 0 std::__ndk1::__tree_balance_after_insert[abi:ne180000]<std::__ndk1::__tree_node_base<void*>*>(std::__ndk1::__tree_node_base<void*>*, std::__ndk1::__tree_node_base<void*>*)
FUNC 2cdc8 444 0 __cxx_global_var_init
FUNC 2d20c 1c 0 geode::modifier::ModifyBase<geode::modifier::ModifyDerive<MyGLM, GameLevelManager> >::~ModifyBase()
FUNC 2d228 e90 0 geode::modifier::ModifyDerive<MyGLM, GameLevelManager>::apply()
FUNC 2e0b8 4 0 geode::modifier::ModifyBase<geode::modifier::ModifyDerive<MyGLM, GameLevelManager> >::apply()
FUNC 2e0bc 1c 0 geode::modifier::AsStaticFunction_getGJChallenges<MyGLM, void (MyGLM::*)()>::Impl<void (MyGLM::*)()>::function(MyGLM*)
FUNC 2e0d8 1c8 0 geode::Hook::create<void (*)(MyGLM*, gd::string, gd::string)>(void*, void (*)(MyGLM*, gd::string, gd::string), std::__ndk1::basic_string<char, std::__ndk1::char_traits<char>, std::__ndk1::allocator<char> > const&, tulip::hook::TulipConvention, tulip::hook::HookMetadata const&)
FUNC 2e2a0 15c 0 geode::modifier::AsStaticFunction_onGetGJChallengesCompleted<MyGLM, void (MyGLM::*)(gd::string, gd::string)>::Impl<void (MyGLM::*)(gd::string, gd::string)>::function(MyGLM*, gd::string, gd::string)
FUNC 2e3fc 6d8 0 geode::modifier::AsStaticFunction_onGetGJDailyLevelStateCompleted<MyGLM, void (MyGLM::*)(gd::string, gd::string)>::Impl<void (MyGLM::*)(gd::string, gd::string)>::function(MyGLM*, gd::string, gd::string)
FUNC 2ead4 a84 0 geode::modifier::AsStaticFunction_onGetLeaderboardScoresCompleted<MyGLM, void (MyGLM::*)(gd::string, gd::string)>::Impl<void (MyGLM::*)(gd::string, gd::string)>::function(MyGLM*, gd::string, gd::string)
FUNC 2f558 3e4 0 geode::modifier::AsStaticFunction_processOnDownloadLevelCompleted<MyGLM, void (MyGLM::*)(gd::string, gd::string, bool)>::Impl<void (MyGLM::*)(gd::string, gd::string, bool)>::function(MyGLM*, gd::string, gd::string, bool)
FUNC 2f93c 14 0 std::__ndk1::vector<tulip::hook::AbstractType, std::__ndk1::allocator<tulip::hook::AbstractType> >::__throw_length_error[abi:ne180000]() const
FUNC 2f950 58 0 MyGLM::updateDailyTimer()
FUNC 2f9a8 54 0 MyGLM::updateWeeklyTimer()
FUNC 2f9fc a8 0 MyGLM::updateEventTimer()
FUNC 2faa4 2c 0 geode::cast::typeinfo_cast<RDEventNode*, cocos2d::CCNode*>(cocos2d::CCNode*)
FUNC 2fad0 134 0 geode::Mod::getSettingValue<bool>(std::__ndk1::basic_string_view<char, std::__ndk1::char_traits<char> >) const
FUNC 2fc04 84 0 geode::log::error<char const (&) [11]>(fmt::v11::basic_format_string<char, fmt::v11::type_identity<decltype ((wrapCocosObj<char const (&) [11]>)((std::declval<char const (&) [11]>)()))>::type>, char const (&) [11])
FUNC 2fc88 84 0 geode::log::error<char const (&) [12]>(fmt::v11::basic_format_string<char, fmt::v11::type_identity<decltype ((wrapCocosObj<char const (&) [12]>)((std::declval<char const (&) [12]>)()))>::type>, char const (&) [12])
FUNC 2fd0c 400 0 __cxx_global_var_init
FUNC 3010c 1c 0 geode::modifier::ModifyBase<geode::modifier::ModifyDerive<hook10<(anonymous namespace)::hook10Parent>, LoadingLayer> >::~ModifyBase()
FUNC 30128 38c 0 geode::modifier::ModifyDerive<hook10<(anonymous namespace)::hook10Parent>, LoadingLayer>::apply()
FUNC 304b4 4 0 geode::modifier::ModifyBase<geode::modifier::ModifyDerive<hook10<(anonymous namespace)::hook10Parent>, LoadingLayer> >::apply()
FUNC 304b8 1f8 0 geode::modifier::AsStaticFunction_loadAssets<hook10<(anonymous namespace)::hook10Parent>, void (hook10<(anonymous namespace)::hook10Parent>::*)()>::Impl<void (hook10<(anonymous namespace)::hook10Parent>::*)()>::function(hook10<(anonymous namespace)::hook10Parent>*)
FUNC 306b0 18 0 std::__ndk1::vector<int, std::__ndk1::allocator<int> >::~vector[abi:ne180000]()
FUNC 306c8 400 0 __cxx_global_var_init.1
FUNC 30ac8 80 0 _GLOBAL__sub_I_PlayLayer.cpp
FUNC 30b48 1c 0 geode::modifier::ModifyBase<geode::modifier::ModifyDerive<hook7<(anonymous namespace)::hook7Parent>, PlayLayer> >::~ModifyBase()
FUNC 30b64 400 0 geode::modifier::ModifyDerive<hook7<(anonymous namespace)::hook7Parent>, PlayLayer>::apply()
FUNC 30f64 4 0 geode::modifier::ModifyBase<geode::modifier::ModifyDerive<hook7<(anonymous namespace)::hook7Parent>, PlayLayer> >::apply()
FUNC 30f68 228 0 geode::modifier::AsStaticFunction_init<hook7<(anonymous namespace)::hook7Parent>, bool (hook7<(anonymous namespace)::hook7Parent>::*)(GJGameLevel*, bool, bool)>::Impl<bool (hook7<(anonymous namespace)::hook7Parent>::*)(GJGameLevel*, bool, bool)>::function(hook7<(anonymous namespace)::hook7Parent>*, GJGameLevel*, bool, bool)
FUNC 31190 74 0 geode::impl::ResultData<matjson::Value&, std::__ndk1::basic_string<char, std::__ndk1::char_traits<char>, std::__ndk1::allocator<char> > >::~ResultData()
FUNC 31204 104 0 matjson::Value::as<long>() const
FUNC 31308 4 0 std::__ndk1::__variant_detail::__visitation::__base::__dispatcher<(unsigned long)0>::__dispatch[abi:ne180000]<std::__ndk1::__variant_detail::__dtor<std::__ndk1::__variant_detail::__traits<std::__ndk1::reference_wrapper<matjson::Value>, std::__ndk1::basic_string<char, std::__ndk1::char_traits<char>, std::__ndk1::allocator<char> > >, (std::__ndk1::__variant_detail::_Trait)1>::__destroy[abi:ne180000]()::{lambda(auto:1&)#1}, std::__ndk1::__variant_detail::__base<(std::__ndk1::__variant_detail::__traits<std::__ndk1::reference_wrapper<matjson::Value>, std::__ndk1::basic_string<char, std::__ndk1::char_traits<char>, std::__ndk1::allocator<char> > >)1, matjson::Value, std::__ndk1::allocator<char> >&>(std::__ndk1::__variant_detail::__dtor<std::__ndk1::__variant_detail::__traits<std::__ndk1::reference_wrapper<matjson::Value>, std::__ndk1::basic_string<char, std::__ndk1::char_traits<char>, std::__ndk1::allocator<char> > >, (std::__ndk1::__variant_detail::_Trait)1>, std::__ndk1::__variant_detail::__base<(std::__ndk1::__variant_detail::__traits<std::__ndk1::reference_wrapper<matjson::Value>, std::__ndk1::basic_string<char, std::__ndk1::char_traits<char>, std::__ndk1::allocator<char> > >)1, matjson::Value, std::__ndk1::allocator<char> >&)
FUNC 3130c 14 0 std::__ndk1::__variant_detail::__visitation::__base::__dispatcher<(unsigned long)1>::__dispatch[abi:ne180000]<std::__ndk1::__variant_detail::__dtor<std::__ndk1::__variant_detail::__traits<std::__ndk1::reference_wrapper<matjson::Value>, std::__ndk1::basic_string<char, std::__ndk1::char_traits<char>, std::__ndk1::allocator<char> > >, (std::__ndk1::__variant_detail::_Trait)1>::__destroy[abi:ne180000]()::{lambda(auto:1&)#1}, std::__ndk1::__variant_detail::__base<(std::__ndk1::__variant_detail::__traits<std::__ndk1::reference_wrapper<matjson::Value>, std::__ndk1::basic_string<char, std::__ndk1::char_traits<char>, std::__ndk1::allocator<char> > >)1, matjson::Value, std::__ndk1::allocator<char> >&>(std::__ndk1::__variant_detail::__dtor<std::__ndk1::__variant_detail::__traits<std::__ndk1::reference_wrapper<matjson::Value>, std::__ndk1::basic_string<char, std::__ndk1::char_traits<char>, std::__ndk1::allocator<char> > >, (std::__ndk1::__variant_detail::_Trait)1>, std::__ndk1::__variant_detail::__base<(std::__ndk1::__variant_detail::__traits<std::__ndk1::reference_wrapper<matjson::Value>, std::__ndk1::basic_string<char, std::__ndk1::char_traits<char>, std::__ndk1::allocator<char> > >)1, matjson::Value, std::__ndk1::allocator<char> >&)
FUNC 31320 4 0 std::__ndk1::__variant_detail::__visitation::__base::__dispatcher<(unsigned long)0>::__dispatch[abi:ne180000]<std::__ndk1::__variant_detail::__dtor<std::__ndk1::__variant_detail::__traits<long, std::__ndk1::basic_string<char, std::__ndk1::char_traits<char>, std::__ndk1::allocator<char> > >, (std::__ndk1::__variant_detail::_Trait)1>::__destroy[abi:ne180000]()::{lambda(auto:1&)#1}, std::__ndk1::__variant_detail::__base<(std::__ndk1::__variant_detail::__traits<long, std::__ndk1::basic_string<char, std::__ndk1::char_traits<char>, std::__ndk1::allocator<char> > >)1, long, std::__ndk1::allocator<char> >&>(std::__ndk1::__variant_detail::__dtor<std::__ndk1::__variant_detail::__traits<long, std::__ndk1::basic_string<char, std::__ndk1::char_traits<char>, std::__ndk1::allocator<char> > >, (std::__ndk1::__variant_detail::_Trait)1>, std::__ndk1::__variant_detail::__base<(std::__ndk1::__variant_detail::__traits<long, std::__ndk1::basic_string<char, std::__ndk1::char_traits<char>, std::__ndk1::allocator<char> > >)1, long, std::__ndk1::allocator<char> >&)
FUNC 31324 14 0 std::__ndk1::__variant_detail::__visitation::__base::__dispatcher<(unsigned long)1>::__dispatch[abi:ne180000]<std::__ndk1::__variant_detail::__dtor<std::__ndk1::__variant_detail::__traits<long, std::__ndk1::basic_string<char, std::__ndk1::char_traits<char>, std::__ndk1::allocator<char> > >, (std::__ndk1::__variant_detail::_Trait)1>::__destroy[abi:ne180000]()::{lambda(auto:1&)#1}, std::__ndk1::__variant_detail::__base<(std::__ndk1::__variant_detail::__traits<long, std::__ndk1::basic_string<char, std::__ndk1::char_traits<char>, std::__ndk1::allocator<char> > >)1, long, std::__ndk1::allocator<char> >&>(std::__ndk1::__variant_detail::__dtor<std::__ndk1::__variant_detail::__traits<long, std::__ndk1::basic_string<char, std::__ndk1::char_traits<char>, std::__ndk1::allocator<char> > >, (std::__ndk1::__variant_detail::_Trait)1>, std::__ndk1::__variant_detail::__base<(std::__ndk1::__variant_detail::__traits<long, std::__ndk1::basic_string<char, std::__ndk1::char_traits<char>, std::__ndk1::allocator<char> > >)1, long, std::__ndk1::allocator<char> >&)
FUNC 31338 400 0 __cxx_global_var_init
FUNC 31738 400 0 __cxx_global_var_init.1
FUNC 31b38 400 0 __cxx_global_var_init.2
FUNC 31f38 1c 0 geode::modifier::ModifyBase<geode::modifier::ModifyDerive<hook5<(anonymous namespace)::hook5Parent>, GauntletSelectLayer> >::~ModifyBase()
FUNC 31f54 1c 0 geode::modifier::ModifyBase<geode::modifier::ModifyDerive<hook13<(anonymous namespace)::hook13Parent>, SecretRewardsLayer> >::~ModifyBase()
FUNC 31f70 1c 0 geode::modifier::ModifyBase<geode::modifier::ModifyDerive<hook29<(anonymous namespace)::hook29Parent>, SecretLayer2> >::~ModifyBase()
FUNC 31f8c 3dc 0 geode::modifier::ModifyDerive<hook5<(anonymous namespace)::hook5Parent>, GauntletSelectLayer>::apply()
FUNC 32368 4 0 geode::modifier::ModifyBase<geode::modifier::ModifyDerive<hook5<(anonymous namespace)::hook5Parent>, GauntletSelectLayer> >::apply()
FUNC 3236c 40 0 geode::modifier::AsStaticFunction_onBack<hook5<(anonymous namespace)::hook5Parent>, void (hook5<(anonymous namespace)::hook5Parent>::*)(cocos2d::CCObject*)>::Impl<void (hook5<(anonymous namespace)::hook5Parent>::*)(cocos2d::CCObject*)>::function(hook5<(anonymous namespace)::hook5Parent>*, cocos2d::CCObject*)
FUNC 323ac 3dc 0 geode::modifier::ModifyDerive<hook13<(anonymous namespace)::hook13Parent>, SecretRewardsLayer>::apply()
FUNC 32788 4 0 geode::modifier::ModifyBase<geode::modifier::ModifyDerive<hook13<(anonymous namespace)::hook13Parent>, SecretRewardsLayer> >::apply()
FUNC 3278c 40 0 geode::modifier::AsStaticFunction_onBack<hook13<(anonymous namespace)::hook13Parent>, void (hook13<(anonymous namespace)::hook13Parent>::*)(cocos2d::CCObject*)>::Impl<void (hook13<(anonymous namespace)::hook13Parent>::*)(cocos2d::CCObject*)>::function(hook13<(anonymous namespace)::hook13Parent>*, cocos2d::CCObject*)
FUNC 327cc 3c0 0 geode::modifier::ModifyDerive<hook29<(anonymous namespace)::hook29Parent>, SecretLayer2>::apply()
FUNC 32b8c 4 0 geode::modifier::ModifyBase<geode::modifier::ModifyDerive<hook29<(anonymous namespace)::hook29Parent>, SecretLayer2> >::apply()
FUNC 32b90 40 0 geode::modifier::AsStaticFunction_onBack<hook29<(anonymous namespace)::hook29Parent>, void (hook29<(anonymous namespace)::hook29Parent>::*)(cocos2d::CCObject*)>::Impl<void (hook29<(anonymous namespace)::hook29Parent>::*)(cocos2d::CCObject*)>::function(hook29<(anonymous namespace)::hook29Parent>*, cocos2d::CCObject*)
FUNC 32bd0 e4 0 abbreviateNumber(int)
FUNC 32cb4 994 0 __cxx_global_var_init
FUNC 33648 1c 0 geode::modifier::ModifyBase<geode::modifier::ModifyDerive<CrazyLayer, MenuLayer> >::~ModifyBase()
FUNC 33664 444 0 __cxx_global_var_init.15
FUNC 33aa8 1c 0 geode::modifier::ModifyBase<geode::modifier::ModifyDerive<test, ChallengesPage> >::~ModifyBase()
FUNC 33ac4 35c 0 geode::modifier::ModifyDerive<CrazyLayer, MenuLayer>::apply()
FUNC 33e20 4 0 geode::modifier::ModifyBase<geode::modifier::ModifyDerive<CrazyLayer, MenuLayer> >::apply()
FUNC 33e24 1d8 0 geode::modifier::ModifyBase<geode::modifier::ModifyDerive<CrazyLayer, MenuLayer> >::getHook(std::__ndk1::basic_string_view<char, std::__ndk1::char_traits<char> >)
FUNC 33ffc 110 0 geode::modifier::ModifyBase<geode::modifier::ModifyDerive<CrazyLayer, MenuLayer> >::setHookPriorityAfter(std::__ndk1::basic_string_view<char, std::__ndk1::char_traits<char> >, geode::Mod*)::{lambda(geode::ModStateEvent*)#1}::operator()(geode::ModStateEvent*) const
FUNC 3410c 7c 0 std::__ndk1::unique_ptr<std::__ndk1::__tree_node<std::__ndk1::__value_type<std::__ndk1::basic_string<char, std::__ndk1::char_traits<char>, std::__ndk1::allocator<char> >, std::__ndk1::shared_ptr<geode::Hook> >, void*>, std::__ndk1::__tree_node_destructor<std::__ndk1::allocator<std::__ndk1::__tree_node<std::__ndk1::__value_type<std::__ndk1::basic_string<char, std::__ndk1::char_traits<char>, std::__ndk1::allocator<char> >, std::__ndk1::shared_ptr<geode::Hook> >, void*> > > >::~unique_ptr[abi:ne180000]()
FUNC 34188 168 0 _ZN5geode15UnwrapExceptionC2IRNSt6__ndk112basic_stringIcNS2_11char_traitsIcEENS2_9allocatorIcEEEEQsr4implE18IsStringStreamableIT_EEENS_4impl6ErrTagEOSA_
FUNC 342f0 4 0 std::__ndk1::__function::__func<geode::modifier::ModifyBase<geode::modifier::ModifyDerive<CrazyLayer, MenuLayer> >::setHookPriorityAfter(std::__ndk1::basic_string_view<char, std::__ndk1::char_traits<char> >, geode::Mod*)::{lambda(geode::ModStateEvent*)#1}, std::__ndk1::allocator<geode::modifier::ModifyBase<geode::modifier::ModifyDerive<CrazyLayer, MenuLayer> >::setHookPriorityAfter(std::__ndk1::basic_string_view<char, std::__ndk1::char_traits<char> >, geode::Mod*)::{lambda(geode::ModStateEvent*)#1}>, void (geode::ModStateEvent*)>::~__func()
FUNC 342f4 38 0 std::__ndk1::__function::__func<geode::modifier::ModifyBase<geode::modifier::ModifyDerive<CrazyLayer, MenuLayer> >::setHookPriorityAfter(std::__ndk1::basic_string_view<char, std::__ndk1::char_traits<char> >, geode::Mod*)::{lambda(geode::ModStateEvent*)#1}, std::__ndk1::allocator<geode::modifier::ModifyBase<geode::modifier::ModifyDerive<CrazyLayer, MenuLayer> >::setHookPriorityAfter(std::__ndk1::basic_string_view<char, std::__ndk1::char_traits<char> >, geode::Mod*)::{lambda(geode::ModStateEvent*)#1}>, void (geode::ModStateEvent*)>::__clone() const
FUNC 3432c 18 0 std::__ndk1::__function::__func<geode::modifier::ModifyBase<geode::modifier::ModifyDerive<CrazyLayer, MenuLayer> >::setHookPriorityAfter(std::__ndk1::basic_string_view<char, std::__ndk1::char_traits<char> >, geode::Mod*)::{lambda(geode::ModStateEvent*)#1}, std::__ndk1::allocator<geode::modifier::ModifyBase<geode::modifier::ModifyDerive<CrazyLayer, MenuLayer> >::setHookPriorityAfter(std::__ndk1::basic_string_view<char, std::__ndk1::char_traits<char> >, geode::Mod*)::{lambda(geode::ModStateEvent*)#1}>, void (geode::ModStateEvent*)>::__clone(std::__ndk1::__function::__base<void (geode::ModStateEvent*)>*) const
FUNC 34344 4 0 std::__ndk1::__function::__func<geode::modifier::ModifyBase<geode::modifier::ModifyDerive<CrazyLayer, MenuLayer> >::setHookPriorityAfter(std::__ndk1::basic_string_view<char, std::__ndk1::char_traits<char> >, geode::Mod*)::{lambda(geode::ModStateEvent*)#1}, std::__ndk1::allocator<geode::modifier::ModifyBase<geode::modifier::ModifyDerive<CrazyLayer, MenuLayer> >::setHookPriorityAfter(std::__ndk1::basic_string_view<char, std::__ndk1::char_traits<char> >, geode::Mod*)::{lambda(geode::ModStateEvent*)#1}>, void (geode::ModStateEvent*)>::destroy()
FUNC 34348 4 0 std::__ndk1::__function::__func<geode::modifier::ModifyBase<geode::modifier::ModifyDerive<CrazyLayer, MenuLayer> >::setHookPriorityAfter(std::__ndk1::basic_string_view<char, std::__ndk1::char_traits<char> >, geode::Mod*)::{lambda(geode::ModStateEvent*)#1}, std::__ndk1::allocator<geode::modifier::ModifyBase<geode::modifier::ModifyDerive<CrazyLayer, MenuLayer> >::setHookPriorityAfter(std::__ndk1::basic_string_view<char, std::__ndk1::char_traits<char> >, geode::Mod*)::{lambda(geode::ModStateEvent*)#1}>, void (geode::ModStateEvent*)>::destroy_deallocate()
FUNC 3434c 8 0 std::__ndk1::__function::__func<geode::modifier::ModifyBase<geode::modifier::ModifyDerive<CrazyLayer, MenuLayer> >::setHookPriorityAfter(std::__ndk1::basic_string_view<char, std::__ndk1::char_traits<char> >, geode::Mod*)::{lambda(geode::ModStateEvent*)#1}, std::__ndk1::allocator<geode::modifier::ModifyBase<geode::modifier::ModifyDerive<CrazyLayer, MenuLayer> >::setHookPriorityAfter(std::__ndk1::basic_string_view<char, std::__ndk1::char_traits<char> >, geode::Mod*)::{lambda(geode::ModStateEvent*)#1}>, void (geode::ModStateEvent*)>::operator()(geode::ModStateEvent*&&)
FUNC 34354 1c 0 std::__ndk1::__function::__func<geode::modifier::ModifyBase<geode::modifier::ModifyDerive<CrazyLayer, MenuLayer> >::setHookPriorityAfter(std::__ndk1::basic_string_view<char, std::__ndk1::char_traits<char> >, geode::Mod*)::{lambda(geode::ModStateEvent*)#1}, std::__ndk1::allocator<geode::modifier::ModifyBase<geode::modifier::ModifyDerive<CrazyLayer, MenuLayer> >::setHookPriorityAfter(std::__ndk1::basic_string_view<char, std::__ndk1::char_traits<char> >, geode::Mod*)::{lambda(geode::ModStateEvent*)#1}>, void (geode::ModStateEvent*)>::target(std::type_info const&) const
FUNC 34370 c 0 std::__ndk1::__function::__func<geode::modifier::ModifyBase<geode::modifier::ModifyDerive<CrazyLayer, MenuLayer> >::setHookPriorityAfter(std::__ndk1::basic_string_view<char, std::__ndk1::char_traits<char> >, geode::Mod*)::{lambda(geode::ModStateEvent*)#1}, std::__ndk1::allocator<geode::modifier::ModifyBase<geode::modifier::ModifyDerive<CrazyLayer, MenuLayer> >::setHookPriorityAfter(std::__ndk1::basic_string_view<char, std::__ndk1::char_traits<char> >, geode::Mod*)::{lambda(geode::ModStateEvent*)#1}>, void (geode::ModStateEvent*)>::target_type() const
FUNC 3437c 4 0 geode::EventListener<geode::ModStateFilter>::getPool() const
FUNC 34380 174 0 geode::EventListener<geode::ModStateFilter>::handle(geode::Event*)
FUNC 344f4 5c 0 geode::EventListener<geode::ModStateFilter>::~EventListener()
FUNC 34550 64 0 geode::EventListener<geode::ModStateFilter>::~EventListener()
FUNC 345b4 4 0 std::__ndk1::__variant_detail::__visitation::__base::__dispatcher<(unsigned long)0>::__dispatch[abi:ne180000]<std::__ndk1::__variant_detail::__dtor<std::__ndk1::__variant_detail::__traits<std::__ndk1::monostate, std::__ndk1::basic_string<char, std::__ndk1::char_traits<char>, std::__ndk1::allocator<char> > >, (std::__ndk1::__variant_detail::_Trait)1>::__destroy[abi:ne180000]()::{lambda(auto:1&)#1}, std::__ndk1::__variant_detail::__base<(std::__ndk1::__variant_detail::__traits<std::__ndk1::monostate, std::__ndk1::basic_string<char, std::__ndk1::char_traits<char>, std::__ndk1::allocator<char> > >)1, std::__ndk1::__variant_detail::__traits, std::__ndk1::allocator<char> >&>(std::__ndk1::__variant_detail::__dtor<std::__ndk1::__variant_detail::__traits<std::__ndk1::monostate, std::__ndk1::basic_string<char, std::__ndk1::char_traits<char>, std::__ndk1::allocator<char> > >, (std::__ndk1::__variant_detail::_Trait)1>, std::__ndk1::__variant_detail::__base<(std::__ndk1::__variant_detail::__traits<std::__ndk1::monostate, std::__ndk1::basic_string<char, std::__ndk1::char_traits<char>, std::__ndk1::allocator<char> > >)1, std::__ndk1::__variant_detail::__traits, std::__ndk1::allocator<char> >&)
FUNC 345b8 14 0 std::__ndk1::__variant_detail::__visitation::__base::__dispatcher<(unsigned long)1>::__dispatch[abi:ne180000]<std::__ndk1::__variant_detail::__dtor<std::__ndk1::__variant_detail::__traits<std::__ndk1::monostate, std::__ndk1::basic_string<char, std::__ndk1::char_traits<char>, std::__ndk1::allocator<char> > >, (std::__ndk1::__variant_detail::_Trait)1>::__destroy[abi:ne180000]()::{lambda(auto:1&)#1}, std::__ndk1::__variant_detail::__base<(std::__ndk1::__variant_detail::__traits<std::__ndk1::monostate, std::__ndk1::basic_string<char, std::__ndk1::char_traits<char>, std::__ndk1::allocator<char> > >)1, std::__ndk1::__variant_detail::__traits, std::__ndk1::allocator<char> >&>(std::__ndk1::__variant_detail::__dtor<std::__ndk1::__variant_detail::__traits<std::__ndk1::monostate, std::__ndk1::basic_string<char, std::__ndk1::char_traits<char>, std::__ndk1::allocator<char> > >, (std::__ndk1::__variant_detail::_Trait)1>, std::__ndk1::__variant_detail::__base<(std::__ndk1::__variant_detail::__traits<std::__ndk1::monostate, std::__ndk1::basic_string<char, std::__ndk1::char_traits<char>, std::__ndk1::allocator<char> > >)1, std::__ndk1::__variant_detail::__traits, std::__ndk1::allocator<char> >&)
FUNC 345cc 110 0 geode::modifier::ModifyBase<geode::modifier::ModifyDerive<CrazyLayer, MenuLayer> >::setHookPriorityBefore(std::__ndk1::basic_string_view<char, std::__ndk1::char_traits<char> >, geode::Mod*)::{lambda(geode::ModStateEvent*)#1}::operator()(geode::ModStateEvent*) const
FUNC 346dc 4 0 std::__ndk1::__function::__base<void (geode::ModStateEvent*)>::~__base()
FUNC 346e0 4 0 std::__ndk1::__function::__func<geode::modifier::ModifyBase<geode::modifier::ModifyDerive<CrazyLayer, MenuLayer> >::setHookPriorityBefore(std::__ndk1::basic_string_view<char, std::__ndk1::char_traits<char> >, geode::Mod*)::{lambda(geode::ModStateEvent*)#1}, std::__ndk1::allocator<geode::modifier::ModifyBase<geode::modifier::ModifyDerive<CrazyLayer, MenuLayer> >::setHookPriorityBefore(std::__ndk1::basic_string_view<char, std::__ndk1::char_traits<char> >, geode::Mod*)::{lambda(geode::ModStateEvent*)#1}>, void (geode::ModStateEvent*)>::~__func()
FUNC 346e4 38 0 std::__ndk1::__function::__func<geode::modifier::ModifyBase<geode::modifier::ModifyDerive<CrazyLayer, MenuLayer> >::setHookPriorityBefore(std::__ndk1::basic_string_view<char, std::__ndk1::char_traits<char> >, geode::Mod*)::{lambda(geode::ModStateEvent*)#1}, std::__ndk1::allocator<geode::modifier::ModifyBase<geode::modifier::ModifyDerive<CrazyLayer, MenuLayer> >::setHookPriorityBefore(std::__ndk1::basic_string_view<char, std::__ndk1::char_traits<char> >, geode::Mod*)::{lambda(geode::ModStateEvent*)#1}>, void (geode::ModStateEvent*)>::__clone() const
FUNC 3471c 18 0 std::__ndk1::__function::__func<geode::modifier::ModifyBase<geode::modifier::ModifyDerive<CrazyLayer, MenuLayer> >::setHookPriorityBefore(std::__ndk1::basic_string_view<char, std::__ndk1::char_traits<char> >, geode::Mod*)::{lambda(geode::ModStateEvent*)#1}, std::__ndk1::allocator<geode::modifier::ModifyBase<geode::modifier::ModifyDerive<CrazyLayer, MenuLayer> >::setHookPriorityBefore(std::__ndk1::basic_string_view<char, std::__ndk1::char_traits<char> >, geode::Mod*)::{lambda(geode::ModStateEvent*)#1}>, void (geode::ModStateEvent*)>::__clone(std::__ndk1::__function::__base<void (geode::ModStateEvent*)>*) const
FUNC 34734 4 0 std::__ndk1::__function::__func<geode::modifier::ModifyBase<geode::modifier::ModifyDerive<CrazyLayer, MenuLayer> >::setHookPriorityBefore(std::__ndk1::basic_string_view<char, std::__ndk1::char_traits<char> >, geode::Mod*)::{lambda(geode::ModStateEvent*)#1}, std::__ndk1::allocator<geode::modifier::ModifyBase<geode::modifier::ModifyDerive<CrazyLayer, MenuLayer> >::setHookPriorityBefore(std::__ndk1::basic_string_view<char, std::__ndk1::char_traits<char> >, geode::Mod*)::{lambda(geode::ModStateEvent*)#1}>, void (geode::ModStateEvent*)>::destroy()
FUNC 34738 4 0 std::__ndk1::__function::__func<geode::modifier::ModifyBase<geode::modifier::ModifyDerive<CrazyLayer, MenuLayer> >::setHookPriorityBefore(std::__ndk1::basic_string_view<char, std::__ndk1::char_traits<char> >, geode::Mod*)::{lambda(geode::ModStateEvent*)#1}, std::__ndk1::allocator<geode::modifier::ModifyBase<geode::modifier::ModifyDerive<CrazyLayer, MenuLayer> >::setHookPriorityBefore(std::__ndk1::basic_string_view<char, std::__ndk1::char_traits<char> >, geode::Mod*)::{lambda(geode::ModStateEvent*)#1}>, void (geode::ModStateEvent*)>::destroy_deallocate()
FUNC 3473c 8 0 std::__ndk1::__function::__func<geode::modifier::ModifyBase<geode::modifier::ModifyDerive<CrazyLayer, MenuLayer> >::setHookPriorityBefore(std::__ndk1::basic_string_view<char, std::__ndk1::char_traits<char> >, geode::Mod*)::{lambda(geode::ModStateEvent*)#1}, std::__ndk1::allocator<geode::modifier::ModifyBase<geode::modifier::ModifyDerive<CrazyLayer, MenuLayer> >::setHookPriorityBefore(std::__ndk1::basic_string_view<char, std::__ndk1::char_traits<char> >, geode::Mod*)::{lambda(geode::ModStateEvent*)#1}>, void (geode::ModStateEvent*)>::operator()(geode::ModStateEvent*&&)
FUNC 34744 1c 0 std::__ndk1::__function::__func<geode::modifier::ModifyBase<geode::modifier::ModifyDerive<CrazyLayer, MenuLayer> >::setHookPriorityBefore(std::__ndk1::basic_string_view<char, std::__ndk1::char_traits<char> >, geode::Mod*)::{lambda(geode::ModStateEvent*)#1}, std::__ndk1::allocator<geode::modifier::ModifyBase<geode::modifier::ModifyDerive<CrazyLayer, MenuLayer> >::setHookPriorityBefore(std::__ndk1::basic_string_view<char, std::__ndk1::char_traits<char> >, geode::Mod*)::{lambda(geode::ModStateEvent*)#1}>, void (geode::ModStateEvent*)>::target(std::type_info const&) const
FUNC 34760 c 0 std::__ndk1::__function::__func<geode::modifier::ModifyBase<geode::modifier::ModifyDerive<CrazyLayer, MenuLayer> >::setHookPriorityBefore(std::__ndk1::basic_string_view<char, std::__ndk1::char_traits<char> >, geode::Mod*)::{lambda(geode::ModStateEvent*)#1}, std::__ndk1::allocator<geode::modifier::ModifyBase<geode::modifier::ModifyDerive<CrazyLayer, MenuLayer> >::setHookPriorityBefore(std::__ndk1::basic_string_view<char, std::__ndk1::char_traits<char> >, geode::Mod*)::{lambda(geode::ModStateEvent*)#1}>, void (geode::ModStateEvent*)>::target_type() const
FUNC 3476c a8 0 geode::addresser::getVirtual<bool (MenuLayer::*)()>(bool (MenuLayer::*)())
FUNC 34814 4 0 geode::modifier::AsStaticFunction_init<CrazyLayer, bool (CrazyLayer::*)()>::Impl<bool (CrazyLayer::*)()>::function(CrazyLayer*)
FUNC 34818 9c 0 MenuLayer::MenuLayer(geode::ZeroConstructorType)
FUNC 348b4 8 0 cocos2d::CCCopying::copyWithZone(cocos2d::CCZone*)
FUNC 348bc 7b3c 0 CrazyLayer::init()
FUNC 3c3f8 55c 0 RDButtonData::RDButtonData(std::__ndk1::basic_string<char, std::__ndk1::char_traits<char>, std::__ndk1::allocator<char> >, std::initializer_list<std::__ndk1::basic_string<char, std::__ndk1::char_traits<char>, std::__ndk1::allocator<char> > >, std::__ndk1::basic_string<char, std::__ndk1::char_traits<char>, std::__ndk1::allocator<char> >, float, void (cocos2d::CCObject::*)(cocos2d::CCObject*))
FUNC 3c954 ac 0 std::__ndk1::pair<std::__ndk1::basic_string<char, std::__ndk1::char_traits<char>, std::__ndk1::allocator<char> > const, RDButtonData>::~pair()
FUNC 3ca00 9c 0 RDButtonData::~RDButtonData()
FUNC 3ca9c 74 0 geode::impl::ResultData<std::__ndk1::basic_string<char, std::__ndk1::char_traits<char>, std::__ndk1::allocator<char> >, std::__ndk1::basic_string<char, std::__ndk1::char_traits<char>, std::__ndk1::allocator<char> > >::~ResultData()
FUNC 3cb10 32c 0 MainButtonsSettingV3::getNonButtons() const
FUNC 3ce3c 20 0 geode::cocos::CCArrayExt<RDButton*>::~CCArrayExt()
FUNC 3ce5c f0 0 _ZNSt6__ndk14pairIKNS_12basic_stringIcNS_11char_traitsIcEENS_9allocatorIcEEEENS0_IS6_S6_EEEC2B8ne180000ILb1ETnNS_9enable_ifIXclsr13_CheckArgsDepIXT_EEE17__enable_implicitIRS7_RKS8_EEEiE4typeELi0EEESC_SE_
FUNC 3cf4c 64 0 std::__ndk1::pair<std::__ndk1::basic_string<char, std::__ndk1::char_traits<char>, std::__ndk1::allocator<char> > const, std::__ndk1::pair<std::__ndk1::basic_string<char, std::__ndk1::char_traits<char>, std::__ndk1::allocator<char> >, std::__ndk1::basic_string<char, std::__ndk1::char_traits<char>, std::__ndk1::allocator<char> > > >::~pair()
FUNC 3cfb0 44 0 std::__ndk1::pair<std::__ndk1::basic_string<char, std::__ndk1::char_traits<char>, std::__ndk1::allocator<char> >, std::__ndk1::basic_string<char, std::__ndk1::char_traits<char>, std::__ndk1::allocator<char> > >::~pair()
FUNC 3cff4 20 0 geode::cocos::CCArrayExt<RDStatsNode*>::~CCArrayExt()
FUNC 3d014 54 0 CrazyLayer::onHideMenu(cocos2d::CCObject*)
FUNC 3d068 50 0 std::__ndk1::shared_ptr<StatsSettingV3>::~shared_ptr[abi:ne180000]()
FUNC 3d0b8 50 0 std::__ndk1::shared_ptr<MainButtonsSettingV3>::~shared_ptr[abi:ne180000]()
FUNC 3d108 4 0 std::__ndk1::__variant_detail::__visitation::__base::__dispatcher<(unsigned long)0>::__dispatch[abi:ne180000]<std::__ndk1::__variant_detail::__dtor<std::__ndk1::__variant_detail::__traits<geode::VersionInfo, std::__ndk1::basic_string<char, std::__ndk1::char_traits<char>, std::__ndk1::allocator<char> > >, (std::__ndk1::__variant_detail::_Trait)1>::__destroy[abi:ne180000]()::{lambda(auto:1&)#1}, std::__ndk1::__variant_detail::__base<(std::__ndk1::__variant_detail::__traits<geode::VersionInfo, std::__ndk1::basic_string<char, std::__ndk1::char_traits<char>, std::__ndk1::allocator<char> > >)1, geode, std::__ndk1::allocator<char> >&>(std::__ndk1::__variant_detail::__dtor<std::__ndk1::__variant_detail::__traits<geode::VersionInfo, std::__ndk1::basic_string<char, std::__ndk1::char_traits<char>, std::__ndk1::allocator<char> > >, (std::__ndk1::__variant_detail::_Trait)1>, std::__ndk1::__variant_detail::__base<(std::__ndk1::__variant_detail::__traits<geode::VersionInfo, std::__ndk1::basic_string<char, std::__ndk1::char_traits<char>, std::__ndk1::allocator<char> > >)1, geode, std::__ndk1::allocator<char> >&)
FUNC 3d10c 14 0 std::__ndk1::__variant_detail::__visitation::__base::__dispatcher<(unsigned long)1>::__dispatch[abi:ne180000]<std::__ndk1::__variant_detail::__dtor<std::__ndk1::__variant_detail::__traits<geode::VersionInfo, std::__ndk1::basic_string<char, std::__ndk1::char_traits<char>, std::__ndk1::allocator<char> > >, (std::__ndk1::__variant_detail::_Trait)1>::__destroy[abi:ne180000]()::{lambda(auto:1&)#1}, std::__ndk1::__variant_detail::__base<(std::__ndk1::__variant_detail::__traits<geode::VersionInfo, std::__ndk1::basic_string<char, std::__ndk1::char_traits<char>, std::__ndk1::allocator<char> > >)1, geode, std::__ndk1::allocator<char> >&>(std::__ndk1::__variant_detail::__dtor<std::__ndk1::__variant_detail::__traits<geode::VersionInfo, std::__ndk1::basic_string<char, std::__ndk1::char_traits<char>, std::__ndk1::allocator<char> > >, (std::__ndk1::__variant_detail::_Trait)1>, std::__ndk1::__variant_detail::__base<(std::__ndk1::__variant_detail::__traits<geode::VersionInfo, std::__ndk1::basic_string<char, std::__ndk1::char_traits<char>, std::__ndk1::allocator<char> > >)1, geode, std::__ndk1::allocator<char> >&)
FUNC 3d120 4 0 std::__ndk1::__function::__base<void (FLAlertLayer*, bool)>::~__base()
FUNC 3d124 4 0 std::__ndk1::__function::__func<CrazyLayer::setupButtons()::{lambda(auto:1, bool)#1}, std::__ndk1::allocator<CrazyLayer::setupButtons()::{lambda(auto:1, bool)#1}>, void (FLAlertLayer*, bool)>::~__func()
FUNC 3d128 34 0 std::__ndk1::__function::__func<CrazyLayer::setupButtons()::{lambda(auto:1, bool)#1}, std::__ndk1::allocator<CrazyLayer::setupButtons()::{lambda(auto:1, bool)#1}>, void (FLAlertLayer*, bool)>::__clone() const
FUNC 3d15c 14 0 std::__ndk1::__function::__func<CrazyLayer::setupButtons()::{lambda(auto:1, bool)#1}, std::__ndk1::allocator<CrazyLayer::setupButtons()::{lambda(auto:1, bool)#1}>, void (FLAlertLayer*, bool)>::__clone(std::__ndk1::__function::__base<void (FLAlertLayer*, bool)>*) const
FUNC 3d170 4 0 std::__ndk1::__function::__func<CrazyLayer::setupButtons()::{lambda(auto:1, bool)#1}, std::__ndk1::allocator<CrazyLayer::setupButtons()::{lambda(auto:1, bool)#1}>, void (FLAlertLayer*, bool)>::destroy()
FUNC 3d174 4 0 std::__ndk1::__function::__func<CrazyLayer::setupButtons()::{lambda(auto:1, bool)#1}, std::__ndk1::allocator<CrazyLayer::setupButtons()::{lambda(auto:1, bool)#1}>, void (FLAlertLayer*, bool)>::destroy_deallocate()
FUNC 3d178 b0 0 std::__ndk1::__function::__func<CrazyLayer::setupButtons()::{lambda(auto:1, bool)#1}, std::__ndk1::allocator<CrazyLayer::setupButtons()::{lambda(auto:1, bool)#1}>, void (FLAlertLayer*, bool)>::operator()(FLAlertLayer*&&, bool&&)
FUNC 3d228 1c 0 std::__ndk1::__function::__func<CrazyLayer::setupButtons()::{lambda(auto:1, bool)#1}, std::__ndk1::allocator<CrazyLayer::setupButtons()::{lambda(auto:1, bool)#1}>, void (FLAlertLayer*, bool)>::target(std::type_info const&) const
FUNC 3d244 c 0 std::__ndk1::__function::__func<CrazyLayer::setupButtons()::{lambda(auto:1, bool)#1}, std::__ndk1::allocator<CrazyLayer::setupButtons()::{lambda(auto:1, bool)#1}>, void (FLAlertLayer*, bool)>::target_type() const
FUNC 3d250 634 0 geode::modifier::FieldIntermediate<CrazyLayer, MenuLayer>::self()
FUNC 3d884 4 0 geode::modifier::FieldIntermediate<CrazyLayer, MenuLayer>::fieldDestructor(void*)
FUNC 3d888 14 0 std::__ndk1::vector<void*, std::__ndk1::allocator<void*> >::__throw_length_error[abi:ne180000]() const
FUNC 3d89c 14 0 std::__ndk1::vector<std::__ndk1::function<void (void*)>, std::__ndk1::allocator<std::__ndk1::function<void (void*)> > >::__throw_length_error[abi:ne180000]() const
FUNC 3d8b0 c 0 std::__ndk1::vector<void*, std::__ndk1::allocator<void*> >::__throw_out_of_range[abi:ne180000]() const
FUNC 3d8bc 50 0 std::__ndk1::__throw_out_of_range[abi:ne180000](char const*)
FUNC 3d90c 30 0 std::out_of_range::out_of_range[abi:ne180000](char const*)
FUNC 3d93c c 0 std::__ndk1::vector<std::__ndk1::function<void (void*)>, std::__ndk1::allocator<std::__ndk1::function<void (void*)> > >::__throw_out_of_range[abi:ne180000]() const
FUNC 3d948 4 0 std::__ndk1::__function::__base<void (void*)>::~__base()
FUNC 3d94c 4 0 std::__ndk1::__function::__func<void (*)(void*), std::__ndk1::allocator<void (*)(void*)>, void (void*)>::~__func()
FUNC 3d950 38 0 std::__ndk1::__function::__func<void (*)(void*), std::__ndk1::allocator<void (*)(void*)>, void (void*)>::__clone() const
FUNC 3d988 18 0 std::__ndk1::__function::__func<void (*)(void*), std::__ndk1::allocator<void (*)(void*)>, void (void*)>::__clone(std::__ndk1::__function::__base<void (void*)>*) const
FUNC 3d9a0 4 0 std::__ndk1::__function::__func<void (*)(void*), std::__ndk1::allocator<void (*)(void*)>, void (void*)>::destroy()
FUNC 3d9a4 4 0 std::__ndk1::__function::__func<void (*)(void*), std::__ndk1::allocator<void (*)(void*)>, void (void*)>::destroy_deallocate()
FUNC 3d9a8 10 0 std::__ndk1::__function::__func<void (*)(void*), std::__ndk1::allocator<void (*)(void*)>, void (void*)>::operator()(void*&&)
FUNC 3d9b8 1c 0 std::__ndk1::__function::__func<void (*)(void*), std::__ndk1::allocator<void (*)(void*)>, void (void*)>::target(std::type_info const&) const
FUNC 3d9d4 c 0 std::__ndk1::__function::__func<void (*)(void*), std::__ndk1::allocator<void (*)(void*)>, void (void*)>::target_type() const
FUNC 3d9e0 ac 0 std::__ndk1::basic_string<char, std::__ndk1::char_traits<char>, std::__ndk1::allocator<char> >::__assign_no_alias<true>(char const*, unsigned long)
FUNC 3da8c 100 0 std::__ndk1::basic_string<char, std::__ndk1::char_traits<char>, std::__ndk1::allocator<char> >::__assign_no_alias<false>(char const*, unsigned long)
FUNC 3db8c 60 0 std::__ndk1::__exception_guard_exceptions<std::__ndk1::_AllocatorDestroyRangeReverse<std::__ndk1::allocator<std::__ndk1::basic_string<char, std::__ndk1::char_traits<char>, std::__ndk1::allocator<char> > >, std::__ndk1::basic_string<char, std::__ndk1::char_traits<char>, std::__ndk1::allocator<char> >*> >::~__exception_guard_exceptions[abi:ne180000]()
FUNC 3dbec 430 0 std::__ndk1::__tree<std::__ndk1::__value_type<std::__ndk1::basic_string<char, std::__ndk1::char_traits<char>, std::__ndk1::allocator<char> >, RDButtonData>, std::__ndk1::__map_value_compare<std::__ndk1::basic_string<char, std::__ndk1::char_traits<char>, std::__ndk1::allocator<char> >, std::__ndk1::__value_type<std::__ndk1::basic_string<char, std::__ndk1::char_traits<char>, std::__ndk1::allocator<char> >, RDButtonData>, std::__ndk1::less<std::__ndk1::basic_string<char, std::__ndk1::char_traits<char>, std::__ndk1::allocator<char> > >, true>, std::__ndk1::allocator<std::__ndk1::__value_type<std::__ndk1::basic_string<char, std::__ndk1::char_traits<char>, std::__ndk1::allocator<char> >, RDButtonData> > >::__emplace_hint_unique_key_args<std::__ndk1::basic_string<char, std::__ndk1::char_traits<char>, std::__ndk1::allocator<char> >, std::__ndk1::pair<std::__ndk1::basic_string<char, std::__ndk1::char_traits<char>, std::__ndk1::allocator<char> > const, RDButtonData> const&>(std::__ndk1::__tree_const_iterator<std::__ndk1::__value_type<std::__ndk1::basic_string<char, std::__ndk1::char_traits<char>, std::__ndk1::allocator<char> >, RDButtonData>, std::__ndk1::__tree_node<std::__ndk1::__value_type<std::__ndk1::basic_string<char, std::__ndk1::char_traits<char>, std::__ndk1::allocator<char> >, RDButtonData>, void*>*, long>, std::__ndk1::basic_string<char, std::__ndk1::char_traits<char>, std::__ndk1::allocator<char> > const&, std::__ndk1::pair<std::__ndk1::basic_string<char, std::__ndk1::char_traits<char>, std::__ndk1::allocator<char> > const, RDButtonData> const&)
FUNC 3e01c 44 0 std::__ndk1::unique_ptr<std::__ndk1::__tree_node<std::__ndk1::__value_type<std::__ndk1::basic_string<char, std::__ndk1::char_traits<char>, std::__ndk1::allocator<char> >, RDButtonData>, void*>, std::__ndk1::__tree_node_destructor<std::__ndk1::allocator<std::__ndk1::__tree_node<std::__ndk1::__value_type<std::__ndk1::basic_string<char, std::__ndk1::char_traits<char>, std::__ndk1::allocator<char> >, RDButtonData>, void*> > > >::~unique_ptr[abi:ne180000]()
FUNC 3e060 104 0 std::__ndk1::__tree<std::__ndk1::__value_type<std::__ndk1::basic_string<char, std::__ndk1::char_traits<char>, std::__ndk1::allocator<char> >, RDButtonData>, std::__ndk1::__map_value_compare<std::__ndk1::basic_string<char, std::__ndk1::char_traits<char>, std::__ndk1::allocator<char> >, std::__ndk1::__value_type<std::__ndk1::basic_string<char, std::__ndk1::char_traits<char>, std::__ndk1::allocator<char> >, RDButtonData>, std::__ndk1::less<std::__ndk1::basic_string<char, std::__ndk1::char_traits<char>, std::__ndk1::allocator<char> > >, true>, std::__ndk1::allocator<std::__ndk1::__value_type<std::__ndk1::basic_string<char, std::__ndk1::char_traits<char>, std::__ndk1::allocator<char> >, RDButtonData> > >::__find_equal<std::__ndk1::basic_string<char, std::__ndk1::char_traits<char>, std::__ndk1::allocator<char> > >(std::__ndk1::__tree_end_node<std::__ndk1::__tree_node_base<void*>*>*&, std::__ndk1::basic_string<char, std::__ndk1::char_traits<char>, std::__ndk1::allocator<char> > const&)
FUNC 3e164 ac 0 _ZNSt6__ndk112__destroy_atB8ne180000INS_4pairIKNS_12basic_stringIcNS_11char_traitsIcEENS_9allocatorIcEEEE12RDButtonDataEETnNS_9enable_ifIXntsr8is_arrayIT_EE5valueEiE4typeELi0EEEvPSC_
FUNC 3e210 44 0 std::__ndk1::__tree<std::__ndk1::__value_type<std::__ndk1::basic_string<char, std::__ndk1::char_traits<char>, std::__ndk1::allocator<char> >, RDButtonData>, std::__ndk1::__map_value_compare<std::__ndk1::basic_string<char, std::__ndk1::char_traits<char>, std::__ndk1::allocator<char> >, std::__ndk1::__value_type<std::__ndk1::basic_string<char, std::__ndk1::char_traits<char>, std::__ndk1::allocator<char> >, RDButtonData>, std::__ndk1::less<std::__ndk1::basic_string<char, std::__ndk1::char_traits<char>, std::__ndk1::allocator<char> > >, true>, std::__ndk1::allocator<std::__ndk1::__value_type<std::__ndk1::basic_string<char, std::__ndk1::char_traits<char>, std::__ndk1::allocator<char> >, RDButtonData> > >::destroy(std::__ndk1::__tree_node<std::__ndk1::__value_type<std::__ndk1::basic_string<char, std::__ndk1::char_traits<char>, std::__ndk1::allocator<char> >, RDButtonData>, void*>*)
FUNC 3e254 14 0 std::__ndk1::__variant_detail::__visitation::__base::__dispatcher<(unsigned long)0>::__dispatch[abi:ne180000]<std::__ndk1::__variant_detail::__dtor<std::__ndk1::__variant_detail::__traits<std::__ndk1::basic_string<char, std::__ndk1::char_traits<char>, std::__ndk1::allocator<char> >, std::__ndk1::allocator<char> >, (std::__ndk1::__variant_detail::_Trait)1>::__destroy[abi:ne180000]()::{lambda(auto:1&)#1}, std::__ndk1::__variant_detail::__base<(std::__ndk1::__variant_detail::__traits<std::__ndk1::basic_string<char, std::__ndk1::char_traits<char>, std::__ndk1::allocator<char> >, std::__ndk1::allocator<char> >)1, std::__ndk1::allocator<char>, std::__ndk1::allocator<char> >&>(std::__ndk1::__variant_detail::__dtor<std::__ndk1::__variant_detail::__traits<std::__ndk1::basic_string<char, std::__ndk1::char_traits<char>, std::__ndk1::allocator<char> >, std::__ndk1::allocator<char> >, (std::__ndk1::__variant_detail::_Trait)1>, std::__ndk1::__variant_detail::__base<(std::__ndk1::__variant_detail::__traits<std::__ndk1::basic_string<char, std::__ndk1::char_traits<char>, std::__ndk1::allocator<char> >, std::__ndk1::allocator<char> >)1, std::__ndk1::allocator<char>, std::__ndk1::allocator<char> >&)
FUNC 3e268 14 0 std::__ndk1::__variant_detail::__visitation::__base::__dispatcher<(unsigned long)1>::__dispatch[abi:ne180000]<std::__ndk1::__variant_detail::__dtor<std::__ndk1::__variant_detail::__traits<std::__ndk1::basic_string<char, std::__ndk1::char_traits<char>, std::__ndk1::allocator<char> >, std::__ndk1::allocator<char> >, (std::__ndk1::__variant_detail::_Trait)1>::__destroy[abi:ne180000]()::{lambda(auto:1&)#1}, std::__ndk1::__variant_detail::__base<(std::__ndk1::__variant_detail::__traits<std::__ndk1::basic_string<char, std::__ndk1::char_traits<char>, std::__ndk1::allocator<char> >, std::__ndk1::allocator<char> >)1, std::__ndk1::allocator<char>, std::__ndk1::allocator<char> >&>(std::__ndk1::__variant_detail::__dtor<std::__ndk1::__variant_detail::__traits<std::__ndk1::basic_string<char, std::__ndk1::char_traits<char>, std::__ndk1::allocator<char> >, std::__ndk1::allocator<char> >, (std::__ndk1::__variant_detail::_Trait)1>, std::__ndk1::__variant_detail::__base<(std::__ndk1::__variant_detail::__traits<std::__ndk1::basic_string<char, std::__ndk1::char_traits<char>, std::__ndk1::allocator<char> >, std::__ndk1::allocator<char> >)1, std::__ndk1::allocator<char>, std::__ndk1::allocator<char> >&)
FUNC 3e27c fc 0 std::__ndk1::__tree<std::__ndk1::__value_type<std::__ndk1::basic_string<char, std::__ndk1::char_traits<char>, std::__ndk1::allocator<char> >, RDButtonData>, std::__ndk1::__map_value_compare<std::__ndk1::basic_string<char, std::__ndk1::char_traits<char>, std::__ndk1::allocator<char> >, std::__ndk1::__value_type<std::__ndk1::basic_string<char, std::__ndk1::char_traits<char>, std::__ndk1::allocator<char> >, RDButtonData>, std::__ndk1::less<std::__ndk1::basic_string<char, std::__ndk1::char_traits<char>, std::__ndk1::allocator<char> > >, true>, std::__ndk1::allocator<std::__ndk1::__value_type<std::__ndk1::basic_string<char, std::__ndk1::char_traits<char>, std::__ndk1::allocator<char> >, RDButtonData> > >::find<std::__ndk1::basic_string<char, std::__ndk1::char_traits<char>, std::__ndk1::allocator<char> > >(std::__ndk1::basic_string<char, std::__ndk1::char_traits<char>, std::__ndk1::allocator<char> > const&)
FUNC 3e378 130 0 std::__ndk1::__tree<std::__ndk1::__value_type<std::__ndk1::basic_string<char, std::__ndk1::char_traits<char>, std::__ndk1::allocator<char> >, RDButtonData>, std::__ndk1::__map_value_compare<std::__ndk1::basic_string<char, std::__ndk1::char_traits<char>, std::__ndk1::allocator<char> >, std::__ndk1::__value_type<std::__ndk1::basic_string<char, std::__ndk1::char_traits<char>, std::__ndk1::allocator<char> >, RDButtonData>, std::__ndk1::less<std::__ndk1::basic_string<char, std::__ndk1::char_traits<char>, std::__ndk1::allocator<char> > >, true>, std::__ndk1::allocator<std::__ndk1::__value_type<std::__ndk1::basic_string<char, std::__ndk1::char_traits<char>, std::__ndk1::allocator<char> >, RDButtonData> > >::__emplace_unique_key_args<std::__ndk1::basic_string<char, std::__ndk1::char_traits<char>, std::__ndk1::allocator<char> >, std::__ndk1::piecewise_construct_t const&, std::__ndk1::tuple<std::__ndk1::basic_string<char, std::__ndk1::char_traits<char>, std::__ndk1::allocator<char> > const&>, std::__ndk1::tuple<> >(std::__ndk1::basic_string<char, std::__ndk1::char_traits<char>, std::__ndk1::allocator<char> > const&, std::__ndk1::piecewise_construct_t const&, std::__ndk1::tuple<std::__ndk1::basic_string<char, std::__ndk1::char_traits<char>, std::__ndk1::allocator<char> > const&>, std::__ndk1::tuple<>)
FUNC 3e4a8 160 0 std::__ndk1::vector<std::__ndk1::basic_string<char, std::__ndk1::char_traits<char>, std::__ndk1::allocator<char> >, std::__ndk1::allocator<std::__ndk1::basic_string<char, std::__ndk1::char_traits<char>, std::__ndk1::allocator<char> > > >::__init_with_size[abi:ne180000]<std::__ndk1::basic_string<char, std::__ndk1::char_traits<char>, std::__ndk1::allocator<char> >*, std::__ndk1::vector<std::__ndk1::basic_string<char, std::__ndk1::char_traits<char>, std::__ndk1::allocator<char> >, std::__ndk1::allocator<std::__ndk1::basic_string<char, std::__ndk1::char_traits<char>, std::__ndk1::allocator<char> > > >::__init_with_size[abi:ne180000]>(std::__ndk1::basic_string<char, std::__ndk1::char_traits<char>, std::__ndk1::allocator<char> >*, std::__ndk1::vector<std::__ndk1::basic_string<char, std::__ndk1::char_traits<char>, std::__ndk1::allocator<char> >, std::__ndk1::allocator<std::__ndk1::basic_string<char, std::__ndk1::char_traits<char>, std::__ndk1::allocator<char> > > >::__init_with_size[abi:ne180000], unsigned long)
FUNC 3e608 8c 0 std::__ndk1::__exception_guard_exceptions<std::__ndk1::vector<std::__ndk1::basic_string<char, std::__ndk1::char_traits<char>, std::__ndk1::allocator<char> >, std::__ndk1::allocator<std::__ndk1::basic_string<char, std::__ndk1::char_traits<char>, std::__ndk1::allocator<char> > > >::__destroy_vector>::~__exception_guard_exceptions[abi:ne180000]()
FUNC 3e694 74 0 geode::impl::ResultData<std::__ndk1::vector<matjson::Value, std::__ndk1::allocator<matjson::Value> > const&, std::__ndk1::basic_string<char, std::__ndk1::char_traits<char>, std::__ndk1::allocator<char> > >::~ResultData()
FUNC 3e708 68 0 std::__ndk1::vector<matjson::Value, std::__ndk1::allocator<matjson::Value> >::~vector[abi:ne180000]()
FUNC 3e770 11c 0 std::__ndk1::vector<matjson::Value, std::__ndk1::allocator<matjson::Value> >::__init_with_size[abi:ne180000]<matjson::Value*, std::__ndk1::vector<matjson::Value, std::__ndk1::allocator<matjson::Value> >::__init_with_size[abi:ne180000]>(matjson::Value*, std::__ndk1::vector<matjson::Value, std::__ndk1::allocator<matjson::Value> >::__init_with_size[abi:ne180000], unsigned long)
FUNC 3e88c 7c 0 std::__ndk1::__exception_guard_exceptions<std::__ndk1::vector<matjson::Value, std::__ndk1::allocator<matjson::Value> >::__destroy_vector>::~__exception_guard_exceptions[abi:ne180000]()
FUNC 3e908 14 0 std::__ndk1::vector<matjson::Value, std::__ndk1::allocator<matjson::Value> >::__throw_length_error[abi:ne180000]() const
FUNC 3e91c 4 0 std::__ndk1::__variant_detail::__visitation::__base::__dispatcher<(unsigned long)0>::__dispatch[abi:ne180000]<std::__ndk1::__variant_detail::__dtor<std::__ndk1::__variant_detail::__traits<std::__ndk1::reference_wrapper<std::__ndk1::vector<matjson::Value, std::__ndk1::allocator<matjson> > const>, std::__ndk1::basic_string<char, std::__ndk1::char_traits<char>, matjson::Value<char> > >, (std::__ndk1::__variant_detail::_Trait)1>::__destroy[abi:ne180000]()::{lambda(auto:1&)#1}, std::__ndk1::__variant_detail::__base<(std::__ndk1::__variant_detail::__traits<std::__ndk1::reference_wrapper<std::__ndk1::vector<matjson::Value, std::__ndk1::allocator<matjson> > const>, std::__ndk1::basic_string<char, std::__ndk1::char_traits<char>, matjson::Value<char> > >)1, std::__ndk1::vector<matjson::Value, std::__ndk1::allocator<matjson> > const, matjson::Value<char> >&>(std::__ndk1::__variant_detail::__dtor<std::__ndk1::__variant_detail::__traits<std::__ndk1::reference_wrapper<std::__ndk1::vector<matjson::Value, std::__ndk1::allocator<matjson> > const>, std::__ndk1::basic_string<char, std::__ndk1::char_traits<char>, matjson::Value<char> > >, (std::__ndk1::__variant_detail::_Trait)1>, std::__ndk1::__variant_detail::__base<(std::__ndk1::__variant_detail::__traits<std::__ndk1::reference_wrapper<std::__ndk1::vector<matjson::Value, std::__ndk1::allocator<matjson> > const>, std::__ndk1::basic_string<char, std::__ndk1::char_traits<char>, matjson::Value<char> > >)1, std::__ndk1::vector<matjson::Value, std::__ndk1::allocator<matjson> > const, matjson::Value<char> >&)
FUNC 3e920 14 0 std::__ndk1::__variant_detail::__visitation::__base::__dispatcher<(unsigned long)1>::__dispatch[abi:ne180000]<std::__ndk1::__variant_detail::__dtor<std::__ndk1::__variant_detail::__traits<std::__ndk1::reference_wrapper<std::__ndk1::vector<matjson::Value, std::__ndk1::allocator<matjson> > const>, std::__ndk1::basic_string<char, std::__ndk1::char_traits<char>, matjson::Value<char> > >, (std::__ndk1::__variant_detail::_Trait)1>::__destroy[abi:ne180000]()::{lambda(auto:1&)#1}, std::__ndk1::__variant_detail::__base<(std::__ndk1::__variant_detail::__traits<std::__ndk1::reference_wrapper<std::__ndk1::vector<matjson::Value, std::__ndk1::allocator<matjson> > const>, std::__ndk1::basic_string<char, std::__ndk1::char_traits<char>, matjson::Value<char> > >)1, std::__ndk1::vector<matjson::Value, std::__ndk1::allocator<matjson> > const, matjson::Value<char> >&>(std::__ndk1::__variant_detail::__dtor<std::__ndk1::__variant_detail::__traits<std::__ndk1::reference_wrapper<std::__ndk1::vector<matjson::Value, std::__ndk1::allocator<matjson> > const>, std::__ndk1::basic_string<char, std::__ndk1::char_traits<char>, matjson::Value<char> > >, (std::__ndk1::__variant_detail::_Trait)1>, std::__ndk1::__variant_detail::__base<(std::__ndk1::__variant_detail::__traits<std::__ndk1::reference_wrapper<std::__ndk1::vector<matjson::Value, std::__ndk1::allocator<matjson> > const>, std::__ndk1::basic_string<char, std::__ndk1::char_traits<char>, matjson::Value<char> > >)1, std::__ndk1::vector<matjson::Value, std::__ndk1::allocator<matjson> > const, matjson::Value<char> >&)
FUNC 3e934 114 0 std::__ndk1::__find_impl[abi:ne180000]<matjson::Value*, matjson::Value, std::__ndk1::basic_string<char, std::__ndk1::char_traits<char>, std::__ndk1::allocator<char> >, std::__ndk1::__identity>(std::__ndk1::__identity, matjson::Value, std::__ndk1::basic_string<char, std::__ndk1::char_traits<char>, std::__ndk1::allocator<char> > const&, std::__ndk1::__identity&)
FUNC 3ea48 3e4 0 std::__ndk1::__tree<std::__ndk1::__value_type<std::__ndk1::basic_string<char, std::__ndk1::char_traits<char>, std::__ndk1::allocator<char> >, std::__ndk1::pair<std::__ndk1::basic_string<char, std::__ndk1::char_traits<char>, std::__ndk1::allocator<char> >, std::__ndk1::basic_string<char, std::__ndk1::char_traits<char>, std::__ndk1::allocator<char> > > >, std::__ndk1::__map_value_compare<std::__ndk1::basic_string<char, std::__ndk1::char_traits<char>, std::__ndk1::allocator<char> >, std::__ndk1::__value_type<std::__ndk1::basic_string<char, std::__ndk1::char_traits<char>, std::__ndk1::allocator<char> >, std::__ndk1::pair<std::__ndk1::basic_string<char, std::__ndk1::char_traits<char>, std::__ndk1::allocator<char> >, std::__ndk1::basic_string<char, std::__ndk1::char_traits<char>, std::__ndk1::allocator<char> > > >, std::__ndk1::less<std::__ndk1::basic_string<char, std::__ndk1::char_traits<char>, std::__ndk1::allocator<char> > >, true>, std::__ndk1::allocator<std::__ndk1::__value_type<std::__ndk1::basic_string<char, std::__ndk1::char_traits<char>, std::__ndk1::allocator<char> >, std::__ndk1::pair<std::__ndk1::basic_string<char, std::__ndk1::char_traits<char>, std::__ndk1::allocator<char> >, std::__ndk1::basic_string<char, std::__ndk1::char_traits<char>, std::__ndk1::allocator<char> > > > > >::__emplace_hint_unique_key_args<std::__ndk1::basic_string<char, std::__ndk1::char_traits<char>, std::__ndk1::allocator<char> >, std::__ndk1::pair<std::__ndk1::basic_string<char, std::__ndk1::char_traits<char>, std::__ndk1::allocator<char> > const, std::__ndk1::pair<std::__ndk1::basic_string<char, std::__ndk1::char_traits<char>, std::__ndk1::allocator<char> >, std::__ndk1::basic_string<char, std::__ndk1::char_traits<char>, std::__ndk1::allocator<char> > > > const&>(std::__ndk1::__tree_const_iterator<std::__ndk1::__value_type<std::__ndk1::basic_string<char, std::__ndk1::char_traits<char>, std::__ndk1::allocator<char> >, std::__ndk1::pair<std::__ndk1::basic_string<char, std::__ndk1::char_traits<char>, std::__ndk1::allocator<char> >, std::__ndk1::basic_string<char, std::__ndk1::char_traits<char>, std::__ndk1::allocator<char> > > >, std::__ndk1::__tree_node<std::__ndk1::__value_type<std::__ndk1::basic_string<char, std::__ndk1::char_traits<char>, std::__ndk1::allocator<char> >, std::__ndk1::pair<std::__ndk1::basic_string<char, std::__ndk1::char_traits<char>, std::__ndk1::allocator<char> >, std::__ndk1::basic_string<char, std::__ndk1::char_traits<char>, std::__ndk1::allocator<char> > > >, void*>*, long>, std::__ndk1::basic_string<char, std::__ndk1::char_traits<char>, std::__ndk1::allocator<char> > const&, std::__ndk1::pair<std::__ndk1::basic_string<char, std::__ndk1::char_traits<char>, std::__ndk1::allocator<char> > const, std::__ndk1::pair<std::__ndk1::basic_string<char, std::__ndk1::char_traits<char>, std::__ndk1::allocator<char> >, std::__ndk1::basic_string<char, std::__ndk1::char_traits<char>, std::__ndk1::allocator<char> > > > const&)
FUNC 3ee2c 80 0 std::__ndk1::unique_ptr<std::__ndk1::__tree_node<std::__ndk1::__value_type<std::__ndk1::basic_string<char, std::__ndk1::char_traits<char>, std::__ndk1::allocator<char> >, std::__ndk1::pair<std::__ndk1::basic_string<char, std::__ndk1::char_traits<char>, std::__ndk1::allocator<char> >, std::__ndk1::basic_string<char, std::__ndk1::char_traits<char>, std::__ndk1::allocator<char> > > >, void*>, std::__ndk1::__tree_node_destructor<std::__ndk1::allocator<std::__ndk1::__tree_node<std::__ndk1::__value_type<std::__ndk1::basic_string<char, std::__ndk1::char_traits<char>, std::__ndk1::allocator<char> >, std::__ndk1::pair<std::__ndk1::basic_string<char, std::__ndk1::char_traits<char>, std::__ndk1::allocator<char> >, std::__ndk1::basic_string<char, std::__ndk1::char_traits<char>, std::__ndk1::allocator<char> > > >, void*> > > >::~unique_ptr[abi:ne180000]()
FUNC 3eeac 104 0 std::__ndk1::__tree<std::__ndk1::__value_type<std::__ndk1::basic_string<char, std::__ndk1::char_traits<char>, std::__ndk1::allocator<char> >, std::__ndk1::pair<std::__ndk1::basic_string<char, std::__ndk1::char_traits<char>, std::__ndk1::allocator<char> >, std::__ndk1::basic_string<char, std::__ndk1::char_traits<char>, std::__ndk1::allocator<char> > > >, std::__ndk1::__map_value_compare<std::__ndk1::basic_string<char, std::__ndk1::char_traits<char>, std::__ndk1::allocator<char> >, std::__ndk1::__value_type<std::__ndk1::basic_string<char, std::__ndk1::char_traits<char>, std::__ndk1::allocator<char> >, std::__ndk1::pair<std::__ndk1::basic_string<char, std::__ndk1::char_traits<char>, std::__ndk1::allocator<char> >, std::__ndk1::basic_string<char, std::__ndk1::char_traits<char>, std::__ndk1::allocator<char> > > >, std::__ndk1::less<std::__ndk1::basic_string<char, std::__ndk1::char_traits<char>, std::__ndk1::allocator<char> > >, true>, std::__ndk1::allocator<std::__ndk1::__value_type<std::__ndk1::basic_string<char, std::__ndk1::char_traits<char>, std::__ndk1::allocator<char> >, std::__ndk1::pair<std::__ndk1::basic_string<char, std::__ndk1::char_traits<char>, std::__ndk1::allocator<char> >, std::__ndk1::basic_string<char, std::__ndk1::char_traits<char>, std::__ndk1::allocator<char> > > > > >::__find_equal<std::__ndk1::basic_string<char, std::__ndk1::char_traits<char>, std::__ndk1::allocator<char> > >(std::__ndk1::__tree_end_node<std::__ndk1::__tree_node_base<void*>*>*&, std::__ndk1::basic_string<char, std::__ndk1::char_traits<char>, std::__ndk1::allocator<char> > const&)
FUNC 3efb0 7c 0 std::__ndk1::__tree<std::__ndk1::__value_type<std::__ndk1::basic_string<char, std::__ndk1::char_traits<char>, std::__ndk1::allocator<char> >, std::__ndk1::pair<std::__ndk1::basic_string<char, std::__ndk1::char_traits<char>, std::__ndk1::allocator<char> >, std::__ndk1::basic_string<char, std::__ndk1::char_traits<char>, std::__ndk1::allocator<char> > > >, std::__ndk1::__map_value_compare<std::__ndk1::basic_string<char, std::__ndk1::char_traits<char>, std::__ndk1::allocator<char> >, std::__ndk1::__value_type<std::__ndk1::basic_string<char, std::__ndk1::char_traits<char>, std::__ndk1::allocator<char> >, std::__ndk1::pair<std::__ndk1::basic_string<char, std::__ndk1::char_traits<char>, std::__ndk1::allocator<char> >, std::__ndk1::basic_string<char, std::__ndk1::char_traits<char>, std::__ndk1::allocator<char> > > >, std::__ndk1::less<std::__ndk1::basic_string<char, std::__ndk1::char_traits<char>, std::__ndk1::allocator<char> > >, true>, std::__ndk1::allocator<std::__ndk1::__value_type<std::__ndk1::basic_string<char, std::__ndk1::char_traits<char>, std::__ndk1::allocator<char> >, std::__ndk1::pair<std::__ndk1::basic_string<char, std::__ndk1::char_traits<char>, std::__ndk1::allocator<char> >, std::__ndk1::basic_string<char, std::__ndk1::char_traits<char>, std::__ndk1::allocator<char> > > > > >::destroy(std::__ndk1::__tree_node<std::__ndk1::__value_type<std::__ndk1::basic_string<char, std::__ndk1::char_traits<char>, std::__ndk1::allocator<char> >, std::__ndk1::pair<std::__ndk1::basic_string<char, std::__ndk1::char_traits<char>, std::__ndk1::allocator<char> >, std::__ndk1::basic_string<char, std::__ndk1::char_traits<char>, std::__ndk1::allocator<char> > > >, void*>*)
FUNC 3f02c 24 0 cocos2d::CCInteger::~CCInteger()
FUNC 3f050 18 0 cocos2d::CCInteger::acceptVisitor(cocos2d::CCDataVisitor&)
FUNC 3f068 4 0 cocos2d::CCObject::update(float)
FUNC 3f06c 428 0 geode::modifier::ModifyDerive<test, ChallengesPage>::apply()
FUNC 3f494 4 0 geode::modifier::ModifyBase<geode::modifier::ModifyDerive<test, ChallengesPage> >::apply()
FUNC 3f498 144 0 geode::modifier::AsStaticFunction_claimItem<test, void (test::*)(ChallengeNode*, GJChallengeItem*, cocos2d::CCPoint)>::Impl<void (test::*)(ChallengeNode*, GJChallengeItem*, cocos2d::CCPoint)>::function(test*, ChallengeNode*, GJChallengeItem*, cocos2d::CCPoint)
FUNC 3f5dc 5c0 0 MainButtonsSettingNodeV3::init(std::__ndk1::shared_ptr<MainButtonsSettingV3>, float)
FUNC 3fb9c 50 0 std::__ndk1::shared_ptr<geode::SettingV3>::~shared_ptr[abi:ne180000]()
FUNC 3fbec 890 0 MainButtonsSettingNodeV3::updateState(cocos2d::CCNode*)
FUNC 4047c 35c 0 MainButtonsSettingNodeV3::onRemove(cocos2d::CCObject*)
FUNC 407d8 3a0 0 MainButtonsSettingNodeV3::onAdd(cocos2d::CCObject*)
FUNC 40b78 21c 0 MainButtonsSettingNodeV3::updateIconRotation()
FUNC 40d94 20 0 geode::cocos::CCArrayExt<CCMenuItemSpriteExtra*>::~CCArrayExt()
FUNC 40db4 dc 0 MainButtonsSettingNodeV3::onCommit()
FUNC 40e90 330 0 MainButtonsSettingNodeV3::onResetToDefault()
FUNC 411c0 74 0 geode::impl::ResultData<std::__ndk1::vector<matjson::Value, std::__ndk1::allocator<matjson::Value> >&, std::__ndk1::basic_string<char, std::__ndk1::char_traits<char>, std::__ndk1::allocator<char> > >::~ResultData()
FUNC 41234 e8 0 MainButtonsSettingNodeV3::hasUncommittedChanges() const
FUNC 4131c 28 0 MainButtonsSettingNodeV3::hasNonDefaultValue() const
FUNC 41344 198 0 MainButtonsSettingNodeV3::create(std::__ndk1::shared_ptr<MainButtonsSettingV3>, float)
FUNC 414dc 7c 0 MainButtonsSettingNodeV3::~MainButtonsSettingNodeV3()
FUNC 41558 84 0 MainButtonsSettingNodeV3::~MainButtonsSettingNodeV3()
FUNC 415dc 4 0 std::__ndk1::__variant_detail::__visitation::__base::__dispatcher<(unsigned long)0>::__dispatch[abi:ne180000]<std::__ndk1::__variant_detail::__dtor<std::__ndk1::__variant_detail::__traits<std::__ndk1::reference_wrapper<std::__ndk1::vector<matjson::Value, std::__ndk1::allocator<matjson> > >, std::__ndk1::basic_string<char, std::__ndk1::char_traits<char>, matjson::Value<char> > >, (std::__ndk1::__variant_detail::_Trait)1>::__destroy[abi:ne180000]()::{lambda(auto:1&)#1}, std::__ndk1::__variant_detail::__base<(std::__ndk1::__variant_detail::__traits<std::__ndk1::reference_wrapper<std::__ndk1::vector<matjson::Value, std::__ndk1::allocator<matjson> > >, std::__ndk1::basic_string<char, std::__ndk1::char_traits<char>, matjson::Value<char> > >)1, std::__ndk1::vector<matjson::Value, std::__ndk1::allocator<matjson> >, matjson::Value<char> >&>(std::__ndk1::__variant_detail::__dtor<std::__ndk1::__variant_detail::__traits<std::__ndk1::reference_wrapper<std::__ndk1::vector<matjson::Value, std::__ndk1::allocator<matjson> > >, std::__ndk1::basic_string<char, std::__ndk1::char_traits<char>, matjson::Value<char> > >, (std::__ndk1::__variant_detail::_Trait)1>, std::__ndk1::__variant_detail::__base<(std::__ndk1::__variant_detail::__traits<std::__ndk1::reference_wrapper<std::__ndk1::vector<matjson::Value, std::__ndk1::allocator<matjson> > >, std::__ndk1::basic_string<char, std::__ndk1::char_traits<char>, matjson::Value<char> > >)1, std::__ndk1::vector<matjson::Value, std::__ndk1::allocator<matjson> >, matjson::Value<char> >&)
FUNC 415e0 14 0 std::__ndk1::__variant_detail::__visitation::__base::__dispatcher<(unsigned long)1>::__dispatch[abi:ne180000]<std::__ndk1::__variant_detail::__dtor<std::__ndk1::__variant_detail::__traits<std::__ndk1::reference_wrapper<std::__ndk1::vector<matjson::Value, std::__ndk1::allocator<matjson> > >, std::__ndk1::basic_string<char, std::__ndk1::char_traits<char>, matjson::Value<char> > >, (std::__ndk1::__variant_detail::_Trait)1>::__destroy[abi:ne180000]()::{lambda(auto:1&)#1}, std::__ndk1::__variant_detail::__base<(std::__ndk1::__variant_detail::__traits<std::__ndk1::reference_wrapper<std::__ndk1::vector<matjson::Value, std::__ndk1::allocator<matjson> > >, std::__ndk1::basic_string<char, std::__ndk1::char_traits<char>, matjson::Value<char> > >)1, std::__ndk1::vector<matjson::Value, std::__ndk1::allocator<matjson> >, matjson::Value<char> >&>(std::__ndk1::__variant_detail::__dtor<std::__ndk1::__variant_detail::__traits<std::__ndk1::reference_wrapper<std::__ndk1::vector<matjson::Value, std::__ndk1::allocator<matjson> > >, std::__ndk1::basic_string<char, std::__ndk1::char_traits<char>, matjson::Value<char> > >, (std::__ndk1::__variant_detail::_Trait)1>, std::__ndk1::__variant_detail::__base<(std::__ndk1::__variant_detail::__traits<std::__ndk1::reference_wrapper<std::__ndk1::vector<matjson::Value, std::__ndk1::allocator<matjson> > >, std::__ndk1::basic_string<char, std::__ndk1::char_traits<char>, matjson::Value<char> > >)1, std::__ndk1::vector<matjson::Value, std::__ndk1::allocator<matjson> >, matjson::Value<char> >&)
FUNC 415f4 60 0 geode::SettingNodeV3::~SettingNodeV3()
FUNC 41654 128 0 std::__ndk1::__tree<std::__ndk1::__value_type<std::__ndk1::basic_string<char, std::__ndk1::char_traits<char>, std::__ndk1::allocator<char> >, std::__ndk1::pair<std::__ndk1::basic_string<char, std::__ndk1::char_traits<char>, std::__ndk1::allocator<char> >, float> >, std::__ndk1::__map_value_compare<std::__ndk1::basic_string<char, std::__ndk1::char_traits<char>, std::__ndk1::allocator<char> >, std::__ndk1::__value_type<std::__ndk1::basic_string<char, std::__ndk1::char_traits<char>, std::__ndk1::allocator<char> >, std::__ndk1::pair<std::__ndk1::basic_string<char, std::__ndk1::char_traits<char>, std::__ndk1::allocator<char> >, float> >, std::__ndk1::less<std::__ndk1::basic_string<char, std::__ndk1::char_traits<char>, std::__ndk1::allocator<char> > >, true>, std::__ndk1::allocator<std::__ndk1::__value_type<std::__ndk1::basic_string<char, std::__ndk1::char_traits<char>, std::__ndk1::allocator<char> >, std::__ndk1::pair<std::__ndk1::basic_string<char, std::__ndk1::char_traits<char>, std::__ndk1::allocator<char> >, float> > > >::__emplace_unique_key_args<std::__ndk1::basic_string<char, std::__ndk1::char_traits<char>, std::__ndk1::allocator<char> >, std::__ndk1::piecewise_construct_t const&, std::__ndk1::tuple<std::__ndk1::basic_string<char, std::__ndk1::char_traits<char>, std::__ndk1::allocator<char> > const&>, std::__ndk1::tuple<> >(std::__ndk1::basic_string<char, std::__ndk1::char_traits<char>, std::__ndk1::allocator<char> > const&, std::__ndk1::piecewise_construct_t const&, std::__ndk1::tuple<std::__ndk1::basic_string<char, std::__ndk1::char_traits<char>, std::__ndk1::allocator<char> > const&>, std::__ndk1::tuple<>)
FUNC 4177c 104 0 std::__ndk1::__tree<std::__ndk1::__value_type<std::__ndk1::basic_string<char, std::__ndk1::char_traits<char>, std::__ndk1::allocator<char> >, std::__ndk1::pair<std::__ndk1::basic_string<char, std::__ndk1::char_traits<char>, std::__ndk1::allocator<char> >, float> >, std::__ndk1::__map_value_compare<std::__ndk1::basic_string<char, std::__ndk1::char_traits<char>, std::__ndk1::allocator<char> >, std::__ndk1::__value_type<std::__ndk1::basic_string<char, std::__ndk1::char_traits<char>, std::__ndk1::allocator<char> >, std::__ndk1::pair<std::__ndk1::basic_string<char, std::__ndk1::char_traits<char>, std::__ndk1::allocator<char> >, float> >, std::__ndk1::less<std::__ndk1::basic_string<char, std::__ndk1::char_traits<char>, std::__ndk1::allocator<char> > >, true>, std::__ndk1::allocator<std::__ndk1::__value_type<std::__ndk1::basic_string<char, std::__ndk1::char_traits<char>, std::__ndk1::allocator<char> >, std::__ndk1::pair<std::__ndk1::basic_string<char, std::__ndk1::char_traits<char>, std::__ndk1::allocator<char> >, float> > > >::__find_equal<std::__ndk1::basic_string<char, std::__ndk1::char_traits<char>, std::__ndk1::allocator<char> > >(std::__ndk1::__tree_end_node<std::__ndk1::__tree_node_base<void*>*>*&, std::__ndk1::basic_string<char, std::__ndk1::char_traits<char>, std::__ndk1::allocator<char> > const&)
FUNC 41880 5c 0 std::__ndk1::unique_ptr<std::__ndk1::__tree_node<std::__ndk1::__value_type<std::__ndk1::basic_string<char, std::__ndk1::char_traits<char>, std::__ndk1::allocator<char> >, std::__ndk1::pair<std::__ndk1::basic_string<char, std::__ndk1::char_traits<char>, std::__ndk1::allocator<char> >, float> >, void*>, std::__ndk1::__tree_node_destructor<std::__ndk1::allocator<std::__ndk1::__tree_node<std::__ndk1::__value_type<std::__ndk1::basic_string<char, std::__ndk1::char_traits<char>, std::__ndk1::allocator<char> >, std::__ndk1::pair<std::__ndk1::basic_string<char, std::__ndk1::char_traits<char>, std::__ndk1::allocator<char> >, float> >, void*> > > >::~unique_ptr[abi:ne180000]()
FUNC 418dc 44 0 std::__ndk1::pair<std::__ndk1::basic_string<char, std::__ndk1::char_traits<char>, std::__ndk1::allocator<char> > const, std::__ndk1::pair<std::__ndk1::basic_string<char, std::__ndk1::char_traits<char>, std::__ndk1::allocator<char> >, float> >::~pair()
FUNC 41920 8 0 std::__ndk1::map<std::__ndk1::basic_string<char, std::__ndk1::char_traits<char>, std::__ndk1::allocator<char> >, std::__ndk1::pair<std::__ndk1::basic_string<char, std::__ndk1::char_traits<char>, std::__ndk1::allocator<char> >, float>, std::__ndk1::less<std::__ndk1::basic_string<char, std::__ndk1::char_traits<char>, std::__ndk1::allocator<char> > >, std::__ndk1::allocator<std::__ndk1::pair<std::__ndk1::basic_string<char, std::__ndk1::char_traits<char>, std::__ndk1::allocator<char> > const, std::__ndk1::pair<std::__ndk1::basic_string<char, std::__ndk1::char_traits<char>, std::__ndk1::allocator<char> >, float> > > >::~map[abi:ne180000]()
FUNC 41928 74 0 geode::impl::ResultData<matjson::Value, matjson::ParseError>::~ResultData()
FUNC 4199c 284 0 MainButtonsSettingV3::parse(std::__ndk1::basic_string<char, std::__ndk1::char_traits<char>, std::__ndk1::allocator<char> > const&, std::__ndk1::basic_string<char, std::__ndk1::char_traits<char>, std::__ndk1::allocator<char> > const&, matjson::Value const&)
FUNC 41c20 174 0 geode::JsonExpectedValue::ok<std::__ndk1::shared_ptr<geode::SettingV3> >(std::__ndk1::shared_ptr<geode::SettingV3>)
FUNC 41d94 ac 0 MainButtonsSettingV3::load(matjson::Value const&)
FUNC 41e40 90 0 MainButtonsSettingV3::save(matjson::Value&) const
FUNC 41ed0 124 0 MainButtonsSettingV3::createNode(float)
FUNC 41ff4 10 0 MainButtonsSettingV3::isDefaultValue() const
FUNC 42004 94 0 MainButtonsSettingV3::reset()
FUNC 42098 30 0 MainButtonsSettingV3::~MainButtonsSettingV3()
FUNC 420c8 38 0 MainButtonsSettingV3::~MainButtonsSettingV3()
FUNC 42100 8 0 std::__ndk1::__variant_detail::__visitation::__base::__dispatcher<(unsigned long)0>::__dispatch[abi:ne180000]<std::__ndk1::__variant_detail::__dtor<std::__ndk1::__variant_detail::__traits<matjson::Value, std::__ndk1::__variant_detail::__traits::ParseError>, (std::__ndk1::__variant_detail::_Trait)1>::__destroy[abi:ne180000]()::{lambda(auto:1&)#1}, std::__ndk1::__variant_detail::__base<(std::__ndk1::__variant_detail::__traits<matjson::Value, std::__ndk1::__variant_detail::__traits::ParseError>)1, matjson, matjson::Value>&>(std::__ndk1::__variant_detail::__dtor<std::__ndk1::__variant_detail::__traits<matjson::Value, std::__ndk1::__variant_detail::__traits::ParseError>, (std::__ndk1::__variant_detail::_Trait)1>, std::__ndk1::__variant_detail::__base<(std::__ndk1::__variant_detail::__traits<matjson::Value, std::__ndk1::__variant_detail::__traits::ParseError>)1, matjson, matjson::Value>&)
FUNC 42108 14 0 std::__ndk1::__variant_detail::__visitation::__base::__dispatcher<(unsigned long)1>::__dispatch[abi:ne180000]<std::__ndk1::__variant_detail::__dtor<std::__ndk1::__variant_detail::__traits<matjson::Value, std::__ndk1::__variant_detail::__traits::ParseError>, (std::__ndk1::__variant_detail::_Trait)1>::__destroy[abi:ne180000]()::{lambda(auto:1&)#1}, std::__ndk1::__variant_detail::__base<(std::__ndk1::__variant_detail::__traits<matjson::Value, std::__ndk1::__variant_detail::__traits::ParseError>)1, matjson, matjson::Value>&>(std::__ndk1::__variant_detail::__dtor<std::__ndk1::__variant_detail::__traits<matjson::Value, std::__ndk1::__variant_detail::__traits::ParseError>, (std::__ndk1::__variant_detail::_Trait)1>, std::__ndk1::__variant_detail::__base<(std::__ndk1::__variant_detail::__traits<matjson::Value, std::__ndk1::__variant_detail::__traits::ParseError>)1, matjson, matjson::Value>&)
FUNC 4211c 58 0 std::__ndk1::__tree<std::__ndk1::__value_type<std::__ndk1::basic_string<char, std::__ndk1::char_traits<char>, std::__ndk1::allocator<char> >, std::__ndk1::pair<std::__ndk1::basic_string<char, std::__ndk1::char_traits<char>, std::__ndk1::allocator<char> >, float> >, std::__ndk1::__map_value_compare<std::__ndk1::basic_string<char, std::__ndk1::char_traits<char>, std::__ndk1::allocator<char> >, std::__ndk1::__value_type<std::__ndk1::basic_string<char, std::__ndk1::char_traits<char>, std::__ndk1::allocator<char> >, std::__ndk1::pair<std::__ndk1::basic_string<char, std::__ndk1::char_traits<char>, std::__ndk1::allocator<char> >, float> >, std::__ndk1::less<std::__ndk1::basic_string<char, std::__ndk1::char_traits<char>, std::__ndk1::allocator<char> > >, true>, std::__ndk1::allocator<std::__ndk1::__value_type<std::__ndk1::basic_string<char, std::__ndk1::char_traits<char>, std::__ndk1::allocator<char> >, std::__ndk1::pair<std::__ndk1::basic_string<char, std::__ndk1::char_traits<char>, std::__ndk1::allocator<char> >, float> > > >::destroy(std::__ndk1::__tree_node<std::__ndk1::__value_type<std::__ndk1::basic_string<char, std::__ndk1::char_traits<char>, std::__ndk1::allocator<char> >, std::__ndk1::pair<std::__ndk1::basic_string<char, std::__ndk1::char_traits<char>, std::__ndk1::allocator<char> >, float> >, void*>*)
FUNC 42174 10 0 std::__ndk1::__shared_ptr_emplace<MainButtonsSettingV3, std::__ndk1::allocator<MainButtonsSettingV3> >::~__shared_ptr_emplace()
FUNC 42184 30 0 std::__ndk1::__shared_ptr_emplace<MainButtonsSettingV3, std::__ndk1::allocator<MainButtonsSettingV3> >::~__shared_ptr_emplace()
FUNC 421b4 c 0 std::__ndk1::__shared_ptr_emplace<MainButtonsSettingV3, std::__ndk1::allocator<MainButtonsSettingV3> >::__on_zero_shared()
FUNC 421c0 4 0 std::__ndk1::__shared_ptr_emplace<MainButtonsSettingV3, std::__ndk1::allocator<MainButtonsSettingV3> >::__on_zero_shared_weak()
FUNC 421c4 74 0 geode::impl::ResultData<void, std::__ndk1::basic_string<char, std::__ndk1::char_traits<char>, std::__ndk1::allocator<char> > >::~ResultData()
FUNC 42238 34 0 std::__ndk1::__throw_bad_weak_ptr[abi:ne180000]()
FUNC 4226c 4 0 std::__ndk1::__function::__base<geode::Result<std::__ndk1::shared_ptr<geode::SettingV3>, std::__ndk1::basic_string<char, std::__ndk1::char_traits<char>, std::__ndk1::allocator<char> > >(std::__ndk1::basic_string<char, std::__ndk1::char_traits<char>, std::__ndk1::allocator<char> > const&, std::__ndk1::basic_string<char, std::__ndk1::char_traits<char>, std::__ndk1::allocator<char> > const&, matjson::Value const&)>::~__base()
FUNC 42270 4 0 std::__ndk1::__function::__func<geode::Result<std::__ndk1::shared_ptr<geode::SettingV3>, std::__ndk1::basic_string<char, std::__ndk1::char_traits<char>, std::__ndk1::allocator<char> > > (*)(std::__ndk1::basic_string<char, std::__ndk1::char_traits<char>, std::__ndk1::allocator<char> > const&, std::__ndk1::basic_string<char, std::__ndk1::char_traits<char>, std::__ndk1::allocator<char> > const&, matjson::Value const&), std::__ndk1::allocator<geode::Result<std::__ndk1::shared_ptr<geode::SettingV3>, std::__ndk1::basic_string<char, std::__ndk1::char_traits<char>, std::__ndk1::allocator<char> > > (*)(std::__ndk1::basic_string<char, std::__ndk1::char_traits<char>, std::__ndk1::allocator<char> > const&, std::__ndk1::basic_string<char, std::__ndk1::char_traits<char>, std::__ndk1::allocator<char> > const&, matjson::Value const&)>, geode::Result<std::__ndk1::shared_ptr<geode::SettingV3>, std::__ndk1::basic_string<char, std::__ndk1::char_traits<char>, std::__ndk1::allocator<char> > >(std::__ndk1::basic_string<char, std::__ndk1::char_traits<char>, std::__ndk1::allocator<char> > const&, std::__ndk1::basic_string<char, std::__ndk1::char_traits<char>, std::__ndk1::allocator<char> > const&, matjson::Value const&)>::~__func()
FUNC 42274 34 0 std::__ndk1::__function::__func<geode::Result<std::__ndk1::shared_ptr<geode::SettingV3>, std::__ndk1::basic_string<char, std::__ndk1::char_traits<char>, std::__ndk1::allocator<char> > > (*)(std::__ndk1::basic_string<char, std::__ndk1::char_traits<char>, std::__ndk1::allocator<char> > const&, std::__ndk1::basic_string<char, std::__ndk1::char_traits<char>, std::__ndk1::allocator<char> > const&, matjson::Value const&), std::__ndk1::allocator<geode::Result<std::__ndk1::shared_ptr<geode::SettingV3>, std::__ndk1::basic_string<char, std::__ndk1::char_traits<char>, std::__ndk1::allocator<char> > > (*)(std::__ndk1::basic_string<char, std::__ndk1::char_traits<char>, std::__ndk1::allocator<char> > const&, std::__ndk1::basic_string<char, std::__ndk1::char_traits<char>, std::__ndk1::allocator<char> > const&, matjson::Value const&)>, geode::Result<std::__ndk1::shared_ptr<geode::SettingV3>, std::__ndk1::basic_string<char, std::__ndk1::char_traits<char>, std::__ndk1::allocator<char> > >(std::__ndk1::basic_string<char, std::__ndk1::char_traits<char>, std::__ndk1::allocator<char> > const&, std::__ndk1::basic_string<char, std::__ndk1::char_traits<char>, std::__ndk1::allocator<char> > const&, matjson::Value const&)>::__clone() const
FUNC 422a8 14 0 std::__ndk1::__function::__func<geode::Result<std::__ndk1::shared_ptr<geode::SettingV3>, std::__ndk1::basic_string<char, std::__ndk1::char_traits<char>, std::__ndk1::allocator<char> > > (*)(std::__ndk1::basic_string<char, std::__ndk1::char_traits<char>, std::__ndk1::allocator<char> > const&, std::__ndk1::basic_string<char, std::__ndk1::char_traits<char>, std::__ndk1::allocator<char> > const&, matjson::Value const&), std::__ndk1::allocator<geode::Result<std::__ndk1::shared_ptr<geode::SettingV3>, std::__ndk1::basic_string<char, std::__ndk1::char_traits<char>, std::__ndk1::allocator<char> > > (*)(std::__ndk1::basic_string<char, std::__ndk1::char_traits<char>, std::__ndk1::allocator<char> > const&, std::__ndk1::basic_string<char, std::__ndk1::char_traits<char>, std::__ndk1::allocator<char> > const&, matjson::Value const&)>, geode::Result<std::__ndk1::shared_ptr<geode::SettingV3>, std::__ndk1::basic_string<char, std::__ndk1::char_traits<char>, std::__ndk1::allocator<char> > >(std::__ndk1::basic_string<char, std::__ndk1::char_traits<char>, std::__ndk1::allocator<char> > const&, std::__ndk1::basic_string<char, std::__ndk1::char_traits<char>, std::__ndk1::allocator<char> > const&, matjson::Value const&)>::__clone(std::__ndk1::__function::__base<geode::Result<std::__ndk1::shared_ptr<geode::SettingV3>, std::__ndk1::basic_string<char, std::__ndk1::char_traits<char>, std::__ndk1::allocator<char> > >(std::__ndk1::basic_string<char, std::__ndk1::char_traits<char>, std::__ndk1::allocator<char> > const&, std::__ndk1::basic_string<char, std::__ndk1::char_traits<char>, std::__ndk1::allocator<char> > const&, matjson::Value const&)>*) const
FUNC 422bc 4 0 std::__ndk1::__function::__func<geode::Result<std::__ndk1::shared_ptr<geode::SettingV3>, std::__ndk1::basic_string<char, std::__ndk1::char_traits<char>, std::__ndk1::allocator<char> > > (*)(std::__ndk1::basic_string<char, std::__ndk1::char_traits<char>, std::__ndk1::allocator<char> > const&, std::__ndk1::basic_string<char, std::__ndk1::char_traits<char>, std::__ndk1::allocator<char> > const&, matjson::Value const&), std::__ndk1::allocator<geode::Result<std::__ndk1::shared_ptr<geode::SettingV3>, std::__ndk1::basic_string<char, std::__ndk1::char_traits<char>, std::__ndk1::allocator<char> > > (*)(std::__ndk1::basic_string<char, std::__ndk1::char_traits<char>, std::__ndk1::allocator<char> > const&, std::__ndk1::basic_string<char, std::__ndk1::char_traits<char>, std::__ndk1::allocator<char> > const&, matjson::Value const&)>, geode::Result<std::__ndk1::shared_ptr<geode::SettingV3>, std::__ndk1::basic_string<char, std::__ndk1::char_traits<char>, std::__ndk1::allocator<char> > >(std::__ndk1::basic_string<char, std::__ndk1::char_traits<char>, std::__ndk1::allocator<char> > const&, std::__ndk1::basic_string<char, std::__ndk1::char_traits<char>, std::__ndk1::allocator<char> > const&, matjson::Value const&)>::destroy()
FUNC 422c0 4 0 std::__ndk1::__function::__func<geode::Result<std::__ndk1::shared_ptr<geode::SettingV3>, std::__ndk1::basic_string<char, std::__ndk1::char_traits<char>, std::__ndk1::allocator<char> > > (*)(std::__ndk1::basic_string<char, std::__ndk1::char_traits<char>, std::__ndk1::allocator<char> > const&, std::__ndk1::basic_string<char, std::__ndk1::char_traits<char>, std::__ndk1::allocator<char> > const&, matjson::Value const&), std::__ndk1::allocator<geode::Result<std::__ndk1::shared_ptr<geode::SettingV3>, std::__ndk1::basic_string<char, std::__ndk1::char_traits<char>, std::__ndk1::allocator<char> > > (*)(std::__ndk1::basic_string<char, std::__ndk1::char_traits<char>, std::__ndk1::allocator<char> > const&, std::__ndk1::basic_string<char, std::__ndk1::char_traits<char>, std::__ndk1::allocator<char> > const&, matjson::Value const&)>, geode::Result<std::__ndk1::shared_ptr<geode::SettingV3>, std::__ndk1::basic_string<char, std::__ndk1::char_traits<char>, std::__ndk1::allocator<char> > >(std::__ndk1::basic_string<char, std::__ndk1::char_traits<char>, std::__ndk1::allocator<char> > const&, std::__ndk1::basic_string<char, std::__ndk1::char_traits<char>, std::__ndk1::allocator<char> > const&, matjson::Value const&)>::destroy_deallocate()
FUNC 422c4 14 0 std::__ndk1::__function::__func<geode::Result<std::__ndk1::shared_ptr<geode::SettingV3>, std::__ndk1::basic_string<char, std::__ndk1::char_traits<char>, std::__ndk1::allocator<char> > > (*)(std::__ndk1::basic_string<char, std::__ndk1::char_traits<char>, std::__ndk1::allocator<char> > const&, std::__ndk1::basic_string<char, std::__ndk1::char_traits<char>, std::__ndk1::allocator<char> > const&, matjson::Value const&), std::__ndk1::allocator<geode::Result<std::__ndk1::shared_ptr<geode::SettingV3>, std::__ndk1::basic_string<char, std::__ndk1::char_traits<char>, std::__ndk1::allocator<char> > > (*)(std::__ndk1::basic_string<char, std::__ndk1::char_traits<char>, std::__ndk1::allocator<char> > const&, std::__ndk1::basic_string<char, std::__ndk1::char_traits<char>, std::__ndk1::allocator<char> > const&, matjson::Value const&)>, geode::Result<std::__ndk1::shared_ptr<geode::SettingV3>, std::__ndk1::basic_string<char, std::__ndk1::char_traits<char>, std::__ndk1::allocator<char> > >(std::__ndk1::basic_string<char, std::__ndk1::char_traits<char>, std::__ndk1::allocator<char> > const&, std::__ndk1::basic_string<char, std::__ndk1::char_traits<char>, std::__ndk1::allocator<char> > const&, matjson::Value const&)>::operator()(std::__ndk1::basic_string<char, std::__ndk1::char_traits<char>, std::__ndk1::allocator<char> > const&, std::__ndk1::basic_string<char, std::__ndk1::char_traits<char>, std::__ndk1::allocator<char> > const&, matjson::Value const&)
FUNC 422d8 1c 0 std::__ndk1::__function::__func<geode::Result<std::__ndk1::shared_ptr<geode::SettingV3>, std::__ndk1::basic_string<char, std::__ndk1::char_traits<char>, std::__ndk1::allocator<char> > > (*)(std::__ndk1::basic_string<char, std::__ndk1::char_traits<char>, std::__ndk1::allocator<char> > const&, std::__ndk1::basic_string<char, std::__ndk1::char_traits<char>, std::__ndk1::allocator<char> > const&, matjson::Value const&), std::__ndk1::allocator<geode::Result<std::__ndk1::shared_ptr<geode::SettingV3>, std::__ndk1::basic_string<char, std::__ndk1::char_traits<char>, std::__ndk1::allocator<char> > > (*)(std::__ndk1::basic_string<char, std::__ndk1::char_traits<char>, std::__ndk1::allocator<char> > const&, std::__ndk1::basic_string<char, std::__ndk1::char_traits<char>, std::__ndk1::allocator<char> > const&, matjson::Value const&)>, geode::Result<std::__ndk1::shared_ptr<geode::SettingV3>, std::__ndk1::basic_string<char, std::__ndk1::char_traits<char>, std::__ndk1::allocator<char> > >(std::__ndk1::basic_string<char, std::__ndk1::char_traits<char>, std::__ndk1::allocator<char> > const&, std::__ndk1::basic_string<char, std::__ndk1::char_traits<char>, std::__ndk1::allocator<char> > const&, matjson::Value const&)>::target(std::type_info const&) const
FUNC 422f4 c 0 std::__ndk1::__function::__func<geode::Result<std::__ndk1::shared_ptr<geode::SettingV3>, std::__ndk1::basic_string<char, std::__ndk1::char_traits<char>, std::__ndk1::allocator<char> > > (*)(std::__ndk1::basic_string<char, std::__ndk1::char_traits<char>, std::__ndk1::allocator<char> > const&, std::__ndk1::basic_string<char, std::__ndk1::char_traits<char>, std::__ndk1::allocator<char> > const&, matjson::Value const&), std::__ndk1::allocator<geode::Result<std::__ndk1::shared_ptr<geode::SettingV3>, std::__ndk1::basic_string<char, std::__ndk1::char_traits<char>, std::__ndk1::allocator<char> > > (*)(std::__ndk1::basic_string<char, std::__ndk1::char_traits<char>, std::__ndk1::allocator<char> > const&, std::__ndk1::basic_string<char, std::__ndk1::char_traits<char>, std::__ndk1::allocator<char> > const&, matjson::Value const&)>, geode::Result<std::__ndk1::shared_ptr<geode::SettingV3>, std::__ndk1::basic_string<char, std::__ndk1::char_traits<char>, std::__ndk1::allocator<char> > >(std::__ndk1::basic_string<char, std::__ndk1::char_traits<char>, std::__ndk1::allocator<char> > const&, std::__ndk1::basic_string<char, std::__ndk1::char_traits<char>, std::__ndk1::allocator<char> > const&, matjson::Value const&)>::target_type() const
FUNC 42300 ec8 0 _GLOBAL__sub_I_MainButtonsSettingV3.cpp
FUNC 431c8 21c 0 MiniButton::init(std::__ndk1::basic_string<char, std::__ndk1::char_traits<char>, std::__ndk1::allocator<char> >, float, cocos2d::_ccColor3B, cocos2d::CCObject*, void (cocos2d::CCObject::*)(cocos2d::CCObject*), std::__ndk1::basic_string<char, std::__ndk1::char_traits<char>, std::__ndk1::allocator<char> >)
FUNC 433e4 1c0 0 MiniButton::create(std::__ndk1::basic_string<char, std::__ndk1::char_traits<char>, std::__ndk1::allocator<char> >, float, cocos2d::_ccColor3B, cocos2d::CCObject*, void (cocos2d::CCObject::*)(cocos2d::CCObject*), std::__ndk1::basic_string<char, std::__ndk1::char_traits<char>, std::__ndk1::allocator<char> >)
FUNC 435a4 46c 0 MiniRDButton::init(std::__ndk1::basic_string<char, std::__ndk1::char_traits<char>, std::__ndk1::allocator<char> >, float, cocos2d::_ccColor3B, cocos2d::CCObject*, void (cocos2d::CCObject::*)(cocos2d::CCObject*), std::__ndk1::basic_string<char, std::__ndk1::char_traits<char>, std::__ndk1::allocator<char> >)
FUNC 43a10 1c0 0 MiniRDButton::create(std::__ndk1::basic_string<char, std::__ndk1::char_traits<char>, std::__ndk1::allocator<char> >, float, cocos2d::_ccColor3B, cocos2d::CCObject*, void (cocos2d::CCObject::*)(cocos2d::CCObject*), std::__ndk1::basic_string<char, std::__ndk1::char_traits<char>, std::__ndk1::allocator<char> >)
FUNC 43bd0 4c 0 MiniButton::~MiniButton()
FUNC 43c1c 4 0 cocos2d::CCNodeRGBA::setOpacityModifyRGB(bool)
FUNC 43c20 8 0 cocos2d::CCNodeRGBA::isOpacityModifyRGB()
FUNC 43c28 4 0 {virtual override thunk({offset(-320)}, cocos2d::CCNodeRGBA::setOpacityModifyRGB(bool))}
FUNC 43c2c 8 0 {virtual override thunk({offset(-320)}, cocos2d::CCNodeRGBA::isOpacityModifyRGB())}
FUNC 43c34 4c 0 MiniRDButton::~MiniRDButton()
FUNC 43c80 798 0 StatsSettingNodeV3::init(std::__ndk1::shared_ptr<StatsSettingV3>, float)
FUNC 44418 760 0 StatsSettingNodeV3::updateState(cocos2d::CCNode*)
FUNC 44b78 358 0 StatsSettingNodeV3::onRemove(cocos2d::CCObject*)
FUNC 44ed0 358 0 StatsSettingNodeV3::onAdd(cocos2d::CCObject*)
FUNC 45228 dc 0 StatsSettingNodeV3::onCommit()
FUNC 45304 330 0 StatsSettingNodeV3::onResetToDefault()
FUNC 45634 e8 0 StatsSettingNodeV3::hasUncommittedChanges() const
FUNC 4571c 28 0 StatsSettingNodeV3::hasNonDefaultValue() const
FUNC 45744 194 0 StatsSettingNodeV3::create(std::__ndk1::shared_ptr<StatsSettingV3>, float)
FUNC 458d8 7c 0 StatsSettingNodeV3::~StatsSettingNodeV3()
FUNC 45954 84 0 StatsSettingNodeV3::~StatsSettingNodeV3()
FUNC 459d8 124 0 std::__ndk1::__tree<std::__ndk1::__value_type<std::__ndk1::basic_string<char, std::__ndk1::char_traits<char>, std::__ndk1::allocator<char> >, std::__ndk1::basic_string<char, std::__ndk1::char_traits<char>, std::__ndk1::allocator<char> > >, std::__ndk1::__map_value_compare<std::__ndk1::basic_string<char, std::__ndk1::char_traits<char>, std::__ndk1::allocator<char> >, std::__ndk1::__value_type<std::__ndk1::basic_string<char, std::__ndk1::char_traits<char>, std::__ndk1::allocator<char> >, std::__ndk1::basic_string<char, std::__ndk1::char_traits<char>, std::__ndk1::allocator<char> > >, std::__ndk1::less<std::__ndk1::basic_string<char, std::__ndk1::char_traits<char>, std::__ndk1::allocator<char> > >, true>, std::__ndk1::allocator<std::__ndk1::__value_type<std::__ndk1::basic_string<char, std::__ndk1::char_traits<char>, std::__ndk1::allocator<char> >, std::__ndk1::basic_string<char, std::__ndk1::char_traits<char>, std::__ndk1::allocator<char> > > > >::__emplace_unique_key_args<std::__ndk1::basic_string<char, std::__ndk1::char_traits<char>, std::__ndk1::allocator<char> >, std::__ndk1::piecewise_construct_t const&, std::__ndk1::tuple<std::__ndk1::basic_string<char, std::__ndk1::char_traits<char>, std::__ndk1::allocator<char> > const&>, std::__ndk1::tuple<> >(std::__ndk1::basic_string<char, std::__ndk1::char_traits<char>, std::__ndk1::allocator<char> > const&, std::__ndk1::piecewise_construct_t const&, std::__ndk1::tuple<std::__ndk1::basic_string<char, std::__ndk1::char_traits<char>, std::__ndk1::allocator<char> > const&>, std::__ndk1::tuple<>)
FUNC 45afc 104 0 std::__ndk1::__tree<std::__ndk1::__value_type<std::__ndk1::basic_string<char, std::__ndk1::char_traits<char>, std::__ndk1::allocator<char> >, std::__ndk1::basic_string<char, std::__ndk1::char_traits<char>, std::__ndk1::allocator<char> > >, std::__ndk1::__map_value_compare<std::__ndk1::basic_string<char, std::__ndk1::char_traits<char>, std::__ndk1::allocator<char> >, std::__ndk1::__value_type<std::__ndk1::basic_string<char, std::__ndk1::char_traits<char>, std::__ndk1::allocator<char> >, std::__ndk1::basic_string<char, std::__ndk1::char_traits<char>, std::__ndk1::allocator<char> > >, std::__ndk1::less<std::__ndk1::basic_string<char, std::__ndk1::char_traits<char>, std::__ndk1::allocator<char> > >, true>, std::__ndk1::allocator<std::__ndk1::__value_type<std::__ndk1::basic_string<char, std::__ndk1::char_traits<char>, std::__ndk1::allocator<char> >, std::__ndk1::basic_string<char, std::__ndk1::char_traits<char>, std::__ndk1::allocator<char> > > > >::__find_equal<std::__ndk1::basic_string<char, std::__ndk1::char_traits<char>, std::__ndk1::allocator<char> > >(std::__ndk1::__tree_end_node<std::__ndk1::__tree_node_base<void*>*>*&, std::__ndk1::basic_string<char, std::__ndk1::char_traits<char>, std::__ndk1::allocator<char> > const&)
FUNC 45c00 5c 0 std::__ndk1::unique_ptr<std::__ndk1::__tree_node<std::__ndk1::__value_type<std::__ndk1::basic_string<char, std::__ndk1::char_traits<char>, std::__ndk1::allocator<char> >, std::__ndk1::basic_string<char, std::__ndk1::char_traits<char>, std::__ndk1::allocator<char> > >, void*>, std::__ndk1::__tree_node_destructor<std::__ndk1::allocator<std::__ndk1::__tree_node<std::__ndk1::__value_type<std::__ndk1::basic_string<char, std::__ndk1::char_traits<char>, std::__ndk1::allocator<char> >, std::__ndk1::basic_string<char, std::__ndk1::char_traits<char>, std::__ndk1::allocator<char> > >, void*> > > >::~unique_ptr[abi:ne180000]()
FUNC 45c5c 124 0 _ZNSt6__ndk14pairIKNS_12basic_stringIcNS_11char_traitsIcEENS_9allocatorIcEEEES6_EC2B8ne180000IRA12_KcRA21_SA_TnNS_9enable_ifIXclsr10_CheckArgsE17__enable_implicitIT_T0_EEEiE4typeELi0EEEOSG_OSH_
FUNC 45d80 44 0 std::__ndk1::pair<std::__ndk1::basic_string<char, std::__ndk1::char_traits<char>, std::__ndk1::allocator<char> > const, std::__ndk1::basic_string<char, std::__ndk1::char_traits<char>, std::__ndk1::allocator<char> > >::~pair()
FUNC 45dc4 8 0 std::__ndk1::map<std::__ndk1::basic_string<char, std::__ndk1::char_traits<char>, std::__ndk1::allocator<char> >, std::__ndk1::basic_string<char, std::__ndk1::char_traits<char>, std::__ndk1::allocator<char> >, std::__ndk1::less<std::__ndk1::basic_string<char, std::__ndk1::char_traits<char>, std::__ndk1::allocator<char> > >, std::__ndk1::allocator<std::__ndk1::pair<std::__ndk1::basic_string<char, std::__ndk1::char_traits<char>, std::__ndk1::allocator<char> > const, std::__ndk1::basic_string<char, std::__ndk1::char_traits<char>, std::__ndk1::allocator<char> > > > >::~map[abi:ne180000]()
FUNC 45dcc 284 0 StatsSettingV3::parse(std::__ndk1::basic_string<char, std::__ndk1::char_traits<char>, std::__ndk1::allocator<char> > const&, std::__ndk1::basic_string<char, std::__ndk1::char_traits<char>, std::__ndk1::allocator<char> > const&, matjson::Value const&)
FUNC 46050 710 0 StatsSettingV3::load(matjson::Value const&)
FUNC 46760 90 0 StatsSettingV3::save(matjson::Value&) const
FUNC 467f0 124 0 StatsSettingV3::createNode(float)
FUNC 46914 10 0 StatsSettingV3::isDefaultValue() const
FUNC 46924 94 0 StatsSettingV3::reset()
FUNC 469b8 30 0 StatsSettingV3::~StatsSettingV3()
FUNC 469e8 38 0 StatsSettingV3::~StatsSettingV3()
FUNC 46a20 58 0 std::__ndk1::__tree<std::__ndk1::__value_type<std::__ndk1::basic_string<char, std::__ndk1::char_traits<char>, std::__ndk1::allocator<char> >, std::__ndk1::basic_string<char, std::__ndk1::char_traits<char>, std::__ndk1::allocator<char> > >, std::__ndk1::__map_value_compare<std::__ndk1::basic_string<char, std::__ndk1::char_traits<char>, std::__ndk1::allocator<char> >, std::__ndk1::__value_type<std::__ndk1::basic_string<char, std::__ndk1::char_traits<char>, std::__ndk1::allocator<char> >, std::__ndk1::basic_string<char, std::__ndk1::char_traits<char>, std::__ndk1::allocator<char> > >, std::__ndk1::less<std::__ndk1::basic_string<char, std::__ndk1::char_traits<char>, std::__ndk1::allocator<char> > >, true>, std::__ndk1::allocator<std::__ndk1::__value_type<std::__ndk1::basic_string<char, std::__ndk1::char_traits<char>, std::__ndk1::allocator<char> >, std::__ndk1::basic_string<char, std::__ndk1::char_traits<char>, std::__ndk1::allocator<char> > > > >::destroy(std::__ndk1::__tree_node<std::__ndk1::__value_type<std::__ndk1::basic_string<char, std::__ndk1::char_traits<char>, std::__ndk1::allocator<char> >, std::__ndk1::basic_string<char, std::__ndk1::char_traits<char>, std::__ndk1::allocator<char> > >, void*>*)
FUNC 46a78 10 0 std::__ndk1::__shared_ptr_emplace<StatsSettingV3, std::__ndk1::allocator<StatsSettingV3> >::~__shared_ptr_emplace()
FUNC 46a88 30 0 std::__ndk1::__shared_ptr_emplace<StatsSettingV3, std::__ndk1::allocator<StatsSettingV3> >::~__shared_ptr_emplace()
FUNC 46ab8 c 0 std::__ndk1::__shared_ptr_emplace<StatsSettingV3, std::__ndk1::allocator<StatsSettingV3> >::__on_zero_shared()
FUNC 46ac4 4 0 std::__ndk1::__shared_ptr_emplace<StatsSettingV3, std::__ndk1::allocator<StatsSettingV3> >::__on_zero_shared_weak()
FUNC 46ac8 8b0 0 _GLOBAL__sub_I_StatsSettingV3.cpp
FUNC 47378 164 0 RDButton::getLeaderboardRankFailed()
FUNC 474dc 124 0 RDButton::updateLeaderboardLabel()
FUNC 47600 108 0 RDButton::updateQuestsLabel()
FUNC 47708 f30 0 RDButton::create(cocos2d::CCObject*, std::__ndk1::basic_string<char, std::__ndk1::char_traits<char>, std::__ndk1::allocator<char> >, std::__ndk1::vector<std::__ndk1::basic_string<char, std::__ndk1::char_traits<char>, std::__ndk1::allocator<char> >, std::__ndk1::allocator<std::__ndk1::basic_string<char, std::__ndk1::char_traits<char>, std::__ndk1::allocator<char> > > >, std::__ndk1::basic_string<char, std::__ndk1::char_traits<char>, std::__ndk1::allocator<char> >, float, void (cocos2d::CCObject::*)(cocos2d::CCObject*), std::__ndk1::basic_string<char, std::__ndk1::char_traits<char>, std::__ndk1::allocator<char> >)
FUNC 48638 4c 0 RDButton::~RDButton()
FUNC 48684 e0 0 RDMainButton::onPlay(cocos2d::CCObject*)
FUNC 48764 1c8 0 geode::Mod::getSavedValue<long>(std::__ndk1::basic_string_view<char, std::__ndk1::char_traits<char> >, long const&)
FUNC 4892c 1bc8 0 RDMainButton::init(cocos2d::CCPoint, cocos2d::CCSize, std::__ndk1::basic_string<char, std::__ndk1::char_traits<char>, std::__ndk1::allocator<char> >, float)
FUNC 4a4f4 194 0 RDMainButton::create(cocos2d::CCPoint, cocos2d::CCSize, std::__ndk1::basic_string<char, std::__ndk1::char_traits<char>, std::__ndk1::allocator<char> >, float)
FUNC 4a688 4c 0 RDMainButton::~RDMainButton()
FUNC 4a6d4 a94 0 RDStatsNode::create(std::__ndk1::basic_string<char, std::__ndk1::char_traits<char>, std::__ndk1::allocator<char> >, std::__ndk1::basic_string<char, std::__ndk1::char_traits<char>, std::__ndk1::allocator<char> >, std::__ndk1::basic_string<char, std::__ndk1::char_traits<char>, std::__ndk1::allocator<char> >)
FUNC 4b168 24 0 RDStatsNode::~RDStatsNode()
FUNC 4b18c 1f4 0 RDDailyNode::create(cocos2d::CCSize, std::__ndk1::basic_string<char, std::__ndk1::char_traits<char>, std::__ndk1::allocator<char> >, float)
FUNC 4b380 240 0 RDDailyNode::updateTimeLabel(float)
FUNC 4b5c0 11c 0 RDDailyNode::createBG(cocos2d::CCSize, float)
FUNC 4b6dc 76c 0 RDDailyNode::init(cocos2d::CCSize, std::__ndk1::basic_string<char, std::__ndk1::char_traits<char>, std::__ndk1::allocator<char> >, float)
FUNC 4be48 388 0 RDDailyNode::setupLevelMenu(GJGameLevel*)
FUNC 4c1d0 15c 0 RDDailyNode::onSkipLevel(cocos2d::CCObject*)
FUNC 4c32c 64 0 RDDailyNode::onReload(cocos2d::CCObject*)
FUNC 4c390 44 0 RDDailyNode::onTheSafe(cocos2d::CCObject*)
FUNC 4c3d4 3f0 0 RDDailyNode::onClaimReward(cocos2d::CCObject*)
FUNC 4c7c4 d0 0 geode::Mod::setSavedValue<bool>(std::__ndk1::basic_string_view<char, std::__ndk1::char_traits<char> >, bool const&)
FUNC 4c894 244 0 RDDailyNode::setupBonusMenu(GJGameLevel*)
FUNC 4cad8 a0 0 RDTimelyNode::~RDTimelyNode()
FUNC 4cb78 a8 0 RDDailyNode::~RDDailyNode()
FUNC 4cc20 50 0 geode::Task<geode::utils::web::WebResponse, geode::utils::web::WebProgress>::~Task()
FUNC 4cc70 21c 0 geode::Task<geode::utils::web::WebResponse, geode::utils::web::WebProgress>::setListener(geode::EventListenerProtocol*)
FUNC 4ce8c 4 0 geode::EventListener<geode::Task<geode::utils::web::WebResponse, geode::utils::web::WebProgress> >::getPool() const
FUNC 4ce90 1ac 0 geode::EventListener<geode::Task<geode::utils::web::WebResponse, geode::utils::web::WebProgress> >::handle(geode::Event*)
FUNC 4d03c 8c 0 geode::EventListener<geode::Task<geode::utils::web::WebResponse, geode::utils::web::WebProgress> >::~EventListener()
FUNC 4d0c8 94 0 geode::EventListener<geode::Task<geode::utils::web::WebResponse, geode::utils::web::WebProgress> >::~EventListener()
FUNC 4d15c 50 0 geode::Task<geode::utils::web::WebResponse, geode::utils::web::WebProgress>::setListener(geode::EventListenerProtocol*)::{lambda()#1}::~{lambda()#1}()
FUNC 4d1ac 50 0 geode::Task<geode::utils::web::WebResponse, geode::utils::web::WebProgress>::setListener(geode::EventListenerProtocol*)::{lambda()#2}::~{lambda()#2}()
FUNC 4d1fc 5c 0 std::__ndk1::__function::__func<geode::Task<geode::utils::web::WebResponse, geode::utils::web::WebProgress>::setListener(geode::EventListenerProtocol*)::{lambda()#1}, std::__ndk1::allocator<geode::Task<geode::utils::web::WebResponse, geode::utils::web::WebProgress>::setListener(geode::EventListenerProtocol*)::{lambda()#1}>, void ()>::~__func()
FUNC 4d258 5c 0 std::__ndk1::__function::__func<geode::Task<geode::utils::web::WebResponse, geode::utils::web::WebProgress>::setListener(geode::EventListenerProtocol*)::{lambda()#1}, std::__ndk1::allocator<geode::Task<geode::utils::web::WebResponse, geode::utils::web::WebProgress>::setListener(geode::EventListenerProtocol*)::{lambda()#1}>, void ()>::~__func()
FUNC 4d2b4 58 0 std::__ndk1::__function::__func<geode::Task<geode::utils::web::WebResponse, geode::utils::web::WebProgress>::setListener(geode::EventListenerProtocol*)::{lambda()#1}, std::__ndk1::allocator<geode::Task<geode::utils::web::WebResponse, geode::utils::web::WebProgress>::setListener(geode::EventListenerProtocol*)::{lambda()#1}>, void ()>::__clone() const
FUNC 4d30c 4c 0 std::__ndk1::__function::__func<geode::Task<geode::utils::web::WebResponse, geode::utils::web::WebProgress>::setListener(geode::EventListenerProtocol*)::{lambda()#1}, std::__ndk1::allocator<geode::Task<geode::utils::web::WebResponse, geode::utils::web::WebProgress>::setListener(geode::EventListenerProtocol*)::{lambda()#1}>, void ()>::__clone(std::__ndk1::__function::__base<void ()>*) const
FUNC 4d358 50 0 std::__ndk1::__function::__func<geode::Task<geode::utils::web::WebResponse, geode::utils::web::WebProgress>::setListener(geode::EventListenerProtocol*)::{lambda()#1}, std::__ndk1::allocator<geode::Task<geode::utils::web::WebResponse, geode::utils::web::WebProgress>::setListener(geode::EventListenerProtocol*)::{lambda()#1}>, void ()>::destroy()
FUNC 4d3a8 50 0 std::__ndk1::__function::__func<geode::Task<geode::utils::web::WebResponse, geode::utils::web::WebProgress>::setListener(geode::EventListenerProtocol*)::{lambda()#1}, std::__ndk1::allocator<geode::Task<geode::utils::web::WebResponse, geode::utils::web::WebProgress>::setListener(geode::EventListenerProtocol*)::{lambda()#1}>, void ()>::destroy_deallocate()
FUNC 4d3f8 8 0 std::__ndk1::__function::__func<geode::Task<geode::utils::web::WebResponse, geode::utils::web::WebProgress>::setListener(geode::EventListenerProtocol*)::{lambda()#1}, std::__ndk1::allocator<geode::Task<geode::utils::web::WebResponse, geode::utils::web::WebProgress>::setListener(geode::EventListenerProtocol*)::{lambda()#1}>, void ()>::operator()()
FUNC 4d400 1c 0 std::__ndk1::__function::__func<geode::Task<geode::utils::web::WebResponse, geode::utils::web::WebProgress>::setListener(geode::EventListenerProtocol*)::{lambda()#1}, std::__ndk1::allocator<geode::Task<geode::utils::web::WebResponse, geode::utils::web::WebProgress>::setListener(geode::EventListenerProtocol*)::{lambda()#1}>, void ()>::target(std::type_info const&) const
FUNC 4d41c c 0 std::__ndk1::__function::__func<geode::Task<geode::utils::web::WebResponse, geode::utils::web::WebProgress>::setListener(geode::EventListenerProtocol*)::{lambda()#1}, std::__ndk1::allocator<geode::Task<geode::utils::web::WebResponse, geode::utils::web::WebProgress>::setListener(geode::EventListenerProtocol*)::{lambda()#1}>, void ()>::target_type() const
FUNC 4d428 198 0 geode::Task<geode::utils::web::WebResponse, geode::utils::web::WebProgress>::setListener(geode::EventListenerProtocol*)::{lambda()#1}::operator()() const
FUNC 4d5c0 50 0 geode::Task<geode::utils::web::WebResponse, geode::utils::web::WebProgress>::Event::~Event()
FUNC 4d610 58 0 geode::Task<geode::utils::web::WebResponse, geode::utils::web::WebProgress>::Event::~Event()
FUNC 4d668 5c 0 std::__ndk1::__function::__func<geode::Task<geode::utils::web::WebResponse, geode::utils::web::WebProgress>::setListener(geode::EventListenerProtocol*)::{lambda()#2}, std::__ndk1::allocator<geode::Task<geode::utils::web::WebResponse, geode::utils::web::WebProgress>::setListener(geode::EventListenerProtocol*)::{lambda()#2}>, void ()>::~__func()
FUNC 4d6c4 5c 0 std::__ndk1::__function::__func<geode::Task<geode::utils::web::WebResponse, geode::utils::web::WebProgress>::setListener(geode::EventListenerProtocol*)::{lambda()#2}, std::__ndk1::allocator<geode::Task<geode::utils::web::WebResponse, geode::utils::web::WebProgress>::setListener(geode::EventListenerProtocol*)::{lambda()#2}>, void ()>::~__func()
FUNC 4d720 58 0 std::__ndk1::__function::__func<geode::Task<geode::utils::web::WebResponse, geode::utils::web::WebProgress>::setListener(geode::EventListenerProtocol*)::{lambda()#2}, std::__ndk1::allocator<geode::Task<geode::utils::web::WebResponse, geode::utils::web::WebProgress>::setListener(geode::EventListenerProtocol*)::{lambda()#2}>, void ()>::__clone() const
FUNC 4d778 4c 0 std::__ndk1::__function::__func<geode::Task<geode::utils::web::WebResponse, geode::utils::web::WebProgress>::setListener(geode::EventListenerProtocol*)::{lambda()#2}, std::__ndk1::allocator<geode::Task<geode::utils::web::WebResponse, geode::utils::web::WebProgress>::setListener(geode::EventListenerProtocol*)::{lambda()#2}>, void ()>::__clone(std::__ndk1::__function::__base<void ()>*) const
FUNC 4d7c4 50 0 std::__ndk1::__function::__func<geode::Task<geode::utils::web::WebResponse, geode::utils::web::WebProgress>::setListener(geode::EventListenerProtocol*)::{lambda()#2}, std::__ndk1::allocator<geode::Task<geode::utils::web::WebResponse, geode::utils::web::WebProgress>::setListener(geode::EventListenerProtocol*)::{lambda()#2}>, void ()>::destroy()
FUNC 4d814 50 0 std::__ndk1::__function::__func<geode::Task<geode::utils::web::WebResponse, geode::utils::web::WebProgress>::setListener(geode::EventListenerProtocol*)::{lambda()#2}, std::__ndk1::allocator<geode::Task<geode::utils::web::WebResponse, geode::utils::web::WebProgress>::setListener(geode::EventListenerProtocol*)::{lambda()#2}>, void ()>::destroy_deallocate()
FUNC 4d864 8 0 std::__ndk1::__function::__func<geode::Task<geode::utils::web::WebResponse, geode::utils::web::WebProgress>::setListener(geode::EventListenerProtocol*)::{lambda()#2}, std::__ndk1::allocator<geode::Task<geode::utils::web::WebResponse, geode::utils::web::WebProgress>::setListener(geode::EventListenerProtocol*)::{lambda()#2}>, void ()>::operator()()
FUNC 4d86c 1c 0 std::__ndk1::__function::__func<geode::Task<geode::utils::web::WebResponse, geode::utils::web::WebProgress>::setListener(geode::EventListenerProtocol*)::{lambda()#2}, std::__ndk1::allocator<geode::Task<geode::utils::web::WebResponse, geode::utils::web::WebProgress>::setListener(geode::EventListenerProtocol*)::{lambda()#2}>, void ()>::target(std::type_info const&) const
FUNC 4d888 c 0 std::__ndk1::__function::__func<geode::Task<geode::utils::web::WebResponse, geode::utils::web::WebProgress>::setListener(geode::EventListenerProtocol*)::{lambda()#2}, std::__ndk1::allocator<geode::Task<geode::utils::web::WebResponse, geode::utils::web::WebProgress>::setListener(geode::EventListenerProtocol*)::{lambda()#2}>, void ()>::target_type() const
FUNC 4d894 188 0 geode::Task<geode::utils::web::WebResponse, geode::utils::web::WebProgress>::setListener(geode::EventListenerProtocol*)::{lambda()#2}::operator()() const
FUNC 4da1c 34 0 std::__ndk1::__throw_bad_function_call[abi:ne180000]()
FUNC 4da50 24 0 std::__ndk1::bad_function_call::~bad_function_call()
FUNC 4da74 184 0 geode::Mod::getSavedValue<bool>(std::__ndk1::basic_string_view<char, std::__ndk1::char_traits<char> >)
FUNC 4dbf8 4 0 std::__ndk1::__variant_detail::__visitation::__base::__dispatcher<(unsigned long)0>::__dispatch[abi:ne180000]<std::__ndk1::__variant_detail::__dtor<std::__ndk1::__variant_detail::__traits<bool, std::__ndk1::basic_string<char, std::__ndk1::char_traits<char>, std::__ndk1::allocator<char> > >, (std::__ndk1::__variant_detail::_Trait)1>::__destroy[abi:ne180000]()::{lambda(auto:1&)#1}, std::__ndk1::__variant_detail::__base<(std::__ndk1::__variant_detail::__traits<bool, std::__ndk1::basic_string<char, std::__ndk1::char_traits<char>, std::__ndk1::allocator<char> > >)1, bool, std::__ndk1::allocator<char> >&>(std::__ndk1::__variant_detail::__dtor<std::__ndk1::__variant_detail::__traits<bool, std::__ndk1::basic_string<char, std::__ndk1::char_traits<char>, std::__ndk1::allocator<char> > >, (std::__ndk1::__variant_detail::_Trait)1>, std::__ndk1::__variant_detail::__base<(std::__ndk1::__variant_detail::__traits<bool, std::__ndk1::basic_string<char, std::__ndk1::char_traits<char>, std::__ndk1::allocator<char> > >)1, bool, std::__ndk1::allocator<char> >&)
FUNC 4dbfc 14 0 std::__ndk1::__variant_detail::__visitation::__base::__dispatcher<(unsigned long)1>::__dispatch[abi:ne180000]<std::__ndk1::__variant_detail::__dtor<std::__ndk1::__variant_detail::__traits<bool, std::__ndk1::basic_string<char, std::__ndk1::char_traits<char>, std::__ndk1::allocator<char> > >, (std::__ndk1::__variant_detail::_Trait)1>::__destroy[abi:ne180000]()::{lambda(auto:1&)#1}, std::__ndk1::__variant_detail::__base<(std::__ndk1::__variant_detail::__traits<bool, std::__ndk1::basic_string<char, std::__ndk1::char_traits<char>, std::__ndk1::allocator<char> > >)1, bool, std::__ndk1::allocator<char> >&>(std::__ndk1::__variant_detail::__dtor<std::__ndk1::__variant_detail::__traits<bool, std::__ndk1::basic_string<char, std::__ndk1::char_traits<char>, std::__ndk1::allocator<char> > >, (std::__ndk1::__variant_detail::_Trait)1>, std::__ndk1::__variant_detail::__base<(std::__ndk1::__variant_detail::__traits<bool, std::__ndk1::basic_string<char, std::__ndk1::char_traits<char>, std::__ndk1::allocator<char> > >)1, bool, std::__ndk1::allocator<char> >&)
FUNC 4dc10 4 0 std::__ndk1::__function::__func<RDDailyNode::onSkipLevel(cocos2d::CCObject*)::$_0, std::__ndk1::allocator<RDDailyNode::onSkipLevel(cocos2d::CCObject*)::$_0>, void (FLAlertLayer*, bool)>::~__func()
FUNC 4dc14 34 0 std::__ndk1::__function::__func<RDDailyNode::onSkipLevel(cocos2d::CCObject*)::$_0, std::__ndk1::allocator<RDDailyNode::onSkipLevel(cocos2d::CCObject*)::$_0>, void (FLAlertLayer*, bool)>::__clone() const
FUNC 4dc48 14 0 std::__ndk1::__function::__func<RDDailyNode::onSkipLevel(cocos2d::CCObject*)::$_0, std::__ndk1::allocator<RDDailyNode::onSkipLevel(cocos2d::CCObject*)::$_0>, void (FLAlertLayer*, bool)>::__clone(std::__ndk1::__function::__base<void (FLAlertLayer*, bool)>*) const
FUNC 4dc5c 4 0 std::__ndk1::__function::__func<RDDailyNode::onSkipLevel(cocos2d::CCObject*)::$_0, std::__ndk1::allocator<RDDailyNode::onSkipLevel(cocos2d::CCObject*)::$_0>, void (FLAlertLayer*, bool)>::destroy()
FUNC 4dc60 4 0 std::__ndk1::__function::__func<RDDailyNode::onSkipLevel(cocos2d::CCObject*)::$_0, std::__ndk1::allocator<RDDailyNode::onSkipLevel(cocos2d::CCObject*)::$_0>, void (FLAlertLayer*, bool)>::destroy_deallocate()
FUNC 4dc64 c4 0 std::__ndk1::__function::__func<RDDailyNode::onSkipLevel(cocos2d::CCObject*)::$_0, std::__ndk1::allocator<RDDailyNode::onSkipLevel(cocos2d::CCObject*)::$_0>, void (FLAlertLayer*, bool)>::operator()(FLAlertLayer*&&, bool&&)
FUNC 4dd28 1c 0 std::__ndk1::__function::__func<RDDailyNode::onSkipLevel(cocos2d::CCObject*)::$_0, std::__ndk1::allocator<RDDailyNode::onSkipLevel(cocos2d::CCObject*)::$_0>, void (FLAlertLayer*, bool)>::target(std::type_info const&) const
FUNC 4dd44 c 0 std::__ndk1::__function::__func<RDDailyNode::onSkipLevel(cocos2d::CCObject*)::$_0, std::__ndk1::allocator<RDDailyNode::onSkipLevel(cocos2d::CCObject*)::$_0>, void (FLAlertLayer*, bool)>::target_type() const
FUNC 4dd50 228 0 RDEventNode::create(cocos2d::CCSize, std::__ndk1::basic_string<char, std::__ndk1::char_traits<char>, std::__ndk1::allocator<char> >, float)
FUNC 4df78 140 0 RDEventNode::createBG(cocos2d::CCSize, float)
FUNC 4e0b8 594 0 RDEventNode::init(cocos2d::CCSize, std::__ndk1::basic_string<char, std::__ndk1::char_traits<char>, std::__ndk1::allocator<char> >, float)
FUNC 4e64c 388 0 RDEventNode::setupLevelMenu(GJGameLevel*)
FUNC 4e9d4 15c 0 RDEventNode::onSkipLevel(cocos2d::CCObject*)
FUNC 4eb30 64 0 RDEventNode::onReload(cocos2d::CCObject*)
FUNC 4eb94 44 0 RDEventNode::onTheSafe(cocos2d::CCObject*)
FUNC 4ebd8 228 0 RDEventNode::onClaimReward(cocos2d::CCObject*)
FUNC 4ee00 1b4 0 RDEventNode::setupBonusMenu(GJGameLevel*)
FUNC 4efb4 a8 0 RDEventNode::~RDEventNode()
FUNC 4f05c 4 0 std::__ndk1::__function::__func<RDEventNode::onSkipLevel(cocos2d::CCObject*)::$_0, std::__ndk1::allocator<RDEventNode::onSkipLevel(cocos2d::CCObject*)::$_0>, void (FLAlertLayer*, bool)>::~__func()
FUNC 4f060 34 0 std::__ndk1::__function::__func<RDEventNode::onSkipLevel(cocos2d::CCObject*)::$_0, std::__ndk1::allocator<RDEventNode::onSkipLevel(cocos2d::CCObject*)::$_0>, void (FLAlertLayer*, bool)>::__clone() const
FUNC 4f094 14 0 std::__ndk1::__function::__func<RDEventNode::onSkipLevel(cocos2d::CCObject*)::$_0, std::__ndk1::allocator<RDEventNode::onSkipLevel(cocos2d::CCObject*)::$_0>, void (FLAlertLayer*, bool)>::__clone(std::__ndk1::__function::__base<void (FLAlertLayer*, bool)>*) const
FUNC 4f0a8 4 0 std::__ndk1::__function::__func<RDEventNode::onSkipLevel(cocos2d::CCObject*)::$_0, std::__ndk1::allocator<RDEventNode::onSkipLevel(cocos2d::CCObject*)::$_0>, void (FLAlertLayer*, bool)>::destroy()
FUNC 4f0ac 4 0 std::__ndk1::__function::__func<RDEventNode::onSkipLevel(cocos2d::CCObject*)::$_0, std::__ndk1::allocator<RDEventNode::onSkipLevel(cocos2d::CCObject*)::$_0>, void (FLAlertLayer*, bool)>::destroy_deallocate()
FUNC 4f0b0 c4 0 std::__ndk1::__function::__func<RDEventNode::onSkipLevel(cocos2d::CCObject*)::$_0, std::__ndk1::allocator<RDEventNode::onSkipLevel(cocos2d::CCObject*)::$_0>, void (FLAlertLayer*, bool)>::operator()(FLAlertLayer*&&, bool&&)
FUNC 4f174 1c 0 std::__ndk1::__function::__func<RDEventNode::onSkipLevel(cocos2d::CCObject*)::$_0, std::__ndk1::allocator<RDEventNode::onSkipLevel(cocos2d::CCObject*)::$_0>, void (FLAlertLayer*, bool)>::target(std::type_info const&) const
FUNC 4f190 c 0 std::__ndk1::__function::__func<RDEventNode::onSkipLevel(cocos2d::CCObject*)::$_0, std::__ndk1::allocator<RDEventNode::onSkipLevel(cocos2d::CCObject*)::$_0>, void (FLAlertLayer*, bool)>::target_type() const
FUNC 4f19c 7a4 0 RDTimelyNode::init(cocos2d::CCSize, std::__ndk1::basic_string<char, std::__ndk1::char_traits<char>, std::__ndk1::allocator<char> >, float)
FUNC 4f940 44 0 RDTimelyNode::onView(cocos2d::CCObject*)
FUNC 4f984 34 0 RDTimelyNode::onCreatorLabel(cocos2d::CCObject*)
FUNC 4f9b8 26c 0 RDTimelyNode::downloadLevelFailed()
FUNC 4fc24 c7c 0 RDTimelyNode::setupLevelMenu(GJGameLevel*)
FUNC 508a0 3ec 0 RDTimelyNode::downloadThumbnailFinished(cocos2d::CCImage*)
FUNC 50c8c 4 0 RDTimelyNode::~RDTimelyNode()
FUNC 50c90 1d4 0 fmt::v11::detail::value<fmt::v11::context>::format_custom_arg<gd::string, fmt::v11::formatter<gd::string, char, void> >(void*, fmt::v11::basic_format_parse_context<char>&, fmt::v11::context&)
FUNC 50e64 4a4 0 fmt::v11::detail::parse_format_specs<char>(char const*, char const*, fmt::v11::detail::dynamic_format_specs<char>&, fmt::v11::basic_format_parse_context<char>&, fmt::v11::detail::type)
FUNC 51308 1a4 0 fmt::v11::detail::parse_dynamic_spec<char>(char const*, char const*, int&, fmt::v11::detail::arg_ref<char>&, fmt::v11::basic_format_parse_context<char>&)
FUNC 514ac 17c 0 fmt::v11::detail::do_parse_arg_id<char, fmt::v11::detail::dynamic_spec_id_handler<char>&>(char const*, char const*, fmt::v11::detail::dynamic_spec_id_handler<char>&)
FUNC 51628 114 0 fmt::v11::detail::handle_dynamic_spec<fmt::v11::detail::width_checker, fmt::v11::context>(int&, fmt::v11::detail::arg_ref<fmt::v11::context::char_type>, fmt::v11::context&)
FUNC 5173c 114 0 fmt::v11::detail::handle_dynamic_spec<fmt::v11::detail::precision_checker, fmt::v11::context>(int&, fmt::v11::detail::arg_ref<fmt::v11::context::char_type>, fmt::v11::context&)
FUNC 51850 27c 0 fmt::v11::detail::write<char, fmt::v11::basic_appender<char> >(fmt::v11::basic_appender<char>, fmt::v11::basic_string_view<char>, fmt::v11::format_specs const&)
FUNC 51acc 200 0 fmt::v11::detail::write_escaped_string<char, fmt::v11::detail::counting_iterator>(fmt::v11::detail::counting_iterator, fmt::v11::basic_string_view<char>)
FUNC 51ccc 20c 0 fmt::v11::detail::write_padded<char, (fmt::v11::align::type)1, fmt::v11::basic_appender<char>, fmt::v11::detail::write<char, fmt::v11::basic_appender<char> >(fmt::v11::basic_appender<char>, fmt::v11::basic_string_view<char>, fmt::v11::format_specs const&)::{lambda(fmt::v11::basic_appender<char>)#1}>(fmt::v11::basic_appender<char>, fmt::v11::format_specs const&, unsigned long, unsigned long, fmt::v11::detail::write<char, fmt::v11::basic_appender<char> >(fmt::v11::basic_appender<char>, fmt::v11::basic_string_view<char>, fmt::v11::format_specs const&)::{lambda(fmt::v11::basic_appender<char>&&)#1})
FUNC 51ed8 3ac 0 fmt::v11::detail::for_each_codepoint<fmt::v11::detail::code_point_index(fmt::v11::basic_string_view<char>, unsigned long)::{lambda(unsigned int, fmt::v11::basic_string_view<char>)#1}>(fmt::v11::basic_string_view<char>, fmt::v11::detail::code_point_index(fmt::v11::basic_string_view<char>, unsigned long)::{lambda(unsigned int, fmt::v11::basic_string_view<char>)#1})
FUNC 52284 194 0 fmt::v11::detail::write_escaped_cp<fmt::v11::detail::counting_iterator, char>(fmt::v11::detail::counting_iterator, fmt::v11::detail::find_escape_result<char> const&)
FUNC 52418 17c 0 fmt::v11::detail::for_each_codepoint<fmt::v11::detail::find_escape(char const*, char const*)::{lambda(unsigned int, fmt::v11::basic_string_view<char>)#1}>(fmt::v11::basic_string_view<char>, fmt::v11::detail::find_escape(char const*, char const*)::{lambda(unsigned int, fmt::v11::basic_string_view<char>)#1})::{lambda(char const*, char const*)#1}::operator()(char const*, char const*) const
FUNC 52594 1b8 0 fmt::v11::detail::for_each_codepoint<fmt::v11::detail::compute_width(fmt::v11::basic_string_view<char>)::count_code_points>(fmt::v11::basic_string_view<char>, fmt::v11::detail::compute_width(fmt::v11::basic_string_view<char>)::count_code_points)::{lambda(char const*, char const*)#1}::operator()(char const*, char const*) const
FUNC 5274c 1d0 0 fmt::v11::detail::fill<char, fmt::v11::basic_appender<char> >(fmt::v11::basic_appender<char>, unsigned long, fmt::v11::detail::fill_t const&)
FUNC 5291c 380 0 fmt::v11::detail::write_escaped_string<char, fmt::v11::basic_appender<char> >(fmt::v11::basic_appender<char>, fmt::v11::basic_string_view<char>)
FUNC 52c9c 1e4 0 fmt::v11::detail::write_escaped_cp<fmt::v11::basic_appender<char>, char>(fmt::v11::basic_appender<char>, fmt::v11::detail::find_escape_result<char> const&)
FUNC 52e80 178 0 fmt::v11::detail::write_codepoint<(unsigned long)2, char, fmt::v11::basic_appender<char> >(fmt::v11::basic_appender<char>, char, unsigned int)
FUNC 52ff8 178 0 fmt::v11::detail::write_codepoint<(unsigned long)4, char, fmt::v11::basic_appender<char> >(fmt::v11::basic_appender<char>, char, unsigned int)
FUNC 53170 178 0 fmt::v11::detail::write_codepoint<(unsigned long)8, char, fmt::v11::basic_appender<char> >(fmt::v11::basic_appender<char>, char, unsigned int)
FUNC 532e8 94 0 fmt::v11::detail::get_dynamic_spec<fmt::v11::detail::width_checker, fmt::v11::basic_format_arg<fmt::v11::context> >(fmt::v11::basic_format_arg<fmt::v11::context>)
FUNC 5337c 158 0 fmt::v11::basic_format_args<fmt::v11::context>::get<char>(fmt::v11::basic_string_view<char>) const
FUNC 534d4 94 0 fmt::v11::detail::get_dynamic_spec<fmt::v11::detail::precision_checker, fmt::v11::basic_format_arg<fmt::v11::context> >(fmt::v11::basic_format_arg<fmt::v11::context>)
FUNC 53568 4 0 std::__ndk1::__function::__base<void (geode::Task<geode::utils::web::WebResponse, geode::utils::web::WebProgress>::Event*)>::~__base()
FUNC 5356c 4 0 std::__ndk1::__function::__func<RDTimelyNode::setupLevelMenu(GJGameLevel*)::$_0, std::__ndk1::allocator<RDTimelyNode::setupLevelMenu(GJGameLevel*)::$_0>, void (geode::Task<geode::utils::web::WebResponse, geode::utils::web::WebProgress>::Event*)>::~__func()
FUNC 53570 34 0 std::__ndk1::__function::__func<RDTimelyNode::setupLevelMenu(GJGameLevel*)::$_0, std::__ndk1::allocator<RDTimelyNode::setupLevelMenu(GJGameLevel*)::$_0>, void (geode::Task<geode::utils::web::WebResponse, geode::utils::web::WebProgress>::Event*)>::__clone() const
FUNC 535a4 14 0 std::__ndk1::__function::__func<RDTimelyNode::setupLevelMenu(GJGameLevel*)::$_0, std::__ndk1::allocator<RDTimelyNode::setupLevelMenu(GJGameLevel*)::$_0>, void (geode::Task<geode::utils::web::WebResponse, geode::utils::web::WebProgress>::Event*)>::__clone(std::__ndk1::__function::__base<void (geode::Task<geode::utils::web::WebResponse, geode::utils::web::WebProgress>::Event*)>*) const
FUNC 535b8 4 0 std::__ndk1::__function::__func<RDTimelyNode::setupLevelMenu(GJGameLevel*)::$_0, std::__ndk1::allocator<RDTimelyNode::setupLevelMenu(GJGameLevel*)::$_0>, void (geode::Task<geode::utils::web::WebResponse, geode::utils::web::WebProgress>::Event*)>::destroy()
FUNC 535bc 4 0 std::__ndk1::__function::__func<RDTimelyNode::setupLevelMenu(GJGameLevel*)::$_0, std::__ndk1::allocator<RDTimelyNode::setupLevelMenu(GJGameLevel*)::$_0>, void (geode::Task<geode::utils::web::WebResponse, geode::utils::web::WebProgress>::Event*)>::destroy_deallocate()
FUNC 535c0 2a4 0 std::__ndk1::__function::__func<RDTimelyNode::setupLevelMenu(GJGameLevel*)::$_0, std::__ndk1::allocator<RDTimelyNode::setupLevelMenu(GJGameLevel*)::$_0>, void (geode::Task<geode::utils::web::WebResponse, geode::utils::web::WebProgress>::Event*)>::operator()(geode::Task<geode::utils::web::WebResponse, geode::utils::web::WebProgress>::Event*&&)
FUNC 53864 1c 0 std::__ndk1::__function::__func<RDTimelyNode::setupLevelMenu(GJGameLevel*)::$_0, std::__ndk1::allocator<RDTimelyNode::setupLevelMenu(GJGameLevel*)::$_0>, void (geode::Task<geode::utils::web::WebResponse, geode::utils::web::WebProgress>::Event*)>::target(std::type_info const&) const
FUNC 53880 c 0 std::__ndk1::__function::__func<RDTimelyNode::setupLevelMenu(GJGameLevel*)::$_0, std::__ndk1::allocator<RDTimelyNode::setupLevelMenu(GJGameLevel*)::$_0>, void (geode::Task<geode::utils::web::WebResponse, geode::utils::web::WebProgress>::Event*)>::target_type() const
FUNC 5388c 14 0 std::__ndk1::vector<unsigned char, std::__ndk1::allocator<unsigned char> >::__throw_length_error[abi:ne180000]() const
FUNC 538a0 2a0 0 std::__ndk1::__thread_proxy[abi:ne180000]<std::__ndk1::tuple<std::__ndk1::unique_ptr<std::__ndk1::__thread_struct, std::__ndk1::default_delete<std::__ndk1::unique_ptr> >, RDTimelyNode::setupLevelMenu(GJGameLevel*)::$_0::operator()(geode::Task<$_0::utils::web::WebResponse, $_0::utils::WebProgress>::Event*) const::{lambda()#1}> >(std::__ndk1::tuple<std::__ndk1::unique_ptr<std::__ndk1::__thread_struct, std::__ndk1::default_delete<std::__ndk1::unique_ptr> >, RDTimelyNode::setupLevelMenu(GJGameLevel*)::$_0::operator()(geode::Task<$_0::utils::web::WebResponse, $_0::utils::WebProgress>::Event*) const::{lambda()#1}>)
FUNC 53b40 60 0 std::__ndk1::unique_ptr<std::__ndk1::tuple<std::__ndk1::unique_ptr<std::__ndk1::__thread_struct, std::__ndk1::default_delete<std::__ndk1::__thread_struct> >, RDTimelyNode::setupLevelMenu(GJGameLevel*)::$_0::operator()(geode::Task<geode::utils::web::WebResponse, geode::utils::web::WebProgress>::Event*) const::{lambda()#1}>, std::__ndk1::default_delete<std::__ndk1::tuple<std::__ndk1::unique_ptr<std::__ndk1::__thread_struct, std::__ndk1::default_delete<std::__ndk1::__thread_struct> >, RDTimelyNode::setupLevelMenu(GJGameLevel*)::$_0::operator()(geode::Task<geode::utils::web::WebResponse, geode::utils::web::WebProgress>::Event*) const::{lambda()#1}> > >::~unique_ptr[abi:ne180000]()
FUNC 53ba0 3c 0 std::__ndk1::unique_ptr<std::__ndk1::__thread_struct, std::__ndk1::default_delete<std::__ndk1::__thread_struct> >::~unique_ptr[abi:ne180000]()
FUNC 53bdc 20 0 RDTimelyNode::setupLevelMenu(GJGameLevel*)::$_0::operator()(geode::Task<geode::utils::web::WebResponse, geode::utils::web::WebProgress>::Event*) const::{lambda()#1}::operator()() const::{lambda()#1}::~{lambda()#1}()
FUNC 53bfc 20 0 geode::Ref<cocos2d::CCImage>::~Ref()
FUNC 53c1c 30 0 std::__ndk1::__function::__func<RDTimelyNode::setupLevelMenu(GJGameLevel*)::$_0::operator()(geode::Task<geode::utils::web::WebResponse, geode::utils::web::WebProgress>::Event*) const::{lambda()#1}::operator()() const::{lambda()#1}, std::__ndk1::allocator<RDTimelyNode::setupLevelMenu(GJGameLevel*)::$_0::operator()(geode::Task<geode::utils::web::WebResponse, geode::utils::web::WebProgress>::Event*) const::{lambda()#1}::operator()() const::{lambda()#1}>, void ()>::~__func()
FUNC 53c4c 3c 0 std::__ndk1::__function::__func<RDTimelyNode::setupLevelMenu(GJGameLevel*)::$_0::operator()(geode::Task<geode::utils::web::WebResponse, geode::utils::web::WebProgress>::Event*) const::{lambda()#1}::operator()() const::{lambda()#1}, std::__ndk1::allocator<RDTimelyNode::setupLevelMenu(GJGameLevel*)::$_0::operator()(geode::Task<geode::utils::web::WebResponse, geode::utils::web::WebProgress>::Event*) const::{lambda()#1}::operator()() const::{lambda()#1}>, void ()>::~__func()
FUNC 53c88 5c 0 std::__ndk1::__function::__func<RDTimelyNode::setupLevelMenu(GJGameLevel*)::$_0::operator()(geode::Task<geode::utils::web::WebResponse, geode::utils::web::WebProgress>::Event*) const::{lambda()#1}::operator()() const::{lambda()#1}, std::__ndk1::allocator<RDTimelyNode::setupLevelMenu(GJGameLevel*)::$_0::operator()(geode::Task<geode::utils::web::WebResponse, geode::utils::web::WebProgress>::Event*) const::{lambda()#1}::operator()() const::{lambda()#1}>, void ()>::__clone() const
FUNC 53ce4 20 0 std::__ndk1::__function::__func<RDTimelyNode::setupLevelMenu(GJGameLevel*)::$_0::operator()(geode::Task<geode::utils::web::WebResponse, geode::utils::web::WebProgress>::Event*) const::{lambda()#1}::operator()() const::{lambda()#1}, std::__ndk1::allocator<RDTimelyNode::setupLevelMenu(GJGameLevel*)::$_0::operator()(geode::Task<geode::utils::web::WebResponse, geode::utils::web::WebProgress>::Event*) const::{lambda()#1}::operator()() const::{lambda()#1}>, void ()>::__clone(std::__ndk1::__function::__base<void ()>*) const
FUNC 53d04 20 0 std::__ndk1::__function::__func<RDTimelyNode::setupLevelMenu(GJGameLevel*)::$_0::operator()(geode::Task<geode::utils::web::WebResponse, geode::utils::web::WebProgress>::Event*) const::{lambda()#1}::operator()() const::{lambda()#1}, std::__ndk1::allocator<RDTimelyNode::setupLevelMenu(GJGameLevel*)::$_0::operator()(geode::Task<geode::utils::web::WebResponse, geode::utils::web::WebProgress>::Event*) const::{lambda()#1}::operator()() const::{lambda()#1}>, void ()>::destroy()
FUNC 53d24 30 0 std::__ndk1::__function::__func<RDTimelyNode::setupLevelMenu(GJGameLevel*)::$_0::operator()(geode::Task<geode::utils::web::WebResponse, geode::utils::web::WebProgress>::Event*) const::{lambda()#1}::operator()() const::{lambda()#1}, std::__ndk1::allocator<RDTimelyNode::setupLevelMenu(GJGameLevel*)::$_0::operator()(geode::Task<geode::utils::web::WebResponse, geode::utils::web::WebProgress>::Event*) const::{lambda()#1}::operator()() const::{lambda()#1}>, void ()>::destroy_deallocate()
FUNC 53d54 c 0 std::__ndk1::__function::__func<RDTimelyNode::setupLevelMenu(GJGameLevel*)::$_0::operator()(geode::Task<geode::utils::web::WebResponse, geode::utils::web::WebProgress>::Event*) const::{lambda()#1}::operator()() const::{lambda()#1}, std::__ndk1::allocator<RDTimelyNode::setupLevelMenu(GJGameLevel*)::$_0::operator()(geode::Task<geode::utils::web::WebResponse, geode::utils::web::WebProgress>::Event*) const::{lambda()#1}::operator()() const::{lambda()#1}>, void ()>::operator()()
FUNC 53d60 1c 0 std::__ndk1::__function::__func<RDTimelyNode::setupLevelMenu(GJGameLevel*)::$_0::operator()(geode::Task<geode::utils::web::WebResponse, geode::utils::web::WebProgress>::Event*) const::{lambda()#1}::operator()() const::{lambda()#1}, std::__ndk1::allocator<RDTimelyNode::setupLevelMenu(GJGameLevel*)::$_0::operator()(geode::Task<geode::utils::web::WebResponse, geode::utils::web::WebProgress>::Event*) const::{lambda()#1}::operator()() const::{lambda()#1}>, void ()>::target(std::type_info const&) const
FUNC 53d7c c 0 std::__ndk1::__function::__func<RDTimelyNode::setupLevelMenu(GJGameLevel*)::$_0::operator()(geode::Task<geode::utils::web::WebResponse, geode::utils::web::WebProgress>::Event*) const::{lambda()#1}::operator()() const::{lambda()#1}, std::__ndk1::allocator<RDTimelyNode::setupLevelMenu(GJGameLevel*)::$_0::operator()(geode::Task<geode::utils::web::WebResponse, geode::utils::web::WebProgress>::Event*) const::{lambda()#1}::operator()() const::{lambda()#1}>, void ()>::target_type() const
FUNC 53d88 1f4 0 RDWeeklyNode::create(cocos2d::CCSize, std::__ndk1::basic_string<char, std::__ndk1::char_traits<char>, std::__ndk1::allocator<char> >, float)
FUNC 53f7c 240 0 RDWeeklyNode::updateTimeLabel(float)
FUNC 541bc 11c 0 RDWeeklyNode::createBG(cocos2d::CCSize, float)
FUNC 542d8 76c 0 RDWeeklyNode::init(cocos2d::CCSize, std::__ndk1::basic_string<char, std::__ndk1::char_traits<char>, std::__ndk1::allocator<char> >, float)
FUNC 54a44 388 0 RDWeeklyNode::setupLevelMenu(GJGameLevel*)
FUNC 54dcc 15c 0 RDWeeklyNode::onSkipLevel(cocos2d::CCObject*)
FUNC 54f28 64 0 RDWeeklyNode::onReload(cocos2d::CCObject*)
FUNC 54f8c 44 0 RDWeeklyNode::onTheSafe(cocos2d::CCObject*)
FUNC 54fd0 228 0 RDWeeklyNode::onClaimReward(cocos2d::CCObject*)
FUNC 551f8 1b4 0 RDWeeklyNode::setupBonusMenu(GJGameLevel*)
FUNC 553ac a8 0 RDWeeklyNode::~RDWeeklyNode()
FUNC 55454 4 0 std::__ndk1::__function::__func<RDWeeklyNode::onSkipLevel(cocos2d::CCObject*)::$_0, std::__ndk1::allocator<RDWeeklyNode::onSkipLevel(cocos2d::CCObject*)::$_0>, void (FLAlertLayer*, bool)>::~__func()
FUNC 55458 34 0 std::__ndk1::__function::__func<RDWeeklyNode::onSkipLevel(cocos2d::CCObject*)::$_0, std::__ndk1::allocator<RDWeeklyNode::onSkipLevel(cocos2d::CCObject*)::$_0>, void (FLAlertLayer*, bool)>::__clone() const
FUNC 5548c 14 0 std::__ndk1::__function::__func<RDWeeklyNode::onSkipLevel(cocos2d::CCObject*)::$_0, std::__ndk1::allocator<RDWeeklyNode::onSkipLevel(cocos2d::CCObject*)::$_0>, void (FLAlertLayer*, bool)>::__clone(std::__ndk1::__function::__base<void (FLAlertLayer*, bool)>*) const
FUNC 554a0 4 0 std::__ndk1::__function::__func<RDWeeklyNode::onSkipLevel(cocos2d::CCObject*)::$_0, std::__ndk1::allocator<RDWeeklyNode::onSkipLevel(cocos2d::CCObject*)::$_0>, void (FLAlertLayer*, bool)>::destroy()
FUNC 554a4 4 0 std::__ndk1::__function::__func<RDWeeklyNode::onSkipLevel(cocos2d::CCObject*)::$_0, std::__ndk1::allocator<RDWeeklyNode::onSkipLevel(cocos2d::CCObject*)::$_0>, void (FLAlertLayer*, bool)>::destroy_deallocate()
FUNC 554a8 c4 0 std::__ndk1::__function::__func<RDWeeklyNode::onSkipLevel(cocos2d::CCObject*)::$_0, std::__ndk1::allocator<RDWeeklyNode::onSkipLevel(cocos2d::CCObject*)::$_0>, void (FLAlertLayer*, bool)>::operator()(FLAlertLayer*&&, bool&&)
FUNC 5556c 1c 0 std::__ndk1::__function::__func<RDWeeklyNode::onSkipLevel(cocos2d::CCObject*)::$_0, std::__ndk1::allocator<RDWeeklyNode::onSkipLevel(cocos2d::CCObject*)::$_0>, void (FLAlertLayer*, bool)>::target(std::type_info const&) const
FUNC 55588 c 0 std::__ndk1::__function::__func<RDWeeklyNode::onSkipLevel(cocos2d::CCObject*)::$_0, std::__ndk1::allocator<RDWeeklyNode::onSkipLevel(cocos2d::CCObject*)::$_0>, void (FLAlertLayer*, bool)>::target_type() const
FUNC 55594 30 0 geodeImplicitEntry
FUNC 555c4 4c 0 std::__ndk1::unordered_map<void*, bool, std::__ndk1::hash<void*>, std::__ndk1::equal_to<void*>, std::__ndk1::allocator<std::__ndk1::pair<void* const, bool> > >::~unordered_map[abi:ne180000]()
FUNC 55610 134 0 wrapFunction(unsigned long, tulip::hook::WrapperMetadata const&)
FUNC 55744 78 0 geode::impl::ResultData<void*, std::__ndk1::basic_string<char, std::__ndk1::char_traits<char>, std::__ndk1::allocator<char> > >::unwrapErr() &
FUNC 557bc 74 0 geode::impl::ResultData<void*, std::__ndk1::basic_string<char, std::__ndk1::char_traits<char>, std::__ndk1::allocator<char> > >::~ResultData()
FUNC 55830 64 0 tulip::hook::WrapperMetadata::~WrapperMetadata()
FUNC 55894 224 0 cocos2d::CCObject::CCObject()
FUNC 55ab8 24 0 cocos2d::CCObject::~CCObject()
FUNC 55adc 25c 0 cocos2d::CCNode::CCNode()
FUNC 55d38 24 0 cocos2d::CCNode::~CCNode()
FUNC 55d5c 26c 0 cocos2d::CCNodeRGBA::CCNodeRGBA()
FUNC 55fc8 24 0 cocos2d::CCNodeRGBA::~CCNodeRGBA()
FUNC 55fec 278 0 cocos2d::CCTexture2D::~CCTexture2D()
FUNC 56264 24 0 cocos2d::CCTexture2D::~CCTexture2D()
FUNC 56288 22c 0 cocos2d::CCTexture2D::CCTexture2D()
FUNC 564b4 224 0 cocos2d::CCImage::CCImage()
FUNC 566d8 270 0 cocos2d::CCImage::~CCImage()
FUNC 56948 24 0 cocos2d::CCImage::~CCImage()
FUNC 5696c 160 0 cocos2d::CCDictionary::setObject(cocos2d::CCObject*, gd::string const&)
FUNC 56acc f8 0 tulip::hook::AbstractFunction::from<void, cocos2d::CCDictionary*, cocos2d::CCObject*, gd::string const&>(void (*)(cocos2d::CCDictionary*, cocos2d::CCObject*, gd::string const&))
FUNC 56bc4 150 0 cocos2d::CCDictionary::objectForKey(gd::string const&)
FUNC 56d14 a8 0 tulip::hook::AbstractFunction::from<cocos2d::CCObject*, cocos2d::CCDictionary*, gd::string const&>(cocos2d::CCObject* (*)(cocos2d::CCDictionary*, gd::string const&))
FUNC 56dbc 24 0 cocos2d::CCMenuItem::~CCMenuItem()
FUNC 56de0 2c0 0 cocos2d::CCNodeRGBA::~CCNodeRGBA()
FUNC 570a0 ac 0 CCMenuItemSpriteExtra::CCMenuItemSpriteExtra()
FUNC 5714c 2c8 0 cocos2d::CCMenuItem::~CCMenuItem()
FUNC 57414 44 0 CCMenuItemSpriteExtra::~CCMenuItemSpriteExtra()
FUNC 57458 4c 0 CCMenuItemSpriteExtra::~CCMenuItemSpriteExtra()
FUNC 574a4 178 0 FMODAudioEngine::playEffect(gd::string)
FUNC 5761c a4 0 tulip::hook::AbstractFunction::from<void, FMODAudioEngine*, gd::string>(void (*)(FMODAudioEngine*, gd::string))
FUNC 576c0 180 0 GameLevelManager::responseToDict(gd::string, bool)
FUNC 57840 a4 0 tulip::hook::AbstractFunction::from<cocos2d::CCDictionary*, gd::string, bool>(cocos2d::CCDictionary* (*)(gd::string, bool))
FUNC 578e4 fc 0 tulip::hook::AbstractFunction::from<void, GameLevelManager*, gd::string, gd::string>(void (*)(GameLevelManager*, gd::string, gd::string))
FUNC 579e0 1a4 0 GameLevelManager::onGetGJChallengesCompleted(gd::string, gd::string)
FUNC 57b84 1a4 0 GameLevelManager::onGetGJDailyLevelStateCompleted(gd::string, gd::string)
FUNC 57d28 1a4 0 GameLevelManager::onGetLeaderboardScoresCompleted(gd::string, gd::string)
FUNC 57ecc 1ac 0 GameLevelManager::processOnDownloadLevelCompleted(gd::string, gd::string, bool)
FUNC 58078 2a8 0 tulip::hook::AbstractFunction::from<void, GameLevelManager*, gd::string, gd::string, bool>(void (*)(GameLevelManager*, gd::string, gd::string, bool))
FUNC 58320 2a8 0 cocos2d::CCNode::~CCNode()
FUNC 585c8 4c4 0 cocos2d::CCObject::~CCObject()
FUNC 58a8c 154 0 _ZN5geode15UnwrapExceptionC2IRPvQsr4implE18IsStringStreamableIT_EEENS_4impl5OkTagEOS4_
FUNC 58be0 4 0 std::__ndk1::__variant_detail::__visitation::__base::__dispatcher<(unsigned long)0>::__dispatch[abi:ne180000]<std::__ndk1::__variant_detail::__dtor<std::__ndk1::__variant_detail::__traits<void*, std::__ndk1::basic_string<char, std::__ndk1::char_traits<char>, std::__ndk1::allocator<char> > >, (std::__ndk1::__variant_detail::_Trait)1>::__destroy[abi:ne180000]()::{lambda(auto:1&)#1}, std::__ndk1::__variant_detail::__base<(std::__ndk1::__variant_detail::__traits<void*, std::__ndk1::basic_string<char, std::__ndk1::char_traits<char>, std::__ndk1::allocator<char> > >)1, std::__ndk1::__variant_detail::__traits, std::__ndk1::allocator<char> >&>(std::__ndk1::__variant_detail::__dtor<std::__ndk1::__variant_detail::__traits<void*, std::__ndk1::basic_string<char, std::__ndk1::char_traits<char>, std::__ndk1::allocator<char> > >, (std::__ndk1::__variant_detail::_Trait)1>, std::__ndk1::__variant_detail::__base<(std::__ndk1::__variant_detail::__traits<void*, std::__ndk1::basic_string<char, std::__ndk1::char_traits<char>, std::__ndk1::allocator<char> > >)1, std::__ndk1::__variant_detail::__traits, std::__ndk1::allocator<char> >&)
FUNC 58be4 14 0 std::__ndk1::__variant_detail::__visitation::__base::__dispatcher<(unsigned long)1>::__dispatch[abi:ne180000]<std::__ndk1::__variant_detail::__dtor<std::__ndk1::__variant_detail::__traits<void*, std::__ndk1::basic_string<char, std::__ndk1::char_traits<char>, std::__ndk1::allocator<char> > >, (std::__ndk1::__variant_detail::_Trait)1>::__destroy[abi:ne180000]()::{lambda(auto:1&)#1}, std::__ndk1::__variant_detail::__base<(std::__ndk1::__variant_detail::__traits<void*, std::__ndk1::basic_string<char, std::__ndk1::char_traits<char>, std::__ndk1::allocator<char> > >)1, std::__ndk1::__variant_detail::__traits, std::__ndk1::allocator<char> >&>(std::__ndk1::__variant_detail::__dtor<std::__ndk1::__variant_detail::__traits<void*, std::__ndk1::basic_string<char, std::__ndk1::char_traits<char>, std::__ndk1::allocator<char> > >, (std::__ndk1::__variant_detail::_Trait)1>, std::__ndk1::__variant_detail::__base<(std::__ndk1::__variant_detail::__traits<void*, std::__ndk1::basic_string<char, std::__ndk1::char_traits<char>, std::__ndk1::allocator<char> > >)1, std::__ndk1::__variant_detail::__traits, std::__ndk1::allocator<char> >&)
FUNC 58bf8 43c 0 std::__ndk1::__hash_table<std::__ndk1::__hash_value_type<void*, bool>, std::__ndk1::__unordered_map_hasher<void*, std::__ndk1::__hash_value_type<void*, bool>, std::__ndk1::hash<void*>, std::__ndk1::equal_to<void*>, true>, std::__ndk1::__unordered_map_equal<void*, std::__ndk1::__hash_value_type<void*, bool>, std::__ndk1::equal_to<void*>, std::__ndk1::hash<void*>, true>, std::__ndk1::allocator<std::__ndk1::__hash_value_type<void*, bool> > >::__emplace_unique_key_args<void*, std::__ndk1::piecewise_construct_t const&, std::__ndk1::tuple<void* const&>, std::__ndk1::tuple<> >(void* const&, std::__ndk1::piecewise_construct_t const&, std::__ndk1::tuple<void* const&>, std::__ndk1::tuple<>)
PUBLIC 59034 0 __udivti3
PUBLIC 59040 0 __udivmodti4
PUBLIC m 5928c 0 __eqtf2
PUBLIC 5932c 0 __unordtf2
FUNC 59364 294 0 fmt::v11::detail::write_loc(fmt::v11::basic_appender<char>, fmt::v11::loc_value, fmt::v11::format_specs const&, fmt::v11::detail::locale_ref)
FUNC 595f8 70 0 fmt::v11::format_facet<std::__ndk1::locale>::~format_facet()
FUNC 59668 50 0 fmt::v11::report_error(char const*)
FUNC 596b8 2c 0 fmt::v11::format_error::runtime_error(char const*)
FUNC 596e4 750 0 fmt::v11::format_facet<std::__ndk1::locale>::do_put(fmt::v11::basic_appender<char>, fmt::v11::loc_value, fmt::v11::format_specs const&) const
FUNC 59e34 64 0 fmt::v11::detail::loc_writer<char>::~loc_writer()
FUNC 59e98 12c 0 fmt::v11::vformat(fmt::v11::basic_string_view<char>, fmt::v11::basic_format_args<fmt::v11::context>)
FUNC 59fc4 3c8 0 fmt::v11::detail::vformat_to<char>(fmt::v11::detail::buffer<char>&, fmt::v11::basic_string_view<char>, fmt::v11::detail::vformat_args<char>::type, fmt::v11::detail::locale_ref)
FUNC 5a38c 228 0 fmt::v11::detail::is_printable(unsigned int)
FUNC 5a5b4 2b4 0 fmt::v11::detail::dragonbox::to_decimal<float>(float)
FUNC 5a868 530 0 fmt::v11::detail::dragonbox::to_decimal<double>(double)
FUNC 5ad98 78 0 fmt::v11::basic_memory_buffer<char, (unsigned long)500, std::__ndk1::allocator<char> >::grow(fmt::v11::detail::buffer<char>&, unsigned long)
FUNC 5ae10 78 0 fmt::v11::format_facet<std::__ndk1::locale>::~format_facet()
FUNC 5ae88 24 0 fmt::v11::format_error::~format_error()
FUNC 5aeac 150 0 fmt::v11::detail::copy_noinline<char, char const*, fmt::v11::basic_appender<char> >(char const*, char const*, fmt::v11::basic_appender<char>)
FUNC 5affc 6c 0 fmt::v11::detail::default_arg_formatter<char>::operator()<bool>(bool)
FUNC 5b068 74 0 fmt::v11::detail::default_arg_formatter<char>::operator()<char>(char)
FUNC 5b0dc f0 0 fmt::v11::detail::default_arg_formatter<char>::operator()<float>(float)
FUNC 5b1cc f0 0 fmt::v11::detail::default_arg_formatter<char>::operator()<double>(double)
FUNC 5b2bc 48 0 fmt::v11::detail::default_arg_formatter<char>::operator()<char const*>(char const*)
FUNC 5b304 9c 0 fmt::v11::detail::default_arg_formatter<char>::operator()<void const*>(void const*)
FUNC 5b3a0 220 0 _ZN3fmt3v116detail5writeIcNS0_14basic_appenderIcEEiTnNSt6__ndk19enable_ifIXaaaasr11is_integralIT1_EE5valuentsr3std7is_sameIS7_bEE5valuentsr3std7is_sameIS7_T_EE5valueEiE4typeELi0EEET0_SB_S7_
FUNC 5b5c0 150 0 fmt::v11::detail::copy_noinline<char, char*, fmt::v11::basic_appender<char> >(char*, char*, fmt::v11::basic_appender<char>)
FUNC 5b710 1c4 0 _ZN3fmt3v116detail5writeIcNS0_14basic_appenderIcEEjTnNSt6__ndk19enable_ifIXaaaasr11is_integralIT1_EE5valuentsr3std7is_sameIS7_bEE5valuentsr3std7is_sameIS7_T_EE5valueEiE4typeELi0EEET0_SB_S7_
FUNC 5b8d4 244 0 _ZN3fmt3v116detail5writeIcNS0_14basic_appenderIcEExTnNSt6__ndk19enable_ifIXaaaasr11is_integralIT1_EE5valuentsr3std7is_sameIS7_bEE5valuentsr3std7is_sameIS7_T_EE5valueEiE4typeELi0EEET0_SB_S7_
FUNC 5bb18 1ec 0 _ZN3fmt3v116detail5writeIcNS0_14basic_appenderIcEEyTnNSt6__ndk19enable_ifIXaaaasr11is_integralIT1_EE5valuentsr3std7is_sameIS7_bEE5valuentsr3std7is_sameIS7_T_EE5valueEiE4typeELi0EEET0_SB_S7_
FUNC 5bd04 304 0 _ZN3fmt3v116detail5writeIcNS0_14basic_appenderIcEEnTnNSt6__ndk19enable_ifIXaaaasr11is_integralIT1_EE5valuentsr3std7is_sameIS7_bEE5valuentsr3std7is_sameIS7_T_EE5valueEiE4typeELi0EEET0_SB_S7_
FUNC 5c008 2a4 0 _ZN3fmt3v116detail5writeIcNS0_14basic_appenderIcEEoTnNSt6__ndk19enable_ifIXaaaasr11is_integralIT1_EE5valuentsr3std7is_sameIS7_bEE5valuentsr3std7is_sameIS7_T_EE5valueEiE4typeELi0EEET0_SB_S7_
FUNC 5c2ac 2b4 0 _ZN3fmt3v116detail5writeIcNS0_14basic_appenderIcEEbTnNSt6__ndk19enable_ifIXsr3std7is_sameIT1_bEE5valueEiE4typeELi0EEET0_SA_S7_RKNS0_12format_specsENS1_10locale_refE
FUNC 5c560 dd4 0 fmt::v11::detail::write_int_noinline<char, fmt::v11::basic_appender<char>, unsigned int>(fmt::v11::basic_appender<char>, fmt::v11::detail::write_int_arg<unsigned int>, fmt::v11::format_specs const&, fmt::v11::detail::locale_ref)
FUNC 5d334 254 0 fmt::v11::detail::write_padded<char, (fmt::v11::align::type)1, fmt::v11::basic_appender<char>, fmt::v11::detail::write_char<char, fmt::v11::basic_appender<char> >(fmt::v11::basic_appender<char>, char, fmt::v11::format_specs const&)::{lambda(fmt::v11::basic_appender<char>&)#1}>(fmt::v11::basic_appender<char>, fmt::v11::format_specs const&, unsigned long, unsigned long, fmt::v11::detail::write_char<char, fmt::v11::basic_appender<char> >(fmt::v11::basic_appender<char>, char, fmt::v11::format_specs const&)::{lambda(fmt::v11::basic_appender<char>&)#1})
FUNC 5d588 258 0 fmt::v11::detail::write_padded<char, (fmt::v11::align::type)1, fmt::v11::basic_appender<char>, fmt::v11::detail::write_nonfinite<char, fmt::v11::basic_appender<char> >(fmt::v11::basic_appender<char>, bool, fmt::v11::format_specs, fmt::v11::sign::type)::{lambda(fmt::v11::basic_appender<char>&)#1}>(fmt::v11::basic_appender<char>, fmt::v11::format_specs const&, unsigned long, unsigned long, fmt::v11::detail::write_nonfinite<char, fmt::v11::basic_appender<char> >(fmt::v11::basic_appender<char>, bool, fmt::v11::format_specs, fmt::v11::sign::type)::{lambda(fmt::v11::basic_appender<char>&)#1})
FUNC 5d7e0 c3c 0 fmt::v11::detail::do_write_float<char, fmt::v11::basic_appender<char>, fmt::v11::detail::dragonbox::decimal_fp<float>, fmt::v11::detail::digit_grouping<char> >(fmt::v11::basic_appender<char>, fmt::v11::detail::dragonbox::decimal_fp<float> const&, fmt::v11::format_specs const&, fmt::v11::detail::float_specs, fmt::v11::detail::locale_ref)
FUNC 5e41c 154 0 fmt::v11::detail::do_write_float<char, fmt::v11::basic_appender<char>, fmt::v11::detail::dragonbox::decimal_fp<float>, fmt::v11::detail::digit_grouping<char> >(fmt::v11::basic_appender<char>, fmt::v11::detail::dragonbox::decimal_fp<float> const&, fmt::v11::format_specs const&, fmt::v11::detail::float_specs, fmt::v11::detail::locale_ref)::{lambda(fmt::v11::basic_appender<char>(fmt::v11::basic_appender<char>))#1}::operator() const
FUNC 5e570 238 0 fmt::v11::detail::digit_grouping<char>::digit_grouping(fmt::v11::detail::locale_ref, bool)
FUNC 5e7a8 44 0 fmt::v11::detail::digit_grouping<char>::~digit_grouping()
FUNC 5e7ec 1a4 0 fmt::v11::detail::write_exponent<char, fmt::v11::basic_appender<char> >(int, fmt::v11::basic_appender<char>)
FUNC 5e990 17c 0 _ZN3fmt3v116detail17write_significandIcjTnNSt6__ndk19enable_ifIXsr3std11is_integralIT0_EE5valueEiE4typeELi0EEEPT_S9_S5_iiS8_
FUNC 5eb0c 3a4 0 fmt::v11::detail::digit_grouping<char>::apply<fmt::v11::basic_appender<char>, char>(fmt::v11::basic_appender<char>, fmt::v11::basic_string_view<char>) const
FUNC 5eeb0 a0 0 fmt::v11::basic_memory_buffer<int, (unsigned long)500, std::__ndk1::allocator<int> >::grow(fmt::v11::detail::buffer<int>&, unsigned long)
FUNC 5ef50 c78 0 fmt::v11::detail::do_write_float<char, fmt::v11::basic_appender<char>, fmt::v11::detail::dragonbox::decimal_fp<double>, fmt::v11::detail::digit_grouping<char> >(fmt::v11::basic_appender<char>, fmt::v11::detail::dragonbox::decimal_fp<double> const&, fmt::v11::format_specs const&, fmt::v11::detail::float_specs, fmt::v11::detail::locale_ref)
FUNC 5fbc8 158 0 fmt::v11::detail::do_write_float<char, fmt::v11::basic_appender<char>, fmt::v11::detail::dragonbox::decimal_fp<double>, fmt::v11::detail::digit_grouping<char> >(fmt::v11::basic_appender<char>, fmt::v11::detail::dragonbox::decimal_fp<double> const&, fmt::v11::format_specs const&, fmt::v11::detail::float_specs, fmt::v11::detail::locale_ref)::{lambda(fmt::v11::basic_appender<char>(fmt::v11::basic_appender<char>))#1}::operator() const
FUNC 5fd20 190 0 _ZN3fmt3v116detail17write_significandIcmTnNSt6__ndk19enable_ifIXsr3std11is_integralIT0_EE5valueEiE4typeELi0EEEPT_S9_S5_iiS8_
FUNC 5feb0 ad0 0 fmt::v11::detail::write_float<char, fmt::v11::basic_appender<char>, long double>(fmt::v11::basic_appender<char>, long double, fmt::v11::format_specs, fmt::v11::detail::locale_ref)
FUNC 60980 1f4 0 fmt::v11::detail::write_padded<char, (fmt::v11::align::type)2, fmt::v11::basic_appender<char>, fmt::v11::detail::write_bytes<char, (fmt::v11::align::type)2, fmt::v11::basic_appender<char> >(fmt::v11::basic_appender<char>, fmt::v11::basic_string_view<char>, fmt::v11::format_specs const&)::{lambda(fmt::v11::basic_appender<char>&)#1}>(fmt::v11::basic_appender<char>, fmt::v11::format_specs const&, unsigned long, unsigned long, fmt::v11::detail::write_bytes<char, (fmt::v11::align::type)2, fmt::v11::basic_appender<char> >(fmt::v11::basic_appender<char>, fmt::v11::basic_string_view<char>, fmt::v11::format_specs const&)::{lambda(fmt::v11::basic_appender<char>&)#1})
FUNC 60b74 1350 0 fmt::v11::detail::format_dragon(fmt::v11::detail::basic_fp<unsigned __int128>, unsigned int, int, fmt::v11::detail::buffer<char>&, int&)
FUNC 61ec4 124 0 fmt::v11::detail::bigint::operator<<=(int)
FUNC 61fe8 744 0 fmt::v11::detail::bigint::assign_pow10(int)
FUNC 6272c 2f4 0 fmt::v11::detail::bigint::divmod_assign(fmt::v11::detail::bigint const&)
FUNC 62a20 a0 0 fmt::v11::basic_memory_buffer<unsigned int, (unsigned long)32, std::__ndk1::allocator<unsigned int> >::grow(fmt::v11::detail::buffer<unsigned int>&, unsigned long)
FUNC 62ac0 e8c 0 fmt::v11::detail::do_write_float<char, fmt::v11::basic_appender<char>, fmt::v11::detail::big_decimal_fp, fmt::v11::detail::digit_grouping<char> >(fmt::v11::basic_appender<char>, fmt::v11::detail::big_decimal_fp const&, fmt::v11::format_specs const&, fmt::v11::detail::float_specs, fmt::v11::detail::locale_ref)
FUNC 6394c 160 0 fmt::v11::detail::do_write_float<char, fmt::v11::basic_appender<char>, fmt::v11::detail::big_decimal_fp, fmt::v11::detail::digit_grouping<char> >(fmt::v11::basic_appender<char>, fmt::v11::detail::big_decimal_fp const&, fmt::v11::format_specs const&, fmt::v11::detail::float_specs, fmt::v11::detail::locale_ref)::{lambda(fmt::v11::basic_appender<char>(fmt::v11::basic_appender<char>))#1}::operator() const
FUNC 63aac 214 0 fmt::v11::detail::write_padded<char, (fmt::v11::align::type)2, fmt::v11::basic_appender<char>, fmt::v11::detail::write_ptr<char, fmt::v11::basic_appender<char>, unsigned long>(fmt::v11::basic_appender<char>, unsigned long, fmt::v11::format_specs const*)::{lambda(fmt::v11::basic_appender<char>&)#1}>(fmt::v11::basic_appender<char>, fmt::v11::format_specs const&, unsigned long, unsigned long, fmt::v11::detail::write_ptr<char, fmt::v11::basic_appender<char>, unsigned long>(fmt::v11::basic_appender<char>, unsigned long, fmt::v11::format_specs const*)::{lambda(fmt::v11::basic_appender<char>&)#1})
FUNC 63cc0 14c4 0 fmt::v11::detail::parse_replacement_field<char, fmt::v11::detail::vformat_to<char>(fmt::v11::detail::buffer<char>&, fmt::v11::basic_string_view<char>, fmt::v11::detail::vformat_args<char>::type, fmt::v11::detail::locale_ref)::format_handler&>(char const*, char const*, fmt::v11::detail::vformat_to<char>(fmt::v11::detail::buffer<char>&, fmt::v11::basic_string_view<char>, fmt::v11::detail::vformat_args<char>::type, fmt::v11::detail::locale_ref)::format_handler&)
FUNC 65184 e30 0 fmt::v11::detail::write_int_noinline<char, fmt::v11::basic_appender<char>, unsigned long>(fmt::v11::basic_appender<char>, fmt::v11::detail::write_int_arg<unsigned long>, fmt::v11::format_specs const&, fmt::v11::detail::locale_ref)
FUNC 65fb4 fd4 0 fmt::v11::detail::write_int_noinline<char, fmt::v11::basic_appender<char>, unsigned __int128>(fmt::v11::basic_appender<char>, fmt::v11::detail::write_int_arg<unsigned __int128>, fmt::v11::format_specs const&, fmt::v11::detail::locale_ref)
FUNC 66f88 510 0 _ZN3fmt3v116detail15format_hexfloatIdTnNSt6__ndk19enable_ifIXntsr16is_double_doubleIT_EE5valueEiE4typeELi0EEEvS5_NS0_12format_specsERNS1_6bufferIcEE
FUNC 67498 98c 0 fmt::v11::detail::format_float<double>(double, int, fmt::v11::detail::float_specs, fmt::v11::detail::buffer<char>&)
FUNC 67e24 570 0 fmt::v11::detail::write_int<fmt::v11::basic_appender<char>, unsigned long, char>(fmt::v11::basic_appender<char>, unsigned long, unsigned int, fmt::v11::format_specs const&, fmt::v11::detail::digit_grouping<char> const&)
FUNC 68394 664 0 fmt::v11::detail::write_int<fmt::v11::basic_appender<char>, unsigned __int128, char>(fmt::v11::basic_appender<char>, unsigned __int128, unsigned int, fmt::v11::format_specs const&, fmt::v11::detail::digit_grouping<char> const&)
PUBLIC 68a00 0 <.plt ELF section in ninxout.redash.android64.so>
STACK CFI INIT 2a1c0 10 .cfa: sp 0 +
STACK CFI INIT 2a1d0 8 .cfa: sp 0 +
STACK CFI INIT 2a1d8 8 .cfa: sp 0 +
STACK CFI INIT 2a1e0 14 .cfa: sp 0 +
STACK CFI INIT 2a1f4 1c .cfa: sp 0 +
STACK CFI INIT 2a210 10 .cfa: sp 0 +
STACK CFI INIT 2a240 18 .cfa: sp 0 +
STACK CFI INIT 2a258 10 .cfa: sp 0 +
STACK CFI 2a25c .cfa: sp 16 +
STACK CFI 2a260 .cfa: x29 16 + .ra: .cfa -8 + ^ x29: .cfa -16 + ^
STACK CFI INIT 2a268 60 .cfa: sp 0 +
STACK CFI 2a26c .cfa: sp 32 +
STACK CFI 2a274 .cfa: x29 32 + x19: .cfa -16 + ^ .ra: .cfa -24 + ^ x29: .cfa -32 + ^
STACK CFI 2a2bc .cfa: sp 32 +
STACK CFI 2a2c4 .cfa: sp 0 +
STACK CFI INIT 2a2d0 30 .cfa: sp 0 +
STACK CFI INIT 2a300 98 .cfa: sp 0 +
STACK CFI INIT 2a398 59c .cfa: sp 0 +
STACK CFI INIT 2a934 8c .cfa: sp 0 +
STACK CFI INIT 2a9c0 30 .cfa: sp 0 +
STACK CFI INIT 2adf0 1c .cfa: sp 0 +
STACK CFI INIT 2b1e8 50 .cfa: sp 0 +
STACK CFI 2b1ec .cfa: sp 32 +
STACK CFI 2b1f4 .cfa: x29 32 + x19: .cfa -16 + ^ .ra: .cfa -24 + ^ x29: .cfa -32 + ^
STACK CFI 2b20c .cfa: sp 32 +
STACK CFI 2b214 .cfa: sp 0 +
STACK CFI 2b218 .cfa: x29 32 +
STACK CFI 2b22c .cfa: sp 32 +
STACK CFI 2b234 .cfa: sp 0 +
STACK CFI INIT 2b2ac 7c .cfa: sp 0 +
STACK CFI 2b2b0 .cfa: sp 48 +
STACK CFI 2b2bc .cfa: x29 48 + x19: .cfa -8 + ^ x20: .cfa -16 + ^ x21: .cfa -32 + ^ .ra: .cfa -40 + ^ x29: .cfa -48 + ^
STACK CFI 2b308 .cfa: sp 48 +
STACK CFI 2b314 .cfa: sp 0 +
STACK CFI 2b318 .cfa: sp 48 +
STACK CFI 2b324 .cfa: sp 0 +
STACK CFI INIT 2b328 4 .cfa: sp 0 +
STACK CFI INIT 2b480 34 .cfa: sp 0 +
STACK CFI 2b484 .cfa: sp 16 +
STACK CFI 2b488 .cfa: x29 16 + .ra: .cfa -8 + ^ x29: .cfa -16 + ^
STACK CFI INIT 2b5d8 80 .cfa: sp 0 +
STACK CFI 2b5dc .cfa: sp 48 +
STACK CFI 2b5e8 .cfa: x29 48 + x19: .cfa -8 + ^ x20: .cfa -16 + ^ x21: .cfa -32 + ^ .ra: .cfa -40 + ^ x29: .cfa -48 + ^
STACK CFI 2b648 .cfa: sp 48 +
STACK CFI 2b654 .cfa: sp 0 +
STACK CFI INIT 2b658 24 .cfa: sp 0 +
STACK CFI 2b65c .cfa: sp 32 +
STACK CFI 2b664 .cfa: x29 32 + x19: .cfa -16 + ^ .ra: .cfa -24 + ^ x29: .cfa -32 + ^
STACK CFI 2b670 .cfa: sp 32 +
STACK CFI 2b678 .cfa: sp 0 +
STACK CFI INIT 2b9c8 14 .cfa: sp 0 +
STACK CFI 2b9cc .cfa: sp 16 +
STACK CFI 2b9d0 .cfa: x29 16 + .ra: .cfa -8 + ^ x29: .cfa -16 + ^
STACK CFI INIT 2ba2c 30 .cfa: sp 0 +
STACK CFI 2ba30 .cfa: sp 32 +
STACK CFI 2ba38 .cfa: x29 32 + x19: .cfa -16 + ^ .ra: .cfa -24 + ^ x29: .cfa -32 + ^
STACK CFI 2ba50 .cfa: sp 32 +
STACK CFI 2ba58 .cfa: sp 0 +
STACK CFI INIT 2ba5c 34 .cfa: sp 0 +
STACK CFI 2ba60 .cfa: sp 32 +
STACK CFI 2ba68 .cfa: x29 32 + x19: .cfa -16 + ^ .ra: .cfa -24 + ^ x29: .cfa -32 + ^
STACK CFI INIT 2bbec 148 .cfa: sp 0 +
STACK CFI 2bbf0 .cfa: sp 48 +
STACK CFI 2bbfc .cfa: x29 48 + x19: .cfa -8 + ^ x20: .cfa -16 + ^ x21: .cfa -32 + ^ .ra: .cfa -40 + ^ x29: .cfa -48 + ^
STACK CFI 2bd24 .cfa: sp 48 +
STACK CFI 2bd30 .cfa: sp 0 +
STACK CFI INIT 2bf50 70 .cfa: sp 0 +
STACK CFI 2bf54 .cfa: sp 48 +
STACK CFI 2bf60 .cfa: x29 48 + x19: .cfa -8 + ^ x20: .cfa -16 + ^ x21: .cfa -24 + ^ x22: .cfa -32 + ^ .ra: .cfa -40 + ^ x29: .cfa -48 + ^
STACK CFI 2bfa8 .cfa: sp 48 +
STACK CFI 2bfb4 .cfa: sp 0 +
STACK CFI 2bfb8 .cfa: x29 48 +
STACK CFI INIT 2bfc0 68 .cfa: sp 0 +
STACK CFI 2bfc4 .cfa: sp 32 +
STACK CFI 2bfcc .cfa: x29 32 + x19: .cfa -8 + ^ x20: .cfa -16 + ^ .ra: .cfa -24 + ^ x29: .cfa -32 + ^
STACK CFI 2bfe4 .cfa: sp 32 +
STACK CFI 2bfec .cfa: sp 0 +
STACK CFI 2bff0 .cfa: x29 32 +
STACK CFI 2c01c .cfa: sp 32 +
STACK CFI 2c024 .cfa: sp 0 +
STACK CFI INIT 2c028 14 .cfa: sp 0 +
STACK CFI 2c02c .cfa: sp 16 +
STACK CFI 2c030 .cfa: x29 16 + .ra: .cfa -8 + ^ x29: .cfa -16 + ^
STACK CFI INIT 2c03c 4 .cfa: sp 0 +
STACK CFI INIT 2c040 14 .cfa: sp 0 +
STACK CFI INIT 2c054 fc .cfa: sp 0 +
STACK CFI 2c058 .cfa: sp 64 +
STACK CFI 2c068 .cfa: x29 64 + x19: .cfa -8 + ^ x20: .cfa -16 + ^ x21: .cfa -24 + ^ x22: .cfa -32 + ^ x23: .cfa -40 + ^ x24: .cfa -48 + ^ .ra: .cfa -56 + ^ x29: .cfa -64 + ^
STACK CFI 2c13c .cfa: sp 64 +
STACK CFI 2c14c .cfa: sp 0 +
STACK CFI INIT 2c150 d4 .cfa: sp 0 +
STACK CFI 2c154 .cfa: sp 48 +
STACK CFI 2c160 .cfa: x29 48 + x19: .cfa -8 + ^ x20: .cfa -16 + ^ x21: .cfa -32 + ^ .ra: .cfa -40 + ^ x29: .cfa -48 + ^
STACK CFI 2c1f0 .cfa: sp 48 +
STACK CFI 2c1fc .cfa: sp 0 +
STACK CFI 2c200 .cfa: x29 48 +
STACK CFI INIT 2c224 388 .cfa: sp 0 +
STACK CFI INIT 2c5ac 8c .cfa: sp 0 +
STACK CFI 2c5b4 .cfa: sp 32 +
STACK CFI 2c5bc .cfa: x29 32 + x19: .cfa -8 + ^ x20: .cfa -16 + ^ .ra: .cfa -24 + ^ x29: .cfa -32 + ^
STACK CFI 2c604 .cfa: sp 32 +
STACK CFI 2c60c .cfa: sp 0 +
STACK CFI 2c614 .cfa: x29 32 +
STACK CFI INIT 2c638 1f0 .cfa: sp 0 +
STACK CFI 2c63c .cfa: sp 80 +
STACK CFI 2c650 .cfa: x29 80 + x19: .cfa -8 + ^ x20: .cfa -16 + ^ x21: .cfa -24 + ^ x22: .cfa -32 + ^ x23: .cfa -40 + ^ x24: .cfa -48 + ^ x25: .cfa -64 + ^ .ra: .cfa -72 + ^ x29: .cfa -80 + ^
STACK CFI 2c68c .cfa: sp 80 +
STACK CFI 2c6a0 .cfa: sp 0 +
STACK CFI 2c6a4 .cfa: x29 80 +
STACK CFI 2c6ac .cfa: sp 80 +
STACK CFI 2c6c0 .cfa: sp 0 +
STACK CFI 2c6c4 .cfa: x29 80 +
STACK CFI 2c6e8 .cfa: sp 80 +
STACK CFI 2c6ec .cfa: x29 80 +
STACK CFI 2c808 .cfa: sp 80 +
STACK CFI 2c81c .cfa: sp 0 +
STACK CFI 2c820 .cfa: x29 80 +
STACK CFI INIT 2c828 50 .cfa: sp 0 +
STACK CFI 2c82c .cfa: sp 32 +
STACK CFI 2c834 .cfa: x29 32 + x19: .cfa -16 + ^ .ra: .cfa -24 + ^ x29: .cfa -32 + ^
STACK CFI 2c84c .cfa: sp 32 +
STACK CFI 2c854 .cfa: sp 0 +
STACK CFI 2c858 .cfa: x29 32 +
STACK CFI 2c86c .cfa: sp 32 +
STACK CFI 2c874 .cfa: sp 0 +
STACK CFI INIT 2c878 64 .cfa: sp 0 +
STACK CFI 2c87c .cfa: sp 32 +
STACK CFI 2c884 .cfa: x29 32 + x19: .cfa -16 + ^ .ra: .cfa -24 + ^ x29: .cfa -32 + ^
STACK CFI 2c8b0 .cfa: sp 32 +
STACK CFI 2c8b8 .cfa: sp 0 +
STACK CFI 2c8bc .cfa: x29 32 +
STACK CFI 2c8d0 .cfa: sp 32 +
STACK CFI 2c8d8 .cfa: sp 0 +
STACK CFI INIT 2c8dc 154 .cfa: sp 0 +
STACK CFI 2c8e0 .cfa: sp 64 +
STACK CFI 2c8f0 .cfa: x29 64 + x19: .cfa -8 + ^ x20: .cfa -16 + ^ x21: .cfa -24 + ^ x22: .cfa -32 + ^ x23: .cfa -48 + ^ .ra: .cfa -56 + ^ x29: .cfa -64 + ^
STACK CFI 2ca1c .cfa: sp 64 +
STACK CFI 2ca2c .cfa: sp 0 +
STACK CFI INIT 2ca30 e4 .cfa: sp 0 +
STACK CFI 2ca34 .cfa: sp 64 +
STACK CFI 2ca44 .cfa: x29 64 + x19: .cfa -8 + ^ x20: .cfa -16 + ^ x21: .cfa -24 + ^ x22: .cfa -32 + ^ x23: .cfa -48 + ^ .ra: .cfa -56 + ^ x29: .cfa -64 + ^
STACK CFI 2cabc .cfa: sp 64 +
STACK CFI 2cacc .cfa: sp 0 +
STACK CFI 2cad0 .cfa: x29 64 +
STACK CFI INIT 2cb14 14 .cfa: sp 0 +
STACK CFI 2cb18 .cfa: sp 16 +
STACK CFI 2cb1c .cfa: x29 16 + .ra: .cfa -8 + ^ x29: .cfa -16 + ^
STACK CFI INIT 2cb28 104 .cfa: sp 0 +
STACK CFI 2cb2c .cfa: sp 80 +
STACK CFI 2cb40 .cfa: x29 80 + x19: .cfa -8 + ^ x20: .cfa -16 + ^ x21: .cfa -24 + ^ x22: .cfa -32 + ^ x23: .cfa -40 + ^ x24: .cfa -48 + ^ x25: .cfa -56 + ^ x26: .cfa -64 + ^ .ra: .cfa -72 + ^ x29: .cfa -80 + ^
STACK CFI 2cc14 .cfa: sp 80 +
STACK CFI 2cc28 .cfa: sp 0 +
STACK CFI INIT 2cc2c 19c .cfa: sp 0 +
STACK CFI INIT 2d20c 1c .cfa: sp 0 +
STACK CFI INIT 2e0b8 4 .cfa: sp 0 +
STACK CFI INIT 2e0bc 1c .cfa: sp 0 +
STACK CFI 2e0c0 .cfa: sp 16 +
STACK CFI 2e0c4 .cfa: x29 16 + .ra: .cfa -8 + ^ x29: .cfa -16 + ^
STACK CFI 2e0d0 .cfa: sp 16 +
STACK CFI 2e0d4 .cfa: sp 0 +
STACK CFI INIT 2f93c 14 .cfa: sp 0 +
STACK CFI 2f940 .cfa: sp 16 +
STACK CFI 2f944 .cfa: x29 16 + .ra: .cfa -8 + ^ x29: .cfa -16 + ^
STACK CFI INIT 2f950 58 .cfa: sp 0 +
STACK CFI 2f970 .cfa: sp 32 +
STACK CFI 2f978 .cfa: x29 32 + x19: .cfa -16 + ^ .ra: .cfa -24 + ^ x29: .cfa -32 + ^
STACK CFI 2f99c .cfa: sp 32 +
STACK CFI 2f9a4 .cfa: sp 0 +
STACK CFI INIT 2f9a8 54 .cfa: sp 0 +
STACK CFI 2f9c0 .cfa: sp 32 +
STACK CFI 2f9c8 .cfa: x29 32 + x19: .cfa -16 + ^ .ra: .cfa -24 + ^ x29: .cfa -32 + ^
STACK CFI 2f9ec .cfa: sp 32 +
STACK CFI 2f9f4 .cfa: sp 0 +
STACK CFI INIT 2f9fc a8 .cfa: sp 0 +
STACK CFI 2fa00 .cfa: sp 32 +
STACK CFI 2fa08 .cfa: x29 32 + x19: .cfa -8 + ^ x20: .cfa -16 + ^ .ra: .cfa -24 + ^ x29: .cfa -32 + ^
STACK CFI 2fa8c .cfa: sp 32 +
STACK CFI 2fa94 .cfa: sp 0 +
STACK CFI 2fa98 .cfa: sp 32 +
STACK CFI 2faa0 .cfa: sp 0 +
STACK CFI INIT 2faa4 2c .cfa: sp 0 +
STACK CFI INIT 2fc04 84 .cfa: sp 0 +
STACK CFI 2fc08 .cfa: sp 64 +
STACK CFI 2fc14 .cfa: x29 32 + x19: .cfa -8 + ^ x20: .cfa -16 + ^ .ra: .cfa -24 + ^ x29: .cfa -32 + ^
STACK CFI 2fc74 .cfa: sp 64 +
STACK CFI 2fc80 .cfa: sp 0 +
STACK CFI 2fc84 .cfa: x29 32 +
STACK CFI INIT 2fc88 84 .cfa: sp 0 +
STACK CFI 2fc8c .cfa: sp 64 +
STACK CFI 2fc98 .cfa: x29 32 + x19: .cfa -8 + ^ x20: .cfa -16 + ^ .ra: .cfa -24 + ^ x29: .cfa -32 + ^
STACK CFI 2fcf8 .cfa: sp 64 +
STACK CFI 2fd04 .cfa: sp 0 +
STACK CFI 2fd08 .cfa: x29 32 +
STACK CFI INIT 3010c 1c .cfa: sp 0 +
STACK CFI INIT 304b4 4 .cfa: sp 0 +
STACK CFI INIT 306b0 18 .cfa: sp 0 +
STACK CFI INIT 30b48 1c .cfa: sp 0 +
STACK CFI INIT 30f64 4 .cfa: sp 0 +
STACK CFI INIT 31308 4 .cfa: sp 0 +
STACK CFI INIT 3130c 14 .cfa: sp 0 +
STACK CFI INIT 31320 4 .cfa: sp 0 +
STACK CFI INIT 31324 14 .cfa: sp 0 +
STACK CFI INIT 30ac8 80 .cfa: sp 0 +
STACK CFI 30acc .cfa: sp 32 +
STACK CFI 30ad4 .cfa: x29 32 + x19: .cfa -16 + ^ .ra: .cfa -24 + ^ x29: .cfa -32 + ^
STACK CFI 30b3c .cfa: sp 32 +
STACK CFI 30b44 .cfa: sp 0 +
STACK CFI INIT 31f38 1c .cfa: sp 0 +
STACK CFI INIT 31f54 1c .cfa: sp 0 +
STACK CFI INIT 31f70 1c .cfa: sp 0 +
STACK CFI INIT 32368 4 .cfa: sp 0 +
STACK CFI INIT 3236c 40 .cfa: sp 0 +
STACK CFI 32370 .cfa: sp 32 +
STACK CFI 32378 .cfa: x29 32 + x19: .cfa -8 + ^ x20: .cfa -16 + ^ .ra: .cfa -24 + ^ x29: .cfa -32 + ^
STACK CFI 323a0 .cfa: sp 32 +
STACK CFI 323a8 .cfa: sp 0 +
STACK CFI INIT 32788 4 .cfa: sp 0 +
STACK CFI INIT 3278c 40 .cfa: sp 0 +
STACK CFI 32790 .cfa: sp 32 +
STACK CFI 32798 .cfa: x29 32 + x19: .cfa -8 + ^ x20: .cfa -16 + ^ .ra: .cfa -24 + ^ x29: .cfa -32 + ^
STACK CFI 327c0 .cfa: sp 32 +
STACK CFI 327c8 .cfa: sp 0 +
STACK CFI INIT 32b8c 4 .cfa: sp 0 +
STACK CFI INIT 32b90 40 .cfa: sp 0 +
STACK CFI 32b94 .cfa: sp 32 +
STACK CFI 32b9c .cfa: x29 32 + x19: .cfa -8 + ^ x20: .cfa -16 + ^ .ra: .cfa -24 + ^ x29: .cfa -32 + ^
STACK CFI 32bc4 .cfa: sp 32 +
STACK CFI 32bcc .cfa: sp 0 +
STACK CFI INIT 32bd0 e4 .cfa: sp 0 +
STACK CFI 32bd4 .cfa: sp 64 +
STACK CFI 32be0 .cfa: x29 32 + x19: .cfa -16 + ^ .ra: .cfa -24 + ^ x29: .cfa -32 + ^
STACK CFI 32c04 .cfa: sp 64 +
STACK CFI 32c10 .cfa: sp 0 +
STACK CFI 32c14 .cfa: x29 32 +
STACK CFI 32ca0 .cfa: sp 64 +
STACK CFI 32cac .cfa: sp 0 +
STACK CFI 32cb0 .cfa: x29 32 +
STACK CFI INIT 33648 1c .cfa: sp 0 +
STACK CFI INIT 33aa8 1c .cfa: sp 0 +
STACK CFI INIT 33e20 4 .cfa: sp 0 +
STACK CFI INIT 3410c 7c .cfa: sp 0 +
STACK CFI 34110 .cfa: sp 32 +
STACK CFI 34118 .cfa: x29 32 + x19: .cfa -8 + ^ x20: .cfa -16 + ^ .ra: .cfa -24 + ^ x29: .cfa -32 + ^
STACK CFI 34170 .cfa: sp 32 +
STACK CFI 34178 .cfa: sp 0 +
STACK CFI 3417c .cfa: sp 32 +
STACK CFI 34184 .cfa: sp 0 +
STACK CFI INIT 342f0 4 .cfa: sp 0 +
STACK CFI INIT 342f4 38 .cfa: sp 0 +
STACK CFI 342f8 .cfa: sp 32 +
STACK CFI 34300 .cfa: x29 32 + x19: .cfa -16 + ^ .ra: .cfa -24 + ^ x29: .cfa -32 + ^
STACK CFI 34320 .cfa: sp 32 +
STACK CFI 34328 .cfa: sp 0 +
STACK CFI INIT 3432c 18 .cfa: sp 0 +
STACK CFI INIT 34344 4 .cfa: sp 0 +
STACK CFI INIT 34348 4 .cfa: sp 0 +
STACK CFI INIT 3434c 8 .cfa: sp 0 +
STACK CFI INIT 34354 1c .cfa: sp 0 +
STACK CFI INIT 34370 c .cfa: sp 0 +
STACK CFI INIT 3437c 4 .cfa: sp 0 +
STACK CFI INIT 344f4 5c .cfa: sp 0 +
STACK CFI 344f8 .cfa: sp 32 +
STACK CFI 34500 .cfa: x29 32 + x19: .cfa -16 + ^ .ra: .cfa -24 + ^ x29: .cfa -32 + ^
STACK CFI 34544 .cfa: sp 32 +
STACK CFI 3454c .cfa: sp 0 +
STACK CFI INIT 34550 64 .cfa: sp 0 +
STACK CFI 34554 .cfa: sp 32 +
STACK CFI 3455c .cfa: x29 32 + x19: .cfa -16 + ^ .ra: .cfa -24 + ^ x29: .cfa -32 + ^
STACK CFI 345a8 .cfa: sp 32 +
STACK CFI 345b0 .cfa: sp 0 +
STACK CFI INIT 345b4 4 .cfa: sp 0 +
STACK CFI INIT 345b8 14 .cfa: sp 0 +
STACK CFI INIT 346dc 4 .cfa: sp 0 +
STACK CFI INIT 346e0 4 .cfa: sp 0 +
STACK CFI INIT 346e4 38 .cfa: sp 0 +
STACK CFI 346e8 .cfa: sp 32 +
STACK CFI 346f0 .cfa: x29 32 + x19: .cfa -16 + ^ .ra: .cfa -24 + ^ x29: .cfa -32 + ^
STACK CFI 34710 .cfa: sp 32 +
STACK CFI 34718 .cfa: sp 0 +
STACK CFI INIT 3471c 18 .cfa: sp 0 +
STACK CFI INIT 34734 4 .cfa: sp 0 +
STACK CFI INIT 34738 4 .cfa: sp 0 +
STACK CFI INIT 3473c 8 .cfa: sp 0 +
STACK CFI INIT 34744 1c .cfa: sp 0 +
STACK CFI INIT 34760 c .cfa: sp 0 +
STACK CFI INIT 34814 4 .cfa: sp 0 +
STACK CFI INIT 34818 9c .cfa: sp 0 +
STACK CFI INIT 348b4 8 .cfa: sp 0 +
STACK CFI INIT 3c954 ac .cfa: sp 0 +
STACK CFI 3c958 .cfa: sp 48 +
STACK CFI 3c964 .cfa: x29 48 + x19: .cfa -8 + ^ x20: .cfa -16 + ^ x21: .cfa -32 + ^ .ra: .cfa -40 + ^ x29: .cfa -48 + ^
STACK CFI 3c9dc .cfa: sp 48 +
STACK CFI 3c9e8 .cfa: sp 0 +
STACK CFI 3c9ec .cfa: x29 48 +
STACK CFI 3c9f0 .cfa: sp 48 +
STACK CFI 3c9fc .cfa: sp 0 +
STACK CFI INIT 3ca00 9c .cfa: sp 0 +
STACK CFI 3ca04 .cfa: sp 48 +
STACK CFI 3ca10 .cfa: x29 48 + x19: .cfa -8 + ^ x20: .cfa -16 + ^ x21: .cfa -32 + ^ .ra: .cfa -40 + ^ x29: .cfa -48 + ^
STACK CFI 3ca78 .cfa: sp 48 +
STACK CFI 3ca84 .cfa: sp 0 +
STACK CFI 3ca88 .cfa: x29 48 +
STACK CFI 3ca8c .cfa: sp 48 +
STACK CFI 3ca98 .cfa: sp 0 +
STACK CFI INIT 3cf4c 64 .cfa: sp 0 +
STACK CFI 3cf50 .cfa: sp 32 +
STACK CFI 3cf58 .cfa: x29 32 + x19: .cfa -16 + ^ .ra: .cfa -24 + ^ x29: .cfa -32 + ^
STACK CFI 3cf74 .cfa: sp 32 +
STACK CFI 3cf7c .cfa: sp 0 +
STACK CFI 3cf80 .cfa: x29 32 +
STACK CFI 3cfa4 .cfa: sp 32 +
STACK CFI 3cfac .cfa: sp 0 +
STACK CFI INIT 3cfb0 44 .cfa: sp 0 +
STACK CFI 3cfb4 .cfa: sp 32 +
STACK CFI 3cfbc .cfa: x29 32 + x19: .cfa -16 + ^ .ra: .cfa -24 + ^ x29: .cfa -32 + ^
STACK CFI 3cfd8 .cfa: sp 32 +
STACK CFI 3cfe0 .cfa: sp 0 +
STACK CFI 3cfe4 .cfa: x29 32 +
STACK CFI 3cfe8 .cfa: sp 32 +
STACK CFI 3cff0 .cfa: sp 0 +
STACK CFI INIT 3d014 54 .cfa: sp 0 +
STACK CFI 3d018 .cfa: sp 32 +
STACK CFI 3d020 .cfa: x29 32 + x19: .cfa -8 + ^ x20: .cfa -16 + ^ .ra: .cfa -24 + ^ x29: .cfa -32 + ^
STACK CFI 3d05c .cfa: sp 32 +
STACK CFI 3d064 .cfa: sp 0 +
STACK CFI INIT 3d068 50 .cfa: sp 0 +
STACK CFI 3d06c .cfa: sp 32 +
STACK CFI 3d074 .cfa: x29 32 + x19: .cfa -16 + ^ .ra: .cfa -24 + ^ x29: .cfa -32 + ^
STACK CFI 3d08c .cfa: sp 32 +
STACK CFI 3d094 .cfa: sp 0 +
STACK CFI 3d098 .cfa: x29 32 +
STACK CFI 3d0ac .cfa: sp 32 +
STACK CFI 3d0b4 .cfa: sp 0 +
STACK CFI INIT 3d0b8 50 .cfa: sp 0 +
STACK CFI 3d0bc .cfa: sp 32 +
STACK CFI 3d0c4 .cfa: x29 32 + x19: .cfa -16 + ^ .ra: .cfa -24 + ^ x29: .cfa -32 + ^
STACK CFI 3d0dc .cfa: sp 32 +
STACK CFI 3d0e4 .cfa: sp 0 +
STACK CFI 3d0e8 .cfa: x29 32 +
STACK CFI 3d0fc .cfa: sp 32 +
STACK CFI 3d104 .cfa: sp 0 +
STACK CFI INIT 3d108 4 .cfa: sp 0 +
STACK CFI INIT 3d10c 14 .cfa: sp 0 +
STACK CFI INIT 3d120 4 .cfa: sp 0 +
STACK CFI INIT 3d124 4 .cfa: sp 0 +
STACK CFI INIT 3d128 34 .cfa: sp 0 +
STACK CFI 3d12c .cfa: sp 32 +
STACK CFI 3d134 .cfa: x29 32 + x19: .cfa -16 + ^ .ra: .cfa -24 + ^ x29: .cfa -32 + ^
STACK CFI 3d150 .cfa: sp 32 +
STACK CFI 3d158 .cfa: sp 0 +
STACK CFI INIT 3d15c 14 .cfa: sp 0 +
STACK CFI INIT 3d170 4 .cfa: sp 0 +
STACK CFI INIT 3d174 4 .cfa: sp 0 +
STACK CFI INIT 3d228 1c .cfa: sp 0 +
STACK CFI INIT 3d244 c .cfa: sp 0 +
STACK CFI INIT 3d884 4 .cfa: sp 0 +
STACK CFI INIT 3d888 14 .cfa: sp 0 +
STACK CFI 3d88c .cfa: sp 16 +
STACK CFI 3d890 .cfa: x29 16 + .ra: .cfa -8 + ^ x29: .cfa -16 + ^
STACK CFI INIT 3d89c 14 .cfa: sp 0 +
STACK CFI 3d8a0 .cfa: sp 16 +
STACK CFI 3d8a4 .cfa: x29 16 + .ra: .cfa -8 + ^ x29: .cfa -16 + ^
STACK CFI INIT 3d8b0 c .cfa: sp 0 +
STACK CFI 3d8b4 .cfa: sp 16 +
STACK CFI 3d8b8 .cfa: x29 16 + .ra: .cfa -8 + ^ x29: .cfa -16 + ^
STACK CFI INIT 3d90c 30 .cfa: sp 0 +
STACK CFI 3d910 .cfa: sp 32 +
STACK CFI 3d918 .cfa: x29 32 + x19: .cfa -16 + ^ .ra: .cfa -24 + ^ x29: .cfa -32 + ^
STACK CFI 3d930 .cfa: sp 32 +
STACK CFI 3d938 .cfa: sp 0 +
STACK CFI INIT 3d93c c .cfa: sp 0 +
STACK CFI 3d940 .cfa: sp 16 +
STACK CFI 3d944 .cfa: x29 16 + .ra: .cfa -8 + ^ x29: .cfa -16 + ^
STACK CFI INIT 3d948 4 .cfa: sp 0 +
STACK CFI INIT 3d94c 4 .cfa: sp 0 +
STACK CFI INIT 3d950 38 .cfa: sp 0 +
STACK CFI 3d954 .cfa: sp 32 +
STACK CFI 3d95c .cfa: x29 32 + x19: .cfa -16 + ^ .ra: .cfa -24 + ^ x29: .cfa -32 + ^
STACK CFI 3d97c .cfa: sp 32 +
STACK CFI 3d984 .cfa: sp 0 +
STACK CFI INIT 3d988 18 .cfa: sp 0 +
STACK CFI INIT 3d9a0 4 .cfa: sp 0 +
STACK CFI INIT 3d9a4 4 .cfa: sp 0 +
STACK CFI INIT 3d9a8 10 .cfa: sp 0 +
STACK CFI INIT 3d9b8 1c .cfa: sp 0 +
STACK CFI INIT 3d9d4 c .cfa: sp 0 +
STACK CFI INIT 3d9e0 ac .cfa: sp 0 +
STACK CFI 3d9e4 .cfa: sp 64 +
STACK CFI 3d9f4 .cfa: x29 64 + x19: .cfa -8 + ^ x20: .cfa -16 + ^ x21: .cfa -24 + ^ x22: .cfa -32 + ^ x23: .cfa -48 + ^ .ra: .cfa -56 + ^ x29: .cfa -64 + ^
STACK CFI 3da70 .cfa: sp 64 +
STACK CFI 3da80 .cfa: sp 0 +
STACK CFI 3da84 .cfa: x29 64 +
STACK CFI INIT 3da8c 100 .cfa: sp 0 +
STACK CFI 3da90 .cfa: sp 64 +
STACK CFI 3daa0 .cfa: x29 64 + x19: .cfa -8 + ^ x20: .cfa -16 + ^ x21: .cfa -24 + ^ x22: .cfa -32 + ^ x23: .cfa -40 + ^ x24: .cfa -48 + ^ .ra: .cfa -56 + ^ x29: .cfa -64 + ^
STACK CFI 3db70 .cfa: sp 64 +
STACK CFI 3db80 .cfa: sp 0 +
STACK CFI 3db84 .cfa: x29 64 +
STACK CFI INIT 3db8c 60 .cfa: sp 0 +
STACK CFI 3db9c .cfa: sp 32 +
STACK CFI 3dba4 .cfa: x29 32 + x19: .cfa -8 + ^ x20: .cfa -16 + ^ .ra: .cfa -24 + ^ x29: .cfa -32 + ^
STACK CFI 3dbe0 .cfa: sp 32 +
STACK CFI 3dbe8 .cfa: sp 0 +
STACK CFI INIT 3e01c 44 .cfa: sp 0 +
STACK CFI 3e020 .cfa: sp 32 +
STACK CFI 3e028 .cfa: x29 32 + x19: .cfa -16 + ^ .ra: .cfa -24 + ^ x29: .cfa -32 + ^
STACK CFI 3e048 .cfa: sp 32 +
STACK CFI 3e050 .cfa: sp 0 +
STACK CFI 3e054 .cfa: sp 32 +
STACK CFI 3e05c .cfa: sp 0 +
STACK CFI INIT 3e060 104 .cfa: sp 0 +
STACK CFI 3e064 .cfa: sp 80 +
STACK CFI 3e078 .cfa: x29 80 + x19: .cfa -8 + ^ x20: .cfa -16 + ^ x21: .cfa -24 + ^ x22: .cfa -32 + ^ x23: .cfa -40 + ^ x24: .cfa -48 + ^ x25: .cfa -56 + ^ x26: .cfa -64 + ^ .ra: .cfa -72 + ^ x29: .cfa -80 + ^
STACK CFI 3e14c .cfa: sp 80 +
STACK CFI 3e160 .cfa: sp 0 +
STACK CFI INIT 3e164 ac .cfa: sp 0 +
STACK CFI 3e168 .cfa: sp 48 +
STACK CFI 3e174 .cfa: x29 48 + x19: .cfa -8 + ^ x20: .cfa -16 + ^ x21: .cfa -32 + ^ .ra: .cfa -40 + ^ x29: .cfa -48 + ^
STACK CFI 3e1ec .cfa: sp 48 +
STACK CFI 3e1f8 .cfa: sp 0 +
STACK CFI 3e1fc .cfa: x29 48 +
STACK CFI 3e200 .cfa: sp 48 +
STACK CFI 3e20c .cfa: sp 0 +
STACK CFI INIT 3e210 44 .cfa: sp 0 +
STACK CFI 3e218 .cfa: sp 32 +
STACK CFI 3e220 .cfa: x29 32 + x19: .cfa -16 + ^ .ra: .cfa -24 + ^ x29: .cfa -32 + ^
STACK CFI 3e244 .cfa: sp 32 +
STACK CFI 3e24c .cfa: sp 0 +
STACK CFI INIT 3e254 14 .cfa: sp 0 +
STACK CFI INIT 3e268 14 .cfa: sp 0 +
STACK CFI INIT 3e27c fc .cfa: sp 0 +
STACK CFI 3e280 .cfa: sp 64 +
STACK CFI 3e290 .cfa: x29 64 + x19: .cfa -8 + ^ x20: .cfa -16 + ^ x21: .cfa -24 + ^ x22: .cfa -32 + ^ x23: .cfa -40 + ^ x24: .cfa -48 + ^ .ra: .cfa -56 + ^ x29: .cfa -64 + ^
STACK CFI 3e364 .cfa: sp 64 +
STACK CFI 3e374 .cfa: sp 0 +
STACK CFI INIT 3e608 8c .cfa: sp 0 +
STACK CFI 3e60c .cfa: sp 48 +
STACK CFI 3e618 .cfa: x29 48 + x19: .cfa -8 + ^ x20: .cfa -16 + ^ x21: .cfa -24 + ^ x22: .cfa -32 + ^ .ra: .cfa -40 + ^ x29: .cfa -48 + ^
STACK CFI 3e620 .cfa: sp 48 +
STACK CFI 3e62c .cfa: sp 0 +
STACK CFI 3e630 .cfa: x29 48 +
STACK CFI 3e684 .cfa: sp 48 +
STACK CFI 3e690 .cfa: sp 0 +
STACK CFI INIT 3e708 68 .cfa: sp 0 +
STACK CFI 3e70c .cfa: sp 48 +
STACK CFI 3e718 .cfa: x29 48 + x19: .cfa -8 + ^ x20: .cfa -16 + ^ x21: .cfa -32 + ^ .ra: .cfa -40 + ^ x29: .cfa -48 + ^
STACK CFI 3e750 .cfa: sp 48 +
STACK CFI 3e75c .cfa: sp 0 +
STACK CFI 3e760 .cfa: sp 48 +
STACK CFI 3e76c .cfa: sp 0 +
STACK CFI INIT 3e88c 7c .cfa: sp 0 +
STACK CFI 3e890 .cfa: sp 48 +
STACK CFI 3e89c .cfa: x29 48 + x19: .cfa -8 + ^ x20: .cfa -16 + ^ x21: .cfa -24 + ^ x22: .cfa -32 + ^ .ra: .cfa -40 + ^ x29: .cfa -48 + ^
STACK CFI 3e8a4 .cfa: sp 48 +
STACK CFI 3e8b0 .cfa: sp 0 +
STACK CFI 3e8b4 .cfa: x29 48 +
STACK CFI 3e8f8 .cfa: sp 48 +
STACK CFI 3e904 .cfa: sp 0 +
STACK CFI INIT 3e908 14 .cfa: sp 0 +
STACK CFI 3e90c .cfa: sp 16 +
STACK CFI 3e910 .cfa: x29 16 + .ra: .cfa -8 + ^ x29: .cfa -16 + ^
STACK CFI INIT 3e91c 4 .cfa: sp 0 +
STACK CFI INIT 3e920 14 .cfa: sp 0 +
STACK CFI INIT 3ee2c 80 .cfa: sp 0 +
STACK CFI 3ee30 .cfa: sp 32 +
STACK CFI 3ee38 .cfa: x29 32 + x19: .cfa -16 + ^ .ra: .cfa -24 + ^ x29: .cfa -32 + ^
STACK CFI 3ee70 .cfa: sp 32 +
STACK CFI 3ee78 .cfa: sp 0 +
STACK CFI 3ee7c .cfa: sp 32 +
STACK CFI 3ee84 .cfa: sp 0 +
STACK CFI 3ee88 .cfa: x29 32 +
STACK CFI INIT 3eeac 104 .cfa: sp 0 +
STACK CFI 3eeb0 .cfa: sp 80 +
STACK CFI 3eec4 .cfa: x29 80 + x19: .cfa -8 + ^ x20: .cfa -16 + ^ x21: .cfa -24 + ^ x22: .cfa -32 + ^ x23: .cfa -40 + ^ x24: .cfa -48 + ^ x25: .cfa -56 + ^ x26: .cfa -64 + ^ .ra: .cfa -72 + ^ x29: .cfa -80 + ^
STACK CFI 3ef98 .cfa: sp 80 +
STACK CFI 3efac .cfa: sp 0 +
STACK CFI INIT 3efb0 7c .cfa: sp 0 +
STACK CFI 3efb8 .cfa: sp 32 +
STACK CFI 3efc0 .cfa: x29 32 + x19: .cfa -16 + ^ .ra: .cfa -24 + ^ x29: .cfa -32 + ^
STACK CFI 3eff8 .cfa: sp 32 +
STACK CFI 3f000 .cfa: sp 0 +
STACK CFI 3f008 .cfa: x29 32 +
STACK CFI INIT 3f02c 24 .cfa: sp 0 +
STACK CFI 3f030 .cfa: sp 32 +
STACK CFI 3f038 .cfa: x29 32 + x19: .cfa -16 + ^ .ra: .cfa -24 + ^ x29: .cfa -32 + ^
STACK CFI 3f044 .cfa: sp 32 +
STACK CFI 3f04c .cfa: sp 0 +
STACK CFI INIT 3f050 18 .cfa: sp 0 +
STACK CFI INIT 3f068 4 .cfa: sp 0 +
STACK CFI INIT 3f494 4 .cfa: sp 0 +
STACK CFI INIT 3f498 144 .cfa: sp 0 +
STACK CFI 3f49c .cfa: sp 48 +
STACK CFI 3f4a8 .cfa: x29 32 + x19: .cfa -8 + ^ x20: .cfa -16 + ^ .ra: .cfa -24 + ^ x29: .cfa -32 + ^
STACK CFI 3f5c8 .cfa: sp 48 +
STACK CFI 3f5d4 .cfa: sp 0 +
STACK CFI 3f5d8 .cfa: x29 32 +
STACK CFI INIT 3fb9c 50 .cfa: sp 0 +
STACK CFI 3fba0 .cfa: sp 32 +
STACK CFI 3fba8 .cfa: x29 32 + x19: .cfa -16 + ^ .ra: .cfa -24 + ^ x29: .cfa -32 + ^
STACK CFI 3fbc0 .cfa: sp 32 +
STACK CFI 3fbc8 .cfa: sp 0 +
STACK CFI 3fbcc .cfa: x29 32 +
STACK CFI 3fbe0 .cfa: sp 32 +
STACK CFI 3fbe8 .cfa: sp 0 +
STACK CFI INIT 4131c 28 .cfa: sp 0 +
STACK CFI 41320 .cfa: sp 16 +
STACK CFI 41324 .cfa: x29 16 + .ra: .cfa -8 + ^ x29: .cfa -16 + ^
STACK CFI 4133c .cfa: sp 16 +
STACK CFI 41340 .cfa: sp 0 +
STACK CFI INIT 414dc 7c .cfa: sp 0 +
STACK CFI 414e0 .cfa: sp 32 +
STACK CFI 414e8 .cfa: x29 32 + x19: .cfa -8 + ^ x20: .cfa -16 + ^ .ra: .cfa -24 + ^ x29: .cfa -32 + ^
STACK CFI 4154c .cfa: sp 32 +
STACK CFI 41554 .cfa: sp 0 +
STACK CFI INIT 41558 84 .cfa: sp 0 +
STACK CFI 4155c .cfa: sp 32 +
STACK CFI 41564 .cfa: x29 32 + x19: .cfa -8 + ^ x20: .cfa -16 + ^ .ra: .cfa -24 + ^ x29: .cfa -32 + ^
STACK CFI 415d0 .cfa: sp 32 +
STACK CFI 415d8 .cfa: sp 0 +
STACK CFI INIT 415dc 4 .cfa: sp 0 +
STACK CFI INIT 415e0 14 .cfa: sp 0 +
STACK CFI INIT 415f4 60 .cfa: sp 0 +
STACK CFI 415f8 .cfa: sp 32 +
STACK CFI 41600 .cfa: x29 32 + x19: .cfa -8 + ^ x20: .cfa -16 + ^ .ra: .cfa -24 + ^ x29: .cfa -32 + ^
STACK CFI 41648 .cfa: sp 32 +
STACK CFI 41650 .cfa: sp 0 +
STACK CFI INIT 4177c 104 .cfa: sp 0 +
STACK CFI 41780 .cfa: sp 80 +
STACK CFI 41794 .cfa: x29 80 + x19: .cfa -8 + ^ x20: .cfa -16 + ^ x21: .cfa -24 + ^ x22: .cfa -32 + ^ x23: .cfa -40 + ^ x24: .cfa -48 + ^ x25: .cfa -56 + ^ x26: .cfa -64 + ^ .ra: .cfa -72 + ^ x29: .cfa -80 + ^
STACK CFI 41868 .cfa: sp 80 +
STACK CFI 4187c .cfa: sp 0 +
STACK CFI INIT 41880 5c .cfa: sp 0 +
STACK CFI 41884 .cfa: sp 32 +
STACK CFI 4188c .cfa: x29 32 + x19: .cfa -16 + ^ .ra: .cfa -24 + ^ x29: .cfa -32 + ^
STACK CFI 418c4 .cfa: sp 32 +
STACK CFI 418cc .cfa: sp 0 +
STACK CFI 418d0 .cfa: sp 32 +
STACK CFI 418d8 .cfa: sp 0 +
STACK CFI INIT 418dc 44 .cfa: sp 0 +
STACK CFI 418e0 .cfa: sp 32 +
STACK CFI 418e8 .cfa: x29 32 + x19: .cfa -16 + ^ .ra: .cfa -24 + ^ x29: .cfa -32 + ^
STACK CFI 41904 .cfa: sp 32 +
STACK CFI 4190c .cfa: sp 0 +
STACK CFI 41910 .cfa: x29 32 +
STACK CFI 41914 .cfa: sp 32 +
STACK CFI 4191c .cfa: sp 0 +
STACK CFI INIT 41920 8 .cfa: sp 0 +
STACK CFI INIT 41ff4 10 .cfa: sp 0 +
STACK CFI INIT 42098 30 .cfa: sp 0 +
STACK CFI 4209c .cfa: sp 32 +
STACK CFI 420a4 .cfa: x29 32 + x19: .cfa -16 + ^ .ra: .cfa -24 + ^ x29: .cfa -32 + ^
STACK CFI 420bc .cfa: sp 32 +
STACK CFI 420c4 .cfa: sp 0 +
STACK CFI INIT 420c8 38 .cfa: sp 0 +
STACK CFI 420cc .cfa: sp 32 +
STACK CFI 420d4 .cfa: x29 32 + x19: .cfa -16 + ^ .ra: .cfa -24 + ^ x29: .cfa -32 + ^
STACK CFI 420f4 .cfa: sp 32 +
STACK CFI 420fc .cfa: sp 0 +
STACK CFI INIT 42100 8 .cfa: sp 0 +
STACK CFI INIT 42108 14 .cfa: sp 0 +
STACK CFI INIT 4211c 58 .cfa: sp 0 +
STACK CFI 42124 .cfa: sp 32 +
STACK CFI 4212c .cfa: x29 32 + x19: .cfa -16 + ^ .ra: .cfa -24 + ^ x29: .cfa -32 + ^
STACK CFI 42164 .cfa: sp 32 +
STACK CFI 4216c .cfa: sp 0 +
STACK CFI INIT 42174 10 .cfa: sp 0 +
STACK CFI INIT 42184 30 .cfa: sp 0 +
STACK CFI 42188 .cfa: sp 32 +
STACK CFI 42190 .cfa: x29 32 + x19: .cfa -16 + ^ .ra: .cfa -24 + ^ x29: .cfa -32 + ^
STACK CFI 421a8 .cfa: sp 32 +
STACK CFI 421b0 .cfa: sp 0 +
STACK CFI INIT 421b4 c .cfa: sp 0 +
STACK CFI INIT 421c0 4 .cfa: sp 0 +
STACK CFI INIT 42238 34 .cfa: sp 0 +
STACK CFI 4223c .cfa: sp 16 +
STACK CFI 42240 .cfa: x29 16 + .ra: .cfa -8 + ^ x29: .cfa -16 + ^
STACK CFI INIT 4226c 4 .cfa: sp 0 +
STACK CFI INIT 42270 4 .cfa: sp 0 +
STACK CFI INIT 42274 34 .cfa: sp 0 +
STACK CFI 42278 .cfa: sp 32 +
STACK CFI 42280 .cfa: x29 32 + x19: .cfa -16 + ^ .ra: .cfa -24 + ^ x29: .cfa -32 + ^
STACK CFI 4229c .cfa: sp 32 +
STACK CFI 422a4 .cfa: sp 0 +
STACK CFI INIT 422a8 14 .cfa: sp 0 +
STACK CFI INIT 422bc 4 .cfa: sp 0 +
STACK CFI INIT 422c0 4 .cfa: sp 0 +
STACK CFI INIT 422c4 14 .cfa: sp 0 +
STACK CFI INIT 422d8 1c .cfa: sp 0 +
STACK CFI INIT 422f4 c .cfa: sp 0 +
STACK CFI INIT 43bd0 4c .cfa: sp 0 +
STACK CFI 43bd4 .cfa: sp 32 +
STACK CFI 43bdc .cfa: x29 32 + x19: .cfa -16 + ^ .ra: .cfa -24 + ^ x29: .cfa -32 + ^
STACK CFI 43c10 .cfa: sp 32 +
STACK CFI 43c18 .cfa: sp 0 +
STACK CFI INIT 43c1c 4 .cfa: sp 0 +
STACK CFI INIT 43c20 8 .cfa: sp 0 +
STACK CFI INIT 43c28 4 .cfa: sp 0 +
STACK CFI INIT 43c2c 8 .cfa: sp 0 +
STACK CFI INIT 43c34 4c .cfa: sp 0 +
STACK CFI 43c38 .cfa: sp 32 +
STACK CFI 43c40 .cfa: x29 32 + x19: .cfa -16 + ^ .ra: .cfa -24 + ^ x29: .cfa -32 + ^
STACK CFI 43c74 .cfa: sp 32 +
STACK CFI 43c7c .cfa: sp 0 +
STACK CFI INIT 4571c 28 .cfa: sp 0 +
STACK CFI 45720 .cfa: sp 16 +
STACK CFI 45724 .cfa: x29 16 + .ra: .cfa -8 + ^ x29: .cfa -16 + ^
STACK CFI 4573c .cfa: sp 16 +
STACK CFI 45740 .cfa: sp 0 +
STACK CFI INIT 458d8 7c .cfa: sp 0 +
STACK CFI 458dc .cfa: sp 32 +
STACK CFI 458e4 .cfa: x29 32 + x19: .cfa -8 + ^ x20: .cfa -16 + ^ .ra: .cfa -24 + ^ x29: .cfa -32 + ^
STACK CFI 45948 .cfa: sp 32 +
STACK CFI 45950 .cfa: sp 0 +
STACK CFI INIT 45954 84 .cfa: sp 0 +
STACK CFI 45958 .cfa: sp 32 +
STACK CFI 45960 .cfa: x29 32 + x19: .cfa -8 + ^ x20: .cfa -16 + ^ .ra: .cfa -24 + ^ x29: .cfa -32 + ^
STACK CFI 459cc .cfa: sp 32 +
STACK CFI 459d4 .cfa: sp 0 +
STACK CFI INIT 45afc 104 .cfa: sp 0 +
STACK CFI 45b00 .cfa: sp 80 +
STACK CFI 45b14 .cfa: x29 80 + x19: .cfa -8 + ^ x20: .cfa -16 + ^ x21: .cfa -24 + ^ x22: .cfa -32 + ^ x23: .cfa -40 + ^ x24: .cfa -48 + ^ x25: .cfa -56 + ^ x26: .cfa -64 + ^ .ra: .cfa -72 + ^ x29: .cfa -80 + ^
STACK CFI 45be8 .cfa: sp 80 +
STACK CFI 45bfc .cfa: sp 0 +
STACK CFI INIT 45c00 5c .cfa: sp 0 +
STACK CFI 45c04 .cfa: sp 32 +
STACK CFI 45c0c .cfa: x29 32 + x19: .cfa -16 + ^ .ra: .cfa -24 + ^ x29: .cfa -32 + ^
STACK CFI 45c44 .cfa: sp 32 +
STACK CFI 45c4c .cfa: sp 0 +
STACK CFI 45c50 .cfa: sp 32 +
STACK CFI 45c58 .cfa: sp 0 +
STACK CFI INIT 45d80 44 .cfa: sp 0 +
STACK CFI 45d84 .cfa: sp 32 +
STACK CFI 45d8c .cfa: x29 32 + x19: .cfa -16 + ^ .ra: .cfa -24 + ^ x29: .cfa -32 + ^
STACK CFI 45da8 .cfa: sp 32 +
STACK CFI 45db0 .cfa: sp 0 +
STACK CFI 45db4 .cfa: x29 32 +
STACK CFI 45db8 .cfa: sp 32 +
STACK CFI 45dc0 .cfa: sp 0 +
STACK CFI INIT 45dc4 8 .cfa: sp 0 +
STACK CFI INIT 46914 10 .cfa: sp 0 +
STACK CFI INIT 469b8 30 .cfa: sp 0 +
STACK CFI 469bc .cfa: sp 32 +
STACK CFI 469c4 .cfa: x29 32 + x19: .cfa -16 + ^ .ra: .cfa -24 + ^ x29: .cfa -32 + ^
STACK CFI 469dc .cfa: sp 32 +
STACK CFI 469e4 .cfa: sp 0 +
STACK CFI INIT 469e8 38 .cfa: sp 0 +
STACK CFI 469ec .cfa: sp 32 +
STACK CFI 469f4 .cfa: x29 32 + x19: .cfa -16 + ^ .ra: .cfa -24 + ^ x29: .cfa -32 + ^
STACK CFI 46a14 .cfa: sp 32 +
STACK CFI 46a1c .cfa: sp 0 +
STACK CFI INIT 46a20 58 .cfa: sp 0 +
STACK CFI 46a28 .cfa: sp 32 +
STACK CFI 46a30 .cfa: x29 32 + x19: .cfa -16 + ^ .ra: .cfa -24 + ^ x29: .cfa -32 + ^
STACK CFI 46a68 .cfa: sp 32 +
STACK CFI 46a70 .cfa: sp 0 +
STACK CFI INIT 46a78 10 .cfa: sp 0 +
STACK CFI INIT 46a88 30 .cfa: sp 0 +
STACK CFI 46a8c .cfa: sp 32 +
STACK CFI 46a94 .cfa: x29 32 + x19: .cfa -16 + ^ .ra: .cfa -24 + ^ x29: .cfa -32 + ^
STACK CFI 46aac .cfa: sp 32 +
STACK CFI 46ab4 .cfa: sp 0 +
STACK CFI INIT 46ab8 c .cfa: sp 0 +
STACK CFI INIT 46ac4 4 .cfa: sp 0 +
STACK CFI INIT 48638 4c .cfa: sp 0 +
STACK CFI 4863c .cfa: sp 32 +
STACK CFI 48644 .cfa: x29 32 + x19: .cfa -16 + ^ .ra: .cfa -24 + ^ x29: .cfa -32 + ^
STACK CFI 48678 .cfa: sp 32 +
STACK CFI 48680 .cfa: sp 0 +
STACK CFI INIT 48684 e0 .cfa: sp 0 +
STACK CFI 48688 .cfa: sp 64 +
STACK CFI 48698 .cfa: x29 48 + x19: .cfa -8 + ^ x20: .cfa -16 + ^ x21: .cfa -32 + ^ .ra: .cfa -40 + ^ x29: .cfa -48 + ^
STACK CFI 4874c .cfa: sp 64 +
STACK CFI 4875c .cfa: sp 0 +
STACK CFI 48760 .cfa: x29 48 +
STACK CFI INIT 4a688 4c .cfa: sp 0 +
STACK CFI 4a68c .cfa: sp 32 +
STACK CFI 4a694 .cfa: x29 32 + x19: .cfa -16 + ^ .ra: .cfa -24 + ^ x29: .cfa -32 + ^
STACK CFI 4a6c8 .cfa: sp 32 +
STACK CFI 4a6d0 .cfa: sp 0 +
STACK CFI INIT 4b168 24 .cfa: sp 0 +
STACK CFI 4b16c .cfa: sp 32 +
STACK CFI 4b174 .cfa: x29 32 + x19: .cfa -16 + ^ .ra: .cfa -24 + ^ x29: .cfa -32 + ^
STACK CFI 4b180 .cfa: sp 32 +
STACK CFI 4b188 .cfa: sp 0 +
STACK CFI INIT 4c32c 64 .cfa: sp 0 +
STACK CFI 4c330 .cfa: sp 32 +
STACK CFI 4c338 .cfa: x29 32 + x19: .cfa -16 + ^ .ra: .cfa -24 + ^ x29: .cfa -32 + ^
STACK CFI 4c384 .cfa: sp 32 +
STACK CFI 4c38c .cfa: sp 0 +
STACK CFI INIT 4c390 44 .cfa: sp 0 +
STACK CFI 4c394 .cfa: sp 32 +
STACK CFI 4c39c .cfa: x29 32 + x19: .cfa -8 + ^ x20: .cfa -16 + ^ .ra: .cfa -24 + ^ x29: .cfa -32 + ^
STACK CFI 4c3c8 .cfa: sp 32 +
STACK CFI 4c3d0 .cfa: sp 0 +
STACK CFI INIT 4cad8 a0 .cfa: sp 0 +
STACK CFI 4cadc .cfa: sp 32 +
STACK CFI 4cae4 .cfa: x29 32 + x19: .cfa -8 + ^ x20: .cfa -16 + ^ .ra: .cfa -24 + ^ x29: .cfa -32 + ^
STACK CFI 4cb6c .cfa: sp 32 +
STACK CFI 4cb74 .cfa: sp 0 +
STACK CFI INIT 4cb78 a8 .cfa: sp 0 +
STACK CFI 4cb7c .cfa: sp 32 +
STACK CFI 4cb84 .cfa: x29 32 + x19: .cfa -8 + ^ x20: .cfa -16 + ^ .ra: .cfa -24 + ^ x29: .cfa -32 + ^
STACK CFI 4cc14 .cfa: sp 32 +
STACK CFI 4cc1c .cfa: sp 0 +
STACK CFI INIT 4cc20 50 .cfa: sp 0 +
STACK CFI 4cc24 .cfa: sp 32 +
STACK CFI 4cc2c .cfa: x29 32 + x19: .cfa -16 + ^ .ra: .cfa -24 + ^ x29: .cfa -32 + ^
STACK CFI 4cc44 .cfa: sp 32 +
STACK CFI 4cc4c .cfa: sp 0 +
STACK CFI 4cc50 .cfa: x29 32 +
STACK CFI 4cc64 .cfa: sp 32 +
STACK CFI 4cc6c .cfa: sp 0 +
STACK CFI INIT 4ce8c 4 .cfa: sp 0 +
STACK CFI INIT 4d03c 8c .cfa: sp 0 +
STACK CFI 4d040 .cfa: sp 32 +
STACK CFI 4d048 .cfa: x29 32 + x19: .cfa -8 + ^ x20: .cfa -16 + ^ .ra: .cfa -24 + ^ x29: .cfa -32 + ^
STACK CFI 4d0bc .cfa: sp 32 +
STACK CFI 4d0c4 .cfa: sp 0 +
STACK CFI INIT 4d0c8 94 .cfa: sp 0 +
STACK CFI 4d0cc .cfa: sp 32 +
STACK CFI 4d0d4 .cfa: x29 32 + x19: .cfa -8 + ^ x20: .cfa -16 + ^ .ra: .cfa -24 + ^ x29: .cfa -32 + ^
STACK CFI 4d150 .cfa: sp 32 +
STACK CFI 4d158 .cfa: sp 0 +
STACK CFI INIT 4d15c 50 .cfa: sp 0 +
STACK CFI 4d160 .cfa: sp 32 +
STACK CFI 4d168 .cfa: x29 32 + x19: .cfa -16 + ^ .ra: .cfa -24 + ^ x29: .cfa -32 + ^
STACK CFI 4d180 .cfa: sp 32 +
STACK CFI 4d188 .cfa: sp 0 +
STACK CFI 4d18c .cfa: x29 32 +
STACK CFI 4d1a0 .cfa: sp 32 +
STACK CFI 4d1a8 .cfa: sp 0 +
STACK CFI INIT 4d1ac 50 .cfa: sp 0 +
STACK CFI 4d1b0 .cfa: sp 32 +
STACK CFI 4d1b8 .cfa: x29 32 + x19: .cfa -16 + ^ .ra: .cfa -24 + ^ x29: .cfa -32 + ^
STACK CFI 4d1d0 .cfa: sp 32 +
STACK CFI 4d1d8 .cfa: sp 0 +
STACK CFI 4d1dc .cfa: x29 32 +
STACK CFI 4d1f0 .cfa: sp 32 +
STACK CFI 4d1f8 .cfa: sp 0 +
STACK CFI INIT 4d1fc 5c .cfa: sp 0 +
STACK CFI 4d200 .cfa: sp 32 +
STACK CFI 4d208 .cfa: x29 32 + x19: .cfa -16 + ^ .ra: .cfa -24 + ^ x29: .cfa -32 + ^
STACK CFI 4d22c .cfa: sp 32 +
STACK CFI 4d234 .cfa: sp 0 +
STACK CFI 4d238 .cfa: x29 32 +
STACK CFI 4d24c .cfa: sp 32 +
STACK CFI 4d254 .cfa: sp 0 +
STACK CFI INIT 4d258 5c .cfa: sp 0 +
STACK CFI 4d25c .cfa: sp 32 +
STACK CFI 4d264 .cfa: x29 32 + x19: .cfa -8 + ^ x20: .cfa -16 + ^ .ra: .cfa -24 + ^ x29: .cfa -32 + ^
STACK CFI 4d2a8 .cfa: sp 32 +
STACK CFI 4d2b0 .cfa: sp 0 +
STACK CFI INIT 4d2b4 58 .cfa: sp 0 +
STACK CFI 4d2b8 .cfa: sp 32 +
STACK CFI 4d2c0 .cfa: x29 32 + x19: .cfa -8 + ^ x20: .cfa -16 + ^ .ra: .cfa -24 + ^ x29: .cfa -32 + ^
STACK CFI 4d300 .cfa: sp 32 +
STACK CFI 4d308 .cfa: sp 0 +
STACK CFI INIT 4d30c 4c .cfa: sp 0 +
STACK CFI 4d310 .cfa: sp 32 +
STACK CFI 4d318 .cfa: x29 32 + x19: .cfa -8 + ^ x20: .cfa -16 + ^ .ra: .cfa -24 + ^ x29: .cfa -32 + ^
STACK CFI 4d34c .cfa: sp 32 +
STACK CFI 4d354 .cfa: sp 0 +
STACK CFI INIT 4d358 50 .cfa: sp 0 +
STACK CFI 4d35c .cfa: sp 32 +
STACK CFI 4d364 .cfa: x29 32 + x19: .cfa -16 + ^ .ra: .cfa -24 + ^ x29: .cfa -32 + ^
STACK CFI 4d37c .cfa: sp 32 +
STACK CFI 4d384 .cfa: sp 0 +
STACK CFI 4d388 .cfa: x29 32 +
STACK CFI 4d39c .cfa: sp 32 +
STACK CFI 4d3a4 .cfa: sp 0 +
STACK CFI INIT 4d3a8 50 .cfa: sp 0 +
STACK CFI 4d3ac .cfa: sp 32 +
STACK CFI 4d3b4 .cfa: x29 32 + x19: .cfa -8 + ^ x20: .cfa -16 + ^ .ra: .cfa -24 + ^ x29: .cfa -32 + ^
STACK CFI 4d3ec .cfa: sp 32 +
STACK CFI 4d3f4 .cfa: sp 0 +
STACK CFI INIT 4d3f8 8 .cfa: sp 0 +
STACK CFI INIT 4d400 1c .cfa: sp 0 +
STACK CFI INIT 4d41c c .cfa: sp 0 +
STACK CFI INIT 4d5c0 50 .cfa: sp 0 +
STACK CFI 4d5c4 .cfa: sp 32 +
STACK CFI 4d5cc .cfa: x29 32 + x19: .cfa -8 + ^ x20: .cfa -16 + ^ .ra: .cfa -24 + ^ x29: .cfa -32 + ^
STACK CFI 4d604 .cfa: sp 32 +
STACK CFI 4d60c .cfa: sp 0 +
STACK CFI INIT 4d610 58 .cfa: sp 0 +
STACK CFI 4d614 .cfa: sp 32 +
STACK CFI 4d61c .cfa: x29 32 + x19: .cfa -8 + ^ x20: .cfa -16 + ^ .ra: .cfa -24 + ^ x29: .cfa -32 + ^
STACK CFI 4d65c .cfa: sp 32 +
STACK CFI 4d664 .cfa: sp 0 +
STACK CFI INIT 4d668 5c .cfa: sp 0 +
STACK CFI 4d66c .cfa: sp 32 +
STACK CFI 4d674 .cfa: x29 32 + x19: .cfa -16 + ^ .ra: .cfa -24 + ^ x29: .cfa -32 + ^
STACK CFI 4d698 .cfa: sp 32 +
STACK CFI 4d6a0 .cfa: sp 0 +
STACK CFI 4d6a4 .cfa: x29 32 +
STACK CFI 4d6b8 .cfa: sp 32 +
STACK CFI 4d6c0 .cfa: sp 0 +
STACK CFI INIT 4d6c4 5c .cfa: sp 0 +
STACK CFI 4d6c8 .cfa: sp 32 +
STACK CFI 4d6d0 .cfa: x29 32 + x19: .cfa -8 + ^ x20: .cfa -16 + ^ .ra: .cfa -24 + ^ x29: .cfa -32 + ^
STACK CFI 4d714 .cfa: sp 32 +
STACK CFI 4d71c .cfa: sp 0 +
STACK CFI INIT 4d720 58 .cfa: sp 0 +
STACK CFI 4d724 .cfa: sp 32 +
STACK CFI 4d72c .cfa: x29 32 + x19: .cfa -8 + ^ x20: .cfa -16 + ^ .ra: .cfa -24 + ^ x29: .cfa -32 + ^
STACK CFI 4d76c .cfa: sp 32 +
STACK CFI 4d774 .cfa: sp 0 +
STACK CFI INIT 4d778 4c .cfa: sp 0 +
STACK CFI 4d77c .cfa: sp 32 +
STACK CFI 4d784 .cfa: x29 32 + x19: .cfa -8 + ^ x20: .cfa -16 + ^ .ra: .cfa -24 + ^ x29: .cfa -32 + ^
STACK CFI 4d7b8 .cfa: sp 32 +
STACK CFI 4d7c0 .cfa: sp 0 +
STACK CFI INIT 4d7c4 50 .cfa: sp 0 +
STACK CFI 4d7c8 .cfa: sp 32 +
STACK CFI 4d7d0 .cfa: x29 32 + x19: .cfa -16 + ^ .ra: .cfa -24 + ^ x29: .cfa -32 + ^
STACK CFI 4d7e8 .cfa: sp 32 +
STACK CFI 4d7f0 .cfa: sp 0 +
STACK CFI 4d7f4 .cfa: x29 32 +
STACK CFI 4d808 .cfa: sp 32 +
STACK CFI 4d810 .cfa: sp 0 +
STACK CFI INIT 4d814 50 .cfa: sp 0 +
STACK CFI 4d818 .cfa: sp 32 +
STACK CFI 4d820 .cfa: x29 32 + x19: .cfa -8 + ^ x20: .cfa -16 + ^ .ra: .cfa -24 + ^ x29: .cfa -32 + ^
STACK CFI 4d858 .cfa: sp 32 +
STACK CFI 4d860 .cfa: sp 0 +
STACK CFI INIT 4d864 8 .cfa: sp 0 +
STACK CFI INIT 4d86c 1c .cfa: sp 0 +
STACK CFI INIT 4d888 c .cfa: sp 0 +
STACK CFI INIT 4da1c 34 .cfa: sp 0 +
STACK CFI 4da20 .cfa: sp 16 +
STACK CFI 4da24 .cfa: x29 16 + .ra: .cfa -8 + ^ x29: .cfa -16 + ^
STACK CFI INIT 4da50 24 .cfa: sp 0 +
STACK CFI 4da54 .cfa: sp 32 +
STACK CFI 4da5c .cfa: x29 32 + x19: .cfa -16 + ^ .ra: .cfa -24 + ^ x29: .cfa -32 + ^
STACK CFI 4da68 .cfa: sp 32 +
STACK CFI 4da70 .cfa: sp 0 +
STACK CFI INIT 4dbf8 4 .cfa: sp 0 +
STACK CFI INIT 4dbfc 14 .cfa: sp 0 +
STACK CFI INIT 4dc10 4 .cfa: sp 0 +
STACK CFI INIT 4dc14 34 .cfa: sp 0 +
STACK CFI 4dc18 .cfa: sp 32 +
STACK CFI 4dc20 .cfa: x29 32 + x19: .cfa -16 + ^ .ra: .cfa -24 + ^ x29: .cfa -32 + ^
STACK CFI 4dc3c .cfa: sp 32 +
STACK CFI 4dc44 .cfa: sp 0 +
STACK CFI INIT 4dc48 14 .cfa: sp 0 +
STACK CFI INIT 4dc5c 4 .cfa: sp 0 +
STACK CFI INIT 4dc60 4 .cfa: sp 0 +
STACK CFI INIT 4dc64 c4 .cfa: sp 0 +
STACK CFI 4dc68 .cfa: sp 48 +
STACK CFI 4dc74 .cfa: x29 32 + x19: .cfa -8 + ^ x20: .cfa -16 + ^ .ra: .cfa -24 + ^ x29: .cfa -32 + ^
STACK CFI 4dd14 .cfa: sp 48 +
STACK CFI 4dd20 .cfa: sp 0 +
STACK CFI 4dd24 .cfa: x29 32 +
STACK CFI INIT 4dd28 1c .cfa: sp 0 +
STACK CFI INIT 4dd44 c .cfa: sp 0 +
STACK CFI INIT 4eb30 64 .cfa: sp 0 +
STACK CFI 4eb34 .cfa: sp 32 +
STACK CFI 4eb3c .cfa: x29 32 + x19: .cfa -16 + ^ .ra: .cfa -24 + ^ x29: .cfa -32 + ^
STACK CFI 4eb88 .cfa: sp 32 +
STACK CFI 4eb90 .cfa: sp 0 +
STACK CFI INIT 4eb94 44 .cfa: sp 0 +
STACK CFI 4eb98 .cfa: sp 32 +
STACK CFI 4eba0 .cfa: x29 32 + x19: .cfa -8 + ^ x20: .cfa -16 + ^ .ra: .cfa -24 + ^ x29: .cfa -32 + ^
STACK CFI 4ebcc .cfa: sp 32 +
STACK CFI 4ebd4 .cfa: sp 0 +
STACK CFI INIT 4efb4 a8 .cfa: sp 0 +
STACK CFI 4efb8 .cfa: sp 32 +
STACK CFI 4efc0 .cfa: x29 32 + x19: .cfa -8 + ^ x20: .cfa -16 + ^ .ra: .cfa -24 + ^ x29: .cfa -32 + ^
STACK CFI 4f050 .cfa: sp 32 +
STACK CFI 4f058 .cfa: sp 0 +
STACK CFI INIT 4f05c 4 .cfa: sp 0 +
STACK CFI INIT 4f060 34 .cfa: sp 0 +
STACK CFI 4f064 .cfa: sp 32 +
STACK CFI 4f06c .cfa: x29 32 + x19: .cfa -16 + ^ .ra: .cfa -24 + ^ x29: .cfa -32 + ^
STACK CFI 4f088 .cfa: sp 32 +
STACK CFI 4f090 .cfa: sp 0 +
STACK CFI INIT 4f094 14 .cfa: sp 0 +
STACK CFI INIT 4f0a8 4 .cfa: sp 0 +
STACK CFI INIT 4f0ac 4 .cfa: sp 0 +
STACK CFI INIT 4f0b0 c4 .cfa: sp 0 +
STACK CFI 4f0b4 .cfa: sp 48 +
STACK CFI 4f0c0 .cfa: x29 32 + x19: .cfa -8 + ^ x20: .cfa -16 + ^ .ra: .cfa -24 + ^ x29: .cfa -32 + ^
STACK CFI 4f160 .cfa: sp 48 +
STACK CFI 4f16c .cfa: sp 0 +
STACK CFI 4f170 .cfa: x29 32 +
STACK CFI INIT 4f174 1c .cfa: sp 0 +
STACK CFI INIT 4f190 c .cfa: sp 0 +
STACK CFI INIT 4f940 44 .cfa: sp 0 +
STACK CFI 4f944 .cfa: sp 32 +
STACK CFI 4f94c .cfa: x29 32 + x19: .cfa -8 + ^ x20: .cfa -16 + ^ .ra: .cfa -24 + ^ x29: .cfa -32 + ^
STACK CFI 4f978 .cfa: sp 32 +
STACK CFI 4f980 .cfa: sp 0 +
STACK CFI INIT 4f984 34 .cfa: sp 0 +
STACK CFI 4f988 .cfa: sp 16 +
STACK CFI 4f98c .cfa: x29 16 + .ra: .cfa -8 + ^ x29: .cfa -16 + ^
STACK CFI 4f9b0 .cfa: sp 16 +
STACK CFI 4f9b4 .cfa: sp 0 +
STACK CFI INIT 50c8c 4 .cfa: sp 0 +
STACK CFI INIT 50e64 4a4 .cfa: sp 0 +
STACK CFI 50e68 .cfa: sp 96 +
STACK CFI 50e80 .cfa: x29 96 + x19: .cfa -8 + ^ x20: .cfa -16 + ^ x21: .cfa -24 + ^ x22: .cfa -32 + ^ x23: .cfa -40 + ^ x24: .cfa -48 + ^ x25: .cfa -56 + ^ x26: .cfa -64 + ^ x27: .cfa -72 + ^ x28: .cfa -80 + ^ .ra: .cfa -88 + ^ x29: .cfa -96 + ^
STACK CFI 512b8 .cfa: sp 96 +
STACK CFI 512d0 .cfa: sp 0 +
STACK CFI 512d4 .cfa: x29 96 +
STACK CFI INIT 51308 1a4 .cfa: sp 0 +
STACK CFI 5130c .cfa: sp 64 +
STACK CFI 51318 .cfa: x29 32 + x19: .cfa -8 + ^ x20: .cfa -16 + ^ .ra: .cfa -24 + ^ x29: .cfa -32 + ^
STACK CFI 51444 .cfa: sp 64 +
STACK CFI 51450 .cfa: sp 0 +
STACK CFI 51454 .cfa: x29 32 +
STACK CFI INIT 514ac 17c .cfa: sp 0 +
STACK CFI 514b0 .cfa: sp 16 +
STACK CFI 514b4 .cfa: x29 16 + .ra: .cfa -8 + ^ x29: .cfa -16 + ^
STACK CFI 51608 .cfa: sp 16 +
STACK CFI 5160c .cfa: sp 0 +
STACK CFI 51610 .cfa: x29 16 +
STACK CFI INIT 51628 114 .cfa: sp 0 +
STACK CFI 5162c .cfa: sp 128 +
STACK CFI 5163c .cfa: x29 48 + x19: .cfa -8 + ^ x20: .cfa -16 + ^ x21: .cfa -32 + ^ .ra: .cfa -40 + ^ x29: .cfa -48 + ^
STACK CFI 51708 .cfa: sp 128 +
STACK CFI 51718 .cfa: sp 0 +
STACK CFI 5171c .cfa: x29 48 +
STACK CFI INIT 5173c 114 .cfa: sp 0 +
STACK CFI 51740 .cfa: sp 128 +
STACK CFI 51750 .cfa: x29 48 + x19: .cfa -8 + ^ x20: .cfa -16 + ^ x21: .cfa -32 + ^ .ra: .cfa -40 + ^ x29: .cfa -48 + ^
STACK CFI 5181c .cfa: sp 128 +
STACK CFI 5182c .cfa: sp 0 +
STACK CFI 51830 .cfa: x29 48 +
STACK CFI INIT 51850 27c .cfa: sp 0 +
STACK CFI 51854 .cfa: sp 176 +
STACK CFI 51870 .cfa: x29 96 + x19: .cfa -8 + ^ x20: .cfa -16 + ^ x21: .cfa -24 + ^ x22: .cfa -32 + ^ x23: .cfa -40 + ^ x24: .cfa -48 + ^ x25: .cfa -56 + ^ x26: .cfa -64 + ^ x27: .cfa -72 + ^ x28: .cfa -80 + ^ .ra: .cfa -88 + ^ x29: .cfa -96 + ^
STACK CFI 51aa8 .cfa: sp 176 +
STACK CFI 51ac4 .cfa: sp 0 +
STACK CFI 51ac8 .cfa: x29 96 +
STACK CFI INIT 51acc 200 .cfa: sp 0 +
STACK CFI 51ad0 .cfa: sp 144 +
STACK CFI 51aec .cfa: x29 96 + x19: .cfa -8 + ^ x20: .cfa -16 + ^ x21: .cfa -24 + ^ x22: .cfa -32 + ^ x23: .cfa -40 + ^ x24: .cfa -48 + ^ x25: .cfa -56 + ^ x26: .cfa -64 + ^ x27: .cfa -72 + ^ x28: .cfa -80 + ^ .ra: .cfa -88 + ^ x29: .cfa -96 + ^
STACK CFI 51ca8 .cfa: sp 144 +
STACK CFI 51cc4 .cfa: sp 0 +
STACK CFI 51cc8 .cfa: x29 96 +
STACK CFI INIT 51ccc 20c .cfa: sp 0 +
STACK CFI 51cd0 .cfa: sp 80 +
STACK CFI 51ce4 .cfa: x29 80 + x19: .cfa -8 + ^ x20: .cfa -16 + ^ x21: .cfa -24 + ^ x22: .cfa -32 + ^ x23: .cfa -40 + ^ x24: .cfa -48 + ^ x25: .cfa -64 + ^ .ra: .cfa -72 + ^ x29: .cfa -80 + ^
STACK CFI 51d74 .cfa: sp 80 +
STACK CFI 51d88 .cfa: sp 0 +
STACK CFI 51d8c .cfa: x29 80 +
STACK CFI 51d98 .cfa: sp 80 +
STACK CFI 51dac .cfa: sp 0 +
STACK CFI 51db0 .cfa: x29 80 +
STACK CFI INIT 51ed8 3ac .cfa: sp 0 +
STACK CFI 51edc .cfa: sp 128 +
STACK CFI 51ef8 .cfa: x29 96 + x19: .cfa -8 + ^ x20: .cfa -16 + ^ x21: .cfa -24 + ^ x22: .cfa -32 + ^ x23: .cfa -40 + ^ x24: .cfa -48 + ^ x25: .cfa -56 + ^ x26: .cfa -64 + ^ x27: .cfa -72 + ^ x28: .cfa -80 + ^ .ra: .cfa -88 + ^ x29: .cfa -96 + ^
STACK CFI 52260 .cfa: sp 128 +
STACK CFI 5227c .cfa: sp 0 +
STACK CFI 52280 .cfa: x29 96 +
STACK CFI INIT 52284 194 .cfa: sp 0 +
STACK CFI 52288 .cfa: sp 32 +
STACK CFI 52290 .cfa: x29 16 + .ra: .cfa -8 + ^ x29: .cfa -16 + ^
STACK CFI 522d4 .cfa: sp 32 +
STACK CFI 522dc .cfa: sp 0 +
STACK CFI 522e0 .cfa: x29 16 +
STACK CFI INIT 52418 17c .cfa: sp 0 +
STACK CFI 5241c .cfa: sp 80 +
STACK CFI 52430 .cfa: x29 80 + x19: .cfa -8 + ^ x20: .cfa -16 + ^ x21: .cfa -24 + ^ x22: .cfa -32 + ^ x23: .cfa -40 + ^ x24: .cfa -48 + ^ x25: .cfa -64 + ^ .ra: .cfa -72 + ^ x29: .cfa -80 + ^
STACK CFI 52538 .cfa: sp 80 +
STACK CFI 5254c .cfa: sp 0 +
STACK CFI 52550 .cfa: x29 80 +
STACK CFI INIT 52594 1b8 .cfa: sp 0 +
STACK CFI INIT 5274c 1d0 .cfa: sp 0 +
STACK CFI 52750 .cfa: sp 80 +
STACK CFI 52764 .cfa: x29 80 + x19: .cfa -8 + ^ x20: .cfa -16 + ^ x21: .cfa -24 + ^ x22: .cfa -32 + ^ x23: .cfa -40 + ^ x24: .cfa -48 + ^ x25: .cfa -56 + ^ x26: .cfa -64 + ^ .ra: .cfa -72 + ^ x29: .cfa -80 + ^
STACK CFI 52904 .cfa: sp 80 +
STACK CFI 52918 .cfa: sp 0 +
STACK CFI INIT 5291c 380 .cfa: sp 0 +
STACK CFI 52920 .cfa: sp 144 +
STACK CFI 5293c .cfa: x29 96 + x19: .cfa -8 + ^ x20: .cfa -16 + ^ x21: .cfa -24 + ^ x22: .cfa -32 + ^ x23: .cfa -40 + ^ x24: .cfa -48 + ^ x25: .cfa -56 + ^ x26: .cfa -64 + ^ x27: .cfa -72 + ^ x28: .cfa -80 + ^ .ra: .cfa -88 + ^ x29: .cfa -96 + ^
STACK CFI 52c78 .cfa: sp 144 +
STACK CFI 52c94 .cfa: sp 0 +
STACK CFI 52c98 .cfa: x29 96 +
STACK CFI INIT 52c9c 1e4 .cfa: sp 0 +
STACK CFI 52ca0 .cfa: sp 32 +
STACK CFI 52ca8 .cfa: x29 32 + x19: .cfa -8 + ^ x20: .cfa -16 + ^ .ra: .cfa -24 + ^ x29: .cfa -32 + ^
STACK CFI 52d98 .cfa: sp 32 +
STACK CFI 52da0 .cfa: sp 0 +
STACK CFI 52da4 .cfa: x29 32 +
STACK CFI 52e18 .cfa: sp 32 +
STACK CFI 52e20 .cfa: sp 0 +
STACK CFI 52e24 .cfa: x29 32 +
STACK CFI 52e34 .cfa: sp 32 +
STACK CFI 52e3c .cfa: sp 0 +
STACK CFI 52e40 .cfa: x29 32 +
STACK CFI 52e50 .cfa: sp 32 +
STACK CFI 52e58 .cfa: sp 0 +
STACK CFI 52e5c .cfa: x29 32 +
STACK CFI INIT 52e80 178 .cfa: sp 0 +
STACK CFI 52e84 .cfa: sp 80 +
STACK CFI 52e98 .cfa: x29 64 + x19: .cfa -8 + ^ x20: .cfa -16 + ^ x21: .cfa -24 + ^ x22: .cfa -32 + ^ x23: .cfa -40 + ^ x24: .cfa -48 + ^ .ra: .cfa -56 + ^ x29: .cfa -64 + ^
STACK CFI 52fdc .cfa: sp 80 +
STACK CFI 52ff0 .cfa: sp 0 +
STACK CFI 52ff4 .cfa: x29 64 +
STACK CFI INIT 52ff8 178 .cfa: sp 0 +
STACK CFI 52ffc .cfa: sp 80 +
STACK CFI 53010 .cfa: x29 64 + x19: .cfa -8 + ^ x20: .cfa -16 + ^ x21: .cfa -24 + ^ x22: .cfa -32 + ^ x23: .cfa -40 + ^ x24: .cfa -48 + ^ .ra: .cfa -56 + ^ x29: .cfa -64 + ^
STACK CFI 53154 .cfa: sp 80 +
STACK CFI 53168 .cfa: sp 0 +
STACK CFI 5316c .cfa: x29 64 +
STACK CFI INIT 53170 178 .cfa: sp 0 +
STACK CFI 53174 .cfa: sp 80 +
STACK CFI 53188 .cfa: x29 64 + x19: .cfa -8 + ^ x20: .cfa -16 + ^ x21: .cfa -24 + ^ x22: .cfa -32 + ^ x23: .cfa -40 + ^ x24: .cfa -48 + ^ .ra: .cfa -56 + ^ x29: .cfa -64 + ^
STACK CFI 532cc .cfa: sp 80 +
STACK CFI 532e0 .cfa: sp 0 +
STACK CFI 532e4 .cfa: x29 64 +
STACK CFI INIT 532e8 94 .cfa: sp 0 +
STACK CFI 532ec .cfa: sp 16 +
STACK CFI 532f0 .cfa: x29 16 + .ra: .cfa -8 + ^ x29: .cfa -16 + ^
STACK CFI 53344 .cfa: sp 16 +
STACK CFI 53348 .cfa: sp 0 +
STACK CFI 5334c .cfa: x29 16 +
STACK CFI INIT 5337c 158 .cfa: sp 0 +
STACK CFI 53380 .cfa: sp 112 +
STACK CFI 5339c .cfa: x29 96 + x19: .cfa -8 + ^ x20: .cfa -16 + ^ x21: .cfa -24 + ^ x22: .cfa -32 + ^ x23: .cfa -40 + ^ x24: .cfa -48 + ^ x25: .cfa -56 + ^ x26: .cfa -64 + ^ x27: .cfa -72 + ^ x28: .cfa -80 + ^ .ra: .cfa -88 + ^ x29: .cfa -96 + ^
STACK CFI 53484 .cfa: sp 112 +
STACK CFI 53488 .cfa: x29 96 +
STACK CFI 53490 .cfa: sp 112 +
STACK CFI 534ac .cfa: sp 0 +
STACK CFI 534b0 .cfa: x29 96 +
STACK CFI 534d0 .cfa: sp 112 +
STACK CFI INIT 534d4 94 .cfa: sp 0 +
STACK CFI 534d8 .cfa: sp 16 +
STACK CFI 534dc .cfa: x29 16 + .ra: .cfa -8 + ^ x29: .cfa -16 + ^
STACK CFI 53530 .cfa: sp 16 +
STACK CFI 53534 .cfa: sp 0 +
STACK CFI 53538 .cfa: x29 16 +
STACK CFI INIT 53568 4 .cfa: sp 0 +
STACK CFI INIT 5356c 4 .cfa: sp 0 +
STACK CFI INIT 53570 34 .cfa: sp 0 +
STACK CFI 53574 .cfa: sp 32 +
STACK CFI 5357c .cfa: x29 32 + x19: .cfa -16 + ^ .ra: .cfa -24 + ^ x29: .cfa -32 + ^
STACK CFI 53598 .cfa: sp 32 +
STACK CFI 535a0 .cfa: sp 0 +
STACK CFI INIT 535a4 14 .cfa: sp 0 +
STACK CFI INIT 535b8 4 .cfa: sp 0 +
STACK CFI INIT 535bc 4 .cfa: sp 0 +
STACK CFI INIT 53864 1c .cfa: sp 0 +
STACK CFI INIT 53880 c .cfa: sp 0 +
STACK CFI INIT 5388c 14 .cfa: sp 0 +
STACK CFI 53890 .cfa: sp 16 +
STACK CFI 53894 .cfa: x29 16 + .ra: .cfa -8 + ^ x29: .cfa -16 + ^
STACK CFI INIT 53b40 60 .cfa: sp 0 +
STACK CFI 53b44 .cfa: sp 32 +
STACK CFI 53b4c .cfa: x29 32 + x19: .cfa -8 + ^ x20: .cfa -16 + ^ .ra: .cfa -24 + ^ x29: .cfa -32 + ^
STACK CFI 53b88 .cfa: sp 32 +
STACK CFI 53b90 .cfa: sp 0 +
STACK CFI 53b94 .cfa: sp 32 +
STACK CFI 53b9c .cfa: sp 0 +
STACK CFI INIT 53ba0 3c .cfa: sp 0 +
STACK CFI 53ba4 .cfa: sp 32 +
STACK CFI 53bac .cfa: x29 32 + x19: .cfa -16 + ^ .ra: .cfa -24 + ^ x29: .cfa -32 + ^
STACK CFI 53bc4 .cfa: sp 32 +
STACK CFI 53bcc .cfa: sp 0 +
STACK CFI 53bd0 .cfa: sp 32 +
STACK CFI 53bd8 .cfa: sp 0 +
STACK CFI INIT 53ce4 20 .cfa: sp 0 +
STACK CFI INIT 53d54 c .cfa: sp 0 +
STACK CFI INIT 53d60 1c .cfa: sp 0 +
STACK CFI INIT 53d7c c .cfa: sp 0 +
STACK CFI INIT 54f28 64 .cfa: sp 0 +
STACK CFI 54f2c .cfa: sp 32 +
STACK CFI 54f34 .cfa: x29 32 + x19: .cfa -16 + ^ .ra: .cfa -24 + ^ x29: .cfa -32 + ^
STACK CFI 54f80 .cfa: sp 32 +
STACK CFI 54f88 .cfa: sp 0 +
STACK CFI INIT 54f8c 44 .cfa: sp 0 +
STACK CFI 54f90 .cfa: sp 32 +
STACK CFI 54f98 .cfa: x29 32 + x19: .cfa -8 + ^ x20: .cfa -16 + ^ .ra: .cfa -24 + ^ x29: .cfa -32 + ^
STACK CFI 54fc4 .cfa: sp 32 +
STACK CFI 54fcc .cfa: sp 0 +
STACK CFI INIT 553ac a8 .cfa: sp 0 +
STACK CFI 553b0 .cfa: sp 32 +
STACK CFI 553b8 .cfa: x29 32 + x19: .cfa -8 + ^ x20: .cfa -16 + ^ .ra: .cfa -24 + ^ x29: .cfa -32 + ^
STACK CFI 55448 .cfa: sp 32 +
STACK CFI 55450 .cfa: sp 0 +
STACK CFI INIT 55454 4 .cfa: sp 0 +
STACK CFI INIT 55458 34 .cfa: sp 0 +
STACK CFI 5545c .cfa: sp 32 +
STACK CFI 55464 .cfa: x29 32 + x19: .cfa -16 + ^ .ra: .cfa -24 + ^ x29: .cfa -32 + ^
STACK CFI 55480 .cfa: sp 32 +
STACK CFI 55488 .cfa: sp 0 +
STACK CFI INIT 5548c 14 .cfa: sp 0 +
STACK CFI INIT 554a0 4 .cfa: sp 0 +
STACK CFI INIT 554a4 4 .cfa: sp 0 +
STACK CFI INIT 554a8 c4 .cfa: sp 0 +
STACK CFI 554ac .cfa: sp 48 +
STACK CFI 554b8 .cfa: x29 32 + x19: .cfa -8 + ^ x20: .cfa -16 + ^ .ra: .cfa -24 + ^ x29: .cfa -32 + ^
STACK CFI 55558 .cfa: sp 48 +
STACK CFI 55564 .cfa: sp 0 +
STACK CFI 55568 .cfa: x29 32 +
STACK CFI INIT 5556c 1c .cfa: sp 0 +
STACK CFI INIT 55588 c .cfa: sp 0 +
STACK CFI INIT 55594 30 .cfa: sp 0 +
STACK CFI 55598 .cfa: sp 32 +
STACK CFI 555a0 .cfa: x29 32 + x19: .cfa -16 + ^ .ra: .cfa -24 + ^ x29: .cfa -32 + ^
STACK CFI 555b8 .cfa: sp 32 +
STACK CFI 555c0 .cfa: sp 0 +
STACK CFI INIT 555c4 4c .cfa: sp 0 +
STACK CFI 555c8 .cfa: sp 32 +
STACK CFI 555d0 .cfa: x29 32 + x19: .cfa -8 + ^ x20: .cfa -16 + ^ .ra: .cfa -24 + ^ x29: .cfa -32 + ^
STACK CFI 555f8 .cfa: sp 32 +
STACK CFI 55600 .cfa: sp 0 +
STACK CFI 55604 .cfa: sp 32 +
STACK CFI 5560c .cfa: sp 0 +
STACK CFI INIT 55830 64 .cfa: sp 0 +
STACK CFI 55834 .cfa: sp 32 +
STACK CFI 5583c .cfa: x29 32 + x19: .cfa -16 + ^ .ra: .cfa -24 + ^ x29: .cfa -32 + ^
STACK CFI 55868 .cfa: sp 32 +
STACK CFI 55870 .cfa: sp 0 +
STACK CFI 55874 .cfa: x29 32 +
STACK CFI 55888 .cfa: sp 32 +
STACK CFI 55890 .cfa: sp 0 +
STACK CFI INIT 55ab8 24 .cfa: sp 0 +
STACK CFI 55abc .cfa: sp 32 +
STACK CFI 55ac4 .cfa: x29 32 + x19: .cfa -16 + ^ .ra: .cfa -24 + ^ x29: .cfa -32 + ^
STACK CFI 55ad0 .cfa: sp 32 +
STACK CFI 55ad8 .cfa: sp 0 +
STACK CFI INIT 55d38 24 .cfa: sp 0 +
STACK CFI 55d3c .cfa: sp 32 +
STACK CFI 55d44 .cfa: x29 32 + x19: .cfa -16 + ^ .ra: .cfa -24 + ^ x29: .cfa -32 + ^
STACK CFI 55d50 .cfa: sp 32 +
STACK CFI 55d58 .cfa: sp 0 +
STACK CFI INIT 55fc8 24 .cfa: sp 0 +
STACK CFI 55fcc .cfa: sp 32 +
STACK CFI 55fd4 .cfa: x29 32 + x19: .cfa -16 + ^ .ra: .cfa -24 + ^ x29: .cfa -32 + ^
STACK CFI 55fe0 .cfa: sp 32 +
STACK CFI 55fe8 .cfa: sp 0 +
STACK CFI INIT 56264 24 .cfa: sp 0 +
STACK CFI 56268 .cfa: sp 32 +
STACK CFI 56270 .cfa: x29 32 + x19: .cfa -16 + ^ .ra: .cfa -24 + ^ x29: .cfa -32 + ^
STACK CFI 5627c .cfa: sp 32 +
STACK CFI 56284 .cfa: sp 0 +
STACK CFI INIT 56948 24 .cfa: sp 0 +
STACK CFI 5694c .cfa: sp 32 +
STACK CFI 56954 .cfa: x29 32 + x19: .cfa -16 + ^ .ra: .cfa -24 + ^ x29: .cfa -32 + ^
STACK CFI 56960 .cfa: sp 32 +
STACK CFI 56968 .cfa: sp 0 +
STACK CFI INIT 56dbc 24 .cfa: sp 0 +
STACK CFI 56dc0 .cfa: sp 32 +
STACK CFI 56dc8 .cfa: x29 32 + x19: .cfa -16 + ^ .ra: .cfa -24 + ^ x29: .cfa -32 + ^
STACK CFI 56dd4 .cfa: sp 32 +
STACK CFI 56ddc .cfa: sp 0 +
STACK CFI INIT 57414 44 .cfa: sp 0 +
STACK CFI 57418 .cfa: sp 32 +
STACK CFI 57420 .cfa: x29 32 + x19: .cfa -16 + ^ .ra: .cfa -24 + ^ x29: .cfa -32 + ^
STACK CFI 5744c .cfa: sp 32 +
STACK CFI 57454 .cfa: sp 0 +
STACK CFI INIT 57458 4c .cfa: sp 0 +
STACK CFI 5745c .cfa: sp 32 +
STACK CFI 57464 .cfa: x29 32 + x19: .cfa -16 + ^ .ra: .cfa -24 + ^ x29: .cfa -32 + ^
STACK CFI 57498 .cfa: sp 32 +
STACK CFI 574a0 .cfa: sp 0 +
STACK CFI INIT 58be0 4 .cfa: sp 0 +
STACK CFI INIT 58be4 14 .cfa: sp 0 +
STACK CFI INIT 59034 c .cfa: sp 0 +
STACK CFI INIT 59040 24c .cfa: sp 0 +
STACK CFI INIT 5928c a0 .cfa: sp 0 +
STACK CFI 59298 .cfa: sp 32 +
STACK CFI 592f0 .cfa: sp 0 +
STACK CFI 592f4 .cfa: sp 32 +
STACK CFI 592fc .cfa: sp 0 +
STACK CFI 59300 .cfa: sp 32 +
STACK CFI 59314 .cfa: sp 0 +
STACK CFI 59318 .cfa: sp 32 +
STACK CFI 59328 .cfa: sp 0 +
STACK CFI INIT 5932c 38 .cfa: sp 0 +
STACK CFI 59338 .cfa: sp 32 +
STACK CFI 59360 .cfa: sp 0 +
STACK CFI INIT 595f8 70 .cfa: sp 0 +
STACK CFI 595fc .cfa: sp 32 +
STACK CFI 59604 .cfa: x29 32 + x19: .cfa -16 + ^ .ra: .cfa -24 + ^ x29: .cfa -32 + ^
STACK CFI 59638 .cfa: sp 32 +
STACK CFI 59640 .cfa: sp 0 +
STACK CFI 59644 .cfa: x29 32 +
STACK CFI INIT 596b8 2c .cfa: sp 0 +
STACK CFI 596bc .cfa: sp 32 +
STACK CFI 596c4 .cfa: x29 32 + x19: .cfa -16 + ^ .ra: .cfa -24 + ^ x29: .cfa -32 + ^
STACK CFI 596d8 .cfa: sp 32 +
STACK CFI 596e0 .cfa: sp 0 +
STACK CFI INIT 59e34 64 .cfa: sp 0 +
STACK CFI 59e38 .cfa: sp 32 +
STACK CFI 59e40 .cfa: x29 32 + x19: .cfa -16 + ^ .ra: .cfa -24 + ^ x29: .cfa -32 + ^
STACK CFI 59e5c .cfa: sp 32 +
STACK CFI 59e64 .cfa: sp 0 +
STACK CFI 59e68 .cfa: x29 32 +
STACK CFI 59e8c .cfa: sp 32 +
STACK CFI 59e94 .cfa: sp 0 +
STACK CFI INIT 59fc4 3c8 .cfa: sp 0 +
STACK CFI 59fc8 .cfa: sp 208 +
STACK CFI 59fdc .cfa: x29 64 + x19: .cfa -8 + ^ x20: .cfa -16 + ^ x21: .cfa -24 + ^ x22: .cfa -32 + ^ x23: .cfa -40 + ^ x24: .cfa -48 + ^ .ra: .cfa -56 + ^ x29: .cfa -64 + ^
STACK CFI 5a1f4 .cfa: sp 208 +
STACK CFI 5a208 .cfa: sp 0 +
STACK CFI 5a20c .cfa: x29 64 +
STACK CFI INIT 5a38c 228 .cfa: sp 0 +
STACK CFI INIT 5a5b4 2b4 .cfa: sp 0 +
STACK CFI INIT 5a868 530 .cfa: sp 0 +
STACK CFI INIT 5ad98 78 .cfa: sp 0 +
STACK CFI 5ad9c .cfa: sp 48 +
STACK CFI 5ada8 .cfa: x29 48 + x19: .cfa -8 + ^ x20: .cfa -16 + ^ x21: .cfa -24 + ^ x22: .cfa -32 + ^ .ra: .cfa -40 + ^ x29: .cfa -48 + ^
STACK CFI 5adf0 .cfa: sp 48 +
STACK CFI 5adfc .cfa: sp 0 +
STACK CFI 5ae00 .cfa: sp 48 +
STACK CFI 5ae0c .cfa: sp 0 +
STACK CFI INIT 5ae10 78 .cfa: sp 0 +
STACK CFI 5ae14 .cfa: sp 32 +
STACK CFI 5ae1c .cfa: x29 32 + x19: .cfa -16 + ^ .ra: .cfa -24 + ^ x29: .cfa -32 + ^
STACK CFI 5ae58 .cfa: sp 32 +
STACK CFI 5ae60 .cfa: sp 0 +
STACK CFI 5ae64 .cfa: x29 32 +
STACK CFI INIT 5ae88 24 .cfa: sp 0 +
STACK CFI 5ae8c .cfa: sp 32 +
STACK CFI 5ae94 .cfa: x29 32 + x19: .cfa -16 + ^ .ra: .cfa -24 + ^ x29: .cfa -32 + ^
STACK CFI 5aea0 .cfa: sp 32 +
STACK CFI 5aea8 .cfa: sp 0 +
STACK CFI INIT 5aeac 150 .cfa: sp 0 +
STACK CFI 5aeb0 .cfa: sp 48 +
STACK CFI 5aebc .cfa: x29 48 + x19: .cfa -8 + ^ x20: .cfa -16 + ^ x21: .cfa -24 + ^ x22: .cfa -32 + ^ .ra: .cfa -40 + ^ x29: .cfa -48 + ^
STACK CFI 5afec .cfa: sp 48 +
STACK CFI 5aff8 .cfa: sp 0 +
STACK CFI INIT 5affc 6c .cfa: sp 0 +
STACK CFI 5b000 .cfa: sp 64 +
STACK CFI 5b00c .cfa: x29 32 + x19: .cfa -16 + ^ .ra: .cfa -24 + ^ x29: .cfa -32 + ^
STACK CFI 5b054 .cfa: sp 64 +
STACK CFI 5b060 .cfa: sp 0 +
STACK CFI 5b064 .cfa: x29 32 +
STACK CFI INIT 5b068 74 .cfa: sp 0 +
STACK CFI 5b06c .cfa: sp 32 +
STACK CFI 5b074 .cfa: x29 32 + x19: .cfa -8 + ^ x20: .cfa -16 + ^ .ra: .cfa -24 + ^ x29: .cfa -32 + ^
STACK CFI 5b0d0 .cfa: sp 32 +
STACK CFI 5b0d8 .cfa: sp 0 +
STACK CFI INIT 5b0dc f0 .cfa: sp 0 +
STACK CFI 5b0e0 .cfa: sp 112 +
STACK CFI 5b0f0 .cfa: x29 48 + x19: .cfa -8 + ^ x20: .cfa -16 + ^ x21: .cfa -32 + ^ .ra: .cfa -40 + ^ x29: .cfa -48 + ^
STACK CFI 5b1b4 .cfa: sp 112 +
STACK CFI 5b1c4 .cfa: sp 0 +
STACK CFI 5b1c8 .cfa: x29 48 +
STACK CFI INIT 5b1cc f0 .cfa: sp 0 +
STACK CFI 5b1d0 .cfa: sp 112 +
STACK CFI 5b1e0 .cfa: x29 48 + x19: .cfa -8 + ^ x20: .cfa -16 + ^ x21: .cfa -32 + ^ .ra: .cfa -40 + ^ x29: .cfa -48 + ^
STACK CFI 5b2a4 .cfa: sp 112 +
STACK CFI 5b2b4 .cfa: sp 0 +
STACK CFI 5b2b8 .cfa: x29 48 +
STACK CFI INIT 5b2bc 48 .cfa: sp 0 +
STACK CFI 5b2c0 .cfa: sp 32 +
STACK CFI 5b2c8 .cfa: x29 32 + x19: .cfa -8 + ^ x20: .cfa -16 + ^ .ra: .cfa -24 + ^ x29: .cfa -32 + ^
STACK CFI 5b2ec .cfa: sp 32 +
STACK CFI 5b2f4 .cfa: sp 0 +
STACK CFI 5b2f8 .cfa: x29 32 +
STACK CFI INIT 5b304 9c .cfa: sp 0 +
STACK CFI 5b308 .cfa: sp 80 +
STACK CFI 5b314 .cfa: x29 32 + x19: .cfa -16 + ^ .ra: .cfa -24 + ^ x29: .cfa -32 + ^
STACK CFI 5b38c .cfa: sp 80 +
STACK CFI 5b398 .cfa: sp 0 +
STACK CFI 5b39c .cfa: x29 32 +
STACK CFI INIT 5b3a0 220 .cfa: sp 0 +
STACK CFI 5b3a4 .cfa: sp 112 +
STACK CFI 5b3bc .cfa: x29 80 + x19: .cfa -8 + ^ x20: .cfa -16 + ^ x21: .cfa -24 + ^ x22: .cfa -32 + ^ x23: .cfa -40 + ^ x24: .cfa -48 + ^ x25: .cfa -64 + ^ .ra: .cfa -72 + ^ x29: .cfa -80 + ^
STACK CFI 5b580 .cfa: sp 112 +
STACK CFI 5b598 .cfa: sp 0 +
STACK CFI 5b59c .cfa: x29 80 +
STACK CFI INIT 5b5c0 150 .cfa: sp 0 +
STACK CFI 5b5c4 .cfa: sp 48 +
STACK CFI 5b5d0 .cfa: x29 48 + x19: .cfa -8 + ^ x20: .cfa -16 + ^ x21: .cfa -24 + ^ x22: .cfa -32 + ^ .ra: .cfa -40 + ^ x29: .cfa -48 + ^
STACK CFI 5b700 .cfa: sp 48 +
STACK CFI 5b70c .cfa: sp 0 +
STACK CFI INIT 5b710 1c4 .cfa: sp 0 +
STACK CFI 5b714 .cfa: sp 96 +
STACK CFI 5b728 .cfa: x29 64 + x19: .cfa -8 + ^ x20: .cfa -16 + ^ x21: .cfa -24 + ^ x22: .cfa -32 + ^ x23: .cfa -40 + ^ x24: .cfa -48 + ^ .ra: .cfa -56 + ^ x29: .cfa -64 + ^
STACK CFI 5b898 .cfa: sp 96 +
STACK CFI 5b8ac .cfa: sp 0 +
STACK CFI 5b8b0 .cfa: x29 64 +
STACK CFI INIT 5b8d4 244 .cfa: sp 0 +
STACK CFI 5b8d8 .cfa: sp 112 +
STACK CFI 5b8f0 .cfa: x29 80 + x19: .cfa -8 + ^ x20: .cfa -16 + ^ x21: .cfa -24 + ^ x22: .cfa -32 + ^ x23: .cfa -40 + ^ x24: .cfa -48 + ^ x25: .cfa -64 + ^ .ra: .cfa -72 + ^ x29: .cfa -80 + ^
STACK CFI 5bad8 .cfa: sp 112 +
STACK CFI 5baf0 .cfa: sp 0 +
STACK CFI 5baf4 .cfa: x29 80 +
STACK CFI INIT 5bb18 1ec .cfa: sp 0 +
STACK CFI 5bb1c .cfa: sp 96 +
STACK CFI 5bb30 .cfa: x29 64 + x19: .cfa -8 + ^ x20: .cfa -16 + ^ x21: .cfa -24 + ^ x22: .cfa -32 + ^ x23: .cfa -40 + ^ x24: .cfa -48 + ^ .ra: .cfa -56 + ^ x29: .cfa -64 + ^
STACK CFI 5bcc8 .cfa: sp 96 +
STACK CFI 5bcdc .cfa: sp 0 +
STACK CFI 5bce0 .cfa: x29 64 +
STACK CFI INIT 5bd04 304 .cfa: sp 0 +
STACK CFI 5bd08 .cfa: sp 160 +
STACK CFI 5bd24 .cfa: x29 96 + x19: .cfa -8 + ^ x20: .cfa -16 + ^ x21: .cfa -24 + ^ x22: .cfa -32 + ^ x23: .cfa -40 + ^ x24: .cfa -48 + ^ x25: .cfa -56 + ^ x26: .cfa -64 + ^ x27: .cfa -72 + ^ x28: .cfa -80 + ^ .ra: .cfa -88 + ^ x29: .cfa -96 + ^
STACK CFI 5bfac .cfa: sp 160 +
STACK CFI 5bfc8 .cfa: sp 0 +
STACK CFI 5bfcc .cfa: x29 96 +
STACK CFI INIT 5c008 2a4 .cfa: sp 0 +
STACK CFI 5c00c .cfa: sp 144 +
STACK CFI 5c028 .cfa: x29 96 + x19: .cfa -8 + ^ x20: .cfa -16 + ^ x21: .cfa -24 + ^ x22: .cfa -32 + ^ x23: .cfa -40 + ^ x24: .cfa -48 + ^ x25: .cfa -56 + ^ x26: .cfa -64 + ^ x27: .cfa -72 + ^ x28: .cfa -80 + ^ .ra: .cfa -88 + ^ x29: .cfa -96 + ^
STACK CFI 5c250 .cfa: sp 144 +
STACK CFI 5c26c .cfa: sp 0 +
STACK CFI 5c270 .cfa: x29 96 +
STACK CFI INIT 5c2ac 2b4 .cfa: sp 0 +
STACK CFI 5c2b0 .cfa: sp 128 +
STACK CFI 5c2c8 .cfa: x29 80 + x19: .cfa -8 + ^ x20: .cfa -16 + ^ x21: .cfa -24 + ^ x22: .cfa -32 + ^ x23: .cfa -40 + ^ x24: .cfa -48 + ^ x25: .cfa -56 + ^ x26: .cfa -64 + ^ .ra: .cfa -72 + ^ x29: .cfa -80 + ^
STACK CFI 5c4bc .cfa: sp 128 +
STACK CFI 5c4d4 .cfa: sp 0 +
STACK CFI 5c4d8 .cfa: x29 80 +
STACK CFI 5c540 .cfa: sp 128 +
STACK CFI 5c558 .cfa: sp 0 +
STACK CFI 5c55c .cfa: x29 80 +
STACK CFI INIT 5c560 dd4 .cfa: sp 0 +
STACK CFI 5c564 .cfa: sp 144 +
STACK CFI 5c580 .cfa: x29 96 + x19: .cfa -8 + ^ x20: .cfa -16 + ^ x21: .cfa -24 + ^ x22: .cfa -32 + ^ x23: .cfa -40 + ^ x24: .cfa -48 + ^ x25: .cfa -56 + ^ x26: .cfa -64 + ^ x27: .cfa -72 + ^ x28: .cfa -80 + ^ .ra: .cfa -88 + ^ x29: .cfa -96 + ^
STACK CFI 5d310 .cfa: sp 144 +
STACK CFI 5d32c .cfa: sp 0 +
STACK CFI 5d330 .cfa: x29 96 +
STACK CFI INIT 5d334 254 .cfa: sp 0 +
STACK CFI 5d338 .cfa: sp 112 +
STACK CFI 5d34c .cfa: x29 64 + x19: .cfa -8 + ^ x20: .cfa -16 + ^ x21: .cfa -24 + ^ x22: .cfa -32 + ^ x23: .cfa -40 + ^ x24: .cfa -48 + ^ .ra: .cfa -56 + ^ x29: .cfa -64 + ^
STACK CFI 5d4b8 .cfa: sp 112 +
STACK CFI 5d4cc .cfa: sp 0 +
STACK CFI 5d4d0 .cfa: x29 64 +
STACK CFI 5d540 .cfa: sp 112 +
STACK CFI 5d554 .cfa: sp 0 +
STACK CFI 5d558 .cfa: x29 64 +
STACK CFI INIT 5d588 258 .cfa: sp 0 +
STACK CFI 5d58c .cfa: sp 96 +
STACK CFI 5d5a4 .cfa: x29 96 + x19: .cfa -8 + ^ x20: .cfa -16 + ^ x21: .cfa -24 + ^ x22: .cfa -32 + ^ x23: .cfa -40 + ^ x24: .cfa -48 + ^ x25: .cfa -56 + ^ x26: .cfa -64 + ^ x27: .cfa -72 + ^ x28: .cfa -80 + ^ .ra: .cfa -88 + ^ x29: .cfa -96 + ^
STACK CFI 5d79c .cfa: sp 96 +
STACK CFI 5d7b4 .cfa: sp 0 +
STACK CFI 5d7b8 .cfa: x29 96 +
STACK CFI 5d7c4 .cfa: sp 96 +
STACK CFI 5d7dc .cfa: sp 0 +
STACK CFI INIT 5e41c 154 .cfa: sp 0 +
STACK CFI 5e420 .cfa: sp 96 +
STACK CFI 5e434 .cfa: x29 64 + x19: .cfa -8 + ^ x20: .cfa -16 + ^ x21: .cfa -24 + ^ x22: .cfa -32 + ^ x23: .cfa -48 + ^ .ra: .cfa -56 + ^ x29: .cfa -64 + ^
STACK CFI 5e514 .cfa: sp 96 +
STACK CFI 5e528 .cfa: sp 0 +
STACK CFI 5e52c .cfa: x29 64 +
STACK CFI INIT 5e7a8 44 .cfa: sp 0 +
STACK CFI 5e7ac .cfa: sp 32 +
STACK CFI 5e7b4 .cfa: x29 32 + x19: .cfa -16 + ^ .ra: .cfa -24 + ^ x29: .cfa -32 + ^
STACK CFI 5e7d0 .cfa: sp 32 +
STACK CFI 5e7d8 .cfa: sp 0 +
STACK CFI 5e7dc .cfa: x29 32 +
STACK CFI 5e7e0 .cfa: sp 32 +
STACK CFI 5e7e8 .cfa: sp 0 +
STACK CFI INIT 5e7ec 1a4 .cfa: sp 0 +
STACK CFI 5e7f0 .cfa: sp 64 +
STACK CFI 5e800 .cfa: x29 64 + x19: .cfa -8 + ^ x20: .cfa -16 + ^ x21: .cfa -24 + ^ x22: .cfa -32 + ^ x23: .cfa -40 + ^ x24: .cfa -48 + ^ .ra: .cfa -56 + ^ x29: .cfa -64 + ^
STACK CFI 5e97c .cfa: sp 64 +
STACK CFI 5e98c .cfa: sp 0 +
STACK CFI INIT 5e990 17c .cfa: sp 0 +
STACK CFI INIT 5eeb0 a0 .cfa: sp 0 +
STACK CFI 5eeb4 .cfa: sp 48 +
STACK CFI 5eec0 .cfa: x29 48 + x19: .cfa -8 + ^ x20: .cfa -16 + ^ x21: .cfa -24 + ^ x22: .cfa -32 + ^ .ra: .cfa -40 + ^ x29: .cfa -48 + ^
STACK CFI 5ef2c .cfa: sp 48 +
STACK CFI 5ef38 .cfa: sp 0 +
STACK CFI 5ef3c .cfa: sp 48 +
STACK CFI 5ef48 .cfa: sp 0 +
STACK CFI 5ef4c .cfa: x29 48 +
STACK CFI INIT 5fbc8 158 .cfa: sp 0 +
STACK CFI 5fbcc .cfa: sp 96 +
STACK CFI 5fbe0 .cfa: x29 64 + x19: .cfa -8 + ^ x20: .cfa -16 + ^ x21: .cfa -24 + ^ x22: .cfa -32 + ^ x23: .cfa -48 + ^ .ra: .cfa -56 + ^ x29: .cfa -64 + ^
STACK CFI 5fcc4 .cfa: sp 96 +
STACK CFI 5fcd8 .cfa: sp 0 +
STACK CFI 5fcdc .cfa: x29 64 +
STACK CFI INIT 5fd20 190 .cfa: sp 0 +
STACK CFI INIT 60980 1f4 .cfa: sp 0 +
STACK CFI 60984 .cfa: sp 80 +
STACK CFI 60998 .cfa: x29 80 + x19: .cfa -8 + ^ x20: .cfa -16 + ^ x21: .cfa -24 + ^ x22: .cfa -32 + ^ x23: .cfa -40 + ^ x24: .cfa -48 + ^ x25: .cfa -64 + ^ .ra: .cfa -72 + ^ x29: .cfa -80 + ^
STACK CFI 60b38 .cfa: sp 80 +
STACK CFI 60b4c .cfa: sp 0 +
STACK CFI 60b50 .cfa: x29 80 +
STACK CFI 60b5c .cfa: sp 80 +
STACK CFI 60b70 .cfa: sp 0 +
STACK CFI INIT 61ec4 124 .cfa: sp 0 +
STACK CFI 61ef4 .cfa: sp 32 +
STACK CFI 61efc .cfa: x29 32 + x19: .cfa -8 + ^ x20: .cfa -16 + ^ .ra: .cfa -24 + ^ x29: .cfa -32 + ^
STACK CFI 61fdc .cfa: sp 32 +
STACK CFI 61fe4 .cfa: sp 0 +
STACK CFI INIT 6272c 2f4 .cfa: sp 0 +
STACK CFI 62730 .cfa: sp 64 +
STACK CFI 62740 .cfa: x29 64 + x19: .cfa -8 + ^ x20: .cfa -16 + ^ x21: .cfa -24 + ^ x22: .cfa -32 + ^ x23: .cfa -40 + ^ x24: .cfa -48 + ^ .ra: .cfa -56 + ^ x29: .cfa -64 + ^
STACK CFI 6299c .cfa: sp 64 +
STACK CFI 629ac .cfa: sp 0 +
STACK CFI 629b0 .cfa: x29 64 +
STACK CFI INIT 62a20 a0 .cfa: sp 0 +
STACK CFI 62a24 .cfa: sp 48 +
STACK CFI 62a30 .cfa: x29 48 + x19: .cfa -8 + ^ x20: .cfa -16 + ^ x21: .cfa -24 + ^ x22: .cfa -32 + ^ .ra: .cfa -40 + ^ x29: .cfa -48 + ^
STACK CFI 62a9c .cfa: sp 48 +
STACK CFI 62aa8 .cfa: sp 0 +
STACK CFI 62aac .cfa: sp 48 +
STACK CFI 62ab8 .cfa: sp 0 +
STACK CFI 62abc .cfa: x29 48 +
STACK CFI INIT 6394c 160 .cfa: sp 0 +
STACK CFI 63950 .cfa: sp 64 +
STACK CFI 63960 .cfa: x29 64 + x19: .cfa -8 + ^ x20: .cfa -16 + ^ x21: .cfa -24 + ^ x22: .cfa -32 + ^ x23: .cfa -48 + ^ .ra: .cfa -56 + ^ x29: .cfa -64 + ^
STACK CFI 63a58 .cfa: sp 64 +
STACK CFI 63a68 .cfa: sp 0 +
STACK CFI 63a6c .cfa: x29 64 +
STACK CFI INIT 63aac 214 .cfa: sp 0 +
STACK CFI 63ab0 .cfa: sp 128 +
STACK CFI 63acc .cfa: x29 96 + x19: .cfa -8 + ^ x20: .cfa -16 + ^ x21: .cfa -24 + ^ x22: .cfa -32 + ^ x23: .cfa -40 + ^ x24: .cfa -48 + ^ x25: .cfa -56 + ^ x26: .cfa -64 + ^ x27: .cfa -80 + ^ .ra: .cfa -88 + ^ x29: .cfa -96 + ^
STACK CFI 63c48 .cfa: sp 128 +
STACK CFI 63c64 .cfa: sp 0 +
STACK CFI 63c68 .cfa: x29 96 +
STACK CFI INIT 65184 e30 .cfa: sp 0 +
STACK CFI 65188 .cfa: sp 192 +
STACK CFI 651a4 .cfa: x29 96 + x19: .cfa -8 + ^ x20: .cfa -16 + ^ x21: .cfa -24 + ^ x22: .cfa -32 + ^ x23: .cfa -40 + ^ x24: .cfa -48 + ^ x25: .cfa -56 + ^ x26: .cfa -64 + ^ x27: .cfa -72 + ^ x28: .cfa -80 + ^ .ra: .cfa -88 + ^ x29: .cfa -96 + ^
STACK CFI 65f90 .cfa: sp 192 +
STACK CFI 65fac .cfa: sp 0 +
STACK CFI 65fb0 .cfa: x29 96 +
STACK CFI INIT 65fb4 fd4 .cfa: sp 0 +
STACK CFI 65fb8 .cfa: sp 288 +
STACK CFI 65fd4 .cfa: x29 96 + x19: .cfa -8 + ^ x20: .cfa -16 + ^ x21: .cfa -24 + ^ x22: .cfa -32 + ^ x23: .cfa -40 + ^ x24: .cfa -48 + ^ x25: .cfa -56 + ^ x26: .cfa -64 + ^ x27: .cfa -72 + ^ x28: .cfa -80 + ^ .ra: .cfa -88 + ^ x29: .cfa -96 + ^
STACK CFI 66f64 .cfa: sp 288 +
STACK CFI 66f80 .cfa: sp 0 +
STACK CFI 66f84 .cfa: x29 96 +
STACK CFI INIT 66f88 510 .cfa: sp 0 +
STACK CFI 66f8c .cfa: sp 144 +
STACK CFI 66fa8 .cfa: x29 96 + x19: .cfa -8 + ^ x20: .cfa -16 + ^ x21: .cfa -24 + ^ x22: .cfa -32 + ^ x23: .cfa -40 + ^ x24: .cfa -48 + ^ x25: .cfa -56 + ^ x26: .cfa -64 + ^ x27: .cfa -72 + ^ x28: .cfa -80 + ^ .ra: .cfa -88 + ^ x29: .cfa -96 + ^
STACK CFI 67474 .cfa: sp 144 +
STACK CFI 67490 .cfa: sp 0 +
STACK CFI 67494 .cfa: x29 96 +
STACK CFI INIT 2a220 20 .cfa: sp 0 +
STACK CFI 2a224 .cfa: sp 16 +
STACK CFI 2a228 .cfa: x29 16 + .ra: .cfa -8 + ^ x29: .cfa -16 + ^
STACK CFI 2a234 .cfa: sp 16 +
STACK CFI 2a238 .cfa: sp 0 +
STACK CFI 2a23c .cfa: x29 16 +
STACK CFI INIT 2a9f0 400 .cfa: sp 0 +
STACK CFI 2a9f4 .cfa: sp 224 +
STACK CFI 2aa10 .cfa: x29 96 + x19: .cfa -8 + ^ x20: .cfa -16 + ^ x21: .cfa -24 + ^ x22: .cfa -32 + ^ x23: .cfa -40 + ^ x24: .cfa -48 + ^ x25: .cfa -56 + ^ x26: .cfa -64 + ^ x27: .cfa -72 + ^ x28: .cfa -80 + ^ .ra: .cfa -88 + ^ x29: .cfa -96 + ^
STACK CFI 2ace8 .cfa: sp 224 +
STACK CFI 2ad04 .cfa: sp 0 +
STACK CFI 2ad08 .cfa: x29 96 +
STACK CFI INIT 2ae0c 3dc .cfa: sp 0 +
STACK CFI 2ae10 .cfa: sp 256 +
STACK CFI 2ae24 .cfa: x29 64 + x19: .cfa -8 + ^ x20: .cfa -16 + ^ x21: .cfa -24 + ^ x22: .cfa -32 + ^ x23: .cfa -48 + ^ .ra: .cfa -56 + ^ x29: .cfa -64 + ^
STACK CFI 2b0c0 .cfa: sp 256 +
STACK CFI 2b0d4 .cfa: sp 0 +
STACK CFI 2b0d8 .cfa: x29 64 +
STACK CFI INIT 2b238 74 .cfa: sp 0 +
STACK CFI 2b23c .cfa: sp 48 +
STACK CFI 2b248 .cfa: x29 32 + x19: .cfa -8 + ^ x20: .cfa -16 + ^ .ra: .cfa -24 + ^ x29: .cfa -32 + ^
STACK CFI 2b294 .cfa: sp 48 +
STACK CFI 2b2a0 .cfa: sp 0 +
STACK CFI 2b2a4 .cfa: x29 32 +
STACK CFI INIT 2b32c 154 .cfa: sp 0 +
STACK CFI 2b330 .cfa: sp 384 +
STACK CFI 2b344 .cfa: x29 64 + x19: .cfa -8 + ^ x20: .cfa -16 + ^ x21: .cfa -24 + ^ x22: .cfa -32 + ^ x23: .cfa -40 + ^ x28: .cfa -48 + ^ .ra: .cfa -56 + ^ x29: .cfa -64 + ^
STACK CFI 2b428 .cfa: sp 384 +
STACK CFI 2b43c .cfa: sp 0 +
STACK CFI 2b440 .cfa: x29 64 +
STACK CFI INIT 2b4b4 124 .cfa: sp 0 +
STACK CFI 2b4b8 .cfa: sp 80 +
STACK CFI 2b4cc .cfa: x29 80 + x19: .cfa -8 + ^ x20: .cfa -16 + ^ x21: .cfa -24 + ^ x22: .cfa -32 + ^ x23: .cfa -40 + ^ x24: .cfa -48 + ^ x25: .cfa -56 + ^ x26: .cfa -64 + ^ .ra: .cfa -72 + ^ x29: .cfa -80 + ^
STACK CFI 2b598 .cfa: sp 80 +
STACK CFI 2b5ac .cfa: sp 0 +
STACK CFI 2b5b0 .cfa: x29 80 +
STACK CFI INIT 2b67c 198 .cfa: sp 0 +
STACK CFI 2b680 .cfa: sp 112 +
STACK CFI 2b698 .cfa: x29 80 + x19: .cfa -8 + ^ x20: .cfa -16 + ^ x21: .cfa -24 + ^ x22: .cfa -32 + ^ x23: .cfa -40 + ^ x24: .cfa -48 + ^ x25: .cfa -56 + ^ x26: .cfa -64 + ^ .ra: .cfa -72 + ^ x29: .cfa -80 + ^
STACK CFI 2b788 .cfa: sp 112 +
STACK CFI 2b7a0 .cfa: sp 0 +
STACK CFI 2b7a4 .cfa: x29 80 +
STACK CFI INIT 2b814 1b4 .cfa: sp 0 +
STACK CFI 2b818 .cfa: sp 128 +
STACK CFI 2b834 .cfa: x29 96 + x19: .cfa -8 + ^ x20: .cfa -16 + ^ x21: .cfa -24 + ^ x22: .cfa -32 + ^ x23: .cfa -40 + ^ x24: .cfa -48 + ^ x25: .cfa -56 + ^ x26: .cfa -64 + ^ x27: .cfa -80 + ^ .ra: .cfa -88 + ^ x29: .cfa -96 + ^
STACK CFI 2b978 .cfa: sp 128 +
STACK CFI 2b994 .cfa: sp 0 +
STACK CFI 2b998 .cfa: x29 96 +
STACK CFI INIT 2b9dc 50 .cfa: sp 0 +
STACK CFI 2b9e0 .cfa: sp 32 +
STACK CFI 2b9e8 .cfa: x29 32 + x19: .cfa -8 + ^ x20: .cfa -16 + ^ .ra: .cfa -24 + ^ x29: .cfa -32 + ^
STACK CFI INIT 2ba90 15c .cfa: sp 0 +
STACK CFI 2ba94 .cfa: sp 80 +
STACK CFI 2baa8 .cfa: x29 80 + x19: .cfa -8 + ^ x20: .cfa -16 + ^ x21: .cfa -24 + ^ x22: .cfa -32 + ^ x23: .cfa -40 + ^ x24: .cfa -48 + ^ x25: .cfa -64 + ^ .ra: .cfa -72 + ^ x29: .cfa -80 + ^
STACK CFI 2bbb8 .cfa: sp 80 +
STACK CFI 2bbcc .cfa: sp 0 +
STACK CFI 2bbd0 .cfa: x29 80 +
STACK CFI INIT 2bd34 21c .cfa: sp 0 +
STACK CFI 2bd38 .cfa: sp 128 +
STACK CFI 2bd50 .cfa: x29 80 + x19: .cfa -8 + ^ x20: .cfa -16 + ^ x21: .cfa -24 + ^ x22: .cfa -32 + ^ x23: .cfa -40 + ^ x24: .cfa -48 + ^ x25: .cfa -64 + ^ .ra: .cfa -72 + ^ x29: .cfa -80 + ^
STACK CFI 2bee0 .cfa: sp 128 +
STACK CFI 2bef8 .cfa: sp 0 +
STACK CFI 2befc .cfa: x29 80 +
STACK CFI INIT 2cdc8 444 .cfa: sp 0 +
STACK CFI 2cdcc .cfa: sp 224 +
STACK CFI 2cde8 .cfa: x29 96 + x19: .cfa -8 + ^ x20: .cfa -16 + ^ x21: .cfa -24 + ^ x22: .cfa -32 + ^ x23: .cfa -40 + ^ x24: .cfa -48 + ^ x25: .cfa -56 + ^ x26: .cfa -64 + ^ x27: .cfa -80 + ^ .ra: .cfa -88 + ^ x29: .cfa -96 + ^
STACK CFI 2d018 .cfa: sp 224 +
STACK CFI 2d034 .cfa: sp 0 +
STACK CFI 2d038 .cfa: x29 96 +
STACK CFI 2d104 .cfa: sp 224 +
STACK CFI 2d120 .cfa: sp 0 +
STACK CFI 2d124 .cfa: x29 96 +
STACK CFI INIT 2d228 e90 .cfa: sp 0 +
STACK CFI 2d22c .cfa: sp 320 +
STACK CFI 2d248 .cfa: x29 96 + x19: .cfa -8 + ^ x20: .cfa -16 + ^ x21: .cfa -24 + ^ x22: .cfa -32 + ^ x23: .cfa -40 + ^ x24: .cfa -48 + ^ x25: .cfa -56 + ^ x26: .cfa -64 + ^ x27: .cfa -72 + ^ x28: .cfa -80 + ^ .ra: .cfa -88 + ^ x29: .cfa -96 + ^
STACK CFI 2dd0c .cfa: sp 320 +
STACK CFI 2dd28 .cfa: sp 0 +
STACK CFI 2dd2c .cfa: x29 96 +
STACK CFI INIT 2e0d8 1c8 .cfa: sp 0 +
STACK CFI 2e0dc .cfa: sp 160 +
STACK CFI 2e0f4 .cfa: x29 80 + x19: .cfa -8 + ^ x20: .cfa -16 + ^ x21: .cfa -24 + ^ x22: .cfa -32 + ^ x23: .cfa -40 + ^ x24: .cfa -48 + ^ x25: .cfa -56 + ^ x26: .cfa -64 + ^ .ra: .cfa -72 + ^ x29: .cfa -80 + ^
STACK CFI 2e22c .cfa: sp 160 +
STACK CFI 2e244 .cfa: sp 0 +
STACK CFI 2e248 .cfa: x29 80 +
STACK CFI INIT 2e2a0 15c .cfa: sp 0 +
STACK CFI 2e2a4 .cfa: sp 96 +
STACK CFI 2e2b4 .cfa: x29 48 + x19: .cfa -8 + ^ x20: .cfa -16 + ^ x21: .cfa -32 + ^ .ra: .cfa -40 + ^ x29: .cfa -48 + ^
STACK CFI 2e38c .cfa: sp 96 +
STACK CFI 2e39c .cfa: sp 0 +
STACK CFI 2e3a0 .cfa: x29 48 +
STACK CFI INIT 2e3fc 6d8 .cfa: sp 0 +
STACK CFI 2e400 .cfa: sp 176 +
STACK CFI 2e418 .cfa: x29 80 + x19: .cfa -8 + ^ x20: .cfa -16 + ^ x21: .cfa -24 + ^ x22: .cfa -32 + ^ x23: .cfa -40 + ^ x24: .cfa -48 + ^ x25: .cfa -64 + ^ .ra: .cfa -72 + ^ x29: .cfa -80 + ^
STACK CFI 2e9e4 .cfa: sp 176 +
STACK CFI 2e9fc .cfa: sp 0 +
STACK CFI 2ea00 .cfa: x29 80 +
STACK CFI INIT 2ead4 a84 .cfa: sp 0 +
STACK CFI 2ead8 .cfa: sp 272 +
STACK CFI 2eaf4 .cfa: x29 96 + x19: .cfa -8 + ^ x20: .cfa -16 + ^ x21: .cfa -24 + ^ x22: .cfa -32 + ^ x23: .cfa -40 + ^ x24: .cfa -48 + ^ x25: .cfa -56 + ^ x26: .cfa -64 + ^ x27: .cfa -72 + ^ x28: .cfa -80 + ^ .ra: .cfa -88 + ^ x29: .cfa -96 + ^
STACK CFI 2f408 .cfa: sp 272 +
STACK CFI 2f424 .cfa: sp 0 +
STACK CFI 2f428 .cfa: x29 96 +
STACK CFI INIT 2f558 3e4 .cfa: sp 0 +
STACK CFI 2f55c .cfa: sp 112 +
STACK CFI 2f56c .cfa: x29 48 + x19: .cfa -8 + ^ x20: .cfa -16 + ^ x21: .cfa -24 + ^ x22: .cfa -32 + ^ .ra: .cfa -40 + ^ x29: .cfa -48 + ^
STACK CFI 2f8c8 .cfa: sp 112 +
STACK CFI 2f8d8 .cfa: sp 0 +
STACK CFI 2f8dc .cfa: x29 48 +
STACK CFI INIT 2fad0 134 .cfa: sp 0 +
STACK CFI 2fad4 .cfa: sp 80 +
STACK CFI 2fae4 .cfa: x29 48 + x19: .cfa -8 + ^ x20: .cfa -16 + ^ x21: .cfa -24 + ^ x22: .cfa -32 + ^ .ra: .cfa -40 + ^ x29: .cfa -48 + ^
STACK CFI 2fbe8 .cfa: sp 80 +
STACK CFI 2fbf8 .cfa: sp 0 +
STACK CFI 2fbfc .cfa: x29 48 +
STACK CFI INIT 2fd0c 400 .cfa: sp 0 +
STACK CFI 2fd10 .cfa: sp 224 +
STACK CFI 2fd2c .cfa: x29 96 + x19: .cfa -8 + ^ x20: .cfa -16 + ^ x21: .cfa -24 + ^ x22: .cfa -32 + ^ x23: .cfa -40 + ^ x24: .cfa -48 + ^ x25: .cfa -56 + ^ x26: .cfa -64 + ^ x27: .cfa -72 + ^ x28: .cfa -80 + ^ .ra: .cfa -88 + ^ x29: .cfa -96 + ^
STACK CFI 30004 .cfa: sp 224 +
STACK CFI 30020 .cfa: sp 0 +
STACK CFI 30024 .cfa: x29 96 +
STACK CFI INIT 30128 38c .cfa: sp 0 +
STACK CFI 3012c .cfa: sp 224 +
STACK CFI 30140 .cfa: x29 64 + x19: .cfa -8 + ^ x20: .cfa -16 + ^ x21: .cfa -24 + ^ x22: .cfa -32 + ^ x23: .cfa -48 + ^ .ra: .cfa -56 + ^ x29: .cfa -64 + ^
STACK CFI 303a0 .cfa: sp 224 +
STACK CFI 303b4 .cfa: sp 0 +
STACK CFI 303b8 .cfa: x29 64 +
STACK CFI INIT 304b8 1f8 .cfa: sp 0 +
STACK CFI 304bc .cfa: sp 80 +
STACK CFI 304cc .cfa: x29 48 + x19: .cfa -8 + ^ x20: .cfa -16 + ^ x21: .cfa -24 + ^ x22: .cfa -32 + ^ .ra: .cfa -40 + ^ x29: .cfa -48 + ^
STACK CFI 30668 .cfa: sp 80 +
STACK CFI 30678 .cfa: sp 0 +
STACK CFI 3067c .cfa: x29 48 +
STACK CFI INIT 306c8 400 .cfa: sp 0 +
STACK CFI 306cc .cfa: sp 224 +
STACK CFI 306e8 .cfa: x29 96 + x19: .cfa -8 + ^ x20: .cfa -16 + ^ x21: .cfa -24 + ^ x22: .cfa -32 + ^ x23: .cfa -40 + ^ x24: .cfa -48 + ^ x25: .cfa -56 + ^ x26: .cfa -64 + ^ x27: .cfa -72 + ^ x28: .cfa -80 + ^ .ra: .cfa -88 + ^ x29: .cfa -96 + ^
STACK CFI 309c0 .cfa: sp 224 +
STACK CFI 309dc .cfa: sp 0 +
STACK CFI 309e0 .cfa: x29 96 +
STACK CFI INIT 30b64 400 .cfa: sp 0 +
STACK CFI 30b68 .cfa: sp 224 +
STACK CFI 30b80 .cfa: x29 80 + x19: .cfa -8 + ^ x20: .cfa -16 + ^ x21: .cfa -24 + ^ x22: .cfa -32 + ^ x23: .cfa -40 + ^ x24: .cfa -48 + ^ x25: .cfa -56 + ^ x26: .cfa -64 + ^ .ra: .cfa -72 + ^ x29: .cfa -80 + ^
STACK CFI 30e34 .cfa: sp 224 +
STACK CFI 30e4c .cfa: sp 0 +
STACK CFI 30e50 .cfa: x29 80 +
STACK CFI INIT 30f68 228 .cfa: sp 0 +
STACK CFI 30f6c .cfa: sp 176 +
STACK CFI 30f80 .cfa: x29 64 + x19: .cfa -8 + ^ x20: .cfa -16 + ^ x21: .cfa -24 + ^ x22: .cfa -32 + ^ x23: .cfa -40 + ^ x24: .cfa -48 + ^ .ra: .cfa -56 + ^ x29: .cfa -64 + ^
STACK CFI 31120 .cfa: sp 176 +
STACK CFI 31134 .cfa: sp 0 +
STACK CFI 31138 .cfa: x29 64 +
STACK CFI INIT 31190 74 .cfa: sp 0 +
STACK CFI 31194 .cfa: sp 48 +
STACK CFI 311a0 .cfa: x29 32 + x19: .cfa -8 + ^ x20: .cfa -16 + ^ .ra: .cfa -24 + ^ x29: .cfa -32 + ^
STACK CFI 311ec .cfa: sp 48 +
STACK CFI 311f8 .cfa: sp 0 +
STACK CFI 311fc .cfa: x29 32 +
STACK CFI INIT 31204 104 .cfa: sp 0 +
STACK CFI 31208 .cfa: sp 112 +
STACK CFI 31214 .cfa: x29 32 + x19: .cfa -8 + ^ x20: .cfa -16 + ^ .ra: .cfa -24 + ^ x29: .cfa -32 + ^
STACK CFI 312d8 .cfa: sp 112 +
STACK CFI 312e4 .cfa: sp 0 +
STACK CFI 312e8 .cfa: x29 32 +
STACK CFI INIT 31338 400 .cfa: sp 0 +
STACK CFI 3133c .cfa: sp 224 +
STACK CFI 31358 .cfa: x29 96 + x19: .cfa -8 + ^ x20: .cfa -16 + ^ x21: .cfa -24 + ^ x22: .cfa -32 + ^ x23: .cfa -40 + ^ x24: .cfa -48 + ^ x25: .cfa -56 + ^ x26: .cfa -64 + ^ x27: .cfa -72 + ^ x28: .cfa -80 + ^ .ra: .cfa -88 + ^ x29: .cfa -96 + ^
STACK CFI 31630 .cfa: sp 224 +
STACK CFI 3164c .cfa: sp 0 +
STACK CFI 31650 .cfa: x29 96 +
STACK CFI INIT 31738 400 .cfa: sp 0 +
STACK CFI 3173c .cfa: sp 224 +
STACK CFI 31758 .cfa: x29 96 + x19: .cfa -8 + ^ x20: .cfa -16 + ^ x21: .cfa -24 + ^ x22: .cfa -32 + ^ x23: .cfa -40 + ^ x24: .cfa -48 + ^ x25: .cfa -56 + ^ x26: .cfa -64 + ^ x27: .cfa -72 + ^ x28: .cfa -80 + ^ .ra: .cfa -88 + ^ x29: .cfa -96 + ^
STACK CFI 31a30 .cfa: sp 224 +
STACK CFI 31a4c .cfa: sp 0 +
STACK CFI 31a50 .cfa: x29 96 +
STACK CFI INIT 31b38 400 .cfa: sp 0 +
STACK CFI 31b3c .cfa: sp 224 +
STACK CFI 31b58 .cfa: x29 96 + x19: .cfa -8 + ^ x20: .cfa -16 + ^ x21: .cfa -24 + ^ x22: .cfa -32 + ^ x23: .cfa -40 + ^ x24: .cfa -48 + ^ x25: .cfa -56 + ^ x26: .cfa -64 + ^ x27: .cfa -72 + ^ x28: .cfa -80 + ^ .ra: .cfa -88 + ^ x29: .cfa -96 + ^
STACK CFI 31e30 .cfa: sp 224 +
STACK CFI 31e4c .cfa: sp 0 +
STACK CFI 31e50 .cfa: x29 96 +
STACK CFI INIT 31f8c 3dc .cfa: sp 0 +
STACK CFI 31f90 .cfa: sp 256 +
STACK CFI 31fa4 .cfa: x29 64 + x19: .cfa -8 + ^ x20: .cfa -16 + ^ x21: .cfa -24 + ^ x22: .cfa -32 + ^ x23: .cfa -48 + ^ .ra: .cfa -56 + ^ x29: .cfa -64 + ^
STACK CFI 32240 .cfa: sp 256 +
STACK CFI 32254 .cfa: sp 0 +
STACK CFI 32258 .cfa: x29 64 +
STACK CFI INIT 323ac 3dc .cfa: sp 0 +
STACK CFI 323b0 .cfa: sp 256 +
STACK CFI 323c4 .cfa: x29 64 + x19: .cfa -8 + ^ x20: .cfa -16 + ^ x21: .cfa -24 + ^ x22: .cfa -32 + ^ x23: .cfa -48 + ^ .ra: .cfa -56 + ^ x29: .cfa -64 + ^
STACK CFI 32660 .cfa: sp 256 +
STACK CFI 32674 .cfa: sp 0 +
STACK CFI 32678 .cfa: x29 64 +
STACK CFI INIT 327cc 3c0 .cfa: sp 0 +
STACK CFI 327d0 .cfa: sp 208 +
STACK CFI 327e4 .cfa: x29 64 + x19: .cfa -8 + ^ x20: .cfa -16 + ^ x21: .cfa -24 + ^ x22: .cfa -32 + ^ x23: .cfa -48 + ^ .ra: .cfa -56 + ^ x29: .cfa -64 + ^
STACK CFI 32a6c .cfa: sp 208 +
STACK CFI 32a80 .cfa: sp 0 +
STACK CFI 32a84 .cfa: x29 64 +
STACK CFI INIT 32cb4 994 .cfa: sp 0 +
STACK CFI 32cb8 .cfa: sp 304 +
STACK CFI 32cd4 .cfa: x29 96 + x19: .cfa -8 + ^ x20: .cfa -16 + ^ x21: .cfa -24 + ^ x22: .cfa -32 + ^ x23: .cfa -40 + ^ x24: .cfa -48 + ^ x25: .cfa -56 + ^ x26: .cfa -64 + ^ x27: .cfa -72 + ^ x28: .cfa -80 + ^ .ra: .cfa -88 + ^ x29: .cfa -96 + ^
STACK CFI 32df0 .cfa: sp 304 +
STACK CFI 32e0c .cfa: sp 0 +
STACK CFI 32e10 .cfa: x29 96 +
STACK CFI 33408 .cfa: sp 304 +
STACK CFI 33424 .cfa: sp 0 +
STACK CFI 33428 .cfa: x29 96 +
STACK CFI INIT 33664 444 .cfa: sp 0 +
STACK CFI 33668 .cfa: sp 224 +
STACK CFI 33684 .cfa: x29 96 + x19: .cfa -8 + ^ x20: .cfa -16 + ^ x21: .cfa -24 + ^ x22: .cfa -32 + ^ x23: .cfa -40 + ^ x24: .cfa -48 + ^ x25: .cfa -56 + ^ x26: .cfa -64 + ^ x27: .cfa -80 + ^ .ra: .cfa -88 + ^ x29: .cfa -96 + ^
STACK CFI 338b4 .cfa: sp 224 +
STACK CFI 338d0 .cfa: sp 0 +
STACK CFI 338d4 .cfa: x29 96 +
STACK CFI 339a0 .cfa: sp 224 +
STACK CFI 339bc .cfa: sp 0 +
STACK CFI 339c0 .cfa: x29 96 +
STACK CFI INIT 33ac4 35c .cfa: sp 0 +
STACK CFI 33ac8 .cfa: sp 176 +
STACK CFI 33adc .cfa: x29 64 + x19: .cfa -8 + ^ x20: .cfa -16 + ^ x21: .cfa -24 + ^ x22: .cfa -32 + ^ x23: .cfa -48 + ^ .ra: .cfa -56 + ^ x29: .cfa -64 + ^
STACK CFI 33d1c .cfa: sp 176 +
STACK CFI 33d30 .cfa: sp 0 +
STACK CFI 33d34 .cfa: x29 64 +
STACK CFI INIT 33e24 1d8 .cfa: sp 0 +
STACK CFI 33e28 .cfa: sp 128 +
STACK CFI 33e3c .cfa: x29 64 + x19: .cfa -8 + ^ x20: .cfa -16 + ^ x21: .cfa -24 + ^ x22: .cfa -32 + ^ x23: .cfa -48 + ^ .ra: .cfa -56 + ^ x29: .cfa -64 + ^
STACK CFI 33f9c .cfa: sp 128 +
STACK CFI 33fb0 .cfa: sp 0 +
STACK CFI 33fb4 .cfa: x29 64 +
STACK CFI INIT 33ffc 110 .cfa: sp 0 +
STACK CFI 34000 .cfa: sp 96 +
STACK CFI 34014 .cfa: x29 64 + x19: .cfa -8 + ^ x20: .cfa -16 + ^ x21: .cfa -24 + ^ x22: .cfa -32 + ^ x23: .cfa -40 + ^ x24: .cfa -48 + ^ .ra: .cfa -56 + ^ x29: .cfa -64 + ^
STACK CFI 3405c .cfa: sp 96 +
STACK CFI 34070 .cfa: sp 0 +
STACK CFI 34074 .cfa: x29 64 +
STACK CFI INIT 34188 168 .cfa: sp 0 +
STACK CFI 3418c .cfa: sp 384 +
STACK CFI 341a0 .cfa: x29 64 + x19: .cfa -8 + ^ x20: .cfa -16 + ^ x21: .cfa -24 + ^ x22: .cfa -32 + ^ x23: .cfa -40 + ^ x28: .cfa -48 + ^ .ra: .cfa -56 + ^ x29: .cfa -64 + ^
STACK CFI 34298 .cfa: sp 384 +
STACK CFI 342ac .cfa: sp 0 +
STACK CFI 342b0 .cfa: x29 64 +
STACK CFI INIT 34380 174 .cfa: sp 0 +
STACK CFI 34384 .cfa: sp 112 +
STACK CFI 34394 .cfa: x29 48 + x19: .cfa -8 + ^ x20: .cfa -16 + ^ x21: .cfa -32 + ^ .ra: .cfa -40 + ^ x29: .cfa -48 + ^
STACK CFI 34490 .cfa: sp 112 +
STACK CFI 344a0 .cfa: sp 0 +
STACK CFI 344a4 .cfa: x29 48 +
STACK CFI INIT 345cc 110 .cfa: sp 0 +
STACK CFI 345d0 .cfa: sp 96 +
STACK CFI 345e4 .cfa: x29 64 + x19: .cfa -8 + ^ x20: .cfa -16 + ^ x21: .cfa -24 + ^ x22: .cfa -32 + ^ x23: .cfa -40 + ^ x24: .cfa -48 + ^ .ra: .cfa -56 + ^ x29: .cfa -64 + ^
STACK CFI 3462c .cfa: sp 96 +
STACK CFI 34640 .cfa: sp 0 +
STACK CFI 34644 .cfa: x29 64 +
STACK CFI INIT 3476c a8 .cfa: sp 0 +
STACK CFI 34770 .cfa: sp 32 +
STACK CFI 34778 .cfa: x29 32 + x19: .cfa -8 + ^ x20: .cfa -16 + ^ .ra: .cfa -24 + ^ x29: .cfa -32 + ^
STACK CFI 347ac .cfa: sp 32 +
STACK CFI 347b4 .cfa: sp 0 +
STACK CFI 347b8 .cfa: x29 32 +
STACK CFI 347bc .cfa: sp 32 +
STACK CFI 347c4 .cfa: sp 0 +
STACK CFI 347c8 .cfa: x29 32 +
STACK CFI INIT 348bc 7b3c .cfa: sp 0 +
STACK CFI 348c0 .cfa: sp 160 +
STACK CFI 348e8 .cfa: x29 96 + x19: .cfa -8 + ^ x20: .cfa -16 + ^ x21: .cfa -24 + ^ x22: .cfa -32 + ^ x23: .cfa -40 + ^ x24: .cfa -48 + ^ x25: .cfa -56 + ^ x26: .cfa -64 + ^ x27: .cfa -72 + ^ x28: .cfa -80 + ^ .ra: .cfa -88 + ^ x29: .cfa -96 + ^ v8: .cfa -104 + ^ v9: .cfa -112 + ^ v10: .cfa -120 + ^ v11: .cfa -128 + ^ v12: .cfa -136 + ^ v13: .cfa -144 + ^ v14: .cfa -152 + ^ v15: .cfa -160 + ^
STACK CFI 3b260 .cfa: sp 160 +
STACK CFI 3b288 .cfa: sp 0 +
STACK CFI 3b28c .cfa: x29 96 +
STACK CFI INIT 3c3f8 55c .cfa: sp 0 +
STACK CFI 3c3fc .cfa: sp 208 +
STACK CFI 3c41c .cfa: x29 96 + x19: .cfa -8 + ^ x20: .cfa -16 + ^ x21: .cfa -24 + ^ x22: .cfa -32 + ^ x23: .cfa -40 + ^ x24: .cfa -48 + ^ x25: .cfa -56 + ^ x26: .cfa -64 + ^ x27: .cfa -72 + ^ x28: .cfa -80 + ^ .ra: .cfa -88 + ^ x29: .cfa -96 + ^ v8: .cfa -112 + ^
STACK CFI 3c894 .cfa: sp 208 +
STACK CFI 3c8b4 .cfa: sp 0 +
STACK CFI 3c8b8 .cfa: x29 96 +
STACK CFI INIT 3ca9c 74 .cfa: sp 0 +
STACK CFI 3caa0 .cfa: sp 48 +
STACK CFI 3caac .cfa: x29 32 + x19: .cfa -8 + ^ x20: .cfa -16 + ^ .ra: .cfa -24 + ^ x29: .cfa -32 + ^
STACK CFI 3caf8 .cfa: sp 48 +
STACK CFI 3cb04 .cfa: sp 0 +
STACK CFI 3cb08 .cfa: x29 32 +
STACK CFI INIT 3cb10 32c .cfa: sp 0 +
STACK CFI 3cb14 .cfa: sp 208 +
STACK CFI 3cb2c .cfa: x29 80 + x19: .cfa -8 + ^ x20: .cfa -16 + ^ x21: .cfa -24 + ^ x22: .cfa -32 + ^ x23: .cfa -40 + ^ x24: .cfa -48 + ^ x25: .cfa -64 + ^ .ra: .cfa -72 + ^ x29: .cfa -80 + ^
STACK CFI 3cd20 .cfa: sp 208 +
STACK CFI 3cd38 .cfa: sp 0 +
STACK CFI 3cd3c .cfa: x29 80 +
STACK CFI INIT 3ce3c 20 .cfa: sp 0 +
STACK CFI 3ce40 .cfa: sp 16 +
STACK CFI 3ce44 .cfa: x29 16 + .ra: .cfa -8 + ^ x29: .cfa -16 + ^
STACK CFI 3ce50 .cfa: sp 16 +
STACK CFI 3ce54 .cfa: sp 0 +
STACK CFI 3ce58 .cfa: x29 16 +
STACK CFI INIT 3ce5c f0 .cfa: sp 0 +
STACK CFI 3ce60 .cfa: sp 32 +
STACK CFI 3ce68 .cfa: x29 32 + x19: .cfa -8 + ^ x20: .cfa -16 + ^ .ra: .cfa -24 + ^ x29: .cfa -32 + ^
STACK CFI 3cee4 .cfa: sp 32 +
STACK CFI 3cee8 .cfa: x29 32 +
STACK CFI 3cef4 .cfa: sp 32 +
STACK CFI 3cefc .cfa: sp 0 +
STACK CFI 3cf00 .cfa: x29 32 +
STACK CFI INIT 3cff4 20 .cfa: sp 0 +
STACK CFI 3cff8 .cfa: sp 16 +
STACK CFI 3cffc .cfa: x29 16 + .ra: .cfa -8 + ^ x29: .cfa -16 + ^
STACK CFI 3d008 .cfa: sp 16 +
STACK CFI 3d00c .cfa: sp 0 +
STACK CFI 3d010 .cfa: x29 16 +
STACK CFI INIT 3d178 b0 .cfa: sp 0 +
STACK CFI 3d17c .cfa: sp 64 +
STACK CFI 3d188 .cfa: x29 32 + x19: .cfa -8 + ^ x20: .cfa -16 + ^ .ra: .cfa -24 + ^ x29: .cfa -32 + ^
STACK CFI 3d1e8 .cfa: sp 64 +
STACK CFI 3d1f4 .cfa: sp 0 +
STACK CFI 3d1f8 .cfa: x29 32 +
STACK CFI INIT 3d250 634 .cfa: sp 0 +
STACK CFI 3d254 .cfa: sp 224 +
STACK CFI 3d270 .cfa: x29 96 + x19: .cfa -8 + ^ x20: .cfa -16 + ^ x21: .cfa -24 + ^ x22: .cfa -32 + ^ x23: .cfa -40 + ^ x24: .cfa -48 + ^ x25: .cfa -56 + ^ x26: .cfa -64 + ^ x27: .cfa -72 + ^ x28: .cfa -80 + ^ .ra: .cfa -88 + ^ x29: .cfa -96 + ^
STACK CFI 3d718 .cfa: sp 224 +
STACK CFI 3d734 .cfa: sp 0 +
STACK CFI 3d738 .cfa: x29 96 +
STACK CFI INIT 3d8bc 50 .cfa: sp 0 +
STACK CFI 3d8c0 .cfa: sp 32 +
STACK CFI 3d8c8 .cfa: x29 32 + x19: .cfa -8 + ^ x20: .cfa -16 + ^ .ra: .cfa -24 + ^ x29: .cfa -32 + ^
STACK CFI INIT 3dbec 430 .cfa: sp 0 +
STACK CFI 3dbf0 .cfa: sp 160 +
STACK CFI 3dc0c .cfa: x29 96 + x19: .cfa -8 + ^ x20: .cfa -16 + ^ x21: .cfa -24 + ^ x22: .cfa -32 + ^ x23: .cfa -40 + ^ x24: .cfa -48 + ^ x25: .cfa -56 + ^ x26: .cfa -64 + ^ x27: .cfa -72 + ^ x28: .cfa -80 + ^ .ra: .cfa -88 + ^ x29: .cfa -96 + ^
STACK CFI 3df7c .cfa: sp 160 +
STACK CFI 3df98 .cfa: sp 0 +
STACK CFI 3df9c .cfa: x29 96 +
STACK CFI INIT 3e378 130 .cfa: sp 0 +
STACK CFI 3e37c .cfa: sp 112 +
STACK CFI 3e390 .cfa: x29 64 + x19: .cfa -8 + ^ x20: .cfa -16 + ^ x21: .cfa -24 + ^ x22: .cfa -32 + ^ x23: .cfa -40 + ^ x24: .cfa -48 + ^ .ra: .cfa -56 + ^ x29: .cfa -64 + ^
STACK CFI 3e468 .cfa: sp 112 +
STACK CFI 3e47c .cfa: sp 0 +
STACK CFI 3e480 .cfa: x29 64 +
STACK CFI INIT 3e4a8 160 .cfa: sp 0 +
STACK CFI 3e4ac .cfa: sp 144 +
STACK CFI 3e4c0 .cfa: x29 64 + x19: .cfa -8 + ^ x20: .cfa -16 + ^ x21: .cfa -24 + ^ x22: .cfa -32 + ^ x23: .cfa -40 + ^ x24: .cfa -48 + ^ .ra: .cfa -56 + ^ x29: .cfa -64 + ^
STACK CFI 3e59c .cfa: sp 144 +
STACK CFI 3e5b0 .cfa: sp 0 +
STACK CFI 3e5b4 .cfa: x29 64 +
STACK CFI INIT 3e694 74 .cfa: sp 0 +
STACK CFI 3e698 .cfa: sp 48 +
STACK CFI 3e6a4 .cfa: x29 32 + x19: .cfa -8 + ^ x20: .cfa -16 + ^ .ra: .cfa -24 + ^ x29: .cfa -32 + ^
STACK CFI 3e6f0 .cfa: sp 48 +
STACK CFI 3e6fc .cfa: sp 0 +
STACK CFI 3e700 .cfa: x29 32 +
STACK CFI INIT 3e770 11c .cfa: sp 0 +
STACK CFI 3e774 .cfa: sp 96 +
STACK CFI 3e788 .cfa: x29 64 + x19: .cfa -8 + ^ x20: .cfa -16 + ^ x21: .cfa -24 + ^ x22: .cfa -32 + ^ x23: .cfa -40 + ^ x24: .cfa -48 + ^ .ra: .cfa -56 + ^ x29: .cfa -64 + ^
STACK CFI 3e810 .cfa: sp 96 +
STACK CFI 3e824 .cfa: sp 0 +
STACK CFI 3e828 .cfa: x29 64 +
STACK CFI INIT 3e934 114 .cfa: sp 0 +
STACK CFI 3e938 .cfa: sp 112 +
STACK CFI 3e94c .cfa: x29 64 + x19: .cfa -8 + ^ x20: .cfa -16 + ^ x21: .cfa -24 + ^ x22: .cfa -32 + ^ x23: .cfa -48 + ^ .ra: .cfa -56 + ^ x29: .cfa -64 + ^
STACK CFI 3e9f0 .cfa: sp 112 +
STACK CFI 3ea04 .cfa: sp 0 +
STACK CFI 3ea08 .cfa: x29 64 +
STACK CFI INIT 3ea48 3e4 .cfa: sp 0 +
STACK CFI 3ea4c .cfa: sp 160 +
STACK CFI 3ea68 .cfa: x29 96 + x19: .cfa -8 + ^ x20: .cfa -16 + ^ x21: .cfa -24 + ^ x22: .cfa -32 + ^ x23: .cfa -40 + ^ x24: .cfa -48 + ^ x25: .cfa -56 + ^ x26: .cfa -64 + ^ x27: .cfa -72 + ^ x28: .cfa -80 + ^ .ra: .cfa -88 + ^ x29: .cfa -96 + ^
STACK CFI 3ed9c .cfa: sp 160 +
STACK CFI 3edb8 .cfa: sp 0 +
STACK CFI 3edbc .cfa: x29 96 +
STACK CFI INIT 3f06c 428 .cfa: sp 0 +
STACK CFI 3f070 .cfa: sp 256 +
STACK CFI 3f084 .cfa: x29 64 + x19: .cfa -8 + ^ x20: .cfa -16 + ^ x21: .cfa -24 + ^ x22: .cfa -32 + ^ x23: .cfa -40 + ^ x24: .cfa -48 + ^ .ra: .cfa -56 + ^ x29: .cfa -64 + ^
STACK CFI 3f360 .cfa: sp 256 +
STACK CFI 3f374 .cfa: sp 0 +
STACK CFI 3f378 .cfa: x29 64 +
STACK CFI INIT 3f5dc 5c0 .cfa: sp 0 +
STACK CFI 3f5e0 .cfa: sp 160 +
STACK CFI 3f5fc .cfa: x29 64 + x19: .cfa -8 + ^ x20: .cfa -16 + ^ x21: .cfa -24 + ^ x22: .cfa -32 + ^ x23: .cfa -48 + ^ .ra: .cfa -56 + ^ x29: .cfa -64 + ^ v8: .cfa -72 + ^ v9: .cfa -80 + ^ v10: .cfa -88 + ^ v11: .cfa -96 + ^
STACK CFI 3faec .cfa: sp 160 +
STACK CFI 3fb08 .cfa: sp 0 +
STACK CFI 3fb0c .cfa: x29 64 +
STACK CFI INIT 3fbec 890 .cfa: sp 0 +
STACK CFI 3fbf0 .cfa: sp 464 +
STACK CFI 3fc10 .cfa: x29 96 + x19: .cfa -8 + ^ x20: .cfa -16 + ^ x21: .cfa -24 + ^ x22: .cfa -32 + ^ x23: .cfa -40 + ^ x24: .cfa -48 + ^ x25: .cfa -56 + ^ x26: .cfa -64 + ^ x27: .cfa -72 + ^ x28: .cfa -80 + ^ .ra: .cfa -88 + ^ x29: .cfa -96 + ^ v8: .cfa -112 + ^
STACK CFI 402f4 .cfa: sp 464 +
STACK CFI 40314 .cfa: sp 0 +
STACK CFI 40318 .cfa: x29 96 +
STACK CFI INIT 4047c 35c .cfa: sp 0 +
STACK CFI 40480 .cfa: sp 272 +
STACK CFI 4049c .cfa: x29 96 + x19: .cfa -8 + ^ x20: .cfa -16 + ^ x21: .cfa -24 + ^ x22: .cfa -32 + ^ x23: .cfa -40 + ^ x24: .cfa -48 + ^ x25: .cfa -56 + ^ x26: .cfa -64 + ^ x27: .cfa -72 + ^ x28: .cfa -80 + ^ .ra: .cfa -88 + ^ x29: .cfa -96 + ^
STACK CFI 40714 .cfa: sp 272 +
STACK CFI 40730 .cfa: sp 0 +
STACK CFI 40734 .cfa: x29 96 +
STACK CFI INIT 407d8 3a0 .cfa: sp 0 +
STACK CFI 407dc .cfa: sp 272 +
STACK CFI 407f8 .cfa: x29 96 + x19: .cfa -8 + ^ x20: .cfa -16 + ^ x21: .cfa -24 + ^ x22: .cfa -32 + ^ x23: .cfa -40 + ^ x24: .cfa -48 + ^ x25: .cfa -56 + ^ x26: .cfa -64 + ^ x27: .cfa -72 + ^ x28: .cfa -80 + ^ .ra: .cfa -88 + ^ x29: .cfa -96 + ^
STACK CFI 408a4 .cfa: sp 272 +
STACK CFI 408c0 .cfa: sp 0 +
STACK CFI 408c4 .cfa: x29 96 +
STACK CFI INIT 40b78 21c .cfa: sp 0 +
STACK CFI 40b7c .cfa: sp 112 +
STACK CFI 40b98 .cfa: x29 80 + x19: .cfa -8 + ^ x20: .cfa -16 + ^ x21: .cfa -24 + ^ x22: .cfa -32 + ^ x23: .cfa -40 + ^ x24: .cfa -48 + ^ x25: .cfa -56 + ^ x26: .cfa -64 + ^ .ra: .cfa -72 + ^ x29: .cfa -80 + ^ v8: .cfa -88 + ^ v9: .cfa -96 + ^
STACK CFI 40d44 .cfa: sp 112 +
STACK CFI 40d60 .cfa: sp 0 +
STACK CFI 40d64 .cfa: x29 80 +
STACK CFI INIT 40d94 20 .cfa: sp 0 +
STACK CFI 40d98 .cfa: sp 16 +
STACK CFI 40d9c .cfa: x29 16 + .ra: .cfa -8 + ^ x29: .cfa -16 + ^
STACK CFI 40da8 .cfa: sp 16 +
STACK CFI 40dac .cfa: sp 0 +
STACK CFI 40db0 .cfa: x29 16 +
STACK CFI INIT 40db4 dc .cfa: sp 0 +
STACK CFI 40db8 .cfa: sp 96 +
STACK CFI 40dc8 .cfa: x29 48 + x19: .cfa -8 + ^ x20: .cfa -16 + ^ x21: .cfa -24 + ^ x22: .cfa -32 + ^ .ra: .cfa -40 + ^ x29: .cfa -48 + ^
STACK CFI 40e44 .cfa: sp 96 +
STACK CFI 40e54 .cfa: sp 0 +
STACK CFI 40e58 .cfa: x29 48 +
STACK CFI INIT 40e90 330 .cfa: sp 0 +
STACK CFI 40e94 .cfa: sp 208 +
STACK CFI 40eac .cfa: x29 80 + x19: .cfa -8 + ^ x20: .cfa -16 + ^ x21: .cfa -24 + ^ x22: .cfa -32 + ^ x23: .cfa -40 + ^ x24: .cfa -48 + ^ x25: .cfa -64 + ^ .ra: .cfa -72 + ^ x29: .cfa -80 + ^
STACK CFI 41094 .cfa: sp 208 +
STACK CFI 410ac .cfa: sp 0 +
STACK CFI 410b0 .cfa: x29 80 +
STACK CFI INIT 411c0 74 .cfa: sp 0 +
STACK CFI 411c4 .cfa: sp 48 +
STACK CFI 411d0 .cfa: x29 32 + x19: .cfa -8 + ^ x20: .cfa -16 + ^ .ra: .cfa -24 + ^ x29: .cfa -32 + ^
STACK CFI 4121c .cfa: sp 48 +
STACK CFI 41228 .cfa: sp 0 +
STACK CFI 4122c .cfa: x29 32 +
STACK CFI INIT 41234 e8 .cfa: sp 0 +
STACK CFI 41238 .cfa: sp 96 +
STACK CFI 41248 .cfa: x29 48 + x19: .cfa -8 + ^ x20: .cfa -16 + ^ x21: .cfa -32 + ^ .ra: .cfa -40 + ^ x29: .cfa -48 + ^
STACK CFI 412d0 .cfa: sp 96 +
STACK CFI 412e0 .cfa: sp 0 +
STACK CFI 412e4 .cfa: x29 48 +
STACK CFI INIT 41344 198 .cfa: sp 0 +
STACK CFI 41348 .cfa: sp 96 +
STACK CFI 4135c .cfa: x29 48 + x19: .cfa -8 + ^ x20: .cfa -16 + ^ x21: .cfa -24 + ^ x22: .cfa -32 + ^ .ra: .cfa -40 + ^ x29: .cfa -48 + ^ v8: .cfa -64 + ^
STACK CFI 4146c .cfa: sp 96 +
STACK CFI 41480 .cfa: sp 0 +
STACK CFI 41484 .cfa: x29 48 +
STACK CFI INIT 41654 128 .cfa: sp 0 +
STACK CFI 41658 .cfa: sp 96 +
STACK CFI 41668 .cfa: x29 48 + x19: .cfa -8 + ^ x20: .cfa -16 + ^ x21: .cfa -24 + ^ x22: .cfa -32 + ^ .ra: .cfa -40 + ^ x29: .cfa -48 + ^
STACK CFI 41740 .cfa: sp 96 +
STACK CFI 41750 .cfa: sp 0 +
STACK CFI 41754 .cfa: x29 48 +
STACK CFI INIT 41928 74 .cfa: sp 0 +
STACK CFI 4192c .cfa: sp 48 +
STACK CFI 41938 .cfa: x29 32 + x19: .cfa -8 + ^ x20: .cfa -16 + ^ .ra: .cfa -24 + ^ x29: .cfa -32 + ^
STACK CFI 41984 .cfa: sp 48 +
STACK CFI 41990 .cfa: sp 0 +
STACK CFI 41994 .cfa: x29 32 +
STACK CFI INIT 4199c 284 .cfa: sp 0 +
STACK CFI 419a0 .cfa: sp 144 +
STACK CFI 419bc .cfa: x29 96 + x19: .cfa -8 + ^ x20: .cfa -16 + ^ x21: .cfa -24 + ^ x22: .cfa -32 + ^ x23: .cfa -40 + ^ x24: .cfa -48 + ^ x25: .cfa -56 + ^ x26: .cfa -64 + ^ x27: .cfa -80 + ^ .ra: .cfa -88 + ^ x29: .cfa -96 + ^
STACK CFI 41b90 .cfa: sp 144 +
STACK CFI 41bac .cfa: sp 0 +
STACK CFI 41bb0 .cfa: x29 96 +
STACK CFI INIT 41c20 174 .cfa: sp 0 +
STACK CFI 41c24 .cfa: sp 96 +
STACK CFI 41c34 .cfa: x29 48 + x19: .cfa -8 + ^ x20: .cfa -16 + ^ x21: .cfa -32 + ^ .ra: .cfa -40 + ^ x29: .cfa -48 + ^
STACK CFI 41cb4 .cfa: sp 96 +
STACK CFI 41cc4 .cfa: sp 0 +
STACK CFI 41cc8 .cfa: x29 48 +
STACK CFI INIT 41d94 ac .cfa: sp 0 +
STACK CFI 41d98 .cfa: sp 64 +
STACK CFI 41da8 .cfa: x29 48 + x19: .cfa -8 + ^ x20: .cfa -16 + ^ x21: .cfa -32 + ^ .ra: .cfa -40 + ^ x29: .cfa -48 + ^
STACK CFI 41e04 .cfa: sp 64 +
STACK CFI 41e14 .cfa: sp 0 +
STACK CFI 41e18 .cfa: x29 48 +
STACK CFI INIT 41e40 90 .cfa: sp 0 +
STACK CFI 41e44 .cfa: sp 48 +
STACK CFI 41e50 .cfa: x29 32 + x19: .cfa -8 + ^ x20: .cfa -16 + ^ .ra: .cfa -24 + ^ x29: .cfa -32 + ^
STACK CFI 41e98 .cfa: sp 48 +
STACK CFI 41ea4 .cfa: sp 0 +
STACK CFI 41ea8 .cfa: x29 32 +
STACK CFI INIT 41ed0 124 .cfa: sp 0 +
STACK CFI 41ed4 .cfa: sp 96 +
STACK CFI 41ee8 .cfa: x29 40 + x19: .cfa -8 + ^ x20: .cfa -16 + ^ x21: .cfa -24 + ^ .ra: .cfa -32 + ^ x29: .cfa -40 + ^ v8: .cfa -48 + ^
STACK CFI 41f98 .cfa: sp 96 +
STACK CFI 41fac .cfa: sp 0 +
STACK CFI 41fb0 .cfa: x29 40 +
STACK CFI INIT 42004 94 .cfa: sp 0 +
STACK CFI 42008 .cfa: sp 48 +
STACK CFI 42014 .cfa: x29 32 + x19: .cfa -8 + ^ x20: .cfa -16 + ^ .ra: .cfa -24 + ^ x29: .cfa -32 + ^
STACK CFI 42060 .cfa: sp 48 +
STACK CFI 4206c .cfa: sp 0 +
STACK CFI 42070 .cfa: x29 32 +
STACK CFI INIT 421c4 74 .cfa: sp 0 +
STACK CFI 421c8 .cfa: sp 48 +
STACK CFI 421d4 .cfa: x29 32 + x19: .cfa -8 + ^ x20: .cfa -16 + ^ .ra: .cfa -24 + ^ x29: .cfa -32 + ^
STACK CFI 42220 .cfa: sp 48 +
STACK CFI 4222c .cfa: sp 0 +
STACK CFI 42230 .cfa: x29 32 +
STACK CFI INIT 42300 ec8 .cfa: sp 0 +
STACK CFI 42304 .cfa: sp 96 +
STACK CFI 4231c .cfa: x29 96 + x19: .cfa -8 + ^ x20: .cfa -16 + ^ x21: .cfa -24 + ^ x22: .cfa -32 + ^ x23: .cfa -40 + ^ x24: .cfa -48 + ^ x25: .cfa -56 + ^ x26: .cfa -64 + ^ x27: .cfa -72 + ^ x28: .cfa -80 + ^ .ra: .cfa -88 + ^ x29: .cfa -96 + ^
STACK CFI 42d9c .cfa: sp 96 +
STACK CFI 42db4 .cfa: sp 0 +
STACK CFI 42db8 .cfa: x29 96 +
STACK CFI INIT 431c8 21c .cfa: sp 0 +
STACK CFI 431cc .cfa: sp 144 +
STACK CFI 431e8 .cfa: x29 80 + x19: .cfa -8 + ^ x20: .cfa -16 + ^ x21: .cfa -24 + ^ x22: .cfa -32 + ^ x23: .cfa -40 + ^ x24: .cfa -48 + ^ x25: .cfa -56 + ^ x26: .cfa -64 + ^ .ra: .cfa -72 + ^ x29: .cfa -80 + ^ v8: .cfa -96 + ^
STACK CFI 43390 .cfa: sp 144 +
STACK CFI 433ac .cfa: sp 0 +
STACK CFI 433b0 .cfa: x29 80 +
STACK CFI INIT 433e4 1c0 .cfa: sp 0 +
STACK CFI 433e8 .cfa: sp 160 +
STACK CFI 43404 .cfa: x29 80 + x19: .cfa -8 + ^ x20: .cfa -16 + ^ x21: .cfa -24 + ^ x22: .cfa -32 + ^ x23: .cfa -40 + ^ x24: .cfa -48 + ^ x25: .cfa -56 + ^ x26: .cfa -64 + ^ .ra: .cfa -72 + ^ x29: .cfa -80 + ^ v8: .cfa -96 + ^
STACK CFI 43530 .cfa: sp 160 +
STACK CFI 4354c .cfa: sp 0 +
STACK CFI 43550 .cfa: x29 80 +
STACK CFI INIT 435a4 46c .cfa: sp 0 +
STACK CFI 435a8 .cfa: sp 176 +
STACK CFI 435cc .cfa: x29 96 + x19: .cfa -8 + ^ x20: .cfa -16 + ^ x21: .cfa -24 + ^ x22: .cfa -32 + ^ x23: .cfa -40 + ^ x24: .cfa -48 + ^ x25: .cfa -56 + ^ x26: .cfa -64 + ^ x27: .cfa -72 + ^ x28: .cfa -80 + ^ .ra: .cfa -88 + ^ x29: .cfa -96 + ^ v8: .cfa -104 + ^ v9: .cfa -112 + ^ v10: .cfa -128 + ^
STACK CFI 439b0 .cfa: sp 176 +
STACK CFI 439d4 .cfa: sp 0 +
STACK CFI 439d8 .cfa: x29 96 +
STACK CFI INIT 43a10 1c0 .cfa: sp 0 +
STACK CFI 43a14 .cfa: sp 160 +
STACK CFI 43a30 .cfa: x29 80 + x19: .cfa -8 + ^ x20: .cfa -16 + ^ x21: .cfa -24 + ^ x22: .cfa -32 + ^ x23: .cfa -40 + ^ x24: .cfa -48 + ^ x25: .cfa -56 + ^ x26: .cfa -64 + ^ .ra: .cfa -72 + ^ x29: .cfa -80 + ^ v8: .cfa -96 + ^
STACK CFI 43b5c .cfa: sp 160 +
STACK CFI 43b78 .cfa: sp 0 +
STACK CFI 43b7c .cfa: x29 80 +
STACK CFI INIT 43c80 798 .cfa: sp 0 +
STACK CFI 43c84 .cfa: sp 288 +
STACK CFI 43ca8 .cfa: x29 96 + x19: .cfa -8 + ^ x20: .cfa -16 + ^ x21: .cfa -24 + ^ x22: .cfa -32 + ^ x23: .cfa -40 + ^ x24: .cfa -48 + ^ x25: .cfa -56 + ^ x26: .cfa -64 + ^ x28: .cfa -80 + ^ .ra: .cfa -88 + ^ x29: .cfa -96 + ^ v8: .cfa -104 + ^ v9: .cfa -112 + ^ v10: .cfa -120 + ^ v11: .cfa -128 + ^
STACK CFI 4428c .cfa: sp 288 +
STACK CFI 442b0 .cfa: sp 0 +
STACK CFI 442b4 .cfa: x29 96 +
STACK CFI INIT 44418 760 .cfa: sp 0 +
STACK CFI 4441c .cfa: sp 448 +
STACK CFI 44438 .cfa: x29 96 + x19: .cfa -8 + ^ x20: .cfa -16 + ^ x21: .cfa -24 + ^ x22: .cfa -32 + ^ x23: .cfa -40 + ^ x24: .cfa -48 + ^ x25: .cfa -56 + ^ x26: .cfa -64 + ^ x27: .cfa -72 + ^ x28: .cfa -80 + ^ .ra: .cfa -88 + ^ x29: .cfa -96 + ^
STACK CFI 44a30 .cfa: sp 448 +
STACK CFI 44a4c .cfa: sp 0 +
STACK CFI 44a50 .cfa: x29 96 +
STACK CFI INIT 44b78 358 .cfa: sp 0 +
STACK CFI 44b7c .cfa: sp 272 +
STACK CFI 44b98 .cfa: x29 96 + x19: .cfa -8 + ^ x20: .cfa -16 + ^ x21: .cfa -24 + ^ x22: .cfa -32 + ^ x23: .cfa -40 + ^ x24: .cfa -48 + ^ x25: .cfa -56 + ^ x26: .cfa -64 + ^ x27: .cfa -72 + ^ x28: .cfa -80 + ^ .ra: .cfa -88 + ^ x29: .cfa -96 + ^
STACK CFI 44e0c .cfa: sp 272 +
STACK CFI 44e28 .cfa: sp 0 +
STACK CFI 44e2c .cfa: x29 96 +
STACK CFI INIT 44ed0 358 .cfa: sp 0 +
STACK CFI 44ed4 .cfa: sp 272 +
STACK CFI 44ef0 .cfa: x29 96 + x19: .cfa -8 + ^ x20: .cfa -16 + ^ x21: .cfa -24 + ^ x22: .cfa -32 + ^ x23: .cfa -40 + ^ x24: .cfa -48 + ^ x25: .cfa -56 + ^ x26: .cfa -64 + ^ x27: .cfa -72 + ^ x28: .cfa -80 + ^ .ra: .cfa -88 + ^ x29: .cfa -96 + ^
STACK CFI 45164 .cfa: sp 272 +
STACK CFI 45180 .cfa: sp 0 +
STACK CFI 45184 .cfa: x29 96 +
STACK CFI INIT 45228 dc .cfa: sp 0 +
STACK CFI 4522c .cfa: sp 96 +
STACK CFI 4523c .cfa: x29 48 + x19: .cfa -8 + ^ x20: .cfa -16 + ^ x21: .cfa -24 + ^ x22: .cfa -32 + ^ .ra: .cfa -40 + ^ x29: .cfa -48 + ^
STACK CFI 452b8 .cfa: sp 96 +
STACK CFI 452c8 .cfa: sp 0 +
STACK CFI 452cc .cfa: x29 48 +
STACK CFI INIT 45304 330 .cfa: sp 0 +
STACK CFI 45308 .cfa: sp 208 +
STACK CFI 45320 .cfa: x29 80 + x19: .cfa -8 + ^ x20: .cfa -16 + ^ x21: .cfa -24 + ^ x22: .cfa -32 + ^ x23: .cfa -40 + ^ x24: .cfa -48 + ^ x25: .cfa -64 + ^ .ra: .cfa -72 + ^ x29: .cfa -80 + ^
STACK CFI 45508 .cfa: sp 208 +
STACK CFI 45520 .cfa: sp 0 +
STACK CFI 45524 .cfa: x29 80 +
STACK CFI INIT 45634 e8 .cfa: sp 0 +
STACK CFI 45638 .cfa: sp 96 +
STACK CFI 45648 .cfa: x29 48 + x19: .cfa -8 + ^ x20: .cfa -16 + ^ x21: .cfa -32 + ^ .ra: .cfa -40 + ^ x29: .cfa -48 + ^
STACK CFI 456d0 .cfa: sp 96 +
STACK CFI 456e0 .cfa: sp 0 +
STACK CFI 456e4 .cfa: x29 48 +
STACK CFI INIT 45744 194 .cfa: sp 0 +
STACK CFI 45748 .cfa: sp 96 +
STACK CFI 4575c .cfa: x29 48 + x19: .cfa -8 + ^ x20: .cfa -16 + ^ x21: .cfa -24 + ^ x22: .cfa -32 + ^ .ra: .cfa -40 + ^ x29: .cfa -48 + ^ v8: .cfa -64 + ^
STACK CFI 45868 .cfa: sp 96 +
STACK CFI 4587c .cfa: sp 0 +
STACK CFI 45880 .cfa: x29 48 +
STACK CFI INIT 459d8 124 .cfa: sp 0 +
STACK CFI 459dc .cfa: sp 96 +
STACK CFI 459ec .cfa: x29 48 + x19: .cfa -8 + ^ x20: .cfa -16 + ^ x21: .cfa -24 + ^ x22: .cfa -32 + ^ .ra: .cfa -40 + ^ x29: .cfa -48 + ^
STACK CFI 45ac0 .cfa: sp 96 +
STACK CFI 45ad0 .cfa: sp 0 +
STACK CFI 45ad4 .cfa: x29 48 +
STACK CFI INIT 45c5c 124 .cfa: sp 0 +
STACK CFI 45c60 .cfa: sp 64 +
STACK CFI 45c70 .cfa: x29 64 + x19: .cfa -8 + ^ x20: .cfa -16 + ^ x21: .cfa -24 + ^ x22: .cfa -32 + ^ x23: .cfa -40 + ^ x24: .cfa -48 + ^ .ra: .cfa -56 + ^ x29: .cfa -64 + ^
STACK CFI 45d40 .cfa: sp 64 +
STACK CFI 45d50 .cfa: sp 0 +
STACK CFI 45d54 .cfa: x29 64 +
STACK CFI INIT 45dcc 284 .cfa: sp 0 +
STACK CFI 45dd0 .cfa: sp 144 +
STACK CFI 45dec .cfa: x29 96 + x19: .cfa -8 + ^ x20: .cfa -16 + ^ x21: .cfa -24 + ^ x22: .cfa -32 + ^ x23: .cfa -40 + ^ x24: .cfa -48 + ^ x25: .cfa -56 + ^ x26: .cfa -64 + ^ x27: .cfa -80 + ^ .ra: .cfa -88 + ^ x29: .cfa -96 + ^
STACK CFI 45fc0 .cfa: sp 144 +
STACK CFI 45fdc .cfa: sp 0 +
STACK CFI 45fe0 .cfa: x29 96 +
STACK CFI INIT 46050 710 .cfa: sp 0 +
STACK CFI 46054 .cfa: sp 448 +
STACK CFI 46070 .cfa: x29 96 + x19: .cfa -8 + ^ x20: .cfa -16 + ^ x21: .cfa -24 + ^ x22: .cfa -32 + ^ x23: .cfa -40 + ^ x24: .cfa -48 + ^ x25: .cfa -56 + ^ x26: .cfa -64 + ^ x27: .cfa -72 + ^ x28: .cfa -80 + ^ .ra: .cfa -88 + ^ x29: .cfa -96 + ^
STACK CFI 465d4 .cfa: sp 448 +
STACK CFI 465f0 .cfa: sp 0 +
STACK CFI 465f4 .cfa: x29 96 +
STACK CFI INIT 46760 90 .cfa: sp 0 +
STACK CFI 46764 .cfa: sp 48 +
STACK CFI 46770 .cfa: x29 32 + x19: .cfa -8 + ^ x20: .cfa -16 + ^ .ra: .cfa -24 + ^ x29: .cfa -32 + ^
STACK CFI 467b8 .cfa: sp 48 +
STACK CFI 467c4 .cfa: sp 0 +
STACK CFI 467c8 .cfa: x29 32 +
STACK CFI INIT 467f0 124 .cfa: sp 0 +
STACK CFI 467f4 .cfa: sp 96 +
STACK CFI 46808 .cfa: x29 40 + x19: .cfa -8 + ^ x20: .cfa -16 + ^ x21: .cfa -24 + ^ .ra: .cfa -32 + ^ x29: .cfa -40 + ^ v8: .cfa -48 + ^
STACK CFI 468b8 .cfa: sp 96 +
STACK CFI 468cc .cfa: sp 0 +
STACK CFI 468d0 .cfa: x29 40 +
STACK CFI INIT 46924 94 .cfa: sp 0 +
STACK CFI 46928 .cfa: sp 48 +
STACK CFI 46934 .cfa: x29 32 + x19: .cfa -8 + ^ x20: .cfa -16 + ^ .ra: .cfa -24 + ^ x29: .cfa -32 + ^
STACK CFI 46980 .cfa: sp 48 +
STACK CFI 4698c .cfa: sp 0 +
STACK CFI 46990 .cfa: x29 32 +
STACK CFI INIT 46ac8 8b0 .cfa: sp 0 +
STACK CFI 46acc .cfa: sp 96 +
STACK CFI 46ae4 .cfa: x29 96 + x19: .cfa -8 + ^ x20: .cfa -16 + ^ x21: .cfa -24 + ^ x22: .cfa -32 + ^ x23: .cfa -40 + ^ x24: .cfa -48 + ^ x25: .cfa -56 + ^ x26: .cfa -64 + ^ x27: .cfa -72 + ^ x28: .cfa -80 + ^ .ra: .cfa -88 + ^ x29: .cfa -96 + ^
STACK CFI 4724c .cfa: sp 96 +
STACK CFI 47264 .cfa: sp 0 +
STACK CFI 47268 .cfa: x29 96 +
STACK CFI INIT 47378 164 .cfa: sp 0 +
STACK CFI 4737c .cfa: sp 128 +
STACK CFI 47390 .cfa: x29 64 + x19: .cfa -8 + ^ x20: .cfa -16 + ^ x21: .cfa -24 + ^ x22: .cfa -32 + ^ x23: .cfa -40 + ^ x24: .cfa -48 + ^ .ra: .cfa -56 + ^ x29: .cfa -64 + ^
STACK CFI 47494 .cfa: sp 128 +
STACK CFI 474a8 .cfa: sp 0 +
STACK CFI 474ac .cfa: x29 64 +
STACK CFI INIT 474dc 124 .cfa: sp 0 +
STACK CFI 474e0 .cfa: sp 112 +
STACK CFI 474f0 .cfa: x29 48 + x19: .cfa -8 + ^ x20: .cfa -16 + ^ x21: .cfa -24 + ^ x22: .cfa -32 + ^ .ra: .cfa -40 + ^ x29: .cfa -48 + ^
STACK CFI 475bc .cfa: sp 112 +
STACK CFI 475cc .cfa: sp 0 +
STACK CFI 475d0 .cfa: x29 48 +
STACK CFI INIT 47600 108 .cfa: sp 0 +
STACK CFI 47604 .cfa: sp 112 +
STACK CFI 47614 .cfa: x29 48 + x19: .cfa -8 + ^ x20: .cfa -16 + ^ x21: .cfa -24 + ^ x22: .cfa -32 + ^ .ra: .cfa -40 + ^ x29: .cfa -48 + ^
STACK CFI 476c4 .cfa: sp 112 +
STACK CFI 476d4 .cfa: sp 0 +
STACK CFI 476d8 .cfa: x29 48 +
STACK CFI INIT 47708 f30 .cfa: sp 0 +
STACK CFI 4770c .cfa: sp 368 +
STACK CFI 4772c .cfa: x29 96 + x19: .cfa -8 + ^ x20: .cfa -16 + ^ x21: .cfa -24 + ^ x22: .cfa -32 + ^ x23: .cfa -40 + ^ x24: .cfa -48 + ^ x25: .cfa -56 + ^ x26: .cfa -64 + ^ x27: .cfa -72 + ^ x28: .cfa -80 + ^ .ra: .cfa -88 + ^ x29: .cfa -96 + ^ v8: .cfa -104 + ^ v9: .cfa -112 + ^
STACK CFI 48448 .cfa: sp 368 +
STACK CFI 48468 .cfa: sp 0 +
STACK CFI 4846c .cfa: x29 96 +
STACK CFI INIT 48764 1c8 .cfa: sp 0 +
STACK CFI 48768 .cfa: sp 192 +
STACK CFI 4877c .cfa: x29 64 + x19: .cfa -8 + ^ x20: .cfa -16 + ^ x21: .cfa -24 + ^ x22: .cfa -32 + ^ x23: .cfa -48 + ^ .ra: .cfa -56 + ^ x29: .cfa -64 + ^
STACK CFI 488bc .cfa: sp 192 +
STACK CFI 488d0 .cfa: sp 0 +
STACK CFI 488d4 .cfa: x29 64 +
STACK CFI INIT 4892c 1bc8 .cfa: sp 0 +
STACK CFI 48930 .cfa: sp 352 +
STACK CFI 48958 .cfa: x29 96 + x19: .cfa -8 + ^ x20: .cfa -16 + ^ x21: .cfa -24 + ^ x22: .cfa -32 + ^ x23: .cfa -40 + ^ x24: .cfa -48 + ^ x25: .cfa -56 + ^ x26: .cfa -64 + ^ x27: .cfa -72 + ^ x28: .cfa -80 + ^ .ra: .cfa -88 + ^ x29: .cfa -96 + ^ v8: .cfa -104 + ^ v9: .cfa -112 + ^ v10: .cfa -120 + ^ v11: .cfa -128 + ^ v12: .cfa -144 + ^
STACK CFI 4a39c .cfa: sp 352 +
STACK CFI 4a3c4 .cfa: sp 0 +
STACK CFI 4a3c8 .cfa: x29 96 +
STACK CFI INIT 4a4f4 194 .cfa: sp 0 +
STACK CFI 4a4f8 .cfa: sp 112 +
STACK CFI 4a510 .cfa: x29 56 + x19: .cfa -8 + ^ x20: .cfa -16 + ^ x21: .cfa -24 + ^ x22: .cfa -32 + ^ x23: .cfa -40 + ^ .ra: .cfa -48 + ^ x29: .cfa -56 + ^ v8: .cfa -64 + ^
STACK CFI 4a630 .cfa: sp 112 +
STACK CFI 4a648 .cfa: sp 0 +
STACK CFI 4a64c .cfa: x29 56 +
STACK CFI INIT 4a6d4 a94 .cfa: sp 0 +
STACK CFI 4a6d8 .cfa: sp 256 +
STACK CFI 4a6fc .cfa: x29 96 + x19: .cfa -8 + ^ x20: .cfa -16 + ^ x21: .cfa -24 + ^ x22: .cfa -32 + ^ x23: .cfa -40 + ^ x24: .cfa -48 + ^ x25: .cfa -56 + ^ x26: .cfa -64 + ^ x27: .cfa -72 + ^ x28: .cfa -80 + ^ .ra: .cfa -88 + ^ x29: .cfa -96 + ^ v8: .cfa -104 + ^ v9: .cfa -112 + ^ v10: .cfa -128 + ^
STACK CFI 4b084 .cfa: sp 256 +
STACK CFI 4b0a8 .cfa: sp 0 +
STACK CFI 4b0ac .cfa: x29 96 +
STACK CFI INIT 4b18c 1f4 .cfa: sp 0 +
STACK CFI 4b190 .cfa: sp 128 +
STACK CFI 4b1a8 .cfa: x29 56 + x19: .cfa -8 + ^ x20: .cfa -16 + ^ x21: .cfa -24 + ^ x22: .cfa -32 + ^ x23: .cfa -40 + ^ .ra: .cfa -48 + ^ x29: .cfa -56 + ^ v8: .cfa -64 + ^
STACK CFI 4b2d0 .cfa: sp 128 +
STACK CFI 4b2e8 .cfa: sp 0 +
STACK CFI 4b2ec .cfa: x29 56 +
STACK CFI INIT 4b380 240 .cfa: sp 0 +
STACK CFI 4b384 .cfa: sp 96 +
STACK CFI 4b39c .cfa: x29 48 + x19: .cfa -8 + ^ x20: .cfa -16 + ^ x21: .cfa -32 + ^ .ra: .cfa -40 + ^ x29: .cfa -48 + ^ v8: .cfa -56 + ^ v9: .cfa -64 + ^ v10: .cfa -72 + ^ v11: .cfa -80 + ^
STACK CFI 4b504 .cfa: sp 96 +
STACK CFI 4b51c .cfa: sp 0 +
STACK CFI 4b520 .cfa: x29 48 +
STACK CFI 4b57c .cfa: sp 96 +
STACK CFI 4b594 .cfa: sp 0 +
STACK CFI 4b598 .cfa: x29 48 +
STACK CFI INIT 4b5c0 11c .cfa: sp 0 +
STACK CFI 4b5c4 .cfa: sp 96 +
STACK CFI 4b5d4 .cfa: x29 48 + x19: .cfa -8 + ^ x20: .cfa -16 + ^ x21: .cfa -32 + ^ .ra: .cfa -40 + ^ x29: .cfa -48 + ^
STACK CFI 4b698 .cfa: sp 96 +
STACK CFI 4b6a8 .cfa: sp 0 +
STACK CFI 4b6ac .cfa: x29 48 +
STACK CFI INIT 4b6dc 76c .cfa: sp 0 +
STACK CFI 4b6e0 .cfa: sp 192 +
STACK CFI 4b700 .cfa: x29 80 + x19: .cfa -8 + ^ x20: .cfa -16 + ^ x21: .cfa -24 + ^ x22: .cfa -32 + ^ x23: .cfa -40 + ^ x24: .cfa -48 + ^ x25: .cfa -56 + ^ x26: .cfa -64 + ^ .ra: .cfa -72 + ^ x29: .cfa -80 + ^ v8: .cfa -88 + ^ v9: .cfa -96 + ^ v10: .cfa -112 + ^
STACK CFI 4bdbc .cfa: sp 192 +
STACK CFI 4bddc .cfa: sp 0 +
STACK CFI 4bde0 .cfa: x29 80 +
STACK CFI INIT 4be48 388 .cfa: sp 0 +
STACK CFI 4be4c .cfa: sp 112 +
STACK CFI 4be64 .cfa: x29 64 + x19: .cfa -8 + ^ x20: .cfa -16 + ^ x21: .cfa -24 + ^ x22: .cfa -32 + ^ x23: .cfa -40 + ^ x24: .cfa -48 + ^ .ra: .cfa -56 + ^ x29: .cfa -64 + ^ v8: .cfa -72 + ^ v9: .cfa -80 + ^
STACK CFI 4c180 .cfa: sp 112 +
STACK CFI 4c198 .cfa: sp 0 +
STACK CFI 4c19c .cfa: x29 64 +
STACK CFI INIT 4c1d0 15c .cfa: sp 0 +
STACK CFI 4c1d4 .cfa: sp 128 +
STACK CFI 4c1e0 .cfa: x29 32 + x19: .cfa -8 + ^ x20: .cfa -16 + ^ .ra: .cfa -24 + ^ x29: .cfa -32 + ^
STACK CFI 4c2bc .cfa: sp 128 +
STACK CFI 4c2c8 .cfa: sp 0 +
STACK CFI 4c2cc .cfa: x29 32 +
STACK CFI INIT 4c3d4 3f0 .cfa: sp 0 +
STACK CFI 4c3d8 .cfa: sp 160 +
STACK CFI 4c3f4 .cfa: x29 64 + x19: .cfa -8 + ^ x20: .cfa -16 + ^ x21: .cfa -24 + ^ x22: .cfa -32 + ^ x23: .cfa -40 + ^ x24: .cfa -48 + ^ .ra: .cfa -56 + ^ x29: .cfa -64 + ^ v8: .cfa -72 + ^ v9: .cfa -80 + ^ v10: .cfa -88 + ^ v11: .cfa -96 + ^
STACK CFI 4c77c .cfa: sp 160 +
STACK CFI 4c798 .cfa: sp 0 +
STACK CFI 4c79c .cfa: x29 64 +
STACK CFI INIT 4c7c4 d0 .cfa: sp 0 +
STACK CFI 4c7c8 .cfa: sp 80 +
STACK CFI 4c7dc .cfa: x29 64 + x19: .cfa -8 + ^ x20: .cfa -16 + ^ x21: .cfa -24 + ^ x22: .cfa -32 + ^ x23: .cfa -40 + ^ x24: .cfa -48 + ^ .ra: .cfa -56 + ^ x29: .cfa -64 + ^
STACK CFI 4c854 .cfa: sp 80 +
STACK CFI 4c868 .cfa: sp 0 +
STACK CFI 4c86c .cfa: x29 64 +
STACK CFI INIT 4c894 244 .cfa: sp 0 +
STACK CFI 4c898 .cfa: sp 112 +
STACK CFI 4c8a8 .cfa: x29 48 + x19: .cfa -8 + ^ x20: .cfa -16 + ^ x21: .cfa -32 + ^ .ra: .cfa -40 + ^ x29: .cfa -48 + ^
STACK CFI 4ca8c .cfa: sp 112 +
STACK CFI 4ca9c .cfa: sp 0 +
STACK CFI 4caa0 .cfa: x29 48 +
STACK CFI INIT 4cc70 21c .cfa: sp 0 +
STACK CFI 4cc74 .cfa: sp 192 +
STACK CFI 4cc88 .cfa: x29 64 + x19: .cfa -8 + ^ x20: .cfa -16 + ^ x21: .cfa -24 + ^ x22: .cfa -32 + ^ x23: .cfa -48 + ^ .ra: .cfa -56 + ^ x29: .cfa -64 + ^
STACK CFI 4cdc8 .cfa: sp 192 +
STACK CFI 4cddc .cfa: sp 0 +
STACK CFI 4cde0 .cfa: x29 64 +
STACK CFI INIT 4ce90 1ac .cfa: sp 0 +
STACK CFI 4ce94 .cfa: sp 128 +
STACK CFI 4cea4 .cfa: x29 48 + x19: .cfa -8 + ^ x20: .cfa -16 + ^ x21: .cfa -32 + ^ .ra: .cfa -40 + ^ x29: .cfa -48 + ^
STACK CFI 4cfc0 .cfa: sp 128 +
STACK CFI 4cfd0 .cfa: sp 0 +
STACK CFI 4cfd4 .cfa: x29 48 +
STACK CFI INIT 4d428 198 .cfa: sp 0 +
STACK CFI 4d42c .cfa: sp 128 +
STACK CFI 4d440 .cfa: x29 64 + x19: .cfa -8 + ^ x20: .cfa -16 + ^ x21: .cfa -24 + ^ x22: .cfa -32 + ^ x23: .cfa -48 + ^ .ra: .cfa -56 + ^ x29: .cfa -64 + ^
STACK CFI 4d580 .cfa: sp 128 +
STACK CFI 4d594 .cfa: sp 0 +
STACK CFI 4d598 .cfa: x29 64 +
STACK CFI INIT 4d894 188 .cfa: sp 0 +
STACK CFI 4d898 .cfa: sp 112 +
STACK CFI 4d8a8 .cfa: x29 48 + x19: .cfa -8 + ^ x20: .cfa -16 + ^ x21: .cfa -24 + ^ x22: .cfa -32 + ^ .ra: .cfa -40 + ^ x29: .cfa -48 + ^
STACK CFI 4d9e0 .cfa: sp 112 +
STACK CFI 4d9f0 .cfa: sp 0 +
STACK CFI 4d9f4 .cfa: x29 48 +
STACK CFI INIT 4da74 184 .cfa: sp 0 +
STACK CFI 4da78 .cfa: sp 160 +
STACK CFI 4da88 .cfa: x29 48 + x19: .cfa -8 + ^ x20: .cfa -16 + ^ x21: .cfa -32 + ^ .ra: .cfa -40 + ^ x29: .cfa -48 + ^
STACK CFI 4db9c .cfa: sp 160 +
STACK CFI 4dbac .cfa: sp 0 +
STACK CFI 4dbb0 .cfa: x29 48 +
STACK CFI INIT 4dd50 228 .cfa: sp 0 +
STACK CFI 4dd54 .cfa: sp 128 +
STACK CFI 4dd6c .cfa: x29 56 + x19: .cfa -8 + ^ x20: .cfa -16 + ^ x21: .cfa -24 + ^ x22: .cfa -32 + ^ x23: .cfa -40 + ^ .ra: .cfa -48 + ^ x29: .cfa -56 + ^ v8: .cfa -64 + ^
STACK CFI 4dec8 .cfa: sp 128 +
STACK CFI 4dee0 .cfa: sp 0 +
STACK CFI 4dee4 .cfa: x29 56 +
STACK CFI INIT 4df78 140 .cfa: sp 0 +
STACK CFI 4df7c .cfa: sp 96 +
STACK CFI 4df8c .cfa: x29 48 + x19: .cfa -8 + ^ x20: .cfa -16 + ^ x21: .cfa -32 + ^ .ra: .cfa -40 + ^ x29: .cfa -48 + ^
STACK CFI 4e074 .cfa: sp 96 +
STACK CFI 4e084 .cfa: sp 0 +
STACK CFI 4e088 .cfa: x29 48 +
STACK CFI INIT 4e0b8 594 .cfa: sp 0 +
STACK CFI 4e0bc .cfa: sp 160 +
STACK CFI 4e0d4 .cfa: x29 64 + x19: .cfa -8 + ^ x20: .cfa -16 + ^ x21: .cfa -24 + ^ x22: .cfa -32 + ^ x23: .cfa -40 + ^ x24: .cfa -48 + ^ .ra: .cfa -56 + ^ x29: .cfa -64 + ^ v8: .cfa -72 + ^ v9: .cfa -80 + ^
STACK CFI 4e5e0 .cfa: sp 160 +
STACK CFI 4e5f8 .cfa: sp 0 +
STACK CFI 4e5fc .cfa: x29 64 +
STACK CFI INIT 4e64c 388 .cfa: sp 0 +
STACK CFI 4e650 .cfa: sp 112 +
STACK CFI 4e668 .cfa: x29 64 + x19: .cfa -8 + ^ x20: .cfa -16 + ^ x21: .cfa -24 + ^ x22: .cfa -32 + ^ x23: .cfa -40 + ^ x24: .cfa -48 + ^ .ra: .cfa -56 + ^ x29: .cfa -64 + ^ v8: .cfa -72 + ^ v9: .cfa -80 + ^
STACK CFI 4e984 .cfa: sp 112 +
STACK CFI 4e99c .cfa: sp 0 +
STACK CFI 4e9a0 .cfa: x29 64 +
STACK CFI INIT 4e9d4 15c .cfa: sp 0 +
STACK CFI 4e9d8 .cfa: sp 128 +
STACK CFI 4e9e4 .cfa: x29 32 + x19: .cfa -8 + ^ x20: .cfa -16 + ^ .ra: .cfa -24 + ^ x29: .cfa -32 + ^
STACK CFI 4eac0 .cfa: sp 128 +
STACK CFI 4eacc .cfa: sp 0 +
STACK CFI 4ead0 .cfa: x29 32 +
STACK CFI INIT 4ebd8 228 .cfa: sp 0 +
STACK CFI 4ebdc .cfa: sp 112 +
STACK CFI 4ebf8 .cfa: x29 72 + x19: .cfa -8 + ^ x20: .cfa -16 + ^ x21: .cfa -24 + ^ x22: .cfa -32 + ^ x23: .cfa -40 + ^ x24: .cfa -48 + ^ x25: .cfa -56 + ^ .ra: .cfa -64 + ^ x29: .cfa -72 + ^ v8: .cfa -80 + ^
STACK CFI 4edb8 .cfa: sp 112 +
STACK CFI 4edd4 .cfa: sp 0 +
STACK CFI 4edd8 .cfa: x29 72 +
STACK CFI INIT 4ee00 1b4 .cfa: sp 0 +
STACK CFI 4ee04 .cfa: sp 80 +
STACK CFI 4ee14 .cfa: x29 48 + x19: .cfa -8 + ^ x20: .cfa -16 + ^ x21: .cfa -32 + ^ .ra: .cfa -40 + ^ x29: .cfa -48 + ^
STACK CFI 4ef6c .cfa: sp 80 +
STACK CFI 4ef7c .cfa: sp 0 +
STACK CFI 4ef80 .cfa: x29 48 +
STACK CFI INIT 4f19c 7a4 .cfa: sp 0 +
STACK CFI 4f1a0 .cfa: sp 160 +
STACK CFI 4f1bc .cfa: x29 80 + x19: .cfa -8 + ^ x20: .cfa -16 + ^ x21: .cfa -24 + ^ x22: .cfa -32 + ^ x23: .cfa -40 + ^ x24: .cfa -48 + ^ x25: .cfa -56 + ^ x26: .cfa -64 + ^ .ra: .cfa -72 + ^ x29: .cfa -80 + ^ v8: .cfa -96 + ^
STACK CFI 4f8d4 .cfa: sp 160 +
STACK CFI 4f8f0 .cfa: sp 0 +
STACK CFI 4f8f4 .cfa: x29 80 +
STACK CFI INIT 4f9b8 26c .cfa: sp 0 +
STACK CFI 4f9bc .cfa: sp 96 +
STACK CFI 4f9d0 .cfa: x29 48 + x19: .cfa -8 + ^ x20: .cfa -16 + ^ x21: .cfa -24 + ^ x22: .cfa -32 + ^ .ra: .cfa -40 + ^ x29: .cfa -48 + ^ v8: .cfa -56 + ^ v9: .cfa -64 + ^
STACK CFI 4fbd8 .cfa: sp 96 +
STACK CFI 4fbec .cfa: sp 0 +
STACK CFI 4fbf0 .cfa: x29 48 +
STACK CFI INIT 4fc24 c7c .cfa: sp 0 +
STACK CFI 4fc28 .cfa: sp 320 +
STACK CFI 4fc4c .cfa: x29 80 + x19: .cfa -8 + ^ x20: .cfa -16 + ^ x21: .cfa -24 + ^ x22: .cfa -32 + ^ x23: .cfa -40 + ^ x24: .cfa -48 + ^ x25: .cfa -56 + ^ x28: .cfa -64 + ^ .ra: .cfa -72 + ^ x29: .cfa -80 + ^ v8: .cfa -88 + ^ v9: .cfa -96 + ^ v10: .cfa -104 + ^ v11: .cfa -112 + ^ v12: .cfa -128 + ^
STACK CFI 507cc .cfa: sp 320 +
STACK CFI 507f0 .cfa: sp 0 +
STACK CFI 507f4 .cfa: x29 80 +
STACK CFI INIT 508a0 3ec .cfa: sp 0 +
STACK CFI 508a4 .cfa: sp 144 +
STACK CFI 508bc .cfa: x29 64 + x19: .cfa -8 + ^ x20: .cfa -16 + ^ x21: .cfa -24 + ^ x22: .cfa -32 + ^ x23: .cfa -48 + ^ .ra: .cfa -56 + ^ x29: .cfa -64 + ^ v8: .cfa -72 + ^ v9: .cfa -80 + ^
STACK CFI 50bf8 .cfa: sp 144 +
STACK CFI 50c10 .cfa: sp 0 +
STACK CFI 50c14 .cfa: x29 64 +
STACK CFI INIT 50c90 1d4 .cfa: sp 0 +
STACK CFI 50c94 .cfa: sp 320 +
STACK CFI 50cac .cfa: x29 80 + x19: .cfa -8 + ^ x20: .cfa -16 + ^ x21: .cfa -24 + ^ x22: .cfa -32 + ^ x23: .cfa -40 + ^ x24: .cfa -48 + ^ x28: .cfa -64 + ^ .ra: .cfa -72 + ^ x29: .cfa -80 + ^
STACK CFI 50e18 .cfa: sp 320 +
STACK CFI 50e30 .cfa: sp 0 +
STACK CFI 50e34 .cfa: x29 80 +
STACK CFI INIT 535c0 2a4 .cfa: sp 0 +
STACK CFI 535c4 .cfa: sp 144 +
STACK CFI 535dc .cfa: x29 64 + x19: .cfa -8 + ^ x20: .cfa -16 + ^ x21: .cfa -24 + ^ x22: .cfa -32 + ^ x23: .cfa -40 + ^ x24: .cfa -48 + ^ .ra: .cfa -56 + ^ x29: .cfa -64 + ^ v8: .cfa -72 + ^ v9: .cfa -80 + ^
STACK CFI 5378c .cfa: sp 144 +
STACK CFI 537a4 .cfa: sp 0 +
STACK CFI 537a8 .cfa: x29 64 +
STACK CFI INIT 538a0 2a0 .cfa: sp 0 +
STACK CFI 538a4 .cfa: sp 176 +
STACK CFI 538b8 .cfa: x29 64 + x19: .cfa -8 + ^ x20: .cfa -16 + ^ x21: .cfa -24 + ^ x22: .cfa -32 + ^ x23: .cfa -48 + ^ .ra: .cfa -56 + ^ x29: .cfa -64 + ^
STACK CFI 53a64 .cfa: sp 176 +
STACK CFI 53a78 .cfa: sp 0 +
STACK CFI 53a7c .cfa: x29 64 +
STACK CFI INIT 53bdc 20 .cfa: sp 0 +
STACK CFI 53be0 .cfa: sp 16 +
STACK CFI 53be4 .cfa: x29 16 + .ra: .cfa -8 + ^ x29: .cfa -16 + ^
STACK CFI 53bf0 .cfa: sp 16 +
STACK CFI 53bf4 .cfa: sp 0 +
STACK CFI 53bf8 .cfa: x29 16 +
STACK CFI INIT 53bfc 20 .cfa: sp 0 +
STACK CFI 53c00 .cfa: sp 16 +
STACK CFI 53c04 .cfa: x29 16 + .ra: .cfa -8 + ^ x29: .cfa -16 + ^
STACK CFI 53c10 .cfa: sp 16 +
STACK CFI 53c14 .cfa: sp 0 +
STACK CFI 53c18 .cfa: x29 16 +
STACK CFI INIT 53c1c 30 .cfa: sp 0 +
STACK CFI 53c20 .cfa: sp 16 +
STACK CFI 53c24 .cfa: x29 16 + .ra: .cfa -8 + ^ x29: .cfa -16 + ^
STACK CFI 53c40 .cfa: sp 16 +
STACK CFI 53c44 .cfa: sp 0 +
STACK CFI 53c48 .cfa: x29 16 +
STACK CFI INIT 53c4c 3c .cfa: sp 0 +
STACK CFI 53c50 .cfa: sp 32 +
STACK CFI 53c58 .cfa: x29 32 + x19: .cfa -16 + ^ .ra: .cfa -24 + ^ x29: .cfa -32 + ^
STACK CFI 53c78 .cfa: sp 32 +
STACK CFI 53c80 .cfa: sp 0 +
STACK CFI 53c84 .cfa: x29 32 +
STACK CFI INIT 53c88 5c .cfa: sp 0 +
STACK CFI 53c8c .cfa: sp 32 +
STACK CFI 53c94 .cfa: x29 32 + x19: .cfa -8 + ^ x20: .cfa -16 + ^ .ra: .cfa -24 + ^ x29: .cfa -32 + ^
STACK CFI 53cc4 .cfa: sp 32 +
STACK CFI 53ccc .cfa: sp 0 +
STACK CFI 53cd0 .cfa: x29 32 +
STACK CFI INIT 53d04 20 .cfa: sp 0 +
STACK CFI 53d08 .cfa: sp 16 +
STACK CFI 53d0c .cfa: x29 16 + .ra: .cfa -8 + ^ x29: .cfa -16 + ^
STACK CFI 53d18 .cfa: sp 16 +
STACK CFI 53d1c .cfa: sp 0 +
STACK CFI 53d20 .cfa: x29 16 +
STACK CFI INIT 53d24 30 .cfa: sp 0 +
STACK CFI 53d28 .cfa: sp 32 +
STACK CFI 53d30 .cfa: x29 32 + x19: .cfa -16 + ^ .ra: .cfa -24 + ^ x29: .cfa -32 + ^
STACK CFI 53d44 .cfa: sp 32 +
STACK CFI 53d4c .cfa: sp 0 +
STACK CFI 53d50 .cfa: x29 32 +
STACK CFI INIT 53d88 1f4 .cfa: sp 0 +
STACK CFI 53d8c .cfa: sp 128 +
STACK CFI 53da4 .cfa: x29 56 + x19: .cfa -8 + ^ x20: .cfa -16 + ^ x21: .cfa -24 + ^ x22: .cfa -32 + ^ x23: .cfa -40 + ^ .ra: .cfa -48 + ^ x29: .cfa -56 + ^ v8: .cfa -64 + ^
STACK CFI 53ecc .cfa: sp 128 +
STACK CFI 53ee4 .cfa: sp 0 +
STACK CFI 53ee8 .cfa: x29 56 +
STACK CFI INIT 53f7c 240 .cfa: sp 0 +
STACK CFI 53f80 .cfa: sp 96 +
STACK CFI 53f98 .cfa: x29 48 + x19: .cfa -8 + ^ x20: .cfa -16 + ^ x21: .cfa -32 + ^ .ra: .cfa -40 + ^ x29: .cfa -48 + ^ v8: .cfa -56 + ^ v9: .cfa -64 + ^ v10: .cfa -72 + ^ v11: .cfa -80 + ^
STACK CFI 54100 .cfa: sp 96 +
STACK CFI 54118 .cfa: sp 0 +
STACK CFI 5411c .cfa: x29 48 +
STACK CFI 54178 .cfa: sp 96 +
STACK CFI 54190 .cfa: sp 0 +
STACK CFI 54194 .cfa: x29 48 +
STACK CFI INIT 541bc 11c .cfa: sp 0 +
STACK CFI 541c0 .cfa: sp 96 +
STACK CFI 541d0 .cfa: x29 48 + x19: .cfa -8 + ^ x20: .cfa -16 + ^ x21: .cfa -32 + ^ .ra: .cfa -40 + ^ x29: .cfa -48 + ^
STACK CFI 54294 .cfa: sp 96 +
STACK CFI 542a4 .cfa: sp 0 +
STACK CFI 542a8 .cfa: x29 48 +
STACK CFI INIT 542d8 76c .cfa: sp 0 +
STACK CFI 542dc .cfa: sp 192 +
STACK CFI 542fc .cfa: x29 80 + x19: .cfa -8 + ^ x20: .cfa -16 + ^ x21: .cfa -24 + ^ x22: .cfa -32 + ^ x23: .cfa -40 + ^ x24: .cfa -48 + ^ x25: .cfa -56 + ^ x26: .cfa -64 + ^ .ra: .cfa -72 + ^ x29: .cfa -80 + ^ v8: .cfa -88 + ^ v9: .cfa -96 + ^ v10: .cfa -112 + ^
STACK CFI 549b8 .cfa: sp 192 +
STACK CFI 549d8 .cfa: sp 0 +
STACK CFI 549dc .cfa: x29 80 +
STACK CFI INIT 54a44 388 .cfa: sp 0 +
STACK CFI 54a48 .cfa: sp 112 +
STACK CFI 54a60 .cfa: x29 64 + x19: .cfa -8 + ^ x20: .cfa -16 + ^ x21: .cfa -24 + ^ x22: .cfa -32 + ^ x23: .cfa -40 + ^ x24: .cfa -48 + ^ .ra: .cfa -56 + ^ x29: .cfa -64 + ^ v8: .cfa -72 + ^ v9: .cfa -80 + ^
STACK CFI 54d7c .cfa: sp 112 +
STACK CFI 54d94 .cfa: sp 0 +
STACK CFI 54d98 .cfa: x29 64 +
STACK CFI INIT 54dcc 15c .cfa: sp 0 +
STACK CFI 54dd0 .cfa: sp 128 +
STACK CFI 54ddc .cfa: x29 32 + x19: .cfa -8 + ^ x20: .cfa -16 + ^ .ra: .cfa -24 + ^ x29: .cfa -32 + ^
STACK CFI 54eb8 .cfa: sp 128 +
STACK CFI 54ec4 .cfa: sp 0 +
STACK CFI 54ec8 .cfa: x29 32 +
STACK CFI INIT 54fd0 228 .cfa: sp 0 +
STACK CFI 54fd4 .cfa: sp 112 +
STACK CFI 54ff0 .cfa: x29 72 + x19: .cfa -8 + ^ x20: .cfa -16 + ^ x21: .cfa -24 + ^ x22: .cfa -32 + ^ x23: .cfa -40 + ^ x24: .cfa -48 + ^ x25: .cfa -56 + ^ .ra: .cfa -64 + ^ x29: .cfa -72 + ^ v8: .cfa -80 + ^
STACK CFI 551b0 .cfa: sp 112 +
STACK CFI 551cc .cfa: sp 0 +
STACK CFI 551d0 .cfa: x29 72 +
STACK CFI INIT 551f8 1b4 .cfa: sp 0 +
STACK CFI 551fc .cfa: sp 80 +
STACK CFI 5520c .cfa: x29 48 + x19: .cfa -8 + ^ x20: .cfa -16 + ^ x21: .cfa -32 + ^ .ra: .cfa -40 + ^ x29: .cfa -48 + ^
STACK CFI 55364 .cfa: sp 80 +
STACK CFI 55374 .cfa: sp 0 +
STACK CFI 55378 .cfa: x29 48 +
STACK CFI INIT 55610 134 .cfa: sp 0 +
STACK CFI 55614 .cfa: sp 80 +
STACK CFI 55620 .cfa: x29 32 + x19: .cfa -8 + ^ x20: .cfa -16 + ^ .ra: .cfa -24 + ^ x29: .cfa -32 + ^
STACK CFI 55650 .cfa: sp 80 +
STACK CFI 5565c .cfa: sp 0 +
STACK CFI 55660 .cfa: x29 32 +
STACK CFI INIT 55744 78 .cfa: sp 0 +
STACK CFI 55748 .cfa: sp 32 +
STACK CFI 55750 .cfa: x29 32 + x19: .cfa -8 + ^ x20: .cfa -16 + ^ .ra: .cfa -24 + ^ x29: .cfa -32 + ^
STACK CFI 5575c .cfa: sp 32 +
STACK CFI 55764 .cfa: sp 0 +
STACK CFI 55768 .cfa: x29 32 +
STACK CFI INIT 557bc 74 .cfa: sp 0 +
STACK CFI 557c0 .cfa: sp 48 +
STACK CFI 557cc .cfa: x29 32 + x19: .cfa -8 + ^ x20: .cfa -16 + ^ .ra: .cfa -24 + ^ x29: .cfa -32 + ^
STACK CFI 55818 .cfa: sp 48 +
STACK CFI 55824 .cfa: sp 0 +
STACK CFI 55828 .cfa: x29 32 +
STACK CFI INIT 55894 224 .cfa: sp 0 +
STACK CFI 55898 .cfa: sp 128 +
STACK CFI 558a8 .cfa: x29 48 + x19: .cfa -8 + ^ x20: .cfa -16 + ^ x21: .cfa -32 + ^ .ra: .cfa -40 + ^ x29: .cfa -48 + ^
STACK CFI 55958 .cfa: sp 128 +
STACK CFI 55968 .cfa: sp 0 +
STACK CFI 5596c .cfa: x29 48 +
STACK CFI INIT 55adc 25c .cfa: sp 0 +
STACK CFI 55ae0 .cfa: sp 128 +
STACK CFI 55af0 .cfa: x29 48 + x19: .cfa -8 + ^ x20: .cfa -16 + ^ x21: .cfa -32 + ^ .ra: .cfa -40 + ^ x29: .cfa -48 + ^
STACK CFI 55bd8 .cfa: sp 128 +
STACK CFI 55be8 .cfa: sp 0 +
STACK CFI 55bec .cfa: x29 48 +
STACK CFI INIT 55d5c 26c .cfa: sp 0 +
STACK CFI 55d60 .cfa: sp 128 +
STACK CFI 55d70 .cfa: x29 48 + x19: .cfa -8 + ^ x20: .cfa -16 + ^ x21: .cfa -32 + ^ .ra: .cfa -40 + ^ x29: .cfa -48 + ^
STACK CFI 55e68 .cfa: sp 128 +
STACK CFI 55e78 .cfa: sp 0 +
STACK CFI 55e7c .cfa: x29 48 +
STACK CFI INIT 55fec 278 .cfa: sp 0 +
STACK CFI 55ff0 .cfa: sp 144 +
STACK CFI 56004 .cfa: x29 64 + x19: .cfa -8 + ^ x20: .cfa -16 + ^ x21: .cfa -24 + ^ x22: .cfa -32 + ^ x23: .cfa -48 + ^ .ra: .cfa -56 + ^ x29: .cfa -64 + ^
STACK CFI 56108 .cfa: sp 144 +
STACK CFI 5611c .cfa: sp 0 +
STACK CFI 56120 .cfa: x29 64 +
STACK CFI INIT 56288 22c .cfa: sp 0 +
STACK CFI 5628c .cfa: sp 128 +
STACK CFI 5629c .cfa: x29 48 + x19: .cfa -8 + ^ x20: .cfa -16 + ^ x21: .cfa -32 + ^ .ra: .cfa -40 + ^ x29: .cfa -48 + ^
STACK CFI 56354 .cfa: sp 128 +
STACK CFI 56364 .cfa: sp 0 +
STACK CFI 56368 .cfa: x29 48 +
STACK CFI INIT 564b4 224 .cfa: sp 0 +
STACK CFI 564b8 .cfa: sp 128 +
STACK CFI 564c8 .cfa: x29 48 + x19: .cfa -8 + ^ x20: .cfa -16 + ^ x21: .cfa -32 + ^ .ra: .cfa -40 + ^ x29: .cfa -48 + ^
STACK CFI 56578 .cfa: sp 128 +
STACK CFI 56588 .cfa: sp 0 +
STACK CFI 5658c .cfa: x29 48 +
STACK CFI INIT 566d8 270 .cfa: sp 0 +
STACK CFI 566dc .cfa: sp 144 +
STACK CFI 566f0 .cfa: x29 64 + x19: .cfa -8 + ^ x20: .cfa -16 + ^ x21: .cfa -24 + ^ x22: .cfa -32 + ^ x23: .cfa -48 + ^ .ra: .cfa -56 + ^ x29: .cfa -64 + ^
STACK CFI 567ec .cfa: sp 144 +
STACK CFI 56800 .cfa: sp 0 +
STACK CFI 56804 .cfa: x29 64 +
STACK CFI INIT 5696c 160 .cfa: sp 0 +
STACK CFI 56970 .cfa: sp 144 +
STACK CFI 56984 .cfa: x29 64 + x19: .cfa -8 + ^ x20: .cfa -16 + ^ x21: .cfa -24 + ^ x22: .cfa -32 + ^ x23: .cfa -48 + ^ .ra: .cfa -56 + ^ x29: .cfa -64 + ^
STACK CFI 569d4 .cfa: sp 144 +
STACK CFI 569e8 .cfa: sp 0 +
STACK CFI 569ec .cfa: x29 64 +
STACK CFI INIT 56acc f8 .cfa: sp 0 +
STACK CFI 56ad0 .cfa: sp 64 +
STACK CFI 56ae0 .cfa: x29 48 + x19: .cfa -8 + ^ x20: .cfa -16 + ^ x21: .cfa -24 + ^ x22: .cfa -32 + ^ .ra: .cfa -40 + ^ x29: .cfa -48 + ^
STACK CFI 56b8c .cfa: sp 64 +
STACK CFI 56b9c .cfa: sp 0 +
STACK CFI 56ba0 .cfa: x29 48 +
STACK CFI INIT 56bc4 150 .cfa: sp 0 +
STACK CFI 56bc8 .cfa: sp 128 +
STACK CFI 56bd8 .cfa: x29 48 + x19: .cfa -8 + ^ x20: .cfa -16 + ^ x21: .cfa -24 + ^ x22: .cfa -32 + ^ .ra: .cfa -40 + ^ x29: .cfa -48 + ^
STACK CFI 56c20 .cfa: sp 128 +
STACK CFI 56c30 .cfa: sp 0 +
STACK CFI 56c34 .cfa: x29 48 +
STACK CFI INIT 56d14 a8 .cfa: sp 0 +
STACK CFI 56d18 .cfa: sp 64 +
STACK CFI 56d28 .cfa: x29 48 + x19: .cfa -8 + ^ x20: .cfa -16 + ^ x21: .cfa -32 + ^ .ra: .cfa -40 + ^ x29: .cfa -48 + ^
STACK CFI 56d90 .cfa: sp 64 +
STACK CFI 56da0 .cfa: sp 0 +
STACK CFI 56da4 .cfa: x29 48 +
STACK CFI INIT 56de0 2c0 .cfa: sp 0 +
STACK CFI 56de4 .cfa: sp 144 +
STACK CFI 56df8 .cfa: x29 64 + x19: .cfa -8 + ^ x20: .cfa -16 + ^ x21: .cfa -24 + ^ x22: .cfa -32 + ^ x23: .cfa -48 + ^ .ra: .cfa -56 + ^ x29: .cfa -64 + ^
STACK CFI 56f44 .cfa: sp 144 +
STACK CFI 56f58 .cfa: sp 0 +
STACK CFI 56f5c .cfa: x29 64 +
STACK CFI INIT 570a0 ac .cfa: sp 0 +
STACK CFI 570a4 .cfa: sp 32 +
STACK CFI 570ac .cfa: x29 32 + x19: .cfa -8 + ^ x20: .cfa -16 + ^ .ra: .cfa -24 + ^ x29: .cfa -32 + ^
STACK CFI 5711c .cfa: sp 32 +
STACK CFI 57124 .cfa: sp 0 +
STACK CFI 57128 .cfa: x29 32 +
STACK CFI INIT 5714c 2c8 .cfa: sp 0 +
STACK CFI 57150 .cfa: sp 144 +
STACK CFI 57164 .cfa: x29 64 + x19: .cfa -8 + ^ x20: .cfa -16 + ^ x21: .cfa -24 + ^ x22: .cfa -32 + ^ x23: .cfa -48 + ^ .ra: .cfa -56 + ^ x29: .cfa -64 + ^
STACK CFI 572b8 .cfa: sp 144 +
STACK CFI 572cc .cfa: sp 0 +
STACK CFI 572d0 .cfa: x29 64 +
STACK CFI INIT 574a4 178 .cfa: sp 0 +
STACK CFI 574a8 .cfa: sp 128 +
STACK CFI 574b8 .cfa: x29 48 + x19: .cfa -8 + ^ x20: .cfa -16 + ^ x21: .cfa -24 + ^ x22: .cfa -32 + ^ .ra: .cfa -40 + ^ x29: .cfa -48 + ^
STACK CFI 57514 .cfa: sp 128 +
STACK CFI 57524 .cfa: sp 0 +
STACK CFI 57528 .cfa: x29 48 +
STACK CFI INIT 5761c a4 .cfa: sp 0 +
STACK CFI 57620 .cfa: sp 48 +
STACK CFI 5762c .cfa: x29 48 + x19: .cfa -8 + ^ x20: .cfa -16 + ^ x21: .cfa -32 + ^ .ra: .cfa -40 + ^ x29: .cfa -48 + ^
STACK CFI 57698 .cfa: sp 48 +
STACK CFI 576a4 .cfa: sp 0 +
STACK CFI 576a8 .cfa: x29 48 +
STACK CFI INIT 576c0 180 .cfa: sp 0 +
STACK CFI 576c4 .cfa: sp 128 +
STACK CFI 576d4 .cfa: x29 48 + x19: .cfa -8 + ^ x20: .cfa -16 + ^ x21: .cfa -24 + ^ x22: .cfa -32 + ^ .ra: .cfa -40 + ^ x29: .cfa -48 + ^
STACK CFI 57738 .cfa: sp 128 +
STACK CFI 57748 .cfa: sp 0 +
STACK CFI 5774c .cfa: x29 48 +
STACK CFI INIT 57840 a4 .cfa: sp 0 +
STACK CFI 57844 .cfa: sp 48 +
STACK CFI 57850 .cfa: x29 48 + x19: .cfa -8 + ^ x20: .cfa -16 + ^ x21: .cfa -32 + ^ .ra: .cfa -40 + ^ x29: .cfa -48 + ^
STACK CFI 578bc .cfa: sp 48 +
STACK CFI 578c8 .cfa: sp 0 +
STACK CFI 578cc .cfa: x29 48 +
STACK CFI INIT 578e4 fc .cfa: sp 0 +
STACK CFI 578e8 .cfa: sp 64 +
STACK CFI 578f8 .cfa: x29 48 + x19: .cfa -8 + ^ x20: .cfa -16 + ^ x21: .cfa -24 + ^ x22: .cfa -32 + ^ .ra: .cfa -40 + ^ x29: .cfa -48 + ^
STACK CFI 579a8 .cfa: sp 64 +
STACK CFI 579b8 .cfa: sp 0 +
STACK CFI 579bc .cfa: x29 48 +
STACK CFI INIT 579e0 1a4 .cfa: sp 0 +
STACK CFI 579e4 .cfa: sp 160 +
STACK CFI 579f8 .cfa: x29 64 + x19: .cfa -8 + ^ x20: .cfa -16 + ^ x21: .cfa -24 + ^ x22: .cfa -32 + ^ x23: .cfa -48 + ^ .ra: .cfa -56 + ^ x29: .cfa -64 + ^
STACK CFI 57a70 .cfa: sp 160 +
STACK CFI 57a84 .cfa: sp 0 +
STACK CFI 57a88 .cfa: x29 64 +
STACK CFI INIT 57b84 1a4 .cfa: sp 0 +
STACK CFI 57b88 .cfa: sp 160 +
STACK CFI 57b9c .cfa: x29 64 + x19: .cfa -8 + ^ x20: .cfa -16 + ^ x21: .cfa -24 + ^ x22: .cfa -32 + ^ x23: .cfa -48 + ^ .ra: .cfa -56 + ^ x29: .cfa -64 + ^
STACK CFI 57c14 .cfa: sp 160 +
STACK CFI 57c28 .cfa: sp 0 +
STACK CFI 57c2c .cfa: x29 64 +
STACK CFI INIT 57d28 1a4 .cfa: sp 0 +
STACK CFI 57d2c .cfa: sp 160 +
STACK CFI 57d40 .cfa: x29 64 + x19: .cfa -8 + ^ x20: .cfa -16 + ^ x21: .cfa -24 + ^ x22: .cfa -32 + ^ x23: .cfa -48 + ^ .ra: .cfa -56 + ^ x29: .cfa -64 + ^
STACK CFI 57db8 .cfa: sp 160 +
STACK CFI 57dcc .cfa: sp 0 +
STACK CFI 57dd0 .cfa: x29 64 +
STACK CFI INIT 57ecc 1ac .cfa: sp 0 +
STACK CFI 57ed0 .cfa: sp 160 +
STACK CFI 57ee4 .cfa: x29 64 + x19: .cfa -8 + ^ x20: .cfa -16 + ^ x21: .cfa -24 + ^ x22: .cfa -32 + ^ x23: .cfa -40 + ^ x24: .cfa -48 + ^ .ra: .cfa -56 + ^ x29: .cfa -64 + ^
STACK CFI 57f64 .cfa: sp 160 +
STACK CFI 57f78 .cfa: sp 0 +
STACK CFI 57f7c .cfa: x29 64 +
STACK CFI INIT 58078 2a8 .cfa: sp 0 +
STACK CFI 5807c .cfa: sp 112 +
STACK CFI 58094 .cfa: x29 80 + x19: .cfa -8 + ^ x20: .cfa -16 + ^ x21: .cfa -24 + ^ x22: .cfa -32 + ^ x23: .cfa -40 + ^ x24: .cfa -48 + ^ x25: .cfa -64 + ^ .ra: .cfa -72 + ^ x29: .cfa -80 + ^
STACK CFI 582bc .cfa: sp 112 +
STACK CFI 582d4 .cfa: sp 0 +
STACK CFI 582d8 .cfa: x29 80 +
STACK CFI INIT 58320 2a8 .cfa: sp 0 +
STACK CFI 58324 .cfa: sp 144 +
STACK CFI 58338 .cfa: x29 64 + x19: .cfa -8 + ^ x20: .cfa -16 + ^ x21: .cfa -24 + ^ x22: .cfa -32 + ^ x23: .cfa -48 + ^ .ra: .cfa -56 + ^ x29: .cfa -64 + ^
STACK CFI 5846c .cfa: sp 144 +
STACK CFI 58480 .cfa: sp 0 +
STACK CFI 58484 .cfa: x29 64 +
STACK CFI INIT 585c8 4c4 .cfa: sp 0 +
STACK CFI 585cc .cfa: sp 144 +
STACK CFI 585e0 .cfa: x29 64 + x19: .cfa -8 + ^ x20: .cfa -16 + ^ x21: .cfa -24 + ^ x22: .cfa -32 + ^ x23: .cfa -48 + ^ .ra: .cfa -56 + ^ x29: .cfa -64 + ^
STACK CFI 588dc .cfa: sp 144 +
STACK CFI 588f0 .cfa: sp 0 +
STACK CFI 588f4 .cfa: x29 64 +
STACK CFI INIT 58a8c 154 .cfa: sp 0 +
STACK CFI 58a90 .cfa: sp 384 +
STACK CFI 58aa4 .cfa: x29 64 + x19: .cfa -8 + ^ x20: .cfa -16 + ^ x21: .cfa -24 + ^ x22: .cfa -32 + ^ x23: .cfa -40 + ^ x28: .cfa -48 + ^ .ra: .cfa -56 + ^ x29: .cfa -64 + ^
STACK CFI 58b88 .cfa: sp 384 +
STACK CFI 58b9c .cfa: sp 0 +
STACK CFI 58ba0 .cfa: x29 64 +
STACK CFI INIT 58bf8 43c .cfa: sp 0 +
STACK CFI 58bfc .cfa: sp 64 +
STACK CFI 58c0c .cfa: x29 64 + x19: .cfa -8 + ^ x20: .cfa -16 + ^ x21: .cfa -24 + ^ x22: .cfa -32 + ^ x23: .cfa -40 + ^ x24: .cfa -48 + ^ .ra: .cfa -56 + ^ x29: .cfa -64 + ^
STACK CFI 58fc4 .cfa: sp 64 +
STACK CFI 58fd4 .cfa: sp 0 +
STACK CFI 58fd8 .cfa: x29 64 +
STACK CFI INIT 59364 294 .cfa: sp 0 +
STACK CFI 59368 .cfa: sp 240 +
STACK CFI 59380 .cfa: x29 80 + x19: .cfa -8 + ^ x20: .cfa -16 + ^ x21: .cfa -24 + ^ x22: .cfa -32 + ^ x23: .cfa -40 + ^ x24: .cfa -48 + ^ x25: .cfa -64 + ^ .ra: .cfa -72 + ^ x29: .cfa -80 + ^
STACK CFI 59520 .cfa: sp 240 +
STACK CFI 59538 .cfa: sp 0 +
STACK CFI 5953c .cfa: x29 80 +
STACK CFI INIT 59668 50 .cfa: sp 0 +
STACK CFI 5966c .cfa: sp 32 +
STACK CFI 59674 .cfa: x29 32 + x19: .cfa -8 + ^ x20: .cfa -16 + ^ .ra: .cfa -24 + ^ x29: .cfa -32 + ^
STACK CFI INIT 596e4 750 .cfa: sp 0 +
STACK CFI 596e8 .cfa: sp 320 +
STACK CFI 59704 .cfa: x29 96 + x19: .cfa -8 + ^ x20: .cfa -16 + ^ x21: .cfa -24 + ^ x22: .cfa -32 + ^ x23: .cfa -40 + ^ x24: .cfa -48 + ^ x25: .cfa -56 + ^ x26: .cfa -64 + ^ x27: .cfa -72 + ^ x28: .cfa -80 + ^ .ra: .cfa -88 + ^ x29: .cfa -96 + ^
STACK CFI 59cf0 .cfa: sp 320 +
STACK CFI 59d0c .cfa: sp 0 +
STACK CFI 59d10 .cfa: x29 96 +
STACK CFI INIT 59e98 12c .cfa: sp 0 +
STACK CFI 59e9c .cfa: sp 80 +
STACK CFI 59eb0 .cfa: x29 80 + x19: .cfa -8 + ^ x20: .cfa -16 + ^ x21: .cfa -24 + ^ x22: .cfa -32 + ^ x23: .cfa -40 + ^ x24: .cfa -48 + ^ x28: .cfa -64 + ^ .ra: .cfa -72 + ^ x29: .cfa -80 + ^
STACK CFI 59f78 .cfa: sp 80 +
STACK CFI 59f8c .cfa: sp 0 +
STACK CFI 59f90 .cfa: x29 80 +
STACK CFI INIT 5d7e0 c3c .cfa: sp 0 +
STACK CFI 5d7e4 .cfa: sp 96 +
STACK CFI 5d7fc .cfa: x29 96 + x19: .cfa -8 + ^ x20: .cfa -16 + ^ x21: .cfa -24 + ^ x22: .cfa -32 + ^ x23: .cfa -40 + ^ x24: .cfa -48 + ^ x25: .cfa -56 + ^ x26: .cfa -64 + ^ x27: .cfa -72 + ^ x28: .cfa -80 + ^ .ra: .cfa -88 + ^ x29: .cfa -96 + ^
STACK CFI 5e2e0 .cfa: sp 96 +
STACK CFI 5e2f8 .cfa: sp 0 +
STACK CFI 5e2fc .cfa: x29 96 +
STACK CFI INIT 5e570 238 .cfa: sp 0 +
STACK CFI 5e574 .cfa: sp 128 +
STACK CFI 5e584 .cfa: x29 48 + x19: .cfa -8 + ^ x20: .cfa -16 + ^ x21: .cfa -24 + ^ x22: .cfa -32 + ^ .ra: .cfa -40 + ^ x29: .cfa -48 + ^
STACK CFI 5e70c .cfa: sp 128 +
STACK CFI 5e71c .cfa: sp 0 +
STACK CFI 5e720 .cfa: x29 48 +
STACK CFI INIT 5eb0c 3a4 .cfa: sp 0 +
STACK CFI 5eb10 .cfa: sp 96 +
STACK CFI 5eb28 .cfa: x29 96 + x19: .cfa -8 + ^ x20: .cfa -16 + ^ x21: .cfa -24 + ^ x22: .cfa -32 + ^ x23: .cfa -40 + ^ x24: .cfa -48 + ^ x25: .cfa -56 + ^ x26: .cfa -64 + ^ x27: .cfa -72 + ^ x28: .cfa -80 + ^ .ra: .cfa -88 + ^ x29: .cfa -96 + ^
STACK CFI 5ee50 .cfa: sp 96 +
STACK CFI 5ee68 .cfa: sp 0 +
STACK CFI 5ee6c .cfa: x29 96 +
STACK CFI INIT 5ef50 c78 .cfa: sp 0 +
STACK CFI 5ef54 .cfa: sp 96 +
STACK CFI 5ef6c .cfa: x29 96 + x19: .cfa -8 + ^ x20: .cfa -16 + ^ x21: .cfa -24 + ^ x22: .cfa -32 + ^ x23: .cfa -40 + ^ x24: .cfa -48 + ^ x25: .cfa -56 + ^ x26: .cfa -64 + ^ x27: .cfa -72 + ^ x28: .cfa -80 + ^ .ra: .cfa -88 + ^ x29: .cfa -96 + ^
STACK CFI 5fa7c .cfa: sp 96 +
STACK CFI 5fa94 .cfa: sp 0 +
STACK CFI 5fa98 .cfa: x29 96 +
STACK CFI INIT 5feb0 ad0 .cfa: sp 0 +
STACK CFI 5feb4 .cfa: sp 96 +
STACK CFI 5fecc .cfa: x29 96 + x19: .cfa -8 + ^ x20: .cfa -16 + ^ x21: .cfa -24 + ^ x22: .cfa -32 + ^ x23: .cfa -40 + ^ x24: .cfa -48 + ^ x25: .cfa -56 + ^ x26: .cfa -64 + ^ x27: .cfa -72 + ^ x28: .cfa -80 + ^ .ra: .cfa -88 + ^ x29: .cfa -96 + ^
STACK CFI 608f4 .cfa: sp 96 +
STACK CFI 6090c .cfa: sp 0 +
STACK CFI 60910 .cfa: x29 96 +
STACK CFI INIT 60b74 1350 .cfa: sp 0 +
STACK CFI 60b78 .cfa: sp 96 +
STACK CFI 60b90 .cfa: x29 96 + x19: .cfa -8 + ^ x20: .cfa -16 + ^ x21: .cfa -24 + ^ x22: .cfa -32 + ^ x23: .cfa -40 + ^ x24: .cfa -48 + ^ x25: .cfa -56 + ^ x26: .cfa -64 + ^ x27: .cfa -72 + ^ x28: .cfa -80 + ^ .ra: .cfa -88 + ^ x29: .cfa -96 + ^
STACK CFI 61d90 .cfa: sp 96 +
STACK CFI 61da8 .cfa: sp 0 +
STACK CFI 61dac .cfa: x29 96 +
STACK CFI INIT 61fe8 744 .cfa: sp 0 +
STACK CFI 61fec .cfa: sp 368 +
STACK CFI 62008 .cfa: x29 96 + x19: .cfa -8 + ^ x20: .cfa -16 + ^ x21: .cfa -24 + ^ x22: .cfa -32 + ^ x23: .cfa -40 + ^ x24: .cfa -48 + ^ x25: .cfa -56 + ^ x26: .cfa -64 + ^ x27: .cfa -72 + ^ x28: .cfa -80 + ^ .ra: .cfa -88 + ^ x29: .cfa -96 + ^
STACK CFI 620a4 .cfa: sp 368 +
STACK CFI 620c0 .cfa: sp 0 +
STACK CFI 620c4 .cfa: x29 96 +
STACK CFI 62118 .cfa: sp 368 +
STACK CFI 62134 .cfa: sp 0 +
STACK CFI 62138 .cfa: x29 96 +
STACK CFI INIT 62ac0 e8c .cfa: sp 0 +
STACK CFI 62ac4 .cfa: sp 96 +
STACK CFI 62adc .cfa: x29 96 + x19: .cfa -8 + ^ x20: .cfa -16 + ^ x21: .cfa -24 + ^ x22: .cfa -32 + ^ x23: .cfa -40 + ^ x24: .cfa -48 + ^ x25: .cfa -56 + ^ x26: .cfa -64 + ^ x27: .cfa -72 + ^ x28: .cfa -80 + ^ .ra: .cfa -88 + ^ x29: .cfa -96 + ^
STACK CFI 6376c .cfa: sp 96 +
STACK CFI 63784 .cfa: sp 0 +
STACK CFI 63788 .cfa: x29 96 +
STACK CFI INIT 63cc0 14c4 .cfa: sp 0 +
STACK CFI 63cc4 .cfa: sp 112 +
STACK CFI 63ce0 .cfa: x29 96 + x19: .cfa -8 + ^ x20: .cfa -16 + ^ x21: .cfa -24 + ^ x22: .cfa -32 + ^ x23: .cfa -40 + ^ x24: .cfa -48 + ^ x25: .cfa -56 + ^ x26: .cfa -64 + ^ x27: .cfa -72 + ^ x28: .cfa -80 + ^ .ra: .cfa -88 + ^ x29: .cfa -96 + ^ v8: .cfa -112 + ^
STACK CFI 64fbc .cfa: sp 112 +
STACK CFI 64fd8 .cfa: sp 0 +
STACK CFI 64fdc .cfa: x29 96 +
STACK CFI INIT 67498 98c .cfa: sp 0 +
STACK CFI 6749c .cfa: sp 144 +
STACK CFI 674b4 .cfa: x29 80 + x19: .cfa -8 + ^ x20: .cfa -16 + ^ x21: .cfa -24 + ^ x22: .cfa -32 + ^ x23: .cfa -40 + ^ x24: .cfa -48 + ^ x25: .cfa -64 + ^ .ra: .cfa -72 + ^ x29: .cfa -80 + ^
STACK CFI 67da0 .cfa: sp 144 +
STACK CFI 67db8 .cfa: sp 0 +
STACK CFI 67dbc .cfa: x29 80 +
STACK CFI INIT 67e24 570 .cfa: sp 0 +
STACK CFI 67e28 .cfa: sp 96 +
STACK CFI 67e40 .cfa: x29 96 + x19: .cfa -8 + ^ x20: .cfa -16 + ^ x21: .cfa -24 + ^ x22: .cfa -32 + ^ x23: .cfa -40 + ^ x24: .cfa -48 + ^ x25: .cfa -56 + ^ x26: .cfa -64 + ^ x27: .cfa -72 + ^ x28: .cfa -80 + ^ .ra: .cfa -88 + ^ x29: .cfa -96 + ^
STACK CFI 682f8 .cfa: sp 96 +
STACK CFI 68310 .cfa: sp 0 +
STACK CFI 68314 .cfa: x29 96 +
STACK CFI INIT 68394 664 .cfa: sp 0 +
STACK CFI 68398 .cfa: sp 96 +
STACK CFI 683b0 .cfa: x29 96 + x19: .cfa -8 + ^ x20: .cfa -16 + ^ x21: .cfa -24 + ^ x22: .cfa -32 + ^ x23: .cfa -40 + ^ x24: .cfa -48 + ^ x25: .cfa -56 + ^ x26: .cfa -64 + ^ x27: .cfa -72 + ^ x28: .cfa -80 + ^ .ra: .cfa -88 + ^ x29: .cfa -96 + ^
STACK CFI 6895c .cfa: sp 96 +
STACK CFI 68974 .cfa: sp 0 +
STACK CFI 68978 .cfa: x29 96 +
