MODULE Linux arm64 CC1200C977630D74E769B692226D09CA0 elnexreal.menuloop_randomizer.android64.so
INFO CODE_ID C90012CC6377740DE769B692226D09CA7085AF55
INFO GENERATOR mozilla/dump_syms 2.3.4
PUBLIC 2e120 0 __on_dlclose
PUBLIC 2e130 0 __emutls_unregister_key
PUBLIC 2e138 0 __on_dlclose_late
PUBLIC 2e140 0 __atexit_handler_wrapper
PUBLIC 2e154 0 atexit
PUBLIC 2e170 0 pthread_atfork
PUBLIC 2e180 0 unwind_phase2
PUBLIC 2e2b4 0 _Unwind_Resume
PUBLIC 2e338 0 unwind_phase2_forced
PUBLIC m 2e42c 0 __unw_init_local
PUBLIC m 2e4d4 0 __unw_get_reg
PUBLIC 2e550 0 __unw_step_stage2
PUBLIC m 2e564 0 __unw_get_proc_info
PUBLIC m 2e5a4 0 __unw_resume
PUBLIC 2e5cc 0 libunwind::CFI_Parser<libunwind::LocalAddressSpace>::decodeFDE(libunwind::LocalAddressSpace&, unsigned long, libunwind::CFI_Parser<libunwind::LocalAddressSpace>::FDE_Info*, libunwind::CFI_Parser<libunwind::LocalAddressSpace>::CIE_Info*, bool)
PUBLIC 2e75c 0 libunwind::CFI_Parser<libunwind::LocalAddressSpace>::parseCIE(libunwind::LocalAddressSpace&, unsigned long, libunwind::CFI_Parser<libunwind::LocalAddressSpace>::CIE_Info*)
PUBLIC 2ea24 0 libunwind::AbstractUnwindCursor::~AbstractUnwindCursor()
PUBLIC 2ea2c 0 libunwind::UnwindCursor<libunwind::LocalAddressSpace, libunwind::Registers_arm64>::~UnwindCursor()
PUBLIC 2ea34 0 libunwind::UnwindCursor<libunwind::LocalAddressSpace, libunwind::Registers_arm64>::validReg(int)
PUBLIC 2ea78 0 libunwind::UnwindCursor<libunwind::LocalAddressSpace, libunwind::Registers_arm64>::getReg(int)
PUBLIC 2eb60 0 libunwind::UnwindCursor<libunwind::LocalAddressSpace, libunwind::Registers_arm64>::setReg(int, unsigned long)
PUBLIC 2ec48 0 libunwind::UnwindCursor<libunwind::LocalAddressSpace, libunwind::Registers_arm64>::validFloatReg(int)
PUBLIC 2ec5c 0 libunwind::UnwindCursor<libunwind::LocalAddressSpace, libunwind::Registers_arm64>::getFloatReg(int)
PUBLIC 2ec6c 0 libunwind::UnwindCursor<libunwind::LocalAddressSpace, libunwind::Registers_arm64>::setFloatReg(int, double)
PUBLIC 2ec7c 0 libunwind::UnwindCursor<libunwind::LocalAddressSpace, libunwind::Registers_arm64>::step(bool)
PUBLIC 2ed6c 0 libunwind::UnwindCursor<libunwind::LocalAddressSpace, libunwind::Registers_arm64>::getInfo(unw_proc_info_t*)
PUBLIC 2edb0 0 libunwind::UnwindCursor<libunwind::LocalAddressSpace, libunwind::Registers_arm64>::jumpto()
PUBLIC 2edbc 0 libunwind::UnwindCursor<libunwind::LocalAddressSpace, libunwind::Registers_arm64>::isSignalFrame()
PUBLIC 2edc8 0 libunwind::UnwindCursor<libunwind::LocalAddressSpace, libunwind::Registers_arm64>::getFunctionName(char*, unsigned long, unsigned long*)
PUBLIC 2edf4 0 libunwind::UnwindCursor<libunwind::LocalAddressSpace, libunwind::Registers_arm64>::setInfoBasedOnIPRegister(bool)
PUBLIC 2f074 0 libunwind::UnwindCursor<libunwind::LocalAddressSpace, libunwind::Registers_arm64>::getRegisterName(int)
PUBLIC 2f080 0 libunwind::UnwindCursor<libunwind::LocalAddressSpace, libunwind::Registers_arm64>::stepThroughSigReturn(libunwind::Registers_arm64&)
PUBLIC 2f1a0 0 libunwind::DwarfInstructions<libunwind::LocalAddressSpace, libunwind::Registers_arm64>::stepWithDwarf(libunwind::LocalAddressSpace&, unsigned long, unsigned long, libunwind::Registers_arm64&, bool&, bool)
PUBLIC 2f628 0 libunwind::CFI_Parser<libunwind::LocalAddressSpace>::parseFDEInstructions(libunwind::LocalAddressSpace&, libunwind::CFI_Parser<libunwind::LocalAddressSpace>::FDE_Info const&, libunwind::CFI_Parser<libunwind::LocalAddressSpace>::CIE_Info const&, unsigned long, int, libunwind::CFI_Parser<libunwind::LocalAddressSpace>::PrologInfo*)
PUBLIC 30270 0 libunwind::DwarfInstructions<libunwind::LocalAddressSpace, libunwind::Registers_arm64>::getCFA(libunwind::LocalAddressSpace&, libunwind::CFI_Parser<libunwind::LocalAddressSpace>::PrologInfo const&, libunwind::Registers_arm64 const&)
PUBLIC 303a4 0 libunwind::DwarfInstructions<libunwind::LocalAddressSpace, libunwind::Registers_arm64>::getSavedRegister(libunwind::LocalAddressSpace&, libunwind::Registers_arm64 const&, unsigned long, libunwind::CFI_Parser<libunwind::LocalAddressSpace>::RegisterLocation const&)
PUBLIC 305b4 0 libunwind::LocalAddressSpace::getEncodedP(unsigned long&, unsigned long, unsigned char, unsigned long)
PUBLIC 30940 0 libunwind::LocalAddressSpace::getULEB128(unsigned long&, unsigned long)
PUBLIC 30b08 0 libunwind::DwarfInstructions<libunwind::LocalAddressSpace, libunwind::Registers_arm64>::evaluateExpression(unsigned long, libunwind::LocalAddressSpace&, libunwind::Registers_arm64 const&, unsigned long)
PUBLIC 314c4 0 libunwind::UnwindCursor<libunwind::LocalAddressSpace, libunwind::Registers_arm64>::getInfoFromDwarfSection(unsigned long, libunwind::UnwindInfoSections const&, unsigned int)
PUBLIC 31798 0 libunwind::findUnwindSectionsByPhdr(dl_phdr_info*, unsigned long, void*)
PUBLIC 318cc 0 libunwind::EHHeaderParser<libunwind::LocalAddressSpace>::decodeEHHdr(libunwind::LocalAddressSpace&, unsigned long, unsigned long, libunwind::EHHeaderParser<libunwind::LocalAddressSpace>::EHHeaderInfo&)
PUBLIC 319ec 0 libunwind::CFI_Parser<libunwind::LocalAddressSpace>::findFDE(libunwind::LocalAddressSpace&, unsigned long, unsigned long, unsigned long, unsigned long, libunwind::CFI_Parser<libunwind::LocalAddressSpace>::FDE_Info*, libunwind::CFI_Parser<libunwind::LocalAddressSpace>::CIE_Info*)
PUBLIC 31bb4 0 libunwind::EHHeaderParser<libunwind::LocalAddressSpace>::findFDE(libunwind::LocalAddressSpace&, unsigned long, unsigned long, unsigned int, libunwind::CFI_Parser<libunwind::LocalAddressSpace>::FDE_Info*, libunwind::CFI_Parser<libunwind::LocalAddressSpace>::CIE_Info*)
PUBLIC 31d1c 0 libunwind::EHHeaderParser<libunwind::LocalAddressSpace>::getTableEntrySize(unsigned char)
PUBLIC 31e18 0 libunwind::Registers_arm64::getRegisterName(int)
PUBLIC 31e48 0 __libunwind_Registers_arm64_jumpto
PUBLIC m 31ed8 0 __unw_getcontext
PUBLIC 31f80 0 __aarch64_ldadd8_relax
PUBLIC 31fb0 0 init_have_lse_atomics
PUBLIC 32048 0 __init_cpu_features_constructor
PUBLIC 325e4 0 __init_cpu_features
PUBLIC 32670 0 __aarch64_ldadd8_acq_rel
FUNC 326a0 444 0 __cxx_global_var_init
FUNC 32ae4 1c 0 geode::modifier::ModifyBase<geode::modifier::ModifyDerive<MenuLoopCCDHook, cocos2d::CCDirector> >::~ModifyBase()
FUNC 32b00 8a8 0 geode::modifier::ModifyDerive<MenuLoopCCDHook, cocos2d::CCDirector>::apply()
FUNC 333a8 50 0 std::__ndk1::shared_ptr<geode::Hook>::~shared_ptr[abi:ne180000]()
FUNC 333f8 74 0 geode::impl::ResultData<geode::Hook*, std::__ndk1::basic_string<char, std::__ndk1::char_traits<char>, std::__ndk1::allocator<char> > >::~ResultData()
FUNC 3346c 7c 0 std::__ndk1::vector<std::__ndk1::basic_string<char, std::__ndk1::char_traits<char>, std::__ndk1::allocator<char> >, std::__ndk1::allocator<std::__ndk1::basic_string<char, std::__ndk1::char_traits<char>, std::__ndk1::allocator<char> > > >::~vector[abi:ne180000]()
FUNC 334e8 4 0 geode::modifier::ModifyBase<geode::modifier::ModifyDerive<MenuLoopCCDHook, cocos2d::CCDirector> >::apply()
PUBLIC 334ec 0 __clang_call_terminate
FUNC 334fc 154 0 _ZN5geode15UnwrapExceptionC2IRPNS_4HookEQsr4implE18IsStringStreamableIT_EEENS_4impl5OkTagEOS5_
FUNC 33650 34 0 std::__ndk1::__throw_bad_variant_access[abi:ne180000]()
FUNC 33684 124 0 std::__ndk1::basic_stringstream<char, std::__ndk1::char_traits<char>, std::__ndk1::allocator<char> >::basic_stringstream[abi:ne180000]()
FUNC 337a8 80 0 std::__ndk1::basic_stringstream<char, std::__ndk1::char_traits<char>, std::__ndk1::allocator<char> >::~basic_stringstream()
FUNC 33828 24 0 geode::UnwrapException::~UnwrapException()
FUNC 3384c 198 0 std::__ndk1::__put_character_sequence[abi:ne180000]<char, std::__ndk1::char_traits<char> >(std::__ndk1::basic_ostream<char, std::__ndk1::char_traits<char> >, std::__ndk1::basic_ostream const*, unsigned long)
FUNC 339e4 1b4 0 std::__ndk1::__pad_and_output[abi:ne180000]<char, std::__ndk1::char_traits<char> >(std::__ndk1::char_traits<char>, std::__ndk1::ostreambuf_iterator const*, std::__ndk1::ostreambuf_iterator const, std::__ndk1::ostreambuf_iterator const, std::__ndk1::ios_base&, std::__ndk1::ostreambuf_iterator)
FUNC 33b98 14 0 std::__ndk1::basic_string<char, std::__ndk1::char_traits<char>, std::__ndk1::allocator<char> >::__throw_length_error[abi:ne180000]() const
FUNC 33bac 50 0 std::__ndk1::__throw_length_error[abi:ne180000](char const*)
FUNC 33bfc 30 0 std::length_error::length_error[abi:ne180000](char const*)
FUNC 33c2c 34 0 std::__throw_bad_array_new_length([abi:ne180000], void)
FUNC 33c60 15c 0 std::__ndk1::basic_stringbuf<char, std::__ndk1::char_traits<char>, std::__ndk1::allocator<char> >::str[abi:ne180000]() &&
FUNC 33dbc 148 0 std::__ndk1::basic_stringbuf<char, std::__ndk1::char_traits<char>, std::__ndk1::allocator<char> >::__init_buf_ptrs[abi:ne180000]()
FUNC 33f04 21c 0 std::__ndk1::vector<std::__ndk1::basic_string<char, std::__ndk1::char_traits<char>, std::__ndk1::allocator<char> >, std::__ndk1::allocator<std::__ndk1::basic_string<char, std::__ndk1::char_traits<char>, std::__ndk1::allocator<char> > > >::__push_back_slow_path<std::__ndk1::basic_string<char, std::__ndk1::char_traits<char>, std::__ndk1::allocator<char> > const&>(std::__ndk1::basic_string<char, std::__ndk1::char_traits<char>, std::__ndk1::allocator<char> > const&)
FUNC 34120 70 0 std::__ndk1::basic_string<char, std::__ndk1::char_traits<char>, std::__ndk1::allocator<char> >::__init_copy_ctor_external(char const*, unsigned long)
FUNC 34190 68 0 std::__ndk1::__split_buffer<std::__ndk1::basic_string<char, std::__ndk1::char_traits<char>, std::__ndk1::allocator<char> >, std::__ndk1::allocator<std::__ndk1::basic_string<char, std::__ndk1::char_traits<char>, std::__ndk1::allocator<char> > >&>::~__split_buffer()
FUNC 341f8 14 0 std::__ndk1::vector<std::__ndk1::basic_string<char, std::__ndk1::char_traits<char>, std::__ndk1::allocator<char> >, std::__ndk1::allocator<std::__ndk1::basic_string<char, std::__ndk1::char_traits<char>, std::__ndk1::allocator<char> > > >::__throw_length_error[abi:ne180000]() const
FUNC 3420c 4 0 std::__ndk1::__variant_detail::__visitation::__base::__dispatcher<(unsigned long)0>::__dispatch[abi:ne180000]<std::__ndk1::__variant_detail::__dtor<std::__ndk1::__variant_detail::__traits<geode::Hook*, std::__ndk1::basic_string<char, std::__ndk1::char_traits<char>, std::__ndk1::allocator<char> > >, (std::__ndk1::__variant_detail::_Trait)1>::__destroy[abi:ne180000]()::{lambda(auto:1&)#1}, std::__ndk1::__variant_detail::__base<(std::__ndk1::__variant_detail::__traits<geode::Hook*, std::__ndk1::basic_string<char, std::__ndk1::char_traits<char>, std::__ndk1::allocator<char> > >)1, geode::Hook, std::__ndk1::allocator<char> >&>(std::__ndk1::__variant_detail::__dtor<std::__ndk1::__variant_detail::__traits<geode::Hook*, std::__ndk1::basic_string<char, std::__ndk1::char_traits<char>, std::__ndk1::allocator<char> > >, (std::__ndk1::__variant_detail::_Trait)1>, std::__ndk1::__variant_detail::__base<(std::__ndk1::__variant_detail::__traits<geode::Hook*, std::__ndk1::basic_string<char, std::__ndk1::char_traits<char>, std::__ndk1::allocator<char> > >)1, geode::Hook, std::__ndk1::allocator<char> >&)
FUNC 34210 14 0 std::__ndk1::__variant_detail::__visitation::__base::__dispatcher<(unsigned long)1>::__dispatch[abi:ne180000]<std::__ndk1::__variant_detail::__dtor<std::__ndk1::__variant_detail::__traits<geode::Hook*, std::__ndk1::basic_string<char, std::__ndk1::char_traits<char>, std::__ndk1::allocator<char> > >, (std::__ndk1::__variant_detail::_Trait)1>::__destroy[abi:ne180000]()::{lambda(auto:1&)#1}, std::__ndk1::__variant_detail::__base<(std::__ndk1::__variant_detail::__traits<geode::Hook*, std::__ndk1::basic_string<char, std::__ndk1::char_traits<char>, std::__ndk1::allocator<char> > >)1, geode::Hook, std::__ndk1::allocator<char> >&>(std::__ndk1::__variant_detail::__dtor<std::__ndk1::__variant_detail::__traits<geode::Hook*, std::__ndk1::basic_string<char, std::__ndk1::char_traits<char>, std::__ndk1::allocator<char> > >, (std::__ndk1::__variant_detail::_Trait)1>, std::__ndk1::__variant_detail::__base<(std::__ndk1::__variant_detail::__traits<geode::Hook*, std::__ndk1::basic_string<char, std::__ndk1::char_traits<char>, std::__ndk1::allocator<char> > >)1, geode::Hook, std::__ndk1::allocator<char> >&)
FUNC 34224 fc 0 std::__ndk1::__tree<std::__ndk1::__value_type<std::__ndk1::basic_string<char, std::__ndk1::char_traits<char>, std::__ndk1::allocator<char> >, std::__ndk1::shared_ptr<geode::Hook> >, std::__ndk1::__map_value_compare<std::__ndk1::basic_string<char, std::__ndk1::char_traits<char>, std::__ndk1::allocator<char> >, std::__ndk1::__value_type<std::__ndk1::basic_string<char, std::__ndk1::char_traits<char>, std::__ndk1::allocator<char> >, std::__ndk1::shared_ptr<geode::Hook> >, std::__ndk1::less<std::__ndk1::basic_string<char, std::__ndk1::char_traits<char>, std::__ndk1::allocator<char> > >, true>, std::__ndk1::allocator<std::__ndk1::__value_type<std::__ndk1::basic_string<char, std::__ndk1::char_traits<char>, std::__ndk1::allocator<char> >, std::__ndk1::shared_ptr<geode::Hook> > > >::find<std::__ndk1::basic_string<char, std::__ndk1::char_traits<char>, std::__ndk1::allocator<char> > >(std::__ndk1::basic_string<char, std::__ndk1::char_traits<char>, std::__ndk1::allocator<char> > const&)
FUNC 34320 d4 0 std::__ndk1::__tree<std::__ndk1::__value_type<std::__ndk1::basic_string<char, std::__ndk1::char_traits<char>, std::__ndk1::allocator<char> >, std::__ndk1::shared_ptr<geode::Hook> >, std::__ndk1::__map_value_compare<std::__ndk1::basic_string<char, std::__ndk1::char_traits<char>, std::__ndk1::allocator<char> >, std::__ndk1::__value_type<std::__ndk1::basic_string<char, std::__ndk1::char_traits<char>, std::__ndk1::allocator<char> >, std::__ndk1::shared_ptr<geode::Hook> >, std::__ndk1::less<std::__ndk1::basic_string<char, std::__ndk1::char_traits<char>, std::__ndk1::allocator<char> > >, true>, std::__ndk1::allocator<std::__ndk1::__value_type<std::__ndk1::basic_string<char, std::__ndk1::char_traits<char>, std::__ndk1::allocator<char> >, std::__ndk1::shared_ptr<geode::Hook> > > >::erase(std::__ndk1::__tree_const_iterator<std::__ndk1::__value_type<std::__ndk1::basic_string<char, std::__ndk1::char_traits<char>, std::__ndk1::allocator<char> >, std::__ndk1::shared_ptr<geode::Hook> >, std::__ndk1::__tree_node<std::__ndk1::__value_type<std::__ndk1::basic_string<char, std::__ndk1::char_traits<char>, std::__ndk1::allocator<char> >, std::__ndk1::shared_ptr<geode::Hook> >, void*>*, long>)
FUNC 343f4 388 0 std::__ndk1::__tree_remove[abi:ne180000]<std::__ndk1::__tree_node_base<void*>*>(std::__ndk1::__tree_node_base<void*>*, std::__ndk1::__tree_node_base<void*>*)
FUNC 3477c 8c 0 std::__ndk1::__tree<std::__ndk1::__value_type<std::__ndk1::basic_string<char, std::__ndk1::char_traits<char>, std::__ndk1::allocator<char> >, std::__ndk1::shared_ptr<geode::Hook> >, std::__ndk1::__map_value_compare<std::__ndk1::basic_string<char, std::__ndk1::char_traits<char>, std::__ndk1::allocator<char> >, std::__ndk1::__value_type<std::__ndk1::basic_string<char, std::__ndk1::char_traits<char>, std::__ndk1::allocator<char> >, std::__ndk1::shared_ptr<geode::Hook> >, std::__ndk1::less<std::__ndk1::basic_string<char, std::__ndk1::char_traits<char>, std::__ndk1::allocator<char> > >, true>, std::__ndk1::allocator<std::__ndk1::__value_type<std::__ndk1::basic_string<char, std::__ndk1::char_traits<char>, std::__ndk1::allocator<char> >, std::__ndk1::shared_ptr<geode::Hook> > > >::destroy(std::__ndk1::__tree_node<std::__ndk1::__value_type<std::__ndk1::basic_string<char, std::__ndk1::char_traits<char>, std::__ndk1::allocator<char> >, std::__ndk1::shared_ptr<geode::Hook> >, void*>*)
FUNC 34808 184 0 geode::Hook::create<bool (*)(MenuLoopCCDHook*, cocos2d::CCScene*)>(void*, bool (*)(MenuLoopCCDHook*, cocos2d::CCScene*), std::__ndk1::basic_string<char, std::__ndk1::char_traits<char>, std::__ndk1::allocator<char> > const&, tulip::hook::TulipConvention, tulip::hook::HookMetadata const&)
FUNC 3498c 22c 0 geode::modifier::AsStaticFunction_pushScene<MenuLoopCCDHook, bool (MenuLoopCCDHook::*)(cocos2d::CCScene*)>::Impl<bool (MenuLoopCCDHook::*)(cocos2d::CCScene*)>::function(MenuLoopCCDHook*, cocos2d::CCScene*)
FUNC 34bb8 22c 0 geode::modifier::AsStaticFunction_replaceScene<MenuLoopCCDHook, bool (MenuLoopCCDHook::*)(cocos2d::CCScene*)>::Impl<bool (MenuLoopCCDHook::*)(cocos2d::CCScene*)>::function(MenuLoopCCDHook*, cocos2d::CCScene*)
FUNC 34de4 248 0 geode::modifier::AsStaticFunction_willSwitchToScene<MenuLoopCCDHook, void (MenuLoopCCDHook::*)(cocos2d::CCScene*)>::Impl<void (MenuLoopCCDHook::*)(cocos2d::CCScene*)>::function(MenuLoopCCDHook*, cocos2d::CCScene*)
FUNC 3502c 50 0 std::__ndk1::shared_ptr<tulip::hook::CallingConvention>::~shared_ptr[abi:ne180000]()
FUNC 3507c 64 0 tulip::hook::HandlerMetadata::~HandlerMetadata()
FUNC 350e0 e4 0 geode::cast::traverseTypeinfoFor(void*, geode::cast::ClassTypeinfoType const*, char const*)
FUNC 351c4 104 0 std::__ndk1::__tree<std::__ndk1::__value_type<std::__ndk1::basic_string<char, std::__ndk1::char_traits<char>, std::__ndk1::allocator<char> >, std::__ndk1::shared_ptr<geode::Hook> >, std::__ndk1::__map_value_compare<std::__ndk1::basic_string<char, std::__ndk1::char_traits<char>, std::__ndk1::allocator<char> >, std::__ndk1::__value_type<std::__ndk1::basic_string<char, std::__ndk1::char_traits<char>, std::__ndk1::allocator<char> >, std::__ndk1::shared_ptr<geode::Hook> >, std::__ndk1::less<std::__ndk1::basic_string<char, std::__ndk1::char_traits<char>, std::__ndk1::allocator<char> > >, true>, std::__ndk1::allocator<std::__ndk1::__value_type<std::__ndk1::basic_string<char, std::__ndk1::char_traits<char>, std::__ndk1::allocator<char> >, std::__ndk1::shared_ptr<geode::Hook> > > >::__find_equal<std::__ndk1::basic_string<char, std::__ndk1::char_traits<char>, std::__ndk1::allocator<char> > >(std::__ndk1::__tree_end_node<std::__ndk1::__tree_node_base<void*>*>*&, std::__ndk1::basic_string<char, std::__ndk1::char_traits<char>, std::__ndk1::allocator<char> > const&)
FUNC 352c8 19c 0 std::__ndk1::__tree_balance_after_insert[abi:ne180000]<std::__ndk1::__tree_node_base<void*>*>(std::__ndk1::__tree_node_base<void*>*, std::__ndk1::__tree_node_base<void*>*)
FUNC 35464 444 0 __cxx_global_var_init
FUNC 358a8 1c 0 geode::modifier::ModifyBase<geode::modifier::ModifyDerive<MenuLoopCCSchedulerHook, cocos2d::CCScheduler> >::~ModifyBase()
FUNC 358c4 3d4 0 geode::modifier::ModifyDerive<MenuLoopCCSchedulerHook, cocos2d::CCScheduler>::apply()
FUNC 35c98 4 0 geode::modifier::ModifyBase<geode::modifier::ModifyDerive<MenuLoopCCSchedulerHook, cocos2d::CCScheduler> >::apply()
FUNC 35c9c bc 0 geode::modifier::AsStaticFunction_update<MenuLoopCCSchedulerHook, void (MenuLoopCCSchedulerHook::*)(float)>::Impl<void (MenuLoopCCSchedulerHook::*)(float)>::function(MenuLoopCCSchedulerHook*, float)
FUNC 35d58 d4 0 geode::addresser::Addresser::addressOfVirtual<void, cocos2d::CCScheduler, float>(void (cocos2d::CCScheduler::*)(float))
FUNC 35e2c 174 0 SongManager::~SongManager()
FUNC 35fa0 444 0 __cxx_global_var_init
FUNC 363e4 1c 0 geode::modifier::ModifyBase<geode::modifier::ModifyDerive<MenuLoopEPLHook, EditorPauseLayer> >::~ModifyBase()
FUNC 36400 3dc 0 geode::modifier::ModifyDerive<MenuLoopEPLHook, EditorPauseLayer>::apply()
FUNC 367dc 4 0 geode::modifier::ModifyBase<geode::modifier::ModifyDerive<MenuLoopEPLHook, EditorPauseLayer> >::apply()
FUNC 367e0 3b8 0 geode::modifier::AsStaticFunction_onExitEditor<MenuLoopEPLHook, void (MenuLoopEPLHook::*)(cocos2d::CCObject*)>::Impl<void (MenuLoopEPLHook::*)(cocos2d::CCObject*)>::function(MenuLoopEPLHook*, cocos2d::CCObject*)
FUNC 36b98 290 0 geode::modifier::FieldContainer::getField(unsigned long)
FUNC 36e28 114 0 geode::modifier::FieldContainer::setField(unsigned long, unsigned long, std::__ndk1::function<void (void*)>)
FUNC 36f3c 4 0 geode::modifier::FieldIntermediate<MenuLoopEPLHook, EditorPauseLayer>::fieldDestructor(void*)
FUNC 36f40 14 0 std::__ndk1::vector<void*, std::__ndk1::allocator<void*> >::__throw_length_error[abi:ne180000]() const
FUNC 36f54 200 0 std::__ndk1::vector<std::__ndk1::function<void (void*)>, std::__ndk1::allocator<std::__ndk1::function<void (void*)> > >::__push_back_slow_path<std::__ndk1::function<void (void*)> >(std::__ndk1::function<void (void*)>&&)
FUNC 37154 14 0 std::__ndk1::vector<std::__ndk1::function<void (void*)>, std::__ndk1::allocator<std::__ndk1::function<void (void*)> > >::__throw_length_error[abi:ne180000]() const
FUNC 37168 14 0 std::__ndk1::vector<void*, std::__ndk1::allocator<void*> >::__throw_out_of_range[abi:ne180000]() const
FUNC 3717c 50 0 std::__ndk1::__throw_out_of_range[abi:ne180000](char const*)
FUNC 371cc 30 0 std::out_of_range::out_of_range[abi:ne180000](char const*)
FUNC 371fc 14 0 std::__ndk1::vector<std::__ndk1::function<void (void*)>, std::__ndk1::allocator<std::__ndk1::function<void (void*)> > >::__throw_out_of_range[abi:ne180000]() const
FUNC 37210 4 0 std::__ndk1::__function::__base<void (void*)>::~__base()
FUNC 37214 4 0 std::__ndk1::__function::__func<void (*)(void*), std::__ndk1::allocator<void (*)(void*)>, void (void*)>::~__func()
FUNC 37218 38 0 std::__ndk1::__function::__func<void (*)(void*), std::__ndk1::allocator<void (*)(void*)>, void (void*)>::__clone() const
FUNC 37250 18 0 std::__ndk1::__function::__func<void (*)(void*), std::__ndk1::allocator<void (*)(void*)>, void (void*)>::__clone(std::__ndk1::__function::__base<void (void*)>*) const
FUNC 37268 4 0 std::__ndk1::__function::__func<void (*)(void*), std::__ndk1::allocator<void (*)(void*)>, void (void*)>::destroy()
FUNC 3726c 4 0 std::__ndk1::__function::__func<void (*)(void*), std::__ndk1::allocator<void (*)(void*)>, void (void*)>::destroy_deallocate()
FUNC 37270 10 0 std::__ndk1::__function::__func<void (*)(void*), std::__ndk1::allocator<void (*)(void*)>, void (void*)>::operator()(void*&&)
FUNC 37280 1c 0 std::__ndk1::__function::__func<void (*)(void*), std::__ndk1::allocator<void (*)(void*)>, void (void*)>::target(std::type_info const&) const
FUNC 3729c c 0 std::__ndk1::__function::__func<void (*)(void*), std::__ndk1::allocator<void (*)(void*)>, void (void*)>::target_type() const
FUNC 372a8 b8 0 std::__ndk1::basic_regex<char, std::__ndk1::regex_traits<char> >::basic_regex[abi:ne180000](char const*, std::__ndk1::regex_constants::syntax_option_type)
FUNC 37360 50 0 std::__ndk1::basic_regex<char, std::__ndk1::regex_traits<char> >::~basic_regex()
FUNC 373b0 444 0 __cxx_global_var_init.3
FUNC 377f4 1c 0 geode::modifier::ModifyBase<geode::modifier::ModifyDerive<MenuLoopFMODHook, FMODAudioEngine> >::~ModifyBase()
FUNC 37810 50 0 std::__ndk1::shared_ptr<std::__ndk1::__empty_state<char> >::~shared_ptr[abi:ne180000]()
FUNC 37860 434 0 std::__ndk1::basic_regex<char, std::__ndk1::regex_traits<char> >::__parse<char const*>(char const*, char const*)
FUNC 37c94 4c 0 std::__ndk1::__throw_regex_error[abi:ne180000]<(std::__ndk1::regex_constants::error_type)17>()
FUNC 37ce0 270 0 std::__ndk1::basic_regex<char, std::__ndk1::regex_traits<char> >::__parse_ecma_exp<char const*>(char const*, char const*)
FUNC 37f50 180 0 std::__ndk1::basic_regex<char, std::__ndk1::regex_traits<char> >::__parse_basic_reg_exp<char const*>(char const*, char const*)
FUNC 380d0 174 0 std::__ndk1::basic_regex<char, std::__ndk1::regex_traits<char> >::__parse_extended_reg_exp<char const*>(char const*, char const*)
FUNC 38244 1b4 0 std::__ndk1::basic_regex<char, std::__ndk1::regex_traits<char> >::__parse_grep<char const*>(char const*, char const*)
FUNC 383f8 1b4 0 std::__ndk1::basic_regex<char, std::__ndk1::regex_traits<char> >::__parse_egrep<char const*>(char const*, char const*)
FUNC 385ac 4c 0 std::__ndk1::__throw_regex_error[abi:ne180000]<(std::__ndk1::regex_constants::error_type)14>()
FUNC 385f8 4 0 std::__ndk1::__end_state<char>::~__end_state()
FUNC 385fc c 0 std::__ndk1::__end_state<char>::__exec(std::__ndk1::__state<char>&) const
FUNC 38608 4 0 std::__ndk1::__node<char>::__exec_split(bool, std::__ndk1::__state<char>&) const
FUNC 3860c 4 0 std::__ndk1::__node<char>::__exec(std::__ndk1::__state<char>&) const
FUNC 38610 24 0 std::__ndk1::__shared_ptr_pointer<std::__ndk1::__empty_state<char>*, std::__ndk1::shared_ptr<std::__ndk1::__empty_state<char> >::__shared_ptr_default_delete<std::__ndk1::__empty_state<char>, std::__ndk1::__empty_state<char> >, std::__ndk1::allocator<std::__ndk1::__empty_state<char> > >::~__shared_ptr_pointer()
FUNC 38634 18 0 std::__ndk1::__shared_ptr_pointer<std::__ndk1::__empty_state<char>*, std::__ndk1::shared_ptr<std::__ndk1::__empty_state<char> >::__shared_ptr_default_delete<std::__ndk1::__empty_state<char>, std::__ndk1::__empty_state<char> >, std::__ndk1::allocator<std::__ndk1::__empty_state<char> > >::__on_zero_shared()
FUNC 3864c 1c 0 std::__ndk1::__shared_ptr_pointer<std::__ndk1::__empty_state<char>*, std::__ndk1::shared_ptr<std::__ndk1::__empty_state<char> >::__shared_ptr_default_delete<std::__ndk1::__empty_state<char>, std::__ndk1::__empty_state<char> >, std::__ndk1::allocator<std::__ndk1::__empty_state<char> > >::__get_deleter(std::type_info const&) const
FUNC 38668 4 0 std::__ndk1::__shared_ptr_pointer<std::__ndk1::__empty_state<char>*, std::__ndk1::shared_ptr<std::__ndk1::__empty_state<char> >::__shared_ptr_default_delete<std::__ndk1::__empty_state<char>, std::__ndk1::__empty_state<char> >, std::__ndk1::allocator<std::__ndk1::__empty_state<char> > >::__on_zero_shared_weak()
FUNC 3866c 48 0 std::__ndk1::__empty_state<char>::~__empty_state()
FUNC 386b4 14 0 std::__ndk1::__empty_state<char>::__exec(std::__ndk1::__state<char>&) const
FUNC 386c8 48 0 std::__ndk1::__owns_one_state<char>::~__owns_one_state()
FUNC 38710 364 0 std::__ndk1::basic_regex<char, std::__ndk1::regex_traits<char> >::__parse_assertion<char const*>(char const*, char const*)
FUNC 38a74 2b8 0 std::__ndk1::basic_regex<char, std::__ndk1::regex_traits<char> >::__parse_atom<char const*>(char const*, char const*)
FUNC 38d2c 360 0 std::__ndk1::basic_regex<char, std::__ndk1::regex_traits<char> >::__parse_ERE_dupl_symbol<char const*>(char const*, char const*, std::__ndk1::__owns_one_state<char>*, unsigned int, unsigned int)
FUNC 3908c 6c 0 std::__ndk1::basic_regex<char, std::__ndk1::regex_traits<char> >::basic_regex[abi:ne180000]()
FUNC 390f8 b4 0 std::__ndk1::basic_regex<char, std::__ndk1::regex_traits<char> >::__push_lookahead(std::__ndk1::basic_regex<char, std::__ndk1::regex_traits<char> > const&, bool, unsigned int)
FUNC 391ac 4c 0 std::__ndk1::__throw_regex_error[abi:ne180000]<(std::__ndk1::regex_constants::error_type)6>()
FUNC 391f8 48 0 std::__ndk1::__l_anchor_multiline<char>::~__l_anchor_multiline()
FUNC 39240 60 0 std::__ndk1::__l_anchor_multiline<char>::__exec(std::__ndk1::__state<char>&) const
FUNC 392a0 48 0 std::__ndk1::__r_anchor_multiline<char>::~__r_anchor_multiline()
FUNC 392e8 50 0 std::__ndk1::__r_anchor_multiline<char>::__exec(std::__ndk1::__state<char>&) const
FUNC 39338 5c 0 std::__ndk1::__word_boundary<char, std::__ndk1::regex_traits<char> >::~__word_boundary()
FUNC 39394 58 0 std::__ndk1::__word_boundary<char, std::__ndk1::regex_traits<char> >::~__word_boundary()
FUNC 393ec 110 0 std::__ndk1::__word_boundary<char, std::__ndk1::regex_traits<char> >::__exec(std::__ndk1::__state<char>&) const
FUNC 394fc 90 0 std::__ndk1::__lookahead<char, std::__ndk1::regex_traits<char> >::~__lookahead()
FUNC 3958c 8c 0 std::__ndk1::__lookahead<char, std::__ndk1::regex_traits<char> >::~__lookahead()
FUNC 39618 1bc 0 std::__ndk1::__lookahead<char, std::__ndk1::regex_traits<char> >::__exec(std::__ndk1::__state<char>&) const
FUNC 397d4 474 0 std::__ndk1::basic_regex<char, std::__ndk1::regex_traits<char> >::__match_at_start_ecma<std::__ndk1::allocator<std::__ndk1::sub_match<char const*> > >(char const*, char const*, std::__ndk1::match_results<char const*, std::__ndk1::allocator<std::__ndk1::sub_match<char const*> > >&, std::__ndk1::regex_constants::match_flag_type, bool) const
FUNC 39c48 1c8 0 std::__ndk1::vector<std::__ndk1::sub_match<char const*>, std::__ndk1::allocator<std::__ndk1::sub_match<char const*> > >::assign(unsigned long, std::__ndk1::sub_match<char const*> const&)
FUNC 39e10 14 0 std::__ndk1::vector<std::__ndk1::sub_match<char const*>, std::__ndk1::allocator<std::__ndk1::sub_match<char const*> > >::__throw_length_error[abi:ne180000]() const
FUNC 39e24 44 0 std::__ndk1::__state<char>::~__state()
FUNC 39e68 4c 0 std::__ndk1::__throw_regex_error[abi:ne180000]<(std::__ndk1::regex_constants::error_type)12>()
FUNC 39eb4 178 0 std::__ndk1::__state<char>::__state(std::__ndk1::__state<char> const&)
FUNC 3a02c 4c 0 std::__ndk1::__throw_regex_error[abi:ne180000]<(std::__ndk1::regex_constants::error_type)16>()
FUNC 3a078 88 0 std::__ndk1::vector<std::__ndk1::__state<char>, std::__ndk1::allocator<std::__ndk1::__state<char> > >::~vector[abi:ne180000]()
FUNC 3a100 1e0 0 std::__ndk1::vector<std::__ndk1::__state<char>, std::__ndk1::allocator<std::__ndk1::__state<char> > >::__push_back_slow_path<std::__ndk1::__state<char> >(std::__ndk1::__state<char>&&)
FUNC 3a2e0 14 0 std::__ndk1::vector<std::__ndk1::__state<char>, std::__ndk1::allocator<std::__ndk1::__state<char> > >::__throw_length_error[abi:ne180000]() const
FUNC 3a2f4 1a8 0 std::__ndk1::vector<std::__ndk1::sub_match<char const*>, std::__ndk1::allocator<std::__ndk1::sub_match<char const*> > >::__append(unsigned long, std::__ndk1::sub_match<char const*> const&)
FUNC 3a49c 130 0 std::__ndk1::vector<std::__ndk1::pair<unsigned long, char const*>, std::__ndk1::allocator<std::__ndk1::pair<unsigned long, char const*> > >::__append(unsigned long)
FUNC 3a5cc 14 0 std::__ndk1::vector<std::__ndk1::pair<unsigned long, char const*>, std::__ndk1::allocator<std::__ndk1::pair<unsigned long, char const*> > >::__throw_length_error[abi:ne180000]() const
FUNC 3a5e0 154 0 std::__ndk1::basic_regex<char, std::__ndk1::regex_traits<char> >::__parse_bracket_expression<char const*>(char const*, char const*)
FUNC 3a734 4c 0 std::__ndk1::__throw_regex_error[abi:ne180000]<(std::__ndk1::regex_constants::error_type)11>()
FUNC 3a780 68 0 std::__ndk1::basic_regex<char, std::__ndk1::regex_traits<char> >::__parse_pattern_character<char const*>(char const*, char const*)
FUNC 3a7e8 48 0 std::__ndk1::__match_any_but_newline<char>::~__match_any_but_newline()
FUNC 3a830 4c 0 std::__ndk1::__throw_regex_error[abi:ne180000]<(std::__ndk1::regex_constants::error_type)3>()
FUNC 3a87c c8 0 std::__ndk1::basic_regex<char, std::__ndk1::regex_traits<char> >::__parse_decimal_escape<char const*>(char const*, char const*)
FUNC 3a944 204 0 std::__ndk1::basic_regex<char, std::__ndk1::regex_traits<char> >::__parse_character_class_escape<char const*>(char const*, char const*)
FUNC 3ab48 468 0 std::__ndk1::basic_regex<char, std::__ndk1::regex_traits<char> >::__parse_character_escape<char const*>(char const*, char const*, std::__ndk1::basic_string<char, std::__ndk1::char_traits<char>, std::__ndk1::allocator<char> >*)
FUNC 3afb0 140 0 std::__ndk1::basic_regex<char, std::__ndk1::regex_traits<char> >::__push_char(char)
FUNC 3b0f0 4c 0 std::__ndk1::__throw_regex_error[abi:ne180000]<(std::__ndk1::regex_constants::error_type)4>()
FUNC 3b13c c8 0 std::__ndk1::basic_regex<char, std::__ndk1::regex_traits<char> >::__push_back_ref(int)
FUNC 3b204 5c 0 std::__ndk1::__match_char_icase<char, std::__ndk1::regex_traits<char> >::~__match_char_icase()
FUNC 3b260 58 0 std::__ndk1::__match_char_icase<char, std::__ndk1::regex_traits<char> >::~__match_char_icase()
FUNC 3b2b8 78 0 std::__ndk1::__match_char_icase<char, std::__ndk1::regex_traits<char> >::__exec(std::__ndk1::__state<char>&) const
FUNC 3b330 5c 0 std::__ndk1::__match_char_collate<char, std::__ndk1::regex_traits<char> >::~__match_char_collate()
FUNC 3b38c 58 0 std::__ndk1::__match_char_collate<char, std::__ndk1::regex_traits<char> >::~__match_char_collate()
FUNC 3b3e4 48 0 std::__ndk1::__match_char_collate<char, std::__ndk1::regex_traits<char> >::__exec(std::__ndk1::__state<char>&) const
FUNC 3b42c 48 0 std::__ndk1::__match_char<char>::~__match_char()
FUNC 3b474 48 0 std::__ndk1::__match_char<char>::__exec(std::__ndk1::__state<char>&) const
FUNC 3b4bc 5c 0 std::__ndk1::__back_ref_icase<char, std::__ndk1::regex_traits<char> >::~__back_ref_icase()
FUNC 3b518 58 0 std::__ndk1::__back_ref_icase<char, std::__ndk1::regex_traits<char> >::~__back_ref_icase()
FUNC 3b570 e8 0 std::__ndk1::__back_ref_icase<char, std::__ndk1::regex_traits<char> >::__exec(std::__ndk1::__state<char>&) const
FUNC 3b658 5c 0 std::__ndk1::__back_ref_collate<char, std::__ndk1::regex_traits<char> >::~__back_ref_collate()
FUNC 3b6b4 58 0 std::__ndk1::__back_ref_collate<char, std::__ndk1::regex_traits<char> >::~__back_ref_collate()
FUNC 3b70c 90 0 std::__ndk1::__back_ref_collate<char, std::__ndk1::regex_traits<char> >::__exec(std::__ndk1::__state<char>&) const
FUNC 3b79c 48 0 std::__ndk1::__back_ref<char>::~__back_ref()
FUNC 3b7e4 c8 0 std::__ndk1::__back_ref<char>::__exec(std::__ndk1::__state<char>&) const
FUNC 3b8ac 434 0 std::__ndk1::__bracket_expression<char, std::__ndk1::regex_traits<char> >::__add_char[abi:ne180000](char)
FUNC 3bce0 1c0 0 std::__ndk1::__bracket_expression<char, std::__ndk1::regex_traits<char> >::__bracket_expression[abi:ne180000](std::__ndk1::regex_traits<char> const&, std::__ndk1::__node<char>*, bool, bool, bool)
FUNC 3bea0 88 0 std::__ndk1::vector<std::__ndk1::pair<std::__ndk1::basic_string<char, std::__ndk1::char_traits<char>, std::__ndk1::allocator<char> >, std::__ndk1::basic_string<char, std::__ndk1::char_traits<char>, std::__ndk1::allocator<char> > >, std::__ndk1::allocator<std::__ndk1::pair<std::__ndk1::basic_string<char, std::__ndk1::char_traits<char>, std::__ndk1::allocator<char> >, std::__ndk1::basic_string<char, std::__ndk1::char_traits<char>, std::__ndk1::allocator<char> > > > >::~vector[abi:ne180000]()
FUNC 3bf28 140 0 std::__ndk1::__bracket_expression<char, std::__ndk1::regex_traits<char> >::~__bracket_expression()
FUNC 3c068 24 0 std::__ndk1::__bracket_expression<char, std::__ndk1::regex_traits<char> >::~__bracket_expression()
FUNC 3c08c 9b0 0 std::__ndk1::__bracket_expression<char, std::__ndk1::regex_traits<char> >::__exec(std::__ndk1::__state<char>&) const
FUNC 3ca3c 44 0 std::__ndk1::pair<std::__ndk1::basic_string<char, std::__ndk1::char_traits<char>, std::__ndk1::allocator<char> >, std::__ndk1::basic_string<char, std::__ndk1::char_traits<char>, std::__ndk1::allocator<char> > >::~pair()
FUNC 3ca80 29c 0 std::__ndk1::regex_traits<char>::__lookup_collatename<char*>(char*, char*, char) const
FUNC 3cd1c ac 0 std::__ndk1::basic_string<char, std::__ndk1::char_traits<char>, std::__ndk1::allocator<char> >::__assign_no_alias<true>(char const*, unsigned long)
FUNC 3cdc8 100 0 std::__ndk1::basic_string<char, std::__ndk1::char_traits<char>, std::__ndk1::allocator<char> >::__assign_no_alias<false>(char const*, unsigned long)
FUNC 3cec8 1c4 0 std::__ndk1::regex_traits<char>::__transform_primary<char*>(char*, char*, char) const
FUNC 3d08c 14 0 std::__ndk1::vector<char, std::__ndk1::allocator<char> >::__throw_length_error[abi:ne180000]() const
FUNC 3d0a0 4c 0 std::__ndk1::__throw_regex_error[abi:ne180000]<(std::__ndk1::regex_constants::error_type)5>()
FUNC 3d0ec 4e0 0 std::__ndk1::basic_regex<char, std::__ndk1::regex_traits<char> >::__parse_expression_term<char const*>(char const*, char const*, std::__ndk1::__bracket_expression<char, std::__ndk1::regex_traits<char> >*)
FUNC 3d5cc 28c 0 std::__ndk1::basic_regex<char, std::__ndk1::regex_traits<char> >::__parse_equivalence_class<char const*>(char const*, char const*, std::__ndk1::__bracket_expression<char, std::__ndk1::regex_traits<char> >*)
FUNC 3d858 11c 0 std::__ndk1::basic_regex<char, std::__ndk1::regex_traits<char> >::__parse_collating_symbol<char const*>(char const*, char const*, std::__ndk1::basic_string<char, std::__ndk1::char_traits<char>, std::__ndk1::allocator<char> >&)
FUNC 3d974 16c 0 std::__ndk1::basic_regex<char, std::__ndk1::regex_traits<char> >::__parse_class_escape<char const*>(char const*, char const*, std::__ndk1::basic_string<char, std::__ndk1::char_traits<char>, std::__ndk1::allocator<char> >&, std::__ndk1::__bracket_expression<char, std::__ndk1::regex_traits<char> >*)
FUNC 3dae0 348 0 std::__ndk1::basic_regex<char, std::__ndk1::regex_traits<char> >::__parse_awk_escape<char const*>(char const*, char const*, std::__ndk1::basic_string<char, std::__ndk1::char_traits<char>, std::__ndk1::allocator<char> >*)
FUNC 3de28 470 0 std::__ndk1::__bracket_expression<char, std::__ndk1::regex_traits<char> >::__add_range[abi:ne180000](std::__ndk1::basic_string<char, std::__ndk1::char_traits<char>, std::__ndk1::allocator<char> >, std::__ndk1::allocator<char>)
FUNC 3e298 3b8 0 std::__ndk1::__bracket_expression<char, std::__ndk1::regex_traits<char> >::__add_digraph[abi:ne180000](char, char)
FUNC 3e650 4c 0 std::__ndk1::__throw_regex_error[abi:ne180000]<(std::__ndk1::regex_constants::error_type)1>()
FUNC 3e69c 29c 0 std::__ndk1::regex_traits<char>::__lookup_collatename<char const*>(char const*, char const*, char) const
FUNC 3e938 218 0 std::__ndk1::regex_traits<char>::__transform_primary<std::__ndk1::__wrap_iter<char*> >(std::__ndk1::__wrap_iter<char*>, std::__ndk1::__wrap_iter<char*>, char) const
FUNC 3eb50 4c 0 std::__ndk1::__throw_regex_error[abi:ne180000]<(std::__ndk1::regex_constants::error_type)2>()
FUNC 3eb9c 180 0 std::__ndk1::regex_traits<char>::__lookup_classname<char const*>(char const*, char const*, bool, char) const
FUNC 3ed1c 434 0 std::__ndk1::__bracket_expression<char, std::__ndk1::regex_traits<char> >::__add_neg_char[abi:ne180000](char)
FUNC 3f150 1b4 0 std::__ndk1::regex_traits<char>::transform<std::__ndk1::__wrap_iter<char*> >(std::__ndk1::__wrap_iter<char*>, std::__ndk1::__wrap_iter<char*>) const
FUNC 3f304 4c 0 std::__ndk1::__throw_regex_error[abi:ne180000]<(std::__ndk1::regex_constants::error_type)9>()
FUNC 3f350 1a0 0 std::__ndk1::vector<std::__ndk1::pair<std::__ndk1::basic_string<char, std::__ndk1::char_traits<char>, std::__ndk1::allocator<char> >, std::__ndk1::basic_string<char, std::__ndk1::char_traits<char>, std::__ndk1::allocator<char> > >, std::__ndk1::allocator<std::__ndk1::pair<std::__ndk1::basic_string<char, std::__ndk1::char_traits<char>, std::__ndk1::allocator<char> >, std::__ndk1::basic_string<char, std::__ndk1::char_traits<char>, std::__ndk1::allocator<char> > > > >::__push_back_slow_path<std::__ndk1::pair<std::__ndk1::basic_string<char, std::__ndk1::char_traits<char>, std::__ndk1::allocator<char> >, std::__ndk1::basic_string<char, std::__ndk1::char_traits<char>, std::__ndk1::allocator<char> > > >(std::__ndk1::pair<std::__ndk1::basic_string<char, std::__ndk1::char_traits<char>, std::__ndk1::allocator<char> >, std::__ndk1::basic_string<char, std::__ndk1::char_traits<char>, std::__ndk1::allocator<char> > >&&)
FUNC 3f4f0 14 0 std::__ndk1::vector<std::__ndk1::pair<std::__ndk1::basic_string<char, std::__ndk1::char_traits<char>, std::__ndk1::allocator<char> >, std::__ndk1::basic_string<char, std::__ndk1::char_traits<char>, std::__ndk1::allocator<char> > >, std::__ndk1::allocator<std::__ndk1::pair<std::__ndk1::basic_string<char, std::__ndk1::char_traits<char>, std::__ndk1::allocator<char> >, std::__ndk1::basic_string<char, std::__ndk1::char_traits<char>, std::__ndk1::allocator<char> > > > >::__throw_length_error[abi:ne180000]() const
FUNC 3f504 14 0 std::__ndk1::vector<std::__ndk1::pair<char, char>, std::__ndk1::allocator<std::__ndk1::pair<char, char> > >::__throw_length_error[abi:ne180000]() const
FUNC 3f518 48 0 std::__ndk1::__begin_marked_subexpression<char>::~__begin_marked_subexpression()
FUNC 3f560 30 0 std::__ndk1::__begin_marked_subexpression<char>::__exec(std::__ndk1::__state<char>&) const
FUNC 3f590 48 0 std::__ndk1::__end_marked_subexpression<char>::~__end_marked_subexpression()
FUNC 3f5d8 38 0 std::__ndk1::__end_marked_subexpression<char>::__exec(std::__ndk1::__state<char>&) const
FUNC 3f610 140 0 std::__ndk1::basic_regex<char, std::__ndk1::regex_traits<char> >::__push_loop(unsigned long, unsigned long, std::__ndk1::__owns_one_state<char>*, unsigned long, unsigned long, bool)
FUNC 3f750 4c 0 std::__ndk1::__throw_regex_error[abi:ne180000]<(std::__ndk1::regex_constants::error_type)8>()
FUNC 3f79c 4c 0 std::__ndk1::__throw_regex_error[abi:ne180000]<(std::__ndk1::regex_constants::error_type)7>()
FUNC 3f7e8 68 0 std::__ndk1::__loop<char>::~__loop()
FUNC 3f850 1c4 0 std::__ndk1::__loop<char>::__exec(std::__ndk1::__state<char>&) const
FUNC 3fa14 c4 0 std::__ndk1::__loop<char>::__exec_split(bool, std::__ndk1::__state<char>&) const
FUNC 3fad8 68 0 std::__ndk1::__owns_two_states<char>::~__owns_two_states()
FUNC 3fb40 4 0 std::__ndk1::__repeat_one_loop<char>::~__repeat_one_loop()
FUNC 3fb44 14 0 std::__ndk1::__repeat_one_loop<char>::__exec(std::__ndk1::__state<char>&) const
FUNC 3fb58 6c 0 std::__ndk1::__owns_two_states<char>::~__owns_two_states()
FUNC 3fbc4 68 0 std::__ndk1::__alternate<char>::~__alternate()
FUNC 3fc2c c 0 std::__ndk1::__alternate<char>::__exec(std::__ndk1::__state<char>&) const
FUNC 3fc38 24 0 std::__ndk1::__alternate<char>::__exec_split(bool, std::__ndk1::__state<char>&) const
FUNC 3fc5c 4 0 std::__ndk1::__node<char>::~__node()
FUNC 3fc60 4 0 std::__ndk1::__empty_non_own_state<char>::~__empty_non_own_state()
FUNC 3fc64 14 0 std::__ndk1::__empty_non_own_state<char>::__exec(std::__ndk1::__state<char>&) const
FUNC 3fc78 4c 0 std::__ndk1::__throw_regex_error[abi:ne180000]<(std::__ndk1::regex_constants::error_type)15>()
FUNC 3fcc4 1f4 0 std::__ndk1::basic_regex<char, std::__ndk1::regex_traits<char> >::__parse_nondupl_RE<char const*>(char const*, char const*)
FUNC 3feb8 23c 0 std::__ndk1::basic_regex<char, std::__ndk1::regex_traits<char> >::__parse_RE_dupl_symbol<char const*>(char const*, char const*, std::__ndk1::__owns_one_state<char>*, unsigned int, unsigned int)
FUNC 400f4 104 0 std::__ndk1::basic_regex<char, std::__ndk1::regex_traits<char> >::__parse_one_char_or_coll_elem_RE<char const*>(char const*, char const*)
FUNC 401f8 2c 0 std::__ndk1::__owns_one_state<char>::~__owns_one_state()
FUNC 40224 48 0 std::__ndk1::__match_any<char>::~__match_any()
FUNC 4026c 40 0 std::__ndk1::__match_any<char>::__exec(std::__ndk1::__state<char>&) const
FUNC 402ac 60 0 std::__ndk1::basic_regex<char, std::__ndk1::regex_traits<char> >::__test_back_ref(char)
FUNC 4030c 1fc 0 std::__ndk1::basic_regex<char, std::__ndk1::regex_traits<char> >::__parse_ERE_expression<char const*>(char const*, char const*)
FUNC 40508 120 0 std::__ndk1::basic_regex<char, std::__ndk1::regex_traits<char> >::__parse_one_char_or_coll_elem_ERE<char const*>(char const*, char const*)
FUNC 40628 d0 0 std::__ndk1::basic_regex<char, std::__ndk1::regex_traits<char> >::__parse_QUOTED_CHAR_ERE<char const*>(char const*, char const*)
FUNC 406f8 47c 0 geode::modifier::ModifyDerive<MenuLoopFMODHook, FMODAudioEngine>::apply()
FUNC 40b74 4 0 geode::modifier::ModifyBase<geode::modifier::ModifyDerive<MenuLoopFMODHook, FMODAudioEngine> >::apply()
FUNC 40b78 68c 0 geode::modifier::AsStaticFunction_playMusic<MenuLoopFMODHook, void (MenuLoopFMODHook::*)(gd::string, bool, float, int)>::Impl<void (MenuLoopFMODHook::*)(gd::string, bool, float, int)>::function(MenuLoopFMODHook*, gd::string, bool, float, int)
FUNC 41204 14 0 std::__ndk1::vector<tulip::hook::AbstractType, std::__ndk1::allocator<tulip::hook::AbstractType> >::__throw_length_error[abi:ne180000]() const
FUNC 41218 20 0 geode::cocos::CCArrayExt<cocos2d::CCObject*>::~CCArrayExt()
FUNC 41238 84 0 geode::log::info<>(fmt::v11::basic_format_string<char, fmt::v11::type_identity<decltype ((wrapCocosObj<>)((std::declval<>)()))>::type>, &&)
FUNC 412bc d0 0 fmt::v11::detail::value<fmt::v11::context>::format_custom_arg<gd::string, fmt::v11::formatter<gd::string, char, void> >(void*, fmt::v11::basic_format_parse_context<char>&, fmt::v11::context&)
FUNC 4138c 160 0 fmt::v11::formatter<gd::string, char, void>::format<fmt::v11::context>(gd::string const&, fmt::v11::context&) const
FUNC 414ec 4a4 0 fmt::v11::detail::parse_format_specs<char>(char const*, char const*, fmt::v11::detail::dynamic_format_specs<char>&, fmt::v11::basic_format_parse_context<char>&, fmt::v11::detail::type)
FUNC 41990 1a4 0 fmt::v11::detail::parse_dynamic_spec<char>(char const*, char const*, int&, fmt::v11::detail::arg_ref<char>&, fmt::v11::basic_format_parse_context<char>&)
FUNC 41b34 17c 0 fmt::v11::detail::do_parse_arg_id<char, fmt::v11::detail::dynamic_spec_id_handler<char>&>(char const*, char const*, fmt::v11::detail::dynamic_spec_id_handler<char>&)
FUNC 41cb0 114 0 fmt::v11::detail::handle_dynamic_spec<fmt::v11::detail::width_checker, fmt::v11::context>(int&, fmt::v11::detail::arg_ref<fmt::v11::context::char_type>, fmt::v11::context&)
FUNC 41dc4 114 0 fmt::v11::detail::handle_dynamic_spec<fmt::v11::detail::precision_checker, fmt::v11::context>(int&, fmt::v11::detail::arg_ref<fmt::v11::context::char_type>, fmt::v11::context&)
FUNC 41ed8 27c 0 fmt::v11::detail::write<char, fmt::v11::basic_appender<char> >(fmt::v11::basic_appender<char>, fmt::v11::basic_string_view<char>, fmt::v11::format_specs const&)
FUNC 42154 200 0 fmt::v11::detail::write_escaped_string<char, fmt::v11::detail::counting_iterator>(fmt::v11::detail::counting_iterator, fmt::v11::basic_string_view<char>)
FUNC 42354 20c 0 fmt::v11::detail::write_padded<char, (fmt::v11::align::type)1, fmt::v11::basic_appender<char>, fmt::v11::detail::write<char, fmt::v11::basic_appender<char> >(fmt::v11::basic_appender<char>, fmt::v11::basic_string_view<char>, fmt::v11::format_specs const&)::{lambda(fmt::v11::basic_appender<char>)#1}>(fmt::v11::basic_appender<char>, fmt::v11::format_specs const&, unsigned long, unsigned long, fmt::v11::detail::write<char, fmt::v11::basic_appender<char> >(fmt::v11::basic_appender<char>, fmt::v11::basic_string_view<char>, fmt::v11::format_specs const&)::{lambda(fmt::v11::basic_appender<char>&&)#1})
FUNC 42560 3ac 0 fmt::v11::detail::for_each_codepoint<fmt::v11::detail::code_point_index(fmt::v11::basic_string_view<char>, unsigned long)::{lambda(unsigned int, fmt::v11::basic_string_view<char>)#1}>(fmt::v11::basic_string_view<char>, fmt::v11::detail::code_point_index(fmt::v11::basic_string_view<char>, unsigned long)::{lambda(unsigned int, fmt::v11::basic_string_view<char>)#1})
FUNC 4290c 194 0 fmt::v11::detail::write_escaped_cp<fmt::v11::detail::counting_iterator, char>(fmt::v11::detail::counting_iterator, fmt::v11::detail::find_escape_result<char> const&)
FUNC 42aa0 17c 0 fmt::v11::detail::for_each_codepoint<fmt::v11::detail::find_escape(char const*, char const*)::{lambda(unsigned int, fmt::v11::basic_string_view<char>)#1}>(fmt::v11::basic_string_view<char>, fmt::v11::detail::find_escape(char const*, char const*)::{lambda(unsigned int, fmt::v11::basic_string_view<char>)#1})::{lambda(char const*, char const*)#1}::operator()(char const*, char const*) const
FUNC 42c1c 1b8 0 fmt::v11::detail::for_each_codepoint<fmt::v11::detail::compute_width(fmt::v11::basic_string_view<char>)::count_code_points>(fmt::v11::basic_string_view<char>, fmt::v11::detail::compute_width(fmt::v11::basic_string_view<char>)::count_code_points)::{lambda(char const*, char const*)#1}::operator()(char const*, char const*) const
FUNC 42dd4 1d0 0 fmt::v11::detail::fill<char, fmt::v11::basic_appender<char> >(fmt::v11::basic_appender<char>, unsigned long, fmt::v11::detail::fill_t const&)
FUNC 42fa4 380 0 fmt::v11::detail::write_escaped_string<char, fmt::v11::basic_appender<char> >(fmt::v11::basic_appender<char>, fmt::v11::basic_string_view<char>)
FUNC 43324 1e4 0 fmt::v11::detail::write_escaped_cp<fmt::v11::basic_appender<char>, char>(fmt::v11::basic_appender<char>, fmt::v11::detail::find_escape_result<char> const&)
FUNC 43508 178 0 fmt::v11::detail::write_codepoint<(unsigned long)2, char, fmt::v11::basic_appender<char> >(fmt::v11::basic_appender<char>, char, unsigned int)
FUNC 43680 178 0 fmt::v11::detail::write_codepoint<(unsigned long)4, char, fmt::v11::basic_appender<char> >(fmt::v11::basic_appender<char>, char, unsigned int)
FUNC 437f8 178 0 fmt::v11::detail::write_codepoint<(unsigned long)8, char, fmt::v11::basic_appender<char> >(fmt::v11::basic_appender<char>, char, unsigned int)
FUNC 43970 94 0 fmt::v11::detail::get_dynamic_spec<fmt::v11::detail::width_checker, fmt::v11::basic_format_arg<fmt::v11::context> >(fmt::v11::basic_format_arg<fmt::v11::context>)
FUNC 43a04 158 0 fmt::v11::basic_format_args<fmt::v11::context>::get<char>(fmt::v11::basic_string_view<char>) const
FUNC 43b5c 94 0 fmt::v11::detail::get_dynamic_spec<fmt::v11::detail::precision_checker, fmt::v11::basic_format_arg<fmt::v11::context> >(fmt::v11::basic_format_arg<fmt::v11::context>)
FUNC 43bf0 128 0 std::__ndk1::regex_match[abi:ne180000]<std::__ndk1::__wrap_iter<char const*>, std::__ndk1::allocator<std::__ndk1::sub_match<char const*> >, char, std::__ndk1::regex_traits<char> >(std::__ndk1::__wrap_iter<char const*>, std::__ndk1::regex_traits<char>, std::__ndk1::match_results<std::__ndk1::regex_traits<char>, std::__ndk1::allocator<std::__ndk1::sub_match<char const*> > >&, std::__ndk1::basic_regex<char, std::__ndk1::regex_traits<char> > const&, std::__ndk1::regex_constants::match_flag_type)
FUNC 43d18 258 0 std::__ndk1::basic_regex<char, std::__ndk1::regex_traits<char> >::__search<std::__ndk1::allocator<std::__ndk1::sub_match<char const*> > >(char const*, char const*, std::__ndk1::match_results<char const*, std::__ndk1::allocator<std::__ndk1::sub_match<char const*> > >&, std::__ndk1::regex_constants::match_flag_type) const
FUNC 43f70 1bc 0 std::__ndk1::match_results<std::__ndk1::__wrap_iter<char const*>, std::__ndk1::allocator<std::__ndk1::sub_match<std::__ndk1::__wrap_iter<char const*> > > >::__assign[abi:ne180000]<char const*, std::__ndk1::allocator<std::__ndk1::sub_match<char const*> > >(std::__ndk1::__wrap_iter<char const*>, std::__ndk1::__wrap_iter<char const*>, std::__ndk1::match_results<char const*, std::__ndk1::allocator<std::__ndk1::sub_match<char const*> > > const&, bool)
FUNC 4412c 934 0 std::__ndk1::basic_regex<char, std::__ndk1::regex_traits<char> >::__match_at_start_posix_nosubs<std::__ndk1::allocator<std::__ndk1::sub_match<char const*> > >(char const*, char const*, std::__ndk1::match_results<char const*, std::__ndk1::allocator<std::__ndk1::sub_match<char const*> > >&, std::__ndk1::regex_constants::match_flag_type, bool) const
FUNC 44a60 600 0 std::__ndk1::basic_regex<char, std::__ndk1::regex_traits<char> >::__match_at_start_posix_subs<std::__ndk1::allocator<std::__ndk1::sub_match<char const*> > >(char const*, char const*, std::__ndk1::match_results<char const*, std::__ndk1::allocator<std::__ndk1::sub_match<char const*> > >&, std::__ndk1::regex_constants::match_flag_type, bool) const
FUNC 45060 154 0 std::__ndk1::deque<std::__ndk1::__state<char>, std::__ndk1::allocator<std::__ndk1::__state<char> > >::clear()
FUNC 451b4 7c 0 std::__ndk1::deque<std::__ndk1::__state<char>, std::__ndk1::allocator<std::__ndk1::__state<char> > >::~deque[abi:ne180000]()
FUNC 45230 4bc 0 std::__ndk1::deque<std::__ndk1::__state<char>, std::__ndk1::allocator<std::__ndk1::__state<char> > >::__add_back_capacity()
FUNC 456ec 188 0 std::__ndk1::__split_buffer<std::__ndk1::__state<char>*, std::__ndk1::allocator<std::__ndk1::__state<char>*> >::push_back(std::__ndk1::__state<char>*&&)
FUNC 45874 18c 0 std::__ndk1::__split_buffer<std::__ndk1::__state<char>*, std::__ndk1::allocator<std::__ndk1::__state<char>*> >::push_front(std::__ndk1::__state<char>*&&)
FUNC 45a00 18c 0 std::__ndk1::__split_buffer<std::__ndk1::__state<char>*, std::__ndk1::allocator<std::__ndk1::__state<char>*>&>::push_front(std::__ndk1::__state<char>* const&)
FUNC 45b8c 3e4 0 std::__ndk1::deque<std::__ndk1::__state<char>, std::__ndk1::allocator<std::__ndk1::__state<char> > >::__add_front_capacity()
FUNC 45f70 18c 0 std::__ndk1::__split_buffer<std::__ndk1::__state<char>*, std::__ndk1::allocator<std::__ndk1::__state<char>*> >::push_front(std::__ndk1::__state<char>* const&)
FUNC 460fc 200 0 std::__ndk1::vector<std::__ndk1::sub_match<char const*>, std::__ndk1::allocator<std::__ndk1::sub_match<char const*> > >::__assign_with_size[abi:ne180000]<std::__ndk1::sub_match<char const*>*, std::__ndk1::vector<std::__ndk1::sub_match<char const*>, std::__ndk1::allocator<std::__ndk1::sub_match<char const*> > >::__assign_with_size[abi:ne180000]>(std::__ndk1::sub_match<char const*>*, std::__ndk1::vector<std::__ndk1::sub_match<char const*>, std::__ndk1::allocator<std::__ndk1::sub_match<char const*> > >::__assign_with_size[abi:ne180000], long)
FUNC 462fc 2dc 0 std::__ndk1::vector<std::__ndk1::pair<unsigned long, char const*>, std::__ndk1::allocator<std::__ndk1::pair<unsigned long, char const*> > >::__assign_with_size[abi:ne180000]<std::__ndk1::pair<unsigned long, char const*>*, std::__ndk1::vector<std::__ndk1::pair<unsigned long, char const*>, std::__ndk1::allocator<std::__ndk1::pair<unsigned long, char const*> > >::__assign_with_size[abi:ne180000]>(std::__ndk1::pair<unsigned long, char const*>*, std::__ndk1::vector<std::__ndk1::pair<unsigned long, char const*>, std::__ndk1::allocator<std::__ndk1::pair<unsigned long, char const*> > >::__assign_with_size[abi:ne180000], long)
FUNC 465d8 198 0 std::__ndk1::vector<std::__ndk1::sub_match<std::__ndk1::__wrap_iter<char const*> >, std::__ndk1::allocator<std::__ndk1::sub_match<std::__ndk1::__wrap_iter<char const*> > > >::__append(unsigned long)
FUNC 46770 14 0 std::__ndk1::vector<std::__ndk1::sub_match<std::__ndk1::__wrap_iter<char const*> >, std::__ndk1::allocator<std::__ndk1::sub_match<std::__ndk1::__wrap_iter<char const*> > > >::__throw_length_error[abi:ne180000]() const
FUNC 46784 84 0 _GLOBAL__sub_I_FMODAudioEngine.cpp
FUNC 46808 444 0 __cxx_global_var_init
FUNC 46c4c 1c 0 geode::modifier::ModifyBase<geode::modifier::ModifyDerive<MenuLoopGJBGLHook, GJBaseGameLayer> >::~ModifyBase()
FUNC 46c68 364 0 geode::modifier::ModifyDerive<MenuLoopGJBGLHook, GJBaseGameLayer>::apply()
FUNC 46fcc 4 0 geode::modifier::ModifyBase<geode::modifier::ModifyDerive<MenuLoopGJBGLHook, GJBaseGameLayer> >::apply()
FUNC 46fd0 b8 0 geode::addresser::getVirtual<bool (GJBaseGameLayer::*)()>(bool (GJBaseGameLayer::*)())
FUNC 47088 fc 0 geode::modifier::AsStaticFunction_init<MenuLoopGJBGLHook, bool (MenuLoopGJBGLHook::*)()>::Impl<bool (MenuLoopGJBGLHook::*)()>::function(MenuLoopGJBGLHook*)
FUNC 47184 71c 0 GJBaseGameLayer::GJBaseGameLayer(geode::ZeroConstructorType)
FUNC 478a0 550 0 GJGameState::GJGameState()
FUNC 47df0 78 0 geode::stl::unordered_map<int, int, geode::stl::hash<int>, geode::stl::equal_to<int>, std::__ndk1::allocator<std::__ndk1::pair<int const, int> > >::~unordered_map()
FUNC 47e68 78 0 geode::stl::unordered_set<int, geode::stl::hash<int>, geode::stl::equal_to<int>, std::__ndk1::allocator<int> >::~unordered_set()
FUNC 47ee0 84 0 geode::stl::unordered_map<int, gd::string, geode::stl::hash<int>, geode::stl::equal_to<int>, std::__ndk1::allocator<std::__ndk1::pair<int const, gd::string> > >::~unordered_map()
FUNC 47f64 1c 0 gd::map<std::__ndk1::pair<int, int>, int>::~map()
FUNC 47f80 8c 0 geode::stl::unordered_map<int, gd::vector<LabelGameObject*>, geode::stl::hash<int>, geode::stl::equal_to<int>, std::__ndk1::allocator<std::__ndk1::pair<int const, gd::vector<LabelGameObject*> > > >::~unordered_map()
FUNC 4800c 78 0 geode::stl::unordered_map<int, std::__ndk1::pair<int, int>, geode::stl::hash<int>, geode::stl::equal_to<int>, std::__ndk1::allocator<std::__ndk1::pair<int const, std::__ndk1::pair<int, int> > > >::~unordered_map()
FUNC 48084 8c 0 geode::stl::unordered_map<int, gd::vector<GameObject*>, geode::stl::hash<int>, geode::stl::equal_to<int>, std::__ndk1::allocator<std::__ndk1::pair<int const, gd::vector<GameObject*> > > >::~unordered_map()
FUNC 48110 78 0 geode::stl::unordered_map<int, cocos2d::CCPoint, geode::stl::hash<int>, geode::stl::equal_to<int>, std::__ndk1::allocator<std::__ndk1::pair<int const, cocos2d::CCPoint> > >::~unordered_map()
FUNC 48188 104 0 gd::vector<geode::stl::unordered_map<int, int, geode::stl::hash<int>, geode::stl::equal_to<int>, std::__ndk1::allocator<std::__ndk1::pair<int const, int> > > >::~vector()
FUNC 4828c 440 0 GJGameState::~GJGameState()
FUNC 486cc 78 0 geode::stl::unordered_map<int, SongChannelState, geode::stl::hash<int>, geode::stl::equal_to<int>, std::__ndk1::allocator<std::__ndk1::pair<int const, SongChannelState> > >::~unordered_map()
FUNC 48744 1c 0 gd::map<std::__ndk1::pair<int, int>, SFXTriggerInstance>::~map()
FUNC 48760 90 0 geode::stl::unordered_map<int, std::__ndk1::vector<int, std::__ndk1::allocator<int> >, geode::stl::hash<int>, geode::stl::equal_to<int>, std::__ndk1::allocator<std::__ndk1::pair<int const, std::__ndk1::vector<int, std::__ndk1::allocator<int> > > > >::~unordered_map()
FUNC 487f0 98 0 gd::vector<EnterEffectInstance>::~vector()
FUNC 48888 60 0 geode::stl::unordered_map<int, std::__ndk1::vector<EnterEffectInstance, std::__ndk1::allocator<EnterEffectInstance> >, geode::stl::hash<int>, geode::stl::equal_to<int>, std::__ndk1::allocator<std::__ndk1::pair<int const, std::__ndk1::vector<EnterEffectInstance, std::__ndk1::allocator<EnterEffectInstance> > > > >::~unordered_map()
FUNC 488e8 1c 0 gd::map<std::__ndk1::pair<GJGameEvent, int>, int>::~map()
FUNC 48904 1c 0 gd::map<std::__ndk1::pair<GJGameEvent, int>, gd::vector<EventTriggerInstance> >::~map()
FUNC 48920 78 0 geode::stl::unordered_map<int, EnhancedGameObject*, geode::stl::hash<int>, geode::stl::equal_to<int>, std::__ndk1::allocator<std::__ndk1::pair<int const, EnhancedGameObject*> > >::~unordered_map()
FUNC 48998 78 0 geode::stl::unordered_map<int, GameObjectPhysics, geode::stl::hash<int>, geode::stl::equal_to<int>, std::__ndk1::allocator<std::__ndk1::pair<int const, GameObjectPhysics> > >::~unordered_map()
FUNC 48a10 78 0 geode::stl::unordered_map<int, GJValueTween, geode::stl::hash<int>, geode::stl::equal_to<int>, std::__ndk1::allocator<std::__ndk1::pair<int const, GJValueTween> > >::~unordered_map()
FUNC 48a88 78 0 geode::stl::unordered_map<int, bool, geode::stl::hash<int>, geode::stl::equal_to<int>, std::__ndk1::allocator<std::__ndk1::pair<int const, bool> > >::~unordered_map()
FUNC 48b00 1cc 0 gd::map<std::__ndk1::pair<GJGameEvent, int>, gd::vector<EventTriggerInstance> >::map(std::__ndk1::map<std::__ndk1::pair<GJGameEvent, int>, gd::vector<EventTriggerInstance>, std::__ndk1::less<std::__ndk1::pair<GJGameEvent, int> >, std::__ndk1::allocator<std::__ndk1::pair<std::__ndk1::pair<GJGameEvent, int> const, gd::vector<EventTriggerInstance> > > >)
FUNC 48ccc 250 0 gd::map<std::__ndk1::pair<GJGameEvent, int>, gd::vector<EventTriggerInstance> >::insert_pair(std::__ndk1::pair<std::__ndk1::pair<GJGameEvent, int>, gd::vector<EventTriggerInstance> > const&)
FUNC 48f1c 80 0 std::__ndk1::pair<std::__ndk1::pair<GJGameEvent, int>, gd::vector<EventTriggerInstance> >::~pair()
FUNC 48f9c 80 0 std::__ndk1::pair<std::__ndk1::pair<GJGameEvent, int> const, gd::vector<EventTriggerInstance> >::~pair()
FUNC 4901c 194 0 gd::vector<EventTriggerInstance>::vector(gd::vector<EventTriggerInstance> const&)
FUNC 491b0 250 0 geode::stl::_rb_insert_rebalance(bool, geode::stl::_rb_tree_base*, geode::stl::_rb_tree_base*, geode::stl::_rb_tree_base&)
FUNC 49400 1c8 0 gd::vector<EventTriggerInstance>::operator=(gd::vector<EventTriggerInstance> const&)
FUNC 495c8 80 0 gd::vector<EventTriggerInstance>::~vector()
FUNC 49648 98 0 std::__ndk1::__tree<std::__ndk1::__value_type<std::__ndk1::pair<GJGameEvent, int>, gd::vector<EventTriggerInstance> >, std::__ndk1::__map_value_compare<std::__ndk1::pair<GJGameEvent, int>, std::__ndk1::__value_type<std::__ndk1::pair<GJGameEvent, int>, gd::vector<EventTriggerInstance> >, std::__ndk1::less<std::__ndk1::pair<GJGameEvent, int> >, true>, std::__ndk1::allocator<std::__ndk1::__value_type<std::__ndk1::pair<GJGameEvent, int>, gd::vector<EventTriggerInstance> > > >::destroy(std::__ndk1::__tree_node<std::__ndk1::__value_type<std::__ndk1::pair<GJGameEvent, int>, gd::vector<EventTriggerInstance> >, void*>*)
FUNC 496e0 4c 0 gd::map<std::__ndk1::pair<int, int>, SFXTriggerInstance>::erase(geode::stl::_rb_tree_node<std::__ndk1::pair<std::__ndk1::pair<int, int>, SFXTriggerInstance> >*)
FUNC 4972c 4c 0 gd::map<int, EnterEffectAnimValue>::erase(geode::stl::_rb_tree_node<std::__ndk1::pair<int, EnterEffectAnimValue> >*)
FUNC 49778 88 0 geode::stl::__detail::_Hashtable_alloc<std::__ndk1::allocator<geode::stl::__detail::_Hash_node<std::__ndk1::pair<int const, std::__ndk1::vector<EnterEffectInstance, std::__ndk1::allocator<EnterEffectInstance> > >, false> > >::_M_deallocate_nodes(geode::stl::__detail::_Hash_node<std::__ndk1::pair<int const, std::__ndk1::vector<EnterEffectInstance, std::__ndk1::allocator<EnterEffectInstance> > >, false>*)
FUNC 49800 4c 0 gd::map<std::__ndk1::pair<GJGameEvent, int>, int>::erase(geode::stl::_rb_tree_node<std::__ndk1::pair<std::__ndk1::pair<GJGameEvent, int>, int> >*)
FUNC 4984c a8 0 gd::map<std::__ndk1::pair<GJGameEvent, int>, gd::vector<EventTriggerInstance> >::erase(geode::stl::_rb_tree_node<std::__ndk1::pair<std::__ndk1::pair<GJGameEvent, int>, gd::vector<EventTriggerInstance> > >*)
FUNC 498f4 4c 0 gd::map<std::__ndk1::pair<int, int>, int>::erase(geode::stl::_rb_tree_node<std::__ndk1::pair<std::__ndk1::pair<int, int>, int> >*)
FUNC 49940 444 0 __cxx_global_var_init
FUNC 49d84 1c 0 geode::modifier::ModifyBase<geode::modifier::ModifyDerive<MenuLoopGMHook, GameManager> >::~ModifyBase()
FUNC 49da0 6c8 0 geode::modifier::ModifyDerive<MenuLoopGMHook, GameManager>::apply()
FUNC 4a468 4 0 geode::modifier::ModifyBase<geode::modifier::ModifyDerive<MenuLoopGMHook, GameManager> >::apply()
FUNC 4a46c b8 0 geode::addresser::getVirtual<void (GameManager::*)(DS_Dictionary*)>(void (GameManager::*)(DS_Dictionary*))
FUNC 4a524 198 0 geode::modifier::AsStaticFunction_encodeDataTo<MenuLoopGMHook, void (MenuLoopGMHook::*)(DS_Dictionary*)>::Impl<void (MenuLoopGMHook::*)(DS_Dictionary*)>::function(MenuLoopGMHook*, DS_Dictionary*)
FUNC 4a6bc a0 0 geode::modifier::AsStaticFunction_getMenuMusicFile<MenuLoopGMHook, gd::string (MenuLoopGMHook::*)()>::Impl<gd::string (MenuLoopGMHook::*)()>::function(MenuLoopGMHook*)
FUNC 4a75c 290 0 GameManager::GameManager(geode::ZeroConstructorType)
FUNC 4a9ec 1c 0 gd::map<int, gd::vector<cocos2d::CCObject*> >::~map()
FUNC 4aa08 1c 0 gd::map<int, bool>::~map()
FUNC 4aa24 1c 0 gd::map<int, gd::map<int, int> >::~map()
FUNC 4aa40 1c 0 gd::map<int, int>::~map()
FUNC 4aa5c 190 0 gd::map<int, int>::insert_pair(std::__ndk1::pair<int, int> const&)
FUNC 4abec 44 0 std::__ndk1::__tree<std::__ndk1::__value_type<int, int>, std::__ndk1::__map_value_compare<int, std::__ndk1::__value_type<int, int>, std::__ndk1::less<int>, true>, std::__ndk1::allocator<std::__ndk1::__value_type<int, int> > >::destroy(std::__ndk1::__tree_node<std::__ndk1::__value_type<int, int>, void*>*)
FUNC 4ac30 144 0 gd::map<int, gd::map<int, int> >::map(std::__ndk1::map<int, gd::map<int, int>, std::__ndk1::less<int>, std::__ndk1::allocator<std::__ndk1::pair<int const, gd::map<int, int> > > >)
FUNC 4ad74 1c0 0 gd::map<int, gd::map<int, int> >::insert_pair(std::__ndk1::pair<int, gd::map<int, int> > const&)
FUNC 4af34 20 0 std::__ndk1::pair<int, gd::map<int, int> >::~pair()
FUNC 4af54 20 0 std::__ndk1::pair<int const, gd::map<int, int> >::~pair()
FUNC 4af74 100 0 gd::map<int, int>::map(gd::map<int, int> const&)
FUNC 4b074 164 0 gd::map<int, int>::operator std::__ndk1::map<int, int, std::__ndk1::less<int>, std::__ndk1::allocator<std::__ndk1::pair<int const, int> > >() const
FUNC 4b1d8 58 0 std::__ndk1::__tree<std::__ndk1::__value_type<int, gd::map<int, int> >, std::__ndk1::__map_value_compare<int, std::__ndk1::__value_type<int, gd::map<int, int> >, std::__ndk1::less<int>, true>, std::__ndk1::allocator<std::__ndk1::__value_type<int, gd::map<int, int> > > >::destroy(std::__ndk1::__tree_node<std::__ndk1::__value_type<int, gd::map<int, int> >, void*>*)
FUNC 4b230 1ec 0 gd::map<int, gd::vector<cocos2d::CCObject*> >::map(std::__ndk1::map<int, gd::vector<cocos2d::CCObject*>, std::__ndk1::less<int>, std::__ndk1::allocator<std::__ndk1::pair<int const, gd::vector<cocos2d::CCObject*> > > >)
FUNC 4b41c 10c 0 gd::map<int, gd::vector<cocos2d::CCObject*> >::insert_pair(std::__ndk1::pair<int, gd::vector<cocos2d::CCObject*> > const&)
FUNC 4b528 104 0 gd::map<int, gd::vector<cocos2d::CCObject*> >::insert(geode::stl::_rb_tree_node<std::__ndk1::pair<int, gd::vector<cocos2d::CCObject*> > >*, geode::stl::_rb_tree_node<std::__ndk1::pair<int, gd::vector<cocos2d::CCObject*> > >*, std::__ndk1::pair<int, gd::vector<cocos2d::CCObject*> > const&)
FUNC 4b62c 4c 0 std::__ndk1::__tree<std::__ndk1::__value_type<int, gd::vector<cocos2d::CCObject*> >, std::__ndk1::__map_value_compare<int, std::__ndk1::__value_type<int, gd::vector<cocos2d::CCObject*> >, std::__ndk1::less<int>, true>, std::__ndk1::allocator<std::__ndk1::__value_type<int, gd::vector<cocos2d::CCObject*> > > >::destroy(std::__ndk1::__tree_node<std::__ndk1::__value_type<int, gd::vector<cocos2d::CCObject*> >, void*>*)
FUNC 4b678 5c 0 gd::map<int, gd::vector<cocos2d::CCObject*> >::erase(geode::stl::_rb_tree_node<std::__ndk1::pair<int, gd::vector<cocos2d::CCObject*> > >*)
FUNC 4b6d4 4c 0 gd::map<int, bool>::erase(geode::stl::_rb_tree_node<std::__ndk1::pair<int, bool> >*)
FUNC 4b720 5c 0 gd::map<int, gd::map<int, int> >::erase(geode::stl::_rb_tree_node<std::__ndk1::pair<int, gd::map<int, int> > >*)
FUNC 4b77c 4c 0 gd::map<int, int>::erase(geode::stl::_rb_tree_node<std::__ndk1::pair<int, int> >*)
FUNC 4b7c8 140 0 geode::Mod::setSavedValue<std::__ndk1::basic_string<char, std::__ndk1::char_traits<char>, std::__ndk1::allocator<char> > >(std::__ndk1::basic_string_view<char, std::__ndk1::char_traits<char> >, std::__ndk1::basic_string<char, std::__ndk1::char_traits<char>, std::__ndk1::allocator<char> > const&)
FUNC 4b908 218 0 geode::modifier::FieldIntermediate<MenuLoopGMHook, GameManager>::self()
FUNC 4bb20 4 0 geode::modifier::FieldIntermediate<MenuLoopGMHook, GameManager>::fieldDestructor(void*)
FUNC 4bb24 1dc 0 geode::Mod::getSavedValue<std::__ndk1::basic_string<char, std::__ndk1::char_traits<char>, std::__ndk1::allocator<char> > >(std::__ndk1::basic_string_view<char, std::__ndk1::char_traits<char> >)
FUNC 4bd00 74 0 geode::impl::ResultData<matjson::Value&, std::__ndk1::basic_string<char, std::__ndk1::char_traits<char>, std::__ndk1::allocator<char> > >::~ResultData()
FUNC 4bd74 74 0 geode::impl::ResultData<std::__ndk1::basic_string<char, std::__ndk1::char_traits<char>, std::__ndk1::allocator<char> >, std::__ndk1::basic_string<char, std::__ndk1::char_traits<char>, std::__ndk1::allocator<char> > >::~ResultData()
FUNC 4bde8 4 0 std::__ndk1::__variant_detail::__visitation::__base::__dispatcher<(unsigned long)0>::__dispatch[abi:ne180000]<std::__ndk1::__variant_detail::__dtor<std::__ndk1::__variant_detail::__traits<std::__ndk1::reference_wrapper<matjson::Value>, std::__ndk1::basic_string<char, std::__ndk1::char_traits<char>, std::__ndk1::allocator<char> > >, (std::__ndk1::__variant_detail::_Trait)1>::__destroy[abi:ne180000]()::{lambda(auto:1&)#1}, std::__ndk1::__variant_detail::__base<(std::__ndk1::__variant_detail::__traits<std::__ndk1::reference_wrapper<matjson::Value>, std::__ndk1::basic_string<char, std::__ndk1::char_traits<char>, std::__ndk1::allocator<char> > >)1, matjson::Value, std::__ndk1::allocator<char> >&>(std::__ndk1::__variant_detail::__dtor<std::__ndk1::__variant_detail::__traits<std::__ndk1::reference_wrapper<matjson::Value>, std::__ndk1::basic_string<char, std::__ndk1::char_traits<char>, std::__ndk1::allocator<char> > >, (std::__ndk1::__variant_detail::_Trait)1>, std::__ndk1::__variant_detail::__base<(std::__ndk1::__variant_detail::__traits<std::__ndk1::reference_wrapper<matjson::Value>, std::__ndk1::basic_string<char, std::__ndk1::char_traits<char>, std::__ndk1::allocator<char> > >)1, matjson::Value, std::__ndk1::allocator<char> >&)
FUNC 4bdec 14 0 std::__ndk1::__variant_detail::__visitation::__base::__dispatcher<(unsigned long)1>::__dispatch[abi:ne180000]<std::__ndk1::__variant_detail::__dtor<std::__ndk1::__variant_detail::__traits<std::__ndk1::reference_wrapper<matjson::Value>, std::__ndk1::basic_string<char, std::__ndk1::char_traits<char>, std::__ndk1::allocator<char> > >, (std::__ndk1::__variant_detail::_Trait)1>::__destroy[abi:ne180000]()::{lambda(auto:1&)#1}, std::__ndk1::__variant_detail::__base<(std::__ndk1::__variant_detail::__traits<std::__ndk1::reference_wrapper<matjson::Value>, std::__ndk1::basic_string<char, std::__ndk1::char_traits<char>, std::__ndk1::allocator<char> > >)1, matjson::Value, std::__ndk1::allocator<char> >&>(std::__ndk1::__variant_detail::__dtor<std::__ndk1::__variant_detail::__traits<std::__ndk1::reference_wrapper<matjson::Value>, std::__ndk1::basic_string<char, std::__ndk1::char_traits<char>, std::__ndk1::allocator<char> > >, (std::__ndk1::__variant_detail::_Trait)1>, std::__ndk1::__variant_detail::__base<(std::__ndk1::__variant_detail::__traits<std::__ndk1::reference_wrapper<matjson::Value>, std::__ndk1::basic_string<char, std::__ndk1::char_traits<char>, std::__ndk1::allocator<char> > >)1, matjson::Value, std::__ndk1::allocator<char> >&)
FUNC 4be00 14 0 std::__ndk1::__variant_detail::__visitation::__base::__dispatcher<(unsigned long)0>::__dispatch[abi:ne180000]<std::__ndk1::__variant_detail::__dtor<std::__ndk1::__variant_detail::__traits<std::__ndk1::basic_string<char, std::__ndk1::char_traits<char>, std::__ndk1::allocator<char> >, std::__ndk1::allocator<char> >, (std::__ndk1::__variant_detail::_Trait)1>::__destroy[abi:ne180000]()::{lambda(auto:1&)#1}, std::__ndk1::__variant_detail::__base<(std::__ndk1::__variant_detail::__traits<std::__ndk1::basic_string<char, std::__ndk1::char_traits<char>, std::__ndk1::allocator<char> >, std::__ndk1::allocator<char> >)1, std::__ndk1::allocator<char>, std::__ndk1::allocator<char> >&>(std::__ndk1::__variant_detail::__dtor<std::__ndk1::__variant_detail::__traits<std::__ndk1::basic_string<char, std::__ndk1::char_traits<char>, std::__ndk1::allocator<char> >, std::__ndk1::allocator<char> >, (std::__ndk1::__variant_detail::_Trait)1>, std::__ndk1::__variant_detail::__base<(std::__ndk1::__variant_detail::__traits<std::__ndk1::basic_string<char, std::__ndk1::char_traits<char>, std::__ndk1::allocator<char> >, std::__ndk1::allocator<char> >)1, std::__ndk1::allocator<char>, std::__ndk1::allocator<char> >&)
FUNC 4be14 14 0 std::__ndk1::__variant_detail::__visitation::__base::__dispatcher<(unsigned long)1>::__dispatch[abi:ne180000]<std::__ndk1::__variant_detail::__dtor<std::__ndk1::__variant_detail::__traits<std::__ndk1::basic_string<char, std::__ndk1::char_traits<char>, std::__ndk1::allocator<char> >, std::__ndk1::allocator<char> >, (std::__ndk1::__variant_detail::_Trait)1>::__destroy[abi:ne180000]()::{lambda(auto:1&)#1}, std::__ndk1::__variant_detail::__base<(std::__ndk1::__variant_detail::__traits<std::__ndk1::basic_string<char, std::__ndk1::char_traits<char>, std::__ndk1::allocator<char> >, std::__ndk1::allocator<char> >)1, std::__ndk1::allocator<char>, std::__ndk1::allocator<char> >&>(std::__ndk1::__variant_detail::__dtor<std::__ndk1::__variant_detail::__traits<std::__ndk1::basic_string<char, std::__ndk1::char_traits<char>, std::__ndk1::allocator<char> >, std::__ndk1::allocator<char> >, (std::__ndk1::__variant_detail::_Trait)1>, std::__ndk1::__variant_detail::__base<(std::__ndk1::__variant_detail::__traits<std::__ndk1::basic_string<char, std::__ndk1::char_traits<char>, std::__ndk1::allocator<char> >, std::__ndk1::allocator<char> >)1, std::__ndk1::allocator<char>, std::__ndk1::allocator<char> >&)
FUNC 4be28 444 0 __cxx_global_var_init
FUNC 4c26c 1c 0 geode::modifier::ModifyBase<geode::modifier::ModifyDerive<MenuLayerMLHook, MenuLayer> >::~ModifyBase()
FUNC 4c288 35c 0 geode::modifier::ModifyDerive<MenuLayerMLHook, MenuLayer>::apply()
FUNC 4c5e4 4 0 geode::modifier::ModifyBase<geode::modifier::ModifyDerive<MenuLayerMLHook, MenuLayer> >::apply()
FUNC 4c5e8 a8 0 geode::addresser::getVirtual<bool (MenuLayer::*)()>(bool (MenuLayer::*)())
FUNC 4c690 cac 0 geode::modifier::AsStaticFunction_init<MenuLayerMLHook, bool (MenuLayerMLHook::*)()>::Impl<bool (MenuLayerMLHook::*)()>::function(MenuLayerMLHook*)
FUNC 4d33c 9c 0 MenuLayer::MenuLayer(geode::ZeroConstructorType)
FUNC 4d3d8 134 0 geode::Mod::getSettingValue<bool>(std::__ndk1::basic_string_view<char, std::__ndk1::char_traits<char> >) const
FUNC 4d50c 1ac 0 MenuLayerMLHook::onShuffleBtn(cocos2d::CCObject*)
FUNC 4d6b8 394 0 geode::modifier::FieldIntermediate<MenuLayerMLHook, MenuLayer>::self()
FUNC 4da4c 64 0 geode::modifier::FieldIntermediate<MenuLayerMLHook, MenuLayer>::fieldDestructor(void*)
FUNC 4dab0 c4 0 std::__ndk1::__fs::filesystem::path::operator/=[abi:ne180000](std::__ndk1::__fs::filesystem::path const&)
FUNC 4db74 1c 0 std::__ndk1::basic_string<char, std::__ndk1::char_traits<char>, std::__ndk1::allocator<char> >::append[abi:ne180000](std::__ndk1::basic_string<char, std::__ndk1::char_traits<char>, std::__ndk1::allocator<char> > const&)
FUNC 4db90 2ec 0 _ZNSt6__ndk112basic_stringIcNS_11char_traitsIcEENS_9allocatorIcEEE6appendB8ne180000IPKcTnNS_9enable_ifIXsr31__has_forward_iterator_categoryIT_EE5valueEiE4typeELi0EEERS5_SA_SA_
FUNC 4de7c 110 0 MenuLayerMLHook::onRegenButton(cocos2d::CCObject*)
FUNC 4df8c 104 0 MenuLayerMLHook::onCopyButton(cocos2d::CCObject*)
FUNC 4e090 130 0 geode::Mod::getSettingValue<double>(std::__ndk1::basic_string_view<char, std::__ndk1::char_traits<char> >) const
FUNC 4e1c0 1028 0 MenuLayerMLHook::onBlacklistButton(cocos2d::CCObject*)
FUNC 4f1e8 a0 0 geode::log::info<std::__ndk1::basic_string<char, std::__ndk1::char_traits<char>, std::__ndk1::allocator<char> >&>(fmt::v11::basic_format_string<char, fmt::v11::type_identity<decltype ((wrapCocosObj<std::__ndk1::basic_string<char, std::__ndk1::char_traits<char>, std::__ndk1::allocator<char> >&>)((std::declval<std::__ndk1::basic_string<char, std::__ndk1::char_traits<char>, std::__ndk1::allocator<char> >&>)()))>::type>, std::__ndk1::basic_string<char, std::__ndk1::char_traits<char>, std::__ndk1::allocator<char> >&)
FUNC 4f288 98 0 geode::log::info<int>(fmt::v11::basic_format_string<char, fmt::v11::type_identity<decltype ((wrapCocosObj<int>)((std::declval<int>)()))>::type>, int&&)
FUNC 4f320 50 0 std::__ndk1::basic_ofstream<char, std::__ndk1::char_traits<char> >::~basic_ofstream()
FUNC 4f370 4 0 std::__ndk1::__function::__base<void (FLAlertLayer*, bool)>::~__base()
FUNC 4f374 4 0 std::__ndk1::__function::__func<MenuLayerMLHook::woahThereBuddy(std::__ndk1::basic_string<char, std::__ndk1::char_traits<char>, std::__ndk1::allocator<char> > const&) const::{lambda(FLAlertLayer*, bool)#1}, std::__ndk1::allocator<MenuLayerMLHook::woahThereBuddy(std::__ndk1::basic_string<char, std::__ndk1::char_traits<char>, std::__ndk1::allocator<char> > const&) const::{lambda(FLAlertLayer*, bool)#1}>, void (FLAlertLayer*, bool)>::~__func()
FUNC 4f378 34 0 std::__ndk1::__function::__func<MenuLayerMLHook::woahThereBuddy(std::__ndk1::basic_string<char, std::__ndk1::char_traits<char>, std::__ndk1::allocator<char> > const&) const::{lambda(FLAlertLayer*, bool)#1}, std::__ndk1::allocator<MenuLayerMLHook::woahThereBuddy(std::__ndk1::basic_string<char, std::__ndk1::char_traits<char>, std::__ndk1::allocator<char> > const&) const::{lambda(FLAlertLayer*, bool)#1}>, void (FLAlertLayer*, bool)>::__clone() const
FUNC 4f3ac 14 0 std::__ndk1::__function::__func<MenuLayerMLHook::woahThereBuddy(std::__ndk1::basic_string<char, std::__ndk1::char_traits<char>, std::__ndk1::allocator<char> > const&) const::{lambda(FLAlertLayer*, bool)#1}, std::__ndk1::allocator<MenuLayerMLHook::woahThereBuddy(std::__ndk1::basic_string<char, std::__ndk1::char_traits<char>, std::__ndk1::allocator<char> > const&) const::{lambda(FLAlertLayer*, bool)#1}>, void (FLAlertLayer*, bool)>::__clone(std::__ndk1::__function::__base<void (FLAlertLayer*, bool)>*) const
FUNC 4f3c0 4 0 std::__ndk1::__function::__func<MenuLayerMLHook::woahThereBuddy(std::__ndk1::basic_string<char, std::__ndk1::char_traits<char>, std::__ndk1::allocator<char> > const&) const::{lambda(FLAlertLayer*, bool)#1}, std::__ndk1::allocator<MenuLayerMLHook::woahThereBuddy(std::__ndk1::basic_string<char, std::__ndk1::char_traits<char>, std::__ndk1::allocator<char> > const&) const::{lambda(FLAlertLayer*, bool)#1}>, void (FLAlertLayer*, bool)>::destroy()
FUNC 4f3c4 4 0 std::__ndk1::__function::__func<MenuLayerMLHook::woahThereBuddy(std::__ndk1::basic_string<char, std::__ndk1::char_traits<char>, std::__ndk1::allocator<char> > const&) const::{lambda(FLAlertLayer*, bool)#1}, std::__ndk1::allocator<MenuLayerMLHook::woahThereBuddy(std::__ndk1::basic_string<char, std::__ndk1::char_traits<char>, std::__ndk1::allocator<char> > const&) const::{lambda(FLAlertLayer*, bool)#1}>, void (FLAlertLayer*, bool)>::destroy_deallocate()
FUNC 4f3c8 3c 0 std::__ndk1::__function::__func<MenuLayerMLHook::woahThereBuddy(std::__ndk1::basic_string<char, std::__ndk1::char_traits<char>, std::__ndk1::allocator<char> > const&) const::{lambda(FLAlertLayer*, bool)#1}, std::__ndk1::allocator<MenuLayerMLHook::woahThereBuddy(std::__ndk1::basic_string<char, std::__ndk1::char_traits<char>, std::__ndk1::allocator<char> > const&) const::{lambda(FLAlertLayer*, bool)#1}>, void (FLAlertLayer*, bool)>::operator()(FLAlertLayer*&&, bool&&)
FUNC 4f404 1c 0 std::__ndk1::__function::__func<MenuLayerMLHook::woahThereBuddy(std::__ndk1::basic_string<char, std::__ndk1::char_traits<char>, std::__ndk1::allocator<char> > const&) const::{lambda(FLAlertLayer*, bool)#1}, std::__ndk1::allocator<MenuLayerMLHook::woahThereBuddy(std::__ndk1::basic_string<char, std::__ndk1::char_traits<char>, std::__ndk1::allocator<char> > const&) const::{lambda(FLAlertLayer*, bool)#1}>, void (FLAlertLayer*, bool)>::target(std::type_info const&) const
FUNC 4f420 c 0 std::__ndk1::__function::__func<MenuLayerMLHook::woahThereBuddy(std::__ndk1::basic_string<char, std::__ndk1::char_traits<char>, std::__ndk1::allocator<char> > const&) const::{lambda(FLAlertLayer*, bool)#1}, std::__ndk1::allocator<MenuLayerMLHook::woahThereBuddy(std::__ndk1::basic_string<char, std::__ndk1::char_traits<char>, std::__ndk1::allocator<char> > const&) const::{lambda(FLAlertLayer*, bool)#1}>, void (FLAlertLayer*, bool)>::target_type() const
FUNC 4f42c d24 0 MenuLayerMLHook::onFavoriteButton(cocos2d::CCObject*)
FUNC 50150 7e4 0 MenuLayerMLHook::onHoldSongButton(cocos2d::CCObject*)
FUNC 50934 794 0 MenuLayerMLHook::onPreviousButton(cocos2d::CCObject*)
FUNC 510c8 444 0 __cxx_global_var_init
FUNC 5150c 1c 0 geode::modifier::ModifyBase<geode::modifier::ModifyDerive<MenuLoopPLHook, PlayLayer> >::~ModifyBase()
FUNC 51528 368 0 geode::modifier::ModifyDerive<MenuLoopPLHook, PlayLayer>::apply()
FUNC 51890 4 0 geode::modifier::ModifyBase<geode::modifier::ModifyDerive<MenuLoopPLHook, PlayLayer> >::apply()
FUNC 51894 3a4 0 geode::modifier::AsStaticFunction_onQuit<MenuLoopPLHook, void (MenuLoopPLHook::*)()>::Impl<void (MenuLoopPLHook::*)()>::function(MenuLoopPLHook*)
FUNC 51c38 4 0 geode::modifier::FieldIntermediate<MenuLoopPLHook, PlayLayer>::fieldDestructor(void*)
FUNC 51c3c fc 0 PlaylistModeWarning::create(bool)
FUNC 51d38 120 0 PlaylistModeWarning::init(bool)
FUNC 51e58 8 0 cocos2d::CCCopying::copyWithZone(cocos2d::CCZone*)
FUNC 51e60 24 0 PlaylistModeWarning::~PlaylistModeWarning()
FUNC 51e84 4 0 cocos2d::CCLayerRGBA::setOpacityModifyRGB(bool)
FUNC 51e88 8 0 cocos2d::CCLayerRGBA::isOpacityModifyRGB()
FUNC 51e90 8 0 {virtual override thunk({offset(-320)}, PlaylistModeWarning::~PlaylistModeWarning())}
FUNC 51e98 28 0 {virtual override thunk({offset(-320)}, PlaylistModeWarning::~PlaylistModeWarning())}
FUNC 51ec0 4 0 cocos2d::CCKeyboardDelegate::keyUp(cocos2d::enumKeyCodes)
FUNC 51ec4 4 0 cocos2d::CCMouseDelegate::rightKeyDown()
FUNC 51ec8 4 0 cocos2d::CCMouseDelegate::rightKeyUp()
FUNC 51ecc 4 0 cocos2d::CCMouseDelegate::scrollWheel(float, float)
FUNC 51ed0 4 0 {virtual override thunk({offset(-408)}, cocos2d::CCLayerRGBA::setOpacityModifyRGB(bool))}
FUNC 51ed4 8 0 {virtual override thunk({offset(-408)}, cocos2d::CCLayerRGBA::isOpacityModifyRGB())}
FUNC 51edc 690 0 MyButtonSettingV3::createNode(float)
FUNC 5256c 50 0 std::__ndk1::shared_ptr<MyButtonSettingV3>::~shared_ptr[abi:ne180000]()
FUNC 525bc 50 0 std::__ndk1::shared_ptr<geode::SettingV3>::~shared_ptr[abi:ne180000]()
FUNC 5260c 24 0 MyButtonSettingV3::~MyButtonSettingV3()
FUNC 52630 8 0 MyButtonSettingV3::load(matjson::Value const&)
FUNC 52638 8 0 MyButtonSettingV3::save(matjson::Value&) const
FUNC 52640 8 0 MyButtonSettingV3::isDefaultValue() const
FUNC 52648 4 0 MyButtonSettingV3::reset()
FUNC 5264c 7c 0 MyButtonSettingNodeV3::~MyButtonSettingNodeV3()
FUNC 526c8 84 0 MyButtonSettingNodeV3::~MyButtonSettingNodeV3()
FUNC 5274c 4 0 MyButtonSettingNodeV3::onCommit()
FUNC 52750 4 0 MyButtonSettingNodeV3::onResetToDefault()
FUNC 52754 8 0 MyButtonSettingNodeV3::hasUncommittedChanges() const
FUNC 5275c 8 0 MyButtonSettingNodeV3::hasNonDefaultValue() const
FUNC 52764 a8 0 MyButtonSettingNodeV3::onConfigDirButton(cocos2d::CCObject*)
FUNC 5280c 20 0 geode::cocos::CCArrayExt<cocos2d::CCNode*>::~CCArrayExt()
FUNC 5282c 34 0 std::__ndk1::__throw_bad_optional_access[abi:ne180000]()
FUNC 52860 34 0 std::__ndk1::__throw_bad_weak_ptr[abi:ne180000]()
FUNC 52894 74 0 SongManager::addSong(std::__ndk1::basic_string<char, std::__ndk1::char_traits<char>, std::__ndk1::allocator<char> > const&)
FUNC 52908 d0 0 SongManager::removeSong(std::__ndk1::basic_string<char, std::__ndk1::char_traits<char>, std::__ndk1::allocator<char> > const&)
FUNC 529d8 1b4 0 std::__ndk1::remove[abi:ne180000]<std::__ndk1::__wrap_iter<std::__ndk1::basic_string<char, std::__ndk1::char_traits<char>, std::__ndk1::allocator<char> >*>, std::__ndk1::allocator<char> >(std::__ndk1::__wrap_iter<std::__ndk1::basic_string<char, std::__ndk1::char_traits<char>, std::__ndk1::allocator<char> >*>, std::__ndk1::__wrap_iter<std::__ndk1::basic_string<char, std::__ndk1::char_traits<char>, std::__ndk1::allocator<char> >*>, std::__ndk1::allocator<char> const&)
FUNC 52b8c 5c 0 SongManager::clearSongs()
FUNC 52be8 4e4 0 SongManager::pickRandomSong()
FUNC 530cc 144 0 SongManager::getCurrentSong()
FUNC 53210 84 0 SongManager::getOverrideSong()
FUNC 53294 1a0 0 SongManager::setCurrentSong(std::__ndk1::basic_string<char, std::__ndk1::char_traits<char>, std::__ndk1::allocator<char> > const&)
FUNC 53434 11c 0 SongManager::setCurrentSongToSavedSong()
FUNC 53550 e0 0 SongManager::setPlaylistMode()
FUNC 53630 1a0 0 SongManager::update(float) const
FUNC 537d0 e4 0 SongManager::setHeldSong(std::__ndk1::basic_string_view<char, std::__ndk1::char_traits<char> >)
FUNC 538b4 238 0 SongManager::addToBlacklist()
FUNC 53aec 23c 0 SongManager::addToFavorites(std::__ndk1::basic_string<char, std::__ndk1::char_traits<char>, std::__ndk1::allocator<char> > const&)
FUNC 53d28 238 0 SongManager::addToFavorites()
FUNC 53f60 16c 0 SongManager::setOverride(std::__ndk1::basic_string_view<char, std::__ndk1::char_traits<char> >)
FUNC 540cc 1d8 0 SongManager::setCurrentSongToOverride()
FUNC 542a4 cc 0 SongManager::setPreviousSong(std::__ndk1::basic_string_view<char, std::__ndk1::char_traits<char> >)
FUNC 54370 128 0 std::__ndk1::basic_string<char, std::__ndk1::char_traits<char>, std::__ndk1::allocator<char> >::__assign_external(char const*, unsigned long)
FUNC 54498 160 0 std::__ndk1::vector<std::__ndk1::basic_string<char, std::__ndk1::char_traits<char>, std::__ndk1::allocator<char> >, std::__ndk1::allocator<std::__ndk1::basic_string<char, std::__ndk1::char_traits<char>, std::__ndk1::allocator<char> > > >::__init_with_size[abi:ne180000]<std::__ndk1::basic_string<char, std::__ndk1::char_traits<char>, std::__ndk1::allocator<char> >*, std::__ndk1::vector<std::__ndk1::basic_string<char, std::__ndk1::char_traits<char>, std::__ndk1::allocator<char> >, std::__ndk1::allocator<std::__ndk1::basic_string<char, std::__ndk1::char_traits<char>, std::__ndk1::allocator<char> > > >::__init_with_size[abi:ne180000]>(std::__ndk1::basic_string<char, std::__ndk1::char_traits<char>, std::__ndk1::allocator<char> >*, std::__ndk1::vector<std::__ndk1::basic_string<char, std::__ndk1::char_traits<char>, std::__ndk1::allocator<char> >, std::__ndk1::allocator<std::__ndk1::basic_string<char, std::__ndk1::char_traits<char>, std::__ndk1::allocator<char> > > >::__init_with_size[abi:ne180000], unsigned long)
FUNC 545f8 8c 0 std::__ndk1::__exception_guard_exceptions<std::__ndk1::vector<std::__ndk1::basic_string<char, std::__ndk1::char_traits<char>, std::__ndk1::allocator<char> >, std::__ndk1::allocator<std::__ndk1::basic_string<char, std::__ndk1::char_traits<char>, std::__ndk1::allocator<char> > > >::__destroy_vector>::~__exception_guard_exceptions[abi:ne180000]()
FUNC 54684 60 0 std::__ndk1::__exception_guard_exceptions<std::__ndk1::_AllocatorDestroyRangeReverse<std::__ndk1::allocator<std::__ndk1::basic_string<char, std::__ndk1::char_traits<char>, std::__ndk1::allocator<char> > >, std::__ndk1::basic_string<char, std::__ndk1::char_traits<char>, std::__ndk1::allocator<char> >*> >::~__exception_guard_exceptions[abi:ne180000]()
FUNC 546e4 144 0 Utils::randomIndex(int)
FUNC 54828 f4 0 Utils::isSupportedFile(std::__ndk1::basic_string_view<char, std::__ndk1::char_traits<char> >)
FUNC 5491c 98 0 Utils::goodExtension(std::__ndk1::basic_string_view<char, std::__ndk1::char_traits<char> >)
FUNC 549b4 50 0 Utils::getBool(std::__ndk1::basic_string<char, std::__ndk1::char_traits<char>, std::__ndk1::allocator<char> >)
FUNC 54a04 30 0 geode::Mod::get<void>()
FUNC 54a34 31c 0 Utils::setNewSong()
FUNC 54d50 61c 0 Utils::playlistModeNewSong(bool)
FUNC 5536c 250 0 Utils::newNotification(std::__ndk1::basic_string<char, std::__ndk1::char_traits<char>, std::__ndk1::allocator<char> > const&)
FUNC 555bc 98 0 cocos2d::CCSequence::create(cocos2d::CCFiniteTimeAction*, ...)
FUNC 55654 1348 0 Utils::newCardFromCurrentSong()
FUNC 5699c 184 0 geode::Mod::getSettingValue<std::__ndk1::basic_string<char, std::__ndk1::char_traits<char>, std::__ndk1::allocator<char> > >(std::__ndk1::basic_string_view<char, std::__ndk1::char_traits<char> >) const
FUNC 56b20 7c 0 std::__ndk1::operator==[abi:ne180000]<char, std::__ndk1::char_traits<char>, std::__ndk1::allocator<char> >(std::__ndk1::basic_string<char, std::__ndk1::char_traits<char>, std::__ndk1::allocator<char> > const&, std::__ndk1::basic_string const*)
FUNC 56b9c 3a4 0 geode::utils::numFromString<int>(std::__ndk1::basic_string_view<char, std::__ndk1::char_traits<char> >, int)
FUNC 56f40 74 0 geode::impl::ResultData<int, std::__ndk1::basic_string<char, std::__ndk1::char_traits<char>, std::__ndk1::allocator<char> > >::~ResultData()
FUNC 56fb4 f8 0 Utils::playlistModePLAndEPL()
FUNC 570ac e80 0 Utils::copyCurrentSongName()
FUNC 57f2c 1e44 0 Utils::populateVector(bool)
FUNC 59d70 50 0 std::__ndk1::basic_ifstream<char, std::__ndk1::char_traits<char> >::~basic_ifstream()
FUNC 59dc0 50 0 std::__ndk1::__fs::filesystem::directory_iterator::~directory_iterator[abi:ne180000]()
FUNC 59e10 20 0 geode::cocos::CCArrayExt<SongInfoObject*>::~CCArrayExt()
FUNC 59e30 518 0 Utils::getSongInfoObject()
FUNC 5a348 1f0 0 Utils::getSongName()
FUNC 5a538 3c 0 Utils::getSongArtist()
FUNC 5a574 2ec 0 Utils::currentCustomSong()
FUNC 5a860 168 0 _ZN5geode15UnwrapExceptionC2IRNSt6__ndk112basic_stringIcNS2_11char_traitsIcEENS2_9allocatorIcEEEEQsr4implE18IsStringStreamableIT_EEENS_4impl6ErrTagEOSA_
FUNC 5a9c8 4 0 std::__ndk1::__variant_detail::__visitation::__base::__dispatcher<(unsigned long)0>::__dispatch[abi:ne180000]<std::__ndk1::__variant_detail::__dtor<std::__ndk1::__variant_detail::__traits<int, std::__ndk1::basic_string<char, std::__ndk1::char_traits<char>, std::__ndk1::allocator<char> > >, (std::__ndk1::__variant_detail::_Trait)1>::__destroy[abi:ne180000]()::{lambda(auto:1&)#1}, std::__ndk1::__variant_detail::__base<(std::__ndk1::__variant_detail::__traits<int, std::__ndk1::basic_string<char, std::__ndk1::char_traits<char>, std::__ndk1::allocator<char> > >)1, int, std::__ndk1::allocator<char> >&>(std::__ndk1::__variant_detail::__dtor<std::__ndk1::__variant_detail::__traits<int, std::__ndk1::basic_string<char, std::__ndk1::char_traits<char>, std::__ndk1::allocator<char> > >, (std::__ndk1::__variant_detail::_Trait)1>, std::__ndk1::__variant_detail::__base<(std::__ndk1::__variant_detail::__traits<int, std::__ndk1::basic_string<char, std::__ndk1::char_traits<char>, std::__ndk1::allocator<char> > >)1, int, std::__ndk1::allocator<char> >&)
FUNC 5a9cc 14 0 std::__ndk1::__variant_detail::__visitation::__base::__dispatcher<(unsigned long)1>::__dispatch[abi:ne180000]<std::__ndk1::__variant_detail::__dtor<std::__ndk1::__variant_detail::__traits<int, std::__ndk1::basic_string<char, std::__ndk1::char_traits<char>, std::__ndk1::allocator<char> > >, (std::__ndk1::__variant_detail::_Trait)1>::__destroy[abi:ne180000]()::{lambda(auto:1&)#1}, std::__ndk1::__variant_detail::__base<(std::__ndk1::__variant_detail::__traits<int, std::__ndk1::basic_string<char, std::__ndk1::char_traits<char>, std::__ndk1::allocator<char> > >)1, int, std::__ndk1::allocator<char> >&>(std::__ndk1::__variant_detail::__dtor<std::__ndk1::__variant_detail::__traits<int, std::__ndk1::basic_string<char, std::__ndk1::char_traits<char>, std::__ndk1::allocator<char> > >, (std::__ndk1::__variant_detail::_Trait)1>, std::__ndk1::__variant_detail::__base<(std::__ndk1::__variant_detail::__traits<int, std::__ndk1::basic_string<char, std::__ndk1::char_traits<char>, std::__ndk1::allocator<char> > >)1, int, std::__ndk1::allocator<char> >&)
FUNC 5a9e0 134 0 std::__ndk1::uniform_int_distribution<int>::operator()<std::__ndk1::mersenne_twister_engine<unsigned long, (unsigned long)32, (unsigned long)624, (unsigned long)397, (unsigned long)31, (unsigned long)2567483615, (unsigned long)11, (unsigned long)4294967295, (unsigned long)7, (unsigned long)2636928640, (unsigned long)15, (unsigned long)4022730752, (unsigned long)18, (unsigned long)1812433253> >(std::__ndk1::mersenne_twister_engine<unsigned long, (unsigned long)32, (unsigned long)624, (unsigned long)397, (unsigned long)31, (unsigned long)2567483615, (unsigned long)11, (unsigned long)4294967295, (unsigned long)7, (unsigned long)2636928640, (unsigned long)15, (unsigned long)4022730752, (unsigned long)18, (unsigned long)1812433253>&, std::__ndk1::uniform_int_distribution<int>::param_type const&)
FUNC 5ab14 1f4 0 std::__ndk1::__independent_bits_engine<std::__ndk1::mersenne_twister_engine<unsigned long, (unsigned long)32, (unsigned long)624, (unsigned long)397, (unsigned long)31, (unsigned long)2567483615, (unsigned long)11, (unsigned long)4294967295, (unsigned long)7, (unsigned long)2636928640, (unsigned long)15, (unsigned long)4022730752, (unsigned long)18, (unsigned long)1812433253>, unsigned int>::__eval(std::__ndk1::integral_constant<bool, true>)
FUNC 5ad08 50 0 std::__ndk1::shared_ptr<geode::StringSettingV3>::~shared_ptr[abi:ne180000]()
FUNC 5ad58 194 0 std::__ndk1::regex_replace[abi:ne180000]<std::__ndk1::back_insert_iterator<std::__ndk1::basic_string<char, std::__ndk1::char_traits<char>, std::__ndk1::allocator<char> > >, std::__ndk1::__wrap_iter<char const*>, std::__ndk1::regex_traits<char>, char>(std::__ndk1::regex_traits<char>, std::__ndk1::__wrap_iter<char const*>, std::__ndk1::back_insert_iterator<std::__ndk1::basic_string<char, std::__ndk1::char_traits<char>, std::__ndk1::allocator<char> > >, std::__ndk1::basic_regex<char, std::__ndk1::regex_traits<char> > const&, std::__ndk1::basic_regex const*, std::__ndk1::regex_constants::match_flag_type)
FUNC 5aeec 130 0 std::__ndk1::regex_iterator<std::__ndk1::__wrap_iter<char const*>, char, std::__ndk1::regex_traits<char> >::regex_iterator(std::__ndk1::__wrap_iter<char const*>, std::__ndk1::__wrap_iter<char const*>, std::__ndk1::basic_regex<char, std::__ndk1::regex_traits<char> > const&, std::__ndk1::regex_constants::match_flag_type)
FUNC 5b01c 298 0 std::__ndk1::match_results<std::__ndk1::__wrap_iter<char const*>, std::__ndk1::allocator<std::__ndk1::sub_match<std::__ndk1::__wrap_iter<char const*> > > >::format<std::__ndk1::back_insert_iterator<std::__ndk1::basic_string<char, std::__ndk1::char_traits<char>, std::__ndk1::allocator<char> > > >(std::__ndk1::back_insert_iterator<std::__ndk1::basic_string<char, std::__ndk1::char_traits<char>, std::__ndk1::allocator<char> > >, char const*, char const*, std::__ndk1::regex_constants::match_flag_type) const
FUNC 5b2b4 21c 0 std::__ndk1::regex_iterator<std::__ndk1::__wrap_iter<char const*>, char, std::__ndk1::regex_traits<char> >::operator++()
FUNC 5b4d0 104 0 std::__ndk1::basic_ifstream<char, std::__ndk1::char_traits<char> >::basic_ifstream(char const*, unsigned int)
FUNC 5b5d4 1b4 0 std::__ndk1::getline[abi:ne180000]<char, std::__ndk1::char_traits<char>, std::__ndk1::allocator<char> >(std::__ndk1::basic_istream<char, std::__ndk1::char_traits<char> >, std::__ndk1::basic_string<std::__ndk1::basic_istream, char, std::__ndk1::allocator<char> >&, std::__ndk1::basic_istream)
FUNC 5b788 4 0 std::__ndk1::__variant_detail::__visitation::__base::__dispatcher<(unsigned long)0>::__dispatch[abi:ne180000]<std::__ndk1::__variant_detail::__dtor<std::__ndk1::__variant_detail::__traits<bool, std::__ndk1::basic_string<char, std::__ndk1::char_traits<char>, std::__ndk1::allocator<char> > >, (std::__ndk1::__variant_detail::_Trait)1>::__destroy[abi:ne180000]()::{lambda(auto:1&)#1}, std::__ndk1::__variant_detail::__base<(std::__ndk1::__variant_detail::__traits<bool, std::__ndk1::basic_string<char, std::__ndk1::char_traits<char>, std::__ndk1::allocator<char> > >)1, bool, std::__ndk1::allocator<char> >&>(std::__ndk1::__variant_detail::__dtor<std::__ndk1::__variant_detail::__traits<bool, std::__ndk1::basic_string<char, std::__ndk1::char_traits<char>, std::__ndk1::allocator<char> > >, (std::__ndk1::__variant_detail::_Trait)1>, std::__ndk1::__variant_detail::__base<(std::__ndk1::__variant_detail::__traits<bool, std::__ndk1::basic_string<char, std::__ndk1::char_traits<char>, std::__ndk1::allocator<char> > >)1, bool, std::__ndk1::allocator<char> >&)
FUNC 5b78c 14 0 std::__ndk1::__variant_detail::__visitation::__base::__dispatcher<(unsigned long)1>::__dispatch[abi:ne180000]<std::__ndk1::__variant_detail::__dtor<std::__ndk1::__variant_detail::__traits<bool, std::__ndk1::basic_string<char, std::__ndk1::char_traits<char>, std::__ndk1::allocator<char> > >, (std::__ndk1::__variant_detail::_Trait)1>::__destroy[abi:ne180000]()::{lambda(auto:1&)#1}, std::__ndk1::__variant_detail::__base<(std::__ndk1::__variant_detail::__traits<bool, std::__ndk1::basic_string<char, std::__ndk1::char_traits<char>, std::__ndk1::allocator<char> > >)1, bool, std::__ndk1::allocator<char> >&>(std::__ndk1::__variant_detail::__dtor<std::__ndk1::__variant_detail::__traits<bool, std::__ndk1::basic_string<char, std::__ndk1::char_traits<char>, std::__ndk1::allocator<char> > >, (std::__ndk1::__variant_detail::_Trait)1>, std::__ndk1::__variant_detail::__base<(std::__ndk1::__variant_detail::__traits<bool, std::__ndk1::basic_string<char, std::__ndk1::char_traits<char>, std::__ndk1::allocator<char> > >)1, bool, std::__ndk1::allocator<char> >&)
FUNC 5b7a0 b0 0 _GLOBAL__sub_I_Utils.cpp
FUNC 5b850 14 0 std::__ndk1::__fs::filesystem::path::~path[abi:ne180000]()
FUNC 5b864 10ec 0 geodeExecFunction13<(anonymous namespace)::ExecFuncUnique13>(geode::ModStateEvent*)
FUNC 5c950 374 0 MyButtonSettingV3::parse(std::__ndk1::basic_string<char, std::__ndk1::char_traits<char>, std::__ndk1::allocator<char> > const&, std::__ndk1::basic_string<char, std::__ndk1::char_traits<char>, std::__ndk1::allocator<char> > const&, matjson::Value const&)
FUNC 5ccc4 74 0 geode::impl::ResultData<void, std::__ndk1::basic_string<char, std::__ndk1::char_traits<char>, std::__ndk1::allocator<char> > >::~ResultData()
FUNC 5cd38 10 0 std::__ndk1::__shared_ptr_emplace<MyButtonSettingV3, std::__ndk1::allocator<MyButtonSettingV3> >::~__shared_ptr_emplace()
FUNC 5cd48 30 0 std::__ndk1::__shared_ptr_emplace<MyButtonSettingV3, std::__ndk1::allocator<MyButtonSettingV3> >::~__shared_ptr_emplace()
FUNC 5cd78 c 0 std::__ndk1::__shared_ptr_emplace<MyButtonSettingV3, std::__ndk1::allocator<MyButtonSettingV3> >::__on_zero_shared()
FUNC 5cd84 4 0 std::__ndk1::__shared_ptr_emplace<MyButtonSettingV3, std::__ndk1::allocator<MyButtonSettingV3> >::__on_zero_shared_weak()
FUNC 5cd88 4 0 std::__ndk1::__function::__base<geode::Result<std::__ndk1::shared_ptr<geode::SettingV3>, std::__ndk1::basic_string<char, std::__ndk1::char_traits<char>, std::__ndk1::allocator<char> > >(std::__ndk1::basic_string<char, std::__ndk1::char_traits<char>, std::__ndk1::allocator<char> > const&, std::__ndk1::basic_string<char, std::__ndk1::char_traits<char>, std::__ndk1::allocator<char> > const&, matjson::Value const&)>::~__base()
FUNC 5cd8c 4 0 std::__ndk1::__function::__func<geode::Result<std::__ndk1::shared_ptr<geode::SettingV3>, std::__ndk1::basic_string<char, std::__ndk1::char_traits<char>, std::__ndk1::allocator<char> > > (*)(std::__ndk1::basic_string<char, std::__ndk1::char_traits<char>, std::__ndk1::allocator<char> > const&, std::__ndk1::basic_string<char, std::__ndk1::char_traits<char>, std::__ndk1::allocator<char> > const&, matjson::Value const&), std::__ndk1::allocator<geode::Result<std::__ndk1::shared_ptr<geode::SettingV3>, std::__ndk1::basic_string<char, std::__ndk1::char_traits<char>, std::__ndk1::allocator<char> > > (*)(std::__ndk1::basic_string<char, std::__ndk1::char_traits<char>, std::__ndk1::allocator<char> > const&, std::__ndk1::basic_string<char, std::__ndk1::char_traits<char>, std::__ndk1::allocator<char> > const&, matjson::Value const&)>, geode::Result<std::__ndk1::shared_ptr<geode::SettingV3>, std::__ndk1::basic_string<char, std::__ndk1::char_traits<char>, std::__ndk1::allocator<char> > >(std::__ndk1::basic_string<char, std::__ndk1::char_traits<char>, std::__ndk1::allocator<char> > const&, std::__ndk1::basic_string<char, std::__ndk1::char_traits<char>, std::__ndk1::allocator<char> > const&, matjson::Value const&)>::~__func()
FUNC 5cd90 34 0 std::__ndk1::__function::__func<geode::Result<std::__ndk1::shared_ptr<geode::SettingV3>, std::__ndk1::basic_string<char, std::__ndk1::char_traits<char>, std::__ndk1::allocator<char> > > (*)(std::__ndk1::basic_string<char, std::__ndk1::char_traits<char>, std::__ndk1::allocator<char> > const&, std::__ndk1::basic_string<char, std::__ndk1::char_traits<char>, std::__ndk1::allocator<char> > const&, matjson::Value const&), std::__ndk1::allocator<geode::Result<std::__ndk1::shared_ptr<geode::SettingV3>, std::__ndk1::basic_string<char, std::__ndk1::char_traits<char>, std::__ndk1::allocator<char> > > (*)(std::__ndk1::basic_string<char, std::__ndk1::char_traits<char>, std::__ndk1::allocator<char> > const&, std::__ndk1::basic_string<char, std::__ndk1::char_traits<char>, std::__ndk1::allocator<char> > const&, matjson::Value const&)>, geode::Result<std::__ndk1::shared_ptr<geode::SettingV3>, std::__ndk1::basic_string<char, std::__ndk1::char_traits<char>, std::__ndk1::allocator<char> > >(std::__ndk1::basic_string<char, std::__ndk1::char_traits<char>, std::__ndk1::allocator<char> > const&, std::__ndk1::basic_string<char, std::__ndk1::char_traits<char>, std::__ndk1::allocator<char> > const&, matjson::Value const&)>::__clone() const
FUNC 5cdc4 14 0 std::__ndk1::__function::__func<geode::Result<std::__ndk1::shared_ptr<geode::SettingV3>, std::__ndk1::basic_string<char, std::__ndk1::char_traits<char>, std::__ndk1::allocator<char> > > (*)(std::__ndk1::basic_string<char, std::__ndk1::char_traits<char>, std::__ndk1::allocator<char> > const&, std::__ndk1::basic_string<char, std::__ndk1::char_traits<char>, std::__ndk1::allocator<char> > const&, matjson::Value const&), std::__ndk1::allocator<geode::Result<std::__ndk1::shared_ptr<geode::SettingV3>, std::__ndk1::basic_string<char, std::__ndk1::char_traits<char>, std::__ndk1::allocator<char> > > (*)(std::__ndk1::basic_string<char, std::__ndk1::char_traits<char>, std::__ndk1::allocator<char> > const&, std::__ndk1::basic_string<char, std::__ndk1::char_traits<char>, std::__ndk1::allocator<char> > const&, matjson::Value const&)>, geode::Result<std::__ndk1::shared_ptr<geode::SettingV3>, std::__ndk1::basic_string<char, std::__ndk1::char_traits<char>, std::__ndk1::allocator<char> > >(std::__ndk1::basic_string<char, std::__ndk1::char_traits<char>, std::__ndk1::allocator<char> > const&, std::__ndk1::basic_string<char, std::__ndk1::char_traits<char>, std::__ndk1::allocator<char> > const&, matjson::Value const&)>::__clone(std::__ndk1::__function::__base<geode::Result<std::__ndk1::shared_ptr<geode::SettingV3>, std::__ndk1::basic_string<char, std::__ndk1::char_traits<char>, std::__ndk1::allocator<char> > >(std::__ndk1::basic_string<char, std::__ndk1::char_traits<char>, std::__ndk1::allocator<char> > const&, std::__ndk1::basic_string<char, std::__ndk1::char_traits<char>, std::__ndk1::allocator<char> > const&, matjson::Value const&)>*) const
FUNC 5cdd8 4 0 std::__ndk1::__function::__func<geode::Result<std::__ndk1::shared_ptr<geode::SettingV3>, std::__ndk1::basic_string<char, std::__ndk1::char_traits<char>, std::__ndk1::allocator<char> > > (*)(std::__ndk1::basic_string<char, std::__ndk1::char_traits<char>, std::__ndk1::allocator<char> > const&, std::__ndk1::basic_string<char, std::__ndk1::char_traits<char>, std::__ndk1::allocator<char> > const&, matjson::Value const&), std::__ndk1::allocator<geode::Result<std::__ndk1::shared_ptr<geode::SettingV3>, std::__ndk1::basic_string<char, std::__ndk1::char_traits<char>, std::__ndk1::allocator<char> > > (*)(std::__ndk1::basic_string<char, std::__ndk1::char_traits<char>, std::__ndk1::allocator<char> > const&, std::__ndk1::basic_string<char, std::__ndk1::char_traits<char>, std::__ndk1::allocator<char> > const&, matjson::Value const&)>, geode::Result<std::__ndk1::shared_ptr<geode::SettingV3>, std::__ndk1::basic_string<char, std::__ndk1::char_traits<char>, std::__ndk1::allocator<char> > >(std::__ndk1::basic_string<char, std::__ndk1::char_traits<char>, std::__ndk1::allocator<char> > const&, std::__ndk1::basic_string<char, std::__ndk1::char_traits<char>, std::__ndk1::allocator<char> > const&, matjson::Value const&)>::destroy()
FUNC 5cddc 4 0 std::__ndk1::__function::__func<geode::Result<std::__ndk1::shared_ptr<geode::SettingV3>, std::__ndk1::basic_string<char, std::__ndk1::char_traits<char>, std::__ndk1::allocator<char> > > (*)(std::__ndk1::basic_string<char, std::__ndk1::char_traits<char>, std::__ndk1::allocator<char> > const&, std::__ndk1::basic_string<char, std::__ndk1::char_traits<char>, std::__ndk1::allocator<char> > const&, matjson::Value const&), std::__ndk1::allocator<geode::Result<std::__ndk1::shared_ptr<geode::SettingV3>, std::__ndk1::basic_string<char, std::__ndk1::char_traits<char>, std::__ndk1::allocator<char> > > (*)(std::__ndk1::basic_string<char, std::__ndk1::char_traits<char>, std::__ndk1::allocator<char> > const&, std::__ndk1::basic_string<char, std::__ndk1::char_traits<char>, std::__ndk1::allocator<char> > const&, matjson::Value const&)>, geode::Result<std::__ndk1::shared_ptr<geode::SettingV3>, std::__ndk1::basic_string<char, std::__ndk1::char_traits<char>, std::__ndk1::allocator<char> > >(std::__ndk1::basic_string<char, std::__ndk1::char_traits<char>, std::__ndk1::allocator<char> > const&, std::__ndk1::basic_string<char, std::__ndk1::char_traits<char>, std::__ndk1::allocator<char> > const&, matjson::Value const&)>::destroy_deallocate()
FUNC 5cde0 14 0 std::__ndk1::__function::__func<geode::Result<std::__ndk1::shared_ptr<geode::SettingV3>, std::__ndk1::basic_string<char, std::__ndk1::char_traits<char>, std::__ndk1::allocator<char> > > (*)(std::__ndk1::basic_string<char, std::__ndk1::char_traits<char>, std::__ndk1::allocator<char> > const&, std::__ndk1::basic_string<char, std::__ndk1::char_traits<char>, std::__ndk1::allocator<char> > const&, matjson::Value const&), std::__ndk1::allocator<geode::Result<std::__ndk1::shared_ptr<geode::SettingV3>, std::__ndk1::basic_string<char, std::__ndk1::char_traits<char>, std::__ndk1::allocator<char> > > (*)(std::__ndk1::basic_string<char, std::__ndk1::char_traits<char>, std::__ndk1::allocator<char> > const&, std::__ndk1::basic_string<char, std::__ndk1::char_traits<char>, std::__ndk1::allocator<char> > const&, matjson::Value const&)>, geode::Result<std::__ndk1::shared_ptr<geode::SettingV3>, std::__ndk1::basic_string<char, std::__ndk1::char_traits<char>, std::__ndk1::allocator<char> > >(std::__ndk1::basic_string<char, std::__ndk1::char_traits<char>, std::__ndk1::allocator<char> > const&, std::__ndk1::basic_string<char, std::__ndk1::char_traits<char>, std::__ndk1::allocator<char> > const&, matjson::Value const&)>::operator()(std::__ndk1::basic_string<char, std::__ndk1::char_traits<char>, std::__ndk1::allocator<char> > const&, std::__ndk1::basic_string<char, std::__ndk1::char_traits<char>, std::__ndk1::allocator<char> > const&, matjson::Value const&)
FUNC 5cdf4 1c 0 std::__ndk1::__function::__func<geode::Result<std::__ndk1::shared_ptr<geode::SettingV3>, std::__ndk1::basic_string<char, std::__ndk1::char_traits<char>, std::__ndk1::allocator<char> > > (*)(std::__ndk1::basic_string<char, std::__ndk1::char_traits<char>, std::__ndk1::allocator<char> > const&, std::__ndk1::basic_string<char, std::__ndk1::char_traits<char>, std::__ndk1::allocator<char> > const&, matjson::Value const&), std::__ndk1::allocator<geode::Result<std::__ndk1::shared_ptr<geode::SettingV3>, std::__ndk1::basic_string<char, std::__ndk1::char_traits<char>, std::__ndk1::allocator<char> > > (*)(std::__ndk1::basic_string<char, std::__ndk1::char_traits<char>, std::__ndk1::allocator<char> > const&, std::__ndk1::basic_string<char, std::__ndk1::char_traits<char>, std::__ndk1::allocator<char> > const&, matjson::Value const&)>, geode::Result<std::__ndk1::shared_ptr<geode::SettingV3>, std::__ndk1::basic_string<char, std::__ndk1::char_traits<char>, std::__ndk1::allocator<char> > >(std::__ndk1::basic_string<char, std::__ndk1::char_traits<char>, std::__ndk1::allocator<char> > const&, std::__ndk1::basic_string<char, std::__ndk1::char_traits<char>, std::__ndk1::allocator<char> > const&, matjson::Value const&)>::target(std::type_info const&) const
FUNC 5ce10 c 0 std::__ndk1::__function::__func<geode::Result<std::__ndk1::shared_ptr<geode::SettingV3>, std::__ndk1::basic_string<char, std::__ndk1::char_traits<char>, std::__ndk1::allocator<char> > > (*)(std::__ndk1::basic_string<char, std::__ndk1::char_traits<char>, std::__ndk1::allocator<char> > const&, std::__ndk1::basic_string<char, std::__ndk1::char_traits<char>, std::__ndk1::allocator<char> > const&, matjson::Value const&), std::__ndk1::allocator<geode::Result<std::__ndk1::shared_ptr<geode::SettingV3>, std::__ndk1::basic_string<char, std::__ndk1::char_traits<char>, std::__ndk1::allocator<char> > > (*)(std::__ndk1::basic_string<char, std::__ndk1::char_traits<char>, std::__ndk1::allocator<char> > const&, std::__ndk1::basic_string<char, std::__ndk1::char_traits<char>, std::__ndk1::allocator<char> > const&, matjson::Value const&)>, geode::Result<std::__ndk1::shared_ptr<geode::SettingV3>, std::__ndk1::basic_string<char, std::__ndk1::char_traits<char>, std::__ndk1::allocator<char> > >(std::__ndk1::basic_string<char, std::__ndk1::char_traits<char>, std::__ndk1::allocator<char> > const&, std::__ndk1::basic_string<char, std::__ndk1::char_traits<char>, std::__ndk1::allocator<char> > const&, matjson::Value const&)>::target_type() const
FUNC 5ce1c 4 0 std::__ndk1::__variant_detail::__visitation::__base::__dispatcher<(unsigned long)0>::__dispatch[abi:ne180000]<std::__ndk1::__variant_detail::__dtor<std::__ndk1::__variant_detail::__traits<std::__ndk1::monostate, std::__ndk1::basic_string<char, std::__ndk1::char_traits<char>, std::__ndk1::allocator<char> > >, (std::__ndk1::__variant_detail::_Trait)1>::__destroy[abi:ne180000]()::{lambda(auto:1&)#1}, std::__ndk1::__variant_detail::__base<(std::__ndk1::__variant_detail::__traits<std::__ndk1::monostate, std::__ndk1::basic_string<char, std::__ndk1::char_traits<char>, std::__ndk1::allocator<char> > >)1, std::__ndk1::__variant_detail::__traits, std::__ndk1::allocator<char> >&>(std::__ndk1::__variant_detail::__dtor<std::__ndk1::__variant_detail::__traits<std::__ndk1::monostate, std::__ndk1::basic_string<char, std::__ndk1::char_traits<char>, std::__ndk1::allocator<char> > >, (std::__ndk1::__variant_detail::_Trait)1>, std::__ndk1::__variant_detail::__base<(std::__ndk1::__variant_detail::__traits<std::__ndk1::monostate, std::__ndk1::basic_string<char, std::__ndk1::char_traits<char>, std::__ndk1::allocator<char> > >)1, std::__ndk1::__variant_detail::__traits, std::__ndk1::allocator<char> >&)
FUNC 5ce20 14 0 std::__ndk1::__variant_detail::__visitation::__base::__dispatcher<(unsigned long)1>::__dispatch[abi:ne180000]<std::__ndk1::__variant_detail::__dtor<std::__ndk1::__variant_detail::__traits<std::__ndk1::monostate, std::__ndk1::basic_string<char, std::__ndk1::char_traits<char>, std::__ndk1::allocator<char> > >, (std::__ndk1::__variant_detail::_Trait)1>::__destroy[abi:ne180000]()::{lambda(auto:1&)#1}, std::__ndk1::__variant_detail::__base<(std::__ndk1::__variant_detail::__traits<std::__ndk1::monostate, std::__ndk1::basic_string<char, std::__ndk1::char_traits<char>, std::__ndk1::allocator<char> > >)1, std::__ndk1::__variant_detail::__traits, std::__ndk1::allocator<char> >&>(std::__ndk1::__variant_detail::__dtor<std::__ndk1::__variant_detail::__traits<std::__ndk1::monostate, std::__ndk1::basic_string<char, std::__ndk1::char_traits<char>, std::__ndk1::allocator<char> > >, (std::__ndk1::__variant_detail::_Trait)1>, std::__ndk1::__variant_detail::__base<(std::__ndk1::__variant_detail::__traits<std::__ndk1::monostate, std::__ndk1::basic_string<char, std::__ndk1::char_traits<char>, std::__ndk1::allocator<char> > >)1, std::__ndk1::__variant_detail::__traits, std::__ndk1::allocator<char> >&)
FUNC 5ce34 50 0 std::__ndk1::shared_ptr<geode::FileSettingV3>::~shared_ptr[abi:ne180000]()
FUNC 5ce84 e8 0 geode::EventListener<geode::SettingChangedFilterV3>::EventListener(std::__ndk1::function<void (std::__ndk1::shared_ptr<geode::SettingV3>)>, geode::SettingChangedFilterV3)
FUNC 5cf6c 50 0 geode::SettingChangedFilterV3::~SettingChangedFilterV3()
FUNC 5cfbc 4 0 std::__ndk1::__function::__func<geode::listenForSettingChangesV3<bool, geodeExecFunction13<(anonymous namespace)::ExecFuncUnique13>(geode::ModStateEvent*)::{lambda(bool)#1}>(std::__ndk1::basic_string_view<char, std::__ndk1::char_traits<char> >, geodeExecFunction13<(anonymous namespace)::ExecFuncUnique13>(geode::ModStateEvent*)::{lambda(bool)#1}&&, geode::Mod*)::{lambda(std::__ndk1::shared_ptr<geode::SettingV3>)#1}, std::__ndk1::allocator<geode::listenForSettingChangesV3<bool, geodeExecFunction13<(anonymous namespace)::ExecFuncUnique13>(geode::ModStateEvent*)::{lambda(bool)#1}>(std::__ndk1::basic_string_view<char, std::__ndk1::char_traits<char> >, geodeExecFunction13<(anonymous namespace)::ExecFuncUnique13>(geode::ModStateEvent*)::{lambda(bool)#1}&&, geode::Mod*)::{lambda(std::__ndk1::shared_ptr<geode::SettingV3>)#1}>, void (std::__ndk1::shared_ptr<geode::SettingV3>)>::~__func()
FUNC 5cfc0 38 0 std::__ndk1::__function::__func<geode::listenForSettingChangesV3<bool, geodeExecFunction13<(anonymous namespace)::ExecFuncUnique13>(geode::ModStateEvent*)::{lambda(bool)#1}>(std::__ndk1::basic_string_view<char, std::__ndk1::char_traits<char> >, geodeExecFunction13<(anonymous namespace)::ExecFuncUnique13>(geode::ModStateEvent*)::{lambda(bool)#1}&&, geode::Mod*)::{lambda(std::__ndk1::shared_ptr<geode::SettingV3>)#1}, std::__ndk1::allocator<geode::listenForSettingChangesV3<bool, geodeExecFunction13<(anonymous namespace)::ExecFuncUnique13>(geode::ModStateEvent*)::{lambda(bool)#1}>(std::__ndk1::basic_string_view<char, std::__ndk1::char_traits<char> >, geodeExecFunction13<(anonymous namespace)::ExecFuncUnique13>(geode::ModStateEvent*)::{lambda(bool)#1}&&, geode::Mod*)::{lambda(std::__ndk1::shared_ptr<geode::SettingV3>)#1}>, void (std::__ndk1::shared_ptr<geode::SettingV3>)>::__clone() const
FUNC 5cff8 18 0 std::__ndk1::__function::__func<geode::listenForSettingChangesV3<bool, geodeExecFunction13<(anonymous namespace)::ExecFuncUnique13>(geode::ModStateEvent*)::{lambda(bool)#1}>(std::__ndk1::basic_string_view<char, std::__ndk1::char_traits<char> >, geodeExecFunction13<(anonymous namespace)::ExecFuncUnique13>(geode::ModStateEvent*)::{lambda(bool)#1}&&, geode::Mod*)::{lambda(std::__ndk1::shared_ptr<geode::SettingV3>)#1}, std::__ndk1::allocator<geode::listenForSettingChangesV3<bool, geodeExecFunction13<(anonymous namespace)::ExecFuncUnique13>(geode::ModStateEvent*)::{lambda(bool)#1}>(std::__ndk1::basic_string_view<char, std::__ndk1::char_traits<char> >, geodeExecFunction13<(anonymous namespace)::ExecFuncUnique13>(geode::ModStateEvent*)::{lambda(bool)#1}&&, geode::Mod*)::{lambda(std::__ndk1::shared_ptr<geode::SettingV3>)#1}>, void (std::__ndk1::shared_ptr<geode::SettingV3>)>::__clone(std::__ndk1::__function::__base<void (std::__ndk1::shared_ptr<geode::SettingV3>)>*) const
FUNC 5d010 4 0 std::__ndk1::__function::__func<geode::listenForSettingChangesV3<bool, geodeExecFunction13<(anonymous namespace)::ExecFuncUnique13>(geode::ModStateEvent*)::{lambda(bool)#1}>(std::__ndk1::basic_string_view<char, std::__ndk1::char_traits<char> >, geodeExecFunction13<(anonymous namespace)::ExecFuncUnique13>(geode::ModStateEvent*)::{lambda(bool)#1}&&, geode::Mod*)::{lambda(std::__ndk1::shared_ptr<geode::SettingV3>)#1}, std::__ndk1::allocator<geode::listenForSettingChangesV3<bool, geodeExecFunction13<(anonymous namespace)::ExecFuncUnique13>(geode::ModStateEvent*)::{lambda(bool)#1}>(std::__ndk1::basic_string_view<char, std::__ndk1::char_traits<char> >, geodeExecFunction13<(anonymous namespace)::ExecFuncUnique13>(geode::ModStateEvent*)::{lambda(bool)#1}&&, geode::Mod*)::{lambda(std::__ndk1::shared_ptr<geode::SettingV3>)#1}>, void (std::__ndk1::shared_ptr<geode::SettingV3>)>::destroy()
FUNC 5d014 4 0 std::__ndk1::__function::__func<geode::listenForSettingChangesV3<bool, geodeExecFunction13<(anonymous namespace)::ExecFuncUnique13>(geode::ModStateEvent*)::{lambda(bool)#1}>(std::__ndk1::basic_string_view<char, std::__ndk1::char_traits<char> >, geodeExecFunction13<(anonymous namespace)::ExecFuncUnique13>(geode::ModStateEvent*)::{lambda(bool)#1}&&, geode::Mod*)::{lambda(std::__ndk1::shared_ptr<geode::SettingV3>)#1}, std::__ndk1::allocator<geode::listenForSettingChangesV3<bool, geodeExecFunction13<(anonymous namespace)::ExecFuncUnique13>(geode::ModStateEvent*)::{lambda(bool)#1}>(std::__ndk1::basic_string_view<char, std::__ndk1::char_traits<char> >, geodeExecFunction13<(anonymous namespace)::ExecFuncUnique13>(geode::ModStateEvent*)::{lambda(bool)#1}&&, geode::Mod*)::{lambda(std::__ndk1::shared_ptr<geode::SettingV3>)#1}>, void (std::__ndk1::shared_ptr<geode::SettingV3>)>::destroy_deallocate()
FUNC 5d018 214 0 std::__ndk1::__function::__func<geode::listenForSettingChangesV3<bool, geodeExecFunction13<(anonymous namespace)::ExecFuncUnique13>(geode::ModStateEvent*)::{lambda(bool)#1}>(std::__ndk1::basic_string_view<char, std::__ndk1::char_traits<char> >, geodeExecFunction13<(anonymous namespace)::ExecFuncUnique13>(geode::ModStateEvent*)::{lambda(bool)#1}&&, geode::Mod*)::{lambda(std::__ndk1::shared_ptr<geode::SettingV3>)#1}, std::__ndk1::allocator<geode::listenForSettingChangesV3<bool, geodeExecFunction13<(anonymous namespace)::ExecFuncUnique13>(geode::ModStateEvent*)::{lambda(bool)#1}>(std::__ndk1::basic_string_view<char, std::__ndk1::char_traits<char> >, geodeExecFunction13<(anonymous namespace)::ExecFuncUnique13>(geode::ModStateEvent*)::{lambda(bool)#1}&&, geode::Mod*)::{lambda(std::__ndk1::shared_ptr<geode::SettingV3>)#1}>, void (std::__ndk1::shared_ptr<geode::SettingV3>)>::operator()(std::__ndk1::shared_ptr<geode::SettingV3>&&)
FUNC 5d22c 1c 0 std::__ndk1::__function::__func<geode::listenForSettingChangesV3<bool, geodeExecFunction13<(anonymous namespace)::ExecFuncUnique13>(geode::ModStateEvent*)::{lambda(bool)#1}>(std::__ndk1::basic_string_view<char, std::__ndk1::char_traits<char> >, geodeExecFunction13<(anonymous namespace)::ExecFuncUnique13>(geode::ModStateEvent*)::{lambda(bool)#1}&&, geode::Mod*)::{lambda(std::__ndk1::shared_ptr<geode::SettingV3>)#1}, std::__ndk1::allocator<geode::listenForSettingChangesV3<bool, geodeExecFunction13<(anonymous namespace)::ExecFuncUnique13>(geode::ModStateEvent*)::{lambda(bool)#1}>(std::__ndk1::basic_string_view<char, std::__ndk1::char_traits<char> >, geodeExecFunction13<(anonymous namespace)::ExecFuncUnique13>(geode::ModStateEvent*)::{lambda(bool)#1}&&, geode::Mod*)::{lambda(std::__ndk1::shared_ptr<geode::SettingV3>)#1}>, void (std::__ndk1::shared_ptr<geode::SettingV3>)>::target(std::type_info const&) const
FUNC 5d248 c 0 std::__ndk1::__function::__func<geode::listenForSettingChangesV3<bool, geodeExecFunction13<(anonymous namespace)::ExecFuncUnique13>(geode::ModStateEvent*)::{lambda(bool)#1}>(std::__ndk1::basic_string_view<char, std::__ndk1::char_traits<char> >, geodeExecFunction13<(anonymous namespace)::ExecFuncUnique13>(geode::ModStateEvent*)::{lambda(bool)#1}&&, geode::Mod*)::{lambda(std::__ndk1::shared_ptr<geode::SettingV3>)#1}, std::__ndk1::allocator<geode::listenForSettingChangesV3<bool, geodeExecFunction13<(anonymous namespace)::ExecFuncUnique13>(geode::ModStateEvent*)::{lambda(bool)#1}>(std::__ndk1::basic_string_view<char, std::__ndk1::char_traits<char> >, geodeExecFunction13<(anonymous namespace)::ExecFuncUnique13>(geode::ModStateEvent*)::{lambda(bool)#1}&&, geode::Mod*)::{lambda(std::__ndk1::shared_ptr<geode::SettingV3>)#1}>, void (std::__ndk1::shared_ptr<geode::SettingV3>)>::target_type() const
FUNC 5d254 50 0 std::__ndk1::shared_ptr<geode::BoolSettingV3>::~shared_ptr[abi:ne180000]()
FUNC 5d2a4 4 0 geode::EventListener<geode::SettingChangedFilterV3>::getPool() const
FUNC 5d2a8 174 0 geode::EventListener<geode::SettingChangedFilterV3>::handle(geode::Event*)
FUNC 5d41c 8c 0 geode::EventListener<geode::SettingChangedFilterV3>::~EventListener()
FUNC 5d4a8 94 0 geode::EventListener<geode::SettingChangedFilterV3>::~EventListener()
FUNC 5d53c 4 0 std::__ndk1::__function::__func<geode::listenForSettingChangesV3<bool, geodeExecFunction13<(anonymous namespace)::ExecFuncUnique13>(geode::ModStateEvent*)::{lambda(bool)#2}>(std::__ndk1::basic_string_view<char, std::__ndk1::char_traits<char> >, geodeExecFunction13<(anonymous namespace)::ExecFuncUnique13>(geode::ModStateEvent*)::{lambda(bool)#2}&&, geode::Mod*)::{lambda(std::__ndk1::shared_ptr<geode::SettingV3>)#1}, std::__ndk1::allocator<geode::listenForSettingChangesV3<bool, geodeExecFunction13<(anonymous namespace)::ExecFuncUnique13>(geode::ModStateEvent*)::{lambda(bool)#2}>(std::__ndk1::basic_string_view<char, std::__ndk1::char_traits<char> >, geodeExecFunction13<(anonymous namespace)::ExecFuncUnique13>(geode::ModStateEvent*)::{lambda(bool)#2}&&, geode::Mod*)::{lambda(std::__ndk1::shared_ptr<geode::SettingV3>)#1}>, void (std::__ndk1::shared_ptr<geode::SettingV3>)>::~__func()
FUNC 5d540 38 0 std::__ndk1::__function::__func<geode::listenForSettingChangesV3<bool, geodeExecFunction13<(anonymous namespace)::ExecFuncUnique13>(geode::ModStateEvent*)::{lambda(bool)#2}>(std::__ndk1::basic_string_view<char, std::__ndk1::char_traits<char> >, geodeExecFunction13<(anonymous namespace)::ExecFuncUnique13>(geode::ModStateEvent*)::{lambda(bool)#2}&&, geode::Mod*)::{lambda(std::__ndk1::shared_ptr<geode::SettingV3>)#1}, std::__ndk1::allocator<geode::listenForSettingChangesV3<bool, geodeExecFunction13<(anonymous namespace)::ExecFuncUnique13>(geode::ModStateEvent*)::{lambda(bool)#2}>(std::__ndk1::basic_string_view<char, std::__ndk1::char_traits<char> >, geodeExecFunction13<(anonymous namespace)::ExecFuncUnique13>(geode::ModStateEvent*)::{lambda(bool)#2}&&, geode::Mod*)::{lambda(std::__ndk1::shared_ptr<geode::SettingV3>)#1}>, void (std::__ndk1::shared_ptr<geode::SettingV3>)>::__clone() const
FUNC 5d578 18 0 std::__ndk1::__function::__func<geode::listenForSettingChangesV3<bool, geodeExecFunction13<(anonymous namespace)::ExecFuncUnique13>(geode::ModStateEvent*)::{lambda(bool)#2}>(std::__ndk1::basic_string_view<char, std::__ndk1::char_traits<char> >, geodeExecFunction13<(anonymous namespace)::ExecFuncUnique13>(geode::ModStateEvent*)::{lambda(bool)#2}&&, geode::Mod*)::{lambda(std::__ndk1::shared_ptr<geode::SettingV3>)#1}, std::__ndk1::allocator<geode::listenForSettingChangesV3<bool, geodeExecFunction13<(anonymous namespace)::ExecFuncUnique13>(geode::ModStateEvent*)::{lambda(bool)#2}>(std::__ndk1::basic_string_view<char, std::__ndk1::char_traits<char> >, geodeExecFunction13<(anonymous namespace)::ExecFuncUnique13>(geode::ModStateEvent*)::{lambda(bool)#2}&&, geode::Mod*)::{lambda(std::__ndk1::shared_ptr<geode::SettingV3>)#1}>, void (std::__ndk1::shared_ptr<geode::SettingV3>)>::__clone(std::__ndk1::__function::__base<void (std::__ndk1::shared_ptr<geode::SettingV3>)>*) const
FUNC 5d590 4 0 std::__ndk1::__function::__func<geode::listenForSettingChangesV3<bool, geodeExecFunction13<(anonymous namespace)::ExecFuncUnique13>(geode::ModStateEvent*)::{lambda(bool)#2}>(std::__ndk1::basic_string_view<char, std::__ndk1::char_traits<char> >, geodeExecFunction13<(anonymous namespace)::ExecFuncUnique13>(geode::ModStateEvent*)::{lambda(bool)#2}&&, geode::Mod*)::{lambda(std::__ndk1::shared_ptr<geode::SettingV3>)#1}, std::__ndk1::allocator<geode::listenForSettingChangesV3<bool, geodeExecFunction13<(anonymous namespace)::ExecFuncUnique13>(geode::ModStateEvent*)::{lambda(bool)#2}>(std::__ndk1::basic_string_view<char, std::__ndk1::char_traits<char> >, geodeExecFunction13<(anonymous namespace)::ExecFuncUnique13>(geode::ModStateEvent*)::{lambda(bool)#2}&&, geode::Mod*)::{lambda(std::__ndk1::shared_ptr<geode::SettingV3>)#1}>, void (std::__ndk1::shared_ptr<geode::SettingV3>)>::destroy()
FUNC 5d594 4 0 std::__ndk1::__function::__func<geode::listenForSettingChangesV3<bool, geodeExecFunction13<(anonymous namespace)::ExecFuncUnique13>(geode::ModStateEvent*)::{lambda(bool)#2}>(std::__ndk1::basic_string_view<char, std::__ndk1::char_traits<char> >, geodeExecFunction13<(anonymous namespace)::ExecFuncUnique13>(geode::ModStateEvent*)::{lambda(bool)#2}&&, geode::Mod*)::{lambda(std::__ndk1::shared_ptr<geode::SettingV3>)#1}, std::__ndk1::allocator<geode::listenForSettingChangesV3<bool, geodeExecFunction13<(anonymous namespace)::ExecFuncUnique13>(geode::ModStateEvent*)::{lambda(bool)#2}>(std::__ndk1::basic_string_view<char, std::__ndk1::char_traits<char> >, geodeExecFunction13<(anonymous namespace)::ExecFuncUnique13>(geode::ModStateEvent*)::{lambda(bool)#2}&&, geode::Mod*)::{lambda(std::__ndk1::shared_ptr<geode::SettingV3>)#1}>, void (std::__ndk1::shared_ptr<geode::SettingV3>)>::destroy_deallocate()
FUNC 5d598 298 0 std::__ndk1::__function::__func<geode::listenForSettingChangesV3<bool, geodeExecFunction13<(anonymous namespace)::ExecFuncUnique13>(geode::ModStateEvent*)::{lambda(bool)#2}>(std::__ndk1::basic_string_view<char, std::__ndk1::char_traits<char> >, geodeExecFunction13<(anonymous namespace)::ExecFuncUnique13>(geode::ModStateEvent*)::{lambda(bool)#2}&&, geode::Mod*)::{lambda(std::__ndk1::shared_ptr<geode::SettingV3>)#1}, std::__ndk1::allocator<geode::listenForSettingChangesV3<bool, geodeExecFunction13<(anonymous namespace)::ExecFuncUnique13>(geode::ModStateEvent*)::{lambda(bool)#2}>(std::__ndk1::basic_string_view<char, std::__ndk1::char_traits<char> >, geodeExecFunction13<(anonymous namespace)::ExecFuncUnique13>(geode::ModStateEvent*)::{lambda(bool)#2}&&, geode::Mod*)::{lambda(std::__ndk1::shared_ptr<geode::SettingV3>)#1}>, void (std::__ndk1::shared_ptr<geode::SettingV3>)>::operator()(std::__ndk1::shared_ptr<geode::SettingV3>&&)
FUNC 5d830 1c 0 std::__ndk1::__function::__func<geode::listenForSettingChangesV3<bool, geodeExecFunction13<(anonymous namespace)::ExecFuncUnique13>(geode::ModStateEvent*)::{lambda(bool)#2}>(std::__ndk1::basic_string_view<char, std::__ndk1::char_traits<char> >, geodeExecFunction13<(anonymous namespace)::ExecFuncUnique13>(geode::ModStateEvent*)::{lambda(bool)#2}&&, geode::Mod*)::{lambda(std::__ndk1::shared_ptr<geode::SettingV3>)#1}, std::__ndk1::allocator<geode::listenForSettingChangesV3<bool, geodeExecFunction13<(anonymous namespace)::ExecFuncUnique13>(geode::ModStateEvent*)::{lambda(bool)#2}>(std::__ndk1::basic_string_view<char, std::__ndk1::char_traits<char> >, geodeExecFunction13<(anonymous namespace)::ExecFuncUnique13>(geode::ModStateEvent*)::{lambda(bool)#2}&&, geode::Mod*)::{lambda(std::__ndk1::shared_ptr<geode::SettingV3>)#1}>, void (std::__ndk1::shared_ptr<geode::SettingV3>)>::target(std::type_info const&) const
FUNC 5d84c c 0 std::__ndk1::__function::__func<geode::listenForSettingChangesV3<bool, geodeExecFunction13<(anonymous namespace)::ExecFuncUnique13>(geode::ModStateEvent*)::{lambda(bool)#2}>(std::__ndk1::basic_string_view<char, std::__ndk1::char_traits<char> >, geodeExecFunction13<(anonymous namespace)::ExecFuncUnique13>(geode::ModStateEvent*)::{lambda(bool)#2}&&, geode::Mod*)::{lambda(std::__ndk1::shared_ptr<geode::SettingV3>)#1}, std::__ndk1::allocator<geode::listenForSettingChangesV3<bool, geodeExecFunction13<(anonymous namespace)::ExecFuncUnique13>(geode::ModStateEvent*)::{lambda(bool)#2}>(std::__ndk1::basic_string_view<char, std::__ndk1::char_traits<char> >, geodeExecFunction13<(anonymous namespace)::ExecFuncUnique13>(geode::ModStateEvent*)::{lambda(bool)#2}&&, geode::Mod*)::{lambda(std::__ndk1::shared_ptr<geode::SettingV3>)#1}>, void (std::__ndk1::shared_ptr<geode::SettingV3>)>::target_type() const
FUNC 5d858 4 0 std::__ndk1::__function::__func<geode::listenForSettingChangesV3<std::__ndk1::__fs::filesystem::path, geodeExecFunction13<(anonymous namespace)::ExecFuncUnique13>(geode::ModStateEvent*)::{lambda(std::__ndk1::__fs::filesystem::path)#1}>(std::__ndk1::basic_string_view<char, std::__ndk1::char_traits<char> >, geodeExecFunction13<(anonymous namespace)::ExecFuncUnique13>(geode::ModStateEvent*)::{lambda(std::__ndk1::__fs::filesystem::path&&)#1}, geode::Mod*)::{lambda(std::__ndk1::shared_ptr<geode::SettingV3>)#1}, std::__ndk1::allocator<geode::listenForSettingChangesV3<std::__ndk1::__fs::filesystem::path, geodeExecFunction13<(anonymous namespace)::ExecFuncUnique13>(geode::ModStateEvent*)::{lambda(std::__ndk1::__fs::filesystem::path)#1}>(std::__ndk1::basic_string_view<char, std::__ndk1::char_traits<char> >, geodeExecFunction13<(anonymous namespace)::ExecFuncUnique13>(geode::ModStateEvent*)::{lambda(std::__ndk1::__fs::filesystem::path&&)#1}, geode::Mod*)::{lambda(std::__ndk1::shared_ptr<geode::SettingV3>)#1}>, void (std::__ndk1::shared_ptr<geode::SettingV3>)>::~__func()
FUNC 5d85c 38 0 std::__ndk1::__function::__func<geode::listenForSettingChangesV3<std::__ndk1::__fs::filesystem::path, geodeExecFunction13<(anonymous namespace)::ExecFuncUnique13>(geode::ModStateEvent*)::{lambda(std::__ndk1::__fs::filesystem::path)#1}>(std::__ndk1::basic_string_view<char, std::__ndk1::char_traits<char> >, geodeExecFunction13<(anonymous namespace)::ExecFuncUnique13>(geode::ModStateEvent*)::{lambda(std::__ndk1::__fs::filesystem::path&&)#1}, geode::Mod*)::{lambda(std::__ndk1::shared_ptr<geode::SettingV3>)#1}, std::__ndk1::allocator<geode::listenForSettingChangesV3<std::__ndk1::__fs::filesystem::path, geodeExecFunction13<(anonymous namespace)::ExecFuncUnique13>(geode::ModStateEvent*)::{lambda(std::__ndk1::__fs::filesystem::path)#1}>(std::__ndk1::basic_string_view<char, std::__ndk1::char_traits<char> >, geodeExecFunction13<(anonymous namespace)::ExecFuncUnique13>(geode::ModStateEvent*)::{lambda(std::__ndk1::__fs::filesystem::path&&)#1}, geode::Mod*)::{lambda(std::__ndk1::shared_ptr<geode::SettingV3>)#1}>, void (std::__ndk1::shared_ptr<geode::SettingV3>)>::__clone() const
FUNC 5d894 18 0 std::__ndk1::__function::__func<geode::listenForSettingChangesV3<std::__ndk1::__fs::filesystem::path, geodeExecFunction13<(anonymous namespace)::ExecFuncUnique13>(geode::ModStateEvent*)::{lambda(std::__ndk1::__fs::filesystem::path)#1}>(std::__ndk1::basic_string_view<char, std::__ndk1::char_traits<char> >, geodeExecFunction13<(anonymous namespace)::ExecFuncUnique13>(geode::ModStateEvent*)::{lambda(std::__ndk1::__fs::filesystem::path&&)#1}, geode::Mod*)::{lambda(std::__ndk1::shared_ptr<geode::SettingV3>)#1}, std::__ndk1::allocator<geode::listenForSettingChangesV3<std::__ndk1::__fs::filesystem::path, geodeExecFunction13<(anonymous namespace)::ExecFuncUnique13>(geode::ModStateEvent*)::{lambda(std::__ndk1::__fs::filesystem::path)#1}>(std::__ndk1::basic_string_view<char, std::__ndk1::char_traits<char> >, geodeExecFunction13<(anonymous namespace)::ExecFuncUnique13>(geode::ModStateEvent*)::{lambda(std::__ndk1::__fs::filesystem::path&&)#1}, geode::Mod*)::{lambda(std::__ndk1::shared_ptr<geode::SettingV3>)#1}>, void (std::__ndk1::shared_ptr<geode::SettingV3>)>::__clone(std::__ndk1::__function::__base<void (std::__ndk1::shared_ptr<geode::SettingV3>)>*) const
FUNC 5d8ac 4 0 std::__ndk1::__function::__func<geode::listenForSettingChangesV3<std::__ndk1::__fs::filesystem::path, geodeExecFunction13<(anonymous namespace)::ExecFuncUnique13>(geode::ModStateEvent*)::{lambda(std::__ndk1::__fs::filesystem::path)#1}>(std::__ndk1::basic_string_view<char, std::__ndk1::char_traits<char> >, geodeExecFunction13<(anonymous namespace)::ExecFuncUnique13>(geode::ModStateEvent*)::{lambda(std::__ndk1::__fs::filesystem::path&&)#1}, geode::Mod*)::{lambda(std::__ndk1::shared_ptr<geode::SettingV3>)#1}, std::__ndk1::allocator<geode::listenForSettingChangesV3<std::__ndk1::__fs::filesystem::path, geodeExecFunction13<(anonymous namespace)::ExecFuncUnique13>(geode::ModStateEvent*)::{lambda(std::__ndk1::__fs::filesystem::path)#1}>(std::__ndk1::basic_string_view<char, std::__ndk1::char_traits<char> >, geodeExecFunction13<(anonymous namespace)::ExecFuncUnique13>(geode::ModStateEvent*)::{lambda(std::__ndk1::__fs::filesystem::path&&)#1}, geode::Mod*)::{lambda(std::__ndk1::shared_ptr<geode::SettingV3>)#1}>, void (std::__ndk1::shared_ptr<geode::SettingV3>)>::destroy()
FUNC 5d8b0 4 0 std::__ndk1::__function::__func<geode::listenForSettingChangesV3<std::__ndk1::__fs::filesystem::path, geodeExecFunction13<(anonymous namespace)::ExecFuncUnique13>(geode::ModStateEvent*)::{lambda(std::__ndk1::__fs::filesystem::path)#1}>(std::__ndk1::basic_string_view<char, std::__ndk1::char_traits<char> >, geodeExecFunction13<(anonymous namespace)::ExecFuncUnique13>(geode::ModStateEvent*)::{lambda(std::__ndk1::__fs::filesystem::path&&)#1}, geode::Mod*)::{lambda(std::__ndk1::shared_ptr<geode::SettingV3>)#1}, std::__ndk1::allocator<geode::listenForSettingChangesV3<std::__ndk1::__fs::filesystem::path, geodeExecFunction13<(anonymous namespace)::ExecFuncUnique13>(geode::ModStateEvent*)::{lambda(std::__ndk1::__fs::filesystem::path)#1}>(std::__ndk1::basic_string_view<char, std::__ndk1::char_traits<char> >, geodeExecFunction13<(anonymous namespace)::ExecFuncUnique13>(geode::ModStateEvent*)::{lambda(std::__ndk1::__fs::filesystem::path&&)#1}, geode::Mod*)::{lambda(std::__ndk1::shared_ptr<geode::SettingV3>)#1}>, void (std::__ndk1::shared_ptr<geode::SettingV3>)>::destroy_deallocate()
FUNC 5d8b4 650 0 std::__ndk1::__function::__func<geode::listenForSettingChangesV3<std::__ndk1::__fs::filesystem::path, geodeExecFunction13<(anonymous namespace)::ExecFuncUnique13>(geode::ModStateEvent*)::{lambda(std::__ndk1::__fs::filesystem::path)#1}>(std::__ndk1::basic_string_view<char, std::__ndk1::char_traits<char> >, geodeExecFunction13<(anonymous namespace)::ExecFuncUnique13>(geode::ModStateEvent*)::{lambda(std::__ndk1::__fs::filesystem::path&&)#1}, geode::Mod*)::{lambda(std::__ndk1::shared_ptr<geode::SettingV3>)#1}, std::__ndk1::allocator<geode::listenForSettingChangesV3<std::__ndk1::__fs::filesystem::path, geodeExecFunction13<(anonymous namespace)::ExecFuncUnique13>(geode::ModStateEvent*)::{lambda(std::__ndk1::__fs::filesystem::path)#1}>(std::__ndk1::basic_string_view<char, std::__ndk1::char_traits<char> >, geodeExecFunction13<(anonymous namespace)::ExecFuncUnique13>(geode::ModStateEvent*)::{lambda(std::__ndk1::__fs::filesystem::path&&)#1}, geode::Mod*)::{lambda(std::__ndk1::shared_ptr<geode::SettingV3>)#1}>, void (std::__ndk1::shared_ptr<geode::SettingV3>)>::operator()(std::__ndk1::shared_ptr<geode::SettingV3>&&)
FUNC 5df04 1c 0 std::__ndk1::__function::__func<geode::listenForSettingChangesV3<std::__ndk1::__fs::filesystem::path, geodeExecFunction13<(anonymous namespace)::ExecFuncUnique13>(geode::ModStateEvent*)::{lambda(std::__ndk1::__fs::filesystem::path)#1}>(std::__ndk1::basic_string_view<char, std::__ndk1::char_traits<char> >, geodeExecFunction13<(anonymous namespace)::ExecFuncUnique13>(geode::ModStateEvent*)::{lambda(std::__ndk1::__fs::filesystem::path&&)#1}, geode::Mod*)::{lambda(std::__ndk1::shared_ptr<geode::SettingV3>)#1}, std::__ndk1::allocator<geode::listenForSettingChangesV3<std::__ndk1::__fs::filesystem::path, geodeExecFunction13<(anonymous namespace)::ExecFuncUnique13>(geode::ModStateEvent*)::{lambda(std::__ndk1::__fs::filesystem::path)#1}>(std::__ndk1::basic_string_view<char, std::__ndk1::char_traits<char> >, geodeExecFunction13<(anonymous namespace)::ExecFuncUnique13>(geode::ModStateEvent*)::{lambda(std::__ndk1::__fs::filesystem::path&&)#1}, geode::Mod*)::{lambda(std::__ndk1::shared_ptr<geode::SettingV3>)#1}>, void (std::__ndk1::shared_ptr<geode::SettingV3>)>::target(std::type_info const&) const
FUNC 5df20 c 0 std::__ndk1::__function::__func<geode::listenForSettingChangesV3<std::__ndk1::__fs::filesystem::path, geodeExecFunction13<(anonymous namespace)::ExecFuncUnique13>(geode::ModStateEvent*)::{lambda(std::__ndk1::__fs::filesystem::path)#1}>(std::__ndk1::basic_string_view<char, std::__ndk1::char_traits<char> >, geodeExecFunction13<(anonymous namespace)::ExecFuncUnique13>(geode::ModStateEvent*)::{lambda(std::__ndk1::__fs::filesystem::path&&)#1}, geode::Mod*)::{lambda(std::__ndk1::shared_ptr<geode::SettingV3>)#1}, std::__ndk1::allocator<geode::listenForSettingChangesV3<std::__ndk1::__fs::filesystem::path, geodeExecFunction13<(anonymous namespace)::ExecFuncUnique13>(geode::ModStateEvent*)::{lambda(std::__ndk1::__fs::filesystem::path)#1}>(std::__ndk1::basic_string_view<char, std::__ndk1::char_traits<char> >, geodeExecFunction13<(anonymous namespace)::ExecFuncUnique13>(geode::ModStateEvent*)::{lambda(std::__ndk1::__fs::filesystem::path&&)#1}, geode::Mod*)::{lambda(std::__ndk1::shared_ptr<geode::SettingV3>)#1}>, void (std::__ndk1::shared_ptr<geode::SettingV3>)>::target_type() const
FUNC 5df2c 4 0 std::__ndk1::__function::__base<void (std::__ndk1::shared_ptr<geode::SettingV3>)>::~__base()
FUNC 5df30 4 0 std::__ndk1::__function::__func<geode::listenForSettingChangesV3<bool, geodeExecFunction13<(anonymous namespace)::ExecFuncUnique13>(geode::ModStateEvent*)::{lambda(bool)#3}>(std::__ndk1::basic_string_view<char, std::__ndk1::char_traits<char> >, geodeExecFunction13<(anonymous namespace)::ExecFuncUnique13>(geode::ModStateEvent*)::{lambda(bool)#3}&&, geode::Mod*)::{lambda(std::__ndk1::shared_ptr<geode::SettingV3>)#1}, std::__ndk1::allocator<geode::listenForSettingChangesV3<bool, geodeExecFunction13<(anonymous namespace)::ExecFuncUnique13>(geode::ModStateEvent*)::{lambda(bool)#3}>(std::__ndk1::basic_string_view<char, std::__ndk1::char_traits<char> >, geodeExecFunction13<(anonymous namespace)::ExecFuncUnique13>(geode::ModStateEvent*)::{lambda(bool)#3}&&, geode::Mod*)::{lambda(std::__ndk1::shared_ptr<geode::SettingV3>)#1}>, void (std::__ndk1::shared_ptr<geode::SettingV3>)>::~__func()
FUNC 5df34 38 0 std::__ndk1::__function::__func<geode::listenForSettingChangesV3<bool, geodeExecFunction13<(anonymous namespace)::ExecFuncUnique13>(geode::ModStateEvent*)::{lambda(bool)#3}>(std::__ndk1::basic_string_view<char, std::__ndk1::char_traits<char> >, geodeExecFunction13<(anonymous namespace)::ExecFuncUnique13>(geode::ModStateEvent*)::{lambda(bool)#3}&&, geode::Mod*)::{lambda(std::__ndk1::shared_ptr<geode::SettingV3>)#1}, std::__ndk1::allocator<geode::listenForSettingChangesV3<bool, geodeExecFunction13<(anonymous namespace)::ExecFuncUnique13>(geode::ModStateEvent*)::{lambda(bool)#3}>(std::__ndk1::basic_string_view<char, std::__ndk1::char_traits<char> >, geodeExecFunction13<(anonymous namespace)::ExecFuncUnique13>(geode::ModStateEvent*)::{lambda(bool)#3}&&, geode::Mod*)::{lambda(std::__ndk1::shared_ptr<geode::SettingV3>)#1}>, void (std::__ndk1::shared_ptr<geode::SettingV3>)>::__clone() const
FUNC 5df6c 18 0 std::__ndk1::__function::__func<geode::listenForSettingChangesV3<bool, geodeExecFunction13<(anonymous namespace)::ExecFuncUnique13>(geode::ModStateEvent*)::{lambda(bool)#3}>(std::__ndk1::basic_string_view<char, std::__ndk1::char_traits<char> >, geodeExecFunction13<(anonymous namespace)::ExecFuncUnique13>(geode::ModStateEvent*)::{lambda(bool)#3}&&, geode::Mod*)::{lambda(std::__ndk1::shared_ptr<geode::SettingV3>)#1}, std::__ndk1::allocator<geode::listenForSettingChangesV3<bool, geodeExecFunction13<(anonymous namespace)::ExecFuncUnique13>(geode::ModStateEvent*)::{lambda(bool)#3}>(std::__ndk1::basic_string_view<char, std::__ndk1::char_traits<char> >, geodeExecFunction13<(anonymous namespace)::ExecFuncUnique13>(geode::ModStateEvent*)::{lambda(bool)#3}&&, geode::Mod*)::{lambda(std::__ndk1::shared_ptr<geode::SettingV3>)#1}>, void (std::__ndk1::shared_ptr<geode::SettingV3>)>::__clone(std::__ndk1::__function::__base<void (std::__ndk1::shared_ptr<geode::SettingV3>)>*) const
FUNC 5df84 4 0 std::__ndk1::__function::__func<geode::listenForSettingChangesV3<bool, geodeExecFunction13<(anonymous namespace)::ExecFuncUnique13>(geode::ModStateEvent*)::{lambda(bool)#3}>(std::__ndk1::basic_string_view<char, std::__ndk1::char_traits<char> >, geodeExecFunction13<(anonymous namespace)::ExecFuncUnique13>(geode::ModStateEvent*)::{lambda(bool)#3}&&, geode::Mod*)::{lambda(std::__ndk1::shared_ptr<geode::SettingV3>)#1}, std::__ndk1::allocator<geode::listenForSettingChangesV3<bool, geodeExecFunction13<(anonymous namespace)::ExecFuncUnique13>(geode::ModStateEvent*)::{lambda(bool)#3}>(std::__ndk1::basic_string_view<char, std::__ndk1::char_traits<char> >, geodeExecFunction13<(anonymous namespace)::ExecFuncUnique13>(geode::ModStateEvent*)::{lambda(bool)#3}&&, geode::Mod*)::{lambda(std::__ndk1::shared_ptr<geode::SettingV3>)#1}>, void (std::__ndk1::shared_ptr<geode::SettingV3>)>::destroy()
FUNC 5df88 4 0 std::__ndk1::__function::__func<geode::listenForSettingChangesV3<bool, geodeExecFunction13<(anonymous namespace)::ExecFuncUnique13>(geode::ModStateEvent*)::{lambda(bool)#3}>(std::__ndk1::basic_string_view<char, std::__ndk1::char_traits<char> >, geodeExecFunction13<(anonymous namespace)::ExecFuncUnique13>(geode::ModStateEvent*)::{lambda(bool)#3}&&, geode::Mod*)::{lambda(std::__ndk1::shared_ptr<geode::SettingV3>)#1}, std::__ndk1::allocator<geode::listenForSettingChangesV3<bool, geodeExecFunction13<(anonymous namespace)::ExecFuncUnique13>(geode::ModStateEvent*)::{lambda(bool)#3}>(std::__ndk1::basic_string_view<char, std::__ndk1::char_traits<char> >, geodeExecFunction13<(anonymous namespace)::ExecFuncUnique13>(geode::ModStateEvent*)::{lambda(bool)#3}&&, geode::Mod*)::{lambda(std::__ndk1::shared_ptr<geode::SettingV3>)#1}>, void (std::__ndk1::shared_ptr<geode::SettingV3>)>::destroy_deallocate()
FUNC 5df8c 280 0 std::__ndk1::__function::__func<geode::listenForSettingChangesV3<bool, geodeExecFunction13<(anonymous namespace)::ExecFuncUnique13>(geode::ModStateEvent*)::{lambda(bool)#3}>(std::__ndk1::basic_string_view<char, std::__ndk1::char_traits<char> >, geodeExecFunction13<(anonymous namespace)::ExecFuncUnique13>(geode::ModStateEvent*)::{lambda(bool)#3}&&, geode::Mod*)::{lambda(std::__ndk1::shared_ptr<geode::SettingV3>)#1}, std::__ndk1::allocator<geode::listenForSettingChangesV3<bool, geodeExecFunction13<(anonymous namespace)::ExecFuncUnique13>(geode::ModStateEvent*)::{lambda(bool)#3}>(std::__ndk1::basic_string_view<char, std::__ndk1::char_traits<char> >, geodeExecFunction13<(anonymous namespace)::ExecFuncUnique13>(geode::ModStateEvent*)::{lambda(bool)#3}&&, geode::Mod*)::{lambda(std::__ndk1::shared_ptr<geode::SettingV3>)#1}>, void (std::__ndk1::shared_ptr<geode::SettingV3>)>::operator()(std::__ndk1::shared_ptr<geode::SettingV3>&&)
FUNC 5e20c 1c 0 std::__ndk1::__function::__func<geode::listenForSettingChangesV3<bool, geodeExecFunction13<(anonymous namespace)::ExecFuncUnique13>(geode::ModStateEvent*)::{lambda(bool)#3}>(std::__ndk1::basic_string_view<char, std::__ndk1::char_traits<char> >, geodeExecFunction13<(anonymous namespace)::ExecFuncUnique13>(geode::ModStateEvent*)::{lambda(bool)#3}&&, geode::Mod*)::{lambda(std::__ndk1::shared_ptr<geode::SettingV3>)#1}, std::__ndk1::allocator<geode::listenForSettingChangesV3<bool, geodeExecFunction13<(anonymous namespace)::ExecFuncUnique13>(geode::ModStateEvent*)::{lambda(bool)#3}>(std::__ndk1::basic_string_view<char, std::__ndk1::char_traits<char> >, geodeExecFunction13<(anonymous namespace)::ExecFuncUnique13>(geode::ModStateEvent*)::{lambda(bool)#3}&&, geode::Mod*)::{lambda(std::__ndk1::shared_ptr<geode::SettingV3>)#1}>, void (std::__ndk1::shared_ptr<geode::SettingV3>)>::target(std::type_info const&) const
FUNC 5e228 c 0 std::__ndk1::__function::__func<geode::listenForSettingChangesV3<bool, geodeExecFunction13<(anonymous namespace)::ExecFuncUnique13>(geode::ModStateEvent*)::{lambda(bool)#3}>(std::__ndk1::basic_string_view<char, std::__ndk1::char_traits<char> >, geodeExecFunction13<(anonymous namespace)::ExecFuncUnique13>(geode::ModStateEvent*)::{lambda(bool)#3}&&, geode::Mod*)::{lambda(std::__ndk1::shared_ptr<geode::SettingV3>)#1}, std::__ndk1::allocator<geode::listenForSettingChangesV3<bool, geodeExecFunction13<(anonymous namespace)::ExecFuncUnique13>(geode::ModStateEvent*)::{lambda(bool)#3}>(std::__ndk1::basic_string_view<char, std::__ndk1::char_traits<char> >, geodeExecFunction13<(anonymous namespace)::ExecFuncUnique13>(geode::ModStateEvent*)::{lambda(bool)#3}&&, geode::Mod*)::{lambda(std::__ndk1::shared_ptr<geode::SettingV3>)#1}>, void (std::__ndk1::shared_ptr<geode::SettingV3>)>::target_type() const
FUNC 5e234 4 0 geode::EventListener<geode::ModStateFilter>::getPool() const
FUNC 5e238 174 0 geode::EventListener<geode::ModStateFilter>::handle(geode::Event*)
FUNC 5e3ac 5c 0 geode::EventListener<geode::ModStateFilter>::~EventListener()
FUNC 5e408 64 0 geode::EventListener<geode::ModStateFilter>::~EventListener()
FUNC 5e46c 4 0 std::__ndk1::__function::__base<void (geode::ModStateEvent*)>::~__base()
FUNC 5e470 4 0 std::__ndk1::__function::__func<void (*)(geode::ModStateEvent*), std::__ndk1::allocator<void (*)(geode::ModStateEvent*)>, void (geode::ModStateEvent*)>::~__func()
FUNC 5e474 34 0 std::__ndk1::__function::__func<void (*)(geode::ModStateEvent*), std::__ndk1::allocator<void (*)(geode::ModStateEvent*)>, void (geode::ModStateEvent*)>::__clone() const
FUNC 5e4a8 14 0 std::__ndk1::__function::__func<void (*)(geode::ModStateEvent*), std::__ndk1::allocator<void (*)(geode::ModStateEvent*)>, void (geode::ModStateEvent*)>::__clone(std::__ndk1::__function::__base<void (geode::ModStateEvent*)>*) const
FUNC 5e4bc 4 0 std::__ndk1::__function::__func<void (*)(geode::ModStateEvent*), std::__ndk1::allocator<void (*)(geode::ModStateEvent*)>, void (geode::ModStateEvent*)>::destroy()
FUNC 5e4c0 4 0 std::__ndk1::__function::__func<void (*)(geode::ModStateEvent*), std::__ndk1::allocator<void (*)(geode::ModStateEvent*)>, void (geode::ModStateEvent*)>::destroy_deallocate()
FUNC 5e4c4 10 0 std::__ndk1::__function::__func<void (*)(geode::ModStateEvent*), std::__ndk1::allocator<void (*)(geode::ModStateEvent*)>, void (geode::ModStateEvent*)>::operator()(geode::ModStateEvent*&&)
FUNC 5e4d4 1c 0 std::__ndk1::__function::__func<void (*)(geode::ModStateEvent*), std::__ndk1::allocator<void (*)(geode::ModStateEvent*)>, void (geode::ModStateEvent*)>::target(std::type_info const&) const
FUNC 5e4f0 c 0 std::__ndk1::__function::__func<void (*)(geode::ModStateEvent*), std::__ndk1::allocator<void (*)(geode::ModStateEvent*)>, void (geode::ModStateEvent*)>::target_type() const
FUNC 5e4fc 1f0 0 _GLOBAL__sub_I_main.cpp
FUNC 5e6ec 150 0 PlayingCard::create(std::__ndk1::basic_string<char, std::__ndk1::char_traits<char>, std::__ndk1::allocator<char> >)
FUNC 5e83c 664 0 PlayingCard::init(std::__ndk1::basic_string<char, std::__ndk1::char_traits<char>, std::__ndk1::allocator<char> >)
FUNC 5eea0 24 0 PlayingCard::~PlayingCard()
FUNC 5eec4 84 0 _GLOBAL__sub_I_PlayingCard.cpp
FUNC 5ef48 30 0 geode::getMod()
FUNC 5ef78 30 0 geodeImplicitEntry
FUNC 5efa8 4c 0 std::__ndk1::unordered_map<void*, bool, std::__ndk1::hash<void*>, std::__ndk1::equal_to<void*>, std::__ndk1::allocator<std::__ndk1::pair<void* const, bool> > >::~unordered_map[abi:ne180000]()
FUNC 5eff4 134 0 wrapFunction(unsigned long, tulip::hook::WrapperMetadata const&)
FUNC 5f128 78 0 geode::impl::ResultData<void*, std::__ndk1::basic_string<char, std::__ndk1::char_traits<char>, std::__ndk1::allocator<char> > >::unwrapErr() &
FUNC 5f1a0 74 0 geode::impl::ResultData<void*, std::__ndk1::basic_string<char, std::__ndk1::char_traits<char>, std::__ndk1::allocator<char> > >::~ResultData()
FUNC 5f214 64 0 tulip::hook::WrapperMetadata::~WrapperMetadata()
FUNC 5f278 24 0 cocos2d::CCObject::~CCObject()
FUNC 5f29c 25c 0 cocos2d::CCNode::CCNode()
FUNC 5f4f8 24 0 cocos2d::CCNode::~CCNode()
FUNC 5f51c 8 0 {virtual override thunk({offset(-320)}, cocos2d::CCLayer::~CCLayer())}
FUNC 5f524 24 0 cocos2d::CCLayer::~CCLayer()
FUNC 5f548 28 0 {virtual override thunk({offset(-320)}, cocos2d::CCLayer::~CCLayer())}
FUNC 5f570 308 0 cocos2d::CCLayerRGBA::~CCLayerRGBA()
FUNC 5f878 8 0 {virtual override thunk({offset(-320)}, cocos2d::CCLayerRGBA::~CCLayerRGBA())}
FUNC 5f880 24 0 cocos2d::CCLayerRGBA::~CCLayerRGBA()
FUNC 5f8a4 28 0 {virtual override thunk({offset(-320)}, cocos2d::CCLayerRGBA::~CCLayerRGBA())}
FUNC 5f8cc 26c 0 cocos2d::CCLayerColor::CCLayerColor()
FUNC 5fb38 8 0 {virtual override thunk({offset(-320)}, cocos2d::CCLayerColor::~CCLayerColor())}
FUNC 5fb40 24 0 cocos2d::CCLayerColor::~CCLayerColor()
FUNC 5fb64 28 0 {virtual override thunk({offset(-320)}, cocos2d::CCLayerColor::~CCLayerColor())}
FUNC 5fb8c 8 0 {virtual override thunk({offset(-320)}, FLAlertLayer::~FLAlertLayer())}
FUNC 5fb94 24 0 FLAlertLayer::~FLAlertLayer()
FUNC 5fbb8 28 0 {virtual override thunk({offset(-320)}, FLAlertLayer::~FLAlertLayer())}
FUNC 5fbe0 1b8 0 FLAlertLayer::create(FLAlertLayerProtocol*, char const*, gd::string, char const*, char const*, float)
FUNC 5fd98 460 0 tulip::hook::AbstractFunction::from<FLAlertLayer*, FLAlertLayerProtocol*, char const*, gd::string, char const*, char const*, float>(FLAlertLayer* (*)(FLAlertLayerProtocol*, char const*, gd::string, char const*, char const*, float))
FUNC 601f8 ac 0 FLAlertLayer::create(char const*, gd::string const&, char const*)
FUNC 602a4 1e8 0 FLAlertLayer::init(FLAlertLayerProtocol*, char const*, gd::string, char const*, char const*, float, bool, float, float)
FUNC 6048c 7f0 0 tulip::hook::AbstractFunction::from<bool, FLAlertLayer*, FLAlertLayerProtocol*, char const*, gd::string, char const*, char const*, float, bool, float, float>(bool (*)(FLAlertLayer*, FLAlertLayerProtocol*, char const*, gd::string, char const*, char const*, float, bool, float, float))
FUNC 60c7c 1a0 0 FMODAudioEngine::playMusic(gd::string, bool, float, int)
FUNC 60e1c 38c 0 tulip::hook::AbstractFunction::from<void, FMODAudioEngine*, gd::string, bool, float, int>(void (*)(FMODAudioEngine*, gd::string, bool, float, int))
FUNC 611a8 530 0 GameManager::~GameManager()
FUNC 616d8 24 0 GameManager::~GameManager()
FUNC 616fc f28 0 GJBaseGameLayer::~GJBaseGameLayer()
FUNC 62624 8 0 {virtual override thunk({offset(-320)}, GJBaseGameLayer::~GJBaseGameLayer())}
FUNC 6262c 24 0 GJBaseGameLayer::~GJBaseGameLayer()
FUNC 62650 28 0 {virtual override thunk({offset(-320)}, GJBaseGameLayer::~GJBaseGameLayer())}
FUNC 62678 17c 0 GJBaseGameLayer::toggleGroupTriggered(int, bool, gd::vector<int> const&, int, int)
FUNC 627f4 460 0 tulip::hook::AbstractFunction::from<void, GJBaseGameLayer*, int, bool, gd::vector<int> const&, int, int>(void (*)(GJBaseGameLayer*, int, bool, gd::vector<int> const&, int, int))
FUNC 62c54 8 0 {virtual override thunk({offset(-408)}, GJBaseGameLayer::toggleGroupTriggered(int, bool, gd::vector<int> const&, int, int))}
FUNC 62c5c 18c 0 GJBaseGameLayer::spawnGroup(int, bool, double, gd::vector<int> const&, int, int)
FUNC 62de8 544 0 tulip::hook::AbstractFunction::from<void, GJBaseGameLayer*, int, bool, double, gd::vector<int> const&, int, int>(void (*)(GJBaseGameLayer*, int, bool, double, gd::vector<int> const&, int, int))
FUNC 6332c 8 0 {virtual override thunk({offset(-408)}, GJBaseGameLayer::spawnGroup(int, bool, double, gd::vector<int> const&, int, int))}
FUNC 63334 16c 0 GJBaseGameLayer::spawnObject(GameObject*, double, gd::vector<int> const&)
FUNC 634a0 2a4 0 tulip::hook::AbstractFunction::from<void, GJBaseGameLayer*, GameObject*, double, gd::vector<int> const&>(void (*)(GJBaseGameLayer*, GameObject*, double, gd::vector<int> const&))
FUNC 63744 8 0 {virtual override thunk({offset(-408)}, GJBaseGameLayer::spawnObject(GameObject*, double, gd::vector<int> const&))}
FUNC 6374c 15c 0 GJBaseGameLayer::activatePlatformerEndTrigger(EndTriggerGameObject*, gd::vector<int> const&)
FUNC 638a8 f8 0 tulip::hook::AbstractFunction::from<void, GJBaseGameLayer*, EndTriggerGameObject*, gd::vector<int> const&>(void (*)(GJBaseGameLayer*, EndTriggerGameObject*, gd::vector<int> const&))
FUNC 639a0 4 0 GJBaseGameLayer::toggleGlitter(bool)
FUNC 639a4 8 0 GJBaseGameLayer::timeForPos(cocos2d::CCPoint, int, int, bool, int)
FUNC 639ac 8 0 GJBaseGameLayer::posForTime(float)
FUNC 639b4 4 0 GJBaseGameLayer::resetSPTriggered()
FUNC 639b8 174 0 GJBaseGameLayer::createCustomParticle(gd::string const&, cocos2d::ParticleStruct const&, int, bool)
FUNC 63b2c 38c 0 tulip::hook::AbstractFunction::from<TodoReturnPlaceholder, GJBaseGameLayer*, gd::string const&, cocos2d::ParticleStruct const&, int, bool>(TodoReturnPlaceholder (*)(GJBaseGameLayer*, gd::string const&, cocos2d::ParticleStruct const&, int, bool))
FUNC 63eb8 18c 0 GJBaseGameLayer::claimCustomParticle(gd::string const&, cocos2d::ParticleStruct const&, int, int, int, bool)
FUNC 64044 554 0 tulip::hook::AbstractFunction::from<TodoReturnPlaceholder, GJBaseGameLayer*, gd::string const&, cocos2d::ParticleStruct const&, int, int, int, bool>(TodoReturnPlaceholder (*)(GJBaseGameLayer*, gd::string const&, cocos2d::ParticleStruct const&, int, int, int, bool))
FUNC 64598 15c 0 GJBaseGameLayer::unclaimCustomParticle(gd::string const&, cocos2d::CCParticleSystemQuad*)
FUNC 646f4 f8 0 tulip::hook::AbstractFunction::from<TodoReturnPlaceholder, GJBaseGameLayer*, gd::string const&, cocos2d::CCParticleSystemQuad*>(TodoReturnPlaceholder (*)(GJBaseGameLayer*, gd::string const&, cocos2d::CCParticleSystemQuad*))
FUNC 647ec 4 0 cocos2d::CCObject::update(float)
FUNC 647f0 2ec 0 cocos2d::CCLayerColor::~CCLayerColor()
FUNC 64adc 2ec 0 FLAlertLayer::~FLAlertLayer()
FUNC 64dc8 2a8 0 cocos2d::CCNode::~CCNode()
FUNC 65070 2f8 0 cocos2d::CCLayer::~CCLayer()
FUNC 65368 4c4 0 cocos2d::CCObject::~CCObject()
FUNC 6582c 154 0 _ZN5geode15UnwrapExceptionC2IRPvQsr4implE18IsStringStreamableIT_EEENS_4impl5OkTagEOS4_
FUNC 65980 4 0 std::__ndk1::__variant_detail::__visitation::__base::__dispatcher<(unsigned long)0>::__dispatch[abi:ne180000]<std::__ndk1::__variant_detail::__dtor<std::__ndk1::__variant_detail::__traits<void*, std::__ndk1::basic_string<char, std::__ndk1::char_traits<char>, std::__ndk1::allocator<char> > >, (std::__ndk1::__variant_detail::_Trait)1>::__destroy[abi:ne180000]()::{lambda(auto:1&)#1}, std::__ndk1::__variant_detail::__base<(std::__ndk1::__variant_detail::__traits<void*, std::__ndk1::basic_string<char, std::__ndk1::char_traits<char>, std::__ndk1::allocator<char> > >)1, std::__ndk1::__variant_detail::__traits, std::__ndk1::allocator<char> >&>(std::__ndk1::__variant_detail::__dtor<std::__ndk1::__variant_detail::__traits<void*, std::__ndk1::basic_string<char, std::__ndk1::char_traits<char>, std::__ndk1::allocator<char> > >, (std::__ndk1::__variant_detail::_Trait)1>, std::__ndk1::__variant_detail::__base<(std::__ndk1::__variant_detail::__traits<void*, std::__ndk1::basic_string<char, std::__ndk1::char_traits<char>, std::__ndk1::allocator<char> > >)1, std::__ndk1::__variant_detail::__traits, std::__ndk1::allocator<char> >&)
FUNC 65984 14 0 std::__ndk1::__variant_detail::__visitation::__base::__dispatcher<(unsigned long)1>::__dispatch[abi:ne180000]<std::__ndk1::__variant_detail::__dtor<std::__ndk1::__variant_detail::__traits<void*, std::__ndk1::basic_string<char, std::__ndk1::char_traits<char>, std::__ndk1::allocator<char> > >, (std::__ndk1::__variant_detail::_Trait)1>::__destroy[abi:ne180000]()::{lambda(auto:1&)#1}, std::__ndk1::__variant_detail::__base<(std::__ndk1::__variant_detail::__traits<void*, std::__ndk1::basic_string<char, std::__ndk1::char_traits<char>, std::__ndk1::allocator<char> > >)1, std::__ndk1::__variant_detail::__traits, std::__ndk1::allocator<char> >&>(std::__ndk1::__variant_detail::__dtor<std::__ndk1::__variant_detail::__traits<void*, std::__ndk1::basic_string<char, std::__ndk1::char_traits<char>, std::__ndk1::allocator<char> > >, (std::__ndk1::__variant_detail::_Trait)1>, std::__ndk1::__variant_detail::__base<(std::__ndk1::__variant_detail::__traits<void*, std::__ndk1::basic_string<char, std::__ndk1::char_traits<char>, std::__ndk1::allocator<char> > >)1, std::__ndk1::__variant_detail::__traits, std::__ndk1::allocator<char> >&)
FUNC 65998 43c 0 std::__ndk1::__hash_table<std::__ndk1::__hash_value_type<void*, bool>, std::__ndk1::__unordered_map_hasher<void*, std::__ndk1::__hash_value_type<void*, bool>, std::__ndk1::hash<void*>, std::__ndk1::equal_to<void*>, true>, std::__ndk1::__unordered_map_equal<void*, std::__ndk1::__hash_value_type<void*, bool>, std::__ndk1::equal_to<void*>, std::__ndk1::hash<void*>, true>, std::__ndk1::allocator<std::__ndk1::__hash_value_type<void*, bool> > >::__emplace_unique_key_args<void*, std::__ndk1::piecewise_construct_t const&, std::__ndk1::tuple<void* const&>, std::__ndk1::tuple<> >(void* const&, std::__ndk1::piecewise_construct_t const&, std::__ndk1::tuple<void* const&>, std::__ndk1::tuple<>)
PUBLIC 65dd4 0 __udivti3
PUBLIC 65de0 0 __udivmodti4
PUBLIC m 6602c 0 __eqtf2
PUBLIC 660cc 0 __unordtf2
FUNC 66104 294 0 fmt::v11::detail::write_loc(fmt::v11::basic_appender<char>, fmt::v11::loc_value, fmt::v11::format_specs const&, fmt::v11::detail::locale_ref)
FUNC 66398 70 0 fmt::v11::format_facet<std::__ndk1::locale>::~format_facet()
FUNC 66408 50 0 fmt::v11::report_error(char const*)
FUNC 66458 2c 0 fmt::v11::format_error::runtime_error(char const*)
FUNC 66484 750 0 fmt::v11::format_facet<std::__ndk1::locale>::do_put(fmt::v11::basic_appender<char>, fmt::v11::loc_value, fmt::v11::format_specs const&) const
FUNC 66bd4 64 0 fmt::v11::detail::loc_writer<char>::~loc_writer()
FUNC 66c38 12c 0 fmt::v11::vformat(fmt::v11::basic_string_view<char>, fmt::v11::basic_format_args<fmt::v11::context>)
FUNC 66d64 3c8 0 fmt::v11::detail::vformat_to<char>(fmt::v11::detail::buffer<char>&, fmt::v11::basic_string_view<char>, fmt::v11::detail::vformat_args<char>::type, fmt::v11::detail::locale_ref)
FUNC 6712c 228 0 fmt::v11::detail::is_printable(unsigned int)
FUNC 67354 2b4 0 fmt::v11::detail::dragonbox::to_decimal<float>(float)
FUNC 67608 530 0 fmt::v11::detail::dragonbox::to_decimal<double>(double)
FUNC 67b38 78 0 fmt::v11::basic_memory_buffer<char, (unsigned long)500, std::__ndk1::allocator<char> >::grow(fmt::v11::detail::buffer<char>&, unsigned long)
FUNC 67bb0 78 0 fmt::v11::format_facet<std::__ndk1::locale>::~format_facet()
FUNC 67c28 24 0 fmt::v11::format_error::~format_error()
FUNC 67c4c 150 0 fmt::v11::detail::copy_noinline<char, char const*, fmt::v11::basic_appender<char> >(char const*, char const*, fmt::v11::basic_appender<char>)
FUNC 67d9c 6c 0 fmt::v11::detail::default_arg_formatter<char>::operator()<bool>(bool)
FUNC 67e08 74 0 fmt::v11::detail::default_arg_formatter<char>::operator()<char>(char)
FUNC 67e7c f0 0 fmt::v11::detail::default_arg_formatter<char>::operator()<float>(float)
FUNC 67f6c f0 0 fmt::v11::detail::default_arg_formatter<char>::operator()<double>(double)
FUNC 6805c 48 0 fmt::v11::detail::default_arg_formatter<char>::operator()<char const*>(char const*)
FUNC 680a4 9c 0 fmt::v11::detail::default_arg_formatter<char>::operator()<void const*>(void const*)
FUNC 68140 220 0 _ZN3fmt3v116detail5writeIcNS0_14basic_appenderIcEEiTnNSt6__ndk19enable_ifIXaaaasr11is_integralIT1_EE5valuentsr3std7is_sameIS7_bEE5valuentsr3std7is_sameIS7_T_EE5valueEiE4typeELi0EEET0_SB_S7_
FUNC 68360 150 0 fmt::v11::detail::copy_noinline<char, char*, fmt::v11::basic_appender<char> >(char*, char*, fmt::v11::basic_appender<char>)
FUNC 684b0 1c4 0 _ZN3fmt3v116detail5writeIcNS0_14basic_appenderIcEEjTnNSt6__ndk19enable_ifIXaaaasr11is_integralIT1_EE5valuentsr3std7is_sameIS7_bEE5valuentsr3std7is_sameIS7_T_EE5valueEiE4typeELi0EEET0_SB_S7_
FUNC 68674 244 0 _ZN3fmt3v116detail5writeIcNS0_14basic_appenderIcEExTnNSt6__ndk19enable_ifIXaaaasr11is_integralIT1_EE5valuentsr3std7is_sameIS7_bEE5valuentsr3std7is_sameIS7_T_EE5valueEiE4typeELi0EEET0_SB_S7_
FUNC 688b8 1ec 0 _ZN3fmt3v116detail5writeIcNS0_14basic_appenderIcEEyTnNSt6__ndk19enable_ifIXaaaasr11is_integralIT1_EE5valuentsr3std7is_sameIS7_bEE5valuentsr3std7is_sameIS7_T_EE5valueEiE4typeELi0EEET0_SB_S7_
FUNC 68aa4 304 0 _ZN3fmt3v116detail5writeIcNS0_14basic_appenderIcEEnTnNSt6__ndk19enable_ifIXaaaasr11is_integralIT1_EE5valuentsr3std7is_sameIS7_bEE5valuentsr3std7is_sameIS7_T_EE5valueEiE4typeELi0EEET0_SB_S7_
FUNC 68da8 2a4 0 _ZN3fmt3v116detail5writeIcNS0_14basic_appenderIcEEoTnNSt6__ndk19enable_ifIXaaaasr11is_integralIT1_EE5valuentsr3std7is_sameIS7_bEE5valuentsr3std7is_sameIS7_T_EE5valueEiE4typeELi0EEET0_SB_S7_
FUNC 6904c 2b4 0 _ZN3fmt3v116detail5writeIcNS0_14basic_appenderIcEEbTnNSt6__ndk19enable_ifIXsr3std7is_sameIT1_bEE5valueEiE4typeELi0EEET0_SA_S7_RKNS0_12format_specsENS1_10locale_refE
FUNC 69300 dd4 0 fmt::v11::detail::write_int_noinline<char, fmt::v11::basic_appender<char>, unsigned int>(fmt::v11::basic_appender<char>, fmt::v11::detail::write_int_arg<unsigned int>, fmt::v11::format_specs const&, fmt::v11::detail::locale_ref)
FUNC 6a0d4 254 0 fmt::v11::detail::write_padded<char, (fmt::v11::align::type)1, fmt::v11::basic_appender<char>, fmt::v11::detail::write_char<char, fmt::v11::basic_appender<char> >(fmt::v11::basic_appender<char>, char, fmt::v11::format_specs const&)::{lambda(fmt::v11::basic_appender<char>&)#1}>(fmt::v11::basic_appender<char>, fmt::v11::format_specs const&, unsigned long, unsigned long, fmt::v11::detail::write_char<char, fmt::v11::basic_appender<char> >(fmt::v11::basic_appender<char>, char, fmt::v11::format_specs const&)::{lambda(fmt::v11::basic_appender<char>&)#1})
FUNC 6a328 258 0 fmt::v11::detail::write_padded<char, (fmt::v11::align::type)1, fmt::v11::basic_appender<char>, fmt::v11::detail::write_nonfinite<char, fmt::v11::basic_appender<char> >(fmt::v11::basic_appender<char>, bool, fmt::v11::format_specs, fmt::v11::sign::type)::{lambda(fmt::v11::basic_appender<char>&)#1}>(fmt::v11::basic_appender<char>, fmt::v11::format_specs const&, unsigned long, unsigned long, fmt::v11::detail::write_nonfinite<char, fmt::v11::basic_appender<char> >(fmt::v11::basic_appender<char>, bool, fmt::v11::format_specs, fmt::v11::sign::type)::{lambda(fmt::v11::basic_appender<char>&)#1})
FUNC 6a580 c3c 0 fmt::v11::detail::do_write_float<char, fmt::v11::basic_appender<char>, fmt::v11::detail::dragonbox::decimal_fp<float>, fmt::v11::detail::digit_grouping<char> >(fmt::v11::basic_appender<char>, fmt::v11::detail::dragonbox::decimal_fp<float> const&, fmt::v11::format_specs const&, fmt::v11::detail::float_specs, fmt::v11::detail::locale_ref)
FUNC 6b1bc 154 0 fmt::v11::detail::do_write_float<char, fmt::v11::basic_appender<char>, fmt::v11::detail::dragonbox::decimal_fp<float>, fmt::v11::detail::digit_grouping<char> >(fmt::v11::basic_appender<char>, fmt::v11::detail::dragonbox::decimal_fp<float> const&, fmt::v11::format_specs const&, fmt::v11::detail::float_specs, fmt::v11::detail::locale_ref)::{lambda(fmt::v11::basic_appender<char>(fmt::v11::basic_appender<char>))#1}::operator() const
FUNC 6b310 238 0 fmt::v11::detail::digit_grouping<char>::digit_grouping(fmt::v11::detail::locale_ref, bool)
FUNC 6b548 44 0 fmt::v11::detail::digit_grouping<char>::~digit_grouping()
FUNC 6b58c 1a4 0 fmt::v11::detail::write_exponent<char, fmt::v11::basic_appender<char> >(int, fmt::v11::basic_appender<char>)
FUNC 6b730 17c 0 _ZN3fmt3v116detail17write_significandIcjTnNSt6__ndk19enable_ifIXsr3std11is_integralIT0_EE5valueEiE4typeELi0EEEPT_S9_S5_iiS8_
FUNC 6b8ac 3a4 0 fmt::v11::detail::digit_grouping<char>::apply<fmt::v11::basic_appender<char>, char>(fmt::v11::basic_appender<char>, fmt::v11::basic_string_view<char>) const
FUNC 6bc50 a0 0 fmt::v11::basic_memory_buffer<int, (unsigned long)500, std::__ndk1::allocator<int> >::grow(fmt::v11::detail::buffer<int>&, unsigned long)
FUNC 6bcf0 c78 0 fmt::v11::detail::do_write_float<char, fmt::v11::basic_appender<char>, fmt::v11::detail::dragonbox::decimal_fp<double>, fmt::v11::detail::digit_grouping<char> >(fmt::v11::basic_appender<char>, fmt::v11::detail::dragonbox::decimal_fp<double> const&, fmt::v11::format_specs const&, fmt::v11::detail::float_specs, fmt::v11::detail::locale_ref)
FUNC 6c968 158 0 fmt::v11::detail::do_write_float<char, fmt::v11::basic_appender<char>, fmt::v11::detail::dragonbox::decimal_fp<double>, fmt::v11::detail::digit_grouping<char> >(fmt::v11::basic_appender<char>, fmt::v11::detail::dragonbox::decimal_fp<double> const&, fmt::v11::format_specs const&, fmt::v11::detail::float_specs, fmt::v11::detail::locale_ref)::{lambda(fmt::v11::basic_appender<char>(fmt::v11::basic_appender<char>))#1}::operator() const
FUNC 6cac0 190 0 _ZN3fmt3v116detail17write_significandIcmTnNSt6__ndk19enable_ifIXsr3std11is_integralIT0_EE5valueEiE4typeELi0EEEPT_S9_S5_iiS8_
FUNC 6cc50 ad0 0 fmt::v11::detail::write_float<char, fmt::v11::basic_appender<char>, long double>(fmt::v11::basic_appender<char>, long double, fmt::v11::format_specs, fmt::v11::detail::locale_ref)
FUNC 6d720 1f4 0 fmt::v11::detail::write_padded<char, (fmt::v11::align::type)2, fmt::v11::basic_appender<char>, fmt::v11::detail::write_bytes<char, (fmt::v11::align::type)2, fmt::v11::basic_appender<char> >(fmt::v11::basic_appender<char>, fmt::v11::basic_string_view<char>, fmt::v11::format_specs const&)::{lambda(fmt::v11::basic_appender<char>&)#1}>(fmt::v11::basic_appender<char>, fmt::v11::format_specs const&, unsigned long, unsigned long, fmt::v11::detail::write_bytes<char, (fmt::v11::align::type)2, fmt::v11::basic_appender<char> >(fmt::v11::basic_appender<char>, fmt::v11::basic_string_view<char>, fmt::v11::format_specs const&)::{lambda(fmt::v11::basic_appender<char>&)#1})
FUNC 6d914 1350 0 fmt::v11::detail::format_dragon(fmt::v11::detail::basic_fp<unsigned __int128>, unsigned int, int, fmt::v11::detail::buffer<char>&, int&)
FUNC 6ec64 124 0 fmt::v11::detail::bigint::operator<<=(int)
FUNC 6ed88 744 0 fmt::v11::detail::bigint::assign_pow10(int)
FUNC 6f4cc 2f4 0 fmt::v11::detail::bigint::divmod_assign(fmt::v11::detail::bigint const&)
FUNC 6f7c0 a0 0 fmt::v11::basic_memory_buffer<unsigned int, (unsigned long)32, std::__ndk1::allocator<unsigned int> >::grow(fmt::v11::detail::buffer<unsigned int>&, unsigned long)
FUNC 6f860 e8c 0 fmt::v11::detail::do_write_float<char, fmt::v11::basic_appender<char>, fmt::v11::detail::big_decimal_fp, fmt::v11::detail::digit_grouping<char> >(fmt::v11::basic_appender<char>, fmt::v11::detail::big_decimal_fp const&, fmt::v11::format_specs const&, fmt::v11::detail::float_specs, fmt::v11::detail::locale_ref)
FUNC 706ec 160 0 fmt::v11::detail::do_write_float<char, fmt::v11::basic_appender<char>, fmt::v11::detail::big_decimal_fp, fmt::v11::detail::digit_grouping<char> >(fmt::v11::basic_appender<char>, fmt::v11::detail::big_decimal_fp const&, fmt::v11::format_specs const&, fmt::v11::detail::float_specs, fmt::v11::detail::locale_ref)::{lambda(fmt::v11::basic_appender<char>(fmt::v11::basic_appender<char>))#1}::operator() const
FUNC 7084c 214 0 fmt::v11::detail::write_padded<char, (fmt::v11::align::type)2, fmt::v11::basic_appender<char>, fmt::v11::detail::write_ptr<char, fmt::v11::basic_appender<char>, unsigned long>(fmt::v11::basic_appender<char>, unsigned long, fmt::v11::format_specs const*)::{lambda(fmt::v11::basic_appender<char>&)#1}>(fmt::v11::basic_appender<char>, fmt::v11::format_specs const&, unsigned long, unsigned long, fmt::v11::detail::write_ptr<char, fmt::v11::basic_appender<char>, unsigned long>(fmt::v11::basic_appender<char>, unsigned long, fmt::v11::format_specs const*)::{lambda(fmt::v11::basic_appender<char>&)#1})
FUNC 70a60 14c4 0 fmt::v11::detail::parse_replacement_field<char, fmt::v11::detail::vformat_to<char>(fmt::v11::detail::buffer<char>&, fmt::v11::basic_string_view<char>, fmt::v11::detail::vformat_args<char>::type, fmt::v11::detail::locale_ref)::format_handler&>(char const*, char const*, fmt::v11::detail::vformat_to<char>(fmt::v11::detail::buffer<char>&, fmt::v11::basic_string_view<char>, fmt::v11::detail::vformat_args<char>::type, fmt::v11::detail::locale_ref)::format_handler&)
FUNC 71f24 e30 0 fmt::v11::detail::write_int_noinline<char, fmt::v11::basic_appender<char>, unsigned long>(fmt::v11::basic_appender<char>, fmt::v11::detail::write_int_arg<unsigned long>, fmt::v11::format_specs const&, fmt::v11::detail::locale_ref)
FUNC 72d54 fd4 0 fmt::v11::detail::write_int_noinline<char, fmt::v11::basic_appender<char>, unsigned __int128>(fmt::v11::basic_appender<char>, fmt::v11::detail::write_int_arg<unsigned __int128>, fmt::v11::format_specs const&, fmt::v11::detail::locale_ref)
FUNC 73d28 510 0 _ZN3fmt3v116detail15format_hexfloatIdTnNSt6__ndk19enable_ifIXntsr16is_double_doubleIT_EE5valueEiE4typeELi0EEEvS5_NS0_12format_specsERNS1_6bufferIcEE
FUNC 74238 98c 0 fmt::v11::detail::format_float<double>(double, int, fmt::v11::detail::float_specs, fmt::v11::detail::buffer<char>&)
FUNC 74bc4 570 0 fmt::v11::detail::write_int<fmt::v11::basic_appender<char>, unsigned long, char>(fmt::v11::basic_appender<char>, unsigned long, unsigned int, fmt::v11::format_specs const&, fmt::v11::detail::digit_grouping<char> const&)
FUNC 75134 664 0 fmt::v11::detail::write_int<fmt::v11::basic_appender<char>, unsigned __int128, char>(fmt::v11::basic_appender<char>, unsigned __int128, unsigned int, fmt::v11::format_specs const&, fmt::v11::detail::digit_grouping<char> const&)
PUBLIC 757a0 0 <.plt ELF section in elnexreal.menuloop_randomizer.android64.so>
STACK CFI INIT 2e120 10 .cfa: sp 0 +
STACK CFI INIT 2e130 8 .cfa: sp 0 +
STACK CFI INIT 2e138 8 .cfa: sp 0 +
STACK CFI INIT 2e140 14 .cfa: sp 0 +
STACK CFI INIT 2e154 1c .cfa: sp 0 +
STACK CFI INIT 2e170 10 .cfa: sp 0 +
STACK CFI INIT 2e180 134 .cfa: sp 0 +
STACK CFI INIT 2e2b4 84 .cfa: sp 0 +
STACK CFI INIT 2e338 f4 .cfa: sp 0 +
STACK CFI INIT 2e42c a8 .cfa: sp 0 +
STACK CFI INIT 2e4d4 7c .cfa: sp 0 +
STACK CFI INIT 2e550 14 .cfa: sp 0 +
STACK CFI INIT 2e564 40 .cfa: sp 0 +
STACK CFI INIT 2e5a4 28 .cfa: sp 0 +
STACK CFI INIT 2e5cc 190 .cfa: sp 0 +
STACK CFI INIT 2e75c 2c8 .cfa: sp 0 +
STACK CFI INIT 2ea24 8 .cfa: sp 0 +
STACK CFI INIT 2ea2c 8 .cfa: sp 0 +
STACK CFI INIT 2ea34 44 .cfa: sp 0 +
STACK CFI INIT 2ea78 e8 .cfa: sp 0 +
STACK CFI INIT 2eb60 e8 .cfa: sp 0 +
STACK CFI INIT 2ec48 14 .cfa: sp 0 +
STACK CFI INIT 2ec5c 10 .cfa: sp 0 +
STACK CFI INIT 2ec6c 10 .cfa: sp 0 +
STACK CFI INIT 2ec7c f0 .cfa: sp 0 +
STACK CFI INIT 2ed6c 44 .cfa: sp 0 +
STACK CFI INIT 2edb0 c .cfa: sp 0 +
STACK CFI INIT 2edbc c .cfa: sp 0 +
STACK CFI INIT 2edc8 2c .cfa: sp 0 +
STACK CFI INIT 2edf4 280 .cfa: sp 0 +
STACK CFI INIT 2f074 c .cfa: sp 0 +
STACK CFI INIT 2f080 120 .cfa: sp 0 +
STACK CFI INIT 2f1a0 488 .cfa: sp 0 +
STACK CFI INIT 2f628 c48 .cfa: sp 0 +
STACK CFI INIT 30270 134 .cfa: sp 0 +
STACK CFI INIT 303a4 210 .cfa: sp 0 +
STACK CFI INIT 305b4 38c .cfa: sp 0 +
STACK CFI INIT 30940 1c8 .cfa: sp 0 +
STACK CFI INIT 30b08 9bc .cfa: sp 0 +
STACK CFI INIT 314c4 2d4 .cfa: sp 0 +
STACK CFI INIT 31798 134 .cfa: sp 0 +
STACK CFI INIT 318cc 120 .cfa: sp 0 +
STACK CFI INIT 319ec 1c8 .cfa: sp 0 +
STACK CFI INIT 31bb4 168 .cfa: sp 0 +
STACK CFI INIT 31d1c fc .cfa: sp 0 +
STACK CFI INIT 31e18 30 .cfa: sp 0 +
STACK CFI INIT 31f80 30 .cfa: sp 0 +
STACK CFI INIT 31fb0 98 .cfa: sp 0 +
STACK CFI INIT 32048 59c .cfa: sp 0 +
STACK CFI INIT 325e4 8c .cfa: sp 0 +
STACK CFI INIT 32670 30 .cfa: sp 0 +
STACK CFI INIT 32ae4 1c .cfa: sp 0 +
STACK CFI INIT 333a8 50 .cfa: sp 0 +
STACK CFI 333ac .cfa: sp 32 +
STACK CFI 333b4 .cfa: x29 32 + x19: .cfa -16 + ^ .ra: .cfa -24 + ^ x29: .cfa -32 + ^
STACK CFI 333cc .cfa: sp 32 +
STACK CFI 333d4 .cfa: sp 0 +
STACK CFI 333d8 .cfa: x29 32 +
STACK CFI 333ec .cfa: sp 32 +
STACK CFI 333f4 .cfa: sp 0 +
STACK CFI INIT 3346c 7c .cfa: sp 0 +
STACK CFI 33470 .cfa: sp 48 +
STACK CFI 3347c .cfa: x29 48 + x19: .cfa -8 + ^ x20: .cfa -16 + ^ x21: .cfa -32 + ^ .ra: .cfa -40 + ^ x29: .cfa -48 + ^
STACK CFI 334c8 .cfa: sp 48 +
STACK CFI 334d4 .cfa: sp 0 +
STACK CFI 334d8 .cfa: sp 48 +
STACK CFI 334e4 .cfa: sp 0 +
STACK CFI INIT 334e8 4 .cfa: sp 0 +
STACK CFI INIT 334ec 10 .cfa: sp 0 +
STACK CFI 334f0 .cfa: sp 16 +
STACK CFI 334f4 .cfa: x29 16 + .ra: .cfa -8 + ^ x29: .cfa -16 + ^
STACK CFI INIT 33650 34 .cfa: sp 0 +
STACK CFI 33654 .cfa: sp 16 +
STACK CFI 33658 .cfa: x29 16 + .ra: .cfa -8 + ^ x29: .cfa -16 + ^
STACK CFI INIT 337a8 80 .cfa: sp 0 +
STACK CFI 337ac .cfa: sp 48 +
STACK CFI 337b8 .cfa: x29 48 + x19: .cfa -8 + ^ x20: .cfa -16 + ^ x21: .cfa -32 + ^ .ra: .cfa -40 + ^ x29: .cfa -48 + ^
STACK CFI 33818 .cfa: sp 48 +
STACK CFI 33824 .cfa: sp 0 +
STACK CFI INIT 33828 24 .cfa: sp 0 +
STACK CFI 3382c .cfa: sp 32 +
STACK CFI 33834 .cfa: x29 32 + x19: .cfa -16 + ^ .ra: .cfa -24 + ^ x29: .cfa -32 + ^
STACK CFI 33840 .cfa: sp 32 +
STACK CFI 33848 .cfa: sp 0 +
STACK CFI INIT 33b98 14 .cfa: sp 0 +
STACK CFI 33b9c .cfa: sp 16 +
STACK CFI 33ba0 .cfa: x29 16 + .ra: .cfa -8 + ^ x29: .cfa -16 + ^
STACK CFI INIT 33bfc 30 .cfa: sp 0 +
STACK CFI 33c00 .cfa: sp 32 +
STACK CFI 33c08 .cfa: x29 32 + x19: .cfa -16 + ^ .ra: .cfa -24 + ^ x29: .cfa -32 + ^
STACK CFI 33c20 .cfa: sp 32 +
STACK CFI 33c28 .cfa: sp 0 +
STACK CFI INIT 33c2c 34 .cfa: sp 0 +
STACK CFI 33c30 .cfa: sp 32 +
STACK CFI 33c38 .cfa: x29 32 + x19: .cfa -16 + ^ .ra: .cfa -24 + ^ x29: .cfa -32 + ^
STACK CFI INIT 33dbc 148 .cfa: sp 0 +
STACK CFI 33dc0 .cfa: sp 48 +
STACK CFI 33dcc .cfa: x29 48 + x19: .cfa -8 + ^ x20: .cfa -16 + ^ x21: .cfa -32 + ^ .ra: .cfa -40 + ^ x29: .cfa -48 + ^
STACK CFI 33ef4 .cfa: sp 48 +
STACK CFI 33f00 .cfa: sp 0 +
STACK CFI INIT 34120 70 .cfa: sp 0 +
STACK CFI 34124 .cfa: sp 48 +
STACK CFI 34130 .cfa: x29 48 + x19: .cfa -8 + ^ x20: .cfa -16 + ^ x21: .cfa -24 + ^ x22: .cfa -32 + ^ .ra: .cfa -40 + ^ x29: .cfa -48 + ^
STACK CFI 34178 .cfa: sp 48 +
STACK CFI 34184 .cfa: sp 0 +
STACK CFI 34188 .cfa: x29 48 +
STACK CFI INIT 34190 68 .cfa: sp 0 +
STACK CFI 34194 .cfa: sp 32 +
STACK CFI 3419c .cfa: x29 32 + x19: .cfa -8 + ^ x20: .cfa -16 + ^ .ra: .cfa -24 + ^ x29: .cfa -32 + ^
STACK CFI 341b4 .cfa: sp 32 +
STACK CFI 341bc .cfa: sp 0 +
STACK CFI 341c0 .cfa: x29 32 +
STACK CFI 341ec .cfa: sp 32 +
STACK CFI 341f4 .cfa: sp 0 +
STACK CFI INIT 341f8 14 .cfa: sp 0 +
STACK CFI 341fc .cfa: sp 16 +
STACK CFI 34200 .cfa: x29 16 + .ra: .cfa -8 + ^ x29: .cfa -16 + ^
STACK CFI INIT 3420c 4 .cfa: sp 0 +
STACK CFI INIT 34210 14 .cfa: sp 0 +
STACK CFI INIT 34224 fc .cfa: sp 0 +
STACK CFI 34228 .cfa: sp 64 +
STACK CFI 34238 .cfa: x29 64 + x19: .cfa -8 + ^ x20: .cfa -16 + ^ x21: .cfa -24 + ^ x22: .cfa -32 + ^ x23: .cfa -40 + ^ x24: .cfa -48 + ^ .ra: .cfa -56 + ^ x29: .cfa -64 + ^
STACK CFI 3430c .cfa: sp 64 +
STACK CFI 3431c .cfa: sp 0 +
STACK CFI INIT 34320 d4 .cfa: sp 0 +
STACK CFI 34324 .cfa: sp 48 +
STACK CFI 34330 .cfa: x29 48 + x19: .cfa -8 + ^ x20: .cfa -16 + ^ x21: .cfa -32 + ^ .ra: .cfa -40 + ^ x29: .cfa -48 + ^
STACK CFI 343c0 .cfa: sp 48 +
STACK CFI 343cc .cfa: sp 0 +
STACK CFI 343d0 .cfa: x29 48 +
STACK CFI INIT 343f4 388 .cfa: sp 0 +
STACK CFI INIT 3477c 8c .cfa: sp 0 +
STACK CFI 34784 .cfa: sp 32 +
STACK CFI 3478c .cfa: x29 32 + x19: .cfa -8 + ^ x20: .cfa -16 + ^ .ra: .cfa -24 + ^ x29: .cfa -32 + ^
STACK CFI 347d4 .cfa: sp 32 +
STACK CFI 347dc .cfa: sp 0 +
STACK CFI 347e4 .cfa: x29 32 +
STACK CFI INIT 3498c 22c .cfa: sp 0 +
STACK CFI 34990 .cfa: sp 80 +
STACK CFI 349a4 .cfa: x29 64 + x19: .cfa -8 + ^ x20: .cfa -16 + ^ x21: .cfa -24 + ^ x22: .cfa -32 + ^ x23: .cfa -40 + ^ x24: .cfa -48 + ^ .ra: .cfa -56 + ^ x29: .cfa -64 + ^
STACK CFI 34b9c .cfa: sp 80 +
STACK CFI 34bb0 .cfa: sp 0 +
STACK CFI 34bb4 .cfa: x29 64 +
STACK CFI INIT 34bb8 22c .cfa: sp 0 +
STACK CFI 34bbc .cfa: sp 80 +
STACK CFI 34bd0 .cfa: x29 64 + x19: .cfa -8 + ^ x20: .cfa -16 + ^ x21: .cfa -24 + ^ x22: .cfa -32 + ^ x23: .cfa -40 + ^ x24: .cfa -48 + ^ .ra: .cfa -56 + ^ x29: .cfa -64 + ^
STACK CFI 34dc8 .cfa: sp 80 +
STACK CFI 34ddc .cfa: sp 0 +
STACK CFI 34de0 .cfa: x29 64 +
STACK CFI INIT 34de4 248 .cfa: sp 0 +
STACK CFI 34de8 .cfa: sp 80 +
STACK CFI 34dfc .cfa: x29 64 + x19: .cfa -8 + ^ x20: .cfa -16 + ^ x21: .cfa -24 + ^ x22: .cfa -32 + ^ x23: .cfa -48 + ^ .ra: .cfa -56 + ^ x29: .cfa -64 + ^
STACK CFI 34fe8 .cfa: sp 80 +
STACK CFI 34ffc .cfa: sp 0 +
STACK CFI 35000 .cfa: x29 64 +
STACK CFI 35010 .cfa: sp 80 +
STACK CFI 35024 .cfa: sp 0 +
STACK CFI 35028 .cfa: x29 64 +
STACK CFI INIT 3502c 50 .cfa: sp 0 +
STACK CFI 35030 .cfa: sp 32 +
STACK CFI 35038 .cfa: x29 32 + x19: .cfa -16 + ^ .ra: .cfa -24 + ^ x29: .cfa -32 + ^
STACK CFI 35050 .cfa: sp 32 +
STACK CFI 35058 .cfa: sp 0 +
STACK CFI 3505c .cfa: x29 32 +
STACK CFI 35070 .cfa: sp 32 +
STACK CFI 35078 .cfa: sp 0 +
STACK CFI INIT 3507c 64 .cfa: sp 0 +
STACK CFI 35080 .cfa: sp 32 +
STACK CFI 35088 .cfa: x29 32 + x19: .cfa -16 + ^ .ra: .cfa -24 + ^ x29: .cfa -32 + ^
STACK CFI 350b4 .cfa: sp 32 +
STACK CFI 350bc .cfa: sp 0 +
STACK CFI 350c0 .cfa: x29 32 +
STACK CFI 350d4 .cfa: sp 32 +
STACK CFI 350dc .cfa: sp 0 +
STACK CFI INIT 350e0 e4 .cfa: sp 0 +
STACK CFI 350e4 .cfa: sp 64 +
STACK CFI 350f4 .cfa: x29 64 + x19: .cfa -8 + ^ x20: .cfa -16 + ^ x21: .cfa -24 + ^ x22: .cfa -32 + ^ x23: .cfa -48 + ^ .ra: .cfa -56 + ^ x29: .cfa -64 + ^
STACK CFI 3516c .cfa: sp 64 +
STACK CFI 3517c .cfa: sp 0 +
STACK CFI 35180 .cfa: x29 64 +
STACK CFI INIT 351c4 104 .cfa: sp 0 +
STACK CFI 351c8 .cfa: sp 80 +
STACK CFI 351dc .cfa: x29 80 + x19: .cfa -8 + ^ x20: .cfa -16 + ^ x21: .cfa -24 + ^ x22: .cfa -32 + ^ x23: .cfa -40 + ^ x24: .cfa -48 + ^ x25: .cfa -56 + ^ x26: .cfa -64 + ^ .ra: .cfa -72 + ^ x29: .cfa -80 + ^
STACK CFI 352b0 .cfa: sp 80 +
STACK CFI 352c4 .cfa: sp 0 +
STACK CFI INIT 352c8 19c .cfa: sp 0 +
STACK CFI INIT 358a8 1c .cfa: sp 0 +
STACK CFI INIT 35c98 4 .cfa: sp 0 +
STACK CFI INIT 35c9c bc .cfa: sp 0 +
STACK CFI 35ca0 .cfa: sp 32 +
STACK CFI 35ca8 .cfa: x29 16 + .ra: .cfa -8 + ^ x29: .cfa -16 + ^ v8: .cfa -32 + ^
STACK CFI 35cd8 .cfa: sp 32 +
STACK CFI 35ce0 .cfa: sp 0 +
STACK CFI 35ce4 .cfa: sp 32 +
STACK CFI 35cec .cfa: sp 0 +
STACK CFI 35cf0 .cfa: x29 16 +
STACK CFI INIT 35e2c 174 .cfa: sp 0 +
STACK CFI 35e30 .cfa: sp 48 +
STACK CFI 35e3c .cfa: x29 48 + x19: .cfa -8 + ^ x20: .cfa -16 + ^ x21: .cfa -32 + ^ .ra: .cfa -40 + ^ x29: .cfa -48 + ^
STACK CFI 35f78 .cfa: sp 48 +
STACK CFI 35f84 .cfa: sp 0 +
STACK CFI 35f88 .cfa: x29 48 +
STACK CFI 35f90 .cfa: sp 48 +
STACK CFI 35f9c .cfa: sp 0 +
STACK CFI INIT 363e4 1c .cfa: sp 0 +
STACK CFI INIT 367dc 4 .cfa: sp 0 +
STACK CFI INIT 36f3c 4 .cfa: sp 0 +
STACK CFI INIT 36f40 14 .cfa: sp 0 +
STACK CFI 36f44 .cfa: sp 16 +
STACK CFI 36f48 .cfa: x29 16 + .ra: .cfa -8 + ^ x29: .cfa -16 + ^
STACK CFI INIT 37154 14 .cfa: sp 0 +
STACK CFI 37158 .cfa: sp 16 +
STACK CFI 3715c .cfa: x29 16 + .ra: .cfa -8 + ^ x29: .cfa -16 + ^
STACK CFI INIT 37168 14 .cfa: sp 0 +
STACK CFI 3716c .cfa: sp 16 +
STACK CFI 37170 .cfa: x29 16 + .ra: .cfa -8 + ^ x29: .cfa -16 + ^
STACK CFI INIT 371cc 30 .cfa: sp 0 +
STACK CFI 371d0 .cfa: sp 32 +
STACK CFI 371d8 .cfa: x29 32 + x19: .cfa -16 + ^ .ra: .cfa -24 + ^ x29: .cfa -32 + ^
STACK CFI 371f0 .cfa: sp 32 +
STACK CFI 371f8 .cfa: sp 0 +
STACK CFI INIT 371fc 14 .cfa: sp 0 +
STACK CFI 37200 .cfa: sp 16 +
STACK CFI 37204 .cfa: x29 16 + .ra: .cfa -8 + ^ x29: .cfa -16 + ^
STACK CFI INIT 37210 4 .cfa: sp 0 +
STACK CFI INIT 37214 4 .cfa: sp 0 +
STACK CFI INIT 37218 38 .cfa: sp 0 +
STACK CFI 3721c .cfa: sp 32 +
STACK CFI 37224 .cfa: x29 32 + x19: .cfa -16 + ^ .ra: .cfa -24 + ^ x29: .cfa -32 + ^
STACK CFI 37244 .cfa: sp 32 +
STACK CFI 3724c .cfa: sp 0 +
STACK CFI INIT 37250 18 .cfa: sp 0 +
STACK CFI INIT 37268 4 .cfa: sp 0 +
STACK CFI INIT 3726c 4 .cfa: sp 0 +
STACK CFI INIT 37270 10 .cfa: sp 0 +
STACK CFI INIT 37280 1c .cfa: sp 0 +
STACK CFI INIT 3729c c .cfa: sp 0 +
STACK CFI INIT 37360 50 .cfa: sp 0 +
STACK CFI 37364 .cfa: sp 32 +
STACK CFI 3736c .cfa: x29 32 + x19: .cfa -8 + ^ x20: .cfa -16 + ^ .ra: .cfa -24 + ^ x29: .cfa -32 + ^
STACK CFI 373a4 .cfa: sp 32 +
STACK CFI 373ac .cfa: sp 0 +
STACK CFI INIT 377f4 1c .cfa: sp 0 +
STACK CFI INIT 37810 50 .cfa: sp 0 +
STACK CFI 37814 .cfa: sp 32 +
STACK CFI 3781c .cfa: x29 32 + x19: .cfa -16 + ^ .ra: .cfa -24 + ^ x29: .cfa -32 + ^
STACK CFI 37834 .cfa: sp 32 +
STACK CFI 3783c .cfa: sp 0 +
STACK CFI 37840 .cfa: x29 32 +
STACK CFI 37854 .cfa: sp 32 +
STACK CFI 3785c .cfa: sp 0 +
STACK CFI INIT 37ce0 270 .cfa: sp 0 +
STACK CFI 37ce4 .cfa: sp 112 +
STACK CFI 37d00 .cfa: x29 96 + x19: .cfa -8 + ^ x20: .cfa -16 + ^ x21: .cfa -24 + ^ x22: .cfa -32 + ^ x23: .cfa -40 + ^ x24: .cfa -48 + ^ x25: .cfa -56 + ^ x26: .cfa -64 + ^ x27: .cfa -72 + ^ x28: .cfa -80 + ^ .ra: .cfa -88 + ^ x29: .cfa -96 + ^
STACK CFI 37f30 .cfa: sp 112 +
STACK CFI 37f4c .cfa: sp 0 +
STACK CFI INIT 37f50 180 .cfa: sp 0 +
STACK CFI 37f54 .cfa: sp 64 +
STACK CFI 37f64 .cfa: x29 64 + x19: .cfa -8 + ^ x20: .cfa -16 + ^ x21: .cfa -24 + ^ x22: .cfa -32 + ^ x23: .cfa -48 + ^ .ra: .cfa -56 + ^ x29: .cfa -64 + ^
STACK CFI 380b8 .cfa: sp 64 +
STACK CFI 380c8 .cfa: sp 0 +
STACK CFI 380cc .cfa: x29 64 +
STACK CFI INIT 380d0 174 .cfa: sp 0 +
STACK CFI 380d4 .cfa: sp 96 +
STACK CFI 380ec .cfa: x29 96 + x19: .cfa -8 + ^ x20: .cfa -16 + ^ x21: .cfa -24 + ^ x22: .cfa -32 + ^ x23: .cfa -40 + ^ x24: .cfa -48 + ^ x25: .cfa -56 + ^ x26: .cfa -64 + ^ x27: .cfa -80 + ^ .ra: .cfa -88 + ^ x29: .cfa -96 + ^
STACK CFI 38224 .cfa: sp 96 +
STACK CFI 3823c .cfa: sp 0 +
STACK CFI 38240 .cfa: x29 96 +
STACK CFI INIT 38244 1b4 .cfa: sp 0 +
STACK CFI 38248 .cfa: sp 96 +
STACK CFI 38260 .cfa: x29 96 + x19: .cfa -8 + ^ x20: .cfa -16 + ^ x21: .cfa -24 + ^ x22: .cfa -32 + ^ x23: .cfa -40 + ^ x24: .cfa -48 + ^ x25: .cfa -56 + ^ x26: .cfa -64 + ^ x27: .cfa -72 + ^ x28: .cfa -80 + ^ .ra: .cfa -88 + ^ x29: .cfa -96 + ^
STACK CFI 383dc .cfa: sp 96 +
STACK CFI 383f4 .cfa: sp 0 +
STACK CFI INIT 383f8 1b4 .cfa: sp 0 +
STACK CFI 383fc .cfa: sp 96 +
STACK CFI 38414 .cfa: x29 96 + x19: .cfa -8 + ^ x20: .cfa -16 + ^ x21: .cfa -24 + ^ x22: .cfa -32 + ^ x23: .cfa -40 + ^ x24: .cfa -48 + ^ x25: .cfa -56 + ^ x26: .cfa -64 + ^ x27: .cfa -72 + ^ x28: .cfa -80 + ^ .ra: .cfa -88 + ^ x29: .cfa -96 + ^
STACK CFI 38590 .cfa: sp 96 +
STACK CFI 385a8 .cfa: sp 0 +
STACK CFI INIT 385f8 4 .cfa: sp 0 +
STACK CFI INIT 385fc c .cfa: sp 0 +
STACK CFI INIT 38608 4 .cfa: sp 0 +
STACK CFI INIT 3860c 4 .cfa: sp 0 +
STACK CFI INIT 38610 24 .cfa: sp 0 +
STACK CFI 38614 .cfa: sp 32 +
STACK CFI 3861c .cfa: x29 32 + x19: .cfa -16 + ^ .ra: .cfa -24 + ^ x29: .cfa -32 + ^
STACK CFI 38628 .cfa: sp 32 +
STACK CFI 38630 .cfa: sp 0 +
STACK CFI INIT 38634 18 .cfa: sp 0 +
STACK CFI INIT 3864c 1c .cfa: sp 0 +
STACK CFI INIT 38668 4 .cfa: sp 0 +
STACK CFI INIT 3866c 48 .cfa: sp 0 +
STACK CFI 38688 .cfa: sp 32 +
STACK CFI 38690 .cfa: x29 32 + x19: .cfa -16 + ^ .ra: .cfa -24 + ^ x29: .cfa -32 + ^
STACK CFI 386a8 .cfa: sp 32 +
STACK CFI 386b0 .cfa: sp 0 +
STACK CFI INIT 386b4 14 .cfa: sp 0 +
STACK CFI INIT 386c8 48 .cfa: sp 0 +
STACK CFI 386e4 .cfa: sp 32 +
STACK CFI 386ec .cfa: x29 32 + x19: .cfa -16 + ^ .ra: .cfa -24 + ^ x29: .cfa -32 + ^
STACK CFI 38704 .cfa: sp 32 +
STACK CFI 3870c .cfa: sp 0 +
STACK CFI INIT 38a74 2b8 .cfa: sp 0 +
STACK CFI 38a78 .cfa: sp 64 +
STACK CFI 38a88 .cfa: x29 64 + x19: .cfa -8 + ^ x20: .cfa -16 + ^ x21: .cfa -24 + ^ x22: .cfa -32 + ^ x23: .cfa -48 + ^ .ra: .cfa -56 + ^ x29: .cfa -64 + ^
STACK CFI 38b04 .cfa: sp 64 +
STACK CFI 38b14 .cfa: sp 0 +
STACK CFI 38b18 .cfa: x29 64 +
STACK CFI 38c58 .cfa: sp 64 +
STACK CFI 38c68 .cfa: sp 0 +
STACK CFI 38c6c .cfa: x29 64 +
STACK CFI 38cf8 .cfa: sp 64 +
STACK CFI 38d08 .cfa: sp 0 +
STACK CFI 38d0c .cfa: x29 64 +
STACK CFI INIT 38d2c 360 .cfa: sp 0 +
STACK CFI 38d30 .cfa: sp 32 +
STACK CFI 38d38 .cfa: x29 32 + x19: .cfa -16 + ^ .ra: .cfa -24 + ^ x29: .cfa -32 + ^
STACK CFI 39078 .cfa: sp 32 +
STACK CFI 39080 .cfa: sp 0 +
STACK CFI 39084 .cfa: x29 32 +
STACK CFI INIT 390f8 b4 .cfa: sp 0 +
STACK CFI 390fc .cfa: sp 64 +
STACK CFI 3910c .cfa: x29 64 + x19: .cfa -8 + ^ x20: .cfa -16 + ^ x21: .cfa -24 + ^ x22: .cfa -32 + ^ x23: .cfa -48 + ^ .ra: .cfa -56 + ^ x29: .cfa -64 + ^
STACK CFI 39198 .cfa: sp 64 +
STACK CFI 391a8 .cfa: sp 0 +
STACK CFI INIT 391f8 48 .cfa: sp 0 +
STACK CFI 39214 .cfa: sp 32 +
STACK CFI 3921c .cfa: x29 32 + x19: .cfa -16 + ^ .ra: .cfa -24 + ^ x29: .cfa -32 + ^
STACK CFI 39234 .cfa: sp 32 +
STACK CFI 3923c .cfa: sp 0 +
STACK CFI INIT 39240 60 .cfa: sp 0 +
STACK CFI INIT 392a0 48 .cfa: sp 0 +
STACK CFI 392bc .cfa: sp 32 +
STACK CFI 392c4 .cfa: x29 32 + x19: .cfa -16 + ^ .ra: .cfa -24 + ^ x29: .cfa -32 + ^
STACK CFI 392dc .cfa: sp 32 +
STACK CFI 392e4 .cfa: sp 0 +
STACK CFI INIT 392e8 50 .cfa: sp 0 +
STACK CFI INIT 39338 5c .cfa: sp 0 +
STACK CFI 3933c .cfa: sp 32 +
STACK CFI 39344 .cfa: x29 32 + x19: .cfa -16 + ^ .ra: .cfa -24 + ^ x29: .cfa -32 + ^
STACK CFI 3937c .cfa: sp 32 +
STACK CFI 39384 .cfa: sp 0 +
STACK CFI 39388 .cfa: sp 32 +
STACK CFI 39390 .cfa: sp 0 +
STACK CFI INIT 39394 58 .cfa: sp 0 +
STACK CFI 39398 .cfa: sp 32 +
STACK CFI 393a0 .cfa: x29 32 + x19: .cfa -16 + ^ .ra: .cfa -24 + ^ x29: .cfa -32 + ^
STACK CFI 393e0 .cfa: sp 32 +
STACK CFI 393e8 .cfa: sp 0 +
STACK CFI INIT 393ec 110 .cfa: sp 0 +
STACK CFI INIT 394fc 90 .cfa: sp 0 +
STACK CFI 39500 .cfa: sp 32 +
STACK CFI 39508 .cfa: x29 32 + x19: .cfa -8 + ^ x20: .cfa -16 + ^ .ra: .cfa -24 + ^ x29: .cfa -32 + ^
STACK CFI 39574 .cfa: sp 32 +
STACK CFI 3957c .cfa: sp 0 +
STACK CFI 39580 .cfa: sp 32 +
STACK CFI 39588 .cfa: sp 0 +
STACK CFI INIT 3958c 8c .cfa: sp 0 +
STACK CFI 39590 .cfa: sp 32 +
STACK CFI 39598 .cfa: x29 32 + x19: .cfa -8 + ^ x20: .cfa -16 + ^ .ra: .cfa -24 + ^ x29: .cfa -32 + ^
STACK CFI 3960c .cfa: sp 32 +
STACK CFI 39614 .cfa: sp 0 +
STACK CFI INIT 39c48 1c8 .cfa: sp 0 +
STACK CFI 39c4c .cfa: sp 48 +
STACK CFI 39c58 .cfa: x29 48 + x19: .cfa -8 + ^ x20: .cfa -16 + ^ x21: .cfa -24 + ^ x22: .cfa -32 + ^ .ra: .cfa -40 + ^ x29: .cfa -48 + ^
STACK CFI 39df8 .cfa: sp 48 +
STACK CFI 39e04 .cfa: sp 0 +
STACK CFI 39e08 .cfa: x29 48 +
STACK CFI INIT 39e10 14 .cfa: sp 0 +
STACK CFI 39e14 .cfa: sp 16 +
STACK CFI 39e18 .cfa: x29 16 + .ra: .cfa -8 + ^ x29: .cfa -16 + ^
STACK CFI INIT 39e24 44 .cfa: sp 0 +
STACK CFI 39e28 .cfa: sp 32 +
STACK CFI 39e30 .cfa: x29 32 + x19: .cfa -16 + ^ .ra: .cfa -24 + ^ x29: .cfa -32 + ^
STACK CFI 39e50 .cfa: sp 32 +
STACK CFI 39e58 .cfa: sp 0 +
STACK CFI 39e5c .cfa: sp 32 +
STACK CFI 39e64 .cfa: sp 0 +
STACK CFI INIT 3a078 88 .cfa: sp 0 +
STACK CFI 3a07c .cfa: sp 48 +
STACK CFI 3a088 .cfa: x29 48 + x19: .cfa -8 + ^ x20: .cfa -16 + ^ x21: .cfa -32 + ^ .ra: .cfa -40 + ^ x29: .cfa -48 + ^
STACK CFI 3a0e0 .cfa: sp 48 +
STACK CFI 3a0ec .cfa: sp 0 +
STACK CFI 3a0f0 .cfa: sp 48 +
STACK CFI 3a0fc .cfa: sp 0 +
STACK CFI INIT 3a100 1e0 .cfa: sp 0 +
STACK CFI 3a104 .cfa: sp 48 +
STACK CFI 3a110 .cfa: x29 48 + x19: .cfa -8 + ^ x20: .cfa -16 + ^ x21: .cfa -24 + ^ x22: .cfa -32 + ^ .ra: .cfa -40 + ^ x29: .cfa -48 + ^
STACK CFI 3a2c4 .cfa: sp 48 +
STACK CFI 3a2d0 .cfa: sp 0 +
STACK CFI 3a2d4 .cfa: x29 48 +
STACK CFI INIT 3a2e0 14 .cfa: sp 0 +
STACK CFI 3a2e4 .cfa: sp 16 +
STACK CFI 3a2e8 .cfa: x29 16 + .ra: .cfa -8 + ^ x29: .cfa -16 + ^
STACK CFI INIT 3a2f4 1a8 .cfa: sp 0 +
STACK CFI 3a2f8 .cfa: sp 64 +
STACK CFI 3a308 .cfa: x29 64 + x19: .cfa -8 + ^ x20: .cfa -16 + ^ x21: .cfa -24 + ^ x22: .cfa -32 + ^ x23: .cfa -40 + ^ x24: .cfa -48 + ^ .ra: .cfa -56 + ^ x29: .cfa -64 + ^
STACK CFI 3a46c .cfa: sp 64 +
STACK CFI 3a47c .cfa: sp 0 +
STACK CFI 3a480 .cfa: sp 64 +
STACK CFI 3a490 .cfa: sp 0 +
STACK CFI 3a494 .cfa: x29 64 +
STACK CFI INIT 3a49c 130 .cfa: sp 0 +
STACK CFI 3a4a0 .cfa: sp 64 +
STACK CFI 3a4b0 .cfa: x29 64 + x19: .cfa -8 + ^ x20: .cfa -16 + ^ x21: .cfa -24 + ^ x22: .cfa -32 + ^ x23: .cfa -40 + ^ x24: .cfa -48 + ^ .ra: .cfa -56 + ^ x29: .cfa -64 + ^
STACK CFI 3a598 .cfa: sp 64 +
STACK CFI 3a5a8 .cfa: sp 0 +
STACK CFI 3a5ac .cfa: sp 64 +
STACK CFI 3a5bc .cfa: sp 0 +
STACK CFI 3a5c0 .cfa: x29 64 +
STACK CFI INIT 3a5cc 14 .cfa: sp 0 +
STACK CFI 3a5d0 .cfa: sp 16 +
STACK CFI 3a5d4 .cfa: x29 16 + .ra: .cfa -8 + ^ x29: .cfa -16 + ^
STACK CFI INIT 3a780 68 .cfa: sp 0 +
STACK CFI 3a784 .cfa: sp 32 +
STACK CFI 3a78c .cfa: x29 32 + x19: .cfa -16 + ^ .ra: .cfa -24 + ^ x29: .cfa -32 + ^
STACK CFI 3a7dc .cfa: sp 32 +
STACK CFI 3a7e4 .cfa: sp 0 +
STACK CFI INIT 3a7e8 48 .cfa: sp 0 +
STACK CFI 3a804 .cfa: sp 32 +
STACK CFI 3a80c .cfa: x29 32 + x19: .cfa -16 + ^ .ra: .cfa -24 + ^ x29: .cfa -32 + ^
STACK CFI 3a824 .cfa: sp 32 +
STACK CFI 3a82c .cfa: sp 0 +
STACK CFI INIT 3a87c c8 .cfa: sp 0 +
STACK CFI 3a880 .cfa: sp 32 +
STACK CFI 3a888 .cfa: x29 32 + x19: .cfa -16 + ^ .ra: .cfa -24 + ^ x29: .cfa -32 + ^
STACK CFI 3a934 .cfa: sp 32 +
STACK CFI 3a93c .cfa: sp 0 +
STACK CFI 3a940 .cfa: x29 32 +
STACK CFI INIT 3ab48 468 .cfa: sp 0 +
STACK CFI 3ab4c .cfa: sp 32 +
STACK CFI 3ab54 .cfa: x29 32 + x19: .cfa -16 + ^ .ra: .cfa -24 + ^ x29: .cfa -32 + ^
STACK CFI 3af88 .cfa: sp 32 +
STACK CFI 3af90 .cfa: sp 0 +
STACK CFI 3af94 .cfa: x29 32 +
STACK CFI INIT 3b13c c8 .cfa: sp 0 +
STACK CFI 3b140 .cfa: sp 48 +
STACK CFI 3b14c .cfa: x29 48 + x19: .cfa -8 + ^ x20: .cfa -16 + ^ x21: .cfa -32 + ^ .ra: .cfa -40 + ^ x29: .cfa -48 + ^
STACK CFI 3b1f4 .cfa: sp 48 +
STACK CFI 3b200 .cfa: sp 0 +
STACK CFI INIT 3b204 5c .cfa: sp 0 +
STACK CFI 3b208 .cfa: sp 32 +
STACK CFI 3b210 .cfa: x29 32 + x19: .cfa -16 + ^ .ra: .cfa -24 + ^ x29: .cfa -32 + ^
STACK CFI 3b248 .cfa: sp 32 +
STACK CFI 3b250 .cfa: sp 0 +
STACK CFI 3b254 .cfa: sp 32 +
STACK CFI 3b25c .cfa: sp 0 +
STACK CFI INIT 3b260 58 .cfa: sp 0 +
STACK CFI 3b264 .cfa: sp 32 +
STACK CFI 3b26c .cfa: x29 32 + x19: .cfa -16 + ^ .ra: .cfa -24 + ^ x29: .cfa -32 + ^
STACK CFI 3b2ac .cfa: sp 32 +
STACK CFI 3b2b4 .cfa: sp 0 +
STACK CFI INIT 3b2b8 78 .cfa: sp 0 +
STACK CFI 3b2bc .cfa: sp 32 +
STACK CFI 3b2c4 .cfa: x29 32 + x19: .cfa -8 + ^ x20: .cfa -16 + ^ .ra: .cfa -24 + ^ x29: .cfa -32 + ^
STACK CFI 3b324 .cfa: sp 32 +
STACK CFI 3b32c .cfa: sp 0 +
STACK CFI INIT 3b330 5c .cfa: sp 0 +
STACK CFI 3b334 .cfa: sp 32 +
STACK CFI 3b33c .cfa: x29 32 + x19: .cfa -16 + ^ .ra: .cfa -24 + ^ x29: .cfa -32 + ^
STACK CFI 3b374 .cfa: sp 32 +
STACK CFI 3b37c .cfa: sp 0 +
STACK CFI 3b380 .cfa: sp 32 +
STACK CFI 3b388 .cfa: sp 0 +
STACK CFI INIT 3b38c 58 .cfa: sp 0 +
STACK CFI 3b390 .cfa: sp 32 +
STACK CFI 3b398 .cfa: x29 32 + x19: .cfa -16 + ^ .ra: .cfa -24 + ^ x29: .cfa -32 + ^
STACK CFI 3b3d8 .cfa: sp 32 +
STACK CFI 3b3e0 .cfa: sp 0 +
STACK CFI INIT 3b3e4 48 .cfa: sp 0 +
STACK CFI INIT 3b42c 48 .cfa: sp 0 +
STACK CFI 3b448 .cfa: sp 32 +
STACK CFI 3b450 .cfa: x29 32 + x19: .cfa -16 + ^ .ra: .cfa -24 + ^ x29: .cfa -32 + ^
STACK CFI 3b468 .cfa: sp 32 +
STACK CFI 3b470 .cfa: sp 0 +
STACK CFI INIT 3b474 48 .cfa: sp 0 +
STACK CFI INIT 3b4bc 5c .cfa: sp 0 +
STACK CFI 3b4c0 .cfa: sp 32 +
STACK CFI 3b4c8 .cfa: x29 32 + x19: .cfa -16 + ^ .ra: .cfa -24 + ^ x29: .cfa -32 + ^
STACK CFI 3b500 .cfa: sp 32 +
STACK CFI 3b508 .cfa: sp 0 +
STACK CFI 3b50c .cfa: sp 32 +
STACK CFI 3b514 .cfa: sp 0 +
STACK CFI INIT 3b518 58 .cfa: sp 0 +
STACK CFI 3b51c .cfa: sp 32 +
STACK CFI 3b524 .cfa: x29 32 + x19: .cfa -16 + ^ .ra: .cfa -24 + ^ x29: .cfa -32 + ^
STACK CFI 3b564 .cfa: sp 32 +
STACK CFI 3b56c .cfa: sp 0 +
STACK CFI INIT 3b570 e8 .cfa: sp 0 +
STACK CFI 3b574 .cfa: sp 64 +
STACK CFI 3b584 .cfa: x29 64 + x19: .cfa -8 + ^ x20: .cfa -16 + ^ x21: .cfa -24 + ^ x22: .cfa -32 + ^ x23: .cfa -40 + ^ x24: .cfa -48 + ^ .ra: .cfa -56 + ^ x29: .cfa -64 + ^
STACK CFI 3b644 .cfa: sp 64 +
STACK CFI 3b654 .cfa: sp 0 +
STACK CFI INIT 3b658 5c .cfa: sp 0 +
STACK CFI 3b65c .cfa: sp 32 +
STACK CFI 3b664 .cfa: x29 32 + x19: .cfa -16 + ^ .ra: .cfa -24 + ^ x29: .cfa -32 + ^
STACK CFI 3b69c .cfa: sp 32 +
STACK CFI 3b6a4 .cfa: sp 0 +
STACK CFI 3b6a8 .cfa: sp 32 +
STACK CFI 3b6b0 .cfa: sp 0 +
STACK CFI INIT 3b6b4 58 .cfa: sp 0 +
STACK CFI 3b6b8 .cfa: sp 32 +
STACK CFI 3b6c0 .cfa: x29 32 + x19: .cfa -16 + ^ .ra: .cfa -24 + ^ x29: .cfa -32 + ^
STACK CFI 3b700 .cfa: sp 32 +
STACK CFI 3b708 .cfa: sp 0 +
STACK CFI INIT 3b70c 90 .cfa: sp 0 +
STACK CFI INIT 3b79c 48 .cfa: sp 0 +
STACK CFI 3b7b8 .cfa: sp 32 +
STACK CFI 3b7c0 .cfa: x29 32 + x19: .cfa -16 + ^ .ra: .cfa -24 + ^ x29: .cfa -32 + ^
STACK CFI 3b7d8 .cfa: sp 32 +
STACK CFI 3b7e0 .cfa: sp 0 +
STACK CFI INIT 3b7e4 c8 .cfa: sp 0 +
STACK CFI 3b7e8 .cfa: sp 48 +
STACK CFI 3b7f4 .cfa: x29 48 + x19: .cfa -8 + ^ x20: .cfa -16 + ^ x21: .cfa -24 + ^ x22: .cfa -32 + ^ .ra: .cfa -40 + ^ x29: .cfa -48 + ^
STACK CFI 3b87c .cfa: sp 48 +
STACK CFI 3b888 .cfa: sp 0 +
STACK CFI 3b88c .cfa: x29 48 +
STACK CFI INIT 3b8ac 434 .cfa: sp 0 +
STACK CFI 3b8b0 .cfa: sp 80 +
STACK CFI 3b8c4 .cfa: x29 80 + x19: .cfa -8 + ^ x20: .cfa -16 + ^ x21: .cfa -24 + ^ x22: .cfa -32 + ^ x23: .cfa -40 + ^ x24: .cfa -48 + ^ x25: .cfa -64 + ^ .ra: .cfa -72 + ^ x29: .cfa -80 + ^
STACK CFI 3bcc0 .cfa: sp 80 +
STACK CFI 3bcd4 .cfa: sp 0 +
STACK CFI 3bcd8 .cfa: x29 80 +
STACK CFI INIT 3bea0 88 .cfa: sp 0 +
STACK CFI 3bea4 .cfa: sp 48 +
STACK CFI 3beb0 .cfa: x29 48 + x19: .cfa -8 + ^ x20: .cfa -16 + ^ x21: .cfa -32 + ^ .ra: .cfa -40 + ^ x29: .cfa -48 + ^
STACK CFI 3bf08 .cfa: sp 48 +
STACK CFI 3bf14 .cfa: sp 0 +
STACK CFI 3bf18 .cfa: sp 48 +
STACK CFI 3bf24 .cfa: sp 0 +
STACK CFI INIT 3bf28 140 .cfa: sp 0 +
STACK CFI 3bf2c .cfa: sp 48 +
STACK CFI 3bf38 .cfa: x29 48 + x19: .cfa -8 + ^ x20: .cfa -16 + ^ x21: .cfa -32 + ^ .ra: .cfa -40 + ^ x29: .cfa -48 + ^
STACK CFI 3c048 .cfa: sp 48 +
STACK CFI 3c054 .cfa: sp 0 +
STACK CFI 3c058 .cfa: sp 48 +
STACK CFI 3c064 .cfa: sp 0 +
STACK CFI INIT 3c068 24 .cfa: sp 0 +
STACK CFI 3c06c .cfa: sp 32 +
STACK CFI 3c074 .cfa: x29 32 + x19: .cfa -16 + ^ .ra: .cfa -24 + ^ x29: .cfa -32 + ^
STACK CFI 3c080 .cfa: sp 32 +
STACK CFI 3c088 .cfa: sp 0 +
STACK CFI INIT 3ca3c 44 .cfa: sp 0 +
STACK CFI 3ca40 .cfa: sp 32 +
STACK CFI 3ca48 .cfa: x29 32 + x19: .cfa -16 + ^ .ra: .cfa -24 + ^ x29: .cfa -32 + ^
STACK CFI 3ca64 .cfa: sp 32 +
STACK CFI 3ca6c .cfa: sp 0 +
STACK CFI 3ca70 .cfa: x29 32 +
STACK CFI 3ca74 .cfa: sp 32 +
STACK CFI 3ca7c .cfa: sp 0 +
STACK CFI INIT 3cd1c ac .cfa: sp 0 +
STACK CFI 3cd20 .cfa: sp 64 +
STACK CFI 3cd30 .cfa: x29 64 + x19: .cfa -8 + ^ x20: .cfa -16 + ^ x21: .cfa -24 + ^ x22: .cfa -32 + ^ x23: .cfa -48 + ^ .ra: .cfa -56 + ^ x29: .cfa -64 + ^
STACK CFI 3cdac .cfa: sp 64 +
STACK CFI 3cdbc .cfa: sp 0 +
STACK CFI 3cdc0 .cfa: x29 64 +
STACK CFI INIT 3cdc8 100 .cfa: sp 0 +
STACK CFI 3cdcc .cfa: sp 64 +
STACK CFI 3cddc .cfa: x29 64 + x19: .cfa -8 + ^ x20: .cfa -16 + ^ x21: .cfa -24 + ^ x22: .cfa -32 + ^ x23: .cfa -40 + ^ x24: .cfa -48 + ^ .ra: .cfa -56 + ^ x29: .cfa -64 + ^
STACK CFI 3ceac .cfa: sp 64 +
STACK CFI 3cebc .cfa: sp 0 +
STACK CFI 3cec0 .cfa: x29 64 +
STACK CFI INIT 3d08c 14 .cfa: sp 0 +
STACK CFI 3d090 .cfa: sp 16 +
STACK CFI 3d094 .cfa: x29 16 + .ra: .cfa -8 + ^ x29: .cfa -16 + ^
STACK CFI INIT 3d858 11c .cfa: sp 0 +
STACK CFI 3d85c .cfa: sp 80 +
STACK CFI 3d86c .cfa: x29 48 + x19: .cfa -8 + ^ x20: .cfa -16 + ^ x21: .cfa -24 + ^ x22: .cfa -32 + ^ .ra: .cfa -40 + ^ x29: .cfa -48 + ^
STACK CFI 3d934 .cfa: sp 80 +
STACK CFI 3d944 .cfa: sp 0 +
STACK CFI 3d948 .cfa: x29 48 +
STACK CFI INIT 3d974 16c .cfa: sp 0 +
STACK CFI 3d978 .cfa: sp 32 +
STACK CFI 3d980 .cfa: x29 32 + x19: .cfa -16 + ^ .ra: .cfa -24 + ^ x29: .cfa -32 + ^
STACK CFI 3da94 .cfa: sp 32 +
STACK CFI 3da9c .cfa: sp 0 +
STACK CFI 3daa0 .cfa: x29 32 +
STACK CFI 3dad0 .cfa: sp 32 +
STACK CFI 3dad8 .cfa: sp 0 +
STACK CFI 3dadc .cfa: x29 32 +
STACK CFI INIT 3dae0 348 .cfa: sp 0 +
STACK CFI 3dae4 .cfa: sp 32 +
STACK CFI 3daec .cfa: x29 32 + x19: .cfa -16 + ^ .ra: .cfa -24 + ^ x29: .cfa -32 + ^
STACK CFI 3dde4 .cfa: sp 32 +
STACK CFI 3ddec .cfa: sp 0 +
STACK CFI 3ddf0 .cfa: x29 32 +
STACK CFI INIT 3e298 3b8 .cfa: sp 0 +
STACK CFI 3e29c .cfa: sp 80 +
STACK CFI 3e2b0 .cfa: x29 80 + x19: .cfa -8 + ^ x20: .cfa -16 + ^ x21: .cfa -24 + ^ x22: .cfa -32 + ^ x23: .cfa -40 + ^ x24: .cfa -48 + ^ x25: .cfa -64 + ^ .ra: .cfa -72 + ^ x29: .cfa -80 + ^
STACK CFI 3e62c .cfa: sp 80 +
STACK CFI 3e640 .cfa: sp 0 +
STACK CFI 3e644 .cfa: x29 80 +
STACK CFI INIT 3ed1c 434 .cfa: sp 0 +
STACK CFI 3ed20 .cfa: sp 80 +
STACK CFI 3ed34 .cfa: x29 80 + x19: .cfa -8 + ^ x20: .cfa -16 + ^ x21: .cfa -24 + ^ x22: .cfa -32 + ^ x23: .cfa -40 + ^ x24: .cfa -48 + ^ x25: .cfa -64 + ^ .ra: .cfa -72 + ^ x29: .cfa -80 + ^
STACK CFI 3f130 .cfa: sp 80 +
STACK CFI 3f144 .cfa: sp 0 +
STACK CFI 3f148 .cfa: x29 80 +
STACK CFI INIT 3f350 1a0 .cfa: sp 0 +
STACK CFI 3f354 .cfa: sp 48 +
STACK CFI 3f360 .cfa: x29 48 + x19: .cfa -8 + ^ x20: .cfa -16 + ^ x21: .cfa -24 + ^ x22: .cfa -32 + ^ .ra: .cfa -40 + ^ x29: .cfa -48 + ^
STACK CFI 3f4d4 .cfa: sp 48 +
STACK CFI 3f4e0 .cfa: sp 0 +
STACK CFI 3f4e4 .cfa: x29 48 +
STACK CFI INIT 3f4f0 14 .cfa: sp 0 +
STACK CFI 3f4f4 .cfa: sp 16 +
STACK CFI 3f4f8 .cfa: x29 16 + .ra: .cfa -8 + ^ x29: .cfa -16 + ^
STACK CFI INIT 3f504 14 .cfa: sp 0 +
STACK CFI 3f508 .cfa: sp 16 +
STACK CFI 3f50c .cfa: x29 16 + .ra: .cfa -8 + ^ x29: .cfa -16 + ^
STACK CFI INIT 3f518 48 .cfa: sp 0 +
STACK CFI 3f534 .cfa: sp 32 +
STACK CFI 3f53c .cfa: x29 32 + x19: .cfa -16 + ^ .ra: .cfa -24 + ^ x29: .cfa -32 + ^
STACK CFI 3f554 .cfa: sp 32 +
STACK CFI 3f55c .cfa: sp 0 +
STACK CFI INIT 3f560 30 .cfa: sp 0 +
STACK CFI INIT 3f590 48 .cfa: sp 0 +
STACK CFI 3f5ac .cfa: sp 32 +
STACK CFI 3f5b4 .cfa: x29 32 + x19: .cfa -16 + ^ .ra: .cfa -24 + ^ x29: .cfa -32 + ^
STACK CFI 3f5cc .cfa: sp 32 +
STACK CFI 3f5d4 .cfa: sp 0 +
STACK CFI INIT 3f5d8 38 .cfa: sp 0 +
STACK CFI INIT 3f7e8 68 .cfa: sp 0 +
STACK CFI 3f7ec .cfa: sp 32 +
STACK CFI 3f7f4 .cfa: x29 32 + x19: .cfa -16 + ^ .ra: .cfa -24 + ^ x29: .cfa -32 + ^
STACK CFI 3f844 .cfa: sp 32 +
STACK CFI 3f84c .cfa: sp 0 +
STACK CFI INIT 3f850 1c4 .cfa: sp 0 +
STACK CFI INIT 3fa14 c4 .cfa: sp 0 +
STACK CFI INIT 3fad8 68 .cfa: sp 0 +
STACK CFI 3fadc .cfa: sp 32 +
STACK CFI 3fae4 .cfa: x29 32 + x19: .cfa -16 + ^ .ra: .cfa -24 + ^ x29: .cfa -32 + ^
STACK CFI 3fb34 .cfa: sp 32 +
STACK CFI 3fb3c .cfa: sp 0 +
STACK CFI INIT 3fb40 4 .cfa: sp 0 +
STACK CFI INIT 3fb44 14 .cfa: sp 0 +
STACK CFI INIT 3fb58 6c .cfa: sp 0 +
STACK CFI 3fb5c .cfa: sp 32 +
STACK CFI 3fb64 .cfa: x29 32 + x19: .cfa -16 + ^ .ra: .cfa -24 + ^ x29: .cfa -32 + ^
STACK CFI 3fbac .cfa: sp 32 +
STACK CFI 3fbb4 .cfa: sp 0 +
STACK CFI 3fbb8 .cfa: sp 32 +
STACK CFI 3fbc0 .cfa: sp 0 +
STACK CFI INIT 3fbc4 68 .cfa: sp 0 +
STACK CFI 3fbc8 .cfa: sp 32 +
STACK CFI 3fbd0 .cfa: x29 32 + x19: .cfa -16 + ^ .ra: .cfa -24 + ^ x29: .cfa -32 + ^
STACK CFI 3fc20 .cfa: sp 32 +
STACK CFI 3fc28 .cfa: sp 0 +
STACK CFI INIT 3fc2c c .cfa: sp 0 +
STACK CFI INIT 3fc38 24 .cfa: sp 0 +
STACK CFI INIT 3fc5c 4 .cfa: sp 0 +
STACK CFI INIT 3fc60 4 .cfa: sp 0 +
STACK CFI INIT 3fc64 14 .cfa: sp 0 +
STACK CFI INIT 3fcc4 1f4 .cfa: sp 0 +
STACK CFI 3fcc8 .cfa: sp 64 +
STACK CFI 3fcd8 .cfa: x29 64 + x19: .cfa -8 + ^ x20: .cfa -16 + ^ x21: .cfa -24 + ^ x22: .cfa -32 + ^ x23: .cfa -40 + ^ x24: .cfa -48 + ^ .ra: .cfa -56 + ^ x29: .cfa -64 + ^
STACK CFI 3fdc8 .cfa: sp 64 +
STACK CFI 3fdd8 .cfa: sp 0 +
STACK CFI 3fddc .cfa: x29 64 +
STACK CFI INIT 3feb8 23c .cfa: sp 0 +
STACK CFI 3febc .cfa: sp 32 +
STACK CFI 3fec4 .cfa: x29 32 + x19: .cfa -16 + ^ .ra: .cfa -24 + ^ x29: .cfa -32 + ^
STACK CFI 3fefc .cfa: sp 32 +
STACK CFI 3ff04 .cfa: sp 0 +
STACK CFI 3ff08 .cfa: x29 32 +
STACK CFI INIT 400f4 104 .cfa: sp 0 +
STACK CFI 400f8 .cfa: sp 32 +
STACK CFI 40100 .cfa: x29 32 + x19: .cfa -8 + ^ x20: .cfa -16 + ^ .ra: .cfa -24 + ^ x29: .cfa -32 + ^
STACK CFI 40120 .cfa: sp 32 +
STACK CFI 40128 .cfa: sp 0 +
STACK CFI 4012c .cfa: x29 32 +
STACK CFI 401ec .cfa: sp 32 +
STACK CFI 401f4 .cfa: sp 0 +
STACK CFI INIT 401f8 2c .cfa: sp 0 +
STACK CFI INIT 40224 48 .cfa: sp 0 +
STACK CFI 40240 .cfa: sp 32 +
STACK CFI 40248 .cfa: x29 32 + x19: .cfa -16 + ^ .ra: .cfa -24 + ^ x29: .cfa -32 + ^
STACK CFI 40260 .cfa: sp 32 +
STACK CFI 40268 .cfa: sp 0 +
STACK CFI INIT 4026c 40 .cfa: sp 0 +
STACK CFI INIT 402ac 60 .cfa: sp 0 +
STACK CFI 402b0 .cfa: sp 16 +
STACK CFI 402b4 .cfa: x29 16 + .ra: .cfa -8 + ^ x29: .cfa -16 + ^
STACK CFI 402f4 .cfa: sp 16 +
STACK CFI 402f8 .cfa: sp 0 +
STACK CFI 402fc .cfa: x29 16 +
STACK CFI 40300 .cfa: sp 16 +
STACK CFI 40304 .cfa: sp 0 +
STACK CFI 40308 .cfa: x29 16 +
STACK CFI INIT 4030c 1fc .cfa: sp 0 +
STACK CFI 40310 .cfa: sp 80 +
STACK CFI 40324 .cfa: x29 80 + x19: .cfa -8 + ^ x20: .cfa -16 + ^ x21: .cfa -24 + ^ x22: .cfa -32 + ^ x23: .cfa -40 + ^ x24: .cfa -48 + ^ x25: .cfa -64 + ^ .ra: .cfa -72 + ^ x29: .cfa -80 + ^
STACK CFI 404d0 .cfa: sp 80 +
STACK CFI 404e4 .cfa: sp 0 +
STACK CFI 404e8 .cfa: x29 80 +
STACK CFI 404ec .cfa: sp 80 +
STACK CFI 40500 .cfa: sp 0 +
STACK CFI 40504 .cfa: x29 80 +
STACK CFI INIT 40508 120 .cfa: sp 0 +
STACK CFI 4050c .cfa: sp 48 +
STACK CFI 40518 .cfa: x29 48 + x19: .cfa -8 + ^ x20: .cfa -16 + ^ x21: .cfa -32 + ^ .ra: .cfa -40 + ^ x29: .cfa -48 + ^
STACK CFI 405dc .cfa: sp 48 +
STACK CFI 405e8 .cfa: sp 0 +
STACK CFI 405ec .cfa: x29 48 +
STACK CFI 40618 .cfa: sp 48 +
STACK CFI 40624 .cfa: sp 0 +
STACK CFI INIT 40628 d0 .cfa: sp 0 +
STACK CFI 4062c .cfa: sp 32 +
STACK CFI 40634 .cfa: x29 32 + x19: .cfa -16 + ^ .ra: .cfa -24 + ^ x29: .cfa -32 + ^
STACK CFI 406a4 .cfa: sp 32 +
STACK CFI 406ac .cfa: sp 0 +
STACK CFI 406b0 .cfa: x29 32 +
STACK CFI 406c8 .cfa: sp 32 +
STACK CFI 406d0 .cfa: sp 0 +
STACK CFI 406d4 .cfa: x29 32 +
STACK CFI INIT 40b74 4 .cfa: sp 0 +
STACK CFI INIT 41204 14 .cfa: sp 0 +
STACK CFI 41208 .cfa: sp 16 +
STACK CFI 4120c .cfa: x29 16 + .ra: .cfa -8 + ^ x29: .cfa -16 + ^
STACK CFI INIT 41238 84 .cfa: sp 0 +
STACK CFI 4123c .cfa: sp 80 +
STACK CFI 4124c .cfa: x29 48 + x19: .cfa -8 + ^ x20: .cfa -16 + ^ x21: .cfa -24 + ^ x22: .cfa -32 + ^ .ra: .cfa -40 + ^ x29: .cfa -48 + ^
STACK CFI 412a4 .cfa: sp 80 +
STACK CFI 412b4 .cfa: sp 0 +
STACK CFI 412b8 .cfa: x29 48 +
STACK CFI INIT 412bc d0 .cfa: sp 0 +
STACK CFI 412c0 .cfa: sp 128 +
STACK CFI 412d0 .cfa: x29 48 + x19: .cfa -8 + ^ x20: .cfa -16 + ^ x21: .cfa -24 + ^ x22: .cfa -32 + ^ .ra: .cfa -40 + ^ x29: .cfa -48 + ^
STACK CFI 41374 .cfa: sp 128 +
STACK CFI 41384 .cfa: sp 0 +
STACK CFI 41388 .cfa: x29 48 +
STACK CFI INIT 414ec 4a4 .cfa: sp 0 +
STACK CFI 414f0 .cfa: sp 96 +
STACK CFI 41508 .cfa: x29 96 + x19: .cfa -8 + ^ x20: .cfa -16 + ^ x21: .cfa -24 + ^ x22: .cfa -32 + ^ x23: .cfa -40 + ^ x24: .cfa -48 + ^ x25: .cfa -56 + ^ x26: .cfa -64 + ^ x27: .cfa -72 + ^ x28: .cfa -80 + ^ .ra: .cfa -88 + ^ x29: .cfa -96 + ^
STACK CFI 41940 .cfa: sp 96 +
STACK CFI 41958 .cfa: sp 0 +
STACK CFI 4195c .cfa: x29 96 +
STACK CFI INIT 41990 1a4 .cfa: sp 0 +
STACK CFI 41994 .cfa: sp 64 +
STACK CFI 419a0 .cfa: x29 32 + x19: .cfa -8 + ^ x20: .cfa -16 + ^ .ra: .cfa -24 + ^ x29: .cfa -32 + ^
STACK CFI 41acc .cfa: sp 64 +
STACK CFI 41ad8 .cfa: sp 0 +
STACK CFI 41adc .cfa: x29 32 +
STACK CFI INIT 41b34 17c .cfa: sp 0 +
STACK CFI 41b38 .cfa: sp 16 +
STACK CFI 41b3c .cfa: x29 16 + .ra: .cfa -8 + ^ x29: .cfa -16 + ^
STACK CFI 41c90 .cfa: sp 16 +
STACK CFI 41c94 .cfa: sp 0 +
STACK CFI 41c98 .cfa: x29 16 +
STACK CFI INIT 41cb0 114 .cfa: sp 0 +
STACK CFI 41cb4 .cfa: sp 128 +
STACK CFI 41cc4 .cfa: x29 48 + x19: .cfa -8 + ^ x20: .cfa -16 + ^ x21: .cfa -32 + ^ .ra: .cfa -40 + ^ x29: .cfa -48 + ^
STACK CFI 41d90 .cfa: sp 128 +
STACK CFI 41da0 .cfa: sp 0 +
STACK CFI 41da4 .cfa: x29 48 +
STACK CFI INIT 41dc4 114 .cfa: sp 0 +
STACK CFI 41dc8 .cfa: sp 128 +
STACK CFI 41dd8 .cfa: x29 48 + x19: .cfa -8 + ^ x20: .cfa -16 + ^ x21: .cfa -32 + ^ .ra: .cfa -40 + ^ x29: .cfa -48 + ^
STACK CFI 41ea4 .cfa: sp 128 +
STACK CFI 41eb4 .cfa: sp 0 +
STACK CFI 41eb8 .cfa: x29 48 +
STACK CFI INIT 41ed8 27c .cfa: sp 0 +
STACK CFI 41edc .cfa: sp 176 +
STACK CFI 41ef8 .cfa: x29 96 + x19: .cfa -8 + ^ x20: .cfa -16 + ^ x21: .cfa -24 + ^ x22: .cfa -32 + ^ x23: .cfa -40 + ^ x24: .cfa -48 + ^ x25: .cfa -56 + ^ x26: .cfa -64 + ^ x27: .cfa -72 + ^ x28: .cfa -80 + ^ .ra: .cfa -88 + ^ x29: .cfa -96 + ^
STACK CFI 42130 .cfa: sp 176 +
STACK CFI 4214c .cfa: sp 0 +
STACK CFI 42150 .cfa: x29 96 +
STACK CFI INIT 42154 200 .cfa: sp 0 +
STACK CFI 42158 .cfa: sp 144 +
STACK CFI 42174 .cfa: x29 96 + x19: .cfa -8 + ^ x20: .cfa -16 + ^ x21: .cfa -24 + ^ x22: .cfa -32 + ^ x23: .cfa -40 + ^ x24: .cfa -48 + ^ x25: .cfa -56 + ^ x26: .cfa -64 + ^ x27: .cfa -72 + ^ x28: .cfa -80 + ^ .ra: .cfa -88 + ^ x29: .cfa -96 + ^
STACK CFI 42330 .cfa: sp 144 +
STACK CFI 4234c .cfa: sp 0 +
STACK CFI 42350 .cfa: x29 96 +
STACK CFI INIT 42354 20c .cfa: sp 0 +
STACK CFI 42358 .cfa: sp 80 +
STACK CFI 4236c .cfa: x29 80 + x19: .cfa -8 + ^ x20: .cfa -16 + ^ x21: .cfa -24 + ^ x22: .cfa -32 + ^ x23: .cfa -40 + ^ x24: .cfa -48 + ^ x25: .cfa -64 + ^ .ra: .cfa -72 + ^ x29: .cfa -80 + ^
STACK CFI 423fc .cfa: sp 80 +
STACK CFI 42410 .cfa: sp 0 +
STACK CFI 42414 .cfa: x29 80 +
STACK CFI 42420 .cfa: sp 80 +
STACK CFI 42434 .cfa: sp 0 +
STACK CFI 42438 .cfa: x29 80 +
STACK CFI INIT 42560 3ac .cfa: sp 0 +
STACK CFI 42564 .cfa: sp 128 +
STACK CFI 42580 .cfa: x29 96 + x19: .cfa -8 + ^ x20: .cfa -16 + ^ x21: .cfa -24 + ^ x22: .cfa -32 + ^ x23: .cfa -40 + ^ x24: .cfa -48 + ^ x25: .cfa -56 + ^ x26: .cfa -64 + ^ x27: .cfa -72 + ^ x28: .cfa -80 + ^ .ra: .cfa -88 + ^ x29: .cfa -96 + ^
STACK CFI 428e8 .cfa: sp 128 +
STACK CFI 42904 .cfa: sp 0 +
STACK CFI 42908 .cfa: x29 96 +
STACK CFI INIT 4290c 194 .cfa: sp 0 +
STACK CFI 42910 .cfa: sp 32 +
STACK CFI 42918 .cfa: x29 16 + .ra: .cfa -8 + ^ x29: .cfa -16 + ^
STACK CFI 4295c .cfa: sp 32 +
STACK CFI 42964 .cfa: sp 0 +
STACK CFI 42968 .cfa: x29 16 +
STACK CFI INIT 42aa0 17c .cfa: sp 0 +
STACK CFI 42aa4 .cfa: sp 80 +
STACK CFI 42ab8 .cfa: x29 80 + x19: .cfa -8 + ^ x20: .cfa -16 + ^ x21: .cfa -24 + ^ x22: .cfa -32 + ^ x23: .cfa -40 + ^ x24: .cfa -48 + ^ x25: .cfa -64 + ^ .ra: .cfa -72 + ^ x29: .cfa -80 + ^
STACK CFI 42bc0 .cfa: sp 80 +
STACK CFI 42bd4 .cfa: sp 0 +
STACK CFI 42bd8 .cfa: x29 80 +
STACK CFI INIT 42c1c 1b8 .cfa: sp 0 +
STACK CFI INIT 42dd4 1d0 .cfa: sp 0 +
STACK CFI 42dd8 .cfa: sp 80 +
STACK CFI 42dec .cfa: x29 80 + x19: .cfa -8 + ^ x20: .cfa -16 + ^ x21: .cfa -24 + ^ x22: .cfa -32 + ^ x23: .cfa -40 + ^ x24: .cfa -48 + ^ x25: .cfa -56 + ^ x26: .cfa -64 + ^ .ra: .cfa -72 + ^ x29: .cfa -80 + ^
STACK CFI 42f8c .cfa: sp 80 +
STACK CFI 42fa0 .cfa: sp 0 +
STACK CFI INIT 42fa4 380 .cfa: sp 0 +
STACK CFI 42fa8 .cfa: sp 144 +
STACK CFI 42fc4 .cfa: x29 96 + x19: .cfa -8 + ^ x20: .cfa -16 + ^ x21: .cfa -24 + ^ x22: .cfa -32 + ^ x23: .cfa -40 + ^ x24: .cfa -48 + ^ x25: .cfa -56 + ^ x26: .cfa -64 + ^ x27: .cfa -72 + ^ x28: .cfa -80 + ^ .ra: .cfa -88 + ^ x29: .cfa -96 + ^
STACK CFI 43300 .cfa: sp 144 +
STACK CFI 4331c .cfa: sp 0 +
STACK CFI 43320 .cfa: x29 96 +
STACK CFI INIT 43324 1e4 .cfa: sp 0 +
STACK CFI 43328 .cfa: sp 32 +
STACK CFI 43330 .cfa: x29 32 + x19: .cfa -8 + ^ x20: .cfa -16 + ^ .ra: .cfa -24 + ^ x29: .cfa -32 + ^
STACK CFI 43420 .cfa: sp 32 +
STACK CFI 43428 .cfa: sp 0 +
STACK CFI 4342c .cfa: x29 32 +
STACK CFI 434a0 .cfa: sp 32 +
STACK CFI 434a8 .cfa: sp 0 +
STACK CFI 434ac .cfa: x29 32 +
STACK CFI 434bc .cfa: sp 32 +
STACK CFI 434c4 .cfa: sp 0 +
STACK CFI 434c8 .cfa: x29 32 +
STACK CFI 434d8 .cfa: sp 32 +
STACK CFI 434e0 .cfa: sp 0 +
STACK CFI 434e4 .cfa: x29 32 +
STACK CFI INIT 43508 178 .cfa: sp 0 +
STACK CFI 4350c .cfa: sp 80 +
STACK CFI 43520 .cfa: x29 64 + x19: .cfa -8 + ^ x20: .cfa -16 + ^ x21: .cfa -24 + ^ x22: .cfa -32 + ^ x23: .cfa -40 + ^ x24: .cfa -48 + ^ .ra: .cfa -56 + ^ x29: .cfa -64 + ^
STACK CFI 43664 .cfa: sp 80 +
STACK CFI 43678 .cfa: sp 0 +
STACK CFI 4367c .cfa: x29 64 +
STACK CFI INIT 43680 178 .cfa: sp 0 +
STACK CFI 43684 .cfa: sp 80 +
STACK CFI 43698 .cfa: x29 64 + x19: .cfa -8 + ^ x20: .cfa -16 + ^ x21: .cfa -24 + ^ x22: .cfa -32 + ^ x23: .cfa -40 + ^ x24: .cfa -48 + ^ .ra: .cfa -56 + ^ x29: .cfa -64 + ^
STACK CFI 437dc .cfa: sp 80 +
STACK CFI 437f0 .cfa: sp 0 +
STACK CFI 437f4 .cfa: x29 64 +
STACK CFI INIT 437f8 178 .cfa: sp 0 +
STACK CFI 437fc .cfa: sp 80 +
STACK CFI 43810 .cfa: x29 64 + x19: .cfa -8 + ^ x20: .cfa -16 + ^ x21: .cfa -24 + ^ x22: .cfa -32 + ^ x23: .cfa -40 + ^ x24: .cfa -48 + ^ .ra: .cfa -56 + ^ x29: .cfa -64 + ^
STACK CFI 43954 .cfa: sp 80 +
STACK CFI 43968 .cfa: sp 0 +
STACK CFI 4396c .cfa: x29 64 +
STACK CFI INIT 43970 94 .cfa: sp 0 +
STACK CFI 43974 .cfa: sp 16 +
STACK CFI 43978 .cfa: x29 16 + .ra: .cfa -8 + ^ x29: .cfa -16 + ^
STACK CFI 439cc .cfa: sp 16 +
STACK CFI 439d0 .cfa: sp 0 +
STACK CFI 439d4 .cfa: x29 16 +
STACK CFI INIT 43a04 158 .cfa: sp 0 +
STACK CFI 43a08 .cfa: sp 112 +
STACK CFI 43a24 .cfa: x29 96 + x19: .cfa -8 + ^ x20: .cfa -16 + ^ x21: .cfa -24 + ^ x22: .cfa -32 + ^ x23: .cfa -40 + ^ x24: .cfa -48 + ^ x25: .cfa -56 + ^ x26: .cfa -64 + ^ x27: .cfa -72 + ^ x28: .cfa -80 + ^ .ra: .cfa -88 + ^ x29: .cfa -96 + ^
STACK CFI 43b0c .cfa: sp 112 +
STACK CFI 43b10 .cfa: x29 96 +
STACK CFI 43b18 .cfa: sp 112 +
STACK CFI 43b34 .cfa: sp 0 +
STACK CFI 43b38 .cfa: x29 96 +
STACK CFI 43b58 .cfa: sp 112 +
STACK CFI INIT 43b5c 94 .cfa: sp 0 +
STACK CFI 43b60 .cfa: sp 16 +
STACK CFI 43b64 .cfa: x29 16 + .ra: .cfa -8 + ^ x29: .cfa -16 + ^
STACK CFI 43bb8 .cfa: sp 16 +
STACK CFI 43bbc .cfa: sp 0 +
STACK CFI 43bc0 .cfa: x29 16 +
STACK CFI INIT 43d18 258 .cfa: sp 0 +
STACK CFI 43d1c .cfa: sp 80 +
STACK CFI 43d30 .cfa: x29 80 + x19: .cfa -8 + ^ x20: .cfa -16 + ^ x21: .cfa -24 + ^ x22: .cfa -32 + ^ x23: .cfa -40 + ^ x24: .cfa -48 + ^ x25: .cfa -64 + ^ .ra: .cfa -72 + ^ x29: .cfa -80 + ^
STACK CFI 43f58 .cfa: sp 80 +
STACK CFI 43f6c .cfa: sp 0 +
STACK CFI INIT 43f70 1bc .cfa: sp 0 +
STACK CFI 43f74 .cfa: sp 64 +
STACK CFI 43f84 .cfa: x29 64 + x19: .cfa -8 + ^ x20: .cfa -16 + ^ x21: .cfa -24 + ^ x22: .cfa -32 + ^ x23: .cfa -40 + ^ x24: .cfa -48 + ^ .ra: .cfa -56 + ^ x29: .cfa -64 + ^
STACK CFI 44118 .cfa: sp 64 +
STACK CFI 44128 .cfa: sp 0 +
STACK CFI INIT 45060 154 .cfa: sp 0 +
STACK CFI 45064 .cfa: sp 64 +
STACK CFI 45074 .cfa: x29 64 + x19: .cfa -8 + ^ x20: .cfa -16 + ^ x21: .cfa -24 + ^ x22: .cfa -32 + ^ x23: .cfa -48 + ^ .ra: .cfa -56 + ^ x29: .cfa -64 + ^
STACK CFI 451a0 .cfa: sp 64 +
STACK CFI 451b0 .cfa: sp 0 +
STACK CFI INIT 451b4 7c .cfa: sp 0 +
STACK CFI 451b8 .cfa: sp 48 +
STACK CFI 451c4 .cfa: x29 48 + x19: .cfa -8 + ^ x20: .cfa -16 + ^ x21: .cfa -32 + ^ .ra: .cfa -40 + ^ x29: .cfa -48 + ^
STACK CFI 45210 .cfa: sp 48 +
STACK CFI 4521c .cfa: sp 0 +
STACK CFI 45220 .cfa: sp 48 +
STACK CFI 4522c .cfa: sp 0 +
STACK CFI INIT 456ec 188 .cfa: sp 0 +
STACK CFI 456f0 .cfa: sp 80 +
STACK CFI 45704 .cfa: x29 80 + x19: .cfa -8 + ^ x20: .cfa -16 + ^ x21: .cfa -24 + ^ x22: .cfa -32 + ^ x23: .cfa -40 + ^ x24: .cfa -48 + ^ x25: .cfa -64 + ^ .ra: .cfa -72 + ^ x29: .cfa -80 + ^
STACK CFI 45858 .cfa: sp 80 +
STACK CFI 4586c .cfa: sp 0 +
STACK CFI 45870 .cfa: x29 80 +
STACK CFI INIT 45874 18c .cfa: sp 0 +
STACK CFI 45878 .cfa: sp 64 +
STACK CFI 45888 .cfa: x29 64 + x19: .cfa -8 + ^ x20: .cfa -16 + ^ x21: .cfa -24 + ^ x22: .cfa -32 + ^ x23: .cfa -40 + ^ x24: .cfa -48 + ^ .ra: .cfa -56 + ^ x29: .cfa -64 + ^
STACK CFI 459e8 .cfa: sp 64 +
STACK CFI 459f8 .cfa: sp 0 +
STACK CFI 459fc .cfa: x29 64 +
STACK CFI INIT 45a00 18c .cfa: sp 0 +
STACK CFI 45a04 .cfa: sp 64 +
STACK CFI 45a14 .cfa: x29 64 + x19: .cfa -8 + ^ x20: .cfa -16 + ^ x21: .cfa -24 + ^ x22: .cfa -32 + ^ x23: .cfa -40 + ^ x24: .cfa -48 + ^ .ra: .cfa -56 + ^ x29: .cfa -64 + ^
STACK CFI 45b74 .cfa: sp 64 +
STACK CFI 45b84 .cfa: sp 0 +
STACK CFI 45b88 .cfa: x29 64 +
STACK CFI INIT 45f70 18c .cfa: sp 0 +
STACK CFI 45f74 .cfa: sp 64 +
STACK CFI 45f84 .cfa: x29 64 + x19: .cfa -8 + ^ x20: .cfa -16 + ^ x21: .cfa -24 + ^ x22: .cfa -32 + ^ x23: .cfa -40 + ^ x24: .cfa -48 + ^ .ra: .cfa -56 + ^ x29: .cfa -64 + ^
STACK CFI 460e4 .cfa: sp 64 +
STACK CFI 460f4 .cfa: sp 0 +
STACK CFI 460f8 .cfa: x29 64 +
STACK CFI INIT 460fc 200 .cfa: sp 0 +
STACK CFI 46100 .cfa: sp 64 +
STACK CFI 46110 .cfa: x29 64 + x19: .cfa -8 + ^ x20: .cfa -16 + ^ x21: .cfa -24 + ^ x22: .cfa -32 + ^ x23: .cfa -48 + ^ .ra: .cfa -56 + ^ x29: .cfa -64 + ^
STACK CFI 462e0 .cfa: sp 64 +
STACK CFI 462f0 .cfa: sp 0 +
STACK CFI 462f4 .cfa: x29 64 +
STACK CFI INIT 462fc 2dc .cfa: sp 0 +
STACK CFI 46300 .cfa: sp 64 +
STACK CFI 46310 .cfa: x29 64 + x19: .cfa -8 + ^ x20: .cfa -16 + ^ x21: .cfa -24 + ^ x22: .cfa -32 + ^ x23: .cfa -48 + ^ .ra: .cfa -56 + ^ x29: .cfa -64 + ^
STACK CFI 46470 .cfa: sp 64 +
STACK CFI 46480 .cfa: sp 0 +
STACK CFI 46484 .cfa: x29 64 +
STACK CFI INIT 465d8 198 .cfa: sp 0 +
STACK CFI 465dc .cfa: sp 64 +
STACK CFI 465ec .cfa: x29 64 + x19: .cfa -8 + ^ x20: .cfa -16 + ^ x21: .cfa -24 + ^ x22: .cfa -32 + ^ x23: .cfa -48 + ^ .ra: .cfa -56 + ^ x29: .cfa -64 + ^
STACK CFI 46740 .cfa: sp 64 +
STACK CFI 46750 .cfa: sp 0 +
STACK CFI 46754 .cfa: sp 64 +
STACK CFI 46764 .cfa: sp 0 +
STACK CFI 46768 .cfa: x29 64 +
STACK CFI INIT 46770 14 .cfa: sp 0 +
STACK CFI 46774 .cfa: sp 16 +
STACK CFI 46778 .cfa: x29 16 + .ra: .cfa -8 + ^ x29: .cfa -16 + ^
STACK CFI INIT 46784 84 .cfa: sp 0 +
STACK CFI 46788 .cfa: sp 48 +
STACK CFI 46794 .cfa: x29 48 + x19: .cfa -8 + ^ x20: .cfa -16 + ^ x21: .cfa -32 + ^ .ra: .cfa -40 + ^ x29: .cfa -48 + ^
STACK CFI 467f8 .cfa: sp 48 +
STACK CFI 46804 .cfa: sp 0 +
STACK CFI INIT 46c4c 1c .cfa: sp 0 +
STACK CFI INIT 46fcc 4 .cfa: sp 0 +
STACK CFI INIT 47df0 78 .cfa: sp 0 +
STACK CFI 47df4 .cfa: sp 48 +
STACK CFI 47e00 .cfa: x29 48 + x19: .cfa -8 + ^ x20: .cfa -16 + ^ x21: .cfa -32 + ^ .ra: .cfa -40 + ^ x29: .cfa -48 + ^
STACK CFI 47e48 .cfa: sp 48 +
STACK CFI 47e54 .cfa: sp 0 +
STACK CFI 47e58 .cfa: sp 48 +
STACK CFI 47e64 .cfa: sp 0 +
STACK CFI INIT 47e68 78 .cfa: sp 0 +
STACK CFI 47e6c .cfa: sp 48 +
STACK CFI 47e78 .cfa: x29 48 + x19: .cfa -8 + ^ x20: .cfa -16 + ^ x21: .cfa -32 + ^ .ra: .cfa -40 + ^ x29: .cfa -48 + ^
STACK CFI 47ec0 .cfa: sp 48 +
STACK CFI 47ecc .cfa: sp 0 +
STACK CFI 47ed0 .cfa: sp 48 +
STACK CFI 47edc .cfa: sp 0 +
STACK CFI INIT 47ee0 84 .cfa: sp 0 +
STACK CFI 47ee4 .cfa: sp 48 +
STACK CFI 47ef0 .cfa: x29 48 + x19: .cfa -8 + ^ x20: .cfa -16 + ^ x21: .cfa -24 + ^ x22: .cfa -32 + ^ .ra: .cfa -40 + ^ x29: .cfa -48 + ^
STACK CFI 47f44 .cfa: sp 48 +
STACK CFI 47f50 .cfa: sp 0 +
STACK CFI 47f54 .cfa: sp 48 +
STACK CFI 47f60 .cfa: sp 0 +
STACK CFI INIT 47f80 8c .cfa: sp 0 +
STACK CFI 47f84 .cfa: sp 48 +
STACK CFI 47f90 .cfa: x29 48 + x19: .cfa -8 + ^ x20: .cfa -16 + ^ x21: .cfa -24 + ^ x22: .cfa -32 + ^ .ra: .cfa -40 + ^ x29: .cfa -48 + ^
STACK CFI 47fc8 .cfa: sp 48 +
STACK CFI 47fd4 .cfa: sp 0 +
STACK CFI 47fd8 .cfa: x29 48 +
STACK CFI 47ffc .cfa: sp 48 +
STACK CFI 48008 .cfa: sp 0 +
STACK CFI INIT 4800c 78 .cfa: sp 0 +
STACK CFI 48010 .cfa: sp 48 +
STACK CFI 4801c .cfa: x29 48 + x19: .cfa -8 + ^ x20: .cfa -16 + ^ x21: .cfa -32 + ^ .ra: .cfa -40 + ^ x29: .cfa -48 + ^
STACK CFI 48064 .cfa: sp 48 +
STACK CFI 48070 .cfa: sp 0 +
STACK CFI 48074 .cfa: sp 48 +
STACK CFI 48080 .cfa: sp 0 +
STACK CFI INIT 48084 8c .cfa: sp 0 +
STACK CFI 48088 .cfa: sp 48 +
STACK CFI 48094 .cfa: x29 48 + x19: .cfa -8 + ^ x20: .cfa -16 + ^ x21: .cfa -24 + ^ x22: .cfa -32 + ^ .ra: .cfa -40 + ^ x29: .cfa -48 + ^
STACK CFI 480cc .cfa: sp 48 +
STACK CFI 480d8 .cfa: sp 0 +
STACK CFI 480dc .cfa: x29 48 +
STACK CFI 48100 .cfa: sp 48 +
STACK CFI 4810c .cfa: sp 0 +
STACK CFI INIT 48110 78 .cfa: sp 0 +
STACK CFI 48114 .cfa: sp 48 +
STACK CFI 48120 .cfa: x29 48 + x19: .cfa -8 + ^ x20: .cfa -16 + ^ x21: .cfa -32 + ^ .ra: .cfa -40 + ^ x29: .cfa -48 + ^
STACK CFI 48168 .cfa: sp 48 +
STACK CFI 48174 .cfa: sp 0 +
STACK CFI 48178 .cfa: sp 48 +
STACK CFI 48184 .cfa: sp 0 +
STACK CFI INIT 48188 104 .cfa: sp 0 +
STACK CFI 4818c .cfa: sp 64 +
STACK CFI 4819c .cfa: x29 64 + x19: .cfa -8 + ^ x20: .cfa -16 + ^ x21: .cfa -24 + ^ x22: .cfa -32 + ^ x23: .cfa -48 + ^ .ra: .cfa -56 + ^ x29: .cfa -64 + ^
STACK CFI 48264 .cfa: sp 64 +
STACK CFI 48274 .cfa: sp 0 +
STACK CFI 48278 .cfa: sp 64 +
STACK CFI 48288 .cfa: sp 0 +
STACK CFI INIT 486cc 78 .cfa: sp 0 +
STACK CFI 486d0 .cfa: sp 48 +
STACK CFI 486dc .cfa: x29 48 + x19: .cfa -8 + ^ x20: .cfa -16 + ^ x21: .cfa -32 + ^ .ra: .cfa -40 + ^ x29: .cfa -48 + ^
STACK CFI 48724 .cfa: sp 48 +
STACK CFI 48730 .cfa: sp 0 +
STACK CFI 48734 .cfa: sp 48 +
STACK CFI 48740 .cfa: sp 0 +
STACK CFI INIT 48760 90 .cfa: sp 0 +
STACK CFI 48764 .cfa: sp 48 +
STACK CFI 48770 .cfa: x29 48 + x19: .cfa -8 + ^ x20: .cfa -16 + ^ x21: .cfa -24 + ^ x22: .cfa -32 + ^ .ra: .cfa -40 + ^ x29: .cfa -48 + ^
STACK CFI 487a8 .cfa: sp 48 +
STACK CFI 487b4 .cfa: sp 0 +
STACK CFI 487b8 .cfa: x29 48 +
STACK CFI 487e0 .cfa: sp 48 +
STACK CFI 487ec .cfa: sp 0 +
STACK CFI INIT 48920 78 .cfa: sp 0 +
STACK CFI 48924 .cfa: sp 48 +
STACK CFI 48930 .cfa: x29 48 + x19: .cfa -8 + ^ x20: .cfa -16 + ^ x21: .cfa -32 + ^ .ra: .cfa -40 + ^ x29: .cfa -48 + ^
STACK CFI 48978 .cfa: sp 48 +
STACK CFI 48984 .cfa: sp 0 +
STACK CFI 48988 .cfa: sp 48 +
STACK CFI 48994 .cfa: sp 0 +
STACK CFI INIT 48998 78 .cfa: sp 0 +
STACK CFI 4899c .cfa: sp 48 +
STACK CFI 489a8 .cfa: x29 48 + x19: .cfa -8 + ^ x20: .cfa -16 + ^ x21: .cfa -32 + ^ .ra: .cfa -40 + ^ x29: .cfa -48 + ^
STACK CFI 489f0 .cfa: sp 48 +
STACK CFI 489fc .cfa: sp 0 +
STACK CFI 48a00 .cfa: sp 48 +
STACK CFI 48a0c .cfa: sp 0 +
STACK CFI INIT 48a10 78 .cfa: sp 0 +
STACK CFI 48a14 .cfa: sp 48 +
STACK CFI 48a20 .cfa: x29 48 + x19: .cfa -8 + ^ x20: .cfa -16 + ^ x21: .cfa -32 + ^ .ra: .cfa -40 + ^ x29: .cfa -48 + ^
STACK CFI 48a68 .cfa: sp 48 +
STACK CFI 48a74 .cfa: sp 0 +
STACK CFI 48a78 .cfa: sp 48 +
STACK CFI 48a84 .cfa: sp 0 +
STACK CFI INIT 48a88 78 .cfa: sp 0 +
STACK CFI 48a8c .cfa: sp 48 +
STACK CFI 48a98 .cfa: x29 48 + x19: .cfa -8 + ^ x20: .cfa -16 + ^ x21: .cfa -32 + ^ .ra: .cfa -40 + ^ x29: .cfa -48 + ^
STACK CFI 48ae0 .cfa: sp 48 +
STACK CFI 48aec .cfa: sp 0 +
STACK CFI 48af0 .cfa: sp 48 +
STACK CFI 48afc .cfa: sp 0 +
STACK CFI INIT 48ccc 250 .cfa: sp 0 +
STACK CFI 48cd0 .cfa: sp 80 +
STACK CFI 48ce4 .cfa: x29 80 + x19: .cfa -8 + ^ x20: .cfa -16 + ^ x21: .cfa -24 + ^ x22: .cfa -32 + ^ x23: .cfa -40 + ^ x24: .cfa -48 + ^ x25: .cfa -64 + ^ .ra: .cfa -72 + ^ x29: .cfa -80 + ^
STACK CFI 48efc .cfa: sp 80 +
STACK CFI 48f10 .cfa: sp 0 +
STACK CFI 48f14 .cfa: x29 80 +
STACK CFI INIT 48f1c 80 .cfa: sp 0 +
STACK CFI 48f20 .cfa: sp 48 +
STACK CFI 48f2c .cfa: x29 48 + x19: .cfa -8 + ^ x20: .cfa -16 + ^ x21: .cfa -32 + ^ .ra: .cfa -40 + ^ x29: .cfa -48 + ^
STACK CFI 48f7c .cfa: sp 48 +
STACK CFI 48f88 .cfa: sp 0 +
STACK CFI 48f8c .cfa: sp 48 +
STACK CFI 48f98 .cfa: sp 0 +
STACK CFI INIT 48f9c 80 .cfa: sp 0 +
STACK CFI 48fa0 .cfa: sp 48 +
STACK CFI 48fac .cfa: x29 48 + x19: .cfa -8 + ^ x20: .cfa -16 + ^ x21: .cfa -32 + ^ .ra: .cfa -40 + ^ x29: .cfa -48 + ^
STACK CFI 48ffc .cfa: sp 48 +
STACK CFI 49008 .cfa: sp 0 +
STACK CFI 4900c .cfa: sp 48 +
STACK CFI 49018 .cfa: sp 0 +
STACK CFI INIT 491b0 250 .cfa: sp 0 +
STACK CFI INIT 49400 1c8 .cfa: sp 0 +
STACK CFI 49404 .cfa: sp 64 +
STACK CFI 49414 .cfa: x29 64 + x19: .cfa -8 + ^ x20: .cfa -16 + ^ x21: .cfa -24 + ^ x22: .cfa -32 + ^ x23: .cfa -48 + ^ .ra: .cfa -56 + ^ x29: .cfa -64 + ^
STACK CFI 49508 .cfa: sp 64 +
STACK CFI 49518 .cfa: sp 0 +
STACK CFI 4951c .cfa: x29 64 +
STACK CFI INIT 495c8 80 .cfa: sp 0 +
STACK CFI 495cc .cfa: sp 48 +
STACK CFI 495d8 .cfa: x29 48 + x19: .cfa -8 + ^ x20: .cfa -16 + ^ x21: .cfa -32 + ^ .ra: .cfa -40 + ^ x29: .cfa -48 + ^
STACK CFI 49628 .cfa: sp 48 +
STACK CFI 49634 .cfa: sp 0 +
STACK CFI 49638 .cfa: sp 48 +
STACK CFI 49644 .cfa: sp 0 +
STACK CFI INIT 49648 98 .cfa: sp 0 +
STACK CFI 49650 .cfa: sp 48 +
STACK CFI 4965c .cfa: x29 48 + x19: .cfa -8 + ^ x20: .cfa -16 + ^ x21: .cfa -32 + ^ .ra: .cfa -40 + ^ x29: .cfa -48 + ^
STACK CFI 496ac .cfa: sp 0 + x19: x19 x20: x20 x21: x21 .ra: x30 x29: x29
STACK CFI 496b0 .cfa: x29 48 + x19: .cfa -8 + ^ x20: .cfa -16 + ^ x21: .cfa -32 + ^ .ra: .cfa -40 + ^ x29: .cfa -48 + ^
STACK CFI 496d0 .cfa: sp 48 +
STACK CFI 496dc .cfa: sp 0 +
STACK CFI INIT 496e0 4c .cfa: sp 0 +
STACK CFI 496e8 .cfa: sp 32 +
STACK CFI 496f0 .cfa: x29 32 + x19: .cfa -8 + ^ x20: .cfa -16 + ^ .ra: .cfa -24 + ^ x29: .cfa -32 + ^
STACK CFI 49720 .cfa: sp 32 +
STACK CFI 49728 .cfa: sp 0 +
STACK CFI INIT 4972c 4c .cfa: sp 0 +
STACK CFI 49734 .cfa: sp 32 +
STACK CFI 4973c .cfa: x29 32 + x19: .cfa -8 + ^ x20: .cfa -16 + ^ .ra: .cfa -24 + ^ x29: .cfa -32 + ^
STACK CFI 4976c .cfa: sp 32 +
STACK CFI 49774 .cfa: sp 0 +
STACK CFI INIT 49800 4c .cfa: sp 0 +
STACK CFI 49808 .cfa: sp 32 +
STACK CFI 49810 .cfa: x29 32 + x19: .cfa -8 + ^ x20: .cfa -16 + ^ .ra: .cfa -24 + ^ x29: .cfa -32 + ^
STACK CFI 49840 .cfa: sp 32 +
STACK CFI 49848 .cfa: sp 0 +
STACK CFI INIT 4984c a8 .cfa: sp 0 +
STACK CFI 49854 .cfa: sp 48 +
STACK CFI 49860 .cfa: x29 48 + x19: .cfa -8 + ^ x20: .cfa -16 + ^ x21: .cfa -24 + ^ x22: .cfa -32 + ^ .ra: .cfa -40 + ^ x29: .cfa -48 + ^
STACK CFI 498e4 .cfa: sp 48 +
STACK CFI 498f0 .cfa: sp 0 +
STACK CFI INIT 498f4 4c .cfa: sp 0 +
STACK CFI 498fc .cfa: sp 32 +
STACK CFI 49904 .cfa: x29 32 + x19: .cfa -8 + ^ x20: .cfa -16 + ^ .ra: .cfa -24 + ^ x29: .cfa -32 + ^
STACK CFI 49934 .cfa: sp 32 +
STACK CFI 4993c .cfa: sp 0 +
STACK CFI INIT 49d84 1c .cfa: sp 0 +
STACK CFI INIT 4a468 4 .cfa: sp 0 +
STACK CFI INIT 4aa5c 190 .cfa: sp 0 +
STACK CFI 4aa60 .cfa: sp 64 +
STACK CFI 4aa70 .cfa: x29 64 + x19: .cfa -8 + ^ x20: .cfa -16 + ^ x21: .cfa -24 + ^ x22: .cfa -32 + ^ x23: .cfa -40 + ^ x24: .cfa -48 + ^ .ra: .cfa -56 + ^ x29: .cfa -64 + ^
STACK CFI 4abd0 .cfa: sp 64 +
STACK CFI 4abe0 .cfa: sp 0 +
STACK CFI 4abe4 .cfa: x29 64 +
STACK CFI INIT 4abec 44 .cfa: sp 0 +
STACK CFI 4abf4 .cfa: sp 32 +
STACK CFI 4abfc .cfa: x29 32 + x19: .cfa -8 + ^ x20: .cfa -16 + ^ .ra: .cfa -24 + ^ x29: .cfa -32 + ^
STACK CFI 4ac20 .cfa: sp 32 +
STACK CFI 4ac28 .cfa: sp 0 +
STACK CFI INIT 4ad74 1c0 .cfa: sp 0 +
STACK CFI 4ad78 .cfa: sp 64 +
STACK CFI 4ad88 .cfa: x29 64 + x19: .cfa -8 + ^ x20: .cfa -16 + ^ x21: .cfa -24 + ^ x22: .cfa -32 + ^ x23: .cfa -40 + ^ x24: .cfa -48 + ^ .ra: .cfa -56 + ^ x29: .cfa -64 + ^
STACK CFI 4af18 .cfa: sp 64 +
STACK CFI 4af28 .cfa: sp 0 +
STACK CFI 4af2c .cfa: x29 64 +
STACK CFI INIT 4b41c 10c .cfa: sp 0 +
STACK CFI 4b420 .cfa: sp 48 +
STACK CFI 4b42c .cfa: x29 48 + x19: .cfa -8 + ^ x20: .cfa -16 + ^ x21: .cfa -32 + ^ .ra: .cfa -40 + ^ x29: .cfa -48 + ^
STACK CFI 4b508 .cfa: sp 48 +
STACK CFI 4b514 .cfa: sp 0 +
STACK CFI 4b518 .cfa: sp 48 +
STACK CFI 4b524 .cfa: sp 0 +
STACK CFI INIT 4b528 104 .cfa: sp 0 +
STACK CFI 4b52c .cfa: sp 80 +
STACK CFI 4b540 .cfa: x29 80 + x19: .cfa -8 + ^ x20: .cfa -16 + ^ x21: .cfa -24 + ^ x22: .cfa -32 + ^ x23: .cfa -40 + ^ x24: .cfa -48 + ^ x25: .cfa -64 + ^ .ra: .cfa -72 + ^ x29: .cfa -80 + ^
STACK CFI 4b614 .cfa: sp 80 +
STACK CFI 4b628 .cfa: sp 0 +
STACK CFI INIT 4b62c 4c .cfa: sp 0 +
STACK CFI 4b634 .cfa: sp 32 +
STACK CFI 4b63c .cfa: x29 32 + x19: .cfa -8 + ^ x20: .cfa -16 + ^ .ra: .cfa -24 + ^ x29: .cfa -32 + ^
STACK CFI 4b668 .cfa: sp 32 +
STACK CFI 4b670 .cfa: sp 0 +
STACK CFI INIT 4b678 5c .cfa: sp 0 +
STACK CFI 4b680 .cfa: sp 32 +
STACK CFI 4b688 .cfa: x29 32 + x19: .cfa -8 + ^ x20: .cfa -16 + ^ .ra: .cfa -24 + ^ x29: .cfa -32 + ^
STACK CFI 4b6c8 .cfa: sp 32 +
STACK CFI 4b6d0 .cfa: sp 0 +
STACK CFI INIT 4b6d4 4c .cfa: sp 0 +
STACK CFI 4b6dc .cfa: sp 32 +
STACK CFI 4b6e4 .cfa: x29 32 + x19: .cfa -8 + ^ x20: .cfa -16 + ^ .ra: .cfa -24 + ^ x29: .cfa -32 + ^
STACK CFI 4b714 .cfa: sp 32 +
STACK CFI 4b71c .cfa: sp 0 +
STACK CFI INIT 4b77c 4c .cfa: sp 0 +
STACK CFI 4b784 .cfa: sp 32 +
STACK CFI 4b78c .cfa: x29 32 + x19: .cfa -8 + ^ x20: .cfa -16 + ^ .ra: .cfa -24 + ^ x29: .cfa -32 + ^
STACK CFI 4b7bc .cfa: sp 32 +
STACK CFI 4b7c4 .cfa: sp 0 +
STACK CFI INIT 4bb20 4 .cfa: sp 0 +
STACK CFI INIT 4bde8 4 .cfa: sp 0 +
STACK CFI INIT 4bdec 14 .cfa: sp 0 +
STACK CFI INIT 4be00 14 .cfa: sp 0 +
STACK CFI INIT 4be14 14 .cfa: sp 0 +
STACK CFI INIT 4c26c 1c .cfa: sp 0 +
STACK CFI INIT 4c5e4 4 .cfa: sp 0 +
STACK CFI INIT 4d33c 9c .cfa: sp 0 +
STACK CFI INIT 4da4c 64 .cfa: sp 0 +
STACK CFI 4da50 .cfa: sp 32 +
STACK CFI 4da58 .cfa: x29 32 + x19: .cfa -16 + ^ .ra: .cfa -24 + ^ x29: .cfa -32 + ^
STACK CFI 4da74 .cfa: sp 32 +
STACK CFI 4da7c .cfa: sp 0 +
STACK CFI 4da80 .cfa: x29 32 +
STACK CFI 4daa4 .cfa: sp 32 +
STACK CFI 4daac .cfa: sp 0 +
STACK CFI INIT 4dab0 c4 .cfa: sp 0 +
STACK CFI 4dab4 .cfa: sp 32 +
STACK CFI 4dabc .cfa: x29 32 + x19: .cfa -8 + ^ x20: .cfa -16 + ^ .ra: .cfa -24 + ^ x29: .cfa -32 + ^
STACK CFI 4db68 .cfa: sp 32 +
STACK CFI 4db70 .cfa: sp 0 +
STACK CFI INIT 4db74 1c .cfa: sp 0 +
STACK CFI INIT 4f1e8 a0 .cfa: sp 0 +
STACK CFI 4f1ec .cfa: sp 80 +
STACK CFI 4f1fc .cfa: x29 48 + x19: .cfa -8 + ^ x20: .cfa -16 + ^ x21: .cfa -32 + ^ .ra: .cfa -40 + ^ x29: .cfa -48 + ^
STACK CFI 4f270 .cfa: sp 80 +
STACK CFI 4f280 .cfa: sp 0 +
STACK CFI 4f284 .cfa: x29 48 +
STACK CFI INIT 4f288 98 .cfa: sp 0 +
STACK CFI 4f28c .cfa: sp 96 +
STACK CFI 4f2a0 .cfa: x29 64 + x19: .cfa -8 + ^ x20: .cfa -16 + ^ x21: .cfa -24 + ^ x22: .cfa -32 + ^ x23: .cfa -48 + ^ .ra: .cfa -56 + ^ x29: .cfa -64 + ^
STACK CFI 4f304 .cfa: sp 96 +
STACK CFI 4f318 .cfa: sp 0 +
STACK CFI 4f31c .cfa: x29 64 +
STACK CFI INIT 4f320 50 .cfa: sp 0 +
STACK CFI 4f324 .cfa: sp 32 +
STACK CFI 4f32c .cfa: x29 32 + x19: .cfa -8 + ^ x20: .cfa -16 + ^ .ra: .cfa -24 + ^ x29: .cfa -32 + ^
STACK CFI 4f364 .cfa: sp 32 +
STACK CFI 4f36c .cfa: sp 0 +
STACK CFI INIT 4f370 4 .cfa: sp 0 +
STACK CFI INIT 4f374 4 .cfa: sp 0 +
STACK CFI INIT 4f378 34 .cfa: sp 0 +
STACK CFI 4f37c .cfa: sp 32 +
STACK CFI 4f384 .cfa: x29 32 + x19: .cfa -16 + ^ .ra: .cfa -24 + ^ x29: .cfa -32 + ^
STACK CFI 4f3a0 .cfa: sp 32 +
STACK CFI 4f3a8 .cfa: sp 0 +
STACK CFI INIT 4f3ac 14 .cfa: sp 0 +
STACK CFI INIT 4f3c0 4 .cfa: sp 0 +
STACK CFI INIT 4f3c4 4 .cfa: sp 0 +
STACK CFI INIT 4f3c8 3c .cfa: sp 0 +
STACK CFI 4f3d4 .cfa: sp 32 +
STACK CFI 4f3dc .cfa: x29 32 + x19: .cfa -16 + ^ .ra: .cfa -24 + ^ x29: .cfa -32 + ^
STACK CFI 4f3f4 .cfa: sp 32 +
STACK CFI 4f3fc .cfa: sp 0 +
STACK CFI INIT 4f404 1c .cfa: sp 0 +
STACK CFI INIT 4f420 c .cfa: sp 0 +
STACK CFI INIT 5150c 1c .cfa: sp 0 +
STACK CFI INIT 51890 4 .cfa: sp 0 +
STACK CFI INIT 51c38 4 .cfa: sp 0 +
STACK CFI INIT 51e58 8 .cfa: sp 0 +
STACK CFI INIT 51e60 24 .cfa: sp 0 +
STACK CFI 51e64 .cfa: sp 32 +
STACK CFI 51e6c .cfa: x29 32 + x19: .cfa -16 + ^ .ra: .cfa -24 + ^ x29: .cfa -32 + ^
STACK CFI 51e78 .cfa: sp 32 +
STACK CFI 51e80 .cfa: sp 0 +
STACK CFI INIT 51e84 4 .cfa: sp 0 +
STACK CFI INIT 51e88 8 .cfa: sp 0 +
STACK CFI INIT 51e90 8 .cfa: sp 0 +
STACK CFI INIT 51e98 28 .cfa: sp 0 +
STACK CFI 51e9c .cfa: sp 32 +
STACK CFI 51ea4 .cfa: x29 32 + x19: .cfa -16 + ^ .ra: .cfa -24 + ^ x29: .cfa -32 + ^
STACK CFI 51eb4 .cfa: sp 32 +
STACK CFI 51ebc .cfa: sp 0 +
STACK CFI INIT 51ec0 4 .cfa: sp 0 +
STACK CFI INIT 51ec4 4 .cfa: sp 0 +
STACK CFI INIT 51ec8 4 .cfa: sp 0 +
STACK CFI INIT 51ecc 4 .cfa: sp 0 +
STACK CFI INIT 51ed0 4 .cfa: sp 0 +
STACK CFI INIT 51ed4 8 .cfa: sp 0 +
STACK CFI INIT 5256c 50 .cfa: sp 0 +
STACK CFI 52570 .cfa: sp 32 +
STACK CFI 52578 .cfa: x29 32 + x19: .cfa -16 + ^ .ra: .cfa -24 + ^ x29: .cfa -32 + ^
STACK CFI 52590 .cfa: sp 32 +
STACK CFI 52598 .cfa: sp 0 +
STACK CFI 5259c .cfa: x29 32 +
STACK CFI 525b0 .cfa: sp 32 +
STACK CFI 525b8 .cfa: sp 0 +
STACK CFI INIT 525bc 50 .cfa: sp 0 +
STACK CFI 525c0 .cfa: sp 32 +
STACK CFI 525c8 .cfa: x29 32 + x19: .cfa -16 + ^ .ra: .cfa -24 + ^ x29: .cfa -32 + ^
STACK CFI 525e0 .cfa: sp 32 +
STACK CFI 525e8 .cfa: sp 0 +
STACK CFI 525ec .cfa: x29 32 +
STACK CFI 52600 .cfa: sp 32 +
STACK CFI 52608 .cfa: sp 0 +
STACK CFI INIT 5260c 24 .cfa: sp 0 +
STACK CFI 52610 .cfa: sp 32 +
STACK CFI 52618 .cfa: x29 32 + x19: .cfa -16 + ^ .ra: .cfa -24 + ^ x29: .cfa -32 + ^
STACK CFI 52624 .cfa: sp 32 +
STACK CFI 5262c .cfa: sp 0 +
STACK CFI INIT 52630 8 .cfa: sp 0 +
STACK CFI INIT 52638 8 .cfa: sp 0 +
STACK CFI INIT 52640 8 .cfa: sp 0 +
STACK CFI INIT 52648 4 .cfa: sp 0 +
STACK CFI INIT 5264c 7c .cfa: sp 0 +
STACK CFI 52650 .cfa: sp 32 +
STACK CFI 52658 .cfa: x29 32 + x19: .cfa -8 + ^ x20: .cfa -16 + ^ .ra: .cfa -24 + ^ x29: .cfa -32 + ^
STACK CFI 526bc .cfa: sp 32 +
STACK CFI 526c4 .cfa: sp 0 +
STACK CFI INIT 526c8 84 .cfa: sp 0 +
STACK CFI 526cc .cfa: sp 32 +
STACK CFI 526d4 .cfa: x29 32 + x19: .cfa -8 + ^ x20: .cfa -16 + ^ .ra: .cfa -24 + ^ x29: .cfa -32 + ^
STACK CFI 52740 .cfa: sp 32 +
STACK CFI 52748 .cfa: sp 0 +
STACK CFI INIT 5274c 4 .cfa: sp 0 +
STACK CFI INIT 52750 4 .cfa: sp 0 +
STACK CFI INIT 52754 8 .cfa: sp 0 +
STACK CFI INIT 5275c 8 .cfa: sp 0 +
STACK CFI INIT 5282c 34 .cfa: sp 0 +
STACK CFI 52830 .cfa: sp 16 +
STACK CFI 52834 .cfa: x29 16 + .ra: .cfa -8 + ^ x29: .cfa -16 + ^
STACK CFI INIT 52860 34 .cfa: sp 0 +
STACK CFI 52864 .cfa: sp 16 +
STACK CFI 52868 .cfa: x29 16 + .ra: .cfa -8 + ^ x29: .cfa -16 + ^
STACK CFI INIT 52908 d0 .cfa: sp 0 +
STACK CFI 5290c .cfa: sp 48 +
STACK CFI 52918 .cfa: x29 48 + x19: .cfa -8 + ^ x20: .cfa -16 + ^ x21: .cfa -32 + ^ .ra: .cfa -40 + ^ x29: .cfa -48 + ^
STACK CFI 529c8 .cfa: sp 48 +
STACK CFI 529d4 .cfa: sp 0 +
STACK CFI INIT 529d8 1b4 .cfa: sp 0 +
STACK CFI 529dc .cfa: sp 64 +
STACK CFI 529ec .cfa: x29 64 + x19: .cfa -8 + ^ x20: .cfa -16 + ^ x21: .cfa -24 + ^ x22: .cfa -32 + ^ x23: .cfa -40 + ^ x24: .cfa -48 + ^ .ra: .cfa -56 + ^ x29: .cfa -64 + ^
STACK CFI 52b78 .cfa: sp 64 +
STACK CFI 52b88 .cfa: sp 0 +
STACK CFI INIT 52b8c 5c .cfa: sp 0 +
STACK CFI 52b90 .cfa: sp 48 +
STACK CFI 52b9c .cfa: x29 48 + x19: .cfa -8 + ^ x20: .cfa -16 + ^ x21: .cfa -32 + ^ .ra: .cfa -40 + ^ x29: .cfa -48 + ^
STACK CFI 52bd8 .cfa: sp 48 +
STACK CFI 52be4 .cfa: sp 0 +
STACK CFI INIT 52be8 4e4 .cfa: sp 0 +
STACK CFI 52bec .cfa: sp 160 +
STACK CFI 52c08 .cfa: x29 96 + x19: .cfa -8 + ^ x20: .cfa -16 + ^ x21: .cfa -24 + ^ x22: .cfa -32 + ^ x23: .cfa -40 + ^ x24: .cfa -48 + ^ x25: .cfa -56 + ^ x26: .cfa -64 + ^ x27: .cfa -72 + ^ x28: .cfa -80 + ^ .ra: .cfa -88 + ^ x29: .cfa -96 + ^
STACK CFI 52c5c .cfa: sp 160 +
STACK CFI 52c60 .cfa: x29 96 +
STACK CFI 52cb8 .cfa: sp 160 +
STACK CFI 52cbc .cfa: x29 96 +
STACK CFI 52ce4 .cfa: sp 160 +
STACK CFI 52d00 .cfa: sp 0 +
STACK CFI 52d04 .cfa: x29 96 +
STACK CFI 52d18 .cfa: sp 160 +
STACK CFI 52d34 .cfa: sp 0 +
STACK CFI 52d38 .cfa: x29 96 +
STACK CFI 52ff4 .cfa: sp 160 +
STACK CFI 52ff8 .cfa: x29 96 +
STACK CFI 53070 .cfa: sp 160 +
STACK CFI 5308c .cfa: sp 0 +
STACK CFI 53090 .cfa: x29 96 +
STACK CFI 530a4 .cfa: sp 160 +
STACK CFI 530a8 .cfa: x29 96 +
STACK CFI INIT 530cc 144 .cfa: sp 0 +
STACK CFI 530d0 .cfa: sp 96 +
STACK CFI 530e4 .cfa: x29 64 + x19: .cfa -8 + ^ x20: .cfa -16 + ^ x21: .cfa -24 + ^ x22: .cfa -32 + ^ x23: .cfa -48 + ^ .ra: .cfa -56 + ^ x29: .cfa -64 + ^
STACK CFI 531f4 .cfa: sp 96 +
STACK CFI 53208 .cfa: sp 0 +
STACK CFI 5320c .cfa: x29 64 +
STACK CFI INIT 53210 84 .cfa: sp 0 +
STACK CFI 53214 .cfa: sp 48 +
STACK CFI 53220 .cfa: x29 48 + x19: .cfa -8 + ^ x20: .cfa -16 + ^ x21: .cfa -32 + ^ .ra: .cfa -40 + ^ x29: .cfa -48 + ^
STACK CFI 53264 .cfa: sp 48 +
STACK CFI 53268 .cfa: x29 48 +
STACK CFI 5326c .cfa: sp 48 +
STACK CFI 53278 .cfa: sp 0 +
STACK CFI 5327c .cfa: x29 48 +
STACK CFI 53284 .cfa: sp 48 +
STACK CFI 53290 .cfa: sp 0 +
STACK CFI INIT 53294 1a0 .cfa: sp 0 +
STACK CFI 53298 .cfa: sp 96 +
STACK CFI 532ac .cfa: x29 64 + x19: .cfa -8 + ^ x20: .cfa -16 + ^ x21: .cfa -24 + ^ x22: .cfa -32 + ^ x23: .cfa -48 + ^ .ra: .cfa -56 + ^ x29: .cfa -64 + ^
STACK CFI 533f0 .cfa: sp 96 +
STACK CFI 53404 .cfa: sp 0 +
STACK CFI 53408 .cfa: x29 64 +
STACK CFI INIT 53434 11c .cfa: sp 0 +
STACK CFI 53438 .cfa: sp 80 +
STACK CFI 53448 .cfa: x29 48 + x19: .cfa -8 + ^ x20: .cfa -16 + ^ x21: .cfa -32 + ^ .ra: .cfa -40 + ^ x29: .cfa -48 + ^
STACK CFI 53538 .cfa: sp 80 +
STACK CFI 53548 .cfa: sp 0 +
STACK CFI 5354c .cfa: x29 48 +
STACK CFI INIT 537d0 e4 .cfa: sp 0 +
STACK CFI 537d4 .cfa: sp 96 +
STACK CFI 537e8 .cfa: x29 64 + x19: .cfa -8 + ^ x20: .cfa -16 + ^ x21: .cfa -24 + ^ x22: .cfa -32 + ^ x23: .cfa -48 + ^ .ra: .cfa -56 + ^ x29: .cfa -64 + ^
STACK CFI 53898 .cfa: sp 96 +
STACK CFI 538ac .cfa: sp 0 +
STACK CFI 538b0 .cfa: x29 64 +
STACK CFI INIT 53f60 16c .cfa: sp 0 +
STACK CFI 53f64 .cfa: sp 96 +
STACK CFI 53f78 .cfa: x29 64 + x19: .cfa -8 + ^ x20: .cfa -16 + ^ x21: .cfa -24 + ^ x22: .cfa -32 + ^ x23: .cfa -48 + ^ .ra: .cfa -56 + ^ x29: .cfa -64 + ^
STACK CFI 540b0 .cfa: sp 96 +
STACK CFI 540c4 .cfa: sp 0 +
STACK CFI 540c8 .cfa: x29 64 +
STACK CFI INIT 542a4 cc .cfa: sp 0 +
STACK CFI 542a8 .cfa: sp 80 +
STACK CFI 542b8 .cfa: x29 48 + x19: .cfa -8 + ^ x20: .cfa -16 + ^ x21: .cfa -24 + ^ x22: .cfa -32 + ^ .ra: .cfa -40 + ^ x29: .cfa -48 + ^
STACK CFI 542fc .cfa: sp 80 +
STACK CFI 5430c .cfa: sp 0 +
STACK CFI 54310 .cfa: x29 48 +
STACK CFI 54358 .cfa: sp 80 +
STACK CFI 54368 .cfa: sp 0 +
STACK CFI 5436c .cfa: x29 48 +
STACK CFI INIT 54370 128 .cfa: sp 0 +
STACK CFI 54374 .cfa: sp 80 +
STACK CFI 54388 .cfa: x29 80 + x19: .cfa -8 + ^ x20: .cfa -16 + ^ x21: .cfa -24 + ^ x22: .cfa -32 + ^ x23: .cfa -40 + ^ x24: .cfa -48 + ^ x25: .cfa -64 + ^ .ra: .cfa -72 + ^ x29: .cfa -80 + ^
STACK CFI 54478 .cfa: sp 80 +
STACK CFI 5448c .cfa: sp 0 +
STACK CFI 54490 .cfa: x29 80 +
STACK CFI INIT 545f8 8c .cfa: sp 0 +
STACK CFI 545fc .cfa: sp 48 +
STACK CFI 54608 .cfa: x29 48 + x19: .cfa -8 + ^ x20: .cfa -16 + ^ x21: .cfa -24 + ^ x22: .cfa -32 + ^ .ra: .cfa -40 + ^ x29: .cfa -48 + ^
STACK CFI 54610 .cfa: sp 48 +
STACK CFI 5461c .cfa: sp 0 +
STACK CFI 54620 .cfa: x29 48 +
STACK CFI 54674 .cfa: sp 48 +
STACK CFI 54680 .cfa: sp 0 +
STACK CFI INIT 54684 60 .cfa: sp 0 +
STACK CFI 54694 .cfa: sp 32 +
STACK CFI 5469c .cfa: x29 32 + x19: .cfa -8 + ^ x20: .cfa -16 + ^ .ra: .cfa -24 + ^ x29: .cfa -32 + ^
STACK CFI 546d8 .cfa: sp 32 +
STACK CFI 546e0 .cfa: sp 0 +
STACK CFI INIT 5491c 98 .cfa: sp 0 +
STACK CFI INIT 549b4 50 .cfa: sp 0 +
STACK CFI 549b8 .cfa: sp 32 +
STACK CFI 549c0 .cfa: x29 32 + x19: .cfa -8 + ^ x20: .cfa -16 + ^ .ra: .cfa -24 + ^ x29: .cfa -32 + ^
STACK CFI 549f8 .cfa: sp 32 +
STACK CFI 54a00 .cfa: sp 0 +
STACK CFI INIT 54a04 30 .cfa: sp 0 +
STACK CFI 54a08 .cfa: sp 32 +
STACK CFI 54a10 .cfa: x29 32 + x19: .cfa -16 + ^ .ra: .cfa -24 + ^ x29: .cfa -32 + ^
STACK CFI 54a28 .cfa: sp 32 +
STACK CFI 54a30 .cfa: sp 0 +
STACK CFI INIT 555bc 98 .cfa: sp 0 +
STACK CFI 555c0 .cfa: sp 304 +
STACK CFI 555cc .cfa: x29 32 + x19: .cfa -8 + ^ x28: .cfa -16 + ^ .ra: .cfa -24 + ^ x29: .cfa -32 + ^
STACK CFI 55640 .cfa: sp 304 +
STACK CFI 5564c .cfa: sp 0 +
STACK CFI 55650 .cfa: x29 32 +
STACK CFI INIT 56b20 7c .cfa: sp 0 +
STACK CFI INIT 56b9c 3a4 .cfa: sp 0 +
STACK CFI 56ba0 .cfa: sp 80 +
STACK CFI 56bac .cfa: x29 32 + x19: .cfa -8 + ^ x20: .cfa -16 + ^ .ra: .cfa -24 + ^ x29: .cfa -32 + ^
STACK CFI 56efc .cfa: sp 80 +
STACK CFI 56f08 .cfa: sp 0 +
STACK CFI 56f0c .cfa: x29 32 +
STACK CFI INIT 59d70 50 .cfa: sp 0 +
STACK CFI 59d74 .cfa: sp 32 +
STACK CFI 59d7c .cfa: x29 32 + x19: .cfa -8 + ^ x20: .cfa -16 + ^ .ra: .cfa -24 + ^ x29: .cfa -32 + ^
STACK CFI 59db4 .cfa: sp 32 +
STACK CFI 59dbc .cfa: sp 0 +
STACK CFI INIT 59dc0 50 .cfa: sp 0 +
STACK CFI 59dc4 .cfa: sp 32 +
STACK CFI 59dcc .cfa: x29 32 + x19: .cfa -16 + ^ .ra: .cfa -24 + ^ x29: .cfa -32 + ^
STACK CFI 59de4 .cfa: sp 32 +
STACK CFI 59dec .cfa: sp 0 +
STACK CFI 59df0 .cfa: x29 32 +
STACK CFI 59e04 .cfa: sp 32 +
STACK CFI 59e0c .cfa: sp 0 +
STACK CFI INIT 5a538 3c .cfa: sp 0 +
STACK CFI 5a53c .cfa: sp 32 +
STACK CFI 5a544 .cfa: x29 32 + x19: .cfa -16 + ^ .ra: .cfa -24 + ^ x29: .cfa -32 + ^
STACK CFI 5a558 .cfa: sp 32 +
STACK CFI 5a560 .cfa: sp 0 +
STACK CFI 5a564 .cfa: x29 32 +
STACK CFI 5a568 .cfa: sp 32 +
STACK CFI 5a570 .cfa: sp 0 +
STACK CFI INIT 5a9c8 4 .cfa: sp 0 +
STACK CFI INIT 5a9cc 14 .cfa: sp 0 +
STACK CFI INIT 5a9e0 134 .cfa: sp 0 +
STACK CFI 5a9e4 .cfa: sp 128 +
STACK CFI 5a9f4 .cfa: x29 48 + x19: .cfa -8 + ^ x20: .cfa -16 + ^ x21: .cfa -32 + ^ .ra: .cfa -40 + ^ x29: .cfa -48 + ^
STACK CFI 5aafc .cfa: sp 128 +
STACK CFI 5ab0c .cfa: sp 0 +
STACK CFI 5ab10 .cfa: x29 48 +
STACK CFI INIT 5ab14 1f4 .cfa: sp 0 +
STACK CFI INIT 5ad08 50 .cfa: sp 0 +
STACK CFI 5ad0c .cfa: sp 32 +
STACK CFI 5ad14 .cfa: x29 32 + x19: .cfa -16 + ^ .ra: .cfa -24 + ^ x29: .cfa -32 + ^
STACK CFI 5ad2c .cfa: sp 32 +
STACK CFI 5ad34 .cfa: sp 0 +
STACK CFI 5ad38 .cfa: x29 32 +
STACK CFI 5ad4c .cfa: sp 32 +
STACK CFI 5ad54 .cfa: sp 0 +
STACK CFI INIT 5b01c 298 .cfa: sp 0 +
STACK CFI 5b020 .cfa: sp 96 +
STACK CFI 5b038 .cfa: x29 96 + x19: .cfa -8 + ^ x20: .cfa -16 + ^ x21: .cfa -24 + ^ x22: .cfa -32 + ^ x23: .cfa -40 + ^ x24: .cfa -48 + ^ x25: .cfa -56 + ^ x26: .cfa -64 + ^ x27: .cfa -72 + ^ x28: .cfa -80 + ^ .ra: .cfa -88 + ^ x29: .cfa -96 + ^
STACK CFI 5b298 .cfa: sp 96 +
STACK CFI 5b2b0 .cfa: sp 0 +
STACK CFI INIT 5b788 4 .cfa: sp 0 +
STACK CFI INIT 5b78c 14 .cfa: sp 0 +
STACK CFI INIT 5b7a0 b0 .cfa: sp 0 +
STACK CFI 5b7a4 .cfa: sp 48 +
STACK CFI 5b7b0 .cfa: x29 48 + x19: .cfa -8 + ^ x20: .cfa -16 + ^ x21: .cfa -32 + ^ .ra: .cfa -40 + ^ x29: .cfa -48 + ^
STACK CFI 5b840 .cfa: sp 48 +
STACK CFI 5b84c .cfa: sp 0 +
STACK CFI INIT 5b850 14 .cfa: sp 0 +
STACK CFI INIT 5cd38 10 .cfa: sp 0 +
STACK CFI INIT 5cd48 30 .cfa: sp 0 +
STACK CFI 5cd4c .cfa: sp 32 +
STACK CFI 5cd54 .cfa: x29 32 + x19: .cfa -16 + ^ .ra: .cfa -24 + ^ x29: .cfa -32 + ^
STACK CFI 5cd6c .cfa: sp 32 +
STACK CFI 5cd74 .cfa: sp 0 +
STACK CFI INIT 5cd78 c .cfa: sp 0 +
STACK CFI INIT 5cd84 4 .cfa: sp 0 +
STACK CFI INIT 5cd88 4 .cfa: sp 0 +
STACK CFI INIT 5cd8c 4 .cfa: sp 0 +
STACK CFI INIT 5cd90 34 .cfa: sp 0 +
STACK CFI 5cd94 .cfa: sp 32 +
STACK CFI 5cd9c .cfa: x29 32 + x19: .cfa -16 + ^ .ra: .cfa -24 + ^ x29: .cfa -32 + ^
STACK CFI 5cdb8 .cfa: sp 32 +
STACK CFI 5cdc0 .cfa: sp 0 +
STACK CFI INIT 5cdc4 14 .cfa: sp 0 +
STACK CFI INIT 5cdd8 4 .cfa: sp 0 +
STACK CFI INIT 5cddc 4 .cfa: sp 0 +
STACK CFI INIT 5cde0 14 .cfa: sp 0 +
STACK CFI INIT 5cdf4 1c .cfa: sp 0 +
STACK CFI INIT 5ce10 c .cfa: sp 0 +
STACK CFI INIT 5ce1c 4 .cfa: sp 0 +
STACK CFI INIT 5ce20 14 .cfa: sp 0 +
STACK CFI INIT 5ce34 50 .cfa: sp 0 +
STACK CFI 5ce38 .cfa: sp 32 +
STACK CFI 5ce40 .cfa: x29 32 + x19: .cfa -16 + ^ .ra: .cfa -24 + ^ x29: .cfa -32 + ^
STACK CFI 5ce58 .cfa: sp 32 +
STACK CFI 5ce60 .cfa: sp 0 +
STACK CFI 5ce64 .cfa: x29 32 +
STACK CFI 5ce78 .cfa: sp 32 +
STACK CFI 5ce80 .cfa: sp 0 +
STACK CFI INIT 5cf6c 50 .cfa: sp 0 +
STACK CFI 5cf70 .cfa: sp 32 +
STACK CFI 5cf78 .cfa: x29 32 + x19: .cfa -16 + ^ .ra: .cfa -24 + ^ x29: .cfa -32 + ^
STACK CFI 5cf90 .cfa: sp 32 +
STACK CFI 5cf98 .cfa: sp 0 +
STACK CFI 5cf9c .cfa: x29 32 +
STACK CFI 5cfb0 .cfa: sp 32 +
STACK CFI 5cfb8 .cfa: sp 0 +
STACK CFI INIT 5cfbc 4 .cfa: sp 0 +
STACK CFI INIT 5cfc0 38 .cfa: sp 0 +
STACK CFI 5cfc4 .cfa: sp 32 +
STACK CFI 5cfcc .cfa: x29 32 + x19: .cfa -16 + ^ .ra: .cfa -24 + ^ x29: .cfa -32 + ^
STACK CFI 5cfec .cfa: sp 32 +
STACK CFI 5cff4 .cfa: sp 0 +
STACK CFI INIT 5cff8 18 .cfa: sp 0 +
STACK CFI INIT 5d010 4 .cfa: sp 0 +
STACK CFI INIT 5d014 4 .cfa: sp 0 +
STACK CFI INIT 5d22c 1c .cfa: sp 0 +
STACK CFI INIT 5d248 c .cfa: sp 0 +
STACK CFI INIT 5d254 50 .cfa: sp 0 +
STACK CFI 5d258 .cfa: sp 32 +
STACK CFI 5d260 .cfa: x29 32 + x19: .cfa -16 + ^ .ra: .cfa -24 + ^ x29: .cfa -32 + ^
STACK CFI 5d278 .cfa: sp 32 +
STACK CFI 5d280 .cfa: sp 0 +
STACK CFI 5d284 .cfa: x29 32 +
STACK CFI 5d298 .cfa: sp 32 +
STACK CFI 5d2a0 .cfa: sp 0 +
STACK CFI INIT 5d2a4 4 .cfa: sp 0 +
STACK CFI INIT 5d41c 8c .cfa: sp 0 +
STACK CFI 5d420 .cfa: sp 32 +
STACK CFI 5d428 .cfa: x29 32 + x19: .cfa -8 + ^ x20: .cfa -16 + ^ .ra: .cfa -24 + ^ x29: .cfa -32 + ^
STACK CFI 5d49c .cfa: sp 32 +
STACK CFI 5d4a4 .cfa: sp 0 +
STACK CFI INIT 5d4a8 94 .cfa: sp 0 +
STACK CFI 5d4ac .cfa: sp 32 +
STACK CFI 5d4b4 .cfa: x29 32 + x19: .cfa -8 + ^ x20: .cfa -16 + ^ .ra: .cfa -24 + ^ x29: .cfa -32 + ^
STACK CFI 5d530 .cfa: sp 32 +
STACK CFI 5d538 .cfa: sp 0 +
STACK CFI INIT 5d53c 4 .cfa: sp 0 +
STACK CFI INIT 5d540 38 .cfa: sp 0 +
STACK CFI 5d544 .cfa: sp 32 +
STACK CFI 5d54c .cfa: x29 32 + x19: .cfa -16 + ^ .ra: .cfa -24 + ^ x29: .cfa -32 + ^
STACK CFI 5d56c .cfa: sp 32 +
STACK CFI 5d574 .cfa: sp 0 +
STACK CFI INIT 5d578 18 .cfa: sp 0 +
STACK CFI INIT 5d590 4 .cfa: sp 0 +
STACK CFI INIT 5d594 4 .cfa: sp 0 +
STACK CFI INIT 5d830 1c .cfa: sp 0 +
STACK CFI INIT 5d84c c .cfa: sp 0 +
STACK CFI INIT 5d858 4 .cfa: sp 0 +
STACK CFI INIT 5d85c 38 .cfa: sp 0 +
STACK CFI 5d860 .cfa: sp 32 +
STACK CFI 5d868 .cfa: x29 32 + x19: .cfa -16 + ^ .ra: .cfa -24 + ^ x29: .cfa -32 + ^
STACK CFI 5d888 .cfa: sp 32 +
STACK CFI 5d890 .cfa: sp 0 +
STACK CFI INIT 5d894 18 .cfa: sp 0 +
STACK CFI INIT 5d8ac 4 .cfa: sp 0 +
STACK CFI INIT 5d8b0 4 .cfa: sp 0 +
STACK CFI INIT 5df04 1c .cfa: sp 0 +
STACK CFI INIT 5df20 c .cfa: sp 0 +
STACK CFI INIT 5df2c 4 .cfa: sp 0 +
STACK CFI INIT 5df30 4 .cfa: sp 0 +
STACK CFI INIT 5df34 38 .cfa: sp 0 +
STACK CFI 5df38 .cfa: sp 32 +
STACK CFI 5df40 .cfa: x29 32 + x19: .cfa -16 + ^ .ra: .cfa -24 + ^ x29: .cfa -32 + ^
STACK CFI 5df60 .cfa: sp 32 +
STACK CFI 5df68 .cfa: sp 0 +
STACK CFI INIT 5df6c 18 .cfa: sp 0 +
STACK CFI INIT 5df84 4 .cfa: sp 0 +
STACK CFI INIT 5df88 4 .cfa: sp 0 +
STACK CFI INIT 5e20c 1c .cfa: sp 0 +
STACK CFI INIT 5e228 c .cfa: sp 0 +
STACK CFI INIT 5e234 4 .cfa: sp 0 +
STACK CFI INIT 5e3ac 5c .cfa: sp 0 +
STACK CFI 5e3b0 .cfa: sp 32 +
STACK CFI 5e3b8 .cfa: x29 32 + x19: .cfa -16 + ^ .ra: .cfa -24 + ^ x29: .cfa -32 + ^
STACK CFI 5e3fc .cfa: sp 32 +
STACK CFI 5e404 .cfa: sp 0 +
STACK CFI INIT 5e408 64 .cfa: sp 0 +
STACK CFI 5e40c .cfa: sp 32 +
STACK CFI 5e414 .cfa: x29 32 + x19: .cfa -16 + ^ .ra: .cfa -24 + ^ x29: .cfa -32 + ^
STACK CFI 5e460 .cfa: sp 32 +
STACK CFI 5e468 .cfa: sp 0 +
STACK CFI INIT 5e46c 4 .cfa: sp 0 +
STACK CFI INIT 5e470 4 .cfa: sp 0 +
STACK CFI INIT 5e474 34 .cfa: sp 0 +
STACK CFI 5e478 .cfa: sp 32 +
STACK CFI 5e480 .cfa: x29 32 + x19: .cfa -16 + ^ .ra: .cfa -24 + ^ x29: .cfa -32 + ^
STACK CFI 5e49c .cfa: sp 32 +
STACK CFI 5e4a4 .cfa: sp 0 +
STACK CFI INIT 5e4a8 14 .cfa: sp 0 +
STACK CFI INIT 5e4bc 4 .cfa: sp 0 +
STACK CFI INIT 5e4c0 4 .cfa: sp 0 +
STACK CFI INIT 5e4c4 10 .cfa: sp 0 +
STACK CFI INIT 5e4d4 1c .cfa: sp 0 +
STACK CFI INIT 5e4f0 c .cfa: sp 0 +
STACK CFI INIT 5eea0 24 .cfa: sp 0 +
STACK CFI 5eea4 .cfa: sp 32 +
STACK CFI 5eeac .cfa: x29 32 + x19: .cfa -16 + ^ .ra: .cfa -24 + ^ x29: .cfa -32 + ^
STACK CFI 5eeb8 .cfa: sp 32 +
STACK CFI 5eec0 .cfa: sp 0 +
STACK CFI INIT 5eec4 84 .cfa: sp 0 +
STACK CFI 5eec8 .cfa: sp 48 +
STACK CFI 5eed4 .cfa: x29 48 + x19: .cfa -8 + ^ x20: .cfa -16 + ^ x21: .cfa -32 + ^ .ra: .cfa -40 + ^ x29: .cfa -48 + ^
STACK CFI 5ef38 .cfa: sp 48 +
STACK CFI 5ef44 .cfa: sp 0 +
STACK CFI INIT 5ef48 30 .cfa: sp 0 +
STACK CFI 5ef4c .cfa: sp 32 +
STACK CFI 5ef54 .cfa: x29 32 + x19: .cfa -16 + ^ .ra: .cfa -24 + ^ x29: .cfa -32 + ^
STACK CFI 5ef6c .cfa: sp 32 +
STACK CFI 5ef74 .cfa: sp 0 +
STACK CFI INIT 5ef78 30 .cfa: sp 0 +
STACK CFI 5ef7c .cfa: sp 32 +
STACK CFI 5ef84 .cfa: x29 32 + x19: .cfa -16 + ^ .ra: .cfa -24 + ^ x29: .cfa -32 + ^
STACK CFI 5ef9c .cfa: sp 32 +
STACK CFI 5efa4 .cfa: sp 0 +
STACK CFI INIT 5efa8 4c .cfa: sp 0 +
STACK CFI 5efac .cfa: sp 32 +
STACK CFI 5efb4 .cfa: x29 32 + x19: .cfa -8 + ^ x20: .cfa -16 + ^ .ra: .cfa -24 + ^ x29: .cfa -32 + ^
STACK CFI 5efdc .cfa: sp 32 +
STACK CFI 5efe4 .cfa: sp 0 +
STACK CFI 5efe8 .cfa: sp 32 +
STACK CFI 5eff0 .cfa: sp 0 +
STACK CFI INIT 5f214 64 .cfa: sp 0 +
STACK CFI 5f218 .cfa: sp 32 +
STACK CFI 5f220 .cfa: x29 32 + x19: .cfa -16 + ^ .ra: .cfa -24 + ^ x29: .cfa -32 + ^
STACK CFI 5f24c .cfa: sp 32 +
STACK CFI 5f254 .cfa: sp 0 +
STACK CFI 5f258 .cfa: x29 32 +
STACK CFI 5f26c .cfa: sp 32 +
STACK CFI 5f274 .cfa: sp 0 +
STACK CFI INIT 5f278 24 .cfa: sp 0 +
STACK CFI 5f27c .cfa: sp 32 +
STACK CFI 5f284 .cfa: x29 32 + x19: .cfa -16 + ^ .ra: .cfa -24 + ^ x29: .cfa -32 + ^
STACK CFI 5f290 .cfa: sp 32 +
STACK CFI 5f298 .cfa: sp 0 +
STACK CFI INIT 5f4f8 24 .cfa: sp 0 +
STACK CFI 5f4fc .cfa: sp 32 +
STACK CFI 5f504 .cfa: x29 32 + x19: .cfa -16 + ^ .ra: .cfa -24 + ^ x29: .cfa -32 + ^
STACK CFI 5f510 .cfa: sp 32 +
STACK CFI 5f518 .cfa: sp 0 +
STACK CFI INIT 5f51c 8 .cfa: sp 0 +
STACK CFI INIT 5f524 24 .cfa: sp 0 +
STACK CFI 5f528 .cfa: sp 32 +
STACK CFI 5f530 .cfa: x29 32 + x19: .cfa -16 + ^ .ra: .cfa -24 + ^ x29: .cfa -32 + ^
STACK CFI 5f53c .cfa: sp 32 +
STACK CFI 5f544 .cfa: sp 0 +
STACK CFI INIT 5f548 28 .cfa: sp 0 +
STACK CFI 5f54c .cfa: sp 32 +
STACK CFI 5f554 .cfa: x29 32 + x19: .cfa -16 + ^ .ra: .cfa -24 + ^ x29: .cfa -32 + ^
STACK CFI 5f564 .cfa: sp 32 +
STACK CFI 5f56c .cfa: sp 0 +
STACK CFI INIT 5f878 8 .cfa: sp 0 +
STACK CFI INIT 5f880 24 .cfa: sp 0 +
STACK CFI 5f884 .cfa: sp 32 +
STACK CFI 5f88c .cfa: x29 32 + x19: .cfa -16 + ^ .ra: .cfa -24 + ^ x29: .cfa -32 + ^
STACK CFI 5f898 .cfa: sp 32 +
STACK CFI 5f8a0 .cfa: sp 0 +
STACK CFI INIT 5f8a4 28 .cfa: sp 0 +
STACK CFI 5f8a8 .cfa: sp 32 +
STACK CFI 5f8b0 .cfa: x29 32 + x19: .cfa -16 + ^ .ra: .cfa -24 + ^ x29: .cfa -32 + ^
STACK CFI 5f8c0 .cfa: sp 32 +
STACK CFI 5f8c8 .cfa: sp 0 +
STACK CFI INIT 5fb38 8 .cfa: sp 0 +
STACK CFI INIT 5fb40 24 .cfa: sp 0 +
STACK CFI 5fb44 .cfa: sp 32 +
STACK CFI 5fb4c .cfa: x29 32 + x19: .cfa -16 + ^ .ra: .cfa -24 + ^ x29: .cfa -32 + ^
STACK CFI 5fb58 .cfa: sp 32 +
STACK CFI 5fb60 .cfa: sp 0 +
STACK CFI INIT 5fb64 28 .cfa: sp 0 +
STACK CFI 5fb68 .cfa: sp 32 +
STACK CFI 5fb70 .cfa: x29 32 + x19: .cfa -16 + ^ .ra: .cfa -24 + ^ x29: .cfa -32 + ^
STACK CFI 5fb80 .cfa: sp 32 +
STACK CFI 5fb88 .cfa: sp 0 +
STACK CFI INIT 5fb8c 8 .cfa: sp 0 +
STACK CFI INIT 5fb94 24 .cfa: sp 0 +
STACK CFI 5fb98 .cfa: sp 32 +
STACK CFI 5fba0 .cfa: x29 32 + x19: .cfa -16 + ^ .ra: .cfa -24 + ^ x29: .cfa -32 + ^
STACK CFI 5fbac .cfa: sp 32 +
STACK CFI 5fbb4 .cfa: sp 0 +
STACK CFI INIT 5fbb8 28 .cfa: sp 0 +
STACK CFI 5fbbc .cfa: sp 32 +
STACK CFI 5fbc4 .cfa: x29 32 + x19: .cfa -16 + ^ .ra: .cfa -24 + ^ x29: .cfa -32 + ^
STACK CFI 5fbd4 .cfa: sp 32 +
STACK CFI 5fbdc .cfa: sp 0 +
STACK CFI INIT 616d8 24 .cfa: sp 0 +
STACK CFI 616dc .cfa: sp 32 +
STACK CFI 616e4 .cfa: x29 32 + x19: .cfa -16 + ^ .ra: .cfa -24 + ^ x29: .cfa -32 + ^
STACK CFI 616f0 .cfa: sp 32 +
STACK CFI 616f8 .cfa: sp 0 +
STACK CFI INIT 62624 8 .cfa: sp 0 +
STACK CFI INIT 6262c 24 .cfa: sp 0 +
STACK CFI 62630 .cfa: sp 32 +
STACK CFI 62638 .cfa: x29 32 + x19: .cfa -16 + ^ .ra: .cfa -24 + ^ x29: .cfa -32 + ^
STACK CFI 62644 .cfa: sp 32 +
STACK CFI 6264c .cfa: sp 0 +
STACK CFI INIT 62650 28 .cfa: sp 0 +
STACK CFI 62654 .cfa: sp 32 +
STACK CFI 6265c .cfa: x29 32 + x19: .cfa -16 + ^ .ra: .cfa -24 + ^ x29: .cfa -32 + ^
STACK CFI 6266c .cfa: sp 32 +
STACK CFI 62674 .cfa: sp 0 +
STACK CFI INIT 62c54 8 .cfa: sp 0 +
STACK CFI INIT 6332c 8 .cfa: sp 0 +
STACK CFI INIT 63744 8 .cfa: sp 0 +
STACK CFI INIT 639a0 4 .cfa: sp 0 +
STACK CFI INIT 639a4 8 .cfa: sp 0 +
STACK CFI INIT 639ac 8 .cfa: sp 0 +
STACK CFI INIT 639b4 4 .cfa: sp 0 +
STACK CFI INIT 647ec 4 .cfa: sp 0 +
STACK CFI INIT 65980 4 .cfa: sp 0 +
STACK CFI INIT 65984 14 .cfa: sp 0 +
STACK CFI INIT 65dd4 c .cfa: sp 0 +
STACK CFI INIT 65de0 24c .cfa: sp 0 +
STACK CFI INIT 6602c a0 .cfa: sp 0 +
STACK CFI 66038 .cfa: sp 32 +
STACK CFI 66090 .cfa: sp 0 +
STACK CFI 66094 .cfa: sp 32 +
STACK CFI 6609c .cfa: sp 0 +
STACK CFI 660a0 .cfa: sp 32 +
STACK CFI 660b4 .cfa: sp 0 +
STACK CFI 660b8 .cfa: sp 32 +
STACK CFI 660c8 .cfa: sp 0 +
STACK CFI INIT 660cc 38 .cfa: sp 0 +
STACK CFI 660d8 .cfa: sp 32 +
STACK CFI 66100 .cfa: sp 0 +
STACK CFI INIT 66398 70 .cfa: sp 0 +
STACK CFI 6639c .cfa: sp 32 +
STACK CFI 663a4 .cfa: x29 32 + x19: .cfa -16 + ^ .ra: .cfa -24 + ^ x29: .cfa -32 + ^
STACK CFI 663d8 .cfa: sp 32 +
STACK CFI 663e0 .cfa: sp 0 +
STACK CFI 663e4 .cfa: x29 32 +
STACK CFI INIT 66458 2c .cfa: sp 0 +
STACK CFI 6645c .cfa: sp 32 +
STACK CFI 66464 .cfa: x29 32 + x19: .cfa -16 + ^ .ra: .cfa -24 + ^ x29: .cfa -32 + ^
STACK CFI 66478 .cfa: sp 32 +
STACK CFI 66480 .cfa: sp 0 +
STACK CFI INIT 66bd4 64 .cfa: sp 0 +
STACK CFI 66bd8 .cfa: sp 32 +
STACK CFI 66be0 .cfa: x29 32 + x19: .cfa -16 + ^ .ra: .cfa -24 + ^ x29: .cfa -32 + ^
STACK CFI 66bfc .cfa: sp 32 +
STACK CFI 66c04 .cfa: sp 0 +
STACK CFI 66c08 .cfa: x29 32 +
STACK CFI 66c2c .cfa: sp 32 +
STACK CFI 66c34 .cfa: sp 0 +
STACK CFI INIT 66d64 3c8 .cfa: sp 0 +
STACK CFI 66d68 .cfa: sp 208 +
STACK CFI 66d7c .cfa: x29 64 + x19: .cfa -8 + ^ x20: .cfa -16 + ^ x21: .cfa -24 + ^ x22: .cfa -32 + ^ x23: .cfa -40 + ^ x24: .cfa -48 + ^ .ra: .cfa -56 + ^ x29: .cfa -64 + ^
STACK CFI 66f94 .cfa: sp 208 +
STACK CFI 66fa8 .cfa: sp 0 +
STACK CFI 66fac .cfa: x29 64 +
STACK CFI INIT 6712c 228 .cfa: sp 0 +
STACK CFI INIT 67354 2b4 .cfa: sp 0 +
STACK CFI INIT 67608 530 .cfa: sp 0 +
STACK CFI INIT 67b38 78 .cfa: sp 0 +
STACK CFI 67b3c .cfa: sp 48 +
STACK CFI 67b48 .cfa: x29 48 + x19: .cfa -8 + ^ x20: .cfa -16 + ^ x21: .cfa -24 + ^ x22: .cfa -32 + ^ .ra: .cfa -40 + ^ x29: .cfa -48 + ^
STACK CFI 67b90 .cfa: sp 48 +
STACK CFI 67b9c .cfa: sp 0 +
STACK CFI 67ba0 .cfa: sp 48 +
STACK CFI 67bac .cfa: sp 0 +
STACK CFI INIT 67bb0 78 .cfa: sp 0 +
STACK CFI 67bb4 .cfa: sp 32 +
STACK CFI 67bbc .cfa: x29 32 + x19: .cfa -16 + ^ .ra: .cfa -24 + ^ x29: .cfa -32 + ^
STACK CFI 67bf8 .cfa: sp 32 +
STACK CFI 67c00 .cfa: sp 0 +
STACK CFI 67c04 .cfa: x29 32 +
STACK CFI INIT 67c28 24 .cfa: sp 0 +
STACK CFI 67c2c .cfa: sp 32 +
STACK CFI 67c34 .cfa: x29 32 + x19: .cfa -16 + ^ .ra: .cfa -24 + ^ x29: .cfa -32 + ^
STACK CFI 67c40 .cfa: sp 32 +
STACK CFI 67c48 .cfa: sp 0 +
STACK CFI INIT 67c4c 150 .cfa: sp 0 +
STACK CFI 67c50 .cfa: sp 48 +
STACK CFI 67c5c .cfa: x29 48 + x19: .cfa -8 + ^ x20: .cfa -16 + ^ x21: .cfa -24 + ^ x22: .cfa -32 + ^ .ra: .cfa -40 + ^ x29: .cfa -48 + ^
STACK CFI 67d8c .cfa: sp 48 +
STACK CFI 67d98 .cfa: sp 0 +
STACK CFI INIT 67d9c 6c .cfa: sp 0 +
STACK CFI 67da0 .cfa: sp 64 +
STACK CFI 67dac .cfa: x29 32 + x19: .cfa -16 + ^ .ra: .cfa -24 + ^ x29: .cfa -32 + ^
STACK CFI 67df4 .cfa: sp 64 +
STACK CFI 67e00 .cfa: sp 0 +
STACK CFI 67e04 .cfa: x29 32 +
STACK CFI INIT 67e08 74 .cfa: sp 0 +
STACK CFI 67e0c .cfa: sp 32 +
STACK CFI 67e14 .cfa: x29 32 + x19: .cfa -8 + ^ x20: .cfa -16 + ^ .ra: .cfa -24 + ^ x29: .cfa -32 + ^
STACK CFI 67e70 .cfa: sp 32 +
STACK CFI 67e78 .cfa: sp 0 +
STACK CFI INIT 67e7c f0 .cfa: sp 0 +
STACK CFI 67e80 .cfa: sp 112 +
STACK CFI 67e90 .cfa: x29 48 + x19: .cfa -8 + ^ x20: .cfa -16 + ^ x21: .cfa -32 + ^ .ra: .cfa -40 + ^ x29: .cfa -48 + ^
STACK CFI 67f54 .cfa: sp 112 +
STACK CFI 67f64 .cfa: sp 0 +
STACK CFI 67f68 .cfa: x29 48 +
STACK CFI INIT 67f6c f0 .cfa: sp 0 +
STACK CFI 67f70 .cfa: sp 112 +
STACK CFI 67f80 .cfa: x29 48 + x19: .cfa -8 + ^ x20: .cfa -16 + ^ x21: .cfa -32 + ^ .ra: .cfa -40 + ^ x29: .cfa -48 + ^
STACK CFI 68044 .cfa: sp 112 +
STACK CFI 68054 .cfa: sp 0 +
STACK CFI 68058 .cfa: x29 48 +
STACK CFI INIT 6805c 48 .cfa: sp 0 +
STACK CFI 68060 .cfa: sp 32 +
STACK CFI 68068 .cfa: x29 32 + x19: .cfa -8 + ^ x20: .cfa -16 + ^ .ra: .cfa -24 + ^ x29: .cfa -32 + ^
STACK CFI 6808c .cfa: sp 32 +
STACK CFI 68094 .cfa: sp 0 +
STACK CFI 68098 .cfa: x29 32 +
STACK CFI INIT 680a4 9c .cfa: sp 0 +
STACK CFI 680a8 .cfa: sp 80 +
STACK CFI 680b4 .cfa: x29 32 + x19: .cfa -16 + ^ .ra: .cfa -24 + ^ x29: .cfa -32 + ^
STACK CFI 6812c .cfa: sp 80 +
STACK CFI 68138 .cfa: sp 0 +
STACK CFI 6813c .cfa: x29 32 +
STACK CFI INIT 68140 220 .cfa: sp 0 +
STACK CFI 68144 .cfa: sp 112 +
STACK CFI 6815c .cfa: x29 80 + x19: .cfa -8 + ^ x20: .cfa -16 + ^ x21: .cfa -24 + ^ x22: .cfa -32 + ^ x23: .cfa -40 + ^ x24: .cfa -48 + ^ x25: .cfa -64 + ^ .ra: .cfa -72 + ^ x29: .cfa -80 + ^
STACK CFI 68320 .cfa: sp 112 +
STACK CFI 68338 .cfa: sp 0 +
STACK CFI 6833c .cfa: x29 80 +
STACK CFI INIT 68360 150 .cfa: sp 0 +
STACK CFI 68364 .cfa: sp 48 +
STACK CFI 68370 .cfa: x29 48 + x19: .cfa -8 + ^ x20: .cfa -16 + ^ x21: .cfa -24 + ^ x22: .cfa -32 + ^ .ra: .cfa -40 + ^ x29: .cfa -48 + ^
STACK CFI 684a0 .cfa: sp 48 +
STACK CFI 684ac .cfa: sp 0 +
STACK CFI INIT 684b0 1c4 .cfa: sp 0 +
STACK CFI 684b4 .cfa: sp 96 +
STACK CFI 684c8 .cfa: x29 64 + x19: .cfa -8 + ^ x20: .cfa -16 + ^ x21: .cfa -24 + ^ x22: .cfa -32 + ^ x23: .cfa -40 + ^ x24: .cfa -48 + ^ .ra: .cfa -56 + ^ x29: .cfa -64 + ^
STACK CFI 68638 .cfa: sp 96 +
STACK CFI 6864c .cfa: sp 0 +
STACK CFI 68650 .cfa: x29 64 +
STACK CFI INIT 68674 244 .cfa: sp 0 +
STACK CFI 68678 .cfa: sp 112 +
STACK CFI 68690 .cfa: x29 80 + x19: .cfa -8 + ^ x20: .cfa -16 + ^ x21: .cfa -24 + ^ x22: .cfa -32 + ^ x23: .cfa -40 + ^ x24: .cfa -48 + ^ x25: .cfa -64 + ^ .ra: .cfa -72 + ^ x29: .cfa -80 + ^
STACK CFI 68878 .cfa: sp 112 +
STACK CFI 68890 .cfa: sp 0 +
STACK CFI 68894 .cfa: x29 80 +
STACK CFI INIT 688b8 1ec .cfa: sp 0 +
STACK CFI 688bc .cfa: sp 96 +
STACK CFI 688d0 .cfa: x29 64 + x19: .cfa -8 + ^ x20: .cfa -16 + ^ x21: .cfa -24 + ^ x22: .cfa -32 + ^ x23: .cfa -40 + ^ x24: .cfa -48 + ^ .ra: .cfa -56 + ^ x29: .cfa -64 + ^
STACK CFI 68a68 .cfa: sp 96 +
STACK CFI 68a7c .cfa: sp 0 +
STACK CFI 68a80 .cfa: x29 64 +
STACK CFI INIT 68aa4 304 .cfa: sp 0 +
STACK CFI 68aa8 .cfa: sp 160 +
STACK CFI 68ac4 .cfa: x29 96 + x19: .cfa -8 + ^ x20: .cfa -16 + ^ x21: .cfa -24 + ^ x22: .cfa -32 + ^ x23: .cfa -40 + ^ x24: .cfa -48 + ^ x25: .cfa -56 + ^ x26: .cfa -64 + ^ x27: .cfa -72 + ^ x28: .cfa -80 + ^ .ra: .cfa -88 + ^ x29: .cfa -96 + ^
STACK CFI 68d4c .cfa: sp 160 +
STACK CFI 68d68 .cfa: sp 0 +
STACK CFI 68d6c .cfa: x29 96 +
STACK CFI INIT 68da8 2a4 .cfa: sp 0 +
STACK CFI 68dac .cfa: sp 144 +
STACK CFI 68dc8 .cfa: x29 96 + x19: .cfa -8 + ^ x20: .cfa -16 + ^ x21: .cfa -24 + ^ x22: .cfa -32 + ^ x23: .cfa -40 + ^ x24: .cfa -48 + ^ x25: .cfa -56 + ^ x26: .cfa -64 + ^ x27: .cfa -72 + ^ x28: .cfa -80 + ^ .ra: .cfa -88 + ^ x29: .cfa -96 + ^
STACK CFI 68ff0 .cfa: sp 144 +
STACK CFI 6900c .cfa: sp 0 +
STACK CFI 69010 .cfa: x29 96 +
STACK CFI INIT 6904c 2b4 .cfa: sp 0 +
STACK CFI 69050 .cfa: sp 128 +
STACK CFI 69068 .cfa: x29 80 + x19: .cfa -8 + ^ x20: .cfa -16 + ^ x21: .cfa -24 + ^ x22: .cfa -32 + ^ x23: .cfa -40 + ^ x24: .cfa -48 + ^ x25: .cfa -56 + ^ x26: .cfa -64 + ^ .ra: .cfa -72 + ^ x29: .cfa -80 + ^
STACK CFI 6925c .cfa: sp 128 +
STACK CFI 69274 .cfa: sp 0 +
STACK CFI 69278 .cfa: x29 80 +
STACK CFI 692e0 .cfa: sp 128 +
STACK CFI 692f8 .cfa: sp 0 +
STACK CFI 692fc .cfa: x29 80 +
STACK CFI INIT 69300 dd4 .cfa: sp 0 +
STACK CFI 69304 .cfa: sp 144 +
STACK CFI 69320 .cfa: x29 96 + x19: .cfa -8 + ^ x20: .cfa -16 + ^ x21: .cfa -24 + ^ x22: .cfa -32 + ^ x23: .cfa -40 + ^ x24: .cfa -48 + ^ x25: .cfa -56 + ^ x26: .cfa -64 + ^ x27: .cfa -72 + ^ x28: .cfa -80 + ^ .ra: .cfa -88 + ^ x29: .cfa -96 + ^
STACK CFI 6a0b0 .cfa: sp 144 +
STACK CFI 6a0cc .cfa: sp 0 +
STACK CFI 6a0d0 .cfa: x29 96 +
STACK CFI INIT 6a0d4 254 .cfa: sp 0 +
STACK CFI 6a0d8 .cfa: sp 112 +
STACK CFI 6a0ec .cfa: x29 64 + x19: .cfa -8 + ^ x20: .cfa -16 + ^ x21: .cfa -24 + ^ x22: .cfa -32 + ^ x23: .cfa -40 + ^ x24: .cfa -48 + ^ .ra: .cfa -56 + ^ x29: .cfa -64 + ^
STACK CFI 6a258 .cfa: sp 112 +
STACK CFI 6a26c .cfa: sp 0 +
STACK CFI 6a270 .cfa: x29 64 +
STACK CFI 6a2e0 .cfa: sp 112 +
STACK CFI 6a2f4 .cfa: sp 0 +
STACK CFI 6a2f8 .cfa: x29 64 +
STACK CFI INIT 6a328 258 .cfa: sp 0 +
STACK CFI 6a32c .cfa: sp 96 +
STACK CFI 6a344 .cfa: x29 96 + x19: .cfa -8 + ^ x20: .cfa -16 + ^ x21: .cfa -24 + ^ x22: .cfa -32 + ^ x23: .cfa -40 + ^ x24: .cfa -48 + ^ x25: .cfa -56 + ^ x26: .cfa -64 + ^ x27: .cfa -72 + ^ x28: .cfa -80 + ^ .ra: .cfa -88 + ^ x29: .cfa -96 + ^
STACK CFI 6a53c .cfa: sp 96 +
STACK CFI 6a554 .cfa: sp 0 +
STACK CFI 6a558 .cfa: x29 96 +
STACK CFI 6a564 .cfa: sp 96 +
STACK CFI 6a57c .cfa: sp 0 +
STACK CFI INIT 6b1bc 154 .cfa: sp 0 +
STACK CFI 6b1c0 .cfa: sp 96 +
STACK CFI 6b1d4 .cfa: x29 64 + x19: .cfa -8 + ^ x20: .cfa -16 + ^ x21: .cfa -24 + ^ x22: .cfa -32 + ^ x23: .cfa -48 + ^ .ra: .cfa -56 + ^ x29: .cfa -64 + ^
STACK CFI 6b2b4 .cfa: sp 96 +
STACK CFI 6b2c8 .cfa: sp 0 +
STACK CFI 6b2cc .cfa: x29 64 +
STACK CFI INIT 6b548 44 .cfa: sp 0 +
STACK CFI 6b54c .cfa: sp 32 +
STACK CFI 6b554 .cfa: x29 32 + x19: .cfa -16 + ^ .ra: .cfa -24 + ^ x29: .cfa -32 + ^
STACK CFI 6b570 .cfa: sp 32 +
STACK CFI 6b578 .cfa: sp 0 +
STACK CFI 6b57c .cfa: x29 32 +
STACK CFI 6b580 .cfa: sp 32 +
STACK CFI 6b588 .cfa: sp 0 +
STACK CFI INIT 6b58c 1a4 .cfa: sp 0 +
STACK CFI 6b590 .cfa: sp 64 +
STACK CFI 6b5a0 .cfa: x29 64 + x19: .cfa -8 + ^ x20: .cfa -16 + ^ x21: .cfa -24 + ^ x22: .cfa -32 + ^ x23: .cfa -40 + ^ x24: .cfa -48 + ^ .ra: .cfa -56 + ^ x29: .cfa -64 + ^
STACK CFI 6b71c .cfa: sp 64 +
STACK CFI 6b72c .cfa: sp 0 +
STACK CFI INIT 6b730 17c .cfa: sp 0 +
STACK CFI INIT 6bc50 a0 .cfa: sp 0 +
STACK CFI 6bc54 .cfa: sp 48 +
STACK CFI 6bc60 .cfa: x29 48 + x19: .cfa -8 + ^ x20: .cfa -16 + ^ x21: .cfa -24 + ^ x22: .cfa -32 + ^ .ra: .cfa -40 + ^ x29: .cfa -48 + ^
STACK CFI 6bccc .cfa: sp 48 +
STACK CFI 6bcd8 .cfa: sp 0 +
STACK CFI 6bcdc .cfa: sp 48 +
STACK CFI 6bce8 .cfa: sp 0 +
STACK CFI 6bcec .cfa: x29 48 +
STACK CFI INIT 6c968 158 .cfa: sp 0 +
STACK CFI 6c96c .cfa: sp 96 +
STACK CFI 6c980 .cfa: x29 64 + x19: .cfa -8 + ^ x20: .cfa -16 + ^ x21: .cfa -24 + ^ x22: .cfa -32 + ^ x23: .cfa -48 + ^ .ra: .cfa -56 + ^ x29: .cfa -64 + ^
STACK CFI 6ca64 .cfa: sp 96 +
STACK CFI 6ca78 .cfa: sp 0 +
STACK CFI 6ca7c .cfa: x29 64 +
STACK CFI INIT 6cac0 190 .cfa: sp 0 +
STACK CFI INIT 6d720 1f4 .cfa: sp 0 +
STACK CFI 6d724 .cfa: sp 80 +
STACK CFI 6d738 .cfa: x29 80 + x19: .cfa -8 + ^ x20: .cfa -16 + ^ x21: .cfa -24 + ^ x22: .cfa -32 + ^ x23: .cfa -40 + ^ x24: .cfa -48 + ^ x25: .cfa -64 + ^ .ra: .cfa -72 + ^ x29: .cfa -80 + ^
STACK CFI 6d8d8 .cfa: sp 80 +
STACK CFI 6d8ec .cfa: sp 0 +
STACK CFI 6d8f0 .cfa: x29 80 +
STACK CFI 6d8fc .cfa: sp 80 +
STACK CFI 6d910 .cfa: sp 0 +
STACK CFI INIT 6ec64 124 .cfa: sp 0 +
STACK CFI 6ec94 .cfa: sp 32 +
STACK CFI 6ec9c .cfa: x29 32 + x19: .cfa -8 + ^ x20: .cfa -16 + ^ .ra: .cfa -24 + ^ x29: .cfa -32 + ^
STACK CFI 6ed7c .cfa: sp 32 +
STACK CFI 6ed84 .cfa: sp 0 +
STACK CFI INIT 6f4cc 2f4 .cfa: sp 0 +
STACK CFI 6f4d0 .cfa: sp 64 +
STACK CFI 6f4e0 .cfa: x29 64 + x19: .cfa -8 + ^ x20: .cfa -16 + ^ x21: .cfa -24 + ^ x22: .cfa -32 + ^ x23: .cfa -40 + ^ x24: .cfa -48 + ^ .ra: .cfa -56 + ^ x29: .cfa -64 + ^
STACK CFI 6f73c .cfa: sp 64 +
STACK CFI 6f74c .cfa: sp 0 +
STACK CFI 6f750 .cfa: x29 64 +
STACK CFI INIT 6f7c0 a0 .cfa: sp 0 +
STACK CFI 6f7c4 .cfa: sp 48 +
STACK CFI 6f7d0 .cfa: x29 48 + x19: .cfa -8 + ^ x20: .cfa -16 + ^ x21: .cfa -24 + ^ x22: .cfa -32 + ^ .ra: .cfa -40 + ^ x29: .cfa -48 + ^
STACK CFI 6f83c .cfa: sp 48 +
STACK CFI 6f848 .cfa: sp 0 +
STACK CFI 6f84c .cfa: sp 48 +
STACK CFI 6f858 .cfa: sp 0 +
STACK CFI 6f85c .cfa: x29 48 +
STACK CFI INIT 706ec 160 .cfa: sp 0 +
STACK CFI 706f0 .cfa: sp 64 +
STACK CFI 70700 .cfa: x29 64 + x19: .cfa -8 + ^ x20: .cfa -16 + ^ x21: .cfa -24 + ^ x22: .cfa -32 + ^ x23: .cfa -48 + ^ .ra: .cfa -56 + ^ x29: .cfa -64 + ^
STACK CFI 707f8 .cfa: sp 64 +
STACK CFI 70808 .cfa: sp 0 +
STACK CFI 7080c .cfa: x29 64 +
STACK CFI INIT 7084c 214 .cfa: sp 0 +
STACK CFI 70850 .cfa: sp 128 +
STACK CFI 7086c .cfa: x29 96 + x19: .cfa -8 + ^ x20: .cfa -16 + ^ x21: .cfa -24 + ^ x22: .cfa -32 + ^ x23: .cfa -40 + ^ x24: .cfa -48 + ^ x25: .cfa -56 + ^ x26: .cfa -64 + ^ x27: .cfa -80 + ^ .ra: .cfa -88 + ^ x29: .cfa -96 + ^
STACK CFI 709e8 .cfa: sp 128 +
STACK CFI 70a04 .cfa: sp 0 +
STACK CFI 70a08 .cfa: x29 96 +
STACK CFI INIT 71f24 e30 .cfa: sp 0 +
STACK CFI 71f28 .cfa: sp 192 +
STACK CFI 71f44 .cfa: x29 96 + x19: .cfa -8 + ^ x20: .cfa -16 + ^ x21: .cfa -24 + ^ x22: .cfa -32 + ^ x23: .cfa -40 + ^ x24: .cfa -48 + ^ x25: .cfa -56 + ^ x26: .cfa -64 + ^ x27: .cfa -72 + ^ x28: .cfa -80 + ^ .ra: .cfa -88 + ^ x29: .cfa -96 + ^
STACK CFI 72d30 .cfa: sp 192 +
STACK CFI 72d4c .cfa: sp 0 +
STACK CFI 72d50 .cfa: x29 96 +
STACK CFI INIT 72d54 fd4 .cfa: sp 0 +
STACK CFI 72d58 .cfa: sp 288 +
STACK CFI 72d74 .cfa: x29 96 + x19: .cfa -8 + ^ x20: .cfa -16 + ^ x21: .cfa -24 + ^ x22: .cfa -32 + ^ x23: .cfa -40 + ^ x24: .cfa -48 + ^ x25: .cfa -56 + ^ x26: .cfa -64 + ^ x27: .cfa -72 + ^ x28: .cfa -80 + ^ .ra: .cfa -88 + ^ x29: .cfa -96 + ^
STACK CFI 73d04 .cfa: sp 288 +
STACK CFI 73d20 .cfa: sp 0 +
STACK CFI 73d24 .cfa: x29 96 +
STACK CFI INIT 73d28 510 .cfa: sp 0 +
STACK CFI 73d2c .cfa: sp 144 +
STACK CFI 73d48 .cfa: x29 96 + x19: .cfa -8 + ^ x20: .cfa -16 + ^ x21: .cfa -24 + ^ x22: .cfa -32 + ^ x23: .cfa -40 + ^ x24: .cfa -48 + ^ x25: .cfa -56 + ^ x26: .cfa -64 + ^ x27: .cfa -72 + ^ x28: .cfa -80 + ^ .ra: .cfa -88 + ^ x29: .cfa -96 + ^
STACK CFI 74214 .cfa: sp 144 +
STACK CFI 74230 .cfa: sp 0 +
STACK CFI 74234 .cfa: x29 96 +
STACK CFI INIT 326a0 444 .cfa: sp 0 +
STACK CFI 326a4 .cfa: sp 224 +
STACK CFI 326c0 .cfa: x29 96 + x19: .cfa -8 + ^ x20: .cfa -16 + ^ x21: .cfa -24 + ^ x22: .cfa -32 + ^ x23: .cfa -40 + ^ x24: .cfa -48 + ^ x25: .cfa -56 + ^ x26: .cfa -64 + ^ x27: .cfa -80 + ^ .ra: .cfa -88 + ^ x29: .cfa -96 + ^
STACK CFI 328f0 .cfa: sp 224 +
STACK CFI 3290c .cfa: sp 0 +
STACK CFI 32910 .cfa: x29 96 +
STACK CFI 329dc .cfa: sp 224 +
STACK CFI 329f8 .cfa: sp 0 +
STACK CFI 329fc .cfa: x29 96 +
STACK CFI INIT 32b00 8a8 .cfa: sp 0 +
STACK CFI 32b04 .cfa: sp 256 +
STACK CFI 32b18 .cfa: x29 64 + x19: .cfa -8 + ^ x20: .cfa -16 + ^ x21: .cfa -24 + ^ x22: .cfa -32 + ^ x23: .cfa -40 + ^ x24: .cfa -48 + ^ .ra: .cfa -56 + ^ x29: .cfa -64 + ^
STACK CFI 33168 .cfa: sp 256 +
STACK CFI 3317c .cfa: sp 0 +
STACK CFI 33180 .cfa: x29 64 +
STACK CFI INIT 333f8 74 .cfa: sp 0 +
STACK CFI 333fc .cfa: sp 48 +
STACK CFI 33408 .cfa: x29 32 + x19: .cfa -8 + ^ x20: .cfa -16 + ^ .ra: .cfa -24 + ^ x29: .cfa -32 + ^
STACK CFI 33454 .cfa: sp 48 +
STACK CFI 33460 .cfa: sp 0 +
STACK CFI 33464 .cfa: x29 32 +
STACK CFI INIT 334fc 154 .cfa: sp 0 +
STACK CFI 33500 .cfa: sp 384 +
STACK CFI 33514 .cfa: x29 64 + x19: .cfa -8 + ^ x20: .cfa -16 + ^ x21: .cfa -24 + ^ x22: .cfa -32 + ^ x23: .cfa -40 + ^ x28: .cfa -48 + ^ .ra: .cfa -56 + ^ x29: .cfa -64 + ^
STACK CFI 335f8 .cfa: sp 384 +
STACK CFI 3360c .cfa: sp 0 +
STACK CFI 33610 .cfa: x29 64 +
STACK CFI INIT 33684 124 .cfa: sp 0 +
STACK CFI 33688 .cfa: sp 80 +
STACK CFI 3369c .cfa: x29 80 + x19: .cfa -8 + ^ x20: .cfa -16 + ^ x21: .cfa -24 + ^ x22: .cfa -32 + ^ x23: .cfa -40 + ^ x24: .cfa -48 + ^ x25: .cfa -56 + ^ x26: .cfa -64 + ^ .ra: .cfa -72 + ^ x29: .cfa -80 + ^
STACK CFI 33768 .cfa: sp 80 +
STACK CFI 3377c .cfa: sp 0 +
STACK CFI 33780 .cfa: x29 80 +
STACK CFI INIT 3384c 198 .cfa: sp 0 +
STACK CFI 33850 .cfa: sp 112 +
STACK CFI 33868 .cfa: x29 80 + x19: .cfa -8 + ^ x20: .cfa -16 + ^ x21: .cfa -24 + ^ x22: .cfa -32 + ^ x23: .cfa -40 + ^ x24: .cfa -48 + ^ x25: .cfa -56 + ^ x26: .cfa -64 + ^ .ra: .cfa -72 + ^ x29: .cfa -80 + ^
STACK CFI 33958 .cfa: sp 112 +
STACK CFI 33970 .cfa: sp 0 +
STACK CFI 33974 .cfa: x29 80 +
STACK CFI INIT 339e4 1b4 .cfa: sp 0 +
STACK CFI 339e8 .cfa: sp 128 +
STACK CFI 33a04 .cfa: x29 96 + x19: .cfa -8 + ^ x20: .cfa -16 + ^ x21: .cfa -24 + ^ x22: .cfa -32 + ^ x23: .cfa -40 + ^ x24: .cfa -48 + ^ x25: .cfa -56 + ^ x26: .cfa -64 + ^ x27: .cfa -80 + ^ .ra: .cfa -88 + ^ x29: .cfa -96 + ^
STACK CFI 33b48 .cfa: sp 128 +
STACK CFI 33b64 .cfa: sp 0 +
STACK CFI 33b68 .cfa: x29 96 +
STACK CFI INIT 33bac 50 .cfa: sp 0 +
STACK CFI 33bb0 .cfa: sp 32 +
STACK CFI 33bb8 .cfa: x29 32 + x19: .cfa -8 + ^ x20: .cfa -16 + ^ .ra: .cfa -24 + ^ x29: .cfa -32 + ^
STACK CFI INIT 33c60 15c .cfa: sp 0 +
STACK CFI 33c64 .cfa: sp 80 +
STACK CFI 33c78 .cfa: x29 80 + x19: .cfa -8 + ^ x20: .cfa -16 + ^ x21: .cfa -24 + ^ x22: .cfa -32 + ^ x23: .cfa -40 + ^ x24: .cfa -48 + ^ x25: .cfa -64 + ^ .ra: .cfa -72 + ^ x29: .cfa -80 + ^
STACK CFI 33d88 .cfa: sp 80 +
STACK CFI 33d9c .cfa: sp 0 +
STACK CFI 33da0 .cfa: x29 80 +
STACK CFI INIT 33f04 21c .cfa: sp 0 +
STACK CFI 33f08 .cfa: sp 128 +
STACK CFI 33f20 .cfa: x29 80 + x19: .cfa -8 + ^ x20: .cfa -16 + ^ x21: .cfa -24 + ^ x22: .cfa -32 + ^ x23: .cfa -40 + ^ x24: .cfa -48 + ^ x25: .cfa -64 + ^ .ra: .cfa -72 + ^ x29: .cfa -80 + ^
STACK CFI 340b0 .cfa: sp 128 +
STACK CFI 340c8 .cfa: sp 0 +
STACK CFI 340cc .cfa: x29 80 +
STACK CFI INIT 34808 184 .cfa: sp 0 +
STACK CFI 3480c .cfa: sp 160 +
STACK CFI 34824 .cfa: x29 80 + x19: .cfa -8 + ^ x20: .cfa -16 + ^ x21: .cfa -24 + ^ x22: .cfa -32 + ^ x23: .cfa -40 + ^ x24: .cfa -48 + ^ x25: .cfa -56 + ^ x26: .cfa -64 + ^ .ra: .cfa -72 + ^ x29: .cfa -80 + ^
STACK CFI 34924 .cfa: sp 160 +
STACK CFI 3493c .cfa: sp 0 +
STACK CFI 34940 .cfa: x29 80 +
STACK CFI INIT 35464 444 .cfa: sp 0 +
STACK CFI 35468 .cfa: sp 224 +
STACK CFI 35484 .cfa: x29 96 + x19: .cfa -8 + ^ x20: .cfa -16 + ^ x21: .cfa -24 + ^ x22: .cfa -32 + ^ x23: .cfa -40 + ^ x24: .cfa -48 + ^ x25: .cfa -56 + ^ x26: .cfa -64 + ^ x27: .cfa -80 + ^ .ra: .cfa -88 + ^ x29: .cfa -96 + ^
STACK CFI 356b4 .cfa: sp 224 +
STACK CFI 356d0 .cfa: sp 0 +
STACK CFI 356d4 .cfa: x29 96 +
STACK CFI 357a0 .cfa: sp 224 +
STACK CFI 357bc .cfa: sp 0 +
STACK CFI 357c0 .cfa: x29 96 +
STACK CFI INIT 358c4 3d4 .cfa: sp 0 +
STACK CFI 358c8 .cfa: sp 240 +
STACK CFI 358dc .cfa: x29 64 + x19: .cfa -8 + ^ x20: .cfa -16 + ^ x21: .cfa -24 + ^ x22: .cfa -32 + ^ x23: .cfa -48 + ^ .ra: .cfa -56 + ^ x29: .cfa -64 + ^
STACK CFI 35b78 .cfa: sp 240 +
STACK CFI 35b8c .cfa: sp 0 +
STACK CFI 35b90 .cfa: x29 64 +
STACK CFI INIT 35d58 d4 .cfa: sp 0 +
STACK CFI 35d5c .cfa: sp 32 +
STACK CFI 35d64 .cfa: x29 32 + x19: .cfa -16 + ^ .ra: .cfa -24 + ^ x29: .cfa -32 + ^
STACK CFI 35d98 .cfa: sp 32 +
STACK CFI 35da0 .cfa: sp 0 +
STACK CFI 35da4 .cfa: x29 32 +
STACK CFI 35da8 .cfa: sp 32 +
STACK CFI 35db0 .cfa: sp 0 +
STACK CFI 35db4 .cfa: x29 32 +
STACK CFI INIT 35fa0 444 .cfa: sp 0 +
STACK CFI 35fa4 .cfa: sp 224 +
STACK CFI 35fc0 .cfa: x29 96 + x19: .cfa -8 + ^ x20: .cfa -16 + ^ x21: .cfa -24 + ^ x22: .cfa -32 + ^ x23: .cfa -40 + ^ x24: .cfa -48 + ^ x25: .cfa -56 + ^ x26: .cfa -64 + ^ x27: .cfa -80 + ^ .ra: .cfa -88 + ^ x29: .cfa -96 + ^
STACK CFI 361f0 .cfa: sp 224 +
STACK CFI 3620c .cfa: sp 0 +
STACK CFI 36210 .cfa: x29 96 +
STACK CFI 362dc .cfa: sp 224 +
STACK CFI 362f8 .cfa: sp 0 +
STACK CFI 362fc .cfa: x29 96 +
STACK CFI INIT 36400 3dc .cfa: sp 0 +
STACK CFI 36404 .cfa: sp 256 +
STACK CFI 36418 .cfa: x29 64 + x19: .cfa -8 + ^ x20: .cfa -16 + ^ x21: .cfa -24 + ^ x22: .cfa -32 + ^ x23: .cfa -48 + ^ .ra: .cfa -56 + ^ x29: .cfa -64 + ^
STACK CFI 366b4 .cfa: sp 256 +
STACK CFI 366c8 .cfa: sp 0 +
STACK CFI 366cc .cfa: x29 64 +
STACK CFI INIT 367e0 3b8 .cfa: sp 0 +
STACK CFI 367e4 .cfa: sp 176 +
STACK CFI 367fc .cfa: x29 80 + x19: .cfa -8 + ^ x20: .cfa -16 + ^ x21: .cfa -24 + ^ x22: .cfa -32 + ^ x23: .cfa -40 + ^ x24: .cfa -48 + ^ x25: .cfa -64 + ^ .ra: .cfa -72 + ^ x29: .cfa -80 + ^
STACK CFI 36a44 .cfa: sp 176 +
STACK CFI 36a5c .cfa: sp 0 +
STACK CFI 36a60 .cfa: x29 80 +
STACK CFI INIT 36b98 290 .cfa: sp 0 +
STACK CFI 36b9c .cfa: sp 160 +
STACK CFI 36bb8 .cfa: x29 96 + x19: .cfa -8 + ^ x20: .cfa -16 + ^ x21: .cfa -24 + ^ x22: .cfa -32 + ^ x23: .cfa -40 + ^ x24: .cfa -48 + ^ x25: .cfa -56 + ^ x26: .cfa -64 + ^ x27: .cfa -72 + ^ x28: .cfa -80 + ^ .ra: .cfa -88 + ^ x29: .cfa -96 + ^
STACK CFI 36bf0 .cfa: sp 160 +
STACK CFI 36c0c .cfa: sp 0 +
STACK CFI 36c10 .cfa: x29 96 +
STACK CFI INIT 36e28 114 .cfa: sp 0 +
STACK CFI 36e2c .cfa: sp 64 +
STACK CFI 36e3c .cfa: x29 64 + x19: .cfa -8 + ^ x20: .cfa -16 + ^ x21: .cfa -24 + ^ x22: .cfa -32 + ^ x23: .cfa -48 + ^ .ra: .cfa -56 + ^ x29: .cfa -64 + ^
STACK CFI 36f18 .cfa: sp 64 +
STACK CFI 36f28 .cfa: sp 0 +
STACK CFI 36f2c .cfa: x29 64 +
STACK CFI INIT 36f54 200 .cfa: sp 0 +
STACK CFI 36f58 .cfa: sp 96 +
STACK CFI 36f70 .cfa: x29 96 + x19: .cfa -8 + ^ x20: .cfa -16 + ^ x21: .cfa -24 + ^ x22: .cfa -32 + ^ x23: .cfa -40 + ^ x24: .cfa -48 + ^ x25: .cfa -56 + ^ x26: .cfa -64 + ^ x27: .cfa -80 + ^ .ra: .cfa -88 + ^ x29: .cfa -96 + ^
STACK CFI 370e8 .cfa: sp 96 +
STACK CFI 37100 .cfa: sp 0 +
STACK CFI 37104 .cfa: x29 96 +
STACK CFI INIT 3717c 50 .cfa: sp 0 +
STACK CFI 37180 .cfa: sp 32 +
STACK CFI 37188 .cfa: x29 32 + x19: .cfa -8 + ^ x20: .cfa -16 + ^ .ra: .cfa -24 + ^ x29: .cfa -32 + ^
STACK CFI INIT 372a8 b8 .cfa: sp 0 +
STACK CFI 372ac .cfa: sp 48 +
STACK CFI 372b8 .cfa: x29 48 + x19: .cfa -8 + ^ x20: .cfa -16 + ^ x21: .cfa -32 + ^ .ra: .cfa -40 + ^ x29: .cfa -48 + ^
STACK CFI 37328 .cfa: sp 48 +
STACK CFI 37334 .cfa: sp 0 +
STACK CFI 37338 .cfa: x29 48 +
STACK CFI INIT 373b0 444 .cfa: sp 0 +
STACK CFI 373b4 .cfa: sp 224 +
STACK CFI 373d0 .cfa: x29 96 + x19: .cfa -8 + ^ x20: .cfa -16 + ^ x21: .cfa -24 + ^ x22: .cfa -32 + ^ x23: .cfa -40 + ^ x24: .cfa -48 + ^ x25: .cfa -56 + ^ x26: .cfa -64 + ^ x27: .cfa -80 + ^ .ra: .cfa -88 + ^ x29: .cfa -96 + ^
STACK CFI 37600 .cfa: sp 224 +
STACK CFI 3761c .cfa: sp 0 +
STACK CFI 37620 .cfa: x29 96 +
STACK CFI 376ec .cfa: sp 224 +
STACK CFI 37708 .cfa: sp 0 +
STACK CFI 3770c .cfa: x29 96 +
STACK CFI INIT 37860 434 .cfa: sp 0 +
STACK CFI 37864 .cfa: sp 112 +
STACK CFI 37880 .cfa: x29 96 + x19: .cfa -8 + ^ x20: .cfa -16 + ^ x21: .cfa -24 + ^ x22: .cfa -32 + ^ x23: .cfa -40 + ^ x24: .cfa -48 + ^ x25: .cfa -56 + ^ x26: .cfa -64 + ^ x27: .cfa -72 + ^ x28: .cfa -80 + ^ .ra: .cfa -88 + ^ x29: .cfa -96 + ^
STACK CFI 37968 .cfa: sp 112 +
STACK CFI 37984 .cfa: sp 0 +
STACK CFI 37988 .cfa: x29 96 +
STACK CFI 37994 .cfa: sp 112 +
STACK CFI 379b0 .cfa: sp 0 +
STACK CFI 379b4 .cfa: x29 96 +
STACK CFI 379c0 .cfa: sp 112 +
STACK CFI 379dc .cfa: sp 0 +
STACK CFI 379e0 .cfa: x29 96 +
STACK CFI 379ec .cfa: sp 112 +
STACK CFI 37a08 .cfa: sp 0 +
STACK CFI 37a0c .cfa: x29 96 +
STACK CFI 37c2c .cfa: sp 112 +
STACK CFI 37c48 .cfa: sp 0 +
STACK CFI 37c4c .cfa: x29 96 +
STACK CFI INIT 37c94 4c .cfa: sp 0 +
STACK CFI 37c98 .cfa: sp 32 +
STACK CFI 37ca0 .cfa: x29 32 + x19: .cfa -8 + ^ x20: .cfa -16 + ^ .ra: .cfa -24 + ^ x29: .cfa -32 + ^
STACK CFI INIT 385ac 4c .cfa: sp 0 +
STACK CFI 385b0 .cfa: sp 32 +
STACK CFI 385b8 .cfa: x29 32 + x19: .cfa -8 + ^ x20: .cfa -16 + ^ .ra: .cfa -24 + ^ x29: .cfa -32 + ^
STACK CFI INIT 38710 364 .cfa: sp 0 +
STACK CFI 38714 .cfa: sp 144 +
STACK CFI 38728 .cfa: x29 64 + x19: .cfa -8 + ^ x20: .cfa -16 + ^ x21: .cfa -24 + ^ x22: .cfa -32 + ^ x23: .cfa -48 + ^ .ra: .cfa -56 + ^ x29: .cfa -64 + ^
STACK CFI 388bc .cfa: sp 144 +
STACK CFI 388d0 .cfa: sp 0 +
STACK CFI 388d4 .cfa: x29 64 +
STACK CFI INIT 3908c 6c .cfa: sp 0 +
STACK CFI 39090 .cfa: sp 32 +
STACK CFI 39098 .cfa: x29 32 + x19: .cfa -8 + ^ x20: .cfa -16 + ^ .ra: .cfa -24 + ^ x29: .cfa -32 + ^
STACK CFI 390d8 .cfa: sp 32 +
STACK CFI 390e0 .cfa: sp 0 +
STACK CFI 390e4 .cfa: x29 32 +
STACK CFI INIT 391ac 4c .cfa: sp 0 +
STACK CFI 391b0 .cfa: sp 32 +
STACK CFI 391b8 .cfa: x29 32 + x19: .cfa -8 + ^ x20: .cfa -16 + ^ .ra: .cfa -24 + ^ x29: .cfa -32 + ^
STACK CFI INIT 39618 1bc .cfa: sp 0 +
STACK CFI 3961c .cfa: sp 176 +
STACK CFI 3962c .cfa: x29 48 + x19: .cfa -8 + ^ x20: .cfa -16 + ^ x21: .cfa -24 + ^ x22: .cfa -32 + ^ .ra: .cfa -40 + ^ x29: .cfa -48 + ^
STACK CFI 3978c .cfa: sp 176 +
STACK CFI 3979c .cfa: sp 0 +
STACK CFI 397a0 .cfa: x29 48 +
STACK CFI INIT 397d4 474 .cfa: sp 0 +
STACK CFI 397d8 .cfa: sp 256 +
STACK CFI 397f4 .cfa: x29 96 + x19: .cfa -8 + ^ x20: .cfa -16 + ^ x21: .cfa -24 + ^ x22: .cfa -32 + ^ x23: .cfa -40 + ^ x24: .cfa -48 + ^ x25: .cfa -56 + ^ x26: .cfa -64 + ^ x27: .cfa -72 + ^ x28: .cfa -80 + ^ .ra: .cfa -88 + ^ x29: .cfa -96 + ^
STACK CFI 39b4c .cfa: sp 256 +
STACK CFI 39b68 .cfa: sp 0 +
STACK CFI 39b6c .cfa: x29 96 +
STACK CFI INIT 39e68 4c .cfa: sp 0 +
STACK CFI 39e6c .cfa: sp 32 +
STACK CFI 39e74 .cfa: x29 32 + x19: .cfa -8 + ^ x20: .cfa -16 + ^ .ra: .cfa -24 + ^ x29: .cfa -32 + ^
STACK CFI INIT 39eb4 178 .cfa: sp 0 +
STACK CFI 39eb8 .cfa: sp 80 +
STACK CFI 39ecc .cfa: x29 80 + x19: .cfa -8 + ^ x20: .cfa -16 + ^ x21: .cfa -24 + ^ x22: .cfa -32 + ^ x23: .cfa -40 + ^ x24: .cfa -48 + ^ x25: .cfa -64 + ^ .ra: .cfa -72 + ^ x29: .cfa -80 + ^
STACK CFI 39fc0 .cfa: sp 80 +
STACK CFI 39fd4 .cfa: sp 0 +
STACK CFI 39fd8 .cfa: x29 80 +
STACK CFI INIT 3a02c 4c .cfa: sp 0 +
STACK CFI 3a030 .cfa: sp 32 +
STACK CFI 3a038 .cfa: x29 32 + x19: .cfa -8 + ^ x20: .cfa -16 + ^ .ra: .cfa -24 + ^ x29: .cfa -32 + ^
STACK CFI INIT 3a5e0 154 .cfa: sp 0 +
STACK CFI 3a5e4 .cfa: sp 64 +
STACK CFI 3a5f4 .cfa: x29 64 + x19: .cfa -8 + ^ x20: .cfa -16 + ^ x21: .cfa -24 + ^ x22: .cfa -32 + ^ x23: .cfa -48 + ^ .ra: .cfa -56 + ^ x29: .cfa -64 + ^
STACK CFI 3a708 .cfa: sp 64 +
STACK CFI 3a718 .cfa: sp 0 +
STACK CFI 3a71c .cfa: x29 64 +
STACK CFI INIT 3a734 4c .cfa: sp 0 +
STACK CFI 3a738 .cfa: sp 32 +
STACK CFI 3a740 .cfa: x29 32 + x19: .cfa -8 + ^ x20: .cfa -16 + ^ .ra: .cfa -24 + ^ x29: .cfa -32 + ^
STACK CFI INIT 3a830 4c .cfa: sp 0 +
STACK CFI 3a834 .cfa: sp 32 +
STACK CFI 3a83c .cfa: x29 32 + x19: .cfa -8 + ^ x20: .cfa -16 + ^ .ra: .cfa -24 + ^ x29: .cfa -32 + ^
STACK CFI INIT 3a944 204 .cfa: sp 0 +
STACK CFI 3a948 .cfa: sp 48 +
STACK CFI 3a954 .cfa: x29 48 + x19: .cfa -8 + ^ x20: .cfa -16 + ^ x21: .cfa -32 + ^ .ra: .cfa -40 + ^ x29: .cfa -48 + ^
STACK CFI 3ab10 .cfa: sp 48 +
STACK CFI 3ab1c .cfa: sp 0 +
STACK CFI 3ab20 .cfa: x29 48 +
STACK CFI INIT 3afb0 140 .cfa: sp 0 +
STACK CFI 3afb4 .cfa: sp 48 +
STACK CFI 3afc0 .cfa: x29 48 + x19: .cfa -8 + ^ x20: .cfa -16 + ^ x21: .cfa -32 + ^ .ra: .cfa -40 + ^ x29: .cfa -48 + ^
STACK CFI 3b0a0 .cfa: sp 48 +
STACK CFI 3b0ac .cfa: sp 0 +
STACK CFI 3b0b0 .cfa: x29 48 +
STACK CFI INIT 3b0f0 4c .cfa: sp 0 +
STACK CFI 3b0f4 .cfa: sp 32 +
STACK CFI 3b0fc .cfa: x29 32 + x19: .cfa -8 + ^ x20: .cfa -16 + ^ .ra: .cfa -24 + ^ x29: .cfa -32 + ^
STACK CFI INIT 3bce0 1c0 .cfa: sp 0 +
STACK CFI 3bce4 .cfa: sp 128 +
STACK CFI 3bcfc .cfa: x29 80 + x19: .cfa -8 + ^ x20: .cfa -16 + ^ x21: .cfa -24 + ^ x22: .cfa -32 + ^ x23: .cfa -40 + ^ x24: .cfa -48 + ^ x25: .cfa -64 + ^ .ra: .cfa -72 + ^ x29: .cfa -80 + ^
STACK CFI 3bdf0 .cfa: sp 128 +
STACK CFI 3be08 .cfa: sp 0 +
STACK CFI 3be0c .cfa: x29 80 +
STACK CFI INIT 3c08c 9b0 .cfa: sp 0 +
STACK CFI 3c090 .cfa: sp 224 +
STACK CFI 3c0ac .cfa: x29 96 + x19: .cfa -8 + ^ x20: .cfa -16 + ^ x21: .cfa -24 + ^ x22: .cfa -32 + ^ x23: .cfa -40 + ^ x24: .cfa -48 + ^ x25: .cfa -56 + ^ x26: .cfa -64 + ^ x27: .cfa -72 + ^ x28: .cfa -80 + ^ .ra: .cfa -88 + ^ x29: .cfa -96 + ^
STACK CFI 3c9e8 .cfa: sp 224 +
STACK CFI 3ca04 .cfa: sp 0 +
STACK CFI 3ca08 .cfa: x29 96 +
STACK CFI INIT 3ca80 29c .cfa: sp 0 +
STACK CFI 3ca84 .cfa: sp 144 +
STACK CFI 3ca9c .cfa: x29 80 + x19: .cfa -8 + ^ x20: .cfa -16 + ^ x21: .cfa -24 + ^ x22: .cfa -32 + ^ x23: .cfa -40 + ^ x24: .cfa -48 + ^ x25: .cfa -64 + ^ .ra: .cfa -72 + ^ x29: .cfa -80 + ^
STACK CFI 3cca0 .cfa: sp 144 +
STACK CFI 3ccb8 .cfa: sp 0 +
STACK CFI 3ccbc .cfa: x29 80 +
STACK CFI INIT 3cec8 1c4 .cfa: sp 0 +
STACK CFI 3cecc .cfa: sp 112 +
STACK CFI 3cee4 .cfa: x29 80 + x19: .cfa -8 + ^ x20: .cfa -16 + ^ x21: .cfa -24 + ^ x22: .cfa -32 + ^ x23: .cfa -40 + ^ x24: .cfa -48 + ^ x25: .cfa -64 + ^ .ra: .cfa -72 + ^ x29: .cfa -80 + ^
STACK CFI 3d010 .cfa: sp 112 +
STACK CFI 3d028 .cfa: sp 0 +
STACK CFI 3d02c .cfa: x29 80 +
STACK CFI INIT 3d0a0 4c .cfa: sp 0 +
STACK CFI 3d0a4 .cfa: sp 32 +
STACK CFI 3d0ac .cfa: x29 32 + x19: .cfa -8 + ^ x20: .cfa -16 + ^ .ra: .cfa -24 + ^ x29: .cfa -32 + ^
STACK CFI INIT 3d0ec 4e0 .cfa: sp 0 +
STACK CFI 3d0f0 .cfa: sp 176 +
STACK CFI 3d104 .cfa: x29 64 + x19: .cfa -8 + ^ x20: .cfa -16 + ^ x21: .cfa -24 + ^ x22: .cfa -32 + ^ x23: .cfa -40 + ^ x24: .cfa -48 + ^ .ra: .cfa -56 + ^ x29: .cfa -64 + ^
STACK CFI 3d340 .cfa: sp 176 +
STACK CFI 3d354 .cfa: sp 0 +
STACK CFI 3d358 .cfa: x29 64 +
STACK CFI INIT 3d5cc 28c .cfa: sp 0 +
STACK CFI 3d5d0 .cfa: sp 128 +
STACK CFI 3d5e4 .cfa: x29 64 + x19: .cfa -8 + ^ x20: .cfa -16 + ^ x21: .cfa -24 + ^ x22: .cfa -32 + ^ x23: .cfa -40 + ^ x24: .cfa -48 + ^ .ra: .cfa -56 + ^ x29: .cfa -64 + ^
STACK CFI 3d788 .cfa: sp 128 +
STACK CFI 3d79c .cfa: sp 0 +
STACK CFI 3d7a0 .cfa: x29 64 +
STACK CFI INIT 3de28 470 .cfa: sp 0 +
STACK CFI 3de2c .cfa: sp 176 +
STACK CFI 3de40 .cfa: x29 64 + x19: .cfa -8 + ^ x20: .cfa -16 + ^ x21: .cfa -24 + ^ x22: .cfa -32 + ^ x23: .cfa -40 + ^ x24: .cfa -48 + ^ .ra: .cfa -56 + ^ x29: .cfa -64 + ^
STACK CFI 3e20c .cfa: sp 176 +
STACK CFI 3e220 .cfa: sp 0 +
STACK CFI 3e224 .cfa: x29 64 +
STACK CFI INIT 3e650 4c .cfa: sp 0 +
STACK CFI 3e654 .cfa: sp 32 +
STACK CFI 3e65c .cfa: x29 32 + x19: .cfa -8 + ^ x20: .cfa -16 + ^ .ra: .cfa -24 + ^ x29: .cfa -32 + ^
STACK CFI INIT 3e69c 29c .cfa: sp 0 +
STACK CFI 3e6a0 .cfa: sp 144 +
STACK CFI 3e6b8 .cfa: x29 80 + x19: .cfa -8 + ^ x20: .cfa -16 + ^ x21: .cfa -24 + ^ x22: .cfa -32 + ^ x23: .cfa -40 + ^ x24: .cfa -48 + ^ x25: .cfa -64 + ^ .ra: .cfa -72 + ^ x29: .cfa -80 + ^
STACK CFI 3e8bc .cfa: sp 144 +
STACK CFI 3e8d4 .cfa: sp 0 +
STACK CFI 3e8d8 .cfa: x29 80 +
STACK CFI INIT 3e938 218 .cfa: sp 0 +
STACK CFI 3e93c .cfa: sp 112 +
STACK CFI 3e954 .cfa: x29 80 + x19: .cfa -8 + ^ x20: .cfa -16 + ^ x21: .cfa -24 + ^ x22: .cfa -32 + ^ x23: .cfa -40 + ^ x24: .cfa -48 + ^ x25: .cfa -64 + ^ .ra: .cfa -72 + ^ x29: .cfa -80 + ^
STACK CFI 3ead4 .cfa: sp 112 +
STACK CFI 3eaec .cfa: sp 0 +
STACK CFI 3eaf0 .cfa: x29 80 +
STACK CFI INIT 3eb50 4c .cfa: sp 0 +
STACK CFI 3eb54 .cfa: sp 32 +
STACK CFI 3eb5c .cfa: x29 32 + x19: .cfa -8 + ^ x20: .cfa -16 + ^ .ra: .cfa -24 + ^ x29: .cfa -32 + ^
STACK CFI INIT 3eb9c 180 .cfa: sp 0 +
STACK CFI 3eba0 .cfa: sp 112 +
STACK CFI 3ebb8 .cfa: x29 80 + x19: .cfa -8 + ^ x20: .cfa -16 + ^ x21: .cfa -24 + ^ x22: .cfa -32 + ^ x23: .cfa -40 + ^ x24: .cfa -48 + ^ x25: .cfa -64 + ^ .ra: .cfa -72 + ^ x29: .cfa -80 + ^
STACK CFI 3ecb8 .cfa: sp 112 +
STACK CFI 3ecd0 .cfa: sp 0 +
STACK CFI 3ecd4 .cfa: x29 80 +
STACK CFI INIT 3f150 1b4 .cfa: sp 0 +
STACK CFI 3f154 .cfa: sp 112 +
STACK CFI 3f16c .cfa: x29 80 + x19: .cfa -8 + ^ x20: .cfa -16 + ^ x21: .cfa -24 + ^ x22: .cfa -32 + ^ x23: .cfa -40 + ^ x24: .cfa -48 + ^ x25: .cfa -64 + ^ .ra: .cfa -72 + ^ x29: .cfa -80 + ^
STACK CFI 3f2a0 .cfa: sp 112 +
STACK CFI 3f2b8 .cfa: sp 0 +
STACK CFI 3f2bc .cfa: x29 80 +
STACK CFI INIT 3f304 4c .cfa: sp 0 +
STACK CFI 3f308 .cfa: sp 32 +
STACK CFI 3f310 .cfa: x29 32 + x19: .cfa -8 + ^ x20: .cfa -16 + ^ .ra: .cfa -24 + ^ x29: .cfa -32 + ^
STACK CFI INIT 3f610 140 .cfa: sp 0 +
STACK CFI 3f614 .cfa: sp 96 +
STACK CFI 3f62c .cfa: x29 96 + x19: .cfa -8 + ^ x20: .cfa -16 + ^ x21: .cfa -24 + ^ x22: .cfa -32 + ^ x23: .cfa -40 + ^ x24: .cfa -48 + ^ x25: .cfa -56 + ^ x26: .cfa -64 + ^ x27: .cfa -72 + ^ x28: .cfa -80 + ^ .ra: .cfa -88 + ^ x29: .cfa -96 + ^
STACK CFI 3f6e8 .cfa: sp 96 +
STACK CFI 3f700 .cfa: sp 0 +
STACK CFI 3f704 .cfa: x29 96 +
STACK CFI INIT 3f750 4c .cfa: sp 0 +
STACK CFI 3f754 .cfa: sp 32 +
STACK CFI 3f75c .cfa: x29 32 + x19: .cfa -8 + ^ x20: .cfa -16 + ^ .ra: .cfa -24 + ^ x29: .cfa -32 + ^
STACK CFI INIT 3f79c 4c .cfa: sp 0 +
STACK CFI 3f7a0 .cfa: sp 32 +
STACK CFI 3f7a8 .cfa: x29 32 + x19: .cfa -8 + ^ x20: .cfa -16 + ^ .ra: .cfa -24 + ^ x29: .cfa -32 + ^
STACK CFI INIT 3fc78 4c .cfa: sp 0 +
STACK CFI 3fc7c .cfa: sp 32 +
STACK CFI 3fc84 .cfa: x29 32 + x19: .cfa -8 + ^ x20: .cfa -16 + ^ .ra: .cfa -24 + ^ x29: .cfa -32 + ^
STACK CFI INIT 406f8 47c .cfa: sp 0 +
STACK CFI 406fc .cfa: sp 256 +
STACK CFI 40710 .cfa: x29 64 + x19: .cfa -8 + ^ x20: .cfa -16 + ^ x21: .cfa -24 + ^ x22: .cfa -32 + ^ x23: .cfa -48 + ^ .ra: .cfa -56 + ^ x29: .cfa -64 + ^
STACK CFI 40a2c .cfa: sp 256 +
STACK CFI 40a40 .cfa: sp 0 +
STACK CFI 40a44 .cfa: x29 64 +
STACK CFI INIT 40b78 68c .cfa: sp 0 +
STACK CFI 40b7c .cfa: sp 336 +
STACK CFI 40b9c .cfa: x29 96 + x19: .cfa -8 + ^ x20: .cfa -16 + ^ x21: .cfa -24 + ^ x22: .cfa -32 + ^ x23: .cfa -40 + ^ x24: .cfa -48 + ^ x25: .cfa -56 + ^ x26: .cfa -64 + ^ x27: .cfa -72 + ^ x28: .cfa -80 + ^ .ra: .cfa -88 + ^ x29: .cfa -96 + ^ v8: .cfa -112 + ^
STACK CFI 41070 .cfa: sp 336 +
STACK CFI 41090 .cfa: sp 0 +
STACK CFI 41094 .cfa: x29 96 +
STACK CFI INIT 41218 20 .cfa: sp 0 +
STACK CFI 4121c .cfa: sp 16 +
STACK CFI 41220 .cfa: x29 16 + .ra: .cfa -8 + ^ x29: .cfa -16 + ^
STACK CFI 4122c .cfa: sp 16 +
STACK CFI 41230 .cfa: sp 0 +
STACK CFI 41234 .cfa: x29 16 +
STACK CFI INIT 4138c 160 .cfa: sp 0 +
STACK CFI 41390 .cfa: sp 240 +
STACK CFI 413a4 .cfa: x29 64 + x19: .cfa -8 + ^ x20: .cfa -16 + ^ x21: .cfa -24 + ^ x22: .cfa -32 + ^ x23: .cfa -40 + ^ x24: .cfa -48 + ^ .ra: .cfa -56 + ^ x29: .cfa -64 + ^
STACK CFI 414a4 .cfa: sp 240 +
STACK CFI 414b8 .cfa: sp 0 +
STACK CFI 414bc .cfa: x29 64 +
STACK CFI INIT 43bf0 128 .cfa: sp 0 +
STACK CFI 43bf4 .cfa: sp 192 +
STACK CFI 43c08 .cfa: x29 64 + x19: .cfa -8 + ^ x20: .cfa -16 + ^ x21: .cfa -24 + ^ x22: .cfa -32 + ^ x23: .cfa -40 + ^ x24: .cfa -48 + ^ .ra: .cfa -56 + ^ x29: .cfa -64 + ^
STACK CFI 43ccc .cfa: sp 192 +
STACK CFI 43ce0 .cfa: sp 0 +
STACK CFI 43ce4 .cfa: x29 64 +
STACK CFI INIT 4412c 934 .cfa: sp 0 +
STACK CFI 44130 .cfa: sp 352 +
STACK CFI 4414c .cfa: x29 96 + x19: .cfa -8 + ^ x20: .cfa -16 + ^ x21: .cfa -24 + ^ x22: .cfa -32 + ^ x23: .cfa -40 + ^ x24: .cfa -48 + ^ x25: .cfa -56 + ^ x26: .cfa -64 + ^ x27: .cfa -72 + ^ x28: .cfa -80 + ^ .ra: .cfa -88 + ^ x29: .cfa -96 + ^
STACK CFI 449c0 .cfa: sp 352 +
STACK CFI 449dc .cfa: sp 0 +
STACK CFI 449e0 .cfa: x29 96 +
STACK CFI INIT 44a60 600 .cfa: sp 0 +
STACK CFI 44a64 .cfa: sp 400 +
STACK CFI 44a80 .cfa: x29 96 + x19: .cfa -8 + ^ x20: .cfa -16 + ^ x21: .cfa -24 + ^ x22: .cfa -32 + ^ x23: .cfa -40 + ^ x24: .cfa -48 + ^ x25: .cfa -56 + ^ x26: .cfa -64 + ^ x27: .cfa -72 + ^ x28: .cfa -80 + ^ .ra: .cfa -88 + ^ x29: .cfa -96 + ^
STACK CFI 44fb8 .cfa: sp 400 +
STACK CFI 44fd4 .cfa: sp 0 +
STACK CFI 44fd8 .cfa: x29 96 +
STACK CFI INIT 45230 4bc .cfa: sp 0 +
STACK CFI 45234 .cfa: sp 144 +
STACK CFI 45250 .cfa: x29 96 + x19: .cfa -8 + ^ x20: .cfa -16 + ^ x21: .cfa -24 + ^ x22: .cfa -32 + ^ x23: .cfa -40 + ^ x24: .cfa -48 + ^ x25: .cfa -56 + ^ x26: .cfa -64 + ^ x27: .cfa -80 + ^ .ra: .cfa -88 + ^ x29: .cfa -96 + ^
STACK CFI 455cc .cfa: sp 144 +
STACK CFI 455e8 .cfa: sp 0 +
STACK CFI 455ec .cfa: x29 96 +
STACK CFI INIT 45b8c 3e4 .cfa: sp 0 +
STACK CFI 45b90 .cfa: sp 112 +
STACK CFI 45bac .cfa: x29 96 + x19: .cfa -8 + ^ x20: .cfa -16 + ^ x21: .cfa -24 + ^ x22: .cfa -32 + ^ x23: .cfa -40 + ^ x24: .cfa -48 + ^ x25: .cfa -56 + ^ x26: .cfa -64 + ^ x27: .cfa -72 + ^ x28: .cfa -80 + ^ .ra: .cfa -88 + ^ x29: .cfa -96 + ^
STACK CFI 45d50 .cfa: sp 112 +
STACK CFI 45d6c .cfa: sp 0 +
STACK CFI 45d70 .cfa: x29 96 +
STACK CFI 45ed8 .cfa: sp 112 +
STACK CFI 45ef4 .cfa: sp 0 +
STACK CFI 45ef8 .cfa: x29 96 +
STACK CFI INIT 46808 444 .cfa: sp 0 +
STACK CFI 4680c .cfa: sp 224 +
STACK CFI 46828 .cfa: x29 96 + x19: .cfa -8 + ^ x20: .cfa -16 + ^ x21: .cfa -24 + ^ x22: .cfa -32 + ^ x23: .cfa -40 + ^ x24: .cfa -48 + ^ x25: .cfa -56 + ^ x26: .cfa -64 + ^ x27: .cfa -80 + ^ .ra: .cfa -88 + ^ x29: .cfa -96 + ^
STACK CFI 46a58 .cfa: sp 224 +
STACK CFI 46a74 .cfa: sp 0 +
STACK CFI 46a78 .cfa: x29 96 +
STACK CFI 46b44 .cfa: sp 224 +
STACK CFI 46b60 .cfa: sp 0 +
STACK CFI 46b64 .cfa: x29 96 +
STACK CFI INIT 46c68 364 .cfa: sp 0 +
STACK CFI 46c6c .cfa: sp 192 +
STACK CFI 46c80 .cfa: x29 64 + x19: .cfa -8 + ^ x20: .cfa -16 + ^ x21: .cfa -24 + ^ x22: .cfa -32 + ^ x23: .cfa -48 + ^ .ra: .cfa -56 + ^ x29: .cfa -64 + ^
STACK CFI 46ec8 .cfa: sp 192 +
STACK CFI 46edc .cfa: sp 0 +
STACK CFI 46ee0 .cfa: x29 64 +
STACK CFI INIT 46fd0 b8 .cfa: sp 0 +
STACK CFI 46fd4 .cfa: sp 32 +
STACK CFI 46fdc .cfa: x29 32 + x19: .cfa -8 + ^ x20: .cfa -16 + ^ .ra: .cfa -24 + ^ x29: .cfa -32 + ^
STACK CFI 47010 .cfa: sp 32 +
STACK CFI 47018 .cfa: sp 0 +
STACK CFI 4701c .cfa: x29 32 +
STACK CFI 47020 .cfa: sp 32 +
STACK CFI 47028 .cfa: sp 0 +
STACK CFI 4702c .cfa: x29 32 +
STACK CFI INIT 47088 fc .cfa: sp 0 +
STACK CFI 4708c .cfa: sp 80 +
STACK CFI 4709c .cfa: x29 48 + x19: .cfa -8 + ^ x20: .cfa -16 + ^ x21: .cfa -32 + ^ .ra: .cfa -40 + ^ x29: .cfa -48 + ^
STACK CFI 47140 .cfa: sp 80 +
STACK CFI 47150 .cfa: sp 0 +
STACK CFI 47154 .cfa: x29 48 +
STACK CFI INIT 47184 71c .cfa: sp 0 +
STACK CFI 47188 .cfa: sp 80 +
STACK CFI 4719c .cfa: x29 80 + x19: .cfa -8 + ^ x20: .cfa -16 + ^ x21: .cfa -24 + ^ x22: .cfa -32 + ^ x23: .cfa -40 + ^ x24: .cfa -48 + ^ x25: .cfa -56 + ^ x26: .cfa -64 + ^ .ra: .cfa -72 + ^ x29: .cfa -80 + ^
STACK CFI 475b8 .cfa: sp 80 +
STACK CFI 475cc .cfa: sp 0 +
STACK CFI 475d0 .cfa: x29 80 +
STACK CFI INIT 478a0 550 .cfa: sp 0 +
STACK CFI 478a4 .cfa: sp 96 +
STACK CFI 478b8 .cfa: x29 64 + x19: .cfa -8 + ^ x20: .cfa -16 + ^ x21: .cfa -24 + ^ x22: .cfa -32 + ^ x23: .cfa -48 + ^ .ra: .cfa -56 + ^ x29: .cfa -64 + ^
STACK CFI 47c58 .cfa: sp 96 +
STACK CFI 47c6c .cfa: sp 0 +
STACK CFI 47c70 .cfa: x29 64 +
STACK CFI INIT 47f64 1c .cfa: sp 0 +
STACK CFI 47f68 .cfa: sp 16 +
STACK CFI 47f6c .cfa: x29 16 + .ra: .cfa -8 + ^ x29: .cfa -16 + ^
STACK CFI 47f74 .cfa: sp 16 +
STACK CFI 47f78 .cfa: sp 0 +
STACK CFI 47f7c .cfa: x29 16 +
STACK CFI INIT 4828c 440 .cfa: sp 0 +
STACK CFI 48290 .cfa: sp 48 +
STACK CFI 4829c .cfa: x29 48 + x19: .cfa -8 + ^ x20: .cfa -16 + ^ x21: .cfa -24 + ^ x22: .cfa -32 + ^ .ra: .cfa -40 + ^ x29: .cfa -48 + ^
STACK CFI 48644 .cfa: sp 48 +
STACK CFI 48650 .cfa: sp 0 +
STACK CFI 48654 .cfa: x29 48 +
STACK CFI 486a4 .cfa: sp 48 +
STACK CFI 486b0 .cfa: sp 0 +
STACK CFI 486b4 .cfa: x29 48 +
STACK CFI INIT 48744 1c .cfa: sp 0 +
STACK CFI 48748 .cfa: sp 16 +
STACK CFI 4874c .cfa: x29 16 + .ra: .cfa -8 + ^ x29: .cfa -16 + ^
STACK CFI 48754 .cfa: sp 16 +
STACK CFI 48758 .cfa: sp 0 +
STACK CFI 4875c .cfa: x29 16 +
STACK CFI INIT 487f0 98 .cfa: sp 0 +
STACK CFI 487f4 .cfa: sp 48 +
STACK CFI 48800 .cfa: x29 48 + x19: .cfa -8 + ^ x20: .cfa -16 + ^ x21: .cfa -32 + ^ .ra: .cfa -40 + ^ x29: .cfa -48 + ^
STACK CFI 48860 .cfa: sp 48 +
STACK CFI 4886c .cfa: sp 0 +
STACK CFI 48870 .cfa: sp 48 +
STACK CFI 4887c .cfa: sp 0 +
STACK CFI 48880 .cfa: x29 48 +
STACK CFI INIT 48888 60 .cfa: sp 0 +
STACK CFI 4888c .cfa: sp 32 +
STACK CFI 48894 .cfa: x29 32 + x19: .cfa -8 + ^ x20: .cfa -16 + ^ .ra: .cfa -24 + ^ x29: .cfa -32 + ^
STACK CFI 488cc .cfa: sp 32 +
STACK CFI 488d4 .cfa: sp 0 +
STACK CFI 488d8 .cfa: sp 32 +
STACK CFI 488e0 .cfa: sp 0 +
STACK CFI 488e4 .cfa: x29 32 +
STACK CFI INIT 488e8 1c .cfa: sp 0 +
STACK CFI 488ec .cfa: sp 16 +
STACK CFI 488f0 .cfa: x29 16 + .ra: .cfa -8 + ^ x29: .cfa -16 + ^
STACK CFI 488f8 .cfa: sp 16 +
STACK CFI 488fc .cfa: sp 0 +
STACK CFI 48900 .cfa: x29 16 +
STACK CFI INIT 48904 1c .cfa: sp 0 +
STACK CFI 48908 .cfa: sp 16 +
STACK CFI 4890c .cfa: x29 16 + .ra: .cfa -8 + ^ x29: .cfa -16 + ^
STACK CFI 48914 .cfa: sp 16 +
STACK CFI 48918 .cfa: sp 0 +
STACK CFI 4891c .cfa: x29 16 +
STACK CFI INIT 48b00 1cc .cfa: sp 0 +
STACK CFI 48b04 .cfa: sp 160 +
STACK CFI 48b1c .cfa: x29 80 + x19: .cfa -8 + ^ x20: .cfa -16 + ^ x21: .cfa -24 + ^ x22: .cfa -32 + ^ x23: .cfa -40 + ^ x24: .cfa -48 + ^ x25: .cfa -56 + ^ x26: .cfa -64 + ^ .ra: .cfa -72 + ^ x29: .cfa -80 + ^
STACK CFI 48c78 .cfa: sp 160 +
STACK CFI 48c90 .cfa: sp 0 +
STACK CFI 48c94 .cfa: x29 80 +
STACK CFI INIT 4901c 194 .cfa: sp 0 +
STACK CFI 49020 .cfa: sp 64 +
STACK CFI 49030 .cfa: x29 64 + x19: .cfa -8 + ^ x20: .cfa -16 + ^ x21: .cfa -24 + ^ x22: .cfa -32 + ^ x23: .cfa -48 + ^ .ra: .cfa -56 + ^ x29: .cfa -64 + ^
STACK CFI 490e0 .cfa: sp 64 +
STACK CFI 490f0 .cfa: sp 0 +
STACK CFI 490f4 .cfa: x29 64 +
STACK CFI INIT 49778 88 .cfa: sp 0 +
STACK CFI 4977c .cfa: sp 48 +
STACK CFI 49788 .cfa: x29 48 + x19: .cfa -8 + ^ x20: .cfa -16 + ^ x21: .cfa -24 + ^ x22: .cfa -32 + ^ .ra: .cfa -40 + ^ x29: .cfa -48 + ^
STACK CFI 497ec .cfa: sp 48 +
STACK CFI 497f8 .cfa: sp 0 +
STACK CFI 497fc .cfa: x29 48 +
STACK CFI INIT 49940 444 .cfa: sp 0 +
STACK CFI 49944 .cfa: sp 224 +
STACK CFI 49960 .cfa: x29 96 + x19: .cfa -8 + ^ x20: .cfa -16 + ^ x21: .cfa -24 + ^ x22: .cfa -32 + ^ x23: .cfa -40 + ^ x24: .cfa -48 + ^ x25: .cfa -56 + ^ x26: .cfa -64 + ^ x27: .cfa -80 + ^ .ra: .cfa -88 + ^ x29: .cfa -96 + ^
STACK CFI 49b90 .cfa: sp 224 +
STACK CFI 49bac .cfa: sp 0 +
STACK CFI 49bb0 .cfa: x29 96 +
STACK CFI 49c7c .cfa: sp 224 +
STACK CFI 49c98 .cfa: sp 0 +
STACK CFI 49c9c .cfa: x29 96 +
STACK CFI INIT 49da0 6c8 .cfa: sp 0 +
STACK CFI 49da4 .cfa: sp 272 +
STACK CFI 49dbc .cfa: x29 80 + x19: .cfa -8 + ^ x20: .cfa -16 + ^ x21: .cfa -24 + ^ x22: .cfa -32 + ^ x23: .cfa -40 + ^ x24: .cfa -48 + ^ x25: .cfa -56 + ^ x28: .cfa -64 + ^ .ra: .cfa -72 + ^ x29: .cfa -80 + ^
STACK CFI 4a2a4 .cfa: sp 272 +
STACK CFI 4a2bc .cfa: sp 0 +
STACK CFI 4a2c0 .cfa: x29 80 +
STACK CFI INIT 4a46c b8 .cfa: sp 0 +
STACK CFI 4a470 .cfa: sp 32 +
STACK CFI 4a478 .cfa: x29 32 + x19: .cfa -8 + ^ x20: .cfa -16 + ^ .ra: .cfa -24 + ^ x29: .cfa -32 + ^
STACK CFI 4a4ac .cfa: sp 32 +
STACK CFI 4a4b4 .cfa: sp 0 +
STACK CFI 4a4b8 .cfa: x29 32 +
STACK CFI 4a4bc .cfa: sp 32 +
STACK CFI 4a4c4 .cfa: sp 0 +
STACK CFI 4a4c8 .cfa: x29 32 +
STACK CFI INIT 4a524 198 .cfa: sp 0 +
STACK CFI 4a528 .cfa: sp 128 +
STACK CFI 4a53c .cfa: x29 64 + x19: .cfa -8 + ^ x20: .cfa -16 + ^ x21: .cfa -24 + ^ x22: .cfa -32 + ^ x23: .cfa -40 + ^ x24: .cfa -48 + ^ .ra: .cfa -56 + ^ x29: .cfa -64 + ^
STACK CFI 4a674 .cfa: sp 128 +
STACK CFI 4a688 .cfa: sp 0 +
STACK CFI 4a68c .cfa: x29 64 +
STACK CFI INIT 4a6bc a0 .cfa: sp 0 +
STACK CFI 4a6c0 .cfa: sp 64 +
STACK CFI 4a6cc .cfa: x29 32 + x19: .cfa -8 + ^ x20: .cfa -16 + ^ .ra: .cfa -24 + ^ x29: .cfa -32 + ^
STACK CFI 4a71c .cfa: sp 64 +
STACK CFI 4a728 .cfa: sp 0 +
STACK CFI 4a72c .cfa: x29 32 +
STACK CFI INIT 4a75c 290 .cfa: sp 0 +
STACK CFI 4a760 .cfa: sp 80 +
STACK CFI 4a770 .cfa: x29 48 + x19: .cfa -8 + ^ x20: .cfa -16 + ^ x21: .cfa -24 + ^ x22: .cfa -32 + ^ .ra: .cfa -40 + ^ x29: .cfa -48 + ^
STACK CFI 4a8c0 .cfa: sp 80 +
STACK CFI 4a8d0 .cfa: sp 0 +
STACK CFI 4a8d4 .cfa: x29 48 +
STACK CFI INIT 4a9ec 1c .cfa: sp 0 +
STACK CFI 4a9f0 .cfa: sp 16 +
STACK CFI 4a9f4 .cfa: x29 16 + .ra: .cfa -8 + ^ x29: .cfa -16 + ^
STACK CFI 4a9fc .cfa: sp 16 +
STACK CFI 4aa00 .cfa: sp 0 +
STACK CFI 4aa04 .cfa: x29 16 +
STACK CFI INIT 4aa08 1c .cfa: sp 0 +
STACK CFI 4aa0c .cfa: sp 16 +
STACK CFI 4aa10 .cfa: x29 16 + .ra: .cfa -8 + ^ x29: .cfa -16 + ^
STACK CFI 4aa18 .cfa: sp 16 +
STACK CFI 4aa1c .cfa: sp 0 +
STACK CFI 4aa20 .cfa: x29 16 +
STACK CFI INIT 4aa24 1c .cfa: sp 0 +
STACK CFI 4aa28 .cfa: sp 16 +
STACK CFI 4aa2c .cfa: x29 16 + .ra: .cfa -8 + ^ x29: .cfa -16 + ^
STACK CFI 4aa34 .cfa: sp 16 +
STACK CFI 4aa38 .cfa: sp 0 +
STACK CFI 4aa3c .cfa: x29 16 +
STACK CFI INIT 4aa40 1c .cfa: sp 0 +
STACK CFI 4aa44 .cfa: sp 16 +
STACK CFI 4aa48 .cfa: x29 16 + .ra: .cfa -8 + ^ x29: .cfa -16 + ^
STACK CFI 4aa50 .cfa: sp 16 +
STACK CFI 4aa54 .cfa: sp 0 +
STACK CFI 4aa58 .cfa: x29 16 +
STACK CFI INIT 4ac30 144 .cfa: sp 0 +
STACK CFI 4ac34 .cfa: sp 192 +
STACK CFI 4ac48 .cfa: x29 64 + x19: .cfa -8 + ^ x20: .cfa -16 + ^ x21: .cfa -24 + ^ x22: .cfa -32 + ^ x23: .cfa -40 + ^ x24: .cfa -48 + ^ .ra: .cfa -56 + ^ x29: .cfa -64 + ^
STACK CFI 4ad1c .cfa: sp 192 +
STACK CFI 4ad30 .cfa: sp 0 +
STACK CFI 4ad34 .cfa: x29 64 +
STACK CFI INIT 4af34 20 .cfa: sp 0 +
STACK CFI 4af38 .cfa: sp 16 +
STACK CFI 4af3c .cfa: x29 16 + .ra: .cfa -8 + ^ x29: .cfa -16 + ^
STACK CFI 4af48 .cfa: sp 16 +
STACK CFI 4af4c .cfa: sp 0 +
STACK CFI 4af50 .cfa: x29 16 +
STACK CFI INIT 4af54 20 .cfa: sp 0 +
STACK CFI 4af58 .cfa: sp 16 +
STACK CFI 4af5c .cfa: x29 16 + .ra: .cfa -8 + ^ x29: .cfa -16 + ^
STACK CFI 4af68 .cfa: sp 16 +
STACK CFI 4af6c .cfa: sp 0 +
STACK CFI 4af70 .cfa: x29 16 +
STACK CFI INIT 4af74 100 .cfa: sp 0 +
STACK CFI 4af78 .cfa: sp 96 +
STACK CFI 4af88 .cfa: x29 48 + x19: .cfa -8 + ^ x20: .cfa -16 + ^ x21: .cfa -24 + ^ x22: .cfa -32 + ^ .ra: .cfa -40 + ^ x29: .cfa -48 + ^
STACK CFI 4afe4 .cfa: sp 96 +
STACK CFI 4aff4 .cfa: sp 0 +
STACK CFI 4aff8 .cfa: x29 48 +
STACK CFI INIT 4b074 164 .cfa: sp 0 +
STACK CFI 4b078 .cfa: sp 96 +
STACK CFI 4b090 .cfa: x29 96 + x19: .cfa -8 + ^ x20: .cfa -16 + ^ x21: .cfa -24 + ^ x22: .cfa -32 + ^ x23: .cfa -40 + ^ x24: .cfa -48 + ^ x25: .cfa -56 + ^ x26: .cfa -64 + ^ x27: .cfa -72 + ^ x28: .cfa -80 + ^ .ra: .cfa -88 + ^ x29: .cfa -96 + ^
STACK CFI 4b1a4 .cfa: sp 96 +
STACK CFI 4b1bc .cfa: sp 0 +
STACK CFI 4b1c0 .cfa: x29 96 +
STACK CFI INIT 4b1d8 58 .cfa: sp 0 +
STACK CFI 4b1dc .cfa: sp 32 +
STACK CFI 4b1e4 .cfa: x29 32 + x19: .cfa -8 + ^ x20: .cfa -16 + ^ .ra: .cfa -24 + ^ x29: .cfa -32 + ^
STACK CFI 4b214 .cfa: sp 32 +
STACK CFI 4b21c .cfa: sp 0 +
STACK CFI 4b220 .cfa: sp 32 +
STACK CFI 4b228 .cfa: sp 0 +
STACK CFI 4b22c .cfa: x29 32 +
STACK CFI INIT 4b230 1ec .cfa: sp 0 +
STACK CFI 4b234 .cfa: sp 128 +
STACK CFI 4b24c .cfa: x29 80 + x19: .cfa -8 + ^ x20: .cfa -16 + ^ x21: .cfa -24 + ^ x22: .cfa -32 + ^ x23: .cfa -40 + ^ x24: .cfa -48 + ^ x25: .cfa -56 + ^ x26: .cfa -64 + ^ .ra: .cfa -72 + ^ x29: .cfa -80 + ^
STACK CFI 4b3c0 .cfa: sp 128 +
STACK CFI 4b3d8 .cfa: sp 0 +
STACK CFI 4b3dc .cfa: x29 80 +
STACK CFI INIT 4b720 5c .cfa: sp 0 +
STACK CFI 4b724 .cfa: sp 32 +
STACK CFI 4b72c .cfa: x29 32 + x19: .cfa -8 + ^ x20: .cfa -16 + ^ .ra: .cfa -24 + ^ x29: .cfa -32 + ^
STACK CFI 4b76c .cfa: sp 32 +
STACK CFI 4b774 .cfa: sp 0 +
STACK CFI 4b778 .cfa: x29 32 +
STACK CFI INIT 4b7c8 140 .cfa: sp 0 +
STACK CFI 4b7cc .cfa: sp 128 +
STACK CFI 4b7e4 .cfa: x29 80 + x19: .cfa -8 + ^ x20: .cfa -16 + ^ x21: .cfa -24 + ^ x22: .cfa -32 + ^ x23: .cfa -40 + ^ x24: .cfa -48 + ^ x25: .cfa -64 + ^ .ra: .cfa -72 + ^ x29: .cfa -80 + ^
STACK CFI 4b894 .cfa: sp 128 +
STACK CFI 4b8ac .cfa: sp 0 +
STACK CFI 4b8b0 .cfa: x29 80 +
STACK CFI INIT 4b908 218 .cfa: sp 0 +
STACK CFI 4b90c .cfa: sp 112 +
STACK CFI 4b91c .cfa: x29 48 + x19: .cfa -8 + ^ x20: .cfa -16 + ^ x21: .cfa -32 + ^ .ra: .cfa -40 + ^ x29: .cfa -48 + ^
STACK CFI 4ba00 .cfa: sp 112 +
STACK CFI 4ba10 .cfa: sp 0 +
STACK CFI 4ba14 .cfa: x29 48 +
STACK CFI INIT 4bb24 1dc .cfa: sp 0 +
STACK CFI 4bb28 .cfa: sp 160 +
STACK CFI 4bb38 .cfa: x29 48 + x19: .cfa -8 + ^ x20: .cfa -16 + ^ x21: .cfa -24 + ^ x22: .cfa -32 + ^ .ra: .cfa -40 + ^ x29: .cfa -48 + ^
STACK CFI 4bc90 .cfa: sp 160 +
STACK CFI 4bca0 .cfa: sp 0 +
STACK CFI 4bca4 .cfa: x29 48 +
STACK CFI INIT 4bd00 74 .cfa: sp 0 +
STACK CFI 4bd04 .cfa: sp 48 +
STACK CFI 4bd10 .cfa: x29 32 + x19: .cfa -8 + ^ x20: .cfa -16 + ^ .ra: .cfa -24 + ^ x29: .cfa -32 + ^
STACK CFI 4bd5c .cfa: sp 48 +
STACK CFI 4bd68 .cfa: sp 0 +
STACK CFI 4bd6c .cfa: x29 32 +
STACK CFI INIT 4bd74 74 .cfa: sp 0 +
STACK CFI 4bd78 .cfa: sp 48 +
STACK CFI 4bd84 .cfa: x29 32 + x19: .cfa -8 + ^ x20: .cfa -16 + ^ .ra: .cfa -24 + ^ x29: .cfa -32 + ^
STACK CFI 4bdd0 .cfa: sp 48 +
STACK CFI 4bddc .cfa: sp 0 +
STACK CFI 4bde0 .cfa: x29 32 +
STACK CFI INIT 4be28 444 .cfa: sp 0 +
STACK CFI 4be2c .cfa: sp 224 +
STACK CFI 4be48 .cfa: x29 96 + x19: .cfa -8 + ^ x20: .cfa -16 + ^ x21: .cfa -24 + ^ x22: .cfa -32 + ^ x23: .cfa -40 + ^ x24: .cfa -48 + ^ x25: .cfa -56 + ^ x26: .cfa -64 + ^ x27: .cfa -80 + ^ .ra: .cfa -88 + ^ x29: .cfa -96 + ^
STACK CFI 4c078 .cfa: sp 224 +
STACK CFI 4c094 .cfa: sp 0 +
STACK CFI 4c098 .cfa: x29 96 +
STACK CFI 4c164 .cfa: sp 224 +
STACK CFI 4c180 .cfa: sp 0 +
STACK CFI 4c184 .cfa: x29 96 +
STACK CFI INIT 4c288 35c .cfa: sp 0 +
STACK CFI 4c28c .cfa: sp 176 +
STACK CFI 4c2a0 .cfa: x29 64 + x19: .cfa -8 + ^ x20: .cfa -16 + ^ x21: .cfa -24 + ^ x22: .cfa -32 + ^ x23: .cfa -48 + ^ .ra: .cfa -56 + ^ x29: .cfa -64 + ^
STACK CFI 4c4e0 .cfa: sp 176 +
STACK CFI 4c4f4 .cfa: sp 0 +
STACK CFI 4c4f8 .cfa: x29 64 +
STACK CFI INIT 4c5e8 a8 .cfa: sp 0 +
STACK CFI 4c5ec .cfa: sp 32 +
STACK CFI 4c5f4 .cfa: x29 32 + x19: .cfa -8 + ^ x20: .cfa -16 + ^ .ra: .cfa -24 + ^ x29: .cfa -32 + ^
STACK CFI 4c628 .cfa: sp 32 +
STACK CFI 4c630 .cfa: sp 0 +
STACK CFI 4c634 .cfa: x29 32 +
STACK CFI 4c638 .cfa: sp 32 +
STACK CFI 4c640 .cfa: sp 0 +
STACK CFI 4c644 .cfa: x29 32 +
STACK CFI INIT 4c690 cac .cfa: sp 0 +
STACK CFI 4c694 .cfa: sp 368 +
STACK CFI 4c6b0 .cfa: x29 96 + x19: .cfa -8 + ^ x20: .cfa -16 + ^ x21: .cfa -24 + ^ x22: .cfa -32 + ^ x23: .cfa -40 + ^ x24: .cfa -48 + ^ x25: .cfa -56 + ^ x26: .cfa -64 + ^ x28: .cfa -80 + ^ .ra: .cfa -88 + ^ x29: .cfa -96 + ^
STACK CFI 4d198 .cfa: sp 368 +
STACK CFI 4d1b4 .cfa: sp 0 +
STACK CFI 4d1b8 .cfa: x29 96 +
STACK CFI INIT 4d3d8 134 .cfa: sp 0 +
STACK CFI 4d3dc .cfa: sp 80 +
STACK CFI 4d3ec .cfa: x29 48 + x19: .cfa -8 + ^ x20: .cfa -16 + ^ x21: .cfa -24 + ^ x22: .cfa -32 + ^ .ra: .cfa -40 + ^ x29: .cfa -48 + ^
STACK CFI 4d4f0 .cfa: sp 80 +
STACK CFI 4d500 .cfa: sp 0 +
STACK CFI 4d504 .cfa: x29 48 +
STACK CFI INIT 4d50c 1ac .cfa: sp 0 +
STACK CFI 4d510 .cfa: sp 112 +
STACK CFI 4d520 .cfa: x29 48 + x19: .cfa -8 + ^ x20: .cfa -16 + ^ x21: .cfa -32 + ^ .ra: .cfa -40 + ^ x29: .cfa -48 + ^
STACK CFI 4d66c .cfa: sp 112 +
STACK CFI 4d67c .cfa: sp 0 +
STACK CFI 4d680 .cfa: x29 48 +
STACK CFI INIT 4d6b8 394 .cfa: sp 0 +
STACK CFI 4d6bc .cfa: sp 144 +
STACK CFI 4d6cc .cfa: x29 48 + x19: .cfa -8 + ^ x20: .cfa -16 + ^ x21: .cfa -24 + ^ x22: .cfa -32 + ^ .ra: .cfa -40 + ^ x29: .cfa -48 + ^
STACK CFI 4d8a8 .cfa: sp 144 +
STACK CFI 4d8b8 .cfa: sp 0 +
STACK CFI 4d8bc .cfa: x29 48 +
STACK CFI INIT 4db90 2ec .cfa: sp 0 +
STACK CFI 4db94 .cfa: sp 128 +
STACK CFI 4dbb0 .cfa: x29 96 + x19: .cfa -8 + ^ x20: .cfa -16 + ^ x21: .cfa -24 + ^ x22: .cfa -32 + ^ x23: .cfa -40 + ^ x24: .cfa -48 + ^ x25: .cfa -56 + ^ x26: .cfa -64 + ^ x27: .cfa -72 + ^ x28: .cfa -80 + ^ .ra: .cfa -88 + ^ x29: .cfa -96 + ^
STACK CFI 4ddfc .cfa: sp 128 +
STACK CFI 4de18 .cfa: sp 0 +
STACK CFI 4de1c .cfa: x29 96 +
STACK CFI INIT 4de7c 110 .cfa: sp 0 +
STACK CFI 4de80 .cfa: sp 64 +
STACK CFI 4de8c .cfa: x29 32 + x19: .cfa -8 + ^ x20: .cfa -16 + ^ .ra: .cfa -24 + ^ x29: .cfa -32 + ^
STACK CFI 4df4c .cfa: sp 64 +
STACK CFI 4df58 .cfa: sp 0 +
STACK CFI 4df5c .cfa: x29 32 +
STACK CFI INIT 4df8c 104 .cfa: sp 0 +
STACK CFI 4df90 .cfa: sp 64 +
STACK CFI 4df9c .cfa: x29 32 + x19: .cfa -8 + ^ x20: .cfa -16 + ^ .ra: .cfa -24 + ^ x29: .cfa -32 + ^
STACK CFI 4e050 .cfa: sp 64 +
STACK CFI 4e05c .cfa: sp 0 +
STACK CFI 4e060 .cfa: x29 32 +
STACK CFI INIT 4e090 130 .cfa: sp 0 +
STACK CFI 4e094 .cfa: sp 96 +
STACK CFI 4e0a8 .cfa: x29 48 + x19: .cfa -8 + ^ x20: .cfa -16 + ^ x21: .cfa -24 + ^ x22: .cfa -32 + ^ .ra: .cfa -40 + ^ x29: .cfa -48 + ^ v8: .cfa -64 + ^
STACK CFI 4e1a0 .cfa: sp 96 +
STACK CFI 4e1b4 .cfa: sp 0 +
STACK CFI 4e1b8 .cfa: x29 48 +
STACK CFI INIT 4e1c0 1028 .cfa: sp 0 +
STACK CFI 4e1c4 .cfa: sp 96 +
STACK CFI 4e1dc .cfa: x29 96 + x19: .cfa -8 + ^ x20: .cfa -16 + ^ x21: .cfa -24 + ^ x22: .cfa -32 + ^ x23: .cfa -40 + ^ x24: .cfa -48 + ^ x25: .cfa -56 + ^ x26: .cfa -64 + ^ x27: .cfa -72 + ^ x28: .cfa -80 + ^ .ra: .cfa -88 + ^ x29: .cfa -96 + ^
STACK CFI 4e394 .cfa: sp 96 +
STACK CFI 4e3ac .cfa: sp 0 +
STACK CFI 4e3b0 .cfa: x29 96 +
STACK CFI INIT 4f42c d24 .cfa: sp 0 +
STACK CFI 4f430 .cfa: sp 96 +
STACK CFI 4f448 .cfa: x29 96 + x19: .cfa -8 + ^ x20: .cfa -16 + ^ x21: .cfa -24 + ^ x22: .cfa -32 + ^ x23: .cfa -40 + ^ x24: .cfa -48 + ^ x25: .cfa -56 + ^ x26: .cfa -64 + ^ x27: .cfa -72 + ^ x28: .cfa -80 + ^ .ra: .cfa -88 + ^ x29: .cfa -96 + ^
STACK CFI 4f5f8 .cfa: sp 96 +
STACK CFI 4f610 .cfa: sp 0 +
STACK CFI 4f614 .cfa: x29 96 +
STACK CFI INIT 50150 7e4 .cfa: sp 0 +
STACK CFI 50154 .cfa: sp 320 +
STACK CFI 50168 .cfa: x29 64 + x19: .cfa -8 + ^ x20: .cfa -16 + ^ x21: .cfa -24 + ^ x22: .cfa -32 + ^ x23: .cfa -40 + ^ x28: .cfa -48 + ^ .ra: .cfa -56 + ^ x29: .cfa -64 + ^
STACK CFI 50340 .cfa: sp 320 +
STACK CFI 50354 .cfa: sp 0 +
STACK CFI 50358 .cfa: x29 64 +
STACK CFI INIT 50934 794 .cfa: sp 0 +
STACK CFI 50938 .cfa: sp 288 +
STACK CFI 50950 .cfa: x29 80 + x19: .cfa -8 + ^ x20: .cfa -16 + ^ x21: .cfa -24 + ^ x22: .cfa -32 + ^ x23: .cfa -40 + ^ x24: .cfa -48 + ^ x28: .cfa -64 + ^ .ra: .cfa -72 + ^ x29: .cfa -80 + ^
STACK CFI 50b24 .cfa: sp 288 +
STACK CFI 50b3c .cfa: sp 0 +
STACK CFI 50b40 .cfa: x29 80 +
STACK CFI INIT 510c8 444 .cfa: sp 0 +
STACK CFI 510cc .cfa: sp 224 +
STACK CFI 510e8 .cfa: x29 96 + x19: .cfa -8 + ^ x20: .cfa -16 + ^ x21: .cfa -24 + ^ x22: .cfa -32 + ^ x23: .cfa -40 + ^ x24: .cfa -48 + ^ x25: .cfa -56 + ^ x26: .cfa -64 + ^ x27: .cfa -80 + ^ .ra: .cfa -88 + ^ x29: .cfa -96 + ^
STACK CFI 51318 .cfa: sp 224 +
STACK CFI 51334 .cfa: sp 0 +
STACK CFI 51338 .cfa: x29 96 +
STACK CFI 51404 .cfa: sp 224 +
STACK CFI 51420 .cfa: sp 0 +
STACK CFI 51424 .cfa: x29 96 +
STACK CFI INIT 51528 368 .cfa: sp 0 +
STACK CFI 5152c .cfa: sp 192 +
STACK CFI 51540 .cfa: x29 64 + x19: .cfa -8 + ^ x20: .cfa -16 + ^ x21: .cfa -24 + ^ x22: .cfa -32 + ^ x23: .cfa -48 + ^ .ra: .cfa -56 + ^ x29: .cfa -64 + ^
STACK CFI 51784 .cfa: sp 192 +
STACK CFI 51798 .cfa: sp 0 +
STACK CFI 5179c .cfa: x29 64 +
STACK CFI INIT 51894 3a4 .cfa: sp 0 +
STACK CFI 51898 .cfa: sp 160 +
STACK CFI 518ac .cfa: x29 64 + x19: .cfa -8 + ^ x20: .cfa -16 + ^ x21: .cfa -24 + ^ x22: .cfa -32 + ^ x23: .cfa -48 + ^ .ra: .cfa -56 + ^ x29: .cfa -64 + ^
STACK CFI 51ae4 .cfa: sp 160 +
STACK CFI 51af8 .cfa: sp 0 +
STACK CFI 51afc .cfa: x29 64 +
STACK CFI INIT 51c3c fc .cfa: sp 0 +
STACK CFI 51c40 .cfa: sp 32 +
STACK CFI 51c48 .cfa: x29 32 + x19: .cfa -8 + ^ x20: .cfa -16 + ^ .ra: .cfa -24 + ^ x29: .cfa -32 + ^
STACK CFI 51d18 .cfa: sp 32 +
STACK CFI 51d20 .cfa: sp 0 +
STACK CFI 51d24 .cfa: x29 32 +
STACK CFI INIT 51d38 120 .cfa: sp 0 +
STACK CFI 51d3c .cfa: sp 96 +
STACK CFI 51d48 .cfa: x29 32 + x19: .cfa -8 + ^ x20: .cfa -16 + ^ .ra: .cfa -24 + ^ x29: .cfa -32 + ^
STACK CFI 51e08 .cfa: sp 96 +
STACK CFI 51e14 .cfa: sp 0 +
STACK CFI 51e18 .cfa: x29 32 +
STACK CFI INIT 51edc 690 .cfa: sp 0 +
STACK CFI 51ee0 .cfa: sp 272 +
STACK CFI 51f00 .cfa: x29 96 + x19: .cfa -8 + ^ x20: .cfa -16 + ^ x21: .cfa -24 + ^ x22: .cfa -32 + ^ x23: .cfa -40 + ^ x24: .cfa -48 + ^ x25: .cfa -56 + ^ x26: .cfa -64 + ^ x27: .cfa -72 + ^ x28: .cfa -80 + ^ .ra: .cfa -88 + ^ x29: .cfa -96 + ^ v8: .cfa -112 + ^
STACK CFI 523d4 .cfa: sp 272 +
STACK CFI 523f4 .cfa: sp 0 +
STACK CFI 523f8 .cfa: x29 96 +
STACK CFI INIT 52764 a8 .cfa: sp 0 +
STACK CFI 52768 .cfa: sp 64 +
STACK CFI 52774 .cfa: x29 32 + x19: .cfa -8 + ^ x20: .cfa -16 + ^ .ra: .cfa -24 + ^ x29: .cfa -32 + ^
STACK CFI 527cc .cfa: sp 64 +
STACK CFI 527d8 .cfa: sp 0 +
STACK CFI 527dc .cfa: x29 32 +
STACK CFI INIT 5280c 20 .cfa: sp 0 +
STACK CFI 52810 .cfa: sp 16 +
STACK CFI 52814 .cfa: x29 16 + .ra: .cfa -8 + ^ x29: .cfa -16 + ^
STACK CFI 52820 .cfa: sp 16 +
STACK CFI 52824 .cfa: sp 0 +
STACK CFI 52828 .cfa: x29 16 +
STACK CFI INIT 52894 74 .cfa: sp 0 +
STACK CFI 52898 .cfa: sp 32 +
STACK CFI 528a0 .cfa: x29 32 + x19: .cfa -8 + ^ x20: .cfa -16 + ^ .ra: .cfa -24 + ^ x29: .cfa -32 + ^
STACK CFI 528f4 .cfa: sp 32 +
STACK CFI 528fc .cfa: sp 0 +
STACK CFI 52900 .cfa: x29 32 +
STACK CFI INIT 53550 e0 .cfa: sp 0 +
STACK CFI 53554 .cfa: sp 80 +
STACK CFI 53564 .cfa: x29 48 + x19: .cfa -8 + ^ x20: .cfa -16 + ^ x21: .cfa -32 + ^ .ra: .cfa -40 + ^ x29: .cfa -48 + ^
STACK CFI 535ec .cfa: sp 80 +
STACK CFI 535fc .cfa: sp 0 +
STACK CFI 53600 .cfa: x29 48 +
STACK CFI INIT 53630 1a0 .cfa: sp 0 +
STACK CFI 53634 .cfa: sp 96 +
STACK CFI 53640 .cfa: x29 32 + x19: .cfa -8 + ^ x20: .cfa -16 + ^ .ra: .cfa -24 + ^ x29: .cfa -32 + ^
STACK CFI 53790 .cfa: sp 96 +
STACK CFI 5379c .cfa: sp 0 +
STACK CFI 537a0 .cfa: x29 32 +
STACK CFI INIT 538b4 238 .cfa: sp 0 +
STACK CFI 538b8 .cfa: sp 96 +
STACK CFI 538cc .cfa: x29 64 + x19: .cfa -8 + ^ x20: .cfa -16 + ^ x21: .cfa -24 + ^ x22: .cfa -32 + ^ x23: .cfa -40 + ^ x24: .cfa -48 + ^ .ra: .cfa -56 + ^ x29: .cfa -64 + ^
STACK CFI 53ab8 .cfa: sp 96 +
STACK CFI 53acc .cfa: sp 0 +
STACK CFI 53ad0 .cfa: x29 64 +
STACK CFI INIT 53aec 23c .cfa: sp 0 +
STACK CFI 53af0 .cfa: sp 112 +
STACK CFI 53b08 .cfa: x29 80 + x19: .cfa -8 + ^ x20: .cfa -16 + ^ x21: .cfa -24 + ^ x22: .cfa -32 + ^ x23: .cfa -40 + ^ x24: .cfa -48 + ^ x25: .cfa -64 + ^ .ra: .cfa -72 + ^ x29: .cfa -80 + ^
STACK CFI 53cf0 .cfa: sp 112 +
STACK CFI 53d08 .cfa: sp 0 +
STACK CFI 53d0c .cfa: x29 80 +
STACK CFI INIT 53d28 238 .cfa: sp 0 +
STACK CFI 53d2c .cfa: sp 96 +
STACK CFI 53d40 .cfa: x29 64 + x19: .cfa -8 + ^ x20: .cfa -16 + ^ x21: .cfa -24 + ^ x22: .cfa -32 + ^ x23: .cfa -40 + ^ x24: .cfa -48 + ^ .ra: .cfa -56 + ^ x29: .cfa -64 + ^
STACK CFI 53f2c .cfa: sp 96 +
STACK CFI 53f40 .cfa: sp 0 +
STACK CFI 53f44 .cfa: x29 64 +
STACK CFI INIT 540cc 1d8 .cfa: sp 0 +
STACK CFI 540d0 .cfa: sp 112 +
STACK CFI 540e0 .cfa: x29 48 + x19: .cfa -8 + ^ x20: .cfa -16 + ^ x21: .cfa -24 + ^ x22: .cfa -32 + ^ .ra: .cfa -40 + ^ x29: .cfa -48 + ^
STACK CFI 54238 .cfa: sp 112 +
STACK CFI 54248 .cfa: sp 0 +
STACK CFI 5424c .cfa: x29 48 +
STACK CFI INIT 54498 160 .cfa: sp 0 +
STACK CFI 5449c .cfa: sp 144 +
STACK CFI 544b0 .cfa: x29 64 + x19: .cfa -8 + ^ x20: .cfa -16 + ^ x21: .cfa -24 + ^ x22: .cfa -32 + ^ x23: .cfa -40 + ^ x24: .cfa -48 + ^ .ra: .cfa -56 + ^ x29: .cfa -64 + ^
STACK CFI 5458c .cfa: sp 144 +
STACK CFI 545a0 .cfa: sp 0 +
STACK CFI 545a4 .cfa: x29 64 +
STACK CFI INIT 546e4 144 .cfa: sp 0 +
STACK CFI 546e8 .cfa: sp 48 +
STACK CFI 546f4 .cfa: x29 48 + x19: .cfa -8 + ^ x20: .cfa -16 + ^ x28: .cfa -32 + ^ .ra: .cfa -40 + ^ x29: .cfa -48 + ^
STACK CFI 547d4 .cfa: sp 48 +
STACK CFI 547e0 .cfa: sp 0 +
STACK CFI 547e4 .cfa: x29 48 +
STACK CFI INIT 54828 f4 .cfa: sp 0 +
STACK CFI 5482c .cfa: sp 96 +
STACK CFI 5483c .cfa: x29 48 + x19: .cfa -8 + ^ x20: .cfa -16 + ^ x21: .cfa -24 + ^ x22: .cfa -32 + ^ .ra: .cfa -40 + ^ x29: .cfa -48 + ^
STACK CFI 548c4 .cfa: sp 96 +
STACK CFI 548d4 .cfa: sp 0 +
STACK CFI 548d8 .cfa: x29 48 +
STACK CFI INIT 54a34 31c .cfa: sp 0 +
STACK CFI 54a38 .cfa: sp 160 +
STACK CFI 54a48 .cfa: x29 48 + x19: .cfa -8 + ^ x20: .cfa -16 + ^ x21: .cfa -24 + ^ x22: .cfa -32 + ^ .ra: .cfa -40 + ^ x29: .cfa -48 + ^
STACK CFI 54c74 .cfa: sp 160 +
STACK CFI 54c84 .cfa: sp 0 +
STACK CFI 54c88 .cfa: x29 48 +
STACK CFI INIT 54d50 61c .cfa: sp 0 +
STACK CFI 54d54 .cfa: sp 288 +
STACK CFI 54d6c .cfa: x29 64 + x19: .cfa -8 + ^ x20: .cfa -16 + ^ x21: .cfa -24 + ^ x22: .cfa -32 + ^ x23: .cfa -40 + ^ x28: .cfa -48 + ^ .ra: .cfa -56 + ^ x29: .cfa -64 + ^ v8: .cfa -80 + ^
STACK CFI 55244 .cfa: sp 288 +
STACK CFI 5525c .cfa: sp 0 +
STACK CFI 55260 .cfa: x29 64 +
STACK CFI INIT 5536c 250 .cfa: sp 0 +
STACK CFI 55370 .cfa: sp 160 +
STACK CFI 55384 .cfa: x29 48 + x19: .cfa -8 + ^ x20: .cfa -16 + ^ x21: .cfa -24 + ^ x22: .cfa -32 + ^ .ra: .cfa -40 + ^ x29: .cfa -48 + ^ v8: .cfa -56 + ^ v9: .cfa -64 + ^
STACK CFI 55560 .cfa: sp 160 +
STACK CFI 55574 .cfa: sp 0 +
STACK CFI 55578 .cfa: x29 48 +
STACK CFI INIT 55654 1348 .cfa: sp 0 +
STACK CFI 55658 .cfa: sp 96 +
STACK CFI 55670 .cfa: x29 96 + x19: .cfa -8 + ^ x20: .cfa -16 + ^ x21: .cfa -24 + ^ x22: .cfa -32 + ^ x23: .cfa -40 + ^ x24: .cfa -48 + ^ x25: .cfa -56 + ^ x26: .cfa -64 + ^ x27: .cfa -72 + ^ x28: .cfa -80 + ^ .ra: .cfa -88 + ^ x29: .cfa -96 + ^
STACK CFI 55e10 .cfa: sp 96 +
STACK CFI 55e28 .cfa: sp 0 +
STACK CFI 55e2c .cfa: x29 96 +
STACK CFI INIT 5699c 184 .cfa: sp 0 +
STACK CFI 569a0 .cfa: sp 96 +
STACK CFI 569b0 .cfa: x29 48 + x19: .cfa -8 + ^ x20: .cfa -16 + ^ x21: .cfa -24 + ^ x22: .cfa -32 + ^ .ra: .cfa -40 + ^ x29: .cfa -48 + ^
STACK CFI 56a9c .cfa: sp 96 +
STACK CFI 56aac .cfa: sp 0 +
STACK CFI 56ab0 .cfa: x29 48 +
STACK CFI INIT 56f40 74 .cfa: sp 0 +
STACK CFI 56f44 .cfa: sp 48 +
STACK CFI 56f50 .cfa: x29 32 + x19: .cfa -8 + ^ x20: .cfa -16 + ^ .ra: .cfa -24 + ^ x29: .cfa -32 + ^
STACK CFI 56f9c .cfa: sp 48 +
STACK CFI 56fa8 .cfa: sp 0 +
STACK CFI 56fac .cfa: x29 32 +
STACK CFI INIT 56fb4 f8 .cfa: sp 0 +
STACK CFI 56fb8 .cfa: sp 64 +
STACK CFI 56fc4 .cfa: x29 32 + x19: .cfa -8 + ^ x20: .cfa -16 + ^ .ra: .cfa -24 + ^ x29: .cfa -32 + ^
STACK CFI 5706c .cfa: sp 64 +
STACK CFI 57078 .cfa: sp 0 +
STACK CFI 5707c .cfa: x29 32 +
STACK CFI INIT 570ac e80 .cfa: sp 0 +
STACK CFI 570b0 .cfa: sp 96 +
STACK CFI 570c8 .cfa: x29 96 + x19: .cfa -8 + ^ x20: .cfa -16 + ^ x21: .cfa -24 + ^ x22: .cfa -32 + ^ x23: .cfa -40 + ^ x24: .cfa -48 + ^ x25: .cfa -56 + ^ x26: .cfa -64 + ^ x27: .cfa -72 + ^ x28: .cfa -80 + ^ .ra: .cfa -88 + ^ x29: .cfa -96 + ^
STACK CFI 57c7c .cfa: sp 96 +
STACK CFI 57c94 .cfa: sp 0 +
STACK CFI 57c98 .cfa: x29 96 +
STACK CFI INIT 57f2c 1e44 .cfa: sp 0 +
STACK CFI 57f30 .cfa: sp 96 +
STACK CFI 57f48 .cfa: x29 96 + x19: .cfa -8 + ^ x20: .cfa -16 + ^ x21: .cfa -24 + ^ x22: .cfa -32 + ^ x23: .cfa -40 + ^ x24: .cfa -48 + ^ x25: .cfa -56 + ^ x26: .cfa -64 + ^ x27: .cfa -72 + ^ x28: .cfa -80 + ^ .ra: .cfa -88 + ^ x29: .cfa -96 + ^
STACK CFI 59894 .cfa: sp 96 +
STACK CFI 598ac .cfa: sp 0 +
STACK CFI 598b0 .cfa: x29 96 +
STACK CFI INIT 59e10 20 .cfa: sp 0 +
STACK CFI 59e14 .cfa: sp 16 +
STACK CFI 59e18 .cfa: x29 16 + .ra: .cfa -8 + ^ x29: .cfa -16 + ^
STACK CFI 59e24 .cfa: sp 16 +
STACK CFI 59e28 .cfa: sp 0 +
STACK CFI 59e2c .cfa: x29 16 +
STACK CFI INIT 59e30 518 .cfa: sp 0 +
STACK CFI 59e34 .cfa: sp 224 +
STACK CFI 59e48 .cfa: x29 64 + x19: .cfa -8 + ^ x20: .cfa -16 + ^ x21: .cfa -24 + ^ x22: .cfa -32 + ^ x23: .cfa -48 + ^ .ra: .cfa -56 + ^ x29: .cfa -64 + ^
STACK CFI 59f04 .cfa: sp 224 +
STACK CFI 59f18 .cfa: sp 0 +
STACK CFI 59f1c .cfa: x29 64 +
STACK CFI INIT 5a348 1f0 .cfa: sp 0 +
STACK CFI 5a34c .cfa: sp 144 +
STACK CFI 5a35c .cfa: x29 48 + x19: .cfa -8 + ^ x20: .cfa -16 + ^ x21: .cfa -32 + ^ .ra: .cfa -40 + ^ x29: .cfa -48 + ^
STACK CFI 5a4c8 .cfa: sp 144 +
STACK CFI 5a4d8 .cfa: sp 0 +
STACK CFI 5a4dc .cfa: x29 48 +
STACK CFI INIT 5a574 2ec .cfa: sp 0 +
STACK CFI 5a578 .cfa: sp 192 +
STACK CFI 5a58c .cfa: x29 64 + x19: .cfa -8 + ^ x20: .cfa -16 + ^ x21: .cfa -24 + ^ x22: .cfa -32 + ^ x23: .cfa -40 + ^ x24: .cfa -48 + ^ .ra: .cfa -56 + ^ x29: .cfa -64 + ^
STACK CFI 5a658 .cfa: sp 192 +
STACK CFI 5a66c .cfa: sp 0 +
STACK CFI 5a670 .cfa: x29 64 +
STACK CFI INIT 5a860 168 .cfa: sp 0 +
STACK CFI 5a864 .cfa: sp 384 +
STACK CFI 5a878 .cfa: x29 64 + x19: .cfa -8 + ^ x20: .cfa -16 + ^ x21: .cfa -24 + ^ x22: .cfa -32 + ^ x23: .cfa -40 + ^ x28: .cfa -48 + ^ .ra: .cfa -56 + ^ x29: .cfa -64 + ^
STACK CFI 5a970 .cfa: sp 384 +
STACK CFI 5a984 .cfa: sp 0 +
STACK CFI 5a988 .cfa: x29 64 +
STACK CFI INIT 5ad58 194 .cfa: sp 0 +
STACK CFI 5ad5c .cfa: sp 240 +
STACK CFI 5ad74 .cfa: x29 80 + x19: .cfa -8 + ^ x20: .cfa -16 + ^ x21: .cfa -24 + ^ x22: .cfa -32 + ^ x23: .cfa -40 + ^ x24: .cfa -48 + ^ x25: .cfa -56 + ^ x26: .cfa -64 + ^ .ra: .cfa -72 + ^ x29: .cfa -80 + ^
STACK CFI 5ae64 .cfa: sp 240 +
STACK CFI 5ae7c .cfa: sp 0 +
STACK CFI 5ae80 .cfa: x29 80 +
STACK CFI INIT 5aeec 130 .cfa: sp 0 +
STACK CFI 5aef0 .cfa: sp 192 +
STACK CFI 5af04 .cfa: x29 64 + x19: .cfa -8 + ^ x20: .cfa -16 + ^ x21: .cfa -24 + ^ x22: .cfa -32 + ^ x23: .cfa -40 + ^ x24: .cfa -48 + ^ .ra: .cfa -56 + ^ x29: .cfa -64 + ^
STACK CFI 5afc0 .cfa: sp 192 +
STACK CFI 5afd4 .cfa: sp 0 +
STACK CFI 5afd8 .cfa: x29 64 +
STACK CFI INIT 5b2b4 21c .cfa: sp 0 +
STACK CFI 5b2b8 .cfa: sp 208 +
STACK CFI 5b2d0 .cfa: x29 80 + x19: .cfa -8 + ^ x20: .cfa -16 + ^ x21: .cfa -24 + ^ x22: .cfa -32 + ^ x23: .cfa -40 + ^ x24: .cfa -48 + ^ x25: .cfa -56 + ^ x26: .cfa -64 + ^ .ra: .cfa -72 + ^ x29: .cfa -80 + ^
STACK CFI 5b474 .cfa: sp 208 +
STACK CFI 5b48c .cfa: sp 0 +
STACK CFI 5b490 .cfa: x29 80 +
STACK CFI INIT 5b4d0 104 .cfa: sp 0 +
STACK CFI 5b4d4 .cfa: sp 80 +
STACK CFI 5b4e8 .cfa: x29 80 + x19: .cfa -8 + ^ x20: .cfa -16 + ^ x21: .cfa -24 + ^ x22: .cfa -32 + ^ x23: .cfa -40 + ^ x24: .cfa -48 + ^ x25: .cfa -64 + ^ .ra: .cfa -72 + ^ x29: .cfa -80 + ^
STACK CFI 5b584 .cfa: sp 80 +
STACK CFI 5b598 .cfa: sp 0 +
STACK CFI 5b59c .cfa: x29 80 +
STACK CFI INIT 5b5d4 1b4 .cfa: sp 0 +
STACK CFI 5b5d8 .cfa: sp 80 +
STACK CFI 5b5ec .cfa: x29 64 + x19: .cfa -8 + ^ x20: .cfa -16 + ^ x21: .cfa -24 + ^ x22: .cfa -32 + ^ x23: .cfa -40 + ^ x24: .cfa -48 + ^ .ra: .cfa -56 + ^ x29: .cfa -64 + ^
STACK CFI 5b6f8 .cfa: sp 80 +
STACK CFI 5b70c .cfa: sp 0 +
STACK CFI 5b710 .cfa: x29 64 +
STACK CFI INIT 5b864 10ec .cfa: sp 0 +
STACK CFI 5b868 .cfa: sp 496 +
STACK CFI 5b884 .cfa: x29 96 + x19: .cfa -8 + ^ x20: .cfa -16 + ^ x21: .cfa -24 + ^ x22: .cfa -32 + ^ x23: .cfa -40 + ^ x24: .cfa -48 + ^ x25: .cfa -56 + ^ x26: .cfa -64 + ^ x27: .cfa -72 + ^ x28: .cfa -80 + ^ .ra: .cfa -88 + ^ x29: .cfa -96 + ^
STACK CFI 5c5e0 .cfa: sp 496 +
STACK CFI 5c5fc .cfa: sp 0 +
STACK CFI 5c600 .cfa: x29 96 +
STACK CFI INIT 5c950 374 .cfa: sp 0 +
STACK CFI 5c954 .cfa: sp 192 +
STACK CFI 5c970 .cfa: x29 96 + x19: .cfa -8 + ^ x20: .cfa -16 + ^ x21: .cfa -24 + ^ x22: .cfa -32 + ^ x23: .cfa -40 + ^ x24: .cfa -48 + ^ x25: .cfa -56 + ^ x26: .cfa -64 + ^ x27: .cfa -80 + ^ .ra: .cfa -88 + ^ x29: .cfa -96 + ^
STACK CFI 5cb90 .cfa: sp 192 +
STACK CFI 5cbac .cfa: sp 0 +
STACK CFI 5cbb0 .cfa: x29 96 +
STACK CFI INIT 5ccc4 74 .cfa: sp 0 +
STACK CFI 5ccc8 .cfa: sp 48 +
STACK CFI 5ccd4 .cfa: x29 32 + x19: .cfa -8 + ^ x20: .cfa -16 + ^ .ra: .cfa -24 + ^ x29: .cfa -32 + ^
STACK CFI 5cd20 .cfa: sp 48 +
STACK CFI 5cd2c .cfa: sp 0 +
STACK CFI 5cd30 .cfa: x29 32 +
STACK CFI INIT 5ce84 e8 .cfa: sp 0 +
STACK CFI 5ce88 .cfa: sp 48 +
STACK CFI 5ce94 .cfa: x29 48 + x19: .cfa -8 + ^ x20: .cfa -16 + ^ x21: .cfa -32 + ^ .ra: .cfa -40 + ^ x29: .cfa -48 + ^
STACK CFI 5cf00 .cfa: sp 48 +
STACK CFI 5cf0c .cfa: sp 0 +
STACK CFI 5cf10 .cfa: x29 48 +
STACK CFI INIT 5d018 214 .cfa: sp 0 +
STACK CFI 5d01c .cfa: sp 112 +
STACK CFI 5d030 .cfa: x29 64 + x19: .cfa -8 + ^ x20: .cfa -16 + ^ x21: .cfa -24 + ^ x22: .cfa -32 + ^ x23: .cfa -48 + ^ .ra: .cfa -56 + ^ x29: .cfa -64 + ^
STACK CFI 5d180 .cfa: sp 112 +
STACK CFI 5d194 .cfa: sp 0 +
STACK CFI 5d198 .cfa: x29 64 +
STACK CFI 5d1e0 .cfa: sp 112 +
STACK CFI 5d1f4 .cfa: sp 0 +
STACK CFI 5d1f8 .cfa: x29 64 +
STACK CFI INIT 5d2a8 174 .cfa: sp 0 +
STACK CFI 5d2ac .cfa: sp 112 +
STACK CFI 5d2bc .cfa: x29 48 + x19: .cfa -8 + ^ x20: .cfa -16 + ^ x21: .cfa -32 + ^ .ra: .cfa -40 + ^ x29: .cfa -48 + ^
STACK CFI 5d3b8 .cfa: sp 112 +
STACK CFI 5d3c8 .cfa: sp 0 +
STACK CFI 5d3cc .cfa: x29 48 +
STACK CFI INIT 5d598 298 .cfa: sp 0 +
STACK CFI 5d59c .cfa: sp 128 +
STACK CFI 5d5ac .cfa: x29 48 + x19: .cfa -8 + ^ x20: .cfa -16 + ^ x21: .cfa -32 + ^ .ra: .cfa -40 + ^ x29: .cfa -48 + ^
STACK CFI 5d758 .cfa: sp 128 +
STACK CFI 5d768 .cfa: sp 0 +
STACK CFI 5d76c .cfa: x29 48 +
STACK CFI INIT 5d8b4 650 .cfa: sp 0 +
STACK CFI 5d8b8 .cfa: sp 272 +
STACK CFI 5d8cc .cfa: x29 64 + x19: .cfa -8 + ^ x20: .cfa -16 + ^ x21: .cfa -24 + ^ x22: .cfa -32 + ^ x23: .cfa -48 + ^ .ra: .cfa -56 + ^ x29: .cfa -64 + ^
STACK CFI 5dd98 .cfa: sp 272 +
STACK CFI 5ddac .cfa: sp 0 +
STACK CFI 5ddb0 .cfa: x29 64 +
STACK CFI INIT 5df8c 280 .cfa: sp 0 +
STACK CFI 5df90 .cfa: sp 128 +
STACK CFI 5dfa0 .cfa: x29 48 + x19: .cfa -8 + ^ x20: .cfa -16 + ^ x21: .cfa -32 + ^ .ra: .cfa -40 + ^ x29: .cfa -48 + ^
STACK CFI 5e124 .cfa: sp 128 +
STACK CFI 5e134 .cfa: sp 0 +
STACK CFI 5e138 .cfa: x29 48 +
STACK CFI INIT 5e238 174 .cfa: sp 0 +
STACK CFI 5e23c .cfa: sp 112 +
STACK CFI 5e24c .cfa: x29 48 + x19: .cfa -8 + ^ x20: .cfa -16 + ^ x21: .cfa -32 + ^ .ra: .cfa -40 + ^ x29: .cfa -48 + ^
STACK CFI 5e348 .cfa: sp 112 +
STACK CFI 5e358 .cfa: sp 0 +
STACK CFI 5e35c .cfa: x29 48 +
STACK CFI INIT 5e4fc 1f0 .cfa: sp 0 +
STACK CFI 5e500 .cfa: sp 80 +
STACK CFI 5e510 .cfa: x29 48 + x19: .cfa -8 + ^ x20: .cfa -16 + ^ x21: .cfa -32 + ^ .ra: .cfa -40 + ^ x29: .cfa -48 + ^
STACK CFI 5e608 .cfa: sp 80 +
STACK CFI 5e618 .cfa: sp 0 +
STACK CFI 5e61c .cfa: x29 48 +
STACK CFI INIT 5e6ec 150 .cfa: sp 0 +
STACK CFI 5e6f0 .cfa: sp 80 +
STACK CFI 5e700 .cfa: x29 48 + x19: .cfa -8 + ^ x20: .cfa -16 + ^ x21: .cfa -32 + ^ .ra: .cfa -40 + ^ x29: .cfa -48 + ^
STACK CFI 5e7ec .cfa: sp 80 +
STACK CFI 5e7fc .cfa: sp 0 +
STACK CFI 5e800 .cfa: x29 48 +
STACK CFI INIT 5e83c 664 .cfa: sp 0 +
STACK CFI 5e840 .cfa: sp 240 +
STACK CFI 5e85c .cfa: x29 96 + x19: .cfa -8 + ^ x20: .cfa -16 + ^ x21: .cfa -24 + ^ x22: .cfa -32 + ^ x23: .cfa -40 + ^ x24: .cfa -48 + ^ x25: .cfa -56 + ^ x26: .cfa -64 + ^ x27: .cfa -72 + ^ x28: .cfa -80 + ^ .ra: .cfa -88 + ^ x29: .cfa -96 + ^
STACK CFI 5ee04 .cfa: sp 240 +
STACK CFI 5ee20 .cfa: sp 0 +
STACK CFI 5ee24 .cfa: x29 96 +
STACK CFI INIT 5eff4 134 .cfa: sp 0 +
STACK CFI 5eff8 .cfa: sp 80 +
STACK CFI 5f004 .cfa: x29 32 + x19: .cfa -8 + ^ x20: .cfa -16 + ^ .ra: .cfa -24 + ^ x29: .cfa -32 + ^
STACK CFI 5f034 .cfa: sp 80 +
STACK CFI 5f040 .cfa: sp 0 +
STACK CFI 5f044 .cfa: x29 32 +
STACK CFI INIT 5f128 78 .cfa: sp 0 +
STACK CFI 5f12c .cfa: sp 32 +
STACK CFI 5f134 .cfa: x29 32 + x19: .cfa -8 + ^ x20: .cfa -16 + ^ .ra: .cfa -24 + ^ x29: .cfa -32 + ^
STACK CFI 5f140 .cfa: sp 32 +
STACK CFI 5f148 .cfa: sp 0 +
STACK CFI 5f14c .cfa: x29 32 +
STACK CFI INIT 5f1a0 74 .cfa: sp 0 +
STACK CFI 5f1a4 .cfa: sp 48 +
STACK CFI 5f1b0 .cfa: x29 32 + x19: .cfa -8 + ^ x20: .cfa -16 + ^ .ra: .cfa -24 + ^ x29: .cfa -32 + ^
STACK CFI 5f1fc .cfa: sp 48 +
STACK CFI 5f208 .cfa: sp 0 +
STACK CFI 5f20c .cfa: x29 32 +
STACK CFI INIT 5f29c 25c .cfa: sp 0 +
STACK CFI 5f2a0 .cfa: sp 128 +
STACK CFI 5f2b0 .cfa: x29 48 + x19: .cfa -8 + ^ x20: .cfa -16 + ^ x21: .cfa -32 + ^ .ra: .cfa -40 + ^ x29: .cfa -48 + ^
STACK CFI 5f398 .cfa: sp 128 +
STACK CFI 5f3a8 .cfa: sp 0 +
STACK CFI 5f3ac .cfa: x29 48 +
STACK CFI INIT 5f570 308 .cfa: sp 0 +
STACK CFI 5f574 .cfa: sp 144 +
STACK CFI 5f588 .cfa: x29 64 + x19: .cfa -8 + ^ x20: .cfa -16 + ^ x21: .cfa -24 + ^ x22: .cfa -32 + ^ x23: .cfa -48 + ^ .ra: .cfa -56 + ^ x29: .cfa -64 + ^
STACK CFI 5f71c .cfa: sp 144 +
STACK CFI 5f730 .cfa: sp 0 +
STACK CFI 5f734 .cfa: x29 64 +
STACK CFI INIT 5f8cc 26c .cfa: sp 0 +
STACK CFI 5f8d0 .cfa: sp 128 +
STACK CFI 5f8e0 .cfa: x29 48 + x19: .cfa -8 + ^ x20: .cfa -16 + ^ x21: .cfa -32 + ^ .ra: .cfa -40 + ^ x29: .cfa -48 + ^
STACK CFI 5f9d8 .cfa: sp 128 +
STACK CFI 5f9e8 .cfa: sp 0 +
STACK CFI 5f9ec .cfa: x29 48 +
STACK CFI INIT 5fbe0 1b8 .cfa: sp 0 +
STACK CFI 5fbe4 .cfa: sp 160 +
STACK CFI 5fc00 .cfa: x29 72 + x19: .cfa -8 + ^ x20: .cfa -16 + ^ x21: .cfa -24 + ^ x22: .cfa -32 + ^ x23: .cfa -40 + ^ x24: .cfa -48 + ^ x25: .cfa -56 + ^ .ra: .cfa -64 + ^ x29: .cfa -72 + ^ v8: .cfa -80 + ^
STACK CFI 5fc84 .cfa: sp 160 +
STACK CFI 5fca0 .cfa: sp 0 +
STACK CFI 5fca4 .cfa: x29 72 +
STACK CFI INIT 5fd98 460 .cfa: sp 0 +
STACK CFI 5fd9c .cfa: sp 96 +
STACK CFI 5fdb4 .cfa: x29 80 + x19: .cfa -8 + ^ x20: .cfa -16 + ^ x21: .cfa -24 + ^ x22: .cfa -32 + ^ x23: .cfa -40 + ^ x24: .cfa -48 + ^ x25: .cfa -64 + ^ .ra: .cfa -72 + ^ x29: .cfa -80 + ^
STACK CFI 60174 .cfa: sp 96 +
STACK CFI 6018c .cfa: sp 0 +
STACK CFI 60190 .cfa: x29 80 +
STACK CFI INIT 601f8 ac .cfa: sp 0 +
STACK CFI 601fc .cfa: sp 64 +
STACK CFI 6020c .cfa: x29 48 + x19: .cfa -8 + ^ x20: .cfa -16 + ^ x21: .cfa -32 + ^ .ra: .cfa -40 + ^ x29: .cfa -48 + ^
STACK CFI 60268 .cfa: sp 64 +
STACK CFI 60278 .cfa: sp 0 +
STACK CFI 6027c .cfa: x29 48 +
STACK CFI INIT 602a4 1e8 .cfa: sp 0 +
STACK CFI 602a8 .cfa: sp 192 +
STACK CFI 602cc .cfa: x29 88 + x19: .cfa -8 + ^ x20: .cfa -16 + ^ x21: .cfa -24 + ^ x22: .cfa -32 + ^ x23: .cfa -40 + ^ x24: .cfa -48 + ^ x25: .cfa -56 + ^ x26: .cfa -64 + ^ x27: .cfa -72 + ^ .ra: .cfa -80 + ^ x29: .cfa -88 + ^ v8: .cfa -96 + ^ v9: .cfa -104 + ^ v10: .cfa -112 + ^
STACK CFI 60370 .cfa: sp 192 +
STACK CFI 60394 .cfa: sp 0 +
STACK CFI 60398 .cfa: x29 88 +
STACK CFI INIT 6048c 7f0 .cfa: sp 0 +
STACK CFI 60490 .cfa: sp 112 +
STACK CFI 604a8 .cfa: x29 80 + x19: .cfa -8 + ^ x20: .cfa -16 + ^ x21: .cfa -24 + ^ x22: .cfa -32 + ^ x23: .cfa -40 + ^ x24: .cfa -48 + ^ x25: .cfa -64 + ^ .ra: .cfa -72 + ^ x29: .cfa -80 + ^
STACK CFI 60bb8 .cfa: sp 112 +
STACK CFI 60bd0 .cfa: sp 0 +
STACK CFI 60bd4 .cfa: x29 80 +
STACK CFI INIT 60c7c 1a0 .cfa: sp 0 +
STACK CFI 60c80 .cfa: sp 160 +
STACK CFI 60c98 .cfa: x29 64 + x19: .cfa -8 + ^ x20: .cfa -16 + ^ x21: .cfa -24 + ^ x22: .cfa -32 + ^ x23: .cfa -40 + ^ x24: .cfa -48 + ^ .ra: .cfa -56 + ^ x29: .cfa -64 + ^ v8: .cfa -80 + ^
STACK CFI 60d0c .cfa: sp 160 +
STACK CFI 60d24 .cfa: sp 0 +
STACK CFI 60d28 .cfa: x29 64 +
STACK CFI INIT 60e1c 38c .cfa: sp 0 +
STACK CFI 60e20 .cfa: sp 96 +
STACK CFI 60e38 .cfa: x29 80 + x19: .cfa -8 + ^ x20: .cfa -16 + ^ x21: .cfa -24 + ^ x22: .cfa -32 + ^ x23: .cfa -40 + ^ x24: .cfa -48 + ^ x25: .cfa -64 + ^ .ra: .cfa -72 + ^ x29: .cfa -80 + ^
STACK CFI 61134 .cfa: sp 96 +
STACK CFI 6114c .cfa: sp 0 +
STACK CFI 61150 .cfa: x29 80 +
STACK CFI INIT 611a8 530 .cfa: sp 0 +
STACK CFI 611ac .cfa: sp 144 +
STACK CFI 611c0 .cfa: x29 64 + x19: .cfa -8 + ^ x20: .cfa -16 + ^ x21: .cfa -24 + ^ x22: .cfa -32 + ^ x23: .cfa -40 + ^ x24: .cfa -48 + ^ .ra: .cfa -56 + ^ x29: .cfa -64 + ^
STACK CFI 61468 .cfa: sp 144 +
STACK CFI 6147c .cfa: sp 0 +
STACK CFI 61480 .cfa: x29 64 +
STACK CFI INIT 616fc f28 .cfa: sp 0 +
STACK CFI 61700 .cfa: sp 176 +
STACK CFI 6171c .cfa: x29 96 + x19: .cfa -8 + ^ x20: .cfa -16 + ^ x21: .cfa -24 + ^ x22: .cfa -32 + ^ x23: .cfa -40 + ^ x24: .cfa -48 + ^ x25: .cfa -56 + ^ x26: .cfa -64 + ^ x27: .cfa -72 + ^ x28: .cfa -80 + ^ .ra: .cfa -88 + ^ x29: .cfa -96 + ^
STACK CFI 62188 .cfa: sp 176 +
STACK CFI 621a4 .cfa: sp 0 +
STACK CFI 621a8 .cfa: x29 96 +
STACK CFI INIT 62678 17c .cfa: sp 0 +
STACK CFI 6267c .cfa: sp 160 +
STACK CFI 62694 .cfa: x29 80 + x19: .cfa -8 + ^ x20: .cfa -16 + ^ x21: .cfa -24 + ^ x22: .cfa -32 + ^ x23: .cfa -40 + ^ x24: .cfa -48 + ^ x25: .cfa -56 + ^ x26: .cfa -64 + ^ .ra: .cfa -72 + ^ x29: .cfa -80 + ^
STACK CFI 626fc .cfa: sp 160 +
STACK CFI 62714 .cfa: sp 0 +
STACK CFI 62718 .cfa: x29 80 +
STACK CFI INIT 627f4 460 .cfa: sp 0 +
STACK CFI 627f8 .cfa: sp 128 +
STACK CFI 62810 .cfa: x29 80 + x19: .cfa -8 + ^ x20: .cfa -16 + ^ x21: .cfa -24 + ^ x22: .cfa -32 + ^ x23: .cfa -40 + ^ x24: .cfa -48 + ^ x25: .cfa -64 + ^ .ra: .cfa -72 + ^ x29: .cfa -80 + ^
STACK CFI 62bd0 .cfa: sp 128 +
STACK CFI 62be8 .cfa: sp 0 +
STACK CFI 62bec .cfa: x29 80 +
STACK CFI INIT 62c5c 18c .cfa: sp 0 +
STACK CFI 62c60 .cfa: sp 176 +
STACK CFI 62c7c .cfa: x29 80 + x19: .cfa -8 + ^ x20: .cfa -16 + ^ x21: .cfa -24 + ^ x22: .cfa -32 + ^ x23: .cfa -40 + ^ x24: .cfa -48 + ^ x25: .cfa -56 + ^ x26: .cfa -64 + ^ .ra: .cfa -72 + ^ x29: .cfa -80 + ^ v8: .cfa -96 + ^
STACK CFI 62cec .cfa: sp 176 +
STACK CFI 62d08 .cfa: sp 0 +
STACK CFI 62d0c .cfa: x29 80 +
STACK CFI INIT 62de8 544 .cfa: sp 0 +
STACK CFI 62dec .cfa: sp 128 +
STACK CFI 62e04 .cfa: x29 80 + x19: .cfa -8 + ^ x20: .cfa -16 + ^ x21: .cfa -24 + ^ x22: .cfa -32 + ^ x23: .cfa -40 + ^ x24: .cfa -48 + ^ x25: .cfa -64 + ^ .ra: .cfa -72 + ^ x29: .cfa -80 + ^
STACK CFI 63298 .cfa: sp 128 +
STACK CFI 632b0 .cfa: sp 0 +
STACK CFI 632b4 .cfa: x29 80 +
STACK CFI INIT 63334 16c .cfa: sp 0 +
STACK CFI 63338 .cfa: sp 144 +
STACK CFI 63350 .cfa: x29 56 + x19: .cfa -8 + ^ x20: .cfa -16 + ^ x21: .cfa -24 + ^ x22: .cfa -32 + ^ x23: .cfa -40 + ^ .ra: .cfa -48 + ^ x29: .cfa -56 + ^ v8: .cfa -64 + ^
STACK CFI 633a8 .cfa: sp 144 +
STACK CFI 633c0 .cfa: sp 0 +
STACK CFI 633c4 .cfa: x29 56 +
STACK CFI INIT 634a0 2a4 .cfa: sp 0 +
STACK CFI 634a4 .cfa: sp 96 +
STACK CFI 634bc .cfa: x29 80 + x19: .cfa -8 + ^ x20: .cfa -16 + ^ x21: .cfa -24 + ^ x22: .cfa -32 + ^ x23: .cfa -40 + ^ x24: .cfa -48 + ^ x25: .cfa -64 + ^ .ra: .cfa -72 + ^ x29: .cfa -80 + ^
STACK CFI 636e0 .cfa: sp 96 +
STACK CFI 636f8 .cfa: sp 0 +
STACK CFI 636fc .cfa: x29 80 +
STACK CFI INIT 6374c 15c .cfa: sp 0 +
STACK CFI 63750 .cfa: sp 144 +
STACK CFI 63764 .cfa: x29 64 + x19: .cfa -8 + ^ x20: .cfa -16 + ^ x21: .cfa -24 + ^ x22: .cfa -32 + ^ x23: .cfa -48 + ^ .ra: .cfa -56 + ^ x29: .cfa -64 + ^
STACK CFI 637b4 .cfa: sp 144 +
STACK CFI 637c8 .cfa: sp 0 +
STACK CFI 637cc .cfa: x29 64 +
STACK CFI INIT 638a8 f8 .cfa: sp 0 +
STACK CFI 638ac .cfa: sp 64 +
STACK CFI 638bc .cfa: x29 48 + x19: .cfa -8 + ^ x20: .cfa -16 + ^ x21: .cfa -24 + ^ x22: .cfa -32 + ^ .ra: .cfa -40 + ^ x29: .cfa -48 + ^
STACK CFI 63968 .cfa: sp 64 +
STACK CFI 63978 .cfa: sp 0 +
STACK CFI 6397c .cfa: x29 48 +
STACK CFI INIT 639b8 174 .cfa: sp 0 +
STACK CFI 639bc .cfa: sp 160 +
STACK CFI 639d4 .cfa: x29 80 + x19: .cfa -8 + ^ x20: .cfa -16 + ^ x21: .cfa -24 + ^ x22: .cfa -32 + ^ x23: .cfa -40 + ^ x24: .cfa -48 + ^ x25: .cfa -64 + ^ .ra: .cfa -72 + ^ x29: .cfa -80 + ^
STACK CFI 63a34 .cfa: sp 160 +
STACK CFI 63a4c .cfa: sp 0 +
STACK CFI 63a50 .cfa: x29 80 +
STACK CFI INIT 63b2c 38c .cfa: sp 0 +
STACK CFI 63b30 .cfa: sp 96 +
STACK CFI 63b48 .cfa: x29 80 + x19: .cfa -8 + ^ x20: .cfa -16 + ^ x21: .cfa -24 + ^ x22: .cfa -32 + ^ x23: .cfa -40 + ^ x24: .cfa -48 + ^ x25: .cfa -64 + ^ .ra: .cfa -72 + ^ x29: .cfa -80 + ^
STACK CFI 63e44 .cfa: sp 96 +
STACK CFI 63e5c .cfa: sp 0 +
STACK CFI 63e60 .cfa: x29 80 +
STACK CFI INIT 63eb8 18c .cfa: sp 0 +
STACK CFI 63ebc .cfa: sp 176 +
STACK CFI 63ed8 .cfa: x29 96 + x19: .cfa -8 + ^ x20: .cfa -16 + ^ x21: .cfa -24 + ^ x22: .cfa -32 + ^ x23: .cfa -40 + ^ x24: .cfa -48 + ^ x25: .cfa -56 + ^ x26: .cfa -64 + ^ x27: .cfa -80 + ^ .ra: .cfa -88 + ^ x29: .cfa -96 + ^
STACK CFI 63f48 .cfa: sp 176 +
STACK CFI 63f64 .cfa: sp 0 +
STACK CFI 63f68 .cfa: x29 96 +
STACK CFI INIT 64044 554 .cfa: sp 0 +
STACK CFI 64048 .cfa: sp 96 +
STACK CFI 64060 .cfa: x29 80 + x19: .cfa -8 + ^ x20: .cfa -16 + ^ x21: .cfa -24 + ^ x22: .cfa -32 + ^ x23: .cfa -40 + ^ x24: .cfa -48 + ^ x25: .cfa -64 + ^ .ra: .cfa -72 + ^ x29: .cfa -80 + ^
STACK CFI 64504 .cfa: sp 96 +
STACK CFI 6451c .cfa: sp 0 +
STACK CFI 64520 .cfa: x29 80 +
STACK CFI INIT 64598 15c .cfa: sp 0 +
STACK CFI 6459c .cfa: sp 144 +
STACK CFI 645b0 .cfa: x29 64 + x19: .cfa -8 + ^ x20: .cfa -16 + ^ x21: .cfa -24 + ^ x22: .cfa -32 + ^ x23: .cfa -48 + ^ .ra: .cfa -56 + ^ x29: .cfa -64 + ^
STACK CFI 64600 .cfa: sp 144 +
STACK CFI 64614 .cfa: sp 0 +
STACK CFI 64618 .cfa: x29 64 +
STACK CFI INIT 646f4 f8 .cfa: sp 0 +
STACK CFI 646f8 .cfa: sp 64 +
STACK CFI 64708 .cfa: x29 48 + x19: .cfa -8 + ^ x20: .cfa -16 + ^ x21: .cfa -24 + ^ x22: .cfa -32 + ^ .ra: .cfa -40 + ^ x29: .cfa -48 + ^
STACK CFI 647b4 .cfa: sp 64 +
STACK CFI 647c4 .cfa: sp 0 +
STACK CFI 647c8 .cfa: x29 48 +
STACK CFI INIT 647f0 2ec .cfa: sp 0 +
STACK CFI 647f4 .cfa: sp 144 +
STACK CFI 64808 .cfa: x29 64 + x19: .cfa -8 + ^ x20: .cfa -16 + ^ x21: .cfa -24 + ^ x22: .cfa -32 + ^ x23: .cfa -48 + ^ .ra: .cfa -56 + ^ x29: .cfa -64 + ^
STACK CFI 64980 .cfa: sp 144 +
STACK CFI 64994 .cfa: sp 0 +
STACK CFI 64998 .cfa: x29 64 +
STACK CFI INIT 64adc 2ec .cfa: sp 0 +
STACK CFI 64ae0 .cfa: sp 144 +
STACK CFI 64af4 .cfa: x29 64 + x19: .cfa -8 + ^ x20: .cfa -16 + ^ x21: .cfa -24 + ^ x22: .cfa -32 + ^ x23: .cfa -48 + ^ .ra: .cfa -56 + ^ x29: .cfa -64 + ^
STACK CFI 64c6c .cfa: sp 144 +
STACK CFI 64c80 .cfa: sp 0 +
STACK CFI 64c84 .cfa: x29 64 +
STACK CFI INIT 64dc8 2a8 .cfa: sp 0 +
STACK CFI 64dcc .cfa: sp 144 +
STACK CFI 64de0 .cfa: x29 64 + x19: .cfa -8 + ^ x20: .cfa -16 + ^ x21: .cfa -24 + ^ x22: .cfa -32 + ^ x23: .cfa -48 + ^ .ra: .cfa -56 + ^ x29: .cfa -64 + ^
STACK CFI 64f14 .cfa: sp 144 +
STACK CFI 64f28 .cfa: sp 0 +
STACK CFI 64f2c .cfa: x29 64 +
STACK CFI INIT 65070 2f8 .cfa: sp 0 +
STACK CFI 65074 .cfa: sp 144 +
STACK CFI 65088 .cfa: x29 64 + x19: .cfa -8 + ^ x20: .cfa -16 + ^ x21: .cfa -24 + ^ x22: .cfa -32 + ^ x23: .cfa -48 + ^ .ra: .cfa -56 + ^ x29: .cfa -64 + ^
STACK CFI 6520c .cfa: sp 144 +
STACK CFI 65220 .cfa: sp 0 +
STACK CFI 65224 .cfa: x29 64 +
STACK CFI INIT 65368 4c4 .cfa: sp 0 +
STACK CFI 6536c .cfa: sp 144 +
STACK CFI 65380 .cfa: x29 64 + x19: .cfa -8 + ^ x20: .cfa -16 + ^ x21: .cfa -24 + ^ x22: .cfa -32 + ^ x23: .cfa -48 + ^ .ra: .cfa -56 + ^ x29: .cfa -64 + ^
STACK CFI 6567c .cfa: sp 144 +
STACK CFI 65690 .cfa: sp 0 +
STACK CFI 65694 .cfa: x29 64 +
STACK CFI INIT 6582c 154 .cfa: sp 0 +
STACK CFI 65830 .cfa: sp 384 +
STACK CFI 65844 .cfa: x29 64 + x19: .cfa -8 + ^ x20: .cfa -16 + ^ x21: .cfa -24 + ^ x22: .cfa -32 + ^ x23: .cfa -40 + ^ x28: .cfa -48 + ^ .ra: .cfa -56 + ^ x29: .cfa -64 + ^
STACK CFI 65928 .cfa: sp 384 +
STACK CFI 6593c .cfa: sp 0 +
STACK CFI 65940 .cfa: x29 64 +
STACK CFI INIT 65998 43c .cfa: sp 0 +
STACK CFI 6599c .cfa: sp 64 +
STACK CFI 659ac .cfa: x29 64 + x19: .cfa -8 + ^ x20: .cfa -16 + ^ x21: .cfa -24 + ^ x22: .cfa -32 + ^ x23: .cfa -40 + ^ x24: .cfa -48 + ^ .ra: .cfa -56 + ^ x29: .cfa -64 + ^
STACK CFI 65d64 .cfa: sp 64 +
STACK CFI 65d74 .cfa: sp 0 +
STACK CFI 65d78 .cfa: x29 64 +
STACK CFI INIT 66104 294 .cfa: sp 0 +
STACK CFI 66108 .cfa: sp 240 +
STACK CFI 66120 .cfa: x29 80 + x19: .cfa -8 + ^ x20: .cfa -16 + ^ x21: .cfa -24 + ^ x22: .cfa -32 + ^ x23: .cfa -40 + ^ x24: .cfa -48 + ^ x25: .cfa -64 + ^ .ra: .cfa -72 + ^ x29: .cfa -80 + ^
STACK CFI 662c0 .cfa: sp 240 +
STACK CFI 662d8 .cfa: sp 0 +
STACK CFI 662dc .cfa: x29 80 +
STACK CFI INIT 66408 50 .cfa: sp 0 +
STACK CFI 6640c .cfa: sp 32 +
STACK CFI 66414 .cfa: x29 32 + x19: .cfa -8 + ^ x20: .cfa -16 + ^ .ra: .cfa -24 + ^ x29: .cfa -32 + ^
STACK CFI INIT 66484 750 .cfa: sp 0 +
STACK CFI 66488 .cfa: sp 320 +
STACK CFI 664a4 .cfa: x29 96 + x19: .cfa -8 + ^ x20: .cfa -16 + ^ x21: .cfa -24 + ^ x22: .cfa -32 + ^ x23: .cfa -40 + ^ x24: .cfa -48 + ^ x25: .cfa -56 + ^ x26: .cfa -64 + ^ x27: .cfa -72 + ^ x28: .cfa -80 + ^ .ra: .cfa -88 + ^ x29: .cfa -96 + ^
STACK CFI 66a90 .cfa: sp 320 +
STACK CFI 66aac .cfa: sp 0 +
STACK CFI 66ab0 .cfa: x29 96 +
STACK CFI INIT 66c38 12c .cfa: sp 0 +
STACK CFI 66c3c .cfa: sp 80 +
STACK CFI 66c50 .cfa: x29 80 + x19: .cfa -8 + ^ x20: .cfa -16 + ^ x21: .cfa -24 + ^ x22: .cfa -32 + ^ x23: .cfa -40 + ^ x24: .cfa -48 + ^ x28: .cfa -64 + ^ .ra: .cfa -72 + ^ x29: .cfa -80 + ^
STACK CFI 66d18 .cfa: sp 80 +
STACK CFI 66d2c .cfa: sp 0 +
STACK CFI 66d30 .cfa: x29 80 +
STACK CFI INIT 6a580 c3c .cfa: sp 0 +
STACK CFI 6a584 .cfa: sp 96 +
STACK CFI 6a59c .cfa: x29 96 + x19: .cfa -8 + ^ x20: .cfa -16 + ^ x21: .cfa -24 + ^ x22: .cfa -32 + ^ x23: .cfa -40 + ^ x24: .cfa -48 + ^ x25: .cfa -56 + ^ x26: .cfa -64 + ^ x27: .cfa -72 + ^ x28: .cfa -80 + ^ .ra: .cfa -88 + ^ x29: .cfa -96 + ^
STACK CFI 6b080 .cfa: sp 96 +
STACK CFI 6b098 .cfa: sp 0 +
STACK CFI 6b09c .cfa: x29 96 +
STACK CFI INIT 6b310 238 .cfa: sp 0 +
STACK CFI 6b314 .cfa: sp 128 +
STACK CFI 6b324 .cfa: x29 48 + x19: .cfa -8 + ^ x20: .cfa -16 + ^ x21: .cfa -24 + ^ x22: .cfa -32 + ^ .ra: .cfa -40 + ^ x29: .cfa -48 + ^
STACK CFI 6b4ac .cfa: sp 128 +
STACK CFI 6b4bc .cfa: sp 0 +
STACK CFI 6b4c0 .cfa: x29 48 +
STACK CFI INIT 6b8ac 3a4 .cfa: sp 0 +
STACK CFI 6b8b0 .cfa: sp 96 +
STACK CFI 6b8c8 .cfa: x29 96 + x19: .cfa -8 + ^ x20: .cfa -16 + ^ x21: .cfa -24 + ^ x22: .cfa -32 + ^ x23: .cfa -40 + ^ x24: .cfa -48 + ^ x25: .cfa -56 + ^ x26: .cfa -64 + ^ x27: .cfa -72 + ^ x28: .cfa -80 + ^ .ra: .cfa -88 + ^ x29: .cfa -96 + ^
STACK CFI 6bbf0 .cfa: sp 96 +
STACK CFI 6bc08 .cfa: sp 0 +
STACK CFI 6bc0c .cfa: x29 96 +
STACK CFI INIT 6bcf0 c78 .cfa: sp 0 +
STACK CFI 6bcf4 .cfa: sp 96 +
STACK CFI 6bd0c .cfa: x29 96 + x19: .cfa -8 + ^ x20: .cfa -16 + ^ x21: .cfa -24 + ^ x22: .cfa -32 + ^ x23: .cfa -40 + ^ x24: .cfa -48 + ^ x25: .cfa -56 + ^ x26: .cfa -64 + ^ x27: .cfa -72 + ^ x28: .cfa -80 + ^ .ra: .cfa -88 + ^ x29: .cfa -96 + ^
STACK CFI 6c81c .cfa: sp 96 +
STACK CFI 6c834 .cfa: sp 0 +
STACK CFI 6c838 .cfa: x29 96 +
STACK CFI INIT 6cc50 ad0 .cfa: sp 0 +
STACK CFI 6cc54 .cfa: sp 96 +
STACK CFI 6cc6c .cfa: x29 96 + x19: .cfa -8 + ^ x20: .cfa -16 + ^ x21: .cfa -24 + ^ x22: .cfa -32 + ^ x23: .cfa -40 + ^ x24: .cfa -48 + ^ x25: .cfa -56 + ^ x26: .cfa -64 + ^ x27: .cfa -72 + ^ x28: .cfa -80 + ^ .ra: .cfa -88 + ^ x29: .cfa -96 + ^
STACK CFI 6d694 .cfa: sp 96 +
STACK CFI 6d6ac .cfa: sp 0 +
STACK CFI 6d6b0 .cfa: x29 96 +
STACK CFI INIT 6d914 1350 .cfa: sp 0 +
STACK CFI 6d918 .cfa: sp 96 +
STACK CFI 6d930 .cfa: x29 96 + x19: .cfa -8 + ^ x20: .cfa -16 + ^ x21: .cfa -24 + ^ x22: .cfa -32 + ^ x23: .cfa -40 + ^ x24: .cfa -48 + ^ x25: .cfa -56 + ^ x26: .cfa -64 + ^ x27: .cfa -72 + ^ x28: .cfa -80 + ^ .ra: .cfa -88 + ^ x29: .cfa -96 + ^
STACK CFI 6eb30 .cfa: sp 96 +
STACK CFI 6eb48 .cfa: sp 0 +
STACK CFI 6eb4c .cfa: x29 96 +
STACK CFI INIT 6ed88 744 .cfa: sp 0 +
STACK CFI 6ed8c .cfa: sp 368 +
STACK CFI 6eda8 .cfa: x29 96 + x19: .cfa -8 + ^ x20: .cfa -16 + ^ x21: .cfa -24 + ^ x22: .cfa -32 + ^ x23: .cfa -40 + ^ x24: .cfa -48 + ^ x25: .cfa -56 + ^ x26: .cfa -64 + ^ x27: .cfa -72 + ^ x28: .cfa -80 + ^ .ra: .cfa -88 + ^ x29: .cfa -96 + ^
STACK CFI 6ee44 .cfa: sp 368 +
STACK CFI 6ee60 .cfa: sp 0 +
STACK CFI 6ee64 .cfa: x29 96 +
STACK CFI 6eeb8 .cfa: sp 368 +
STACK CFI 6eed4 .cfa: sp 0 +
STACK CFI 6eed8 .cfa: x29 96 +
STACK CFI INIT 6f860 e8c .cfa: sp 0 +
STACK CFI 6f864 .cfa: sp 96 +
STACK CFI 6f87c .cfa: x29 96 + x19: .cfa -8 + ^ x20: .cfa -16 + ^ x21: .cfa -24 + ^ x22: .cfa -32 + ^ x23: .cfa -40 + ^ x24: .cfa -48 + ^ x25: .cfa -56 + ^ x26: .cfa -64 + ^ x27: .cfa -72 + ^ x28: .cfa -80 + ^ .ra: .cfa -88 + ^ x29: .cfa -96 + ^
STACK CFI 7050c .cfa: sp 96 +
STACK CFI 70524 .cfa: sp 0 +
STACK CFI 70528 .cfa: x29 96 +
STACK CFI INIT 70a60 14c4 .cfa: sp 0 +
STACK CFI 70a64 .cfa: sp 112 +
STACK CFI 70a80 .cfa: x29 96 + x19: .cfa -8 + ^ x20: .cfa -16 + ^ x21: .cfa -24 + ^ x22: .cfa -32 + ^ x23: .cfa -40 + ^ x24: .cfa -48 + ^ x25: .cfa -56 + ^ x26: .cfa -64 + ^ x27: .cfa -72 + ^ x28: .cfa -80 + ^ .ra: .cfa -88 + ^ x29: .cfa -96 + ^ v8: .cfa -112 + ^
STACK CFI 71d5c .cfa: sp 112 +
STACK CFI 71d78 .cfa: sp 0 +
STACK CFI 71d7c .cfa: x29 96 +
STACK CFI INIT 74238 98c .cfa: sp 0 +
STACK CFI 7423c .cfa: sp 144 +
STACK CFI 74254 .cfa: x29 80 + x19: .cfa -8 + ^ x20: .cfa -16 + ^ x21: .cfa -24 + ^ x22: .cfa -32 + ^ x23: .cfa -40 + ^ x24: .cfa -48 + ^ x25: .cfa -64 + ^ .ra: .cfa -72 + ^ x29: .cfa -80 + ^
STACK CFI 74b40 .cfa: sp 144 +
STACK CFI 74b58 .cfa: sp 0 +
STACK CFI 74b5c .cfa: x29 80 +
STACK CFI INIT 74bc4 570 .cfa: sp 0 +
STACK CFI 74bc8 .cfa: sp 96 +
STACK CFI 74be0 .cfa: x29 96 + x19: .cfa -8 + ^ x20: .cfa -16 + ^ x21: .cfa -24 + ^ x22: .cfa -32 + ^ x23: .cfa -40 + ^ x24: .cfa -48 + ^ x25: .cfa -56 + ^ x26: .cfa -64 + ^ x27: .cfa -72 + ^ x28: .cfa -80 + ^ .ra: .cfa -88 + ^ x29: .cfa -96 + ^
STACK CFI 75098 .cfa: sp 96 +
STACK CFI 750b0 .cfa: sp 0 +
STACK CFI 750b4 .cfa: x29 96 +
STACK CFI INIT 75134 664 .cfa: sp 0 +
STACK CFI 75138 .cfa: sp 96 +
STACK CFI 75150 .cfa: x29 96 + x19: .cfa -8 + ^ x20: .cfa -16 + ^ x21: .cfa -24 + ^ x22: .cfa -32 + ^ x23: .cfa -40 + ^ x24: .cfa -48 + ^ x25: .cfa -56 + ^ x26: .cfa -64 + ^ x27: .cfa -72 + ^ x28: .cfa -80 + ^ .ra: .cfa -88 + ^ x29: .cfa -96 + ^
STACK CFI 756fc .cfa: sp 96 +
STACK CFI 75714 .cfa: sp 0 +
STACK CFI 75718 .cfa: x29 96 +
