MODULE Linux arm64 0E3A14C491800C3D0037DD119FAE61860 undefined0.icon_ninja.android64.so
INFO CODE_ID C4143A0E80913D0C0037DD119FAE61861F40A25E
INFO GENERATOR mozilla/dump_syms 2.3.4
PUBLIC 1fae0 0 __on_dlclose
PUBLIC 1faf0 0 __emutls_unregister_key
PUBLIC 1faf8 0 __on_dlclose_late
PUBLIC 1fb00 0 __atexit_handler_wrapper
PUBLIC 1fb14 0 atexit
PUBLIC 1fb30 0 pthread_atfork
PUBLIC 1fb40 0 __aarch64_ldadd8_relax
PUBLIC 1fb70 0 init_have_lse_atomics
PUBLIC 1fc08 0 __init_cpu_features_constructor
PUBLIC 201a4 0 __init_cpu_features
PUBLIC 20230 0 __aarch64_ldadd8_acq_rel
PUBLIC 20260 0 CCBrighten::update(float)
PUBLIC 20398 0 CCBrighten::~CCBrighten()
PUBLIC 203bc 0 cocos2d::CCAction::setTag(int)
PUBLIC 203c4 0 geode::cast::traverseTypeinfoFor(void*, geode::cast::ClassTypeinfoType const*, char const*)
PUBLIC 204c8 0 geode::Mod::getSettingValue<bool>(std::__ndk1::basic_string_view<char, std::__ndk1::char_traits<char> >) const
PUBLIC 205fc 0 __clang_call_terminate
PUBLIC 2060c 0 CCSpriteWithLuminosity::getShaderName()
PUBLIC 2061c 0 CCSpriteWithLuminosity::shaderBody()
PUBLIC 20628 0 cocos2d::CCCopying::copyWithZone(cocos2d::CCZone*)
PUBLIC 20630 0 CCSpriteWithLuminosity::~CCSpriteWithLuminosity()
PUBLIC 20654 0 cocos2d::CCSprite::setBlendFunc(cocos2d::_ccBlendFunc)
PUBLIC 20660 0 cocos2d::CCSprite::getBlendFunc()
PUBLIC 2066c 0 cocos2d::CCSprite::isDirty()
PUBLIC 20674 0 cocos2d::CCSprite::setDirty(bool)
PUBLIC 2067c 0 {virtual override thunk({offset(-344)}, cocos2d::CCSprite::setBlendFunc(cocos2d::_ccBlendFunc))}
PUBLIC 20684 0 {virtual override thunk({offset(-344)}, cocos2d::CCSprite::getBlendFunc())}
PUBLIC 2068c 0 FlashbangLayer::create()
PUBLIC 20788 0 FlashbangLayer::init()
PUBLIC 20804 0 cocos2d::CCSequence::create(cocos2d::CCFiniteTimeAction*, ...)
PUBLIC 2089c 0 FlashbangLayer::~FlashbangLayer()
PUBLIC 208c0 0 cocos2d::CCLayerRGBA::setOpacityModifyRGB(bool)
PUBLIC 208c4 0 cocos2d::CCLayerRGBA::isOpacityModifyRGB()
PUBLIC 208cc 0 {virtual override thunk({offset(-320)}, FlashbangLayer::~FlashbangLayer())}
PUBLIC 208d4 0 {virtual override thunk({offset(-320)}, FlashbangLayer::~FlashbangLayer())}
PUBLIC 208fc 0 cocos2d::CCKeyboardDelegate::keyUp(cocos2d::enumKeyCodes)
PUBLIC 20900 0 cocos2d::CCMouseDelegate::rightKeyDown()
PUBLIC 20904 0 cocos2d::CCMouseDelegate::rightKeyUp()
PUBLIC 20908 0 cocos2d::CCMouseDelegate::scrollWheel(float, float)
PUBLIC 2090c 0 {virtual override thunk({offset(-408)}, cocos2d::CCLayerRGBA::setOpacityModifyRGB(bool))}
PUBLIC 20910 0 {virtual override thunk({offset(-408)}, cocos2d::CCLayerRGBA::isOpacityModifyRGB())}
PUBLIC 20918 0 MenuIcon::init(MenuIconType)
PUBLIC 20f44 0 __cxx_global_var_init
PUBLIC 20fa4 0 geode::modifier::ModifyBase<geode::modifier::ModifyDerive<HookedMenuLayer, MenuLayer> >::~ModifyBase()
PUBLIC 20fc0 0 MenuIcon::~MenuIcon()
PUBLIC 20fe4 0 std::__ndk1::basic_string<char, std::__ndk1::char_traits<char>, std::__ndk1::allocator<char> >::__throw_length_error[abi:ne180000]() const
PUBLIC 20ff8 0 std::__ndk1::__throw_length_error[abi:ne180000](char const*)
PUBLIC 21048 0 std::length_error::length_error[abi:ne180000](char const*)
PUBLIC 21078 0 std::__throw_bad_array_new_length([abi:ne180000], void)
PUBLIC 210ac 0 geode::modifier::FieldIntermediate<HookedMenuLayer, MenuLayer>::self()
PUBLIC 21240 0 geode::modifier::FieldContainer::getField(unsigned long)
PUBLIC 214f8 0 geode::modifier::FieldContainer::setField(unsigned long, unsigned long, std::__ndk1::function<void (void*)>)
PUBLIC 2160c 0 geode::modifier::FieldIntermediate<HookedMenuLayer, MenuLayer>::fieldDestructor(void*)
PUBLIC 21614 0 std::__ndk1::vector<void*, std::__ndk1::allocator<void*> >::__throw_length_error[abi:ne180000]() const
PUBLIC 21628 0 std::__ndk1::vector<std::__ndk1::function<void (void*)>, std::__ndk1::allocator<std::__ndk1::function<void (void*)> > >::__push_back_slow_path<std::__ndk1::function<void (void*)> >(std::__ndk1::function<void (void*)>&&)
PUBLIC 21854 0 std::__ndk1::vector<std::__ndk1::function<void (void*)>, std::__ndk1::allocator<std::__ndk1::function<void (void*)> > >::__throw_length_error[abi:ne180000]() const
PUBLIC 21868 0 std::__ndk1::vector<void*, std::__ndk1::allocator<void*> >::__throw_out_of_range[abi:ne180000]() const
PUBLIC 2187c 0 std::__ndk1::__throw_out_of_range[abi:ne180000](char const*)
PUBLIC 218cc 0 std::out_of_range::out_of_range[abi:ne180000](char const*)
PUBLIC 218fc 0 std::__ndk1::vector<std::__ndk1::function<void (void*)>, std::__ndk1::allocator<std::__ndk1::function<void (void*)> > >::__throw_out_of_range[abi:ne180000]() const
PUBLIC 21910 0 std::__ndk1::__tree<std::__ndk1::__value_type<cocos2d::CCNode*, cocos2d::CCPoint>, std::__ndk1::__map_value_compare<cocos2d::CCNode*, std::__ndk1::__value_type<cocos2d::CCNode*, cocos2d::CCPoint>, std::__ndk1::less<cocos2d::CCNode*>, true>, std::__ndk1::allocator<std::__ndk1::__value_type<cocos2d::CCNode*, cocos2d::CCPoint> > >::destroy(std::__ndk1::__tree_node<std::__ndk1::__value_type<cocos2d::CCNode*, cocos2d::CCPoint>, void*>*)
PUBLIC 21954 0 std::__ndk1::__function::__base<void (void*)>::~__base()
PUBLIC 21958 0 std::__ndk1::__function::__func<void (*)(void*), std::__ndk1::allocator<void (*)(void*)>, void (void*)>::~__func()
PUBLIC 2195c 0 std::__ndk1::__function::__func<void (*)(void*), std::__ndk1::allocator<void (*)(void*)>, void (void*)>::__clone() const
PUBLIC 21994 0 std::__ndk1::__function::__func<void (*)(void*), std::__ndk1::allocator<void (*)(void*)>, void (void*)>::__clone(std::__ndk1::__function::__base<void (void*)>*) const
PUBLIC 219ac 0 std::__ndk1::__function::__func<void (*)(void*), std::__ndk1::allocator<void (*)(void*)>, void (void*)>::destroy()
PUBLIC 219b0 0 std::__ndk1::__function::__func<void (*)(void*), std::__ndk1::allocator<void (*)(void*)>, void (void*)>::destroy_deallocate()
PUBLIC 219b4 0 std::__ndk1::__function::__func<void (*)(void*), std::__ndk1::allocator<void (*)(void*)>, void (void*)>::operator()(void*&&)
PUBLIC 219c4 0 std::__ndk1::__function::__func<void (*)(void*), std::__ndk1::allocator<void (*)(void*)>, void (void*)>::target(std::type_info const&) const
PUBLIC 219e0 0 std::__ndk1::__function::__func<void (*)(void*), std::__ndk1::allocator<void (*)(void*)>, void (void*)>::target_type() const
PUBLIC 219ec 0 geode::modifier::ModifyBase<geode::modifier::ModifyDerive<HookedMenuLayer, MenuLayer> >::ModifyBase()
PUBLIC 21df4 0 geode::modifier::ModifyDerive<HookedMenuLayer, MenuLayer>::apply()
PUBLIC 22238 0 std::__ndk1::shared_ptr<geode::Hook>::~shared_ptr[abi:ne180000]()
PUBLIC 22288 0 geode::impl::ResultData<geode::Hook*, std::__ndk1::basic_string<char, std::__ndk1::char_traits<char>, std::__ndk1::allocator<char> > >::~ResultData()
PUBLIC 222fc 0 std::__ndk1::vector<std::__ndk1::basic_string<char, std::__ndk1::char_traits<char>, std::__ndk1::allocator<char> >, std::__ndk1::allocator<std::__ndk1::basic_string<char, std::__ndk1::char_traits<char>, std::__ndk1::allocator<char> > > >::~vector[abi:ne180000]()
PUBLIC 22378 0 geode::modifier::ModifyBase<geode::modifier::ModifyDerive<HookedMenuLayer, MenuLayer> >::apply()
PUBLIC 2237c 0 _ZN5geode15UnwrapExceptionC2IRPNS_4HookEQsr4implE18IsStringStreamableIT_EEENS_4impl5OkTagEOS5_
PUBLIC 224d0 0 std::__ndk1::__throw_bad_variant_access[abi:ne180000]()
PUBLIC 22504 0 std::__ndk1::basic_stringstream<char, std::__ndk1::char_traits<char>, std::__ndk1::allocator<char> >::basic_stringstream[abi:ne180000]()
PUBLIC m 22630 0 std::__ndk1::basic_stringstream<char, std::__ndk1::char_traits<char>, std::__ndk1::allocator<char> >::~basic_stringstream()
PUBLIC 226b0 0 geode::UnwrapException::~UnwrapException()
PUBLIC 226d4 0 std::__ndk1::__put_character_sequence[abi:ne180000]<char, std::__ndk1::char_traits<char> >(std::__ndk1::basic_ostream<char, std::__ndk1::char_traits<char> >, std::__ndk1::basic_ostream const*, unsigned long)
PUBLIC 22878 0 std::__ndk1::__pad_and_output[abi:ne180000]<char, std::__ndk1::char_traits<char> >(std::__ndk1::char_traits<char>, std::__ndk1::ostreambuf_iterator const*, std::__ndk1::ostreambuf_iterator const, std::__ndk1::ostreambuf_iterator const, std::__ndk1::ios_base&, std::__ndk1::ostreambuf_iterator)
PUBLIC 22a54 0 std::__ndk1::basic_stringbuf<char, std::__ndk1::char_traits<char>, std::__ndk1::allocator<char> >::str[abi:ne180000]() &&
PUBLIC 22bcc 0 std::__ndk1::basic_stringbuf<char, std::__ndk1::char_traits<char>, std::__ndk1::allocator<char> >::__init_buf_ptrs[abi:ne180000]()
PUBLIC 22d14 0 std::__ndk1::vector<std::__ndk1::basic_string<char, std::__ndk1::char_traits<char>, std::__ndk1::allocator<char> >, std::__ndk1::allocator<std::__ndk1::basic_string<char, std::__ndk1::char_traits<char>, std::__ndk1::allocator<char> > > >::__push_back_slow_path<std::__ndk1::basic_string<char, std::__ndk1::char_traits<char>, std::__ndk1::allocator<char> > const&>(std::__ndk1::basic_string<char, std::__ndk1::char_traits<char>, std::__ndk1::allocator<char> > const&)
PUBLIC 22f3c 0 std::__ndk1::basic_string<char, std::__ndk1::char_traits<char>, std::__ndk1::allocator<char> >::__init_copy_ctor_external(char const*, unsigned long)
PUBLIC 22fbc 0 std::__ndk1::__split_buffer<std::__ndk1::basic_string<char, std::__ndk1::char_traits<char>, std::__ndk1::allocator<char> >, std::__ndk1::allocator<std::__ndk1::basic_string<char, std::__ndk1::char_traits<char>, std::__ndk1::allocator<char> > >&>::~__split_buffer()
PUBLIC 23024 0 std::__ndk1::vector<std::__ndk1::basic_string<char, std::__ndk1::char_traits<char>, std::__ndk1::allocator<char> >, std::__ndk1::allocator<std::__ndk1::basic_string<char, std::__ndk1::char_traits<char>, std::__ndk1::allocator<char> > > >::__throw_length_error[abi:ne180000]() const
PUBLIC 23038 0 std::__ndk1::__variant_detail::__visitation::__base::__dispatcher<(unsigned long)0>::__dispatch[abi:ne180000]<std::__ndk1::__variant_detail::__dtor<std::__ndk1::__variant_detail::__traits<geode::Hook*, std::__ndk1::basic_string<char, std::__ndk1::char_traits<char>, std::__ndk1::allocator<char> > >, (std::__ndk1::__variant_detail::_Trait)1>::__destroy[abi:ne180000]()::{lambda(auto:1&)#1}, std::__ndk1::__variant_detail::__base<(std::__ndk1::__variant_detail::__traits<geode::Hook*, std::__ndk1::basic_string<char, std::__ndk1::char_traits<char>, std::__ndk1::allocator<char> > >)1, geode::Hook, std::__ndk1::allocator<char> >&>(std::__ndk1::__variant_detail::__dtor<std::__ndk1::__variant_detail::__traits<geode::Hook*, std::__ndk1::basic_string<char, std::__ndk1::char_traits<char>, std::__ndk1::allocator<char> > >, (std::__ndk1::__variant_detail::_Trait)1>, std::__ndk1::__variant_detail::__base<(std::__ndk1::__variant_detail::__traits<geode::Hook*, std::__ndk1::basic_string<char, std::__ndk1::char_traits<char>, std::__ndk1::allocator<char> > >)1, geode::Hook, std::__ndk1::allocator<char> >&)
PUBLIC 2303c 0 std::__ndk1::__variant_detail::__visitation::__base::__dispatcher<(unsigned long)1>::__dispatch[abi:ne180000]<std::__ndk1::__variant_detail::__dtor<std::__ndk1::__variant_detail::__traits<geode::Hook*, std::__ndk1::basic_string<char, std::__ndk1::char_traits<char>, std::__ndk1::allocator<char> > >, (std::__ndk1::__variant_detail::_Trait)1>::__destroy[abi:ne180000]()::{lambda(auto:1&)#1}, std::__ndk1::__variant_detail::__base<(std::__ndk1::__variant_detail::__traits<geode::Hook*, std::__ndk1::basic_string<char, std::__ndk1::char_traits<char>, std::__ndk1::allocator<char> > >)1, geode::Hook, std::__ndk1::allocator<char> >&>(std::__ndk1::__variant_detail::__dtor<std::__ndk1::__variant_detail::__traits<geode::Hook*, std::__ndk1::basic_string<char, std::__ndk1::char_traits<char>, std::__ndk1::allocator<char> > >, (std::__ndk1::__variant_detail::_Trait)1>, std::__ndk1::__variant_detail::__base<(std::__ndk1::__variant_detail::__traits<geode::Hook*, std::__ndk1::basic_string<char, std::__ndk1::char_traits<char>, std::__ndk1::allocator<char> > >)1, geode::Hook, std::__ndk1::allocator<char> >&)
PUBLIC 23050 0 std::__ndk1::__tree<std::__ndk1::__value_type<std::__ndk1::basic_string<char, std::__ndk1::char_traits<char>, std::__ndk1::allocator<char> >, std::__ndk1::shared_ptr<geode::Hook> >, std::__ndk1::__map_value_compare<std::__ndk1::basic_string<char, std::__ndk1::char_traits<char>, std::__ndk1::allocator<char> >, std::__ndk1::__value_type<std::__ndk1::basic_string<char, std::__ndk1::char_traits<char>, std::__ndk1::allocator<char> >, std::__ndk1::shared_ptr<geode::Hook> >, std::__ndk1::less<std::__ndk1::basic_string<char, std::__ndk1::char_traits<char>, std::__ndk1::allocator<char> > >, true>, std::__ndk1::allocator<std::__ndk1::__value_type<std::__ndk1::basic_string<char, std::__ndk1::char_traits<char>, std::__ndk1::allocator<char> >, std::__ndk1::shared_ptr<geode::Hook> > > >::find<std::__ndk1::basic_string<char, std::__ndk1::char_traits<char>, std::__ndk1::allocator<char> > >(std::__ndk1::basic_string<char, std::__ndk1::char_traits<char>, std::__ndk1::allocator<char> > const&)
PUBLIC 23170 0 std::__ndk1::__tree<std::__ndk1::__value_type<std::__ndk1::basic_string<char, std::__ndk1::char_traits<char>, std::__ndk1::allocator<char> >, std::__ndk1::shared_ptr<geode::Hook> >, std::__ndk1::__map_value_compare<std::__ndk1::basic_string<char, std::__ndk1::char_traits<char>, std::__ndk1::allocator<char> >, std::__ndk1::__value_type<std::__ndk1::basic_string<char, std::__ndk1::char_traits<char>, std::__ndk1::allocator<char> >, std::__ndk1::shared_ptr<geode::Hook> >, std::__ndk1::less<std::__ndk1::basic_string<char, std::__ndk1::char_traits<char>, std::__ndk1::allocator<char> > >, true>, std::__ndk1::allocator<std::__ndk1::__value_type<std::__ndk1::basic_string<char, std::__ndk1::char_traits<char>, std::__ndk1::allocator<char> >, std::__ndk1::shared_ptr<geode::Hook> > > >::erase(std::__ndk1::__tree_const_iterator<std::__ndk1::__value_type<std::__ndk1::basic_string<char, std::__ndk1::char_traits<char>, std::__ndk1::allocator<char> >, std::__ndk1::shared_ptr<geode::Hook> >, std::__ndk1::__tree_node<std::__ndk1::__value_type<std::__ndk1::basic_string<char, std::__ndk1::char_traits<char>, std::__ndk1::allocator<char> >, std::__ndk1::shared_ptr<geode::Hook> >, void*>*, long>)
PUBLIC 23244 0 std::__ndk1::__tree_remove[abi:ne180000]<std::__ndk1::__tree_node_base<void*>*>(std::__ndk1::__tree_node_base<void*>*, std::__ndk1::__tree_node_base<void*>*)
PUBLIC 2360c 0 std::__ndk1::__tree<std::__ndk1::__value_type<std::__ndk1::basic_string<char, std::__ndk1::char_traits<char>, std::__ndk1::allocator<char> >, std::__ndk1::shared_ptr<geode::Hook> >, std::__ndk1::__map_value_compare<std::__ndk1::basic_string<char, std::__ndk1::char_traits<char>, std::__ndk1::allocator<char> >, std::__ndk1::__value_type<std::__ndk1::basic_string<char, std::__ndk1::char_traits<char>, std::__ndk1::allocator<char> >, std::__ndk1::shared_ptr<geode::Hook> >, std::__ndk1::less<std::__ndk1::basic_string<char, std::__ndk1::char_traits<char>, std::__ndk1::allocator<char> > >, true>, std::__ndk1::allocator<std::__ndk1::__value_type<std::__ndk1::basic_string<char, std::__ndk1::char_traits<char>, std::__ndk1::allocator<char> >, std::__ndk1::shared_ptr<geode::Hook> > > >::destroy(std::__ndk1::__tree_node<std::__ndk1::__value_type<std::__ndk1::basic_string<char, std::__ndk1::char_traits<char>, std::__ndk1::allocator<char> >, std::__ndk1::shared_ptr<geode::Hook> >, void*>*)
PUBLIC 23698 0 geode::Hook::create<bool (*)(HookedMenuLayer*)>(void*, bool (*)(HookedMenuLayer*), std::__ndk1::basic_string<char, std::__ndk1::char_traits<char>, std::__ndk1::allocator<char> > const&, tulip::hook::TulipConvention, tulip::hook::HookMetadata const&)
PUBLIC 237cc 0 geode::modifier::AsStaticFunction_init<HookedMenuLayer, bool (HookedMenuLayer::*)()>::Impl<bool (HookedMenuLayer::*)()>::function(HookedMenuLayer*)
PUBLIC 237d0 0 geode::Hook::create<void (*)(HookedMenuLayer*, cocos2d::enumKeyCodes)>(void*, void (*)(HookedMenuLayer*, cocos2d::enumKeyCodes), std::__ndk1::basic_string<char, std::__ndk1::char_traits<char>, std::__ndk1::allocator<char> > const&, tulip::hook::TulipConvention, tulip::hook::HookMetadata const&)
PUBLIC 23954 0 geode::modifier::AsStaticFunction_keyDown<HookedMenuLayer, void (HookedMenuLayer::*)(cocos2d::enumKeyCodes)>::Impl<void (HookedMenuLayer::*)(cocos2d::enumKeyCodes)>::function(HookedMenuLayer*, cocos2d::enumKeyCodes)
PUBLIC 239b8 0 geode::addresser::Addresser::addressOfVirtual<bool, MenuLayer, >(bool (MenuLayer::*)())
PUBLIC 23aa4 0 MenuLayer::MenuLayer(geode::ZeroConstructorType)
PUBLIC 23b40 0 std::__ndk1::shared_ptr<tulip::hook::CallingConvention>::~shared_ptr[abi:ne180000]()
PUBLIC 23b90 0 tulip::hook::HandlerMetadata::~HandlerMetadata()
PUBLIC 23bf4 0 std::__ndk1::__tree<std::__ndk1::__value_type<std::__ndk1::basic_string<char, std::__ndk1::char_traits<char>, std::__ndk1::allocator<char> >, std::__ndk1::shared_ptr<geode::Hook> >, std::__ndk1::__map_value_compare<std::__ndk1::basic_string<char, std::__ndk1::char_traits<char>, std::__ndk1::allocator<char> >, std::__ndk1::__value_type<std::__ndk1::basic_string<char, std::__ndk1::char_traits<char>, std::__ndk1::allocator<char> >, std::__ndk1::shared_ptr<geode::Hook> >, std::__ndk1::less<std::__ndk1::basic_string<char, std::__ndk1::char_traits<char>, std::__ndk1::allocator<char> > >, true>, std::__ndk1::allocator<std::__ndk1::__value_type<std::__ndk1::basic_string<char, std::__ndk1::char_traits<char>, std::__ndk1::allocator<char> >, std::__ndk1::shared_ptr<geode::Hook> > > >::__emplace_unique_key_args<std::__ndk1::basic_string<char, std::__ndk1::char_traits<char>, std::__ndk1::allocator<char> >, std::__ndk1::piecewise_construct_t const&, std::__ndk1::tuple<std::__ndk1::basic_string<char, std::__ndk1::char_traits<char>, std::__ndk1::allocator<char> >&&>, std::__ndk1::tuple<> >(std::__ndk1::basic_string<char, std::__ndk1::char_traits<char>, std::__ndk1::allocator<char> > const&, std::__ndk1::piecewise_construct_t const&, std::__ndk1::tuple<std::__ndk1::basic_string<char, std::__ndk1::char_traits<char>, std::__ndk1::allocator<char> >&&>, std::__ndk1::tuple<>)
PUBLIC 23d6c 0 std::__ndk1::__tree_balance_after_insert[abi:ne180000]<std::__ndk1::__tree_node_base<void*>*>(std::__ndk1::__tree_node_base<void*>*, std::__ndk1::__tree_node_base<void*>*)
PUBLIC 23f1c 0 geode::addresser::Addresser::addressOfVirtual<void, MenuLayer, cocos2d::enumKeyCodes>(void (MenuLayer::*)(cocos2d::enumKeyCodes))
PUBLIC 24008 0 NinjaSwipeLayer::init()
PUBLIC 24950 0 NinjaSwipeLayer::exitGameplay(cocos2d::CCObject*)
PUBLIC 24b2c 0 NinjaSwipeLayer::updateComboShit()
PUBLIC 24f04 0 NinjaSwipeLayer::ccTouchBegan(cocos2d::CCTouch*, cocos2d::CCEvent*)
PUBLIC 24f88 0 {virtual override thunk({offset(-320)}, NinjaSwipeLayer::ccTouchBegan(cocos2d::CCTouch*, cocos2d::CCEvent*))}
PUBLIC 2500c 0 NinjaSwipeLayer::ccTouchMoved(cocos2d::CCTouch*, cocos2d::CCEvent*)
PUBLIC 250dc 0 NinjaSwipeLayer::checkSwipeIntersection(cocos2d::CCPoint const&, cocos2d::CCPoint const&)
PUBLIC 25b54 0 {virtual override thunk({offset(-320)}, NinjaSwipeLayer::ccTouchMoved(cocos2d::CCTouch*, cocos2d::CCEvent*))}
PUBLIC 25b5c 0 NinjaSwipeLayer::ccTouchEnded(cocos2d::CCTouch*, cocos2d::CCEvent*)
PUBLIC 25be4 0 {virtual override thunk({offset(-320)}, NinjaSwipeLayer::ccTouchEnded(cocos2d::CCTouch*, cocos2d::CCEvent*))}
PUBLIC 25c70 0 geode::Mod::getSettingValue<double>(std::__ndk1::basic_string_view<char, std::__ndk1::char_traits<char> >) const
PUBLIC 25da0 0 NinjaSwipeLayer::update(float)
PUBLIC 2650c 0 NinjaSwipeLayer::resetCombo()
PUBLIC 266f4 0 geodeExecFunction557<(anonymous namespace)::ExecFuncUnique557>(geode::ModStateEvent*)
PUBLIC 267b8 0 NinjaSwipeLayer::~NinjaSwipeLayer()
PUBLIC 26818 0 NinjaSwipeLayer::~NinjaSwipeLayer()
PUBLIC 2687c 0 {virtual override thunk({offset(-320)}, NinjaSwipeLayer::~NinjaSwipeLayer())}
PUBLIC 268dc 0 {virtual override thunk({offset(-320)}, NinjaSwipeLayer::~NinjaSwipeLayer())}
PUBLIC 26944 0 std::__ndk1::vector<MenuIcon*, std::__ndk1::allocator<MenuIcon*> >::__throw_length_error[abi:ne180000]() const
PUBLIC 26958 0 geode::cocos::CallFuncExtImpl<NinjaSwipeLayer::killPlayer(MenuIcon*)::$_0>::~CallFuncExtImpl()
PUBLIC 2697c 0 geode::cocos::CallFuncExtImpl<NinjaSwipeLayer::killPlayer(MenuIcon*)::$_0>::update(float)
PUBLIC 26c8c 0 geode::cocos::CallFuncExtImpl<NinjaSwipeLayer::update(float)::$_0>::~CallFuncExtImpl()
PUBLIC 26cb0 0 geode::cocos::CallFuncExtImpl<NinjaSwipeLayer::update(float)::$_0>::update(float)
PUBLIC 27770 0 geode::cocos::CallFuncExtImpl<NinjaSwipeLayer::spawnPlayers()::$_0>::~CallFuncExtImpl()
PUBLIC 27794 0 geode::cocos::CallFuncExtImpl<NinjaSwipeLayer::spawnPlayers()::$_0>::update(float)
PUBLIC 27970 0 geode::cocos::CallFuncExtImpl<NinjaSwipeLayer::spawnPlayers()::$_1>::~CallFuncExtImpl()
PUBLIC 27994 0 geode::cocos::CallFuncExtImpl<NinjaSwipeLayer::spawnPlayers()::$_1>::update(float)
PUBLIC 279a0 0 geode::impl::ResultData<matjson::Value&, std::__ndk1::basic_string<char, std::__ndk1::char_traits<char>, std::__ndk1::allocator<char> > >::~ResultData()
PUBLIC 27a14 0 matjson::Value::as<int>() const
PUBLIC 27b1c 0 std::__ndk1::__variant_detail::__visitation::__base::__dispatcher<(unsigned long)0>::__dispatch[abi:ne180000]<std::__ndk1::__variant_detail::__dtor<std::__ndk1::__variant_detail::__traits<long, std::__ndk1::basic_string<char, std::__ndk1::char_traits<char>, std::__ndk1::allocator<char> > >, (std::__ndk1::__variant_detail::_Trait)1>::__destroy[abi:ne180000]()::{lambda(auto:1&)#1}, std::__ndk1::__variant_detail::__base<(std::__ndk1::__variant_detail::__traits<long, std::__ndk1::basic_string<char, std::__ndk1::char_traits<char>, std::__ndk1::allocator<char> > >)1, long, std::__ndk1::allocator<char> >&>(std::__ndk1::__variant_detail::__dtor<std::__ndk1::__variant_detail::__traits<long, std::__ndk1::basic_string<char, std::__ndk1::char_traits<char>, std::__ndk1::allocator<char> > >, (std::__ndk1::__variant_detail::_Trait)1>, std::__ndk1::__variant_detail::__base<(std::__ndk1::__variant_detail::__traits<long, std::__ndk1::basic_string<char, std::__ndk1::char_traits<char>, std::__ndk1::allocator<char> > >)1, long, std::__ndk1::allocator<char> >&)
PUBLIC 27b20 0 std::__ndk1::__variant_detail::__visitation::__base::__dispatcher<(unsigned long)1>::__dispatch[abi:ne180000]<std::__ndk1::__variant_detail::__dtor<std::__ndk1::__variant_detail::__traits<long, std::__ndk1::basic_string<char, std::__ndk1::char_traits<char>, std::__ndk1::allocator<char> > >, (std::__ndk1::__variant_detail::_Trait)1>::__destroy[abi:ne180000]()::{lambda(auto:1&)#1}, std::__ndk1::__variant_detail::__base<(std::__ndk1::__variant_detail::__traits<long, std::__ndk1::basic_string<char, std::__ndk1::char_traits<char>, std::__ndk1::allocator<char> > >)1, long, std::__ndk1::allocator<char> >&>(std::__ndk1::__variant_detail::__dtor<std::__ndk1::__variant_detail::__traits<long, std::__ndk1::basic_string<char, std::__ndk1::char_traits<char>, std::__ndk1::allocator<char> > >, (std::__ndk1::__variant_detail::_Trait)1>, std::__ndk1::__variant_detail::__base<(std::__ndk1::__variant_detail::__traits<long, std::__ndk1::basic_string<char, std::__ndk1::char_traits<char>, std::__ndk1::allocator<char> > >)1, long, std::__ndk1::allocator<char> >&)
PUBLIC 27b34 0 std::__ndk1::__variant_detail::__visitation::__base::__dispatcher<(unsigned long)0>::__dispatch[abi:ne180000]<std::__ndk1::__variant_detail::__dtor<std::__ndk1::__variant_detail::__traits<std::__ndk1::reference_wrapper<matjson::Value>, std::__ndk1::basic_string<char, std::__ndk1::char_traits<char>, std::__ndk1::allocator<char> > >, (std::__ndk1::__variant_detail::_Trait)1>::__destroy[abi:ne180000]()::{lambda(auto:1&)#1}, std::__ndk1::__variant_detail::__base<(std::__ndk1::__variant_detail::__traits<std::__ndk1::reference_wrapper<matjson::Value>, std::__ndk1::basic_string<char, std::__ndk1::char_traits<char>, std::__ndk1::allocator<char> > >)1, matjson::Value, std::__ndk1::allocator<char> >&>(std::__ndk1::__variant_detail::__dtor<std::__ndk1::__variant_detail::__traits<std::__ndk1::reference_wrapper<matjson::Value>, std::__ndk1::basic_string<char, std::__ndk1::char_traits<char>, std::__ndk1::allocator<char> > >, (std::__ndk1::__variant_detail::_Trait)1>, std::__ndk1::__variant_detail::__base<(std::__ndk1::__variant_detail::__traits<std::__ndk1::reference_wrapper<matjson::Value>, std::__ndk1::basic_string<char, std::__ndk1::char_traits<char>, std::__ndk1::allocator<char> > >)1, matjson::Value, std::__ndk1::allocator<char> >&)
PUBLIC 27b38 0 std::__ndk1::__variant_detail::__visitation::__base::__dispatcher<(unsigned long)1>::__dispatch[abi:ne180000]<std::__ndk1::__variant_detail::__dtor<std::__ndk1::__variant_detail::__traits<std::__ndk1::reference_wrapper<matjson::Value>, std::__ndk1::basic_string<char, std::__ndk1::char_traits<char>, std::__ndk1::allocator<char> > >, (std::__ndk1::__variant_detail::_Trait)1>::__destroy[abi:ne180000]()::{lambda(auto:1&)#1}, std::__ndk1::__variant_detail::__base<(std::__ndk1::__variant_detail::__traits<std::__ndk1::reference_wrapper<matjson::Value>, std::__ndk1::basic_string<char, std::__ndk1::char_traits<char>, std::__ndk1::allocator<char> > >)1, matjson::Value, std::__ndk1::allocator<char> >&>(std::__ndk1::__variant_detail::__dtor<std::__ndk1::__variant_detail::__traits<std::__ndk1::reference_wrapper<matjson::Value>, std::__ndk1::basic_string<char, std::__ndk1::char_traits<char>, std::__ndk1::allocator<char> > >, (std::__ndk1::__variant_detail::_Trait)1>, std::__ndk1::__variant_detail::__base<(std::__ndk1::__variant_detail::__traits<std::__ndk1::reference_wrapper<matjson::Value>, std::__ndk1::basic_string<char, std::__ndk1::char_traits<char>, std::__ndk1::allocator<char> > >)1, matjson::Value, std::__ndk1::allocator<char> >&)
PUBLIC 27b4c 0 std::__ndk1::__variant_detail::__visitation::__base::__dispatcher<(unsigned long)0>::__dispatch[abi:ne180000]<std::__ndk1::__variant_detail::__dtor<std::__ndk1::__variant_detail::__traits<int, std::__ndk1::basic_string<char, std::__ndk1::char_traits<char>, std::__ndk1::allocator<char> > >, (std::__ndk1::__variant_detail::_Trait)1>::__destroy[abi:ne180000]()::{lambda(auto:1&)#1}, std::__ndk1::__variant_detail::__base<(std::__ndk1::__variant_detail::__traits<int, std::__ndk1::basic_string<char, std::__ndk1::char_traits<char>, std::__ndk1::allocator<char> > >)1, int, std::__ndk1::allocator<char> >&>(std::__ndk1::__variant_detail::__dtor<std::__ndk1::__variant_detail::__traits<int, std::__ndk1::basic_string<char, std::__ndk1::char_traits<char>, std::__ndk1::allocator<char> > >, (std::__ndk1::__variant_detail::_Trait)1>, std::__ndk1::__variant_detail::__base<(std::__ndk1::__variant_detail::__traits<int, std::__ndk1::basic_string<char, std::__ndk1::char_traits<char>, std::__ndk1::allocator<char> > >)1, int, std::__ndk1::allocator<char> >&)
PUBLIC 27b50 0 std::__ndk1::__variant_detail::__visitation::__base::__dispatcher<(unsigned long)1>::__dispatch[abi:ne180000]<std::__ndk1::__variant_detail::__dtor<std::__ndk1::__variant_detail::__traits<int, std::__ndk1::basic_string<char, std::__ndk1::char_traits<char>, std::__ndk1::allocator<char> > >, (std::__ndk1::__variant_detail::_Trait)1>::__destroy[abi:ne180000]()::{lambda(auto:1&)#1}, std::__ndk1::__variant_detail::__base<(std::__ndk1::__variant_detail::__traits<int, std::__ndk1::basic_string<char, std::__ndk1::char_traits<char>, std::__ndk1::allocator<char> > >)1, int, std::__ndk1::allocator<char> >&>(std::__ndk1::__variant_detail::__dtor<std::__ndk1::__variant_detail::__traits<int, std::__ndk1::basic_string<char, std::__ndk1::char_traits<char>, std::__ndk1::allocator<char> > >, (std::__ndk1::__variant_detail::_Trait)1>, std::__ndk1::__variant_detail::__base<(std::__ndk1::__variant_detail::__traits<int, std::__ndk1::basic_string<char, std::__ndk1::char_traits<char>, std::__ndk1::allocator<char> > >)1, int, std::__ndk1::allocator<char> >&)
PUBLIC 27b64 0 std::__ndk1::uniform_int_distribution<int>::operator()<std::__ndk1::mersenne_twister_engine<unsigned long, (unsigned long)32, (unsigned long)624, (unsigned long)397, (unsigned long)31, (unsigned long)2567483615, (unsigned long)11, (unsigned long)4294967295, (unsigned long)7, (unsigned long)2636928640, (unsigned long)15, (unsigned long)4022730752, (unsigned long)18, (unsigned long)1812433253> >(std::__ndk1::mersenne_twister_engine<unsigned long, (unsigned long)32, (unsigned long)624, (unsigned long)397, (unsigned long)31, (unsigned long)2567483615, (unsigned long)11, (unsigned long)4294967295, (unsigned long)7, (unsigned long)2636928640, (unsigned long)15, (unsigned long)4022730752, (unsigned long)18, (unsigned long)1812433253>&, std::__ndk1::uniform_int_distribution<int>::param_type const&)
PUBLIC 27cbc 0 std::__ndk1::__independent_bits_engine<std::__ndk1::mersenne_twister_engine<unsigned long, (unsigned long)32, (unsigned long)624, (unsigned long)397, (unsigned long)31, (unsigned long)2567483615, (unsigned long)11, (unsigned long)4294967295, (unsigned long)7, (unsigned long)2636928640, (unsigned long)15, (unsigned long)4022730752, (unsigned long)18, (unsigned long)1812433253>, unsigned int>::__eval(std::__ndk1::integral_constant<bool, true>)
PUBLIC 27ebc 0 geode::EventListener<geode::ModStateFilter>::getPool() const
PUBLIC 27ec0 0 geode::EventListener<geode::ModStateFilter>::handle(geode::Event*)
PUBLIC 28034 0 geode::EventListener<geode::ModStateFilter>::~EventListener()
PUBLIC 28090 0 geode::EventListener<geode::ModStateFilter>::~EventListener()
PUBLIC 280f4 0 std::__ndk1::__function::__base<void (geode::ModStateEvent*)>::~__base()
PUBLIC 280f8 0 std::__ndk1::__function::__func<void (*)(geode::ModStateEvent*), std::__ndk1::allocator<void (*)(geode::ModStateEvent*)>, void (geode::ModStateEvent*)>::~__func()
PUBLIC 280fc 0 std::__ndk1::__function::__func<void (*)(geode::ModStateEvent*), std::__ndk1::allocator<void (*)(geode::ModStateEvent*)>, void (geode::ModStateEvent*)>::__clone() const
PUBLIC 28130 0 std::__ndk1::__function::__func<void (*)(geode::ModStateEvent*), std::__ndk1::allocator<void (*)(geode::ModStateEvent*)>, void (geode::ModStateEvent*)>::__clone(std::__ndk1::__function::__base<void (geode::ModStateEvent*)>*) const
PUBLIC 28144 0 std::__ndk1::__function::__func<void (*)(geode::ModStateEvent*), std::__ndk1::allocator<void (*)(geode::ModStateEvent*)>, void (geode::ModStateEvent*)>::destroy()
PUBLIC 28148 0 std::__ndk1::__function::__func<void (*)(geode::ModStateEvent*), std::__ndk1::allocator<void (*)(geode::ModStateEvent*)>, void (geode::ModStateEvent*)>::destroy_deallocate()
PUBLIC 2814c 0 std::__ndk1::__function::__func<void (*)(geode::ModStateEvent*), std::__ndk1::allocator<void (*)(geode::ModStateEvent*)>, void (geode::ModStateEvent*)>::operator()(geode::ModStateEvent*&&)
PUBLIC 2815c 0 std::__ndk1::__function::__func<void (*)(geode::ModStateEvent*), std::__ndk1::allocator<void (*)(geode::ModStateEvent*)>, void (geode::ModStateEvent*)>::target(std::type_info const&) const
PUBLIC 28178 0 std::__ndk1::__function::__func<void (*)(geode::ModStateEvent*), std::__ndk1::allocator<void (*)(geode::ModStateEvent*)>, void (geode::ModStateEvent*)>::target_type() const
PUBLIC 28184 0 _GLOBAL__sub_I_NinjaSwipeLayer.cpp
PUBLIC 282b0 0 Swipe::create(cocos2d::CCTexture2D*)
PUBLIC 28374 0 Swipe::update(float)
PUBLIC 286c4 0 Swipe::draw()
PUBLIC 29390 0 Swipe::addPoint(cocos2d::CCPoint)
PUBLIC 29580 0 Swipe::~Swipe()
PUBLIC 295c0 0 Swipe::~Swipe()
PUBLIC 29604 0 std::__ndk1::vector<SwipePoint*, std::__ndk1::allocator<SwipePoint*> >::__throw_length_error[abi:ne180000]() const
PUBLIC 29618 0 std::__ndk1::vector<cocos2d::CCPoint, std::__ndk1::allocator<cocos2d::CCPoint> >::__throw_length_error[abi:ne180000]() const
PUBLIC 2962c 0 __cxx_global_var_init
PUBLIC 29aac 0 geode::modifier::ModifyBase<geode::modifier::ModifyDerive<HookedCCAnimatedSprite, CCAnimatedSprite> >::~ModifyBase()
PUBLIC 29ac8 0 geode::modifier::ModifyDerive<HookedCCAnimatedSprite, CCAnimatedSprite>::apply()
PUBLIC 29e60 0 geode::modifier::ModifyBase<geode::modifier::ModifyDerive<HookedCCAnimatedSprite, CCAnimatedSprite> >::apply()
PUBLIC 29e64 0 geode::modifier::AsStaticFunction_runAnimation<HookedCCAnimatedSprite, void (HookedCCAnimatedSprite::*)(gd::string)>::Impl<void (HookedCCAnimatedSprite::*)(gd::string)>::function(HookedCCAnimatedSprite*, gd::string)
PUBLIC 2a158 0 fmt::v11::detail::value<fmt::v11::context>::format_custom_arg<gd::string, fmt::v11::formatter<gd::string, char, void> >(void*, fmt::v11::basic_format_parse_context<char>&, fmt::v11::context&)
PUBLIC 2a32c 0 fmt::v11::detail::parse_format_specs<char>(char const*, char const*, fmt::v11::detail::dynamic_format_specs<char>&, fmt::v11::basic_format_parse_context<char>&, fmt::v11::detail::type)
PUBLIC 2a7e0 0 fmt::v11::detail::parse_dynamic_spec<char>(char const*, char const*, int&, fmt::v11::detail::arg_ref<char>&, fmt::v11::basic_format_parse_context<char>&)
PUBLIC 2a984 0 fmt::v11::detail::do_parse_arg_id<char, fmt::v11::detail::dynamic_spec_id_handler<char>&>(char const*, char const*, fmt::v11::detail::dynamic_spec_id_handler<char>&)
PUBLIC 2ab18 0 fmt::v11::detail::handle_dynamic_spec<fmt::v11::detail::width_checker, fmt::v11::context>(int&, fmt::v11::detail::arg_ref<fmt::v11::context::char_type>, fmt::v11::context&)
PUBLIC 2ac2c 0 fmt::v11::detail::handle_dynamic_spec<fmt::v11::detail::precision_checker, fmt::v11::context>(int&, fmt::v11::detail::arg_ref<fmt::v11::context::char_type>, fmt::v11::context&)
PUBLIC 2ad40 0 fmt::v11::detail::write<char, fmt::v11::basic_appender<char> >(fmt::v11::basic_appender<char>, fmt::v11::basic_string_view<char>, fmt::v11::format_specs const&)
PUBLIC 2afbc 0 fmt::v11::detail::write_escaped_string<char, fmt::v11::detail::counting_iterator>(fmt::v11::detail::counting_iterator, fmt::v11::basic_string_view<char>)
PUBLIC 2b4dc 0 fmt::v11::detail::write_padded<char, (fmt::v11::align::type)1, fmt::v11::basic_appender<char>, fmt::v11::detail::write<char, fmt::v11::basic_appender<char> >(fmt::v11::basic_appender<char>, fmt::v11::basic_string_view<char>, fmt::v11::format_specs const&)::{lambda(fmt::v11::basic_appender<char>)#1}>(fmt::v11::basic_appender<char>, fmt::v11::format_specs const&, unsigned long, unsigned long, fmt::v11::detail::write<char, fmt::v11::basic_appender<char> >(fmt::v11::basic_appender<char>, fmt::v11::basic_string_view<char>, fmt::v11::format_specs const&)::{lambda(fmt::v11::basic_appender<char>&&)#1})
PUBLIC 2b6e8 0 fmt::v11::detail::for_each_codepoint<fmt::v11::detail::code_point_index(fmt::v11::basic_string_view<char>, unsigned long)::{lambda(unsigned int, fmt::v11::basic_string_view<char>)#1}>(fmt::v11::basic_string_view<char>, fmt::v11::detail::code_point_index(fmt::v11::basic_string_view<char>, unsigned long)::{lambda(unsigned int, fmt::v11::basic_string_view<char>)#1})
PUBLIC 2bb10 0 fmt::v11::detail::write_escaped_cp<fmt::v11::detail::counting_iterator, char>(fmt::v11::detail::counting_iterator, fmt::v11::detail::find_escape_result<char> const&)
PUBLIC 2bca4 0 fmt::v11::detail::for_each_codepoint<fmt::v11::detail::compute_width(fmt::v11::basic_string_view<char>)::count_code_points>(fmt::v11::basic_string_view<char>, fmt::v11::detail::compute_width(fmt::v11::basic_string_view<char>)::count_code_points)::{lambda(char const*, char const*)#1}::operator()(char const*, char const*) const
PUBLIC 2be5c 0 fmt::v11::detail::fill<char, fmt::v11::basic_appender<char> >(fmt::v11::basic_appender<char>, unsigned long, fmt::v11::detail::fill_t const&)
PUBLIC 2c02c 0 fmt::v11::detail::write_escaped_string<char, fmt::v11::basic_appender<char> >(fmt::v11::basic_appender<char>, fmt::v11::basic_string_view<char>)
PUBLIC 2c6a8 0 fmt::v11::detail::write_escaped_cp<fmt::v11::basic_appender<char>, char>(fmt::v11::basic_appender<char>, fmt::v11::detail::find_escape_result<char> const&)
PUBLIC 2c88c 0 fmt::v11::detail::write_codepoint<(unsigned long)2, char, fmt::v11::basic_appender<char> >(fmt::v11::basic_appender<char>, char, unsigned int)
PUBLIC 2ca04 0 fmt::v11::detail::write_codepoint<(unsigned long)4, char, fmt::v11::basic_appender<char> >(fmt::v11::basic_appender<char>, char, unsigned int)
PUBLIC 2cb7c 0 fmt::v11::detail::write_codepoint<(unsigned long)8, char, fmt::v11::basic_appender<char> >(fmt::v11::basic_appender<char>, char, unsigned int)
PUBLIC 2ccf4 0 fmt::v11::detail::get_dynamic_spec<fmt::v11::detail::width_checker, fmt::v11::basic_format_arg<fmt::v11::context> >(fmt::v11::basic_format_arg<fmt::v11::context>)
PUBLIC 2cd88 0 fmt::v11::basic_format_args<fmt::v11::context>::get<char>(fmt::v11::basic_string_view<char>) const
PUBLIC 2cee0 0 fmt::v11::detail::get_dynamic_spec<fmt::v11::detail::precision_checker, fmt::v11::basic_format_arg<fmt::v11::context> >(fmt::v11::basic_format_arg<fmt::v11::context>)
PUBLIC 2cf74 0 __cxx_global_var_init
PUBLIC 2cfd4 0 geode::modifier::ModifyBase<geode::modifier::ModifyDerive<HookedMenuGameLayer, MenuGameLayer> >::~ModifyBase()
PUBLIC 2cff0 0 geode::modifier::ModifyBase<geode::modifier::ModifyDerive<HookedMenuGameLayer, MenuGameLayer> >::ModifyBase()
PUBLIC 2d3ec 0 geode::modifier::ModifyDerive<HookedMenuGameLayer, MenuGameLayer>::apply()
PUBLIC 2d840 0 geode::modifier::ModifyBase<geode::modifier::ModifyDerive<HookedMenuGameLayer, MenuGameLayer> >::apply()
PUBLIC 2d844 0 geode::Hook::create<void (*)(HookedMenuGameLayer*, float)>(void*, void (*)(HookedMenuGameLayer*, float), std::__ndk1::basic_string<char, std::__ndk1::char_traits<char>, std::__ndk1::allocator<char> > const&, tulip::hook::TulipConvention, tulip::hook::HookMetadata const&)
PUBLIC 2d9c8 0 geode::modifier::AsStaticFunction_update<HookedMenuGameLayer, void (HookedMenuGameLayer::*)(float)>::Impl<void (HookedMenuGameLayer::*)(float)>::function(HookedMenuGameLayer*, float)
PUBLIC 2da34 0 geode::Hook::create<bool (*)(HookedMenuGameLayer*)>(void*, bool (*)(HookedMenuGameLayer*), std::__ndk1::basic_string<char, std::__ndk1::char_traits<char>, std::__ndk1::allocator<char> > const&, tulip::hook::TulipConvention, tulip::hook::HookMetadata const&)
PUBLIC 2db68 0 geode::modifier::AsStaticFunction_init<HookedMenuGameLayer, bool (HookedMenuGameLayer::*)()>::Impl<bool (HookedMenuGameLayer::*)()>::function(HookedMenuGameLayer*)
PUBLIC 2dbc8 0 geode::addresser::Addresser::addressOfVirtual<void, MenuGameLayer, float>(void (MenuGameLayer::*)(float))
PUBLIC 2dcb4 0 MenuGameLayer::MenuGameLayer(geode::ZeroConstructorType)
PUBLIC 2dd4c 0 geode::addresser::Addresser::addressOfVirtual<bool, MenuGameLayer, >(bool (MenuGameLayer::*)())
PUBLIC 2de38 0 HookedMenuLayer::init()
PUBLIC 2e330 0 geode::cocos::CCArrayExt<cocos2d::CCNode*, cocos2d::CCNode>::~CCArrayExt()
PUBLIC 2e34c 0 std::__ndk1::array<std::__ndk1::basic_string<char, std::__ndk1::char_traits<char>, std::__ndk1::allocator<char> >, (unsigned long)5>::~array()
PUBLIC 2e3e0 0 HookedMenuLayer::runEnterGameplayAnimations()
PUBLIC 2e734 0 HookedMenuLayer::runExitGameplayAnimations()
PUBLIC 2e834 0 HookedMenuLayer::onModify<geode::modifier::ModifyBase<geode::modifier::ModifyDerive<HookedMenuLayer, MenuLayer> > >(geode::modifier::ModifyBase<geode::modifier::ModifyDerive<HookedMenuLayer, MenuLayer> >&)
PUBLIC 2e9b8 0 geode::modifier::ModifyBase<geode::modifier::ModifyDerive<HookedMenuLayer, MenuLayer> >::setHookPriority(std::__ndk1::basic_string_view<char, std::__ndk1::char_traits<char> >, int)
PUBLIC 2eb28 0 geode::modifier::ModifyBase<geode::modifier::ModifyDerive<HookedMenuLayer, MenuLayer> >::getHook(std::__ndk1::basic_string_view<char, std::__ndk1::char_traits<char> >)
PUBLIC 2ee14 0 std::__ndk1::unique_ptr<std::__ndk1::__tree_node<std::__ndk1::__value_type<std::__ndk1::basic_string<char, std::__ndk1::char_traits<char>, std::__ndk1::allocator<char> >, std::__ndk1::shared_ptr<geode::Hook> >, void*>, std::__ndk1::__tree_node_destructor<std::__ndk1::allocator<std::__ndk1::__tree_node<std::__ndk1::__value_type<std::__ndk1::basic_string<char, std::__ndk1::char_traits<char>, std::__ndk1::allocator<char> >, std::__ndk1::shared_ptr<geode::Hook> >, void*> > > >::~unique_ptr[abi:ne180000]()
PUBLIC 2ee90 0 _ZN5geode15UnwrapExceptionC2IRNSt6__ndk112basic_stringIcNS2_11char_traitsIcEENS2_9allocatorIcEEEEQsr4implE18IsStringStreamableIT_EEENS_4impl6ErrTagEOSA_
PUBLIC 2eff8 0 std::__ndk1::__variant_detail::__visitation::__base::__dispatcher<(unsigned long)0>::__dispatch[abi:ne180000]<std::__ndk1::__variant_detail::__dtor<std::__ndk1::__variant_detail::__traits<std::__ndk1::monostate, std::__ndk1::basic_string<char, std::__ndk1::char_traits<char>, std::__ndk1::allocator<char> > >, (std::__ndk1::__variant_detail::_Trait)1>::__destroy[abi:ne180000]()::{lambda(auto:1&)#1}, std::__ndk1::__variant_detail::__base<(std::__ndk1::__variant_detail::__traits<std::__ndk1::monostate, std::__ndk1::basic_string<char, std::__ndk1::char_traits<char>, std::__ndk1::allocator<char> > >)1, std::__ndk1::__variant_detail::__traits, std::__ndk1::allocator<char> >&>(std::__ndk1::__variant_detail::__dtor<std::__ndk1::__variant_detail::__traits<std::__ndk1::monostate, std::__ndk1::basic_string<char, std::__ndk1::char_traits<char>, std::__ndk1::allocator<char> > >, (std::__ndk1::__variant_detail::_Trait)1>, std::__ndk1::__variant_detail::__base<(std::__ndk1::__variant_detail::__traits<std::__ndk1::monostate, std::__ndk1::basic_string<char, std::__ndk1::char_traits<char>, std::__ndk1::allocator<char> > >)1, std::__ndk1::__variant_detail::__traits, std::__ndk1::allocator<char> >&)
PUBLIC 2effc 0 std::__ndk1::__variant_detail::__visitation::__base::__dispatcher<(unsigned long)1>::__dispatch[abi:ne180000]<std::__ndk1::__variant_detail::__dtor<std::__ndk1::__variant_detail::__traits<std::__ndk1::monostate, std::__ndk1::basic_string<char, std::__ndk1::char_traits<char>, std::__ndk1::allocator<char> > >, (std::__ndk1::__variant_detail::_Trait)1>::__destroy[abi:ne180000]()::{lambda(auto:1&)#1}, std::__ndk1::__variant_detail::__base<(std::__ndk1::__variant_detail::__traits<std::__ndk1::monostate, std::__ndk1::basic_string<char, std::__ndk1::char_traits<char>, std::__ndk1::allocator<char> > >)1, std::__ndk1::__variant_detail::__traits, std::__ndk1::allocator<char> >&>(std::__ndk1::__variant_detail::__dtor<std::__ndk1::__variant_detail::__traits<std::__ndk1::monostate, std::__ndk1::basic_string<char, std::__ndk1::char_traits<char>, std::__ndk1::allocator<char> > >, (std::__ndk1::__variant_detail::_Trait)1>, std::__ndk1::__variant_detail::__base<(std::__ndk1::__variant_detail::__traits<std::__ndk1::monostate, std::__ndk1::basic_string<char, std::__ndk1::char_traits<char>, std::__ndk1::allocator<char> > >)1, std::__ndk1::__variant_detail::__traits, std::__ndk1::allocator<char> >&)
PUBLIC 2f010 0 __cxx_global_var_init
PUBLIC 2f490 0 geode::modifier::ModifyBase<geode::modifier::ModifyDerive<HookedPlayerObject, PlayerObject> >::~ModifyBase()
PUBLIC 2f4ac 0 geode::modifier::ModifyDerive<HookedPlayerObject, PlayerObject>::apply()
PUBLIC 2f7ec 0 geode::modifier::ModifyBase<geode::modifier::ModifyDerive<HookedPlayerObject, PlayerObject> >::apply()
PUBLIC 2f7f0 0 geode::modifier::AsStaticFunction_updateSwingFire<HookedPlayerObject, void (HookedPlayerObject::*)()>::Impl<void (HookedPlayerObject::*)()>::function(HookedPlayerObject*)
PUBLIC 2f8dc 0 ninja::random::createRandomPlayerObject()
PUBLIC 2fa84 0 ninja::random::randomisePlayerObject(PlayerObject*)
PUBLIC 2febc 0 known_players::events::NextIconModifyPlayerObject::~NextIconModifyPlayerObject()
PUBLIC 2fee0 0 _GLOBAL__sub_I_random.cpp
PUBLIC m 300c8 0 geodeImplicitEntry
PUBLIC 30104 0 std::__ndk1::unordered_map<void*, bool, std::__ndk1::hash<void*>, std::__ndk1::equal_to<void*>, std::__ndk1::allocator<std::__ndk1::pair<void* const, bool> > >::~unordered_map[abi:ne180000]()
PUBLIC 30150 0 wrapFunction(unsigned long, tulip::hook::WrapperMetadata const&)
PUBLIC 30284 0 geode::impl::ResultData<void*, std::__ndk1::basic_string<char, std::__ndk1::char_traits<char>, std::__ndk1::allocator<char> > >::unwrapErr() &
PUBLIC 302fc 0 geode::impl::ResultData<void*, std::__ndk1::basic_string<char, std::__ndk1::char_traits<char>, std::__ndk1::allocator<char> > >::~ResultData()
PUBLIC 30370 0 tulip::hook::WrapperMetadata::~WrapperMetadata()
PUBLIC 303d4 0 cocos2d::CCObject::~CCObject()
PUBLIC 303f8 0 cocos2d::CCNode::CCNode()
PUBLIC 30654 0 cocos2d::CCNode::~CCNode()
PUBLIC 30678 0 cocos2d::CCNodeRGBA::~CCNodeRGBA()
PUBLIC 3069c 0 cocos2d::CCAction::CCAction()
PUBLIC 308c0 0 cocos2d::CCAction::~CCAction()
PUBLIC 308e4 0 cocos2d::CCActionInstant::CCActionInstant()
PUBLIC 30b10 0 cocos2d::CCAction::~CCAction()
PUBLIC 30d80 0 cocos2d::CCLayer::CCLayer()
PUBLIC 31004 0 {virtual override thunk({offset(-320)}, cocos2d::CCLayer::~CCLayer())}
PUBLIC 3100c 0 cocos2d::CCLayer::~CCLayer()
PUBLIC 31030 0 {virtual override thunk({offset(-320)}, cocos2d::CCLayer::~CCLayer())}
PUBLIC 31058 0 cocos2d::CCLayerRGBA::CCLayerRGBA()
PUBLIC 312e4 0 cocos2d::CCLayerRGBA::~CCLayerRGBA()
PUBLIC 315e4 0 {virtual override thunk({offset(-320)}, cocos2d::CCLayerRGBA::~CCLayerRGBA())}
PUBLIC 315ec 0 cocos2d::CCLayerRGBA::~CCLayerRGBA()
PUBLIC 31610 0 {virtual override thunk({offset(-320)}, cocos2d::CCLayerRGBA::~CCLayerRGBA())}
PUBLIC 31638 0 cocos2d::CCLayerColor::CCLayerColor()
PUBLIC 3189c 0 {virtual override thunk({offset(-320)}, cocos2d::CCLayerColor::~CCLayerColor())}
PUBLIC 318a4 0 cocos2d::CCLayerColor::~CCLayerColor()
PUBLIC 318c8 0 {virtual override thunk({offset(-320)}, cocos2d::CCLayerColor::~CCLayerColor())}
PUBLIC 318f0 0 cocos2d::CCSprite::CCSprite()
PUBLIC 31b50 0 cocos2d::CCSprite::~CCSprite()
PUBLIC 31b74 0 cocos2d::CCNodeRGBA::~CCNodeRGBA()
PUBLIC 31e2c 0 CCAnimatedSprite::runAnimation(gd::string)
PUBLIC 31fa4 0 tulip::hook::AbstractFunction::from<void, CCAnimatedSprite*, gd::string>(void (*)(CCAnimatedSprite*, gd::string))
PUBLIC 32048 0 cocos2d::CCSprite::~CCSprite()
PUBLIC 32308 0 FMODAudioEngine::playEffect(gd::string, float, float, float)
PUBLIC 324a8 0 tulip::hook::AbstractFunction::from<void, FMODAudioEngine*, gd::string, float, float, float>(void (*)(FMODAudioEngine*, gd::string, float, float, float))
PUBLIC 3260c 0 GameToolbox::particleFromString(gd::string const&, cocos2d::CCParticleSystemQuad*, bool)
PUBLIC 3276c 0 tulip::hook::AbstractFunction::from<cocos2d::CCParticleSystemQuad*, gd::string const&, cocos2d::CCParticleSystemQuad*, bool>(cocos2d::CCParticleSystemQuad* (*)(gd::string const&, cocos2d::CCParticleSystemQuad*, bool))
PUBLIC 3286c 0 cocos2d::CCObject::update(float)
PUBLIC 32870 0 cocos2d::CCNodeRGBA::setOpacityModifyRGB(bool)
PUBLIC 32874 0 cocos2d::CCNodeRGBA::isOpacityModifyRGB()
PUBLIC 3287c 0 {virtual override thunk({offset(-320)}, cocos2d::CCNodeRGBA::setOpacityModifyRGB(bool))}
PUBLIC 32880 0 {virtual override thunk({offset(-320)}, cocos2d::CCNodeRGBA::isOpacityModifyRGB())}
PUBLIC 32888 0 cocos2d::CCLayerColor::~CCLayerColor()
PUBLIC 32b6c 0 cocos2d::CCNode::~CCNode()
PUBLIC 32e0c 0 cocos2d::CCLayer::~CCLayer()
PUBLIC 330fc 0 cocos2d::CCObject::~CCObject()
PUBLIC 335f0 0 _ZN5geode15UnwrapExceptionC2IRPvQsr4implE18IsStringStreamableIT_EEENS_4impl5OkTagEOS4_
PUBLIC 33744 0 std::__ndk1::__variant_detail::__visitation::__base::__dispatcher<(unsigned long)0>::__dispatch[abi:ne180000]<std::__ndk1::__variant_detail::__dtor<std::__ndk1::__variant_detail::__traits<void*, std::__ndk1::basic_string<char, std::__ndk1::char_traits<char>, std::__ndk1::allocator<char> > >, (std::__ndk1::__variant_detail::_Trait)1>::__destroy[abi:ne180000]()::{lambda(auto:1&)#1}, std::__ndk1::__variant_detail::__base<(std::__ndk1::__variant_detail::__traits<void*, std::__ndk1::basic_string<char, std::__ndk1::char_traits<char>, std::__ndk1::allocator<char> > >)1, std::__ndk1::__variant_detail::__traits, std::__ndk1::allocator<char> >&>(std::__ndk1::__variant_detail::__dtor<std::__ndk1::__variant_detail::__traits<void*, std::__ndk1::basic_string<char, std::__ndk1::char_traits<char>, std::__ndk1::allocator<char> > >, (std::__ndk1::__variant_detail::_Trait)1>, std::__ndk1::__variant_detail::__base<(std::__ndk1::__variant_detail::__traits<void*, std::__ndk1::basic_string<char, std::__ndk1::char_traits<char>, std::__ndk1::allocator<char> > >)1, std::__ndk1::__variant_detail::__traits, std::__ndk1::allocator<char> >&)
PUBLIC 33748 0 std::__ndk1::__variant_detail::__visitation::__base::__dispatcher<(unsigned long)1>::__dispatch[abi:ne180000]<std::__ndk1::__variant_detail::__dtor<std::__ndk1::__variant_detail::__traits<void*, std::__ndk1::basic_string<char, std::__ndk1::char_traits<char>, std::__ndk1::allocator<char> > >, (std::__ndk1::__variant_detail::_Trait)1>::__destroy[abi:ne180000]()::{lambda(auto:1&)#1}, std::__ndk1::__variant_detail::__base<(std::__ndk1::__variant_detail::__traits<void*, std::__ndk1::basic_string<char, std::__ndk1::char_traits<char>, std::__ndk1::allocator<char> > >)1, std::__ndk1::__variant_detail::__traits, std::__ndk1::allocator<char> >&>(std::__ndk1::__variant_detail::__dtor<std::__ndk1::__variant_detail::__traits<void*, std::__ndk1::basic_string<char, std::__ndk1::char_traits<char>, std::__ndk1::allocator<char> > >, (std::__ndk1::__variant_detail::_Trait)1>, std::__ndk1::__variant_detail::__base<(std::__ndk1::__variant_detail::__traits<void*, std::__ndk1::basic_string<char, std::__ndk1::char_traits<char>, std::__ndk1::allocator<char> > >)1, std::__ndk1::__variant_detail::__traits, std::__ndk1::allocator<char> >&)
PUBLIC 3375c 0 std::__ndk1::__hash_table<std::__ndk1::__hash_value_type<void*, bool>, std::__ndk1::__unordered_map_hasher<void*, std::__ndk1::__hash_value_type<void*, bool>, std::__ndk1::hash<void*>, std::__ndk1::equal_to<void*>, true>, std::__ndk1::__unordered_map_equal<void*, std::__ndk1::__hash_value_type<void*, bool>, std::__ndk1::equal_to<void*>, std::__ndk1::hash<void*>, true>, std::__ndk1::allocator<std::__ndk1::__hash_value_type<void*, bool> > >::__emplace_unique_key_args<void*, std::__ndk1::piecewise_construct_t const&, std::__ndk1::tuple<void* const&>, std::__ndk1::tuple<> >(void* const&, std::__ndk1::piecewise_construct_t const&, std::__ndk1::tuple<void* const&>, std::__ndk1::tuple<>)
PUBLIC 33c68 0 __udivti3
PUBLIC 33c74 0 __udivmodti4
PUBLIC m 33ec0 0 __eqtf2
PUBLIC 33f60 0 __unordtf2
PUBLIC 33f98 0 fmt::v11::detail::write_loc(fmt::v11::basic_appender<char>, fmt::v11::loc_value, fmt::v11::format_specs const&, fmt::v11::detail::locale_ref)
PUBLIC 3422c 0 fmt::v11::format_facet<std::__ndk1::locale>::~format_facet()
PUBLIC 342a8 0 fmt::v11::report_error(char const*)
PUBLIC 342f8 0 fmt::v11::format_error::runtime_error(char const*)
PUBLIC 34324 0 fmt::v11::format_facet<std::__ndk1::locale>::do_put(fmt::v11::basic_appender<char>, fmt::v11::loc_value, fmt::v11::format_specs const&) const
PUBLIC 34ae4 0 fmt::v11::detail::loc_writer<char>::~loc_writer()
PUBLIC 34b48 0 fmt::v11::detail::vformat_to<char>(fmt::v11::detail::buffer<char>&, fmt::v11::basic_string_view<char>, fmt::v11::detail::vformat_args<char>::type, fmt::v11::detail::locale_ref)
PUBLIC 350b8 0 fmt::v11::detail::is_printable(unsigned int)
PUBLIC 352e0 0 fmt::v11::detail::dragonbox::to_decimal<float>(float)
PUBLIC 355bc 0 fmt::v11::detail::dragonbox::to_decimal<double>(double)
PUBLIC 35af8 0 fmt::v11::basic_memory_buffer<char, (unsigned long)500, std::__ndk1::allocator<char> >::grow(fmt::v11::detail::buffer<char>&, unsigned long)
PUBLIC 35b70 0 fmt::v11::format_facet<std::__ndk1::locale>::~format_facet()
PUBLIC 35bfc 0 fmt::v11::format_error::~format_error()
PUBLIC 35c20 0 fmt::v11::detail::copy_noinline<char, char const*, fmt::v11::basic_appender<char> >(char const*, char const*, fmt::v11::basic_appender<char>)
PUBLIC 35d70 0 fmt::v11::detail::default_arg_formatter<char>::operator()<bool>(bool)
PUBLIC 35dd8 0 fmt::v11::detail::default_arg_formatter<char>::operator()<char>(char)
PUBLIC 35e68 0 fmt::v11::detail::default_arg_formatter<char>::operator()<float>(float)
PUBLIC 35f54 0 fmt::v11::detail::default_arg_formatter<char>::operator()<double>(double)
PUBLIC 36040 0 fmt::v11::detail::default_arg_formatter<char>::operator()<char const*>(char const*)
PUBLIC 36088 0 fmt::v11::detail::default_arg_formatter<char>::operator()<void const*>(void const*)
PUBLIC 36120 0 _ZN3fmt3v116detail5writeIcNS0_14basic_appenderIcEEiTnNSt6__ndk19enable_ifIXaaaasr11is_integralIT1_EE5valuentsr3std7is_sameIS7_bEE5valuentsr3std7is_sameIS7_T_EE5valueEiE4typeELi0EEET0_SB_S7_
PUBLIC 36380 0 fmt::v11::detail::copy_noinline<char, char*, fmt::v11::basic_appender<char> >(char*, char*, fmt::v11::basic_appender<char>)
PUBLIC 364d0 0 _ZN3fmt3v116detail5writeIcNS0_14basic_appenderIcEEjTnNSt6__ndk19enable_ifIXaaaasr11is_integralIT1_EE5valuentsr3std7is_sameIS7_bEE5valuentsr3std7is_sameIS7_T_EE5valueEiE4typeELi0EEET0_SB_S7_
PUBLIC 366b0 0 _ZN3fmt3v116detail5writeIcNS0_14basic_appenderIcEExTnNSt6__ndk19enable_ifIXaaaasr11is_integralIT1_EE5valuentsr3std7is_sameIS7_bEE5valuentsr3std7is_sameIS7_T_EE5valueEiE4typeELi0EEET0_SB_S7_
PUBLIC 36934 0 _ZN3fmt3v116detail5writeIcNS0_14basic_appenderIcEEyTnNSt6__ndk19enable_ifIXaaaasr11is_integralIT1_EE5valuentsr3std7is_sameIS7_bEE5valuentsr3std7is_sameIS7_T_EE5valueEiE4typeELi0EEET0_SB_S7_
PUBLIC 36b3c 0 _ZN3fmt3v116detail5writeIcNS0_14basic_appenderIcEEnTnNSt6__ndk19enable_ifIXaaaasr11is_integralIT1_EE5valuentsr3std7is_sameIS7_bEE5valuentsr3std7is_sameIS7_T_EE5valueEiE4typeELi0EEET0_SB_S7_
PUBLIC 36e9c 0 _ZN3fmt3v116detail5writeIcNS0_14basic_appenderIcEEoTnNSt6__ndk19enable_ifIXaaaasr11is_integralIT1_EE5valuentsr3std7is_sameIS7_bEE5valuentsr3std7is_sameIS7_T_EE5valueEiE4typeELi0EEET0_SB_S7_
PUBLIC 371b0 0 _ZN3fmt3v116detail5writeIcNS0_14basic_appenderIcEEbTnNSt6__ndk19enable_ifIXsr3std7is_sameIT1_bEE5valueEiE4typeELi0EEET0_SA_S7_RKNS0_12format_specsENS1_10locale_refE
PUBLIC 37464 0 fmt::v11::detail::write_int_noinline<char, fmt::v11::basic_appender<char>, unsigned int>(fmt::v11::basic_appender<char>, fmt::v11::detail::write_int_arg<unsigned int>, fmt::v11::format_specs const&, fmt::v11::detail::locale_ref)
PUBLIC 38244 0 fmt::v11::detail::write_padded<char, (fmt::v11::align::type)1, fmt::v11::basic_appender<char>, fmt::v11::detail::write_char<char, fmt::v11::basic_appender<char> >(fmt::v11::basic_appender<char>, char, fmt::v11::format_specs const&)::{lambda(fmt::v11::basic_appender<char>&)#1}>(fmt::v11::basic_appender<char>, fmt::v11::format_specs const&, unsigned long, unsigned long, fmt::v11::detail::write_char<char, fmt::v11::basic_appender<char> >(fmt::v11::basic_appender<char>, char, fmt::v11::format_specs const&)::{lambda(fmt::v11::basic_appender<char>&)#1})
PUBLIC 384a8 0 fmt::v11::detail::write_padded<char, (fmt::v11::align::type)1, fmt::v11::basic_appender<char>, fmt::v11::detail::write_nonfinite<char, fmt::v11::basic_appender<char> >(fmt::v11::basic_appender<char>, bool, fmt::v11::format_specs, fmt::v11::sign::type)::{lambda(fmt::v11::basic_appender<char>&)#1}>(fmt::v11::basic_appender<char>, fmt::v11::format_specs const&, unsigned long, unsigned long, fmt::v11::detail::write_nonfinite<char, fmt::v11::basic_appender<char> >(fmt::v11::basic_appender<char>, bool, fmt::v11::format_specs, fmt::v11::sign::type)::{lambda(fmt::v11::basic_appender<char>&)#1})
PUBLIC 38700 0 fmt::v11::detail::do_write_float<char, fmt::v11::basic_appender<char>, fmt::v11::detail::dragonbox::decimal_fp<float>, fmt::v11::detail::digit_grouping<char> >(fmt::v11::basic_appender<char>, fmt::v11::detail::dragonbox::decimal_fp<float> const&, fmt::v11::format_specs const&, fmt::v11::detail::float_specs, fmt::v11::detail::locale_ref)
PUBLIC 39384 0 fmt::v11::detail::do_write_float<char, fmt::v11::basic_appender<char>, fmt::v11::detail::dragonbox::decimal_fp<float>, fmt::v11::detail::digit_grouping<char> >(fmt::v11::basic_appender<char>, fmt::v11::detail::dragonbox::decimal_fp<float> const&, fmt::v11::format_specs const&, fmt::v11::detail::float_specs, fmt::v11::detail::locale_ref)::{lambda(fmt::v11::basic_appender<char>(fmt::v11::basic_appender<char>))#1}::operator() const
PUBLIC 394d8 0 fmt::v11::detail::digit_grouping<char>::digit_grouping(fmt::v11::detail::locale_ref, bool)
PUBLIC 39744 0 fmt::v11::detail::digit_grouping<char>::~digit_grouping()
PUBLIC 39788 0 fmt::v11::detail::write_exponent<char, fmt::v11::basic_appender<char> >(int, fmt::v11::basic_appender<char>)
PUBLIC 39958 0 _ZN3fmt3v116detail17write_significandIcjTnNSt6__ndk19enable_ifIXsr3std11is_integralIT0_EE5valueEiE4typeELi0EEEPT_S9_S5_iiS8_
PUBLIC 39ad4 0 std::__ndk1::basic_string<char, std::__ndk1::char_traits<char>, std::__ndk1::allocator<char> >::__assign_no_alias<true>(char const*, unsigned long)
PUBLIC 39b80 0 std::__ndk1::basic_string<char, std::__ndk1::char_traits<char>, std::__ndk1::allocator<char> >::__assign_no_alias<false>(char const*, unsigned long)
PUBLIC 39c90 0 fmt::v11::detail::digit_grouping<char>::apply<fmt::v11::basic_appender<char>, char>(fmt::v11::basic_appender<char>, fmt::v11::basic_string_view<char>) const
PUBLIC 3a048 0 fmt::v11::basic_memory_buffer<int, (unsigned long)500, std::__ndk1::allocator<int> >::grow(fmt::v11::detail::buffer<int>&, unsigned long)
PUBLIC 3a0e8 0 fmt::v11::detail::do_write_float<char, fmt::v11::basic_appender<char>, fmt::v11::detail::dragonbox::decimal_fp<double>, fmt::v11::detail::digit_grouping<char> >(fmt::v11::basic_appender<char>, fmt::v11::detail::dragonbox::decimal_fp<double> const&, fmt::v11::format_specs const&, fmt::v11::detail::float_specs, fmt::v11::detail::locale_ref)
PUBLIC 3ada8 0 fmt::v11::detail::do_write_float<char, fmt::v11::basic_appender<char>, fmt::v11::detail::dragonbox::decimal_fp<double>, fmt::v11::detail::digit_grouping<char> >(fmt::v11::basic_appender<char>, fmt::v11::detail::dragonbox::decimal_fp<double> const&, fmt::v11::format_specs const&, fmt::v11::detail::float_specs, fmt::v11::detail::locale_ref)::{lambda(fmt::v11::basic_appender<char>(fmt::v11::basic_appender<char>))#1}::operator() const
PUBLIC 3af00 0 _ZN3fmt3v116detail17write_significandIcmTnNSt6__ndk19enable_ifIXsr3std11is_integralIT0_EE5valueEiE4typeELi0EEEPT_S9_S5_iiS8_
PUBLIC 3b090 0 fmt::v11::detail::write_float<char, fmt::v11::basic_appender<char>, long double>(fmt::v11::basic_appender<char>, long double, fmt::v11::format_specs, fmt::v11::detail::locale_ref)
PUBLIC 3bb88 0 fmt::v11::detail::write_padded<char, (fmt::v11::align::type)2, fmt::v11::basic_appender<char>, fmt::v11::detail::write_bytes<char, (fmt::v11::align::type)2, fmt::v11::basic_appender<char> >(fmt::v11::basic_appender<char>, fmt::v11::basic_string_view<char>, fmt::v11::format_specs const&)::{lambda(fmt::v11::basic_appender<char>&)#1}>(fmt::v11::basic_appender<char>, fmt::v11::format_specs const&, unsigned long, unsigned long, fmt::v11::detail::write_bytes<char, (fmt::v11::align::type)2, fmt::v11::basic_appender<char> >(fmt::v11::basic_appender<char>, fmt::v11::basic_string_view<char>, fmt::v11::format_specs const&)::{lambda(fmt::v11::basic_appender<char>&)#1})
PUBLIC 3bd7c 0 fmt::v11::detail::format_dragon(fmt::v11::detail::basic_fp<unsigned __int128>, unsigned int, int, fmt::v11::detail::buffer<char>&, int&)
PUBLIC 3d1ac 0 fmt::v11::detail::bigint::operator<<=(int)
PUBLIC 3d2d0 0 fmt::v11::detail::bigint::assign_pow10(int)
PUBLIC 3da2c 0 fmt::v11::detail::bigint::divmod_assign(fmt::v11::detail::bigint const&)
PUBLIC 3dd4c 0 fmt::v11::basic_memory_buffer<unsigned int, (unsigned long)32, std::__ndk1::allocator<unsigned int> >::grow(fmt::v11::detail::buffer<unsigned int>&, unsigned long)
PUBLIC 3ddec 0 fmt::v11::detail::do_write_float<char, fmt::v11::basic_appender<char>, fmt::v11::detail::big_decimal_fp, fmt::v11::detail::digit_grouping<char> >(fmt::v11::basic_appender<char>, fmt::v11::detail::big_decimal_fp const&, fmt::v11::format_specs const&, fmt::v11::detail::float_specs, fmt::v11::detail::locale_ref)
PUBLIC 3eccc 0 fmt::v11::detail::do_write_float<char, fmt::v11::basic_appender<char>, fmt::v11::detail::big_decimal_fp, fmt::v11::detail::digit_grouping<char> >(fmt::v11::basic_appender<char>, fmt::v11::detail::big_decimal_fp const&, fmt::v11::format_specs const&, fmt::v11::detail::float_specs, fmt::v11::detail::locale_ref)::{lambda(fmt::v11::basic_appender<char>(fmt::v11::basic_appender<char>))#1}::operator() const
PUBLIC 3ee2c 0 fmt::v11::detail::write_padded<char, (fmt::v11::align::type)2, fmt::v11::basic_appender<char>, fmt::v11::detail::write_ptr<char, fmt::v11::basic_appender<char>, unsigned long>(fmt::v11::basic_appender<char>, unsigned long, fmt::v11::format_specs const*)::{lambda(fmt::v11::basic_appender<char>&)#1}>(fmt::v11::basic_appender<char>, fmt::v11::format_specs const&, unsigned long, unsigned long, fmt::v11::detail::write_ptr<char, fmt::v11::basic_appender<char>, unsigned long>(fmt::v11::basic_appender<char>, unsigned long, fmt::v11::format_specs const*)::{lambda(fmt::v11::basic_appender<char>&)#1})
PUBLIC 3f040 0 fmt::v11::detail::parse_replacement_field<char, fmt::v11::detail::vformat_to<char>(fmt::v11::detail::buffer<char>&, fmt::v11::basic_string_view<char>, fmt::v11::detail::vformat_args<char>::type, fmt::v11::detail::locale_ref)::format_handler&>(char const*, char const*, fmt::v11::detail::vformat_to<char>(fmt::v11::detail::buffer<char>&, fmt::v11::basic_string_view<char>, fmt::v11::detail::vformat_args<char>::type, fmt::v11::detail::locale_ref)::format_handler&)
PUBLIC 404f4 0 fmt::v11::detail::write_int_noinline<char, fmt::v11::basic_appender<char>, unsigned long>(fmt::v11::basic_appender<char>, fmt::v11::detail::write_int_arg<unsigned long>, fmt::v11::format_specs const&, fmt::v11::detail::locale_ref)
PUBLIC 41354 0 fmt::v11::detail::write_int_noinline<char, fmt::v11::basic_appender<char>, unsigned __int128>(fmt::v11::basic_appender<char>, fmt::v11::detail::write_int_arg<unsigned __int128>, fmt::v11::format_specs const&, fmt::v11::detail::locale_ref)
PUBLIC 423e4 0 _ZN3fmt3v116detail15format_hexfloatIdTnNSt6__ndk19enable_ifIXntsr16is_double_doubleIT_EE5valueEiE4typeELi0EEEvS5_NS0_12format_specsERNS1_6bufferIcEE
PUBLIC 42904 0 fmt::v11::detail::format_float<double>(double, int, fmt::v11::detail::float_specs, fmt::v11::detail::buffer<char>&)
PUBLIC 432a4 0 fmt::v11::detail::write_int<fmt::v11::basic_appender<char>, unsigned long, char>(fmt::v11::basic_appender<char>, unsigned long, unsigned int, fmt::v11::format_specs const&, fmt::v11::detail::digit_grouping<char> const&)
PUBLIC 43820 0 fmt::v11::detail::write_int<fmt::v11::basic_appender<char>, unsigned __int128, char>(fmt::v11::basic_appender<char>, unsigned __int128, unsigned int, fmt::v11::format_specs const&, fmt::v11::detail::digit_grouping<char> const&)
PUBLIC 43e9c 0 __CortexA53843419_32004
PUBLIC 43eb0 0 <.plt ELF section in undefined0.icon_ninja.android64.so>
STACK CFI INIT 1fae0 10 .cfa: sp 0 +
STACK CFI INIT 1faf0 8 .cfa: sp 0 +
STACK CFI INIT 1faf8 8 .cfa: sp 0 +
STACK CFI INIT 1fb00 14 .cfa: sp 0 +
STACK CFI INIT 1fb14 1c .cfa: sp 0 +
STACK CFI INIT 1fb30 10 .cfa: sp 0 +
STACK CFI INIT 1fb40 30 .cfa: sp 0 +
STACK CFI INIT 1fb70 98 .cfa: sp 0 +
STACK CFI INIT 1fc08 59c .cfa: sp 0 +
STACK CFI INIT 201a4 8c .cfa: sp 0 +
STACK CFI INIT 20230 30 .cfa: sp 0 +
STACK CFI INIT 20260 138 .cfa: sp 0 +
STACK CFI 20264 .cfa: sp 80 +
STACK CFI 20274 .cfa: x29 32 + x19: .cfa -8 + ^ x20: .cfa -16 + ^ .ra: .cfa -24 + ^ x29: .cfa -32 + ^ v8: .cfa -48 + ^
STACK CFI 202d8 .cfa: sp 80 +
STACK CFI 202e8 .cfa: sp 0 +
STACK CFI 202ec .cfa: x29 32 +
STACK CFI 2031c .cfa: sp 80 +
STACK CFI 2032c .cfa: sp 0 +
STACK CFI 20330 .cfa: x29 32 +
STACK CFI INIT 20398 24 .cfa: sp 0 +
STACK CFI 2039c .cfa: sp 32 +
STACK CFI 203a4 .cfa: x29 32 + x19: .cfa -16 + ^ .ra: .cfa -24 + ^ x29: .cfa -32 + ^
STACK CFI 203b0 .cfa: sp 32 +
STACK CFI 203b8 .cfa: sp 0 +
STACK CFI INIT 203bc 8 .cfa: sp 0 +
STACK CFI INIT 203c4 104 .cfa: sp 0 +
STACK CFI 203c8 .cfa: sp 64 +
STACK CFI 203d8 .cfa: x29 64 + x19: .cfa -8 + ^ x20: .cfa -16 + ^ x21: .cfa -24 + ^ x22: .cfa -32 + ^ x23: .cfa -48 + ^ .ra: .cfa -56 + ^ x29: .cfa -64 + ^
STACK CFI 20434 .cfa: sp 64 +
STACK CFI 20444 .cfa: sp 0 +
STACK CFI 20448 .cfa: x29 64 +
STACK CFI 20464 .cfa: sp 64 +
STACK CFI 20474 .cfa: sp 0 +
STACK CFI 20478 .cfa: x29 64 +
STACK CFI 204b4 .cfa: sp 64 +
STACK CFI 204c4 .cfa: sp 0 +
STACK CFI INIT 205fc 10 .cfa: sp 0 +
STACK CFI 20600 .cfa: sp 16 +
STACK CFI 20604 .cfa: x29 16 + .ra: .cfa -8 + ^ x29: .cfa -16 + ^
STACK CFI INIT 2060c 10 .cfa: sp 0 +
STACK CFI INIT 2061c c .cfa: sp 0 +
STACK CFI INIT 20628 8 .cfa: sp 0 +
STACK CFI INIT 20630 24 .cfa: sp 0 +
STACK CFI 20634 .cfa: sp 32 +
STACK CFI 2063c .cfa: x29 32 + x19: .cfa -16 + ^ .ra: .cfa -24 + ^ x29: .cfa -32 + ^
STACK CFI 20648 .cfa: sp 32 +
STACK CFI 20650 .cfa: sp 0 +
STACK CFI INIT 20654 c .cfa: sp 0 +
STACK CFI INIT 20660 c .cfa: sp 0 +
STACK CFI INIT 2066c 8 .cfa: sp 0 +
STACK CFI INIT 20674 8 .cfa: sp 0 +
STACK CFI INIT 2067c 8 .cfa: sp 0 +
STACK CFI INIT 20684 8 .cfa: sp 0 +
STACK CFI INIT 20788 7c .cfa: sp 0 +
STACK CFI 2078c .cfa: sp 64 +
STACK CFI 2079c .cfa: x29 48 + x19: .cfa -8 + ^ x20: .cfa -16 + ^ x21: .cfa -32 + ^ .ra: .cfa -40 + ^ x29: .cfa -48 + ^
STACK CFI 207ec .cfa: sp 64 +
STACK CFI 207fc .cfa: sp 0 +
STACK CFI 20800 .cfa: x29 48 +
STACK CFI INIT 20804 98 .cfa: sp 0 +
STACK CFI 20808 .cfa: sp 304 +
STACK CFI 20814 .cfa: x29 32 + x19: .cfa -8 + ^ x28: .cfa -16 + ^ .ra: .cfa -24 + ^ x29: .cfa -32 + ^
STACK CFI 20888 .cfa: sp 304 +
STACK CFI 20894 .cfa: sp 0 +
STACK CFI 20898 .cfa: x29 32 +
STACK CFI INIT 2089c 24 .cfa: sp 0 +
STACK CFI 208a0 .cfa: sp 32 +
STACK CFI 208a8 .cfa: x29 32 + x19: .cfa -16 + ^ .ra: .cfa -24 + ^ x29: .cfa -32 + ^
STACK CFI 208b4 .cfa: sp 32 +
STACK CFI 208bc .cfa: sp 0 +
STACK CFI INIT 208c0 4 .cfa: sp 0 +
STACK CFI INIT 208c4 8 .cfa: sp 0 +
STACK CFI INIT 208cc 8 .cfa: sp 0 +
STACK CFI INIT 208d4 28 .cfa: sp 0 +
STACK CFI 208d8 .cfa: sp 32 +
STACK CFI 208e0 .cfa: x29 32 + x19: .cfa -16 + ^ .ra: .cfa -24 + ^ x29: .cfa -32 + ^
STACK CFI 208f0 .cfa: sp 32 +
STACK CFI 208f8 .cfa: sp 0 +
STACK CFI INIT 208fc 4 .cfa: sp 0 +
STACK CFI INIT 20900 4 .cfa: sp 0 +
STACK CFI INIT 20904 4 .cfa: sp 0 +
STACK CFI INIT 20908 4 .cfa: sp 0 +
STACK CFI INIT 2090c 4 .cfa: sp 0 +
STACK CFI INIT 20910 8 .cfa: sp 0 +
STACK CFI INIT 20f44 60 .cfa: sp 0 +
STACK CFI 20f54 .cfa: sp 32 +
STACK CFI 20f5c .cfa: x29 32 + x19: .cfa -16 + ^ .ra: .cfa -24 + ^ x29: .cfa -32 + ^
STACK CFI 20f94 .cfa: sp 32 +
STACK CFI 20f9c .cfa: sp 0 +
STACK CFI INIT 20fa4 1c .cfa: sp 0 +
STACK CFI INIT 20fc0 24 .cfa: sp 0 +
STACK CFI 20fc4 .cfa: sp 32 +
STACK CFI 20fcc .cfa: x29 32 + x19: .cfa -16 + ^ .ra: .cfa -24 + ^ x29: .cfa -32 + ^
STACK CFI 20fd8 .cfa: sp 32 +
STACK CFI 20fe0 .cfa: sp 0 +
STACK CFI INIT 20fe4 14 .cfa: sp 0 +
STACK CFI 20fe8 .cfa: sp 16 +
STACK CFI 20fec .cfa: x29 16 + .ra: .cfa -8 + ^ x29: .cfa -16 + ^
STACK CFI INIT 21048 30 .cfa: sp 0 +
STACK CFI 2104c .cfa: sp 32 +
STACK CFI 21054 .cfa: x29 32 + x19: .cfa -16 + ^ .ra: .cfa -24 + ^ x29: .cfa -32 + ^
STACK CFI 2106c .cfa: sp 32 +
STACK CFI 21074 .cfa: sp 0 +
STACK CFI INIT 21078 34 .cfa: sp 0 +
STACK CFI 2107c .cfa: sp 32 +
STACK CFI 21084 .cfa: x29 32 + x19: .cfa -16 + ^ .ra: .cfa -24 + ^ x29: .cfa -32 + ^
STACK CFI INIT 2160c 8 .cfa: sp 0 +
STACK CFI INIT 21614 14 .cfa: sp 0 +
STACK CFI 21618 .cfa: sp 16 +
STACK CFI 2161c .cfa: x29 16 + .ra: .cfa -8 + ^ x29: .cfa -16 + ^
STACK CFI INIT 21854 14 .cfa: sp 0 +
STACK CFI 21858 .cfa: sp 16 +
STACK CFI 2185c .cfa: x29 16 + .ra: .cfa -8 + ^ x29: .cfa -16 + ^
STACK CFI INIT 21868 14 .cfa: sp 0 +
STACK CFI 2186c .cfa: sp 16 +
STACK CFI 21870 .cfa: x29 16 + .ra: .cfa -8 + ^ x29: .cfa -16 + ^
STACK CFI INIT 218cc 30 .cfa: sp 0 +
STACK CFI 218d0 .cfa: sp 32 +
STACK CFI 218d8 .cfa: x29 32 + x19: .cfa -16 + ^ .ra: .cfa -24 + ^ x29: .cfa -32 + ^
STACK CFI 218f0 .cfa: sp 32 +
STACK CFI 218f8 .cfa: sp 0 +
STACK CFI INIT 218fc 14 .cfa: sp 0 +
STACK CFI 21900 .cfa: sp 16 +
STACK CFI 21904 .cfa: x29 16 + .ra: .cfa -8 + ^ x29: .cfa -16 + ^
STACK CFI INIT 21910 44 .cfa: sp 0 +
STACK CFI 21918 .cfa: sp 32 +
STACK CFI 21920 .cfa: x29 32 + x19: .cfa -8 + ^ x20: .cfa -16 + ^ .ra: .cfa -24 + ^ x29: .cfa -32 + ^
STACK CFI 21944 .cfa: sp 32 +
STACK CFI 2194c .cfa: sp 0 +
STACK CFI INIT 21954 4 .cfa: sp 0 +
STACK CFI INIT 21958 4 .cfa: sp 0 +
STACK CFI INIT 2195c 38 .cfa: sp 0 +
STACK CFI 21960 .cfa: sp 32 +
STACK CFI 21968 .cfa: x29 32 + x19: .cfa -16 + ^ .ra: .cfa -24 + ^ x29: .cfa -32 + ^
STACK CFI 21988 .cfa: sp 32 +
STACK CFI 21990 .cfa: sp 0 +
STACK CFI INIT 21994 18 .cfa: sp 0 +
STACK CFI INIT 219ac 4 .cfa: sp 0 +
STACK CFI INIT 219b0 4 .cfa: sp 0 +
STACK CFI INIT 219b4 10 .cfa: sp 0 +
STACK CFI INIT 219c4 1c .cfa: sp 0 +
STACK CFI INIT 219e0 c .cfa: sp 0 +
STACK CFI INIT 22238 50 .cfa: sp 0 +
STACK CFI 2223c .cfa: sp 32 +
STACK CFI 22244 .cfa: x29 32 + x19: .cfa -16 + ^ .ra: .cfa -24 + ^ x29: .cfa -32 + ^
STACK CFI 2225c .cfa: sp 32 +
STACK CFI 22264 .cfa: sp 0 +
STACK CFI 22268 .cfa: x29 32 +
STACK CFI 2227c .cfa: sp 32 +
STACK CFI 22284 .cfa: sp 0 +
STACK CFI INIT 222fc 7c .cfa: sp 0 +
STACK CFI 22300 .cfa: sp 48 +
STACK CFI 2230c .cfa: x29 48 + x19: .cfa -8 + ^ x20: .cfa -16 + ^ x21: .cfa -32 + ^ .ra: .cfa -40 + ^ x29: .cfa -48 + ^
STACK CFI 22358 .cfa: sp 48 +
STACK CFI 22364 .cfa: sp 0 +
STACK CFI 22368 .cfa: sp 48 +
STACK CFI 22374 .cfa: sp 0 +
STACK CFI INIT 22378 4 .cfa: sp 0 +
STACK CFI INIT 224d0 34 .cfa: sp 0 +
STACK CFI 224d4 .cfa: sp 16 +
STACK CFI 224d8 .cfa: x29 16 + .ra: .cfa -8 + ^ x29: .cfa -16 + ^
STACK CFI INIT 22630 80 .cfa: sp 0 +
STACK CFI 22634 .cfa: sp 48 +
STACK CFI 22640 .cfa: x29 48 + x19: .cfa -8 + ^ x20: .cfa -16 + ^ x21: .cfa -32 + ^ .ra: .cfa -40 + ^ x29: .cfa -48 + ^
STACK CFI 226a0 .cfa: sp 48 +
STACK CFI 226ac .cfa: sp 0 +
STACK CFI INIT 226b0 24 .cfa: sp 0 +
STACK CFI 226b4 .cfa: sp 32 +
STACK CFI 226bc .cfa: x29 32 + x19: .cfa -16 + ^ .ra: .cfa -24 + ^ x29: .cfa -32 + ^
STACK CFI 226c8 .cfa: sp 32 +
STACK CFI 226d0 .cfa: sp 0 +
STACK CFI INIT 22bcc 148 .cfa: sp 0 +
STACK CFI 22bd0 .cfa: sp 48 +
STACK CFI 22bdc .cfa: x29 48 + x19: .cfa -8 + ^ x20: .cfa -16 + ^ x21: .cfa -32 + ^ .ra: .cfa -40 + ^ x29: .cfa -48 + ^
STACK CFI 22d04 .cfa: sp 48 +
STACK CFI 22d10 .cfa: sp 0 +
STACK CFI INIT 22f3c 80 .cfa: sp 0 +
STACK CFI 22f40 .cfa: sp 48 +
STACK CFI 22f4c .cfa: x29 48 + x19: .cfa -8 + ^ x20: .cfa -16 + ^ x21: .cfa -24 + ^ x22: .cfa -32 + ^ .ra: .cfa -40 + ^ x29: .cfa -48 + ^
STACK CFI 22f64 .cfa: sp 48 +
STACK CFI 22f70 .cfa: sp 0 +
STACK CFI 22f74 .cfa: x29 48 +
STACK CFI 22fa4 .cfa: sp 48 +
STACK CFI 22fb0 .cfa: sp 0 +
STACK CFI 22fb4 .cfa: x29 48 +
STACK CFI INIT 22fbc 68 .cfa: sp 0 +
STACK CFI 22fc0 .cfa: sp 32 +
STACK CFI 22fc8 .cfa: x29 32 + x19: .cfa -8 + ^ x20: .cfa -16 + ^ .ra: .cfa -24 + ^ x29: .cfa -32 + ^
STACK CFI 22fe0 .cfa: sp 32 +
STACK CFI 22fe8 .cfa: sp 0 +
STACK CFI 22fec .cfa: x29 32 +
STACK CFI 23018 .cfa: sp 32 +
STACK CFI 23020 .cfa: sp 0 +
STACK CFI INIT 23024 14 .cfa: sp 0 +
STACK CFI 23028 .cfa: sp 16 +
STACK CFI 2302c .cfa: x29 16 + .ra: .cfa -8 + ^ x29: .cfa -16 + ^
STACK CFI INIT 23038 4 .cfa: sp 0 +
STACK CFI INIT 2303c 14 .cfa: sp 0 +
STACK CFI INIT 23050 120 .cfa: sp 0 +
STACK CFI 23054 .cfa: sp 64 +
STACK CFI 23064 .cfa: x29 64 + x19: .cfa -8 + ^ x20: .cfa -16 + ^ x21: .cfa -24 + ^ x22: .cfa -32 + ^ x23: .cfa -40 + ^ x24: .cfa -48 + ^ .ra: .cfa -56 + ^ x29: .cfa -64 + ^
STACK CFI 2315c .cfa: sp 64 +
STACK CFI 2316c .cfa: sp 0 +
STACK CFI INIT 23170 d4 .cfa: sp 0 +
STACK CFI 23174 .cfa: sp 48 +
STACK CFI 23180 .cfa: x29 48 + x19: .cfa -8 + ^ x20: .cfa -16 + ^ x21: .cfa -32 + ^ .ra: .cfa -40 + ^ x29: .cfa -48 + ^
STACK CFI 23210 .cfa: sp 48 +
STACK CFI 2321c .cfa: sp 0 +
STACK CFI 23220 .cfa: x29 48 +
STACK CFI INIT 23244 3c8 .cfa: sp 0 +
STACK CFI INIT 2360c 8c .cfa: sp 0 +
STACK CFI 23614 .cfa: sp 32 +
STACK CFI 2361c .cfa: x29 32 + x19: .cfa -8 + ^ x20: .cfa -16 + ^ .ra: .cfa -24 + ^ x29: .cfa -32 + ^
STACK CFI 23664 .cfa: sp 32 +
STACK CFI 2366c .cfa: sp 0 +
STACK CFI 23674 .cfa: x29 32 +
STACK CFI INIT 237cc 4 .cfa: sp 0 +
STACK CFI INIT 23954 64 .cfa: sp 0 +
STACK CFI 23958 .cfa: sp 32 +
STACK CFI 23960 .cfa: x29 32 + x19: .cfa -8 + ^ x20: .cfa -16 + ^ .ra: .cfa -24 + ^ x29: .cfa -32 + ^
STACK CFI 2398c .cfa: sp 32 +
STACK CFI 23994 .cfa: sp 0 +
STACK CFI 23998 .cfa: x29 32 +
STACK CFI 239a0 .cfa: sp 32 +
STACK CFI 239a8 .cfa: sp 0 +
STACK CFI 239ac .cfa: sp 32 +
STACK CFI 239b4 .cfa: sp 0 +
STACK CFI INIT 23aa4 9c .cfa: sp 0 +
STACK CFI INIT 23b40 50 .cfa: sp 0 +
STACK CFI 23b44 .cfa: sp 32 +
STACK CFI 23b4c .cfa: x29 32 + x19: .cfa -16 + ^ .ra: .cfa -24 + ^ x29: .cfa -32 + ^
STACK CFI 23b64 .cfa: sp 32 +
STACK CFI 23b6c .cfa: sp 0 +
STACK CFI 23b70 .cfa: x29 32 +
STACK CFI 23b84 .cfa: sp 32 +
STACK CFI 23b8c .cfa: sp 0 +
STACK CFI INIT 23b90 64 .cfa: sp 0 +
STACK CFI 23b94 .cfa: sp 32 +
STACK CFI 23b9c .cfa: x29 32 + x19: .cfa -16 + ^ .ra: .cfa -24 + ^ x29: .cfa -32 + ^
STACK CFI 23bc8 .cfa: sp 32 +
STACK CFI 23bd0 .cfa: sp 0 +
STACK CFI 23bd4 .cfa: x29 32 +
STACK CFI 23be8 .cfa: sp 32 +
STACK CFI 23bf0 .cfa: sp 0 +
STACK CFI INIT 23bf4 178 .cfa: sp 0 +
STACK CFI 23bf8 .cfa: sp 80 +
STACK CFI 23c0c .cfa: x29 80 + x19: .cfa -8 + ^ x20: .cfa -16 + ^ x21: .cfa -24 + ^ x22: .cfa -32 + ^ x23: .cfa -40 + ^ x24: .cfa -48 + ^ x25: .cfa -56 + ^ x26: .cfa -64 + ^ .ra: .cfa -72 + ^ x29: .cfa -80 + ^
STACK CFI 23d54 .cfa: sp 80 +
STACK CFI 23d68 .cfa: sp 0 +
STACK CFI INIT 23d6c 1b0 .cfa: sp 0 +
STACK CFI INIT 24f04 84 .cfa: sp 0 +
STACK CFI 24f08 .cfa: sp 80 +
STACK CFI 24f18 .cfa: x29 48 + x19: .cfa -8 + ^ x20: .cfa -16 + ^ x21: .cfa -24 + ^ x22: .cfa -32 + ^ .ra: .cfa -40 + ^ x29: .cfa -48 + ^
STACK CFI 24f70 .cfa: sp 80 +
STACK CFI 24f80 .cfa: sp 0 +
STACK CFI 24f84 .cfa: x29 48 +
STACK CFI INIT 24f88 84 .cfa: sp 0 +
STACK CFI 24f8c .cfa: sp 64 +
STACK CFI 24f9c .cfa: x29 48 + x19: .cfa -8 + ^ x20: .cfa -16 + ^ x21: .cfa -24 + ^ x22: .cfa -32 + ^ .ra: .cfa -40 + ^ x29: .cfa -48 + ^
STACK CFI 24ff4 .cfa: sp 64 +
STACK CFI 25004 .cfa: sp 0 +
STACK CFI 25008 .cfa: x29 48 +
STACK CFI INIT 2500c d0 .cfa: sp 0 +
STACK CFI 25010 .cfa: sp 80 +
STACK CFI 25020 .cfa: x29 48 + x19: .cfa -8 + ^ x20: .cfa -16 + ^ x21: .cfa -24 + ^ x22: .cfa -32 + ^ .ra: .cfa -40 + ^ x29: .cfa -48 + ^
STACK CFI 250c4 .cfa: sp 80 +
STACK CFI 250d4 .cfa: sp 0 +
STACK CFI 250d8 .cfa: x29 48 +
STACK CFI INIT 25b54 8 .cfa: sp 0 +
STACK CFI INIT 25b5c 88 .cfa: sp 0 +
STACK CFI 25b60 .cfa: sp 80 +
STACK CFI 25b70 .cfa: x29 48 + x19: .cfa -8 + ^ x20: .cfa -16 + ^ x21: .cfa -32 + ^ .ra: .cfa -40 + ^ x29: .cfa -48 + ^
STACK CFI 25bcc .cfa: sp 80 +
STACK CFI 25bdc .cfa: sp 0 +
STACK CFI 25be0 .cfa: x29 48 +
STACK CFI INIT 25be4 8c .cfa: sp 0 +
STACK CFI 25be8 .cfa: sp 64 +
STACK CFI 25bf8 .cfa: x29 48 + x19: .cfa -8 + ^ x20: .cfa -16 + ^ x21: .cfa -24 + ^ x22: .cfa -32 + ^ .ra: .cfa -40 + ^ x29: .cfa -48 + ^
STACK CFI 25c58 .cfa: sp 64 +
STACK CFI 25c68 .cfa: sp 0 +
STACK CFI 25c6c .cfa: x29 48 +
STACK CFI INIT 266f4 c4 .cfa: sp 0 +
STACK CFI 266f8 .cfa: sp 64 +
STACK CFI 26704 .cfa: x29 32 + x19: .cfa -8 + ^ x20: .cfa -16 + ^ .ra: .cfa -24 + ^ x29: .cfa -32 + ^
STACK CFI 26740 .cfa: sp 64 +
STACK CFI 2674c .cfa: sp 0 +
STACK CFI 26750 .cfa: x29 32 +
STACK CFI INIT 267b8 60 .cfa: sp 0 +
STACK CFI 267f0 .cfa: sp 32 +
STACK CFI 267f8 .cfa: x29 32 + x19: .cfa -16 + ^ .ra: .cfa -24 + ^ x29: .cfa -32 + ^
STACK CFI 2680c .cfa: sp 32 +
STACK CFI 26814 .cfa: sp 0 +
STACK CFI INIT 26818 64 .cfa: sp 0 +
STACK CFI 2681c .cfa: sp 32 +
STACK CFI 26824 .cfa: x29 32 + x19: .cfa -16 + ^ .ra: .cfa -24 + ^ x29: .cfa -32 + ^
STACK CFI 26870 .cfa: sp 32 +
STACK CFI 26878 .cfa: sp 0 +
STACK CFI INIT 2687c 60 .cfa: sp 0 +
STACK CFI 26880 .cfa: sp 32 +
STACK CFI 26888 .cfa: x29 32 + x19: .cfa -16 + ^ .ra: .cfa -24 + ^ x29: .cfa -32 + ^
STACK CFI 268d0 .cfa: sp 32 +
STACK CFI 268d8 .cfa: sp 0 +
STACK CFI INIT 268dc 68 .cfa: sp 0 +
STACK CFI 268e0 .cfa: sp 32 +
STACK CFI 268e8 .cfa: x29 32 + x19: .cfa -16 + ^ .ra: .cfa -24 + ^ x29: .cfa -32 + ^
STACK CFI 26938 .cfa: sp 32 +
STACK CFI 26940 .cfa: sp 0 +
STACK CFI INIT 26944 14 .cfa: sp 0 +
STACK CFI 26948 .cfa: sp 16 +
STACK CFI 2694c .cfa: x29 16 + .ra: .cfa -8 + ^ x29: .cfa -16 + ^
STACK CFI INIT 26958 24 .cfa: sp 0 +
STACK CFI 2695c .cfa: sp 32 +
STACK CFI 26964 .cfa: x29 32 + x19: .cfa -16 + ^ .ra: .cfa -24 + ^ x29: .cfa -32 + ^
STACK CFI 26970 .cfa: sp 32 +
STACK CFI 26978 .cfa: sp 0 +
STACK CFI INIT 2697c 310 .cfa: sp 0 +
STACK CFI 26980 .cfa: sp 112 +
STACK CFI 26998 .cfa: x29 80 + x19: .cfa -8 + ^ x20: .cfa -16 + ^ x21: .cfa -24 + ^ x22: .cfa -32 + ^ x23: .cfa -40 + ^ x24: .cfa -48 + ^ x25: .cfa -64 + ^ .ra: .cfa -72 + ^ x29: .cfa -80 + ^
STACK CFI 26c6c .cfa: sp 112 +
STACK CFI 26c84 .cfa: sp 0 +
STACK CFI 26c88 .cfa: x29 80 +
STACK CFI INIT 26c8c 24 .cfa: sp 0 +
STACK CFI 26c90 .cfa: sp 32 +
STACK CFI 26c98 .cfa: x29 32 + x19: .cfa -16 + ^ .ra: .cfa -24 + ^ x29: .cfa -32 + ^
STACK CFI 26ca4 .cfa: sp 32 +
STACK CFI 26cac .cfa: sp 0 +
STACK CFI INIT 27770 24 .cfa: sp 0 +
STACK CFI 27774 .cfa: sp 32 +
STACK CFI 2777c .cfa: x29 32 + x19: .cfa -16 + ^ .ra: .cfa -24 + ^ x29: .cfa -32 + ^
STACK CFI 27788 .cfa: sp 32 +
STACK CFI 27790 .cfa: sp 0 +
STACK CFI INIT 27970 24 .cfa: sp 0 +
STACK CFI 27974 .cfa: sp 32 +
STACK CFI 2797c .cfa: x29 32 + x19: .cfa -16 + ^ .ra: .cfa -24 + ^ x29: .cfa -32 + ^
STACK CFI 27988 .cfa: sp 32 +
STACK CFI 27990 .cfa: sp 0 +
STACK CFI INIT 27994 c .cfa: sp 0 +
STACK CFI INIT 27b1c 4 .cfa: sp 0 +
STACK CFI INIT 27b20 14 .cfa: sp 0 +
STACK CFI INIT 27b34 4 .cfa: sp 0 +
STACK CFI INIT 27b38 14 .cfa: sp 0 +
STACK CFI INIT 27b4c 4 .cfa: sp 0 +
STACK CFI INIT 27b50 14 .cfa: sp 0 +
STACK CFI INIT 27b64 158 .cfa: sp 0 +
STACK CFI 27b68 .cfa: sp 128 +
STACK CFI 27b78 .cfa: x29 48 + x19: .cfa -8 + ^ x20: .cfa -16 + ^ x21: .cfa -32 + ^ .ra: .cfa -40 + ^ x29: .cfa -48 + ^
STACK CFI 27c50 .cfa: sp 128 +
STACK CFI 27c60 .cfa: sp 0 +
STACK CFI 27c64 .cfa: x29 48 +
STACK CFI INIT 27cbc 200 .cfa: sp 0 +
STACK CFI INIT 27ebc 4 .cfa: sp 0 +
STACK CFI INIT 28034 5c .cfa: sp 0 +
STACK CFI 28038 .cfa: sp 32 +
STACK CFI 28040 .cfa: x29 32 + x19: .cfa -16 + ^ .ra: .cfa -24 + ^ x29: .cfa -32 + ^
STACK CFI 28084 .cfa: sp 32 +
STACK CFI 2808c .cfa: sp 0 +
STACK CFI INIT 28090 64 .cfa: sp 0 +
STACK CFI 28094 .cfa: sp 32 +
STACK CFI 2809c .cfa: x29 32 + x19: .cfa -16 + ^ .ra: .cfa -24 + ^ x29: .cfa -32 + ^
STACK CFI 280e8 .cfa: sp 32 +
STACK CFI 280f0 .cfa: sp 0 +
STACK CFI INIT 280f4 4 .cfa: sp 0 +
STACK CFI INIT 280f8 4 .cfa: sp 0 +
STACK CFI INIT 280fc 34 .cfa: sp 0 +
STACK CFI 28100 .cfa: sp 32 +
STACK CFI 28108 .cfa: x29 32 + x19: .cfa -16 + ^ .ra: .cfa -24 + ^ x29: .cfa -32 + ^
STACK CFI 28124 .cfa: sp 32 +
STACK CFI 2812c .cfa: sp 0 +
STACK CFI INIT 28130 14 .cfa: sp 0 +
STACK CFI INIT 28144 4 .cfa: sp 0 +
STACK CFI INIT 28148 4 .cfa: sp 0 +
STACK CFI INIT 2814c 10 .cfa: sp 0 +
STACK CFI INIT 2815c 1c .cfa: sp 0 +
STACK CFI INIT 28178 c .cfa: sp 0 +
STACK CFI INIT 29390 1f0 .cfa: sp 0 +
STACK CFI 29394 .cfa: sp 112 +
STACK CFI 293b4 .cfa: x29 88 + x19: .cfa -8 + ^ x20: .cfa -16 + ^ x21: .cfa -24 + ^ x22: .cfa -32 + ^ x23: .cfa -40 + ^ x24: .cfa -48 + ^ x25: .cfa -56 + ^ x26: .cfa -64 + ^ x27: .cfa -72 + ^ .ra: .cfa -80 + ^ x29: .cfa -88 + ^ v8: .cfa -96 + ^
STACK CFI 29550 .cfa: sp 112 +
STACK CFI 29570 .cfa: sp 0 +
STACK CFI 29574 .cfa: x29 88 +
STACK CFI INIT 29580 40 .cfa: sp 0 +
STACK CFI 29598 .cfa: sp 32 +
STACK CFI 295a0 .cfa: x29 32 + x19: .cfa -16 + ^ .ra: .cfa -24 + ^ x29: .cfa -32 + ^
STACK CFI 295b4 .cfa: sp 32 +
STACK CFI 295bc .cfa: sp 0 +
STACK CFI INIT 295c0 44 .cfa: sp 0 +
STACK CFI 295c4 .cfa: sp 32 +
STACK CFI 295cc .cfa: x29 32 + x19: .cfa -16 + ^ .ra: .cfa -24 + ^ x29: .cfa -32 + ^
STACK CFI 295f8 .cfa: sp 32 +
STACK CFI 29600 .cfa: sp 0 +
STACK CFI INIT 29604 14 .cfa: sp 0 +
STACK CFI 29608 .cfa: sp 16 +
STACK CFI 2960c .cfa: x29 16 + .ra: .cfa -8 + ^ x29: .cfa -16 + ^
STACK CFI INIT 29618 14 .cfa: sp 0 +
STACK CFI 2961c .cfa: sp 16 +
STACK CFI 29620 .cfa: x29 16 + .ra: .cfa -8 + ^ x29: .cfa -16 + ^
STACK CFI INIT 29aac 1c .cfa: sp 0 +
STACK CFI INIT 29e60 4 .cfa: sp 0 +
STACK CFI INIT 2a32c 4b4 .cfa: sp 0 +
STACK CFI 2a330 .cfa: sp 96 +
STACK CFI 2a348 .cfa: x29 96 + x19: .cfa -8 + ^ x20: .cfa -16 + ^ x21: .cfa -24 + ^ x22: .cfa -32 + ^ x23: .cfa -40 + ^ x24: .cfa -48 + ^ x25: .cfa -56 + ^ x26: .cfa -64 + ^ x27: .cfa -72 + ^ x28: .cfa -80 + ^ .ra: .cfa -88 + ^ x29: .cfa -96 + ^
STACK CFI 2a790 .cfa: sp 96 +
STACK CFI 2a7a8 .cfa: sp 0 +
STACK CFI 2a7ac .cfa: x29 96 +
STACK CFI INIT 2a7e0 1a4 .cfa: sp 0 +
STACK CFI 2a7e4 .cfa: sp 64 +
STACK CFI 2a7f0 .cfa: x29 32 + x19: .cfa -8 + ^ x20: .cfa -16 + ^ .ra: .cfa -24 + ^ x29: .cfa -32 + ^
STACK CFI 2a91c .cfa: sp 64 +
STACK CFI 2a928 .cfa: sp 0 +
STACK CFI 2a92c .cfa: x29 32 +
STACK CFI INIT 2a984 194 .cfa: sp 0 +
STACK CFI 2a988 .cfa: sp 16 +
STACK CFI 2a98c .cfa: x29 16 + .ra: .cfa -8 + ^ x29: .cfa -16 + ^
STACK CFI 2aa24 .cfa: sp 16 +
STACK CFI 2aa28 .cfa: sp 0 +
STACK CFI 2aa2c .cfa: x29 16 +
STACK CFI 2aaf8 .cfa: sp 16 +
STACK CFI 2aafc .cfa: sp 0 +
STACK CFI 2ab00 .cfa: x29 16 +
STACK CFI INIT 2ab18 114 .cfa: sp 0 +
STACK CFI 2ab1c .cfa: sp 128 +
STACK CFI 2ab2c .cfa: x29 48 + x19: .cfa -8 + ^ x20: .cfa -16 + ^ x21: .cfa -32 + ^ .ra: .cfa -40 + ^ x29: .cfa -48 + ^
STACK CFI 2abf8 .cfa: sp 128 +
STACK CFI 2ac08 .cfa: sp 0 +
STACK CFI 2ac0c .cfa: x29 48 +
STACK CFI INIT 2ac2c 114 .cfa: sp 0 +
STACK CFI 2ac30 .cfa: sp 128 +
STACK CFI 2ac40 .cfa: x29 48 + x19: .cfa -8 + ^ x20: .cfa -16 + ^ x21: .cfa -32 + ^ .ra: .cfa -40 + ^ x29: .cfa -48 + ^
STACK CFI 2ad0c .cfa: sp 128 +
STACK CFI 2ad1c .cfa: sp 0 +
STACK CFI 2ad20 .cfa: x29 48 +
STACK CFI INIT 2ad40 27c .cfa: sp 0 +
STACK CFI 2ad44 .cfa: sp 176 +
STACK CFI 2ad60 .cfa: x29 96 + x19: .cfa -8 + ^ x20: .cfa -16 + ^ x21: .cfa -24 + ^ x22: .cfa -32 + ^ x23: .cfa -40 + ^ x24: .cfa -48 + ^ x25: .cfa -56 + ^ x26: .cfa -64 + ^ x27: .cfa -72 + ^ x28: .cfa -80 + ^ .ra: .cfa -88 + ^ x29: .cfa -96 + ^
STACK CFI 2af98 .cfa: sp 176 +
STACK CFI 2afb4 .cfa: sp 0 +
STACK CFI 2afb8 .cfa: x29 96 +
STACK CFI INIT 2afbc 520 .cfa: sp 0 +
STACK CFI 2afc0 .cfa: sp 176 +
STACK CFI 2afdc .cfa: x29 96 + x19: .cfa -8 + ^ x20: .cfa -16 + ^ x21: .cfa -24 + ^ x22: .cfa -32 + ^ x23: .cfa -40 + ^ x24: .cfa -48 + ^ x25: .cfa -56 + ^ x26: .cfa -64 + ^ x27: .cfa -72 + ^ x28: .cfa -80 + ^ .ra: .cfa -88 + ^ x29: .cfa -96 + ^
STACK CFI 2b4b8 .cfa: sp 176 +
STACK CFI 2b4d4 .cfa: sp 0 +
STACK CFI 2b4d8 .cfa: x29 96 +
STACK CFI INIT 2b4dc 20c .cfa: sp 0 +
STACK CFI 2b4e0 .cfa: sp 80 +
STACK CFI 2b4f4 .cfa: x29 80 + x19: .cfa -8 + ^ x20: .cfa -16 + ^ x21: .cfa -24 + ^ x22: .cfa -32 + ^ x23: .cfa -40 + ^ x24: .cfa -48 + ^ x25: .cfa -64 + ^ .ra: .cfa -72 + ^ x29: .cfa -80 + ^
STACK CFI 2b584 .cfa: sp 80 +
STACK CFI 2b598 .cfa: sp 0 +
STACK CFI 2b59c .cfa: x29 80 +
STACK CFI 2b5a8 .cfa: sp 80 +
STACK CFI 2b5bc .cfa: sp 0 +
STACK CFI 2b5c0 .cfa: x29 80 +
STACK CFI INIT 2b6e8 428 .cfa: sp 0 +
STACK CFI 2b6ec .cfa: sp 128 +
STACK CFI 2b708 .cfa: x29 96 + x19: .cfa -8 + ^ x20: .cfa -16 + ^ x21: .cfa -24 + ^ x22: .cfa -32 + ^ x23: .cfa -40 + ^ x24: .cfa -48 + ^ x25: .cfa -56 + ^ x26: .cfa -64 + ^ x27: .cfa -72 + ^ x28: .cfa -80 + ^ .ra: .cfa -88 + ^ x29: .cfa -96 + ^
STACK CFI 2baec .cfa: sp 128 +
STACK CFI 2bb08 .cfa: sp 0 +
STACK CFI 2bb0c .cfa: x29 96 +
STACK CFI INIT 2bb10 194 .cfa: sp 0 +
STACK CFI 2bb14 .cfa: sp 32 +
STACK CFI 2bb1c .cfa: x29 16 + .ra: .cfa -8 + ^ x29: .cfa -16 + ^
STACK CFI 2bb60 .cfa: sp 32 +
STACK CFI 2bb68 .cfa: sp 0 +
STACK CFI 2bb6c .cfa: x29 16 +
STACK CFI INIT 2bca4 1b8 .cfa: sp 0 +
STACK CFI INIT 2be5c 1d0 .cfa: sp 0 +
STACK CFI 2be60 .cfa: sp 80 +
STACK CFI 2be74 .cfa: x29 80 + x19: .cfa -8 + ^ x20: .cfa -16 + ^ x21: .cfa -24 + ^ x22: .cfa -32 + ^ x23: .cfa -40 + ^ x24: .cfa -48 + ^ x25: .cfa -64 + ^ .ra: .cfa -72 + ^ x29: .cfa -80 + ^
STACK CFI 2c014 .cfa: sp 80 +
STACK CFI 2c028 .cfa: sp 0 +
STACK CFI INIT 2c02c 67c .cfa: sp 0 +
STACK CFI 2c030 .cfa: sp 176 +
STACK CFI 2c04c .cfa: x29 96 + x19: .cfa -8 + ^ x20: .cfa -16 + ^ x21: .cfa -24 + ^ x22: .cfa -32 + ^ x23: .cfa -40 + ^ x24: .cfa -48 + ^ x25: .cfa -56 + ^ x26: .cfa -64 + ^ x27: .cfa -72 + ^ x28: .cfa -80 + ^ .ra: .cfa -88 + ^ x29: .cfa -96 + ^
STACK CFI 2c684 .cfa: sp 176 +
STACK CFI 2c6a0 .cfa: sp 0 +
STACK CFI 2c6a4 .cfa: x29 96 +
STACK CFI INIT 2c6a8 1e4 .cfa: sp 0 +
STACK CFI 2c6ac .cfa: sp 32 +
STACK CFI 2c6b4 .cfa: x29 32 + x19: .cfa -8 + ^ x20: .cfa -16 + ^ .ra: .cfa -24 + ^ x29: .cfa -32 + ^
STACK CFI 2c7a4 .cfa: sp 32 +
STACK CFI 2c7ac .cfa: sp 0 +
STACK CFI 2c7b0 .cfa: x29 32 +
STACK CFI 2c824 .cfa: sp 32 +
STACK CFI 2c82c .cfa: sp 0 +
STACK CFI 2c830 .cfa: x29 32 +
STACK CFI 2c840 .cfa: sp 32 +
STACK CFI 2c848 .cfa: sp 0 +
STACK CFI 2c84c .cfa: x29 32 +
STACK CFI 2c85c .cfa: sp 32 +
STACK CFI 2c864 .cfa: sp 0 +
STACK CFI 2c868 .cfa: x29 32 +
STACK CFI INIT 2c88c 178 .cfa: sp 0 +
STACK CFI 2c890 .cfa: sp 80 +
STACK CFI 2c8a4 .cfa: x29 64 + x19: .cfa -8 + ^ x20: .cfa -16 + ^ x21: .cfa -24 + ^ x22: .cfa -32 + ^ x23: .cfa -40 + ^ x24: .cfa -48 + ^ .ra: .cfa -56 + ^ x29: .cfa -64 + ^
STACK CFI 2c9e8 .cfa: sp 80 +
STACK CFI 2c9fc .cfa: sp 0 +
STACK CFI 2ca00 .cfa: x29 64 +
STACK CFI INIT 2ca04 178 .cfa: sp 0 +
STACK CFI 2ca08 .cfa: sp 80 +
STACK CFI 2ca1c .cfa: x29 64 + x19: .cfa -8 + ^ x20: .cfa -16 + ^ x21: .cfa -24 + ^ x22: .cfa -32 + ^ x23: .cfa -40 + ^ x24: .cfa -48 + ^ .ra: .cfa -56 + ^ x29: .cfa -64 + ^
STACK CFI 2cb60 .cfa: sp 80 +
STACK CFI 2cb74 .cfa: sp 0 +
STACK CFI 2cb78 .cfa: x29 64 +
STACK CFI INIT 2cb7c 178 .cfa: sp 0 +
STACK CFI 2cb80 .cfa: sp 80 +
STACK CFI 2cb94 .cfa: x29 64 + x19: .cfa -8 + ^ x20: .cfa -16 + ^ x21: .cfa -24 + ^ x22: .cfa -32 + ^ x23: .cfa -40 + ^ x24: .cfa -48 + ^ .ra: .cfa -56 + ^ x29: .cfa -64 + ^
STACK CFI 2ccd8 .cfa: sp 80 +
STACK CFI 2ccec .cfa: sp 0 +
STACK CFI 2ccf0 .cfa: x29 64 +
STACK CFI INIT 2ccf4 94 .cfa: sp 0 +
STACK CFI 2ccf8 .cfa: sp 16 +
STACK CFI 2ccfc .cfa: x29 16 + .ra: .cfa -8 + ^ x29: .cfa -16 + ^
STACK CFI 2cd50 .cfa: sp 16 +
STACK CFI 2cd54 .cfa: sp 0 +
STACK CFI 2cd58 .cfa: x29 16 +
STACK CFI INIT 2cd88 158 .cfa: sp 0 +
STACK CFI 2cd8c .cfa: sp 112 +
STACK CFI 2cda8 .cfa: x29 96 + x19: .cfa -8 + ^ x20: .cfa -16 + ^ x21: .cfa -24 + ^ x22: .cfa -32 + ^ x23: .cfa -40 + ^ x24: .cfa -48 + ^ x25: .cfa -56 + ^ x26: .cfa -64 + ^ x27: .cfa -72 + ^ x28: .cfa -80 + ^ .ra: .cfa -88 + ^ x29: .cfa -96 + ^
STACK CFI 2ce90 .cfa: sp 112 +
STACK CFI 2ce94 .cfa: x29 96 +
STACK CFI 2ce9c .cfa: sp 112 +
STACK CFI 2ceb8 .cfa: sp 0 +
STACK CFI 2cebc .cfa: x29 96 +
STACK CFI 2cedc .cfa: sp 112 +
STACK CFI INIT 2cee0 94 .cfa: sp 0 +
STACK CFI 2cee4 .cfa: sp 16 +
STACK CFI 2cee8 .cfa: x29 16 + .ra: .cfa -8 + ^ x29: .cfa -16 + ^
STACK CFI 2cf3c .cfa: sp 16 +
STACK CFI 2cf40 .cfa: sp 0 +
STACK CFI 2cf44 .cfa: x29 16 +
STACK CFI INIT 2cf74 60 .cfa: sp 0 +
STACK CFI 2cf84 .cfa: sp 32 +
STACK CFI 2cf8c .cfa: x29 32 + x19: .cfa -16 + ^ .ra: .cfa -24 + ^ x29: .cfa -32 + ^
STACK CFI 2cfc4 .cfa: sp 32 +
STACK CFI 2cfcc .cfa: sp 0 +
STACK CFI INIT 2cfd4 1c .cfa: sp 0 +
STACK CFI INIT 2d840 4 .cfa: sp 0 +
STACK CFI INIT 2d9c8 6c .cfa: sp 0 +
STACK CFI 2d9cc .cfa: sp 48 +
STACK CFI 2d9d8 .cfa: x29 32 + x19: .cfa -8 + ^ x20: .cfa -16 + ^ .ra: .cfa -24 + ^ x29: .cfa -32 + ^
STACK CFI 2da20 .cfa: sp 48 +
STACK CFI 2da2c .cfa: sp 0 +
STACK CFI 2da30 .cfa: x29 32 +
STACK CFI INIT 2db68 60 .cfa: sp 0 +
STACK CFI 2db6c .cfa: sp 32 +
STACK CFI 2db74 .cfa: x29 32 + x19: .cfa -8 + ^ x20: .cfa -16 + ^ .ra: .cfa -24 + ^ x29: .cfa -32 + ^
STACK CFI 2dbbc .cfa: sp 32 +
STACK CFI 2dbc4 .cfa: sp 0 +
STACK CFI INIT 2dcb4 98 .cfa: sp 0 +
STACK CFI INIT 2e34c 94 .cfa: sp 0 +
STACK CFI 2e350 .cfa: sp 32 +
STACK CFI 2e358 .cfa: x29 32 + x19: .cfa -16 + ^ .ra: .cfa -24 + ^ x29: .cfa -32 + ^
STACK CFI 2e384 .cfa: sp 32 +
STACK CFI 2e38c .cfa: sp 0 +
STACK CFI 2e390 .cfa: x29 32 +
STACK CFI 2e3d4 .cfa: sp 32 +
STACK CFI 2e3dc .cfa: sp 0 +
STACK CFI INIT 2e734 100 .cfa: sp 0 +
STACK CFI 2e738 .cfa: sp 80 +
STACK CFI 2e750 .cfa: x29 56 + x19: .cfa -8 + ^ x20: .cfa -16 + ^ x21: .cfa -24 + ^ x22: .cfa -32 + ^ x23: .cfa -40 + ^ .ra: .cfa -48 + ^ x29: .cfa -56 + ^ v8: .cfa -64 + ^
STACK CFI 2e814 .cfa: sp 80 +
STACK CFI 2e82c .cfa: sp 0 +
STACK CFI 2e830 .cfa: x29 56 +
STACK CFI INIT 2ee14 7c .cfa: sp 0 +
STACK CFI 2ee18 .cfa: sp 32 +
STACK CFI 2ee20 .cfa: x29 32 + x19: .cfa -8 + ^ x20: .cfa -16 + ^ .ra: .cfa -24 + ^ x29: .cfa -32 + ^
STACK CFI 2ee78 .cfa: sp 32 +
STACK CFI 2ee80 .cfa: sp 0 +
STACK CFI 2ee84 .cfa: sp 32 +
STACK CFI 2ee8c .cfa: sp 0 +
STACK CFI INIT 2eff8 4 .cfa: sp 0 +
STACK CFI INIT 2effc 14 .cfa: sp 0 +
STACK CFI INIT 2f490 1c .cfa: sp 0 +
STACK CFI INIT 2f7ec 4 .cfa: sp 0 +
STACK CFI INIT 2f7f0 ec .cfa: sp 0 +
STACK CFI 2f7f4 .cfa: sp 48 +
STACK CFI 2f800 .cfa: x29 48 + x19: .cfa -8 + ^ x20: .cfa -16 + ^ x21: .cfa -24 + ^ x22: .cfa -32 + ^ .ra: .cfa -40 + ^ x29: .cfa -48 + ^
STACK CFI 2f8b8 .cfa: sp 48 +
STACK CFI 2f8c4 .cfa: sp 0 +
STACK CFI 2f8c8 .cfa: x29 48 +
STACK CFI 2f8cc .cfa: sp 48 +
STACK CFI 2f8d8 .cfa: sp 0 +
STACK CFI INIT 2fa84 438 .cfa: sp 0 +
STACK CFI 2fa88 .cfa: sp 80 +
STACK CFI 2fa9c .cfa: x29 48 + x19: .cfa -8 + ^ x20: .cfa -16 + ^ x21: .cfa -32 + ^ .ra: .cfa -40 + ^ x29: .cfa -48 + ^ v8: .cfa -56 + ^ v9: .cfa -64 + ^
STACK CFI 2fea0 .cfa: sp 80 +
STACK CFI 2feb4 .cfa: sp 0 +
STACK CFI 2feb8 .cfa: x29 48 +
STACK CFI INIT 2febc 24 .cfa: sp 0 +
STACK CFI 2fec0 .cfa: sp 32 +
STACK CFI 2fec8 .cfa: x29 32 + x19: .cfa -16 + ^ .ra: .cfa -24 + ^ x29: .cfa -32 + ^
STACK CFI 2fed4 .cfa: sp 32 +
STACK CFI 2fedc .cfa: sp 0 +
STACK CFI INIT 300c8 3c .cfa: sp 0 +
STACK CFI 300cc .cfa: sp 32 +
STACK CFI 300d4 .cfa: x29 32 + x19: .cfa -16 + ^ .ra: .cfa -24 + ^ x29: .cfa -32 + ^
STACK CFI 300e0 .cfa: sp 32 +
STACK CFI 300e8 .cfa: sp 0 +
STACK CFI 300ec .cfa: x29 32 +
STACK CFI 300f8 .cfa: sp 32 +
STACK CFI 30100 .cfa: sp 0 +
STACK CFI INIT 30104 4c .cfa: sp 0 +
STACK CFI 30108 .cfa: sp 32 +
STACK CFI 30110 .cfa: x29 32 + x19: .cfa -8 + ^ x20: .cfa -16 + ^ .ra: .cfa -24 + ^ x29: .cfa -32 + ^
STACK CFI 30138 .cfa: sp 32 +
STACK CFI 30140 .cfa: sp 0 +
STACK CFI 30144 .cfa: sp 32 +
STACK CFI 3014c .cfa: sp 0 +
STACK CFI INIT 30370 64 .cfa: sp 0 +
STACK CFI 30374 .cfa: sp 32 +
STACK CFI 3037c .cfa: x29 32 + x19: .cfa -16 + ^ .ra: .cfa -24 + ^ x29: .cfa -32 + ^
STACK CFI 303a8 .cfa: sp 32 +
STACK CFI 303b0 .cfa: sp 0 +
STACK CFI 303b4 .cfa: x29 32 +
STACK CFI 303c8 .cfa: sp 32 +
STACK CFI 303d0 .cfa: sp 0 +
STACK CFI INIT 303d4 24 .cfa: sp 0 +
STACK CFI 303d8 .cfa: sp 32 +
STACK CFI 303e0 .cfa: x29 32 + x19: .cfa -16 + ^ .ra: .cfa -24 + ^ x29: .cfa -32 + ^
STACK CFI 303ec .cfa: sp 32 +
STACK CFI 303f4 .cfa: sp 0 +
STACK CFI INIT 30654 24 .cfa: sp 0 +
STACK CFI 30658 .cfa: sp 32 +
STACK CFI 30660 .cfa: x29 32 + x19: .cfa -16 + ^ .ra: .cfa -24 + ^ x29: .cfa -32 + ^
STACK CFI 3066c .cfa: sp 32 +
STACK CFI 30674 .cfa: sp 0 +
STACK CFI INIT 30678 24 .cfa: sp 0 +
STACK CFI 3067c .cfa: sp 32 +
STACK CFI 30684 .cfa: x29 32 + x19: .cfa -16 + ^ .ra: .cfa -24 + ^ x29: .cfa -32 + ^
STACK CFI 30690 .cfa: sp 32 +
STACK CFI 30698 .cfa: sp 0 +
STACK CFI INIT 308c0 24 .cfa: sp 0 +
STACK CFI 308c4 .cfa: sp 32 +
STACK CFI 308cc .cfa: x29 32 + x19: .cfa -16 + ^ .ra: .cfa -24 + ^ x29: .cfa -32 + ^
STACK CFI 308d8 .cfa: sp 32 +
STACK CFI 308e0 .cfa: sp 0 +
STACK CFI INIT 31004 8 .cfa: sp 0 +
STACK CFI INIT 3100c 24 .cfa: sp 0 +
STACK CFI 31010 .cfa: sp 32 +
STACK CFI 31018 .cfa: x29 32 + x19: .cfa -16 + ^ .ra: .cfa -24 + ^ x29: .cfa -32 + ^
STACK CFI 31024 .cfa: sp 32 +
STACK CFI 3102c .cfa: sp 0 +
STACK CFI INIT 31030 28 .cfa: sp 0 +
STACK CFI 31034 .cfa: sp 32 +
STACK CFI 3103c .cfa: x29 32 + x19: .cfa -16 + ^ .ra: .cfa -24 + ^ x29: .cfa -32 + ^
STACK CFI 3104c .cfa: sp 32 +
STACK CFI 31054 .cfa: sp 0 +
STACK CFI INIT 315e4 8 .cfa: sp 0 +
STACK CFI INIT 315ec 24 .cfa: sp 0 +
STACK CFI 315f0 .cfa: sp 32 +
STACK CFI 315f8 .cfa: x29 32 + x19: .cfa -16 + ^ .ra: .cfa -24 + ^ x29: .cfa -32 + ^
STACK CFI 31604 .cfa: sp 32 +
STACK CFI 3160c .cfa: sp 0 +
STACK CFI INIT 31610 28 .cfa: sp 0 +
STACK CFI 31614 .cfa: sp 32 +
STACK CFI 3161c .cfa: x29 32 + x19: .cfa -16 + ^ .ra: .cfa -24 + ^ x29: .cfa -32 + ^
STACK CFI 3162c .cfa: sp 32 +
STACK CFI 31634 .cfa: sp 0 +
STACK CFI INIT 3189c 8 .cfa: sp 0 +
STACK CFI INIT 318a4 24 .cfa: sp 0 +
STACK CFI 318a8 .cfa: sp 32 +
STACK CFI 318b0 .cfa: x29 32 + x19: .cfa -16 + ^ .ra: .cfa -24 + ^ x29: .cfa -32 + ^
STACK CFI 318bc .cfa: sp 32 +
STACK CFI 318c4 .cfa: sp 0 +
STACK CFI INIT 318c8 28 .cfa: sp 0 +
STACK CFI 318cc .cfa: sp 32 +
STACK CFI 318d4 .cfa: x29 32 + x19: .cfa -16 + ^ .ra: .cfa -24 + ^ x29: .cfa -32 + ^
STACK CFI 318e4 .cfa: sp 32 +
STACK CFI 318ec .cfa: sp 0 +
STACK CFI INIT 31b50 24 .cfa: sp 0 +
STACK CFI 31b54 .cfa: sp 32 +
STACK CFI 31b5c .cfa: x29 32 + x19: .cfa -16 + ^ .ra: .cfa -24 + ^ x29: .cfa -32 + ^
STACK CFI 31b68 .cfa: sp 32 +
STACK CFI 31b70 .cfa: sp 0 +
STACK CFI INIT 3286c 4 .cfa: sp 0 +
STACK CFI INIT 32870 4 .cfa: sp 0 +
STACK CFI INIT 32874 8 .cfa: sp 0 +
STACK CFI INIT 3287c 4 .cfa: sp 0 +
STACK CFI INIT 32880 8 .cfa: sp 0 +
STACK CFI INIT 33744 4 .cfa: sp 0 +
STACK CFI INIT 33748 14 .cfa: sp 0 +
STACK CFI INIT 33c68 c .cfa: sp 0 +
STACK CFI INIT 33c74 24c .cfa: sp 0 +
STACK CFI INIT 33ec0 a0 .cfa: sp 0 +
STACK CFI 33ecc .cfa: sp 32 +
STACK CFI 33f24 .cfa: sp 0 +
STACK CFI 33f28 .cfa: sp 32 +
STACK CFI 33f30 .cfa: sp 0 +
STACK CFI 33f34 .cfa: sp 32 +
STACK CFI 33f48 .cfa: sp 0 +
STACK CFI 33f4c .cfa: sp 32 +
STACK CFI 33f5c .cfa: sp 0 +
STACK CFI INIT 33f60 38 .cfa: sp 0 +
STACK CFI 33f6c .cfa: sp 32 +
STACK CFI 33f94 .cfa: sp 0 +
STACK CFI INIT 3422c 7c .cfa: sp 0 +
STACK CFI 34230 .cfa: sp 32 +
STACK CFI 34238 .cfa: x29 32 + x19: .cfa -16 + ^ .ra: .cfa -24 + ^ x29: .cfa -32 + ^
STACK CFI 34264 .cfa: sp 32 +
STACK CFI 3426c .cfa: sp 0 +
STACK CFI 34270 .cfa: x29 32 +
STACK CFI 3429c .cfa: sp 32 +
STACK CFI 342a4 .cfa: sp 0 +
STACK CFI INIT 342f8 2c .cfa: sp 0 +
STACK CFI 342fc .cfa: sp 32 +
STACK CFI 34304 .cfa: x29 32 + x19: .cfa -16 + ^ .ra: .cfa -24 + ^ x29: .cfa -32 + ^
STACK CFI 34318 .cfa: sp 32 +
STACK CFI 34320 .cfa: sp 0 +
STACK CFI INIT 34ae4 64 .cfa: sp 0 +
STACK CFI 34ae8 .cfa: sp 32 +
STACK CFI 34af0 .cfa: x29 32 + x19: .cfa -16 + ^ .ra: .cfa -24 + ^ x29: .cfa -32 + ^
STACK CFI 34b0c .cfa: sp 32 +
STACK CFI 34b14 .cfa: sp 0 +
STACK CFI 34b18 .cfa: x29 32 +
STACK CFI 34b3c .cfa: sp 32 +
STACK CFI 34b44 .cfa: sp 0 +
STACK CFI INIT 34b48 570 .cfa: sp 0 +
STACK CFI 34b4c .cfa: sp 176 +
STACK CFI 34b60 .cfa: x29 64 + x19: .cfa -8 + ^ x20: .cfa -16 + ^ x21: .cfa -24 + ^ x22: .cfa -32 + ^ x23: .cfa -40 + ^ x24: .cfa -48 + ^ .ra: .cfa -56 + ^ x29: .cfa -64 + ^
STACK CFI 34d90 .cfa: sp 176 +
STACK CFI 34da4 .cfa: sp 0 +
STACK CFI 34da8 .cfa: x29 64 +
STACK CFI 34df4 .cfa: sp 176 +
STACK CFI 34e08 .cfa: sp 0 +
STACK CFI 34e0c .cfa: x29 64 +
STACK CFI 34e44 .cfa: sp 176 +
STACK CFI 34e58 .cfa: sp 0 +
STACK CFI 34e5c .cfa: x29 64 +
STACK CFI 34e74 .cfa: sp 176 +
STACK CFI 34e88 .cfa: sp 0 +
STACK CFI 34e8c .cfa: x29 64 +
STACK CFI 34eac .cfa: sp 176 +
STACK CFI 34ec0 .cfa: sp 0 +
STACK CFI 34ec4 .cfa: x29 64 +
STACK CFI 34edc .cfa: sp 176 +
STACK CFI 34ef0 .cfa: sp 0 +
STACK CFI 34ef4 .cfa: x29 64 +
STACK CFI 34f08 .cfa: sp 176 +
STACK CFI 34f1c .cfa: sp 0 +
STACK CFI 34f20 .cfa: x29 64 +
STACK CFI 34f34 .cfa: sp 176 +
STACK CFI 34f48 .cfa: sp 0 +
STACK CFI 34f4c .cfa: x29 64 +
STACK CFI 34f5c .cfa: sp 176 +
STACK CFI 34f70 .cfa: sp 0 +
STACK CFI 34f74 .cfa: x29 64 +
STACK CFI 34f84 .cfa: sp 176 +
STACK CFI 34f98 .cfa: sp 0 +
STACK CFI 34f9c .cfa: x29 64 +
STACK CFI 34fb4 .cfa: sp 176 +
STACK CFI 34fc8 .cfa: sp 0 +
STACK CFI 34fcc .cfa: x29 64 +
STACK CFI 34fe0 .cfa: sp 176 +
STACK CFI 34ff4 .cfa: sp 0 +
STACK CFI 34ff8 .cfa: x29 64 +
STACK CFI 35010 .cfa: sp 176 +
STACK CFI 35024 .cfa: sp 0 +
STACK CFI 35028 .cfa: x29 64 +
STACK CFI 35054 .cfa: sp 176 +
STACK CFI 35068 .cfa: sp 0 +
STACK CFI 3506c .cfa: x29 64 +
STACK CFI 35080 .cfa: sp 176 +
STACK CFI 35094 .cfa: sp 0 +
STACK CFI 35098 .cfa: x29 64 +
STACK CFI INIT 350b8 228 .cfa: sp 0 +
STACK CFI INIT 352e0 2dc .cfa: sp 0 +
STACK CFI INIT 355bc 53c .cfa: sp 0 +
STACK CFI INIT 35af8 78 .cfa: sp 0 +
STACK CFI 35afc .cfa: sp 48 +
STACK CFI 35b08 .cfa: x29 48 + x19: .cfa -8 + ^ x20: .cfa -16 + ^ x21: .cfa -24 + ^ x22: .cfa -32 + ^ .ra: .cfa -40 + ^ x29: .cfa -48 + ^
STACK CFI 35b50 .cfa: sp 48 +
STACK CFI 35b5c .cfa: sp 0 +
STACK CFI 35b60 .cfa: sp 48 +
STACK CFI 35b6c .cfa: sp 0 +
STACK CFI INIT 35b70 8c .cfa: sp 0 +
STACK CFI 35b74 .cfa: sp 32 +
STACK CFI 35b7c .cfa: x29 32 + x19: .cfa -16 + ^ .ra: .cfa -24 + ^ x29: .cfa -32 + ^
STACK CFI 35bb0 .cfa: sp 32 +
STACK CFI 35bb8 .cfa: sp 0 +
STACK CFI 35bbc .cfa: x29 32 +
STACK CFI 35bf0 .cfa: sp 32 +
STACK CFI 35bf8 .cfa: sp 0 +
STACK CFI INIT 35bfc 24 .cfa: sp 0 +
STACK CFI 35c00 .cfa: sp 32 +
STACK CFI 35c08 .cfa: x29 32 + x19: .cfa -16 + ^ .ra: .cfa -24 + ^ x29: .cfa -32 + ^
STACK CFI 35c14 .cfa: sp 32 +
STACK CFI 35c1c .cfa: sp 0 +
STACK CFI INIT 35c20 150 .cfa: sp 0 +
STACK CFI 35c24 .cfa: sp 48 +
STACK CFI 35c30 .cfa: x29 48 + x19: .cfa -8 + ^ x20: .cfa -16 + ^ x21: .cfa -24 + ^ x22: .cfa -32 + ^ .ra: .cfa -40 + ^ x29: .cfa -48 + ^
STACK CFI 35d60 .cfa: sp 48 +
STACK CFI 35d6c .cfa: sp 0 +
STACK CFI INIT 35d70 68 .cfa: sp 0 +
STACK CFI 35d74 .cfa: sp 64 +
STACK CFI 35d80 .cfa: x29 32 + x19: .cfa -16 + ^ .ra: .cfa -24 + ^ x29: .cfa -32 + ^
STACK CFI 35dc4 .cfa: sp 64 +
STACK CFI 35dd0 .cfa: sp 0 +
STACK CFI 35dd4 .cfa: x29 32 +
STACK CFI INIT 35dd8 90 .cfa: sp 0 +
STACK CFI 35ddc .cfa: sp 32 +
STACK CFI 35de4 .cfa: x29 32 + x19: .cfa -8 + ^ x20: .cfa -16 + ^ .ra: .cfa -24 + ^ x29: .cfa -32 + ^
STACK CFI 35e10 .cfa: sp 32 +
STACK CFI 35e18 .cfa: sp 0 +
STACK CFI 35e1c .cfa: x29 32 +
STACK CFI 35e5c .cfa: sp 32 +
STACK CFI 35e64 .cfa: sp 0 +
STACK CFI INIT 35e68 ec .cfa: sp 0 +
STACK CFI 35e6c .cfa: sp 112 +
STACK CFI 35e7c .cfa: x29 48 + x19: .cfa -8 + ^ x20: .cfa -16 + ^ x21: .cfa -32 + ^ .ra: .cfa -40 + ^ x29: .cfa -48 + ^
STACK CFI 35f3c .cfa: sp 112 +
STACK CFI 35f4c .cfa: sp 0 +
STACK CFI 35f50 .cfa: x29 48 +
STACK CFI INIT 35f54 ec .cfa: sp 0 +
STACK CFI 35f58 .cfa: sp 112 +
STACK CFI 35f68 .cfa: x29 48 + x19: .cfa -8 + ^ x20: .cfa -16 + ^ x21: .cfa -32 + ^ .ra: .cfa -40 + ^ x29: .cfa -48 + ^
STACK CFI 36028 .cfa: sp 112 +
STACK CFI 36038 .cfa: sp 0 +
STACK CFI 3603c .cfa: x29 48 +
STACK CFI INIT 36040 48 .cfa: sp 0 +
STACK CFI 36044 .cfa: sp 32 +
STACK CFI 3604c .cfa: x29 32 + x19: .cfa -8 + ^ x20: .cfa -16 + ^ .ra: .cfa -24 + ^ x29: .cfa -32 + ^
STACK CFI 36070 .cfa: sp 32 +
STACK CFI 36078 .cfa: sp 0 +
STACK CFI 3607c .cfa: x29 32 +
STACK CFI INIT 36088 98 .cfa: sp 0 +
STACK CFI 3608c .cfa: sp 80 +
STACK CFI 36098 .cfa: x29 32 + x19: .cfa -16 + ^ .ra: .cfa -24 + ^ x29: .cfa -32 + ^
STACK CFI 3610c .cfa: sp 80 +
STACK CFI 36118 .cfa: sp 0 +
STACK CFI 3611c .cfa: x29 32 +
STACK CFI INIT 36120 260 .cfa: sp 0 +
STACK CFI 36124 .cfa: sp 112 +
STACK CFI 3613c .cfa: x29 80 + x19: .cfa -8 + ^ x20: .cfa -16 + ^ x21: .cfa -24 + ^ x22: .cfa -32 + ^ x23: .cfa -40 + ^ x24: .cfa -48 + ^ x25: .cfa -64 + ^ .ra: .cfa -72 + ^ x29: .cfa -80 + ^
STACK CFI 36320 .cfa: sp 112 +
STACK CFI 36338 .cfa: sp 0 +
STACK CFI 3633c .cfa: x29 80 +
STACK CFI INIT 36380 150 .cfa: sp 0 +
STACK CFI 36384 .cfa: sp 48 +
STACK CFI 36390 .cfa: x29 48 + x19: .cfa -8 + ^ x20: .cfa -16 + ^ x21: .cfa -24 + ^ x22: .cfa -32 + ^ .ra: .cfa -40 + ^ x29: .cfa -48 + ^
STACK CFI 364c0 .cfa: sp 48 +
STACK CFI 364cc .cfa: sp 0 +
STACK CFI INIT 364d0 1e0 .cfa: sp 0 +
STACK CFI 364d4 .cfa: sp 96 +
STACK CFI 364e8 .cfa: x29 64 + x19: .cfa -8 + ^ x20: .cfa -16 + ^ x21: .cfa -24 + ^ x22: .cfa -32 + ^ x23: .cfa -40 + ^ x24: .cfa -48 + ^ .ra: .cfa -56 + ^ x29: .cfa -64 + ^
STACK CFI 36668 .cfa: sp 96 +
STACK CFI 3667c .cfa: sp 0 +
STACK CFI 36680 .cfa: x29 64 +
STACK CFI INIT 366b0 284 .cfa: sp 0 +
STACK CFI 366b4 .cfa: sp 112 +
STACK CFI 366cc .cfa: x29 80 + x19: .cfa -8 + ^ x20: .cfa -16 + ^ x21: .cfa -24 + ^ x22: .cfa -32 + ^ x23: .cfa -40 + ^ x24: .cfa -48 + ^ x25: .cfa -64 + ^ .ra: .cfa -72 + ^ x29: .cfa -80 + ^
STACK CFI 368d4 .cfa: sp 112 +
STACK CFI 368ec .cfa: sp 0 +
STACK CFI 368f0 .cfa: x29 80 +
STACK CFI INIT 36934 208 .cfa: sp 0 +
STACK CFI 36938 .cfa: sp 96 +
STACK CFI 3694c .cfa: x29 64 + x19: .cfa -8 + ^ x20: .cfa -16 + ^ x21: .cfa -24 + ^ x22: .cfa -32 + ^ x23: .cfa -40 + ^ x24: .cfa -48 + ^ .ra: .cfa -56 + ^ x29: .cfa -64 + ^
STACK CFI 36af4 .cfa: sp 96 +
STACK CFI 36b08 .cfa: sp 0 +
STACK CFI 36b0c .cfa: x29 64 +
STACK CFI INIT 36b3c 360 .cfa: sp 0 +
STACK CFI 36b40 .cfa: sp 160 +
STACK CFI 36b5c .cfa: x29 96 + x19: .cfa -8 + ^ x20: .cfa -16 + ^ x21: .cfa -24 + ^ x22: .cfa -32 + ^ x23: .cfa -40 + ^ x24: .cfa -48 + ^ x25: .cfa -56 + ^ x26: .cfa -64 + ^ x27: .cfa -72 + ^ x28: .cfa -80 + ^ .ra: .cfa -88 + ^ x29: .cfa -96 + ^
STACK CFI 36e28 .cfa: sp 160 +
STACK CFI 36e44 .cfa: sp 0 +
STACK CFI 36e48 .cfa: x29 96 +
STACK CFI INIT 36e9c 314 .cfa: sp 0 +
STACK CFI 36ea0 .cfa: sp 144 +
STACK CFI 36ebc .cfa: x29 96 + x19: .cfa -8 + ^ x20: .cfa -16 + ^ x21: .cfa -24 + ^ x22: .cfa -32 + ^ x23: .cfa -40 + ^ x24: .cfa -48 + ^ x25: .cfa -56 + ^ x26: .cfa -64 + ^ x27: .cfa -72 + ^ x28: .cfa -80 + ^ .ra: .cfa -88 + ^ x29: .cfa -96 + ^
STACK CFI 37138 .cfa: sp 144 +
STACK CFI 37154 .cfa: sp 0 +
STACK CFI 37158 .cfa: x29 96 +
STACK CFI INIT 371b0 2b4 .cfa: sp 0 +
STACK CFI 371b4 .cfa: sp 128 +
STACK CFI 371cc .cfa: x29 80 + x19: .cfa -8 + ^ x20: .cfa -16 + ^ x21: .cfa -24 + ^ x22: .cfa -32 + ^ x23: .cfa -40 + ^ x24: .cfa -48 + ^ x25: .cfa -56 + ^ x26: .cfa -64 + ^ .ra: .cfa -72 + ^ x29: .cfa -80 + ^
STACK CFI 373c0 .cfa: sp 128 +
STACK CFI 373d8 .cfa: sp 0 +
STACK CFI 373dc .cfa: x29 80 +
STACK CFI 37444 .cfa: sp 128 +
STACK CFI 3745c .cfa: sp 0 +
STACK CFI 37460 .cfa: x29 80 +
STACK CFI INIT 37464 de0 .cfa: sp 0 +
STACK CFI 37468 .cfa: sp 144 +
STACK CFI 37484 .cfa: x29 96 + x19: .cfa -8 + ^ x20: .cfa -16 + ^ x21: .cfa -24 + ^ x22: .cfa -32 + ^ x23: .cfa -40 + ^ x24: .cfa -48 + ^ x25: .cfa -56 + ^ x26: .cfa -64 + ^ x27: .cfa -72 + ^ x28: .cfa -80 + ^ .ra: .cfa -88 + ^ x29: .cfa -96 + ^
STACK CFI 3811c .cfa: sp 144 +
STACK CFI 38138 .cfa: sp 0 +
STACK CFI 3813c .cfa: x29 96 +
STACK CFI INIT 38244 264 .cfa: sp 0 +
STACK CFI 38248 .cfa: sp 112 +
STACK CFI 3825c .cfa: x29 64 + x19: .cfa -8 + ^ x20: .cfa -16 + ^ x21: .cfa -24 + ^ x22: .cfa -32 + ^ x23: .cfa -40 + ^ x24: .cfa -48 + ^ .ra: .cfa -56 + ^ x29: .cfa -64 + ^
STACK CFI 383d8 .cfa: sp 112 +
STACK CFI 383ec .cfa: sp 0 +
STACK CFI 383f0 .cfa: x29 64 +
STACK CFI 38460 .cfa: sp 112 +
STACK CFI 38474 .cfa: sp 0 +
STACK CFI 38478 .cfa: x29 64 +
STACK CFI INIT 384a8 258 .cfa: sp 0 +
STACK CFI 384ac .cfa: sp 96 +
STACK CFI 384c4 .cfa: x29 96 + x19: .cfa -8 + ^ x20: .cfa -16 + ^ x21: .cfa -24 + ^ x22: .cfa -32 + ^ x23: .cfa -40 + ^ x24: .cfa -48 + ^ x25: .cfa -56 + ^ x26: .cfa -64 + ^ x27: .cfa -72 + ^ x28: .cfa -80 + ^ .ra: .cfa -88 + ^ x29: .cfa -96 + ^
STACK CFI 386bc .cfa: sp 96 +
STACK CFI 386d4 .cfa: sp 0 +
STACK CFI 386d8 .cfa: x29 96 +
STACK CFI 386e4 .cfa: sp 96 +
STACK CFI 386fc .cfa: sp 0 +
STACK CFI INIT 39384 154 .cfa: sp 0 +
STACK CFI 39388 .cfa: sp 96 +
STACK CFI 3939c .cfa: x29 64 + x19: .cfa -8 + ^ x20: .cfa -16 + ^ x21: .cfa -24 + ^ x22: .cfa -32 + ^ x23: .cfa -48 + ^ .ra: .cfa -56 + ^ x29: .cfa -64 + ^
STACK CFI 3947c .cfa: sp 96 +
STACK CFI 39490 .cfa: sp 0 +
STACK CFI 39494 .cfa: x29 64 +
STACK CFI INIT 39744 44 .cfa: sp 0 +
STACK CFI 39748 .cfa: sp 32 +
STACK CFI 39750 .cfa: x29 32 + x19: .cfa -16 + ^ .ra: .cfa -24 + ^ x29: .cfa -32 + ^
STACK CFI 3976c .cfa: sp 32 +
STACK CFI 39774 .cfa: sp 0 +
STACK CFI 39778 .cfa: x29 32 +
STACK CFI 3977c .cfa: sp 32 +
STACK CFI 39784 .cfa: sp 0 +
STACK CFI INIT 39788 1d0 .cfa: sp 0 +
STACK CFI 3978c .cfa: sp 64 +
STACK CFI 3979c .cfa: x29 64 + x19: .cfa -8 + ^ x20: .cfa -16 + ^ x21: .cfa -24 + ^ x22: .cfa -32 + ^ x23: .cfa -40 + ^ x24: .cfa -48 + ^ .ra: .cfa -56 + ^ x29: .cfa -64 + ^
STACK CFI 3985c .cfa: sp 64 +
STACK CFI 3986c .cfa: sp 0 +
STACK CFI 39870 .cfa: x29 64 +
STACK CFI INIT 39958 17c .cfa: sp 0 +
STACK CFI INIT 39ad4 ac .cfa: sp 0 +
STACK CFI 39ad8 .cfa: sp 64 +
STACK CFI 39ae8 .cfa: x29 64 + x19: .cfa -8 + ^ x20: .cfa -16 + ^ x21: .cfa -24 + ^ x22: .cfa -32 + ^ x23: .cfa -48 + ^ .ra: .cfa -56 + ^ x29: .cfa -64 + ^
STACK CFI 39b64 .cfa: sp 64 +
STACK CFI 39b74 .cfa: sp 0 +
STACK CFI 39b78 .cfa: x29 64 +
STACK CFI INIT 39b80 110 .cfa: sp 0 +
STACK CFI 39b84 .cfa: sp 64 +
STACK CFI 39b94 .cfa: x29 64 + x19: .cfa -8 + ^ x20: .cfa -16 + ^ x21: .cfa -24 + ^ x22: .cfa -32 + ^ x23: .cfa -40 + ^ x24: .cfa -48 + ^ .ra: .cfa -56 + ^ x29: .cfa -64 + ^
STACK CFI 39c74 .cfa: sp 64 +
STACK CFI 39c84 .cfa: sp 0 +
STACK CFI 39c88 .cfa: x29 64 +
STACK CFI INIT 3a048 a0 .cfa: sp 0 +
STACK CFI 3a04c .cfa: sp 48 +
STACK CFI 3a058 .cfa: x29 48 + x19: .cfa -8 + ^ x20: .cfa -16 + ^ x21: .cfa -24 + ^ x22: .cfa -32 + ^ .ra: .cfa -40 + ^ x29: .cfa -48 + ^
STACK CFI 3a0c4 .cfa: sp 48 +
STACK CFI 3a0d0 .cfa: sp 0 +
STACK CFI 3a0d4 .cfa: sp 48 +
STACK CFI 3a0e0 .cfa: sp 0 +
STACK CFI 3a0e4 .cfa: x29 48 +
STACK CFI INIT 3ada8 158 .cfa: sp 0 +
STACK CFI 3adac .cfa: sp 96 +
STACK CFI 3adc0 .cfa: x29 64 + x19: .cfa -8 + ^ x20: .cfa -16 + ^ x21: .cfa -24 + ^ x22: .cfa -32 + ^ x23: .cfa -48 + ^ .ra: .cfa -56 + ^ x29: .cfa -64 + ^
STACK CFI 3aea4 .cfa: sp 96 +
STACK CFI 3aeb8 .cfa: sp 0 +
STACK CFI 3aebc .cfa: x29 64 +
STACK CFI INIT 3af00 190 .cfa: sp 0 +
STACK CFI INIT 3bb88 1f4 .cfa: sp 0 +
STACK CFI 3bb8c .cfa: sp 80 +
STACK CFI 3bba0 .cfa: x29 80 + x19: .cfa -8 + ^ x20: .cfa -16 + ^ x21: .cfa -24 + ^ x22: .cfa -32 + ^ x23: .cfa -40 + ^ x24: .cfa -48 + ^ x25: .cfa -64 + ^ .ra: .cfa -72 + ^ x29: .cfa -80 + ^
STACK CFI 3bd40 .cfa: sp 80 +
STACK CFI 3bd54 .cfa: sp 0 +
STACK CFI 3bd58 .cfa: x29 80 +
STACK CFI 3bd64 .cfa: sp 80 +
STACK CFI 3bd78 .cfa: sp 0 +
STACK CFI INIT 3d1ac 124 .cfa: sp 0 +
STACK CFI 3d1dc .cfa: sp 32 +
STACK CFI 3d1e4 .cfa: x29 32 + x19: .cfa -8 + ^ x20: .cfa -16 + ^ .ra: .cfa -24 + ^ x29: .cfa -32 + ^
STACK CFI 3d2c4 .cfa: sp 32 +
STACK CFI 3d2cc .cfa: sp 0 +
STACK CFI INIT 3da2c 320 .cfa: sp 0 +
STACK CFI 3da30 .cfa: sp 64 +
STACK CFI 3da40 .cfa: x29 64 + x19: .cfa -8 + ^ x20: .cfa -16 + ^ x21: .cfa -24 + ^ x22: .cfa -32 + ^ x23: .cfa -40 + ^ x24: .cfa -48 + ^ .ra: .cfa -56 + ^ x29: .cfa -64 + ^
STACK CFI 3dabc .cfa: sp 64 +
STACK CFI 3dacc .cfa: sp 0 +
STACK CFI 3dad0 .cfa: x29 64 +
STACK CFI 3dca4 .cfa: sp 64 +
STACK CFI 3dcb4 .cfa: sp 0 +
STACK CFI 3dcb8 .cfa: x29 64 +
STACK CFI 3dcc8 .cfa: sp 64 +
STACK CFI 3dcd8 .cfa: sp 0 +
STACK CFI 3dcdc .cfa: x29 64 +
STACK CFI INIT 3dd4c a0 .cfa: sp 0 +
STACK CFI 3dd50 .cfa: sp 48 +
STACK CFI 3dd5c .cfa: x29 48 + x19: .cfa -8 + ^ x20: .cfa -16 + ^ x21: .cfa -24 + ^ x22: .cfa -32 + ^ .ra: .cfa -40 + ^ x29: .cfa -48 + ^
STACK CFI 3ddc8 .cfa: sp 48 +
STACK CFI 3ddd4 .cfa: sp 0 +
STACK CFI 3ddd8 .cfa: sp 48 +
STACK CFI 3dde4 .cfa: sp 0 +
STACK CFI 3dde8 .cfa: x29 48 +
STACK CFI INIT 3eccc 160 .cfa: sp 0 +
STACK CFI 3ecd0 .cfa: sp 64 +
STACK CFI 3ece0 .cfa: x29 64 + x19: .cfa -8 + ^ x20: .cfa -16 + ^ x21: .cfa -24 + ^ x22: .cfa -32 + ^ x23: .cfa -48 + ^ .ra: .cfa -56 + ^ x29: .cfa -64 + ^
STACK CFI 3edd8 .cfa: sp 64 +
STACK CFI 3ede8 .cfa: sp 0 +
STACK CFI 3edec .cfa: x29 64 +
STACK CFI INIT 3ee2c 214 .cfa: sp 0 +
STACK CFI 3ee30 .cfa: sp 128 +
STACK CFI 3ee4c .cfa: x29 96 + x19: .cfa -8 + ^ x20: .cfa -16 + ^ x21: .cfa -24 + ^ x22: .cfa -32 + ^ x23: .cfa -40 + ^ x24: .cfa -48 + ^ x25: .cfa -56 + ^ x26: .cfa -64 + ^ x27: .cfa -80 + ^ .ra: .cfa -88 + ^ x29: .cfa -96 + ^
STACK CFI 3efc8 .cfa: sp 128 +
STACK CFI 3efe4 .cfa: sp 0 +
STACK CFI 3efe8 .cfa: x29 96 +
STACK CFI INIT 404f4 e60 .cfa: sp 0 +
STACK CFI 404f8 .cfa: sp 192 +
STACK CFI 40514 .cfa: x29 96 + x19: .cfa -8 + ^ x20: .cfa -16 + ^ x21: .cfa -24 + ^ x22: .cfa -32 + ^ x23: .cfa -40 + ^ x24: .cfa -48 + ^ x25: .cfa -56 + ^ x26: .cfa -64 + ^ x27: .cfa -72 + ^ x28: .cfa -80 + ^ .ra: .cfa -88 + ^ x29: .cfa -96 + ^
STACK CFI 4123c .cfa: sp 192 +
STACK CFI 41258 .cfa: sp 0 +
STACK CFI 4125c .cfa: x29 96 +
STACK CFI INIT 41354 1090 .cfa: sp 0 +
STACK CFI 41358 .cfa: sp 288 +
STACK CFI 41374 .cfa: x29 96 + x19: .cfa -8 + ^ x20: .cfa -16 + ^ x21: .cfa -24 + ^ x22: .cfa -32 + ^ x23: .cfa -40 + ^ x24: .cfa -48 + ^ x25: .cfa -56 + ^ x26: .cfa -64 + ^ x27: .cfa -72 + ^ x28: .cfa -80 + ^ .ra: .cfa -88 + ^ x29: .cfa -96 + ^
STACK CFI 4212c .cfa: sp 288 +
STACK CFI 42148 .cfa: sp 0 +
STACK CFI 4214c .cfa: x29 96 +
STACK CFI INIT 423e4 520 .cfa: sp 0 +
STACK CFI 423e8 .cfa: sp 144 +
STACK CFI 42404 .cfa: x29 96 + x19: .cfa -8 + ^ x20: .cfa -16 + ^ x21: .cfa -24 + ^ x22: .cfa -32 + ^ x23: .cfa -40 + ^ x24: .cfa -48 + ^ x25: .cfa -56 + ^ x26: .cfa -64 + ^ x27: .cfa -72 + ^ x28: .cfa -80 + ^ .ra: .cfa -88 + ^ x29: .cfa -96 + ^
STACK CFI 428e0 .cfa: sp 144 +
STACK CFI 428fc .cfa: sp 0 +
STACK CFI 42900 .cfa: x29 96 +
STACK CFI INIT 204c8 134 .cfa: sp 0 +
STACK CFI 204cc .cfa: sp 80 +
STACK CFI 204dc .cfa: x29 48 + x19: .cfa -8 + ^ x20: .cfa -16 + ^ x21: .cfa -24 + ^ x22: .cfa -32 + ^ .ra: .cfa -40 + ^ x29: .cfa -48 + ^
STACK CFI 205e0 .cfa: sp 80 +
STACK CFI 205f0 .cfa: sp 0 +
STACK CFI 205f4 .cfa: x29 48 +
STACK CFI INIT 2068c fc .cfa: sp 0 +
STACK CFI 20690 .cfa: sp 48 +
STACK CFI 2069c .cfa: x29 32 + x19: .cfa -8 + ^ x20: .cfa -16 + ^ .ra: .cfa -24 + ^ x29: .cfa -32 + ^
STACK CFI 20750 .cfa: sp 48 +
STACK CFI 2075c .cfa: sp 0 +
STACK CFI 20760 .cfa: x29 32 +
STACK CFI INIT 20918 62c .cfa: sp 0 +
STACK CFI 2091c .cfa: sp 160 +
STACK CFI 20940 .cfa: x29 80 + x19: .cfa -8 + ^ x20: .cfa -16 + ^ x21: .cfa -24 + ^ x22: .cfa -32 + ^ x23: .cfa -40 + ^ x24: .cfa -48 + ^ x25: .cfa -56 + ^ x26: .cfa -64 + ^ .ra: .cfa -72 + ^ x29: .cfa -80 + ^ v8: .cfa -88 + ^ v9: .cfa -96 + ^ v10: .cfa -104 + ^ v11: .cfa -112 + ^ v12: .cfa -128 + ^
STACK CFI 20eb8 .cfa: sp 160 +
STACK CFI 20edc .cfa: sp 0 +
STACK CFI 20ee0 .cfa: x29 80 +
STACK CFI INIT 20ff8 50 .cfa: sp 0 +
STACK CFI 20ffc .cfa: sp 32 +
STACK CFI 21004 .cfa: x29 32 + x19: .cfa -8 + ^ x20: .cfa -16 + ^ .ra: .cfa -24 + ^ x29: .cfa -32 + ^
STACK CFI INIT 210ac 194 .cfa: sp 0 +
STACK CFI 210b0 .cfa: sp 112 +
STACK CFI 210c0 .cfa: x29 48 + x19: .cfa -8 + ^ x20: .cfa -16 + ^ x21: .cfa -24 + ^ x22: .cfa -32 + ^ .ra: .cfa -40 + ^ x29: .cfa -48 + ^
STACK CFI 2119c .cfa: sp 112 +
STACK CFI 211ac .cfa: sp 0 +
STACK CFI 211b0 .cfa: x29 48 +
STACK CFI INIT 21240 2b8 .cfa: sp 0 +
STACK CFI 21244 .cfa: sp 160 +
STACK CFI 21260 .cfa: x29 96 + x19: .cfa -8 + ^ x20: .cfa -16 + ^ x21: .cfa -24 + ^ x22: .cfa -32 + ^ x23: .cfa -40 + ^ x24: .cfa -48 + ^ x25: .cfa -56 + ^ x26: .cfa -64 + ^ x27: .cfa -72 + ^ x28: .cfa -80 + ^ .ra: .cfa -88 + ^ x29: .cfa -96 + ^
STACK CFI 21298 .cfa: sp 160 +
STACK CFI 212b4 .cfa: sp 0 +
STACK CFI 212b8 .cfa: x29 96 +
STACK CFI INIT 214f8 114 .cfa: sp 0 +
STACK CFI 214fc .cfa: sp 64 +
STACK CFI 2150c .cfa: x29 64 + x19: .cfa -8 + ^ x20: .cfa -16 + ^ x21: .cfa -24 + ^ x22: .cfa -32 + ^ x23: .cfa -48 + ^ .ra: .cfa -56 + ^ x29: .cfa -64 + ^
STACK CFI 215e8 .cfa: sp 64 +
STACK CFI 215f8 .cfa: sp 0 +
STACK CFI 215fc .cfa: x29 64 +
STACK CFI INIT 21628 22c .cfa: sp 0 +
STACK CFI 2162c .cfa: sp 96 +
STACK CFI 21644 .cfa: x29 96 + x19: .cfa -8 + ^ x20: .cfa -16 + ^ x21: .cfa -24 + ^ x22: .cfa -32 + ^ x23: .cfa -40 + ^ x24: .cfa -48 + ^ x25: .cfa -56 + ^ x26: .cfa -64 + ^ x27: .cfa -80 + ^ .ra: .cfa -88 + ^ x29: .cfa -96 + ^
STACK CFI 217e8 .cfa: sp 96 +
STACK CFI 21800 .cfa: sp 0 +
STACK CFI 21804 .cfa: x29 96 +
STACK CFI INIT 2187c 50 .cfa: sp 0 +
STACK CFI 21880 .cfa: sp 32 +
STACK CFI 21888 .cfa: x29 32 + x19: .cfa -8 + ^ x20: .cfa -16 + ^ .ra: .cfa -24 + ^ x29: .cfa -32 + ^
STACK CFI INIT 219ec 408 .cfa: sp 0 +
STACK CFI 219f0 .cfa: sp 224 +
STACK CFI 21a0c .cfa: x29 96 + x19: .cfa -8 + ^ x20: .cfa -16 + ^ x21: .cfa -24 + ^ x22: .cfa -32 + ^ x23: .cfa -40 + ^ x24: .cfa -48 + ^ x25: .cfa -56 + ^ x26: .cfa -64 + ^ x27: .cfa -72 + ^ x28: .cfa -80 + ^ .ra: .cfa -88 + ^ x29: .cfa -96 + ^
STACK CFI 21cf0 .cfa: sp 224 +
STACK CFI 21d0c .cfa: sp 0 +
STACK CFI 21d10 .cfa: x29 96 +
STACK CFI INIT 21df4 444 .cfa: sp 0 +
STACK CFI 21df8 .cfa: sp 144 +
STACK CFI 21e0c .cfa: x29 64 + x19: .cfa -8 + ^ x20: .cfa -16 + ^ x21: .cfa -24 + ^ x22: .cfa -32 + ^ x23: .cfa -40 + ^ x24: .cfa -48 + ^ .ra: .cfa -56 + ^ x29: .cfa -64 + ^
STACK CFI 220f8 .cfa: sp 144 +
STACK CFI 2210c .cfa: sp 0 +
STACK CFI 22110 .cfa: x29 64 +
STACK CFI INIT 22288 74 .cfa: sp 0 +
STACK CFI 2228c .cfa: sp 48 +
STACK CFI 22298 .cfa: x29 32 + x19: .cfa -8 + ^ x20: .cfa -16 + ^ .ra: .cfa -24 + ^ x29: .cfa -32 + ^
STACK CFI 222e4 .cfa: sp 48 +
STACK CFI 222f0 .cfa: sp 0 +
STACK CFI 222f4 .cfa: x29 32 +
STACK CFI INIT 2237c 154 .cfa: sp 0 +
STACK CFI 22380 .cfa: sp 384 +
STACK CFI 22394 .cfa: x29 64 + x19: .cfa -8 + ^ x20: .cfa -16 + ^ x21: .cfa -24 + ^ x22: .cfa -32 + ^ x23: .cfa -40 + ^ x28: .cfa -48 + ^ .ra: .cfa -56 + ^ x29: .cfa -64 + ^
STACK CFI 22478 .cfa: sp 384 +
STACK CFI 2248c .cfa: sp 0 +
STACK CFI 22490 .cfa: x29 64 +
STACK CFI INIT 22504 12c .cfa: sp 0 +
STACK CFI 22508 .cfa: sp 80 +
STACK CFI 2251c .cfa: x29 80 + x19: .cfa -8 + ^ x20: .cfa -16 + ^ x21: .cfa -24 + ^ x22: .cfa -32 + ^ x23: .cfa -40 + ^ x24: .cfa -48 + ^ x25: .cfa -56 + ^ x26: .cfa -64 + ^ .ra: .cfa -72 + ^ x29: .cfa -80 + ^
STACK CFI 225e4 .cfa: sp 80 +
STACK CFI 225f8 .cfa: sp 0 +
STACK CFI 225fc .cfa: x29 80 +
STACK CFI INIT 226d4 1a4 .cfa: sp 0 +
STACK CFI 226d8 .cfa: sp 112 +
STACK CFI 226f0 .cfa: x29 80 + x19: .cfa -8 + ^ x20: .cfa -16 + ^ x21: .cfa -24 + ^ x22: .cfa -32 + ^ x23: .cfa -40 + ^ x24: .cfa -48 + ^ x25: .cfa -56 + ^ x26: .cfa -64 + ^ .ra: .cfa -72 + ^ x29: .cfa -80 + ^
STACK CFI 227e0 .cfa: sp 112 +
STACK CFI 227f8 .cfa: sp 0 +
STACK CFI 227fc .cfa: x29 80 +
STACK CFI INIT 22878 1dc .cfa: sp 0 +
STACK CFI 2287c .cfa: sp 128 +
STACK CFI 22898 .cfa: x29 96 + x19: .cfa -8 + ^ x20: .cfa -16 + ^ x21: .cfa -24 + ^ x22: .cfa -32 + ^ x23: .cfa -40 + ^ x24: .cfa -48 + ^ x25: .cfa -56 + ^ x26: .cfa -64 + ^ x27: .cfa -80 + ^ .ra: .cfa -88 + ^ x29: .cfa -96 + ^
STACK CFI 22a04 .cfa: sp 128 +
STACK CFI 22a20 .cfa: sp 0 +
STACK CFI 22a24 .cfa: x29 96 +
STACK CFI INIT 22a54 178 .cfa: sp 0 +
STACK CFI 22a58 .cfa: sp 80 +
STACK CFI 22a6c .cfa: x29 80 + x19: .cfa -8 + ^ x20: .cfa -16 + ^ x21: .cfa -24 + ^ x22: .cfa -32 + ^ x23: .cfa -40 + ^ x24: .cfa -48 + ^ x25: .cfa -64 + ^ .ra: .cfa -72 + ^ x29: .cfa -80 + ^
STACK CFI 22b98 .cfa: sp 80 +
STACK CFI 22bac .cfa: sp 0 +
STACK CFI 22bb0 .cfa: x29 80 +
STACK CFI INIT 22d14 228 .cfa: sp 0 +
STACK CFI 22d18 .cfa: sp 128 +
STACK CFI 22d30 .cfa: x29 80 + x19: .cfa -8 + ^ x20: .cfa -16 + ^ x21: .cfa -24 + ^ x22: .cfa -32 + ^ x23: .cfa -40 + ^ x24: .cfa -48 + ^ x25: .cfa -64 + ^ .ra: .cfa -72 + ^ x29: .cfa -80 + ^
STACK CFI 22ecc .cfa: sp 128 +
STACK CFI 22ee4 .cfa: sp 0 +
STACK CFI 22ee8 .cfa: x29 80 +
STACK CFI INIT 23698 134 .cfa: sp 0 +
STACK CFI 2369c .cfa: sp 128 +
STACK CFI 236b0 .cfa: x29 64 + x19: .cfa -8 + ^ x20: .cfa -16 + ^ x21: .cfa -24 + ^ x22: .cfa -32 + ^ x23: .cfa -40 + ^ x24: .cfa -48 + ^ .ra: .cfa -56 + ^ x29: .cfa -64 + ^
STACK CFI 2377c .cfa: sp 128 +
STACK CFI 23790 .cfa: sp 0 +
STACK CFI 23794 .cfa: x29 64 +
STACK CFI INIT 237d0 184 .cfa: sp 0 +
STACK CFI 237d4 .cfa: sp 144 +
STACK CFI 237ec .cfa: x29 80 + x19: .cfa -8 + ^ x20: .cfa -16 + ^ x21: .cfa -24 + ^ x22: .cfa -32 + ^ x23: .cfa -40 + ^ x24: .cfa -48 + ^ x25: .cfa -56 + ^ x26: .cfa -64 + ^ .ra: .cfa -72 + ^ x29: .cfa -80 + ^
STACK CFI 238ec .cfa: sp 144 +
STACK CFI 23904 .cfa: sp 0 +
STACK CFI 23908 .cfa: x29 80 +
STACK CFI INIT 239b8 ec .cfa: sp 0 +
STACK CFI 239bc .cfa: sp 48 +
STACK CFI 239c8 .cfa: x29 48 + x19: .cfa -8 + ^ x20: .cfa -16 + ^ x21: .cfa -24 + ^ x22: .cfa -32 + ^ .ra: .cfa -40 + ^ x29: .cfa -48 + ^
STACK CFI 23a14 .cfa: sp 48 +
STACK CFI 23a20 .cfa: sp 0 +
STACK CFI 23a24 .cfa: x29 48 +
STACK CFI 23a28 .cfa: sp 48 +
STACK CFI 23a34 .cfa: sp 0 +
STACK CFI 23a38 .cfa: x29 48 +
STACK CFI INIT 23f1c ec .cfa: sp 0 +
STACK CFI 23f20 .cfa: sp 48 +
STACK CFI 23f2c .cfa: x29 48 + x19: .cfa -8 + ^ x20: .cfa -16 + ^ x21: .cfa -24 + ^ x22: .cfa -32 + ^ .ra: .cfa -40 + ^ x29: .cfa -48 + ^
STACK CFI 23f78 .cfa: sp 48 +
STACK CFI 23f84 .cfa: sp 0 +
STACK CFI 23f88 .cfa: x29 48 +
STACK CFI 23f8c .cfa: sp 48 +
STACK CFI 23f98 .cfa: sp 0 +
STACK CFI 23f9c .cfa: x29 48 +
STACK CFI INIT 24008 948 .cfa: sp 0 +
STACK CFI 2400c .cfa: sp 96 +
STACK CFI 24024 .cfa: x29 96 + x19: .cfa -8 + ^ x20: .cfa -16 + ^ x21: .cfa -24 + ^ x22: .cfa -32 + ^ x23: .cfa -40 + ^ x24: .cfa -48 + ^ x25: .cfa -56 + ^ x26: .cfa -64 + ^ x27: .cfa -72 + ^ x28: .cfa -80 + ^ .ra: .cfa -88 + ^ x29: .cfa -96 + ^
STACK CFI 24850 .cfa: sp 96 +
STACK CFI 24868 .cfa: sp 0 +
STACK CFI 2486c .cfa: x29 96 +
STACK CFI INIT 24950 1dc .cfa: sp 0 +
STACK CFI 24954 .cfa: sp 112 +
STACK CFI 24968 .cfa: x29 48 + x19: .cfa -8 + ^ x20: .cfa -16 + ^ x21: .cfa -24 + ^ x22: .cfa -32 + ^ .ra: .cfa -40 + ^ x29: .cfa -48 + ^ v8: .cfa -64 + ^
STACK CFI 24aec .cfa: sp 112 +
STACK CFI 24b00 .cfa: sp 0 +
STACK CFI 24b04 .cfa: x29 48 +
STACK CFI INIT 24b2c 3d8 .cfa: sp 0 +
STACK CFI 24b30 .cfa: sp 112 +
STACK CFI 24b4c .cfa: x29 96 + x19: .cfa -8 + ^ x20: .cfa -16 + ^ x21: .cfa -24 + ^ x22: .cfa -32 + ^ x23: .cfa -40 + ^ x24: .cfa -48 + ^ x25: .cfa -56 + ^ x26: .cfa -64 + ^ x27: .cfa -72 + ^ x28: .cfa -80 + ^ .ra: .cfa -88 + ^ x29: .cfa -96 + ^ v8: .cfa -112 + ^
STACK CFI 24e04 .cfa: sp 112 +
STACK CFI 24e20 .cfa: sp 0 +
STACK CFI 24e24 .cfa: x29 96 +
STACK CFI INIT 250dc a78 .cfa: sp 0 +
STACK CFI 250e0 .cfa: sp 320 +
STACK CFI 2510c .cfa: x29 96 + x19: .cfa -8 + ^ x20: .cfa -16 + ^ x21: .cfa -24 + ^ x22: .cfa -32 + ^ x23: .cfa -40 + ^ x24: .cfa -48 + ^ x25: .cfa -56 + ^ x26: .cfa -64 + ^ x27: .cfa -72 + ^ x28: .cfa -80 + ^ .ra: .cfa -88 + ^ x29: .cfa -96 + ^ v8: .cfa -104 + ^ v9: .cfa -112 + ^ v10: .cfa -120 + ^ v11: .cfa -128 + ^ v12: .cfa -136 + ^ v13: .cfa -144 + ^ v14: .cfa -152 + ^ v15: .cfa -160 + ^
STACK CFI 2515c .cfa: sp 320 +
STACK CFI 25188 .cfa: sp 0 +
STACK CFI 2518c .cfa: x29 96 +
STACK CFI INIT 25c70 130 .cfa: sp 0 +
STACK CFI 25c74 .cfa: sp 96 +
STACK CFI 25c88 .cfa: x29 48 + x19: .cfa -8 + ^ x20: .cfa -16 + ^ x21: .cfa -24 + ^ x22: .cfa -32 + ^ .ra: .cfa -40 + ^ x29: .cfa -48 + ^ v8: .cfa -64 + ^
STACK CFI 25d80 .cfa: sp 96 +
STACK CFI 25d94 .cfa: sp 0 +
STACK CFI 25d98 .cfa: x29 48 +
STACK CFI INIT 25da0 76c .cfa: sp 0 +
STACK CFI 25da4 .cfa: sp 192 +
STACK CFI 25dc8 .cfa: x29 96 + x19: .cfa -8 + ^ x20: .cfa -16 + ^ x21: .cfa -24 + ^ x22: .cfa -32 + ^ x23: .cfa -40 + ^ x24: .cfa -48 + ^ x25: .cfa -56 + ^ x26: .cfa -64 + ^ x27: .cfa -72 + ^ x28: .cfa -80 + ^ .ra: .cfa -88 + ^ x29: .cfa -96 + ^ v8: .cfa -104 + ^ v9: .cfa -112 + ^ v10: .cfa -128 + ^
STACK CFI 26444 .cfa: sp 192 +
STACK CFI 26468 .cfa: sp 0 +
STACK CFI 2646c .cfa: x29 96 +
STACK CFI INIT 2650c 1e8 .cfa: sp 0 +
STACK CFI 26510 .cfa: sp 160 +
STACK CFI 26520 .cfa: x29 48 + x19: .cfa -8 + ^ x20: .cfa -16 + ^ x21: .cfa -24 + ^ x22: .cfa -32 + ^ .ra: .cfa -40 + ^ x29: .cfa -48 + ^
STACK CFI 26688 .cfa: sp 160 +
STACK CFI 26698 .cfa: sp 0 +
STACK CFI 2669c .cfa: x29 48 +
STACK CFI INIT 26cb0 ac0 .cfa: sp 0 +
STACK CFI 26cb4 .cfa: sp 160 +
STACK CFI 26cd4 .cfa: x29 96 + x19: .cfa -8 + ^ x20: .cfa -16 + ^ x21: .cfa -24 + ^ x22: .cfa -32 + ^ x23: .cfa -40 + ^ x24: .cfa -48 + ^ x25: .cfa -56 + ^ x26: .cfa -64 + ^ x27: .cfa -72 + ^ x28: .cfa -80 + ^ .ra: .cfa -88 + ^ x29: .cfa -96 + ^ v8: .cfa -104 + ^ v9: .cfa -112 + ^
STACK CFI 276dc .cfa: sp 160 +
STACK CFI 276fc .cfa: sp 0 +
STACK CFI 27700 .cfa: x29 96 +
STACK CFI INIT 27794 1dc .cfa: sp 0 +
STACK CFI 27798 .cfa: sp 80 +
STACK CFI 277ac .cfa: x29 80 + x19: .cfa -8 + ^ x20: .cfa -16 + ^ x21: .cfa -24 + ^ x22: .cfa -32 + ^ x23: .cfa -40 + ^ x24: .cfa -48 + ^ x25: .cfa -64 + ^ .ra: .cfa -72 + ^ x29: .cfa -80 + ^
STACK CFI 2793c .cfa: sp 80 +
STACK CFI 27950 .cfa: sp 0 +
STACK CFI 27954 .cfa: x29 80 +
STACK CFI INIT 279a0 74 .cfa: sp 0 +
STACK CFI 279a4 .cfa: sp 48 +
STACK CFI 279b0 .cfa: x29 32 + x19: .cfa -8 + ^ x20: .cfa -16 + ^ .ra: .cfa -24 + ^ x29: .cfa -32 + ^
STACK CFI 279fc .cfa: sp 48 +
STACK CFI 27a08 .cfa: sp 0 +
STACK CFI 27a0c .cfa: x29 32 +
STACK CFI INIT 27a14 108 .cfa: sp 0 +
STACK CFI 27a18 .cfa: sp 112 +
STACK CFI 27a24 .cfa: x29 32 + x19: .cfa -8 + ^ x20: .cfa -16 + ^ .ra: .cfa -24 + ^ x29: .cfa -32 + ^
STACK CFI 27aec .cfa: sp 112 +
STACK CFI 27af8 .cfa: sp 0 +
STACK CFI 27afc .cfa: x29 32 +
STACK CFI INIT 27ec0 174 .cfa: sp 0 +
STACK CFI 27ec4 .cfa: sp 112 +
STACK CFI 27ed4 .cfa: x29 48 + x19: .cfa -8 + ^ x20: .cfa -16 + ^ x21: .cfa -32 + ^ .ra: .cfa -40 + ^ x29: .cfa -48 + ^
STACK CFI 27fd0 .cfa: sp 112 +
STACK CFI 27fe0 .cfa: sp 0 +
STACK CFI 27fe4 .cfa: x29 48 +
STACK CFI INIT 28184 12c .cfa: sp 0 +
STACK CFI 28188 .cfa: sp 80 +
STACK CFI 28198 .cfa: x29 48 + x19: .cfa -8 + ^ x20: .cfa -16 + ^ x21: .cfa -32 + ^ .ra: .cfa -40 + ^ x29: .cfa -48 + ^
STACK CFI 28230 .cfa: sp 80 +
STACK CFI 28240 .cfa: sp 0 +
STACK CFI 28244 .cfa: x29 48 +
STACK CFI INIT 282b0 c4 .cfa: sp 0 +
STACK CFI 282b4 .cfa: sp 32 +
STACK CFI 282bc .cfa: x29 32 + x19: .cfa -8 + ^ x20: .cfa -16 + ^ .ra: .cfa -24 + ^ x29: .cfa -32 + ^
STACK CFI 28330 .cfa: sp 32 +
STACK CFI 28338 .cfa: sp 0 +
STACK CFI 2833c .cfa: x29 32 +
STACK CFI 28354 .cfa: sp 32 +
STACK CFI 2835c .cfa: sp 0 +
STACK CFI 28360 .cfa: x29 32 +
STACK CFI INIT 28374 350 .cfa: sp 0 +
STACK CFI 28378 .cfa: sp 160 +
STACK CFI 28398 .cfa: x29 96 + x19: .cfa -8 + ^ x20: .cfa -16 + ^ x21: .cfa -24 + ^ x22: .cfa -32 + ^ x23: .cfa -40 + ^ x24: .cfa -48 + ^ x25: .cfa -56 + ^ x26: .cfa -64 + ^ x27: .cfa -72 + ^ x28: .cfa -80 + ^ .ra: .cfa -88 + ^ x29: .cfa -96 + ^ v8: .cfa -112 + ^
STACK CFI 285fc .cfa: sp 160 +
STACK CFI 2861c .cfa: sp 0 +
STACK CFI 28620 .cfa: x29 96 +
STACK CFI 28630 .cfa: sp 160 +
STACK CFI 28650 .cfa: sp 0 +
STACK CFI 28654 .cfa: x29 96 +
STACK CFI INIT 286c4 ccc .cfa: sp 0 +
STACK CFI 286c8 .cfa: sp 224 +
STACK CFI 286f4 .cfa: x29 96 + x19: .cfa -8 + ^ x20: .cfa -16 + ^ x21: .cfa -24 + ^ x22: .cfa -32 + ^ x23: .cfa -40 + ^ x24: .cfa -48 + ^ x25: .cfa -56 + ^ x26: .cfa -64 + ^ x27: .cfa -72 + ^ x28: .cfa -80 + ^ .ra: .cfa -88 + ^ x29: .cfa -96 + ^ v8: .cfa -104 + ^ v9: .cfa -112 + ^ v10: .cfa -120 + ^ v11: .cfa -128 + ^ v12: .cfa -136 + ^ v13: .cfa -144 + ^ v14: .cfa -152 + ^ v15: .cfa -160 + ^
STACK CFI 2916c .cfa: sp 224 +
STACK CFI 29198 .cfa: sp 0 +
STACK CFI 2919c .cfa: sp 224 +
STACK CFI 291c8 .cfa: sp 0 +
STACK CFI 291cc .cfa: x29 96 +
STACK CFI INIT 2962c 480 .cfa: sp 0 +
STACK CFI 29630 .cfa: sp 224 +
STACK CFI 2964c .cfa: x29 96 + x19: .cfa -8 + ^ x20: .cfa -16 + ^ x21: .cfa -24 + ^ x22: .cfa -32 + ^ x23: .cfa -40 + ^ x24: .cfa -48 + ^ x25: .cfa -56 + ^ x26: .cfa -64 + ^ x27: .cfa -80 + ^ .ra: .cfa -88 + ^ x29: .cfa -96 + ^
STACK CFI 298b8 .cfa: sp 224 +
STACK CFI 298d4 .cfa: sp 0 +
STACK CFI 298d8 .cfa: x29 96 +
STACK CFI 299a4 .cfa: sp 224 +
STACK CFI 299c0 .cfa: sp 0 +
STACK CFI 299c4 .cfa: x29 96 +
STACK CFI INIT 29ac8 398 .cfa: sp 0 +
STACK CFI 29acc .cfa: sp 240 +
STACK CFI 29ae0 .cfa: x29 64 + x19: .cfa -8 + ^ x20: .cfa -16 + ^ x21: .cfa -24 + ^ x22: .cfa -32 + ^ x23: .cfa -48 + ^ .ra: .cfa -56 + ^ x29: .cfa -64 + ^
STACK CFI 29d24 .cfa: sp 240 +
STACK CFI 29d38 .cfa: sp 0 +
STACK CFI 29d3c .cfa: x29 64 +
STACK CFI INIT 29e64 2f4 .cfa: sp 0 +
STACK CFI 29e68 .cfa: sp 176 +
STACK CFI 29e7c .cfa: x29 64 + x19: .cfa -8 + ^ x20: .cfa -16 + ^ x21: .cfa -24 + ^ x22: .cfa -32 + ^ x23: .cfa -48 + ^ .ra: .cfa -56 + ^ x29: .cfa -64 + ^
STACK CFI 2a028 .cfa: sp 176 +
STACK CFI 2a03c .cfa: sp 0 +
STACK CFI 2a040 .cfa: x29 64 +
STACK CFI INIT 2a158 1d4 .cfa: sp 0 +
STACK CFI 2a15c .cfa: sp 320 +
STACK CFI 2a174 .cfa: x29 80 + x19: .cfa -8 + ^ x20: .cfa -16 + ^ x21: .cfa -24 + ^ x22: .cfa -32 + ^ x23: .cfa -40 + ^ x24: .cfa -48 + ^ x28: .cfa -64 + ^ .ra: .cfa -72 + ^ x29: .cfa -80 + ^
STACK CFI 2a2e0 .cfa: sp 320 +
STACK CFI 2a2f8 .cfa: sp 0 +
STACK CFI 2a2fc .cfa: x29 80 +
STACK CFI INIT 2cff0 3fc .cfa: sp 0 +
STACK CFI 2cff4 .cfa: sp 224 +
STACK CFI 2d010 .cfa: x29 96 + x19: .cfa -8 + ^ x20: .cfa -16 + ^ x21: .cfa -24 + ^ x22: .cfa -32 + ^ x23: .cfa -40 + ^ x24: .cfa -48 + ^ x25: .cfa -56 + ^ x26: .cfa -64 + ^ x27: .cfa -72 + ^ x28: .cfa -80 + ^ .ra: .cfa -88 + ^ x29: .cfa -96 + ^
STACK CFI 2d2e8 .cfa: sp 224 +
STACK CFI 2d304 .cfa: sp 0 +
STACK CFI 2d308 .cfa: x29 96 +
STACK CFI INIT 2d3ec 454 .cfa: sp 0 +
STACK CFI 2d3f0 .cfa: sp 144 +
STACK CFI 2d404 .cfa: x29 64 + x19: .cfa -8 + ^ x20: .cfa -16 + ^ x21: .cfa -24 + ^ x22: .cfa -32 + ^ x23: .cfa -40 + ^ x24: .cfa -48 + ^ .ra: .cfa -56 + ^ x29: .cfa -64 + ^
STACK CFI 2d700 .cfa: sp 144 +
STACK CFI 2d714 .cfa: sp 0 +
STACK CFI 2d718 .cfa: x29 64 +
STACK CFI INIT 2d844 184 .cfa: sp 0 +
STACK CFI 2d848 .cfa: sp 144 +
STACK CFI 2d860 .cfa: x29 80 + x19: .cfa -8 + ^ x20: .cfa -16 + ^ x21: .cfa -24 + ^ x22: .cfa -32 + ^ x23: .cfa -40 + ^ x24: .cfa -48 + ^ x25: .cfa -56 + ^ x26: .cfa -64 + ^ .ra: .cfa -72 + ^ x29: .cfa -80 + ^
STACK CFI 2d960 .cfa: sp 144 +
STACK CFI 2d978 .cfa: sp 0 +
STACK CFI 2d97c .cfa: x29 80 +
STACK CFI INIT 2da34 134 .cfa: sp 0 +
STACK CFI 2da38 .cfa: sp 128 +
STACK CFI 2da4c .cfa: x29 64 + x19: .cfa -8 + ^ x20: .cfa -16 + ^ x21: .cfa -24 + ^ x22: .cfa -32 + ^ x23: .cfa -40 + ^ x24: .cfa -48 + ^ .ra: .cfa -56 + ^ x29: .cfa -64 + ^
STACK CFI 2db18 .cfa: sp 128 +
STACK CFI 2db2c .cfa: sp 0 +
STACK CFI 2db30 .cfa: x29 64 +
STACK CFI INIT 2dbc8 ec .cfa: sp 0 +
STACK CFI 2dbcc .cfa: sp 48 +
STACK CFI 2dbd8 .cfa: x29 48 + x19: .cfa -8 + ^ x20: .cfa -16 + ^ x21: .cfa -24 + ^ x22: .cfa -32 + ^ .ra: .cfa -40 + ^ x29: .cfa -48 + ^
STACK CFI 2dc24 .cfa: sp 48 +
STACK CFI 2dc30 .cfa: sp 0 +
STACK CFI 2dc34 .cfa: x29 48 +
STACK CFI 2dc38 .cfa: sp 48 +
STACK CFI 2dc44 .cfa: sp 0 +
STACK CFI 2dc48 .cfa: x29 48 +
STACK CFI INIT 2dd4c ec .cfa: sp 0 +
STACK CFI 2dd50 .cfa: sp 48 +
STACK CFI 2dd5c .cfa: x29 48 + x19: .cfa -8 + ^ x20: .cfa -16 + ^ x21: .cfa -24 + ^ x22: .cfa -32 + ^ .ra: .cfa -40 + ^ x29: .cfa -48 + ^
STACK CFI 2dda8 .cfa: sp 48 +
STACK CFI 2ddb4 .cfa: sp 0 +
STACK CFI 2ddb8 .cfa: x29 48 +
STACK CFI 2ddbc .cfa: sp 48 +
STACK CFI 2ddc8 .cfa: sp 0 +
STACK CFI 2ddcc .cfa: x29 48 +
STACK CFI INIT 2de38 4f8 .cfa: sp 0 +
STACK CFI 2de3c .cfa: sp 240 +
STACK CFI 2de58 .cfa: x29 96 + x19: .cfa -8 + ^ x20: .cfa -16 + ^ x21: .cfa -24 + ^ x22: .cfa -32 + ^ x23: .cfa -40 + ^ x24: .cfa -48 + ^ x25: .cfa -56 + ^ x26: .cfa -64 + ^ x27: .cfa -72 + ^ x28: .cfa -80 + ^ .ra: .cfa -88 + ^ x29: .cfa -96 + ^
STACK CFI 2e258 .cfa: sp 240 +
STACK CFI 2e274 .cfa: sp 0 +
STACK CFI 2e278 .cfa: x29 96 +
STACK CFI INIT 2e330 1c .cfa: sp 0 +
STACK CFI 2e334 .cfa: sp 16 +
STACK CFI 2e338 .cfa: x29 16 + .ra: .cfa -8 + ^ x29: .cfa -16 + ^
STACK CFI 2e340 .cfa: sp 16 +
STACK CFI 2e344 .cfa: sp 0 +
STACK CFI 2e348 .cfa: x29 16 +
STACK CFI INIT 2e3e0 354 .cfa: sp 0 +
STACK CFI 2e3e4 .cfa: sp 160 +
STACK CFI 2e408 .cfa: x29 96 + x19: .cfa -8 + ^ x20: .cfa -16 + ^ x21: .cfa -24 + ^ x22: .cfa -32 + ^ x23: .cfa -40 + ^ x24: .cfa -48 + ^ x25: .cfa -56 + ^ x26: .cfa -64 + ^ x27: .cfa -72 + ^ x28: .cfa -80 + ^ .ra: .cfa -88 + ^ x29: .cfa -96 + ^ v8: .cfa -104 + ^ v9: .cfa -112 + ^ v10: .cfa -128 + ^
STACK CFI 2e6c4 .cfa: sp 160 +
STACK CFI 2e6e8 .cfa: sp 0 +
STACK CFI 2e6ec .cfa: x29 96 +
STACK CFI INIT 2e834 184 .cfa: sp 0 +
STACK CFI 2e838 .cfa: sp 112 +
STACK CFI 2e848 .cfa: x29 48 + x19: .cfa -8 + ^ x20: .cfa -16 + ^ x21: .cfa -32 + ^ .ra: .cfa -40 + ^ x29: .cfa -48 + ^
STACK CFI 2e99c .cfa: sp 112 +
STACK CFI 2e9ac .cfa: sp 0 +
STACK CFI 2e9b0 .cfa: x29 48 +
STACK CFI INIT 2e9b8 170 .cfa: sp 0 +
STACK CFI 2e9bc .cfa: sp 112 +
STACK CFI 2e9cc .cfa: x29 48 + x19: .cfa -8 + ^ x20: .cfa -16 + ^ x21: .cfa -32 + ^ .ra: .cfa -40 + ^ x29: .cfa -48 + ^
STACK CFI 2ea78 .cfa: sp 112 +
STACK CFI 2ea88 .cfa: sp 0 +
STACK CFI 2ea8c .cfa: x29 48 +
STACK CFI INIT 2eb28 2ec .cfa: sp 0 +
STACK CFI 2eb2c .cfa: sp 160 +
STACK CFI 2eb48 .cfa: x29 96 + x19: .cfa -8 + ^ x20: .cfa -16 + ^ x21: .cfa -24 + ^ x22: .cfa -32 + ^ x23: .cfa -40 + ^ x24: .cfa -48 + ^ x25: .cfa -56 + ^ x26: .cfa -64 + ^ x27: .cfa -72 + ^ x28: .cfa -80 + ^ .ra: .cfa -88 + ^ x29: .cfa -96 + ^
STACK CFI 2ed94 .cfa: sp 160 +
STACK CFI 2edb0 .cfa: sp 0 +
STACK CFI 2edb4 .cfa: x29 96 +
STACK CFI INIT 2ee90 168 .cfa: sp 0 +
STACK CFI 2ee94 .cfa: sp 384 +
STACK CFI 2eea8 .cfa: x29 64 + x19: .cfa -8 + ^ x20: .cfa -16 + ^ x21: .cfa -24 + ^ x22: .cfa -32 + ^ x23: .cfa -40 + ^ x28: .cfa -48 + ^ .ra: .cfa -56 + ^ x29: .cfa -64 + ^
STACK CFI 2efa0 .cfa: sp 384 +
STACK CFI 2efb4 .cfa: sp 0 +
STACK CFI 2efb8 .cfa: x29 64 +
STACK CFI INIT 2f010 480 .cfa: sp 0 +
STACK CFI 2f014 .cfa: sp 224 +
STACK CFI 2f030 .cfa: x29 96 + x19: .cfa -8 + ^ x20: .cfa -16 + ^ x21: .cfa -24 + ^ x22: .cfa -32 + ^ x23: .cfa -40 + ^ x24: .cfa -48 + ^ x25: .cfa -56 + ^ x26: .cfa -64 + ^ x27: .cfa -80 + ^ .ra: .cfa -88 + ^ x29: .cfa -96 + ^
STACK CFI 2f29c .cfa: sp 224 +
STACK CFI 2f2b8 .cfa: sp 0 +
STACK CFI 2f2bc .cfa: x29 96 +
STACK CFI 2f388 .cfa: sp 224 +
STACK CFI 2f3a4 .cfa: sp 0 +
STACK CFI 2f3a8 .cfa: x29 96 +
STACK CFI INIT 2f4ac 340 .cfa: sp 0 +
STACK CFI 2f4b0 .cfa: sp 240 +
STACK CFI 2f4c4 .cfa: x29 64 + x19: .cfa -8 + ^ x20: .cfa -16 + ^ x21: .cfa -24 + ^ x22: .cfa -32 + ^ x23: .cfa -48 + ^ .ra: .cfa -56 + ^ x29: .cfa -64 + ^
STACK CFI 2f6d4 .cfa: sp 240 +
STACK CFI 2f6e8 .cfa: sp 0 +
STACK CFI 2f6ec .cfa: x29 64 +
STACK CFI INIT 2f8dc 1a8 .cfa: sp 0 +
STACK CFI 2f8e0 .cfa: sp 112 +
STACK CFI 2f8f0 .cfa: x29 48 + x19: .cfa -8 + ^ x20: .cfa -16 + ^ x21: .cfa -32 + ^ .ra: .cfa -40 + ^ x29: .cfa -48 + ^
STACK CFI 2fa30 .cfa: sp 112 +
STACK CFI 2fa40 .cfa: sp 0 +
STACK CFI 2fa44 .cfa: x29 48 +
STACK CFI INIT 2fee0 1e8 .cfa: sp 0 +
STACK CFI 2fee4 .cfa: sp 64 +
STACK CFI 2fef0 .cfa: x29 32 + x19: .cfa -8 + ^ x20: .cfa -16 + ^ .ra: .cfa -24 + ^ x29: .cfa -32 + ^
STACK CFI 30088 .cfa: sp 64 +
STACK CFI 30094 .cfa: sp 0 +
STACK CFI 30098 .cfa: x29 32 +
STACK CFI INIT 30150 134 .cfa: sp 0 +
STACK CFI 30154 .cfa: sp 80 +
STACK CFI 30160 .cfa: x29 32 + x19: .cfa -8 + ^ x20: .cfa -16 + ^ .ra: .cfa -24 + ^ x29: .cfa -32 + ^
STACK CFI 30190 .cfa: sp 80 +
STACK CFI 3019c .cfa: sp 0 +
STACK CFI 301a0 .cfa: x29 32 +
STACK CFI INIT 30284 78 .cfa: sp 0 +
STACK CFI 30288 .cfa: sp 32 +
STACK CFI 30290 .cfa: x29 32 + x19: .cfa -8 + ^ x20: .cfa -16 + ^ .ra: .cfa -24 + ^ x29: .cfa -32 + ^
STACK CFI 3029c .cfa: sp 32 +
STACK CFI 302a4 .cfa: sp 0 +
STACK CFI 302a8 .cfa: x29 32 +
STACK CFI INIT 302fc 74 .cfa: sp 0 +
STACK CFI 30300 .cfa: sp 48 +
STACK CFI 3030c .cfa: x29 32 + x19: .cfa -8 + ^ x20: .cfa -16 + ^ .ra: .cfa -24 + ^ x29: .cfa -32 + ^
STACK CFI 30358 .cfa: sp 48 +
STACK CFI 30364 .cfa: sp 0 +
STACK CFI 30368 .cfa: x29 32 +
STACK CFI INIT 303f8 25c .cfa: sp 0 +
STACK CFI 303fc .cfa: sp 128 +
STACK CFI 3040c .cfa: x29 48 + x19: .cfa -8 + ^ x20: .cfa -16 + ^ x21: .cfa -32 + ^ .ra: .cfa -40 + ^ x29: .cfa -48 + ^
STACK CFI 304f4 .cfa: sp 128 +
STACK CFI 30504 .cfa: sp 0 +
STACK CFI 30508 .cfa: x29 48 +
STACK CFI INIT 3069c 224 .cfa: sp 0 +
STACK CFI 306a0 .cfa: sp 128 +
STACK CFI 306b0 .cfa: x29 48 + x19: .cfa -8 + ^ x20: .cfa -16 + ^ x21: .cfa -32 + ^ .ra: .cfa -40 + ^ x29: .cfa -48 + ^
STACK CFI 30760 .cfa: sp 128 +
STACK CFI 30770 .cfa: sp 0 +
STACK CFI 30774 .cfa: x29 48 +
STACK CFI INIT 308e4 22c .cfa: sp 0 +
STACK CFI 308e8 .cfa: sp 128 +
STACK CFI 308f8 .cfa: x29 48 + x19: .cfa -8 + ^ x20: .cfa -16 + ^ x21: .cfa -32 + ^ .ra: .cfa -40 + ^ x29: .cfa -48 + ^
STACK CFI 309b0 .cfa: sp 128 +
STACK CFI 309c0 .cfa: sp 0 +
STACK CFI 309c4 .cfa: x29 48 +
STACK CFI INIT 30b10 270 .cfa: sp 0 +
STACK CFI 30b14 .cfa: sp 144 +
STACK CFI 30b28 .cfa: x29 64 + x19: .cfa -8 + ^ x20: .cfa -16 + ^ x21: .cfa -24 + ^ x22: .cfa -32 + ^ x23: .cfa -48 + ^ .ra: .cfa -56 + ^ x29: .cfa -64 + ^
STACK CFI 30c24 .cfa: sp 144 +
STACK CFI 30c38 .cfa: sp 0 +
STACK CFI 30c3c .cfa: x29 64 +
STACK CFI INIT 30d80 284 .cfa: sp 0 +
STACK CFI 30d84 .cfa: sp 128 +
STACK CFI 30d94 .cfa: x29 48 + x19: .cfa -8 + ^ x20: .cfa -16 + ^ x21: .cfa -32 + ^ .ra: .cfa -40 + ^ x29: .cfa -48 + ^
STACK CFI 30eac .cfa: sp 128 +
STACK CFI 30ebc .cfa: sp 0 +
STACK CFI 30ec0 .cfa: x29 48 +
STACK CFI INIT 31058 28c .cfa: sp 0 +
STACK CFI 3105c .cfa: sp 128 +
STACK CFI 3106c .cfa: x29 48 + x19: .cfa -8 + ^ x20: .cfa -16 + ^ x21: .cfa -32 + ^ .ra: .cfa -40 + ^ x29: .cfa -48 + ^
STACK CFI 3118c .cfa: sp 128 +
STACK CFI 3119c .cfa: sp 0 +
STACK CFI 311a0 .cfa: x29 48 +
STACK CFI INIT 312e4 300 .cfa: sp 0 +
STACK CFI 312e8 .cfa: sp 144 +
STACK CFI 312fc .cfa: x29 64 + x19: .cfa -8 + ^ x20: .cfa -16 + ^ x21: .cfa -24 + ^ x22: .cfa -32 + ^ x23: .cfa -48 + ^ .ra: .cfa -56 + ^ x29: .cfa -64 + ^
STACK CFI 31490 .cfa: sp 144 +
STACK CFI 314a4 .cfa: sp 0 +
STACK CFI 314a8 .cfa: x29 64 +
STACK CFI INIT 31638 264 .cfa: sp 0 +
STACK CFI 3163c .cfa: sp 128 +
STACK CFI 3164c .cfa: x29 48 + x19: .cfa -8 + ^ x20: .cfa -16 + ^ x21: .cfa -32 + ^ .ra: .cfa -40 + ^ x29: .cfa -48 + ^
STACK CFI 31744 .cfa: sp 128 +
STACK CFI 31754 .cfa: sp 0 +
STACK CFI 31758 .cfa: x29 48 +
STACK CFI INIT 318f0 260 .cfa: sp 0 +
STACK CFI 318f4 .cfa: sp 128 +
STACK CFI 31904 .cfa: x29 48 + x19: .cfa -8 + ^ x20: .cfa -16 + ^ x21: .cfa -32 + ^ .ra: .cfa -40 + ^ x29: .cfa -48 + ^
STACK CFI 319f8 .cfa: sp 128 +
STACK CFI 31a08 .cfa: sp 0 +
STACK CFI 31a0c .cfa: x29 48 +
STACK CFI INIT 31b74 2b8 .cfa: sp 0 +
STACK CFI 31b78 .cfa: sp 144 +
STACK CFI 31b8c .cfa: x29 64 + x19: .cfa -8 + ^ x20: .cfa -16 + ^ x21: .cfa -24 + ^ x22: .cfa -32 + ^ x23: .cfa -48 + ^ .ra: .cfa -56 + ^ x29: .cfa -64 + ^
STACK CFI 31cd8 .cfa: sp 144 +
STACK CFI 31cec .cfa: sp 0 +
STACK CFI 31cf0 .cfa: x29 64 +
STACK CFI INIT 31e2c 178 .cfa: sp 0 +
STACK CFI 31e30 .cfa: sp 128 +
STACK CFI 31e40 .cfa: x29 48 + x19: .cfa -8 + ^ x20: .cfa -16 + ^ x21: .cfa -24 + ^ x22: .cfa -32 + ^ .ra: .cfa -40 + ^ x29: .cfa -48 + ^
STACK CFI 31e9c .cfa: sp 128 +
STACK CFI 31eac .cfa: sp 0 +
STACK CFI 31eb0 .cfa: x29 48 +
STACK CFI INIT 31fa4 a4 .cfa: sp 0 +
STACK CFI 31fa8 .cfa: sp 48 +
STACK CFI 31fb4 .cfa: x29 48 + x19: .cfa -8 + ^ x20: .cfa -16 + ^ x21: .cfa -32 + ^ .ra: .cfa -40 + ^ x29: .cfa -48 + ^
STACK CFI 32020 .cfa: sp 48 +
STACK CFI 3202c .cfa: sp 0 +
STACK CFI 32030 .cfa: x29 48 +
STACK CFI INIT 32048 2c0 .cfa: sp 0 +
STACK CFI 3204c .cfa: sp 144 +
STACK CFI 32060 .cfa: x29 64 + x19: .cfa -8 + ^ x20: .cfa -16 + ^ x21: .cfa -24 + ^ x22: .cfa -32 + ^ x23: .cfa -48 + ^ .ra: .cfa -56 + ^ x29: .cfa -64 + ^
STACK CFI 321b4 .cfa: sp 144 +
STACK CFI 321c8 .cfa: sp 0 +
STACK CFI 321cc .cfa: x29 64 +
STACK CFI INIT 32308 1a0 .cfa: sp 0 +
STACK CFI 3230c .cfa: sp 160 +
STACK CFI 32324 .cfa: x29 48 + x19: .cfa -8 + ^ x20: .cfa -16 + ^ x21: .cfa -24 + ^ x22: .cfa -32 + ^ .ra: .cfa -40 + ^ x29: .cfa -48 + ^ v8: .cfa -56 + ^ v9: .cfa -64 + ^ v10: .cfa -80 + ^
STACK CFI 32398 .cfa: sp 160 +
STACK CFI 323b0 .cfa: sp 0 +
STACK CFI 323b4 .cfa: x29 48 +
STACK CFI INIT 324a8 164 .cfa: sp 0 +
STACK CFI 324ac .cfa: sp 64 +
STACK CFI 324bc .cfa: x29 48 + x19: .cfa -8 + ^ x20: .cfa -16 + ^ x21: .cfa -24 + ^ x22: .cfa -32 + ^ .ra: .cfa -40 + ^ x29: .cfa -48 + ^
STACK CFI 325ac .cfa: sp 64 +
STACK CFI 325bc .cfa: sp 0 +
STACK CFI 325c0 .cfa: x29 48 +
STACK CFI INIT 3260c 160 .cfa: sp 0 +
STACK CFI 32610 .cfa: sp 144 +
STACK CFI 32624 .cfa: x29 64 + x19: .cfa -8 + ^ x20: .cfa -16 + ^ x21: .cfa -24 + ^ x22: .cfa -32 + ^ x23: .cfa -48 + ^ .ra: .cfa -56 + ^ x29: .cfa -64 + ^
STACK CFI 32674 .cfa: sp 144 +
STACK CFI 32688 .cfa: sp 0 +
STACK CFI 3268c .cfa: x29 64 +
STACK CFI INIT 3276c 100 .cfa: sp 0 +
STACK CFI 32770 .cfa: sp 64 +
STACK CFI 32780 .cfa: x29 48 + x19: .cfa -8 + ^ x20: .cfa -16 + ^ x21: .cfa -24 + ^ x22: .cfa -32 + ^ .ra: .cfa -40 + ^ x29: .cfa -48 + ^
STACK CFI 32824 .cfa: sp 64 +
STACK CFI 32834 .cfa: sp 0 +
STACK CFI 32838 .cfa: x29 48 +
STACK CFI INIT 32888 2e4 .cfa: sp 0 +
STACK CFI 3288c .cfa: sp 144 +
STACK CFI 328a0 .cfa: x29 64 + x19: .cfa -8 + ^ x20: .cfa -16 + ^ x21: .cfa -24 + ^ x22: .cfa -32 + ^ x23: .cfa -48 + ^ .ra: .cfa -56 + ^ x29: .cfa -64 + ^
STACK CFI 32a18 .cfa: sp 144 +
STACK CFI 32a2c .cfa: sp 0 +
STACK CFI 32a30 .cfa: x29 64 +
STACK CFI INIT 32b6c 2a0 .cfa: sp 0 +
STACK CFI 32b70 .cfa: sp 144 +
STACK CFI 32b84 .cfa: x29 64 + x19: .cfa -8 + ^ x20: .cfa -16 + ^ x21: .cfa -24 + ^ x22: .cfa -32 + ^ x23: .cfa -48 + ^ .ra: .cfa -56 + ^ x29: .cfa -64 + ^
STACK CFI 32cb8 .cfa: sp 144 +
STACK CFI 32ccc .cfa: sp 0 +
STACK CFI 32cd0 .cfa: x29 64 +
STACK CFI INIT 32e0c 2f0 .cfa: sp 0 +
STACK CFI 32e10 .cfa: sp 144 +
STACK CFI 32e24 .cfa: x29 64 + x19: .cfa -8 + ^ x20: .cfa -16 + ^ x21: .cfa -24 + ^ x22: .cfa -32 + ^ x23: .cfa -48 + ^ .ra: .cfa -56 + ^ x29: .cfa -64 + ^
STACK CFI 32fa8 .cfa: sp 144 +
STACK CFI 32fbc .cfa: sp 0 +
STACK CFI 32fc0 .cfa: x29 64 +
STACK CFI INIT 330fc 4f4 .cfa: sp 0 +
STACK CFI 33100 .cfa: sp 144 +
STACK CFI 33114 .cfa: x29 64 + x19: .cfa -8 + ^ x20: .cfa -16 + ^ x21: .cfa -24 + ^ x22: .cfa -32 + ^ x23: .cfa -48 + ^ .ra: .cfa -56 + ^ x29: .cfa -64 + ^
STACK CFI 33448 .cfa: sp 144 +
STACK CFI 3345c .cfa: sp 0 +
STACK CFI 33460 .cfa: x29 64 +
STACK CFI INIT 335f0 154 .cfa: sp 0 +
STACK CFI 335f4 .cfa: sp 384 +
STACK CFI 33608 .cfa: x29 64 + x19: .cfa -8 + ^ x20: .cfa -16 + ^ x21: .cfa -24 + ^ x22: .cfa -32 + ^ x23: .cfa -40 + ^ x28: .cfa -48 + ^ .ra: .cfa -56 + ^ x29: .cfa -64 + ^
STACK CFI 336ec .cfa: sp 384 +
STACK CFI 33700 .cfa: sp 0 +
STACK CFI 33704 .cfa: x29 64 +
STACK CFI INIT 3375c 50c .cfa: sp 0 +
STACK CFI 33760 .cfa: sp 64 +
STACK CFI 33770 .cfa: x29 64 + x19: .cfa -8 + ^ x20: .cfa -16 + ^ x21: .cfa -24 + ^ x22: .cfa -32 + ^ x23: .cfa -40 + ^ x24: .cfa -48 + ^ .ra: .cfa -56 + ^ x29: .cfa -64 + ^
STACK CFI 33890 .cfa: sp 64 +
STACK CFI 338a0 .cfa: sp 0 +
STACK CFI 338a4 .cfa: x29 64 +
STACK CFI 33c3c .cfa: sp 64 +
STACK CFI 33c4c .cfa: sp 0 +
STACK CFI 33c50 .cfa: x29 64 +
STACK CFI INIT 33f98 294 .cfa: sp 0 +
STACK CFI 33f9c .cfa: sp 240 +
STACK CFI 33fb4 .cfa: x29 80 + x19: .cfa -8 + ^ x20: .cfa -16 + ^ x21: .cfa -24 + ^ x22: .cfa -32 + ^ x23: .cfa -40 + ^ x24: .cfa -48 + ^ x25: .cfa -64 + ^ .ra: .cfa -72 + ^ x29: .cfa -80 + ^
STACK CFI 34154 .cfa: sp 240 +
STACK CFI 3416c .cfa: sp 0 +
STACK CFI 34170 .cfa: x29 80 +
STACK CFI INIT 342a8 50 .cfa: sp 0 +
STACK CFI 342ac .cfa: sp 32 +
STACK CFI 342b4 .cfa: x29 32 + x19: .cfa -8 + ^ x20: .cfa -16 + ^ .ra: .cfa -24 + ^ x29: .cfa -32 + ^
STACK CFI INIT 34324 7c0 .cfa: sp 0 +
STACK CFI 34328 .cfa: sp 320 +
STACK CFI 34344 .cfa: x29 96 + x19: .cfa -8 + ^ x20: .cfa -16 + ^ x21: .cfa -24 + ^ x22: .cfa -32 + ^ x23: .cfa -40 + ^ x24: .cfa -48 + ^ x25: .cfa -56 + ^ x26: .cfa -64 + ^ x27: .cfa -72 + ^ x28: .cfa -80 + ^ .ra: .cfa -88 + ^ x29: .cfa -96 + ^
STACK CFI 34994 .cfa: sp 320 +
STACK CFI 349b0 .cfa: sp 0 +
STACK CFI 349b4 .cfa: x29 96 +
STACK CFI INIT 38700 c84 .cfa: sp 0 +
STACK CFI 38704 .cfa: sp 96 +
STACK CFI 3871c .cfa: x29 96 + x19: .cfa -8 + ^ x20: .cfa -16 + ^ x21: .cfa -24 + ^ x22: .cfa -32 + ^ x23: .cfa -40 + ^ x24: .cfa -48 + ^ x25: .cfa -56 + ^ x26: .cfa -64 + ^ x27: .cfa -72 + ^ x28: .cfa -80 + ^ .ra: .cfa -88 + ^ x29: .cfa -96 + ^
STACK CFI 391a4 .cfa: sp 96 +
STACK CFI 391bc .cfa: sp 0 +
STACK CFI 391c0 .cfa: x29 96 +
STACK CFI INIT 394d8 26c .cfa: sp 0 +
STACK CFI 394dc .cfa: sp 128 +
STACK CFI 394ec .cfa: x29 48 + x19: .cfa -8 + ^ x20: .cfa -16 + ^ x21: .cfa -24 + ^ x22: .cfa -32 + ^ .ra: .cfa -40 + ^ x29: .cfa -48 + ^
STACK CFI 39690 .cfa: sp 128 +
STACK CFI 396a0 .cfa: sp 0 +
STACK CFI 396a4 .cfa: x29 48 +
STACK CFI INIT 39c90 3b8 .cfa: sp 0 +
STACK CFI 39c94 .cfa: sp 96 +
STACK CFI 39cac .cfa: x29 96 + x19: .cfa -8 + ^ x20: .cfa -16 + ^ x21: .cfa -24 + ^ x22: .cfa -32 + ^ x23: .cfa -40 + ^ x24: .cfa -48 + ^ x25: .cfa -56 + ^ x26: .cfa -64 + ^ x27: .cfa -72 + ^ x28: .cfa -80 + ^ .ra: .cfa -88 + ^ x29: .cfa -96 + ^
STACK CFI 39fe8 .cfa: sp 96 +
STACK CFI 3a000 .cfa: sp 0 +
STACK CFI 3a004 .cfa: x29 96 +
STACK CFI INIT 3a0e8 cc0 .cfa: sp 0 +
STACK CFI 3a0ec .cfa: sp 96 +
STACK CFI 3a104 .cfa: x29 96 + x19: .cfa -8 + ^ x20: .cfa -16 + ^ x21: .cfa -24 + ^ x22: .cfa -32 + ^ x23: .cfa -40 + ^ x24: .cfa -48 + ^ x25: .cfa -56 + ^ x26: .cfa -64 + ^ x27: .cfa -72 + ^ x28: .cfa -80 + ^ .ra: .cfa -88 + ^ x29: .cfa -96 + ^
STACK CFI 3abb8 .cfa: sp 96 +
STACK CFI 3abd0 .cfa: sp 0 +
STACK CFI 3abd4 .cfa: x29 96 +
STACK CFI INIT 3b090 af8 .cfa: sp 0 +
STACK CFI 3b094 .cfa: sp 96 +
STACK CFI 3b0ac .cfa: x29 96 + x19: .cfa -8 + ^ x20: .cfa -16 + ^ x21: .cfa -24 + ^ x22: .cfa -32 + ^ x23: .cfa -40 + ^ x24: .cfa -48 + ^ x25: .cfa -56 + ^ x26: .cfa -64 + ^ x27: .cfa -72 + ^ x28: .cfa -80 + ^ .ra: .cfa -88 + ^ x29: .cfa -96 + ^
STACK CFI 3bafc .cfa: sp 96 +
STACK CFI 3bb14 .cfa: sp 0 +
STACK CFI 3bb18 .cfa: x29 96 +
STACK CFI INIT 3bd7c 1430 .cfa: sp 0 +
STACK CFI 3bd80 .cfa: sp 96 +
STACK CFI 3bd98 .cfa: x29 96 + x19: .cfa -8 + ^ x20: .cfa -16 + ^ x21: .cfa -24 + ^ x22: .cfa -32 + ^ x23: .cfa -40 + ^ x24: .cfa -48 + ^ x25: .cfa -56 + ^ x26: .cfa -64 + ^ x27: .cfa -72 + ^ x28: .cfa -80 + ^ .ra: .cfa -88 + ^ x29: .cfa -96 + ^
STACK CFI 3d034 .cfa: sp 96 +
STACK CFI 3d04c .cfa: sp 0 +
STACK CFI 3d050 .cfa: x29 96 +
STACK CFI INIT 3d2d0 75c .cfa: sp 0 +
STACK CFI 3d2d4 .cfa: sp 368 +
STACK CFI 3d2f0 .cfa: x29 96 + x19: .cfa -8 + ^ x20: .cfa -16 + ^ x21: .cfa -24 + ^ x22: .cfa -32 + ^ x23: .cfa -40 + ^ x24: .cfa -48 + ^ x25: .cfa -56 + ^ x26: .cfa -64 + ^ x27: .cfa -72 + ^ x28: .cfa -80 + ^ .ra: .cfa -88 + ^ x29: .cfa -96 + ^
STACK CFI 3d3a4 .cfa: sp 368 +
STACK CFI 3d3c0 .cfa: sp 0 +
STACK CFI 3d3c4 .cfa: x29 96 +
STACK CFI 3d418 .cfa: sp 368 +
STACK CFI 3d434 .cfa: sp 0 +
STACK CFI 3d438 .cfa: x29 96 +
STACK CFI INIT 3ddec ee0 .cfa: sp 0 +
STACK CFI 3ddf0 .cfa: sp 96 +
STACK CFI 3de08 .cfa: x29 96 + x19: .cfa -8 + ^ x20: .cfa -16 + ^ x21: .cfa -24 + ^ x22: .cfa -32 + ^ x23: .cfa -40 + ^ x24: .cfa -48 + ^ x25: .cfa -56 + ^ x26: .cfa -64 + ^ x27: .cfa -72 + ^ x28: .cfa -80 + ^ .ra: .cfa -88 + ^ x29: .cfa -96 + ^
STACK CFI 3eac4 .cfa: sp 96 +
STACK CFI 3eadc .cfa: sp 0 +
STACK CFI 3eae0 .cfa: x29 96 +
STACK CFI INIT 3f040 14b4 .cfa: sp 0 +
STACK CFI 3f044 .cfa: sp 112 +
STACK CFI 3f060 .cfa: x29 96 + x19: .cfa -8 + ^ x20: .cfa -16 + ^ x21: .cfa -24 + ^ x22: .cfa -32 + ^ x23: .cfa -40 + ^ x24: .cfa -48 + ^ x25: .cfa -56 + ^ x26: .cfa -64 + ^ x27: .cfa -72 + ^ x28: .cfa -80 + ^ .ra: .cfa -88 + ^ x29: .cfa -96 + ^ v8: .cfa -112 + ^
STACK CFI 3f440 .cfa: sp 112 +
STACK CFI 3f45c .cfa: sp 0 +
STACK CFI 3f460 .cfa: x29 96 +
STACK CFI INIT 42904 9a0 .cfa: sp 0 +
STACK CFI 42908 .cfa: sp 144 +
STACK CFI 42920 .cfa: x29 80 + x19: .cfa -8 + ^ x20: .cfa -16 + ^ x21: .cfa -24 + ^ x22: .cfa -32 + ^ x23: .cfa -40 + ^ x24: .cfa -48 + ^ x25: .cfa -64 + ^ .ra: .cfa -72 + ^ x29: .cfa -80 + ^
STACK CFI 43220 .cfa: sp 144 +
STACK CFI 43238 .cfa: sp 0 +
STACK CFI 4323c .cfa: x29 80 +
STACK CFI INIT 432a4 57c .cfa: sp 0 +
STACK CFI 432a8 .cfa: sp 96 +
STACK CFI 432c0 .cfa: x29 96 + x19: .cfa -8 + ^ x20: .cfa -16 + ^ x21: .cfa -24 + ^ x22: .cfa -32 + ^ x23: .cfa -40 + ^ x24: .cfa -48 + ^ x25: .cfa -56 + ^ x26: .cfa -64 + ^ x27: .cfa -72 + ^ x28: .cfa -80 + ^ .ra: .cfa -88 + ^ x29: .cfa -96 + ^
STACK CFI 43784 .cfa: sp 96 +
STACK CFI 4379c .cfa: sp 0 +
STACK CFI 437a0 .cfa: x29 96 +
STACK CFI INIT 43820 67c .cfa: sp 0 +
STACK CFI 43824 .cfa: sp 96 +
STACK CFI 4383c .cfa: x29 96 + x19: .cfa -8 + ^ x20: .cfa -16 + ^ x21: .cfa -24 + ^ x22: .cfa -32 + ^ x23: .cfa -40 + ^ x24: .cfa -48 + ^ x25: .cfa -56 + ^ x26: .cfa -64 + ^ x27: .cfa -72 + ^ x28: .cfa -80 + ^ .ra: .cfa -88 + ^ x29: .cfa -96 + ^
STACK CFI 43e00 .cfa: sp 96 +
STACK CFI 43e18 .cfa: sp 0 +
STACK CFI 43e1c .cfa: x29 96 +
