MODULE Linux arm64 C61564DEC37C0E6E3F0AEFD3D53F8D670 hiimjustin000.more_icons.android64.so
INFO CODE_ID DE6415C67CC36E0E3F0AEFD3D53F8D671D0B95BE
INFO GENERATOR mozilla/dump_syms 2.3.4
PUBLIC 35b30 0 __on_dlclose
PUBLIC 35b40 0 __emutls_unregister_key
PUBLIC 35b48 0 __on_dlclose_late
PUBLIC 35b50 0 __atexit_handler_wrapper
PUBLIC 35b64 0 atexit
PUBLIC 35b80 0 pthread_atfork
PUBLIC 35b90 0 unwind_phase2
PUBLIC 35cc4 0 _Unwind_Resume
PUBLIC 35d48 0 unwind_phase2_forced
PUBLIC m 35e3c 0 __unw_init_local
PUBLIC m 35ee4 0 __unw_get_reg
PUBLIC 35f60 0 __unw_step_stage2
PUBLIC m 35f74 0 __unw_get_proc_info
PUBLIC m 35fb4 0 __unw_resume
PUBLIC 35fdc 0 libunwind::CFI_Parser<libunwind::LocalAddressSpace>::decodeFDE(libunwind::LocalAddressSpace&, unsigned long, libunwind::CFI_Parser<libunwind::LocalAddressSpace>::FDE_Info*, libunwind::CFI_Parser<libunwind::LocalAddressSpace>::CIE_Info*, bool)
PUBLIC 3616c 0 libunwind::CFI_Parser<libunwind::LocalAddressSpace>::parseCIE(libunwind::LocalAddressSpace&, unsigned long, libunwind::CFI_Parser<libunwind::LocalAddressSpace>::CIE_Info*)
PUBLIC 36434 0 libunwind::AbstractUnwindCursor::~AbstractUnwindCursor()
PUBLIC 3643c 0 libunwind::UnwindCursor<libunwind::LocalAddressSpace, libunwind::Registers_arm64>::~UnwindCursor()
PUBLIC 36444 0 libunwind::UnwindCursor<libunwind::LocalAddressSpace, libunwind::Registers_arm64>::validReg(int)
PUBLIC 36488 0 libunwind::UnwindCursor<libunwind::LocalAddressSpace, libunwind::Registers_arm64>::getReg(int)
PUBLIC 36570 0 libunwind::UnwindCursor<libunwind::LocalAddressSpace, libunwind::Registers_arm64>::setReg(int, unsigned long)
PUBLIC 36658 0 libunwind::UnwindCursor<libunwind::LocalAddressSpace, libunwind::Registers_arm64>::validFloatReg(int)
PUBLIC 3666c 0 libunwind::UnwindCursor<libunwind::LocalAddressSpace, libunwind::Registers_arm64>::getFloatReg(int)
PUBLIC 3667c 0 libunwind::UnwindCursor<libunwind::LocalAddressSpace, libunwind::Registers_arm64>::setFloatReg(int, double)
PUBLIC 3668c 0 libunwind::UnwindCursor<libunwind::LocalAddressSpace, libunwind::Registers_arm64>::step(bool)
PUBLIC 3677c 0 libunwind::UnwindCursor<libunwind::LocalAddressSpace, libunwind::Registers_arm64>::getInfo(unw_proc_info_t*)
PUBLIC 367c0 0 libunwind::UnwindCursor<libunwind::LocalAddressSpace, libunwind::Registers_arm64>::jumpto()
PUBLIC 367cc 0 libunwind::UnwindCursor<libunwind::LocalAddressSpace, libunwind::Registers_arm64>::isSignalFrame()
PUBLIC 367d8 0 libunwind::UnwindCursor<libunwind::LocalAddressSpace, libunwind::Registers_arm64>::getFunctionName(char*, unsigned long, unsigned long*)
PUBLIC 36804 0 libunwind::UnwindCursor<libunwind::LocalAddressSpace, libunwind::Registers_arm64>::setInfoBasedOnIPRegister(bool)
PUBLIC 36a40 0 libunwind::UnwindCursor<libunwind::LocalAddressSpace, libunwind::Registers_arm64>::getRegisterName(int)
PUBLIC 36a4c 0 libunwind::UnwindCursor<libunwind::LocalAddressSpace, libunwind::Registers_arm64>::stepThroughSigReturn(libunwind::Registers_arm64&)
PUBLIC 36b6c 0 libunwind::DwarfInstructions<libunwind::LocalAddressSpace, libunwind::Registers_arm64>::stepWithDwarf(libunwind::LocalAddressSpace&, unsigned long, unsigned long, libunwind::Registers_arm64&, bool&, bool)
PUBLIC 37000 0 libunwind::CFI_Parser<libunwind::LocalAddressSpace>::parseFDEInstructions(libunwind::LocalAddressSpace&, libunwind::CFI_Parser<libunwind::LocalAddressSpace>::FDE_Info const&, libunwind::CFI_Parser<libunwind::LocalAddressSpace>::CIE_Info const&, unsigned long, int, libunwind::CFI_Parser<libunwind::LocalAddressSpace>::PrologInfo*)
PUBLIC 37b78 0 libunwind::DwarfInstructions<libunwind::LocalAddressSpace, libunwind::Registers_arm64>::getCFA(libunwind::LocalAddressSpace&, libunwind::CFI_Parser<libunwind::LocalAddressSpace>::PrologInfo const&, libunwind::Registers_arm64 const&)
PUBLIC 37cac 0 libunwind::DwarfInstructions<libunwind::LocalAddressSpace, libunwind::Registers_arm64>::getSavedRegister(libunwind::LocalAddressSpace&, libunwind::Registers_arm64 const&, unsigned long, libunwind::CFI_Parser<libunwind::LocalAddressSpace>::RegisterLocation const&)
PUBLIC 37ebc 0 libunwind::LocalAddressSpace::getEncodedP(unsigned long&, unsigned long, unsigned char, unsigned long)
PUBLIC 38248 0 libunwind::LocalAddressSpace::getULEB128(unsigned long&, unsigned long)
PUBLIC 38410 0 libunwind::DwarfInstructions<libunwind::LocalAddressSpace, libunwind::Registers_arm64>::evaluateExpression(unsigned long, libunwind::LocalAddressSpace&, libunwind::Registers_arm64 const&, unsigned long)
PUBLIC 38dd4 0 libunwind::UnwindCursor<libunwind::LocalAddressSpace, libunwind::Registers_arm64>::getInfoFromDwarfSection(unsigned long, libunwind::UnwindInfoSections const&, unsigned int)
PUBLIC 390a8 0 libunwind::findUnwindSectionsByPhdr(dl_phdr_info*, unsigned long, void*)
PUBLIC 391d8 0 libunwind::EHHeaderParser<libunwind::LocalAddressSpace>::decodeEHHdr(libunwind::LocalAddressSpace&, unsigned long, unsigned long, libunwind::EHHeaderParser<libunwind::LocalAddressSpace>::EHHeaderInfo&)
PUBLIC 392f8 0 libunwind::CFI_Parser<libunwind::LocalAddressSpace>::findFDE(libunwind::LocalAddressSpace&, unsigned long, unsigned long, unsigned long, unsigned long, libunwind::CFI_Parser<libunwind::LocalAddressSpace>::FDE_Info*, libunwind::CFI_Parser<libunwind::LocalAddressSpace>::CIE_Info*)
PUBLIC 394c0 0 libunwind::EHHeaderParser<libunwind::LocalAddressSpace>::findFDE(libunwind::LocalAddressSpace&, unsigned long, unsigned long, unsigned int, libunwind::CFI_Parser<libunwind::LocalAddressSpace>::FDE_Info*, libunwind::CFI_Parser<libunwind::LocalAddressSpace>::CIE_Info*)
PUBLIC 39628 0 libunwind::EHHeaderParser<libunwind::LocalAddressSpace>::getTableEntrySize(unsigned char)
PUBLIC 39724 0 libunwind::Registers_arm64::getRegisterName(int)
PUBLIC 39754 0 __libunwind_Registers_arm64_jumpto
PUBLIC m 397e4 0 __unw_getcontext
PUBLIC 39880 0 __cxx_global_var_init
PUBLIC 398dc 0 std::__ndk1::vector<std::__ndk1::basic_string<char, std::__ndk1::char_traits<char>, std::__ndk1::allocator<char> >, std::__ndk1::allocator<std::__ndk1::basic_string<char, std::__ndk1::char_traits<char>, std::__ndk1::allocator<char> > > >::~vector[abi:ne190000]()
PUBLIC 39958 0 __cxx_global_var_init.1
PUBLIC 399b4 0 __cxx_global_var_init.2
PUBLIC 39a10 0 __cxx_global_var_init.3
PUBLIC 39a6c 0 __cxx_global_var_init.4
PUBLIC 39ac8 0 __cxx_global_var_init.5
PUBLIC 39b24 0 __cxx_global_var_init.6
PUBLIC 39b80 0 __cxx_global_var_init.7
PUBLIC 39bdc 0 __cxx_global_var_init.8
PUBLIC 39c38 0 __cxx_global_var_init.9
PUBLIC 39c94 0 MoreIconsAPI::vectorForType(IconType)
PUBLIC 39dec 0 MoreIconsAPI::activeForType(IconType, bool)
PUBLIC 39ec4 0 MoreIcons::savedForType(IconType, bool)
PUBLIC 3a118 0 geode::Mod::getSavedValue<std::__ndk1::basic_string<char, std::__ndk1::char_traits<char>, std::__ndk1::allocator<char> > >(std::__ndk1::basic_string_view<char, std::__ndk1::char_traits<char> >, std::__ndk1::basic_string<char, std::__ndk1::char_traits<char>, std::__ndk1::allocator<char> > const&)
PUBLIC 3a3bc 0 MoreIconsAPI::setIcon(std::__ndk1::basic_string<char, std::__ndk1::char_traits<char>, std::__ndk1::allocator<char> > const&, IconType, bool)
PUBLIC 3a444 0 geode::Mod::setSavedValue<std::__ndk1::basic_string<char, std::__ndk1::char_traits<char>, std::__ndk1::allocator<char> > >(std::__ndk1::basic_string_view<char, std::__ndk1::char_traits<char> >, std::__ndk1::basic_string<char, std::__ndk1::char_traits<char>, std::__ndk1::allocator<char> > const&)
PUBLIC 3a5a4 0 MoreIconsAPI::hasIcon(std::__ndk1::basic_string<char, std::__ndk1::char_traits<char>, std::__ndk1::allocator<char> > const&, IconType)
PUBLIC 3a6a0 0 MoreIconsAPI::getIconType(PlayerObject*)
PUBLIC 3a724 0 MoreIconsAPI::updateSimplePlayer(SimplePlayer*, IconType, bool)
PUBLIC 3a7d0 0 MoreIconsAPI::updateSimplePlayer(SimplePlayer*, std::__ndk1::basic_string<char, std::__ndk1::char_traits<char>, std::__ndk1::allocator<char> > const&, IconType)
PUBLIC 3ae98 0 MoreIconsAPI::updateRobotSprite(GJRobotSprite*, std::__ndk1::basic_string<char, std::__ndk1::char_traits<char>, std::__ndk1::allocator<char> > const&, IconType)
PUBLIC 3b408 0 MoreIconsAPI::updatePlayerObject(PlayerObject*, IconType, bool)
PUBLIC 3b4b4 0 MoreIconsAPI::updatePlayerObject(PlayerObject*, std::__ndk1::basic_string<char, std::__ndk1::char_traits<char>, std::__ndk1::allocator<char> > const&, IconType)
PUBLIC 3bb8c 0 __clang_call_terminate
PUBLIC 3bb9c 0 std::__ndk1::basic_string<char, std::__ndk1::char_traits<char>, std::__ndk1::allocator<char> >::__throw_length_error[abi:ne190000]() const
PUBLIC 3bbb0 0 std::__ndk1::__throw_length_error[abi:ne190000](char const*)
PUBLIC 3bc00 0 std::length_error::length_error[abi:ne190000](char const*)
PUBLIC 3bc30 0 std::__throw_bad_array_new_length([abi:ne190000], void)
PUBLIC 3bc64 0 geode::impl::ResultData<matjson::Value&, std::__ndk1::basic_string<char, std::__ndk1::char_traits<char>, std::__ndk1::allocator<char> > >::~ResultData()
PUBLIC 3bcd8 0 geode::impl::ResultData<std::__ndk1::basic_string<char, std::__ndk1::char_traits<char>, std::__ndk1::allocator<char> >, std::__ndk1::basic_string<char, std::__ndk1::char_traits<char>, std::__ndk1::allocator<char> > >::~ResultData()
PUBLIC 3bd4c 0 std::__ndk1::__throw_bad_variant_access[abi:ne190000]()
PUBLIC 3bd80 0 std::__ndk1::__variant_detail::__visitation::__base::__dispatcher<(unsigned long)0>::__dispatch[abi:ne190000]<std::__ndk1::__variant_detail::__dtor<std::__ndk1::__variant_detail::__traits<std::__ndk1::reference_wrapper<matjson::Value>, std::__ndk1::basic_string<char, std::__ndk1::char_traits<char>, std::__ndk1::allocator<char> > >, (std::__ndk1::__variant_detail::_Trait)1>::__destroy[abi:ne190000]()::{lambda(auto:1&)#1}, std::__ndk1::__variant_detail::__base<(std::__ndk1::__variant_detail::__traits<std::__ndk1::reference_wrapper<matjson::Value>, std::__ndk1::basic_string<char, std::__ndk1::char_traits<char>, std::__ndk1::allocator<char> > >)1, matjson::Value, std::__ndk1::allocator<char> >&>(std::__ndk1::__variant_detail::__dtor<std::__ndk1::__variant_detail::__traits<std::__ndk1::reference_wrapper<matjson::Value>, std::__ndk1::basic_string<char, std::__ndk1::char_traits<char>, std::__ndk1::allocator<char> > >, (std::__ndk1::__variant_detail::_Trait)1>, std::__ndk1::__variant_detail::__base<(std::__ndk1::__variant_detail::__traits<std::__ndk1::reference_wrapper<matjson::Value>, std::__ndk1::basic_string<char, std::__ndk1::char_traits<char>, std::__ndk1::allocator<char> > >)1, matjson::Value, std::__ndk1::allocator<char> >&)
PUBLIC 3bd84 0 std::__ndk1::__variant_detail::__visitation::__base::__dispatcher<(unsigned long)1>::__dispatch[abi:ne190000]<std::__ndk1::__variant_detail::__dtor<std::__ndk1::__variant_detail::__traits<std::__ndk1::reference_wrapper<matjson::Value>, std::__ndk1::basic_string<char, std::__ndk1::char_traits<char>, std::__ndk1::allocator<char> > >, (std::__ndk1::__variant_detail::_Trait)1>::__destroy[abi:ne190000]()::{lambda(auto:1&)#1}, std::__ndk1::__variant_detail::__base<(std::__ndk1::__variant_detail::__traits<std::__ndk1::reference_wrapper<matjson::Value>, std::__ndk1::basic_string<char, std::__ndk1::char_traits<char>, std::__ndk1::allocator<char> > >)1, matjson::Value, std::__ndk1::allocator<char> >&>(std::__ndk1::__variant_detail::__dtor<std::__ndk1::__variant_detail::__traits<std::__ndk1::reference_wrapper<matjson::Value>, std::__ndk1::basic_string<char, std::__ndk1::char_traits<char>, std::__ndk1::allocator<char> > >, (std::__ndk1::__variant_detail::_Trait)1>, std::__ndk1::__variant_detail::__base<(std::__ndk1::__variant_detail::__traits<std::__ndk1::reference_wrapper<matjson::Value>, std::__ndk1::basic_string<char, std::__ndk1::char_traits<char>, std::__ndk1::allocator<char> > >)1, matjson::Value, std::__ndk1::allocator<char> >&)
PUBLIC 3bd98 0 std::__ndk1::basic_string<char, std::__ndk1::char_traits<char>, std::__ndk1::allocator<char> >::__init_copy_ctor_external(char const*, unsigned long)
PUBLIC 3be2c 0 std::__ndk1::__variant_detail::__visitation::__base::__dispatcher<(unsigned long)0>::__dispatch[abi:ne190000]<std::__ndk1::__variant_detail::__dtor<std::__ndk1::__variant_detail::__traits<std::__ndk1::basic_string<char, std::__ndk1::char_traits<char>, std::__ndk1::allocator<char> >, std::__ndk1::allocator<char> >, (std::__ndk1::__variant_detail::_Trait)1>::__destroy[abi:ne190000]()::{lambda(auto:1&)#1}, std::__ndk1::__variant_detail::__base<(std::__ndk1::__variant_detail::__traits<std::__ndk1::basic_string<char, std::__ndk1::char_traits<char>, std::__ndk1::allocator<char> >, std::__ndk1::allocator<char> >)1, std::__ndk1::allocator<char>, std::__ndk1::allocator<char> >&>(std::__ndk1::__variant_detail::__dtor<std::__ndk1::__variant_detail::__traits<std::__ndk1::basic_string<char, std::__ndk1::char_traits<char>, std::__ndk1::allocator<char> >, std::__ndk1::allocator<char> >, (std::__ndk1::__variant_detail::_Trait)1>, std::__ndk1::__variant_detail::__base<(std::__ndk1::__variant_detail::__traits<std::__ndk1::basic_string<char, std::__ndk1::char_traits<char>, std::__ndk1::allocator<char> >, std::__ndk1::allocator<char> >)1, std::__ndk1::allocator<char>, std::__ndk1::allocator<char> >&)
PUBLIC 3be40 0 std::__ndk1::__variant_detail::__visitation::__base::__dispatcher<(unsigned long)1>::__dispatch[abi:ne190000]<std::__ndk1::__variant_detail::__dtor<std::__ndk1::__variant_detail::__traits<std::__ndk1::basic_string<char, std::__ndk1::char_traits<char>, std::__ndk1::allocator<char> >, std::__ndk1::allocator<char> >, (std::__ndk1::__variant_detail::_Trait)1>::__destroy[abi:ne190000]()::{lambda(auto:1&)#1}, std::__ndk1::__variant_detail::__base<(std::__ndk1::__variant_detail::__traits<std::__ndk1::basic_string<char, std::__ndk1::char_traits<char>, std::__ndk1::allocator<char> >, std::__ndk1::allocator<char> >)1, std::__ndk1::allocator<char>, std::__ndk1::allocator<char> >&>(std::__ndk1::__variant_detail::__dtor<std::__ndk1::__variant_detail::__traits<std::__ndk1::basic_string<char, std::__ndk1::char_traits<char>, std::__ndk1::allocator<char> >, std::__ndk1::allocator<char> >, (std::__ndk1::__variant_detail::_Trait)1>, std::__ndk1::__variant_detail::__base<(std::__ndk1::__variant_detail::__traits<std::__ndk1::basic_string<char, std::__ndk1::char_traits<char>, std::__ndk1::allocator<char> >, std::__ndk1::allocator<char> >)1, std::__ndk1::allocator<char>, std::__ndk1::allocator<char> >&)
PUBLIC 3be54 0 geode::Mod::getSavedValue<std::__ndk1::basic_string<char, std::__ndk1::char_traits<char>, std::__ndk1::allocator<char> > >(std::__ndk1::basic_string_view<char, std::__ndk1::char_traits<char> >)
PUBLIC 3c03c 0 geodeExecFunction15<(anonymous namespace)::ExecFuncUnique15>()::{lambda(SimplePlayer*, std::__ndk1::basic_string<char, std::__ndk1::char_traits<char>, std::__ndk1::allocator<char> > const&, IconType)#1}::__invoke(SimplePlayer*, std::__ndk1::basic_string<char, std::__ndk1::char_traits<char>, std::__ndk1::allocator<char> > const&, IconType)
PUBLIC 3c054 0 std::__ndk1::__function::__base<geode::ListenerResult(SimplePlayer*, std::__ndk1::basic_string<char, std::__ndk1::char_traits<char>, std::__ndk1::allocator<char> >, IconType)>::~__base()
PUBLIC 3c058 0 std::__ndk1::__function::__func<geode::ListenerResult (*)(SimplePlayer*, std::__ndk1::basic_string<char, std::__ndk1::char_traits<char>, std::__ndk1::allocator<char> > const&, IconType), std::__ndk1::allocator<geode::ListenerResult (*)(SimplePlayer*, std::__ndk1::basic_string<char, std::__ndk1::char_traits<char>, std::__ndk1::allocator<char> > const&, IconType)>, geode::ListenerResult(SimplePlayer*, std::__ndk1::basic_string<char, std::__ndk1::char_traits<char>, std::__ndk1::allocator<char> >, IconType)>::~__func()
PUBLIC 3c05c 0 std::__ndk1::__function::__func<geode::ListenerResult (*)(SimplePlayer*, std::__ndk1::basic_string<char, std::__ndk1::char_traits<char>, std::__ndk1::allocator<char> > const&, IconType), std::__ndk1::allocator<geode::ListenerResult (*)(SimplePlayer*, std::__ndk1::basic_string<char, std::__ndk1::char_traits<char>, std::__ndk1::allocator<char> > const&, IconType)>, geode::ListenerResult(SimplePlayer*, std::__ndk1::basic_string<char, std::__ndk1::char_traits<char>, std::__ndk1::allocator<char> >, IconType)>::__clone() const
PUBLIC 3c090 0 std::__ndk1::__function::__func<geode::ListenerResult (*)(SimplePlayer*, std::__ndk1::basic_string<char, std::__ndk1::char_traits<char>, std::__ndk1::allocator<char> > const&, IconType), std::__ndk1::allocator<geode::ListenerResult (*)(SimplePlayer*, std::__ndk1::basic_string<char, std::__ndk1::char_traits<char>, std::__ndk1::allocator<char> > const&, IconType)>, geode::ListenerResult(SimplePlayer*, std::__ndk1::basic_string<char, std::__ndk1::char_traits<char>, std::__ndk1::allocator<char> >, IconType)>::__clone(std::__ndk1::__function::__base<geode::ListenerResult(SimplePlayer*, std::__ndk1::basic_string<char, std::__ndk1::char_traits<char>, std::__ndk1::allocator<char> >, IconType)>*) const
PUBLIC 3c0a4 0 std::__ndk1::__function::__func<geode::ListenerResult (*)(SimplePlayer*, std::__ndk1::basic_string<char, std::__ndk1::char_traits<char>, std::__ndk1::allocator<char> > const&, IconType), std::__ndk1::allocator<geode::ListenerResult (*)(SimplePlayer*, std::__ndk1::basic_string<char, std::__ndk1::char_traits<char>, std::__ndk1::allocator<char> > const&, IconType)>, geode::ListenerResult(SimplePlayer*, std::__ndk1::basic_string<char, std::__ndk1::char_traits<char>, std::__ndk1::allocator<char> >, IconType)>::destroy()
PUBLIC 3c0a8 0 std::__ndk1::__function::__func<geode::ListenerResult (*)(SimplePlayer*, std::__ndk1::basic_string<char, std::__ndk1::char_traits<char>, std::__ndk1::allocator<char> > const&, IconType), std::__ndk1::allocator<geode::ListenerResult (*)(SimplePlayer*, std::__ndk1::basic_string<char, std::__ndk1::char_traits<char>, std::__ndk1::allocator<char> > const&, IconType)>, geode::ListenerResult(SimplePlayer*, std::__ndk1::basic_string<char, std::__ndk1::char_traits<char>, std::__ndk1::allocator<char> >, IconType)>::destroy_deallocate()
PUBLIC 3c0ac 0 std::__ndk1::__function::__func<geode::ListenerResult (*)(SimplePlayer*, std::__ndk1::basic_string<char, std::__ndk1::char_traits<char>, std::__ndk1::allocator<char> > const&, IconType), std::__ndk1::allocator<geode::ListenerResult (*)(SimplePlayer*, std::__ndk1::basic_string<char, std::__ndk1::char_traits<char>, std::__ndk1::allocator<char> > const&, IconType)>, geode::ListenerResult(SimplePlayer*, std::__ndk1::basic_string<char, std::__ndk1::char_traits<char>, std::__ndk1::allocator<char> >, IconType)>::operator()(SimplePlayer*&&, std::__ndk1::basic_string<char, std::__ndk1::char_traits<char>, std::__ndk1::allocator<char> >&&, IconType&&)
PUBLIC 3c0c8 0 std::__ndk1::__function::__func<geode::ListenerResult (*)(SimplePlayer*, std::__ndk1::basic_string<char, std::__ndk1::char_traits<char>, std::__ndk1::allocator<char> > const&, IconType), std::__ndk1::allocator<geode::ListenerResult (*)(SimplePlayer*, std::__ndk1::basic_string<char, std::__ndk1::char_traits<char>, std::__ndk1::allocator<char> > const&, IconType)>, geode::ListenerResult(SimplePlayer*, std::__ndk1::basic_string<char, std::__ndk1::char_traits<char>, std::__ndk1::allocator<char> >, IconType)>::target(std::type_info const&) const
PUBLIC 3c0e4 0 std::__ndk1::__function::__func<geode::ListenerResult (*)(SimplePlayer*, std::__ndk1::basic_string<char, std::__ndk1::char_traits<char>, std::__ndk1::allocator<char> > const&, IconType), std::__ndk1::allocator<geode::ListenerResult (*)(SimplePlayer*, std::__ndk1::basic_string<char, std::__ndk1::char_traits<char>, std::__ndk1::allocator<char> > const&, IconType)>, geode::ListenerResult(SimplePlayer*, std::__ndk1::basic_string<char, std::__ndk1::char_traits<char>, std::__ndk1::allocator<char> >, IconType)>::target_type() const
PUBLIC 3c0f0 0 geode::EventListener<geode::DispatchFilter<SimplePlayer*, std::__ndk1::basic_string<char, std::__ndk1::char_traits<char>, std::__ndk1::allocator<char> >, IconType> >::getPool() const
PUBLIC 3c1a0 0 geode::EventListener<geode::DispatchFilter<SimplePlayer*, std::__ndk1::basic_string<char, std::__ndk1::char_traits<char>, std::__ndk1::allocator<char> >, IconType> >::handle(geode::Event*)
PUBLIC 3c524 0 geode::EventListener<geode::DispatchFilter<SimplePlayer*, std::__ndk1::basic_string<char, std::__ndk1::char_traits<char>, std::__ndk1::allocator<char> >, IconType> >::~EventListener()
PUBLIC 3c590 0 geode::EventListener<geode::DispatchFilter<SimplePlayer*, std::__ndk1::basic_string<char, std::__ndk1::char_traits<char>, std::__ndk1::allocator<char> >, IconType> >::~EventListener()
PUBLIC 3c604 0 std::__ndk1::__hash_table<std::__ndk1::__hash_value_type<std::__ndk1::basic_string<char, std::__ndk1::char_traits<char>, std::__ndk1::allocator<char> >, geode::EventListenerPool*>, std::__ndk1::__unordered_map_hasher<std::__ndk1::basic_string<char, std::__ndk1::char_traits<char>, std::__ndk1::allocator<char> >, std::__ndk1::__hash_value_type<std::__ndk1::basic_string<char, std::__ndk1::char_traits<char>, std::__ndk1::allocator<char> >, geode::EventListenerPool*>, std::__ndk1::hash<std::__ndk1::basic_string<char, std::__ndk1::char_traits<char>, std::__ndk1::allocator<char> > >, std::__ndk1::equal_to<std::__ndk1::basic_string<char, std::__ndk1::char_traits<char>, std::__ndk1::allocator<char> > >, true>, std::__ndk1::__unordered_map_equal<std::__ndk1::basic_string<char, std::__ndk1::char_traits<char>, std::__ndk1::allocator<char> >, std::__ndk1::__hash_value_type<std::__ndk1::basic_string<char, std::__ndk1::char_traits<char>, std::__ndk1::allocator<char> >, geode::EventListenerPool*>, std::__ndk1::equal_to<std::__ndk1::basic_string<char, std::__ndk1::char_traits<char>, std::__ndk1::allocator<char> > >, std::__ndk1::hash<std::__ndk1::basic_string<char, std::__ndk1::char_traits<char>, std::__ndk1::allocator<char> > >, true>, std::__ndk1::allocator<std::__ndk1::__hash_value_type<std::__ndk1::basic_string<char, std::__ndk1::char_traits<char>, std::__ndk1::allocator<char> >, geode::EventListenerPool*> > >::find<std::__ndk1::basic_string<char, std::__ndk1::char_traits<char>, std::__ndk1::allocator<char> > >(std::__ndk1::basic_string<char, std::__ndk1::char_traits<char>, std::__ndk1::allocator<char> > const&) const
PUBLIC 3c858 0 std::__ndk1::__murmur2_or_cityhash<unsigned long, (unsigned long)64>::operator()[abi:ne190000](void const*, unsigned long) const
PUBLIC 3cca4 0 std::__ndk1::__hash_table<std::__ndk1::__hash_value_type<std::__ndk1::basic_string<char, std::__ndk1::char_traits<char>, std::__ndk1::allocator<char> >, geode::EventListenerPool*>, std::__ndk1::__unordered_map_hasher<std::__ndk1::basic_string<char, std::__ndk1::char_traits<char>, std::__ndk1::allocator<char> >, std::__ndk1::__hash_value_type<std::__ndk1::basic_string<char, std::__ndk1::char_traits<char>, std::__ndk1::allocator<char> >, geode::EventListenerPool*>, std::__ndk1::hash<std::__ndk1::basic_string<char, std::__ndk1::char_traits<char>, std::__ndk1::allocator<char> > >, std::__ndk1::equal_to<std::__ndk1::basic_string<char, std::__ndk1::char_traits<char>, std::__ndk1::allocator<char> > >, true>, std::__ndk1::__unordered_map_equal<std::__ndk1::basic_string<char, std::__ndk1::char_traits<char>, std::__ndk1::allocator<char> >, std::__ndk1::__hash_value_type<std::__ndk1::basic_string<char, std::__ndk1::char_traits<char>, std::__ndk1::allocator<char> >, geode::EventListenerPool*>, std::__ndk1::equal_to<std::__ndk1::basic_string<char, std::__ndk1::char_traits<char>, std::__ndk1::allocator<char> > >, std::__ndk1::hash<std::__ndk1::basic_string<char, std::__ndk1::char_traits<char>, std::__ndk1::allocator<char> > >, true>, std::__ndk1::allocator<std::__ndk1::__hash_value_type<std::__ndk1::basic_string<char, std::__ndk1::char_traits<char>, std::__ndk1::allocator<char> >, geode::EventListenerPool*> > >::__emplace_unique_key_args<std::__ndk1::basic_string<char, std::__ndk1::char_traits<char>, std::__ndk1::allocator<char> >, std::__ndk1::piecewise_construct_t const&, std::__ndk1::tuple<std::__ndk1::basic_string<char, std::__ndk1::char_traits<char>, std::__ndk1::allocator<char> > const&>, std::__ndk1::tuple<> >(std::__ndk1::basic_string<char, std::__ndk1::char_traits<char>, std::__ndk1::allocator<char> > const&, std::__ndk1::piecewise_construct_t const&, std::__ndk1::tuple<std::__ndk1::basic_string<char, std::__ndk1::char_traits<char>, std::__ndk1::allocator<char> > const&>, std::__ndk1::tuple<>)
PUBLIC 3d164 0 std::__ndk1::unique_ptr<std::__ndk1::__hash_node<std::__ndk1::__hash_value_type<std::__ndk1::basic_string<char, std::__ndk1::char_traits<char>, std::__ndk1::allocator<char> >, geode::EventListenerPool*>, void*>, std::__ndk1::__hash_node_destructor<std::__ndk1::allocator<std::__ndk1::__hash_node<std::__ndk1::__hash_value_type<std::__ndk1::basic_string<char, std::__ndk1::char_traits<char>, std::__ndk1::allocator<char> >, geode::EventListenerPool*>, void*> > > >::~unique_ptr[abi:ne190000]()
PUBLIC 3d1b4 0 std::__ndk1::__hash_table<std::__ndk1::__hash_value_type<std::__ndk1::basic_string<char, std::__ndk1::char_traits<char>, std::__ndk1::allocator<char> >, geode::EventListenerPool*>, std::__ndk1::__unordered_map_hasher<std::__ndk1::basic_string<char, std::__ndk1::char_traits<char>, std::__ndk1::allocator<char> >, std::__ndk1::__hash_value_type<std::__ndk1::basic_string<char, std::__ndk1::char_traits<char>, std::__ndk1::allocator<char> >, geode::EventListenerPool*>, std::__ndk1::hash<std::__ndk1::basic_string<char, std::__ndk1::char_traits<char>, std::__ndk1::allocator<char> > >, std::__ndk1::equal_to<std::__ndk1::basic_string<char, std::__ndk1::char_traits<char>, std::__ndk1::allocator<char> > >, true>, std::__ndk1::__unordered_map_equal<std::__ndk1::basic_string<char, std::__ndk1::char_traits<char>, std::__ndk1::allocator<char> >, std::__ndk1::__hash_value_type<std::__ndk1::basic_string<char, std::__ndk1::char_traits<char>, std::__ndk1::allocator<char> >, geode::EventListenerPool*>, std::__ndk1::equal_to<std::__ndk1::basic_string<char, std::__ndk1::char_traits<char>, std::__ndk1::allocator<char> > >, std::__ndk1::hash<std::__ndk1::basic_string<char, std::__ndk1::char_traits<char>, std::__ndk1::allocator<char> > >, true>, std::__ndk1::allocator<std::__ndk1::__hash_value_type<std::__ndk1::basic_string<char, std::__ndk1::char_traits<char>, std::__ndk1::allocator<char> >, geode::EventListenerPool*> > >::__do_rehash<true>(unsigned long)
PUBLIC 3d360 0 geode::cast::traverseTypeinfoFor(void*, geode::cast::ClassTypeinfoType const*, char const*)
PUBLIC 3d464 0 std::__ndk1::__throw_bad_function_call[abi:ne190000]()
PUBLIC 3d498 0 std::__ndk1::bad_function_call::~bad_function_call()
PUBLIC 3d4bc 0 geodeExecFunction15<(anonymous namespace)::ExecFuncUnique15>()::{lambda(GJRobotSprite*, std::__ndk1::basic_string<char, std::__ndk1::char_traits<char>, std::__ndk1::allocator<char> > const&, IconType)#1}::__invoke(GJRobotSprite*, std::__ndk1::basic_string<char, std::__ndk1::char_traits<char>, std::__ndk1::allocator<char> > const&, IconType)
PUBLIC 3d4d4 0 std::__ndk1::__function::__base<geode::ListenerResult(GJRobotSprite*, std::__ndk1::basic_string<char, std::__ndk1::char_traits<char>, std::__ndk1::allocator<char> >, IconType)>::~__base()
PUBLIC 3d4d8 0 std::__ndk1::__function::__func<geode::ListenerResult (*)(GJRobotSprite*, std::__ndk1::basic_string<char, std::__ndk1::char_traits<char>, std::__ndk1::allocator<char> > const&, IconType), std::__ndk1::allocator<geode::ListenerResult (*)(GJRobotSprite*, std::__ndk1::basic_string<char, std::__ndk1::char_traits<char>, std::__ndk1::allocator<char> > const&, IconType)>, geode::ListenerResult(GJRobotSprite*, std::__ndk1::basic_string<char, std::__ndk1::char_traits<char>, std::__ndk1::allocator<char> >, IconType)>::~__func()
PUBLIC 3d4dc 0 std::__ndk1::__function::__func<geode::ListenerResult (*)(GJRobotSprite*, std::__ndk1::basic_string<char, std::__ndk1::char_traits<char>, std::__ndk1::allocator<char> > const&, IconType), std::__ndk1::allocator<geode::ListenerResult (*)(GJRobotSprite*, std::__ndk1::basic_string<char, std::__ndk1::char_traits<char>, std::__ndk1::allocator<char> > const&, IconType)>, geode::ListenerResult(GJRobotSprite*, std::__ndk1::basic_string<char, std::__ndk1::char_traits<char>, std::__ndk1::allocator<char> >, IconType)>::__clone() const
PUBLIC 3d510 0 std::__ndk1::__function::__func<geode::ListenerResult (*)(GJRobotSprite*, std::__ndk1::basic_string<char, std::__ndk1::char_traits<char>, std::__ndk1::allocator<char> > const&, IconType), std::__ndk1::allocator<geode::ListenerResult (*)(GJRobotSprite*, std::__ndk1::basic_string<char, std::__ndk1::char_traits<char>, std::__ndk1::allocator<char> > const&, IconType)>, geode::ListenerResult(GJRobotSprite*, std::__ndk1::basic_string<char, std::__ndk1::char_traits<char>, std::__ndk1::allocator<char> >, IconType)>::__clone(std::__ndk1::__function::__base<geode::ListenerResult(GJRobotSprite*, std::__ndk1::basic_string<char, std::__ndk1::char_traits<char>, std::__ndk1::allocator<char> >, IconType)>*) const
PUBLIC 3d524 0 std::__ndk1::__function::__func<geode::ListenerResult (*)(GJRobotSprite*, std::__ndk1::basic_string<char, std::__ndk1::char_traits<char>, std::__ndk1::allocator<char> > const&, IconType), std::__ndk1::allocator<geode::ListenerResult (*)(GJRobotSprite*, std::__ndk1::basic_string<char, std::__ndk1::char_traits<char>, std::__ndk1::allocator<char> > const&, IconType)>, geode::ListenerResult(GJRobotSprite*, std::__ndk1::basic_string<char, std::__ndk1::char_traits<char>, std::__ndk1::allocator<char> >, IconType)>::destroy()
PUBLIC 3d528 0 std::__ndk1::__function::__func<geode::ListenerResult (*)(GJRobotSprite*, std::__ndk1::basic_string<char, std::__ndk1::char_traits<char>, std::__ndk1::allocator<char> > const&, IconType), std::__ndk1::allocator<geode::ListenerResult (*)(GJRobotSprite*, std::__ndk1::basic_string<char, std::__ndk1::char_traits<char>, std::__ndk1::allocator<char> > const&, IconType)>, geode::ListenerResult(GJRobotSprite*, std::__ndk1::basic_string<char, std::__ndk1::char_traits<char>, std::__ndk1::allocator<char> >, IconType)>::destroy_deallocate()
PUBLIC 3d52c 0 std::__ndk1::__function::__func<geode::ListenerResult (*)(GJRobotSprite*, std::__ndk1::basic_string<char, std::__ndk1::char_traits<char>, std::__ndk1::allocator<char> > const&, IconType), std::__ndk1::allocator<geode::ListenerResult (*)(GJRobotSprite*, std::__ndk1::basic_string<char, std::__ndk1::char_traits<char>, std::__ndk1::allocator<char> > const&, IconType)>, geode::ListenerResult(GJRobotSprite*, std::__ndk1::basic_string<char, std::__ndk1::char_traits<char>, std::__ndk1::allocator<char> >, IconType)>::operator()(GJRobotSprite*&&, std::__ndk1::basic_string<char, std::__ndk1::char_traits<char>, std::__ndk1::allocator<char> >&&, IconType&&)
PUBLIC 3d548 0 std::__ndk1::__function::__func<geode::ListenerResult (*)(GJRobotSprite*, std::__ndk1::basic_string<char, std::__ndk1::char_traits<char>, std::__ndk1::allocator<char> > const&, IconType), std::__ndk1::allocator<geode::ListenerResult (*)(GJRobotSprite*, std::__ndk1::basic_string<char, std::__ndk1::char_traits<char>, std::__ndk1::allocator<char> > const&, IconType)>, geode::ListenerResult(GJRobotSprite*, std::__ndk1::basic_string<char, std::__ndk1::char_traits<char>, std::__ndk1::allocator<char> >, IconType)>::target(std::type_info const&) const
PUBLIC 3d564 0 std::__ndk1::__function::__func<geode::ListenerResult (*)(GJRobotSprite*, std::__ndk1::basic_string<char, std::__ndk1::char_traits<char>, std::__ndk1::allocator<char> > const&, IconType), std::__ndk1::allocator<geode::ListenerResult (*)(GJRobotSprite*, std::__ndk1::basic_string<char, std::__ndk1::char_traits<char>, std::__ndk1::allocator<char> > const&, IconType)>, geode::ListenerResult(GJRobotSprite*, std::__ndk1::basic_string<char, std::__ndk1::char_traits<char>, std::__ndk1::allocator<char> >, IconType)>::target_type() const
PUBLIC 3d570 0 geode::EventListener<geode::DispatchFilter<GJRobotSprite*, std::__ndk1::basic_string<char, std::__ndk1::char_traits<char>, std::__ndk1::allocator<char> >, IconType> >::getPool() const
PUBLIC 3d620 0 geode::EventListener<geode::DispatchFilter<GJRobotSprite*, std::__ndk1::basic_string<char, std::__ndk1::char_traits<char>, std::__ndk1::allocator<char> >, IconType> >::handle(geode::Event*)
PUBLIC 3d9a4 0 geode::EventListener<geode::DispatchFilter<GJRobotSprite*, std::__ndk1::basic_string<char, std::__ndk1::char_traits<char>, std::__ndk1::allocator<char> >, IconType> >::~EventListener()
PUBLIC 3da10 0 geode::EventListener<geode::DispatchFilter<GJRobotSprite*, std::__ndk1::basic_string<char, std::__ndk1::char_traits<char>, std::__ndk1::allocator<char> >, IconType> >::~EventListener()
PUBLIC 3da84 0 geodeExecFunction15<(anonymous namespace)::ExecFuncUnique15>()::{lambda(PlayerObject*, std::__ndk1::basic_string<char, std::__ndk1::char_traits<char>, std::__ndk1::allocator<char> > const&, IconType)#1}::__invoke(PlayerObject*, std::__ndk1::basic_string<char, std::__ndk1::char_traits<char>, std::__ndk1::allocator<char> > const&, IconType)
PUBLIC 3da9c 0 std::__ndk1::__function::__base<geode::ListenerResult(PlayerObject*, std::__ndk1::basic_string<char, std::__ndk1::char_traits<char>, std::__ndk1::allocator<char> >, IconType)>::~__base()
PUBLIC 3daa0 0 std::__ndk1::__function::__func<geode::ListenerResult (*)(PlayerObject*, std::__ndk1::basic_string<char, std::__ndk1::char_traits<char>, std::__ndk1::allocator<char> > const&, IconType), std::__ndk1::allocator<geode::ListenerResult (*)(PlayerObject*, std::__ndk1::basic_string<char, std::__ndk1::char_traits<char>, std::__ndk1::allocator<char> > const&, IconType)>, geode::ListenerResult(PlayerObject*, std::__ndk1::basic_string<char, std::__ndk1::char_traits<char>, std::__ndk1::allocator<char> >, IconType)>::~__func()
PUBLIC 3daa4 0 std::__ndk1::__function::__func<geode::ListenerResult (*)(PlayerObject*, std::__ndk1::basic_string<char, std::__ndk1::char_traits<char>, std::__ndk1::allocator<char> > const&, IconType), std::__ndk1::allocator<geode::ListenerResult (*)(PlayerObject*, std::__ndk1::basic_string<char, std::__ndk1::char_traits<char>, std::__ndk1::allocator<char> > const&, IconType)>, geode::ListenerResult(PlayerObject*, std::__ndk1::basic_string<char, std::__ndk1::char_traits<char>, std::__ndk1::allocator<char> >, IconType)>::__clone() const
PUBLIC 3dad8 0 std::__ndk1::__function::__func<geode::ListenerResult (*)(PlayerObject*, std::__ndk1::basic_string<char, std::__ndk1::char_traits<char>, std::__ndk1::allocator<char> > const&, IconType), std::__ndk1::allocator<geode::ListenerResult (*)(PlayerObject*, std::__ndk1::basic_string<char, std::__ndk1::char_traits<char>, std::__ndk1::allocator<char> > const&, IconType)>, geode::ListenerResult(PlayerObject*, std::__ndk1::basic_string<char, std::__ndk1::char_traits<char>, std::__ndk1::allocator<char> >, IconType)>::__clone(std::__ndk1::__function::__base<geode::ListenerResult(PlayerObject*, std::__ndk1::basic_string<char, std::__ndk1::char_traits<char>, std::__ndk1::allocator<char> >, IconType)>*) const
PUBLIC 3daec 0 std::__ndk1::__function::__func<geode::ListenerResult (*)(PlayerObject*, std::__ndk1::basic_string<char, std::__ndk1::char_traits<char>, std::__ndk1::allocator<char> > const&, IconType), std::__ndk1::allocator<geode::ListenerResult (*)(PlayerObject*, std::__ndk1::basic_string<char, std::__ndk1::char_traits<char>, std::__ndk1::allocator<char> > const&, IconType)>, geode::ListenerResult(PlayerObject*, std::__ndk1::basic_string<char, std::__ndk1::char_traits<char>, std::__ndk1::allocator<char> >, IconType)>::destroy()
PUBLIC 3daf0 0 std::__ndk1::__function::__func<geode::ListenerResult (*)(PlayerObject*, std::__ndk1::basic_string<char, std::__ndk1::char_traits<char>, std::__ndk1::allocator<char> > const&, IconType), std::__ndk1::allocator<geode::ListenerResult (*)(PlayerObject*, std::__ndk1::basic_string<char, std::__ndk1::char_traits<char>, std::__ndk1::allocator<char> > const&, IconType)>, geode::ListenerResult(PlayerObject*, std::__ndk1::basic_string<char, std::__ndk1::char_traits<char>, std::__ndk1::allocator<char> >, IconType)>::destroy_deallocate()
PUBLIC 3daf4 0 std::__ndk1::__function::__func<geode::ListenerResult (*)(PlayerObject*, std::__ndk1::basic_string<char, std::__ndk1::char_traits<char>, std::__ndk1::allocator<char> > const&, IconType), std::__ndk1::allocator<geode::ListenerResult (*)(PlayerObject*, std::__ndk1::basic_string<char, std::__ndk1::char_traits<char>, std::__ndk1::allocator<char> > const&, IconType)>, geode::ListenerResult(PlayerObject*, std::__ndk1::basic_string<char, std::__ndk1::char_traits<char>, std::__ndk1::allocator<char> >, IconType)>::operator()(PlayerObject*&&, std::__ndk1::basic_string<char, std::__ndk1::char_traits<char>, std::__ndk1::allocator<char> >&&, IconType&&)
PUBLIC 3db10 0 std::__ndk1::__function::__func<geode::ListenerResult (*)(PlayerObject*, std::__ndk1::basic_string<char, std::__ndk1::char_traits<char>, std::__ndk1::allocator<char> > const&, IconType), std::__ndk1::allocator<geode::ListenerResult (*)(PlayerObject*, std::__ndk1::basic_string<char, std::__ndk1::char_traits<char>, std::__ndk1::allocator<char> > const&, IconType)>, geode::ListenerResult(PlayerObject*, std::__ndk1::basic_string<char, std::__ndk1::char_traits<char>, std::__ndk1::allocator<char> >, IconType)>::target(std::type_info const&) const
PUBLIC 3db2c 0 std::__ndk1::__function::__func<geode::ListenerResult (*)(PlayerObject*, std::__ndk1::basic_string<char, std::__ndk1::char_traits<char>, std::__ndk1::allocator<char> > const&, IconType), std::__ndk1::allocator<geode::ListenerResult (*)(PlayerObject*, std::__ndk1::basic_string<char, std::__ndk1::char_traits<char>, std::__ndk1::allocator<char> > const&, IconType)>, geode::ListenerResult(PlayerObject*, std::__ndk1::basic_string<char, std::__ndk1::char_traits<char>, std::__ndk1::allocator<char> >, IconType)>::target_type() const
PUBLIC 3db38 0 geode::EventListener<geode::DispatchFilter<PlayerObject*, std::__ndk1::basic_string<char, std::__ndk1::char_traits<char>, std::__ndk1::allocator<char> >, IconType> >::getPool() const
PUBLIC 3dbe8 0 geode::EventListener<geode::DispatchFilter<PlayerObject*, std::__ndk1::basic_string<char, std::__ndk1::char_traits<char>, std::__ndk1::allocator<char> >, IconType> >::handle(geode::Event*)
PUBLIC 3df6c 0 geode::EventListener<geode::DispatchFilter<PlayerObject*, std::__ndk1::basic_string<char, std::__ndk1::char_traits<char>, std::__ndk1::allocator<char> >, IconType> >::~EventListener()
PUBLIC 3dfd8 0 geode::EventListener<geode::DispatchFilter<PlayerObject*, std::__ndk1::basic_string<char, std::__ndk1::char_traits<char>, std::__ndk1::allocator<char> >, IconType> >::~EventListener()
PUBLIC 3e04c 0 geodeExecFunction15<(anonymous namespace)::ExecFuncUnique15>()::{lambda(std::__ndk1::vector<std::__ndk1::basic_string<char, std::__ndk1::char_traits<char>, std::__ndk1::allocator<char> >, std::__ndk1::allocator<std::__ndk1::basic_string<char, std::__ndk1::char_traits<char>, std::__ndk1::allocator<char> > > >*, IconType)#1}::__invoke(std::__ndk1::vector<std::__ndk1::basic_string<char, std::__ndk1::char_traits<char>, std::__ndk1::allocator<char> >, std::__ndk1::allocator<std::__ndk1::basic_string<char, std::__ndk1::char_traits<char>, std::__ndk1::allocator<char> > > >*, IconType)
PUBLIC 3e468 0 std::__ndk1::__exception_guard_exceptions<std::__ndk1::_AllocatorDestroyRangeReverse<std::__ndk1::allocator<std::__ndk1::basic_string<char, std::__ndk1::char_traits<char>, std::__ndk1::allocator<char> > >, std::__ndk1::basic_string<char, std::__ndk1::char_traits<char>, std::__ndk1::allocator<char> >*> >::~__exception_guard_exceptions[abi:ne190000]()
PUBLIC 3e4c8 0 std::__ndk1::basic_string<char, std::__ndk1::char_traits<char>, std::__ndk1::allocator<char> >::__assign_no_alias<true>(char const*, unsigned long)
PUBLIC 3e574 0 std::__ndk1::basic_string<char, std::__ndk1::char_traits<char>, std::__ndk1::allocator<char> >::__assign_no_alias<false>(char const*, unsigned long)
PUBLIC 3e6b0 0 std::__ndk1::vector<std::__ndk1::basic_string<char, std::__ndk1::char_traits<char>, std::__ndk1::allocator<char> >, std::__ndk1::allocator<std::__ndk1::basic_string<char, std::__ndk1::char_traits<char>, std::__ndk1::allocator<char> > > >::__throw_length_error[abi:ne190000]() const
PUBLIC 3e6c4 0 geode::EventListener<geode::DispatchFilter<std::__ndk1::vector<std::__ndk1::basic_string<char, std::__ndk1::char_traits<char>, std::__ndk1::allocator<char> >, std::__ndk1::allocator<std::__ndk1::basic_string<char, std::__ndk1::char_traits<char>, std::__ndk1::allocator<char> > > >*, IconType> >::getPool() const
PUBLIC 3e774 0 geode::EventListener<geode::DispatchFilter<std::__ndk1::vector<std::__ndk1::basic_string<char, std::__ndk1::char_traits<char>, std::__ndk1::allocator<char> >, std::__ndk1::allocator<std::__ndk1::basic_string<char, std::__ndk1::char_traits<char>, std::__ndk1::allocator<char> > > >*, IconType> >::handle(geode::Event*)
PUBLIC 3ea2c 0 geode::EventListener<geode::DispatchFilter<std::__ndk1::vector<std::__ndk1::basic_string<char, std::__ndk1::char_traits<char>, std::__ndk1::allocator<char> >, std::__ndk1::allocator<std::__ndk1::basic_string<char, std::__ndk1::char_traits<char>, std::__ndk1::allocator<char> > > >*, IconType> >::~EventListener()
PUBLIC 3ea98 0 geode::EventListener<geode::DispatchFilter<std::__ndk1::vector<std::__ndk1::basic_string<char, std::__ndk1::char_traits<char>, std::__ndk1::allocator<char> >, std::__ndk1::allocator<std::__ndk1::basic_string<char, std::__ndk1::char_traits<char>, std::__ndk1::allocator<char> > > >*, IconType> >::~EventListener()
PUBLIC 3eb0c 0 std::__ndk1::__function::__base<geode::ListenerResult(std::__ndk1::vector<std::__ndk1::basic_string<char, std::__ndk1::char_traits<char>, std::__ndk1::allocator<char> >, std::__ndk1::allocator<std::__ndk1::basic_string<char, std::__ndk1::char_traits<char>, std::__ndk1::allocator<char> > > >*, IconType)>::~__base()
PUBLIC 3eb10 0 std::__ndk1::__function::__func<geode::ListenerResult (*)(std::__ndk1::vector<std::__ndk1::basic_string<char, std::__ndk1::char_traits<char>, std::__ndk1::allocator<char> >, std::__ndk1::allocator<std::__ndk1::basic_string<char, std::__ndk1::char_traits<char>, std::__ndk1::allocator<char> > > >*, IconType), std::__ndk1::allocator<geode::ListenerResult (*)(std::__ndk1::vector<std::__ndk1::basic_string<char, std::__ndk1::char_traits<char>, std::__ndk1::allocator<char> >, std::__ndk1::allocator<std::__ndk1::basic_string<char, std::__ndk1::char_traits<char>, std::__ndk1::allocator<char> > > >*, IconType)>, geode::ListenerResult(std::__ndk1::vector<std::__ndk1::basic_string<char, std::__ndk1::char_traits<char>, std::__ndk1::allocator<char> >, std::__ndk1::allocator<std::__ndk1::basic_string<char, std::__ndk1::char_traits<char>, std::__ndk1::allocator<char> > > >*, IconType)>::~__func()
PUBLIC 3eb14 0 std::__ndk1::__function::__func<geode::ListenerResult (*)(std::__ndk1::vector<std::__ndk1::basic_string<char, std::__ndk1::char_traits<char>, std::__ndk1::allocator<char> >, std::__ndk1::allocator<std::__ndk1::basic_string<char, std::__ndk1::char_traits<char>, std::__ndk1::allocator<char> > > >*, IconType), std::__ndk1::allocator<geode::ListenerResult (*)(std::__ndk1::vector<std::__ndk1::basic_string<char, std::__ndk1::char_traits<char>, std::__ndk1::allocator<char> >, std::__ndk1::allocator<std::__ndk1::basic_string<char, std::__ndk1::char_traits<char>, std::__ndk1::allocator<char> > > >*, IconType)>, geode::ListenerResult(std::__ndk1::vector<std::__ndk1::basic_string<char, std::__ndk1::char_traits<char>, std::__ndk1::allocator<char> >, std::__ndk1::allocator<std::__ndk1::basic_string<char, std::__ndk1::char_traits<char>, std::__ndk1::allocator<char> > > >*, IconType)>::__clone() const
PUBLIC 3eb48 0 std::__ndk1::__function::__func<geode::ListenerResult (*)(std::__ndk1::vector<std::__ndk1::basic_string<char, std::__ndk1::char_traits<char>, std::__ndk1::allocator<char> >, std::__ndk1::allocator<std::__ndk1::basic_string<char, std::__ndk1::char_traits<char>, std::__ndk1::allocator<char> > > >*, IconType), std::__ndk1::allocator<geode::ListenerResult (*)(std::__ndk1::vector<std::__ndk1::basic_string<char, std::__ndk1::char_traits<char>, std::__ndk1::allocator<char> >, std::__ndk1::allocator<std::__ndk1::basic_string<char, std::__ndk1::char_traits<char>, std::__ndk1::allocator<char> > > >*, IconType)>, geode::ListenerResult(std::__ndk1::vector<std::__ndk1::basic_string<char, std::__ndk1::char_traits<char>, std::__ndk1::allocator<char> >, std::__ndk1::allocator<std::__ndk1::basic_string<char, std::__ndk1::char_traits<char>, std::__ndk1::allocator<char> > > >*, IconType)>::__clone(std::__ndk1::__function::__base<geode::ListenerResult(std::__ndk1::vector<std::__ndk1::basic_string<char, std::__ndk1::char_traits<char>, std::__ndk1::allocator<char> >, std::__ndk1::allocator<std::__ndk1::basic_string<char, std::__ndk1::char_traits<char>, std::__ndk1::allocator<char> > > >*, IconType)>*) const
PUBLIC 3eb5c 0 std::__ndk1::__function::__func<geode::ListenerResult (*)(std::__ndk1::vector<std::__ndk1::basic_string<char, std::__ndk1::char_traits<char>, std::__ndk1::allocator<char> >, std::__ndk1::allocator<std::__ndk1::basic_string<char, std::__ndk1::char_traits<char>, std::__ndk1::allocator<char> > > >*, IconType), std::__ndk1::allocator<geode::ListenerResult (*)(std::__ndk1::vector<std::__ndk1::basic_string<char, std::__ndk1::char_traits<char>, std::__ndk1::allocator<char> >, std::__ndk1::allocator<std::__ndk1::basic_string<char, std::__ndk1::char_traits<char>, std::__ndk1::allocator<char> > > >*, IconType)>, geode::ListenerResult(std::__ndk1::vector<std::__ndk1::basic_string<char, std::__ndk1::char_traits<char>, std::__ndk1::allocator<char> >, std::__ndk1::allocator<std::__ndk1::basic_string<char, std::__ndk1::char_traits<char>, std::__ndk1::allocator<char> > > >*, IconType)>::destroy()
PUBLIC 3eb60 0 std::__ndk1::__function::__func<geode::ListenerResult (*)(std::__ndk1::vector<std::__ndk1::basic_string<char, std::__ndk1::char_traits<char>, std::__ndk1::allocator<char> >, std::__ndk1::allocator<std::__ndk1::basic_string<char, std::__ndk1::char_traits<char>, std::__ndk1::allocator<char> > > >*, IconType), std::__ndk1::allocator<geode::ListenerResult (*)(std::__ndk1::vector<std::__ndk1::basic_string<char, std::__ndk1::char_traits<char>, std::__ndk1::allocator<char> >, std::__ndk1::allocator<std::__ndk1::basic_string<char, std::__ndk1::char_traits<char>, std::__ndk1::allocator<char> > > >*, IconType)>, geode::ListenerResult(std::__ndk1::vector<std::__ndk1::basic_string<char, std::__ndk1::char_traits<char>, std::__ndk1::allocator<char> >, std::__ndk1::allocator<std::__ndk1::basic_string<char, std::__ndk1::char_traits<char>, std::__ndk1::allocator<char> > > >*, IconType)>::destroy_deallocate()
PUBLIC 3eb64 0 std::__ndk1::__function::__func<geode::ListenerResult (*)(std::__ndk1::vector<std::__ndk1::basic_string<char, std::__ndk1::char_traits<char>, std::__ndk1::allocator<char> >, std::__ndk1::allocator<std::__ndk1::basic_string<char, std::__ndk1::char_traits<char>, std::__ndk1::allocator<char> > > >*, IconType), std::__ndk1::allocator<geode::ListenerResult (*)(std::__ndk1::vector<std::__ndk1::basic_string<char, std::__ndk1::char_traits<char>, std::__ndk1::allocator<char> >, std::__ndk1::allocator<std::__ndk1::basic_string<char, std::__ndk1::char_traits<char>, std::__ndk1::allocator<char> > > >*, IconType)>, geode::ListenerResult(std::__ndk1::vector<std::__ndk1::basic_string<char, std::__ndk1::char_traits<char>, std::__ndk1::allocator<char> >, std::__ndk1::allocator<std::__ndk1::basic_string<char, std::__ndk1::char_traits<char>, std::__ndk1::allocator<char> > > >*, IconType)>::operator()(std::__ndk1::vector<std::__ndk1::basic_string<char, std::__ndk1::char_traits<char>, std::__ndk1::allocator<char> >, std::__ndk1::allocator<std::__ndk1::basic_string<char, std::__ndk1::char_traits<char>, std::__ndk1::allocator<char> > > >*&&, IconType&&)
PUBLIC 3eb78 0 std::__ndk1::__function::__func<geode::ListenerResult (*)(std::__ndk1::vector<std::__ndk1::basic_string<char, std::__ndk1::char_traits<char>, std::__ndk1::allocator<char> >, std::__ndk1::allocator<std::__ndk1::basic_string<char, std::__ndk1::char_traits<char>, std::__ndk1::allocator<char> > > >*, IconType), std::__ndk1::allocator<geode::ListenerResult (*)(std::__ndk1::vector<std::__ndk1::basic_string<char, std::__ndk1::char_traits<char>, std::__ndk1::allocator<char> >, std::__ndk1::allocator<std::__ndk1::basic_string<char, std::__ndk1::char_traits<char>, std::__ndk1::allocator<char> > > >*, IconType)>, geode::ListenerResult(std::__ndk1::vector<std::__ndk1::basic_string<char, std::__ndk1::char_traits<char>, std::__ndk1::allocator<char> >, std::__ndk1::allocator<std::__ndk1::basic_string<char, std::__ndk1::char_traits<char>, std::__ndk1::allocator<char> > > >*, IconType)>::target(std::type_info const&) const
PUBLIC 3eb94 0 std::__ndk1::__function::__func<geode::ListenerResult (*)(std::__ndk1::vector<std::__ndk1::basic_string<char, std::__ndk1::char_traits<char>, std::__ndk1::allocator<char> >, std::__ndk1::allocator<std::__ndk1::basic_string<char, std::__ndk1::char_traits<char>, std::__ndk1::allocator<char> > > >*, IconType), std::__ndk1::allocator<geode::ListenerResult (*)(std::__ndk1::vector<std::__ndk1::basic_string<char, std::__ndk1::char_traits<char>, std::__ndk1::allocator<char> >, std::__ndk1::allocator<std::__ndk1::basic_string<char, std::__ndk1::char_traits<char>, std::__ndk1::allocator<char> > > >*, IconType)>, geode::ListenerResult(std::__ndk1::vector<std::__ndk1::basic_string<char, std::__ndk1::char_traits<char>, std::__ndk1::allocator<char> >, std::__ndk1::allocator<std::__ndk1::basic_string<char, std::__ndk1::char_traits<char>, std::__ndk1::allocator<char> > > >*, IconType)>::target_type() const
PUBLIC 3eba0 0 geodeExecFunction15<(anonymous namespace)::ExecFuncUnique15>()::{lambda(GJRobotSprite*, std::__ndk1::basic_string<char, std::__ndk1::char_traits<char>, std::__ndk1::allocator<char> > const&)#1}::__invoke(GJRobotSprite*, std::__ndk1::basic_string<char, std::__ndk1::char_traits<char>, std::__ndk1::allocator<char> > const&)
PUBLIC 3ebd8 0 std::__ndk1::__function::__base<geode::ListenerResult(GJRobotSprite*, std::__ndk1::basic_string<char, std::__ndk1::char_traits<char>, std::__ndk1::allocator<char> >)>::~__base()
PUBLIC 3ebdc 0 std::__ndk1::__function::__func<geode::ListenerResult (*)(GJRobotSprite*, std::__ndk1::basic_string<char, std::__ndk1::char_traits<char>, std::__ndk1::allocator<char> > const&), std::__ndk1::allocator<geode::ListenerResult (*)(GJRobotSprite*, std::__ndk1::basic_string<char, std::__ndk1::char_traits<char>, std::__ndk1::allocator<char> > const&)>, geode::ListenerResult(GJRobotSprite*, std::__ndk1::basic_string<char, std::__ndk1::char_traits<char>, std::__ndk1::allocator<char> >)>::~__func()
PUBLIC 3ebe0 0 std::__ndk1::__function::__func<geode::ListenerResult (*)(GJRobotSprite*, std::__ndk1::basic_string<char, std::__ndk1::char_traits<char>, std::__ndk1::allocator<char> > const&), std::__ndk1::allocator<geode::ListenerResult (*)(GJRobotSprite*, std::__ndk1::basic_string<char, std::__ndk1::char_traits<char>, std::__ndk1::allocator<char> > const&)>, geode::ListenerResult(GJRobotSprite*, std::__ndk1::basic_string<char, std::__ndk1::char_traits<char>, std::__ndk1::allocator<char> >)>::__clone() const
PUBLIC 3ec14 0 std::__ndk1::__function::__func<geode::ListenerResult (*)(GJRobotSprite*, std::__ndk1::basic_string<char, std::__ndk1::char_traits<char>, std::__ndk1::allocator<char> > const&), std::__ndk1::allocator<geode::ListenerResult (*)(GJRobotSprite*, std::__ndk1::basic_string<char, std::__ndk1::char_traits<char>, std::__ndk1::allocator<char> > const&)>, geode::ListenerResult(GJRobotSprite*, std::__ndk1::basic_string<char, std::__ndk1::char_traits<char>, std::__ndk1::allocator<char> >)>::__clone(std::__ndk1::__function::__base<geode::ListenerResult(GJRobotSprite*, std::__ndk1::basic_string<char, std::__ndk1::char_traits<char>, std::__ndk1::allocator<char> >)>*) const
PUBLIC 3ec28 0 std::__ndk1::__function::__func<geode::ListenerResult (*)(GJRobotSprite*, std::__ndk1::basic_string<char, std::__ndk1::char_traits<char>, std::__ndk1::allocator<char> > const&), std::__ndk1::allocator<geode::ListenerResult (*)(GJRobotSprite*, std::__ndk1::basic_string<char, std::__ndk1::char_traits<char>, std::__ndk1::allocator<char> > const&)>, geode::ListenerResult(GJRobotSprite*, std::__ndk1::basic_string<char, std::__ndk1::char_traits<char>, std::__ndk1::allocator<char> >)>::destroy()
PUBLIC 3ec2c 0 std::__ndk1::__function::__func<geode::ListenerResult (*)(GJRobotSprite*, std::__ndk1::basic_string<char, std::__ndk1::char_traits<char>, std::__ndk1::allocator<char> > const&), std::__ndk1::allocator<geode::ListenerResult (*)(GJRobotSprite*, std::__ndk1::basic_string<char, std::__ndk1::char_traits<char>, std::__ndk1::allocator<char> > const&)>, geode::ListenerResult(GJRobotSprite*, std::__ndk1::basic_string<char, std::__ndk1::char_traits<char>, std::__ndk1::allocator<char> >)>::destroy_deallocate()
PUBLIC 3ec30 0 std::__ndk1::__function::__func<geode::ListenerResult (*)(GJRobotSprite*, std::__ndk1::basic_string<char, std::__ndk1::char_traits<char>, std::__ndk1::allocator<char> > const&), std::__ndk1::allocator<geode::ListenerResult (*)(GJRobotSprite*, std::__ndk1::basic_string<char, std::__ndk1::char_traits<char>, std::__ndk1::allocator<char> > const&)>, geode::ListenerResult(GJRobotSprite*, std::__ndk1::basic_string<char, std::__ndk1::char_traits<char>, std::__ndk1::allocator<char> >)>::operator()(GJRobotSprite*&&, std::__ndk1::basic_string<char, std::__ndk1::char_traits<char>, std::__ndk1::allocator<char> >&&)
PUBLIC 3ec44 0 std::__ndk1::__function::__func<geode::ListenerResult (*)(GJRobotSprite*, std::__ndk1::basic_string<char, std::__ndk1::char_traits<char>, std::__ndk1::allocator<char> > const&), std::__ndk1::allocator<geode::ListenerResult (*)(GJRobotSprite*, std::__ndk1::basic_string<char, std::__ndk1::char_traits<char>, std::__ndk1::allocator<char> > const&)>, geode::ListenerResult(GJRobotSprite*, std::__ndk1::basic_string<char, std::__ndk1::char_traits<char>, std::__ndk1::allocator<char> >)>::target(std::type_info const&) const
PUBLIC 3ec60 0 std::__ndk1::__function::__func<geode::ListenerResult (*)(GJRobotSprite*, std::__ndk1::basic_string<char, std::__ndk1::char_traits<char>, std::__ndk1::allocator<char> > const&), std::__ndk1::allocator<geode::ListenerResult (*)(GJRobotSprite*, std::__ndk1::basic_string<char, std::__ndk1::char_traits<char>, std::__ndk1::allocator<char> > const&)>, geode::ListenerResult(GJRobotSprite*, std::__ndk1::basic_string<char, std::__ndk1::char_traits<char>, std::__ndk1::allocator<char> >)>::target_type() const
PUBLIC 3ec6c 0 geode::EventListener<geode::DispatchFilter<GJRobotSprite*, std::__ndk1::basic_string<char, std::__ndk1::char_traits<char>, std::__ndk1::allocator<char> > > >::getPool() const
PUBLIC 3ed1c 0 geode::EventListener<geode::DispatchFilter<GJRobotSprite*, std::__ndk1::basic_string<char, std::__ndk1::char_traits<char>, std::__ndk1::allocator<char> > > >::handle(geode::Event*)
PUBLIC 3f08c 0 geode::EventListener<geode::DispatchFilter<GJRobotSprite*, std::__ndk1::basic_string<char, std::__ndk1::char_traits<char>, std::__ndk1::allocator<char> > > >::~EventListener()
PUBLIC 3f0f8 0 geode::EventListener<geode::DispatchFilter<GJRobotSprite*, std::__ndk1::basic_string<char, std::__ndk1::char_traits<char>, std::__ndk1::allocator<char> > > >::~EventListener()
PUBLIC 3f16c 0 geodeExecFunction15<(anonymous namespace)::ExecFuncUnique15>()::{lambda(PlayerObject*, std::__ndk1::basic_string<char, std::__ndk1::char_traits<char>, std::__ndk1::allocator<char> > const&)#1}::__invoke(PlayerObject*, std::__ndk1::basic_string<char, std::__ndk1::char_traits<char>, std::__ndk1::allocator<char> > const&)
PUBLIC 3f21c 0 std::__ndk1::__function::__base<geode::ListenerResult(PlayerObject*, std::__ndk1::basic_string<char, std::__ndk1::char_traits<char>, std::__ndk1::allocator<char> >)>::~__base()
PUBLIC 3f220 0 std::__ndk1::__function::__func<geode::ListenerResult (*)(PlayerObject*, std::__ndk1::basic_string<char, std::__ndk1::char_traits<char>, std::__ndk1::allocator<char> > const&), std::__ndk1::allocator<geode::ListenerResult (*)(PlayerObject*, std::__ndk1::basic_string<char, std::__ndk1::char_traits<char>, std::__ndk1::allocator<char> > const&)>, geode::ListenerResult(PlayerObject*, std::__ndk1::basic_string<char, std::__ndk1::char_traits<char>, std::__ndk1::allocator<char> >)>::~__func()
PUBLIC 3f224 0 std::__ndk1::__function::__func<geode::ListenerResult (*)(PlayerObject*, std::__ndk1::basic_string<char, std::__ndk1::char_traits<char>, std::__ndk1::allocator<char> > const&), std::__ndk1::allocator<geode::ListenerResult (*)(PlayerObject*, std::__ndk1::basic_string<char, std::__ndk1::char_traits<char>, std::__ndk1::allocator<char> > const&)>, geode::ListenerResult(PlayerObject*, std::__ndk1::basic_string<char, std::__ndk1::char_traits<char>, std::__ndk1::allocator<char> >)>::__clone() const
PUBLIC 3f258 0 std::__ndk1::__function::__func<geode::ListenerResult (*)(PlayerObject*, std::__ndk1::basic_string<char, std::__ndk1::char_traits<char>, std::__ndk1::allocator<char> > const&), std::__ndk1::allocator<geode::ListenerResult (*)(PlayerObject*, std::__ndk1::basic_string<char, std::__ndk1::char_traits<char>, std::__ndk1::allocator<char> > const&)>, geode::ListenerResult(PlayerObject*, std::__ndk1::basic_string<char, std::__ndk1::char_traits<char>, std::__ndk1::allocator<char> >)>::__clone(std::__ndk1::__function::__base<geode::ListenerResult(PlayerObject*, std::__ndk1::basic_string<char, std::__ndk1::char_traits<char>, std::__ndk1::allocator<char> >)>*) const
PUBLIC 3f26c 0 std::__ndk1::__function::__func<geode::ListenerResult (*)(PlayerObject*, std::__ndk1::basic_string<char, std::__ndk1::char_traits<char>, std::__ndk1::allocator<char> > const&), std::__ndk1::allocator<geode::ListenerResult (*)(PlayerObject*, std::__ndk1::basic_string<char, std::__ndk1::char_traits<char>, std::__ndk1::allocator<char> > const&)>, geode::ListenerResult(PlayerObject*, std::__ndk1::basic_string<char, std::__ndk1::char_traits<char>, std::__ndk1::allocator<char> >)>::destroy()
PUBLIC 3f270 0 std::__ndk1::__function::__func<geode::ListenerResult (*)(PlayerObject*, std::__ndk1::basic_string<char, std::__ndk1::char_traits<char>, std::__ndk1::allocator<char> > const&), std::__ndk1::allocator<geode::ListenerResult (*)(PlayerObject*, std::__ndk1::basic_string<char, std::__ndk1::char_traits<char>, std::__ndk1::allocator<char> > const&)>, geode::ListenerResult(PlayerObject*, std::__ndk1::basic_string<char, std::__ndk1::char_traits<char>, std::__ndk1::allocator<char> >)>::destroy_deallocate()
PUBLIC 3f274 0 std::__ndk1::__function::__func<geode::ListenerResult (*)(PlayerObject*, std::__ndk1::basic_string<char, std::__ndk1::char_traits<char>, std::__ndk1::allocator<char> > const&), std::__ndk1::allocator<geode::ListenerResult (*)(PlayerObject*, std::__ndk1::basic_string<char, std::__ndk1::char_traits<char>, std::__ndk1::allocator<char> > const&)>, geode::ListenerResult(PlayerObject*, std::__ndk1::basic_string<char, std::__ndk1::char_traits<char>, std::__ndk1::allocator<char> >)>::operator()(PlayerObject*&&, std::__ndk1::basic_string<char, std::__ndk1::char_traits<char>, std::__ndk1::allocator<char> >&&)
PUBLIC 3f288 0 std::__ndk1::__function::__func<geode::ListenerResult (*)(PlayerObject*, std::__ndk1::basic_string<char, std::__ndk1::char_traits<char>, std::__ndk1::allocator<char> > const&), std::__ndk1::allocator<geode::ListenerResult (*)(PlayerObject*, std::__ndk1::basic_string<char, std::__ndk1::char_traits<char>, std::__ndk1::allocator<char> > const&)>, geode::ListenerResult(PlayerObject*, std::__ndk1::basic_string<char, std::__ndk1::char_traits<char>, std::__ndk1::allocator<char> >)>::target(std::type_info const&) const
PUBLIC 3f2a4 0 std::__ndk1::__function::__func<geode::ListenerResult (*)(PlayerObject*, std::__ndk1::basic_string<char, std::__ndk1::char_traits<char>, std::__ndk1::allocator<char> > const&), std::__ndk1::allocator<geode::ListenerResult (*)(PlayerObject*, std::__ndk1::basic_string<char, std::__ndk1::char_traits<char>, std::__ndk1::allocator<char> > const&)>, geode::ListenerResult(PlayerObject*, std::__ndk1::basic_string<char, std::__ndk1::char_traits<char>, std::__ndk1::allocator<char> >)>::target_type() const
PUBLIC 3f2b0 0 geode::EventListener<geode::DispatchFilter<PlayerObject*, std::__ndk1::basic_string<char, std::__ndk1::char_traits<char>, std::__ndk1::allocator<char> > > >::getPool() const
PUBLIC 3f360 0 geode::EventListener<geode::DispatchFilter<PlayerObject*, std::__ndk1::basic_string<char, std::__ndk1::char_traits<char>, std::__ndk1::allocator<char> > > >::handle(geode::Event*)
PUBLIC 3f6d0 0 geode::EventListener<geode::DispatchFilter<PlayerObject*, std::__ndk1::basic_string<char, std::__ndk1::char_traits<char>, std::__ndk1::allocator<char> > > >::~EventListener()
PUBLIC 3f73c 0 geode::EventListener<geode::DispatchFilter<PlayerObject*, std::__ndk1::basic_string<char, std::__ndk1::char_traits<char>, std::__ndk1::allocator<char> > > >::~EventListener()
PUBLIC 3f7b0 0 geodeExecFunction15<(anonymous namespace)::ExecFuncUnique15>()::{lambda(std::__ndk1::basic_string<char, std::__ndk1::char_traits<char>, std::__ndk1::allocator<char> >*, IconType, bool)#1}::__invoke(std::__ndk1::basic_string<char, std::__ndk1::char_traits<char>, std::__ndk1::allocator<char> >*, IconType, bool)
PUBLIC 3f828 0 geode::EventListener<geode::DispatchFilter<std::__ndk1::basic_string<char, std::__ndk1::char_traits<char>, std::__ndk1::allocator<char> >*, IconType, bool> >::getPool() const
PUBLIC 3f8d8 0 geode::EventListener<geode::DispatchFilter<std::__ndk1::basic_string<char, std::__ndk1::char_traits<char>, std::__ndk1::allocator<char> >*, IconType, bool> >::handle(geode::Event*)
PUBLIC 3fb9c 0 geode::EventListener<geode::DispatchFilter<std::__ndk1::basic_string<char, std::__ndk1::char_traits<char>, std::__ndk1::allocator<char> >*, IconType, bool> >::~EventListener()
PUBLIC 3fc08 0 geode::EventListener<geode::DispatchFilter<std::__ndk1::basic_string<char, std::__ndk1::char_traits<char>, std::__ndk1::allocator<char> >*, IconType, bool> >::~EventListener()
PUBLIC 3fc7c 0 std::__ndk1::__function::__base<geode::ListenerResult(std::__ndk1::basic_string<char, std::__ndk1::char_traits<char>, std::__ndk1::allocator<char> >*, IconType, bool)>::~__base()
PUBLIC 3fc80 0 std::__ndk1::__function::__func<geode::ListenerResult (*)(std::__ndk1::basic_string<char, std::__ndk1::char_traits<char>, std::__ndk1::allocator<char> >*, IconType, bool), std::__ndk1::allocator<geode::ListenerResult (*)(std::__ndk1::basic_string<char, std::__ndk1::char_traits<char>, std::__ndk1::allocator<char> >*, IconType, bool)>, geode::ListenerResult(std::__ndk1::basic_string<char, std::__ndk1::char_traits<char>, std::__ndk1::allocator<char> >*, IconType, bool)>::~__func()
PUBLIC 3fc84 0 std::__ndk1::__function::__func<geode::ListenerResult (*)(std::__ndk1::basic_string<char, std::__ndk1::char_traits<char>, std::__ndk1::allocator<char> >*, IconType, bool), std::__ndk1::allocator<geode::ListenerResult (*)(std::__ndk1::basic_string<char, std::__ndk1::char_traits<char>, std::__ndk1::allocator<char> >*, IconType, bool)>, geode::ListenerResult(std::__ndk1::basic_string<char, std::__ndk1::char_traits<char>, std::__ndk1::allocator<char> >*, IconType, bool)>::__clone() const
PUBLIC 3fcb8 0 std::__ndk1::__function::__func<geode::ListenerResult (*)(std::__ndk1::basic_string<char, std::__ndk1::char_traits<char>, std::__ndk1::allocator<char> >*, IconType, bool), std::__ndk1::allocator<geode::ListenerResult (*)(std::__ndk1::basic_string<char, std::__ndk1::char_traits<char>, std::__ndk1::allocator<char> >*, IconType, bool)>, geode::ListenerResult(std::__ndk1::basic_string<char, std::__ndk1::char_traits<char>, std::__ndk1::allocator<char> >*, IconType, bool)>::__clone(std::__ndk1::__function::__base<geode::ListenerResult(std::__ndk1::basic_string<char, std::__ndk1::char_traits<char>, std::__ndk1::allocator<char> >*, IconType, bool)>*) const
PUBLIC 3fccc 0 std::__ndk1::__function::__func<geode::ListenerResult (*)(std::__ndk1::basic_string<char, std::__ndk1::char_traits<char>, std::__ndk1::allocator<char> >*, IconType, bool), std::__ndk1::allocator<geode::ListenerResult (*)(std::__ndk1::basic_string<char, std::__ndk1::char_traits<char>, std::__ndk1::allocator<char> >*, IconType, bool)>, geode::ListenerResult(std::__ndk1::basic_string<char, std::__ndk1::char_traits<char>, std::__ndk1::allocator<char> >*, IconType, bool)>::destroy()
PUBLIC 3fcd0 0 std::__ndk1::__function::__func<geode::ListenerResult (*)(std::__ndk1::basic_string<char, std::__ndk1::char_traits<char>, std::__ndk1::allocator<char> >*, IconType, bool), std::__ndk1::allocator<geode::ListenerResult (*)(std::__ndk1::basic_string<char, std::__ndk1::char_traits<char>, std::__ndk1::allocator<char> >*, IconType, bool)>, geode::ListenerResult(std::__ndk1::basic_string<char, std::__ndk1::char_traits<char>, std::__ndk1::allocator<char> >*, IconType, bool)>::destroy_deallocate()
PUBLIC 3fcd4 0 std::__ndk1::__function::__func<geode::ListenerResult (*)(std::__ndk1::basic_string<char, std::__ndk1::char_traits<char>, std::__ndk1::allocator<char> >*, IconType, bool), std::__ndk1::allocator<geode::ListenerResult (*)(std::__ndk1::basic_string<char, std::__ndk1::char_traits<char>, std::__ndk1::allocator<char> >*, IconType, bool)>, geode::ListenerResult(std::__ndk1::basic_string<char, std::__ndk1::char_traits<char>, std::__ndk1::allocator<char> >*, IconType, bool)>::operator()(std::__ndk1::basic_string<char, std::__ndk1::char_traits<char>, std::__ndk1::allocator<char> >*&&, IconType&&, bool&&)
PUBLIC 3fcec 0 std::__ndk1::__function::__func<geode::ListenerResult (*)(std::__ndk1::basic_string<char, std::__ndk1::char_traits<char>, std::__ndk1::allocator<char> >*, IconType, bool), std::__ndk1::allocator<geode::ListenerResult (*)(std::__ndk1::basic_string<char, std::__ndk1::char_traits<char>, std::__ndk1::allocator<char> >*, IconType, bool)>, geode::ListenerResult(std::__ndk1::basic_string<char, std::__ndk1::char_traits<char>, std::__ndk1::allocator<char> >*, IconType, bool)>::target(std::type_info const&) const
PUBLIC 3fd08 0 std::__ndk1::__function::__func<geode::ListenerResult (*)(std::__ndk1::basic_string<char, std::__ndk1::char_traits<char>, std::__ndk1::allocator<char> >*, IconType, bool), std::__ndk1::allocator<geode::ListenerResult (*)(std::__ndk1::basic_string<char, std::__ndk1::char_traits<char>, std::__ndk1::allocator<char> >*, IconType, bool)>, geode::ListenerResult(std::__ndk1::basic_string<char, std::__ndk1::char_traits<char>, std::__ndk1::allocator<char> >*, IconType, bool)>::target_type() const
PUBLIC 3fd14 0 geodeExecFunction15<(anonymous namespace)::ExecFuncUnique15>()::{lambda(std::__ndk1::basic_string<char, std::__ndk1::char_traits<char>, std::__ndk1::allocator<char> > const&, IconType, bool)#1}::__invoke(std::__ndk1::basic_string<char, std::__ndk1::char_traits<char>, std::__ndk1::allocator<char> > const&, IconType, bool)
PUBLIC 3fdc0 0 std::__ndk1::__function::__base<geode::ListenerResult(std::__ndk1::basic_string<char, std::__ndk1::char_traits<char>, std::__ndk1::allocator<char> >, IconType, bool)>::~__base()
PUBLIC 3fdc4 0 std::__ndk1::__function::__func<geode::ListenerResult (*)(std::__ndk1::basic_string<char, std::__ndk1::char_traits<char>, std::__ndk1::allocator<char> > const&, IconType, bool), std::__ndk1::allocator<geode::ListenerResult (*)(std::__ndk1::basic_string<char, std::__ndk1::char_traits<char>, std::__ndk1::allocator<char> > const&, IconType, bool)>, geode::ListenerResult(std::__ndk1::basic_string<char, std::__ndk1::char_traits<char>, std::__ndk1::allocator<char> >, IconType, bool)>::~__func()
PUBLIC 3fdc8 0 std::__ndk1::__function::__func<geode::ListenerResult (*)(std::__ndk1::basic_string<char, std::__ndk1::char_traits<char>, std::__ndk1::allocator<char> > const&, IconType, bool), std::__ndk1::allocator<geode::ListenerResult (*)(std::__ndk1::basic_string<char, std::__ndk1::char_traits<char>, std::__ndk1::allocator<char> > const&, IconType, bool)>, geode::ListenerResult(std::__ndk1::basic_string<char, std::__ndk1::char_traits<char>, std::__ndk1::allocator<char> >, IconType, bool)>::__clone() const
PUBLIC 3fdfc 0 std::__ndk1::__function::__func<geode::ListenerResult (*)(std::__ndk1::basic_string<char, std::__ndk1::char_traits<char>, std::__ndk1::allocator<char> > const&, IconType, bool), std::__ndk1::allocator<geode::ListenerResult (*)(std::__ndk1::basic_string<char, std::__ndk1::char_traits<char>, std::__ndk1::allocator<char> > const&, IconType, bool)>, geode::ListenerResult(std::__ndk1::basic_string<char, std::__ndk1::char_traits<char>, std::__ndk1::allocator<char> >, IconType, bool)>::__clone(std::__ndk1::__function::__base<geode::ListenerResult(std::__ndk1::basic_string<char, std::__ndk1::char_traits<char>, std::__ndk1::allocator<char> >, IconType, bool)>*) const
PUBLIC 3fe10 0 std::__ndk1::__function::__func<geode::ListenerResult (*)(std::__ndk1::basic_string<char, std::__ndk1::char_traits<char>, std::__ndk1::allocator<char> > const&, IconType, bool), std::__ndk1::allocator<geode::ListenerResult (*)(std::__ndk1::basic_string<char, std::__ndk1::char_traits<char>, std::__ndk1::allocator<char> > const&, IconType, bool)>, geode::ListenerResult(std::__ndk1::basic_string<char, std::__ndk1::char_traits<char>, std::__ndk1::allocator<char> >, IconType, bool)>::destroy()
PUBLIC 3fe14 0 std::__ndk1::__function::__func<geode::ListenerResult (*)(std::__ndk1::basic_string<char, std::__ndk1::char_traits<char>, std::__ndk1::allocator<char> > const&, IconType, bool), std::__ndk1::allocator<geode::ListenerResult (*)(std::__ndk1::basic_string<char, std::__ndk1::char_traits<char>, std::__ndk1::allocator<char> > const&, IconType, bool)>, geode::ListenerResult(std::__ndk1::basic_string<char, std::__ndk1::char_traits<char>, std::__ndk1::allocator<char> >, IconType, bool)>::destroy_deallocate()
PUBLIC 3fe18 0 std::__ndk1::__function::__func<geode::ListenerResult (*)(std::__ndk1::basic_string<char, std::__ndk1::char_traits<char>, std::__ndk1::allocator<char> > const&, IconType, bool), std::__ndk1::allocator<geode::ListenerResult (*)(std::__ndk1::basic_string<char, std::__ndk1::char_traits<char>, std::__ndk1::allocator<char> > const&, IconType, bool)>, geode::ListenerResult(std::__ndk1::basic_string<char, std::__ndk1::char_traits<char>, std::__ndk1::allocator<char> >, IconType, bool)>::operator()(std::__ndk1::basic_string<char, std::__ndk1::char_traits<char>, std::__ndk1::allocator<char> >&&, IconType&&, bool&&)
PUBLIC 3fe30 0 std::__ndk1::__function::__func<geode::ListenerResult (*)(std::__ndk1::basic_string<char, std::__ndk1::char_traits<char>, std::__ndk1::allocator<char> > const&, IconType, bool), std::__ndk1::allocator<geode::ListenerResult (*)(std::__ndk1::basic_string<char, std::__ndk1::char_traits<char>, std::__ndk1::allocator<char> > const&, IconType, bool)>, geode::ListenerResult(std::__ndk1::basic_string<char, std::__ndk1::char_traits<char>, std::__ndk1::allocator<char> >, IconType, bool)>::target(std::type_info const&) const
PUBLIC 3fe4c 0 std::__ndk1::__function::__func<geode::ListenerResult (*)(std::__ndk1::basic_string<char, std::__ndk1::char_traits<char>, std::__ndk1::allocator<char> > const&, IconType, bool), std::__ndk1::allocator<geode::ListenerResult (*)(std::__ndk1::basic_string<char, std::__ndk1::char_traits<char>, std::__ndk1::allocator<char> > const&, IconType, bool)>, geode::ListenerResult(std::__ndk1::basic_string<char, std::__ndk1::char_traits<char>, std::__ndk1::allocator<char> >, IconType, bool)>::target_type() const
PUBLIC 3fe58 0 geode::EventListener<geode::DispatchFilter<std::__ndk1::basic_string<char, std::__ndk1::char_traits<char>, std::__ndk1::allocator<char> >, IconType, bool> >::getPool() const
PUBLIC 3ff08 0 geode::EventListener<geode::DispatchFilter<std::__ndk1::basic_string<char, std::__ndk1::char_traits<char>, std::__ndk1::allocator<char> >, IconType, bool> >::handle(geode::Event*)
PUBLIC 40284 0 geode::EventListener<geode::DispatchFilter<std::__ndk1::basic_string<char, std::__ndk1::char_traits<char>, std::__ndk1::allocator<char> >, IconType, bool> >::~EventListener()
PUBLIC 402f0 0 geode::EventListener<geode::DispatchFilter<std::__ndk1::basic_string<char, std::__ndk1::char_traits<char>, std::__ndk1::allocator<char> >, IconType, bool> >::~EventListener()
PUBLIC 40364 0 _GLOBAL__sub_I_MoreIconsAPI.cpp
PUBLIC 413b0 0 ButtonHooker::create(cocos2d::CCMenuItem*, cocos2d::CCObject*, void (cocos2d::CCObject::*)(cocos2d::CCObject*))
PUBLIC 414f8 0 cocos2d::CCCopying::copyWithZone(cocos2d::CCZone*)
PUBLIC 41500 0 ButtonHooker::~ButtonHooker()
PUBLIC 41524 0 cocos2d::CCObject::update(float)
PUBLIC 41528 0 DummyNode::setBlendFunc(cocos2d::_ccBlendFunc)
PUBLIC 41650 0 DummyNode::recursiveBlend(cocos2d::CCNode*, cocos2d::_ccBlendFunc)
PUBLIC 417b0 0 geode::cocos::CCArrayExt<cocos2d::CCNode*, cocos2d::CCNode>::~CCArrayExt()
PUBLIC 417d0 0 {virtual override thunk({offset(-320)}, DummyNode::setBlendFunc(cocos2d::_ccBlendFunc))}
PUBLIC 417d8 0 DummyNode::~DummyNode()
PUBLIC 417fc 0 DummyNode::addChild(cocos2d::CCNode*, int, int)
PUBLIC 41884 0 DummyNode::removeChild(cocos2d::CCNode*, bool)
PUBLIC 41888 0 DummyNode::removeAllChildrenWithCleanup(bool)
PUBLIC 4188c 0 DummyNode::reorderChild(cocos2d::CCNode*, int)
PUBLIC 41890 0 DummyNode::sortAllChildren()
PUBLIC 41894 0 DummyNode::draw()
PUBLIC 41898 0 DummyNode::visit()
PUBLIC 4189c 0 LogCell::create(std::__ndk1::basic_string<char, std::__ndk1::char_traits<char>, std::__ndk1::allocator<char> > const&, geode::Severity, int, int, bool)
PUBLIC 419c0 0 LogCell::init(std::__ndk1::basic_string<char, std::__ndk1::char_traits<char>, std::__ndk1::allocator<char> > const&, geode::Severity, int, int, bool)
PUBLIC 41e50 0 LogCell::draw()
PUBLIC 41f0c 0 LogCell::~LogCell()
PUBLIC 41f30 0 {virtual override thunk({offset(-320)}, LogCell::~LogCell())}
PUBLIC 41f38 0 {virtual override thunk({offset(-320)}, LogCell::~LogCell())}
PUBLIC 41f60 0 cocos2d::CCKeyboardDelegate::keyUp(cocos2d::enumKeyCodes)
PUBLIC 41f64 0 cocos2d::CCMouseDelegate::rightKeyDown()
PUBLIC 41f68 0 cocos2d::CCMouseDelegate::rightKeyUp()
PUBLIC 41f6c 0 cocos2d::CCMouseDelegate::scrollWheel(float, float)
PUBLIC 41f70 0 __aarch64_ldadd8_acq_rel
PUBLIC 41fa0 0 init_have_lse_atomics
PUBLIC 42038 0 __init_cpu_features_constructor
PUBLIC 422e4 0 __init_cpu_features
PUBLIC 42370 0 __cxx_global_var_init.10
PUBLIC 423dc 0 std::__ndk1::unordered_map<std::__ndk1::basic_string<char, std::__ndk1::char_traits<char>, std::__ndk1::allocator<char> >, TexturePack, std::__ndk1::hash<std::__ndk1::basic_string<char, std::__ndk1::char_traits<char>, std::__ndk1::allocator<char> > >, std::__ndk1::equal_to<std::__ndk1::basic_string<char, std::__ndk1::char_traits<char>, std::__ndk1::allocator<char> > >, std::__ndk1::allocator<std::__ndk1::pair<std::__ndk1::basic_string<char, std::__ndk1::char_traits<char>, std::__ndk1::allocator<char> > const, TexturePack> > >::~unordered_map[abi:ne190000]()
PUBLIC 423e0 0 __cxx_global_var_init.11
PUBLIC 4244c 0 __cxx_global_var_init.12
PUBLIC 424b8 0 __cxx_global_var_init.13
PUBLIC 42524 0 __cxx_global_var_init.14
PUBLIC 42590 0 __cxx_global_var_init.15
PUBLIC 425fc 0 __cxx_global_var_init.16
PUBLIC 42668 0 __cxx_global_var_init.17
PUBLIC 426d4 0 __cxx_global_var_init.18
PUBLIC 42740 0 __cxx_global_var_init.19
PUBLIC 427ac 0 std::__ndk1::unordered_map<std::__ndk1::basic_string<char, std::__ndk1::char_traits<char>, std::__ndk1::allocator<char> >, TrailInfo, std::__ndk1::hash<std::__ndk1::basic_string<char, std::__ndk1::char_traits<char>, std::__ndk1::allocator<char> > >, std::__ndk1::equal_to<std::__ndk1::basic_string<char, std::__ndk1::char_traits<char>, std::__ndk1::allocator<char> > >, std::__ndk1::allocator<std::__ndk1::pair<std::__ndk1::basic_string<char, std::__ndk1::char_traits<char>, std::__ndk1::allocator<char> > const, TrailInfo> > >::~unordered_map[abi:ne190000]()
PUBLIC 427e8 0 __cxx_global_var_init.20
PUBLIC 42844 0 std::__ndk1::vector<LogData, std::__ndk1::allocator<LogData> >::~vector[abi:ne190000]()
PUBLIC 428c0 0 __cxx_global_var_init.21
PUBLIC 42908 0 LogLayer::create()
PUBLIC 42a38 0 LogLayer::setup()
PUBLIC 43114 0 geode::cocos::CCMenuItemExt::createSpriteExtraWithFrameName(std::__ndk1::basic_string_view<char, std::__ndk1::char_traits<char> >, float, std::__ndk1::function<void (CCMenuItemSpriteExtra*)>)
PUBLIC 43260 0 geode::cocos::CCMenuItemExt::createSpriteExtra(cocos2d::CCNode*, std::__ndk1::function<void (CCMenuItemSpriteExtra*)>)
PUBLIC 43628 0 LogLayer::page(int)
PUBLIC 4390c 0 LogLayer::keyDown(cocos2d::enumKeyCodes)
PUBLIC 439f0 0 geode::Popup<>::keyDown(cocos2d::enumKeyCodes)
PUBLIC 43a18 0 {virtual override thunk({offset(-344)}, LogLayer::keyDown(cocos2d::enumKeyCodes))}
PUBLIC 43a20 0 LogLayer::setIDPopupClosed(SetIDPopup*, int)
PUBLIC 43a68 0 {virtual override thunk({offset(-672)}, LogLayer::setIDPopupClosed(SetIDPopup*, int))}
PUBLIC 43ab4 0 geode::Popup<>::~Popup()
PUBLIC 43b20 0 LogLayer::~LogLayer()
PUBLIC 43b94 0 geode::Popup<>::registerWithTouchDispatcher()
PUBLIC 43bc0 0 cocos2d::CCLayerRGBA::setOpacityModifyRGB(bool)
PUBLIC 43bc4 0 cocos2d::CCLayerRGBA::isOpacityModifyRGB()
PUBLIC 43bcc 0 geode::Popup<>::onClose(cocos2d::CCObject*)
PUBLIC 43d00 0 {virtual override thunk({offset(-320)}, LogLayer::~LogLayer())}
PUBLIC 43d6c 0 {virtual override thunk({offset(-320)}, LogLayer::~LogLayer())}
PUBLIC 43de0 0 {virtual override thunk({offset(-408)}, cocos2d::CCLayerRGBA::setOpacityModifyRGB(bool))}
PUBLIC 43de4 0 {virtual override thunk({offset(-408)}, cocos2d::CCLayerRGBA::isOpacityModifyRGB())}
PUBLIC 43dec 0 geode::Popup<>::~Popup()
PUBLIC 43df0 0 {virtual override thunk({offset(-320)}, geode::Popup<>::~Popup())}
PUBLIC 43e5c 0 {virtual override thunk({offset(-320)}, geode::Popup<>::~Popup())}
PUBLIC 43e60 0 {virtual override thunk({offset(-344)}, geode::Popup<>::keyDown(cocos2d::enumKeyCodes))}
PUBLIC 43e8c 0 geode::cocos::CCMenuItemExt::LambdaCallback<CCMenuItemSpriteExtra>::execute(cocos2d::CCNode*)
PUBLIC 43efc 0 geode::cocos::CCMenuItemExt::LambdaCallback<CCMenuItemSpriteExtra>::~LambdaCallback()
PUBLIC 43f58 0 geode::cocos::CCMenuItemExt::LambdaCallback<CCMenuItemSpriteExtra>::~LambdaCallback()
PUBLIC 43fbc 0 std::__ndk1::__hash_table<std::__ndk1::__hash_value_type<std::__ndk1::basic_string<char, std::__ndk1::char_traits<char>, std::__ndk1::allocator<char> >, TexturePack>, std::__ndk1::__unordered_map_hasher<std::__ndk1::basic_string<char, std::__ndk1::char_traits<char>, std::__ndk1::allocator<char> >, std::__ndk1::__hash_value_type<std::__ndk1::basic_string<char, std::__ndk1::char_traits<char>, std::__ndk1::allocator<char> >, TexturePack>, std::__ndk1::hash<std::__ndk1::basic_string<char, std::__ndk1::char_traits<char>, std::__ndk1::allocator<char> > >, std::__ndk1::equal_to<std::__ndk1::basic_string<char, std::__ndk1::char_traits<char>, std::__ndk1::allocator<char> > >, true>, std::__ndk1::__unordered_map_equal<std::__ndk1::basic_string<char, std::__ndk1::char_traits<char>, std::__ndk1::allocator<char> >, std::__ndk1::__hash_value_type<std::__ndk1::basic_string<char, std::__ndk1::char_traits<char>, std::__ndk1::allocator<char> >, TexturePack>, std::__ndk1::equal_to<std::__ndk1::basic_string<char, std::__ndk1::char_traits<char>, std::__ndk1::allocator<char> > >, std::__ndk1::hash<std::__ndk1::basic_string<char, std::__ndk1::char_traits<char>, std::__ndk1::allocator<char> > >, true>, std::__ndk1::allocator<std::__ndk1::__hash_value_type<std::__ndk1::basic_string<char, std::__ndk1::char_traits<char>, std::__ndk1::allocator<char> >, TexturePack> > >::~__hash_table()
PUBLIC 44060 0 std::__ndk1::__hash_table<std::__ndk1::__hash_value_type<std::__ndk1::basic_string<char, std::__ndk1::char_traits<char>, std::__ndk1::allocator<char> >, TrailInfo>, std::__ndk1::__unordered_map_hasher<std::__ndk1::basic_string<char, std::__ndk1::char_traits<char>, std::__ndk1::allocator<char> >, std::__ndk1::__hash_value_type<std::__ndk1::basic_string<char, std::__ndk1::char_traits<char>, std::__ndk1::allocator<char> >, TrailInfo>, std::__ndk1::hash<std::__ndk1::basic_string<char, std::__ndk1::char_traits<char>, std::__ndk1::allocator<char> > >, std::__ndk1::equal_to<std::__ndk1::basic_string<char, std::__ndk1::char_traits<char>, std::__ndk1::allocator<char> > >, true>, std::__ndk1::__unordered_map_equal<std::__ndk1::basic_string<char, std::__ndk1::char_traits<char>, std::__ndk1::allocator<char> >, std::__ndk1::__hash_value_type<std::__ndk1::basic_string<char, std::__ndk1::char_traits<char>, std::__ndk1::allocator<char> >, TrailInfo>, std::__ndk1::equal_to<std::__ndk1::basic_string<char, std::__ndk1::char_traits<char>, std::__ndk1::allocator<char> > >, std::__ndk1::hash<std::__ndk1::basic_string<char, std::__ndk1::char_traits<char>, std::__ndk1::allocator<char> > >, true>, std::__ndk1::allocator<std::__ndk1::__hash_value_type<std::__ndk1::basic_string<char, std::__ndk1::char_traits<char>, std::__ndk1::allocator<char> >, TrailInfo> > >::__deallocate_node(std::__ndk1::__hash_node_base<std::__ndk1::__hash_node<std::__ndk1::__hash_value_type<std::__ndk1::basic_string<char, std::__ndk1::char_traits<char>, std::__ndk1::allocator<char> >, TrailInfo>, void*>*>*)
PUBLIC 440f8 0 geode::Popup<>::initBase(float, float, char const*, cocos2d::CCRect, bool)
PUBLIC 443fc 0 std::__ndk1::__function::__func<LogLayer::setup()::$_0, std::__ndk1::allocator<LogLayer::setup()::$_0>, void (CCMenuItemSpriteExtra*)>::~__func()
PUBLIC 44400 0 std::__ndk1::__function::__func<LogLayer::setup()::$_0, std::__ndk1::allocator<LogLayer::setup()::$_0>, void (CCMenuItemSpriteExtra*)>::__clone() const
PUBLIC 44434 0 std::__ndk1::__function::__func<LogLayer::setup()::$_0, std::__ndk1::allocator<LogLayer::setup()::$_0>, void (CCMenuItemSpriteExtra*)>::__clone(std::__ndk1::__function::__base<void (CCMenuItemSpriteExtra*)>*) const
PUBLIC 44448 0 std::__ndk1::__function::__func<LogLayer::setup()::$_0, std::__ndk1::allocator<LogLayer::setup()::$_0>, void (CCMenuItemSpriteExtra*)>::destroy()
PUBLIC 4444c 0 std::__ndk1::__function::__func<LogLayer::setup()::$_0, std::__ndk1::allocator<LogLayer::setup()::$_0>, void (CCMenuItemSpriteExtra*)>::destroy_deallocate()
PUBLIC 44450 0 std::__ndk1::__function::__func<LogLayer::setup()::$_0, std::__ndk1::allocator<LogLayer::setup()::$_0>, void (CCMenuItemSpriteExtra*)>::operator()(CCMenuItemSpriteExtra*&&)
PUBLIC 44460 0 std::__ndk1::__function::__func<LogLayer::setup()::$_0, std::__ndk1::allocator<LogLayer::setup()::$_0>, void (CCMenuItemSpriteExtra*)>::target(std::type_info const&) const
PUBLIC 4447c 0 std::__ndk1::__function::__func<LogLayer::setup()::$_0, std::__ndk1::allocator<LogLayer::setup()::$_0>, void (CCMenuItemSpriteExtra*)>::target_type() const
PUBLIC 44488 0 std::__ndk1::__function::__func<LogLayer::setup()::$_1, std::__ndk1::allocator<LogLayer::setup()::$_1>, void (CCMenuItemSpriteExtra*)>::~__func()
PUBLIC 4448c 0 std::__ndk1::__function::__func<LogLayer::setup()::$_1, std::__ndk1::allocator<LogLayer::setup()::$_1>, void (CCMenuItemSpriteExtra*)>::__clone() const
PUBLIC 444c0 0 std::__ndk1::__function::__func<LogLayer::setup()::$_1, std::__ndk1::allocator<LogLayer::setup()::$_1>, void (CCMenuItemSpriteExtra*)>::__clone(std::__ndk1::__function::__base<void (CCMenuItemSpriteExtra*)>*) const
PUBLIC 444d4 0 std::__ndk1::__function::__func<LogLayer::setup()::$_1, std::__ndk1::allocator<LogLayer::setup()::$_1>, void (CCMenuItemSpriteExtra*)>::destroy()
PUBLIC 444d8 0 std::__ndk1::__function::__func<LogLayer::setup()::$_1, std::__ndk1::allocator<LogLayer::setup()::$_1>, void (CCMenuItemSpriteExtra*)>::destroy_deallocate()
PUBLIC 444dc 0 std::__ndk1::__function::__func<LogLayer::setup()::$_1, std::__ndk1::allocator<LogLayer::setup()::$_1>, void (CCMenuItemSpriteExtra*)>::operator()(CCMenuItemSpriteExtra*&&)
PUBLIC 444ec 0 std::__ndk1::__function::__func<LogLayer::setup()::$_1, std::__ndk1::allocator<LogLayer::setup()::$_1>, void (CCMenuItemSpriteExtra*)>::target(std::type_info const&) const
PUBLIC 44508 0 std::__ndk1::__function::__func<LogLayer::setup()::$_1, std::__ndk1::allocator<LogLayer::setup()::$_1>, void (CCMenuItemSpriteExtra*)>::target_type() const
PUBLIC 44514 0 std::__ndk1::__function::__func<LogLayer::setup()::$_2, std::__ndk1::allocator<LogLayer::setup()::$_2>, void (CCMenuItemSpriteExtra*)>::~__func()
PUBLIC 44518 0 std::__ndk1::__function::__func<LogLayer::setup()::$_2, std::__ndk1::allocator<LogLayer::setup()::$_2>, void (CCMenuItemSpriteExtra*)>::__clone() const
PUBLIC 4454c 0 std::__ndk1::__function::__func<LogLayer::setup()::$_2, std::__ndk1::allocator<LogLayer::setup()::$_2>, void (CCMenuItemSpriteExtra*)>::__clone(std::__ndk1::__function::__base<void (CCMenuItemSpriteExtra*)>*) const
PUBLIC 44560 0 std::__ndk1::__function::__func<LogLayer::setup()::$_2, std::__ndk1::allocator<LogLayer::setup()::$_2>, void (CCMenuItemSpriteExtra*)>::destroy()
PUBLIC 44564 0 std::__ndk1::__function::__func<LogLayer::setup()::$_2, std::__ndk1::allocator<LogLayer::setup()::$_2>, void (CCMenuItemSpriteExtra*)>::destroy_deallocate()
PUBLIC 44568 0 std::__ndk1::__function::__func<LogLayer::setup()::$_2, std::__ndk1::allocator<LogLayer::setup()::$_2>, void (CCMenuItemSpriteExtra*)>::operator()(CCMenuItemSpriteExtra*&&)
PUBLIC 446a4 0 std::__ndk1::__function::__func<LogLayer::setup()::$_2, std::__ndk1::allocator<LogLayer::setup()::$_2>, void (CCMenuItemSpriteExtra*)>::target(std::type_info const&) const
PUBLIC 446c0 0 std::__ndk1::__function::__func<LogLayer::setup()::$_2, std::__ndk1::allocator<LogLayer::setup()::$_2>, void (CCMenuItemSpriteExtra*)>::target_type() const
PUBLIC 446cc 0 std::__ndk1::__function::__func<LogLayer::setup()::$_3, std::__ndk1::allocator<LogLayer::setup()::$_3>, void (CCMenuItemSpriteExtra*)>::~__func()
PUBLIC 446d0 0 std::__ndk1::__function::__func<LogLayer::setup()::$_3, std::__ndk1::allocator<LogLayer::setup()::$_3>, void (CCMenuItemSpriteExtra*)>::__clone() const
PUBLIC 44704 0 std::__ndk1::__function::__func<LogLayer::setup()::$_3, std::__ndk1::allocator<LogLayer::setup()::$_3>, void (CCMenuItemSpriteExtra*)>::__clone(std::__ndk1::__function::__base<void (CCMenuItemSpriteExtra*)>*) const
PUBLIC 44718 0 std::__ndk1::__function::__func<LogLayer::setup()::$_3, std::__ndk1::allocator<LogLayer::setup()::$_3>, void (CCMenuItemSpriteExtra*)>::destroy()
PUBLIC 4471c 0 std::__ndk1::__function::__func<LogLayer::setup()::$_3, std::__ndk1::allocator<LogLayer::setup()::$_3>, void (CCMenuItemSpriteExtra*)>::destroy_deallocate()
PUBLIC 44720 0 std::__ndk1::__function::__func<LogLayer::setup()::$_3, std::__ndk1::allocator<LogLayer::setup()::$_3>, void (CCMenuItemSpriteExtra*)>::operator()(CCMenuItemSpriteExtra*&&)
PUBLIC 44728 0 std::__ndk1::__function::__func<LogLayer::setup()::$_3, std::__ndk1::allocator<LogLayer::setup()::$_3>, void (CCMenuItemSpriteExtra*)>::target(std::type_info const&) const
PUBLIC 44744 0 std::__ndk1::__function::__func<LogLayer::setup()::$_3, std::__ndk1::allocator<LogLayer::setup()::$_3>, void (CCMenuItemSpriteExtra*)>::target_type() const
PUBLIC 44750 0 std::__ndk1::__function::__base<void (CCMenuItemSpriteExtra*)>::~__base()
PUBLIC 44754 0 std::__ndk1::__function::__func<LogLayer::setup()::$_4, std::__ndk1::allocator<LogLayer::setup()::$_4>, void (CCMenuItemSpriteExtra*)>::~__func()
PUBLIC 44758 0 std::__ndk1::__function::__func<LogLayer::setup()::$_4, std::__ndk1::allocator<LogLayer::setup()::$_4>, void (CCMenuItemSpriteExtra*)>::__clone() const
PUBLIC 4478c 0 std::__ndk1::__function::__func<LogLayer::setup()::$_4, std::__ndk1::allocator<LogLayer::setup()::$_4>, void (CCMenuItemSpriteExtra*)>::__clone(std::__ndk1::__function::__base<void (CCMenuItemSpriteExtra*)>*) const
PUBLIC 447a0 0 std::__ndk1::__function::__func<LogLayer::setup()::$_4, std::__ndk1::allocator<LogLayer::setup()::$_4>, void (CCMenuItemSpriteExtra*)>::destroy()
PUBLIC 447a4 0 std::__ndk1::__function::__func<LogLayer::setup()::$_4, std::__ndk1::allocator<LogLayer::setup()::$_4>, void (CCMenuItemSpriteExtra*)>::destroy_deallocate()
PUBLIC 447a8 0 std::__ndk1::__function::__func<LogLayer::setup()::$_4, std::__ndk1::allocator<LogLayer::setup()::$_4>, void (CCMenuItemSpriteExtra*)>::operator()(CCMenuItemSpriteExtra*&&)
PUBLIC 44850 0 std::__ndk1::__function::__func<LogLayer::setup()::$_4, std::__ndk1::allocator<LogLayer::setup()::$_4>, void (CCMenuItemSpriteExtra*)>::target(std::type_info const&) const
PUBLIC 4486c 0 std::__ndk1::__function::__func<LogLayer::setup()::$_4, std::__ndk1::allocator<LogLayer::setup()::$_4>, void (CCMenuItemSpriteExtra*)>::target_type() const
PUBLIC 44878 0 geode::Popup<>::CloseEvent::~CloseEvent()
PUBLIC 448d8 0 geode::Popup<>::CloseEvent::~CloseEvent()
PUBLIC 44948 0 std::__ndk1::__shared_ptr_emplace<geode::Popup<>::CloseEvent::Impl, std::__ndk1::allocator<geode::Popup<>::CloseEvent::Impl> >::~__shared_ptr_emplace()
PUBLIC 44958 0 std::__ndk1::__shared_ptr_emplace<geode::Popup<>::CloseEvent::Impl, std::__ndk1::allocator<geode::Popup<>::CloseEvent::Impl> >::~__shared_ptr_emplace()
PUBLIC 44988 0 std::__ndk1::__shared_ptr_emplace<geode::Popup<>::CloseEvent::Impl, std::__ndk1::allocator<geode::Popup<>::CloseEvent::Impl> >::__on_zero_shared()
PUBLIC 4498c 0 std::__ndk1::__shared_ptr_emplace<geode::Popup<>::CloseEvent::Impl, std::__ndk1::allocator<geode::Popup<>::CloseEvent::Impl> >::__on_zero_shared_weak()
PUBLIC 44990 0 __aarch64_ldadd8_relax
PUBLIC 449c0 0 __cxx_global_var_init
PUBLIC 44e30 0 geode::modifier::ModifyBase<geode::modifier::ModifyDerive<MIFileUtils, cocos2d::CCFileUtils> >::~ModifyBase()
PUBLIC 44e4c 0 geode::modifier::ModifyDerive<MIFileUtils, cocos2d::CCFileUtils>::apply()
PUBLIC 45204 0 std::__ndk1::shared_ptr<geode::Hook>::~shared_ptr[abi:ne190000]()
PUBLIC 45254 0 geode::impl::ResultData<geode::Hook*, std::__ndk1::basic_string<char, std::__ndk1::char_traits<char>, std::__ndk1::allocator<char> > >::~ResultData()
PUBLIC 452c8 0 geode::modifier::ModifyBase<geode::modifier::ModifyDerive<MIFileUtils, cocos2d::CCFileUtils> >::apply()
PUBLIC 452cc 0 _ZN5geode15UnwrapExceptionC2IRPNS_4HookEQsr4implE18IsStringStreamableIT_EEENS_4impl5OkTagEOS5_
PUBLIC 45420 0 std::__ndk1::basic_stringstream<char, std::__ndk1::char_traits<char>, std::__ndk1::allocator<char> >::basic_stringstream[abi:ne190000]()
PUBLIC m 45554 0 std::__ndk1::basic_stringstream<char, std::__ndk1::char_traits<char>, std::__ndk1::allocator<char> >::~basic_stringstream()
PUBLIC 455d4 0 geode::UnwrapException::~UnwrapException()
PUBLIC 455f8 0 std::__ndk1::__put_character_sequence[abi:ne190000]<char, std::__ndk1::char_traits<char> >(std::__ndk1::basic_ostream<char, std::__ndk1::char_traits<char> >, std::__ndk1::basic_ostream const*, unsigned long)
PUBLIC 4579c 0 std::__ndk1::__pad_and_output[abi:ne190000]<char, std::__ndk1::char_traits<char> >(std::__ndk1::char_traits<char>, std::__ndk1::ostreambuf_iterator const*, std::__ndk1::ostreambuf_iterator const, std::__ndk1::ostreambuf_iterator const, std::__ndk1::ios_base&, std::__ndk1::ostreambuf_iterator)
PUBLIC 45988 0 std::__ndk1::basic_stringbuf<char, std::__ndk1::char_traits<char>, std::__ndk1::allocator<char> >::str[abi:ne190000]() &&
PUBLIC 45af8 0 std::__ndk1::basic_stringbuf<char, std::__ndk1::char_traits<char>, std::__ndk1::allocator<char> >::__init_buf_ptrs[abi:ne190000]()
PUBLIC 45c40 0 std::__ndk1::basic_string<char, std::__ndk1::char_traits<char>, std::__ndk1::allocator<char> >::__erase_external_with_move(unsigned long, unsigned long)
PUBLIC 45cc8 0 std::__ndk1::vector<std::__ndk1::basic_string<char, std::__ndk1::char_traits<char>, std::__ndk1::allocator<char> >, std::__ndk1::allocator<std::__ndk1::basic_string<char, std::__ndk1::char_traits<char>, std::__ndk1::allocator<char> > > >::__push_back_slow_path<std::__ndk1::basic_string<char, std::__ndk1::char_traits<char>, std::__ndk1::allocator<char> > const&>(std::__ndk1::basic_string<char, std::__ndk1::char_traits<char>, std::__ndk1::allocator<char> > const&)
PUBLIC 45e78 0 std::__ndk1::__split_buffer<std::__ndk1::basic_string<char, std::__ndk1::char_traits<char>, std::__ndk1::allocator<char> >, std::__ndk1::allocator<std::__ndk1::basic_string<char, std::__ndk1::char_traits<char>, std::__ndk1::allocator<char> > >&>::~__split_buffer()
PUBLIC 45ee0 0 std::__ndk1::__variant_detail::__visitation::__base::__dispatcher<(unsigned long)0>::__dispatch[abi:ne190000]<std::__ndk1::__variant_detail::__dtor<std::__ndk1::__variant_detail::__traits<geode::Hook*, std::__ndk1::basic_string<char, std::__ndk1::char_traits<char>, std::__ndk1::allocator<char> > >, (std::__ndk1::__variant_detail::_Trait)1>::__destroy[abi:ne190000]()::{lambda(auto:1&)#1}, std::__ndk1::__variant_detail::__base<(std::__ndk1::__variant_detail::__traits<geode::Hook*, std::__ndk1::basic_string<char, std::__ndk1::char_traits<char>, std::__ndk1::allocator<char> > >)1, geode::Hook, std::__ndk1::allocator<char> >&>(std::__ndk1::__variant_detail::__dtor<std::__ndk1::__variant_detail::__traits<geode::Hook*, std::__ndk1::basic_string<char, std::__ndk1::char_traits<char>, std::__ndk1::allocator<char> > >, (std::__ndk1::__variant_detail::_Trait)1>, std::__ndk1::__variant_detail::__base<(std::__ndk1::__variant_detail::__traits<geode::Hook*, std::__ndk1::basic_string<char, std::__ndk1::char_traits<char>, std::__ndk1::allocator<char> > >)1, geode::Hook, std::__ndk1::allocator<char> >&)
PUBLIC 45ee4 0 std::__ndk1::__variant_detail::__visitation::__base::__dispatcher<(unsigned long)1>::__dispatch[abi:ne190000]<std::__ndk1::__variant_detail::__dtor<std::__ndk1::__variant_detail::__traits<geode::Hook*, std::__ndk1::basic_string<char, std::__ndk1::char_traits<char>, std::__ndk1::allocator<char> > >, (std::__ndk1::__variant_detail::_Trait)1>::__destroy[abi:ne190000]()::{lambda(auto:1&)#1}, std::__ndk1::__variant_detail::__base<(std::__ndk1::__variant_detail::__traits<geode::Hook*, std::__ndk1::basic_string<char, std::__ndk1::char_traits<char>, std::__ndk1::allocator<char> > >)1, geode::Hook, std::__ndk1::allocator<char> >&>(std::__ndk1::__variant_detail::__dtor<std::__ndk1::__variant_detail::__traits<geode::Hook*, std::__ndk1::basic_string<char, std::__ndk1::char_traits<char>, std::__ndk1::allocator<char> > >, (std::__ndk1::__variant_detail::_Trait)1>, std::__ndk1::__variant_detail::__base<(std::__ndk1::__variant_detail::__traits<geode::Hook*, std::__ndk1::basic_string<char, std::__ndk1::char_traits<char>, std::__ndk1::allocator<char> > >)1, geode::Hook, std::__ndk1::allocator<char> >&)
PUBLIC 45ef8 0 std::__ndk1::__tree<std::__ndk1::__value_type<std::__ndk1::basic_string<char, std::__ndk1::char_traits<char>, std::__ndk1::allocator<char> >, std::__ndk1::shared_ptr<geode::Hook> >, std::__ndk1::__map_value_compare<std::__ndk1::basic_string<char, std::__ndk1::char_traits<char>, std::__ndk1::allocator<char> >, std::__ndk1::__value_type<std::__ndk1::basic_string<char, std::__ndk1::char_traits<char>, std::__ndk1::allocator<char> >, std::__ndk1::shared_ptr<geode::Hook> >, std::__ndk1::less<std::__ndk1::basic_string<char, std::__ndk1::char_traits<char>, std::__ndk1::allocator<char> > >, true>, std::__ndk1::allocator<std::__ndk1::__value_type<std::__ndk1::basic_string<char, std::__ndk1::char_traits<char>, std::__ndk1::allocator<char> >, std::__ndk1::shared_ptr<geode::Hook> > > >::find<std::__ndk1::basic_string<char, std::__ndk1::char_traits<char>, std::__ndk1::allocator<char> > >(std::__ndk1::basic_string<char, std::__ndk1::char_traits<char>, std::__ndk1::allocator<char> > const&)
PUBLIC 46020 0 std::__ndk1::__tree<std::__ndk1::__value_type<std::__ndk1::basic_string<char, std::__ndk1::char_traits<char>, std::__ndk1::allocator<char> >, std::__ndk1::shared_ptr<geode::Hook> >, std::__ndk1::__map_value_compare<std::__ndk1::basic_string<char, std::__ndk1::char_traits<char>, std::__ndk1::allocator<char> >, std::__ndk1::__value_type<std::__ndk1::basic_string<char, std::__ndk1::char_traits<char>, std::__ndk1::allocator<char> >, std::__ndk1::shared_ptr<geode::Hook> >, std::__ndk1::less<std::__ndk1::basic_string<char, std::__ndk1::char_traits<char>, std::__ndk1::allocator<char> > >, true>, std::__ndk1::allocator<std::__ndk1::__value_type<std::__ndk1::basic_string<char, std::__ndk1::char_traits<char>, std::__ndk1::allocator<char> >, std::__ndk1::shared_ptr<geode::Hook> > > >::erase(std::__ndk1::__tree_const_iterator<std::__ndk1::__value_type<std::__ndk1::basic_string<char, std::__ndk1::char_traits<char>, std::__ndk1::allocator<char> >, std::__ndk1::shared_ptr<geode::Hook> >, std::__ndk1::__tree_node<std::__ndk1::__value_type<std::__ndk1::basic_string<char, std::__ndk1::char_traits<char>, std::__ndk1::allocator<char> >, std::__ndk1::shared_ptr<geode::Hook> >, void*>*, long>)
PUBLIC 460f4 0 std::__ndk1::__tree_remove[abi:ne190000]<std::__ndk1::__tree_node_base<void*>*>(std::__ndk1::__tree_node_base<void*>*, std::__ndk1::__tree_node_base<void*>*)
PUBLIC 464bc 0 std::__ndk1::__tree<std::__ndk1::__value_type<std::__ndk1::basic_string<char, std::__ndk1::char_traits<char>, std::__ndk1::allocator<char> >, std::__ndk1::shared_ptr<geode::Hook> >, std::__ndk1::__map_value_compare<std::__ndk1::basic_string<char, std::__ndk1::char_traits<char>, std::__ndk1::allocator<char> >, std::__ndk1::__value_type<std::__ndk1::basic_string<char, std::__ndk1::char_traits<char>, std::__ndk1::allocator<char> >, std::__ndk1::shared_ptr<geode::Hook> >, std::__ndk1::less<std::__ndk1::basic_string<char, std::__ndk1::char_traits<char>, std::__ndk1::allocator<char> > >, true>, std::__ndk1::allocator<std::__ndk1::__value_type<std::__ndk1::basic_string<char, std::__ndk1::char_traits<char>, std::__ndk1::allocator<char> >, std::__ndk1::shared_ptr<geode::Hook> > > >::destroy(std::__ndk1::__tree_node<std::__ndk1::__value_type<std::__ndk1::basic_string<char, std::__ndk1::char_traits<char>, std::__ndk1::allocator<char> >, std::__ndk1::shared_ptr<geode::Hook> >, void*>*)
PUBLIC 46548 0 geode::modifier::AsStaticFunction_fullPathForFilename<MIFileUtils, gd::string (MIFileUtils::*)(char const*, bool)>::Impl<gd::string (MIFileUtils::*)(char const*, bool)>::function(MIFileUtils*, char const*, bool)
PUBLIC 4674c 0 geode::addresser::Addresser::addressOfVirtual<gd::string, cocos2d::CCFileUtils, char const*, bool>(gd::string (cocos2d::CCFileUtils::*)(char const*, bool))
PUBLIC 46814 0 cocos2d::CCFileUtils::CCFileUtils(geode::ZeroConstructorType, void*)
PUBLIC 468dc 0 gd::vector<gd::string>::~vector()
PUBLIC 4694c 0 geode::stl::_rb_insert_rebalance(bool, geode::stl::_rb_tree_base*, geode::stl::_rb_tree_base*, geode::stl::_rb_tree_base&)
PUBLIC 46c04 0 std::__ndk1::__tree<std::__ndk1::__value_type<gd::string, gd::string>, std::__ndk1::__map_value_compare<gd::string, std::__ndk1::__value_type<gd::string, gd::string>, std::__ndk1::less<gd::string>, true>, std::__ndk1::allocator<std::__ndk1::__value_type<gd::string, gd::string> > >::destroy(std::__ndk1::__tree_node<std::__ndk1::__value_type<gd::string, gd::string>, void*>*)
PUBLIC 46c50 0 std::__ndk1::shared_ptr<tulip::hook::CallingConvention>::~shared_ptr[abi:ne190000]()
PUBLIC 46ca0 0 tulip::hook::HandlerMetadata::~HandlerMetadata()
PUBLIC 46d04 0 std::__ndk1::vector<tulip::hook::AbstractType, std::__ndk1::allocator<tulip::hook::AbstractType> >::__throw_length_error[abi:ne190000]() const
PUBLIC 46d18 0 std::__ndk1::__tree<std::__ndk1::__value_type<std::__ndk1::basic_string<char, std::__ndk1::char_traits<char>, std::__ndk1::allocator<char> >, std::__ndk1::shared_ptr<geode::Hook> >, std::__ndk1::__map_value_compare<std::__ndk1::basic_string<char, std::__ndk1::char_traits<char>, std::__ndk1::allocator<char> >, std::__ndk1::__value_type<std::__ndk1::basic_string<char, std::__ndk1::char_traits<char>, std::__ndk1::allocator<char> >, std::__ndk1::shared_ptr<geode::Hook> >, std::__ndk1::less<std::__ndk1::basic_string<char, std::__ndk1::char_traits<char>, std::__ndk1::allocator<char> > >, true>, std::__ndk1::allocator<std::__ndk1::__value_type<std::__ndk1::basic_string<char, std::__ndk1::char_traits<char>, std::__ndk1::allocator<char> >, std::__ndk1::shared_ptr<geode::Hook> > > >::__emplace_unique_key_args<std::__ndk1::basic_string<char, std::__ndk1::char_traits<char>, std::__ndk1::allocator<char> >, std::__ndk1::piecewise_construct_t const&, std::__ndk1::tuple<std::__ndk1::basic_string<char, std::__ndk1::char_traits<char>, std::__ndk1::allocator<char> >&&>, std::__ndk1::tuple<> >(std::__ndk1::basic_string<char, std::__ndk1::char_traits<char>, std::__ndk1::allocator<char> > const&, std::__ndk1::piecewise_construct_t const&, std::__ndk1::tuple<std::__ndk1::basic_string<char, std::__ndk1::char_traits<char>, std::__ndk1::allocator<char> >&&>, std::__ndk1::tuple<>)
PUBLIC 46e90 0 std::__ndk1::__tree_balance_after_insert[abi:ne190000]<std::__ndk1::__tree_node_base<void*>*>(std::__ndk1::__tree_node_base<void*>*, std::__ndk1::__tree_node_base<void*>*)
PUBLIC 47038 0 __cxx_global_var_init.10
PUBLIC 47520 0 geode::modifier::ModifyBase<geode::modifier::ModifyDerive<MICharacterColorPage, CharacterColorPage> >::~ModifyBase()
PUBLIC 4753c 0 geode::modifier::ModifyDerive<MICharacterColorPage, CharacterColorPage>::apply()
PUBLIC 47b24 0 geode::modifier::ModifyBase<geode::modifier::ModifyDerive<MICharacterColorPage, CharacterColorPage> >::apply()
PUBLIC 47b28 0 geode::modifier::ModifyBase<geode::modifier::ModifyDerive<MICharacterColorPage, CharacterColorPage> >::setHookPriorityBefore(std::__ndk1::basic_string_view<char, std::__ndk1::char_traits<char> >, std::__ndk1::basic_string_view<char, std::__ndk1::char_traits<char> >)
PUBLIC 48008 0 geode::modifier::ModifyBase<geode::modifier::ModifyDerive<MICharacterColorPage, CharacterColorPage> >::setHookPriorityBefore(std::__ndk1::basic_string_view<char, std::__ndk1::char_traits<char> >, geode::Mod*)::{lambda(geode::ModStateEvent*)#1}::operator()(geode::ModStateEvent*) const
PUBLIC 48118 0 std::__ndk1::__tree<std::__ndk1::__value_type<std::__ndk1::basic_string<char, std::__ndk1::char_traits<char>, std::__ndk1::allocator<char> >, std::__ndk1::shared_ptr<geode::Hook> >, std::__ndk1::__map_value_compare<std::__ndk1::basic_string<char, std::__ndk1::char_traits<char>, std::__ndk1::allocator<char> >, std::__ndk1::__value_type<std::__ndk1::basic_string<char, std::__ndk1::char_traits<char>, std::__ndk1::allocator<char> >, std::__ndk1::shared_ptr<geode::Hook> >, std::__ndk1::less<std::__ndk1::basic_string<char, std::__ndk1::char_traits<char>, std::__ndk1::allocator<char> > >, true>, std::__ndk1::allocator<std::__ndk1::__value_type<std::__ndk1::basic_string<char, std::__ndk1::char_traits<char>, std::__ndk1::allocator<char> >, std::__ndk1::shared_ptr<geode::Hook> > > >::__emplace_unique_key_args<std::__ndk1::basic_string<char, std::__ndk1::char_traits<char>, std::__ndk1::allocator<char> >, std::__ndk1::piecewise_construct_t const&, std::__ndk1::tuple<std::__ndk1::basic_string<char, std::__ndk1::char_traits<char>, std::__ndk1::allocator<char> > const&>, std::__ndk1::tuple<> >(std::__ndk1::basic_string<char, std::__ndk1::char_traits<char>, std::__ndk1::allocator<char> > const&, std::__ndk1::piecewise_construct_t const&, std::__ndk1::tuple<std::__ndk1::basic_string<char, std::__ndk1::char_traits<char>, std::__ndk1::allocator<char> > const&>, std::__ndk1::tuple<>)
PUBLIC 4830c 0 std::__ndk1::unique_ptr<std::__ndk1::__tree_node<std::__ndk1::__value_type<std::__ndk1::basic_string<char, std::__ndk1::char_traits<char>, std::__ndk1::allocator<char> >, std::__ndk1::shared_ptr<geode::Hook> >, void*>, std::__ndk1::__tree_node_destructor<std::__ndk1::allocator<std::__ndk1::__tree_node<std::__ndk1::__value_type<std::__ndk1::basic_string<char, std::__ndk1::char_traits<char>, std::__ndk1::allocator<char> >, std::__ndk1::shared_ptr<geode::Hook> >, void*> > > >::~unique_ptr[abi:ne190000]()
PUBLIC 48388 0 _ZN5geode15UnwrapExceptionC2IRNSt6__ndk112basic_stringIcNS2_11char_traitsIcEENS2_9allocatorIcEEEEQsr4implE18IsStringStreamableIT_EEENS_4impl6ErrTagEOSA_
PUBLIC 484f0 0 std::__ndk1::__function::__base<void (geode::ModStateEvent*)>::~__base()
PUBLIC 484f4 0 std::__ndk1::__function::__func<geode::modifier::ModifyBase<geode::modifier::ModifyDerive<MICharacterColorPage, CharacterColorPage> >::setHookPriorityBefore(std::__ndk1::basic_string_view<char, std::__ndk1::char_traits<char> >, geode::Mod*)::{lambda(geode::ModStateEvent*)#1}, std::__ndk1::allocator<geode::modifier::ModifyBase<geode::modifier::ModifyDerive<MICharacterColorPage, CharacterColorPage> >::setHookPriorityBefore(std::__ndk1::basic_string_view<char, std::__ndk1::char_traits<char> >, geode::Mod*)::{lambda(geode::ModStateEvent*)#1}>, void (geode::ModStateEvent*)>::~__func()
PUBLIC 484f8 0 std::__ndk1::__function::__func<geode::modifier::ModifyBase<geode::modifier::ModifyDerive<MICharacterColorPage, CharacterColorPage> >::setHookPriorityBefore(std::__ndk1::basic_string_view<char, std::__ndk1::char_traits<char> >, geode::Mod*)::{lambda(geode::ModStateEvent*)#1}, std::__ndk1::allocator<geode::modifier::ModifyBase<geode::modifier::ModifyDerive<MICharacterColorPage, CharacterColorPage> >::setHookPriorityBefore(std::__ndk1::basic_string_view<char, std::__ndk1::char_traits<char> >, geode::Mod*)::{lambda(geode::ModStateEvent*)#1}>, void (geode::ModStateEvent*)>::__clone() const
PUBLIC 48530 0 std::__ndk1::__function::__func<geode::modifier::ModifyBase<geode::modifier::ModifyDerive<MICharacterColorPage, CharacterColorPage> >::setHookPriorityBefore(std::__ndk1::basic_string_view<char, std::__ndk1::char_traits<char> >, geode::Mod*)::{lambda(geode::ModStateEvent*)#1}, std::__ndk1::allocator<geode::modifier::ModifyBase<geode::modifier::ModifyDerive<MICharacterColorPage, CharacterColorPage> >::setHookPriorityBefore(std::__ndk1::basic_string_view<char, std::__ndk1::char_traits<char> >, geode::Mod*)::{lambda(geode::ModStateEvent*)#1}>, void (geode::ModStateEvent*)>::__clone(std::__ndk1::__function::__base<void (geode::ModStateEvent*)>*) const
PUBLIC 48548 0 std::__ndk1::__function::__func<geode::modifier::ModifyBase<geode::modifier::ModifyDerive<MICharacterColorPage, CharacterColorPage> >::setHookPriorityBefore(std::__ndk1::basic_string_view<char, std::__ndk1::char_traits<char> >, geode::Mod*)::{lambda(geode::ModStateEvent*)#1}, std::__ndk1::allocator<geode::modifier::ModifyBase<geode::modifier::ModifyDerive<MICharacterColorPage, CharacterColorPage> >::setHookPriorityBefore(std::__ndk1::basic_string_view<char, std::__ndk1::char_traits<char> >, geode::Mod*)::{lambda(geode::ModStateEvent*)#1}>, void (geode::ModStateEvent*)>::destroy()
PUBLIC 4854c 0 std::__ndk1::__function::__func<geode::modifier::ModifyBase<geode::modifier::ModifyDerive<MICharacterColorPage, CharacterColorPage> >::setHookPriorityBefore(std::__ndk1::basic_string_view<char, std::__ndk1::char_traits<char> >, geode::Mod*)::{lambda(geode::ModStateEvent*)#1}, std::__ndk1::allocator<geode::modifier::ModifyBase<geode::modifier::ModifyDerive<MICharacterColorPage, CharacterColorPage> >::setHookPriorityBefore(std::__ndk1::basic_string_view<char, std::__ndk1::char_traits<char> >, geode::Mod*)::{lambda(geode::ModStateEvent*)#1}>, void (geode::ModStateEvent*)>::destroy_deallocate()
PUBLIC 48550 0 std::__ndk1::__function::__func<geode::modifier::ModifyBase<geode::modifier::ModifyDerive<MICharacterColorPage, CharacterColorPage> >::setHookPriorityBefore(std::__ndk1::basic_string_view<char, std::__ndk1::char_traits<char> >, geode::Mod*)::{lambda(geode::ModStateEvent*)#1}, std::__ndk1::allocator<geode::modifier::ModifyBase<geode::modifier::ModifyDerive<MICharacterColorPage, CharacterColorPage> >::setHookPriorityBefore(std::__ndk1::basic_string_view<char, std::__ndk1::char_traits<char> >, geode::Mod*)::{lambda(geode::ModStateEvent*)#1}>, void (geode::ModStateEvent*)>::operator()(geode::ModStateEvent*&&)
PUBLIC 48558 0 std::__ndk1::__function::__func<geode::modifier::ModifyBase<geode::modifier::ModifyDerive<MICharacterColorPage, CharacterColorPage> >::setHookPriorityBefore(std::__ndk1::basic_string_view<char, std::__ndk1::char_traits<char> >, geode::Mod*)::{lambda(geode::ModStateEvent*)#1}, std::__ndk1::allocator<geode::modifier::ModifyBase<geode::modifier::ModifyDerive<MICharacterColorPage, CharacterColorPage> >::setHookPriorityBefore(std::__ndk1::basic_string_view<char, std::__ndk1::char_traits<char> >, geode::Mod*)::{lambda(geode::ModStateEvent*)#1}>, void (geode::ModStateEvent*)>::target(std::type_info const&) const
PUBLIC 48574 0 std::__ndk1::__function::__func<geode::modifier::ModifyBase<geode::modifier::ModifyDerive<MICharacterColorPage, CharacterColorPage> >::setHookPriorityBefore(std::__ndk1::basic_string_view<char, std::__ndk1::char_traits<char> >, geode::Mod*)::{lambda(geode::ModStateEvent*)#1}, std::__ndk1::allocator<geode::modifier::ModifyBase<geode::modifier::ModifyDerive<MICharacterColorPage, CharacterColorPage> >::setHookPriorityBefore(std::__ndk1::basic_string_view<char, std::__ndk1::char_traits<char> >, geode::Mod*)::{lambda(geode::ModStateEvent*)#1}>, void (geode::ModStateEvent*)>::target_type() const
PUBLIC 48580 0 geode::EventListener<geode::ModStateFilter>::getPool() const
PUBLIC 48584 0 geode::EventListener<geode::ModStateFilter>::handle(geode::Event*)
PUBLIC 486f8 0 geode::EventListener<geode::ModStateFilter>::~EventListener()
PUBLIC 48754 0 geode::EventListener<geode::ModStateFilter>::~EventListener()
PUBLIC 487b8 0 std::__ndk1::__variant_detail::__visitation::__base::__dispatcher<(unsigned long)0>::__dispatch[abi:ne190000]<std::__ndk1::__variant_detail::__dtor<std::__ndk1::__variant_detail::__traits<std::__ndk1::monostate, std::__ndk1::basic_string<char, std::__ndk1::char_traits<char>, std::__ndk1::allocator<char> > >, (std::__ndk1::__variant_detail::_Trait)1>::__destroy[abi:ne190000]()::{lambda(auto:1&)#1}, std::__ndk1::__variant_detail::__base<(std::__ndk1::__variant_detail::__traits<std::__ndk1::monostate, std::__ndk1::basic_string<char, std::__ndk1::char_traits<char>, std::__ndk1::allocator<char> > >)1, std::__ndk1::__variant_detail::__traits, std::__ndk1::allocator<char> >&>(std::__ndk1::__variant_detail::__dtor<std::__ndk1::__variant_detail::__traits<std::__ndk1::monostate, std::__ndk1::basic_string<char, std::__ndk1::char_traits<char>, std::__ndk1::allocator<char> > >, (std::__ndk1::__variant_detail::_Trait)1>, std::__ndk1::__variant_detail::__base<(std::__ndk1::__variant_detail::__traits<std::__ndk1::monostate, std::__ndk1::basic_string<char, std::__ndk1::char_traits<char>, std::__ndk1::allocator<char> > >)1, std::__ndk1::__variant_detail::__traits, std::__ndk1::allocator<char> >&)
PUBLIC 487bc 0 std::__ndk1::__variant_detail::__visitation::__base::__dispatcher<(unsigned long)1>::__dispatch[abi:ne190000]<std::__ndk1::__variant_detail::__dtor<std::__ndk1::__variant_detail::__traits<std::__ndk1::monostate, std::__ndk1::basic_string<char, std::__ndk1::char_traits<char>, std::__ndk1::allocator<char> > >, (std::__ndk1::__variant_detail::_Trait)1>::__destroy[abi:ne190000]()::{lambda(auto:1&)#1}, std::__ndk1::__variant_detail::__base<(std::__ndk1::__variant_detail::__traits<std::__ndk1::monostate, std::__ndk1::basic_string<char, std::__ndk1::char_traits<char>, std::__ndk1::allocator<char> > >)1, std::__ndk1::__variant_detail::__traits, std::__ndk1::allocator<char> >&>(std::__ndk1::__variant_detail::__dtor<std::__ndk1::__variant_detail::__traits<std::__ndk1::monostate, std::__ndk1::basic_string<char, std::__ndk1::char_traits<char>, std::__ndk1::allocator<char> > >, (std::__ndk1::__variant_detail::_Trait)1>, std::__ndk1::__variant_detail::__base<(std::__ndk1::__variant_detail::__traits<std::__ndk1::monostate, std::__ndk1::basic_string<char, std::__ndk1::char_traits<char>, std::__ndk1::allocator<char> > >)1, std::__ndk1::__variant_detail::__traits, std::__ndk1::allocator<char> >&)
PUBLIC 487d0 0 geode::modifier::AsStaticFunction_init<MICharacterColorPage, bool (MICharacterColorPage::*)()>::Impl<bool (MICharacterColorPage::*)()>::function(MICharacterColorPage*)
PUBLIC 48934 0 geode::modifier::AsStaticFunction_toggleShip<MICharacterColorPage, void (MICharacterColorPage::*)(cocos2d::CCObject*)>::Impl<void (MICharacterColorPage::*)(cocos2d::CCObject*)>::function(MICharacterColorPage*, cocos2d::CCObject*)
PUBLIC 48a6c 0 geode::addresser::Addresser::addressOfVirtual<bool, CharacterColorPage, >(bool (CharacterColorPage::*)())
PUBLIC 48b14 0 CharacterColorPage::CharacterColorPage(geode::ZeroConstructorType)
PUBLIC 48b98 0 geode::Mod::getSavedValue<bool>(std::__ndk1::basic_string_view<char, std::__ndk1::char_traits<char> >, bool const&)
PUBLIC 48d74 0 std::__ndk1::__variant_detail::__visitation::__base::__dispatcher<(unsigned long)0>::__dispatch[abi:ne190000]<std::__ndk1::__variant_detail::__dtor<std::__ndk1::__variant_detail::__traits<bool, std::__ndk1::basic_string<char, std::__ndk1::char_traits<char>, std::__ndk1::allocator<char> > >, (std::__ndk1::__variant_detail::_Trait)1>::__destroy[abi:ne190000]()::{lambda(auto:1&)#1}, std::__ndk1::__variant_detail::__base<(std::__ndk1::__variant_detail::__traits<bool, std::__ndk1::basic_string<char, std::__ndk1::char_traits<char>, std::__ndk1::allocator<char> > >)1, bool, std::__ndk1::allocator<char> >&>(std::__ndk1::__variant_detail::__dtor<std::__ndk1::__variant_detail::__traits<bool, std::__ndk1::basic_string<char, std::__ndk1::char_traits<char>, std::__ndk1::allocator<char> > >, (std::__ndk1::__variant_detail::_Trait)1>, std::__ndk1::__variant_detail::__base<(std::__ndk1::__variant_detail::__traits<bool, std::__ndk1::basic_string<char, std::__ndk1::char_traits<char>, std::__ndk1::allocator<char> > >)1, bool, std::__ndk1::allocator<char> >&)
PUBLIC 48d78 0 std::__ndk1::__variant_detail::__visitation::__base::__dispatcher<(unsigned long)1>::__dispatch[abi:ne190000]<std::__ndk1::__variant_detail::__dtor<std::__ndk1::__variant_detail::__traits<bool, std::__ndk1::basic_string<char, std::__ndk1::char_traits<char>, std::__ndk1::allocator<char> > >, (std::__ndk1::__variant_detail::_Trait)1>::__destroy[abi:ne190000]()::{lambda(auto:1&)#1}, std::__ndk1::__variant_detail::__base<(std::__ndk1::__variant_detail::__traits<bool, std::__ndk1::basic_string<char, std::__ndk1::char_traits<char>, std::__ndk1::allocator<char> > >)1, bool, std::__ndk1::allocator<char> >&>(std::__ndk1::__variant_detail::__dtor<std::__ndk1::__variant_detail::__traits<bool, std::__ndk1::basic_string<char, std::__ndk1::char_traits<char>, std::__ndk1::allocator<char> > >, (std::__ndk1::__variant_detail::_Trait)1>, std::__ndk1::__variant_detail::__base<(std::__ndk1::__variant_detail::__traits<bool, std::__ndk1::basic_string<char, std::__ndk1::char_traits<char>, std::__ndk1::allocator<char> > >)1, bool, std::__ndk1::allocator<char> >&)
PUBLIC 48d8c 0 __cxx_global_var_init.22
PUBLIC 491fc 0 geode::modifier::ModifyBase<geode::modifier::ModifyDerive<MIGameManager, GameManager> >::~ModifyBase()
PUBLIC 49218 0 geode::modifier::ModifyDerive<MIGameManager, GameManager>::apply()
PUBLIC 49b3c 0 geode::modifier::ModifyBase<geode::modifier::ModifyDerive<MIGameManager, GameManager> >::apply()
PUBLIC 49b40 0 geode::modifier::AsStaticFunction_loadIcon<MIGameManager, cocos2d::CCTexture2D* (MIGameManager::*)(int, int, int)>::Impl<cocos2d::CCTexture2D* (MIGameManager::*)(int, int, int)>::function(MIGameManager*, int, int, int)
PUBLIC 49f64 0 geode::modifier::AsStaticFunction_reloadAllStep2<MIGameManager, void (MIGameManager::*)()>::Impl<void (MIGameManager::*)()>::function(MIGameManager*)
PUBLIC 4a3a8 0 geode::modifier::AsStaticFunction_sheetNameForIcon<MIGameManager, gd::string (MIGameManager::*)(int, int)>::Impl<gd::string (MIGameManager::*)(int, int)>::function(MIGameManager*, int, int)
PUBLIC 4a50c 0 geode::cocos::CCDictionaryExt<std::__ndk1::basic_string<char, std::__ndk1::char_traits<char>, std::__ndk1::allocator<char> >, cocos2d::CCDictionary*, cocos2d::CCDictionary>::~CCDictionaryExt()
PUBLIC 4a52c 0 gd::map<int, int>::insert_pair(std::__ndk1::pair<int, int> const&)
PUBLIC 4a6cc 0 geode::Mod::getSettingValue<bool>(std::__ndk1::basic_string_view<char, std::__ndk1::char_traits<char> >) const
PUBLIC 4a7f8 0 std::__ndk1::__hash_table<std::__ndk1::__hash_value_type<std::__ndk1::basic_string<char, std::__ndk1::char_traits<char>, std::__ndk1::allocator<char> >, TexturePack>, std::__ndk1::__unordered_map_hasher<std::__ndk1::basic_string<char, std::__ndk1::char_traits<char>, std::__ndk1::allocator<char> >, std::__ndk1::__hash_value_type<std::__ndk1::basic_string<char, std::__ndk1::char_traits<char>, std::__ndk1::allocator<char> >, TexturePack>, std::__ndk1::hash<std::__ndk1::basic_string<char, std::__ndk1::char_traits<char>, std::__ndk1::allocator<char> > >, std::__ndk1::equal_to<std::__ndk1::basic_string<char, std::__ndk1::char_traits<char>, std::__ndk1::allocator<char> > >, true>, std::__ndk1::__unordered_map_equal<std::__ndk1::basic_string<char, std::__ndk1::char_traits<char>, std::__ndk1::allocator<char> >, std::__ndk1::__hash_value_type<std::__ndk1::basic_string<char, std::__ndk1::char_traits<char>, std::__ndk1::allocator<char> >, TexturePack>, std::__ndk1::equal_to<std::__ndk1::basic_string<char, std::__ndk1::char_traits<char>, std::__ndk1::allocator<char> > >, std::__ndk1::hash<std::__ndk1::basic_string<char, std::__ndk1::char_traits<char>, std::__ndk1::allocator<char> > >, true>, std::__ndk1::allocator<std::__ndk1::__hash_value_type<std::__ndk1::basic_string<char, std::__ndk1::char_traits<char>, std::__ndk1::allocator<char> >, TexturePack> > >::clear()
PUBLIC 4a8b0 0 __cxx_global_var_init.10
PUBLIC 4ad20 0 geode::modifier::ModifyBase<geode::modifier::ModifyDerive<MIBaseGameLayer, GJBaseGameLayer> >::~ModifyBase()
PUBLIC 4ad3c 0 geode::modifier::ModifyDerive<MIBaseGameLayer, GJBaseGameLayer>::apply()
PUBLIC 4b0bc 0 geode::modifier::ModifyBase<geode::modifier::ModifyDerive<MIBaseGameLayer, GJBaseGameLayer> >::apply()
PUBLIC 4b0c0 0 geode::modifier::AsStaticFunction_playExitDualEffect<MIBaseGameLayer, void (MIBaseGameLayer::*)(PlayerObject*)>::Impl<void (MIBaseGameLayer::*)(PlayerObject*)>::function(MIBaseGameLayer*, PlayerObject*)
PUBLIC 4b1f8 0 geode::cocos::findFirstChildRecursive<SimplePlayer>(cocos2d::CCNode*, std::__ndk1::function<bool (SimplePlayer*)>)
PUBLIC 4b3f8 0 std::__ndk1::__function::__base<bool (SimplePlayer*)>::~__base()
PUBLIC 4b3fc 0 std::__ndk1::__function::__func<MIBaseGameLayer::playExitDualEffect(PlayerObject*)::{lambda(SimplePlayer*)#1}, std::__ndk1::allocator<MIBaseGameLayer::playExitDualEffect(PlayerObject*)::{lambda(SimplePlayer*)#1}>, bool (SimplePlayer*)>::~__func()
PUBLIC 4b400 0 std::__ndk1::__function::__func<MIBaseGameLayer::playExitDualEffect(PlayerObject*)::{lambda(SimplePlayer*)#1}, std::__ndk1::allocator<MIBaseGameLayer::playExitDualEffect(PlayerObject*)::{lambda(SimplePlayer*)#1}>, bool (SimplePlayer*)>::__clone() const
PUBLIC 4b424 0 std::__ndk1::__function::__func<MIBaseGameLayer::playExitDualEffect(PlayerObject*)::{lambda(SimplePlayer*)#1}, std::__ndk1::allocator<MIBaseGameLayer::playExitDualEffect(PlayerObject*)::{lambda(SimplePlayer*)#1}>, bool (SimplePlayer*)>::__clone(std::__ndk1::__function::__base<bool (SimplePlayer*)>*) const
PUBLIC 4b434 0 std::__ndk1::__function::__func<MIBaseGameLayer::playExitDualEffect(PlayerObject*)::{lambda(SimplePlayer*)#1}, std::__ndk1::allocator<MIBaseGameLayer::playExitDualEffect(PlayerObject*)::{lambda(SimplePlayer*)#1}>, bool (SimplePlayer*)>::destroy()
PUBLIC 4b438 0 std::__ndk1::__function::__func<MIBaseGameLayer::playExitDualEffect(PlayerObject*)::{lambda(SimplePlayer*)#1}, std::__ndk1::allocator<MIBaseGameLayer::playExitDualEffect(PlayerObject*)::{lambda(SimplePlayer*)#1}>, bool (SimplePlayer*)>::destroy_deallocate()
PUBLIC 4b43c 0 std::__ndk1::__function::__func<MIBaseGameLayer::playExitDualEffect(PlayerObject*)::{lambda(SimplePlayer*)#1}, std::__ndk1::allocator<MIBaseGameLayer::playExitDualEffect(PlayerObject*)::{lambda(SimplePlayer*)#1}>, bool (SimplePlayer*)>::operator()(SimplePlayer*&&)
PUBLIC 4b464 0 std::__ndk1::__function::__func<MIBaseGameLayer::playExitDualEffect(PlayerObject*)::{lambda(SimplePlayer*)#1}, std::__ndk1::allocator<MIBaseGameLayer::playExitDualEffect(PlayerObject*)::{lambda(SimplePlayer*)#1}>, bool (SimplePlayer*)>::target(std::type_info const&) const
PUBLIC 4b480 0 std::__ndk1::__function::__func<MIBaseGameLayer::playExitDualEffect(PlayerObject*)::{lambda(SimplePlayer*)#1}, std::__ndk1::allocator<MIBaseGameLayer::playExitDualEffect(PlayerObject*)::{lambda(SimplePlayer*)#1}>, bool (SimplePlayer*)>::target_type() const
PUBLIC 4b48c 0 __cxx_global_var_init.22
PUBLIC 4bec4 0 geode::modifier::ModifyBase<geode::modifier::ModifyDerive<MIGarageLayer, GJGarageLayer> >::~ModifyBase()
PUBLIC 4bee0 0 TrailInfo::~TrailInfo()
PUBLIC 4bf44 0 geode::modifier::ModifyDerive<MIGarageLayer, GJGarageLayer>::apply()
PUBLIC 4d058 0 geode::modifier::ModifyBase<geode::modifier::ModifyDerive<MIGarageLayer, GJGarageLayer> >::apply()
PUBLIC 4d05c 0 geode::modifier::ModifyBase<geode::modifier::ModifyDerive<MIGarageLayer, GJGarageLayer> >::getHook(std::__ndk1::basic_string_view<char, std::__ndk1::char_traits<char> >)
PUBLIC 4d220 0 geode::modifier::ModifyBase<geode::modifier::ModifyDerive<MIGarageLayer, GJGarageLayer> >::setHookPriorityBefore(std::__ndk1::basic_string_view<char, std::__ndk1::char_traits<char> >, geode::Mod*)::{lambda(geode::ModStateEvent*)#1}::operator()(geode::ModStateEvent*) const
PUBLIC 4d330 0 std::__ndk1::basic_string<char, std::__ndk1::char_traits<char>, std::__ndk1::allocator<char> >::__throw_out_of_range[abi:ne190000]() const
PUBLIC 4d344 0 std::__ndk1::__throw_out_of_range[abi:ne190000](char const*)
PUBLIC 4d394 0 std::out_of_range::out_of_range[abi:ne190000](char const*)
PUBLIC 4d3c4 0 std::__ndk1::__function::__func<geode::modifier::ModifyBase<geode::modifier::ModifyDerive<MIGarageLayer, GJGarageLayer> >::setHookPriorityBefore(std::__ndk1::basic_string_view<char, std::__ndk1::char_traits<char> >, geode::Mod*)::{lambda(geode::ModStateEvent*)#1}, std::__ndk1::allocator<geode::modifier::ModifyBase<geode::modifier::ModifyDerive<MIGarageLayer, GJGarageLayer> >::setHookPriorityBefore(std::__ndk1::basic_string_view<char, std::__ndk1::char_traits<char> >, geode::Mod*)::{lambda(geode::ModStateEvent*)#1}>, void (geode::ModStateEvent*)>::~__func()
PUBLIC 4d3c8 0 std::__ndk1::__function::__func<geode::modifier::ModifyBase<geode::modifier::ModifyDerive<MIGarageLayer, GJGarageLayer> >::setHookPriorityBefore(std::__ndk1::basic_string_view<char, std::__ndk1::char_traits<char> >, geode::Mod*)::{lambda(geode::ModStateEvent*)#1}, std::__ndk1::allocator<geode::modifier::ModifyBase<geode::modifier::ModifyDerive<MIGarageLayer, GJGarageLayer> >::setHookPriorityBefore(std::__ndk1::basic_string_view<char, std::__ndk1::char_traits<char> >, geode::Mod*)::{lambda(geode::ModStateEvent*)#1}>, void (geode::ModStateEvent*)>::__clone() const
PUBLIC 4d400 0 std::__ndk1::__function::__func<geode::modifier::ModifyBase<geode::modifier::ModifyDerive<MIGarageLayer, GJGarageLayer> >::setHookPriorityBefore(std::__ndk1::basic_string_view<char, std::__ndk1::char_traits<char> >, geode::Mod*)::{lambda(geode::ModStateEvent*)#1}, std::__ndk1::allocator<geode::modifier::ModifyBase<geode::modifier::ModifyDerive<MIGarageLayer, GJGarageLayer> >::setHookPriorityBefore(std::__ndk1::basic_string_view<char, std::__ndk1::char_traits<char> >, geode::Mod*)::{lambda(geode::ModStateEvent*)#1}>, void (geode::ModStateEvent*)>::__clone(std::__ndk1::__function::__base<void (geode::ModStateEvent*)>*) const
PUBLIC 4d418 0 std::__ndk1::__function::__func<geode::modifier::ModifyBase<geode::modifier::ModifyDerive<MIGarageLayer, GJGarageLayer> >::setHookPriorityBefore(std::__ndk1::basic_string_view<char, std::__ndk1::char_traits<char> >, geode::Mod*)::{lambda(geode::ModStateEvent*)#1}, std::__ndk1::allocator<geode::modifier::ModifyBase<geode::modifier::ModifyDerive<MIGarageLayer, GJGarageLayer> >::setHookPriorityBefore(std::__ndk1::basic_string_view<char, std::__ndk1::char_traits<char> >, geode::Mod*)::{lambda(geode::ModStateEvent*)#1}>, void (geode::ModStateEvent*)>::destroy()
PUBLIC 4d41c 0 std::__ndk1::__function::__func<geode::modifier::ModifyBase<geode::modifier::ModifyDerive<MIGarageLayer, GJGarageLayer> >::setHookPriorityBefore(std::__ndk1::basic_string_view<char, std::__ndk1::char_traits<char> >, geode::Mod*)::{lambda(geode::ModStateEvent*)#1}, std::__ndk1::allocator<geode::modifier::ModifyBase<geode::modifier::ModifyDerive<MIGarageLayer, GJGarageLayer> >::setHookPriorityBefore(std::__ndk1::basic_string_view<char, std::__ndk1::char_traits<char> >, geode::Mod*)::{lambda(geode::ModStateEvent*)#1}>, void (geode::ModStateEvent*)>::destroy_deallocate()
PUBLIC 4d420 0 std::__ndk1::__function::__func<geode::modifier::ModifyBase<geode::modifier::ModifyDerive<MIGarageLayer, GJGarageLayer> >::setHookPriorityBefore(std::__ndk1::basic_string_view<char, std::__ndk1::char_traits<char> >, geode::Mod*)::{lambda(geode::ModStateEvent*)#1}, std::__ndk1::allocator<geode::modifier::ModifyBase<geode::modifier::ModifyDerive<MIGarageLayer, GJGarageLayer> >::setHookPriorityBefore(std::__ndk1::basic_string_view<char, std::__ndk1::char_traits<char> >, geode::Mod*)::{lambda(geode::ModStateEvent*)#1}>, void (geode::ModStateEvent*)>::operator()(geode::ModStateEvent*&&)
PUBLIC 4d428 0 std::__ndk1::__function::__func<geode::modifier::ModifyBase<geode::modifier::ModifyDerive<MIGarageLayer, GJGarageLayer> >::setHookPriorityBefore(std::__ndk1::basic_string_view<char, std::__ndk1::char_traits<char> >, geode::Mod*)::{lambda(geode::ModStateEvent*)#1}, std::__ndk1::allocator<geode::modifier::ModifyBase<geode::modifier::ModifyDerive<MIGarageLayer, GJGarageLayer> >::setHookPriorityBefore(std::__ndk1::basic_string_view<char, std::__ndk1::char_traits<char> >, geode::Mod*)::{lambda(geode::ModStateEvent*)#1}>, void (geode::ModStateEvent*)>::target(std::type_info const&) const
PUBLIC 4d444 0 std::__ndk1::__function::__func<geode::modifier::ModifyBase<geode::modifier::ModifyDerive<MIGarageLayer, GJGarageLayer> >::setHookPriorityBefore(std::__ndk1::basic_string_view<char, std::__ndk1::char_traits<char> >, geode::Mod*)::{lambda(geode::ModStateEvent*)#1}, std::__ndk1::allocator<geode::modifier::ModifyBase<geode::modifier::ModifyDerive<MIGarageLayer, GJGarageLayer> >::setHookPriorityBefore(std::__ndk1::basic_string_view<char, std::__ndk1::char_traits<char> >, geode::Mod*)::{lambda(geode::ModStateEvent*)#1}>, void (geode::ModStateEvent*)>::target_type() const
PUBLIC 4d450 0 geode::modifier::ModifyBase<geode::modifier::ModifyDerive<MIGarageLayer, GJGarageLayer> >::setHookPriorityAfter(std::__ndk1::basic_string_view<char, std::__ndk1::char_traits<char> >, geode::Mod*)::{lambda(geode::ModStateEvent*)#1}::operator()(geode::ModStateEvent*) const
PUBLIC 4d560 0 std::__ndk1::__function::__func<geode::modifier::ModifyBase<geode::modifier::ModifyDerive<MIGarageLayer, GJGarageLayer> >::setHookPriorityAfter(std::__ndk1::basic_string_view<char, std::__ndk1::char_traits<char> >, geode::Mod*)::{lambda(geode::ModStateEvent*)#1}, std::__ndk1::allocator<geode::modifier::ModifyBase<geode::modifier::ModifyDerive<MIGarageLayer, GJGarageLayer> >::setHookPriorityAfter(std::__ndk1::basic_string_view<char, std::__ndk1::char_traits<char> >, geode::Mod*)::{lambda(geode::ModStateEvent*)#1}>, void (geode::ModStateEvent*)>::~__func()
PUBLIC 4d564 0 std::__ndk1::__function::__func<geode::modifier::ModifyBase<geode::modifier::ModifyDerive<MIGarageLayer, GJGarageLayer> >::setHookPriorityAfter(std::__ndk1::basic_string_view<char, std::__ndk1::char_traits<char> >, geode::Mod*)::{lambda(geode::ModStateEvent*)#1}, std::__ndk1::allocator<geode::modifier::ModifyBase<geode::modifier::ModifyDerive<MIGarageLayer, GJGarageLayer> >::setHookPriorityAfter(std::__ndk1::basic_string_view<char, std::__ndk1::char_traits<char> >, geode::Mod*)::{lambda(geode::ModStateEvent*)#1}>, void (geode::ModStateEvent*)>::__clone() const
PUBLIC 4d59c 0 std::__ndk1::__function::__func<geode::modifier::ModifyBase<geode::modifier::ModifyDerive<MIGarageLayer, GJGarageLayer> >::setHookPriorityAfter(std::__ndk1::basic_string_view<char, std::__ndk1::char_traits<char> >, geode::Mod*)::{lambda(geode::ModStateEvent*)#1}, std::__ndk1::allocator<geode::modifier::ModifyBase<geode::modifier::ModifyDerive<MIGarageLayer, GJGarageLayer> >::setHookPriorityAfter(std::__ndk1::basic_string_view<char, std::__ndk1::char_traits<char> >, geode::Mod*)::{lambda(geode::ModStateEvent*)#1}>, void (geode::ModStateEvent*)>::__clone(std::__ndk1::__function::__base<void (geode::ModStateEvent*)>*) const
PUBLIC 4d5b4 0 std::__ndk1::__function::__func<geode::modifier::ModifyBase<geode::modifier::ModifyDerive<MIGarageLayer, GJGarageLayer> >::setHookPriorityAfter(std::__ndk1::basic_string_view<char, std::__ndk1::char_traits<char> >, geode::Mod*)::{lambda(geode::ModStateEvent*)#1}, std::__ndk1::allocator<geode::modifier::ModifyBase<geode::modifier::ModifyDerive<MIGarageLayer, GJGarageLayer> >::setHookPriorityAfter(std::__ndk1::basic_string_view<char, std::__ndk1::char_traits<char> >, geode::Mod*)::{lambda(geode::ModStateEvent*)#1}>, void (geode::ModStateEvent*)>::destroy()
PUBLIC 4d5b8 0 std::__ndk1::__function::__func<geode::modifier::ModifyBase<geode::modifier::ModifyDerive<MIGarageLayer, GJGarageLayer> >::setHookPriorityAfter(std::__ndk1::basic_string_view<char, std::__ndk1::char_traits<char> >, geode::Mod*)::{lambda(geode::ModStateEvent*)#1}, std::__ndk1::allocator<geode::modifier::ModifyBase<geode::modifier::ModifyDerive<MIGarageLayer, GJGarageLayer> >::setHookPriorityAfter(std::__ndk1::basic_string_view<char, std::__ndk1::char_traits<char> >, geode::Mod*)::{lambda(geode::ModStateEvent*)#1}>, void (geode::ModStateEvent*)>::destroy_deallocate()
PUBLIC 4d5bc 0 std::__ndk1::__function::__func<geode::modifier::ModifyBase<geode::modifier::ModifyDerive<MIGarageLayer, GJGarageLayer> >::setHookPriorityAfter(std::__ndk1::basic_string_view<char, std::__ndk1::char_traits<char> >, geode::Mod*)::{lambda(geode::ModStateEvent*)#1}, std::__ndk1::allocator<geode::modifier::ModifyBase<geode::modifier::ModifyDerive<MIGarageLayer, GJGarageLayer> >::setHookPriorityAfter(std::__ndk1::basic_string_view<char, std::__ndk1::char_traits<char> >, geode::Mod*)::{lambda(geode::ModStateEvent*)#1}>, void (geode::ModStateEvent*)>::operator()(geode::ModStateEvent*&&)
PUBLIC 4d5c4 0 std::__ndk1::__function::__func<geode::modifier::ModifyBase<geode::modifier::ModifyDerive<MIGarageLayer, GJGarageLayer> >::setHookPriorityAfter(std::__ndk1::basic_string_view<char, std::__ndk1::char_traits<char> >, geode::Mod*)::{lambda(geode::ModStateEvent*)#1}, std::__ndk1::allocator<geode::modifier::ModifyBase<geode::modifier::ModifyDerive<MIGarageLayer, GJGarageLayer> >::setHookPriorityAfter(std::__ndk1::basic_string_view<char, std::__ndk1::char_traits<char> >, geode::Mod*)::{lambda(geode::ModStateEvent*)#1}>, void (geode::ModStateEvent*)>::target(std::type_info const&) const
PUBLIC 4d5e0 0 std::__ndk1::__function::__func<geode::modifier::ModifyBase<geode::modifier::ModifyDerive<MIGarageLayer, GJGarageLayer> >::setHookPriorityAfter(std::__ndk1::basic_string_view<char, std::__ndk1::char_traits<char> >, geode::Mod*)::{lambda(geode::ModStateEvent*)#1}, std::__ndk1::allocator<geode::modifier::ModifyBase<geode::modifier::ModifyDerive<MIGarageLayer, GJGarageLayer> >::setHookPriorityAfter(std::__ndk1::basic_string_view<char, std::__ndk1::char_traits<char> >, geode::Mod*)::{lambda(geode::ModStateEvent*)#1}>, void (geode::ModStateEvent*)>::target_type() const
PUBLIC 4d5ec 0 geode::modifier::AsStaticFunction_init<MIGarageLayer, bool (MIGarageLayer::*)()>::Impl<bool (MIGarageLayer::*)()>::function(MIGarageLayer*)
PUBLIC 4db6c 0 geode::Hook::create<void (*)(MIGarageLayer*, cocos2d::CCObject*)>(void*, void (*)(MIGarageLayer*, cocos2d::CCObject*), std::__ndk1::basic_string<char, std::__ndk1::char_traits<char>, std::__ndk1::allocator<char> > const&, tulip::hook::TulipConvention, tulip::hook::HookMetadata const&)
PUBLIC 4dcf0 0 geode::modifier::AsStaticFunction_onArrow<MIGarageLayer, void (MIGarageLayer::*)(cocos2d::CCObject*)>::Impl<void (MIGarageLayer::*)(cocos2d::CCObject*)>::function(MIGarageLayer*, cocos2d::CCObject*)
PUBLIC 4e694 0 geode::modifier::AsStaticFunction_onNavigate<MIGarageLayer, void (MIGarageLayer::*)(cocos2d::CCObject*)>::Impl<void (MIGarageLayer::*)(cocos2d::CCObject*)>::function(MIGarageLayer*, cocos2d::CCObject*)
PUBLIC 4e78c 0 geode::modifier::AsStaticFunction_onSelect<MIGarageLayer, void (MIGarageLayer::*)(cocos2d::CCObject*)>::Impl<void (MIGarageLayer::*)(cocos2d::CCObject*)>::function(MIGarageLayer*, cocos2d::CCObject*)
PUBLIC 4e790 0 geode::modifier::AsStaticFunction_selectTab<MIGarageLayer, void (MIGarageLayer::*)(IconType)>::Impl<void (MIGarageLayer::*)(IconType)>::function(MIGarageLayer*, IconType)
PUBLIC 4e968 0 geode::modifier::AsStaticFunction_setupPage<MIGarageLayer, void (MIGarageLayer::*)(int, IconType)>::Impl<void (MIGarageLayer::*)(int, IconType)>::function(MIGarageLayer*, int, IconType)
PUBLIC 4e9ac 0 geode::modifier::AsStaticFunction_updatePlayerColors<MIGarageLayer, void (MIGarageLayer::*)()>::Impl<void (MIGarageLayer::*)()>::function(MIGarageLayer*)
PUBLIC 4ea14 0 geode::addresser::Addresser::addressOfVirtual<bool, GJGarageLayer, >(bool (GJGarageLayer::*)())
PUBLIC 4eabc 0 GJGarageLayer::GJGarageLayer(geode::ZeroConstructorType)
PUBLIC 4eb70 0 gd::map<IconType, int>::insert_pair(std::__ndk1::pair<IconType, int> const&)
PUBLIC 4ed10 0 std::__ndk1::__tree<std::__ndk1::__value_type<IconType, int>, std::__ndk1::__map_value_compare<IconType, std::__ndk1::__value_type<IconType, int>, std::__ndk1::less<IconType>, true>, std::__ndk1::allocator<std::__ndk1::__value_type<IconType, int> > >::destroy(std::__ndk1::__tree_node<std::__ndk1::__value_type<IconType, int>, void*>*)
PUBLIC 4ed4c 0 geode::modifier::FieldIntermediate<MIGarageLayer, GJGarageLayer>::self()
PUBLIC 4eee8 0 geode::Mod::getSavedValue<int>(std::__ndk1::basic_string_view<char, std::__ndk1::char_traits<char> >, int const&)
PUBLIC 4f0c4 0 MIGarageLayer::setupCustomPage(int)
PUBLIC 50320 0 MIGarageLayer::findIconPage(IconType)
PUBLIC 505cc 0 MIGarageLayer::createNavMenu()
PUBLIC 50e98 0 MIGarageLayer::newOn2PToggle(cocos2d::CCObject*)
PUBLIC 51048 0 MIGarageLayer::newSwap2PKit(cocos2d::CCObject*)
PUBLIC 5130c 0 MIGarageLayer::onMoreIcons(cocos2d::CCObject*)
PUBLIC 51344 0 geode::modifier::FieldContainer::getField(unsigned long)
PUBLIC 51574 0 geode::modifier::FieldContainer::setField(unsigned long, unsigned long, std::__ndk1::function<void (void*)>)
PUBLIC 51688 0 geode::modifier::FieldIntermediate<MIGarageLayer, GJGarageLayer>::fieldDestructor(void*)
PUBLIC 51690 0 std::__ndk1::vector<void*, std::__ndk1::allocator<void*> >::__throw_length_error[abi:ne190000]() const
PUBLIC 516a4 0 std::__ndk1::vector<std::__ndk1::function<void (void*)>, std::__ndk1::allocator<std::__ndk1::function<void (void*)> > >::__push_back_slow_path<std::__ndk1::function<void (void*)> >(std::__ndk1::function<void (void*)>&&)
PUBLIC 518c4 0 std::__ndk1::vector<std::__ndk1::function<void (void*)>, std::__ndk1::allocator<std::__ndk1::function<void (void*)> > >::__throw_length_error[abi:ne190000]() const
PUBLIC 518d8 0 std::__ndk1::vector<void*, std::__ndk1::allocator<void*> >::__throw_out_of_range[abi:ne190000]() const
PUBLIC 518ec 0 std::__ndk1::vector<std::__ndk1::function<void (void*)>, std::__ndk1::allocator<std::__ndk1::function<void (void*)> > >::__throw_out_of_range[abi:ne190000]() const
PUBLIC 51900 0 std::__ndk1::__function::__base<void (void*)>::~__base()
PUBLIC 51904 0 std::__ndk1::__function::__func<void (*)(void*), std::__ndk1::allocator<void (*)(void*)>, void (void*)>::~__func()
PUBLIC 51908 0 std::__ndk1::__function::__func<void (*)(void*), std::__ndk1::allocator<void (*)(void*)>, void (void*)>::__clone() const
PUBLIC 51940 0 std::__ndk1::__function::__func<void (*)(void*), std::__ndk1::allocator<void (*)(void*)>, void (void*)>::__clone(std::__ndk1::__function::__base<void (void*)>*) const
PUBLIC 51958 0 std::__ndk1::__function::__func<void (*)(void*), std::__ndk1::allocator<void (*)(void*)>, void (void*)>::destroy()
PUBLIC 5195c 0 std::__ndk1::__function::__func<void (*)(void*), std::__ndk1::allocator<void (*)(void*)>, void (void*)>::destroy_deallocate()
PUBLIC 51960 0 std::__ndk1::__function::__func<void (*)(void*), std::__ndk1::allocator<void (*)(void*)>, void (void*)>::operator()(void*&&)
PUBLIC 51970 0 std::__ndk1::__function::__func<void (*)(void*), std::__ndk1::allocator<void (*)(void*)>, void (void*)>::target(std::type_info const&) const
PUBLIC 5198c 0 std::__ndk1::__function::__func<void (*)(void*), std::__ndk1::allocator<void (*)(void*)>, void (void*)>::target_type() const
PUBLIC 51998 0 matjson::Value::as<int>() const
PUBLIC 51aa0 0 std::__ndk1::__variant_detail::__visitation::__base::__dispatcher<(unsigned long)0>::__dispatch[abi:ne190000]<std::__ndk1::__variant_detail::__dtor<std::__ndk1::__variant_detail::__traits<long, std::__ndk1::basic_string<char, std::__ndk1::char_traits<char>, std::__ndk1::allocator<char> > >, (std::__ndk1::__variant_detail::_Trait)1>::__destroy[abi:ne190000]()::{lambda(auto:1&)#1}, std::__ndk1::__variant_detail::__base<(std::__ndk1::__variant_detail::__traits<long, std::__ndk1::basic_string<char, std::__ndk1::char_traits<char>, std::__ndk1::allocator<char> > >)1, long, std::__ndk1::allocator<char> >&>(std::__ndk1::__variant_detail::__dtor<std::__ndk1::__variant_detail::__traits<long, std::__ndk1::basic_string<char, std::__ndk1::char_traits<char>, std::__ndk1::allocator<char> > >, (std::__ndk1::__variant_detail::_Trait)1>, std::__ndk1::__variant_detail::__base<(std::__ndk1::__variant_detail::__traits<long, std::__ndk1::basic_string<char, std::__ndk1::char_traits<char>, std::__ndk1::allocator<char> > >)1, long, std::__ndk1::allocator<char> >&)
PUBLIC 51aa4 0 std::__ndk1::__variant_detail::__visitation::__base::__dispatcher<(unsigned long)1>::__dispatch[abi:ne190000]<std::__ndk1::__variant_detail::__dtor<std::__ndk1::__variant_detail::__traits<long, std::__ndk1::basic_string<char, std::__ndk1::char_traits<char>, std::__ndk1::allocator<char> > >, (std::__ndk1::__variant_detail::_Trait)1>::__destroy[abi:ne190000]()::{lambda(auto:1&)#1}, std::__ndk1::__variant_detail::__base<(std::__ndk1::__variant_detail::__traits<long, std::__ndk1::basic_string<char, std::__ndk1::char_traits<char>, std::__ndk1::allocator<char> > >)1, long, std::__ndk1::allocator<char> >&>(std::__ndk1::__variant_detail::__dtor<std::__ndk1::__variant_detail::__traits<long, std::__ndk1::basic_string<char, std::__ndk1::char_traits<char>, std::__ndk1::allocator<char> > >, (std::__ndk1::__variant_detail::_Trait)1>, std::__ndk1::__variant_detail::__base<(std::__ndk1::__variant_detail::__traits<long, std::__ndk1::basic_string<char, std::__ndk1::char_traits<char>, std::__ndk1::allocator<char> > >)1, long, std::__ndk1::allocator<char> >&)
PUBLIC 51ab8 0 std::__ndk1::__variant_detail::__visitation::__base::__dispatcher<(unsigned long)0>::__dispatch[abi:ne190000]<std::__ndk1::__variant_detail::__dtor<std::__ndk1::__variant_detail::__traits<int, std::__ndk1::basic_string<char, std::__ndk1::char_traits<char>, std::__ndk1::allocator<char> > >, (std::__ndk1::__variant_detail::_Trait)1>::__destroy[abi:ne190000]()::{lambda(auto:1&)#1}, std::__ndk1::__variant_detail::__base<(std::__ndk1::__variant_detail::__traits<int, std::__ndk1::basic_string<char, std::__ndk1::char_traits<char>, std::__ndk1::allocator<char> > >)1, int, std::__ndk1::allocator<char> >&>(std::__ndk1::__variant_detail::__dtor<std::__ndk1::__variant_detail::__traits<int, std::__ndk1::basic_string<char, std::__ndk1::char_traits<char>, std::__ndk1::allocator<char> > >, (std::__ndk1::__variant_detail::_Trait)1>, std::__ndk1::__variant_detail::__base<(std::__ndk1::__variant_detail::__traits<int, std::__ndk1::basic_string<char, std::__ndk1::char_traits<char>, std::__ndk1::allocator<char> > >)1, int, std::__ndk1::allocator<char> >&)
PUBLIC 51abc 0 std::__ndk1::__variant_detail::__visitation::__base::__dispatcher<(unsigned long)1>::__dispatch[abi:ne190000]<std::__ndk1::__variant_detail::__dtor<std::__ndk1::__variant_detail::__traits<int, std::__ndk1::basic_string<char, std::__ndk1::char_traits<char>, std::__ndk1::allocator<char> > >, (std::__ndk1::__variant_detail::_Trait)1>::__destroy[abi:ne190000]()::{lambda(auto:1&)#1}, std::__ndk1::__variant_detail::__base<(std::__ndk1::__variant_detail::__traits<int, std::__ndk1::basic_string<char, std::__ndk1::char_traits<char>, std::__ndk1::allocator<char> > >)1, int, std::__ndk1::allocator<char> >&>(std::__ndk1::__variant_detail::__dtor<std::__ndk1::__variant_detail::__traits<int, std::__ndk1::basic_string<char, std::__ndk1::char_traits<char>, std::__ndk1::allocator<char> > >, (std::__ndk1::__variant_detail::_Trait)1>, std::__ndk1::__variant_detail::__base<(std::__ndk1::__variant_detail::__traits<int, std::__ndk1::basic_string<char, std::__ndk1::char_traits<char>, std::__ndk1::allocator<char> > >)1, int, std::__ndk1::allocator<char> >&)
PUBLIC 51ad0 0 geode::cocos::CCArrayExt<CCMenuItemSpriteExtra*, CCMenuItemSpriteExtra>::~CCArrayExt()
PUBLIC 51aec 0 MIGarageLayer::getPage()
PUBLIC 51dac 0 std::__ndk1::__hash_table<std::__ndk1::__hash_value_type<std::__ndk1::basic_string<char, std::__ndk1::char_traits<char>, std::__ndk1::allocator<char> >, TrailInfo>, std::__ndk1::__unordered_map_hasher<std::__ndk1::basic_string<char, std::__ndk1::char_traits<char>, std::__ndk1::allocator<char> >, std::__ndk1::__hash_value_type<std::__ndk1::basic_string<char, std::__ndk1::char_traits<char>, std::__ndk1::allocator<char> >, TrailInfo>, std::__ndk1::hash<std::__ndk1::basic_string<char, std::__ndk1::char_traits<char>, std::__ndk1::allocator<char> > >, std::__ndk1::equal_to<std::__ndk1::basic_string<char, std::__ndk1::char_traits<char>, std::__ndk1::allocator<char> > >, true>, std::__ndk1::__unordered_map_equal<std::__ndk1::basic_string<char, std::__ndk1::char_traits<char>, std::__ndk1::allocator<char> >, std::__ndk1::__hash_value_type<std::__ndk1::basic_string<char, std::__ndk1::char_traits<char>, std::__ndk1::allocator<char> >, TrailInfo>, std::__ndk1::equal_to<std::__ndk1::basic_string<char, std::__ndk1::char_traits<char>, std::__ndk1::allocator<char> > >, std::__ndk1::hash<std::__ndk1::basic_string<char, std::__ndk1::char_traits<char>, std::__ndk1::allocator<char> > >, true>, std::__ndk1::allocator<std::__ndk1::__hash_value_type<std::__ndk1::basic_string<char, std::__ndk1::char_traits<char>, std::__ndk1::allocator<char> >, TrailInfo> > >::__emplace_unique_key_args<std::__ndk1::basic_string<char, std::__ndk1::char_traits<char>, std::__ndk1::allocator<char> >, std::__ndk1::piecewise_construct_t const&, std::__ndk1::tuple<std::__ndk1::basic_string<char, std::__ndk1::char_traits<char>, std::__ndk1::allocator<char> > const&>, std::__ndk1::tuple<> >(std::__ndk1::basic_string<char, std::__ndk1::char_traits<char>, std::__ndk1::allocator<char> > const&, std::__ndk1::piecewise_construct_t const&, std::__ndk1::tuple<std::__ndk1::basic_string<char, std::__ndk1::char_traits<char>, std::__ndk1::allocator<char> > const&>, std::__ndk1::tuple<>)
PUBLIC 522a0 0 std::__ndk1::__hash_table<std::__ndk1::__hash_value_type<std::__ndk1::basic_string<char, std::__ndk1::char_traits<char>, std::__ndk1::allocator<char> >, TrailInfo>, std::__ndk1::__unordered_map_hasher<std::__ndk1::basic_string<char, std::__ndk1::char_traits<char>, std::__ndk1::allocator<char> >, std::__ndk1::__hash_value_type<std::__ndk1::basic_string<char, std::__ndk1::char_traits<char>, std::__ndk1::allocator<char> >, TrailInfo>, std::__ndk1::hash<std::__ndk1::basic_string<char, std::__ndk1::char_traits<char>, std::__ndk1::allocator<char> > >, std::__ndk1::equal_to<std::__ndk1::basic_string<char, std::__ndk1::char_traits<char>, std::__ndk1::allocator<char> > >, true>, std::__ndk1::__unordered_map_equal<std::__ndk1::basic_string<char, std::__ndk1::char_traits<char>, std::__ndk1::allocator<char> >, std::__ndk1::__hash_value_type<std::__ndk1::basic_string<char, std::__ndk1::char_traits<char>, std::__ndk1::allocator<char> >, TrailInfo>, std::__ndk1::equal_to<std::__ndk1::basic_string<char, std::__ndk1::char_traits<char>, std::__ndk1::allocator<char> > >, std::__ndk1::hash<std::__ndk1::basic_string<char, std::__ndk1::char_traits<char>, std::__ndk1::allocator<char> > >, true>, std::__ndk1::allocator<std::__ndk1::__hash_value_type<std::__ndk1::basic_string<char, std::__ndk1::char_traits<char>, std::__ndk1::allocator<char> >, TrailInfo> > >::__do_rehash<true>(unsigned long)
PUBLIC 5244c 0 std::__ndk1::__hash_node_destructor<std::__ndk1::allocator<std::__ndk1::__hash_node<std::__ndk1::__hash_value_type<std::__ndk1::basic_string<char, std::__ndk1::char_traits<char>, std::__ndk1::allocator<char> >, TrailInfo>, void*> > >::operator()[abi:ne190000](std::__ndk1::__hash_node<std::__ndk1::__hash_value_type<std::__ndk1::basic_string<char, std::__ndk1::char_traits<char>, std::__ndk1::allocator<char> >, TrailInfo>, void*>*)
PUBLIC 524ec 0 std::__ndk1::__exception_guard_exceptions<std::__ndk1::vector<std::__ndk1::basic_string<char, std::__ndk1::char_traits<char>, std::__ndk1::allocator<char> >, std::__ndk1::allocator<std::__ndk1::basic_string<char, std::__ndk1::char_traits<char>, std::__ndk1::allocator<char> > > >::__destroy_vector>::~__exception_guard_exceptions[abi:ne190000]()
PUBLIC 52578 0 MIGarageLayer::onCustomNavigate(cocos2d::CCObject*)
PUBLIC 525ac 0 MIGarageLayer::swapDual(IconType)
PUBLIC 526dc 0 MIGarageLayer::onSelect(cocos2d::CCObject*)
PUBLIC 5458c 0 TrailInfo::TrailInfo(TrailInfo const&)
PUBLIC 54698 0 geode::cocos::CCMenuItemExt::createTogglerWithStandardSprites(float, std::__ndk1::function<void (CCMenuItemToggler*)>)
PUBLIC 54b68 0 geode::cocos::CCMenuItemExt::LambdaCallback<CCMenuItemToggler>::execute(cocos2d::CCNode*)
PUBLIC 54bd8 0 geode::cocos::CCMenuItemExt::LambdaCallback<CCMenuItemToggler>::~LambdaCallback()
PUBLIC 54c34 0 geode::cocos::CCMenuItemExt::LambdaCallback<CCMenuItemToggler>::~LambdaCallback()
PUBLIC 54c98 0 std::__ndk1::__function::__func<MIGarageLayer::onCustomSpecialSelect(CCMenuItemSpriteExtra*)::{lambda(CCMenuItemToggler*)#1}, std::__ndk1::allocator<MIGarageLayer::onCustomSpecialSelect(CCMenuItemSpriteExtra*)::{lambda(CCMenuItemToggler*)#1}>, void (CCMenuItemToggler*)>::~__func()
PUBLIC 54cb8 0 std::__ndk1::__function::__func<MIGarageLayer::onCustomSpecialSelect(CCMenuItemSpriteExtra*)::{lambda(CCMenuItemToggler*)#1}, std::__ndk1::allocator<MIGarageLayer::onCustomSpecialSelect(CCMenuItemSpriteExtra*)::{lambda(CCMenuItemToggler*)#1}>, void (CCMenuItemToggler*)>::~__func()
PUBLIC 54cf8 0 std::__ndk1::__function::__func<MIGarageLayer::onCustomSpecialSelect(CCMenuItemSpriteExtra*)::{lambda(CCMenuItemToggler*)#1}, std::__ndk1::allocator<MIGarageLayer::onCustomSpecialSelect(CCMenuItemSpriteExtra*)::{lambda(CCMenuItemToggler*)#1}>, void (CCMenuItemToggler*)>::__clone() const
PUBLIC 54d78 0 std::__ndk1::__function::__func<MIGarageLayer::onCustomSpecialSelect(CCMenuItemSpriteExtra*)::{lambda(CCMenuItemToggler*)#1}, std::__ndk1::allocator<MIGarageLayer::onCustomSpecialSelect(CCMenuItemSpriteExtra*)::{lambda(CCMenuItemToggler*)#1}>, void (CCMenuItemToggler*)>::__clone(std::__ndk1::__function::__base<void (CCMenuItemToggler*)>*) const
PUBLIC 54db4 0 std::__ndk1::__function::__func<MIGarageLayer::onCustomSpecialSelect(CCMenuItemSpriteExtra*)::{lambda(CCMenuItemToggler*)#1}, std::__ndk1::allocator<MIGarageLayer::onCustomSpecialSelect(CCMenuItemSpriteExtra*)::{lambda(CCMenuItemToggler*)#1}>, void (CCMenuItemToggler*)>::destroy()
PUBLIC 54dc8 0 std::__ndk1::__function::__func<MIGarageLayer::onCustomSpecialSelect(CCMenuItemSpriteExtra*)::{lambda(CCMenuItemToggler*)#1}, std::__ndk1::allocator<MIGarageLayer::onCustomSpecialSelect(CCMenuItemSpriteExtra*)::{lambda(CCMenuItemToggler*)#1}>, void (CCMenuItemToggler*)>::destroy_deallocate()
PUBLIC 54dfc 0 std::__ndk1::__function::__func<MIGarageLayer::onCustomSpecialSelect(CCMenuItemSpriteExtra*)::{lambda(CCMenuItemToggler*)#1}, std::__ndk1::allocator<MIGarageLayer::onCustomSpecialSelect(CCMenuItemSpriteExtra*)::{lambda(CCMenuItemToggler*)#1}>, void (CCMenuItemToggler*)>::operator()(CCMenuItemToggler*&&)
PUBLIC 54e88 0 std::__ndk1::__function::__func<MIGarageLayer::onCustomSpecialSelect(CCMenuItemSpriteExtra*)::{lambda(CCMenuItemToggler*)#1}, std::__ndk1::allocator<MIGarageLayer::onCustomSpecialSelect(CCMenuItemSpriteExtra*)::{lambda(CCMenuItemToggler*)#1}>, void (CCMenuItemToggler*)>::target(std::type_info const&) const
PUBLIC 54ea4 0 std::__ndk1::__function::__func<MIGarageLayer::onCustomSpecialSelect(CCMenuItemSpriteExtra*)::{lambda(CCMenuItemToggler*)#1}, std::__ndk1::allocator<MIGarageLayer::onCustomSpecialSelect(CCMenuItemSpriteExtra*)::{lambda(CCMenuItemToggler*)#1}>, void (CCMenuItemToggler*)>::target_type() const
PUBLIC 54eb0 0 std::__ndk1::__function::__func<MIGarageLayer::onCustomSpecialSelect(CCMenuItemSpriteExtra*)::{lambda(CCMenuItemToggler*)#2}, std::__ndk1::allocator<MIGarageLayer::onCustomSpecialSelect(CCMenuItemSpriteExtra*)::{lambda(CCMenuItemToggler*)#2}>, void (CCMenuItemToggler*)>::~__func()
PUBLIC 54ed0 0 std::__ndk1::__function::__func<MIGarageLayer::onCustomSpecialSelect(CCMenuItemSpriteExtra*)::{lambda(CCMenuItemToggler*)#2}, std::__ndk1::allocator<MIGarageLayer::onCustomSpecialSelect(CCMenuItemSpriteExtra*)::{lambda(CCMenuItemToggler*)#2}>, void (CCMenuItemToggler*)>::~__func()
PUBLIC 54f10 0 std::__ndk1::__function::__func<MIGarageLayer::onCustomSpecialSelect(CCMenuItemSpriteExtra*)::{lambda(CCMenuItemToggler*)#2}, std::__ndk1::allocator<MIGarageLayer::onCustomSpecialSelect(CCMenuItemSpriteExtra*)::{lambda(CCMenuItemToggler*)#2}>, void (CCMenuItemToggler*)>::__clone() const
PUBLIC 54f90 0 std::__ndk1::__function::__func<MIGarageLayer::onCustomSpecialSelect(CCMenuItemSpriteExtra*)::{lambda(CCMenuItemToggler*)#2}, std::__ndk1::allocator<MIGarageLayer::onCustomSpecialSelect(CCMenuItemSpriteExtra*)::{lambda(CCMenuItemToggler*)#2}>, void (CCMenuItemToggler*)>::__clone(std::__ndk1::__function::__base<void (CCMenuItemToggler*)>*) const
PUBLIC 54fcc 0 std::__ndk1::__function::__func<MIGarageLayer::onCustomSpecialSelect(CCMenuItemSpriteExtra*)::{lambda(CCMenuItemToggler*)#2}, std::__ndk1::allocator<MIGarageLayer::onCustomSpecialSelect(CCMenuItemSpriteExtra*)::{lambda(CCMenuItemToggler*)#2}>, void (CCMenuItemToggler*)>::destroy()
PUBLIC 54fe0 0 std::__ndk1::__function::__func<MIGarageLayer::onCustomSpecialSelect(CCMenuItemSpriteExtra*)::{lambda(CCMenuItemToggler*)#2}, std::__ndk1::allocator<MIGarageLayer::onCustomSpecialSelect(CCMenuItemSpriteExtra*)::{lambda(CCMenuItemToggler*)#2}>, void (CCMenuItemToggler*)>::destroy_deallocate()
PUBLIC 55014 0 std::__ndk1::__function::__func<MIGarageLayer::onCustomSpecialSelect(CCMenuItemSpriteExtra*)::{lambda(CCMenuItemToggler*)#2}, std::__ndk1::allocator<MIGarageLayer::onCustomSpecialSelect(CCMenuItemSpriteExtra*)::{lambda(CCMenuItemToggler*)#2}>, void (CCMenuItemToggler*)>::operator()(CCMenuItemToggler*&&)
PUBLIC 550a0 0 std::__ndk1::__function::__func<MIGarageLayer::onCustomSpecialSelect(CCMenuItemSpriteExtra*)::{lambda(CCMenuItemToggler*)#2}, std::__ndk1::allocator<MIGarageLayer::onCustomSpecialSelect(CCMenuItemSpriteExtra*)::{lambda(CCMenuItemToggler*)#2}>, void (CCMenuItemToggler*)>::target(std::type_info const&) const
PUBLIC 550bc 0 std::__ndk1::__function::__func<MIGarageLayer::onCustomSpecialSelect(CCMenuItemSpriteExtra*)::{lambda(CCMenuItemToggler*)#2}, std::__ndk1::allocator<MIGarageLayer::onCustomSpecialSelect(CCMenuItemSpriteExtra*)::{lambda(CCMenuItemToggler*)#2}>, void (CCMenuItemToggler*)>::target_type() const
PUBLIC 550c8 0 geode::Mod::getSavedValue<int>(std::__ndk1::basic_string_view<char, std::__ndk1::char_traits<char> >)
PUBLIC 55238 0 std::__ndk1::__hash_table<std::__ndk1::__hash_value_type<std::__ndk1::basic_string<char, std::__ndk1::char_traits<char>, std::__ndk1::allocator<char> >, TexturePack>, std::__ndk1::__unordered_map_hasher<std::__ndk1::basic_string<char, std::__ndk1::char_traits<char>, std::__ndk1::allocator<char> >, std::__ndk1::__hash_value_type<std::__ndk1::basic_string<char, std::__ndk1::char_traits<char>, std::__ndk1::allocator<char> >, TexturePack>, std::__ndk1::hash<std::__ndk1::basic_string<char, std::__ndk1::char_traits<char>, std::__ndk1::allocator<char> > >, std::__ndk1::equal_to<std::__ndk1::basic_string<char, std::__ndk1::char_traits<char>, std::__ndk1::allocator<char> > >, true>, std::__ndk1::__unordered_map_equal<std::__ndk1::basic_string<char, std::__ndk1::char_traits<char>, std::__ndk1::allocator<char> >, std::__ndk1::__hash_value_type<std::__ndk1::basic_string<char, std::__ndk1::char_traits<char>, std::__ndk1::allocator<char> >, TexturePack>, std::__ndk1::equal_to<std::__ndk1::basic_string<char, std::__ndk1::char_traits<char>, std::__ndk1::allocator<char> > >, std::__ndk1::hash<std::__ndk1::basic_string<char, std::__ndk1::char_traits<char>, std::__ndk1::allocator<char> > >, true>, std::__ndk1::allocator<std::__ndk1::__hash_value_type<std::__ndk1::basic_string<char, std::__ndk1::char_traits<char>, std::__ndk1::allocator<char> >, TexturePack> > >::__emplace_unique_key_args<std::__ndk1::basic_string<char, std::__ndk1::char_traits<char>, std::__ndk1::allocator<char> >, std::__ndk1::piecewise_construct_t const&, std::__ndk1::tuple<std::__ndk1::basic_string<char, std::__ndk1::char_traits<char>, std::__ndk1::allocator<char> > const&>, std::__ndk1::tuple<> >(std::__ndk1::basic_string<char, std::__ndk1::char_traits<char>, std::__ndk1::allocator<char> > const&, std::__ndk1::piecewise_construct_t const&, std::__ndk1::tuple<std::__ndk1::basic_string<char, std::__ndk1::char_traits<char>, std::__ndk1::allocator<char> > const&>, std::__ndk1::tuple<>)
PUBLIC 55704 0 std::__ndk1::unique_ptr<std::__ndk1::__hash_node<std::__ndk1::__hash_value_type<std::__ndk1::basic_string<char, std::__ndk1::char_traits<char>, std::__ndk1::allocator<char> >, TexturePack>, void*>, std::__ndk1::__hash_node_destructor<std::__ndk1::allocator<std::__ndk1::__hash_node<std::__ndk1::__hash_value_type<std::__ndk1::basic_string<char, std::__ndk1::char_traits<char>, std::__ndk1::allocator<char> >, TexturePack>, void*> > > >::~unique_ptr[abi:ne190000]()
PUBLIC 55784 0 std::__ndk1::__hash_table<std::__ndk1::__hash_value_type<std::__ndk1::basic_string<char, std::__ndk1::char_traits<char>, std::__ndk1::allocator<char> >, TexturePack>, std::__ndk1::__unordered_map_hasher<std::__ndk1::basic_string<char, std::__ndk1::char_traits<char>, std::__ndk1::allocator<char> >, std::__ndk1::__hash_value_type<std::__ndk1::basic_string<char, std::__ndk1::char_traits<char>, std::__ndk1::allocator<char> >, TexturePack>, std::__ndk1::hash<std::__ndk1::basic_string<char, std::__ndk1::char_traits<char>, std::__ndk1::allocator<char> > >, std::__ndk1::equal_to<std::__ndk1::basic_string<char, std::__ndk1::char_traits<char>, std::__ndk1::allocator<char> > >, true>, std::__ndk1::__unordered_map_equal<std::__ndk1::basic_string<char, std::__ndk1::char_traits<char>, std::__ndk1::allocator<char> >, std::__ndk1::__hash_value_type<std::__ndk1::basic_string<char, std::__ndk1::char_traits<char>, std::__ndk1::allocator<char> >, TexturePack>, std::__ndk1::equal_to<std::__ndk1::basic_string<char, std::__ndk1::char_traits<char>, std::__ndk1::allocator<char> > >, std::__ndk1::hash<std::__ndk1::basic_string<char, std::__ndk1::char_traits<char>, std::__ndk1::allocator<char> > >, true>, std::__ndk1::allocator<std::__ndk1::__hash_value_type<std::__ndk1::basic_string<char, std::__ndk1::char_traits<char>, std::__ndk1::allocator<char> >, TexturePack> > >::__do_rehash<true>(unsigned long)
PUBLIC 55930 0 __cxx_global_var_init
PUBLIC 55da0 0 geode::modifier::ModifyBase<geode::modifier::ModifyDerive<MIRobotSprite, GJRobotSprite> >::~ModifyBase()
PUBLIC 55dbc 0 geode::modifier::ModifyDerive<MIRobotSprite, GJRobotSprite>::apply()
PUBLIC 56130 0 geode::modifier::ModifyBase<geode::modifier::ModifyDerive<MIRobotSprite, GJRobotSprite> >::apply()
PUBLIC 56134 0 geode::modifier::AsStaticFunction_updateFrame<MIRobotSprite, void (MIRobotSprite::*)(int)>::Impl<void (MIRobotSprite::*)(int)>::function(MIRobotSprite*, int)
PUBLIC 561fc 0 __cxx_global_var_init.22
PUBLIC 56aa0 0 geode::modifier::ModifyBase<geode::modifier::ModifyDerive<MILoadingLayer, LoadingLayer> >::~ModifyBase()
PUBLIC 56abc 0 geode::modifier::ModifyDerive<MILoadingLayer, LoadingLayer>::apply()
PUBLIC 56de0 0 geode::modifier::ModifyBase<geode::modifier::ModifyDerive<MILoadingLayer, LoadingLayer> >::apply()
PUBLIC 56de4 0 geode::modifier::ModifyBase<geode::modifier::ModifyDerive<MILoadingLayer, LoadingLayer> >::setHookPriorityAfter(std::__ndk1::basic_string_view<char, std::__ndk1::char_traits<char> >, geode::Mod*)::{lambda(geode::ModStateEvent*)#1}::operator()(geode::ModStateEvent*) const
PUBLIC 56ef4 0 std::__ndk1::__function::__func<geode::modifier::ModifyBase<geode::modifier::ModifyDerive<MILoadingLayer, LoadingLayer> >::setHookPriorityAfter(std::__ndk1::basic_string_view<char, std::__ndk1::char_traits<char> >, geode::Mod*)::{lambda(geode::ModStateEvent*)#1}, std::__ndk1::allocator<geode::modifier::ModifyBase<geode::modifier::ModifyDerive<MILoadingLayer, LoadingLayer> >::setHookPriorityAfter(std::__ndk1::basic_string_view<char, std::__ndk1::char_traits<char> >, geode::Mod*)::{lambda(geode::ModStateEvent*)#1}>, void (geode::ModStateEvent*)>::~__func()
PUBLIC 56ef8 0 std::__ndk1::__function::__func<geode::modifier::ModifyBase<geode::modifier::ModifyDerive<MILoadingLayer, LoadingLayer> >::setHookPriorityAfter(std::__ndk1::basic_string_view<char, std::__ndk1::char_traits<char> >, geode::Mod*)::{lambda(geode::ModStateEvent*)#1}, std::__ndk1::allocator<geode::modifier::ModifyBase<geode::modifier::ModifyDerive<MILoadingLayer, LoadingLayer> >::setHookPriorityAfter(std::__ndk1::basic_string_view<char, std::__ndk1::char_traits<char> >, geode::Mod*)::{lambda(geode::ModStateEvent*)#1}>, void (geode::ModStateEvent*)>::__clone() const
PUBLIC 56f30 0 std::__ndk1::__function::__func<geode::modifier::ModifyBase<geode::modifier::ModifyDerive<MILoadingLayer, LoadingLayer> >::setHookPriorityAfter(std::__ndk1::basic_string_view<char, std::__ndk1::char_traits<char> >, geode::Mod*)::{lambda(geode::ModStateEvent*)#1}, std::__ndk1::allocator<geode::modifier::ModifyBase<geode::modifier::ModifyDerive<MILoadingLayer, LoadingLayer> >::setHookPriorityAfter(std::__ndk1::basic_string_view<char, std::__ndk1::char_traits<char> >, geode::Mod*)::{lambda(geode::ModStateEvent*)#1}>, void (geode::ModStateEvent*)>::__clone(std::__ndk1::__function::__base<void (geode::ModStateEvent*)>*) const
PUBLIC 56f48 0 std::__ndk1::__function::__func<geode::modifier::ModifyBase<geode::modifier::ModifyDerive<MILoadingLayer, LoadingLayer> >::setHookPriorityAfter(std::__ndk1::basic_string_view<char, std::__ndk1::char_traits<char> >, geode::Mod*)::{lambda(geode::ModStateEvent*)#1}, std::__ndk1::allocator<geode::modifier::ModifyBase<geode::modifier::ModifyDerive<MILoadingLayer, LoadingLayer> >::setHookPriorityAfter(std::__ndk1::basic_string_view<char, std::__ndk1::char_traits<char> >, geode::Mod*)::{lambda(geode::ModStateEvent*)#1}>, void (geode::ModStateEvent*)>::destroy()
PUBLIC 56f4c 0 std::__ndk1::__function::__func<geode::modifier::ModifyBase<geode::modifier::ModifyDerive<MILoadingLayer, LoadingLayer> >::setHookPriorityAfter(std::__ndk1::basic_string_view<char, std::__ndk1::char_traits<char> >, geode::Mod*)::{lambda(geode::ModStateEvent*)#1}, std::__ndk1::allocator<geode::modifier::ModifyBase<geode::modifier::ModifyDerive<MILoadingLayer, LoadingLayer> >::setHookPriorityAfter(std::__ndk1::basic_string_view<char, std::__ndk1::char_traits<char> >, geode::Mod*)::{lambda(geode::ModStateEvent*)#1}>, void (geode::ModStateEvent*)>::destroy_deallocate()
PUBLIC 56f50 0 std::__ndk1::__function::__func<geode::modifier::ModifyBase<geode::modifier::ModifyDerive<MILoadingLayer, LoadingLayer> >::setHookPriorityAfter(std::__ndk1::basic_string_view<char, std::__ndk1::char_traits<char> >, geode::Mod*)::{lambda(geode::ModStateEvent*)#1}, std::__ndk1::allocator<geode::modifier::ModifyBase<geode::modifier::ModifyDerive<MILoadingLayer, LoadingLayer> >::setHookPriorityAfter(std::__ndk1::basic_string_view<char, std::__ndk1::char_traits<char> >, geode::Mod*)::{lambda(geode::ModStateEvent*)#1}>, void (geode::ModStateEvent*)>::operator()(geode::ModStateEvent*&&)
PUBLIC 56f58 0 std::__ndk1::__function::__func<geode::modifier::ModifyBase<geode::modifier::ModifyDerive<MILoadingLayer, LoadingLayer> >::setHookPriorityAfter(std::__ndk1::basic_string_view<char, std::__ndk1::char_traits<char> >, geode::Mod*)::{lambda(geode::ModStateEvent*)#1}, std::__ndk1::allocator<geode::modifier::ModifyBase<geode::modifier::ModifyDerive<MILoadingLayer, LoadingLayer> >::setHookPriorityAfter(std::__ndk1::basic_string_view<char, std::__ndk1::char_traits<char> >, geode::Mod*)::{lambda(geode::ModStateEvent*)#1}>, void (geode::ModStateEvent*)>::target(std::type_info const&) const
PUBLIC 56f74 0 std::__ndk1::__function::__func<geode::modifier::ModifyBase<geode::modifier::ModifyDerive<MILoadingLayer, LoadingLayer> >::setHookPriorityAfter(std::__ndk1::basic_string_view<char, std::__ndk1::char_traits<char> >, geode::Mod*)::{lambda(geode::ModStateEvent*)#1}, std::__ndk1::allocator<geode::modifier::ModifyBase<geode::modifier::ModifyDerive<MILoadingLayer, LoadingLayer> >::setHookPriorityAfter(std::__ndk1::basic_string_view<char, std::__ndk1::char_traits<char> >, geode::Mod*)::{lambda(geode::ModStateEvent*)#1}>, void (geode::ModStateEvent*)>::target_type() const
PUBLIC 56f80 0 geode::modifier::AsStaticFunction_loadAssets<MILoadingLayer, void (MILoadingLayer::*)()>::Impl<void (MILoadingLayer::*)()>::function(MILoadingLayer*)
PUBLIC 56f84 0 MILoadingLayer::loadAssets()
PUBLIC 573cc 0 geode::modifier::FieldIntermediate<MILoadingLayer, LoadingLayer>::self()
PUBLIC 5755c 0 geode::modifier::FieldIntermediate<MILoadingLayer, LoadingLayer>::fieldDestructor(void*)
PUBLIC 57620 0 std::__ndk1::__function::__base<void ()>::~__base()
PUBLIC 57624 0 std::__ndk1::__function::__func<MILoadingLayer::loadAssets()::{lambda()#1}, std::__ndk1::allocator<MILoadingLayer::loadAssets()::{lambda()#1}>, void ()>::~__func()
PUBLIC 57628 0 std::__ndk1::__function::__func<MILoadingLayer::loadAssets()::{lambda()#1}, std::__ndk1::allocator<MILoadingLayer::loadAssets()::{lambda()#1}>, void ()>::__clone() const
PUBLIC 5765c 0 std::__ndk1::__function::__func<MILoadingLayer::loadAssets()::{lambda()#1}, std::__ndk1::allocator<MILoadingLayer::loadAssets()::{lambda()#1}>, void ()>::__clone(std::__ndk1::__function::__base<void ()>*) const
PUBLIC 57670 0 std::__ndk1::__function::__func<MILoadingLayer::loadAssets()::{lambda()#1}, std::__ndk1::allocator<MILoadingLayer::loadAssets()::{lambda()#1}>, void ()>::destroy()
PUBLIC 57674 0 std::__ndk1::__function::__func<MILoadingLayer::loadAssets()::{lambda()#1}, std::__ndk1::allocator<MILoadingLayer::loadAssets()::{lambda()#1}>, void ()>::destroy_deallocate()
PUBLIC 57678 0 std::__ndk1::__function::__func<MILoadingLayer::loadAssets()::{lambda()#1}, std::__ndk1::allocator<MILoadingLayer::loadAssets()::{lambda()#1}>, void ()>::operator()()
PUBLIC 57680 0 std::__ndk1::__function::__func<MILoadingLayer::loadAssets()::{lambda()#1}, std::__ndk1::allocator<MILoadingLayer::loadAssets()::{lambda()#1}>, void ()>::target(std::type_info const&) const
PUBLIC 5769c 0 std::__ndk1::__function::__func<MILoadingLayer::loadAssets()::{lambda()#1}, std::__ndk1::allocator<MILoadingLayer::loadAssets()::{lambda()#1}>, void ()>::target_type() const
PUBLIC 576a8 0 __cxx_global_var_init.10
PUBLIC 57b18 0 geode::modifier::ModifyBase<geode::modifier::ModifyDerive<MIMenuGameLayer, MenuGameLayer> >::~ModifyBase()
PUBLIC 57b34 0 geode::modifier::ModifyDerive<MIMenuGameLayer, MenuGameLayer>::apply()
PUBLIC 57e60 0 geode::modifier::ModifyBase<geode::modifier::ModifyDerive<MIMenuGameLayer, MenuGameLayer> >::apply()
PUBLIC 57e64 0 geode::modifier::AsStaticFunction_resetPlayer<MIMenuGameLayer, void (MIMenuGameLayer::*)()>::Impl<void (MIMenuGameLayer::*)()>::function(MIMenuGameLayer*)
PUBLIC 5810c 0 __cxx_global_var_init.10
PUBLIC 589b4 0 geode::modifier::ModifyBase<geode::modifier::ModifyDerive<MIMenuLayer, MenuLayer> >::~ModifyBase()
PUBLIC 589d0 0 geode::modifier::ModifyDerive<MIMenuLayer, MenuLayer>::apply()
PUBLIC 58cc4 0 geode::modifier::ModifyBase<geode::modifier::ModifyDerive<MIMenuLayer, MenuLayer> >::apply()
PUBLIC 58cc8 0 MIMenuLayer::onModify(geode::modifier::ModifyBase<geode::modifier::ModifyDerive<MIMenuLayer, MenuLayer> >&)::{lambda(geode::ModStateEvent*)#1}::operator()(geode::ModStateEvent*) const
PUBLIC 58fb4 0 geode::impl::ResultData<void, std::__ndk1::basic_string<char, std::__ndk1::char_traits<char>, std::__ndk1::allocator<char> > >::~ResultData()
PUBLIC 59028 0 std::__ndk1::__function::__func<MIMenuLayer::onModify(geode::modifier::ModifyBase<geode::modifier::ModifyDerive<MIMenuLayer, MenuLayer> >&)::{lambda(geode::ModStateEvent*)#1}, std::__ndk1::allocator<MIMenuLayer::onModify(geode::modifier::ModifyBase<geode::modifier::ModifyDerive<MIMenuLayer, MenuLayer> >&)::{lambda(geode::ModStateEvent*)#1}>, void (geode::ModStateEvent*)>::~__func()
PUBLIC 5902c 0 std::__ndk1::__function::__func<MIMenuLayer::onModify(geode::modifier::ModifyBase<geode::modifier::ModifyDerive<MIMenuLayer, MenuLayer> >&)::{lambda(geode::ModStateEvent*)#1}, std::__ndk1::allocator<MIMenuLayer::onModify(geode::modifier::ModifyBase<geode::modifier::ModifyDerive<MIMenuLayer, MenuLayer> >&)::{lambda(geode::ModStateEvent*)#1}>, void (geode::ModStateEvent*)>::__clone() const
PUBLIC 59064 0 std::__ndk1::__function::__func<MIMenuLayer::onModify(geode::modifier::ModifyBase<geode::modifier::ModifyDerive<MIMenuLayer, MenuLayer> >&)::{lambda(geode::ModStateEvent*)#1}, std::__ndk1::allocator<MIMenuLayer::onModify(geode::modifier::ModifyBase<geode::modifier::ModifyDerive<MIMenuLayer, MenuLayer> >&)::{lambda(geode::ModStateEvent*)#1}>, void (geode::ModStateEvent*)>::__clone(std::__ndk1::__function::__base<void (geode::ModStateEvent*)>*) const
PUBLIC 5907c 0 std::__ndk1::__function::__func<MIMenuLayer::onModify(geode::modifier::ModifyBase<geode::modifier::ModifyDerive<MIMenuLayer, MenuLayer> >&)::{lambda(geode::ModStateEvent*)#1}, std::__ndk1::allocator<MIMenuLayer::onModify(geode::modifier::ModifyBase<geode::modifier::ModifyDerive<MIMenuLayer, MenuLayer> >&)::{lambda(geode::ModStateEvent*)#1}>, void (geode::ModStateEvent*)>::destroy()
PUBLIC 59080 0 std::__ndk1::__function::__func<MIMenuLayer::onModify(geode::modifier::ModifyBase<geode::modifier::ModifyDerive<MIMenuLayer, MenuLayer> >&)::{lambda(geode::ModStateEvent*)#1}, std::__ndk1::allocator<MIMenuLayer::onModify(geode::modifier::ModifyBase<geode::modifier::ModifyDerive<MIMenuLayer, MenuLayer> >&)::{lambda(geode::ModStateEvent*)#1}>, void (geode::ModStateEvent*)>::destroy_deallocate()
PUBLIC 59084 0 std::__ndk1::__function::__func<MIMenuLayer::onModify(geode::modifier::ModifyBase<geode::modifier::ModifyDerive<MIMenuLayer, MenuLayer> >&)::{lambda(geode::ModStateEvent*)#1}, std::__ndk1::allocator<MIMenuLayer::onModify(geode::modifier::ModifyBase<geode::modifier::ModifyDerive<MIMenuLayer, MenuLayer> >&)::{lambda(geode::ModStateEvent*)#1}>, void (geode::ModStateEvent*)>::operator()(geode::ModStateEvent*&&)
PUBLIC 5908c 0 std::__ndk1::__function::__func<MIMenuLayer::onModify(geode::modifier::ModifyBase<geode::modifier::ModifyDerive<MIMenuLayer, MenuLayer> >&)::{lambda(geode::ModStateEvent*)#1}, std::__ndk1::allocator<MIMenuLayer::onModify(geode::modifier::ModifyBase<geode::modifier::ModifyDerive<MIMenuLayer, MenuLayer> >&)::{lambda(geode::ModStateEvent*)#1}>, void (geode::ModStateEvent*)>::target(std::type_info const&) const
PUBLIC 590a8 0 std::__ndk1::__function::__func<MIMenuLayer::onModify(geode::modifier::ModifyBase<geode::modifier::ModifyDerive<MIMenuLayer, MenuLayer> >&)::{lambda(geode::ModStateEvent*)#1}, std::__ndk1::allocator<MIMenuLayer::onModify(geode::modifier::ModifyBase<geode::modifier::ModifyDerive<MIMenuLayer, MenuLayer> >&)::{lambda(geode::ModStateEvent*)#1}>, void (geode::ModStateEvent*)>::target_type() const
PUBLIC 590b4 0 geode::modifier::AsStaticFunction_init<MIMenuLayer, bool (MIMenuLayer::*)()>::Impl<bool (MIMenuLayer::*)()>::function(MIMenuLayer*)
PUBLIC 591d4 0 geode::addresser::Addresser::addressOfVirtual<bool, MenuLayer, >(bool (MenuLayer::*)())
PUBLIC 5927c 0 MenuLayer::MenuLayer(geode::ZeroConstructorType)
PUBLIC 59318 0 __cxx_global_var_init.22
PUBLIC 59bd0 0 geode::modifier::ModifyBase<geode::modifier::ModifyDerive<MIPlayerObject, PlayerObject> >::~ModifyBase()
PUBLIC 59bec 0 geode::modifier::ModifyDerive<MIPlayerObject, PlayerObject>::apply()
PUBLIC 5b430 0 geode::modifier::ModifyBase<geode::modifier::ModifyDerive<MIPlayerObject, PlayerObject> >::apply()
PUBLIC 5b434 0 geode::modifier::ModifyBase<geode::modifier::ModifyDerive<MIPlayerObject, PlayerObject> >::setHookPriorityBefore(std::__ndk1::basic_string_view<char, std::__ndk1::char_traits<char> >, geode::Mod*)::{lambda(geode::ModStateEvent*)#1}::operator()(geode::ModStateEvent*) const
PUBLIC 5b544 0 std::__ndk1::__function::__func<geode::modifier::ModifyBase<geode::modifier::ModifyDerive<MIPlayerObject, PlayerObject> >::setHookPriorityBefore(std::__ndk1::basic_string_view<char, std::__ndk1::char_traits<char> >, geode::Mod*)::{lambda(geode::ModStateEvent*)#1}, std::__ndk1::allocator<geode::modifier::ModifyBase<geode::modifier::ModifyDerive<MIPlayerObject, PlayerObject> >::setHookPriorityBefore(std::__ndk1::basic_string_view<char, std::__ndk1::char_traits<char> >, geode::Mod*)::{lambda(geode::ModStateEvent*)#1}>, void (geode::ModStateEvent*)>::~__func()
PUBLIC 5b548 0 std::__ndk1::__function::__func<geode::modifier::ModifyBase<geode::modifier::ModifyDerive<MIPlayerObject, PlayerObject> >::setHookPriorityBefore(std::__ndk1::basic_string_view<char, std::__ndk1::char_traits<char> >, geode::Mod*)::{lambda(geode::ModStateEvent*)#1}, std::__ndk1::allocator<geode::modifier::ModifyBase<geode::modifier::ModifyDerive<MIPlayerObject, PlayerObject> >::setHookPriorityBefore(std::__ndk1::basic_string_view<char, std::__ndk1::char_traits<char> >, geode::Mod*)::{lambda(geode::ModStateEvent*)#1}>, void (geode::ModStateEvent*)>::__clone() const
PUBLIC 5b580 0 std::__ndk1::__function::__func<geode::modifier::ModifyBase<geode::modifier::ModifyDerive<MIPlayerObject, PlayerObject> >::setHookPriorityBefore(std::__ndk1::basic_string_view<char, std::__ndk1::char_traits<char> >, geode::Mod*)::{lambda(geode::ModStateEvent*)#1}, std::__ndk1::allocator<geode::modifier::ModifyBase<geode::modifier::ModifyDerive<MIPlayerObject, PlayerObject> >::setHookPriorityBefore(std::__ndk1::basic_string_view<char, std::__ndk1::char_traits<char> >, geode::Mod*)::{lambda(geode::ModStateEvent*)#1}>, void (geode::ModStateEvent*)>::__clone(std::__ndk1::__function::__base<void (geode::ModStateEvent*)>*) const
PUBLIC 5b598 0 std::__ndk1::__function::__func<geode::modifier::ModifyBase<geode::modifier::ModifyDerive<MIPlayerObject, PlayerObject> >::setHookPriorityBefore(std::__ndk1::basic_string_view<char, std::__ndk1::char_traits<char> >, geode::Mod*)::{lambda(geode::ModStateEvent*)#1}, std::__ndk1::allocator<geode::modifier::ModifyBase<geode::modifier::ModifyDerive<MIPlayerObject, PlayerObject> >::setHookPriorityBefore(std::__ndk1::basic_string_view<char, std::__ndk1::char_traits<char> >, geode::Mod*)::{lambda(geode::ModStateEvent*)#1}>, void (geode::ModStateEvent*)>::destroy()
PUBLIC 5b59c 0 std::__ndk1::__function::__func<geode::modifier::ModifyBase<geode::modifier::ModifyDerive<MIPlayerObject, PlayerObject> >::setHookPriorityBefore(std::__ndk1::basic_string_view<char, std::__ndk1::char_traits<char> >, geode::Mod*)::{lambda(geode::ModStateEvent*)#1}, std::__ndk1::allocator<geode::modifier::ModifyBase<geode::modifier::ModifyDerive<MIPlayerObject, PlayerObject> >::setHookPriorityBefore(std::__ndk1::basic_string_view<char, std::__ndk1::char_traits<char> >, geode::Mod*)::{lambda(geode::ModStateEvent*)#1}>, void (geode::ModStateEvent*)>::destroy_deallocate()
PUBLIC 5b5a0 0 std::__ndk1::__function::__func<geode::modifier::ModifyBase<geode::modifier::ModifyDerive<MIPlayerObject, PlayerObject> >::setHookPriorityBefore(std::__ndk1::basic_string_view<char, std::__ndk1::char_traits<char> >, geode::Mod*)::{lambda(geode::ModStateEvent*)#1}, std::__ndk1::allocator<geode::modifier::ModifyBase<geode::modifier::ModifyDerive<MIPlayerObject, PlayerObject> >::setHookPriorityBefore(std::__ndk1::basic_string_view<char, std::__ndk1::char_traits<char> >, geode::Mod*)::{lambda(geode::ModStateEvent*)#1}>, void (geode::ModStateEvent*)>::operator()(geode::ModStateEvent*&&)
PUBLIC 5b5a8 0 std::__ndk1::__function::__func<geode::modifier::ModifyBase<geode::modifier::ModifyDerive<MIPlayerObject, PlayerObject> >::setHookPriorityBefore(std::__ndk1::basic_string_view<char, std::__ndk1::char_traits<char> >, geode::Mod*)::{lambda(geode::ModStateEvent*)#1}, std::__ndk1::allocator<geode::modifier::ModifyBase<geode::modifier::ModifyDerive<MIPlayerObject, PlayerObject> >::setHookPriorityBefore(std::__ndk1::basic_string_view<char, std::__ndk1::char_traits<char> >, geode::Mod*)::{lambda(geode::ModStateEvent*)#1}>, void (geode::ModStateEvent*)>::target(std::type_info const&) const
PUBLIC 5b5c4 0 std::__ndk1::__function::__func<geode::modifier::ModifyBase<geode::modifier::ModifyDerive<MIPlayerObject, PlayerObject> >::setHookPriorityBefore(std::__ndk1::basic_string_view<char, std::__ndk1::char_traits<char> >, geode::Mod*)::{lambda(geode::ModStateEvent*)#1}, std::__ndk1::allocator<geode::modifier::ModifyBase<geode::modifier::ModifyDerive<MIPlayerObject, PlayerObject> >::setHookPriorityBefore(std::__ndk1::basic_string_view<char, std::__ndk1::char_traits<char> >, geode::Mod*)::{lambda(geode::ModStateEvent*)#1}>, void (geode::ModStateEvent*)>::target_type() const
PUBLIC 5b5d0 0 geode::Hook::create<void (*)(MIPlayerObject*, int)>(void*, void (*)(MIPlayerObject*, int), std::__ndk1::basic_string<char, std::__ndk1::char_traits<char>, std::__ndk1::allocator<char> > const&, tulip::hook::TulipConvention, tulip::hook::HookMetadata const&)
PUBLIC 5b754 0 geode::modifier::AsStaticFunction_createRobot<MIPlayerObject, void (MIPlayerObject::*)(int)>::Impl<void (MIPlayerObject::*)(int)>::function(MIPlayerObject*, int)
PUBLIC 5b77c 0 geode::modifier::AsStaticFunction_createSpider<MIPlayerObject, void (MIPlayerObject::*)(int)>::Impl<void (MIPlayerObject::*)(int)>::function(MIPlayerObject*, int)
PUBLIC 5b7a4 0 geode::modifier::AsStaticFunction_init<MIPlayerObject, bool (MIPlayerObject::*)(int, int, GJBaseGameLayer*, cocos2d::CCLayer*, bool)>::Impl<bool (MIPlayerObject::*)(int, int, GJBaseGameLayer*, cocos2d::CCLayer*, bool)>::function(MIPlayerObject*, int, int, GJBaseGameLayer*, cocos2d::CCLayer*, bool)
PUBLIC 5b7e8 0 geode::modifier::AsStaticFunction_setupStreak<MIPlayerObject, void (MIPlayerObject::*)()>::Impl<void (MIPlayerObject::*)()>::function(MIPlayerObject*)
PUBLIC 5bcdc 0 geode::modifier::AsStaticFunction_updatePlayerBirdFrame<MIPlayerObject, void (MIPlayerObject::*)(int)>::Impl<void (MIPlayerObject::*)(int)>::function(MIPlayerObject*, int)
PUBLIC 5bd04 0 geode::modifier::AsStaticFunction_updatePlayerDartFrame<MIPlayerObject, void (MIPlayerObject::*)(int)>::Impl<void (MIPlayerObject::*)(int)>::function(MIPlayerObject*, int)
PUBLIC 5bd2c 0 geode::modifier::AsStaticFunction_updatePlayerFrame<MIPlayerObject, void (MIPlayerObject::*)(int)>::Impl<void (MIPlayerObject::*)(int)>::function(MIPlayerObject*, int)
PUBLIC 5be30 0 geode::modifier::AsStaticFunction_updatePlayerJetpackFrame<MIPlayerObject, void (MIPlayerObject::*)(int)>::Impl<void (MIPlayerObject::*)(int)>::function(MIPlayerObject*, int)
PUBLIC 5be58 0 geode::modifier::AsStaticFunction_updatePlayerRollFrame<MIPlayerObject, void (MIPlayerObject::*)(int)>::Impl<void (MIPlayerObject::*)(int)>::function(MIPlayerObject*, int)
PUBLIC 5bf5c 0 geode::modifier::AsStaticFunction_updatePlayerShipFrame<MIPlayerObject, void (MIPlayerObject::*)(int)>::Impl<void (MIPlayerObject::*)(int)>::function(MIPlayerObject*, int)
PUBLIC 5bf84 0 geode::modifier::AsStaticFunction_updatePlayerSwingFrame<MIPlayerObject, void (MIPlayerObject::*)(int)>::Impl<void (MIPlayerObject::*)(int)>::function(MIPlayerObject*, int)
PUBLIC 5bfac 0 MIPlayerObject::updateIcon(IconType)
PUBLIC 5c0e0 0 MIPlayerObject::resetTrail()
PUBLIC 5c36c 0 __cxx_global_var_init.10
PUBLIC 5cc20 0 geode::modifier::ModifyBase<geode::modifier::ModifyDerive<MIProfilePage, ProfilePage> >::~ModifyBase()
PUBLIC 5cc3c 0 geode::modifier::ModifyDerive<MIProfilePage, ProfilePage>::apply()
PUBLIC 5d268 0 geode::modifier::ModifyBase<geode::modifier::ModifyDerive<MIProfilePage, ProfilePage> >::apply()
PUBLIC 5d26c 0 geode::modifier::ModifyBase<geode::modifier::ModifyDerive<MIProfilePage, ProfilePage> >::setHookPriorityBefore(std::__ndk1::basic_string_view<char, std::__ndk1::char_traits<char> >, geode::Mod*)::{lambda(geode::ModStateEvent*)#1}::operator()(geode::ModStateEvent*) const
PUBLIC 5d37c 0 std::__ndk1::__function::__func<geode::modifier::ModifyBase<geode::modifier::ModifyDerive<MIProfilePage, ProfilePage> >::setHookPriorityBefore(std::__ndk1::basic_string_view<char, std::__ndk1::char_traits<char> >, geode::Mod*)::{lambda(geode::ModStateEvent*)#1}, std::__ndk1::allocator<geode::modifier::ModifyBase<geode::modifier::ModifyDerive<MIProfilePage, ProfilePage> >::setHookPriorityBefore(std::__ndk1::basic_string_view<char, std::__ndk1::char_traits<char> >, geode::Mod*)::{lambda(geode::ModStateEvent*)#1}>, void (geode::ModStateEvent*)>::~__func()
PUBLIC 5d380 0 std::__ndk1::__function::__func<geode::modifier::ModifyBase<geode::modifier::ModifyDerive<MIProfilePage, ProfilePage> >::setHookPriorityBefore(std::__ndk1::basic_string_view<char, std::__ndk1::char_traits<char> >, geode::Mod*)::{lambda(geode::ModStateEvent*)#1}, std::__ndk1::allocator<geode::modifier::ModifyBase<geode::modifier::ModifyDerive<MIProfilePage, ProfilePage> >::setHookPriorityBefore(std::__ndk1::basic_string_view<char, std::__ndk1::char_traits<char> >, geode::Mod*)::{lambda(geode::ModStateEvent*)#1}>, void (geode::ModStateEvent*)>::__clone() const
PUBLIC 5d3b8 0 std::__ndk1::__function::__func<geode::modifier::ModifyBase<geode::modifier::ModifyDerive<MIProfilePage, ProfilePage> >::setHookPriorityBefore(std::__ndk1::basic_string_view<char, std::__ndk1::char_traits<char> >, geode::Mod*)::{lambda(geode::ModStateEvent*)#1}, std::__ndk1::allocator<geode::modifier::ModifyBase<geode::modifier::ModifyDerive<MIProfilePage, ProfilePage> >::setHookPriorityBefore(std::__ndk1::basic_string_view<char, std::__ndk1::char_traits<char> >, geode::Mod*)::{lambda(geode::ModStateEvent*)#1}>, void (geode::ModStateEvent*)>::__clone(std::__ndk1::__function::__base<void (geode::ModStateEvent*)>*) const
PUBLIC 5d3d0 0 std::__ndk1::__function::__func<geode::modifier::ModifyBase<geode::modifier::ModifyDerive<MIProfilePage, ProfilePage> >::setHookPriorityBefore(std::__ndk1::basic_string_view<char, std::__ndk1::char_traits<char> >, geode::Mod*)::{lambda(geode::ModStateEvent*)#1}, std::__ndk1::allocator<geode::modifier::ModifyBase<geode::modifier::ModifyDerive<MIProfilePage, ProfilePage> >::setHookPriorityBefore(std::__ndk1::basic_string_view<char, std::__ndk1::char_traits<char> >, geode::Mod*)::{lambda(geode::ModStateEvent*)#1}>, void (geode::ModStateEvent*)>::destroy()
PUBLIC 5d3d4 0 std::__ndk1::__function::__func<geode::modifier::ModifyBase<geode::modifier::ModifyDerive<MIProfilePage, ProfilePage> >::setHookPriorityBefore(std::__ndk1::basic_string_view<char, std::__ndk1::char_traits<char> >, geode::Mod*)::{lambda(geode::ModStateEvent*)#1}, std::__ndk1::allocator<geode::modifier::ModifyBase<geode::modifier::ModifyDerive<MIProfilePage, ProfilePage> >::setHookPriorityBefore(std::__ndk1::basic_string_view<char, std::__ndk1::char_traits<char> >, geode::Mod*)::{lambda(geode::ModStateEvent*)#1}>, void (geode::ModStateEvent*)>::destroy_deallocate()
PUBLIC 5d3d8 0 std::__ndk1::__function::__func<geode::modifier::ModifyBase<geode::modifier::ModifyDerive<MIProfilePage, ProfilePage> >::setHookPriorityBefore(std::__ndk1::basic_string_view<char, std::__ndk1::char_traits<char> >, geode::Mod*)::{lambda(geode::ModStateEvent*)#1}, std::__ndk1::allocator<geode::modifier::ModifyBase<geode::modifier::ModifyDerive<MIProfilePage, ProfilePage> >::setHookPriorityBefore(std::__ndk1::basic_string_view<char, std::__ndk1::char_traits<char> >, geode::Mod*)::{lambda(geode::ModStateEvent*)#1}>, void (geode::ModStateEvent*)>::operator()(geode::ModStateEvent*&&)
PUBLIC 5d3e0 0 std::__ndk1::__function::__func<geode::modifier::ModifyBase<geode::modifier::ModifyDerive<MIProfilePage, ProfilePage> >::setHookPriorityBefore(std::__ndk1::basic_string_view<char, std::__ndk1::char_traits<char> >, geode::Mod*)::{lambda(geode::ModStateEvent*)#1}, std::__ndk1::allocator<geode::modifier::ModifyBase<geode::modifier::ModifyDerive<MIProfilePage, ProfilePage> >::setHookPriorityBefore(std::__ndk1::basic_string_view<char, std::__ndk1::char_traits<char> >, geode::Mod*)::{lambda(geode::ModStateEvent*)#1}>, void (geode::ModStateEvent*)>::target(std::type_info const&) const
PUBLIC 5d3fc 0 std::__ndk1::__function::__func<geode::modifier::ModifyBase<geode::modifier::ModifyDerive<MIProfilePage, ProfilePage> >::setHookPriorityBefore(std::__ndk1::basic_string_view<char, std::__ndk1::char_traits<char> >, geode::Mod*)::{lambda(geode::ModStateEvent*)#1}, std::__ndk1::allocator<geode::modifier::ModifyBase<geode::modifier::ModifyDerive<MIProfilePage, ProfilePage> >::setHookPriorityBefore(std::__ndk1::basic_string_view<char, std::__ndk1::char_traits<char> >, geode::Mod*)::{lambda(geode::ModStateEvent*)#1}>, void (geode::ModStateEvent*)>::target_type() const
PUBLIC 5d408 0 geode::modifier::AsStaticFunction_loadPageFromUserInfo<MIProfilePage, void (MIProfilePage::*)(GJUserScore*)>::Impl<void (MIProfilePage::*)(GJUserScore*)>::function(MIProfilePage*, GJUserScore*)
PUBLIC 5d534 0 geode::modifier::AsStaticFunction_toggleShip<MIProfilePage, void (MIProfilePage::*)(cocos2d::CCObject*)>::Impl<void (MIProfilePage::*)(cocos2d::CCObject*)>::function(MIProfilePage*, cocos2d::CCObject*)
PUBLIC 5d714 0 MIProfilePage::changePlayers()
PUBLIC 5dd44 0 MIProfilePage::newOn2PToggle(cocos2d::CCObject*)
PUBLIC 5de40 0 std::__ndk1::__function::__func<MIProfilePage::findPlayer(cocos2d::CCNode*)::{lambda(auto:1)#1}, std::__ndk1::allocator<MIProfilePage::findPlayer(cocos2d::CCNode*)::{lambda(auto:1)#1}>, bool (SimplePlayer*)>::~__func()
PUBLIC 5de44 0 std::__ndk1::__function::__func<MIProfilePage::findPlayer(cocos2d::CCNode*)::{lambda(auto:1)#1}, std::__ndk1::allocator<MIProfilePage::findPlayer(cocos2d::CCNode*)::{lambda(auto:1)#1}>, bool (SimplePlayer*)>::__clone() const
PUBLIC 5de68 0 std::__ndk1::__function::__func<MIProfilePage::findPlayer(cocos2d::CCNode*)::{lambda(auto:1)#1}, std::__ndk1::allocator<MIProfilePage::findPlayer(cocos2d::CCNode*)::{lambda(auto:1)#1}>, bool (SimplePlayer*)>::__clone(std::__ndk1::__function::__base<bool (SimplePlayer*)>*) const
PUBLIC 5de78 0 std::__ndk1::__function::__func<MIProfilePage::findPlayer(cocos2d::CCNode*)::{lambda(auto:1)#1}, std::__ndk1::allocator<MIProfilePage::findPlayer(cocos2d::CCNode*)::{lambda(auto:1)#1}>, bool (SimplePlayer*)>::destroy()
PUBLIC 5de7c 0 std::__ndk1::__function::__func<MIProfilePage::findPlayer(cocos2d::CCNode*)::{lambda(auto:1)#1}, std::__ndk1::allocator<MIProfilePage::findPlayer(cocos2d::CCNode*)::{lambda(auto:1)#1}>, bool (SimplePlayer*)>::destroy_deallocate()
PUBLIC 5de80 0 std::__ndk1::__function::__func<MIProfilePage::findPlayer(cocos2d::CCNode*)::{lambda(auto:1)#1}, std::__ndk1::allocator<MIProfilePage::findPlayer(cocos2d::CCNode*)::{lambda(auto:1)#1}>, bool (SimplePlayer*)>::operator()(SimplePlayer*&&)
PUBLIC 5de88 0 std::__ndk1::__function::__func<MIProfilePage::findPlayer(cocos2d::CCNode*)::{lambda(auto:1)#1}, std::__ndk1::allocator<MIProfilePage::findPlayer(cocos2d::CCNode*)::{lambda(auto:1)#1}>, bool (SimplePlayer*)>::target(std::type_info const&) const
PUBLIC 5dea4 0 std::__ndk1::__function::__func<MIProfilePage::findPlayer(cocos2d::CCNode*)::{lambda(auto:1)#1}, std::__ndk1::allocator<MIProfilePage::findPlayer(cocos2d::CCNode*)::{lambda(auto:1)#1}>, bool (SimplePlayer*)>::target_type() const
PUBLIC 5deb0 0 __cxx_global_var_init
PUBLIC 5e320 0 geode::modifier::ModifyBase<geode::modifier::ModifyDerive<MISimplePlayer, SimplePlayer> >::~ModifyBase()
PUBLIC 5e33c 0 geode::modifier::ModifyDerive<MISimplePlayer, SimplePlayer>::apply()
PUBLIC 5e6f8 0 geode::modifier::ModifyBase<geode::modifier::ModifyDerive<MISimplePlayer, SimplePlayer> >::apply()
PUBLIC 5e6fc 0 geode::modifier::AsStaticFunction_updatePlayerFrame<MISimplePlayer, void (MISimplePlayer::*)(int, IconType)>::Impl<void (MISimplePlayer::*)(int, IconType)>::function(MISimplePlayer*, int, IconType)
PUBLIC 5e7c4 0 geodeExecFunction12<(anonymous namespace)::ExecFuncUnique12>(geode::ModStateEvent*)
PUBLIC 5e844 0 geodeExecFunction17<(anonymous namespace)::ExecFuncUnique17>(geode::ModStateEvent*)
PUBLIC 5e848 0 std::__ndk1::vector<ImageData, std::__ndk1::allocator<ImageData> >::~vector[abi:ne190000]()
PUBLIC 5e8b0 0 MoreIcons::getTexturePacks()
PUBLIC 5f328 0 IconPack::~IconPack()
PUBLIC 5f38c 0 std::__ndk1::vector<geode::texture_loader::Pack, std::__ndk1::allocator<geode::texture_loader::Pack> >::~vector[abi:ne190000]()
PUBLIC 5f3f4 0 std::__ndk1::vector<IconPack, std::__ndk1::allocator<IconPack> >::~vector[abi:ne190000]()
PUBLIC 5f4b8 0 MoreIcons::unzipVanillaAssets()
PUBLIC 6001c 0 MoreIcons::vanillaTexturePath(std::__ndk1::basic_string<char, std::__ndk1::char_traits<char>, std::__ndk1::allocator<char> > const&, bool)
PUBLIC 60584 0 naturalSorter(std::__ndk1::basic_string<char, std::__ndk1::char_traits<char>, std::__ndk1::allocator<char> > const&, std::__ndk1::basic_string<char, std::__ndk1::char_traits<char>, std::__ndk1::allocator<char> > const&)
PUBLIC 60d88 0 naturalSort(std::__ndk1::vector<std::__ndk1::basic_string<char, std::__ndk1::char_traits<char>, std::__ndk1::allocator<char> >, std::__ndk1::allocator<std::__ndk1::basic_string<char, std::__ndk1::char_traits<char>, std::__ndk1::allocator<char> > > >&)
PUBLIC 61e10 0 getFrameName(std::__ndk1::basic_string<char, std::__ndk1::char_traits<char>, std::__ndk1::allocator<char> > const&, std::__ndk1::basic_string<char, std::__ndk1::char_traits<char>, std::__ndk1::allocator<char> > const&, IconType)
PUBLIC 625cc 0 replaceEnd(std::__ndk1::basic_string<char, std::__ndk1::char_traits<char>, std::__ndk1::allocator<char> > const&, unsigned long, std::__ndk1::basic_string_view<char, std::__ndk1::char_traits<char> >)
PUBLIC 62754 0 BS::thread_pool<(unsigned char)0>::~thread_pool()
PUBLIC 62920 0 IconPack::IconPack(IconPack const&)
PUBLIC 62a34 0 loadFolderIcon(std::__ndk1::__fs::filesystem::path const&, IconPack const&, IconType)::$_0::~$_0()
PUBLIC 62ab0 0 loadFileIcon(std::__ndk1::__fs::filesystem::path const&, IconPack const&, IconType)::$_0::~$_0()
PUBLIC 62b2c 0 loadVanillaIcon(std::__ndk1::__fs::filesystem::path const&, IconPack const&, IconType)::$_0::~$_0()
PUBLIC 62ba8 0 loadTrail(std::__ndk1::__fs::filesystem::path const&, IconPack const&)::$_0::~$_0()
PUBLIC 62c24 0 loadVanillaTrail(std::__ndk1::__fs::filesystem::path const&, IconPack const&)::$_0::~$_0()
PUBLIC 62ca0 0 MoreIcons::loadIcons(std::__ndk1::vector<IconPack, std::__ndk1::allocator<IconPack> > const&, std::__ndk1::basic_string_view<char, std::__ndk1::char_traits<char> >, IconType)
PUBLIC 64e70 0 std::__ndk1::__fs::filesystem::directory_iterator::~directory_iterator[abi:ne190000]()
PUBLIC 64ec0 0 MoreIcons::infoForType(IconType)
PUBLIC 64f64 0 MoreIcons::loadTrails(std::__ndk1::vector<IconPack, std::__ndk1::allocator<IconPack> > const&)
PUBLIC 66c48 0 MoreIcons::saveTrails()
PUBLIC 67108 0 matjson::makeObject(std::initializer_list<std::__ndk1::pair<std::__ndk1::basic_string<char, std::__ndk1::char_traits<char>, std::__ndk1::allocator<char> >, matjson::Value> >)
PUBLIC 673ec 0 std::__ndk1::pair<std::__ndk1::basic_string<char, std::__ndk1::char_traits<char>, std::__ndk1::allocator<char> >, matjson::Value>::~pair()
PUBLIC 67428 0 MoreIcons::showInfoPopup(bool)
PUBLIC 677c8 0 _ZNSt6__ndk112__destroy_atB8ne190000I9ImageDataTnNS_9enable_ifIXntsr8is_arrayIT_EE5valueEiE4typeELi0EEEvPS3_
PUBLIC 6785c 0 ImageData::~ImageData()
PUBLIC 678f0 0 TexturePack::~TexturePack()
PUBLIC 67934 0 std::__ndk1::vector<IconPack, std::__ndk1::allocator<IconPack> >::__push_back_slow_path<IconPack>(IconPack&&)
PUBLIC 67b34 0 std::__ndk1::vector<IconPack, std::__ndk1::allocator<IconPack> >::__throw_length_error[abi:ne190000]() const
PUBLIC 67b48 0 geode::DispatchEvent<std::__ndk1::vector<geode::texture_loader::Pack, std::__ndk1::allocator<geode::texture_loader::Pack> >*>::~DispatchEvent()
PUBLIC 67b88 0 geode::DispatchEvent<std::__ndk1::vector<geode::texture_loader::Pack, std::__ndk1::allocator<geode::texture_loader::Pack> >*>::getPool() const
PUBLIC 67c38 0 geode::DispatchEvent<std::__ndk1::vector<geode::texture_loader::Pack, std::__ndk1::allocator<geode::texture_loader::Pack> >*>::~DispatchEvent()
PUBLIC 67c7c 0 std::__ndk1::__fs::filesystem::path::operator/=[abi:ne190000](std::__ndk1::__fs::filesystem::path const&)
PUBLIC 67d64 0 geode::texture_loader::Pack::~Pack()
PUBLIC 67e3c 0 std::__ndk1::__introsort<std::__ndk1::_RangeAlgPolicy, bool (*&)(std::__ndk1::basic_string<char, std::__ndk1::char_traits<char>, std::__ndk1::allocator<char> > const&, std::__ndk1::basic_string<char, std::__ndk1::char_traits<char>, std::__ndk1::allocator<char> > const&), std::__ndk1::basic_string<char, std::__ndk1::char_traits<char>, std::__ndk1::allocator<char> >*, false>(std::__ndk1::basic_string<char, std::__ndk1::char_traits<char>, std::__ndk1::allocator<char> >*, std::__ndk1::basic_string<char, std::__ndk1::char_traits<char>, std::__ndk1::allocator<char> >*, bool (*&)(std::__ndk1::basic_string<char, std::__ndk1::char_traits<char>, std::__ndk1::allocator<char> > const&, std::__ndk1::basic_string<char, std::__ndk1::char_traits<char>, std::__ndk1::allocator<char> > const&), std::__ndk1::iterator_traits<std::__ndk1::basic_string<char, std::__ndk1::char_traits<char>, std::__ndk1::allocator<char> >*>::difference_type, bool)
PUBLIC 69164 0 std::__ndk1::__insertion_sort_incomplete[abi:ne190000]<std::__ndk1::_RangeAlgPolicy, bool (*&)(std::__ndk1::basic_string<char, std::__ndk1::char_traits<char>, std::__ndk1::allocator<char> > const&, std::__ndk1::basic_string<char, std::__ndk1::char_traits<char>, std::__ndk1::allocator<char> > const), std::__ndk1::allocator<char>*>(std::__ndk1::allocator<char>*, std::__ndk1::allocator<char>*, bool (*&)(std::__ndk1::basic_string<char, std::__ndk1::char_traits<char>, std::__ndk1::allocator<char> > const&, std::__ndk1::basic_string<char, std::__ndk1::char_traits<char>, std::__ndk1::allocator<char> > const))
PUBLIC 696d8 0 std::__ndk1::__sort4[abi:ne190000]<std::__ndk1::_RangeAlgPolicy, bool (*&)(std::__ndk1::basic_string<char, std::__ndk1::char_traits<char>, std::__ndk1::allocator<char> > const&, std::__ndk1::basic_string<char, std::__ndk1::char_traits<char>, std::__ndk1::allocator<char> > const), std::__ndk1::allocator<char>*>(std::__ndk1::allocator<char>*, std::__ndk1::allocator<char>*, std::__ndk1::allocator<char>*, std::__ndk1::allocator<char>*, bool (*&)(std::__ndk1::basic_string<char, std::__ndk1::char_traits<char>, std::__ndk1::allocator<char> > const&, std::__ndk1::basic_string<char, std::__ndk1::char_traits<char>, std::__ndk1::allocator<char> > const))
PUBLIC 698d8 0 std::__ndk1::vector<matjson::Value, std::__ndk1::allocator<matjson::Value> >::~vector[abi:ne190000]()
PUBLIC 69940 0 std::__ndk1::__split_buffer<matjson::Value, std::__ndk1::allocator<matjson::Value>&>::~__split_buffer()
PUBLIC 69994 0 std::__ndk1::vector<matjson::Value, std::__ndk1::allocator<matjson::Value> >::__throw_length_error[abi:ne190000]() const
PUBLIC 699a8 0 _ZNSt6__ndk112basic_stringIcNS_11char_traitsIcEENS_9allocatorIcEEE6appendB8ne190000IPKcTnNS_9enable_ifIXsr31__has_forward_iterator_categoryIT_EE5valueEiE4typeELi0EEERS5_SA_SA_
PUBLIC 69cec 0 std::__ndk1::__function::__func<void (*)(geode::ModStateEvent*), std::__ndk1::allocator<void (*)(geode::ModStateEvent*)>, void (geode::ModStateEvent*)>::~__func()
PUBLIC 69cf0 0 std::__ndk1::__function::__func<void (*)(geode::ModStateEvent*), std::__ndk1::allocator<void (*)(geode::ModStateEvent*)>, void (geode::ModStateEvent*)>::__clone() const
PUBLIC 69d24 0 std::__ndk1::__function::__func<void (*)(geode::ModStateEvent*), std::__ndk1::allocator<void (*)(geode::ModStateEvent*)>, void (geode::ModStateEvent*)>::__clone(std::__ndk1::__function::__base<void (geode::ModStateEvent*)>*) const
PUBLIC 69d38 0 std::__ndk1::__function::__func<void (*)(geode::ModStateEvent*), std::__ndk1::allocator<void (*)(geode::ModStateEvent*)>, void (geode::ModStateEvent*)>::destroy()
PUBLIC 69d3c 0 std::__ndk1::__function::__func<void (*)(geode::ModStateEvent*), std::__ndk1::allocator<void (*)(geode::ModStateEvent*)>, void (geode::ModStateEvent*)>::destroy_deallocate()
PUBLIC 69d40 0 std::__ndk1::__function::__func<void (*)(geode::ModStateEvent*), std::__ndk1::allocator<void (*)(geode::ModStateEvent*)>, void (geode::ModStateEvent*)>::operator()(geode::ModStateEvent*&&)
PUBLIC 69d50 0 std::__ndk1::__function::__func<void (*)(geode::ModStateEvent*), std::__ndk1::allocator<void (*)(geode::ModStateEvent*)>, void (geode::ModStateEvent*)>::target(std::type_info const&) const
PUBLIC 69d6c 0 std::__ndk1::__function::__func<void (*)(geode::ModStateEvent*), std::__ndk1::allocator<void (*)(geode::ModStateEvent*)>, void (geode::ModStateEvent*)>::target_type() const
PUBLIC 69d78 0 std::__ndk1::unique_ptr<std::__ndk1::__tree_node<std::__ndk1::__value_type<std::__ndk1::basic_string<char, std::__ndk1::char_traits<char>, std::__ndk1::allocator<char> >, std::__ndk1::vector<std::__ndk1::basic_string<char, std::__ndk1::char_traits<char>, std::__ndk1::allocator<char> >, std::__ndk1::allocator<std::__ndk1::basic_string<char, std::__ndk1::char_traits<char>, std::__ndk1::allocator<char> > > > >, void*>, std::__ndk1::__tree_node_destructor<std::__ndk1::allocator<std::__ndk1::__tree_node<std::__ndk1::__value_type<std::__ndk1::basic_string<char, std::__ndk1::char_traits<char>, std::__ndk1::allocator<char> >, std::__ndk1::vector<std::__ndk1::basic_string<char, std::__ndk1::char_traits<char>, std::__ndk1::allocator<char> >, std::__ndk1::allocator<std::__ndk1::basic_string<char, std::__ndk1::char_traits<char>, std::__ndk1::allocator<char> > > > >, void*> > > >::~unique_ptr[abi:ne190000]()
PUBLIC 69e1c 0 std::__ndk1::vector<std::__ndk1::basic_string<char, std::__ndk1::char_traits<char>, std::__ndk1::allocator<char> >, std::__ndk1::allocator<std::__ndk1::basic_string<char, std::__ndk1::char_traits<char>, std::__ndk1::allocator<char> > > >::__init_with_size[abi:ne190000]<std::__ndk1::basic_string<char, std::__ndk1::char_traits<char>, std::__ndk1::allocator<char> >*, std::__ndk1::vector<std::__ndk1::basic_string<char, std::__ndk1::char_traits<char>, std::__ndk1::allocator<char> >, std::__ndk1::allocator<std::__ndk1::basic_string<char, std::__ndk1::char_traits<char>, std::__ndk1::allocator<char> > > >::__init_with_size[abi:ne190000]>(std::__ndk1::basic_string<char, std::__ndk1::char_traits<char>, std::__ndk1::allocator<char> >*, std::__ndk1::vector<std::__ndk1::basic_string<char, std::__ndk1::char_traits<char>, std::__ndk1::allocator<char> >, std::__ndk1::allocator<std::__ndk1::basic_string<char, std::__ndk1::char_traits<char>, std::__ndk1::allocator<char> > > >::__init_with_size[abi:ne190000], unsigned long)
PUBLIC 69f88 0 std::__ndk1::__tree<std::__ndk1::__value_type<std::__ndk1::basic_string<char, std::__ndk1::char_traits<char>, std::__ndk1::allocator<char> >, std::__ndk1::vector<std::__ndk1::basic_string<char, std::__ndk1::char_traits<char>, std::__ndk1::allocator<char> >, std::__ndk1::allocator<std::__ndk1::basic_string<char, std::__ndk1::char_traits<char>, std::__ndk1::allocator<char> > > > >, std::__ndk1::__map_value_compare<std::__ndk1::basic_string<char, std::__ndk1::char_traits<char>, std::__ndk1::allocator<char> >, std::__ndk1::__value_type<std::__ndk1::basic_string<char, std::__ndk1::char_traits<char>, std::__ndk1::allocator<char> >, std::__ndk1::vector<std::__ndk1::basic_string<char, std::__ndk1::char_traits<char>, std::__ndk1::allocator<char> >, std::__ndk1::allocator<std::__ndk1::basic_string<char, std::__ndk1::char_traits<char>, std::__ndk1::allocator<char> > > > >, std::__ndk1::less<std::__ndk1::basic_string<char, std::__ndk1::char_traits<char>, std::__ndk1::allocator<char> > >, true>, std::__ndk1::allocator<std::__ndk1::__value_type<std::__ndk1::basic_string<char, std::__ndk1::char_traits<char>, std::__ndk1::allocator<char> >, std::__ndk1::vector<std::__ndk1::basic_string<char, std::__ndk1::char_traits<char>, std::__ndk1::allocator<char> >, std::__ndk1::allocator<std::__ndk1::basic_string<char, std::__ndk1::char_traits<char>, std::__ndk1::allocator<char> > > > > > >::destroy(std::__ndk1::__tree_node<std::__ndk1::__value_type<std::__ndk1::basic_string<char, std::__ndk1::char_traits<char>, std::__ndk1::allocator<char> >, std::__ndk1::vector<std::__ndk1::basic_string<char, std::__ndk1::char_traits<char>, std::__ndk1::allocator<char> >, std::__ndk1::allocator<std::__ndk1::basic_string<char, std::__ndk1::char_traits<char>, std::__ndk1::allocator<char> > > > >, void*>*)
PUBLIC 6a024 0 std::__ndk1::pair<std::__ndk1::basic_string<char, std::__ndk1::char_traits<char>, std::__ndk1::allocator<char> >, std::__ndk1::vector<std::__ndk1::basic_string<char, std::__ndk1::char_traits<char>, std::__ndk1::allocator<char> >, std::__ndk1::allocator<std::__ndk1::basic_string<char, std::__ndk1::char_traits<char>, std::__ndk1::allocator<char> > > > >::~pair()
PUBLIC 6a0b0 0 std::__ndk1::__tree<std::__ndk1::__value_type<std::__ndk1::basic_string<char, std::__ndk1::char_traits<char>, std::__ndk1::allocator<char> >, std::__ndk1::vector<std::__ndk1::basic_string<char, std::__ndk1::char_traits<char>, std::__ndk1::allocator<char> >, std::__ndk1::allocator<std::__ndk1::basic_string<char, std::__ndk1::char_traits<char>, std::__ndk1::allocator<char> > > > >, std::__ndk1::__map_value_compare<std::__ndk1::basic_string<char, std::__ndk1::char_traits<char>, std::__ndk1::allocator<char> >, std::__ndk1::__value_type<std::__ndk1::basic_string<char, std::__ndk1::char_traits<char>, std::__ndk1::allocator<char> >, std::__ndk1::vector<std::__ndk1::basic_string<char, std::__ndk1::char_traits<char>, std::__ndk1::allocator<char> >, std::__ndk1::allocator<std::__ndk1::basic_string<char, std::__ndk1::char_traits<char>, std::__ndk1::allocator<char> > > > >, std::__ndk1::less<std::__ndk1::basic_string<char, std::__ndk1::char_traits<char>, std::__ndk1::allocator<char> > >, true>, std::__ndk1::allocator<std::__ndk1::__value_type<std::__ndk1::basic_string<char, std::__ndk1::char_traits<char>, std::__ndk1::allocator<char> >, std::__ndk1::vector<std::__ndk1::basic_string<char, std::__ndk1::char_traits<char>, std::__ndk1::allocator<char> >, std::__ndk1::allocator<std::__ndk1::basic_string<char, std::__ndk1::char_traits<char>, std::__ndk1::allocator<char> > > > > > >::__emplace_unique_key_args<std::__ndk1::basic_string<char, std::__ndk1::char_traits<char>, std::__ndk1::allocator<char> >, std::__ndk1::piecewise_construct_t const&, std::__ndk1::tuple<std::__ndk1::basic_string<char, std::__ndk1::char_traits<char>, std::__ndk1::allocator<char> > const&>, std::__ndk1::tuple<> >(std::__ndk1::basic_string<char, std::__ndk1::char_traits<char>, std::__ndk1::allocator<char> > const&, std::__ndk1::piecewise_construct_t const&, std::__ndk1::tuple<std::__ndk1::basic_string<char, std::__ndk1::char_traits<char>, std::__ndk1::allocator<char> > const&>, std::__ndk1::tuple<>)
PUBLIC 6a288 0 _ZN2BS11thread_poolILh0EEC2ITkNS_11init_func_cEZNS1_C1EmEUlvE_EEmOT_
PUBLIC 6a568 0 std::__ndk1::unique_ptr<std::__ndk1::thread [], std::__ndk1::default_delete<std::__ndk1::thread []> >::~unique_ptr[abi:ne190000]()
PUBLIC 6a5bc 0 std::__ndk1::__function::__func<BS::thread_pool<(unsigned char)0>::{lambda(unsigned long)#1}, std::__ndk1::allocator<BS::thread_pool<(unsigned char)0>::{lambda(unsigned long)#1}>, void (unsigned long)>::~__func()
PUBLIC 6a5c0 0 std::__ndk1::__function::__func<BS::thread_pool<(unsigned char)0>::{lambda(unsigned long)#1}, std::__ndk1::allocator<BS::thread_pool<(unsigned char)0>::{lambda(unsigned long)#1}>, void (unsigned long)>::__clone() const
PUBLIC 6a5e4 0 std::__ndk1::__function::__func<BS::thread_pool<(unsigned char)0>::{lambda(unsigned long)#1}, std::__ndk1::allocator<BS::thread_pool<(unsigned char)0>::{lambda(unsigned long)#1}>, void (unsigned long)>::__clone(std::__ndk1::__function::__base<void (unsigned long)>*) const
PUBLIC 6a5f4 0 std::__ndk1::__function::__func<BS::thread_pool<(unsigned char)0>::{lambda(unsigned long)#1}, std::__ndk1::allocator<BS::thread_pool<(unsigned char)0>::{lambda(unsigned long)#1}>, void (unsigned long)>::destroy()
PUBLIC 6a5f8 0 std::__ndk1::__function::__func<BS::thread_pool<(unsigned char)0>::{lambda(unsigned long)#1}, std::__ndk1::allocator<BS::thread_pool<(unsigned char)0>::{lambda(unsigned long)#1}>, void (unsigned long)>::destroy_deallocate()
PUBLIC 6a5fc 0 std::__ndk1::__function::__func<BS::thread_pool<(unsigned char)0>::{lambda(unsigned long)#1}, std::__ndk1::allocator<BS::thread_pool<(unsigned char)0>::{lambda(unsigned long)#1}>, void (unsigned long)>::operator()(unsigned long&&)
PUBLIC 6a600 0 std::__ndk1::__function::__func<BS::thread_pool<(unsigned char)0>::{lambda(unsigned long)#1}, std::__ndk1::allocator<BS::thread_pool<(unsigned char)0>::{lambda(unsigned long)#1}>, void (unsigned long)>::target(std::type_info const&) const
PUBLIC 6a61c 0 std::__ndk1::__function::__func<BS::thread_pool<(unsigned char)0>::{lambda(unsigned long)#1}, std::__ndk1::allocator<BS::thread_pool<(unsigned char)0>::{lambda(unsigned long)#1}>, void (unsigned long)>::target_type() const
PUBLIC 6a628 0 std::__ndk1::__function::__base<void (unsigned long)>::~__base()
PUBLIC 6a62c 0 std::__ndk1::__function::__func<BS::thread_pool<(unsigned char)0>::create_threads<BS::thread_pool<(unsigned char)0>::thread_pool(unsigned long)::{lambda()#1}>(unsigned long, BS::thread_pool<(unsigned char)0>::thread_pool(unsigned long)::{lambda()#1}&&)::{lambda(unsigned long)#1}, std::__ndk1::allocator<BS::thread_pool<(unsigned char)0>::create_threads<BS::thread_pool<(unsigned char)0>::thread_pool(unsigned long)::{lambda()#1}>(unsigned long, BS::thread_pool<(unsigned char)0>::thread_pool(unsigned long)::{lambda()#1}&&)::{lambda(unsigned long)#1}>, void (unsigned long)>::~__func()
PUBLIC 6a630 0 std::__ndk1::__function::__func<BS::thread_pool<(unsigned char)0>::create_threads<BS::thread_pool<(unsigned char)0>::thread_pool(unsigned long)::{lambda()#1}>(unsigned long, BS::thread_pool<(unsigned char)0>::thread_pool(unsigned long)::{lambda()#1}&&)::{lambda(unsigned long)#1}, std::__ndk1::allocator<BS::thread_pool<(unsigned char)0>::create_threads<BS::thread_pool<(unsigned char)0>::thread_pool(unsigned long)::{lambda()#1}>(unsigned long, BS::thread_pool<(unsigned char)0>::thread_pool(unsigned long)::{lambda()#1}&&)::{lambda(unsigned long)#1}>, void (unsigned long)>::__clone() const
PUBLIC 6a668 0 std::__ndk1::__function::__func<BS::thread_pool<(unsigned char)0>::create_threads<BS::thread_pool<(unsigned char)0>::thread_pool(unsigned long)::{lambda()#1}>(unsigned long, BS::thread_pool<(unsigned char)0>::thread_pool(unsigned long)::{lambda()#1}&&)::{lambda(unsigned long)#1}, std::__ndk1::allocator<BS::thread_pool<(unsigned char)0>::create_threads<BS::thread_pool<(unsigned char)0>::thread_pool(unsigned long)::{lambda()#1}>(unsigned long, BS::thread_pool<(unsigned char)0>::thread_pool(unsigned long)::{lambda()#1}&&)::{lambda(unsigned long)#1}>, void (unsigned long)>::__clone(std::__ndk1::__function::__base<void (unsigned long)>*) const
PUBLIC 6a680 0 std::__ndk1::__function::__func<BS::thread_pool<(unsigned char)0>::create_threads<BS::thread_pool<(unsigned char)0>::thread_pool(unsigned long)::{lambda()#1}>(unsigned long, BS::thread_pool<(unsigned char)0>::thread_pool(unsigned long)::{lambda()#1}&&)::{lambda(unsigned long)#1}, std::__ndk1::allocator<BS::thread_pool<(unsigned char)0>::create_threads<BS::thread_pool<(unsigned char)0>::thread_pool(unsigned long)::{lambda()#1}>(unsigned long, BS::thread_pool<(unsigned char)0>::thread_pool(unsigned long)::{lambda()#1}&&)::{lambda(unsigned long)#1}>, void (unsigned long)>::destroy()
PUBLIC 6a684 0 std::__ndk1::__function::__func<BS::thread_pool<(unsigned char)0>::create_threads<BS::thread_pool<(unsigned char)0>::thread_pool(unsigned long)::{lambda()#1}>(unsigned long, BS::thread_pool<(unsigned char)0>::thread_pool(unsigned long)::{lambda()#1}&&)::{lambda(unsigned long)#1}, std::__ndk1::allocator<BS::thread_pool<(unsigned char)0>::create_threads<BS::thread_pool<(unsigned char)0>::thread_pool(unsigned long)::{lambda()#1}>(unsigned long, BS::thread_pool<(unsigned char)0>::thread_pool(unsigned long)::{lambda()#1}&&)::{lambda(unsigned long)#1}>, void (unsigned long)>::destroy_deallocate()
PUBLIC 6a688 0 std::__ndk1::__function::__func<BS::thread_pool<(unsigned char)0>::create_threads<BS::thread_pool<(unsigned char)0>::thread_pool(unsigned long)::{lambda()#1}>(unsigned long, BS::thread_pool<(unsigned char)0>::thread_pool(unsigned long)::{lambda()#1}&&)::{lambda(unsigned long)#1}, std::__ndk1::allocator<BS::thread_pool<(unsigned char)0>::create_threads<BS::thread_pool<(unsigned char)0>::thread_pool(unsigned long)::{lambda()#1}>(unsigned long, BS::thread_pool<(unsigned char)0>::thread_pool(unsigned long)::{lambda()#1}&&)::{lambda(unsigned long)#1}>, void (unsigned long)>::operator()(unsigned long&&)
PUBLIC 6a68c 0 std::__ndk1::__function::__func<BS::thread_pool<(unsigned char)0>::create_threads<BS::thread_pool<(unsigned char)0>::thread_pool(unsigned long)::{lambda()#1}>(unsigned long, BS::thread_pool<(unsigned char)0>::thread_pool(unsigned long)::{lambda()#1}&&)::{lambda(unsigned long)#1}, std::__ndk1::allocator<BS::thread_pool<(unsigned char)0>::create_threads<BS::thread_pool<(unsigned char)0>::thread_pool(unsigned long)::{lambda()#1}>(unsigned long, BS::thread_pool<(unsigned char)0>::thread_pool(unsigned long)::{lambda()#1}&&)::{lambda(unsigned long)#1}>, void (unsigned long)>::target(std::type_info const&) const
PUBLIC 6a6a8 0 std::__ndk1::__function::__func<BS::thread_pool<(unsigned char)0>::create_threads<BS::thread_pool<(unsigned char)0>::thread_pool(unsigned long)::{lambda()#1}>(unsigned long, BS::thread_pool<(unsigned char)0>::thread_pool(unsigned long)::{lambda()#1}&&)::{lambda(unsigned long)#1}, std::__ndk1::allocator<BS::thread_pool<(unsigned char)0>::create_threads<BS::thread_pool<(unsigned char)0>::thread_pool(unsigned long)::{lambda()#1}>(unsigned long, BS::thread_pool<(unsigned char)0>::thread_pool(unsigned long)::{lambda()#1}&&)::{lambda(unsigned long)#1}>, void (unsigned long)>::target_type() const
PUBLIC 6a6b4 0 std::__ndk1::__thread_proxy[abi:ne190000]<std::__ndk1::tuple<std::__ndk1::unique_ptr<std::__ndk1::__thread_struct, std::__ndk1::default_delete<std::__ndk1::unique_ptr> >, BS::thread_pool<(unsigned char)0>::create_threads<BS::thread_pool::thread_pool(unsigned long)::{lambda()#1}>(unsigned long, BS::thread_pool::thread_pool(unsigned long)::{lambda()#1}&&)::{lambda()#1}> >(std::__ndk1::tuple<std::__ndk1::unique_ptr<std::__ndk1::__thread_struct, std::__ndk1::default_delete<std::__ndk1::unique_ptr> >, BS::thread_pool<(unsigned char)0>::create_threads<BS::thread_pool::thread_pool(unsigned long)::{lambda()#1}>(unsigned long, BS::thread_pool::thread_pool(unsigned long)::{lambda()#1}&&)::{lambda()#1}>)
PUBLIC 6aafc 0 std::__ndk1::unique_ptr<std::__ndk1::tuple<std::__ndk1::unique_ptr<std::__ndk1::__thread_struct, std::__ndk1::default_delete<std::__ndk1::__thread_struct> >, BS::thread_pool<(unsigned char)0>::create_threads<BS::thread_pool<(unsigned char)0>::thread_pool(unsigned long)::{lambda()#1}>(unsigned long, BS::thread_pool<(unsigned char)0>::thread_pool(unsigned long)::{lambda()#1}&&)::{lambda()#1}>, std::__ndk1::default_delete<std::__ndk1::tuple<std::__ndk1::unique_ptr<std::__ndk1::__thread_struct, std::__ndk1::default_delete<std::__ndk1::__thread_struct> >, BS::thread_pool<(unsigned char)0>::create_threads<BS::thread_pool<(unsigned char)0>::thread_pool(unsigned long)::{lambda()#1}>(unsigned long, BS::thread_pool<(unsigned char)0>::thread_pool(unsigned long)::{lambda()#1}&&)::{lambda()#1}> > >::~unique_ptr[abi:ne190000]()
PUBLIC 6ab4c 0 std::__ndk1::unique_ptr<std::__ndk1::__thread_struct, std::__ndk1::default_delete<std::__ndk1::__thread_struct> >::~unique_ptr[abi:ne190000]()
PUBLIC 6ab88 0 std::__ndk1::deque<std::__ndk1::function<void ()>, std::__ndk1::allocator<std::__ndk1::function<void ()> > >::~deque[abi:ne190000]()
PUBLIC 6ad50 0 std::__ndk1::deque<std::__ndk1::function<void ()>, std::__ndk1::allocator<std::__ndk1::function<void ()> > >::__add_back_capacity()
PUBLIC 6b460 0 std::__ndk1::__function::__func<loadFolderIcon(std::__ndk1::__fs::filesystem::path const&, IconPack const&, IconType)::$_0, std::__ndk1::allocator<loadFolderIcon(std::__ndk1::__fs::filesystem::path const&, IconPack const&, IconType)::$_0>, void ()>::~__func()
PUBLIC 6b4e8 0 std::__ndk1::__function::__func<loadFolderIcon(std::__ndk1::__fs::filesystem::path const&, IconPack const&, IconType)::$_0, std::__ndk1::allocator<loadFolderIcon(std::__ndk1::__fs::filesystem::path const&, IconPack const&, IconType)::$_0>, void ()>::~__func()
PUBLIC 6b57c 0 std::__ndk1::__function::__func<loadFolderIcon(std::__ndk1::__fs::filesystem::path const&, IconPack const&, IconType)::$_0, std::__ndk1::allocator<loadFolderIcon(std::__ndk1::__fs::filesystem::path const&, IconPack const&, IconType)::$_0>, void ()>::__clone() const
PUBLIC 6b630 0 std::__ndk1::__function::__func<loadFolderIcon(std::__ndk1::__fs::filesystem::path const&, IconPack const&, IconType)::$_0, std::__ndk1::allocator<loadFolderIcon(std::__ndk1::__fs::filesystem::path const&, IconPack const&, IconType)::$_0>, void ()>::__clone(std::__ndk1::__function::__base<void ()>*) const
PUBLIC 6b6d0 0 std::__ndk1::__function::__func<loadFolderIcon(std::__ndk1::__fs::filesystem::path const&, IconPack const&, IconType)::$_0, std::__ndk1::allocator<loadFolderIcon(std::__ndk1::__fs::filesystem::path const&, IconPack const&, IconType)::$_0>, void ()>::destroy()
PUBLIC 6b74c 0 std::__ndk1::__function::__func<loadFolderIcon(std::__ndk1::__fs::filesystem::path const&, IconPack const&, IconType)::$_0, std::__ndk1::allocator<loadFolderIcon(std::__ndk1::__fs::filesystem::path const&, IconPack const&, IconType)::$_0>, void ()>::destroy_deallocate()
PUBLIC 6b7d4 0 std::__ndk1::__function::__func<loadFolderIcon(std::__ndk1::__fs::filesystem::path const&, IconPack const&, IconType)::$_0, std::__ndk1::allocator<loadFolderIcon(std::__ndk1::__fs::filesystem::path const&, IconPack const&, IconType)::$_0>, void ()>::operator()()
PUBLIC 6d138 0 std::__ndk1::__function::__func<loadFolderIcon(std::__ndk1::__fs::filesystem::path const&, IconPack const&, IconType)::$_0, std::__ndk1::allocator<loadFolderIcon(std::__ndk1::__fs::filesystem::path const&, IconPack const&, IconType)::$_0>, void ()>::target(std::type_info const&) const
PUBLIC 6d154 0 std::__ndk1::__function::__func<loadFolderIcon(std::__ndk1::__fs::filesystem::path const&, IconPack const&, IconType)::$_0, std::__ndk1::allocator<loadFolderIcon(std::__ndk1::__fs::filesystem::path const&, IconPack const&, IconType)::$_0>, void ()>::target_type() const
PUBLIC 6d160 0 fmt::v11::detail::value<fmt::v11::context>::format_custom_arg<std::__ndk1::__fs::filesystem::path, fmt::v11::formatter<std::__ndk1::__fs::filesystem::path, char, void> >(void*, fmt::v11::basic_format_parse_context<char>&, fmt::v11::context&)
PUBLIC 6e010 0 fmt::v11::detail::parse_dynamic_spec<char>(char const*, char const*, int&, fmt::v11::detail::arg_ref<char>&, fmt::v11::basic_format_parse_context<char>&)
PUBLIC 6e1b4 0 fmt::v11::detail::do_parse_arg_id<char, fmt::v11::detail::dynamic_spec_id_handler<char>&>(char const*, char const*, fmt::v11::detail::dynamic_spec_id_handler<char>&)
PUBLIC 6e34c 0 fmt::v11::detail::handle_dynamic_spec<fmt::v11::detail::width_checker, fmt::v11::context>(int&, fmt::v11::detail::arg_ref<fmt::v11::context::char_type>, fmt::v11::context&)
PUBLIC 6e460 0 fmt::v11::detail::write<char, fmt::v11::basic_appender<char> >(fmt::v11::basic_appender<char>, fmt::v11::basic_string_view<char>, fmt::v11::format_specs const&)
PUBLIC 6e6dc 0 fmt::v11::detail::get_dynamic_spec<fmt::v11::detail::width_checker, fmt::v11::basic_format_arg<fmt::v11::context> >(fmt::v11::basic_format_arg<fmt::v11::context>)
PUBLIC 6e770 0 fmt::v11::basic_format_args<fmt::v11::context>::get<char>(fmt::v11::basic_string_view<char>) const
PUBLIC 6e8a4 0 fmt::v11::detail::write_escaped_string<char, fmt::v11::detail::counting_iterator>(fmt::v11::detail::counting_iterator, fmt::v11::basic_string_view<char>)
PUBLIC 6ed88 0 fmt::v11::detail::write_padded<char, (fmt::v11::align::type)1, fmt::v11::basic_appender<char>, fmt::v11::detail::write<char, fmt::v11::basic_appender<char> >(fmt::v11::basic_appender<char>, fmt::v11::basic_string_view<char>, fmt::v11::format_specs const&)::{lambda(fmt::v11::basic_appender<char>)#1}>(fmt::v11::basic_appender<char>, fmt::v11::format_specs const&, unsigned long, unsigned long, fmt::v11::detail::write<char, fmt::v11::basic_appender<char> >(fmt::v11::basic_appender<char>, fmt::v11::basic_string_view<char>, fmt::v11::format_specs const&)::{lambda(fmt::v11::basic_appender<char>&&)#1})
PUBLIC 6ef94 0 fmt::v11::detail::for_each_codepoint<fmt::v11::detail::code_point_index(fmt::v11::basic_string_view<char>, unsigned long)::{lambda(unsigned int, fmt::v11::basic_string_view<char>)#1}>(fmt::v11::basic_string_view<char>, fmt::v11::detail::code_point_index(fmt::v11::basic_string_view<char>, unsigned long)::{lambda(unsigned int, fmt::v11::basic_string_view<char>)#1})
PUBLIC 6f388 0 fmt::v11::detail::write_escaped_cp<fmt::v11::detail::counting_iterator, char>(fmt::v11::detail::counting_iterator, fmt::v11::detail::find_escape_result<char> const&)
PUBLIC 6f51c 0 fmt::v11::detail::for_each_codepoint<fmt::v11::detail::compute_width(fmt::v11::basic_string_view<char>)::count_code_points>(fmt::v11::basic_string_view<char>, fmt::v11::detail::compute_width(fmt::v11::basic_string_view<char>)::count_code_points)::{lambda(char const*, char const*)#1}::operator()(char const*, char const*) const
PUBLIC 6f6d4 0 fmt::v11::detail::fill<char, fmt::v11::basic_appender<char> >(fmt::v11::basic_appender<char>, unsigned long, fmt::v11::detail::fill_t const&)
PUBLIC 6f8a4 0 fmt::v11::detail::write_escaped_string<char, fmt::v11::basic_appender<char> >(fmt::v11::basic_appender<char>, fmt::v11::basic_string_view<char>)
PUBLIC 6feec 0 fmt::v11::detail::write_escaped_cp<fmt::v11::basic_appender<char>, char>(fmt::v11::basic_appender<char>, fmt::v11::detail::find_escape_result<char> const&)
PUBLIC 700d0 0 fmt::v11::detail::write_codepoint<(unsigned long)2, char, fmt::v11::basic_appender<char> >(fmt::v11::basic_appender<char>, char, unsigned int)
PUBLIC 70248 0 fmt::v11::detail::write_codepoint<(unsigned long)4, char, fmt::v11::basic_appender<char> >(fmt::v11::basic_appender<char>, char, unsigned int)
PUBLIC 703c0 0 fmt::v11::detail::write_codepoint<(unsigned long)8, char, fmt::v11::basic_appender<char> >(fmt::v11::basic_appender<char>, char, unsigned int)
PUBLIC 70538 0 fmt::v11::basic_memory_buffer<char, (unsigned long)500, std::__ndk1::allocator<char> >::grow(fmt::v11::detail::buffer<char>&, unsigned long)
PUBLIC 705b0 0 fmt::v11::detail::write_codepoint<(unsigned long)2, char, std::__ndk1::back_insert_iterator<fmt::v11::basic_memory_buffer<char, (unsigned long)500, std::__ndk1::allocator<char> > > >(std::__ndk1::back_insert_iterator<fmt::v11::basic_memory_buffer<char, (unsigned long)500, std::__ndk1::allocator<char> > >, char, unsigned int)
PUBLIC 70728 0 std::__ndk1::vector<LogData, std::__ndk1::allocator<LogData> >::__push_back_slow_path<LogData>(LogData&&)
PUBLIC 70878 0 std::__ndk1::vector<LogData, std::__ndk1::allocator<LogData> >::__throw_length_error[abi:ne190000]() const
PUBLIC 7088c 0 std::__ndk1::vector<ImageData, std::__ndk1::allocator<ImageData> >::__push_back_slow_path<ImageData>(ImageData&&)
PUBLIC 70ad8 0 std::__ndk1::vector<ImageData, std::__ndk1::allocator<ImageData> >::__throw_length_error[abi:ne190000]() const
PUBLIC 70aec 0 std::__ndk1::__function::__func<loadFileIcon(std::__ndk1::__fs::filesystem::path const&, IconPack const&, IconType)::$_0, std::__ndk1::allocator<loadFileIcon(std::__ndk1::__fs::filesystem::path const&, IconPack const&, IconType)::$_0>, void ()>::~__func()
PUBLIC 70b74 0 std::__ndk1::__function::__func<loadFileIcon(std::__ndk1::__fs::filesystem::path const&, IconPack const&, IconType)::$_0, std::__ndk1::allocator<loadFileIcon(std::__ndk1::__fs::filesystem::path const&, IconPack const&, IconType)::$_0>, void ()>::~__func()
PUBLIC 70c08 0 std::__ndk1::__function::__func<loadFileIcon(std::__ndk1::__fs::filesystem::path const&, IconPack const&, IconType)::$_0, std::__ndk1::allocator<loadFileIcon(std::__ndk1::__fs::filesystem::path const&, IconPack const&, IconType)::$_0>, void ()>::__clone() const
PUBLIC 70cbc 0 std::__ndk1::__function::__func<loadFileIcon(std::__ndk1::__fs::filesystem::path const&, IconPack const&, IconType)::$_0, std::__ndk1::allocator<loadFileIcon(std::__ndk1::__fs::filesystem::path const&, IconPack const&, IconType)::$_0>, void ()>::__clone(std::__ndk1::__function::__base<void ()>*) const
PUBLIC 70d5c 0 std::__ndk1::__function::__func<loadFileIcon(std::__ndk1::__fs::filesystem::path const&, IconPack const&, IconType)::$_0, std::__ndk1::allocator<loadFileIcon(std::__ndk1::__fs::filesystem::path const&, IconPack const&, IconType)::$_0>, void ()>::destroy()
PUBLIC 70dd8 0 std::__ndk1::__function::__func<loadFileIcon(std::__ndk1::__fs::filesystem::path const&, IconPack const&, IconType)::$_0, std::__ndk1::allocator<loadFileIcon(std::__ndk1::__fs::filesystem::path const&, IconPack const&, IconType)::$_0>, void ()>::destroy_deallocate()
PUBLIC 70e60 0 std::__ndk1::__function::__func<loadFileIcon(std::__ndk1::__fs::filesystem::path const&, IconPack const&, IconType)::$_0, std::__ndk1::allocator<loadFileIcon(std::__ndk1::__fs::filesystem::path const&, IconPack const&, IconType)::$_0>, void ()>::operator()()
PUBLIC 72858 0 std::__ndk1::__function::__func<loadFileIcon(std::__ndk1::__fs::filesystem::path const&, IconPack const&, IconType)::$_0, std::__ndk1::allocator<loadFileIcon(std::__ndk1::__fs::filesystem::path const&, IconPack const&, IconType)::$_0>, void ()>::target(std::type_info const&) const
PUBLIC 72874 0 std::__ndk1::__function::__func<loadFileIcon(std::__ndk1::__fs::filesystem::path const&, IconPack const&, IconType)::$_0, std::__ndk1::allocator<loadFileIcon(std::__ndk1::__fs::filesystem::path const&, IconPack const&, IconType)::$_0>, void ()>::target_type() const
PUBLIC 72880 0 printLog<std::__ndk1::__fs::filesystem::path const&, std::__ndk1::basic_string<char, std::__ndk1::char_traits<char>, std::__ndk1::allocator<char> >&>(geode::Severity, fmt::v11::basic_format_string<char, fmt::v11::type_identity<std::__ndk1::__fs::filesystem::path const&, std::__ndk1::basic_string<char, std::__ndk1::char_traits<char>, std::__ndk1::allocator<char> >&>::type>, std::__ndk1::__fs::filesystem::path const&, std::__ndk1::basic_string<char, std::__ndk1::char_traits<char>, std::__ndk1::allocator<char> >&)
PUBLIC 72a48 0 std::__ndk1::__function::__func<loadVanillaIcon(std::__ndk1::__fs::filesystem::path const&, IconPack const&, IconType)::$_0, std::__ndk1::allocator<loadVanillaIcon(std::__ndk1::__fs::filesystem::path const&, IconPack const&, IconType)::$_0>, void ()>::~__func()
PUBLIC 72ad0 0 std::__ndk1::__function::__func<loadVanillaIcon(std::__ndk1::__fs::filesystem::path const&, IconPack const&, IconType)::$_0, std::__ndk1::allocator<loadVanillaIcon(std::__ndk1::__fs::filesystem::path const&, IconPack const&, IconType)::$_0>, void ()>::~__func()
PUBLIC 72b64 0 std::__ndk1::__function::__func<loadVanillaIcon(std::__ndk1::__fs::filesystem::path const&, IconPack const&, IconType)::$_0, std::__ndk1::allocator<loadVanillaIcon(std::__ndk1::__fs::filesystem::path const&, IconPack const&, IconType)::$_0>, void ()>::__clone() const
PUBLIC 72c18 0 std::__ndk1::__function::__func<loadVanillaIcon(std::__ndk1::__fs::filesystem::path const&, IconPack const&, IconType)::$_0, std::__ndk1::allocator<loadVanillaIcon(std::__ndk1::__fs::filesystem::path const&, IconPack const&, IconType)::$_0>, void ()>::__clone(std::__ndk1::__function::__base<void ()>*) const
PUBLIC 72cb8 0 std::__ndk1::__function::__func<loadVanillaIcon(std::__ndk1::__fs::filesystem::path const&, IconPack const&, IconType)::$_0, std::__ndk1::allocator<loadVanillaIcon(std::__ndk1::__fs::filesystem::path const&, IconPack const&, IconType)::$_0>, void ()>::destroy()
PUBLIC 72d34 0 std::__ndk1::__function::__func<loadVanillaIcon(std::__ndk1::__fs::filesystem::path const&, IconPack const&, IconType)::$_0, std::__ndk1::allocator<loadVanillaIcon(std::__ndk1::__fs::filesystem::path const&, IconPack const&, IconType)::$_0>, void ()>::destroy_deallocate()
PUBLIC 72dbc 0 std::__ndk1::__function::__func<loadVanillaIcon(std::__ndk1::__fs::filesystem::path const&, IconPack const&, IconType)::$_0, std::__ndk1::allocator<loadVanillaIcon(std::__ndk1::__fs::filesystem::path const&, IconPack const&, IconType)::$_0>, void ()>::operator()()
PUBLIC 744e8 0 std::__ndk1::__function::__func<loadVanillaIcon(std::__ndk1::__fs::filesystem::path const&, IconPack const&, IconType)::$_0, std::__ndk1::allocator<loadVanillaIcon(std::__ndk1::__fs::filesystem::path const&, IconPack const&, IconType)::$_0>, void ()>::target(std::type_info const&) const
PUBLIC 74504 0 std::__ndk1::__function::__func<loadVanillaIcon(std::__ndk1::__fs::filesystem::path const&, IconPack const&, IconType)::$_0, std::__ndk1::allocator<loadVanillaIcon(std::__ndk1::__fs::filesystem::path const&, IconPack const&, IconType)::$_0>, void ()>::target_type() const
PUBLIC 74510 0 ImageData::operator=(ImageData&&)
PUBLIC 7461c 0 std::__ndk1::__function::__func<loadTrail(std::__ndk1::__fs::filesystem::path const&, IconPack const&)::$_0, std::__ndk1::allocator<loadTrail(std::__ndk1::__fs::filesystem::path const&, IconPack const&)::$_0>, void ()>::~__func()
PUBLIC 746a4 0 std::__ndk1::__function::__func<loadTrail(std::__ndk1::__fs::filesystem::path const&, IconPack const&)::$_0, std::__ndk1::allocator<loadTrail(std::__ndk1::__fs::filesystem::path const&, IconPack const&)::$_0>, void ()>::~__func()
PUBLIC 74738 0 std::__ndk1::__function::__func<loadTrail(std::__ndk1::__fs::filesystem::path const&, IconPack const&)::$_0, std::__ndk1::allocator<loadTrail(std::__ndk1::__fs::filesystem::path const&, IconPack const&)::$_0>, void ()>::__clone() const
PUBLIC 747f4 0 std::__ndk1::__function::__func<loadTrail(std::__ndk1::__fs::filesystem::path const&, IconPack const&)::$_0, std::__ndk1::allocator<loadTrail(std::__ndk1::__fs::filesystem::path const&, IconPack const&)::$_0>, void ()>::__clone(std::__ndk1::__function::__base<void ()>*) const
PUBLIC 74884 0 std::__ndk1::__function::__func<loadTrail(std::__ndk1::__fs::filesystem::path const&, IconPack const&)::$_0, std::__ndk1::allocator<loadTrail(std::__ndk1::__fs::filesystem::path const&, IconPack const&)::$_0>, void ()>::destroy()
PUBLIC 74900 0 std::__ndk1::__function::__func<loadTrail(std::__ndk1::__fs::filesystem::path const&, IconPack const&)::$_0, std::__ndk1::allocator<loadTrail(std::__ndk1::__fs::filesystem::path const&, IconPack const&)::$_0>, void ()>::destroy_deallocate()
PUBLIC 74988 0 std::__ndk1::__function::__func<loadTrail(std::__ndk1::__fs::filesystem::path const&, IconPack const&)::$_0, std::__ndk1::allocator<loadTrail(std::__ndk1::__fs::filesystem::path const&, IconPack const&)::$_0>, void ()>::operator()()
PUBLIC 75764 0 std::__ndk1::__function::__func<loadTrail(std::__ndk1::__fs::filesystem::path const&, IconPack const&)::$_0, std::__ndk1::allocator<loadTrail(std::__ndk1::__fs::filesystem::path const&, IconPack const&)::$_0>, void ()>::target(std::type_info const&) const
PUBLIC 75780 0 std::__ndk1::__function::__func<loadTrail(std::__ndk1::__fs::filesystem::path const&, IconPack const&)::$_0, std::__ndk1::allocator<loadTrail(std::__ndk1::__fs::filesystem::path const&, IconPack const&)::$_0>, void ()>::target_type() const
PUBLIC 7578c 0 geode::impl::ResultData<matjson::Value, std::__ndk1::basic_string<char, std::__ndk1::char_traits<char>, std::__ndk1::allocator<char> > >::~ResultData()
PUBLIC 75800 0 geode::impl::ResultData<bool, std::__ndk1::basic_string<char, std::__ndk1::char_traits<char>, std::__ndk1::allocator<char> > >::~ResultData()
PUBLIC 75874 0 std::__ndk1::__variant_detail::__visitation::__base::__dispatcher<(unsigned long)0>::__dispatch[abi:ne190000]<std::__ndk1::__variant_detail::__dtor<std::__ndk1::__variant_detail::__traits<matjson::Value, std::__ndk1::basic_string<char, std::__ndk1::char_traits<char>, std::__ndk1::allocator<char> > >, (std::__ndk1::__variant_detail::_Trait)1>::__destroy[abi:ne190000]()::{lambda(auto:1&)#1}, std::__ndk1::__variant_detail::__base<(std::__ndk1::__variant_detail::__traits<matjson::Value, std::__ndk1::basic_string<char, std::__ndk1::char_traits<char>, std::__ndk1::allocator<char> > >)1, matjson, std::__ndk1::allocator<char> >&>(std::__ndk1::__variant_detail::__dtor<std::__ndk1::__variant_detail::__traits<matjson::Value, std::__ndk1::basic_string<char, std::__ndk1::char_traits<char>, std::__ndk1::allocator<char> > >, (std::__ndk1::__variant_detail::_Trait)1>, std::__ndk1::__variant_detail::__base<(std::__ndk1::__variant_detail::__traits<matjson::Value, std::__ndk1::basic_string<char, std::__ndk1::char_traits<char>, std::__ndk1::allocator<char> > >)1, matjson, std::__ndk1::allocator<char> >&)
PUBLIC 7587c 0 std::__ndk1::__variant_detail::__visitation::__base::__dispatcher<(unsigned long)1>::__dispatch[abi:ne190000]<std::__ndk1::__variant_detail::__dtor<std::__ndk1::__variant_detail::__traits<matjson::Value, std::__ndk1::basic_string<char, std::__ndk1::char_traits<char>, std::__ndk1::allocator<char> > >, (std::__ndk1::__variant_detail::_Trait)1>::__destroy[abi:ne190000]()::{lambda(auto:1&)#1}, std::__ndk1::__variant_detail::__base<(std::__ndk1::__variant_detail::__traits<matjson::Value, std::__ndk1::basic_string<char, std::__ndk1::char_traits<char>, std::__ndk1::allocator<char> > >)1, matjson, std::__ndk1::allocator<char> >&>(std::__ndk1::__variant_detail::__dtor<std::__ndk1::__variant_detail::__traits<matjson::Value, std::__ndk1::basic_string<char, std::__ndk1::char_traits<char>, std::__ndk1::allocator<char> > >, (std::__ndk1::__variant_detail::_Trait)1>, std::__ndk1::__variant_detail::__base<(std::__ndk1::__variant_detail::__traits<matjson::Value, std::__ndk1::basic_string<char, std::__ndk1::char_traits<char>, std::__ndk1::allocator<char> > >)1, matjson, std::__ndk1::allocator<char> >&)
PUBLIC 75890 0 std::__ndk1::__function::__func<loadVanillaTrail(std::__ndk1::__fs::filesystem::path const&, IconPack const&)::$_0, std::__ndk1::allocator<loadVanillaTrail(std::__ndk1::__fs::filesystem::path const&, IconPack const&)::$_0>, void ()>::~__func()
PUBLIC 75918 0 std::__ndk1::__function::__func<loadVanillaTrail(std::__ndk1::__fs::filesystem::path const&, IconPack const&)::$_0, std::__ndk1::allocator<loadVanillaTrail(std::__ndk1::__fs::filesystem::path const&, IconPack const&)::$_0>, void ()>::~__func()
PUBLIC 759ac 0 std::__ndk1::__function::__func<loadVanillaTrail(std::__ndk1::__fs::filesystem::path const&, IconPack const&)::$_0, std::__ndk1::allocator<loadVanillaTrail(std::__ndk1::__fs::filesystem::path const&, IconPack const&)::$_0>, void ()>::__clone() const
PUBLIC 75a68 0 std::__ndk1::__function::__func<loadVanillaTrail(std::__ndk1::__fs::filesystem::path const&, IconPack const&)::$_0, std::__ndk1::allocator<loadVanillaTrail(std::__ndk1::__fs::filesystem::path const&, IconPack const&)::$_0>, void ()>::__clone(std::__ndk1::__function::__base<void ()>*) const
PUBLIC 75af8 0 std::__ndk1::__function::__func<loadVanillaTrail(std::__ndk1::__fs::filesystem::path const&, IconPack const&)::$_0, std::__ndk1::allocator<loadVanillaTrail(std::__ndk1::__fs::filesystem::path const&, IconPack const&)::$_0>, void ()>::destroy()
PUBLIC 75b74 0 std::__ndk1::__function::__func<loadVanillaTrail(std::__ndk1::__fs::filesystem::path const&, IconPack const&)::$_0, std::__ndk1::allocator<loadVanillaTrail(std::__ndk1::__fs::filesystem::path const&, IconPack const&)::$_0>, void ()>::destroy_deallocate()
PUBLIC 75bfc 0 std::__ndk1::__function::__func<loadVanillaTrail(std::__ndk1::__fs::filesystem::path const&, IconPack const&)::$_0, std::__ndk1::allocator<loadVanillaTrail(std::__ndk1::__fs::filesystem::path const&, IconPack const&)::$_0>, void ()>::operator()()
PUBLIC 76bb0 0 std::__ndk1::__function::__func<loadVanillaTrail(std::__ndk1::__fs::filesystem::path const&, IconPack const&)::$_0, std::__ndk1::allocator<loadVanillaTrail(std::__ndk1::__fs::filesystem::path const&, IconPack const&)::$_0>, void ()>::target(std::type_info const&) const
PUBLIC 76bcc 0 std::__ndk1::__function::__func<loadVanillaTrail(std::__ndk1::__fs::filesystem::path const&, IconPack const&)::$_0, std::__ndk1::allocator<loadVanillaTrail(std::__ndk1::__fs::filesystem::path const&, IconPack const&)::$_0>, void ()>::target_type() const
PUBLIC 76bd8 0 std::__ndk1::__function::__base<void (FLAlertLayer*, bool)>::~__base()
PUBLIC 76bdc 0 std::__ndk1::__function::__func<MoreIcons::showInfoPopup(bool)::$_0, std::__ndk1::allocator<MoreIcons::showInfoPopup(bool)::$_0>, void (FLAlertLayer*, bool)>::~__func()
PUBLIC 76be0 0 std::__ndk1::__function::__func<MoreIcons::showInfoPopup(bool)::$_0, std::__ndk1::allocator<MoreIcons::showInfoPopup(bool)::$_0>, void (FLAlertLayer*, bool)>::__clone() const
PUBLIC 76c18 0 std::__ndk1::__function::__func<MoreIcons::showInfoPopup(bool)::$_0, std::__ndk1::allocator<MoreIcons::showInfoPopup(bool)::$_0>, void (FLAlertLayer*, bool)>::__clone(std::__ndk1::__function::__base<void (FLAlertLayer*, bool)>*) const
PUBLIC 76c30 0 std::__ndk1::__function::__func<MoreIcons::showInfoPopup(bool)::$_0, std::__ndk1::allocator<MoreIcons::showInfoPopup(bool)::$_0>, void (FLAlertLayer*, bool)>::destroy()
PUBLIC 76c34 0 std::__ndk1::__function::__func<MoreIcons::showInfoPopup(bool)::$_0, std::__ndk1::allocator<MoreIcons::showInfoPopup(bool)::$_0>, void (FLAlertLayer*, bool)>::destroy_deallocate()
PUBLIC 76c38 0 std::__ndk1::__function::__func<MoreIcons::showInfoPopup(bool)::$_0, std::__ndk1::allocator<MoreIcons::showInfoPopup(bool)::$_0>, void (FLAlertLayer*, bool)>::operator()(FLAlertLayer*&&, bool&&)
PUBLIC 76cf0 0 std::__ndk1::__function::__func<MoreIcons::showInfoPopup(bool)::$_0, std::__ndk1::allocator<MoreIcons::showInfoPopup(bool)::$_0>, void (FLAlertLayer*, bool)>::target(std::type_info const&) const
PUBLIC 76d0c 0 std::__ndk1::__function::__func<MoreIcons::showInfoPopup(bool)::$_0, std::__ndk1::allocator<MoreIcons::showInfoPopup(bool)::$_0>, void (FLAlertLayer*, bool)>::target_type() const
PUBLIC 76d18 0 _GLOBAL__sub_I_MoreIcons.cpp
PUBLIC 76ef4 0 geode::getMod()
PUBLIC m 76f30 0 geodeImplicitEntry
PUBLIC 76f6c 0 std::__ndk1::unordered_map<void*, bool, std::__ndk1::hash<void*>, std::__ndk1::equal_to<void*>, std::__ndk1::allocator<std::__ndk1::pair<void* const, bool> > >::~unordered_map[abi:ne190000]()
PUBLIC 76fb8 0 wrapFunction(unsigned long, tulip::hook::WrapperMetadata const&)
PUBLIC 770ec 0 geode::impl::ResultData<void*, std::__ndk1::basic_string<char, std::__ndk1::char_traits<char>, std::__ndk1::allocator<char> > >::unwrapErr() &
PUBLIC 77164 0 geode::impl::ResultData<void*, std::__ndk1::basic_string<char, std::__ndk1::char_traits<char>, std::__ndk1::allocator<char> > >::~ResultData()
PUBLIC 771d8 0 tulip::hook::WrapperMetadata::~WrapperMetadata()
PUBLIC 7723c 0 cocos2d::CCObject::CCObject()
PUBLIC 77460 0 cocos2d::CCObject::~CCObject()
PUBLIC 77484 0 cocos2d::CCNode::~CCNode()
PUBLIC 774a8 0 cocos2d::CCLayer::CCLayer()
PUBLIC 7772c 0 {virtual override thunk({offset(-320)}, cocos2d::CCLayer::~CCLayer())}
PUBLIC 77734 0 cocos2d::CCLayer::~CCLayer()
PUBLIC 77758 0 {virtual override thunk({offset(-320)}, cocos2d::CCLayer::~CCLayer())}
PUBLIC 77780 0 cocos2d::CCLayerRGBA::~CCLayerRGBA()
PUBLIC 77a80 0 {virtual override thunk({offset(-320)}, cocos2d::CCLayerRGBA::~CCLayerRGBA())}
PUBLIC 77a88 0 cocos2d::CCLayerRGBA::~CCLayerRGBA()
PUBLIC 77aac 0 {virtual override thunk({offset(-320)}, cocos2d::CCLayerRGBA::~CCLayerRGBA())}
PUBLIC 77ad4 0 cocos2d::CCLayerColor::CCLayerColor()
PUBLIC 77d38 0 {virtual override thunk({offset(-320)}, cocos2d::CCLayerColor::~CCLayerColor())}
PUBLIC 77d40 0 cocos2d::CCLayerColor::~CCLayerColor()
PUBLIC 77d64 0 {virtual override thunk({offset(-320)}, cocos2d::CCLayerColor::~CCLayerColor())}
PUBLIC 77d8c 0 cocos2d::CCTexture2D::~CCTexture2D()
PUBLIC 77ffc 0 cocos2d::CCTexture2D::~CCTexture2D()
PUBLIC 78020 0 cocos2d::CCTexture2D::CCTexture2D()
PUBLIC 7824c 0 cocos2d::CCImage::CCImage()
PUBLIC 78470 0 cocos2d::CCImage::~CCImage()
PUBLIC 786d8 0 cocos2d::CCImage::~CCImage()
PUBLIC 786fc 0 cocos2d::CCSpriteBatchNode::CCSpriteBatchNode()
PUBLIC 78968 0 cocos2d::CCSpriteBatchNode::~CCSpriteBatchNode()
PUBLIC 78c20 0 cocos2d::CCSpriteBatchNode::~CCSpriteBatchNode()
PUBLIC 78c44 0 cocos2d::CCDictionary::setObject(cocos2d::CCObject*, gd::string const&)
PUBLIC 78da4 0 tulip::hook::AbstractFunction::from<void, cocos2d::CCDictionary*, cocos2d::CCObject*, gd::string const&>(void (*)(cocos2d::CCDictionary*, cocos2d::CCObject*, gd::string const&))
PUBLIC 78ea4 0 cocos2d::CCDictionary::CCDictionary()
PUBLIC 790c8 0 cocos2d::CCDictionary::~CCDictionary()
PUBLIC 79330 0 cocos2d::CCDictionary::~CCDictionary()
PUBLIC 79354 0 cocos2d::CCDictionary::objectForKey(gd::string const&)
PUBLIC 794a4 0 tulip::hook::AbstractFunction::from<cocos2d::CCObject*, cocos2d::CCDictionary*, gd::string const&>(cocos2d::CCObject* (*)(cocos2d::CCDictionary*, gd::string const&))
PUBLIC 79548 0 cocos2d::CCDictionary::valueForKey(gd::string const&)
PUBLIC 79698 0 tulip::hook::AbstractFunction::from<cocos2d::CCString const*, cocos2d::CCDictionary*, gd::string const&>(cocos2d::CCString const* (*)(cocos2d::CCDictionary*, gd::string const&))
PUBLIC 7973c 0 FLAlertLayer::FLAlertLayer()
PUBLIC 797d8 0 {virtual override thunk({offset(-320)}, FLAlertLayer::~FLAlertLayer())}
PUBLIC 797e0 0 FLAlertLayer::~FLAlertLayer()
PUBLIC 79804 0 {virtual override thunk({offset(-320)}, FLAlertLayer::~FLAlertLayer())}
PUBLIC 7982c 0 CCAnimatedSprite::runAnimation(gd::string)
PUBLIC 799a4 0 tulip::hook::AbstractFunction::from<void, CCAnimatedSprite*, gd::string>(void (*)(CCAnimatedSprite*, gd::string))
PUBLIC 79a44 0 CCMenuItemSpriteExtra::create(cocos2d::CCNode*, cocos2d::CCObject*, void (cocos2d::CCObject::*)(cocos2d::CCObject*))
PUBLIC 79a58 0 CCMenuItemSpriteExtra::updateSprite()
PUBLIC 79b1c 0 CCMenuItemToggler::isToggled()
PUBLIC 79b24 0 SetIDPopup::create(int, int, int, gd::string, gd::string, bool, int, float, bool, bool)
PUBLIC 79d24 0 tulip::hook::AbstractFunction::from<SetIDPopup*, int, int, int, gd::string, gd::string, bool, int, float, bool, bool>(SetIDPopup* (*)(int, int, int, gd::string, gd::string, bool, int, float, bool, bool))
PUBLIC 7a3f0 0 GameManager::get()
PUBLIC 7a3f4 0 GameManager::keyForIcon(int, int)
PUBLIC 7a474 0 TextArea::create(gd::string, char const*, float, float, cocos2d::CCPoint, float, bool)
PUBLIC 7a63c 0 tulip::hook::AbstractFunction::from<TextArea*, gd::string, char const*, float, float, cocos2d::CCPoint, float, bool>(TextArea* (*)(gd::string, char const*, float, float, cocos2d::CCPoint, float, bool))
PUBLIC 7aad0 0 TextArea::setString(gd::string)
PUBLIC 7ac48 0 tulip::hook::AbstractFunction::from<void, TextArea*, gd::string>(void (*)(TextArea*, gd::string))
PUBLIC 7ace8 0 cocos2d::CCLayerColor::~CCLayerColor()
PUBLIC 7afcc 0 cocos2d::CCLayer::~CCLayer()
PUBLIC 7b2bc 0 cocos2d::CCNode::~CCNode()
PUBLIC 7b55c 0 FLAlertLayer::~FLAlertLayer()
PUBLIC 7b840 0 cocos2d::CCObject::~CCObject()
PUBLIC 7bd34 0 _ZN5geode15UnwrapExceptionC2IRPvQsr4implE18IsStringStreamableIT_EEENS_4impl5OkTagEOS4_
PUBLIC 7be88 0 std::__ndk1::__variant_detail::__visitation::__base::__dispatcher<(unsigned long)0>::__dispatch[abi:ne190000]<std::__ndk1::__variant_detail::__dtor<std::__ndk1::__variant_detail::__traits<void*, std::__ndk1::basic_string<char, std::__ndk1::char_traits<char>, std::__ndk1::allocator<char> > >, (std::__ndk1::__variant_detail::_Trait)1>::__destroy[abi:ne190000]()::{lambda(auto:1&)#1}, std::__ndk1::__variant_detail::__base<(std::__ndk1::__variant_detail::__traits<void*, std::__ndk1::basic_string<char, std::__ndk1::char_traits<char>, std::__ndk1::allocator<char> > >)1, std::__ndk1::__variant_detail::__traits, std::__ndk1::allocator<char> >&>(std::__ndk1::__variant_detail::__dtor<std::__ndk1::__variant_detail::__traits<void*, std::__ndk1::basic_string<char, std::__ndk1::char_traits<char>, std::__ndk1::allocator<char> > >, (std::__ndk1::__variant_detail::_Trait)1>, std::__ndk1::__variant_detail::__base<(std::__ndk1::__variant_detail::__traits<void*, std::__ndk1::basic_string<char, std::__ndk1::char_traits<char>, std::__ndk1::allocator<char> > >)1, std::__ndk1::__variant_detail::__traits, std::__ndk1::allocator<char> >&)
PUBLIC 7be8c 0 std::__ndk1::__variant_detail::__visitation::__base::__dispatcher<(unsigned long)1>::__dispatch[abi:ne190000]<std::__ndk1::__variant_detail::__dtor<std::__ndk1::__variant_detail::__traits<void*, std::__ndk1::basic_string<char, std::__ndk1::char_traits<char>, std::__ndk1::allocator<char> > >, (std::__ndk1::__variant_detail::_Trait)1>::__destroy[abi:ne190000]()::{lambda(auto:1&)#1}, std::__ndk1::__variant_detail::__base<(std::__ndk1::__variant_detail::__traits<void*, std::__ndk1::basic_string<char, std::__ndk1::char_traits<char>, std::__ndk1::allocator<char> > >)1, std::__ndk1::__variant_detail::__traits, std::__ndk1::allocator<char> >&>(std::__ndk1::__variant_detail::__dtor<std::__ndk1::__variant_detail::__traits<void*, std::__ndk1::basic_string<char, std::__ndk1::char_traits<char>, std::__ndk1::allocator<char> > >, (std::__ndk1::__variant_detail::_Trait)1>, std::__ndk1::__variant_detail::__base<(std::__ndk1::__variant_detail::__traits<void*, std::__ndk1::basic_string<char, std::__ndk1::char_traits<char>, std::__ndk1::allocator<char> > >)1, std::__ndk1::__variant_detail::__traits, std::__ndk1::allocator<char> >&)
PUBLIC 7bea0 0 std::__ndk1::__hash_table<std::__ndk1::__hash_value_type<void*, bool>, std::__ndk1::__unordered_map_hasher<void*, std::__ndk1::__hash_value_type<void*, bool>, std::__ndk1::hash<void*>, std::__ndk1::equal_to<void*>, true>, std::__ndk1::__unordered_map_equal<void*, std::__ndk1::__hash_value_type<void*, bool>, std::__ndk1::equal_to<void*>, std::__ndk1::hash<void*>, true>, std::__ndk1::allocator<std::__ndk1::__hash_value_type<void*, bool> > >::__emplace_unique_key_args<void*, std::__ndk1::piecewise_construct_t const&, std::__ndk1::tuple<void* const&>, std::__ndk1::tuple<> >(void* const&, std::__ndk1::piecewise_construct_t const&, std::__ndk1::tuple<void* const&>, std::__ndk1::tuple<>)
PUBLIC 7c3ac 0 __udivti3
PUBLIC 7c3b8 0 __udivmodti4
PUBLIC m 7c604 0 __eqtf2
PUBLIC 7c6a4 0 __unordtf2
PUBLIC 7c6dc 0 fmt::v11::detail::write_loc(fmt::v11::basic_appender<char>, fmt::v11::loc_value, fmt::v11::format_specs const&, fmt::v11::detail::locale_ref)
PUBLIC 7c970 0 fmt::v11::format_facet<std::__ndk1::locale>::~format_facet()
PUBLIC 7c9ec 0 fmt::v11::report_error(char const*)
PUBLIC 7ca3c 0 fmt::v11::format_error::runtime_error(char const*)
PUBLIC 7ca68 0 fmt::v11::format_facet<std::__ndk1::locale>::do_put(fmt::v11::basic_appender<char>, fmt::v11::loc_value, fmt::v11::format_specs const&) const
PUBLIC 7d228 0 fmt::v11::detail::loc_writer<char>::~loc_writer()
PUBLIC 7d28c 0 fmt::v11::vformat(fmt::v11::basic_string_view<char>, fmt::v11::basic_format_args<fmt::v11::context>)
PUBLIC 7d3d8 0 fmt::v11::detail::vformat_to<char>(fmt::v11::detail::buffer<char>&, fmt::v11::basic_string_view<char>, fmt::v11::detail::vformat_args<char>::type, fmt::v11::detail::locale_ref)
PUBLIC 7d948 0 fmt::v11::detail::is_printable(unsigned int)
PUBLIC 7db70 0 fmt::v11::detail::dragonbox::to_decimal<float>(float)
PUBLIC 7de4c 0 fmt::v11::detail::dragonbox::to_decimal<double>(double)
PUBLIC m 7e388 0 fmt::v11::detail::locale_ref::locale_ref<std::__ndk1::locale>()
PUBLIC 7e390 0 fmt::v11::format_facet<std::__ndk1::locale>::~format_facet()
PUBLIC 7e41c 0 fmt::v11::format_error::~format_error()
PUBLIC 7e440 0 fmt::v11::detail::copy_noinline<char, char const*, fmt::v11::basic_appender<char> >(char const*, char const*, fmt::v11::basic_appender<char>)
PUBLIC 7e590 0 fmt::v11::detail::default_arg_formatter<char>::operator()<bool>(bool)
PUBLIC 7e5f8 0 fmt::v11::detail::default_arg_formatter<char>::operator()<char>(char)
PUBLIC 7e688 0 fmt::v11::detail::default_arg_formatter<char>::operator()<float>(float)
PUBLIC 7e774 0 fmt::v11::detail::default_arg_formatter<char>::operator()<double>(double)
PUBLIC 7e860 0 fmt::v11::detail::default_arg_formatter<char>::operator()<char const*>(char const*)
PUBLIC 7e8a8 0 fmt::v11::detail::default_arg_formatter<char>::operator()<void const*>(void const*)
PUBLIC 7e940 0 _ZN3fmt3v116detail5writeIcNS0_14basic_appenderIcEEiTnNSt6__ndk19enable_ifIXaaaasr11is_integralIT1_EE5valuentsr3std7is_sameIS7_bEE5valuentsr3std7is_sameIS7_T_EE5valueEiE4typeELi0EEET0_SB_S7_
PUBLIC 7eba0 0 fmt::v11::detail::copy_noinline<char, char*, fmt::v11::basic_appender<char> >(char*, char*, fmt::v11::basic_appender<char>)
PUBLIC 7ecf0 0 _ZN3fmt3v116detail5writeIcNS0_14basic_appenderIcEEjTnNSt6__ndk19enable_ifIXaaaasr11is_integralIT1_EE5valuentsr3std7is_sameIS7_bEE5valuentsr3std7is_sameIS7_T_EE5valueEiE4typeELi0EEET0_SB_S7_
PUBLIC 7eed0 0 _ZN3fmt3v116detail5writeIcNS0_14basic_appenderIcEExTnNSt6__ndk19enable_ifIXaaaasr11is_integralIT1_EE5valuentsr3std7is_sameIS7_bEE5valuentsr3std7is_sameIS7_T_EE5valueEiE4typeELi0EEET0_SB_S7_
PUBLIC 7f154 0 _ZN3fmt3v116detail5writeIcNS0_14basic_appenderIcEEyTnNSt6__ndk19enable_ifIXaaaasr11is_integralIT1_EE5valuentsr3std7is_sameIS7_bEE5valuentsr3std7is_sameIS7_T_EE5valueEiE4typeELi0EEET0_SB_S7_
PUBLIC 7f35c 0 _ZN3fmt3v116detail5writeIcNS0_14basic_appenderIcEEnTnNSt6__ndk19enable_ifIXaaaasr11is_integralIT1_EE5valuentsr3std7is_sameIS7_bEE5valuentsr3std7is_sameIS7_T_EE5valueEiE4typeELi0EEET0_SB_S7_
PUBLIC 7f6bc 0 _ZN3fmt3v116detail5writeIcNS0_14basic_appenderIcEEoTnNSt6__ndk19enable_ifIXaaaasr11is_integralIT1_EE5valuentsr3std7is_sameIS7_bEE5valuentsr3std7is_sameIS7_T_EE5valueEiE4typeELi0EEET0_SB_S7_
PUBLIC 7f9d0 0 _ZN3fmt3v116detail5writeIcNS0_14basic_appenderIcEEbTnNSt6__ndk19enable_ifIXsr3std7is_sameIT1_bEE5valueEiE4typeELi0EEET0_SA_S7_RKNS0_12format_specsENS1_10locale_refE
PUBLIC 7fc84 0 fmt::v11::detail::write_int_noinline<char, fmt::v11::basic_appender<char>, unsigned int>(fmt::v11::basic_appender<char>, fmt::v11::detail::write_int_arg<unsigned int>, fmt::v11::format_specs const&, fmt::v11::detail::locale_ref)
PUBLIC 80a50 0 fmt::v11::detail::write_padded<char, (fmt::v11::align::type)1, fmt::v11::basic_appender<char>, fmt::v11::detail::write_char<char, fmt::v11::basic_appender<char> >(fmt::v11::basic_appender<char>, char, fmt::v11::format_specs const&)::{lambda(fmt::v11::basic_appender<char>&)#1}>(fmt::v11::basic_appender<char>, fmt::v11::format_specs const&, unsigned long, unsigned long, fmt::v11::detail::write_char<char, fmt::v11::basic_appender<char> >(fmt::v11::basic_appender<char>, char, fmt::v11::format_specs const&)::{lambda(fmt::v11::basic_appender<char>&)#1})
PUBLIC 80cb4 0 fmt::v11::detail::write_padded<char, (fmt::v11::align::type)1, fmt::v11::basic_appender<char>, fmt::v11::detail::write_nonfinite<char, fmt::v11::basic_appender<char> >(fmt::v11::basic_appender<char>, bool, fmt::v11::format_specs, fmt::v11::sign::type)::{lambda(fmt::v11::basic_appender<char>&)#1}>(fmt::v11::basic_appender<char>, fmt::v11::format_specs const&, unsigned long, unsigned long, fmt::v11::detail::write_nonfinite<char, fmt::v11::basic_appender<char> >(fmt::v11::basic_appender<char>, bool, fmt::v11::format_specs, fmt::v11::sign::type)::{lambda(fmt::v11::basic_appender<char>&)#1})
PUBLIC 80f0c 0 fmt::v11::detail::do_write_float<char, fmt::v11::basic_appender<char>, fmt::v11::detail::dragonbox::decimal_fp<float>, fmt::v11::detail::digit_grouping<char> >(fmt::v11::basic_appender<char>, fmt::v11::detail::dragonbox::decimal_fp<float> const&, fmt::v11::format_specs const&, fmt::v11::detail::float_specs, fmt::v11::detail::locale_ref)
PUBLIC 81b90 0 fmt::v11::detail::do_write_float<char, fmt::v11::basic_appender<char>, fmt::v11::detail::dragonbox::decimal_fp<float>, fmt::v11::detail::digit_grouping<char> >(fmt::v11::basic_appender<char>, fmt::v11::detail::dragonbox::decimal_fp<float> const&, fmt::v11::format_specs const&, fmt::v11::detail::float_specs, fmt::v11::detail::locale_ref)::{lambda(fmt::v11::basic_appender<char>(fmt::v11::basic_appender<char>))#1}::operator() const
PUBLIC 81ce4 0 fmt::v11::detail::digit_grouping<char>::digit_grouping(fmt::v11::detail::locale_ref, bool)
PUBLIC 81f4c 0 fmt::v11::detail::digit_grouping<char>::~digit_grouping()
PUBLIC 81f90 0 fmt::v11::detail::write_exponent<char, fmt::v11::basic_appender<char> >(int, fmt::v11::basic_appender<char>)
PUBLIC 82160 0 _ZN3fmt3v116detail17write_significandIcjTnNSt6__ndk19enable_ifIXsr3std11is_integralIT0_EE5valueEiE4typeELi0EEEPT_S9_S5_iiS8_
PUBLIC 822dc 0 fmt::v11::detail::digit_grouping<char>::apply<fmt::v11::basic_appender<char>, char>(fmt::v11::basic_appender<char>, fmt::v11::basic_string_view<char>) const
PUBLIC 82694 0 fmt::v11::basic_memory_buffer<int, (unsigned long)500, std::__ndk1::allocator<int> >::grow(fmt::v11::detail::buffer<int>&, unsigned long)
PUBLIC 82734 0 fmt::v11::detail::do_write_float<char, fmt::v11::basic_appender<char>, fmt::v11::detail::dragonbox::decimal_fp<double>, fmt::v11::detail::digit_grouping<char> >(fmt::v11::basic_appender<char>, fmt::v11::detail::dragonbox::decimal_fp<double> const&, fmt::v11::format_specs const&, fmt::v11::detail::float_specs, fmt::v11::detail::locale_ref)
PUBLIC 833f0 0 fmt::v11::detail::do_write_float<char, fmt::v11::basic_appender<char>, fmt::v11::detail::dragonbox::decimal_fp<double>, fmt::v11::detail::digit_grouping<char> >(fmt::v11::basic_appender<char>, fmt::v11::detail::dragonbox::decimal_fp<double> const&, fmt::v11::format_specs const&, fmt::v11::detail::float_specs, fmt::v11::detail::locale_ref)::{lambda(fmt::v11::basic_appender<char>(fmt::v11::basic_appender<char>))#1}::operator() const
PUBLIC 83548 0 _ZN3fmt3v116detail17write_significandIcmTnNSt6__ndk19enable_ifIXsr3std11is_integralIT0_EE5valueEiE4typeELi0EEEPT_S9_S5_iiS8_
PUBLIC 836d8 0 fmt::v11::detail::write_float<char, fmt::v11::basic_appender<char>, long double>(fmt::v11::basic_appender<char>, long double, fmt::v11::format_specs, fmt::v11::detail::locale_ref)
PUBLIC 841b8 0 fmt::v11::detail::write_padded<char, (fmt::v11::align::type)2, fmt::v11::basic_appender<char>, fmt::v11::detail::write_bytes<char, (fmt::v11::align::type)2, fmt::v11::basic_appender<char> >(fmt::v11::basic_appender<char>, fmt::v11::basic_string_view<char>, fmt::v11::format_specs const&)::{lambda(fmt::v11::basic_appender<char>&)#1}>(fmt::v11::basic_appender<char>, fmt::v11::format_specs const&, unsigned long, unsigned long, fmt::v11::detail::write_bytes<char, (fmt::v11::align::type)2, fmt::v11::basic_appender<char> >(fmt::v11::basic_appender<char>, fmt::v11::basic_string_view<char>, fmt::v11::format_specs const&)::{lambda(fmt::v11::basic_appender<char>&)#1})
PUBLIC 843ac 0 fmt::v11::detail::format_dragon(fmt::v11::detail::basic_fp<unsigned __int128>, unsigned int, int, fmt::v11::detail::buffer<char>&, int&)
PUBLIC 857d0 0 fmt::v11::detail::bigint::operator<<=(int)
PUBLIC 858f4 0 fmt::v11::detail::bigint::assign_pow10(int)
PUBLIC 86050 0 fmt::v11::detail::bigint::divmod_assign(fmt::v11::detail::bigint const&)
PUBLIC 86374 0 fmt::v11::basic_memory_buffer<unsigned int, (unsigned long)32, std::__ndk1::allocator<unsigned int> >::grow(fmt::v11::detail::buffer<unsigned int>&, unsigned long)
PUBLIC 86414 0 fmt::v11::detail::do_write_float<char, fmt::v11::basic_appender<char>, fmt::v11::detail::big_decimal_fp, fmt::v11::detail::digit_grouping<char> >(fmt::v11::basic_appender<char>, fmt::v11::detail::big_decimal_fp const&, fmt::v11::format_specs const&, fmt::v11::detail::float_specs, fmt::v11::detail::locale_ref)
PUBLIC 872f0 0 fmt::v11::detail::do_write_float<char, fmt::v11::basic_appender<char>, fmt::v11::detail::big_decimal_fp, fmt::v11::detail::digit_grouping<char> >(fmt::v11::basic_appender<char>, fmt::v11::detail::big_decimal_fp const&, fmt::v11::format_specs const&, fmt::v11::detail::float_specs, fmt::v11::detail::locale_ref)::{lambda(fmt::v11::basic_appender<char>(fmt::v11::basic_appender<char>))#1}::operator() const
PUBLIC 87450 0 fmt::v11::detail::write_padded<char, (fmt::v11::align::type)2, fmt::v11::basic_appender<char>, fmt::v11::detail::write_ptr<char, fmt::v11::basic_appender<char>, unsigned long>(fmt::v11::basic_appender<char>, unsigned long, fmt::v11::format_specs const*)::{lambda(fmt::v11::basic_appender<char>&)#1}>(fmt::v11::basic_appender<char>, fmt::v11::format_specs const&, unsigned long, unsigned long, fmt::v11::detail::write_ptr<char, fmt::v11::basic_appender<char>, unsigned long>(fmt::v11::basic_appender<char>, unsigned long, fmt::v11::format_specs const*)::{lambda(fmt::v11::basic_appender<char>&)#1})
PUBLIC 87664 0 fmt::v11::detail::parse_replacement_field<char, fmt::v11::detail::vformat_to<char>(fmt::v11::detail::buffer<char>&, fmt::v11::basic_string_view<char>, fmt::v11::detail::vformat_args<char>::type, fmt::v11::detail::locale_ref)::format_handler&>(char const*, char const*, fmt::v11::detail::vformat_to<char>(fmt::v11::detail::buffer<char>&, fmt::v11::basic_string_view<char>, fmt::v11::detail::vformat_args<char>::type, fmt::v11::detail::locale_ref)::format_handler&)
PUBLIC 89198 0 fmt::v11::detail::write_int_noinline<char, fmt::v11::basic_appender<char>, unsigned long>(fmt::v11::basic_appender<char>, fmt::v11::detail::write_int_arg<unsigned long>, fmt::v11::format_specs const&, fmt::v11::detail::locale_ref)
PUBLIC 89ff0 0 fmt::v11::detail::write_int_noinline<char, fmt::v11::basic_appender<char>, unsigned __int128>(fmt::v11::basic_appender<char>, fmt::v11::detail::write_int_arg<unsigned __int128>, fmt::v11::format_specs const&, fmt::v11::detail::locale_ref)
PUBLIC 8b080 0 _ZN3fmt3v116detail15format_hexfloatIdTnNSt6__ndk19enable_ifIXntsr16is_double_doubleIT_EE5valueEiE4typeELi0EEEvS5_NS0_12format_specsERNS1_6bufferIcEE
PUBLIC 8b5a0 0 fmt::v11::detail::format_float<double>(double, int, fmt::v11::detail::float_specs, fmt::v11::detail::buffer<char>&)
PUBLIC 8bfec 0 fmt::v11::detail::write_int<fmt::v11::basic_appender<char>, unsigned long, char>(fmt::v11::basic_appender<char>, unsigned long, unsigned int, fmt::v11::format_specs const&, fmt::v11::detail::digit_grouping<char> const&)
PUBLIC 8c568 0 fmt::v11::detail::write_int<fmt::v11::basic_appender<char>, unsigned __int128, char>(fmt::v11::basic_appender<char>, unsigned __int128, unsigned int, fmt::v11::format_specs const&, fmt::v11::detail::digit_grouping<char> const&)
PUBLIC 8cbf0 0 <.plt ELF section in hiimjustin000.more_icons.android64.so>
STACK CFI INIT 35b30 10 .cfa: sp 0 +
STACK CFI INIT 35b40 8 .cfa: sp 0 +
STACK CFI INIT 35b48 8 .cfa: sp 0 +
STACK CFI INIT 35b50 14 .cfa: sp 0 +
STACK CFI INIT 35b64 1c .cfa: sp 0 +
STACK CFI INIT 35b80 10 .cfa: sp 0 +
STACK CFI INIT 35b90 134 .cfa: sp 0 +
STACK CFI INIT 35cc4 84 .cfa: sp 0 +
STACK CFI INIT 35d48 f4 .cfa: sp 0 +
STACK CFI INIT 35e3c a8 .cfa: sp 0 +
STACK CFI INIT 35ee4 7c .cfa: sp 0 +
STACK CFI INIT 35f60 14 .cfa: sp 0 +
STACK CFI INIT 35f74 40 .cfa: sp 0 +
STACK CFI INIT 35fb4 28 .cfa: sp 0 +
STACK CFI INIT 35fdc 190 .cfa: sp 0 +
STACK CFI INIT 3616c 2c8 .cfa: sp 0 +
STACK CFI INIT 36434 8 .cfa: sp 0 +
STACK CFI INIT 3643c 8 .cfa: sp 0 +
STACK CFI INIT 36444 44 .cfa: sp 0 +
STACK CFI INIT 36488 e8 .cfa: sp 0 +
STACK CFI INIT 36570 e8 .cfa: sp 0 +
STACK CFI INIT 36658 14 .cfa: sp 0 +
STACK CFI INIT 3666c 10 .cfa: sp 0 +
STACK CFI INIT 3667c 10 .cfa: sp 0 +
STACK CFI INIT 3668c f0 .cfa: sp 0 +
STACK CFI INIT 3677c 44 .cfa: sp 0 +
STACK CFI INIT 367c0 c .cfa: sp 0 +
STACK CFI INIT 367cc c .cfa: sp 0 +
STACK CFI INIT 367d8 2c .cfa: sp 0 +
STACK CFI INIT 36804 23c .cfa: sp 0 +
STACK CFI INIT 36a40 c .cfa: sp 0 +
STACK CFI INIT 36a4c 120 .cfa: sp 0 +
STACK CFI INIT 36b6c 494 .cfa: sp 0 +
STACK CFI INIT 37000 b78 .cfa: sp 0 +
STACK CFI INIT 37b78 134 .cfa: sp 0 +
STACK CFI INIT 37cac 210 .cfa: sp 0 +
STACK CFI INIT 37ebc 38c .cfa: sp 0 +
STACK CFI INIT 38248 1c8 .cfa: sp 0 +
STACK CFI INIT 38410 9c4 .cfa: sp 0 +
STACK CFI INIT 38dd4 2d4 .cfa: sp 0 +
STACK CFI INIT 390a8 130 .cfa: sp 0 +
STACK CFI INIT 391d8 120 .cfa: sp 0 +
STACK CFI INIT 392f8 1c8 .cfa: sp 0 +
STACK CFI INIT 394c0 168 .cfa: sp 0 +
STACK CFI INIT 39628 fc .cfa: sp 0 +
STACK CFI INIT 39724 30 .cfa: sp 0 +
STACK CFI INIT 39880 5c .cfa: sp 0 +
STACK CFI 39884 .cfa: sp 16 +
STACK CFI 39888 .cfa: x29 16 + .ra: .cfa -8 + ^ x29: .cfa -16 + ^
STACK CFI 398cc .cfa: sp 16 +
STACK CFI 398d0 .cfa: sp 0 +
STACK CFI 398d4 .cfa: sp 16 +
STACK CFI 398d8 .cfa: sp 0 +
STACK CFI INIT 398dc 7c .cfa: sp 0 +
STACK CFI 398e0 .cfa: sp 48 +
STACK CFI 398ec .cfa: x29 48 + x19: .cfa -8 + ^ x20: .cfa -16 + ^ x21: .cfa -32 + ^ .ra: .cfa -40 + ^ x29: .cfa -48 + ^
STACK CFI 39938 .cfa: sp 48 +
STACK CFI 39944 .cfa: sp 0 +
STACK CFI 39948 .cfa: sp 48 +
STACK CFI 39954 .cfa: sp 0 +
STACK CFI INIT 39958 5c .cfa: sp 0 +
STACK CFI 3995c .cfa: sp 16 +
STACK CFI 39960 .cfa: x29 16 + .ra: .cfa -8 + ^ x29: .cfa -16 + ^
STACK CFI 399a4 .cfa: sp 16 +
STACK CFI 399a8 .cfa: sp 0 +
STACK CFI 399ac .cfa: sp 16 +
STACK CFI 399b0 .cfa: sp 0 +
STACK CFI INIT 399b4 5c .cfa: sp 0 +
STACK CFI 399b8 .cfa: sp 16 +
STACK CFI 399bc .cfa: x29 16 + .ra: .cfa -8 + ^ x29: .cfa -16 + ^
STACK CFI 39a00 .cfa: sp 16 +
STACK CFI 39a04 .cfa: sp 0 +
STACK CFI 39a08 .cfa: sp 16 +
STACK CFI 39a0c .cfa: sp 0 +
STACK CFI INIT 39a10 5c .cfa: sp 0 +
STACK CFI 39a14 .cfa: sp 16 +
STACK CFI 39a18 .cfa: x29 16 + .ra: .cfa -8 + ^ x29: .cfa -16 + ^
STACK CFI 39a5c .cfa: sp 16 +
STACK CFI 39a60 .cfa: sp 0 +
STACK CFI 39a64 .cfa: sp 16 +
STACK CFI 39a68 .cfa: sp 0 +
STACK CFI INIT 39a6c 5c .cfa: sp 0 +
STACK CFI 39a70 .cfa: sp 16 +
STACK CFI 39a74 .cfa: x29 16 + .ra: .cfa -8 + ^ x29: .cfa -16 + ^
STACK CFI 39ab8 .cfa: sp 16 +
STACK CFI 39abc .cfa: sp 0 +
STACK CFI 39ac0 .cfa: sp 16 +
STACK CFI 39ac4 .cfa: sp 0 +
STACK CFI INIT 39ac8 5c .cfa: sp 0 +
STACK CFI 39acc .cfa: sp 16 +
STACK CFI 39ad0 .cfa: x29 16 + .ra: .cfa -8 + ^ x29: .cfa -16 + ^
STACK CFI 39b14 .cfa: sp 16 +
STACK CFI 39b18 .cfa: sp 0 +
STACK CFI 39b1c .cfa: sp 16 +
STACK CFI 39b20 .cfa: sp 0 +
STACK CFI INIT 39b24 5c .cfa: sp 0 +
STACK CFI 39b28 .cfa: sp 16 +
STACK CFI 39b2c .cfa: x29 16 + .ra: .cfa -8 + ^ x29: .cfa -16 + ^
STACK CFI 39b70 .cfa: sp 16 +
STACK CFI 39b74 .cfa: sp 0 +
STACK CFI 39b78 .cfa: sp 16 +
STACK CFI 39b7c .cfa: sp 0 +
STACK CFI INIT 39b80 5c .cfa: sp 0 +
STACK CFI 39b84 .cfa: sp 16 +
STACK CFI 39b88 .cfa: x29 16 + .ra: .cfa -8 + ^ x29: .cfa -16 + ^
STACK CFI 39bcc .cfa: sp 16 +
STACK CFI 39bd0 .cfa: sp 0 +
STACK CFI 39bd4 .cfa: sp 16 +
STACK CFI 39bd8 .cfa: sp 0 +
STACK CFI INIT 39bdc 5c .cfa: sp 0 +
STACK CFI 39be0 .cfa: sp 16 +
STACK CFI 39be4 .cfa: x29 16 + .ra: .cfa -8 + ^ x29: .cfa -16 + ^
STACK CFI 39c28 .cfa: sp 16 +
STACK CFI 39c2c .cfa: sp 0 +
STACK CFI 39c30 .cfa: sp 16 +
STACK CFI 39c34 .cfa: sp 0 +
STACK CFI INIT 39c38 5c .cfa: sp 0 +
STACK CFI 39c3c .cfa: sp 16 +
STACK CFI 39c40 .cfa: x29 16 + .ra: .cfa -8 + ^ x29: .cfa -16 + ^
STACK CFI 39c84 .cfa: sp 16 +
STACK CFI 39c88 .cfa: sp 0 +
STACK CFI 39c8c .cfa: sp 16 +
STACK CFI 39c90 .cfa: sp 0 +
STACK CFI INIT 39c94 158 .cfa: sp 0 +
STACK CFI 39d74 .cfa: sp 32 +
STACK CFI 39d7c .cfa: x29 32 + x19: .cfa -16 + ^ .ra: .cfa -24 + ^ x29: .cfa -32 + ^
STACK CFI 39d94 .cfa: sp 32 +
STACK CFI 39d9c .cfa: sp 0 +
STACK CFI 39da0 .cfa: x29 32 +
STACK CFI 39de0 .cfa: sp 32 +
STACK CFI 39de8 .cfa: sp 0 +
STACK CFI INIT 3a3bc 88 .cfa: sp 0 +
STACK CFI 3a3c0 .cfa: sp 64 +
STACK CFI 3a3d0 .cfa: x29 64 + x19: .cfa -8 + ^ x20: .cfa -16 + ^ x21: .cfa -24 + ^ x22: .cfa -32 + ^ x23: .cfa -48 + ^ .ra: .cfa -56 + ^ x29: .cfa -64 + ^
STACK CFI 3a418 .cfa: sp 64 +
STACK CFI 3a428 .cfa: sp 0 +
STACK CFI 3a42c .cfa: x29 64 +
STACK CFI 3a430 .cfa: sp 64 +
STACK CFI 3a440 .cfa: sp 0 +
STACK CFI INIT 3a5a4 fc .cfa: sp 0 +
STACK CFI 3a5c0 .cfa: sp 48 +
STACK CFI 3a5cc .cfa: x29 48 + x19: .cfa -8 + ^ x20: .cfa -16 + ^ x21: .cfa -24 + ^ x22: .cfa -32 + ^ .ra: .cfa -40 + ^ x29: .cfa -48 + ^
STACK CFI 3a670 .cfa: sp 48 +
STACK CFI 3a67c .cfa: sp 0 +
STACK CFI 3a688 .cfa: x29 48 +
STACK CFI 3a690 .cfa: sp 48 +
STACK CFI 3a69c .cfa: sp 0 +
STACK CFI INIT 3a6a0 84 .cfa: sp 0 +
STACK CFI INIT 3bb8c 10 .cfa: sp 0 +
STACK CFI 3bb90 .cfa: sp 16 +
STACK CFI 3bb94 .cfa: x29 16 + .ra: .cfa -8 + ^ x29: .cfa -16 + ^
STACK CFI INIT 3bb9c 14 .cfa: sp 0 +
STACK CFI 3bba0 .cfa: sp 16 +
STACK CFI 3bba4 .cfa: x29 16 + .ra: .cfa -8 + ^ x29: .cfa -16 + ^
STACK CFI INIT 3bc00 30 .cfa: sp 0 +
STACK CFI 3bc04 .cfa: sp 32 +
STACK CFI 3bc0c .cfa: x29 32 + x19: .cfa -16 + ^ .ra: .cfa -24 + ^ x29: .cfa -32 + ^
STACK CFI 3bc24 .cfa: sp 32 +
STACK CFI 3bc2c .cfa: sp 0 +
STACK CFI INIT 3bc30 34 .cfa: sp 0 +
STACK CFI 3bc34 .cfa: sp 32 +
STACK CFI 3bc3c .cfa: x29 32 + x19: .cfa -16 + ^ .ra: .cfa -24 + ^ x29: .cfa -32 + ^
STACK CFI INIT 3bd4c 34 .cfa: sp 0 +
STACK CFI 3bd50 .cfa: sp 16 +
STACK CFI 3bd54 .cfa: x29 16 + .ra: .cfa -8 + ^ x29: .cfa -16 + ^
STACK CFI INIT 3bd80 4 .cfa: sp 0 +
STACK CFI INIT 3bd84 14 .cfa: sp 0 +
STACK CFI INIT 3bd98 94 .cfa: sp 0 +
STACK CFI 3bd9c .cfa: sp 48 +
STACK CFI 3bda8 .cfa: x29 48 + x19: .cfa -8 + ^ x20: .cfa -16 + ^ x21: .cfa -24 + ^ x22: .cfa -32 + ^ .ra: .cfa -40 + ^ x29: .cfa -48 + ^
STACK CFI 3bdc0 .cfa: sp 48 +
STACK CFI 3bdcc .cfa: sp 0 +
STACK CFI 3bdd0 .cfa: x29 48 +
STACK CFI 3be14 .cfa: sp 48 +
STACK CFI 3be20 .cfa: sp 0 +
STACK CFI 3be24 .cfa: x29 48 +
STACK CFI INIT 3be2c 14 .cfa: sp 0 +
STACK CFI INIT 3be40 14 .cfa: sp 0 +
STACK CFI INIT 3c03c 18 .cfa: sp 0 +
STACK CFI 3c040 .cfa: sp 16 +
STACK CFI 3c044 .cfa: x29 16 + .ra: .cfa -8 + ^ x29: .cfa -16 + ^
STACK CFI 3c04c .cfa: sp 16 +
STACK CFI 3c050 .cfa: sp 0 +
STACK CFI INIT 3c054 4 .cfa: sp 0 +
STACK CFI INIT 3c058 4 .cfa: sp 0 +
STACK CFI INIT 3c05c 34 .cfa: sp 0 +
STACK CFI 3c060 .cfa: sp 32 +
STACK CFI 3c068 .cfa: x29 32 + x19: .cfa -16 + ^ .ra: .cfa -24 + ^ x29: .cfa -32 + ^
STACK CFI 3c084 .cfa: sp 32 +
STACK CFI 3c08c .cfa: sp 0 +
STACK CFI INIT 3c090 14 .cfa: sp 0 +
STACK CFI INIT 3c0a4 4 .cfa: sp 0 +
STACK CFI INIT 3c0a8 4 .cfa: sp 0 +
STACK CFI INIT 3c0ac 1c .cfa: sp 0 +
STACK CFI INIT 3c0c8 1c .cfa: sp 0 +
STACK CFI INIT 3c0e4 c .cfa: sp 0 +
STACK CFI INIT 3c0f0 b0 .cfa: sp 0 +
STACK CFI 3c0f4 .cfa: sp 80 +
STACK CFI 3c104 .cfa: x29 48 + x19: .cfa -8 + ^ x20: .cfa -16 + ^ x21: .cfa -32 + ^ .ra: .cfa -40 + ^ x29: .cfa -48 + ^
STACK CFI 3c188 .cfa: sp 80 +
STACK CFI 3c198 .cfa: sp 0 +
STACK CFI 3c19c .cfa: x29 48 +
STACK CFI INIT 3c524 6c .cfa: sp 0 +
STACK CFI 3c528 .cfa: sp 32 +
STACK CFI 3c530 .cfa: x29 32 + x19: .cfa -16 + ^ .ra: .cfa -24 + ^ x29: .cfa -32 + ^
STACK CFI 3c584 .cfa: sp 32 +
STACK CFI 3c58c .cfa: sp 0 +
STACK CFI INIT 3c590 74 .cfa: sp 0 +
STACK CFI 3c594 .cfa: sp 32 +
STACK CFI 3c59c .cfa: x29 32 + x19: .cfa -16 + ^ .ra: .cfa -24 + ^ x29: .cfa -32 + ^
STACK CFI 3c5f8 .cfa: sp 32 +
STACK CFI 3c600 .cfa: sp 0 +
STACK CFI INIT 3c858 44c .cfa: sp 0 +
STACK CFI INIT 3d164 50 .cfa: sp 0 +
STACK CFI 3d188 .cfa: sp 32 +
STACK CFI 3d190 .cfa: x29 32 + x19: .cfa -16 + ^ .ra: .cfa -24 + ^ x29: .cfa -32 + ^
STACK CFI 3d1a4 .cfa: sp 32 +
STACK CFI 3d1ac .cfa: sp 0 +
STACK CFI INIT 3d1b4 1ac .cfa: sp 0 +
STACK CFI 3d1b8 .cfa: sp 32 +
STACK CFI 3d1c0 .cfa: x29 32 + x19: .cfa -8 + ^ x20: .cfa -16 + ^ .ra: .cfa -24 + ^ x29: .cfa -32 + ^
STACK CFI 3d2b0 .cfa: sp 32 +
STACK CFI 3d2b8 .cfa: sp 0 +
STACK CFI 3d2bc .cfa: x29 32 +
STACK CFI INIT 3d360 104 .cfa: sp 0 +
STACK CFI 3d364 .cfa: sp 64 +
STACK CFI 3d374 .cfa: x29 64 + x19: .cfa -8 + ^ x20: .cfa -16 + ^ x21: .cfa -24 + ^ x22: .cfa -32 + ^ x23: .cfa -48 + ^ .ra: .cfa -56 + ^ x29: .cfa -64 + ^
STACK CFI 3d3d0 .cfa: sp 64 +
STACK CFI 3d3e0 .cfa: sp 0 +
STACK CFI 3d3e4 .cfa: x29 64 +
STACK CFI 3d400 .cfa: sp 64 +
STACK CFI 3d410 .cfa: sp 0 +
STACK CFI 3d414 .cfa: x29 64 +
STACK CFI 3d450 .cfa: sp 64 +
STACK CFI 3d460 .cfa: sp 0 +
STACK CFI INIT 3d464 34 .cfa: sp 0 +
STACK CFI 3d468 .cfa: sp 16 +
STACK CFI 3d46c .cfa: x29 16 + .ra: .cfa -8 + ^ x29: .cfa -16 + ^
STACK CFI INIT 3d498 24 .cfa: sp 0 +
STACK CFI 3d49c .cfa: sp 32 +
STACK CFI 3d4a4 .cfa: x29 32 + x19: .cfa -16 + ^ .ra: .cfa -24 + ^ x29: .cfa -32 + ^
STACK CFI 3d4b0 .cfa: sp 32 +
STACK CFI 3d4b8 .cfa: sp 0 +
STACK CFI INIT 3d4bc 18 .cfa: sp 0 +
STACK CFI 3d4c0 .cfa: sp 16 +
STACK CFI 3d4c4 .cfa: x29 16 + .ra: .cfa -8 + ^ x29: .cfa -16 + ^
STACK CFI 3d4cc .cfa: sp 16 +
STACK CFI 3d4d0 .cfa: sp 0 +
STACK CFI INIT 3d4d4 4 .cfa: sp 0 +
STACK CFI INIT 3d4d8 4 .cfa: sp 0 +
STACK CFI INIT 3d4dc 34 .cfa: sp 0 +
STACK CFI 3d4e0 .cfa: sp 32 +
STACK CFI 3d4e8 .cfa: x29 32 + x19: .cfa -16 + ^ .ra: .cfa -24 + ^ x29: .cfa -32 + ^
STACK CFI 3d504 .cfa: sp 32 +
STACK CFI 3d50c .cfa: sp 0 +
STACK CFI INIT 3d510 14 .cfa: sp 0 +
STACK CFI INIT 3d524 4 .cfa: sp 0 +
STACK CFI INIT 3d528 4 .cfa: sp 0 +
STACK CFI INIT 3d52c 1c .cfa: sp 0 +
STACK CFI INIT 3d548 1c .cfa: sp 0 +
STACK CFI INIT 3d564 c .cfa: sp 0 +
STACK CFI INIT 3d570 b0 .cfa: sp 0 +
STACK CFI 3d574 .cfa: sp 80 +
STACK CFI 3d584 .cfa: x29 48 + x19: .cfa -8 + ^ x20: .cfa -16 + ^ x21: .cfa -32 + ^ .ra: .cfa -40 + ^ x29: .cfa -48 + ^
STACK CFI 3d608 .cfa: sp 80 +
STACK CFI 3d618 .cfa: sp 0 +
STACK CFI 3d61c .cfa: x29 48 +
STACK CFI INIT 3d9a4 6c .cfa: sp 0 +
STACK CFI 3d9a8 .cfa: sp 32 +
STACK CFI 3d9b0 .cfa: x29 32 + x19: .cfa -16 + ^ .ra: .cfa -24 + ^ x29: .cfa -32 + ^
STACK CFI 3da04 .cfa: sp 32 +
STACK CFI 3da0c .cfa: sp 0 +
STACK CFI INIT 3da10 74 .cfa: sp 0 +
STACK CFI 3da14 .cfa: sp 32 +
STACK CFI 3da1c .cfa: x29 32 + x19: .cfa -16 + ^ .ra: .cfa -24 + ^ x29: .cfa -32 + ^
STACK CFI 3da78 .cfa: sp 32 +
STACK CFI 3da80 .cfa: sp 0 +
STACK CFI INIT 3da84 18 .cfa: sp 0 +
STACK CFI 3da88 .cfa: sp 16 +
STACK CFI 3da8c .cfa: x29 16 + .ra: .cfa -8 + ^ x29: .cfa -16 + ^
STACK CFI 3da94 .cfa: sp 16 +
STACK CFI 3da98 .cfa: sp 0 +
STACK CFI INIT 3da9c 4 .cfa: sp 0 +
STACK CFI INIT 3daa0 4 .cfa: sp 0 +
STACK CFI INIT 3daa4 34 .cfa: sp 0 +
STACK CFI 3daa8 .cfa: sp 32 +
STACK CFI 3dab0 .cfa: x29 32 + x19: .cfa -16 + ^ .ra: .cfa -24 + ^ x29: .cfa -32 + ^
STACK CFI 3dacc .cfa: sp 32 +
STACK CFI 3dad4 .cfa: sp 0 +
STACK CFI INIT 3dad8 14 .cfa: sp 0 +
STACK CFI INIT 3daec 4 .cfa: sp 0 +
STACK CFI INIT 3daf0 4 .cfa: sp 0 +
STACK CFI INIT 3daf4 1c .cfa: sp 0 +
STACK CFI INIT 3db10 1c .cfa: sp 0 +
STACK CFI INIT 3db2c c .cfa: sp 0 +
STACK CFI INIT 3db38 b0 .cfa: sp 0 +
STACK CFI 3db3c .cfa: sp 80 +
STACK CFI 3db4c .cfa: x29 48 + x19: .cfa -8 + ^ x20: .cfa -16 + ^ x21: .cfa -32 + ^ .ra: .cfa -40 + ^ x29: .cfa -48 + ^
STACK CFI 3dbd0 .cfa: sp 80 +
STACK CFI 3dbe0 .cfa: sp 0 +
STACK CFI 3dbe4 .cfa: x29 48 +
STACK CFI INIT 3df6c 6c .cfa: sp 0 +
STACK CFI 3df70 .cfa: sp 32 +
STACK CFI 3df78 .cfa: x29 32 + x19: .cfa -16 + ^ .ra: .cfa -24 + ^ x29: .cfa -32 + ^
STACK CFI 3dfcc .cfa: sp 32 +
STACK CFI 3dfd4 .cfa: sp 0 +
STACK CFI INIT 3dfd8 74 .cfa: sp 0 +
STACK CFI 3dfdc .cfa: sp 32 +
STACK CFI 3dfe4 .cfa: x29 32 + x19: .cfa -16 + ^ .ra: .cfa -24 + ^ x29: .cfa -32 + ^
STACK CFI 3e040 .cfa: sp 32 +
STACK CFI 3e048 .cfa: sp 0 +
STACK CFI INIT 3e468 60 .cfa: sp 0 +
STACK CFI 3e478 .cfa: sp 32 +
STACK CFI 3e480 .cfa: x29 32 + x19: .cfa -8 + ^ x20: .cfa -16 + ^ .ra: .cfa -24 + ^ x29: .cfa -32 + ^
STACK CFI 3e4bc .cfa: sp 32 +
STACK CFI 3e4c4 .cfa: sp 0 +
STACK CFI INIT 3e4c8 ac .cfa: sp 0 +
STACK CFI 3e4cc .cfa: sp 64 +
STACK CFI 3e4dc .cfa: x29 64 + x19: .cfa -8 + ^ x20: .cfa -16 + ^ x21: .cfa -24 + ^ x22: .cfa -32 + ^ x23: .cfa -48 + ^ .ra: .cfa -56 + ^ x29: .cfa -64 + ^
STACK CFI 3e558 .cfa: sp 64 +
STACK CFI 3e568 .cfa: sp 0 +
STACK CFI 3e56c .cfa: x29 64 +
STACK CFI INIT 3e574 13c .cfa: sp 0 +
STACK CFI 3e578 .cfa: sp 64 +
STACK CFI 3e588 .cfa: x29 64 + x19: .cfa -8 + ^ x20: .cfa -16 + ^ x21: .cfa -24 + ^ x22: .cfa -32 + ^ x23: .cfa -40 + ^ x24: .cfa -48 + ^ .ra: .cfa -56 + ^ x29: .cfa -64 + ^
STACK CFI 3e668 .cfa: sp 64 +
STACK CFI 3e678 .cfa: sp 0 +
STACK CFI 3e67c .cfa: x29 64 +
STACK CFI INIT 3e6b0 14 .cfa: sp 0 +
STACK CFI 3e6b4 .cfa: sp 16 +
STACK CFI 3e6b8 .cfa: x29 16 + .ra: .cfa -8 + ^ x29: .cfa -16 + ^
STACK CFI INIT 3e6c4 b0 .cfa: sp 0 +
STACK CFI 3e6c8 .cfa: sp 80 +
STACK CFI 3e6d8 .cfa: x29 48 + x19: .cfa -8 + ^ x20: .cfa -16 + ^ x21: .cfa -32 + ^ .ra: .cfa -40 + ^ x29: .cfa -48 + ^
STACK CFI 3e75c .cfa: sp 80 +
STACK CFI 3e76c .cfa: sp 0 +
STACK CFI 3e770 .cfa: x29 48 +
STACK CFI INIT 3ea2c 6c .cfa: sp 0 +
STACK CFI 3ea30 .cfa: sp 32 +
STACK CFI 3ea38 .cfa: x29 32 + x19: .cfa -16 + ^ .ra: .cfa -24 + ^ x29: .cfa -32 + ^
STACK CFI 3ea8c .cfa: sp 32 +
STACK CFI 3ea94 .cfa: sp 0 +
STACK CFI INIT 3ea98 74 .cfa: sp 0 +
STACK CFI 3ea9c .cfa: sp 32 +
STACK CFI 3eaa4 .cfa: x29 32 + x19: .cfa -16 + ^ .ra: .cfa -24 + ^ x29: .cfa -32 + ^
STACK CFI 3eb00 .cfa: sp 32 +
STACK CFI 3eb08 .cfa: sp 0 +
STACK CFI INIT 3eb0c 4 .cfa: sp 0 +
STACK CFI INIT 3eb10 4 .cfa: sp 0 +
STACK CFI INIT 3eb14 34 .cfa: sp 0 +
STACK CFI 3eb18 .cfa: sp 32 +
STACK CFI 3eb20 .cfa: x29 32 + x19: .cfa -16 + ^ .ra: .cfa -24 + ^ x29: .cfa -32 + ^
STACK CFI 3eb3c .cfa: sp 32 +
STACK CFI 3eb44 .cfa: sp 0 +
STACK CFI INIT 3eb48 14 .cfa: sp 0 +
STACK CFI INIT 3eb5c 4 .cfa: sp 0 +
STACK CFI INIT 3eb60 4 .cfa: sp 0 +
STACK CFI INIT 3eb64 14 .cfa: sp 0 +
STACK CFI INIT 3eb78 1c .cfa: sp 0 +
STACK CFI INIT 3eb94 c .cfa: sp 0 +
STACK CFI INIT 3eba0 38 .cfa: sp 0 +
STACK CFI 3ebc0 .cfa: sp 16 +
STACK CFI 3ebc4 .cfa: x29 16 + .ra: .cfa -8 + ^ x29: .cfa -16 + ^
STACK CFI 3ebcc .cfa: sp 16 +
STACK CFI 3ebd0 .cfa: sp 0 +
STACK CFI INIT 3ebd8 4 .cfa: sp 0 +
STACK CFI INIT 3ebdc 4 .cfa: sp 0 +
STACK CFI INIT 3ebe0 34 .cfa: sp 0 +
STACK CFI 3ebe4 .cfa: sp 32 +
STACK CFI 3ebec .cfa: x29 32 + x19: .cfa -16 + ^ .ra: .cfa -24 + ^ x29: .cfa -32 + ^
STACK CFI 3ec08 .cfa: sp 32 +
STACK CFI 3ec10 .cfa: sp 0 +
STACK CFI INIT 3ec14 14 .cfa: sp 0 +
STACK CFI INIT 3ec28 4 .cfa: sp 0 +
STACK CFI INIT 3ec2c 4 .cfa: sp 0 +
STACK CFI INIT 3ec30 14 .cfa: sp 0 +
STACK CFI INIT 3ec44 1c .cfa: sp 0 +
STACK CFI INIT 3ec60 c .cfa: sp 0 +
STACK CFI INIT 3ec6c b0 .cfa: sp 0 +
STACK CFI 3ec70 .cfa: sp 80 +
STACK CFI 3ec80 .cfa: x29 48 + x19: .cfa -8 + ^ x20: .cfa -16 + ^ x21: .cfa -32 + ^ .ra: .cfa -40 + ^ x29: .cfa -48 + ^
STACK CFI 3ed04 .cfa: sp 80 +
STACK CFI 3ed14 .cfa: sp 0 +
STACK CFI 3ed18 .cfa: x29 48 +
STACK CFI INIT 3f08c 6c .cfa: sp 0 +
STACK CFI 3f090 .cfa: sp 32 +
STACK CFI 3f098 .cfa: x29 32 + x19: .cfa -16 + ^ .ra: .cfa -24 + ^ x29: .cfa -32 + ^
STACK CFI 3f0ec .cfa: sp 32 +
STACK CFI 3f0f4 .cfa: sp 0 +
STACK CFI INIT 3f0f8 74 .cfa: sp 0 +
STACK CFI 3f0fc .cfa: sp 32 +
STACK CFI 3f104 .cfa: x29 32 + x19: .cfa -16 + ^ .ra: .cfa -24 + ^ x29: .cfa -32 + ^
STACK CFI 3f160 .cfa: sp 32 +
STACK CFI 3f168 .cfa: sp 0 +
STACK CFI INIT 3f16c b0 .cfa: sp 0 +
STACK CFI 3f208 .cfa: sp 16 +
STACK CFI 3f20c .cfa: x29 16 + .ra: .cfa -8 + ^ x29: .cfa -16 + ^
STACK CFI 3f210 .cfa: sp 16 +
STACK CFI 3f214 .cfa: sp 0 +
STACK CFI INIT 3f21c 4 .cfa: sp 0 +
STACK CFI INIT 3f220 4 .cfa: sp 0 +
STACK CFI INIT 3f224 34 .cfa: sp 0 +
STACK CFI 3f228 .cfa: sp 32 +
STACK CFI 3f230 .cfa: x29 32 + x19: .cfa -16 + ^ .ra: .cfa -24 + ^ x29: .cfa -32 + ^
STACK CFI 3f24c .cfa: sp 32 +
STACK CFI 3f254 .cfa: sp 0 +
STACK CFI INIT 3f258 14 .cfa: sp 0 +
STACK CFI INIT 3f26c 4 .cfa: sp 0 +
STACK CFI INIT 3f270 4 .cfa: sp 0 +
STACK CFI INIT 3f274 14 .cfa: sp 0 +
STACK CFI INIT 3f288 1c .cfa: sp 0 +
STACK CFI INIT 3f2a4 c .cfa: sp 0 +
STACK CFI INIT 3f2b0 b0 .cfa: sp 0 +
STACK CFI 3f2b4 .cfa: sp 80 +
STACK CFI 3f2c4 .cfa: x29 48 + x19: .cfa -8 + ^ x20: .cfa -16 + ^ x21: .cfa -32 + ^ .ra: .cfa -40 + ^ x29: .cfa -48 + ^
STACK CFI 3f348 .cfa: sp 80 +
STACK CFI 3f358 .cfa: sp 0 +
STACK CFI 3f35c .cfa: x29 48 +
STACK CFI INIT 3f6d0 6c .cfa: sp 0 +
STACK CFI 3f6d4 .cfa: sp 32 +
STACK CFI 3f6dc .cfa: x29 32 + x19: .cfa -16 + ^ .ra: .cfa -24 + ^ x29: .cfa -32 + ^
STACK CFI 3f730 .cfa: sp 32 +
STACK CFI 3f738 .cfa: sp 0 +
STACK CFI INIT 3f73c 74 .cfa: sp 0 +
STACK CFI 3f740 .cfa: sp 32 +
STACK CFI 3f748 .cfa: x29 32 + x19: .cfa -16 + ^ .ra: .cfa -24 + ^ x29: .cfa -32 + ^
STACK CFI 3f7a4 .cfa: sp 32 +
STACK CFI 3f7ac .cfa: sp 0 +
STACK CFI INIT 3f7b0 78 .cfa: sp 0 +
STACK CFI 3f7b4 .cfa: sp 64 +
STACK CFI 3f7c0 .cfa: x29 32 + x19: .cfa -8 + ^ x20: .cfa -16 + ^ .ra: .cfa -24 + ^ x29: .cfa -32 + ^
STACK CFI 3f814 .cfa: sp 64 +
STACK CFI 3f820 .cfa: sp 0 +
STACK CFI 3f824 .cfa: x29 32 +
STACK CFI INIT 3f828 b0 .cfa: sp 0 +
STACK CFI 3f82c .cfa: sp 80 +
STACK CFI 3f83c .cfa: x29 48 + x19: .cfa -8 + ^ x20: .cfa -16 + ^ x21: .cfa -32 + ^ .ra: .cfa -40 + ^ x29: .cfa -48 + ^
STACK CFI 3f8c0 .cfa: sp 80 +
STACK CFI 3f8d0 .cfa: sp 0 +
STACK CFI 3f8d4 .cfa: x29 48 +
STACK CFI INIT 3fb9c 6c .cfa: sp 0 +
STACK CFI 3fba0 .cfa: sp 32 +
STACK CFI 3fba8 .cfa: x29 32 + x19: .cfa -16 + ^ .ra: .cfa -24 + ^ x29: .cfa -32 + ^
STACK CFI 3fbfc .cfa: sp 32 +
STACK CFI 3fc04 .cfa: sp 0 +
STACK CFI INIT 3fc08 74 .cfa: sp 0 +
STACK CFI 3fc0c .cfa: sp 32 +
STACK CFI 3fc14 .cfa: x29 32 + x19: .cfa -16 + ^ .ra: .cfa -24 + ^ x29: .cfa -32 + ^
STACK CFI 3fc70 .cfa: sp 32 +
STACK CFI 3fc78 .cfa: sp 0 +
STACK CFI INIT 3fc7c 4 .cfa: sp 0 +
STACK CFI INIT 3fc80 4 .cfa: sp 0 +
STACK CFI INIT 3fc84 34 .cfa: sp 0 +
STACK CFI 3fc88 .cfa: sp 32 +
STACK CFI 3fc90 .cfa: x29 32 + x19: .cfa -16 + ^ .ra: .cfa -24 + ^ x29: .cfa -32 + ^
STACK CFI 3fcac .cfa: sp 32 +
STACK CFI 3fcb4 .cfa: sp 0 +
STACK CFI INIT 3fcb8 14 .cfa: sp 0 +
STACK CFI INIT 3fccc 4 .cfa: sp 0 +
STACK CFI INIT 3fcd0 4 .cfa: sp 0 +
STACK CFI INIT 3fcd4 18 .cfa: sp 0 +
STACK CFI INIT 3fcec 1c .cfa: sp 0 +
STACK CFI INIT 3fd08 c .cfa: sp 0 +
STACK CFI INIT 3fd14 ac .cfa: sp 0 +
STACK CFI 3fd18 .cfa: sp 96 +
STACK CFI 3fd2c .cfa: x29 64 + x19: .cfa -8 + ^ x20: .cfa -16 + ^ x21: .cfa -24 + ^ x22: .cfa -32 + ^ x23: .cfa -48 + ^ .ra: .cfa -56 + ^ x29: .cfa -64 + ^
STACK CFI 3fda4 .cfa: sp 96 +
STACK CFI 3fdb8 .cfa: sp 0 +
STACK CFI 3fdbc .cfa: x29 64 +
STACK CFI INIT 3fdc0 4 .cfa: sp 0 +
STACK CFI INIT 3fdc4 4 .cfa: sp 0 +
STACK CFI INIT 3fdc8 34 .cfa: sp 0 +
STACK CFI 3fdcc .cfa: sp 32 +
STACK CFI 3fdd4 .cfa: x29 32 + x19: .cfa -16 + ^ .ra: .cfa -24 + ^ x29: .cfa -32 + ^
STACK CFI 3fdf0 .cfa: sp 32 +
STACK CFI 3fdf8 .cfa: sp 0 +
STACK CFI INIT 3fdfc 14 .cfa: sp 0 +
STACK CFI INIT 3fe10 4 .cfa: sp 0 +
STACK CFI INIT 3fe14 4 .cfa: sp 0 +
STACK CFI INIT 3fe18 18 .cfa: sp 0 +
STACK CFI INIT 3fe30 1c .cfa: sp 0 +
STACK CFI INIT 3fe4c c .cfa: sp 0 +
STACK CFI INIT 3fe58 b0 .cfa: sp 0 +
STACK CFI 3fe5c .cfa: sp 80 +
STACK CFI 3fe6c .cfa: x29 48 + x19: .cfa -8 + ^ x20: .cfa -16 + ^ x21: .cfa -32 + ^ .ra: .cfa -40 + ^ x29: .cfa -48 + ^
STACK CFI 3fef0 .cfa: sp 80 +
STACK CFI 3ff00 .cfa: sp 0 +
STACK CFI 3ff04 .cfa: x29 48 +
STACK CFI INIT 40284 6c .cfa: sp 0 +
STACK CFI 40288 .cfa: sp 32 +
STACK CFI 40290 .cfa: x29 32 + x19: .cfa -16 + ^ .ra: .cfa -24 + ^ x29: .cfa -32 + ^
STACK CFI 402e4 .cfa: sp 32 +
STACK CFI 402ec .cfa: sp 0 +
STACK CFI INIT 402f0 74 .cfa: sp 0 +
STACK CFI 402f4 .cfa: sp 32 +
STACK CFI 402fc .cfa: x29 32 + x19: .cfa -16 + ^ .ra: .cfa -24 + ^ x29: .cfa -32 + ^
STACK CFI 40358 .cfa: sp 32 +
STACK CFI 40360 .cfa: sp 0 +
STACK CFI INIT 414f8 8 .cfa: sp 0 +
STACK CFI INIT 41500 24 .cfa: sp 0 +
STACK CFI 41504 .cfa: sp 32 +
STACK CFI 4150c .cfa: x29 32 + x19: .cfa -16 + ^ .ra: .cfa -24 + ^ x29: .cfa -32 + ^
STACK CFI 41518 .cfa: sp 32 +
STACK CFI 41520 .cfa: sp 0 +
STACK CFI INIT 41524 4 .cfa: sp 0 +
STACK CFI INIT 417d0 8 .cfa: sp 0 +
STACK CFI INIT 417d8 24 .cfa: sp 0 +
STACK CFI 417dc .cfa: sp 32 +
STACK CFI 417e4 .cfa: x29 32 + x19: .cfa -16 + ^ .ra: .cfa -24 + ^ x29: .cfa -32 + ^
STACK CFI 417f0 .cfa: sp 32 +
STACK CFI 417f8 .cfa: sp 0 +
STACK CFI INIT 417fc 88 .cfa: sp 0 +
STACK CFI 41800 .cfa: sp 48 +
STACK CFI 4180c .cfa: x29 48 + x19: .cfa -8 + ^ x20: .cfa -16 + ^ x21: .cfa -24 + ^ x22: .cfa -32 + ^ .ra: .cfa -40 + ^ x29: .cfa -48 + ^
STACK CFI 41874 .cfa: sp 48 +
STACK CFI 41880 .cfa: sp 0 +
STACK CFI INIT 41884 4 .cfa: sp 0 +
STACK CFI INIT 41888 4 .cfa: sp 0 +
STACK CFI INIT 4188c 4 .cfa: sp 0 +
STACK CFI INIT 41890 4 .cfa: sp 0 +
STACK CFI INIT 41894 4 .cfa: sp 0 +
STACK CFI INIT 41898 4 .cfa: sp 0 +
STACK CFI INIT 41e50 bc .cfa: sp 0 +
STACK CFI 41e54 .cfa: sp 64 +
STACK CFI 41e60 .cfa: x29 32 + x19: .cfa -8 + ^ x20: .cfa -16 + ^ .ra: .cfa -24 + ^ x29: .cfa -32 + ^
STACK CFI 41ef8 .cfa: sp 64 +
STACK CFI 41f04 .cfa: sp 0 +
STACK CFI 41f08 .cfa: x29 32 +
STACK CFI INIT 41f0c 24 .cfa: sp 0 +
STACK CFI 41f10 .cfa: sp 32 +
STACK CFI 41f18 .cfa: x29 32 + x19: .cfa -16 + ^ .ra: .cfa -24 + ^ x29: .cfa -32 + ^
STACK CFI 41f24 .cfa: sp 32 +
STACK CFI 41f2c .cfa: sp 0 +
STACK CFI INIT 41f30 8 .cfa: sp 0 +
STACK CFI INIT 41f38 28 .cfa: sp 0 +
STACK CFI 41f3c .cfa: sp 32 +
STACK CFI 41f44 .cfa: x29 32 + x19: .cfa -16 + ^ .ra: .cfa -24 + ^ x29: .cfa -32 + ^
STACK CFI 41f54 .cfa: sp 32 +
STACK CFI 41f5c .cfa: sp 0 +
STACK CFI INIT 41f60 4 .cfa: sp 0 +
STACK CFI INIT 41f64 4 .cfa: sp 0 +
STACK CFI INIT 41f68 4 .cfa: sp 0 +
STACK CFI INIT 41f6c 4 .cfa: sp 0 +
STACK CFI INIT 41f70 30 .cfa: sp 0 +
STACK CFI INIT 41fa0 98 .cfa: sp 0 +
STACK CFI INIT 42038 2ac .cfa: sp 0 +
STACK CFI INIT 422e4 8c .cfa: sp 0 +
STACK CFI INIT 42370 6c .cfa: sp 0 +
STACK CFI 42374 .cfa: sp 16 +
STACK CFI 42378 .cfa: x29 16 + .ra: .cfa -8 + ^ x29: .cfa -16 + ^
STACK CFI 423cc .cfa: sp 16 +
STACK CFI 423d0 .cfa: sp 0 +
STACK CFI 423d4 .cfa: sp 16 +
STACK CFI 423d8 .cfa: sp 0 +
STACK CFI INIT 423dc 4 .cfa: sp 0 +
STACK CFI INIT 423e0 6c .cfa: sp 0 +
STACK CFI 423e4 .cfa: sp 16 +
STACK CFI 423e8 .cfa: x29 16 + .ra: .cfa -8 + ^ x29: .cfa -16 + ^
STACK CFI 4243c .cfa: sp 16 +
STACK CFI 42440 .cfa: sp 0 +
STACK CFI 42444 .cfa: sp 16 +
STACK CFI 42448 .cfa: sp 0 +
STACK CFI INIT 4244c 6c .cfa: sp 0 +
STACK CFI 42450 .cfa: sp 16 +
STACK CFI 42454 .cfa: x29 16 + .ra: .cfa -8 + ^ x29: .cfa -16 + ^
STACK CFI 424a8 .cfa: sp 16 +
STACK CFI 424ac .cfa: sp 0 +
STACK CFI 424b0 .cfa: sp 16 +
STACK CFI 424b4 .cfa: sp 0 +
STACK CFI INIT 424b8 6c .cfa: sp 0 +
STACK CFI 424bc .cfa: sp 16 +
STACK CFI 424c0 .cfa: x29 16 + .ra: .cfa -8 + ^ x29: .cfa -16 + ^
STACK CFI 42514 .cfa: sp 16 +
STACK CFI 42518 .cfa: sp 0 +
STACK CFI 4251c .cfa: sp 16 +
STACK CFI 42520 .cfa: sp 0 +
STACK CFI INIT 42524 6c .cfa: sp 0 +
STACK CFI 42528 .cfa: sp 16 +
STACK CFI 4252c .cfa: x29 16 + .ra: .cfa -8 + ^ x29: .cfa -16 + ^
STACK CFI 42580 .cfa: sp 16 +
STACK CFI 42584 .cfa: sp 0 +
STACK CFI 42588 .cfa: sp 16 +
STACK CFI 4258c .cfa: sp 0 +
STACK CFI INIT 42590 6c .cfa: sp 0 +
STACK CFI 42594 .cfa: sp 16 +
STACK CFI 42598 .cfa: x29 16 + .ra: .cfa -8 + ^ x29: .cfa -16 + ^
STACK CFI 425ec .cfa: sp 16 +
STACK CFI 425f0 .cfa: sp 0 +
STACK CFI 425f4 .cfa: sp 16 +
STACK CFI 425f8 .cfa: sp 0 +
STACK CFI INIT 425fc 6c .cfa: sp 0 +
STACK CFI 42600 .cfa: sp 16 +
STACK CFI 42604 .cfa: x29 16 + .ra: .cfa -8 + ^ x29: .cfa -16 + ^
STACK CFI 42658 .cfa: sp 16 +
STACK CFI 4265c .cfa: sp 0 +
STACK CFI 42660 .cfa: sp 16 +
STACK CFI 42664 .cfa: sp 0 +
STACK CFI INIT 42668 6c .cfa: sp 0 +
STACK CFI 4266c .cfa: sp 16 +
STACK CFI 42670 .cfa: x29 16 + .ra: .cfa -8 + ^ x29: .cfa -16 + ^
STACK CFI 426c4 .cfa: sp 16 +
STACK CFI 426c8 .cfa: sp 0 +
STACK CFI 426cc .cfa: sp 16 +
STACK CFI 426d0 .cfa: sp 0 +
STACK CFI INIT 426d4 6c .cfa: sp 0 +
STACK CFI 426d8 .cfa: sp 16 +
STACK CFI 426dc .cfa: x29 16 + .ra: .cfa -8 + ^ x29: .cfa -16 + ^
STACK CFI 42730 .cfa: sp 16 +
STACK CFI 42734 .cfa: sp 0 +
STACK CFI 42738 .cfa: sp 16 +
STACK CFI 4273c .cfa: sp 0 +
STACK CFI INIT 42740 6c .cfa: sp 0 +
STACK CFI 42744 .cfa: sp 16 +
STACK CFI 42748 .cfa: x29 16 + .ra: .cfa -8 + ^ x29: .cfa -16 + ^
STACK CFI 4279c .cfa: sp 16 +
STACK CFI 427a0 .cfa: sp 0 +
STACK CFI 427a4 .cfa: sp 16 +
STACK CFI 427a8 .cfa: sp 0 +
STACK CFI INIT 427ac 3c .cfa: sp 0 +
STACK CFI 427b0 .cfa: sp 32 +
STACK CFI 427b8 .cfa: x29 32 + x19: .cfa -16 + ^ .ra: .cfa -24 + ^ x29: .cfa -32 + ^
STACK CFI 427d0 .cfa: sp 32 +
STACK CFI 427d8 .cfa: sp 0 +
STACK CFI 427dc .cfa: sp 32 +
STACK CFI 427e4 .cfa: sp 0 +
STACK CFI INIT 427e8 5c .cfa: sp 0 +
STACK CFI 427ec .cfa: sp 16 +
STACK CFI 427f0 .cfa: x29 16 + .ra: .cfa -8 + ^ x29: .cfa -16 + ^
STACK CFI 42834 .cfa: sp 16 +
STACK CFI 42838 .cfa: sp 0 +
STACK CFI 4283c .cfa: sp 16 +
STACK CFI 42840 .cfa: sp 0 +
STACK CFI INIT 42844 7c .cfa: sp 0 +
STACK CFI 42848 .cfa: sp 48 +
STACK CFI 42854 .cfa: x29 48 + x19: .cfa -8 + ^ x20: .cfa -16 + ^ x21: .cfa -32 + ^ .ra: .cfa -40 + ^ x29: .cfa -48 + ^
STACK CFI 428a0 .cfa: sp 48 +
STACK CFI 428ac .cfa: sp 0 +
STACK CFI 428b0 .cfa: sp 48 +
STACK CFI 428bc .cfa: sp 0 +
STACK CFI INIT 428c0 48 .cfa: sp 0 +
STACK CFI 428d4 .cfa: sp 16 +
STACK CFI 428d8 .cfa: x29 16 + .ra: .cfa -8 + ^ x29: .cfa -16 + ^
STACK CFI 428e4 .cfa: sp 16 +
STACK CFI 428e8 .cfa: sp 0 +
STACK CFI INIT 4390c e4 .cfa: sp 0 +
STACK CFI 43910 .cfa: sp 32 +
STACK CFI 43918 .cfa: x29 32 + x19: .cfa -16 + ^ .ra: .cfa -24 + ^ x29: .cfa -32 + ^
STACK CFI 43938 .cfa: sp 32 +
STACK CFI 43940 .cfa: sp 0 +
STACK CFI 43944 .cfa: x29 32 +
STACK CFI 43988 .cfa: sp 32 +
STACK CFI 43990 .cfa: sp 0 +
STACK CFI 43994 .cfa: x29 32 +
STACK CFI 439c0 .cfa: sp 32 +
STACK CFI 439c8 .cfa: sp 0 +
STACK CFI 439cc .cfa: sp 32 +
STACK CFI 439d4 .cfa: sp 0 +
STACK CFI 439d8 .cfa: x29 32 +
STACK CFI 439e4 .cfa: sp 32 +
STACK CFI 439ec .cfa: sp 0 +
STACK CFI INIT 439f0 28 .cfa: sp 0 +
STACK CFI INIT 43a18 8 .cfa: sp 0 +
STACK CFI INIT 43a20 48 .cfa: sp 0 +
STACK CFI INIT 43a68 4c .cfa: sp 0 +
STACK CFI INIT 43b94 2c .cfa: sp 0 +
STACK CFI 43b98 .cfa: sp 32 +
STACK CFI 43ba0 .cfa: x29 32 + x19: .cfa -16 + ^ .ra: .cfa -24 + ^ x29: .cfa -32 + ^
STACK CFI 43bb4 .cfa: sp 32 +
STACK CFI 43bbc .cfa: sp 0 +
STACK CFI INIT 43bc0 4 .cfa: sp 0 +
STACK CFI INIT 43bc4 8 .cfa: sp 0 +
STACK CFI INIT 43de0 4 .cfa: sp 0 +
STACK CFI INIT 43de4 8 .cfa: sp 0 +
STACK CFI INIT 43dec 4 .cfa: sp 0 +
STACK CFI INIT 43e5c 4 .cfa: sp 0 +
STACK CFI INIT 43e60 2c .cfa: sp 0 +
STACK CFI INIT 43e8c 70 .cfa: sp 0 +
STACK CFI 43e90 .cfa: sp 48 +
STACK CFI 43e9c .cfa: x29 32 + x19: .cfa -16 + ^ .ra: .cfa -24 + ^ x29: .cfa -32 + ^
STACK CFI 43ed4 .cfa: sp 48 +
STACK CFI 43ee0 .cfa: sp 0 +
STACK CFI 43ee4 .cfa: x29 32 +
STACK CFI INIT 43efc 5c .cfa: sp 0 +
STACK CFI 43f00 .cfa: sp 32 +
STACK CFI 43f08 .cfa: x29 32 + x19: .cfa -16 + ^ .ra: .cfa -24 + ^ x29: .cfa -32 + ^
STACK CFI 43f4c .cfa: sp 32 +
STACK CFI 43f54 .cfa: sp 0 +
STACK CFI INIT 43f58 64 .cfa: sp 0 +
STACK CFI 43f5c .cfa: sp 32 +
STACK CFI 43f64 .cfa: x29 32 + x19: .cfa -16 + ^ .ra: .cfa -24 + ^ x29: .cfa -32 + ^
STACK CFI 43fb0 .cfa: sp 32 +
STACK CFI 43fb8 .cfa: sp 0 +
STACK CFI INIT 43fbc a4 .cfa: sp 0 +
STACK CFI 43fc0 .cfa: sp 48 +
STACK CFI 43fcc .cfa: x29 48 + x19: .cfa -8 + ^ x20: .cfa -16 + ^ x21: .cfa -32 + ^ .ra: .cfa -40 + ^ x29: .cfa -48 + ^
STACK CFI 43fe4 .cfa: sp 48 +
STACK CFI 43ff0 .cfa: sp 0 +
STACK CFI 43ff4 .cfa: x29 48 +
STACK CFI 44050 .cfa: sp 48 +
STACK CFI 4405c .cfa: sp 0 +
STACK CFI INIT 44060 98 .cfa: sp 0 +
STACK CFI 44068 .cfa: sp 32 +
STACK CFI 44070 .cfa: x29 32 + x19: .cfa -8 + ^ x20: .cfa -16 + ^ .ra: .cfa -24 + ^ x29: .cfa -32 + ^
STACK CFI 440ec .cfa: sp 32 +
STACK CFI 440f4 .cfa: sp 0 +
STACK CFI INIT 440f8 304 .cfa: sp 0 +
STACK CFI 440fc .cfa: sp 128 +
STACK CFI 44114 .cfa: x29 64 + x19: .cfa -8 + ^ x20: .cfa -16 + ^ x21: .cfa -24 + ^ x22: .cfa -32 + ^ x23: .cfa -48 + ^ .ra: .cfa -56 + ^ x29: .cfa -64 + ^ v8: .cfa -72 + ^ v9: .cfa -80 + ^
STACK CFI 44344 .cfa: sp 128 +
STACK CFI 4435c .cfa: sp 0 +
STACK CFI 44360 .cfa: x29 64 +
STACK CFI INIT 443fc 4 .cfa: sp 0 +
STACK CFI INIT 44400 34 .cfa: sp 0 +
STACK CFI 44404 .cfa: sp 32 +
STACK CFI 4440c .cfa: x29 32 + x19: .cfa -16 + ^ .ra: .cfa -24 + ^ x29: .cfa -32 + ^
STACK CFI 44428 .cfa: sp 32 +
STACK CFI 44430 .cfa: sp 0 +
STACK CFI INIT 44434 14 .cfa: sp 0 +
STACK CFI INIT 44448 4 .cfa: sp 0 +
STACK CFI INIT 4444c 4 .cfa: sp 0 +
STACK CFI INIT 44450 10 .cfa: sp 0 +
STACK CFI INIT 44460 1c .cfa: sp 0 +
STACK CFI INIT 4447c c .cfa: sp 0 +
STACK CFI INIT 44488 4 .cfa: sp 0 +
STACK CFI INIT 4448c 34 .cfa: sp 0 +
STACK CFI 44490 .cfa: sp 32 +
STACK CFI 44498 .cfa: x29 32 + x19: .cfa -16 + ^ .ra: .cfa -24 + ^ x29: .cfa -32 + ^
STACK CFI 444b4 .cfa: sp 32 +
STACK CFI 444bc .cfa: sp 0 +
STACK CFI INIT 444c0 14 .cfa: sp 0 +
STACK CFI INIT 444d4 4 .cfa: sp 0 +
STACK CFI INIT 444d8 4 .cfa: sp 0 +
STACK CFI INIT 444dc 10 .cfa: sp 0 +
STACK CFI INIT 444ec 1c .cfa: sp 0 +
STACK CFI INIT 44508 c .cfa: sp 0 +
STACK CFI INIT 44514 4 .cfa: sp 0 +
STACK CFI INIT 44518 34 .cfa: sp 0 +
STACK CFI 4451c .cfa: sp 32 +
STACK CFI 44524 .cfa: x29 32 + x19: .cfa -16 + ^ .ra: .cfa -24 + ^ x29: .cfa -32 + ^
STACK CFI 44540 .cfa: sp 32 +
STACK CFI 44548 .cfa: sp 0 +
STACK CFI INIT 4454c 14 .cfa: sp 0 +
STACK CFI INIT 44560 4 .cfa: sp 0 +
STACK CFI INIT 44564 4 .cfa: sp 0 +
STACK CFI INIT 446a4 1c .cfa: sp 0 +
STACK CFI INIT 446c0 c .cfa: sp 0 +
STACK CFI INIT 446cc 4 .cfa: sp 0 +
STACK CFI INIT 446d0 34 .cfa: sp 0 +
STACK CFI 446d4 .cfa: sp 32 +
STACK CFI 446dc .cfa: x29 32 + x19: .cfa -16 + ^ .ra: .cfa -24 + ^ x29: .cfa -32 + ^
STACK CFI 446f8 .cfa: sp 32 +
STACK CFI 44700 .cfa: sp 0 +
STACK CFI INIT 44704 14 .cfa: sp 0 +
STACK CFI INIT 44718 4 .cfa: sp 0 +
STACK CFI INIT 4471c 4 .cfa: sp 0 +
STACK CFI INIT 44720 8 .cfa: sp 0 +
STACK CFI INIT 44728 1c .cfa: sp 0 +
STACK CFI INIT 44744 c .cfa: sp 0 +
STACK CFI INIT 44750 4 .cfa: sp 0 +
STACK CFI INIT 44754 4 .cfa: sp 0 +
STACK CFI INIT 44758 34 .cfa: sp 0 +
STACK CFI 4475c .cfa: sp 32 +
STACK CFI 44764 .cfa: x29 32 + x19: .cfa -16 + ^ .ra: .cfa -24 + ^ x29: .cfa -32 + ^
STACK CFI 44780 .cfa: sp 32 +
STACK CFI 44788 .cfa: sp 0 +
STACK CFI INIT 4478c 14 .cfa: sp 0 +
STACK CFI INIT 447a0 4 .cfa: sp 0 +
STACK CFI INIT 447a4 4 .cfa: sp 0 +
STACK CFI INIT 44850 1c .cfa: sp 0 +
STACK CFI INIT 4486c c .cfa: sp 0 +
STACK CFI INIT 44878 60 .cfa: sp 0 +
STACK CFI 4487c .cfa: sp 32 +
STACK CFI 44884 .cfa: x29 32 + x19: .cfa -8 + ^ x20: .cfa -16 + ^ .ra: .cfa -24 + ^ x29: .cfa -32 + ^
STACK CFI 448a4 .cfa: sp 32 +
STACK CFI 448ac .cfa: sp 0 +
STACK CFI 448b0 .cfa: x29 32 +
STACK CFI 448cc .cfa: sp 32 +
STACK CFI 448d4 .cfa: sp 0 +
STACK CFI INIT 448d8 70 .cfa: sp 0 +
STACK CFI 448dc .cfa: sp 32 +
STACK CFI 448e4 .cfa: x29 32 + x19: .cfa -8 + ^ x20: .cfa -16 + ^ .ra: .cfa -24 + ^ x29: .cfa -32 + ^
STACK CFI 4490c .cfa: sp 32 +
STACK CFI 44914 .cfa: sp 0 +
STACK CFI 44918 .cfa: x29 32 +
STACK CFI 4493c .cfa: sp 32 +
STACK CFI 44944 .cfa: sp 0 +
STACK CFI INIT 44948 10 .cfa: sp 0 +
STACK CFI INIT 44958 30 .cfa: sp 0 +
STACK CFI 4495c .cfa: sp 32 +
STACK CFI 44964 .cfa: x29 32 + x19: .cfa -16 + ^ .ra: .cfa -24 + ^ x29: .cfa -32 + ^
STACK CFI 4497c .cfa: sp 32 +
STACK CFI 44984 .cfa: sp 0 +
STACK CFI INIT 44988 4 .cfa: sp 0 +
STACK CFI INIT 4498c 4 .cfa: sp 0 +
STACK CFI INIT 44990 30 .cfa: sp 0 +
STACK CFI INIT 44e30 1c .cfa: sp 0 +
STACK CFI INIT 45204 50 .cfa: sp 0 +
STACK CFI 45208 .cfa: sp 32 +
STACK CFI 45210 .cfa: x29 32 + x19: .cfa -16 + ^ .ra: .cfa -24 + ^ x29: .cfa -32 + ^
STACK CFI 45228 .cfa: sp 32 +
STACK CFI 45230 .cfa: sp 0 +
STACK CFI 45234 .cfa: x29 32 +
STACK CFI 45248 .cfa: sp 32 +
STACK CFI 45250 .cfa: sp 0 +
STACK CFI INIT 452c8 4 .cfa: sp 0 +
STACK CFI INIT 45554 80 .cfa: sp 0 +
STACK CFI 45558 .cfa: sp 48 +
STACK CFI 45564 .cfa: x29 48 + x19: .cfa -8 + ^ x20: .cfa -16 + ^ x21: .cfa -32 + ^ .ra: .cfa -40 + ^ x29: .cfa -48 + ^
STACK CFI 455c4 .cfa: sp 48 +
STACK CFI 455d0 .cfa: sp 0 +
STACK CFI INIT 455d4 24 .cfa: sp 0 +
STACK CFI 455d8 .cfa: sp 32 +
STACK CFI 455e0 .cfa: x29 32 + x19: .cfa -16 + ^ .ra: .cfa -24 + ^ x29: .cfa -32 + ^
STACK CFI 455ec .cfa: sp 32 +
STACK CFI 455f4 .cfa: sp 0 +
STACK CFI INIT 45af8 148 .cfa: sp 0 +
STACK CFI 45afc .cfa: sp 48 +
STACK CFI 45b08 .cfa: x29 48 + x19: .cfa -8 + ^ x20: .cfa -16 + ^ x21: .cfa -32 + ^ .ra: .cfa -40 + ^ x29: .cfa -48 + ^
STACK CFI 45c30 .cfa: sp 48 +
STACK CFI 45c3c .cfa: sp 0 +
STACK CFI INIT 45c40 88 .cfa: sp 0 +
STACK CFI 45c48 .cfa: sp 48 +
STACK CFI 45c54 .cfa: x29 48 + x19: .cfa -8 + ^ x20: .cfa -16 + ^ x21: .cfa -24 + ^ x22: .cfa -32 + ^ .ra: .cfa -40 + ^ x29: .cfa -48 + ^
STACK CFI 45cb8 .cfa: sp 48 +
STACK CFI 45cc4 .cfa: sp 0 +
STACK CFI INIT 45e78 68 .cfa: sp 0 +
STACK CFI 45e7c .cfa: sp 32 +
STACK CFI 45e84 .cfa: x29 32 + x19: .cfa -8 + ^ x20: .cfa -16 + ^ .ra: .cfa -24 + ^ x29: .cfa -32 + ^
STACK CFI 45e9c .cfa: sp 32 +
STACK CFI 45ea4 .cfa: sp 0 +
STACK CFI 45ea8 .cfa: x29 32 +
STACK CFI 45ed4 .cfa: sp 32 +
STACK CFI 45edc .cfa: sp 0 +
STACK CFI INIT 45ee0 4 .cfa: sp 0 +
STACK CFI INIT 45ee4 14 .cfa: sp 0 +
STACK CFI INIT 45ef8 128 .cfa: sp 0 +
STACK CFI 45efc .cfa: sp 64 +
STACK CFI 45f0c .cfa: x29 64 + x19: .cfa -8 + ^ x20: .cfa -16 + ^ x21: .cfa -24 + ^ x22: .cfa -32 + ^ x23: .cfa -40 + ^ x24: .cfa -48 + ^ .ra: .cfa -56 + ^ x29: .cfa -64 + ^
STACK CFI 4600c .cfa: sp 64 +
STACK CFI 4601c .cfa: sp 0 +
STACK CFI INIT 46020 d4 .cfa: sp 0 +
STACK CFI 46024 .cfa: sp 48 +
STACK CFI 46030 .cfa: x29 48 + x19: .cfa -8 + ^ x20: .cfa -16 + ^ x21: .cfa -32 + ^ .ra: .cfa -40 + ^ x29: .cfa -48 + ^
STACK CFI 460c0 .cfa: sp 48 +
STACK CFI 460cc .cfa: sp 0 +
STACK CFI 460d0 .cfa: x29 48 +
STACK CFI INIT 460f4 3c8 .cfa: sp 0 +
STACK CFI INIT 464bc 8c .cfa: sp 0 +
STACK CFI 464c4 .cfa: sp 32 +
STACK CFI 464cc .cfa: x29 32 + x19: .cfa -8 + ^ x20: .cfa -16 + ^ .ra: .cfa -24 + ^ x29: .cfa -32 + ^
STACK CFI 46514 .cfa: sp 32 +
STACK CFI 4651c .cfa: sp 0 +
STACK CFI 46524 .cfa: x29 32 +
STACK CFI INIT 468dc 70 .cfa: sp 0 +
STACK CFI 468e0 .cfa: sp 48 +
STACK CFI 468ec .cfa: x29 48 + x19: .cfa -8 + ^ x20: .cfa -16 + ^ x21: .cfa -32 + ^ .ra: .cfa -40 + ^ x29: .cfa -48 + ^
STACK CFI 4692c .cfa: sp 48 +
STACK CFI 46938 .cfa: sp 0 +
STACK CFI 4693c .cfa: sp 48 +
STACK CFI 46948 .cfa: sp 0 +
STACK CFI INIT 4694c 2b8 .cfa: sp 0 +
STACK CFI INIT 46c04 4c .cfa: sp 0 +
STACK CFI 46c0c .cfa: sp 32 +
STACK CFI 46c14 .cfa: x29 32 + x19: .cfa -16 + ^ .ra: .cfa -24 + ^ x29: .cfa -32 + ^
STACK CFI 46c40 .cfa: sp 32 +
STACK CFI 46c48 .cfa: sp 0 +
STACK CFI INIT 46c50 50 .cfa: sp 0 +
STACK CFI 46c54 .cfa: sp 32 +
STACK CFI 46c5c .cfa: x29 32 + x19: .cfa -16 + ^ .ra: .cfa -24 + ^ x29: .cfa -32 + ^
STACK CFI 46c74 .cfa: sp 32 +
STACK CFI 46c7c .cfa: sp 0 +
STACK CFI 46c80 .cfa: x29 32 +
STACK CFI 46c94 .cfa: sp 32 +
STACK CFI 46c9c .cfa: sp 0 +
STACK CFI INIT 46ca0 64 .cfa: sp 0 +
STACK CFI 46ca4 .cfa: sp 32 +
STACK CFI 46cac .cfa: x29 32 + x19: .cfa -16 + ^ .ra: .cfa -24 + ^ x29: .cfa -32 + ^
STACK CFI 46cd8 .cfa: sp 32 +
STACK CFI 46ce0 .cfa: sp 0 +
STACK CFI 46ce4 .cfa: x29 32 +
STACK CFI 46cf8 .cfa: sp 32 +
STACK CFI 46d00 .cfa: sp 0 +
STACK CFI INIT 46d04 14 .cfa: sp 0 +
STACK CFI 46d08 .cfa: sp 16 +
STACK CFI 46d0c .cfa: x29 16 + .ra: .cfa -8 + ^ x29: .cfa -16 + ^
STACK CFI INIT 46d18 178 .cfa: sp 0 +
STACK CFI 46d1c .cfa: sp 80 +
STACK CFI 46d30 .cfa: x29 80 + x19: .cfa -8 + ^ x20: .cfa -16 + ^ x21: .cfa -24 + ^ x22: .cfa -32 + ^ x23: .cfa -40 + ^ x24: .cfa -48 + ^ x25: .cfa -56 + ^ x26: .cfa -64 + ^ .ra: .cfa -72 + ^ x29: .cfa -80 + ^
STACK CFI 46e78 .cfa: sp 80 +
STACK CFI 46e8c .cfa: sp 0 +
STACK CFI INIT 46e90 1a8 .cfa: sp 0 +
STACK CFI INIT 47520 1c .cfa: sp 0 +
STACK CFI INIT 47b24 4 .cfa: sp 0 +
STACK CFI INIT 4830c 7c .cfa: sp 0 +
STACK CFI 48310 .cfa: sp 32 +
STACK CFI 48318 .cfa: x29 32 + x19: .cfa -8 + ^ x20: .cfa -16 + ^ .ra: .cfa -24 + ^ x29: .cfa -32 + ^
STACK CFI 48370 .cfa: sp 32 +
STACK CFI 48378 .cfa: sp 0 +
STACK CFI 4837c .cfa: sp 32 +
STACK CFI 48384 .cfa: sp 0 +
STACK CFI INIT 484f0 4 .cfa: sp 0 +
STACK CFI INIT 484f4 4 .cfa: sp 0 +
STACK CFI INIT 484f8 38 .cfa: sp 0 +
STACK CFI 484fc .cfa: sp 32 +
STACK CFI 48504 .cfa: x29 32 + x19: .cfa -16 + ^ .ra: .cfa -24 + ^ x29: .cfa -32 + ^
STACK CFI 48524 .cfa: sp 32 +
STACK CFI 4852c .cfa: sp 0 +
STACK CFI INIT 48530 18 .cfa: sp 0 +
STACK CFI INIT 48548 4 .cfa: sp 0 +
STACK CFI INIT 4854c 4 .cfa: sp 0 +
STACK CFI INIT 48550 8 .cfa: sp 0 +
STACK CFI INIT 48558 1c .cfa: sp 0 +
STACK CFI INIT 48574 c .cfa: sp 0 +
STACK CFI INIT 48580 4 .cfa: sp 0 +
STACK CFI INIT 486f8 5c .cfa: sp 0 +
STACK CFI 486fc .cfa: sp 32 +
STACK CFI 48704 .cfa: x29 32 + x19: .cfa -16 + ^ .ra: .cfa -24 + ^ x29: .cfa -32 + ^
STACK CFI 48748 .cfa: sp 32 +
STACK CFI 48750 .cfa: sp 0 +
STACK CFI INIT 48754 64 .cfa: sp 0 +
STACK CFI 48758 .cfa: sp 32 +
STACK CFI 48760 .cfa: x29 32 + x19: .cfa -16 + ^ .ra: .cfa -24 + ^ x29: .cfa -32 + ^
STACK CFI 487ac .cfa: sp 32 +
STACK CFI 487b4 .cfa: sp 0 +
STACK CFI INIT 487b8 4 .cfa: sp 0 +
STACK CFI INIT 487bc 14 .cfa: sp 0 +
STACK CFI INIT 48b14 84 .cfa: sp 0 +
STACK CFI 48b18 .cfa: sp 32 +
STACK CFI 48b20 .cfa: x29 32 + x19: .cfa -16 + ^ .ra: .cfa -24 + ^ x29: .cfa -32 + ^
STACK CFI 48b8c .cfa: sp 32 +
STACK CFI 48b94 .cfa: sp 0 +
STACK CFI INIT 48d74 4 .cfa: sp 0 +
STACK CFI INIT 48d78 14 .cfa: sp 0 +
STACK CFI INIT 491fc 1c .cfa: sp 0 +
STACK CFI INIT 49b3c 4 .cfa: sp 0 +
STACK CFI INIT 49f64 444 .cfa: sp 0 +
STACK CFI 49f68 .cfa: sp 32 +
STACK CFI 49f70 .cfa: x29 32 + x19: .cfa -8 + ^ x20: .cfa -16 + ^ .ra: .cfa -24 + ^ x29: .cfa -32 + ^
STACK CFI 4a39c .cfa: sp 32 +
STACK CFI 4a3a4 .cfa: sp 0 +
STACK CFI INIT 4a52c 1a0 .cfa: sp 0 +
STACK CFI 4a530 .cfa: sp 64 +
STACK CFI 4a540 .cfa: x29 64 + x19: .cfa -8 + ^ x20: .cfa -16 + ^ x21: .cfa -24 + ^ x22: .cfa -32 + ^ x23: .cfa -40 + ^ x24: .cfa -48 + ^ .ra: .cfa -56 + ^ x29: .cfa -64 + ^
STACK CFI 4a6a0 .cfa: sp 64 +
STACK CFI 4a6b0 .cfa: sp 0 +
STACK CFI 4a6b4 .cfa: x29 64 +
STACK CFI INIT 4a7f8 b8 .cfa: sp 0 +
STACK CFI 4a804 .cfa: sp 48 +
STACK CFI 4a810 .cfa: x29 48 + x19: .cfa -8 + ^ x20: .cfa -16 + ^ x21: .cfa -32 + ^ .ra: .cfa -40 + ^ x29: .cfa -48 + ^
STACK CFI 4a844 .cfa: sp 48 +
STACK CFI 4a850 .cfa: sp 0 +
STACK CFI 4a854 .cfa: x29 48 +
STACK CFI INIT 4ad20 1c .cfa: sp 0 +
STACK CFI INIT 4b0bc 4 .cfa: sp 0 +
STACK CFI INIT 4b3f8 4 .cfa: sp 0 +
STACK CFI INIT 4b3fc 4 .cfa: sp 0 +
STACK CFI INIT 4b400 24 .cfa: sp 0 +
STACK CFI 4b404 .cfa: sp 16 +
STACK CFI 4b408 .cfa: x29 16 + .ra: .cfa -8 + ^ x29: .cfa -16 + ^
STACK CFI 4b41c .cfa: sp 16 +
STACK CFI 4b420 .cfa: sp 0 +
STACK CFI INIT 4b424 10 .cfa: sp 0 +
STACK CFI INIT 4b434 4 .cfa: sp 0 +
STACK CFI INIT 4b438 4 .cfa: sp 0 +
STACK CFI INIT 4b43c 28 .cfa: sp 0 +
STACK CFI 4b440 .cfa: sp 16 +
STACK CFI 4b444 .cfa: x29 16 + .ra: .cfa -8 + ^ x29: .cfa -16 + ^
STACK CFI 4b45c .cfa: sp 16 +
STACK CFI 4b460 .cfa: sp 0 +
STACK CFI INIT 4b464 1c .cfa: sp 0 +
STACK CFI INIT 4b480 c .cfa: sp 0 +
STACK CFI INIT 4bec4 1c .cfa: sp 0 +
STACK CFI INIT 4bee0 64 .cfa: sp 0 +
STACK CFI 4bee4 .cfa: sp 32 +
STACK CFI 4beec .cfa: x29 32 + x19: .cfa -16 + ^ .ra: .cfa -24 + ^ x29: .cfa -32 + ^
STACK CFI 4bf08 .cfa: sp 32 +
STACK CFI 4bf10 .cfa: sp 0 +
STACK CFI 4bf14 .cfa: x29 32 +
STACK CFI 4bf38 .cfa: sp 32 +
STACK CFI 4bf40 .cfa: sp 0 +
STACK CFI INIT 4d058 4 .cfa: sp 0 +
STACK CFI INIT 4d330 14 .cfa: sp 0 +
STACK CFI 4d334 .cfa: sp 16 +
STACK CFI 4d338 .cfa: x29 16 + .ra: .cfa -8 + ^ x29: .cfa -16 + ^
STACK CFI INIT 4d394 30 .cfa: sp 0 +
STACK CFI 4d398 .cfa: sp 32 +
STACK CFI 4d3a0 .cfa: x29 32 + x19: .cfa -16 + ^ .ra: .cfa -24 + ^ x29: .cfa -32 + ^
STACK CFI 4d3b8 .cfa: sp 32 +
STACK CFI 4d3c0 .cfa: sp 0 +
STACK CFI INIT 4d3c4 4 .cfa: sp 0 +
STACK CFI INIT 4d3c8 38 .cfa: sp 0 +
STACK CFI 4d3cc .cfa: sp 32 +
STACK CFI 4d3d4 .cfa: x29 32 + x19: .cfa -16 + ^ .ra: .cfa -24 + ^ x29: .cfa -32 + ^
STACK CFI 4d3f4 .cfa: sp 32 +
STACK CFI 4d3fc .cfa: sp 0 +
STACK CFI INIT 4d400 18 .cfa: sp 0 +
STACK CFI INIT 4d418 4 .cfa: sp 0 +
STACK CFI INIT 4d41c 4 .cfa: sp 0 +
STACK CFI INIT 4d420 8 .cfa: sp 0 +
STACK CFI INIT 4d428 1c .cfa: sp 0 +
STACK CFI INIT 4d444 c .cfa: sp 0 +
STACK CFI INIT 4d560 4 .cfa: sp 0 +
STACK CFI INIT 4d564 38 .cfa: sp 0 +
STACK CFI 4d568 .cfa: sp 32 +
STACK CFI 4d570 .cfa: x29 32 + x19: .cfa -16 + ^ .ra: .cfa -24 + ^ x29: .cfa -32 + ^
STACK CFI 4d590 .cfa: sp 32 +
STACK CFI 4d598 .cfa: sp 0 +
STACK CFI INIT 4d59c 18 .cfa: sp 0 +
STACK CFI INIT 4d5b4 4 .cfa: sp 0 +
STACK CFI INIT 4d5b8 4 .cfa: sp 0 +
STACK CFI INIT 4d5bc 8 .cfa: sp 0 +
STACK CFI INIT 4d5c4 1c .cfa: sp 0 +
STACK CFI INIT 4d5e0 c .cfa: sp 0 +
STACK CFI INIT 4dcf0 9a4 .cfa: sp 0 +
STACK CFI 4dcf4 .cfa: sp 144 +
STACK CFI 4dd10 .cfa: x29 96 + x19: .cfa -8 + ^ x20: .cfa -16 + ^ x21: .cfa -24 + ^ x22: .cfa -32 + ^ x23: .cfa -40 + ^ x24: .cfa -48 + ^ x25: .cfa -56 + ^ x26: .cfa -64 + ^ x27: .cfa -72 + ^ x28: .cfa -80 + ^ .ra: .cfa -88 + ^ x29: .cfa -96 + ^
STACK CFI 4e448 .cfa: sp 144 +
STACK CFI 4e464 .cfa: sp 0 +
STACK CFI 4e468 .cfa: x29 96 +
STACK CFI 4e670 .cfa: sp 144 +
STACK CFI 4e68c .cfa: sp 0 +
STACK CFI 4e690 .cfa: x29 96 +
STACK CFI INIT 4e694 f8 .cfa: sp 0 +
STACK CFI 4e698 .cfa: sp 80 +
STACK CFI 4e6ac .cfa: x29 80 + x19: .cfa -8 + ^ x20: .cfa -16 + ^ x21: .cfa -24 + ^ x22: .cfa -32 + ^ x23: .cfa -40 + ^ x24: .cfa -48 + ^ x25: .cfa -64 + ^ .ra: .cfa -72 + ^ x29: .cfa -80 + ^
STACK CFI 4e774 .cfa: sp 80 +
STACK CFI 4e788 .cfa: sp 0 +
STACK CFI INIT 4e78c 4 .cfa: sp 0 +
STACK CFI INIT 4e790 1d8 .cfa: sp 0 +
STACK CFI 4e794 .cfa: sp 80 +
STACK CFI 4e7a8 .cfa: x29 80 + x19: .cfa -8 + ^ x20: .cfa -16 + ^ x21: .cfa -24 + ^ x22: .cfa -32 + ^ x23: .cfa -40 + ^ x24: .cfa -48 + ^ x25: .cfa -64 + ^ .ra: .cfa -72 + ^ x29: .cfa -80 + ^
STACK CFI 4e8ac .cfa: sp 80 +
STACK CFI 4e8c0 .cfa: sp 0 +
STACK CFI 4e8c4 .cfa: x29 80 +
STACK CFI 4e8f0 .cfa: sp 80 +
STACK CFI 4e904 .cfa: sp 0 +
STACK CFI 4e908 .cfa: x29 80 +
STACK CFI INIT 4e968 44 .cfa: sp 0 +
STACK CFI 4e96c .cfa: sp 32 +
STACK CFI 4e974 .cfa: x29 32 + x19: .cfa -16 + ^ .ra: .cfa -24 + ^ x29: .cfa -32 + ^
STACK CFI 4e9a0 .cfa: sp 32 +
STACK CFI 4e9a8 .cfa: sp 0 +
STACK CFI INIT 4e9ac 68 .cfa: sp 0 +
STACK CFI 4e9b0 .cfa: sp 32 +
STACK CFI 4e9b8 .cfa: x29 32 + x19: .cfa -16 + ^ .ra: .cfa -24 + ^ x29: .cfa -32 + ^
STACK CFI 4e9fc .cfa: sp 32 +
STACK CFI 4ea04 .cfa: sp 0 +
STACK CFI 4ea08 .cfa: sp 32 +
STACK CFI 4ea10 .cfa: sp 0 +
STACK CFI INIT 4eabc b4 .cfa: sp 0 +
STACK CFI 4eac0 .cfa: sp 32 +
STACK CFI 4eac8 .cfa: x29 32 + x19: .cfa -16 + ^ .ra: .cfa -24 + ^ x29: .cfa -32 + ^
STACK CFI 4eb64 .cfa: sp 32 +
STACK CFI 4eb6c .cfa: sp 0 +
STACK CFI INIT 4eb70 1a0 .cfa: sp 0 +
STACK CFI 4eb74 .cfa: sp 64 +
STACK CFI 4eb84 .cfa: x29 64 + x19: .cfa -8 + ^ x20: .cfa -16 + ^ x21: .cfa -24 + ^ x22: .cfa -32 + ^ x23: .cfa -40 + ^ x24: .cfa -48 + ^ .ra: .cfa -56 + ^ x29: .cfa -64 + ^
STACK CFI 4ece4 .cfa: sp 64 +
STACK CFI 4ecf4 .cfa: sp 0 +
STACK CFI 4ecf8 .cfa: x29 64 +
STACK CFI INIT 4ed10 3c .cfa: sp 0 +
STACK CFI 4ed18 .cfa: sp 32 +
STACK CFI 4ed20 .cfa: x29 32 + x19: .cfa -16 + ^ .ra: .cfa -24 + ^ x29: .cfa -32 + ^
STACK CFI 4ed3c .cfa: sp 32 +
STACK CFI 4ed44 .cfa: sp 0 +
STACK CFI INIT 5130c 38 .cfa: sp 0 +
STACK CFI 51324 .cfa: sp 16 +
STACK CFI 51328 .cfa: x29 16 + .ra: .cfa -8 + ^ x29: .cfa -16 + ^
STACK CFI 51334 .cfa: sp 16 +
STACK CFI 51338 .cfa: sp 0 +
STACK CFI INIT 51688 8 .cfa: sp 0 +
STACK CFI INIT 51690 14 .cfa: sp 0 +
STACK CFI 51694 .cfa: sp 16 +
STACK CFI 51698 .cfa: x29 16 + .ra: .cfa -8 + ^ x29: .cfa -16 + ^
STACK CFI INIT 518c4 14 .cfa: sp 0 +
STACK CFI 518c8 .cfa: sp 16 +
STACK CFI 518cc .cfa: x29 16 + .ra: .cfa -8 + ^ x29: .cfa -16 + ^
STACK CFI INIT 518d8 14 .cfa: sp 0 +
STACK CFI 518dc .cfa: sp 16 +
STACK CFI 518e0 .cfa: x29 16 + .ra: .cfa -8 + ^ x29: .cfa -16 + ^
STACK CFI INIT 518ec 14 .cfa: sp 0 +
STACK CFI 518f0 .cfa: sp 16 +
STACK CFI 518f4 .cfa: x29 16 + .ra: .cfa -8 + ^ x29: .cfa -16 + ^
STACK CFI INIT 51900 4 .cfa: sp 0 +
STACK CFI INIT 51904 4 .cfa: sp 0 +
STACK CFI INIT 51908 38 .cfa: sp 0 +
STACK CFI 5190c .cfa: sp 32 +
STACK CFI 51914 .cfa: x29 32 + x19: .cfa -16 + ^ .ra: .cfa -24 + ^ x29: .cfa -32 + ^
STACK CFI 51934 .cfa: sp 32 +
STACK CFI 5193c .cfa: sp 0 +
STACK CFI INIT 51940 18 .cfa: sp 0 +
STACK CFI INIT 51958 4 .cfa: sp 0 +
STACK CFI INIT 5195c 4 .cfa: sp 0 +
STACK CFI INIT 51960 10 .cfa: sp 0 +
STACK CFI INIT 51970 1c .cfa: sp 0 +
STACK CFI INIT 5198c c .cfa: sp 0 +
STACK CFI INIT 51aa0 4 .cfa: sp 0 +
STACK CFI INIT 51aa4 14 .cfa: sp 0 +
STACK CFI INIT 51ab8 4 .cfa: sp 0 +
STACK CFI INIT 51abc 14 .cfa: sp 0 +
STACK CFI INIT 522a0 1ac .cfa: sp 0 +
STACK CFI 522a4 .cfa: sp 32 +
STACK CFI 522ac .cfa: x29 32 + x19: .cfa -8 + ^ x20: .cfa -16 + ^ .ra: .cfa -24 + ^ x29: .cfa -32 + ^
STACK CFI 5239c .cfa: sp 32 +
STACK CFI 523a4 .cfa: sp 0 +
STACK CFI 523a8 .cfa: x29 32 +
STACK CFI INIT 5244c a0 .cfa: sp 0 +
STACK CFI 52450 .cfa: sp 32 +
STACK CFI 52458 .cfa: x29 32 + x19: .cfa -16 + ^ .ra: .cfa -24 + ^ x29: .cfa -32 + ^
STACK CFI 52488 .cfa: sp 32 +
STACK CFI 52490 .cfa: sp 0 +
STACK CFI 52494 .cfa: x29 32 +
STACK CFI 52498 .cfa: sp 32 +
STACK CFI 524a0 .cfa: sp 0 +
STACK CFI 524a4 .cfa: x29 32 +
STACK CFI 524e0 .cfa: sp 32 +
STACK CFI 524e8 .cfa: sp 0 +
STACK CFI INIT 524ec 8c .cfa: sp 0 +
STACK CFI 524f0 .cfa: sp 48 +
STACK CFI 524fc .cfa: x29 48 + x19: .cfa -8 + ^ x20: .cfa -16 + ^ x21: .cfa -24 + ^ x22: .cfa -32 + ^ .ra: .cfa -40 + ^ x29: .cfa -48 + ^
STACK CFI 52504 .cfa: sp 48 +
STACK CFI 52510 .cfa: sp 0 +
STACK CFI 52514 .cfa: x29 48 +
STACK CFI 52568 .cfa: sp 48 +
STACK CFI 52574 .cfa: sp 0 +
STACK CFI INIT 52578 34 .cfa: sp 0 +
STACK CFI 5257c .cfa: sp 32 +
STACK CFI 52584 .cfa: x29 32 + x19: .cfa -16 + ^ .ra: .cfa -24 + ^ x29: .cfa -32 + ^
STACK CFI 525a0 .cfa: sp 32 +
STACK CFI 525a8 .cfa: sp 0 +
STACK CFI INIT 54b68 70 .cfa: sp 0 +
STACK CFI 54b6c .cfa: sp 48 +
STACK CFI 54b78 .cfa: x29 32 + x19: .cfa -16 + ^ .ra: .cfa -24 + ^ x29: .cfa -32 + ^
STACK CFI 54bb0 .cfa: sp 48 +
STACK CFI 54bbc .cfa: sp 0 +
STACK CFI 54bc0 .cfa: x29 32 +
STACK CFI INIT 54bd8 5c .cfa: sp 0 +
STACK CFI 54bdc .cfa: sp 32 +
STACK CFI 54be4 .cfa: x29 32 + x19: .cfa -16 + ^ .ra: .cfa -24 + ^ x29: .cfa -32 + ^
STACK CFI 54c28 .cfa: sp 32 +
STACK CFI 54c30 .cfa: sp 0 +
STACK CFI INIT 54c34 64 .cfa: sp 0 +
STACK CFI 54c38 .cfa: sp 32 +
STACK CFI 54c40 .cfa: x29 32 + x19: .cfa -16 + ^ .ra: .cfa -24 + ^ x29: .cfa -32 + ^
STACK CFI 54c8c .cfa: sp 32 +
STACK CFI 54c94 .cfa: sp 0 +
STACK CFI INIT 54c98 20 .cfa: sp 0 +
STACK CFI INIT 54cb8 40 .cfa: sp 0 +
STACK CFI 54cd0 .cfa: sp 32 +
STACK CFI 54cd8 .cfa: x29 32 + x19: .cfa -16 + ^ .ra: .cfa -24 + ^ x29: .cfa -32 + ^
STACK CFI 54cec .cfa: sp 32 +
STACK CFI 54cf4 .cfa: sp 0 +
STACK CFI INIT 54d78 3c .cfa: sp 0 +
STACK CFI INIT 54db4 14 .cfa: sp 0 +
STACK CFI INIT 54dc8 34 .cfa: sp 0 +
STACK CFI 54dd4 .cfa: sp 32 +
STACK CFI 54ddc .cfa: x29 32 + x19: .cfa -16 + ^ .ra: .cfa -24 + ^ x29: .cfa -32 + ^
STACK CFI 54df0 .cfa: sp 32 +
STACK CFI 54df8 .cfa: sp 0 +
STACK CFI INIT 54dfc 8c .cfa: sp 0 +
STACK CFI 54e00 .cfa: sp 80 +
STACK CFI 54e10 .cfa: x29 48 + x19: .cfa -8 + ^ x20: .cfa -16 + ^ x21: .cfa -32 + ^ .ra: .cfa -40 + ^ x29: .cfa -48 + ^
STACK CFI 54e70 .cfa: sp 80 +
STACK CFI 54e80 .cfa: sp 0 +
STACK CFI 54e84 .cfa: x29 48 +
STACK CFI INIT 54e88 1c .cfa: sp 0 +
STACK CFI INIT 54ea4 c .cfa: sp 0 +
STACK CFI INIT 54eb0 20 .cfa: sp 0 +
STACK CFI INIT 54ed0 40 .cfa: sp 0 +
STACK CFI 54ee8 .cfa: sp 32 +
STACK CFI 54ef0 .cfa: x29 32 + x19: .cfa -16 + ^ .ra: .cfa -24 + ^ x29: .cfa -32 + ^
STACK CFI 54f04 .cfa: sp 32 +
STACK CFI 54f0c .cfa: sp 0 +
STACK CFI INIT 54f90 3c .cfa: sp 0 +
STACK CFI INIT 54fcc 14 .cfa: sp 0 +
STACK CFI INIT 54fe0 34 .cfa: sp 0 +
STACK CFI 54fec .cfa: sp 32 +
STACK CFI 54ff4 .cfa: x29 32 + x19: .cfa -16 + ^ .ra: .cfa -24 + ^ x29: .cfa -32 + ^
STACK CFI 55008 .cfa: sp 32 +
STACK CFI 55010 .cfa: sp 0 +
STACK CFI INIT 55014 8c .cfa: sp 0 +
STACK CFI 55018 .cfa: sp 80 +
STACK CFI 55028 .cfa: x29 48 + x19: .cfa -8 + ^ x20: .cfa -16 + ^ x21: .cfa -32 + ^ .ra: .cfa -40 + ^ x29: .cfa -48 + ^
STACK CFI 55088 .cfa: sp 80 +
STACK CFI 55098 .cfa: sp 0 +
STACK CFI 5509c .cfa: x29 48 +
STACK CFI INIT 550a0 1c .cfa: sp 0 +
STACK CFI INIT 550bc c .cfa: sp 0 +
STACK CFI INIT 55704 80 .cfa: sp 0 +
STACK CFI 55708 .cfa: sp 32 +
STACK CFI 55710 .cfa: x29 32 + x19: .cfa -16 + ^ .ra: .cfa -24 + ^ x29: .cfa -32 + ^
STACK CFI 55748 .cfa: sp 32 +
STACK CFI 55750 .cfa: sp 0 +
STACK CFI 55754 .cfa: sp 32 +
STACK CFI 5575c .cfa: sp 0 +
STACK CFI 55760 .cfa: x29 32 +
STACK CFI INIT 55784 1ac .cfa: sp 0 +
STACK CFI 55788 .cfa: sp 32 +
STACK CFI 55790 .cfa: x29 32 + x19: .cfa -8 + ^ x20: .cfa -16 + ^ .ra: .cfa -24 + ^ x29: .cfa -32 + ^
STACK CFI 55880 .cfa: sp 32 +
STACK CFI 55888 .cfa: sp 0 +
STACK CFI 5588c .cfa: x29 32 +
STACK CFI INIT 55da0 1c .cfa: sp 0 +
STACK CFI INIT 56130 4 .cfa: sp 0 +
STACK CFI INIT 56aa0 1c .cfa: sp 0 +
STACK CFI INIT 56de0 4 .cfa: sp 0 +
STACK CFI INIT 56ef4 4 .cfa: sp 0 +
STACK CFI INIT 56ef8 38 .cfa: sp 0 +
STACK CFI 56efc .cfa: sp 32 +
STACK CFI 56f04 .cfa: x29 32 + x19: .cfa -16 + ^ .ra: .cfa -24 + ^ x29: .cfa -32 + ^
STACK CFI 56f24 .cfa: sp 32 +
STACK CFI 56f2c .cfa: sp 0 +
STACK CFI INIT 56f30 18 .cfa: sp 0 +
STACK CFI INIT 56f48 4 .cfa: sp 0 +
STACK CFI INIT 56f4c 4 .cfa: sp 0 +
STACK CFI INIT 56f50 8 .cfa: sp 0 +
STACK CFI INIT 56f58 1c .cfa: sp 0 +
STACK CFI INIT 56f74 c .cfa: sp 0 +
STACK CFI INIT 56f80 4 .cfa: sp 0 +
STACK CFI INIT 5755c c4 .cfa: sp 0 +
STACK CFI 57560 .cfa: sp 48 +
STACK CFI 5756c .cfa: x29 48 + x19: .cfa -8 + ^ x20: .cfa -16 + ^ x21: .cfa -24 + ^ x22: .cfa -32 + ^ .ra: .cfa -40 + ^ x29: .cfa -48 + ^
STACK CFI 5758c .cfa: sp 48 +
STACK CFI 57598 .cfa: sp 0 +
STACK CFI 5759c .cfa: x29 48 +
STACK CFI 57600 .cfa: sp 48 +
STACK CFI 5760c .cfa: sp 0 +
STACK CFI 57610 .cfa: sp 48 +
STACK CFI 5761c .cfa: sp 0 +
STACK CFI INIT 57620 4 .cfa: sp 0 +
STACK CFI INIT 57624 4 .cfa: sp 0 +
STACK CFI INIT 57628 34 .cfa: sp 0 +
STACK CFI 5762c .cfa: sp 32 +
STACK CFI 57634 .cfa: x29 32 + x19: .cfa -16 + ^ .ra: .cfa -24 + ^ x29: .cfa -32 + ^
STACK CFI 57650 .cfa: sp 32 +
STACK CFI 57658 .cfa: sp 0 +
STACK CFI INIT 5765c 14 .cfa: sp 0 +
STACK CFI INIT 57670 4 .cfa: sp 0 +
STACK CFI INIT 57674 4 .cfa: sp 0 +
STACK CFI INIT 57678 8 .cfa: sp 0 +
STACK CFI INIT 57680 1c .cfa: sp 0 +
STACK CFI INIT 5769c c .cfa: sp 0 +
STACK CFI INIT 57b18 1c .cfa: sp 0 +
STACK CFI INIT 57e60 4 .cfa: sp 0 +
STACK CFI INIT 57e64 2a8 .cfa: sp 0 +
STACK CFI 57e68 .cfa: sp 80 +
STACK CFI 57e7c .cfa: x29 80 + x19: .cfa -8 + ^ x20: .cfa -16 + ^ x21: .cfa -24 + ^ x22: .cfa -32 + ^ x23: .cfa -40 + ^ x24: .cfa -48 + ^ x25: .cfa -64 + ^ .ra: .cfa -72 + ^ x29: .cfa -80 + ^
STACK CFI 57f84 .cfa: sp 80 +
STACK CFI 57f98 .cfa: sp 0 +
STACK CFI 57f9c .cfa: x29 80 +
STACK CFI 57ff8 .cfa: sp 80 +
STACK CFI 5800c .cfa: sp 0 +
STACK CFI 58010 .cfa: x29 80 +
STACK CFI 58030 .cfa: sp 80 +
STACK CFI 58044 .cfa: sp 0 +
STACK CFI 58048 .cfa: sp 80 +
STACK CFI 5805c .cfa: sp 0 +
STACK CFI 58060 .cfa: x29 80 +
STACK CFI 5806c .cfa: sp 80 +
STACK CFI 58080 .cfa: sp 0 +
STACK CFI 58084 .cfa: x29 80 +
STACK CFI 58090 .cfa: sp 80 +
STACK CFI 580a4 .cfa: sp 0 +
STACK CFI 580a8 .cfa: x29 80 +
STACK CFI 580b4 .cfa: sp 80 +
STACK CFI 580c8 .cfa: sp 0 +
STACK CFI 580cc .cfa: x29 80 +
STACK CFI 580d8 .cfa: sp 80 +
STACK CFI 580ec .cfa: sp 0 +
STACK CFI 580f0 .cfa: x29 80 +
STACK CFI 580f4 .cfa: sp 80 +
STACK CFI 58108 .cfa: sp 0 +
STACK CFI INIT 589b4 1c .cfa: sp 0 +
STACK CFI INIT 58cc4 4 .cfa: sp 0 +
STACK CFI INIT 59028 4 .cfa: sp 0 +
STACK CFI INIT 5902c 38 .cfa: sp 0 +
STACK CFI 59030 .cfa: sp 32 +
STACK CFI 59038 .cfa: x29 32 + x19: .cfa -16 + ^ .ra: .cfa -24 + ^ x29: .cfa -32 + ^
STACK CFI 59058 .cfa: sp 32 +
STACK CFI 59060 .cfa: sp 0 +
STACK CFI INIT 59064 18 .cfa: sp 0 +
STACK CFI INIT 5907c 4 .cfa: sp 0 +
STACK CFI INIT 59080 4 .cfa: sp 0 +
STACK CFI INIT 59084 8 .cfa: sp 0 +
STACK CFI INIT 5908c 1c .cfa: sp 0 +
STACK CFI INIT 590a8 c .cfa: sp 0 +
STACK CFI INIT 590b4 120 .cfa: sp 0 +
STACK CFI 590b8 .cfa: sp 48 +
STACK CFI 590c4 .cfa: x29 48 + x19: .cfa -8 + ^ x20: .cfa -16 + ^ x21: .cfa -24 + ^ x22: .cfa -32 + ^ .ra: .cfa -40 + ^ x29: .cfa -48 + ^
STACK CFI 591c4 .cfa: sp 48 +
STACK CFI 591d0 .cfa: sp 0 +
STACK CFI INIT 5927c 9c .cfa: sp 0 +
STACK CFI INIT 59bd0 1c .cfa: sp 0 +
STACK CFI INIT 5b430 4 .cfa: sp 0 +
STACK CFI INIT 5b544 4 .cfa: sp 0 +
STACK CFI INIT 5b548 38 .cfa: sp 0 +
STACK CFI 5b54c .cfa: sp 32 +
STACK CFI 5b554 .cfa: x29 32 + x19: .cfa -16 + ^ .ra: .cfa -24 + ^ x29: .cfa -32 + ^
STACK CFI 5b574 .cfa: sp 32 +
STACK CFI 5b57c .cfa: sp 0 +
STACK CFI INIT 5b580 18 .cfa: sp 0 +
STACK CFI INIT 5b598 4 .cfa: sp 0 +
STACK CFI INIT 5b59c 4 .cfa: sp 0 +
STACK CFI INIT 5b5a0 8 .cfa: sp 0 +
STACK CFI INIT 5b5a8 1c .cfa: sp 0 +
STACK CFI INIT 5b5c4 c .cfa: sp 0 +
STACK CFI INIT 5b754 28 .cfa: sp 0 +
STACK CFI 5b758 .cfa: sp 32 +
STACK CFI 5b760 .cfa: x29 32 + x19: .cfa -16 + ^ .ra: .cfa -24 + ^ x29: .cfa -32 + ^
STACK CFI 5b770 .cfa: sp 32 +
STACK CFI 5b778 .cfa: sp 0 +
STACK CFI INIT 5b77c 28 .cfa: sp 0 +
STACK CFI 5b780 .cfa: sp 32 +
STACK CFI 5b788 .cfa: x29 32 + x19: .cfa -16 + ^ .ra: .cfa -24 + ^ x29: .cfa -32 + ^
STACK CFI 5b798 .cfa: sp 32 +
STACK CFI 5b7a0 .cfa: sp 0 +
STACK CFI INIT 5b7a4 44 .cfa: sp 0 +
STACK CFI 5b7a8 .cfa: sp 32 +
STACK CFI 5b7b0 .cfa: x29 32 + x19: .cfa -8 + ^ x20: .cfa -16 + ^ .ra: .cfa -24 + ^ x29: .cfa -32 + ^
STACK CFI 5b7dc .cfa: sp 32 +
STACK CFI 5b7e4 .cfa: sp 0 +
STACK CFI INIT 5bcdc 28 .cfa: sp 0 +
STACK CFI 5bce0 .cfa: sp 32 +
STACK CFI 5bce8 .cfa: x29 32 + x19: .cfa -16 + ^ .ra: .cfa -24 + ^ x29: .cfa -32 + ^
STACK CFI 5bcf8 .cfa: sp 32 +
STACK CFI 5bd00 .cfa: sp 0 +
STACK CFI INIT 5bd04 28 .cfa: sp 0 +
STACK CFI 5bd08 .cfa: sp 32 +
STACK CFI 5bd10 .cfa: x29 32 + x19: .cfa -16 + ^ .ra: .cfa -24 + ^ x29: .cfa -32 + ^
STACK CFI 5bd20 .cfa: sp 32 +
STACK CFI 5bd28 .cfa: sp 0 +
STACK CFI INIT 5be30 28 .cfa: sp 0 +
STACK CFI 5be34 .cfa: sp 32 +
STACK CFI 5be3c .cfa: x29 32 + x19: .cfa -16 + ^ .ra: .cfa -24 + ^ x29: .cfa -32 + ^
STACK CFI 5be4c .cfa: sp 32 +
STACK CFI 5be54 .cfa: sp 0 +
STACK CFI INIT 5bf5c 28 .cfa: sp 0 +
STACK CFI 5bf60 .cfa: sp 32 +
STACK CFI 5bf68 .cfa: x29 32 + x19: .cfa -16 + ^ .ra: .cfa -24 + ^ x29: .cfa -32 + ^
STACK CFI 5bf78 .cfa: sp 32 +
STACK CFI 5bf80 .cfa: sp 0 +
STACK CFI INIT 5bf84 28 .cfa: sp 0 +
STACK CFI 5bf88 .cfa: sp 32 +
STACK CFI 5bf90 .cfa: x29 32 + x19: .cfa -16 + ^ .ra: .cfa -24 + ^ x29: .cfa -32 + ^
STACK CFI 5bfa0 .cfa: sp 32 +
STACK CFI 5bfa8 .cfa: sp 0 +
STACK CFI INIT 5cc20 1c .cfa: sp 0 +
STACK CFI INIT 5d268 4 .cfa: sp 0 +
STACK CFI INIT 5d37c 4 .cfa: sp 0 +
STACK CFI INIT 5d380 38 .cfa: sp 0 +
STACK CFI 5d384 .cfa: sp 32 +
STACK CFI 5d38c .cfa: x29 32 + x19: .cfa -16 + ^ .ra: .cfa -24 + ^ x29: .cfa -32 + ^
STACK CFI 5d3ac .cfa: sp 32 +
STACK CFI 5d3b4 .cfa: sp 0 +
STACK CFI INIT 5d3b8 18 .cfa: sp 0 +
STACK CFI INIT 5d3d0 4 .cfa: sp 0 +
STACK CFI INIT 5d3d4 4 .cfa: sp 0 +
STACK CFI INIT 5d3d8 8 .cfa: sp 0 +
STACK CFI INIT 5d3e0 1c .cfa: sp 0 +
STACK CFI INIT 5d3fc c .cfa: sp 0 +
STACK CFI INIT 5de40 4 .cfa: sp 0 +
STACK CFI INIT 5de44 24 .cfa: sp 0 +
STACK CFI 5de48 .cfa: sp 16 +
STACK CFI 5de4c .cfa: x29 16 + .ra: .cfa -8 + ^ x29: .cfa -16 + ^
STACK CFI 5de60 .cfa: sp 16 +
STACK CFI 5de64 .cfa: sp 0 +
STACK CFI INIT 5de68 10 .cfa: sp 0 +
STACK CFI INIT 5de78 4 .cfa: sp 0 +
STACK CFI INIT 5de7c 4 .cfa: sp 0 +
STACK CFI INIT 5de80 8 .cfa: sp 0 +
STACK CFI INIT 5de88 1c .cfa: sp 0 +
STACK CFI INIT 5dea4 c .cfa: sp 0 +
STACK CFI INIT 5e320 1c .cfa: sp 0 +
STACK CFI INIT 5e6f8 4 .cfa: sp 0 +
STACK CFI INIT 5e7c4 80 .cfa: sp 0 +
STACK CFI 5e7c8 .cfa: sp 32 +
STACK CFI 5e7d0 .cfa: x29 32 + x19: .cfa -16 + ^ .ra: .cfa -24 + ^ x29: .cfa -32 + ^
STACK CFI 5e838 .cfa: sp 32 +
STACK CFI 5e840 .cfa: sp 0 +
STACK CFI INIT 5e844 4 .cfa: sp 0 +
STACK CFI INIT 5e848 68 .cfa: sp 0 +
STACK CFI 5e84c .cfa: sp 48 +
STACK CFI 5e858 .cfa: x29 48 + x19: .cfa -8 + ^ x20: .cfa -16 + ^ x21: .cfa -32 + ^ .ra: .cfa -40 + ^ x29: .cfa -48 + ^
STACK CFI 5e890 .cfa: sp 48 +
STACK CFI 5e89c .cfa: sp 0 +
STACK CFI 5e8a0 .cfa: sp 48 +
STACK CFI 5e8ac .cfa: sp 0 +
STACK CFI INIT 5f328 64 .cfa: sp 0 +
STACK CFI 5f32c .cfa: sp 32 +
STACK CFI 5f334 .cfa: x29 32 + x19: .cfa -16 + ^ .ra: .cfa -24 + ^ x29: .cfa -32 + ^
STACK CFI 5f350 .cfa: sp 32 +
STACK CFI 5f358 .cfa: sp 0 +
STACK CFI 5f35c .cfa: x29 32 +
STACK CFI 5f380 .cfa: sp 32 +
STACK CFI 5f388 .cfa: sp 0 +
STACK CFI INIT 5f38c 68 .cfa: sp 0 +
STACK CFI 5f390 .cfa: sp 48 +
STACK CFI 5f39c .cfa: x29 48 + x19: .cfa -8 + ^ x20: .cfa -16 + ^ x21: .cfa -32 + ^ .ra: .cfa -40 + ^ x29: .cfa -48 + ^
STACK CFI 5f3d4 .cfa: sp 48 +
STACK CFI 5f3e0 .cfa: sp 0 +
STACK CFI 5f3e4 .cfa: sp 48 +
STACK CFI 5f3f0 .cfa: sp 0 +
STACK CFI INIT 5f3f4 c4 .cfa: sp 0 +
STACK CFI 5f3f8 .cfa: sp 48 +
STACK CFI 5f404 .cfa: x29 48 + x19: .cfa -8 + ^ x20: .cfa -16 + ^ x21: .cfa -24 + ^ x22: .cfa -32 + ^ .ra: .cfa -40 + ^ x29: .cfa -48 + ^
STACK CFI 5f424 .cfa: sp 48 +
STACK CFI 5f430 .cfa: sp 0 +
STACK CFI 5f434 .cfa: x29 48 +
STACK CFI 5f498 .cfa: sp 48 +
STACK CFI 5f4a4 .cfa: sp 0 +
STACK CFI 5f4a8 .cfa: sp 48 +
STACK CFI 5f4b4 .cfa: sp 0 +
STACK CFI INIT 61e10 7bc .cfa: sp 0 +
STACK CFI 61e14 .cfa: sp 176 +
STACK CFI 61e30 .cfa: x29 96 + x19: .cfa -8 + ^ x20: .cfa -16 + ^ x21: .cfa -24 + ^ x22: .cfa -32 + ^ x23: .cfa -40 + ^ x24: .cfa -48 + ^ x25: .cfa -56 + ^ x26: .cfa -64 + ^ x27: .cfa -72 + ^ x28: .cfa -80 + ^ .ra: .cfa -88 + ^ x29: .cfa -96 + ^
STACK CFI 62584 .cfa: sp 176 +
STACK CFI 625a0 .cfa: sp 0 +
STACK CFI 625a4 .cfa: x29 96 +
STACK CFI INIT 62a34 7c .cfa: sp 0 +
STACK CFI 62a38 .cfa: sp 32 +
STACK CFI 62a40 .cfa: x29 32 + x19: .cfa -16 + ^ .ra: .cfa -24 + ^ x29: .cfa -32 + ^
STACK CFI 62a64 .cfa: sp 32 +
STACK CFI 62a6c .cfa: sp 0 +
STACK CFI 62a70 .cfa: x29 32 +
STACK CFI 62aa4 .cfa: sp 32 +
STACK CFI 62aac .cfa: sp 0 +
STACK CFI INIT 62ab0 7c .cfa: sp 0 +
STACK CFI 62ab4 .cfa: sp 32 +
STACK CFI 62abc .cfa: x29 32 + x19: .cfa -16 + ^ .ra: .cfa -24 + ^ x29: .cfa -32 + ^
STACK CFI 62ae0 .cfa: sp 32 +
STACK CFI 62ae8 .cfa: sp 0 +
STACK CFI 62aec .cfa: x29 32 +
STACK CFI 62b20 .cfa: sp 32 +
STACK CFI 62b28 .cfa: sp 0 +
STACK CFI INIT 62b2c 7c .cfa: sp 0 +
STACK CFI 62b30 .cfa: sp 32 +
STACK CFI 62b38 .cfa: x29 32 + x19: .cfa -16 + ^ .ra: .cfa -24 + ^ x29: .cfa -32 + ^
STACK CFI 62b5c .cfa: sp 32 +
STACK CFI 62b64 .cfa: sp 0 +
STACK CFI 62b68 .cfa: x29 32 +
STACK CFI 62b9c .cfa: sp 32 +
STACK CFI 62ba4 .cfa: sp 0 +
STACK CFI INIT 62ba8 7c .cfa: sp 0 +
STACK CFI 62bac .cfa: sp 32 +
STACK CFI 62bb4 .cfa: x29 32 + x19: .cfa -16 + ^ .ra: .cfa -24 + ^ x29: .cfa -32 + ^
STACK CFI 62bd8 .cfa: sp 32 +
STACK CFI 62be0 .cfa: sp 0 +
STACK CFI 62be4 .cfa: x29 32 +
STACK CFI 62c18 .cfa: sp 32 +
STACK CFI 62c20 .cfa: sp 0 +
STACK CFI INIT 62c24 7c .cfa: sp 0 +
STACK CFI 62c28 .cfa: sp 32 +
STACK CFI 62c30 .cfa: x29 32 + x19: .cfa -16 + ^ .ra: .cfa -24 + ^ x29: .cfa -32 + ^
STACK CFI 62c54 .cfa: sp 32 +
STACK CFI 62c5c .cfa: sp 0 +
STACK CFI 62c60 .cfa: x29 32 +
STACK CFI 62c94 .cfa: sp 32 +
STACK CFI 62c9c .cfa: sp 0 +
STACK CFI INIT 64e70 50 .cfa: sp 0 +
STACK CFI 64e74 .cfa: sp 32 +
STACK CFI 64e7c .cfa: x29 32 + x19: .cfa -16 + ^ .ra: .cfa -24 + ^ x29: .cfa -32 + ^
STACK CFI 64e94 .cfa: sp 32 +
STACK CFI 64e9c .cfa: sp 0 +
STACK CFI 64ea0 .cfa: x29 32 +
STACK CFI 64eb4 .cfa: sp 32 +
STACK CFI 64ebc .cfa: sp 0 +
STACK CFI INIT 64ec0 a4 .cfa: sp 0 +
STACK CFI 64edc .cfa: sp 32 +
STACK CFI 64ee4 .cfa: x29 32 + x19: .cfa -16 + ^ .ra: .cfa -24 + ^ x29: .cfa -32 + ^
STACK CFI 64efc .cfa: sp 32 +
STACK CFI 64f04 .cfa: sp 0 +
STACK CFI 64f08 .cfa: x29 32 +
STACK CFI 64f58 .cfa: sp 32 +
STACK CFI 64f60 .cfa: sp 0 +
STACK CFI INIT 673ec 3c .cfa: sp 0 +
STACK CFI 673f0 .cfa: sp 32 +
STACK CFI 673f8 .cfa: x29 32 + x19: .cfa -16 + ^ .ra: .cfa -24 + ^ x29: .cfa -32 + ^
STACK CFI 6740c .cfa: sp 32 +
STACK CFI 67414 .cfa: sp 0 +
STACK CFI 67418 .cfa: x29 32 +
STACK CFI 6741c .cfa: sp 32 +
STACK CFI 67424 .cfa: sp 0 +
STACK CFI INIT 677c8 94 .cfa: sp 0 +
STACK CFI 677cc .cfa: sp 32 +
STACK CFI 677d4 .cfa: x29 32 + x19: .cfa -16 + ^ .ra: .cfa -24 + ^ x29: .cfa -32 + ^
STACK CFI 67800 .cfa: sp 32 +
STACK CFI 67808 .cfa: sp 0 +
STACK CFI 6780c .cfa: x29 32 +
STACK CFI 67850 .cfa: sp 32 +
STACK CFI 67858 .cfa: sp 0 +
STACK CFI INIT 6785c 94 .cfa: sp 0 +
STACK CFI 67860 .cfa: sp 32 +
STACK CFI 67868 .cfa: x29 32 + x19: .cfa -16 + ^ .ra: .cfa -24 + ^ x29: .cfa -32 + ^
STACK CFI 67894 .cfa: sp 32 +
STACK CFI 6789c .cfa: sp 0 +
STACK CFI 678a0 .cfa: x29 32 +
STACK CFI 678e4 .cfa: sp 32 +
STACK CFI 678ec .cfa: sp 0 +
STACK CFI INIT 678f0 44 .cfa: sp 0 +
STACK CFI 678f4 .cfa: sp 32 +
STACK CFI 678fc .cfa: x29 32 + x19: .cfa -16 + ^ .ra: .cfa -24 + ^ x29: .cfa -32 + ^
STACK CFI 67918 .cfa: sp 32 +
STACK CFI 67920 .cfa: sp 0 +
STACK CFI 67924 .cfa: x29 32 +
STACK CFI 67928 .cfa: sp 32 +
STACK CFI 67930 .cfa: sp 0 +
STACK CFI INIT 67934 200 .cfa: sp 0 +
STACK CFI 67938 .cfa: sp 64 +
STACK CFI 67948 .cfa: x29 64 + x19: .cfa -8 + ^ x20: .cfa -16 + ^ x21: .cfa -24 + ^ x22: .cfa -32 + ^ x23: .cfa -40 + ^ x24: .cfa -48 + ^ .ra: .cfa -56 + ^ x29: .cfa -64 + ^
STACK CFI 67b18 .cfa: sp 64 +
STACK CFI 67b28 .cfa: sp 0 +
STACK CFI 67b2c .cfa: x29 64 +
STACK CFI INIT 67b34 14 .cfa: sp 0 +
STACK CFI 67b38 .cfa: sp 16 +
STACK CFI 67b3c .cfa: x29 16 + .ra: .cfa -8 + ^ x29: .cfa -16 + ^
STACK CFI INIT 67b48 40 .cfa: sp 0 +
STACK CFI 67b60 .cfa: sp 32 +
STACK CFI 67b68 .cfa: x29 32 + x19: .cfa -16 + ^ .ra: .cfa -24 + ^ x29: .cfa -32 + ^
STACK CFI 67b7c .cfa: sp 32 +
STACK CFI 67b84 .cfa: sp 0 +
STACK CFI INIT 67b88 b0 .cfa: sp 0 +
STACK CFI 67b8c .cfa: sp 80 +
STACK CFI 67b9c .cfa: x29 48 + x19: .cfa -8 + ^ x20: .cfa -16 + ^ x21: .cfa -32 + ^ .ra: .cfa -40 + ^ x29: .cfa -48 + ^
STACK CFI 67c20 .cfa: sp 80 +
STACK CFI 67c30 .cfa: sp 0 +
STACK CFI 67c34 .cfa: x29 48 +
STACK CFI INIT 67c38 44 .cfa: sp 0 +
STACK CFI 67c3c .cfa: sp 32 +
STACK CFI 67c44 .cfa: x29 32 + x19: .cfa -16 + ^ .ra: .cfa -24 + ^ x29: .cfa -32 + ^
STACK CFI 67c70 .cfa: sp 32 +
STACK CFI 67c78 .cfa: sp 0 +
STACK CFI INIT 67c7c e8 .cfa: sp 0 +
STACK CFI 67c80 .cfa: sp 32 +
STACK CFI 67c88 .cfa: x29 32 + x19: .cfa -8 + ^ x20: .cfa -16 + ^ .ra: .cfa -24 + ^ x29: .cfa -32 + ^
STACK CFI 67cc8 .cfa: sp 32 +
STACK CFI 67cd0 .cfa: sp 0 +
STACK CFI 67cd4 .cfa: x29 32 +
STACK CFI 67d10 .cfa: sp 32 +
STACK CFI 67d18 .cfa: sp 0 +
STACK CFI 67d1c .cfa: x29 32 +
STACK CFI 67d3c .cfa: sp 32 +
STACK CFI 67d44 .cfa: sp 0 +
STACK CFI 67d48 .cfa: x29 32 +
STACK CFI 67d58 .cfa: sp 32 +
STACK CFI 67d60 .cfa: sp 0 +
STACK CFI INIT 67d64 d8 .cfa: sp 0 +
STACK CFI 67d68 .cfa: sp 48 +
STACK CFI 67d74 .cfa: x29 48 + x19: .cfa -8 + ^ x20: .cfa -16 + ^ x21: .cfa -32 + ^ .ra: .cfa -40 + ^ x29: .cfa -48 + ^
STACK CFI 67da8 .cfa: sp 48 +
STACK CFI 67db4 .cfa: sp 0 +
STACK CFI 67db8 .cfa: x29 48 +
STACK CFI 67e14 .cfa: sp 48 +
STACK CFI 67e20 .cfa: sp 0 +
STACK CFI 67e24 .cfa: x29 48 +
STACK CFI INIT 696d8 200 .cfa: sp 0 +
STACK CFI 696dc .cfa: sp 336 +
STACK CFI 696f4 .cfa: x29 80 + x19: .cfa -8 + ^ x20: .cfa -16 + ^ x21: .cfa -24 + ^ x22: .cfa -32 + ^ x23: .cfa -40 + ^ x24: .cfa -48 + ^ x25: .cfa -56 + ^ x28: .cfa -64 + ^ .ra: .cfa -72 + ^ x29: .cfa -80 + ^
STACK CFI 698b8 .cfa: sp 336 +
STACK CFI 698d0 .cfa: sp 0 +
STACK CFI 698d4 .cfa: x29 80 +
STACK CFI INIT 698d8 68 .cfa: sp 0 +
STACK CFI 698dc .cfa: sp 48 +
STACK CFI 698e8 .cfa: x29 48 + x19: .cfa -8 + ^ x20: .cfa -16 + ^ x21: .cfa -32 + ^ .ra: .cfa -40 + ^ x29: .cfa -48 + ^
STACK CFI 69920 .cfa: sp 48 +
STACK CFI 6992c .cfa: sp 0 +
STACK CFI 69930 .cfa: sp 48 +
STACK CFI 6993c .cfa: sp 0 +
STACK CFI INIT 69940 54 .cfa: sp 0 +
STACK CFI 69944 .cfa: sp 32 +
STACK CFI 6994c .cfa: x29 32 + x19: .cfa -8 + ^ x20: .cfa -16 + ^ .ra: .cfa -24 + ^ x29: .cfa -32 + ^
STACK CFI 6997c .cfa: sp 32 +
STACK CFI 69984 .cfa: sp 0 +
STACK CFI 69988 .cfa: sp 32 +
STACK CFI 69990 .cfa: sp 0 +
STACK CFI INIT 69994 14 .cfa: sp 0 +
STACK CFI 69998 .cfa: sp 16 +
STACK CFI 6999c .cfa: x29 16 + .ra: .cfa -8 + ^ x29: .cfa -16 + ^
STACK CFI INIT 69cec 4 .cfa: sp 0 +
STACK CFI INIT 69cf0 34 .cfa: sp 0 +
STACK CFI 69cf4 .cfa: sp 32 +
STACK CFI 69cfc .cfa: x29 32 + x19: .cfa -16 + ^ .ra: .cfa -24 + ^ x29: .cfa -32 + ^
STACK CFI 69d18 .cfa: sp 32 +
STACK CFI 69d20 .cfa: sp 0 +
STACK CFI INIT 69d24 14 .cfa: sp 0 +
STACK CFI INIT 69d38 4 .cfa: sp 0 +
STACK CFI INIT 69d3c 4 .cfa: sp 0 +
STACK CFI INIT 69d40 10 .cfa: sp 0 +
STACK CFI INIT 69d50 1c .cfa: sp 0 +
STACK CFI INIT 69d6c c .cfa: sp 0 +
STACK CFI INIT 69d78 a4 .cfa: sp 0 +
STACK CFI 69d7c .cfa: sp 48 +
STACK CFI 69d88 .cfa: x29 48 + x19: .cfa -8 + ^ x20: .cfa -16 + ^ x21: .cfa -32 + ^ .ra: .cfa -40 + ^ x29: .cfa -48 + ^
STACK CFI 69ddc .cfa: sp 48 +
STACK CFI 69de8 .cfa: sp 0 +
STACK CFI 69dec .cfa: x29 48 +
STACK CFI 69e0c .cfa: sp 48 +
STACK CFI 69e18 .cfa: sp 0 +
STACK CFI INIT 69f88 9c .cfa: sp 0 +
STACK CFI 69f90 .cfa: sp 48 +
STACK CFI 69f9c .cfa: x29 48 + x19: .cfa -8 + ^ x20: .cfa -16 + ^ x21: .cfa -32 + ^ .ra: .cfa -40 + ^ x29: .cfa -48 + ^
STACK CFI 69ff0 .cfa: sp 0 + x19: x19 x20: x20 x21: x21 .ra: x30 x29: x29
STACK CFI 69ff4 .cfa: x29 48 + x19: .cfa -8 + ^ x20: .cfa -16 + ^ x21: .cfa -32 + ^ .ra: .cfa -40 + ^ x29: .cfa -48 + ^
STACK CFI 6a014 .cfa: sp 48 +
STACK CFI 6a020 .cfa: sp 0 +
STACK CFI INIT 6a024 8c .cfa: sp 0 +
STACK CFI 6a028 .cfa: sp 48 +
STACK CFI 6a034 .cfa: x29 48 + x19: .cfa -8 + ^ x20: .cfa -16 + ^ x21: .cfa -32 + ^ .ra: .cfa -40 + ^ x29: .cfa -48 + ^
STACK CFI 6a08c .cfa: sp 48 +
STACK CFI 6a098 .cfa: sp 0 +
STACK CFI 6a09c .cfa: x29 48 +
STACK CFI 6a0a0 .cfa: sp 48 +
STACK CFI 6a0ac .cfa: sp 0 +
STACK CFI INIT 6a568 54 .cfa: sp 0 +
STACK CFI 6a56c .cfa: sp 32 +
STACK CFI 6a574 .cfa: x29 32 + x19: .cfa -8 + ^ x20: .cfa -16 + ^ .ra: .cfa -24 + ^ x29: .cfa -32 + ^
STACK CFI 6a5a4 .cfa: sp 32 +
STACK CFI 6a5ac .cfa: sp 0 +
STACK CFI 6a5b0 .cfa: sp 32 +
STACK CFI 6a5b8 .cfa: sp 0 +
STACK CFI INIT 6a5bc 4 .cfa: sp 0 +
STACK CFI INIT 6a5c0 24 .cfa: sp 0 +
STACK CFI 6a5c4 .cfa: sp 16 +
STACK CFI 6a5c8 .cfa: x29 16 + .ra: .cfa -8 + ^ x29: .cfa -16 + ^
STACK CFI 6a5dc .cfa: sp 16 +
STACK CFI 6a5e0 .cfa: sp 0 +
STACK CFI INIT 6a5e4 10 .cfa: sp 0 +
STACK CFI INIT 6a5f4 4 .cfa: sp 0 +
STACK CFI INIT 6a5f8 4 .cfa: sp 0 +
STACK CFI INIT 6a5fc 4 .cfa: sp 0 +
STACK CFI INIT 6a600 1c .cfa: sp 0 +
STACK CFI INIT 6a61c c .cfa: sp 0 +
STACK CFI INIT 6a628 4 .cfa: sp 0 +
STACK CFI INIT 6a62c 4 .cfa: sp 0 +
STACK CFI INIT 6a630 38 .cfa: sp 0 +
STACK CFI 6a634 .cfa: sp 32 +
STACK CFI 6a63c .cfa: x29 32 + x19: .cfa -16 + ^ .ra: .cfa -24 + ^ x29: .cfa -32 + ^
STACK CFI 6a65c .cfa: sp 32 +
STACK CFI 6a664 .cfa: sp 0 +
STACK CFI INIT 6a668 18 .cfa: sp 0 +
STACK CFI INIT 6a680 4 .cfa: sp 0 +
STACK CFI INIT 6a684 4 .cfa: sp 0 +
STACK CFI INIT 6a688 4 .cfa: sp 0 +
STACK CFI INIT 6a68c 1c .cfa: sp 0 +
STACK CFI INIT 6a6a8 c .cfa: sp 0 +
STACK CFI INIT 6aafc 50 .cfa: sp 0 +
STACK CFI 6ab00 .cfa: sp 32 +
STACK CFI 6ab08 .cfa: x29 32 + x19: .cfa -8 + ^ x20: .cfa -16 + ^ .ra: .cfa -24 + ^ x29: .cfa -32 + ^
STACK CFI 6ab34 .cfa: sp 32 +
STACK CFI 6ab3c .cfa: sp 0 +
STACK CFI 6ab40 .cfa: sp 32 +
STACK CFI 6ab48 .cfa: sp 0 +
STACK CFI INIT 6ab4c 3c .cfa: sp 0 +
STACK CFI 6ab50 .cfa: sp 32 +
STACK CFI 6ab58 .cfa: x29 32 + x19: .cfa -16 + ^ .ra: .cfa -24 + ^ x29: .cfa -32 + ^
STACK CFI 6ab70 .cfa: sp 32 +
STACK CFI 6ab78 .cfa: sp 0 +
STACK CFI 6ab7c .cfa: sp 32 +
STACK CFI 6ab84 .cfa: sp 0 +
STACK CFI INIT 6ab88 1c8 .cfa: sp 0 +
STACK CFI 6ab8c .cfa: sp 80 +
STACK CFI 6aba0 .cfa: x29 80 + x19: .cfa -8 + ^ x20: .cfa -16 + ^ x21: .cfa -24 + ^ x22: .cfa -32 + ^ x23: .cfa -40 + ^ x24: .cfa -48 + ^ x25: .cfa -64 + ^ .ra: .cfa -72 + ^ x29: .cfa -80 + ^
STACK CFI 6ad20 .cfa: sp 80 +
STACK CFI 6ad34 .cfa: sp 0 +
STACK CFI 6ad38 .cfa: sp 80 +
STACK CFI 6ad4c .cfa: sp 0 +
STACK CFI INIT 6b460 88 .cfa: sp 0 +
STACK CFI 6b464 .cfa: sp 32 +
STACK CFI 6b46c .cfa: x29 32 + x19: .cfa -16 + ^ .ra: .cfa -24 + ^ x29: .cfa -32 + ^
STACK CFI 6b49c .cfa: sp 32 +
STACK CFI 6b4a4 .cfa: sp 0 +
STACK CFI 6b4a8 .cfa: x29 32 +
STACK CFI 6b4dc .cfa: sp 32 +
STACK CFI 6b4e4 .cfa: sp 0 +
STACK CFI INIT 6b4e8 94 .cfa: sp 0 +
STACK CFI 6b4ec .cfa: sp 32 +
STACK CFI 6b4f4 .cfa: x29 32 + x19: .cfa -16 + ^ .ra: .cfa -24 + ^ x29: .cfa -32 + ^
STACK CFI 6b528 .cfa: sp 32 +
STACK CFI 6b530 .cfa: sp 0 +
STACK CFI 6b534 .cfa: x29 32 +
STACK CFI 6b570 .cfa: sp 32 +
STACK CFI 6b578 .cfa: sp 0 +
STACK CFI INIT 6b6d0 7c .cfa: sp 0 +
STACK CFI 6b6d4 .cfa: sp 32 +
STACK CFI 6b6dc .cfa: x29 32 + x19: .cfa -16 + ^ .ra: .cfa -24 + ^ x29: .cfa -32 + ^
STACK CFI 6b700 .cfa: sp 32 +
STACK CFI 6b708 .cfa: sp 0 +
STACK CFI 6b70c .cfa: x29 32 +
STACK CFI 6b740 .cfa: sp 32 +
STACK CFI 6b748 .cfa: sp 0 +
STACK CFI INIT 6b74c 88 .cfa: sp 0 +
STACK CFI 6b750 .cfa: sp 32 +
STACK CFI 6b758 .cfa: x29 32 + x19: .cfa -16 + ^ .ra: .cfa -24 + ^ x29: .cfa -32 + ^
STACK CFI 6b780 .cfa: sp 32 +
STACK CFI 6b788 .cfa: sp 0 +
STACK CFI 6b78c .cfa: x29 32 +
STACK CFI 6b7c8 .cfa: sp 32 +
STACK CFI 6b7d0 .cfa: sp 0 +
STACK CFI INIT 6d138 1c .cfa: sp 0 +
STACK CFI INIT 6d154 c .cfa: sp 0 +
STACK CFI INIT 6e010 1a4 .cfa: sp 0 +
STACK CFI 6e014 .cfa: sp 64 +
STACK CFI 6e020 .cfa: x29 32 + x19: .cfa -8 + ^ x20: .cfa -16 + ^ .ra: .cfa -24 + ^ x29: .cfa -32 + ^
STACK CFI 6e14c .cfa: sp 64 +
STACK CFI 6e158 .cfa: sp 0 +
STACK CFI 6e15c .cfa: x29 32 +
STACK CFI INIT 6e1b4 198 .cfa: sp 0 +
STACK CFI 6e1b8 .cfa: sp 16 +
STACK CFI 6e1bc .cfa: x29 16 + .ra: .cfa -8 + ^ x29: .cfa -16 + ^
STACK CFI 6e258 .cfa: sp 16 +
STACK CFI 6e25c .cfa: sp 0 +
STACK CFI 6e260 .cfa: x29 16 +
STACK CFI 6e32c .cfa: sp 16 +
STACK CFI 6e330 .cfa: sp 0 +
STACK CFI 6e334 .cfa: x29 16 +
STACK CFI INIT 6e34c 114 .cfa: sp 0 +
STACK CFI 6e350 .cfa: sp 128 +
STACK CFI 6e360 .cfa: x29 48 + x19: .cfa -8 + ^ x20: .cfa -16 + ^ x21: .cfa -32 + ^ .ra: .cfa -40 + ^ x29: .cfa -48 + ^
STACK CFI 6e42c .cfa: sp 128 +
STACK CFI 6e43c .cfa: sp 0 +
STACK CFI 6e440 .cfa: x29 48 +
STACK CFI INIT 6e460 27c .cfa: sp 0 +
STACK CFI 6e464 .cfa: sp 176 +
STACK CFI 6e480 .cfa: x29 96 + x19: .cfa -8 + ^ x20: .cfa -16 + ^ x21: .cfa -24 + ^ x22: .cfa -32 + ^ x23: .cfa -40 + ^ x24: .cfa -48 + ^ x25: .cfa -56 + ^ x26: .cfa -64 + ^ x27: .cfa -72 + ^ x28: .cfa -80 + ^ .ra: .cfa -88 + ^ x29: .cfa -96 + ^
STACK CFI 6e6b8 .cfa: sp 176 +
STACK CFI 6e6d4 .cfa: sp 0 +
STACK CFI 6e6d8 .cfa: x29 96 +
STACK CFI INIT 6e6dc 94 .cfa: sp 0 +
STACK CFI 6e6e0 .cfa: sp 16 +
STACK CFI 6e6e4 .cfa: x29 16 + .ra: .cfa -8 + ^ x29: .cfa -16 + ^
STACK CFI 6e738 .cfa: sp 16 +
STACK CFI 6e73c .cfa: sp 0 +
STACK CFI 6e740 .cfa: x29 16 +
STACK CFI INIT 6e770 134 .cfa: sp 0 +
STACK CFI 6e774 .cfa: sp 96 +
STACK CFI 6e78c .cfa: x29 96 + x19: .cfa -8 + ^ x20: .cfa -16 + ^ x21: .cfa -24 + ^ x22: .cfa -32 + ^ x23: .cfa -40 + ^ x24: .cfa -48 + ^ x25: .cfa -56 + ^ x26: .cfa -64 + ^ x27: .cfa -72 + ^ x28: .cfa -80 + ^ .ra: .cfa -88 + ^ x29: .cfa -96 + ^
STACK CFI 6e85c .cfa: sp 96 +
STACK CFI 6e860 .cfa: x29 96 +
STACK CFI 6e864 .cfa: sp 96 +
STACK CFI 6e87c .cfa: sp 0 +
STACK CFI 6e880 .cfa: x29 96 +
STACK CFI 6e8a0 .cfa: sp 96 +
STACK CFI INIT 6e8a4 4e4 .cfa: sp 0 +
STACK CFI 6e8a8 .cfa: sp 160 +
STACK CFI 6e8c4 .cfa: x29 96 + x19: .cfa -8 + ^ x20: .cfa -16 + ^ x21: .cfa -24 + ^ x22: .cfa -32 + ^ x23: .cfa -40 + ^ x24: .cfa -48 + ^ x25: .cfa -56 + ^ x26: .cfa -64 + ^ x27: .cfa -72 + ^ x28: .cfa -80 + ^ .ra: .cfa -88 + ^ x29: .cfa -96 + ^
STACK CFI 6ed64 .cfa: sp 160 +
STACK CFI 6ed80 .cfa: sp 0 +
STACK CFI 6ed84 .cfa: x29 96 +
STACK CFI INIT 6ed88 20c .cfa: sp 0 +
STACK CFI 6ed8c .cfa: sp 80 +
STACK CFI 6eda0 .cfa: x29 80 + x19: .cfa -8 + ^ x20: .cfa -16 + ^ x21: .cfa -24 + ^ x22: .cfa -32 + ^ x23: .cfa -40 + ^ x24: .cfa -48 + ^ x25: .cfa -64 + ^ .ra: .cfa -72 + ^ x29: .cfa -80 + ^
STACK CFI 6ee30 .cfa: sp 80 +
STACK CFI 6ee44 .cfa: sp 0 +
STACK CFI 6ee48 .cfa: x29 80 +
STACK CFI 6ee54 .cfa: sp 80 +
STACK CFI 6ee68 .cfa: sp 0 +
STACK CFI 6ee6c .cfa: x29 80 +
STACK CFI INIT 6ef94 3f4 .cfa: sp 0 +
STACK CFI 6ef98 .cfa: sp 128 +
STACK CFI 6efb4 .cfa: x29 96 + x19: .cfa -8 + ^ x20: .cfa -16 + ^ x21: .cfa -24 + ^ x22: .cfa -32 + ^ x23: .cfa -40 + ^ x24: .cfa -48 + ^ x25: .cfa -56 + ^ x26: .cfa -64 + ^ x27: .cfa -72 + ^ x28: .cfa -80 + ^ .ra: .cfa -88 + ^ x29: .cfa -96 + ^
STACK CFI 6f364 .cfa: sp 128 +
STACK CFI 6f380 .cfa: sp 0 +
STACK CFI 6f384 .cfa: x29 96 +
STACK CFI INIT 6f388 194 .cfa: sp 0 +
STACK CFI 6f38c .cfa: sp 32 +
STACK CFI 6f394 .cfa: x29 16 + .ra: .cfa -8 + ^ x29: .cfa -16 + ^
STACK CFI 6f3d8 .cfa: sp 32 +
STACK CFI 6f3e0 .cfa: sp 0 +
STACK CFI 6f3e4 .cfa: x29 16 +
STACK CFI INIT 6f51c 1b8 .cfa: sp 0 +
STACK CFI INIT 6f6d4 1d0 .cfa: sp 0 +
STACK CFI 6f6d8 .cfa: sp 80 +
STACK CFI 6f6ec .cfa: x29 80 + x19: .cfa -8 + ^ x20: .cfa -16 + ^ x21: .cfa -24 + ^ x22: .cfa -32 + ^ x23: .cfa -40 + ^ x24: .cfa -48 + ^ x25: .cfa -64 + ^ .ra: .cfa -72 + ^ x29: .cfa -80 + ^
STACK CFI 6f88c .cfa: sp 80 +
STACK CFI 6f8a0 .cfa: sp 0 +
STACK CFI INIT 6f8a4 648 .cfa: sp 0 +
STACK CFI 6f8a8 .cfa: sp 160 +
STACK CFI 6f8c4 .cfa: x29 96 + x19: .cfa -8 + ^ x20: .cfa -16 + ^ x21: .cfa -24 + ^ x22: .cfa -32 + ^ x23: .cfa -40 + ^ x24: .cfa -48 + ^ x25: .cfa -56 + ^ x26: .cfa -64 + ^ x27: .cfa -72 + ^ x28: .cfa -80 + ^ .ra: .cfa -88 + ^ x29: .cfa -96 + ^
STACK CFI 6fec8 .cfa: sp 160 +
STACK CFI 6fee4 .cfa: sp 0 +
STACK CFI 6fee8 .cfa: x29 96 +
STACK CFI INIT 6feec 1e4 .cfa: sp 0 +
STACK CFI 6fef0 .cfa: sp 32 +
STACK CFI 6fef8 .cfa: x29 32 + x19: .cfa -8 + ^ x20: .cfa -16 + ^ .ra: .cfa -24 + ^ x29: .cfa -32 + ^
STACK CFI 6ffe8 .cfa: sp 32 +
STACK CFI 6fff0 .cfa: sp 0 +
STACK CFI 6fff4 .cfa: x29 32 +
STACK CFI 70068 .cfa: sp 32 +
STACK CFI 70070 .cfa: sp 0 +
STACK CFI 70074 .cfa: x29 32 +
STACK CFI 70084 .cfa: sp 32 +
STACK CFI 7008c .cfa: sp 0 +
STACK CFI 70090 .cfa: x29 32 +
STACK CFI 700a0 .cfa: sp 32 +
STACK CFI 700a8 .cfa: sp 0 +
STACK CFI 700ac .cfa: x29 32 +
STACK CFI INIT 700d0 178 .cfa: sp 0 +
STACK CFI 700d4 .cfa: sp 80 +
STACK CFI 700e8 .cfa: x29 64 + x19: .cfa -8 + ^ x20: .cfa -16 + ^ x21: .cfa -24 + ^ x22: .cfa -32 + ^ x23: .cfa -40 + ^ x24: .cfa -48 + ^ .ra: .cfa -56 + ^ x29: .cfa -64 + ^
STACK CFI 7022c .cfa: sp 80 +
STACK CFI 70240 .cfa: sp 0 +
STACK CFI 70244 .cfa: x29 64 +
STACK CFI INIT 70248 178 .cfa: sp 0 +
STACK CFI 7024c .cfa: sp 80 +
STACK CFI 70260 .cfa: x29 64 + x19: .cfa -8 + ^ x20: .cfa -16 + ^ x21: .cfa -24 + ^ x22: .cfa -32 + ^ x23: .cfa -40 + ^ x24: .cfa -48 + ^ .ra: .cfa -56 + ^ x29: .cfa -64 + ^
STACK CFI 703a4 .cfa: sp 80 +
STACK CFI 703b8 .cfa: sp 0 +
STACK CFI 703bc .cfa: x29 64 +
STACK CFI INIT 703c0 178 .cfa: sp 0 +
STACK CFI 703c4 .cfa: sp 80 +
STACK CFI 703d8 .cfa: x29 64 + x19: .cfa -8 + ^ x20: .cfa -16 + ^ x21: .cfa -24 + ^ x22: .cfa -32 + ^ x23: .cfa -40 + ^ x24: .cfa -48 + ^ .ra: .cfa -56 + ^ x29: .cfa -64 + ^
STACK CFI 7051c .cfa: sp 80 +
STACK CFI 70530 .cfa: sp 0 +
STACK CFI 70534 .cfa: x29 64 +
STACK CFI INIT 70538 78 .cfa: sp 0 +
STACK CFI 7053c .cfa: sp 48 +
STACK CFI 70548 .cfa: x29 48 + x19: .cfa -8 + ^ x20: .cfa -16 + ^ x21: .cfa -24 + ^ x22: .cfa -32 + ^ .ra: .cfa -40 + ^ x29: .cfa -48 + ^
STACK CFI 70590 .cfa: sp 48 +
STACK CFI 7059c .cfa: sp 0 +
STACK CFI 705a0 .cfa: sp 48 +
STACK CFI 705ac .cfa: sp 0 +
STACK CFI INIT 705b0 178 .cfa: sp 0 +
STACK CFI 705b4 .cfa: sp 80 +
STACK CFI 705c8 .cfa: x29 64 + x19: .cfa -8 + ^ x20: .cfa -16 + ^ x21: .cfa -24 + ^ x22: .cfa -32 + ^ x23: .cfa -40 + ^ x24: .cfa -48 + ^ .ra: .cfa -56 + ^ x29: .cfa -64 + ^
STACK CFI 7070c .cfa: sp 80 +
STACK CFI 70720 .cfa: sp 0 +
STACK CFI 70724 .cfa: x29 64 +
STACK CFI INIT 70728 150 .cfa: sp 0 +
STACK CFI 7072c .cfa: sp 80 +
STACK CFI 70740 .cfa: x29 80 + x19: .cfa -8 + ^ x20: .cfa -16 + ^ x21: .cfa -24 + ^ x22: .cfa -32 + ^ x23: .cfa -40 + ^ x24: .cfa -48 + ^ x25: .cfa -64 + ^ .ra: .cfa -72 + ^ x29: .cfa -80 + ^
STACK CFI 70858 .cfa: sp 80 +
STACK CFI 7086c .cfa: sp 0 +
STACK CFI 70870 .cfa: x29 80 +
STACK CFI INIT 70878 14 .cfa: sp 0 +
STACK CFI 7087c .cfa: sp 16 +
STACK CFI 70880 .cfa: x29 16 + .ra: .cfa -8 + ^ x29: .cfa -16 + ^
STACK CFI INIT 7088c 24c .cfa: sp 0 +
STACK CFI 70890 .cfa: sp 80 +
STACK CFI 708a4 .cfa: x29 80 + x19: .cfa -8 + ^ x20: .cfa -16 + ^ x21: .cfa -24 + ^ x22: .cfa -32 + ^ x23: .cfa -40 + ^ x24: .cfa -48 + ^ x25: .cfa -64 + ^ .ra: .cfa -72 + ^ x29: .cfa -80 + ^
STACK CFI 70ab8 .cfa: sp 80 +
STACK CFI 70acc .cfa: sp 0 +
STACK CFI 70ad0 .cfa: x29 80 +
STACK CFI INIT 70ad8 14 .cfa: sp 0 +
STACK CFI 70adc .cfa: sp 16 +
STACK CFI 70ae0 .cfa: x29 16 + .ra: .cfa -8 + ^ x29: .cfa -16 + ^
STACK CFI INIT 70aec 88 .cfa: sp 0 +
STACK CFI 70af0 .cfa: sp 32 +
STACK CFI 70af8 .cfa: x29 32 + x19: .cfa -16 + ^ .ra: .cfa -24 + ^ x29: .cfa -32 + ^
STACK CFI 70b28 .cfa: sp 32 +
STACK CFI 70b30 .cfa: sp 0 +
STACK CFI 70b34 .cfa: x29 32 +
STACK CFI 70b68 .cfa: sp 32 +
STACK CFI 70b70 .cfa: sp 0 +
STACK CFI INIT 70b74 94 .cfa: sp 0 +
STACK CFI 70b78 .cfa: sp 32 +
STACK CFI 70b80 .cfa: x29 32 + x19: .cfa -16 + ^ .ra: .cfa -24 + ^ x29: .cfa -32 + ^
STACK CFI 70bb4 .cfa: sp 32 +
STACK CFI 70bbc .cfa: sp 0 +
STACK CFI 70bc0 .cfa: x29 32 +
STACK CFI 70bfc .cfa: sp 32 +
STACK CFI 70c04 .cfa: sp 0 +
STACK CFI INIT 70d5c 7c .cfa: sp 0 +
STACK CFI 70d60 .cfa: sp 32 +
STACK CFI 70d68 .cfa: x29 32 + x19: .cfa -16 + ^ .ra: .cfa -24 + ^ x29: .cfa -32 + ^
STACK CFI 70d8c .cfa: sp 32 +
STACK CFI 70d94 .cfa: sp 0 +
STACK CFI 70d98 .cfa: x29 32 +
STACK CFI 70dcc .cfa: sp 32 +
STACK CFI 70dd4 .cfa: sp 0 +
STACK CFI INIT 70dd8 88 .cfa: sp 0 +
STACK CFI 70ddc .cfa: sp 32 +
STACK CFI 70de4 .cfa: x29 32 + x19: .cfa -16 + ^ .ra: .cfa -24 + ^ x29: .cfa -32 + ^
STACK CFI 70e0c .cfa: sp 32 +
STACK CFI 70e14 .cfa: sp 0 +
STACK CFI 70e18 .cfa: x29 32 +
STACK CFI 70e54 .cfa: sp 32 +
STACK CFI 70e5c .cfa: sp 0 +
STACK CFI INIT 72858 1c .cfa: sp 0 +
STACK CFI INIT 72874 c .cfa: sp 0 +
STACK CFI INIT 72a48 88 .cfa: sp 0 +
STACK CFI 72a4c .cfa: sp 32 +
STACK CFI 72a54 .cfa: x29 32 + x19: .cfa -16 + ^ .ra: .cfa -24 + ^ x29: .cfa -32 + ^
STACK CFI 72a84 .cfa: sp 32 +
STACK CFI 72a8c .cfa: sp 0 +
STACK CFI 72a90 .cfa: x29 32 +
STACK CFI 72ac4 .cfa: sp 32 +
STACK CFI 72acc .cfa: sp 0 +
STACK CFI INIT 72ad0 94 .cfa: sp 0 +
STACK CFI 72ad4 .cfa: sp 32 +
STACK CFI 72adc .cfa: x29 32 + x19: .cfa -16 + ^ .ra: .cfa -24 + ^ x29: .cfa -32 + ^
STACK CFI 72b10 .cfa: sp 32 +
STACK CFI 72b18 .cfa: sp 0 +
STACK CFI 72b1c .cfa: x29 32 +
STACK CFI 72b58 .cfa: sp 32 +
STACK CFI 72b60 .cfa: sp 0 +
STACK CFI INIT 72cb8 7c .cfa: sp 0 +
STACK CFI 72cbc .cfa: sp 32 +
STACK CFI 72cc4 .cfa: x29 32 + x19: .cfa -16 + ^ .ra: .cfa -24 + ^ x29: .cfa -32 + ^
STACK CFI 72ce8 .cfa: sp 32 +
STACK CFI 72cf0 .cfa: sp 0 +
STACK CFI 72cf4 .cfa: x29 32 +
STACK CFI 72d28 .cfa: sp 32 +
STACK CFI 72d30 .cfa: sp 0 +
STACK CFI INIT 72d34 88 .cfa: sp 0 +
STACK CFI 72d38 .cfa: sp 32 +
STACK CFI 72d40 .cfa: x29 32 + x19: .cfa -16 + ^ .ra: .cfa -24 + ^ x29: .cfa -32 + ^
STACK CFI 72d68 .cfa: sp 32 +
STACK CFI 72d70 .cfa: sp 0 +
STACK CFI 72d74 .cfa: x29 32 +
STACK CFI 72db0 .cfa: sp 32 +
STACK CFI 72db8 .cfa: sp 0 +
STACK CFI INIT 744e8 1c .cfa: sp 0 +
STACK CFI INIT 74504 c .cfa: sp 0 +
STACK CFI INIT 74510 10c .cfa: sp 0 +
STACK CFI 74514 .cfa: sp 48 +
STACK CFI 74520 .cfa: x29 48 + x19: .cfa -8 + ^ x20: .cfa -16 + ^ x21: .cfa -32 + ^ .ra: .cfa -40 + ^ x29: .cfa -48 + ^
STACK CFI 7460c .cfa: sp 48 +
STACK CFI 74618 .cfa: sp 0 +
STACK CFI INIT 7461c 88 .cfa: sp 0 +
STACK CFI 74620 .cfa: sp 32 +
STACK CFI 74628 .cfa: x29 32 + x19: .cfa -16 + ^ .ra: .cfa -24 + ^ x29: .cfa -32 + ^
STACK CFI 74658 .cfa: sp 32 +
STACK CFI 74660 .cfa: sp 0 +
STACK CFI 74664 .cfa: x29 32 +
STACK CFI 74698 .cfa: sp 32 +
STACK CFI 746a0 .cfa: sp 0 +
STACK CFI INIT 746a4 94 .cfa: sp 0 +
STACK CFI 746a8 .cfa: sp 32 +
STACK CFI 746b0 .cfa: x29 32 + x19: .cfa -16 + ^ .ra: .cfa -24 + ^ x29: .cfa -32 + ^
STACK CFI 746e4 .cfa: sp 32 +
STACK CFI 746ec .cfa: sp 0 +
STACK CFI 746f0 .cfa: x29 32 +
STACK CFI 7472c .cfa: sp 32 +
STACK CFI 74734 .cfa: sp 0 +
STACK CFI INIT 74884 7c .cfa: sp 0 +
STACK CFI 74888 .cfa: sp 32 +
STACK CFI 74890 .cfa: x29 32 + x19: .cfa -16 + ^ .ra: .cfa -24 + ^ x29: .cfa -32 + ^
STACK CFI 748b4 .cfa: sp 32 +
STACK CFI 748bc .cfa: sp 0 +
STACK CFI 748c0 .cfa: x29 32 +
STACK CFI 748f4 .cfa: sp 32 +
STACK CFI 748fc .cfa: sp 0 +
STACK CFI INIT 74900 88 .cfa: sp 0 +
STACK CFI 74904 .cfa: sp 32 +
STACK CFI 7490c .cfa: x29 32 + x19: .cfa -16 + ^ .ra: .cfa -24 + ^ x29: .cfa -32 + ^
STACK CFI 74934 .cfa: sp 32 +
STACK CFI 7493c .cfa: sp 0 +
STACK CFI 74940 .cfa: x29 32 +
STACK CFI 7497c .cfa: sp 32 +
STACK CFI 74984 .cfa: sp 0 +
STACK CFI INIT 75764 1c .cfa: sp 0 +
STACK CFI INIT 75780 c .cfa: sp 0 +
STACK CFI INIT 75874 8 .cfa: sp 0 +
STACK CFI INIT 7587c 14 .cfa: sp 0 +
STACK CFI INIT 75890 88 .cfa: sp 0 +
STACK CFI 75894 .cfa: sp 32 +
STACK CFI 7589c .cfa: x29 32 + x19: .cfa -16 + ^ .ra: .cfa -24 + ^ x29: .cfa -32 + ^
STACK CFI 758cc .cfa: sp 32 +
STACK CFI 758d4 .cfa: sp 0 +
STACK CFI 758d8 .cfa: x29 32 +
STACK CFI 7590c .cfa: sp 32 +
STACK CFI 75914 .cfa: sp 0 +
STACK CFI INIT 75918 94 .cfa: sp 0 +
STACK CFI 7591c .cfa: sp 32 +
STACK CFI 75924 .cfa: x29 32 + x19: .cfa -16 + ^ .ra: .cfa -24 + ^ x29: .cfa -32 + ^
STACK CFI 75958 .cfa: sp 32 +
STACK CFI 75960 .cfa: sp 0 +
STACK CFI 75964 .cfa: x29 32 +
STACK CFI 759a0 .cfa: sp 32 +
STACK CFI 759a8 .cfa: sp 0 +
STACK CFI INIT 75af8 7c .cfa: sp 0 +
STACK CFI 75afc .cfa: sp 32 +
STACK CFI 75b04 .cfa: x29 32 + x19: .cfa -16 + ^ .ra: .cfa -24 + ^ x29: .cfa -32 + ^
STACK CFI 75b28 .cfa: sp 32 +
STACK CFI 75b30 .cfa: sp 0 +
STACK CFI 75b34 .cfa: x29 32 +
STACK CFI 75b68 .cfa: sp 32 +
STACK CFI 75b70 .cfa: sp 0 +
STACK CFI INIT 75b74 88 .cfa: sp 0 +
STACK CFI 75b78 .cfa: sp 32 +
STACK CFI 75b80 .cfa: x29 32 + x19: .cfa -16 + ^ .ra: .cfa -24 + ^ x29: .cfa -32 + ^
STACK CFI 75ba8 .cfa: sp 32 +
STACK CFI 75bb0 .cfa: sp 0 +
STACK CFI 75bb4 .cfa: x29 32 +
STACK CFI 75bf0 .cfa: sp 32 +
STACK CFI 75bf8 .cfa: sp 0 +
STACK CFI INIT 76bb0 1c .cfa: sp 0 +
STACK CFI INIT 76bcc c .cfa: sp 0 +
STACK CFI INIT 76bd8 4 .cfa: sp 0 +
STACK CFI INIT 76bdc 4 .cfa: sp 0 +
STACK CFI INIT 76be0 38 .cfa: sp 0 +
STACK CFI 76be4 .cfa: sp 32 +
STACK CFI 76bec .cfa: x29 32 + x19: .cfa -16 + ^ .ra: .cfa -24 + ^ x29: .cfa -32 + ^
STACK CFI 76c0c .cfa: sp 32 +
STACK CFI 76c14 .cfa: sp 0 +
STACK CFI INIT 76c18 18 .cfa: sp 0 +
STACK CFI INIT 76c30 4 .cfa: sp 0 +
STACK CFI INIT 76c34 4 .cfa: sp 0 +
STACK CFI INIT 76cf0 1c .cfa: sp 0 +
STACK CFI INIT 76d0c c .cfa: sp 0 +
STACK CFI INIT 76ef4 3c .cfa: sp 0 +
STACK CFI 76ef8 .cfa: sp 32 +
STACK CFI 76f00 .cfa: x29 32 + x19: .cfa -16 + ^ .ra: .cfa -24 + ^ x29: .cfa -32 + ^
STACK CFI 76f0c .cfa: sp 32 +
STACK CFI 76f14 .cfa: sp 0 +
STACK CFI 76f18 .cfa: x29 32 +
STACK CFI 76f24 .cfa: sp 32 +
STACK CFI 76f2c .cfa: sp 0 +
STACK CFI INIT 76f30 3c .cfa: sp 0 +
STACK CFI 76f34 .cfa: sp 32 +
STACK CFI 76f3c .cfa: x29 32 + x19: .cfa -16 + ^ .ra: .cfa -24 + ^ x29: .cfa -32 + ^
STACK CFI 76f48 .cfa: sp 32 +
STACK CFI 76f50 .cfa: sp 0 +
STACK CFI 76f54 .cfa: x29 32 +
STACK CFI 76f60 .cfa: sp 32 +
STACK CFI 76f68 .cfa: sp 0 +
STACK CFI INIT 76f6c 4c .cfa: sp 0 +
STACK CFI 76f70 .cfa: sp 32 +
STACK CFI 76f78 .cfa: x29 32 + x19: .cfa -8 + ^ x20: .cfa -16 + ^ .ra: .cfa -24 + ^ x29: .cfa -32 + ^
STACK CFI 76fa0 .cfa: sp 32 +
STACK CFI 76fa8 .cfa: sp 0 +
STACK CFI 76fac .cfa: sp 32 +
STACK CFI 76fb4 .cfa: sp 0 +
STACK CFI INIT 771d8 64 .cfa: sp 0 +
STACK CFI 771dc .cfa: sp 32 +
STACK CFI 771e4 .cfa: x29 32 + x19: .cfa -16 + ^ .ra: .cfa -24 + ^ x29: .cfa -32 + ^
STACK CFI 77210 .cfa: sp 32 +
STACK CFI 77218 .cfa: sp 0 +
STACK CFI 7721c .cfa: x29 32 +
STACK CFI 77230 .cfa: sp 32 +
STACK CFI 77238 .cfa: sp 0 +
STACK CFI INIT 77460 24 .cfa: sp 0 +
STACK CFI 77464 .cfa: sp 32 +
STACK CFI 7746c .cfa: x29 32 + x19: .cfa -16 + ^ .ra: .cfa -24 + ^ x29: .cfa -32 + ^
STACK CFI 77478 .cfa: sp 32 +
STACK CFI 77480 .cfa: sp 0 +
STACK CFI INIT 77484 24 .cfa: sp 0 +
STACK CFI 77488 .cfa: sp 32 +
STACK CFI 77490 .cfa: x29 32 + x19: .cfa -16 + ^ .ra: .cfa -24 + ^ x29: .cfa -32 + ^
STACK CFI 7749c .cfa: sp 32 +
STACK CFI 774a4 .cfa: sp 0 +
STACK CFI INIT 7772c 8 .cfa: sp 0 +
STACK CFI INIT 77734 24 .cfa: sp 0 +
STACK CFI 77738 .cfa: sp 32 +
STACK CFI 77740 .cfa: x29 32 + x19: .cfa -16 + ^ .ra: .cfa -24 + ^ x29: .cfa -32 + ^
STACK CFI 7774c .cfa: sp 32 +
STACK CFI 77754 .cfa: sp 0 +
STACK CFI INIT 77758 28 .cfa: sp 0 +
STACK CFI 7775c .cfa: sp 32 +
STACK CFI 77764 .cfa: x29 32 + x19: .cfa -16 + ^ .ra: .cfa -24 + ^ x29: .cfa -32 + ^
STACK CFI 77774 .cfa: sp 32 +
STACK CFI 7777c .cfa: sp 0 +
STACK CFI INIT 77a80 8 .cfa: sp 0 +
STACK CFI INIT 77a88 24 .cfa: sp 0 +
STACK CFI 77a8c .cfa: sp 32 +
STACK CFI 77a94 .cfa: x29 32 + x19: .cfa -16 + ^ .ra: .cfa -24 + ^ x29: .cfa -32 + ^
STACK CFI 77aa0 .cfa: sp 32 +
STACK CFI 77aa8 .cfa: sp 0 +
STACK CFI INIT 77aac 28 .cfa: sp 0 +
STACK CFI 77ab0 .cfa: sp 32 +
STACK CFI 77ab8 .cfa: x29 32 + x19: .cfa -16 + ^ .ra: .cfa -24 + ^ x29: .cfa -32 + ^
STACK CFI 77ac8 .cfa: sp 32 +
STACK CFI 77ad0 .cfa: sp 0 +
STACK CFI INIT 77d38 8 .cfa: sp 0 +
STACK CFI INIT 77d40 24 .cfa: sp 0 +
STACK CFI 77d44 .cfa: sp 32 +
STACK CFI 77d4c .cfa: x29 32 + x19: .cfa -16 + ^ .ra: .cfa -24 + ^ x29: .cfa -32 + ^
STACK CFI 77d58 .cfa: sp 32 +
STACK CFI 77d60 .cfa: sp 0 +
STACK CFI INIT 77d64 28 .cfa: sp 0 +
STACK CFI 77d68 .cfa: sp 32 +
STACK CFI 77d70 .cfa: x29 32 + x19: .cfa -16 + ^ .ra: .cfa -24 + ^ x29: .cfa -32 + ^
STACK CFI 77d80 .cfa: sp 32 +
STACK CFI 77d88 .cfa: sp 0 +
STACK CFI INIT 77ffc 24 .cfa: sp 0 +
STACK CFI 78000 .cfa: sp 32 +
STACK CFI 78008 .cfa: x29 32 + x19: .cfa -16 + ^ .ra: .cfa -24 + ^ x29: .cfa -32 + ^
STACK CFI 78014 .cfa: sp 32 +
STACK CFI 7801c .cfa: sp 0 +
STACK CFI INIT 786d8 24 .cfa: sp 0 +
STACK CFI 786dc .cfa: sp 32 +
STACK CFI 786e4 .cfa: x29 32 + x19: .cfa -16 + ^ .ra: .cfa -24 + ^ x29: .cfa -32 + ^
STACK CFI 786f0 .cfa: sp 32 +
STACK CFI 786f8 .cfa: sp 0 +
STACK CFI INIT 78c20 24 .cfa: sp 0 +
STACK CFI 78c24 .cfa: sp 32 +
STACK CFI 78c2c .cfa: x29 32 + x19: .cfa -16 + ^ .ra: .cfa -24 + ^ x29: .cfa -32 + ^
STACK CFI 78c38 .cfa: sp 32 +
STACK CFI 78c40 .cfa: sp 0 +
STACK CFI INIT 79330 24 .cfa: sp 0 +
STACK CFI 79334 .cfa: sp 32 +
STACK CFI 7933c .cfa: x29 32 + x19: .cfa -16 + ^ .ra: .cfa -24 + ^ x29: .cfa -32 + ^
STACK CFI 79348 .cfa: sp 32 +
STACK CFI 79350 .cfa: sp 0 +
STACK CFI INIT 7973c 9c .cfa: sp 0 +
STACK CFI 79740 .cfa: sp 32 +
STACK CFI 79748 .cfa: x29 32 + x19: .cfa -16 + ^ .ra: .cfa -24 + ^ x29: .cfa -32 + ^
STACK CFI 797cc .cfa: sp 32 +
STACK CFI 797d4 .cfa: sp 0 +
STACK CFI INIT 797d8 8 .cfa: sp 0 +
STACK CFI INIT 797e0 24 .cfa: sp 0 +
STACK CFI 797e4 .cfa: sp 32 +
STACK CFI 797ec .cfa: x29 32 + x19: .cfa -16 + ^ .ra: .cfa -24 + ^ x29: .cfa -32 + ^
STACK CFI 797f8 .cfa: sp 32 +
STACK CFI 79800 .cfa: sp 0 +
STACK CFI INIT 79804 28 .cfa: sp 0 +
STACK CFI 79808 .cfa: sp 32 +
STACK CFI 79810 .cfa: x29 32 + x19: .cfa -16 + ^ .ra: .cfa -24 + ^ x29: .cfa -32 + ^
STACK CFI 79820 .cfa: sp 32 +
STACK CFI 79828 .cfa: sp 0 +
STACK CFI INIT 79a44 14 .cfa: sp 0 +
STACK CFI INIT 79a58 c4 .cfa: sp 0 +
STACK CFI 79a5c .cfa: sp 80 +
STACK CFI 79a70 .cfa: x29 40 + x19: .cfa -8 + ^ x20: .cfa -16 + ^ x21: .cfa -24 + ^ .ra: .cfa -32 + ^ x29: .cfa -40 + ^ v8: .cfa -48 + ^
STACK CFI 79b00 .cfa: sp 80 +
STACK CFI 79b14 .cfa: sp 0 +
STACK CFI 79b18 .cfa: x29 40 +
STACK CFI INIT 79b1c 8 .cfa: sp 0 +
STACK CFI INIT 7a3f0 4 .cfa: sp 0 +
STACK CFI INIT 7be88 4 .cfa: sp 0 +
STACK CFI INIT 7be8c 14 .cfa: sp 0 +
STACK CFI INIT 7c3ac c .cfa: sp 0 +
STACK CFI INIT 7c3b8 24c .cfa: sp 0 +
STACK CFI INIT 7c604 a0 .cfa: sp 0 +
STACK CFI 7c610 .cfa: sp 32 +
STACK CFI 7c668 .cfa: sp 0 +
STACK CFI 7c66c .cfa: sp 32 +
STACK CFI 7c674 .cfa: sp 0 +
STACK CFI 7c678 .cfa: sp 32 +
STACK CFI 7c68c .cfa: sp 0 +
STACK CFI 7c690 .cfa: sp 32 +
STACK CFI 7c6a0 .cfa: sp 0 +
STACK CFI INIT 7c6a4 38 .cfa: sp 0 +
STACK CFI 7c6b0 .cfa: sp 32 +
STACK CFI 7c6d8 .cfa: sp 0 +
STACK CFI INIT 7c970 7c .cfa: sp 0 +
STACK CFI 7c974 .cfa: sp 32 +
STACK CFI 7c97c .cfa: x29 32 + x19: .cfa -16 + ^ .ra: .cfa -24 + ^ x29: .cfa -32 + ^
STACK CFI 7c9a8 .cfa: sp 32 +
STACK CFI 7c9b0 .cfa: sp 0 +
STACK CFI 7c9b4 .cfa: x29 32 +
STACK CFI 7c9e0 .cfa: sp 32 +
STACK CFI 7c9e8 .cfa: sp 0 +
STACK CFI INIT 7ca3c 2c .cfa: sp 0 +
STACK CFI 7ca40 .cfa: sp 32 +
STACK CFI 7ca48 .cfa: x29 32 + x19: .cfa -16 + ^ .ra: .cfa -24 + ^ x29: .cfa -32 + ^
STACK CFI 7ca5c .cfa: sp 32 +
STACK CFI 7ca64 .cfa: sp 0 +
STACK CFI INIT 7d228 64 .cfa: sp 0 +
STACK CFI 7d22c .cfa: sp 32 +
STACK CFI 7d234 .cfa: x29 32 + x19: .cfa -16 + ^ .ra: .cfa -24 + ^ x29: .cfa -32 + ^
STACK CFI 7d250 .cfa: sp 32 +
STACK CFI 7d258 .cfa: sp 0 +
STACK CFI 7d25c .cfa: x29 32 +
STACK CFI 7d280 .cfa: sp 32 +
STACK CFI 7d288 .cfa: sp 0 +
STACK CFI INIT 7d3d8 570 .cfa: sp 0 +
STACK CFI 7d3dc .cfa: sp 176 +
STACK CFI 7d3f0 .cfa: x29 64 + x19: .cfa -8 + ^ x20: .cfa -16 + ^ x21: .cfa -24 + ^ x22: .cfa -32 + ^ x23: .cfa -40 + ^ x24: .cfa -48 + ^ .ra: .cfa -56 + ^ x29: .cfa -64 + ^
STACK CFI 7d620 .cfa: sp 176 +
STACK CFI 7d634 .cfa: sp 0 +
STACK CFI 7d638 .cfa: x29 64 +
STACK CFI 7d684 .cfa: sp 176 +
STACK CFI 7d698 .cfa: sp 0 +
STACK CFI 7d69c .cfa: x29 64 +
STACK CFI 7d6d4 .cfa: sp 176 +
STACK CFI 7d6e8 .cfa: sp 0 +
STACK CFI 7d6ec .cfa: x29 64 +
STACK CFI 7d704 .cfa: sp 176 +
STACK CFI 7d718 .cfa: sp 0 +
STACK CFI 7d71c .cfa: x29 64 +
STACK CFI 7d73c .cfa: sp 176 +
STACK CFI 7d750 .cfa: sp 0 +
STACK CFI 7d754 .cfa: x29 64 +
STACK CFI 7d76c .cfa: sp 176 +
STACK CFI 7d780 .cfa: sp 0 +
STACK CFI 7d784 .cfa: x29 64 +
STACK CFI 7d798 .cfa: sp 176 +
STACK CFI 7d7ac .cfa: sp 0 +
STACK CFI 7d7b0 .cfa: x29 64 +
STACK CFI 7d7c4 .cfa: sp 176 +
STACK CFI 7d7d8 .cfa: sp 0 +
STACK CFI 7d7dc .cfa: x29 64 +
STACK CFI 7d7ec .cfa: sp 176 +
STACK CFI 7d800 .cfa: sp 0 +
STACK CFI 7d804 .cfa: x29 64 +
STACK CFI 7d814 .cfa: sp 176 +
STACK CFI 7d828 .cfa: sp 0 +
STACK CFI 7d82c .cfa: x29 64 +
STACK CFI 7d844 .cfa: sp 176 +
STACK CFI 7d858 .cfa: sp 0 +
STACK CFI 7d85c .cfa: x29 64 +
STACK CFI 7d870 .cfa: sp 176 +
STACK CFI 7d884 .cfa: sp 0 +
STACK CFI 7d888 .cfa: x29 64 +
STACK CFI 7d8a0 .cfa: sp 176 +
STACK CFI 7d8b4 .cfa: sp 0 +
STACK CFI 7d8b8 .cfa: x29 64 +
STACK CFI 7d8e4 .cfa: sp 176 +
STACK CFI 7d8f8 .cfa: sp 0 +
STACK CFI 7d8fc .cfa: x29 64 +
STACK CFI 7d910 .cfa: sp 176 +
STACK CFI 7d924 .cfa: sp 0 +
STACK CFI 7d928 .cfa: x29 64 +
STACK CFI INIT 7d948 228 .cfa: sp 0 +
STACK CFI INIT 7db70 2dc .cfa: sp 0 +
STACK CFI INIT 7de4c 53c .cfa: sp 0 +
STACK CFI INIT 7e388 8 .cfa: sp 0 +
STACK CFI INIT 7e390 8c .cfa: sp 0 +
STACK CFI 7e394 .cfa: sp 32 +
STACK CFI 7e39c .cfa: x29 32 + x19: .cfa -16 + ^ .ra: .cfa -24 + ^ x29: .cfa -32 + ^
STACK CFI 7e3d0 .cfa: sp 32 +
STACK CFI 7e3d8 .cfa: sp 0 +
STACK CFI 7e3dc .cfa: x29 32 +
STACK CFI 7e410 .cfa: sp 32 +
STACK CFI 7e418 .cfa: sp 0 +
STACK CFI INIT 7e41c 24 .cfa: sp 0 +
STACK CFI 7e420 .cfa: sp 32 +
STACK CFI 7e428 .cfa: x29 32 + x19: .cfa -16 + ^ .ra: .cfa -24 + ^ x29: .cfa -32 + ^
STACK CFI 7e434 .cfa: sp 32 +
STACK CFI 7e43c .cfa: sp 0 +
STACK CFI INIT 7e440 150 .cfa: sp 0 +
STACK CFI 7e444 .cfa: sp 48 +
STACK CFI 7e450 .cfa: x29 48 + x19: .cfa -8 + ^ x20: .cfa -16 + ^ x21: .cfa -24 + ^ x22: .cfa -32 + ^ .ra: .cfa -40 + ^ x29: .cfa -48 + ^
STACK CFI 7e580 .cfa: sp 48 +
STACK CFI 7e58c .cfa: sp 0 +
STACK CFI INIT 7e590 68 .cfa: sp 0 +
STACK CFI 7e594 .cfa: sp 64 +
STACK CFI 7e5a0 .cfa: x29 32 + x19: .cfa -16 + ^ .ra: .cfa -24 + ^ x29: .cfa -32 + ^
STACK CFI 7e5e4 .cfa: sp 64 +
STACK CFI 7e5f0 .cfa: sp 0 +
STACK CFI 7e5f4 .cfa: x29 32 +
STACK CFI INIT 7e5f8 90 .cfa: sp 0 +
STACK CFI 7e5fc .cfa: sp 32 +
STACK CFI 7e604 .cfa: x29 32 + x19: .cfa -8 + ^ x20: .cfa -16 + ^ .ra: .cfa -24 + ^ x29: .cfa -32 + ^
STACK CFI 7e630 .cfa: sp 32 +
STACK CFI 7e638 .cfa: sp 0 +
STACK CFI 7e63c .cfa: x29 32 +
STACK CFI 7e67c .cfa: sp 32 +
STACK CFI 7e684 .cfa: sp 0 +
STACK CFI INIT 7e688 ec .cfa: sp 0 +
STACK CFI 7e68c .cfa: sp 112 +
STACK CFI 7e69c .cfa: x29 48 + x19: .cfa -8 + ^ x20: .cfa -16 + ^ x21: .cfa -32 + ^ .ra: .cfa -40 + ^ x29: .cfa -48 + ^
STACK CFI 7e75c .cfa: sp 112 +
STACK CFI 7e76c .cfa: sp 0 +
STACK CFI 7e770 .cfa: x29 48 +
STACK CFI INIT 7e774 ec .cfa: sp 0 +
STACK CFI 7e778 .cfa: sp 112 +
STACK CFI 7e788 .cfa: x29 48 + x19: .cfa -8 + ^ x20: .cfa -16 + ^ x21: .cfa -32 + ^ .ra: .cfa -40 + ^ x29: .cfa -48 + ^
STACK CFI 7e848 .cfa: sp 112 +
STACK CFI 7e858 .cfa: sp 0 +
STACK CFI 7e85c .cfa: x29 48 +
STACK CFI INIT 7e860 48 .cfa: sp 0 +
STACK CFI 7e864 .cfa: sp 32 +
STACK CFI 7e86c .cfa: x29 32 + x19: .cfa -8 + ^ x20: .cfa -16 + ^ .ra: .cfa -24 + ^ x29: .cfa -32 + ^
STACK CFI 7e890 .cfa: sp 32 +
STACK CFI 7e898 .cfa: sp 0 +
STACK CFI 7e89c .cfa: x29 32 +
STACK CFI INIT 7e8a8 98 .cfa: sp 0 +
STACK CFI 7e8ac .cfa: sp 80 +
STACK CFI 7e8b8 .cfa: x29 32 + x19: .cfa -16 + ^ .ra: .cfa -24 + ^ x29: .cfa -32 + ^
STACK CFI 7e92c .cfa: sp 80 +
STACK CFI 7e938 .cfa: sp 0 +
STACK CFI 7e93c .cfa: x29 32 +
STACK CFI INIT 7e940 260 .cfa: sp 0 +
STACK CFI 7e944 .cfa: sp 112 +
STACK CFI 7e95c .cfa: x29 80 + x19: .cfa -8 + ^ x20: .cfa -16 + ^ x21: .cfa -24 + ^ x22: .cfa -32 + ^ x23: .cfa -40 + ^ x24: .cfa -48 + ^ x25: .cfa -64 + ^ .ra: .cfa -72 + ^ x29: .cfa -80 + ^
STACK CFI 7eb40 .cfa: sp 112 +
STACK CFI 7eb58 .cfa: sp 0 +
STACK CFI 7eb5c .cfa: x29 80 +
STACK CFI INIT 7eba0 150 .cfa: sp 0 +
STACK CFI 7eba4 .cfa: sp 48 +
STACK CFI 7ebb0 .cfa: x29 48 + x19: .cfa -8 + ^ x20: .cfa -16 + ^ x21: .cfa -24 + ^ x22: .cfa -32 + ^ .ra: .cfa -40 + ^ x29: .cfa -48 + ^
STACK CFI 7ece0 .cfa: sp 48 +
STACK CFI 7ecec .cfa: sp 0 +
STACK CFI INIT 7ecf0 1e0 .cfa: sp 0 +
STACK CFI 7ecf4 .cfa: sp 96 +
STACK CFI 7ed08 .cfa: x29 64 + x19: .cfa -8 + ^ x20: .cfa -16 + ^ x21: .cfa -24 + ^ x22: .cfa -32 + ^ x23: .cfa -40 + ^ x24: .cfa -48 + ^ .ra: .cfa -56 + ^ x29: .cfa -64 + ^
STACK CFI 7ee88 .cfa: sp 96 +
STACK CFI 7ee9c .cfa: sp 0 +
STACK CFI 7eea0 .cfa: x29 64 +
STACK CFI INIT 7eed0 284 .cfa: sp 0 +
STACK CFI 7eed4 .cfa: sp 112 +
STACK CFI 7eeec .cfa: x29 80 + x19: .cfa -8 + ^ x20: .cfa -16 + ^ x21: .cfa -24 + ^ x22: .cfa -32 + ^ x23: .cfa -40 + ^ x24: .cfa -48 + ^ x25: .cfa -64 + ^ .ra: .cfa -72 + ^ x29: .cfa -80 + ^
STACK CFI 7f0f4 .cfa: sp 112 +
STACK CFI 7f10c .cfa: sp 0 +
STACK CFI 7f110 .cfa: x29 80 +
STACK CFI INIT 7f154 208 .cfa: sp 0 +
STACK CFI 7f158 .cfa: sp 96 +
STACK CFI 7f16c .cfa: x29 64 + x19: .cfa -8 + ^ x20: .cfa -16 + ^ x21: .cfa -24 + ^ x22: .cfa -32 + ^ x23: .cfa -40 + ^ x24: .cfa -48 + ^ .ra: .cfa -56 + ^ x29: .cfa -64 + ^
STACK CFI 7f314 .cfa: sp 96 +
STACK CFI 7f328 .cfa: sp 0 +
STACK CFI 7f32c .cfa: x29 64 +
STACK CFI INIT 7f35c 360 .cfa: sp 0 +
STACK CFI 7f360 .cfa: sp 160 +
STACK CFI 7f37c .cfa: x29 96 + x19: .cfa -8 + ^ x20: .cfa -16 + ^ x21: .cfa -24 + ^ x22: .cfa -32 + ^ x23: .cfa -40 + ^ x24: .cfa -48 + ^ x25: .cfa -56 + ^ x26: .cfa -64 + ^ x27: .cfa -72 + ^ x28: .cfa -80 + ^ .ra: .cfa -88 + ^ x29: .cfa -96 + ^
STACK CFI 7f648 .cfa: sp 160 +
STACK CFI 7f664 .cfa: sp 0 +
STACK CFI 7f668 .cfa: x29 96 +
STACK CFI INIT 7f6bc 314 .cfa: sp 0 +
STACK CFI 7f6c0 .cfa: sp 144 +
STACK CFI 7f6dc .cfa: x29 96 + x19: .cfa -8 + ^ x20: .cfa -16 + ^ x21: .cfa -24 + ^ x22: .cfa -32 + ^ x23: .cfa -40 + ^ x24: .cfa -48 + ^ x25: .cfa -56 + ^ x26: .cfa -64 + ^ x27: .cfa -72 + ^ x28: .cfa -80 + ^ .ra: .cfa -88 + ^ x29: .cfa -96 + ^
STACK CFI 7f958 .cfa: sp 144 +
STACK CFI 7f974 .cfa: sp 0 +
STACK CFI 7f978 .cfa: x29 96 +
STACK CFI INIT 7f9d0 2b4 .cfa: sp 0 +
STACK CFI 7f9d4 .cfa: sp 128 +
STACK CFI 7f9ec .cfa: x29 80 + x19: .cfa -8 + ^ x20: .cfa -16 + ^ x21: .cfa -24 + ^ x22: .cfa -32 + ^ x23: .cfa -40 + ^ x24: .cfa -48 + ^ x25: .cfa -56 + ^ x26: .cfa -64 + ^ .ra: .cfa -72 + ^ x29: .cfa -80 + ^
STACK CFI 7fbe0 .cfa: sp 128 +
STACK CFI 7fbf8 .cfa: sp 0 +
STACK CFI 7fbfc .cfa: x29 80 +
STACK CFI 7fc64 .cfa: sp 128 +
STACK CFI 7fc7c .cfa: sp 0 +
STACK CFI 7fc80 .cfa: x29 80 +
STACK CFI INIT 7fc84 dcc .cfa: sp 0 +
STACK CFI 7fc88 .cfa: sp 144 +
STACK CFI 7fca4 .cfa: x29 96 + x19: .cfa -8 + ^ x20: .cfa -16 + ^ x21: .cfa -24 + ^ x22: .cfa -32 + ^ x23: .cfa -40 + ^ x24: .cfa -48 + ^ x25: .cfa -56 + ^ x26: .cfa -64 + ^ x27: .cfa -72 + ^ x28: .cfa -80 + ^ .ra: .cfa -88 + ^ x29: .cfa -96 + ^
STACK CFI 80928 .cfa: sp 144 +
STACK CFI 80944 .cfa: sp 0 +
STACK CFI 80948 .cfa: x29 96 +
STACK CFI INIT 80a50 264 .cfa: sp 0 +
STACK CFI 80a54 .cfa: sp 112 +
STACK CFI 80a68 .cfa: x29 64 + x19: .cfa -8 + ^ x20: .cfa -16 + ^ x21: .cfa -24 + ^ x22: .cfa -32 + ^ x23: .cfa -40 + ^ x24: .cfa -48 + ^ .ra: .cfa -56 + ^ x29: .cfa -64 + ^
STACK CFI 80be4 .cfa: sp 112 +
STACK CFI 80bf8 .cfa: sp 0 +
STACK CFI 80bfc .cfa: x29 64 +
STACK CFI 80c6c .cfa: sp 112 +
STACK CFI 80c80 .cfa: sp 0 +
STACK CFI 80c84 .cfa: x29 64 +
STACK CFI INIT 80cb4 258 .cfa: sp 0 +
STACK CFI 80cb8 .cfa: sp 96 +
STACK CFI 80cd0 .cfa: x29 96 + x19: .cfa -8 + ^ x20: .cfa -16 + ^ x21: .cfa -24 + ^ x22: .cfa -32 + ^ x23: .cfa -40 + ^ x24: .cfa -48 + ^ x25: .cfa -56 + ^ x26: .cfa -64 + ^ x27: .cfa -72 + ^ x28: .cfa -80 + ^ .ra: .cfa -88 + ^ x29: .cfa -96 + ^
STACK CFI 80ec8 .cfa: sp 96 +
STACK CFI 80ee0 .cfa: sp 0 +
STACK CFI 80ee4 .cfa: x29 96 +
STACK CFI 80ef0 .cfa: sp 96 +
STACK CFI 80f08 .cfa: sp 0 +
STACK CFI INIT 81b90 154 .cfa: sp 0 +
STACK CFI 81b94 .cfa: sp 96 +
STACK CFI 81ba8 .cfa: x29 64 + x19: .cfa -8 + ^ x20: .cfa -16 + ^ x21: .cfa -24 + ^ x22: .cfa -32 + ^ x23: .cfa -48 + ^ .ra: .cfa -56 + ^ x29: .cfa -64 + ^
STACK CFI 81c88 .cfa: sp 96 +
STACK CFI 81c9c .cfa: sp 0 +
STACK CFI 81ca0 .cfa: x29 64 +
STACK CFI INIT 81f4c 44 .cfa: sp 0 +
STACK CFI 81f50 .cfa: sp 32 +
STACK CFI 81f58 .cfa: x29 32 + x19: .cfa -16 + ^ .ra: .cfa -24 + ^ x29: .cfa -32 + ^
STACK CFI 81f74 .cfa: sp 32 +
STACK CFI 81f7c .cfa: sp 0 +
STACK CFI 81f80 .cfa: x29 32 +
STACK CFI 81f84 .cfa: sp 32 +
STACK CFI 81f8c .cfa: sp 0 +
STACK CFI INIT 81f90 1d0 .cfa: sp 0 +
STACK CFI 81f94 .cfa: sp 64 +
STACK CFI 81fa4 .cfa: x29 64 + x19: .cfa -8 + ^ x20: .cfa -16 + ^ x21: .cfa -24 + ^ x22: .cfa -32 + ^ x23: .cfa -40 + ^ x24: .cfa -48 + ^ .ra: .cfa -56 + ^ x29: .cfa -64 + ^
STACK CFI 82064 .cfa: sp 64 +
STACK CFI 82074 .cfa: sp 0 +
STACK CFI 82078 .cfa: x29 64 +
STACK CFI INIT 82160 17c .cfa: sp 0 +
STACK CFI INIT 82694 a0 .cfa: sp 0 +
STACK CFI 82698 .cfa: sp 48 +
STACK CFI 826a4 .cfa: x29 48 + x19: .cfa -8 + ^ x20: .cfa -16 + ^ x21: .cfa -24 + ^ x22: .cfa -32 + ^ .ra: .cfa -40 + ^ x29: .cfa -48 + ^
STACK CFI 82710 .cfa: sp 48 +
STACK CFI 8271c .cfa: sp 0 +
STACK CFI 82720 .cfa: sp 48 +
STACK CFI 8272c .cfa: sp 0 +
STACK CFI 82730 .cfa: x29 48 +
STACK CFI INIT 833f0 158 .cfa: sp 0 +
STACK CFI 833f4 .cfa: sp 96 +
STACK CFI 83408 .cfa: x29 64 + x19: .cfa -8 + ^ x20: .cfa -16 + ^ x21: .cfa -24 + ^ x22: .cfa -32 + ^ x23: .cfa -48 + ^ .ra: .cfa -56 + ^ x29: .cfa -64 + ^
STACK CFI 834ec .cfa: sp 96 +
STACK CFI 83500 .cfa: sp 0 +
STACK CFI 83504 .cfa: x29 64 +
STACK CFI INIT 83548 190 .cfa: sp 0 +
STACK CFI INIT 841b8 1f4 .cfa: sp 0 +
STACK CFI 841bc .cfa: sp 80 +
STACK CFI 841d0 .cfa: x29 80 + x19: .cfa -8 + ^ x20: .cfa -16 + ^ x21: .cfa -24 + ^ x22: .cfa -32 + ^ x23: .cfa -40 + ^ x24: .cfa -48 + ^ x25: .cfa -64 + ^ .ra: .cfa -72 + ^ x29: .cfa -80 + ^
STACK CFI 84370 .cfa: sp 80 +
STACK CFI 84384 .cfa: sp 0 +
STACK CFI 84388 .cfa: x29 80 +
STACK CFI 84394 .cfa: sp 80 +
STACK CFI 843a8 .cfa: sp 0 +
STACK CFI INIT 857d0 124 .cfa: sp 0 +
STACK CFI 85800 .cfa: sp 32 +
STACK CFI 85808 .cfa: x29 32 + x19: .cfa -8 + ^ x20: .cfa -16 + ^ .ra: .cfa -24 + ^ x29: .cfa -32 + ^
STACK CFI 858e8 .cfa: sp 32 +
STACK CFI 858f0 .cfa: sp 0 +
STACK CFI INIT 86050 324 .cfa: sp 0 +
STACK CFI 86054 .cfa: sp 64 +
STACK CFI 86064 .cfa: x29 64 + x19: .cfa -8 + ^ x20: .cfa -16 + ^ x21: .cfa -24 + ^ x22: .cfa -32 + ^ x23: .cfa -40 + ^ x24: .cfa -48 + ^ .ra: .cfa -56 + ^ x29: .cfa -64 + ^
STACK CFI 860e0 .cfa: sp 64 +
STACK CFI 860f0 .cfa: sp 0 +
STACK CFI 860f4 .cfa: x29 64 +
STACK CFI 862cc .cfa: sp 64 +
STACK CFI 862dc .cfa: sp 0 +
STACK CFI 862e0 .cfa: x29 64 +
STACK CFI 862f0 .cfa: sp 64 +
STACK CFI 86300 .cfa: sp 0 +
STACK CFI 86304 .cfa: x29 64 +
STACK CFI INIT 86374 a0 .cfa: sp 0 +
STACK CFI 86378 .cfa: sp 48 +
STACK CFI 86384 .cfa: x29 48 + x19: .cfa -8 + ^ x20: .cfa -16 + ^ x21: .cfa -24 + ^ x22: .cfa -32 + ^ .ra: .cfa -40 + ^ x29: .cfa -48 + ^
STACK CFI 863f0 .cfa: sp 48 +
STACK CFI 863fc .cfa: sp 0 +
STACK CFI 86400 .cfa: sp 48 +
STACK CFI 8640c .cfa: sp 0 +
STACK CFI 86410 .cfa: x29 48 +
STACK CFI INIT 872f0 160 .cfa: sp 0 +
STACK CFI 872f4 .cfa: sp 64 +
STACK CFI 87304 .cfa: x29 64 + x19: .cfa -8 + ^ x20: .cfa -16 + ^ x21: .cfa -24 + ^ x22: .cfa -32 + ^ x23: .cfa -48 + ^ .ra: .cfa -56 + ^ x29: .cfa -64 + ^
STACK CFI 873fc .cfa: sp 64 +
STACK CFI 8740c .cfa: sp 0 +
STACK CFI 87410 .cfa: x29 64 +
STACK CFI INIT 87450 214 .cfa: sp 0 +
STACK CFI 87454 .cfa: sp 128 +
STACK CFI 87470 .cfa: x29 96 + x19: .cfa -8 + ^ x20: .cfa -16 + ^ x21: .cfa -24 + ^ x22: .cfa -32 + ^ x23: .cfa -40 + ^ x24: .cfa -48 + ^ x25: .cfa -56 + ^ x26: .cfa -64 + ^ x27: .cfa -80 + ^ .ra: .cfa -88 + ^ x29: .cfa -96 + ^
STACK CFI 875ec .cfa: sp 128 +
STACK CFI 87608 .cfa: sp 0 +
STACK CFI 8760c .cfa: x29 96 +
STACK CFI INIT 89198 e58 .cfa: sp 0 +
STACK CFI 8919c .cfa: sp 192 +
STACK CFI 891b8 .cfa: x29 96 + x19: .cfa -8 + ^ x20: .cfa -16 + ^ x21: .cfa -24 + ^ x22: .cfa -32 + ^ x23: .cfa -40 + ^ x24: .cfa -48 + ^ x25: .cfa -56 + ^ x26: .cfa -64 + ^ x27: .cfa -72 + ^ x28: .cfa -80 + ^ .ra: .cfa -88 + ^ x29: .cfa -96 + ^
STACK CFI 89ed8 .cfa: sp 192 +
STACK CFI 89ef4 .cfa: sp 0 +
STACK CFI 89ef8 .cfa: x29 96 +
STACK CFI INIT 89ff0 1090 .cfa: sp 0 +
STACK CFI 89ff4 .cfa: sp 288 +
STACK CFI 8a010 .cfa: x29 96 + x19: .cfa -8 + ^ x20: .cfa -16 + ^ x21: .cfa -24 + ^ x22: .cfa -32 + ^ x23: .cfa -40 + ^ x24: .cfa -48 + ^ x25: .cfa -56 + ^ x26: .cfa -64 + ^ x27: .cfa -72 + ^ x28: .cfa -80 + ^ .ra: .cfa -88 + ^ x29: .cfa -96 + ^
STACK CFI 8adc8 .cfa: sp 288 +
STACK CFI 8ade4 .cfa: sp 0 +
STACK CFI 8ade8 .cfa: x29 96 +
STACK CFI INIT 8b080 520 .cfa: sp 0 +
STACK CFI 8b084 .cfa: sp 144 +
STACK CFI 8b0a0 .cfa: x29 96 + x19: .cfa -8 + ^ x20: .cfa -16 + ^ x21: .cfa -24 + ^ x22: .cfa -32 + ^ x23: .cfa -40 + ^ x24: .cfa -48 + ^ x25: .cfa -56 + ^ x26: .cfa -64 + ^ x27: .cfa -72 + ^ x28: .cfa -80 + ^ .ra: .cfa -88 + ^ x29: .cfa -96 + ^
STACK CFI 8b57c .cfa: sp 144 +
STACK CFI 8b598 .cfa: sp 0 +
STACK CFI 8b59c .cfa: x29 96 +
STACK CFI INIT 39dec d8 .cfa: sp 0 +
STACK CFI 39df0 .cfa: sp 96 +
STACK CFI 39e04 .cfa: x29 64 + x19: .cfa -8 + ^ x20: .cfa -16 + ^ x21: .cfa -24 + ^ x22: .cfa -32 + ^ x23: .cfa -48 + ^ .ra: .cfa -56 + ^ x29: .cfa -64 + ^
STACK CFI 39e7c .cfa: sp 96 +
STACK CFI 39e90 .cfa: sp 0 +
STACK CFI 39e94 .cfa: x29 64 +
STACK CFI INIT 39ec4 254 .cfa: sp 0 +
STACK CFI 39ec8 .cfa: sp 80 +
STACK CFI 39ed8 .cfa: x29 48 + x19: .cfa -8 + ^ x20: .cfa -16 + ^ x21: .cfa -24 + ^ x22: .cfa -32 + ^ .ra: .cfa -40 + ^ x29: .cfa -48 + ^
STACK CFI 3a0d4 .cfa: sp 80 +
STACK CFI 3a0e4 .cfa: sp 0 +
STACK CFI 3a0e8 .cfa: x29 48 +
STACK CFI INIT 3a118 2a4 .cfa: sp 0 +
STACK CFI 3a11c .cfa: sp 208 +
STACK CFI 3a130 .cfa: x29 64 + x19: .cfa -8 + ^ x20: .cfa -16 + ^ x21: .cfa -24 + ^ x22: .cfa -32 + ^ x23: .cfa -40 + ^ x24: .cfa -48 + ^ .ra: .cfa -56 + ^ x29: .cfa -64 + ^
STACK CFI 3a320 .cfa: sp 208 +
STACK CFI 3a334 .cfa: sp 0 +
STACK CFI 3a338 .cfa: x29 64 +
STACK CFI INIT 3a444 160 .cfa: sp 0 +
STACK CFI 3a448 .cfa: sp 128 +
STACK CFI 3a460 .cfa: x29 80 + x19: .cfa -8 + ^ x20: .cfa -16 + ^ x21: .cfa -24 + ^ x22: .cfa -32 + ^ x23: .cfa -40 + ^ x24: .cfa -48 + ^ x25: .cfa -64 + ^ .ra: .cfa -72 + ^ x29: .cfa -80 + ^
STACK CFI 3a510 .cfa: sp 128 +
STACK CFI 3a528 .cfa: sp 0 +
STACK CFI 3a52c .cfa: x29 80 +
STACK CFI INIT 3a724 ac .cfa: sp 0 +
STACK CFI 3a728 .cfa: sp 80 +
STACK CFI 3a738 .cfa: x29 48 + x19: .cfa -8 + ^ x20: .cfa -16 + ^ x21: .cfa -32 + ^ .ra: .cfa -40 + ^ x29: .cfa -48 + ^
STACK CFI 3a78c .cfa: sp 80 +
STACK CFI 3a79c .cfa: sp 0 +
STACK CFI 3a7a0 .cfa: x29 48 +
STACK CFI INIT 3a7d0 6c8 .cfa: sp 0 +
STACK CFI 3a7d4 .cfa: sp 160 +
STACK CFI 3a7f0 .cfa: x29 80 + x19: .cfa -8 + ^ x20: .cfa -16 + ^ x21: .cfa -24 + ^ x22: .cfa -32 + ^ x23: .cfa -40 + ^ x24: .cfa -48 + ^ x25: .cfa -56 + ^ x26: .cfa -64 + ^ .ra: .cfa -72 + ^ x29: .cfa -80 + ^ v8: .cfa -96 + ^
STACK CFI 3adf8 .cfa: sp 160 +
STACK CFI 3ae14 .cfa: sp 0 +
STACK CFI 3ae18 .cfa: x29 80 +
STACK CFI INIT 3ae98 570 .cfa: sp 0 +
STACK CFI 3ae9c .cfa: sp 192 +
STACK CFI 3aebc .cfa: x29 96 + x19: .cfa -8 + ^ x20: .cfa -16 + ^ x21: .cfa -24 + ^ x22: .cfa -32 + ^ x23: .cfa -40 + ^ x24: .cfa -48 + ^ x25: .cfa -56 + ^ x26: .cfa -64 + ^ x27: .cfa -72 + ^ x28: .cfa -80 + ^ .ra: .cfa -88 + ^ x29: .cfa -96 + ^ v8: .cfa -112 + ^
STACK CFI 3b380 .cfa: sp 192 +
STACK CFI 3b3a0 .cfa: sp 0 +
STACK CFI 3b3a4 .cfa: x29 96 +
STACK CFI INIT 3b408 ac .cfa: sp 0 +
STACK CFI 3b40c .cfa: sp 80 +
STACK CFI 3b41c .cfa: x29 48 + x19: .cfa -8 + ^ x20: .cfa -16 + ^ x21: .cfa -32 + ^ .ra: .cfa -40 + ^ x29: .cfa -48 + ^
STACK CFI 3b470 .cfa: sp 80 +
STACK CFI 3b480 .cfa: sp 0 +
STACK CFI 3b484 .cfa: x29 48 +
STACK CFI INIT 3b4b4 6d8 .cfa: sp 0 +
STACK CFI 3b4b8 .cfa: sp 192 +
STACK CFI 3b4d8 .cfa: x29 96 + x19: .cfa -8 + ^ x20: .cfa -16 + ^ x21: .cfa -24 + ^ x22: .cfa -32 + ^ x23: .cfa -40 + ^ x24: .cfa -48 + ^ x25: .cfa -56 + ^ x26: .cfa -64 + ^ x27: .cfa -72 + ^ x28: .cfa -80 + ^ .ra: .cfa -88 + ^ x29: .cfa -96 + ^ v8: .cfa -112 + ^
STACK CFI 3baf8 .cfa: sp 192 +
STACK CFI 3bb18 .cfa: sp 0 +
STACK CFI 3bb1c .cfa: x29 96 +
STACK CFI INIT 3bbb0 50 .cfa: sp 0 +
STACK CFI 3bbb4 .cfa: sp 32 +
STACK CFI 3bbbc .cfa: x29 32 + x19: .cfa -8 + ^ x20: .cfa -16 + ^ .ra: .cfa -24 + ^ x29: .cfa -32 + ^
STACK CFI INIT 3bc64 74 .cfa: sp 0 +
STACK CFI 3bc68 .cfa: sp 48 +
STACK CFI 3bc74 .cfa: x29 32 + x19: .cfa -8 + ^ x20: .cfa -16 + ^ .ra: .cfa -24 + ^ x29: .cfa -32 + ^
STACK CFI 3bcc0 .cfa: sp 48 +
STACK CFI 3bccc .cfa: sp 0 +
STACK CFI 3bcd0 .cfa: x29 32 +
STACK CFI INIT 3bcd8 74 .cfa: sp 0 +
STACK CFI 3bcdc .cfa: sp 48 +
STACK CFI 3bce8 .cfa: x29 32 + x19: .cfa -8 + ^ x20: .cfa -16 + ^ .ra: .cfa -24 + ^ x29: .cfa -32 + ^
STACK CFI 3bd34 .cfa: sp 48 +
STACK CFI 3bd40 .cfa: sp 0 +
STACK CFI 3bd44 .cfa: x29 32 +
STACK CFI INIT 3be54 1e8 .cfa: sp 0 +
STACK CFI 3be58 .cfa: sp 160 +
STACK CFI 3be68 .cfa: x29 48 + x19: .cfa -8 + ^ x20: .cfa -16 + ^ x21: .cfa -24 + ^ x22: .cfa -32 + ^ .ra: .cfa -40 + ^ x29: .cfa -48 + ^
STACK CFI 3bfcc .cfa: sp 160 +
STACK CFI 3bfdc .cfa: sp 0 +
STACK CFI 3bfe0 .cfa: x29 48 +
STACK CFI INIT 3c1a0 384 .cfa: sp 0 +
STACK CFI 3c1a4 .cfa: sp 208 +
STACK CFI 3c1b4 .cfa: x29 48 + x19: .cfa -8 + ^ x20: .cfa -16 + ^ x21: .cfa -24 + ^ x22: .cfa -32 + ^ .ra: .cfa -40 + ^ x29: .cfa -48 + ^
STACK CFI 3c390 .cfa: sp 208 +
STACK CFI 3c3a0 .cfa: sp 0 +
STACK CFI 3c3a4 .cfa: x29 48 +
STACK CFI INIT 3c604 254 .cfa: sp 0 +
STACK CFI 3c608 .cfa: sp 96 +
STACK CFI 3c620 .cfa: x29 80 + x19: .cfa -8 + ^ x20: .cfa -16 + ^ x21: .cfa -24 + ^ x22: .cfa -32 + ^ x23: .cfa -40 + ^ x24: .cfa -48 + ^ x25: .cfa -64 + ^ .ra: .cfa -72 + ^ x29: .cfa -80 + ^
STACK CFI 3c834 .cfa: sp 96 +
STACK CFI 3c84c .cfa: sp 0 +
STACK CFI 3c850 .cfa: x29 80 +
STACK CFI INIT 3cca4 4c0 .cfa: sp 0 +
STACK CFI 3cca8 .cfa: sp 128 +
STACK CFI 3ccc4 .cfa: x29 96 + x19: .cfa -8 + ^ x20: .cfa -16 + ^ x21: .cfa -24 + ^ x22: .cfa -32 + ^ x23: .cfa -40 + ^ x24: .cfa -48 + ^ x25: .cfa -56 + ^ x26: .cfa -64 + ^ x27: .cfa -72 + ^ x28: .cfa -80 + ^ .ra: .cfa -88 + ^ x29: .cfa -96 + ^
STACK CFI 3d114 .cfa: sp 128 +
STACK CFI 3d130 .cfa: sp 0 +
STACK CFI 3d134 .cfa: x29 96 +
STACK CFI INIT 3d620 384 .cfa: sp 0 +
STACK CFI 3d624 .cfa: sp 208 +
STACK CFI 3d634 .cfa: x29 48 + x19: .cfa -8 + ^ x20: .cfa -16 + ^ x21: .cfa -24 + ^ x22: .cfa -32 + ^ .ra: .cfa -40 + ^ x29: .cfa -48 + ^
STACK CFI 3d810 .cfa: sp 208 +
STACK CFI 3d820 .cfa: sp 0 +
STACK CFI 3d824 .cfa: x29 48 +
STACK CFI INIT 3dbe8 384 .cfa: sp 0 +
STACK CFI 3dbec .cfa: sp 208 +
STACK CFI 3dbfc .cfa: x29 48 + x19: .cfa -8 + ^ x20: .cfa -16 + ^ x21: .cfa -24 + ^ x22: .cfa -32 + ^ .ra: .cfa -40 + ^ x29: .cfa -48 + ^
STACK CFI 3ddd8 .cfa: sp 208 +
STACK CFI 3dde8 .cfa: sp 0 +
STACK CFI 3ddec .cfa: x29 48 +
STACK CFI INIT 3e04c 41c .cfa: sp 0 +
STACK CFI 3e050 .cfa: sp 160 +
STACK CFI 3e06c .cfa: x29 96 + x19: .cfa -8 + ^ x20: .cfa -16 + ^ x21: .cfa -24 + ^ x22: .cfa -32 + ^ x23: .cfa -40 + ^ x24: .cfa -48 + ^ x25: .cfa -56 + ^ x26: .cfa -64 + ^ x27: .cfa -80 + ^ .ra: .cfa -88 + ^ x29: .cfa -96 + ^
STACK CFI 3e3cc .cfa: sp 160 +
STACK CFI 3e3e8 .cfa: sp 0 +
STACK CFI 3e3ec .cfa: x29 96 +
STACK CFI INIT 3e774 2b8 .cfa: sp 0 +
STACK CFI 3e778 .cfa: sp 144 +
STACK CFI 3e788 .cfa: x29 48 + x19: .cfa -8 + ^ x20: .cfa -16 + ^ x21: .cfa -24 + ^ x22: .cfa -32 + ^ .ra: .cfa -40 + ^ x29: .cfa -48 + ^
STACK CFI 3e988 .cfa: sp 144 +
STACK CFI 3e998 .cfa: sp 0 +
STACK CFI 3e99c .cfa: x29 48 +
STACK CFI INIT 3ed1c 370 .cfa: sp 0 +
STACK CFI 3ed20 .cfa: sp 176 +
STACK CFI 3ed30 .cfa: x29 48 + x19: .cfa -8 + ^ x20: .cfa -16 + ^ x21: .cfa -24 + ^ x22: .cfa -32 + ^ .ra: .cfa -40 + ^ x29: .cfa -48 + ^
STACK CFI 3ef0c .cfa: sp 176 +
STACK CFI 3ef1c .cfa: sp 0 +
STACK CFI 3ef20 .cfa: x29 48 +
STACK CFI INIT 3f360 370 .cfa: sp 0 +
STACK CFI 3f364 .cfa: sp 176 +
STACK CFI 3f374 .cfa: x29 48 + x19: .cfa -8 + ^ x20: .cfa -16 + ^ x21: .cfa -24 + ^ x22: .cfa -32 + ^ .ra: .cfa -40 + ^ x29: .cfa -48 + ^
STACK CFI 3f550 .cfa: sp 176 +
STACK CFI 3f560 .cfa: sp 0 +
STACK CFI 3f564 .cfa: x29 48 +
STACK CFI INIT 3f8d8 2c4 .cfa: sp 0 +
STACK CFI 3f8dc .cfa: sp 144 +
STACK CFI 3f8ec .cfa: x29 48 + x19: .cfa -8 + ^ x20: .cfa -16 + ^ x21: .cfa -24 + ^ x22: .cfa -32 + ^ .ra: .cfa -40 + ^ x29: .cfa -48 + ^
STACK CFI 3faf8 .cfa: sp 144 +
STACK CFI 3fb08 .cfa: sp 0 +
STACK CFI 3fb0c .cfa: x29 48 +
STACK CFI INIT 3ff08 37c .cfa: sp 0 +
STACK CFI 3ff0c .cfa: sp 176 +
STACK CFI 3ff1c .cfa: x29 48 + x19: .cfa -8 + ^ x20: .cfa -16 + ^ x21: .cfa -24 + ^ x22: .cfa -32 + ^ .ra: .cfa -40 + ^ x29: .cfa -48 + ^
STACK CFI 400f8 .cfa: sp 176 +
STACK CFI 40108 .cfa: sp 0 +
STACK CFI 4010c .cfa: x29 48 +
STACK CFI INIT 40364 104c .cfa: sp 0 +
STACK CFI 40368 .cfa: sp 80 +
STACK CFI 4037c .cfa: x29 80 + x19: .cfa -8 + ^ x20: .cfa -16 + ^ x21: .cfa -24 + ^ x22: .cfa -32 + ^ x23: .cfa -40 + ^ x24: .cfa -48 + ^ x25: .cfa -56 + ^ x28: .cfa -64 + ^ .ra: .cfa -72 + ^ x29: .cfa -80 + ^
STACK CFI 40c90 .cfa: sp 80 +
STACK CFI 40ca4 .cfa: sp 0 +
STACK CFI 40ca8 .cfa: x29 80 +
STACK CFI INIT 413b0 148 .cfa: sp 0 +
STACK CFI 413b4 .cfa: sp 96 +
STACK CFI 413c8 .cfa: x29 64 + x19: .cfa -8 + ^ x20: .cfa -16 + ^ x21: .cfa -24 + ^ x22: .cfa -32 + ^ x23: .cfa -40 + ^ x24: .cfa -48 + ^ .ra: .cfa -56 + ^ x29: .cfa -64 + ^
STACK CFI 414a4 .cfa: sp 96 +
STACK CFI 414b8 .cfa: sp 0 +
STACK CFI 414bc .cfa: x29 64 +
STACK CFI INIT 41528 128 .cfa: sp 0 +
STACK CFI 4152c .cfa: sp 96 +
STACK CFI 41544 .cfa: x29 80 + x19: .cfa -8 + ^ x20: .cfa -16 + ^ x21: .cfa -24 + ^ x22: .cfa -32 + ^ x23: .cfa -40 + ^ x24: .cfa -48 + ^ x25: .cfa -64 + ^ .ra: .cfa -72 + ^ x29: .cfa -80 + ^
STACK CFI 41604 .cfa: sp 96 +
STACK CFI 4161c .cfa: sp 0 +
STACK CFI 41620 .cfa: x29 80 +
STACK CFI INIT 41650 160 .cfa: sp 0 +
STACK CFI 41654 .cfa: sp 96 +
STACK CFI 4166c .cfa: x29 80 + x19: .cfa -8 + ^ x20: .cfa -16 + ^ x21: .cfa -24 + ^ x22: .cfa -32 + ^ x23: .cfa -40 + ^ x24: .cfa -48 + ^ x25: .cfa -64 + ^ .ra: .cfa -72 + ^ x29: .cfa -80 + ^
STACK CFI 41764 .cfa: sp 96 +
STACK CFI 4177c .cfa: sp 0 +
STACK CFI 41780 .cfa: x29 80 +
STACK CFI INIT 417b0 20 .cfa: sp 0 +
STACK CFI 417b4 .cfa: sp 16 +
STACK CFI 417b8 .cfa: x29 16 + .ra: .cfa -8 + ^ x29: .cfa -16 + ^
STACK CFI 417c4 .cfa: sp 16 +
STACK CFI 417c8 .cfa: sp 0 +
STACK CFI 417cc .cfa: x29 16 +
STACK CFI INIT 4189c 124 .cfa: sp 0 +
STACK CFI 418a0 .cfa: sp 64 +
STACK CFI 418b0 .cfa: x29 64 + x19: .cfa -8 + ^ x20: .cfa -16 + ^ x21: .cfa -24 + ^ x22: .cfa -32 + ^ x23: .cfa -40 + ^ x24: .cfa -48 + ^ .ra: .cfa -56 + ^ x29: .cfa -64 + ^
STACK CFI 4196c .cfa: sp 64 +
STACK CFI 4197c .cfa: sp 0 +
STACK CFI 41980 .cfa: x29 64 +
STACK CFI 41998 .cfa: sp 64 +
STACK CFI 419a8 .cfa: sp 0 +
STACK CFI 419ac .cfa: x29 64 +
STACK CFI INIT 419c0 490 .cfa: sp 0 +
STACK CFI 419c4 .cfa: sp 160 +
STACK CFI 419e4 .cfa: x29 96 + x19: .cfa -8 + ^ x20: .cfa -16 + ^ x21: .cfa -24 + ^ x22: .cfa -32 + ^ x23: .cfa -40 + ^ x24: .cfa -48 + ^ x25: .cfa -56 + ^ x26: .cfa -64 + ^ x27: .cfa -72 + ^ x28: .cfa -80 + ^ .ra: .cfa -88 + ^ x29: .cfa -96 + ^ v8: .cfa -104 + ^ v9: .cfa -112 + ^
STACK CFI 41e04 .cfa: sp 160 +
STACK CFI 41e24 .cfa: sp 0 +
STACK CFI 41e28 .cfa: x29 96 +
STACK CFI INIT 42908 130 .cfa: sp 0 +
STACK CFI 4290c .cfa: sp 64 +
STACK CFI 42918 .cfa: x29 32 + x19: .cfa -8 + ^ x20: .cfa -16 + ^ .ra: .cfa -24 + ^ x29: .cfa -32 + ^
STACK CFI 42a00 .cfa: sp 64 +
STACK CFI 42a0c .cfa: sp 0 +
STACK CFI 42a10 .cfa: x29 32 +
STACK CFI INIT 42a38 6dc .cfa: sp 0 +
STACK CFI 42a3c .cfa: sp 384 +
STACK CFI 42a54 .cfa: x29 56 + x19: .cfa -8 + ^ x20: .cfa -16 + ^ x21: .cfa -24 + ^ x22: .cfa -32 + ^ x28: .cfa -40 + ^ .ra: .cfa -48 + ^ x29: .cfa -56 + ^ v8: .cfa -64 + ^
STACK CFI 43020 .cfa: sp 384 +
STACK CFI 43038 .cfa: sp 0 +
STACK CFI 4303c .cfa: x29 56 +
STACK CFI INIT 43114 14c .cfa: sp 0 +
STACK CFI 43118 .cfa: sp 112 +
STACK CFI 4312c .cfa: x29 40 + x19: .cfa -8 + ^ x20: .cfa -16 + ^ x21: .cfa -24 + ^ .ra: .cfa -32 + ^ x29: .cfa -40 + ^ v8: .cfa -48 + ^
STACK CFI 431f4 .cfa: sp 112 +
STACK CFI 43208 .cfa: sp 0 +
STACK CFI 4320c .cfa: x29 40 +
STACK CFI INIT 43260 3c8 .cfa: sp 0 +
STACK CFI 43264 .cfa: sp 224 +
STACK CFI 43278 .cfa: x29 64 + x19: .cfa -8 + ^ x20: .cfa -16 + ^ x21: .cfa -24 + ^ x22: .cfa -32 + ^ x23: .cfa -48 + ^ .ra: .cfa -56 + ^ x29: .cfa -64 + ^
STACK CFI 43534 .cfa: sp 224 +
STACK CFI 43548 .cfa: sp 0 +
STACK CFI 4354c .cfa: x29 64 +
STACK CFI INIT 43628 2e4 .cfa: sp 0 +
STACK CFI 4362c .cfa: sp 176 +
STACK CFI 43648 .cfa: x29 96 + x19: .cfa -8 + ^ x20: .cfa -16 + ^ x21: .cfa -24 + ^ x22: .cfa -32 + ^ x23: .cfa -40 + ^ x24: .cfa -48 + ^ x25: .cfa -56 + ^ x26: .cfa -64 + ^ x27: .cfa -72 + ^ x28: .cfa -80 + ^ .ra: .cfa -88 + ^ x29: .cfa -96 + ^
STACK CFI 438a4 .cfa: sp 176 +
STACK CFI 438c0 .cfa: sp 0 +
STACK CFI 438c4 .cfa: x29 96 +
STACK CFI INIT 43ab4 6c .cfa: sp 0 +
STACK CFI 43ab8 .cfa: sp 32 +
STACK CFI 43ac0 .cfa: x29 32 + x19: .cfa -16 + ^ .ra: .cfa -24 + ^ x29: .cfa -32 + ^
STACK CFI 43b10 .cfa: sp 32 +
STACK CFI 43b18 .cfa: sp 0 +
STACK CFI 43b1c .cfa: x29 32 +
STACK CFI INIT 43b20 74 .cfa: sp 0 +
STACK CFI 43b24 .cfa: sp 32 +
STACK CFI 43b2c .cfa: x29 32 + x19: .cfa -16 + ^ .ra: .cfa -24 + ^ x29: .cfa -32 + ^
STACK CFI 43b84 .cfa: sp 32 +
STACK CFI 43b8c .cfa: sp 0 +
STACK CFI 43b90 .cfa: x29 32 +
STACK CFI INIT 43bcc 134 .cfa: sp 0 +
STACK CFI 43bd0 .cfa: sp 96 +
STACK CFI 43be0 .cfa: x29 48 + x19: .cfa -8 + ^ x20: .cfa -16 + ^ x21: .cfa -32 + ^ .ra: .cfa -40 + ^ x29: .cfa -48 + ^
STACK CFI 43cb4 .cfa: sp 96 +
STACK CFI 43cc4 .cfa: sp 0 +
STACK CFI 43cc8 .cfa: x29 48 +
STACK CFI INIT 43d00 6c .cfa: sp 0 +
STACK CFI 43d04 .cfa: sp 32 +
STACK CFI 43d0c .cfa: x29 32 + x19: .cfa -16 + ^ .ra: .cfa -24 + ^ x29: .cfa -32 + ^
STACK CFI 43d5c .cfa: sp 32 +
STACK CFI 43d64 .cfa: sp 0 +
STACK CFI 43d68 .cfa: x29 32 +
STACK CFI INIT 43d6c 74 .cfa: sp 0 +
STACK CFI 43d70 .cfa: sp 32 +
STACK CFI 43d78 .cfa: x29 32 + x19: .cfa -16 + ^ .ra: .cfa -24 + ^ x29: .cfa -32 + ^
STACK CFI 43dd0 .cfa: sp 32 +
STACK CFI 43dd8 .cfa: sp 0 +
STACK CFI 43ddc .cfa: x29 32 +
STACK CFI INIT 43df0 6c .cfa: sp 0 +
STACK CFI 43df4 .cfa: sp 32 +
STACK CFI 43dfc .cfa: x29 32 + x19: .cfa -16 + ^ .ra: .cfa -24 + ^ x29: .cfa -32 + ^
STACK CFI 43e4c .cfa: sp 32 +
STACK CFI 43e54 .cfa: sp 0 +
STACK CFI 43e58 .cfa: x29 32 +
STACK CFI INIT 44568 13c .cfa: sp 0 +
STACK CFI 4456c .cfa: sp 96 +
STACK CFI 44580 .cfa: x29 64 + x19: .cfa -8 + ^ x20: .cfa -16 + ^ x21: .cfa -24 + ^ x22: .cfa -32 + ^ x23: .cfa -48 + ^ .ra: .cfa -56 + ^ x29: .cfa -64 + ^
STACK CFI 44654 .cfa: sp 96 +
STACK CFI 44668 .cfa: sp 0 +
STACK CFI 4466c .cfa: x29 64 +
STACK CFI INIT 447a8 a8 .cfa: sp 0 +
STACK CFI 447ac .cfa: sp 64 +
STACK CFI 447b8 .cfa: x29 32 + x19: .cfa -8 + ^ x20: .cfa -16 + ^ .ra: .cfa -24 + ^ x29: .cfa -32 + ^
STACK CFI 44810 .cfa: sp 64 +
STACK CFI 4481c .cfa: sp 0 +
STACK CFI 44820 .cfa: x29 32 +
STACK CFI INIT 449c0 470 .cfa: sp 0 +
STACK CFI 449c4 .cfa: sp 224 +
STACK CFI 449e0 .cfa: x29 96 + x19: .cfa -8 + ^ x20: .cfa -16 + ^ x21: .cfa -24 + ^ x22: .cfa -32 + ^ x23: .cfa -40 + ^ x24: .cfa -48 + ^ x25: .cfa -56 + ^ x26: .cfa -64 + ^ x27: .cfa -80 + ^ .ra: .cfa -88 + ^ x29: .cfa -96 + ^
STACK CFI 44c3c .cfa: sp 224 +
STACK CFI 44c58 .cfa: sp 0 +
STACK CFI 44c5c .cfa: x29 96 +
STACK CFI 44d28 .cfa: sp 224 +
STACK CFI 44d44 .cfa: sp 0 +
STACK CFI 44d48 .cfa: x29 96 +
STACK CFI INIT 44e4c 3b8 .cfa: sp 0 +
STACK CFI 44e50 .cfa: sp 272 +
STACK CFI 44e64 .cfa: x29 64 + x19: .cfa -8 + ^ x20: .cfa -16 + ^ x21: .cfa -24 + ^ x22: .cfa -32 + ^ x23: .cfa -40 + ^ x28: .cfa -48 + ^ .ra: .cfa -56 + ^ x29: .cfa -64 + ^
STACK CFI 450d4 .cfa: sp 272 +
STACK CFI 450e8 .cfa: sp 0 +
STACK CFI 450ec .cfa: x29 64 +
STACK CFI INIT 45254 74 .cfa: sp 0 +
STACK CFI 45258 .cfa: sp 48 +
STACK CFI 45264 .cfa: x29 32 + x19: .cfa -8 + ^ x20: .cfa -16 + ^ .ra: .cfa -24 + ^ x29: .cfa -32 + ^
STACK CFI 452b0 .cfa: sp 48 +
STACK CFI 452bc .cfa: sp 0 +
STACK CFI 452c0 .cfa: x29 32 +
STACK CFI INIT 452cc 154 .cfa: sp 0 +
STACK CFI 452d0 .cfa: sp 384 +
STACK CFI 452e4 .cfa: x29 64 + x19: .cfa -8 + ^ x20: .cfa -16 + ^ x21: .cfa -24 + ^ x22: .cfa -32 + ^ x23: .cfa -40 + ^ x28: .cfa -48 + ^ .ra: .cfa -56 + ^ x29: .cfa -64 + ^
STACK CFI 453c8 .cfa: sp 384 +
STACK CFI 453dc .cfa: sp 0 +
STACK CFI 453e0 .cfa: x29 64 +
STACK CFI INIT 45420 134 .cfa: sp 0 +
STACK CFI 45424 .cfa: sp 80 +
STACK CFI 45438 .cfa: x29 80 + x19: .cfa -8 + ^ x20: .cfa -16 + ^ x21: .cfa -24 + ^ x22: .cfa -32 + ^ x23: .cfa -40 + ^ x24: .cfa -48 + ^ x25: .cfa -56 + ^ x26: .cfa -64 + ^ .ra: .cfa -72 + ^ x29: .cfa -80 + ^
STACK CFI 45508 .cfa: sp 80 +
STACK CFI 4551c .cfa: sp 0 +
STACK CFI 45520 .cfa: x29 80 +
STACK CFI INIT 455f8 1a4 .cfa: sp 0 +
STACK CFI 455fc .cfa: sp 112 +
STACK CFI 45614 .cfa: x29 80 + x19: .cfa -8 + ^ x20: .cfa -16 + ^ x21: .cfa -24 + ^ x22: .cfa -32 + ^ x23: .cfa -40 + ^ x24: .cfa -48 + ^ x25: .cfa -56 + ^ x26: .cfa -64 + ^ .ra: .cfa -72 + ^ x29: .cfa -80 + ^
STACK CFI 45704 .cfa: sp 112 +
STACK CFI 4571c .cfa: sp 0 +
STACK CFI 45720 .cfa: x29 80 +
STACK CFI INIT 4579c 1ec .cfa: sp 0 +
STACK CFI 457a0 .cfa: sp 128 +
STACK CFI 457bc .cfa: x29 96 + x19: .cfa -8 + ^ x20: .cfa -16 + ^ x21: .cfa -24 + ^ x22: .cfa -32 + ^ x23: .cfa -40 + ^ x24: .cfa -48 + ^ x25: .cfa -56 + ^ x26: .cfa -64 + ^ x27: .cfa -80 + ^ .ra: .cfa -88 + ^ x29: .cfa -96 + ^
STACK CFI 45938 .cfa: sp 128 +
STACK CFI 45954 .cfa: sp 0 +
STACK CFI 45958 .cfa: x29 96 +
STACK CFI INIT 45988 170 .cfa: sp 0 +
STACK CFI 4598c .cfa: sp 48 +
STACK CFI 45998 .cfa: x29 48 + x19: .cfa -8 + ^ x20: .cfa -16 + ^ x21: .cfa -32 + ^ .ra: .cfa -40 + ^ x29: .cfa -48 + ^
STACK CFI 45acc .cfa: sp 48 +
STACK CFI 45ad8 .cfa: sp 0 +
STACK CFI 45adc .cfa: x29 48 +
STACK CFI INIT 45cc8 1b0 .cfa: sp 0 +
STACK CFI 45ccc .cfa: sp 128 +
STACK CFI 45ce4 .cfa: x29 80 + x19: .cfa -8 + ^ x20: .cfa -16 + ^ x21: .cfa -24 + ^ x22: .cfa -32 + ^ x23: .cfa -40 + ^ x24: .cfa -48 + ^ x25: .cfa -64 + ^ .ra: .cfa -72 + ^ x29: .cfa -80 + ^
STACK CFI 45e08 .cfa: sp 128 +
STACK CFI 45e20 .cfa: sp 0 +
STACK CFI 45e24 .cfa: x29 80 +
STACK CFI INIT 46548 204 .cfa: sp 0 +
STACK CFI 4654c .cfa: sp 112 +
STACK CFI 46560 .cfa: x29 48 + x19: .cfa -8 + ^ x20: .cfa -16 + ^ x21: .cfa -24 + ^ x22: .cfa -32 + ^ .ra: .cfa -40 + ^ x29: .cfa -48 + ^ v8: .cfa -64 + ^
STACK CFI 466b4 .cfa: sp 112 +
STACK CFI 466c8 .cfa: sp 0 +
STACK CFI 466cc .cfa: x29 48 +
STACK CFI INIT 4674c c8 .cfa: sp 0 +
STACK CFI 46750 .cfa: sp 32 +
STACK CFI 46758 .cfa: x29 32 + x19: .cfa -8 + ^ x20: .cfa -16 + ^ .ra: .cfa -24 + ^ x29: .cfa -32 + ^
STACK CFI 4678c .cfa: sp 32 +
STACK CFI 46794 .cfa: sp 0 +
STACK CFI 46798 .cfa: x29 32 +
STACK CFI 4679c .cfa: sp 32 +
STACK CFI 467a4 .cfa: sp 0 +
STACK CFI 467a8 .cfa: x29 32 +
STACK CFI INIT 46814 c8 .cfa: sp 0 +
STACK CFI 46818 .cfa: sp 80 +
STACK CFI 46828 .cfa: x29 48 + x19: .cfa -8 + ^ x20: .cfa -16 + ^ x21: .cfa -24 + ^ x22: .cfa -32 + ^ .ra: .cfa -40 + ^ x29: .cfa -48 + ^
STACK CFI 46894 .cfa: sp 80 +
STACK CFI 468a4 .cfa: sp 0 +
STACK CFI 468a8 .cfa: x29 48 +
STACK CFI INIT 47038 4e8 .cfa: sp 0 +
STACK CFI 4703c .cfa: sp 224 +
STACK CFI 47058 .cfa: x29 96 + x19: .cfa -8 + ^ x20: .cfa -16 + ^ x21: .cfa -24 + ^ x22: .cfa -32 + ^ x23: .cfa -40 + ^ x24: .cfa -48 + ^ x25: .cfa -56 + ^ x26: .cfa -64 + ^ x27: .cfa -80 + ^ .ra: .cfa -88 + ^ x29: .cfa -96 + ^
STACK CFI 47324 .cfa: sp 224 +
STACK CFI 47340 .cfa: sp 0 +
STACK CFI 47344 .cfa: x29 96 +
STACK CFI 47410 .cfa: sp 224 +
STACK CFI 4742c .cfa: sp 0 +
STACK CFI 47430 .cfa: x29 96 +
STACK CFI INIT 4753c 5e8 .cfa: sp 0 +
STACK CFI 47540 .cfa: sp 288 +
STACK CFI 4755c .cfa: x29 96 + x19: .cfa -8 + ^ x20: .cfa -16 + ^ x21: .cfa -24 + ^ x22: .cfa -32 + ^ x23: .cfa -40 + ^ x24: .cfa -48 + ^ x25: .cfa -56 + ^ x26: .cfa -64 + ^ x28: .cfa -80 + ^ .ra: .cfa -88 + ^ x29: .cfa -96 + ^
STACK CFI 47958 .cfa: sp 288 +
STACK CFI 47974 .cfa: sp 0 +
STACK CFI 47978 .cfa: x29 96 +
STACK CFI INIT 47b28 4e0 .cfa: sp 0 +
STACK CFI 47b2c .cfa: sp 224 +
STACK CFI 47b44 .cfa: x29 80 + x19: .cfa -8 + ^ x20: .cfa -16 + ^ x21: .cfa -24 + ^ x22: .cfa -32 + ^ x23: .cfa -40 + ^ x24: .cfa -48 + ^ x25: .cfa -64 + ^ .ra: .cfa -72 + ^ x29: .cfa -80 + ^
STACK CFI 47e7c .cfa: sp 224 +
STACK CFI 47e94 .cfa: sp 0 +
STACK CFI 47e98 .cfa: x29 80 +
STACK CFI INIT 48008 110 .cfa: sp 0 +
STACK CFI 4800c .cfa: sp 96 +
STACK CFI 48020 .cfa: x29 64 + x19: .cfa -8 + ^ x20: .cfa -16 + ^ x21: .cfa -24 + ^ x22: .cfa -32 + ^ x23: .cfa -40 + ^ x24: .cfa -48 + ^ .ra: .cfa -56 + ^ x29: .cfa -64 + ^
STACK CFI 48068 .cfa: sp 96 +
STACK CFI 4807c .cfa: sp 0 +
STACK CFI 48080 .cfa: x29 64 +
STACK CFI INIT 48118 1f4 .cfa: sp 0 +
STACK CFI 4811c .cfa: sp 128 +
STACK CFI 48138 .cfa: x29 96 + x19: .cfa -8 + ^ x20: .cfa -16 + ^ x21: .cfa -24 + ^ x22: .cfa -32 + ^ x23: .cfa -40 + ^ x24: .cfa -48 + ^ x25: .cfa -56 + ^ x26: .cfa -64 + ^ x27: .cfa -72 + ^ x28: .cfa -80 + ^ .ra: .cfa -88 + ^ x29: .cfa -96 + ^
STACK CFI 482c4 .cfa: sp 128 +
STACK CFI 482e0 .cfa: sp 0 +
STACK CFI 482e4 .cfa: x29 96 +
STACK CFI INIT 48388 168 .cfa: sp 0 +
STACK CFI 4838c .cfa: sp 384 +
STACK CFI 483a0 .cfa: x29 64 + x19: .cfa -8 + ^ x20: .cfa -16 + ^ x21: .cfa -24 + ^ x22: .cfa -32 + ^ x23: .cfa -40 + ^ x28: .cfa -48 + ^ .ra: .cfa -56 + ^ x29: .cfa -64 + ^
STACK CFI 48498 .cfa: sp 384 +
STACK CFI 484ac .cfa: sp 0 +
STACK CFI 484b0 .cfa: x29 64 +
STACK CFI INIT 48584 174 .cfa: sp 0 +
STACK CFI 48588 .cfa: sp 112 +
STACK CFI 48598 .cfa: x29 48 + x19: .cfa -8 + ^ x20: .cfa -16 + ^ x21: .cfa -32 + ^ .ra: .cfa -40 + ^ x29: .cfa -48 + ^
STACK CFI 48694 .cfa: sp 112 +
STACK CFI 486a4 .cfa: sp 0 +
STACK CFI 486a8 .cfa: x29 48 +
STACK CFI INIT 487d0 164 .cfa: sp 0 +
STACK CFI 487d4 .cfa: sp 96 +
STACK CFI 487e8 .cfa: x29 64 + x19: .cfa -8 + ^ x20: .cfa -16 + ^ x21: .cfa -24 + ^ x22: .cfa -32 + ^ x23: .cfa -48 + ^ .ra: .cfa -56 + ^ x29: .cfa -64 + ^
STACK CFI 488ec .cfa: sp 96 +
STACK CFI 48900 .cfa: sp 0 +
STACK CFI 48904 .cfa: x29 64 +
STACK CFI INIT 48934 138 .cfa: sp 0 +
STACK CFI 48938 .cfa: sp 80 +
STACK CFI 48948 .cfa: x29 48 + x19: .cfa -8 + ^ x20: .cfa -16 + ^ x21: .cfa -24 + ^ x22: .cfa -32 + ^ .ra: .cfa -40 + ^ x29: .cfa -48 + ^
STACK CFI 48a28 .cfa: sp 80 +
STACK CFI 48a38 .cfa: sp 0 +
STACK CFI 48a3c .cfa: x29 48 +
STACK CFI INIT 48a6c a8 .cfa: sp 0 +
STACK CFI 48a70 .cfa: sp 32 +
STACK CFI 48a78 .cfa: x29 32 + x19: .cfa -16 + ^ .ra: .cfa -24 + ^ x29: .cfa -32 + ^
STACK CFI 48aac .cfa: sp 32 +
STACK CFI 48ab4 .cfa: sp 0 +
STACK CFI 48ab8 .cfa: x29 32 +
STACK CFI 48abc .cfa: sp 32 +
STACK CFI 48ac4 .cfa: sp 0 +
STACK CFI 48ac8 .cfa: x29 32 +
STACK CFI INIT 48b98 1dc .cfa: sp 0 +
STACK CFI 48b9c .cfa: sp 208 +
STACK CFI 48bb4 .cfa: x29 80 + x19: .cfa -8 + ^ x20: .cfa -16 + ^ x21: .cfa -24 + ^ x22: .cfa -32 + ^ x23: .cfa -40 + ^ x24: .cfa -48 + ^ x25: .cfa -64 + ^ .ra: .cfa -72 + ^ x29: .cfa -80 + ^
STACK CFI 48d00 .cfa: sp 208 +
STACK CFI 48d18 .cfa: sp 0 +
STACK CFI 48d1c .cfa: x29 80 +
STACK CFI INIT 48d8c 470 .cfa: sp 0 +
STACK CFI 48d90 .cfa: sp 224 +
STACK CFI 48dac .cfa: x29 96 + x19: .cfa -8 + ^ x20: .cfa -16 + ^ x21: .cfa -24 + ^ x22: .cfa -32 + ^ x23: .cfa -40 + ^ x24: .cfa -48 + ^ x25: .cfa -56 + ^ x26: .cfa -64 + ^ x27: .cfa -80 + ^ .ra: .cfa -88 + ^ x29: .cfa -96 + ^
STACK CFI 49008 .cfa: sp 224 +
STACK CFI 49024 .cfa: sp 0 +
STACK CFI 49028 .cfa: x29 96 +
STACK CFI 490f4 .cfa: sp 224 +
STACK CFI 49110 .cfa: sp 0 +
STACK CFI 49114 .cfa: x29 96 +
STACK CFI INIT 49218 924 .cfa: sp 0 +
STACK CFI 4921c .cfa: sp 288 +
STACK CFI 49238 .cfa: x29 96 + x19: .cfa -8 + ^ x20: .cfa -16 + ^ x21: .cfa -24 + ^ x22: .cfa -32 + ^ x23: .cfa -40 + ^ x24: .cfa -48 + ^ x25: .cfa -56 + ^ x26: .cfa -64 + ^ x27: .cfa -72 + ^ x28: .cfa -80 + ^ .ra: .cfa -88 + ^ x29: .cfa -96 + ^
STACK CFI 498b4 .cfa: sp 288 +
STACK CFI 498d0 .cfa: sp 0 +
STACK CFI 498d4 .cfa: x29 96 +
STACK CFI INIT 49b40 424 .cfa: sp 0 +
STACK CFI 49b44 .cfa: sp 192 +
STACK CFI 49b60 .cfa: x29 96 + x19: .cfa -8 + ^ x20: .cfa -16 + ^ x21: .cfa -24 + ^ x22: .cfa -32 + ^ x23: .cfa -40 + ^ x24: .cfa -48 + ^ x25: .cfa -56 + ^ x26: .cfa -64 + ^ x27: .cfa -80 + ^ .ra: .cfa -88 + ^ x29: .cfa -96 + ^
STACK CFI 49e20 .cfa: sp 192 +
STACK CFI 49e3c .cfa: sp 0 +
STACK CFI 49e40 .cfa: x29 96 +
STACK CFI INIT 4a3a8 164 .cfa: sp 0 +
STACK CFI 4a3ac .cfa: sp 96 +
STACK CFI 4a3b8 .cfa: x29 32 + x19: .cfa -8 + ^ x20: .cfa -16 + ^ .ra: .cfa -24 + ^ x29: .cfa -32 + ^
STACK CFI 4a460 .cfa: sp 96 +
STACK CFI 4a46c .cfa: sp 0 +
STACK CFI 4a470 .cfa: x29 32 +
STACK CFI INIT 4a50c 20 .cfa: sp 0 +
STACK CFI 4a510 .cfa: sp 16 +
STACK CFI 4a514 .cfa: x29 16 + .ra: .cfa -8 + ^ x29: .cfa -16 + ^
STACK CFI 4a520 .cfa: sp 16 +
STACK CFI 4a524 .cfa: sp 0 +
STACK CFI 4a528 .cfa: x29 16 +
STACK CFI INIT 4a6cc 12c .cfa: sp 0 +
STACK CFI 4a6d0 .cfa: sp 80 +
STACK CFI 4a6e0 .cfa: x29 48 + x19: .cfa -8 + ^ x20: .cfa -16 + ^ x21: .cfa -24 + ^ x22: .cfa -32 + ^ .ra: .cfa -40 + ^ x29: .cfa -48 + ^
STACK CFI 4a7dc .cfa: sp 80 +
STACK CFI 4a7ec .cfa: sp 0 +
STACK CFI 4a7f0 .cfa: x29 48 +
STACK CFI INIT 4a8b0 470 .cfa: sp 0 +
STACK CFI 4a8b4 .cfa: sp 224 +
STACK CFI 4a8d0 .cfa: x29 96 + x19: .cfa -8 + ^ x20: .cfa -16 + ^ x21: .cfa -24 + ^ x22: .cfa -32 + ^ x23: .cfa -40 + ^ x24: .cfa -48 + ^ x25: .cfa -56 + ^ x26: .cfa -64 + ^ x27: .cfa -80 + ^ .ra: .cfa -88 + ^ x29: .cfa -96 + ^
STACK CFI 4ab2c .cfa: sp 224 +
STACK CFI 4ab48 .cfa: sp 0 +
STACK CFI 4ab4c .cfa: x29 96 +
STACK CFI 4ac18 .cfa: sp 224 +
STACK CFI 4ac34 .cfa: sp 0 +
STACK CFI 4ac38 .cfa: x29 96 +
STACK CFI INIT 4ad3c 380 .cfa: sp 0 +
STACK CFI 4ad40 .cfa: sp 256 +
STACK CFI 4ad54 .cfa: x29 64 + x19: .cfa -8 + ^ x20: .cfa -16 + ^ x21: .cfa -24 + ^ x22: .cfa -32 + ^ x23: .cfa -48 + ^ .ra: .cfa -56 + ^ x29: .cfa -64 + ^
STACK CFI 4af90 .cfa: sp 256 +
STACK CFI 4afa4 .cfa: sp 0 +
STACK CFI 4afa8 .cfa: x29 64 +
STACK CFI INIT 4b0c0 138 .cfa: sp 0 +
STACK CFI 4b0c4 .cfa: sp 128 +
STACK CFI 4b0d8 .cfa: x29 64 + x19: .cfa -8 + ^ x20: .cfa -16 + ^ x21: .cfa -24 + ^ x22: .cfa -32 + ^ x23: .cfa -48 + ^ .ra: .cfa -56 + ^ x29: .cfa -64 + ^
STACK CFI 4b190 .cfa: sp 128 +
STACK CFI 4b1a4 .cfa: sp 0 +
STACK CFI 4b1a8 .cfa: x29 64 +
STACK CFI INIT 4b1f8 200 .cfa: sp 0 +
STACK CFI 4b1fc .cfa: sp 144 +
STACK CFI 4b210 .cfa: x29 64 + x19: .cfa -8 + ^ x20: .cfa -16 + ^ x21: .cfa -24 + ^ x22: .cfa -32 + ^ x23: .cfa -40 + ^ x24: .cfa -48 + ^ .ra: .cfa -56 + ^ x29: .cfa -64 + ^
STACK CFI 4b378 .cfa: sp 144 +
STACK CFI 4b38c .cfa: sp 0 +
STACK CFI 4b390 .cfa: x29 64 +
STACK CFI INIT 4b48c a38 .cfa: sp 0 +
STACK CFI 4b490 .cfa: sp 352 +
STACK CFI 4b4ac .cfa: x29 96 + x19: .cfa -8 + ^ x20: .cfa -16 + ^ x21: .cfa -24 + ^ x22: .cfa -32 + ^ x23: .cfa -40 + ^ x24: .cfa -48 + ^ x25: .cfa -56 + ^ x26: .cfa -64 + ^ x27: .cfa -72 + ^ x28: .cfa -80 + ^ .ra: .cfa -88 + ^ x29: .cfa -96 + ^
STACK CFI 4b5dc .cfa: sp 352 +
STACK CFI 4b5f8 .cfa: sp 0 +
STACK CFI 4b5fc .cfa: x29 96 +
STACK CFI 4bc34 .cfa: sp 352 +
STACK CFI 4bc50 .cfa: sp 0 +
STACK CFI 4bc54 .cfa: x29 96 +
STACK CFI INIT 4bf44 1114 .cfa: sp 0 +
STACK CFI 4bf48 .cfa: sp 288 +
STACK CFI 4bf64 .cfa: x29 96 + x19: .cfa -8 + ^ x20: .cfa -16 + ^ x21: .cfa -24 + ^ x22: .cfa -32 + ^ x23: .cfa -40 + ^ x24: .cfa -48 + ^ x25: .cfa -56 + ^ x26: .cfa -64 + ^ x27: .cfa -72 + ^ x28: .cfa -80 + ^ .ra: .cfa -88 + ^ x29: .cfa -96 + ^
STACK CFI 4cb8c .cfa: sp 288 +
STACK CFI 4cba8 .cfa: sp 0 +
STACK CFI 4cbac .cfa: x29 96 +
STACK CFI INIT 4d05c 1c4 .cfa: sp 0 +
STACK CFI 4d060 .cfa: sp 112 +
STACK CFI 4d074 .cfa: x29 64 + x19: .cfa -8 + ^ x20: .cfa -16 + ^ x21: .cfa -24 + ^ x22: .cfa -32 + ^ x23: .cfa -48 + ^ .ra: .cfa -56 + ^ x29: .cfa -64 + ^
STACK CFI 4d170 .cfa: sp 112 +
STACK CFI 4d184 .cfa: sp 0 +
STACK CFI 4d188 .cfa: x29 64 +
STACK CFI INIT 4d220 110 .cfa: sp 0 +
STACK CFI 4d224 .cfa: sp 96 +
STACK CFI 4d238 .cfa: x29 64 + x19: .cfa -8 + ^ x20: .cfa -16 + ^ x21: .cfa -24 + ^ x22: .cfa -32 + ^ x23: .cfa -40 + ^ x24: .cfa -48 + ^ .ra: .cfa -56 + ^ x29: .cfa -64 + ^
STACK CFI 4d280 .cfa: sp 96 +
STACK CFI 4d294 .cfa: sp 0 +
STACK CFI 4d298 .cfa: x29 64 +
STACK CFI INIT 4d344 50 .cfa: sp 0 +
STACK CFI 4d348 .cfa: sp 32 +
STACK CFI 4d350 .cfa: x29 32 + x19: .cfa -8 + ^ x20: .cfa -16 + ^ .ra: .cfa -24 + ^ x29: .cfa -32 + ^
STACK CFI INIT 4d450 110 .cfa: sp 0 +
STACK CFI 4d454 .cfa: sp 96 +
STACK CFI 4d468 .cfa: x29 64 + x19: .cfa -8 + ^ x20: .cfa -16 + ^ x21: .cfa -24 + ^ x22: .cfa -32 + ^ x23: .cfa -40 + ^ x24: .cfa -48 + ^ .ra: .cfa -56 + ^ x29: .cfa -64 + ^
STACK CFI 4d4b0 .cfa: sp 96 +
STACK CFI 4d4c4 .cfa: sp 0 +
STACK CFI 4d4c8 .cfa: x29 64 +
STACK CFI INIT 4d5ec 580 .cfa: sp 0 +
STACK CFI 4d5f0 .cfa: sp 144 +
STACK CFI 4d608 .cfa: x29 80 + x19: .cfa -8 + ^ x20: .cfa -16 + ^ x21: .cfa -24 + ^ x22: .cfa -32 + ^ x23: .cfa -40 + ^ x24: .cfa -48 + ^ x25: .cfa -56 + ^ x26: .cfa -64 + ^ .ra: .cfa -72 + ^ x29: .cfa -80 + ^
STACK CFI 4dacc .cfa: sp 144 +
STACK CFI 4dae4 .cfa: sp 0 +
STACK CFI 4dae8 .cfa: x29 80 +
STACK CFI INIT 4db6c 184 .cfa: sp 0 +
STACK CFI 4db70 .cfa: sp 160 +
STACK CFI 4db88 .cfa: x29 80 + x19: .cfa -8 + ^ x20: .cfa -16 + ^ x21: .cfa -24 + ^ x22: .cfa -32 + ^ x23: .cfa -40 + ^ x24: .cfa -48 + ^ x25: .cfa -56 + ^ x26: .cfa -64 + ^ .ra: .cfa -72 + ^ x29: .cfa -80 + ^
STACK CFI 4dc88 .cfa: sp 160 +
STACK CFI 4dca0 .cfa: sp 0 +
STACK CFI 4dca4 .cfa: x29 80 +
STACK CFI INIT 4ea14 a8 .cfa: sp 0 +
STACK CFI 4ea18 .cfa: sp 32 +
STACK CFI 4ea20 .cfa: x29 32 + x19: .cfa -16 + ^ .ra: .cfa -24 + ^ x29: .cfa -32 + ^
STACK CFI 4ea54 .cfa: sp 32 +
STACK CFI 4ea5c .cfa: sp 0 +
STACK CFI 4ea60 .cfa: x29 32 +
STACK CFI 4ea64 .cfa: sp 32 +
STACK CFI 4ea6c .cfa: sp 0 +
STACK CFI 4ea70 .cfa: x29 32 +
STACK CFI INIT 4ed4c 19c .cfa: sp 0 +
STACK CFI 4ed50 .cfa: sp 112 +
STACK CFI 4ed60 .cfa: x29 48 + x19: .cfa -8 + ^ x20: .cfa -16 + ^ x21: .cfa -32 + ^ .ra: .cfa -40 + ^ x29: .cfa -48 + ^
STACK CFI 4ee40 .cfa: sp 112 +
STACK CFI 4ee50 .cfa: sp 0 +
STACK CFI 4ee54 .cfa: x29 48 +
STACK CFI INIT 4eee8 1dc .cfa: sp 0 +
STACK CFI 4eeec .cfa: sp 208 +
STACK CFI 4ef04 .cfa: x29 80 + x19: .cfa -8 + ^ x20: .cfa -16 + ^ x21: .cfa -24 + ^ x22: .cfa -32 + ^ x23: .cfa -40 + ^ x24: .cfa -48 + ^ x25: .cfa -64 + ^ .ra: .cfa -72 + ^ x29: .cfa -80 + ^
STACK CFI 4f050 .cfa: sp 208 +
STACK CFI 4f068 .cfa: sp 0 +
STACK CFI 4f06c .cfa: x29 80 +
STACK CFI INIT 4f0c4 125c .cfa: sp 0 +
STACK CFI 4f0c8 .cfa: sp 368 +
STACK CFI 4f0e8 .cfa: x29 96 + x19: .cfa -8 + ^ x20: .cfa -16 + ^ x21: .cfa -24 + ^ x22: .cfa -32 + ^ x23: .cfa -40 + ^ x24: .cfa -48 + ^ x25: .cfa -56 + ^ x26: .cfa -64 + ^ x27: .cfa -72 + ^ x28: .cfa -80 + ^ .ra: .cfa -88 + ^ x29: .cfa -96 + ^ v8: .cfa -112 + ^
STACK CFI 4f1d4 .cfa: sp 368 +
STACK CFI 4f1f4 .cfa: sp 0 +
STACK CFI 4f1f8 .cfa: x29 96 +
STACK CFI 501c4 .cfa: sp 368 +
STACK CFI 501e4 .cfa: sp 0 +
STACK CFI 501e8 .cfa: x29 96 +
STACK CFI INIT 50320 2ac .cfa: sp 0 +
STACK CFI 50324 .cfa: sp 144 +
STACK CFI 50340 .cfa: x29 96 + x19: .cfa -8 + ^ x20: .cfa -16 + ^ x21: .cfa -24 + ^ x22: .cfa -32 + ^ x23: .cfa -40 + ^ x24: .cfa -48 + ^ x25: .cfa -56 + ^ x26: .cfa -64 + ^ x27: .cfa -72 + ^ x28: .cfa -80 + ^ .ra: .cfa -88 + ^ x29: .cfa -96 + ^
STACK CFI 50558 .cfa: sp 144 +
STACK CFI 50574 .cfa: sp 0 +
STACK CFI 50578 .cfa: x29 96 +
STACK CFI INIT 505cc 8cc .cfa: sp 0 +
STACK CFI 505d0 .cfa: sp 176 +
STACK CFI 505ec .cfa: x29 96 + x19: .cfa -8 + ^ x20: .cfa -16 + ^ x21: .cfa -24 + ^ x22: .cfa -32 + ^ x23: .cfa -40 + ^ x24: .cfa -48 + ^ x25: .cfa -56 + ^ x26: .cfa -64 + ^ x27: .cfa -72 + ^ x28: .cfa -80 + ^ .ra: .cfa -88 + ^ x29: .cfa -96 + ^
STACK CFI 50e20 .cfa: sp 176 +
STACK CFI 50e3c .cfa: sp 0 +
STACK CFI 50e40 .cfa: x29 96 +
STACK CFI INIT 50e98 1b0 .cfa: sp 0 +
STACK CFI 50e9c .cfa: sp 112 +
STACK CFI 50eb4 .cfa: x29 80 + x19: .cfa -8 + ^ x20: .cfa -16 + ^ x21: .cfa -24 + ^ x22: .cfa -32 + ^ x23: .cfa -40 + ^ x24: .cfa -48 + ^ x25: .cfa -64 + ^ .ra: .cfa -72 + ^ x29: .cfa -80 + ^
STACK CFI 50ffc .cfa: sp 112 +
STACK CFI 51014 .cfa: sp 0 +
STACK CFI 51018 .cfa: x29 80 +
STACK CFI INIT 51048 2c4 .cfa: sp 0 +
STACK CFI 5104c .cfa: sp 128 +
STACK CFI 51064 .cfa: x29 80 + x19: .cfa -8 + ^ x20: .cfa -16 + ^ x21: .cfa -24 + ^ x22: .cfa -32 + ^ x23: .cfa -40 + ^ x24: .cfa -48 + ^ x25: .cfa -64 + ^ .ra: .cfa -72 + ^ x29: .cfa -80 + ^
STACK CFI 512ac .cfa: sp 128 +
STACK CFI 512c4 .cfa: sp 0 +
STACK CFI 512c8 .cfa: x29 80 +
STACK CFI INIT 51344 230 .cfa: sp 0 +
STACK CFI 51348 .cfa: sp 176 +
STACK CFI 51364 .cfa: x29 96 + x19: .cfa -8 + ^ x20: .cfa -16 + ^ x21: .cfa -24 + ^ x22: .cfa -32 + ^ x23: .cfa -40 + ^ x24: .cfa -48 + ^ x25: .cfa -56 + ^ x26: .cfa -64 + ^ x27: .cfa -72 + ^ x28: .cfa -80 + ^ .ra: .cfa -88 + ^ x29: .cfa -96 + ^
STACK CFI 513a4 .cfa: sp 176 +
STACK CFI 513c0 .cfa: sp 0 +
STACK CFI 513c4 .cfa: x29 96 +
STACK CFI INIT 51574 114 .cfa: sp 0 +
STACK CFI 51578 .cfa: sp 64 +
STACK CFI 51588 .cfa: x29 64 + x19: .cfa -8 + ^ x20: .cfa -16 + ^ x21: .cfa -24 + ^ x22: .cfa -32 + ^ x23: .cfa -48 + ^ .ra: .cfa -56 + ^ x29: .cfa -64 + ^
STACK CFI 51664 .cfa: sp 64 +
STACK CFI 51674 .cfa: sp 0 +
STACK CFI 51678 .cfa: x29 64 +
STACK CFI INIT 516a4 220 .cfa: sp 0 +
STACK CFI 516a8 .cfa: sp 96 +
STACK CFI 516c0 .cfa: x29 96 + x19: .cfa -8 + ^ x20: .cfa -16 + ^ x21: .cfa -24 + ^ x22: .cfa -32 + ^ x23: .cfa -40 + ^ x24: .cfa -48 + ^ x25: .cfa -56 + ^ x26: .cfa -64 + ^ x27: .cfa -72 + ^ x28: .cfa -80 + ^ .ra: .cfa -88 + ^ x29: .cfa -96 + ^
STACK CFI 51894 .cfa: sp 96 +
STACK CFI 518ac .cfa: sp 0 +
STACK CFI 518b0 .cfa: x29 96 +
STACK CFI INIT 51998 108 .cfa: sp 0 +
STACK CFI 5199c .cfa: sp 112 +
STACK CFI 519a8 .cfa: x29 32 + x19: .cfa -8 + ^ x20: .cfa -16 + ^ .ra: .cfa -24 + ^ x29: .cfa -32 + ^
STACK CFI 51a70 .cfa: sp 112 +
STACK CFI 51a7c .cfa: sp 0 +
STACK CFI 51a80 .cfa: x29 32 +
STACK CFI INIT 51ad0 1c .cfa: sp 0 +
STACK CFI 51ad4 .cfa: sp 16 +
STACK CFI 51ad8 .cfa: x29 16 + .ra: .cfa -8 + ^ x29: .cfa -16 + ^
STACK CFI 51ae0 .cfa: sp 16 +
STACK CFI 51ae4 .cfa: sp 0 +
STACK CFI 51ae8 .cfa: x29 16 +
STACK CFI INIT 51aec 2c0 .cfa: sp 0 +
STACK CFI 51af0 .cfa: sp 176 +
STACK CFI 51b0c .cfa: x29 96 + x19: .cfa -8 + ^ x20: .cfa -16 + ^ x21: .cfa -24 + ^ x22: .cfa -32 + ^ x23: .cfa -40 + ^ x24: .cfa -48 + ^ x25: .cfa -56 + ^ x26: .cfa -64 + ^ x27: .cfa -80 + ^ .ra: .cfa -88 + ^ x29: .cfa -96 + ^
STACK CFI 51d1c .cfa: sp 176 +
STACK CFI 51d20 .cfa: x29 96 +
STACK CFI 51d38 .cfa: sp 176 +
STACK CFI 51d54 .cfa: sp 0 +
STACK CFI 51d58 .cfa: x29 96 +
STACK CFI INIT 51dac 4f4 .cfa: sp 0 +
STACK CFI 51db0 .cfa: sp 128 +
STACK CFI 51dcc .cfa: x29 96 + x19: .cfa -8 + ^ x20: .cfa -16 + ^ x21: .cfa -24 + ^ x22: .cfa -32 + ^ x23: .cfa -40 + ^ x24: .cfa -48 + ^ x25: .cfa -56 + ^ x26: .cfa -64 + ^ x27: .cfa -72 + ^ x28: .cfa -80 + ^ .ra: .cfa -88 + ^ x29: .cfa -96 + ^
STACK CFI 52234 .cfa: sp 128 +
STACK CFI 52250 .cfa: sp 0 +
STACK CFI 52254 .cfa: x29 96 +
STACK CFI INIT 525ac 130 .cfa: sp 0 +
STACK CFI 525b0 .cfa: sp 112 +
STACK CFI 525bc .cfa: x29 32 + x19: .cfa -8 + ^ x20: .cfa -16 + ^ .ra: .cfa -24 + ^ x29: .cfa -32 + ^
STACK CFI 52664 .cfa: sp 112 +
STACK CFI 52670 .cfa: sp 0 +
STACK CFI 52674 .cfa: x29 32 +
STACK CFI INIT 526dc 1eb0 .cfa: sp 0 +
STACK CFI 526e0 .cfa: sp 112 +
STACK CFI 526fc .cfa: x29 96 + x19: .cfa -8 + ^ x20: .cfa -16 + ^ x21: .cfa -24 + ^ x22: .cfa -32 + ^ x23: .cfa -40 + ^ x24: .cfa -48 + ^ x25: .cfa -56 + ^ x26: .cfa -64 + ^ x27: .cfa -72 + ^ x28: .cfa -80 + ^ .ra: .cfa -88 + ^ x29: .cfa -96 + ^ v8: .cfa -112 + ^
STACK CFI 53a40 .cfa: sp 112 +
STACK CFI 53a5c .cfa: sp 0 +
STACK CFI 53a60 .cfa: x29 96 +
STACK CFI INIT 5458c 10c .cfa: sp 0 +
STACK CFI 54590 .cfa: sp 32 +
STACK CFI 54598 .cfa: x29 32 + x19: .cfa -8 + ^ x20: .cfa -16 + ^ .ra: .cfa -24 + ^ x29: .cfa -32 + ^
STACK CFI 54640 .cfa: sp 32 +
STACK CFI 54648 .cfa: sp 0 +
STACK CFI 5464c .cfa: x29 32 +
STACK CFI INIT 54698 4d0 .cfa: sp 0 +
STACK CFI 5469c .cfa: sp 272 +
STACK CFI 546b0 .cfa: x29 64 + x19: .cfa -8 + ^ x20: .cfa -16 + ^ x21: .cfa -24 + ^ x22: .cfa -32 + ^ x23: .cfa -40 + ^ x28: .cfa -48 + ^ .ra: .cfa -56 + ^ x29: .cfa -64 + ^
STACK CFI 54a38 .cfa: sp 272 +
STACK CFI 54a4c .cfa: sp 0 +
STACK CFI 54a50 .cfa: x29 64 +
STACK CFI INIT 54cf8 80 .cfa: sp 0 +
STACK CFI 54cfc .cfa: sp 32 +
STACK CFI 54d04 .cfa: x29 32 + x19: .cfa -8 + ^ x20: .cfa -16 + ^ .ra: .cfa -24 + ^ x29: .cfa -32 + ^
STACK CFI 54d40 .cfa: sp 32 +
STACK CFI 54d48 .cfa: sp 0 +
STACK CFI 54d4c .cfa: x29 32 +
STACK CFI 54d58 .cfa: sp 32 +
STACK CFI 54d60 .cfa: sp 0 +
STACK CFI 54d64 .cfa: x29 32 +
STACK CFI INIT 54f10 80 .cfa: sp 0 +
STACK CFI 54f14 .cfa: sp 32 +
STACK CFI 54f1c .cfa: x29 32 + x19: .cfa -8 + ^ x20: .cfa -16 + ^ .ra: .cfa -24 + ^ x29: .cfa -32 + ^
STACK CFI 54f58 .cfa: sp 32 +
STACK CFI 54f60 .cfa: sp 0 +
STACK CFI 54f64 .cfa: x29 32 +
STACK CFI 54f70 .cfa: sp 32 +
STACK CFI 54f78 .cfa: sp 0 +
STACK CFI 54f7c .cfa: x29 32 +
STACK CFI INIT 550c8 170 .cfa: sp 0 +
STACK CFI 550cc .cfa: sp 160 +
STACK CFI 550dc .cfa: x29 48 + x19: .cfa -8 + ^ x20: .cfa -16 + ^ x21: .cfa -32 + ^ .ra: .cfa -40 + ^ x29: .cfa -48 + ^
STACK CFI 551dc .cfa: sp 160 +
STACK CFI 551ec .cfa: sp 0 +
STACK CFI 551f0 .cfa: x29 48 +
STACK CFI INIT 55238 4cc .cfa: sp 0 +
STACK CFI 5523c .cfa: sp 128 +
STACK CFI 55258 .cfa: x29 96 + x19: .cfa -8 + ^ x20: .cfa -16 + ^ x21: .cfa -24 + ^ x22: .cfa -32 + ^ x23: .cfa -40 + ^ x24: .cfa -48 + ^ x25: .cfa -56 + ^ x26: .cfa -64 + ^ x27: .cfa -72 + ^ x28: .cfa -80 + ^ .ra: .cfa -88 + ^ x29: .cfa -96 + ^
STACK CFI 556b4 .cfa: sp 128 +
STACK CFI 556d0 .cfa: sp 0 +
STACK CFI 556d4 .cfa: x29 96 +
STACK CFI INIT 55930 470 .cfa: sp 0 +
STACK CFI 55934 .cfa: sp 224 +
STACK CFI 55950 .cfa: x29 96 + x19: .cfa -8 + ^ x20: .cfa -16 + ^ x21: .cfa -24 + ^ x22: .cfa -32 + ^ x23: .cfa -40 + ^ x24: .cfa -48 + ^ x25: .cfa -56 + ^ x26: .cfa -64 + ^ x27: .cfa -80 + ^ .ra: .cfa -88 + ^ x29: .cfa -96 + ^
STACK CFI 55bac .cfa: sp 224 +
STACK CFI 55bc8 .cfa: sp 0 +
STACK CFI 55bcc .cfa: x29 96 +
STACK CFI 55c98 .cfa: sp 224 +
STACK CFI 55cb4 .cfa: sp 0 +
STACK CFI 55cb8 .cfa: x29 96 +
STACK CFI INIT 55dbc 374 .cfa: sp 0 +
STACK CFI 55dc0 .cfa: sp 240 +
STACK CFI 55dd4 .cfa: x29 64 + x19: .cfa -8 + ^ x20: .cfa -16 + ^ x21: .cfa -24 + ^ x22: .cfa -32 + ^ x23: .cfa -48 + ^ .ra: .cfa -56 + ^ x29: .cfa -64 + ^
STACK CFI 56004 .cfa: sp 240 +
STACK CFI 56018 .cfa: sp 0 +
STACK CFI 5601c .cfa: x29 64 +
STACK CFI INIT 56134 c8 .cfa: sp 0 +
STACK CFI 56138 .cfa: sp 64 +
STACK CFI 56144 .cfa: x29 32 + x19: .cfa -8 + ^ x20: .cfa -16 + ^ .ra: .cfa -24 + ^ x29: .cfa -32 + ^
STACK CFI 561bc .cfa: sp 64 +
STACK CFI 561c8 .cfa: sp 0 +
STACK CFI 561cc .cfa: x29 32 +
STACK CFI INIT 561fc 8a4 .cfa: sp 0 +
STACK CFI 56200 .cfa: sp 272 +
STACK CFI 5621c .cfa: x29 96 + x19: .cfa -8 + ^ x20: .cfa -16 + ^ x21: .cfa -24 + ^ x22: .cfa -32 + ^ x23: .cfa -40 + ^ x24: .cfa -48 + ^ x25: .cfa -56 + ^ x26: .cfa -64 + ^ x27: .cfa -72 + ^ x28: .cfa -80 + ^ .ra: .cfa -88 + ^ x29: .cfa -96 + ^
STACK CFI 563b0 .cfa: sp 272 +
STACK CFI 563cc .cfa: sp 0 +
STACK CFI 563d0 .cfa: x29 96 +
STACK CFI 56848 .cfa: sp 272 +
STACK CFI 56864 .cfa: sp 0 +
STACK CFI 56868 .cfa: x29 96 +
STACK CFI INIT 56abc 324 .cfa: sp 0 +
STACK CFI 56ac0 .cfa: sp 224 +
STACK CFI 56ad4 .cfa: x29 64 + x19: .cfa -8 + ^ x20: .cfa -16 + ^ x21: .cfa -24 + ^ x22: .cfa -32 + ^ x23: .cfa -48 + ^ .ra: .cfa -56 + ^ x29: .cfa -64 + ^
STACK CFI 56cc8 .cfa: sp 224 +
STACK CFI 56cdc .cfa: sp 0 +
STACK CFI 56ce0 .cfa: x29 64 +
STACK CFI INIT 56de4 110 .cfa: sp 0 +
STACK CFI 56de8 .cfa: sp 96 +
STACK CFI 56dfc .cfa: x29 64 + x19: .cfa -8 + ^ x20: .cfa -16 + ^ x21: .cfa -24 + ^ x22: .cfa -32 + ^ x23: .cfa -40 + ^ x24: .cfa -48 + ^ .ra: .cfa -56 + ^ x29: .cfa -64 + ^
STACK CFI 56e44 .cfa: sp 96 +
STACK CFI 56e58 .cfa: sp 0 +
STACK CFI 56e5c .cfa: x29 64 +
STACK CFI INIT 56f84 448 .cfa: sp 0 +
STACK CFI 56f88 .cfa: sp 144 +
STACK CFI 56fa0 .cfa: x29 80 + x19: .cfa -8 + ^ x20: .cfa -16 + ^ x21: .cfa -24 + ^ x22: .cfa -32 + ^ x23: .cfa -40 + ^ x24: .cfa -48 + ^ x25: .cfa -64 + ^ .ra: .cfa -72 + ^ x29: .cfa -80 + ^
STACK CFI 56fd0 .cfa: sp 144 +
STACK CFI 56fe8 .cfa: sp 0 +
STACK CFI 56fec .cfa: x29 80 +
STACK CFI 57360 .cfa: sp 144 +
STACK CFI 57378 .cfa: sp 0 +
STACK CFI 5737c .cfa: x29 80 +
STACK CFI INIT 573cc 190 .cfa: sp 0 +
STACK CFI 573d0 .cfa: sp 112 +
STACK CFI 573e0 .cfa: x29 48 + x19: .cfa -8 + ^ x20: .cfa -16 + ^ x21: .cfa -32 + ^ .ra: .cfa -40 + ^ x29: .cfa -48 + ^
STACK CFI 574b0 .cfa: sp 112 +
STACK CFI 574c0 .cfa: sp 0 +
STACK CFI 574c4 .cfa: x29 48 +
STACK CFI INIT 576a8 470 .cfa: sp 0 +
STACK CFI 576ac .cfa: sp 224 +
STACK CFI 576c8 .cfa: x29 96 + x19: .cfa -8 + ^ x20: .cfa -16 + ^ x21: .cfa -24 + ^ x22: .cfa -32 + ^ x23: .cfa -40 + ^ x24: .cfa -48 + ^ x25: .cfa -56 + ^ x26: .cfa -64 + ^ x27: .cfa -80 + ^ .ra: .cfa -88 + ^ x29: .cfa -96 + ^
STACK CFI 57924 .cfa: sp 224 +
STACK CFI 57940 .cfa: sp 0 +
STACK CFI 57944 .cfa: x29 96 +
STACK CFI 57a10 .cfa: sp 224 +
STACK CFI 57a2c .cfa: sp 0 +
STACK CFI 57a30 .cfa: x29 96 +
STACK CFI INIT 57b34 32c .cfa: sp 0 +
STACK CFI 57b38 .cfa: sp 240 +
STACK CFI 57b4c .cfa: x29 64 + x19: .cfa -8 + ^ x20: .cfa -16 + ^ x21: .cfa -24 + ^ x22: .cfa -32 + ^ x23: .cfa -48 + ^ .ra: .cfa -56 + ^ x29: .cfa -64 + ^
STACK CFI 57d48 .cfa: sp 240 +
STACK CFI 57d5c .cfa: sp 0 +
STACK CFI 57d60 .cfa: x29 64 +
STACK CFI INIT 5810c 8a8 .cfa: sp 0 +
STACK CFI 58110 .cfa: sp 240 +
STACK CFI 5812c .cfa: x29 96 + x19: .cfa -8 + ^ x20: .cfa -16 + ^ x21: .cfa -24 + ^ x22: .cfa -32 + ^ x23: .cfa -40 + ^ x24: .cfa -48 + ^ x25: .cfa -56 + ^ x26: .cfa -64 + ^ x27: .cfa -80 + ^ .ra: .cfa -88 + ^ x29: .cfa -96 + ^
STACK CFI 58280 .cfa: sp 240 +
STACK CFI 5829c .cfa: sp 0 +
STACK CFI 582a0 .cfa: x29 96 +
STACK CFI 58768 .cfa: sp 240 +
STACK CFI 58784 .cfa: sp 0 +
STACK CFI 58788 .cfa: x29 96 +
STACK CFI INIT 589d0 2f4 .cfa: sp 0 +
STACK CFI 589d4 .cfa: sp 176 +
STACK CFI 589e8 .cfa: x29 64 + x19: .cfa -8 + ^ x20: .cfa -16 + ^ x21: .cfa -24 + ^ x22: .cfa -32 + ^ x23: .cfa -48 + ^ .ra: .cfa -56 + ^ x29: .cfa -64 + ^
STACK CFI 58bbc .cfa: sp 176 +
STACK CFI 58bd0 .cfa: sp 0 +
STACK CFI 58bd4 .cfa: x29 64 +
STACK CFI INIT 58cc8 2ec .cfa: sp 0 +
STACK CFI 58ccc .cfa: sp 160 +
STACK CFI 58ce0 .cfa: x29 64 + x19: .cfa -8 + ^ x20: .cfa -16 + ^ x21: .cfa -24 + ^ x22: .cfa -32 + ^ x23: .cfa -48 + ^ .ra: .cfa -56 + ^ x29: .cfa -64 + ^
STACK CFI 58ed4 .cfa: sp 160 +
STACK CFI 58ee8 .cfa: sp 0 +
STACK CFI 58eec .cfa: x29 64 +
STACK CFI INIT 58fb4 74 .cfa: sp 0 +
STACK CFI 58fb8 .cfa: sp 48 +
STACK CFI 58fc4 .cfa: x29 32 + x19: .cfa -8 + ^ x20: .cfa -16 + ^ .ra: .cfa -24 + ^ x29: .cfa -32 + ^
STACK CFI 59010 .cfa: sp 48 +
STACK CFI 5901c .cfa: sp 0 +
STACK CFI 59020 .cfa: x29 32 +
STACK CFI INIT 591d4 a8 .cfa: sp 0 +
STACK CFI 591d8 .cfa: sp 32 +
STACK CFI 591e0 .cfa: x29 32 + x19: .cfa -16 + ^ .ra: .cfa -24 + ^ x29: .cfa -32 + ^
STACK CFI 59214 .cfa: sp 32 +
STACK CFI 5921c .cfa: sp 0 +
STACK CFI 59220 .cfa: x29 32 +
STACK CFI 59224 .cfa: sp 32 +
STACK CFI 5922c .cfa: sp 0 +
STACK CFI 59230 .cfa: x29 32 +
STACK CFI INIT 59318 8b8 .cfa: sp 0 +
STACK CFI 5931c .cfa: sp 272 +
STACK CFI 59338 .cfa: x29 96 + x19: .cfa -8 + ^ x20: .cfa -16 + ^ x21: .cfa -24 + ^ x22: .cfa -32 + ^ x23: .cfa -40 + ^ x24: .cfa -48 + ^ x25: .cfa -56 + ^ x26: .cfa -64 + ^ x27: .cfa -72 + ^ x28: .cfa -80 + ^ .ra: .cfa -88 + ^ x29: .cfa -96 + ^
STACK CFI 594e0 .cfa: sp 272 +
STACK CFI 594fc .cfa: sp 0 +
STACK CFI 59500 .cfa: x29 96 +
STACK CFI 59978 .cfa: sp 272 +
STACK CFI 59994 .cfa: sp 0 +
STACK CFI 59998 .cfa: x29 96 +
STACK CFI INIT 59bec 1844 .cfa: sp 0 +
STACK CFI 59bf0 .cfa: sp 288 +
STACK CFI 59c0c .cfa: x29 96 + x19: .cfa -8 + ^ x20: .cfa -16 + ^ x21: .cfa -24 + ^ x22: .cfa -32 + ^ x23: .cfa -40 + ^ x24: .cfa -48 + ^ x25: .cfa -56 + ^ x26: .cfa -64 + ^ x27: .cfa -72 + ^ x28: .cfa -80 + ^ .ra: .cfa -88 + ^ x29: .cfa -96 + ^
STACK CFI 5adc4 .cfa: sp 288 +
STACK CFI 5ade0 .cfa: sp 0 +
STACK CFI 5ade4 .cfa: x29 96 +
STACK CFI INIT 5b434 110 .cfa: sp 0 +
STACK CFI 5b438 .cfa: sp 96 +
STACK CFI 5b44c .cfa: x29 64 + x19: .cfa -8 + ^ x20: .cfa -16 + ^ x21: .cfa -24 + ^ x22: .cfa -32 + ^ x23: .cfa -40 + ^ x24: .cfa -48 + ^ .ra: .cfa -56 + ^ x29: .cfa -64 + ^
STACK CFI 5b494 .cfa: sp 96 +
STACK CFI 5b4a8 .cfa: sp 0 +
STACK CFI 5b4ac .cfa: x29 64 +
STACK CFI INIT 5b5d0 184 .cfa: sp 0 +
STACK CFI 5b5d4 .cfa: sp 144 +
STACK CFI 5b5ec .cfa: x29 80 + x19: .cfa -8 + ^ x20: .cfa -16 + ^ x21: .cfa -24 + ^ x22: .cfa -32 + ^ x23: .cfa -40 + ^ x24: .cfa -48 + ^ x25: .cfa -56 + ^ x26: .cfa -64 + ^ .ra: .cfa -72 + ^ x29: .cfa -80 + ^
STACK CFI 5b6ec .cfa: sp 144 +
STACK CFI 5b704 .cfa: sp 0 +
STACK CFI 5b708 .cfa: x29 80 +
STACK CFI INIT 5b7e8 4f4 .cfa: sp 0 +
STACK CFI 5b7ec .cfa: sp 224 +
STACK CFI 5b800 .cfa: x29 48 + x19: .cfa -8 + ^ x20: .cfa -16 + ^ x21: .cfa -24 + ^ x22: .cfa -32 + ^ .ra: .cfa -40 + ^ x29: .cfa -48 + ^ v8: .cfa -56 + ^ v9: .cfa -64 + ^
STACK CFI 5b850 .cfa: sp 224 +
STACK CFI 5b864 .cfa: sp 0 +
STACK CFI 5b868 .cfa: x29 48 +
STACK CFI 5b9a0 .cfa: sp 224 +
STACK CFI 5b9b4 .cfa: sp 0 +
STACK CFI 5b9b8 .cfa: x29 48 +
STACK CFI INIT 5bd2c 104 .cfa: sp 0 +
STACK CFI 5bd30 .cfa: sp 80 +
STACK CFI 5bd40 .cfa: x29 48 + x19: .cfa -8 + ^ x20: .cfa -16 + ^ x21: .cfa -32 + ^ .ra: .cfa -40 + ^ x29: .cfa -48 + ^
STACK CFI 5bd74 .cfa: sp 80 +
STACK CFI 5bd84 .cfa: sp 0 +
STACK CFI 5bd88 .cfa: x29 48 +
STACK CFI 5bdec .cfa: sp 80 +
STACK CFI 5bdfc .cfa: sp 0 +
STACK CFI 5be00 .cfa: x29 48 +
STACK CFI INIT 5be58 104 .cfa: sp 0 +
STACK CFI 5be5c .cfa: sp 80 +
STACK CFI 5be6c .cfa: x29 48 + x19: .cfa -8 + ^ x20: .cfa -16 + ^ x21: .cfa -32 + ^ .ra: .cfa -40 + ^ x29: .cfa -48 + ^
STACK CFI 5bea0 .cfa: sp 80 +
STACK CFI 5beb0 .cfa: sp 0 +
STACK CFI 5beb4 .cfa: x29 48 +
STACK CFI 5bf18 .cfa: sp 80 +
STACK CFI 5bf28 .cfa: sp 0 +
STACK CFI 5bf2c .cfa: x29 48 +
STACK CFI INIT 5bfac 134 .cfa: sp 0 +
STACK CFI 5bfb0 .cfa: sp 64 +
STACK CFI 5bfbc .cfa: x29 32 + x19: .cfa -8 + ^ x20: .cfa -16 + ^ .ra: .cfa -24 + ^ x29: .cfa -32 + ^
STACK CFI 5c058 .cfa: sp 64 +
STACK CFI 5c064 .cfa: sp 0 +
STACK CFI 5c068 .cfa: x29 32 +
STACK CFI 5c07c .cfa: sp 64 +
STACK CFI 5c088 .cfa: sp 0 +
STACK CFI 5c08c .cfa: x29 32 +
STACK CFI 5c0a0 .cfa: sp 64 +
STACK CFI 5c0ac .cfa: sp 0 +
STACK CFI 5c0b0 .cfa: x29 32 +
STACK CFI INIT 5c0e0 28c .cfa: sp 0 +
STACK CFI 5c0e4 .cfa: sp 208 +
STACK CFI 5c0f8 .cfa: x29 64 + x19: .cfa -8 + ^ x20: .cfa -16 + ^ x21: .cfa -24 + ^ x22: .cfa -32 + ^ x23: .cfa -48 + ^ .ra: .cfa -56 + ^ x29: .cfa -64 + ^
STACK CFI 5c2c8 .cfa: sp 208 +
STACK CFI 5c2dc .cfa: sp 0 +
STACK CFI 5c2e0 .cfa: x29 64 +
STACK CFI INIT 5c36c 8b4 .cfa: sp 0 +
STACK CFI 5c370 .cfa: sp 272 +
STACK CFI 5c38c .cfa: x29 96 + x19: .cfa -8 + ^ x20: .cfa -16 + ^ x21: .cfa -24 + ^ x22: .cfa -32 + ^ x23: .cfa -40 + ^ x24: .cfa -48 + ^ x25: .cfa -56 + ^ x26: .cfa -64 + ^ x27: .cfa -72 + ^ x28: .cfa -80 + ^ .ra: .cfa -88 + ^ x29: .cfa -96 + ^
STACK CFI 5c530 .cfa: sp 272 +
STACK CFI 5c54c .cfa: sp 0 +
STACK CFI 5c550 .cfa: x29 96 +
STACK CFI 5c9c8 .cfa: sp 272 +
STACK CFI 5c9e4 .cfa: sp 0 +
STACK CFI 5c9e8 .cfa: x29 96 +
STACK CFI INIT 5cc3c 62c .cfa: sp 0 +
STACK CFI 5cc40 .cfa: sp 288 +
STACK CFI 5cc5c .cfa: x29 96 + x19: .cfa -8 + ^ x20: .cfa -16 + ^ x21: .cfa -24 + ^ x22: .cfa -32 + ^ x23: .cfa -40 + ^ x24: .cfa -48 + ^ x25: .cfa -56 + ^ x26: .cfa -64 + ^ x28: .cfa -80 + ^ .ra: .cfa -88 + ^ x29: .cfa -96 + ^
STACK CFI 5d090 .cfa: sp 288 +
STACK CFI 5d0ac .cfa: sp 0 +
STACK CFI 5d0b0 .cfa: x29 96 +
STACK CFI INIT 5d26c 110 .cfa: sp 0 +
STACK CFI 5d270 .cfa: sp 96 +
STACK CFI 5d284 .cfa: x29 64 + x19: .cfa -8 + ^ x20: .cfa -16 + ^ x21: .cfa -24 + ^ x22: .cfa -32 + ^ x23: .cfa -40 + ^ x24: .cfa -48 + ^ .ra: .cfa -56 + ^ x29: .cfa -64 + ^
STACK CFI 5d2cc .cfa: sp 96 +
STACK CFI 5d2e0 .cfa: sp 0 +
STACK CFI 5d2e4 .cfa: x29 64 +
STACK CFI INIT 5d408 12c .cfa: sp 0 +
STACK CFI 5d40c .cfa: sp 80 +
STACK CFI 5d41c .cfa: x29 48 + x19: .cfa -8 + ^ x20: .cfa -16 + ^ x21: .cfa -32 + ^ .ra: .cfa -40 + ^ x29: .cfa -48 + ^
STACK CFI 5d4f0 .cfa: sp 80 +
STACK CFI 5d500 .cfa: sp 0 +
STACK CFI 5d504 .cfa: x29 48 +
STACK CFI INIT 5d534 1e0 .cfa: sp 0 +
STACK CFI 5d538 .cfa: sp 128 +
STACK CFI 5d54c .cfa: x29 64 + x19: .cfa -8 + ^ x20: .cfa -16 + ^ x21: .cfa -24 + ^ x22: .cfa -32 + ^ x23: .cfa -48 + ^ .ra: .cfa -56 + ^ x29: .cfa -64 + ^
STACK CFI 5d694 .cfa: sp 128 +
STACK CFI 5d6a8 .cfa: sp 0 +
STACK CFI 5d6ac .cfa: x29 64 +
STACK CFI INIT 5d714 630 .cfa: sp 0 +
STACK CFI 5d718 .cfa: sp 144 +
STACK CFI 5d730 .cfa: x29 80 + x19: .cfa -8 + ^ x20: .cfa -16 + ^ x21: .cfa -24 + ^ x22: .cfa -32 + ^ x23: .cfa -40 + ^ x24: .cfa -48 + ^ x25: .cfa -64 + ^ .ra: .cfa -72 + ^ x29: .cfa -80 + ^
STACK CFI 5dc24 .cfa: sp 144 +
STACK CFI 5dc3c .cfa: sp 0 +
STACK CFI 5dc40 .cfa: x29 80 +
STACK CFI INIT 5dd44 fc .cfa: sp 0 +
STACK CFI 5dd48 .cfa: sp 80 +
STACK CFI 5dd58 .cfa: x29 48 + x19: .cfa -8 + ^ x20: .cfa -16 + ^ x21: .cfa -24 + ^ x22: .cfa -32 + ^ .ra: .cfa -40 + ^ x29: .cfa -48 + ^
STACK CFI 5ddfc .cfa: sp 80 +
STACK CFI 5de0c .cfa: sp 0 +
STACK CFI 5de10 .cfa: x29 48 +
STACK CFI INIT 5deb0 470 .cfa: sp 0 +
STACK CFI 5deb4 .cfa: sp 224 +
STACK CFI 5ded0 .cfa: x29 96 + x19: .cfa -8 + ^ x20: .cfa -16 + ^ x21: .cfa -24 + ^ x22: .cfa -32 + ^ x23: .cfa -40 + ^ x24: .cfa -48 + ^ x25: .cfa -56 + ^ x26: .cfa -64 + ^ x27: .cfa -80 + ^ .ra: .cfa -88 + ^ x29: .cfa -96 + ^
STACK CFI 5e12c .cfa: sp 224 +
STACK CFI 5e148 .cfa: sp 0 +
STACK CFI 5e14c .cfa: x29 96 +
STACK CFI 5e218 .cfa: sp 224 +
STACK CFI 5e234 .cfa: sp 0 +
STACK CFI 5e238 .cfa: x29 96 +
STACK CFI INIT 5e33c 3bc .cfa: sp 0 +
STACK CFI 5e340 .cfa: sp 256 +
STACK CFI 5e354 .cfa: x29 64 + x19: .cfa -8 + ^ x20: .cfa -16 + ^ x21: .cfa -24 + ^ x22: .cfa -32 + ^ x23: .cfa -48 + ^ .ra: .cfa -56 + ^ x29: .cfa -64 + ^
STACK CFI 5e5c0 .cfa: sp 256 +
STACK CFI 5e5d4 .cfa: sp 0 +
STACK CFI 5e5d8 .cfa: x29 64 +
STACK CFI INIT 5e6fc c8 .cfa: sp 0 +
STACK CFI 5e700 .cfa: sp 64 +
STACK CFI 5e70c .cfa: x29 32 + x19: .cfa -8 + ^ x20: .cfa -16 + ^ .ra: .cfa -24 + ^ x29: .cfa -32 + ^
STACK CFI 5e784 .cfa: sp 64 +
STACK CFI 5e790 .cfa: sp 0 +
STACK CFI 5e794 .cfa: x29 32 +
STACK CFI INIT 5e8b0 a78 .cfa: sp 0 +
STACK CFI 5e8b4 .cfa: sp 336 +
STACK CFI 5e8d0 .cfa: x29 96 + x19: .cfa -8 + ^ x20: .cfa -16 + ^ x21: .cfa -24 + ^ x22: .cfa -32 + ^ x23: .cfa -40 + ^ x24: .cfa -48 + ^ x25: .cfa -56 + ^ x26: .cfa -64 + ^ x27: .cfa -72 + ^ x28: .cfa -80 + ^ .ra: .cfa -88 + ^ x29: .cfa -96 + ^
STACK CFI 5f110 .cfa: sp 336 +
STACK CFI 5f12c .cfa: sp 0 +
STACK CFI 5f130 .cfa: x29 96 +
STACK CFI INIT 5f4b8 b64 .cfa: sp 0 +
STACK CFI 5f4bc .cfa: sp 304 +
STACK CFI 5f4d4 .cfa: x29 80 + x19: .cfa -8 + ^ x20: .cfa -16 + ^ x21: .cfa -24 + ^ x22: .cfa -32 + ^ x23: .cfa -40 + ^ x24: .cfa -48 + ^ x25: .cfa -56 + ^ x28: .cfa -64 + ^ .ra: .cfa -72 + ^ x29: .cfa -80 + ^
STACK CFI 5fd04 .cfa: sp 304 +
STACK CFI 5fd1c .cfa: sp 0 +
STACK CFI 5fd20 .cfa: x29 80 +
STACK CFI INIT 6001c 568 .cfa: sp 0 +
STACK CFI 60020 .cfa: sp 176 +
STACK CFI 60030 .cfa: x29 48 + x19: .cfa -8 + ^ x20: .cfa -16 + ^ x21: .cfa -24 + ^ x22: .cfa -32 + ^ .ra: .cfa -40 + ^ x29: .cfa -48 + ^
STACK CFI 60398 .cfa: sp 176 +
STACK CFI 603a8 .cfa: sp 0 +
STACK CFI 603ac .cfa: x29 48 +
STACK CFI INIT 60584 804 .cfa: sp 0 +
STACK CFI 60588 .cfa: sp 240 +
STACK CFI 605a4 .cfa: x29 96 + x19: .cfa -8 + ^ x20: .cfa -16 + ^ x21: .cfa -24 + ^ x22: .cfa -32 + ^ x23: .cfa -40 + ^ x24: .cfa -48 + ^ x25: .cfa -56 + ^ x26: .cfa -64 + ^ x27: .cfa -72 + ^ x28: .cfa -80 + ^ .ra: .cfa -88 + ^ x29: .cfa -96 + ^
STACK CFI 60be0 .cfa: sp 240 +
STACK CFI 60bfc .cfa: sp 0 +
STACK CFI 60c00 .cfa: x29 96 +
STACK CFI INIT 60d88 1088 .cfa: sp 0 +
STACK CFI 60d8c .cfa: sp 336 +
STACK CFI 60da8 .cfa: x29 96 + x19: .cfa -8 + ^ x20: .cfa -16 + ^ x21: .cfa -24 + ^ x22: .cfa -32 + ^ x23: .cfa -40 + ^ x24: .cfa -48 + ^ x25: .cfa -56 + ^ x26: .cfa -64 + ^ x27: .cfa -72 + ^ x28: .cfa -80 + ^ .ra: .cfa -88 + ^ x29: .cfa -96 + ^
STACK CFI 61c10 .cfa: sp 336 +
STACK CFI 61c2c .cfa: sp 0 +
STACK CFI 61c30 .cfa: x29 96 +
STACK CFI INIT 625cc 188 .cfa: sp 0 +
STACK CFI 625d0 .cfa: sp 160 +
STACK CFI 625e8 .cfa: x29 80 + x19: .cfa -8 + ^ x20: .cfa -16 + ^ x21: .cfa -24 + ^ x22: .cfa -32 + ^ x23: .cfa -40 + ^ x24: .cfa -48 + ^ x25: .cfa -56 + ^ x26: .cfa -64 + ^ .ra: .cfa -72 + ^ x29: .cfa -80 + ^
STACK CFI 626f0 .cfa: sp 160 +
STACK CFI 62708 .cfa: sp 0 +
STACK CFI 6270c .cfa: x29 80 +
STACK CFI INIT 62754 1cc .cfa: sp 0 +
STACK CFI 62758 .cfa: sp 96 +
STACK CFI 6276c .cfa: x29 64 + x19: .cfa -8 + ^ x20: .cfa -16 + ^ x21: .cfa -24 + ^ x22: .cfa -32 + ^ x23: .cfa -48 + ^ .ra: .cfa -56 + ^ x29: .cfa -64 + ^
STACK CFI 628f0 .cfa: sp 96 +
STACK CFI 62904 .cfa: sp 0 +
STACK CFI 62908 .cfa: x29 64 +
STACK CFI INIT 62920 114 .cfa: sp 0 +
STACK CFI 62924 .cfa: sp 32 +
STACK CFI 6292c .cfa: x29 32 + x19: .cfa -8 + ^ x20: .cfa -16 + ^ .ra: .cfa -24 + ^ x29: .cfa -32 + ^
STACK CFI 62988 .cfa: sp 32 +
STACK CFI 62990 .cfa: sp 0 +
STACK CFI 62994 .cfa: x29 32 +
STACK CFI 629dc .cfa: sp 32 +
STACK CFI 629e4 .cfa: sp 0 +
STACK CFI 629e8 .cfa: x29 32 +
STACK CFI INIT 62ca0 21d0 .cfa: sp 0 +
STACK CFI 62ca4 .cfa: sp 96 +
STACK CFI 62cbc .cfa: x29 96 + x19: .cfa -8 + ^ x20: .cfa -16 + ^ x21: .cfa -24 + ^ x22: .cfa -32 + ^ x23: .cfa -40 + ^ x24: .cfa -48 + ^ x25: .cfa -56 + ^ x26: .cfa -64 + ^ x27: .cfa -72 + ^ x28: .cfa -80 + ^ .ra: .cfa -88 + ^ x29: .cfa -96 + ^
STACK CFI 64818 .cfa: sp 96 +
STACK CFI 64830 .cfa: sp 0 +
STACK CFI 64834 .cfa: x29 96 +
STACK CFI INIT 64f64 1ce4 .cfa: sp 0 +
STACK CFI 64f68 .cfa: sp 96 +
STACK CFI 64f80 .cfa: x29 96 + x19: .cfa -8 + ^ x20: .cfa -16 + ^ x21: .cfa -24 + ^ x22: .cfa -32 + ^ x23: .cfa -40 + ^ x24: .cfa -48 + ^ x25: .cfa -56 + ^ x26: .cfa -64 + ^ x27: .cfa -72 + ^ x28: .cfa -80 + ^ .ra: .cfa -88 + ^ x29: .cfa -96 + ^
STACK CFI 66714 .cfa: sp 96 +
STACK CFI 6672c .cfa: sp 0 +
STACK CFI 66730 .cfa: x29 96 +
STACK CFI INIT 66c48 4c0 .cfa: sp 0 +
STACK CFI 66c4c .cfa: sp 384 +
STACK CFI 66c68 .cfa: x29 96 + x19: .cfa -8 + ^ x20: .cfa -16 + ^ x21: .cfa -24 + ^ x22: .cfa -32 + ^ x23: .cfa -40 + ^ x24: .cfa -48 + ^ x25: .cfa -56 + ^ x26: .cfa -64 + ^ x27: .cfa -72 + ^ x28: .cfa -80 + ^ .ra: .cfa -88 + ^ x29: .cfa -96 + ^
STACK CFI 66f74 .cfa: sp 384 +
STACK CFI 66f90 .cfa: sp 0 +
STACK CFI 66f94 .cfa: x29 96 +
STACK CFI INIT 67108 2e4 .cfa: sp 0 +
STACK CFI 6710c .cfa: sp 224 +
STACK CFI 67128 .cfa: x29 96 + x19: .cfa -8 + ^ x20: .cfa -16 + ^ x21: .cfa -24 + ^ x22: .cfa -32 + ^ x23: .cfa -40 + ^ x24: .cfa -48 + ^ x25: .cfa -56 + ^ x26: .cfa -64 + ^ x27: .cfa -72 + ^ x28: .cfa -80 + ^ .ra: .cfa -88 + ^ x29: .cfa -96 + ^
STACK CFI 6733c .cfa: sp 224 +
STACK CFI 67358 .cfa: sp 0 +
STACK CFI 6735c .cfa: x29 96 +
STACK CFI INIT 67428 3a0 .cfa: sp 0 +
STACK CFI 6742c .cfa: sp 80 +
STACK CFI 67440 .cfa: x29 80 + x19: .cfa -8 + ^ x20: .cfa -16 + ^ x21: .cfa -24 + ^ x22: .cfa -32 + ^ x23: .cfa -40 + ^ x24: .cfa -48 + ^ x25: .cfa -56 + ^ x28: .cfa -64 + ^ .ra: .cfa -72 + ^ x29: .cfa -80 + ^
STACK CFI 67718 .cfa: sp 80 +
STACK CFI 6772c .cfa: sp 0 +
STACK CFI 67730 .cfa: x29 80 +
STACK CFI INIT 67e3c 1328 .cfa: sp 0 +
STACK CFI 67e40 .cfa: sp 288 +
STACK CFI 67e5c .cfa: x29 96 + x19: .cfa -8 + ^ x20: .cfa -16 + ^ x21: .cfa -24 + ^ x22: .cfa -32 + ^ x23: .cfa -40 + ^ x24: .cfa -48 + ^ x25: .cfa -56 + ^ x26: .cfa -64 + ^ x27: .cfa -72 + ^ x28: .cfa -80 + ^ .ra: .cfa -88 + ^ x29: .cfa -96 + ^
STACK CFI 688fc .cfa: sp 288 +
STACK CFI 68918 .cfa: sp 0 +
STACK CFI 6891c .cfa: x29 96 +
STACK CFI 69098 .cfa: sp 288 +
STACK CFI 690b4 .cfa: sp 0 +
STACK CFI 690b8 .cfa: x29 96 +
STACK CFI INIT 69164 574 .cfa: sp 0 +
STACK CFI 69168 .cfa: sp 96 +
STACK CFI 69180 .cfa: x29 96 + x19: .cfa -8 + ^ x20: .cfa -16 + ^ x21: .cfa -24 + ^ x22: .cfa -32 + ^ x23: .cfa -40 + ^ x24: .cfa -48 + ^ x25: .cfa -56 + ^ x26: .cfa -64 + ^ x27: .cfa -72 + ^ x28: .cfa -80 + ^ .ra: .cfa -88 + ^ x29: .cfa -96 + ^
STACK CFI 69670 .cfa: sp 96 +
STACK CFI 69688 .cfa: sp 0 +
STACK CFI 6968c .cfa: x29 96 +
STACK CFI INIT 699a8 344 .cfa: sp 0 +
STACK CFI 699ac .cfa: sp 128 +
STACK CFI 699c8 .cfa: x29 96 + x19: .cfa -8 + ^ x20: .cfa -16 + ^ x21: .cfa -24 + ^ x22: .cfa -32 + ^ x23: .cfa -40 + ^ x24: .cfa -48 + ^ x25: .cfa -56 + ^ x26: .cfa -64 + ^ x27: .cfa -72 + ^ x28: .cfa -80 + ^ .ra: .cfa -88 + ^ x29: .cfa -96 + ^
STACK CFI 69c40 .cfa: sp 128 +
STACK CFI 69c5c .cfa: sp 0 +
STACK CFI 69c60 .cfa: x29 96 +
STACK CFI INIT 69e1c 16c .cfa: sp 0 +
STACK CFI 69e20 .cfa: sp 144 +
STACK CFI 69e34 .cfa: x29 64 + x19: .cfa -8 + ^ x20: .cfa -16 + ^ x21: .cfa -24 + ^ x22: .cfa -32 + ^ x23: .cfa -40 + ^ x24: .cfa -48 + ^ .ra: .cfa -56 + ^ x29: .cfa -64 + ^
STACK CFI 69f1c .cfa: sp 144 +
STACK CFI 69f30 .cfa: sp 0 +
STACK CFI 69f34 .cfa: x29 64 +
STACK CFI INIT 6a0b0 1d8 .cfa: sp 0 +
STACK CFI 6a0b4 .cfa: sp 128 +
STACK CFI 6a0d0 .cfa: x29 96 + x19: .cfa -8 + ^ x20: .cfa -16 + ^ x21: .cfa -24 + ^ x22: .cfa -32 + ^ x23: .cfa -40 + ^ x24: .cfa -48 + ^ x25: .cfa -56 + ^ x26: .cfa -64 + ^ x27: .cfa -72 + ^ x28: .cfa -80 + ^ .ra: .cfa -88 + ^ x29: .cfa -96 + ^
STACK CFI 6a240 .cfa: sp 128 +
STACK CFI 6a25c .cfa: sp 0 +
STACK CFI 6a260 .cfa: x29 96 +
STACK CFI INIT 6a288 2e0 .cfa: sp 0 +
STACK CFI 6a28c .cfa: sp 112 +
STACK CFI 6a2a4 .cfa: x29 80 + x19: .cfa -8 + ^ x20: .cfa -16 + ^ x21: .cfa -24 + ^ x22: .cfa -32 + ^ x23: .cfa -40 + ^ x24: .cfa -48 + ^ x25: .cfa -64 + ^ .ra: .cfa -72 + ^ x29: .cfa -80 + ^
STACK CFI 6a458 .cfa: sp 112 +
STACK CFI 6a470 .cfa: sp 0 +
STACK CFI 6a474 .cfa: x29 80 +
STACK CFI INIT 6a6b4 448 .cfa: sp 0 +
STACK CFI 6a6b8 .cfa: sp 208 +
STACK CFI 6a6d4 .cfa: x29 96 + x19: .cfa -8 + ^ x20: .cfa -16 + ^ x21: .cfa -24 + ^ x22: .cfa -32 + ^ x23: .cfa -40 + ^ x24: .cfa -48 + ^ x25: .cfa -56 + ^ x26: .cfa -64 + ^ x27: .cfa -72 + ^ x28: .cfa -80 + ^ .ra: .cfa -88 + ^ x29: .cfa -96 + ^
STACK CFI 6aa20 .cfa: sp 208 +
STACK CFI 6aa3c .cfa: sp 0 +
STACK CFI 6aa40 .cfa: x29 96 +
STACK CFI INIT 6ad50 710 .cfa: sp 0 +
STACK CFI 6ad54 .cfa: sp 96 +
STACK CFI 6ad6c .cfa: x29 96 + x19: .cfa -8 + ^ x20: .cfa -16 + ^ x21: .cfa -24 + ^ x22: .cfa -32 + ^ x23: .cfa -40 + ^ x24: .cfa -48 + ^ x25: .cfa -56 + ^ x26: .cfa -64 + ^ x27: .cfa -80 + ^ .ra: .cfa -88 + ^ x29: .cfa -96 + ^
STACK CFI 6b0c0 .cfa: sp 96 +
STACK CFI 6b0d8 .cfa: sp 0 +
STACK CFI 6b0dc .cfa: x29 96 +
STACK CFI 6b2fc .cfa: sp 96 +
STACK CFI 6b314 .cfa: sp 0 +
STACK CFI 6b318 .cfa: x29 96 +
STACK CFI INIT 6b57c b4 .cfa: sp 0 +
STACK CFI 6b580 .cfa: sp 48 +
STACK CFI 6b58c .cfa: x29 48 + x19: .cfa -8 + ^ x20: .cfa -16 + ^ x21: .cfa -32 + ^ .ra: .cfa -40 + ^ x29: .cfa -48 + ^
STACK CFI 6b5f0 .cfa: sp 48 +
STACK CFI 6b5fc .cfa: sp 0 +
STACK CFI 6b600 .cfa: x29 48 +
STACK CFI INIT 6b630 a0 .cfa: sp 0 +
STACK CFI 6b634 .cfa: sp 48 +
STACK CFI 6b640 .cfa: x29 48 + x19: .cfa -8 + ^ x20: .cfa -16 + ^ x21: .cfa -32 + ^ .ra: .cfa -40 + ^ x29: .cfa -48 + ^
STACK CFI 6b688 .cfa: sp 48 +
STACK CFI 6b694 .cfa: sp 0 +
STACK CFI 6b698 .cfa: x29 48 +
STACK CFI 6b6ac .cfa: sp 48 +
STACK CFI 6b6b8 .cfa: sp 0 +
STACK CFI 6b6bc .cfa: x29 48 +
STACK CFI INIT 6b7d4 1964 .cfa: sp 0 +
STACK CFI 6b7d8 .cfa: sp 128 +
STACK CFI 6b7f8 .cfa: x29 96 + x19: .cfa -8 + ^ x20: .cfa -16 + ^ x21: .cfa -24 + ^ x22: .cfa -32 + ^ x23: .cfa -40 + ^ x24: .cfa -48 + ^ x25: .cfa -56 + ^ x26: .cfa -64 + ^ x27: .cfa -72 + ^ x28: .cfa -80 + ^ .ra: .cfa -88 + ^ x29: .cfa -96 + ^ v8: .cfa -104 + ^ v9: .cfa -112 + ^ v10: .cfa -128 + ^
STACK CFI 6cc44 .cfa: sp 128 +
STACK CFI 6cc64 .cfa: sp 0 +
STACK CFI 6cc68 .cfa: x29 96 +
STACK CFI INIT 6d160 eb0 .cfa: sp 0 +
STACK CFI 6d164 .cfa: sp 96 +
STACK CFI 6d17c .cfa: x29 96 + x19: .cfa -8 + ^ x20: .cfa -16 + ^ x21: .cfa -24 + ^ x22: .cfa -32 + ^ x23: .cfa -40 + ^ x24: .cfa -48 + ^ x25: .cfa -56 + ^ x26: .cfa -64 + ^ x27: .cfa -72 + ^ x28: .cfa -80 + ^ .ra: .cfa -88 + ^ x29: .cfa -96 + ^
STACK CFI 6debc .cfa: sp 96 +
STACK CFI 6ded4 .cfa: sp 0 +
STACK CFI 6ded8 .cfa: x29 96 +
STACK CFI INIT 70c08 b4 .cfa: sp 0 +
STACK CFI 70c0c .cfa: sp 48 +
STACK CFI 70c18 .cfa: x29 48 + x19: .cfa -8 + ^ x20: .cfa -16 + ^ x21: .cfa -32 + ^ .ra: .cfa -40 + ^ x29: .cfa -48 + ^
STACK CFI 70c7c .cfa: sp 48 +
STACK CFI 70c88 .cfa: sp 0 +
STACK CFI 70c8c .cfa: x29 48 +
STACK CFI INIT 70cbc a0 .cfa: sp 0 +
STACK CFI 70cc0 .cfa: sp 48 +
STACK CFI 70ccc .cfa: x29 48 + x19: .cfa -8 + ^ x20: .cfa -16 + ^ x21: .cfa -32 + ^ .ra: .cfa -40 + ^ x29: .cfa -48 + ^
STACK CFI 70d14 .cfa: sp 48 +
STACK CFI 70d20 .cfa: sp 0 +
STACK CFI 70d24 .cfa: x29 48 +
STACK CFI 70d38 .cfa: sp 48 +
STACK CFI 70d44 .cfa: sp 0 +
STACK CFI 70d48 .cfa: x29 48 +
STACK CFI INIT 70e60 19f8 .cfa: sp 0 +
STACK CFI 70e64 .cfa: sp 480 +
STACK CFI 70e84 .cfa: x29 96 + x19: .cfa -8 + ^ x20: .cfa -16 + ^ x21: .cfa -24 + ^ x22: .cfa -32 + ^ x23: .cfa -40 + ^ x24: .cfa -48 + ^ x25: .cfa -56 + ^ x26: .cfa -64 + ^ x27: .cfa -72 + ^ x28: .cfa -80 + ^ .ra: .cfa -88 + ^ x29: .cfa -96 + ^ v8: .cfa -112 + ^
STACK CFI 72228 .cfa: sp 480 +
STACK CFI 72248 .cfa: sp 0 +
STACK CFI 7224c .cfa: x29 96 +
STACK CFI INIT 72880 1c8 .cfa: sp 0 +
STACK CFI 72884 .cfa: sp 160 +
STACK CFI 7289c .cfa: x29 80 + x19: .cfa -8 + ^ x20: .cfa -16 + ^ x21: .cfa -24 + ^ x22: .cfa -32 + ^ x23: .cfa -40 + ^ x24: .cfa -48 + ^ x25: .cfa -64 + ^ .ra: .cfa -72 + ^ x29: .cfa -80 + ^
STACK CFI 729e8 .cfa: sp 160 +
STACK CFI 72a00 .cfa: sp 0 +
STACK CFI 72a04 .cfa: x29 80 +
STACK CFI INIT 72b64 b4 .cfa: sp 0 +
STACK CFI 72b68 .cfa: sp 48 +
STACK CFI 72b74 .cfa: x29 48 + x19: .cfa -8 + ^ x20: .cfa -16 + ^ x21: .cfa -32 + ^ .ra: .cfa -40 + ^ x29: .cfa -48 + ^
STACK CFI 72bd8 .cfa: sp 48 +
STACK CFI 72be4 .cfa: sp 0 +
STACK CFI 72be8 .cfa: x29 48 +
STACK CFI INIT 72c18 a0 .cfa: sp 0 +
STACK CFI 72c1c .cfa: sp 48 +
STACK CFI 72c28 .cfa: x29 48 + x19: .cfa -8 + ^ x20: .cfa -16 + ^ x21: .cfa -32 + ^ .ra: .cfa -40 + ^ x29: .cfa -48 + ^
STACK CFI 72c70 .cfa: sp 48 +
STACK CFI 72c7c .cfa: sp 0 +
STACK CFI 72c80 .cfa: x29 48 +
STACK CFI 72c94 .cfa: sp 48 +
STACK CFI 72ca0 .cfa: sp 0 +
STACK CFI 72ca4 .cfa: x29 48 +
STACK CFI INIT 72dbc 172c .cfa: sp 0 +
STACK CFI 72dc0 .cfa: sp 112 +
STACK CFI 72ddc .cfa: x29 96 + x19: .cfa -8 + ^ x20: .cfa -16 + ^ x21: .cfa -24 + ^ x22: .cfa -32 + ^ x23: .cfa -40 + ^ x24: .cfa -48 + ^ x25: .cfa -56 + ^ x26: .cfa -64 + ^ x27: .cfa -72 + ^ x28: .cfa -80 + ^ .ra: .cfa -88 + ^ x29: .cfa -96 + ^ v8: .cfa -112 + ^
STACK CFI 74088 .cfa: sp 112 +
STACK CFI 740a4 .cfa: sp 0 +
STACK CFI 740a8 .cfa: x29 96 +
STACK CFI INIT 74738 bc .cfa: sp 0 +
STACK CFI 7473c .cfa: sp 48 +
STACK CFI 74748 .cfa: x29 48 + x19: .cfa -8 + ^ x20: .cfa -16 + ^ x21: .cfa -32 + ^ .ra: .cfa -40 + ^ x29: .cfa -48 + ^
STACK CFI 74794 .cfa: sp 48 +
STACK CFI 747a0 .cfa: sp 0 +
STACK CFI 747a4 .cfa: x29 48 +
STACK CFI 747b4 .cfa: sp 48 +
STACK CFI 747c0 .cfa: sp 0 +
STACK CFI 747c4 .cfa: x29 48 +
STACK CFI INIT 747f4 90 .cfa: sp 0 +
STACK CFI 747f8 .cfa: sp 48 +
STACK CFI 74804 .cfa: x29 48 + x19: .cfa -8 + ^ x20: .cfa -16 + ^ x21: .cfa -32 + ^ .ra: .cfa -40 + ^ x29: .cfa -48 + ^
STACK CFI 74844 .cfa: sp 48 +
STACK CFI 74850 .cfa: sp 0 +
STACK CFI 74854 .cfa: x29 48 +
STACK CFI 74860 .cfa: sp 48 +
STACK CFI 7486c .cfa: sp 0 +
STACK CFI 74870 .cfa: x29 48 +
STACK CFI INIT 74988 ddc .cfa: sp 0 +
STACK CFI 7498c .cfa: sp 448 +
STACK CFI 749a8 .cfa: x29 96 + x19: .cfa -8 + ^ x20: .cfa -16 + ^ x21: .cfa -24 + ^ x22: .cfa -32 + ^ x23: .cfa -40 + ^ x24: .cfa -48 + ^ x25: .cfa -56 + ^ x26: .cfa -64 + ^ x27: .cfa -72 + ^ x28: .cfa -80 + ^ .ra: .cfa -88 + ^ x29: .cfa -96 + ^
STACK CFI 75348 .cfa: sp 448 +
STACK CFI 75364 .cfa: sp 0 +
STACK CFI 75368 .cfa: x29 96 +
STACK CFI INIT 7578c 74 .cfa: sp 0 +
STACK CFI 75790 .cfa: sp 48 +
STACK CFI 7579c .cfa: x29 32 + x19: .cfa -8 + ^ x20: .cfa -16 + ^ .ra: .cfa -24 + ^ x29: .cfa -32 + ^
STACK CFI 757e8 .cfa: sp 48 +
STACK CFI 757f4 .cfa: sp 0 +
STACK CFI 757f8 .cfa: x29 32 +
STACK CFI INIT 75800 74 .cfa: sp 0 +
STACK CFI 75804 .cfa: sp 48 +
STACK CFI 75810 .cfa: x29 32 + x19: .cfa -8 + ^ x20: .cfa -16 + ^ .ra: .cfa -24 + ^ x29: .cfa -32 + ^
STACK CFI 7585c .cfa: sp 48 +
STACK CFI 75868 .cfa: sp 0 +
STACK CFI 7586c .cfa: x29 32 +
STACK CFI INIT 759ac bc .cfa: sp 0 +
STACK CFI 759b0 .cfa: sp 48 +
STACK CFI 759bc .cfa: x29 48 + x19: .cfa -8 + ^ x20: .cfa -16 + ^ x21: .cfa -32 + ^ .ra: .cfa -40 + ^ x29: .cfa -48 + ^
STACK CFI 75a08 .cfa: sp 48 +
STACK CFI 75a14 .cfa: sp 0 +
STACK CFI 75a18 .cfa: x29 48 +
STACK CFI 75a28 .cfa: sp 48 +
STACK CFI 75a34 .cfa: sp 0 +
STACK CFI 75a38 .cfa: x29 48 +
STACK CFI INIT 75a68 90 .cfa: sp 0 +
STACK CFI 75a6c .cfa: sp 48 +
STACK CFI 75a78 .cfa: x29 48 + x19: .cfa -8 + ^ x20: .cfa -16 + ^ x21: .cfa -32 + ^ .ra: .cfa -40 + ^ x29: .cfa -48 + ^
STACK CFI 75ab8 .cfa: sp 48 +
STACK CFI 75ac4 .cfa: sp 0 +
STACK CFI 75ac8 .cfa: x29 48 +
STACK CFI 75ad4 .cfa: sp 48 +
STACK CFI 75ae0 .cfa: sp 0 +
STACK CFI 75ae4 .cfa: x29 48 +
STACK CFI INIT 75bfc fb4 .cfa: sp 0 +
STACK CFI 75c00 .cfa: sp 400 +
STACK CFI 75c1c .cfa: x29 96 + x19: .cfa -8 + ^ x20: .cfa -16 + ^ x21: .cfa -24 + ^ x22: .cfa -32 + ^ x23: .cfa -40 + ^ x24: .cfa -48 + ^ x25: .cfa -56 + ^ x26: .cfa -64 + ^ x27: .cfa -72 + ^ x28: .cfa -80 + ^ .ra: .cfa -88 + ^ x29: .cfa -96 + ^
STACK CFI 76934 .cfa: sp 400 +
STACK CFI 76950 .cfa: sp 0 +
STACK CFI 76954 .cfa: x29 96 +
STACK CFI INIT 76c38 b8 .cfa: sp 0 +
STACK CFI 76c3c .cfa: sp 64 +
STACK CFI 76c48 .cfa: x29 32 + x19: .cfa -8 + ^ x20: .cfa -16 + ^ .ra: .cfa -24 + ^ x29: .cfa -32 + ^
STACK CFI 76cb0 .cfa: sp 64 +
STACK CFI 76cbc .cfa: sp 0 +
STACK CFI 76cc0 .cfa: x29 32 +
STACK CFI INIT 76d18 1dc .cfa: sp 0 +
STACK CFI 76d1c .cfa: sp 96 +
STACK CFI 76d30 .cfa: x29 64 + x19: .cfa -8 + ^ x20: .cfa -16 + ^ x21: .cfa -24 + ^ x22: .cfa -32 + ^ x23: .cfa -48 + ^ .ra: .cfa -56 + ^ x29: .cfa -64 + ^
STACK CFI 76e58 .cfa: sp 96 +
STACK CFI 76e6c .cfa: sp 0 +
STACK CFI 76e70 .cfa: x29 64 +
STACK CFI INIT 76fb8 134 .cfa: sp 0 +
STACK CFI 76fbc .cfa: sp 80 +
STACK CFI 76fc8 .cfa: x29 32 + x19: .cfa -8 + ^ x20: .cfa -16 + ^ .ra: .cfa -24 + ^ x29: .cfa -32 + ^
STACK CFI 76ff8 .cfa: sp 80 +
STACK CFI 77004 .cfa: sp 0 +
STACK CFI 77008 .cfa: x29 32 +
STACK CFI INIT 770ec 78 .cfa: sp 0 +
STACK CFI 770f0 .cfa: sp 32 +
STACK CFI 770f8 .cfa: x29 32 + x19: .cfa -8 + ^ x20: .cfa -16 + ^ .ra: .cfa -24 + ^ x29: .cfa -32 + ^
STACK CFI 77104 .cfa: sp 32 +
STACK CFI 7710c .cfa: sp 0 +
STACK CFI 77110 .cfa: x29 32 +
STACK CFI INIT 77164 74 .cfa: sp 0 +
STACK CFI 77168 .cfa: sp 48 +
STACK CFI 77174 .cfa: x29 32 + x19: .cfa -8 + ^ x20: .cfa -16 + ^ .ra: .cfa -24 + ^ x29: .cfa -32 + ^
STACK CFI 771c0 .cfa: sp 48 +
STACK CFI 771cc .cfa: sp 0 +
STACK CFI 771d0 .cfa: x29 32 +
STACK CFI INIT 7723c 224 .cfa: sp 0 +
STACK CFI 77240 .cfa: sp 128 +
STACK CFI 77250 .cfa: x29 48 + x19: .cfa -8 + ^ x20: .cfa -16 + ^ x21: .cfa -32 + ^ .ra: .cfa -40 + ^ x29: .cfa -48 + ^
STACK CFI 77300 .cfa: sp 128 +
STACK CFI 77310 .cfa: sp 0 +
STACK CFI 77314 .cfa: x29 48 +
STACK CFI INIT 774a8 284 .cfa: sp 0 +
STACK CFI 774ac .cfa: sp 128 +
STACK CFI 774bc .cfa: x29 48 + x19: .cfa -8 + ^ x20: .cfa -16 + ^ x21: .cfa -32 + ^ .ra: .cfa -40 + ^ x29: .cfa -48 + ^
STACK CFI 775d4 .cfa: sp 128 +
STACK CFI 775e4 .cfa: sp 0 +
STACK CFI 775e8 .cfa: x29 48 +
STACK CFI INIT 77780 300 .cfa: sp 0 +
STACK CFI 77784 .cfa: sp 144 +
STACK CFI 77798 .cfa: x29 64 + x19: .cfa -8 + ^ x20: .cfa -16 + ^ x21: .cfa -24 + ^ x22: .cfa -32 + ^ x23: .cfa -48 + ^ .ra: .cfa -56 + ^ x29: .cfa -64 + ^
STACK CFI 7792c .cfa: sp 144 +
STACK CFI 77940 .cfa: sp 0 +
STACK CFI 77944 .cfa: x29 64 +
STACK CFI INIT 77ad4 264 .cfa: sp 0 +
STACK CFI 77ad8 .cfa: sp 128 +
STACK CFI 77ae8 .cfa: x29 48 + x19: .cfa -8 + ^ x20: .cfa -16 + ^ x21: .cfa -32 + ^ .ra: .cfa -40 + ^ x29: .cfa -48 + ^
STACK CFI 77be0 .cfa: sp 128 +
STACK CFI 77bf0 .cfa: sp 0 +
STACK CFI 77bf4 .cfa: x29 48 +
STACK CFI INIT 77d8c 270 .cfa: sp 0 +
STACK CFI 77d90 .cfa: sp 144 +
STACK CFI 77da4 .cfa: x29 64 + x19: .cfa -8 + ^ x20: .cfa -16 + ^ x21: .cfa -24 + ^ x22: .cfa -32 + ^ x23: .cfa -48 + ^ .ra: .cfa -56 + ^ x29: .cfa -64 + ^
STACK CFI 77ea8 .cfa: sp 144 +
STACK CFI 77ebc .cfa: sp 0 +
STACK CFI 77ec0 .cfa: x29 64 +
STACK CFI INIT 78020 22c .cfa: sp 0 +
STACK CFI 78024 .cfa: sp 128 +
STACK CFI 78034 .cfa: x29 48 + x19: .cfa -8 + ^ x20: .cfa -16 + ^ x21: .cfa -32 + ^ .ra: .cfa -40 + ^ x29: .cfa -48 + ^
STACK CFI 780ec .cfa: sp 128 +
STACK CFI 780fc .cfa: sp 0 +
STACK CFI 78100 .cfa: x29 48 +
STACK CFI INIT 7824c 224 .cfa: sp 0 +
STACK CFI 78250 .cfa: sp 128 +
STACK CFI 78260 .cfa: x29 48 + x19: .cfa -8 + ^ x20: .cfa -16 + ^ x21: .cfa -32 + ^ .ra: .cfa -40 + ^ x29: .cfa -48 + ^
STACK CFI 78310 .cfa: sp 128 +
STACK CFI 78320 .cfa: sp 0 +
STACK CFI 78324 .cfa: x29 48 +
STACK CFI INIT 78470 268 .cfa: sp 0 +
STACK CFI 78474 .cfa: sp 144 +
STACK CFI 78488 .cfa: x29 64 + x19: .cfa -8 + ^ x20: .cfa -16 + ^ x21: .cfa -24 + ^ x22: .cfa -32 + ^ x23: .cfa -48 + ^ .ra: .cfa -56 + ^ x29: .cfa -64 + ^
STACK CFI 78584 .cfa: sp 144 +
STACK CFI 78598 .cfa: sp 0 +
STACK CFI 7859c .cfa: x29 64 +
STACK CFI INIT 786fc 26c .cfa: sp 0 +
STACK CFI 78700 .cfa: sp 128 +
STACK CFI 78710 .cfa: x29 48 + x19: .cfa -8 + ^ x20: .cfa -16 + ^ x21: .cfa -32 + ^ .ra: .cfa -40 + ^ x29: .cfa -48 + ^
STACK CFI 78808 .cfa: sp 128 +
STACK CFI 78818 .cfa: sp 0 +
STACK CFI 7881c .cfa: x29 48 +
STACK CFI INIT 78968 2b8 .cfa: sp 0 +
STACK CFI 7896c .cfa: sp 144 +
STACK CFI 78980 .cfa: x29 64 + x19: .cfa -8 + ^ x20: .cfa -16 + ^ x21: .cfa -24 + ^ x22: .cfa -32 + ^ x23: .cfa -48 + ^ .ra: .cfa -56 + ^ x29: .cfa -64 + ^
STACK CFI 78acc .cfa: sp 144 +
STACK CFI 78ae0 .cfa: sp 0 +
STACK CFI 78ae4 .cfa: x29 64 +
STACK CFI INIT 78c44 160 .cfa: sp 0 +
STACK CFI 78c48 .cfa: sp 144 +
STACK CFI 78c5c .cfa: x29 64 + x19: .cfa -8 + ^ x20: .cfa -16 + ^ x21: .cfa -24 + ^ x22: .cfa -32 + ^ x23: .cfa -48 + ^ .ra: .cfa -56 + ^ x29: .cfa -64 + ^
STACK CFI 78cac .cfa: sp 144 +
STACK CFI 78cc0 .cfa: sp 0 +
STACK CFI 78cc4 .cfa: x29 64 +
STACK CFI INIT 78da4 100 .cfa: sp 0 +
STACK CFI 78da8 .cfa: sp 64 +
STACK CFI 78db8 .cfa: x29 48 + x19: .cfa -8 + ^ x20: .cfa -16 + ^ x21: .cfa -24 + ^ x22: .cfa -32 + ^ .ra: .cfa -40 + ^ x29: .cfa -48 + ^
STACK CFI 78e5c .cfa: sp 64 +
STACK CFI 78e6c .cfa: sp 0 +
STACK CFI 78e70 .cfa: x29 48 +
STACK CFI INIT 78ea4 224 .cfa: sp 0 +
STACK CFI 78ea8 .cfa: sp 128 +
STACK CFI 78eb8 .cfa: x29 48 + x19: .cfa -8 + ^ x20: .cfa -16 + ^ x21: .cfa -32 + ^ .ra: .cfa -40 + ^ x29: .cfa -48 + ^
STACK CFI 78f68 .cfa: sp 128 +
STACK CFI 78f78 .cfa: sp 0 +
STACK CFI 78f7c .cfa: x29 48 +
STACK CFI INIT 790c8 268 .cfa: sp 0 +
STACK CFI 790cc .cfa: sp 144 +
STACK CFI 790e0 .cfa: x29 64 + x19: .cfa -8 + ^ x20: .cfa -16 + ^ x21: .cfa -24 + ^ x22: .cfa -32 + ^ x23: .cfa -48 + ^ .ra: .cfa -56 + ^ x29: .cfa -64 + ^
STACK CFI 791dc .cfa: sp 144 +
STACK CFI 791f0 .cfa: sp 0 +
STACK CFI 791f4 .cfa: x29 64 +
STACK CFI INIT 79354 150 .cfa: sp 0 +
STACK CFI 79358 .cfa: sp 128 +
STACK CFI 79368 .cfa: x29 48 + x19: .cfa -8 + ^ x20: .cfa -16 + ^ x21: .cfa -24 + ^ x22: .cfa -32 + ^ .ra: .cfa -40 + ^ x29: .cfa -48 + ^
STACK CFI 793b0 .cfa: sp 128 +
STACK CFI 793c0 .cfa: sp 0 +
STACK CFI 793c4 .cfa: x29 48 +
STACK CFI INIT 794a4 a4 .cfa: sp 0 +
STACK CFI 794a8 .cfa: sp 64 +
STACK CFI 794b8 .cfa: x29 48 + x19: .cfa -8 + ^ x20: .cfa -16 + ^ x21: .cfa -32 + ^ .ra: .cfa -40 + ^ x29: .cfa -48 + ^
STACK CFI 7951c .cfa: sp 64 +
STACK CFI 7952c .cfa: sp 0 +
STACK CFI 79530 .cfa: x29 48 +
STACK CFI INIT 79548 150 .cfa: sp 0 +
STACK CFI 7954c .cfa: sp 128 +
STACK CFI 7955c .cfa: x29 48 + x19: .cfa -8 + ^ x20: .cfa -16 + ^ x21: .cfa -24 + ^ x22: .cfa -32 + ^ .ra: .cfa -40 + ^ x29: .cfa -48 + ^
STACK CFI 795a4 .cfa: sp 128 +
STACK CFI 795b4 .cfa: sp 0 +
STACK CFI 795b8 .cfa: x29 48 +
STACK CFI INIT 79698 a4 .cfa: sp 0 +
STACK CFI 7969c .cfa: sp 64 +
STACK CFI 796ac .cfa: x29 48 + x19: .cfa -8 + ^ x20: .cfa -16 + ^ x21: .cfa -32 + ^ .ra: .cfa -40 + ^ x29: .cfa -48 + ^
STACK CFI 79710 .cfa: sp 64 +
STACK CFI 79720 .cfa: sp 0 +
STACK CFI 79724 .cfa: x29 48 +
STACK CFI INIT 7982c 178 .cfa: sp 0 +
STACK CFI 79830 .cfa: sp 128 +
STACK CFI 79840 .cfa: x29 48 + x19: .cfa -8 + ^ x20: .cfa -16 + ^ x21: .cfa -24 + ^ x22: .cfa -32 + ^ .ra: .cfa -40 + ^ x29: .cfa -48 + ^
STACK CFI 7989c .cfa: sp 128 +
STACK CFI 798ac .cfa: sp 0 +
STACK CFI 798b0 .cfa: x29 48 +
STACK CFI INIT 799a4 a0 .cfa: sp 0 +
STACK CFI 799a8 .cfa: sp 48 +
STACK CFI 799b4 .cfa: x29 48 + x19: .cfa -8 + ^ x20: .cfa -16 + ^ x21: .cfa -32 + ^ .ra: .cfa -40 + ^ x29: .cfa -48 + ^
STACK CFI 79a1c .cfa: sp 48 +
STACK CFI 79a28 .cfa: sp 0 +
STACK CFI 79a2c .cfa: x29 48 +
STACK CFI INIT 79b24 200 .cfa: sp 0 +
STACK CFI 79b28 .cfa: sp 208 +
STACK CFI 79b48 .cfa: x29 96 + x19: .cfa -8 + ^ x20: .cfa -16 + ^ x21: .cfa -24 + ^ x22: .cfa -32 + ^ x23: .cfa -40 + ^ x24: .cfa -48 + ^ x25: .cfa -56 + ^ x26: .cfa -64 + ^ x27: .cfa -72 + ^ x28: .cfa -80 + ^ .ra: .cfa -88 + ^ x29: .cfa -96 + ^ v8: .cfa -112 + ^
STACK CFI 79c04 .cfa: sp 208 +
STACK CFI 79c24 .cfa: sp 0 +
STACK CFI 79c28 .cfa: x29 96 +
STACK CFI INIT 79d24 6cc .cfa: sp 0 +
STACK CFI 79d28 .cfa: sp 96 +
STACK CFI 79d40 .cfa: x29 80 + x19: .cfa -8 + ^ x20: .cfa -16 + ^ x21: .cfa -24 + ^ x22: .cfa -32 + ^ x23: .cfa -40 + ^ x24: .cfa -48 + ^ x25: .cfa -64 + ^ .ra: .cfa -72 + ^ x29: .cfa -80 + ^
STACK CFI 7a32c .cfa: sp 96 +
STACK CFI 7a344 .cfa: sp 0 +
STACK CFI 7a348 .cfa: x29 80 +
STACK CFI INIT 7a3f4 80 .cfa: sp 0 +
STACK CFI 7a3f8 .cfa: sp 32 +
STACK CFI 7a400 .cfa: x29 32 + x19: .cfa -8 + ^ x20: .cfa -16 + ^ .ra: .cfa -24 + ^ x29: .cfa -32 + ^
STACK CFI 7a424 .cfa: sp 32 +
STACK CFI 7a42c .cfa: sp 0 +
STACK CFI 7a430 .cfa: x29 32 +
STACK CFI INIT 7a474 1c8 .cfa: sp 0 +
STACK CFI 7a478 .cfa: sp 192 +
STACK CFI 7a494 .cfa: x29 64 + x19: .cfa -8 + ^ x20: .cfa -16 + ^ x21: .cfa -24 + ^ x22: .cfa -32 + ^ x23: .cfa -40 + ^ x24: .cfa -48 + ^ .ra: .cfa -56 + ^ x29: .cfa -64 + ^ v8: .cfa -72 + ^ v9: .cfa -80 + ^ v10: .cfa -96 + ^
STACK CFI 7a528 .cfa: sp 192 +
STACK CFI 7a544 .cfa: sp 0 +
STACK CFI 7a548 .cfa: x29 64 +
STACK CFI INIT 7a63c 494 .cfa: sp 0 +
STACK CFI 7a640 .cfa: sp 112 +
STACK CFI 7a658 .cfa: x29 80 + x19: .cfa -8 + ^ x20: .cfa -16 + ^ x21: .cfa -24 + ^ x22: .cfa -32 + ^ x23: .cfa -40 + ^ x24: .cfa -48 + ^ x25: .cfa -64 + ^ .ra: .cfa -72 + ^ x29: .cfa -80 + ^
STACK CFI 7aa3c .cfa: sp 112 +
STACK CFI 7aa54 .cfa: sp 0 +
STACK CFI 7aa58 .cfa: x29 80 +
STACK CFI INIT 7aad0 178 .cfa: sp 0 +
STACK CFI 7aad4 .cfa: sp 128 +
STACK CFI 7aae4 .cfa: x29 48 + x19: .cfa -8 + ^ x20: .cfa -16 + ^ x21: .cfa -24 + ^ x22: .cfa -32 + ^ .ra: .cfa -40 + ^ x29: .cfa -48 + ^
STACK CFI 7ab40 .cfa: sp 128 +
STACK CFI 7ab50 .cfa: sp 0 +
STACK CFI 7ab54 .cfa: x29 48 +
STACK CFI INIT 7ac48 a0 .cfa: sp 0 +
STACK CFI 7ac4c .cfa: sp 48 +
STACK CFI 7ac58 .cfa: x29 48 + x19: .cfa -8 + ^ x20: .cfa -16 + ^ x21: .cfa -32 + ^ .ra: .cfa -40 + ^ x29: .cfa -48 + ^
STACK CFI 7acc0 .cfa: sp 48 +
STACK CFI 7accc .cfa: sp 0 +
STACK CFI 7acd0 .cfa: x29 48 +
STACK CFI INIT 7ace8 2e4 .cfa: sp 0 +
STACK CFI 7acec .cfa: sp 144 +
STACK CFI 7ad00 .cfa: x29 64 + x19: .cfa -8 + ^ x20: .cfa -16 + ^ x21: .cfa -24 + ^ x22: .cfa -32 + ^ x23: .cfa -48 + ^ .ra: .cfa -56 + ^ x29: .cfa -64 + ^
STACK CFI 7ae78 .cfa: sp 144 +
STACK CFI 7ae8c .cfa: sp 0 +
STACK CFI 7ae90 .cfa: x29 64 +
STACK CFI INIT 7afcc 2f0 .cfa: sp 0 +
STACK CFI 7afd0 .cfa: sp 144 +
STACK CFI 7afe4 .cfa: x29 64 + x19: .cfa -8 + ^ x20: .cfa -16 + ^ x21: .cfa -24 + ^ x22: .cfa -32 + ^ x23: .cfa -48 + ^ .ra: .cfa -56 + ^ x29: .cfa -64 + ^
STACK CFI 7b168 .cfa: sp 144 +
STACK CFI 7b17c .cfa: sp 0 +
STACK CFI 7b180 .cfa: x29 64 +
STACK CFI INIT 7b2bc 2a0 .cfa: sp 0 +
STACK CFI 7b2c0 .cfa: sp 144 +
STACK CFI 7b2d4 .cfa: x29 64 + x19: .cfa -8 + ^ x20: .cfa -16 + ^ x21: .cfa -24 + ^ x22: .cfa -32 + ^ x23: .cfa -48 + ^ .ra: .cfa -56 + ^ x29: .cfa -64 + ^
STACK CFI 7b408 .cfa: sp 144 +
STACK CFI 7b41c .cfa: sp 0 +
STACK CFI 7b420 .cfa: x29 64 +
STACK CFI INIT 7b55c 2e4 .cfa: sp 0 +
STACK CFI 7b560 .cfa: sp 144 +
STACK CFI 7b574 .cfa: x29 64 + x19: .cfa -8 + ^ x20: .cfa -16 + ^ x21: .cfa -24 + ^ x22: .cfa -32 + ^ x23: .cfa -48 + ^ .ra: .cfa -56 + ^ x29: .cfa -64 + ^
STACK CFI 7b6ec .cfa: sp 144 +
STACK CFI 7b700 .cfa: sp 0 +
STACK CFI 7b704 .cfa: x29 64 +
STACK CFI INIT 7b840 4f4 .cfa: sp 0 +
STACK CFI 7b844 .cfa: sp 144 +
STACK CFI 7b858 .cfa: x29 64 + x19: .cfa -8 + ^ x20: .cfa -16 + ^ x21: .cfa -24 + ^ x22: .cfa -32 + ^ x23: .cfa -48 + ^ .ra: .cfa -56 + ^ x29: .cfa -64 + ^
STACK CFI 7bb8c .cfa: sp 144 +
STACK CFI 7bba0 .cfa: sp 0 +
STACK CFI 7bba4 .cfa: x29 64 +
STACK CFI INIT 7bd34 154 .cfa: sp 0 +
STACK CFI 7bd38 .cfa: sp 384 +
STACK CFI 7bd4c .cfa: x29 64 + x19: .cfa -8 + ^ x20: .cfa -16 + ^ x21: .cfa -24 + ^ x22: .cfa -32 + ^ x23: .cfa -40 + ^ x28: .cfa -48 + ^ .ra: .cfa -56 + ^ x29: .cfa -64 + ^
STACK CFI 7be30 .cfa: sp 384 +
STACK CFI 7be44 .cfa: sp 0 +
STACK CFI 7be48 .cfa: x29 64 +
STACK CFI INIT 7bea0 50c .cfa: sp 0 +
STACK CFI 7bea4 .cfa: sp 64 +
STACK CFI 7beb4 .cfa: x29 64 + x19: .cfa -8 + ^ x20: .cfa -16 + ^ x21: .cfa -24 + ^ x22: .cfa -32 + ^ x23: .cfa -40 + ^ x24: .cfa -48 + ^ .ra: .cfa -56 + ^ x29: .cfa -64 + ^
STACK CFI 7bfd4 .cfa: sp 64 +
STACK CFI 7bfe4 .cfa: sp 0 +
STACK CFI 7bfe8 .cfa: x29 64 +
STACK CFI 7c380 .cfa: sp 64 +
STACK CFI 7c390 .cfa: sp 0 +
STACK CFI 7c394 .cfa: x29 64 +
STACK CFI INIT 7c6dc 294 .cfa: sp 0 +
STACK CFI 7c6e0 .cfa: sp 240 +
STACK CFI 7c6f8 .cfa: x29 80 + x19: .cfa -8 + ^ x20: .cfa -16 + ^ x21: .cfa -24 + ^ x22: .cfa -32 + ^ x23: .cfa -40 + ^ x24: .cfa -48 + ^ x25: .cfa -64 + ^ .ra: .cfa -72 + ^ x29: .cfa -80 + ^
STACK CFI 7c898 .cfa: sp 240 +
STACK CFI 7c8b0 .cfa: sp 0 +
STACK CFI 7c8b4 .cfa: x29 80 +
STACK CFI INIT 7c9ec 50 .cfa: sp 0 +
STACK CFI 7c9f0 .cfa: sp 32 +
STACK CFI 7c9f8 .cfa: x29 32 + x19: .cfa -8 + ^ x20: .cfa -16 + ^ .ra: .cfa -24 + ^ x29: .cfa -32 + ^
STACK CFI INIT 7ca68 7c0 .cfa: sp 0 +
STACK CFI 7ca6c .cfa: sp 320 +
STACK CFI 7ca88 .cfa: x29 96 + x19: .cfa -8 + ^ x20: .cfa -16 + ^ x21: .cfa -24 + ^ x22: .cfa -32 + ^ x23: .cfa -40 + ^ x24: .cfa -48 + ^ x25: .cfa -56 + ^ x26: .cfa -64 + ^ x27: .cfa -72 + ^ x28: .cfa -80 + ^ .ra: .cfa -88 + ^ x29: .cfa -96 + ^
STACK CFI 7d0d8 .cfa: sp 320 +
STACK CFI 7d0f4 .cfa: sp 0 +
STACK CFI 7d0f8 .cfa: x29 96 +
STACK CFI INIT 7d28c 14c .cfa: sp 0 +
STACK CFI 7d290 .cfa: sp 80 +
STACK CFI 7d2a4 .cfa: x29 80 + x19: .cfa -8 + ^ x20: .cfa -16 + ^ x21: .cfa -24 + ^ x22: .cfa -32 + ^ x23: .cfa -40 + ^ x24: .cfa -48 + ^ x28: .cfa -64 + ^ .ra: .cfa -72 + ^ x29: .cfa -80 + ^
STACK CFI 7d338 .cfa: sp 80 +
STACK CFI 7d34c .cfa: sp 0 +
STACK CFI 7d350 .cfa: x29 80 +
STACK CFI INIT 80f0c c84 .cfa: sp 0 +
STACK CFI 80f10 .cfa: sp 96 +
STACK CFI 80f28 .cfa: x29 96 + x19: .cfa -8 + ^ x20: .cfa -16 + ^ x21: .cfa -24 + ^ x22: .cfa -32 + ^ x23: .cfa -40 + ^ x24: .cfa -48 + ^ x25: .cfa -56 + ^ x26: .cfa -64 + ^ x27: .cfa -72 + ^ x28: .cfa -80 + ^ .ra: .cfa -88 + ^ x29: .cfa -96 + ^
STACK CFI 819b0 .cfa: sp 96 +
STACK CFI 819c8 .cfa: sp 0 +
STACK CFI 819cc .cfa: x29 96 +
STACK CFI INIT 81ce4 268 .cfa: sp 0 +
STACK CFI 81ce8 .cfa: sp 128 +
STACK CFI 81cf8 .cfa: x29 48 + x19: .cfa -8 + ^ x20: .cfa -16 + ^ x21: .cfa -24 + ^ x22: .cfa -32 + ^ .ra: .cfa -40 + ^ x29: .cfa -48 + ^
STACK CFI 81e98 .cfa: sp 128 +
STACK CFI 81ea8 .cfa: sp 0 +
STACK CFI 81eac .cfa: x29 48 +
STACK CFI INIT 822dc 3b8 .cfa: sp 0 +
STACK CFI 822e0 .cfa: sp 96 +
STACK CFI 822f8 .cfa: x29 96 + x19: .cfa -8 + ^ x20: .cfa -16 + ^ x21: .cfa -24 + ^ x22: .cfa -32 + ^ x23: .cfa -40 + ^ x24: .cfa -48 + ^ x25: .cfa -56 + ^ x26: .cfa -64 + ^ x27: .cfa -72 + ^ x28: .cfa -80 + ^ .ra: .cfa -88 + ^ x29: .cfa -96 + ^
STACK CFI 82634 .cfa: sp 96 +
STACK CFI 8264c .cfa: sp 0 +
STACK CFI 82650 .cfa: x29 96 +
STACK CFI INIT 82734 cbc .cfa: sp 0 +
STACK CFI 82738 .cfa: sp 96 +
STACK CFI 82750 .cfa: x29 96 + x19: .cfa -8 + ^ x20: .cfa -16 + ^ x21: .cfa -24 + ^ x22: .cfa -32 + ^ x23: .cfa -40 + ^ x24: .cfa -48 + ^ x25: .cfa -56 + ^ x26: .cfa -64 + ^ x27: .cfa -72 + ^ x28: .cfa -80 + ^ .ra: .cfa -88 + ^ x29: .cfa -96 + ^
STACK CFI 83200 .cfa: sp 96 +
STACK CFI 83218 .cfa: sp 0 +
STACK CFI 8321c .cfa: x29 96 +
STACK CFI INIT 836d8 ae0 .cfa: sp 0 +
STACK CFI 836dc .cfa: sp 96 +
STACK CFI 836f4 .cfa: x29 96 + x19: .cfa -8 + ^ x20: .cfa -16 + ^ x21: .cfa -24 + ^ x22: .cfa -32 + ^ x23: .cfa -40 + ^ x24: .cfa -48 + ^ x25: .cfa -56 + ^ x26: .cfa -64 + ^ x27: .cfa -72 + ^ x28: .cfa -80 + ^ .ra: .cfa -88 + ^ x29: .cfa -96 + ^
STACK CFI 8412c .cfa: sp 96 +
STACK CFI 84144 .cfa: sp 0 +
STACK CFI 84148 .cfa: x29 96 +
STACK CFI INIT 843ac 1424 .cfa: sp 0 +
STACK CFI 843b0 .cfa: sp 96 +
STACK CFI 843c8 .cfa: x29 96 + x19: .cfa -8 + ^ x20: .cfa -16 + ^ x21: .cfa -24 + ^ x22: .cfa -32 + ^ x23: .cfa -40 + ^ x24: .cfa -48 + ^ x25: .cfa -56 + ^ x26: .cfa -64 + ^ x27: .cfa -72 + ^ x28: .cfa -80 + ^ .ra: .cfa -88 + ^ x29: .cfa -96 + ^
STACK CFI 85660 .cfa: sp 96 +
STACK CFI 85678 .cfa: sp 0 +
STACK CFI 8567c .cfa: x29 96 +
STACK CFI INIT 858f4 75c .cfa: sp 0 +
STACK CFI 858f8 .cfa: sp 368 +
STACK CFI 85914 .cfa: x29 96 + x19: .cfa -8 + ^ x20: .cfa -16 + ^ x21: .cfa -24 + ^ x22: .cfa -32 + ^ x23: .cfa -40 + ^ x24: .cfa -48 + ^ x25: .cfa -56 + ^ x26: .cfa -64 + ^ x27: .cfa -72 + ^ x28: .cfa -80 + ^ .ra: .cfa -88 + ^ x29: .cfa -96 + ^
STACK CFI 859c8 .cfa: sp 368 +
STACK CFI 859e4 .cfa: sp 0 +
STACK CFI 859e8 .cfa: x29 96 +
STACK CFI 85a3c .cfa: sp 368 +
STACK CFI 85a58 .cfa: sp 0 +
STACK CFI 85a5c .cfa: x29 96 +
STACK CFI INIT 86414 edc .cfa: sp 0 +
STACK CFI 86418 .cfa: sp 96 +
STACK CFI 86430 .cfa: x29 96 + x19: .cfa -8 + ^ x20: .cfa -16 + ^ x21: .cfa -24 + ^ x22: .cfa -32 + ^ x23: .cfa -40 + ^ x24: .cfa -48 + ^ x25: .cfa -56 + ^ x26: .cfa -64 + ^ x27: .cfa -72 + ^ x28: .cfa -80 + ^ .ra: .cfa -88 + ^ x29: .cfa -96 + ^
STACK CFI 870e8 .cfa: sp 96 +
STACK CFI 87100 .cfa: sp 0 +
STACK CFI 87104 .cfa: x29 96 +
STACK CFI INIT 87664 1b34 .cfa: sp 0 +
STACK CFI 87668 .cfa: sp 112 +
STACK CFI 87684 .cfa: x29 96 + x19: .cfa -8 + ^ x20: .cfa -16 + ^ x21: .cfa -24 + ^ x22: .cfa -32 + ^ x23: .cfa -40 + ^ x24: .cfa -48 + ^ x25: .cfa -56 + ^ x26: .cfa -64 + ^ x27: .cfa -72 + ^ x28: .cfa -80 + ^ .ra: .cfa -88 + ^ x29: .cfa -96 + ^ v8: .cfa -112 + ^
STACK CFI 87a64 .cfa: sp 112 +
STACK CFI 87a80 .cfa: sp 0 +
STACK CFI 87a84 .cfa: x29 96 +
STACK CFI INIT 8b5a0 a4c .cfa: sp 0 +
STACK CFI 8b5a4 .cfa: sp 144 +
STACK CFI 8b5bc .cfa: x29 80 + x19: .cfa -8 + ^ x20: .cfa -16 + ^ x21: .cfa -24 + ^ x22: .cfa -32 + ^ x23: .cfa -40 + ^ x24: .cfa -48 + ^ x25: .cfa -64 + ^ .ra: .cfa -72 + ^ x29: .cfa -80 + ^
STACK CFI 8bf44 .cfa: sp 144 +
STACK CFI 8bf5c .cfa: sp 0 +
STACK CFI 8bf60 .cfa: x29 80 +
STACK CFI INIT 8bfec 57c .cfa: sp 0 +
STACK CFI 8bff0 .cfa: sp 96 +
STACK CFI 8c008 .cfa: x29 96 + x19: .cfa -8 + ^ x20: .cfa -16 + ^ x21: .cfa -24 + ^ x22: .cfa -32 + ^ x23: .cfa -40 + ^ x24: .cfa -48 + ^ x25: .cfa -56 + ^ x26: .cfa -64 + ^ x27: .cfa -72 + ^ x28: .cfa -80 + ^ .ra: .cfa -88 + ^ x29: .cfa -96 + ^
STACK CFI 8c4cc .cfa: sp 96 +
STACK CFI 8c4e4 .cfa: sp 0 +
STACK CFI 8c4e8 .cfa: x29 96 +
STACK CFI INIT 8c568 67c .cfa: sp 0 +
STACK CFI 8c56c .cfa: sp 96 +
STACK CFI 8c584 .cfa: x29 96 + x19: .cfa -8 + ^ x20: .cfa -16 + ^ x21: .cfa -24 + ^ x22: .cfa -32 + ^ x23: .cfa -40 + ^ x24: .cfa -48 + ^ x25: .cfa -56 + ^ x26: .cfa -64 + ^ x27: .cfa -72 + ^ x28: .cfa -80 + ^ .ra: .cfa -88 + ^ x29: .cfa -96 + ^
STACK CFI 8cb48 .cfa: sp 96 +
STACK CFI 8cb60 .cfa: sp 0 +
STACK CFI 8cb64 .cfa: x29 96 +
