MODULE Linux arm64 0BCC311A3DC0CA9DFDABCCA1A7D5C5AF0 alphalaneous.fine_outline.android64.so
INFO CODE_ID 1A31CC0BC03D9DCAFDABCCA1A7D5C5AF79901DDB
INFO GENERATOR mozilla/dump_syms 2.3.4
PUBLIC 1ed60 0 __on_dlclose
PUBLIC 1ed70 0 __emutls_unregister_key
PUBLIC 1ed78 0 __on_dlclose_late
PUBLIC 1ed80 0 __atexit_handler_wrapper
PUBLIC 1ed94 0 atexit
PUBLIC 1edb0 0 pthread_atfork
PUBLIC 1edc0 0 unwind_phase2
PUBLIC 1eef4 0 _Unwind_Resume
PUBLIC 1ef78 0 unwind_phase2_forced
PUBLIC m 1f06c 0 __unw_init_local
PUBLIC m 1f114 0 __unw_get_reg
PUBLIC 1f190 0 __unw_step_stage2
PUBLIC m 1f1a4 0 __unw_get_proc_info
PUBLIC m 1f1e4 0 __unw_resume
PUBLIC 1f20c 0 libunwind::CFI_Parser<libunwind::LocalAddressSpace>::decodeFDE(libunwind::LocalAddressSpace&, unsigned long, libunwind::CFI_Parser<libunwind::LocalAddressSpace>::FDE_Info*, libunwind::CFI_Parser<libunwind::LocalAddressSpace>::CIE_Info*, bool)
PUBLIC 1f39c 0 libunwind::CFI_Parser<libunwind::LocalAddressSpace>::parseCIE(libunwind::LocalAddressSpace&, unsigned long, libunwind::CFI_Parser<libunwind::LocalAddressSpace>::CIE_Info*)
PUBLIC 1f664 0 libunwind::AbstractUnwindCursor::~AbstractUnwindCursor()
PUBLIC 1f66c 0 libunwind::UnwindCursor<libunwind::LocalAddressSpace, libunwind::Registers_arm64>::~UnwindCursor()
PUBLIC 1f674 0 libunwind::UnwindCursor<libunwind::LocalAddressSpace, libunwind::Registers_arm64>::validReg(int)
PUBLIC 1f6b8 0 libunwind::UnwindCursor<libunwind::LocalAddressSpace, libunwind::Registers_arm64>::getReg(int)
PUBLIC 1f7a0 0 libunwind::UnwindCursor<libunwind::LocalAddressSpace, libunwind::Registers_arm64>::setReg(int, unsigned long)
PUBLIC 1f888 0 libunwind::UnwindCursor<libunwind::LocalAddressSpace, libunwind::Registers_arm64>::validFloatReg(int)
PUBLIC 1f89c 0 libunwind::UnwindCursor<libunwind::LocalAddressSpace, libunwind::Registers_arm64>::getFloatReg(int)
PUBLIC 1f8ac 0 libunwind::UnwindCursor<libunwind::LocalAddressSpace, libunwind::Registers_arm64>::setFloatReg(int, double)
PUBLIC 1f8bc 0 libunwind::UnwindCursor<libunwind::LocalAddressSpace, libunwind::Registers_arm64>::step(bool)
PUBLIC 1f9ac 0 libunwind::UnwindCursor<libunwind::LocalAddressSpace, libunwind::Registers_arm64>::getInfo(unw_proc_info_t*)
PUBLIC 1f9f0 0 libunwind::UnwindCursor<libunwind::LocalAddressSpace, libunwind::Registers_arm64>::jumpto()
PUBLIC 1f9fc 0 libunwind::UnwindCursor<libunwind::LocalAddressSpace, libunwind::Registers_arm64>::isSignalFrame()
PUBLIC 1fa08 0 libunwind::UnwindCursor<libunwind::LocalAddressSpace, libunwind::Registers_arm64>::getFunctionName(char*, unsigned long, unsigned long*)
PUBLIC 1fa34 0 libunwind::UnwindCursor<libunwind::LocalAddressSpace, libunwind::Registers_arm64>::setInfoBasedOnIPRegister(bool)
PUBLIC 1fcb4 0 libunwind::UnwindCursor<libunwind::LocalAddressSpace, libunwind::Registers_arm64>::getRegisterName(int)
PUBLIC 1fcc0 0 libunwind::UnwindCursor<libunwind::LocalAddressSpace, libunwind::Registers_arm64>::stepThroughSigReturn(libunwind::Registers_arm64&)
PUBLIC 1fde0 0 libunwind::DwarfInstructions<libunwind::LocalAddressSpace, libunwind::Registers_arm64>::stepWithDwarf(libunwind::LocalAddressSpace&, unsigned long, unsigned long, libunwind::Registers_arm64&, bool&, bool)
PUBLIC 20268 0 libunwind::CFI_Parser<libunwind::LocalAddressSpace>::parseFDEInstructions(libunwind::LocalAddressSpace&, libunwind::CFI_Parser<libunwind::LocalAddressSpace>::FDE_Info const&, libunwind::CFI_Parser<libunwind::LocalAddressSpace>::CIE_Info const&, unsigned long, int, libunwind::CFI_Parser<libunwind::LocalAddressSpace>::PrologInfo*)
PUBLIC 20eb0 0 libunwind::DwarfInstructions<libunwind::LocalAddressSpace, libunwind::Registers_arm64>::getCFA(libunwind::LocalAddressSpace&, libunwind::CFI_Parser<libunwind::LocalAddressSpace>::PrologInfo const&, libunwind::Registers_arm64 const&)
PUBLIC 20fe4 0 libunwind::DwarfInstructions<libunwind::LocalAddressSpace, libunwind::Registers_arm64>::getSavedRegister(libunwind::LocalAddressSpace&, libunwind::Registers_arm64 const&, unsigned long, libunwind::CFI_Parser<libunwind::LocalAddressSpace>::RegisterLocation const&)
PUBLIC 211f4 0 libunwind::LocalAddressSpace::getEncodedP(unsigned long&, unsigned long, unsigned char, unsigned long)
PUBLIC 21580 0 libunwind::LocalAddressSpace::getULEB128(unsigned long&, unsigned long)
PUBLIC 21748 0 libunwind::DwarfInstructions<libunwind::LocalAddressSpace, libunwind::Registers_arm64>::evaluateExpression(unsigned long, libunwind::LocalAddressSpace&, libunwind::Registers_arm64 const&, unsigned long)
PUBLIC 22104 0 libunwind::UnwindCursor<libunwind::LocalAddressSpace, libunwind::Registers_arm64>::getInfoFromDwarfSection(unsigned long, libunwind::UnwindInfoSections const&, unsigned int)
PUBLIC 223d8 0 libunwind::findUnwindSectionsByPhdr(dl_phdr_info*, unsigned long, void*)
PUBLIC 2250c 0 libunwind::EHHeaderParser<libunwind::LocalAddressSpace>::decodeEHHdr(libunwind::LocalAddressSpace&, unsigned long, unsigned long, libunwind::EHHeaderParser<libunwind::LocalAddressSpace>::EHHeaderInfo&)
PUBLIC 2262c 0 libunwind::CFI_Parser<libunwind::LocalAddressSpace>::findFDE(libunwind::LocalAddressSpace&, unsigned long, unsigned long, unsigned long, unsigned long, libunwind::CFI_Parser<libunwind::LocalAddressSpace>::FDE_Info*, libunwind::CFI_Parser<libunwind::LocalAddressSpace>::CIE_Info*)
PUBLIC 227f4 0 libunwind::EHHeaderParser<libunwind::LocalAddressSpace>::findFDE(libunwind::LocalAddressSpace&, unsigned long, unsigned long, unsigned int, libunwind::CFI_Parser<libunwind::LocalAddressSpace>::FDE_Info*, libunwind::CFI_Parser<libunwind::LocalAddressSpace>::CIE_Info*)
PUBLIC 2295c 0 libunwind::EHHeaderParser<libunwind::LocalAddressSpace>::getTableEntrySize(unsigned char)
PUBLIC 22a58 0 libunwind::Registers_arm64::getRegisterName(int)
PUBLIC 22a88 0 __libunwind_Registers_arm64_jumpto
PUBLIC m 22b18 0 __unw_getcontext
PUBLIC 22bb4 0 ShaderCache::createShader(std::__ndk1::basic_string<char, std::__ndk1::char_traits<char>, std::__ndk1::allocator<char> >, std::__ndk1::basic_string<char, std::__ndk1::char_traits<char>, std::__ndk1::allocator<char> >)
PUBLIC 22d9c 0 std::__ndk1::basic_string<char, std::__ndk1::char_traits<char>, std::__ndk1::allocator<char> >::__init_copy_ctor_external(char const*, unsigned long)
PUBLIC 22e1c 0 std::__ndk1::basic_string<char, std::__ndk1::char_traits<char>, std::__ndk1::allocator<char> >::__throw_length_error[abi:ne180000]() const
PUBLIC 22e30 0 std::__ndk1::__throw_length_error[abi:ne180000](char const*)
PUBLIC 22e80 0 std::length_error::length_error[abi:ne180000](char const*)
PUBLIC 22eb0 0 __aarch64_ldadd8_relax
PUBLIC 22ee0 0 init_have_lse_atomics
PUBLIC 22f78 0 __init_cpu_features_constructor
PUBLIC 23514 0 __init_cpu_features
PUBLIC 235a0 0 __aarch64_ldadd8_acq_rel
PUBLIC 235d0 0 loadShaders()
PUBLIC 239ec 0 geode::Mod::getSettingValue<bool>(std::__ndk1::basic_string_view<char, std::__ndk1::char_traits<char> >) const
PUBLIC 23b28 0 geodeExecFunction101<(anonymous namespace)::ExecFuncUnique101>(geode::ModStateEvent*)
PUBLIC 23eb0 0 updateSprite(cocos2d::CCSprite*, cocos2d::_ccColor3B)
PUBLIC 24310 0 __cxx_global_var_init.8
PUBLIC 24794 0 geode::modifier::ModifyBase<geode::modifier::ModifyDerive<MyCCSpriteBatchNode, cocos2d::CCSpriteBatchNode> >::~ModifyBase()
PUBLIC 247ac 0 __cxx_global_var_init.9
PUBLIC 24c30 0 geode::modifier::ModifyBase<geode::modifier::ModifyDerive<MyCCSprite, cocos2d::CCSprite> >::~ModifyBase()
PUBLIC 24c48 0 __cxx_global_var_init.10
PUBLIC 250cc 0 geode::modifier::ModifyBase<geode::modifier::ModifyDerive<MyGameManager, GameManager> >::~ModifyBase()
PUBLIC 250e4 0 __cxx_global_var_init.11
PUBLIC 25568 0 geode::modifier::ModifyBase<geode::modifier::ModifyDerive<MySimplePlayer, SimplePlayer> >::~ModifyBase()
PUBLIC 25580 0 __cxx_global_var_init.12
PUBLIC 25d48 0 geode::modifier::ModifyBase<geode::modifier::ModifyDerive<MyPlayerObject, PlayerObject> >::~ModifyBase()
PUBLIC 25d60 0 __cxx_global_var_init.13
PUBLIC 261e4 0 geode::modifier::ModifyBase<geode::modifier::ModifyDerive<MyPlayLayer, PlayLayer> >::~ModifyBase()
PUBLIC 261fc 0 __cxx_global_var_init.14
PUBLIC 26680 0 geode::modifier::ModifyBase<geode::modifier::ModifyDerive<MyProfilePage, ProfilePage> >::~ModifyBase()
PUBLIC 26698 0 __cxx_global_var_init.15
PUBLIC 26b94 0 geode::modifier::ModifyBase<geode::modifier::ModifyDerive<MyGJGarageLayer, GJGarageLayer> >::~ModifyBase()
PUBLIC 26bac 0 __cxx_global_var_init.16
PUBLIC 270a8 0 geode::modifier::ModifyBase<geode::modifier::ModifyDerive<MyCharacterColorPage, CharacterColorPage> >::~ModifyBase()
PUBLIC 270c0 0 __cxx_global_var_init.17
PUBLIC 27544 0 geode::modifier::ModifyBase<geode::modifier::ModifyDerive<MyCommentCell, CommentCell> >::~ModifyBase()
PUBLIC 2755c 0 __cxx_global_var_init.18
PUBLIC 279e0 0 geode::modifier::ModifyBase<geode::modifier::ModifyDerive<MyGJScoreCell, GJScoreCell> >::~ModifyBase()
PUBLIC 279f8 0 __clang_call_terminate
PUBLIC 27a08 0 std::__throw_bad_array_new_length([abi:ne180000], void)
PUBLIC 27a3c 0 std::__ndk1::basic_string<char, std::__ndk1::char_traits<char>, std::__ndk1::allocator<char> >::__assign_external(char const*, unsigned long)
PUBLIC 27b40 0 geode::Ref<cocos2d::CCDictionary>::~Ref()
PUBLIC 27b5c 0 geode::modifier::ModifyDerive<MyCCSpriteBatchNode, cocos2d::CCSpriteBatchNode>::apply()
PUBLIC 29308 0 std::__ndk1::shared_ptr<geode::Hook>::~shared_ptr[abi:ne180000]()
PUBLIC 29358 0 geode::impl::ResultData<geode::Hook*, std::__ndk1::basic_string<char, std::__ndk1::char_traits<char>, std::__ndk1::allocator<char> > >::~ResultData()
PUBLIC 293cc 0 std::__ndk1::vector<std::__ndk1::basic_string<char, std::__ndk1::char_traits<char>, std::__ndk1::allocator<char> >, std::__ndk1::allocator<std::__ndk1::basic_string<char, std::__ndk1::char_traits<char>, std::__ndk1::allocator<char> > > >::~vector[abi:ne180000]()
PUBLIC 29448 0 geode::modifier::ModifyBase<geode::modifier::ModifyDerive<MyCCSpriteBatchNode, cocos2d::CCSpriteBatchNode> >::apply()
PUBLIC 2944c 0 _ZN5geode15UnwrapExceptionC2IRPNS_4HookEQsr4implE18IsStringStreamableIT_EEENS_4impl5OkTagEOS5_
PUBLIC 295a0 0 std::__ndk1::__throw_bad_variant_access[abi:ne180000]()
PUBLIC 295d4 0 std::__ndk1::basic_stringstream<char, std::__ndk1::char_traits<char>, std::__ndk1::allocator<char> >::basic_stringstream[abi:ne180000]()
PUBLIC m 29700 0 std::__ndk1::basic_stringstream<char, std::__ndk1::char_traits<char>, std::__ndk1::allocator<char> >::~basic_stringstream()
PUBLIC 29780 0 geode::UnwrapException::~UnwrapException()
PUBLIC 297a4 0 std::__ndk1::__put_character_sequence[abi:ne180000]<char, std::__ndk1::char_traits<char> >(std::__ndk1::basic_ostream<char, std::__ndk1::char_traits<char> >, std::__ndk1::basic_ostream const*, unsigned long)
PUBLIC 29948 0 std::__ndk1::__pad_and_output[abi:ne180000]<char, std::__ndk1::char_traits<char> >(std::__ndk1::char_traits<char>, std::__ndk1::ostreambuf_iterator const*, std::__ndk1::ostreambuf_iterator const, std::__ndk1::ostreambuf_iterator const, std::__ndk1::ios_base&, std::__ndk1::ostreambuf_iterator)
PUBLIC 29b24 0 std::__ndk1::basic_stringbuf<char, std::__ndk1::char_traits<char>, std::__ndk1::allocator<char> >::str[abi:ne180000]() &&
PUBLIC 29c9c 0 std::__ndk1::basic_stringbuf<char, std::__ndk1::char_traits<char>, std::__ndk1::allocator<char> >::__init_buf_ptrs[abi:ne180000]()
PUBLIC 29de4 0 std::__ndk1::vector<std::__ndk1::basic_string<char, std::__ndk1::char_traits<char>, std::__ndk1::allocator<char> >, std::__ndk1::allocator<std::__ndk1::basic_string<char, std::__ndk1::char_traits<char>, std::__ndk1::allocator<char> > > >::__push_back_slow_path<std::__ndk1::basic_string<char, std::__ndk1::char_traits<char>, std::__ndk1::allocator<char> > const&>(std::__ndk1::basic_string<char, std::__ndk1::char_traits<char>, std::__ndk1::allocator<char> > const&)
PUBLIC 2a008 0 std::__ndk1::__split_buffer<std::__ndk1::basic_string<char, std::__ndk1::char_traits<char>, std::__ndk1::allocator<char> >, std::__ndk1::allocator<std::__ndk1::basic_string<char, std::__ndk1::char_traits<char>, std::__ndk1::allocator<char> > >&>::~__split_buffer()
PUBLIC 2a070 0 std::__ndk1::vector<std::__ndk1::basic_string<char, std::__ndk1::char_traits<char>, std::__ndk1::allocator<char> >, std::__ndk1::allocator<std::__ndk1::basic_string<char, std::__ndk1::char_traits<char>, std::__ndk1::allocator<char> > > >::__throw_length_error[abi:ne180000]() const
PUBLIC 2a084 0 std::__ndk1::__variant_detail::__visitation::__base::__dispatcher<(unsigned long)0>::__dispatch[abi:ne180000]<std::__ndk1::__variant_detail::__dtor<std::__ndk1::__variant_detail::__traits<geode::Hook*, std::__ndk1::basic_string<char, std::__ndk1::char_traits<char>, std::__ndk1::allocator<char> > >, (std::__ndk1::__variant_detail::_Trait)1>::__destroy[abi:ne180000]()::{lambda(auto:1&)#1}, std::__ndk1::__variant_detail::__base<(std::__ndk1::__variant_detail::__traits<geode::Hook*, std::__ndk1::basic_string<char, std::__ndk1::char_traits<char>, std::__ndk1::allocator<char> > >)1, geode::Hook, std::__ndk1::allocator<char> >&>(std::__ndk1::__variant_detail::__dtor<std::__ndk1::__variant_detail::__traits<geode::Hook*, std::__ndk1::basic_string<char, std::__ndk1::char_traits<char>, std::__ndk1::allocator<char> > >, (std::__ndk1::__variant_detail::_Trait)1>, std::__ndk1::__variant_detail::__base<(std::__ndk1::__variant_detail::__traits<geode::Hook*, std::__ndk1::basic_string<char, std::__ndk1::char_traits<char>, std::__ndk1::allocator<char> > >)1, geode::Hook, std::__ndk1::allocator<char> >&)
PUBLIC 2a088 0 std::__ndk1::__variant_detail::__visitation::__base::__dispatcher<(unsigned long)1>::__dispatch[abi:ne180000]<std::__ndk1::__variant_detail::__dtor<std::__ndk1::__variant_detail::__traits<geode::Hook*, std::__ndk1::basic_string<char, std::__ndk1::char_traits<char>, std::__ndk1::allocator<char> > >, (std::__ndk1::__variant_detail::_Trait)1>::__destroy[abi:ne180000]()::{lambda(auto:1&)#1}, std::__ndk1::__variant_detail::__base<(std::__ndk1::__variant_detail::__traits<geode::Hook*, std::__ndk1::basic_string<char, std::__ndk1::char_traits<char>, std::__ndk1::allocator<char> > >)1, geode::Hook, std::__ndk1::allocator<char> >&>(std::__ndk1::__variant_detail::__dtor<std::__ndk1::__variant_detail::__traits<geode::Hook*, std::__ndk1::basic_string<char, std::__ndk1::char_traits<char>, std::__ndk1::allocator<char> > >, (std::__ndk1::__variant_detail::_Trait)1>, std::__ndk1::__variant_detail::__base<(std::__ndk1::__variant_detail::__traits<geode::Hook*, std::__ndk1::basic_string<char, std::__ndk1::char_traits<char>, std::__ndk1::allocator<char> > >)1, geode::Hook, std::__ndk1::allocator<char> >&)
PUBLIC 2a09c 0 std::__ndk1::__tree<std::__ndk1::__value_type<std::__ndk1::basic_string<char, std::__ndk1::char_traits<char>, std::__ndk1::allocator<char> >, std::__ndk1::shared_ptr<geode::Hook> >, std::__ndk1::__map_value_compare<std::__ndk1::basic_string<char, std::__ndk1::char_traits<char>, std::__ndk1::allocator<char> >, std::__ndk1::__value_type<std::__ndk1::basic_string<char, std::__ndk1::char_traits<char>, std::__ndk1::allocator<char> >, std::__ndk1::shared_ptr<geode::Hook> >, std::__ndk1::less<std::__ndk1::basic_string<char, std::__ndk1::char_traits<char>, std::__ndk1::allocator<char> > >, true>, std::__ndk1::allocator<std::__ndk1::__value_type<std::__ndk1::basic_string<char, std::__ndk1::char_traits<char>, std::__ndk1::allocator<char> >, std::__ndk1::shared_ptr<geode::Hook> > > >::find<std::__ndk1::basic_string<char, std::__ndk1::char_traits<char>, std::__ndk1::allocator<char> > >(std::__ndk1::basic_string<char, std::__ndk1::char_traits<char>, std::__ndk1::allocator<char> > const&)
PUBLIC 2a1bc 0 std::__ndk1::__tree<std::__ndk1::__value_type<std::__ndk1::basic_string<char, std::__ndk1::char_traits<char>, std::__ndk1::allocator<char> >, std::__ndk1::shared_ptr<geode::Hook> >, std::__ndk1::__map_value_compare<std::__ndk1::basic_string<char, std::__ndk1::char_traits<char>, std::__ndk1::allocator<char> >, std::__ndk1::__value_type<std::__ndk1::basic_string<char, std::__ndk1::char_traits<char>, std::__ndk1::allocator<char> >, std::__ndk1::shared_ptr<geode::Hook> >, std::__ndk1::less<std::__ndk1::basic_string<char, std::__ndk1::char_traits<char>, std::__ndk1::allocator<char> > >, true>, std::__ndk1::allocator<std::__ndk1::__value_type<std::__ndk1::basic_string<char, std::__ndk1::char_traits<char>, std::__ndk1::allocator<char> >, std::__ndk1::shared_ptr<geode::Hook> > > >::erase(std::__ndk1::__tree_const_iterator<std::__ndk1::__value_type<std::__ndk1::basic_string<char, std::__ndk1::char_traits<char>, std::__ndk1::allocator<char> >, std::__ndk1::shared_ptr<geode::Hook> >, std::__ndk1::__tree_node<std::__ndk1::__value_type<std::__ndk1::basic_string<char, std::__ndk1::char_traits<char>, std::__ndk1::allocator<char> >, std::__ndk1::shared_ptr<geode::Hook> >, void*>*, long>)
PUBLIC 2a660 0 std::__ndk1::__tree<std::__ndk1::__value_type<std::__ndk1::basic_string<char, std::__ndk1::char_traits<char>, std::__ndk1::allocator<char> >, std::__ndk1::shared_ptr<geode::Hook> >, std::__ndk1::__map_value_compare<std::__ndk1::basic_string<char, std::__ndk1::char_traits<char>, std::__ndk1::allocator<char> >, std::__ndk1::__value_type<std::__ndk1::basic_string<char, std::__ndk1::char_traits<char>, std::__ndk1::allocator<char> >, std::__ndk1::shared_ptr<geode::Hook> >, std::__ndk1::less<std::__ndk1::basic_string<char, std::__ndk1::char_traits<char>, std::__ndk1::allocator<char> > >, true>, std::__ndk1::allocator<std::__ndk1::__value_type<std::__ndk1::basic_string<char, std::__ndk1::char_traits<char>, std::__ndk1::allocator<char> >, std::__ndk1::shared_ptr<geode::Hook> > > >::destroy(std::__ndk1::__tree_node<std::__ndk1::__value_type<std::__ndk1::basic_string<char, std::__ndk1::char_traits<char>, std::__ndk1::allocator<char> >, std::__ndk1::shared_ptr<geode::Hook> >, void*>*)
PUBLIC 2a6e4 0 geode::modifier::AsStaticFunction_createWithTexture<MyCCSpriteBatchNode, cocos2d::CCSpriteBatchNode* (*)(cocos2d::CCTexture2D*, unsigned int)>::Impl<cocos2d::CCSpriteBatchNode* (*)(cocos2d::CCTexture2D*, unsigned int)>::function(cocos2d::CCTexture2D*, unsigned int)
PUBLIC 2a8fc 0 geode::modifier::AsStaticFunction_addChild<MyCCSpriteBatchNode, void (MyCCSpriteBatchNode::*)(cocos2d::CCNode*, int, int)>::Impl<void (MyCCSpriteBatchNode::*)(cocos2d::CCNode*, int, int)>::function(MyCCSpriteBatchNode*, cocos2d::CCNode*, int, int)
PUBLIC 2aad0 0 geode::modifier::AsStaticFunction_removeChild<MyCCSpriteBatchNode, void (MyCCSpriteBatchNode::*)(cocos2d::CCNode*, bool)>::Impl<void (MyCCSpriteBatchNode::*)(cocos2d::CCNode*, bool)>::function(MyCCSpriteBatchNode*, cocos2d::CCNode*, bool)
PUBLIC 2abdc 0 geode::modifier::AsStaticFunction_removeAllChildrenWithCleanup<MyCCSpriteBatchNode, void (MyCCSpriteBatchNode::*)(bool)>::Impl<void (MyCCSpriteBatchNode::*)(bool)>::function(MyCCSpriteBatchNode*, bool)
PUBLIC 2acd0 0 geode::modifier::AsStaticFunction_reorderChild<MyCCSpriteBatchNode, void (MyCCSpriteBatchNode::*)(cocos2d::CCNode*, int)>::Impl<void (MyCCSpriteBatchNode::*)(cocos2d::CCNode*, int)>::function(MyCCSpriteBatchNode*, cocos2d::CCNode*, int)
PUBLIC 2addc 0 geode::Hook::create<void (*)(MyCCSpriteBatchNode*)>(void*, void (*)(MyCCSpriteBatchNode*), std::__ndk1::basic_string<char, std::__ndk1::char_traits<char>, std::__ndk1::allocator<char> > const&, tulip::hook::TulipConvention, tulip::hook::HookMetadata const&)
PUBLIC 2af10 0 geode::modifier::AsStaticFunction_sortAllChildren<MyCCSpriteBatchNode, void (MyCCSpriteBatchNode::*)()>::Impl<void (MyCCSpriteBatchNode::*)()>::function(MyCCSpriteBatchNode*)
PUBLIC 2aff8 0 geode::modifier::AsStaticFunction_draw<MyCCSpriteBatchNode, void (MyCCSpriteBatchNode::*)()>::Impl<void (MyCCSpriteBatchNode::*)()>::function(MyCCSpriteBatchNode*)
PUBLIC 2b0e0 0 geode::modifier::AsStaticFunction_visit<MyCCSpriteBatchNode, void (MyCCSpriteBatchNode::*)()>::Impl<void (MyCCSpriteBatchNode::*)()>::function(MyCCSpriteBatchNode*)
PUBLIC 2b1c8 0 geode::modifier::AsStaticFunction_setBlendFunc<MyCCSpriteBatchNode, void (MyCCSpriteBatchNode::*)(cocos2d::_ccBlendFunc)>::Impl<void (MyCCSpriteBatchNode::*)(cocos2d::_ccBlendFunc)>::function(MyCCSpriteBatchNode*, cocos2d::_ccBlendFunc)
PUBLIC 2b360 0 std::__ndk1::shared_ptr<tulip::hook::CallingConvention>::~shared_ptr[abi:ne180000]()
PUBLIC 2b3b0 0 tulip::hook::HandlerMetadata::~HandlerMetadata()
PUBLIC 2b414 0 geode::modifier::FieldContainer::getField(unsigned long)
PUBLIC 2b858 0 geode::modifier::FieldContainer::setField(unsigned long, unsigned long, std::__ndk1::function<void (void*)>)
PUBLIC 2b964 0 geode::modifier::FieldIntermediate<MyCCSpriteBatchNode, cocos2d::CCSpriteBatchNode>::fieldDestructor(void*)
PUBLIC 2bc24 0 std::__ndk1::vector<void*, std::__ndk1::allocator<void*> >::__throw_length_error[abi:ne180000]() const
PUBLIC 2bc38 0 std::__ndk1::vector<std::__ndk1::function<void (void*)>, std::__ndk1::allocator<std::__ndk1::function<void (void*)> > >::__throw_length_error[abi:ne180000]() const
PUBLIC 2bc4c 0 std::__ndk1::vector<void*, std::__ndk1::allocator<void*> >::__throw_out_of_range[abi:ne180000]() const
PUBLIC 2bc58 0 std::__ndk1::__throw_out_of_range[abi:ne180000](char const*)
PUBLIC 2bca8 0 std::out_of_range::out_of_range[abi:ne180000](char const*)
PUBLIC 2bcd8 0 std::__ndk1::vector<std::__ndk1::function<void (void*)>, std::__ndk1::allocator<std::__ndk1::function<void (void*)> > >::__throw_out_of_range[abi:ne180000]() const
PUBLIC 2bce4 0 std::__ndk1::__function::__base<void (void*)>::~__base()
PUBLIC 2bce8 0 std::__ndk1::__function::__func<void (*)(void*), std::__ndk1::allocator<void (*)(void*)>, void (void*)>::~__func()
PUBLIC 2bcec 0 std::__ndk1::__function::__func<void (*)(void*), std::__ndk1::allocator<void (*)(void*)>, void (void*)>::__clone() const
PUBLIC 2bd24 0 std::__ndk1::__function::__func<void (*)(void*), std::__ndk1::allocator<void (*)(void*)>, void (void*)>::__clone(std::__ndk1::__function::__base<void (void*)>*) const
PUBLIC 2bd3c 0 std::__ndk1::__function::__func<void (*)(void*), std::__ndk1::allocator<void (*)(void*)>, void (void*)>::destroy()
PUBLIC 2bd40 0 std::__ndk1::__function::__func<void (*)(void*), std::__ndk1::allocator<void (*)(void*)>, void (void*)>::destroy_deallocate()
PUBLIC 2bd44 0 std::__ndk1::__function::__func<void (*)(void*), std::__ndk1::allocator<void (*)(void*)>, void (void*)>::operator()(void*&&)
PUBLIC 2bd54 0 std::__ndk1::__function::__func<void (*)(void*), std::__ndk1::allocator<void (*)(void*)>, void (void*)>::target(std::type_info const&) const
PUBLIC 2bd70 0 std::__ndk1::__function::__func<void (*)(void*), std::__ndk1::allocator<void (*)(void*)>, void (void*)>::target_type() const
PUBLIC 2bd7c 0 BatchHandler::~BatchHandler()
PUBLIC 2bdc8 0 std::__ndk1::__hash_table<std::__ndk1::__hash_value_type<cocos2d::CCSpriteBatchNode*, bool>, std::__ndk1::__unordered_map_hasher<cocos2d::CCSpriteBatchNode*, std::__ndk1::__hash_value_type<cocos2d::CCSpriteBatchNode*, bool>, std::__ndk1::hash<cocos2d::CCSpriteBatchNode*>, std::__ndk1::equal_to<cocos2d::CCSpriteBatchNode*>, true>, std::__ndk1::__unordered_map_equal<cocos2d::CCSpriteBatchNode*, std::__ndk1::__hash_value_type<cocos2d::CCSpriteBatchNode*, bool>, std::__ndk1::equal_to<cocos2d::CCSpriteBatchNode*>, std::__ndk1::hash<cocos2d::CCSpriteBatchNode*>, true>, std::__ndk1::allocator<std::__ndk1::__hash_value_type<cocos2d::CCSpriteBatchNode*, bool> > >::__emplace_unique_key_args<cocos2d::CCSpriteBatchNode*, std::__ndk1::piecewise_construct_t const&, std::__ndk1::tuple<cocos2d::CCSpriteBatchNode* const&>, std::__ndk1::tuple<> >(cocos2d::CCSpriteBatchNode* const&, std::__ndk1::piecewise_construct_t const&, std::__ndk1::tuple<cocos2d::CCSpriteBatchNode* const&>, std::__ndk1::tuple<>)
PUBLIC 2c108 0 std::__ndk1::__hash_table<std::__ndk1::__hash_value_type<cocos2d::CCSpriteBatchNode*, bool>, std::__ndk1::__unordered_map_hasher<cocos2d::CCSpriteBatchNode*, std::__ndk1::__hash_value_type<cocos2d::CCSpriteBatchNode*, bool>, std::__ndk1::hash<cocos2d::CCSpriteBatchNode*>, std::__ndk1::equal_to<cocos2d::CCSpriteBatchNode*>, true>, std::__ndk1::__unordered_map_equal<cocos2d::CCSpriteBatchNode*, std::__ndk1::__hash_value_type<cocos2d::CCSpriteBatchNode*, bool>, std::__ndk1::equal_to<cocos2d::CCSpriteBatchNode*>, std::__ndk1::hash<cocos2d::CCSpriteBatchNode*>, true>, std::__ndk1::allocator<std::__ndk1::__hash_value_type<cocos2d::CCSpriteBatchNode*, bool> > >::__do_rehash<true>(unsigned long)
PUBLIC 2c2d0 0 std::__ndk1::__tree<std::__ndk1::__value_type<std::__ndk1::basic_string<char, std::__ndk1::char_traits<char>, std::__ndk1::allocator<char> >, std::__ndk1::shared_ptr<geode::Hook> >, std::__ndk1::__map_value_compare<std::__ndk1::basic_string<char, std::__ndk1::char_traits<char>, std::__ndk1::allocator<char> >, std::__ndk1::__value_type<std::__ndk1::basic_string<char, std::__ndk1::char_traits<char>, std::__ndk1::allocator<char> >, std::__ndk1::shared_ptr<geode::Hook> >, std::__ndk1::less<std::__ndk1::basic_string<char, std::__ndk1::char_traits<char>, std::__ndk1::allocator<char> > >, true>, std::__ndk1::allocator<std::__ndk1::__value_type<std::__ndk1::basic_string<char, std::__ndk1::char_traits<char>, std::__ndk1::allocator<char> >, std::__ndk1::shared_ptr<geode::Hook> > > >::__emplace_unique_key_args<std::__ndk1::basic_string<char, std::__ndk1::char_traits<char>, std::__ndk1::allocator<char> >, std::__ndk1::piecewise_construct_t const&, std::__ndk1::tuple<std::__ndk1::basic_string<char, std::__ndk1::char_traits<char>, std::__ndk1::allocator<char> >&&>, std::__ndk1::tuple<> >(std::__ndk1::basic_string<char, std::__ndk1::char_traits<char>, std::__ndk1::allocator<char> > const&, std::__ndk1::piecewise_construct_t const&, std::__ndk1::tuple<std::__ndk1::basic_string<char, std::__ndk1::char_traits<char>, std::__ndk1::allocator<char> >&&>, std::__ndk1::tuple<>)
PUBLIC 2c438 0 std::__ndk1::unique_ptr<std::__ndk1::__tree_node<std::__ndk1::__value_type<std::__ndk1::basic_string<char, std::__ndk1::char_traits<char>, std::__ndk1::allocator<char> >, std::__ndk1::shared_ptr<geode::Hook> >, void*>, std::__ndk1::__tree_node_destructor<std::__ndk1::allocator<std::__ndk1::__tree_node<std::__ndk1::__value_type<std::__ndk1::basic_string<char, std::__ndk1::char_traits<char>, std::__ndk1::allocator<char> >, std::__ndk1::shared_ptr<geode::Hook> >, void*> > > >::~unique_ptr[abi:ne180000]()
PUBLIC 2c4b4 0 std::__ndk1::__tree_balance_after_insert[abi:ne180000]<std::__ndk1::__tree_node_base<void*>*>(std::__ndk1::__tree_node_base<void*>*, std::__ndk1::__tree_node_base<void*>*)
PUBLIC 2c664 0 geode::addresser::Addresser::addressOfVirtual<void, cocos2d::CCSpriteBatchNode, cocos2d::CCNode*, int, int>(void (cocos2d::CCSpriteBatchNode::*)(cocos2d::CCNode*, int, int))
PUBLIC 2c770 0 MyCCSpriteBatchNode::recursiveBlend(cocos2d::CCNode*, cocos2d::_ccBlendFunc)
PUBLIC 2c89c 0 geode::cast::traverseTypeinfoFor(void*, geode::cast::ClassTypeinfoType const*, char const*)
PUBLIC 2c994 0 geode::cocos::CCArrayExt<cocos2d::CCNode*>::~CCArrayExt()
PUBLIC 2c9b0 0 geode::addresser::Addresser::addressOfVirtual<void, cocos2d::CCSpriteBatchNode, cocos2d::CCNode*, bool>(void (cocos2d::CCSpriteBatchNode::*)(cocos2d::CCNode*, bool))
PUBLIC 2cabc 0 geode::addresser::Addresser::addressOfVirtual<void, cocos2d::CCSpriteBatchNode, bool>(void (cocos2d::CCSpriteBatchNode::*)(bool))
PUBLIC 2cbc8 0 geode::addresser::Addresser::addressOfVirtual<void, cocos2d::CCSpriteBatchNode, cocos2d::CCNode*, int>(void (cocos2d::CCSpriteBatchNode::*)(cocos2d::CCNode*, int))
PUBLIC 2ccd4 0 geode::addresser::Addresser::addressOfVirtual<void, cocos2d::CCSpriteBatchNode, >(void (cocos2d::CCSpriteBatchNode::*)())
PUBLIC 2ce04 0 geode::addresser::Addresser::addressOfVirtual<void, cocos2d::CCSpriteBatchNode, cocos2d::_ccBlendFunc>(void (cocos2d::CCSpriteBatchNode::*)(cocos2d::_ccBlendFunc))
PUBLIC 2cf10 0 geode::modifier::ModifyDerive<MyCCSprite, cocos2d::CCSprite>::apply()
PUBLIC 2d27c 0 geode::modifier::ModifyBase<geode::modifier::ModifyDerive<MyCCSprite, cocos2d::CCSprite> >::apply()
PUBLIC 2d280 0 geode::modifier::AsStaticFunction_setBatchNode<MyCCSprite, void (MyCCSprite::*)(cocos2d::CCSpriteBatchNode*)>::Impl<void (MyCCSprite::*)(cocos2d::CCSpriteBatchNode*)>::function(MyCCSprite*, cocos2d::CCSpriteBatchNode*)
PUBLIC 2d358 0 geode::addresser::Addresser::addressOfVirtual<void, cocos2d::CCSprite, cocos2d::CCSpriteBatchNode*>(void (cocos2d::CCSprite::*)(cocos2d::CCSpriteBatchNode*))
PUBLIC 2d400 0 cocos2d::CCSprite::CCSprite(geode::ZeroConstructorType)
PUBLIC 2d47c 0 std::__ndk1::shared_ptr<geode::SettingV3>::~shared_ptr[abi:ne180000]()
PUBLIC 2d4cc 0 std::__ndk1::shared_ptr<geode::BoolSettingV3>::~shared_ptr[abi:ne180000]()
PUBLIC 2d51c 0 geode::Mod::getSavedValue<bool>(std::__ndk1::basic_string_view<char, std::__ndk1::char_traits<char> >)
PUBLIC 2d6ac 0 geode::impl::ResultData<matjson::Value&, std::__ndk1::basic_string<char, std::__ndk1::char_traits<char>, std::__ndk1::allocator<char> > >::~ResultData()
PUBLIC 2d720 0 _ZN5geode15UnwrapExceptionC2IRNSt6__ndk112basic_stringIcNS2_11char_traitsIcEENS2_9allocatorIcEEEEQsr4implE18IsStringStreamableIT_EEENS_4impl6ErrTagEOSA_
PUBLIC 2d888 0 std::__ndk1::__variant_detail::__visitation::__base::__dispatcher<(unsigned long)0>::__dispatch[abi:ne180000]<std::__ndk1::__variant_detail::__dtor<std::__ndk1::__variant_detail::__traits<std::__ndk1::reference_wrapper<matjson::Value>, std::__ndk1::basic_string<char, std::__ndk1::char_traits<char>, std::__ndk1::allocator<char> > >, (std::__ndk1::__variant_detail::_Trait)1>::__destroy[abi:ne180000]()::{lambda(auto:1&)#1}, std::__ndk1::__variant_detail::__base<(std::__ndk1::__variant_detail::__traits<std::__ndk1::reference_wrapper<matjson::Value>, std::__ndk1::basic_string<char, std::__ndk1::char_traits<char>, std::__ndk1::allocator<char> > >)1, matjson::Value, std::__ndk1::allocator<char> >&>(std::__ndk1::__variant_detail::__dtor<std::__ndk1::__variant_detail::__traits<std::__ndk1::reference_wrapper<matjson::Value>, std::__ndk1::basic_string<char, std::__ndk1::char_traits<char>, std::__ndk1::allocator<char> > >, (std::__ndk1::__variant_detail::_Trait)1>, std::__ndk1::__variant_detail::__base<(std::__ndk1::__variant_detail::__traits<std::__ndk1::reference_wrapper<matjson::Value>, std::__ndk1::basic_string<char, std::__ndk1::char_traits<char>, std::__ndk1::allocator<char> > >)1, matjson::Value, std::__ndk1::allocator<char> >&)
PUBLIC 2d88c 0 std::__ndk1::__variant_detail::__visitation::__base::__dispatcher<(unsigned long)1>::__dispatch[abi:ne180000]<std::__ndk1::__variant_detail::__dtor<std::__ndk1::__variant_detail::__traits<std::__ndk1::reference_wrapper<matjson::Value>, std::__ndk1::basic_string<char, std::__ndk1::char_traits<char>, std::__ndk1::allocator<char> > >, (std::__ndk1::__variant_detail::_Trait)1>::__destroy[abi:ne180000]()::{lambda(auto:1&)#1}, std::__ndk1::__variant_detail::__base<(std::__ndk1::__variant_detail::__traits<std::__ndk1::reference_wrapper<matjson::Value>, std::__ndk1::basic_string<char, std::__ndk1::char_traits<char>, std::__ndk1::allocator<char> > >)1, matjson::Value, std::__ndk1::allocator<char> >&>(std::__ndk1::__variant_detail::__dtor<std::__ndk1::__variant_detail::__traits<std::__ndk1::reference_wrapper<matjson::Value>, std::__ndk1::basic_string<char, std::__ndk1::char_traits<char>, std::__ndk1::allocator<char> > >, (std::__ndk1::__variant_detail::_Trait)1>, std::__ndk1::__variant_detail::__base<(std::__ndk1::__variant_detail::__traits<std::__ndk1::reference_wrapper<matjson::Value>, std::__ndk1::basic_string<char, std::__ndk1::char_traits<char>, std::__ndk1::allocator<char> > >)1, matjson::Value, std::__ndk1::allocator<char> >&)
PUBLIC 2d8a0 0 std::__ndk1::__variant_detail::__visitation::__base::__dispatcher<(unsigned long)0>::__dispatch[abi:ne180000]<std::__ndk1::__variant_detail::__dtor<std::__ndk1::__variant_detail::__traits<bool, std::__ndk1::basic_string<char, std::__ndk1::char_traits<char>, std::__ndk1::allocator<char> > >, (std::__ndk1::__variant_detail::_Trait)1>::__destroy[abi:ne180000]()::{lambda(auto:1&)#1}, std::__ndk1::__variant_detail::__base<(std::__ndk1::__variant_detail::__traits<bool, std::__ndk1::basic_string<char, std::__ndk1::char_traits<char>, std::__ndk1::allocator<char> > >)1, bool, std::__ndk1::allocator<char> >&>(std::__ndk1::__variant_detail::__dtor<std::__ndk1::__variant_detail::__traits<bool, std::__ndk1::basic_string<char, std::__ndk1::char_traits<char>, std::__ndk1::allocator<char> > >, (std::__ndk1::__variant_detail::_Trait)1>, std::__ndk1::__variant_detail::__base<(std::__ndk1::__variant_detail::__traits<bool, std::__ndk1::basic_string<char, std::__ndk1::char_traits<char>, std::__ndk1::allocator<char> > >)1, bool, std::__ndk1::allocator<char> >&)
PUBLIC 2d8a4 0 std::__ndk1::__variant_detail::__visitation::__base::__dispatcher<(unsigned long)1>::__dispatch[abi:ne180000]<std::__ndk1::__variant_detail::__dtor<std::__ndk1::__variant_detail::__traits<bool, std::__ndk1::basic_string<char, std::__ndk1::char_traits<char>, std::__ndk1::allocator<char> > >, (std::__ndk1::__variant_detail::_Trait)1>::__destroy[abi:ne180000]()::{lambda(auto:1&)#1}, std::__ndk1::__variant_detail::__base<(std::__ndk1::__variant_detail::__traits<bool, std::__ndk1::basic_string<char, std::__ndk1::char_traits<char>, std::__ndk1::allocator<char> > >)1, bool, std::__ndk1::allocator<char> >&>(std::__ndk1::__variant_detail::__dtor<std::__ndk1::__variant_detail::__traits<bool, std::__ndk1::basic_string<char, std::__ndk1::char_traits<char>, std::__ndk1::allocator<char> > >, (std::__ndk1::__variant_detail::_Trait)1>, std::__ndk1::__variant_detail::__base<(std::__ndk1::__variant_detail::__traits<bool, std::__ndk1::basic_string<char, std::__ndk1::char_traits<char>, std::__ndk1::allocator<char> > >)1, bool, std::__ndk1::allocator<char> >&)
PUBLIC 2d8b8 0 geode::SettingChangedFilterV3::~SettingChangedFilterV3()
PUBLIC 2d908 0 std::__ndk1::__function::__base<void (std::__ndk1::shared_ptr<geode::SettingV3>)>::~__base()
PUBLIC 2d90c 0 std::__ndk1::__function::__func<geode::listenForSettingChangesV3<bool, geodeExecFunction101<(anonymous namespace)::ExecFuncUnique101>(geode::ModStateEvent*)::{lambda(bool)#1}>(std::__ndk1::basic_string_view<char, std::__ndk1::char_traits<char> >, geodeExecFunction101<(anonymous namespace)::ExecFuncUnique101>(geode::ModStateEvent*)::{lambda(bool)#1}&&, geode::Mod*)::{lambda(std::__ndk1::shared_ptr<geode::SettingV3>)#1}, std::__ndk1::allocator<geode::listenForSettingChangesV3<bool, geodeExecFunction101<(anonymous namespace)::ExecFuncUnique101>(geode::ModStateEvent*)::{lambda(bool)#1}>(std::__ndk1::basic_string_view<char, std::__ndk1::char_traits<char> >, geodeExecFunction101<(anonymous namespace)::ExecFuncUnique101>(geode::ModStateEvent*)::{lambda(bool)#1}&&, geode::Mod*)::{lambda(std::__ndk1::shared_ptr<geode::SettingV3>)#1}>, void (std::__ndk1::shared_ptr<geode::SettingV3>)>::~__func()
PUBLIC 2d910 0 std::__ndk1::__function::__func<geode::listenForSettingChangesV3<bool, geodeExecFunction101<(anonymous namespace)::ExecFuncUnique101>(geode::ModStateEvent*)::{lambda(bool)#1}>(std::__ndk1::basic_string_view<char, std::__ndk1::char_traits<char> >, geodeExecFunction101<(anonymous namespace)::ExecFuncUnique101>(geode::ModStateEvent*)::{lambda(bool)#1}&&, geode::Mod*)::{lambda(std::__ndk1::shared_ptr<geode::SettingV3>)#1}, std::__ndk1::allocator<geode::listenForSettingChangesV3<bool, geodeExecFunction101<(anonymous namespace)::ExecFuncUnique101>(geode::ModStateEvent*)::{lambda(bool)#1}>(std::__ndk1::basic_string_view<char, std::__ndk1::char_traits<char> >, geodeExecFunction101<(anonymous namespace)::ExecFuncUnique101>(geode::ModStateEvent*)::{lambda(bool)#1}&&, geode::Mod*)::{lambda(std::__ndk1::shared_ptr<geode::SettingV3>)#1}>, void (std::__ndk1::shared_ptr<geode::SettingV3>)>::__clone() const
PUBLIC 2d948 0 std::__ndk1::__function::__func<geode::listenForSettingChangesV3<bool, geodeExecFunction101<(anonymous namespace)::ExecFuncUnique101>(geode::ModStateEvent*)::{lambda(bool)#1}>(std::__ndk1::basic_string_view<char, std::__ndk1::char_traits<char> >, geodeExecFunction101<(anonymous namespace)::ExecFuncUnique101>(geode::ModStateEvent*)::{lambda(bool)#1}&&, geode::Mod*)::{lambda(std::__ndk1::shared_ptr<geode::SettingV3>)#1}, std::__ndk1::allocator<geode::listenForSettingChangesV3<bool, geodeExecFunction101<(anonymous namespace)::ExecFuncUnique101>(geode::ModStateEvent*)::{lambda(bool)#1}>(std::__ndk1::basic_string_view<char, std::__ndk1::char_traits<char> >, geodeExecFunction101<(anonymous namespace)::ExecFuncUnique101>(geode::ModStateEvent*)::{lambda(bool)#1}&&, geode::Mod*)::{lambda(std::__ndk1::shared_ptr<geode::SettingV3>)#1}>, void (std::__ndk1::shared_ptr<geode::SettingV3>)>::__clone(std::__ndk1::__function::__base<void (std::__ndk1::shared_ptr<geode::SettingV3>)>*) const
PUBLIC 2d960 0 std::__ndk1::__function::__func<geode::listenForSettingChangesV3<bool, geodeExecFunction101<(anonymous namespace)::ExecFuncUnique101>(geode::ModStateEvent*)::{lambda(bool)#1}>(std::__ndk1::basic_string_view<char, std::__ndk1::char_traits<char> >, geodeExecFunction101<(anonymous namespace)::ExecFuncUnique101>(geode::ModStateEvent*)::{lambda(bool)#1}&&, geode::Mod*)::{lambda(std::__ndk1::shared_ptr<geode::SettingV3>)#1}, std::__ndk1::allocator<geode::listenForSettingChangesV3<bool, geodeExecFunction101<(anonymous namespace)::ExecFuncUnique101>(geode::ModStateEvent*)::{lambda(bool)#1}>(std::__ndk1::basic_string_view<char, std::__ndk1::char_traits<char> >, geodeExecFunction101<(anonymous namespace)::ExecFuncUnique101>(geode::ModStateEvent*)::{lambda(bool)#1}&&, geode::Mod*)::{lambda(std::__ndk1::shared_ptr<geode::SettingV3>)#1}>, void (std::__ndk1::shared_ptr<geode::SettingV3>)>::destroy()
PUBLIC 2d964 0 std::__ndk1::__function::__func<geode::listenForSettingChangesV3<bool, geodeExecFunction101<(anonymous namespace)::ExecFuncUnique101>(geode::ModStateEvent*)::{lambda(bool)#1}>(std::__ndk1::basic_string_view<char, std::__ndk1::char_traits<char> >, geodeExecFunction101<(anonymous namespace)::ExecFuncUnique101>(geode::ModStateEvent*)::{lambda(bool)#1}&&, geode::Mod*)::{lambda(std::__ndk1::shared_ptr<geode::SettingV3>)#1}, std::__ndk1::allocator<geode::listenForSettingChangesV3<bool, geodeExecFunction101<(anonymous namespace)::ExecFuncUnique101>(geode::ModStateEvent*)::{lambda(bool)#1}>(std::__ndk1::basic_string_view<char, std::__ndk1::char_traits<char> >, geodeExecFunction101<(anonymous namespace)::ExecFuncUnique101>(geode::ModStateEvent*)::{lambda(bool)#1}&&, geode::Mod*)::{lambda(std::__ndk1::shared_ptr<geode::SettingV3>)#1}>, void (std::__ndk1::shared_ptr<geode::SettingV3>)>::destroy_deallocate()
PUBLIC 2d968 0 std::__ndk1::__function::__func<geode::listenForSettingChangesV3<bool, geodeExecFunction101<(anonymous namespace)::ExecFuncUnique101>(geode::ModStateEvent*)::{lambda(bool)#1}>(std::__ndk1::basic_string_view<char, std::__ndk1::char_traits<char> >, geodeExecFunction101<(anonymous namespace)::ExecFuncUnique101>(geode::ModStateEvent*)::{lambda(bool)#1}&&, geode::Mod*)::{lambda(std::__ndk1::shared_ptr<geode::SettingV3>)#1}, std::__ndk1::allocator<geode::listenForSettingChangesV3<bool, geodeExecFunction101<(anonymous namespace)::ExecFuncUnique101>(geode::ModStateEvent*)::{lambda(bool)#1}>(std::__ndk1::basic_string_view<char, std::__ndk1::char_traits<char> >, geodeExecFunction101<(anonymous namespace)::ExecFuncUnique101>(geode::ModStateEvent*)::{lambda(bool)#1}&&, geode::Mod*)::{lambda(std::__ndk1::shared_ptr<geode::SettingV3>)#1}>, void (std::__ndk1::shared_ptr<geode::SettingV3>)>::operator()(std::__ndk1::shared_ptr<geode::SettingV3>&&)
PUBLIC 2da68 0 std::__ndk1::__function::__func<geode::listenForSettingChangesV3<bool, geodeExecFunction101<(anonymous namespace)::ExecFuncUnique101>(geode::ModStateEvent*)::{lambda(bool)#1}>(std::__ndk1::basic_string_view<char, std::__ndk1::char_traits<char> >, geodeExecFunction101<(anonymous namespace)::ExecFuncUnique101>(geode::ModStateEvent*)::{lambda(bool)#1}&&, geode::Mod*)::{lambda(std::__ndk1::shared_ptr<geode::SettingV3>)#1}, std::__ndk1::allocator<geode::listenForSettingChangesV3<bool, geodeExecFunction101<(anonymous namespace)::ExecFuncUnique101>(geode::ModStateEvent*)::{lambda(bool)#1}>(std::__ndk1::basic_string_view<char, std::__ndk1::char_traits<char> >, geodeExecFunction101<(anonymous namespace)::ExecFuncUnique101>(geode::ModStateEvent*)::{lambda(bool)#1}&&, geode::Mod*)::{lambda(std::__ndk1::shared_ptr<geode::SettingV3>)#1}>, void (std::__ndk1::shared_ptr<geode::SettingV3>)>::target(std::type_info const&) const
PUBLIC 2da84 0 std::__ndk1::__function::__func<geode::listenForSettingChangesV3<bool, geodeExecFunction101<(anonymous namespace)::ExecFuncUnique101>(geode::ModStateEvent*)::{lambda(bool)#1}>(std::__ndk1::basic_string_view<char, std::__ndk1::char_traits<char> >, geodeExecFunction101<(anonymous namespace)::ExecFuncUnique101>(geode::ModStateEvent*)::{lambda(bool)#1}&&, geode::Mod*)::{lambda(std::__ndk1::shared_ptr<geode::SettingV3>)#1}, std::__ndk1::allocator<geode::listenForSettingChangesV3<bool, geodeExecFunction101<(anonymous namespace)::ExecFuncUnique101>(geode::ModStateEvent*)::{lambda(bool)#1}>(std::__ndk1::basic_string_view<char, std::__ndk1::char_traits<char> >, geodeExecFunction101<(anonymous namespace)::ExecFuncUnique101>(geode::ModStateEvent*)::{lambda(bool)#1}&&, geode::Mod*)::{lambda(std::__ndk1::shared_ptr<geode::SettingV3>)#1}>, void (std::__ndk1::shared_ptr<geode::SettingV3>)>::target_type() const
PUBLIC 2da90 0 geode::EventListener<geode::SettingChangedFilterV3>::getPool() const
PUBLIC 2da94 0 geode::EventListener<geode::SettingChangedFilterV3>::handle(geode::Event*)
PUBLIC 2dbf8 0 geode::EventListener<geode::SettingChangedFilterV3>::~EventListener()
PUBLIC 2dc94 0 geode::EventListener<geode::SettingChangedFilterV3>::~EventListener()
PUBLIC 2dd38 0 geode::EventListener<geode::ModStateFilter>::getPool() const
PUBLIC 2dd3c 0 geode::EventListener<geode::ModStateFilter>::handle(geode::Event*)
PUBLIC 2dea0 0 geode::EventListener<geode::ModStateFilter>::~EventListener()
PUBLIC 2defc 0 geode::EventListener<geode::ModStateFilter>::~EventListener()
PUBLIC 2df60 0 std::__ndk1::__function::__func<void (*)(geode::ModStateEvent*), std::__ndk1::allocator<void (*)(geode::ModStateEvent*)>, void (geode::ModStateEvent*)>::~__func()
PUBLIC 2df64 0 std::__ndk1::__function::__func<void (*)(geode::ModStateEvent*), std::__ndk1::allocator<void (*)(geode::ModStateEvent*)>, void (geode::ModStateEvent*)>::__clone() const
PUBLIC 2df98 0 std::__ndk1::__function::__func<void (*)(geode::ModStateEvent*), std::__ndk1::allocator<void (*)(geode::ModStateEvent*)>, void (geode::ModStateEvent*)>::__clone(std::__ndk1::__function::__base<void (geode::ModStateEvent*)>*) const
PUBLIC 2dfac 0 std::__ndk1::__function::__func<void (*)(geode::ModStateEvent*), std::__ndk1::allocator<void (*)(geode::ModStateEvent*)>, void (geode::ModStateEvent*)>::destroy()
PUBLIC 2dfb0 0 std::__ndk1::__function::__func<void (*)(geode::ModStateEvent*), std::__ndk1::allocator<void (*)(geode::ModStateEvent*)>, void (geode::ModStateEvent*)>::destroy_deallocate()
PUBLIC 2dfb4 0 std::__ndk1::__function::__func<void (*)(geode::ModStateEvent*), std::__ndk1::allocator<void (*)(geode::ModStateEvent*)>, void (geode::ModStateEvent*)>::operator()(geode::ModStateEvent*&&)
PUBLIC 2dfc4 0 std::__ndk1::__function::__func<void (*)(geode::ModStateEvent*), std::__ndk1::allocator<void (*)(geode::ModStateEvent*)>, void (geode::ModStateEvent*)>::target(std::type_info const&) const
PUBLIC 2dfe0 0 std::__ndk1::__function::__func<void (*)(geode::ModStateEvent*), std::__ndk1::allocator<void (*)(geode::ModStateEvent*)>, void (geode::ModStateEvent*)>::target_type() const
PUBLIC 2dfec 0 geode::modifier::ModifyDerive<MyGameManager, GameManager>::apply()
PUBLIC 2e318 0 geode::modifier::ModifyBase<geode::modifier::ModifyDerive<MyGameManager, GameManager> >::apply()
PUBLIC 2e31c 0 geode::modifier::AsStaticFunction_reloadAllStep5<MyGameManager, void (MyGameManager::*)()>::Impl<void (MyGameManager::*)()>::function(MyGameManager*)
PUBLIC 2e3f4 0 geode::modifier::ModifyDerive<MySimplePlayer, SimplePlayer>::apply()
PUBLIC 2e7ac 0 geode::modifier::ModifyBase<geode::modifier::ModifyDerive<MySimplePlayer, SimplePlayer> >::apply()
PUBLIC 2e7b0 0 geode::modifier::AsStaticFunction_updatePlayerFrame<MySimplePlayer, void (MySimplePlayer::*)(int, IconType)>::Impl<void (MySimplePlayer::*)(int, IconType)>::function(MySimplePlayer*, int, IconType)
PUBLIC 2e800 0 MySimplePlayer::updatePlayerShaders(bool)
PUBLIC 2eac0 0 geode::modifier::FieldIntermediate<MySimplePlayer, SimplePlayer>::self()
PUBLIC 2ec50 0 geode::modifier::FieldIntermediate<MySimplePlayer, SimplePlayer>::fieldDestructor(void*)
PUBLIC 2ec54 0 geode::Mod::getSavedValue<cocos2d::_ccColor3B>(std::__ndk1::basic_string_view<char, std::__ndk1::char_traits<char> >)
PUBLIC 2ede0 0 geode::Mod::getSavedValue<long>(std::__ndk1::basic_string_view<char, std::__ndk1::char_traits<char> >, long const&)
PUBLIC 2efbc 0 geode::cocos::CCArrayExt<CCSpritePart*>::~CCArrayExt()
PUBLIC 2efd8 0 std::__ndk1::__variant_detail::__visitation::__base::__dispatcher<(unsigned long)0>::__dispatch[abi:ne180000]<std::__ndk1::__variant_detail::__dtor<std::__ndk1::__variant_detail::__traits<cocos2d::_ccColor3B, std::__ndk1::basic_string<char, std::__ndk1::char_traits<char>, std::__ndk1::allocator<char> > >, (std::__ndk1::__variant_detail::_Trait)1>::__destroy[abi:ne180000]()::{lambda(auto:1&)#1}, std::__ndk1::__variant_detail::__base<(std::__ndk1::__variant_detail::__traits<cocos2d::_ccColor3B, std::__ndk1::basic_string<char, std::__ndk1::char_traits<char>, std::__ndk1::allocator<char> > >)1, cocos2d, std::__ndk1::allocator<char> >&>(std::__ndk1::__variant_detail::__dtor<std::__ndk1::__variant_detail::__traits<cocos2d::_ccColor3B, std::__ndk1::basic_string<char, std::__ndk1::char_traits<char>, std::__ndk1::allocator<char> > >, (std::__ndk1::__variant_detail::_Trait)1>, std::__ndk1::__variant_detail::__base<(std::__ndk1::__variant_detail::__traits<cocos2d::_ccColor3B, std::__ndk1::basic_string<char, std::__ndk1::char_traits<char>, std::__ndk1::allocator<char> > >)1, cocos2d, std::__ndk1::allocator<char> >&)
PUBLIC 2efdc 0 std::__ndk1::__variant_detail::__visitation::__base::__dispatcher<(unsigned long)1>::__dispatch[abi:ne180000]<std::__ndk1::__variant_detail::__dtor<std::__ndk1::__variant_detail::__traits<cocos2d::_ccColor3B, std::__ndk1::basic_string<char, std::__ndk1::char_traits<char>, std::__ndk1::allocator<char> > >, (std::__ndk1::__variant_detail::_Trait)1>::__destroy[abi:ne180000]()::{lambda(auto:1&)#1}, std::__ndk1::__variant_detail::__base<(std::__ndk1::__variant_detail::__traits<cocos2d::_ccColor3B, std::__ndk1::basic_string<char, std::__ndk1::char_traits<char>, std::__ndk1::allocator<char> > >)1, cocos2d, std::__ndk1::allocator<char> >&>(std::__ndk1::__variant_detail::__dtor<std::__ndk1::__variant_detail::__traits<cocos2d::_ccColor3B, std::__ndk1::basic_string<char, std::__ndk1::char_traits<char>, std::__ndk1::allocator<char> > >, (std::__ndk1::__variant_detail::_Trait)1>, std::__ndk1::__variant_detail::__base<(std::__ndk1::__variant_detail::__traits<cocos2d::_ccColor3B, std::__ndk1::basic_string<char, std::__ndk1::char_traits<char>, std::__ndk1::allocator<char> > >)1, cocos2d, std::__ndk1::allocator<char> >&)
PUBLIC 2eff0 0 matjson::Value::as<long>() const
PUBLIC 2f0f8 0 std::__ndk1::__variant_detail::__visitation::__base::__dispatcher<(unsigned long)0>::__dispatch[abi:ne180000]<std::__ndk1::__variant_detail::__dtor<std::__ndk1::__variant_detail::__traits<long, std::__ndk1::basic_string<char, std::__ndk1::char_traits<char>, std::__ndk1::allocator<char> > >, (std::__ndk1::__variant_detail::_Trait)1>::__destroy[abi:ne180000]()::{lambda(auto:1&)#1}, std::__ndk1::__variant_detail::__base<(std::__ndk1::__variant_detail::__traits<long, std::__ndk1::basic_string<char, std::__ndk1::char_traits<char>, std::__ndk1::allocator<char> > >)1, long, std::__ndk1::allocator<char> >&>(std::__ndk1::__variant_detail::__dtor<std::__ndk1::__variant_detail::__traits<long, std::__ndk1::basic_string<char, std::__ndk1::char_traits<char>, std::__ndk1::allocator<char> > >, (std::__ndk1::__variant_detail::_Trait)1>, std::__ndk1::__variant_detail::__base<(std::__ndk1::__variant_detail::__traits<long, std::__ndk1::basic_string<char, std::__ndk1::char_traits<char>, std::__ndk1::allocator<char> > >)1, long, std::__ndk1::allocator<char> >&)
PUBLIC 2f0fc 0 std::__ndk1::__variant_detail::__visitation::__base::__dispatcher<(unsigned long)1>::__dispatch[abi:ne180000]<std::__ndk1::__variant_detail::__dtor<std::__ndk1::__variant_detail::__traits<long, std::__ndk1::basic_string<char, std::__ndk1::char_traits<char>, std::__ndk1::allocator<char> > >, (std::__ndk1::__variant_detail::_Trait)1>::__destroy[abi:ne180000]()::{lambda(auto:1&)#1}, std::__ndk1::__variant_detail::__base<(std::__ndk1::__variant_detail::__traits<long, std::__ndk1::basic_string<char, std::__ndk1::char_traits<char>, std::__ndk1::allocator<char> > >)1, long, std::__ndk1::allocator<char> >&>(std::__ndk1::__variant_detail::__dtor<std::__ndk1::__variant_detail::__traits<long, std::__ndk1::basic_string<char, std::__ndk1::char_traits<char>, std::__ndk1::allocator<char> > >, (std::__ndk1::__variant_detail::_Trait)1>, std::__ndk1::__variant_detail::__base<(std::__ndk1::__variant_detail::__traits<long, std::__ndk1::basic_string<char, std::__ndk1::char_traits<char>, std::__ndk1::allocator<char> > >)1, long, std::__ndk1::allocator<char> >&)
PUBLIC 2f110 0 geode::modifier::ModifyDerive<MyPlayerObject, PlayerObject>::apply()
PUBLIC 306ec 0 geode::modifier::ModifyBase<geode::modifier::ModifyDerive<MyPlayerObject, PlayerObject> >::apply()
PUBLIC 306f0 0 geode::modifier::ModifyBase<geode::modifier::ModifyDerive<MyPlayerObject, PlayerObject> >::getHook(std::__ndk1::basic_string_view<char, std::__ndk1::char_traits<char> >)
PUBLIC 308a8 0 std::__ndk1::__tree<std::__ndk1::__value_type<std::__ndk1::basic_string<char, std::__ndk1::char_traits<char>, std::__ndk1::allocator<char> >, std::__ndk1::shared_ptr<geode::Hook> >, std::__ndk1::__map_value_compare<std::__ndk1::basic_string<char, std::__ndk1::char_traits<char>, std::__ndk1::allocator<char> >, std::__ndk1::__value_type<std::__ndk1::basic_string<char, std::__ndk1::char_traits<char>, std::__ndk1::allocator<char> >, std::__ndk1::shared_ptr<geode::Hook> >, std::__ndk1::less<std::__ndk1::basic_string<char, std::__ndk1::char_traits<char>, std::__ndk1::allocator<char> > >, true>, std::__ndk1::allocator<std::__ndk1::__value_type<std::__ndk1::basic_string<char, std::__ndk1::char_traits<char>, std::__ndk1::allocator<char> >, std::__ndk1::shared_ptr<geode::Hook> > > >::__emplace_unique_key_args<std::__ndk1::basic_string<char, std::__ndk1::char_traits<char>, std::__ndk1::allocator<char> >, std::__ndk1::piecewise_construct_t const&, std::__ndk1::tuple<std::__ndk1::basic_string<char, std::__ndk1::char_traits<char>, std::__ndk1::allocator<char> > const&>, std::__ndk1::tuple<> >(std::__ndk1::basic_string<char, std::__ndk1::char_traits<char>, std::__ndk1::allocator<char> > const&, std::__ndk1::piecewise_construct_t const&, std::__ndk1::tuple<std::__ndk1::basic_string<char, std::__ndk1::char_traits<char>, std::__ndk1::allocator<char> > const&>, std::__ndk1::tuple<>)
PUBLIC 30a7c 0 std::__ndk1::__variant_detail::__visitation::__base::__dispatcher<(unsigned long)0>::__dispatch[abi:ne180000]<std::__ndk1::__variant_detail::__dtor<std::__ndk1::__variant_detail::__traits<std::__ndk1::monostate, std::__ndk1::basic_string<char, std::__ndk1::char_traits<char>, std::__ndk1::allocator<char> > >, (std::__ndk1::__variant_detail::_Trait)1>::__destroy[abi:ne180000]()::{lambda(auto:1&)#1}, std::__ndk1::__variant_detail::__base<(std::__ndk1::__variant_detail::__traits<std::__ndk1::monostate, std::__ndk1::basic_string<char, std::__ndk1::char_traits<char>, std::__ndk1::allocator<char> > >)1, std::__ndk1::__variant_detail::__traits, std::__ndk1::allocator<char> >&>(std::__ndk1::__variant_detail::__dtor<std::__ndk1::__variant_detail::__traits<std::__ndk1::monostate, std::__ndk1::basic_string<char, std::__ndk1::char_traits<char>, std::__ndk1::allocator<char> > >, (std::__ndk1::__variant_detail::_Trait)1>, std::__ndk1::__variant_detail::__base<(std::__ndk1::__variant_detail::__traits<std::__ndk1::monostate, std::__ndk1::basic_string<char, std::__ndk1::char_traits<char>, std::__ndk1::allocator<char> > >)1, std::__ndk1::__variant_detail::__traits, std::__ndk1::allocator<char> >&)
PUBLIC 30a80 0 std::__ndk1::__variant_detail::__visitation::__base::__dispatcher<(unsigned long)1>::__dispatch[abi:ne180000]<std::__ndk1::__variant_detail::__dtor<std::__ndk1::__variant_detail::__traits<std::__ndk1::monostate, std::__ndk1::basic_string<char, std::__ndk1::char_traits<char>, std::__ndk1::allocator<char> > >, (std::__ndk1::__variant_detail::_Trait)1>::__destroy[abi:ne180000]()::{lambda(auto:1&)#1}, std::__ndk1::__variant_detail::__base<(std::__ndk1::__variant_detail::__traits<std::__ndk1::monostate, std::__ndk1::basic_string<char, std::__ndk1::char_traits<char>, std::__ndk1::allocator<char> > >)1, std::__ndk1::__variant_detail::__traits, std::__ndk1::allocator<char> >&>(std::__ndk1::__variant_detail::__dtor<std::__ndk1::__variant_detail::__traits<std::__ndk1::monostate, std::__ndk1::basic_string<char, std::__ndk1::char_traits<char>, std::__ndk1::allocator<char> > >, (std::__ndk1::__variant_detail::_Trait)1>, std::__ndk1::__variant_detail::__base<(std::__ndk1::__variant_detail::__traits<std::__ndk1::monostate, std::__ndk1::basic_string<char, std::__ndk1::char_traits<char>, std::__ndk1::allocator<char> > >)1, std::__ndk1::__variant_detail::__traits, std::__ndk1::allocator<char> >&)
PUBLIC 30a94 0 geode::modifier::ModifyBase<geode::modifier::ModifyDerive<MyPlayerObject, PlayerObject> >::setHookPriorityBefore(std::__ndk1::basic_string_view<char, std::__ndk1::char_traits<char> >, std::__ndk1::basic_string_view<char, std::__ndk1::char_traits<char> >)
PUBLIC 30dec 0 geode::modifier::ModifyBase<geode::modifier::ModifyDerive<MyPlayerObject, PlayerObject> >::setHookPriorityBefore(std::__ndk1::basic_string_view<char, std::__ndk1::char_traits<char> >, geode::Mod*)::{lambda(geode::ModStateEvent*)#1}::operator()(geode::ModStateEvent*) const
PUBLIC 30efc 0 std::__ndk1::__function::__base<void (geode::ModStateEvent*)>::~__base()
PUBLIC 30f00 0 std::__ndk1::__function::__func<geode::modifier::ModifyBase<geode::modifier::ModifyDerive<MyPlayerObject, PlayerObject> >::setHookPriorityBefore(std::__ndk1::basic_string_view<char, std::__ndk1::char_traits<char> >, geode::Mod*)::{lambda(geode::ModStateEvent*)#1}, std::__ndk1::allocator<geode::modifier::ModifyBase<geode::modifier::ModifyDerive<MyPlayerObject, PlayerObject> >::setHookPriorityBefore(std::__ndk1::basic_string_view<char, std::__ndk1::char_traits<char> >, geode::Mod*)::{lambda(geode::ModStateEvent*)#1}>, void (geode::ModStateEvent*)>::~__func()
PUBLIC 30f04 0 std::__ndk1::__function::__func<geode::modifier::ModifyBase<geode::modifier::ModifyDerive<MyPlayerObject, PlayerObject> >::setHookPriorityBefore(std::__ndk1::basic_string_view<char, std::__ndk1::char_traits<char> >, geode::Mod*)::{lambda(geode::ModStateEvent*)#1}, std::__ndk1::allocator<geode::modifier::ModifyBase<geode::modifier::ModifyDerive<MyPlayerObject, PlayerObject> >::setHookPriorityBefore(std::__ndk1::basic_string_view<char, std::__ndk1::char_traits<char> >, geode::Mod*)::{lambda(geode::ModStateEvent*)#1}>, void (geode::ModStateEvent*)>::__clone() const
PUBLIC 30f3c 0 std::__ndk1::__function::__func<geode::modifier::ModifyBase<geode::modifier::ModifyDerive<MyPlayerObject, PlayerObject> >::setHookPriorityBefore(std::__ndk1::basic_string_view<char, std::__ndk1::char_traits<char> >, geode::Mod*)::{lambda(geode::ModStateEvent*)#1}, std::__ndk1::allocator<geode::modifier::ModifyBase<geode::modifier::ModifyDerive<MyPlayerObject, PlayerObject> >::setHookPriorityBefore(std::__ndk1::basic_string_view<char, std::__ndk1::char_traits<char> >, geode::Mod*)::{lambda(geode::ModStateEvent*)#1}>, void (geode::ModStateEvent*)>::__clone(std::__ndk1::__function::__base<void (geode::ModStateEvent*)>*) const
PUBLIC 30f54 0 std::__ndk1::__function::__func<geode::modifier::ModifyBase<geode::modifier::ModifyDerive<MyPlayerObject, PlayerObject> >::setHookPriorityBefore(std::__ndk1::basic_string_view<char, std::__ndk1::char_traits<char> >, geode::Mod*)::{lambda(geode::ModStateEvent*)#1}, std::__ndk1::allocator<geode::modifier::ModifyBase<geode::modifier::ModifyDerive<MyPlayerObject, PlayerObject> >::setHookPriorityBefore(std::__ndk1::basic_string_view<char, std::__ndk1::char_traits<char> >, geode::Mod*)::{lambda(geode::ModStateEvent*)#1}>, void (geode::ModStateEvent*)>::destroy()
PUBLIC 30f58 0 std::__ndk1::__function::__func<geode::modifier::ModifyBase<geode::modifier::ModifyDerive<MyPlayerObject, PlayerObject> >::setHookPriorityBefore(std::__ndk1::basic_string_view<char, std::__ndk1::char_traits<char> >, geode::Mod*)::{lambda(geode::ModStateEvent*)#1}, std::__ndk1::allocator<geode::modifier::ModifyBase<geode::modifier::ModifyDerive<MyPlayerObject, PlayerObject> >::setHookPriorityBefore(std::__ndk1::basic_string_view<char, std::__ndk1::char_traits<char> >, geode::Mod*)::{lambda(geode::ModStateEvent*)#1}>, void (geode::ModStateEvent*)>::destroy_deallocate()
PUBLIC 30f5c 0 std::__ndk1::__function::__func<geode::modifier::ModifyBase<geode::modifier::ModifyDerive<MyPlayerObject, PlayerObject> >::setHookPriorityBefore(std::__ndk1::basic_string_view<char, std::__ndk1::char_traits<char> >, geode::Mod*)::{lambda(geode::ModStateEvent*)#1}, std::__ndk1::allocator<geode::modifier::ModifyBase<geode::modifier::ModifyDerive<MyPlayerObject, PlayerObject> >::setHookPriorityBefore(std::__ndk1::basic_string_view<char, std::__ndk1::char_traits<char> >, geode::Mod*)::{lambda(geode::ModStateEvent*)#1}>, void (geode::ModStateEvent*)>::operator()(geode::ModStateEvent*&&)
PUBLIC 30f64 0 std::__ndk1::__function::__func<geode::modifier::ModifyBase<geode::modifier::ModifyDerive<MyPlayerObject, PlayerObject> >::setHookPriorityBefore(std::__ndk1::basic_string_view<char, std::__ndk1::char_traits<char> >, geode::Mod*)::{lambda(geode::ModStateEvent*)#1}, std::__ndk1::allocator<geode::modifier::ModifyBase<geode::modifier::ModifyDerive<MyPlayerObject, PlayerObject> >::setHookPriorityBefore(std::__ndk1::basic_string_view<char, std::__ndk1::char_traits<char> >, geode::Mod*)::{lambda(geode::ModStateEvent*)#1}>, void (geode::ModStateEvent*)>::target(std::type_info const&) const
PUBLIC 30f80 0 std::__ndk1::__function::__func<geode::modifier::ModifyBase<geode::modifier::ModifyDerive<MyPlayerObject, PlayerObject> >::setHookPriorityBefore(std::__ndk1::basic_string_view<char, std::__ndk1::char_traits<char> >, geode::Mod*)::{lambda(geode::ModStateEvent*)#1}, std::__ndk1::allocator<geode::modifier::ModifyBase<geode::modifier::ModifyDerive<MyPlayerObject, PlayerObject> >::setHookPriorityBefore(std::__ndk1::basic_string_view<char, std::__ndk1::char_traits<char> >, geode::Mod*)::{lambda(geode::ModStateEvent*)#1}>, void (geode::ModStateEvent*)>::target_type() const
PUBLIC 30f8c 0 geode::Hook::create<void (*)(MyPlayerObject*, int)>(void*, void (*)(MyPlayerObject*, int), std::__ndk1::basic_string<char, std::__ndk1::char_traits<char>, std::__ndk1::allocator<char> > const&, tulip::hook::TulipConvention, tulip::hook::HookMetadata const&)
PUBLIC 31110 0 geode::modifier::AsStaticFunction_createRobot<MyPlayerObject, void (MyPlayerObject::*)(int)>::Impl<void (MyPlayerObject::*)(int)>::function(MyPlayerObject*, int)
PUBLIC 3123c 0 geode::modifier::AsStaticFunction_createSpider<MyPlayerObject, void (MyPlayerObject::*)(int)>::Impl<void (MyPlayerObject::*)(int)>::function(MyPlayerObject*, int)
PUBLIC 31368 0 geode::modifier::AsStaticFunction_init<MyPlayerObject, bool (MyPlayerObject::*)(int, int, GJBaseGameLayer*, cocos2d::CCLayer*, bool)>::Impl<bool (MyPlayerObject::*)(int, int, GJBaseGameLayer*, cocos2d::CCLayer*, bool)>::function(MyPlayerObject*, int, int, GJBaseGameLayer*, cocos2d::CCLayer*, bool)
PUBLIC 31460 0 geode::modifier::AsStaticFunction_updatePlayerBirdFrame<MyPlayerObject, void (MyPlayerObject::*)(int)>::Impl<void (MyPlayerObject::*)(int)>::function(MyPlayerObject*, int)
PUBLIC 31484 0 geode::modifier::AsStaticFunction_updatePlayerDartFrame<MyPlayerObject, void (MyPlayerObject::*)(int)>::Impl<void (MyPlayerObject::*)(int)>::function(MyPlayerObject*, int)
PUBLIC 314a8 0 geode::modifier::AsStaticFunction_updatePlayerFrame<MyPlayerObject, void (MyPlayerObject::*)(int)>::Impl<void (MyPlayerObject::*)(int)>::function(MyPlayerObject*, int)
PUBLIC 314cc 0 geode::modifier::AsStaticFunction_updatePlayerJetpackFrame<MyPlayerObject, void (MyPlayerObject::*)(int)>::Impl<void (MyPlayerObject::*)(int)>::function(MyPlayerObject*, int)
PUBLIC 314f0 0 geode::modifier::AsStaticFunction_updatePlayerRollFrame<MyPlayerObject, void (MyPlayerObject::*)(int)>::Impl<void (MyPlayerObject::*)(int)>::function(MyPlayerObject*, int)
PUBLIC 31514 0 geode::modifier::AsStaticFunction_updatePlayerShipFrame<MyPlayerObject, void (MyPlayerObject::*)(int)>::Impl<void (MyPlayerObject::*)(int)>::function(MyPlayerObject*, int)
PUBLIC 31538 0 geode::modifier::AsStaticFunction_updatePlayerSwingFrame<MyPlayerObject, void (MyPlayerObject::*)(int)>::Impl<void (MyPlayerObject::*)(int)>::function(MyPlayerObject*, int)
PUBLIC 3155c 0 std::__ndk1::__hash_table<std::__ndk1::__hash_value_type<cocos2d::CCSpriteBatchNode*, bool>, std::__ndk1::__unordered_map_hasher<cocos2d::CCSpriteBatchNode*, std::__ndk1::__hash_value_type<cocos2d::CCSpriteBatchNode*, bool>, std::__ndk1::hash<cocos2d::CCSpriteBatchNode*>, std::__ndk1::equal_to<cocos2d::CCSpriteBatchNode*>, true>, std::__ndk1::__unordered_map_equal<cocos2d::CCSpriteBatchNode*, std::__ndk1::__hash_value_type<cocos2d::CCSpriteBatchNode*, bool>, std::__ndk1::equal_to<cocos2d::CCSpriteBatchNode*>, std::__ndk1::hash<cocos2d::CCSpriteBatchNode*>, true>, std::__ndk1::allocator<std::__ndk1::__hash_value_type<cocos2d::CCSpriteBatchNode*, bool> > >::__emplace_unique_key_args<cocos2d::CCSpriteBatchNode*, std::__ndk1::piecewise_construct_t const&, std::__ndk1::tuple<cocos2d::CCSpriteBatchNode*&&>, std::__ndk1::tuple<> >(cocos2d::CCSpriteBatchNode* const&, std::__ndk1::piecewise_construct_t const&, std::__ndk1::tuple<cocos2d::CCSpriteBatchNode*&&>, std::__ndk1::tuple<>)
PUBLIC 3189c 0 std::__ndk1::__function::__func<MyPlayerObject::init(int, int, GJBaseGameLayer*, cocos2d::CCLayer*, bool)::{lambda()#1}, std::__ndk1::allocator<MyPlayerObject::init(int, int, GJBaseGameLayer*, cocos2d::CCLayer*, bool)::{lambda()#1}>, void ()>::~__func()
PUBLIC 318a0 0 std::__ndk1::__function::__func<MyPlayerObject::init(int, int, GJBaseGameLayer*, cocos2d::CCLayer*, bool)::{lambda()#1}, std::__ndk1::allocator<MyPlayerObject::init(int, int, GJBaseGameLayer*, cocos2d::CCLayer*, bool)::{lambda()#1}>, void ()>::__clone() const
PUBLIC 318d4 0 std::__ndk1::__function::__func<MyPlayerObject::init(int, int, GJBaseGameLayer*, cocos2d::CCLayer*, bool)::{lambda()#1}, std::__ndk1::allocator<MyPlayerObject::init(int, int, GJBaseGameLayer*, cocos2d::CCLayer*, bool)::{lambda()#1}>, void ()>::__clone(std::__ndk1::__function::__base<void ()>*) const
PUBLIC 318e8 0 std::__ndk1::__function::__func<MyPlayerObject::init(int, int, GJBaseGameLayer*, cocos2d::CCLayer*, bool)::{lambda()#1}, std::__ndk1::allocator<MyPlayerObject::init(int, int, GJBaseGameLayer*, cocos2d::CCLayer*, bool)::{lambda()#1}>, void ()>::destroy()
PUBLIC 318ec 0 std::__ndk1::__function::__func<MyPlayerObject::init(int, int, GJBaseGameLayer*, cocos2d::CCLayer*, bool)::{lambda()#1}, std::__ndk1::allocator<MyPlayerObject::init(int, int, GJBaseGameLayer*, cocos2d::CCLayer*, bool)::{lambda()#1}>, void ()>::destroy_deallocate()
PUBLIC 318f0 0 std::__ndk1::__function::__func<MyPlayerObject::init(int, int, GJBaseGameLayer*, cocos2d::CCLayer*, bool)::{lambda()#1}, std::__ndk1::allocator<MyPlayerObject::init(int, int, GJBaseGameLayer*, cocos2d::CCLayer*, bool)::{lambda()#1}>, void ()>::operator()()
PUBLIC 318f8 0 std::__ndk1::__function::__func<MyPlayerObject::init(int, int, GJBaseGameLayer*, cocos2d::CCLayer*, bool)::{lambda()#1}, std::__ndk1::allocator<MyPlayerObject::init(int, int, GJBaseGameLayer*, cocos2d::CCLayer*, bool)::{lambda()#1}>, void ()>::target(std::type_info const&) const
PUBLIC 31914 0 std::__ndk1::__function::__func<MyPlayerObject::init(int, int, GJBaseGameLayer*, cocos2d::CCLayer*, bool)::{lambda()#1}, std::__ndk1::allocator<MyPlayerObject::init(int, int, GJBaseGameLayer*, cocos2d::CCLayer*, bool)::{lambda()#1}>, void ()>::target_type() const
PUBLIC 31920 0 MyPlayerObject::updatePlayerShaders()
PUBLIC 31cfc 0 geode::modifier::ModifyDerive<MyPlayLayer, PlayLayer>::apply()
PUBLIC 32094 0 geode::modifier::ModifyBase<geode::modifier::ModifyDerive<MyPlayLayer, PlayLayer> >::apply()
PUBLIC 32098 0 geode::modifier::AsStaticFunction_init<MyPlayLayer, bool (MyPlayLayer::*)(GJGameLevel*, bool, bool)>::Impl<bool (MyPlayLayer::*)(GJGameLevel*, bool, bool)>::function(MyPlayLayer*, GJGameLevel*, bool, bool)
PUBLIC 320d8 0 MyPlayLayer::checkGlobed(float)
PUBLIC 32284 0 geode::modifier::ModifyDerive<MyProfilePage, ProfilePage>::apply()
PUBLIC 328a0 0 geode::modifier::ModifyBase<geode::modifier::ModifyDerive<MyProfilePage, ProfilePage> >::apply()
PUBLIC 328a4 0 geode::modifier::AsStaticFunction_getUserInfoFinished<MyProfilePage, void (MyProfilePage::*)(GJUserScore*)>::Impl<void (MyProfilePage::*)(GJUserScore*)>::function(MyProfilePage*, GJUserScore*)
PUBLIC 32db0 0 geode::modifier::AsStaticFunction_toggleShip<MyProfilePage, void (MyProfilePage::*)(cocos2d::CCObject*)>::Impl<void (MyProfilePage::*)(cocos2d::CCObject*)>::function(MyProfilePage*, cocos2d::CCObject*)
PUBLIC 32f78 0 geode::addresser::Addresser::addressOfVirtual<void, ProfilePage, GJUserScore*>(void (ProfilePage::*)(GJUserScore*))
PUBLIC 33040 0 ProfilePage::ProfilePage(geode::ZeroConstructorType)
PUBLIC 33118 0 MyProfilePage::on2PToggle(cocos2d::CCObject*)
PUBLIC 334ac 0 MyProfilePage::onShipToggle(cocos2d::CCObject*)
PUBLIC 33698 0 geode::modifier::FieldIntermediate<MyProfilePage, ProfilePage>::self()
PUBLIC 33828 0 geode::modifier::FieldIntermediate<MyProfilePage, ProfilePage>::fieldDestructor(void*)
PUBLIC 3382c 0 geode::modifier::ModifyDerive<MyGJGarageLayer, GJGarageLayer>::apply()
PUBLIC 33df4 0 geode::modifier::ModifyBase<geode::modifier::ModifyDerive<MyGJGarageLayer, GJGarageLayer> >::apply()
PUBLIC 33df8 0 geode::modifier::ModifyBase<geode::modifier::ModifyDerive<MyGJGarageLayer, GJGarageLayer> >::setHookPriority(std::__ndk1::basic_string_view<char, std::__ndk1::char_traits<char> >, int)
PUBLIC 34030 0 geode::modifier::AsStaticFunction_init<MyGJGarageLayer, bool (MyGJGarageLayer::*)()>::Impl<bool (MyGJGarageLayer::*)()>::function(MyGJGarageLayer*)
PUBLIC 340b8 0 geode::modifier::AsStaticFunction_onSelect<MyGJGarageLayer, void (MyGJGarageLayer::*)(cocos2d::CCObject*)>::Impl<void (MyGJGarageLayer::*)(cocos2d::CCObject*)>::function(MyGJGarageLayer*, cocos2d::CCObject*)
PUBLIC 3413c 0 geode::addresser::Addresser::addressOfVirtual<bool, GJGarageLayer, >(bool (GJGarageLayer::*)())
PUBLIC 341e4 0 GJGarageLayer::GJGarageLayer(geode::ZeroConstructorType)
PUBLIC 34298 0 geode::modifier::ModifyDerive<MyCharacterColorPage, CharacterColorPage>::apply()
PUBLIC 34bac 0 geode::modifier::ModifyBase<geode::modifier::ModifyDerive<MyCharacterColorPage, CharacterColorPage> >::apply()
PUBLIC 34bb0 0 geode::modifier::ModifyBase<geode::modifier::ModifyDerive<MyCharacterColorPage, CharacterColorPage> >::setHookPriority(std::__ndk1::basic_string_view<char, std::__ndk1::char_traits<char> >, int)
PUBLIC 34de8 0 geode::modifier::AsStaticFunction_init<MyCharacterColorPage, bool (MyCharacterColorPage::*)()>::Impl<bool (MyCharacterColorPage::*)()>::function(MyCharacterColorPage*)
PUBLIC 35ae8 0 geode::Hook::create<void (*)(MyCharacterColorPage*, cocos2d::CCObject*)>(void*, void (*)(MyCharacterColorPage*, cocos2d::CCObject*), std::__ndk1::basic_string<char, std::__ndk1::char_traits<char>, std::__ndk1::allocator<char> > const&, tulip::hook::TulipConvention, tulip::hook::HookMetadata const&)
PUBLIC 35c6c 0 geode::modifier::AsStaticFunction_onMode<MyCharacterColorPage, void (MyCharacterColorPage::*)(cocos2d::CCObject*)>::Impl<void (MyCharacterColorPage::*)(cocos2d::CCObject*)>::function(MyCharacterColorPage*, cocos2d::CCObject*)
PUBLIC 35c70 0 geode::modifier::AsStaticFunction_onPlayerColor<MyCharacterColorPage, void (MyCharacterColorPage::*)(cocos2d::CCObject*)>::Impl<void (MyCharacterColorPage::*)(cocos2d::CCObject*)>::function(MyCharacterColorPage*, cocos2d::CCObject*)
PUBLIC 35fa8 0 geode::modifier::AsStaticFunction_toggleShip<MyCharacterColorPage, void (MyCharacterColorPage::*)(cocos2d::CCObject*)>::Impl<void (MyCharacterColorPage::*)(cocos2d::CCObject*)>::function(MyCharacterColorPage*, cocos2d::CCObject*)
PUBLIC 361cc 0 geode::addresser::Addresser::addressOfVirtual<bool, CharacterColorPage, >(bool (CharacterColorPage::*)())
PUBLIC 36274 0 CharacterColorPage::CharacterColorPage(geode::ZeroConstructorType)
PUBLIC 362f8 0 MyCharacterColorPage::onOutlineColor(cocos2d::CCObject*)
PUBLIC 364e0 0 MyCharacterColorPage::onCustomColorToggle(cocos2d::CCObject*)
PUBLIC 367c0 0 MyCharacterColorPage::onCloseH(cocos2d::CCObject*)
PUBLIC 36a98 0 MyCharacterColorPage::moveToMenu(cocos2d::CCNode*, cocos2d::CCMenu*, std::__ndk1::basic_string<char, std::__ndk1::char_traits<char>, std::__ndk1::allocator<char> >)
PUBLIC 36bac 0 MyCharacterColorPage::onMode(cocos2d::CCObject*)
PUBLIC 36f4c 0 OutlineColorPickPopupDelegate::updateColor(cocos2d::_ccColor4B const&)
PUBLIC 371a0 0 MySimplePlayer::setOutlineColor(cocos2d::_ccColor3B const&, bool)
PUBLIC 37638 0 geode::modifier::FieldIntermediate<MyCharacterColorPage, CharacterColorPage>::self()
PUBLIC 377cc 0 geode::modifier::FieldIntermediate<MyCharacterColorPage, CharacterColorPage>::fieldDestructor(void*)
PUBLIC 37828 0 MyCharacterColorPage::updateColor(cocos2d::_ccColor3B const&, bool)
PUBLIC 37908 0 geode::cocos::CCDictionaryExt<int, ColorChannelSprite*>::~CCDictionaryExt()
PUBLIC 37924 0 std::__ndk1::__function::__base<void ()>::~__base()
PUBLIC 37928 0 std::__ndk1::__function::__func<MyCharacterColorPage::init()::{lambda()#1}, std::__ndk1::allocator<MyCharacterColorPage::init()::{lambda()#1}>, void ()>::~__func()
PUBLIC 3792c 0 std::__ndk1::__function::__func<MyCharacterColorPage::init()::{lambda()#1}, std::__ndk1::allocator<MyCharacterColorPage::init()::{lambda()#1}>, void ()>::__clone() const
PUBLIC 37960 0 std::__ndk1::__function::__func<MyCharacterColorPage::init()::{lambda()#1}, std::__ndk1::allocator<MyCharacterColorPage::init()::{lambda()#1}>, void ()>::__clone(std::__ndk1::__function::__base<void ()>*) const
PUBLIC 37974 0 std::__ndk1::__function::__func<MyCharacterColorPage::init()::{lambda()#1}, std::__ndk1::allocator<MyCharacterColorPage::init()::{lambda()#1}>, void ()>::destroy()
PUBLIC 37978 0 std::__ndk1::__function::__func<MyCharacterColorPage::init()::{lambda()#1}, std::__ndk1::allocator<MyCharacterColorPage::init()::{lambda()#1}>, void ()>::destroy_deallocate()
PUBLIC 3797c 0 std::__ndk1::__function::__func<MyCharacterColorPage::init()::{lambda()#1}, std::__ndk1::allocator<MyCharacterColorPage::init()::{lambda()#1}>, void ()>::operator()()
PUBLIC 37a6c 0 std::__ndk1::__function::__func<MyCharacterColorPage::init()::{lambda()#1}, std::__ndk1::allocator<MyCharacterColorPage::init()::{lambda()#1}>, void ()>::target(std::type_info const&) const
PUBLIC 37a88 0 std::__ndk1::__function::__func<MyCharacterColorPage::init()::{lambda()#1}, std::__ndk1::allocator<MyCharacterColorPage::init()::{lambda()#1}>, void ()>::target_type() const
PUBLIC 37a94 0 geode::Mod::getSavedValue<long>(std::__ndk1::basic_string_view<char, std::__ndk1::char_traits<char> >)
PUBLIC 37c18 0 geode::modifier::ModifyDerive<MyCommentCell, CommentCell>::apply()
PUBLIC 37f8c 0 geode::modifier::ModifyBase<geode::modifier::ModifyDerive<MyCommentCell, CommentCell> >::apply()
PUBLIC 37f90 0 geode::modifier::AsStaticFunction_loadFromComment<MyCommentCell, void (MyCommentCell::*)(GJComment*)>::Impl<void (MyCommentCell::*)(GJComment*)>::function(MyCommentCell*, GJComment*)
PUBLIC 38110 0 geode::modifier::ModifyDerive<MyGJScoreCell, GJScoreCell>::apply()
PUBLIC 38484 0 geode::modifier::ModifyBase<geode::modifier::ModifyDerive<MyGJScoreCell, GJScoreCell> >::apply()
PUBLIC 38488 0 geode::modifier::AsStaticFunction_loadFromScore<MyGJScoreCell, void (MyGJScoreCell::*)(GJUserScore*)>::Impl<void (MyGJScoreCell::*)(GJUserScore*)>::function(MyGJScoreCell*, GJUserScore*)
PUBLIC 38608 0 _GLOBAL__sub_I_main.cpp
PUBLIC m 38734 0 geodeImplicitEntry
PUBLIC 38770 0 std::__ndk1::unordered_map<void*, bool, std::__ndk1::hash<void*>, std::__ndk1::equal_to<void*>, std::__ndk1::allocator<std::__ndk1::pair<void* const, bool> > >::~unordered_map[abi:ne180000]()
PUBLIC 387bc 0 wrapFunction(unsigned long, tulip::hook::WrapperMetadata const&)
PUBLIC 388f0 0 geode::impl::ResultData<void*, std::__ndk1::basic_string<char, std::__ndk1::char_traits<char>, std::__ndk1::allocator<char> > >::unwrapErr() &
PUBLIC 38968 0 geode::impl::ResultData<void*, std::__ndk1::basic_string<char, std::__ndk1::char_traits<char>, std::__ndk1::allocator<char> > >::~ResultData()
PUBLIC 389dc 0 tulip::hook::WrapperMetadata::~WrapperMetadata()
PUBLIC 38a40 0 cocos2d::CCObject::~CCObject()
PUBLIC 38a64 0 cocos2d::CCNode::~CCNode()
PUBLIC 38a88 0 cocos2d::CCNodeRGBA::~CCNodeRGBA()
PUBLIC 38aac 0 cocos2d::CCGLProgram::~CCGLProgram()
PUBLIC 38d1c 0 cocos2d::CCGLProgram::~CCGLProgram()
PUBLIC 38d40 0 cocos2d::CCGLProgram::CCGLProgram()
PUBLIC 38f6c 0 {virtual override thunk({offset(-320)}, cocos2d::CCLayer::~CCLayer())}
PUBLIC 38f74 0 cocos2d::CCLayer::~CCLayer()
PUBLIC 38f98 0 {virtual override thunk({offset(-320)}, cocos2d::CCLayer::~CCLayer())}
PUBLIC 38fc0 0 cocos2d::CCLayerRGBA::~CCLayerRGBA()
PUBLIC 392c0 0 {virtual override thunk({offset(-320)}, cocos2d::CCLayerRGBA::~CCLayerRGBA())}
PUBLIC 392c8 0 cocos2d::CCLayerRGBA::~CCLayerRGBA()
PUBLIC 392ec 0 {virtual override thunk({offset(-320)}, cocos2d::CCLayerRGBA::~CCLayerRGBA())}
PUBLIC 39314 0 {virtual override thunk({offset(-320)}, cocos2d::CCLayerColor::~CCLayerColor())}
PUBLIC 3931c 0 cocos2d::CCLayerColor::~CCLayerColor()
PUBLIC 39340 0 {virtual override thunk({offset(-320)}, cocos2d::CCLayerColor::~CCLayerColor())}
PUBLIC 39368 0 cocos2d::CCSprite::~CCSprite()
PUBLIC 3938c 0 cocos2d::CCSpriteBatchNode::~CCSpriteBatchNode()
PUBLIC 39644 0 cocos2d::CCSpriteBatchNode::~CCSpriteBatchNode()
PUBLIC 39668 0 cocos2d::CCDictionary::setObject(cocos2d::CCObject*, gd::string const&)
PUBLIC 397c8 0 tulip::hook::AbstractFunction::from<void, cocos2d::CCDictionary*, cocos2d::CCObject*, gd::string const&>(void (*)(cocos2d::CCDictionary*, cocos2d::CCObject*, gd::string const&))
PUBLIC 398d0 0 cocos2d::CCDictionary::objectForKey(gd::string const&)
PUBLIC 39a20 0 tulip::hook::AbstractFunction::from<cocos2d::CCObject*, cocos2d::CCDictionary*, gd::string const&>(cocos2d::CCObject* (*)(cocos2d::CCDictionary*, gd::string const&))
PUBLIC 39ac8 0 {virtual override thunk({offset(-320)}, FLAlertLayer::~FLAlertLayer())}
PUBLIC 39ad0 0 FLAlertLayer::~FLAlertLayer()
PUBLIC 39af4 0 {virtual override thunk({offset(-320)}, FLAlertLayer::~FLAlertLayer())}
PUBLIC 39b1c 0 cocos2d::CCNodeRGBA::~CCNodeRGBA()
PUBLIC 39dd4 0 CCMenuItemToggler::createWithStandardSprites(cocos2d::CCObject*, void (cocos2d::CCObject::*)(cocos2d::CCObject*), float)
PUBLIC 39fcc 0 cocos2d::CCSprite::~CCSprite()
PUBLIC 3a28c 0 cocos2d::CCCopying::copyWithZone(cocos2d::CCZone*)
PUBLIC 3a294 0 cocos2d::CCObject::update(float)
PUBLIC 3a298 0 cocos2d::CCNodeRGBA::setOpacityModifyRGB(bool)
PUBLIC 3a29c 0 cocos2d::CCNodeRGBA::isOpacityModifyRGB()
PUBLIC 3a2a4 0 {virtual override thunk({offset(-320)}, cocos2d::CCNodeRGBA::setOpacityModifyRGB(bool))}
PUBLIC 3a2a8 0 {virtual override thunk({offset(-320)}, cocos2d::CCNodeRGBA::isOpacityModifyRGB())}
PUBLIC 3a2b0 0 cocos2d::CCSprite::setBlendFunc(cocos2d::_ccBlendFunc)
PUBLIC 3a2bc 0 cocos2d::CCSprite::getBlendFunc()
PUBLIC 3a2c8 0 cocos2d::CCSprite::isDirty()
PUBLIC 3a2d0 0 cocos2d::CCSprite::setDirty(bool)
PUBLIC 3a2d8 0 {virtual override thunk({offset(-344)}, cocos2d::CCSprite::setBlendFunc(cocos2d::_ccBlendFunc))}
PUBLIC 3a2e0 0 {virtual override thunk({offset(-344)}, cocos2d::CCSprite::getBlendFunc())}
PUBLIC 3a2e8 0 cocos2d::CCKeyboardDelegate::keyUp(cocos2d::enumKeyCodes)
PUBLIC 3a2ec 0 cocos2d::CCMouseDelegate::rightKeyDown()
PUBLIC 3a2f0 0 cocos2d::CCMouseDelegate::rightKeyUp()
PUBLIC 3a2f4 0 cocos2d::CCMouseDelegate::scrollWheel(float, float)
PUBLIC 3a2f8 0 cocos2d::CCLayerRGBA::setOpacityModifyRGB(bool)
PUBLIC 3a2fc 0 cocos2d::CCLayerRGBA::isOpacityModifyRGB()
PUBLIC 3a304 0 {virtual override thunk({offset(-408)}, cocos2d::CCLayerRGBA::setOpacityModifyRGB(bool))}
PUBLIC 3a308 0 {virtual override thunk({offset(-408)}, cocos2d::CCLayerRGBA::isOpacityModifyRGB())}
PUBLIC 3a310 0 cocos2d::CCLayerColor::~CCLayerColor()
PUBLIC 3a5f4 0 FLAlertLayer::~FLAlertLayer()
PUBLIC 3a8d8 0 cocos2d::CCNode::~CCNode()
PUBLIC 3ab78 0 cocos2d::CCLayer::~CCLayer()
PUBLIC 3ae68 0 cocos2d::CCObject::~CCObject()
PUBLIC 3b35c 0 _ZN5geode15UnwrapExceptionC2IRPvQsr4implE18IsStringStreamableIT_EEENS_4impl5OkTagEOS4_
PUBLIC 3b4b0 0 std::__ndk1::__variant_detail::__visitation::__base::__dispatcher<(unsigned long)0>::__dispatch[abi:ne180000]<std::__ndk1::__variant_detail::__dtor<std::__ndk1::__variant_detail::__traits<void*, std::__ndk1::basic_string<char, std::__ndk1::char_traits<char>, std::__ndk1::allocator<char> > >, (std::__ndk1::__variant_detail::_Trait)1>::__destroy[abi:ne180000]()::{lambda(auto:1&)#1}, std::__ndk1::__variant_detail::__base<(std::__ndk1::__variant_detail::__traits<void*, std::__ndk1::basic_string<char, std::__ndk1::char_traits<char>, std::__ndk1::allocator<char> > >)1, std::__ndk1::__variant_detail::__traits, std::__ndk1::allocator<char> >&>(std::__ndk1::__variant_detail::__dtor<std::__ndk1::__variant_detail::__traits<void*, std::__ndk1::basic_string<char, std::__ndk1::char_traits<char>, std::__ndk1::allocator<char> > >, (std::__ndk1::__variant_detail::_Trait)1>, std::__ndk1::__variant_detail::__base<(std::__ndk1::__variant_detail::__traits<void*, std::__ndk1::basic_string<char, std::__ndk1::char_traits<char>, std::__ndk1::allocator<char> > >)1, std::__ndk1::__variant_detail::__traits, std::__ndk1::allocator<char> >&)
PUBLIC 3b4b4 0 std::__ndk1::__variant_detail::__visitation::__base::__dispatcher<(unsigned long)1>::__dispatch[abi:ne180000]<std::__ndk1::__variant_detail::__dtor<std::__ndk1::__variant_detail::__traits<void*, std::__ndk1::basic_string<char, std::__ndk1::char_traits<char>, std::__ndk1::allocator<char> > >, (std::__ndk1::__variant_detail::_Trait)1>::__destroy[abi:ne180000]()::{lambda(auto:1&)#1}, std::__ndk1::__variant_detail::__base<(std::__ndk1::__variant_detail::__traits<void*, std::__ndk1::basic_string<char, std::__ndk1::char_traits<char>, std::__ndk1::allocator<char> > >)1, std::__ndk1::__variant_detail::__traits, std::__ndk1::allocator<char> >&>(std::__ndk1::__variant_detail::__dtor<std::__ndk1::__variant_detail::__traits<void*, std::__ndk1::basic_string<char, std::__ndk1::char_traits<char>, std::__ndk1::allocator<char> > >, (std::__ndk1::__variant_detail::_Trait)1>, std::__ndk1::__variant_detail::__base<(std::__ndk1::__variant_detail::__traits<void*, std::__ndk1::basic_string<char, std::__ndk1::char_traits<char>, std::__ndk1::allocator<char> > >)1, std::__ndk1::__variant_detail::__traits, std::__ndk1::allocator<char> >&)
PUBLIC 3b4c8 0 std::__ndk1::__hash_table<std::__ndk1::__hash_value_type<void*, bool>, std::__ndk1::__unordered_map_hasher<void*, std::__ndk1::__hash_value_type<void*, bool>, std::__ndk1::hash<void*>, std::__ndk1::equal_to<void*>, true>, std::__ndk1::__unordered_map_equal<void*, std::__ndk1::__hash_value_type<void*, bool>, std::__ndk1::equal_to<void*>, std::__ndk1::hash<void*>, true>, std::__ndk1::allocator<std::__ndk1::__hash_value_type<void*, bool> > >::__emplace_unique_key_args<void*, std::__ndk1::piecewise_construct_t const&, std::__ndk1::tuple<void* const&>, std::__ndk1::tuple<> >(void* const&, std::__ndk1::piecewise_construct_t const&, std::__ndk1::tuple<void* const&>, std::__ndk1::tuple<>)
PUBLIC 3b9e0 0 <.plt ELF section in alphalaneous.fine_outline.android64.so>
STACK CFI INIT 1ed60 10 .cfa: sp 0 +
STACK CFI INIT 1ed70 8 .cfa: sp 0 +
STACK CFI INIT 1ed78 8 .cfa: sp 0 +
STACK CFI INIT 1ed80 14 .cfa: sp 0 +
STACK CFI INIT 1ed94 1c .cfa: sp 0 +
STACK CFI INIT 1edb0 10 .cfa: sp 0 +
STACK CFI INIT 1edc0 134 .cfa: sp 0 +
STACK CFI INIT 1eef4 84 .cfa: sp 0 +
STACK CFI INIT 1ef78 f4 .cfa: sp 0 +
STACK CFI INIT 1f06c a8 .cfa: sp 0 +
STACK CFI INIT 1f114 7c .cfa: sp 0 +
STACK CFI INIT 1f190 14 .cfa: sp 0 +
STACK CFI INIT 1f1a4 40 .cfa: sp 0 +
STACK CFI INIT 1f1e4 28 .cfa: sp 0 +
STACK CFI INIT 1f20c 190 .cfa: sp 0 +
STACK CFI INIT 1f39c 2c8 .cfa: sp 0 +
STACK CFI INIT 1f664 8 .cfa: sp 0 +
STACK CFI INIT 1f66c 8 .cfa: sp 0 +
STACK CFI INIT 1f674 44 .cfa: sp 0 +
STACK CFI INIT 1f6b8 e8 .cfa: sp 0 +
STACK CFI INIT 1f7a0 e8 .cfa: sp 0 +
STACK CFI INIT 1f888 14 .cfa: sp 0 +
STACK CFI INIT 1f89c 10 .cfa: sp 0 +
STACK CFI INIT 1f8ac 10 .cfa: sp 0 +
STACK CFI INIT 1f8bc f0 .cfa: sp 0 +
STACK CFI INIT 1f9ac 44 .cfa: sp 0 +
STACK CFI INIT 1f9f0 c .cfa: sp 0 +
STACK CFI INIT 1f9fc c .cfa: sp 0 +
STACK CFI INIT 1fa08 2c .cfa: sp 0 +
STACK CFI INIT 1fa34 280 .cfa: sp 0 +
STACK CFI INIT 1fcb4 c .cfa: sp 0 +
STACK CFI INIT 1fcc0 120 .cfa: sp 0 +
STACK CFI INIT 1fde0 488 .cfa: sp 0 +
STACK CFI INIT 20268 c48 .cfa: sp 0 +
STACK CFI INIT 20eb0 134 .cfa: sp 0 +
STACK CFI INIT 20fe4 210 .cfa: sp 0 +
STACK CFI INIT 211f4 38c .cfa: sp 0 +
STACK CFI INIT 21580 1c8 .cfa: sp 0 +
STACK CFI INIT 21748 9bc .cfa: sp 0 +
STACK CFI INIT 22104 2d4 .cfa: sp 0 +
STACK CFI INIT 223d8 134 .cfa: sp 0 +
STACK CFI INIT 2250c 120 .cfa: sp 0 +
STACK CFI INIT 2262c 1c8 .cfa: sp 0 +
STACK CFI INIT 227f4 168 .cfa: sp 0 +
STACK CFI INIT 2295c fc .cfa: sp 0 +
STACK CFI INIT 22a58 30 .cfa: sp 0 +
STACK CFI INIT 22d9c 80 .cfa: sp 0 +
STACK CFI 22da0 .cfa: sp 48 +
STACK CFI 22dac .cfa: x29 48 + x19: .cfa -8 + ^ x20: .cfa -16 + ^ x21: .cfa -24 + ^ x22: .cfa -32 + ^ .ra: .cfa -40 + ^ x29: .cfa -48 + ^
STACK CFI 22dc4 .cfa: sp 48 +
STACK CFI 22dd0 .cfa: sp 0 +
STACK CFI 22dd4 .cfa: x29 48 +
STACK CFI 22e04 .cfa: sp 48 +
STACK CFI 22e10 .cfa: sp 0 +
STACK CFI 22e14 .cfa: x29 48 +
STACK CFI INIT 22e1c 14 .cfa: sp 0 +
STACK CFI 22e20 .cfa: sp 16 +
STACK CFI 22e24 .cfa: x29 16 + .ra: .cfa -8 + ^ x29: .cfa -16 + ^
STACK CFI INIT 22e80 30 .cfa: sp 0 +
STACK CFI 22e84 .cfa: sp 32 +
STACK CFI 22e8c .cfa: x29 32 + x19: .cfa -16 + ^ .ra: .cfa -24 + ^ x29: .cfa -32 + ^
STACK CFI 22ea4 .cfa: sp 32 +
STACK CFI 22eac .cfa: sp 0 +
STACK CFI INIT 22eb0 30 .cfa: sp 0 +
STACK CFI INIT 22ee0 98 .cfa: sp 0 +
STACK CFI INIT 22f78 59c .cfa: sp 0 +
STACK CFI INIT 23514 8c .cfa: sp 0 +
STACK CFI INIT 235a0 30 .cfa: sp 0 +
STACK CFI INIT 239ec 13c .cfa: sp 0 +
STACK CFI 239f0 .cfa: sp 80 +
STACK CFI 23a00 .cfa: x29 48 + x19: .cfa -8 + ^ x20: .cfa -16 + ^ x21: .cfa -24 + ^ x22: .cfa -32 + ^ .ra: .cfa -40 + ^ x29: .cfa -48 + ^
STACK CFI 23b10 .cfa: sp 80 +
STACK CFI 23b20 .cfa: sp 0 +
STACK CFI 23b24 .cfa: x29 48 +
STACK CFI INIT 24794 18 .cfa: sp 0 +
STACK CFI INIT 24c30 18 .cfa: sp 0 +
STACK CFI INIT 250cc 18 .cfa: sp 0 +
STACK CFI INIT 25568 18 .cfa: sp 0 +
STACK CFI INIT 25d48 18 .cfa: sp 0 +
STACK CFI INIT 261e4 18 .cfa: sp 0 +
STACK CFI INIT 26680 18 .cfa: sp 0 +
STACK CFI INIT 26b94 18 .cfa: sp 0 +
STACK CFI INIT 270a8 18 .cfa: sp 0 +
STACK CFI INIT 27544 18 .cfa: sp 0 +
STACK CFI INIT 279e0 18 .cfa: sp 0 +
STACK CFI INIT 279f8 10 .cfa: sp 0 +
STACK CFI 279fc .cfa: sp 16 +
STACK CFI 27a00 .cfa: x29 16 + .ra: .cfa -8 + ^ x29: .cfa -16 + ^
STACK CFI INIT 27a08 34 .cfa: sp 0 +
STACK CFI 27a0c .cfa: sp 32 +
STACK CFI 27a14 .cfa: x29 32 + x19: .cfa -16 + ^ .ra: .cfa -24 + ^ x29: .cfa -32 + ^
STACK CFI INIT 27a3c 104 .cfa: sp 0 +
STACK CFI 27a40 .cfa: sp 80 +
STACK CFI 27a54 .cfa: x29 80 + x19: .cfa -8 + ^ x20: .cfa -16 + ^ x21: .cfa -24 + ^ x22: .cfa -32 + ^ x23: .cfa -40 + ^ x24: .cfa -48 + ^ x25: .cfa -56 + ^ x26: .cfa -64 + ^ .ra: .cfa -72 + ^ x29: .cfa -80 + ^
STACK CFI 27b20 .cfa: sp 80 +
STACK CFI 27b34 .cfa: sp 0 +
STACK CFI 27b38 .cfa: x29 80 +
STACK CFI INIT 29308 50 .cfa: sp 0 +
STACK CFI 2930c .cfa: sp 32 +
STACK CFI 29314 .cfa: x29 32 + x19: .cfa -16 + ^ .ra: .cfa -24 + ^ x29: .cfa -32 + ^
STACK CFI 2932c .cfa: sp 32 +
STACK CFI 29334 .cfa: sp 0 +
STACK CFI 29338 .cfa: x29 32 +
STACK CFI 2934c .cfa: sp 32 +
STACK CFI 29354 .cfa: sp 0 +
STACK CFI INIT 293cc 7c .cfa: sp 0 +
STACK CFI 293d0 .cfa: sp 48 +
STACK CFI 293dc .cfa: x29 48 + x19: .cfa -8 + ^ x20: .cfa -16 + ^ x21: .cfa -32 + ^ .ra: .cfa -40 + ^ x29: .cfa -48 + ^
STACK CFI 29428 .cfa: sp 48 +
STACK CFI 29434 .cfa: sp 0 +
STACK CFI 29438 .cfa: sp 48 +
STACK CFI 29444 .cfa: sp 0 +
STACK CFI INIT 29448 4 .cfa: sp 0 +
STACK CFI INIT 295a0 34 .cfa: sp 0 +
STACK CFI 295a4 .cfa: sp 16 +
STACK CFI 295a8 .cfa: x29 16 + .ra: .cfa -8 + ^ x29: .cfa -16 + ^
STACK CFI INIT 29700 80 .cfa: sp 0 +
STACK CFI 29704 .cfa: sp 48 +
STACK CFI 29710 .cfa: x29 48 + x19: .cfa -8 + ^ x20: .cfa -16 + ^ x21: .cfa -32 + ^ .ra: .cfa -40 + ^ x29: .cfa -48 + ^
STACK CFI 29770 .cfa: sp 48 +
STACK CFI 2977c .cfa: sp 0 +
STACK CFI INIT 29780 24 .cfa: sp 0 +
STACK CFI 29784 .cfa: sp 32 +
STACK CFI 2978c .cfa: x29 32 + x19: .cfa -16 + ^ .ra: .cfa -24 + ^ x29: .cfa -32 + ^
STACK CFI 29798 .cfa: sp 32 +
STACK CFI 297a0 .cfa: sp 0 +
STACK CFI INIT 29c9c 148 .cfa: sp 0 +
STACK CFI 29ca0 .cfa: sp 48 +
STACK CFI 29cac .cfa: x29 48 + x19: .cfa -8 + ^ x20: .cfa -16 + ^ x21: .cfa -32 + ^ .ra: .cfa -40 + ^ x29: .cfa -48 + ^
STACK CFI 29dd4 .cfa: sp 48 +
STACK CFI 29de0 .cfa: sp 0 +
STACK CFI INIT 2a008 68 .cfa: sp 0 +
STACK CFI 2a00c .cfa: sp 32 +
STACK CFI 2a014 .cfa: x29 32 + x19: .cfa -8 + ^ x20: .cfa -16 + ^ .ra: .cfa -24 + ^ x29: .cfa -32 + ^
STACK CFI 2a02c .cfa: sp 32 +
STACK CFI 2a034 .cfa: sp 0 +
STACK CFI 2a038 .cfa: x29 32 +
STACK CFI 2a064 .cfa: sp 32 +
STACK CFI 2a06c .cfa: sp 0 +
STACK CFI INIT 2a070 14 .cfa: sp 0 +
STACK CFI 2a074 .cfa: sp 16 +
STACK CFI 2a078 .cfa: x29 16 + .ra: .cfa -8 + ^ x29: .cfa -16 + ^
STACK CFI INIT 2a084 4 .cfa: sp 0 +
STACK CFI INIT 2a088 14 .cfa: sp 0 +
STACK CFI INIT 2a09c 120 .cfa: sp 0 +
STACK CFI 2a0a0 .cfa: sp 64 +
STACK CFI 2a0b0 .cfa: x29 64 + x19: .cfa -8 + ^ x20: .cfa -16 + ^ x21: .cfa -24 + ^ x22: .cfa -32 + ^ x23: .cfa -40 + ^ x24: .cfa -48 + ^ .ra: .cfa -56 + ^ x29: .cfa -64 + ^
STACK CFI 2a1a8 .cfa: sp 64 +
STACK CFI 2a1b8 .cfa: sp 0 +
STACK CFI INIT 2a1bc 4a4 .cfa: sp 0 +
STACK CFI 2a1c0 .cfa: sp 32 +
STACK CFI 2a1c8 .cfa: x29 32 + x19: .cfa -8 + ^ x20: .cfa -16 + ^ .ra: .cfa -24 + ^ x29: .cfa -32 + ^
STACK CFI 2a5a8 .cfa: sp 32 +
STACK CFI 2a5b0 .cfa: sp 0 +
STACK CFI 2a5b4 .cfa: x29 32 +
STACK CFI INIT 2a660 84 .cfa: sp 0 +
STACK CFI 2a668 .cfa: sp 32 +
STACK CFI 2a670 .cfa: x29 32 + x19: .cfa -8 + ^ x20: .cfa -16 + ^ .ra: .cfa -24 + ^ x29: .cfa -32 + ^
STACK CFI 2a6b0 .cfa: sp 32 +
STACK CFI 2a6b8 .cfa: sp 0 +
STACK CFI 2a6c0 .cfa: x29 32 +
STACK CFI INIT 2a8fc 1d4 .cfa: sp 0 +
STACK CFI 2a900 .cfa: sp 96 +
STACK CFI 2a918 .cfa: x29 80 + x19: .cfa -8 + ^ x20: .cfa -16 + ^ x21: .cfa -24 + ^ x22: .cfa -32 + ^ x23: .cfa -40 + ^ x24: .cfa -48 + ^ x25: .cfa -64 + ^ .ra: .cfa -72 + ^ x29: .cfa -80 + ^
STACK CFI 2a9e4 .cfa: sp 96 +
STACK CFI 2a9fc .cfa: sp 0 +
STACK CFI 2aa00 .cfa: x29 80 +
STACK CFI 2aa20 .cfa: sp 96 +
STACK CFI 2aa38 .cfa: sp 0 +
STACK CFI 2aa3c .cfa: x29 80 +
STACK CFI INIT 2aad0 10c .cfa: sp 0 +
STACK CFI 2aad4 .cfa: sp 80 +
STACK CFI 2aae8 .cfa: x29 64 + x19: .cfa -8 + ^ x20: .cfa -16 + ^ x21: .cfa -24 + ^ x22: .cfa -32 + ^ x23: .cfa -48 + ^ .ra: .cfa -56 + ^ x29: .cfa -64 + ^
STACK CFI 2ab44 .cfa: sp 80 +
STACK CFI 2ab58 .cfa: sp 0 +
STACK CFI 2ab5c .cfa: x29 64 +
STACK CFI 2ab78 .cfa: sp 80 +
STACK CFI 2ab8c .cfa: sp 0 +
STACK CFI 2ab90 .cfa: x29 64 +
STACK CFI INIT 2abdc f4 .cfa: sp 0 +
STACK CFI 2abe0 .cfa: sp 64 +
STACK CFI 2abf0 .cfa: x29 48 + x19: .cfa -8 + ^ x20: .cfa -16 + ^ x21: .cfa -24 + ^ x22: .cfa -32 + ^ .ra: .cfa -40 + ^ x29: .cfa -48 + ^
STACK CFI 2ac44 .cfa: sp 64 +
STACK CFI 2ac54 .cfa: sp 0 +
STACK CFI 2ac58 .cfa: x29 48 +
STACK CFI 2ac70 .cfa: sp 64 +
STACK CFI 2ac80 .cfa: sp 0 +
STACK CFI 2ac84 .cfa: x29 48 +
STACK CFI INIT 2acd0 10c .cfa: sp 0 +
STACK CFI 2acd4 .cfa: sp 80 +
STACK CFI 2ace8 .cfa: x29 64 + x19: .cfa -8 + ^ x20: .cfa -16 + ^ x21: .cfa -24 + ^ x22: .cfa -32 + ^ x23: .cfa -48 + ^ .ra: .cfa -56 + ^ x29: .cfa -64 + ^
STACK CFI 2ad44 .cfa: sp 80 +
STACK CFI 2ad58 .cfa: sp 0 +
STACK CFI 2ad5c .cfa: x29 64 +
STACK CFI 2ad78 .cfa: sp 80 +
STACK CFI 2ad8c .cfa: sp 0 +
STACK CFI 2ad90 .cfa: x29 64 +
STACK CFI INIT 2af10 e8 .cfa: sp 0 +
STACK CFI 2af14 .cfa: sp 64 +
STACK CFI 2af24 .cfa: x29 48 + x19: .cfa -8 + ^ x20: .cfa -16 + ^ x21: .cfa -32 + ^ .ra: .cfa -40 + ^ x29: .cfa -48 + ^
STACK CFI 2af70 .cfa: sp 64 +
STACK CFI 2af80 .cfa: sp 0 +
STACK CFI 2af84 .cfa: x29 48 +
STACK CFI 2af98 .cfa: sp 64 +
STACK CFI 2afa8 .cfa: sp 0 +
STACK CFI 2afac .cfa: x29 48 +
STACK CFI INIT 2aff8 e8 .cfa: sp 0 +
STACK CFI 2affc .cfa: sp 64 +
STACK CFI 2b00c .cfa: x29 48 + x19: .cfa -8 + ^ x20: .cfa -16 + ^ x21: .cfa -32 + ^ .ra: .cfa -40 + ^ x29: .cfa -48 + ^
STACK CFI 2b058 .cfa: sp 64 +
STACK CFI 2b068 .cfa: sp 0 +
STACK CFI 2b06c .cfa: x29 48 +
STACK CFI 2b080 .cfa: sp 64 +
STACK CFI 2b090 .cfa: sp 0 +
STACK CFI 2b094 .cfa: x29 48 +
STACK CFI INIT 2b0e0 e8 .cfa: sp 0 +
STACK CFI 2b0e4 .cfa: sp 64 +
STACK CFI 2b0f4 .cfa: x29 48 + x19: .cfa -8 + ^ x20: .cfa -16 + ^ x21: .cfa -32 + ^ .ra: .cfa -40 + ^ x29: .cfa -48 + ^
STACK CFI 2b140 .cfa: sp 64 +
STACK CFI 2b150 .cfa: sp 0 +
STACK CFI 2b154 .cfa: x29 48 +
STACK CFI 2b168 .cfa: sp 64 +
STACK CFI 2b178 .cfa: sp 0 +
STACK CFI 2b17c .cfa: x29 48 +
STACK CFI INIT 2b360 50 .cfa: sp 0 +
STACK CFI 2b364 .cfa: sp 32 +
STACK CFI 2b36c .cfa: x29 32 + x19: .cfa -16 + ^ .ra: .cfa -24 + ^ x29: .cfa -32 + ^
STACK CFI 2b384 .cfa: sp 32 +
STACK CFI 2b38c .cfa: sp 0 +
STACK CFI 2b390 .cfa: x29 32 +
STACK CFI 2b3a4 .cfa: sp 32 +
STACK CFI 2b3ac .cfa: sp 0 +
STACK CFI INIT 2b3b0 64 .cfa: sp 0 +
STACK CFI 2b3b4 .cfa: sp 32 +
STACK CFI 2b3bc .cfa: x29 32 + x19: .cfa -16 + ^ .ra: .cfa -24 + ^ x29: .cfa -32 + ^
STACK CFI 2b3e8 .cfa: sp 32 +
STACK CFI 2b3f0 .cfa: sp 0 +
STACK CFI 2b3f4 .cfa: x29 32 +
STACK CFI 2b408 .cfa: sp 32 +
STACK CFI 2b410 .cfa: sp 0 +
STACK CFI INIT 2bc24 14 .cfa: sp 0 +
STACK CFI 2bc28 .cfa: sp 16 +
STACK CFI 2bc2c .cfa: x29 16 + .ra: .cfa -8 + ^ x29: .cfa -16 + ^
STACK CFI INIT 2bc38 14 .cfa: sp 0 +
STACK CFI 2bc3c .cfa: sp 16 +
STACK CFI 2bc40 .cfa: x29 16 + .ra: .cfa -8 + ^ x29: .cfa -16 + ^
STACK CFI INIT 2bc4c c .cfa: sp 0 +
STACK CFI 2bc50 .cfa: sp 16 +
STACK CFI 2bc54 .cfa: x29 16 + .ra: .cfa -8 + ^ x29: .cfa -16 + ^
STACK CFI INIT 2bca8 30 .cfa: sp 0 +
STACK CFI 2bcac .cfa: sp 32 +
STACK CFI 2bcb4 .cfa: x29 32 + x19: .cfa -16 + ^ .ra: .cfa -24 + ^ x29: .cfa -32 + ^
STACK CFI 2bccc .cfa: sp 32 +
STACK CFI 2bcd4 .cfa: sp 0 +
STACK CFI INIT 2bcd8 c .cfa: sp 0 +
STACK CFI 2bcdc .cfa: sp 16 +
STACK CFI 2bce0 .cfa: x29 16 + .ra: .cfa -8 + ^ x29: .cfa -16 + ^
STACK CFI INIT 2bce4 4 .cfa: sp 0 +
STACK CFI INIT 2bce8 4 .cfa: sp 0 +
STACK CFI INIT 2bcec 38 .cfa: sp 0 +
STACK CFI 2bcf0 .cfa: sp 32 +
STACK CFI 2bcf8 .cfa: x29 32 + x19: .cfa -16 + ^ .ra: .cfa -24 + ^ x29: .cfa -32 + ^
STACK CFI 2bd18 .cfa: sp 32 +
STACK CFI 2bd20 .cfa: sp 0 +
STACK CFI INIT 2bd24 18 .cfa: sp 0 +
STACK CFI INIT 2bd3c 4 .cfa: sp 0 +
STACK CFI INIT 2bd40 4 .cfa: sp 0 +
STACK CFI INIT 2bd44 10 .cfa: sp 0 +
STACK CFI INIT 2bd54 1c .cfa: sp 0 +
STACK CFI INIT 2bd70 c .cfa: sp 0 +
STACK CFI INIT 2bd7c 4c .cfa: sp 0 +
STACK CFI 2bd80 .cfa: sp 32 +
STACK CFI 2bd88 .cfa: x29 32 + x19: .cfa -8 + ^ x20: .cfa -16 + ^ .ra: .cfa -24 + ^ x29: .cfa -32 + ^
STACK CFI 2bdb0 .cfa: sp 32 +
STACK CFI 2bdb8 .cfa: sp 0 +
STACK CFI 2bdbc .cfa: sp 32 +
STACK CFI 2bdc4 .cfa: sp 0 +
STACK CFI INIT 2c108 1c8 .cfa: sp 0 +
STACK CFI 2c10c .cfa: sp 32 +
STACK CFI 2c114 .cfa: x29 32 + x19: .cfa -8 + ^ x20: .cfa -16 + ^ .ra: .cfa -24 + ^ x29: .cfa -32 + ^
STACK CFI 2c218 .cfa: sp 32 +
STACK CFI 2c220 .cfa: sp 0 +
STACK CFI 2c224 .cfa: x29 32 +
STACK CFI INIT 2c2d0 168 .cfa: sp 0 +
STACK CFI 2c2d4 .cfa: sp 80 +
STACK CFI 2c2e8 .cfa: x29 80 + x19: .cfa -8 + ^ x20: .cfa -16 + ^ x21: .cfa -24 + ^ x22: .cfa -32 + ^ x23: .cfa -40 + ^ x24: .cfa -48 + ^ x25: .cfa -56 + ^ x26: .cfa -64 + ^ .ra: .cfa -72 + ^ x29: .cfa -80 + ^
STACK CFI 2c420 .cfa: sp 80 +
STACK CFI 2c434 .cfa: sp 0 +
STACK CFI INIT 2c438 7c .cfa: sp 0 +
STACK CFI 2c43c .cfa: sp 32 +
STACK CFI 2c444 .cfa: x29 32 + x19: .cfa -8 + ^ x20: .cfa -16 + ^ .ra: .cfa -24 + ^ x29: .cfa -32 + ^
STACK CFI 2c49c .cfa: sp 32 +
STACK CFI 2c4a4 .cfa: sp 0 +
STACK CFI 2c4a8 .cfa: sp 32 +
STACK CFI 2c4b0 .cfa: sp 0 +
STACK CFI INIT 2c4b4 1b0 .cfa: sp 0 +
STACK CFI INIT 2c89c f8 .cfa: sp 0 +
STACK CFI 2c8a0 .cfa: sp 64 +
STACK CFI 2c8b0 .cfa: x29 64 + x19: .cfa -8 + ^ x20: .cfa -16 + ^ x21: .cfa -24 + ^ x22: .cfa -32 + ^ x23: .cfa -48 + ^ .ra: .cfa -56 + ^ x29: .cfa -64 + ^
STACK CFI 2c90c .cfa: sp 64 +
STACK CFI 2c91c .cfa: sp 0 +
STACK CFI 2c920 .cfa: x29 64 +
STACK CFI 2c93c .cfa: sp 64 +
STACK CFI 2c94c .cfa: sp 0 +
STACK CFI 2c950 .cfa: x29 64 +
STACK CFI 2c980 .cfa: sp 64 +
STACK CFI 2c990 .cfa: sp 0 +
STACK CFI INIT 2d27c 4 .cfa: sp 0 +
STACK CFI INIT 2d280 d8 .cfa: sp 0 +
STACK CFI 2d284 .cfa: sp 64 +
STACK CFI 2d294 .cfa: x29 48 + x19: .cfa -8 + ^ x20: .cfa -16 + ^ x21: .cfa -24 + ^ x22: .cfa -32 + ^ .ra: .cfa -40 + ^ x29: .cfa -48 + ^
STACK CFI 2d2ec .cfa: sp 64 +
STACK CFI 2d2fc .cfa: sp 0 +
STACK CFI 2d300 .cfa: x29 48 +
STACK CFI INIT 2d400 7c .cfa: sp 0 +
STACK CFI 2d404 .cfa: sp 32 +
STACK CFI 2d40c .cfa: x29 32 + x19: .cfa -16 + ^ .ra: .cfa -24 + ^ x29: .cfa -32 + ^
STACK CFI 2d470 .cfa: sp 32 +
STACK CFI 2d478 .cfa: sp 0 +
STACK CFI INIT 2d47c 50 .cfa: sp 0 +
STACK CFI 2d480 .cfa: sp 32 +
STACK CFI 2d488 .cfa: x29 32 + x19: .cfa -16 + ^ .ra: .cfa -24 + ^ x29: .cfa -32 + ^
STACK CFI 2d4a0 .cfa: sp 32 +
STACK CFI 2d4a8 .cfa: sp 0 +
STACK CFI 2d4ac .cfa: x29 32 +
STACK CFI 2d4c0 .cfa: sp 32 +
STACK CFI 2d4c8 .cfa: sp 0 +
STACK CFI INIT 2d4cc 50 .cfa: sp 0 +
STACK CFI 2d4d0 .cfa: sp 32 +
STACK CFI 2d4d8 .cfa: x29 32 + x19: .cfa -16 + ^ .ra: .cfa -24 + ^ x29: .cfa -32 + ^
STACK CFI 2d4f0 .cfa: sp 32 +
STACK CFI 2d4f8 .cfa: sp 0 +
STACK CFI 2d4fc .cfa: x29 32 +
STACK CFI 2d510 .cfa: sp 32 +
STACK CFI 2d518 .cfa: sp 0 +
STACK CFI INIT 2d888 4 .cfa: sp 0 +
STACK CFI INIT 2d88c 14 .cfa: sp 0 +
STACK CFI INIT 2d8a0 4 .cfa: sp 0 +
STACK CFI INIT 2d8a4 14 .cfa: sp 0 +
STACK CFI INIT 2d8b8 50 .cfa: sp 0 +
STACK CFI 2d8bc .cfa: sp 32 +
STACK CFI 2d8c4 .cfa: x29 32 + x19: .cfa -16 + ^ .ra: .cfa -24 + ^ x29: .cfa -32 + ^
STACK CFI 2d8dc .cfa: sp 32 +
STACK CFI 2d8e4 .cfa: sp 0 +
STACK CFI 2d8e8 .cfa: x29 32 +
STACK CFI 2d8fc .cfa: sp 32 +
STACK CFI 2d904 .cfa: sp 0 +
STACK CFI INIT 2d908 4 .cfa: sp 0 +
STACK CFI INIT 2d90c 4 .cfa: sp 0 +
STACK CFI INIT 2d910 38 .cfa: sp 0 +
STACK CFI 2d914 .cfa: sp 32 +
STACK CFI 2d91c .cfa: x29 32 + x19: .cfa -16 + ^ .ra: .cfa -24 + ^ x29: .cfa -32 + ^
STACK CFI 2d93c .cfa: sp 32 +
STACK CFI 2d944 .cfa: sp 0 +
STACK CFI INIT 2d948 18 .cfa: sp 0 +
STACK CFI INIT 2d960 4 .cfa: sp 0 +
STACK CFI INIT 2d964 4 .cfa: sp 0 +
STACK CFI INIT 2da68 1c .cfa: sp 0 +
STACK CFI INIT 2da84 c .cfa: sp 0 +
STACK CFI INIT 2da90 4 .cfa: sp 0 +
STACK CFI INIT 2dbf8 9c .cfa: sp 0 +
STACK CFI 2dbfc .cfa: sp 32 +
STACK CFI 2dc04 .cfa: x29 32 + x19: .cfa -8 + ^ x20: .cfa -16 + ^ .ra: .cfa -24 + ^ x29: .cfa -32 + ^
STACK CFI 2dc88 .cfa: sp 32 +
STACK CFI 2dc90 .cfa: sp 0 +
STACK CFI INIT 2dc94 a4 .cfa: sp 0 +
STACK CFI 2dc98 .cfa: sp 32 +
STACK CFI 2dca0 .cfa: x29 32 + x19: .cfa -8 + ^ x20: .cfa -16 + ^ .ra: .cfa -24 + ^ x29: .cfa -32 + ^
STACK CFI 2dd2c .cfa: sp 32 +
STACK CFI 2dd34 .cfa: sp 0 +
STACK CFI INIT 2dd38 4 .cfa: sp 0 +
STACK CFI INIT 2dea0 5c .cfa: sp 0 +
STACK CFI 2dea4 .cfa: sp 32 +
STACK CFI 2deac .cfa: x29 32 + x19: .cfa -16 + ^ .ra: .cfa -24 + ^ x29: .cfa -32 + ^
STACK CFI 2def0 .cfa: sp 32 +
STACK CFI 2def8 .cfa: sp 0 +
STACK CFI INIT 2defc 64 .cfa: sp 0 +
STACK CFI 2df00 .cfa: sp 32 +
STACK CFI 2df08 .cfa: x29 32 + x19: .cfa -16 + ^ .ra: .cfa -24 + ^ x29: .cfa -32 + ^
STACK CFI 2df54 .cfa: sp 32 +
STACK CFI 2df5c .cfa: sp 0 +
STACK CFI INIT 2df60 4 .cfa: sp 0 +
STACK CFI INIT 2df64 34 .cfa: sp 0 +
STACK CFI 2df68 .cfa: sp 32 +
STACK CFI 2df70 .cfa: x29 32 + x19: .cfa -16 + ^ .ra: .cfa -24 + ^ x29: .cfa -32 + ^
STACK CFI 2df8c .cfa: sp 32 +
STACK CFI 2df94 .cfa: sp 0 +
STACK CFI INIT 2df98 14 .cfa: sp 0 +
STACK CFI INIT 2dfac 4 .cfa: sp 0 +
STACK CFI INIT 2dfb0 4 .cfa: sp 0 +
STACK CFI INIT 2dfb4 10 .cfa: sp 0 +
STACK CFI INIT 2dfc4 1c .cfa: sp 0 +
STACK CFI INIT 2dfe0 c .cfa: sp 0 +
STACK CFI INIT 2e318 4 .cfa: sp 0 +
STACK CFI INIT 2e7ac 4 .cfa: sp 0 +
STACK CFI INIT 2e7b0 50 .cfa: sp 0 +
STACK CFI 2e7b4 .cfa: sp 32 +
STACK CFI 2e7bc .cfa: x29 32 + x19: .cfa -16 + ^ .ra: .cfa -24 + ^ x29: .cfa -32 + ^
STACK CFI 2e7e8 .cfa: sp 32 +
STACK CFI 2e7f0 .cfa: sp 0 +
STACK CFI 2e7f4 .cfa: sp 32 +
STACK CFI 2e7fc .cfa: sp 0 +
STACK CFI INIT 2ec50 4 .cfa: sp 0 +
STACK CFI INIT 2efd8 4 .cfa: sp 0 +
STACK CFI INIT 2efdc 14 .cfa: sp 0 +
STACK CFI INIT 2f0f8 4 .cfa: sp 0 +
STACK CFI INIT 2f0fc 14 .cfa: sp 0 +
STACK CFI INIT 306ec 4 .cfa: sp 0 +
STACK CFI INIT 30a7c 4 .cfa: sp 0 +
STACK CFI INIT 30a80 14 .cfa: sp 0 +
STACK CFI INIT 30efc 4 .cfa: sp 0 +
STACK CFI INIT 30f00 4 .cfa: sp 0 +
STACK CFI INIT 30f04 38 .cfa: sp 0 +
STACK CFI 30f08 .cfa: sp 32 +
STACK CFI 30f10 .cfa: x29 32 + x19: .cfa -16 + ^ .ra: .cfa -24 + ^ x29: .cfa -32 + ^
STACK CFI 30f30 .cfa: sp 32 +
STACK CFI 30f38 .cfa: sp 0 +
STACK CFI INIT 30f3c 18 .cfa: sp 0 +
STACK CFI INIT 30f54 4 .cfa: sp 0 +
STACK CFI INIT 30f58 4 .cfa: sp 0 +
STACK CFI INIT 30f5c 8 .cfa: sp 0 +
STACK CFI INIT 30f64 1c .cfa: sp 0 +
STACK CFI INIT 30f80 c .cfa: sp 0 +
STACK CFI INIT 31460 24 .cfa: sp 0 +
STACK CFI 31464 .cfa: sp 32 +
STACK CFI 3146c .cfa: x29 32 + x19: .cfa -16 + ^ .ra: .cfa -24 + ^ x29: .cfa -32 + ^
STACK CFI 31478 .cfa: sp 32 +
STACK CFI 31480 .cfa: sp 0 +
STACK CFI INIT 31484 24 .cfa: sp 0 +
STACK CFI 31488 .cfa: sp 32 +
STACK CFI 31490 .cfa: x29 32 + x19: .cfa -16 + ^ .ra: .cfa -24 + ^ x29: .cfa -32 + ^
STACK CFI 3149c .cfa: sp 32 +
STACK CFI 314a4 .cfa: sp 0 +
STACK CFI INIT 314a8 24 .cfa: sp 0 +
STACK CFI 314ac .cfa: sp 32 +
STACK CFI 314b4 .cfa: x29 32 + x19: .cfa -16 + ^ .ra: .cfa -24 + ^ x29: .cfa -32 + ^
STACK CFI 314c0 .cfa: sp 32 +
STACK CFI 314c8 .cfa: sp 0 +
STACK CFI INIT 314cc 24 .cfa: sp 0 +
STACK CFI 314d0 .cfa: sp 32 +
STACK CFI 314d8 .cfa: x29 32 + x19: .cfa -16 + ^ .ra: .cfa -24 + ^ x29: .cfa -32 + ^
STACK CFI 314e4 .cfa: sp 32 +
STACK CFI 314ec .cfa: sp 0 +
STACK CFI INIT 314f0 24 .cfa: sp 0 +
STACK CFI 314f4 .cfa: sp 32 +
STACK CFI 314fc .cfa: x29 32 + x19: .cfa -16 + ^ .ra: .cfa -24 + ^ x29: .cfa -32 + ^
STACK CFI 31508 .cfa: sp 32 +
STACK CFI 31510 .cfa: sp 0 +
STACK CFI INIT 31514 24 .cfa: sp 0 +
STACK CFI 31518 .cfa: sp 32 +
STACK CFI 31520 .cfa: x29 32 + x19: .cfa -16 + ^ .ra: .cfa -24 + ^ x29: .cfa -32 + ^
STACK CFI 3152c .cfa: sp 32 +
STACK CFI 31534 .cfa: sp 0 +
STACK CFI INIT 31538 24 .cfa: sp 0 +
STACK CFI 3153c .cfa: sp 32 +
STACK CFI 31544 .cfa: x29 32 + x19: .cfa -16 + ^ .ra: .cfa -24 + ^ x29: .cfa -32 + ^
STACK CFI 31550 .cfa: sp 32 +
STACK CFI 31558 .cfa: sp 0 +
STACK CFI INIT 3189c 4 .cfa: sp 0 +
STACK CFI INIT 318a0 34 .cfa: sp 0 +
STACK CFI 318a4 .cfa: sp 32 +
STACK CFI 318ac .cfa: x29 32 + x19: .cfa -16 + ^ .ra: .cfa -24 + ^ x29: .cfa -32 + ^
STACK CFI 318c8 .cfa: sp 32 +
STACK CFI 318d0 .cfa: sp 0 +
STACK CFI INIT 318d4 14 .cfa: sp 0 +
STACK CFI INIT 318e8 4 .cfa: sp 0 +
STACK CFI INIT 318ec 4 .cfa: sp 0 +
STACK CFI INIT 318f0 8 .cfa: sp 0 +
STACK CFI INIT 318f8 1c .cfa: sp 0 +
STACK CFI INIT 31914 c .cfa: sp 0 +
STACK CFI INIT 32094 4 .cfa: sp 0 +
STACK CFI INIT 32098 40 .cfa: sp 0 +
STACK CFI 3209c .cfa: sp 32 +
STACK CFI 320a4 .cfa: x29 32 + x19: .cfa -8 + ^ x20: .cfa -16 + ^ .ra: .cfa -24 + ^ x29: .cfa -32 + ^
STACK CFI 320cc .cfa: sp 32 +
STACK CFI 320d4 .cfa: sp 0 +
STACK CFI INIT 320d8 1ac .cfa: sp 0 +
STACK CFI 320dc .cfa: sp 64 +
STACK CFI 320ec .cfa: x29 64 + x19: .cfa -8 + ^ x20: .cfa -16 + ^ x21: .cfa -24 + ^ x22: .cfa -32 + ^ x23: .cfa -48 + ^ .ra: .cfa -56 + ^ x29: .cfa -64 + ^
STACK CFI 3225c .cfa: sp 64 +
STACK CFI 3226c .cfa: sp 0 +
STACK CFI 32270 .cfa: sp 64 +
STACK CFI 32280 .cfa: sp 0 +
STACK CFI INIT 328a0 4 .cfa: sp 0 +
STACK CFI INIT 33828 4 .cfa: sp 0 +
STACK CFI INIT 33df4 4 .cfa: sp 0 +
STACK CFI INIT 34030 88 .cfa: sp 0 +
STACK CFI 34034 .cfa: sp 32 +
STACK CFI 3403c .cfa: x29 32 + x19: .cfa -8 + ^ x20: .cfa -16 + ^ .ra: .cfa -24 + ^ x29: .cfa -32 + ^
STACK CFI 340ac .cfa: sp 32 +
STACK CFI 340b4 .cfa: sp 0 +
STACK CFI INIT 340b8 84 .cfa: sp 0 +
STACK CFI 340bc .cfa: sp 32 +
STACK CFI 340c4 .cfa: x29 32 + x19: .cfa -16 + ^ .ra: .cfa -24 + ^ x29: .cfa -32 + ^
STACK CFI 34124 .cfa: sp 32 +
STACK CFI 3412c .cfa: sp 0 +
STACK CFI 34130 .cfa: sp 32 +
STACK CFI 34138 .cfa: sp 0 +
STACK CFI INIT 341e4 b4 .cfa: sp 0 +
STACK CFI 341e8 .cfa: sp 32 +
STACK CFI 341f0 .cfa: x29 32 + x19: .cfa -16 + ^ .ra: .cfa -24 + ^ x29: .cfa -32 + ^
STACK CFI 3428c .cfa: sp 32 +
STACK CFI 34294 .cfa: sp 0 +
STACK CFI INIT 34bac 4 .cfa: sp 0 +
STACK CFI INIT 35c6c 4 .cfa: sp 0 +
STACK CFI INIT 36274 84 .cfa: sp 0 +
STACK CFI 36278 .cfa: sp 32 +
STACK CFI 36280 .cfa: x29 32 + x19: .cfa -16 + ^ .ra: .cfa -24 + ^ x29: .cfa -32 + ^
STACK CFI 362ec .cfa: sp 32 +
STACK CFI 362f4 .cfa: sp 0 +
STACK CFI INIT 367c0 2d8 .cfa: sp 0 +
STACK CFI 367c4 .cfa: sp 96 +
STACK CFI 367d8 .cfa: x29 64 + x19: .cfa -8 + ^ x20: .cfa -16 + ^ x21: .cfa -24 + ^ x22: .cfa -32 + ^ x23: .cfa -48 + ^ .ra: .cfa -56 + ^ x29: .cfa -64 + ^
STACK CFI 36a7c .cfa: sp 96 +
STACK CFI 36a90 .cfa: sp 0 +
STACK CFI 36a94 .cfa: x29 64 +
STACK CFI INIT 36a98 114 .cfa: sp 0 +
STACK CFI 36a9c .cfa: sp 48 +
STACK CFI 36aa8 .cfa: x29 48 + x19: .cfa -8 + ^ x20: .cfa -16 + ^ x21: .cfa -32 + ^ .ra: .cfa -40 + ^ x29: .cfa -48 + ^
STACK CFI 36b8c .cfa: sp 48 +
STACK CFI 36b98 .cfa: sp 0 +
STACK CFI 36b9c .cfa: sp 48 +
STACK CFI 36ba8 .cfa: sp 0 +
STACK CFI INIT 37924 4 .cfa: sp 0 +
STACK CFI INIT 37928 4 .cfa: sp 0 +
STACK CFI INIT 3792c 34 .cfa: sp 0 +
STACK CFI 37930 .cfa: sp 32 +
STACK CFI 37938 .cfa: x29 32 + x19: .cfa -16 + ^ .ra: .cfa -24 + ^ x29: .cfa -32 + ^
STACK CFI 37954 .cfa: sp 32 +
STACK CFI 3795c .cfa: sp 0 +
STACK CFI INIT 37960 14 .cfa: sp 0 +
STACK CFI INIT 37974 4 .cfa: sp 0 +
STACK CFI INIT 37978 4 .cfa: sp 0 +
STACK CFI INIT 3797c f0 .cfa: sp 0 +
STACK CFI 37980 .cfa: sp 32 +
STACK CFI 37988 .cfa: x29 32 + x19: .cfa -16 + ^ .ra: .cfa -24 + ^ x29: .cfa -32 + ^
STACK CFI 37a54 .cfa: sp 32 +
STACK CFI 37a5c .cfa: sp 0 +
STACK CFI 37a60 .cfa: sp 32 +
STACK CFI 37a68 .cfa: sp 0 +
STACK CFI INIT 37a6c 1c .cfa: sp 0 +
STACK CFI INIT 37a88 c .cfa: sp 0 +
STACK CFI INIT 37f8c 4 .cfa: sp 0 +
STACK CFI INIT 37f90 180 .cfa: sp 0 +
STACK CFI 37f94 .cfa: sp 64 +
STACK CFI 37fa4 .cfa: x29 48 + x19: .cfa -8 + ^ x20: .cfa -16 + ^ x21: .cfa -24 + ^ x22: .cfa -32 + ^ .ra: .cfa -40 + ^ x29: .cfa -48 + ^
STACK CFI 380f8 .cfa: sp 64 +
STACK CFI 38108 .cfa: sp 0 +
STACK CFI 3810c .cfa: x29 48 +
STACK CFI INIT 38484 4 .cfa: sp 0 +
STACK CFI INIT 38488 180 .cfa: sp 0 +
STACK CFI 3848c .cfa: sp 64 +
STACK CFI 3849c .cfa: x29 48 + x19: .cfa -8 + ^ x20: .cfa -16 + ^ x21: .cfa -24 + ^ x22: .cfa -32 + ^ .ra: .cfa -40 + ^ x29: .cfa -48 + ^
STACK CFI 385f0 .cfa: sp 64 +
STACK CFI 38600 .cfa: sp 0 +
STACK CFI 38604 .cfa: x29 48 +
STACK CFI INIT 38734 3c .cfa: sp 0 +
STACK CFI 38738 .cfa: sp 32 +
STACK CFI 38740 .cfa: x29 32 + x19: .cfa -16 + ^ .ra: .cfa -24 + ^ x29: .cfa -32 + ^
STACK CFI 3874c .cfa: sp 32 +
STACK CFI 38754 .cfa: sp 0 +
STACK CFI 38758 .cfa: x29 32 +
STACK CFI 38764 .cfa: sp 32 +
STACK CFI 3876c .cfa: sp 0 +
STACK CFI INIT 38770 4c .cfa: sp 0 +
STACK CFI 38774 .cfa: sp 32 +
STACK CFI 3877c .cfa: x29 32 + x19: .cfa -8 + ^ x20: .cfa -16 + ^ .ra: .cfa -24 + ^ x29: .cfa -32 + ^
STACK CFI 387a4 .cfa: sp 32 +
STACK CFI 387ac .cfa: sp 0 +
STACK CFI 387b0 .cfa: sp 32 +
STACK CFI 387b8 .cfa: sp 0 +
STACK CFI INIT 389dc 64 .cfa: sp 0 +
STACK CFI 389e0 .cfa: sp 32 +
STACK CFI 389e8 .cfa: x29 32 + x19: .cfa -16 + ^ .ra: .cfa -24 + ^ x29: .cfa -32 + ^
STACK CFI 38a14 .cfa: sp 32 +
STACK CFI 38a1c .cfa: sp 0 +
STACK CFI 38a20 .cfa: x29 32 +
STACK CFI 38a34 .cfa: sp 32 +
STACK CFI 38a3c .cfa: sp 0 +
STACK CFI INIT 38a40 24 .cfa: sp 0 +
STACK CFI 38a44 .cfa: sp 32 +
STACK CFI 38a4c .cfa: x29 32 + x19: .cfa -16 + ^ .ra: .cfa -24 + ^ x29: .cfa -32 + ^
STACK CFI 38a58 .cfa: sp 32 +
STACK CFI 38a60 .cfa: sp 0 +
STACK CFI INIT 38a64 24 .cfa: sp 0 +
STACK CFI 38a68 .cfa: sp 32 +
STACK CFI 38a70 .cfa: x29 32 + x19: .cfa -16 + ^ .ra: .cfa -24 + ^ x29: .cfa -32 + ^
STACK CFI 38a7c .cfa: sp 32 +
STACK CFI 38a84 .cfa: sp 0 +
STACK CFI INIT 38a88 24 .cfa: sp 0 +
STACK CFI 38a8c .cfa: sp 32 +
STACK CFI 38a94 .cfa: x29 32 + x19: .cfa -16 + ^ .ra: .cfa -24 + ^ x29: .cfa -32 + ^
STACK CFI 38aa0 .cfa: sp 32 +
STACK CFI 38aa8 .cfa: sp 0 +
STACK CFI INIT 38d1c 24 .cfa: sp 0 +
STACK CFI 38d20 .cfa: sp 32 +
STACK CFI 38d28 .cfa: x29 32 + x19: .cfa -16 + ^ .ra: .cfa -24 + ^ x29: .cfa -32 + ^
STACK CFI 38d34 .cfa: sp 32 +
STACK CFI 38d3c .cfa: sp 0 +
STACK CFI INIT 38f6c 8 .cfa: sp 0 +
STACK CFI INIT 38f74 24 .cfa: sp 0 +
STACK CFI 38f78 .cfa: sp 32 +
STACK CFI 38f80 .cfa: x29 32 + x19: .cfa -16 + ^ .ra: .cfa -24 + ^ x29: .cfa -32 + ^
STACK CFI 38f8c .cfa: sp 32 +
STACK CFI 38f94 .cfa: sp 0 +
STACK CFI INIT 38f98 28 .cfa: sp 0 +
STACK CFI 38f9c .cfa: sp 32 +
STACK CFI 38fa4 .cfa: x29 32 + x19: .cfa -16 + ^ .ra: .cfa -24 + ^ x29: .cfa -32 + ^
STACK CFI 38fb4 .cfa: sp 32 +
STACK CFI 38fbc .cfa: sp 0 +
STACK CFI INIT 392c0 8 .cfa: sp 0 +
STACK CFI INIT 392c8 24 .cfa: sp 0 +
STACK CFI 392cc .cfa: sp 32 +
STACK CFI 392d4 .cfa: x29 32 + x19: .cfa -16 + ^ .ra: .cfa -24 + ^ x29: .cfa -32 + ^
STACK CFI 392e0 .cfa: sp 32 +
STACK CFI 392e8 .cfa: sp 0 +
STACK CFI INIT 392ec 28 .cfa: sp 0 +
STACK CFI 392f0 .cfa: sp 32 +
STACK CFI 392f8 .cfa: x29 32 + x19: .cfa -16 + ^ .ra: .cfa -24 + ^ x29: .cfa -32 + ^
STACK CFI 39308 .cfa: sp 32 +
STACK CFI 39310 .cfa: sp 0 +
STACK CFI INIT 39314 8 .cfa: sp 0 +
STACK CFI INIT 3931c 24 .cfa: sp 0 +
STACK CFI 39320 .cfa: sp 32 +
STACK CFI 39328 .cfa: x29 32 + x19: .cfa -16 + ^ .ra: .cfa -24 + ^ x29: .cfa -32 + ^
STACK CFI 39334 .cfa: sp 32 +
STACK CFI 3933c .cfa: sp 0 +
STACK CFI INIT 39340 28 .cfa: sp 0 +
STACK CFI 39344 .cfa: sp 32 +
STACK CFI 3934c .cfa: x29 32 + x19: .cfa -16 + ^ .ra: .cfa -24 + ^ x29: .cfa -32 + ^
STACK CFI 3935c .cfa: sp 32 +
STACK CFI 39364 .cfa: sp 0 +
STACK CFI INIT 39368 24 .cfa: sp 0 +
STACK CFI 3936c .cfa: sp 32 +
STACK CFI 39374 .cfa: x29 32 + x19: .cfa -16 + ^ .ra: .cfa -24 + ^ x29: .cfa -32 + ^
STACK CFI 39380 .cfa: sp 32 +
STACK CFI 39388 .cfa: sp 0 +
STACK CFI INIT 39644 24 .cfa: sp 0 +
STACK CFI 39648 .cfa: sp 32 +
STACK CFI 39650 .cfa: x29 32 + x19: .cfa -16 + ^ .ra: .cfa -24 + ^ x29: .cfa -32 + ^
STACK CFI 3965c .cfa: sp 32 +
STACK CFI 39664 .cfa: sp 0 +
STACK CFI INIT 39ac8 8 .cfa: sp 0 +
STACK CFI INIT 39ad0 24 .cfa: sp 0 +
STACK CFI 39ad4 .cfa: sp 32 +
STACK CFI 39adc .cfa: x29 32 + x19: .cfa -16 + ^ .ra: .cfa -24 + ^ x29: .cfa -32 + ^
STACK CFI 39ae8 .cfa: sp 32 +
STACK CFI 39af0 .cfa: sp 0 +
STACK CFI INIT 39af4 28 .cfa: sp 0 +
STACK CFI 39af8 .cfa: sp 32 +
STACK CFI 39b00 .cfa: x29 32 + x19: .cfa -16 + ^ .ra: .cfa -24 + ^ x29: .cfa -32 + ^
STACK CFI 39b10 .cfa: sp 32 +
STACK CFI 39b18 .cfa: sp 0 +
STACK CFI INIT 39dd4 1f8 .cfa: sp 0 +
STACK CFI 39dd8 .cfa: sp 112 +
STACK CFI 39df8 .cfa: x29 72 + x19: .cfa -8 + ^ x20: .cfa -16 + ^ x21: .cfa -24 + ^ x22: .cfa -32 + ^ x23: .cfa -40 + ^ x24: .cfa -48 + ^ x25: .cfa -56 + ^ .ra: .cfa -64 + ^ x29: .cfa -72 + ^ v8: .cfa -80 + ^ v9: .cfa -88 + ^ v10: .cfa -96 + ^
STACK CFI 39fa4 .cfa: sp 112 +
STACK CFI 39fc4 .cfa: sp 0 +
STACK CFI 39fc8 .cfa: x29 72 +
STACK CFI INIT 3a28c 8 .cfa: sp 0 +
STACK CFI INIT 3a294 4 .cfa: sp 0 +
STACK CFI INIT 3a298 4 .cfa: sp 0 +
STACK CFI INIT 3a29c 8 .cfa: sp 0 +
STACK CFI INIT 3a2a4 4 .cfa: sp 0 +
STACK CFI INIT 3a2a8 8 .cfa: sp 0 +
STACK CFI INIT 3a2b0 c .cfa: sp 0 +
STACK CFI INIT 3a2bc c .cfa: sp 0 +
STACK CFI INIT 3a2c8 8 .cfa: sp 0 +
STACK CFI INIT 3a2d0 8 .cfa: sp 0 +
STACK CFI INIT 3a2d8 8 .cfa: sp 0 +
STACK CFI INIT 3a2e0 8 .cfa: sp 0 +
STACK CFI INIT 3a2e8 4 .cfa: sp 0 +
STACK CFI INIT 3a2ec 4 .cfa: sp 0 +
STACK CFI INIT 3a2f0 4 .cfa: sp 0 +
STACK CFI INIT 3a2f4 4 .cfa: sp 0 +
STACK CFI INIT 3a2f8 4 .cfa: sp 0 +
STACK CFI INIT 3a2fc 8 .cfa: sp 0 +
STACK CFI INIT 3a304 4 .cfa: sp 0 +
STACK CFI INIT 3a308 8 .cfa: sp 0 +
STACK CFI INIT 3b4b0 4 .cfa: sp 0 +
STACK CFI INIT 3b4b4 14 .cfa: sp 0 +
STACK CFI INIT 22bb4 1e8 .cfa: sp 0 +
STACK CFI 22bb8 .cfa: sp 128 +
STACK CFI 22bcc .cfa: x29 64 + x19: .cfa -8 + ^ x20: .cfa -16 + ^ x21: .cfa -24 + ^ x22: .cfa -32 + ^ x23: .cfa -48 + ^ .ra: .cfa -56 + ^ x29: .cfa -64 + ^
STACK CFI 22d24 .cfa: sp 128 +
STACK CFI 22d38 .cfa: sp 0 +
STACK CFI 22d3c .cfa: x29 64 +
STACK CFI INIT 22e30 50 .cfa: sp 0 +
STACK CFI 22e34 .cfa: sp 32 +
STACK CFI 22e3c .cfa: x29 32 + x19: .cfa -8 + ^ x20: .cfa -16 + ^ .ra: .cfa -24 + ^ x29: .cfa -32 + ^
STACK CFI INIT 235d0 41c .cfa: sp 0 +
STACK CFI 235d4 .cfa: sp 224 +
STACK CFI 235e8 .cfa: x29 64 + x19: .cfa -8 + ^ x20: .cfa -16 + ^ x21: .cfa -24 + ^ x22: .cfa -32 + ^ x23: .cfa -48 + ^ .ra: .cfa -56 + ^ x29: .cfa -64 + ^
STACK CFI 238e0 .cfa: sp 224 +
STACK CFI 238f4 .cfa: sp 0 +
STACK CFI 238f8 .cfa: x29 64 +
STACK CFI INIT 23b28 388 .cfa: sp 0 +
STACK CFI 23b2c .cfa: sp 192 +
STACK CFI 23b40 .cfa: x29 64 + x19: .cfa -8 + ^ x20: .cfa -16 + ^ x21: .cfa -24 + ^ x22: .cfa -32 + ^ x23: .cfa -48 + ^ .ra: .cfa -56 + ^ x29: .cfa -64 + ^
STACK CFI 23d1c .cfa: sp 192 +
STACK CFI 23d30 .cfa: sp 0 +
STACK CFI 23d34 .cfa: x29 64 +
STACK CFI INIT 23eb0 460 .cfa: sp 0 +
STACK CFI 23eb4 .cfa: sp 176 +
STACK CFI 23ecc .cfa: x29 80 + x19: .cfa -8 + ^ x20: .cfa -16 + ^ x21: .cfa -24 + ^ x22: .cfa -32 + ^ x23: .cfa -40 + ^ x24: .cfa -48 + ^ x25: .cfa -64 + ^ .ra: .cfa -72 + ^ x29: .cfa -80 + ^
STACK CFI 24264 .cfa: sp 176 +
STACK CFI 2427c .cfa: sp 0 +
STACK CFI 24280 .cfa: x29 80 +
STACK CFI INIT 24310 484 .cfa: sp 0 +
STACK CFI 24314 .cfa: sp 224 +
STACK CFI 24330 .cfa: x29 96 + x19: .cfa -8 + ^ x20: .cfa -16 + ^ x21: .cfa -24 + ^ x22: .cfa -32 + ^ x23: .cfa -40 + ^ x24: .cfa -48 + ^ x25: .cfa -56 + ^ x26: .cfa -64 + ^ x27: .cfa -72 + ^ x28: .cfa -80 + ^ .ra: .cfa -88 + ^ x29: .cfa -96 + ^
STACK CFI 245a0 .cfa: sp 224 +
STACK CFI 245bc .cfa: sp 0 +
STACK CFI 245c0 .cfa: x29 96 +
STACK CFI 2468c .cfa: sp 224 +
STACK CFI 246a8 .cfa: sp 0 +
STACK CFI 246ac .cfa: x29 96 +
STACK CFI INIT 247ac 484 .cfa: sp 0 +
STACK CFI 247b0 .cfa: sp 224 +
STACK CFI 247cc .cfa: x29 96 + x19: .cfa -8 + ^ x20: .cfa -16 + ^ x21: .cfa -24 + ^ x22: .cfa -32 + ^ x23: .cfa -40 + ^ x24: .cfa -48 + ^ x25: .cfa -56 + ^ x26: .cfa -64 + ^ x27: .cfa -72 + ^ x28: .cfa -80 + ^ .ra: .cfa -88 + ^ x29: .cfa -96 + ^
STACK CFI 24a3c .cfa: sp 224 +
STACK CFI 24a58 .cfa: sp 0 +
STACK CFI 24a5c .cfa: x29 96 +
STACK CFI 24b28 .cfa: sp 224 +
STACK CFI 24b44 .cfa: sp 0 +
STACK CFI 24b48 .cfa: x29 96 +
STACK CFI INIT 24c48 484 .cfa: sp 0 +
STACK CFI 24c4c .cfa: sp 224 +
STACK CFI 24c68 .cfa: x29 96 + x19: .cfa -8 + ^ x20: .cfa -16 + ^ x21: .cfa -24 + ^ x22: .cfa -32 + ^ x23: .cfa -40 + ^ x24: .cfa -48 + ^ x25: .cfa -56 + ^ x26: .cfa -64 + ^ x27: .cfa -72 + ^ x28: .cfa -80 + ^ .ra: .cfa -88 + ^ x29: .cfa -96 + ^
STACK CFI 24ed8 .cfa: sp 224 +
STACK CFI 24ef4 .cfa: sp 0 +
STACK CFI 24ef8 .cfa: x29 96 +
STACK CFI 24fc4 .cfa: sp 224 +
STACK CFI 24fe0 .cfa: sp 0 +
STACK CFI 24fe4 .cfa: x29 96 +
STACK CFI INIT 250e4 484 .cfa: sp 0 +
STACK CFI 250e8 .cfa: sp 224 +
STACK CFI 25104 .cfa: x29 96 + x19: .cfa -8 + ^ x20: .cfa -16 + ^ x21: .cfa -24 + ^ x22: .cfa -32 + ^ x23: .cfa -40 + ^ x24: .cfa -48 + ^ x25: .cfa -56 + ^ x26: .cfa -64 + ^ x27: .cfa -72 + ^ x28: .cfa -80 + ^ .ra: .cfa -88 + ^ x29: .cfa -96 + ^
STACK CFI 25374 .cfa: sp 224 +
STACK CFI 25390 .cfa: sp 0 +
STACK CFI 25394 .cfa: x29 96 +
STACK CFI 25460 .cfa: sp 224 +
STACK CFI 2547c .cfa: sp 0 +
STACK CFI 25480 .cfa: x29 96 +
STACK CFI INIT 25580 7c8 .cfa: sp 0 +
STACK CFI 25584 .cfa: sp 464 +
STACK CFI 255a0 .cfa: x29 96 + x19: .cfa -8 + ^ x20: .cfa -16 + ^ x21: .cfa -24 + ^ x22: .cfa -32 + ^ x23: .cfa -40 + ^ x24: .cfa -48 + ^ x25: .cfa -56 + ^ x26: .cfa -64 + ^ x27: .cfa -72 + ^ x28: .cfa -80 + ^ .ra: .cfa -88 + ^ x29: .cfa -96 + ^
STACK CFI 25668 .cfa: sp 464 +
STACK CFI 25684 .cfa: sp 0 +
STACK CFI 25688 .cfa: x29 96 +
STACK CFI 25bbc .cfa: sp 464 +
STACK CFI 25bd8 .cfa: sp 0 +
STACK CFI 25bdc .cfa: x29 96 +
STACK CFI INIT 25d60 484 .cfa: sp 0 +
STACK CFI 25d64 .cfa: sp 224 +
STACK CFI 25d80 .cfa: x29 96 + x19: .cfa -8 + ^ x20: .cfa -16 + ^ x21: .cfa -24 + ^ x22: .cfa -32 + ^ x23: .cfa -40 + ^ x24: .cfa -48 + ^ x25: .cfa -56 + ^ x26: .cfa -64 + ^ x27: .cfa -72 + ^ x28: .cfa -80 + ^ .ra: .cfa -88 + ^ x29: .cfa -96 + ^
STACK CFI 25ff0 .cfa: sp 224 +
STACK CFI 2600c .cfa: sp 0 +
STACK CFI 26010 .cfa: x29 96 +
STACK CFI 260dc .cfa: sp 224 +
STACK CFI 260f8 .cfa: sp 0 +
STACK CFI 260fc .cfa: x29 96 +
STACK CFI INIT 261fc 484 .cfa: sp 0 +
STACK CFI 26200 .cfa: sp 224 +
STACK CFI 2621c .cfa: x29 96 + x19: .cfa -8 + ^ x20: .cfa -16 + ^ x21: .cfa -24 + ^ x22: .cfa -32 + ^ x23: .cfa -40 + ^ x24: .cfa -48 + ^ x25: .cfa -56 + ^ x26: .cfa -64 + ^ x27: .cfa -72 + ^ x28: .cfa -80 + ^ .ra: .cfa -88 + ^ x29: .cfa -96 + ^
STACK CFI 2648c .cfa: sp 224 +
STACK CFI 264a8 .cfa: sp 0 +
STACK CFI 264ac .cfa: x29 96 +
STACK CFI 26578 .cfa: sp 224 +
STACK CFI 26594 .cfa: sp 0 +
STACK CFI 26598 .cfa: x29 96 +
STACK CFI INIT 26698 4fc .cfa: sp 0 +
STACK CFI 2669c .cfa: sp 224 +
STACK CFI 266b8 .cfa: x29 96 + x19: .cfa -8 + ^ x20: .cfa -16 + ^ x21: .cfa -24 + ^ x22: .cfa -32 + ^ x23: .cfa -40 + ^ x24: .cfa -48 + ^ x25: .cfa -56 + ^ x26: .cfa -64 + ^ x27: .cfa -72 + ^ x28: .cfa -80 + ^ .ra: .cfa -88 + ^ x29: .cfa -96 + ^
STACK CFI 26998 .cfa: sp 224 +
STACK CFI 269b4 .cfa: sp 0 +
STACK CFI 269b8 .cfa: x29 96 +
STACK CFI 26a84 .cfa: sp 224 +
STACK CFI 26aa0 .cfa: sp 0 +
STACK CFI 26aa4 .cfa: x29 96 +
STACK CFI INIT 26bac 4fc .cfa: sp 0 +
STACK CFI 26bb0 .cfa: sp 224 +
STACK CFI 26bcc .cfa: x29 96 + x19: .cfa -8 + ^ x20: .cfa -16 + ^ x21: .cfa -24 + ^ x22: .cfa -32 + ^ x23: .cfa -40 + ^ x24: .cfa -48 + ^ x25: .cfa -56 + ^ x26: .cfa -64 + ^ x27: .cfa -72 + ^ x28: .cfa -80 + ^ .ra: .cfa -88 + ^ x29: .cfa -96 + ^
STACK CFI 26eac .cfa: sp 224 +
STACK CFI 26ec8 .cfa: sp 0 +
STACK CFI 26ecc .cfa: x29 96 +
STACK CFI 26f98 .cfa: sp 224 +
STACK CFI 26fb4 .cfa: sp 0 +
STACK CFI 26fb8 .cfa: x29 96 +
STACK CFI INIT 270c0 484 .cfa: sp 0 +
STACK CFI 270c4 .cfa: sp 224 +
STACK CFI 270e0 .cfa: x29 96 + x19: .cfa -8 + ^ x20: .cfa -16 + ^ x21: .cfa -24 + ^ x22: .cfa -32 + ^ x23: .cfa -40 + ^ x24: .cfa -48 + ^ x25: .cfa -56 + ^ x26: .cfa -64 + ^ x27: .cfa -72 + ^ x28: .cfa -80 + ^ .ra: .cfa -88 + ^ x29: .cfa -96 + ^
STACK CFI 27350 .cfa: sp 224 +
STACK CFI 2736c .cfa: sp 0 +
STACK CFI 27370 .cfa: x29 96 +
STACK CFI 2743c .cfa: sp 224 +
STACK CFI 27458 .cfa: sp 0 +
STACK CFI 2745c .cfa: x29 96 +
STACK CFI INIT 2755c 484 .cfa: sp 0 +
STACK CFI 27560 .cfa: sp 224 +
STACK CFI 2757c .cfa: x29 96 + x19: .cfa -8 + ^ x20: .cfa -16 + ^ x21: .cfa -24 + ^ x22: .cfa -32 + ^ x23: .cfa -40 + ^ x24: .cfa -48 + ^ x25: .cfa -56 + ^ x26: .cfa -64 + ^ x27: .cfa -72 + ^ x28: .cfa -80 + ^ .ra: .cfa -88 + ^ x29: .cfa -96 + ^
STACK CFI 277ec .cfa: sp 224 +
STACK CFI 27808 .cfa: sp 0 +
STACK CFI 2780c .cfa: x29 96 +
STACK CFI 278d8 .cfa: sp 224 +
STACK CFI 278f4 .cfa: sp 0 +
STACK CFI 278f8 .cfa: x29 96 +
STACK CFI INIT 27b40 1c .cfa: sp 0 +
STACK CFI 27b44 .cfa: sp 16 +
STACK CFI 27b48 .cfa: x29 16 + .ra: .cfa -8 + ^ x29: .cfa -16 + ^
STACK CFI 27b50 .cfa: sp 16 +
STACK CFI 27b54 .cfa: sp 0 +
STACK CFI 27b58 .cfa: x29 16 +
STACK CFI INIT 27b5c 17ac .cfa: sp 0 +
STACK CFI 27b60 .cfa: sp 320 +
STACK CFI 27b7c .cfa: x29 96 + x19: .cfa -8 + ^ x20: .cfa -16 + ^ x21: .cfa -24 + ^ x22: .cfa -32 + ^ x23: .cfa -40 + ^ x24: .cfa -48 + ^ x25: .cfa -56 + ^ x26: .cfa -64 + ^ x27: .cfa -72 + ^ x28: .cfa -80 + ^ .ra: .cfa -88 + ^ x29: .cfa -96 + ^
STACK CFI 28cfc .cfa: sp 320 +
STACK CFI 28d18 .cfa: sp 0 +
STACK CFI 28d1c .cfa: x29 96 +
STACK CFI INIT 29358 74 .cfa: sp 0 +
STACK CFI 2935c .cfa: sp 48 +
STACK CFI 29368 .cfa: x29 32 + x19: .cfa -8 + ^ x20: .cfa -16 + ^ .ra: .cfa -24 + ^ x29: .cfa -32 + ^
STACK CFI 293b4 .cfa: sp 48 +
STACK CFI 293c0 .cfa: sp 0 +
STACK CFI 293c4 .cfa: x29 32 +
STACK CFI INIT 2944c 154 .cfa: sp 0 +
STACK CFI 29450 .cfa: sp 384 +
STACK CFI 29464 .cfa: x29 64 + x19: .cfa -8 + ^ x20: .cfa -16 + ^ x21: .cfa -24 + ^ x22: .cfa -32 + ^ x23: .cfa -40 + ^ x28: .cfa -48 + ^ .ra: .cfa -56 + ^ x29: .cfa -64 + ^
STACK CFI 29548 .cfa: sp 384 +
STACK CFI 2955c .cfa: sp 0 +
STACK CFI 29560 .cfa: x29 64 +
STACK CFI INIT 295d4 12c .cfa: sp 0 +
STACK CFI 295d8 .cfa: sp 80 +
STACK CFI 295ec .cfa: x29 80 + x19: .cfa -8 + ^ x20: .cfa -16 + ^ x21: .cfa -24 + ^ x22: .cfa -32 + ^ x23: .cfa -40 + ^ x24: .cfa -48 + ^ x25: .cfa -56 + ^ x26: .cfa -64 + ^ .ra: .cfa -72 + ^ x29: .cfa -80 + ^
STACK CFI 296b4 .cfa: sp 80 +
STACK CFI 296c8 .cfa: sp 0 +
STACK CFI 296cc .cfa: x29 80 +
STACK CFI INIT 297a4 1a4 .cfa: sp 0 +
STACK CFI 297a8 .cfa: sp 112 +
STACK CFI 297c0 .cfa: x29 80 + x19: .cfa -8 + ^ x20: .cfa -16 + ^ x21: .cfa -24 + ^ x22: .cfa -32 + ^ x23: .cfa -40 + ^ x24: .cfa -48 + ^ x25: .cfa -56 + ^ x26: .cfa -64 + ^ .ra: .cfa -72 + ^ x29: .cfa -80 + ^
STACK CFI 298b0 .cfa: sp 112 +
STACK CFI 298c8 .cfa: sp 0 +
STACK CFI 298cc .cfa: x29 80 +
STACK CFI INIT 29948 1dc .cfa: sp 0 +
STACK CFI 2994c .cfa: sp 128 +
STACK CFI 29968 .cfa: x29 96 + x19: .cfa -8 + ^ x20: .cfa -16 + ^ x21: .cfa -24 + ^ x22: .cfa -32 + ^ x23: .cfa -40 + ^ x24: .cfa -48 + ^ x25: .cfa -56 + ^ x26: .cfa -64 + ^ x27: .cfa -80 + ^ .ra: .cfa -88 + ^ x29: .cfa -96 + ^
STACK CFI 29ad4 .cfa: sp 128 +
STACK CFI 29af0 .cfa: sp 0 +
STACK CFI 29af4 .cfa: x29 96 +
STACK CFI INIT 29b24 178 .cfa: sp 0 +
STACK CFI 29b28 .cfa: sp 80 +
STACK CFI 29b3c .cfa: x29 80 + x19: .cfa -8 + ^ x20: .cfa -16 + ^ x21: .cfa -24 + ^ x22: .cfa -32 + ^ x23: .cfa -40 + ^ x24: .cfa -48 + ^ x25: .cfa -64 + ^ .ra: .cfa -72 + ^ x29: .cfa -80 + ^
STACK CFI 29c68 .cfa: sp 80 +
STACK CFI 29c7c .cfa: sp 0 +
STACK CFI 29c80 .cfa: x29 80 +
STACK CFI INIT 29de4 224 .cfa: sp 0 +
STACK CFI 29de8 .cfa: sp 128 +
STACK CFI 29e00 .cfa: x29 80 + x19: .cfa -8 + ^ x20: .cfa -16 + ^ x21: .cfa -24 + ^ x22: .cfa -32 + ^ x23: .cfa -40 + ^ x24: .cfa -48 + ^ x25: .cfa -64 + ^ .ra: .cfa -72 + ^ x29: .cfa -80 + ^
STACK CFI 29f9c .cfa: sp 128 +
STACK CFI 29fb4 .cfa: sp 0 +
STACK CFI 29fb8 .cfa: x29 80 +
STACK CFI INIT 2a6e4 218 .cfa: sp 0 +
STACK CFI 2a6e8 .cfa: sp 144 +
STACK CFI 2a6fc .cfa: x29 64 + x19: .cfa -8 + ^ x20: .cfa -16 + ^ x21: .cfa -24 + ^ x22: .cfa -32 + ^ x23: .cfa -48 + ^ .ra: .cfa -56 + ^ x29: .cfa -64 + ^
STACK CFI 2a804 .cfa: sp 144 +
STACK CFI 2a818 .cfa: sp 0 +
STACK CFI 2a81c .cfa: x29 64 +
STACK CFI INIT 2addc 134 .cfa: sp 0 +
STACK CFI 2ade0 .cfa: sp 128 +
STACK CFI 2adf4 .cfa: x29 64 + x19: .cfa -8 + ^ x20: .cfa -16 + ^ x21: .cfa -24 + ^ x22: .cfa -32 + ^ x23: .cfa -40 + ^ x24: .cfa -48 + ^ .ra: .cfa -56 + ^ x29: .cfa -64 + ^
STACK CFI 2aec0 .cfa: sp 128 +
STACK CFI 2aed4 .cfa: sp 0 +
STACK CFI 2aed8 .cfa: x29 64 +
STACK CFI INIT 2b1c8 198 .cfa: sp 0 +
STACK CFI 2b1cc .cfa: sp 96 +
STACK CFI 2b1e4 .cfa: x29 80 + x19: .cfa -8 + ^ x20: .cfa -16 + ^ x21: .cfa -24 + ^ x22: .cfa -32 + ^ x23: .cfa -40 + ^ x24: .cfa -48 + ^ x25: .cfa -64 + ^ .ra: .cfa -72 + ^ x29: .cfa -80 + ^
STACK CFI 2b2c8 .cfa: sp 96 +
STACK CFI 2b2e0 .cfa: sp 0 +
STACK CFI 2b2e4 .cfa: x29 80 +
STACK CFI INIT 2b414 444 .cfa: sp 0 +
STACK CFI 2b418 .cfa: sp 176 +
STACK CFI 2b434 .cfa: x29 96 + x19: .cfa -8 + ^ x20: .cfa -16 + ^ x21: .cfa -24 + ^ x22: .cfa -32 + ^ x23: .cfa -40 + ^ x24: .cfa -48 + ^ x25: .cfa -56 + ^ x26: .cfa -64 + ^ x27: .cfa -72 + ^ x28: .cfa -80 + ^ .ra: .cfa -88 + ^ x29: .cfa -96 + ^
STACK CFI 2b474 .cfa: sp 176 +
STACK CFI 2b490 .cfa: sp 0 +
STACK CFI 2b494 .cfa: x29 96 +
STACK CFI INIT 2b858 10c .cfa: sp 0 +
STACK CFI 2b85c .cfa: sp 64 +
STACK CFI 2b86c .cfa: x29 64 + x19: .cfa -8 + ^ x20: .cfa -16 + ^ x21: .cfa -24 + ^ x22: .cfa -32 + ^ x23: .cfa -48 + ^ .ra: .cfa -56 + ^ x29: .cfa -64 + ^
STACK CFI 2b944 .cfa: sp 64 +
STACK CFI 2b954 .cfa: sp 0 +
STACK CFI 2b958 .cfa: x29 64 +
STACK CFI INIT 2b964 2c0 .cfa: sp 0 +
STACK CFI 2b968 .cfa: sp 32 +
STACK CFI 2b970 .cfa: x29 32 + x19: .cfa -8 + ^ x20: .cfa -16 + ^ .ra: .cfa -24 + ^ x29: .cfa -32 + ^
STACK CFI 2bbbc .cfa: sp 32 +
STACK CFI 2bbc4 .cfa: sp 0 +
STACK CFI 2bbc8 .cfa: x29 32 +
STACK CFI INIT 2bc58 50 .cfa: sp 0 +
STACK CFI 2bc5c .cfa: sp 32 +
STACK CFI 2bc64 .cfa: x29 32 + x19: .cfa -8 + ^ x20: .cfa -16 + ^ .ra: .cfa -24 + ^ x29: .cfa -32 + ^
STACK CFI INIT 2bdc8 340 .cfa: sp 0 +
STACK CFI 2bdcc .cfa: sp 80 +
STACK CFI 2bde0 .cfa: x29 80 + x19: .cfa -8 + ^ x20: .cfa -16 + ^ x21: .cfa -24 + ^ x22: .cfa -32 + ^ x23: .cfa -40 + ^ x24: .cfa -48 + ^ x25: .cfa -56 + ^ x26: .cfa -64 + ^ .ra: .cfa -72 + ^ x29: .cfa -80 + ^
STACK CFI 2c0dc .cfa: sp 80 +
STACK CFI 2c0f0 .cfa: sp 0 +
STACK CFI 2c0f4 .cfa: x29 80 +
STACK CFI INIT 2c664 10c .cfa: sp 0 +
STACK CFI 2c668 .cfa: sp 32 +
STACK CFI 2c670 .cfa: x29 32 + x19: .cfa -16 + ^ .ra: .cfa -24 + ^ x29: .cfa -32 + ^
STACK CFI 2c6a4 .cfa: sp 32 +
STACK CFI 2c6ac .cfa: sp 0 +
STACK CFI 2c6b0 .cfa: x29 32 +
STACK CFI 2c6b4 .cfa: sp 32 +
STACK CFI 2c6bc .cfa: sp 0 +
STACK CFI 2c6c0 .cfa: x29 32 +
STACK CFI INIT 2c770 12c .cfa: sp 0 +
STACK CFI 2c774 .cfa: sp 64 +
STACK CFI 2c784 .cfa: x29 64 + x19: .cfa -8 + ^ x20: .cfa -16 + ^ x21: .cfa -24 + ^ x22: .cfa -32 + ^ x23: .cfa -40 + ^ x24: .cfa -48 + ^ .ra: .cfa -56 + ^ x29: .cfa -64 + ^
STACK CFI 2c85c .cfa: sp 64 +
STACK CFI 2c86c .cfa: sp 0 +
STACK CFI 2c870 .cfa: x29 64 +
STACK CFI INIT 2c994 1c .cfa: sp 0 +
STACK CFI 2c998 .cfa: sp 16 +
STACK CFI 2c99c .cfa: x29 16 + .ra: .cfa -8 + ^ x29: .cfa -16 + ^
STACK CFI 2c9a4 .cfa: sp 16 +
STACK CFI 2c9a8 .cfa: sp 0 +
STACK CFI 2c9ac .cfa: x29 16 +
STACK CFI INIT 2c9b0 10c .cfa: sp 0 +
STACK CFI 2c9b4 .cfa: sp 32 +
STACK CFI 2c9bc .cfa: x29 32 + x19: .cfa -16 + ^ .ra: .cfa -24 + ^ x29: .cfa -32 + ^
STACK CFI 2c9f0 .cfa: sp 32 +
STACK CFI 2c9f8 .cfa: sp 0 +
STACK CFI 2c9fc .cfa: x29 32 +
STACK CFI 2ca00 .cfa: sp 32 +
STACK CFI 2ca08 .cfa: sp 0 +
STACK CFI 2ca0c .cfa: x29 32 +
STACK CFI INIT 2cabc 10c .cfa: sp 0 +
STACK CFI 2cac0 .cfa: sp 32 +
STACK CFI 2cac8 .cfa: x29 32 + x19: .cfa -16 + ^ .ra: .cfa -24 + ^ x29: .cfa -32 + ^
STACK CFI 2cafc .cfa: sp 32 +
STACK CFI 2cb04 .cfa: sp 0 +
STACK CFI 2cb08 .cfa: x29 32 +
STACK CFI 2cb0c .cfa: sp 32 +
STACK CFI 2cb14 .cfa: sp 0 +
STACK CFI 2cb18 .cfa: x29 32 +
STACK CFI INIT 2cbc8 10c .cfa: sp 0 +
STACK CFI 2cbcc .cfa: sp 32 +
STACK CFI 2cbd4 .cfa: x29 32 + x19: .cfa -16 + ^ .ra: .cfa -24 + ^ x29: .cfa -32 + ^
STACK CFI 2cc08 .cfa: sp 32 +
STACK CFI 2cc10 .cfa: sp 0 +
STACK CFI 2cc14 .cfa: x29 32 +
STACK CFI 2cc18 .cfa: sp 32 +
STACK CFI 2cc20 .cfa: sp 0 +
STACK CFI 2cc24 .cfa: x29 32 +
STACK CFI INIT 2ccd4 130 .cfa: sp 0 +
STACK CFI 2ccd8 .cfa: sp 48 +
STACK CFI 2cce4 .cfa: x29 48 + x19: .cfa -8 + ^ x20: .cfa -16 + ^ x21: .cfa -24 + ^ x22: .cfa -32 + ^ .ra: .cfa -40 + ^ x29: .cfa -48 + ^
STACK CFI 2cd30 .cfa: sp 48 +
STACK CFI 2cd3c .cfa: sp 0 +
STACK CFI 2cd40 .cfa: x29 48 +
STACK CFI 2cd44 .cfa: sp 48 +
STACK CFI 2cd50 .cfa: sp 0 +
STACK CFI 2cd54 .cfa: x29 48 +
STACK CFI INIT 2ce04 10c .cfa: sp 0 +
STACK CFI 2ce08 .cfa: sp 32 +
STACK CFI 2ce10 .cfa: x29 32 + x19: .cfa -16 + ^ .ra: .cfa -24 + ^ x29: .cfa -32 + ^
STACK CFI 2ce44 .cfa: sp 32 +
STACK CFI 2ce4c .cfa: sp 0 +
STACK CFI 2ce50 .cfa: x29 32 +
STACK CFI 2ce54 .cfa: sp 32 +
STACK CFI 2ce5c .cfa: sp 0 +
STACK CFI 2ce60 .cfa: x29 32 +
STACK CFI INIT 2cf10 36c .cfa: sp 0 +
STACK CFI 2cf14 .cfa: sp 256 +
STACK CFI 2cf28 .cfa: x29 64 + x19: .cfa -8 + ^ x20: .cfa -16 + ^ x21: .cfa -24 + ^ x22: .cfa -32 + ^ x23: .cfa -48 + ^ .ra: .cfa -56 + ^ x29: .cfa -64 + ^
STACK CFI 2d158 .cfa: sp 256 +
STACK CFI 2d16c .cfa: sp 0 +
STACK CFI 2d170 .cfa: x29 64 +
STACK CFI INIT 2d358 a8 .cfa: sp 0 +
STACK CFI 2d35c .cfa: sp 32 +
STACK CFI 2d364 .cfa: x29 32 + x19: .cfa -16 + ^ .ra: .cfa -24 + ^ x29: .cfa -32 + ^
STACK CFI 2d398 .cfa: sp 32 +
STACK CFI 2d3a0 .cfa: sp 0 +
STACK CFI 2d3a4 .cfa: x29 32 +
STACK CFI 2d3a8 .cfa: sp 32 +
STACK CFI 2d3b0 .cfa: sp 0 +
STACK CFI 2d3b4 .cfa: x29 32 +
STACK CFI INIT 2d51c 190 .cfa: sp 0 +
STACK CFI 2d520 .cfa: sp 160 +
STACK CFI 2d530 .cfa: x29 48 + x19: .cfa -8 + ^ x20: .cfa -16 + ^ x21: .cfa -32 + ^ .ra: .cfa -40 + ^ x29: .cfa -48 + ^
STACK CFI 2d650 .cfa: sp 160 +
STACK CFI 2d660 .cfa: sp 0 +
STACK CFI 2d664 .cfa: x29 48 +
STACK CFI INIT 2d6ac 74 .cfa: sp 0 +
STACK CFI 2d6b0 .cfa: sp 48 +
STACK CFI 2d6bc .cfa: x29 32 + x19: .cfa -8 + ^ x20: .cfa -16 + ^ .ra: .cfa -24 + ^ x29: .cfa -32 + ^
STACK CFI 2d708 .cfa: sp 48 +
STACK CFI 2d714 .cfa: sp 0 +
STACK CFI 2d718 .cfa: x29 32 +
STACK CFI INIT 2d720 168 .cfa: sp 0 +
STACK CFI 2d724 .cfa: sp 384 +
STACK CFI 2d738 .cfa: x29 64 + x19: .cfa -8 + ^ x20: .cfa -16 + ^ x21: .cfa -24 + ^ x22: .cfa -32 + ^ x23: .cfa -40 + ^ x28: .cfa -48 + ^ .ra: .cfa -56 + ^ x29: .cfa -64 + ^
STACK CFI 2d830 .cfa: sp 384 +
STACK CFI 2d844 .cfa: sp 0 +
STACK CFI 2d848 .cfa: x29 64 +
STACK CFI INIT 2d968 100 .cfa: sp 0 +
STACK CFI 2d96c .cfa: sp 32 +
STACK CFI 2d974 .cfa: x29 32 + x19: .cfa -8 + ^ x20: .cfa -16 + ^ .ra: .cfa -24 + ^ x29: .cfa -32 + ^
STACK CFI 2d9ec .cfa: sp 32 +
STACK CFI 2d9f4 .cfa: sp 0 +
STACK CFI 2d9f8 .cfa: x29 32 +
STACK CFI 2da40 .cfa: sp 32 +
STACK CFI 2da48 .cfa: sp 0 +
STACK CFI 2da4c .cfa: x29 32 +
STACK CFI INIT 2da94 164 .cfa: sp 0 +
STACK CFI 2da98 .cfa: sp 112 +
STACK CFI 2daa8 .cfa: x29 48 + x19: .cfa -8 + ^ x20: .cfa -16 + ^ x21: .cfa -24 + ^ x22: .cfa -32 + ^ .ra: .cfa -40 + ^ x29: .cfa -48 + ^
STACK CFI 2db94 .cfa: sp 112 +
STACK CFI 2dba4 .cfa: sp 0 +
STACK CFI 2dba8 .cfa: x29 48 +
STACK CFI INIT 2dd3c 164 .cfa: sp 0 +
STACK CFI 2dd40 .cfa: sp 112 +
STACK CFI 2dd50 .cfa: x29 48 + x19: .cfa -8 + ^ x20: .cfa -16 + ^ x21: .cfa -24 + ^ x22: .cfa -32 + ^ .ra: .cfa -40 + ^ x29: .cfa -48 + ^
STACK CFI 2de3c .cfa: sp 112 +
STACK CFI 2de4c .cfa: sp 0 +
STACK CFI 2de50 .cfa: x29 48 +
STACK CFI INIT 2dfec 32c .cfa: sp 0 +
STACK CFI 2dff0 .cfa: sp 240 +
STACK CFI 2e004 .cfa: x29 64 + x19: .cfa -8 + ^ x20: .cfa -16 + ^ x21: .cfa -24 + ^ x22: .cfa -32 + ^ x23: .cfa -48 + ^ .ra: .cfa -56 + ^ x29: .cfa -64 + ^
STACK CFI 2e200 .cfa: sp 240 +
STACK CFI 2e214 .cfa: sp 0 +
STACK CFI 2e218 .cfa: x29 64 +
STACK CFI INIT 2e31c d8 .cfa: sp 0 +
STACK CFI 2e320 .cfa: sp 48 +
STACK CFI 2e32c .cfa: x29 48 + x19: .cfa -8 + ^ x20: .cfa -16 + ^ x21: .cfa -32 + ^ .ra: .cfa -40 + ^ x29: .cfa -48 + ^
STACK CFI 2e344 .cfa: sp 48 +
STACK CFI 2e350 .cfa: sp 0 +
STACK CFI 2e354 .cfa: x29 48 +
STACK CFI 2e3d0 .cfa: sp 48 +
STACK CFI 2e3dc .cfa: sp 0 +
STACK CFI 2e3e0 .cfa: x29 48 +
STACK CFI INIT 2e3f4 3b8 .cfa: sp 0 +
STACK CFI 2e3f8 .cfa: sp 256 +
STACK CFI 2e40c .cfa: x29 64 + x19: .cfa -8 + ^ x20: .cfa -16 + ^ x21: .cfa -24 + ^ x22: .cfa -32 + ^ x23: .cfa -48 + ^ .ra: .cfa -56 + ^ x29: .cfa -64 + ^
STACK CFI 2e674 .cfa: sp 256 +
STACK CFI 2e688 .cfa: sp 0 +
STACK CFI 2e68c .cfa: x29 64 +
STACK CFI INIT 2e800 2c0 .cfa: sp 0 +
STACK CFI 2e804 .cfa: sp 128 +
STACK CFI 2e81c .cfa: x29 80 + x19: .cfa -8 + ^ x20: .cfa -16 + ^ x21: .cfa -24 + ^ x22: .cfa -32 + ^ x23: .cfa -40 + ^ x24: .cfa -48 + ^ x25: .cfa -56 + ^ x26: .cfa -64 + ^ .ra: .cfa -72 + ^ x29: .cfa -80 + ^
STACK CFI 2ea3c .cfa: sp 128 +
STACK CFI 2ea54 .cfa: sp 0 +
STACK CFI 2ea58 .cfa: x29 80 +
STACK CFI INIT 2eac0 190 .cfa: sp 0 +
STACK CFI 2eac4 .cfa: sp 112 +
STACK CFI 2ead4 .cfa: x29 48 + x19: .cfa -8 + ^ x20: .cfa -16 + ^ x21: .cfa -32 + ^ .ra: .cfa -40 + ^ x29: .cfa -48 + ^
STACK CFI 2eba8 .cfa: sp 112 +
STACK CFI 2ebb8 .cfa: sp 0 +
STACK CFI 2ebbc .cfa: x29 48 +
STACK CFI INIT 2ec54 18c .cfa: sp 0 +
STACK CFI 2ec58 .cfa: sp 160 +
STACK CFI 2ec68 .cfa: x29 48 + x19: .cfa -8 + ^ x20: .cfa -16 + ^ x21: .cfa -32 + ^ .ra: .cfa -40 + ^ x29: .cfa -48 + ^
STACK CFI 2ed84 .cfa: sp 160 +
STACK CFI 2ed94 .cfa: sp 0 +
STACK CFI 2ed98 .cfa: x29 48 +
STACK CFI INIT 2ede0 1dc .cfa: sp 0 +
STACK CFI 2ede4 .cfa: sp 208 +
STACK CFI 2edfc .cfa: x29 80 + x19: .cfa -8 + ^ x20: .cfa -16 + ^ x21: .cfa -24 + ^ x22: .cfa -32 + ^ x23: .cfa -40 + ^ x24: .cfa -48 + ^ x25: .cfa -64 + ^ .ra: .cfa -72 + ^ x29: .cfa -80 + ^
STACK CFI 2ef48 .cfa: sp 208 +
STACK CFI 2ef60 .cfa: sp 0 +
STACK CFI 2ef64 .cfa: x29 80 +
STACK CFI INIT 2efbc 1c .cfa: sp 0 +
STACK CFI 2efc0 .cfa: sp 16 +
STACK CFI 2efc4 .cfa: x29 16 + .ra: .cfa -8 + ^ x29: .cfa -16 + ^
STACK CFI 2efcc .cfa: sp 16 +
STACK CFI 2efd0 .cfa: sp 0 +
STACK CFI 2efd4 .cfa: x29 16 +
STACK CFI INIT 2eff0 108 .cfa: sp 0 +
STACK CFI 2eff4 .cfa: sp 112 +
STACK CFI 2f000 .cfa: x29 32 + x19: .cfa -8 + ^ x20: .cfa -16 + ^ .ra: .cfa -24 + ^ x29: .cfa -32 + ^
STACK CFI 2f0c8 .cfa: sp 112 +
STACK CFI 2f0d4 .cfa: sp 0 +
STACK CFI 2f0d8 .cfa: x29 32 +
STACK CFI INIT 2f110 15dc .cfa: sp 0 +
STACK CFI 2f114 .cfa: sp 256 +
STACK CFI 2f12c .cfa: x29 80 + x19: .cfa -8 + ^ x20: .cfa -16 + ^ x21: .cfa -24 + ^ x22: .cfa -32 + ^ x23: .cfa -40 + ^ x24: .cfa -48 + ^ x25: .cfa -64 + ^ .ra: .cfa -72 + ^ x29: .cfa -80 + ^
STACK CFI 3012c .cfa: sp 256 +
STACK CFI 30144 .cfa: sp 0 +
STACK CFI 30148 .cfa: x29 80 +
STACK CFI INIT 306f0 1b8 .cfa: sp 0 +
STACK CFI 306f4 .cfa: sp 96 +
STACK CFI 30708 .cfa: x29 64 + x19: .cfa -8 + ^ x20: .cfa -16 + ^ x21: .cfa -24 + ^ x22: .cfa -32 + ^ x23: .cfa -48 + ^ .ra: .cfa -56 + ^ x29: .cfa -64 + ^
STACK CFI 307d4 .cfa: sp 96 +
STACK CFI 307e8 .cfa: sp 0 +
STACK CFI 307ec .cfa: x29 64 +
STACK CFI 30844 .cfa: sp 96 +
STACK CFI 30858 .cfa: sp 0 +
STACK CFI 3085c .cfa: x29 64 +
STACK CFI INIT 308a8 1d4 .cfa: sp 0 +
STACK CFI 308ac .cfa: sp 128 +
STACK CFI 308c8 .cfa: x29 96 + x19: .cfa -8 + ^ x20: .cfa -16 + ^ x21: .cfa -24 + ^ x22: .cfa -32 + ^ x23: .cfa -40 + ^ x24: .cfa -48 + ^ x25: .cfa -56 + ^ x26: .cfa -64 + ^ x27: .cfa -72 + ^ x28: .cfa -80 + ^ .ra: .cfa -88 + ^ x29: .cfa -96 + ^
STACK CFI 30a34 .cfa: sp 128 +
STACK CFI 30a50 .cfa: sp 0 +
STACK CFI 30a54 .cfa: x29 96 +
STACK CFI INIT 30a94 358 .cfa: sp 0 +
STACK CFI 30a98 .cfa: sp 208 +
STACK CFI 30aac .cfa: x29 64 + x19: .cfa -8 + ^ x20: .cfa -16 + ^ x21: .cfa -24 + ^ x22: .cfa -32 + ^ x23: .cfa -48 + ^ .ra: .cfa -56 + ^ x29: .cfa -64 + ^
STACK CFI 30cd8 .cfa: sp 208 +
STACK CFI 30cec .cfa: sp 0 +
STACK CFI 30cf0 .cfa: x29 64 +
STACK CFI INIT 30dec 110 .cfa: sp 0 +
STACK CFI 30df0 .cfa: sp 96 +
STACK CFI 30e04 .cfa: x29 64 + x19: .cfa -8 + ^ x20: .cfa -16 + ^ x21: .cfa -24 + ^ x22: .cfa -32 + ^ x23: .cfa -40 + ^ x24: .cfa -48 + ^ .ra: .cfa -56 + ^ x29: .cfa -64 + ^
STACK CFI 30e4c .cfa: sp 96 +
STACK CFI 30e60 .cfa: sp 0 +
STACK CFI 30e64 .cfa: x29 64 +
STACK CFI INIT 30f8c 184 .cfa: sp 0 +
STACK CFI 30f90 .cfa: sp 144 +
STACK CFI 30fa8 .cfa: x29 80 + x19: .cfa -8 + ^ x20: .cfa -16 + ^ x21: .cfa -24 + ^ x22: .cfa -32 + ^ x23: .cfa -40 + ^ x24: .cfa -48 + ^ x25: .cfa -56 + ^ x26: .cfa -64 + ^ .ra: .cfa -72 + ^ x29: .cfa -80 + ^
STACK CFI 310a8 .cfa: sp 144 +
STACK CFI 310c0 .cfa: sp 0 +
STACK CFI 310c4 .cfa: x29 80 +
STACK CFI INIT 31110 12c .cfa: sp 0 +
STACK CFI 31114 .cfa: sp 64 +
STACK CFI 31124 .cfa: x29 48 + x19: .cfa -8 + ^ x20: .cfa -16 + ^ x21: .cfa -24 + ^ x22: .cfa -32 + ^ .ra: .cfa -40 + ^ x29: .cfa -48 + ^
STACK CFI 311a0 .cfa: sp 64 +
STACK CFI 311b0 .cfa: sp 0 +
STACK CFI 311b4 .cfa: x29 48 +
STACK CFI INIT 3123c 12c .cfa: sp 0 +
STACK CFI 31240 .cfa: sp 64 +
STACK CFI 31250 .cfa: x29 48 + x19: .cfa -8 + ^ x20: .cfa -16 + ^ x21: .cfa -24 + ^ x22: .cfa -32 + ^ .ra: .cfa -40 + ^ x29: .cfa -48 + ^
STACK CFI 312cc .cfa: sp 64 +
STACK CFI 312dc .cfa: sp 0 +
STACK CFI 312e0 .cfa: x29 48 +
STACK CFI INIT 31368 f8 .cfa: sp 0 +
STACK CFI 3136c .cfa: sp 112 +
STACK CFI 3137c .cfa: x29 48 + x19: .cfa -8 + ^ x20: .cfa -16 + ^ x21: .cfa -24 + ^ x22: .cfa -32 + ^ .ra: .cfa -40 + ^ x29: .cfa -48 + ^
STACK CFI 313fc .cfa: sp 112 +
STACK CFI 3140c .cfa: sp 0 +
STACK CFI 31410 .cfa: x29 48 +
STACK CFI INIT 3155c 340 .cfa: sp 0 +
STACK CFI 31560 .cfa: sp 80 +
STACK CFI 31574 .cfa: x29 80 + x19: .cfa -8 + ^ x20: .cfa -16 + ^ x21: .cfa -24 + ^ x22: .cfa -32 + ^ x23: .cfa -40 + ^ x24: .cfa -48 + ^ x25: .cfa -56 + ^ x26: .cfa -64 + ^ .ra: .cfa -72 + ^ x29: .cfa -80 + ^
STACK CFI 31870 .cfa: sp 80 +
STACK CFI 31884 .cfa: sp 0 +
STACK CFI 31888 .cfa: x29 80 +
STACK CFI INIT 31920 3dc .cfa: sp 0 +
STACK CFI 31924 .cfa: sp 144 +
STACK CFI 3193c .cfa: x29 80 + x19: .cfa -8 + ^ x20: .cfa -16 + ^ x21: .cfa -24 + ^ x22: .cfa -32 + ^ x23: .cfa -40 + ^ x24: .cfa -48 + ^ x25: .cfa -64 + ^ .ra: .cfa -72 + ^ x29: .cfa -80 + ^
STACK CFI 31c44 .cfa: sp 144 +
STACK CFI 31c5c .cfa: sp 0 +
STACK CFI 31c60 .cfa: x29 80 +
STACK CFI INIT 31cfc 398 .cfa: sp 0 +
STACK CFI 31d00 .cfa: sp 224 +
STACK CFI 31d18 .cfa: x29 80 + x19: .cfa -8 + ^ x20: .cfa -16 + ^ x21: .cfa -24 + ^ x22: .cfa -32 + ^ x23: .cfa -40 + ^ x24: .cfa -48 + ^ x25: .cfa -56 + ^ x26: .cfa -64 + ^ .ra: .cfa -72 + ^ x29: .cfa -80 + ^
STACK CFI 31f60 .cfa: sp 224 +
STACK CFI 31f78 .cfa: sp 0 +
STACK CFI 31f7c .cfa: x29 80 +
STACK CFI INIT 32284 61c .cfa: sp 0 +
STACK CFI 32288 .cfa: sp 288 +
STACK CFI 322a4 .cfa: x29 96 + x19: .cfa -8 + ^ x20: .cfa -16 + ^ x21: .cfa -24 + ^ x22: .cfa -32 + ^ x23: .cfa -40 + ^ x24: .cfa -48 + ^ x25: .cfa -56 + ^ x26: .cfa -64 + ^ x28: .cfa -80 + ^ .ra: .cfa -88 + ^ x29: .cfa -96 + ^
STACK CFI 326d0 .cfa: sp 288 +
STACK CFI 326ec .cfa: sp 0 +
STACK CFI 326f0 .cfa: x29 96 +
STACK CFI INIT 328a4 50c .cfa: sp 0 +
STACK CFI 328a8 .cfa: sp 240 +
STACK CFI 328c4 .cfa: x29 96 + x19: .cfa -8 + ^ x20: .cfa -16 + ^ x21: .cfa -24 + ^ x22: .cfa -32 + ^ x23: .cfa -40 + ^ x24: .cfa -48 + ^ x25: .cfa -56 + ^ x26: .cfa -64 + ^ x27: .cfa -72 + ^ x28: .cfa -80 + ^ .ra: .cfa -88 + ^ x29: .cfa -96 + ^
STACK CFI 32cec .cfa: sp 240 +
STACK CFI 32d08 .cfa: sp 0 +
STACK CFI 32d0c .cfa: x29 96 +
STACK CFI INIT 32db0 1c8 .cfa: sp 0 +
STACK CFI 32db4 .cfa: sp 80 +
STACK CFI 32dc4 .cfa: x29 48 + x19: .cfa -8 + ^ x20: .cfa -16 + ^ x21: .cfa -24 + ^ x22: .cfa -32 + ^ .ra: .cfa -40 + ^ x29: .cfa -48 + ^
STACK CFI 32f34 .cfa: sp 80 +
STACK CFI 32f44 .cfa: sp 0 +
STACK CFI 32f48 .cfa: x29 48 +
STACK CFI INIT 32f78 c8 .cfa: sp 0 +
STACK CFI 32f7c .cfa: sp 32 +
STACK CFI 32f84 .cfa: x29 32 + x19: .cfa -8 + ^ x20: .cfa -16 + ^ .ra: .cfa -24 + ^ x29: .cfa -32 + ^
STACK CFI 32fb8 .cfa: sp 32 +
STACK CFI 32fc0 .cfa: sp 0 +
STACK CFI 32fc4 .cfa: x29 32 +
STACK CFI 32fc8 .cfa: sp 32 +
STACK CFI 32fd0 .cfa: sp 0 +
STACK CFI 32fd4 .cfa: x29 32 +
STACK CFI INIT 33040 d8 .cfa: sp 0 +
STACK CFI 33044 .cfa: sp 32 +
STACK CFI 3304c .cfa: x29 32 + x19: .cfa -8 + ^ x20: .cfa -16 + ^ .ra: .cfa -24 + ^ x29: .cfa -32 + ^
STACK CFI 330f8 .cfa: sp 32 +
STACK CFI 33100 .cfa: sp 0 +
STACK CFI 33104 .cfa: x29 32 +
STACK CFI INIT 33118 394 .cfa: sp 0 +
STACK CFI 3311c .cfa: sp 128 +
STACK CFI 33138 .cfa: x29 96 + x19: .cfa -8 + ^ x20: .cfa -16 + ^ x21: .cfa -24 + ^ x22: .cfa -32 + ^ x23: .cfa -40 + ^ x24: .cfa -48 + ^ x25: .cfa -56 + ^ x26: .cfa -64 + ^ x27: .cfa -72 + ^ x28: .cfa -80 + ^ .ra: .cfa -88 + ^ x29: .cfa -96 + ^
STACK CFI 33430 .cfa: sp 128 +
STACK CFI 3344c .cfa: sp 0 +
STACK CFI 33450 .cfa: x29 96 +
STACK CFI INIT 334ac 1ec .cfa: sp 0 +
STACK CFI 334b0 .cfa: sp 80 +
STACK CFI 334c0 .cfa: x29 48 + x19: .cfa -8 + ^ x20: .cfa -16 + ^ x21: .cfa -24 + ^ x22: .cfa -32 + ^ .ra: .cfa -40 + ^ x29: .cfa -48 + ^
STACK CFI 33654 .cfa: sp 80 +
STACK CFI 33664 .cfa: sp 0 +
STACK CFI 33668 .cfa: x29 48 +
STACK CFI INIT 33698 190 .cfa: sp 0 +
STACK CFI 3369c .cfa: sp 112 +
STACK CFI 336ac .cfa: x29 48 + x19: .cfa -8 + ^ x20: .cfa -16 + ^ x21: .cfa -32 + ^ .ra: .cfa -40 + ^ x29: .cfa -48 + ^
STACK CFI 33780 .cfa: sp 112 +
STACK CFI 33790 .cfa: sp 0 +
STACK CFI 33794 .cfa: x29 48 +
STACK CFI INIT 3382c 5c8 .cfa: sp 0 +
STACK CFI 33830 .cfa: sp 256 +
STACK CFI 33848 .cfa: x29 80 + x19: .cfa -8 + ^ x20: .cfa -16 + ^ x21: .cfa -24 + ^ x22: .cfa -32 + ^ x23: .cfa -40 + ^ x24: .cfa -48 + ^ x25: .cfa -56 + ^ x26: .cfa -64 + ^ .ra: .cfa -72 + ^ x29: .cfa -80 + ^
STACK CFI 33c30 .cfa: sp 256 +
STACK CFI 33c48 .cfa: sp 0 +
STACK CFI 33c4c .cfa: x29 80 +
STACK CFI INIT 33df8 238 .cfa: sp 0 +
STACK CFI 33dfc .cfa: sp 128 +
STACK CFI 33e10 .cfa: x29 64 + x19: .cfa -8 + ^ x20: .cfa -16 + ^ x21: .cfa -24 + ^ x22: .cfa -32 + ^ x23: .cfa -48 + ^ .ra: .cfa -56 + ^ x29: .cfa -64 + ^
STACK CFI 33fb8 .cfa: sp 128 +
STACK CFI 33fcc .cfa: sp 0 +
STACK CFI 33fd0 .cfa: x29 64 +
STACK CFI INIT 3413c a8 .cfa: sp 0 +
STACK CFI 34140 .cfa: sp 32 +
STACK CFI 34148 .cfa: x29 32 + x19: .cfa -16 + ^ .ra: .cfa -24 + ^ x29: .cfa -32 + ^
STACK CFI 3417c .cfa: sp 32 +
STACK CFI 34184 .cfa: sp 0 +
STACK CFI 34188 .cfa: x29 32 +
STACK CFI 3418c .cfa: sp 32 +
STACK CFI 34194 .cfa: sp 0 +
STACK CFI 34198 .cfa: x29 32 +
STACK CFI INIT 34298 914 .cfa: sp 0 +
STACK CFI 3429c .cfa: sp 240 +
STACK CFI 342b0 .cfa: x29 64 + x19: .cfa -8 + ^ x20: .cfa -16 + ^ x21: .cfa -24 + ^ x22: .cfa -32 + ^ x23: .cfa -40 + ^ x24: .cfa -48 + ^ .ra: .cfa -56 + ^ x29: .cfa -64 + ^
STACK CFI 34900 .cfa: sp 240 +
STACK CFI 34914 .cfa: sp 0 +
STACK CFI 34918 .cfa: x29 64 +
STACK CFI INIT 34bb0 238 .cfa: sp 0 +
STACK CFI 34bb4 .cfa: sp 128 +
STACK CFI 34bc8 .cfa: x29 64 + x19: .cfa -8 + ^ x20: .cfa -16 + ^ x21: .cfa -24 + ^ x22: .cfa -32 + ^ x23: .cfa -48 + ^ .ra: .cfa -56 + ^ x29: .cfa -64 + ^
STACK CFI 34d70 .cfa: sp 128 +
STACK CFI 34d84 .cfa: sp 0 +
STACK CFI 34d88 .cfa: x29 64 +
STACK CFI INIT 34de8 d00 .cfa: sp 0 +
STACK CFI 34dec .cfa: sp 240 +
STACK CFI 34e08 .cfa: x29 80 + x19: .cfa -8 + ^ x20: .cfa -16 + ^ x21: .cfa -24 + ^ x22: .cfa -32 + ^ x23: .cfa -40 + ^ x24: .cfa -48 + ^ x25: .cfa -56 + ^ x26: .cfa -64 + ^ .ra: .cfa -72 + ^ x29: .cfa -80 + ^ v8: .cfa -88 + ^ v9: .cfa -96 + ^
STACK CFI 359e8 .cfa: sp 240 +
STACK CFI 35a04 .cfa: sp 0 +
STACK CFI 35a08 .cfa: x29 80 +
STACK CFI INIT 35ae8 184 .cfa: sp 0 +
STACK CFI 35aec .cfa: sp 160 +
STACK CFI 35b04 .cfa: x29 80 + x19: .cfa -8 + ^ x20: .cfa -16 + ^ x21: .cfa -24 + ^ x22: .cfa -32 + ^ x23: .cfa -40 + ^ x24: .cfa -48 + ^ x25: .cfa -56 + ^ x26: .cfa -64 + ^ .ra: .cfa -72 + ^ x29: .cfa -80 + ^
STACK CFI 35c04 .cfa: sp 160 +
STACK CFI 35c1c .cfa: sp 0 +
STACK CFI 35c20 .cfa: x29 80 +
STACK CFI INIT 35c70 338 .cfa: sp 0 +
STACK CFI 35c74 .cfa: sp 160 +
STACK CFI 35c90 .cfa: x29 96 + x19: .cfa -8 + ^ x20: .cfa -16 + ^ x21: .cfa -24 + ^ x22: .cfa -32 + ^ x23: .cfa -40 + ^ x24: .cfa -48 + ^ x25: .cfa -56 + ^ x26: .cfa -64 + ^ x27: .cfa -80 + ^ .ra: .cfa -88 + ^ x29: .cfa -96 + ^
STACK CFI 35ea0 .cfa: sp 160 +
STACK CFI 35ebc .cfa: sp 0 +
STACK CFI 35ec0 .cfa: x29 96 +
STACK CFI 35f48 .cfa: sp 160 +
STACK CFI 35f64 .cfa: sp 0 +
STACK CFI 35f68 .cfa: x29 96 +
STACK CFI INIT 35fa8 224 .cfa: sp 0 +
STACK CFI 35fac .cfa: sp 112 +
STACK CFI 35fc4 .cfa: x29 80 + x19: .cfa -8 + ^ x20: .cfa -16 + ^ x21: .cfa -24 + ^ x22: .cfa -32 + ^ x23: .cfa -40 + ^ x24: .cfa -48 + ^ x25: .cfa -56 + ^ x26: .cfa -64 + ^ .ra: .cfa -72 + ^ x29: .cfa -80 + ^
STACK CFI 36160 .cfa: sp 112 +
STACK CFI 36178 .cfa: sp 0 +
STACK CFI 3617c .cfa: x29 80 +
STACK CFI INIT 361cc a8 .cfa: sp 0 +
STACK CFI 361d0 .cfa: sp 32 +
STACK CFI 361d8 .cfa: x29 32 + x19: .cfa -16 + ^ .ra: .cfa -24 + ^ x29: .cfa -32 + ^
STACK CFI 3620c .cfa: sp 32 +
STACK CFI 36214 .cfa: sp 0 +
STACK CFI 36218 .cfa: x29 32 +
STACK CFI 3621c .cfa: sp 32 +
STACK CFI 36224 .cfa: sp 0 +
STACK CFI 36228 .cfa: x29 32 +
STACK CFI INIT 362f8 1e8 .cfa: sp 0 +
STACK CFI 362fc .cfa: sp 112 +
STACK CFI 36314 .cfa: x29 80 + x19: .cfa -8 + ^ x20: .cfa -16 + ^ x21: .cfa -24 + ^ x22: .cfa -32 + ^ x23: .cfa -40 + ^ x24: .cfa -48 + ^ x25: .cfa -64 + ^ .ra: .cfa -72 + ^ x29: .cfa -80 + ^
STACK CFI 36480 .cfa: sp 112 +
STACK CFI 36498 .cfa: sp 0 +
STACK CFI 3649c .cfa: x29 80 +
STACK CFI INIT 364e0 2e0 .cfa: sp 0 +
STACK CFI 364e4 .cfa: sp 128 +
STACK CFI 364fc .cfa: x29 80 + x19: .cfa -8 + ^ x20: .cfa -16 + ^ x21: .cfa -24 + ^ x22: .cfa -32 + ^ x23: .cfa -40 + ^ x24: .cfa -48 + ^ x25: .cfa -64 + ^ .ra: .cfa -72 + ^ x29: .cfa -80 + ^
STACK CFI 36764 .cfa: sp 128 +
STACK CFI 3677c .cfa: sp 0 +
STACK CFI 36780 .cfa: x29 80 +
STACK CFI INIT 36bac 3a0 .cfa: sp 0 +
STACK CFI 36bb0 .cfa: sp 96 +
STACK CFI 36bc8 .cfa: x29 80 + x19: .cfa -8 + ^ x20: .cfa -16 + ^ x21: .cfa -24 + ^ x22: .cfa -32 + ^ x23: .cfa -40 + ^ x24: .cfa -48 + ^ x25: .cfa -64 + ^ .ra: .cfa -72 + ^ x29: .cfa -80 + ^
STACK CFI 36ef4 .cfa: sp 96 +
STACK CFI 36f0c .cfa: sp 0 +
STACK CFI 36f10 .cfa: x29 80 +
STACK CFI INIT 36f4c 254 .cfa: sp 0 +
STACK CFI 36f50 .cfa: sp 112 +
STACK CFI 36f68 .cfa: x29 80 + x19: .cfa -8 + ^ x20: .cfa -16 + ^ x21: .cfa -24 + ^ x22: .cfa -32 + ^ x23: .cfa -40 + ^ x24: .cfa -48 + ^ x25: .cfa -56 + ^ x26: .cfa -64 + ^ .ra: .cfa -72 + ^ x29: .cfa -80 + ^
STACK CFI 37040 .cfa: sp 112 +
STACK CFI 37058 .cfa: sp 0 +
STACK CFI 3705c .cfa: x29 80 +
STACK CFI INIT 371a0 498 .cfa: sp 0 +
STACK CFI 371a4 .cfa: sp 80 +
STACK CFI 371b8 .cfa: x29 80 + x19: .cfa -8 + ^ x20: .cfa -16 + ^ x21: .cfa -24 + ^ x22: .cfa -32 + ^ x23: .cfa -40 + ^ x24: .cfa -48 + ^ x25: .cfa -64 + ^ .ra: .cfa -72 + ^ x29: .cfa -80 + ^
STACK CFI 375cc .cfa: sp 80 +
STACK CFI 375e0 .cfa: sp 0 +
STACK CFI 375e4 .cfa: x29 80 +
STACK CFI INIT 37638 194 .cfa: sp 0 +
STACK CFI 3763c .cfa: sp 112 +
STACK CFI 3764c .cfa: x29 48 + x19: .cfa -8 + ^ x20: .cfa -16 + ^ x21: .cfa -32 + ^ .ra: .cfa -40 + ^ x29: .cfa -48 + ^
STACK CFI 37724 .cfa: sp 112 +
STACK CFI 37734 .cfa: sp 0 +
STACK CFI 37738 .cfa: x29 48 +
STACK CFI INIT 377cc 5c .cfa: sp 0 +
STACK CFI 377d0 .cfa: sp 32 +
STACK CFI 377d8 .cfa: x29 32 + x19: .cfa -16 + ^ .ra: .cfa -24 + ^ x29: .cfa -32 + ^
STACK CFI 37808 .cfa: sp 32 +
STACK CFI 37810 .cfa: sp 0 +
STACK CFI 37814 .cfa: sp 32 +
STACK CFI 3781c .cfa: sp 0 +
STACK CFI 37820 .cfa: x29 32 +
STACK CFI INIT 37828 e0 .cfa: sp 0 +
STACK CFI 3782c .cfa: sp 64 +
STACK CFI 3783c .cfa: x29 64 + x19: .cfa -8 + ^ x20: .cfa -16 + ^ x21: .cfa -24 + ^ x22: .cfa -32 + ^ x23: .cfa -40 + ^ x24: .cfa -48 + ^ .ra: .cfa -56 + ^ x29: .cfa -64 + ^
STACK CFI 378c8 .cfa: sp 64 +
STACK CFI 378d8 .cfa: sp 0 +
STACK CFI 378dc .cfa: x29 64 +
STACK CFI INIT 37908 1c .cfa: sp 0 +
STACK CFI 3790c .cfa: sp 16 +
STACK CFI 37910 .cfa: x29 16 + .ra: .cfa -8 + ^ x29: .cfa -16 + ^
STACK CFI 37918 .cfa: sp 16 +
STACK CFI 3791c .cfa: sp 0 +
STACK CFI 37920 .cfa: x29 16 +
STACK CFI INIT 37a94 184 .cfa: sp 0 +
STACK CFI 37a98 .cfa: sp 160 +
STACK CFI 37aa8 .cfa: x29 48 + x19: .cfa -8 + ^ x20: .cfa -16 + ^ x21: .cfa -32 + ^ .ra: .cfa -40 + ^ x29: .cfa -48 + ^
STACK CFI 37bbc .cfa: sp 160 +
STACK CFI 37bcc .cfa: sp 0 +
STACK CFI 37bd0 .cfa: x29 48 +
STACK CFI INIT 37c18 374 .cfa: sp 0 +
STACK CFI 37c1c .cfa: sp 256 +
STACK CFI 37c30 .cfa: x29 64 + x19: .cfa -8 + ^ x20: .cfa -16 + ^ x21: .cfa -24 + ^ x22: .cfa -32 + ^ x23: .cfa -48 + ^ .ra: .cfa -56 + ^ x29: .cfa -64 + ^
STACK CFI 37e60 .cfa: sp 256 +
STACK CFI 37e74 .cfa: sp 0 +
STACK CFI 37e78 .cfa: x29 64 +
STACK CFI INIT 38110 374 .cfa: sp 0 +
STACK CFI 38114 .cfa: sp 256 +
STACK CFI 38128 .cfa: x29 64 + x19: .cfa -8 + ^ x20: .cfa -16 + ^ x21: .cfa -24 + ^ x22: .cfa -32 + ^ x23: .cfa -48 + ^ .ra: .cfa -56 + ^ x29: .cfa -64 + ^
STACK CFI 38358 .cfa: sp 256 +
STACK CFI 3836c .cfa: sp 0 +
STACK CFI 38370 .cfa: x29 64 +
STACK CFI INIT 38608 12c .cfa: sp 0 +
STACK CFI 3860c .cfa: sp 80 +
STACK CFI 3861c .cfa: x29 48 + x19: .cfa -8 + ^ x20: .cfa -16 + ^ x21: .cfa -32 + ^ .ra: .cfa -40 + ^ x29: .cfa -48 + ^
STACK CFI 386b4 .cfa: sp 80 +
STACK CFI 386c4 .cfa: sp 0 +
STACK CFI 386c8 .cfa: x29 48 +
STACK CFI INIT 387bc 134 .cfa: sp 0 +
STACK CFI 387c0 .cfa: sp 80 +
STACK CFI 387cc .cfa: x29 32 + x19: .cfa -8 + ^ x20: .cfa -16 + ^ .ra: .cfa -24 + ^ x29: .cfa -32 + ^
STACK CFI 387fc .cfa: sp 80 +
STACK CFI 38808 .cfa: sp 0 +
STACK CFI 3880c .cfa: x29 32 +
STACK CFI INIT 388f0 78 .cfa: sp 0 +
STACK CFI 388f4 .cfa: sp 32 +
STACK CFI 388fc .cfa: x29 32 + x19: .cfa -8 + ^ x20: .cfa -16 + ^ .ra: .cfa -24 + ^ x29: .cfa -32 + ^
STACK CFI 38908 .cfa: sp 32 +
STACK CFI 38910 .cfa: sp 0 +
STACK CFI 38914 .cfa: x29 32 +
STACK CFI INIT 38968 74 .cfa: sp 0 +
STACK CFI 3896c .cfa: sp 48 +
STACK CFI 38978 .cfa: x29 32 + x19: .cfa -8 + ^ x20: .cfa -16 + ^ .ra: .cfa -24 + ^ x29: .cfa -32 + ^
STACK CFI 389c4 .cfa: sp 48 +
STACK CFI 389d0 .cfa: sp 0 +
STACK CFI 389d4 .cfa: x29 32 +
STACK CFI INIT 38aac 270 .cfa: sp 0 +
STACK CFI 38ab0 .cfa: sp 144 +
STACK CFI 38ac4 .cfa: x29 64 + x19: .cfa -8 + ^ x20: .cfa -16 + ^ x21: .cfa -24 + ^ x22: .cfa -32 + ^ x23: .cfa -48 + ^ .ra: .cfa -56 + ^ x29: .cfa -64 + ^
STACK CFI 38bc8 .cfa: sp 144 +
STACK CFI 38bdc .cfa: sp 0 +
STACK CFI 38be0 .cfa: x29 64 +
STACK CFI INIT 38d40 22c .cfa: sp 0 +
STACK CFI 38d44 .cfa: sp 128 +
STACK CFI 38d54 .cfa: x29 48 + x19: .cfa -8 + ^ x20: .cfa -16 + ^ x21: .cfa -32 + ^ .ra: .cfa -40 + ^ x29: .cfa -48 + ^
STACK CFI 38e0c .cfa: sp 128 +
STACK CFI 38e1c .cfa: sp 0 +
STACK CFI 38e20 .cfa: x29 48 +
STACK CFI INIT 38fc0 300 .cfa: sp 0 +
STACK CFI 38fc4 .cfa: sp 144 +
STACK CFI 38fd8 .cfa: x29 64 + x19: .cfa -8 + ^ x20: .cfa -16 + ^ x21: .cfa -24 + ^ x22: .cfa -32 + ^ x23: .cfa -48 + ^ .ra: .cfa -56 + ^ x29: .cfa -64 + ^
STACK CFI 3916c .cfa: sp 144 +
STACK CFI 39180 .cfa: sp 0 +
STACK CFI 39184 .cfa: x29 64 +
STACK CFI INIT 3938c 2b8 .cfa: sp 0 +
STACK CFI 39390 .cfa: sp 144 +
STACK CFI 393a4 .cfa: x29 64 + x19: .cfa -8 + ^ x20: .cfa -16 + ^ x21: .cfa -24 + ^ x22: .cfa -32 + ^ x23: .cfa -48 + ^ .ra: .cfa -56 + ^ x29: .cfa -64 + ^
STACK CFI 394f0 .cfa: sp 144 +
STACK CFI 39504 .cfa: sp 0 +
STACK CFI 39508 .cfa: x29 64 +
STACK CFI INIT 39668 160 .cfa: sp 0 +
STACK CFI 3966c .cfa: sp 144 +
STACK CFI 39680 .cfa: x29 64 + x19: .cfa -8 + ^ x20: .cfa -16 + ^ x21: .cfa -24 + ^ x22: .cfa -32 + ^ x23: .cfa -48 + ^ .ra: .cfa -56 + ^ x29: .cfa -64 + ^
STACK CFI 396d0 .cfa: sp 144 +
STACK CFI 396e4 .cfa: sp 0 +
STACK CFI 396e8 .cfa: x29 64 +
STACK CFI INIT 397c8 108 .cfa: sp 0 +
STACK CFI 397cc .cfa: sp 64 +
STACK CFI 397dc .cfa: x29 48 + x19: .cfa -8 + ^ x20: .cfa -16 + ^ x21: .cfa -24 + ^ x22: .cfa -32 + ^ .ra: .cfa -40 + ^ x29: .cfa -48 + ^
STACK CFI 39888 .cfa: sp 64 +
STACK CFI 39898 .cfa: sp 0 +
STACK CFI 3989c .cfa: x29 48 +
STACK CFI INIT 398d0 150 .cfa: sp 0 +
STACK CFI 398d4 .cfa: sp 128 +
STACK CFI 398e4 .cfa: x29 48 + x19: .cfa -8 + ^ x20: .cfa -16 + ^ x21: .cfa -24 + ^ x22: .cfa -32 + ^ .ra: .cfa -40 + ^ x29: .cfa -48 + ^
STACK CFI 3992c .cfa: sp 128 +
STACK CFI 3993c .cfa: sp 0 +
STACK CFI 39940 .cfa: x29 48 +
STACK CFI INIT 39a20 a8 .cfa: sp 0 +
STACK CFI 39a24 .cfa: sp 64 +
STACK CFI 39a34 .cfa: x29 48 + x19: .cfa -8 + ^ x20: .cfa -16 + ^ x21: .cfa -32 + ^ .ra: .cfa -40 + ^ x29: .cfa -48 + ^
STACK CFI 39a9c .cfa: sp 64 +
STACK CFI 39aac .cfa: sp 0 +
STACK CFI 39ab0 .cfa: x29 48 +
STACK CFI INIT 39b1c 2b8 .cfa: sp 0 +
STACK CFI 39b20 .cfa: sp 144 +
STACK CFI 39b34 .cfa: x29 64 + x19: .cfa -8 + ^ x20: .cfa -16 + ^ x21: .cfa -24 + ^ x22: .cfa -32 + ^ x23: .cfa -48 + ^ .ra: .cfa -56 + ^ x29: .cfa -64 + ^
STACK CFI 39c80 .cfa: sp 144 +
STACK CFI 39c94 .cfa: sp 0 +
STACK CFI 39c98 .cfa: x29 64 +
STACK CFI INIT 39fcc 2c0 .cfa: sp 0 +
STACK CFI 39fd0 .cfa: sp 144 +
STACK CFI 39fe4 .cfa: x29 64 + x19: .cfa -8 + ^ x20: .cfa -16 + ^ x21: .cfa -24 + ^ x22: .cfa -32 + ^ x23: .cfa -48 + ^ .ra: .cfa -56 + ^ x29: .cfa -64 + ^
STACK CFI 3a138 .cfa: sp 144 +
STACK CFI 3a14c .cfa: sp 0 +
STACK CFI 3a150 .cfa: x29 64 +
STACK CFI INIT 3a310 2e4 .cfa: sp 0 +
STACK CFI 3a314 .cfa: sp 144 +
STACK CFI 3a328 .cfa: x29 64 + x19: .cfa -8 + ^ x20: .cfa -16 + ^ x21: .cfa -24 + ^ x22: .cfa -32 + ^ x23: .cfa -48 + ^ .ra: .cfa -56 + ^ x29: .cfa -64 + ^
STACK CFI 3a4a0 .cfa: sp 144 +
STACK CFI 3a4b4 .cfa: sp 0 +
STACK CFI 3a4b8 .cfa: x29 64 +
STACK CFI INIT 3a5f4 2e4 .cfa: sp 0 +
STACK CFI 3a5f8 .cfa: sp 144 +
STACK CFI 3a60c .cfa: x29 64 + x19: .cfa -8 + ^ x20: .cfa -16 + ^ x21: .cfa -24 + ^ x22: .cfa -32 + ^ x23: .cfa -48 + ^ .ra: .cfa -56 + ^ x29: .cfa -64 + ^
STACK CFI 3a784 .cfa: sp 144 +
STACK CFI 3a798 .cfa: sp 0 +
STACK CFI 3a79c .cfa: x29 64 +
STACK CFI INIT 3a8d8 2a0 .cfa: sp 0 +
STACK CFI 3a8dc .cfa: sp 144 +
STACK CFI 3a8f0 .cfa: x29 64 + x19: .cfa -8 + ^ x20: .cfa -16 + ^ x21: .cfa -24 + ^ x22: .cfa -32 + ^ x23: .cfa -48 + ^ .ra: .cfa -56 + ^ x29: .cfa -64 + ^
STACK CFI 3aa24 .cfa: sp 144 +
STACK CFI 3aa38 .cfa: sp 0 +
STACK CFI 3aa3c .cfa: x29 64 +
STACK CFI INIT 3ab78 2f0 .cfa: sp 0 +
STACK CFI 3ab7c .cfa: sp 144 +
STACK CFI 3ab90 .cfa: x29 64 + x19: .cfa -8 + ^ x20: .cfa -16 + ^ x21: .cfa -24 + ^ x22: .cfa -32 + ^ x23: .cfa -48 + ^ .ra: .cfa -56 + ^ x29: .cfa -64 + ^
STACK CFI 3ad14 .cfa: sp 144 +
STACK CFI 3ad28 .cfa: sp 0 +
STACK CFI 3ad2c .cfa: x29 64 +
STACK CFI INIT 3ae68 4f4 .cfa: sp 0 +
STACK CFI 3ae6c .cfa: sp 144 +
STACK CFI 3ae80 .cfa: x29 64 + x19: .cfa -8 + ^ x20: .cfa -16 + ^ x21: .cfa -24 + ^ x22: .cfa -32 + ^ x23: .cfa -48 + ^ .ra: .cfa -56 + ^ x29: .cfa -64 + ^
STACK CFI 3b1b4 .cfa: sp 144 +
STACK CFI 3b1c8 .cfa: sp 0 +
STACK CFI 3b1cc .cfa: x29 64 +
STACK CFI INIT 3b35c 154 .cfa: sp 0 +
STACK CFI 3b360 .cfa: sp 384 +
STACK CFI 3b374 .cfa: x29 64 + x19: .cfa -8 + ^ x20: .cfa -16 + ^ x21: .cfa -24 + ^ x22: .cfa -32 + ^ x23: .cfa -40 + ^ x28: .cfa -48 + ^ .ra: .cfa -56 + ^ x29: .cfa -64 + ^
STACK CFI 3b458 .cfa: sp 384 +
STACK CFI 3b46c .cfa: sp 0 +
STACK CFI 3b470 .cfa: x29 64 +
STACK CFI INIT 3b4c8 50c .cfa: sp 0 +
STACK CFI 3b4cc .cfa: sp 64 +
STACK CFI 3b4dc .cfa: x29 64 + x19: .cfa -8 + ^ x20: .cfa -16 + ^ x21: .cfa -24 + ^ x22: .cfa -32 + ^ x23: .cfa -40 + ^ x24: .cfa -48 + ^ .ra: .cfa -56 + ^ x29: .cfa -64 + ^
STACK CFI 3b5fc .cfa: sp 64 +
STACK CFI 3b60c .cfa: sp 0 +
STACK CFI 3b610 .cfa: x29 64 +
STACK CFI 3b9a8 .cfa: sp 64 +
STACK CFI 3b9b8 .cfa: sp 0 +
STACK CFI 3b9bc .cfa: x29 64 +
