MODULE Linux arm64 2251FE59F6B9A837EC7085992A5A4CF20 neonyaa.showgameversion.android64.so
INFO CODE_ID 59FE5122B9F637A8EC7085992A5A4CF28D4F322D
INFO GENERATOR mozilla/dump_syms 2.3.4
PUBLIC 2f50 0 __on_dlclose
PUBLIC 2f60 0 __emutls_unregister_key
PUBLIC 2f68 0 __on_dlclose_late
PUBLIC 2f70 0 __atexit_handler_wrapper
PUBLIC 2f84 0 atexit
PUBLIC 2fa0 0 pthread_atfork
PUBLIC 2fb0 0 __aarch64_ldadd8_relax
PUBLIC 2fe0 0 init_have_lse_atomics
PUBLIC 3078 0 __init_cpu_features_constructor
PUBLIC 3614 0 __init_cpu_features
PUBLIC 36a0 0 __aarch64_ldadd8_acq_rel
PUBLIC 36d0 0 __cxx_global_var_init
PUBLIC 4270 0 geode::modifier::ModifyBase<geode::modifier::ModifyDerive<hook6<(anonymous namespace)::hook6Parent>, MenuLayer> >::~ModifyBase()
PUBLIC 4288 0 geode::modifier::ModifyDerive<hook6<(anonymous namespace)::hook6Parent>, MenuLayer>::apply()
PUBLIC 4838 0 std::__ndk1::shared_ptr<geode::Hook>::~shared_ptr[abi:ne180000]()
PUBLIC 4888 0 geode::impl::ResultData<geode::Hook*, std::__ndk1::basic_string<char, std::__ndk1::char_traits<char>, std::__ndk1::allocator<char> > >::~ResultData()
PUBLIC 48fc 0 std::__ndk1::vector<std::__ndk1::basic_string<char, std::__ndk1::char_traits<char>, std::__ndk1::allocator<char> >, std::__ndk1::allocator<std::__ndk1::basic_string<char, std::__ndk1::char_traits<char>, std::__ndk1::allocator<char> > > >::~vector[abi:ne180000]()
PUBLIC 4978 0 geode::modifier::ModifyBase<geode::modifier::ModifyDerive<hook6<(anonymous namespace)::hook6Parent>, MenuLayer> >::apply()
PUBLIC 497c 0 __clang_call_terminate
PUBLIC 498c 0 _ZN5geode15UnwrapExceptionC2IRPNS_4HookEQsr4implE18IsStringStreamableIT_EEENS_4impl5OkTagEOS5_
PUBLIC 5088 0 std::__ndk1::__throw_bad_variant_access[abi:ne180000]()
PUBLIC m 50bc 0 std::__ndk1::basic_stringstream<char, std::__ndk1::char_traits<char>, std::__ndk1::allocator<char> >::~basic_stringstream()
PUBLIC 513c 0 geode::UnwrapException::~UnwrapException()
PUBLIC 5160 0 std::__ndk1::basic_string<char, std::__ndk1::char_traits<char>, std::__ndk1::allocator<char> >::__throw_length_error[abi:ne180000]() const
PUBLIC 5174 0 std::__ndk1::__throw_length_error[abi:ne180000](char const*)
PUBLIC 51c4 0 std::length_error::length_error[abi:ne180000](char const*)
PUBLIC 51f4 0 std::__throw_bad_array_new_length([abi:ne180000], void)
PUBLIC 5228 0 std::__ndk1::basic_string<char, std::__ndk1::char_traits<char>, std::__ndk1::allocator<char> >::__init_copy_ctor_external(char const*, unsigned long)
PUBLIC 52a4 0 std::__ndk1::__split_buffer<std::__ndk1::basic_string<char, std::__ndk1::char_traits<char>, std::__ndk1::allocator<char> >, std::__ndk1::allocator<std::__ndk1::basic_string<char, std::__ndk1::char_traits<char>, std::__ndk1::allocator<char> > >&>::~__split_buffer()
PUBLIC 530c 0 std::__ndk1::vector<std::__ndk1::basic_string<char, std::__ndk1::char_traits<char>, std::__ndk1::allocator<char> >, std::__ndk1::allocator<std::__ndk1::basic_string<char, std::__ndk1::char_traits<char>, std::__ndk1::allocator<char> > > >::__throw_length_error[abi:ne180000]() const
PUBLIC 5320 0 std::__ndk1::__variant_detail::__visitation::__base::__dispatcher<(unsigned long)0>::__dispatch[abi:ne180000]<std::__ndk1::__variant_detail::__dtor<std::__ndk1::__variant_detail::__traits<geode::Hook*, std::__ndk1::basic_string<char, std::__ndk1::char_traits<char>, std::__ndk1::allocator<char> > >, (std::__ndk1::__variant_detail::_Trait)1>::__destroy[abi:ne180000]()::{lambda(auto:1&)#1}, std::__ndk1::__variant_detail::__base<(std::__ndk1::__variant_detail::__traits<geode::Hook*, std::__ndk1::basic_string<char, std::__ndk1::char_traits<char>, std::__ndk1::allocator<char> > >)1, geode::Hook, std::__ndk1::allocator<char> >&>(std::__ndk1::__variant_detail::__dtor<std::__ndk1::__variant_detail::__traits<geode::Hook*, std::__ndk1::basic_string<char, std::__ndk1::char_traits<char>, std::__ndk1::allocator<char> > >, (std::__ndk1::__variant_detail::_Trait)1>, std::__ndk1::__variant_detail::__base<(std::__ndk1::__variant_detail::__traits<geode::Hook*, std::__ndk1::basic_string<char, std::__ndk1::char_traits<char>, std::__ndk1::allocator<char> > >)1, geode::Hook, std::__ndk1::allocator<char> >&)
PUBLIC 5324 0 std::__ndk1::__variant_detail::__visitation::__base::__dispatcher<(unsigned long)1>::__dispatch[abi:ne180000]<std::__ndk1::__variant_detail::__dtor<std::__ndk1::__variant_detail::__traits<geode::Hook*, std::__ndk1::basic_string<char, std::__ndk1::char_traits<char>, std::__ndk1::allocator<char> > >, (std::__ndk1::__variant_detail::_Trait)1>::__destroy[abi:ne180000]()::{lambda(auto:1&)#1}, std::__ndk1::__variant_detail::__base<(std::__ndk1::__variant_detail::__traits<geode::Hook*, std::__ndk1::basic_string<char, std::__ndk1::char_traits<char>, std::__ndk1::allocator<char> > >)1, geode::Hook, std::__ndk1::allocator<char> >&>(std::__ndk1::__variant_detail::__dtor<std::__ndk1::__variant_detail::__traits<geode::Hook*, std::__ndk1::basic_string<char, std::__ndk1::char_traits<char>, std::__ndk1::allocator<char> > >, (std::__ndk1::__variant_detail::_Trait)1>, std::__ndk1::__variant_detail::__base<(std::__ndk1::__variant_detail::__traits<geode::Hook*, std::__ndk1::basic_string<char, std::__ndk1::char_traits<char>, std::__ndk1::allocator<char> > >)1, geode::Hook, std::__ndk1::allocator<char> >&)
PUBLIC 5338 0 std::__ndk1::__tree<std::__ndk1::__value_type<std::__ndk1::basic_string<char, std::__ndk1::char_traits<char>, std::__ndk1::allocator<char> >, std::__ndk1::shared_ptr<geode::Hook> >, std::__ndk1::__map_value_compare<std::__ndk1::basic_string<char, std::__ndk1::char_traits<char>, std::__ndk1::allocator<char> >, std::__ndk1::__value_type<std::__ndk1::basic_string<char, std::__ndk1::char_traits<char>, std::__ndk1::allocator<char> >, std::__ndk1::shared_ptr<geode::Hook> >, std::__ndk1::less<std::__ndk1::basic_string<char, std::__ndk1::char_traits<char>, std::__ndk1::allocator<char> > >, true>, std::__ndk1::allocator<std::__ndk1::__value_type<std::__ndk1::basic_string<char, std::__ndk1::char_traits<char>, std::__ndk1::allocator<char> >, std::__ndk1::shared_ptr<geode::Hook> > > >::destroy(std::__ndk1::__tree_node<std::__ndk1::__value_type<std::__ndk1::basic_string<char, std::__ndk1::char_traits<char>, std::__ndk1::allocator<char> >, std::__ndk1::shared_ptr<geode::Hook> >, void*>*)
PUBLIC 53bc 0 geode::modifier::AsStaticFunction_init<hook6<(anonymous namespace)::hook6Parent>, bool (hook6<(anonymous namespace)::hook6Parent>::*)()>::Impl<bool (hook6<(anonymous namespace)::hook6Parent>::*)()>::function(hook6<(anonymous namespace)::hook6Parent>*)
PUBLIC 5d28 0 geode::addresser::Addresser::addressOfVirtual<bool, MenuLayer, >(bool (MenuLayer::*)())
PUBLIC 5dd0 0 MenuLayer::MenuLayer(geode::ZeroConstructorType)
PUBLIC 5e6c 0 std::__ndk1::shared_ptr<tulip::hook::CallingConvention>::~shared_ptr[abi:ne180000]()
PUBLIC 5ebc 0 tulip::hook::HandlerMetadata::~HandlerMetadata()
PUBLIC 5f20 0 std::__ndk1::shared_ptr<geode::StringSettingV3>::~shared_ptr[abi:ne180000]()
PUBLIC 5f70 0 geode::cast::traverseTypeinfoFor(void*, geode::cast::ClassTypeinfoType const*, char const*)
PUBLIC m 6068 0 geodeImplicitEntry
PUBLIC 60a4 0 __CortexA53843419_3000
PUBLIC 60b0 0 <.plt ELF section in neonyaa.showgameversion.android64.so>
STACK CFI INIT 2f50 10 .cfa: sp 0 +
STACK CFI INIT 2f60 8 .cfa: sp 0 +
STACK CFI INIT 2f68 8 .cfa: sp 0 +
STACK CFI INIT 2f70 14 .cfa: sp 0 +
STACK CFI INIT 2f84 1c .cfa: sp 0 +
STACK CFI INIT 2fa0 10 .cfa: sp 0 +
STACK CFI INIT 2fb0 30 .cfa: sp 0 +
STACK CFI INIT 2fe0 98 .cfa: sp 0 +
STACK CFI INIT 3078 59c .cfa: sp 0 +
STACK CFI INIT 3614 8c .cfa: sp 0 +
STACK CFI INIT 36a0 30 .cfa: sp 0 +
STACK CFI INIT 4270 18 .cfa: sp 0 +
STACK CFI INIT 4838 50 .cfa: sp 0 +
STACK CFI 483c .cfa: sp 32 +
STACK CFI 4844 .cfa: x29 32 + x19: .cfa -16 + ^ .ra: .cfa -24 + ^ x29: .cfa -32 + ^
STACK CFI 485c .cfa: sp 32 +
STACK CFI 4864 .cfa: sp 0 +
STACK CFI 4868 .cfa: x29 32 +
STACK CFI 487c .cfa: sp 32 +
STACK CFI 4884 .cfa: sp 0 +
STACK CFI INIT 48fc 7c .cfa: sp 0 +
STACK CFI 4900 .cfa: sp 48 +
STACK CFI 490c .cfa: x29 48 + x19: .cfa -8 + ^ x20: .cfa -16 + ^ x21: .cfa -32 + ^ .ra: .cfa -40 + ^ x29: .cfa -48 + ^
STACK CFI 4958 .cfa: sp 48 +
STACK CFI 4964 .cfa: sp 0 +
STACK CFI 4968 .cfa: sp 48 +
STACK CFI 4974 .cfa: sp 0 +
STACK CFI INIT 4978 4 .cfa: sp 0 +
STACK CFI INIT 497c 10 .cfa: sp 0 +
STACK CFI 4980 .cfa: sp 16 +
STACK CFI 4984 .cfa: x29 16 + .ra: .cfa -8 + ^ x29: .cfa -16 + ^
STACK CFI INIT 5088 34 .cfa: sp 0 +
STACK CFI 508c .cfa: sp 16 +
STACK CFI 5090 .cfa: x29 16 + .ra: .cfa -8 + ^ x29: .cfa -16 + ^
STACK CFI INIT 50bc 80 .cfa: sp 0 +
STACK CFI 50c0 .cfa: sp 48 +
STACK CFI 50cc .cfa: x29 48 + x19: .cfa -8 + ^ x20: .cfa -16 + ^ x21: .cfa -32 + ^ .ra: .cfa -40 + ^ x29: .cfa -48 + ^
STACK CFI 512c .cfa: sp 48 +
STACK CFI 5138 .cfa: sp 0 +
STACK CFI INIT 513c 24 .cfa: sp 0 +
STACK CFI 5140 .cfa: sp 32 +
STACK CFI 5148 .cfa: x29 32 + x19: .cfa -16 + ^ .ra: .cfa -24 + ^ x29: .cfa -32 + ^
STACK CFI 5154 .cfa: sp 32 +
STACK CFI 515c .cfa: sp 0 +
STACK CFI INIT 5160 14 .cfa: sp 0 +
STACK CFI 5164 .cfa: sp 16 +
STACK CFI 5168 .cfa: x29 16 + .ra: .cfa -8 + ^ x29: .cfa -16 + ^
STACK CFI INIT 51c4 30 .cfa: sp 0 +
STACK CFI 51c8 .cfa: sp 32 +
STACK CFI 51d0 .cfa: x29 32 + x19: .cfa -16 + ^ .ra: .cfa -24 + ^ x29: .cfa -32 + ^
STACK CFI 51e8 .cfa: sp 32 +
STACK CFI 51f0 .cfa: sp 0 +
STACK CFI INIT 51f4 34 .cfa: sp 0 +
STACK CFI 51f8 .cfa: sp 32 +
STACK CFI 5200 .cfa: x29 32 + x19: .cfa -16 + ^ .ra: .cfa -24 + ^ x29: .cfa -32 + ^
STACK CFI INIT 5228 7c .cfa: sp 0 +
STACK CFI 522c .cfa: sp 48 +
STACK CFI 5238 .cfa: x29 48 + x19: .cfa -8 + ^ x20: .cfa -16 + ^ x21: .cfa -24 + ^ x22: .cfa -32 + ^ .ra: .cfa -40 + ^ x29: .cfa -48 + ^
STACK CFI 5250 .cfa: sp 48 +
STACK CFI 525c .cfa: sp 0 +
STACK CFI 5260 .cfa: x29 48 +
STACK CFI 5290 .cfa: sp 48 +
STACK CFI 529c .cfa: sp 0 +
STACK CFI 52a0 .cfa: x29 48 +
STACK CFI INIT 52a4 68 .cfa: sp 0 +
STACK CFI 52a8 .cfa: sp 32 +
STACK CFI 52b0 .cfa: x29 32 + x19: .cfa -8 + ^ x20: .cfa -16 + ^ .ra: .cfa -24 + ^ x29: .cfa -32 + ^
STACK CFI 52c8 .cfa: sp 32 +
STACK CFI 52d0 .cfa: sp 0 +
STACK CFI 52d4 .cfa: x29 32 +
STACK CFI 5300 .cfa: sp 32 +
STACK CFI 5308 .cfa: sp 0 +
STACK CFI INIT 530c 14 .cfa: sp 0 +
STACK CFI 5310 .cfa: sp 16 +
STACK CFI 5314 .cfa: x29 16 + .ra: .cfa -8 + ^ x29: .cfa -16 + ^
STACK CFI INIT 5320 4 .cfa: sp 0 +
STACK CFI INIT 5324 14 .cfa: sp 0 +
STACK CFI INIT 5338 84 .cfa: sp 0 +
STACK CFI 5340 .cfa: sp 32 +
STACK CFI 5348 .cfa: x29 32 + x19: .cfa -8 + ^ x20: .cfa -16 + ^ .ra: .cfa -24 + ^ x29: .cfa -32 + ^
STACK CFI 5388 .cfa: sp 32 +
STACK CFI 5390 .cfa: sp 0 +
STACK CFI 5398 .cfa: x29 32 +
STACK CFI INIT 5dd0 9c .cfa: sp 0 +
STACK CFI INIT 5e6c 50 .cfa: sp 0 +
STACK CFI 5e70 .cfa: sp 32 +
STACK CFI 5e78 .cfa: x29 32 + x19: .cfa -16 + ^ .ra: .cfa -24 + ^ x29: .cfa -32 + ^
STACK CFI 5e90 .cfa: sp 32 +
STACK CFI 5e98 .cfa: sp 0 +
STACK CFI 5e9c .cfa: x29 32 +
STACK CFI 5eb0 .cfa: sp 32 +
STACK CFI 5eb8 .cfa: sp 0 +
STACK CFI INIT 5ebc 64 .cfa: sp 0 +
STACK CFI 5ec0 .cfa: sp 32 +
STACK CFI 5ec8 .cfa: x29 32 + x19: .cfa -16 + ^ .ra: .cfa -24 + ^ x29: .cfa -32 + ^
STACK CFI 5ef4 .cfa: sp 32 +
STACK CFI 5efc .cfa: sp 0 +
STACK CFI 5f00 .cfa: x29 32 +
STACK CFI 5f14 .cfa: sp 32 +
STACK CFI 5f1c .cfa: sp 0 +
STACK CFI INIT 5f20 50 .cfa: sp 0 +
STACK CFI 5f24 .cfa: sp 32 +
STACK CFI 5f2c .cfa: x29 32 + x19: .cfa -16 + ^ .ra: .cfa -24 + ^ x29: .cfa -32 + ^
STACK CFI 5f44 .cfa: sp 32 +
STACK CFI 5f4c .cfa: sp 0 +
STACK CFI 5f50 .cfa: x29 32 +
STACK CFI 5f64 .cfa: sp 32 +
STACK CFI 5f6c .cfa: sp 0 +
STACK CFI INIT 5f70 f8 .cfa: sp 0 +
STACK CFI 5f74 .cfa: sp 64 +
STACK CFI 5f84 .cfa: x29 64 + x19: .cfa -8 + ^ x20: .cfa -16 + ^ x21: .cfa -24 + ^ x22: .cfa -32 + ^ x23: .cfa -48 + ^ .ra: .cfa -56 + ^ x29: .cfa -64 + ^
STACK CFI 5fe0 .cfa: sp 64 +
STACK CFI 5ff0 .cfa: sp 0 +
STACK CFI 5ff4 .cfa: x29 64 +
STACK CFI 6010 .cfa: sp 64 +
STACK CFI 6020 .cfa: sp 0 +
STACK CFI 6024 .cfa: x29 64 +
STACK CFI 6054 .cfa: sp 64 +
STACK CFI 6064 .cfa: sp 0 +
STACK CFI INIT 6068 3c .cfa: sp 0 +
STACK CFI 606c .cfa: sp 32 +
STACK CFI 6074 .cfa: x29 32 + x19: .cfa -16 + ^ .ra: .cfa -24 + ^ x29: .cfa -32 + ^
STACK CFI 6080 .cfa: sp 32 +
STACK CFI 6088 .cfa: sp 0 +
STACK CFI 608c .cfa: x29 32 +
STACK CFI 6098 .cfa: sp 32 +
STACK CFI 60a0 .cfa: sp 0 +
STACK CFI INIT 36d0 ba0 .cfa: sp 0 +
STACK CFI 36d4 .cfa: sp 240 +
STACK CFI 36f0 .cfa: x29 96 + x19: .cfa -8 + ^ x20: .cfa -16 + ^ x21: .cfa -24 + ^ x22: .cfa -32 + ^ x23: .cfa -40 + ^ x24: .cfa -48 + ^ x25: .cfa -56 + ^ x26: .cfa -64 + ^ x27: .cfa -72 + ^ x28: .cfa -80 + ^ .ra: .cfa -88 + ^ x29: .cfa -96 + ^
STACK CFI 4118 .cfa: sp 240 +
STACK CFI 4134 .cfa: sp 0 +
STACK CFI 4138 .cfa: x29 96 +
STACK CFI INIT 4288 5b0 .cfa: sp 0 +
STACK CFI 428c .cfa: sp 208 +
STACK CFI 42a8 .cfa: x29 96 + x19: .cfa -8 + ^ x20: .cfa -16 + ^ x21: .cfa -24 + ^ x22: .cfa -32 + ^ x23: .cfa -40 + ^ x24: .cfa -48 + ^ x25: .cfa -56 + ^ x26: .cfa -64 + ^ x27: .cfa -72 + ^ x28: .cfa -80 + ^ .ra: .cfa -88 + ^ x29: .cfa -96 + ^
STACK CFI 4734 .cfa: sp 208 +
STACK CFI 4750 .cfa: sp 0 +
STACK CFI 4754 .cfa: x29 96 +
STACK CFI INIT 4888 74 .cfa: sp 0 +
STACK CFI 488c .cfa: sp 48 +
STACK CFI 4898 .cfa: x29 32 + x19: .cfa -8 + ^ x20: .cfa -16 + ^ .ra: .cfa -24 + ^ x29: .cfa -32 + ^
STACK CFI 48e4 .cfa: sp 48 +
STACK CFI 48f0 .cfa: sp 0 +
STACK CFI 48f4 .cfa: x29 32 +
STACK CFI INIT 498c 6fc .cfa: sp 0 +
STACK CFI 4990 .cfa: sp 496 +
STACK CFI 49ac .cfa: x29 96 + x19: .cfa -8 + ^ x20: .cfa -16 + ^ x21: .cfa -24 + ^ x22: .cfa -32 + ^ x23: .cfa -40 + ^ x24: .cfa -48 + ^ x25: .cfa -56 + ^ x26: .cfa -64 + ^ x27: .cfa -72 + ^ x28: .cfa -80 + ^ .ra: .cfa -88 + ^ x29: .cfa -96 + ^
STACK CFI 4f5c .cfa: sp 496 +
STACK CFI 4f78 .cfa: sp 0 +
STACK CFI 4f7c .cfa: x29 96 +
STACK CFI INIT 5174 50 .cfa: sp 0 +
STACK CFI 5178 .cfa: sp 32 +
STACK CFI 5180 .cfa: x29 32 + x19: .cfa -8 + ^ x20: .cfa -16 + ^ .ra: .cfa -24 + ^ x29: .cfa -32 + ^
STACK CFI INIT 53bc 96c .cfa: sp 0 +
STACK CFI 53c0 .cfa: sp 208 +
STACK CFI 53e0 .cfa: x29 80 + x19: .cfa -8 + ^ x20: .cfa -16 + ^ x21: .cfa -24 + ^ x22: .cfa -32 + ^ x23: .cfa -40 + ^ x24: .cfa -48 + ^ x25: .cfa -56 + ^ x26: .cfa -64 + ^ .ra: .cfa -72 + ^ x29: .cfa -80 + ^ v8: .cfa -88 + ^ v9: .cfa -96 + ^ v10: .cfa -112 + ^
STACK CFI 5c58 .cfa: sp 208 +
STACK CFI 5c78 .cfa: sp 0 +
STACK CFI 5c7c .cfa: x29 80 +
STACK CFI INIT 5d28 a8 .cfa: sp 0 +
STACK CFI 5d2c .cfa: sp 32 +
STACK CFI 5d34 .cfa: x29 32 + x19: .cfa -16 + ^ .ra: .cfa -24 + ^ x29: .cfa -32 + ^
STACK CFI 5d68 .cfa: sp 32 +
STACK CFI 5d70 .cfa: sp 0 +
STACK CFI 5d74 .cfa: x29 32 +
STACK CFI 5d78 .cfa: sp 32 +
STACK CFI 5d80 .cfa: sp 0 +
STACK CFI 5d84 .cfa: x29 32 +
