MODULE Linux arm64 73A40F3A95D0C2DCD2514FDBD66489BE0 yellowcat98.gdlite.android64.so
INFO CODE_ID 3A0FA473D095DCC2D2514FDBD66489BE6CCF1FE6
INFO GENERATOR mozilla/dump_syms 2.3.4
PUBLIC 5c90 0 __on_dlclose
PUBLIC 5ca0 0 __emutls_unregister_key
PUBLIC 5ca8 0 __on_dlclose_late
PUBLIC 5cb0 0 __atexit_handler_wrapper
PUBLIC 5cc4 0 atexit
PUBLIC 5ce0 0 pthread_atfork
PUBLIC 5cf0 0 unwind_phase2
PUBLIC 5e24 0 _Unwind_Resume
PUBLIC 5ea8 0 unwind_phase2_forced
PUBLIC m 5f9c 0 __unw_init_local
PUBLIC m 6044 0 __unw_get_reg
PUBLIC 60c0 0 __unw_step_stage2
PUBLIC m 60d4 0 __unw_get_proc_info
PUBLIC m 6114 0 __unw_resume
PUBLIC 613c 0 libunwind::CFI_Parser<libunwind::LocalAddressSpace>::decodeFDE(libunwind::LocalAddressSpace&, unsigned long, libunwind::CFI_Parser<libunwind::LocalAddressSpace>::FDE_Info*, libunwind::CFI_Parser<libunwind::LocalAddressSpace>::CIE_Info*, bool)
PUBLIC 62cc 0 libunwind::CFI_Parser<libunwind::LocalAddressSpace>::parseCIE(libunwind::LocalAddressSpace&, unsigned long, libunwind::CFI_Parser<libunwind::LocalAddressSpace>::CIE_Info*)
PUBLIC 6594 0 libunwind::AbstractUnwindCursor::~AbstractUnwindCursor()
PUBLIC 659c 0 libunwind::UnwindCursor<libunwind::LocalAddressSpace, libunwind::Registers_arm64>::~UnwindCursor()
PUBLIC 65a4 0 libunwind::UnwindCursor<libunwind::LocalAddressSpace, libunwind::Registers_arm64>::validReg(int)
PUBLIC 65e8 0 libunwind::UnwindCursor<libunwind::LocalAddressSpace, libunwind::Registers_arm64>::getReg(int)
PUBLIC 66d0 0 libunwind::UnwindCursor<libunwind::LocalAddressSpace, libunwind::Registers_arm64>::setReg(int, unsigned long)
PUBLIC 67b8 0 libunwind::UnwindCursor<libunwind::LocalAddressSpace, libunwind::Registers_arm64>::validFloatReg(int)
PUBLIC 67cc 0 libunwind::UnwindCursor<libunwind::LocalAddressSpace, libunwind::Registers_arm64>::getFloatReg(int)
PUBLIC 67dc 0 libunwind::UnwindCursor<libunwind::LocalAddressSpace, libunwind::Registers_arm64>::setFloatReg(int, double)
PUBLIC 67ec 0 libunwind::UnwindCursor<libunwind::LocalAddressSpace, libunwind::Registers_arm64>::step(bool)
PUBLIC 68dc 0 libunwind::UnwindCursor<libunwind::LocalAddressSpace, libunwind::Registers_arm64>::getInfo(unw_proc_info_t*)
PUBLIC 6920 0 libunwind::UnwindCursor<libunwind::LocalAddressSpace, libunwind::Registers_arm64>::jumpto()
PUBLIC 692c 0 libunwind::UnwindCursor<libunwind::LocalAddressSpace, libunwind::Registers_arm64>::isSignalFrame()
PUBLIC 6938 0 libunwind::UnwindCursor<libunwind::LocalAddressSpace, libunwind::Registers_arm64>::getFunctionName(char*, unsigned long, unsigned long*)
PUBLIC 6964 0 libunwind::UnwindCursor<libunwind::LocalAddressSpace, libunwind::Registers_arm64>::setInfoBasedOnIPRegister(bool)
PUBLIC 6be4 0 libunwind::UnwindCursor<libunwind::LocalAddressSpace, libunwind::Registers_arm64>::getRegisterName(int)
PUBLIC 6bf0 0 libunwind::UnwindCursor<libunwind::LocalAddressSpace, libunwind::Registers_arm64>::stepThroughSigReturn(libunwind::Registers_arm64&)
PUBLIC 6d10 0 libunwind::DwarfInstructions<libunwind::LocalAddressSpace, libunwind::Registers_arm64>::stepWithDwarf(libunwind::LocalAddressSpace&, unsigned long, unsigned long, libunwind::Registers_arm64&, bool&, bool)
PUBLIC 7198 0 libunwind::CFI_Parser<libunwind::LocalAddressSpace>::parseFDEInstructions(libunwind::LocalAddressSpace&, libunwind::CFI_Parser<libunwind::LocalAddressSpace>::FDE_Info const&, libunwind::CFI_Parser<libunwind::LocalAddressSpace>::CIE_Info const&, unsigned long, int, libunwind::CFI_Parser<libunwind::LocalAddressSpace>::PrologInfo*)
PUBLIC 7de0 0 libunwind::DwarfInstructions<libunwind::LocalAddressSpace, libunwind::Registers_arm64>::getCFA(libunwind::LocalAddressSpace&, libunwind::CFI_Parser<libunwind::LocalAddressSpace>::PrologInfo const&, libunwind::Registers_arm64 const&)
PUBLIC 7f14 0 libunwind::DwarfInstructions<libunwind::LocalAddressSpace, libunwind::Registers_arm64>::getSavedRegister(libunwind::LocalAddressSpace&, libunwind::Registers_arm64 const&, unsigned long, libunwind::CFI_Parser<libunwind::LocalAddressSpace>::RegisterLocation const&)
PUBLIC 8124 0 libunwind::LocalAddressSpace::getEncodedP(unsigned long&, unsigned long, unsigned char, unsigned long)
PUBLIC 84b0 0 libunwind::LocalAddressSpace::getULEB128(unsigned long&, unsigned long)
PUBLIC 8678 0 libunwind::DwarfInstructions<libunwind::LocalAddressSpace, libunwind::Registers_arm64>::evaluateExpression(unsigned long, libunwind::LocalAddressSpace&, libunwind::Registers_arm64 const&, unsigned long)
PUBLIC 9034 0 libunwind::UnwindCursor<libunwind::LocalAddressSpace, libunwind::Registers_arm64>::getInfoFromDwarfSection(unsigned long, libunwind::UnwindInfoSections const&, unsigned int)
PUBLIC 9308 0 libunwind::findUnwindSectionsByPhdr(dl_phdr_info*, unsigned long, void*)
PUBLIC 943c 0 libunwind::EHHeaderParser<libunwind::LocalAddressSpace>::decodeEHHdr(libunwind::LocalAddressSpace&, unsigned long, unsigned long, libunwind::EHHeaderParser<libunwind::LocalAddressSpace>::EHHeaderInfo&)
PUBLIC 955c 0 libunwind::CFI_Parser<libunwind::LocalAddressSpace>::findFDE(libunwind::LocalAddressSpace&, unsigned long, unsigned long, unsigned long, unsigned long, libunwind::CFI_Parser<libunwind::LocalAddressSpace>::FDE_Info*, libunwind::CFI_Parser<libunwind::LocalAddressSpace>::CIE_Info*)
PUBLIC 9724 0 libunwind::EHHeaderParser<libunwind::LocalAddressSpace>::findFDE(libunwind::LocalAddressSpace&, unsigned long, unsigned long, unsigned int, libunwind::CFI_Parser<libunwind::LocalAddressSpace>::FDE_Info*, libunwind::CFI_Parser<libunwind::LocalAddressSpace>::CIE_Info*)
PUBLIC 988c 0 libunwind::EHHeaderParser<libunwind::LocalAddressSpace>::getTableEntrySize(unsigned char)
PUBLIC 9988 0 libunwind::Registers_arm64::getRegisterName(int)
PUBLIC 99b8 0 __libunwind_Registers_arm64_jumpto
PUBLIC m 9a48 0 __unw_getcontext
PUBLIC 9af0 0 __aarch64_ldadd8_relax
PUBLIC 9b20 0 init_have_lse_atomics
PUBLIC 9bb8 0 __init_cpu_features_constructor
PUBLIC a154 0 __init_cpu_features
PUBLIC a1e0 0 __aarch64_ldadd8_acq_rel
PUBLIC a210 0 __cxx_global_var_init
PUBLIC a66c 0 __cxx_global_var_init.1
PUBLIC aac8 0 __cxx_global_var_init.2
PUBLIC af24 0 __cxx_global_var_init.3
PUBLIC b380 0 __cxx_global_var_init.4
PUBLIC b7dc 0 __cxx_global_var_init.5
PUBLIC bc38 0 geode::modifier::ModifyBase<geode::modifier::ModifyDerive<hook15<(anonymous namespace)::hook15Parent>, MenuLayer> >::~ModifyBase()
PUBLIC bc50 0 geode::modifier::ModifyBase<geode::modifier::ModifyDerive<hook42<(anonymous namespace)::hook42Parent>, MenuLayer> >::~ModifyBase()
PUBLIC bc68 0 geode::modifier::ModifyBase<geode::modifier::ModifyDerive<hook62<(anonymous namespace)::hook62Parent>, MenuLayer> >::~ModifyBase()
PUBLIC bc80 0 geode::modifier::ModifyBase<geode::modifier::ModifyDerive<hook78<(anonymous namespace)::hook78Parent>, MenuLayer> >::~ModifyBase()
PUBLIC bc98 0 geode::modifier::ModifyBase<geode::modifier::ModifyDerive<hook144<(anonymous namespace)::hook144Parent>, PlayLayer> >::~ModifyBase()
PUBLIC bcb0 0 geode::modifier::ModifyBase<geode::modifier::ModifyDerive<hook187<(anonymous namespace)::hook187Parent>, LoadingLayer> >::~ModifyBase()
PUBLIC bcc8 0 geode::modifier::ModifyDerive<hook15<(anonymous namespace)::hook15Parent>, MenuLayer>::apply()
PUBLIC bfc0 0 std::__ndk1::shared_ptr<geode::Hook>::~shared_ptr[abi:ne180000]()
PUBLIC c010 0 geode::impl::ResultData<geode::Hook*, std::__ndk1::basic_string<char, std::__ndk1::char_traits<char>, std::__ndk1::allocator<char> > >::~ResultData()
PUBLIC c084 0 std::__ndk1::vector<std::__ndk1::basic_string<char, std::__ndk1::char_traits<char>, std::__ndk1::allocator<char> >, std::__ndk1::allocator<std::__ndk1::basic_string<char, std::__ndk1::char_traits<char>, std::__ndk1::allocator<char> > > >::~vector[abi:ne180000]()
PUBLIC c100 0 geode::modifier::ModifyBase<geode::modifier::ModifyDerive<hook15<(anonymous namespace)::hook15Parent>, MenuLayer> >::apply()
PUBLIC c104 0 __clang_call_terminate
PUBLIC c114 0 _ZN5geode15UnwrapExceptionC2IRPNS_4HookEQsr4implE18IsStringStreamableIT_EEENS_4impl5OkTagEOS5_
PUBLIC c810 0 std::__ndk1::__throw_bad_variant_access[abi:ne180000]()
PUBLIC m c844 0 std::__ndk1::basic_stringstream<char, std::__ndk1::char_traits<char>, std::__ndk1::allocator<char> >::~basic_stringstream()
PUBLIC c8c4 0 geode::UnwrapException::~UnwrapException()
PUBLIC c8e8 0 std::__ndk1::basic_string<char, std::__ndk1::char_traits<char>, std::__ndk1::allocator<char> >::__throw_length_error[abi:ne180000]() const
PUBLIC c8fc 0 std::__ndk1::__throw_length_error[abi:ne180000](char const*)
PUBLIC c94c 0 std::length_error::length_error[abi:ne180000](char const*)
PUBLIC c97c 0 std::__throw_bad_array_new_length([abi:ne180000], void)
PUBLIC c9b0 0 std::__ndk1::vector<std::__ndk1::basic_string<char, std::__ndk1::char_traits<char>, std::__ndk1::allocator<char> >, std::__ndk1::allocator<std::__ndk1::basic_string<char, std::__ndk1::char_traits<char>, std::__ndk1::allocator<char> > > >::__push_back_slow_path<std::__ndk1::basic_string<char, std::__ndk1::char_traits<char>, std::__ndk1::allocator<char> > const&>(std::__ndk1::basic_string<char, std::__ndk1::char_traits<char>, std::__ndk1::allocator<char> > const&)
PUBLIC cbd4 0 std::__ndk1::basic_string<char, std::__ndk1::char_traits<char>, std::__ndk1::allocator<char> >::__init_copy_ctor_external(char const*, unsigned long)
PUBLIC cc50 0 std::__ndk1::__split_buffer<std::__ndk1::basic_string<char, std::__ndk1::char_traits<char>, std::__ndk1::allocator<char> >, std::__ndk1::allocator<std::__ndk1::basic_string<char, std::__ndk1::char_traits<char>, std::__ndk1::allocator<char> > >&>::~__split_buffer()
PUBLIC ccb8 0 std::__ndk1::vector<std::__ndk1::basic_string<char, std::__ndk1::char_traits<char>, std::__ndk1::allocator<char> >, std::__ndk1::allocator<std::__ndk1::basic_string<char, std::__ndk1::char_traits<char>, std::__ndk1::allocator<char> > > >::__throw_length_error[abi:ne180000]() const
PUBLIC cccc 0 std::__ndk1::__variant_detail::__visitation::__base::__dispatcher<(unsigned long)0>::__dispatch[abi:ne180000]<std::__ndk1::__variant_detail::__dtor<std::__ndk1::__variant_detail::__traits<geode::Hook*, std::__ndk1::basic_string<char, std::__ndk1::char_traits<char>, std::__ndk1::allocator<char> > >, (std::__ndk1::__variant_detail::_Trait)1>::__destroy[abi:ne180000]()::{lambda(auto:1&)#1}, std::__ndk1::__variant_detail::__base<(std::__ndk1::__variant_detail::__traits<geode::Hook*, std::__ndk1::basic_string<char, std::__ndk1::char_traits<char>, std::__ndk1::allocator<char> > >)1, geode::Hook, std::__ndk1::allocator<char> >&>(std::__ndk1::__variant_detail::__dtor<std::__ndk1::__variant_detail::__traits<geode::Hook*, std::__ndk1::basic_string<char, std::__ndk1::char_traits<char>, std::__ndk1::allocator<char> > >, (std::__ndk1::__variant_detail::_Trait)1>, std::__ndk1::__variant_detail::__base<(std::__ndk1::__variant_detail::__traits<geode::Hook*, std::__ndk1::basic_string<char, std::__ndk1::char_traits<char>, std::__ndk1::allocator<char> > >)1, geode::Hook, std::__ndk1::allocator<char> >&)
PUBLIC ccd0 0 std::__ndk1::__variant_detail::__visitation::__base::__dispatcher<(unsigned long)1>::__dispatch[abi:ne180000]<std::__ndk1::__variant_detail::__dtor<std::__ndk1::__variant_detail::__traits<geode::Hook*, std::__ndk1::basic_string<char, std::__ndk1::char_traits<char>, std::__ndk1::allocator<char> > >, (std::__ndk1::__variant_detail::_Trait)1>::__destroy[abi:ne180000]()::{lambda(auto:1&)#1}, std::__ndk1::__variant_detail::__base<(std::__ndk1::__variant_detail::__traits<geode::Hook*, std::__ndk1::basic_string<char, std::__ndk1::char_traits<char>, std::__ndk1::allocator<char> > >)1, geode::Hook, std::__ndk1::allocator<char> >&>(std::__ndk1::__variant_detail::__dtor<std::__ndk1::__variant_detail::__traits<geode::Hook*, std::__ndk1::basic_string<char, std::__ndk1::char_traits<char>, std::__ndk1::allocator<char> > >, (std::__ndk1::__variant_detail::_Trait)1>, std::__ndk1::__variant_detail::__base<(std::__ndk1::__variant_detail::__traits<geode::Hook*, std::__ndk1::basic_string<char, std::__ndk1::char_traits<char>, std::__ndk1::allocator<char> > >)1, geode::Hook, std::__ndk1::allocator<char> >&)
PUBLIC cce4 0 std::__ndk1::__tree<std::__ndk1::__value_type<std::__ndk1::basic_string<char, std::__ndk1::char_traits<char>, std::__ndk1::allocator<char> >, std::__ndk1::shared_ptr<geode::Hook> >, std::__ndk1::__map_value_compare<std::__ndk1::basic_string<char, std::__ndk1::char_traits<char>, std::__ndk1::allocator<char> >, std::__ndk1::__value_type<std::__ndk1::basic_string<char, std::__ndk1::char_traits<char>, std::__ndk1::allocator<char> >, std::__ndk1::shared_ptr<geode::Hook> >, std::__ndk1::less<std::__ndk1::basic_string<char, std::__ndk1::char_traits<char>, std::__ndk1::allocator<char> > >, true>, std::__ndk1::allocator<std::__ndk1::__value_type<std::__ndk1::basic_string<char, std::__ndk1::char_traits<char>, std::__ndk1::allocator<char> >, std::__ndk1::shared_ptr<geode::Hook> > > >::find<std::__ndk1::basic_string<char, std::__ndk1::char_traits<char>, std::__ndk1::allocator<char> > >(std::__ndk1::basic_string<char, std::__ndk1::char_traits<char>, std::__ndk1::allocator<char> > const&)
PUBLIC ce04 0 std::__ndk1::__tree<std::__ndk1::__value_type<std::__ndk1::basic_string<char, std::__ndk1::char_traits<char>, std::__ndk1::allocator<char> >, std::__ndk1::shared_ptr<geode::Hook> >, std::__ndk1::__map_value_compare<std::__ndk1::basic_string<char, std::__ndk1::char_traits<char>, std::__ndk1::allocator<char> >, std::__ndk1::__value_type<std::__ndk1::basic_string<char, std::__ndk1::char_traits<char>, std::__ndk1::allocator<char> >, std::__ndk1::shared_ptr<geode::Hook> >, std::__ndk1::less<std::__ndk1::basic_string<char, std::__ndk1::char_traits<char>, std::__ndk1::allocator<char> > >, true>, std::__ndk1::allocator<std::__ndk1::__value_type<std::__ndk1::basic_string<char, std::__ndk1::char_traits<char>, std::__ndk1::allocator<char> >, std::__ndk1::shared_ptr<geode::Hook> > > >::erase(std::__ndk1::__tree_const_iterator<std::__ndk1::__value_type<std::__ndk1::basic_string<char, std::__ndk1::char_traits<char>, std::__ndk1::allocator<char> >, std::__ndk1::shared_ptr<geode::Hook> >, std::__ndk1::__tree_node<std::__ndk1::__value_type<std::__ndk1::basic_string<char, std::__ndk1::char_traits<char>, std::__ndk1::allocator<char> >, std::__ndk1::shared_ptr<geode::Hook> >, void*>*, long>)
PUBLIC d2a8 0 std::__ndk1::__tree<std::__ndk1::__value_type<std::__ndk1::basic_string<char, std::__ndk1::char_traits<char>, std::__ndk1::allocator<char> >, std::__ndk1::shared_ptr<geode::Hook> >, std::__ndk1::__map_value_compare<std::__ndk1::basic_string<char, std::__ndk1::char_traits<char>, std::__ndk1::allocator<char> >, std::__ndk1::__value_type<std::__ndk1::basic_string<char, std::__ndk1::char_traits<char>, std::__ndk1::allocator<char> >, std::__ndk1::shared_ptr<geode::Hook> >, std::__ndk1::less<std::__ndk1::basic_string<char, std::__ndk1::char_traits<char>, std::__ndk1::allocator<char> > >, true>, std::__ndk1::allocator<std::__ndk1::__value_type<std::__ndk1::basic_string<char, std::__ndk1::char_traits<char>, std::__ndk1::allocator<char> >, std::__ndk1::shared_ptr<geode::Hook> > > >::destroy(std::__ndk1::__tree_node<std::__ndk1::__value_type<std::__ndk1::basic_string<char, std::__ndk1::char_traits<char>, std::__ndk1::allocator<char> >, std::__ndk1::shared_ptr<geode::Hook> >, void*>*)
PUBLIC d32c 0 geode::modifier::AsStaticFunction_init<hook15<(anonymous namespace)::hook15Parent>, bool (hook15<(anonymous namespace)::hook15Parent>::*)()>::Impl<bool (hook15<(anonymous namespace)::hook15Parent>::*)()>::function(hook15<(anonymous namespace)::hook15Parent>*)
PUBLIC d4e4 0 geode::addresser::Addresser::addressOfVirtual<bool, MenuLayer, >(bool (MenuLayer::*)())
PUBLIC d58c 0 MenuLayer::MenuLayer(geode::ZeroConstructorType)
PUBLIC d628 0 std::__ndk1::shared_ptr<tulip::hook::CallingConvention>::~shared_ptr[abi:ne180000]()
PUBLIC d678 0 tulip::hook::HandlerMetadata::~HandlerMetadata()
PUBLIC d6dc 0 geode::Mod::getSettingValue<bool>(std::__ndk1::basic_string_view<char, std::__ndk1::char_traits<char> >) const
PUBLIC d80c 0 geode::cast::traverseTypeinfoFor(void*, geode::cast::ClassTypeinfoType const*, char const*)
PUBLIC d904 0 std::__ndk1::__tree<std::__ndk1::__value_type<std::__ndk1::basic_string<char, std::__ndk1::char_traits<char>, std::__ndk1::allocator<char> >, std::__ndk1::shared_ptr<geode::Hook> >, std::__ndk1::__map_value_compare<std::__ndk1::basic_string<char, std::__ndk1::char_traits<char>, std::__ndk1::allocator<char> >, std::__ndk1::__value_type<std::__ndk1::basic_string<char, std::__ndk1::char_traits<char>, std::__ndk1::allocator<char> >, std::__ndk1::shared_ptr<geode::Hook> >, std::__ndk1::less<std::__ndk1::basic_string<char, std::__ndk1::char_traits<char>, std::__ndk1::allocator<char> > >, true>, std::__ndk1::allocator<std::__ndk1::__value_type<std::__ndk1::basic_string<char, std::__ndk1::char_traits<char>, std::__ndk1::allocator<char> >, std::__ndk1::shared_ptr<geode::Hook> > > >::__emplace_unique_key_args<std::__ndk1::basic_string<char, std::__ndk1::char_traits<char>, std::__ndk1::allocator<char> >, std::__ndk1::piecewise_construct_t const&, std::__ndk1::tuple<std::__ndk1::basic_string<char, std::__ndk1::char_traits<char>, std::__ndk1::allocator<char> >&&>, std::__ndk1::tuple<> >(std::__ndk1::basic_string<char, std::__ndk1::char_traits<char>, std::__ndk1::allocator<char> > const&, std::__ndk1::piecewise_construct_t const&, std::__ndk1::tuple<std::__ndk1::basic_string<char, std::__ndk1::char_traits<char>, std::__ndk1::allocator<char> >&&>, std::__ndk1::tuple<>)
PUBLIC dc18 0 geode::modifier::ModifyDerive<hook42<(anonymous namespace)::hook42Parent>, MenuLayer>::apply()
PUBLIC df10 0 geode::modifier::ModifyBase<geode::modifier::ModifyDerive<hook42<(anonymous namespace)::hook42Parent>, MenuLayer> >::apply()
PUBLIC df14 0 geode::modifier::AsStaticFunction_init<hook42<(anonymous namespace)::hook42Parent>, bool (hook42<(anonymous namespace)::hook42Parent>::*)()>::Impl<bool (hook42<(anonymous namespace)::hook42Parent>::*)()>::function(hook42<(anonymous namespace)::hook42Parent>*)
PUBLIC df90 0 geode::modifier::ModifyDerive<hook62<(anonymous namespace)::hook62Parent>, MenuLayer>::apply()
PUBLIC e288 0 geode::modifier::ModifyBase<geode::modifier::ModifyDerive<hook62<(anonymous namespace)::hook62Parent>, MenuLayer> >::apply()
PUBLIC e28c 0 geode::modifier::AsStaticFunction_init<hook62<(anonymous namespace)::hook62Parent>, bool (hook62<(anonymous namespace)::hook62Parent>::*)()>::Impl<bool (hook62<(anonymous namespace)::hook62Parent>::*)()>::function(hook62<(anonymous namespace)::hook62Parent>*)
PUBLIC e300 0 geode::modifier::ModifyDerive<hook78<(anonymous namespace)::hook78Parent>, MenuLayer>::apply()
PUBLIC e5f8 0 geode::modifier::ModifyBase<geode::modifier::ModifyDerive<hook78<(anonymous namespace)::hook78Parent>, MenuLayer> >::apply()
PUBLIC e5fc 0 geode::modifier::AsStaticFunction_init<hook78<(anonymous namespace)::hook78Parent>, bool (hook78<(anonymous namespace)::hook78Parent>::*)()>::Impl<bool (hook78<(anonymous namespace)::hook78Parent>::*)()>::function(hook78<(anonymous namespace)::hook78Parent>*)
PUBLIC e678 0 geode::modifier::ModifyDerive<hook144<(anonymous namespace)::hook144Parent>, PlayLayer>::apply()
PUBLIC ea10 0 geode::modifier::ModifyBase<geode::modifier::ModifyDerive<hook144<(anonymous namespace)::hook144Parent>, PlayLayer> >::apply()
PUBLIC ea14 0 geode::modifier::AsStaticFunction_init<hook144<(anonymous namespace)::hook144Parent>, bool (hook144<(anonymous namespace)::hook144Parent>::*)(GJGameLevel*, bool, bool)>::Impl<bool (hook144<(anonymous namespace)::hook144Parent>::*)(GJGameLevel*, bool, bool)>::function(hook144<(anonymous namespace)::hook144Parent>*, GJGameLevel*, bool, bool)
PUBLIC ec74 0 geode::modifier::ModifyDerive<hook187<(anonymous namespace)::hook187Parent>, LoadingLayer>::apply()
PUBLIC efc4 0 geode::modifier::ModifyBase<geode::modifier::ModifyDerive<hook187<(anonymous namespace)::hook187Parent>, LoadingLayer> >::apply()
PUBLIC efc8 0 geode::modifier::AsStaticFunction_init<hook187<(anonymous namespace)::hook187Parent>, bool (hook187<(anonymous namespace)::hook187Parent>::*)(bool)>::Impl<bool (hook187<(anonymous namespace)::hook187Parent>::*)(bool)>::function(hook187<(anonymous namespace)::hook187Parent>*, bool)
PUBLIC m f100 0 geodeImplicitEntry
PUBLIC f140 0 <.plt ELF section in yellowcat98.gdlite.android64.so>
STACK CFI INIT 5c90 10 .cfa: sp 0 +
STACK CFI INIT 5ca0 8 .cfa: sp 0 +
STACK CFI INIT 5ca8 8 .cfa: sp 0 +
STACK CFI INIT 5cb0 14 .cfa: sp 0 +
STACK CFI INIT 5cc4 1c .cfa: sp 0 +
STACK CFI INIT 5ce0 10 .cfa: sp 0 +
STACK CFI INIT 5cf0 134 .cfa: sp 0 +
STACK CFI INIT 5e24 84 .cfa: sp 0 +
STACK CFI INIT 5ea8 f4 .cfa: sp 0 +
STACK CFI INIT 5f9c a8 .cfa: sp 0 +
STACK CFI INIT 6044 7c .cfa: sp 0 +
STACK CFI INIT 60c0 14 .cfa: sp 0 +
STACK CFI INIT 60d4 40 .cfa: sp 0 +
STACK CFI INIT 6114 28 .cfa: sp 0 +
STACK CFI INIT 613c 190 .cfa: sp 0 +
STACK CFI INIT 62cc 2c8 .cfa: sp 0 +
STACK CFI INIT 6594 8 .cfa: sp 0 +
STACK CFI INIT 659c 8 .cfa: sp 0 +
STACK CFI INIT 65a4 44 .cfa: sp 0 +
STACK CFI INIT 65e8 e8 .cfa: sp 0 +
STACK CFI INIT 66d0 e8 .cfa: sp 0 +
STACK CFI INIT 67b8 14 .cfa: sp 0 +
STACK CFI INIT 67cc 10 .cfa: sp 0 +
STACK CFI INIT 67dc 10 .cfa: sp 0 +
STACK CFI INIT 67ec f0 .cfa: sp 0 +
STACK CFI INIT 68dc 44 .cfa: sp 0 +
STACK CFI INIT 6920 c .cfa: sp 0 +
STACK CFI INIT 692c c .cfa: sp 0 +
STACK CFI INIT 6938 2c .cfa: sp 0 +
STACK CFI INIT 6964 280 .cfa: sp 0 +
STACK CFI INIT 6be4 c .cfa: sp 0 +
STACK CFI INIT 6bf0 120 .cfa: sp 0 +
STACK CFI INIT 6d10 488 .cfa: sp 0 +
STACK CFI INIT 7198 c48 .cfa: sp 0 +
STACK CFI INIT 7de0 134 .cfa: sp 0 +
STACK CFI INIT 7f14 210 .cfa: sp 0 +
STACK CFI INIT 8124 38c .cfa: sp 0 +
STACK CFI INIT 84b0 1c8 .cfa: sp 0 +
STACK CFI INIT 8678 9bc .cfa: sp 0 +
STACK CFI INIT 9034 2d4 .cfa: sp 0 +
STACK CFI INIT 9308 134 .cfa: sp 0 +
STACK CFI INIT 943c 120 .cfa: sp 0 +
STACK CFI INIT 955c 1c8 .cfa: sp 0 +
STACK CFI INIT 9724 168 .cfa: sp 0 +
STACK CFI INIT 988c fc .cfa: sp 0 +
STACK CFI INIT 9988 30 .cfa: sp 0 +
STACK CFI INIT 9af0 30 .cfa: sp 0 +
STACK CFI INIT 9b20 98 .cfa: sp 0 +
STACK CFI INIT 9bb8 59c .cfa: sp 0 +
STACK CFI INIT a154 8c .cfa: sp 0 +
STACK CFI INIT a1e0 30 .cfa: sp 0 +
STACK CFI INIT bc38 18 .cfa: sp 0 +
STACK CFI INIT bc50 18 .cfa: sp 0 +
STACK CFI INIT bc68 18 .cfa: sp 0 +
STACK CFI INIT bc80 18 .cfa: sp 0 +
STACK CFI INIT bc98 18 .cfa: sp 0 +
STACK CFI INIT bcb0 18 .cfa: sp 0 +
STACK CFI INIT bfc0 50 .cfa: sp 0 +
STACK CFI bfc4 .cfa: sp 32 +
STACK CFI bfcc .cfa: x29 32 + x19: .cfa -16 + ^ .ra: .cfa -24 + ^ x29: .cfa -32 + ^
STACK CFI bfe4 .cfa: sp 32 +
STACK CFI bfec .cfa: sp 0 +
STACK CFI bff0 .cfa: x29 32 +
STACK CFI c004 .cfa: sp 32 +
STACK CFI c00c .cfa: sp 0 +
STACK CFI INIT c084 7c .cfa: sp 0 +
STACK CFI c088 .cfa: sp 48 +
STACK CFI c094 .cfa: x29 48 + x19: .cfa -8 + ^ x20: .cfa -16 + ^ x21: .cfa -32 + ^ .ra: .cfa -40 + ^ x29: .cfa -48 + ^
STACK CFI c0e0 .cfa: sp 48 +
STACK CFI c0ec .cfa: sp 0 +
STACK CFI c0f0 .cfa: sp 48 +
STACK CFI c0fc .cfa: sp 0 +
STACK CFI INIT c100 4 .cfa: sp 0 +
STACK CFI INIT c104 10 .cfa: sp 0 +
STACK CFI c108 .cfa: sp 16 +
STACK CFI c10c .cfa: x29 16 + .ra: .cfa -8 + ^ x29: .cfa -16 + ^
STACK CFI INIT c810 34 .cfa: sp 0 +
STACK CFI c814 .cfa: sp 16 +
STACK CFI c818 .cfa: x29 16 + .ra: .cfa -8 + ^ x29: .cfa -16 + ^
STACK CFI INIT c844 80 .cfa: sp 0 +
STACK CFI c848 .cfa: sp 48 +
STACK CFI c854 .cfa: x29 48 + x19: .cfa -8 + ^ x20: .cfa -16 + ^ x21: .cfa -32 + ^ .ra: .cfa -40 + ^ x29: .cfa -48 + ^
STACK CFI c8b4 .cfa: sp 48 +
STACK CFI c8c0 .cfa: sp 0 +
STACK CFI INIT c8c4 24 .cfa: sp 0 +
STACK CFI c8c8 .cfa: sp 32 +
STACK CFI c8d0 .cfa: x29 32 + x19: .cfa -16 + ^ .ra: .cfa -24 + ^ x29: .cfa -32 + ^
STACK CFI c8dc .cfa: sp 32 +
STACK CFI c8e4 .cfa: sp 0 +
STACK CFI INIT c8e8 14 .cfa: sp 0 +
STACK CFI c8ec .cfa: sp 16 +
STACK CFI c8f0 .cfa: x29 16 + .ra: .cfa -8 + ^ x29: .cfa -16 + ^
STACK CFI INIT c94c 30 .cfa: sp 0 +
STACK CFI c950 .cfa: sp 32 +
STACK CFI c958 .cfa: x29 32 + x19: .cfa -16 + ^ .ra: .cfa -24 + ^ x29: .cfa -32 + ^
STACK CFI c970 .cfa: sp 32 +
STACK CFI c978 .cfa: sp 0 +
STACK CFI INIT c97c 34 .cfa: sp 0 +
STACK CFI c980 .cfa: sp 32 +
STACK CFI c988 .cfa: x29 32 + x19: .cfa -16 + ^ .ra: .cfa -24 + ^ x29: .cfa -32 + ^
STACK CFI INIT cbd4 7c .cfa: sp 0 +
STACK CFI cbd8 .cfa: sp 48 +
STACK CFI cbe4 .cfa: x29 48 + x19: .cfa -8 + ^ x20: .cfa -16 + ^ x21: .cfa -24 + ^ x22: .cfa -32 + ^ .ra: .cfa -40 + ^ x29: .cfa -48 + ^
STACK CFI cbfc .cfa: sp 48 +
STACK CFI cc08 .cfa: sp 0 +
STACK CFI cc0c .cfa: x29 48 +
STACK CFI cc3c .cfa: sp 48 +
STACK CFI cc48 .cfa: sp 0 +
STACK CFI cc4c .cfa: x29 48 +
STACK CFI INIT cc50 68 .cfa: sp 0 +
STACK CFI cc54 .cfa: sp 32 +
STACK CFI cc5c .cfa: x29 32 + x19: .cfa -8 + ^ x20: .cfa -16 + ^ .ra: .cfa -24 + ^ x29: .cfa -32 + ^
STACK CFI cc74 .cfa: sp 32 +
STACK CFI cc7c .cfa: sp 0 +
STACK CFI cc80 .cfa: x29 32 +
STACK CFI ccac .cfa: sp 32 +
STACK CFI ccb4 .cfa: sp 0 +
STACK CFI INIT ccb8 14 .cfa: sp 0 +
STACK CFI ccbc .cfa: sp 16 +
STACK CFI ccc0 .cfa: x29 16 + .ra: .cfa -8 + ^ x29: .cfa -16 + ^
STACK CFI INIT cccc 4 .cfa: sp 0 +
STACK CFI INIT ccd0 14 .cfa: sp 0 +
STACK CFI INIT cce4 120 .cfa: sp 0 +
STACK CFI cce8 .cfa: sp 64 +
STACK CFI ccf8 .cfa: x29 64 + x19: .cfa -8 + ^ x20: .cfa -16 + ^ x21: .cfa -24 + ^ x22: .cfa -32 + ^ x23: .cfa -40 + ^ x24: .cfa -48 + ^ .ra: .cfa -56 + ^ x29: .cfa -64 + ^
STACK CFI cdf0 .cfa: sp 64 +
STACK CFI ce00 .cfa: sp 0 +
STACK CFI INIT ce04 4a4 .cfa: sp 0 +
STACK CFI ce08 .cfa: sp 32 +
STACK CFI ce10 .cfa: x29 32 + x19: .cfa -8 + ^ x20: .cfa -16 + ^ .ra: .cfa -24 + ^ x29: .cfa -32 + ^
STACK CFI d1f0 .cfa: sp 32 +
STACK CFI d1f8 .cfa: sp 0 +
STACK CFI d1fc .cfa: x29 32 +
STACK CFI INIT d2a8 84 .cfa: sp 0 +
STACK CFI d2b0 .cfa: sp 32 +
STACK CFI d2b8 .cfa: x29 32 + x19: .cfa -8 + ^ x20: .cfa -16 + ^ .ra: .cfa -24 + ^ x29: .cfa -32 + ^
STACK CFI d2f8 .cfa: sp 32 +
STACK CFI d300 .cfa: sp 0 +
STACK CFI d308 .cfa: x29 32 +
STACK CFI INIT d58c 9c .cfa: sp 0 +
STACK CFI INIT d628 50 .cfa: sp 0 +
STACK CFI d62c .cfa: sp 32 +
STACK CFI d634 .cfa: x29 32 + x19: .cfa -16 + ^ .ra: .cfa -24 + ^ x29: .cfa -32 + ^
STACK CFI d64c .cfa: sp 32 +
STACK CFI d654 .cfa: sp 0 +
STACK CFI d658 .cfa: x29 32 +
STACK CFI d66c .cfa: sp 32 +
STACK CFI d674 .cfa: sp 0 +
STACK CFI INIT d678 64 .cfa: sp 0 +
STACK CFI d67c .cfa: sp 32 +
STACK CFI d684 .cfa: x29 32 + x19: .cfa -16 + ^ .ra: .cfa -24 + ^ x29: .cfa -32 + ^
STACK CFI d6b0 .cfa: sp 32 +
STACK CFI d6b8 .cfa: sp 0 +
STACK CFI d6bc .cfa: x29 32 +
STACK CFI d6d0 .cfa: sp 32 +
STACK CFI d6d8 .cfa: sp 0 +
STACK CFI INIT d6dc 130 .cfa: sp 0 +
STACK CFI d6e0 .cfa: sp 80 +
STACK CFI d6f0 .cfa: x29 48 + x19: .cfa -8 + ^ x20: .cfa -16 + ^ x21: .cfa -24 + ^ x22: .cfa -32 + ^ .ra: .cfa -40 + ^ x29: .cfa -48 + ^
STACK CFI d7f4 .cfa: sp 80 +
STACK CFI d804 .cfa: sp 0 +
STACK CFI d808 .cfa: x29 48 +
STACK CFI INIT d80c f8 .cfa: sp 0 +
STACK CFI d810 .cfa: sp 64 +
STACK CFI d820 .cfa: x29 64 + x19: .cfa -8 + ^ x20: .cfa -16 + ^ x21: .cfa -24 + ^ x22: .cfa -32 + ^ x23: .cfa -48 + ^ .ra: .cfa -56 + ^ x29: .cfa -64 + ^
STACK CFI d87c .cfa: sp 64 +
STACK CFI d88c .cfa: sp 0 +
STACK CFI d890 .cfa: x29 64 +
STACK CFI d8ac .cfa: sp 64 +
STACK CFI d8bc .cfa: sp 0 +
STACK CFI d8c0 .cfa: x29 64 +
STACK CFI d8f0 .cfa: sp 64 +
STACK CFI d900 .cfa: sp 0 +
STACK CFI INIT d904 314 .cfa: sp 0 +
STACK CFI d908 .cfa: sp 96 +
STACK CFI d920 .cfa: x29 96 + x19: .cfa -8 + ^ x20: .cfa -16 + ^ x21: .cfa -24 + ^ x22: .cfa -32 + ^ x23: .cfa -40 + ^ x24: .cfa -48 + ^ x25: .cfa -56 + ^ x26: .cfa -64 + ^ x27: .cfa -80 + ^ .ra: .cfa -88 + ^ x29: .cfa -96 + ^
STACK CFI dbdc .cfa: sp 96 +
STACK CFI dbf4 .cfa: sp 0 +
STACK CFI dbf8 .cfa: x29 96 +
STACK CFI INIT df10 4 .cfa: sp 0 +
STACK CFI INIT df14 7c .cfa: sp 0 +
STACK CFI df18 .cfa: sp 32 +
STACK CFI df20 .cfa: x29 32 + x19: .cfa -8 + ^ x20: .cfa -16 + ^ .ra: .cfa -24 + ^ x29: .cfa -32 + ^
STACK CFI df84 .cfa: sp 32 +
STACK CFI df8c .cfa: sp 0 +
STACK CFI INIT e288 4 .cfa: sp 0 +
STACK CFI INIT e28c 74 .cfa: sp 0 +
STACK CFI e290 .cfa: sp 32 +
STACK CFI e298 .cfa: x29 32 + x19: .cfa -8 + ^ x20: .cfa -16 + ^ .ra: .cfa -24 + ^ x29: .cfa -32 + ^
STACK CFI e2f4 .cfa: sp 32 +
STACK CFI e2fc .cfa: sp 0 +
STACK CFI INIT e5f8 4 .cfa: sp 0 +
STACK CFI INIT e5fc 7c .cfa: sp 0 +
STACK CFI e600 .cfa: sp 32 +
STACK CFI e608 .cfa: x29 32 + x19: .cfa -8 + ^ x20: .cfa -16 + ^ .ra: .cfa -24 + ^ x29: .cfa -32 + ^
STACK CFI e66c .cfa: sp 32 +
STACK CFI e674 .cfa: sp 0 +
STACK CFI INIT ea10 4 .cfa: sp 0 +
STACK CFI INIT ea14 260 .cfa: sp 0 +
STACK CFI ea18 .cfa: sp 112 +
STACK CFI ea30 .cfa: x29 80 + x19: .cfa -8 + ^ x20: .cfa -16 + ^ x21: .cfa -24 + ^ x22: .cfa -32 + ^ x23: .cfa -40 + ^ x24: .cfa -48 + ^ x25: .cfa -64 + ^ .ra: .cfa -72 + ^ x29: .cfa -80 + ^
STACK CFI ec3c .cfa: sp 112 +
STACK CFI ec54 .cfa: sp 0 +
STACK CFI ec58 .cfa: x29 80 +
STACK CFI INIT efc4 4 .cfa: sp 0 +
STACK CFI INIT efc8 138 .cfa: sp 0 +
STACK CFI efcc .cfa: sp 80 +
STACK CFI efe4 .cfa: x29 56 + x19: .cfa -8 + ^ x20: .cfa -16 + ^ x21: .cfa -24 + ^ x22: .cfa -32 + ^ x23: .cfa -40 + ^ .ra: .cfa -48 + ^ x29: .cfa -56 + ^ v8: .cfa -64 + ^
STACK CFI f0bc .cfa: sp 80 +
STACK CFI f0d4 .cfa: sp 0 +
STACK CFI f0d8 .cfa: x29 56 +
STACK CFI INIT f100 3c .cfa: sp 0 +
STACK CFI f104 .cfa: sp 32 +
STACK CFI f10c .cfa: x29 32 + x19: .cfa -16 + ^ .ra: .cfa -24 + ^ x29: .cfa -32 + ^
STACK CFI f118 .cfa: sp 32 +
STACK CFI f120 .cfa: sp 0 +
STACK CFI f124 .cfa: x29 32 +
STACK CFI f130 .cfa: sp 32 +
STACK CFI f138 .cfa: sp 0 +
STACK CFI INIT a210 45c .cfa: sp 0 +
STACK CFI a214 .cfa: sp 224 +
STACK CFI a230 .cfa: x29 96 + x19: .cfa -8 + ^ x20: .cfa -16 + ^ x21: .cfa -24 + ^ x22: .cfa -32 + ^ x23: .cfa -40 + ^ x24: .cfa -48 + ^ x25: .cfa -56 + ^ x26: .cfa -64 + ^ x27: .cfa -72 + ^ x28: .cfa -80 + ^ .ra: .cfa -88 + ^ x29: .cfa -96 + ^
STACK CFI a554 .cfa: sp 224 +
STACK CFI a570 .cfa: sp 0 +
STACK CFI a574 .cfa: x29 96 +
STACK CFI INIT a66c 45c .cfa: sp 0 +
STACK CFI a670 .cfa: sp 224 +
STACK CFI a68c .cfa: x29 96 + x19: .cfa -8 + ^ x20: .cfa -16 + ^ x21: .cfa -24 + ^ x22: .cfa -32 + ^ x23: .cfa -40 + ^ x24: .cfa -48 + ^ x25: .cfa -56 + ^ x26: .cfa -64 + ^ x27: .cfa -72 + ^ x28: .cfa -80 + ^ .ra: .cfa -88 + ^ x29: .cfa -96 + ^
STACK CFI a9b0 .cfa: sp 224 +
STACK CFI a9cc .cfa: sp 0 +
STACK CFI a9d0 .cfa: x29 96 +
STACK CFI INIT aac8 45c .cfa: sp 0 +
STACK CFI aacc .cfa: sp 224 +
STACK CFI aae8 .cfa: x29 96 + x19: .cfa -8 + ^ x20: .cfa -16 + ^ x21: .cfa -24 + ^ x22: .cfa -32 + ^ x23: .cfa -40 + ^ x24: .cfa -48 + ^ x25: .cfa -56 + ^ x26: .cfa -64 + ^ x27: .cfa -72 + ^ x28: .cfa -80 + ^ .ra: .cfa -88 + ^ x29: .cfa -96 + ^
STACK CFI ae0c .cfa: sp 224 +
STACK CFI ae28 .cfa: sp 0 +
STACK CFI ae2c .cfa: x29 96 +
STACK CFI INIT af24 45c .cfa: sp 0 +
STACK CFI af28 .cfa: sp 224 +
STACK CFI af44 .cfa: x29 96 + x19: .cfa -8 + ^ x20: .cfa -16 + ^ x21: .cfa -24 + ^ x22: .cfa -32 + ^ x23: .cfa -40 + ^ x24: .cfa -48 + ^ x25: .cfa -56 + ^ x26: .cfa -64 + ^ x27: .cfa -72 + ^ x28: .cfa -80 + ^ .ra: .cfa -88 + ^ x29: .cfa -96 + ^
STACK CFI b268 .cfa: sp 224 +
STACK CFI b284 .cfa: sp 0 +
STACK CFI b288 .cfa: x29 96 +
STACK CFI INIT b380 45c .cfa: sp 0 +
STACK CFI b384 .cfa: sp 224 +
STACK CFI b3a0 .cfa: x29 96 + x19: .cfa -8 + ^ x20: .cfa -16 + ^ x21: .cfa -24 + ^ x22: .cfa -32 + ^ x23: .cfa -40 + ^ x24: .cfa -48 + ^ x25: .cfa -56 + ^ x26: .cfa -64 + ^ x27: .cfa -72 + ^ x28: .cfa -80 + ^ .ra: .cfa -88 + ^ x29: .cfa -96 + ^
STACK CFI b6c4 .cfa: sp 224 +
STACK CFI b6e0 .cfa: sp 0 +
STACK CFI b6e4 .cfa: x29 96 +
STACK CFI INIT b7dc 45c .cfa: sp 0 +
STACK CFI b7e0 .cfa: sp 224 +
STACK CFI b7fc .cfa: x29 96 + x19: .cfa -8 + ^ x20: .cfa -16 + ^ x21: .cfa -24 + ^ x22: .cfa -32 + ^ x23: .cfa -40 + ^ x24: .cfa -48 + ^ x25: .cfa -56 + ^ x26: .cfa -64 + ^ x27: .cfa -72 + ^ x28: .cfa -80 + ^ .ra: .cfa -88 + ^ x29: .cfa -96 + ^
STACK CFI bb20 .cfa: sp 224 +
STACK CFI bb3c .cfa: sp 0 +
STACK CFI bb40 .cfa: x29 96 +
STACK CFI INIT bcc8 2f8 .cfa: sp 0 +
STACK CFI bccc .cfa: sp 176 +
STACK CFI bce0 .cfa: x29 64 + x19: .cfa -8 + ^ x20: .cfa -16 + ^ x21: .cfa -24 + ^ x22: .cfa -32 + ^ x23: .cfa -48 + ^ .ra: .cfa -56 + ^ x29: .cfa -64 + ^
STACK CFI beb4 .cfa: sp 176 +
STACK CFI bec8 .cfa: sp 0 +
STACK CFI becc .cfa: x29 64 +
STACK CFI INIT c010 74 .cfa: sp 0 +
STACK CFI c014 .cfa: sp 48 +
STACK CFI c020 .cfa: x29 32 + x19: .cfa -8 + ^ x20: .cfa -16 + ^ .ra: .cfa -24 + ^ x29: .cfa -32 + ^
STACK CFI c06c .cfa: sp 48 +
STACK CFI c078 .cfa: sp 0 +
STACK CFI c07c .cfa: x29 32 +
STACK CFI INIT c114 6fc .cfa: sp 0 +
STACK CFI c118 .cfa: sp 496 +
STACK CFI c134 .cfa: x29 96 + x19: .cfa -8 + ^ x20: .cfa -16 + ^ x21: .cfa -24 + ^ x22: .cfa -32 + ^ x23: .cfa -40 + ^ x24: .cfa -48 + ^ x25: .cfa -56 + ^ x26: .cfa -64 + ^ x27: .cfa -72 + ^ x28: .cfa -80 + ^ .ra: .cfa -88 + ^ x29: .cfa -96 + ^
STACK CFI c6e4 .cfa: sp 496 +
STACK CFI c700 .cfa: sp 0 +
STACK CFI c704 .cfa: x29 96 +
STACK CFI INIT c8fc 50 .cfa: sp 0 +
STACK CFI c900 .cfa: sp 32 +
STACK CFI c908 .cfa: x29 32 + x19: .cfa -8 + ^ x20: .cfa -16 + ^ .ra: .cfa -24 + ^ x29: .cfa -32 + ^
STACK CFI INIT c9b0 224 .cfa: sp 0 +
STACK CFI c9b4 .cfa: sp 128 +
STACK CFI c9cc .cfa: x29 80 + x19: .cfa -8 + ^ x20: .cfa -16 + ^ x21: .cfa -24 + ^ x22: .cfa -32 + ^ x23: .cfa -40 + ^ x24: .cfa -48 + ^ x25: .cfa -64 + ^ .ra: .cfa -72 + ^ x29: .cfa -80 + ^
STACK CFI cb68 .cfa: sp 128 +
STACK CFI cb80 .cfa: sp 0 +
STACK CFI cb84 .cfa: x29 80 +
STACK CFI INIT d32c 1b8 .cfa: sp 0 +
STACK CFI d330 .cfa: sp 96 +
STACK CFI d348 .cfa: x29 56 + x19: .cfa -8 + ^ x20: .cfa -16 + ^ x21: .cfa -24 + ^ x22: .cfa -32 + ^ x23: .cfa -40 + ^ .ra: .cfa -48 + ^ x29: .cfa -56 + ^ v8: .cfa -64 + ^
STACK CFI d498 .cfa: sp 96 +
STACK CFI d4b0 .cfa: sp 0 +
STACK CFI d4b4 .cfa: x29 56 +
STACK CFI INIT d4e4 a8 .cfa: sp 0 +
STACK CFI d4e8 .cfa: sp 32 +
STACK CFI d4f0 .cfa: x29 32 + x19: .cfa -16 + ^ .ra: .cfa -24 + ^ x29: .cfa -32 + ^
STACK CFI d524 .cfa: sp 32 +
STACK CFI d52c .cfa: sp 0 +
STACK CFI d530 .cfa: x29 32 +
STACK CFI d534 .cfa: sp 32 +
STACK CFI d53c .cfa: sp 0 +
STACK CFI d540 .cfa: x29 32 +
STACK CFI INIT dc18 2f8 .cfa: sp 0 +
STACK CFI dc1c .cfa: sp 176 +
STACK CFI dc30 .cfa: x29 64 + x19: .cfa -8 + ^ x20: .cfa -16 + ^ x21: .cfa -24 + ^ x22: .cfa -32 + ^ x23: .cfa -48 + ^ .ra: .cfa -56 + ^ x29: .cfa -64 + ^
STACK CFI de04 .cfa: sp 176 +
STACK CFI de18 .cfa: sp 0 +
STACK CFI de1c .cfa: x29 64 +
STACK CFI INIT df90 2f8 .cfa: sp 0 +
STACK CFI df94 .cfa: sp 176 +
STACK CFI dfa8 .cfa: x29 64 + x19: .cfa -8 + ^ x20: .cfa -16 + ^ x21: .cfa -24 + ^ x22: .cfa -32 + ^ x23: .cfa -48 + ^ .ra: .cfa -56 + ^ x29: .cfa -64 + ^
STACK CFI e17c .cfa: sp 176 +
STACK CFI e190 .cfa: sp 0 +
STACK CFI e194 .cfa: x29 64 +
STACK CFI INIT e300 2f8 .cfa: sp 0 +
STACK CFI e304 .cfa: sp 176 +
STACK CFI e318 .cfa: x29 64 + x19: .cfa -8 + ^ x20: .cfa -16 + ^ x21: .cfa -24 + ^ x22: .cfa -32 + ^ x23: .cfa -48 + ^ .ra: .cfa -56 + ^ x29: .cfa -64 + ^
STACK CFI e4ec .cfa: sp 176 +
STACK CFI e500 .cfa: sp 0 +
STACK CFI e504 .cfa: x29 64 +
STACK CFI INIT e678 398 .cfa: sp 0 +
STACK CFI e67c .cfa: sp 224 +
STACK CFI e694 .cfa: x29 80 + x19: .cfa -8 + ^ x20: .cfa -16 + ^ x21: .cfa -24 + ^ x22: .cfa -32 + ^ x23: .cfa -40 + ^ x24: .cfa -48 + ^ x25: .cfa -56 + ^ x26: .cfa -64 + ^ .ra: .cfa -72 + ^ x29: .cfa -80 + ^
STACK CFI e8dc .cfa: sp 224 +
STACK CFI e8f4 .cfa: sp 0 +
STACK CFI e8f8 .cfa: x29 80 +
STACK CFI INIT ec74 350 .cfa: sp 0 +
STACK CFI ec78 .cfa: sp 208 +
STACK CFI ec8c .cfa: x29 64 + x19: .cfa -8 + ^ x20: .cfa -16 + ^ x21: .cfa -24 + ^ x22: .cfa -32 + ^ x23: .cfa -48 + ^ .ra: .cfa -56 + ^ x29: .cfa -64 + ^
STACK CFI eea0 .cfa: sp 208 +
STACK CFI eeb4 .cfa: sp 0 +
STACK CFI eeb8 .cfa: x29 64 +
