MODULE Linux arm64 0985000AAE7F1ABA88960C6951AD56850 mat.run-info.android64.so
INFO CODE_ID 0A0085097FAEBA1A88960C6951AD568592769A31
INFO GENERATOR mozilla/dump_syms 2.3.4
PUBLIC dcf0 0 __on_dlclose
PUBLIC dd00 0 __emutls_unregister_key
PUBLIC dd08 0 __on_dlclose_late
PUBLIC dd10 0 __atexit_handler_wrapper
PUBLIC dd24 0 atexit
PUBLIC dd40 0 pthread_atfork
PUBLIC dd50 0 __aarch64_ldadd8_relax
PUBLIC dd80 0 init_have_lse_atomics
PUBLIC de18 0 __init_cpu_features_constructor
PUBLIC e3b4 0 __init_cpu_features
PUBLIC e440 0 __aarch64_ldadd8_acq_rel
PUBLIC e470 0 geodeExecFunction252<(anonymous namespace)::ExecFuncUnique252>(geode::ModStateEvent*)
PUBLIC e920 0 __cxx_global_var_init.1
PUBLIC f4c0 0 _GLOBAL__sub_I_main.cpp
PUBLIC f5ec 0 geode::modifier::ModifyBase<geode::modifier::ModifyDerive<hook158<(anonymous namespace)::hook158Parent>, PlayLayer> >::~ModifyBase()
PUBLIC f604 0 geode::modifier::ModifyDerive<hook158<(anonymous namespace)::hook158Parent>, PlayLayer>::apply()
PUBLIC fec4 0 std::__ndk1::shared_ptr<geode::Hook>::~shared_ptr[abi:ne180000]()
PUBLIC ff14 0 geode::impl::ResultData<geode::Hook*, std::__ndk1::basic_string<char, std::__ndk1::char_traits<char>, std::__ndk1::allocator<char> > >::~ResultData()
PUBLIC ff88 0 std::__ndk1::vector<std::__ndk1::basic_string<char, std::__ndk1::char_traits<char>, std::__ndk1::allocator<char> >, std::__ndk1::allocator<std::__ndk1::basic_string<char, std::__ndk1::char_traits<char>, std::__ndk1::allocator<char> > > >::~vector[abi:ne180000]()
PUBLIC 10004 0 geode::modifier::ModifyBase<geode::modifier::ModifyDerive<hook158<(anonymous namespace)::hook158Parent>, PlayLayer> >::apply()
PUBLIC 10008 0 __clang_call_terminate
PUBLIC 10018 0 _ZN5geode15UnwrapExceptionC2IRPNS_4HookEQsr4implE18IsStringStreamableIT_EEENS_4impl5OkTagEOS5_
PUBLIC 1016c 0 std::__ndk1::__throw_bad_variant_access[abi:ne180000]()
PUBLIC 101a0 0 std::__ndk1::basic_stringstream<char, std::__ndk1::char_traits<char>, std::__ndk1::allocator<char> >::basic_stringstream[abi:ne180000]()
PUBLIC m 102cc 0 std::__ndk1::basic_stringstream<char, std::__ndk1::char_traits<char>, std::__ndk1::allocator<char> >::~basic_stringstream()
PUBLIC 1034c 0 geode::UnwrapException::~UnwrapException()
PUBLIC 10370 0 std::__ndk1::__put_character_sequence[abi:ne180000]<char, std::__ndk1::char_traits<char> >(std::__ndk1::basic_ostream<char, std::__ndk1::char_traits<char> >, std::__ndk1::basic_ostream const*, unsigned long)
PUBLIC 10514 0 std::__ndk1::__pad_and_output[abi:ne180000]<char, std::__ndk1::char_traits<char> >(std::__ndk1::char_traits<char>, std::__ndk1::ostreambuf_iterator const*, std::__ndk1::ostreambuf_iterator const, std::__ndk1::ostreambuf_iterator const, std::__ndk1::ios_base&, std::__ndk1::ostreambuf_iterator)
PUBLIC 106f0 0 std::__ndk1::basic_string<char, std::__ndk1::char_traits<char>, std::__ndk1::allocator<char> >::__throw_length_error[abi:ne180000]() const
PUBLIC 10704 0 std::__ndk1::__throw_length_error[abi:ne180000](char const*)
PUBLIC 10754 0 std::length_error::length_error[abi:ne180000](char const*)
PUBLIC 10784 0 std::__throw_bad_array_new_length([abi:ne180000], void)
PUBLIC 107b8 0 std::__ndk1::basic_stringbuf<char, std::__ndk1::char_traits<char>, std::__ndk1::allocator<char> >::str[abi:ne180000]() &&
PUBLIC 10930 0 std::__ndk1::basic_stringbuf<char, std::__ndk1::char_traits<char>, std::__ndk1::allocator<char> >::__init_buf_ptrs[abi:ne180000]()
PUBLIC 10a78 0 std::__ndk1::basic_string<char, std::__ndk1::char_traits<char>, std::__ndk1::allocator<char> >::__init_copy_ctor_external(char const*, unsigned long)
PUBLIC 10af8 0 std::__ndk1::__split_buffer<std::__ndk1::basic_string<char, std::__ndk1::char_traits<char>, std::__ndk1::allocator<char> >, std::__ndk1::allocator<std::__ndk1::basic_string<char, std::__ndk1::char_traits<char>, std::__ndk1::allocator<char> > >&>::~__split_buffer()
PUBLIC 10b60 0 std::__ndk1::vector<std::__ndk1::basic_string<char, std::__ndk1::char_traits<char>, std::__ndk1::allocator<char> >, std::__ndk1::allocator<std::__ndk1::basic_string<char, std::__ndk1::char_traits<char>, std::__ndk1::allocator<char> > > >::__throw_length_error[abi:ne180000]() const
PUBLIC 10b74 0 std::__ndk1::__variant_detail::__visitation::__base::__dispatcher<(unsigned long)0>::__dispatch[abi:ne180000]<std::__ndk1::__variant_detail::__dtor<std::__ndk1::__variant_detail::__traits<geode::Hook*, std::__ndk1::basic_string<char, std::__ndk1::char_traits<char>, std::__ndk1::allocator<char> > >, (std::__ndk1::__variant_detail::_Trait)1>::__destroy[abi:ne180000]()::{lambda(auto:1&)#1}, std::__ndk1::__variant_detail::__base<(std::__ndk1::__variant_detail::__traits<geode::Hook*, std::__ndk1::basic_string<char, std::__ndk1::char_traits<char>, std::__ndk1::allocator<char> > >)1, geode::Hook, std::__ndk1::allocator<char> >&>(std::__ndk1::__variant_detail::__dtor<std::__ndk1::__variant_detail::__traits<geode::Hook*, std::__ndk1::basic_string<char, std::__ndk1::char_traits<char>, std::__ndk1::allocator<char> > >, (std::__ndk1::__variant_detail::_Trait)1>, std::__ndk1::__variant_detail::__base<(std::__ndk1::__variant_detail::__traits<geode::Hook*, std::__ndk1::basic_string<char, std::__ndk1::char_traits<char>, std::__ndk1::allocator<char> > >)1, geode::Hook, std::__ndk1::allocator<char> >&)
PUBLIC 10b78 0 std::__ndk1::__variant_detail::__visitation::__base::__dispatcher<(unsigned long)1>::__dispatch[abi:ne180000]<std::__ndk1::__variant_detail::__dtor<std::__ndk1::__variant_detail::__traits<geode::Hook*, std::__ndk1::basic_string<char, std::__ndk1::char_traits<char>, std::__ndk1::allocator<char> > >, (std::__ndk1::__variant_detail::_Trait)1>::__destroy[abi:ne180000]()::{lambda(auto:1&)#1}, std::__ndk1::__variant_detail::__base<(std::__ndk1::__variant_detail::__traits<geode::Hook*, std::__ndk1::basic_string<char, std::__ndk1::char_traits<char>, std::__ndk1::allocator<char> > >)1, geode::Hook, std::__ndk1::allocator<char> >&>(std::__ndk1::__variant_detail::__dtor<std::__ndk1::__variant_detail::__traits<geode::Hook*, std::__ndk1::basic_string<char, std::__ndk1::char_traits<char>, std::__ndk1::allocator<char> > >, (std::__ndk1::__variant_detail::_Trait)1>, std::__ndk1::__variant_detail::__base<(std::__ndk1::__variant_detail::__traits<geode::Hook*, std::__ndk1::basic_string<char, std::__ndk1::char_traits<char>, std::__ndk1::allocator<char> > >)1, geode::Hook, std::__ndk1::allocator<char> >&)
PUBLIC 10b8c 0 std::__ndk1::__tree<std::__ndk1::__value_type<std::__ndk1::basic_string<char, std::__ndk1::char_traits<char>, std::__ndk1::allocator<char> >, std::__ndk1::shared_ptr<geode::Hook> >, std::__ndk1::__map_value_compare<std::__ndk1::basic_string<char, std::__ndk1::char_traits<char>, std::__ndk1::allocator<char> >, std::__ndk1::__value_type<std::__ndk1::basic_string<char, std::__ndk1::char_traits<char>, std::__ndk1::allocator<char> >, std::__ndk1::shared_ptr<geode::Hook> >, std::__ndk1::less<std::__ndk1::basic_string<char, std::__ndk1::char_traits<char>, std::__ndk1::allocator<char> > >, true>, std::__ndk1::allocator<std::__ndk1::__value_type<std::__ndk1::basic_string<char, std::__ndk1::char_traits<char>, std::__ndk1::allocator<char> >, std::__ndk1::shared_ptr<geode::Hook> > > >::destroy(std::__ndk1::__tree_node<std::__ndk1::__value_type<std::__ndk1::basic_string<char, std::__ndk1::char_traits<char>, std::__ndk1::allocator<char> >, std::__ndk1::shared_ptr<geode::Hook> >, void*>*)
PUBLIC 10c10 0 geode::modifier::AsStaticFunction_init<hook158<(anonymous namespace)::hook158Parent>, bool (hook158<(anonymous namespace)::hook158Parent>::*)(GJGameLevel*, bool, bool)>::Impl<bool (hook158<(anonymous namespace)::hook158Parent>::*)(GJGameLevel*, bool, bool)>::function(hook158<(anonymous namespace)::hook158Parent>*, GJGameLevel*, bool, bool)
PUBLIC 115b4 0 geode::modifier::AsStaticFunction_resetLevel<hook158<(anonymous namespace)::hook158Parent>, void (hook158<(anonymous namespace)::hook158Parent>::*)()>::Impl<void (hook158<(anonymous namespace)::hook158Parent>::*)()>::function(hook158<(anonymous namespace)::hook158Parent>*)
PUBLIC 11604 0 geode::modifier::AsStaticFunction_togglePracticeMode<hook158<(anonymous namespace)::hook158Parent>, void (hook158<(anonymous namespace)::hook158Parent>::*)(bool)>::Impl<void (hook158<(anonymous namespace)::hook158Parent>::*)(bool)>::function(hook158<(anonymous namespace)::hook158Parent>*, bool)
PUBLIC 11630 0 std::__ndk1::shared_ptr<tulip::hook::CallingConvention>::~shared_ptr[abi:ne180000]()
PUBLIC 11680 0 tulip::hook::HandlerMetadata::~HandlerMetadata()
PUBLIC 116e4 0 geode::Mod::getSettingValue<bool>(std::__ndk1::basic_string_view<char, std::__ndk1::char_traits<char> >) const
PUBLIC 11814 0 geode::cocos::CCArrayExt<cocos2d::CCNode*, cocos2d::CCNode>::~CCArrayExt()
PUBLIC 11830 0 geode::modifier::FieldIntermediate<hook158<(anonymous namespace)::hook158Parent>, PlayLayer>::operator->()
PUBLIC 11e64 0 hook158<(anonymous namespace)::hook158Parent>::update_labels()
PUBLIC 12298 0 hook158<(anonymous namespace)::hook158Parent>::update_position()
PUBLIC 12684 0 geode::cast::traverseTypeinfoFor(void*, geode::cast::ClassTypeinfoType const*, char const*)
PUBLIC 1277c 0 cocos2d::CCCopying::copyWithZone(cocos2d::CCZone*)
PUBLIC 12784 0 RunInfoWidget::~RunInfoWidget()
PUBLIC 127a8 0 cocos2d::CCNodeRGBA::setOpacityModifyRGB(bool)
PUBLIC 127ac 0 cocos2d::CCNodeRGBA::isOpacityModifyRGB()
PUBLIC 127b4 0 {virtual override thunk({offset(-320)}, cocos2d::CCNodeRGBA::setOpacityModifyRGB(bool))}
PUBLIC 127b8 0 {virtual override thunk({offset(-320)}, cocos2d::CCNodeRGBA::isOpacityModifyRGB())}
PUBLIC 127c0 0 RunInfoWidget::reset_icon(char const*)
PUBLIC 12930 0 RunInfoWidget::update_position(PlayLayer*, bool)
PUBLIC 12b9c 0 geode::modifier::FieldIntermediate<hook158<(anonymous namespace)::hook158Parent>, PlayLayer>::fieldDestructor(void*)
PUBLIC 12ba0 0 std::__ndk1::vector<void*, std::__ndk1::allocator<void*> >::__throw_length_error[abi:ne180000]() const
PUBLIC 12bb4 0 std::__ndk1::vector<std::__ndk1::function<void (void*)>, std::__ndk1::allocator<std::__ndk1::function<void (void*)> > >::__throw_length_error[abi:ne180000]() const
PUBLIC 12bc8 0 std::__ndk1::vector<void*, std::__ndk1::allocator<void*> >::__throw_out_of_range[abi:ne180000]() const
PUBLIC 12bd4 0 std::__ndk1::__throw_out_of_range[abi:ne180000](char const*)
PUBLIC 12c24 0 std::out_of_range::out_of_range[abi:ne180000](char const*)
PUBLIC 12c54 0 std::__ndk1::vector<std::__ndk1::function<void (void*)>, std::__ndk1::allocator<std::__ndk1::function<void (void*)> > >::__throw_out_of_range[abi:ne180000]() const
PUBLIC 12c60 0 std::__ndk1::__function::__base<void (void*)>::~__base()
PUBLIC 12c64 0 std::__ndk1::__function::__func<void (*)(void*), std::__ndk1::allocator<void (*)(void*)>, void (void*)>::~__func()
PUBLIC 12c68 0 std::__ndk1::__function::__func<void (*)(void*), std::__ndk1::allocator<void (*)(void*)>, void (void*)>::__clone() const
PUBLIC 12ca0 0 std::__ndk1::__function::__func<void (*)(void*), std::__ndk1::allocator<void (*)(void*)>, void (void*)>::__clone(std::__ndk1::__function::__base<void (void*)>*) const
PUBLIC 12cb8 0 std::__ndk1::__function::__func<void (*)(void*), std::__ndk1::allocator<void (*)(void*)>, void (void*)>::destroy()
PUBLIC 12cbc 0 std::__ndk1::__function::__func<void (*)(void*), std::__ndk1::allocator<void (*)(void*)>, void (void*)>::destroy_deallocate()
PUBLIC 12cc0 0 std::__ndk1::__function::__func<void (*)(void*), std::__ndk1::allocator<void (*)(void*)>, void (void*)>::operator()(void*&&)
PUBLIC 12cd0 0 std::__ndk1::__function::__func<void (*)(void*), std::__ndk1::allocator<void (*)(void*)>, void (void*)>::target(std::type_info const&) const
PUBLIC 12cec 0 std::__ndk1::__function::__func<void (*)(void*), std::__ndk1::allocator<void (*)(void*)>, void (void*)>::target_type() const
PUBLIC 12cf8 0 std::__ndk1::shared_ptr<geode::StringSettingV3>::~shared_ptr[abi:ne180000]()
PUBLIC 12d48 0 std::__ndk1::__tree<std::__ndk1::__value_type<std::__ndk1::basic_string<char, std::__ndk1::char_traits<char>, std::__ndk1::allocator<char> >, std::__ndk1::shared_ptr<geode::Hook> >, std::__ndk1::__map_value_compare<std::__ndk1::basic_string<char, std::__ndk1::char_traits<char>, std::__ndk1::allocator<char> >, std::__ndk1::__value_type<std::__ndk1::basic_string<char, std::__ndk1::char_traits<char>, std::__ndk1::allocator<char> >, std::__ndk1::shared_ptr<geode::Hook> >, std::__ndk1::less<std::__ndk1::basic_string<char, std::__ndk1::char_traits<char>, std::__ndk1::allocator<char> > >, true>, std::__ndk1::allocator<std::__ndk1::__value_type<std::__ndk1::basic_string<char, std::__ndk1::char_traits<char>, std::__ndk1::allocator<char> >, std::__ndk1::shared_ptr<geode::Hook> > > >::__emplace_unique_key_args<std::__ndk1::basic_string<char, std::__ndk1::char_traits<char>, std::__ndk1::allocator<char> >, std::__ndk1::piecewise_construct_t const&, std::__ndk1::tuple<std::__ndk1::basic_string<char, std::__ndk1::char_traits<char>, std::__ndk1::allocator<char> >&&>, std::__ndk1::tuple<> >(std::__ndk1::basic_string<char, std::__ndk1::char_traits<char>, std::__ndk1::allocator<char> > const&, std::__ndk1::piecewise_construct_t const&, std::__ndk1::tuple<std::__ndk1::basic_string<char, std::__ndk1::char_traits<char>, std::__ndk1::allocator<char> >&&>, std::__ndk1::tuple<>)
PUBLIC 12eb0 0 std::__ndk1::__tree_balance_after_insert[abi:ne180000]<std::__ndk1::__tree_node_base<void*>*>(std::__ndk1::__tree_node_base<void*>*, std::__ndk1::__tree_node_base<void*>*)
PUBLIC 13060 0 std::__ndk1::__variant_detail::__visitation::__base::__dispatcher<(unsigned long)0>::__dispatch[abi:ne180000]<std::__ndk1::__variant_detail::__dtor<std::__ndk1::__variant_detail::__traits<bool, std::__ndk1::basic_string<char, std::__ndk1::char_traits<char>, std::__ndk1::allocator<char> > >, (std::__ndk1::__variant_detail::_Trait)1>::__destroy[abi:ne180000]()::{lambda(auto:1&)#1}, std::__ndk1::__variant_detail::__base<(std::__ndk1::__variant_detail::__traits<bool, std::__ndk1::basic_string<char, std::__ndk1::char_traits<char>, std::__ndk1::allocator<char> > >)1, bool, std::__ndk1::allocator<char> >&>(std::__ndk1::__variant_detail::__dtor<std::__ndk1::__variant_detail::__traits<bool, std::__ndk1::basic_string<char, std::__ndk1::char_traits<char>, std::__ndk1::allocator<char> > >, (std::__ndk1::__variant_detail::_Trait)1>, std::__ndk1::__variant_detail::__base<(std::__ndk1::__variant_detail::__traits<bool, std::__ndk1::basic_string<char, std::__ndk1::char_traits<char>, std::__ndk1::allocator<char> > >)1, bool, std::__ndk1::allocator<char> >&)
PUBLIC 13064 0 std::__ndk1::__variant_detail::__visitation::__base::__dispatcher<(unsigned long)1>::__dispatch[abi:ne180000]<std::__ndk1::__variant_detail::__dtor<std::__ndk1::__variant_detail::__traits<bool, std::__ndk1::basic_string<char, std::__ndk1::char_traits<char>, std::__ndk1::allocator<char> > >, (std::__ndk1::__variant_detail::_Trait)1>::__destroy[abi:ne180000]()::{lambda(auto:1&)#1}, std::__ndk1::__variant_detail::__base<(std::__ndk1::__variant_detail::__traits<bool, std::__ndk1::basic_string<char, std::__ndk1::char_traits<char>, std::__ndk1::allocator<char> > >)1, bool, std::__ndk1::allocator<char> >&>(std::__ndk1::__variant_detail::__dtor<std::__ndk1::__variant_detail::__traits<bool, std::__ndk1::basic_string<char, std::__ndk1::char_traits<char>, std::__ndk1::allocator<char> > >, (std::__ndk1::__variant_detail::_Trait)1>, std::__ndk1::__variant_detail::__base<(std::__ndk1::__variant_detail::__traits<bool, std::__ndk1::basic_string<char, std::__ndk1::char_traits<char>, std::__ndk1::allocator<char> > >)1, bool, std::__ndk1::allocator<char> >&)
PUBLIC 13078 0 geode::impl::ResultData<void, std::__ndk1::basic_string<char, std::__ndk1::char_traits<char>, std::__ndk1::allocator<char> > >::~ResultData()
PUBLIC 130ec 0 std::__ndk1::basic_string<char, std::__ndk1::char_traits<char>, std::__ndk1::allocator<char> >::__assign_external(char const*, unsigned long)
PUBLIC 13214 0 std::__ndk1::__variant_detail::__visitation::__base::__dispatcher<(unsigned long)0>::__dispatch[abi:ne180000]<std::__ndk1::__variant_detail::__dtor<std::__ndk1::__variant_detail::__traits<std::__ndk1::monostate, std::__ndk1::basic_string<char, std::__ndk1::char_traits<char>, std::__ndk1::allocator<char> > >, (std::__ndk1::__variant_detail::_Trait)1>::__destroy[abi:ne180000]()::{lambda(auto:1&)#1}, std::__ndk1::__variant_detail::__base<(std::__ndk1::__variant_detail::__traits<std::__ndk1::monostate, std::__ndk1::basic_string<char, std::__ndk1::char_traits<char>, std::__ndk1::allocator<char> > >)1, std::__ndk1::__variant_detail::__traits, std::__ndk1::allocator<char> >&>(std::__ndk1::__variant_detail::__dtor<std::__ndk1::__variant_detail::__traits<std::__ndk1::monostate, std::__ndk1::basic_string<char, std::__ndk1::char_traits<char>, std::__ndk1::allocator<char> > >, (std::__ndk1::__variant_detail::_Trait)1>, std::__ndk1::__variant_detail::__base<(std::__ndk1::__variant_detail::__traits<std::__ndk1::monostate, std::__ndk1::basic_string<char, std::__ndk1::char_traits<char>, std::__ndk1::allocator<char> > >)1, std::__ndk1::__variant_detail::__traits, std::__ndk1::allocator<char> >&)
PUBLIC 13218 0 std::__ndk1::__variant_detail::__visitation::__base::__dispatcher<(unsigned long)1>::__dispatch[abi:ne180000]<std::__ndk1::__variant_detail::__dtor<std::__ndk1::__variant_detail::__traits<std::__ndk1::monostate, std::__ndk1::basic_string<char, std::__ndk1::char_traits<char>, std::__ndk1::allocator<char> > >, (std::__ndk1::__variant_detail::_Trait)1>::__destroy[abi:ne180000]()::{lambda(auto:1&)#1}, std::__ndk1::__variant_detail::__base<(std::__ndk1::__variant_detail::__traits<std::__ndk1::monostate, std::__ndk1::basic_string<char, std::__ndk1::char_traits<char>, std::__ndk1::allocator<char> > >)1, std::__ndk1::__variant_detail::__traits, std::__ndk1::allocator<char> >&>(std::__ndk1::__variant_detail::__dtor<std::__ndk1::__variant_detail::__traits<std::__ndk1::monostate, std::__ndk1::basic_string<char, std::__ndk1::char_traits<char>, std::__ndk1::allocator<char> > >, (std::__ndk1::__variant_detail::_Trait)1>, std::__ndk1::__variant_detail::__base<(std::__ndk1::__variant_detail::__traits<std::__ndk1::monostate, std::__ndk1::basic_string<char, std::__ndk1::char_traits<char>, std::__ndk1::allocator<char> > >)1, std::__ndk1::__variant_detail::__traits, std::__ndk1::allocator<char> >&)
PUBLIC 1322c 0 geode::EventListener<geode::ModStateFilter>::getPool() const
PUBLIC 13230 0 geode::EventListener<geode::ModStateFilter>::handle(geode::Event*)
PUBLIC 13394 0 geode::EventListener<geode::ModStateFilter>::~EventListener()
PUBLIC 133f0 0 geode::EventListener<geode::ModStateFilter>::~EventListener()
PUBLIC 13454 0 std::__ndk1::__function::__base<void (geode::ModStateEvent*)>::~__base()
PUBLIC 13458 0 std::__ndk1::__function::__func<void (*)(geode::ModStateEvent*), std::__ndk1::allocator<void (*)(geode::ModStateEvent*)>, void (geode::ModStateEvent*)>::~__func()
PUBLIC 1345c 0 std::__ndk1::__function::__func<void (*)(geode::ModStateEvent*), std::__ndk1::allocator<void (*)(geode::ModStateEvent*)>, void (geode::ModStateEvent*)>::__clone() const
PUBLIC 13490 0 std::__ndk1::__function::__func<void (*)(geode::ModStateEvent*), std::__ndk1::allocator<void (*)(geode::ModStateEvent*)>, void (geode::ModStateEvent*)>::__clone(std::__ndk1::__function::__base<void (geode::ModStateEvent*)>*) const
PUBLIC 134a4 0 std::__ndk1::__function::__func<void (*)(geode::ModStateEvent*), std::__ndk1::allocator<void (*)(geode::ModStateEvent*)>, void (geode::ModStateEvent*)>::destroy()
PUBLIC 134a8 0 std::__ndk1::__function::__func<void (*)(geode::ModStateEvent*), std::__ndk1::allocator<void (*)(geode::ModStateEvent*)>, void (geode::ModStateEvent*)>::destroy_deallocate()
PUBLIC 134ac 0 std::__ndk1::__function::__func<void (*)(geode::ModStateEvent*), std::__ndk1::allocator<void (*)(geode::ModStateEvent*)>, void (geode::ModStateEvent*)>::operator()(geode::ModStateEvent*&&)
PUBLIC 134bc 0 std::__ndk1::__function::__func<void (*)(geode::ModStateEvent*), std::__ndk1::allocator<void (*)(geode::ModStateEvent*)>, void (geode::ModStateEvent*)>::target(std::type_info const&) const
PUBLIC 134d8 0 std::__ndk1::__function::__func<void (*)(geode::ModStateEvent*), std::__ndk1::allocator<void (*)(geode::ModStateEvent*)>, void (geode::ModStateEvent*)>::target_type() const
PUBLIC 134e4 0 std::__ndk1::bad_function_call::~bad_function_call()
PUBLIC m 13508 0 geodeImplicitEntry
PUBLIC 13544 0 std::__ndk1::unordered_map<void*, bool, std::__ndk1::hash<void*>, std::__ndk1::equal_to<void*>, std::__ndk1::allocator<std::__ndk1::pair<void* const, bool> > >::~unordered_map[abi:ne180000]()
PUBLIC 13590 0 wrapFunction(unsigned long, tulip::hook::WrapperMetadata const&)
PUBLIC 136c4 0 geode::impl::ResultData<void*, std::__ndk1::basic_string<char, std::__ndk1::char_traits<char>, std::__ndk1::allocator<char> > >::unwrapErr() &
PUBLIC 1373c 0 geode::impl::ResultData<void*, std::__ndk1::basic_string<char, std::__ndk1::char_traits<char>, std::__ndk1::allocator<char> > >::~ResultData()
PUBLIC 137b0 0 tulip::hook::WrapperMetadata::~WrapperMetadata()
PUBLIC 13814 0 cocos2d::CCObject::~CCObject()
PUBLIC 13838 0 cocos2d::CCNode::~CCNode()
PUBLIC 1385c 0 cocos2d::CCNodeRGBA::CCNodeRGBA()
PUBLIC 13ac8 0 cocos2d::CCNodeRGBA::~CCNodeRGBA()
PUBLIC 13aec 0 cocos2d::CCNodeRGBA::~CCNodeRGBA()
PUBLIC 13da4 0 cocos2d::CCObject::update(float)
PUBLIC 13da8 0 cocos2d::CCNode::~CCNode()
PUBLIC 14048 0 cocos2d::CCObject::~CCObject()
PUBLIC 1453c 0 _ZN5geode15UnwrapExceptionC2IRPvQsr4implE18IsStringStreamableIT_EEENS_4impl5OkTagEOS4_
PUBLIC 14690 0 _ZN5geode15UnwrapExceptionC2IRNSt6__ndk112basic_stringIcNS2_11char_traitsIcEENS2_9allocatorIcEEEEQsr4implE18IsStringStreamableIT_EEENS_4impl6ErrTagEOSA_
PUBLIC 147f8 0 std::__ndk1::__variant_detail::__visitation::__base::__dispatcher<(unsigned long)0>::__dispatch[abi:ne180000]<std::__ndk1::__variant_detail::__dtor<std::__ndk1::__variant_detail::__traits<void*, std::__ndk1::basic_string<char, std::__ndk1::char_traits<char>, std::__ndk1::allocator<char> > >, (std::__ndk1::__variant_detail::_Trait)1>::__destroy[abi:ne180000]()::{lambda(auto:1&)#1}, std::__ndk1::__variant_detail::__base<(std::__ndk1::__variant_detail::__traits<void*, std::__ndk1::basic_string<char, std::__ndk1::char_traits<char>, std::__ndk1::allocator<char> > >)1, std::__ndk1::__variant_detail::__traits, std::__ndk1::allocator<char> >&>(std::__ndk1::__variant_detail::__dtor<std::__ndk1::__variant_detail::__traits<void*, std::__ndk1::basic_string<char, std::__ndk1::char_traits<char>, std::__ndk1::allocator<char> > >, (std::__ndk1::__variant_detail::_Trait)1>, std::__ndk1::__variant_detail::__base<(std::__ndk1::__variant_detail::__traits<void*, std::__ndk1::basic_string<char, std::__ndk1::char_traits<char>, std::__ndk1::allocator<char> > >)1, std::__ndk1::__variant_detail::__traits, std::__ndk1::allocator<char> >&)
PUBLIC 147fc 0 std::__ndk1::__variant_detail::__visitation::__base::__dispatcher<(unsigned long)1>::__dispatch[abi:ne180000]<std::__ndk1::__variant_detail::__dtor<std::__ndk1::__variant_detail::__traits<void*, std::__ndk1::basic_string<char, std::__ndk1::char_traits<char>, std::__ndk1::allocator<char> > >, (std::__ndk1::__variant_detail::_Trait)1>::__destroy[abi:ne180000]()::{lambda(auto:1&)#1}, std::__ndk1::__variant_detail::__base<(std::__ndk1::__variant_detail::__traits<void*, std::__ndk1::basic_string<char, std::__ndk1::char_traits<char>, std::__ndk1::allocator<char> > >)1, std::__ndk1::__variant_detail::__traits, std::__ndk1::allocator<char> >&>(std::__ndk1::__variant_detail::__dtor<std::__ndk1::__variant_detail::__traits<void*, std::__ndk1::basic_string<char, std::__ndk1::char_traits<char>, std::__ndk1::allocator<char> > >, (std::__ndk1::__variant_detail::_Trait)1>, std::__ndk1::__variant_detail::__base<(std::__ndk1::__variant_detail::__traits<void*, std::__ndk1::basic_string<char, std::__ndk1::char_traits<char>, std::__ndk1::allocator<char> > >)1, std::__ndk1::__variant_detail::__traits, std::__ndk1::allocator<char> >&)
PUBLIC 14810 0 std::__ndk1::__hash_table<std::__ndk1::__hash_value_type<void*, bool>, std::__ndk1::__unordered_map_hasher<void*, std::__ndk1::__hash_value_type<void*, bool>, std::__ndk1::hash<void*>, std::__ndk1::equal_to<void*>, true>, std::__ndk1::__unordered_map_equal<void*, std::__ndk1::__hash_value_type<void*, bool>, std::__ndk1::equal_to<void*>, std::__ndk1::hash<void*>, true>, std::__ndk1::allocator<std::__ndk1::__hash_value_type<void*, bool> > >::__emplace_unique_key_args<void*, std::__ndk1::piecewise_construct_t const&, std::__ndk1::tuple<void* const&>, std::__ndk1::tuple<> >(void* const&, std::__ndk1::piecewise_construct_t const&, std::__ndk1::tuple<void* const&>, std::__ndk1::tuple<>)
PUBLIC 14d1c 0 __udivti3
PUBLIC 14d28 0 __udivmodti4
PUBLIC m 14f74 0 __eqtf2
PUBLIC 15014 0 __unordtf2
PUBLIC 1504c 0 fmt::v11::detail::write_loc(fmt::v11::basic_appender<char>, fmt::v11::loc_value, fmt::v11::format_specs const&, fmt::v11::detail::locale_ref)
PUBLIC 152e0 0 fmt::v11::format_facet<std::__ndk1::locale>::~format_facet()
PUBLIC 1535c 0 fmt::v11::report_error(char const*)
PUBLIC 153ac 0 fmt::v11::format_error::runtime_error(char const*)
PUBLIC 153d8 0 fmt::v11::format_facet<std::__ndk1::locale>::do_put(fmt::v11::basic_appender<char>, fmt::v11::loc_value, fmt::v11::format_specs const&) const
PUBLIC 15b98 0 fmt::v11::detail::loc_writer<char>::~loc_writer()
PUBLIC 15bfc 0 fmt::v11::detail::vformat_to<char>(fmt::v11::detail::buffer<char>&, fmt::v11::basic_string_view<char>, fmt::v11::detail::vformat_args<char>::type, fmt::v11::detail::locale_ref)
PUBLIC 1616c 0 fmt::v11::detail::is_printable(unsigned int)
PUBLIC 16394 0 fmt::v11::detail::dragonbox::to_decimal<float>(float)
PUBLIC 16670 0 fmt::v11::detail::dragonbox::to_decimal<double>(double)
PUBLIC 16bac 0 fmt::v11::basic_memory_buffer<char, (unsigned long)500, std::__ndk1::allocator<char> >::grow(fmt::v11::detail::buffer<char>&, unsigned long)
PUBLIC 16c24 0 fmt::v11::format_facet<std::__ndk1::locale>::~format_facet()
PUBLIC 16cb0 0 fmt::v11::format_error::~format_error()
PUBLIC 16cd4 0 fmt::v11::detail::copy_noinline<char, char const*, fmt::v11::basic_appender<char> >(char const*, char const*, fmt::v11::basic_appender<char>)
PUBLIC 16e24 0 fmt::v11::detail::default_arg_formatter<char>::operator()<bool>(bool)
PUBLIC 16e8c 0 fmt::v11::detail::default_arg_formatter<char>::operator()<char>(char)
PUBLIC 16f1c 0 fmt::v11::detail::default_arg_formatter<char>::operator()<float>(float)
PUBLIC 17008 0 fmt::v11::detail::default_arg_formatter<char>::operator()<double>(double)
PUBLIC 170f4 0 fmt::v11::detail::default_arg_formatter<char>::operator()<char const*>(char const*)
PUBLIC 1713c 0 fmt::v11::detail::default_arg_formatter<char>::operator()<void const*>(void const*)
PUBLIC 171d4 0 _ZN3fmt3v116detail5writeIcNS0_14basic_appenderIcEEiTnNSt6__ndk19enable_ifIXaaaasr11is_integralIT1_EE5valuentsr3std7is_sameIS7_bEE5valuentsr3std7is_sameIS7_T_EE5valueEiE4typeELi0EEET0_SB_S7_
PUBLIC 17434 0 fmt::v11::detail::copy_noinline<char, char*, fmt::v11::basic_appender<char> >(char*, char*, fmt::v11::basic_appender<char>)
PUBLIC 17584 0 _ZN3fmt3v116detail5writeIcNS0_14basic_appenderIcEEjTnNSt6__ndk19enable_ifIXaaaasr11is_integralIT1_EE5valuentsr3std7is_sameIS7_bEE5valuentsr3std7is_sameIS7_T_EE5valueEiE4typeELi0EEET0_SB_S7_
PUBLIC 17764 0 _ZN3fmt3v116detail5writeIcNS0_14basic_appenderIcEExTnNSt6__ndk19enable_ifIXaaaasr11is_integralIT1_EE5valuentsr3std7is_sameIS7_bEE5valuentsr3std7is_sameIS7_T_EE5valueEiE4typeELi0EEET0_SB_S7_
PUBLIC 179e8 0 _ZN3fmt3v116detail5writeIcNS0_14basic_appenderIcEEyTnNSt6__ndk19enable_ifIXaaaasr11is_integralIT1_EE5valuentsr3std7is_sameIS7_bEE5valuentsr3std7is_sameIS7_T_EE5valueEiE4typeELi0EEET0_SB_S7_
PUBLIC 17bf0 0 _ZN3fmt3v116detail5writeIcNS0_14basic_appenderIcEEnTnNSt6__ndk19enable_ifIXaaaasr11is_integralIT1_EE5valuentsr3std7is_sameIS7_bEE5valuentsr3std7is_sameIS7_T_EE5valueEiE4typeELi0EEET0_SB_S7_
PUBLIC 17f50 0 _ZN3fmt3v116detail5writeIcNS0_14basic_appenderIcEEoTnNSt6__ndk19enable_ifIXaaaasr11is_integralIT1_EE5valuentsr3std7is_sameIS7_bEE5valuentsr3std7is_sameIS7_T_EE5valueEiE4typeELi0EEET0_SB_S7_
PUBLIC 18264 0 _ZN3fmt3v116detail5writeIcNS0_14basic_appenderIcEEbTnNSt6__ndk19enable_ifIXsr3std7is_sameIT1_bEE5valueEiE4typeELi0EEET0_SA_S7_RKNS0_12format_specsENS1_10locale_refE
PUBLIC 184f4 0 fmt::v11::detail::write_int_noinline<char, fmt::v11::basic_appender<char>, unsigned int>(fmt::v11::basic_appender<char>, fmt::v11::detail::write_int_arg<unsigned int>, fmt::v11::format_specs const&, fmt::v11::detail::locale_ref)
PUBLIC 192d0 0 fmt::v11::detail::fill<char, fmt::v11::basic_appender<char> >(fmt::v11::basic_appender<char>, unsigned long, fmt::v11::detail::fill_t const&)
PUBLIC 194a0 0 fmt::v11::detail::write_padded<char, (fmt::v11::align::type)1, fmt::v11::basic_appender<char>, fmt::v11::detail::write_char<char, fmt::v11::basic_appender<char> >(fmt::v11::basic_appender<char>, char, fmt::v11::format_specs const&)::{lambda(fmt::v11::basic_appender<char>&)#1}>(fmt::v11::basic_appender<char>, fmt::v11::format_specs const&, unsigned long, unsigned long, fmt::v11::detail::write_char<char, fmt::v11::basic_appender<char> >(fmt::v11::basic_appender<char>, char, fmt::v11::format_specs const&)::{lambda(fmt::v11::basic_appender<char>&)#1})
PUBLIC 196dc 0 fmt::v11::detail::write_escaped_cp<fmt::v11::basic_appender<char>, char>(fmt::v11::basic_appender<char>, fmt::v11::detail::find_escape_result<char> const&)
PUBLIC 199e8 0 fmt::v11::detail::write_codepoint<(unsigned long)2, char, fmt::v11::basic_appender<char> >(fmt::v11::basic_appender<char>, char, unsigned int)
PUBLIC 19b60 0 fmt::v11::detail::write_codepoint<(unsigned long)8, char, fmt::v11::basic_appender<char> >(fmt::v11::basic_appender<char>, char, unsigned int)
PUBLIC 19cd8 0 fmt::v11::detail::write_padded<char, (fmt::v11::align::type)1, fmt::v11::basic_appender<char>, fmt::v11::detail::write_nonfinite<char, fmt::v11::basic_appender<char> >(fmt::v11::basic_appender<char>, bool, fmt::v11::format_specs, fmt::v11::sign::type)::{lambda(fmt::v11::basic_appender<char>&)#1}>(fmt::v11::basic_appender<char>, fmt::v11::format_specs const&, unsigned long, unsigned long, fmt::v11::detail::write_nonfinite<char, fmt::v11::basic_appender<char> >(fmt::v11::basic_appender<char>, bool, fmt::v11::format_specs, fmt::v11::sign::type)::{lambda(fmt::v11::basic_appender<char>&)#1})
PUBLIC 19f18 0 fmt::v11::detail::do_write_float<char, fmt::v11::basic_appender<char>, fmt::v11::detail::dragonbox::decimal_fp<float>, fmt::v11::detail::digit_grouping<char> >(fmt::v11::basic_appender<char>, fmt::v11::detail::dragonbox::decimal_fp<float> const&, fmt::v11::format_specs const&, fmt::v11::detail::float_specs, fmt::v11::detail::locale_ref)
PUBLIC 1ab8c 0 fmt::v11::detail::do_write_float<char, fmt::v11::basic_appender<char>, fmt::v11::detail::dragonbox::decimal_fp<float>, fmt::v11::detail::digit_grouping<char> >(fmt::v11::basic_appender<char>, fmt::v11::detail::dragonbox::decimal_fp<float> const&, fmt::v11::format_specs const&, fmt::v11::detail::float_specs, fmt::v11::detail::locale_ref)::{lambda(fmt::v11::basic_appender<char>(fmt::v11::basic_appender<char>))#1}::operator() const
PUBLIC 1ace0 0 fmt::v11::detail::digit_grouping<char>::digit_grouping(fmt::v11::detail::locale_ref, bool)
PUBLIC 1af4c 0 fmt::v11::detail::digit_grouping<char>::~digit_grouping()
PUBLIC 1af90 0 fmt::v11::detail::write_exponent<char, fmt::v11::basic_appender<char> >(int, fmt::v11::basic_appender<char>)
PUBLIC 1b160 0 _ZN3fmt3v116detail17write_significandIcjTnNSt6__ndk19enable_ifIXsr3std11is_integralIT0_EE5valueEiE4typeELi0EEEPT_S9_S5_iiS8_
PUBLIC 1b2dc 0 std::__ndk1::basic_string<char, std::__ndk1::char_traits<char>, std::__ndk1::allocator<char> >::__assign_no_alias<true>(char const*, unsigned long)
PUBLIC 1b388 0 std::__ndk1::basic_string<char, std::__ndk1::char_traits<char>, std::__ndk1::allocator<char> >::__assign_no_alias<false>(char const*, unsigned long)
PUBLIC 1b498 0 fmt::v11::detail::digit_grouping<char>::apply<fmt::v11::basic_appender<char>, char>(fmt::v11::basic_appender<char>, fmt::v11::basic_string_view<char>) const
PUBLIC 1b850 0 fmt::v11::basic_memory_buffer<int, (unsigned long)500, std::__ndk1::allocator<int> >::grow(fmt::v11::detail::buffer<int>&, unsigned long)
PUBLIC 1b8f0 0 fmt::v11::detail::do_write_float<char, fmt::v11::basic_appender<char>, fmt::v11::detail::dragonbox::decimal_fp<double>, fmt::v11::detail::digit_grouping<char> >(fmt::v11::basic_appender<char>, fmt::v11::detail::dragonbox::decimal_fp<double> const&, fmt::v11::format_specs const&, fmt::v11::detail::float_specs, fmt::v11::detail::locale_ref)
PUBLIC 1c5a4 0 fmt::v11::detail::do_write_float<char, fmt::v11::basic_appender<char>, fmt::v11::detail::dragonbox::decimal_fp<double>, fmt::v11::detail::digit_grouping<char> >(fmt::v11::basic_appender<char>, fmt::v11::detail::dragonbox::decimal_fp<double> const&, fmt::v11::format_specs const&, fmt::v11::detail::float_specs, fmt::v11::detail::locale_ref)::{lambda(fmt::v11::basic_appender<char>(fmt::v11::basic_appender<char>))#1}::operator() const
PUBLIC 1c6fc 0 _ZN3fmt3v116detail17write_significandIcmTnNSt6__ndk19enable_ifIXsr3std11is_integralIT0_EE5valueEiE4typeELi0EEEPT_S9_S5_iiS8_
PUBLIC 1c88c 0 fmt::v11::detail::write_float<char, fmt::v11::basic_appender<char>, long double>(fmt::v11::basic_appender<char>, long double, fmt::v11::format_specs, fmt::v11::detail::locale_ref)
PUBLIC 1d388 0 fmt::v11::detail::write_padded<char, (fmt::v11::align::type)2, fmt::v11::basic_appender<char>, fmt::v11::detail::write_bytes<char, (fmt::v11::align::type)2, fmt::v11::basic_appender<char> >(fmt::v11::basic_appender<char>, fmt::v11::basic_string_view<char>, fmt::v11::format_specs const&)::{lambda(fmt::v11::basic_appender<char>&)#1}>(fmt::v11::basic_appender<char>, fmt::v11::format_specs const&, unsigned long, unsigned long, fmt::v11::detail::write_bytes<char, (fmt::v11::align::type)2, fmt::v11::basic_appender<char> >(fmt::v11::basic_appender<char>, fmt::v11::basic_string_view<char>, fmt::v11::format_specs const&)::{lambda(fmt::v11::basic_appender<char>&)#1})
PUBLIC 1d564 0 fmt::v11::detail::format_dragon(fmt::v11::detail::basic_fp<unsigned __int128>, unsigned int, int, fmt::v11::detail::buffer<char>&, int&)
PUBLIC 1e994 0 fmt::v11::detail::bigint::operator<<=(int)
PUBLIC 1eab8 0 fmt::v11::detail::bigint::assign_pow10(int)
PUBLIC 1f214 0 fmt::v11::detail::bigint::divmod_assign(fmt::v11::detail::bigint const&)
PUBLIC 1f534 0 fmt::v11::basic_memory_buffer<unsigned int, (unsigned long)32, std::__ndk1::allocator<unsigned int> >::grow(fmt::v11::detail::buffer<unsigned int>&, unsigned long)
PUBLIC 1f5d4 0 fmt::v11::detail::do_write_float<char, fmt::v11::basic_appender<char>, fmt::v11::detail::big_decimal_fp, fmt::v11::detail::digit_grouping<char> >(fmt::v11::basic_appender<char>, fmt::v11::detail::big_decimal_fp const&, fmt::v11::format_specs const&, fmt::v11::detail::float_specs, fmt::v11::detail::locale_ref)
PUBLIC 20484 0 fmt::v11::detail::do_write_float<char, fmt::v11::basic_appender<char>, fmt::v11::detail::big_decimal_fp, fmt::v11::detail::digit_grouping<char> >(fmt::v11::basic_appender<char>, fmt::v11::detail::big_decimal_fp const&, fmt::v11::format_specs const&, fmt::v11::detail::float_specs, fmt::v11::detail::locale_ref)::{lambda(fmt::v11::basic_appender<char>(fmt::v11::basic_appender<char>))#1}::operator() const
PUBLIC 205e4 0 fmt::v11::detail::write_padded<char, (fmt::v11::align::type)2, fmt::v11::basic_appender<char>, fmt::v11::detail::write_ptr<char, fmt::v11::basic_appender<char>, unsigned long>(fmt::v11::basic_appender<char>, unsigned long, fmt::v11::format_specs const*)::{lambda(fmt::v11::basic_appender<char>&)#1}>(fmt::v11::basic_appender<char>, fmt::v11::format_specs const&, unsigned long, unsigned long, fmt::v11::detail::write_ptr<char, fmt::v11::basic_appender<char>, unsigned long>(fmt::v11::basic_appender<char>, unsigned long, fmt::v11::format_specs const*)::{lambda(fmt::v11::basic_appender<char>&)#1})
PUBLIC 207f8 0 fmt::v11::detail::parse_replacement_field<char, fmt::v11::detail::vformat_to<char>(fmt::v11::detail::buffer<char>&, fmt::v11::basic_string_view<char>, fmt::v11::detail::vformat_args<char>::type, fmt::v11::detail::locale_ref)::format_handler&>(char const*, char const*, fmt::v11::detail::vformat_to<char>(fmt::v11::detail::buffer<char>&, fmt::v11::basic_string_view<char>, fmt::v11::detail::vformat_args<char>::type, fmt::v11::detail::locale_ref)::format_handler&)
PUBLIC 22494 0 fmt::v11::detail::parse_dynamic_spec<char>(char const*, char const*, int&, fmt::v11::detail::arg_ref<char>&, fmt::v11::basic_format_parse_context<char>&)
PUBLIC 22724 0 fmt::v11::basic_format_args<fmt::v11::context>::get<char>(fmt::v11::basic_string_view<char>) const
PUBLIC 2287c 0 fmt::v11::detail::write_int_noinline<char, fmt::v11::basic_appender<char>, unsigned long>(fmt::v11::basic_appender<char>, fmt::v11::detail::write_int_arg<unsigned long>, fmt::v11::format_specs const&, fmt::v11::detail::locale_ref)
PUBLIC 236d0 0 fmt::v11::detail::write_int_noinline<char, fmt::v11::basic_appender<char>, unsigned __int128>(fmt::v11::basic_appender<char>, fmt::v11::detail::write_int_arg<unsigned __int128>, fmt::v11::format_specs const&, fmt::v11::detail::locale_ref)
PUBLIC 24738 0 _ZN3fmt3v116detail15format_hexfloatIdTnNSt6__ndk19enable_ifIXntsr16is_double_doubleIT_EE5valueEiE4typeELi0EEEvS5_NS0_12format_specsERNS1_6bufferIcEE
PUBLIC 24c58 0 fmt::v11::detail::format_float<double>(double, int, fmt::v11::detail::float_specs, fmt::v11::detail::buffer<char>&)
PUBLIC 255f8 0 fmt::v11::detail::write<char, fmt::v11::basic_appender<char> >(fmt::v11::basic_appender<char>, fmt::v11::basic_string_view<char>, fmt::v11::format_specs const&)
PUBLIC 26964 0 fmt::v11::detail::for_each_codepoint<fmt::v11::detail::compute_width(fmt::v11::basic_string_view<char>)::count_code_points>(fmt::v11::basic_string_view<char>, fmt::v11::detail::compute_width(fmt::v11::basic_string_view<char>)::count_code_points)::{lambda(char const*, char const*)#1}::operator()(char const*, char const*) const
PUBLIC 26b1c 0 fmt::v11::detail::write_int<fmt::v11::basic_appender<char>, unsigned long, char>(fmt::v11::basic_appender<char>, unsigned long, unsigned int, fmt::v11::format_specs const&, fmt::v11::detail::digit_grouping<char> const&)
PUBLIC 27098 0 fmt::v11::detail::write_int<fmt::v11::basic_appender<char>, unsigned __int128, char>(fmt::v11::basic_appender<char>, unsigned __int128, unsigned int, fmt::v11::format_specs const&, fmt::v11::detail::digit_grouping<char> const&)
PUBLIC 27720 0 <.plt ELF section in mat.run-info.android64.so>
STACK CFI INIT dcf0 10 .cfa: sp 0 +
STACK CFI INIT dd00 8 .cfa: sp 0 +
STACK CFI INIT dd08 8 .cfa: sp 0 +
STACK CFI INIT dd10 14 .cfa: sp 0 +
STACK CFI INIT dd24 1c .cfa: sp 0 +
STACK CFI INIT dd40 10 .cfa: sp 0 +
STACK CFI INIT dd50 30 .cfa: sp 0 +
STACK CFI INIT dd80 98 .cfa: sp 0 +
STACK CFI INIT de18 59c .cfa: sp 0 +
STACK CFI INIT e3b4 8c .cfa: sp 0 +
STACK CFI INIT e440 30 .cfa: sp 0 +
STACK CFI INIT f5ec 18 .cfa: sp 0 +
STACK CFI INIT fec4 50 .cfa: sp 0 +
STACK CFI fec8 .cfa: sp 32 +
STACK CFI fed0 .cfa: x29 32 + x19: .cfa -16 + ^ .ra: .cfa -24 + ^ x29: .cfa -32 + ^
STACK CFI fee8 .cfa: sp 32 +
STACK CFI fef0 .cfa: sp 0 +
STACK CFI fef4 .cfa: x29 32 +
STACK CFI ff08 .cfa: sp 32 +
STACK CFI ff10 .cfa: sp 0 +
STACK CFI INIT ff88 7c .cfa: sp 0 +
STACK CFI ff8c .cfa: sp 48 +
STACK CFI ff98 .cfa: x29 48 + x19: .cfa -8 + ^ x20: .cfa -16 + ^ x21: .cfa -32 + ^ .ra: .cfa -40 + ^ x29: .cfa -48 + ^
STACK CFI ffe4 .cfa: sp 48 +
STACK CFI fff0 .cfa: sp 0 +
STACK CFI fff4 .cfa: sp 48 +
STACK CFI 10000 .cfa: sp 0 +
STACK CFI INIT 10004 4 .cfa: sp 0 +
STACK CFI INIT 10008 10 .cfa: sp 0 +
STACK CFI 1000c .cfa: sp 16 +
STACK CFI 10010 .cfa: x29 16 + .ra: .cfa -8 + ^ x29: .cfa -16 + ^
STACK CFI INIT 1016c 34 .cfa: sp 0 +
STACK CFI 10170 .cfa: sp 16 +
STACK CFI 10174 .cfa: x29 16 + .ra: .cfa -8 + ^ x29: .cfa -16 + ^
STACK CFI INIT 102cc 80 .cfa: sp 0 +
STACK CFI 102d0 .cfa: sp 48 +
STACK CFI 102dc .cfa: x29 48 + x19: .cfa -8 + ^ x20: .cfa -16 + ^ x21: .cfa -32 + ^ .ra: .cfa -40 + ^ x29: .cfa -48 + ^
STACK CFI 1033c .cfa: sp 48 +
STACK CFI 10348 .cfa: sp 0 +
STACK CFI INIT 1034c 24 .cfa: sp 0 +
STACK CFI 10350 .cfa: sp 32 +
STACK CFI 10358 .cfa: x29 32 + x19: .cfa -16 + ^ .ra: .cfa -24 + ^ x29: .cfa -32 + ^
STACK CFI 10364 .cfa: sp 32 +
STACK CFI 1036c .cfa: sp 0 +
STACK CFI INIT 106f0 14 .cfa: sp 0 +
STACK CFI 106f4 .cfa: sp 16 +
STACK CFI 106f8 .cfa: x29 16 + .ra: .cfa -8 + ^ x29: .cfa -16 + ^
STACK CFI INIT 10754 30 .cfa: sp 0 +
STACK CFI 10758 .cfa: sp 32 +
STACK CFI 10760 .cfa: x29 32 + x19: .cfa -16 + ^ .ra: .cfa -24 + ^ x29: .cfa -32 + ^
STACK CFI 10778 .cfa: sp 32 +
STACK CFI 10780 .cfa: sp 0 +
STACK CFI INIT 10784 34 .cfa: sp 0 +
STACK CFI 10788 .cfa: sp 32 +
STACK CFI 10790 .cfa: x29 32 + x19: .cfa -16 + ^ .ra: .cfa -24 + ^ x29: .cfa -32 + ^
STACK CFI INIT 10930 148 .cfa: sp 0 +
STACK CFI 10934 .cfa: sp 48 +
STACK CFI 10940 .cfa: x29 48 + x19: .cfa -8 + ^ x20: .cfa -16 + ^ x21: .cfa -32 + ^ .ra: .cfa -40 + ^ x29: .cfa -48 + ^
STACK CFI 10a68 .cfa: sp 48 +
STACK CFI 10a74 .cfa: sp 0 +
STACK CFI INIT 10a78 80 .cfa: sp 0 +
STACK CFI 10a7c .cfa: sp 48 +
STACK CFI 10a88 .cfa: x29 48 + x19: .cfa -8 + ^ x20: .cfa -16 + ^ x21: .cfa -24 + ^ x22: .cfa -32 + ^ .ra: .cfa -40 + ^ x29: .cfa -48 + ^
STACK CFI 10aa0 .cfa: sp 48 +
STACK CFI 10aac .cfa: sp 0 +
STACK CFI 10ab0 .cfa: x29 48 +
STACK CFI 10ae0 .cfa: sp 48 +
STACK CFI 10aec .cfa: sp 0 +
STACK CFI 10af0 .cfa: x29 48 +
STACK CFI INIT 10af8 68 .cfa: sp 0 +
STACK CFI 10afc .cfa: sp 32 +
STACK CFI 10b04 .cfa: x29 32 + x19: .cfa -8 + ^ x20: .cfa -16 + ^ .ra: .cfa -24 + ^ x29: .cfa -32 + ^
STACK CFI 10b1c .cfa: sp 32 +
STACK CFI 10b24 .cfa: sp 0 +
STACK CFI 10b28 .cfa: x29 32 +
STACK CFI 10b54 .cfa: sp 32 +
STACK CFI 10b5c .cfa: sp 0 +
STACK CFI INIT 10b60 14 .cfa: sp 0 +
STACK CFI 10b64 .cfa: sp 16 +
STACK CFI 10b68 .cfa: x29 16 + .ra: .cfa -8 + ^ x29: .cfa -16 + ^
STACK CFI INIT 10b74 4 .cfa: sp 0 +
STACK CFI INIT 10b78 14 .cfa: sp 0 +
STACK CFI INIT 10b8c 84 .cfa: sp 0 +
STACK CFI 10b94 .cfa: sp 32 +
STACK CFI 10b9c .cfa: x29 32 + x19: .cfa -8 + ^ x20: .cfa -16 + ^ .ra: .cfa -24 + ^ x29: .cfa -32 + ^
STACK CFI 10bdc .cfa: sp 32 +
STACK CFI 10be4 .cfa: sp 0 +
STACK CFI 10bec .cfa: x29 32 +
STACK CFI INIT 115b4 50 .cfa: sp 0 +
STACK CFI 115b8 .cfa: sp 32 +
STACK CFI 115c4 .cfa: x29 24 + x19: .cfa -8 + ^ .ra: .cfa -16 + ^ x29: .cfa -24 + ^ v8: .cfa -32 + ^
STACK CFI 115f4 .cfa: sp 32 +
STACK CFI 11600 .cfa: sp 0 +
STACK CFI INIT 11604 2c .cfa: sp 0 +
STACK CFI 11608 .cfa: sp 32 +
STACK CFI 11610 .cfa: x29 32 + x19: .cfa -16 + ^ .ra: .cfa -24 + ^ x29: .cfa -32 + ^
STACK CFI 11624 .cfa: sp 32 +
STACK CFI 1162c .cfa: sp 0 +
STACK CFI INIT 11630 50 .cfa: sp 0 +
STACK CFI 11634 .cfa: sp 32 +
STACK CFI 1163c .cfa: x29 32 + x19: .cfa -16 + ^ .ra: .cfa -24 + ^ x29: .cfa -32 + ^
STACK CFI 11654 .cfa: sp 32 +
STACK CFI 1165c .cfa: sp 0 +
STACK CFI 11660 .cfa: x29 32 +
STACK CFI 11674 .cfa: sp 32 +
STACK CFI 1167c .cfa: sp 0 +
STACK CFI INIT 11680 64 .cfa: sp 0 +
STACK CFI 11684 .cfa: sp 32 +
STACK CFI 1168c .cfa: x29 32 + x19: .cfa -16 + ^ .ra: .cfa -24 + ^ x29: .cfa -32 + ^
STACK CFI 116b8 .cfa: sp 32 +
STACK CFI 116c0 .cfa: sp 0 +
STACK CFI 116c4 .cfa: x29 32 +
STACK CFI 116d8 .cfa: sp 32 +
STACK CFI 116e0 .cfa: sp 0 +
STACK CFI INIT 116e4 130 .cfa: sp 0 +
STACK CFI 116e8 .cfa: sp 80 +
STACK CFI 116f8 .cfa: x29 48 + x19: .cfa -8 + ^ x20: .cfa -16 + ^ x21: .cfa -24 + ^ x22: .cfa -32 + ^ .ra: .cfa -40 + ^ x29: .cfa -48 + ^
STACK CFI 117fc .cfa: sp 80 +
STACK CFI 1180c .cfa: sp 0 +
STACK CFI 11810 .cfa: x29 48 +
STACK CFI INIT 12684 f8 .cfa: sp 0 +
STACK CFI 12688 .cfa: sp 64 +
STACK CFI 12698 .cfa: x29 64 + x19: .cfa -8 + ^ x20: .cfa -16 + ^ x21: .cfa -24 + ^ x22: .cfa -32 + ^ x23: .cfa -48 + ^ .ra: .cfa -56 + ^ x29: .cfa -64 + ^
STACK CFI 126f4 .cfa: sp 64 +
STACK CFI 12704 .cfa: sp 0 +
STACK CFI 12708 .cfa: x29 64 +
STACK CFI 12724 .cfa: sp 64 +
STACK CFI 12734 .cfa: sp 0 +
STACK CFI 12738 .cfa: x29 64 +
STACK CFI 12768 .cfa: sp 64 +
STACK CFI 12778 .cfa: sp 0 +
STACK CFI INIT 1277c 8 .cfa: sp 0 +
STACK CFI INIT 12784 24 .cfa: sp 0 +
STACK CFI 12788 .cfa: sp 32 +
STACK CFI 12790 .cfa: x29 32 + x19: .cfa -16 + ^ .ra: .cfa -24 + ^ x29: .cfa -32 + ^
STACK CFI 1279c .cfa: sp 32 +
STACK CFI 127a4 .cfa: sp 0 +
STACK CFI INIT 127a8 4 .cfa: sp 0 +
STACK CFI INIT 127ac 8 .cfa: sp 0 +
STACK CFI INIT 127b4 4 .cfa: sp 0 +
STACK CFI INIT 127b8 8 .cfa: sp 0 +
STACK CFI INIT 12930 26c .cfa: sp 0 +
STACK CFI 12934 .cfa: sp 80 +
STACK CFI 12948 .cfa: x29 80 + x19: .cfa -8 + ^ x20: .cfa -16 + ^ x21: .cfa -24 + ^ x22: .cfa -32 + ^ x23: .cfa -40 + ^ x24: .cfa -48 + ^ x25: .cfa -64 + ^ .ra: .cfa -72 + ^ x29: .cfa -80 + ^
STACK CFI 12b84 .cfa: sp 80 +
STACK CFI 12b98 .cfa: sp 0 +
STACK CFI INIT 12b9c 4 .cfa: sp 0 +
STACK CFI INIT 12ba0 14 .cfa: sp 0 +
STACK CFI 12ba4 .cfa: sp 16 +
STACK CFI 12ba8 .cfa: x29 16 + .ra: .cfa -8 + ^ x29: .cfa -16 + ^
STACK CFI INIT 12bb4 14 .cfa: sp 0 +
STACK CFI 12bb8 .cfa: sp 16 +
STACK CFI 12bbc .cfa: x29 16 + .ra: .cfa -8 + ^ x29: .cfa -16 + ^
STACK CFI INIT 12bc8 c .cfa: sp 0 +
STACK CFI 12bcc .cfa: sp 16 +
STACK CFI 12bd0 .cfa: x29 16 + .ra: .cfa -8 + ^ x29: .cfa -16 + ^
STACK CFI INIT 12c24 30 .cfa: sp 0 +
STACK CFI 12c28 .cfa: sp 32 +
STACK CFI 12c30 .cfa: x29 32 + x19: .cfa -16 + ^ .ra: .cfa -24 + ^ x29: .cfa -32 + ^
STACK CFI 12c48 .cfa: sp 32 +
STACK CFI 12c50 .cfa: sp 0 +
STACK CFI INIT 12c54 c .cfa: sp 0 +
STACK CFI 12c58 .cfa: sp 16 +
STACK CFI 12c5c .cfa: x29 16 + .ra: .cfa -8 + ^ x29: .cfa -16 + ^
STACK CFI INIT 12c60 4 .cfa: sp 0 +
STACK CFI INIT 12c64 4 .cfa: sp 0 +
STACK CFI INIT 12c68 38 .cfa: sp 0 +
STACK CFI 12c6c .cfa: sp 32 +
STACK CFI 12c74 .cfa: x29 32 + x19: .cfa -16 + ^ .ra: .cfa -24 + ^ x29: .cfa -32 + ^
STACK CFI 12c94 .cfa: sp 32 +
STACK CFI 12c9c .cfa: sp 0 +
STACK CFI INIT 12ca0 18 .cfa: sp 0 +
STACK CFI INIT 12cb8 4 .cfa: sp 0 +
STACK CFI INIT 12cbc 4 .cfa: sp 0 +
STACK CFI INIT 12cc0 10 .cfa: sp 0 +
STACK CFI INIT 12cd0 1c .cfa: sp 0 +
STACK CFI INIT 12cec c .cfa: sp 0 +
STACK CFI INIT 12cf8 50 .cfa: sp 0 +
STACK CFI 12cfc .cfa: sp 32 +
STACK CFI 12d04 .cfa: x29 32 + x19: .cfa -16 + ^ .ra: .cfa -24 + ^ x29: .cfa -32 + ^
STACK CFI 12d1c .cfa: sp 32 +
STACK CFI 12d24 .cfa: sp 0 +
STACK CFI 12d28 .cfa: x29 32 +
STACK CFI 12d3c .cfa: sp 32 +
STACK CFI 12d44 .cfa: sp 0 +
STACK CFI INIT 12d48 168 .cfa: sp 0 +
STACK CFI 12d4c .cfa: sp 80 +
STACK CFI 12d60 .cfa: x29 80 + x19: .cfa -8 + ^ x20: .cfa -16 + ^ x21: .cfa -24 + ^ x22: .cfa -32 + ^ x23: .cfa -40 + ^ x24: .cfa -48 + ^ x25: .cfa -56 + ^ x26: .cfa -64 + ^ .ra: .cfa -72 + ^ x29: .cfa -80 + ^
STACK CFI 12e98 .cfa: sp 80 +
STACK CFI 12eac .cfa: sp 0 +
STACK CFI INIT 12eb0 1b0 .cfa: sp 0 +
STACK CFI INIT 13060 4 .cfa: sp 0 +
STACK CFI INIT 13064 14 .cfa: sp 0 +
STACK CFI INIT 130ec 128 .cfa: sp 0 +
STACK CFI 130f0 .cfa: sp 80 +
STACK CFI 13104 .cfa: x29 80 + x19: .cfa -8 + ^ x20: .cfa -16 + ^ x21: .cfa -24 + ^ x22: .cfa -32 + ^ x23: .cfa -40 + ^ x24: .cfa -48 + ^ x25: .cfa -64 + ^ .ra: .cfa -72 + ^ x29: .cfa -80 + ^
STACK CFI 131f4 .cfa: sp 80 +
STACK CFI 13208 .cfa: sp 0 +
STACK CFI 1320c .cfa: x29 80 +
STACK CFI INIT 13214 4 .cfa: sp 0 +
STACK CFI INIT 13218 14 .cfa: sp 0 +
STACK CFI INIT 1322c 4 .cfa: sp 0 +
STACK CFI INIT 13394 5c .cfa: sp 0 +
STACK CFI 13398 .cfa: sp 32 +
STACK CFI 133a0 .cfa: x29 32 + x19: .cfa -16 + ^ .ra: .cfa -24 + ^ x29: .cfa -32 + ^
STACK CFI 133e4 .cfa: sp 32 +
STACK CFI 133ec .cfa: sp 0 +
STACK CFI INIT 133f0 64 .cfa: sp 0 +
STACK CFI 133f4 .cfa: sp 32 +
STACK CFI 133fc .cfa: x29 32 + x19: .cfa -16 + ^ .ra: .cfa -24 + ^ x29: .cfa -32 + ^
STACK CFI 13448 .cfa: sp 32 +
STACK CFI 13450 .cfa: sp 0 +
STACK CFI INIT 13454 4 .cfa: sp 0 +
STACK CFI INIT 13458 4 .cfa: sp 0 +
STACK CFI INIT 1345c 34 .cfa: sp 0 +
STACK CFI 13460 .cfa: sp 32 +
STACK CFI 13468 .cfa: x29 32 + x19: .cfa -16 + ^ .ra: .cfa -24 + ^ x29: .cfa -32 + ^
STACK CFI 13484 .cfa: sp 32 +
STACK CFI 1348c .cfa: sp 0 +
STACK CFI INIT 13490 14 .cfa: sp 0 +
STACK CFI INIT 134a4 4 .cfa: sp 0 +
STACK CFI INIT 134a8 4 .cfa: sp 0 +
STACK CFI INIT 134ac 10 .cfa: sp 0 +
STACK CFI INIT 134bc 1c .cfa: sp 0 +
STACK CFI INIT 134d8 c .cfa: sp 0 +
STACK CFI INIT 134e4 24 .cfa: sp 0 +
STACK CFI 134e8 .cfa: sp 32 +
STACK CFI 134f0 .cfa: x29 32 + x19: .cfa -16 + ^ .ra: .cfa -24 + ^ x29: .cfa -32 + ^
STACK CFI 134fc .cfa: sp 32 +
STACK CFI 13504 .cfa: sp 0 +
STACK CFI INIT 13508 3c .cfa: sp 0 +
STACK CFI 1350c .cfa: sp 32 +
STACK CFI 13514 .cfa: x29 32 + x19: .cfa -16 + ^ .ra: .cfa -24 + ^ x29: .cfa -32 + ^
STACK CFI 13520 .cfa: sp 32 +
STACK CFI 13528 .cfa: sp 0 +
STACK CFI 1352c .cfa: x29 32 +
STACK CFI 13538 .cfa: sp 32 +
STACK CFI 13540 .cfa: sp 0 +
STACK CFI INIT 13544 4c .cfa: sp 0 +
STACK CFI 13548 .cfa: sp 32 +
STACK CFI 13550 .cfa: x29 32 + x19: .cfa -8 + ^ x20: .cfa -16 + ^ .ra: .cfa -24 + ^ x29: .cfa -32 + ^
STACK CFI 13578 .cfa: sp 32 +
STACK CFI 13580 .cfa: sp 0 +
STACK CFI 13584 .cfa: sp 32 +
STACK CFI 1358c .cfa: sp 0 +
STACK CFI INIT 137b0 64 .cfa: sp 0 +
STACK CFI 137b4 .cfa: sp 32 +
STACK CFI 137bc .cfa: x29 32 + x19: .cfa -16 + ^ .ra: .cfa -24 + ^ x29: .cfa -32 + ^
STACK CFI 137e8 .cfa: sp 32 +
STACK CFI 137f0 .cfa: sp 0 +
STACK CFI 137f4 .cfa: x29 32 +
STACK CFI 13808 .cfa: sp 32 +
STACK CFI 13810 .cfa: sp 0 +
STACK CFI INIT 13814 24 .cfa: sp 0 +
STACK CFI 13818 .cfa: sp 32 +
STACK CFI 13820 .cfa: x29 32 + x19: .cfa -16 + ^ .ra: .cfa -24 + ^ x29: .cfa -32 + ^
STACK CFI 1382c .cfa: sp 32 +
STACK CFI 13834 .cfa: sp 0 +
STACK CFI INIT 13838 24 .cfa: sp 0 +
STACK CFI 1383c .cfa: sp 32 +
STACK CFI 13844 .cfa: x29 32 + x19: .cfa -16 + ^ .ra: .cfa -24 + ^ x29: .cfa -32 + ^
STACK CFI 13850 .cfa: sp 32 +
STACK CFI 13858 .cfa: sp 0 +
STACK CFI INIT 13ac8 24 .cfa: sp 0 +
STACK CFI 13acc .cfa: sp 32 +
STACK CFI 13ad4 .cfa: x29 32 + x19: .cfa -16 + ^ .ra: .cfa -24 + ^ x29: .cfa -32 + ^
STACK CFI 13ae0 .cfa: sp 32 +
STACK CFI 13ae8 .cfa: sp 0 +
STACK CFI INIT 13da4 4 .cfa: sp 0 +
STACK CFI INIT 147f8 4 .cfa: sp 0 +
STACK CFI INIT 147fc 14 .cfa: sp 0 +
STACK CFI INIT 14d1c c .cfa: sp 0 +
STACK CFI INIT 14d28 24c .cfa: sp 0 +
STACK CFI INIT 14f74 a0 .cfa: sp 0 +
STACK CFI 14f80 .cfa: sp 32 +
STACK CFI 14fd8 .cfa: sp 0 +
STACK CFI 14fdc .cfa: sp 32 +
STACK CFI 14fe4 .cfa: sp 0 +
STACK CFI 14fe8 .cfa: sp 32 +
STACK CFI 14ffc .cfa: sp 0 +
STACK CFI 15000 .cfa: sp 32 +
STACK CFI 15010 .cfa: sp 0 +
STACK CFI INIT 15014 38 .cfa: sp 0 +
STACK CFI 15020 .cfa: sp 32 +
STACK CFI 15048 .cfa: sp 0 +
STACK CFI INIT 152e0 7c .cfa: sp 0 +
STACK CFI 152e4 .cfa: sp 32 +
STACK CFI 152ec .cfa: x29 32 + x19: .cfa -16 + ^ .ra: .cfa -24 + ^ x29: .cfa -32 + ^
STACK CFI 15318 .cfa: sp 32 +
STACK CFI 15320 .cfa: sp 0 +
STACK CFI 15324 .cfa: x29 32 +
STACK CFI 15350 .cfa: sp 32 +
STACK CFI 15358 .cfa: sp 0 +
STACK CFI INIT 153ac 2c .cfa: sp 0 +
STACK CFI 153b0 .cfa: sp 32 +
STACK CFI 153b8 .cfa: x29 32 + x19: .cfa -16 + ^ .ra: .cfa -24 + ^ x29: .cfa -32 + ^
STACK CFI 153cc .cfa: sp 32 +
STACK CFI 153d4 .cfa: sp 0 +
STACK CFI INIT 15b98 64 .cfa: sp 0 +
STACK CFI 15b9c .cfa: sp 32 +
STACK CFI 15ba4 .cfa: x29 32 + x19: .cfa -16 + ^ .ra: .cfa -24 + ^ x29: .cfa -32 + ^
STACK CFI 15bc0 .cfa: sp 32 +
STACK CFI 15bc8 .cfa: sp 0 +
STACK CFI 15bcc .cfa: x29 32 +
STACK CFI 15bf0 .cfa: sp 32 +
STACK CFI 15bf8 .cfa: sp 0 +
STACK CFI INIT 15bfc 570 .cfa: sp 0 +
STACK CFI 15c00 .cfa: sp 176 +
STACK CFI 15c14 .cfa: x29 64 + x19: .cfa -8 + ^ x20: .cfa -16 + ^ x21: .cfa -24 + ^ x22: .cfa -32 + ^ x23: .cfa -40 + ^ x24: .cfa -48 + ^ .ra: .cfa -56 + ^ x29: .cfa -64 + ^
STACK CFI 15e44 .cfa: sp 176 +
STACK CFI 15e58 .cfa: sp 0 +
STACK CFI 15e5c .cfa: x29 64 +
STACK CFI 15ea8 .cfa: sp 176 +
STACK CFI 15ebc .cfa: sp 0 +
STACK CFI 15ec0 .cfa: x29 64 +
STACK CFI 15ef8 .cfa: sp 176 +
STACK CFI 15f0c .cfa: sp 0 +
STACK CFI 15f10 .cfa: x29 64 +
STACK CFI 15f28 .cfa: sp 176 +
STACK CFI 15f3c .cfa: sp 0 +
STACK CFI 15f40 .cfa: x29 64 +
STACK CFI 15f60 .cfa: sp 176 +
STACK CFI 15f74 .cfa: sp 0 +
STACK CFI 15f78 .cfa: x29 64 +
STACK CFI 15f90 .cfa: sp 176 +
STACK CFI 15fa4 .cfa: sp 0 +
STACK CFI 15fa8 .cfa: x29 64 +
STACK CFI 15fbc .cfa: sp 176 +
STACK CFI 15fd0 .cfa: sp 0 +
STACK CFI 15fd4 .cfa: x29 64 +
STACK CFI 15fe8 .cfa: sp 176 +
STACK CFI 15ffc .cfa: sp 0 +
STACK CFI 16000 .cfa: x29 64 +
STACK CFI 16010 .cfa: sp 176 +
STACK CFI 16024 .cfa: sp 0 +
STACK CFI 16028 .cfa: x29 64 +
STACK CFI 16038 .cfa: sp 176 +
STACK CFI 1604c .cfa: sp 0 +
STACK CFI 16050 .cfa: x29 64 +
STACK CFI 16068 .cfa: sp 176 +
STACK CFI 1607c .cfa: sp 0 +
STACK CFI 16080 .cfa: x29 64 +
STACK CFI 16094 .cfa: sp 176 +
STACK CFI 160a8 .cfa: sp 0 +
STACK CFI 160ac .cfa: x29 64 +
STACK CFI 160c4 .cfa: sp 176 +
STACK CFI 160d8 .cfa: sp 0 +
STACK CFI 160dc .cfa: x29 64 +
STACK CFI 16108 .cfa: sp 176 +
STACK CFI 1611c .cfa: sp 0 +
STACK CFI 16120 .cfa: x29 64 +
STACK CFI 16134 .cfa: sp 176 +
STACK CFI 16148 .cfa: sp 0 +
STACK CFI 1614c .cfa: x29 64 +
STACK CFI INIT 1616c 228 .cfa: sp 0 +
STACK CFI INIT 16394 2dc .cfa: sp 0 +
STACK CFI INIT 16670 53c .cfa: sp 0 +
STACK CFI INIT 16bac 78 .cfa: sp 0 +
STACK CFI 16bb0 .cfa: sp 48 +
STACK CFI 16bbc .cfa: x29 48 + x19: .cfa -8 + ^ x20: .cfa -16 + ^ x21: .cfa -24 + ^ x22: .cfa -32 + ^ .ra: .cfa -40 + ^ x29: .cfa -48 + ^
STACK CFI 16c04 .cfa: sp 48 +
STACK CFI 16c10 .cfa: sp 0 +
STACK CFI 16c14 .cfa: sp 48 +
STACK CFI 16c20 .cfa: sp 0 +
STACK CFI INIT 16c24 8c .cfa: sp 0 +
STACK CFI 16c28 .cfa: sp 32 +
STACK CFI 16c30 .cfa: x29 32 + x19: .cfa -16 + ^ .ra: .cfa -24 + ^ x29: .cfa -32 + ^
STACK CFI 16c64 .cfa: sp 32 +
STACK CFI 16c6c .cfa: sp 0 +
STACK CFI 16c70 .cfa: x29 32 +
STACK CFI 16ca4 .cfa: sp 32 +
STACK CFI 16cac .cfa: sp 0 +
STACK CFI INIT 16cb0 24 .cfa: sp 0 +
STACK CFI 16cb4 .cfa: sp 32 +
STACK CFI 16cbc .cfa: x29 32 + x19: .cfa -16 + ^ .ra: .cfa -24 + ^ x29: .cfa -32 + ^
STACK CFI 16cc8 .cfa: sp 32 +
STACK CFI 16cd0 .cfa: sp 0 +
STACK CFI INIT 16cd4 150 .cfa: sp 0 +
STACK CFI 16cd8 .cfa: sp 48 +
STACK CFI 16ce4 .cfa: x29 48 + x19: .cfa -8 + ^ x20: .cfa -16 + ^ x21: .cfa -24 + ^ x22: .cfa -32 + ^ .ra: .cfa -40 + ^ x29: .cfa -48 + ^
STACK CFI 16e14 .cfa: sp 48 +
STACK CFI 16e20 .cfa: sp 0 +
STACK CFI INIT 16e24 68 .cfa: sp 0 +
STACK CFI 16e28 .cfa: sp 64 +
STACK CFI 16e34 .cfa: x29 32 + x19: .cfa -16 + ^ .ra: .cfa -24 + ^ x29: .cfa -32 + ^
STACK CFI 16e78 .cfa: sp 64 +
STACK CFI 16e84 .cfa: sp 0 +
STACK CFI 16e88 .cfa: x29 32 +
STACK CFI INIT 16e8c 90 .cfa: sp 0 +
STACK CFI 16e90 .cfa: sp 32 +
STACK CFI 16e98 .cfa: x29 32 + x19: .cfa -8 + ^ x20: .cfa -16 + ^ .ra: .cfa -24 + ^ x29: .cfa -32 + ^
STACK CFI 16ec4 .cfa: sp 32 +
STACK CFI 16ecc .cfa: sp 0 +
STACK CFI 16ed0 .cfa: x29 32 +
STACK CFI 16f10 .cfa: sp 32 +
STACK CFI 16f18 .cfa: sp 0 +
STACK CFI INIT 16f1c ec .cfa: sp 0 +
STACK CFI 16f20 .cfa: sp 112 +
STACK CFI 16f30 .cfa: x29 48 + x19: .cfa -8 + ^ x20: .cfa -16 + ^ x21: .cfa -32 + ^ .ra: .cfa -40 + ^ x29: .cfa -48 + ^
STACK CFI 16ff0 .cfa: sp 112 +
STACK CFI 17000 .cfa: sp 0 +
STACK CFI 17004 .cfa: x29 48 +
STACK CFI INIT 17008 ec .cfa: sp 0 +
STACK CFI 1700c .cfa: sp 112 +
STACK CFI 1701c .cfa: x29 48 + x19: .cfa -8 + ^ x20: .cfa -16 + ^ x21: .cfa -32 + ^ .ra: .cfa -40 + ^ x29: .cfa -48 + ^
STACK CFI 170dc .cfa: sp 112 +
STACK CFI 170ec .cfa: sp 0 +
STACK CFI 170f0 .cfa: x29 48 +
STACK CFI INIT 170f4 48 .cfa: sp 0 +
STACK CFI 170f8 .cfa: sp 32 +
STACK CFI 17100 .cfa: x29 32 + x19: .cfa -8 + ^ x20: .cfa -16 + ^ .ra: .cfa -24 + ^ x29: .cfa -32 + ^
STACK CFI 17124 .cfa: sp 32 +
STACK CFI 1712c .cfa: sp 0 +
STACK CFI 17130 .cfa: x29 32 +
STACK CFI INIT 1713c 98 .cfa: sp 0 +
STACK CFI 17140 .cfa: sp 80 +
STACK CFI 1714c .cfa: x29 32 + x19: .cfa -16 + ^ .ra: .cfa -24 + ^ x29: .cfa -32 + ^
STACK CFI 171c0 .cfa: sp 80 +
STACK CFI 171cc .cfa: sp 0 +
STACK CFI 171d0 .cfa: x29 32 +
STACK CFI INIT 171d4 260 .cfa: sp 0 +
STACK CFI 171d8 .cfa: sp 112 +
STACK CFI 171f0 .cfa: x29 80 + x19: .cfa -8 + ^ x20: .cfa -16 + ^ x21: .cfa -24 + ^ x22: .cfa -32 + ^ x23: .cfa -40 + ^ x24: .cfa -48 + ^ x25: .cfa -64 + ^ .ra: .cfa -72 + ^ x29: .cfa -80 + ^
STACK CFI 173d4 .cfa: sp 112 +
STACK CFI 173ec .cfa: sp 0 +
STACK CFI 173f0 .cfa: x29 80 +
STACK CFI INIT 17434 150 .cfa: sp 0 +
STACK CFI 17438 .cfa: sp 48 +
STACK CFI 17444 .cfa: x29 48 + x19: .cfa -8 + ^ x20: .cfa -16 + ^ x21: .cfa -24 + ^ x22: .cfa -32 + ^ .ra: .cfa -40 + ^ x29: .cfa -48 + ^
STACK CFI 17574 .cfa: sp 48 +
STACK CFI 17580 .cfa: sp 0 +
STACK CFI INIT 17584 1e0 .cfa: sp 0 +
STACK CFI 17588 .cfa: sp 96 +
STACK CFI 1759c .cfa: x29 64 + x19: .cfa -8 + ^ x20: .cfa -16 + ^ x21: .cfa -24 + ^ x22: .cfa -32 + ^ x23: .cfa -40 + ^ x24: .cfa -48 + ^ .ra: .cfa -56 + ^ x29: .cfa -64 + ^
STACK CFI 1771c .cfa: sp 96 +
STACK CFI 17730 .cfa: sp 0 +
STACK CFI 17734 .cfa: x29 64 +
STACK CFI INIT 17764 284 .cfa: sp 0 +
STACK CFI 17768 .cfa: sp 112 +
STACK CFI 17780 .cfa: x29 80 + x19: .cfa -8 + ^ x20: .cfa -16 + ^ x21: .cfa -24 + ^ x22: .cfa -32 + ^ x23: .cfa -40 + ^ x24: .cfa -48 + ^ x25: .cfa -64 + ^ .ra: .cfa -72 + ^ x29: .cfa -80 + ^
STACK CFI 17988 .cfa: sp 112 +
STACK CFI 179a0 .cfa: sp 0 +
STACK CFI 179a4 .cfa: x29 80 +
STACK CFI INIT 179e8 208 .cfa: sp 0 +
STACK CFI 179ec .cfa: sp 96 +
STACK CFI 17a00 .cfa: x29 64 + x19: .cfa -8 + ^ x20: .cfa -16 + ^ x21: .cfa -24 + ^ x22: .cfa -32 + ^ x23: .cfa -40 + ^ x24: .cfa -48 + ^ .ra: .cfa -56 + ^ x29: .cfa -64 + ^
STACK CFI 17ba8 .cfa: sp 96 +
STACK CFI 17bbc .cfa: sp 0 +
STACK CFI 17bc0 .cfa: x29 64 +
STACK CFI INIT 17bf0 360 .cfa: sp 0 +
STACK CFI 17bf4 .cfa: sp 160 +
STACK CFI 17c10 .cfa: x29 96 + x19: .cfa -8 + ^ x20: .cfa -16 + ^ x21: .cfa -24 + ^ x22: .cfa -32 + ^ x23: .cfa -40 + ^ x24: .cfa -48 + ^ x25: .cfa -56 + ^ x26: .cfa -64 + ^ x27: .cfa -72 + ^ x28: .cfa -80 + ^ .ra: .cfa -88 + ^ x29: .cfa -96 + ^
STACK CFI 17edc .cfa: sp 160 +
STACK CFI 17ef8 .cfa: sp 0 +
STACK CFI 17efc .cfa: x29 96 +
STACK CFI INIT 17f50 314 .cfa: sp 0 +
STACK CFI 17f54 .cfa: sp 144 +
STACK CFI 17f70 .cfa: x29 96 + x19: .cfa -8 + ^ x20: .cfa -16 + ^ x21: .cfa -24 + ^ x22: .cfa -32 + ^ x23: .cfa -40 + ^ x24: .cfa -48 + ^ x25: .cfa -56 + ^ x26: .cfa -64 + ^ x27: .cfa -72 + ^ x28: .cfa -80 + ^ .ra: .cfa -88 + ^ x29: .cfa -96 + ^
STACK CFI 181ec .cfa: sp 144 +
STACK CFI 18208 .cfa: sp 0 +
STACK CFI 1820c .cfa: x29 96 +
STACK CFI INIT 18264 290 .cfa: sp 0 +
STACK CFI 18268 .cfa: sp 128 +
STACK CFI 18280 .cfa: x29 80 + x19: .cfa -8 + ^ x20: .cfa -16 + ^ x21: .cfa -24 + ^ x22: .cfa -32 + ^ x23: .cfa -40 + ^ x24: .cfa -48 + ^ x25: .cfa -56 + ^ x26: .cfa -64 + ^ .ra: .cfa -72 + ^ x29: .cfa -80 + ^
STACK CFI 184d4 .cfa: sp 128 +
STACK CFI 184ec .cfa: sp 0 +
STACK CFI 184f0 .cfa: x29 80 +
STACK CFI INIT 184f4 ddc .cfa: sp 0 +
STACK CFI 184f8 .cfa: sp 144 +
STACK CFI 18514 .cfa: x29 96 + x19: .cfa -8 + ^ x20: .cfa -16 + ^ x21: .cfa -24 + ^ x22: .cfa -32 + ^ x23: .cfa -40 + ^ x24: .cfa -48 + ^ x25: .cfa -56 + ^ x26: .cfa -64 + ^ x27: .cfa -72 + ^ x28: .cfa -80 + ^ .ra: .cfa -88 + ^ x29: .cfa -96 + ^
STACK CFI 191a8 .cfa: sp 144 +
STACK CFI 191c4 .cfa: sp 0 +
STACK CFI 191c8 .cfa: x29 96 +
STACK CFI INIT 192d0 1d0 .cfa: sp 0 +
STACK CFI 192d4 .cfa: sp 80 +
STACK CFI 192e8 .cfa: x29 80 + x19: .cfa -8 + ^ x20: .cfa -16 + ^ x21: .cfa -24 + ^ x22: .cfa -32 + ^ x23: .cfa -40 + ^ x24: .cfa -48 + ^ x25: .cfa -64 + ^ .ra: .cfa -72 + ^ x29: .cfa -80 + ^
STACK CFI 19488 .cfa: sp 80 +
STACK CFI 1949c .cfa: sp 0 +
STACK CFI INIT 194a0 23c .cfa: sp 0 +
STACK CFI 194a4 .cfa: sp 112 +
STACK CFI 194b8 .cfa: x29 64 + x19: .cfa -8 + ^ x20: .cfa -16 + ^ x21: .cfa -24 + ^ x22: .cfa -32 + ^ x23: .cfa -40 + ^ x24: .cfa -48 + ^ .ra: .cfa -56 + ^ x29: .cfa -64 + ^
STACK CFI 19694 .cfa: sp 112 +
STACK CFI 196a8 .cfa: sp 0 +
STACK CFI 196ac .cfa: x29 64 +
STACK CFI INIT 196dc 30c .cfa: sp 0 +
STACK CFI 196e0 .cfa: sp 80 +
STACK CFI 196f4 .cfa: x29 64 + x19: .cfa -8 + ^ x20: .cfa -16 + ^ x21: .cfa -24 + ^ x22: .cfa -32 + ^ x23: .cfa -40 + ^ x24: .cfa -48 + ^ .ra: .cfa -56 + ^ x29: .cfa -64 + ^
STACK CFI 19870 .cfa: sp 80 +
STACK CFI 19884 .cfa: sp 0 +
STACK CFI 19888 .cfa: x29 64 +
STACK CFI INIT 199e8 178 .cfa: sp 0 +
STACK CFI 199ec .cfa: sp 80 +
STACK CFI 19a00 .cfa: x29 64 + x19: .cfa -8 + ^ x20: .cfa -16 + ^ x21: .cfa -24 + ^ x22: .cfa -32 + ^ x23: .cfa -40 + ^ x24: .cfa -48 + ^ .ra: .cfa -56 + ^ x29: .cfa -64 + ^
STACK CFI 19b44 .cfa: sp 80 +
STACK CFI 19b58 .cfa: sp 0 +
STACK CFI 19b5c .cfa: x29 64 +
STACK CFI INIT 19b60 178 .cfa: sp 0 +
STACK CFI 19b64 .cfa: sp 80 +
STACK CFI 19b78 .cfa: x29 64 + x19: .cfa -8 + ^ x20: .cfa -16 + ^ x21: .cfa -24 + ^ x22: .cfa -32 + ^ x23: .cfa -40 + ^ x24: .cfa -48 + ^ .ra: .cfa -56 + ^ x29: .cfa -64 + ^
STACK CFI 19cbc .cfa: sp 80 +
STACK CFI 19cd0 .cfa: sp 0 +
STACK CFI 19cd4 .cfa: x29 64 +
STACK CFI INIT 19cd8 240 .cfa: sp 0 +
STACK CFI 19cdc .cfa: sp 96 +
STACK CFI 19cf4 .cfa: x29 96 + x19: .cfa -8 + ^ x20: .cfa -16 + ^ x21: .cfa -24 + ^ x22: .cfa -32 + ^ x23: .cfa -40 + ^ x24: .cfa -48 + ^ x25: .cfa -56 + ^ x26: .cfa -64 + ^ x27: .cfa -72 + ^ x28: .cfa -80 + ^ .ra: .cfa -88 + ^ x29: .cfa -96 + ^
STACK CFI 19efc .cfa: sp 96 +
STACK CFI 19f14 .cfa: sp 0 +
STACK CFI INIT 1ab8c 154 .cfa: sp 0 +
STACK CFI 1ab90 .cfa: sp 96 +
STACK CFI 1aba4 .cfa: x29 64 + x19: .cfa -8 + ^ x20: .cfa -16 + ^ x21: .cfa -24 + ^ x22: .cfa -32 + ^ x23: .cfa -48 + ^ .ra: .cfa -56 + ^ x29: .cfa -64 + ^
STACK CFI 1ac84 .cfa: sp 96 +
STACK CFI 1ac98 .cfa: sp 0 +
STACK CFI 1ac9c .cfa: x29 64 +
STACK CFI INIT 1af4c 44 .cfa: sp 0 +
STACK CFI 1af50 .cfa: sp 32 +
STACK CFI 1af58 .cfa: x29 32 + x19: .cfa -16 + ^ .ra: .cfa -24 + ^ x29: .cfa -32 + ^
STACK CFI 1af74 .cfa: sp 32 +
STACK CFI 1af7c .cfa: sp 0 +
STACK CFI 1af80 .cfa: x29 32 +
STACK CFI 1af84 .cfa: sp 32 +
STACK CFI 1af8c .cfa: sp 0 +
STACK CFI INIT 1af90 1d0 .cfa: sp 0 +
STACK CFI 1af94 .cfa: sp 64 +
STACK CFI 1afa4 .cfa: x29 64 + x19: .cfa -8 + ^ x20: .cfa -16 + ^ x21: .cfa -24 + ^ x22: .cfa -32 + ^ x23: .cfa -40 + ^ x24: .cfa -48 + ^ .ra: .cfa -56 + ^ x29: .cfa -64 + ^
STACK CFI 1b064 .cfa: sp 64 +
STACK CFI 1b074 .cfa: sp 0 +
STACK CFI 1b078 .cfa: x29 64 +
STACK CFI INIT 1b160 17c .cfa: sp 0 +
STACK CFI INIT 1b2dc ac .cfa: sp 0 +
STACK CFI 1b2e0 .cfa: sp 64 +
STACK CFI 1b2f0 .cfa: x29 64 + x19: .cfa -8 + ^ x20: .cfa -16 + ^ x21: .cfa -24 + ^ x22: .cfa -32 + ^ x23: .cfa -48 + ^ .ra: .cfa -56 + ^ x29: .cfa -64 + ^
STACK CFI 1b36c .cfa: sp 64 +
STACK CFI 1b37c .cfa: sp 0 +
STACK CFI 1b380 .cfa: x29 64 +
STACK CFI INIT 1b388 110 .cfa: sp 0 +
STACK CFI 1b38c .cfa: sp 64 +
STACK CFI 1b39c .cfa: x29 64 + x19: .cfa -8 + ^ x20: .cfa -16 + ^ x21: .cfa -24 + ^ x22: .cfa -32 + ^ x23: .cfa -40 + ^ x24: .cfa -48 + ^ .ra: .cfa -56 + ^ x29: .cfa -64 + ^
STACK CFI 1b47c .cfa: sp 64 +
STACK CFI 1b48c .cfa: sp 0 +
STACK CFI 1b490 .cfa: x29 64 +
STACK CFI INIT 1b850 a0 .cfa: sp 0 +
STACK CFI 1b854 .cfa: sp 48 +
STACK CFI 1b860 .cfa: x29 48 + x19: .cfa -8 + ^ x20: .cfa -16 + ^ x21: .cfa -24 + ^ x22: .cfa -32 + ^ .ra: .cfa -40 + ^ x29: .cfa -48 + ^
STACK CFI 1b8cc .cfa: sp 48 +
STACK CFI 1b8d8 .cfa: sp 0 +
STACK CFI 1b8dc .cfa: sp 48 +
STACK CFI 1b8e8 .cfa: sp 0 +
STACK CFI 1b8ec .cfa: x29 48 +
STACK CFI INIT 1c5a4 158 .cfa: sp 0 +
STACK CFI 1c5a8 .cfa: sp 96 +
STACK CFI 1c5bc .cfa: x29 64 + x19: .cfa -8 + ^ x20: .cfa -16 + ^ x21: .cfa -24 + ^ x22: .cfa -32 + ^ x23: .cfa -48 + ^ .ra: .cfa -56 + ^ x29: .cfa -64 + ^
STACK CFI 1c6a0 .cfa: sp 96 +
STACK CFI 1c6b4 .cfa: sp 0 +
STACK CFI 1c6b8 .cfa: x29 64 +
STACK CFI INIT 1c6fc 190 .cfa: sp 0 +
STACK CFI INIT 1d388 1dc .cfa: sp 0 +
STACK CFI 1d38c .cfa: sp 80 +
STACK CFI 1d3a0 .cfa: x29 80 + x19: .cfa -8 + ^ x20: .cfa -16 + ^ x21: .cfa -24 + ^ x22: .cfa -32 + ^ x23: .cfa -40 + ^ x24: .cfa -48 + ^ x25: .cfa -64 + ^ .ra: .cfa -72 + ^ x29: .cfa -80 + ^
STACK CFI 1d54c .cfa: sp 80 +
STACK CFI 1d560 .cfa: sp 0 +
STACK CFI INIT 1e994 124 .cfa: sp 0 +
STACK CFI 1e9c4 .cfa: sp 32 +
STACK CFI 1e9cc .cfa: x29 32 + x19: .cfa -8 + ^ x20: .cfa -16 + ^ .ra: .cfa -24 + ^ x29: .cfa -32 + ^
STACK CFI 1eaac .cfa: sp 32 +
STACK CFI 1eab4 .cfa: sp 0 +
STACK CFI INIT 1f214 320 .cfa: sp 0 +
STACK CFI 1f218 .cfa: sp 64 +
STACK CFI 1f228 .cfa: x29 64 + x19: .cfa -8 + ^ x20: .cfa -16 + ^ x21: .cfa -24 + ^ x22: .cfa -32 + ^ x23: .cfa -40 + ^ x24: .cfa -48 + ^ .ra: .cfa -56 + ^ x29: .cfa -64 + ^
STACK CFI 1f2a4 .cfa: sp 64 +
STACK CFI 1f2b4 .cfa: sp 0 +
STACK CFI 1f2b8 .cfa: x29 64 +
STACK CFI 1f48c .cfa: sp 64 +
STACK CFI 1f49c .cfa: sp 0 +
STACK CFI 1f4a0 .cfa: x29 64 +
STACK CFI 1f4b0 .cfa: sp 64 +
STACK CFI 1f4c0 .cfa: sp 0 +
STACK CFI 1f4c4 .cfa: x29 64 +
STACK CFI INIT 1f534 a0 .cfa: sp 0 +
STACK CFI 1f538 .cfa: sp 48 +
STACK CFI 1f544 .cfa: x29 48 + x19: .cfa -8 + ^ x20: .cfa -16 + ^ x21: .cfa -24 + ^ x22: .cfa -32 + ^ .ra: .cfa -40 + ^ x29: .cfa -48 + ^
STACK CFI 1f5b0 .cfa: sp 48 +
STACK CFI 1f5bc .cfa: sp 0 +
STACK CFI 1f5c0 .cfa: sp 48 +
STACK CFI 1f5cc .cfa: sp 0 +
STACK CFI 1f5d0 .cfa: x29 48 +
STACK CFI INIT 20484 160 .cfa: sp 0 +
STACK CFI 20488 .cfa: sp 64 +
STACK CFI 20498 .cfa: x29 64 + x19: .cfa -8 + ^ x20: .cfa -16 + ^ x21: .cfa -24 + ^ x22: .cfa -32 + ^ x23: .cfa -48 + ^ .ra: .cfa -56 + ^ x29: .cfa -64 + ^
STACK CFI 20590 .cfa: sp 64 +
STACK CFI 205a0 .cfa: sp 0 +
STACK CFI 205a4 .cfa: x29 64 +
STACK CFI INIT 205e4 214 .cfa: sp 0 +
STACK CFI 205e8 .cfa: sp 128 +
STACK CFI 20604 .cfa: x29 96 + x19: .cfa -8 + ^ x20: .cfa -16 + ^ x21: .cfa -24 + ^ x22: .cfa -32 + ^ x23: .cfa -40 + ^ x24: .cfa -48 + ^ x25: .cfa -56 + ^ x26: .cfa -64 + ^ x27: .cfa -80 + ^ .ra: .cfa -88 + ^ x29: .cfa -96 + ^
STACK CFI 20780 .cfa: sp 128 +
STACK CFI 2079c .cfa: sp 0 +
STACK CFI 207a0 .cfa: x29 96 +
STACK CFI INIT 22494 290 .cfa: sp 0 +
STACK CFI 22498 .cfa: sp 16 +
STACK CFI 2249c .cfa: x29 16 + .ra: .cfa -8 + ^ x29: .cfa -16 + ^
STACK CFI 22528 .cfa: sp 16 +
STACK CFI 2252c .cfa: sp 0 +
STACK CFI 22530 .cfa: x29 16 +
STACK CFI 22580 .cfa: sp 16 +
STACK CFI 22584 .cfa: sp 0 +
STACK CFI 22588 .cfa: x29 16 +
STACK CFI 226ec .cfa: sp 16 +
STACK CFI 226f0 .cfa: sp 0 +
STACK CFI 226f4 .cfa: x29 16 +
STACK CFI INIT 22724 158 .cfa: sp 0 +
STACK CFI 22728 .cfa: sp 112 +
STACK CFI 22744 .cfa: x29 96 + x19: .cfa -8 + ^ x20: .cfa -16 + ^ x21: .cfa -24 + ^ x22: .cfa -32 + ^ x23: .cfa -40 + ^ x24: .cfa -48 + ^ x25: .cfa -56 + ^ x26: .cfa -64 + ^ x27: .cfa -72 + ^ x28: .cfa -80 + ^ .ra: .cfa -88 + ^ x29: .cfa -96 + ^
STACK CFI 2282c .cfa: sp 112 +
STACK CFI 22830 .cfa: x29 96 +
STACK CFI 22838 .cfa: sp 112 +
STACK CFI 22854 .cfa: sp 0 +
STACK CFI 22858 .cfa: x29 96 +
STACK CFI 22878 .cfa: sp 112 +
STACK CFI INIT 2287c e54 .cfa: sp 0 +
STACK CFI 22880 .cfa: sp 192 +
STACK CFI 2289c .cfa: x29 96 + x19: .cfa -8 + ^ x20: .cfa -16 + ^ x21: .cfa -24 + ^ x22: .cfa -32 + ^ x23: .cfa -40 + ^ x24: .cfa -48 + ^ x25: .cfa -56 + ^ x26: .cfa -64 + ^ x27: .cfa -72 + ^ x28: .cfa -80 + ^ .ra: .cfa -88 + ^ x29: .cfa -96 + ^
STACK CFI 235b8 .cfa: sp 192 +
STACK CFI 235d4 .cfa: sp 0 +
STACK CFI 235d8 .cfa: x29 96 +
STACK CFI INIT 236d0 1068 .cfa: sp 0 +
STACK CFI 236d4 .cfa: sp 288 +
STACK CFI 236f0 .cfa: x29 96 + x19: .cfa -8 + ^ x20: .cfa -16 + ^ x21: .cfa -24 + ^ x22: .cfa -32 + ^ x23: .cfa -40 + ^ x24: .cfa -48 + ^ x25: .cfa -56 + ^ x26: .cfa -64 + ^ x27: .cfa -72 + ^ x28: .cfa -80 + ^ .ra: .cfa -88 + ^ x29: .cfa -96 + ^
STACK CFI 24480 .cfa: sp 288 +
STACK CFI 2449c .cfa: sp 0 +
STACK CFI 244a0 .cfa: x29 96 +
STACK CFI INIT 24738 520 .cfa: sp 0 +
STACK CFI 2473c .cfa: sp 144 +
STACK CFI 24758 .cfa: x29 96 + x19: .cfa -8 + ^ x20: .cfa -16 + ^ x21: .cfa -24 + ^ x22: .cfa -32 + ^ x23: .cfa -40 + ^ x24: .cfa -48 + ^ x25: .cfa -56 + ^ x26: .cfa -64 + ^ x27: .cfa -72 + ^ x28: .cfa -80 + ^ .ra: .cfa -88 + ^ x29: .cfa -96 + ^
STACK CFI 24c34 .cfa: sp 144 +
STACK CFI 24c50 .cfa: sp 0 +
STACK CFI 24c54 .cfa: x29 96 +
STACK CFI INIT 255f8 136c .cfa: sp 0 +
STACK CFI 255fc .cfa: sp 224 +
STACK CFI 25618 .cfa: x29 96 + x19: .cfa -8 + ^ x20: .cfa -16 + ^ x21: .cfa -24 + ^ x22: .cfa -32 + ^ x23: .cfa -40 + ^ x24: .cfa -48 + ^ x25: .cfa -56 + ^ x26: .cfa -64 + ^ x27: .cfa -72 + ^ x28: .cfa -80 + ^ .ra: .cfa -88 + ^ x29: .cfa -96 + ^
STACK CFI 26940 .cfa: sp 224 +
STACK CFI 2695c .cfa: sp 0 +
STACK CFI 26960 .cfa: x29 96 +
STACK CFI INIT 26964 1b8 .cfa: sp 0 +
STACK CFI INIT e470 4b0 .cfa: sp 0 +
STACK CFI e474 .cfa: sp 176 +
STACK CFI e488 .cfa: x29 64 + x19: .cfa -8 + ^ x20: .cfa -16 + ^ x21: .cfa -24 + ^ x22: .cfa -32 + ^ x23: .cfa -40 + ^ x24: .cfa -48 + ^ .ra: .cfa -56 + ^ x29: .cfa -64 + ^
STACK CFI e82c .cfa: sp 176 +
STACK CFI e840 .cfa: sp 0 +
STACK CFI e844 .cfa: x29 64 +
STACK CFI INIT e920 ba0 .cfa: sp 0 +
STACK CFI e924 .cfa: sp 240 +
STACK CFI e940 .cfa: x29 96 + x19: .cfa -8 + ^ x20: .cfa -16 + ^ x21: .cfa -24 + ^ x22: .cfa -32 + ^ x23: .cfa -40 + ^ x24: .cfa -48 + ^ x25: .cfa -56 + ^ x26: .cfa -64 + ^ x27: .cfa -72 + ^ x28: .cfa -80 + ^ .ra: .cfa -88 + ^ x29: .cfa -96 + ^
STACK CFI f368 .cfa: sp 240 +
STACK CFI f384 .cfa: sp 0 +
STACK CFI f388 .cfa: x29 96 +
STACK CFI INIT f604 8c0 .cfa: sp 0 +
STACK CFI f608 .cfa: sp 304 +
STACK CFI f624 .cfa: x29 96 + x19: .cfa -8 + ^ x20: .cfa -16 + ^ x21: .cfa -24 + ^ x22: .cfa -32 + ^ x23: .cfa -40 + ^ x24: .cfa -48 + ^ x25: .cfa -56 + ^ x26: .cfa -64 + ^ x27: .cfa -72 + ^ x28: .cfa -80 + ^ .ra: .cfa -88 + ^ x29: .cfa -96 + ^
STACK CFI fc38 .cfa: sp 304 +
STACK CFI fc54 .cfa: sp 0 +
STACK CFI fc58 .cfa: x29 96 +
STACK CFI INIT ff14 74 .cfa: sp 0 +
STACK CFI ff18 .cfa: sp 48 +
STACK CFI ff24 .cfa: x29 32 + x19: .cfa -8 + ^ x20: .cfa -16 + ^ .ra: .cfa -24 + ^ x29: .cfa -32 + ^
STACK CFI ff70 .cfa: sp 48 +
STACK CFI ff7c .cfa: sp 0 +
STACK CFI ff80 .cfa: x29 32 +
STACK CFI INIT 10018 154 .cfa: sp 0 +
STACK CFI 1001c .cfa: sp 384 +
STACK CFI 10030 .cfa: x29 64 + x19: .cfa -8 + ^ x20: .cfa -16 + ^ x21: .cfa -24 + ^ x22: .cfa -32 + ^ x23: .cfa -40 + ^ x28: .cfa -48 + ^ .ra: .cfa -56 + ^ x29: .cfa -64 + ^
STACK CFI 10114 .cfa: sp 384 +
STACK CFI 10128 .cfa: sp 0 +
STACK CFI 1012c .cfa: x29 64 +
STACK CFI INIT 101a0 12c .cfa: sp 0 +
STACK CFI 101a4 .cfa: sp 80 +
STACK CFI 101b8 .cfa: x29 80 + x19: .cfa -8 + ^ x20: .cfa -16 + ^ x21: .cfa -24 + ^ x22: .cfa -32 + ^ x23: .cfa -40 + ^ x24: .cfa -48 + ^ x25: .cfa -56 + ^ x26: .cfa -64 + ^ .ra: .cfa -72 + ^ x29: .cfa -80 + ^
STACK CFI 10280 .cfa: sp 80 +
STACK CFI 10294 .cfa: sp 0 +
STACK CFI 10298 .cfa: x29 80 +
STACK CFI INIT 10370 1a4 .cfa: sp 0 +
STACK CFI 10374 .cfa: sp 112 +
STACK CFI 1038c .cfa: x29 80 + x19: .cfa -8 + ^ x20: .cfa -16 + ^ x21: .cfa -24 + ^ x22: .cfa -32 + ^ x23: .cfa -40 + ^ x24: .cfa -48 + ^ x25: .cfa -56 + ^ x26: .cfa -64 + ^ .ra: .cfa -72 + ^ x29: .cfa -80 + ^
STACK CFI 1047c .cfa: sp 112 +
STACK CFI 10494 .cfa: sp 0 +
STACK CFI 10498 .cfa: x29 80 +
STACK CFI INIT 10514 1dc .cfa: sp 0 +
STACK CFI 10518 .cfa: sp 128 +
STACK CFI 10534 .cfa: x29 96 + x19: .cfa -8 + ^ x20: .cfa -16 + ^ x21: .cfa -24 + ^ x22: .cfa -32 + ^ x23: .cfa -40 + ^ x24: .cfa -48 + ^ x25: .cfa -56 + ^ x26: .cfa -64 + ^ x27: .cfa -80 + ^ .ra: .cfa -88 + ^ x29: .cfa -96 + ^
STACK CFI 106a0 .cfa: sp 128 +
STACK CFI 106bc .cfa: sp 0 +
STACK CFI 106c0 .cfa: x29 96 +
STACK CFI INIT 10704 50 .cfa: sp 0 +
STACK CFI 10708 .cfa: sp 32 +
STACK CFI 10710 .cfa: x29 32 + x19: .cfa -8 + ^ x20: .cfa -16 + ^ .ra: .cfa -24 + ^ x29: .cfa -32 + ^
STACK CFI INIT 107b8 178 .cfa: sp 0 +
STACK CFI 107bc .cfa: sp 80 +
STACK CFI 107d0 .cfa: x29 80 + x19: .cfa -8 + ^ x20: .cfa -16 + ^ x21: .cfa -24 + ^ x22: .cfa -32 + ^ x23: .cfa -40 + ^ x24: .cfa -48 + ^ x25: .cfa -64 + ^ .ra: .cfa -72 + ^ x29: .cfa -80 + ^
STACK CFI 108fc .cfa: sp 80 +
STACK CFI 10910 .cfa: sp 0 +
STACK CFI 10914 .cfa: x29 80 +
STACK CFI INIT 10c10 9a4 .cfa: sp 0 +
STACK CFI 10c14 .cfa: sp 176 +
STACK CFI 10c34 .cfa: x29 96 + x19: .cfa -8 + ^ x20: .cfa -16 + ^ x21: .cfa -24 + ^ x22: .cfa -32 + ^ x23: .cfa -40 + ^ x24: .cfa -48 + ^ x25: .cfa -56 + ^ x26: .cfa -64 + ^ x27: .cfa -72 + ^ x28: .cfa -80 + ^ .ra: .cfa -88 + ^ x29: .cfa -96 + ^ v8: .cfa -112 + ^
STACK CFI 11520 .cfa: sp 176 +
STACK CFI 11540 .cfa: sp 0 +
STACK CFI 11544 .cfa: x29 96 +
STACK CFI INIT 11814 1c .cfa: sp 0 +
STACK CFI 11818 .cfa: sp 16 +
STACK CFI 1181c .cfa: x29 16 + .ra: .cfa -8 + ^ x29: .cfa -16 + ^
STACK CFI 11824 .cfa: sp 16 +
STACK CFI 11828 .cfa: sp 0 +
STACK CFI 1182c .cfa: x29 16 +
STACK CFI INIT 11830 634 .cfa: sp 0 +
STACK CFI 11834 .cfa: sp 176 +
STACK CFI 11850 .cfa: x29 96 + x19: .cfa -8 + ^ x20: .cfa -16 + ^ x21: .cfa -24 + ^ x22: .cfa -32 + ^ x23: .cfa -40 + ^ x24: .cfa -48 + ^ x25: .cfa -56 + ^ x26: .cfa -64 + ^ x27: .cfa -72 + ^ x28: .cfa -80 + ^ .ra: .cfa -88 + ^ x29: .cfa -96 + ^
STACK CFI 11cfc .cfa: sp 176 +
STACK CFI 11d18 .cfa: sp 0 +
STACK CFI 11d1c .cfa: x29 96 +
STACK CFI INIT 11e64 434 .cfa: sp 0 +
STACK CFI 11e68 .cfa: sp 112 +
STACK CFI 11e84 .cfa: x29 96 + x19: .cfa -8 + ^ x20: .cfa -16 + ^ x21: .cfa -24 + ^ x22: .cfa -32 + ^ x23: .cfa -40 + ^ x24: .cfa -48 + ^ x25: .cfa -56 + ^ x26: .cfa -64 + ^ x27: .cfa -72 + ^ x28: .cfa -80 + ^ .ra: .cfa -88 + ^ x29: .cfa -96 + ^ v8: .cfa -112 + ^
STACK CFI 11f60 .cfa: sp 112 +
STACK CFI 11f7c .cfa: sp 0 +
STACK CFI 11f80 .cfa: x29 96 +
STACK CFI 12228 .cfa: sp 112 +
STACK CFI 12244 .cfa: sp 0 +
STACK CFI 12248 .cfa: x29 96 +
STACK CFI INIT 12298 3ec .cfa: sp 0 +
STACK CFI 1229c .cfa: sp 128 +
STACK CFI 122b0 .cfa: x29 64 + x19: .cfa -8 + ^ x20: .cfa -16 + ^ x21: .cfa -24 + ^ x22: .cfa -32 + ^ x23: .cfa -40 + ^ x24: .cfa -48 + ^ .ra: .cfa -56 + ^ x29: .cfa -64 + ^
STACK CFI 1260c .cfa: sp 128 +
STACK CFI 12620 .cfa: sp 0 +
STACK CFI 12624 .cfa: x29 64 +
STACK CFI INIT 127c0 170 .cfa: sp 0 +
STACK CFI 127c4 .cfa: sp 80 +
STACK CFI 127d8 .cfa: x29 40 + x19: .cfa -8 + ^ x20: .cfa -16 + ^ x21: .cfa -24 + ^ .ra: .cfa -32 + ^ x29: .cfa -40 + ^ v8: .cfa -48 + ^
STACK CFI 128e8 .cfa: sp 80 +
STACK CFI 128fc .cfa: sp 0 +
STACK CFI 12900 .cfa: x29 40 +
STACK CFI INIT 12bd4 50 .cfa: sp 0 +
STACK CFI 12bd8 .cfa: sp 32 +
STACK CFI 12be0 .cfa: x29 32 + x19: .cfa -8 + ^ x20: .cfa -16 + ^ .ra: .cfa -24 + ^ x29: .cfa -32 + ^
STACK CFI INIT 13078 74 .cfa: sp 0 +
STACK CFI 1307c .cfa: sp 48 +
STACK CFI 13088 .cfa: x29 32 + x19: .cfa -8 + ^ x20: .cfa -16 + ^ .ra: .cfa -24 + ^ x29: .cfa -32 + ^
STACK CFI 130d4 .cfa: sp 48 +
STACK CFI 130e0 .cfa: sp 0 +
STACK CFI 130e4 .cfa: x29 32 +
STACK CFI INIT 13230 164 .cfa: sp 0 +
STACK CFI 13234 .cfa: sp 112 +
STACK CFI 13244 .cfa: x29 48 + x19: .cfa -8 + ^ x20: .cfa -16 + ^ x21: .cfa -24 + ^ x22: .cfa -32 + ^ .ra: .cfa -40 + ^ x29: .cfa -48 + ^
STACK CFI 13330 .cfa: sp 112 +
STACK CFI 13340 .cfa: sp 0 +
STACK CFI 13344 .cfa: x29 48 +
STACK CFI INIT f4c0 12c .cfa: sp 0 +
STACK CFI f4c4 .cfa: sp 80 +
STACK CFI f4d4 .cfa: x29 48 + x19: .cfa -8 + ^ x20: .cfa -16 + ^ x21: .cfa -32 + ^ .ra: .cfa -40 + ^ x29: .cfa -48 + ^
STACK CFI f56c .cfa: sp 80 +
STACK CFI f57c .cfa: sp 0 +
STACK CFI f580 .cfa: x29 48 +
STACK CFI INIT 13590 134 .cfa: sp 0 +
STACK CFI 13594 .cfa: sp 80 +
STACK CFI 135a0 .cfa: x29 32 + x19: .cfa -8 + ^ x20: .cfa -16 + ^ .ra: .cfa -24 + ^ x29: .cfa -32 + ^
STACK CFI 135d0 .cfa: sp 80 +
STACK CFI 135dc .cfa: sp 0 +
STACK CFI 135e0 .cfa: x29 32 +
STACK CFI INIT 136c4 78 .cfa: sp 0 +
STACK CFI 136c8 .cfa: sp 32 +
STACK CFI 136d0 .cfa: x29 32 + x19: .cfa -8 + ^ x20: .cfa -16 + ^ .ra: .cfa -24 + ^ x29: .cfa -32 + ^
STACK CFI 136dc .cfa: sp 32 +
STACK CFI 136e4 .cfa: sp 0 +
STACK CFI 136e8 .cfa: x29 32 +
STACK CFI INIT 1373c 74 .cfa: sp 0 +
STACK CFI 13740 .cfa: sp 48 +
STACK CFI 1374c .cfa: x29 32 + x19: .cfa -8 + ^ x20: .cfa -16 + ^ .ra: .cfa -24 + ^ x29: .cfa -32 + ^
STACK CFI 13798 .cfa: sp 48 +
STACK CFI 137a4 .cfa: sp 0 +
STACK CFI 137a8 .cfa: x29 32 +
STACK CFI INIT 1385c 26c .cfa: sp 0 +
STACK CFI 13860 .cfa: sp 128 +
STACK CFI 13870 .cfa: x29 48 + x19: .cfa -8 + ^ x20: .cfa -16 + ^ x21: .cfa -32 + ^ .ra: .cfa -40 + ^ x29: .cfa -48 + ^
STACK CFI 13968 .cfa: sp 128 +
STACK CFI 13978 .cfa: sp 0 +
STACK CFI 1397c .cfa: x29 48 +
STACK CFI INIT 13aec 2b8 .cfa: sp 0 +
STACK CFI 13af0 .cfa: sp 144 +
STACK CFI 13b04 .cfa: x29 64 + x19: .cfa -8 + ^ x20: .cfa -16 + ^ x21: .cfa -24 + ^ x22: .cfa -32 + ^ x23: .cfa -48 + ^ .ra: .cfa -56 + ^ x29: .cfa -64 + ^
STACK CFI 13c50 .cfa: sp 144 +
STACK CFI 13c64 .cfa: sp 0 +
STACK CFI 13c68 .cfa: x29 64 +
STACK CFI INIT 13da8 2a0 .cfa: sp 0 +
STACK CFI 13dac .cfa: sp 144 +
STACK CFI 13dc0 .cfa: x29 64 + x19: .cfa -8 + ^ x20: .cfa -16 + ^ x21: .cfa -24 + ^ x22: .cfa -32 + ^ x23: .cfa -48 + ^ .ra: .cfa -56 + ^ x29: .cfa -64 + ^
STACK CFI 13ef4 .cfa: sp 144 +
STACK CFI 13f08 .cfa: sp 0 +
STACK CFI 13f0c .cfa: x29 64 +
STACK CFI INIT 14048 4f4 .cfa: sp 0 +
STACK CFI 1404c .cfa: sp 144 +
STACK CFI 14060 .cfa: x29 64 + x19: .cfa -8 + ^ x20: .cfa -16 + ^ x21: .cfa -24 + ^ x22: .cfa -32 + ^ x23: .cfa -48 + ^ .ra: .cfa -56 + ^ x29: .cfa -64 + ^
STACK CFI 14394 .cfa: sp 144 +
STACK CFI 143a8 .cfa: sp 0 +
STACK CFI 143ac .cfa: x29 64 +
STACK CFI INIT 1453c 154 .cfa: sp 0 +
STACK CFI 14540 .cfa: sp 384 +
STACK CFI 14554 .cfa: x29 64 + x19: .cfa -8 + ^ x20: .cfa -16 + ^ x21: .cfa -24 + ^ x22: .cfa -32 + ^ x23: .cfa -40 + ^ x28: .cfa -48 + ^ .ra: .cfa -56 + ^ x29: .cfa -64 + ^
STACK CFI 14638 .cfa: sp 384 +
STACK CFI 1464c .cfa: sp 0 +
STACK CFI 14650 .cfa: x29 64 +
STACK CFI INIT 14690 168 .cfa: sp 0 +
STACK CFI 14694 .cfa: sp 384 +
STACK CFI 146a8 .cfa: x29 64 + x19: .cfa -8 + ^ x20: .cfa -16 + ^ x21: .cfa -24 + ^ x22: .cfa -32 + ^ x23: .cfa -40 + ^ x28: .cfa -48 + ^ .ra: .cfa -56 + ^ x29: .cfa -64 + ^
STACK CFI 147a0 .cfa: sp 384 +
STACK CFI 147b4 .cfa: sp 0 +
STACK CFI 147b8 .cfa: x29 64 +
STACK CFI INIT 14810 50c .cfa: sp 0 +
STACK CFI 14814 .cfa: sp 64 +
STACK CFI 14824 .cfa: x29 64 + x19: .cfa -8 + ^ x20: .cfa -16 + ^ x21: .cfa -24 + ^ x22: .cfa -32 + ^ x23: .cfa -40 + ^ x24: .cfa -48 + ^ .ra: .cfa -56 + ^ x29: .cfa -64 + ^
STACK CFI 14944 .cfa: sp 64 +
STACK CFI 14954 .cfa: sp 0 +
STACK CFI 14958 .cfa: x29 64 +
STACK CFI 14cf0 .cfa: sp 64 +
STACK CFI 14d00 .cfa: sp 0 +
STACK CFI 14d04 .cfa: x29 64 +
STACK CFI INIT 1504c 294 .cfa: sp 0 +
STACK CFI 15050 .cfa: sp 240 +
STACK CFI 15068 .cfa: x29 80 + x19: .cfa -8 + ^ x20: .cfa -16 + ^ x21: .cfa -24 + ^ x22: .cfa -32 + ^ x23: .cfa -40 + ^ x24: .cfa -48 + ^ x25: .cfa -64 + ^ .ra: .cfa -72 + ^ x29: .cfa -80 + ^
STACK CFI 15208 .cfa: sp 240 +
STACK CFI 15220 .cfa: sp 0 +
STACK CFI 15224 .cfa: x29 80 +
STACK CFI INIT 1535c 50 .cfa: sp 0 +
STACK CFI 15360 .cfa: sp 32 +
STACK CFI 15368 .cfa: x29 32 + x19: .cfa -8 + ^ x20: .cfa -16 + ^ .ra: .cfa -24 + ^ x29: .cfa -32 + ^
STACK CFI INIT 153d8 7c0 .cfa: sp 0 +
STACK CFI 153dc .cfa: sp 320 +
STACK CFI 153f8 .cfa: x29 96 + x19: .cfa -8 + ^ x20: .cfa -16 + ^ x21: .cfa -24 + ^ x22: .cfa -32 + ^ x23: .cfa -40 + ^ x24: .cfa -48 + ^ x25: .cfa -56 + ^ x26: .cfa -64 + ^ x27: .cfa -72 + ^ x28: .cfa -80 + ^ .ra: .cfa -88 + ^ x29: .cfa -96 + ^
STACK CFI 15a48 .cfa: sp 320 +
STACK CFI 15a64 .cfa: sp 0 +
STACK CFI 15a68 .cfa: x29 96 +
STACK CFI INIT 19f18 c74 .cfa: sp 0 +
STACK CFI 19f1c .cfa: sp 96 +
STACK CFI 19f34 .cfa: x29 96 + x19: .cfa -8 + ^ x20: .cfa -16 + ^ x21: .cfa -24 + ^ x22: .cfa -32 + ^ x23: .cfa -40 + ^ x24: .cfa -48 + ^ x25: .cfa -56 + ^ x26: .cfa -64 + ^ x27: .cfa -72 + ^ x28: .cfa -80 + ^ .ra: .cfa -88 + ^ x29: .cfa -96 + ^
STACK CFI 1a9ac .cfa: sp 96 +
STACK CFI 1a9c4 .cfa: sp 0 +
STACK CFI 1a9c8 .cfa: x29 96 +
STACK CFI INIT 1ace0 26c .cfa: sp 0 +
STACK CFI 1ace4 .cfa: sp 128 +
STACK CFI 1acf4 .cfa: x29 48 + x19: .cfa -8 + ^ x20: .cfa -16 + ^ x21: .cfa -24 + ^ x22: .cfa -32 + ^ .ra: .cfa -40 + ^ x29: .cfa -48 + ^
STACK CFI 1ae98 .cfa: sp 128 +
STACK CFI 1aea8 .cfa: sp 0 +
STACK CFI 1aeac .cfa: x29 48 +
STACK CFI INIT 1b498 3b8 .cfa: sp 0 +
STACK CFI 1b49c .cfa: sp 96 +
STACK CFI 1b4b4 .cfa: x29 96 + x19: .cfa -8 + ^ x20: .cfa -16 + ^ x21: .cfa -24 + ^ x22: .cfa -32 + ^ x23: .cfa -40 + ^ x24: .cfa -48 + ^ x25: .cfa -56 + ^ x26: .cfa -64 + ^ x27: .cfa -72 + ^ x28: .cfa -80 + ^ .ra: .cfa -88 + ^ x29: .cfa -96 + ^
STACK CFI 1b7f0 .cfa: sp 96 +
STACK CFI 1b808 .cfa: sp 0 +
STACK CFI 1b80c .cfa: x29 96 +
STACK CFI INIT 1b8f0 cb4 .cfa: sp 0 +
STACK CFI 1b8f4 .cfa: sp 96 +
STACK CFI 1b90c .cfa: x29 96 + x19: .cfa -8 + ^ x20: .cfa -16 + ^ x21: .cfa -24 + ^ x22: .cfa -32 + ^ x23: .cfa -40 + ^ x24: .cfa -48 + ^ x25: .cfa -56 + ^ x26: .cfa -64 + ^ x27: .cfa -72 + ^ x28: .cfa -80 + ^ .ra: .cfa -88 + ^ x29: .cfa -96 + ^
STACK CFI 1c3b4 .cfa: sp 96 +
STACK CFI 1c3cc .cfa: sp 0 +
STACK CFI 1c3d0 .cfa: x29 96 +
STACK CFI INIT 1c88c afc .cfa: sp 0 +
STACK CFI 1c890 .cfa: sp 96 +
STACK CFI 1c8a8 .cfa: x29 96 + x19: .cfa -8 + ^ x20: .cfa -16 + ^ x21: .cfa -24 + ^ x22: .cfa -32 + ^ x23: .cfa -40 + ^ x24: .cfa -48 + ^ x25: .cfa -56 + ^ x26: .cfa -64 + ^ x27: .cfa -72 + ^ x28: .cfa -80 + ^ .ra: .cfa -88 + ^ x29: .cfa -96 + ^
STACK CFI 1d2fc .cfa: sp 96 +
STACK CFI 1d314 .cfa: sp 0 +
STACK CFI 1d318 .cfa: x29 96 +
STACK CFI INIT 1d564 1430 .cfa: sp 0 +
STACK CFI 1d568 .cfa: sp 96 +
STACK CFI 1d580 .cfa: x29 96 + x19: .cfa -8 + ^ x20: .cfa -16 + ^ x21: .cfa -24 + ^ x22: .cfa -32 + ^ x23: .cfa -40 + ^ x24: .cfa -48 + ^ x25: .cfa -56 + ^ x26: .cfa -64 + ^ x27: .cfa -72 + ^ x28: .cfa -80 + ^ .ra: .cfa -88 + ^ x29: .cfa -96 + ^
STACK CFI 1e81c .cfa: sp 96 +
STACK CFI 1e834 .cfa: sp 0 +
STACK CFI 1e838 .cfa: x29 96 +
STACK CFI INIT 1eab8 75c .cfa: sp 0 +
STACK CFI 1eabc .cfa: sp 368 +
STACK CFI 1ead8 .cfa: x29 96 + x19: .cfa -8 + ^ x20: .cfa -16 + ^ x21: .cfa -24 + ^ x22: .cfa -32 + ^ x23: .cfa -40 + ^ x24: .cfa -48 + ^ x25: .cfa -56 + ^ x26: .cfa -64 + ^ x27: .cfa -72 + ^ x28: .cfa -80 + ^ .ra: .cfa -88 + ^ x29: .cfa -96 + ^
STACK CFI 1eb8c .cfa: sp 368 +
STACK CFI 1eba8 .cfa: sp 0 +
STACK CFI 1ebac .cfa: x29 96 +
STACK CFI 1ec00 .cfa: sp 368 +
STACK CFI 1ec1c .cfa: sp 0 +
STACK CFI 1ec20 .cfa: x29 96 +
STACK CFI INIT 1f5d4 eb0 .cfa: sp 0 +
STACK CFI 1f5d8 .cfa: sp 96 +
STACK CFI 1f5f0 .cfa: x29 96 + x19: .cfa -8 + ^ x20: .cfa -16 + ^ x21: .cfa -24 + ^ x22: .cfa -32 + ^ x23: .cfa -40 + ^ x24: .cfa -48 + ^ x25: .cfa -56 + ^ x26: .cfa -64 + ^ x27: .cfa -72 + ^ x28: .cfa -80 + ^ .ra: .cfa -88 + ^ x29: .cfa -96 + ^
STACK CFI 20298 .cfa: sp 96 +
STACK CFI 202b0 .cfa: sp 0 +
STACK CFI 202b4 .cfa: x29 96 +
STACK CFI INIT 207f8 1c9c .cfa: sp 0 +
STACK CFI 207fc .cfa: sp 112 +
STACK CFI 20818 .cfa: x29 96 + x19: .cfa -8 + ^ x20: .cfa -16 + ^ x21: .cfa -24 + ^ x22: .cfa -32 + ^ x23: .cfa -40 + ^ x24: .cfa -48 + ^ x25: .cfa -56 + ^ x26: .cfa -64 + ^ x27: .cfa -72 + ^ x28: .cfa -80 + ^ .ra: .cfa -88 + ^ x29: .cfa -96 + ^ v8: .cfa -112 + ^
STACK CFI 20c00 .cfa: sp 112 +
STACK CFI 20c1c .cfa: sp 0 +
STACK CFI 20c20 .cfa: x29 96 +
STACK CFI INIT 24c58 9a0 .cfa: sp 0 +
STACK CFI 24c5c .cfa: sp 144 +
STACK CFI 24c74 .cfa: x29 80 + x19: .cfa -8 + ^ x20: .cfa -16 + ^ x21: .cfa -24 + ^ x22: .cfa -32 + ^ x23: .cfa -40 + ^ x24: .cfa -48 + ^ x25: .cfa -64 + ^ .ra: .cfa -72 + ^ x29: .cfa -80 + ^
STACK CFI 25574 .cfa: sp 144 +
STACK CFI 2558c .cfa: sp 0 +
STACK CFI 25590 .cfa: x29 80 +
STACK CFI INIT 26b1c 57c .cfa: sp 0 +
STACK CFI 26b20 .cfa: sp 96 +
STACK CFI 26b38 .cfa: x29 96 + x19: .cfa -8 + ^ x20: .cfa -16 + ^ x21: .cfa -24 + ^ x22: .cfa -32 + ^ x23: .cfa -40 + ^ x24: .cfa -48 + ^ x25: .cfa -56 + ^ x26: .cfa -64 + ^ x27: .cfa -72 + ^ x28: .cfa -80 + ^ .ra: .cfa -88 + ^ x29: .cfa -96 + ^
STACK CFI 26ffc .cfa: sp 96 +
STACK CFI 27014 .cfa: sp 0 +
STACK CFI 27018 .cfa: x29 96 +
STACK CFI INIT 27098 67c .cfa: sp 0 +
STACK CFI 2709c .cfa: sp 96 +
STACK CFI 270b4 .cfa: x29 96 + x19: .cfa -8 + ^ x20: .cfa -16 + ^ x21: .cfa -24 + ^ x22: .cfa -32 + ^ x23: .cfa -40 + ^ x24: .cfa -48 + ^ x25: .cfa -56 + ^ x26: .cfa -64 + ^ x27: .cfa -72 + ^ x28: .cfa -80 + ^ .ra: .cfa -88 + ^ x29: .cfa -96 + ^
STACK CFI 27678 .cfa: sp 96 +
STACK CFI 27690 .cfa: sp 0 +
STACK CFI 27694 .cfa: x29 96 +
