MODULE Linux arm64 7803B269548C5D4D39DDA388F969A7130 zalphalaneous.minecraft.android64.so
INFO CODE_ID 69B203788C544D5D39DDA388F969A713C9C69B88
INFO GENERATOR mozilla/dump_syms 2.3.4
PUBLIC 342f0 0 __on_dlclose
PUBLIC 34300 0 __emutls_unregister_key
PUBLIC 34308 0 __on_dlclose_late
PUBLIC 34310 0 __atexit_handler_wrapper
PUBLIC 34324 0 atexit
PUBLIC 34340 0 pthread_atfork
PUBLIC 34350 0 unwind_phase2
PUBLIC 34484 0 _Unwind_Resume
PUBLIC 34508 0 unwind_phase2_forced
PUBLIC m 345fc 0 __unw_init_local
PUBLIC m 346a4 0 __unw_get_reg
PUBLIC 34720 0 __unw_step_stage2
PUBLIC m 34734 0 __unw_get_proc_info
PUBLIC m 34774 0 __unw_resume
PUBLIC 3479c 0 libunwind::CFI_Parser<libunwind::LocalAddressSpace>::decodeFDE(libunwind::LocalAddressSpace&, unsigned long, libunwind::CFI_Parser<libunwind::LocalAddressSpace>::FDE_Info*, libunwind::CFI_Parser<libunwind::LocalAddressSpace>::CIE_Info*, bool)
PUBLIC 3492c 0 libunwind::CFI_Parser<libunwind::LocalAddressSpace>::parseCIE(libunwind::LocalAddressSpace&, unsigned long, libunwind::CFI_Parser<libunwind::LocalAddressSpace>::CIE_Info*)
PUBLIC 34bf4 0 libunwind::AbstractUnwindCursor::~AbstractUnwindCursor()
PUBLIC 34bfc 0 libunwind::UnwindCursor<libunwind::LocalAddressSpace, libunwind::Registers_arm64>::~UnwindCursor()
PUBLIC 34c04 0 libunwind::UnwindCursor<libunwind::LocalAddressSpace, libunwind::Registers_arm64>::validReg(int)
PUBLIC 34c48 0 libunwind::UnwindCursor<libunwind::LocalAddressSpace, libunwind::Registers_arm64>::getReg(int)
PUBLIC 34d30 0 libunwind::UnwindCursor<libunwind::LocalAddressSpace, libunwind::Registers_arm64>::setReg(int, unsigned long)
PUBLIC 34e18 0 libunwind::UnwindCursor<libunwind::LocalAddressSpace, libunwind::Registers_arm64>::validFloatReg(int)
PUBLIC 34e2c 0 libunwind::UnwindCursor<libunwind::LocalAddressSpace, libunwind::Registers_arm64>::getFloatReg(int)
PUBLIC 34e3c 0 libunwind::UnwindCursor<libunwind::LocalAddressSpace, libunwind::Registers_arm64>::setFloatReg(int, double)
PUBLIC 34e4c 0 libunwind::UnwindCursor<libunwind::LocalAddressSpace, libunwind::Registers_arm64>::step(bool)
PUBLIC 34f3c 0 libunwind::UnwindCursor<libunwind::LocalAddressSpace, libunwind::Registers_arm64>::getInfo(unw_proc_info_t*)
PUBLIC 34f80 0 libunwind::UnwindCursor<libunwind::LocalAddressSpace, libunwind::Registers_arm64>::jumpto()
PUBLIC 34f8c 0 libunwind::UnwindCursor<libunwind::LocalAddressSpace, libunwind::Registers_arm64>::isSignalFrame()
PUBLIC 34f98 0 libunwind::UnwindCursor<libunwind::LocalAddressSpace, libunwind::Registers_arm64>::getFunctionName(char*, unsigned long, unsigned long*)
PUBLIC 34fc4 0 libunwind::UnwindCursor<libunwind::LocalAddressSpace, libunwind::Registers_arm64>::setInfoBasedOnIPRegister(bool)
PUBLIC 35244 0 libunwind::UnwindCursor<libunwind::LocalAddressSpace, libunwind::Registers_arm64>::getRegisterName(int)
PUBLIC 35250 0 libunwind::UnwindCursor<libunwind::LocalAddressSpace, libunwind::Registers_arm64>::stepThroughSigReturn(libunwind::Registers_arm64&)
PUBLIC 35370 0 libunwind::DwarfInstructions<libunwind::LocalAddressSpace, libunwind::Registers_arm64>::stepWithDwarf(libunwind::LocalAddressSpace&, unsigned long, unsigned long, libunwind::Registers_arm64&, bool&, bool)
PUBLIC 357f8 0 libunwind::CFI_Parser<libunwind::LocalAddressSpace>::parseFDEInstructions(libunwind::LocalAddressSpace&, libunwind::CFI_Parser<libunwind::LocalAddressSpace>::FDE_Info const&, libunwind::CFI_Parser<libunwind::LocalAddressSpace>::CIE_Info const&, unsigned long, int, libunwind::CFI_Parser<libunwind::LocalAddressSpace>::PrologInfo*)
PUBLIC 36440 0 libunwind::DwarfInstructions<libunwind::LocalAddressSpace, libunwind::Registers_arm64>::getCFA(libunwind::LocalAddressSpace&, libunwind::CFI_Parser<libunwind::LocalAddressSpace>::PrologInfo const&, libunwind::Registers_arm64 const&)
PUBLIC 36574 0 libunwind::DwarfInstructions<libunwind::LocalAddressSpace, libunwind::Registers_arm64>::getSavedRegister(libunwind::LocalAddressSpace&, libunwind::Registers_arm64 const&, unsigned long, libunwind::CFI_Parser<libunwind::LocalAddressSpace>::RegisterLocation const&)
PUBLIC 36784 0 libunwind::LocalAddressSpace::getEncodedP(unsigned long&, unsigned long, unsigned char, unsigned long)
PUBLIC 36b10 0 libunwind::LocalAddressSpace::getULEB128(unsigned long&, unsigned long)
PUBLIC 36cd8 0 libunwind::DwarfInstructions<libunwind::LocalAddressSpace, libunwind::Registers_arm64>::evaluateExpression(unsigned long, libunwind::LocalAddressSpace&, libunwind::Registers_arm64 const&, unsigned long)
PUBLIC 37694 0 libunwind::UnwindCursor<libunwind::LocalAddressSpace, libunwind::Registers_arm64>::getInfoFromDwarfSection(unsigned long, libunwind::UnwindInfoSections const&, unsigned int)
PUBLIC 37968 0 libunwind::findUnwindSectionsByPhdr(dl_phdr_info*, unsigned long, void*)
PUBLIC 37a9c 0 libunwind::EHHeaderParser<libunwind::LocalAddressSpace>::decodeEHHdr(libunwind::LocalAddressSpace&, unsigned long, unsigned long, libunwind::EHHeaderParser<libunwind::LocalAddressSpace>::EHHeaderInfo&)
PUBLIC 37bbc 0 libunwind::CFI_Parser<libunwind::LocalAddressSpace>::findFDE(libunwind::LocalAddressSpace&, unsigned long, unsigned long, unsigned long, unsigned long, libunwind::CFI_Parser<libunwind::LocalAddressSpace>::FDE_Info*, libunwind::CFI_Parser<libunwind::LocalAddressSpace>::CIE_Info*)
PUBLIC 37d84 0 libunwind::EHHeaderParser<libunwind::LocalAddressSpace>::findFDE(libunwind::LocalAddressSpace&, unsigned long, unsigned long, unsigned int, libunwind::CFI_Parser<libunwind::LocalAddressSpace>::FDE_Info*, libunwind::CFI_Parser<libunwind::LocalAddressSpace>::CIE_Info*)
PUBLIC 37eec 0 libunwind::EHHeaderParser<libunwind::LocalAddressSpace>::getTableEntrySize(unsigned char)
PUBLIC 37fe8 0 libunwind::Registers_arm64::getRegisterName(int)
PUBLIC 38018 0 __libunwind_Registers_arm64_jumpto
PUBLIC m 380a8 0 __unw_getcontext
PUBLIC 38150 0 __aarch64_ldadd8_relax
PUBLIC 38180 0 init_have_lse_atomics
PUBLIC 38218 0 __init_cpu_features_constructor
PUBLIC 387b4 0 __init_cpu_features
PUBLIC 38840 0 __aarch64_ldadd8_acq_rel
PUBLIC 38870 0 ButtonSettingV3::createNode(float)
PUBLIC 38b7c 0 std::__ndk1::shared_ptr<ButtonSettingV3>::~shared_ptr[abi:ne180000]()
PUBLIC 38bcc 0 std::__ndk1::shared_ptr<geode::SettingV3>::~shared_ptr[abi:ne180000]()
PUBLIC 38c1c 0 ButtonSettingV3::~ButtonSettingV3()
PUBLIC 38c40 0 ButtonSettingV3::load(matjson::Value const&)
PUBLIC 38c48 0 ButtonSettingV3::save(matjson::Value&) const
PUBLIC 38c50 0 ButtonSettingV3::isDefaultValue() const
PUBLIC 38c58 0 ButtonSettingV3::reset()
PUBLIC 38c5c 0 cocos2d::CCCopying::copyWithZone(cocos2d::CCZone*)
PUBLIC 38c64 0 geode::SettingNodeV3::~SettingNodeV3()
PUBLIC 38cd4 0 ButtonSettingNodeV3::~ButtonSettingNodeV3()
PUBLIC 38d54 0 ButtonSettingNodeV3::updateState(cocos2d::CCNode*)
PUBLIC 38ee0 0 ButtonSettingNodeV3::onCommit()
PUBLIC 38ee4 0 ButtonSettingNodeV3::onResetToDefault()
PUBLIC 38ee8 0 ButtonSettingNodeV3::hasUncommittedChanges() const
PUBLIC 38ef0 0 ButtonSettingNodeV3::hasNonDefaultValue() const
PUBLIC 38ef8 0 ButtonSettingNodeV3::onButton(cocos2d::CCObject*)
PUBLIC 39300 0 geode::Mod::setSavedValue<std::__ndk1::basic_string<char, std::__ndk1::char_traits<char>, std::__ndk1::allocator<char> > >(std::__ndk1::basic_string_view<char, std::__ndk1::char_traits<char> >, std::__ndk1::basic_string<char, std::__ndk1::char_traits<char>, std::__ndk1::allocator<char> > const&)
PUBLIC 395f4 0 geode::impl::ResultData<matjson::Value&, std::__ndk1::basic_string<char, std::__ndk1::char_traits<char>, std::__ndk1::allocator<char> > >::~ResultData()
PUBLIC 39668 0 geode::impl::ResultData<std::__ndk1::basic_string<char, std::__ndk1::char_traits<char>, std::__ndk1::allocator<char> >, std::__ndk1::basic_string<char, std::__ndk1::char_traits<char>, std::__ndk1::allocator<char> > >::~ResultData()
PUBLIC 396dc 0 std::__ndk1::__throw_bad_variant_access[abi:ne180000]()
PUBLIC 39710 0 geode::UnwrapException::~UnwrapException()
PUBLIC 39734 0 __clang_call_terminate
PUBLIC 39744 0 std::__ndk1::basic_string<char, std::__ndk1::char_traits<char>, std::__ndk1::allocator<char> >::__throw_length_error[abi:ne180000]() const
PUBLIC 39758 0 std::__ndk1::__throw_length_error[abi:ne180000](char const*)
PUBLIC 397a8 0 std::length_error::length_error[abi:ne180000](char const*)
PUBLIC 397d8 0 std::__ndk1::__variant_detail::__visitation::__base::__dispatcher<(unsigned long)0>::__dispatch[abi:ne180000]<std::__ndk1::__variant_detail::__dtor<std::__ndk1::__variant_detail::__traits<std::__ndk1::reference_wrapper<matjson::Value>, std::__ndk1::basic_string<char, std::__ndk1::char_traits<char>, std::__ndk1::allocator<char> > >, (std::__ndk1::__variant_detail::_Trait)1>::__destroy[abi:ne180000]()::{lambda(auto:1&)#1}, std::__ndk1::__variant_detail::__base<(std::__ndk1::__variant_detail::__traits<std::__ndk1::reference_wrapper<matjson::Value>, std::__ndk1::basic_string<char, std::__ndk1::char_traits<char>, std::__ndk1::allocator<char> > >)1, matjson::Value, std::__ndk1::allocator<char> >&>(std::__ndk1::__variant_detail::__dtor<std::__ndk1::__variant_detail::__traits<std::__ndk1::reference_wrapper<matjson::Value>, std::__ndk1::basic_string<char, std::__ndk1::char_traits<char>, std::__ndk1::allocator<char> > >, (std::__ndk1::__variant_detail::_Trait)1>, std::__ndk1::__variant_detail::__base<(std::__ndk1::__variant_detail::__traits<std::__ndk1::reference_wrapper<matjson::Value>, std::__ndk1::basic_string<char, std::__ndk1::char_traits<char>, std::__ndk1::allocator<char> > >)1, matjson::Value, std::__ndk1::allocator<char> >&)
PUBLIC 397dc 0 std::__ndk1::__variant_detail::__visitation::__base::__dispatcher<(unsigned long)1>::__dispatch[abi:ne180000]<std::__ndk1::__variant_detail::__dtor<std::__ndk1::__variant_detail::__traits<std::__ndk1::reference_wrapper<matjson::Value>, std::__ndk1::basic_string<char, std::__ndk1::char_traits<char>, std::__ndk1::allocator<char> > >, (std::__ndk1::__variant_detail::_Trait)1>::__destroy[abi:ne180000]()::{lambda(auto:1&)#1}, std::__ndk1::__variant_detail::__base<(std::__ndk1::__variant_detail::__traits<std::__ndk1::reference_wrapper<matjson::Value>, std::__ndk1::basic_string<char, std::__ndk1::char_traits<char>, std::__ndk1::allocator<char> > >)1, matjson::Value, std::__ndk1::allocator<char> >&>(std::__ndk1::__variant_detail::__dtor<std::__ndk1::__variant_detail::__traits<std::__ndk1::reference_wrapper<matjson::Value>, std::__ndk1::basic_string<char, std::__ndk1::char_traits<char>, std::__ndk1::allocator<char> > >, (std::__ndk1::__variant_detail::_Trait)1>, std::__ndk1::__variant_detail::__base<(std::__ndk1::__variant_detail::__traits<std::__ndk1::reference_wrapper<matjson::Value>, std::__ndk1::basic_string<char, std::__ndk1::char_traits<char>, std::__ndk1::allocator<char> > >)1, matjson::Value, std::__ndk1::allocator<char> >&)
PUBLIC 397f0 0 std::__ndk1::__variant_detail::__visitation::__base::__dispatcher<(unsigned long)0>::__dispatch[abi:ne180000]<std::__ndk1::__variant_detail::__dtor<std::__ndk1::__variant_detail::__traits<std::__ndk1::basic_string<char, std::__ndk1::char_traits<char>, std::__ndk1::allocator<char> >, std::__ndk1::allocator<char> >, (std::__ndk1::__variant_detail::_Trait)1>::__destroy[abi:ne180000]()::{lambda(auto:1&)#1}, std::__ndk1::__variant_detail::__base<(std::__ndk1::__variant_detail::__traits<std::__ndk1::basic_string<char, std::__ndk1::char_traits<char>, std::__ndk1::allocator<char> >, std::__ndk1::allocator<char> >)1, std::__ndk1::allocator<char>, std::__ndk1::allocator<char> >&>(std::__ndk1::__variant_detail::__dtor<std::__ndk1::__variant_detail::__traits<std::__ndk1::basic_string<char, std::__ndk1::char_traits<char>, std::__ndk1::allocator<char> >, std::__ndk1::allocator<char> >, (std::__ndk1::__variant_detail::_Trait)1>, std::__ndk1::__variant_detail::__base<(std::__ndk1::__variant_detail::__traits<std::__ndk1::basic_string<char, std::__ndk1::char_traits<char>, std::__ndk1::allocator<char> >, std::__ndk1::allocator<char> >)1, std::__ndk1::allocator<char>, std::__ndk1::allocator<char> >&)
PUBLIC 39804 0 std::__ndk1::__variant_detail::__visitation::__base::__dispatcher<(unsigned long)1>::__dispatch[abi:ne180000]<std::__ndk1::__variant_detail::__dtor<std::__ndk1::__variant_detail::__traits<std::__ndk1::basic_string<char, std::__ndk1::char_traits<char>, std::__ndk1::allocator<char> >, std::__ndk1::allocator<char> >, (std::__ndk1::__variant_detail::_Trait)1>::__destroy[abi:ne180000]()::{lambda(auto:1&)#1}, std::__ndk1::__variant_detail::__base<(std::__ndk1::__variant_detail::__traits<std::__ndk1::basic_string<char, std::__ndk1::char_traits<char>, std::__ndk1::allocator<char> >, std::__ndk1::allocator<char> >)1, std::__ndk1::allocator<char>, std::__ndk1::allocator<char> >&>(std::__ndk1::__variant_detail::__dtor<std::__ndk1::__variant_detail::__traits<std::__ndk1::basic_string<char, std::__ndk1::char_traits<char>, std::__ndk1::allocator<char> >, std::__ndk1::allocator<char> >, (std::__ndk1::__variant_detail::_Trait)1>, std::__ndk1::__variant_detail::__base<(std::__ndk1::__variant_detail::__traits<std::__ndk1::basic_string<char, std::__ndk1::char_traits<char>, std::__ndk1::allocator<char> >, std::__ndk1::allocator<char> >)1, std::__ndk1::allocator<char>, std::__ndk1::allocator<char> >&)
PUBLIC 39818 0 std::__ndk1::basic_string<char, std::__ndk1::char_traits<char>, std::__ndk1::allocator<char> >::__init_copy_ctor_external(char const*, unsigned long)
PUBLIC 39898 0 geode::Mod::getSavedValue<bool>(std::__ndk1::basic_string_view<char, std::__ndk1::char_traits<char> >)
PUBLIC 39a28 0 std::__ndk1::__variant_detail::__visitation::__base::__dispatcher<(unsigned long)0>::__dispatch[abi:ne180000]<std::__ndk1::__variant_detail::__dtor<std::__ndk1::__variant_detail::__traits<bool, std::__ndk1::basic_string<char, std::__ndk1::char_traits<char>, std::__ndk1::allocator<char> > >, (std::__ndk1::__variant_detail::_Trait)1>::__destroy[abi:ne180000]()::{lambda(auto:1&)#1}, std::__ndk1::__variant_detail::__base<(std::__ndk1::__variant_detail::__traits<bool, std::__ndk1::basic_string<char, std::__ndk1::char_traits<char>, std::__ndk1::allocator<char> > >)1, bool, std::__ndk1::allocator<char> >&>(std::__ndk1::__variant_detail::__dtor<std::__ndk1::__variant_detail::__traits<bool, std::__ndk1::basic_string<char, std::__ndk1::char_traits<char>, std::__ndk1::allocator<char> > >, (std::__ndk1::__variant_detail::_Trait)1>, std::__ndk1::__variant_detail::__base<(std::__ndk1::__variant_detail::__traits<bool, std::__ndk1::basic_string<char, std::__ndk1::char_traits<char>, std::__ndk1::allocator<char> > >)1, bool, std::__ndk1::allocator<char> >&)
PUBLIC 39a2c 0 std::__ndk1::__variant_detail::__visitation::__base::__dispatcher<(unsigned long)1>::__dispatch[abi:ne180000]<std::__ndk1::__variant_detail::__dtor<std::__ndk1::__variant_detail::__traits<bool, std::__ndk1::basic_string<char, std::__ndk1::char_traits<char>, std::__ndk1::allocator<char> > >, (std::__ndk1::__variant_detail::_Trait)1>::__destroy[abi:ne180000]()::{lambda(auto:1&)#1}, std::__ndk1::__variant_detail::__base<(std::__ndk1::__variant_detail::__traits<bool, std::__ndk1::basic_string<char, std::__ndk1::char_traits<char>, std::__ndk1::allocator<char> > >)1, bool, std::__ndk1::allocator<char> >&>(std::__ndk1::__variant_detail::__dtor<std::__ndk1::__variant_detail::__traits<bool, std::__ndk1::basic_string<char, std::__ndk1::char_traits<char>, std::__ndk1::allocator<char> > >, (std::__ndk1::__variant_detail::_Trait)1>, std::__ndk1::__variant_detail::__base<(std::__ndk1::__variant_detail::__traits<bool, std::__ndk1::basic_string<char, std::__ndk1::char_traits<char>, std::__ndk1::allocator<char> > >)1, bool, std::__ndk1::allocator<char> >&)
PUBLIC 39a40 0 std::__ndk1::__throw_bad_weak_ptr[abi:ne180000]()
PUBLIC 39a74 0 ButtonSettingV3::parse(std::__ndk1::basic_string<char, std::__ndk1::char_traits<char>, std::__ndk1::allocator<char> > const&, std::__ndk1::basic_string<char, std::__ndk1::char_traits<char>, std::__ndk1::allocator<char> > const&, matjson::Value const&)
PUBLIC 39e14 0 geode::impl::ResultData<void, std::__ndk1::basic_string<char, std::__ndk1::char_traits<char>, std::__ndk1::allocator<char> > >::~ResultData()
PUBLIC 39e88 0 std::__ndk1::__shared_ptr_emplace<ButtonSettingV3, std::__ndk1::allocator<ButtonSettingV3> >::~__shared_ptr_emplace()
PUBLIC 39e98 0 std::__ndk1::__shared_ptr_emplace<ButtonSettingV3, std::__ndk1::allocator<ButtonSettingV3> >::~__shared_ptr_emplace()
PUBLIC 39ec8 0 std::__ndk1::__shared_ptr_emplace<ButtonSettingV3, std::__ndk1::allocator<ButtonSettingV3> >::__on_zero_shared()
PUBLIC 39ed4 0 std::__ndk1::__shared_ptr_emplace<ButtonSettingV3, std::__ndk1::allocator<ButtonSettingV3> >::__on_zero_shared_weak()
PUBLIC 39ed8 0 std::__ndk1::__function::__base<geode::Result<std::__ndk1::shared_ptr<geode::SettingV3>, std::__ndk1::basic_string<char, std::__ndk1::char_traits<char>, std::__ndk1::allocator<char> > >(std::__ndk1::basic_string<char, std::__ndk1::char_traits<char>, std::__ndk1::allocator<char> > const&, std::__ndk1::basic_string<char, std::__ndk1::char_traits<char>, std::__ndk1::allocator<char> > const&, matjson::Value const&)>::~__base()
PUBLIC 39edc 0 std::__ndk1::__function::__func<geode::Result<std::__ndk1::shared_ptr<geode::SettingV3>, std::__ndk1::basic_string<char, std::__ndk1::char_traits<char>, std::__ndk1::allocator<char> > > (*)(std::__ndk1::basic_string<char, std::__ndk1::char_traits<char>, std::__ndk1::allocator<char> > const&, std::__ndk1::basic_string<char, std::__ndk1::char_traits<char>, std::__ndk1::allocator<char> > const&, matjson::Value const&), std::__ndk1::allocator<geode::Result<std::__ndk1::shared_ptr<geode::SettingV3>, std::__ndk1::basic_string<char, std::__ndk1::char_traits<char>, std::__ndk1::allocator<char> > > (*)(std::__ndk1::basic_string<char, std::__ndk1::char_traits<char>, std::__ndk1::allocator<char> > const&, std::__ndk1::basic_string<char, std::__ndk1::char_traits<char>, std::__ndk1::allocator<char> > const&, matjson::Value const&)>, geode::Result<std::__ndk1::shared_ptr<geode::SettingV3>, std::__ndk1::basic_string<char, std::__ndk1::char_traits<char>, std::__ndk1::allocator<char> > >(std::__ndk1::basic_string<char, std::__ndk1::char_traits<char>, std::__ndk1::allocator<char> > const&, std::__ndk1::basic_string<char, std::__ndk1::char_traits<char>, std::__ndk1::allocator<char> > const&, matjson::Value const&)>::~__func()
PUBLIC 39ee0 0 std::__ndk1::__function::__func<geode::Result<std::__ndk1::shared_ptr<geode::SettingV3>, std::__ndk1::basic_string<char, std::__ndk1::char_traits<char>, std::__ndk1::allocator<char> > > (*)(std::__ndk1::basic_string<char, std::__ndk1::char_traits<char>, std::__ndk1::allocator<char> > const&, std::__ndk1::basic_string<char, std::__ndk1::char_traits<char>, std::__ndk1::allocator<char> > const&, matjson::Value const&), std::__ndk1::allocator<geode::Result<std::__ndk1::shared_ptr<geode::SettingV3>, std::__ndk1::basic_string<char, std::__ndk1::char_traits<char>, std::__ndk1::allocator<char> > > (*)(std::__ndk1::basic_string<char, std::__ndk1::char_traits<char>, std::__ndk1::allocator<char> > const&, std::__ndk1::basic_string<char, std::__ndk1::char_traits<char>, std::__ndk1::allocator<char> > const&, matjson::Value const&)>, geode::Result<std::__ndk1::shared_ptr<geode::SettingV3>, std::__ndk1::basic_string<char, std::__ndk1::char_traits<char>, std::__ndk1::allocator<char> > >(std::__ndk1::basic_string<char, std::__ndk1::char_traits<char>, std::__ndk1::allocator<char> > const&, std::__ndk1::basic_string<char, std::__ndk1::char_traits<char>, std::__ndk1::allocator<char> > const&, matjson::Value const&)>::__clone() const
PUBLIC 39f14 0 std::__ndk1::__function::__func<geode::Result<std::__ndk1::shared_ptr<geode::SettingV3>, std::__ndk1::basic_string<char, std::__ndk1::char_traits<char>, std::__ndk1::allocator<char> > > (*)(std::__ndk1::basic_string<char, std::__ndk1::char_traits<char>, std::__ndk1::allocator<char> > const&, std::__ndk1::basic_string<char, std::__ndk1::char_traits<char>, std::__ndk1::allocator<char> > const&, matjson::Value const&), std::__ndk1::allocator<geode::Result<std::__ndk1::shared_ptr<geode::SettingV3>, std::__ndk1::basic_string<char, std::__ndk1::char_traits<char>, std::__ndk1::allocator<char> > > (*)(std::__ndk1::basic_string<char, std::__ndk1::char_traits<char>, std::__ndk1::allocator<char> > const&, std::__ndk1::basic_string<char, std::__ndk1::char_traits<char>, std::__ndk1::allocator<char> > const&, matjson::Value const&)>, geode::Result<std::__ndk1::shared_ptr<geode::SettingV3>, std::__ndk1::basic_string<char, std::__ndk1::char_traits<char>, std::__ndk1::allocator<char> > >(std::__ndk1::basic_string<char, std::__ndk1::char_traits<char>, std::__ndk1::allocator<char> > const&, std::__ndk1::basic_string<char, std::__ndk1::char_traits<char>, std::__ndk1::allocator<char> > const&, matjson::Value const&)>::__clone(std::__ndk1::__function::__base<geode::Result<std::__ndk1::shared_ptr<geode::SettingV3>, std::__ndk1::basic_string<char, std::__ndk1::char_traits<char>, std::__ndk1::allocator<char> > >(std::__ndk1::basic_string<char, std::__ndk1::char_traits<char>, std::__ndk1::allocator<char> > const&, std::__ndk1::basic_string<char, std::__ndk1::char_traits<char>, std::__ndk1::allocator<char> > const&, matjson::Value const&)>*) const
PUBLIC 39f28 0 std::__ndk1::__function::__func<geode::Result<std::__ndk1::shared_ptr<geode::SettingV3>, std::__ndk1::basic_string<char, std::__ndk1::char_traits<char>, std::__ndk1::allocator<char> > > (*)(std::__ndk1::basic_string<char, std::__ndk1::char_traits<char>, std::__ndk1::allocator<char> > const&, std::__ndk1::basic_string<char, std::__ndk1::char_traits<char>, std::__ndk1::allocator<char> > const&, matjson::Value const&), std::__ndk1::allocator<geode::Result<std::__ndk1::shared_ptr<geode::SettingV3>, std::__ndk1::basic_string<char, std::__ndk1::char_traits<char>, std::__ndk1::allocator<char> > > (*)(std::__ndk1::basic_string<char, std::__ndk1::char_traits<char>, std::__ndk1::allocator<char> > const&, std::__ndk1::basic_string<char, std::__ndk1::char_traits<char>, std::__ndk1::allocator<char> > const&, matjson::Value const&)>, geode::Result<std::__ndk1::shared_ptr<geode::SettingV3>, std::__ndk1::basic_string<char, std::__ndk1::char_traits<char>, std::__ndk1::allocator<char> > >(std::__ndk1::basic_string<char, std::__ndk1::char_traits<char>, std::__ndk1::allocator<char> > const&, std::__ndk1::basic_string<char, std::__ndk1::char_traits<char>, std::__ndk1::allocator<char> > const&, matjson::Value const&)>::destroy()
PUBLIC 39f2c 0 std::__ndk1::__function::__func<geode::Result<std::__ndk1::shared_ptr<geode::SettingV3>, std::__ndk1::basic_string<char, std::__ndk1::char_traits<char>, std::__ndk1::allocator<char> > > (*)(std::__ndk1::basic_string<char, std::__ndk1::char_traits<char>, std::__ndk1::allocator<char> > const&, std::__ndk1::basic_string<char, std::__ndk1::char_traits<char>, std::__ndk1::allocator<char> > const&, matjson::Value const&), std::__ndk1::allocator<geode::Result<std::__ndk1::shared_ptr<geode::SettingV3>, std::__ndk1::basic_string<char, std::__ndk1::char_traits<char>, std::__ndk1::allocator<char> > > (*)(std::__ndk1::basic_string<char, std::__ndk1::char_traits<char>, std::__ndk1::allocator<char> > const&, std::__ndk1::basic_string<char, std::__ndk1::char_traits<char>, std::__ndk1::allocator<char> > const&, matjson::Value const&)>, geode::Result<std::__ndk1::shared_ptr<geode::SettingV3>, std::__ndk1::basic_string<char, std::__ndk1::char_traits<char>, std::__ndk1::allocator<char> > >(std::__ndk1::basic_string<char, std::__ndk1::char_traits<char>, std::__ndk1::allocator<char> > const&, std::__ndk1::basic_string<char, std::__ndk1::char_traits<char>, std::__ndk1::allocator<char> > const&, matjson::Value const&)>::destroy_deallocate()
PUBLIC 39f30 0 std::__ndk1::__function::__func<geode::Result<std::__ndk1::shared_ptr<geode::SettingV3>, std::__ndk1::basic_string<char, std::__ndk1::char_traits<char>, std::__ndk1::allocator<char> > > (*)(std::__ndk1::basic_string<char, std::__ndk1::char_traits<char>, std::__ndk1::allocator<char> > const&, std::__ndk1::basic_string<char, std::__ndk1::char_traits<char>, std::__ndk1::allocator<char> > const&, matjson::Value const&), std::__ndk1::allocator<geode::Result<std::__ndk1::shared_ptr<geode::SettingV3>, std::__ndk1::basic_string<char, std::__ndk1::char_traits<char>, std::__ndk1::allocator<char> > > (*)(std::__ndk1::basic_string<char, std::__ndk1::char_traits<char>, std::__ndk1::allocator<char> > const&, std::__ndk1::basic_string<char, std::__ndk1::char_traits<char>, std::__ndk1::allocator<char> > const&, matjson::Value const&)>, geode::Result<std::__ndk1::shared_ptr<geode::SettingV3>, std::__ndk1::basic_string<char, std::__ndk1::char_traits<char>, std::__ndk1::allocator<char> > >(std::__ndk1::basic_string<char, std::__ndk1::char_traits<char>, std::__ndk1::allocator<char> > const&, std::__ndk1::basic_string<char, std::__ndk1::char_traits<char>, std::__ndk1::allocator<char> > const&, matjson::Value const&)>::operator()(std::__ndk1::basic_string<char, std::__ndk1::char_traits<char>, std::__ndk1::allocator<char> > const&, std::__ndk1::basic_string<char, std::__ndk1::char_traits<char>, std::__ndk1::allocator<char> > const&, matjson::Value const&)
PUBLIC 39f44 0 std::__ndk1::__function::__func<geode::Result<std::__ndk1::shared_ptr<geode::SettingV3>, std::__ndk1::basic_string<char, std::__ndk1::char_traits<char>, std::__ndk1::allocator<char> > > (*)(std::__ndk1::basic_string<char, std::__ndk1::char_traits<char>, std::__ndk1::allocator<char> > const&, std::__ndk1::basic_string<char, std::__ndk1::char_traits<char>, std::__ndk1::allocator<char> > const&, matjson::Value const&), std::__ndk1::allocator<geode::Result<std::__ndk1::shared_ptr<geode::SettingV3>, std::__ndk1::basic_string<char, std::__ndk1::char_traits<char>, std::__ndk1::allocator<char> > > (*)(std::__ndk1::basic_string<char, std::__ndk1::char_traits<char>, std::__ndk1::allocator<char> > const&, std::__ndk1::basic_string<char, std::__ndk1::char_traits<char>, std::__ndk1::allocator<char> > const&, matjson::Value const&)>, geode::Result<std::__ndk1::shared_ptr<geode::SettingV3>, std::__ndk1::basic_string<char, std::__ndk1::char_traits<char>, std::__ndk1::allocator<char> > >(std::__ndk1::basic_string<char, std::__ndk1::char_traits<char>, std::__ndk1::allocator<char> > const&, std::__ndk1::basic_string<char, std::__ndk1::char_traits<char>, std::__ndk1::allocator<char> > const&, matjson::Value const&)>::target(std::type_info const&) const
PUBLIC 39f60 0 std::__ndk1::__function::__func<geode::Result<std::__ndk1::shared_ptr<geode::SettingV3>, std::__ndk1::basic_string<char, std::__ndk1::char_traits<char>, std::__ndk1::allocator<char> > > (*)(std::__ndk1::basic_string<char, std::__ndk1::char_traits<char>, std::__ndk1::allocator<char> > const&, std::__ndk1::basic_string<char, std::__ndk1::char_traits<char>, std::__ndk1::allocator<char> > const&, matjson::Value const&), std::__ndk1::allocator<geode::Result<std::__ndk1::shared_ptr<geode::SettingV3>, std::__ndk1::basic_string<char, std::__ndk1::char_traits<char>, std::__ndk1::allocator<char> > > (*)(std::__ndk1::basic_string<char, std::__ndk1::char_traits<char>, std::__ndk1::allocator<char> > const&, std::__ndk1::basic_string<char, std::__ndk1::char_traits<char>, std::__ndk1::allocator<char> > const&, matjson::Value const&)>, geode::Result<std::__ndk1::shared_ptr<geode::SettingV3>, std::__ndk1::basic_string<char, std::__ndk1::char_traits<char>, std::__ndk1::allocator<char> > >(std::__ndk1::basic_string<char, std::__ndk1::char_traits<char>, std::__ndk1::allocator<char> > const&, std::__ndk1::basic_string<char, std::__ndk1::char_traits<char>, std::__ndk1::allocator<char> > const&, matjson::Value const&)>::target_type() const
PUBLIC 39f6c 0 std::__ndk1::__variant_detail::__visitation::__base::__dispatcher<(unsigned long)0>::__dispatch[abi:ne180000]<std::__ndk1::__variant_detail::__dtor<std::__ndk1::__variant_detail::__traits<std::__ndk1::monostate, std::__ndk1::basic_string<char, std::__ndk1::char_traits<char>, std::__ndk1::allocator<char> > >, (std::__ndk1::__variant_detail::_Trait)1>::__destroy[abi:ne180000]()::{lambda(auto:1&)#1}, std::__ndk1::__variant_detail::__base<(std::__ndk1::__variant_detail::__traits<std::__ndk1::monostate, std::__ndk1::basic_string<char, std::__ndk1::char_traits<char>, std::__ndk1::allocator<char> > >)1, std::__ndk1::__variant_detail::__traits, std::__ndk1::allocator<char> >&>(std::__ndk1::__variant_detail::__dtor<std::__ndk1::__variant_detail::__traits<std::__ndk1::monostate, std::__ndk1::basic_string<char, std::__ndk1::char_traits<char>, std::__ndk1::allocator<char> > >, (std::__ndk1::__variant_detail::_Trait)1>, std::__ndk1::__variant_detail::__base<(std::__ndk1::__variant_detail::__traits<std::__ndk1::monostate, std::__ndk1::basic_string<char, std::__ndk1::char_traits<char>, std::__ndk1::allocator<char> > >)1, std::__ndk1::__variant_detail::__traits, std::__ndk1::allocator<char> >&)
PUBLIC 39f70 0 std::__ndk1::__variant_detail::__visitation::__base::__dispatcher<(unsigned long)1>::__dispatch[abi:ne180000]<std::__ndk1::__variant_detail::__dtor<std::__ndk1::__variant_detail::__traits<std::__ndk1::monostate, std::__ndk1::basic_string<char, std::__ndk1::char_traits<char>, std::__ndk1::allocator<char> > >, (std::__ndk1::__variant_detail::_Trait)1>::__destroy[abi:ne180000]()::{lambda(auto:1&)#1}, std::__ndk1::__variant_detail::__base<(std::__ndk1::__variant_detail::__traits<std::__ndk1::monostate, std::__ndk1::basic_string<char, std::__ndk1::char_traits<char>, std::__ndk1::allocator<char> > >)1, std::__ndk1::__variant_detail::__traits, std::__ndk1::allocator<char> >&>(std::__ndk1::__variant_detail::__dtor<std::__ndk1::__variant_detail::__traits<std::__ndk1::monostate, std::__ndk1::basic_string<char, std::__ndk1::char_traits<char>, std::__ndk1::allocator<char> > >, (std::__ndk1::__variant_detail::_Trait)1>, std::__ndk1::__variant_detail::__base<(std::__ndk1::__variant_detail::__traits<std::__ndk1::monostate, std::__ndk1::basic_string<char, std::__ndk1::char_traits<char>, std::__ndk1::allocator<char> > >)1, std::__ndk1::__variant_detail::__traits, std::__ndk1::allocator<char> >&)
PUBLIC 39f84 0 _GLOBAL__sub_I_ButtonSetting.cpp
PUBLIC 3a0bc 0 __cxx_global_var_init
PUBLIC 3a118 0 std::__ndk1::vector<ImageData, std::__ndk1::allocator<ImageData> >::~vector[abi:ne180000]()
PUBLIC 3a194 0 __cxx_global_var_init.1
PUBLIC 3a1f0 0 std::__ndk1::vector<geode::Mod*, std::__ndk1::allocator<geode::Mod*> >::~vector[abi:ne180000]()
PUBLIC 3a208 0 __cxx_global_var_init.2
PUBLIC 3a264 0 std::__ndk1::vector<std::__ndk1::basic_string<wchar_t, std::__ndk1::char_traits<wchar_t>, std::__ndk1::allocator<wchar_t> >, std::__ndk1::allocator<std::__ndk1::basic_string<wchar_t, std::__ndk1::char_traits<wchar_t>, std::__ndk1::allocator<wchar_t> > > >::~vector[abi:ne180000]()
PUBLIC 3a2e0 0 __cxx_global_var_init.3
PUBLIC 3a340 0 geode::modifier::ModifyBase<geode::modifier::ModifyDerive<MyCCMenuItemSpriteExtra, CCMenuItemSpriteExtra> >::~ModifyBase()
PUBLIC 3a35c 0 __cxx_global_var_init.4
PUBLIC 3a3bc 0 geode::modifier::ModifyBase<geode::modifier::ModifyDerive<MyCCMenuItemToggler, CCMenuItemToggler> >::~ModifyBase()
PUBLIC 3a3d8 0 __cxx_global_var_init.5
PUBLIC 3a814 0 geode::modifier::ModifyBase<geode::modifier::ModifyDerive<hook16<(anonymous namespace)::hook16Parent>, MenuLayer> >::~ModifyBase()
PUBLIC 3a830 0 __cxx_global_var_init.6
PUBLIC 3ae40 0 geode::modifier::ModifyBase<geode::modifier::ModifyDerive<MyMenuLayer, MenuLayer> >::~ModifyBase()
PUBLIC 3ae5c 0 __cxx_global_var_init.7
PUBLIC 3b2dc 0 geode::modifier::ModifyBase<geode::modifier::ModifyDerive<MyLoadingLayer, LoadingLayer> >::~ModifyBase()
PUBLIC 3b2f8 0 __cxx_global_var_init.8
PUBLIC 3b908 0 geode::modifier::ModifyBase<geode::modifier::ModifyDerive<MyCreatorLayer, CreatorLayer> >::~ModifyBase()
PUBLIC 3b924 0 __cxx_global_var_init.9
PUBLIC 3bda4 0 geode::modifier::ModifyBase<geode::modifier::ModifyDerive<MyCCDirector, cocos2d::CCDirector> >::~ModifyBase()
PUBLIC 3bdc0 0 __cxx_global_var_init.10
PUBLIC 3c240 0 geode::modifier::ModifyBase<geode::modifier::ModifyDerive<MyFLAlertLayer, FLAlertLayer> >::~ModifyBase()
PUBLIC 3c25c 0 __cxx_global_var_init.11
PUBLIC 3c6dc 0 geode::modifier::ModifyBase<geode::modifier::ModifyDerive<MyPauseLayer, PauseLayer> >::~ModifyBase()
PUBLIC 3c6f8 0 __cxx_global_var_init.12
PUBLIC 3cb78 0 geode::modifier::ModifyBase<geode::modifier::ModifyDerive<MyPlayLayer, PlayLayer> >::~ModifyBase()
PUBLIC 3cb94 0 __cxx_global_var_init.13
PUBLIC 3d014 0 geode::modifier::ModifyBase<geode::modifier::ModifyDerive<MyCCKeyboardDispatcher, cocos2d::CCKeyboardDispatcher> >::~ModifyBase()
PUBLIC 3d030 0 __cxx_global_var_init.14
PUBLIC 3d4b0 0 geode::modifier::ModifyBase<geode::modifier::ModifyDerive<MyGJDropDownLayer, GJDropDownLayer> >::~ModifyBase()
PUBLIC 3d4cc 0 geode::modifier::ModifyBase<geode::modifier::ModifyDerive<MyCCMenuItemSpriteExtra, CCMenuItemSpriteExtra> >::ModifyBase()
PUBLIC 3d8c8 0 geode::modifier::ModifyDerive<MyCCMenuItemSpriteExtra, CCMenuItemSpriteExtra>::apply()
PUBLIC 3e164 0 std::__ndk1::shared_ptr<geode::Hook>::~shared_ptr[abi:ne180000]()
PUBLIC 3e1b4 0 geode::impl::ResultData<geode::Hook*, std::__ndk1::basic_string<char, std::__ndk1::char_traits<char>, std::__ndk1::allocator<char> > >::~ResultData()
PUBLIC 3e228 0 std::__ndk1::vector<std::__ndk1::basic_string<char, std::__ndk1::char_traits<char>, std::__ndk1::allocator<char> >, std::__ndk1::allocator<std::__ndk1::basic_string<char, std::__ndk1::char_traits<char>, std::__ndk1::allocator<char> > > >::~vector[abi:ne180000]()
PUBLIC 3e2a4 0 geode::modifier::ModifyBase<geode::modifier::ModifyDerive<MyCCMenuItemSpriteExtra, CCMenuItemSpriteExtra> >::apply()
PUBLIC 3e2a8 0 _ZN5geode15UnwrapExceptionC2IRPNS_4HookEQsr4implE18IsStringStreamableIT_EEENS_4impl5OkTagEOS5_
PUBLIC 3e3fc 0 std::__ndk1::basic_stringstream<char, std::__ndk1::char_traits<char>, std::__ndk1::allocator<char> >::basic_stringstream[abi:ne180000]()
PUBLIC m 3e528 0 std::__ndk1::basic_stringstream<char, std::__ndk1::char_traits<char>, std::__ndk1::allocator<char> >::~basic_stringstream()
PUBLIC 3e5a8 0 std::__ndk1::__put_character_sequence[abi:ne180000]<char, std::__ndk1::char_traits<char> >(std::__ndk1::basic_ostream<char, std::__ndk1::char_traits<char> >, std::__ndk1::basic_ostream const*, unsigned long)
PUBLIC 3e74c 0 std::__ndk1::__pad_and_output[abi:ne180000]<char, std::__ndk1::char_traits<char> >(std::__ndk1::char_traits<char>, std::__ndk1::ostreambuf_iterator const*, std::__ndk1::ostreambuf_iterator const, std::__ndk1::ostreambuf_iterator const, std::__ndk1::ios_base&, std::__ndk1::ostreambuf_iterator)
PUBLIC 3e928 0 std::__throw_bad_array_new_length([abi:ne180000], void)
PUBLIC 3e95c 0 std::__ndk1::basic_stringbuf<char, std::__ndk1::char_traits<char>, std::__ndk1::allocator<char> >::str[abi:ne180000]() &&
PUBLIC 3ead4 0 std::__ndk1::basic_stringbuf<char, std::__ndk1::char_traits<char>, std::__ndk1::allocator<char> >::__init_buf_ptrs[abi:ne180000]()
PUBLIC 3ec1c 0 std::__ndk1::vector<std::__ndk1::basic_string<char, std::__ndk1::char_traits<char>, std::__ndk1::allocator<char> >, std::__ndk1::allocator<std::__ndk1::basic_string<char, std::__ndk1::char_traits<char>, std::__ndk1::allocator<char> > > >::__push_back_slow_path<std::__ndk1::basic_string<char, std::__ndk1::char_traits<char>, std::__ndk1::allocator<char> > const&>(std::__ndk1::basic_string<char, std::__ndk1::char_traits<char>, std::__ndk1::allocator<char> > const&)
PUBLIC 3ee44 0 std::__ndk1::__split_buffer<std::__ndk1::basic_string<char, std::__ndk1::char_traits<char>, std::__ndk1::allocator<char> >, std::__ndk1::allocator<std::__ndk1::basic_string<char, std::__ndk1::char_traits<char>, std::__ndk1::allocator<char> > >&>::~__split_buffer()
PUBLIC 3eeac 0 std::__ndk1::vector<std::__ndk1::basic_string<char, std::__ndk1::char_traits<char>, std::__ndk1::allocator<char> >, std::__ndk1::allocator<std::__ndk1::basic_string<char, std::__ndk1::char_traits<char>, std::__ndk1::allocator<char> > > >::__throw_length_error[abi:ne180000]() const
PUBLIC 3eec0 0 std::__ndk1::__variant_detail::__visitation::__base::__dispatcher<(unsigned long)0>::__dispatch[abi:ne180000]<std::__ndk1::__variant_detail::__dtor<std::__ndk1::__variant_detail::__traits<geode::Hook*, std::__ndk1::basic_string<char, std::__ndk1::char_traits<char>, std::__ndk1::allocator<char> > >, (std::__ndk1::__variant_detail::_Trait)1>::__destroy[abi:ne180000]()::{lambda(auto:1&)#1}, std::__ndk1::__variant_detail::__base<(std::__ndk1::__variant_detail::__traits<geode::Hook*, std::__ndk1::basic_string<char, std::__ndk1::char_traits<char>, std::__ndk1::allocator<char> > >)1, geode::Hook, std::__ndk1::allocator<char> >&>(std::__ndk1::__variant_detail::__dtor<std::__ndk1::__variant_detail::__traits<geode::Hook*, std::__ndk1::basic_string<char, std::__ndk1::char_traits<char>, std::__ndk1::allocator<char> > >, (std::__ndk1::__variant_detail::_Trait)1>, std::__ndk1::__variant_detail::__base<(std::__ndk1::__variant_detail::__traits<geode::Hook*, std::__ndk1::basic_string<char, std::__ndk1::char_traits<char>, std::__ndk1::allocator<char> > >)1, geode::Hook, std::__ndk1::allocator<char> >&)
PUBLIC 3eec4 0 std::__ndk1::__variant_detail::__visitation::__base::__dispatcher<(unsigned long)1>::__dispatch[abi:ne180000]<std::__ndk1::__variant_detail::__dtor<std::__ndk1::__variant_detail::__traits<geode::Hook*, std::__ndk1::basic_string<char, std::__ndk1::char_traits<char>, std::__ndk1::allocator<char> > >, (std::__ndk1::__variant_detail::_Trait)1>::__destroy[abi:ne180000]()::{lambda(auto:1&)#1}, std::__ndk1::__variant_detail::__base<(std::__ndk1::__variant_detail::__traits<geode::Hook*, std::__ndk1::basic_string<char, std::__ndk1::char_traits<char>, std::__ndk1::allocator<char> > >)1, geode::Hook, std::__ndk1::allocator<char> >&>(std::__ndk1::__variant_detail::__dtor<std::__ndk1::__variant_detail::__traits<geode::Hook*, std::__ndk1::basic_string<char, std::__ndk1::char_traits<char>, std::__ndk1::allocator<char> > >, (std::__ndk1::__variant_detail::_Trait)1>, std::__ndk1::__variant_detail::__base<(std::__ndk1::__variant_detail::__traits<geode::Hook*, std::__ndk1::basic_string<char, std::__ndk1::char_traits<char>, std::__ndk1::allocator<char> > >)1, geode::Hook, std::__ndk1::allocator<char> >&)
PUBLIC 3eed8 0 std::__ndk1::__tree<std::__ndk1::__value_type<std::__ndk1::basic_string<char, std::__ndk1::char_traits<char>, std::__ndk1::allocator<char> >, std::__ndk1::shared_ptr<geode::Hook> >, std::__ndk1::__map_value_compare<std::__ndk1::basic_string<char, std::__ndk1::char_traits<char>, std::__ndk1::allocator<char> >, std::__ndk1::__value_type<std::__ndk1::basic_string<char, std::__ndk1::char_traits<char>, std::__ndk1::allocator<char> >, std::__ndk1::shared_ptr<geode::Hook> >, std::__ndk1::less<std::__ndk1::basic_string<char, std::__ndk1::char_traits<char>, std::__ndk1::allocator<char> > >, true>, std::__ndk1::allocator<std::__ndk1::__value_type<std::__ndk1::basic_string<char, std::__ndk1::char_traits<char>, std::__ndk1::allocator<char> >, std::__ndk1::shared_ptr<geode::Hook> > > >::find<std::__ndk1::basic_string<char, std::__ndk1::char_traits<char>, std::__ndk1::allocator<char> > >(std::__ndk1::basic_string<char, std::__ndk1::char_traits<char>, std::__ndk1::allocator<char> > const&)
PUBLIC 3eff8 0 std::__ndk1::__tree<std::__ndk1::__value_type<std::__ndk1::basic_string<char, std::__ndk1::char_traits<char>, std::__ndk1::allocator<char> >, std::__ndk1::shared_ptr<geode::Hook> >, std::__ndk1::__map_value_compare<std::__ndk1::basic_string<char, std::__ndk1::char_traits<char>, std::__ndk1::allocator<char> >, std::__ndk1::__value_type<std::__ndk1::basic_string<char, std::__ndk1::char_traits<char>, std::__ndk1::allocator<char> >, std::__ndk1::shared_ptr<geode::Hook> >, std::__ndk1::less<std::__ndk1::basic_string<char, std::__ndk1::char_traits<char>, std::__ndk1::allocator<char> > >, true>, std::__ndk1::allocator<std::__ndk1::__value_type<std::__ndk1::basic_string<char, std::__ndk1::char_traits<char>, std::__ndk1::allocator<char> >, std::__ndk1::shared_ptr<geode::Hook> > > >::erase(std::__ndk1::__tree_const_iterator<std::__ndk1::__value_type<std::__ndk1::basic_string<char, std::__ndk1::char_traits<char>, std::__ndk1::allocator<char> >, std::__ndk1::shared_ptr<geode::Hook> >, std::__ndk1::__tree_node<std::__ndk1::__value_type<std::__ndk1::basic_string<char, std::__ndk1::char_traits<char>, std::__ndk1::allocator<char> >, std::__ndk1::shared_ptr<geode::Hook> >, void*>*, long>)
PUBLIC 3f0cc 0 std::__ndk1::__tree_remove[abi:ne180000]<std::__ndk1::__tree_node_base<void*>*>(std::__ndk1::__tree_node_base<void*>*, std::__ndk1::__tree_node_base<void*>*)
PUBLIC 3f494 0 std::__ndk1::__tree<std::__ndk1::__value_type<std::__ndk1::basic_string<char, std::__ndk1::char_traits<char>, std::__ndk1::allocator<char> >, std::__ndk1::shared_ptr<geode::Hook> >, std::__ndk1::__map_value_compare<std::__ndk1::basic_string<char, std::__ndk1::char_traits<char>, std::__ndk1::allocator<char> >, std::__ndk1::__value_type<std::__ndk1::basic_string<char, std::__ndk1::char_traits<char>, std::__ndk1::allocator<char> >, std::__ndk1::shared_ptr<geode::Hook> >, std::__ndk1::less<std::__ndk1::basic_string<char, std::__ndk1::char_traits<char>, std::__ndk1::allocator<char> > >, true>, std::__ndk1::allocator<std::__ndk1::__value_type<std::__ndk1::basic_string<char, std::__ndk1::char_traits<char>, std::__ndk1::allocator<char> >, std::__ndk1::shared_ptr<geode::Hook> > > >::destroy(std::__ndk1::__tree_node<std::__ndk1::__value_type<std::__ndk1::basic_string<char, std::__ndk1::char_traits<char>, std::__ndk1::allocator<char> >, std::__ndk1::shared_ptr<geode::Hook> >, void*>*)
PUBLIC 3f520 0 geode::Hook::create<void (*)(MyCCMenuItemSpriteExtra*)>(void*, void (*)(MyCCMenuItemSpriteExtra*), std::__ndk1::basic_string<char, std::__ndk1::char_traits<char>, std::__ndk1::allocator<char> > const&, tulip::hook::TulipConvention, tulip::hook::HookMetadata const&)
PUBLIC 3f654 0 geode::modifier::AsStaticFunction_activate<MyCCMenuItemSpriteExtra, void (MyCCMenuItemSpriteExtra::*)()>::Impl<void (MyCCMenuItemSpriteExtra::*)()>::function(MyCCMenuItemSpriteExtra*)
PUBLIC 3f690 0 std::__ndk1::basic_string<char, std::__ndk1::char_traits<char>, std::__ndk1::allocator<char> >::basic_string[abi:ne180000]<0>()
PUBLIC 3f72c 0 geode::modifier::AsStaticFunction_selected<MyCCMenuItemSpriteExtra, void (MyCCMenuItemSpriteExtra::*)()>::Impl<void (MyCCMenuItemSpriteExtra::*)()>::function(MyCCMenuItemSpriteExtra*)
PUBLIC 3f768 0 geode::modifier::AsStaticFunction_unselected<MyCCMenuItemSpriteExtra, void (MyCCMenuItemSpriteExtra::*)()>::Impl<void (MyCCMenuItemSpriteExtra::*)()>::function(MyCCMenuItemSpriteExtra*)
PUBLIC 3f7a4 0 geode::Hook::create<bool (*)(MyCCMenuItemSpriteExtra*, cocos2d::CCNode*, cocos2d::CCNode*, cocos2d::CCObject*, void (cocos2d::CCObject::*)(cocos2d::CCObject*))>(void*, bool (*)(MyCCMenuItemSpriteExtra*, cocos2d::CCNode*, cocos2d::CCNode*, cocos2d::CCObject*, void (cocos2d::CCObject::*)(cocos2d::CCObject*)), std::__ndk1::basic_string<char, std::__ndk1::char_traits<char>, std::__ndk1::allocator<char> > const&, tulip::hook::TulipConvention, tulip::hook::HookMetadata const&)
PUBLIC 3f8bc 0 geode::modifier::AsStaticFunction_init<MyCCMenuItemSpriteExtra, bool (MyCCMenuItemSpriteExtra::*)(cocos2d::CCNode*, cocos2d::CCNode*, cocos2d::CCObject*, void (cocos2d::CCObject::*)(cocos2d::CCObject*))>::Impl<bool (MyCCMenuItemSpriteExtra::*)(cocos2d::CCNode*, cocos2d::CCNode*, cocos2d::CCObject*, void (cocos2d::CCObject::*)(cocos2d::CCObject*))>::function(MyCCMenuItemSpriteExtra*, cocos2d::CCNode*, cocos2d::CCNode*, cocos2d::CCObject*, void (cocos2d::CCObject::*)(cocos2d::CCObject*))
PUBLIC 3f8c0 0 geode::addresser::Addresser::addressOfVirtual<void, CCMenuItemSpriteExtra, >(void (CCMenuItemSpriteExtra::*)())
PUBLIC 3f9ac 0 CCMenuItemSpriteExtra::CCMenuItemSpriteExtra(geode::ZeroConstructorType)
PUBLIC 3fa8c 0 std::__ndk1::shared_ptr<tulip::hook::CallingConvention>::~shared_ptr[abi:ne180000]()
PUBLIC 3fadc 0 tulip::hook::HandlerMetadata::~HandlerMetadata()
PUBLIC 3fb40 0 std::__ndk1::vector<tulip::hook::AbstractType, std::__ndk1::allocator<tulip::hook::AbstractType> >::__throw_length_error[abi:ne180000]() const
PUBLIC 3fb54 0 geode::modifier::FieldIntermediate<MyCCMenuItemSpriteExtra, CCMenuItemSpriteExtra>::self()
PUBLIC 3fcd8 0 geode::modifier::FieldContainer::getField(unsigned long)
PUBLIC 3ff90 0 geode::modifier::FieldContainer::setField(unsigned long, unsigned long, std::__ndk1::function<void (void*)>)
PUBLIC 400a4 0 geode::modifier::FieldIntermediate<MyCCMenuItemSpriteExtra, CCMenuItemSpriteExtra>::fieldDestructor(void*)
PUBLIC 400a8 0 std::__ndk1::vector<void*, std::__ndk1::allocator<void*> >::__throw_length_error[abi:ne180000]() const
PUBLIC 400bc 0 std::__ndk1::vector<std::__ndk1::function<void (void*)>, std::__ndk1::allocator<std::__ndk1::function<void (void*)> > >::__push_back_slow_path<std::__ndk1::function<void (void*)> >(std::__ndk1::function<void (void*)>&&)
PUBLIC 402e8 0 std::__ndk1::vector<std::__ndk1::function<void (void*)>, std::__ndk1::allocator<std::__ndk1::function<void (void*)> > >::__throw_length_error[abi:ne180000]() const
PUBLIC 402fc 0 std::__ndk1::vector<void*, std::__ndk1::allocator<void*> >::__throw_out_of_range[abi:ne180000]() const
PUBLIC 40310 0 std::__ndk1::__throw_out_of_range[abi:ne180000](char const*)
PUBLIC 40360 0 std::out_of_range::out_of_range[abi:ne180000](char const*)
PUBLIC 40390 0 std::__ndk1::vector<std::__ndk1::function<void (void*)>, std::__ndk1::allocator<std::__ndk1::function<void (void*)> > >::__throw_out_of_range[abi:ne180000]() const
PUBLIC 403a4 0 std::__ndk1::__function::__base<void (void*)>::~__base()
PUBLIC 403a8 0 std::__ndk1::__function::__func<void (*)(void*), std::__ndk1::allocator<void (*)(void*)>, void (void*)>::~__func()
PUBLIC 403ac 0 std::__ndk1::__function::__func<void (*)(void*), std::__ndk1::allocator<void (*)(void*)>, void (void*)>::__clone() const
PUBLIC 403e4 0 std::__ndk1::__function::__func<void (*)(void*), std::__ndk1::allocator<void (*)(void*)>, void (void*)>::__clone(std::__ndk1::__function::__base<void (void*)>*) const
PUBLIC 403fc 0 std::__ndk1::__function::__func<void (*)(void*), std::__ndk1::allocator<void (*)(void*)>, void (void*)>::destroy()
PUBLIC 40400 0 std::__ndk1::__function::__func<void (*)(void*), std::__ndk1::allocator<void (*)(void*)>, void (void*)>::destroy_deallocate()
PUBLIC 40404 0 std::__ndk1::__function::__func<void (*)(void*), std::__ndk1::allocator<void (*)(void*)>, void (void*)>::operator()(void*&&)
PUBLIC 40414 0 std::__ndk1::__function::__func<void (*)(void*), std::__ndk1::allocator<void (*)(void*)>, void (void*)>::target(std::type_info const&) const
PUBLIC 40430 0 std::__ndk1::__function::__func<void (*)(void*), std::__ndk1::allocator<void (*)(void*)>, void (void*)>::target_type() const
PUBLIC 4043c 0 std::__ndk1::__tree<std::__ndk1::__value_type<std::__ndk1::basic_string<char, std::__ndk1::char_traits<char>, std::__ndk1::allocator<char> >, std::__ndk1::shared_ptr<geode::Hook> >, std::__ndk1::__map_value_compare<std::__ndk1::basic_string<char, std::__ndk1::char_traits<char>, std::__ndk1::allocator<char> >, std::__ndk1::__value_type<std::__ndk1::basic_string<char, std::__ndk1::char_traits<char>, std::__ndk1::allocator<char> >, std::__ndk1::shared_ptr<geode::Hook> >, std::__ndk1::less<std::__ndk1::basic_string<char, std::__ndk1::char_traits<char>, std::__ndk1::allocator<char> > >, true>, std::__ndk1::allocator<std::__ndk1::__value_type<std::__ndk1::basic_string<char, std::__ndk1::char_traits<char>, std::__ndk1::allocator<char> >, std::__ndk1::shared_ptr<geode::Hook> > > >::__emplace_unique_key_args<std::__ndk1::basic_string<char, std::__ndk1::char_traits<char>, std::__ndk1::allocator<char> >, std::__ndk1::piecewise_construct_t const&, std::__ndk1::tuple<std::__ndk1::basic_string<char, std::__ndk1::char_traits<char>, std::__ndk1::allocator<char> >&&>, std::__ndk1::tuple<> >(std::__ndk1::basic_string<char, std::__ndk1::char_traits<char>, std::__ndk1::allocator<char> > const&, std::__ndk1::piecewise_construct_t const&, std::__ndk1::tuple<std::__ndk1::basic_string<char, std::__ndk1::char_traits<char>, std::__ndk1::allocator<char> >&&>, std::__ndk1::tuple<>)
PUBLIC 405b4 0 std::__ndk1::unique_ptr<std::__ndk1::__tree_node<std::__ndk1::__value_type<std::__ndk1::basic_string<char, std::__ndk1::char_traits<char>, std::__ndk1::allocator<char> >, std::__ndk1::shared_ptr<geode::Hook> >, void*>, std::__ndk1::__tree_node_destructor<std::__ndk1::allocator<std::__ndk1::__tree_node<std::__ndk1::__value_type<std::__ndk1::basic_string<char, std::__ndk1::char_traits<char>, std::__ndk1::allocator<char> >, std::__ndk1::shared_ptr<geode::Hook> >, void*> > > >::~unique_ptr[abi:ne180000]()
PUBLIC 40630 0 std::__ndk1::__tree_balance_after_insert[abi:ne180000]<std::__ndk1::__tree_node_base<void*>*>(std::__ndk1::__tree_node_base<void*>*, std::__ndk1::__tree_node_base<void*>*)
PUBLIC 407e0 0 tulip::hook::AbstractFunction::from<bool, MyCCMenuItemSpriteExtra*, cocos2d::CCNode*, cocos2d::CCNode*, cocos2d::CCObject*, void (cocos2d::CCObject::*)(cocos2d::CCObject*)>(bool (*)(MyCCMenuItemSpriteExtra*, cocos2d::CCNode*, cocos2d::CCNode*, cocos2d::CCObject*, void (cocos2d::CCObject::*)(cocos2d::CCObject*)))
PUBLIC 40bc0 0 geode::modifier::ModifyBase<geode::modifier::ModifyDerive<MyCCMenuItemToggler, CCMenuItemToggler> >::ModifyBase()
PUBLIC 40fbc 0 geode::modifier::ModifyDerive<MyCCMenuItemToggler, CCMenuItemToggler>::apply()
PUBLIC 4125c 0 geode::modifier::ModifyBase<geode::modifier::ModifyDerive<MyCCMenuItemToggler, CCMenuItemToggler> >::apply()
PUBLIC 41260 0 geode::Hook::create<CCMenuItemToggler* (*)(cocos2d::CCNode*, cocos2d::CCNode*, cocos2d::CCObject*, void (cocos2d::CCObject::*)(cocos2d::CCObject*))>(void*, CCMenuItemToggler* (*)(cocos2d::CCNode*, cocos2d::CCNode*, cocos2d::CCObject*, void (cocos2d::CCObject::*)(cocos2d::CCObject*)), std::__ndk1::basic_string<char, std::__ndk1::char_traits<char>, std::__ndk1::allocator<char> > const&, tulip::hook::TulipConvention, tulip::hook::HookMetadata const&)
PUBLIC 41378 0 geode::modifier::AsStaticFunction_create<MyCCMenuItemToggler, CCMenuItemToggler* (*)(cocos2d::CCNode*, cocos2d::CCNode*, cocos2d::CCObject*, void (cocos2d::CCObject::*)(cocos2d::CCObject*))>::Impl<CCMenuItemToggler* (*)(cocos2d::CCNode*, cocos2d::CCNode*, cocos2d::CCObject*, void (cocos2d::CCObject::*)(cocos2d::CCObject*))>::function(cocos2d::CCNode*, cocos2d::CCNode*, cocos2d::CCObject*, void (cocos2d::CCObject::*)(cocos2d::CCObject*))
PUBLIC 413cc 0 tulip::hook::AbstractFunction::from<CCMenuItemToggler*, cocos2d::CCNode*, cocos2d::CCNode*, cocos2d::CCObject*, void (cocos2d::CCObject::*)(cocos2d::CCObject*)>(CCMenuItemToggler* (*)(cocos2d::CCNode*, cocos2d::CCNode*, cocos2d::CCObject*, void (cocos2d::CCObject::*)(cocos2d::CCObject*)))
PUBLIC 4169c 0 geode::modifier::FieldIntermediate<MyCCMenuItemToggler, CCMenuItemToggler>::self()
PUBLIC 41828 0 geode::modifier::FieldIntermediate<MyCCMenuItemToggler, CCMenuItemToggler>::fieldDestructor(void*)
PUBLIC 4182c 0 geode::modifier::ModifyDerive<hook16<(anonymous namespace)::hook16Parent>, MenuLayer>::apply()
PUBLIC 41b34 0 geode::modifier::ModifyBase<geode::modifier::ModifyDerive<hook16<(anonymous namespace)::hook16Parent>, MenuLayer> >::apply()
PUBLIC 41b38 0 geode::modifier::AsStaticFunction_init<hook16<(anonymous namespace)::hook16Parent>, bool (hook16<(anonymous namespace)::hook16Parent>::*)()>::Impl<bool (hook16<(anonymous namespace)::hook16Parent>::*)()>::function(hook16<(anonymous namespace)::hook16Parent>*)
PUBLIC 42028 0 geode::addresser::Addresser::addressOfVirtual<bool, MenuLayer, >(bool (MenuLayer::*)())
PUBLIC 420d0 0 MenuLayer::MenuLayer(geode::ZeroConstructorType)
PUBLIC 4216c 0 geode::Mod::getSettingValue<bool>(std::__ndk1::basic_string_view<char, std::__ndk1::char_traits<char> >) const
PUBLIC 422a0 0 geode::cast::traverseTypeinfoFor(void*, geode::cast::ClassTypeinfoType const*, char const*)
PUBLIC 423a4 0 cocos2d::CCInteger::~CCInteger()
PUBLIC 423c8 0 cocos2d::CCInteger::acceptVisitor(cocos2d::CCDataVisitor&)
PUBLIC 423e0 0 cocos2d::CCObject::update(float)
PUBLIC 423e4 0 geode::modifier::ModifyDerive<MyMenuLayer, MenuLayer>::apply()
PUBLIC 429ac 0 geode::modifier::ModifyBase<geode::modifier::ModifyDerive<MyMenuLayer, MenuLayer> >::apply()
PUBLIC 429b0 0 std::__ndk1::__tree<std::__ndk1::__value_type<std::__ndk1::basic_string<char, std::__ndk1::char_traits<char>, std::__ndk1::allocator<char> >, std::__ndk1::shared_ptr<geode::Hook> >, std::__ndk1::__map_value_compare<std::__ndk1::basic_string<char, std::__ndk1::char_traits<char>, std::__ndk1::allocator<char> >, std::__ndk1::__value_type<std::__ndk1::basic_string<char, std::__ndk1::char_traits<char>, std::__ndk1::allocator<char> >, std::__ndk1::shared_ptr<geode::Hook> >, std::__ndk1::less<std::__ndk1::basic_string<char, std::__ndk1::char_traits<char>, std::__ndk1::allocator<char> > >, true>, std::__ndk1::allocator<std::__ndk1::__value_type<std::__ndk1::basic_string<char, std::__ndk1::char_traits<char>, std::__ndk1::allocator<char> >, std::__ndk1::shared_ptr<geode::Hook> > > >::__emplace_unique_key_args<std::__ndk1::basic_string<char, std::__ndk1::char_traits<char>, std::__ndk1::allocator<char> >, std::__ndk1::piecewise_construct_t const&, std::__ndk1::tuple<std::__ndk1::basic_string<char, std::__ndk1::char_traits<char>, std::__ndk1::allocator<char> > const&>, std::__ndk1::tuple<> >(std::__ndk1::basic_string<char, std::__ndk1::char_traits<char>, std::__ndk1::allocator<char> > const&, std::__ndk1::piecewise_construct_t const&, std::__ndk1::tuple<std::__ndk1::basic_string<char, std::__ndk1::char_traits<char>, std::__ndk1::allocator<char> > const&>, std::__ndk1::tuple<>)
PUBLIC 42b84 0 _ZN5geode15UnwrapExceptionC2IRNSt6__ndk112basic_stringIcNS2_11char_traitsIcEENS2_9allocatorIcEEEEQsr4implE18IsStringStreamableIT_EEENS_4impl6ErrTagEOSA_
PUBLIC 42cec 0 geode::modifier::AsStaticFunction_init<MyMenuLayer, bool (MyMenuLayer::*)()>::Impl<bool (MyMenuLayer::*)()>::function(MyMenuLayer*)
PUBLIC 42cf0 0 geode::modifier::AsStaticFunction_onMyProfile<MyMenuLayer, void (MyMenuLayer::*)(cocos2d::CCObject*)>::Impl<void (MyMenuLayer::*)(cocos2d::CCObject*)>::function(MyMenuLayer*, cocos2d::CCObject*)
PUBLIC 42d18 0 MyMenuLayer::init()
PUBLIC 45c64 0 MyMenuLayer::onMods(cocos2d::CCObject*)
PUBLIC 45c68 0 MyMenuLayer::onExit(cocos2d::CCObject*)
PUBLIC 45dcc 0 MyMenuLayer::onMyProfile(cocos2d::CCObject*)
PUBLIC 45df4 0 MyMenuLayer::onExtras(cocos2d::CCObject*)
PUBLIC 45e24 0 MyMenuLayer::setPositions(cocos2d::CCSize)
PUBLIC 46470 0 MyMenuLayer::setAllVisible(float)
PUBLIC 469ac 0 MyMenuLayer::myUpdate(float)
PUBLIC 46a54 0 std::__ndk1::basic_string<char, std::__ndk1::char_traits<char>, std::__ndk1::allocator<char> >::__throw_out_of_range[abi:ne180000]() const
PUBLIC 46a68 0 std::__ndk1::__function::__func<MyMenuLayer::init()::{lambda()#1}, std::__ndk1::allocator<MyMenuLayer::init()::{lambda()#1}>, void ()>::~__func()
PUBLIC 46a88 0 std::__ndk1::__function::__func<MyMenuLayer::init()::{lambda()#1}, std::__ndk1::allocator<MyMenuLayer::init()::{lambda()#1}>, void ()>::~__func()
PUBLIC 46ac8 0 std::__ndk1::__function::__func<MyMenuLayer::init()::{lambda()#1}, std::__ndk1::allocator<MyMenuLayer::init()::{lambda()#1}>, void ()>::__clone() const
PUBLIC 46b48 0 std::__ndk1::__function::__func<MyMenuLayer::init()::{lambda()#1}, std::__ndk1::allocator<MyMenuLayer::init()::{lambda()#1}>, void ()>::__clone(std::__ndk1::__function::__base<void ()>*) const
PUBLIC 46b84 0 std::__ndk1::__function::__func<MyMenuLayer::init()::{lambda()#1}, std::__ndk1::allocator<MyMenuLayer::init()::{lambda()#1}>, void ()>::destroy()
PUBLIC 46b98 0 std::__ndk1::__function::__func<MyMenuLayer::init()::{lambda()#1}, std::__ndk1::allocator<MyMenuLayer::init()::{lambda()#1}>, void ()>::destroy_deallocate()
PUBLIC 46bcc 0 std::__ndk1::__function::__func<MyMenuLayer::init()::{lambda()#1}, std::__ndk1::allocator<MyMenuLayer::init()::{lambda()#1}>, void ()>::operator()()
PUBLIC 46cb4 0 std::__ndk1::__function::__func<MyMenuLayer::init()::{lambda()#1}, std::__ndk1::allocator<MyMenuLayer::init()::{lambda()#1}>, void ()>::target(std::type_info const&) const
PUBLIC 46cd0 0 std::__ndk1::__function::__func<MyMenuLayer::init()::{lambda()#1}, std::__ndk1::allocator<MyMenuLayer::init()::{lambda()#1}>, void ()>::target_type() const
PUBLIC 46cdc 0 std::__ndk1::__function::__func<MyMenuLayer::onExit(cocos2d::CCObject*)::{lambda(FLAlertLayer*, bool)#1}, std::__ndk1::allocator<MyMenuLayer::onExit(cocos2d::CCObject*)::{lambda(FLAlertLayer*, bool)#1}>, void (FLAlertLayer*, bool)>::~__func()
PUBLIC 46ce0 0 std::__ndk1::__function::__func<MyMenuLayer::onExit(cocos2d::CCObject*)::{lambda(FLAlertLayer*, bool)#1}, std::__ndk1::allocator<MyMenuLayer::onExit(cocos2d::CCObject*)::{lambda(FLAlertLayer*, bool)#1}>, void (FLAlertLayer*, bool)>::__clone() const
PUBLIC 46d14 0 std::__ndk1::__function::__func<MyMenuLayer::onExit(cocos2d::CCObject*)::{lambda(FLAlertLayer*, bool)#1}, std::__ndk1::allocator<MyMenuLayer::onExit(cocos2d::CCObject*)::{lambda(FLAlertLayer*, bool)#1}>, void (FLAlertLayer*, bool)>::__clone(std::__ndk1::__function::__base<void (FLAlertLayer*, bool)>*) const
PUBLIC 46d28 0 std::__ndk1::__function::__func<MyMenuLayer::onExit(cocos2d::CCObject*)::{lambda(FLAlertLayer*, bool)#1}, std::__ndk1::allocator<MyMenuLayer::onExit(cocos2d::CCObject*)::{lambda(FLAlertLayer*, bool)#1}>, void (FLAlertLayer*, bool)>::destroy()
PUBLIC 46d2c 0 std::__ndk1::__function::__func<MyMenuLayer::onExit(cocos2d::CCObject*)::{lambda(FLAlertLayer*, bool)#1}, std::__ndk1::allocator<MyMenuLayer::onExit(cocos2d::CCObject*)::{lambda(FLAlertLayer*, bool)#1}>, void (FLAlertLayer*, bool)>::destroy_deallocate()
PUBLIC 46d30 0 std::__ndk1::__function::__func<MyMenuLayer::onExit(cocos2d::CCObject*)::{lambda(FLAlertLayer*, bool)#1}, std::__ndk1::allocator<MyMenuLayer::onExit(cocos2d::CCObject*)::{lambda(FLAlertLayer*, bool)#1}>, void (FLAlertLayer*, bool)>::operator()(FLAlertLayer*&&, bool&&)
PUBLIC 46d44 0 std::__ndk1::__function::__func<MyMenuLayer::onExit(cocos2d::CCObject*)::{lambda(FLAlertLayer*, bool)#1}, std::__ndk1::allocator<MyMenuLayer::onExit(cocos2d::CCObject*)::{lambda(FLAlertLayer*, bool)#1}>, void (FLAlertLayer*, bool)>::target(std::type_info const&) const
PUBLIC 46d60 0 std::__ndk1::__function::__func<MyMenuLayer::onExit(cocos2d::CCObject*)::{lambda(FLAlertLayer*, bool)#1}, std::__ndk1::allocator<MyMenuLayer::onExit(cocos2d::CCObject*)::{lambda(FLAlertLayer*, bool)#1}>, void (FLAlertLayer*, bool)>::target_type() const
PUBLIC 46d6c 0 Utils::random(int, int)
PUBLIC 46f90 0 std::__ndk1::__independent_bits_engine<std::__ndk1::mersenne_twister_engine<unsigned long, (unsigned long)32, (unsigned long)624, (unsigned long)397, (unsigned long)31, (unsigned long)2567483615, (unsigned long)11, (unsigned long)4294967295, (unsigned long)7, (unsigned long)2636928640, (unsigned long)15, (unsigned long)4022730752, (unsigned long)18, (unsigned long)1812433253>, unsigned int>::__eval(std::__ndk1::integral_constant<bool, true>)
PUBLIC 47190 0 std::__ndk1::basic_stringstream<wchar_t, std::__ndk1::char_traits<wchar_t>, std::__ndk1::allocator<wchar_t> >::~basic_stringstream()
PUBLIC 47224 0 std::__ndk1::basic_ifstream<wchar_t, std::__ndk1::char_traits<wchar_t> >::~basic_ifstream()
PUBLIC 47270 0 _ZNSt6__ndk112basic_stringIcNS_11char_traitsIcEENS_9allocatorIcEEE6appendB8ne180000IPKcTnNS_9enable_ifIXsr31__has_forward_iterator_categoryIT_EE5valueEiE4typeELi0EEERS5_SA_SA_
PUBLIC 47574 0 std::__ndk1::basic_filebuf<wchar_t, std::__ndk1::char_traits<wchar_t> >::~basic_filebuf()
PUBLIC 4762c 0 std::__ndk1::basic_ifstream<wchar_t, std::__ndk1::char_traits<wchar_t> >::~basic_ifstream()
PUBLIC 47680 0 {virtual override thunk({virtual offset(0, -24)}, std::__ndk1::basic_ifstream<wchar_t, std::__ndk1::char_traits<wchar_t> >::~basic_ifstream())}
PUBLIC 476d8 0 {virtual override thunk({virtual offset(0, -24)}, std::__ndk1::basic_ifstream<wchar_t, std::__ndk1::char_traits<wchar_t> >::~basic_ifstream())}
PUBLIC 47738 0 std::__ndk1::basic_filebuf<wchar_t, std::__ndk1::char_traits<wchar_t> >::~basic_filebuf()
PUBLIC 4775c 0 std::__ndk1::basic_filebuf<wchar_t, std::__ndk1::char_traits<wchar_t> >::imbue(std::__ndk1::locale const&)
PUBLIC 4786c 0 std::__ndk1::basic_filebuf<wchar_t, std::__ndk1::char_traits<wchar_t> >::setbuf(wchar_t*, long)
PUBLIC 4799c 0 std::__ndk1::basic_filebuf<wchar_t, std::__ndk1::char_traits<wchar_t> >::seekoff(long long, std::__ndk1::ios_base::seekdir, unsigned int)
PUBLIC 47a6c 0 std::__ndk1::basic_filebuf<wchar_t, std::__ndk1::char_traits<wchar_t> >::seekpos(std::__ndk1::fpos<mbstate_t>, unsigned int)
PUBLIC 47aec 0 std::__ndk1::basic_filebuf<wchar_t, std::__ndk1::char_traits<wchar_t> >::sync()
PUBLIC 47d08 0 std::__ndk1::basic_filebuf<wchar_t, std::__ndk1::char_traits<wchar_t> >::underflow()
PUBLIC 47fb4 0 std::__ndk1::basic_filebuf<wchar_t, std::__ndk1::char_traits<wchar_t> >::pbackfail(unsigned int)
PUBLIC 48010 0 std::__ndk1::basic_filebuf<wchar_t, std::__ndk1::char_traits<wchar_t> >::overflow(unsigned int)
PUBLIC 4827c 0 std::__ndk1::__throw_bad_cast[abi:ne180000]()
PUBLIC 482b0 0 std::__ndk1::basic_iostream<wchar_t, std::__ndk1::char_traits<wchar_t> >::~basic_iostream()
PUBLIC 482f0 0 std::__ndk1::basic_iostream<wchar_t, std::__ndk1::char_traits<wchar_t> >::~basic_iostream()
PUBLIC 48338 0 {virtual override thunk({offset(-16)}, std::__ndk1::basic_iostream<wchar_t, std::__ndk1::char_traits<wchar_t> >::~basic_iostream())}
PUBLIC 48380 0 {virtual override thunk({offset(-16)}, std::__ndk1::basic_iostream<wchar_t, std::__ndk1::char_traits<wchar_t> >::~basic_iostream())}
PUBLIC 483d0 0 {virtual override thunk({virtual offset(0, -24)}, std::__ndk1::basic_iostream<wchar_t, std::__ndk1::char_traits<wchar_t> >::~basic_iostream())}
PUBLIC 48418 0 {virtual override thunk({virtual offset(0, -24)}, std::__ndk1::basic_iostream<wchar_t, std::__ndk1::char_traits<wchar_t> >::~basic_iostream())}
PUBLIC 48468 0 std::__ndk1::basic_stringstream<wchar_t, std::__ndk1::char_traits<wchar_t>, std::__ndk1::allocator<wchar_t> >::~basic_stringstream()
PUBLIC 48504 0 {virtual override thunk({offset(-16)}, std::__ndk1::basic_stringstream<wchar_t, std::__ndk1::char_traits<wchar_t>, std::__ndk1::allocator<wchar_t> >::~basic_stringstream())}
PUBLIC 48598 0 {virtual override thunk({offset(-16)}, std::__ndk1::basic_stringstream<wchar_t, std::__ndk1::char_traits<wchar_t>, std::__ndk1::allocator<wchar_t> >::~basic_stringstream())}
PUBLIC 48634 0 {virtual override thunk({virtual offset(0, -24)}, std::__ndk1::basic_stringstream<wchar_t, std::__ndk1::char_traits<wchar_t>, std::__ndk1::allocator<wchar_t> >::~basic_stringstream())}
PUBLIC 486d0 0 {virtual override thunk({virtual offset(0, -24)}, std::__ndk1::basic_stringstream<wchar_t, std::__ndk1::char_traits<wchar_t>, std::__ndk1::allocator<wchar_t> >::~basic_stringstream())}
PUBLIC 48774 0 std::__ndk1::basic_stringbuf<wchar_t, std::__ndk1::char_traits<wchar_t>, std::__ndk1::allocator<wchar_t> >::~basic_stringbuf()
PUBLIC 487b4 0 std::__ndk1::basic_stringbuf<wchar_t, std::__ndk1::char_traits<wchar_t>, std::__ndk1::allocator<wchar_t> >::~basic_stringbuf()
PUBLIC 487f8 0 std::__ndk1::basic_stringbuf<wchar_t, std::__ndk1::char_traits<wchar_t>, std::__ndk1::allocator<wchar_t> >::seekoff(long long, std::__ndk1::ios_base::seekdir, unsigned int)
PUBLIC 4891c 0 std::__ndk1::basic_stringbuf<wchar_t, std::__ndk1::char_traits<wchar_t>, std::__ndk1::allocator<wchar_t> >::seekpos(std::__ndk1::fpos<mbstate_t>, unsigned int)
PUBLIC 48930 0 std::__ndk1::basic_stringbuf<wchar_t, std::__ndk1::char_traits<wchar_t>, std::__ndk1::allocator<wchar_t> >::underflow()
PUBLIC 48980 0 std::__ndk1::basic_stringbuf<wchar_t, std::__ndk1::char_traits<wchar_t>, std::__ndk1::allocator<wchar_t> >::pbackfail(unsigned int)
PUBLIC 489ec 0 std::__ndk1::basic_stringbuf<wchar_t, std::__ndk1::char_traits<wchar_t>, std::__ndk1::allocator<wchar_t> >::overflow(unsigned int)
PUBLIC 48ba8 0 std::__ndk1::basic_string<wchar_t, std::__ndk1::char_traits<wchar_t>, std::__ndk1::allocator<wchar_t> >::__throw_length_error[abi:ne180000]() const
PUBLIC 48bbc 0 std::__ndk1::vector<std::__ndk1::basic_string<wchar_t, std::__ndk1::char_traits<wchar_t>, std::__ndk1::allocator<wchar_t> >, std::__ndk1::allocator<std::__ndk1::basic_string<wchar_t, std::__ndk1::char_traits<wchar_t>, std::__ndk1::allocator<wchar_t> > > >::__throw_length_error[abi:ne180000]() const
PUBLIC 48bd0 0 std::__ndk1::basic_string<wchar_t, std::__ndk1::char_traits<wchar_t>, std::__ndk1::allocator<wchar_t> >::__throw_out_of_range[abi:ne180000]() const
PUBLIC 48be4 0 std::__ndk1::vector<std::__ndk1::basic_string<wchar_t, std::__ndk1::char_traits<wchar_t>, std::__ndk1::allocator<wchar_t> >, std::__ndk1::allocator<std::__ndk1::basic_string<wchar_t, std::__ndk1::char_traits<wchar_t>, std::__ndk1::allocator<wchar_t> > > >::__throw_out_of_range[abi:ne180000]() const
PUBLIC 48bf8 0 std::__ndk1::basic_string<wchar_t, std::__ndk1::char_traits<wchar_t>, std::__ndk1::allocator<wchar_t> >::__init_copy_ctor_external(wchar_t const*, unsigned long)
PUBLIC 48c94 0 std::__ndk1::__function::__base<void (FLAlertLayer*, bool)>::~__base()
PUBLIC 48c98 0 std::__ndk1::__function::__func<MyMenuLayer::setAllVisible(float)::{lambda(FLAlertLayer*, bool)#1}, std::__ndk1::allocator<MyMenuLayer::setAllVisible(float)::{lambda(FLAlertLayer*, bool)#1}>, void (FLAlertLayer*, bool)>::~__func()
PUBLIC 48c9c 0 std::__ndk1::__function::__func<MyMenuLayer::setAllVisible(float)::{lambda(FLAlertLayer*, bool)#1}, std::__ndk1::allocator<MyMenuLayer::setAllVisible(float)::{lambda(FLAlertLayer*, bool)#1}>, void (FLAlertLayer*, bool)>::__clone() const
PUBLIC 48cc0 0 std::__ndk1::__function::__func<MyMenuLayer::setAllVisible(float)::{lambda(FLAlertLayer*, bool)#1}, std::__ndk1::allocator<MyMenuLayer::setAllVisible(float)::{lambda(FLAlertLayer*, bool)#1}>, void (FLAlertLayer*, bool)>::__clone(std::__ndk1::__function::__base<void (FLAlertLayer*, bool)>*) const
PUBLIC 48cd0 0 std::__ndk1::__function::__func<MyMenuLayer::setAllVisible(float)::{lambda(FLAlertLayer*, bool)#1}, std::__ndk1::allocator<MyMenuLayer::setAllVisible(float)::{lambda(FLAlertLayer*, bool)#1}>, void (FLAlertLayer*, bool)>::destroy()
PUBLIC 48cd4 0 std::__ndk1::__function::__func<MyMenuLayer::setAllVisible(float)::{lambda(FLAlertLayer*, bool)#1}, std::__ndk1::allocator<MyMenuLayer::setAllVisible(float)::{lambda(FLAlertLayer*, bool)#1}>, void (FLAlertLayer*, bool)>::destroy_deallocate()
PUBLIC 48cd8 0 std::__ndk1::__function::__func<MyMenuLayer::setAllVisible(float)::{lambda(FLAlertLayer*, bool)#1}, std::__ndk1::allocator<MyMenuLayer::setAllVisible(float)::{lambda(FLAlertLayer*, bool)#1}>, void (FLAlertLayer*, bool)>::operator()(FLAlertLayer*&&, bool&&)
PUBLIC 48ce8 0 std::__ndk1::__function::__func<MyMenuLayer::setAllVisible(float)::{lambda(FLAlertLayer*, bool)#1}, std::__ndk1::allocator<MyMenuLayer::setAllVisible(float)::{lambda(FLAlertLayer*, bool)#1}>, void (FLAlertLayer*, bool)>::target(std::type_info const&) const
PUBLIC 48d04 0 std::__ndk1::__function::__func<MyMenuLayer::setAllVisible(float)::{lambda(FLAlertLayer*, bool)#1}, std::__ndk1::allocator<MyMenuLayer::setAllVisible(float)::{lambda(FLAlertLayer*, bool)#1}>, void (FLAlertLayer*, bool)>::target_type() const
PUBLIC 48d10 0 geode::modifier::FieldIntermediate<MyMenuLayer, MenuLayer>::self()
PUBLIC 48e9c 0 geode::modifier::FieldIntermediate<MyMenuLayer, MenuLayer>::fieldDestructor(void*)
PUBLIC 48ea0 0 geode::modifier::ModifyDerive<MyLoadingLayer, LoadingLayer>::apply()
PUBLIC 49204 0 geode::modifier::ModifyBase<geode::modifier::ModifyDerive<MyLoadingLayer, LoadingLayer> >::apply()
PUBLIC 49208 0 geode::modifier::AsStaticFunction_init<MyLoadingLayer, bool (MyLoadingLayer::*)(bool)>::Impl<bool (MyLoadingLayer::*)(bool)>::function(MyLoadingLayer*, bool)
PUBLIC 4a610 0 MyLoadingLayer::myUpdate(float)
PUBLIC 4a7ac 0 std::__ndk1::vector<std::__ndk1::basic_string<char, std::__ndk1::char_traits<char>, std::__ndk1::allocator<char> >, std::__ndk1::allocator<std::__ndk1::basic_string<char, std::__ndk1::char_traits<char>, std::__ndk1::allocator<char> > > >::vector[abi:ne180000](std::initializer_list<std::__ndk1::basic_string<char, std::__ndk1::char_traits<char>, std::__ndk1::allocator<char> > >)
PUBLIC 4a904 0 std::__ndk1::__exception_guard_exceptions<std::__ndk1::vector<std::__ndk1::basic_string<char, std::__ndk1::char_traits<char>, std::__ndk1::allocator<char> >, std::__ndk1::allocator<std::__ndk1::basic_string<char, std::__ndk1::char_traits<char>, std::__ndk1::allocator<char> > > >::__destroy_vector>::~__exception_guard_exceptions[abi:ne180000]()
PUBLIC 4a990 0 std::__ndk1::__exception_guard_exceptions<std::__ndk1::_AllocatorDestroyRangeReverse<std::__ndk1::allocator<std::__ndk1::basic_string<char, std::__ndk1::char_traits<char>, std::__ndk1::allocator<char> > >, std::__ndk1::basic_string<char, std::__ndk1::char_traits<char>, std::__ndk1::allocator<char> >*> >::~__exception_guard_exceptions[abi:ne180000]()
PUBLIC 4a9f0 0 std::__ndk1::vector<geode::Mod*, std::__ndk1::allocator<geode::Mod*> >::__throw_length_error[abi:ne180000]() const
PUBLIC 4aa04 0 std::__ndk1::__fs::filesystem::path::operator/=[abi:ne180000](std::__ndk1::__fs::filesystem::path const&)
PUBLIC 4aaec 0 std::__ndk1::basic_string<char, std::__ndk1::char_traits<char>, std::__ndk1::allocator<char> >::__assign_no_alias<true>(char const*, unsigned long)
PUBLIC 4ab98 0 std::__ndk1::basic_string<char, std::__ndk1::char_traits<char>, std::__ndk1::allocator<char> >::__assign_no_alias<false>(char const*, unsigned long)
PUBLIC 4aca8 0 geode::modifier::FieldIntermediate<MyLoadingLayer, LoadingLayer>::self()
PUBLIC 4ae48 0 geode::modifier::FieldIntermediate<MyLoadingLayer, LoadingLayer>::fieldDestructor(void*)
PUBLIC 4ae4c 0 geode::modifier::ModifyDerive<MyCreatorLayer, CreatorLayer>::apply()
PUBLIC 4b160 0 geode::modifier::ModifyBase<geode::modifier::ModifyDerive<MyCreatorLayer, CreatorLayer> >::apply()
PUBLIC 4b164 0 geode::modifier::AsStaticFunction_init<MyCreatorLayer, bool (MyCreatorLayer::*)()>::Impl<bool (MyCreatorLayer::*)()>::function(MyCreatorLayer*)
PUBLIC 4c2b4 0 geode::addresser::Addresser::addressOfVirtual<bool, CreatorLayer, >(bool (CreatorLayer::*)())
PUBLIC 4c35c 0 CreatorLayer::CreatorLayer(geode::ZeroConstructorType)
PUBLIC 4c3f4 0 geode::modifier::ModifyDerive<MyCCDirector, cocos2d::CCDirector>::apply()
PUBLIC 4c778 0 geode::modifier::ModifyBase<geode::modifier::ModifyDerive<MyCCDirector, cocos2d::CCDirector> >::apply()
PUBLIC 4c77c 0 geode::modifier::AsStaticFunction_replaceScene<MyCCDirector, bool (MyCCDirector::*)(cocos2d::CCScene*)>::Impl<bool (MyCCDirector::*)(cocos2d::CCScene*)>::function(MyCCDirector*, cocos2d::CCScene*)
PUBLIC 4c8d4 0 MyLoadingLayer::doFadeOut(float)
PUBLIC 4ca08 0 MyLoadingLayer::doChangeScene(float)
PUBLIC 4ca70 0 geode::modifier::ModifyDerive<MyFLAlertLayer, FLAlertLayer>::apply()
PUBLIC 4d98c 0 geode::modifier::ModifyBase<geode::modifier::ModifyDerive<MyFLAlertLayer, FLAlertLayer> >::apply()
PUBLIC 4d990 0 geode::modifier::AsStaticFunction_show<MyFLAlertLayer, void (MyFLAlertLayer::*)()>::Impl<void (MyFLAlertLayer::*)()>::function(MyFLAlertLayer*)
PUBLIC 4da58 0 geode::modifier::AsStaticFunction_init<MyFLAlertLayer, bool (MyFLAlertLayer::*)(FLAlertLayerProtocol*, char const*, gd::string, char const*, char const*, float, bool, float, float)>::Impl<bool (MyFLAlertLayer::*)(FLAlertLayerProtocol*, char const*, gd::string, char const*, char const*, float, bool, float, float)>::function(MyFLAlertLayer*, FLAlertLayerProtocol*, char const*, gd::string, char const*, char const*, float, bool, float, float)
PUBLIC 4f4a4 0 geode::addresser::Addresser::addressOfVirtual<void, FLAlertLayer, >(void (FLAlertLayer::*)())
PUBLIC 4f54c 0 FLAlertLayer::FLAlertLayer(geode::ZeroConstructorType)
PUBLIC 4f5cc 0 Utils::trim(std::__ndk1::basic_string<char, std::__ndk1::char_traits<char>, std::__ndk1::allocator<char> >&)
PUBLIC 4f6b0 0 std::__ndk1::basic_string<char, std::__ndk1::char_traits<char>, std::__ndk1::allocator<char> >::__erase_external_with_move(unsigned long, unsigned long)
PUBLIC 4f734 0 geode::modifier::ModifyDerive<MyPauseLayer, PauseLayer>::apply()
PUBLIC 4fa64 0 geode::modifier::ModifyBase<geode::modifier::ModifyDerive<MyPauseLayer, PauseLayer> >::apply()
PUBLIC 4fa68 0 geode::modifier::AsStaticFunction_customSetup<MyPauseLayer, void (MyPauseLayer::*)()>::Impl<void (MyPauseLayer::*)()>::function(MyPauseLayer*)
PUBLIC 51088 0 geode::addresser::Addresser::addressOfVirtual<void, PauseLayer, >(void (PauseLayer::*)())
PUBLIC 51130 0 PauseLayer::PauseLayer(geode::ZeroConstructorType)
PUBLIC 511bc 0 MyPauseLayer::onStatistics(cocos2d::CCObject*)
PUBLIC 511e4 0 MyPauseLayer::onMCOptions(cocos2d::CCObject*)
PUBLIC 51224 0 geode::modifier::ModifyDerive<MyPlayLayer, PlayLayer>::apply()
PUBLIC 515d0 0 geode::modifier::ModifyBase<geode::modifier::ModifyDerive<MyPlayLayer, PlayLayer> >::apply()
PUBLIC 515d4 0 geode::modifier::AsStaticFunction_init<MyPlayLayer, bool (MyPlayLayer::*)(GJGameLevel*, bool, bool)>::Impl<bool (MyPlayLayer::*)(GJGameLevel*, bool, bool)>::function(MyPlayLayer*, GJGameLevel*, bool, bool)
PUBLIC 51d4c 0 MyPlayLayer::updateDebugLabels(float)
PUBLIC 54b1c 0 MyPlayLayer::setFPS(float)
PUBLIC 54b5c 0 geode::modifier::FieldIntermediate<MyPlayLayer, PlayLayer>::self()
PUBLIC 54d00 0 geode::modifier::FieldIntermediate<MyPlayLayer, PlayLayer>::fieldDestructor(void*)
PUBLIC 54d94 0 Utils::splitString(std::__ndk1::basic_string<char, std::__ndk1::char_traits<char>, std::__ndk1::allocator<char> > const&, std::__ndk1::basic_string<char, std::__ndk1::char_traits<char>, std::__ndk1::allocator<char> > const&)
PUBLIC 55184 0 MyPlayLayer::createTextLayer(std::__ndk1::basic_string<char, std::__ndk1::char_traits<char>, std::__ndk1::allocator<char> >, cocos2d::CCNode*, std::__ndk1::basic_string<char, std::__ndk1::char_traits<char>, std::__ndk1::allocator<char> >)
PUBLIC 5558c 0 MyPlayLayer::getFromPos(int, std::__ndk1::vector<std::__ndk1::basic_string<char, std::__ndk1::char_traits<char>, std::__ndk1::allocator<char> >, std::__ndk1::allocator<std::__ndk1::basic_string<char, std::__ndk1::char_traits<char>, std::__ndk1::allocator<char> > > >)
PUBLIC 5578c 0 std::__ndk1::vector<std::__ndk1::basic_string<char, std::__ndk1::char_traits<char>, std::__ndk1::allocator<char> >, std::__ndk1::allocator<std::__ndk1::basic_string<char, std::__ndk1::char_traits<char>, std::__ndk1::allocator<char> > > >::__push_back_slow_path<std::__ndk1::basic_string<char, std::__ndk1::char_traits<char>, std::__ndk1::allocator<char> > >(std::__ndk1::basic_string<char, std::__ndk1::char_traits<char>, std::__ndk1::allocator<char> >&&)
PUBLIC 558f4 0 std::__ndk1::vector<std::__ndk1::basic_string<char, std::__ndk1::char_traits<char>, std::__ndk1::allocator<char> >, std::__ndk1::allocator<std::__ndk1::basic_string<char, std::__ndk1::char_traits<char>, std::__ndk1::allocator<char> > > >::__throw_out_of_range[abi:ne180000]() const
PUBLIC 55908 0 std::__ndk1::vector<std::__ndk1::basic_string<char, std::__ndk1::char_traits<char>, std::__ndk1::allocator<char> >, std::__ndk1::allocator<std::__ndk1::basic_string<char, std::__ndk1::char_traits<char>, std::__ndk1::allocator<char> > > >::__init_with_size[abi:ne180000]<std::__ndk1::basic_string<char, std::__ndk1::char_traits<char>, std::__ndk1::allocator<char> >*, std::__ndk1::vector<std::__ndk1::basic_string<char, std::__ndk1::char_traits<char>, std::__ndk1::allocator<char> >, std::__ndk1::allocator<std::__ndk1::basic_string<char, std::__ndk1::char_traits<char>, std::__ndk1::allocator<char> > > >::__init_with_size[abi:ne180000]>(std::__ndk1::basic_string<char, std::__ndk1::char_traits<char>, std::__ndk1::allocator<char> >*, std::__ndk1::vector<std::__ndk1::basic_string<char, std::__ndk1::char_traits<char>, std::__ndk1::allocator<char> >, std::__ndk1::allocator<std::__ndk1::basic_string<char, std::__ndk1::char_traits<char>, std::__ndk1::allocator<char> > > >::__init_with_size[abi:ne180000], unsigned long)
PUBLIC 55a74 0 geode::modifier::ModifyDerive<MyCCKeyboardDispatcher, cocos2d::CCKeyboardDispatcher>::apply()
PUBLIC 55e60 0 geode::modifier::ModifyBase<geode::modifier::ModifyDerive<MyCCKeyboardDispatcher, cocos2d::CCKeyboardDispatcher> >::apply()
PUBLIC 55e64 0 geode::modifier::AsStaticFunction_dispatchKeyboardMSG<MyCCKeyboardDispatcher, bool (MyCCKeyboardDispatcher::*)(cocos2d::enumKeyCodes, bool, bool)>::Impl<bool (MyCCKeyboardDispatcher::*)(cocos2d::enumKeyCodes, bool, bool)>::function(MyCCKeyboardDispatcher*, cocos2d::enumKeyCodes, bool, bool)
PUBLIC 55fe8 0 geode::modifier::ModifyDerive<MyGJDropDownLayer, GJDropDownLayer>::apply()
PUBLIC 56368 0 geode::modifier::ModifyBase<geode::modifier::ModifyDerive<MyGJDropDownLayer, GJDropDownLayer> >::apply()
PUBLIC 5636c 0 geode::modifier::AsStaticFunction_showLayer<MyGJDropDownLayer, void (MyGJDropDownLayer::*)(bool)>::Impl<void (MyGJDropDownLayer::*)(bool)>::function(MyGJDropDownLayer*, bool)
PUBLIC 5643c 0 geode::addresser::Addresser::addressOfVirtual<void, GJDropDownLayer, bool>(void (GJDropDownLayer::*)(bool))
PUBLIC 564e4 0 GJDropDownLayer::GJDropDownLayer(geode::ZeroConstructorType)
PUBLIC 5656c 0 cocos2d::CCSequence::create(cocos2d::CCFiniteTimeAction*, ...)
PUBLIC 56604 0 ExtrasLayer::init()
PUBLIC 574cc 0 ExtrasLayer::onNewgrounds(cocos2d::CCObject*)
PUBLIC 5762c 0 ExtrasLayer::onBack(cocos2d::CCObject*)
PUBLIC 57638 0 ExtrasLayer::keyBackClicked()
PUBLIC 5764c 0 {virtual override thunk({offset(-336)}, ExtrasLayer::keyBackClicked())}
PUBLIC 57660 0 ExtrasLayer::scene()
PUBLIC 57730 0 ExtrasLayer::~ExtrasLayer()
PUBLIC 57754 0 {virtual override thunk({offset(-320)}, ExtrasLayer::~ExtrasLayer())}
PUBLIC 5775c 0 {virtual override thunk({offset(-320)}, ExtrasLayer::~ExtrasLayer())}
PUBLIC 57784 0 cocos2d::CCKeyboardDelegate::keyUp(cocos2d::enumKeyCodes)
PUBLIC 57788 0 cocos2d::CCMouseDelegate::rightKeyDown()
PUBLIC 5778c 0 cocos2d::CCMouseDelegate::rightKeyUp()
PUBLIC 57790 0 cocos2d::CCMouseDelegate::scrollWheel(float, float)
PUBLIC 57794 0 Utils::generateDirtBG(cocos2d::CCSize)
PUBLIC 5790c 0 std::__ndk1::__function::__func<ExtrasLayer::onNewgrounds(cocos2d::CCObject*)::$_0, std::__ndk1::allocator<ExtrasLayer::onNewgrounds(cocos2d::CCObject*)::$_0>, void (FLAlertLayer*, bool)>::~__func()
PUBLIC 57910 0 std::__ndk1::__function::__func<ExtrasLayer::onNewgrounds(cocos2d::CCObject*)::$_0, std::__ndk1::allocator<ExtrasLayer::onNewgrounds(cocos2d::CCObject*)::$_0>, void (FLAlertLayer*, bool)>::__clone() const
PUBLIC 57934 0 std::__ndk1::__function::__func<ExtrasLayer::onNewgrounds(cocos2d::CCObject*)::$_0, std::__ndk1::allocator<ExtrasLayer::onNewgrounds(cocos2d::CCObject*)::$_0>, void (FLAlertLayer*, bool)>::__clone(std::__ndk1::__function::__base<void (FLAlertLayer*, bool)>*) const
PUBLIC 57944 0 std::__ndk1::__function::__func<ExtrasLayer::onNewgrounds(cocos2d::CCObject*)::$_0, std::__ndk1::allocator<ExtrasLayer::onNewgrounds(cocos2d::CCObject*)::$_0>, void (FLAlertLayer*, bool)>::destroy()
PUBLIC 57948 0 std::__ndk1::__function::__func<ExtrasLayer::onNewgrounds(cocos2d::CCObject*)::$_0, std::__ndk1::allocator<ExtrasLayer::onNewgrounds(cocos2d::CCObject*)::$_0>, void (FLAlertLayer*, bool)>::destroy_deallocate()
PUBLIC 5794c 0 std::__ndk1::__function::__func<ExtrasLayer::onNewgrounds(cocos2d::CCObject*)::$_0, std::__ndk1::allocator<ExtrasLayer::onNewgrounds(cocos2d::CCObject*)::$_0>, void (FLAlertLayer*, bool)>::operator()(FLAlertLayer*&&, bool&&)
PUBLIC 57a0c 0 std::__ndk1::__function::__func<ExtrasLayer::onNewgrounds(cocos2d::CCObject*)::$_0, std::__ndk1::allocator<ExtrasLayer::onNewgrounds(cocos2d::CCObject*)::$_0>, void (FLAlertLayer*, bool)>::target(std::type_info const&) const
PUBLIC 57a28 0 std::__ndk1::__function::__func<ExtrasLayer::onNewgrounds(cocos2d::CCObject*)::$_0, std::__ndk1::allocator<ExtrasLayer::onNewgrounds(cocos2d::CCObject*)::$_0>, void (FLAlertLayer*, bool)>::target_type() const
PUBLIC 57a34 0 cocos2d::CCLayerRGBA::setOpacityModifyRGB(bool)
PUBLIC 57a38 0 cocos2d::CCLayerRGBA::isOpacityModifyRGB()
PUBLIC 57a40 0 {virtual override thunk({offset(-408)}, cocos2d::CCLayerRGBA::setOpacityModifyRGB(bool))}
PUBLIC 57a44 0 {virtual override thunk({offset(-408)}, cocos2d::CCLayerRGBA::isOpacityModifyRGB())}
PUBLIC 57a4c 0 MCScrollLayer::create(std::__ndk1::basic_string<char, std::__ndk1::char_traits<char>, std::__ndk1::allocator<char> >, float, float)
PUBLIC 57bec 0 MCScrollLayer::init(std::__ndk1::basic_string<char, std::__ndk1::char_traits<char>, std::__ndk1::allocator<char> >, float, float)
PUBLIC 581d0 0 MCScrollLayer::addContent(cocos2d::CCLayer*)
PUBLIC 58590 0 geode::cocos::CCArrayExt<cocos2d::CCNode*, cocos2d::CCNode>::~CCArrayExt()
PUBLIC 585ac 0 MCScrollLayer::keyBackClicked()
PUBLIC 585c0 0 {virtual override thunk({offset(-336)}, MCScrollLayer::keyBackClicked())}
PUBLIC 585d4 0 MCScrollLayer::~MCScrollLayer()
PUBLIC 58634 0 MCScrollLayer::~MCScrollLayer()
PUBLIC 58698 0 {virtual override thunk({offset(-320)}, MCScrollLayer::~MCScrollLayer())}
PUBLIC 586f4 0 {virtual override thunk({offset(-320)}, MCScrollLayer::~MCScrollLayer())}
PUBLIC 58758 0 MCButton::create(std::__ndk1::basic_string<char, std::__ndk1::char_traits<char>, std::__ndk1::allocator<char> >, float, cocos2d::CCObject*, void (cocos2d::CCObject::*)(cocos2d::CCObject*))
PUBLIC 5898c 0 MCButton::~MCButton()
PUBLIC 589b0 0 cocos2d::CCMenu::setOpacityModifyRGB(bool)
PUBLIC 589b4 0 cocos2d::CCMenu::isOpacityModifyRGB()
PUBLIC 589bc 0 cocos2d::CCMenu::isEnabled()
PUBLIC 589c4 0 cocos2d::CCMenu::setEnabled(bool)
PUBLIC 589cc 0 {virtual override thunk({offset(-320)}, MCButton::~MCButton())}
PUBLIC 589d4 0 {virtual override thunk({offset(-320)}, MCButton::~MCButton())}
PUBLIC 589fc 0 {virtual override thunk({offset(-408)}, cocos2d::CCMenu::setOpacityModifyRGB(bool))}
PUBLIC 58a00 0 {virtual override thunk({offset(-408)}, cocos2d::CCMenu::isOpacityModifyRGB())}
PUBLIC 58a08 0 generateSprite(MCButtonChild*, std::__ndk1::basic_string<char, std::__ndk1::char_traits<char>, std::__ndk1::allocator<char> >, float)
PUBLIC 58d94 0 MCButtonChild::create(std::__ndk1::basic_string<char, std::__ndk1::char_traits<char>, std::__ndk1::allocator<char> >, float, cocos2d::CCObject*, void (cocos2d::CCObject::*)(cocos2d::CCObject*))
PUBLIC 590ec 0 setSpritesInvisible(cocos2d::CCNode*)
PUBLIC 591ac 0 setSpritesVisible(cocos2d::CCNode*)
PUBLIC 59270 0 MCButtonChild::setVisibleDelay(float)
PUBLIC 5927c 0 MCButtonChild::onHover()
PUBLIC 59368 0 MCButtonChild::onHoverExit()
PUBLIC 59454 0 MCButtonChild::unselected()
PUBLIC 59458 0 MCButtonChild::selected()
PUBLIC 5945c 0 MCButtonChild::activate()
PUBLIC 59538 0 MCButtonChild::update(float)
PUBLIC 59688 0 MCButtonChild::~MCButtonChild()
PUBLIC 596ac 0 cocos2d::CCNodeRGBA::setOpacityModifyRGB(bool)
PUBLIC 596b0 0 cocos2d::CCNodeRGBA::isOpacityModifyRGB()
PUBLIC 596b8 0 {virtual override thunk({offset(-320)}, cocos2d::CCNodeRGBA::setOpacityModifyRGB(bool))}
PUBLIC 596bc 0 {virtual override thunk({offset(-320)}, cocos2d::CCNodeRGBA::isOpacityModifyRGB())}
PUBLIC 596c4 0 std::__ndk1::__function::__base<void ()>::~__base()
PUBLIC 596c8 0 std::__ndk1::__function::__func<MCButtonChild::doClick()::$_0, std::__ndk1::allocator<MCButtonChild::doClick()::$_0>, void ()>::~__func()
PUBLIC 596cc 0 std::__ndk1::__function::__func<MCButtonChild::doClick()::$_0, std::__ndk1::allocator<MCButtonChild::doClick()::$_0>, void ()>::__clone() const
PUBLIC 59700 0 std::__ndk1::__function::__func<MCButtonChild::doClick()::$_0, std::__ndk1::allocator<MCButtonChild::doClick()::$_0>, void ()>::__clone(std::__ndk1::__function::__base<void ()>*) const
PUBLIC 59714 0 std::__ndk1::__function::__func<MCButtonChild::doClick()::$_0, std::__ndk1::allocator<MCButtonChild::doClick()::$_0>, void ()>::destroy()
PUBLIC 59718 0 std::__ndk1::__function::__func<MCButtonChild::doClick()::$_0, std::__ndk1::allocator<MCButtonChild::doClick()::$_0>, void ()>::destroy_deallocate()
PUBLIC 5971c 0 std::__ndk1::__function::__func<MCButtonChild::doClick()::$_0, std::__ndk1::allocator<MCButtonChild::doClick()::$_0>, void ()>::operator()()
PUBLIC 59750 0 std::__ndk1::__function::__func<MCButtonChild::doClick()::$_0, std::__ndk1::allocator<MCButtonChild::doClick()::$_0>, void ()>::target(std::type_info const&) const
PUBLIC 5976c 0 std::__ndk1::__function::__func<MCButtonChild::doClick()::$_0, std::__ndk1::allocator<MCButtonChild::doClick()::$_0>, void ()>::target_type() const
PUBLIC 59778 0 MCLabel::create(std::__ndk1::basic_string<char, std::__ndk1::char_traits<char>, std::__ndk1::allocator<char> >, std::__ndk1::basic_string<char, std::__ndk1::char_traits<char>, std::__ndk1::allocator<char> >)
PUBLIC 59a6c 0 MCLabel::create(std::__ndk1::basic_string<wchar_t, std::__ndk1::char_traits<wchar_t>, std::__ndk1::allocator<wchar_t> >, std::__ndk1::basic_string<char, std::__ndk1::char_traits<char>, std::__ndk1::allocator<char> >)
PUBLIC 59c5c 0 MCLabel::init(std::__ndk1::basic_string<wchar_t, std::__ndk1::char_traits<wchar_t>, std::__ndk1::allocator<wchar_t> >, std::__ndk1::basic_string<char, std::__ndk1::char_traits<char>, std::__ndk1::allocator<char> >)
PUBLIC 5a434 0 MCLabel::~MCLabel()
PUBLIC 5a458 0 std::__ndk1::vector<ColorPos, std::__ndk1::allocator<ColorPos> >::__throw_length_error[abi:ne180000]() const
PUBLIC 5a46c 0 std::__ndk1::basic_string<wchar_t, std::__ndk1::char_traits<wchar_t>, std::__ndk1::allocator<wchar_t> >::__erase_external_with_move(unsigned long, unsigned long)
PUBLIC 5a508 0 MCScrollBar::init(geode::ScrollLayer*, float)
PUBLIC 5a7b8 0 MCScrollBar::update(float)
PUBLIC 5a8d4 0 MCScrollBar::ccTouchBegan(cocos2d::CCTouch*, cocos2d::CCEvent*)
PUBLIC 5a9cc 0 {virtual override thunk({offset(-320)}, MCScrollBar::ccTouchBegan(cocos2d::CCTouch*, cocos2d::CCEvent*))}
PUBLIC 5aad4 0 MCScrollBar::ccTouchEnded(cocos2d::CCTouch*, cocos2d::CCEvent*)
PUBLIC 5aadc 0 {virtual override thunk({offset(-320)}, MCScrollBar::ccTouchEnded(cocos2d::CCTouch*, cocos2d::CCEvent*))}
PUBLIC 5aae4 0 MCScrollBar::ccTouchCancelled(cocos2d::CCTouch*, cocos2d::CCEvent*)
PUBLIC 5aaec 0 {virtual override thunk({offset(-320)}, MCScrollBar::ccTouchCancelled(cocos2d::CCTouch*, cocos2d::CCEvent*))}
PUBLIC 5aaf4 0 MCScrollBar::ccTouchMoved(cocos2d::CCTouch*, cocos2d::CCEvent*)
PUBLIC 5ac1c 0 {virtual override thunk({offset(-320)}, MCScrollBar::ccTouchMoved(cocos2d::CCTouch*, cocos2d::CCEvent*))}
PUBLIC 5ac24 0 MCScrollBar::~MCScrollBar()
PUBLIC 5ac48 0 {virtual override thunk({offset(-320)}, MCScrollBar::~MCScrollBar())}
PUBLIC 5ac50 0 {virtual override thunk({offset(-320)}, MCScrollBar::~MCScrollBar())}
PUBLIC 5ac78 0 Panorama::init()
PUBLIC 5c54c 0 geode::Mod::getSavedValue<std::__ndk1::basic_string<char, std::__ndk1::char_traits<char>, std::__ndk1::allocator<char> > >(std::__ndk1::basic_string_view<char, std::__ndk1::char_traits<char> >, std::__ndk1::basic_string<char, std::__ndk1::char_traits<char>, std::__ndk1::allocator<char> > const&)
PUBLIC 5c7f4 0 Panorama::update(float)
PUBLIC 5c864 0 Panorama::draw()
PUBLIC 5c9a4 0 Panorama::~Panorama()
PUBLIC 5c9c8 0 std::__ndk1::__split_buffer<ImageData, std::__ndk1::allocator<ImageData>&>::~__split_buffer()
PUBLIC 5ca30 0 std::__ndk1::vector<ImageData, std::__ndk1::allocator<ImageData> >::__throw_length_error[abi:ne180000]() const
PUBLIC 5ca44 0 Shader::setup(std::__ndk1::basic_string<char, std::__ndk1::char_traits<char>, std::__ndk1::allocator<char> >, std::__ndk1::basic_string<char, std::__ndk1::char_traits<char>, std::__ndk1::allocator<char> >)
PUBLIC 5cd94 0 Shader::setup(std::__ndk1::basic_string<char, std::__ndk1::char_traits<char>, std::__ndk1::allocator<char> >, std::__ndk1::basic_string<char, std::__ndk1::char_traits<char>, std::__ndk1::allocator<char> >)::$_0::operator()(unsigned int) const
PUBLIC m 5ceac 0 geodeImplicitEntry
PUBLIC 5cee8 0 std::__ndk1::unordered_map<void*, bool, std::__ndk1::hash<void*>, std::__ndk1::equal_to<void*>, std::__ndk1::allocator<std::__ndk1::pair<void* const, bool> > >::~unordered_map[abi:ne180000]()
PUBLIC 5cf34 0 wrapFunction(unsigned long, tulip::hook::WrapperMetadata const&)
PUBLIC 5d068 0 geode::impl::ResultData<void*, std::__ndk1::basic_string<char, std::__ndk1::char_traits<char>, std::__ndk1::allocator<char> > >::unwrapErr() &
PUBLIC 5d0e0 0 geode::impl::ResultData<void*, std::__ndk1::basic_string<char, std::__ndk1::char_traits<char>, std::__ndk1::allocator<char> > >::~ResultData()
PUBLIC 5d154 0 tulip::hook::WrapperMetadata::~WrapperMetadata()
PUBLIC 5d1b8 0 cocos2d::CCObject::CCObject()
PUBLIC 5d3dc 0 cocos2d::CCObject::~CCObject()
PUBLIC 5d400 0 cocos2d::CCNode::CCNode()
PUBLIC 5d65c 0 cocos2d::CCNode::~CCNode()
PUBLIC 5d680 0 cocos2d::CCNodeRGBA::CCNodeRGBA()
PUBLIC 5d8ec 0 cocos2d::CCNodeRGBA::~CCNodeRGBA()
PUBLIC 5d910 0 cocos2d::CCLayer::CCLayer()
PUBLIC 5db94 0 {virtual override thunk({offset(-320)}, cocos2d::CCLayer::~CCLayer())}
PUBLIC 5db9c 0 cocos2d::CCLayer::~CCLayer()
PUBLIC 5dbc0 0 {virtual override thunk({offset(-320)}, cocos2d::CCLayer::~CCLayer())}
PUBLIC 5dbe8 0 cocos2d::CCLayerRGBA::CCLayerRGBA()
PUBLIC 5de74 0 cocos2d::CCLayerRGBA::~CCLayerRGBA()
PUBLIC 5e174 0 {virtual override thunk({offset(-320)}, cocos2d::CCLayerRGBA::~CCLayerRGBA())}
PUBLIC 5e17c 0 cocos2d::CCLayerRGBA::~CCLayerRGBA()
PUBLIC 5e1a0 0 {virtual override thunk({offset(-320)}, cocos2d::CCLayerRGBA::~CCLayerRGBA())}
PUBLIC 5e1c8 0 cocos2d::CCLayerColor::CCLayerColor()
PUBLIC 5e42c 0 {virtual override thunk({offset(-320)}, cocos2d::CCLayerColor::~CCLayerColor())}
PUBLIC 5e434 0 cocos2d::CCLayerColor::~CCLayerColor()
PUBLIC 5e458 0 {virtual override thunk({offset(-320)}, cocos2d::CCLayerColor::~CCLayerColor())}
PUBLIC 5e480 0 cocos2d::CCTexture2D::~CCTexture2D()
PUBLIC 5e6f0 0 cocos2d::CCTexture2D::~CCTexture2D()
PUBLIC 5e714 0 cocos2d::CCTexture2D::CCTexture2D()
PUBLIC 5e940 0 cocos2d::CCImage::CCImage()
PUBLIC 5eb64 0 cocos2d::CCImage::~CCImage()
PUBLIC 5edcc 0 cocos2d::CCImage::~CCImage()
PUBLIC 5edf0 0 cocos2d::CCSpriteBatchNode::~CCSpriteBatchNode()
PUBLIC 5f0a8 0 cocos2d::CCSpriteBatchNode::~CCSpriteBatchNode()
PUBLIC 5f0cc 0 cocos2d::CCLabelBMFont::CCLabelBMFont()
PUBLIC 5f384 0 cocos2d::CCLabelBMFont::~CCLabelBMFont()
PUBLIC 5f6bc 0 cocos2d::CCLabelBMFont::~CCLabelBMFont()
PUBLIC 5f6e0 0 cocos2d::CCDictionary::objectForKey(gd::string const&)
PUBLIC 5f830 0 tulip::hook::AbstractFunction::from<cocos2d::CCObject*, cocos2d::CCDictionary*, gd::string const&>(cocos2d::CCObject* (*)(cocos2d::CCDictionary*, gd::string const&))
PUBLIC 5f8d8 0 cocos2d::CCMenuItem::~CCMenuItem()
PUBLIC 5f8fc 0 {virtual override thunk({offset(-320)}, FLAlertLayer::~FLAlertLayer())}
PUBLIC 5f904 0 FLAlertLayer::~FLAlertLayer()
PUBLIC 5f928 0 {virtual override thunk({offset(-320)}, FLAlertLayer::~FLAlertLayer())}
PUBLIC 5f950 0 FLAlertLayer::init(FLAlertLayerProtocol*, char const*, gd::string, char const*, char const*, float, bool, float, float)
PUBLIC 5fb38 0 tulip::hook::AbstractFunction::from<bool, FLAlertLayer*, FLAlertLayerProtocol*, char const*, gd::string, char const*, char const*, float, bool, float, float>(bool (*)(FLAlertLayer*, FLAlertLayerProtocol*, char const*, gd::string, char const*, char const*, float, bool, float, float))
PUBLIC 60430 0 cocos2d::CCNodeRGBA::~CCNodeRGBA()
PUBLIC 606e8 0 cocos2d::CCMenuItem::~CCMenuItem()
PUBLIC 609a8 0 CCMenuItemSpriteExtra::~CCMenuItemSpriteExtra()
PUBLIC 609ec 0 CCMenuItemSpriteExtra::~CCMenuItemSpriteExtra()
PUBLIC 60a38 0 cocos2d::CCLayerColor::~CCLayerColor()
PUBLIC 60d1c 0 FLAlertLayer::~FLAlertLayer()
PUBLIC 61000 0 cocos2d::CCNode::~CCNode()
PUBLIC 612a0 0 cocos2d::CCLayer::~CCLayer()
PUBLIC 61590 0 cocos2d::CCObject::~CCObject()
PUBLIC 61a84 0 _ZN5geode15UnwrapExceptionC2IRPvQsr4implE18IsStringStreamableIT_EEENS_4impl5OkTagEOS4_
PUBLIC 61bd8 0 std::__ndk1::__variant_detail::__visitation::__base::__dispatcher<(unsigned long)0>::__dispatch[abi:ne180000]<std::__ndk1::__variant_detail::__dtor<std::__ndk1::__variant_detail::__traits<void*, std::__ndk1::basic_string<char, std::__ndk1::char_traits<char>, std::__ndk1::allocator<char> > >, (std::__ndk1::__variant_detail::_Trait)1>::__destroy[abi:ne180000]()::{lambda(auto:1&)#1}, std::__ndk1::__variant_detail::__base<(std::__ndk1::__variant_detail::__traits<void*, std::__ndk1::basic_string<char, std::__ndk1::char_traits<char>, std::__ndk1::allocator<char> > >)1, std::__ndk1::__variant_detail::__traits, std::__ndk1::allocator<char> >&>(std::__ndk1::__variant_detail::__dtor<std::__ndk1::__variant_detail::__traits<void*, std::__ndk1::basic_string<char, std::__ndk1::char_traits<char>, std::__ndk1::allocator<char> > >, (std::__ndk1::__variant_detail::_Trait)1>, std::__ndk1::__variant_detail::__base<(std::__ndk1::__variant_detail::__traits<void*, std::__ndk1::basic_string<char, std::__ndk1::char_traits<char>, std::__ndk1::allocator<char> > >)1, std::__ndk1::__variant_detail::__traits, std::__ndk1::allocator<char> >&)
PUBLIC 61bdc 0 std::__ndk1::__variant_detail::__visitation::__base::__dispatcher<(unsigned long)1>::__dispatch[abi:ne180000]<std::__ndk1::__variant_detail::__dtor<std::__ndk1::__variant_detail::__traits<void*, std::__ndk1::basic_string<char, std::__ndk1::char_traits<char>, std::__ndk1::allocator<char> > >, (std::__ndk1::__variant_detail::_Trait)1>::__destroy[abi:ne180000]()::{lambda(auto:1&)#1}, std::__ndk1::__variant_detail::__base<(std::__ndk1::__variant_detail::__traits<void*, std::__ndk1::basic_string<char, std::__ndk1::char_traits<char>, std::__ndk1::allocator<char> > >)1, std::__ndk1::__variant_detail::__traits, std::__ndk1::allocator<char> >&>(std::__ndk1::__variant_detail::__dtor<std::__ndk1::__variant_detail::__traits<void*, std::__ndk1::basic_string<char, std::__ndk1::char_traits<char>, std::__ndk1::allocator<char> > >, (std::__ndk1::__variant_detail::_Trait)1>, std::__ndk1::__variant_detail::__base<(std::__ndk1::__variant_detail::__traits<void*, std::__ndk1::basic_string<char, std::__ndk1::char_traits<char>, std::__ndk1::allocator<char> > >)1, std::__ndk1::__variant_detail::__traits, std::__ndk1::allocator<char> >&)
PUBLIC 61bf0 0 std::__ndk1::__hash_table<std::__ndk1::__hash_value_type<void*, bool>, std::__ndk1::__unordered_map_hasher<void*, std::__ndk1::__hash_value_type<void*, bool>, std::__ndk1::hash<void*>, std::__ndk1::equal_to<void*>, true>, std::__ndk1::__unordered_map_equal<void*, std::__ndk1::__hash_value_type<void*, bool>, std::__ndk1::equal_to<void*>, std::__ndk1::hash<void*>, true>, std::__ndk1::allocator<std::__ndk1::__hash_value_type<void*, bool> > >::__emplace_unique_key_args<void*, std::__ndk1::piecewise_construct_t const&, std::__ndk1::tuple<void* const&>, std::__ndk1::tuple<> >(void* const&, std::__ndk1::piecewise_construct_t const&, std::__ndk1::tuple<void* const&>, std::__ndk1::tuple<>)
PUBLIC 620fc 0 __udivti3
PUBLIC 62108 0 __udivmodti4
PUBLIC m 62354 0 __eqtf2
PUBLIC 623f4 0 __unordtf2
PUBLIC 6242c 0 fmt::v11::detail::write_loc(fmt::v11::basic_appender<char>, fmt::v11::loc_value, fmt::v11::format_specs const&, fmt::v11::detail::locale_ref)
PUBLIC 626c0 0 fmt::v11::format_facet<std::__ndk1::locale>::~format_facet()
PUBLIC 6273c 0 fmt::v11::report_error(char const*)
PUBLIC 6278c 0 fmt::v11::format_error::runtime_error(char const*)
PUBLIC 627b8 0 fmt::v11::format_facet<std::__ndk1::locale>::do_put(fmt::v11::basic_appender<char>, fmt::v11::loc_value, fmt::v11::format_specs const&) const
PUBLIC 62f78 0 fmt::v11::detail::loc_writer<char>::~loc_writer()
PUBLIC 62fdc 0 fmt::v11::detail::vformat_to<char>(fmt::v11::detail::buffer<char>&, fmt::v11::basic_string_view<char>, fmt::v11::detail::vformat_args<char>::type, fmt::v11::detail::locale_ref)
PUBLIC 6354c 0 fmt::v11::detail::is_printable(unsigned int)
PUBLIC 63774 0 fmt::v11::detail::dragonbox::to_decimal<float>(float)
PUBLIC 63a50 0 fmt::v11::detail::dragonbox::to_decimal<double>(double)
PUBLIC 63f8c 0 fmt::v11::basic_memory_buffer<char, (unsigned long)500, std::__ndk1::allocator<char> >::grow(fmt::v11::detail::buffer<char>&, unsigned long)
PUBLIC 64004 0 fmt::v11::format_facet<std::__ndk1::locale>::~format_facet()
PUBLIC 64090 0 fmt::v11::format_error::~format_error()
PUBLIC 640b4 0 fmt::v11::detail::copy_noinline<char, char const*, fmt::v11::basic_appender<char> >(char const*, char const*, fmt::v11::basic_appender<char>)
PUBLIC 64204 0 fmt::v11::detail::default_arg_formatter<char>::operator()<bool>(bool)
PUBLIC 6426c 0 fmt::v11::detail::default_arg_formatter<char>::operator()<char>(char)
PUBLIC 642fc 0 fmt::v11::detail::default_arg_formatter<char>::operator()<float>(float)
PUBLIC 643e8 0 fmt::v11::detail::default_arg_formatter<char>::operator()<double>(double)
PUBLIC 644d4 0 fmt::v11::detail::default_arg_formatter<char>::operator()<char const*>(char const*)
PUBLIC 6451c 0 fmt::v11::detail::default_arg_formatter<char>::operator()<void const*>(void const*)
PUBLIC 645b4 0 _ZN3fmt3v116detail5writeIcNS0_14basic_appenderIcEEiTnNSt6__ndk19enable_ifIXaaaasr11is_integralIT1_EE5valuentsr3std7is_sameIS7_bEE5valuentsr3std7is_sameIS7_T_EE5valueEiE4typeELi0EEET0_SB_S7_
PUBLIC 64814 0 fmt::v11::detail::copy_noinline<char, char*, fmt::v11::basic_appender<char> >(char*, char*, fmt::v11::basic_appender<char>)
PUBLIC 64964 0 _ZN3fmt3v116detail5writeIcNS0_14basic_appenderIcEEjTnNSt6__ndk19enable_ifIXaaaasr11is_integralIT1_EE5valuentsr3std7is_sameIS7_bEE5valuentsr3std7is_sameIS7_T_EE5valueEiE4typeELi0EEET0_SB_S7_
PUBLIC 64b44 0 _ZN3fmt3v116detail5writeIcNS0_14basic_appenderIcEExTnNSt6__ndk19enable_ifIXaaaasr11is_integralIT1_EE5valuentsr3std7is_sameIS7_bEE5valuentsr3std7is_sameIS7_T_EE5valueEiE4typeELi0EEET0_SB_S7_
PUBLIC 64dc8 0 _ZN3fmt3v116detail5writeIcNS0_14basic_appenderIcEEyTnNSt6__ndk19enable_ifIXaaaasr11is_integralIT1_EE5valuentsr3std7is_sameIS7_bEE5valuentsr3std7is_sameIS7_T_EE5valueEiE4typeELi0EEET0_SB_S7_
PUBLIC 64fd0 0 _ZN3fmt3v116detail5writeIcNS0_14basic_appenderIcEEnTnNSt6__ndk19enable_ifIXaaaasr11is_integralIT1_EE5valuentsr3std7is_sameIS7_bEE5valuentsr3std7is_sameIS7_T_EE5valueEiE4typeELi0EEET0_SB_S7_
PUBLIC 65330 0 _ZN3fmt3v116detail5writeIcNS0_14basic_appenderIcEEoTnNSt6__ndk19enable_ifIXaaaasr11is_integralIT1_EE5valuentsr3std7is_sameIS7_bEE5valuentsr3std7is_sameIS7_T_EE5valueEiE4typeELi0EEET0_SB_S7_
PUBLIC 65644 0 _ZN3fmt3v116detail5writeIcNS0_14basic_appenderIcEEbTnNSt6__ndk19enable_ifIXsr3std7is_sameIT1_bEE5valueEiE4typeELi0EEET0_SA_S7_RKNS0_12format_specsENS1_10locale_refE
PUBLIC 658d4 0 fmt::v11::detail::write_int_noinline<char, fmt::v11::basic_appender<char>, unsigned int>(fmt::v11::basic_appender<char>, fmt::v11::detail::write_int_arg<unsigned int>, fmt::v11::format_specs const&, fmt::v11::detail::locale_ref)
PUBLIC 666b0 0 fmt::v11::detail::fill<char, fmt::v11::basic_appender<char> >(fmt::v11::basic_appender<char>, unsigned long, fmt::v11::detail::fill_t const&)
PUBLIC 66880 0 fmt::v11::detail::write_padded<char, (fmt::v11::align::type)1, fmt::v11::basic_appender<char>, fmt::v11::detail::write_char<char, fmt::v11::basic_appender<char> >(fmt::v11::basic_appender<char>, char, fmt::v11::format_specs const&)::{lambda(fmt::v11::basic_appender<char>&)#1}>(fmt::v11::basic_appender<char>, fmt::v11::format_specs const&, unsigned long, unsigned long, fmt::v11::detail::write_char<char, fmt::v11::basic_appender<char> >(fmt::v11::basic_appender<char>, char, fmt::v11::format_specs const&)::{lambda(fmt::v11::basic_appender<char>&)#1})
PUBLIC 66abc 0 fmt::v11::detail::write_escaped_cp<fmt::v11::basic_appender<char>, char>(fmt::v11::basic_appender<char>, fmt::v11::detail::find_escape_result<char> const&)
PUBLIC 66dc8 0 fmt::v11::detail::write_codepoint<(unsigned long)2, char, fmt::v11::basic_appender<char> >(fmt::v11::basic_appender<char>, char, unsigned int)
PUBLIC 66f40 0 fmt::v11::detail::write_codepoint<(unsigned long)8, char, fmt::v11::basic_appender<char> >(fmt::v11::basic_appender<char>, char, unsigned int)
PUBLIC 670b8 0 fmt::v11::detail::write_padded<char, (fmt::v11::align::type)1, fmt::v11::basic_appender<char>, fmt::v11::detail::write_nonfinite<char, fmt::v11::basic_appender<char> >(fmt::v11::basic_appender<char>, bool, fmt::v11::format_specs, fmt::v11::sign::type)::{lambda(fmt::v11::basic_appender<char>&)#1}>(fmt::v11::basic_appender<char>, fmt::v11::format_specs const&, unsigned long, unsigned long, fmt::v11::detail::write_nonfinite<char, fmt::v11::basic_appender<char> >(fmt::v11::basic_appender<char>, bool, fmt::v11::format_specs, fmt::v11::sign::type)::{lambda(fmt::v11::basic_appender<char>&)#1})
PUBLIC 672f8 0 fmt::v11::detail::do_write_float<char, fmt::v11::basic_appender<char>, fmt::v11::detail::dragonbox::decimal_fp<float>, fmt::v11::detail::digit_grouping<char> >(fmt::v11::basic_appender<char>, fmt::v11::detail::dragonbox::decimal_fp<float> const&, fmt::v11::format_specs const&, fmt::v11::detail::float_specs, fmt::v11::detail::locale_ref)
PUBLIC 67f6c 0 fmt::v11::detail::do_write_float<char, fmt::v11::basic_appender<char>, fmt::v11::detail::dragonbox::decimal_fp<float>, fmt::v11::detail::digit_grouping<char> >(fmt::v11::basic_appender<char>, fmt::v11::detail::dragonbox::decimal_fp<float> const&, fmt::v11::format_specs const&, fmt::v11::detail::float_specs, fmt::v11::detail::locale_ref)::{lambda(fmt::v11::basic_appender<char>(fmt::v11::basic_appender<char>))#1}::operator() const
PUBLIC 680c0 0 fmt::v11::detail::digit_grouping<char>::digit_grouping(fmt::v11::detail::locale_ref, bool)
PUBLIC 6832c 0 fmt::v11::detail::digit_grouping<char>::~digit_grouping()
PUBLIC 68370 0 fmt::v11::detail::write_exponent<char, fmt::v11::basic_appender<char> >(int, fmt::v11::basic_appender<char>)
PUBLIC 68540 0 _ZN3fmt3v116detail17write_significandIcjTnNSt6__ndk19enable_ifIXsr3std11is_integralIT0_EE5valueEiE4typeELi0EEEPT_S9_S5_iiS8_
PUBLIC 686bc 0 fmt::v11::detail::digit_grouping<char>::apply<fmt::v11::basic_appender<char>, char>(fmt::v11::basic_appender<char>, fmt::v11::basic_string_view<char>) const
PUBLIC 68a74 0 fmt::v11::basic_memory_buffer<int, (unsigned long)500, std::__ndk1::allocator<int> >::grow(fmt::v11::detail::buffer<int>&, unsigned long)
PUBLIC 68b14 0 fmt::v11::detail::do_write_float<char, fmt::v11::basic_appender<char>, fmt::v11::detail::dragonbox::decimal_fp<double>, fmt::v11::detail::digit_grouping<char> >(fmt::v11::basic_appender<char>, fmt::v11::detail::dragonbox::decimal_fp<double> const&, fmt::v11::format_specs const&, fmt::v11::detail::float_specs, fmt::v11::detail::locale_ref)
PUBLIC 697c8 0 fmt::v11::detail::do_write_float<char, fmt::v11::basic_appender<char>, fmt::v11::detail::dragonbox::decimal_fp<double>, fmt::v11::detail::digit_grouping<char> >(fmt::v11::basic_appender<char>, fmt::v11::detail::dragonbox::decimal_fp<double> const&, fmt::v11::format_specs const&, fmt::v11::detail::float_specs, fmt::v11::detail::locale_ref)::{lambda(fmt::v11::basic_appender<char>(fmt::v11::basic_appender<char>))#1}::operator() const
PUBLIC 69920 0 _ZN3fmt3v116detail17write_significandIcmTnNSt6__ndk19enable_ifIXsr3std11is_integralIT0_EE5valueEiE4typeELi0EEEPT_S9_S5_iiS8_
PUBLIC 69ab0 0 fmt::v11::detail::write_float<char, fmt::v11::basic_appender<char>, long double>(fmt::v11::basic_appender<char>, long double, fmt::v11::format_specs, fmt::v11::detail::locale_ref)
PUBLIC 6a5ac 0 fmt::v11::detail::write_padded<char, (fmt::v11::align::type)2, fmt::v11::basic_appender<char>, fmt::v11::detail::write_bytes<char, (fmt::v11::align::type)2, fmt::v11::basic_appender<char> >(fmt::v11::basic_appender<char>, fmt::v11::basic_string_view<char>, fmt::v11::format_specs const&)::{lambda(fmt::v11::basic_appender<char>&)#1}>(fmt::v11::basic_appender<char>, fmt::v11::format_specs const&, unsigned long, unsigned long, fmt::v11::detail::write_bytes<char, (fmt::v11::align::type)2, fmt::v11::basic_appender<char> >(fmt::v11::basic_appender<char>, fmt::v11::basic_string_view<char>, fmt::v11::format_specs const&)::{lambda(fmt::v11::basic_appender<char>&)#1})
PUBLIC 6a788 0 fmt::v11::detail::format_dragon(fmt::v11::detail::basic_fp<unsigned __int128>, unsigned int, int, fmt::v11::detail::buffer<char>&, int&)
PUBLIC 6bbb8 0 fmt::v11::detail::bigint::operator<<=(int)
PUBLIC 6bcdc 0 fmt::v11::detail::bigint::assign_pow10(int)
PUBLIC 6c438 0 fmt::v11::detail::bigint::divmod_assign(fmt::v11::detail::bigint const&)
PUBLIC 6c758 0 fmt::v11::basic_memory_buffer<unsigned int, (unsigned long)32, std::__ndk1::allocator<unsigned int> >::grow(fmt::v11::detail::buffer<unsigned int>&, unsigned long)
PUBLIC 6c7f8 0 fmt::v11::detail::do_write_float<char, fmt::v11::basic_appender<char>, fmt::v11::detail::big_decimal_fp, fmt::v11::detail::digit_grouping<char> >(fmt::v11::basic_appender<char>, fmt::v11::detail::big_decimal_fp const&, fmt::v11::format_specs const&, fmt::v11::detail::float_specs, fmt::v11::detail::locale_ref)
PUBLIC 6d6a8 0 fmt::v11::detail::do_write_float<char, fmt::v11::basic_appender<char>, fmt::v11::detail::big_decimal_fp, fmt::v11::detail::digit_grouping<char> >(fmt::v11::basic_appender<char>, fmt::v11::detail::big_decimal_fp const&, fmt::v11::format_specs const&, fmt::v11::detail::float_specs, fmt::v11::detail::locale_ref)::{lambda(fmt::v11::basic_appender<char>(fmt::v11::basic_appender<char>))#1}::operator() const
PUBLIC 6d808 0 fmt::v11::detail::write_padded<char, (fmt::v11::align::type)2, fmt::v11::basic_appender<char>, fmt::v11::detail::write_ptr<char, fmt::v11::basic_appender<char>, unsigned long>(fmt::v11::basic_appender<char>, unsigned long, fmt::v11::format_specs const*)::{lambda(fmt::v11::basic_appender<char>&)#1}>(fmt::v11::basic_appender<char>, fmt::v11::format_specs const&, unsigned long, unsigned long, fmt::v11::detail::write_ptr<char, fmt::v11::basic_appender<char>, unsigned long>(fmt::v11::basic_appender<char>, unsigned long, fmt::v11::format_specs const*)::{lambda(fmt::v11::basic_appender<char>&)#1})
PUBLIC 6da1c 0 fmt::v11::detail::parse_replacement_field<char, fmt::v11::detail::vformat_to<char>(fmt::v11::detail::buffer<char>&, fmt::v11::basic_string_view<char>, fmt::v11::detail::vformat_args<char>::type, fmt::v11::detail::locale_ref)::format_handler&>(char const*, char const*, fmt::v11::detail::vformat_to<char>(fmt::v11::detail::buffer<char>&, fmt::v11::basic_string_view<char>, fmt::v11::detail::vformat_args<char>::type, fmt::v11::detail::locale_ref)::format_handler&)
PUBLIC 6f6b8 0 fmt::v11::detail::parse_dynamic_spec<char>(char const*, char const*, int&, fmt::v11::detail::arg_ref<char>&, fmt::v11::basic_format_parse_context<char>&)
PUBLIC 6f948 0 fmt::v11::basic_format_args<fmt::v11::context>::get<char>(fmt::v11::basic_string_view<char>) const
PUBLIC 6faa0 0 fmt::v11::detail::write_int_noinline<char, fmt::v11::basic_appender<char>, unsigned long>(fmt::v11::basic_appender<char>, fmt::v11::detail::write_int_arg<unsigned long>, fmt::v11::format_specs const&, fmt::v11::detail::locale_ref)
PUBLIC 708f4 0 fmt::v11::detail::write_int_noinline<char, fmt::v11::basic_appender<char>, unsigned __int128>(fmt::v11::basic_appender<char>, fmt::v11::detail::write_int_arg<unsigned __int128>, fmt::v11::format_specs const&, fmt::v11::detail::locale_ref)
PUBLIC 7195c 0 _ZN3fmt3v116detail15format_hexfloatIdTnNSt6__ndk19enable_ifIXntsr16is_double_doubleIT_EE5valueEiE4typeELi0EEEvS5_NS0_12format_specsERNS1_6bufferIcEE
PUBLIC 71e7c 0 fmt::v11::detail::format_float<double>(double, int, fmt::v11::detail::float_specs, fmt::v11::detail::buffer<char>&)
PUBLIC 7281c 0 fmt::v11::detail::write<char, fmt::v11::basic_appender<char> >(fmt::v11::basic_appender<char>, fmt::v11::basic_string_view<char>, fmt::v11::format_specs const&)
PUBLIC 73b88 0 fmt::v11::detail::for_each_codepoint<fmt::v11::detail::compute_width(fmt::v11::basic_string_view<char>)::count_code_points>(fmt::v11::basic_string_view<char>, fmt::v11::detail::compute_width(fmt::v11::basic_string_view<char>)::count_code_points)::{lambda(char const*, char const*)#1}::operator()(char const*, char const*) const
PUBLIC 73d40 0 fmt::v11::detail::write_int<fmt::v11::basic_appender<char>, unsigned long, char>(fmt::v11::basic_appender<char>, unsigned long, unsigned int, fmt::v11::format_specs const&, fmt::v11::detail::digit_grouping<char> const&)
PUBLIC 742bc 0 fmt::v11::detail::write_int<fmt::v11::basic_appender<char>, unsigned __int128, char>(fmt::v11::basic_appender<char>, unsigned __int128, unsigned int, fmt::v11::format_specs const&, fmt::v11::detail::digit_grouping<char> const&)
PUBLIC 74940 0 <.plt ELF section in zalphalaneous.minecraft.android64.so>
STACK CFI INIT 342f0 10 .cfa: sp 0 +
STACK CFI INIT 34300 8 .cfa: sp 0 +
STACK CFI INIT 34308 8 .cfa: sp 0 +
STACK CFI INIT 34310 14 .cfa: sp 0 +
STACK CFI INIT 34324 1c .cfa: sp 0 +
STACK CFI INIT 34340 10 .cfa: sp 0 +
STACK CFI INIT 34350 134 .cfa: sp 0 +
STACK CFI INIT 34484 84 .cfa: sp 0 +
STACK CFI INIT 34508 f4 .cfa: sp 0 +
STACK CFI INIT 345fc a8 .cfa: sp 0 +
STACK CFI INIT 346a4 7c .cfa: sp 0 +
STACK CFI INIT 34720 14 .cfa: sp 0 +
STACK CFI INIT 34734 40 .cfa: sp 0 +
STACK CFI INIT 34774 28 .cfa: sp 0 +
STACK CFI INIT 3479c 190 .cfa: sp 0 +
STACK CFI INIT 3492c 2c8 .cfa: sp 0 +
STACK CFI INIT 34bf4 8 .cfa: sp 0 +
STACK CFI INIT 34bfc 8 .cfa: sp 0 +
STACK CFI INIT 34c04 44 .cfa: sp 0 +
STACK CFI INIT 34c48 e8 .cfa: sp 0 +
STACK CFI INIT 34d30 e8 .cfa: sp 0 +
STACK CFI INIT 34e18 14 .cfa: sp 0 +
STACK CFI INIT 34e2c 10 .cfa: sp 0 +
STACK CFI INIT 34e3c 10 .cfa: sp 0 +
STACK CFI INIT 34e4c f0 .cfa: sp 0 +
STACK CFI INIT 34f3c 44 .cfa: sp 0 +
STACK CFI INIT 34f80 c .cfa: sp 0 +
STACK CFI INIT 34f8c c .cfa: sp 0 +
STACK CFI INIT 34f98 2c .cfa: sp 0 +
STACK CFI INIT 34fc4 280 .cfa: sp 0 +
STACK CFI INIT 35244 c .cfa: sp 0 +
STACK CFI INIT 35250 120 .cfa: sp 0 +
STACK CFI INIT 35370 488 .cfa: sp 0 +
STACK CFI INIT 357f8 c48 .cfa: sp 0 +
STACK CFI INIT 36440 134 .cfa: sp 0 +
STACK CFI INIT 36574 210 .cfa: sp 0 +
STACK CFI INIT 36784 38c .cfa: sp 0 +
STACK CFI INIT 36b10 1c8 .cfa: sp 0 +
STACK CFI INIT 36cd8 9bc .cfa: sp 0 +
STACK CFI INIT 37694 2d4 .cfa: sp 0 +
STACK CFI INIT 37968 134 .cfa: sp 0 +
STACK CFI INIT 37a9c 120 .cfa: sp 0 +
STACK CFI INIT 37bbc 1c8 .cfa: sp 0 +
STACK CFI INIT 37d84 168 .cfa: sp 0 +
STACK CFI INIT 37eec fc .cfa: sp 0 +
STACK CFI INIT 37fe8 30 .cfa: sp 0 +
STACK CFI INIT 38150 30 .cfa: sp 0 +
STACK CFI INIT 38180 98 .cfa: sp 0 +
STACK CFI INIT 38218 59c .cfa: sp 0 +
STACK CFI INIT 387b4 8c .cfa: sp 0 +
STACK CFI INIT 38840 30 .cfa: sp 0 +
STACK CFI INIT 38b7c 50 .cfa: sp 0 +
STACK CFI 38b80 .cfa: sp 32 +
STACK CFI 38b88 .cfa: x29 32 + x19: .cfa -16 + ^ .ra: .cfa -24 + ^ x29: .cfa -32 + ^
STACK CFI 38ba0 .cfa: sp 32 +
STACK CFI 38ba8 .cfa: sp 0 +
STACK CFI 38bac .cfa: x29 32 +
STACK CFI 38bc0 .cfa: sp 32 +
STACK CFI 38bc8 .cfa: sp 0 +
STACK CFI INIT 38bcc 50 .cfa: sp 0 +
STACK CFI 38bd0 .cfa: sp 32 +
STACK CFI 38bd8 .cfa: x29 32 + x19: .cfa -16 + ^ .ra: .cfa -24 + ^ x29: .cfa -32 + ^
STACK CFI 38bf0 .cfa: sp 32 +
STACK CFI 38bf8 .cfa: sp 0 +
STACK CFI 38bfc .cfa: x29 32 +
STACK CFI 38c10 .cfa: sp 32 +
STACK CFI 38c18 .cfa: sp 0 +
STACK CFI INIT 38c1c 24 .cfa: sp 0 +
STACK CFI 38c20 .cfa: sp 32 +
STACK CFI 38c28 .cfa: x29 32 + x19: .cfa -16 + ^ .ra: .cfa -24 + ^ x29: .cfa -32 + ^
STACK CFI 38c34 .cfa: sp 32 +
STACK CFI 38c3c .cfa: sp 0 +
STACK CFI INIT 38c40 8 .cfa: sp 0 +
STACK CFI INIT 38c48 8 .cfa: sp 0 +
STACK CFI INIT 38c50 8 .cfa: sp 0 +
STACK CFI INIT 38c58 4 .cfa: sp 0 +
STACK CFI INIT 38c5c 8 .cfa: sp 0 +
STACK CFI INIT 38c64 70 .cfa: sp 0 +
STACK CFI 38c68 .cfa: sp 32 +
STACK CFI 38c70 .cfa: x29 32 + x19: .cfa -8 + ^ x20: .cfa -16 + ^ .ra: .cfa -24 + ^ x29: .cfa -32 + ^
STACK CFI 38ca0 .cfa: sp 32 +
STACK CFI 38ca8 .cfa: sp 0 +
STACK CFI 38cac .cfa: x29 32 +
STACK CFI 38cc8 .cfa: sp 32 +
STACK CFI 38cd0 .cfa: sp 0 +
STACK CFI INIT 38cd4 80 .cfa: sp 0 +
STACK CFI 38cd8 .cfa: sp 32 +
STACK CFI 38ce0 .cfa: x29 32 + x19: .cfa -8 + ^ x20: .cfa -16 + ^ .ra: .cfa -24 + ^ x29: .cfa -32 + ^
STACK CFI 38d18 .cfa: sp 32 +
STACK CFI 38d20 .cfa: sp 0 +
STACK CFI 38d24 .cfa: x29 32 +
STACK CFI 38d48 .cfa: sp 32 +
STACK CFI 38d50 .cfa: sp 0 +
STACK CFI INIT 38ee0 4 .cfa: sp 0 +
STACK CFI INIT 38ee4 4 .cfa: sp 0 +
STACK CFI INIT 38ee8 8 .cfa: sp 0 +
STACK CFI INIT 38ef0 8 .cfa: sp 0 +
STACK CFI INIT 396dc 34 .cfa: sp 0 +
STACK CFI 396e0 .cfa: sp 16 +
STACK CFI 396e4 .cfa: x29 16 + .ra: .cfa -8 + ^ x29: .cfa -16 + ^
STACK CFI INIT 39710 24 .cfa: sp 0 +
STACK CFI 39714 .cfa: sp 32 +
STACK CFI 3971c .cfa: x29 32 + x19: .cfa -16 + ^ .ra: .cfa -24 + ^ x29: .cfa -32 + ^
STACK CFI 39728 .cfa: sp 32 +
STACK CFI 39730 .cfa: sp 0 +
STACK CFI INIT 39734 10 .cfa: sp 0 +
STACK CFI 39738 .cfa: sp 16 +
STACK CFI 3973c .cfa: x29 16 + .ra: .cfa -8 + ^ x29: .cfa -16 + ^
STACK CFI INIT 39744 14 .cfa: sp 0 +
STACK CFI 39748 .cfa: sp 16 +
STACK CFI 3974c .cfa: x29 16 + .ra: .cfa -8 + ^ x29: .cfa -16 + ^
STACK CFI INIT 397a8 30 .cfa: sp 0 +
STACK CFI 397ac .cfa: sp 32 +
STACK CFI 397b4 .cfa: x29 32 + x19: .cfa -16 + ^ .ra: .cfa -24 + ^ x29: .cfa -32 + ^
STACK CFI 397cc .cfa: sp 32 +
STACK CFI 397d4 .cfa: sp 0 +
STACK CFI INIT 397d8 4 .cfa: sp 0 +
STACK CFI INIT 397dc 14 .cfa: sp 0 +
STACK CFI INIT 397f0 14 .cfa: sp 0 +
STACK CFI INIT 39804 14 .cfa: sp 0 +
STACK CFI INIT 39818 80 .cfa: sp 0 +
STACK CFI 3981c .cfa: sp 48 +
STACK CFI 39828 .cfa: x29 48 + x19: .cfa -8 + ^ x20: .cfa -16 + ^ x21: .cfa -24 + ^ x22: .cfa -32 + ^ .ra: .cfa -40 + ^ x29: .cfa -48 + ^
STACK CFI 39840 .cfa: sp 48 +
STACK CFI 3984c .cfa: sp 0 +
STACK CFI 39850 .cfa: x29 48 +
STACK CFI 39880 .cfa: sp 48 +
STACK CFI 3988c .cfa: sp 0 +
STACK CFI 39890 .cfa: x29 48 +
STACK CFI INIT 39a28 4 .cfa: sp 0 +
STACK CFI INIT 39a2c 14 .cfa: sp 0 +
STACK CFI INIT 39a40 34 .cfa: sp 0 +
STACK CFI 39a44 .cfa: sp 16 +
STACK CFI 39a48 .cfa: x29 16 + .ra: .cfa -8 + ^ x29: .cfa -16 + ^
STACK CFI INIT 39e88 10 .cfa: sp 0 +
STACK CFI INIT 39e98 30 .cfa: sp 0 +
STACK CFI 39e9c .cfa: sp 32 +
STACK CFI 39ea4 .cfa: x29 32 + x19: .cfa -16 + ^ .ra: .cfa -24 + ^ x29: .cfa -32 + ^
STACK CFI 39ebc .cfa: sp 32 +
STACK CFI 39ec4 .cfa: sp 0 +
STACK CFI INIT 39ec8 c .cfa: sp 0 +
STACK CFI INIT 39ed4 4 .cfa: sp 0 +
STACK CFI INIT 39ed8 4 .cfa: sp 0 +
STACK CFI INIT 39edc 4 .cfa: sp 0 +
STACK CFI INIT 39ee0 34 .cfa: sp 0 +
STACK CFI 39ee4 .cfa: sp 32 +
STACK CFI 39eec .cfa: x29 32 + x19: .cfa -16 + ^ .ra: .cfa -24 + ^ x29: .cfa -32 + ^
STACK CFI 39f08 .cfa: sp 32 +
STACK CFI 39f10 .cfa: sp 0 +
STACK CFI INIT 39f14 14 .cfa: sp 0 +
STACK CFI INIT 39f28 4 .cfa: sp 0 +
STACK CFI INIT 39f2c 4 .cfa: sp 0 +
STACK CFI INIT 39f30 14 .cfa: sp 0 +
STACK CFI INIT 39f44 1c .cfa: sp 0 +
STACK CFI INIT 39f60 c .cfa: sp 0 +
STACK CFI INIT 39f6c 4 .cfa: sp 0 +
STACK CFI INIT 39f70 14 .cfa: sp 0 +
STACK CFI INIT 3a0bc 5c .cfa: sp 0 +
STACK CFI 3a0c0 .cfa: sp 16 +
STACK CFI 3a0c4 .cfa: x29 16 + .ra: .cfa -8 + ^ x29: .cfa -16 + ^
STACK CFI 3a108 .cfa: sp 16 +
STACK CFI 3a10c .cfa: sp 0 +
STACK CFI 3a110 .cfa: sp 16 +
STACK CFI 3a114 .cfa: sp 0 +
STACK CFI INIT 3a118 7c .cfa: sp 0 +
STACK CFI 3a11c .cfa: sp 48 +
STACK CFI 3a128 .cfa: x29 48 + x19: .cfa -8 + ^ x20: .cfa -16 + ^ x21: .cfa -32 + ^ .ra: .cfa -40 + ^ x29: .cfa -48 + ^
STACK CFI 3a174 .cfa: sp 48 +
STACK CFI 3a180 .cfa: sp 0 +
STACK CFI 3a184 .cfa: sp 48 +
STACK CFI 3a190 .cfa: sp 0 +
STACK CFI INIT 3a194 5c .cfa: sp 0 +
STACK CFI 3a198 .cfa: sp 16 +
STACK CFI 3a19c .cfa: x29 16 + .ra: .cfa -8 + ^ x29: .cfa -16 + ^
STACK CFI 3a1e0 .cfa: sp 16 +
STACK CFI 3a1e4 .cfa: sp 0 +
STACK CFI 3a1e8 .cfa: sp 16 +
STACK CFI 3a1ec .cfa: sp 0 +
STACK CFI INIT 3a1f0 18 .cfa: sp 0 +
STACK CFI INIT 3a208 5c .cfa: sp 0 +
STACK CFI 3a20c .cfa: sp 16 +
STACK CFI 3a210 .cfa: x29 16 + .ra: .cfa -8 + ^ x29: .cfa -16 + ^
STACK CFI 3a254 .cfa: sp 16 +
STACK CFI 3a258 .cfa: sp 0 +
STACK CFI 3a25c .cfa: sp 16 +
STACK CFI 3a260 .cfa: sp 0 +
STACK CFI INIT 3a264 7c .cfa: sp 0 +
STACK CFI 3a268 .cfa: sp 48 +
STACK CFI 3a274 .cfa: x29 48 + x19: .cfa -8 + ^ x20: .cfa -16 + ^ x21: .cfa -32 + ^ .ra: .cfa -40 + ^ x29: .cfa -48 + ^
STACK CFI 3a2c0 .cfa: sp 48 +
STACK CFI 3a2cc .cfa: sp 0 +
STACK CFI 3a2d0 .cfa: sp 48 +
STACK CFI 3a2dc .cfa: sp 0 +
STACK CFI INIT 3a2e0 60 .cfa: sp 0 +
STACK CFI 3a2f0 .cfa: sp 32 +
STACK CFI 3a2f8 .cfa: x29 32 + x19: .cfa -16 + ^ .ra: .cfa -24 + ^ x29: .cfa -32 + ^
STACK CFI 3a330 .cfa: sp 32 +
STACK CFI 3a338 .cfa: sp 0 +
STACK CFI INIT 3a340 1c .cfa: sp 0 +
STACK CFI INIT 3a35c 60 .cfa: sp 0 +
STACK CFI 3a36c .cfa: sp 32 +
STACK CFI 3a374 .cfa: x29 32 + x19: .cfa -16 + ^ .ra: .cfa -24 + ^ x29: .cfa -32 + ^
STACK CFI 3a3ac .cfa: sp 32 +
STACK CFI 3a3b4 .cfa: sp 0 +
STACK CFI INIT 3a3bc 1c .cfa: sp 0 +
STACK CFI INIT 3a814 1c .cfa: sp 0 +
STACK CFI INIT 3ae40 1c .cfa: sp 0 +
STACK CFI INIT 3b2dc 1c .cfa: sp 0 +
STACK CFI INIT 3b908 1c .cfa: sp 0 +
STACK CFI INIT 3bda4 1c .cfa: sp 0 +
STACK CFI INIT 3c240 1c .cfa: sp 0 +
STACK CFI INIT 3c6dc 1c .cfa: sp 0 +
STACK CFI INIT 3cb78 1c .cfa: sp 0 +
STACK CFI INIT 3d014 1c .cfa: sp 0 +
STACK CFI INIT 3d4b0 1c .cfa: sp 0 +
STACK CFI INIT 3e164 50 .cfa: sp 0 +
STACK CFI 3e168 .cfa: sp 32 +
STACK CFI 3e170 .cfa: x29 32 + x19: .cfa -16 + ^ .ra: .cfa -24 + ^ x29: .cfa -32 + ^
STACK CFI 3e188 .cfa: sp 32 +
STACK CFI 3e190 .cfa: sp 0 +
STACK CFI 3e194 .cfa: x29 32 +
STACK CFI 3e1a8 .cfa: sp 32 +
STACK CFI 3e1b0 .cfa: sp 0 +
STACK CFI INIT 3e228 7c .cfa: sp 0 +
STACK CFI 3e22c .cfa: sp 48 +
STACK CFI 3e238 .cfa: x29 48 + x19: .cfa -8 + ^ x20: .cfa -16 + ^ x21: .cfa -32 + ^ .ra: .cfa -40 + ^ x29: .cfa -48 + ^
STACK CFI 3e284 .cfa: sp 48 +
STACK CFI 3e290 .cfa: sp 0 +
STACK CFI 3e294 .cfa: sp 48 +
STACK CFI 3e2a0 .cfa: sp 0 +
STACK CFI INIT 3e2a4 4 .cfa: sp 0 +
STACK CFI INIT 3e528 80 .cfa: sp 0 +
STACK CFI 3e52c .cfa: sp 48 +
STACK CFI 3e538 .cfa: x29 48 + x19: .cfa -8 + ^ x20: .cfa -16 + ^ x21: .cfa -32 + ^ .ra: .cfa -40 + ^ x29: .cfa -48 + ^
STACK CFI 3e598 .cfa: sp 48 +
STACK CFI 3e5a4 .cfa: sp 0 +
STACK CFI INIT 3e928 34 .cfa: sp 0 +
STACK CFI 3e92c .cfa: sp 32 +
STACK CFI 3e934 .cfa: x29 32 + x19: .cfa -16 + ^ .ra: .cfa -24 + ^ x29: .cfa -32 + ^
STACK CFI INIT 3ead4 148 .cfa: sp 0 +
STACK CFI 3ead8 .cfa: sp 48 +
STACK CFI 3eae4 .cfa: x29 48 + x19: .cfa -8 + ^ x20: .cfa -16 + ^ x21: .cfa -32 + ^ .ra: .cfa -40 + ^ x29: .cfa -48 + ^
STACK CFI 3ec0c .cfa: sp 48 +
STACK CFI 3ec18 .cfa: sp 0 +
STACK CFI INIT 3ee44 68 .cfa: sp 0 +
STACK CFI 3ee48 .cfa: sp 32 +
STACK CFI 3ee50 .cfa: x29 32 + x19: .cfa -8 + ^ x20: .cfa -16 + ^ .ra: .cfa -24 + ^ x29: .cfa -32 + ^
STACK CFI 3ee68 .cfa: sp 32 +
STACK CFI 3ee70 .cfa: sp 0 +
STACK CFI 3ee74 .cfa: x29 32 +
STACK CFI 3eea0 .cfa: sp 32 +
STACK CFI 3eea8 .cfa: sp 0 +
STACK CFI INIT 3eeac 14 .cfa: sp 0 +
STACK CFI 3eeb0 .cfa: sp 16 +
STACK CFI 3eeb4 .cfa: x29 16 + .ra: .cfa -8 + ^ x29: .cfa -16 + ^
STACK CFI INIT 3eec0 4 .cfa: sp 0 +
STACK CFI INIT 3eec4 14 .cfa: sp 0 +
STACK CFI INIT 3eed8 120 .cfa: sp 0 +
STACK CFI 3eedc .cfa: sp 64 +
STACK CFI 3eeec .cfa: x29 64 + x19: .cfa -8 + ^ x20: .cfa -16 + ^ x21: .cfa -24 + ^ x22: .cfa -32 + ^ x23: .cfa -40 + ^ x24: .cfa -48 + ^ .ra: .cfa -56 + ^ x29: .cfa -64 + ^
STACK CFI 3efe4 .cfa: sp 64 +
STACK CFI 3eff4 .cfa: sp 0 +
STACK CFI INIT 3eff8 d4 .cfa: sp 0 +
STACK CFI 3effc .cfa: sp 48 +
STACK CFI 3f008 .cfa: x29 48 + x19: .cfa -8 + ^ x20: .cfa -16 + ^ x21: .cfa -32 + ^ .ra: .cfa -40 + ^ x29: .cfa -48 + ^
STACK CFI 3f098 .cfa: sp 48 +
STACK CFI 3f0a4 .cfa: sp 0 +
STACK CFI 3f0a8 .cfa: x29 48 +
STACK CFI INIT 3f0cc 3c8 .cfa: sp 0 +
STACK CFI INIT 3f494 8c .cfa: sp 0 +
STACK CFI 3f49c .cfa: sp 32 +
STACK CFI 3f4a4 .cfa: x29 32 + x19: .cfa -8 + ^ x20: .cfa -16 + ^ .ra: .cfa -24 + ^ x29: .cfa -32 + ^
STACK CFI 3f4ec .cfa: sp 32 +
STACK CFI 3f4f4 .cfa: sp 0 +
STACK CFI 3f4fc .cfa: x29 32 +
STACK CFI INIT 3f654 3c .cfa: sp 0 +
STACK CFI 3f658 .cfa: sp 32 +
STACK CFI 3f660 .cfa: x29 32 + x19: .cfa -16 + ^ .ra: .cfa -24 + ^ x29: .cfa -32 + ^
STACK CFI 3f674 .cfa: sp 32 +
STACK CFI 3f67c .cfa: sp 0 +
STACK CFI 3f680 .cfa: x29 32 +
STACK CFI 3f684 .cfa: sp 32 +
STACK CFI 3f68c .cfa: sp 0 +
STACK CFI INIT 3f690 9c .cfa: sp 0 +
STACK CFI 3f694 .cfa: sp 48 +
STACK CFI 3f6a0 .cfa: x29 48 + x19: .cfa -8 + ^ x20: .cfa -16 + ^ x21: .cfa -24 + ^ x22: .cfa -32 + ^ .ra: .cfa -40 + ^ x29: .cfa -48 + ^
STACK CFI 3f6d4 .cfa: sp 48 +
STACK CFI 3f6e0 .cfa: sp 0 +
STACK CFI 3f6e4 .cfa: x29 48 +
STACK CFI 3f714 .cfa: sp 48 +
STACK CFI 3f720 .cfa: sp 0 +
STACK CFI 3f724 .cfa: x29 48 +
STACK CFI INIT 3f72c 3c .cfa: sp 0 +
STACK CFI 3f730 .cfa: sp 32 +
STACK CFI 3f738 .cfa: x29 32 + x19: .cfa -16 + ^ .ra: .cfa -24 + ^ x29: .cfa -32 + ^
STACK CFI 3f74c .cfa: sp 32 +
STACK CFI 3f754 .cfa: sp 0 +
STACK CFI 3f758 .cfa: x29 32 +
STACK CFI 3f75c .cfa: sp 32 +
STACK CFI 3f764 .cfa: sp 0 +
STACK CFI INIT 3f768 3c .cfa: sp 0 +
STACK CFI 3f76c .cfa: sp 32 +
STACK CFI 3f774 .cfa: x29 32 + x19: .cfa -16 + ^ .ra: .cfa -24 + ^ x29: .cfa -32 + ^
STACK CFI 3f788 .cfa: sp 32 +
STACK CFI 3f790 .cfa: sp 0 +
STACK CFI 3f794 .cfa: x29 32 +
STACK CFI 3f798 .cfa: sp 32 +
STACK CFI 3f7a0 .cfa: sp 0 +
STACK CFI INIT 3f8bc 4 .cfa: sp 0 +
STACK CFI INIT 3fa8c 50 .cfa: sp 0 +
STACK CFI 3fa90 .cfa: sp 32 +
STACK CFI 3fa98 .cfa: x29 32 + x19: .cfa -16 + ^ .ra: .cfa -24 + ^ x29: .cfa -32 + ^
STACK CFI 3fab0 .cfa: sp 32 +
STACK CFI 3fab8 .cfa: sp 0 +
STACK CFI 3fabc .cfa: x29 32 +
STACK CFI 3fad0 .cfa: sp 32 +
STACK CFI 3fad8 .cfa: sp 0 +
STACK CFI INIT 3fadc 64 .cfa: sp 0 +
STACK CFI 3fae0 .cfa: sp 32 +
STACK CFI 3fae8 .cfa: x29 32 + x19: .cfa -16 + ^ .ra: .cfa -24 + ^ x29: .cfa -32 + ^
STACK CFI 3fb14 .cfa: sp 32 +
STACK CFI 3fb1c .cfa: sp 0 +
STACK CFI 3fb20 .cfa: x29 32 +
STACK CFI 3fb34 .cfa: sp 32 +
STACK CFI 3fb3c .cfa: sp 0 +
STACK CFI INIT 3fb40 14 .cfa: sp 0 +
STACK CFI 3fb44 .cfa: sp 16 +
STACK CFI 3fb48 .cfa: x29 16 + .ra: .cfa -8 + ^ x29: .cfa -16 + ^
STACK CFI INIT 400a4 4 .cfa: sp 0 +
STACK CFI INIT 400a8 14 .cfa: sp 0 +
STACK CFI 400ac .cfa: sp 16 +
STACK CFI 400b0 .cfa: x29 16 + .ra: .cfa -8 + ^ x29: .cfa -16 + ^
STACK CFI INIT 402e8 14 .cfa: sp 0 +
STACK CFI 402ec .cfa: sp 16 +
STACK CFI 402f0 .cfa: x29 16 + .ra: .cfa -8 + ^ x29: .cfa -16 + ^
STACK CFI INIT 402fc 14 .cfa: sp 0 +
STACK CFI 40300 .cfa: sp 16 +
STACK CFI 40304 .cfa: x29 16 + .ra: .cfa -8 + ^ x29: .cfa -16 + ^
STACK CFI INIT 40360 30 .cfa: sp 0 +
STACK CFI 40364 .cfa: sp 32 +
STACK CFI 4036c .cfa: x29 32 + x19: .cfa -16 + ^ .ra: .cfa -24 + ^ x29: .cfa -32 + ^
STACK CFI 40384 .cfa: sp 32 +
STACK CFI 4038c .cfa: sp 0 +
STACK CFI INIT 40390 14 .cfa: sp 0 +
STACK CFI 40394 .cfa: sp 16 +
STACK CFI 40398 .cfa: x29 16 + .ra: .cfa -8 + ^ x29: .cfa -16 + ^
STACK CFI INIT 403a4 4 .cfa: sp 0 +
STACK CFI INIT 403a8 4 .cfa: sp 0 +
STACK CFI INIT 403ac 38 .cfa: sp 0 +
STACK CFI 403b0 .cfa: sp 32 +
STACK CFI 403b8 .cfa: x29 32 + x19: .cfa -16 + ^ .ra: .cfa -24 + ^ x29: .cfa -32 + ^
STACK CFI 403d8 .cfa: sp 32 +
STACK CFI 403e0 .cfa: sp 0 +
STACK CFI INIT 403e4 18 .cfa: sp 0 +
STACK CFI INIT 403fc 4 .cfa: sp 0 +
STACK CFI INIT 40400 4 .cfa: sp 0 +
STACK CFI INIT 40404 10 .cfa: sp 0 +
STACK CFI INIT 40414 1c .cfa: sp 0 +
STACK CFI INIT 40430 c .cfa: sp 0 +
STACK CFI INIT 4043c 178 .cfa: sp 0 +
STACK CFI 40440 .cfa: sp 80 +
STACK CFI 40454 .cfa: x29 80 + x19: .cfa -8 + ^ x20: .cfa -16 + ^ x21: .cfa -24 + ^ x22: .cfa -32 + ^ x23: .cfa -40 + ^ x24: .cfa -48 + ^ x25: .cfa -56 + ^ x26: .cfa -64 + ^ .ra: .cfa -72 + ^ x29: .cfa -80 + ^
STACK CFI 4059c .cfa: sp 80 +
STACK CFI 405b0 .cfa: sp 0 +
STACK CFI INIT 405b4 7c .cfa: sp 0 +
STACK CFI 405b8 .cfa: sp 32 +
STACK CFI 405c0 .cfa: x29 32 + x19: .cfa -8 + ^ x20: .cfa -16 + ^ .ra: .cfa -24 + ^ x29: .cfa -32 + ^
STACK CFI 40618 .cfa: sp 32 +
STACK CFI 40620 .cfa: sp 0 +
STACK CFI 40624 .cfa: sp 32 +
STACK CFI 4062c .cfa: sp 0 +
STACK CFI INIT 40630 1b0 .cfa: sp 0 +
STACK CFI INIT 4125c 4 .cfa: sp 0 +
STACK CFI INIT 41378 54 .cfa: sp 0 +
STACK CFI 4137c .cfa: sp 48 +
STACK CFI 41388 .cfa: x29 48 + x19: .cfa -8 + ^ x20: .cfa -16 + ^ x21: .cfa -24 + ^ x22: .cfa -32 + ^ .ra: .cfa -40 + ^ x29: .cfa -48 + ^
STACK CFI 413bc .cfa: sp 48 +
STACK CFI 413c8 .cfa: sp 0 +
STACK CFI INIT 41828 4 .cfa: sp 0 +
STACK CFI INIT 41b34 4 .cfa: sp 0 +
STACK CFI INIT 420d0 9c .cfa: sp 0 +
STACK CFI INIT 422a0 104 .cfa: sp 0 +
STACK CFI 422a4 .cfa: sp 64 +
STACK CFI 422b4 .cfa: x29 64 + x19: .cfa -8 + ^ x20: .cfa -16 + ^ x21: .cfa -24 + ^ x22: .cfa -32 + ^ x23: .cfa -48 + ^ .ra: .cfa -56 + ^ x29: .cfa -64 + ^
STACK CFI 42310 .cfa: sp 64 +
STACK CFI 42320 .cfa: sp 0 +
STACK CFI 42324 .cfa: x29 64 +
STACK CFI 42340 .cfa: sp 64 +
STACK CFI 42350 .cfa: sp 0 +
STACK CFI 42354 .cfa: x29 64 +
STACK CFI 42390 .cfa: sp 64 +
STACK CFI 423a0 .cfa: sp 0 +
STACK CFI INIT 423a4 24 .cfa: sp 0 +
STACK CFI 423a8 .cfa: sp 32 +
STACK CFI 423b0 .cfa: x29 32 + x19: .cfa -16 + ^ .ra: .cfa -24 + ^ x29: .cfa -32 + ^
STACK CFI 423bc .cfa: sp 32 +
STACK CFI 423c4 .cfa: sp 0 +
STACK CFI INIT 423c8 18 .cfa: sp 0 +
STACK CFI INIT 423e0 4 .cfa: sp 0 +
STACK CFI INIT 429ac 4 .cfa: sp 0 +
STACK CFI INIT 42cec 4 .cfa: sp 0 +
STACK CFI INIT 42cf0 28 .cfa: sp 0 +
STACK CFI 42cf4 .cfa: sp 16 +
STACK CFI 42cf8 .cfa: x29 16 + .ra: .cfa -8 + ^ x29: .cfa -16 + ^
STACK CFI 42d10 .cfa: sp 16 +
STACK CFI 42d14 .cfa: sp 0 +
STACK CFI INIT 45c64 4 .cfa: sp 0 +
STACK CFI INIT 45dcc 28 .cfa: sp 0 +
STACK CFI 45dd0 .cfa: sp 16 +
STACK CFI 45dd4 .cfa: x29 16 + .ra: .cfa -8 + ^ x29: .cfa -16 + ^
STACK CFI 45dec .cfa: sp 16 +
STACK CFI 45df0 .cfa: sp 0 +
STACK CFI INIT 45df4 30 .cfa: sp 0 +
STACK CFI 45df8 .cfa: sp 32 +
STACK CFI 45e00 .cfa: x29 32 + x19: .cfa -16 + ^ .ra: .cfa -24 + ^ x29: .cfa -32 + ^
STACK CFI 45e18 .cfa: sp 32 +
STACK CFI 45e20 .cfa: sp 0 +
STACK CFI INIT 45e24 64c .cfa: sp 0 +
STACK CFI 45e28 .cfa: sp 160 +
STACK CFI 45e48 .cfa: x29 96 + x19: .cfa -8 + ^ x20: .cfa -16 + ^ x21: .cfa -24 + ^ x22: .cfa -32 + ^ x23: .cfa -40 + ^ x24: .cfa -48 + ^ x25: .cfa -56 + ^ x26: .cfa -64 + ^ x27: .cfa -72 + ^ x28: .cfa -80 + ^ .ra: .cfa -88 + ^ x29: .cfa -96 + ^ v8: .cfa -112 + ^
STACK CFI 46448 .cfa: sp 160 +
STACK CFI 46468 .cfa: sp 0 +
STACK CFI 4646c .cfa: x29 96 +
STACK CFI INIT 469ac a8 .cfa: sp 0 +
STACK CFI 469b0 .cfa: sp 80 +
STACK CFI 469c0 .cfa: x29 32 + x19: .cfa -8 + ^ x20: .cfa -16 + ^ .ra: .cfa -24 + ^ x29: .cfa -32 + ^ v8: .cfa -40 + ^ v9: .cfa -48 + ^
STACK CFI 46a3c .cfa: sp 80 +
STACK CFI 46a4c .cfa: sp 0 +
STACK CFI 46a50 .cfa: x29 32 +
STACK CFI INIT 46a54 14 .cfa: sp 0 +
STACK CFI 46a58 .cfa: sp 16 +
STACK CFI 46a5c .cfa: x29 16 + .ra: .cfa -8 + ^ x29: .cfa -16 + ^
STACK CFI INIT 46a68 20 .cfa: sp 0 +
STACK CFI INIT 46a88 40 .cfa: sp 0 +
STACK CFI 46aa0 .cfa: sp 32 +
STACK CFI 46aa8 .cfa: x29 32 + x19: .cfa -16 + ^ .ra: .cfa -24 + ^ x29: .cfa -32 + ^
STACK CFI 46abc .cfa: sp 32 +
STACK CFI 46ac4 .cfa: sp 0 +
STACK CFI INIT 46b48 3c .cfa: sp 0 +
STACK CFI INIT 46b84 14 .cfa: sp 0 +
STACK CFI INIT 46b98 34 .cfa: sp 0 +
STACK CFI 46ba4 .cfa: sp 32 +
STACK CFI 46bac .cfa: x29 32 + x19: .cfa -16 + ^ .ra: .cfa -24 + ^ x29: .cfa -32 + ^
STACK CFI 46bc0 .cfa: sp 32 +
STACK CFI 46bc8 .cfa: sp 0 +
STACK CFI INIT 46cb4 1c .cfa: sp 0 +
STACK CFI INIT 46cd0 c .cfa: sp 0 +
STACK CFI INIT 46cdc 4 .cfa: sp 0 +
STACK CFI INIT 46ce0 34 .cfa: sp 0 +
STACK CFI 46ce4 .cfa: sp 32 +
STACK CFI 46cec .cfa: x29 32 + x19: .cfa -16 + ^ .ra: .cfa -24 + ^ x29: .cfa -32 + ^
STACK CFI 46d08 .cfa: sp 32 +
STACK CFI 46d10 .cfa: sp 0 +
STACK CFI INIT 46d14 14 .cfa: sp 0 +
STACK CFI INIT 46d28 4 .cfa: sp 0 +
STACK CFI INIT 46d2c 4 .cfa: sp 0 +
STACK CFI INIT 46d30 14 .cfa: sp 0 +
STACK CFI INIT 46d44 1c .cfa: sp 0 +
STACK CFI INIT 46d60 c .cfa: sp 0 +
STACK CFI INIT 46f90 200 .cfa: sp 0 +
STACK CFI INIT 47190 94 .cfa: sp 0 +
STACK CFI 47194 .cfa: sp 48 +
STACK CFI 471a0 .cfa: x29 48 + x19: .cfa -8 + ^ x20: .cfa -16 + ^ x21: .cfa -24 + ^ x22: .cfa -32 + ^ .ra: .cfa -40 + ^ x29: .cfa -48 + ^
STACK CFI 47214 .cfa: sp 48 +
STACK CFI 47220 .cfa: sp 0 +
STACK CFI INIT 47224 4c .cfa: sp 0 +
STACK CFI 47228 .cfa: sp 32 +
STACK CFI 47230 .cfa: x29 32 + x19: .cfa -8 + ^ x20: .cfa -16 + ^ .ra: .cfa -24 + ^ x29: .cfa -32 + ^
STACK CFI 47264 .cfa: sp 32 +
STACK CFI 4726c .cfa: sp 0 +
STACK CFI INIT 4762c 54 .cfa: sp 0 +
STACK CFI 47630 .cfa: sp 32 +
STACK CFI 47638 .cfa: x29 32 + x19: .cfa -8 + ^ x20: .cfa -16 + ^ .ra: .cfa -24 + ^ x29: .cfa -32 + ^
STACK CFI 47674 .cfa: sp 32 +
STACK CFI 4767c .cfa: sp 0 +
STACK CFI INIT 47680 58 .cfa: sp 0 +
STACK CFI 47684 .cfa: sp 32 +
STACK CFI 4768c .cfa: x29 32 + x19: .cfa -8 + ^ x20: .cfa -16 + ^ .ra: .cfa -24 + ^ x29: .cfa -32 + ^
STACK CFI 476cc .cfa: sp 32 +
STACK CFI 476d4 .cfa: sp 0 +
STACK CFI INIT 476d8 60 .cfa: sp 0 +
STACK CFI 476dc .cfa: sp 32 +
STACK CFI 476e4 .cfa: x29 32 + x19: .cfa -8 + ^ x20: .cfa -16 + ^ .ra: .cfa -24 + ^ x29: .cfa -32 + ^
STACK CFI 4772c .cfa: sp 32 +
STACK CFI 47734 .cfa: sp 0 +
STACK CFI INIT 47738 24 .cfa: sp 0 +
STACK CFI 4773c .cfa: sp 32 +
STACK CFI 47744 .cfa: x29 32 + x19: .cfa -16 + ^ .ra: .cfa -24 + ^ x29: .cfa -32 + ^
STACK CFI 47750 .cfa: sp 32 +
STACK CFI 47758 .cfa: sp 0 +
STACK CFI INIT 4775c 110 .cfa: sp 0 +
STACK CFI 47760 .cfa: sp 32 +
STACK CFI 47768 .cfa: x29 32 + x19: .cfa -8 + ^ x20: .cfa -16 + ^ .ra: .cfa -24 + ^ x29: .cfa -32 + ^
STACK CFI 477f0 .cfa: sp 32 +
STACK CFI 477f8 .cfa: sp 0 +
STACK CFI 477fc .cfa: x29 32 +
STACK CFI 47828 .cfa: sp 32 +
STACK CFI 47830 .cfa: sp 0 +
STACK CFI 47834 .cfa: x29 32 +
STACK CFI 47860 .cfa: sp 32 +
STACK CFI 47868 .cfa: sp 0 +
STACK CFI INIT 4786c 130 .cfa: sp 0 +
STACK CFI 47870 .cfa: sp 48 +
STACK CFI 4787c .cfa: x29 48 + x19: .cfa -8 + ^ x20: .cfa -16 + ^ x21: .cfa -24 + ^ x22: .cfa -32 + ^ .ra: .cfa -40 + ^ x29: .cfa -48 + ^
STACK CFI 47908 .cfa: sp 48 +
STACK CFI 47914 .cfa: sp 0 +
STACK CFI 47918 .cfa: x29 48 +
STACK CFI 47958 .cfa: sp 48 +
STACK CFI 47964 .cfa: sp 0 +
STACK CFI 47968 .cfa: x29 48 +
STACK CFI 4798c .cfa: sp 48 +
STACK CFI 47998 .cfa: sp 0 +
STACK CFI INIT 4799c d0 .cfa: sp 0 +
STACK CFI 479a0 .cfa: sp 48 +
STACK CFI 479ac .cfa: x29 48 + x19: .cfa -8 + ^ x20: .cfa -16 + ^ x21: .cfa -24 + ^ x22: .cfa -32 + ^ .ra: .cfa -40 + ^ x29: .cfa -48 + ^
STACK CFI 47a34 .cfa: sp 48 +
STACK CFI 47a40 .cfa: sp 0 +
STACK CFI 47a44 .cfa: x29 48 +
STACK CFI 47a58 .cfa: sp 48 +
STACK CFI 47a64 .cfa: sp 0 +
STACK CFI 47a68 .cfa: x29 48 +
STACK CFI INIT 47a6c 80 .cfa: sp 0 +
STACK CFI 47a70 .cfa: sp 48 +
STACK CFI 47a7c .cfa: x29 48 + x19: .cfa -8 + ^ x20: .cfa -16 + ^ x21: .cfa -32 + ^ .ra: .cfa -40 + ^ x29: .cfa -48 + ^
STACK CFI 47ac0 .cfa: sp 48 +
STACK CFI 47acc .cfa: sp 0 +
STACK CFI 47ad0 .cfa: x29 48 +
STACK CFI 47adc .cfa: sp 48 +
STACK CFI 47ae8 .cfa: sp 0 +
STACK CFI INIT 47aec 21c .cfa: sp 0 +
STACK CFI 47af0 .cfa: sp 64 +
STACK CFI 47b00 .cfa: x29 48 + x19: .cfa -8 + ^ x20: .cfa -16 + ^ x21: .cfa -24 + ^ x22: .cfa -32 + ^ .ra: .cfa -40 + ^ x29: .cfa -48 + ^
STACK CFI 47ca8 .cfa: sp 64 +
STACK CFI 47cb8 .cfa: sp 0 +
STACK CFI 47cbc .cfa: x29 48 +
STACK CFI INIT 47d08 2ac .cfa: sp 0 +
STACK CFI 47d0c .cfa: sp 96 +
STACK CFI 47d20 .cfa: x29 64 + x19: .cfa -8 + ^ x20: .cfa -16 + ^ x21: .cfa -24 + ^ x22: .cfa -32 + ^ x23: .cfa -48 + ^ .ra: .cfa -56 + ^ x29: .cfa -64 + ^
STACK CFI 47f6c .cfa: sp 96 +
STACK CFI 47f80 .cfa: sp 0 +
STACK CFI 47f84 .cfa: x29 64 +
STACK CFI INIT 47fb4 5c .cfa: sp 0 +
STACK CFI INIT 48010 26c .cfa: sp 0 +
STACK CFI 48014 .cfa: sp 112 +
STACK CFI 4802c .cfa: x29 80 + x19: .cfa -8 + ^ x20: .cfa -16 + ^ x21: .cfa -24 + ^ x22: .cfa -32 + ^ x23: .cfa -40 + ^ x24: .cfa -48 + ^ x25: .cfa -64 + ^ .ra: .cfa -72 + ^ x29: .cfa -80 + ^
STACK CFI 4825c .cfa: sp 112 +
STACK CFI 48274 .cfa: sp 0 +
STACK CFI 48278 .cfa: x29 80 +
STACK CFI INIT 4827c 34 .cfa: sp 0 +
STACK CFI 48280 .cfa: sp 32 +
STACK CFI 48288 .cfa: x29 32 + x19: .cfa -16 + ^ .ra: .cfa -24 + ^ x29: .cfa -32 + ^
STACK CFI INIT 482b0 40 .cfa: sp 0 +
STACK CFI 482b4 .cfa: sp 32 +
STACK CFI 482bc .cfa: x29 32 + x19: .cfa -8 + ^ x20: .cfa -16 + ^ .ra: .cfa -24 + ^ x29: .cfa -32 + ^
STACK CFI 482e4 .cfa: sp 32 +
STACK CFI 482ec .cfa: sp 0 +
STACK CFI INIT 482f0 48 .cfa: sp 0 +
STACK CFI 482f4 .cfa: sp 32 +
STACK CFI 482fc .cfa: x29 32 + x19: .cfa -8 + ^ x20: .cfa -16 + ^ .ra: .cfa -24 + ^ x29: .cfa -32 + ^
STACK CFI 4832c .cfa: sp 32 +
STACK CFI 48334 .cfa: sp 0 +
STACK CFI INIT 48338 48 .cfa: sp 0 +
STACK CFI 4833c .cfa: sp 48 +
STACK CFI 48348 .cfa: x29 48 + x19: .cfa -8 + ^ x20: .cfa -16 + ^ x21: .cfa -32 + ^ .ra: .cfa -40 + ^ x29: .cfa -48 + ^
STACK CFI 48370 .cfa: sp 48 +
STACK CFI 4837c .cfa: sp 0 +
STACK CFI INIT 48380 50 .cfa: sp 0 +
STACK CFI 48384 .cfa: sp 48 +
STACK CFI 48390 .cfa: x29 48 + x19: .cfa -8 + ^ x20: .cfa -16 + ^ x21: .cfa -32 + ^ .ra: .cfa -40 + ^ x29: .cfa -48 + ^
STACK CFI 483c0 .cfa: sp 48 +
STACK CFI 483cc .cfa: sp 0 +
STACK CFI INIT 483d0 48 .cfa: sp 0 +
STACK CFI 483d4 .cfa: sp 32 +
STACK CFI 483dc .cfa: x29 32 + x19: .cfa -8 + ^ x20: .cfa -16 + ^ .ra: .cfa -24 + ^ x29: .cfa -32 + ^
STACK CFI 4840c .cfa: sp 32 +
STACK CFI 48414 .cfa: sp 0 +
STACK CFI INIT 48418 50 .cfa: sp 0 +
STACK CFI 4841c .cfa: sp 32 +
STACK CFI 48424 .cfa: x29 32 + x19: .cfa -8 + ^ x20: .cfa -16 + ^ .ra: .cfa -24 + ^ x29: .cfa -32 + ^
STACK CFI 4845c .cfa: sp 32 +
STACK CFI 48464 .cfa: sp 0 +
STACK CFI INIT 48468 9c .cfa: sp 0 +
STACK CFI 4846c .cfa: sp 48 +
STACK CFI 48478 .cfa: x29 48 + x19: .cfa -8 + ^ x20: .cfa -16 + ^ x21: .cfa -24 + ^ x22: .cfa -32 + ^ .ra: .cfa -40 + ^ x29: .cfa -48 + ^
STACK CFI 484f4 .cfa: sp 48 +
STACK CFI 48500 .cfa: sp 0 +
STACK CFI INIT 48504 94 .cfa: sp 0 +
STACK CFI 48508 .cfa: sp 48 +
STACK CFI 48514 .cfa: x29 48 + x19: .cfa -8 + ^ x20: .cfa -16 + ^ x21: .cfa -24 + ^ x22: .cfa -32 + ^ .ra: .cfa -40 + ^ x29: .cfa -48 + ^
STACK CFI 48588 .cfa: sp 48 +
STACK CFI 48594 .cfa: sp 0 +
STACK CFI INIT 48598 9c .cfa: sp 0 +
STACK CFI 4859c .cfa: sp 48 +
STACK CFI 485a8 .cfa: x29 48 + x19: .cfa -8 + ^ x20: .cfa -16 + ^ x21: .cfa -24 + ^ x22: .cfa -32 + ^ .ra: .cfa -40 + ^ x29: .cfa -48 + ^
STACK CFI 48624 .cfa: sp 48 +
STACK CFI 48630 .cfa: sp 0 +
STACK CFI INIT 48634 9c .cfa: sp 0 +
STACK CFI 48638 .cfa: sp 48 +
STACK CFI 48644 .cfa: x29 48 + x19: .cfa -8 + ^ x20: .cfa -16 + ^ x21: .cfa -24 + ^ x22: .cfa -32 + ^ .ra: .cfa -40 + ^ x29: .cfa -48 + ^
STACK CFI 486c0 .cfa: sp 48 +
STACK CFI 486cc .cfa: sp 0 +
STACK CFI INIT 486d0 a4 .cfa: sp 0 +
STACK CFI 486d4 .cfa: sp 48 +
STACK CFI 486e0 .cfa: x29 48 + x19: .cfa -8 + ^ x20: .cfa -16 + ^ x21: .cfa -24 + ^ x22: .cfa -32 + ^ .ra: .cfa -40 + ^ x29: .cfa -48 + ^
STACK CFI 48764 .cfa: sp 48 +
STACK CFI 48770 .cfa: sp 0 +
STACK CFI INIT 48774 40 .cfa: sp 0 +
STACK CFI 4878c .cfa: sp 32 +
STACK CFI 48794 .cfa: x29 32 + x19: .cfa -16 + ^ .ra: .cfa -24 + ^ x29: .cfa -32 + ^
STACK CFI 487a8 .cfa: sp 32 +
STACK CFI 487b0 .cfa: sp 0 +
STACK CFI INIT 487b4 44 .cfa: sp 0 +
STACK CFI 487b8 .cfa: sp 32 +
STACK CFI 487c0 .cfa: x29 32 + x19: .cfa -16 + ^ .ra: .cfa -24 + ^ x29: .cfa -32 + ^
STACK CFI 487ec .cfa: sp 32 +
STACK CFI 487f4 .cfa: sp 0 +
STACK CFI INIT 487f8 124 .cfa: sp 0 +
STACK CFI INIT 4891c 14 .cfa: sp 0 +
STACK CFI INIT 48930 50 .cfa: sp 0 +
STACK CFI INIT 48980 6c .cfa: sp 0 +
STACK CFI INIT 48ba8 14 .cfa: sp 0 +
STACK CFI 48bac .cfa: sp 16 +
STACK CFI 48bb0 .cfa: x29 16 + .ra: .cfa -8 + ^ x29: .cfa -16 + ^
STACK CFI INIT 48bbc 14 .cfa: sp 0 +
STACK CFI 48bc0 .cfa: sp 16 +
STACK CFI 48bc4 .cfa: x29 16 + .ra: .cfa -8 + ^ x29: .cfa -16 + ^
STACK CFI INIT 48bd0 14 .cfa: sp 0 +
STACK CFI 48bd4 .cfa: sp 16 +
STACK CFI 48bd8 .cfa: x29 16 + .ra: .cfa -8 + ^ x29: .cfa -16 + ^
STACK CFI INIT 48be4 14 .cfa: sp 0 +
STACK CFI 48be8 .cfa: sp 16 +
STACK CFI 48bec .cfa: x29 16 + .ra: .cfa -8 + ^ x29: .cfa -16 + ^
STACK CFI INIT 48bf8 9c .cfa: sp 0 +
STACK CFI 48bfc .cfa: sp 48 +
STACK CFI 48c08 .cfa: x29 48 + x19: .cfa -8 + ^ x20: .cfa -16 + ^ x21: .cfa -24 + ^ x22: .cfa -32 + ^ .ra: .cfa -40 + ^ x29: .cfa -48 + ^
STACK CFI 48c24 .cfa: sp 48 +
STACK CFI 48c30 .cfa: sp 0 +
STACK CFI 48c34 .cfa: x29 48 +
STACK CFI 48c7c .cfa: sp 48 +
STACK CFI 48c88 .cfa: sp 0 +
STACK CFI 48c8c .cfa: x29 48 +
STACK CFI INIT 48c94 4 .cfa: sp 0 +
STACK CFI INIT 48c98 4 .cfa: sp 0 +
STACK CFI INIT 48c9c 24 .cfa: sp 0 +
STACK CFI 48ca0 .cfa: sp 16 +
STACK CFI 48ca4 .cfa: x29 16 + .ra: .cfa -8 + ^ x29: .cfa -16 + ^
STACK CFI 48cb8 .cfa: sp 16 +
STACK CFI 48cbc .cfa: sp 0 +
STACK CFI INIT 48cc0 10 .cfa: sp 0 +
STACK CFI INIT 48cd0 4 .cfa: sp 0 +
STACK CFI INIT 48cd4 4 .cfa: sp 0 +
STACK CFI INIT 48cd8 10 .cfa: sp 0 +
STACK CFI INIT 48ce8 1c .cfa: sp 0 +
STACK CFI INIT 48d04 c .cfa: sp 0 +
STACK CFI INIT 48e9c 4 .cfa: sp 0 +
STACK CFI INIT 49204 4 .cfa: sp 0 +
STACK CFI INIT 4a610 19c .cfa: sp 0 +
STACK CFI 4a614 .cfa: sp 64 +
STACK CFI 4a624 .cfa: x29 48 + x19: .cfa -8 + ^ x20: .cfa -16 + ^ x21: .cfa -32 + ^ .ra: .cfa -40 + ^ x29: .cfa -48 + ^ v8: .cfa -56 + ^ v9: .cfa -64 + ^
STACK CFI 4a798 .cfa: sp 64 +
STACK CFI 4a7a8 .cfa: sp 0 +
STACK CFI INIT 4a904 8c .cfa: sp 0 +
STACK CFI 4a908 .cfa: sp 48 +
STACK CFI 4a914 .cfa: x29 48 + x19: .cfa -8 + ^ x20: .cfa -16 + ^ x21: .cfa -24 + ^ x22: .cfa -32 + ^ .ra: .cfa -40 + ^ x29: .cfa -48 + ^
STACK CFI 4a91c .cfa: sp 48 +
STACK CFI 4a928 .cfa: sp 0 +
STACK CFI 4a92c .cfa: x29 48 +
STACK CFI 4a980 .cfa: sp 48 +
STACK CFI 4a98c .cfa: sp 0 +
STACK CFI INIT 4a990 60 .cfa: sp 0 +
STACK CFI 4a9a0 .cfa: sp 32 +
STACK CFI 4a9a8 .cfa: x29 32 + x19: .cfa -8 + ^ x20: .cfa -16 + ^ .ra: .cfa -24 + ^ x29: .cfa -32 + ^
STACK CFI 4a9e4 .cfa: sp 32 +
STACK CFI 4a9ec .cfa: sp 0 +
STACK CFI INIT 4a9f0 14 .cfa: sp 0 +
STACK CFI 4a9f4 .cfa: sp 16 +
STACK CFI 4a9f8 .cfa: x29 16 + .ra: .cfa -8 + ^ x29: .cfa -16 + ^
STACK CFI INIT 4aa04 e8 .cfa: sp 0 +
STACK CFI 4aa08 .cfa: sp 32 +
STACK CFI 4aa10 .cfa: x29 32 + x19: .cfa -8 + ^ x20: .cfa -16 + ^ .ra: .cfa -24 + ^ x29: .cfa -32 + ^
STACK CFI 4aa50 .cfa: sp 32 +
STACK CFI 4aa58 .cfa: sp 0 +
STACK CFI 4aa5c .cfa: x29 32 +
STACK CFI 4aa98 .cfa: sp 32 +
STACK CFI 4aaa0 .cfa: sp 0 +
STACK CFI 4aaa4 .cfa: x29 32 +
STACK CFI 4aac4 .cfa: sp 32 +
STACK CFI 4aacc .cfa: sp 0 +
STACK CFI 4aad0 .cfa: x29 32 +
STACK CFI 4aae0 .cfa: sp 32 +
STACK CFI 4aae8 .cfa: sp 0 +
STACK CFI INIT 4aaec ac .cfa: sp 0 +
STACK CFI 4aaf0 .cfa: sp 64 +
STACK CFI 4ab00 .cfa: x29 64 + x19: .cfa -8 + ^ x20: .cfa -16 + ^ x21: .cfa -24 + ^ x22: .cfa -32 + ^ x23: .cfa -48 + ^ .ra: .cfa -56 + ^ x29: .cfa -64 + ^
STACK CFI 4ab7c .cfa: sp 64 +
STACK CFI 4ab8c .cfa: sp 0 +
STACK CFI 4ab90 .cfa: x29 64 +
STACK CFI INIT 4ab98 110 .cfa: sp 0 +
STACK CFI 4ab9c .cfa: sp 64 +
STACK CFI 4abac .cfa: x29 64 + x19: .cfa -8 + ^ x20: .cfa -16 + ^ x21: .cfa -24 + ^ x22: .cfa -32 + ^ x23: .cfa -40 + ^ x24: .cfa -48 + ^ .ra: .cfa -56 + ^ x29: .cfa -64 + ^
STACK CFI 4ac8c .cfa: sp 64 +
STACK CFI 4ac9c .cfa: sp 0 +
STACK CFI 4aca0 .cfa: x29 64 +
STACK CFI INIT 4ae48 4 .cfa: sp 0 +
STACK CFI INIT 4b160 4 .cfa: sp 0 +
STACK CFI INIT 4c35c 98 .cfa: sp 0 +
STACK CFI INIT 4c778 4 .cfa: sp 0 +
STACK CFI INIT 4c77c 158 .cfa: sp 0 +
STACK CFI 4c780 .cfa: sp 48 +
STACK CFI 4c78c .cfa: x29 48 + x19: .cfa -8 + ^ x20: .cfa -16 + ^ x21: .cfa -24 + ^ x22: .cfa -32 + ^ .ra: .cfa -40 + ^ x29: .cfa -48 + ^
STACK CFI 4c7b0 .cfa: sp 48 +
STACK CFI 4c7bc .cfa: sp 0 +
STACK CFI 4c7c0 .cfa: x29 48 +
STACK CFI 4c870 .cfa: sp 48 +
STACK CFI 4c87c .cfa: sp 0 +
STACK CFI 4c880 .cfa: x29 48 +
STACK CFI 4c8c4 .cfa: sp 48 +
STACK CFI 4c8d0 .cfa: sp 0 +
STACK CFI INIT 4c8d4 134 .cfa: sp 0 +
STACK CFI 4c8d8 .cfa: sp 32 +
STACK CFI 4c8e0 .cfa: x29 32 + x19: .cfa -8 + ^ x20: .cfa -16 + ^ .ra: .cfa -24 + ^ x29: .cfa -32 + ^
STACK CFI 4c9fc .cfa: sp 32 +
STACK CFI 4ca04 .cfa: sp 0 +
STACK CFI INIT 4ca08 68 .cfa: sp 0 +
STACK CFI 4ca0c .cfa: sp 32 +
STACK CFI 4ca14 .cfa: x29 32 + x19: .cfa -16 + ^ .ra: .cfa -24 + ^ x29: .cfa -32 + ^
STACK CFI 4ca3c .cfa: sp 32 +
STACK CFI 4ca44 .cfa: sp 0 +
STACK CFI 4ca48 .cfa: x29 32 +
STACK CFI 4ca64 .cfa: sp 32 +
STACK CFI 4ca6c .cfa: sp 0 +
STACK CFI INIT 4d98c 4 .cfa: sp 0 +
STACK CFI INIT 4d990 c8 .cfa: sp 0 +
STACK CFI 4d994 .cfa: sp 64 +
STACK CFI 4d9a4 .cfa: x29 48 + x19: .cfa -8 + ^ x20: .cfa -16 + ^ x21: .cfa -32 + ^ .ra: .cfa -40 + ^ x29: .cfa -48 + ^
STACK CFI 4da40 .cfa: sp 64 +
STACK CFI 4da50 .cfa: sp 0 +
STACK CFI 4da54 .cfa: x29 48 +
STACK CFI INIT 4f54c 80 .cfa: sp 0 +
STACK CFI 4f550 .cfa: sp 32 +
STACK CFI 4f558 .cfa: x29 32 + x19: .cfa -16 + ^ .ra: .cfa -24 + ^ x29: .cfa -32 + ^
STACK CFI 4f5c0 .cfa: sp 32 +
STACK CFI 4f5c8 .cfa: sp 0 +
STACK CFI INIT 4f5cc e4 .cfa: sp 0 +
STACK CFI 4f5d0 .cfa: sp 16 +
STACK CFI 4f5d4 .cfa: x29 16 + .ra: .cfa -8 + ^ x29: .cfa -16 + ^
STACK CFI 4f680 .cfa: sp 16 +
STACK CFI 4f684 .cfa: sp 0 +
STACK CFI 4f688 .cfa: x29 16 +
STACK CFI 4f694 .cfa: sp 16 +
STACK CFI 4f698 .cfa: sp 0 +
STACK CFI 4f69c .cfa: x29 16 +
STACK CFI 4f6a4 .cfa: sp 16 +
STACK CFI 4f6a8 .cfa: sp 0 +
STACK CFI 4f6ac .cfa: x29 16 +
STACK CFI INIT 4f6b0 84 .cfa: sp 0 +
STACK CFI 4f6b8 .cfa: sp 48 +
STACK CFI 4f6c4 .cfa: x29 48 + x19: .cfa -8 + ^ x20: .cfa -16 + ^ x21: .cfa -32 + ^ .ra: .cfa -40 + ^ x29: .cfa -48 + ^
STACK CFI 4f724 .cfa: sp 48 +
STACK CFI 4f730 .cfa: sp 0 +
STACK CFI INIT 4fa64 4 .cfa: sp 0 +
STACK CFI INIT 51130 8c .cfa: sp 0 +
STACK CFI 51134 .cfa: sp 32 +
STACK CFI 5113c .cfa: x29 32 + x19: .cfa -16 + ^ .ra: .cfa -24 + ^ x29: .cfa -32 + ^
STACK CFI 511b0 .cfa: sp 32 +
STACK CFI 511b8 .cfa: sp 0 +
STACK CFI INIT 511bc 28 .cfa: sp 0 +
STACK CFI 511c0 .cfa: sp 16 +
STACK CFI 511c4 .cfa: x29 16 + .ra: .cfa -8 + ^ x29: .cfa -16 + ^
STACK CFI 511dc .cfa: sp 16 +
STACK CFI 511e0 .cfa: sp 0 +
STACK CFI INIT 511e4 40 .cfa: sp 0 +
STACK CFI 511e8 .cfa: sp 32 +
STACK CFI 511f0 .cfa: x29 32 + x19: .cfa -16 + ^ .ra: .cfa -24 + ^ x29: .cfa -32 + ^
STACK CFI 51218 .cfa: sp 32 +
STACK CFI 51220 .cfa: sp 0 +
STACK CFI INIT 515d0 4 .cfa: sp 0 +
STACK CFI INIT 54b1c 40 .cfa: sp 0 +
STACK CFI 54b20 .cfa: sp 48 +
STACK CFI 54b2c .cfa: x29 48 + x19: .cfa -8 + ^ x20: .cfa -16 + ^ x21: .cfa -32 + ^ .ra: .cfa -40 + ^ x29: .cfa -48 + ^
STACK CFI 54b4c .cfa: sp 48 +
STACK CFI 54b58 .cfa: sp 0 +
STACK CFI INIT 54d00 94 .cfa: sp 0 +
STACK CFI 54d04 .cfa: sp 32 +
STACK CFI 54d0c .cfa: x29 32 + x19: .cfa -16 + ^ .ra: .cfa -24 + ^ x29: .cfa -32 + ^
STACK CFI 54d38 .cfa: sp 32 +
STACK CFI 54d40 .cfa: sp 0 +
STACK CFI 54d44 .cfa: x29 32 +
STACK CFI 54d88 .cfa: sp 32 +
STACK CFI 54d90 .cfa: sp 0 +
STACK CFI INIT 5578c 168 .cfa: sp 0 +
STACK CFI 55790 .cfa: sp 48 +
STACK CFI 5579c .cfa: x29 48 + x19: .cfa -8 + ^ x20: .cfa -16 + ^ x21: .cfa -24 + ^ x22: .cfa -32 + ^ .ra: .cfa -40 + ^ x29: .cfa -48 + ^
STACK CFI 558d8 .cfa: sp 48 +
STACK CFI 558e4 .cfa: sp 0 +
STACK CFI 558e8 .cfa: x29 48 +
STACK CFI INIT 558f4 14 .cfa: sp 0 +
STACK CFI 558f8 .cfa: sp 16 +
STACK CFI 558fc .cfa: x29 16 + .ra: .cfa -8 + ^ x29: .cfa -16 + ^
STACK CFI INIT 55e60 4 .cfa: sp 0 +
STACK CFI INIT 56368 4 .cfa: sp 0 +
STACK CFI INIT 5636c d0 .cfa: sp 0 +
STACK CFI 56370 .cfa: sp 32 +
STACK CFI 56378 .cfa: x29 32 + x19: .cfa -8 + ^ x20: .cfa -16 + ^ .ra: .cfa -24 + ^ x29: .cfa -32 + ^
STACK CFI 563e4 .cfa: sp 32 +
STACK CFI 563ec .cfa: sp 0 +
STACK CFI 563f0 .cfa: x29 32 +
STACK CFI 56430 .cfa: sp 32 +
STACK CFI 56438 .cfa: sp 0 +
STACK CFI INIT 564e4 88 .cfa: sp 0 +
STACK CFI 564e8 .cfa: sp 32 +
STACK CFI 564f0 .cfa: x29 32 + x19: .cfa -16 + ^ .ra: .cfa -24 + ^ x29: .cfa -32 + ^
STACK CFI 56560 .cfa: sp 32 +
STACK CFI 56568 .cfa: sp 0 +
STACK CFI INIT 5656c 98 .cfa: sp 0 +
STACK CFI 56570 .cfa: sp 304 +
STACK CFI 5657c .cfa: x29 32 + x19: .cfa -8 + ^ x28: .cfa -16 + ^ .ra: .cfa -24 + ^ x29: .cfa -32 + ^
STACK CFI 565f0 .cfa: sp 304 +
STACK CFI 565fc .cfa: sp 0 +
STACK CFI 56600 .cfa: x29 32 +
STACK CFI INIT 5762c c .cfa: sp 0 +
STACK CFI INIT 57638 14 .cfa: sp 0 +
STACK CFI 5763c .cfa: sp 16 +
STACK CFI 57640 .cfa: x29 16 + .ra: .cfa -8 + ^ x29: .cfa -16 + ^
STACK CFI 57644 .cfa: sp 16 +
STACK CFI 57648 .cfa: sp 0 +
STACK CFI INIT 5764c 14 .cfa: sp 0 +
STACK CFI 57650 .cfa: sp 16 +
STACK CFI 57654 .cfa: x29 16 + .ra: .cfa -8 + ^ x29: .cfa -16 + ^
STACK CFI 57658 .cfa: sp 16 +
STACK CFI 5765c .cfa: sp 0 +
STACK CFI INIT 57730 24 .cfa: sp 0 +
STACK CFI 57734 .cfa: sp 32 +
STACK CFI 5773c .cfa: x29 32 + x19: .cfa -16 + ^ .ra: .cfa -24 + ^ x29: .cfa -32 + ^
STACK CFI 57748 .cfa: sp 32 +
STACK CFI 57750 .cfa: sp 0 +
STACK CFI INIT 57754 8 .cfa: sp 0 +
STACK CFI INIT 5775c 28 .cfa: sp 0 +
STACK CFI 57760 .cfa: sp 32 +
STACK CFI 57768 .cfa: x29 32 + x19: .cfa -16 + ^ .ra: .cfa -24 + ^ x29: .cfa -32 + ^
STACK CFI 57778 .cfa: sp 32 +
STACK CFI 57780 .cfa: sp 0 +
STACK CFI INIT 57784 4 .cfa: sp 0 +
STACK CFI INIT 57788 4 .cfa: sp 0 +
STACK CFI INIT 5778c 4 .cfa: sp 0 +
STACK CFI INIT 57790 4 .cfa: sp 0 +
STACK CFI INIT 57794 178 .cfa: sp 0 +
STACK CFI 57798 .cfa: sp 128 +
STACK CFI 577ac .cfa: x29 48 + x19: .cfa -8 + ^ x20: .cfa -16 + ^ x21: .cfa -32 + ^ .ra: .cfa -40 + ^ x29: .cfa -48 + ^ v8: .cfa -56 + ^ v9: .cfa -64 + ^
STACK CFI 578f0 .cfa: sp 128 +
STACK CFI 57904 .cfa: sp 0 +
STACK CFI 57908 .cfa: x29 48 +
STACK CFI INIT 5790c 4 .cfa: sp 0 +
STACK CFI INIT 57910 24 .cfa: sp 0 +
STACK CFI 57914 .cfa: sp 16 +
STACK CFI 57918 .cfa: x29 16 + .ra: .cfa -8 + ^ x29: .cfa -16 + ^
STACK CFI 5792c .cfa: sp 16 +
STACK CFI 57930 .cfa: sp 0 +
STACK CFI INIT 57934 10 .cfa: sp 0 +
STACK CFI INIT 57944 4 .cfa: sp 0 +
STACK CFI INIT 57948 4 .cfa: sp 0 +
STACK CFI INIT 57a0c 1c .cfa: sp 0 +
STACK CFI INIT 57a28 c .cfa: sp 0 +
STACK CFI INIT 57a34 4 .cfa: sp 0 +
STACK CFI INIT 57a38 8 .cfa: sp 0 +
STACK CFI INIT 57a40 4 .cfa: sp 0 +
STACK CFI INIT 57a44 8 .cfa: sp 0 +
STACK CFI INIT 585ac 14 .cfa: sp 0 +
STACK CFI 585b0 .cfa: sp 16 +
STACK CFI 585b4 .cfa: x29 16 + .ra: .cfa -8 + ^ x29: .cfa -16 + ^
STACK CFI 585b8 .cfa: sp 16 +
STACK CFI 585bc .cfa: sp 0 +
STACK CFI INIT 585c0 14 .cfa: sp 0 +
STACK CFI 585c4 .cfa: sp 16 +
STACK CFI 585c8 .cfa: x29 16 + .ra: .cfa -8 + ^ x29: .cfa -16 + ^
STACK CFI 585cc .cfa: sp 16 +
STACK CFI 585d0 .cfa: sp 0 +
STACK CFI INIT 585d4 60 .cfa: sp 0 +
STACK CFI 5860c .cfa: sp 32 +
STACK CFI 58614 .cfa: x29 32 + x19: .cfa -16 + ^ .ra: .cfa -24 + ^ x29: .cfa -32 + ^
STACK CFI 58628 .cfa: sp 32 +
STACK CFI 58630 .cfa: sp 0 +
STACK CFI INIT 58634 64 .cfa: sp 0 +
STACK CFI 58638 .cfa: sp 32 +
STACK CFI 58640 .cfa: x29 32 + x19: .cfa -16 + ^ .ra: .cfa -24 + ^ x29: .cfa -32 + ^
STACK CFI 5868c .cfa: sp 32 +
STACK CFI 58694 .cfa: sp 0 +
STACK CFI INIT 58698 5c .cfa: sp 0 +
STACK CFI 5869c .cfa: sp 32 +
STACK CFI 586a4 .cfa: x29 32 + x19: .cfa -16 + ^ .ra: .cfa -24 + ^ x29: .cfa -32 + ^
STACK CFI 586e8 .cfa: sp 32 +
STACK CFI 586f0 .cfa: sp 0 +
STACK CFI INIT 586f4 64 .cfa: sp 0 +
STACK CFI 586f8 .cfa: sp 32 +
STACK CFI 58700 .cfa: x29 32 + x19: .cfa -16 + ^ .ra: .cfa -24 + ^ x29: .cfa -32 + ^
STACK CFI 5874c .cfa: sp 32 +
STACK CFI 58754 .cfa: sp 0 +
STACK CFI INIT 5898c 24 .cfa: sp 0 +
STACK CFI 58990 .cfa: sp 32 +
STACK CFI 58998 .cfa: x29 32 + x19: .cfa -16 + ^ .ra: .cfa -24 + ^ x29: .cfa -32 + ^
STACK CFI 589a4 .cfa: sp 32 +
STACK CFI 589ac .cfa: sp 0 +
STACK CFI INIT 589b0 4 .cfa: sp 0 +
STACK CFI INIT 589b4 8 .cfa: sp 0 +
STACK CFI INIT 589bc 8 .cfa: sp 0 +
STACK CFI INIT 589c4 8 .cfa: sp 0 +
STACK CFI INIT 589cc 8 .cfa: sp 0 +
STACK CFI INIT 589d4 28 .cfa: sp 0 +
STACK CFI 589d8 .cfa: sp 32 +
STACK CFI 589e0 .cfa: x29 32 + x19: .cfa -16 + ^ .ra: .cfa -24 + ^ x29: .cfa -32 + ^
STACK CFI 589f0 .cfa: sp 32 +
STACK CFI 589f8 .cfa: sp 0 +
STACK CFI INIT 589fc 4 .cfa: sp 0 +
STACK CFI INIT 58a00 8 .cfa: sp 0 +
STACK CFI INIT 590ec c0 .cfa: sp 0 +
STACK CFI 590f0 .cfa: sp 48 +
STACK CFI 590fc .cfa: x29 48 + x19: .cfa -8 + ^ x20: .cfa -16 + ^ x21: .cfa -24 + ^ x22: .cfa -32 + ^ .ra: .cfa -40 + ^ x29: .cfa -48 + ^
STACK CFI 5919c .cfa: sp 48 +
STACK CFI 591a8 .cfa: sp 0 +
STACK CFI INIT 591ac c4 .cfa: sp 0 +
STACK CFI 591b0 .cfa: sp 48 +
STACK CFI 591bc .cfa: x29 48 + x19: .cfa -8 + ^ x20: .cfa -16 + ^ x21: .cfa -24 + ^ x22: .cfa -32 + ^ .ra: .cfa -40 + ^ x29: .cfa -48 + ^
STACK CFI 59260 .cfa: sp 48 +
STACK CFI 5926c .cfa: sp 0 +
STACK CFI INIT 59270 c .cfa: sp 0 +
STACK CFI INIT 59454 4 .cfa: sp 0 +
STACK CFI INIT 59458 4 .cfa: sp 0 +
STACK CFI INIT 59538 150 .cfa: sp 0 +
STACK CFI 5953c .cfa: sp 96 +
STACK CFI 59554 .cfa: x29 40 + x19: .cfa -8 + ^ x20: .cfa -16 + ^ x21: .cfa -24 + ^ .ra: .cfa -32 + ^ x29: .cfa -40 + ^ v8: .cfa -48 + ^ v9: .cfa -56 + ^ v10: .cfa -64 + ^
STACK CFI 59668 .cfa: sp 96 +
STACK CFI 59680 .cfa: sp 0 +
STACK CFI 59684 .cfa: x29 40 +
STACK CFI INIT 59688 24 .cfa: sp 0 +
STACK CFI 5968c .cfa: sp 32 +
STACK CFI 59694 .cfa: x29 32 + x19: .cfa -16 + ^ .ra: .cfa -24 + ^ x29: .cfa -32 + ^
STACK CFI 596a0 .cfa: sp 32 +
STACK CFI 596a8 .cfa: sp 0 +
STACK CFI INIT 596ac 4 .cfa: sp 0 +
STACK CFI INIT 596b0 8 .cfa: sp 0 +
STACK CFI INIT 596b8 4 .cfa: sp 0 +
STACK CFI INIT 596bc 8 .cfa: sp 0 +
STACK CFI INIT 596c4 4 .cfa: sp 0 +
STACK CFI INIT 596c8 4 .cfa: sp 0 +
STACK CFI INIT 596cc 34 .cfa: sp 0 +
STACK CFI 596d0 .cfa: sp 32 +
STACK CFI 596d8 .cfa: x29 32 + x19: .cfa -16 + ^ .ra: .cfa -24 + ^ x29: .cfa -32 + ^
STACK CFI 596f4 .cfa: sp 32 +
STACK CFI 596fc .cfa: sp 0 +
STACK CFI INIT 59700 14 .cfa: sp 0 +
STACK CFI INIT 59714 4 .cfa: sp 0 +
STACK CFI INIT 59718 4 .cfa: sp 0 +
STACK CFI INIT 5971c 34 .cfa: sp 0 +
STACK CFI INIT 59750 1c .cfa: sp 0 +
STACK CFI INIT 5976c c .cfa: sp 0 +
STACK CFI INIT 5a434 24 .cfa: sp 0 +
STACK CFI 5a438 .cfa: sp 32 +
STACK CFI 5a440 .cfa: x29 32 + x19: .cfa -16 + ^ .ra: .cfa -24 + ^ x29: .cfa -32 + ^
STACK CFI 5a44c .cfa: sp 32 +
STACK CFI 5a454 .cfa: sp 0 +
STACK CFI INIT 5a458 14 .cfa: sp 0 +
STACK CFI 5a45c .cfa: sp 16 +
STACK CFI 5a460 .cfa: x29 16 + .ra: .cfa -8 + ^ x29: .cfa -16 + ^
STACK CFI INIT 5a46c 9c .cfa: sp 0 +
STACK CFI 5a470 .cfa: sp 48 +
STACK CFI 5a47c .cfa: x29 48 + x19: .cfa -8 + ^ x20: .cfa -16 + ^ x21: .cfa -24 + ^ x22: .cfa -32 + ^ .ra: .cfa -40 + ^ x29: .cfa -48 + ^
STACK CFI 5a4e0 .cfa: sp 48 +
STACK CFI 5a4ec .cfa: sp 0 +
STACK CFI 5a4f0 .cfa: x29 48 +
STACK CFI 5a4f8 .cfa: sp 48 +
STACK CFI 5a504 .cfa: sp 0 +
STACK CFI INIT 5a508 2b0 .cfa: sp 0 +
STACK CFI 5a50c .cfa: sp 96 +
STACK CFI 5a524 .cfa: x29 64 + x19: .cfa -8 + ^ x20: .cfa -16 + ^ x21: .cfa -24 + ^ x22: .cfa -32 + ^ x23: .cfa -40 + ^ x24: .cfa -48 + ^ .ra: .cfa -56 + ^ x29: .cfa -64 + ^ v8: .cfa -72 + ^ v9: .cfa -80 + ^
STACK CFI 5a798 .cfa: sp 96 +
STACK CFI 5a7b0 .cfa: sp 0 +
STACK CFI 5a7b4 .cfa: x29 64 +
STACK CFI INIT 5a7b8 11c .cfa: sp 0 +
STACK CFI 5a7bc .cfa: sp 80 +
STACK CFI 5a7d0 .cfa: x29 32 + x19: .cfa -8 + ^ x20: .cfa -16 + ^ .ra: .cfa -24 + ^ x29: .cfa -32 + ^ v8: .cfa -40 + ^ v9: .cfa -48 + ^ v10: .cfa -64 + ^
STACK CFI 5a8b8 .cfa: sp 80 +
STACK CFI 5a8cc .cfa: sp 0 +
STACK CFI 5a8d0 .cfa: x29 32 +
STACK CFI INIT 5a8d4 f8 .cfa: sp 0 +
STACK CFI 5a8d8 .cfa: sp 96 +
STACK CFI 5a8ec .cfa: x29 48 + x19: .cfa -8 + ^ x20: .cfa -16 + ^ x21: .cfa -24 + ^ x22: .cfa -32 + ^ .ra: .cfa -40 + ^ x29: .cfa -48 + ^ v8: .cfa -56 + ^ v9: .cfa -64 + ^
STACK CFI 5a9b0 .cfa: sp 96 +
STACK CFI 5a9c4 .cfa: sp 0 +
STACK CFI 5a9c8 .cfa: x29 48 +
STACK CFI INIT 5a9cc 108 .cfa: sp 0 +
STACK CFI 5a9d0 .cfa: sp 112 +
STACK CFI 5a9e8 .cfa: x29 64 + x19: .cfa -8 + ^ x20: .cfa -16 + ^ x21: .cfa -24 + ^ x22: .cfa -32 + ^ x23: .cfa -48 + ^ .ra: .cfa -56 + ^ x29: .cfa -64 + ^ v8: .cfa -72 + ^ v9: .cfa -80 + ^
STACK CFI 5aab4 .cfa: sp 112 +
STACK CFI 5aacc .cfa: sp 0 +
STACK CFI 5aad0 .cfa: x29 64 +
STACK CFI INIT 5aad4 8 .cfa: sp 0 +
STACK CFI INIT 5aadc 8 .cfa: sp 0 +
STACK CFI INIT 5aae4 8 .cfa: sp 0 +
STACK CFI INIT 5aaec 8 .cfa: sp 0 +
STACK CFI INIT 5aaf4 128 .cfa: sp 0 +
STACK CFI 5aaf8 .cfa: sp 80 +
STACK CFI 5ab08 .cfa: x29 32 + x19: .cfa -8 + ^ x20: .cfa -16 + ^ .ra: .cfa -24 + ^ x29: .cfa -32 + ^ v8: .cfa -40 + ^ v9: .cfa -48 + ^
STACK CFI 5ac04 .cfa: sp 80 +
STACK CFI 5ac14 .cfa: sp 0 +
STACK CFI 5ac18 .cfa: x29 32 +
STACK CFI INIT 5ac1c 8 .cfa: sp 0 +
STACK CFI INIT 5ac24 24 .cfa: sp 0 +
STACK CFI 5ac28 .cfa: sp 32 +
STACK CFI 5ac30 .cfa: x29 32 + x19: .cfa -16 + ^ .ra: .cfa -24 + ^ x29: .cfa -32 + ^
STACK CFI 5ac3c .cfa: sp 32 +
STACK CFI 5ac44 .cfa: sp 0 +
STACK CFI INIT 5ac48 8 .cfa: sp 0 +
STACK CFI INIT 5ac50 28 .cfa: sp 0 +
STACK CFI 5ac54 .cfa: sp 32 +
STACK CFI 5ac5c .cfa: x29 32 + x19: .cfa -16 + ^ .ra: .cfa -24 + ^ x29: .cfa -32 + ^
STACK CFI 5ac6c .cfa: sp 32 +
STACK CFI 5ac74 .cfa: sp 0 +
STACK CFI INIT 5c7f4 70 .cfa: sp 0 +
STACK CFI 5c7f8 .cfa: sp 32 +
STACK CFI 5c804 .cfa: x29 24 + x19: .cfa -8 + ^ .ra: .cfa -16 + ^ x29: .cfa -24 + ^ v8: .cfa -32 + ^
STACK CFI 5c820 .cfa: sp 32 +
STACK CFI 5c82c .cfa: sp 0 +
STACK CFI 5c830 .cfa: x29 24 +
STACK CFI 5c854 .cfa: sp 32 +
STACK CFI 5c860 .cfa: sp 0 +
STACK CFI INIT 5c864 140 .cfa: sp 0 +
STACK CFI 5c868 .cfa: sp 112 +
STACK CFI 5c880 .cfa: x29 64 + x19: .cfa -8 + ^ x20: .cfa -16 + ^ x21: .cfa -24 + ^ x22: .cfa -32 + ^ x23: .cfa -48 + ^ .ra: .cfa -56 + ^ x29: .cfa -64 + ^ v8: .cfa -72 + ^ v9: .cfa -80 + ^
STACK CFI 5c984 .cfa: sp 112 +
STACK CFI 5c99c .cfa: sp 0 +
STACK CFI 5c9a0 .cfa: x29 64 +
STACK CFI INIT 5c9a4 24 .cfa: sp 0 +
STACK CFI 5c9a8 .cfa: sp 32 +
STACK CFI 5c9b0 .cfa: x29 32 + x19: .cfa -16 + ^ .ra: .cfa -24 + ^ x29: .cfa -32 + ^
STACK CFI 5c9bc .cfa: sp 32 +
STACK CFI 5c9c4 .cfa: sp 0 +
STACK CFI INIT 5c9c8 68 .cfa: sp 0 +
STACK CFI 5c9cc .cfa: sp 32 +
STACK CFI 5c9d4 .cfa: x29 32 + x19: .cfa -8 + ^ x20: .cfa -16 + ^ .ra: .cfa -24 + ^ x29: .cfa -32 + ^
STACK CFI 5c9ec .cfa: sp 32 +
STACK CFI 5c9f4 .cfa: sp 0 +
STACK CFI 5c9f8 .cfa: x29 32 +
STACK CFI 5ca24 .cfa: sp 32 +
STACK CFI 5ca2c .cfa: sp 0 +
STACK CFI INIT 5ca30 14 .cfa: sp 0 +
STACK CFI 5ca34 .cfa: sp 16 +
STACK CFI 5ca38 .cfa: x29 16 + .ra: .cfa -8 + ^ x29: .cfa -16 + ^
STACK CFI INIT 5cd94 118 .cfa: sp 0 +
STACK CFI 5cd98 .cfa: sp 80 +
STACK CFI 5cdac .cfa: x29 64 + x19: .cfa -8 + ^ x20: .cfa -16 + ^ x21: .cfa -24 + ^ x22: .cfa -32 + ^ x23: .cfa -48 + ^ .ra: .cfa -56 + ^ x29: .cfa -64 + ^
STACK CFI 5ce78 .cfa: sp 80 +
STACK CFI 5ce8c .cfa: sp 0 +
STACK CFI 5ce90 .cfa: x29 64 +
STACK CFI INIT 5ceac 3c .cfa: sp 0 +
STACK CFI 5ceb0 .cfa: sp 32 +
STACK CFI 5ceb8 .cfa: x29 32 + x19: .cfa -16 + ^ .ra: .cfa -24 + ^ x29: .cfa -32 + ^
STACK CFI 5cec4 .cfa: sp 32 +
STACK CFI 5cecc .cfa: sp 0 +
STACK CFI 5ced0 .cfa: x29 32 +
STACK CFI 5cedc .cfa: sp 32 +
STACK CFI 5cee4 .cfa: sp 0 +
STACK CFI INIT 5cee8 4c .cfa: sp 0 +
STACK CFI 5ceec .cfa: sp 32 +
STACK CFI 5cef4 .cfa: x29 32 + x19: .cfa -8 + ^ x20: .cfa -16 + ^ .ra: .cfa -24 + ^ x29: .cfa -32 + ^
STACK CFI 5cf1c .cfa: sp 32 +
STACK CFI 5cf24 .cfa: sp 0 +
STACK CFI 5cf28 .cfa: sp 32 +
STACK CFI 5cf30 .cfa: sp 0 +
STACK CFI INIT 5d154 64 .cfa: sp 0 +
STACK CFI 5d158 .cfa: sp 32 +
STACK CFI 5d160 .cfa: x29 32 + x19: .cfa -16 + ^ .ra: .cfa -24 + ^ x29: .cfa -32 + ^
STACK CFI 5d18c .cfa: sp 32 +
STACK CFI 5d194 .cfa: sp 0 +
STACK CFI 5d198 .cfa: x29 32 +
STACK CFI 5d1ac .cfa: sp 32 +
STACK CFI 5d1b4 .cfa: sp 0 +
STACK CFI INIT 5d3dc 24 .cfa: sp 0 +
STACK CFI 5d3e0 .cfa: sp 32 +
STACK CFI 5d3e8 .cfa: x29 32 + x19: .cfa -16 + ^ .ra: .cfa -24 + ^ x29: .cfa -32 + ^
STACK CFI 5d3f4 .cfa: sp 32 +
STACK CFI 5d3fc .cfa: sp 0 +
STACK CFI INIT 5d65c 24 .cfa: sp 0 +
STACK CFI 5d660 .cfa: sp 32 +
STACK CFI 5d668 .cfa: x29 32 + x19: .cfa -16 + ^ .ra: .cfa -24 + ^ x29: .cfa -32 + ^
STACK CFI 5d674 .cfa: sp 32 +
STACK CFI 5d67c .cfa: sp 0 +
STACK CFI INIT 5d8ec 24 .cfa: sp 0 +
STACK CFI 5d8f0 .cfa: sp 32 +
STACK CFI 5d8f8 .cfa: x29 32 + x19: .cfa -16 + ^ .ra: .cfa -24 + ^ x29: .cfa -32 + ^
STACK CFI 5d904 .cfa: sp 32 +
STACK CFI 5d90c .cfa: sp 0 +
STACK CFI INIT 5db94 8 .cfa: sp 0 +
STACK CFI INIT 5db9c 24 .cfa: sp 0 +
STACK CFI 5dba0 .cfa: sp 32 +
STACK CFI 5dba8 .cfa: x29 32 + x19: .cfa -16 + ^ .ra: .cfa -24 + ^ x29: .cfa -32 + ^
STACK CFI 5dbb4 .cfa: sp 32 +
STACK CFI 5dbbc .cfa: sp 0 +
STACK CFI INIT 5dbc0 28 .cfa: sp 0 +
STACK CFI 5dbc4 .cfa: sp 32 +
STACK CFI 5dbcc .cfa: x29 32 + x19: .cfa -16 + ^ .ra: .cfa -24 + ^ x29: .cfa -32 + ^
STACK CFI 5dbdc .cfa: sp 32 +
STACK CFI 5dbe4 .cfa: sp 0 +
STACK CFI INIT 5e174 8 .cfa: sp 0 +
STACK CFI INIT 5e17c 24 .cfa: sp 0 +
STACK CFI 5e180 .cfa: sp 32 +
STACK CFI 5e188 .cfa: x29 32 + x19: .cfa -16 + ^ .ra: .cfa -24 + ^ x29: .cfa -32 + ^
STACK CFI 5e194 .cfa: sp 32 +
STACK CFI 5e19c .cfa: sp 0 +
STACK CFI INIT 5e1a0 28 .cfa: sp 0 +
STACK CFI 5e1a4 .cfa: sp 32 +
STACK CFI 5e1ac .cfa: x29 32 + x19: .cfa -16 + ^ .ra: .cfa -24 + ^ x29: .cfa -32 + ^
STACK CFI 5e1bc .cfa: sp 32 +
STACK CFI 5e1c4 .cfa: sp 0 +
STACK CFI INIT 5e42c 8 .cfa: sp 0 +
STACK CFI INIT 5e434 24 .cfa: sp 0 +
STACK CFI 5e438 .cfa: sp 32 +
STACK CFI 5e440 .cfa: x29 32 + x19: .cfa -16 + ^ .ra: .cfa -24 + ^ x29: .cfa -32 + ^
STACK CFI 5e44c .cfa: sp 32 +
STACK CFI 5e454 .cfa: sp 0 +
STACK CFI INIT 5e458 28 .cfa: sp 0 +
STACK CFI 5e45c .cfa: sp 32 +
STACK CFI 5e464 .cfa: x29 32 + x19: .cfa -16 + ^ .ra: .cfa -24 + ^ x29: .cfa -32 + ^
STACK CFI 5e474 .cfa: sp 32 +
STACK CFI 5e47c .cfa: sp 0 +
STACK CFI INIT 5e6f0 24 .cfa: sp 0 +
STACK CFI 5e6f4 .cfa: sp 32 +
STACK CFI 5e6fc .cfa: x29 32 + x19: .cfa -16 + ^ .ra: .cfa -24 + ^ x29: .cfa -32 + ^
STACK CFI 5e708 .cfa: sp 32 +
STACK CFI 5e710 .cfa: sp 0 +
STACK CFI INIT 5edcc 24 .cfa: sp 0 +
STACK CFI 5edd0 .cfa: sp 32 +
STACK CFI 5edd8 .cfa: x29 32 + x19: .cfa -16 + ^ .ra: .cfa -24 + ^ x29: .cfa -32 + ^
STACK CFI 5ede4 .cfa: sp 32 +
STACK CFI 5edec .cfa: sp 0 +
STACK CFI INIT 5f0a8 24 .cfa: sp 0 +
STACK CFI 5f0ac .cfa: sp 32 +
STACK CFI 5f0b4 .cfa: x29 32 + x19: .cfa -16 + ^ .ra: .cfa -24 + ^ x29: .cfa -32 + ^
STACK CFI 5f0c0 .cfa: sp 32 +
STACK CFI 5f0c8 .cfa: sp 0 +
STACK CFI INIT 5f6bc 24 .cfa: sp 0 +
STACK CFI 5f6c0 .cfa: sp 32 +
STACK CFI 5f6c8 .cfa: x29 32 + x19: .cfa -16 + ^ .ra: .cfa -24 + ^ x29: .cfa -32 + ^
STACK CFI 5f6d4 .cfa: sp 32 +
STACK CFI 5f6dc .cfa: sp 0 +
STACK CFI INIT 5f8d8 24 .cfa: sp 0 +
STACK CFI 5f8dc .cfa: sp 32 +
STACK CFI 5f8e4 .cfa: x29 32 + x19: .cfa -16 + ^ .ra: .cfa -24 + ^ x29: .cfa -32 + ^
STACK CFI 5f8f0 .cfa: sp 32 +
STACK CFI 5f8f8 .cfa: sp 0 +
STACK CFI INIT 5f8fc 8 .cfa: sp 0 +
STACK CFI INIT 5f904 24 .cfa: sp 0 +
STACK CFI 5f908 .cfa: sp 32 +
STACK CFI 5f910 .cfa: x29 32 + x19: .cfa -16 + ^ .ra: .cfa -24 + ^ x29: .cfa -32 + ^
STACK CFI 5f91c .cfa: sp 32 +
STACK CFI 5f924 .cfa: sp 0 +
STACK CFI INIT 5f928 28 .cfa: sp 0 +
STACK CFI 5f92c .cfa: sp 32 +
STACK CFI 5f934 .cfa: x29 32 + x19: .cfa -16 + ^ .ra: .cfa -24 + ^ x29: .cfa -32 + ^
STACK CFI 5f944 .cfa: sp 32 +
STACK CFI 5f94c .cfa: sp 0 +
STACK CFI INIT 609a8 44 .cfa: sp 0 +
STACK CFI 609ac .cfa: sp 32 +
STACK CFI 609b4 .cfa: x29 32 + x19: .cfa -16 + ^ .ra: .cfa -24 + ^ x29: .cfa -32 + ^
STACK CFI 609e0 .cfa: sp 32 +
STACK CFI 609e8 .cfa: sp 0 +
STACK CFI INIT 609ec 4c .cfa: sp 0 +
STACK CFI 609f0 .cfa: sp 32 +
STACK CFI 609f8 .cfa: x29 32 + x19: .cfa -16 + ^ .ra: .cfa -24 + ^ x29: .cfa -32 + ^
STACK CFI 60a2c .cfa: sp 32 +
STACK CFI 60a34 .cfa: sp 0 +
STACK CFI INIT 61bd8 4 .cfa: sp 0 +
STACK CFI INIT 61bdc 14 .cfa: sp 0 +
STACK CFI INIT 620fc c .cfa: sp 0 +
STACK CFI INIT 62108 24c .cfa: sp 0 +
STACK CFI INIT 62354 a0 .cfa: sp 0 +
STACK CFI 62360 .cfa: sp 32 +
STACK CFI 623b8 .cfa: sp 0 +
STACK CFI 623bc .cfa: sp 32 +
STACK CFI 623c4 .cfa: sp 0 +
STACK CFI 623c8 .cfa: sp 32 +
STACK CFI 623dc .cfa: sp 0 +
STACK CFI 623e0 .cfa: sp 32 +
STACK CFI 623f0 .cfa: sp 0 +
STACK CFI INIT 623f4 38 .cfa: sp 0 +
STACK CFI 62400 .cfa: sp 32 +
STACK CFI 62428 .cfa: sp 0 +
STACK CFI INIT 626c0 7c .cfa: sp 0 +
STACK CFI 626c4 .cfa: sp 32 +
STACK CFI 626cc .cfa: x29 32 + x19: .cfa -16 + ^ .ra: .cfa -24 + ^ x29: .cfa -32 + ^
STACK CFI 626f8 .cfa: sp 32 +
STACK CFI 62700 .cfa: sp 0 +
STACK CFI 62704 .cfa: x29 32 +
STACK CFI 62730 .cfa: sp 32 +
STACK CFI 62738 .cfa: sp 0 +
STACK CFI INIT 6278c 2c .cfa: sp 0 +
STACK CFI 62790 .cfa: sp 32 +
STACK CFI 62798 .cfa: x29 32 + x19: .cfa -16 + ^ .ra: .cfa -24 + ^ x29: .cfa -32 + ^
STACK CFI 627ac .cfa: sp 32 +
STACK CFI 627b4 .cfa: sp 0 +
STACK CFI INIT 62f78 64 .cfa: sp 0 +
STACK CFI 62f7c .cfa: sp 32 +
STACK CFI 62f84 .cfa: x29 32 + x19: .cfa -16 + ^ .ra: .cfa -24 + ^ x29: .cfa -32 + ^
STACK CFI 62fa0 .cfa: sp 32 +
STACK CFI 62fa8 .cfa: sp 0 +
STACK CFI 62fac .cfa: x29 32 +
STACK CFI 62fd0 .cfa: sp 32 +
STACK CFI 62fd8 .cfa: sp 0 +
STACK CFI INIT 62fdc 570 .cfa: sp 0 +
STACK CFI 62fe0 .cfa: sp 176 +
STACK CFI 62ff4 .cfa: x29 64 + x19: .cfa -8 + ^ x20: .cfa -16 + ^ x21: .cfa -24 + ^ x22: .cfa -32 + ^ x23: .cfa -40 + ^ x24: .cfa -48 + ^ .ra: .cfa -56 + ^ x29: .cfa -64 + ^
STACK CFI 63224 .cfa: sp 176 +
STACK CFI 63238 .cfa: sp 0 +
STACK CFI 6323c .cfa: x29 64 +
STACK CFI 63288 .cfa: sp 176 +
STACK CFI 6329c .cfa: sp 0 +
STACK CFI 632a0 .cfa: x29 64 +
STACK CFI 632d8 .cfa: sp 176 +
STACK CFI 632ec .cfa: sp 0 +
STACK CFI 632f0 .cfa: x29 64 +
STACK CFI 63308 .cfa: sp 176 +
STACK CFI 6331c .cfa: sp 0 +
STACK CFI 63320 .cfa: x29 64 +
STACK CFI 63340 .cfa: sp 176 +
STACK CFI 63354 .cfa: sp 0 +
STACK CFI 63358 .cfa: x29 64 +
STACK CFI 63370 .cfa: sp 176 +
STACK CFI 63384 .cfa: sp 0 +
STACK CFI 63388 .cfa: x29 64 +
STACK CFI 6339c .cfa: sp 176 +
STACK CFI 633b0 .cfa: sp 0 +
STACK CFI 633b4 .cfa: x29 64 +
STACK CFI 633c8 .cfa: sp 176 +
STACK CFI 633dc .cfa: sp 0 +
STACK CFI 633e0 .cfa: x29 64 +
STACK CFI 633f0 .cfa: sp 176 +
STACK CFI 63404 .cfa: sp 0 +
STACK CFI 63408 .cfa: x29 64 +
STACK CFI 63418 .cfa: sp 176 +
STACK CFI 6342c .cfa: sp 0 +
STACK CFI 63430 .cfa: x29 64 +
STACK CFI 63448 .cfa: sp 176 +
STACK CFI 6345c .cfa: sp 0 +
STACK CFI 63460 .cfa: x29 64 +
STACK CFI 63474 .cfa: sp 176 +
STACK CFI 63488 .cfa: sp 0 +
STACK CFI 6348c .cfa: x29 64 +
STACK CFI 634a4 .cfa: sp 176 +
STACK CFI 634b8 .cfa: sp 0 +
STACK CFI 634bc .cfa: x29 64 +
STACK CFI 634e8 .cfa: sp 176 +
STACK CFI 634fc .cfa: sp 0 +
STACK CFI 63500 .cfa: x29 64 +
STACK CFI 63514 .cfa: sp 176 +
STACK CFI 63528 .cfa: sp 0 +
STACK CFI 6352c .cfa: x29 64 +
STACK CFI INIT 6354c 228 .cfa: sp 0 +
STACK CFI INIT 63774 2dc .cfa: sp 0 +
STACK CFI INIT 63a50 53c .cfa: sp 0 +
STACK CFI INIT 63f8c 78 .cfa: sp 0 +
STACK CFI 63f90 .cfa: sp 48 +
STACK CFI 63f9c .cfa: x29 48 + x19: .cfa -8 + ^ x20: .cfa -16 + ^ x21: .cfa -24 + ^ x22: .cfa -32 + ^ .ra: .cfa -40 + ^ x29: .cfa -48 + ^
STACK CFI 63fe4 .cfa: sp 48 +
STACK CFI 63ff0 .cfa: sp 0 +
STACK CFI 63ff4 .cfa: sp 48 +
STACK CFI 64000 .cfa: sp 0 +
STACK CFI INIT 64004 8c .cfa: sp 0 +
STACK CFI 64008 .cfa: sp 32 +
STACK CFI 64010 .cfa: x29 32 + x19: .cfa -16 + ^ .ra: .cfa -24 + ^ x29: .cfa -32 + ^
STACK CFI 64044 .cfa: sp 32 +
STACK CFI 6404c .cfa: sp 0 +
STACK CFI 64050 .cfa: x29 32 +
STACK CFI 64084 .cfa: sp 32 +
STACK CFI 6408c .cfa: sp 0 +
STACK CFI INIT 64090 24 .cfa: sp 0 +
STACK CFI 64094 .cfa: sp 32 +
STACK CFI 6409c .cfa: x29 32 + x19: .cfa -16 + ^ .ra: .cfa -24 + ^ x29: .cfa -32 + ^
STACK CFI 640a8 .cfa: sp 32 +
STACK CFI 640b0 .cfa: sp 0 +
STACK CFI INIT 640b4 150 .cfa: sp 0 +
STACK CFI 640b8 .cfa: sp 48 +
STACK CFI 640c4 .cfa: x29 48 + x19: .cfa -8 + ^ x20: .cfa -16 + ^ x21: .cfa -24 + ^ x22: .cfa -32 + ^ .ra: .cfa -40 + ^ x29: .cfa -48 + ^
STACK CFI 641f4 .cfa: sp 48 +
STACK CFI 64200 .cfa: sp 0 +
STACK CFI INIT 64204 68 .cfa: sp 0 +
STACK CFI 64208 .cfa: sp 64 +
STACK CFI 64214 .cfa: x29 32 + x19: .cfa -16 + ^ .ra: .cfa -24 + ^ x29: .cfa -32 + ^
STACK CFI 64258 .cfa: sp 64 +
STACK CFI 64264 .cfa: sp 0 +
STACK CFI 64268 .cfa: x29 32 +
STACK CFI INIT 6426c 90 .cfa: sp 0 +
STACK CFI 64270 .cfa: sp 32 +
STACK CFI 64278 .cfa: x29 32 + x19: .cfa -8 + ^ x20: .cfa -16 + ^ .ra: .cfa -24 + ^ x29: .cfa -32 + ^
STACK CFI 642a4 .cfa: sp 32 +
STACK CFI 642ac .cfa: sp 0 +
STACK CFI 642b0 .cfa: x29 32 +
STACK CFI 642f0 .cfa: sp 32 +
STACK CFI 642f8 .cfa: sp 0 +
STACK CFI INIT 642fc ec .cfa: sp 0 +
STACK CFI 64300 .cfa: sp 112 +
STACK CFI 64310 .cfa: x29 48 + x19: .cfa -8 + ^ x20: .cfa -16 + ^ x21: .cfa -32 + ^ .ra: .cfa -40 + ^ x29: .cfa -48 + ^
STACK CFI 643d0 .cfa: sp 112 +
STACK CFI 643e0 .cfa: sp 0 +
STACK CFI 643e4 .cfa: x29 48 +
STACK CFI INIT 643e8 ec .cfa: sp 0 +
STACK CFI 643ec .cfa: sp 112 +
STACK CFI 643fc .cfa: x29 48 + x19: .cfa -8 + ^ x20: .cfa -16 + ^ x21: .cfa -32 + ^ .ra: .cfa -40 + ^ x29: .cfa -48 + ^
STACK CFI 644bc .cfa: sp 112 +
STACK CFI 644cc .cfa: sp 0 +
STACK CFI 644d0 .cfa: x29 48 +
STACK CFI INIT 644d4 48 .cfa: sp 0 +
STACK CFI 644d8 .cfa: sp 32 +
STACK CFI 644e0 .cfa: x29 32 + x19: .cfa -8 + ^ x20: .cfa -16 + ^ .ra: .cfa -24 + ^ x29: .cfa -32 + ^
STACK CFI 64504 .cfa: sp 32 +
STACK CFI 6450c .cfa: sp 0 +
STACK CFI 64510 .cfa: x29 32 +
STACK CFI INIT 6451c 98 .cfa: sp 0 +
STACK CFI 64520 .cfa: sp 80 +
STACK CFI 6452c .cfa: x29 32 + x19: .cfa -16 + ^ .ra: .cfa -24 + ^ x29: .cfa -32 + ^
STACK CFI 645a0 .cfa: sp 80 +
STACK CFI 645ac .cfa: sp 0 +
STACK CFI 645b0 .cfa: x29 32 +
STACK CFI INIT 645b4 260 .cfa: sp 0 +
STACK CFI 645b8 .cfa: sp 112 +
STACK CFI 645d0 .cfa: x29 80 + x19: .cfa -8 + ^ x20: .cfa -16 + ^ x21: .cfa -24 + ^ x22: .cfa -32 + ^ x23: .cfa -40 + ^ x24: .cfa -48 + ^ x25: .cfa -64 + ^ .ra: .cfa -72 + ^ x29: .cfa -80 + ^
STACK CFI 647b4 .cfa: sp 112 +
STACK CFI 647cc .cfa: sp 0 +
STACK CFI 647d0 .cfa: x29 80 +
STACK CFI INIT 64814 150 .cfa: sp 0 +
STACK CFI 64818 .cfa: sp 48 +
STACK CFI 64824 .cfa: x29 48 + x19: .cfa -8 + ^ x20: .cfa -16 + ^ x21: .cfa -24 + ^ x22: .cfa -32 + ^ .ra: .cfa -40 + ^ x29: .cfa -48 + ^
STACK CFI 64954 .cfa: sp 48 +
STACK CFI 64960 .cfa: sp 0 +
STACK CFI INIT 64964 1e0 .cfa: sp 0 +
STACK CFI 64968 .cfa: sp 96 +
STACK CFI 6497c .cfa: x29 64 + x19: .cfa -8 + ^ x20: .cfa -16 + ^ x21: .cfa -24 + ^ x22: .cfa -32 + ^ x23: .cfa -40 + ^ x24: .cfa -48 + ^ .ra: .cfa -56 + ^ x29: .cfa -64 + ^
STACK CFI 64afc .cfa: sp 96 +
STACK CFI 64b10 .cfa: sp 0 +
STACK CFI 64b14 .cfa: x29 64 +
STACK CFI INIT 64b44 284 .cfa: sp 0 +
STACK CFI 64b48 .cfa: sp 112 +
STACK CFI 64b60 .cfa: x29 80 + x19: .cfa -8 + ^ x20: .cfa -16 + ^ x21: .cfa -24 + ^ x22: .cfa -32 + ^ x23: .cfa -40 + ^ x24: .cfa -48 + ^ x25: .cfa -64 + ^ .ra: .cfa -72 + ^ x29: .cfa -80 + ^
STACK CFI 64d68 .cfa: sp 112 +
STACK CFI 64d80 .cfa: sp 0 +
STACK CFI 64d84 .cfa: x29 80 +
STACK CFI INIT 64dc8 208 .cfa: sp 0 +
STACK CFI 64dcc .cfa: sp 96 +
STACK CFI 64de0 .cfa: x29 64 + x19: .cfa -8 + ^ x20: .cfa -16 + ^ x21: .cfa -24 + ^ x22: .cfa -32 + ^ x23: .cfa -40 + ^ x24: .cfa -48 + ^ .ra: .cfa -56 + ^ x29: .cfa -64 + ^
STACK CFI 64f88 .cfa: sp 96 +
STACK CFI 64f9c .cfa: sp 0 +
STACK CFI 64fa0 .cfa: x29 64 +
STACK CFI INIT 64fd0 360 .cfa: sp 0 +
STACK CFI 64fd4 .cfa: sp 160 +
STACK CFI 64ff0 .cfa: x29 96 + x19: .cfa -8 + ^ x20: .cfa -16 + ^ x21: .cfa -24 + ^ x22: .cfa -32 + ^ x23: .cfa -40 + ^ x24: .cfa -48 + ^ x25: .cfa -56 + ^ x26: .cfa -64 + ^ x27: .cfa -72 + ^ x28: .cfa -80 + ^ .ra: .cfa -88 + ^ x29: .cfa -96 + ^
STACK CFI 652bc .cfa: sp 160 +
STACK CFI 652d8 .cfa: sp 0 +
STACK CFI 652dc .cfa: x29 96 +
STACK CFI INIT 65330 314 .cfa: sp 0 +
STACK CFI 65334 .cfa: sp 144 +
STACK CFI 65350 .cfa: x29 96 + x19: .cfa -8 + ^ x20: .cfa -16 + ^ x21: .cfa -24 + ^ x22: .cfa -32 + ^ x23: .cfa -40 + ^ x24: .cfa -48 + ^ x25: .cfa -56 + ^ x26: .cfa -64 + ^ x27: .cfa -72 + ^ x28: .cfa -80 + ^ .ra: .cfa -88 + ^ x29: .cfa -96 + ^
STACK CFI 655cc .cfa: sp 144 +
STACK CFI 655e8 .cfa: sp 0 +
STACK CFI 655ec .cfa: x29 96 +
STACK CFI INIT 65644 290 .cfa: sp 0 +
STACK CFI 65648 .cfa: sp 128 +
STACK CFI 65660 .cfa: x29 80 + x19: .cfa -8 + ^ x20: .cfa -16 + ^ x21: .cfa -24 + ^ x22: .cfa -32 + ^ x23: .cfa -40 + ^ x24: .cfa -48 + ^ x25: .cfa -56 + ^ x26: .cfa -64 + ^ .ra: .cfa -72 + ^ x29: .cfa -80 + ^
STACK CFI 658b4 .cfa: sp 128 +
STACK CFI 658cc .cfa: sp 0 +
STACK CFI 658d0 .cfa: x29 80 +
STACK CFI INIT 658d4 ddc .cfa: sp 0 +
STACK CFI 658d8 .cfa: sp 144 +
STACK CFI 658f4 .cfa: x29 96 + x19: .cfa -8 + ^ x20: .cfa -16 + ^ x21: .cfa -24 + ^ x22: .cfa -32 + ^ x23: .cfa -40 + ^ x24: .cfa -48 + ^ x25: .cfa -56 + ^ x26: .cfa -64 + ^ x27: .cfa -72 + ^ x28: .cfa -80 + ^ .ra: .cfa -88 + ^ x29: .cfa -96 + ^
STACK CFI 66588 .cfa: sp 144 +
STACK CFI 665a4 .cfa: sp 0 +
STACK CFI 665a8 .cfa: x29 96 +
STACK CFI INIT 666b0 1d0 .cfa: sp 0 +
STACK CFI 666b4 .cfa: sp 80 +
STACK CFI 666c8 .cfa: x29 80 + x19: .cfa -8 + ^ x20: .cfa -16 + ^ x21: .cfa -24 + ^ x22: .cfa -32 + ^ x23: .cfa -40 + ^ x24: .cfa -48 + ^ x25: .cfa -64 + ^ .ra: .cfa -72 + ^ x29: .cfa -80 + ^
STACK CFI 66868 .cfa: sp 80 +
STACK CFI 6687c .cfa: sp 0 +
STACK CFI INIT 66880 23c .cfa: sp 0 +
STACK CFI 66884 .cfa: sp 112 +
STACK CFI 66898 .cfa: x29 64 + x19: .cfa -8 + ^ x20: .cfa -16 + ^ x21: .cfa -24 + ^ x22: .cfa -32 + ^ x23: .cfa -40 + ^ x24: .cfa -48 + ^ .ra: .cfa -56 + ^ x29: .cfa -64 + ^
STACK CFI 66a74 .cfa: sp 112 +
STACK CFI 66a88 .cfa: sp 0 +
STACK CFI 66a8c .cfa: x29 64 +
STACK CFI INIT 66abc 30c .cfa: sp 0 +
STACK CFI 66ac0 .cfa: sp 80 +
STACK CFI 66ad4 .cfa: x29 64 + x19: .cfa -8 + ^ x20: .cfa -16 + ^ x21: .cfa -24 + ^ x22: .cfa -32 + ^ x23: .cfa -40 + ^ x24: .cfa -48 + ^ .ra: .cfa -56 + ^ x29: .cfa -64 + ^
STACK CFI 66c50 .cfa: sp 80 +
STACK CFI 66c64 .cfa: sp 0 +
STACK CFI 66c68 .cfa: x29 64 +
STACK CFI INIT 66dc8 178 .cfa: sp 0 +
STACK CFI 66dcc .cfa: sp 80 +
STACK CFI 66de0 .cfa: x29 64 + x19: .cfa -8 + ^ x20: .cfa -16 + ^ x21: .cfa -24 + ^ x22: .cfa -32 + ^ x23: .cfa -40 + ^ x24: .cfa -48 + ^ .ra: .cfa -56 + ^ x29: .cfa -64 + ^
STACK CFI 66f24 .cfa: sp 80 +
STACK CFI 66f38 .cfa: sp 0 +
STACK CFI 66f3c .cfa: x29 64 +
STACK CFI INIT 66f40 178 .cfa: sp 0 +
STACK CFI 66f44 .cfa: sp 80 +
STACK CFI 66f58 .cfa: x29 64 + x19: .cfa -8 + ^ x20: .cfa -16 + ^ x21: .cfa -24 + ^ x22: .cfa -32 + ^ x23: .cfa -40 + ^ x24: .cfa -48 + ^ .ra: .cfa -56 + ^ x29: .cfa -64 + ^
STACK CFI 6709c .cfa: sp 80 +
STACK CFI 670b0 .cfa: sp 0 +
STACK CFI 670b4 .cfa: x29 64 +
STACK CFI INIT 670b8 240 .cfa: sp 0 +
STACK CFI 670bc .cfa: sp 96 +
STACK CFI 670d4 .cfa: x29 96 + x19: .cfa -8 + ^ x20: .cfa -16 + ^ x21: .cfa -24 + ^ x22: .cfa -32 + ^ x23: .cfa -40 + ^ x24: .cfa -48 + ^ x25: .cfa -56 + ^ x26: .cfa -64 + ^ x27: .cfa -72 + ^ x28: .cfa -80 + ^ .ra: .cfa -88 + ^ x29: .cfa -96 + ^
STACK CFI 672dc .cfa: sp 96 +
STACK CFI 672f4 .cfa: sp 0 +
STACK CFI INIT 67f6c 154 .cfa: sp 0 +
STACK CFI 67f70 .cfa: sp 96 +
STACK CFI 67f84 .cfa: x29 64 + x19: .cfa -8 + ^ x20: .cfa -16 + ^ x21: .cfa -24 + ^ x22: .cfa -32 + ^ x23: .cfa -48 + ^ .ra: .cfa -56 + ^ x29: .cfa -64 + ^
STACK CFI 68064 .cfa: sp 96 +
STACK CFI 68078 .cfa: sp 0 +
STACK CFI 6807c .cfa: x29 64 +
STACK CFI INIT 6832c 44 .cfa: sp 0 +
STACK CFI 68330 .cfa: sp 32 +
STACK CFI 68338 .cfa: x29 32 + x19: .cfa -16 + ^ .ra: .cfa -24 + ^ x29: .cfa -32 + ^
STACK CFI 68354 .cfa: sp 32 +
STACK CFI 6835c .cfa: sp 0 +
STACK CFI 68360 .cfa: x29 32 +
STACK CFI 68364 .cfa: sp 32 +
STACK CFI 6836c .cfa: sp 0 +
STACK CFI INIT 68370 1d0 .cfa: sp 0 +
STACK CFI 68374 .cfa: sp 64 +
STACK CFI 68384 .cfa: x29 64 + x19: .cfa -8 + ^ x20: .cfa -16 + ^ x21: .cfa -24 + ^ x22: .cfa -32 + ^ x23: .cfa -40 + ^ x24: .cfa -48 + ^ .ra: .cfa -56 + ^ x29: .cfa -64 + ^
STACK CFI 68444 .cfa: sp 64 +
STACK CFI 68454 .cfa: sp 0 +
STACK CFI 68458 .cfa: x29 64 +
STACK CFI INIT 68540 17c .cfa: sp 0 +
STACK CFI INIT 68a74 a0 .cfa: sp 0 +
STACK CFI 68a78 .cfa: sp 48 +
STACK CFI 68a84 .cfa: x29 48 + x19: .cfa -8 + ^ x20: .cfa -16 + ^ x21: .cfa -24 + ^ x22: .cfa -32 + ^ .ra: .cfa -40 + ^ x29: .cfa -48 + ^
STACK CFI 68af0 .cfa: sp 48 +
STACK CFI 68afc .cfa: sp 0 +
STACK CFI 68b00 .cfa: sp 48 +
STACK CFI 68b0c .cfa: sp 0 +
STACK CFI 68b10 .cfa: x29 48 +
STACK CFI INIT 697c8 158 .cfa: sp 0 +
STACK CFI 697cc .cfa: sp 96 +
STACK CFI 697e0 .cfa: x29 64 + x19: .cfa -8 + ^ x20: .cfa -16 + ^ x21: .cfa -24 + ^ x22: .cfa -32 + ^ x23: .cfa -48 + ^ .ra: .cfa -56 + ^ x29: .cfa -64 + ^
STACK CFI 698c4 .cfa: sp 96 +
STACK CFI 698d8 .cfa: sp 0 +
STACK CFI 698dc .cfa: x29 64 +
STACK CFI INIT 69920 190 .cfa: sp 0 +
STACK CFI INIT 6a5ac 1dc .cfa: sp 0 +
STACK CFI 6a5b0 .cfa: sp 80 +
STACK CFI 6a5c4 .cfa: x29 80 + x19: .cfa -8 + ^ x20: .cfa -16 + ^ x21: .cfa -24 + ^ x22: .cfa -32 + ^ x23: .cfa -40 + ^ x24: .cfa -48 + ^ x25: .cfa -64 + ^ .ra: .cfa -72 + ^ x29: .cfa -80 + ^
STACK CFI 6a770 .cfa: sp 80 +
STACK CFI 6a784 .cfa: sp 0 +
STACK CFI INIT 6bbb8 124 .cfa: sp 0 +
STACK CFI 6bbe8 .cfa: sp 32 +
STACK CFI 6bbf0 .cfa: x29 32 + x19: .cfa -8 + ^ x20: .cfa -16 + ^ .ra: .cfa -24 + ^ x29: .cfa -32 + ^
STACK CFI 6bcd0 .cfa: sp 32 +
STACK CFI 6bcd8 .cfa: sp 0 +
STACK CFI INIT 6c438 320 .cfa: sp 0 +
STACK CFI 6c43c .cfa: sp 64 +
STACK CFI 6c44c .cfa: x29 64 + x19: .cfa -8 + ^ x20: .cfa -16 + ^ x21: .cfa -24 + ^ x22: .cfa -32 + ^ x23: .cfa -40 + ^ x24: .cfa -48 + ^ .ra: .cfa -56 + ^ x29: .cfa -64 + ^
STACK CFI 6c4c8 .cfa: sp 64 +
STACK CFI 6c4d8 .cfa: sp 0 +
STACK CFI 6c4dc .cfa: x29 64 +
STACK CFI 6c6b0 .cfa: sp 64 +
STACK CFI 6c6c0 .cfa: sp 0 +
STACK CFI 6c6c4 .cfa: x29 64 +
STACK CFI 6c6d4 .cfa: sp 64 +
STACK CFI 6c6e4 .cfa: sp 0 +
STACK CFI 6c6e8 .cfa: x29 64 +
STACK CFI INIT 6c758 a0 .cfa: sp 0 +
STACK CFI 6c75c .cfa: sp 48 +
STACK CFI 6c768 .cfa: x29 48 + x19: .cfa -8 + ^ x20: .cfa -16 + ^ x21: .cfa -24 + ^ x22: .cfa -32 + ^ .ra: .cfa -40 + ^ x29: .cfa -48 + ^
STACK CFI 6c7d4 .cfa: sp 48 +
STACK CFI 6c7e0 .cfa: sp 0 +
STACK CFI 6c7e4 .cfa: sp 48 +
STACK CFI 6c7f0 .cfa: sp 0 +
STACK CFI 6c7f4 .cfa: x29 48 +
STACK CFI INIT 6d6a8 160 .cfa: sp 0 +
STACK CFI 6d6ac .cfa: sp 64 +
STACK CFI 6d6bc .cfa: x29 64 + x19: .cfa -8 + ^ x20: .cfa -16 + ^ x21: .cfa -24 + ^ x22: .cfa -32 + ^ x23: .cfa -48 + ^ .ra: .cfa -56 + ^ x29: .cfa -64 + ^
STACK CFI 6d7b4 .cfa: sp 64 +
STACK CFI 6d7c4 .cfa: sp 0 +
STACK CFI 6d7c8 .cfa: x29 64 +
STACK CFI INIT 6d808 214 .cfa: sp 0 +
STACK CFI 6d80c .cfa: sp 128 +
STACK CFI 6d828 .cfa: x29 96 + x19: .cfa -8 + ^ x20: .cfa -16 + ^ x21: .cfa -24 + ^ x22: .cfa -32 + ^ x23: .cfa -40 + ^ x24: .cfa -48 + ^ x25: .cfa -56 + ^ x26: .cfa -64 + ^ x27: .cfa -80 + ^ .ra: .cfa -88 + ^ x29: .cfa -96 + ^
STACK CFI 6d9a4 .cfa: sp 128 +
STACK CFI 6d9c0 .cfa: sp 0 +
STACK CFI 6d9c4 .cfa: x29 96 +
STACK CFI INIT 6f6b8 290 .cfa: sp 0 +
STACK CFI 6f6bc .cfa: sp 16 +
STACK CFI 6f6c0 .cfa: x29 16 + .ra: .cfa -8 + ^ x29: .cfa -16 + ^
STACK CFI 6f74c .cfa: sp 16 +
STACK CFI 6f750 .cfa: sp 0 +
STACK CFI 6f754 .cfa: x29 16 +
STACK CFI 6f7a4 .cfa: sp 16 +
STACK CFI 6f7a8 .cfa: sp 0 +
STACK CFI 6f7ac .cfa: x29 16 +
STACK CFI 6f910 .cfa: sp 16 +
STACK CFI 6f914 .cfa: sp 0 +
STACK CFI 6f918 .cfa: x29 16 +
STACK CFI INIT 6f948 158 .cfa: sp 0 +
STACK CFI 6f94c .cfa: sp 112 +
STACK CFI 6f968 .cfa: x29 96 + x19: .cfa -8 + ^ x20: .cfa -16 + ^ x21: .cfa -24 + ^ x22: .cfa -32 + ^ x23: .cfa -40 + ^ x24: .cfa -48 + ^ x25: .cfa -56 + ^ x26: .cfa -64 + ^ x27: .cfa -72 + ^ x28: .cfa -80 + ^ .ra: .cfa -88 + ^ x29: .cfa -96 + ^
STACK CFI 6fa50 .cfa: sp 112 +
STACK CFI 6fa54 .cfa: x29 96 +
STACK CFI 6fa5c .cfa: sp 112 +
STACK CFI 6fa78 .cfa: sp 0 +
STACK CFI 6fa7c .cfa: x29 96 +
STACK CFI 6fa9c .cfa: sp 112 +
STACK CFI INIT 6faa0 e54 .cfa: sp 0 +
STACK CFI 6faa4 .cfa: sp 192 +
STACK CFI 6fac0 .cfa: x29 96 + x19: .cfa -8 + ^ x20: .cfa -16 + ^ x21: .cfa -24 + ^ x22: .cfa -32 + ^ x23: .cfa -40 + ^ x24: .cfa -48 + ^ x25: .cfa -56 + ^ x26: .cfa -64 + ^ x27: .cfa -72 + ^ x28: .cfa -80 + ^ .ra: .cfa -88 + ^ x29: .cfa -96 + ^
STACK CFI 707dc .cfa: sp 192 +
STACK CFI 707f8 .cfa: sp 0 +
STACK CFI 707fc .cfa: x29 96 +
STACK CFI INIT 708f4 1068 .cfa: sp 0 +
STACK CFI 708f8 .cfa: sp 288 +
STACK CFI 70914 .cfa: x29 96 + x19: .cfa -8 + ^ x20: .cfa -16 + ^ x21: .cfa -24 + ^ x22: .cfa -32 + ^ x23: .cfa -40 + ^ x24: .cfa -48 + ^ x25: .cfa -56 + ^ x26: .cfa -64 + ^ x27: .cfa -72 + ^ x28: .cfa -80 + ^ .ra: .cfa -88 + ^ x29: .cfa -96 + ^
STACK CFI 716a4 .cfa: sp 288 +
STACK CFI 716c0 .cfa: sp 0 +
STACK CFI 716c4 .cfa: x29 96 +
STACK CFI INIT 7195c 520 .cfa: sp 0 +
STACK CFI 71960 .cfa: sp 144 +
STACK CFI 7197c .cfa: x29 96 + x19: .cfa -8 + ^ x20: .cfa -16 + ^ x21: .cfa -24 + ^ x22: .cfa -32 + ^ x23: .cfa -40 + ^ x24: .cfa -48 + ^ x25: .cfa -56 + ^ x26: .cfa -64 + ^ x27: .cfa -72 + ^ x28: .cfa -80 + ^ .ra: .cfa -88 + ^ x29: .cfa -96 + ^
STACK CFI 71e58 .cfa: sp 144 +
STACK CFI 71e74 .cfa: sp 0 +
STACK CFI 71e78 .cfa: x29 96 +
STACK CFI INIT 7281c 136c .cfa: sp 0 +
STACK CFI 72820 .cfa: sp 224 +
STACK CFI 7283c .cfa: x29 96 + x19: .cfa -8 + ^ x20: .cfa -16 + ^ x21: .cfa -24 + ^ x22: .cfa -32 + ^ x23: .cfa -40 + ^ x24: .cfa -48 + ^ x25: .cfa -56 + ^ x26: .cfa -64 + ^ x27: .cfa -72 + ^ x28: .cfa -80 + ^ .ra: .cfa -88 + ^ x29: .cfa -96 + ^
STACK CFI 73b64 .cfa: sp 224 +
STACK CFI 73b80 .cfa: sp 0 +
STACK CFI 73b84 .cfa: x29 96 +
STACK CFI INIT 73b88 1b8 .cfa: sp 0 +
STACK CFI INIT 38870 30c .cfa: sp 0 +
STACK CFI 38874 .cfa: sp 96 +
STACK CFI 3888c .cfa: x29 56 + x19: .cfa -8 + ^ x20: .cfa -16 + ^ x21: .cfa -24 + ^ x22: .cfa -32 + ^ x23: .cfa -40 + ^ .ra: .cfa -48 + ^ x29: .cfa -56 + ^ v8: .cfa -64 + ^
STACK CFI 38ac8 .cfa: sp 96 +
STACK CFI 38ae0 .cfa: sp 0 +
STACK CFI 38ae4 .cfa: x29 56 +
STACK CFI INIT 38d54 18c .cfa: sp 0 +
STACK CFI 38d58 .cfa: sp 80 +
STACK CFI 38d68 .cfa: x29 48 + x19: .cfa -8 + ^ x20: .cfa -16 + ^ x21: .cfa -24 + ^ x22: .cfa -32 + ^ .ra: .cfa -40 + ^ x29: .cfa -48 + ^
STACK CFI 38ea4 .cfa: sp 80 +
STACK CFI 38eb4 .cfa: sp 0 +
STACK CFI 38eb8 .cfa: x29 48 +
STACK CFI INIT 38ef8 408 .cfa: sp 0 +
STACK CFI 38efc .cfa: sp 256 +
STACK CFI 38f0c .cfa: x29 48 + x19: .cfa -8 + ^ x20: .cfa -16 + ^ x21: .cfa -24 + ^ x22: .cfa -32 + ^ .ra: .cfa -40 + ^ x29: .cfa -48 + ^
STACK CFI 3929c .cfa: sp 256 +
STACK CFI 392ac .cfa: sp 0 +
STACK CFI 392b0 .cfa: x29 48 +
STACK CFI INIT 39300 2f4 .cfa: sp 0 +
STACK CFI 39304 .cfa: sp 224 +
STACK CFI 3931c .cfa: x29 80 + x19: .cfa -8 + ^ x20: .cfa -16 + ^ x21: .cfa -24 + ^ x22: .cfa -32 + ^ x23: .cfa -40 + ^ x24: .cfa -48 + ^ x25: .cfa -64 + ^ .ra: .cfa -72 + ^ x29: .cfa -80 + ^
STACK CFI 394fc .cfa: sp 224 +
STACK CFI 39514 .cfa: sp 0 +
STACK CFI 39518 .cfa: x29 80 +
STACK CFI INIT 395f4 74 .cfa: sp 0 +
STACK CFI 395f8 .cfa: sp 48 +
STACK CFI 39604 .cfa: x29 32 + x19: .cfa -8 + ^ x20: .cfa -16 + ^ .ra: .cfa -24 + ^ x29: .cfa -32 + ^
STACK CFI 39650 .cfa: sp 48 +
STACK CFI 3965c .cfa: sp 0 +
STACK CFI 39660 .cfa: x29 32 +
STACK CFI INIT 39668 74 .cfa: sp 0 +
STACK CFI 3966c .cfa: sp 48 +
STACK CFI 39678 .cfa: x29 32 + x19: .cfa -8 + ^ x20: .cfa -16 + ^ .ra: .cfa -24 + ^ x29: .cfa -32 + ^
STACK CFI 396c4 .cfa: sp 48 +
STACK CFI 396d0 .cfa: sp 0 +
STACK CFI 396d4 .cfa: x29 32 +
STACK CFI INIT 39758 50 .cfa: sp 0 +
STACK CFI 3975c .cfa: sp 32 +
STACK CFI 39764 .cfa: x29 32 + x19: .cfa -8 + ^ x20: .cfa -16 + ^ .ra: .cfa -24 + ^ x29: .cfa -32 + ^
STACK CFI INIT 39898 190 .cfa: sp 0 +
STACK CFI 3989c .cfa: sp 160 +
STACK CFI 398ac .cfa: x29 48 + x19: .cfa -8 + ^ x20: .cfa -16 + ^ x21: .cfa -32 + ^ .ra: .cfa -40 + ^ x29: .cfa -48 + ^
STACK CFI 399cc .cfa: sp 160 +
STACK CFI 399dc .cfa: sp 0 +
STACK CFI 399e0 .cfa: x29 48 +
STACK CFI INIT 39a74 3a0 .cfa: sp 0 +
STACK CFI 39a78 .cfa: sp 160 +
STACK CFI 39a94 .cfa: x29 96 + x19: .cfa -8 + ^ x20: .cfa -16 + ^ x21: .cfa -24 + ^ x22: .cfa -32 + ^ x23: .cfa -40 + ^ x24: .cfa -48 + ^ x25: .cfa -56 + ^ x26: .cfa -64 + ^ x27: .cfa -80 + ^ .ra: .cfa -88 + ^ x29: .cfa -96 + ^
STACK CFI 39c98 .cfa: sp 160 +
STACK CFI 39cb4 .cfa: sp 0 +
STACK CFI 39cb8 .cfa: x29 96 +
STACK CFI INIT 39e14 74 .cfa: sp 0 +
STACK CFI 39e18 .cfa: sp 48 +
STACK CFI 39e24 .cfa: x29 32 + x19: .cfa -8 + ^ x20: .cfa -16 + ^ .ra: .cfa -24 + ^ x29: .cfa -32 + ^
STACK CFI 39e70 .cfa: sp 48 +
STACK CFI 39e7c .cfa: sp 0 +
STACK CFI 39e80 .cfa: x29 32 +
STACK CFI INIT 39f84 138 .cfa: sp 0 +
STACK CFI 39f88 .cfa: sp 144 +
STACK CFI 39f94 .cfa: x29 32 + x19: .cfa -8 + ^ x20: .cfa -16 + ^ .ra: .cfa -24 + ^ x29: .cfa -32 + ^
STACK CFI 3a058 .cfa: sp 144 +
STACK CFI 3a064 .cfa: sp 0 +
STACK CFI 3a068 .cfa: x29 32 +
STACK CFI INIT 3a3d8 43c .cfa: sp 0 +
STACK CFI 3a3dc .cfa: sp 224 +
STACK CFI 3a3f8 .cfa: x29 96 + x19: .cfa -8 + ^ x20: .cfa -16 + ^ x21: .cfa -24 + ^ x22: .cfa -32 + ^ x23: .cfa -40 + ^ x24: .cfa -48 + ^ x25: .cfa -56 + ^ x26: .cfa -64 + ^ x27: .cfa -72 + ^ x28: .cfa -80 + ^ .ra: .cfa -88 + ^ x29: .cfa -96 + ^
STACK CFI 3a70c .cfa: sp 224 +
STACK CFI 3a728 .cfa: sp 0 +
STACK CFI 3a72c .cfa: x29 96 +
STACK CFI INIT 3a830 610 .cfa: sp 0 +
STACK CFI 3a834 .cfa: sp 224 +
STACK CFI 3a850 .cfa: x29 96 + x19: .cfa -8 + ^ x20: .cfa -16 + ^ x21: .cfa -24 + ^ x22: .cfa -32 + ^ x23: .cfa -40 + ^ x24: .cfa -48 + ^ x25: .cfa -56 + ^ x26: .cfa -64 + ^ x27: .cfa -80 + ^ .ra: .cfa -88 + ^ x29: .cfa -96 + ^
STACK CFI 3a95c .cfa: sp 224 +
STACK CFI 3a978 .cfa: sp 0 +
STACK CFI 3a97c .cfa: x29 96 +
STACK CFI 3ad00 .cfa: sp 224 +
STACK CFI 3ad1c .cfa: sp 0 +
STACK CFI 3ad20 .cfa: x29 96 +
STACK CFI INIT 3ae5c 480 .cfa: sp 0 +
STACK CFI 3ae60 .cfa: sp 224 +
STACK CFI 3ae7c .cfa: x29 96 + x19: .cfa -8 + ^ x20: .cfa -16 + ^ x21: .cfa -24 + ^ x22: .cfa -32 + ^ x23: .cfa -40 + ^ x24: .cfa -48 + ^ x25: .cfa -56 + ^ x26: .cfa -64 + ^ x27: .cfa -80 + ^ .ra: .cfa -88 + ^ x29: .cfa -96 + ^
STACK CFI 3b0e8 .cfa: sp 224 +
STACK CFI 3b104 .cfa: sp 0 +
STACK CFI 3b108 .cfa: x29 96 +
STACK CFI 3b1d4 .cfa: sp 224 +
STACK CFI 3b1f0 .cfa: sp 0 +
STACK CFI 3b1f4 .cfa: x29 96 +
STACK CFI INIT 3b2f8 610 .cfa: sp 0 +
STACK CFI 3b2fc .cfa: sp 224 +
STACK CFI 3b318 .cfa: x29 96 + x19: .cfa -8 + ^ x20: .cfa -16 + ^ x21: .cfa -24 + ^ x22: .cfa -32 + ^ x23: .cfa -40 + ^ x24: .cfa -48 + ^ x25: .cfa -56 + ^ x26: .cfa -64 + ^ x27: .cfa -80 + ^ .ra: .cfa -88 + ^ x29: .cfa -96 + ^
STACK CFI 3b424 .cfa: sp 224 +
STACK CFI 3b440 .cfa: sp 0 +
STACK CFI 3b444 .cfa: x29 96 +
STACK CFI 3b7c8 .cfa: sp 224 +
STACK CFI 3b7e4 .cfa: sp 0 +
STACK CFI 3b7e8 .cfa: x29 96 +
STACK CFI INIT 3b924 480 .cfa: sp 0 +
STACK CFI 3b928 .cfa: sp 224 +
STACK CFI 3b944 .cfa: x29 96 + x19: .cfa -8 + ^ x20: .cfa -16 + ^ x21: .cfa -24 + ^ x22: .cfa -32 + ^ x23: .cfa -40 + ^ x24: .cfa -48 + ^ x25: .cfa -56 + ^ x26: .cfa -64 + ^ x27: .cfa -80 + ^ .ra: .cfa -88 + ^ x29: .cfa -96 + ^
STACK CFI 3bbb0 .cfa: sp 224 +
STACK CFI 3bbcc .cfa: sp 0 +
STACK CFI 3bbd0 .cfa: x29 96 +
STACK CFI 3bc9c .cfa: sp 224 +
STACK CFI 3bcb8 .cfa: sp 0 +
STACK CFI 3bcbc .cfa: x29 96 +
STACK CFI INIT 3bdc0 480 .cfa: sp 0 +
STACK CFI 3bdc4 .cfa: sp 224 +
STACK CFI 3bde0 .cfa: x29 96 + x19: .cfa -8 + ^ x20: .cfa -16 + ^ x21: .cfa -24 + ^ x22: .cfa -32 + ^ x23: .cfa -40 + ^ x24: .cfa -48 + ^ x25: .cfa -56 + ^ x26: .cfa -64 + ^ x27: .cfa -80 + ^ .ra: .cfa -88 + ^ x29: .cfa -96 + ^
STACK CFI 3c04c .cfa: sp 224 +
STACK CFI 3c068 .cfa: sp 0 +
STACK CFI 3c06c .cfa: x29 96 +
STACK CFI 3c138 .cfa: sp 224 +
STACK CFI 3c154 .cfa: sp 0 +
STACK CFI 3c158 .cfa: x29 96 +
STACK CFI INIT 3c25c 480 .cfa: sp 0 +
STACK CFI 3c260 .cfa: sp 224 +
STACK CFI 3c27c .cfa: x29 96 + x19: .cfa -8 + ^ x20: .cfa -16 + ^ x21: .cfa -24 + ^ x22: .cfa -32 + ^ x23: .cfa -40 + ^ x24: .cfa -48 + ^ x25: .cfa -56 + ^ x26: .cfa -64 + ^ x27: .cfa -80 + ^ .ra: .cfa -88 + ^ x29: .cfa -96 + ^
STACK CFI 3c4e8 .cfa: sp 224 +
STACK CFI 3c504 .cfa: sp 0 +
STACK CFI 3c508 .cfa: x29 96 +
STACK CFI 3c5d4 .cfa: sp 224 +
STACK CFI 3c5f0 .cfa: sp 0 +
STACK CFI 3c5f4 .cfa: x29 96 +
STACK CFI INIT 3c6f8 480 .cfa: sp 0 +
STACK CFI 3c6fc .cfa: sp 224 +
STACK CFI 3c718 .cfa: x29 96 + x19: .cfa -8 + ^ x20: .cfa -16 + ^ x21: .cfa -24 + ^ x22: .cfa -32 + ^ x23: .cfa -40 + ^ x24: .cfa -48 + ^ x25: .cfa -56 + ^ x26: .cfa -64 + ^ x27: .cfa -80 + ^ .ra: .cfa -88 + ^ x29: .cfa -96 + ^
STACK CFI 3c984 .cfa: sp 224 +
STACK CFI 3c9a0 .cfa: sp 0 +
STACK CFI 3c9a4 .cfa: x29 96 +
STACK CFI 3ca70 .cfa: sp 224 +
STACK CFI 3ca8c .cfa: sp 0 +
STACK CFI 3ca90 .cfa: x29 96 +
STACK CFI INIT 3cb94 480 .cfa: sp 0 +
STACK CFI 3cb98 .cfa: sp 224 +
STACK CFI 3cbb4 .cfa: x29 96 + x19: .cfa -8 + ^ x20: .cfa -16 + ^ x21: .cfa -24 + ^ x22: .cfa -32 + ^ x23: .cfa -40 + ^ x24: .cfa -48 + ^ x25: .cfa -56 + ^ x26: .cfa -64 + ^ x27: .cfa -80 + ^ .ra: .cfa -88 + ^ x29: .cfa -96 + ^
STACK CFI 3ce20 .cfa: sp 224 +
STACK CFI 3ce3c .cfa: sp 0 +
STACK CFI 3ce40 .cfa: x29 96 +
STACK CFI 3cf0c .cfa: sp 224 +
STACK CFI 3cf28 .cfa: sp 0 +
STACK CFI 3cf2c .cfa: x29 96 +
STACK CFI INIT 3d030 480 .cfa: sp 0 +
STACK CFI 3d034 .cfa: sp 224 +
STACK CFI 3d050 .cfa: x29 96 + x19: .cfa -8 + ^ x20: .cfa -16 + ^ x21: .cfa -24 + ^ x22: .cfa -32 + ^ x23: .cfa -40 + ^ x24: .cfa -48 + ^ x25: .cfa -56 + ^ x26: .cfa -64 + ^ x27: .cfa -80 + ^ .ra: .cfa -88 + ^ x29: .cfa -96 + ^
STACK CFI 3d2bc .cfa: sp 224 +
STACK CFI 3d2d8 .cfa: sp 0 +
STACK CFI 3d2dc .cfa: x29 96 +
STACK CFI 3d3a8 .cfa: sp 224 +
STACK CFI 3d3c4 .cfa: sp 0 +
STACK CFI 3d3c8 .cfa: x29 96 +
STACK CFI INIT 3d4cc 3fc .cfa: sp 0 +
STACK CFI 3d4d0 .cfa: sp 224 +
STACK CFI 3d4ec .cfa: x29 96 + x19: .cfa -8 + ^ x20: .cfa -16 + ^ x21: .cfa -24 + ^ x22: .cfa -32 + ^ x23: .cfa -40 + ^ x24: .cfa -48 + ^ x25: .cfa -56 + ^ x26: .cfa -64 + ^ x27: .cfa -72 + ^ x28: .cfa -80 + ^ .ra: .cfa -88 + ^ x29: .cfa -96 + ^
STACK CFI 3d7c4 .cfa: sp 224 +
STACK CFI 3d7e0 .cfa: sp 0 +
STACK CFI 3d7e4 .cfa: x29 96 +
STACK CFI INIT 3d8c8 89c .cfa: sp 0 +
STACK CFI 3d8cc .cfa: sp 192 +
STACK CFI 3d8e4 .cfa: x29 80 + x19: .cfa -8 + ^ x20: .cfa -16 + ^ x21: .cfa -24 + ^ x22: .cfa -32 + ^ x23: .cfa -40 + ^ x24: .cfa -48 + ^ x25: .cfa -64 + ^ .ra: .cfa -72 + ^ x29: .cfa -80 + ^
STACK CFI 3df2c .cfa: sp 192 +
STACK CFI 3df44 .cfa: sp 0 +
STACK CFI 3df48 .cfa: x29 80 +
STACK CFI INIT 3e1b4 74 .cfa: sp 0 +
STACK CFI 3e1b8 .cfa: sp 48 +
STACK CFI 3e1c4 .cfa: x29 32 + x19: .cfa -8 + ^ x20: .cfa -16 + ^ .ra: .cfa -24 + ^ x29: .cfa -32 + ^
STACK CFI 3e210 .cfa: sp 48 +
STACK CFI 3e21c .cfa: sp 0 +
STACK CFI 3e220 .cfa: x29 32 +
STACK CFI INIT 3e2a8 154 .cfa: sp 0 +
STACK CFI 3e2ac .cfa: sp 384 +
STACK CFI 3e2c0 .cfa: x29 64 + x19: .cfa -8 + ^ x20: .cfa -16 + ^ x21: .cfa -24 + ^ x22: .cfa -32 + ^ x23: .cfa -40 + ^ x28: .cfa -48 + ^ .ra: .cfa -56 + ^ x29: .cfa -64 + ^
STACK CFI 3e3a4 .cfa: sp 384 +
STACK CFI 3e3b8 .cfa: sp 0 +
STACK CFI 3e3bc .cfa: x29 64 +
STACK CFI INIT 3e3fc 12c .cfa: sp 0 +
STACK CFI 3e400 .cfa: sp 80 +
STACK CFI 3e414 .cfa: x29 80 + x19: .cfa -8 + ^ x20: .cfa -16 + ^ x21: .cfa -24 + ^ x22: .cfa -32 + ^ x23: .cfa -40 + ^ x24: .cfa -48 + ^ x25: .cfa -56 + ^ x26: .cfa -64 + ^ .ra: .cfa -72 + ^ x29: .cfa -80 + ^
STACK CFI 3e4dc .cfa: sp 80 +
STACK CFI 3e4f0 .cfa: sp 0 +
STACK CFI 3e4f4 .cfa: x29 80 +
STACK CFI INIT 3e5a8 1a4 .cfa: sp 0 +
STACK CFI 3e5ac .cfa: sp 112 +
STACK CFI 3e5c4 .cfa: x29 80 + x19: .cfa -8 + ^ x20: .cfa -16 + ^ x21: .cfa -24 + ^ x22: .cfa -32 + ^ x23: .cfa -40 + ^ x24: .cfa -48 + ^ x25: .cfa -56 + ^ x26: .cfa -64 + ^ .ra: .cfa -72 + ^ x29: .cfa -80 + ^
STACK CFI 3e6b4 .cfa: sp 112 +
STACK CFI 3e6cc .cfa: sp 0 +
STACK CFI 3e6d0 .cfa: x29 80 +
STACK CFI INIT 3e74c 1dc .cfa: sp 0 +
STACK CFI 3e750 .cfa: sp 128 +
STACK CFI 3e76c .cfa: x29 96 + x19: .cfa -8 + ^ x20: .cfa -16 + ^ x21: .cfa -24 + ^ x22: .cfa -32 + ^ x23: .cfa -40 + ^ x24: .cfa -48 + ^ x25: .cfa -56 + ^ x26: .cfa -64 + ^ x27: .cfa -80 + ^ .ra: .cfa -88 + ^ x29: .cfa -96 + ^
STACK CFI 3e8d8 .cfa: sp 128 +
STACK CFI 3e8f4 .cfa: sp 0 +
STACK CFI 3e8f8 .cfa: x29 96 +
STACK CFI INIT 3e95c 178 .cfa: sp 0 +
STACK CFI 3e960 .cfa: sp 80 +
STACK CFI 3e974 .cfa: x29 80 + x19: .cfa -8 + ^ x20: .cfa -16 + ^ x21: .cfa -24 + ^ x22: .cfa -32 + ^ x23: .cfa -40 + ^ x24: .cfa -48 + ^ x25: .cfa -64 + ^ .ra: .cfa -72 + ^ x29: .cfa -80 + ^
STACK CFI 3eaa0 .cfa: sp 80 +
STACK CFI 3eab4 .cfa: sp 0 +
STACK CFI 3eab8 .cfa: x29 80 +
STACK CFI INIT 3ec1c 228 .cfa: sp 0 +
STACK CFI 3ec20 .cfa: sp 128 +
STACK CFI 3ec38 .cfa: x29 80 + x19: .cfa -8 + ^ x20: .cfa -16 + ^ x21: .cfa -24 + ^ x22: .cfa -32 + ^ x23: .cfa -40 + ^ x24: .cfa -48 + ^ x25: .cfa -64 + ^ .ra: .cfa -72 + ^ x29: .cfa -80 + ^
STACK CFI 3edd4 .cfa: sp 128 +
STACK CFI 3edec .cfa: sp 0 +
STACK CFI 3edf0 .cfa: x29 80 +
STACK CFI INIT 3f520 134 .cfa: sp 0 +
STACK CFI 3f524 .cfa: sp 128 +
STACK CFI 3f538 .cfa: x29 64 + x19: .cfa -8 + ^ x20: .cfa -16 + ^ x21: .cfa -24 + ^ x22: .cfa -32 + ^ x23: .cfa -40 + ^ x24: .cfa -48 + ^ .ra: .cfa -56 + ^ x29: .cfa -64 + ^
STACK CFI 3f604 .cfa: sp 128 +
STACK CFI 3f618 .cfa: sp 0 +
STACK CFI 3f61c .cfa: x29 64 +
STACK CFI INIT 3f7a4 118 .cfa: sp 0 +
STACK CFI 3f7a8 .cfa: sp 144 +
STACK CFI 3f7c0 .cfa: x29 80 + x19: .cfa -8 + ^ x20: .cfa -16 + ^ x21: .cfa -24 + ^ x22: .cfa -32 + ^ x23: .cfa -40 + ^ x24: .cfa -48 + ^ x25: .cfa -64 + ^ .ra: .cfa -72 + ^ x29: .cfa -80 + ^
STACK CFI 3f868 .cfa: sp 144 +
STACK CFI 3f880 .cfa: sp 0 +
STACK CFI 3f884 .cfa: x29 80 +
STACK CFI INIT 3f8c0 ec .cfa: sp 0 +
STACK CFI 3f8c4 .cfa: sp 48 +
STACK CFI 3f8d0 .cfa: x29 48 + x19: .cfa -8 + ^ x20: .cfa -16 + ^ x21: .cfa -24 + ^ x22: .cfa -32 + ^ .ra: .cfa -40 + ^ x29: .cfa -48 + ^
STACK CFI 3f91c .cfa: sp 48 +
STACK CFI 3f928 .cfa: sp 0 +
STACK CFI 3f92c .cfa: x29 48 +
STACK CFI 3f930 .cfa: sp 48 +
STACK CFI 3f93c .cfa: sp 0 +
STACK CFI 3f940 .cfa: x29 48 +
STACK CFI INIT 3f9ac e0 .cfa: sp 0 +
STACK CFI 3f9b0 .cfa: sp 32 +
STACK CFI 3f9b8 .cfa: x29 32 + x19: .cfa -8 + ^ x20: .cfa -16 + ^ .ra: .cfa -24 + ^ x29: .cfa -32 + ^
STACK CFI 3fa50 .cfa: sp 32 +
STACK CFI 3fa58 .cfa: sp 0 +
STACK CFI 3fa5c .cfa: x29 32 +
STACK CFI INIT 3fb54 184 .cfa: sp 0 +
STACK CFI 3fb58 .cfa: sp 112 +
STACK CFI 3fb68 .cfa: x29 48 + x19: .cfa -8 + ^ x20: .cfa -16 + ^ x21: .cfa -32 + ^ .ra: .cfa -40 + ^ x29: .cfa -48 + ^
STACK CFI 3fc30 .cfa: sp 112 +
STACK CFI 3fc40 .cfa: sp 0 +
STACK CFI 3fc44 .cfa: x29 48 +
STACK CFI INIT 3fcd8 2b8 .cfa: sp 0 +
STACK CFI 3fcdc .cfa: sp 160 +
STACK CFI 3fcf8 .cfa: x29 96 + x19: .cfa -8 + ^ x20: .cfa -16 + ^ x21: .cfa -24 + ^ x22: .cfa -32 + ^ x23: .cfa -40 + ^ x24: .cfa -48 + ^ x25: .cfa -56 + ^ x26: .cfa -64 + ^ x27: .cfa -72 + ^ x28: .cfa -80 + ^ .ra: .cfa -88 + ^ x29: .cfa -96 + ^
STACK CFI 3fd30 .cfa: sp 160 +
STACK CFI 3fd4c .cfa: sp 0 +
STACK CFI 3fd50 .cfa: x29 96 +
STACK CFI INIT 3ff90 114 .cfa: sp 0 +
STACK CFI 3ff94 .cfa: sp 64 +
STACK CFI 3ffa4 .cfa: x29 64 + x19: .cfa -8 + ^ x20: .cfa -16 + ^ x21: .cfa -24 + ^ x22: .cfa -32 + ^ x23: .cfa -48 + ^ .ra: .cfa -56 + ^ x29: .cfa -64 + ^
STACK CFI 40080 .cfa: sp 64 +
STACK CFI 40090 .cfa: sp 0 +
STACK CFI 40094 .cfa: x29 64 +
STACK CFI INIT 400bc 22c .cfa: sp 0 +
STACK CFI 400c0 .cfa: sp 96 +
STACK CFI 400d8 .cfa: x29 96 + x19: .cfa -8 + ^ x20: .cfa -16 + ^ x21: .cfa -24 + ^ x22: .cfa -32 + ^ x23: .cfa -40 + ^ x24: .cfa -48 + ^ x25: .cfa -56 + ^ x26: .cfa -64 + ^ x27: .cfa -80 + ^ .ra: .cfa -88 + ^ x29: .cfa -96 + ^
STACK CFI 4027c .cfa: sp 96 +
STACK CFI 40294 .cfa: sp 0 +
STACK CFI 40298 .cfa: x29 96 +
STACK CFI INIT 40310 50 .cfa: sp 0 +
STACK CFI 40314 .cfa: sp 32 +
STACK CFI 4031c .cfa: x29 32 + x19: .cfa -8 + ^ x20: .cfa -16 + ^ .ra: .cfa -24 + ^ x29: .cfa -32 + ^
STACK CFI INIT 407e0 3e0 .cfa: sp 0 +
STACK CFI 407e4 .cfa: sp 96 +
STACK CFI 407fc .cfa: x29 80 + x19: .cfa -8 + ^ x20: .cfa -16 + ^ x21: .cfa -24 + ^ x22: .cfa -32 + ^ x23: .cfa -40 + ^ x24: .cfa -48 + ^ x25: .cfa -64 + ^ .ra: .cfa -72 + ^ x29: .cfa -80 + ^
STACK CFI 40b4c .cfa: sp 96 +
STACK CFI 40b64 .cfa: sp 0 +
STACK CFI 40b68 .cfa: x29 80 +
STACK CFI INIT 40bc0 3fc .cfa: sp 0 +
STACK CFI 40bc4 .cfa: sp 224 +
STACK CFI 40be0 .cfa: x29 96 + x19: .cfa -8 + ^ x20: .cfa -16 + ^ x21: .cfa -24 + ^ x22: .cfa -32 + ^ x23: .cfa -40 + ^ x24: .cfa -48 + ^ x25: .cfa -56 + ^ x26: .cfa -64 + ^ x27: .cfa -72 + ^ x28: .cfa -80 + ^ .ra: .cfa -88 + ^ x29: .cfa -96 + ^
STACK CFI 40eb8 .cfa: sp 224 +
STACK CFI 40ed4 .cfa: sp 0 +
STACK CFI 40ed8 .cfa: x29 96 +
STACK CFI INIT 40fbc 2a0 .cfa: sp 0 +
STACK CFI 40fc0 .cfa: sp 176 +
STACK CFI 40fd4 .cfa: x29 64 + x19: .cfa -8 + ^ x20: .cfa -16 + ^ x21: .cfa -24 + ^ x22: .cfa -32 + ^ x23: .cfa -48 + ^ .ra: .cfa -56 + ^ x29: .cfa -64 + ^
STACK CFI 41184 .cfa: sp 176 +
STACK CFI 41198 .cfa: sp 0 +
STACK CFI 4119c .cfa: x29 64 +
STACK CFI INIT 41260 118 .cfa: sp 0 +
STACK CFI 41264 .cfa: sp 144 +
STACK CFI 4127c .cfa: x29 80 + x19: .cfa -8 + ^ x20: .cfa -16 + ^ x21: .cfa -24 + ^ x22: .cfa -32 + ^ x23: .cfa -40 + ^ x24: .cfa -48 + ^ x25: .cfa -64 + ^ .ra: .cfa -72 + ^ x29: .cfa -80 + ^
STACK CFI 41324 .cfa: sp 144 +
STACK CFI 4133c .cfa: sp 0 +
STACK CFI 41340 .cfa: x29 80 +
STACK CFI INIT 413cc 2d0 .cfa: sp 0 +
STACK CFI 413d0 .cfa: sp 96 +
STACK CFI 413e8 .cfa: x29 80 + x19: .cfa -8 + ^ x20: .cfa -16 + ^ x21: .cfa -24 + ^ x22: .cfa -32 + ^ x23: .cfa -40 + ^ x24: .cfa -48 + ^ x25: .cfa -64 + ^ .ra: .cfa -72 + ^ x29: .cfa -80 + ^
STACK CFI 41638 .cfa: sp 96 +
STACK CFI 41650 .cfa: sp 0 +
STACK CFI 41654 .cfa: x29 80 +
STACK CFI INIT 4169c 18c .cfa: sp 0 +
STACK CFI 416a0 .cfa: sp 112 +
STACK CFI 416b0 .cfa: x29 48 + x19: .cfa -8 + ^ x20: .cfa -16 + ^ x21: .cfa -24 + ^ x22: .cfa -32 + ^ .ra: .cfa -40 + ^ x29: .cfa -48 + ^
STACK CFI 41784 .cfa: sp 112 +
STACK CFI 41794 .cfa: sp 0 +
STACK CFI 41798 .cfa: x29 48 +
STACK CFI INIT 4182c 308 .cfa: sp 0 +
STACK CFI 41830 .cfa: sp 176 +
STACK CFI 41844 .cfa: x29 64 + x19: .cfa -8 + ^ x20: .cfa -16 + ^ x21: .cfa -24 + ^ x22: .cfa -32 + ^ x23: .cfa -48 + ^ .ra: .cfa -56 + ^ x29: .cfa -64 + ^
STACK CFI 41a2c .cfa: sp 176 +
STACK CFI 41a40 .cfa: sp 0 +
STACK CFI 41a44 .cfa: x29 64 +
STACK CFI INIT 41b38 4f0 .cfa: sp 0 +
STACK CFI 41b3c .cfa: sp 240 +
STACK CFI 41b50 .cfa: x29 64 + x19: .cfa -8 + ^ x20: .cfa -16 + ^ x21: .cfa -24 + ^ x22: .cfa -32 + ^ x23: .cfa -48 + ^ .ra: .cfa -56 + ^ x29: .cfa -64 + ^
STACK CFI 41f70 .cfa: sp 240 +
STACK CFI 41f84 .cfa: sp 0 +
STACK CFI 41f88 .cfa: x29 64 +
STACK CFI INIT 42028 a8 .cfa: sp 0 +
STACK CFI 4202c .cfa: sp 32 +
STACK CFI 42034 .cfa: x29 32 + x19: .cfa -16 + ^ .ra: .cfa -24 + ^ x29: .cfa -32 + ^
STACK CFI 42068 .cfa: sp 32 +
STACK CFI 42070 .cfa: sp 0 +
STACK CFI 42074 .cfa: x29 32 +
STACK CFI 42078 .cfa: sp 32 +
STACK CFI 42080 .cfa: sp 0 +
STACK CFI 42084 .cfa: x29 32 +
STACK CFI INIT 4216c 134 .cfa: sp 0 +
STACK CFI 42170 .cfa: sp 80 +
STACK CFI 42180 .cfa: x29 48 + x19: .cfa -8 + ^ x20: .cfa -16 + ^ x21: .cfa -24 + ^ x22: .cfa -32 + ^ .ra: .cfa -40 + ^ x29: .cfa -48 + ^
STACK CFI 42284 .cfa: sp 80 +
STACK CFI 42294 .cfa: sp 0 +
STACK CFI 42298 .cfa: x29 48 +
STACK CFI INIT 423e4 5c8 .cfa: sp 0 +
STACK CFI 423e8 .cfa: sp 224 +
STACK CFI 42400 .cfa: x29 80 + x19: .cfa -8 + ^ x20: .cfa -16 + ^ x21: .cfa -24 + ^ x22: .cfa -32 + ^ x23: .cfa -40 + ^ x24: .cfa -48 + ^ x25: .cfa -56 + ^ x26: .cfa -64 + ^ .ra: .cfa -72 + ^ x29: .cfa -80 + ^
STACK CFI 427e4 .cfa: sp 224 +
STACK CFI 427fc .cfa: sp 0 +
STACK CFI 42800 .cfa: x29 80 +
STACK CFI INIT 429b0 1d4 .cfa: sp 0 +
STACK CFI 429b4 .cfa: sp 128 +
STACK CFI 429d0 .cfa: x29 96 + x19: .cfa -8 + ^ x20: .cfa -16 + ^ x21: .cfa -24 + ^ x22: .cfa -32 + ^ x23: .cfa -40 + ^ x24: .cfa -48 + ^ x25: .cfa -56 + ^ x26: .cfa -64 + ^ x27: .cfa -72 + ^ x28: .cfa -80 + ^ .ra: .cfa -88 + ^ x29: .cfa -96 + ^
STACK CFI 42b3c .cfa: sp 128 +
STACK CFI 42b58 .cfa: sp 0 +
STACK CFI 42b5c .cfa: x29 96 +
STACK CFI INIT 42b84 168 .cfa: sp 0 +
STACK CFI 42b88 .cfa: sp 384 +
STACK CFI 42b9c .cfa: x29 64 + x19: .cfa -8 + ^ x20: .cfa -16 + ^ x21: .cfa -24 + ^ x22: .cfa -32 + ^ x23: .cfa -40 + ^ x28: .cfa -48 + ^ .ra: .cfa -56 + ^ x29: .cfa -64 + ^
STACK CFI 42c94 .cfa: sp 384 +
STACK CFI 42ca8 .cfa: sp 0 +
STACK CFI 42cac .cfa: x29 64 +
STACK CFI INIT 42d18 2f4c .cfa: sp 0 +
STACK CFI 42d1c .cfa: sp 128 +
STACK CFI 42d3c .cfa: x29 96 + x19: .cfa -8 + ^ x20: .cfa -16 + ^ x21: .cfa -24 + ^ x22: .cfa -32 + ^ x23: .cfa -40 + ^ x24: .cfa -48 + ^ x25: .cfa -56 + ^ x26: .cfa -64 + ^ x27: .cfa -72 + ^ x28: .cfa -80 + ^ .ra: .cfa -88 + ^ x29: .cfa -96 + ^ v8: .cfa -104 + ^ v9: .cfa -112 + ^ v10: .cfa -128 + ^
STACK CFI 455e8 .cfa: sp 128 +
STACK CFI 45608 .cfa: sp 0 +
STACK CFI 4560c .cfa: x29 96 +
STACK CFI INIT 45c68 164 .cfa: sp 0 +
STACK CFI 45c6c .cfa: sp 128 +
STACK CFI 45c78 .cfa: x29 32 + x19: .cfa -8 + ^ x20: .cfa -16 + ^ .ra: .cfa -24 + ^ x29: .cfa -32 + ^
STACK CFI 45d44 .cfa: sp 128 +
STACK CFI 45d50 .cfa: sp 0 +
STACK CFI 45d54 .cfa: x29 32 +
STACK CFI INIT 46470 53c .cfa: sp 0 +
STACK CFI 46474 .cfa: sp 224 +
STACK CFI 46490 .cfa: x29 96 + x19: .cfa -8 + ^ x20: .cfa -16 + ^ x21: .cfa -24 + ^ x22: .cfa -32 + ^ x23: .cfa -40 + ^ x24: .cfa -48 + ^ x25: .cfa -56 + ^ x26: .cfa -64 + ^ x27: .cfa -72 + ^ x28: .cfa -80 + ^ .ra: .cfa -88 + ^ x29: .cfa -96 + ^
STACK CFI 46918 .cfa: sp 224 +
STACK CFI 46934 .cfa: sp 0 +
STACK CFI 46938 .cfa: x29 96 +
STACK CFI INIT 46ac8 80 .cfa: sp 0 +
STACK CFI 46acc .cfa: sp 32 +
STACK CFI 46ad4 .cfa: x29 32 + x19: .cfa -8 + ^ x20: .cfa -16 + ^ .ra: .cfa -24 + ^ x29: .cfa -32 + ^
STACK CFI 46b10 .cfa: sp 32 +
STACK CFI 46b18 .cfa: sp 0 +
STACK CFI 46b1c .cfa: x29 32 +
STACK CFI 46b28 .cfa: sp 32 +
STACK CFI 46b30 .cfa: sp 0 +
STACK CFI 46b34 .cfa: x29 32 +
STACK CFI INIT 46bcc e8 .cfa: sp 0 +
STACK CFI 46bd0 .cfa: sp 96 +
STACK CFI 46bdc .cfa: x29 32 + x19: .cfa -8 + ^ x20: .cfa -16 + ^ .ra: .cfa -24 + ^ x29: .cfa -32 + ^
STACK CFI 46c54 .cfa: sp 96 +
STACK CFI 46c60 .cfa: sp 0 +
STACK CFI 46c64 .cfa: x29 32 +
STACK CFI INIT 46d6c 224 .cfa: sp 0 +
STACK CFI 46d70 .cfa: sp 48 +
STACK CFI 46d7c .cfa: x29 48 + x19: .cfa -8 + ^ x20: .cfa -16 + ^ x21: .cfa -24 + ^ x28: .cfa -32 + ^ .ra: .cfa -40 + ^ x29: .cfa -48 + ^
STACK CFI 46ee8 .cfa: sp 48 +
STACK CFI 46ef4 .cfa: sp 0 +
STACK CFI 46ef8 .cfa: x29 48 +
STACK CFI INIT 47270 304 .cfa: sp 0 +
STACK CFI 47274 .cfa: sp 128 +
STACK CFI 47290 .cfa: x29 96 + x19: .cfa -8 + ^ x20: .cfa -16 + ^ x21: .cfa -24 + ^ x22: .cfa -32 + ^ x23: .cfa -40 + ^ x24: .cfa -48 + ^ x25: .cfa -56 + ^ x26: .cfa -64 + ^ x27: .cfa -72 + ^ x28: .cfa -80 + ^ .ra: .cfa -88 + ^ x29: .cfa -96 + ^
STACK CFI 474f4 .cfa: sp 128 +
STACK CFI 47510 .cfa: sp 0 +
STACK CFI 47514 .cfa: x29 96 +
STACK CFI INIT 47574 b8 .cfa: sp 0 +
STACK CFI 47578 .cfa: sp 48 +
STACK CFI 47584 .cfa: x29 48 + x19: .cfa -8 + ^ x20: .cfa -16 + ^ x21: .cfa -32 + ^ .ra: .cfa -40 + ^ x29: .cfa -48 + ^
STACK CFI 475f4 .cfa: sp 48 +
STACK CFI 47600 .cfa: sp 0 +
STACK CFI 47604 .cfa: x29 48 +
STACK CFI INIT 489ec 1bc .cfa: sp 0 +
STACK CFI 489f0 .cfa: sp 80 +
STACK CFI 48a04 .cfa: x29 80 + x19: .cfa -8 + ^ x20: .cfa -16 + ^ x21: .cfa -24 + ^ x22: .cfa -32 + ^ x23: .cfa -40 + ^ x24: .cfa -48 + ^ x25: .cfa -64 + ^ .ra: .cfa -72 + ^ x29: .cfa -80 + ^
STACK CFI 48a88 .cfa: sp 80 +
STACK CFI 48a9c .cfa: sp 0 +
STACK CFI 48aa0 .cfa: x29 80 +
STACK CFI 48aa8 .cfa: sp 80 +
STACK CFI 48abc .cfa: sp 0 +
STACK CFI 48ac0 .cfa: x29 80 +
STACK CFI INIT 48d10 18c .cfa: sp 0 +
STACK CFI 48d14 .cfa: sp 112 +
STACK CFI 48d24 .cfa: x29 48 + x19: .cfa -8 + ^ x20: .cfa -16 + ^ x21: .cfa -32 + ^ .ra: .cfa -40 + ^ x29: .cfa -48 + ^
STACK CFI 48df4 .cfa: sp 112 +
STACK CFI 48e04 .cfa: sp 0 +
STACK CFI 48e08 .cfa: x29 48 +
STACK CFI INIT 48ea0 364 .cfa: sp 0 +
STACK CFI 48ea4 .cfa: sp 208 +
STACK CFI 48eb8 .cfa: x29 64 + x19: .cfa -8 + ^ x20: .cfa -16 + ^ x21: .cfa -24 + ^ x22: .cfa -32 + ^ x23: .cfa -48 + ^ .ra: .cfa -56 + ^ x29: .cfa -64 + ^
STACK CFI 490e0 .cfa: sp 208 +
STACK CFI 490f4 .cfa: sp 0 +
STACK CFI 490f8 .cfa: x29 64 +
STACK CFI INIT 49208 1408 .cfa: sp 0 +
STACK CFI 4920c .cfa: sp 112 +
STACK CFI 49228 .cfa: x29 96 + x19: .cfa -8 + ^ x20: .cfa -16 + ^ x21: .cfa -24 + ^ x22: .cfa -32 + ^ x23: .cfa -40 + ^ x24: .cfa -48 + ^ x25: .cfa -56 + ^ x26: .cfa -64 + ^ x27: .cfa -72 + ^ x28: .cfa -80 + ^ .ra: .cfa -88 + ^ x29: .cfa -96 + ^ v8: .cfa -104 + ^ v9: .cfa -112 + ^
STACK CFI 4a04c .cfa: sp 112 +
STACK CFI 4a068 .cfa: sp 0 +
STACK CFI 4a06c .cfa: x29 96 +
STACK CFI INIT 4a7ac 158 .cfa: sp 0 +
STACK CFI 4a7b0 .cfa: sp 144 +
STACK CFI 4a7c4 .cfa: x29 64 + x19: .cfa -8 + ^ x20: .cfa -16 + ^ x21: .cfa -24 + ^ x22: .cfa -32 + ^ x23: .cfa -40 + ^ x24: .cfa -48 + ^ .ra: .cfa -56 + ^ x29: .cfa -64 + ^
STACK CFI 4a898 .cfa: sp 144 +
STACK CFI 4a8ac .cfa: sp 0 +
STACK CFI 4a8b0 .cfa: x29 64 +
STACK CFI INIT 4aca8 1a0 .cfa: sp 0 +
STACK CFI 4acac .cfa: sp 112 +
STACK CFI 4acbc .cfa: x29 48 + x19: .cfa -8 + ^ x20: .cfa -16 + ^ x21: .cfa -32 + ^ .ra: .cfa -40 + ^ x29: .cfa -48 + ^
STACK CFI 4ad9c .cfa: sp 112 +
STACK CFI 4adac .cfa: sp 0 +
STACK CFI 4adb0 .cfa: x29 48 +
STACK CFI INIT 4ae4c 314 .cfa: sp 0 +
STACK CFI 4ae50 .cfa: sp 192 +
STACK CFI 4ae64 .cfa: x29 64 + x19: .cfa -8 + ^ x20: .cfa -16 + ^ x21: .cfa -24 + ^ x22: .cfa -32 + ^ x23: .cfa -48 + ^ .ra: .cfa -56 + ^ x29: .cfa -64 + ^
STACK CFI 4b058 .cfa: sp 192 +
STACK CFI 4b06c .cfa: sp 0 +
STACK CFI 4b070 .cfa: x29 64 +
STACK CFI INIT 4b164 1150 .cfa: sp 0 +
STACK CFI 4b168 .cfa: sp 112 +
STACK CFI 4b184 .cfa: x29 96 + x19: .cfa -8 + ^ x20: .cfa -16 + ^ x21: .cfa -24 + ^ x22: .cfa -32 + ^ x23: .cfa -40 + ^ x24: .cfa -48 + ^ x25: .cfa -56 + ^ x26: .cfa -64 + ^ x27: .cfa -72 + ^ x28: .cfa -80 + ^ .ra: .cfa -88 + ^ x29: .cfa -96 + ^ v8: .cfa -104 + ^ v9: .cfa -112 + ^
STACK CFI 4c0c0 .cfa: sp 112 +
STACK CFI 4c0dc .cfa: sp 0 +
STACK CFI 4c0e0 .cfa: x29 96 +
STACK CFI INIT 4c2b4 a8 .cfa: sp 0 +
STACK CFI 4c2b8 .cfa: sp 32 +
STACK CFI 4c2c0 .cfa: x29 32 + x19: .cfa -16 + ^ .ra: .cfa -24 + ^ x29: .cfa -32 + ^
STACK CFI 4c2f4 .cfa: sp 32 +
STACK CFI 4c2fc .cfa: sp 0 +
STACK CFI 4c300 .cfa: x29 32 +
STACK CFI 4c304 .cfa: sp 32 +
STACK CFI 4c30c .cfa: sp 0 +
STACK CFI 4c310 .cfa: x29 32 +
STACK CFI INIT 4c3f4 384 .cfa: sp 0 +
STACK CFI 4c3f8 .cfa: sp 256 +
STACK CFI 4c40c .cfa: x29 64 + x19: .cfa -8 + ^ x20: .cfa -16 + ^ x21: .cfa -24 + ^ x22: .cfa -32 + ^ x23: .cfa -48 + ^ .ra: .cfa -56 + ^ x29: .cfa -64 + ^
STACK CFI 4c64c .cfa: sp 256 +
STACK CFI 4c660 .cfa: sp 0 +
STACK CFI 4c664 .cfa: x29 64 +
STACK CFI INIT 4ca70 f1c .cfa: sp 0 +
STACK CFI 4ca74 .cfa: sp 256 +
STACK CFI 4ca90 .cfa: x29 96 + x19: .cfa -8 + ^ x20: .cfa -16 + ^ x21: .cfa -24 + ^ x22: .cfa -32 + ^ x23: .cfa -40 + ^ x24: .cfa -48 + ^ x25: .cfa -56 + ^ x26: .cfa -64 + ^ x27: .cfa -80 + ^ .ra: .cfa -88 + ^ x29: .cfa -96 + ^
STACK CFI 4d678 .cfa: sp 256 +
STACK CFI 4d694 .cfa: sp 0 +
STACK CFI 4d698 .cfa: x29 96 +
STACK CFI INIT 4da58 1a4c .cfa: sp 0 +
STACK CFI 4da5c .cfa: sp 320 +
STACK CFI 4da80 .cfa: x29 96 + x19: .cfa -8 + ^ x20: .cfa -16 + ^ x21: .cfa -24 + ^ x22: .cfa -32 + ^ x23: .cfa -40 + ^ x24: .cfa -48 + ^ x25: .cfa -56 + ^ x26: .cfa -64 + ^ x27: .cfa -72 + ^ x28: .cfa -80 + ^ .ra: .cfa -88 + ^ x29: .cfa -96 + ^ v8: .cfa -104 + ^ v9: .cfa -112 + ^ v10: .cfa -128 + ^
STACK CFI 4ee30 .cfa: sp 320 +
STACK CFI 4ee54 .cfa: sp 0 +
STACK CFI 4ee58 .cfa: x29 96 +
STACK CFI INIT 4f4a4 a8 .cfa: sp 0 +
STACK CFI 4f4a8 .cfa: sp 32 +
STACK CFI 4f4b0 .cfa: x29 32 + x19: .cfa -16 + ^ .ra: .cfa -24 + ^ x29: .cfa -32 + ^
STACK CFI 4f4e4 .cfa: sp 32 +
STACK CFI 4f4ec .cfa: sp 0 +
STACK CFI 4f4f0 .cfa: x29 32 +
STACK CFI 4f4f4 .cfa: sp 32 +
STACK CFI 4f4fc .cfa: sp 0 +
STACK CFI 4f500 .cfa: x29 32 +
STACK CFI INIT 4f734 330 .cfa: sp 0 +
STACK CFI 4f738 .cfa: sp 224 +
STACK CFI 4f74c .cfa: x29 64 + x19: .cfa -8 + ^ x20: .cfa -16 + ^ x21: .cfa -24 + ^ x22: .cfa -32 + ^ x23: .cfa -48 + ^ .ra: .cfa -56 + ^ x29: .cfa -64 + ^
STACK CFI 4f954 .cfa: sp 224 +
STACK CFI 4f968 .cfa: sp 0 +
STACK CFI 4f96c .cfa: x29 64 +
STACK CFI INIT 4fa68 1620 .cfa: sp 0 +
STACK CFI 4fa6c .cfa: sp 112 +
STACK CFI 4fa88 .cfa: x29 96 + x19: .cfa -8 + ^ x20: .cfa -16 + ^ x21: .cfa -24 + ^ x22: .cfa -32 + ^ x23: .cfa -40 + ^ x24: .cfa -48 + ^ x25: .cfa -56 + ^ x26: .cfa -64 + ^ x27: .cfa -72 + ^ x28: .cfa -80 + ^ .ra: .cfa -88 + ^ x29: .cfa -96 + ^ v8: .cfa -112 + ^
STACK CFI 50efc .cfa: sp 112 +
STACK CFI 50f18 .cfa: sp 0 +
STACK CFI 50f1c .cfa: x29 96 +
STACK CFI INIT 51088 a8 .cfa: sp 0 +
STACK CFI 5108c .cfa: sp 32 +
STACK CFI 51094 .cfa: x29 32 + x19: .cfa -16 + ^ .ra: .cfa -24 + ^ x29: .cfa -32 + ^
STACK CFI 510c8 .cfa: sp 32 +
STACK CFI 510d0 .cfa: sp 0 +
STACK CFI 510d4 .cfa: x29 32 +
STACK CFI 510d8 .cfa: sp 32 +
STACK CFI 510e0 .cfa: sp 0 +
STACK CFI 510e4 .cfa: x29 32 +
STACK CFI INIT 51224 3ac .cfa: sp 0 +
STACK CFI 51228 .cfa: sp 224 +
STACK CFI 51240 .cfa: x29 80 + x19: .cfa -8 + ^ x20: .cfa -16 + ^ x21: .cfa -24 + ^ x22: .cfa -32 + ^ x23: .cfa -40 + ^ x24: .cfa -48 + ^ x25: .cfa -56 + ^ x26: .cfa -64 + ^ .ra: .cfa -72 + ^ x29: .cfa -80 + ^
STACK CFI 5149c .cfa: sp 224 +
STACK CFI 514b4 .cfa: sp 0 +
STACK CFI 514b8 .cfa: x29 80 +
STACK CFI INIT 515d4 778 .cfa: sp 0 +
STACK CFI 515d8 .cfa: sp 144 +
STACK CFI 515f4 .cfa: x29 96 + x19: .cfa -8 + ^ x20: .cfa -16 + ^ x21: .cfa -24 + ^ x22: .cfa -32 + ^ x23: .cfa -40 + ^ x24: .cfa -48 + ^ x25: .cfa -56 + ^ x26: .cfa -64 + ^ x27: .cfa -80 + ^ .ra: .cfa -88 + ^ x29: .cfa -96 + ^
STACK CFI 51c5c .cfa: sp 144 +
STACK CFI 51c78 .cfa: sp 0 +
STACK CFI 51c7c .cfa: x29 96 +
STACK CFI INIT 51d4c 2dd0 .cfa: sp 0 +
STACK CFI 51d50 .cfa: sp 112 +
STACK CFI 51d6c .cfa: x29 96 + x19: .cfa -8 + ^ x20: .cfa -16 + ^ x21: .cfa -24 + ^ x22: .cfa -32 + ^ x23: .cfa -40 + ^ x24: .cfa -48 + ^ x25: .cfa -56 + ^ x26: .cfa -64 + ^ x27: .cfa -72 + ^ x28: .cfa -80 + ^ .ra: .cfa -88 + ^ x29: .cfa -96 + ^ v8: .cfa -112 + ^
STACK CFI 54314 .cfa: sp 112 +
STACK CFI 54330 .cfa: sp 0 +
STACK CFI 54334 .cfa: x29 96 +
STACK CFI INIT 54b5c 1a4 .cfa: sp 0 +
STACK CFI 54b60 .cfa: sp 112 +
STACK CFI 54b70 .cfa: x29 48 + x19: .cfa -8 + ^ x20: .cfa -16 + ^ x21: .cfa -32 + ^ .ra: .cfa -40 + ^ x29: .cfa -48 + ^
STACK CFI 54c54 .cfa: sp 112 +
STACK CFI 54c64 .cfa: sp 0 +
STACK CFI 54c68 .cfa: x29 48 +
STACK CFI INIT 54d94 3f0 .cfa: sp 0 +
STACK CFI 54d98 .cfa: sp 176 +
STACK CFI 54db4 .cfa: x29 96 + x19: .cfa -8 + ^ x20: .cfa -16 + ^ x21: .cfa -24 + ^ x22: .cfa -32 + ^ x23: .cfa -40 + ^ x24: .cfa -48 + ^ x25: .cfa -56 + ^ x26: .cfa -64 + ^ x27: .cfa -72 + ^ x28: .cfa -80 + ^ .ra: .cfa -88 + ^ x29: .cfa -96 + ^
STACK CFI 550a4 .cfa: sp 176 +
STACK CFI 550c0 .cfa: sp 0 +
STACK CFI 550c4 .cfa: x29 96 +
STACK CFI 550dc .cfa: sp 176 +
STACK CFI 550f8 .cfa: sp 0 +
STACK CFI 550fc .cfa: x29 96 +
STACK CFI INIT 55184 408 .cfa: sp 0 +
STACK CFI 55188 .cfa: sp 160 +
STACK CFI 551a0 .cfa: x29 56 + x19: .cfa -8 + ^ x20: .cfa -16 + ^ x21: .cfa -24 + ^ x22: .cfa -32 + ^ x23: .cfa -40 + ^ .ra: .cfa -48 + ^ x29: .cfa -56 + ^ v8: .cfa -64 + ^
STACK CFI 55508 .cfa: sp 160 +
STACK CFI 55520 .cfa: sp 0 +
STACK CFI 55524 .cfa: x29 56 +
STACK CFI INIT 5558c 200 .cfa: sp 0 +
STACK CFI 55590 .cfa: sp 128 +
STACK CFI 555a0 .cfa: x29 48 + x19: .cfa -8 + ^ x20: .cfa -16 + ^ x21: .cfa -32 + ^ .ra: .cfa -40 + ^ x29: .cfa -48 + ^
STACK CFI 556ec .cfa: sp 128 +
STACK CFI 556fc .cfa: sp 0 +
STACK CFI 55700 .cfa: x29 48 +
STACK CFI INIT 55908 16c .cfa: sp 0 +
STACK CFI 5590c .cfa: sp 144 +
STACK CFI 55920 .cfa: x29 64 + x19: .cfa -8 + ^ x20: .cfa -16 + ^ x21: .cfa -24 + ^ x22: .cfa -32 + ^ x23: .cfa -40 + ^ x24: .cfa -48 + ^ .ra: .cfa -56 + ^ x29: .cfa -64 + ^
STACK CFI 55a08 .cfa: sp 144 +
STACK CFI 55a1c .cfa: sp 0 +
STACK CFI 55a20 .cfa: x29 64 +
STACK CFI INIT 55a74 3ec .cfa: sp 0 +
STACK CFI 55a78 .cfa: sp 288 +
STACK CFI 55a90 .cfa: x29 80 + x19: .cfa -8 + ^ x20: .cfa -16 + ^ x21: .cfa -24 + ^ x22: .cfa -32 + ^ x23: .cfa -40 + ^ x24: .cfa -48 + ^ x28: .cfa -64 + ^ .ra: .cfa -72 + ^ x29: .cfa -80 + ^
STACK CFI 55d24 .cfa: sp 288 +
STACK CFI 55d3c .cfa: sp 0 +
STACK CFI 55d40 .cfa: x29 80 +
STACK CFI INIT 55e64 184 .cfa: sp 0 +
STACK CFI 55e68 .cfa: sp 128 +
STACK CFI 55e84 .cfa: x29 96 + x19: .cfa -8 + ^ x20: .cfa -16 + ^ x21: .cfa -24 + ^ x22: .cfa -32 + ^ x23: .cfa -40 + ^ x24: .cfa -48 + ^ x25: .cfa -56 + ^ x26: .cfa -64 + ^ x27: .cfa -80 + ^ .ra: .cfa -88 + ^ x29: .cfa -96 + ^
STACK CFI 55f98 .cfa: sp 128 +
STACK CFI 55fb4 .cfa: sp 0 +
STACK CFI 55fb8 .cfa: x29 96 +
STACK CFI INIT 55fe8 380 .cfa: sp 0 +
STACK CFI 55fec .cfa: sp 256 +
STACK CFI 56000 .cfa: x29 64 + x19: .cfa -8 + ^ x20: .cfa -16 + ^ x21: .cfa -24 + ^ x22: .cfa -32 + ^ x23: .cfa -48 + ^ .ra: .cfa -56 + ^ x29: .cfa -64 + ^
STACK CFI 56244 .cfa: sp 256 +
STACK CFI 56258 .cfa: sp 0 +
STACK CFI 5625c .cfa: x29 64 +
STACK CFI INIT 5643c a8 .cfa: sp 0 +
STACK CFI 56440 .cfa: sp 32 +
STACK CFI 56448 .cfa: x29 32 + x19: .cfa -16 + ^ .ra: .cfa -24 + ^ x29: .cfa -32 + ^
STACK CFI 5647c .cfa: sp 32 +
STACK CFI 56484 .cfa: sp 0 +
STACK CFI 56488 .cfa: x29 32 +
STACK CFI 5648c .cfa: sp 32 +
STACK CFI 56494 .cfa: sp 0 +
STACK CFI 56498 .cfa: x29 32 +
STACK CFI INIT 56604 ec8 .cfa: sp 0 +
STACK CFI 56608 .cfa: sp 384 +
STACK CFI 56628 .cfa: x29 88 + x19: .cfa -8 + ^ x20: .cfa -16 + ^ x21: .cfa -24 + ^ x22: .cfa -32 + ^ x23: .cfa -40 + ^ x24: .cfa -48 + ^ x25: .cfa -56 + ^ x26: .cfa -64 + ^ x28: .cfa -72 + ^ .ra: .cfa -80 + ^ x29: .cfa -88 + ^ v8: .cfa -96 + ^
STACK CFI 57420 .cfa: sp 384 +
STACK CFI 57440 .cfa: sp 0 +
STACK CFI 57444 .cfa: x29 88 +
STACK CFI INIT 574cc 160 .cfa: sp 0 +
STACK CFI 574d0 .cfa: sp 128 +
STACK CFI 574dc .cfa: x29 32 + x19: .cfa -8 + ^ x20: .cfa -16 + ^ .ra: .cfa -24 + ^ x29: .cfa -32 + ^
STACK CFI 575a4 .cfa: sp 128 +
STACK CFI 575b0 .cfa: sp 0 +
STACK CFI 575b4 .cfa: x29 32 +
STACK CFI INIT 57660 d0 .cfa: sp 0 +
STACK CFI 57664 .cfa: sp 32 +
STACK CFI 5766c .cfa: x29 32 + x19: .cfa -8 + ^ x20: .cfa -16 + ^ .ra: .cfa -24 + ^ x29: .cfa -32 + ^
STACK CFI 57710 .cfa: sp 32 +
STACK CFI 57718 .cfa: sp 0 +
STACK CFI 5771c .cfa: x29 32 +
STACK CFI INIT 5794c c0 .cfa: sp 0 +
STACK CFI 57950 .cfa: sp 64 +
STACK CFI 5795c .cfa: x29 32 + x19: .cfa -8 + ^ x20: .cfa -16 + ^ .ra: .cfa -24 + ^ x29: .cfa -32 + ^
STACK CFI 579cc .cfa: sp 64 +
STACK CFI 579d8 .cfa: sp 0 +
STACK CFI 579dc .cfa: x29 32 +
STACK CFI INIT 57a4c 1a0 .cfa: sp 0 +
STACK CFI 57a50 .cfa: sp 96 +
STACK CFI 57a64 .cfa: x29 48 + x19: .cfa -8 + ^ x20: .cfa -16 + ^ x21: .cfa -32 + ^ .ra: .cfa -40 + ^ x29: .cfa -48 + ^ v8: .cfa -56 + ^ v9: .cfa -64 + ^
STACK CFI 57b98 .cfa: sp 96 +
STACK CFI 57bac .cfa: sp 0 +
STACK CFI 57bb0 .cfa: x29 48 +
STACK CFI INIT 57bec 5e4 .cfa: sp 0 +
STACK CFI 57bf0 .cfa: sp 224 +
STACK CFI 57c08 .cfa: x29 64 + x19: .cfa -8 + ^ x20: .cfa -16 + ^ x21: .cfa -24 + ^ x22: .cfa -32 + ^ x23: .cfa -48 + ^ .ra: .cfa -56 + ^ x29: .cfa -64 + ^ v8: .cfa -72 + ^ v9: .cfa -80 + ^
STACK CFI 58148 .cfa: sp 224 +
STACK CFI 58160 .cfa: sp 0 +
STACK CFI 58164 .cfa: x29 64 +
STACK CFI INIT 581d0 3c0 .cfa: sp 0 +
STACK CFI 581d4 .cfa: sp 160 +
STACK CFI 581f4 .cfa: x29 80 + x19: .cfa -8 + ^ x20: .cfa -16 + ^ x21: .cfa -24 + ^ x22: .cfa -32 + ^ x23: .cfa -40 + ^ x24: .cfa -48 + ^ x25: .cfa -56 + ^ x26: .cfa -64 + ^ .ra: .cfa -72 + ^ x29: .cfa -80 + ^ v8: .cfa -88 + ^ v9: .cfa -96 + ^ v10: .cfa -112 + ^
STACK CFI 5850c .cfa: sp 160 +
STACK CFI 5852c .cfa: sp 0 +
STACK CFI 58530 .cfa: x29 80 +
STACK CFI INIT 58590 1c .cfa: sp 0 +
STACK CFI 58594 .cfa: sp 16 +
STACK CFI 58598 .cfa: x29 16 + .ra: .cfa -8 + ^ x29: .cfa -16 + ^
STACK CFI 585a0 .cfa: sp 16 +
STACK CFI 585a4 .cfa: sp 0 +
STACK CFI 585a8 .cfa: x29 16 +
STACK CFI INIT 58758 234 .cfa: sp 0 +
STACK CFI 5875c .cfa: sp 128 +
STACK CFI 58774 .cfa: x29 64 + x19: .cfa -8 + ^ x20: .cfa -16 + ^ x21: .cfa -24 + ^ x22: .cfa -32 + ^ x23: .cfa -40 + ^ x24: .cfa -48 + ^ .ra: .cfa -56 + ^ x29: .cfa -64 + ^ v8: .cfa -80 + ^
STACK CFI 58928 .cfa: sp 128 +
STACK CFI 58940 .cfa: sp 0 +
STACK CFI 58944 .cfa: x29 64 +
STACK CFI INIT 58a08 38c .cfa: sp 0 +
STACK CFI 58a0c .cfa: sp 192 +
STACK CFI 58a28 .cfa: x29 64 + x19: .cfa -8 + ^ x20: .cfa -16 + ^ x21: .cfa -24 + ^ x22: .cfa -32 + ^ x23: .cfa -40 + ^ x24: .cfa -48 + ^ .ra: .cfa -56 + ^ x29: .cfa -64 + ^ v8: .cfa -72 + ^ v9: .cfa -80 + ^ v10: .cfa -96 + ^
STACK CFI 58d30 .cfa: sp 192 +
STACK CFI 58d4c .cfa: sp 0 +
STACK CFI 58d50 .cfa: x29 64 +
STACK CFI INIT 58d94 358 .cfa: sp 0 +
STACK CFI 58d98 .cfa: sp 208 +
STACK CFI 58db4 .cfa: x29 72 + x19: .cfa -8 + ^ x20: .cfa -16 + ^ x21: .cfa -24 + ^ x22: .cfa -32 + ^ x23: .cfa -40 + ^ x24: .cfa -48 + ^ x25: .cfa -56 + ^ .ra: .cfa -64 + ^ x29: .cfa -72 + ^ v8: .cfa -80 + ^
STACK CFI 59064 .cfa: sp 208 +
STACK CFI 59080 .cfa: sp 0 +
STACK CFI 59084 .cfa: x29 72 +
STACK CFI INIT 5927c ec .cfa: sp 0 +
STACK CFI 59280 .cfa: sp 80 +
STACK CFI 59290 .cfa: x29 48 + x19: .cfa -8 + ^ x20: .cfa -16 + ^ x21: .cfa -32 + ^ .ra: .cfa -40 + ^ x29: .cfa -48 + ^
STACK CFI 59324 .cfa: sp 80 +
STACK CFI 59334 .cfa: sp 0 +
STACK CFI 59338 .cfa: x29 48 +
STACK CFI INIT 59368 ec .cfa: sp 0 +
STACK CFI 5936c .cfa: sp 80 +
STACK CFI 5937c .cfa: x29 48 + x19: .cfa -8 + ^ x20: .cfa -16 + ^ x21: .cfa -32 + ^ .ra: .cfa -40 + ^ x29: .cfa -48 + ^
STACK CFI 59410 .cfa: sp 80 +
STACK CFI 59420 .cfa: sp 0 +
STACK CFI 59424 .cfa: x29 48 +
STACK CFI INIT 5945c dc .cfa: sp 0 +
STACK CFI 59460 .cfa: sp 96 +
STACK CFI 5946c .cfa: x29 32 + x19: .cfa -8 + ^ x20: .cfa -16 + ^ .ra: .cfa -24 + ^ x29: .cfa -32 + ^
STACK CFI 594d8 .cfa: sp 96 +
STACK CFI 594e4 .cfa: sp 0 +
STACK CFI 594e8 .cfa: x29 32 +
STACK CFI INIT 59778 2f4 .cfa: sp 0 +
STACK CFI 5977c .cfa: sp 160 +
STACK CFI 59790 .cfa: x29 64 + x19: .cfa -8 + ^ x20: .cfa -16 + ^ x21: .cfa -24 + ^ x22: .cfa -32 + ^ x23: .cfa -48 + ^ .ra: .cfa -56 + ^ x29: .cfa -64 + ^
STACK CFI 59920 .cfa: sp 160 +
STACK CFI 59934 .cfa: sp 0 +
STACK CFI 59938 .cfa: x29 64 +
STACK CFI INIT 59a6c 1f0 .cfa: sp 0 +
STACK CFI 59a70 .cfa: sp 112 +
STACK CFI 59a80 .cfa: x29 48 + x19: .cfa -8 + ^ x20: .cfa -16 + ^ x21: .cfa -24 + ^ x22: .cfa -32 + ^ .ra: .cfa -40 + ^ x29: .cfa -48 + ^
STACK CFI 59bb8 .cfa: sp 112 +
STACK CFI 59bc8 .cfa: sp 0 +
STACK CFI 59bcc .cfa: x29 48 +
STACK CFI INIT 59c5c 7d8 .cfa: sp 0 +
STACK CFI 59c60 .cfa: sp 240 +
STACK CFI 59c7c .cfa: x29 96 + x19: .cfa -8 + ^ x20: .cfa -16 + ^ x21: .cfa -24 + ^ x22: .cfa -32 + ^ x23: .cfa -40 + ^ x24: .cfa -48 + ^ x25: .cfa -56 + ^ x26: .cfa -64 + ^ x27: .cfa -72 + ^ x28: .cfa -80 + ^ .ra: .cfa -88 + ^ x29: .cfa -96 + ^
STACK CFI 5a2ac .cfa: sp 240 +
STACK CFI 5a2c8 .cfa: sp 0 +
STACK CFI 5a2cc .cfa: x29 96 +
STACK CFI INIT 5ac78 18d4 .cfa: sp 0 +
STACK CFI 5ac7c .cfa: sp 112 +
STACK CFI 5ac98 .cfa: x29 96 + x19: .cfa -8 + ^ x20: .cfa -16 + ^ x21: .cfa -24 + ^ x22: .cfa -32 + ^ x23: .cfa -40 + ^ x24: .cfa -48 + ^ x25: .cfa -56 + ^ x26: .cfa -64 + ^ x27: .cfa -72 + ^ x28: .cfa -80 + ^ .ra: .cfa -88 + ^ x29: .cfa -96 + ^ v8: .cfa -104 + ^ v9: .cfa -112 + ^
STACK CFI 5bd38 .cfa: sp 112 +
STACK CFI 5bd54 .cfa: sp 0 +
STACK CFI 5bd58 .cfa: x29 96 +
STACK CFI INIT 5c54c 2a8 .cfa: sp 0 +
STACK CFI 5c550 .cfa: sp 208 +
STACK CFI 5c564 .cfa: x29 64 + x19: .cfa -8 + ^ x20: .cfa -16 + ^ x21: .cfa -24 + ^ x22: .cfa -32 + ^ x23: .cfa -40 + ^ x24: .cfa -48 + ^ .ra: .cfa -56 + ^ x29: .cfa -64 + ^
STACK CFI 5c758 .cfa: sp 208 +
STACK CFI 5c76c .cfa: sp 0 +
STACK CFI 5c770 .cfa: x29 64 +
STACK CFI INIT 5ca44 350 .cfa: sp 0 +
STACK CFI 5ca48 .cfa: sp 176 +
STACK CFI 5ca5c .cfa: x29 64 + x19: .cfa -8 + ^ x20: .cfa -16 + ^ x21: .cfa -24 + ^ x22: .cfa -32 + ^ x23: .cfa -48 + ^ .ra: .cfa -56 + ^ x29: .cfa -64 + ^
STACK CFI 5ccc0 .cfa: sp 176 +
STACK CFI 5ccd4 .cfa: sp 0 +
STACK CFI 5ccd8 .cfa: x29 64 +
STACK CFI INIT 5cf34 134 .cfa: sp 0 +
STACK CFI 5cf38 .cfa: sp 80 +
STACK CFI 5cf44 .cfa: x29 32 + x19: .cfa -8 + ^ x20: .cfa -16 + ^ .ra: .cfa -24 + ^ x29: .cfa -32 + ^
STACK CFI 5cf74 .cfa: sp 80 +
STACK CFI 5cf80 .cfa: sp 0 +
STACK CFI 5cf84 .cfa: x29 32 +
STACK CFI INIT 5d068 78 .cfa: sp 0 +
STACK CFI 5d06c .cfa: sp 32 +
STACK CFI 5d074 .cfa: x29 32 + x19: .cfa -8 + ^ x20: .cfa -16 + ^ .ra: .cfa -24 + ^ x29: .cfa -32 + ^
STACK CFI 5d080 .cfa: sp 32 +
STACK CFI 5d088 .cfa: sp 0 +
STACK CFI 5d08c .cfa: x29 32 +
STACK CFI INIT 5d0e0 74 .cfa: sp 0 +
STACK CFI 5d0e4 .cfa: sp 48 +
STACK CFI 5d0f0 .cfa: x29 32 + x19: .cfa -8 + ^ x20: .cfa -16 + ^ .ra: .cfa -24 + ^ x29: .cfa -32 + ^
STACK CFI 5d13c .cfa: sp 48 +
STACK CFI 5d148 .cfa: sp 0 +
STACK CFI 5d14c .cfa: x29 32 +
STACK CFI INIT 5d1b8 224 .cfa: sp 0 +
STACK CFI 5d1bc .cfa: sp 128 +
STACK CFI 5d1cc .cfa: x29 48 + x19: .cfa -8 + ^ x20: .cfa -16 + ^ x21: .cfa -32 + ^ .ra: .cfa -40 + ^ x29: .cfa -48 + ^
STACK CFI 5d27c .cfa: sp 128 +
STACK CFI 5d28c .cfa: sp 0 +
STACK CFI 5d290 .cfa: x29 48 +
STACK CFI INIT 5d400 25c .cfa: sp 0 +
STACK CFI 5d404 .cfa: sp 128 +
STACK CFI 5d414 .cfa: x29 48 + x19: .cfa -8 + ^ x20: .cfa -16 + ^ x21: .cfa -32 + ^ .ra: .cfa -40 + ^ x29: .cfa -48 + ^
STACK CFI 5d4fc .cfa: sp 128 +
STACK CFI 5d50c .cfa: sp 0 +
STACK CFI 5d510 .cfa: x29 48 +
STACK CFI INIT 5d680 26c .cfa: sp 0 +
STACK CFI 5d684 .cfa: sp 128 +
STACK CFI 5d694 .cfa: x29 48 + x19: .cfa -8 + ^ x20: .cfa -16 + ^ x21: .cfa -32 + ^ .ra: .cfa -40 + ^ x29: .cfa -48 + ^
STACK CFI 5d78c .cfa: sp 128 +
STACK CFI 5d79c .cfa: sp 0 +
STACK CFI 5d7a0 .cfa: x29 48 +
STACK CFI INIT 5d910 284 .cfa: sp 0 +
STACK CFI 5d914 .cfa: sp 128 +
STACK CFI 5d924 .cfa: x29 48 + x19: .cfa -8 + ^ x20: .cfa -16 + ^ x21: .cfa -32 + ^ .ra: .cfa -40 + ^ x29: .cfa -48 + ^
STACK CFI 5da3c .cfa: sp 128 +
STACK CFI 5da4c .cfa: sp 0 +
STACK CFI 5da50 .cfa: x29 48 +
STACK CFI INIT 5dbe8 28c .cfa: sp 0 +
STACK CFI 5dbec .cfa: sp 128 +
STACK CFI 5dbfc .cfa: x29 48 + x19: .cfa -8 + ^ x20: .cfa -16 + ^ x21: .cfa -32 + ^ .ra: .cfa -40 + ^ x29: .cfa -48 + ^
STACK CFI 5dd1c .cfa: sp 128 +
STACK CFI 5dd2c .cfa: sp 0 +
STACK CFI 5dd30 .cfa: x29 48 +
STACK CFI INIT 5de74 300 .cfa: sp 0 +
STACK CFI 5de78 .cfa: sp 144 +
STACK CFI 5de8c .cfa: x29 64 + x19: .cfa -8 + ^ x20: .cfa -16 + ^ x21: .cfa -24 + ^ x22: .cfa -32 + ^ x23: .cfa -48 + ^ .ra: .cfa -56 + ^ x29: .cfa -64 + ^
STACK CFI 5e020 .cfa: sp 144 +
STACK CFI 5e034 .cfa: sp 0 +
STACK CFI 5e038 .cfa: x29 64 +
STACK CFI INIT 5e1c8 264 .cfa: sp 0 +
STACK CFI 5e1cc .cfa: sp 128 +
STACK CFI 5e1dc .cfa: x29 48 + x19: .cfa -8 + ^ x20: .cfa -16 + ^ x21: .cfa -32 + ^ .ra: .cfa -40 + ^ x29: .cfa -48 + ^
STACK CFI 5e2d4 .cfa: sp 128 +
STACK CFI 5e2e4 .cfa: sp 0 +
STACK CFI 5e2e8 .cfa: x29 48 +
STACK CFI INIT 5e480 270 .cfa: sp 0 +
STACK CFI 5e484 .cfa: sp 144 +
STACK CFI 5e498 .cfa: x29 64 + x19: .cfa -8 + ^ x20: .cfa -16 + ^ x21: .cfa -24 + ^ x22: .cfa -32 + ^ x23: .cfa -48 + ^ .ra: .cfa -56 + ^ x29: .cfa -64 + ^
STACK CFI 5e59c .cfa: sp 144 +
STACK CFI 5e5b0 .cfa: sp 0 +
STACK CFI 5e5b4 .cfa: x29 64 +
STACK CFI INIT 5e714 22c .cfa: sp 0 +
STACK CFI 5e718 .cfa: sp 128 +
STACK CFI 5e728 .cfa: x29 48 + x19: .cfa -8 + ^ x20: .cfa -16 + ^ x21: .cfa -32 + ^ .ra: .cfa -40 + ^ x29: .cfa -48 + ^
STACK CFI 5e7e0 .cfa: sp 128 +
STACK CFI 5e7f0 .cfa: sp 0 +
STACK CFI 5e7f4 .cfa: x29 48 +
STACK CFI INIT 5e940 224 .cfa: sp 0 +
STACK CFI 5e944 .cfa: sp 128 +
STACK CFI 5e954 .cfa: x29 48 + x19: .cfa -8 + ^ x20: .cfa -16 + ^ x21: .cfa -32 + ^ .ra: .cfa -40 + ^ x29: .cfa -48 + ^
STACK CFI 5ea04 .cfa: sp 128 +
STACK CFI 5ea14 .cfa: sp 0 +
STACK CFI 5ea18 .cfa: x29 48 +
STACK CFI INIT 5eb64 268 .cfa: sp 0 +
STACK CFI 5eb68 .cfa: sp 144 +
STACK CFI 5eb7c .cfa: x29 64 + x19: .cfa -8 + ^ x20: .cfa -16 + ^ x21: .cfa -24 + ^ x22: .cfa -32 + ^ x23: .cfa -48 + ^ .ra: .cfa -56 + ^ x29: .cfa -64 + ^
STACK CFI 5ec78 .cfa: sp 144 +
STACK CFI 5ec8c .cfa: sp 0 +
STACK CFI 5ec90 .cfa: x29 64 +
STACK CFI INIT 5edf0 2b8 .cfa: sp 0 +
STACK CFI 5edf4 .cfa: sp 144 +
STACK CFI 5ee08 .cfa: x29 64 + x19: .cfa -8 + ^ x20: .cfa -16 + ^ x21: .cfa -24 + ^ x22: .cfa -32 + ^ x23: .cfa -48 + ^ .ra: .cfa -56 + ^ x29: .cfa -64 + ^
STACK CFI 5ef54 .cfa: sp 144 +
STACK CFI 5ef68 .cfa: sp 0 +
STACK CFI 5ef6c .cfa: x29 64 +
STACK CFI INIT 5f0cc 2b8 .cfa: sp 0 +
STACK CFI 5f0d0 .cfa: sp 128 +
STACK CFI 5f0e0 .cfa: x29 48 + x19: .cfa -8 + ^ x20: .cfa -16 + ^ x21: .cfa -32 + ^ .ra: .cfa -40 + ^ x29: .cfa -48 + ^
STACK CFI 5f20c .cfa: sp 128 +
STACK CFI 5f21c .cfa: sp 0 +
STACK CFI 5f220 .cfa: x29 48 +
STACK CFI INIT 5f384 338 .cfa: sp 0 +
STACK CFI 5f388 .cfa: sp 144 +
STACK CFI 5f39c .cfa: x29 64 + x19: .cfa -8 + ^ x20: .cfa -16 + ^ x21: .cfa -24 + ^ x22: .cfa -32 + ^ x23: .cfa -48 + ^ .ra: .cfa -56 + ^ x29: .cfa -64 + ^
STACK CFI 5f538 .cfa: sp 144 +
STACK CFI 5f54c .cfa: sp 0 +
STACK CFI 5f550 .cfa: x29 64 +
STACK CFI INIT 5f6e0 150 .cfa: sp 0 +
STACK CFI 5f6e4 .cfa: sp 128 +
STACK CFI 5f6f4 .cfa: x29 48 + x19: .cfa -8 + ^ x20: .cfa -16 + ^ x21: .cfa -24 + ^ x22: .cfa -32 + ^ .ra: .cfa -40 + ^ x29: .cfa -48 + ^
STACK CFI 5f73c .cfa: sp 128 +
STACK CFI 5f74c .cfa: sp 0 +
STACK CFI 5f750 .cfa: x29 48 +
STACK CFI INIT 5f830 a8 .cfa: sp 0 +
STACK CFI 5f834 .cfa: sp 64 +
STACK CFI 5f844 .cfa: x29 48 + x19: .cfa -8 + ^ x20: .cfa -16 + ^ x21: .cfa -32 + ^ .ra: .cfa -40 + ^ x29: .cfa -48 + ^
STACK CFI 5f8ac .cfa: sp 64 +
STACK CFI 5f8bc .cfa: sp 0 +
STACK CFI 5f8c0 .cfa: x29 48 +
STACK CFI INIT 5f950 1e8 .cfa: sp 0 +
STACK CFI 5f954 .cfa: sp 192 +
STACK CFI 5f978 .cfa: x29 88 + x19: .cfa -8 + ^ x20: .cfa -16 + ^ x21: .cfa -24 + ^ x22: .cfa -32 + ^ x23: .cfa -40 + ^ x24: .cfa -48 + ^ x25: .cfa -56 + ^ x26: .cfa -64 + ^ x27: .cfa -72 + ^ .ra: .cfa -80 + ^ x29: .cfa -88 + ^ v8: .cfa -96 + ^ v9: .cfa -104 + ^ v10: .cfa -112 + ^
STACK CFI 5fa1c .cfa: sp 192 +
STACK CFI 5fa40 .cfa: sp 0 +
STACK CFI 5fa44 .cfa: x29 88 +
STACK CFI INIT 5fb38 8f8 .cfa: sp 0 +
STACK CFI 5fb3c .cfa: sp 112 +
STACK CFI 5fb54 .cfa: x29 80 + x19: .cfa -8 + ^ x20: .cfa -16 + ^ x21: .cfa -24 + ^ x22: .cfa -32 + ^ x23: .cfa -40 + ^ x24: .cfa -48 + ^ x25: .cfa -64 + ^ .ra: .cfa -72 + ^ x29: .cfa -80 + ^
STACK CFI 6036c .cfa: sp 112 +
STACK CFI 60384 .cfa: sp 0 +
STACK CFI 60388 .cfa: x29 80 +
STACK CFI INIT 60430 2b8 .cfa: sp 0 +
STACK CFI 60434 .cfa: sp 144 +
STACK CFI 60448 .cfa: x29 64 + x19: .cfa -8 + ^ x20: .cfa -16 + ^ x21: .cfa -24 + ^ x22: .cfa -32 + ^ x23: .cfa -48 + ^ .ra: .cfa -56 + ^ x29: .cfa -64 + ^
STACK CFI 60594 .cfa: sp 144 +
STACK CFI 605a8 .cfa: sp 0 +
STACK CFI 605ac .cfa: x29 64 +
STACK CFI INIT 606e8 2c0 .cfa: sp 0 +
STACK CFI 606ec .cfa: sp 144 +
STACK CFI 60700 .cfa: x29 64 + x19: .cfa -8 + ^ x20: .cfa -16 + ^ x21: .cfa -24 + ^ x22: .cfa -32 + ^ x23: .cfa -48 + ^ .ra: .cfa -56 + ^ x29: .cfa -64 + ^
STACK CFI 60854 .cfa: sp 144 +
STACK CFI 60868 .cfa: sp 0 +
STACK CFI 6086c .cfa: x29 64 +
STACK CFI INIT 60a38 2e4 .cfa: sp 0 +
STACK CFI 60a3c .cfa: sp 144 +
STACK CFI 60a50 .cfa: x29 64 + x19: .cfa -8 + ^ x20: .cfa -16 + ^ x21: .cfa -24 + ^ x22: .cfa -32 + ^ x23: .cfa -48 + ^ .ra: .cfa -56 + ^ x29: .cfa -64 + ^
STACK CFI 60bc8 .cfa: sp 144 +
STACK CFI 60bdc .cfa: sp 0 +
STACK CFI 60be0 .cfa: x29 64 +
STACK CFI INIT 60d1c 2e4 .cfa: sp 0 +
STACK CFI 60d20 .cfa: sp 144 +
STACK CFI 60d34 .cfa: x29 64 + x19: .cfa -8 + ^ x20: .cfa -16 + ^ x21: .cfa -24 + ^ x22: .cfa -32 + ^ x23: .cfa -48 + ^ .ra: .cfa -56 + ^ x29: .cfa -64 + ^
STACK CFI 60eac .cfa: sp 144 +
STACK CFI 60ec0 .cfa: sp 0 +
STACK CFI 60ec4 .cfa: x29 64 +
STACK CFI INIT 61000 2a0 .cfa: sp 0 +
STACK CFI 61004 .cfa: sp 144 +
STACK CFI 61018 .cfa: x29 64 + x19: .cfa -8 + ^ x20: .cfa -16 + ^ x21: .cfa -24 + ^ x22: .cfa -32 + ^ x23: .cfa -48 + ^ .ra: .cfa -56 + ^ x29: .cfa -64 + ^
STACK CFI 6114c .cfa: sp 144 +
STACK CFI 61160 .cfa: sp 0 +
STACK CFI 61164 .cfa: x29 64 +
STACK CFI INIT 612a0 2f0 .cfa: sp 0 +
STACK CFI 612a4 .cfa: sp 144 +
STACK CFI 612b8 .cfa: x29 64 + x19: .cfa -8 + ^ x20: .cfa -16 + ^ x21: .cfa -24 + ^ x22: .cfa -32 + ^ x23: .cfa -48 + ^ .ra: .cfa -56 + ^ x29: .cfa -64 + ^
STACK CFI 6143c .cfa: sp 144 +
STACK CFI 61450 .cfa: sp 0 +
STACK CFI 61454 .cfa: x29 64 +
STACK CFI INIT 61590 4f4 .cfa: sp 0 +
STACK CFI 61594 .cfa: sp 144 +
STACK CFI 615a8 .cfa: x29 64 + x19: .cfa -8 + ^ x20: .cfa -16 + ^ x21: .cfa -24 + ^ x22: .cfa -32 + ^ x23: .cfa -48 + ^ .ra: .cfa -56 + ^ x29: .cfa -64 + ^
STACK CFI 618dc .cfa: sp 144 +
STACK CFI 618f0 .cfa: sp 0 +
STACK CFI 618f4 .cfa: x29 64 +
STACK CFI INIT 61a84 154 .cfa: sp 0 +
STACK CFI 61a88 .cfa: sp 384 +
STACK CFI 61a9c .cfa: x29 64 + x19: .cfa -8 + ^ x20: .cfa -16 + ^ x21: .cfa -24 + ^ x22: .cfa -32 + ^ x23: .cfa -40 + ^ x28: .cfa -48 + ^ .ra: .cfa -56 + ^ x29: .cfa -64 + ^
STACK CFI 61b80 .cfa: sp 384 +
STACK CFI 61b94 .cfa: sp 0 +
STACK CFI 61b98 .cfa: x29 64 +
STACK CFI INIT 61bf0 50c .cfa: sp 0 +
STACK CFI 61bf4 .cfa: sp 64 +
STACK CFI 61c04 .cfa: x29 64 + x19: .cfa -8 + ^ x20: .cfa -16 + ^ x21: .cfa -24 + ^ x22: .cfa -32 + ^ x23: .cfa -40 + ^ x24: .cfa -48 + ^ .ra: .cfa -56 + ^ x29: .cfa -64 + ^
STACK CFI 61d24 .cfa: sp 64 +
STACK CFI 61d34 .cfa: sp 0 +
STACK CFI 61d38 .cfa: x29 64 +
STACK CFI 620d0 .cfa: sp 64 +
STACK CFI 620e0 .cfa: sp 0 +
STACK CFI 620e4 .cfa: x29 64 +
STACK CFI INIT 6242c 294 .cfa: sp 0 +
STACK CFI 62430 .cfa: sp 240 +
STACK CFI 62448 .cfa: x29 80 + x19: .cfa -8 + ^ x20: .cfa -16 + ^ x21: .cfa -24 + ^ x22: .cfa -32 + ^ x23: .cfa -40 + ^ x24: .cfa -48 + ^ x25: .cfa -64 + ^ .ra: .cfa -72 + ^ x29: .cfa -80 + ^
STACK CFI 625e8 .cfa: sp 240 +
STACK CFI 62600 .cfa: sp 0 +
STACK CFI 62604 .cfa: x29 80 +
STACK CFI INIT 6273c 50 .cfa: sp 0 +
STACK CFI 62740 .cfa: sp 32 +
STACK CFI 62748 .cfa: x29 32 + x19: .cfa -8 + ^ x20: .cfa -16 + ^ .ra: .cfa -24 + ^ x29: .cfa -32 + ^
STACK CFI INIT 627b8 7c0 .cfa: sp 0 +
STACK CFI 627bc .cfa: sp 320 +
STACK CFI 627d8 .cfa: x29 96 + x19: .cfa -8 + ^ x20: .cfa -16 + ^ x21: .cfa -24 + ^ x22: .cfa -32 + ^ x23: .cfa -40 + ^ x24: .cfa -48 + ^ x25: .cfa -56 + ^ x26: .cfa -64 + ^ x27: .cfa -72 + ^ x28: .cfa -80 + ^ .ra: .cfa -88 + ^ x29: .cfa -96 + ^
STACK CFI 62e28 .cfa: sp 320 +
STACK CFI 62e44 .cfa: sp 0 +
STACK CFI 62e48 .cfa: x29 96 +
STACK CFI INIT 672f8 c74 .cfa: sp 0 +
STACK CFI 672fc .cfa: sp 96 +
STACK CFI 67314 .cfa: x29 96 + x19: .cfa -8 + ^ x20: .cfa -16 + ^ x21: .cfa -24 + ^ x22: .cfa -32 + ^ x23: .cfa -40 + ^ x24: .cfa -48 + ^ x25: .cfa -56 + ^ x26: .cfa -64 + ^ x27: .cfa -72 + ^ x28: .cfa -80 + ^ .ra: .cfa -88 + ^ x29: .cfa -96 + ^
STACK CFI 67d8c .cfa: sp 96 +
STACK CFI 67da4 .cfa: sp 0 +
STACK CFI 67da8 .cfa: x29 96 +
STACK CFI INIT 680c0 26c .cfa: sp 0 +
STACK CFI 680c4 .cfa: sp 128 +
STACK CFI 680d4 .cfa: x29 48 + x19: .cfa -8 + ^ x20: .cfa -16 + ^ x21: .cfa -24 + ^ x22: .cfa -32 + ^ .ra: .cfa -40 + ^ x29: .cfa -48 + ^
STACK CFI 68278 .cfa: sp 128 +
STACK CFI 68288 .cfa: sp 0 +
STACK CFI 6828c .cfa: x29 48 +
STACK CFI INIT 686bc 3b8 .cfa: sp 0 +
STACK CFI 686c0 .cfa: sp 96 +
STACK CFI 686d8 .cfa: x29 96 + x19: .cfa -8 + ^ x20: .cfa -16 + ^ x21: .cfa -24 + ^ x22: .cfa -32 + ^ x23: .cfa -40 + ^ x24: .cfa -48 + ^ x25: .cfa -56 + ^ x26: .cfa -64 + ^ x27: .cfa -72 + ^ x28: .cfa -80 + ^ .ra: .cfa -88 + ^ x29: .cfa -96 + ^
STACK CFI 68a14 .cfa: sp 96 +
STACK CFI 68a2c .cfa: sp 0 +
STACK CFI 68a30 .cfa: x29 96 +
STACK CFI INIT 68b14 cb4 .cfa: sp 0 +
STACK CFI 68b18 .cfa: sp 96 +
STACK CFI 68b30 .cfa: x29 96 + x19: .cfa -8 + ^ x20: .cfa -16 + ^ x21: .cfa -24 + ^ x22: .cfa -32 + ^ x23: .cfa -40 + ^ x24: .cfa -48 + ^ x25: .cfa -56 + ^ x26: .cfa -64 + ^ x27: .cfa -72 + ^ x28: .cfa -80 + ^ .ra: .cfa -88 + ^ x29: .cfa -96 + ^
STACK CFI 695d8 .cfa: sp 96 +
STACK CFI 695f0 .cfa: sp 0 +
STACK CFI 695f4 .cfa: x29 96 +
STACK CFI INIT 69ab0 afc .cfa: sp 0 +
STACK CFI 69ab4 .cfa: sp 96 +
STACK CFI 69acc .cfa: x29 96 + x19: .cfa -8 + ^ x20: .cfa -16 + ^ x21: .cfa -24 + ^ x22: .cfa -32 + ^ x23: .cfa -40 + ^ x24: .cfa -48 + ^ x25: .cfa -56 + ^ x26: .cfa -64 + ^ x27: .cfa -72 + ^ x28: .cfa -80 + ^ .ra: .cfa -88 + ^ x29: .cfa -96 + ^
STACK CFI 6a520 .cfa: sp 96 +
STACK CFI 6a538 .cfa: sp 0 +
STACK CFI 6a53c .cfa: x29 96 +
STACK CFI INIT 6a788 1430 .cfa: sp 0 +
STACK CFI 6a78c .cfa: sp 96 +
STACK CFI 6a7a4 .cfa: x29 96 + x19: .cfa -8 + ^ x20: .cfa -16 + ^ x21: .cfa -24 + ^ x22: .cfa -32 + ^ x23: .cfa -40 + ^ x24: .cfa -48 + ^ x25: .cfa -56 + ^ x26: .cfa -64 + ^ x27: .cfa -72 + ^ x28: .cfa -80 + ^ .ra: .cfa -88 + ^ x29: .cfa -96 + ^
STACK CFI 6ba40 .cfa: sp 96 +
STACK CFI 6ba58 .cfa: sp 0 +
STACK CFI 6ba5c .cfa: x29 96 +
STACK CFI INIT 6bcdc 75c .cfa: sp 0 +
STACK CFI 6bce0 .cfa: sp 368 +
STACK CFI 6bcfc .cfa: x29 96 + x19: .cfa -8 + ^ x20: .cfa -16 + ^ x21: .cfa -24 + ^ x22: .cfa -32 + ^ x23: .cfa -40 + ^ x24: .cfa -48 + ^ x25: .cfa -56 + ^ x26: .cfa -64 + ^ x27: .cfa -72 + ^ x28: .cfa -80 + ^ .ra: .cfa -88 + ^ x29: .cfa -96 + ^
STACK CFI 6bdb0 .cfa: sp 368 +
STACK CFI 6bdcc .cfa: sp 0 +
STACK CFI 6bdd0 .cfa: x29 96 +
STACK CFI 6be24 .cfa: sp 368 +
STACK CFI 6be40 .cfa: sp 0 +
STACK CFI 6be44 .cfa: x29 96 +
STACK CFI INIT 6c7f8 eb0 .cfa: sp 0 +
STACK CFI 6c7fc .cfa: sp 96 +
STACK CFI 6c814 .cfa: x29 96 + x19: .cfa -8 + ^ x20: .cfa -16 + ^ x21: .cfa -24 + ^ x22: .cfa -32 + ^ x23: .cfa -40 + ^ x24: .cfa -48 + ^ x25: .cfa -56 + ^ x26: .cfa -64 + ^ x27: .cfa -72 + ^ x28: .cfa -80 + ^ .ra: .cfa -88 + ^ x29: .cfa -96 + ^
STACK CFI 6d4bc .cfa: sp 96 +
STACK CFI 6d4d4 .cfa: sp 0 +
STACK CFI 6d4d8 .cfa: x29 96 +
STACK CFI INIT 6da1c 1c9c .cfa: sp 0 +
STACK CFI 6da20 .cfa: sp 112 +
STACK CFI 6da3c .cfa: x29 96 + x19: .cfa -8 + ^ x20: .cfa -16 + ^ x21: .cfa -24 + ^ x22: .cfa -32 + ^ x23: .cfa -40 + ^ x24: .cfa -48 + ^ x25: .cfa -56 + ^ x26: .cfa -64 + ^ x27: .cfa -72 + ^ x28: .cfa -80 + ^ .ra: .cfa -88 + ^ x29: .cfa -96 + ^ v8: .cfa -112 + ^
STACK CFI 6de24 .cfa: sp 112 +
STACK CFI 6de40 .cfa: sp 0 +
STACK CFI 6de44 .cfa: x29 96 +
STACK CFI INIT 71e7c 9a0 .cfa: sp 0 +
STACK CFI 71e80 .cfa: sp 144 +
STACK CFI 71e98 .cfa: x29 80 + x19: .cfa -8 + ^ x20: .cfa -16 + ^ x21: .cfa -24 + ^ x22: .cfa -32 + ^ x23: .cfa -40 + ^ x24: .cfa -48 + ^ x25: .cfa -64 + ^ .ra: .cfa -72 + ^ x29: .cfa -80 + ^
STACK CFI 72798 .cfa: sp 144 +
STACK CFI 727b0 .cfa: sp 0 +
STACK CFI 727b4 .cfa: x29 80 +
STACK CFI INIT 73d40 57c .cfa: sp 0 +
STACK CFI 73d44 .cfa: sp 96 +
STACK CFI 73d5c .cfa: x29 96 + x19: .cfa -8 + ^ x20: .cfa -16 + ^ x21: .cfa -24 + ^ x22: .cfa -32 + ^ x23: .cfa -40 + ^ x24: .cfa -48 + ^ x25: .cfa -56 + ^ x26: .cfa -64 + ^ x27: .cfa -72 + ^ x28: .cfa -80 + ^ .ra: .cfa -88 + ^ x29: .cfa -96 + ^
STACK CFI 74220 .cfa: sp 96 +
STACK CFI 74238 .cfa: sp 0 +
STACK CFI 7423c .cfa: x29 96 +
STACK CFI INIT 742bc 67c .cfa: sp 0 +
STACK CFI 742c0 .cfa: sp 96 +
STACK CFI 742d8 .cfa: x29 96 + x19: .cfa -8 + ^ x20: .cfa -16 + ^ x21: .cfa -24 + ^ x22: .cfa -32 + ^ x23: .cfa -40 + ^ x24: .cfa -48 + ^ x25: .cfa -56 + ^ x26: .cfa -64 + ^ x27: .cfa -72 + ^ x28: .cfa -80 + ^ .ra: .cfa -88 + ^ x29: .cfa -96 + ^
STACK CFI 7489c .cfa: sp 96 +
STACK CFI 748b4 .cfa: sp 0 +
STACK CFI 748b8 .cfa: x29 96 +
