MODULE Linux arm64 A183F0A8C73D87D950A63AA3AFA83B040 oatmealine.nlw_integration.android64.so
INFO CODE_ID A8F083A13DC7D98750A63AA3AFA83B04900AE9D5
INFO GENERATOR mozilla/dump_syms 2.3.4
PUBLIC 1a560 0 __on_dlclose
PUBLIC 1a570 0 __emutls_unregister_key
PUBLIC 1a578 0 __on_dlclose_late
PUBLIC 1a580 0 __atexit_handler_wrapper
PUBLIC 1a594 0 atexit
PUBLIC 1a5b0 0 pthread_atfork
PUBLIC 1a5c0 0 __aarch64_ldadd8_relax
PUBLIC 1a5f0 0 init_have_lse_atomics
PUBLIC 1a688 0 __init_cpu_features_constructor
PUBLIC 1ac24 0 __init_cpu_features
PUBLIC 1acb0 0 __aarch64_ldadd8_acq_rel
PUBLIC 1ace0 0 __cxx_global_var_init
PUBLIC 1b160 0 geode::modifier::ModifyBase<geode::modifier::ModifyDerive<NLWInfoLayer, LevelInfoLayer> >::~ModifyBase()
PUBLIC 1b17c 0 geode::modifier::ModifyDerive<NLWInfoLayer, LevelInfoLayer>::apply()
PUBLIC 1b7c4 0 std::__ndk1::shared_ptr<geode::Hook>::~shared_ptr[abi:ne180000]()
PUBLIC 1b814 0 geode::impl::ResultData<geode::Hook*, std::__ndk1::basic_string<char, std::__ndk1::char_traits<char>, std::__ndk1::allocator<char> > >::~ResultData()
PUBLIC 1b888 0 std::__ndk1::vector<std::__ndk1::basic_string<char, std::__ndk1::char_traits<char>, std::__ndk1::allocator<char> >, std::__ndk1::allocator<std::__ndk1::basic_string<char, std::__ndk1::char_traits<char>, std::__ndk1::allocator<char> > > >::~vector[abi:ne180000]()
PUBLIC 1b904 0 geode::modifier::ModifyBase<geode::modifier::ModifyDerive<NLWInfoLayer, LevelInfoLayer> >::apply()
PUBLIC 1b908 0 __clang_call_terminate
PUBLIC 1b918 0 _ZN5geode15UnwrapExceptionC2IRPNS_4HookEQsr4implE18IsStringStreamableIT_EEENS_4impl5OkTagEOS5_
PUBLIC 1ba6c 0 std::__ndk1::__throw_bad_variant_access[abi:ne180000]()
PUBLIC 1baa0 0 std::__ndk1::basic_stringstream<char, std::__ndk1::char_traits<char>, std::__ndk1::allocator<char> >::basic_stringstream[abi:ne180000]()
PUBLIC m 1bbcc 0 std::__ndk1::basic_stringstream<char, std::__ndk1::char_traits<char>, std::__ndk1::allocator<char> >::~basic_stringstream()
PUBLIC 1bc4c 0 geode::UnwrapException::~UnwrapException()
PUBLIC 1bc70 0 std::__ndk1::__put_character_sequence[abi:ne180000]<char, std::__ndk1::char_traits<char> >(std::__ndk1::basic_ostream<char, std::__ndk1::char_traits<char> >, std::__ndk1::basic_ostream const*, unsigned long)
PUBLIC 1be14 0 std::__ndk1::__pad_and_output[abi:ne180000]<char, std::__ndk1::char_traits<char> >(std::__ndk1::char_traits<char>, std::__ndk1::ostreambuf_iterator const*, std::__ndk1::ostreambuf_iterator const, std::__ndk1::ostreambuf_iterator const, std::__ndk1::ios_base&, std::__ndk1::ostreambuf_iterator)
PUBLIC 1bff0 0 std::__ndk1::basic_string<char, std::__ndk1::char_traits<char>, std::__ndk1::allocator<char> >::__throw_length_error[abi:ne180000]() const
PUBLIC 1c004 0 std::__ndk1::__throw_length_error[abi:ne180000](char const*)
PUBLIC 1c054 0 std::length_error::length_error[abi:ne180000](char const*)
PUBLIC 1c084 0 std::__throw_bad_array_new_length([abi:ne180000], void)
PUBLIC 1c0b8 0 std::__ndk1::basic_stringbuf<char, std::__ndk1::char_traits<char>, std::__ndk1::allocator<char> >::str[abi:ne180000]() &&
PUBLIC 1c230 0 std::__ndk1::basic_stringbuf<char, std::__ndk1::char_traits<char>, std::__ndk1::allocator<char> >::__init_buf_ptrs[abi:ne180000]()
PUBLIC 1c378 0 std::__ndk1::vector<std::__ndk1::basic_string<char, std::__ndk1::char_traits<char>, std::__ndk1::allocator<char> >, std::__ndk1::allocator<std::__ndk1::basic_string<char, std::__ndk1::char_traits<char>, std::__ndk1::allocator<char> > > >::__push_back_slow_path<std::__ndk1::basic_string<char, std::__ndk1::char_traits<char>, std::__ndk1::allocator<char> > const&>(std::__ndk1::basic_string<char, std::__ndk1::char_traits<char>, std::__ndk1::allocator<char> > const&)
PUBLIC 1c5a0 0 std::__ndk1::basic_string<char, std::__ndk1::char_traits<char>, std::__ndk1::allocator<char> >::__init_copy_ctor_external(char const*, unsigned long)
PUBLIC 1c620 0 std::__ndk1::__split_buffer<std::__ndk1::basic_string<char, std::__ndk1::char_traits<char>, std::__ndk1::allocator<char> >, std::__ndk1::allocator<std::__ndk1::basic_string<char, std::__ndk1::char_traits<char>, std::__ndk1::allocator<char> > >&>::~__split_buffer()
PUBLIC 1c688 0 std::__ndk1::vector<std::__ndk1::basic_string<char, std::__ndk1::char_traits<char>, std::__ndk1::allocator<char> >, std::__ndk1::allocator<std::__ndk1::basic_string<char, std::__ndk1::char_traits<char>, std::__ndk1::allocator<char> > > >::__throw_length_error[abi:ne180000]() const
PUBLIC 1c69c 0 std::__ndk1::__variant_detail::__visitation::__base::__dispatcher<(unsigned long)0>::__dispatch[abi:ne180000]<std::__ndk1::__variant_detail::__dtor<std::__ndk1::__variant_detail::__traits<geode::Hook*, std::__ndk1::basic_string<char, std::__ndk1::char_traits<char>, std::__ndk1::allocator<char> > >, (std::__ndk1::__variant_detail::_Trait)1>::__destroy[abi:ne180000]()::{lambda(auto:1&)#1}, std::__ndk1::__variant_detail::__base<(std::__ndk1::__variant_detail::__traits<geode::Hook*, std::__ndk1::basic_string<char, std::__ndk1::char_traits<char>, std::__ndk1::allocator<char> > >)1, geode::Hook, std::__ndk1::allocator<char> >&>(std::__ndk1::__variant_detail::__dtor<std::__ndk1::__variant_detail::__traits<geode::Hook*, std::__ndk1::basic_string<char, std::__ndk1::char_traits<char>, std::__ndk1::allocator<char> > >, (std::__ndk1::__variant_detail::_Trait)1>, std::__ndk1::__variant_detail::__base<(std::__ndk1::__variant_detail::__traits<geode::Hook*, std::__ndk1::basic_string<char, std::__ndk1::char_traits<char>, std::__ndk1::allocator<char> > >)1, geode::Hook, std::__ndk1::allocator<char> >&)
PUBLIC 1c6a0 0 std::__ndk1::__variant_detail::__visitation::__base::__dispatcher<(unsigned long)1>::__dispatch[abi:ne180000]<std::__ndk1::__variant_detail::__dtor<std::__ndk1::__variant_detail::__traits<geode::Hook*, std::__ndk1::basic_string<char, std::__ndk1::char_traits<char>, std::__ndk1::allocator<char> > >, (std::__ndk1::__variant_detail::_Trait)1>::__destroy[abi:ne180000]()::{lambda(auto:1&)#1}, std::__ndk1::__variant_detail::__base<(std::__ndk1::__variant_detail::__traits<geode::Hook*, std::__ndk1::basic_string<char, std::__ndk1::char_traits<char>, std::__ndk1::allocator<char> > >)1, geode::Hook, std::__ndk1::allocator<char> >&>(std::__ndk1::__variant_detail::__dtor<std::__ndk1::__variant_detail::__traits<geode::Hook*, std::__ndk1::basic_string<char, std::__ndk1::char_traits<char>, std::__ndk1::allocator<char> > >, (std::__ndk1::__variant_detail::_Trait)1>, std::__ndk1::__variant_detail::__base<(std::__ndk1::__variant_detail::__traits<geode::Hook*, std::__ndk1::basic_string<char, std::__ndk1::char_traits<char>, std::__ndk1::allocator<char> > >)1, geode::Hook, std::__ndk1::allocator<char> >&)
PUBLIC 1c6b4 0 std::__ndk1::__tree<std::__ndk1::__value_type<std::__ndk1::basic_string<char, std::__ndk1::char_traits<char>, std::__ndk1::allocator<char> >, std::__ndk1::shared_ptr<geode::Hook> >, std::__ndk1::__map_value_compare<std::__ndk1::basic_string<char, std::__ndk1::char_traits<char>, std::__ndk1::allocator<char> >, std::__ndk1::__value_type<std::__ndk1::basic_string<char, std::__ndk1::char_traits<char>, std::__ndk1::allocator<char> >, std::__ndk1::shared_ptr<geode::Hook> >, std::__ndk1::less<std::__ndk1::basic_string<char, std::__ndk1::char_traits<char>, std::__ndk1::allocator<char> > >, true>, std::__ndk1::allocator<std::__ndk1::__value_type<std::__ndk1::basic_string<char, std::__ndk1::char_traits<char>, std::__ndk1::allocator<char> >, std::__ndk1::shared_ptr<geode::Hook> > > >::find<std::__ndk1::basic_string<char, std::__ndk1::char_traits<char>, std::__ndk1::allocator<char> > >(std::__ndk1::basic_string<char, std::__ndk1::char_traits<char>, std::__ndk1::allocator<char> > const&)
PUBLIC 1c7d4 0 std::__ndk1::__tree<std::__ndk1::__value_type<std::__ndk1::basic_string<char, std::__ndk1::char_traits<char>, std::__ndk1::allocator<char> >, std::__ndk1::shared_ptr<geode::Hook> >, std::__ndk1::__map_value_compare<std::__ndk1::basic_string<char, std::__ndk1::char_traits<char>, std::__ndk1::allocator<char> >, std::__ndk1::__value_type<std::__ndk1::basic_string<char, std::__ndk1::char_traits<char>, std::__ndk1::allocator<char> >, std::__ndk1::shared_ptr<geode::Hook> >, std::__ndk1::less<std::__ndk1::basic_string<char, std::__ndk1::char_traits<char>, std::__ndk1::allocator<char> > >, true>, std::__ndk1::allocator<std::__ndk1::__value_type<std::__ndk1::basic_string<char, std::__ndk1::char_traits<char>, std::__ndk1::allocator<char> >, std::__ndk1::shared_ptr<geode::Hook> > > >::erase(std::__ndk1::__tree_const_iterator<std::__ndk1::__value_type<std::__ndk1::basic_string<char, std::__ndk1::char_traits<char>, std::__ndk1::allocator<char> >, std::__ndk1::shared_ptr<geode::Hook> >, std::__ndk1::__tree_node<std::__ndk1::__value_type<std::__ndk1::basic_string<char, std::__ndk1::char_traits<char>, std::__ndk1::allocator<char> >, std::__ndk1::shared_ptr<geode::Hook> >, void*>*, long>)
PUBLIC 1c8a8 0 std::__ndk1::__tree_remove[abi:ne180000]<std::__ndk1::__tree_node_base<void*>*>(std::__ndk1::__tree_node_base<void*>*, std::__ndk1::__tree_node_base<void*>*)
PUBLIC 1cc70 0 std::__ndk1::__tree<std::__ndk1::__value_type<std::__ndk1::basic_string<char, std::__ndk1::char_traits<char>, std::__ndk1::allocator<char> >, std::__ndk1::shared_ptr<geode::Hook> >, std::__ndk1::__map_value_compare<std::__ndk1::basic_string<char, std::__ndk1::char_traits<char>, std::__ndk1::allocator<char> >, std::__ndk1::__value_type<std::__ndk1::basic_string<char, std::__ndk1::char_traits<char>, std::__ndk1::allocator<char> >, std::__ndk1::shared_ptr<geode::Hook> >, std::__ndk1::less<std::__ndk1::basic_string<char, std::__ndk1::char_traits<char>, std::__ndk1::allocator<char> > >, true>, std::__ndk1::allocator<std::__ndk1::__value_type<std::__ndk1::basic_string<char, std::__ndk1::char_traits<char>, std::__ndk1::allocator<char> >, std::__ndk1::shared_ptr<geode::Hook> > > >::destroy(std::__ndk1::__tree_node<std::__ndk1::__value_type<std::__ndk1::basic_string<char, std::__ndk1::char_traits<char>, std::__ndk1::allocator<char> >, std::__ndk1::shared_ptr<geode::Hook> >, void*>*)
PUBLIC 1ccfc 0 geode::modifier::AsStaticFunction_init<NLWInfoLayer, bool (NLWInfoLayer::*)(GJGameLevel*, bool)>::Impl<bool (NLWInfoLayer::*)(GJGameLevel*, bool)>::function(NLWInfoLayer*, GJGameLevel*, bool)
PUBLIC 1ce00 0 geode::modifier::AsStaticFunction_updateLabelValues<NLWInfoLayer, void (NLWInfoLayer::*)()>::Impl<void (NLWInfoLayer::*)()>::function(NLWInfoLayer*)
PUBLIC 1ce24 0 std::__ndk1::shared_ptr<tulip::hook::CallingConvention>::~shared_ptr[abi:ne180000]()
PUBLIC 1ce74 0 tulip::hook::HandlerMetadata::~HandlerMetadata()
PUBLIC 1ced8 0 std::__ndk1::vector<tulip::hook::AbstractType, std::__ndk1::allocator<tulip::hook::AbstractType> >::__throw_length_error[abi:ne180000]() const
PUBLIC 1ceec 0 NLWInfoLayer::updateDifficultyFace()
PUBLIC 1d790 0 geode::modifier::FieldIntermediate<NLWInfoLayer, LevelInfoLayer>::self()
PUBLIC 1ddec 0 geode::modifier::FieldIntermediate<NLWInfoLayer, LevelInfoLayer>::fieldDestructor(void*)
PUBLIC 1ddf0 0 std::__ndk1::vector<void*, std::__ndk1::allocator<void*> >::__throw_length_error[abi:ne180000]() const
PUBLIC 1de04 0 std::__ndk1::vector<std::__ndk1::function<void (void*)>, std::__ndk1::allocator<std::__ndk1::function<void (void*)> > >::__throw_length_error[abi:ne180000]() const
PUBLIC 1de18 0 std::__ndk1::vector<void*, std::__ndk1::allocator<void*> >::__throw_out_of_range[abi:ne180000]() const
PUBLIC 1de2c 0 std::__ndk1::__throw_out_of_range[abi:ne180000](char const*)
PUBLIC 1de7c 0 std::out_of_range::out_of_range[abi:ne180000](char const*)
PUBLIC 1deac 0 std::__ndk1::vector<std::__ndk1::function<void (void*)>, std::__ndk1::allocator<std::__ndk1::function<void (void*)> > >::__throw_out_of_range[abi:ne180000]() const
PUBLIC 1dec0 0 NLWRating::~NLWRating()
PUBLIC 1df6c 0 std::__ndk1::__function::__base<void (void*)>::~__base()
PUBLIC 1df70 0 std::__ndk1::__function::__func<void (*)(void*), std::__ndk1::allocator<void (*)(void*)>, void (void*)>::~__func()
PUBLIC 1df74 0 std::__ndk1::__function::__func<void (*)(void*), std::__ndk1::allocator<void (*)(void*)>, void (void*)>::__clone() const
PUBLIC 1dfac 0 std::__ndk1::__function::__func<void (*)(void*), std::__ndk1::allocator<void (*)(void*)>, void (void*)>::__clone(std::__ndk1::__function::__base<void (void*)>*) const
PUBLIC 1dfc4 0 std::__ndk1::__function::__func<void (*)(void*), std::__ndk1::allocator<void (*)(void*)>, void (void*)>::destroy()
PUBLIC 1dfc8 0 std::__ndk1::__function::__func<void (*)(void*), std::__ndk1::allocator<void (*)(void*)>, void (void*)>::destroy_deallocate()
PUBLIC 1dfcc 0 std::__ndk1::__function::__func<void (*)(void*), std::__ndk1::allocator<void (*)(void*)>, void (void*)>::operator()(void*&&)
PUBLIC 1dfdc 0 std::__ndk1::__function::__func<void (*)(void*), std::__ndk1::allocator<void (*)(void*)>, void (void*)>::target(std::type_info const&) const
PUBLIC 1dff8 0 std::__ndk1::__function::__func<void (*)(void*), std::__ndk1::allocator<void (*)(void*)>, void (void*)>::target_type() const
PUBLIC 1e004 0 geode::log::warn<>(fmt::v11::basic_format_string<char, fmt::v11::type_identity<decltype ((wrapCocosObj<>)((std::declval<>)()))>::type>, &&)
PUBLIC 1e07c 0 NLWInfoLayer::openNLWInfoPane(cocos2d::CCObject*)
PUBLIC 1e0b4 0 fmt::v11::detail::value<fmt::v11::context>::format_custom_arg<gd::string, fmt::v11::formatter<gd::string, char, void> >(void*, fmt::v11::basic_format_parse_context<char>&, fmt::v11::context&)
PUBLIC 1e288 0 fmt::v11::detail::parse_format_specs<char>(char const*, char const*, fmt::v11::detail::dynamic_format_specs<char>&, fmt::v11::basic_format_parse_context<char>&, fmt::v11::detail::type)
PUBLIC 1e73c 0 fmt::v11::detail::parse_dynamic_spec<char>(char const*, char const*, int&, fmt::v11::detail::arg_ref<char>&, fmt::v11::basic_format_parse_context<char>&)
PUBLIC 1e8e0 0 fmt::v11::detail::do_parse_arg_id<char, fmt::v11::detail::dynamic_spec_id_handler<char>&>(char const*, char const*, fmt::v11::detail::dynamic_spec_id_handler<char>&)
PUBLIC 1ea74 0 fmt::v11::detail::handle_dynamic_spec<fmt::v11::detail::width_checker, fmt::v11::context>(int&, fmt::v11::detail::arg_ref<fmt::v11::context::char_type>, fmt::v11::context&)
PUBLIC 1eb88 0 fmt::v11::detail::handle_dynamic_spec<fmt::v11::detail::precision_checker, fmt::v11::context>(int&, fmt::v11::detail::arg_ref<fmt::v11::context::char_type>, fmt::v11::context&)
PUBLIC 1ec9c 0 fmt::v11::detail::write<char, fmt::v11::basic_appender<char> >(fmt::v11::basic_appender<char>, fmt::v11::basic_string_view<char>, fmt::v11::format_specs const&)
PUBLIC 1ef18 0 fmt::v11::detail::write_escaped_string<char, fmt::v11::detail::counting_iterator>(fmt::v11::detail::counting_iterator, fmt::v11::basic_string_view<char>)
PUBLIC 1f438 0 fmt::v11::detail::write_padded<char, (fmt::v11::align::type)1, fmt::v11::basic_appender<char>, fmt::v11::detail::write<char, fmt::v11::basic_appender<char> >(fmt::v11::basic_appender<char>, fmt::v11::basic_string_view<char>, fmt::v11::format_specs const&)::{lambda(fmt::v11::basic_appender<char>)#1}>(fmt::v11::basic_appender<char>, fmt::v11::format_specs const&, unsigned long, unsigned long, fmt::v11::detail::write<char, fmt::v11::basic_appender<char> >(fmt::v11::basic_appender<char>, fmt::v11::basic_string_view<char>, fmt::v11::format_specs const&)::{lambda(fmt::v11::basic_appender<char>&&)#1})
PUBLIC 1f644 0 fmt::v11::detail::for_each_codepoint<fmt::v11::detail::code_point_index(fmt::v11::basic_string_view<char>, unsigned long)::{lambda(unsigned int, fmt::v11::basic_string_view<char>)#1}>(fmt::v11::basic_string_view<char>, fmt::v11::detail::code_point_index(fmt::v11::basic_string_view<char>, unsigned long)::{lambda(unsigned int, fmt::v11::basic_string_view<char>)#1})
PUBLIC 1fa6c 0 fmt::v11::detail::write_escaped_cp<fmt::v11::detail::counting_iterator, char>(fmt::v11::detail::counting_iterator, fmt::v11::detail::find_escape_result<char> const&)
PUBLIC 1fc00 0 fmt::v11::detail::for_each_codepoint<fmt::v11::detail::compute_width(fmt::v11::basic_string_view<char>)::count_code_points>(fmt::v11::basic_string_view<char>, fmt::v11::detail::compute_width(fmt::v11::basic_string_view<char>)::count_code_points)::{lambda(char const*, char const*)#1}::operator()(char const*, char const*) const
PUBLIC 1fdb8 0 fmt::v11::detail::fill<char, fmt::v11::basic_appender<char> >(fmt::v11::basic_appender<char>, unsigned long, fmt::v11::detail::fill_t const&)
PUBLIC 1ff88 0 fmt::v11::detail::write_escaped_string<char, fmt::v11::basic_appender<char> >(fmt::v11::basic_appender<char>, fmt::v11::basic_string_view<char>)
PUBLIC 20604 0 fmt::v11::detail::write_escaped_cp<fmt::v11::basic_appender<char>, char>(fmt::v11::basic_appender<char>, fmt::v11::detail::find_escape_result<char> const&)
PUBLIC 207e8 0 fmt::v11::detail::write_codepoint<(unsigned long)2, char, fmt::v11::basic_appender<char> >(fmt::v11::basic_appender<char>, char, unsigned int)
PUBLIC 20960 0 fmt::v11::detail::write_codepoint<(unsigned long)4, char, fmt::v11::basic_appender<char> >(fmt::v11::basic_appender<char>, char, unsigned int)
PUBLIC 20ad8 0 fmt::v11::detail::write_codepoint<(unsigned long)8, char, fmt::v11::basic_appender<char> >(fmt::v11::basic_appender<char>, char, unsigned int)
PUBLIC 20c50 0 fmt::v11::detail::get_dynamic_spec<fmt::v11::detail::width_checker, fmt::v11::basic_format_arg<fmt::v11::context> >(fmt::v11::basic_format_arg<fmt::v11::context>)
PUBLIC 20ce4 0 fmt::v11::basic_format_args<fmt::v11::context>::get<char>(fmt::v11::basic_string_view<char>) const
PUBLIC 20e3c 0 fmt::v11::detail::get_dynamic_spec<fmt::v11::detail::precision_checker, fmt::v11::basic_format_arg<fmt::v11::context> >(fmt::v11::basic_format_arg<fmt::v11::context>)
PUBLIC 20ed0 0 std::__ndk1::__throw_bad_optional_access[abi:ne180000]()
PUBLIC 20f04 0 std::__ndk1::basic_string<char, std::__ndk1::char_traits<char>, std::__ndk1::allocator<char> >::__assign_no_alias<true>(char const*, unsigned long)
PUBLIC 20fb0 0 std::__ndk1::basic_string<char, std::__ndk1::char_traits<char>, std::__ndk1::allocator<char> >::__assign_no_alias<false>(char const*, unsigned long)
PUBLIC 210c0 0 geode::cast::traverseTypeinfoFor(void*, geode::cast::ClassTypeinfoType const*, char const*)
PUBLIC 211c4 0 std::__ndk1::__tree<std::__ndk1::__value_type<std::__ndk1::basic_string<char, std::__ndk1::char_traits<char>, std::__ndk1::allocator<char> >, std::__ndk1::shared_ptr<geode::Hook> >, std::__ndk1::__map_value_compare<std::__ndk1::basic_string<char, std::__ndk1::char_traits<char>, std::__ndk1::allocator<char> >, std::__ndk1::__value_type<std::__ndk1::basic_string<char, std::__ndk1::char_traits<char>, std::__ndk1::allocator<char> >, std::__ndk1::shared_ptr<geode::Hook> >, std::__ndk1::less<std::__ndk1::basic_string<char, std::__ndk1::char_traits<char>, std::__ndk1::allocator<char> > >, true>, std::__ndk1::allocator<std::__ndk1::__value_type<std::__ndk1::basic_string<char, std::__ndk1::char_traits<char>, std::__ndk1::allocator<char> >, std::__ndk1::shared_ptr<geode::Hook> > > >::__emplace_unique_key_args<std::__ndk1::basic_string<char, std::__ndk1::char_traits<char>, std::__ndk1::allocator<char> >, std::__ndk1::piecewise_construct_t const&, std::__ndk1::tuple<std::__ndk1::basic_string<char, std::__ndk1::char_traits<char>, std::__ndk1::allocator<char> >&&>, std::__ndk1::tuple<> >(std::__ndk1::basic_string<char, std::__ndk1::char_traits<char>, std::__ndk1::allocator<char> > const&, std::__ndk1::piecewise_construct_t const&, std::__ndk1::tuple<std::__ndk1::basic_string<char, std::__ndk1::char_traits<char>, std::__ndk1::allocator<char> >&&>, std::__ndk1::tuple<>)
PUBLIC 2133c 0 std::__ndk1::__tree_balance_after_insert[abi:ne180000]<std::__ndk1::__tree_node_base<void*>*>(std::__ndk1::__tree_node_base<void*>*, std::__ndk1::__tree_node_base<void*>*)
PUBLIC 214ec 0 std::__ndk1::vector<NLWRating, std::__ndk1::allocator<NLWRating> >::~vector[abi:ne180000]()
PUBLIC 21554 0 geode::Task<geode::utils::web::WebResponse, geode::utils::web::WebProgress>::~Task()
PUBLIC 215a4 0 geode::EventListener<geode::Task<geode::utils::web::WebResponse, geode::utils::web::WebProgress> >::~EventListener()
PUBLIC 21640 0 ListManager::throwError(std::__ndk1::basic_string<char, std::__ndk1::char_traits<char>, std::__ndk1::allocator<char> >)
PUBLIC 218d0 0 geode::impl::ResultData<std::__ndk1::vector<matjson::Value, std::__ndk1::allocator<matjson::Value> >&, std::__ndk1::basic_string<char, std::__ndk1::char_traits<char>, std::__ndk1::allocator<char> > >::~ResultData()
PUBLIC 21944 0 std::__ndk1::vector<matjson::Value, std::__ndk1::allocator<matjson::Value> >::~vector[abi:ne180000]()
PUBLIC 219ac 0 ListManager::init()
PUBLIC 21fb0 0 ListManager::getRating(GJGameLevel*)
PUBLIC 22194 0 NLWRating::NLWRating(NLWRating const&)
PUBLIC 223ec 0 ListManager::getTierColor(std::__ndk1::basic_string<char, std::__ndk1::char_traits<char>, std::__ndk1::allocator<char> >)
PUBLIC 227e4 0 std::__ndk1::operator==[abi:ne180000]<char, std::__ndk1::char_traits<char>, std::__ndk1::allocator<char> >(std::__ndk1::basic_string<char, std::__ndk1::char_traits<char>, std::__ndk1::allocator<char> > const&, std::__ndk1::basic_string const*)
PUBLIC 22864 0 ListManager::getRatingLink(NLWRating)
PUBLIC 22be0 0 ListManager::getSearchObject(std::__ndk1::basic_string<char, std::__ndk1::char_traits<char>, std::__ndk1::allocator<char> >)
PUBLIC 23118 0 geode::EventListener<geode::Task<geode::utils::web::WebResponse, geode::utils::web::WebProgress> >::getPool() const
PUBLIC 2311c 0 geode::EventListener<geode::Task<geode::utils::web::WebResponse, geode::utils::web::WebProgress> >::handle(geode::Event*)
PUBLIC 232e8 0 geode::EventListener<geode::Task<geode::utils::web::WebResponse, geode::utils::web::WebProgress> >::~EventListener()
PUBLIC 2338c 0 std::__ndk1::__throw_bad_function_call[abi:ne180000]()
PUBLIC 233c0 0 std::__ndk1::bad_function_call::~bad_function_call()
PUBLIC 233e4 0 _ZN5geode15UnwrapExceptionC2IRNSt6__ndk112basic_stringIcNS2_11char_traitsIcEENS2_9allocatorIcEEEEQsr4implE18IsStringStreamableIT_EEENS_4impl6ErrTagEOSA_
PUBLIC 2354c 0 std::__ndk1::__exception_guard_exceptions<std::__ndk1::vector<matjson::Value, std::__ndk1::allocator<matjson::Value> >::__destroy_vector>::~__exception_guard_exceptions[abi:ne180000]()
PUBLIC 235c8 0 std::__ndk1::vector<matjson::Value, std::__ndk1::allocator<matjson::Value> >::__throw_length_error[abi:ne180000]() const
PUBLIC 235dc 0 std::__ndk1::__variant_detail::__visitation::__base::__dispatcher<(unsigned long)0>::__dispatch[abi:ne180000]<std::__ndk1::__variant_detail::__dtor<std::__ndk1::__variant_detail::__traits<std::__ndk1::reference_wrapper<std::__ndk1::vector<matjson::Value, std::__ndk1::allocator<matjson> > >, std::__ndk1::basic_string<char, std::__ndk1::char_traits<char>, matjson::Value<char> > >, (std::__ndk1::__variant_detail::_Trait)1>::__destroy[abi:ne180000]()::{lambda(auto:1&)#1}, std::__ndk1::__variant_detail::__base<(std::__ndk1::__variant_detail::__traits<std::__ndk1::reference_wrapper<std::__ndk1::vector<matjson::Value, std::__ndk1::allocator<matjson> > >, std::__ndk1::basic_string<char, std::__ndk1::char_traits<char>, matjson::Value<char> > >)1, std::__ndk1::vector<matjson::Value, std::__ndk1::allocator<matjson> >, matjson::Value<char> >&>(std::__ndk1::__variant_detail::__dtor<std::__ndk1::__variant_detail::__traits<std::__ndk1::reference_wrapper<std::__ndk1::vector<matjson::Value, std::__ndk1::allocator<matjson> > >, std::__ndk1::basic_string<char, std::__ndk1::char_traits<char>, matjson::Value<char> > >, (std::__ndk1::__variant_detail::_Trait)1>, std::__ndk1::__variant_detail::__base<(std::__ndk1::__variant_detail::__traits<std::__ndk1::reference_wrapper<std::__ndk1::vector<matjson::Value, std::__ndk1::allocator<matjson> > >, std::__ndk1::basic_string<char, std::__ndk1::char_traits<char>, matjson::Value<char> > >)1, std::__ndk1::vector<matjson::Value, std::__ndk1::allocator<matjson> >, matjson::Value<char> >&)
PUBLIC 235e0 0 std::__ndk1::__variant_detail::__visitation::__base::__dispatcher<(unsigned long)1>::__dispatch[abi:ne180000]<std::__ndk1::__variant_detail::__dtor<std::__ndk1::__variant_detail::__traits<std::__ndk1::reference_wrapper<std::__ndk1::vector<matjson::Value, std::__ndk1::allocator<matjson> > >, std::__ndk1::basic_string<char, std::__ndk1::char_traits<char>, matjson::Value<char> > >, (std::__ndk1::__variant_detail::_Trait)1>::__destroy[abi:ne180000]()::{lambda(auto:1&)#1}, std::__ndk1::__variant_detail::__base<(std::__ndk1::__variant_detail::__traits<std::__ndk1::reference_wrapper<std::__ndk1::vector<matjson::Value, std::__ndk1::allocator<matjson> > >, std::__ndk1::basic_string<char, std::__ndk1::char_traits<char>, matjson::Value<char> > >)1, std::__ndk1::vector<matjson::Value, std::__ndk1::allocator<matjson> >, matjson::Value<char> >&>(std::__ndk1::__variant_detail::__dtor<std::__ndk1::__variant_detail::__traits<std::__ndk1::reference_wrapper<std::__ndk1::vector<matjson::Value, std::__ndk1::allocator<matjson> > >, std::__ndk1::basic_string<char, std::__ndk1::char_traits<char>, matjson::Value<char> > >, (std::__ndk1::__variant_detail::_Trait)1>, std::__ndk1::__variant_detail::__base<(std::__ndk1::__variant_detail::__traits<std::__ndk1::reference_wrapper<std::__ndk1::vector<matjson::Value, std::__ndk1::allocator<matjson> > >, std::__ndk1::basic_string<char, std::__ndk1::char_traits<char>, matjson::Value<char> > >)1, std::__ndk1::vector<matjson::Value, std::__ndk1::allocator<matjson> >, matjson::Value<char> >&)
PUBLIC 235f4 0 std::__ndk1::__split_buffer<NLWRating, std::__ndk1::allocator<NLWRating>&>::~__split_buffer()
PUBLIC 23648 0 std::__ndk1::vector<NLWRating, std::__ndk1::allocator<NLWRating> >::__throw_length_error[abi:ne180000]() const
PUBLIC 2365c 0 geode::Task<geode::utils::web::WebResponse, geode::utils::web::WebProgress>::setListener(geode::EventListenerProtocol*)
PUBLIC 23878 0 geode::Task<geode::utils::web::WebResponse, geode::utils::web::WebProgress>::setListener(geode::EventListenerProtocol*)::{lambda()#1}::~{lambda()#1}()
PUBLIC 238c8 0 geode::Task<geode::utils::web::WebResponse, geode::utils::web::WebProgress>::setListener(geode::EventListenerProtocol*)::{lambda()#2}::~{lambda()#2}()
PUBLIC 23918 0 std::__ndk1::__function::__func<geode::Task<geode::utils::web::WebResponse, geode::utils::web::WebProgress>::setListener(geode::EventListenerProtocol*)::{lambda()#1}, std::__ndk1::allocator<geode::Task<geode::utils::web::WebResponse, geode::utils::web::WebProgress>::setListener(geode::EventListenerProtocol*)::{lambda()#1}>, void ()>::~__func()
PUBLIC 23974 0 std::__ndk1::__function::__func<geode::Task<geode::utils::web::WebResponse, geode::utils::web::WebProgress>::setListener(geode::EventListenerProtocol*)::{lambda()#1}, std::__ndk1::allocator<geode::Task<geode::utils::web::WebResponse, geode::utils::web::WebProgress>::setListener(geode::EventListenerProtocol*)::{lambda()#1}>, void ()>::~__func()
PUBLIC 239e0 0 std::__ndk1::__function::__func<geode::Task<geode::utils::web::WebResponse, geode::utils::web::WebProgress>::setListener(geode::EventListenerProtocol*)::{lambda()#1}, std::__ndk1::allocator<geode::Task<geode::utils::web::WebResponse, geode::utils::web::WebProgress>::setListener(geode::EventListenerProtocol*)::{lambda()#1}>, void ()>::__clone() const
PUBLIC 23a38 0 std::__ndk1::__function::__func<geode::Task<geode::utils::web::WebResponse, geode::utils::web::WebProgress>::setListener(geode::EventListenerProtocol*)::{lambda()#1}, std::__ndk1::allocator<geode::Task<geode::utils::web::WebResponse, geode::utils::web::WebProgress>::setListener(geode::EventListenerProtocol*)::{lambda()#1}>, void ()>::__clone(std::__ndk1::__function::__base<void ()>*) const
PUBLIC 23a84 0 std::__ndk1::__function::__func<geode::Task<geode::utils::web::WebResponse, geode::utils::web::WebProgress>::setListener(geode::EventListenerProtocol*)::{lambda()#1}, std::__ndk1::allocator<geode::Task<geode::utils::web::WebResponse, geode::utils::web::WebProgress>::setListener(geode::EventListenerProtocol*)::{lambda()#1}>, void ()>::destroy()
PUBLIC 23ad4 0 std::__ndk1::__function::__func<geode::Task<geode::utils::web::WebResponse, geode::utils::web::WebProgress>::setListener(geode::EventListenerProtocol*)::{lambda()#1}, std::__ndk1::allocator<geode::Task<geode::utils::web::WebResponse, geode::utils::web::WebProgress>::setListener(geode::EventListenerProtocol*)::{lambda()#1}>, void ()>::destroy_deallocate()
PUBLIC 23b34 0 std::__ndk1::__function::__func<geode::Task<geode::utils::web::WebResponse, geode::utils::web::WebProgress>::setListener(geode::EventListenerProtocol*)::{lambda()#1}, std::__ndk1::allocator<geode::Task<geode::utils::web::WebResponse, geode::utils::web::WebProgress>::setListener(geode::EventListenerProtocol*)::{lambda()#1}>, void ()>::operator()()
PUBLIC 23d04 0 std::__ndk1::__function::__func<geode::Task<geode::utils::web::WebResponse, geode::utils::web::WebProgress>::setListener(geode::EventListenerProtocol*)::{lambda()#1}, std::__ndk1::allocator<geode::Task<geode::utils::web::WebResponse, geode::utils::web::WebProgress>::setListener(geode::EventListenerProtocol*)::{lambda()#1}>, void ()>::target(std::type_info const&) const
PUBLIC 23d20 0 std::__ndk1::__function::__func<geode::Task<geode::utils::web::WebResponse, geode::utils::web::WebProgress>::setListener(geode::EventListenerProtocol*)::{lambda()#1}, std::__ndk1::allocator<geode::Task<geode::utils::web::WebResponse, geode::utils::web::WebProgress>::setListener(geode::EventListenerProtocol*)::{lambda()#1}>, void ()>::target_type() const
PUBLIC 23d2c 0 geode::Task<geode::utils::web::WebResponse, geode::utils::web::WebProgress>::Event::~Event()
PUBLIC 23d8c 0 geode::Task<geode::utils::web::WebResponse, geode::utils::web::WebProgress>::Event::~Event()
PUBLIC 23dfc 0 std::__ndk1::__function::__func<geode::Task<geode::utils::web::WebResponse, geode::utils::web::WebProgress>::setListener(geode::EventListenerProtocol*)::{lambda()#2}, std::__ndk1::allocator<geode::Task<geode::utils::web::WebResponse, geode::utils::web::WebProgress>::setListener(geode::EventListenerProtocol*)::{lambda()#2}>, void ()>::~__func()
PUBLIC 23e58 0 std::__ndk1::__function::__func<geode::Task<geode::utils::web::WebResponse, geode::utils::web::WebProgress>::setListener(geode::EventListenerProtocol*)::{lambda()#2}, std::__ndk1::allocator<geode::Task<geode::utils::web::WebResponse, geode::utils::web::WebProgress>::setListener(geode::EventListenerProtocol*)::{lambda()#2}>, void ()>::~__func()
PUBLIC 23ec4 0 std::__ndk1::__function::__func<geode::Task<geode::utils::web::WebResponse, geode::utils::web::WebProgress>::setListener(geode::EventListenerProtocol*)::{lambda()#2}, std::__ndk1::allocator<geode::Task<geode::utils::web::WebResponse, geode::utils::web::WebProgress>::setListener(geode::EventListenerProtocol*)::{lambda()#2}>, void ()>::__clone() const
PUBLIC 23f1c 0 std::__ndk1::__function::__func<geode::Task<geode::utils::web::WebResponse, geode::utils::web::WebProgress>::setListener(geode::EventListenerProtocol*)::{lambda()#2}, std::__ndk1::allocator<geode::Task<geode::utils::web::WebResponse, geode::utils::web::WebProgress>::setListener(geode::EventListenerProtocol*)::{lambda()#2}>, void ()>::__clone(std::__ndk1::__function::__base<void ()>*) const
PUBLIC 23f68 0 std::__ndk1::__function::__func<geode::Task<geode::utils::web::WebResponse, geode::utils::web::WebProgress>::setListener(geode::EventListenerProtocol*)::{lambda()#2}, std::__ndk1::allocator<geode::Task<geode::utils::web::WebResponse, geode::utils::web::WebProgress>::setListener(geode::EventListenerProtocol*)::{lambda()#2}>, void ()>::destroy()
PUBLIC 23fb8 0 std::__ndk1::__function::__func<geode::Task<geode::utils::web::WebResponse, geode::utils::web::WebProgress>::setListener(geode::EventListenerProtocol*)::{lambda()#2}, std::__ndk1::allocator<geode::Task<geode::utils::web::WebResponse, geode::utils::web::WebProgress>::setListener(geode::EventListenerProtocol*)::{lambda()#2}>, void ()>::destroy_deallocate()
PUBLIC 24018 0 std::__ndk1::__function::__func<geode::Task<geode::utils::web::WebResponse, geode::utils::web::WebProgress>::setListener(geode::EventListenerProtocol*)::{lambda()#2}, std::__ndk1::allocator<geode::Task<geode::utils::web::WebResponse, geode::utils::web::WebProgress>::setListener(geode::EventListenerProtocol*)::{lambda()#2}>, void ()>::operator()()
PUBLIC 241dc 0 std::__ndk1::__function::__func<geode::Task<geode::utils::web::WebResponse, geode::utils::web::WebProgress>::setListener(geode::EventListenerProtocol*)::{lambda()#2}, std::__ndk1::allocator<geode::Task<geode::utils::web::WebResponse, geode::utils::web::WebProgress>::setListener(geode::EventListenerProtocol*)::{lambda()#2}>, void ()>::target(std::type_info const&) const
PUBLIC 241f8 0 std::__ndk1::__function::__func<geode::Task<geode::utils::web::WebResponse, geode::utils::web::WebProgress>::setListener(geode::EventListenerProtocol*)::{lambda()#2}, std::__ndk1::allocator<geode::Task<geode::utils::web::WebResponse, geode::utils::web::WebProgress>::setListener(geode::EventListenerProtocol*)::{lambda()#2}>, void ()>::target_type() const
PUBLIC 24204 0 std::__ndk1::__function::__base<void (geode::Task<geode::utils::web::WebResponse, geode::utils::web::WebProgress>::Event*)>::~__base()
PUBLIC 24208 0 std::__ndk1::__function::__func<ListManager::init()::$_0, std::__ndk1::allocator<ListManager::init()::$_0>, void (geode::Task<geode::utils::web::WebResponse, geode::utils::web::WebProgress>::Event*)>::~__func()
PUBLIC 2420c 0 std::__ndk1::__function::__func<ListManager::init()::$_0, std::__ndk1::allocator<ListManager::init()::$_0>, void (geode::Task<geode::utils::web::WebResponse, geode::utils::web::WebProgress>::Event*)>::__clone() const
PUBLIC 24230 0 std::__ndk1::__function::__func<ListManager::init()::$_0, std::__ndk1::allocator<ListManager::init()::$_0>, void (geode::Task<geode::utils::web::WebResponse, geode::utils::web::WebProgress>::Event*)>::__clone(std::__ndk1::__function::__base<void (geode::Task<geode::utils::web::WebResponse, geode::utils::web::WebProgress>::Event*)>*) const
PUBLIC 24240 0 std::__ndk1::__function::__func<ListManager::init()::$_0, std::__ndk1::allocator<ListManager::init()::$_0>, void (geode::Task<geode::utils::web::WebResponse, geode::utils::web::WebProgress>::Event*)>::destroy()
PUBLIC 24244 0 std::__ndk1::__function::__func<ListManager::init()::$_0, std::__ndk1::allocator<ListManager::init()::$_0>, void (geode::Task<geode::utils::web::WebResponse, geode::utils::web::WebProgress>::Event*)>::destroy_deallocate()
PUBLIC 24248 0 std::__ndk1::__function::__func<ListManager::init()::$_0, std::__ndk1::allocator<ListManager::init()::$_0>, void (geode::Task<geode::utils::web::WebResponse, geode::utils::web::WebProgress>::Event*)>::operator()(geode::Task<geode::utils::web::WebResponse, geode::utils::web::WebProgress>::Event*&&)
PUBLIC 24d34 0 std::__ndk1::__function::__func<ListManager::init()::$_0, std::__ndk1::allocator<ListManager::init()::$_0>, void (geode::Task<geode::utils::web::WebResponse, geode::utils::web::WebProgress>::Event*)>::target(std::type_info const&) const
PUBLIC 24d50 0 std::__ndk1::__function::__func<ListManager::init()::$_0, std::__ndk1::allocator<ListManager::init()::$_0>, void (geode::Task<geode::utils::web::WebResponse, geode::utils::web::WebProgress>::Event*)>::target_type() const
PUBLIC 24d5c 0 geode::impl::ResultData<std::__ndk1::basic_string<char, std::__ndk1::char_traits<char>, std::__ndk1::allocator<char> >, std::__ndk1::basic_string<char, std::__ndk1::char_traits<char>, std::__ndk1::allocator<char> > >::~ResultData()
PUBLIC 24dd0 0 geode::impl::ResultData<matjson::Value, std::__ndk1::basic_string<char, std::__ndk1::char_traits<char>, std::__ndk1::allocator<char> > >::~ResultData()
PUBLIC 24e44 0 std::__ndk1::__variant_detail::__visitation::__base::__dispatcher<(unsigned long)0>::__dispatch[abi:ne180000]<std::__ndk1::__variant_detail::__dtor<std::__ndk1::__variant_detail::__traits<std::__ndk1::basic_string<char, std::__ndk1::char_traits<char>, std::__ndk1::allocator<char> >, std::__ndk1::allocator<char> >, (std::__ndk1::__variant_detail::_Trait)1>::__destroy[abi:ne180000]()::{lambda(auto:1&)#1}, std::__ndk1::__variant_detail::__base<(std::__ndk1::__variant_detail::__traits<std::__ndk1::basic_string<char, std::__ndk1::char_traits<char>, std::__ndk1::allocator<char> >, std::__ndk1::allocator<char> >)1, std::__ndk1::allocator<char>, std::__ndk1::allocator<char> >&>(std::__ndk1::__variant_detail::__dtor<std::__ndk1::__variant_detail::__traits<std::__ndk1::basic_string<char, std::__ndk1::char_traits<char>, std::__ndk1::allocator<char> >, std::__ndk1::allocator<char> >, (std::__ndk1::__variant_detail::_Trait)1>, std::__ndk1::__variant_detail::__base<(std::__ndk1::__variant_detail::__traits<std::__ndk1::basic_string<char, std::__ndk1::char_traits<char>, std::__ndk1::allocator<char> >, std::__ndk1::allocator<char> >)1, std::__ndk1::allocator<char>, std::__ndk1::allocator<char> >&)
PUBLIC 24e58 0 std::__ndk1::__variant_detail::__visitation::__base::__dispatcher<(unsigned long)1>::__dispatch[abi:ne180000]<std::__ndk1::__variant_detail::__dtor<std::__ndk1::__variant_detail::__traits<std::__ndk1::basic_string<char, std::__ndk1::char_traits<char>, std::__ndk1::allocator<char> >, std::__ndk1::allocator<char> >, (std::__ndk1::__variant_detail::_Trait)1>::__destroy[abi:ne180000]()::{lambda(auto:1&)#1}, std::__ndk1::__variant_detail::__base<(std::__ndk1::__variant_detail::__traits<std::__ndk1::basic_string<char, std::__ndk1::char_traits<char>, std::__ndk1::allocator<char> >, std::__ndk1::allocator<char> >)1, std::__ndk1::allocator<char>, std::__ndk1::allocator<char> >&>(std::__ndk1::__variant_detail::__dtor<std::__ndk1::__variant_detail::__traits<std::__ndk1::basic_string<char, std::__ndk1::char_traits<char>, std::__ndk1::allocator<char> >, std::__ndk1::allocator<char> >, (std::__ndk1::__variant_detail::_Trait)1>, std::__ndk1::__variant_detail::__base<(std::__ndk1::__variant_detail::__traits<std::__ndk1::basic_string<char, std::__ndk1::char_traits<char>, std::__ndk1::allocator<char> >, std::__ndk1::allocator<char> >)1, std::__ndk1::allocator<char>, std::__ndk1::allocator<char> >&)
PUBLIC 24e6c 0 std::__ndk1::__variant_detail::__visitation::__base::__dispatcher<(unsigned long)0>::__dispatch[abi:ne180000]<std::__ndk1::__variant_detail::__dtor<std::__ndk1::__variant_detail::__traits<matjson::Value, std::__ndk1::basic_string<char, std::__ndk1::char_traits<char>, std::__ndk1::allocator<char> > >, (std::__ndk1::__variant_detail::_Trait)1>::__destroy[abi:ne180000]()::{lambda(auto:1&)#1}, std::__ndk1::__variant_detail::__base<(std::__ndk1::__variant_detail::__traits<matjson::Value, std::__ndk1::basic_string<char, std::__ndk1::char_traits<char>, std::__ndk1::allocator<char> > >)1, matjson, std::__ndk1::allocator<char> >&>(std::__ndk1::__variant_detail::__dtor<std::__ndk1::__variant_detail::__traits<matjson::Value, std::__ndk1::basic_string<char, std::__ndk1::char_traits<char>, std::__ndk1::allocator<char> > >, (std::__ndk1::__variant_detail::_Trait)1>, std::__ndk1::__variant_detail::__base<(std::__ndk1::__variant_detail::__traits<matjson::Value, std::__ndk1::basic_string<char, std::__ndk1::char_traits<char>, std::__ndk1::allocator<char> > >)1, matjson, std::__ndk1::allocator<char> >&)
PUBLIC 24e74 0 std::__ndk1::__variant_detail::__visitation::__base::__dispatcher<(unsigned long)1>::__dispatch[abi:ne180000]<std::__ndk1::__variant_detail::__dtor<std::__ndk1::__variant_detail::__traits<matjson::Value, std::__ndk1::basic_string<char, std::__ndk1::char_traits<char>, std::__ndk1::allocator<char> > >, (std::__ndk1::__variant_detail::_Trait)1>::__destroy[abi:ne180000]()::{lambda(auto:1&)#1}, std::__ndk1::__variant_detail::__base<(std::__ndk1::__variant_detail::__traits<matjson::Value, std::__ndk1::basic_string<char, std::__ndk1::char_traits<char>, std::__ndk1::allocator<char> > >)1, matjson, std::__ndk1::allocator<char> >&>(std::__ndk1::__variant_detail::__dtor<std::__ndk1::__variant_detail::__traits<matjson::Value, std::__ndk1::basic_string<char, std::__ndk1::char_traits<char>, std::__ndk1::allocator<char> > >, (std::__ndk1::__variant_detail::_Trait)1>, std::__ndk1::__variant_detail::__base<(std::__ndk1::__variant_detail::__traits<matjson::Value, std::__ndk1::basic_string<char, std::__ndk1::char_traits<char>, std::__ndk1::allocator<char> > >)1, matjson, std::__ndk1::allocator<char> >&)
PUBLIC 24e88 0 _GLOBAL__sub_I_ListManager.cpp
PUBLIC 24fa8 0 NLWInfoPopupLayer::setup(GJGameLevel*, NLWRating*)
PUBLIC 25c64 0 NLWInfoPopupLayer::openTierLevels(cocos2d::CCObject*)
PUBLIC 25d6c 0 NLWInfoPopupLayer::onOpen(cocos2d::CCObject*)
PUBLIC 25ee4 0 NLWInfoPopupLayer::create(GJGameLevel*, NLWRating*)
PUBLIC 26060 0 cocos2d::CCCopying::copyWithZone(cocos2d::CCZone*)
PUBLIC 26068 0 geode::Popup<GJGameLevel*, NLWRating*>::~Popup()
PUBLIC 260d4 0 NLWInfoPopupLayer::~NLWInfoPopupLayer()
PUBLIC 26148 0 geode::Popup<GJGameLevel*, NLWRating*>::registerWithTouchDispatcher()
PUBLIC 26174 0 geode::Popup<GJGameLevel*, NLWRating*>::keyDown(cocos2d::enumKeyCodes)
PUBLIC 2619c 0 cocos2d::CCLayerRGBA::setOpacityModifyRGB(bool)
PUBLIC 261a0 0 cocos2d::CCLayerRGBA::isOpacityModifyRGB()
PUBLIC 261a8 0 geode::Popup<GJGameLevel*, NLWRating*>::onClose(cocos2d::CCObject*)
PUBLIC 262f0 0 {virtual override thunk({offset(-320)}, NLWInfoPopupLayer::~NLWInfoPopupLayer())}
PUBLIC 2635c 0 {virtual override thunk({offset(-320)}, NLWInfoPopupLayer::~NLWInfoPopupLayer())}
PUBLIC 263d0 0 {virtual override thunk({offset(-344)}, geode::Popup<GJGameLevel*, NLWRating*>::keyDown(cocos2d::enumKeyCodes))}
PUBLIC 263fc 0 cocos2d::CCKeyboardDelegate::keyUp(cocos2d::enumKeyCodes)
PUBLIC 26400 0 cocos2d::CCMouseDelegate::rightKeyDown()
PUBLIC 26404 0 cocos2d::CCMouseDelegate::rightKeyUp()
PUBLIC 26408 0 cocos2d::CCMouseDelegate::scrollWheel(float, float)
PUBLIC 2640c 0 {virtual override thunk({offset(-408)}, cocos2d::CCLayerRGBA::setOpacityModifyRGB(bool))}
PUBLIC 26410 0 {virtual override thunk({offset(-408)}, cocos2d::CCLayerRGBA::isOpacityModifyRGB())}
PUBLIC 26418 0 geode::Popup<GJGameLevel*, NLWRating*>::~Popup()
PUBLIC 2641c 0 {virtual override thunk({offset(-320)}, geode::Popup<GJGameLevel*, NLWRating*>::~Popup())}
PUBLIC 26488 0 {virtual override thunk({offset(-320)}, geode::Popup<GJGameLevel*, NLWRating*>::~Popup())}
PUBLIC 2648c 0 geode::Popup<GJGameLevel*, NLWRating*>::initBase(float, float, GJGameLevel*, NLWRating*, char const*, cocos2d::CCRect, bool)
PUBLIC 26790 0 geode::Popup<GJGameLevel*, NLWRating*>::CloseEvent::~CloseEvent()
PUBLIC 267f0 0 geode::Popup<GJGameLevel*, NLWRating*>::CloseEvent::~CloseEvent()
PUBLIC 26860 0 std::__ndk1::__shared_ptr_emplace<geode::Popup<GJGameLevel*, NLWRating*>::CloseEvent::Impl, std::__ndk1::allocator<geode::Popup<GJGameLevel*, NLWRating*>::CloseEvent::Impl> >::~__shared_ptr_emplace()
PUBLIC 26870 0 std::__ndk1::__shared_ptr_emplace<geode::Popup<GJGameLevel*, NLWRating*>::CloseEvent::Impl, std::__ndk1::allocator<geode::Popup<GJGameLevel*, NLWRating*>::CloseEvent::Impl> >::~__shared_ptr_emplace()
PUBLIC 268a0 0 std::__ndk1::__shared_ptr_emplace<geode::Popup<GJGameLevel*, NLWRating*>::CloseEvent::Impl, std::__ndk1::allocator<geode::Popup<GJGameLevel*, NLWRating*>::CloseEvent::Impl> >::__on_zero_shared()
PUBLIC 268a4 0 std::__ndk1::__shared_ptr_emplace<geode::Popup<GJGameLevel*, NLWRating*>::CloseEvent::Impl, std::__ndk1::allocator<geode::Popup<GJGameLevel*, NLWRating*>::CloseEvent::Impl> >::__on_zero_shared_weak()
PUBLIC 268a8 0 NLWRating::NLWRating(matjson::Value)
PUBLIC 27168 0 NLWRating::format()
PUBLIC 271d4 0 std::__ndk1::__variant_detail::__visitation::__base::__dispatcher<(unsigned long)0>::__dispatch[abi:ne180000]<std::__ndk1::__variant_detail::__dtor<std::__ndk1::__variant_detail::__traits<long, std::__ndk1::basic_string<char, std::__ndk1::char_traits<char>, std::__ndk1::allocator<char> > >, (std::__ndk1::__variant_detail::_Trait)1>::__destroy[abi:ne180000]()::{lambda(auto:1&)#1}, std::__ndk1::__variant_detail::__base<(std::__ndk1::__variant_detail::__traits<long, std::__ndk1::basic_string<char, std::__ndk1::char_traits<char>, std::__ndk1::allocator<char> > >)1, long, std::__ndk1::allocator<char> >&>(std::__ndk1::__variant_detail::__dtor<std::__ndk1::__variant_detail::__traits<long, std::__ndk1::basic_string<char, std::__ndk1::char_traits<char>, std::__ndk1::allocator<char> > >, (std::__ndk1::__variant_detail::_Trait)1>, std::__ndk1::__variant_detail::__base<(std::__ndk1::__variant_detail::__traits<long, std::__ndk1::basic_string<char, std::__ndk1::char_traits<char>, std::__ndk1::allocator<char> > >)1, long, std::__ndk1::allocator<char> >&)
PUBLIC 271d8 0 std::__ndk1::__variant_detail::__visitation::__base::__dispatcher<(unsigned long)1>::__dispatch[abi:ne180000]<std::__ndk1::__variant_detail::__dtor<std::__ndk1::__variant_detail::__traits<long, std::__ndk1::basic_string<char, std::__ndk1::char_traits<char>, std::__ndk1::allocator<char> > >, (std::__ndk1::__variant_detail::_Trait)1>::__destroy[abi:ne180000]()::{lambda(auto:1&)#1}, std::__ndk1::__variant_detail::__base<(std::__ndk1::__variant_detail::__traits<long, std::__ndk1::basic_string<char, std::__ndk1::char_traits<char>, std::__ndk1::allocator<char> > >)1, long, std::__ndk1::allocator<char> >&>(std::__ndk1::__variant_detail::__dtor<std::__ndk1::__variant_detail::__traits<long, std::__ndk1::basic_string<char, std::__ndk1::char_traits<char>, std::__ndk1::allocator<char> > >, (std::__ndk1::__variant_detail::_Trait)1>, std::__ndk1::__variant_detail::__base<(std::__ndk1::__variant_detail::__traits<long, std::__ndk1::basic_string<char, std::__ndk1::char_traits<char>, std::__ndk1::allocator<char> > >)1, long, std::__ndk1::allocator<char> >&)
PUBLIC 271ec 0 std::__ndk1::__variant_detail::__visitation::__base::__dispatcher<(unsigned long)0>::__dispatch[abi:ne180000]<std::__ndk1::__variant_detail::__dtor<std::__ndk1::__variant_detail::__traits<double, std::__ndk1::basic_string<char, std::__ndk1::char_traits<char>, std::__ndk1::allocator<char> > >, (std::__ndk1::__variant_detail::_Trait)1>::__destroy[abi:ne180000]()::{lambda(auto:1&)#1}, std::__ndk1::__variant_detail::__base<(std::__ndk1::__variant_detail::__traits<double, std::__ndk1::basic_string<char, std::__ndk1::char_traits<char>, std::__ndk1::allocator<char> > >)1, double, std::__ndk1::allocator<char> >&>(std::__ndk1::__variant_detail::__dtor<std::__ndk1::__variant_detail::__traits<double, std::__ndk1::basic_string<char, std::__ndk1::char_traits<char>, std::__ndk1::allocator<char> > >, (std::__ndk1::__variant_detail::_Trait)1>, std::__ndk1::__variant_detail::__base<(std::__ndk1::__variant_detail::__traits<double, std::__ndk1::basic_string<char, std::__ndk1::char_traits<char>, std::__ndk1::allocator<char> > >)1, double, std::__ndk1::allocator<char> >&)
PUBLIC 271f0 0 std::__ndk1::__variant_detail::__visitation::__base::__dispatcher<(unsigned long)1>::__dispatch[abi:ne180000]<std::__ndk1::__variant_detail::__dtor<std::__ndk1::__variant_detail::__traits<double, std::__ndk1::basic_string<char, std::__ndk1::char_traits<char>, std::__ndk1::allocator<char> > >, (std::__ndk1::__variant_detail::_Trait)1>::__destroy[abi:ne180000]()::{lambda(auto:1&)#1}, std::__ndk1::__variant_detail::__base<(std::__ndk1::__variant_detail::__traits<double, std::__ndk1::basic_string<char, std::__ndk1::char_traits<char>, std::__ndk1::allocator<char> > >)1, double, std::__ndk1::allocator<char> >&>(std::__ndk1::__variant_detail::__dtor<std::__ndk1::__variant_detail::__traits<double, std::__ndk1::basic_string<char, std::__ndk1::char_traits<char>, std::__ndk1::allocator<char> > >, (std::__ndk1::__variant_detail::_Trait)1>, std::__ndk1::__variant_detail::__base<(std::__ndk1::__variant_detail::__traits<double, std::__ndk1::basic_string<char, std::__ndk1::char_traits<char>, std::__ndk1::allocator<char> > >)1, double, std::__ndk1::allocator<char> >&)
PUBLIC 27204 0 std::__ndk1::function<geode::TextRenderer::Label(int)>::~function()
PUBLIC 2723c 0 PlainTextArea::init(std::__ndk1::basic_string<char, std::__ndk1::char_traits<char>, std::__ndk1::allocator<char> > const&, cocos2d::CCSize const&)
PUBLIC 27498 0 PlainTextArea::updateLabel()
PUBLIC 27610 0 PlainTextArea::~PlainTextArea()
PUBLIC 27688 0 {virtual override thunk({offset(-320)}, PlainTextArea::~PlainTextArea())}
PUBLIC 27704 0 PlainTextArea::~PlainTextArea()
PUBLIC 27784 0 {virtual override thunk({offset(-320)}, PlainTextArea::~PlainTextArea())}
PUBLIC 27808 0 PlainTextArea::setString(char const*)
PUBLIC 27830 0 {virtual override thunk({offset(-408)}, PlainTextArea::setString(char const*))}
PUBLIC 27858 0 PlainTextArea::getString()
PUBLIC 27870 0 {virtual override thunk({offset(-408)}, PlainTextArea::getString())}
PUBLIC 27888 0 std::__ndk1::basic_string<char, std::__ndk1::char_traits<char>, std::__ndk1::allocator<char> >::__assign_external(char const*, unsigned long)
PUBLIC 279b0 0 std::__ndk1::basic_string<char, std::__ndk1::char_traits<char>, std::__ndk1::allocator<char> >::__assign_external(char const*)
PUBLIC 279e4 0 std::__ndk1::__function::__base<geode::TextRenderer::Label(int)>::~__base()
PUBLIC 279e8 0 std::__ndk1::__function::__func<$_0, std::__ndk1::allocator<$_0>, geode::TextRenderer::Label(int)>::~__func()
PUBLIC 279ec 0 std::__ndk1::__function::__func<$_0, std::__ndk1::allocator<$_0>, geode::TextRenderer::Label(int)>::__clone() const
PUBLIC 27a10 0 std::__ndk1::__function::__func<$_0, std::__ndk1::allocator<$_0>, geode::TextRenderer::Label(int)>::__clone(std::__ndk1::__function::__base<geode::TextRenderer::Label(int)>*) const
PUBLIC 27a20 0 std::__ndk1::__function::__func<$_0, std::__ndk1::allocator<$_0>, geode::TextRenderer::Label(int)>::destroy()
PUBLIC 27a24 0 std::__ndk1::__function::__func<$_0, std::__ndk1::allocator<$_0>, geode::TextRenderer::Label(int)>::destroy_deallocate()
PUBLIC 27a28 0 std::__ndk1::__function::__func<$_0, std::__ndk1::allocator<$_0>, geode::TextRenderer::Label(int)>::operator()(int&&)
PUBLIC 27a98 0 std::__ndk1::__function::__func<$_0, std::__ndk1::allocator<$_0>, geode::TextRenderer::Label(int)>::target(std::type_info const&) const
PUBLIC 27ab4 0 std::__ndk1::__function::__func<$_0, std::__ndk1::allocator<$_0>, geode::TextRenderer::Label(int)>::target_type() const
PUBLIC 27ac0 0 _GLOBAL__sub_I_PlainTextArea.cpp
PUBLIC 27aec 0 __cxx_global_var_init
PUBLIC 27f28 0 geode::modifier::ModifyBase<geode::modifier::ModifyDerive<hook7<(anonymous namespace)::hook7Parent>, MenuLayer> >::~ModifyBase()
PUBLIC 27f44 0 geode::modifier::ModifyDerive<hook7<(anonymous namespace)::hook7Parent>, MenuLayer>::apply()
PUBLIC 2824c 0 geode::modifier::ModifyBase<geode::modifier::ModifyDerive<hook7<(anonymous namespace)::hook7Parent>, MenuLayer> >::apply()
PUBLIC 28250 0 geode::modifier::AsStaticFunction_init<hook7<(anonymous namespace)::hook7Parent>, bool (hook7<(anonymous namespace)::hook7Parent>::*)()>::Impl<bool (hook7<(anonymous namespace)::hook7Parent>::*)()>::function(hook7<(anonymous namespace)::hook7Parent>*)
PUBLIC 2827c 0 geode::addresser::Addresser::addressOfVirtual<bool, MenuLayer, >(bool (MenuLayer::*)())
PUBLIC 28324 0 MenuLayer::MenuLayer(geode::ZeroConstructorType)
PUBLIC m 283c0 0 geodeImplicitEntry
PUBLIC 283fc 0 cocos2d::CCDestructor::~CCDestructor()
PUBLIC 286b8 0 wrapFunction(unsigned long, tulip::hook::WrapperMetadata const&)
PUBLIC 287ec 0 geode::impl::ResultData<void*, std::__ndk1::basic_string<char, std::__ndk1::char_traits<char>, std::__ndk1::allocator<char> > >::unwrapErr() &
PUBLIC 28864 0 geode::impl::ResultData<void*, std::__ndk1::basic_string<char, std::__ndk1::char_traits<char>, std::__ndk1::allocator<char> > >::~ResultData()
PUBLIC 288d8 0 tulip::hook::WrapperMetadata::~WrapperMetadata()
PUBLIC 2893c 0 cocos2d::CCObject::CCObject()
PUBLIC 28aa8 0 cocos2d::CCNode::CCNode()
PUBLIC 28c3c 0 cocos2d::CCNode::~CCNode()
PUBLIC 28c60 0 cocos2d::CCLayer::CCLayer()
PUBLIC 28df8 0 {virtual override thunk({offset(-320)}, cocos2d::CCLayer::~CCLayer())}
PUBLIC 28e00 0 cocos2d::CCLayer::~CCLayer()
PUBLIC 28e24 0 {virtual override thunk({offset(-320)}, cocos2d::CCLayer::~CCLayer())}
PUBLIC 28e4c 0 cocos2d::CCObject::~CCObject()
PUBLIC 28e70 0 cocos2d::CCLayerColor::CCLayerColor()
PUBLIC 29144 0 cocos2d::CCLayerRGBA::~CCLayerRGBA()
PUBLIC 29398 0 {virtual override thunk({offset(-320)}, cocos2d::CCLayerColor::~CCLayerColor())}
PUBLIC 293a0 0 cocos2d::CCLayerColor::~CCLayerColor()
PUBLIC 293c4 0 {virtual override thunk({offset(-320)}, cocos2d::CCLayerColor::~CCLayerColor())}
PUBLIC 293ec 0 {virtual override thunk({offset(-320)}, cocos2d::CCLayerRGBA::~CCLayerRGBA())}
PUBLIC 293f4 0 cocos2d::CCLayerRGBA::~CCLayerRGBA()
PUBLIC 29418 0 {virtual override thunk({offset(-320)}, cocos2d::CCLayerRGBA::~CCLayerRGBA())}
PUBLIC 29440 0 FLAlertLayerProtocol::FLAlert_Clicked(FLAlertLayer*, bool)
PUBLIC 29444 0 {virtual override thunk({offset(-320)}, FLAlertLayer::~FLAlertLayer())}
PUBLIC 2944c 0 FLAlertLayer::~FLAlertLayer()
PUBLIC 29470 0 {virtual override thunk({offset(-320)}, FLAlertLayer::~FLAlertLayer())}
PUBLIC 29498 0 FLAlertLayer::create(FLAlertLayerProtocol*, char const*, gd::string, char const*, char const*, float)
PUBLIC 29650 0 tulip::hook::AbstractFunction::from<FLAlertLayer*, FLAlertLayerProtocol*, char const*, gd::string, char const*, char const*, float>(FLAlertLayer* (*)(FLAlertLayerProtocol*, char const*, gd::string, char const*, char const*, float))
PUBLIC 29b34 0 GJSearchObject::create(SearchType, gd::string)
PUBLIC 29cb4 0 tulip::hook::AbstractFunction::from<GJSearchObject*, SearchType, gd::string>(GJSearchObject* (*)(SearchType, gd::string))
PUBLIC 29d58 0 cocos2d::CCObject::update(float)
PUBLIC 29d5c 0 cocos2d::CCLayer::~CCLayer()
PUBLIC 29fa8 0 cocos2d::CCLayerColor::~CCLayerColor()
PUBLIC 2a204 0 FLAlertLayer::~FLAlertLayer()
PUBLIC 2a4c0 0 cocos2d::CCNode::~CCNode()
PUBLIC 2a6ec 0 cocos2d::CCObject::~CCObject()
PUBLIC 2a918 0 _ZN5geode15UnwrapExceptionC2IRPvQsr4implE18IsStringStreamableIT_EEENS_4impl5OkTagEOS4_
PUBLIC 2aa6c 0 std::__ndk1::__variant_detail::__visitation::__base::__dispatcher<(unsigned long)0>::__dispatch[abi:ne180000]<std::__ndk1::__variant_detail::__dtor<std::__ndk1::__variant_detail::__traits<void*, std::__ndk1::basic_string<char, std::__ndk1::char_traits<char>, std::__ndk1::allocator<char> > >, (std::__ndk1::__variant_detail::_Trait)1>::__destroy[abi:ne180000]()::{lambda(auto:1&)#1}, std::__ndk1::__variant_detail::__base<(std::__ndk1::__variant_detail::__traits<void*, std::__ndk1::basic_string<char, std::__ndk1::char_traits<char>, std::__ndk1::allocator<char> > >)1, std::__ndk1::__variant_detail::__traits, std::__ndk1::allocator<char> >&>(std::__ndk1::__variant_detail::__dtor<std::__ndk1::__variant_detail::__traits<void*, std::__ndk1::basic_string<char, std::__ndk1::char_traits<char>, std::__ndk1::allocator<char> > >, (std::__ndk1::__variant_detail::_Trait)1>, std::__ndk1::__variant_detail::__base<(std::__ndk1::__variant_detail::__traits<void*, std::__ndk1::basic_string<char, std::__ndk1::char_traits<char>, std::__ndk1::allocator<char> > >)1, std::__ndk1::__variant_detail::__traits, std::__ndk1::allocator<char> >&)
PUBLIC 2aa70 0 std::__ndk1::__variant_detail::__visitation::__base::__dispatcher<(unsigned long)1>::__dispatch[abi:ne180000]<std::__ndk1::__variant_detail::__dtor<std::__ndk1::__variant_detail::__traits<void*, std::__ndk1::basic_string<char, std::__ndk1::char_traits<char>, std::__ndk1::allocator<char> > >, (std::__ndk1::__variant_detail::_Trait)1>::__destroy[abi:ne180000]()::{lambda(auto:1&)#1}, std::__ndk1::__variant_detail::__base<(std::__ndk1::__variant_detail::__traits<void*, std::__ndk1::basic_string<char, std::__ndk1::char_traits<char>, std::__ndk1::allocator<char> > >)1, std::__ndk1::__variant_detail::__traits, std::__ndk1::allocator<char> >&>(std::__ndk1::__variant_detail::__dtor<std::__ndk1::__variant_detail::__traits<void*, std::__ndk1::basic_string<char, std::__ndk1::char_traits<char>, std::__ndk1::allocator<char> > >, (std::__ndk1::__variant_detail::_Trait)1>, std::__ndk1::__variant_detail::__base<(std::__ndk1::__variant_detail::__traits<void*, std::__ndk1::basic_string<char, std::__ndk1::char_traits<char>, std::__ndk1::allocator<char> > >)1, std::__ndk1::__variant_detail::__traits, std::__ndk1::allocator<char> >&)
PUBLIC 2aa84 0 std::__ndk1::__hash_table<std::__ndk1::__hash_value_type<void*, bool>, std::__ndk1::__unordered_map_hasher<void*, std::__ndk1::__hash_value_type<void*, bool>, std::__ndk1::hash<void*>, std::__ndk1::equal_to<void*>, true>, std::__ndk1::__unordered_map_equal<void*, std::__ndk1::__hash_value_type<void*, bool>, std::__ndk1::equal_to<void*>, std::__ndk1::hash<void*>, true>, std::__ndk1::allocator<std::__ndk1::__hash_value_type<void*, bool> > >::__emplace_unique_key_args<void*, std::__ndk1::piecewise_construct_t const&, std::__ndk1::tuple<void* const&>, std::__ndk1::tuple<> >(void* const&, std::__ndk1::piecewise_construct_t const&, std::__ndk1::tuple<void* const&>, std::__ndk1::tuple<>)
PUBLIC 2af64 0 __udivti3
PUBLIC 2af70 0 __udivmodti4
PUBLIC m 2b1bc 0 __eqtf2
PUBLIC 2b25c 0 __unordtf2
PUBLIC 2b294 0 fmt::v11::detail::write_loc(fmt::v11::basic_appender<char>, fmt::v11::loc_value, fmt::v11::format_specs const&, fmt::v11::detail::locale_ref)
PUBLIC 2b528 0 fmt::v11::format_facet<std::__ndk1::locale>::~format_facet()
PUBLIC 2b5a4 0 fmt::v11::report_error(char const*)
PUBLIC 2b5f4 0 fmt::v11::format_error::runtime_error(char const*)
PUBLIC 2b620 0 fmt::v11::format_facet<std::__ndk1::locale>::do_put(fmt::v11::basic_appender<char>, fmt::v11::loc_value, fmt::v11::format_specs const&) const
PUBLIC 2bde0 0 fmt::v11::detail::loc_writer<char>::~loc_writer()
PUBLIC 2be44 0 fmt::v11::detail::vformat_to<char>(fmt::v11::detail::buffer<char>&, fmt::v11::basic_string_view<char>, fmt::v11::detail::vformat_args<char>::type, fmt::v11::detail::locale_ref)
PUBLIC 2c3b4 0 fmt::v11::detail::is_printable(unsigned int)
PUBLIC 2c5dc 0 fmt::v11::detail::dragonbox::to_decimal<float>(float)
PUBLIC 2c8b8 0 fmt::v11::detail::dragonbox::to_decimal<double>(double)
PUBLIC 2cdf4 0 fmt::v11::basic_memory_buffer<char, (unsigned long)500, std::__ndk1::allocator<char> >::grow(fmt::v11::detail::buffer<char>&, unsigned long)
PUBLIC 2ce6c 0 fmt::v11::format_facet<std::__ndk1::locale>::~format_facet()
PUBLIC 2cef8 0 fmt::v11::format_error::~format_error()
PUBLIC 2cf1c 0 fmt::v11::detail::copy_noinline<char, char const*, fmt::v11::basic_appender<char> >(char const*, char const*, fmt::v11::basic_appender<char>)
PUBLIC 2d06c 0 fmt::v11::detail::default_arg_formatter<char>::operator()<bool>(bool)
PUBLIC 2d0d4 0 fmt::v11::detail::default_arg_formatter<char>::operator()<char>(char)
PUBLIC 2d164 0 fmt::v11::detail::default_arg_formatter<char>::operator()<float>(float)
PUBLIC 2d250 0 fmt::v11::detail::default_arg_formatter<char>::operator()<double>(double)
PUBLIC 2d33c 0 fmt::v11::detail::default_arg_formatter<char>::operator()<char const*>(char const*)
PUBLIC 2d384 0 fmt::v11::detail::default_arg_formatter<char>::operator()<void const*>(void const*)
PUBLIC 2d41c 0 _ZN3fmt3v116detail5writeIcNS0_14basic_appenderIcEEiTnNSt6__ndk19enable_ifIXaaaasr11is_integralIT1_EE5valuentsr3std7is_sameIS7_bEE5valuentsr3std7is_sameIS7_T_EE5valueEiE4typeELi0EEET0_SB_S7_
PUBLIC 2d67c 0 fmt::v11::detail::copy_noinline<char, char*, fmt::v11::basic_appender<char> >(char*, char*, fmt::v11::basic_appender<char>)
PUBLIC 2d7cc 0 _ZN3fmt3v116detail5writeIcNS0_14basic_appenderIcEEjTnNSt6__ndk19enable_ifIXaaaasr11is_integralIT1_EE5valuentsr3std7is_sameIS7_bEE5valuentsr3std7is_sameIS7_T_EE5valueEiE4typeELi0EEET0_SB_S7_
PUBLIC 2d9ac 0 _ZN3fmt3v116detail5writeIcNS0_14basic_appenderIcEExTnNSt6__ndk19enable_ifIXaaaasr11is_integralIT1_EE5valuentsr3std7is_sameIS7_bEE5valuentsr3std7is_sameIS7_T_EE5valueEiE4typeELi0EEET0_SB_S7_
PUBLIC 2dc30 0 _ZN3fmt3v116detail5writeIcNS0_14basic_appenderIcEEyTnNSt6__ndk19enable_ifIXaaaasr11is_integralIT1_EE5valuentsr3std7is_sameIS7_bEE5valuentsr3std7is_sameIS7_T_EE5valueEiE4typeELi0EEET0_SB_S7_
PUBLIC 2de38 0 _ZN3fmt3v116detail5writeIcNS0_14basic_appenderIcEEnTnNSt6__ndk19enable_ifIXaaaasr11is_integralIT1_EE5valuentsr3std7is_sameIS7_bEE5valuentsr3std7is_sameIS7_T_EE5valueEiE4typeELi0EEET0_SB_S7_
PUBLIC 2e198 0 _ZN3fmt3v116detail5writeIcNS0_14basic_appenderIcEEoTnNSt6__ndk19enable_ifIXaaaasr11is_integralIT1_EE5valuentsr3std7is_sameIS7_bEE5valuentsr3std7is_sameIS7_T_EE5valueEiE4typeELi0EEET0_SB_S7_
PUBLIC 2e4ac 0 _ZN3fmt3v116detail5writeIcNS0_14basic_appenderIcEEbTnNSt6__ndk19enable_ifIXsr3std7is_sameIT1_bEE5valueEiE4typeELi0EEET0_SA_S7_RKNS0_12format_specsENS1_10locale_refE
PUBLIC 2e760 0 fmt::v11::detail::write_int_noinline<char, fmt::v11::basic_appender<char>, unsigned int>(fmt::v11::basic_appender<char>, fmt::v11::detail::write_int_arg<unsigned int>, fmt::v11::format_specs const&, fmt::v11::detail::locale_ref)
PUBLIC 2f540 0 fmt::v11::detail::write_padded<char, (fmt::v11::align::type)1, fmt::v11::basic_appender<char>, fmt::v11::detail::write_char<char, fmt::v11::basic_appender<char> >(fmt::v11::basic_appender<char>, char, fmt::v11::format_specs const&)::{lambda(fmt::v11::basic_appender<char>&)#1}>(fmt::v11::basic_appender<char>, fmt::v11::format_specs const&, unsigned long, unsigned long, fmt::v11::detail::write_char<char, fmt::v11::basic_appender<char> >(fmt::v11::basic_appender<char>, char, fmt::v11::format_specs const&)::{lambda(fmt::v11::basic_appender<char>&)#1})
PUBLIC 2f7a4 0 fmt::v11::detail::write_padded<char, (fmt::v11::align::type)1, fmt::v11::basic_appender<char>, fmt::v11::detail::write_nonfinite<char, fmt::v11::basic_appender<char> >(fmt::v11::basic_appender<char>, bool, fmt::v11::format_specs, fmt::v11::sign::type)::{lambda(fmt::v11::basic_appender<char>&)#1}>(fmt::v11::basic_appender<char>, fmt::v11::format_specs const&, unsigned long, unsigned long, fmt::v11::detail::write_nonfinite<char, fmt::v11::basic_appender<char> >(fmt::v11::basic_appender<char>, bool, fmt::v11::format_specs, fmt::v11::sign::type)::{lambda(fmt::v11::basic_appender<char>&)#1})
PUBLIC 2f9fc 0 fmt::v11::detail::do_write_float<char, fmt::v11::basic_appender<char>, fmt::v11::detail::dragonbox::decimal_fp<float>, fmt::v11::detail::digit_grouping<char> >(fmt::v11::basic_appender<char>, fmt::v11::detail::dragonbox::decimal_fp<float> const&, fmt::v11::format_specs const&, fmt::v11::detail::float_specs, fmt::v11::detail::locale_ref)
PUBLIC 30680 0 fmt::v11::detail::do_write_float<char, fmt::v11::basic_appender<char>, fmt::v11::detail::dragonbox::decimal_fp<float>, fmt::v11::detail::digit_grouping<char> >(fmt::v11::basic_appender<char>, fmt::v11::detail::dragonbox::decimal_fp<float> const&, fmt::v11::format_specs const&, fmt::v11::detail::float_specs, fmt::v11::detail::locale_ref)::{lambda(fmt::v11::basic_appender<char>(fmt::v11::basic_appender<char>))#1}::operator() const
PUBLIC 307d4 0 fmt::v11::detail::digit_grouping<char>::digit_grouping(fmt::v11::detail::locale_ref, bool)
PUBLIC 30a40 0 fmt::v11::detail::digit_grouping<char>::~digit_grouping()
PUBLIC 30a84 0 fmt::v11::detail::write_exponent<char, fmt::v11::basic_appender<char> >(int, fmt::v11::basic_appender<char>)
PUBLIC 30c54 0 _ZN3fmt3v116detail17write_significandIcjTnNSt6__ndk19enable_ifIXsr3std11is_integralIT0_EE5valueEiE4typeELi0EEEPT_S9_S5_iiS8_
PUBLIC 30dd0 0 fmt::v11::detail::digit_grouping<char>::apply<fmt::v11::basic_appender<char>, char>(fmt::v11::basic_appender<char>, fmt::v11::basic_string_view<char>) const
PUBLIC 31188 0 fmt::v11::basic_memory_buffer<int, (unsigned long)500, std::__ndk1::allocator<int> >::grow(fmt::v11::detail::buffer<int>&, unsigned long)
PUBLIC 31228 0 fmt::v11::detail::do_write_float<char, fmt::v11::basic_appender<char>, fmt::v11::detail::dragonbox::decimal_fp<double>, fmt::v11::detail::digit_grouping<char> >(fmt::v11::basic_appender<char>, fmt::v11::detail::dragonbox::decimal_fp<double> const&, fmt::v11::format_specs const&, fmt::v11::detail::float_specs, fmt::v11::detail::locale_ref)
PUBLIC 31ee8 0 fmt::v11::detail::do_write_float<char, fmt::v11::basic_appender<char>, fmt::v11::detail::dragonbox::decimal_fp<double>, fmt::v11::detail::digit_grouping<char> >(fmt::v11::basic_appender<char>, fmt::v11::detail::dragonbox::decimal_fp<double> const&, fmt::v11::format_specs const&, fmt::v11::detail::float_specs, fmt::v11::detail::locale_ref)::{lambda(fmt::v11::basic_appender<char>(fmt::v11::basic_appender<char>))#1}::operator() const
PUBLIC 32040 0 _ZN3fmt3v116detail17write_significandIcmTnNSt6__ndk19enable_ifIXsr3std11is_integralIT0_EE5valueEiE4typeELi0EEEPT_S9_S5_iiS8_
PUBLIC 321d0 0 fmt::v11::detail::write_float<char, fmt::v11::basic_appender<char>, long double>(fmt::v11::basic_appender<char>, long double, fmt::v11::format_specs, fmt::v11::detail::locale_ref)
PUBLIC 32cc8 0 fmt::v11::detail::write_padded<char, (fmt::v11::align::type)2, fmt::v11::basic_appender<char>, fmt::v11::detail::write_bytes<char, (fmt::v11::align::type)2, fmt::v11::basic_appender<char> >(fmt::v11::basic_appender<char>, fmt::v11::basic_string_view<char>, fmt::v11::format_specs const&)::{lambda(fmt::v11::basic_appender<char>&)#1}>(fmt::v11::basic_appender<char>, fmt::v11::format_specs const&, unsigned long, unsigned long, fmt::v11::detail::write_bytes<char, (fmt::v11::align::type)2, fmt::v11::basic_appender<char> >(fmt::v11::basic_appender<char>, fmt::v11::basic_string_view<char>, fmt::v11::format_specs const&)::{lambda(fmt::v11::basic_appender<char>&)#1})
PUBLIC 32ebc 0 fmt::v11::detail::format_dragon(fmt::v11::detail::basic_fp<unsigned __int128>, unsigned int, int, fmt::v11::detail::buffer<char>&, int&)
PUBLIC 342ec 0 fmt::v11::detail::bigint::operator<<=(int)
PUBLIC 34410 0 fmt::v11::detail::bigint::assign_pow10(int)
PUBLIC 34b6c 0 fmt::v11::detail::bigint::divmod_assign(fmt::v11::detail::bigint const&)
PUBLIC 34e8c 0 fmt::v11::basic_memory_buffer<unsigned int, (unsigned long)32, std::__ndk1::allocator<unsigned int> >::grow(fmt::v11::detail::buffer<unsigned int>&, unsigned long)
PUBLIC 34f2c 0 fmt::v11::detail::do_write_float<char, fmt::v11::basic_appender<char>, fmt::v11::detail::big_decimal_fp, fmt::v11::detail::digit_grouping<char> >(fmt::v11::basic_appender<char>, fmt::v11::detail::big_decimal_fp const&, fmt::v11::format_specs const&, fmt::v11::detail::float_specs, fmt::v11::detail::locale_ref)
PUBLIC 35e0c 0 fmt::v11::detail::do_write_float<char, fmt::v11::basic_appender<char>, fmt::v11::detail::big_decimal_fp, fmt::v11::detail::digit_grouping<char> >(fmt::v11::basic_appender<char>, fmt::v11::detail::big_decimal_fp const&, fmt::v11::format_specs const&, fmt::v11::detail::float_specs, fmt::v11::detail::locale_ref)::{lambda(fmt::v11::basic_appender<char>(fmt::v11::basic_appender<char>))#1}::operator() const
PUBLIC 35f6c 0 fmt::v11::detail::write_padded<char, (fmt::v11::align::type)2, fmt::v11::basic_appender<char>, fmt::v11::detail::write_ptr<char, fmt::v11::basic_appender<char>, unsigned long>(fmt::v11::basic_appender<char>, unsigned long, fmt::v11::format_specs const*)::{lambda(fmt::v11::basic_appender<char>&)#1}>(fmt::v11::basic_appender<char>, fmt::v11::format_specs const&, unsigned long, unsigned long, fmt::v11::detail::write_ptr<char, fmt::v11::basic_appender<char>, unsigned long>(fmt::v11::basic_appender<char>, unsigned long, fmt::v11::format_specs const*)::{lambda(fmt::v11::basic_appender<char>&)#1})
PUBLIC 36180 0 fmt::v11::detail::parse_replacement_field<char, fmt::v11::detail::vformat_to<char>(fmt::v11::detail::buffer<char>&, fmt::v11::basic_string_view<char>, fmt::v11::detail::vformat_args<char>::type, fmt::v11::detail::locale_ref)::format_handler&>(char const*, char const*, fmt::v11::detail::vformat_to<char>(fmt::v11::detail::buffer<char>&, fmt::v11::basic_string_view<char>, fmt::v11::detail::vformat_args<char>::type, fmt::v11::detail::locale_ref)::format_handler&)
PUBLIC 37634 0 fmt::v11::detail::write_int_noinline<char, fmt::v11::basic_appender<char>, unsigned long>(fmt::v11::basic_appender<char>, fmt::v11::detail::write_int_arg<unsigned long>, fmt::v11::format_specs const&, fmt::v11::detail::locale_ref)
PUBLIC 38494 0 fmt::v11::detail::write_int_noinline<char, fmt::v11::basic_appender<char>, unsigned __int128>(fmt::v11::basic_appender<char>, fmt::v11::detail::write_int_arg<unsigned __int128>, fmt::v11::format_specs const&, fmt::v11::detail::locale_ref)
PUBLIC 39524 0 _ZN3fmt3v116detail15format_hexfloatIdTnNSt6__ndk19enable_ifIXntsr16is_double_doubleIT_EE5valueEiE4typeELi0EEEvS5_NS0_12format_specsERNS1_6bufferIcEE
PUBLIC 39a44 0 fmt::v11::detail::format_float<double>(double, int, fmt::v11::detail::float_specs, fmt::v11::detail::buffer<char>&)
PUBLIC 3a3e4 0 fmt::v11::detail::write_int<fmt::v11::basic_appender<char>, unsigned long, char>(fmt::v11::basic_appender<char>, unsigned long, unsigned int, fmt::v11::format_specs const&, fmt::v11::detail::digit_grouping<char> const&)
PUBLIC 3a960 0 fmt::v11::detail::write_int<fmt::v11::basic_appender<char>, unsigned __int128, char>(fmt::v11::basic_appender<char>, unsigned __int128, unsigned int, fmt::v11::format_specs const&, fmt::v11::detail::digit_grouping<char> const&)
PUBLIC 3afe0 0 <.plt ELF section in oatmealine.nlw_integration.android64.so>
STACK CFI INIT 1a560 10 .cfa: sp 0 +
STACK CFI INIT 1a570 8 .cfa: sp 0 +
STACK CFI INIT 1a578 8 .cfa: sp 0 +
STACK CFI INIT 1a580 14 .cfa: sp 0 +
STACK CFI INIT 1a594 1c .cfa: sp 0 +
STACK CFI INIT 1a5b0 10 .cfa: sp 0 +
STACK CFI INIT 1a5c0 30 .cfa: sp 0 +
STACK CFI INIT 1a5f0 98 .cfa: sp 0 +
STACK CFI INIT 1a688 59c .cfa: sp 0 +
STACK CFI INIT 1ac24 8c .cfa: sp 0 +
STACK CFI INIT 1acb0 30 .cfa: sp 0 +
STACK CFI INIT 1b160 1c .cfa: sp 0 +
STACK CFI INIT 1b7c4 50 .cfa: sp 0 +
STACK CFI 1b7c8 .cfa: sp 32 +
STACK CFI 1b7d0 .cfa: x29 32 + x19: .cfa -16 + ^ .ra: .cfa -24 + ^ x29: .cfa -32 + ^
STACK CFI 1b7e8 .cfa: sp 32 +
STACK CFI 1b7f0 .cfa: sp 0 +
STACK CFI 1b7f4 .cfa: x29 32 +
STACK CFI 1b808 .cfa: sp 32 +
STACK CFI 1b810 .cfa: sp 0 +
STACK CFI INIT 1b888 7c .cfa: sp 0 +
STACK CFI 1b88c .cfa: sp 48 +
STACK CFI 1b898 .cfa: x29 48 + x19: .cfa -8 + ^ x20: .cfa -16 + ^ x21: .cfa -32 + ^ .ra: .cfa -40 + ^ x29: .cfa -48 + ^
STACK CFI 1b8e4 .cfa: sp 48 +
STACK CFI 1b8f0 .cfa: sp 0 +
STACK CFI 1b8f4 .cfa: sp 48 +
STACK CFI 1b900 .cfa: sp 0 +
STACK CFI INIT 1b904 4 .cfa: sp 0 +
STACK CFI INIT 1b908 10 .cfa: sp 0 +
STACK CFI 1b90c .cfa: sp 16 +
STACK CFI 1b910 .cfa: x29 16 + .ra: .cfa -8 + ^ x29: .cfa -16 + ^
STACK CFI INIT 1ba6c 34 .cfa: sp 0 +
STACK CFI 1ba70 .cfa: sp 16 +
STACK CFI 1ba74 .cfa: x29 16 + .ra: .cfa -8 + ^ x29: .cfa -16 + ^
STACK CFI INIT 1bbcc 80 .cfa: sp 0 +
STACK CFI 1bbd0 .cfa: sp 48 +
STACK CFI 1bbdc .cfa: x29 48 + x19: .cfa -8 + ^ x20: .cfa -16 + ^ x21: .cfa -32 + ^ .ra: .cfa -40 + ^ x29: .cfa -48 + ^
STACK CFI 1bc3c .cfa: sp 48 +
STACK CFI 1bc48 .cfa: sp 0 +
STACK CFI INIT 1bc4c 24 .cfa: sp 0 +
STACK CFI 1bc50 .cfa: sp 32 +
STACK CFI 1bc58 .cfa: x29 32 + x19: .cfa -16 + ^ .ra: .cfa -24 + ^ x29: .cfa -32 + ^
STACK CFI 1bc64 .cfa: sp 32 +
STACK CFI 1bc6c .cfa: sp 0 +
STACK CFI INIT 1bff0 14 .cfa: sp 0 +
STACK CFI 1bff4 .cfa: sp 16 +
STACK CFI 1bff8 .cfa: x29 16 + .ra: .cfa -8 + ^ x29: .cfa -16 + ^
STACK CFI INIT 1c054 30 .cfa: sp 0 +
STACK CFI 1c058 .cfa: sp 32 +
STACK CFI 1c060 .cfa: x29 32 + x19: .cfa -16 + ^ .ra: .cfa -24 + ^ x29: .cfa -32 + ^
STACK CFI 1c078 .cfa: sp 32 +
STACK CFI 1c080 .cfa: sp 0 +
STACK CFI INIT 1c084 34 .cfa: sp 0 +
STACK CFI 1c088 .cfa: sp 32 +
STACK CFI 1c090 .cfa: x29 32 + x19: .cfa -16 + ^ .ra: .cfa -24 + ^ x29: .cfa -32 + ^
STACK CFI INIT 1c230 148 .cfa: sp 0 +
STACK CFI 1c234 .cfa: sp 48 +
STACK CFI 1c240 .cfa: x29 48 + x19: .cfa -8 + ^ x20: .cfa -16 + ^ x21: .cfa -32 + ^ .ra: .cfa -40 + ^ x29: .cfa -48 + ^
STACK CFI 1c368 .cfa: sp 48 +
STACK CFI 1c374 .cfa: sp 0 +
STACK CFI INIT 1c5a0 80 .cfa: sp 0 +
STACK CFI 1c5a4 .cfa: sp 48 +
STACK CFI 1c5b0 .cfa: x29 48 + x19: .cfa -8 + ^ x20: .cfa -16 + ^ x21: .cfa -24 + ^ x22: .cfa -32 + ^ .ra: .cfa -40 + ^ x29: .cfa -48 + ^
STACK CFI 1c5c8 .cfa: sp 48 +
STACK CFI 1c5d4 .cfa: sp 0 +
STACK CFI 1c5d8 .cfa: x29 48 +
STACK CFI 1c608 .cfa: sp 48 +
STACK CFI 1c614 .cfa: sp 0 +
STACK CFI 1c618 .cfa: x29 48 +
STACK CFI INIT 1c620 68 .cfa: sp 0 +
STACK CFI 1c624 .cfa: sp 32 +
STACK CFI 1c62c .cfa: x29 32 + x19: .cfa -8 + ^ x20: .cfa -16 + ^ .ra: .cfa -24 + ^ x29: .cfa -32 + ^
STACK CFI 1c644 .cfa: sp 32 +
STACK CFI 1c64c .cfa: sp 0 +
STACK CFI 1c650 .cfa: x29 32 +
STACK CFI 1c67c .cfa: sp 32 +
STACK CFI 1c684 .cfa: sp 0 +
STACK CFI INIT 1c688 14 .cfa: sp 0 +
STACK CFI 1c68c .cfa: sp 16 +
STACK CFI 1c690 .cfa: x29 16 + .ra: .cfa -8 + ^ x29: .cfa -16 + ^
STACK CFI INIT 1c69c 4 .cfa: sp 0 +
STACK CFI INIT 1c6a0 14 .cfa: sp 0 +
STACK CFI INIT 1c6b4 120 .cfa: sp 0 +
STACK CFI 1c6b8 .cfa: sp 64 +
STACK CFI 1c6c8 .cfa: x29 64 + x19: .cfa -8 + ^ x20: .cfa -16 + ^ x21: .cfa -24 + ^ x22: .cfa -32 + ^ x23: .cfa -40 + ^ x24: .cfa -48 + ^ .ra: .cfa -56 + ^ x29: .cfa -64 + ^
STACK CFI 1c7c0 .cfa: sp 64 +
STACK CFI 1c7d0 .cfa: sp 0 +
STACK CFI INIT 1c7d4 d4 .cfa: sp 0 +
STACK CFI 1c7d8 .cfa: sp 48 +
STACK CFI 1c7e4 .cfa: x29 48 + x19: .cfa -8 + ^ x20: .cfa -16 + ^ x21: .cfa -32 + ^ .ra: .cfa -40 + ^ x29: .cfa -48 + ^
STACK CFI 1c874 .cfa: sp 48 +
STACK CFI 1c880 .cfa: sp 0 +
STACK CFI 1c884 .cfa: x29 48 +
STACK CFI INIT 1c8a8 3c8 .cfa: sp 0 +
STACK CFI INIT 1cc70 8c .cfa: sp 0 +
STACK CFI 1cc78 .cfa: sp 32 +
STACK CFI 1cc80 .cfa: x29 32 + x19: .cfa -8 + ^ x20: .cfa -16 + ^ .ra: .cfa -24 + ^ x29: .cfa -32 + ^
STACK CFI 1ccc8 .cfa: sp 32 +
STACK CFI 1ccd0 .cfa: sp 0 +
STACK CFI 1ccd8 .cfa: x29 32 +
STACK CFI INIT 1ce00 24 .cfa: sp 0 +
STACK CFI 1ce04 .cfa: sp 32 +
STACK CFI 1ce0c .cfa: x29 32 + x19: .cfa -16 + ^ .ra: .cfa -24 + ^ x29: .cfa -32 + ^
STACK CFI 1ce18 .cfa: sp 32 +
STACK CFI 1ce20 .cfa: sp 0 +
STACK CFI INIT 1ce24 50 .cfa: sp 0 +
STACK CFI 1ce28 .cfa: sp 32 +
STACK CFI 1ce30 .cfa: x29 32 + x19: .cfa -16 + ^ .ra: .cfa -24 + ^ x29: .cfa -32 + ^
STACK CFI 1ce48 .cfa: sp 32 +
STACK CFI 1ce50 .cfa: sp 0 +
STACK CFI 1ce54 .cfa: x29 32 +
STACK CFI 1ce68 .cfa: sp 32 +
STACK CFI 1ce70 .cfa: sp 0 +
STACK CFI INIT 1ce74 64 .cfa: sp 0 +
STACK CFI 1ce78 .cfa: sp 32 +
STACK CFI 1ce80 .cfa: x29 32 + x19: .cfa -16 + ^ .ra: .cfa -24 + ^ x29: .cfa -32 + ^
STACK CFI 1ceac .cfa: sp 32 +
STACK CFI 1ceb4 .cfa: sp 0 +
STACK CFI 1ceb8 .cfa: x29 32 +
STACK CFI 1cecc .cfa: sp 32 +
STACK CFI 1ced4 .cfa: sp 0 +
STACK CFI INIT 1ced8 14 .cfa: sp 0 +
STACK CFI 1cedc .cfa: sp 16 +
STACK CFI 1cee0 .cfa: x29 16 + .ra: .cfa -8 + ^ x29: .cfa -16 + ^
STACK CFI INIT 1ddec 4 .cfa: sp 0 +
STACK CFI INIT 1ddf0 14 .cfa: sp 0 +
STACK CFI 1ddf4 .cfa: sp 16 +
STACK CFI 1ddf8 .cfa: x29 16 + .ra: .cfa -8 + ^ x29: .cfa -16 + ^
STACK CFI INIT 1de04 14 .cfa: sp 0 +
STACK CFI 1de08 .cfa: sp 16 +
STACK CFI 1de0c .cfa: x29 16 + .ra: .cfa -8 + ^ x29: .cfa -16 + ^
STACK CFI INIT 1de18 14 .cfa: sp 0 +
STACK CFI 1de1c .cfa: sp 16 +
STACK CFI 1de20 .cfa: x29 16 + .ra: .cfa -8 + ^ x29: .cfa -16 + ^
STACK CFI INIT 1de7c 30 .cfa: sp 0 +
STACK CFI 1de80 .cfa: sp 32 +
STACK CFI 1de88 .cfa: x29 32 + x19: .cfa -16 + ^ .ra: .cfa -24 + ^ x29: .cfa -32 + ^
STACK CFI 1dea0 .cfa: sp 32 +
STACK CFI 1dea8 .cfa: sp 0 +
STACK CFI INIT 1deac 14 .cfa: sp 0 +
STACK CFI 1deb0 .cfa: sp 16 +
STACK CFI 1deb4 .cfa: x29 16 + .ra: .cfa -8 + ^ x29: .cfa -16 + ^
STACK CFI INIT 1dec0 ac .cfa: sp 0 +
STACK CFI 1dec4 .cfa: sp 32 +
STACK CFI 1decc .cfa: x29 32 + x19: .cfa -16 + ^ .ra: .cfa -24 + ^ x29: .cfa -32 + ^
STACK CFI 1df10 .cfa: sp 32 +
STACK CFI 1df18 .cfa: sp 0 +
STACK CFI 1df1c .cfa: x29 32 +
STACK CFI 1df60 .cfa: sp 32 +
STACK CFI 1df68 .cfa: sp 0 +
STACK CFI INIT 1df6c 4 .cfa: sp 0 +
STACK CFI INIT 1df70 4 .cfa: sp 0 +
STACK CFI INIT 1df74 38 .cfa: sp 0 +
STACK CFI 1df78 .cfa: sp 32 +
STACK CFI 1df80 .cfa: x29 32 + x19: .cfa -16 + ^ .ra: .cfa -24 + ^ x29: .cfa -32 + ^
STACK CFI 1dfa0 .cfa: sp 32 +
STACK CFI 1dfa8 .cfa: sp 0 +
STACK CFI INIT 1dfac 18 .cfa: sp 0 +
STACK CFI INIT 1dfc4 4 .cfa: sp 0 +
STACK CFI INIT 1dfc8 4 .cfa: sp 0 +
STACK CFI INIT 1dfcc 10 .cfa: sp 0 +
STACK CFI INIT 1dfdc 1c .cfa: sp 0 +
STACK CFI INIT 1dff8 c .cfa: sp 0 +
STACK CFI INIT 1e004 78 .cfa: sp 0 +
STACK CFI 1e008 .cfa: sp 64 +
STACK CFI 1e014 .cfa: x29 32 + x19: .cfa -8 + ^ x20: .cfa -16 + ^ .ra: .cfa -24 + ^ x29: .cfa -32 + ^
STACK CFI 1e068 .cfa: sp 64 +
STACK CFI 1e074 .cfa: sp 0 +
STACK CFI 1e078 .cfa: x29 32 +
STACK CFI INIT 1e07c 38 .cfa: sp 0 +
STACK CFI 1e080 .cfa: sp 32 +
STACK CFI 1e088 .cfa: x29 32 + x19: .cfa -16 + ^ .ra: .cfa -24 + ^ x29: .cfa -32 + ^
STACK CFI 1e0a8 .cfa: sp 32 +
STACK CFI 1e0b0 .cfa: sp 0 +
STACK CFI INIT 1e288 4b4 .cfa: sp 0 +
STACK CFI 1e28c .cfa: sp 96 +
STACK CFI 1e2a4 .cfa: x29 96 + x19: .cfa -8 + ^ x20: .cfa -16 + ^ x21: .cfa -24 + ^ x22: .cfa -32 + ^ x23: .cfa -40 + ^ x24: .cfa -48 + ^ x25: .cfa -56 + ^ x26: .cfa -64 + ^ x27: .cfa -72 + ^ x28: .cfa -80 + ^ .ra: .cfa -88 + ^ x29: .cfa -96 + ^
STACK CFI 1e6ec .cfa: sp 96 +
STACK CFI 1e704 .cfa: sp 0 +
STACK CFI 1e708 .cfa: x29 96 +
STACK CFI INIT 1e73c 1a4 .cfa: sp 0 +
STACK CFI 1e740 .cfa: sp 64 +
STACK CFI 1e74c .cfa: x29 32 + x19: .cfa -8 + ^ x20: .cfa -16 + ^ .ra: .cfa -24 + ^ x29: .cfa -32 + ^
STACK CFI 1e878 .cfa: sp 64 +
STACK CFI 1e884 .cfa: sp 0 +
STACK CFI 1e888 .cfa: x29 32 +
STACK CFI INIT 1e8e0 194 .cfa: sp 0 +
STACK CFI 1e8e4 .cfa: sp 16 +
STACK CFI 1e8e8 .cfa: x29 16 + .ra: .cfa -8 + ^ x29: .cfa -16 + ^
STACK CFI 1e980 .cfa: sp 16 +
STACK CFI 1e984 .cfa: sp 0 +
STACK CFI 1e988 .cfa: x29 16 +
STACK CFI 1ea54 .cfa: sp 16 +
STACK CFI 1ea58 .cfa: sp 0 +
STACK CFI 1ea5c .cfa: x29 16 +
STACK CFI INIT 1ea74 114 .cfa: sp 0 +
STACK CFI 1ea78 .cfa: sp 128 +
STACK CFI 1ea88 .cfa: x29 48 + x19: .cfa -8 + ^ x20: .cfa -16 + ^ x21: .cfa -32 + ^ .ra: .cfa -40 + ^ x29: .cfa -48 + ^
STACK CFI 1eb54 .cfa: sp 128 +
STACK CFI 1eb64 .cfa: sp 0 +
STACK CFI 1eb68 .cfa: x29 48 +
STACK CFI INIT 1eb88 114 .cfa: sp 0 +
STACK CFI 1eb8c .cfa: sp 128 +
STACK CFI 1eb9c .cfa: x29 48 + x19: .cfa -8 + ^ x20: .cfa -16 + ^ x21: .cfa -32 + ^ .ra: .cfa -40 + ^ x29: .cfa -48 + ^
STACK CFI 1ec68 .cfa: sp 128 +
STACK CFI 1ec78 .cfa: sp 0 +
STACK CFI 1ec7c .cfa: x29 48 +
STACK CFI INIT 1ec9c 27c .cfa: sp 0 +
STACK CFI 1eca0 .cfa: sp 176 +
STACK CFI 1ecbc .cfa: x29 96 + x19: .cfa -8 + ^ x20: .cfa -16 + ^ x21: .cfa -24 + ^ x22: .cfa -32 + ^ x23: .cfa -40 + ^ x24: .cfa -48 + ^ x25: .cfa -56 + ^ x26: .cfa -64 + ^ x27: .cfa -72 + ^ x28: .cfa -80 + ^ .ra: .cfa -88 + ^ x29: .cfa -96 + ^
STACK CFI 1eef4 .cfa: sp 176 +
STACK CFI 1ef10 .cfa: sp 0 +
STACK CFI 1ef14 .cfa: x29 96 +
STACK CFI INIT 1ef18 520 .cfa: sp 0 +
STACK CFI 1ef1c .cfa: sp 176 +
STACK CFI 1ef38 .cfa: x29 96 + x19: .cfa -8 + ^ x20: .cfa -16 + ^ x21: .cfa -24 + ^ x22: .cfa -32 + ^ x23: .cfa -40 + ^ x24: .cfa -48 + ^ x25: .cfa -56 + ^ x26: .cfa -64 + ^ x27: .cfa -72 + ^ x28: .cfa -80 + ^ .ra: .cfa -88 + ^ x29: .cfa -96 + ^
STACK CFI 1f414 .cfa: sp 176 +
STACK CFI 1f430 .cfa: sp 0 +
STACK CFI 1f434 .cfa: x29 96 +
STACK CFI INIT 1f438 20c .cfa: sp 0 +
STACK CFI 1f43c .cfa: sp 80 +
STACK CFI 1f450 .cfa: x29 80 + x19: .cfa -8 + ^ x20: .cfa -16 + ^ x21: .cfa -24 + ^ x22: .cfa -32 + ^ x23: .cfa -40 + ^ x24: .cfa -48 + ^ x25: .cfa -64 + ^ .ra: .cfa -72 + ^ x29: .cfa -80 + ^
STACK CFI 1f4e0 .cfa: sp 80 +
STACK CFI 1f4f4 .cfa: sp 0 +
STACK CFI 1f4f8 .cfa: x29 80 +
STACK CFI 1f504 .cfa: sp 80 +
STACK CFI 1f518 .cfa: sp 0 +
STACK CFI 1f51c .cfa: x29 80 +
STACK CFI INIT 1f644 428 .cfa: sp 0 +
STACK CFI 1f648 .cfa: sp 128 +
STACK CFI 1f664 .cfa: x29 96 + x19: .cfa -8 + ^ x20: .cfa -16 + ^ x21: .cfa -24 + ^ x22: .cfa -32 + ^ x23: .cfa -40 + ^ x24: .cfa -48 + ^ x25: .cfa -56 + ^ x26: .cfa -64 + ^ x27: .cfa -72 + ^ x28: .cfa -80 + ^ .ra: .cfa -88 + ^ x29: .cfa -96 + ^
STACK CFI 1fa48 .cfa: sp 128 +
STACK CFI 1fa64 .cfa: sp 0 +
STACK CFI 1fa68 .cfa: x29 96 +
STACK CFI INIT 1fa6c 194 .cfa: sp 0 +
STACK CFI 1fa70 .cfa: sp 32 +
STACK CFI 1fa78 .cfa: x29 16 + .ra: .cfa -8 + ^ x29: .cfa -16 + ^
STACK CFI 1fabc .cfa: sp 32 +
STACK CFI 1fac4 .cfa: sp 0 +
STACK CFI 1fac8 .cfa: x29 16 +
STACK CFI INIT 1fc00 1b8 .cfa: sp 0 +
STACK CFI INIT 1fdb8 1d0 .cfa: sp 0 +
STACK CFI 1fdbc .cfa: sp 80 +
STACK CFI 1fdd0 .cfa: x29 80 + x19: .cfa -8 + ^ x20: .cfa -16 + ^ x21: .cfa -24 + ^ x22: .cfa -32 + ^ x23: .cfa -40 + ^ x24: .cfa -48 + ^ x25: .cfa -64 + ^ .ra: .cfa -72 + ^ x29: .cfa -80 + ^
STACK CFI 1ff70 .cfa: sp 80 +
STACK CFI 1ff84 .cfa: sp 0 +
STACK CFI INIT 1ff88 67c .cfa: sp 0 +
STACK CFI 1ff8c .cfa: sp 176 +
STACK CFI 1ffa8 .cfa: x29 96 + x19: .cfa -8 + ^ x20: .cfa -16 + ^ x21: .cfa -24 + ^ x22: .cfa -32 + ^ x23: .cfa -40 + ^ x24: .cfa -48 + ^ x25: .cfa -56 + ^ x26: .cfa -64 + ^ x27: .cfa -72 + ^ x28: .cfa -80 + ^ .ra: .cfa -88 + ^ x29: .cfa -96 + ^
STACK CFI 205e0 .cfa: sp 176 +
STACK CFI 205fc .cfa: sp 0 +
STACK CFI 20600 .cfa: x29 96 +
STACK CFI INIT 20604 1e4 .cfa: sp 0 +
STACK CFI 20608 .cfa: sp 32 +
STACK CFI 20610 .cfa: x29 32 + x19: .cfa -8 + ^ x20: .cfa -16 + ^ .ra: .cfa -24 + ^ x29: .cfa -32 + ^
STACK CFI 20700 .cfa: sp 32 +
STACK CFI 20708 .cfa: sp 0 +
STACK CFI 2070c .cfa: x29 32 +
STACK CFI 20780 .cfa: sp 32 +
STACK CFI 20788 .cfa: sp 0 +
STACK CFI 2078c .cfa: x29 32 +
STACK CFI 2079c .cfa: sp 32 +
STACK CFI 207a4 .cfa: sp 0 +
STACK CFI 207a8 .cfa: x29 32 +
STACK CFI 207b8 .cfa: sp 32 +
STACK CFI 207c0 .cfa: sp 0 +
STACK CFI 207c4 .cfa: x29 32 +
STACK CFI INIT 207e8 178 .cfa: sp 0 +
STACK CFI 207ec .cfa: sp 80 +
STACK CFI 20800 .cfa: x29 64 + x19: .cfa -8 + ^ x20: .cfa -16 + ^ x21: .cfa -24 + ^ x22: .cfa -32 + ^ x23: .cfa -40 + ^ x24: .cfa -48 + ^ .ra: .cfa -56 + ^ x29: .cfa -64 + ^
STACK CFI 20944 .cfa: sp 80 +
STACK CFI 20958 .cfa: sp 0 +
STACK CFI 2095c .cfa: x29 64 +
STACK CFI INIT 20960 178 .cfa: sp 0 +
STACK CFI 20964 .cfa: sp 80 +
STACK CFI 20978 .cfa: x29 64 + x19: .cfa -8 + ^ x20: .cfa -16 + ^ x21: .cfa -24 + ^ x22: .cfa -32 + ^ x23: .cfa -40 + ^ x24: .cfa -48 + ^ .ra: .cfa -56 + ^ x29: .cfa -64 + ^
STACK CFI 20abc .cfa: sp 80 +
STACK CFI 20ad0 .cfa: sp 0 +
STACK CFI 20ad4 .cfa: x29 64 +
STACK CFI INIT 20ad8 178 .cfa: sp 0 +
STACK CFI 20adc .cfa: sp 80 +
STACK CFI 20af0 .cfa: x29 64 + x19: .cfa -8 + ^ x20: .cfa -16 + ^ x21: .cfa -24 + ^ x22: .cfa -32 + ^ x23: .cfa -40 + ^ x24: .cfa -48 + ^ .ra: .cfa -56 + ^ x29: .cfa -64 + ^
STACK CFI 20c34 .cfa: sp 80 +
STACK CFI 20c48 .cfa: sp 0 +
STACK CFI 20c4c .cfa: x29 64 +
STACK CFI INIT 20c50 94 .cfa: sp 0 +
STACK CFI 20c54 .cfa: sp 16 +
STACK CFI 20c58 .cfa: x29 16 + .ra: .cfa -8 + ^ x29: .cfa -16 + ^
STACK CFI 20cac .cfa: sp 16 +
STACK CFI 20cb0 .cfa: sp 0 +
STACK CFI 20cb4 .cfa: x29 16 +
STACK CFI INIT 20ce4 158 .cfa: sp 0 +
STACK CFI 20ce8 .cfa: sp 112 +
STACK CFI 20d04 .cfa: x29 96 + x19: .cfa -8 + ^ x20: .cfa -16 + ^ x21: .cfa -24 + ^ x22: .cfa -32 + ^ x23: .cfa -40 + ^ x24: .cfa -48 + ^ x25: .cfa -56 + ^ x26: .cfa -64 + ^ x27: .cfa -72 + ^ x28: .cfa -80 + ^ .ra: .cfa -88 + ^ x29: .cfa -96 + ^
STACK CFI 20dec .cfa: sp 112 +
STACK CFI 20df0 .cfa: x29 96 +
STACK CFI 20df8 .cfa: sp 112 +
STACK CFI 20e14 .cfa: sp 0 +
STACK CFI 20e18 .cfa: x29 96 +
STACK CFI 20e38 .cfa: sp 112 +
STACK CFI INIT 20e3c 94 .cfa: sp 0 +
STACK CFI 20e40 .cfa: sp 16 +
STACK CFI 20e44 .cfa: x29 16 + .ra: .cfa -8 + ^ x29: .cfa -16 + ^
STACK CFI 20e98 .cfa: sp 16 +
STACK CFI 20e9c .cfa: sp 0 +
STACK CFI 20ea0 .cfa: x29 16 +
STACK CFI INIT 20ed0 34 .cfa: sp 0 +
STACK CFI 20ed4 .cfa: sp 16 +
STACK CFI 20ed8 .cfa: x29 16 + .ra: .cfa -8 + ^ x29: .cfa -16 + ^
STACK CFI INIT 20f04 ac .cfa: sp 0 +
STACK CFI 20f08 .cfa: sp 64 +
STACK CFI 20f18 .cfa: x29 64 + x19: .cfa -8 + ^ x20: .cfa -16 + ^ x21: .cfa -24 + ^ x22: .cfa -32 + ^ x23: .cfa -48 + ^ .ra: .cfa -56 + ^ x29: .cfa -64 + ^
STACK CFI 20f94 .cfa: sp 64 +
STACK CFI 20fa4 .cfa: sp 0 +
STACK CFI 20fa8 .cfa: x29 64 +
STACK CFI INIT 20fb0 110 .cfa: sp 0 +
STACK CFI 20fb4 .cfa: sp 64 +
STACK CFI 20fc4 .cfa: x29 64 + x19: .cfa -8 + ^ x20: .cfa -16 + ^ x21: .cfa -24 + ^ x22: .cfa -32 + ^ x23: .cfa -40 + ^ x24: .cfa -48 + ^ .ra: .cfa -56 + ^ x29: .cfa -64 + ^
STACK CFI 210a4 .cfa: sp 64 +
STACK CFI 210b4 .cfa: sp 0 +
STACK CFI 210b8 .cfa: x29 64 +
STACK CFI INIT 210c0 104 .cfa: sp 0 +
STACK CFI 210c4 .cfa: sp 64 +
STACK CFI 210d4 .cfa: x29 64 + x19: .cfa -8 + ^ x20: .cfa -16 + ^ x21: .cfa -24 + ^ x22: .cfa -32 + ^ x23: .cfa -48 + ^ .ra: .cfa -56 + ^ x29: .cfa -64 + ^
STACK CFI 21130 .cfa: sp 64 +
STACK CFI 21140 .cfa: sp 0 +
STACK CFI 21144 .cfa: x29 64 +
STACK CFI 21160 .cfa: sp 64 +
STACK CFI 21170 .cfa: sp 0 +
STACK CFI 21174 .cfa: x29 64 +
STACK CFI 211b0 .cfa: sp 64 +
STACK CFI 211c0 .cfa: sp 0 +
STACK CFI INIT 211c4 178 .cfa: sp 0 +
STACK CFI 211c8 .cfa: sp 80 +
STACK CFI 211dc .cfa: x29 80 + x19: .cfa -8 + ^ x20: .cfa -16 + ^ x21: .cfa -24 + ^ x22: .cfa -32 + ^ x23: .cfa -40 + ^ x24: .cfa -48 + ^ x25: .cfa -56 + ^ x26: .cfa -64 + ^ .ra: .cfa -72 + ^ x29: .cfa -80 + ^
STACK CFI 21324 .cfa: sp 80 +
STACK CFI 21338 .cfa: sp 0 +
STACK CFI INIT 2133c 1b0 .cfa: sp 0 +
STACK CFI INIT 214ec 68 .cfa: sp 0 +
STACK CFI 214f0 .cfa: sp 48 +
STACK CFI 214fc .cfa: x29 48 + x19: .cfa -8 + ^ x20: .cfa -16 + ^ x21: .cfa -32 + ^ .ra: .cfa -40 + ^ x29: .cfa -48 + ^
STACK CFI 21534 .cfa: sp 48 +
STACK CFI 21540 .cfa: sp 0 +
STACK CFI 21544 .cfa: sp 48 +
STACK CFI 21550 .cfa: sp 0 +
STACK CFI INIT 21554 50 .cfa: sp 0 +
STACK CFI 21558 .cfa: sp 32 +
STACK CFI 21560 .cfa: x29 32 + x19: .cfa -16 + ^ .ra: .cfa -24 + ^ x29: .cfa -32 + ^
STACK CFI 21578 .cfa: sp 32 +
STACK CFI 21580 .cfa: sp 0 +
STACK CFI 21584 .cfa: x29 32 +
STACK CFI 21598 .cfa: sp 32 +
STACK CFI 215a0 .cfa: sp 0 +
STACK CFI INIT 215a4 9c .cfa: sp 0 +
STACK CFI 215a8 .cfa: sp 32 +
STACK CFI 215b0 .cfa: x29 32 + x19: .cfa -8 + ^ x20: .cfa -16 + ^ .ra: .cfa -24 + ^ x29: .cfa -32 + ^
STACK CFI 21634 .cfa: sp 32 +
STACK CFI 2163c .cfa: sp 0 +
STACK CFI INIT 21944 68 .cfa: sp 0 +
STACK CFI 21948 .cfa: sp 48 +
STACK CFI 21954 .cfa: x29 48 + x19: .cfa -8 + ^ x20: .cfa -16 + ^ x21: .cfa -32 + ^ .ra: .cfa -40 + ^ x29: .cfa -48 + ^
STACK CFI 2198c .cfa: sp 48 +
STACK CFI 21998 .cfa: sp 0 +
STACK CFI 2199c .cfa: sp 48 +
STACK CFI 219a8 .cfa: sp 0 +
STACK CFI INIT 21fb0 1e4 .cfa: sp 0 +
STACK CFI 21fb4 .cfa: sp 256 +
STACK CFI 21fc8 .cfa: x29 64 + x19: .cfa -8 + ^ x20: .cfa -16 + ^ x21: .cfa -24 + ^ x22: .cfa -32 + ^ x23: .cfa -40 + ^ x24: .cfa -48 + ^ .ra: .cfa -56 + ^ x29: .cfa -64 + ^
STACK CFI 220d0 .cfa: sp 256 +
STACK CFI 220e4 .cfa: sp 0 +
STACK CFI 220e8 .cfa: x29 64 +
STACK CFI INIT 223ec 3f8 .cfa: sp 0 +
STACK CFI 223f0 .cfa: sp 32 +
STACK CFI 223f8 .cfa: x29 32 + x19: .cfa -8 + ^ x20: .cfa -16 + ^ .ra: .cfa -24 + ^ x29: .cfa -32 + ^
STACK CFI 227d8 .cfa: sp 32 +
STACK CFI 227e0 .cfa: sp 0 +
STACK CFI INIT 227e4 80 .cfa: sp 0 +
STACK CFI 227e8 .cfa: sp 48 +
STACK CFI 227f4 .cfa: x29 48 + x19: .cfa -8 + ^ x20: .cfa -16 + ^ x21: .cfa -24 + ^ x22: .cfa -32 + ^ .ra: .cfa -40 + ^ x29: .cfa -48 + ^
STACK CFI 22840 .cfa: sp 48 +
STACK CFI 2284c .cfa: sp 0 +
STACK CFI 22850 .cfa: x29 48 +
STACK CFI 22854 .cfa: sp 48 +
STACK CFI 22860 .cfa: sp 0 +
STACK CFI INIT 23118 4 .cfa: sp 0 +
STACK CFI INIT 232e8 a4 .cfa: sp 0 +
STACK CFI 232ec .cfa: sp 32 +
STACK CFI 232f4 .cfa: x29 32 + x19: .cfa -8 + ^ x20: .cfa -16 + ^ .ra: .cfa -24 + ^ x29: .cfa -32 + ^
STACK CFI 23380 .cfa: sp 32 +
STACK CFI 23388 .cfa: sp 0 +
STACK CFI INIT 2338c 34 .cfa: sp 0 +
STACK CFI 23390 .cfa: sp 16 +
STACK CFI 23394 .cfa: x29 16 + .ra: .cfa -8 + ^ x29: .cfa -16 + ^
STACK CFI INIT 233c0 24 .cfa: sp 0 +
STACK CFI 233c4 .cfa: sp 32 +
STACK CFI 233cc .cfa: x29 32 + x19: .cfa -16 + ^ .ra: .cfa -24 + ^ x29: .cfa -32 + ^
STACK CFI 233d8 .cfa: sp 32 +
STACK CFI 233e0 .cfa: sp 0 +
STACK CFI INIT 2354c 7c .cfa: sp 0 +
STACK CFI 23550 .cfa: sp 48 +
STACK CFI 2355c .cfa: x29 48 + x19: .cfa -8 + ^ x20: .cfa -16 + ^ x21: .cfa -24 + ^ x22: .cfa -32 + ^ .ra: .cfa -40 + ^ x29: .cfa -48 + ^
STACK CFI 23564 .cfa: sp 48 +
STACK CFI 23570 .cfa: sp 0 +
STACK CFI 23574 .cfa: x29 48 +
STACK CFI 235b8 .cfa: sp 48 +
STACK CFI 235c4 .cfa: sp 0 +
STACK CFI INIT 235c8 14 .cfa: sp 0 +
STACK CFI 235cc .cfa: sp 16 +
STACK CFI 235d0 .cfa: x29 16 + .ra: .cfa -8 + ^ x29: .cfa -16 + ^
STACK CFI INIT 235dc 4 .cfa: sp 0 +
STACK CFI INIT 235e0 14 .cfa: sp 0 +
STACK CFI INIT 235f4 54 .cfa: sp 0 +
STACK CFI 235f8 .cfa: sp 32 +
STACK CFI 23600 .cfa: x29 32 + x19: .cfa -8 + ^ x20: .cfa -16 + ^ .ra: .cfa -24 + ^ x29: .cfa -32 + ^
STACK CFI 23630 .cfa: sp 32 +
STACK CFI 23638 .cfa: sp 0 +
STACK CFI 2363c .cfa: sp 32 +
STACK CFI 23644 .cfa: sp 0 +
STACK CFI INIT 23648 14 .cfa: sp 0 +
STACK CFI 2364c .cfa: sp 16 +
STACK CFI 23650 .cfa: x29 16 + .ra: .cfa -8 + ^ x29: .cfa -16 + ^
STACK CFI INIT 23878 50 .cfa: sp 0 +
STACK CFI 2387c .cfa: sp 32 +
STACK CFI 23884 .cfa: x29 32 + x19: .cfa -16 + ^ .ra: .cfa -24 + ^ x29: .cfa -32 + ^
STACK CFI 2389c .cfa: sp 32 +
STACK CFI 238a4 .cfa: sp 0 +
STACK CFI 238a8 .cfa: x29 32 +
STACK CFI 238bc .cfa: sp 32 +
STACK CFI 238c4 .cfa: sp 0 +
STACK CFI INIT 238c8 50 .cfa: sp 0 +
STACK CFI 238cc .cfa: sp 32 +
STACK CFI 238d4 .cfa: x29 32 + x19: .cfa -16 + ^ .ra: .cfa -24 + ^ x29: .cfa -32 + ^
STACK CFI 238ec .cfa: sp 32 +
STACK CFI 238f4 .cfa: sp 0 +
STACK CFI 238f8 .cfa: x29 32 +
STACK CFI 2390c .cfa: sp 32 +
STACK CFI 23914 .cfa: sp 0 +
STACK CFI INIT 23918 5c .cfa: sp 0 +
STACK CFI 2391c .cfa: sp 32 +
STACK CFI 23924 .cfa: x29 32 + x19: .cfa -16 + ^ .ra: .cfa -24 + ^ x29: .cfa -32 + ^
STACK CFI 23948 .cfa: sp 32 +
STACK CFI 23950 .cfa: sp 0 +
STACK CFI 23954 .cfa: x29 32 +
STACK CFI 23968 .cfa: sp 32 +
STACK CFI 23970 .cfa: sp 0 +
STACK CFI INIT 23974 6c .cfa: sp 0 +
STACK CFI 23978 .cfa: sp 32 +
STACK CFI 23980 .cfa: x29 32 + x19: .cfa -8 + ^ x20: .cfa -16 + ^ .ra: .cfa -24 + ^ x29: .cfa -32 + ^
STACK CFI 239ac .cfa: sp 32 +
STACK CFI 239b4 .cfa: sp 0 +
STACK CFI 239b8 .cfa: x29 32 +
STACK CFI 239d4 .cfa: sp 32 +
STACK CFI 239dc .cfa: sp 0 +
STACK CFI INIT 239e0 58 .cfa: sp 0 +
STACK CFI 239e4 .cfa: sp 32 +
STACK CFI 239ec .cfa: x29 32 + x19: .cfa -8 + ^ x20: .cfa -16 + ^ .ra: .cfa -24 + ^ x29: .cfa -32 + ^
STACK CFI 23a2c .cfa: sp 32 +
STACK CFI 23a34 .cfa: sp 0 +
STACK CFI INIT 23a38 4c .cfa: sp 0 +
STACK CFI 23a3c .cfa: sp 32 +
STACK CFI 23a44 .cfa: x29 32 + x19: .cfa -8 + ^ x20: .cfa -16 + ^ .ra: .cfa -24 + ^ x29: .cfa -32 + ^
STACK CFI 23a78 .cfa: sp 32 +
STACK CFI 23a80 .cfa: sp 0 +
STACK CFI INIT 23a84 50 .cfa: sp 0 +
STACK CFI 23a88 .cfa: sp 32 +
STACK CFI 23a90 .cfa: x29 32 + x19: .cfa -16 + ^ .ra: .cfa -24 + ^ x29: .cfa -32 + ^
STACK CFI 23aa8 .cfa: sp 32 +
STACK CFI 23ab0 .cfa: sp 0 +
STACK CFI 23ab4 .cfa: x29 32 +
STACK CFI 23ac8 .cfa: sp 32 +
STACK CFI 23ad0 .cfa: sp 0 +
STACK CFI INIT 23ad4 60 .cfa: sp 0 +
STACK CFI 23ad8 .cfa: sp 32 +
STACK CFI 23ae0 .cfa: x29 32 + x19: .cfa -8 + ^ x20: .cfa -16 + ^ .ra: .cfa -24 + ^ x29: .cfa -32 + ^
STACK CFI 23b00 .cfa: sp 32 +
STACK CFI 23b08 .cfa: sp 0 +
STACK CFI 23b0c .cfa: x29 32 +
STACK CFI 23b28 .cfa: sp 32 +
STACK CFI 23b30 .cfa: sp 0 +
STACK CFI INIT 23d04 1c .cfa: sp 0 +
STACK CFI INIT 23d20 c .cfa: sp 0 +
STACK CFI INIT 23d2c 60 .cfa: sp 0 +
STACK CFI 23d30 .cfa: sp 32 +
STACK CFI 23d38 .cfa: x29 32 + x19: .cfa -8 + ^ x20: .cfa -16 + ^ .ra: .cfa -24 + ^ x29: .cfa -32 + ^
STACK CFI 23d58 .cfa: sp 32 +
STACK CFI 23d60 .cfa: sp 0 +
STACK CFI 23d64 .cfa: x29 32 +
STACK CFI 23d80 .cfa: sp 32 +
STACK CFI 23d88 .cfa: sp 0 +
STACK CFI INIT 23d8c 70 .cfa: sp 0 +
STACK CFI 23d90 .cfa: sp 32 +
STACK CFI 23d98 .cfa: x29 32 + x19: .cfa -8 + ^ x20: .cfa -16 + ^ .ra: .cfa -24 + ^ x29: .cfa -32 + ^
STACK CFI 23dc0 .cfa: sp 32 +
STACK CFI 23dc8 .cfa: sp 0 +
STACK CFI 23dcc .cfa: x29 32 +
STACK CFI 23df0 .cfa: sp 32 +
STACK CFI 23df8 .cfa: sp 0 +
STACK CFI INIT 23dfc 5c .cfa: sp 0 +
STACK CFI 23e00 .cfa: sp 32 +
STACK CFI 23e08 .cfa: x29 32 + x19: .cfa -16 + ^ .ra: .cfa -24 + ^ x29: .cfa -32 + ^
STACK CFI 23e2c .cfa: sp 32 +
STACK CFI 23e34 .cfa: sp 0 +
STACK CFI 23e38 .cfa: x29 32 +
STACK CFI 23e4c .cfa: sp 32 +
STACK CFI 23e54 .cfa: sp 0 +
STACK CFI INIT 23e58 6c .cfa: sp 0 +
STACK CFI 23e5c .cfa: sp 32 +
STACK CFI 23e64 .cfa: x29 32 + x19: .cfa -8 + ^ x20: .cfa -16 + ^ .ra: .cfa -24 + ^ x29: .cfa -32 + ^
STACK CFI 23e90 .cfa: sp 32 +
STACK CFI 23e98 .cfa: sp 0 +
STACK CFI 23e9c .cfa: x29 32 +
STACK CFI 23eb8 .cfa: sp 32 +
STACK CFI 23ec0 .cfa: sp 0 +
STACK CFI INIT 23ec4 58 .cfa: sp 0 +
STACK CFI 23ec8 .cfa: sp 32 +
STACK CFI 23ed0 .cfa: x29 32 + x19: .cfa -8 + ^ x20: .cfa -16 + ^ .ra: .cfa -24 + ^ x29: .cfa -32 + ^
STACK CFI 23f10 .cfa: sp 32 +
STACK CFI 23f18 .cfa: sp 0 +
STACK CFI INIT 23f1c 4c .cfa: sp 0 +
STACK CFI 23f20 .cfa: sp 32 +
STACK CFI 23f28 .cfa: x29 32 + x19: .cfa -8 + ^ x20: .cfa -16 + ^ .ra: .cfa -24 + ^ x29: .cfa -32 + ^
STACK CFI 23f5c .cfa: sp 32 +
STACK CFI 23f64 .cfa: sp 0 +
STACK CFI INIT 23f68 50 .cfa: sp 0 +
STACK CFI 23f6c .cfa: sp 32 +
STACK CFI 23f74 .cfa: x29 32 + x19: .cfa -16 + ^ .ra: .cfa -24 + ^ x29: .cfa -32 + ^
STACK CFI 23f8c .cfa: sp 32 +
STACK CFI 23f94 .cfa: sp 0 +
STACK CFI 23f98 .cfa: x29 32 +
STACK CFI 23fac .cfa: sp 32 +
STACK CFI 23fb4 .cfa: sp 0 +
STACK CFI INIT 23fb8 60 .cfa: sp 0 +
STACK CFI 23fbc .cfa: sp 32 +
STACK CFI 23fc4 .cfa: x29 32 + x19: .cfa -8 + ^ x20: .cfa -16 + ^ .ra: .cfa -24 + ^ x29: .cfa -32 + ^
STACK CFI 23fe4 .cfa: sp 32 +
STACK CFI 23fec .cfa: sp 0 +
STACK CFI 23ff0 .cfa: x29 32 +
STACK CFI 2400c .cfa: sp 32 +
STACK CFI 24014 .cfa: sp 0 +
STACK CFI INIT 241dc 1c .cfa: sp 0 +
STACK CFI INIT 241f8 c .cfa: sp 0 +
STACK CFI INIT 24204 4 .cfa: sp 0 +
STACK CFI INIT 24208 4 .cfa: sp 0 +
STACK CFI INIT 2420c 24 .cfa: sp 0 +
STACK CFI 24210 .cfa: sp 16 +
STACK CFI 24214 .cfa: x29 16 + .ra: .cfa -8 + ^ x29: .cfa -16 + ^
STACK CFI 24228 .cfa: sp 16 +
STACK CFI 2422c .cfa: sp 0 +
STACK CFI INIT 24230 10 .cfa: sp 0 +
STACK CFI INIT 24240 4 .cfa: sp 0 +
STACK CFI INIT 24244 4 .cfa: sp 0 +
STACK CFI INIT 24d34 1c .cfa: sp 0 +
STACK CFI INIT 24d50 c .cfa: sp 0 +
STACK CFI INIT 24e44 14 .cfa: sp 0 +
STACK CFI INIT 24e58 14 .cfa: sp 0 +
STACK CFI INIT 24e6c 8 .cfa: sp 0 +
STACK CFI INIT 24e74 14 .cfa: sp 0 +
STACK CFI INIT 26060 8 .cfa: sp 0 +
STACK CFI INIT 26148 2c .cfa: sp 0 +
STACK CFI 2614c .cfa: sp 32 +
STACK CFI 26154 .cfa: x29 32 + x19: .cfa -16 + ^ .ra: .cfa -24 + ^ x29: .cfa -32 + ^
STACK CFI 26168 .cfa: sp 32 +
STACK CFI 26170 .cfa: sp 0 +
STACK CFI INIT 26174 28 .cfa: sp 0 +
STACK CFI INIT 2619c 4 .cfa: sp 0 +
STACK CFI INIT 261a0 8 .cfa: sp 0 +
STACK CFI INIT 263d0 2c .cfa: sp 0 +
STACK CFI INIT 263fc 4 .cfa: sp 0 +
STACK CFI INIT 26400 4 .cfa: sp 0 +
STACK CFI INIT 26404 4 .cfa: sp 0 +
STACK CFI INIT 26408 4 .cfa: sp 0 +
STACK CFI INIT 2640c 4 .cfa: sp 0 +
STACK CFI INIT 26410 8 .cfa: sp 0 +
STACK CFI INIT 26418 4 .cfa: sp 0 +
STACK CFI INIT 26488 4 .cfa: sp 0 +
STACK CFI INIT 2648c 304 .cfa: sp 0 +
STACK CFI 26490 .cfa: sp 144 +
STACK CFI 264ac .cfa: x29 80 + x19: .cfa -8 + ^ x20: .cfa -16 + ^ x21: .cfa -24 + ^ x22: .cfa -32 + ^ x23: .cfa -40 + ^ x24: .cfa -48 + ^ x25: .cfa -64 + ^ .ra: .cfa -72 + ^ x29: .cfa -80 + ^ v8: .cfa -88 + ^ v9: .cfa -96 + ^
STACK CFI 2676c .cfa: sp 144 +
STACK CFI 26788 .cfa: sp 0 +
STACK CFI 2678c .cfa: x29 80 +
STACK CFI INIT 26790 60 .cfa: sp 0 +
STACK CFI 26794 .cfa: sp 32 +
STACK CFI 2679c .cfa: x29 32 + x19: .cfa -8 + ^ x20: .cfa -16 + ^ .ra: .cfa -24 + ^ x29: .cfa -32 + ^
STACK CFI 267bc .cfa: sp 32 +
STACK CFI 267c4 .cfa: sp 0 +
STACK CFI 267c8 .cfa: x29 32 +
STACK CFI 267e4 .cfa: sp 32 +
STACK CFI 267ec .cfa: sp 0 +
STACK CFI INIT 267f0 70 .cfa: sp 0 +
STACK CFI 267f4 .cfa: sp 32 +
STACK CFI 267fc .cfa: x29 32 + x19: .cfa -8 + ^ x20: .cfa -16 + ^ .ra: .cfa -24 + ^ x29: .cfa -32 + ^
STACK CFI 26824 .cfa: sp 32 +
STACK CFI 2682c .cfa: sp 0 +
STACK CFI 26830 .cfa: x29 32 +
STACK CFI 26854 .cfa: sp 32 +
STACK CFI 2685c .cfa: sp 0 +
STACK CFI INIT 26860 10 .cfa: sp 0 +
STACK CFI INIT 26870 30 .cfa: sp 0 +
STACK CFI 26874 .cfa: sp 32 +
STACK CFI 2687c .cfa: x29 32 + x19: .cfa -16 + ^ .ra: .cfa -24 + ^ x29: .cfa -32 + ^
STACK CFI 26894 .cfa: sp 32 +
STACK CFI 2689c .cfa: sp 0 +
STACK CFI INIT 268a0 4 .cfa: sp 0 +
STACK CFI INIT 268a4 4 .cfa: sp 0 +
STACK CFI INIT 27168 6c .cfa: sp 0 +
STACK CFI INIT 271d4 4 .cfa: sp 0 +
STACK CFI INIT 271d8 14 .cfa: sp 0 +
STACK CFI INIT 271ec 4 .cfa: sp 0 +
STACK CFI INIT 271f0 14 .cfa: sp 0 +
STACK CFI INIT 27204 38 .cfa: sp 0 +
STACK CFI INIT 2723c 25c .cfa: sp 0 +
STACK CFI 27240 .cfa: sp 112 +
STACK CFI 27254 .cfa: x29 64 + x19: .cfa -8 + ^ x20: .cfa -16 + ^ x21: .cfa -24 + ^ x22: .cfa -32 + ^ x23: .cfa -48 + ^ .ra: .cfa -56 + ^ x29: .cfa -64 + ^
STACK CFI 2747c .cfa: sp 112 +
STACK CFI 27490 .cfa: sp 0 +
STACK CFI 27494 .cfa: x29 64 +
STACK CFI INIT 27498 178 .cfa: sp 0 +
STACK CFI 2749c .cfa: sp 96 +
STACK CFI 274ac .cfa: x29 48 + x19: .cfa -8 + ^ x20: .cfa -16 + ^ x21: .cfa -32 + ^ .ra: .cfa -40 + ^ x29: .cfa -48 + ^
STACK CFI 275f8 .cfa: sp 96 +
STACK CFI 27608 .cfa: sp 0 +
STACK CFI 2760c .cfa: x29 48 +
STACK CFI INIT 27808 28 .cfa: sp 0 +
STACK CFI 2780c .cfa: sp 32 +
STACK CFI 27814 .cfa: x29 32 + x19: .cfa -16 + ^ .ra: .cfa -24 + ^ x29: .cfa -32 + ^
STACK CFI 27824 .cfa: sp 32 +
STACK CFI 2782c .cfa: sp 0 +
STACK CFI INIT 27830 28 .cfa: sp 0 +
STACK CFI 27834 .cfa: sp 32 +
STACK CFI 2783c .cfa: x29 32 + x19: .cfa -16 + ^ .ra: .cfa -24 + ^ x29: .cfa -32 + ^
STACK CFI 2784c .cfa: sp 32 +
STACK CFI 27854 .cfa: sp 0 +
STACK CFI INIT 27858 18 .cfa: sp 0 +
STACK CFI INIT 27870 18 .cfa: sp 0 +
STACK CFI INIT 27888 128 .cfa: sp 0 +
STACK CFI 2788c .cfa: sp 80 +
STACK CFI 278a0 .cfa: x29 80 + x19: .cfa -8 + ^ x20: .cfa -16 + ^ x21: .cfa -24 + ^ x22: .cfa -32 + ^ x23: .cfa -40 + ^ x24: .cfa -48 + ^ x25: .cfa -64 + ^ .ra: .cfa -72 + ^ x29: .cfa -80 + ^
STACK CFI 27990 .cfa: sp 80 +
STACK CFI 279a4 .cfa: sp 0 +
STACK CFI 279a8 .cfa: x29 80 +
STACK CFI INIT 279b0 34 .cfa: sp 0 +
STACK CFI 279b4 .cfa: sp 32 +
STACK CFI 279bc .cfa: x29 32 + x19: .cfa -8 + ^ x20: .cfa -16 + ^ .ra: .cfa -24 + ^ x29: .cfa -32 + ^
STACK CFI 279d8 .cfa: sp 32 +
STACK CFI 279e0 .cfa: sp 0 +
STACK CFI INIT 279e4 4 .cfa: sp 0 +
STACK CFI INIT 279e8 4 .cfa: sp 0 +
STACK CFI INIT 279ec 24 .cfa: sp 0 +
STACK CFI 279f0 .cfa: sp 16 +
STACK CFI 279f4 .cfa: x29 16 + .ra: .cfa -8 + ^ x29: .cfa -16 + ^
STACK CFI 27a08 .cfa: sp 16 +
STACK CFI 27a0c .cfa: sp 0 +
STACK CFI INIT 27a10 10 .cfa: sp 0 +
STACK CFI INIT 27a20 4 .cfa: sp 0 +
STACK CFI INIT 27a24 4 .cfa: sp 0 +
STACK CFI INIT 27a28 70 .cfa: sp 0 +
STACK CFI 27a2c .cfa: sp 32 +
STACK CFI 27a38 .cfa: x29 24 + x19: .cfa -8 + ^ .ra: .cfa -16 + ^ x29: .cfa -24 + ^ v8: .cfa -32 + ^
STACK CFI 27a88 .cfa: sp 32 +
STACK CFI 27a94 .cfa: sp 0 +
STACK CFI INIT 27a98 1c .cfa: sp 0 +
STACK CFI INIT 27ab4 c .cfa: sp 0 +
STACK CFI INIT 27ac0 2c .cfa: sp 0 +
STACK CFI INIT 27f28 1c .cfa: sp 0 +
STACK CFI INIT 2824c 4 .cfa: sp 0 +
STACK CFI INIT 28250 2c .cfa: sp 0 +
STACK CFI 28254 .cfa: sp 32 +
STACK CFI 2825c .cfa: x29 32 + x19: .cfa -16 + ^ .ra: .cfa -24 + ^ x29: .cfa -32 + ^
STACK CFI 28270 .cfa: sp 32 +
STACK CFI 28278 .cfa: sp 0 +
STACK CFI INIT 28324 9c .cfa: sp 0 +
STACK CFI INIT 283c0 3c .cfa: sp 0 +
STACK CFI 283c4 .cfa: sp 32 +
STACK CFI 283cc .cfa: x29 32 + x19: .cfa -16 + ^ .ra: .cfa -24 + ^ x29: .cfa -32 + ^
STACK CFI 283d8 .cfa: sp 32 +
STACK CFI 283e0 .cfa: sp 0 +
STACK CFI 283e4 .cfa: x29 32 +
STACK CFI 283f0 .cfa: sp 32 +
STACK CFI 283f8 .cfa: sp 0 +
STACK CFI INIT 288d8 64 .cfa: sp 0 +
STACK CFI 288dc .cfa: sp 32 +
STACK CFI 288e4 .cfa: x29 32 + x19: .cfa -16 + ^ .ra: .cfa -24 + ^ x29: .cfa -32 + ^
STACK CFI 28910 .cfa: sp 32 +
STACK CFI 28918 .cfa: sp 0 +
STACK CFI 2891c .cfa: x29 32 +
STACK CFI 28930 .cfa: sp 32 +
STACK CFI 28938 .cfa: sp 0 +
STACK CFI INIT 28c3c 24 .cfa: sp 0 +
STACK CFI 28c40 .cfa: sp 32 +
STACK CFI 28c48 .cfa: x29 32 + x19: .cfa -16 + ^ .ra: .cfa -24 + ^ x29: .cfa -32 + ^
STACK CFI 28c54 .cfa: sp 32 +
STACK CFI 28c5c .cfa: sp 0 +
STACK CFI INIT 28df8 8 .cfa: sp 0 +
STACK CFI INIT 28e00 24 .cfa: sp 0 +
STACK CFI 28e04 .cfa: sp 32 +
STACK CFI 28e0c .cfa: x29 32 + x19: .cfa -16 + ^ .ra: .cfa -24 + ^ x29: .cfa -32 + ^
STACK CFI 28e18 .cfa: sp 32 +
STACK CFI 28e20 .cfa: sp 0 +
STACK CFI INIT 28e24 28 .cfa: sp 0 +
STACK CFI 28e28 .cfa: sp 32 +
STACK CFI 28e30 .cfa: x29 32 + x19: .cfa -16 + ^ .ra: .cfa -24 + ^ x29: .cfa -32 + ^
STACK CFI 28e40 .cfa: sp 32 +
STACK CFI 28e48 .cfa: sp 0 +
STACK CFI INIT 28e4c 24 .cfa: sp 0 +
STACK CFI 28e50 .cfa: sp 32 +
STACK CFI 28e58 .cfa: x29 32 + x19: .cfa -16 + ^ .ra: .cfa -24 + ^ x29: .cfa -32 + ^
STACK CFI 28e64 .cfa: sp 32 +
STACK CFI 28e6c .cfa: sp 0 +
STACK CFI INIT 29398 8 .cfa: sp 0 +
STACK CFI INIT 293a0 24 .cfa: sp 0 +
STACK CFI 293a4 .cfa: sp 32 +
STACK CFI 293ac .cfa: x29 32 + x19: .cfa -16 + ^ .ra: .cfa -24 + ^ x29: .cfa -32 + ^
STACK CFI 293b8 .cfa: sp 32 +
STACK CFI 293c0 .cfa: sp 0 +
STACK CFI INIT 293c4 28 .cfa: sp 0 +
STACK CFI 293c8 .cfa: sp 32 +
STACK CFI 293d0 .cfa: x29 32 + x19: .cfa -16 + ^ .ra: .cfa -24 + ^ x29: .cfa -32 + ^
STACK CFI 293e0 .cfa: sp 32 +
STACK CFI 293e8 .cfa: sp 0 +
STACK CFI INIT 293ec 8 .cfa: sp 0 +
STACK CFI INIT 293f4 24 .cfa: sp 0 +
STACK CFI 293f8 .cfa: sp 32 +
STACK CFI 29400 .cfa: x29 32 + x19: .cfa -16 + ^ .ra: .cfa -24 + ^ x29: .cfa -32 + ^
STACK CFI 2940c .cfa: sp 32 +
STACK CFI 29414 .cfa: sp 0 +
STACK CFI INIT 29418 28 .cfa: sp 0 +
STACK CFI 2941c .cfa: sp 32 +
STACK CFI 29424 .cfa: x29 32 + x19: .cfa -16 + ^ .ra: .cfa -24 + ^ x29: .cfa -32 + ^
STACK CFI 29434 .cfa: sp 32 +
STACK CFI 2943c .cfa: sp 0 +
STACK CFI INIT 29440 4 .cfa: sp 0 +
STACK CFI INIT 29444 8 .cfa: sp 0 +
STACK CFI INIT 2944c 24 .cfa: sp 0 +
STACK CFI 29450 .cfa: sp 32 +
STACK CFI 29458 .cfa: x29 32 + x19: .cfa -16 + ^ .ra: .cfa -24 + ^ x29: .cfa -32 + ^
STACK CFI 29464 .cfa: sp 32 +
STACK CFI 2946c .cfa: sp 0 +
STACK CFI INIT 29470 28 .cfa: sp 0 +
STACK CFI 29474 .cfa: sp 32 +
STACK CFI 2947c .cfa: x29 32 + x19: .cfa -16 + ^ .ra: .cfa -24 + ^ x29: .cfa -32 + ^
STACK CFI 2948c .cfa: sp 32 +
STACK CFI 29494 .cfa: sp 0 +
STACK CFI INIT 29d58 4 .cfa: sp 0 +
STACK CFI INIT 2aa6c 4 .cfa: sp 0 +
STACK CFI INIT 2aa70 14 .cfa: sp 0 +
STACK CFI INIT 2af64 c .cfa: sp 0 +
STACK CFI INIT 2af70 24c .cfa: sp 0 +
STACK CFI INIT 2b1bc a0 .cfa: sp 0 +
STACK CFI 2b1c8 .cfa: sp 32 +
STACK CFI 2b220 .cfa: sp 0 +
STACK CFI 2b224 .cfa: sp 32 +
STACK CFI 2b22c .cfa: sp 0 +
STACK CFI 2b230 .cfa: sp 32 +
STACK CFI 2b244 .cfa: sp 0 +
STACK CFI 2b248 .cfa: sp 32 +
STACK CFI 2b258 .cfa: sp 0 +
STACK CFI INIT 2b25c 38 .cfa: sp 0 +
STACK CFI 2b268 .cfa: sp 32 +
STACK CFI 2b290 .cfa: sp 0 +
STACK CFI INIT 2b528 7c .cfa: sp 0 +
STACK CFI 2b52c .cfa: sp 32 +
STACK CFI 2b534 .cfa: x29 32 + x19: .cfa -16 + ^ .ra: .cfa -24 + ^ x29: .cfa -32 + ^
STACK CFI 2b560 .cfa: sp 32 +
STACK CFI 2b568 .cfa: sp 0 +
STACK CFI 2b56c .cfa: x29 32 +
STACK CFI 2b598 .cfa: sp 32 +
STACK CFI 2b5a0 .cfa: sp 0 +
STACK CFI INIT 2b5f4 2c .cfa: sp 0 +
STACK CFI 2b5f8 .cfa: sp 32 +
STACK CFI 2b600 .cfa: x29 32 + x19: .cfa -16 + ^ .ra: .cfa -24 + ^ x29: .cfa -32 + ^
STACK CFI 2b614 .cfa: sp 32 +
STACK CFI 2b61c .cfa: sp 0 +
STACK CFI INIT 2bde0 64 .cfa: sp 0 +
STACK CFI 2bde4 .cfa: sp 32 +
STACK CFI 2bdec .cfa: x29 32 + x19: .cfa -16 + ^ .ra: .cfa -24 + ^ x29: .cfa -32 + ^
STACK CFI 2be08 .cfa: sp 32 +
STACK CFI 2be10 .cfa: sp 0 +
STACK CFI 2be14 .cfa: x29 32 +
STACK CFI 2be38 .cfa: sp 32 +
STACK CFI 2be40 .cfa: sp 0 +
STACK CFI INIT 2be44 570 .cfa: sp 0 +
STACK CFI 2be48 .cfa: sp 176 +
STACK CFI 2be5c .cfa: x29 64 + x19: .cfa -8 + ^ x20: .cfa -16 + ^ x21: .cfa -24 + ^ x22: .cfa -32 + ^ x23: .cfa -40 + ^ x24: .cfa -48 + ^ .ra: .cfa -56 + ^ x29: .cfa -64 + ^
STACK CFI 2c08c .cfa: sp 176 +
STACK CFI 2c0a0 .cfa: sp 0 +
STACK CFI 2c0a4 .cfa: x29 64 +
STACK CFI 2c0f0 .cfa: sp 176 +
STACK CFI 2c104 .cfa: sp 0 +
STACK CFI 2c108 .cfa: x29 64 +
STACK CFI 2c140 .cfa: sp 176 +
STACK CFI 2c154 .cfa: sp 0 +
STACK CFI 2c158 .cfa: x29 64 +
STACK CFI 2c170 .cfa: sp 176 +
STACK CFI 2c184 .cfa: sp 0 +
STACK CFI 2c188 .cfa: x29 64 +
STACK CFI 2c1a8 .cfa: sp 176 +
STACK CFI 2c1bc .cfa: sp 0 +
STACK CFI 2c1c0 .cfa: x29 64 +
STACK CFI 2c1d8 .cfa: sp 176 +
STACK CFI 2c1ec .cfa: sp 0 +
STACK CFI 2c1f0 .cfa: x29 64 +
STACK CFI 2c204 .cfa: sp 176 +
STACK CFI 2c218 .cfa: sp 0 +
STACK CFI 2c21c .cfa: x29 64 +
STACK CFI 2c230 .cfa: sp 176 +
STACK CFI 2c244 .cfa: sp 0 +
STACK CFI 2c248 .cfa: x29 64 +
STACK CFI 2c258 .cfa: sp 176 +
STACK CFI 2c26c .cfa: sp 0 +
STACK CFI 2c270 .cfa: x29 64 +
STACK CFI 2c280 .cfa: sp 176 +
STACK CFI 2c294 .cfa: sp 0 +
STACK CFI 2c298 .cfa: x29 64 +
STACK CFI 2c2b0 .cfa: sp 176 +
STACK CFI 2c2c4 .cfa: sp 0 +
STACK CFI 2c2c8 .cfa: x29 64 +
STACK CFI 2c2dc .cfa: sp 176 +
STACK CFI 2c2f0 .cfa: sp 0 +
STACK CFI 2c2f4 .cfa: x29 64 +
STACK CFI 2c30c .cfa: sp 176 +
STACK CFI 2c320 .cfa: sp 0 +
STACK CFI 2c324 .cfa: x29 64 +
STACK CFI 2c350 .cfa: sp 176 +
STACK CFI 2c364 .cfa: sp 0 +
STACK CFI 2c368 .cfa: x29 64 +
STACK CFI 2c37c .cfa: sp 176 +
STACK CFI 2c390 .cfa: sp 0 +
STACK CFI 2c394 .cfa: x29 64 +
STACK CFI INIT 2c3b4 228 .cfa: sp 0 +
STACK CFI INIT 2c5dc 2dc .cfa: sp 0 +
STACK CFI INIT 2c8b8 53c .cfa: sp 0 +
STACK CFI INIT 2cdf4 78 .cfa: sp 0 +
STACK CFI 2cdf8 .cfa: sp 48 +
STACK CFI 2ce04 .cfa: x29 48 + x19: .cfa -8 + ^ x20: .cfa -16 + ^ x21: .cfa -24 + ^ x22: .cfa -32 + ^ .ra: .cfa -40 + ^ x29: .cfa -48 + ^
STACK CFI 2ce4c .cfa: sp 48 +
STACK CFI 2ce58 .cfa: sp 0 +
STACK CFI 2ce5c .cfa: sp 48 +
STACK CFI 2ce68 .cfa: sp 0 +
STACK CFI INIT 2ce6c 8c .cfa: sp 0 +
STACK CFI 2ce70 .cfa: sp 32 +
STACK CFI 2ce78 .cfa: x29 32 + x19: .cfa -16 + ^ .ra: .cfa -24 + ^ x29: .cfa -32 + ^
STACK CFI 2ceac .cfa: sp 32 +
STACK CFI 2ceb4 .cfa: sp 0 +
STACK CFI 2ceb8 .cfa: x29 32 +
STACK CFI 2ceec .cfa: sp 32 +
STACK CFI 2cef4 .cfa: sp 0 +
STACK CFI INIT 2cef8 24 .cfa: sp 0 +
STACK CFI 2cefc .cfa: sp 32 +
STACK CFI 2cf04 .cfa: x29 32 + x19: .cfa -16 + ^ .ra: .cfa -24 + ^ x29: .cfa -32 + ^
STACK CFI 2cf10 .cfa: sp 32 +
STACK CFI 2cf18 .cfa: sp 0 +
STACK CFI INIT 2cf1c 150 .cfa: sp 0 +
STACK CFI 2cf20 .cfa: sp 48 +
STACK CFI 2cf2c .cfa: x29 48 + x19: .cfa -8 + ^ x20: .cfa -16 + ^ x21: .cfa -24 + ^ x22: .cfa -32 + ^ .ra: .cfa -40 + ^ x29: .cfa -48 + ^
STACK CFI 2d05c .cfa: sp 48 +
STACK CFI 2d068 .cfa: sp 0 +
STACK CFI INIT 2d06c 68 .cfa: sp 0 +
STACK CFI 2d070 .cfa: sp 64 +
STACK CFI 2d07c .cfa: x29 32 + x19: .cfa -16 + ^ .ra: .cfa -24 + ^ x29: .cfa -32 + ^
STACK CFI 2d0c0 .cfa: sp 64 +
STACK CFI 2d0cc .cfa: sp 0 +
STACK CFI 2d0d0 .cfa: x29 32 +
STACK CFI INIT 2d0d4 90 .cfa: sp 0 +
STACK CFI 2d0d8 .cfa: sp 32 +
STACK CFI 2d0e0 .cfa: x29 32 + x19: .cfa -8 + ^ x20: .cfa -16 + ^ .ra: .cfa -24 + ^ x29: .cfa -32 + ^
STACK CFI 2d10c .cfa: sp 32 +
STACK CFI 2d114 .cfa: sp 0 +
STACK CFI 2d118 .cfa: x29 32 +
STACK CFI 2d158 .cfa: sp 32 +
STACK CFI 2d160 .cfa: sp 0 +
STACK CFI INIT 2d164 ec .cfa: sp 0 +
STACK CFI 2d168 .cfa: sp 112 +
STACK CFI 2d178 .cfa: x29 48 + x19: .cfa -8 + ^ x20: .cfa -16 + ^ x21: .cfa -32 + ^ .ra: .cfa -40 + ^ x29: .cfa -48 + ^
STACK CFI 2d238 .cfa: sp 112 +
STACK CFI 2d248 .cfa: sp 0 +
STACK CFI 2d24c .cfa: x29 48 +
STACK CFI INIT 2d250 ec .cfa: sp 0 +
STACK CFI 2d254 .cfa: sp 112 +
STACK CFI 2d264 .cfa: x29 48 + x19: .cfa -8 + ^ x20: .cfa -16 + ^ x21: .cfa -32 + ^ .ra: .cfa -40 + ^ x29: .cfa -48 + ^
STACK CFI 2d324 .cfa: sp 112 +
STACK CFI 2d334 .cfa: sp 0 +
STACK CFI 2d338 .cfa: x29 48 +
STACK CFI INIT 2d33c 48 .cfa: sp 0 +
STACK CFI 2d340 .cfa: sp 32 +
STACK CFI 2d348 .cfa: x29 32 + x19: .cfa -8 + ^ x20: .cfa -16 + ^ .ra: .cfa -24 + ^ x29: .cfa -32 + ^
STACK CFI 2d36c .cfa: sp 32 +
STACK CFI 2d374 .cfa: sp 0 +
STACK CFI 2d378 .cfa: x29 32 +
STACK CFI INIT 2d384 98 .cfa: sp 0 +
STACK CFI 2d388 .cfa: sp 80 +
STACK CFI 2d394 .cfa: x29 32 + x19: .cfa -16 + ^ .ra: .cfa -24 + ^ x29: .cfa -32 + ^
STACK CFI 2d408 .cfa: sp 80 +
STACK CFI 2d414 .cfa: sp 0 +
STACK CFI 2d418 .cfa: x29 32 +
STACK CFI INIT 2d41c 260 .cfa: sp 0 +
STACK CFI 2d420 .cfa: sp 112 +
STACK CFI 2d438 .cfa: x29 80 + x19: .cfa -8 + ^ x20: .cfa -16 + ^ x21: .cfa -24 + ^ x22: .cfa -32 + ^ x23: .cfa -40 + ^ x24: .cfa -48 + ^ x25: .cfa -64 + ^ .ra: .cfa -72 + ^ x29: .cfa -80 + ^
STACK CFI 2d61c .cfa: sp 112 +
STACK CFI 2d634 .cfa: sp 0 +
STACK CFI 2d638 .cfa: x29 80 +
STACK CFI INIT 2d67c 150 .cfa: sp 0 +
STACK CFI 2d680 .cfa: sp 48 +
STACK CFI 2d68c .cfa: x29 48 + x19: .cfa -8 + ^ x20: .cfa -16 + ^ x21: .cfa -24 + ^ x22: .cfa -32 + ^ .ra: .cfa -40 + ^ x29: .cfa -48 + ^
STACK CFI 2d7bc .cfa: sp 48 +
STACK CFI 2d7c8 .cfa: sp 0 +
STACK CFI INIT 2d7cc 1e0 .cfa: sp 0 +
STACK CFI 2d7d0 .cfa: sp 96 +
STACK CFI 2d7e4 .cfa: x29 64 + x19: .cfa -8 + ^ x20: .cfa -16 + ^ x21: .cfa -24 + ^ x22: .cfa -32 + ^ x23: .cfa -40 + ^ x24: .cfa -48 + ^ .ra: .cfa -56 + ^ x29: .cfa -64 + ^
STACK CFI 2d964 .cfa: sp 96 +
STACK CFI 2d978 .cfa: sp 0 +
STACK CFI 2d97c .cfa: x29 64 +
STACK CFI INIT 2d9ac 284 .cfa: sp 0 +
STACK CFI 2d9b0 .cfa: sp 112 +
STACK CFI 2d9c8 .cfa: x29 80 + x19: .cfa -8 + ^ x20: .cfa -16 + ^ x21: .cfa -24 + ^ x22: .cfa -32 + ^ x23: .cfa -40 + ^ x24: .cfa -48 + ^ x25: .cfa -64 + ^ .ra: .cfa -72 + ^ x29: .cfa -80 + ^
STACK CFI 2dbd0 .cfa: sp 112 +
STACK CFI 2dbe8 .cfa: sp 0 +
STACK CFI 2dbec .cfa: x29 80 +
STACK CFI INIT 2dc30 208 .cfa: sp 0 +
STACK CFI 2dc34 .cfa: sp 96 +
STACK CFI 2dc48 .cfa: x29 64 + x19: .cfa -8 + ^ x20: .cfa -16 + ^ x21: .cfa -24 + ^ x22: .cfa -32 + ^ x23: .cfa -40 + ^ x24: .cfa -48 + ^ .ra: .cfa -56 + ^ x29: .cfa -64 + ^
STACK CFI 2ddf0 .cfa: sp 96 +
STACK CFI 2de04 .cfa: sp 0 +
STACK CFI 2de08 .cfa: x29 64 +
STACK CFI INIT 2de38 360 .cfa: sp 0 +
STACK CFI 2de3c .cfa: sp 160 +
STACK CFI 2de58 .cfa: x29 96 + x19: .cfa -8 + ^ x20: .cfa -16 + ^ x21: .cfa -24 + ^ x22: .cfa -32 + ^ x23: .cfa -40 + ^ x24: .cfa -48 + ^ x25: .cfa -56 + ^ x26: .cfa -64 + ^ x27: .cfa -72 + ^ x28: .cfa -80 + ^ .ra: .cfa -88 + ^ x29: .cfa -96 + ^
STACK CFI 2e124 .cfa: sp 160 +
STACK CFI 2e140 .cfa: sp 0 +
STACK CFI 2e144 .cfa: x29 96 +
STACK CFI INIT 2e198 314 .cfa: sp 0 +
STACK CFI 2e19c .cfa: sp 144 +
STACK CFI 2e1b8 .cfa: x29 96 + x19: .cfa -8 + ^ x20: .cfa -16 + ^ x21: .cfa -24 + ^ x22: .cfa -32 + ^ x23: .cfa -40 + ^ x24: .cfa -48 + ^ x25: .cfa -56 + ^ x26: .cfa -64 + ^ x27: .cfa -72 + ^ x28: .cfa -80 + ^ .ra: .cfa -88 + ^ x29: .cfa -96 + ^
STACK CFI 2e434 .cfa: sp 144 +
STACK CFI 2e450 .cfa: sp 0 +
STACK CFI 2e454 .cfa: x29 96 +
STACK CFI INIT 2e4ac 2b4 .cfa: sp 0 +
STACK CFI 2e4b0 .cfa: sp 128 +
STACK CFI 2e4c8 .cfa: x29 80 + x19: .cfa -8 + ^ x20: .cfa -16 + ^ x21: .cfa -24 + ^ x22: .cfa -32 + ^ x23: .cfa -40 + ^ x24: .cfa -48 + ^ x25: .cfa -56 + ^ x26: .cfa -64 + ^ .ra: .cfa -72 + ^ x29: .cfa -80 + ^
STACK CFI 2e6bc .cfa: sp 128 +
STACK CFI 2e6d4 .cfa: sp 0 +
STACK CFI 2e6d8 .cfa: x29 80 +
STACK CFI 2e740 .cfa: sp 128 +
STACK CFI 2e758 .cfa: sp 0 +
STACK CFI 2e75c .cfa: x29 80 +
STACK CFI INIT 2e760 de0 .cfa: sp 0 +
STACK CFI 2e764 .cfa: sp 144 +
STACK CFI 2e780 .cfa: x29 96 + x19: .cfa -8 + ^ x20: .cfa -16 + ^ x21: .cfa -24 + ^ x22: .cfa -32 + ^ x23: .cfa -40 + ^ x24: .cfa -48 + ^ x25: .cfa -56 + ^ x26: .cfa -64 + ^ x27: .cfa -72 + ^ x28: .cfa -80 + ^ .ra: .cfa -88 + ^ x29: .cfa -96 + ^
STACK CFI 2f418 .cfa: sp 144 +
STACK CFI 2f434 .cfa: sp 0 +
STACK CFI 2f438 .cfa: x29 96 +
STACK CFI INIT 2f540 264 .cfa: sp 0 +
STACK CFI 2f544 .cfa: sp 112 +
STACK CFI 2f558 .cfa: x29 64 + x19: .cfa -8 + ^ x20: .cfa -16 + ^ x21: .cfa -24 + ^ x22: .cfa -32 + ^ x23: .cfa -40 + ^ x24: .cfa -48 + ^ .ra: .cfa -56 + ^ x29: .cfa -64 + ^
STACK CFI 2f6d4 .cfa: sp 112 +
STACK CFI 2f6e8 .cfa: sp 0 +
STACK CFI 2f6ec .cfa: x29 64 +
STACK CFI 2f75c .cfa: sp 112 +
STACK CFI 2f770 .cfa: sp 0 +
STACK CFI 2f774 .cfa: x29 64 +
STACK CFI INIT 2f7a4 258 .cfa: sp 0 +
STACK CFI 2f7a8 .cfa: sp 96 +
STACK CFI 2f7c0 .cfa: x29 96 + x19: .cfa -8 + ^ x20: .cfa -16 + ^ x21: .cfa -24 + ^ x22: .cfa -32 + ^ x23: .cfa -40 + ^ x24: .cfa -48 + ^ x25: .cfa -56 + ^ x26: .cfa -64 + ^ x27: .cfa -72 + ^ x28: .cfa -80 + ^ .ra: .cfa -88 + ^ x29: .cfa -96 + ^
STACK CFI 2f9b8 .cfa: sp 96 +
STACK CFI 2f9d0 .cfa: sp 0 +
STACK CFI 2f9d4 .cfa: x29 96 +
STACK CFI 2f9e0 .cfa: sp 96 +
STACK CFI 2f9f8 .cfa: sp 0 +
STACK CFI INIT 30680 154 .cfa: sp 0 +
STACK CFI 30684 .cfa: sp 96 +
STACK CFI 30698 .cfa: x29 64 + x19: .cfa -8 + ^ x20: .cfa -16 + ^ x21: .cfa -24 + ^ x22: .cfa -32 + ^ x23: .cfa -48 + ^ .ra: .cfa -56 + ^ x29: .cfa -64 + ^
STACK CFI 30778 .cfa: sp 96 +
STACK CFI 3078c .cfa: sp 0 +
STACK CFI 30790 .cfa: x29 64 +
STACK CFI INIT 30a40 44 .cfa: sp 0 +
STACK CFI 30a44 .cfa: sp 32 +
STACK CFI 30a4c .cfa: x29 32 + x19: .cfa -16 + ^ .ra: .cfa -24 + ^ x29: .cfa -32 + ^
STACK CFI 30a68 .cfa: sp 32 +
STACK CFI 30a70 .cfa: sp 0 +
STACK CFI 30a74 .cfa: x29 32 +
STACK CFI 30a78 .cfa: sp 32 +
STACK CFI 30a80 .cfa: sp 0 +
STACK CFI INIT 30a84 1d0 .cfa: sp 0 +
STACK CFI 30a88 .cfa: sp 64 +
STACK CFI 30a98 .cfa: x29 64 + x19: .cfa -8 + ^ x20: .cfa -16 + ^ x21: .cfa -24 + ^ x22: .cfa -32 + ^ x23: .cfa -40 + ^ x24: .cfa -48 + ^ .ra: .cfa -56 + ^ x29: .cfa -64 + ^
STACK CFI 30b58 .cfa: sp 64 +
STACK CFI 30b68 .cfa: sp 0 +
STACK CFI 30b6c .cfa: x29 64 +
STACK CFI INIT 30c54 17c .cfa: sp 0 +
STACK CFI INIT 31188 a0 .cfa: sp 0 +
STACK CFI 3118c .cfa: sp 48 +
STACK CFI 31198 .cfa: x29 48 + x19: .cfa -8 + ^ x20: .cfa -16 + ^ x21: .cfa -24 + ^ x22: .cfa -32 + ^ .ra: .cfa -40 + ^ x29: .cfa -48 + ^
STACK CFI 31204 .cfa: sp 48 +
STACK CFI 31210 .cfa: sp 0 +
STACK CFI 31214 .cfa: sp 48 +
STACK CFI 31220 .cfa: sp 0 +
STACK CFI 31224 .cfa: x29 48 +
STACK CFI INIT 31ee8 158 .cfa: sp 0 +
STACK CFI 31eec .cfa: sp 96 +
STACK CFI 31f00 .cfa: x29 64 + x19: .cfa -8 + ^ x20: .cfa -16 + ^ x21: .cfa -24 + ^ x22: .cfa -32 + ^ x23: .cfa -48 + ^ .ra: .cfa -56 + ^ x29: .cfa -64 + ^
STACK CFI 31fe4 .cfa: sp 96 +
STACK CFI 31ff8 .cfa: sp 0 +
STACK CFI 31ffc .cfa: x29 64 +
STACK CFI INIT 32040 190 .cfa: sp 0 +
STACK CFI INIT 32cc8 1f4 .cfa: sp 0 +
STACK CFI 32ccc .cfa: sp 80 +
STACK CFI 32ce0 .cfa: x29 80 + x19: .cfa -8 + ^ x20: .cfa -16 + ^ x21: .cfa -24 + ^ x22: .cfa -32 + ^ x23: .cfa -40 + ^ x24: .cfa -48 + ^ x25: .cfa -64 + ^ .ra: .cfa -72 + ^ x29: .cfa -80 + ^
STACK CFI 32e80 .cfa: sp 80 +
STACK CFI 32e94 .cfa: sp 0 +
STACK CFI 32e98 .cfa: x29 80 +
STACK CFI 32ea4 .cfa: sp 80 +
STACK CFI 32eb8 .cfa: sp 0 +
STACK CFI INIT 342ec 124 .cfa: sp 0 +
STACK CFI 3431c .cfa: sp 32 +
STACK CFI 34324 .cfa: x29 32 + x19: .cfa -8 + ^ x20: .cfa -16 + ^ .ra: .cfa -24 + ^ x29: .cfa -32 + ^
STACK CFI 34404 .cfa: sp 32 +
STACK CFI 3440c .cfa: sp 0 +
STACK CFI INIT 34b6c 320 .cfa: sp 0 +
STACK CFI 34b70 .cfa: sp 64 +
STACK CFI 34b80 .cfa: x29 64 + x19: .cfa -8 + ^ x20: .cfa -16 + ^ x21: .cfa -24 + ^ x22: .cfa -32 + ^ x23: .cfa -40 + ^ x24: .cfa -48 + ^ .ra: .cfa -56 + ^ x29: .cfa -64 + ^
STACK CFI 34bfc .cfa: sp 64 +
STACK CFI 34c0c .cfa: sp 0 +
STACK CFI 34c10 .cfa: x29 64 +
STACK CFI 34de4 .cfa: sp 64 +
STACK CFI 34df4 .cfa: sp 0 +
STACK CFI 34df8 .cfa: x29 64 +
STACK CFI 34e08 .cfa: sp 64 +
STACK CFI 34e18 .cfa: sp 0 +
STACK CFI 34e1c .cfa: x29 64 +
STACK CFI INIT 34e8c a0 .cfa: sp 0 +
STACK CFI 34e90 .cfa: sp 48 +
STACK CFI 34e9c .cfa: x29 48 + x19: .cfa -8 + ^ x20: .cfa -16 + ^ x21: .cfa -24 + ^ x22: .cfa -32 + ^ .ra: .cfa -40 + ^ x29: .cfa -48 + ^
STACK CFI 34f08 .cfa: sp 48 +
STACK CFI 34f14 .cfa: sp 0 +
STACK CFI 34f18 .cfa: sp 48 +
STACK CFI 34f24 .cfa: sp 0 +
STACK CFI 34f28 .cfa: x29 48 +
STACK CFI INIT 35e0c 160 .cfa: sp 0 +
STACK CFI 35e10 .cfa: sp 64 +
STACK CFI 35e20 .cfa: x29 64 + x19: .cfa -8 + ^ x20: .cfa -16 + ^ x21: .cfa -24 + ^ x22: .cfa -32 + ^ x23: .cfa -48 + ^ .ra: .cfa -56 + ^ x29: .cfa -64 + ^
STACK CFI 35f18 .cfa: sp 64 +
STACK CFI 35f28 .cfa: sp 0 +
STACK CFI 35f2c .cfa: x29 64 +
STACK CFI INIT 35f6c 214 .cfa: sp 0 +
STACK CFI 35f70 .cfa: sp 128 +
STACK CFI 35f8c .cfa: x29 96 + x19: .cfa -8 + ^ x20: .cfa -16 + ^ x21: .cfa -24 + ^ x22: .cfa -32 + ^ x23: .cfa -40 + ^ x24: .cfa -48 + ^ x25: .cfa -56 + ^ x26: .cfa -64 + ^ x27: .cfa -80 + ^ .ra: .cfa -88 + ^ x29: .cfa -96 + ^
STACK CFI 36108 .cfa: sp 128 +
STACK CFI 36124 .cfa: sp 0 +
STACK CFI 36128 .cfa: x29 96 +
STACK CFI INIT 37634 e60 .cfa: sp 0 +
STACK CFI 37638 .cfa: sp 192 +
STACK CFI 37654 .cfa: x29 96 + x19: .cfa -8 + ^ x20: .cfa -16 + ^ x21: .cfa -24 + ^ x22: .cfa -32 + ^ x23: .cfa -40 + ^ x24: .cfa -48 + ^ x25: .cfa -56 + ^ x26: .cfa -64 + ^ x27: .cfa -72 + ^ x28: .cfa -80 + ^ .ra: .cfa -88 + ^ x29: .cfa -96 + ^
STACK CFI 3837c .cfa: sp 192 +
STACK CFI 38398 .cfa: sp 0 +
STACK CFI 3839c .cfa: x29 96 +
STACK CFI INIT 38494 1090 .cfa: sp 0 +
STACK CFI 38498 .cfa: sp 288 +
STACK CFI 384b4 .cfa: x29 96 + x19: .cfa -8 + ^ x20: .cfa -16 + ^ x21: .cfa -24 + ^ x22: .cfa -32 + ^ x23: .cfa -40 + ^ x24: .cfa -48 + ^ x25: .cfa -56 + ^ x26: .cfa -64 + ^ x27: .cfa -72 + ^ x28: .cfa -80 + ^ .ra: .cfa -88 + ^ x29: .cfa -96 + ^
STACK CFI 3926c .cfa: sp 288 +
STACK CFI 39288 .cfa: sp 0 +
STACK CFI 3928c .cfa: x29 96 +
STACK CFI INIT 39524 520 .cfa: sp 0 +
STACK CFI 39528 .cfa: sp 144 +
STACK CFI 39544 .cfa: x29 96 + x19: .cfa -8 + ^ x20: .cfa -16 + ^ x21: .cfa -24 + ^ x22: .cfa -32 + ^ x23: .cfa -40 + ^ x24: .cfa -48 + ^ x25: .cfa -56 + ^ x26: .cfa -64 + ^ x27: .cfa -72 + ^ x28: .cfa -80 + ^ .ra: .cfa -88 + ^ x29: .cfa -96 + ^
STACK CFI 39a20 .cfa: sp 144 +
STACK CFI 39a3c .cfa: sp 0 +
STACK CFI 39a40 .cfa: x29 96 +
STACK CFI INIT 1ace0 480 .cfa: sp 0 +
STACK CFI 1ace4 .cfa: sp 224 +
STACK CFI 1ad00 .cfa: x29 96 + x19: .cfa -8 + ^ x20: .cfa -16 + ^ x21: .cfa -24 + ^ x22: .cfa -32 + ^ x23: .cfa -40 + ^ x24: .cfa -48 + ^ x25: .cfa -56 + ^ x26: .cfa -64 + ^ x27: .cfa -80 + ^ .ra: .cfa -88 + ^ x29: .cfa -96 + ^
STACK CFI 1af6c .cfa: sp 224 +
STACK CFI 1af88 .cfa: sp 0 +
STACK CFI 1af8c .cfa: x29 96 +
STACK CFI 1b058 .cfa: sp 224 +
STACK CFI 1b074 .cfa: sp 0 +
STACK CFI 1b078 .cfa: x29 96 +
STACK CFI INIT 1b17c 648 .cfa: sp 0 +
STACK CFI 1b180 .cfa: sp 256 +
STACK CFI 1b198 .cfa: x29 80 + x19: .cfa -8 + ^ x20: .cfa -16 + ^ x21: .cfa -24 + ^ x22: .cfa -32 + ^ x23: .cfa -40 + ^ x24: .cfa -48 + ^ x25: .cfa -56 + ^ x26: .cfa -64 + ^ .ra: .cfa -72 + ^ x29: .cfa -80 + ^
STACK CFI 1b5ec .cfa: sp 256 +
STACK CFI 1b604 .cfa: sp 0 +
STACK CFI 1b608 .cfa: x29 80 +
STACK CFI INIT 1b814 74 .cfa: sp 0 +
STACK CFI 1b818 .cfa: sp 48 +
STACK CFI 1b824 .cfa: x29 32 + x19: .cfa -8 + ^ x20: .cfa -16 + ^ .ra: .cfa -24 + ^ x29: .cfa -32 + ^
STACK CFI 1b870 .cfa: sp 48 +
STACK CFI 1b87c .cfa: sp 0 +
STACK CFI 1b880 .cfa: x29 32 +
STACK CFI INIT 1b918 154 .cfa: sp 0 +
STACK CFI 1b91c .cfa: sp 384 +
STACK CFI 1b930 .cfa: x29 64 + x19: .cfa -8 + ^ x20: .cfa -16 + ^ x21: .cfa -24 + ^ x22: .cfa -32 + ^ x23: .cfa -40 + ^ x28: .cfa -48 + ^ .ra: .cfa -56 + ^ x29: .cfa -64 + ^
STACK CFI 1ba14 .cfa: sp 384 +
STACK CFI 1ba28 .cfa: sp 0 +
STACK CFI 1ba2c .cfa: x29 64 +
STACK CFI INIT 1baa0 12c .cfa: sp 0 +
STACK CFI 1baa4 .cfa: sp 80 +
STACK CFI 1bab8 .cfa: x29 80 + x19: .cfa -8 + ^ x20: .cfa -16 + ^ x21: .cfa -24 + ^ x22: .cfa -32 + ^ x23: .cfa -40 + ^ x24: .cfa -48 + ^ x25: .cfa -56 + ^ x26: .cfa -64 + ^ .ra: .cfa -72 + ^ x29: .cfa -80 + ^
STACK CFI 1bb80 .cfa: sp 80 +
STACK CFI 1bb94 .cfa: sp 0 +
STACK CFI 1bb98 .cfa: x29 80 +
STACK CFI INIT 1bc70 1a4 .cfa: sp 0 +
STACK CFI 1bc74 .cfa: sp 112 +
STACK CFI 1bc8c .cfa: x29 80 + x19: .cfa -8 + ^ x20: .cfa -16 + ^ x21: .cfa -24 + ^ x22: .cfa -32 + ^ x23: .cfa -40 + ^ x24: .cfa -48 + ^ x25: .cfa -56 + ^ x26: .cfa -64 + ^ .ra: .cfa -72 + ^ x29: .cfa -80 + ^
STACK CFI 1bd7c .cfa: sp 112 +
STACK CFI 1bd94 .cfa: sp 0 +
STACK CFI 1bd98 .cfa: x29 80 +
STACK CFI INIT 1be14 1dc .cfa: sp 0 +
STACK CFI 1be18 .cfa: sp 128 +
STACK CFI 1be34 .cfa: x29 96 + x19: .cfa -8 + ^ x20: .cfa -16 + ^ x21: .cfa -24 + ^ x22: .cfa -32 + ^ x23: .cfa -40 + ^ x24: .cfa -48 + ^ x25: .cfa -56 + ^ x26: .cfa -64 + ^ x27: .cfa -80 + ^ .ra: .cfa -88 + ^ x29: .cfa -96 + ^
STACK CFI 1bfa0 .cfa: sp 128 +
STACK CFI 1bfbc .cfa: sp 0 +
STACK CFI 1bfc0 .cfa: x29 96 +
STACK CFI INIT 1c004 50 .cfa: sp 0 +
STACK CFI 1c008 .cfa: sp 32 +
STACK CFI 1c010 .cfa: x29 32 + x19: .cfa -8 + ^ x20: .cfa -16 + ^ .ra: .cfa -24 + ^ x29: .cfa -32 + ^
STACK CFI INIT 1c0b8 178 .cfa: sp 0 +
STACK CFI 1c0bc .cfa: sp 80 +
STACK CFI 1c0d0 .cfa: x29 80 + x19: .cfa -8 + ^ x20: .cfa -16 + ^ x21: .cfa -24 + ^ x22: .cfa -32 + ^ x23: .cfa -40 + ^ x24: .cfa -48 + ^ x25: .cfa -64 + ^ .ra: .cfa -72 + ^ x29: .cfa -80 + ^
STACK CFI 1c1fc .cfa: sp 80 +
STACK CFI 1c210 .cfa: sp 0 +
STACK CFI 1c214 .cfa: x29 80 +
STACK CFI INIT 1c378 228 .cfa: sp 0 +
STACK CFI 1c37c .cfa: sp 128 +
STACK CFI 1c394 .cfa: x29 80 + x19: .cfa -8 + ^ x20: .cfa -16 + ^ x21: .cfa -24 + ^ x22: .cfa -32 + ^ x23: .cfa -40 + ^ x24: .cfa -48 + ^ x25: .cfa -64 + ^ .ra: .cfa -72 + ^ x29: .cfa -80 + ^
STACK CFI 1c530 .cfa: sp 128 +
STACK CFI 1c548 .cfa: sp 0 +
STACK CFI 1c54c .cfa: x29 80 +
STACK CFI INIT 1ccfc 104 .cfa: sp 0 +
STACK CFI 1cd00 .cfa: sp 80 +
STACK CFI 1cd10 .cfa: x29 48 + x19: .cfa -8 + ^ x20: .cfa -16 + ^ x21: .cfa -32 + ^ .ra: .cfa -40 + ^ x29: .cfa -48 + ^
STACK CFI 1cdbc .cfa: sp 80 +
STACK CFI 1cdcc .cfa: sp 0 +
STACK CFI 1cdd0 .cfa: x29 48 +
STACK CFI INIT 1ceec 8a4 .cfa: sp 0 +
STACK CFI 1cef0 .cfa: sp 368 +
STACK CFI 1cf10 .cfa: x29 96 + x19: .cfa -8 + ^ x20: .cfa -16 + ^ x21: .cfa -24 + ^ x22: .cfa -32 + ^ x23: .cfa -40 + ^ x24: .cfa -48 + ^ x25: .cfa -56 + ^ x26: .cfa -64 + ^ x27: .cfa -72 + ^ x28: .cfa -80 + ^ .ra: .cfa -88 + ^ x29: .cfa -96 + ^ v8: .cfa -112 + ^
STACK CFI 1d68c .cfa: sp 368 +
STACK CFI 1d6ac .cfa: sp 0 +
STACK CFI 1d6b0 .cfa: x29 96 +
STACK CFI INIT 1d790 65c .cfa: sp 0 +
STACK CFI 1d794 .cfa: sp 224 +
STACK CFI 1d7b0 .cfa: x29 96 + x19: .cfa -8 + ^ x20: .cfa -16 + ^ x21: .cfa -24 + ^ x22: .cfa -32 + ^ x23: .cfa -40 + ^ x24: .cfa -48 + ^ x25: .cfa -56 + ^ x26: .cfa -64 + ^ x27: .cfa -72 + ^ x28: .cfa -80 + ^ .ra: .cfa -88 + ^ x29: .cfa -96 + ^
STACK CFI 1dc7c .cfa: sp 224 +
STACK CFI 1dc98 .cfa: sp 0 +
STACK CFI 1dc9c .cfa: x29 96 +
STACK CFI INIT 1de2c 50 .cfa: sp 0 +
STACK CFI 1de30 .cfa: sp 32 +
STACK CFI 1de38 .cfa: x29 32 + x19: .cfa -8 + ^ x20: .cfa -16 + ^ .ra: .cfa -24 + ^ x29: .cfa -32 + ^
STACK CFI INIT 1e0b4 1d4 .cfa: sp 0 +
STACK CFI 1e0b8 .cfa: sp 320 +
STACK CFI 1e0d0 .cfa: x29 80 + x19: .cfa -8 + ^ x20: .cfa -16 + ^ x21: .cfa -24 + ^ x22: .cfa -32 + ^ x23: .cfa -40 + ^ x24: .cfa -48 + ^ x28: .cfa -64 + ^ .ra: .cfa -72 + ^ x29: .cfa -80 + ^
STACK CFI 1e23c .cfa: sp 320 +
STACK CFI 1e254 .cfa: sp 0 +
STACK CFI 1e258 .cfa: x29 80 +
STACK CFI INIT 21640 290 .cfa: sp 0 +
STACK CFI 21644 .cfa: sp 128 +
STACK CFI 2165c .cfa: x29 80 + x19: .cfa -8 + ^ x20: .cfa -16 + ^ x21: .cfa -24 + ^ x22: .cfa -32 + ^ x23: .cfa -40 + ^ x24: .cfa -48 + ^ x25: .cfa -56 + ^ x26: .cfa -64 + ^ .ra: .cfa -72 + ^ x29: .cfa -80 + ^
STACK CFI 21838 .cfa: sp 128 +
STACK CFI 21850 .cfa: sp 0 +
STACK CFI 21854 .cfa: x29 80 +
STACK CFI INIT 218d0 74 .cfa: sp 0 +
STACK CFI 218d4 .cfa: sp 48 +
STACK CFI 218e0 .cfa: x29 32 + x19: .cfa -8 + ^ x20: .cfa -16 + ^ .ra: .cfa -24 + ^ x29: .cfa -32 + ^
STACK CFI 2192c .cfa: sp 48 +
STACK CFI 21938 .cfa: sp 0 +
STACK CFI 2193c .cfa: x29 32 +
STACK CFI INIT 219ac 604 .cfa: sp 0 +
STACK CFI 219b0 .cfa: sp 80 +
STACK CFI 219c4 .cfa: x29 80 + x19: .cfa -8 + ^ x20: .cfa -16 + ^ x21: .cfa -24 + ^ x22: .cfa -32 + ^ x23: .cfa -40 + ^ x24: .cfa -48 + ^ x28: .cfa -64 + ^ .ra: .cfa -72 + ^ x29: .cfa -80 + ^
STACK CFI 21e18 .cfa: sp 80 +
STACK CFI 21e2c .cfa: sp 0 +
STACK CFI 21e30 .cfa: x29 80 +
STACK CFI INIT 22194 258 .cfa: sp 0 +
STACK CFI 22198 .cfa: sp 48 +
STACK CFI 221a4 .cfa: x29 48 + x19: .cfa -8 + ^ x20: .cfa -16 + ^ x21: .cfa -24 + ^ x22: .cfa -32 + ^ .ra: .cfa -40 + ^ x29: .cfa -48 + ^
STACK CFI 22300 .cfa: sp 48 +
STACK CFI 2230c .cfa: sp 0 +
STACK CFI 22310 .cfa: x29 48 +
STACK CFI INIT 22864 37c .cfa: sp 0 +
STACK CFI 22868 .cfa: sp 240 +
STACK CFI 22880 .cfa: x29 80 + x19: .cfa -8 + ^ x20: .cfa -16 + ^ x21: .cfa -24 + ^ x22: .cfa -32 + ^ x23: .cfa -40 + ^ x24: .cfa -48 + ^ x25: .cfa -56 + ^ x26: .cfa -64 + ^ .ra: .cfa -72 + ^ x29: .cfa -80 + ^
STACK CFI 22ad4 .cfa: sp 240 +
STACK CFI 22aec .cfa: sp 0 +
STACK CFI 22af0 .cfa: x29 80 +
STACK CFI INIT 22be0 538 .cfa: sp 0 +
STACK CFI 22be4 .cfa: sp 96 +
STACK CFI 22bfc .cfa: x29 96 + x19: .cfa -8 + ^ x20: .cfa -16 + ^ x21: .cfa -24 + ^ x22: .cfa -32 + ^ x23: .cfa -40 + ^ x24: .cfa -48 + ^ x25: .cfa -56 + ^ x26: .cfa -64 + ^ x27: .cfa -72 + ^ x28: .cfa -80 + ^ .ra: .cfa -88 + ^ x29: .cfa -96 + ^
STACK CFI 23020 .cfa: sp 96 +
STACK CFI 23038 .cfa: sp 0 +
STACK CFI 2303c .cfa: x29 96 +
STACK CFI INIT 2311c 1cc .cfa: sp 0 +
STACK CFI 23120 .cfa: sp 128 +
STACK CFI 23130 .cfa: x29 48 + x19: .cfa -8 + ^ x20: .cfa -16 + ^ x21: .cfa -32 + ^ .ra: .cfa -40 + ^ x29: .cfa -48 + ^
STACK CFI 2326c .cfa: sp 128 +
STACK CFI 2327c .cfa: sp 0 +
STACK CFI 23280 .cfa: x29 48 +
STACK CFI INIT 233e4 168 .cfa: sp 0 +
STACK CFI 233e8 .cfa: sp 384 +
STACK CFI 233fc .cfa: x29 64 + x19: .cfa -8 + ^ x20: .cfa -16 + ^ x21: .cfa -24 + ^ x22: .cfa -32 + ^ x23: .cfa -40 + ^ x28: .cfa -48 + ^ .ra: .cfa -56 + ^ x29: .cfa -64 + ^
STACK CFI 234f4 .cfa: sp 384 +
STACK CFI 23508 .cfa: sp 0 +
STACK CFI 2350c .cfa: x29 64 +
STACK CFI INIT 2365c 21c .cfa: sp 0 +
STACK CFI 23660 .cfa: sp 128 +
STACK CFI 23674 .cfa: x29 64 + x19: .cfa -8 + ^ x20: .cfa -16 + ^ x21: .cfa -24 + ^ x22: .cfa -32 + ^ x23: .cfa -40 + ^ x24: .cfa -48 + ^ .ra: .cfa -56 + ^ x29: .cfa -64 + ^
STACK CFI 237b0 .cfa: sp 128 +
STACK CFI 237c4 .cfa: sp 0 +
STACK CFI 237c8 .cfa: x29 64 +
STACK CFI INIT 23b34 1d0 .cfa: sp 0 +
STACK CFI 23b38 .cfa: sp 128 +
STACK CFI 23b4c .cfa: x29 64 + x19: .cfa -8 + ^ x20: .cfa -16 + ^ x21: .cfa -24 + ^ x22: .cfa -32 + ^ x23: .cfa -48 + ^ .ra: .cfa -56 + ^ x29: .cfa -64 + ^
STACK CFI 23cc4 .cfa: sp 128 +
STACK CFI 23cd8 .cfa: sp 0 +
STACK CFI 23cdc .cfa: x29 64 +
STACK CFI INIT 24018 1c4 .cfa: sp 0 +
STACK CFI 2401c .cfa: sp 112 +
STACK CFI 2402c .cfa: x29 48 + x19: .cfa -8 + ^ x20: .cfa -16 + ^ x21: .cfa -24 + ^ x22: .cfa -32 + ^ .ra: .cfa -40 + ^ x29: .cfa -48 + ^
STACK CFI 241a0 .cfa: sp 112 +
STACK CFI 241b0 .cfa: sp 0 +
STACK CFI 241b4 .cfa: x29 48 +
STACK CFI INIT 24248 aec .cfa: sp 0 +
STACK CFI 2424c .cfa: sp 96 +
STACK CFI 24264 .cfa: x29 96 + x19: .cfa -8 + ^ x20: .cfa -16 + ^ x21: .cfa -24 + ^ x22: .cfa -32 + ^ x23: .cfa -40 + ^ x24: .cfa -48 + ^ x25: .cfa -56 + ^ x26: .cfa -64 + ^ x27: .cfa -72 + ^ x28: .cfa -80 + ^ .ra: .cfa -88 + ^ x29: .cfa -96 + ^
STACK CFI 24afc .cfa: sp 96 +
STACK CFI 24b14 .cfa: sp 0 +
STACK CFI 24b18 .cfa: x29 96 +
STACK CFI INIT 24d5c 74 .cfa: sp 0 +
STACK CFI 24d60 .cfa: sp 48 +
STACK CFI 24d6c .cfa: x29 32 + x19: .cfa -8 + ^ x20: .cfa -16 + ^ .ra: .cfa -24 + ^ x29: .cfa -32 + ^
STACK CFI 24db8 .cfa: sp 48 +
STACK CFI 24dc4 .cfa: sp 0 +
STACK CFI 24dc8 .cfa: x29 32 +
STACK CFI INIT 24dd0 74 .cfa: sp 0 +
STACK CFI 24dd4 .cfa: sp 48 +
STACK CFI 24de0 .cfa: x29 32 + x19: .cfa -8 + ^ x20: .cfa -16 + ^ .ra: .cfa -24 + ^ x29: .cfa -32 + ^
STACK CFI 24e2c .cfa: sp 48 +
STACK CFI 24e38 .cfa: sp 0 +
STACK CFI 24e3c .cfa: x29 32 +
STACK CFI INIT 24e88 120 .cfa: sp 0 +
STACK CFI 24e8c .cfa: sp 32 +
STACK CFI 24e94 .cfa: x29 32 + x19: .cfa -8 + ^ x20: .cfa -16 + ^ .ra: .cfa -24 + ^ x29: .cfa -32 + ^
STACK CFI 24f40 .cfa: sp 32 +
STACK CFI 24f48 .cfa: sp 0 +
STACK CFI 24f4c .cfa: x29 32 +
STACK CFI INIT 24fa8 cbc .cfa: sp 0 +
STACK CFI 24fac .cfa: sp 128 +
STACK CFI 24fcc .cfa: x29 96 + x19: .cfa -8 + ^ x20: .cfa -16 + ^ x21: .cfa -24 + ^ x22: .cfa -32 + ^ x23: .cfa -40 + ^ x24: .cfa -48 + ^ x25: .cfa -56 + ^ x26: .cfa -64 + ^ x27: .cfa -72 + ^ x28: .cfa -80 + ^ .ra: .cfa -88 + ^ x29: .cfa -96 + ^ v8: .cfa -104 + ^ v9: .cfa -112 + ^ v10: .cfa -120 + ^ v11: .cfa -128 + ^
STACK CFI 25b04 .cfa: sp 128 +
STACK CFI 25b24 .cfa: sp 0 +
STACK CFI 25b28 .cfa: x29 96 +
STACK CFI INIT 25c64 108 .cfa: sp 0 +
STACK CFI 25c68 .cfa: sp 96 +
STACK CFI 25c74 .cfa: x29 32 + x19: .cfa -8 + ^ x20: .cfa -16 + ^ .ra: .cfa -24 + ^ x29: .cfa -32 + ^
STACK CFI 25d2c .cfa: sp 96 +
STACK CFI 25d38 .cfa: sp 0 +
STACK CFI 25d3c .cfa: x29 32 +
STACK CFI INIT 25d6c 178 .cfa: sp 0 +
STACK CFI 25d70 .cfa: sp 240 +
STACK CFI 25d7c .cfa: x29 32 + x19: .cfa -8 + ^ x20: .cfa -16 + ^ .ra: .cfa -24 + ^ x29: .cfa -32 + ^
STACK CFI 25e50 .cfa: sp 240 +
STACK CFI 25e5c .cfa: sp 0 +
STACK CFI 25e60 .cfa: x29 32 +
STACK CFI INIT 25ee4 17c .cfa: sp 0 +
STACK CFI 25ee8 .cfa: sp 80 +
STACK CFI 25ef8 .cfa: x29 48 + x19: .cfa -8 + ^ x20: .cfa -16 + ^ x21: .cfa -24 + ^ x22: .cfa -32 + ^ .ra: .cfa -40 + ^ x29: .cfa -48 + ^
STACK CFI 26024 .cfa: sp 80 +
STACK CFI 26034 .cfa: sp 0 +
STACK CFI 26038 .cfa: x29 48 +
STACK CFI INIT 26068 6c .cfa: sp 0 +
STACK CFI 2606c .cfa: sp 32 +
STACK CFI 26074 .cfa: x29 32 + x19: .cfa -16 + ^ .ra: .cfa -24 + ^ x29: .cfa -32 + ^
STACK CFI 260c4 .cfa: sp 32 +
STACK CFI 260cc .cfa: sp 0 +
STACK CFI 260d0 .cfa: x29 32 +
STACK CFI INIT 260d4 74 .cfa: sp 0 +
STACK CFI 260d8 .cfa: sp 32 +
STACK CFI 260e0 .cfa: x29 32 + x19: .cfa -16 + ^ .ra: .cfa -24 + ^ x29: .cfa -32 + ^
STACK CFI 26138 .cfa: sp 32 +
STACK CFI 26140 .cfa: sp 0 +
STACK CFI 26144 .cfa: x29 32 +
STACK CFI INIT 261a8 148 .cfa: sp 0 +
STACK CFI 261ac .cfa: sp 96 +
STACK CFI 261bc .cfa: x29 48 + x19: .cfa -8 + ^ x20: .cfa -16 + ^ x21: .cfa -32 + ^ .ra: .cfa -40 + ^ x29: .cfa -48 + ^
STACK CFI 262a4 .cfa: sp 96 +
STACK CFI 262b4 .cfa: sp 0 +
STACK CFI 262b8 .cfa: x29 48 +
STACK CFI INIT 262f0 6c .cfa: sp 0 +
STACK CFI 262f4 .cfa: sp 32 +
STACK CFI 262fc .cfa: x29 32 + x19: .cfa -16 + ^ .ra: .cfa -24 + ^ x29: .cfa -32 + ^
STACK CFI 2634c .cfa: sp 32 +
STACK CFI 26354 .cfa: sp 0 +
STACK CFI 26358 .cfa: x29 32 +
STACK CFI INIT 2635c 74 .cfa: sp 0 +
STACK CFI 26360 .cfa: sp 32 +
STACK CFI 26368 .cfa: x29 32 + x19: .cfa -16 + ^ .ra: .cfa -24 + ^ x29: .cfa -32 + ^
STACK CFI 263c0 .cfa: sp 32 +
STACK CFI 263c8 .cfa: sp 0 +
STACK CFI 263cc .cfa: x29 32 +
STACK CFI INIT 2641c 6c .cfa: sp 0 +
STACK CFI 26420 .cfa: sp 32 +
STACK CFI 26428 .cfa: x29 32 + x19: .cfa -16 + ^ .ra: .cfa -24 + ^ x29: .cfa -32 + ^
STACK CFI 26478 .cfa: sp 32 +
STACK CFI 26480 .cfa: sp 0 +
STACK CFI 26484 .cfa: x29 32 +
STACK CFI INIT 268a8 8c0 .cfa: sp 0 +
STACK CFI 268ac .cfa: sp 224 +
STACK CFI 268c8 .cfa: x29 96 + x19: .cfa -8 + ^ x20: .cfa -16 + ^ x21: .cfa -24 + ^ x22: .cfa -32 + ^ x23: .cfa -40 + ^ x24: .cfa -48 + ^ x25: .cfa -56 + ^ x26: .cfa -64 + ^ x27: .cfa -72 + ^ x28: .cfa -80 + ^ .ra: .cfa -88 + ^ x29: .cfa -96 + ^
STACK CFI 26f68 .cfa: sp 224 +
STACK CFI 26f84 .cfa: sp 0 +
STACK CFI 26f88 .cfa: x29 96 +
STACK CFI INIT 27610 78 .cfa: sp 0 +
STACK CFI 27614 .cfa: sp 32 +
STACK CFI 2761c .cfa: x29 32 + x19: .cfa -16 + ^ .ra: .cfa -24 + ^ x29: .cfa -32 + ^
STACK CFI 27678 .cfa: sp 32 +
STACK CFI 27680 .cfa: sp 0 +
STACK CFI 27684 .cfa: x29 32 +
STACK CFI INIT 27688 7c .cfa: sp 0 +
STACK CFI 2768c .cfa: sp 32 +
STACK CFI 27694 .cfa: x29 32 + x19: .cfa -8 + ^ x20: .cfa -16 + ^ .ra: .cfa -24 + ^ x29: .cfa -32 + ^
STACK CFI 276f4 .cfa: sp 32 +
STACK CFI 276fc .cfa: sp 0 +
STACK CFI 27700 .cfa: x29 32 +
STACK CFI INIT 27704 80 .cfa: sp 0 +
STACK CFI 27708 .cfa: sp 32 +
STACK CFI 27710 .cfa: x29 32 + x19: .cfa -16 + ^ .ra: .cfa -24 + ^ x29: .cfa -32 + ^
STACK CFI 27774 .cfa: sp 32 +
STACK CFI 2777c .cfa: sp 0 +
STACK CFI 27780 .cfa: x29 32 +
STACK CFI INIT 27784 84 .cfa: sp 0 +
STACK CFI 27788 .cfa: sp 32 +
STACK CFI 27790 .cfa: x29 32 + x19: .cfa -8 + ^ x20: .cfa -16 + ^ .ra: .cfa -24 + ^ x29: .cfa -32 + ^
STACK CFI 277f8 .cfa: sp 32 +
STACK CFI 27800 .cfa: sp 0 +
STACK CFI 27804 .cfa: x29 32 +
STACK CFI INIT 27aec 43c .cfa: sp 0 +
STACK CFI 27af0 .cfa: sp 224 +
STACK CFI 27b0c .cfa: x29 96 + x19: .cfa -8 + ^ x20: .cfa -16 + ^ x21: .cfa -24 + ^ x22: .cfa -32 + ^ x23: .cfa -40 + ^ x24: .cfa -48 + ^ x25: .cfa -56 + ^ x26: .cfa -64 + ^ x27: .cfa -72 + ^ x28: .cfa -80 + ^ .ra: .cfa -88 + ^ x29: .cfa -96 + ^
STACK CFI 27e20 .cfa: sp 224 +
STACK CFI 27e3c .cfa: sp 0 +
STACK CFI 27e40 .cfa: x29 96 +
STACK CFI INIT 27f44 308 .cfa: sp 0 +
STACK CFI 27f48 .cfa: sp 176 +
STACK CFI 27f5c .cfa: x29 64 + x19: .cfa -8 + ^ x20: .cfa -16 + ^ x21: .cfa -24 + ^ x22: .cfa -32 + ^ x23: .cfa -48 + ^ .ra: .cfa -56 + ^ x29: .cfa -64 + ^
STACK CFI 28144 .cfa: sp 176 +
STACK CFI 28158 .cfa: sp 0 +
STACK CFI 2815c .cfa: x29 64 +
STACK CFI INIT 2827c a8 .cfa: sp 0 +
STACK CFI 28280 .cfa: sp 32 +
STACK CFI 28288 .cfa: x29 32 + x19: .cfa -16 + ^ .ra: .cfa -24 + ^ x29: .cfa -32 + ^
STACK CFI 282bc .cfa: sp 32 +
STACK CFI 282c4 .cfa: sp 0 +
STACK CFI 282c8 .cfa: x29 32 +
STACK CFI 282cc .cfa: sp 32 +
STACK CFI 282d4 .cfa: sp 0 +
STACK CFI 282d8 .cfa: x29 32 +
STACK CFI INIT 283fc 2bc .cfa: sp 0 +
STACK CFI 28400 .cfa: sp 32 +
STACK CFI 28408 .cfa: x29 32 + x19: .cfa -16 + ^ .ra: .cfa -24 + ^ x29: .cfa -32 + ^
STACK CFI 2853c .cfa: sp 32 +
STACK CFI 28544 .cfa: sp 0 +
STACK CFI 28548 .cfa: x29 32 +
STACK CFI 28654 .cfa: sp 32 +
STACK CFI 2865c .cfa: sp 0 +
STACK CFI 28660 .cfa: x29 32 +
STACK CFI INIT 286b8 134 .cfa: sp 0 +
STACK CFI 286bc .cfa: sp 80 +
STACK CFI 286c8 .cfa: x29 32 + x19: .cfa -8 + ^ x20: .cfa -16 + ^ .ra: .cfa -24 + ^ x29: .cfa -32 + ^
STACK CFI 286f8 .cfa: sp 80 +
STACK CFI 28704 .cfa: sp 0 +
STACK CFI 28708 .cfa: x29 32 +
STACK CFI INIT 287ec 78 .cfa: sp 0 +
STACK CFI 287f0 .cfa: sp 32 +
STACK CFI 287f8 .cfa: x29 32 + x19: .cfa -8 + ^ x20: .cfa -16 + ^ .ra: .cfa -24 + ^ x29: .cfa -32 + ^
STACK CFI 28804 .cfa: sp 32 +
STACK CFI 2880c .cfa: sp 0 +
STACK CFI 28810 .cfa: x29 32 +
STACK CFI INIT 28864 74 .cfa: sp 0 +
STACK CFI 28868 .cfa: sp 48 +
STACK CFI 28874 .cfa: x29 32 + x19: .cfa -8 + ^ x20: .cfa -16 + ^ .ra: .cfa -24 + ^ x29: .cfa -32 + ^
STACK CFI 288c0 .cfa: sp 48 +
STACK CFI 288cc .cfa: sp 0 +
STACK CFI 288d0 .cfa: x29 32 +
STACK CFI INIT 2893c 16c .cfa: sp 0 +
STACK CFI 28940 .cfa: sp 112 +
STACK CFI 28950 .cfa: x29 48 + x19: .cfa -8 + ^ x20: .cfa -16 + ^ x21: .cfa -32 + ^ .ra: .cfa -40 + ^ x29: .cfa -48 + ^
STACK CFI 2899c .cfa: sp 112 +
STACK CFI 289ac .cfa: sp 0 +
STACK CFI 289b0 .cfa: x29 48 +
STACK CFI INIT 28aa8 194 .cfa: sp 0 +
STACK CFI 28aac .cfa: sp 112 +
STACK CFI 28abc .cfa: x29 48 + x19: .cfa -8 + ^ x20: .cfa -16 + ^ x21: .cfa -32 + ^ .ra: .cfa -40 + ^ x29: .cfa -48 + ^
STACK CFI 28b28 .cfa: sp 112 +
STACK CFI 28b38 .cfa: sp 0 +
STACK CFI 28b3c .cfa: x29 48 +
STACK CFI INIT 28c60 198 .cfa: sp 0 +
STACK CFI 28c64 .cfa: sp 112 +
STACK CFI 28c74 .cfa: x29 48 + x19: .cfa -8 + ^ x20: .cfa -16 + ^ x21: .cfa -32 + ^ .ra: .cfa -40 + ^ x29: .cfa -48 + ^
STACK CFI 28ce4 .cfa: sp 112 +
STACK CFI 28cf4 .cfa: sp 0 +
STACK CFI 28cf8 .cfa: x29 48 +
STACK CFI INIT 28e70 2d4 .cfa: sp 0 +
STACK CFI 28e74 .cfa: sp 112 +
STACK CFI 28e84 .cfa: x29 48 + x19: .cfa -8 + ^ x20: .cfa -16 + ^ x21: .cfa -32 + ^ .ra: .cfa -40 + ^ x29: .cfa -48 + ^
STACK CFI 28f58 .cfa: sp 112 +
STACK CFI 28f68 .cfa: sp 0 +
STACK CFI 28f6c .cfa: x29 48 +
STACK CFI INIT 29144 254 .cfa: sp 0 +
STACK CFI 29148 .cfa: sp 128 +
STACK CFI 2915c .cfa: x29 64 + x19: .cfa -8 + ^ x20: .cfa -16 + ^ x21: .cfa -24 + ^ x22: .cfa -32 + ^ x23: .cfa -48 + ^ .ra: .cfa -56 + ^ x29: .cfa -64 + ^
STACK CFI 2922c .cfa: sp 128 +
STACK CFI 29240 .cfa: sp 0 +
STACK CFI 29244 .cfa: x29 64 +
STACK CFI INIT 29498 1b8 .cfa: sp 0 +
STACK CFI 2949c .cfa: sp 160 +
STACK CFI 294b8 .cfa: x29 72 + x19: .cfa -8 + ^ x20: .cfa -16 + ^ x21: .cfa -24 + ^ x22: .cfa -32 + ^ x23: .cfa -40 + ^ x24: .cfa -48 + ^ x25: .cfa -56 + ^ .ra: .cfa -64 + ^ x29: .cfa -72 + ^ v8: .cfa -80 + ^
STACK CFI 2953c .cfa: sp 160 +
STACK CFI 29558 .cfa: sp 0 +
STACK CFI 2955c .cfa: x29 72 +
STACK CFI INIT 29650 4e4 .cfa: sp 0 +
STACK CFI 29654 .cfa: sp 96 +
STACK CFI 2966c .cfa: x29 80 + x19: .cfa -8 + ^ x20: .cfa -16 + ^ x21: .cfa -24 + ^ x22: .cfa -32 + ^ x23: .cfa -40 + ^ x24: .cfa -48 + ^ x25: .cfa -64 + ^ .ra: .cfa -72 + ^ x29: .cfa -80 + ^
STACK CFI 29ab0 .cfa: sp 96 +
STACK CFI 29ac8 .cfa: sp 0 +
STACK CFI 29acc .cfa: x29 80 +
STACK CFI INIT 29b34 180 .cfa: sp 0 +
STACK CFI 29b38 .cfa: sp 128 +
STACK CFI 29b48 .cfa: x29 48 + x19: .cfa -8 + ^ x20: .cfa -16 + ^ x21: .cfa -24 + ^ x22: .cfa -32 + ^ .ra: .cfa -40 + ^ x29: .cfa -48 + ^
STACK CFI 29bac .cfa: sp 128 +
STACK CFI 29bbc .cfa: sp 0 +
STACK CFI 29bc0 .cfa: x29 48 +
STACK CFI INIT 29cb4 a4 .cfa: sp 0 +
STACK CFI 29cb8 .cfa: sp 48 +
STACK CFI 29cc4 .cfa: x29 48 + x19: .cfa -8 + ^ x20: .cfa -16 + ^ x21: .cfa -32 + ^ .ra: .cfa -40 + ^ x29: .cfa -48 + ^
STACK CFI 29d30 .cfa: sp 48 +
STACK CFI 29d3c .cfa: sp 0 +
STACK CFI 29d40 .cfa: x29 48 +
STACK CFI INIT 29d5c 24c .cfa: sp 0 +
STACK CFI 29d60 .cfa: sp 128 +
STACK CFI 29d74 .cfa: x29 64 + x19: .cfa -8 + ^ x20: .cfa -16 + ^ x21: .cfa -24 + ^ x22: .cfa -32 + ^ x23: .cfa -48 + ^ .ra: .cfa -56 + ^ x29: .cfa -64 + ^
STACK CFI 29e3c .cfa: sp 128 +
STACK CFI 29e50 .cfa: sp 0 +
STACK CFI 29e54 .cfa: x29 64 +
STACK CFI INIT 29fa8 25c .cfa: sp 0 +
STACK CFI 29fac .cfa: sp 128 +
STACK CFI 29fc0 .cfa: x29 64 + x19: .cfa -8 + ^ x20: .cfa -16 + ^ x21: .cfa -24 + ^ x22: .cfa -32 + ^ x23: .cfa -48 + ^ .ra: .cfa -56 + ^ x29: .cfa -64 + ^
STACK CFI 2a098 .cfa: sp 128 +
STACK CFI 2a0ac .cfa: sp 0 +
STACK CFI 2a0b0 .cfa: x29 64 +
STACK CFI INIT 2a204 2bc .cfa: sp 0 +
STACK CFI 2a208 .cfa: sp 128 +
STACK CFI 2a21c .cfa: x29 64 + x19: .cfa -8 + ^ x20: .cfa -16 + ^ x21: .cfa -24 + ^ x22: .cfa -32 + ^ x23: .cfa -40 + ^ x24: .cfa -48 + ^ .ra: .cfa -56 + ^ x29: .cfa -64 + ^
STACK CFI 2a354 .cfa: sp 128 +
STACK CFI 2a368 .cfa: sp 0 +
STACK CFI 2a36c .cfa: x29 64 +
STACK CFI INIT 2a4c0 22c .cfa: sp 0 +
STACK CFI 2a4c4 .cfa: sp 128 +
STACK CFI 2a4d8 .cfa: x29 64 + x19: .cfa -8 + ^ x20: .cfa -16 + ^ x21: .cfa -24 + ^ x22: .cfa -32 + ^ x23: .cfa -48 + ^ .ra: .cfa -56 + ^ x29: .cfa -64 + ^
STACK CFI 2a580 .cfa: sp 128 +
STACK CFI 2a594 .cfa: sp 0 +
STACK CFI 2a598 .cfa: x29 64 +
STACK CFI INIT 2a6ec 22c .cfa: sp 0 +
STACK CFI 2a6f0 .cfa: sp 128 +
STACK CFI 2a704 .cfa: x29 64 + x19: .cfa -8 + ^ x20: .cfa -16 + ^ x21: .cfa -24 + ^ x22: .cfa -32 + ^ x23: .cfa -48 + ^ .ra: .cfa -56 + ^ x29: .cfa -64 + ^
STACK CFI 2a7ac .cfa: sp 128 +
STACK CFI 2a7c0 .cfa: sp 0 +
STACK CFI 2a7c4 .cfa: x29 64 +
STACK CFI INIT 2a918 154 .cfa: sp 0 +
STACK CFI 2a91c .cfa: sp 384 +
STACK CFI 2a930 .cfa: x29 64 + x19: .cfa -8 + ^ x20: .cfa -16 + ^ x21: .cfa -24 + ^ x22: .cfa -32 + ^ x23: .cfa -40 + ^ x28: .cfa -48 + ^ .ra: .cfa -56 + ^ x29: .cfa -64 + ^
STACK CFI 2aa14 .cfa: sp 384 +
STACK CFI 2aa28 .cfa: sp 0 +
STACK CFI 2aa2c .cfa: x29 64 +
STACK CFI INIT 2aa84 4e0 .cfa: sp 0 +
STACK CFI 2aa88 .cfa: sp 64 +
STACK CFI 2aa98 .cfa: x29 64 + x19: .cfa -8 + ^ x20: .cfa -16 + ^ x21: .cfa -24 + ^ x22: .cfa -32 + ^ x23: .cfa -40 + ^ x24: .cfa -48 + ^ .ra: .cfa -56 + ^ x29: .cfa -64 + ^
STACK CFI 2af38 .cfa: sp 64 +
STACK CFI 2af48 .cfa: sp 0 +
STACK CFI 2af4c .cfa: x29 64 +
STACK CFI INIT 2b294 294 .cfa: sp 0 +
STACK CFI 2b298 .cfa: sp 240 +
STACK CFI 2b2b0 .cfa: x29 80 + x19: .cfa -8 + ^ x20: .cfa -16 + ^ x21: .cfa -24 + ^ x22: .cfa -32 + ^ x23: .cfa -40 + ^ x24: .cfa -48 + ^ x25: .cfa -64 + ^ .ra: .cfa -72 + ^ x29: .cfa -80 + ^
STACK CFI 2b450 .cfa: sp 240 +
STACK CFI 2b468 .cfa: sp 0 +
STACK CFI 2b46c .cfa: x29 80 +
STACK CFI INIT 2b5a4 50 .cfa: sp 0 +
STACK CFI 2b5a8 .cfa: sp 32 +
STACK CFI 2b5b0 .cfa: x29 32 + x19: .cfa -8 + ^ x20: .cfa -16 + ^ .ra: .cfa -24 + ^ x29: .cfa -32 + ^
STACK CFI INIT 2b620 7c0 .cfa: sp 0 +
STACK CFI 2b624 .cfa: sp 320 +
STACK CFI 2b640 .cfa: x29 96 + x19: .cfa -8 + ^ x20: .cfa -16 + ^ x21: .cfa -24 + ^ x22: .cfa -32 + ^ x23: .cfa -40 + ^ x24: .cfa -48 + ^ x25: .cfa -56 + ^ x26: .cfa -64 + ^ x27: .cfa -72 + ^ x28: .cfa -80 + ^ .ra: .cfa -88 + ^ x29: .cfa -96 + ^
STACK CFI 2bc90 .cfa: sp 320 +
STACK CFI 2bcac .cfa: sp 0 +
STACK CFI 2bcb0 .cfa: x29 96 +
STACK CFI INIT 2f9fc c84 .cfa: sp 0 +
STACK CFI 2fa00 .cfa: sp 96 +
STACK CFI 2fa18 .cfa: x29 96 + x19: .cfa -8 + ^ x20: .cfa -16 + ^ x21: .cfa -24 + ^ x22: .cfa -32 + ^ x23: .cfa -40 + ^ x24: .cfa -48 + ^ x25: .cfa -56 + ^ x26: .cfa -64 + ^ x27: .cfa -72 + ^ x28: .cfa -80 + ^ .ra: .cfa -88 + ^ x29: .cfa -96 + ^
STACK CFI 304a0 .cfa: sp 96 +
STACK CFI 304b8 .cfa: sp 0 +
STACK CFI 304bc .cfa: x29 96 +
STACK CFI INIT 307d4 26c .cfa: sp 0 +
STACK CFI 307d8 .cfa: sp 128 +
STACK CFI 307e8 .cfa: x29 48 + x19: .cfa -8 + ^ x20: .cfa -16 + ^ x21: .cfa -24 + ^ x22: .cfa -32 + ^ .ra: .cfa -40 + ^ x29: .cfa -48 + ^
STACK CFI 3098c .cfa: sp 128 +
STACK CFI 3099c .cfa: sp 0 +
STACK CFI 309a0 .cfa: x29 48 +
STACK CFI INIT 30dd0 3b8 .cfa: sp 0 +
STACK CFI 30dd4 .cfa: sp 96 +
STACK CFI 30dec .cfa: x29 96 + x19: .cfa -8 + ^ x20: .cfa -16 + ^ x21: .cfa -24 + ^ x22: .cfa -32 + ^ x23: .cfa -40 + ^ x24: .cfa -48 + ^ x25: .cfa -56 + ^ x26: .cfa -64 + ^ x27: .cfa -72 + ^ x28: .cfa -80 + ^ .ra: .cfa -88 + ^ x29: .cfa -96 + ^
STACK CFI 31128 .cfa: sp 96 +
STACK CFI 31140 .cfa: sp 0 +
STACK CFI 31144 .cfa: x29 96 +
STACK CFI INIT 31228 cc0 .cfa: sp 0 +
STACK CFI 3122c .cfa: sp 96 +
STACK CFI 31244 .cfa: x29 96 + x19: .cfa -8 + ^ x20: .cfa -16 + ^ x21: .cfa -24 + ^ x22: .cfa -32 + ^ x23: .cfa -40 + ^ x24: .cfa -48 + ^ x25: .cfa -56 + ^ x26: .cfa -64 + ^ x27: .cfa -72 + ^ x28: .cfa -80 + ^ .ra: .cfa -88 + ^ x29: .cfa -96 + ^
STACK CFI 31cf8 .cfa: sp 96 +
STACK CFI 31d10 .cfa: sp 0 +
STACK CFI 31d14 .cfa: x29 96 +
STACK CFI INIT 321d0 af8 .cfa: sp 0 +
STACK CFI 321d4 .cfa: sp 96 +
STACK CFI 321ec .cfa: x29 96 + x19: .cfa -8 + ^ x20: .cfa -16 + ^ x21: .cfa -24 + ^ x22: .cfa -32 + ^ x23: .cfa -40 + ^ x24: .cfa -48 + ^ x25: .cfa -56 + ^ x26: .cfa -64 + ^ x27: .cfa -72 + ^ x28: .cfa -80 + ^ .ra: .cfa -88 + ^ x29: .cfa -96 + ^
STACK CFI 32c3c .cfa: sp 96 +
STACK CFI 32c54 .cfa: sp 0 +
STACK CFI 32c58 .cfa: x29 96 +
STACK CFI INIT 32ebc 1430 .cfa: sp 0 +
STACK CFI 32ec0 .cfa: sp 96 +
STACK CFI 32ed8 .cfa: x29 96 + x19: .cfa -8 + ^ x20: .cfa -16 + ^ x21: .cfa -24 + ^ x22: .cfa -32 + ^ x23: .cfa -40 + ^ x24: .cfa -48 + ^ x25: .cfa -56 + ^ x26: .cfa -64 + ^ x27: .cfa -72 + ^ x28: .cfa -80 + ^ .ra: .cfa -88 + ^ x29: .cfa -96 + ^
STACK CFI 34174 .cfa: sp 96 +
STACK CFI 3418c .cfa: sp 0 +
STACK CFI 34190 .cfa: x29 96 +
STACK CFI INIT 34410 75c .cfa: sp 0 +
STACK CFI 34414 .cfa: sp 368 +
STACK CFI 34430 .cfa: x29 96 + x19: .cfa -8 + ^ x20: .cfa -16 + ^ x21: .cfa -24 + ^ x22: .cfa -32 + ^ x23: .cfa -40 + ^ x24: .cfa -48 + ^ x25: .cfa -56 + ^ x26: .cfa -64 + ^ x27: .cfa -72 + ^ x28: .cfa -80 + ^ .ra: .cfa -88 + ^ x29: .cfa -96 + ^
STACK CFI 344e4 .cfa: sp 368 +
STACK CFI 34500 .cfa: sp 0 +
STACK CFI 34504 .cfa: x29 96 +
STACK CFI 34558 .cfa: sp 368 +
STACK CFI 34574 .cfa: sp 0 +
STACK CFI 34578 .cfa: x29 96 +
STACK CFI INIT 34f2c ee0 .cfa: sp 0 +
STACK CFI 34f30 .cfa: sp 96 +
STACK CFI 34f48 .cfa: x29 96 + x19: .cfa -8 + ^ x20: .cfa -16 + ^ x21: .cfa -24 + ^ x22: .cfa -32 + ^ x23: .cfa -40 + ^ x24: .cfa -48 + ^ x25: .cfa -56 + ^ x26: .cfa -64 + ^ x27: .cfa -72 + ^ x28: .cfa -80 + ^ .ra: .cfa -88 + ^ x29: .cfa -96 + ^
STACK CFI 35c04 .cfa: sp 96 +
STACK CFI 35c1c .cfa: sp 0 +
STACK CFI 35c20 .cfa: x29 96 +
STACK CFI INIT 36180 14b4 .cfa: sp 0 +
STACK CFI 36184 .cfa: sp 112 +
STACK CFI 361a0 .cfa: x29 96 + x19: .cfa -8 + ^ x20: .cfa -16 + ^ x21: .cfa -24 + ^ x22: .cfa -32 + ^ x23: .cfa -40 + ^ x24: .cfa -48 + ^ x25: .cfa -56 + ^ x26: .cfa -64 + ^ x27: .cfa -72 + ^ x28: .cfa -80 + ^ .ra: .cfa -88 + ^ x29: .cfa -96 + ^ v8: .cfa -112 + ^
STACK CFI 36580 .cfa: sp 112 +
STACK CFI 3659c .cfa: sp 0 +
STACK CFI 365a0 .cfa: x29 96 +
STACK CFI INIT 39a44 9a0 .cfa: sp 0 +
STACK CFI 39a48 .cfa: sp 144 +
STACK CFI 39a60 .cfa: x29 80 + x19: .cfa -8 + ^ x20: .cfa -16 + ^ x21: .cfa -24 + ^ x22: .cfa -32 + ^ x23: .cfa -40 + ^ x24: .cfa -48 + ^ x25: .cfa -64 + ^ .ra: .cfa -72 + ^ x29: .cfa -80 + ^
STACK CFI 3a360 .cfa: sp 144 +
STACK CFI 3a378 .cfa: sp 0 +
STACK CFI 3a37c .cfa: x29 80 +
STACK CFI INIT 3a3e4 57c .cfa: sp 0 +
STACK CFI 3a3e8 .cfa: sp 96 +
STACK CFI 3a400 .cfa: x29 96 + x19: .cfa -8 + ^ x20: .cfa -16 + ^ x21: .cfa -24 + ^ x22: .cfa -32 + ^ x23: .cfa -40 + ^ x24: .cfa -48 + ^ x25: .cfa -56 + ^ x26: .cfa -64 + ^ x27: .cfa -72 + ^ x28: .cfa -80 + ^ .ra: .cfa -88 + ^ x29: .cfa -96 + ^
STACK CFI 3a8c4 .cfa: sp 96 +
STACK CFI 3a8dc .cfa: sp 0 +
STACK CFI 3a8e0 .cfa: x29 96 +
STACK CFI INIT 3a960 67c .cfa: sp 0 +
STACK CFI 3a964 .cfa: sp 96 +
STACK CFI 3a97c .cfa: x29 96 + x19: .cfa -8 + ^ x20: .cfa -16 + ^ x21: .cfa -24 + ^ x22: .cfa -32 + ^ x23: .cfa -40 + ^ x24: .cfa -48 + ^ x25: .cfa -56 + ^ x26: .cfa -64 + ^ x27: .cfa -72 + ^ x28: .cfa -80 + ^ .ra: .cfa -88 + ^ x29: .cfa -96 + ^
STACK CFI 3af40 .cfa: sp 96 +
STACK CFI 3af58 .cfa: sp 0 +
STACK CFI 3af5c .cfa: x29 96 +
