MODULE Linux arm64 E0151604380998EA7D4ED01C10F585CE0 raydeeux_thesillydoggo.decimalpercentages.android64.so
INFO CODE_ID 041615E00938EA987D4ED01C10F585CEFBAB079B
INFO GENERATOR mozilla/dump_syms 2.3.4
PUBLIC 11d90 0 __on_dlclose
PUBLIC 11da0 0 __emutls_unregister_key
PUBLIC 11da8 0 __on_dlclose_late
PUBLIC 11db0 0 __atexit_handler_wrapper
PUBLIC 11dc4 0 atexit
PUBLIC 11de0 0 pthread_atfork
PUBLIC 11df0 0 unwind_phase2
PUBLIC 11f24 0 _Unwind_Resume
PUBLIC 11fa8 0 unwind_phase2_forced
PUBLIC m 1209c 0 __unw_init_local
PUBLIC m 12144 0 __unw_get_reg
PUBLIC 121c0 0 __unw_step_stage2
PUBLIC m 121d4 0 __unw_get_proc_info
PUBLIC m 12214 0 __unw_resume
PUBLIC 1223c 0 libunwind::CFI_Parser<libunwind::LocalAddressSpace>::decodeFDE(libunwind::LocalAddressSpace&, unsigned long, libunwind::CFI_Parser<libunwind::LocalAddressSpace>::FDE_Info*, libunwind::CFI_Parser<libunwind::LocalAddressSpace>::CIE_Info*, bool)
PUBLIC 123cc 0 libunwind::CFI_Parser<libunwind::LocalAddressSpace>::parseCIE(libunwind::LocalAddressSpace&, unsigned long, libunwind::CFI_Parser<libunwind::LocalAddressSpace>::CIE_Info*)
PUBLIC 12694 0 libunwind::AbstractUnwindCursor::~AbstractUnwindCursor()
PUBLIC 1269c 0 libunwind::UnwindCursor<libunwind::LocalAddressSpace, libunwind::Registers_arm64>::~UnwindCursor()
PUBLIC 126a4 0 libunwind::UnwindCursor<libunwind::LocalAddressSpace, libunwind::Registers_arm64>::validReg(int)
PUBLIC 126e8 0 libunwind::UnwindCursor<libunwind::LocalAddressSpace, libunwind::Registers_arm64>::getReg(int)
PUBLIC 127d0 0 libunwind::UnwindCursor<libunwind::LocalAddressSpace, libunwind::Registers_arm64>::setReg(int, unsigned long)
PUBLIC 128b8 0 libunwind::UnwindCursor<libunwind::LocalAddressSpace, libunwind::Registers_arm64>::validFloatReg(int)
PUBLIC 128cc 0 libunwind::UnwindCursor<libunwind::LocalAddressSpace, libunwind::Registers_arm64>::getFloatReg(int)
PUBLIC 128dc 0 libunwind::UnwindCursor<libunwind::LocalAddressSpace, libunwind::Registers_arm64>::setFloatReg(int, double)
PUBLIC 128ec 0 libunwind::UnwindCursor<libunwind::LocalAddressSpace, libunwind::Registers_arm64>::step(bool)
PUBLIC 129dc 0 libunwind::UnwindCursor<libunwind::LocalAddressSpace, libunwind::Registers_arm64>::getInfo(unw_proc_info_t*)
PUBLIC 12a20 0 libunwind::UnwindCursor<libunwind::LocalAddressSpace, libunwind::Registers_arm64>::jumpto()
PUBLIC 12a2c 0 libunwind::UnwindCursor<libunwind::LocalAddressSpace, libunwind::Registers_arm64>::isSignalFrame()
PUBLIC 12a38 0 libunwind::UnwindCursor<libunwind::LocalAddressSpace, libunwind::Registers_arm64>::getFunctionName(char*, unsigned long, unsigned long*)
PUBLIC 12a64 0 libunwind::UnwindCursor<libunwind::LocalAddressSpace, libunwind::Registers_arm64>::setInfoBasedOnIPRegister(bool)
PUBLIC 12ce4 0 libunwind::UnwindCursor<libunwind::LocalAddressSpace, libunwind::Registers_arm64>::getRegisterName(int)
PUBLIC 12cf0 0 libunwind::UnwindCursor<libunwind::LocalAddressSpace, libunwind::Registers_arm64>::stepThroughSigReturn(libunwind::Registers_arm64&)
PUBLIC 12e10 0 libunwind::DwarfInstructions<libunwind::LocalAddressSpace, libunwind::Registers_arm64>::stepWithDwarf(libunwind::LocalAddressSpace&, unsigned long, unsigned long, libunwind::Registers_arm64&, bool&, bool)
PUBLIC 13298 0 libunwind::CFI_Parser<libunwind::LocalAddressSpace>::parseFDEInstructions(libunwind::LocalAddressSpace&, libunwind::CFI_Parser<libunwind::LocalAddressSpace>::FDE_Info const&, libunwind::CFI_Parser<libunwind::LocalAddressSpace>::CIE_Info const&, unsigned long, int, libunwind::CFI_Parser<libunwind::LocalAddressSpace>::PrologInfo*)
PUBLIC 13ee0 0 libunwind::DwarfInstructions<libunwind::LocalAddressSpace, libunwind::Registers_arm64>::getCFA(libunwind::LocalAddressSpace&, libunwind::CFI_Parser<libunwind::LocalAddressSpace>::PrologInfo const&, libunwind::Registers_arm64 const&)
PUBLIC 14014 0 libunwind::DwarfInstructions<libunwind::LocalAddressSpace, libunwind::Registers_arm64>::getSavedRegister(libunwind::LocalAddressSpace&, libunwind::Registers_arm64 const&, unsigned long, libunwind::CFI_Parser<libunwind::LocalAddressSpace>::RegisterLocation const&)
PUBLIC 14224 0 libunwind::LocalAddressSpace::getEncodedP(unsigned long&, unsigned long, unsigned char, unsigned long)
PUBLIC 145b0 0 libunwind::LocalAddressSpace::getULEB128(unsigned long&, unsigned long)
PUBLIC 14778 0 libunwind::DwarfInstructions<libunwind::LocalAddressSpace, libunwind::Registers_arm64>::evaluateExpression(unsigned long, libunwind::LocalAddressSpace&, libunwind::Registers_arm64 const&, unsigned long)
PUBLIC 15134 0 libunwind::UnwindCursor<libunwind::LocalAddressSpace, libunwind::Registers_arm64>::getInfoFromDwarfSection(unsigned long, libunwind::UnwindInfoSections const&, unsigned int)
PUBLIC 15408 0 libunwind::findUnwindSectionsByPhdr(dl_phdr_info*, unsigned long, void*)
PUBLIC 1553c 0 libunwind::EHHeaderParser<libunwind::LocalAddressSpace>::decodeEHHdr(libunwind::LocalAddressSpace&, unsigned long, unsigned long, libunwind::EHHeaderParser<libunwind::LocalAddressSpace>::EHHeaderInfo&)
PUBLIC 1565c 0 libunwind::CFI_Parser<libunwind::LocalAddressSpace>::findFDE(libunwind::LocalAddressSpace&, unsigned long, unsigned long, unsigned long, unsigned long, libunwind::CFI_Parser<libunwind::LocalAddressSpace>::FDE_Info*, libunwind::CFI_Parser<libunwind::LocalAddressSpace>::CIE_Info*)
PUBLIC 15824 0 libunwind::EHHeaderParser<libunwind::LocalAddressSpace>::findFDE(libunwind::LocalAddressSpace&, unsigned long, unsigned long, unsigned int, libunwind::CFI_Parser<libunwind::LocalAddressSpace>::FDE_Info*, libunwind::CFI_Parser<libunwind::LocalAddressSpace>::CIE_Info*)
PUBLIC 1598c 0 libunwind::EHHeaderParser<libunwind::LocalAddressSpace>::getTableEntrySize(unsigned char)
PUBLIC 15a88 0 libunwind::Registers_arm64::getRegisterName(int)
PUBLIC 15ab8 0 __libunwind_Registers_arm64_jumpto
PUBLIC m 15b48 0 __unw_getcontext
PUBLIC 15bf0 0 __aarch64_ldadd8_acq_rel
PUBLIC 15c20 0 init_have_lse_atomics
PUBLIC 15cb8 0 __init_cpu_features_constructor
PUBLIC 16254 0 __init_cpu_features
PUBLIC 162e0 0 __aarch64_ldadd8_relax
PUBLIC 16310 0 std::__ndk1::basic_regex<char, std::__ndk1::regex_traits<char> >::basic_regex[abi:ne180000](char const*, std::__ndk1::regex_constants::syntax_option_type)
PUBLIC 163d8 0 std::__ndk1::basic_regex<char, std::__ndk1::regex_traits<char> >::~basic_regex()
PUBLIC 16438 0 getBool(std::__ndk1::basic_string_view<char, std::__ndk1::char_traits<char> > const&)
PUBLIC 16484 0 geode::Mod::getSettingValue<bool>(std::__ndk1::basic_string_view<char, std::__ndk1::char_traits<char> >) const
PUBLIC 165b4 0 geode::Mod::getSettingValue<long>(std::__ndk1::basic_string_view<char, std::__ndk1::char_traits<char> >) const
PUBLIC 166d4 0 getPercentageForLevel(GJGameLevel*, bool)
PUBLIC 16d90 0 roundPercentage(float, bool)
PUBLIC 17580 0 std::__ndk1::sub_match<std::__ndk1::__wrap_iter<char const*> >::str[abi:ne180000]() const
PUBLIC 176a0 0 decimalPercentAsString(GJGameLevel*, bool, bool)
PUBLIC 17784 0 __cxx_global_var_init.16
PUBLIC 17be0 0 __cxx_global_var_init.17
PUBLIC 181b8 0 _GLOBAL__sub_I_main.cpp
PUBLIC 1822c 0 geode::modifier::ModifyBase<geode::modifier::ModifyDerive<hook89<(anonymous namespace)::hook89Parent>, MenuLayer> >::~ModifyBase()
PUBLIC 18244 0 geode::modifier::ModifyBase<geode::modifier::ModifyDerive<hook97<(anonymous namespace)::hook97Parent>, GJGameLevel> >::~ModifyBase()
PUBLIC 1825c 0 __cxx_global_var_init.18
PUBLIC 18814 0 geode::modifier::ModifyBase<geode::modifier::ModifyDerive<MyLevelInfoLayer, LevelInfoLayer> >::~ModifyBase()
PUBLIC 1882c 0 __cxx_global_var_init.19
PUBLIC 18e28 0 geode::modifier::ModifyBase<geode::modifier::ModifyDerive<MyPauseLayer, PauseLayer> >::~ModifyBase()
PUBLIC 18e40 0 __cxx_global_var_init.20
PUBLIC 1943c 0 geode::modifier::ModifyBase<geode::modifier::ModifyDerive<MyLevelCell, LevelCell> >::~ModifyBase()
PUBLIC 19454 0 __cxx_global_var_init.21
PUBLIC 19a50 0 geode::modifier::ModifyBase<geode::modifier::ModifyDerive<MyLevelPage, LevelPage> >::~ModifyBase()
PUBLIC 19a68 0 __cxx_global_var_init.22
PUBLIC 1a064 0 geode::modifier::ModifyBase<geode::modifier::ModifyDerive<MyPlayLayer, PlayLayer> >::~ModifyBase()
PUBLIC 1a07c 0 std::__ndk1::shared_ptr<std::__ndk1::__empty_state<char> >::~shared_ptr[abi:ne180000]()
PUBLIC 1a0cc 0 __clang_call_terminate
PUBLIC 1a0dc 0 std::__ndk1::basic_string<char, std::__ndk1::char_traits<char>, std::__ndk1::allocator<char> >::__throw_length_error[abi:ne180000]() const
PUBLIC 1a0f0 0 std::__ndk1::__throw_length_error[abi:ne180000](char const*)
PUBLIC 1a140 0 std::length_error::length_error[abi:ne180000](char const*)
PUBLIC 1a170 0 std::__throw_bad_array_new_length([abi:ne180000], void)
PUBLIC 1a1a4 0 std::__ndk1::basic_regex<char, std::__ndk1::regex_traits<char> >::__parse<char const*>(char const*, char const*)
PUBLIC 1a868 0 std::__ndk1::__throw_regex_error[abi:ne180000]<(std::__ndk1::regex_constants::error_type)17>()
PUBLIC 1a8b4 0 std::__ndk1::basic_regex<char, std::__ndk1::regex_traits<char> >::__parse_ecma_exp<char const*>(char const*, char const*)
PUBLIC 1ab20 0 std::__ndk1::basic_regex<char, std::__ndk1::regex_traits<char> >::__parse_basic_reg_exp<char const*>(char const*, char const*)
PUBLIC 1acc8 0 std::__ndk1::basic_regex<char, std::__ndk1::regex_traits<char> >::__parse_extended_reg_exp<char const*>(char const*, char const*)
PUBLIC 1ae38 0 std::__ndk1::__throw_regex_error[abi:ne180000]<(std::__ndk1::regex_constants::error_type)14>()
PUBLIC 1ae84 0 std::__ndk1::__end_state<char>::~__end_state()
PUBLIC 1ae88 0 std::__ndk1::__end_state<char>::__exec(std::__ndk1::__state<char>&) const
PUBLIC 1ae94 0 std::__ndk1::__node<char>::__exec_split(bool, std::__ndk1::__state<char>&) const
PUBLIC 1ae98 0 std::__ndk1::__node<char>::__exec(std::__ndk1::__state<char>&) const
PUBLIC 1ae9c 0 std::__ndk1::__shared_ptr_pointer<std::__ndk1::__empty_state<char>*, std::__ndk1::shared_ptr<std::__ndk1::__empty_state<char> >::__shared_ptr_default_delete<std::__ndk1::__empty_state<char>, std::__ndk1::__empty_state<char> >, std::__ndk1::allocator<std::__ndk1::__empty_state<char> > >::~__shared_ptr_pointer()
PUBLIC 1aec0 0 std::__ndk1::__shared_ptr_pointer<std::__ndk1::__empty_state<char>*, std::__ndk1::shared_ptr<std::__ndk1::__empty_state<char> >::__shared_ptr_default_delete<std::__ndk1::__empty_state<char>, std::__ndk1::__empty_state<char> >, std::__ndk1::allocator<std::__ndk1::__empty_state<char> > >::__on_zero_shared()
PUBLIC 1aed8 0 std::__ndk1::__shared_ptr_pointer<std::__ndk1::__empty_state<char>*, std::__ndk1::shared_ptr<std::__ndk1::__empty_state<char> >::__shared_ptr_default_delete<std::__ndk1::__empty_state<char>, std::__ndk1::__empty_state<char> >, std::__ndk1::allocator<std::__ndk1::__empty_state<char> > >::__get_deleter(std::type_info const&) const
PUBLIC 1aef4 0 std::__ndk1::__shared_ptr_pointer<std::__ndk1::__empty_state<char>*, std::__ndk1::shared_ptr<std::__ndk1::__empty_state<char> >::__shared_ptr_default_delete<std::__ndk1::__empty_state<char>, std::__ndk1::__empty_state<char> >, std::__ndk1::allocator<std::__ndk1::__empty_state<char> > >::__on_zero_shared_weak()
PUBLIC 1aef8 0 std::__ndk1::__empty_state<char>::~__empty_state()
PUBLIC 1af40 0 std::__ndk1::__empty_state<char>::__exec(std::__ndk1::__state<char>&) const
PUBLIC 1af54 0 std::__ndk1::__owns_one_state<char>::~__owns_one_state()
PUBLIC 1af9c 0 std::__ndk1::basic_regex<char, std::__ndk1::regex_traits<char> >::__parse_assertion<char const*>(char const*, char const*)
PUBLIC 1b300 0 std::__ndk1::basic_regex<char, std::__ndk1::regex_traits<char> >::__parse_atom<char const*>(char const*, char const*)
PUBLIC 1b944 0 std::__ndk1::basic_regex<char, std::__ndk1::regex_traits<char> >::__parse_ERE_dupl_symbol<char const*>(char const*, char const*, std::__ndk1::__owns_one_state<char>*, unsigned int, unsigned int)
PUBLIC 1bd38 0 std::__ndk1::basic_regex<char, std::__ndk1::regex_traits<char> >::basic_regex[abi:ne180000]()
PUBLIC 1bda4 0 std::__ndk1::basic_regex<char, std::__ndk1::regex_traits<char> >::__push_lookahead(std::__ndk1::basic_regex<char, std::__ndk1::regex_traits<char> > const&, bool, unsigned int)
PUBLIC 1be58 0 std::__ndk1::__throw_regex_error[abi:ne180000]<(std::__ndk1::regex_constants::error_type)6>()
PUBLIC 1bea4 0 std::__ndk1::__l_anchor_multiline<char>::~__l_anchor_multiline()
PUBLIC 1beec 0 std::__ndk1::__l_anchor_multiline<char>::__exec(std::__ndk1::__state<char>&) const
PUBLIC 1bf50 0 std::__ndk1::__r_anchor_multiline<char>::~__r_anchor_multiline()
PUBLIC 1bf98 0 std::__ndk1::__r_anchor_multiline<char>::__exec(std::__ndk1::__state<char>&) const
PUBLIC 1bfec 0 std::__ndk1::__word_boundary<char, std::__ndk1::regex_traits<char> >::~__word_boundary()
PUBLIC 1c048 0 std::__ndk1::__word_boundary<char, std::__ndk1::regex_traits<char> >::~__word_boundary()
PUBLIC 1c0a0 0 std::__ndk1::__word_boundary<char, std::__ndk1::regex_traits<char> >::__exec(std::__ndk1::__state<char>&) const
PUBLIC 1c1b0 0 std::__ndk1::__lookahead<char, std::__ndk1::regex_traits<char> >::~__lookahead()
PUBLIC 1c240 0 std::__ndk1::__lookahead<char, std::__ndk1::regex_traits<char> >::~__lookahead()
PUBLIC 1c2cc 0 std::__ndk1::__lookahead<char, std::__ndk1::regex_traits<char> >::__exec(std::__ndk1::__state<char>&) const
PUBLIC 1c4a0 0 std::__ndk1::basic_regex<char, std::__ndk1::regex_traits<char> >::__match_at_start_ecma<std::__ndk1::allocator<std::__ndk1::sub_match<char const*> > >(char const*, char const*, std::__ndk1::match_results<char const*, std::__ndk1::allocator<std::__ndk1::sub_match<char const*> > >&, std::__ndk1::regex_constants::match_flag_type, bool) const
PUBLIC 1c8ec 0 std::__ndk1::vector<std::__ndk1::sub_match<char const*>, std::__ndk1::allocator<std::__ndk1::sub_match<char const*> > >::assign(unsigned long, std::__ndk1::sub_match<char const*> const&)
PUBLIC 1cabc 0 std::__ndk1::vector<std::__ndk1::sub_match<char const*>, std::__ndk1::allocator<std::__ndk1::sub_match<char const*> > >::__throw_length_error[abi:ne180000]() const
PUBLIC 1cad0 0 std::__ndk1::__state<char>::~__state()
PUBLIC 1cb14 0 std::__ndk1::__throw_regex_error[abi:ne180000]<(std::__ndk1::regex_constants::error_type)12>()
PUBLIC 1cb60 0 std::__ndk1::__state<char>::__state(std::__ndk1::__state<char> const&)
PUBLIC 1ccd0 0 std::__ndk1::__throw_regex_error[abi:ne180000]<(std::__ndk1::regex_constants::error_type)16>()
PUBLIC 1cd1c 0 std::__ndk1::vector<std::__ndk1::__state<char>, std::__ndk1::allocator<std::__ndk1::__state<char> > >::~vector[abi:ne180000]()
PUBLIC 1cdb4 0 std::__ndk1::vector<std::__ndk1::__state<char>, std::__ndk1::allocator<std::__ndk1::__state<char> > >::__push_back_slow_path<std::__ndk1::__state<char> >(std::__ndk1::__state<char>&&)
PUBLIC 1cf90 0 std::__ndk1::vector<std::__ndk1::__state<char>, std::__ndk1::allocator<std::__ndk1::__state<char> > >::__throw_length_error[abi:ne180000]() const
PUBLIC 1cfa4 0 std::__ndk1::vector<std::__ndk1::sub_match<char const*>, std::__ndk1::allocator<std::__ndk1::sub_match<char const*> > >::__append(unsigned long, std::__ndk1::sub_match<char const*> const&)
PUBLIC 1d14c 0 std::__ndk1::vector<std::__ndk1::pair<unsigned long, char const*>, std::__ndk1::allocator<std::__ndk1::pair<unsigned long, char const*> > >::__append(unsigned long)
PUBLIC 1d278 0 std::__ndk1::vector<std::__ndk1::pair<unsigned long, char const*>, std::__ndk1::allocator<std::__ndk1::pair<unsigned long, char const*> > >::__throw_length_error[abi:ne180000]() const
PUBLIC 1d28c 0 std::__ndk1::basic_regex<char, std::__ndk1::regex_traits<char> >::__parse_bracket_expression<char const*>(char const*, char const*)
PUBLIC 1dd8c 0 std::__ndk1::__throw_regex_error[abi:ne180000]<(std::__ndk1::regex_constants::error_type)11>()
PUBLIC 1ddd8 0 std::__ndk1::__match_any_but_newline<char>::~__match_any_but_newline()
PUBLIC 1de20 0 std::__ndk1::__throw_regex_error[abi:ne180000]<(std::__ndk1::regex_constants::error_type)3>()
PUBLIC 1de6c 0 std::__ndk1::basic_regex<char, std::__ndk1::regex_traits<char> >::__parse_character_escape<char const*>(char const*, char const*, std::__ndk1::basic_string<char, std::__ndk1::char_traits<char>, std::__ndk1::allocator<char> >*)
PUBLIC 1e378 0 std::__ndk1::basic_regex<char, std::__ndk1::regex_traits<char> >::__push_char(char)
PUBLIC 1e4b8 0 std::__ndk1::__throw_regex_error[abi:ne180000]<(std::__ndk1::regex_constants::error_type)4>()
PUBLIC 1e504 0 std::__ndk1::basic_regex<char, std::__ndk1::regex_traits<char> >::__push_back_ref(int)
PUBLIC 1e5cc 0 std::__ndk1::__match_char_icase<char, std::__ndk1::regex_traits<char> >::~__match_char_icase()
PUBLIC 1e628 0 std::__ndk1::__match_char_icase<char, std::__ndk1::regex_traits<char> >::~__match_char_icase()
PUBLIC 1e680 0 std::__ndk1::__match_char_icase<char, std::__ndk1::regex_traits<char> >::__exec(std::__ndk1::__state<char>&) const
PUBLIC 1e700 0 std::__ndk1::__match_char_collate<char, std::__ndk1::regex_traits<char> >::~__match_char_collate()
PUBLIC 1e75c 0 std::__ndk1::__match_char_collate<char, std::__ndk1::regex_traits<char> >::~__match_char_collate()
PUBLIC 1e7b4 0 std::__ndk1::__match_char_collate<char, std::__ndk1::regex_traits<char> >::__exec(std::__ndk1::__state<char>&) const
PUBLIC 1e7fc 0 std::__ndk1::__match_char<char>::~__match_char()
PUBLIC 1e844 0 std::__ndk1::__match_char<char>::__exec(std::__ndk1::__state<char>&) const
PUBLIC 1e88c 0 std::__ndk1::__back_ref_icase<char, std::__ndk1::regex_traits<char> >::~__back_ref_icase()
PUBLIC 1e8e8 0 std::__ndk1::__back_ref_icase<char, std::__ndk1::regex_traits<char> >::~__back_ref_icase()
PUBLIC 1e940 0 std::__ndk1::__back_ref_icase<char, std::__ndk1::regex_traits<char> >::__exec(std::__ndk1::__state<char>&) const
PUBLIC 1ea38 0 std::__ndk1::__back_ref_collate<char, std::__ndk1::regex_traits<char> >::~__back_ref_collate()
PUBLIC 1ea94 0 std::__ndk1::__back_ref_collate<char, std::__ndk1::regex_traits<char> >::~__back_ref_collate()
PUBLIC 1eaec 0 std::__ndk1::__back_ref_collate<char, std::__ndk1::regex_traits<char> >::__exec(std::__ndk1::__state<char>&) const
PUBLIC 1eb7c 0 std::__ndk1::__back_ref<char>::~__back_ref()
PUBLIC 1ebc4 0 std::__ndk1::__back_ref<char>::__exec(std::__ndk1::__state<char>&) const
PUBLIC 1ec94 0 std::__ndk1::__bracket_expression<char, std::__ndk1::regex_traits<char> >::__add_char[abi:ne180000](char)
PUBLIC 1f144 0 std::__ndk1::__bracket_expression<char, std::__ndk1::regex_traits<char> >::__bracket_expression[abi:ne180000](std::__ndk1::regex_traits<char> const&, std::__ndk1::__node<char>*, bool, bool, bool)
PUBLIC 1f320 0 std::__ndk1::vector<std::__ndk1::basic_string<char, std::__ndk1::char_traits<char>, std::__ndk1::allocator<char> >, std::__ndk1::allocator<std::__ndk1::basic_string<char, std::__ndk1::char_traits<char>, std::__ndk1::allocator<char> > > >::~vector[abi:ne180000]()
PUBLIC 1f39c 0 std::__ndk1::vector<std::__ndk1::pair<std::__ndk1::basic_string<char, std::__ndk1::char_traits<char>, std::__ndk1::allocator<char> >, std::__ndk1::basic_string<char, std::__ndk1::char_traits<char>, std::__ndk1::allocator<char> > >, std::__ndk1::allocator<std::__ndk1::pair<std::__ndk1::basic_string<char, std::__ndk1::char_traits<char>, std::__ndk1::allocator<char> >, std::__ndk1::basic_string<char, std::__ndk1::char_traits<char>, std::__ndk1::allocator<char> > > > >::~vector[abi:ne180000]()
PUBLIC 1f440 0 std::__ndk1::__bracket_expression<char, std::__ndk1::regex_traits<char> >::~__bracket_expression()
PUBLIC 1f58c 0 std::__ndk1::__bracket_expression<char, std::__ndk1::regex_traits<char> >::~__bracket_expression()
PUBLIC 1f5b0 0 std::__ndk1::__bracket_expression<char, std::__ndk1::regex_traits<char> >::__exec(std::__ndk1::__state<char>&) const
PUBLIC 2021c 0 std::__ndk1::pair<std::__ndk1::basic_string<char, std::__ndk1::char_traits<char>, std::__ndk1::allocator<char> >, std::__ndk1::basic_string<char, std::__ndk1::char_traits<char>, std::__ndk1::allocator<char> > >::~pair()
PUBLIC 20260 0 std::__ndk1::operator==[abi:ne180000]<std::__ndk1::allocator<char> >(std::__ndk1::basic_string<char, std::__ndk1::char_traits<char>, std::__ndk1::allocator<char> > const&, std::__ndk1::basic_string<char, std::__ndk1::char_traits<char>, std::__ndk1::allocator<char> > const)
PUBLIC 20310 0 std::__ndk1::basic_string<char, std::__ndk1::char_traits<char>, std::__ndk1::allocator<char> >::__assign_no_alias<true>(char const*, unsigned long)
PUBLIC 203bc 0 std::__ndk1::basic_string<char, std::__ndk1::char_traits<char>, std::__ndk1::allocator<char> >::__assign_no_alias<false>(char const*, unsigned long)
PUBLIC 204cc 0 std::__ndk1::regex_traits<char>::__transform_primary<char*>(char*, char*, char) const
PUBLIC 20690 0 std::__ndk1::vector<char, std::__ndk1::allocator<char> >::__throw_length_error[abi:ne180000]() const
PUBLIC 206a4 0 std::__ndk1::__throw_regex_error[abi:ne180000]<(std::__ndk1::regex_constants::error_type)5>()
PUBLIC 206f0 0 std::__ndk1::basic_regex<char, std::__ndk1::regex_traits<char> >::__parse_class_escape<char const*>(char const*, char const*, std::__ndk1::basic_string<char, std::__ndk1::char_traits<char>, std::__ndk1::allocator<char> >&, std::__ndk1::__bracket_expression<char, std::__ndk1::regex_traits<char> >*)
PUBLIC 208c0 0 std::__ndk1::basic_regex<char, std::__ndk1::regex_traits<char> >::__parse_awk_escape<char const*>(char const*, char const*, std::__ndk1::basic_string<char, std::__ndk1::char_traits<char>, std::__ndk1::allocator<char> >*)
PUBLIC 20d84 0 std::__ndk1::__bracket_expression<char, std::__ndk1::regex_traits<char> >::__add_range[abi:ne180000](std::__ndk1::basic_string<char, std::__ndk1::char_traits<char>, std::__ndk1::allocator<char> >, std::__ndk1::allocator<char>)
PUBLIC 21214 0 std::__ndk1::__bracket_expression<char, std::__ndk1::regex_traits<char> >::__add_digraph[abi:ne180000](char, char)
PUBLIC 21634 0 std::__ndk1::__throw_regex_error[abi:ne180000]<(std::__ndk1::regex_constants::error_type)1>()
PUBLIC 21680 0 std::__ndk1::regex_traits<char>::__lookup_collatename<char const*>(char const*, char const*, char) const
PUBLIC 21934 0 std::__ndk1::regex_traits<char>::__transform_primary<std::__ndk1::__wrap_iter<char*> >(std::__ndk1::__wrap_iter<char*>, std::__ndk1::__wrap_iter<char*>, char) const
PUBLIC 21b4c 0 std::__ndk1::vector<std::__ndk1::basic_string<char, std::__ndk1::char_traits<char>, std::__ndk1::allocator<char> >, std::__ndk1::allocator<std::__ndk1::basic_string<char, std::__ndk1::char_traits<char>, std::__ndk1::allocator<char> > > >::__push_back_slow_path<std::__ndk1::basic_string<char, std::__ndk1::char_traits<char>, std::__ndk1::allocator<char> > const&>(std::__ndk1::basic_string<char, std::__ndk1::char_traits<char>, std::__ndk1::allocator<char> > const&)
PUBLIC 21d70 0 std::__ndk1::basic_string<char, std::__ndk1::char_traits<char>, std::__ndk1::allocator<char> >::__init_copy_ctor_external(char const*, unsigned long)
PUBLIC 21df0 0 std::__ndk1::__split_buffer<std::__ndk1::basic_string<char, std::__ndk1::char_traits<char>, std::__ndk1::allocator<char> >, std::__ndk1::allocator<std::__ndk1::basic_string<char, std::__ndk1::char_traits<char>, std::__ndk1::allocator<char> > >&>::~__split_buffer()
PUBLIC 21e58 0 std::__ndk1::vector<std::__ndk1::basic_string<char, std::__ndk1::char_traits<char>, std::__ndk1::allocator<char> >, std::__ndk1::allocator<std::__ndk1::basic_string<char, std::__ndk1::char_traits<char>, std::__ndk1::allocator<char> > > >::__throw_length_error[abi:ne180000]() const
PUBLIC 21e6c 0 std::__ndk1::__throw_regex_error[abi:ne180000]<(std::__ndk1::regex_constants::error_type)2>()
PUBLIC 21eb8 0 std::__ndk1::__bracket_expression<char, std::__ndk1::regex_traits<char> >::__add_neg_char[abi:ne180000](char)
PUBLIC 22338 0 std::__ndk1::regex_traits<char>::transform<std::__ndk1::__wrap_iter<char*> >(std::__ndk1::__wrap_iter<char*>, std::__ndk1::__wrap_iter<char*>) const
PUBLIC 224ec 0 std::__ndk1::__throw_regex_error[abi:ne180000]<(std::__ndk1::regex_constants::error_type)9>()
PUBLIC 22538 0 std::__ndk1::vector<std::__ndk1::pair<std::__ndk1::basic_string<char, std::__ndk1::char_traits<char>, std::__ndk1::allocator<char> >, std::__ndk1::basic_string<char, std::__ndk1::char_traits<char>, std::__ndk1::allocator<char> > >, std::__ndk1::allocator<std::__ndk1::pair<std::__ndk1::basic_string<char, std::__ndk1::char_traits<char>, std::__ndk1::allocator<char> >, std::__ndk1::basic_string<char, std::__ndk1::char_traits<char>, std::__ndk1::allocator<char> > > > >::__push_back_slow_path<std::__ndk1::pair<std::__ndk1::basic_string<char, std::__ndk1::char_traits<char>, std::__ndk1::allocator<char> >, std::__ndk1::basic_string<char, std::__ndk1::char_traits<char>, std::__ndk1::allocator<char> > > >(std::__ndk1::pair<std::__ndk1::basic_string<char, std::__ndk1::char_traits<char>, std::__ndk1::allocator<char> >, std::__ndk1::basic_string<char, std::__ndk1::char_traits<char>, std::__ndk1::allocator<char> > >&&)
PUBLIC 226e0 0 std::__ndk1::vector<std::__ndk1::pair<std::__ndk1::basic_string<char, std::__ndk1::char_traits<char>, std::__ndk1::allocator<char> >, std::__ndk1::basic_string<char, std::__ndk1::char_traits<char>, std::__ndk1::allocator<char> > >, std::__ndk1::allocator<std::__ndk1::pair<std::__ndk1::basic_string<char, std::__ndk1::char_traits<char>, std::__ndk1::allocator<char> >, std::__ndk1::basic_string<char, std::__ndk1::char_traits<char>, std::__ndk1::allocator<char> > > > >::__throw_length_error[abi:ne180000]() const
PUBLIC 226f4 0 std::__ndk1::vector<std::__ndk1::pair<char, char>, std::__ndk1::allocator<std::__ndk1::pair<char, char> > >::__throw_length_error[abi:ne180000]() const
PUBLIC 22708 0 std::__ndk1::__begin_marked_subexpression<char>::~__begin_marked_subexpression()
PUBLIC 22750 0 std::__ndk1::__begin_marked_subexpression<char>::__exec(std::__ndk1::__state<char>&) const
PUBLIC 22780 0 std::__ndk1::__end_marked_subexpression<char>::~__end_marked_subexpression()
PUBLIC 227c8 0 std::__ndk1::__end_marked_subexpression<char>::__exec(std::__ndk1::__state<char>&) const
PUBLIC 22800 0 std::__ndk1::basic_regex<char, std::__ndk1::regex_traits<char> >::__push_loop(unsigned long, unsigned long, std::__ndk1::__owns_one_state<char>*, unsigned long, unsigned long, bool)
PUBLIC 22940 0 std::__ndk1::__throw_regex_error[abi:ne180000]<(std::__ndk1::regex_constants::error_type)8>()
PUBLIC 2298c 0 std::__ndk1::__throw_regex_error[abi:ne180000]<(std::__ndk1::regex_constants::error_type)7>()
PUBLIC 229d8 0 std::__ndk1::__loop<char>::~__loop()
PUBLIC 22a40 0 std::__ndk1::__loop<char>::__exec(std::__ndk1::__state<char>&) const
PUBLIC 22c04 0 std::__ndk1::__loop<char>::__exec_split(bool, std::__ndk1::__state<char>&) const
PUBLIC 22cc8 0 std::__ndk1::__owns_two_states<char>::~__owns_two_states()
PUBLIC 22d30 0 std::__ndk1::__repeat_one_loop<char>::~__repeat_one_loop()
PUBLIC 22d34 0 std::__ndk1::__repeat_one_loop<char>::__exec(std::__ndk1::__state<char>&) const
PUBLIC 22d48 0 std::__ndk1::__owns_two_states<char>::~__owns_two_states()
PUBLIC 22db4 0 std::__ndk1::__alternate<char>::~__alternate()
PUBLIC 22e1c 0 std::__ndk1::__alternate<char>::__exec(std::__ndk1::__state<char>&) const
PUBLIC 22e28 0 std::__ndk1::__alternate<char>::__exec_split(bool, std::__ndk1::__state<char>&) const
PUBLIC 22e4c 0 std::__ndk1::__node<char>::~__node()
PUBLIC 22e50 0 std::__ndk1::__empty_non_own_state<char>::~__empty_non_own_state()
PUBLIC 22e54 0 std::__ndk1::__empty_non_own_state<char>::__exec(std::__ndk1::__state<char>&) const
PUBLIC 22e68 0 std::__ndk1::__throw_regex_error[abi:ne180000]<(std::__ndk1::regex_constants::error_type)15>()
PUBLIC 22eb4 0 std::__ndk1::basic_regex<char, std::__ndk1::regex_traits<char> >::__parse_nondupl_RE<char const*>(char const*, char const*)
PUBLIC 231b0 0 std::__ndk1::basic_regex<char, std::__ndk1::regex_traits<char> >::__parse_RE_dupl_symbol<char const*>(char const*, char const*, std::__ndk1::__owns_one_state<char>*, unsigned int, unsigned int)
PUBLIC 23420 0 std::__ndk1::__owns_one_state<char>::~__owns_one_state()
PUBLIC 2344c 0 std::__ndk1::__match_any<char>::~__match_any()
PUBLIC 23494 0 std::__ndk1::__match_any<char>::__exec(std::__ndk1::__state<char>&) const
PUBLIC 234d4 0 std::__ndk1::basic_regex<char, std::__ndk1::regex_traits<char> >::__test_back_ref(char)
PUBLIC 23534 0 std::__ndk1::basic_regex<char, std::__ndk1::regex_traits<char> >::__parse_ERE_expression<char const*>(char const*, char const*)
PUBLIC 23880 0 geode::cast::traverseTypeinfoFor(void*, geode::cast::ClassTypeinfoType const*, char const*)
PUBLIC 23978 0 geode::Mod::getSavedValue<float>(std::__ndk1::basic_string_view<char, std::__ndk1::char_traits<char> >)
PUBLIC 23ae8 0 geode::impl::ResultData<matjson::Value&, std::__ndk1::basic_string<char, std::__ndk1::char_traits<char>, std::__ndk1::allocator<char> > >::~ResultData()
PUBLIC 23b5c 0 geode::impl::ResultData<float, std::__ndk1::basic_string<char, std::__ndk1::char_traits<char>, std::__ndk1::allocator<char> > >::~ResultData()
PUBLIC 23bd0 0 matjson::Value::as<float>() const
PUBLIC 23cdc 0 _ZN5geode15UnwrapExceptionC2IRNSt6__ndk112basic_stringIcNS2_11char_traitsIcEENS2_9allocatorIcEEEEQsr4implE18IsStringStreamableIT_EEENS_4impl6ErrTagEOSA_
PUBLIC 23e44 0 std::__ndk1::__throw_bad_variant_access[abi:ne180000]()
PUBLIC 23e78 0 std::__ndk1::basic_stringstream<char, std::__ndk1::char_traits<char>, std::__ndk1::allocator<char> >::basic_stringstream[abi:ne180000]()
PUBLIC m 23fa4 0 std::__ndk1::basic_stringstream<char, std::__ndk1::char_traits<char>, std::__ndk1::allocator<char> >::~basic_stringstream()
PUBLIC 24024 0 geode::UnwrapException::~UnwrapException()
PUBLIC 24048 0 std::__ndk1::__put_character_sequence[abi:ne180000]<char, std::__ndk1::char_traits<char> >(std::__ndk1::basic_ostream<char, std::__ndk1::char_traits<char> >, std::__ndk1::basic_ostream const*, unsigned long)
PUBLIC 241ec 0 std::__ndk1::__pad_and_output[abi:ne180000]<char, std::__ndk1::char_traits<char> >(std::__ndk1::char_traits<char>, std::__ndk1::ostreambuf_iterator const*, std::__ndk1::ostreambuf_iterator const, std::__ndk1::ostreambuf_iterator const, std::__ndk1::ios_base&, std::__ndk1::ostreambuf_iterator)
PUBLIC 243c8 0 std::__ndk1::basic_stringbuf<char, std::__ndk1::char_traits<char>, std::__ndk1::allocator<char> >::str[abi:ne180000]() &&
PUBLIC 24540 0 std::__ndk1::basic_stringbuf<char, std::__ndk1::char_traits<char>, std::__ndk1::allocator<char> >::__init_buf_ptrs[abi:ne180000]()
PUBLIC 24688 0 std::__ndk1::__variant_detail::__visitation::__base::__dispatcher<(unsigned long)0>::__dispatch[abi:ne180000]<std::__ndk1::__variant_detail::__dtor<std::__ndk1::__variant_detail::__traits<double, std::__ndk1::basic_string<char, std::__ndk1::char_traits<char>, std::__ndk1::allocator<char> > >, (std::__ndk1::__variant_detail::_Trait)1>::__destroy[abi:ne180000]()::{lambda(auto:1&)#1}, std::__ndk1::__variant_detail::__base<(std::__ndk1::__variant_detail::__traits<double, std::__ndk1::basic_string<char, std::__ndk1::char_traits<char>, std::__ndk1::allocator<char> > >)1, double, std::__ndk1::allocator<char> >&>(std::__ndk1::__variant_detail::__dtor<std::__ndk1::__variant_detail::__traits<double, std::__ndk1::basic_string<char, std::__ndk1::char_traits<char>, std::__ndk1::allocator<char> > >, (std::__ndk1::__variant_detail::_Trait)1>, std::__ndk1::__variant_detail::__base<(std::__ndk1::__variant_detail::__traits<double, std::__ndk1::basic_string<char, std::__ndk1::char_traits<char>, std::__ndk1::allocator<char> > >)1, double, std::__ndk1::allocator<char> >&)
PUBLIC 2468c 0 std::__ndk1::__variant_detail::__visitation::__base::__dispatcher<(unsigned long)1>::__dispatch[abi:ne180000]<std::__ndk1::__variant_detail::__dtor<std::__ndk1::__variant_detail::__traits<double, std::__ndk1::basic_string<char, std::__ndk1::char_traits<char>, std::__ndk1::allocator<char> > >, (std::__ndk1::__variant_detail::_Trait)1>::__destroy[abi:ne180000]()::{lambda(auto:1&)#1}, std::__ndk1::__variant_detail::__base<(std::__ndk1::__variant_detail::__traits<double, std::__ndk1::basic_string<char, std::__ndk1::char_traits<char>, std::__ndk1::allocator<char> > >)1, double, std::__ndk1::allocator<char> >&>(std::__ndk1::__variant_detail::__dtor<std::__ndk1::__variant_detail::__traits<double, std::__ndk1::basic_string<char, std::__ndk1::char_traits<char>, std::__ndk1::allocator<char> > >, (std::__ndk1::__variant_detail::_Trait)1>, std::__ndk1::__variant_detail::__base<(std::__ndk1::__variant_detail::__traits<double, std::__ndk1::basic_string<char, std::__ndk1::char_traits<char>, std::__ndk1::allocator<char> > >)1, double, std::__ndk1::allocator<char> >&)
PUBLIC 246a0 0 std::__ndk1::__variant_detail::__visitation::__base::__dispatcher<(unsigned long)0>::__dispatch[abi:ne180000]<std::__ndk1::__variant_detail::__dtor<std::__ndk1::__variant_detail::__traits<std::__ndk1::reference_wrapper<matjson::Value>, std::__ndk1::basic_string<char, std::__ndk1::char_traits<char>, std::__ndk1::allocator<char> > >, (std::__ndk1::__variant_detail::_Trait)1>::__destroy[abi:ne180000]()::{lambda(auto:1&)#1}, std::__ndk1::__variant_detail::__base<(std::__ndk1::__variant_detail::__traits<std::__ndk1::reference_wrapper<matjson::Value>, std::__ndk1::basic_string<char, std::__ndk1::char_traits<char>, std::__ndk1::allocator<char> > >)1, matjson::Value, std::__ndk1::allocator<char> >&>(std::__ndk1::__variant_detail::__dtor<std::__ndk1::__variant_detail::__traits<std::__ndk1::reference_wrapper<matjson::Value>, std::__ndk1::basic_string<char, std::__ndk1::char_traits<char>, std::__ndk1::allocator<char> > >, (std::__ndk1::__variant_detail::_Trait)1>, std::__ndk1::__variant_detail::__base<(std::__ndk1::__variant_detail::__traits<std::__ndk1::reference_wrapper<matjson::Value>, std::__ndk1::basic_string<char, std::__ndk1::char_traits<char>, std::__ndk1::allocator<char> > >)1, matjson::Value, std::__ndk1::allocator<char> >&)
PUBLIC 246a4 0 std::__ndk1::__variant_detail::__visitation::__base::__dispatcher<(unsigned long)1>::__dispatch[abi:ne180000]<std::__ndk1::__variant_detail::__dtor<std::__ndk1::__variant_detail::__traits<std::__ndk1::reference_wrapper<matjson::Value>, std::__ndk1::basic_string<char, std::__ndk1::char_traits<char>, std::__ndk1::allocator<char> > >, (std::__ndk1::__variant_detail::_Trait)1>::__destroy[abi:ne180000]()::{lambda(auto:1&)#1}, std::__ndk1::__variant_detail::__base<(std::__ndk1::__variant_detail::__traits<std::__ndk1::reference_wrapper<matjson::Value>, std::__ndk1::basic_string<char, std::__ndk1::char_traits<char>, std::__ndk1::allocator<char> > >)1, matjson::Value, std::__ndk1::allocator<char> >&>(std::__ndk1::__variant_detail::__dtor<std::__ndk1::__variant_detail::__traits<std::__ndk1::reference_wrapper<matjson::Value>, std::__ndk1::basic_string<char, std::__ndk1::char_traits<char>, std::__ndk1::allocator<char> > >, (std::__ndk1::__variant_detail::_Trait)1>, std::__ndk1::__variant_detail::__base<(std::__ndk1::__variant_detail::__traits<std::__ndk1::reference_wrapper<matjson::Value>, std::__ndk1::basic_string<char, std::__ndk1::char_traits<char>, std::__ndk1::allocator<char> > >)1, matjson::Value, std::__ndk1::allocator<char> >&)
PUBLIC 246b8 0 std::__ndk1::__variant_detail::__visitation::__base::__dispatcher<(unsigned long)0>::__dispatch[abi:ne180000]<std::__ndk1::__variant_detail::__dtor<std::__ndk1::__variant_detail::__traits<float, std::__ndk1::basic_string<char, std::__ndk1::char_traits<char>, std::__ndk1::allocator<char> > >, (std::__ndk1::__variant_detail::_Trait)1>::__destroy[abi:ne180000]()::{lambda(auto:1&)#1}, std::__ndk1::__variant_detail::__base<(std::__ndk1::__variant_detail::__traits<float, std::__ndk1::basic_string<char, std::__ndk1::char_traits<char>, std::__ndk1::allocator<char> > >)1, float, std::__ndk1::allocator<char> >&>(std::__ndk1::__variant_detail::__dtor<std::__ndk1::__variant_detail::__traits<float, std::__ndk1::basic_string<char, std::__ndk1::char_traits<char>, std::__ndk1::allocator<char> > >, (std::__ndk1::__variant_detail::_Trait)1>, std::__ndk1::__variant_detail::__base<(std::__ndk1::__variant_detail::__traits<float, std::__ndk1::basic_string<char, std::__ndk1::char_traits<char>, std::__ndk1::allocator<char> > >)1, float, std::__ndk1::allocator<char> >&)
PUBLIC 246bc 0 std::__ndk1::__variant_detail::__visitation::__base::__dispatcher<(unsigned long)1>::__dispatch[abi:ne180000]<std::__ndk1::__variant_detail::__dtor<std::__ndk1::__variant_detail::__traits<float, std::__ndk1::basic_string<char, std::__ndk1::char_traits<char>, std::__ndk1::allocator<char> > >, (std::__ndk1::__variant_detail::_Trait)1>::__destroy[abi:ne180000]()::{lambda(auto:1&)#1}, std::__ndk1::__variant_detail::__base<(std::__ndk1::__variant_detail::__traits<float, std::__ndk1::basic_string<char, std::__ndk1::char_traits<char>, std::__ndk1::allocator<char> > >)1, float, std::__ndk1::allocator<char> >&>(std::__ndk1::__variant_detail::__dtor<std::__ndk1::__variant_detail::__traits<float, std::__ndk1::basic_string<char, std::__ndk1::char_traits<char>, std::__ndk1::allocator<char> > >, (std::__ndk1::__variant_detail::_Trait)1>, std::__ndk1::__variant_detail::__base<(std::__ndk1::__variant_detail::__traits<float, std::__ndk1::basic_string<char, std::__ndk1::char_traits<char>, std::__ndk1::allocator<char> > >)1, float, std::__ndk1::allocator<char> >&)
PUBLIC 246d0 0 fmt::v11::basic_memory_buffer<char, (unsigned long)500, std::__ndk1::allocator<char> >::grow(fmt::v11::detail::buffer<char>&, unsigned long)
PUBLIC 24748 0 fmt::v11::detail::write_padded<char, (fmt::v11::align::type)1, fmt::v11::basic_appender<char>, fmt::v11::detail::write_nonfinite<char, fmt::v11::basic_appender<char> >(fmt::v11::basic_appender<char>, bool, fmt::v11::format_specs, fmt::v11::sign::type)::{lambda(fmt::v11::basic_appender<char>&)#1}>(fmt::v11::basic_appender<char>, fmt::v11::format_specs const&, unsigned long, unsigned long, fmt::v11::detail::write_nonfinite<char, fmt::v11::basic_appender<char> >(fmt::v11::basic_appender<char>, bool, fmt::v11::format_specs, fmt::v11::sign::type)::{lambda(fmt::v11::basic_appender<char>&)#1})
PUBLIC 249a0 0 fmt::v11::detail::fill<char, fmt::v11::basic_appender<char> >(fmt::v11::basic_appender<char>, unsigned long, fmt::v11::detail::fill_t const&)
PUBLIC 24b70 0 fmt::v11::detail::do_write_float<char, fmt::v11::basic_appender<char>, fmt::v11::detail::dragonbox::decimal_fp<float>, fmt::v11::detail::digit_grouping<char> >(fmt::v11::basic_appender<char>, fmt::v11::detail::dragonbox::decimal_fp<float> const&, fmt::v11::format_specs const&, fmt::v11::detail::float_specs, fmt::v11::detail::locale_ref)
PUBLIC 25268 0 fmt::v11::detail::do_write_float<char, fmt::v11::basic_appender<char>, fmt::v11::detail::dragonbox::decimal_fp<float>, fmt::v11::detail::digit_grouping<char> >(fmt::v11::basic_appender<char>, fmt::v11::detail::dragonbox::decimal_fp<float> const&, fmt::v11::format_specs const&, fmt::v11::detail::float_specs, fmt::v11::detail::locale_ref)::{lambda(fmt::v11::basic_appender<char>(fmt::v11::basic_appender<char>))#1}::operator() const
PUBLIC 253bc 0 fmt::v11::detail::digit_grouping<char>::digit_grouping(fmt::v11::detail::locale_ref, bool)
PUBLIC 25574 0 fmt::v11::detail::digit_grouping<char>::~digit_grouping()
PUBLIC 255b8 0 fmt::v11::detail::write_exponent<char, fmt::v11::basic_appender<char> >(int, fmt::v11::basic_appender<char>)
PUBLIC 25788 0 _ZN3fmt3v116detail17write_significandIcjTnNSt6__ndk19enable_ifIXsr3std11is_integralIT0_EE5valueEiE4typeELi0EEEPT_S9_S5_iiS8_
PUBLIC 25904 0 fmt::v11::detail::copy_noinline<char, char*, fmt::v11::basic_appender<char> >(char*, char*, fmt::v11::basic_appender<char>)
PUBLIC 25a54 0 fmt::v11::detail::do_write_float<char, fmt::v11::basic_appender<char>, fmt::v11::detail::dragonbox::decimal_fp<float>, fmt::v11::detail::digit_grouping<char> >(fmt::v11::basic_appender<char>, fmt::v11::detail::dragonbox::decimal_fp<float> const&, fmt::v11::format_specs const&, fmt::v11::detail::float_specs, fmt::v11::detail::locale_ref)::{lambda(fmt::v11::basic_appender<char>(fmt::v11::basic_appender<char>))#2}::operator() const
PUBLIC 25b88 0 fmt::v11::detail::write_significand<char, fmt::v11::basic_appender<char>, unsigned int, fmt::v11::detail::digit_grouping<char> >(fmt::v11::basic_appender<char>, unsigned int, int, int, fmt::v11::detail::digit_grouping<char> const&)
PUBLIC 25e48 0 fmt::v11::detail::digit_grouping<char>::apply<fmt::v11::basic_appender<char>, char>(fmt::v11::basic_appender<char>, fmt::v11::basic_string_view<char>) const
PUBLIC 26200 0 fmt::v11::basic_memory_buffer<int, (unsigned long)500, std::__ndk1::allocator<int> >::grow(fmt::v11::detail::buffer<int>&, unsigned long)
PUBLIC 262a0 0 fmt::v11::detail::write_padded<char, (fmt::v11::align::type)2, fmt::v11::basic_appender<char>, fmt::v11::detail::do_write_float<char, fmt::v11::basic_appender<char>, fmt::v11::detail::dragonbox::decimal_fp<float>, fmt::v11::detail::digit_grouping<char> >(fmt::v11::basic_appender<char>, fmt::v11::detail::dragonbox::decimal_fp<float> const&, fmt::v11::format_specs const&, fmt::v11::detail::float_specs, fmt::v11::detail::locale_ref)::{lambda(fmt::v11::basic_appender<char>&)#3}>(fmt::v11::basic_appender<char>, fmt::v11::format_specs const&, unsigned long, unsigned long, fmt::v11::detail::do_write_float<char, fmt::v11::basic_appender<char>, fmt::v11::detail::dragonbox::decimal_fp<float>, fmt::v11::detail::digit_grouping<char> >(fmt::v11::basic_appender<char>, fmt::v11::detail::dragonbox::decimal_fp<float> const&, fmt::v11::format_specs const&, fmt::v11::detail::float_specs, fmt::v11::detail::locale_ref)::{lambda(fmt::v11::basic_appender<char>&)#3})
PUBLIC 26430 0 fmt::v11::detail::write_significand<fmt::v11::basic_appender<char>, char, unsigned int, fmt::v11::detail::digit_grouping<char> >(fmt::v11::basic_appender<char>, unsigned int, int, int, char, fmt::v11::detail::digit_grouping<char> const&)
PUBLIC 26578 0 fmt::v11::detail::do_write_float<char, fmt::v11::basic_appender<char>, fmt::v11::detail::dragonbox::decimal_fp<float>, fmt::v11::detail::digit_grouping<char> >(fmt::v11::basic_appender<char>, fmt::v11::detail::dragonbox::decimal_fp<float> const&, fmt::v11::format_specs const&, fmt::v11::detail::float_specs, fmt::v11::detail::locale_ref)::{lambda(fmt::v11::basic_appender<char>(fmt::v11::basic_appender<char>))#4}::operator() const
PUBLIC 26794 0 std::__ndk1::basic_regex<char, std::__ndk1::regex_traits<char> >::__search<std::__ndk1::allocator<std::__ndk1::sub_match<char const*> > >(char const*, char const*, std::__ndk1::match_results<char const*, std::__ndk1::allocator<std::__ndk1::sub_match<char const*> > >&, std::__ndk1::regex_constants::match_flag_type) const
PUBLIC 26a00 0 std::__ndk1::match_results<std::__ndk1::__wrap_iter<char const*>, std::__ndk1::allocator<std::__ndk1::sub_match<std::__ndk1::__wrap_iter<char const*> > > >::__assign[abi:ne180000]<char const*, std::__ndk1::allocator<std::__ndk1::sub_match<char const*> > >(std::__ndk1::__wrap_iter<char const*>, std::__ndk1::__wrap_iter<char const*>, std::__ndk1::match_results<char const*, std::__ndk1::allocator<std::__ndk1::sub_match<char const*> > > const&, bool)
PUBLIC 26d18 0 std::__ndk1::basic_regex<char, std::__ndk1::regex_traits<char> >::__match_at_start_posix_nosubs<std::__ndk1::allocator<std::__ndk1::sub_match<char const*> > >(char const*, char const*, std::__ndk1::match_results<char const*, std::__ndk1::allocator<std::__ndk1::sub_match<char const*> > >&, std::__ndk1::regex_constants::match_flag_type, bool) const
PUBLIC 27bc0 0 std::__ndk1::basic_regex<char, std::__ndk1::regex_traits<char> >::__match_at_start_posix_subs<std::__ndk1::allocator<std::__ndk1::sub_match<char const*> > >(char const*, char const*, std::__ndk1::match_results<char const*, std::__ndk1::allocator<std::__ndk1::sub_match<char const*> > >&, std::__ndk1::regex_constants::match_flag_type, bool) const
PUBLIC 285c0 0 std::__ndk1::deque<std::__ndk1::__state<char>, std::__ndk1::allocator<std::__ndk1::__state<char> > >::~deque[abi:ne180000]()
PUBLIC 28788 0 std::__ndk1::deque<std::__ndk1::__state<char>, std::__ndk1::allocator<std::__ndk1::__state<char> > >::__add_back_capacity()
PUBLIC 28d78 0 std::__ndk1::__split_buffer<std::__ndk1::__state<char>*, std::__ndk1::allocator<std::__ndk1::__state<char>*> >::push_back(std::__ndk1::__state<char>*&&)
PUBLIC 28f00 0 std::__ndk1::__split_buffer<std::__ndk1::__state<char>*, std::__ndk1::allocator<std::__ndk1::__state<char>*> >::push_front(std::__ndk1::__state<char>*&&)
PUBLIC 2908c 0 std::__ndk1::__split_buffer<std::__ndk1::__state<char>*, std::__ndk1::allocator<std::__ndk1::__state<char>*> >::push_front(std::__ndk1::__state<char>* const&)
PUBLIC 29218 0 std::__ndk1::vector<std::__ndk1::sub_match<std::__ndk1::__wrap_iter<char const*> >, std::__ndk1::allocator<std::__ndk1::sub_match<std::__ndk1::__wrap_iter<char const*> > > >::__throw_length_error[abi:ne180000]() const
PUBLIC 2922c 0 geode::modifier::ModifyDerive<hook89<(anonymous namespace)::hook89Parent>, MenuLayer>::apply()
PUBLIC 29520 0 std::__ndk1::shared_ptr<geode::Hook>::~shared_ptr[abi:ne180000]()
PUBLIC 29570 0 geode::impl::ResultData<geode::Hook*, std::__ndk1::basic_string<char, std::__ndk1::char_traits<char>, std::__ndk1::allocator<char> > >::~ResultData()
PUBLIC 295e4 0 geode::modifier::ModifyBase<geode::modifier::ModifyDerive<hook89<(anonymous namespace)::hook89Parent>, MenuLayer> >::apply()
PUBLIC 295e8 0 _ZN5geode15UnwrapExceptionC2IRPNS_4HookEQsr4implE18IsStringStreamableIT_EEENS_4impl5OkTagEOS5_
PUBLIC 2973c 0 std::__ndk1::__variant_detail::__visitation::__base::__dispatcher<(unsigned long)0>::__dispatch[abi:ne180000]<std::__ndk1::__variant_detail::__dtor<std::__ndk1::__variant_detail::__traits<geode::Hook*, std::__ndk1::basic_string<char, std::__ndk1::char_traits<char>, std::__ndk1::allocator<char> > >, (std::__ndk1::__variant_detail::_Trait)1>::__destroy[abi:ne180000]()::{lambda(auto:1&)#1}, std::__ndk1::__variant_detail::__base<(std::__ndk1::__variant_detail::__traits<geode::Hook*, std::__ndk1::basic_string<char, std::__ndk1::char_traits<char>, std::__ndk1::allocator<char> > >)1, geode::Hook, std::__ndk1::allocator<char> >&>(std::__ndk1::__variant_detail::__dtor<std::__ndk1::__variant_detail::__traits<geode::Hook*, std::__ndk1::basic_string<char, std::__ndk1::char_traits<char>, std::__ndk1::allocator<char> > >, (std::__ndk1::__variant_detail::_Trait)1>, std::__ndk1::__variant_detail::__base<(std::__ndk1::__variant_detail::__traits<geode::Hook*, std::__ndk1::basic_string<char, std::__ndk1::char_traits<char>, std::__ndk1::allocator<char> > >)1, geode::Hook, std::__ndk1::allocator<char> >&)
PUBLIC 29740 0 std::__ndk1::__variant_detail::__visitation::__base::__dispatcher<(unsigned long)1>::__dispatch[abi:ne180000]<std::__ndk1::__variant_detail::__dtor<std::__ndk1::__variant_detail::__traits<geode::Hook*, std::__ndk1::basic_string<char, std::__ndk1::char_traits<char>, std::__ndk1::allocator<char> > >, (std::__ndk1::__variant_detail::_Trait)1>::__destroy[abi:ne180000]()::{lambda(auto:1&)#1}, std::__ndk1::__variant_detail::__base<(std::__ndk1::__variant_detail::__traits<geode::Hook*, std::__ndk1::basic_string<char, std::__ndk1::char_traits<char>, std::__ndk1::allocator<char> > >)1, geode::Hook, std::__ndk1::allocator<char> >&>(std::__ndk1::__variant_detail::__dtor<std::__ndk1::__variant_detail::__traits<geode::Hook*, std::__ndk1::basic_string<char, std::__ndk1::char_traits<char>, std::__ndk1::allocator<char> > >, (std::__ndk1::__variant_detail::_Trait)1>, std::__ndk1::__variant_detail::__base<(std::__ndk1::__variant_detail::__traits<geode::Hook*, std::__ndk1::basic_string<char, std::__ndk1::char_traits<char>, std::__ndk1::allocator<char> > >)1, geode::Hook, std::__ndk1::allocator<char> >&)
PUBLIC 29754 0 std::__ndk1::__tree<std::__ndk1::__value_type<std::__ndk1::basic_string<char, std::__ndk1::char_traits<char>, std::__ndk1::allocator<char> >, std::__ndk1::shared_ptr<geode::Hook> >, std::__ndk1::__map_value_compare<std::__ndk1::basic_string<char, std::__ndk1::char_traits<char>, std::__ndk1::allocator<char> >, std::__ndk1::__value_type<std::__ndk1::basic_string<char, std::__ndk1::char_traits<char>, std::__ndk1::allocator<char> >, std::__ndk1::shared_ptr<geode::Hook> >, std::__ndk1::less<std::__ndk1::basic_string<char, std::__ndk1::char_traits<char>, std::__ndk1::allocator<char> > >, true>, std::__ndk1::allocator<std::__ndk1::__value_type<std::__ndk1::basic_string<char, std::__ndk1::char_traits<char>, std::__ndk1::allocator<char> >, std::__ndk1::shared_ptr<geode::Hook> > > >::find<std::__ndk1::basic_string<char, std::__ndk1::char_traits<char>, std::__ndk1::allocator<char> > >(std::__ndk1::basic_string<char, std::__ndk1::char_traits<char>, std::__ndk1::allocator<char> > const&)
PUBLIC 29874 0 std::__ndk1::__tree<std::__ndk1::__value_type<std::__ndk1::basic_string<char, std::__ndk1::char_traits<char>, std::__ndk1::allocator<char> >, std::__ndk1::shared_ptr<geode::Hook> >, std::__ndk1::__map_value_compare<std::__ndk1::basic_string<char, std::__ndk1::char_traits<char>, std::__ndk1::allocator<char> >, std::__ndk1::__value_type<std::__ndk1::basic_string<char, std::__ndk1::char_traits<char>, std::__ndk1::allocator<char> >, std::__ndk1::shared_ptr<geode::Hook> >, std::__ndk1::less<std::__ndk1::basic_string<char, std::__ndk1::char_traits<char>, std::__ndk1::allocator<char> > >, true>, std::__ndk1::allocator<std::__ndk1::__value_type<std::__ndk1::basic_string<char, std::__ndk1::char_traits<char>, std::__ndk1::allocator<char> >, std::__ndk1::shared_ptr<geode::Hook> > > >::erase(std::__ndk1::__tree_const_iterator<std::__ndk1::__value_type<std::__ndk1::basic_string<char, std::__ndk1::char_traits<char>, std::__ndk1::allocator<char> >, std::__ndk1::shared_ptr<geode::Hook> >, std::__ndk1::__tree_node<std::__ndk1::__value_type<std::__ndk1::basic_string<char, std::__ndk1::char_traits<char>, std::__ndk1::allocator<char> >, std::__ndk1::shared_ptr<geode::Hook> >, void*>*, long>)
PUBLIC 29d18 0 std::__ndk1::__tree<std::__ndk1::__value_type<std::__ndk1::basic_string<char, std::__ndk1::char_traits<char>, std::__ndk1::allocator<char> >, std::__ndk1::shared_ptr<geode::Hook> >, std::__ndk1::__map_value_compare<std::__ndk1::basic_string<char, std::__ndk1::char_traits<char>, std::__ndk1::allocator<char> >, std::__ndk1::__value_type<std::__ndk1::basic_string<char, std::__ndk1::char_traits<char>, std::__ndk1::allocator<char> >, std::__ndk1::shared_ptr<geode::Hook> >, std::__ndk1::less<std::__ndk1::basic_string<char, std::__ndk1::char_traits<char>, std::__ndk1::allocator<char> > >, true>, std::__ndk1::allocator<std::__ndk1::__value_type<std::__ndk1::basic_string<char, std::__ndk1::char_traits<char>, std::__ndk1::allocator<char> >, std::__ndk1::shared_ptr<geode::Hook> > > >::destroy(std::__ndk1::__tree_node<std::__ndk1::__value_type<std::__ndk1::basic_string<char, std::__ndk1::char_traits<char>, std::__ndk1::allocator<char> >, std::__ndk1::shared_ptr<geode::Hook> >, void*>*)
PUBLIC 29d9c 0 geode::modifier::AsStaticFunction_init<hook89<(anonymous namespace)::hook89Parent>, bool (hook89<(anonymous namespace)::hook89Parent>::*)()>::Impl<bool (hook89<(anonymous namespace)::hook89Parent>::*)()>::function(hook89<(anonymous namespace)::hook89Parent>*)
PUBLIC 29eac 0 geode::addresser::Addresser::addressOfVirtual<bool, MenuLayer, >(bool (MenuLayer::*)())
PUBLIC 29f54 0 MenuLayer::MenuLayer(geode::ZeroConstructorType)
PUBLIC 29ff0 0 std::__ndk1::shared_ptr<tulip::hook::CallingConvention>::~shared_ptr[abi:ne180000]()
PUBLIC 2a040 0 tulip::hook::HandlerMetadata::~HandlerMetadata()
PUBLIC 2a0a4 0 std::__ndk1::__tree<std::__ndk1::__value_type<std::__ndk1::basic_string<char, std::__ndk1::char_traits<char>, std::__ndk1::allocator<char> >, std::__ndk1::shared_ptr<geode::Hook> >, std::__ndk1::__map_value_compare<std::__ndk1::basic_string<char, std::__ndk1::char_traits<char>, std::__ndk1::allocator<char> >, std::__ndk1::__value_type<std::__ndk1::basic_string<char, std::__ndk1::char_traits<char>, std::__ndk1::allocator<char> >, std::__ndk1::shared_ptr<geode::Hook> >, std::__ndk1::less<std::__ndk1::basic_string<char, std::__ndk1::char_traits<char>, std::__ndk1::allocator<char> > >, true>, std::__ndk1::allocator<std::__ndk1::__value_type<std::__ndk1::basic_string<char, std::__ndk1::char_traits<char>, std::__ndk1::allocator<char> >, std::__ndk1::shared_ptr<geode::Hook> > > >::__emplace_unique_key_args<std::__ndk1::basic_string<char, std::__ndk1::char_traits<char>, std::__ndk1::allocator<char> >, std::__ndk1::piecewise_construct_t const&, std::__ndk1::tuple<std::__ndk1::basic_string<char, std::__ndk1::char_traits<char>, std::__ndk1::allocator<char> >&&>, std::__ndk1::tuple<> >(std::__ndk1::basic_string<char, std::__ndk1::char_traits<char>, std::__ndk1::allocator<char> > const&, std::__ndk1::piecewise_construct_t const&, std::__ndk1::tuple<std::__ndk1::basic_string<char, std::__ndk1::char_traits<char>, std::__ndk1::allocator<char> >&&>, std::__ndk1::tuple<>)
PUBLIC 2a20c 0 std::__ndk1::unique_ptr<std::__ndk1::__tree_node<std::__ndk1::__value_type<std::__ndk1::basic_string<char, std::__ndk1::char_traits<char>, std::__ndk1::allocator<char> >, std::__ndk1::shared_ptr<geode::Hook> >, void*>, std::__ndk1::__tree_node_destructor<std::__ndk1::allocator<std::__ndk1::__tree_node<std::__ndk1::__value_type<std::__ndk1::basic_string<char, std::__ndk1::char_traits<char>, std::__ndk1::allocator<char> >, std::__ndk1::shared_ptr<geode::Hook> >, void*> > > >::~unique_ptr[abi:ne180000]()
PUBLIC 2a288 0 std::__ndk1::__tree_balance_after_insert[abi:ne180000]<std::__ndk1::__tree_node_base<void*>*>(std::__ndk1::__tree_node_base<void*>*, std::__ndk1::__tree_node_base<void*>*)
PUBLIC 2a438 0 geode::modifier::ModifyDerive<hook97<(anonymous namespace)::hook97Parent>, GJGameLevel>::apply()
PUBLIC 2a844 0 geode::modifier::ModifyBase<geode::modifier::ModifyDerive<hook97<(anonymous namespace)::hook97Parent>, GJGameLevel> >::apply()
PUBLIC 2a848 0 std::__ndk1::__tree<std::__ndk1::__value_type<std::__ndk1::basic_string<char, std::__ndk1::char_traits<char>, std::__ndk1::allocator<char> >, std::__ndk1::shared_ptr<geode::Hook> >, std::__ndk1::__map_value_compare<std::__ndk1::basic_string<char, std::__ndk1::char_traits<char>, std::__ndk1::allocator<char> >, std::__ndk1::__value_type<std::__ndk1::basic_string<char, std::__ndk1::char_traits<char>, std::__ndk1::allocator<char> >, std::__ndk1::shared_ptr<geode::Hook> >, std::__ndk1::less<std::__ndk1::basic_string<char, std::__ndk1::char_traits<char>, std::__ndk1::allocator<char> > >, true>, std::__ndk1::allocator<std::__ndk1::__value_type<std::__ndk1::basic_string<char, std::__ndk1::char_traits<char>, std::__ndk1::allocator<char> >, std::__ndk1::shared_ptr<geode::Hook> > > >::__emplace_unique_key_args<std::__ndk1::basic_string<char, std::__ndk1::char_traits<char>, std::__ndk1::allocator<char> >, std::__ndk1::piecewise_construct_t const&, std::__ndk1::tuple<std::__ndk1::basic_string<char, std::__ndk1::char_traits<char>, std::__ndk1::allocator<char> > const&>, std::__ndk1::tuple<> >(std::__ndk1::basic_string<char, std::__ndk1::char_traits<char>, std::__ndk1::allocator<char> > const&, std::__ndk1::piecewise_construct_t const&, std::__ndk1::tuple<std::__ndk1::basic_string<char, std::__ndk1::char_traits<char>, std::__ndk1::allocator<char> > const&>, std::__ndk1::tuple<>)
PUBLIC 2aa1c 0 std::__ndk1::__variant_detail::__visitation::__base::__dispatcher<(unsigned long)0>::__dispatch[abi:ne180000]<std::__ndk1::__variant_detail::__dtor<std::__ndk1::__variant_detail::__traits<std::__ndk1::monostate, std::__ndk1::basic_string<char, std::__ndk1::char_traits<char>, std::__ndk1::allocator<char> > >, (std::__ndk1::__variant_detail::_Trait)1>::__destroy[abi:ne180000]()::{lambda(auto:1&)#1}, std::__ndk1::__variant_detail::__base<(std::__ndk1::__variant_detail::__traits<std::__ndk1::monostate, std::__ndk1::basic_string<char, std::__ndk1::char_traits<char>, std::__ndk1::allocator<char> > >)1, std::__ndk1::__variant_detail::__traits, std::__ndk1::allocator<char> >&>(std::__ndk1::__variant_detail::__dtor<std::__ndk1::__variant_detail::__traits<std::__ndk1::monostate, std::__ndk1::basic_string<char, std::__ndk1::char_traits<char>, std::__ndk1::allocator<char> > >, (std::__ndk1::__variant_detail::_Trait)1>, std::__ndk1::__variant_detail::__base<(std::__ndk1::__variant_detail::__traits<std::__ndk1::monostate, std::__ndk1::basic_string<char, std::__ndk1::char_traits<char>, std::__ndk1::allocator<char> > >)1, std::__ndk1::__variant_detail::__traits, std::__ndk1::allocator<char> >&)
PUBLIC 2aa20 0 std::__ndk1::__variant_detail::__visitation::__base::__dispatcher<(unsigned long)1>::__dispatch[abi:ne180000]<std::__ndk1::__variant_detail::__dtor<std::__ndk1::__variant_detail::__traits<std::__ndk1::monostate, std::__ndk1::basic_string<char, std::__ndk1::char_traits<char>, std::__ndk1::allocator<char> > >, (std::__ndk1::__variant_detail::_Trait)1>::__destroy[abi:ne180000]()::{lambda(auto:1&)#1}, std::__ndk1::__variant_detail::__base<(std::__ndk1::__variant_detail::__traits<std::__ndk1::monostate, std::__ndk1::basic_string<char, std::__ndk1::char_traits<char>, std::__ndk1::allocator<char> > >)1, std::__ndk1::__variant_detail::__traits, std::__ndk1::allocator<char> >&>(std::__ndk1::__variant_detail::__dtor<std::__ndk1::__variant_detail::__traits<std::__ndk1::monostate, std::__ndk1::basic_string<char, std::__ndk1::char_traits<char>, std::__ndk1::allocator<char> > >, (std::__ndk1::__variant_detail::_Trait)1>, std::__ndk1::__variant_detail::__base<(std::__ndk1::__variant_detail::__traits<std::__ndk1::monostate, std::__ndk1::basic_string<char, std::__ndk1::char_traits<char>, std::__ndk1::allocator<char> > >)1, std::__ndk1::__variant_detail::__traits, std::__ndk1::allocator<char> >&)
PUBLIC 2aa34 0 geode::modifier::AsStaticFunction_savePercentage<hook97<(anonymous namespace)::hook97Parent>, void (hook97<(anonymous namespace)::hook97Parent>::*)(int, bool, int, int, bool)>::Impl<void (hook97<(anonymous namespace)::hook97Parent>::*)(int, bool, int, int, bool)>::function(hook97<(anonymous namespace)::hook97Parent>*, int, bool, int, int, bool)
PUBLIC 2afb8 0 geode::modifier::ModifyDerive<MyLevelInfoLayer, LevelInfoLayer>::apply()
PUBLIC 2b354 0 geode::modifier::ModifyBase<geode::modifier::ModifyDerive<MyLevelInfoLayer, LevelInfoLayer> >::apply()
PUBLIC 2b358 0 geode::modifier::AsStaticFunction_init<MyLevelInfoLayer, bool (MyLevelInfoLayer::*)(GJGameLevel*, bool)>::Impl<bool (MyLevelInfoLayer::*)(GJGameLevel*, bool)>::function(MyLevelInfoLayer*, GJGameLevel*, bool)
PUBLIC 2b9c0 0 geode::modifier::ModifyDerive<MyPauseLayer, PauseLayer>::apply()
PUBLIC 2bcdc 0 geode::modifier::ModifyBase<geode::modifier::ModifyDerive<MyPauseLayer, PauseLayer> >::apply()
PUBLIC 2bce0 0 geode::modifier::AsStaticFunction_customSetup<MyPauseLayer, void (MyPauseLayer::*)()>::Impl<void (MyPauseLayer::*)()>::function(MyPauseLayer*)
PUBLIC 2c594 0 geode::addresser::Addresser::addressOfVirtual<void, PauseLayer, >(void (PauseLayer::*)())
PUBLIC 2c63c 0 PauseLayer::PauseLayer(geode::ZeroConstructorType)
PUBLIC 2c6c8 0 geode::modifier::ModifyDerive<MyLevelCell, LevelCell>::apply()
PUBLIC 2ca34 0 geode::modifier::ModifyBase<geode::modifier::ModifyDerive<MyLevelCell, LevelCell> >::apply()
PUBLIC 2ca38 0 geode::modifier::AsStaticFunction_loadFromLevel<MyLevelCell, void (MyLevelCell::*)(GJGameLevel*)>::Impl<void (MyLevelCell::*)(GJGameLevel*)>::function(MyLevelCell*, GJGameLevel*)
PUBLIC 2d1e4 0 geode::modifier::ModifyDerive<MyLevelPage, LevelPage>::apply()
PUBLIC 2d558 0 geode::modifier::ModifyBase<geode::modifier::ModifyDerive<MyLevelPage, LevelPage> >::apply()
PUBLIC 2d55c 0 geode::modifier::AsStaticFunction_updateDynamicPage<MyLevelPage, void (MyLevelPage::*)(GJGameLevel*)>::Impl<void (MyLevelPage::*)(GJGameLevel*)>::function(MyLevelPage*, GJGameLevel*)
PUBLIC 2de28 0 geode::modifier::ModifyDerive<MyPlayLayer, PlayLayer>::apply()
PUBLIC 2e494 0 geode::modifier::ModifyBase<geode::modifier::ModifyDerive<MyPlayLayer, PlayLayer> >::apply()
PUBLIC 2e498 0 geode::modifier::AsStaticFunction_showNewBest<MyPlayLayer, void (MyPlayLayer::*)(bool, int, int, bool, bool, bool)>::Impl<void (MyPlayLayer::*)(bool, int, int, bool, bool, bool)>::function(MyPlayLayer*, bool, int, int, bool, bool, bool)
PUBLIC 2e610 0 geode::modifier::AsStaticFunction_updateProgressbar<MyPlayLayer, void (MyPlayLayer::*)()>::Impl<void (MyPlayLayer::*)()>::function(MyPlayLayer*)
PUBLIC 2efa4 0 std::__ndk1::__function::__base<void ()>::~__base()
PUBLIC 2efa8 0 std::__ndk1::__function::__func<MyPlayLayer::showNewBest(bool, int, int, bool, bool, bool)::{lambda()#1}, std::__ndk1::allocator<MyPlayLayer::showNewBest(bool, int, int, bool, bool, bool)::{lambda()#1}>, void ()>::~__func()
PUBLIC 2efac 0 std::__ndk1::__function::__func<MyPlayLayer::showNewBest(bool, int, int, bool, bool, bool)::{lambda()#1}, std::__ndk1::allocator<MyPlayLayer::showNewBest(bool, int, int, bool, bool, bool)::{lambda()#1}>, void ()>::__clone() const
PUBLIC 2efe0 0 std::__ndk1::__function::__func<MyPlayLayer::showNewBest(bool, int, int, bool, bool, bool)::{lambda()#1}, std::__ndk1::allocator<MyPlayLayer::showNewBest(bool, int, int, bool, bool, bool)::{lambda()#1}>, void ()>::__clone(std::__ndk1::__function::__base<void ()>*) const
PUBLIC 2eff4 0 std::__ndk1::__function::__func<MyPlayLayer::showNewBest(bool, int, int, bool, bool, bool)::{lambda()#1}, std::__ndk1::allocator<MyPlayLayer::showNewBest(bool, int, int, bool, bool, bool)::{lambda()#1}>, void ()>::destroy()
PUBLIC 2eff8 0 std::__ndk1::__function::__func<MyPlayLayer::showNewBest(bool, int, int, bool, bool, bool)::{lambda()#1}, std::__ndk1::allocator<MyPlayLayer::showNewBest(bool, int, int, bool, bool, bool)::{lambda()#1}>, void ()>::destroy_deallocate()
PUBLIC 2effc 0 std::__ndk1::__function::__func<MyPlayLayer::showNewBest(bool, int, int, bool, bool, bool)::{lambda()#1}, std::__ndk1::allocator<MyPlayLayer::showNewBest(bool, int, int, bool, bool, bool)::{lambda()#1}>, void ()>::operator()()
PUBLIC 2f870 0 std::__ndk1::__function::__func<MyPlayLayer::showNewBest(bool, int, int, bool, bool, bool)::{lambda()#1}, std::__ndk1::allocator<MyPlayLayer::showNewBest(bool, int, int, bool, bool, bool)::{lambda()#1}>, void ()>::target(std::type_info const&) const
PUBLIC 2f88c 0 std::__ndk1::__function::__func<MyPlayLayer::showNewBest(bool, int, int, bool, bool, bool)::{lambda()#1}, std::__ndk1::allocator<MyPlayLayer::showNewBest(bool, int, int, bool, bool, bool)::{lambda()#1}>, void ()>::target_type() const
PUBLIC 2f898 0 geode::log::info<std::__ndk1::basic_string<char, std::__ndk1::char_traits<char>, std::__ndk1::allocator<char> >&, std::__ndk1::basic_string<char, std::__ndk1::char_traits<char>, std::__ndk1::allocator<char> >&>(fmt::v11::basic_format_string<char, fmt::v11::type_identity<decltype ((wrapCocosObj<std::__ndk1::basic_string<char, std::__ndk1::char_traits<char>, std::__ndk1::allocator<char> >&, std::__ndk1::basic_string<char, std::__ndk1::char_traits<char>, std::__ndk1::allocator<char> >&>)((std::declval<std::__ndk1::basic_string<char, std::__ndk1::char_traits<char>, std::__ndk1::allocator<char> >&, std::__ndk1::basic_string<char, std::__ndk1::char_traits<char>, std::__ndk1::allocator<char> >&>)()))>::type>, std::__ndk1::basic_string<char, std::__ndk1::char_traits<char>, std::__ndk1::allocator<char> >&, std::__ndk1::basic_string<char, std::__ndk1::char_traits<char>, std::__ndk1::allocator<char> >&)
PUBLIC 2f958 0 geode::utils::numFromString<long>(std::__ndk1::basic_string_view<char, std::__ndk1::char_traits<char> >, int)
PUBLIC 2fd14 0 geode::impl::ResultData<long, std::__ndk1::basic_string<char, std::__ndk1::char_traits<char>, std::__ndk1::allocator<char> > >::unwrap() &
PUBLIC 2fd8c 0 std::__ndk1::regex_replace[abi:ne180000]<std::__ndk1::regex_traits<char>, char, std::__ndk1::char_traits<char>, std::__ndk1::allocator<char>, std::__ndk1::char_traits, std::__ndk1::allocator>(std::__ndk1::allocator<char> const&, std::__ndk1::basic_regex<std::__ndk1::basic_string, std::__ndk1::regex_traits<char> > const&, std::__ndk1::allocator<char> const<std::__ndk1::basic_string, std::__ndk1::char_traits, std::__ndk1::allocator>&, std::__ndk1::regex_constants::match_flag_type)
PUBLIC 309c4 0 std::__ndk1::basic_regex<char, std::__ndk1::regex_traits<char> >::basic_regex[abi:ne180000]<std::__ndk1::char_traits<char>, std::__ndk1::allocator<char> >(std::__ndk1::regex_constants::syntax_option_type)
PUBLIC 30a88 0 geode::impl::ResultData<long, std::__ndk1::basic_string<char, std::__ndk1::char_traits<char>, std::__ndk1::allocator<char> > >::~ResultData()
PUBLIC 30afc 0 std::__ndk1::basic_regex<char, std::__ndk1::regex_traits<char> >::__parse<std::__ndk1::__wrap_iter<char const*> >(std::__ndk1::__wrap_iter<char const*>, std::__ndk1::__wrap_iter<char const*>)
PUBLIC 30fcc 0 std::__ndk1::basic_regex<char, std::__ndk1::regex_traits<char> >::__parse_ecma_exp<std::__ndk1::__wrap_iter<char const*> >(std::__ndk1::__wrap_iter<char const*>, std::__ndk1::__wrap_iter<char const*>)
PUBLIC 31238 0 std::__ndk1::basic_regex<char, std::__ndk1::regex_traits<char> >::__parse_basic_reg_exp<std::__ndk1::__wrap_iter<char const*> >(std::__ndk1::__wrap_iter<char const*>, std::__ndk1::__wrap_iter<char const*>)
PUBLIC 313c0 0 std::__ndk1::basic_regex<char, std::__ndk1::regex_traits<char> >::__parse_extended_reg_exp<std::__ndk1::__wrap_iter<char const*> >(std::__ndk1::__wrap_iter<char const*>, std::__ndk1::__wrap_iter<char const*>)
PUBLIC 31530 0 std::__ndk1::basic_regex<char, std::__ndk1::regex_traits<char> >::__parse_assertion<std::__ndk1::__wrap_iter<char const*> >(std::__ndk1::__wrap_iter<char const*>, std::__ndk1::__wrap_iter<char const*>)
PUBLIC 31894 0 std::__ndk1::basic_regex<char, std::__ndk1::regex_traits<char> >::__parse_atom<std::__ndk1::__wrap_iter<char const*> >(std::__ndk1::__wrap_iter<char const*>, std::__ndk1::__wrap_iter<char const*>)
PUBLIC 31f0c 0 std::__ndk1::basic_regex<char, std::__ndk1::regex_traits<char> >::__parse_ERE_dupl_symbol<std::__ndk1::__wrap_iter<char const*> >(std::__ndk1::__wrap_iter<char const*>, std::__ndk1::__wrap_iter<char const*>, std::__ndk1::__owns_one_state<char>*, unsigned int, unsigned int)
PUBLIC 3230c 0 std::__ndk1::basic_regex<char, std::__ndk1::regex_traits<char> >::__parse_bracket_expression<std::__ndk1::__wrap_iter<char const*> >(std::__ndk1::__wrap_iter<char const*>, std::__ndk1::__wrap_iter<char const*>)
PUBLIC 32ec8 0 std::__ndk1::basic_regex<char, std::__ndk1::regex_traits<char> >::__parse_character_escape<std::__ndk1::__wrap_iter<char const*> >(std::__ndk1::__wrap_iter<char const*>, std::__ndk1::__wrap_iter<char const*>, std::__ndk1::basic_string<char, std::__ndk1::char_traits<char>, std::__ndk1::allocator<char> >*)
PUBLIC 333e0 0 std::__ndk1::basic_regex<char, std::__ndk1::regex_traits<char> >::__parse_class_escape<std::__ndk1::__wrap_iter<char const*> >(std::__ndk1::__wrap_iter<char const*>, std::__ndk1::__wrap_iter<char const*>, std::__ndk1::basic_string<char, std::__ndk1::char_traits<char>, std::__ndk1::allocator<char> >&, std::__ndk1::__bracket_expression<char, std::__ndk1::regex_traits<char> >*)
PUBLIC 335b4 0 std::__ndk1::basic_regex<char, std::__ndk1::regex_traits<char> >::__parse_awk_escape<std::__ndk1::__wrap_iter<char const*> >(std::__ndk1::__wrap_iter<char const*>, std::__ndk1::__wrap_iter<char const*>, std::__ndk1::basic_string<char, std::__ndk1::char_traits<char>, std::__ndk1::allocator<char> >*)
PUBLIC 33a78 0 std::__ndk1::regex_traits<char>::__lookup_collatename<std::__ndk1::__wrap_iter<char const*> >(std::__ndk1::__wrap_iter<char const*>, std::__ndk1::__wrap_iter<char const*>, char) const
PUBLIC 33d80 0 std::__ndk1::basic_regex<char, std::__ndk1::regex_traits<char> >::__parse_nondupl_RE<std::__ndk1::__wrap_iter<char const*> >(std::__ndk1::__wrap_iter<char const*>, std::__ndk1::__wrap_iter<char const*>)
PUBLIC 340b4 0 std::__ndk1::basic_regex<char, std::__ndk1::regex_traits<char> >::__parse_RE_dupl_symbol<std::__ndk1::__wrap_iter<char const*> >(std::__ndk1::__wrap_iter<char const*>, std::__ndk1::__wrap_iter<char const*>, std::__ndk1::__owns_one_state<char>*, unsigned int, unsigned int)
PUBLIC 34328 0 std::__ndk1::basic_regex<char, std::__ndk1::regex_traits<char> >::__parse_ERE_expression<std::__ndk1::__wrap_iter<char const*> >(std::__ndk1::__wrap_iter<char const*>, std::__ndk1::__wrap_iter<char const*>)
PUBLIC 34624 0 std::__ndk1::basic_regex<char, std::__ndk1::regex_traits<char> >::__parse_QUOTED_CHAR_ERE<std::__ndk1::__wrap_iter<char const*> >(std::__ndk1::__wrap_iter<char const*>, std::__ndk1::__wrap_iter<char const*>)
PUBLIC 346f4 0 std::__ndk1::__variant_detail::__visitation::__base::__dispatcher<(unsigned long)0>::__dispatch[abi:ne180000]<std::__ndk1::__variant_detail::__dtor<std::__ndk1::__variant_detail::__traits<long, std::__ndk1::basic_string<char, std::__ndk1::char_traits<char>, std::__ndk1::allocator<char> > >, (std::__ndk1::__variant_detail::_Trait)1>::__destroy[abi:ne180000]()::{lambda(auto:1&)#1}, std::__ndk1::__variant_detail::__base<(std::__ndk1::__variant_detail::__traits<long, std::__ndk1::basic_string<char, std::__ndk1::char_traits<char>, std::__ndk1::allocator<char> > >)1, long, std::__ndk1::allocator<char> >&>(std::__ndk1::__variant_detail::__dtor<std::__ndk1::__variant_detail::__traits<long, std::__ndk1::basic_string<char, std::__ndk1::char_traits<char>, std::__ndk1::allocator<char> > >, (std::__ndk1::__variant_detail::_Trait)1>, std::__ndk1::__variant_detail::__base<(std::__ndk1::__variant_detail::__traits<long, std::__ndk1::basic_string<char, std::__ndk1::char_traits<char>, std::__ndk1::allocator<char> > >)1, long, std::__ndk1::allocator<char> >&)
PUBLIC 346f8 0 std::__ndk1::__variant_detail::__visitation::__base::__dispatcher<(unsigned long)1>::__dispatch[abi:ne180000]<std::__ndk1::__variant_detail::__dtor<std::__ndk1::__variant_detail::__traits<long, std::__ndk1::basic_string<char, std::__ndk1::char_traits<char>, std::__ndk1::allocator<char> > >, (std::__ndk1::__variant_detail::_Trait)1>::__destroy[abi:ne180000]()::{lambda(auto:1&)#1}, std::__ndk1::__variant_detail::__base<(std::__ndk1::__variant_detail::__traits<long, std::__ndk1::basic_string<char, std::__ndk1::char_traits<char>, std::__ndk1::allocator<char> > >)1, long, std::__ndk1::allocator<char> >&>(std::__ndk1::__variant_detail::__dtor<std::__ndk1::__variant_detail::__traits<long, std::__ndk1::basic_string<char, std::__ndk1::char_traits<char>, std::__ndk1::allocator<char> > >, (std::__ndk1::__variant_detail::_Trait)1>, std::__ndk1::__variant_detail::__base<(std::__ndk1::__variant_detail::__traits<long, std::__ndk1::basic_string<char, std::__ndk1::char_traits<char>, std::__ndk1::allocator<char> > >)1, long, std::__ndk1::allocator<char> >&)
PUBLIC m 3470c 0 geodeImplicitEntry
PUBLIC 34748 0 __udivti3
PUBLIC 34754 0 __udivmodti4
PUBLIC m 349a0 0 __eqtf2
PUBLIC 34a40 0 __unordtf2
PUBLIC 34a78 0 fmt::v11::detail::write_loc(fmt::v11::basic_appender<char>, fmt::v11::loc_value, fmt::v11::format_specs const&, fmt::v11::detail::locale_ref)
PUBLIC 34d0c 0 fmt::v11::format_facet<std::__ndk1::locale>::~format_facet()
PUBLIC 34d88 0 fmt::v11::report_error(char const*)
PUBLIC 34dd8 0 fmt::v11::format_error::runtime_error(char const*)
PUBLIC 34e04 0 fmt::v11::format_facet<std::__ndk1::locale>::do_put(fmt::v11::basic_appender<char>, fmt::v11::loc_value, fmt::v11::format_specs const&) const
PUBLIC 355c4 0 fmt::v11::detail::loc_writer<char>::~loc_writer()
PUBLIC 35628 0 fmt::v11::vformat(fmt::v11::basic_string_view<char>, fmt::v11::basic_format_args<fmt::v11::context>)
PUBLIC 35764 0 fmt::v11::detail::vformat_to<char>(fmt::v11::detail::buffer<char>&, fmt::v11::basic_string_view<char>, fmt::v11::detail::vformat_args<char>::type, fmt::v11::detail::locale_ref)
PUBLIC 35cd4 0 fmt::v11::detail::is_printable(unsigned int)
PUBLIC 35efc 0 fmt::v11::detail::dragonbox::to_decimal<float>(float)
PUBLIC 361d8 0 fmt::v11::detail::dragonbox::to_decimal<double>(double)
PUBLIC 36714 0 fmt::v11::detail::thousands_sep_impl<char>(fmt::v11::detail::locale_ref)
PUBLIC 3682c 0 fmt::v11::format_facet<std::__ndk1::locale>::~format_facet()
PUBLIC 368b8 0 fmt::v11::format_error::~format_error()
PUBLIC 368dc 0 fmt::v11::detail::copy_noinline<char, char const*, fmt::v11::basic_appender<char> >(char const*, char const*, fmt::v11::basic_appender<char>)
PUBLIC 36a2c 0 fmt::v11::detail::default_arg_formatter<char>::operator()<bool>(bool)
PUBLIC 36a94 0 fmt::v11::detail::default_arg_formatter<char>::operator()<char>(char)
PUBLIC 36b24 0 fmt::v11::detail::default_arg_formatter<char>::operator()<float>(float)
PUBLIC 36c14 0 fmt::v11::detail::default_arg_formatter<char>::operator()<double>(double)
PUBLIC 36d00 0 fmt::v11::detail::default_arg_formatter<char>::operator()<char const*>(char const*)
PUBLIC 36d48 0 fmt::v11::detail::default_arg_formatter<char>::operator()<void const*>(void const*)
PUBLIC 36de0 0 _ZN3fmt3v116detail5writeIcNS0_14basic_appenderIcEEiTnNSt6__ndk19enable_ifIXaaaasr11is_integralIT1_EE5valuentsr3std7is_sameIS7_bEE5valuentsr3std7is_sameIS7_T_EE5valueEiE4typeELi0EEET0_SB_S7_
PUBLIC 3703c 0 _ZN3fmt3v116detail5writeIcNS0_14basic_appenderIcEEjTnNSt6__ndk19enable_ifIXaaaasr11is_integralIT1_EE5valuentsr3std7is_sameIS7_bEE5valuentsr3std7is_sameIS7_T_EE5valueEiE4typeELi0EEET0_SB_S7_
PUBLIC 37218 0 _ZN3fmt3v116detail5writeIcNS0_14basic_appenderIcEExTnNSt6__ndk19enable_ifIXaaaasr11is_integralIT1_EE5valuentsr3std7is_sameIS7_bEE5valuentsr3std7is_sameIS7_T_EE5valueEiE4typeELi0EEET0_SB_S7_
PUBLIC 37498 0 _ZN3fmt3v116detail5writeIcNS0_14basic_appenderIcEEyTnNSt6__ndk19enable_ifIXaaaasr11is_integralIT1_EE5valuentsr3std7is_sameIS7_bEE5valuentsr3std7is_sameIS7_T_EE5valueEiE4typeELi0EEET0_SB_S7_
PUBLIC 3769c 0 _ZN3fmt3v116detail5writeIcNS0_14basic_appenderIcEEnTnNSt6__ndk19enable_ifIXaaaasr11is_integralIT1_EE5valuentsr3std7is_sameIS7_bEE5valuentsr3std7is_sameIS7_T_EE5valueEiE4typeELi0EEET0_SB_S7_
PUBLIC 379f8 0 _ZN3fmt3v116detail5writeIcNS0_14basic_appenderIcEEoTnNSt6__ndk19enable_ifIXaaaasr11is_integralIT1_EE5valuentsr3std7is_sameIS7_bEE5valuentsr3std7is_sameIS7_T_EE5valueEiE4typeELi0EEET0_SB_S7_
PUBLIC 37d08 0 _ZN3fmt3v116detail5writeIcNS0_14basic_appenderIcEEbTnNSt6__ndk19enable_ifIXsr3std7is_sameIT1_bEE5valueEiE4typeELi0EEET0_SA_S7_RKNS0_12format_specsENS1_10locale_refE
PUBLIC 37fbc 0 fmt::v11::detail::write_int_noinline<char, fmt::v11::basic_appender<char>, unsigned int>(fmt::v11::basic_appender<char>, fmt::v11::detail::write_int_arg<unsigned int>, fmt::v11::format_specs const&, fmt::v11::detail::locale_ref)
PUBLIC 38dc4 0 fmt::v11::detail::write_padded<char, (fmt::v11::align::type)1, fmt::v11::basic_appender<char>, fmt::v11::detail::write_char<char, fmt::v11::basic_appender<char> >(fmt::v11::basic_appender<char>, char, fmt::v11::format_specs const&)::{lambda(fmt::v11::basic_appender<char>&)#1}>(fmt::v11::basic_appender<char>, fmt::v11::format_specs const&, unsigned long, unsigned long, fmt::v11::detail::write_char<char, fmt::v11::basic_appender<char> >(fmt::v11::basic_appender<char>, char, fmt::v11::format_specs const&)::{lambda(fmt::v11::basic_appender<char>&)#1})
PUBLIC 39024 0 fmt::v11::detail::write_escaped_cp<fmt::v11::basic_appender<char>, char>(fmt::v11::basic_appender<char>, fmt::v11::detail::find_escape_result<char> const&)
PUBLIC 39330 0 fmt::v11::detail::write_codepoint<(unsigned long)2, char, fmt::v11::basic_appender<char> >(fmt::v11::basic_appender<char>, char, unsigned int)
PUBLIC 394a8 0 fmt::v11::detail::write_codepoint<(unsigned long)8, char, fmt::v11::basic_appender<char> >(fmt::v11::basic_appender<char>, char, unsigned int)
PUBLIC 39620 0 fmt::v11::detail::do_write_float<char, fmt::v11::basic_appender<char>, fmt::v11::detail::dragonbox::decimal_fp<double>, fmt::v11::detail::digit_grouping<char> >(fmt::v11::basic_appender<char>, fmt::v11::detail::dragonbox::decimal_fp<double> const&, fmt::v11::format_specs const&, fmt::v11::detail::float_specs, fmt::v11::detail::locale_ref)
PUBLIC 3a2f0 0 fmt::v11::detail::do_write_float<char, fmt::v11::basic_appender<char>, fmt::v11::detail::dragonbox::decimal_fp<double>, fmt::v11::detail::digit_grouping<char> >(fmt::v11::basic_appender<char>, fmt::v11::detail::dragonbox::decimal_fp<double> const&, fmt::v11::format_specs const&, fmt::v11::detail::float_specs, fmt::v11::detail::locale_ref)::{lambda(fmt::v11::basic_appender<char>(fmt::v11::basic_appender<char>))#1}::operator() const
PUBLIC 3a448 0 _ZN3fmt3v116detail17write_significandIcmTnNSt6__ndk19enable_ifIXsr3std11is_integralIT0_EE5valueEiE4typeELi0EEEPT_S9_S5_iiS8_
PUBLIC 3a5d8 0 fmt::v11::detail::write_float<char, fmt::v11::basic_appender<char>, long double>(fmt::v11::basic_appender<char>, long double, fmt::v11::format_specs, fmt::v11::detail::locale_ref)
PUBLIC 3b0d0 0 fmt::v11::detail::write_padded<char, (fmt::v11::align::type)2, fmt::v11::basic_appender<char>, fmt::v11::detail::write_bytes<char, (fmt::v11::align::type)2, fmt::v11::basic_appender<char> >(fmt::v11::basic_appender<char>, fmt::v11::basic_string_view<char>, fmt::v11::format_specs const&)::{lambda(fmt::v11::basic_appender<char>&)#1}>(fmt::v11::basic_appender<char>, fmt::v11::format_specs const&, unsigned long, unsigned long, fmt::v11::detail::write_bytes<char, (fmt::v11::align::type)2, fmt::v11::basic_appender<char> >(fmt::v11::basic_appender<char>, fmt::v11::basic_string_view<char>, fmt::v11::format_specs const&)::{lambda(fmt::v11::basic_appender<char>&)#1})
PUBLIC 3b2c4 0 fmt::v11::detail::format_dragon(fmt::v11::detail::basic_fp<unsigned __int128>, unsigned int, int, fmt::v11::detail::buffer<char>&, int&)
PUBLIC 3c6f4 0 fmt::v11::detail::bigint::operator<<=(int)
PUBLIC 3c818 0 fmt::v11::detail::bigint::assign_pow10(int)
PUBLIC 3cf74 0 fmt::v11::detail::bigint::divmod_assign(fmt::v11::detail::bigint const&)
PUBLIC 3d294 0 fmt::v11::basic_memory_buffer<unsigned int, (unsigned long)32, std::__ndk1::allocator<unsigned int> >::grow(fmt::v11::detail::buffer<unsigned int>&, unsigned long)
PUBLIC 3d334 0 fmt::v11::detail::do_write_float<char, fmt::v11::basic_appender<char>, fmt::v11::detail::big_decimal_fp, fmt::v11::detail::digit_grouping<char> >(fmt::v11::basic_appender<char>, fmt::v11::detail::big_decimal_fp const&, fmt::v11::format_specs const&, fmt::v11::detail::float_specs, fmt::v11::detail::locale_ref)
PUBLIC 3e220 0 fmt::v11::detail::do_write_float<char, fmt::v11::basic_appender<char>, fmt::v11::detail::big_decimal_fp, fmt::v11::detail::digit_grouping<char> >(fmt::v11::basic_appender<char>, fmt::v11::detail::big_decimal_fp const&, fmt::v11::format_specs const&, fmt::v11::detail::float_specs, fmt::v11::detail::locale_ref)::{lambda(fmt::v11::basic_appender<char>(fmt::v11::basic_appender<char>))#1}::operator() const
PUBLIC 3e380 0 fmt::v11::detail::write_padded<char, (fmt::v11::align::type)2, fmt::v11::basic_appender<char>, fmt::v11::detail::write_ptr<char, fmt::v11::basic_appender<char>, unsigned long>(fmt::v11::basic_appender<char>, unsigned long, fmt::v11::format_specs const*)::{lambda(fmt::v11::basic_appender<char>&)#1}>(fmt::v11::basic_appender<char>, fmt::v11::format_specs const&, unsigned long, unsigned long, fmt::v11::detail::write_ptr<char, fmt::v11::basic_appender<char>, unsigned long>(fmt::v11::basic_appender<char>, unsigned long, fmt::v11::format_specs const*)::{lambda(fmt::v11::basic_appender<char>&)#1})
PUBLIC 3e598 0 fmt::v11::detail::parse_replacement_field<char, fmt::v11::detail::vformat_to<char>(fmt::v11::detail::buffer<char>&, fmt::v11::basic_string_view<char>, fmt::v11::detail::vformat_args<char>::type, fmt::v11::detail::locale_ref)::format_handler&>(char const*, char const*, fmt::v11::detail::vformat_to<char>(fmt::v11::detail::buffer<char>&, fmt::v11::basic_string_view<char>, fmt::v11::detail::vformat_args<char>::type, fmt::v11::detail::locale_ref)::format_handler&)
PUBLIC 40238 0 fmt::v11::detail::parse_dynamic_spec<char>(char const*, char const*, int&, fmt::v11::detail::arg_ref<char>&, fmt::v11::basic_format_parse_context<char>&)
PUBLIC 404c8 0 fmt::v11::basic_format_args<fmt::v11::context>::get<char>(fmt::v11::basic_string_view<char>) const
PUBLIC 40620 0 fmt::v11::detail::write_int_noinline<char, fmt::v11::basic_appender<char>, unsigned long>(fmt::v11::basic_appender<char>, fmt::v11::detail::write_int_arg<unsigned long>, fmt::v11::format_specs const&, fmt::v11::detail::locale_ref)
PUBLIC 41494 0 fmt::v11::detail::write_int_noinline<char, fmt::v11::basic_appender<char>, unsigned __int128>(fmt::v11::basic_appender<char>, fmt::v11::detail::write_int_arg<unsigned __int128>, fmt::v11::format_specs const&, fmt::v11::detail::locale_ref)
PUBLIC 424dc 0 _ZN3fmt3v116detail15format_hexfloatIdTnNSt6__ndk19enable_ifIXntsr16is_double_doubleIT_EE5valueEiE4typeELi0EEEvS5_NS0_12format_specsERNS1_6bufferIcEE
PUBLIC 429fc 0 fmt::v11::detail::format_float<double>(double, int, fmt::v11::detail::float_specs, fmt::v11::detail::buffer<char>&)
PUBLIC 4339c 0 fmt::v11::detail::write<char, fmt::v11::basic_appender<char> >(fmt::v11::basic_appender<char>, fmt::v11::basic_string_view<char>, fmt::v11::format_specs const&)
PUBLIC 44708 0 fmt::v11::detail::for_each_codepoint<fmt::v11::detail::compute_width(fmt::v11::basic_string_view<char>)::count_code_points>(fmt::v11::basic_string_view<char>, fmt::v11::detail::compute_width(fmt::v11::basic_string_view<char>)::count_code_points)::{lambda(char const*, char const*)#1}::operator()(char const*, char const*) const
PUBLIC 448c0 0 fmt::v11::detail::write_int<fmt::v11::basic_appender<char>, unsigned long, char>(fmt::v11::basic_appender<char>, unsigned long, unsigned int, fmt::v11::format_specs const&, fmt::v11::detail::digit_grouping<char> const&)
PUBLIC 44e38 0 fmt::v11::detail::write_int<fmt::v11::basic_appender<char>, unsigned __int128, char>(fmt::v11::basic_appender<char>, unsigned __int128, unsigned int, fmt::v11::format_specs const&, fmt::v11::detail::digit_grouping<char> const&)
PUBLIC 454b0 0 <.plt ELF section in raydeeux_thesillydoggo.decimalpercentages.android64.so>
STACK CFI INIT 11d90 10 .cfa: sp 0 +
STACK CFI INIT 11da0 8 .cfa: sp 0 +
STACK CFI INIT 11da8 8 .cfa: sp 0 +
STACK CFI INIT 11db0 14 .cfa: sp 0 +
STACK CFI INIT 11dc4 1c .cfa: sp 0 +
STACK CFI INIT 11de0 10 .cfa: sp 0 +
STACK CFI INIT 11df0 134 .cfa: sp 0 +
STACK CFI INIT 11f24 84 .cfa: sp 0 +
STACK CFI INIT 11fa8 f4 .cfa: sp 0 +
STACK CFI INIT 1209c a8 .cfa: sp 0 +
STACK CFI INIT 12144 7c .cfa: sp 0 +
STACK CFI INIT 121c0 14 .cfa: sp 0 +
STACK CFI INIT 121d4 40 .cfa: sp 0 +
STACK CFI INIT 12214 28 .cfa: sp 0 +
STACK CFI INIT 1223c 190 .cfa: sp 0 +
STACK CFI INIT 123cc 2c8 .cfa: sp 0 +
STACK CFI INIT 12694 8 .cfa: sp 0 +
STACK CFI INIT 1269c 8 .cfa: sp 0 +
STACK CFI INIT 126a4 44 .cfa: sp 0 +
STACK CFI INIT 126e8 e8 .cfa: sp 0 +
STACK CFI INIT 127d0 e8 .cfa: sp 0 +
STACK CFI INIT 128b8 14 .cfa: sp 0 +
STACK CFI INIT 128cc 10 .cfa: sp 0 +
STACK CFI INIT 128dc 10 .cfa: sp 0 +
STACK CFI INIT 128ec f0 .cfa: sp 0 +
STACK CFI INIT 129dc 44 .cfa: sp 0 +
STACK CFI INIT 12a20 c .cfa: sp 0 +
STACK CFI INIT 12a2c c .cfa: sp 0 +
STACK CFI INIT 12a38 2c .cfa: sp 0 +
STACK CFI INIT 12a64 280 .cfa: sp 0 +
STACK CFI INIT 12ce4 c .cfa: sp 0 +
STACK CFI INIT 12cf0 120 .cfa: sp 0 +
STACK CFI INIT 12e10 488 .cfa: sp 0 +
STACK CFI INIT 13298 c48 .cfa: sp 0 +
STACK CFI INIT 13ee0 134 .cfa: sp 0 +
STACK CFI INIT 14014 210 .cfa: sp 0 +
STACK CFI INIT 14224 38c .cfa: sp 0 +
STACK CFI INIT 145b0 1c8 .cfa: sp 0 +
STACK CFI INIT 14778 9bc .cfa: sp 0 +
STACK CFI INIT 15134 2d4 .cfa: sp 0 +
STACK CFI INIT 15408 134 .cfa: sp 0 +
STACK CFI INIT 1553c 120 .cfa: sp 0 +
STACK CFI INIT 1565c 1c8 .cfa: sp 0 +
STACK CFI INIT 15824 168 .cfa: sp 0 +
STACK CFI INIT 1598c fc .cfa: sp 0 +
STACK CFI INIT 15a88 30 .cfa: sp 0 +
STACK CFI INIT 15bf0 30 .cfa: sp 0 +
STACK CFI INIT 15c20 98 .cfa: sp 0 +
STACK CFI INIT 15cb8 59c .cfa: sp 0 +
STACK CFI INIT 16254 8c .cfa: sp 0 +
STACK CFI INIT 162e0 30 .cfa: sp 0 +
STACK CFI INIT 163d8 60 .cfa: sp 0 +
STACK CFI 163dc .cfa: sp 32 +
STACK CFI 163e4 .cfa: x29 32 + x19: .cfa -8 + ^ x20: .cfa -16 + ^ .ra: .cfa -24 + ^ x29: .cfa -32 + ^
STACK CFI 16404 .cfa: sp 32 +
STACK CFI 1640c .cfa: sp 0 +
STACK CFI 16410 .cfa: x29 32 +
STACK CFI 1642c .cfa: sp 32 +
STACK CFI 16434 .cfa: sp 0 +
STACK CFI INIT 16438 4c .cfa: sp 0 +
STACK CFI 1643c .cfa: sp 32 +
STACK CFI 16444 .cfa: x29 32 + x19: .cfa -8 + ^ x20: .cfa -16 + ^ .ra: .cfa -24 + ^ x29: .cfa -32 + ^
STACK CFI 1645c .cfa: sp 32 +
STACK CFI 16464 .cfa: sp 0 +
STACK CFI 16468 .cfa: x29 32 +
STACK CFI 16478 .cfa: sp 32 +
STACK CFI 16480 .cfa: sp 0 +
STACK CFI INIT 16484 130 .cfa: sp 0 +
STACK CFI 16488 .cfa: sp 80 +
STACK CFI 16498 .cfa: x29 48 + x19: .cfa -8 + ^ x20: .cfa -16 + ^ x21: .cfa -24 + ^ x22: .cfa -32 + ^ .ra: .cfa -40 + ^ x29: .cfa -48 + ^
STACK CFI 1659c .cfa: sp 80 +
STACK CFI 165ac .cfa: sp 0 +
STACK CFI 165b0 .cfa: x29 48 +
STACK CFI INIT 165b4 120 .cfa: sp 0 +
STACK CFI 165b8 .cfa: sp 80 +
STACK CFI 165c8 .cfa: x29 48 + x19: .cfa -8 + ^ x20: .cfa -16 + ^ x21: .cfa -24 + ^ x22: .cfa -32 + ^ .ra: .cfa -40 + ^ x29: .cfa -48 + ^
STACK CFI 166bc .cfa: sp 80 +
STACK CFI 166cc .cfa: sp 0 +
STACK CFI 166d0 .cfa: x29 48 +
STACK CFI INIT 17580 120 .cfa: sp 0 +
STACK CFI 17584 .cfa: sp 64 +
STACK CFI 17594 .cfa: x29 64 + x19: .cfa -8 + ^ x20: .cfa -16 + ^ x21: .cfa -24 + ^ x22: .cfa -32 + ^ x23: .cfa -48 + ^ .ra: .cfa -56 + ^ x29: .cfa -64 + ^
STACK CFI 1761c .cfa: sp 64 +
STACK CFI 1762c .cfa: sp 0 +
STACK CFI 17630 .cfa: x29 64 +
STACK CFI 17658 .cfa: sp 64 +
STACK CFI 17668 .cfa: sp 0 +
STACK CFI 1766c .cfa: x29 64 +
STACK CFI 17688 .cfa: sp 64 +
STACK CFI 17698 .cfa: sp 0 +
STACK CFI 1769c .cfa: x29 64 +
STACK CFI INIT 1822c 18 .cfa: sp 0 +
STACK CFI INIT 18244 18 .cfa: sp 0 +
STACK CFI INIT 18814 18 .cfa: sp 0 +
STACK CFI INIT 18e28 18 .cfa: sp 0 +
STACK CFI INIT 1943c 18 .cfa: sp 0 +
STACK CFI INIT 19a50 18 .cfa: sp 0 +
STACK CFI INIT 1a064 18 .cfa: sp 0 +
STACK CFI INIT 1a07c 50 .cfa: sp 0 +
STACK CFI 1a080 .cfa: sp 32 +
STACK CFI 1a088 .cfa: x29 32 + x19: .cfa -16 + ^ .ra: .cfa -24 + ^ x29: .cfa -32 + ^
STACK CFI 1a0a0 .cfa: sp 32 +
STACK CFI 1a0a8 .cfa: sp 0 +
STACK CFI 1a0ac .cfa: x29 32 +
STACK CFI 1a0c0 .cfa: sp 32 +
STACK CFI 1a0c8 .cfa: sp 0 +
STACK CFI INIT 1a0cc 10 .cfa: sp 0 +
STACK CFI 1a0d0 .cfa: sp 16 +
STACK CFI 1a0d4 .cfa: x29 16 + .ra: .cfa -8 + ^ x29: .cfa -16 + ^
STACK CFI INIT 1a0dc 14 .cfa: sp 0 +
STACK CFI 1a0e0 .cfa: sp 16 +
STACK CFI 1a0e4 .cfa: x29 16 + .ra: .cfa -8 + ^ x29: .cfa -16 + ^
STACK CFI INIT 1a140 30 .cfa: sp 0 +
STACK CFI 1a144 .cfa: sp 32 +
STACK CFI 1a14c .cfa: x29 32 + x19: .cfa -16 + ^ .ra: .cfa -24 + ^ x29: .cfa -32 + ^
STACK CFI 1a164 .cfa: sp 32 +
STACK CFI 1a16c .cfa: sp 0 +
STACK CFI INIT 1a170 34 .cfa: sp 0 +
STACK CFI 1a174 .cfa: sp 32 +
STACK CFI 1a17c .cfa: x29 32 + x19: .cfa -16 + ^ .ra: .cfa -24 + ^ x29: .cfa -32 + ^
STACK CFI INIT 1a8b4 26c .cfa: sp 0 +
STACK CFI 1a8b8 .cfa: sp 112 +
STACK CFI 1a8d4 .cfa: x29 96 + x19: .cfa -8 + ^ x20: .cfa -16 + ^ x21: .cfa -24 + ^ x22: .cfa -32 + ^ x23: .cfa -40 + ^ x24: .cfa -48 + ^ x25: .cfa -56 + ^ x26: .cfa -64 + ^ x27: .cfa -72 + ^ x28: .cfa -80 + ^ .ra: .cfa -88 + ^ x29: .cfa -96 + ^
STACK CFI 1ab00 .cfa: sp 112 +
STACK CFI 1ab1c .cfa: sp 0 +
STACK CFI INIT 1ab20 1a8 .cfa: sp 0 +
STACK CFI 1ab24 .cfa: sp 64 +
STACK CFI 1ab34 .cfa: x29 64 + x19: .cfa -8 + ^ x20: .cfa -16 + ^ x21: .cfa -24 + ^ x22: .cfa -32 + ^ x23: .cfa -48 + ^ .ra: .cfa -56 + ^ x29: .cfa -64 + ^
STACK CFI 1abb8 .cfa: sp 64 +
STACK CFI 1abc8 .cfa: sp 0 +
STACK CFI 1abcc .cfa: x29 64 +
STACK CFI 1abd4 .cfa: sp 64 +
STACK CFI 1abe4 .cfa: sp 0 +
STACK CFI 1abe8 .cfa: x29 64 +
STACK CFI 1acb0 .cfa: sp 64 +
STACK CFI 1acc0 .cfa: sp 0 +
STACK CFI 1acc4 .cfa: x29 64 +
STACK CFI INIT 1acc8 170 .cfa: sp 0 +
STACK CFI 1accc .cfa: sp 96 +
STACK CFI 1ace4 .cfa: x29 96 + x19: .cfa -8 + ^ x20: .cfa -16 + ^ x21: .cfa -24 + ^ x22: .cfa -32 + ^ x23: .cfa -40 + ^ x24: .cfa -48 + ^ x25: .cfa -56 + ^ x26: .cfa -64 + ^ x27: .cfa -80 + ^ .ra: .cfa -88 + ^ x29: .cfa -96 + ^
STACK CFI 1ae18 .cfa: sp 96 +
STACK CFI 1ae30 .cfa: sp 0 +
STACK CFI 1ae34 .cfa: x29 96 +
STACK CFI INIT 1ae84 4 .cfa: sp 0 +
STACK CFI INIT 1ae88 c .cfa: sp 0 +
STACK CFI INIT 1ae94 4 .cfa: sp 0 +
STACK CFI INIT 1ae98 4 .cfa: sp 0 +
STACK CFI INIT 1ae9c 24 .cfa: sp 0 +
STACK CFI 1aea0 .cfa: sp 32 +
STACK CFI 1aea8 .cfa: x29 32 + x19: .cfa -16 + ^ .ra: .cfa -24 + ^ x29: .cfa -32 + ^
STACK CFI 1aeb4 .cfa: sp 32 +
STACK CFI 1aebc .cfa: sp 0 +
STACK CFI INIT 1aec0 18 .cfa: sp 0 +
STACK CFI INIT 1aed8 1c .cfa: sp 0 +
STACK CFI INIT 1aef4 4 .cfa: sp 0 +
STACK CFI INIT 1aef8 48 .cfa: sp 0 +
STACK CFI 1af14 .cfa: sp 32 +
STACK CFI 1af1c .cfa: x29 32 + x19: .cfa -16 + ^ .ra: .cfa -24 + ^ x29: .cfa -32 + ^
STACK CFI 1af34 .cfa: sp 32 +
STACK CFI 1af3c .cfa: sp 0 +
STACK CFI INIT 1af40 14 .cfa: sp 0 +
STACK CFI INIT 1af54 48 .cfa: sp 0 +
STACK CFI 1af70 .cfa: sp 32 +
STACK CFI 1af78 .cfa: x29 32 + x19: .cfa -16 + ^ .ra: .cfa -24 + ^ x29: .cfa -32 + ^
STACK CFI 1af90 .cfa: sp 32 +
STACK CFI 1af98 .cfa: sp 0 +
STACK CFI INIT 1b944 3f4 .cfa: sp 0 +
STACK CFI 1b948 .cfa: sp 32 +
STACK CFI 1b950 .cfa: x29 32 + x19: .cfa -16 + ^ .ra: .cfa -24 + ^ x29: .cfa -32 + ^
STACK CFI 1ba9c .cfa: sp 32 +
STACK CFI 1baa4 .cfa: sp 0 +
STACK CFI 1baa8 .cfa: x29 32 +
STACK CFI 1bab0 .cfa: sp 32 +
STACK CFI 1bab8 .cfa: sp 0 +
STACK CFI 1babc .cfa: x29 32 +
STACK CFI 1baf8 .cfa: sp 32 +
STACK CFI 1bb00 .cfa: sp 0 +
STACK CFI 1bb04 .cfa: x29 32 +
STACK CFI 1bb40 .cfa: sp 32 +
STACK CFI 1bb48 .cfa: sp 0 +
STACK CFI 1bb4c .cfa: x29 32 +
STACK CFI 1bb78 .cfa: sp 32 +
STACK CFI 1bb80 .cfa: sp 0 +
STACK CFI 1bb84 .cfa: x29 32 +
STACK CFI 1bba0 .cfa: sp 32 +
STACK CFI 1bba8 .cfa: sp 0 +
STACK CFI 1bbac .cfa: x29 32 +
STACK CFI 1bc10 .cfa: sp 32 +
STACK CFI 1bc18 .cfa: sp 0 +
STACK CFI 1bc1c .cfa: x29 32 +
STACK CFI 1bcec .cfa: sp 32 +
STACK CFI 1bcf4 .cfa: sp 0 +
STACK CFI 1bcf8 .cfa: x29 32 +
STACK CFI 1bd24 .cfa: sp 32 +
STACK CFI 1bd2c .cfa: sp 0 +
STACK CFI 1bd30 .cfa: x29 32 +
STACK CFI INIT 1bda4 b4 .cfa: sp 0 +
STACK CFI 1bda8 .cfa: sp 64 +
STACK CFI 1bdb8 .cfa: x29 64 + x19: .cfa -8 + ^ x20: .cfa -16 + ^ x21: .cfa -24 + ^ x22: .cfa -32 + ^ x23: .cfa -48 + ^ .ra: .cfa -56 + ^ x29: .cfa -64 + ^
STACK CFI 1be44 .cfa: sp 64 +
STACK CFI 1be54 .cfa: sp 0 +
STACK CFI INIT 1bea4 48 .cfa: sp 0 +
STACK CFI 1bec0 .cfa: sp 32 +
STACK CFI 1bec8 .cfa: x29 32 + x19: .cfa -16 + ^ .ra: .cfa -24 + ^ x29: .cfa -32 + ^
STACK CFI 1bee0 .cfa: sp 32 +
STACK CFI 1bee8 .cfa: sp 0 +
STACK CFI INIT 1beec 64 .cfa: sp 0 +
STACK CFI INIT 1bf50 48 .cfa: sp 0 +
STACK CFI 1bf6c .cfa: sp 32 +
STACK CFI 1bf74 .cfa: x29 32 + x19: .cfa -16 + ^ .ra: .cfa -24 + ^ x29: .cfa -32 + ^
STACK CFI 1bf8c .cfa: sp 32 +
STACK CFI 1bf94 .cfa: sp 0 +
STACK CFI INIT 1bf98 54 .cfa: sp 0 +
STACK CFI INIT 1bfec 5c .cfa: sp 0 +
STACK CFI 1bff0 .cfa: sp 32 +
STACK CFI 1bff8 .cfa: x29 32 + x19: .cfa -16 + ^ .ra: .cfa -24 + ^ x29: .cfa -32 + ^
STACK CFI 1c030 .cfa: sp 32 +
STACK CFI 1c038 .cfa: sp 0 +
STACK CFI 1c03c .cfa: sp 32 +
STACK CFI 1c044 .cfa: sp 0 +
STACK CFI INIT 1c048 58 .cfa: sp 0 +
STACK CFI 1c04c .cfa: sp 32 +
STACK CFI 1c054 .cfa: x29 32 + x19: .cfa -16 + ^ .ra: .cfa -24 + ^ x29: .cfa -32 + ^
STACK CFI 1c094 .cfa: sp 32 +
STACK CFI 1c09c .cfa: sp 0 +
STACK CFI INIT 1c0a0 110 .cfa: sp 0 +
STACK CFI INIT 1c1b0 90 .cfa: sp 0 +
STACK CFI 1c1b4 .cfa: sp 32 +
STACK CFI 1c1bc .cfa: x29 32 + x19: .cfa -8 + ^ x20: .cfa -16 + ^ .ra: .cfa -24 + ^ x29: .cfa -32 + ^
STACK CFI 1c228 .cfa: sp 32 +
STACK CFI 1c230 .cfa: sp 0 +
STACK CFI 1c234 .cfa: sp 32 +
STACK CFI 1c23c .cfa: sp 0 +
STACK CFI INIT 1c240 8c .cfa: sp 0 +
STACK CFI 1c244 .cfa: sp 32 +
STACK CFI 1c24c .cfa: x29 32 + x19: .cfa -8 + ^ x20: .cfa -16 + ^ .ra: .cfa -24 + ^ x29: .cfa -32 + ^
STACK CFI 1c2c0 .cfa: sp 32 +
STACK CFI 1c2c8 .cfa: sp 0 +
STACK CFI INIT 1c8ec 1d0 .cfa: sp 0 +
STACK CFI 1c8f0 .cfa: sp 48 +
STACK CFI 1c8fc .cfa: x29 48 + x19: .cfa -8 + ^ x20: .cfa -16 + ^ x21: .cfa -24 + ^ x22: .cfa -32 + ^ .ra: .cfa -40 + ^ x29: .cfa -48 + ^
STACK CFI 1ca8c .cfa: sp 48 +
STACK CFI 1ca98 .cfa: sp 0 +
STACK CFI 1ca9c .cfa: x29 48 +
STACK CFI 1caa8 .cfa: sp 48 +
STACK CFI 1cab4 .cfa: sp 0 +
STACK CFI 1cab8 .cfa: x29 48 +
STACK CFI INIT 1cabc 14 .cfa: sp 0 +
STACK CFI 1cac0 .cfa: sp 16 +
STACK CFI 1cac4 .cfa: x29 16 + .ra: .cfa -8 + ^ x29: .cfa -16 + ^
STACK CFI INIT 1cad0 44 .cfa: sp 0 +
STACK CFI 1cad4 .cfa: sp 32 +
STACK CFI 1cadc .cfa: x29 32 + x19: .cfa -16 + ^ .ra: .cfa -24 + ^ x29: .cfa -32 + ^
STACK CFI 1cafc .cfa: sp 32 +
STACK CFI 1cb04 .cfa: sp 0 +
STACK CFI 1cb08 .cfa: sp 32 +
STACK CFI 1cb10 .cfa: sp 0 +
STACK CFI INIT 1cd1c 98 .cfa: sp 0 +
STACK CFI 1cd20 .cfa: sp 48 +
STACK CFI 1cd2c .cfa: x29 48 + x19: .cfa -8 + ^ x20: .cfa -16 + ^ x21: .cfa -32 + ^ .ra: .cfa -40 + ^ x29: .cfa -48 + ^
STACK CFI 1cd4c .cfa: sp 48 +
STACK CFI 1cd58 .cfa: sp 0 +
STACK CFI 1cd5c .cfa: x29 48 +
STACK CFI 1cd94 .cfa: sp 48 +
STACK CFI 1cda0 .cfa: sp 0 +
STACK CFI 1cda4 .cfa: sp 48 +
STACK CFI 1cdb0 .cfa: sp 0 +
STACK CFI INIT 1cdb4 1dc .cfa: sp 0 +
STACK CFI 1cdb8 .cfa: sp 48 +
STACK CFI 1cdc4 .cfa: x29 48 + x19: .cfa -8 + ^ x20: .cfa -16 + ^ x21: .cfa -24 + ^ x22: .cfa -32 + ^ .ra: .cfa -40 + ^ x29: .cfa -48 + ^
STACK CFI 1cf78 .cfa: sp 48 +
STACK CFI 1cf84 .cfa: sp 0 +
STACK CFI 1cf88 .cfa: x29 48 +
STACK CFI INIT 1cf90 14 .cfa: sp 0 +
STACK CFI 1cf94 .cfa: sp 16 +
STACK CFI 1cf98 .cfa: x29 16 + .ra: .cfa -8 + ^ x29: .cfa -16 + ^
STACK CFI INIT 1cfa4 1a8 .cfa: sp 0 +
STACK CFI 1cfa8 .cfa: sp 64 +
STACK CFI 1cfb8 .cfa: x29 64 + x19: .cfa -8 + ^ x20: .cfa -16 + ^ x21: .cfa -24 + ^ x22: .cfa -32 + ^ x23: .cfa -40 + ^ x24: .cfa -48 + ^ .ra: .cfa -56 + ^ x29: .cfa -64 + ^
STACK CFI 1d11c .cfa: sp 64 +
STACK CFI 1d12c .cfa: sp 0 +
STACK CFI 1d130 .cfa: sp 64 +
STACK CFI 1d140 .cfa: sp 0 +
STACK CFI 1d144 .cfa: x29 64 +
STACK CFI INIT 1d14c 12c .cfa: sp 0 +
STACK CFI 1d150 .cfa: sp 64 +
STACK CFI 1d160 .cfa: x29 64 + x19: .cfa -8 + ^ x20: .cfa -16 + ^ x21: .cfa -24 + ^ x22: .cfa -32 + ^ x23: .cfa -40 + ^ x24: .cfa -48 + ^ .ra: .cfa -56 + ^ x29: .cfa -64 + ^
STACK CFI 1d248 .cfa: sp 64 +
STACK CFI 1d258 .cfa: sp 0 +
STACK CFI 1d25c .cfa: sp 64 +
STACK CFI 1d26c .cfa: sp 0 +
STACK CFI 1d270 .cfa: x29 64 +
STACK CFI INIT 1d278 14 .cfa: sp 0 +
STACK CFI 1d27c .cfa: sp 16 +
STACK CFI 1d280 .cfa: x29 16 + .ra: .cfa -8 + ^ x29: .cfa -16 + ^
STACK CFI INIT 1ddd8 48 .cfa: sp 0 +
STACK CFI 1ddf4 .cfa: sp 32 +
STACK CFI 1ddfc .cfa: x29 32 + x19: .cfa -16 + ^ .ra: .cfa -24 + ^ x29: .cfa -32 + ^
STACK CFI 1de14 .cfa: sp 32 +
STACK CFI 1de1c .cfa: sp 0 +
STACK CFI INIT 1de6c 50c .cfa: sp 0 +
STACK CFI 1de70 .cfa: sp 32 +
STACK CFI 1de78 .cfa: x29 32 + x19: .cfa -16 + ^ .ra: .cfa -24 + ^ x29: .cfa -32 + ^
STACK CFI 1dfc0 .cfa: sp 32 +
STACK CFI 1dfc8 .cfa: sp 0 +
STACK CFI 1dfcc .cfa: x29 32 +
STACK CFI 1e13c .cfa: sp 32 +
STACK CFI 1e144 .cfa: sp 0 +
STACK CFI 1e148 .cfa: x29 32 +
STACK CFI 1e164 .cfa: sp 32 +
STACK CFI 1e16c .cfa: sp 0 +
STACK CFI 1e170 .cfa: x29 32 +
STACK CFI 1e1cc .cfa: sp 32 +
STACK CFI 1e1d4 .cfa: sp 0 +
STACK CFI 1e1d8 .cfa: x29 32 +
STACK CFI 1e1f4 .cfa: sp 32 +
STACK CFI 1e1fc .cfa: sp 0 +
STACK CFI 1e200 .cfa: x29 32 +
STACK CFI 1e21c .cfa: sp 32 +
STACK CFI 1e224 .cfa: sp 0 +
STACK CFI 1e228 .cfa: x29 32 +
STACK CFI 1e244 .cfa: sp 32 +
STACK CFI 1e24c .cfa: sp 0 +
STACK CFI 1e250 .cfa: x29 32 +
STACK CFI 1e268 .cfa: sp 32 +
STACK CFI 1e270 .cfa: sp 0 +
STACK CFI 1e274 .cfa: x29 32 +
STACK CFI 1e290 .cfa: sp 32 +
STACK CFI 1e298 .cfa: sp 0 +
STACK CFI 1e29c .cfa: x29 32 +
STACK CFI 1e2b8 .cfa: sp 32 +
STACK CFI 1e2c0 .cfa: sp 0 +
STACK CFI 1e2c4 .cfa: x29 32 +
STACK CFI 1e2e0 .cfa: sp 32 +
STACK CFI 1e2e8 .cfa: sp 0 +
STACK CFI 1e2ec .cfa: x29 32 +
STACK CFI 1e340 .cfa: sp 32 +
STACK CFI 1e348 .cfa: sp 0 +
STACK CFI 1e34c .cfa: x29 32 +
STACK CFI 1e368 .cfa: sp 32 +
STACK CFI 1e370 .cfa: sp 0 +
STACK CFI 1e374 .cfa: x29 32 +
STACK CFI INIT 1e504 c8 .cfa: sp 0 +
STACK CFI 1e508 .cfa: sp 48 +
STACK CFI 1e514 .cfa: x29 48 + x19: .cfa -8 + ^ x20: .cfa -16 + ^ x21: .cfa -32 + ^ .ra: .cfa -40 + ^ x29: .cfa -48 + ^
STACK CFI 1e5bc .cfa: sp 48 +
STACK CFI 1e5c8 .cfa: sp 0 +
STACK CFI INIT 1e5cc 5c .cfa: sp 0 +
STACK CFI 1e5d0 .cfa: sp 32 +
STACK CFI 1e5d8 .cfa: x29 32 + x19: .cfa -16 + ^ .ra: .cfa -24 + ^ x29: .cfa -32 + ^
STACK CFI 1e610 .cfa: sp 32 +
STACK CFI 1e618 .cfa: sp 0 +
STACK CFI 1e61c .cfa: sp 32 +
STACK CFI 1e624 .cfa: sp 0 +
STACK CFI INIT 1e628 58 .cfa: sp 0 +
STACK CFI 1e62c .cfa: sp 32 +
STACK CFI 1e634 .cfa: x29 32 + x19: .cfa -16 + ^ .ra: .cfa -24 + ^ x29: .cfa -32 + ^
STACK CFI 1e674 .cfa: sp 32 +
STACK CFI 1e67c .cfa: sp 0 +
STACK CFI INIT 1e680 80 .cfa: sp 0 +
STACK CFI 1e684 .cfa: sp 32 +
STACK CFI 1e68c .cfa: x29 32 + x19: .cfa -8 + ^ x20: .cfa -16 + ^ .ra: .cfa -24 + ^ x29: .cfa -32 + ^
STACK CFI 1e6dc .cfa: sp 32 +
STACK CFI 1e6e4 .cfa: sp 0 +
STACK CFI 1e6e8 .cfa: x29 32 +
STACK CFI 1e6f4 .cfa: sp 32 +
STACK CFI 1e6fc .cfa: sp 0 +
STACK CFI INIT 1e700 5c .cfa: sp 0 +
STACK CFI 1e704 .cfa: sp 32 +
STACK CFI 1e70c .cfa: x29 32 + x19: .cfa -16 + ^ .ra: .cfa -24 + ^ x29: .cfa -32 + ^
STACK CFI 1e744 .cfa: sp 32 +
STACK CFI 1e74c .cfa: sp 0 +
STACK CFI 1e750 .cfa: sp 32 +
STACK CFI 1e758 .cfa: sp 0 +
STACK CFI INIT 1e75c 58 .cfa: sp 0 +
STACK CFI 1e760 .cfa: sp 32 +
STACK CFI 1e768 .cfa: x29 32 + x19: .cfa -16 + ^ .ra: .cfa -24 + ^ x29: .cfa -32 + ^
STACK CFI 1e7a8 .cfa: sp 32 +
STACK CFI 1e7b0 .cfa: sp 0 +
STACK CFI INIT 1e7b4 48 .cfa: sp 0 +
STACK CFI INIT 1e7fc 48 .cfa: sp 0 +
STACK CFI 1e818 .cfa: sp 32 +
STACK CFI 1e820 .cfa: x29 32 + x19: .cfa -16 + ^ .ra: .cfa -24 + ^ x29: .cfa -32 + ^
STACK CFI 1e838 .cfa: sp 32 +
STACK CFI 1e840 .cfa: sp 0 +
STACK CFI INIT 1e844 48 .cfa: sp 0 +
STACK CFI INIT 1e88c 5c .cfa: sp 0 +
STACK CFI 1e890 .cfa: sp 32 +
STACK CFI 1e898 .cfa: x29 32 + x19: .cfa -16 + ^ .ra: .cfa -24 + ^ x29: .cfa -32 + ^
STACK CFI 1e8d0 .cfa: sp 32 +
STACK CFI 1e8d8 .cfa: sp 0 +
STACK CFI 1e8dc .cfa: sp 32 +
STACK CFI 1e8e4 .cfa: sp 0 +
STACK CFI INIT 1e8e8 58 .cfa: sp 0 +
STACK CFI 1e8ec .cfa: sp 32 +
STACK CFI 1e8f4 .cfa: x29 32 + x19: .cfa -16 + ^ .ra: .cfa -24 + ^ x29: .cfa -32 + ^
STACK CFI 1e934 .cfa: sp 32 +
STACK CFI 1e93c .cfa: sp 0 +
STACK CFI INIT 1e940 f8 .cfa: sp 0 +
STACK CFI 1e944 .cfa: sp 64 +
STACK CFI 1e954 .cfa: x29 64 + x19: .cfa -8 + ^ x20: .cfa -16 + ^ x21: .cfa -24 + ^ x22: .cfa -32 + ^ x23: .cfa -40 + ^ x24: .cfa -48 + ^ .ra: .cfa -56 + ^ x29: .cfa -64 + ^
STACK CFI 1e998 .cfa: sp 64 +
STACK CFI 1e9a8 .cfa: sp 0 +
STACK CFI 1e9ac .cfa: x29 64 +
STACK CFI 1ea24 .cfa: sp 64 +
STACK CFI 1ea34 .cfa: sp 0 +
STACK CFI INIT 1ea38 5c .cfa: sp 0 +
STACK CFI 1ea3c .cfa: sp 32 +
STACK CFI 1ea44 .cfa: x29 32 + x19: .cfa -16 + ^ .ra: .cfa -24 + ^ x29: .cfa -32 + ^
STACK CFI 1ea7c .cfa: sp 32 +
STACK CFI 1ea84 .cfa: sp 0 +
STACK CFI 1ea88 .cfa: sp 32 +
STACK CFI 1ea90 .cfa: sp 0 +
STACK CFI INIT 1ea94 58 .cfa: sp 0 +
STACK CFI 1ea98 .cfa: sp 32 +
STACK CFI 1eaa0 .cfa: x29 32 + x19: .cfa -16 + ^ .ra: .cfa -24 + ^ x29: .cfa -32 + ^
STACK CFI 1eae0 .cfa: sp 32 +
STACK CFI 1eae8 .cfa: sp 0 +
STACK CFI INIT 1eaec 90 .cfa: sp 0 +
STACK CFI INIT 1eb7c 48 .cfa: sp 0 +
STACK CFI 1eb98 .cfa: sp 32 +
STACK CFI 1eba0 .cfa: x29 32 + x19: .cfa -16 + ^ .ra: .cfa -24 + ^ x29: .cfa -32 + ^
STACK CFI 1ebb8 .cfa: sp 32 +
STACK CFI 1ebc0 .cfa: sp 0 +
STACK CFI INIT 1ebc4 d0 .cfa: sp 0 +
STACK CFI 1ebc8 .cfa: sp 48 +
STACK CFI 1ebd4 .cfa: x29 48 + x19: .cfa -8 + ^ x20: .cfa -16 + ^ x21: .cfa -24 + ^ x22: .cfa -32 + ^ .ra: .cfa -40 + ^ x29: .cfa -48 + ^
STACK CFI 1ec58 .cfa: sp 48 +
STACK CFI 1ec64 .cfa: sp 0 +
STACK CFI 1ec68 .cfa: x29 48 +
STACK CFI 1ec80 .cfa: sp 48 +
STACK CFI 1ec8c .cfa: sp 0 +
STACK CFI 1ec90 .cfa: x29 48 +
STACK CFI INIT 1ec94 4b0 .cfa: sp 0 +
STACK CFI 1ec98 .cfa: sp 80 +
STACK CFI 1ecac .cfa: x29 80 + x19: .cfa -8 + ^ x20: .cfa -16 + ^ x21: .cfa -24 + ^ x22: .cfa -32 + ^ x23: .cfa -40 + ^ x24: .cfa -48 + ^ x25: .cfa -64 + ^ .ra: .cfa -72 + ^ x29: .cfa -80 + ^
STACK CFI 1ece0 .cfa: sp 80 +
STACK CFI 1ecf4 .cfa: sp 0 +
STACK CFI 1ecf8 .cfa: x29 80 +
STACK CFI 1f0b8 .cfa: sp 80 +
STACK CFI 1f0cc .cfa: sp 0 +
STACK CFI 1f0d0 .cfa: x29 80 +
STACK CFI 1f128 .cfa: sp 80 +
STACK CFI 1f13c .cfa: sp 0 +
STACK CFI 1f140 .cfa: x29 80 +
STACK CFI INIT 1f320 7c .cfa: sp 0 +
STACK CFI 1f324 .cfa: sp 48 +
STACK CFI 1f330 .cfa: x29 48 + x19: .cfa -8 + ^ x20: .cfa -16 + ^ x21: .cfa -32 + ^ .ra: .cfa -40 + ^ x29: .cfa -48 + ^
STACK CFI 1f37c .cfa: sp 48 +
STACK CFI 1f388 .cfa: sp 0 +
STACK CFI 1f38c .cfa: sp 48 +
STACK CFI 1f398 .cfa: sp 0 +
STACK CFI INIT 1f39c a4 .cfa: sp 0 +
STACK CFI 1f3a0 .cfa: sp 48 +
STACK CFI 1f3ac .cfa: x29 48 + x19: .cfa -8 + ^ x20: .cfa -16 + ^ x21: .cfa -32 + ^ .ra: .cfa -40 + ^ x29: .cfa -48 + ^
STACK CFI 1f3cc .cfa: sp 48 +
STACK CFI 1f3d8 .cfa: sp 0 +
STACK CFI 1f3dc .cfa: x29 48 +
STACK CFI 1f420 .cfa: sp 48 +
STACK CFI 1f42c .cfa: sp 0 +
STACK CFI 1f430 .cfa: sp 48 +
STACK CFI 1f43c .cfa: sp 0 +
STACK CFI INIT 1f440 14c .cfa: sp 0 +
STACK CFI 1f444 .cfa: sp 48 +
STACK CFI 1f450 .cfa: x29 48 + x19: .cfa -8 + ^ x20: .cfa -16 + ^ x21: .cfa -32 + ^ .ra: .cfa -40 + ^ x29: .cfa -48 + ^
STACK CFI 1f56c .cfa: sp 48 +
STACK CFI 1f578 .cfa: sp 0 +
STACK CFI 1f57c .cfa: sp 48 +
STACK CFI 1f588 .cfa: sp 0 +
STACK CFI INIT 1f58c 24 .cfa: sp 0 +
STACK CFI 1f590 .cfa: sp 32 +
STACK CFI 1f598 .cfa: x29 32 + x19: .cfa -16 + ^ .ra: .cfa -24 + ^ x29: .cfa -32 + ^
STACK CFI 1f5a4 .cfa: sp 32 +
STACK CFI 1f5ac .cfa: sp 0 +
STACK CFI INIT 2021c 44 .cfa: sp 0 +
STACK CFI 20220 .cfa: sp 32 +
STACK CFI 20228 .cfa: x29 32 + x19: .cfa -16 + ^ .ra: .cfa -24 + ^ x29: .cfa -32 + ^
STACK CFI 20244 .cfa: sp 32 +
STACK CFI 2024c .cfa: sp 0 +
STACK CFI 20250 .cfa: x29 32 +
STACK CFI 20254 .cfa: sp 32 +
STACK CFI 2025c .cfa: sp 0 +
STACK CFI INIT 20260 b0 .cfa: sp 0 +
STACK CFI 20264 .cfa: sp 16 +
STACK CFI 20268 .cfa: x29 16 + .ra: .cfa -8 + ^ x29: .cfa -16 + ^
STACK CFI 202b4 .cfa: sp 16 +
STACK CFI 202b8 .cfa: sp 0 +
STACK CFI 202bc .cfa: x29 16 +
STACK CFI 202c0 .cfa: sp 16 +
STACK CFI 202c4 .cfa: sp 0 +
STACK CFI 202c8 .cfa: x29 16 +
STACK CFI 202d8 .cfa: sp 16 +
STACK CFI 202dc .cfa: sp 0 +
STACK CFI 202e0 .cfa: x29 16 +
STACK CFI 20308 .cfa: sp 16 +
STACK CFI 2030c .cfa: sp 0 +
STACK CFI INIT 20310 ac .cfa: sp 0 +
STACK CFI 20314 .cfa: sp 64 +
STACK CFI 20324 .cfa: x29 64 + x19: .cfa -8 + ^ x20: .cfa -16 + ^ x21: .cfa -24 + ^ x22: .cfa -32 + ^ x23: .cfa -48 + ^ .ra: .cfa -56 + ^ x29: .cfa -64 + ^
STACK CFI 203a0 .cfa: sp 64 +
STACK CFI 203b0 .cfa: sp 0 +
STACK CFI 203b4 .cfa: x29 64 +
STACK CFI INIT 203bc 110 .cfa: sp 0 +
STACK CFI 203c0 .cfa: sp 64 +
STACK CFI 203d0 .cfa: x29 64 + x19: .cfa -8 + ^ x20: .cfa -16 + ^ x21: .cfa -24 + ^ x22: .cfa -32 + ^ x23: .cfa -40 + ^ x24: .cfa -48 + ^ .ra: .cfa -56 + ^ x29: .cfa -64 + ^
STACK CFI 204b0 .cfa: sp 64 +
STACK CFI 204c0 .cfa: sp 0 +
STACK CFI 204c4 .cfa: x29 64 +
STACK CFI INIT 20690 14 .cfa: sp 0 +
STACK CFI 20694 .cfa: sp 16 +
STACK CFI 20698 .cfa: x29 16 + .ra: .cfa -8 + ^ x29: .cfa -16 + ^
STACK CFI INIT 206f0 1d0 .cfa: sp 0 +
STACK CFI 206f4 .cfa: sp 32 +
STACK CFI 206fc .cfa: x29 32 + x19: .cfa -16 + ^ .ra: .cfa -24 + ^ x29: .cfa -32 + ^
STACK CFI 20734 .cfa: sp 32 +
STACK CFI 2073c .cfa: sp 0 +
STACK CFI 20740 .cfa: x29 32 +
STACK CFI 20768 .cfa: sp 32 +
STACK CFI 20770 .cfa: sp 0 +
STACK CFI 20774 .cfa: x29 32 +
STACK CFI 207a0 .cfa: sp 32 +
STACK CFI 207a8 .cfa: sp 0 +
STACK CFI 207ac .cfa: x29 32 +
STACK CFI 207dc .cfa: sp 32 +
STACK CFI 207e4 .cfa: sp 0 +
STACK CFI 207e8 .cfa: x29 32 +
STACK CFI 20800 .cfa: sp 32 +
STACK CFI 20808 .cfa: sp 0 +
STACK CFI 2080c .cfa: x29 32 +
STACK CFI 20828 .cfa: sp 32 +
STACK CFI 20830 .cfa: sp 0 +
STACK CFI 20834 .cfa: x29 32 +
STACK CFI 20844 .cfa: sp 32 +
STACK CFI 2084c .cfa: sp 0 +
STACK CFI 20850 .cfa: x29 32 +
STACK CFI 20860 .cfa: sp 32 +
STACK CFI 20868 .cfa: sp 0 +
STACK CFI 2086c .cfa: sp 32 +
STACK CFI 20874 .cfa: sp 0 +
STACK CFI 20878 .cfa: x29 32 +
STACK CFI 2088c .cfa: sp 32 +
STACK CFI 20894 .cfa: sp 0 +
STACK CFI 20898 .cfa: x29 32 +
STACK CFI 208b0 .cfa: sp 32 +
STACK CFI 208b8 .cfa: sp 0 +
STACK CFI 208bc .cfa: x29 32 +
STACK CFI INIT 208c0 4c4 .cfa: sp 0 +
STACK CFI 208c4 .cfa: sp 32 +
STACK CFI 208cc .cfa: x29 32 + x19: .cfa -16 + ^ .ra: .cfa -24 + ^ x29: .cfa -32 + ^
STACK CFI 20920 .cfa: sp 32 +
STACK CFI 20928 .cfa: sp 0 +
STACK CFI 2092c .cfa: x29 32 +
STACK CFI 2096c .cfa: sp 32 +
STACK CFI 20974 .cfa: sp 0 +
STACK CFI 20978 .cfa: x29 32 +
STACK CFI 209a8 .cfa: sp 32 +
STACK CFI 209b0 .cfa: sp 0 +
STACK CFI 209b4 .cfa: x29 32 +
STACK CFI 209e4 .cfa: sp 32 +
STACK CFI 209ec .cfa: sp 0 +
STACK CFI 209f0 .cfa: x29 32 +
STACK CFI 20a00 .cfa: sp 32 +
STACK CFI 20a08 .cfa: sp 0 +
STACK CFI 20a0c .cfa: x29 32 +
STACK CFI 20a2c .cfa: sp 32 +
STACK CFI 20a34 .cfa: sp 0 +
STACK CFI 20a38 .cfa: x29 32 +
STACK CFI 20a58 .cfa: sp 32 +
STACK CFI 20a60 .cfa: sp 0 +
STACK CFI 20a64 .cfa: x29 32 +
STACK CFI 20a84 .cfa: sp 32 +
STACK CFI 20a8c .cfa: sp 0 +
STACK CFI 20a90 .cfa: x29 32 +
STACK CFI 20ab0 .cfa: sp 32 +
STACK CFI 20ab8 .cfa: sp 0 +
STACK CFI 20abc .cfa: x29 32 +
STACK CFI 20b40 .cfa: sp 32 +
STACK CFI 20b48 .cfa: sp 0 +
STACK CFI 20b4c .cfa: x29 32 +
STACK CFI 20b5c .cfa: sp 32 +
STACK CFI 20b64 .cfa: sp 0 +
STACK CFI 20b68 .cfa: x29 32 +
STACK CFI 20b78 .cfa: sp 32 +
STACK CFI 20b80 .cfa: sp 0 +
STACK CFI 20b84 .cfa: x29 32 +
STACK CFI 20b94 .cfa: sp 32 +
STACK CFI 20b9c .cfa: sp 0 +
STACK CFI 20ba0 .cfa: x29 32 +
STACK CFI 20bb0 .cfa: sp 32 +
STACK CFI 20bb8 .cfa: sp 0 +
STACK CFI 20bbc .cfa: x29 32 +
STACK CFI 20bcc .cfa: sp 32 +
STACK CFI 20bd4 .cfa: sp 0 +
STACK CFI 20bd8 .cfa: x29 32 +
STACK CFI 20be8 .cfa: sp 32 +
STACK CFI 20bf0 .cfa: sp 0 +
STACK CFI 20bf4 .cfa: x29 32 +
STACK CFI 20c04 .cfa: sp 32 +
STACK CFI 20c0c .cfa: sp 0 +
STACK CFI 20c10 .cfa: x29 32 +
STACK CFI 20c34 .cfa: sp 32 +
STACK CFI 20c3c .cfa: sp 0 +
STACK CFI 20c40 .cfa: x29 32 +
STACK CFI 20c58 .cfa: sp 32 +
STACK CFI 20c60 .cfa: sp 0 +
STACK CFI 20c64 .cfa: x29 32 +
STACK CFI 20c7c .cfa: sp 32 +
STACK CFI 20c84 .cfa: sp 0 +
STACK CFI 20c88 .cfa: x29 32 +
STACK CFI 20ca0 .cfa: sp 32 +
STACK CFI 20ca8 .cfa: sp 0 +
STACK CFI 20cac .cfa: x29 32 +
STACK CFI 20cc4 .cfa: sp 32 +
STACK CFI 20ccc .cfa: sp 0 +
STACK CFI 20cd0 .cfa: x29 32 +
STACK CFI 20ce8 .cfa: sp 32 +
STACK CFI 20cf0 .cfa: sp 0 +
STACK CFI 20cf4 .cfa: x29 32 +
STACK CFI 20d0c .cfa: sp 32 +
STACK CFI 20d14 .cfa: sp 0 +
STACK CFI 20d18 .cfa: x29 32 +
STACK CFI 20d30 .cfa: sp 32 +
STACK CFI 20d38 .cfa: sp 0 +
STACK CFI 20d3c .cfa: x29 32 +
STACK CFI 20d54 .cfa: sp 32 +
STACK CFI 20d5c .cfa: sp 0 +
STACK CFI 20d60 .cfa: x29 32 +
STACK CFI 20d74 .cfa: sp 32 +
STACK CFI 20d7c .cfa: sp 0 +
STACK CFI 20d80 .cfa: x29 32 +
STACK CFI INIT 21214 420 .cfa: sp 0 +
STACK CFI 21218 .cfa: sp 80 +
STACK CFI 2122c .cfa: x29 80 + x19: .cfa -8 + ^ x20: .cfa -16 + ^ x21: .cfa -24 + ^ x22: .cfa -32 + ^ x23: .cfa -40 + ^ x24: .cfa -48 + ^ x25: .cfa -64 + ^ .ra: .cfa -72 + ^ x29: .cfa -80 + ^
STACK CFI 21280 .cfa: sp 80 +
STACK CFI 21294 .cfa: sp 0 +
STACK CFI 21298 .cfa: x29 80 +
STACK CFI 21440 .cfa: sp 80 +
STACK CFI 21454 .cfa: sp 0 +
STACK CFI 21458 .cfa: x29 80 +
STACK CFI 21614 .cfa: sp 80 +
STACK CFI 21628 .cfa: sp 0 +
STACK CFI 2162c .cfa: x29 80 +
STACK CFI INIT 21d70 80 .cfa: sp 0 +
STACK CFI 21d74 .cfa: sp 48 +
STACK CFI 21d80 .cfa: x29 48 + x19: .cfa -8 + ^ x20: .cfa -16 + ^ x21: .cfa -24 + ^ x22: .cfa -32 + ^ .ra: .cfa -40 + ^ x29: .cfa -48 + ^
STACK CFI 21d98 .cfa: sp 48 +
STACK CFI 21da4 .cfa: sp 0 +
STACK CFI 21da8 .cfa: x29 48 +
STACK CFI 21dd8 .cfa: sp 48 +
STACK CFI 21de4 .cfa: sp 0 +
STACK CFI 21de8 .cfa: x29 48 +
STACK CFI INIT 21df0 68 .cfa: sp 0 +
STACK CFI 21df4 .cfa: sp 32 +
STACK CFI 21dfc .cfa: x29 32 + x19: .cfa -8 + ^ x20: .cfa -16 + ^ .ra: .cfa -24 + ^ x29: .cfa -32 + ^
STACK CFI 21e14 .cfa: sp 32 +
STACK CFI 21e1c .cfa: sp 0 +
STACK CFI 21e20 .cfa: x29 32 +
STACK CFI 21e4c .cfa: sp 32 +
STACK CFI 21e54 .cfa: sp 0 +
STACK CFI INIT 21e58 14 .cfa: sp 0 +
STACK CFI 21e5c .cfa: sp 16 +
STACK CFI 21e60 .cfa: x29 16 + .ra: .cfa -8 + ^ x29: .cfa -16 + ^
STACK CFI INIT 21eb8 480 .cfa: sp 0 +
STACK CFI 21ebc .cfa: sp 80 +
STACK CFI 21ed0 .cfa: x29 80 + x19: .cfa -8 + ^ x20: .cfa -16 + ^ x21: .cfa -24 + ^ x22: .cfa -32 + ^ x23: .cfa -40 + ^ x24: .cfa -48 + ^ x25: .cfa -64 + ^ .ra: .cfa -72 + ^ x29: .cfa -80 + ^
STACK CFI 21f08 .cfa: sp 80 +
STACK CFI 21f1c .cfa: sp 0 +
STACK CFI 21f20 .cfa: x29 80 +
STACK CFI 222ac .cfa: sp 80 +
STACK CFI 222c0 .cfa: sp 0 +
STACK CFI 222c4 .cfa: x29 80 +
STACK CFI 2231c .cfa: sp 80 +
STACK CFI 22330 .cfa: sp 0 +
STACK CFI 22334 .cfa: x29 80 +
STACK CFI INIT 22538 1a8 .cfa: sp 0 +
STACK CFI 2253c .cfa: sp 48 +
STACK CFI 22548 .cfa: x29 48 + x19: .cfa -8 + ^ x20: .cfa -16 + ^ x21: .cfa -24 + ^ x22: .cfa -32 + ^ .ra: .cfa -40 + ^ x29: .cfa -48 + ^
STACK CFI 226c8 .cfa: sp 48 +
STACK CFI 226d4 .cfa: sp 0 +
STACK CFI 226d8 .cfa: x29 48 +
STACK CFI INIT 226e0 14 .cfa: sp 0 +
STACK CFI 226e4 .cfa: sp 16 +
STACK CFI 226e8 .cfa: x29 16 + .ra: .cfa -8 + ^ x29: .cfa -16 + ^
STACK CFI INIT 226f4 14 .cfa: sp 0 +
STACK CFI 226f8 .cfa: sp 16 +
STACK CFI 226fc .cfa: x29 16 + .ra: .cfa -8 + ^ x29: .cfa -16 + ^
STACK CFI INIT 22708 48 .cfa: sp 0 +
STACK CFI 22724 .cfa: sp 32 +
STACK CFI 2272c .cfa: x29 32 + x19: .cfa -16 + ^ .ra: .cfa -24 + ^ x29: .cfa -32 + ^
STACK CFI 22744 .cfa: sp 32 +
STACK CFI 2274c .cfa: sp 0 +
STACK CFI INIT 22750 30 .cfa: sp 0 +
STACK CFI INIT 22780 48 .cfa: sp 0 +
STACK CFI 2279c .cfa: sp 32 +
STACK CFI 227a4 .cfa: x29 32 + x19: .cfa -16 + ^ .ra: .cfa -24 + ^ x29: .cfa -32 + ^
STACK CFI 227bc .cfa: sp 32 +
STACK CFI 227c4 .cfa: sp 0 +
STACK CFI INIT 227c8 38 .cfa: sp 0 +
STACK CFI INIT 229d8 68 .cfa: sp 0 +
STACK CFI 229dc .cfa: sp 32 +
STACK CFI 229e4 .cfa: x29 32 + x19: .cfa -16 + ^ .ra: .cfa -24 + ^ x29: .cfa -32 + ^
STACK CFI 22a34 .cfa: sp 32 +
STACK CFI 22a3c .cfa: sp 0 +
STACK CFI INIT 22a40 1c4 .cfa: sp 0 +
STACK CFI INIT 22c04 c4 .cfa: sp 0 +
STACK CFI INIT 22cc8 68 .cfa: sp 0 +
STACK CFI 22ccc .cfa: sp 32 +
STACK CFI 22cd4 .cfa: x29 32 + x19: .cfa -16 + ^ .ra: .cfa -24 + ^ x29: .cfa -32 + ^
STACK CFI 22d24 .cfa: sp 32 +
STACK CFI 22d2c .cfa: sp 0 +
STACK CFI INIT 22d30 4 .cfa: sp 0 +
STACK CFI INIT 22d34 14 .cfa: sp 0 +
STACK CFI INIT 22d48 6c .cfa: sp 0 +
STACK CFI 22d4c .cfa: sp 32 +
STACK CFI 22d54 .cfa: x29 32 + x19: .cfa -16 + ^ .ra: .cfa -24 + ^ x29: .cfa -32 + ^
STACK CFI 22d9c .cfa: sp 32 +
STACK CFI 22da4 .cfa: sp 0 +
STACK CFI 22da8 .cfa: sp 32 +
STACK CFI 22db0 .cfa: sp 0 +
STACK CFI INIT 22db4 68 .cfa: sp 0 +
STACK CFI 22db8 .cfa: sp 32 +
STACK CFI 22dc0 .cfa: x29 32 + x19: .cfa -16 + ^ .ra: .cfa -24 + ^ x29: .cfa -32 + ^
STACK CFI 22e10 .cfa: sp 32 +
STACK CFI 22e18 .cfa: sp 0 +
STACK CFI INIT 22e1c c .cfa: sp 0 +
STACK CFI INIT 22e28 24 .cfa: sp 0 +
STACK CFI INIT 22e4c 4 .cfa: sp 0 +
STACK CFI INIT 22e50 4 .cfa: sp 0 +
STACK CFI INIT 22e54 14 .cfa: sp 0 +
STACK CFI INIT 22eb4 2fc .cfa: sp 0 +
STACK CFI 22eb8 .cfa: sp 64 +
STACK CFI 22ec8 .cfa: x29 64 + x19: .cfa -8 + ^ x20: .cfa -16 + ^ x21: .cfa -24 + ^ x22: .cfa -32 + ^ x23: .cfa -40 + ^ x24: .cfa -48 + ^ .ra: .cfa -56 + ^ x29: .cfa -64 + ^
STACK CFI 23044 .cfa: sp 64 +
STACK CFI 23054 .cfa: sp 0 +
STACK CFI 23058 .cfa: x29 64 +
STACK CFI 2309c .cfa: sp 64 +
STACK CFI 230ac .cfa: sp 0 +
STACK CFI 230b0 .cfa: x29 64 +
STACK CFI 23180 .cfa: sp 64 +
STACK CFI 23190 .cfa: sp 0 +
STACK CFI 23194 .cfa: sp 64 +
STACK CFI 231a4 .cfa: sp 0 +
STACK CFI 231a8 .cfa: x29 64 +
STACK CFI INIT 231b0 270 .cfa: sp 0 +
STACK CFI 231b4 .cfa: sp 32 +
STACK CFI 231bc .cfa: x29 32 + x19: .cfa -16 + ^ .ra: .cfa -24 + ^ x29: .cfa -32 + ^
STACK CFI 231f4 .cfa: sp 32 +
STACK CFI 231fc .cfa: sp 0 +
STACK CFI 23200 .cfa: x29 32 +
STACK CFI 23348 .cfa: sp 32 +
STACK CFI 23350 .cfa: sp 0 +
STACK CFI 23354 .cfa: x29 32 +
STACK CFI 23390 .cfa: sp 32 +
STACK CFI 23398 .cfa: sp 0 +
STACK CFI 2339c .cfa: x29 32 +
STACK CFI 23410 .cfa: sp 32 +
STACK CFI 23418 .cfa: sp 0 +
STACK CFI 2341c .cfa: x29 32 +
STACK CFI INIT 23420 2c .cfa: sp 0 +
STACK CFI INIT 2344c 48 .cfa: sp 0 +
STACK CFI 23468 .cfa: sp 32 +
STACK CFI 23470 .cfa: x29 32 + x19: .cfa -16 + ^ .ra: .cfa -24 + ^ x29: .cfa -32 + ^
STACK CFI 23488 .cfa: sp 32 +
STACK CFI 23490 .cfa: sp 0 +
STACK CFI INIT 23494 40 .cfa: sp 0 +
STACK CFI INIT 234d4 60 .cfa: sp 0 +
STACK CFI 234d8 .cfa: sp 16 +
STACK CFI 234dc .cfa: x29 16 + .ra: .cfa -8 + ^ x29: .cfa -16 + ^
STACK CFI 2351c .cfa: sp 16 +
STACK CFI 23520 .cfa: sp 0 +
STACK CFI 23524 .cfa: x29 16 +
STACK CFI 23528 .cfa: sp 16 +
STACK CFI 2352c .cfa: sp 0 +
STACK CFI 23530 .cfa: x29 16 +
STACK CFI INIT 23534 34c .cfa: sp 0 +
STACK CFI 23538 .cfa: sp 80 +
STACK CFI 2354c .cfa: x29 80 + x19: .cfa -8 + ^ x20: .cfa -16 + ^ x21: .cfa -24 + ^ x22: .cfa -32 + ^ x23: .cfa -40 + ^ x24: .cfa -48 + ^ x25: .cfa -64 + ^ .ra: .cfa -72 + ^ x29: .cfa -80 + ^
STACK CFI 23848 .cfa: sp 80 +
STACK CFI 2385c .cfa: sp 0 +
STACK CFI 23860 .cfa: x29 80 +
STACK CFI 23864 .cfa: sp 80 +
STACK CFI 23878 .cfa: sp 0 +
STACK CFI 2387c .cfa: x29 80 +
STACK CFI INIT 23880 f8 .cfa: sp 0 +
STACK CFI 23884 .cfa: sp 64 +
STACK CFI 23894 .cfa: x29 64 + x19: .cfa -8 + ^ x20: .cfa -16 + ^ x21: .cfa -24 + ^ x22: .cfa -32 + ^ x23: .cfa -48 + ^ .ra: .cfa -56 + ^ x29: .cfa -64 + ^
STACK CFI 238f0 .cfa: sp 64 +
STACK CFI 23900 .cfa: sp 0 +
STACK CFI 23904 .cfa: x29 64 +
STACK CFI 23920 .cfa: sp 64 +
STACK CFI 23930 .cfa: sp 0 +
STACK CFI 23934 .cfa: x29 64 +
STACK CFI 23964 .cfa: sp 64 +
STACK CFI 23974 .cfa: sp 0 +
STACK CFI INIT 23e44 34 .cfa: sp 0 +
STACK CFI 23e48 .cfa: sp 16 +
STACK CFI 23e4c .cfa: x29 16 + .ra: .cfa -8 + ^ x29: .cfa -16 + ^
STACK CFI INIT 23fa4 80 .cfa: sp 0 +
STACK CFI 23fa8 .cfa: sp 48 +
STACK CFI 23fb4 .cfa: x29 48 + x19: .cfa -8 + ^ x20: .cfa -16 + ^ x21: .cfa -32 + ^ .ra: .cfa -40 + ^ x29: .cfa -48 + ^
STACK CFI 24014 .cfa: sp 48 +
STACK CFI 24020 .cfa: sp 0 +
STACK CFI INIT 24024 24 .cfa: sp 0 +
STACK CFI 24028 .cfa: sp 32 +
STACK CFI 24030 .cfa: x29 32 + x19: .cfa -16 + ^ .ra: .cfa -24 + ^ x29: .cfa -32 + ^
STACK CFI 2403c .cfa: sp 32 +
STACK CFI 24044 .cfa: sp 0 +
STACK CFI INIT 24540 148 .cfa: sp 0 +
STACK CFI 24544 .cfa: sp 48 +
STACK CFI 24550 .cfa: x29 48 + x19: .cfa -8 + ^ x20: .cfa -16 + ^ x21: .cfa -32 + ^ .ra: .cfa -40 + ^ x29: .cfa -48 + ^
STACK CFI 24678 .cfa: sp 48 +
STACK CFI 24684 .cfa: sp 0 +
STACK CFI INIT 24688 4 .cfa: sp 0 +
STACK CFI INIT 2468c 14 .cfa: sp 0 +
STACK CFI INIT 246a0 4 .cfa: sp 0 +
STACK CFI INIT 246a4 14 .cfa: sp 0 +
STACK CFI INIT 246b8 4 .cfa: sp 0 +
STACK CFI INIT 246bc 14 .cfa: sp 0 +
STACK CFI INIT 246d0 78 .cfa: sp 0 +
STACK CFI 246d4 .cfa: sp 48 +
STACK CFI 246e0 .cfa: x29 48 + x19: .cfa -8 + ^ x20: .cfa -16 + ^ x21: .cfa -24 + ^ x22: .cfa -32 + ^ .ra: .cfa -40 + ^ x29: .cfa -48 + ^
STACK CFI 24728 .cfa: sp 48 +
STACK CFI 24734 .cfa: sp 0 +
STACK CFI 24738 .cfa: sp 48 +
STACK CFI 24744 .cfa: sp 0 +
STACK CFI INIT 24748 258 .cfa: sp 0 +
STACK CFI 2474c .cfa: sp 96 +
STACK CFI 24764 .cfa: x29 96 + x19: .cfa -8 + ^ x20: .cfa -16 + ^ x21: .cfa -24 + ^ x22: .cfa -32 + ^ x23: .cfa -40 + ^ x24: .cfa -48 + ^ x25: .cfa -56 + ^ x26: .cfa -64 + ^ x27: .cfa -72 + ^ x28: .cfa -80 + ^ .ra: .cfa -88 + ^ x29: .cfa -96 + ^
STACK CFI 2495c .cfa: sp 96 +
STACK CFI 24974 .cfa: sp 0 +
STACK CFI 24978 .cfa: x29 96 +
STACK CFI 24984 .cfa: sp 96 +
STACK CFI 2499c .cfa: sp 0 +
STACK CFI INIT 249a0 1d0 .cfa: sp 0 +
STACK CFI 249a4 .cfa: sp 80 +
STACK CFI 249b8 .cfa: x29 80 + x19: .cfa -8 + ^ x20: .cfa -16 + ^ x21: .cfa -24 + ^ x22: .cfa -32 + ^ x23: .cfa -40 + ^ x24: .cfa -48 + ^ x25: .cfa -64 + ^ .ra: .cfa -72 + ^ x29: .cfa -80 + ^
STACK CFI 24b58 .cfa: sp 80 +
STACK CFI 24b6c .cfa: sp 0 +
STACK CFI INIT 25268 154 .cfa: sp 0 +
STACK CFI 2526c .cfa: sp 96 +
STACK CFI 25280 .cfa: x29 64 + x19: .cfa -8 + ^ x20: .cfa -16 + ^ x21: .cfa -24 + ^ x22: .cfa -32 + ^ x23: .cfa -48 + ^ .ra: .cfa -56 + ^ x29: .cfa -64 + ^
STACK CFI 25360 .cfa: sp 96 +
STACK CFI 25374 .cfa: sp 0 +
STACK CFI 25378 .cfa: x29 64 +
STACK CFI INIT 25574 44 .cfa: sp 0 +
STACK CFI 25578 .cfa: sp 32 +
STACK CFI 25580 .cfa: x29 32 + x19: .cfa -16 + ^ .ra: .cfa -24 + ^ x29: .cfa -32 + ^
STACK CFI 2559c .cfa: sp 32 +
STACK CFI 255a4 .cfa: sp 0 +
STACK CFI 255a8 .cfa: x29 32 +
STACK CFI 255ac .cfa: sp 32 +
STACK CFI 255b4 .cfa: sp 0 +
STACK CFI INIT 255b8 1d0 .cfa: sp 0 +
STACK CFI 255bc .cfa: sp 64 +
STACK CFI 255cc .cfa: x29 64 + x19: .cfa -8 + ^ x20: .cfa -16 + ^ x21: .cfa -24 + ^ x22: .cfa -32 + ^ x23: .cfa -40 + ^ x24: .cfa -48 + ^ .ra: .cfa -56 + ^ x29: .cfa -64 + ^
STACK CFI 2568c .cfa: sp 64 +
STACK CFI 2569c .cfa: sp 0 +
STACK CFI 256a0 .cfa: x29 64 +
STACK CFI INIT 25788 17c .cfa: sp 0 +
STACK CFI INIT 25904 150 .cfa: sp 0 +
STACK CFI 25908 .cfa: sp 48 +
STACK CFI 25914 .cfa: x29 48 + x19: .cfa -8 + ^ x20: .cfa -16 + ^ x21: .cfa -24 + ^ x22: .cfa -32 + ^ .ra: .cfa -40 + ^ x29: .cfa -48 + ^
STACK CFI 25a44 .cfa: sp 48 +
STACK CFI 25a50 .cfa: sp 0 +
STACK CFI INIT 25a54 134 .cfa: sp 0 +
STACK CFI 25a58 .cfa: sp 48 +
STACK CFI 25a64 .cfa: x29 48 + x19: .cfa -8 + ^ x20: .cfa -16 + ^ x21: .cfa -24 + ^ x22: .cfa -32 + ^ .ra: .cfa -40 + ^ x29: .cfa -48 + ^
STACK CFI 25b78 .cfa: sp 48 +
STACK CFI 25b84 .cfa: sp 0 +
STACK CFI INIT 26200 a0 .cfa: sp 0 +
STACK CFI 26204 .cfa: sp 48 +
STACK CFI 26210 .cfa: x29 48 + x19: .cfa -8 + ^ x20: .cfa -16 + ^ x21: .cfa -24 + ^ x22: .cfa -32 + ^ .ra: .cfa -40 + ^ x29: .cfa -48 + ^
STACK CFI 2627c .cfa: sp 48 +
STACK CFI 26288 .cfa: sp 0 +
STACK CFI 2628c .cfa: sp 48 +
STACK CFI 26298 .cfa: sp 0 +
STACK CFI 2629c .cfa: x29 48 +
STACK CFI INIT 262a0 190 .cfa: sp 0 +
STACK CFI 262a4 .cfa: sp 80 +
STACK CFI 262b8 .cfa: x29 80 + x19: .cfa -8 + ^ x20: .cfa -16 + ^ x21: .cfa -24 + ^ x22: .cfa -32 + ^ x23: .cfa -40 + ^ x24: .cfa -48 + ^ x25: .cfa -64 + ^ .ra: .cfa -72 + ^ x29: .cfa -80 + ^
STACK CFI 263f4 .cfa: sp 80 +
STACK CFI 26408 .cfa: sp 0 +
STACK CFI 2640c .cfa: x29 80 +
STACK CFI 26418 .cfa: sp 80 +
STACK CFI 2642c .cfa: sp 0 +
STACK CFI INIT 26578 21c .cfa: sp 0 +
STACK CFI 2657c .cfa: sp 96 +
STACK CFI 26590 .cfa: x29 64 + x19: .cfa -8 + ^ x20: .cfa -16 + ^ x21: .cfa -24 + ^ x22: .cfa -32 + ^ x23: .cfa -40 + ^ x24: .cfa -48 + ^ .ra: .cfa -56 + ^ x29: .cfa -64 + ^
STACK CFI 26778 .cfa: sp 96 +
STACK CFI 2678c .cfa: sp 0 +
STACK CFI 26790 .cfa: x29 64 +
STACK CFI INIT 26794 26c .cfa: sp 0 +
STACK CFI 26798 .cfa: sp 80 +
STACK CFI 267ac .cfa: x29 80 + x19: .cfa -8 + ^ x20: .cfa -16 + ^ x21: .cfa -24 + ^ x22: .cfa -32 + ^ x23: .cfa -40 + ^ x24: .cfa -48 + ^ x25: .cfa -64 + ^ .ra: .cfa -72 + ^ x29: .cfa -80 + ^
STACK CFI 268e0 .cfa: sp 80 +
STACK CFI 268f4 .cfa: sp 0 +
STACK CFI 268f8 .cfa: x29 80 +
STACK CFI 269e8 .cfa: sp 80 +
STACK CFI 269fc .cfa: sp 0 +
STACK CFI INIT 26a00 318 .cfa: sp 0 +
STACK CFI 26a04 .cfa: sp 128 +
STACK CFI 26a20 .cfa: x29 96 + x19: .cfa -8 + ^ x20: .cfa -16 + ^ x21: .cfa -24 + ^ x22: .cfa -32 + ^ x23: .cfa -40 + ^ x24: .cfa -48 + ^ x25: .cfa -56 + ^ x26: .cfa -64 + ^ x27: .cfa -72 + ^ x28: .cfa -80 + ^ .ra: .cfa -88 + ^ x29: .cfa -96 + ^
STACK CFI 26cf0 .cfa: sp 128 +
STACK CFI 26d0c .cfa: sp 0 +
STACK CFI 26d10 .cfa: x29 96 +
STACK CFI INIT 285c0 1c8 .cfa: sp 0 +
STACK CFI 285c4 .cfa: sp 80 +
STACK CFI 285d8 .cfa: x29 80 + x19: .cfa -8 + ^ x20: .cfa -16 + ^ x21: .cfa -24 + ^ x22: .cfa -32 + ^ x23: .cfa -40 + ^ x24: .cfa -48 + ^ x25: .cfa -64 + ^ .ra: .cfa -72 + ^ x29: .cfa -80 + ^
STACK CFI 28758 .cfa: sp 80 +
STACK CFI 2876c .cfa: sp 0 +
STACK CFI 28770 .cfa: sp 80 +
STACK CFI 28784 .cfa: sp 0 +
STACK CFI INIT 28d78 188 .cfa: sp 0 +
STACK CFI 28d7c .cfa: sp 80 +
STACK CFI 28d90 .cfa: x29 80 + x19: .cfa -8 + ^ x20: .cfa -16 + ^ x21: .cfa -24 + ^ x22: .cfa -32 + ^ x23: .cfa -40 + ^ x24: .cfa -48 + ^ x25: .cfa -64 + ^ .ra: .cfa -72 + ^ x29: .cfa -80 + ^
STACK CFI 28ee4 .cfa: sp 80 +
STACK CFI 28ef8 .cfa: sp 0 +
STACK CFI 28efc .cfa: x29 80 +
STACK CFI INIT 28f00 18c .cfa: sp 0 +
STACK CFI 28f04 .cfa: sp 64 +
STACK CFI 28f14 .cfa: x29 64 + x19: .cfa -8 + ^ x20: .cfa -16 + ^ x21: .cfa -24 + ^ x22: .cfa -32 + ^ x23: .cfa -40 + ^ x24: .cfa -48 + ^ .ra: .cfa -56 + ^ x29: .cfa -64 + ^
STACK CFI 29074 .cfa: sp 64 +
STACK CFI 29084 .cfa: sp 0 +
STACK CFI 29088 .cfa: x29 64 +
STACK CFI INIT 2908c 18c .cfa: sp 0 +
STACK CFI 29090 .cfa: sp 64 +
STACK CFI 290a0 .cfa: x29 64 + x19: .cfa -8 + ^ x20: .cfa -16 + ^ x21: .cfa -24 + ^ x22: .cfa -32 + ^ x23: .cfa -40 + ^ x24: .cfa -48 + ^ .ra: .cfa -56 + ^ x29: .cfa -64 + ^
STACK CFI 29200 .cfa: sp 64 +
STACK CFI 29210 .cfa: sp 0 +
STACK CFI 29214 .cfa: x29 64 +
STACK CFI INIT 29218 14 .cfa: sp 0 +
STACK CFI 2921c .cfa: sp 16 +
STACK CFI 29220 .cfa: x29 16 + .ra: .cfa -8 + ^ x29: .cfa -16 + ^
STACK CFI INIT 29520 50 .cfa: sp 0 +
STACK CFI 29524 .cfa: sp 32 +
STACK CFI 2952c .cfa: x29 32 + x19: .cfa -16 + ^ .ra: .cfa -24 + ^ x29: .cfa -32 + ^
STACK CFI 29544 .cfa: sp 32 +
STACK CFI 2954c .cfa: sp 0 +
STACK CFI 29550 .cfa: x29 32 +
STACK CFI 29564 .cfa: sp 32 +
STACK CFI 2956c .cfa: sp 0 +
STACK CFI INIT 295e4 4 .cfa: sp 0 +
STACK CFI INIT 2973c 4 .cfa: sp 0 +
STACK CFI INIT 29740 14 .cfa: sp 0 +
STACK CFI INIT 29754 120 .cfa: sp 0 +
STACK CFI 29758 .cfa: sp 64 +
STACK CFI 29768 .cfa: x29 64 + x19: .cfa -8 + ^ x20: .cfa -16 + ^ x21: .cfa -24 + ^ x22: .cfa -32 + ^ x23: .cfa -40 + ^ x24: .cfa -48 + ^ .ra: .cfa -56 + ^ x29: .cfa -64 + ^
STACK CFI 29860 .cfa: sp 64 +
STACK CFI 29870 .cfa: sp 0 +
STACK CFI INIT 29874 4a4 .cfa: sp 0 +
STACK CFI 29878 .cfa: sp 32 +
STACK CFI 29880 .cfa: x29 32 + x19: .cfa -8 + ^ x20: .cfa -16 + ^ .ra: .cfa -24 + ^ x29: .cfa -32 + ^
STACK CFI 29c60 .cfa: sp 32 +
STACK CFI 29c68 .cfa: sp 0 +
STACK CFI 29c6c .cfa: x29 32 +
STACK CFI INIT 29d18 84 .cfa: sp 0 +
STACK CFI 29d20 .cfa: sp 32 +
STACK CFI 29d28 .cfa: x29 32 + x19: .cfa -8 + ^ x20: .cfa -16 + ^ .ra: .cfa -24 + ^ x29: .cfa -32 + ^
STACK CFI 29d68 .cfa: sp 32 +
STACK CFI 29d70 .cfa: sp 0 +
STACK CFI 29d78 .cfa: x29 32 +
STACK CFI INIT 29f54 9c .cfa: sp 0 +
STACK CFI INIT 29ff0 50 .cfa: sp 0 +
STACK CFI 29ff4 .cfa: sp 32 +
STACK CFI 29ffc .cfa: x29 32 + x19: .cfa -16 + ^ .ra: .cfa -24 + ^ x29: .cfa -32 + ^
STACK CFI 2a014 .cfa: sp 32 +
STACK CFI 2a01c .cfa: sp 0 +
STACK CFI 2a020 .cfa: x29 32 +
STACK CFI 2a034 .cfa: sp 32 +
STACK CFI 2a03c .cfa: sp 0 +
STACK CFI INIT 2a040 64 .cfa: sp 0 +
STACK CFI 2a044 .cfa: sp 32 +
STACK CFI 2a04c .cfa: x29 32 + x19: .cfa -16 + ^ .ra: .cfa -24 + ^ x29: .cfa -32 + ^
STACK CFI 2a078 .cfa: sp 32 +
STACK CFI 2a080 .cfa: sp 0 +
STACK CFI 2a084 .cfa: x29 32 +
STACK CFI 2a098 .cfa: sp 32 +
STACK CFI 2a0a0 .cfa: sp 0 +
STACK CFI INIT 2a0a4 168 .cfa: sp 0 +
STACK CFI 2a0a8 .cfa: sp 80 +
STACK CFI 2a0bc .cfa: x29 80 + x19: .cfa -8 + ^ x20: .cfa -16 + ^ x21: .cfa -24 + ^ x22: .cfa -32 + ^ x23: .cfa -40 + ^ x24: .cfa -48 + ^ x25: .cfa -56 + ^ x26: .cfa -64 + ^ .ra: .cfa -72 + ^ x29: .cfa -80 + ^
STACK CFI 2a1f4 .cfa: sp 80 +
STACK CFI 2a208 .cfa: sp 0 +
STACK CFI INIT 2a20c 7c .cfa: sp 0 +
STACK CFI 2a210 .cfa: sp 32 +
STACK CFI 2a218 .cfa: x29 32 + x19: .cfa -8 + ^ x20: .cfa -16 + ^ .ra: .cfa -24 + ^ x29: .cfa -32 + ^
STACK CFI 2a270 .cfa: sp 32 +
STACK CFI 2a278 .cfa: sp 0 +
STACK CFI 2a27c .cfa: sp 32 +
STACK CFI 2a284 .cfa: sp 0 +
STACK CFI INIT 2a288 1b0 .cfa: sp 0 +
STACK CFI INIT 2a844 4 .cfa: sp 0 +
STACK CFI INIT 2aa1c 4 .cfa: sp 0 +
STACK CFI INIT 2aa20 14 .cfa: sp 0 +
STACK CFI INIT 2b354 4 .cfa: sp 0 +
STACK CFI INIT 2bcdc 4 .cfa: sp 0 +
STACK CFI INIT 2c63c 8c .cfa: sp 0 +
STACK CFI 2c640 .cfa: sp 32 +
STACK CFI 2c648 .cfa: x29 32 + x19: .cfa -16 + ^ .ra: .cfa -24 + ^ x29: .cfa -32 + ^
STACK CFI 2c6bc .cfa: sp 32 +
STACK CFI 2c6c4 .cfa: sp 0 +
STACK CFI INIT 2ca34 4 .cfa: sp 0 +
STACK CFI INIT 2d558 4 .cfa: sp 0 +
STACK CFI INIT 2e494 4 .cfa: sp 0 +
STACK CFI INIT 2efa4 4 .cfa: sp 0 +
STACK CFI INIT 2efa8 4 .cfa: sp 0 +
STACK CFI INIT 2efac 34 .cfa: sp 0 +
STACK CFI 2efb0 .cfa: sp 32 +
STACK CFI 2efb8 .cfa: x29 32 + x19: .cfa -16 + ^ .ra: .cfa -24 + ^ x29: .cfa -32 + ^
STACK CFI 2efd4 .cfa: sp 32 +
STACK CFI 2efdc .cfa: sp 0 +
STACK CFI INIT 2efe0 14 .cfa: sp 0 +
STACK CFI INIT 2eff4 4 .cfa: sp 0 +
STACK CFI INIT 2eff8 4 .cfa: sp 0 +
STACK CFI INIT 2f870 1c .cfa: sp 0 +
STACK CFI INIT 2f88c c .cfa: sp 0 +
STACK CFI INIT 2f898 c0 .cfa: sp 0 +
STACK CFI 2f89c .cfa: sp 96 +
STACK CFI 2f8ac .cfa: x29 48 + x19: .cfa -8 + ^ x20: .cfa -16 + ^ x21: .cfa -24 + ^ x22: .cfa -32 + ^ .ra: .cfa -40 + ^ x29: .cfa -48 + ^
STACK CFI 2f940 .cfa: sp 96 +
STACK CFI 2f950 .cfa: sp 0 +
STACK CFI 2f954 .cfa: x29 48 +
STACK CFI INIT 2f958 3bc .cfa: sp 0 +
STACK CFI 2f95c .cfa: sp 224 +
STACK CFI 2f96c .cfa: x29 48 + x19: .cfa -8 + ^ x20: .cfa -16 + ^ x21: .cfa -32 + ^ .ra: .cfa -40 + ^ x29: .cfa -48 + ^
STACK CFI 2fccc .cfa: sp 224 +
STACK CFI 2fcdc .cfa: sp 0 +
STACK CFI 2fce0 .cfa: x29 48 +
STACK CFI INIT 30fcc 26c .cfa: sp 0 +
STACK CFI 30fd0 .cfa: sp 112 +
STACK CFI 30fec .cfa: x29 96 + x19: .cfa -8 + ^ x20: .cfa -16 + ^ x21: .cfa -24 + ^ x22: .cfa -32 + ^ x23: .cfa -40 + ^ x24: .cfa -48 + ^ x25: .cfa -56 + ^ x26: .cfa -64 + ^ x27: .cfa -72 + ^ x28: .cfa -80 + ^ .ra: .cfa -88 + ^ x29: .cfa -96 + ^
STACK CFI 31218 .cfa: sp 112 +
STACK CFI 31234 .cfa: sp 0 +
STACK CFI INIT 31238 188 .cfa: sp 0 +
STACK CFI 3123c .cfa: sp 64 +
STACK CFI 3124c .cfa: x29 64 + x19: .cfa -8 + ^ x20: .cfa -16 + ^ x21: .cfa -24 + ^ x22: .cfa -32 + ^ x23: .cfa -48 + ^ .ra: .cfa -56 + ^ x29: .cfa -64 + ^
STACK CFI 3138c .cfa: sp 64 +
STACK CFI 3139c .cfa: sp 0 +
STACK CFI 313a0 .cfa: x29 64 +
STACK CFI 313a8 .cfa: sp 64 +
STACK CFI 313b8 .cfa: sp 0 +
STACK CFI 313bc .cfa: x29 64 +
STACK CFI INIT 313c0 170 .cfa: sp 0 +
STACK CFI 313c4 .cfa: sp 96 +
STACK CFI 313dc .cfa: x29 96 + x19: .cfa -8 + ^ x20: .cfa -16 + ^ x21: .cfa -24 + ^ x22: .cfa -32 + ^ x23: .cfa -40 + ^ x24: .cfa -48 + ^ x25: .cfa -56 + ^ x26: .cfa -64 + ^ x27: .cfa -80 + ^ .ra: .cfa -88 + ^ x29: .cfa -96 + ^
STACK CFI 31510 .cfa: sp 96 +
STACK CFI 31528 .cfa: sp 0 +
STACK CFI 3152c .cfa: x29 96 +
STACK CFI INIT 31f0c 400 .cfa: sp 0 +
STACK CFI 31f10 .cfa: sp 32 +
STACK CFI 31f18 .cfa: x29 32 + x19: .cfa -16 + ^ .ra: .cfa -24 + ^ x29: .cfa -32 + ^
STACK CFI 31f80 .cfa: sp 32 +
STACK CFI 31f88 .cfa: sp 0 +
STACK CFI 31f8c .cfa: x29 32 +
STACK CFI 3205c .cfa: sp 32 +
STACK CFI 32064 .cfa: sp 0 +
STACK CFI 32068 .cfa: x29 32 +
STACK CFI 320a4 .cfa: sp 32 +
STACK CFI 320ac .cfa: sp 0 +
STACK CFI 320b0 .cfa: x29 32 +
STACK CFI 320dc .cfa: sp 32 +
STACK CFI 320e4 .cfa: sp 0 +
STACK CFI 320e8 .cfa: x29 32 +
STACK CFI 32104 .cfa: sp 32 +
STACK CFI 3210c .cfa: sp 0 +
STACK CFI 32110 .cfa: x29 32 +
STACK CFI 32174 .cfa: sp 32 +
STACK CFI 3217c .cfa: sp 0 +
STACK CFI 32180 .cfa: x29 32 +
STACK CFI 321e4 .cfa: sp 32 +
STACK CFI 321ec .cfa: sp 0 +
STACK CFI 321f0 .cfa: x29 32 +
STACK CFI 322c0 .cfa: sp 32 +
STACK CFI 322c8 .cfa: sp 0 +
STACK CFI 322cc .cfa: x29 32 +
STACK CFI 322f8 .cfa: sp 32 +
STACK CFI 32300 .cfa: sp 0 +
STACK CFI 32304 .cfa: x29 32 +
STACK CFI INIT 32ec8 518 .cfa: sp 0 +
STACK CFI 32ecc .cfa: sp 32 +
STACK CFI 32ed4 .cfa: x29 32 + x19: .cfa -16 + ^ .ra: .cfa -24 + ^ x29: .cfa -32 + ^
STACK CFI 33028 .cfa: sp 32 +
STACK CFI 33030 .cfa: sp 0 +
STACK CFI 33034 .cfa: x29 32 +
STACK CFI 331a4 .cfa: sp 32 +
STACK CFI 331ac .cfa: sp 0 +
STACK CFI 331b0 .cfa: x29 32 +
STACK CFI 331cc .cfa: sp 32 +
STACK CFI 331d4 .cfa: sp 0 +
STACK CFI 331d8 .cfa: x29 32 +
STACK CFI 33234 .cfa: sp 32 +
STACK CFI 3323c .cfa: sp 0 +
STACK CFI 33240 .cfa: x29 32 +
STACK CFI 3325c .cfa: sp 32 +
STACK CFI 33264 .cfa: sp 0 +
STACK CFI 33268 .cfa: x29 32 +
STACK CFI 33284 .cfa: sp 32 +
STACK CFI 3328c .cfa: sp 0 +
STACK CFI 33290 .cfa: x29 32 +
STACK CFI 332ac .cfa: sp 32 +
STACK CFI 332b4 .cfa: sp 0 +
STACK CFI 332b8 .cfa: x29 32 +
STACK CFI 332d0 .cfa: sp 32 +
STACK CFI 332d8 .cfa: sp 0 +
STACK CFI 332dc .cfa: x29 32 +
STACK CFI 332f8 .cfa: sp 32 +
STACK CFI 33300 .cfa: sp 0 +
STACK CFI 33304 .cfa: x29 32 +
STACK CFI 33320 .cfa: sp 32 +
STACK CFI 33328 .cfa: sp 0 +
STACK CFI 3332c .cfa: x29 32 +
STACK CFI 33348 .cfa: sp 32 +
STACK CFI 33350 .cfa: sp 0 +
STACK CFI 33354 .cfa: x29 32 +
STACK CFI 333a8 .cfa: sp 32 +
STACK CFI 333b0 .cfa: sp 0 +
STACK CFI 333b4 .cfa: x29 32 +
STACK CFI 333d0 .cfa: sp 32 +
STACK CFI 333d8 .cfa: sp 0 +
STACK CFI 333dc .cfa: x29 32 +
STACK CFI INIT 333e0 1d4 .cfa: sp 0 +
STACK CFI 333e4 .cfa: sp 32 +
STACK CFI 333ec .cfa: x29 32 + x19: .cfa -16 + ^ .ra: .cfa -24 + ^ x29: .cfa -32 + ^
STACK CFI 33424 .cfa: sp 32 +
STACK CFI 3342c .cfa: sp 0 +
STACK CFI 33430 .cfa: x29 32 +
STACK CFI 33458 .cfa: sp 32 +
STACK CFI 33460 .cfa: sp 0 +
STACK CFI 33464 .cfa: x29 32 +
STACK CFI 33490 .cfa: sp 32 +
STACK CFI 33498 .cfa: sp 0 +
STACK CFI 3349c .cfa: x29 32 +
STACK CFI 334cc .cfa: sp 32 +
STACK CFI 334d4 .cfa: sp 0 +
STACK CFI 334d8 .cfa: x29 32 +
STACK CFI 334f0 .cfa: sp 32 +
STACK CFI 334f8 .cfa: sp 0 +
STACK CFI 334fc .cfa: x29 32 +
STACK CFI 33518 .cfa: sp 32 +
STACK CFI 33520 .cfa: sp 0 +
STACK CFI 33524 .cfa: x29 32 +
STACK CFI 33534 .cfa: sp 32 +
STACK CFI 3353c .cfa: sp 0 +
STACK CFI 33540 .cfa: x29 32 +
STACK CFI 33550 .cfa: sp 32 +
STACK CFI 33558 .cfa: sp 0 +
STACK CFI 3355c .cfa: x29 32 +
STACK CFI 33560 .cfa: sp 32 +
STACK CFI 33568 .cfa: sp 0 +
STACK CFI 3356c .cfa: x29 32 +
STACK CFI 33580 .cfa: sp 32 +
STACK CFI 33588 .cfa: sp 0 +
STACK CFI 3358c .cfa: x29 32 +
STACK CFI 335a4 .cfa: sp 32 +
STACK CFI 335ac .cfa: sp 0 +
STACK CFI 335b0 .cfa: x29 32 +
STACK CFI INIT 335b4 4c4 .cfa: sp 0 +
STACK CFI 335b8 .cfa: sp 32 +
STACK CFI 335c0 .cfa: x29 32 + x19: .cfa -16 + ^ .ra: .cfa -24 + ^ x29: .cfa -32 + ^
STACK CFI 33614 .cfa: sp 32 +
STACK CFI 3361c .cfa: sp 0 +
STACK CFI 33620 .cfa: x29 32 +
STACK CFI 33660 .cfa: sp 32 +
STACK CFI 33668 .cfa: sp 0 +
STACK CFI 3366c .cfa: x29 32 +
STACK CFI 3369c .cfa: sp 32 +
STACK CFI 336a4 .cfa: sp 0 +
STACK CFI 336a8 .cfa: x29 32 +
STACK CFI 336d8 .cfa: sp 32 +
STACK CFI 336e0 .cfa: sp 0 +
STACK CFI 336e4 .cfa: x29 32 +
STACK CFI 336f4 .cfa: sp 32 +
STACK CFI 336fc .cfa: sp 0 +
STACK CFI 33700 .cfa: x29 32 +
STACK CFI 33720 .cfa: sp 32 +
STACK CFI 33728 .cfa: sp 0 +
STACK CFI 3372c .cfa: x29 32 +
STACK CFI 3374c .cfa: sp 32 +
STACK CFI 33754 .cfa: sp 0 +
STACK CFI 33758 .cfa: x29 32 +
STACK CFI 33778 .cfa: sp 32 +
STACK CFI 33780 .cfa: sp 0 +
STACK CFI 33784 .cfa: x29 32 +
STACK CFI 337a4 .cfa: sp 32 +
STACK CFI 337ac .cfa: sp 0 +
STACK CFI 337b0 .cfa: x29 32 +
STACK CFI 33834 .cfa: sp 32 +
STACK CFI 3383c .cfa: sp 0 +
STACK CFI 33840 .cfa: x29 32 +
STACK CFI 33850 .cfa: sp 32 +
STACK CFI 33858 .cfa: sp 0 +
STACK CFI 3385c .cfa: x29 32 +
STACK CFI 3386c .cfa: sp 32 +
STACK CFI 33874 .cfa: sp 0 +
STACK CFI 33878 .cfa: x29 32 +
STACK CFI 33888 .cfa: sp 32 +
STACK CFI 33890 .cfa: sp 0 +
STACK CFI 33894 .cfa: x29 32 +
STACK CFI 338a4 .cfa: sp 32 +
STACK CFI 338ac .cfa: sp 0 +
STACK CFI 338b0 .cfa: x29 32 +
STACK CFI 338c0 .cfa: sp 32 +
STACK CFI 338c8 .cfa: sp 0 +
STACK CFI 338cc .cfa: x29 32 +
STACK CFI 338dc .cfa: sp 32 +
STACK CFI 338e4 .cfa: sp 0 +
STACK CFI 338e8 .cfa: x29 32 +
STACK CFI 338f8 .cfa: sp 32 +
STACK CFI 33900 .cfa: sp 0 +
STACK CFI 33904 .cfa: x29 32 +
STACK CFI 33928 .cfa: sp 32 +
STACK CFI 33930 .cfa: sp 0 +
STACK CFI 33934 .cfa: x29 32 +
STACK CFI 3394c .cfa: sp 32 +
STACK CFI 33954 .cfa: sp 0 +
STACK CFI 33958 .cfa: x29 32 +
STACK CFI 33970 .cfa: sp 32 +
STACK CFI 33978 .cfa: sp 0 +
STACK CFI 3397c .cfa: x29 32 +
STACK CFI 33994 .cfa: sp 32 +
STACK CFI 3399c .cfa: sp 0 +
STACK CFI 339a0 .cfa: x29 32 +
STACK CFI 339b8 .cfa: sp 32 +
STACK CFI 339c0 .cfa: sp 0 +
STACK CFI 339c4 .cfa: x29 32 +
STACK CFI 339dc .cfa: sp 32 +
STACK CFI 339e4 .cfa: sp 0 +
STACK CFI 339e8 .cfa: x29 32 +
STACK CFI 33a00 .cfa: sp 32 +
STACK CFI 33a08 .cfa: sp 0 +
STACK CFI 33a0c .cfa: x29 32 +
STACK CFI 33a24 .cfa: sp 32 +
STACK CFI 33a2c .cfa: sp 0 +
STACK CFI 33a30 .cfa: x29 32 +
STACK CFI 33a48 .cfa: sp 32 +
STACK CFI 33a50 .cfa: sp 0 +
STACK CFI 33a54 .cfa: x29 32 +
STACK CFI 33a68 .cfa: sp 32 +
STACK CFI 33a70 .cfa: sp 0 +
STACK CFI 33a74 .cfa: x29 32 +
STACK CFI INIT 33d80 334 .cfa: sp 0 +
STACK CFI 33d84 .cfa: sp 64 +
STACK CFI 33d94 .cfa: x29 64 + x19: .cfa -8 + ^ x20: .cfa -16 + ^ x21: .cfa -24 + ^ x22: .cfa -32 + ^ x23: .cfa -40 + ^ x24: .cfa -48 + ^ .ra: .cfa -56 + ^ x29: .cfa -64 + ^
STACK CFI 33e64 .cfa: sp 64 +
STACK CFI 33e74 .cfa: sp 0 +
STACK CFI 33e78 .cfa: x29 64 +
STACK CFI 33ee8 .cfa: sp 64 +
STACK CFI 33ef8 .cfa: sp 0 +
STACK CFI 33efc .cfa: x29 64 +
STACK CFI 33f3c .cfa: sp 64 +
STACK CFI 33f4c .cfa: sp 0 +
STACK CFI 33f50 .cfa: x29 64 +
STACK CFI 33f60 .cfa: sp 64 +
STACK CFI 33f70 .cfa: sp 0 +
STACK CFI 33f74 .cfa: x29 64 +
STACK CFI 33fb4 .cfa: sp 64 +
STACK CFI 33fc4 .cfa: sp 0 +
STACK CFI 33fc8 .cfa: x29 64 +
STACK CFI 34098 .cfa: sp 64 +
STACK CFI 340a8 .cfa: sp 0 +
STACK CFI 340ac .cfa: x29 64 +
STACK CFI INIT 340b4 274 .cfa: sp 0 +
STACK CFI 340b8 .cfa: sp 32 +
STACK CFI 340c0 .cfa: x29 32 + x19: .cfa -16 + ^ .ra: .cfa -24 + ^ x29: .cfa -32 + ^
STACK CFI 340f8 .cfa: sp 32 +
STACK CFI 34100 .cfa: sp 0 +
STACK CFI 34104 .cfa: x29 32 +
STACK CFI 34250 .cfa: sp 32 +
STACK CFI 34258 .cfa: sp 0 +
STACK CFI 3425c .cfa: x29 32 +
STACK CFI 34298 .cfa: sp 32 +
STACK CFI 342a0 .cfa: sp 0 +
STACK CFI 342a4 .cfa: x29 32 +
STACK CFI 34318 .cfa: sp 32 +
STACK CFI 34320 .cfa: sp 0 +
STACK CFI 34324 .cfa: x29 32 +
STACK CFI INIT 34328 2fc .cfa: sp 0 +
STACK CFI 3432c .cfa: sp 80 +
STACK CFI 34340 .cfa: x29 80 + x19: .cfa -8 + ^ x20: .cfa -16 + ^ x21: .cfa -24 + ^ x22: .cfa -32 + ^ x23: .cfa -40 + ^ x24: .cfa -48 + ^ x25: .cfa -64 + ^ .ra: .cfa -72 + ^ x29: .cfa -80 + ^
STACK CFI 345ec .cfa: sp 80 +
STACK CFI 34600 .cfa: sp 0 +
STACK CFI 34604 .cfa: x29 80 +
STACK CFI 34608 .cfa: sp 80 +
STACK CFI 3461c .cfa: sp 0 +
STACK CFI 34620 .cfa: x29 80 +
STACK CFI INIT 34624 d0 .cfa: sp 0 +
STACK CFI 34628 .cfa: sp 32 +
STACK CFI 34630 .cfa: x29 32 + x19: .cfa -16 + ^ .ra: .cfa -24 + ^ x29: .cfa -32 + ^
STACK CFI 3469c .cfa: sp 32 +
STACK CFI 346a4 .cfa: sp 0 +
STACK CFI 346a8 .cfa: x29 32 +
STACK CFI 346c0 .cfa: sp 32 +
STACK CFI 346c8 .cfa: sp 0 +
STACK CFI 346cc .cfa: x29 32 +
STACK CFI 346e8 .cfa: sp 32 +
STACK CFI 346f0 .cfa: sp 0 +
STACK CFI INIT 346f4 4 .cfa: sp 0 +
STACK CFI INIT 346f8 14 .cfa: sp 0 +
STACK CFI INIT 181b8 74 .cfa: sp 0 +
STACK CFI 181bc .cfa: sp 48 +
STACK CFI 181c8 .cfa: x29 48 + x19: .cfa -8 + ^ x20: .cfa -16 + ^ x21: .cfa -32 + ^ .ra: .cfa -40 + ^ x29: .cfa -48 + ^
STACK CFI 1821c .cfa: sp 48 +
STACK CFI 18228 .cfa: sp 0 +
STACK CFI INIT 3470c 3c .cfa: sp 0 +
STACK CFI 34710 .cfa: sp 32 +
STACK CFI 34718 .cfa: x29 32 + x19: .cfa -16 + ^ .ra: .cfa -24 + ^ x29: .cfa -32 + ^
STACK CFI 34724 .cfa: sp 32 +
STACK CFI 3472c .cfa: sp 0 +
STACK CFI 34730 .cfa: x29 32 +
STACK CFI 3473c .cfa: sp 32 +
STACK CFI 34744 .cfa: sp 0 +
STACK CFI INIT 34748 c .cfa: sp 0 +
STACK CFI INIT 34754 24c .cfa: sp 0 +
STACK CFI INIT 349a0 a0 .cfa: sp 0 +
STACK CFI 349ac .cfa: sp 32 +
STACK CFI 34a04 .cfa: sp 0 +
STACK CFI 34a08 .cfa: sp 32 +
STACK CFI 34a10 .cfa: sp 0 +
STACK CFI 34a14 .cfa: sp 32 +
STACK CFI 34a28 .cfa: sp 0 +
STACK CFI 34a2c .cfa: sp 32 +
STACK CFI 34a3c .cfa: sp 0 +
STACK CFI INIT 34a40 38 .cfa: sp 0 +
STACK CFI 34a4c .cfa: sp 32 +
STACK CFI 34a74 .cfa: sp 0 +
STACK CFI INIT 34d0c 7c .cfa: sp 0 +
STACK CFI 34d10 .cfa: sp 32 +
STACK CFI 34d18 .cfa: x29 32 + x19: .cfa -16 + ^ .ra: .cfa -24 + ^ x29: .cfa -32 + ^
STACK CFI 34d44 .cfa: sp 32 +
STACK CFI 34d4c .cfa: sp 0 +
STACK CFI 34d50 .cfa: x29 32 +
STACK CFI 34d7c .cfa: sp 32 +
STACK CFI 34d84 .cfa: sp 0 +
STACK CFI INIT 34dd8 2c .cfa: sp 0 +
STACK CFI 34ddc .cfa: sp 32 +
STACK CFI 34de4 .cfa: x29 32 + x19: .cfa -16 + ^ .ra: .cfa -24 + ^ x29: .cfa -32 + ^
STACK CFI 34df8 .cfa: sp 32 +
STACK CFI 34e00 .cfa: sp 0 +
STACK CFI INIT 355c4 64 .cfa: sp 0 +
STACK CFI 355c8 .cfa: sp 32 +
STACK CFI 355d0 .cfa: x29 32 + x19: .cfa -16 + ^ .ra: .cfa -24 + ^ x29: .cfa -32 + ^
STACK CFI 355ec .cfa: sp 32 +
STACK CFI 355f4 .cfa: sp 0 +
STACK CFI 355f8 .cfa: x29 32 +
STACK CFI 3561c .cfa: sp 32 +
STACK CFI 35624 .cfa: sp 0 +
STACK CFI INIT 35764 570 .cfa: sp 0 +
STACK CFI 35768 .cfa: sp 176 +
STACK CFI 3577c .cfa: x29 64 + x19: .cfa -8 + ^ x20: .cfa -16 + ^ x21: .cfa -24 + ^ x22: .cfa -32 + ^ x23: .cfa -40 + ^ x24: .cfa -48 + ^ .ra: .cfa -56 + ^ x29: .cfa -64 + ^
STACK CFI 359ac .cfa: sp 176 +
STACK CFI 359c0 .cfa: sp 0 +
STACK CFI 359c4 .cfa: x29 64 +
STACK CFI 35a10 .cfa: sp 176 +
STACK CFI 35a24 .cfa: sp 0 +
STACK CFI 35a28 .cfa: x29 64 +
STACK CFI 35a60 .cfa: sp 176 +
STACK CFI 35a74 .cfa: sp 0 +
STACK CFI 35a78 .cfa: x29 64 +
STACK CFI 35a90 .cfa: sp 176 +
STACK CFI 35aa4 .cfa: sp 0 +
STACK CFI 35aa8 .cfa: x29 64 +
STACK CFI 35ac8 .cfa: sp 176 +
STACK CFI 35adc .cfa: sp 0 +
STACK CFI 35ae0 .cfa: x29 64 +
STACK CFI 35af8 .cfa: sp 176 +
STACK CFI 35b0c .cfa: sp 0 +
STACK CFI 35b10 .cfa: x29 64 +
STACK CFI 35b24 .cfa: sp 176 +
STACK CFI 35b38 .cfa: sp 0 +
STACK CFI 35b3c .cfa: x29 64 +
STACK CFI 35b50 .cfa: sp 176 +
STACK CFI 35b64 .cfa: sp 0 +
STACK CFI 35b68 .cfa: x29 64 +
STACK CFI 35b78 .cfa: sp 176 +
STACK CFI 35b8c .cfa: sp 0 +
STACK CFI 35b90 .cfa: x29 64 +
STACK CFI 35ba0 .cfa: sp 176 +
STACK CFI 35bb4 .cfa: sp 0 +
STACK CFI 35bb8 .cfa: x29 64 +
STACK CFI 35bd0 .cfa: sp 176 +
STACK CFI 35be4 .cfa: sp 0 +
STACK CFI 35be8 .cfa: x29 64 +
STACK CFI 35bfc .cfa: sp 176 +
STACK CFI 35c10 .cfa: sp 0 +
STACK CFI 35c14 .cfa: x29 64 +
STACK CFI 35c2c .cfa: sp 176 +
STACK CFI 35c40 .cfa: sp 0 +
STACK CFI 35c44 .cfa: x29 64 +
STACK CFI 35c70 .cfa: sp 176 +
STACK CFI 35c84 .cfa: sp 0 +
STACK CFI 35c88 .cfa: x29 64 +
STACK CFI 35c9c .cfa: sp 176 +
STACK CFI 35cb0 .cfa: sp 0 +
STACK CFI 35cb4 .cfa: x29 64 +
STACK CFI INIT 35cd4 228 .cfa: sp 0 +
STACK CFI INIT 35efc 2dc .cfa: sp 0 +
STACK CFI INIT 361d8 53c .cfa: sp 0 +
STACK CFI INIT 3682c 8c .cfa: sp 0 +
STACK CFI 36830 .cfa: sp 32 +
STACK CFI 36838 .cfa: x29 32 + x19: .cfa -16 + ^ .ra: .cfa -24 + ^ x29: .cfa -32 + ^
STACK CFI 3686c .cfa: sp 32 +
STACK CFI 36874 .cfa: sp 0 +
STACK CFI 36878 .cfa: x29 32 +
STACK CFI 368ac .cfa: sp 32 +
STACK CFI 368b4 .cfa: sp 0 +
STACK CFI INIT 368b8 24 .cfa: sp 0 +
STACK CFI 368bc .cfa: sp 32 +
STACK CFI 368c4 .cfa: x29 32 + x19: .cfa -16 + ^ .ra: .cfa -24 + ^ x29: .cfa -32 + ^
STACK CFI 368d0 .cfa: sp 32 +
STACK CFI 368d8 .cfa: sp 0 +
STACK CFI INIT 368dc 150 .cfa: sp 0 +
STACK CFI 368e0 .cfa: sp 48 +
STACK CFI 368ec .cfa: x29 48 + x19: .cfa -8 + ^ x20: .cfa -16 + ^ x21: .cfa -24 + ^ x22: .cfa -32 + ^ .ra: .cfa -40 + ^ x29: .cfa -48 + ^
STACK CFI 36a1c .cfa: sp 48 +
STACK CFI 36a28 .cfa: sp 0 +
STACK CFI INIT 36a2c 68 .cfa: sp 0 +
STACK CFI 36a30 .cfa: sp 64 +
STACK CFI 36a3c .cfa: x29 32 + x19: .cfa -16 + ^ .ra: .cfa -24 + ^ x29: .cfa -32 + ^
STACK CFI 36a80 .cfa: sp 64 +
STACK CFI 36a8c .cfa: sp 0 +
STACK CFI 36a90 .cfa: x29 32 +
STACK CFI INIT 36a94 90 .cfa: sp 0 +
STACK CFI 36a98 .cfa: sp 32 +
STACK CFI 36aa0 .cfa: x29 32 + x19: .cfa -8 + ^ x20: .cfa -16 + ^ .ra: .cfa -24 + ^ x29: .cfa -32 + ^
STACK CFI 36acc .cfa: sp 32 +
STACK CFI 36ad4 .cfa: sp 0 +
STACK CFI 36ad8 .cfa: x29 32 +
STACK CFI 36b18 .cfa: sp 32 +
STACK CFI 36b20 .cfa: sp 0 +
STACK CFI INIT 36b24 f0 .cfa: sp 0 +
STACK CFI 36b28 .cfa: sp 112 +
STACK CFI 36b38 .cfa: x29 48 + x19: .cfa -8 + ^ x20: .cfa -16 + ^ x21: .cfa -32 + ^ .ra: .cfa -40 + ^ x29: .cfa -48 + ^
STACK CFI 36bfc .cfa: sp 112 +
STACK CFI 36c0c .cfa: sp 0 +
STACK CFI 36c10 .cfa: x29 48 +
STACK CFI INIT 36c14 ec .cfa: sp 0 +
STACK CFI 36c18 .cfa: sp 112 +
STACK CFI 36c28 .cfa: x29 48 + x19: .cfa -8 + ^ x20: .cfa -16 + ^ x21: .cfa -32 + ^ .ra: .cfa -40 + ^ x29: .cfa -48 + ^
STACK CFI 36ce8 .cfa: sp 112 +
STACK CFI 36cf8 .cfa: sp 0 +
STACK CFI 36cfc .cfa: x29 48 +
STACK CFI INIT 36d00 48 .cfa: sp 0 +
STACK CFI 36d04 .cfa: sp 32 +
STACK CFI 36d0c .cfa: x29 32 + x19: .cfa -8 + ^ x20: .cfa -16 + ^ .ra: .cfa -24 + ^ x29: .cfa -32 + ^
STACK CFI 36d30 .cfa: sp 32 +
STACK CFI 36d38 .cfa: sp 0 +
STACK CFI 36d3c .cfa: x29 32 +
STACK CFI INIT 36d48 98 .cfa: sp 0 +
STACK CFI 36d4c .cfa: sp 80 +
STACK CFI 36d58 .cfa: x29 32 + x19: .cfa -16 + ^ .ra: .cfa -24 + ^ x29: .cfa -32 + ^
STACK CFI 36dcc .cfa: sp 80 +
STACK CFI 36dd8 .cfa: sp 0 +
STACK CFI 36ddc .cfa: x29 32 +
STACK CFI INIT 36de0 25c .cfa: sp 0 +
STACK CFI 36de4 .cfa: sp 112 +
STACK CFI 36dfc .cfa: x29 80 + x19: .cfa -8 + ^ x20: .cfa -16 + ^ x21: .cfa -24 + ^ x22: .cfa -32 + ^ x23: .cfa -40 + ^ x24: .cfa -48 + ^ x25: .cfa -64 + ^ .ra: .cfa -72 + ^ x29: .cfa -80 + ^
STACK CFI 36fdc .cfa: sp 112 +
STACK CFI 36ff4 .cfa: sp 0 +
STACK CFI 36ff8 .cfa: x29 80 +
STACK CFI INIT 3703c 1dc .cfa: sp 0 +
STACK CFI 37040 .cfa: sp 96 +
STACK CFI 37054 .cfa: x29 64 + x19: .cfa -8 + ^ x20: .cfa -16 + ^ x21: .cfa -24 + ^ x22: .cfa -32 + ^ x23: .cfa -40 + ^ x24: .cfa -48 + ^ .ra: .cfa -56 + ^ x29: .cfa -64 + ^
STACK CFI 371d0 .cfa: sp 96 +
STACK CFI 371e4 .cfa: sp 0 +
STACK CFI 371e8 .cfa: x29 64 +
STACK CFI INIT 37218 280 .cfa: sp 0 +
STACK CFI 3721c .cfa: sp 112 +
STACK CFI 37234 .cfa: x29 80 + x19: .cfa -8 + ^ x20: .cfa -16 + ^ x21: .cfa -24 + ^ x22: .cfa -32 + ^ x23: .cfa -40 + ^ x24: .cfa -48 + ^ x25: .cfa -64 + ^ .ra: .cfa -72 + ^ x29: .cfa -80 + ^
STACK CFI 37438 .cfa: sp 112 +
STACK CFI 37450 .cfa: sp 0 +
STACK CFI 37454 .cfa: x29 80 +
STACK CFI INIT 37498 204 .cfa: sp 0 +
STACK CFI 3749c .cfa: sp 96 +
STACK CFI 374b0 .cfa: x29 64 + x19: .cfa -8 + ^ x20: .cfa -16 + ^ x21: .cfa -24 + ^ x22: .cfa -32 + ^ x23: .cfa -40 + ^ x24: .cfa -48 + ^ .ra: .cfa -56 + ^ x29: .cfa -64 + ^
STACK CFI 37654 .cfa: sp 96 +
STACK CFI 37668 .cfa: sp 0 +
STACK CFI 3766c .cfa: x29 64 +
STACK CFI INIT 3769c 35c .cfa: sp 0 +
STACK CFI 376a0 .cfa: sp 160 +
STACK CFI 376bc .cfa: x29 96 + x19: .cfa -8 + ^ x20: .cfa -16 + ^ x21: .cfa -24 + ^ x22: .cfa -32 + ^ x23: .cfa -40 + ^ x24: .cfa -48 + ^ x25: .cfa -56 + ^ x26: .cfa -64 + ^ x27: .cfa -72 + ^ x28: .cfa -80 + ^ .ra: .cfa -88 + ^ x29: .cfa -96 + ^
STACK CFI 37984 .cfa: sp 160 +
STACK CFI 379a0 .cfa: sp 0 +
STACK CFI 379a4 .cfa: x29 96 +
STACK CFI INIT 379f8 310 .cfa: sp 0 +
STACK CFI 379fc .cfa: sp 144 +
STACK CFI 37a18 .cfa: x29 96 + x19: .cfa -8 + ^ x20: .cfa -16 + ^ x21: .cfa -24 + ^ x22: .cfa -32 + ^ x23: .cfa -40 + ^ x24: .cfa -48 + ^ x25: .cfa -56 + ^ x26: .cfa -64 + ^ x27: .cfa -72 + ^ x28: .cfa -80 + ^ .ra: .cfa -88 + ^ x29: .cfa -96 + ^
STACK CFI 37c90 .cfa: sp 144 +
STACK CFI 37cac .cfa: sp 0 +
STACK CFI 37cb0 .cfa: x29 96 +
STACK CFI INIT 37d08 2b4 .cfa: sp 0 +
STACK CFI 37d0c .cfa: sp 128 +
STACK CFI 37d24 .cfa: x29 80 + x19: .cfa -8 + ^ x20: .cfa -16 + ^ x21: .cfa -24 + ^ x22: .cfa -32 + ^ x23: .cfa -40 + ^ x24: .cfa -48 + ^ x25: .cfa -56 + ^ x26: .cfa -64 + ^ .ra: .cfa -72 + ^ x29: .cfa -80 + ^
STACK CFI 37f18 .cfa: sp 128 +
STACK CFI 37f30 .cfa: sp 0 +
STACK CFI 37f34 .cfa: x29 80 +
STACK CFI 37f9c .cfa: sp 128 +
STACK CFI 37fb4 .cfa: sp 0 +
STACK CFI 37fb8 .cfa: x29 80 +
STACK CFI INIT 37fbc e08 .cfa: sp 0 +
STACK CFI 37fc0 .cfa: sp 144 +
STACK CFI 37fdc .cfa: x29 96 + x19: .cfa -8 + ^ x20: .cfa -16 + ^ x21: .cfa -24 + ^ x22: .cfa -32 + ^ x23: .cfa -40 + ^ x24: .cfa -48 + ^ x25: .cfa -56 + ^ x26: .cfa -64 + ^ x27: .cfa -72 + ^ x28: .cfa -80 + ^ .ra: .cfa -88 + ^ x29: .cfa -96 + ^
STACK CFI 38da0 .cfa: sp 144 +
STACK CFI 38dbc .cfa: sp 0 +
STACK CFI 38dc0 .cfa: x29 96 +
STACK CFI INIT 38dc4 260 .cfa: sp 0 +
STACK CFI 38dc8 .cfa: sp 112 +
STACK CFI 38ddc .cfa: x29 64 + x19: .cfa -8 + ^ x20: .cfa -16 + ^ x21: .cfa -24 + ^ x22: .cfa -32 + ^ x23: .cfa -40 + ^ x24: .cfa -48 + ^ .ra: .cfa -56 + ^ x29: .cfa -64 + ^
STACK CFI 38f58 .cfa: sp 112 +
STACK CFI 38f6c .cfa: sp 0 +
STACK CFI 38f70 .cfa: x29 64 +
STACK CFI 38fdc .cfa: sp 112 +
STACK CFI 38ff0 .cfa: sp 0 +
STACK CFI 38ff4 .cfa: x29 64 +
STACK CFI INIT 39024 30c .cfa: sp 0 +
STACK CFI 39028 .cfa: sp 80 +
STACK CFI 3903c .cfa: x29 64 + x19: .cfa -8 + ^ x20: .cfa -16 + ^ x21: .cfa -24 + ^ x22: .cfa -32 + ^ x23: .cfa -40 + ^ x24: .cfa -48 + ^ .ra: .cfa -56 + ^ x29: .cfa -64 + ^
STACK CFI 391b8 .cfa: sp 80 +
STACK CFI 391cc .cfa: sp 0 +
STACK CFI 391d0 .cfa: x29 64 +
STACK CFI INIT 39330 178 .cfa: sp 0 +
STACK CFI 39334 .cfa: sp 80 +
STACK CFI 39348 .cfa: x29 64 + x19: .cfa -8 + ^ x20: .cfa -16 + ^ x21: .cfa -24 + ^ x22: .cfa -32 + ^ x23: .cfa -40 + ^ x24: .cfa -48 + ^ .ra: .cfa -56 + ^ x29: .cfa -64 + ^
STACK CFI 3948c .cfa: sp 80 +
STACK CFI 394a0 .cfa: sp 0 +
STACK CFI 394a4 .cfa: x29 64 +
STACK CFI INIT 394a8 178 .cfa: sp 0 +
STACK CFI 394ac .cfa: sp 80 +
STACK CFI 394c0 .cfa: x29 64 + x19: .cfa -8 + ^ x20: .cfa -16 + ^ x21: .cfa -24 + ^ x22: .cfa -32 + ^ x23: .cfa -40 + ^ x24: .cfa -48 + ^ .ra: .cfa -56 + ^ x29: .cfa -64 + ^
STACK CFI 39604 .cfa: sp 80 +
STACK CFI 39618 .cfa: sp 0 +
STACK CFI 3961c .cfa: x29 64 +
STACK CFI INIT 3a2f0 158 .cfa: sp 0 +
STACK CFI 3a2f4 .cfa: sp 96 +
STACK CFI 3a308 .cfa: x29 64 + x19: .cfa -8 + ^ x20: .cfa -16 + ^ x21: .cfa -24 + ^ x22: .cfa -32 + ^ x23: .cfa -48 + ^ .ra: .cfa -56 + ^ x29: .cfa -64 + ^
STACK CFI 3a3ec .cfa: sp 96 +
STACK CFI 3a400 .cfa: sp 0 +
STACK CFI 3a404 .cfa: x29 64 +
STACK CFI INIT 3a448 190 .cfa: sp 0 +
STACK CFI INIT 3b0d0 1f4 .cfa: sp 0 +
STACK CFI 3b0d4 .cfa: sp 80 +
STACK CFI 3b0e8 .cfa: x29 80 + x19: .cfa -8 + ^ x20: .cfa -16 + ^ x21: .cfa -24 + ^ x22: .cfa -32 + ^ x23: .cfa -40 + ^ x24: .cfa -48 + ^ x25: .cfa -64 + ^ .ra: .cfa -72 + ^ x29: .cfa -80 + ^
STACK CFI 3b288 .cfa: sp 80 +
STACK CFI 3b29c .cfa: sp 0 +
STACK CFI 3b2a0 .cfa: x29 80 +
STACK CFI 3b2ac .cfa: sp 80 +
STACK CFI 3b2c0 .cfa: sp 0 +
STACK CFI INIT 3c6f4 124 .cfa: sp 0 +
STACK CFI 3c724 .cfa: sp 32 +
STACK CFI 3c72c .cfa: x29 32 + x19: .cfa -8 + ^ x20: .cfa -16 + ^ .ra: .cfa -24 + ^ x29: .cfa -32 + ^
STACK CFI 3c80c .cfa: sp 32 +
STACK CFI 3c814 .cfa: sp 0 +
STACK CFI INIT 3cf74 320 .cfa: sp 0 +
STACK CFI 3cf78 .cfa: sp 64 +
STACK CFI 3cf88 .cfa: x29 64 + x19: .cfa -8 + ^ x20: .cfa -16 + ^ x21: .cfa -24 + ^ x22: .cfa -32 + ^ x23: .cfa -40 + ^ x24: .cfa -48 + ^ .ra: .cfa -56 + ^ x29: .cfa -64 + ^
STACK CFI 3d004 .cfa: sp 64 +
STACK CFI 3d014 .cfa: sp 0 +
STACK CFI 3d018 .cfa: x29 64 +
STACK CFI 3d1ec .cfa: sp 64 +
STACK CFI 3d1fc .cfa: sp 0 +
STACK CFI 3d200 .cfa: x29 64 +
STACK CFI 3d210 .cfa: sp 64 +
STACK CFI 3d220 .cfa: sp 0 +
STACK CFI 3d224 .cfa: x29 64 +
STACK CFI INIT 3d294 a0 .cfa: sp 0 +
STACK CFI 3d298 .cfa: sp 48 +
STACK CFI 3d2a4 .cfa: x29 48 + x19: .cfa -8 + ^ x20: .cfa -16 + ^ x21: .cfa -24 + ^ x22: .cfa -32 + ^ .ra: .cfa -40 + ^ x29: .cfa -48 + ^
STACK CFI 3d310 .cfa: sp 48 +
STACK CFI 3d31c .cfa: sp 0 +
STACK CFI 3d320 .cfa: sp 48 +
STACK CFI 3d32c .cfa: sp 0 +
STACK CFI 3d330 .cfa: x29 48 +
STACK CFI INIT 3e220 160 .cfa: sp 0 +
STACK CFI 3e224 .cfa: sp 64 +
STACK CFI 3e234 .cfa: x29 64 + x19: .cfa -8 + ^ x20: .cfa -16 + ^ x21: .cfa -24 + ^ x22: .cfa -32 + ^ x23: .cfa -48 + ^ .ra: .cfa -56 + ^ x29: .cfa -64 + ^
STACK CFI 3e32c .cfa: sp 64 +
STACK CFI 3e33c .cfa: sp 0 +
STACK CFI 3e340 .cfa: x29 64 +
STACK CFI INIT 3e380 218 .cfa: sp 0 +
STACK CFI 3e384 .cfa: sp 128 +
STACK CFI 3e3a0 .cfa: x29 96 + x19: .cfa -8 + ^ x20: .cfa -16 + ^ x21: .cfa -24 + ^ x22: .cfa -32 + ^ x23: .cfa -40 + ^ x24: .cfa -48 + ^ x25: .cfa -56 + ^ x26: .cfa -64 + ^ x27: .cfa -80 + ^ .ra: .cfa -88 + ^ x29: .cfa -96 + ^
STACK CFI 3e51c .cfa: sp 128 +
STACK CFI 3e538 .cfa: sp 0 +
STACK CFI 3e53c .cfa: x29 96 +
STACK CFI INIT 40238 290 .cfa: sp 0 +
STACK CFI 4023c .cfa: sp 16 +
STACK CFI 40240 .cfa: x29 16 + .ra: .cfa -8 + ^ x29: .cfa -16 + ^
STACK CFI 402cc .cfa: sp 16 +
STACK CFI 402d0 .cfa: sp 0 +
STACK CFI 402d4 .cfa: x29 16 +
STACK CFI 40324 .cfa: sp 16 +
STACK CFI 40328 .cfa: sp 0 +
STACK CFI 4032c .cfa: x29 16 +
STACK CFI 40490 .cfa: sp 16 +
STACK CFI 40494 .cfa: sp 0 +
STACK CFI 40498 .cfa: x29 16 +
STACK CFI INIT 404c8 158 .cfa: sp 0 +
STACK CFI 404cc .cfa: sp 112 +
STACK CFI 404e8 .cfa: x29 96 + x19: .cfa -8 + ^ x20: .cfa -16 + ^ x21: .cfa -24 + ^ x22: .cfa -32 + ^ x23: .cfa -40 + ^ x24: .cfa -48 + ^ x25: .cfa -56 + ^ x26: .cfa -64 + ^ x27: .cfa -72 + ^ x28: .cfa -80 + ^ .ra: .cfa -88 + ^ x29: .cfa -96 + ^
STACK CFI 405d0 .cfa: sp 112 +
STACK CFI 405d4 .cfa: x29 96 +
STACK CFI 405dc .cfa: sp 112 +
STACK CFI 405f8 .cfa: sp 0 +
STACK CFI 405fc .cfa: x29 96 +
STACK CFI 4061c .cfa: sp 112 +
STACK CFI INIT 40620 e74 .cfa: sp 0 +
STACK CFI 40624 .cfa: sp 192 +
STACK CFI 40640 .cfa: x29 96 + x19: .cfa -8 + ^ x20: .cfa -16 + ^ x21: .cfa -24 + ^ x22: .cfa -32 + ^ x23: .cfa -40 + ^ x24: .cfa -48 + ^ x25: .cfa -56 + ^ x26: .cfa -64 + ^ x27: .cfa -72 + ^ x28: .cfa -80 + ^ .ra: .cfa -88 + ^ x29: .cfa -96 + ^
STACK CFI 4137c .cfa: sp 192 +
STACK CFI 41398 .cfa: sp 0 +
STACK CFI 4139c .cfa: x29 96 +
STACK CFI INIT 41494 1048 .cfa: sp 0 +
STACK CFI 41498 .cfa: sp 288 +
STACK CFI 414b4 .cfa: x29 96 + x19: .cfa -8 + ^ x20: .cfa -16 + ^ x21: .cfa -24 + ^ x22: .cfa -32 + ^ x23: .cfa -40 + ^ x24: .cfa -48 + ^ x25: .cfa -56 + ^ x26: .cfa -64 + ^ x27: .cfa -72 + ^ x28: .cfa -80 + ^ .ra: .cfa -88 + ^ x29: .cfa -96 + ^
STACK CFI 424b8 .cfa: sp 288 +
STACK CFI 424d4 .cfa: sp 0 +
STACK CFI 424d8 .cfa: x29 96 +
STACK CFI INIT 424dc 520 .cfa: sp 0 +
STACK CFI 424e0 .cfa: sp 144 +
STACK CFI 424fc .cfa: x29 96 + x19: .cfa -8 + ^ x20: .cfa -16 + ^ x21: .cfa -24 + ^ x22: .cfa -32 + ^ x23: .cfa -40 + ^ x24: .cfa -48 + ^ x25: .cfa -56 + ^ x26: .cfa -64 + ^ x27: .cfa -72 + ^ x28: .cfa -80 + ^ .ra: .cfa -88 + ^ x29: .cfa -96 + ^
STACK CFI 429d8 .cfa: sp 144 +
STACK CFI 429f4 .cfa: sp 0 +
STACK CFI 429f8 .cfa: x29 96 +
STACK CFI INIT 4339c 136c .cfa: sp 0 +
STACK CFI 433a0 .cfa: sp 224 +
STACK CFI 433bc .cfa: x29 96 + x19: .cfa -8 + ^ x20: .cfa -16 + ^ x21: .cfa -24 + ^ x22: .cfa -32 + ^ x23: .cfa -40 + ^ x24: .cfa -48 + ^ x25: .cfa -56 + ^ x26: .cfa -64 + ^ x27: .cfa -72 + ^ x28: .cfa -80 + ^ .ra: .cfa -88 + ^ x29: .cfa -96 + ^
STACK CFI 446e4 .cfa: sp 224 +
STACK CFI 44700 .cfa: sp 0 +
STACK CFI 44704 .cfa: x29 96 +
STACK CFI INIT 44708 1b8 .cfa: sp 0 +
STACK CFI INIT 16310 c8 .cfa: sp 0 +
STACK CFI 16314 .cfa: sp 48 +
STACK CFI 16320 .cfa: x29 48 + x19: .cfa -8 + ^ x20: .cfa -16 + ^ x21: .cfa -32 + ^ .ra: .cfa -40 + ^ x29: .cfa -48 + ^
STACK CFI 16390 .cfa: sp 48 +
STACK CFI 1639c .cfa: sp 0 +
STACK CFI 163a0 .cfa: x29 48 +
STACK CFI INIT 166d4 6bc .cfa: sp 0 +
STACK CFI 166d8 .cfa: sp 112 +
STACK CFI 166f4 .cfa: x29 96 + x19: .cfa -8 + ^ x20: .cfa -16 + ^ x21: .cfa -24 + ^ x22: .cfa -32 + ^ x23: .cfa -40 + ^ x24: .cfa -48 + ^ x25: .cfa -56 + ^ x26: .cfa -64 + ^ x27: .cfa -72 + ^ x28: .cfa -80 + ^ .ra: .cfa -88 + ^ x29: .cfa -96 + ^ v8: .cfa -112 + ^
STACK CFI 16758 .cfa: sp 112 +
STACK CFI 16774 .cfa: sp 0 +
STACK CFI 16778 .cfa: x29 96 +
STACK CFI INIT 16d90 7f0 .cfa: sp 0 +
STACK CFI 16d94 .cfa: sp 112 +
STACK CFI 16db0 .cfa: x29 96 + x19: .cfa -8 + ^ x20: .cfa -16 + ^ x21: .cfa -24 + ^ x22: .cfa -32 + ^ x23: .cfa -40 + ^ x24: .cfa -48 + ^ x25: .cfa -56 + ^ x26: .cfa -64 + ^ x27: .cfa -72 + ^ x28: .cfa -80 + ^ .ra: .cfa -88 + ^ x29: .cfa -96 + ^ v8: .cfa -112 + ^
STACK CFI 16ff8 .cfa: sp 112 +
STACK CFI 17014 .cfa: sp 0 +
STACK CFI 17018 .cfa: x29 96 +
STACK CFI INIT 176a0 e4 .cfa: sp 0 +
STACK CFI 176a4 .cfa: sp 112 +
STACK CFI 176b4 .cfa: x29 48 + x19: .cfa -8 + ^ x20: .cfa -16 + ^ x21: .cfa -32 + ^ .ra: .cfa -40 + ^ x29: .cfa -48 + ^
STACK CFI 17740 .cfa: sp 112 +
STACK CFI 17750 .cfa: sp 0 +
STACK CFI 17754 .cfa: x29 48 +
STACK CFI INIT 17784 45c .cfa: sp 0 +
STACK CFI 17788 .cfa: sp 224 +
STACK CFI 177a4 .cfa: x29 96 + x19: .cfa -8 + ^ x20: .cfa -16 + ^ x21: .cfa -24 + ^ x22: .cfa -32 + ^ x23: .cfa -40 + ^ x24: .cfa -48 + ^ x25: .cfa -56 + ^ x26: .cfa -64 + ^ x27: .cfa -72 + ^ x28: .cfa -80 + ^ .ra: .cfa -88 + ^ x29: .cfa -96 + ^
STACK CFI 17ac8 .cfa: sp 224 +
STACK CFI 17ae4 .cfa: sp 0 +
STACK CFI 17ae8 .cfa: x29 96 +
STACK CFI INIT 17be0 5d8 .cfa: sp 0 +
STACK CFI 17be4 .cfa: sp 240 +
STACK CFI 17c00 .cfa: x29 96 + x19: .cfa -8 + ^ x20: .cfa -16 + ^ x21: .cfa -24 + ^ x22: .cfa -32 + ^ x23: .cfa -40 + ^ x24: .cfa -48 + ^ x25: .cfa -56 + ^ x26: .cfa -64 + ^ x27: .cfa -72 + ^ x28: .cfa -80 + ^ .ra: .cfa -88 + ^ x29: .cfa -96 + ^
STACK CFI 1806c .cfa: sp 240 +
STACK CFI 18088 .cfa: sp 0 +
STACK CFI 1808c .cfa: x29 96 +
STACK CFI INIT 1825c 5b8 .cfa: sp 0 +
STACK CFI 18260 .cfa: sp 224 +
STACK CFI 1827c .cfa: x29 96 + x19: .cfa -8 + ^ x20: .cfa -16 + ^ x21: .cfa -24 + ^ x22: .cfa -32 + ^ x23: .cfa -40 + ^ x24: .cfa -48 + ^ x25: .cfa -56 + ^ x26: .cfa -64 + ^ x27: .cfa -72 + ^ x28: .cfa -80 + ^ .ra: .cfa -88 + ^ x29: .cfa -96 + ^
STACK CFI 18360 .cfa: sp 224 +
STACK CFI 1837c .cfa: sp 0 +
STACK CFI 18380 .cfa: x29 96 +
STACK CFI 186f4 .cfa: sp 224 +
STACK CFI 18710 .cfa: sp 0 +
STACK CFI 18714 .cfa: x29 96 +
STACK CFI INIT 1882c 5fc .cfa: sp 0 +
STACK CFI 18830 .cfa: sp 240 +
STACK CFI 1884c .cfa: x29 96 + x19: .cfa -8 + ^ x20: .cfa -16 + ^ x21: .cfa -24 + ^ x22: .cfa -32 + ^ x23: .cfa -40 + ^ x24: .cfa -48 + ^ x25: .cfa -56 + ^ x26: .cfa -64 + ^ x27: .cfa -72 + ^ x28: .cfa -80 + ^ .ra: .cfa -88 + ^ x29: .cfa -96 + ^
STACK CFI 18950 .cfa: sp 240 +
STACK CFI 1896c .cfa: sp 0 +
STACK CFI 18970 .cfa: x29 96 +
STACK CFI 18cf4 .cfa: sp 240 +
STACK CFI 18d10 .cfa: sp 0 +
STACK CFI 18d14 .cfa: x29 96 +
STACK CFI INIT 18e40 5fc .cfa: sp 0 +
STACK CFI 18e44 .cfa: sp 224 +
STACK CFI 18e60 .cfa: x29 96 + x19: .cfa -8 + ^ x20: .cfa -16 + ^ x21: .cfa -24 + ^ x22: .cfa -32 + ^ x23: .cfa -40 + ^ x24: .cfa -48 + ^ x25: .cfa -56 + ^ x26: .cfa -64 + ^ x27: .cfa -72 + ^ x28: .cfa -80 + ^ .ra: .cfa -88 + ^ x29: .cfa -96 + ^
STACK CFI 18f60 .cfa: sp 224 +
STACK CFI 18f7c .cfa: sp 0 +
STACK CFI 18f80 .cfa: x29 96 +
STACK CFI 19308 .cfa: sp 224 +
STACK CFI 19324 .cfa: sp 0 +
STACK CFI 19328 .cfa: x29 96 +
STACK CFI INIT 19454 5fc .cfa: sp 0 +
STACK CFI 19458 .cfa: sp 224 +
STACK CFI 19474 .cfa: x29 96 + x19: .cfa -8 + ^ x20: .cfa -16 + ^ x21: .cfa -24 + ^ x22: .cfa -32 + ^ x23: .cfa -40 + ^ x24: .cfa -48 + ^ x25: .cfa -56 + ^ x26: .cfa -64 + ^ x27: .cfa -72 + ^ x28: .cfa -80 + ^ .ra: .cfa -88 + ^ x29: .cfa -96 + ^
STACK CFI 19574 .cfa: sp 224 +
STACK CFI 19590 .cfa: sp 0 +
STACK CFI 19594 .cfa: x29 96 +
STACK CFI 1991c .cfa: sp 224 +
STACK CFI 19938 .cfa: sp 0 +
STACK CFI 1993c .cfa: x29 96 +
STACK CFI INIT 19a68 5fc .cfa: sp 0 +
STACK CFI 19a6c .cfa: sp 224 +
STACK CFI 19a88 .cfa: x29 96 + x19: .cfa -8 + ^ x20: .cfa -16 + ^ x21: .cfa -24 + ^ x22: .cfa -32 + ^ x23: .cfa -40 + ^ x24: .cfa -48 + ^ x25: .cfa -56 + ^ x26: .cfa -64 + ^ x27: .cfa -72 + ^ x28: .cfa -80 + ^ .ra: .cfa -88 + ^ x29: .cfa -96 + ^
STACK CFI 19b88 .cfa: sp 224 +
STACK CFI 19ba4 .cfa: sp 0 +
STACK CFI 19ba8 .cfa: x29 96 +
STACK CFI 19f30 .cfa: sp 224 +
STACK CFI 19f4c .cfa: sp 0 +
STACK CFI 19f50 .cfa: x29 96 +
STACK CFI INIT 1a0f0 50 .cfa: sp 0 +
STACK CFI 1a0f4 .cfa: sp 32 +
STACK CFI 1a0fc .cfa: x29 32 + x19: .cfa -8 + ^ x20: .cfa -16 + ^ .ra: .cfa -24 + ^ x29: .cfa -32 + ^
STACK CFI INIT 1a1a4 6c4 .cfa: sp 0 +
STACK CFI 1a1a8 .cfa: sp 112 +
STACK CFI 1a1c4 .cfa: x29 96 + x19: .cfa -8 + ^ x20: .cfa -16 + ^ x21: .cfa -24 + ^ x22: .cfa -32 + ^ x23: .cfa -40 + ^ x24: .cfa -48 + ^ x25: .cfa -56 + ^ x26: .cfa -64 + ^ x27: .cfa -72 + ^ x28: .cfa -80 + ^ .ra: .cfa -88 + ^ x29: .cfa -96 + ^
STACK CFI 1a308 .cfa: sp 112 +
STACK CFI 1a324 .cfa: sp 0 +
STACK CFI 1a328 .cfa: x29 96 +
STACK CFI 1a334 .cfa: sp 112 +
STACK CFI 1a350 .cfa: sp 0 +
STACK CFI 1a354 .cfa: x29 96 +
STACK CFI 1a7f0 .cfa: sp 112 +
STACK CFI 1a80c .cfa: sp 0 +
STACK CFI 1a810 .cfa: x29 96 +
STACK CFI INIT 1a868 4c .cfa: sp 0 +
STACK CFI 1a86c .cfa: sp 32 +
STACK CFI 1a874 .cfa: x29 32 + x19: .cfa -8 + ^ x20: .cfa -16 + ^ .ra: .cfa -24 + ^ x29: .cfa -32 + ^
STACK CFI INIT 1ae38 4c .cfa: sp 0 +
STACK CFI 1ae3c .cfa: sp 32 +
STACK CFI 1ae44 .cfa: x29 32 + x19: .cfa -8 + ^ x20: .cfa -16 + ^ .ra: .cfa -24 + ^ x29: .cfa -32 + ^
STACK CFI INIT 1af9c 364 .cfa: sp 0 +
STACK CFI 1afa0 .cfa: sp 144 +
STACK CFI 1afb4 .cfa: x29 64 + x19: .cfa -8 + ^ x20: .cfa -16 + ^ x21: .cfa -24 + ^ x22: .cfa -32 + ^ x23: .cfa -48 + ^ .ra: .cfa -56 + ^ x29: .cfa -64 + ^
STACK CFI 1b148 .cfa: sp 144 +
STACK CFI 1b15c .cfa: sp 0 +
STACK CFI 1b160 .cfa: x29 64 +
STACK CFI INIT 1b300 644 .cfa: sp 0 +
STACK CFI 1b304 .cfa: sp 64 +
STACK CFI 1b314 .cfa: x29 64 + x19: .cfa -8 + ^ x20: .cfa -16 + ^ x21: .cfa -24 + ^ x22: .cfa -32 + ^ x23: .cfa -48 + ^ .ra: .cfa -56 + ^ x29: .cfa -64 + ^
STACK CFI 1b380 .cfa: sp 64 +
STACK CFI 1b390 .cfa: sp 0 +
STACK CFI 1b394 .cfa: x29 64 +
STACK CFI 1b3e4 .cfa: sp 64 +
STACK CFI 1b3f4 .cfa: sp 0 +
STACK CFI 1b3f8 .cfa: x29 64 +
STACK CFI 1b474 .cfa: sp 64 +
STACK CFI 1b484 .cfa: sp 0 +
STACK CFI 1b488 .cfa: x29 64 +
STACK CFI 1b578 .cfa: sp 64 +
STACK CFI 1b588 .cfa: sp 0 +
STACK CFI 1b58c .cfa: x29 64 +
STACK CFI 1b61c .cfa: sp 64 +
STACK CFI 1b62c .cfa: sp 0 +
STACK CFI 1b630 .cfa: x29 64 +
STACK CFI 1b648 .cfa: sp 64 +
STACK CFI 1b658 .cfa: sp 0 +
STACK CFI 1b65c .cfa: x29 64 +
STACK CFI 1b7e4 .cfa: sp 64 +
STACK CFI 1b7f4 .cfa: sp 0 +
STACK CFI 1b7f8 .cfa: x29 64 +
STACK CFI 1b80c .cfa: sp 64 +
STACK CFI 1b81c .cfa: sp 0 +
STACK CFI 1b820 .cfa: x29 64 +
STACK CFI 1b8a8 .cfa: sp 64 +
STACK CFI 1b8b8 .cfa: sp 0 +
STACK CFI 1b8bc .cfa: x29 64 +
STACK CFI INIT 1bd38 6c .cfa: sp 0 +
STACK CFI 1bd3c .cfa: sp 32 +
STACK CFI 1bd44 .cfa: x29 32 + x19: .cfa -8 + ^ x20: .cfa -16 + ^ .ra: .cfa -24 + ^ x29: .cfa -32 + ^
STACK CFI 1bd84 .cfa: sp 32 +
STACK CFI 1bd8c .cfa: sp 0 +
STACK CFI 1bd90 .cfa: x29 32 +
STACK CFI INIT 1be58 4c .cfa: sp 0 +
STACK CFI 1be5c .cfa: sp 32 +
STACK CFI 1be64 .cfa: x29 32 + x19: .cfa -8 + ^ x20: .cfa -16 + ^ .ra: .cfa -24 + ^ x29: .cfa -32 + ^
STACK CFI INIT 1c2cc 1d4 .cfa: sp 0 +
STACK CFI 1c2d0 .cfa: sp 176 +
STACK CFI 1c2e0 .cfa: x29 48 + x19: .cfa -8 + ^ x20: .cfa -16 + ^ x21: .cfa -24 + ^ x22: .cfa -32 + ^ .ra: .cfa -40 + ^ x29: .cfa -48 + ^
STACK CFI 1c438 .cfa: sp 176 +
STACK CFI 1c448 .cfa: sp 0 +
STACK CFI 1c44c .cfa: x29 48 +
STACK CFI 1c45c .cfa: sp 176 +
STACK CFI 1c46c .cfa: sp 0 +
STACK CFI 1c470 .cfa: x29 48 +
STACK CFI INIT 1c4a0 44c .cfa: sp 0 +
STACK CFI 1c4a4 .cfa: sp 256 +
STACK CFI 1c4c0 .cfa: x29 96 + x19: .cfa -8 + ^ x20: .cfa -16 + ^ x21: .cfa -24 + ^ x22: .cfa -32 + ^ x23: .cfa -40 + ^ x24: .cfa -48 + ^ x25: .cfa -56 + ^ x26: .cfa -64 + ^ x27: .cfa -72 + ^ x28: .cfa -80 + ^ .ra: .cfa -88 + ^ x29: .cfa -96 + ^
STACK CFI 1c7f0 .cfa: sp 256 +
STACK CFI 1c80c .cfa: sp 0 +
STACK CFI 1c810 .cfa: x29 96 +
STACK CFI INIT 1cb14 4c .cfa: sp 0 +
STACK CFI 1cb18 .cfa: sp 32 +
STACK CFI 1cb20 .cfa: x29 32 + x19: .cfa -8 + ^ x20: .cfa -16 + ^ .ra: .cfa -24 + ^ x29: .cfa -32 + ^
STACK CFI INIT 1cb60 170 .cfa: sp 0 +
STACK CFI 1cb64 .cfa: sp 80 +
STACK CFI 1cb78 .cfa: x29 80 + x19: .cfa -8 + ^ x20: .cfa -16 + ^ x21: .cfa -24 + ^ x22: .cfa -32 + ^ x23: .cfa -40 + ^ x24: .cfa -48 + ^ x25: .cfa -64 + ^ .ra: .cfa -72 + ^ x29: .cfa -80 + ^
STACK CFI 1cc6c .cfa: sp 80 +
STACK CFI 1cc80 .cfa: sp 0 +
STACK CFI 1cc84 .cfa: x29 80 +
STACK CFI INIT 1ccd0 4c .cfa: sp 0 +
STACK CFI 1ccd4 .cfa: sp 32 +
STACK CFI 1ccdc .cfa: x29 32 + x19: .cfa -8 + ^ x20: .cfa -16 + ^ .ra: .cfa -24 + ^ x29: .cfa -32 + ^
STACK CFI INIT 1d28c b00 .cfa: sp 0 +
STACK CFI 1d290 .cfa: sp 304 +
STACK CFI 1d2ac .cfa: x29 96 + x19: .cfa -8 + ^ x20: .cfa -16 + ^ x21: .cfa -24 + ^ x22: .cfa -32 + ^ x23: .cfa -40 + ^ x24: .cfa -48 + ^ x25: .cfa -56 + ^ x26: .cfa -64 + ^ x27: .cfa -72 + ^ x28: .cfa -80 + ^ .ra: .cfa -88 + ^ x29: .cfa -96 + ^
STACK CFI 1db70 .cfa: sp 304 +
STACK CFI 1db8c .cfa: sp 0 +
STACK CFI 1db90 .cfa: x29 96 +
STACK CFI INIT 1dd8c 4c .cfa: sp 0 +
STACK CFI 1dd90 .cfa: sp 32 +
STACK CFI 1dd98 .cfa: x29 32 + x19: .cfa -8 + ^ x20: .cfa -16 + ^ .ra: .cfa -24 + ^ x29: .cfa -32 + ^
STACK CFI INIT 1de20 4c .cfa: sp 0 +
STACK CFI 1de24 .cfa: sp 32 +
STACK CFI 1de2c .cfa: x29 32 + x19: .cfa -8 + ^ x20: .cfa -16 + ^ .ra: .cfa -24 + ^ x29: .cfa -32 + ^
STACK CFI INIT 1e378 140 .cfa: sp 0 +
STACK CFI 1e37c .cfa: sp 48 +
STACK CFI 1e388 .cfa: x29 48 + x19: .cfa -8 + ^ x20: .cfa -16 + ^ x21: .cfa -32 + ^ .ra: .cfa -40 + ^ x29: .cfa -48 + ^
STACK CFI 1e468 .cfa: sp 48 +
STACK CFI 1e474 .cfa: sp 0 +
STACK CFI 1e478 .cfa: x29 48 +
STACK CFI INIT 1e4b8 4c .cfa: sp 0 +
STACK CFI 1e4bc .cfa: sp 32 +
STACK CFI 1e4c4 .cfa: x29 32 + x19: .cfa -8 + ^ x20: .cfa -16 + ^ .ra: .cfa -24 + ^ x29: .cfa -32 + ^
STACK CFI INIT 1f144 1dc .cfa: sp 0 +
STACK CFI 1f148 .cfa: sp 128 +
STACK CFI 1f160 .cfa: x29 80 + x19: .cfa -8 + ^ x20: .cfa -16 + ^ x21: .cfa -24 + ^ x22: .cfa -32 + ^ x23: .cfa -40 + ^ x24: .cfa -48 + ^ x25: .cfa -64 + ^ .ra: .cfa -72 + ^ x29: .cfa -80 + ^
STACK CFI 1f254 .cfa: sp 128 +
STACK CFI 1f26c .cfa: sp 0 +
STACK CFI 1f270 .cfa: x29 80 +
STACK CFI INIT 1f5b0 c6c .cfa: sp 0 +
STACK CFI 1f5b4 .cfa: sp 256 +
STACK CFI 1f5d0 .cfa: x29 96 + x19: .cfa -8 + ^ x20: .cfa -16 + ^ x21: .cfa -24 + ^ x22: .cfa -32 + ^ x23: .cfa -40 + ^ x24: .cfa -48 + ^ x25: .cfa -56 + ^ x26: .cfa -64 + ^ x27: .cfa -72 + ^ x28: .cfa -80 + ^ .ra: .cfa -88 + ^ x29: .cfa -96 + ^
STACK CFI 20158 .cfa: sp 256 +
STACK CFI 20174 .cfa: sp 0 +
STACK CFI 20178 .cfa: x29 96 +
STACK CFI INIT 204cc 1c4 .cfa: sp 0 +
STACK CFI 204d0 .cfa: sp 112 +
STACK CFI 204e8 .cfa: x29 80 + x19: .cfa -8 + ^ x20: .cfa -16 + ^ x21: .cfa -24 + ^ x22: .cfa -32 + ^ x23: .cfa -40 + ^ x24: .cfa -48 + ^ x25: .cfa -56 + ^ x26: .cfa -64 + ^ .ra: .cfa -72 + ^ x29: .cfa -80 + ^
STACK CFI 20614 .cfa: sp 112 +
STACK CFI 2062c .cfa: sp 0 +
STACK CFI 20630 .cfa: x29 80 +
STACK CFI INIT 206a4 4c .cfa: sp 0 +
STACK CFI 206a8 .cfa: sp 32 +
STACK CFI 206b0 .cfa: x29 32 + x19: .cfa -8 + ^ x20: .cfa -16 + ^ .ra: .cfa -24 + ^ x29: .cfa -32 + ^
STACK CFI INIT 20d84 490 .cfa: sp 0 +
STACK CFI 20d88 .cfa: sp 176 +
STACK CFI 20d9c .cfa: x29 64 + x19: .cfa -8 + ^ x20: .cfa -16 + ^ x21: .cfa -24 + ^ x22: .cfa -32 + ^ x23: .cfa -40 + ^ x24: .cfa -48 + ^ .ra: .cfa -56 + ^ x29: .cfa -64 + ^
STACK CFI 21158 .cfa: sp 176 +
STACK CFI 2116c .cfa: sp 0 +
STACK CFI 21170 .cfa: x29 64 +
STACK CFI INIT 21634 4c .cfa: sp 0 +
STACK CFI 21638 .cfa: sp 32 +
STACK CFI 21640 .cfa: x29 32 + x19: .cfa -8 + ^ x20: .cfa -16 + ^ .ra: .cfa -24 + ^ x29: .cfa -32 + ^
STACK CFI INIT 21680 2b4 .cfa: sp 0 +
STACK CFI 21684 .cfa: sp 144 +
STACK CFI 2169c .cfa: x29 80 + x19: .cfa -8 + ^ x20: .cfa -16 + ^ x21: .cfa -24 + ^ x22: .cfa -32 + ^ x23: .cfa -40 + ^ x24: .cfa -48 + ^ x25: .cfa -56 + ^ x26: .cfa -64 + ^ .ra: .cfa -72 + ^ x29: .cfa -80 + ^
STACK CFI 218a0 .cfa: sp 144 +
STACK CFI 218b8 .cfa: sp 0 +
STACK CFI 218bc .cfa: x29 80 +
STACK CFI INIT 21934 218 .cfa: sp 0 +
STACK CFI 21938 .cfa: sp 112 +
STACK CFI 21950 .cfa: x29 80 + x19: .cfa -8 + ^ x20: .cfa -16 + ^ x21: .cfa -24 + ^ x22: .cfa -32 + ^ x23: .cfa -40 + ^ x24: .cfa -48 + ^ x25: .cfa -64 + ^ .ra: .cfa -72 + ^ x29: .cfa -80 + ^
STACK CFI 21ad0 .cfa: sp 112 +
STACK CFI 21ae8 .cfa: sp 0 +
STACK CFI 21aec .cfa: x29 80 +
STACK CFI INIT 21b4c 224 .cfa: sp 0 +
STACK CFI 21b50 .cfa: sp 128 +
STACK CFI 21b68 .cfa: x29 80 + x19: .cfa -8 + ^ x20: .cfa -16 + ^ x21: .cfa -24 + ^ x22: .cfa -32 + ^ x23: .cfa -40 + ^ x24: .cfa -48 + ^ x25: .cfa -64 + ^ .ra: .cfa -72 + ^ x29: .cfa -80 + ^
STACK CFI 21d04 .cfa: sp 128 +
STACK CFI 21d1c .cfa: sp 0 +
STACK CFI 21d20 .cfa: x29 80 +
STACK CFI INIT 21e6c 4c .cfa: sp 0 +
STACK CFI 21e70 .cfa: sp 32 +
STACK CFI 21e78 .cfa: x29 32 + x19: .cfa -8 + ^ x20: .cfa -16 + ^ .ra: .cfa -24 + ^ x29: .cfa -32 + ^
STACK CFI INIT 22338 1b4 .cfa: sp 0 +
STACK CFI 2233c .cfa: sp 112 +
STACK CFI 22354 .cfa: x29 80 + x19: .cfa -8 + ^ x20: .cfa -16 + ^ x21: .cfa -24 + ^ x22: .cfa -32 + ^ x23: .cfa -40 + ^ x24: .cfa -48 + ^ x25: .cfa -64 + ^ .ra: .cfa -72 + ^ x29: .cfa -80 + ^
STACK CFI 22488 .cfa: sp 112 +
STACK CFI 224a0 .cfa: sp 0 +
STACK CFI 224a4 .cfa: x29 80 +
STACK CFI INIT 224ec 4c .cfa: sp 0 +
STACK CFI 224f0 .cfa: sp 32 +
STACK CFI 224f8 .cfa: x29 32 + x19: .cfa -8 + ^ x20: .cfa -16 + ^ .ra: .cfa -24 + ^ x29: .cfa -32 + ^
STACK CFI INIT 22800 140 .cfa: sp 0 +
STACK CFI 22804 .cfa: sp 96 +
STACK CFI 2281c .cfa: x29 96 + x19: .cfa -8 + ^ x20: .cfa -16 + ^ x21: .cfa -24 + ^ x22: .cfa -32 + ^ x23: .cfa -40 + ^ x24: .cfa -48 + ^ x25: .cfa -56 + ^ x26: .cfa -64 + ^ x27: .cfa -72 + ^ x28: .cfa -80 + ^ .ra: .cfa -88 + ^ x29: .cfa -96 + ^
STACK CFI 228d8 .cfa: sp 96 +
STACK CFI 228f0 .cfa: sp 0 +
STACK CFI 228f4 .cfa: x29 96 +
STACK CFI INIT 22940 4c .cfa: sp 0 +
STACK CFI 22944 .cfa: sp 32 +
STACK CFI 2294c .cfa: x29 32 + x19: .cfa -8 + ^ x20: .cfa -16 + ^ .ra: .cfa -24 + ^ x29: .cfa -32 + ^
STACK CFI INIT 2298c 4c .cfa: sp 0 +
STACK CFI 22990 .cfa: sp 32 +
STACK CFI 22998 .cfa: x29 32 + x19: .cfa -8 + ^ x20: .cfa -16 + ^ .ra: .cfa -24 + ^ x29: .cfa -32 + ^
STACK CFI INIT 22e68 4c .cfa: sp 0 +
STACK CFI 22e6c .cfa: sp 32 +
STACK CFI 22e74 .cfa: x29 32 + x19: .cfa -8 + ^ x20: .cfa -16 + ^ .ra: .cfa -24 + ^ x29: .cfa -32 + ^
STACK CFI INIT 23978 170 .cfa: sp 0 +
STACK CFI 2397c .cfa: sp 160 +
STACK CFI 2398c .cfa: x29 48 + x19: .cfa -8 + ^ x20: .cfa -16 + ^ x21: .cfa -32 + ^ .ra: .cfa -40 + ^ x29: .cfa -48 + ^
STACK CFI 23a8c .cfa: sp 160 +
STACK CFI 23a9c .cfa: sp 0 +
STACK CFI 23aa0 .cfa: x29 48 +
STACK CFI INIT 23ae8 74 .cfa: sp 0 +
STACK CFI 23aec .cfa: sp 48 +
STACK CFI 23af8 .cfa: x29 32 + x19: .cfa -8 + ^ x20: .cfa -16 + ^ .ra: .cfa -24 + ^ x29: .cfa -32 + ^
STACK CFI 23b44 .cfa: sp 48 +
STACK CFI 23b50 .cfa: sp 0 +
STACK CFI 23b54 .cfa: x29 32 +
STACK CFI INIT 23b5c 74 .cfa: sp 0 +
STACK CFI 23b60 .cfa: sp 48 +
STACK CFI 23b6c .cfa: x29 32 + x19: .cfa -8 + ^ x20: .cfa -16 + ^ .ra: .cfa -24 + ^ x29: .cfa -32 + ^
STACK CFI 23bb8 .cfa: sp 48 +
STACK CFI 23bc4 .cfa: sp 0 +
STACK CFI 23bc8 .cfa: x29 32 +
STACK CFI INIT 23bd0 10c .cfa: sp 0 +
STACK CFI 23bd4 .cfa: sp 112 +
STACK CFI 23be0 .cfa: x29 32 + x19: .cfa -8 + ^ x20: .cfa -16 + ^ .ra: .cfa -24 + ^ x29: .cfa -32 + ^
STACK CFI 23cac .cfa: sp 112 +
STACK CFI 23cb8 .cfa: sp 0 +
STACK CFI 23cbc .cfa: x29 32 +
STACK CFI INIT 23cdc 168 .cfa: sp 0 +
STACK CFI 23ce0 .cfa: sp 384 +
STACK CFI 23cf4 .cfa: x29 64 + x19: .cfa -8 + ^ x20: .cfa -16 + ^ x21: .cfa -24 + ^ x22: .cfa -32 + ^ x23: .cfa -40 + ^ x28: .cfa -48 + ^ .ra: .cfa -56 + ^ x29: .cfa -64 + ^
STACK CFI 23dec .cfa: sp 384 +
STACK CFI 23e00 .cfa: sp 0 +
STACK CFI 23e04 .cfa: x29 64 +
STACK CFI INIT 23e78 12c .cfa: sp 0 +
STACK CFI 23e7c .cfa: sp 80 +
STACK CFI 23e90 .cfa: x29 80 + x19: .cfa -8 + ^ x20: .cfa -16 + ^ x21: .cfa -24 + ^ x22: .cfa -32 + ^ x23: .cfa -40 + ^ x24: .cfa -48 + ^ x25: .cfa -56 + ^ x26: .cfa -64 + ^ .ra: .cfa -72 + ^ x29: .cfa -80 + ^
STACK CFI 23f58 .cfa: sp 80 +
STACK CFI 23f6c .cfa: sp 0 +
STACK CFI 23f70 .cfa: x29 80 +
STACK CFI INIT 24048 1a4 .cfa: sp 0 +
STACK CFI 2404c .cfa: sp 112 +
STACK CFI 24064 .cfa: x29 80 + x19: .cfa -8 + ^ x20: .cfa -16 + ^ x21: .cfa -24 + ^ x22: .cfa -32 + ^ x23: .cfa -40 + ^ x24: .cfa -48 + ^ x25: .cfa -56 + ^ x26: .cfa -64 + ^ .ra: .cfa -72 + ^ x29: .cfa -80 + ^
STACK CFI 24154 .cfa: sp 112 +
STACK CFI 2416c .cfa: sp 0 +
STACK CFI 24170 .cfa: x29 80 +
STACK CFI INIT 241ec 1dc .cfa: sp 0 +
STACK CFI 241f0 .cfa: sp 128 +
STACK CFI 2420c .cfa: x29 96 + x19: .cfa -8 + ^ x20: .cfa -16 + ^ x21: .cfa -24 + ^ x22: .cfa -32 + ^ x23: .cfa -40 + ^ x24: .cfa -48 + ^ x25: .cfa -56 + ^ x26: .cfa -64 + ^ x27: .cfa -80 + ^ .ra: .cfa -88 + ^ x29: .cfa -96 + ^
STACK CFI 24378 .cfa: sp 128 +
STACK CFI 24394 .cfa: sp 0 +
STACK CFI 24398 .cfa: x29 96 +
STACK CFI INIT 243c8 178 .cfa: sp 0 +
STACK CFI 243cc .cfa: sp 80 +
STACK CFI 243e0 .cfa: x29 80 + x19: .cfa -8 + ^ x20: .cfa -16 + ^ x21: .cfa -24 + ^ x22: .cfa -32 + ^ x23: .cfa -40 + ^ x24: .cfa -48 + ^ x25: .cfa -64 + ^ .ra: .cfa -72 + ^ x29: .cfa -80 + ^
STACK CFI 2450c .cfa: sp 80 +
STACK CFI 24520 .cfa: sp 0 +
STACK CFI 24524 .cfa: x29 80 +
STACK CFI INIT 24b70 6f8 .cfa: sp 0 +
STACK CFI 24b74 .cfa: sp 304 +
STACK CFI 24b90 .cfa: x29 96 + x19: .cfa -8 + ^ x20: .cfa -16 + ^ x21: .cfa -24 + ^ x22: .cfa -32 + ^ x23: .cfa -40 + ^ x24: .cfa -48 + ^ x25: .cfa -56 + ^ x26: .cfa -64 + ^ x27: .cfa -72 + ^ x28: .cfa -80 + ^ .ra: .cfa -88 + ^ x29: .cfa -96 + ^
STACK CFI 25100 .cfa: sp 304 +
STACK CFI 2511c .cfa: sp 0 +
STACK CFI 25120 .cfa: x29 96 +
STACK CFI INIT 253bc 1b8 .cfa: sp 0 +
STACK CFI 253c0 .cfa: sp 128 +
STACK CFI 253d0 .cfa: x29 48 + x19: .cfa -8 + ^ x20: .cfa -16 + ^ x21: .cfa -32 + ^ .ra: .cfa -40 + ^ x29: .cfa -48 + ^
STACK CFI 254dc .cfa: sp 128 +
STACK CFI 254ec .cfa: sp 0 +
STACK CFI 254f0 .cfa: x29 48 +
STACK CFI INIT 25b88 2c0 .cfa: sp 0 +
STACK CFI 25b8c .cfa: sp 80 +
STACK CFI 25ba0 .cfa: x29 80 + x19: .cfa -8 + ^ x20: .cfa -16 + ^ x21: .cfa -24 + ^ x22: .cfa -32 + ^ x23: .cfa -40 + ^ x24: .cfa -48 + ^ x28: .cfa -64 + ^ .ra: .cfa -72 + ^ x29: .cfa -80 + ^
STACK CFI 25dfc .cfa: sp 80 +
STACK CFI 25e10 .cfa: sp 0 +
STACK CFI 25e14 .cfa: x29 80 +
STACK CFI INIT 25e48 3b8 .cfa: sp 0 +
STACK CFI 25e4c .cfa: sp 96 +
STACK CFI 25e64 .cfa: x29 96 + x19: .cfa -8 + ^ x20: .cfa -16 + ^ x21: .cfa -24 + ^ x22: .cfa -32 + ^ x23: .cfa -40 + ^ x24: .cfa -48 + ^ x25: .cfa -56 + ^ x26: .cfa -64 + ^ x27: .cfa -72 + ^ x28: .cfa -80 + ^ .ra: .cfa -88 + ^ x29: .cfa -96 + ^
STACK CFI 261a0 .cfa: sp 96 +
STACK CFI 261b8 .cfa: sp 0 +
STACK CFI 261bc .cfa: x29 96 +
STACK CFI INIT 26430 148 .cfa: sp 0 +
STACK CFI 26434 .cfa: sp 64 +
STACK CFI 26444 .cfa: x29 64 + x19: .cfa -8 + ^ x20: .cfa -16 + ^ x21: .cfa -24 + ^ x22: .cfa -32 + ^ x23: .cfa -40 + ^ x28: .cfa -48 + ^ .ra: .cfa -56 + ^ x29: .cfa -64 + ^
STACK CFI 26530 .cfa: sp 64 +
STACK CFI 26540 .cfa: sp 0 +
STACK CFI 26544 .cfa: x29 64 +
STACK CFI INIT 26d18 ea8 .cfa: sp 0 +
STACK CFI 26d1c .cfa: sp 384 +
STACK CFI 26d38 .cfa: x29 96 + x19: .cfa -8 + ^ x20: .cfa -16 + ^ x21: .cfa -24 + ^ x22: .cfa -32 + ^ x23: .cfa -40 + ^ x24: .cfa -48 + ^ x25: .cfa -56 + ^ x26: .cfa -64 + ^ x27: .cfa -72 + ^ x28: .cfa -80 + ^ .ra: .cfa -88 + ^ x29: .cfa -96 + ^
STACK CFI 27a98 .cfa: sp 384 +
STACK CFI 27ab4 .cfa: sp 0 +
STACK CFI 27ab8 .cfa: x29 96 +
STACK CFI INIT 27bc0 a00 .cfa: sp 0 +
STACK CFI 27bc4 .cfa: sp 416 +
STACK CFI 27be0 .cfa: x29 96 + x19: .cfa -8 + ^ x20: .cfa -16 + ^ x21: .cfa -24 + ^ x22: .cfa -32 + ^ x23: .cfa -40 + ^ x24: .cfa -48 + ^ x25: .cfa -56 + ^ x26: .cfa -64 + ^ x27: .cfa -72 + ^ x28: .cfa -80 + ^ .ra: .cfa -88 + ^ x29: .cfa -96 + ^
STACK CFI 27d08 .cfa: sp 416 +
STACK CFI 27d24 .cfa: sp 0 +
STACK CFI 27d28 .cfa: x29 96 +
STACK CFI INIT 28788 5f0 .cfa: sp 0 +
STACK CFI 2878c .cfa: sp 112 +
STACK CFI 287a8 .cfa: x29 96 + x19: .cfa -8 + ^ x20: .cfa -16 + ^ x21: .cfa -24 + ^ x22: .cfa -32 + ^ x23: .cfa -40 + ^ x24: .cfa -48 + ^ x25: .cfa -56 + ^ x26: .cfa -64 + ^ x27: .cfa -80 + ^ .ra: .cfa -88 + ^ x29: .cfa -96 + ^
STACK CFI 28a4c .cfa: sp 112 +
STACK CFI 28a68 .cfa: sp 0 +
STACK CFI 28a6c .cfa: x29 96 +
STACK CFI 28c60 .cfa: sp 112 +
STACK CFI 28c7c .cfa: sp 0 +
STACK CFI 28c80 .cfa: x29 96 +
STACK CFI INIT 2922c 2f4 .cfa: sp 0 +
STACK CFI 29230 .cfa: sp 176 +
STACK CFI 29244 .cfa: x29 64 + x19: .cfa -8 + ^ x20: .cfa -16 + ^ x21: .cfa -24 + ^ x22: .cfa -32 + ^ x23: .cfa -48 + ^ .ra: .cfa -56 + ^ x29: .cfa -64 + ^
STACK CFI 29418 .cfa: sp 176 +
STACK CFI 2942c .cfa: sp 0 +
STACK CFI 29430 .cfa: x29 64 +
STACK CFI INIT 29570 74 .cfa: sp 0 +
STACK CFI 29574 .cfa: sp 48 +
STACK CFI 29580 .cfa: x29 32 + x19: .cfa -8 + ^ x20: .cfa -16 + ^ .ra: .cfa -24 + ^ x29: .cfa -32 + ^
STACK CFI 295cc .cfa: sp 48 +
STACK CFI 295d8 .cfa: sp 0 +
STACK CFI 295dc .cfa: x29 32 +
STACK CFI INIT 295e8 154 .cfa: sp 0 +
STACK CFI 295ec .cfa: sp 384 +
STACK CFI 29600 .cfa: x29 64 + x19: .cfa -8 + ^ x20: .cfa -16 + ^ x21: .cfa -24 + ^ x22: .cfa -32 + ^ x23: .cfa -40 + ^ x28: .cfa -48 + ^ .ra: .cfa -56 + ^ x29: .cfa -64 + ^
STACK CFI 296e4 .cfa: sp 384 +
STACK CFI 296f8 .cfa: sp 0 +
STACK CFI 296fc .cfa: x29 64 +
STACK CFI INIT 29d9c 110 .cfa: sp 0 +
STACK CFI 29da0 .cfa: sp 80 +
STACK CFI 29db0 .cfa: x29 48 + x19: .cfa -8 + ^ x20: .cfa -16 + ^ x21: .cfa -24 + ^ x22: .cfa -32 + ^ .ra: .cfa -40 + ^ x29: .cfa -48 + ^
STACK CFI 29dd8 .cfa: sp 80 +
STACK CFI 29de8 .cfa: sp 0 +
STACK CFI 29dec .cfa: x29 48 +
STACK CFI 29e68 .cfa: sp 80 +
STACK CFI 29e78 .cfa: sp 0 +
STACK CFI 29e7c .cfa: x29 48 +
STACK CFI INIT 29eac a8 .cfa: sp 0 +
STACK CFI 29eb0 .cfa: sp 32 +
STACK CFI 29eb8 .cfa: x29 32 + x19: .cfa -16 + ^ .ra: .cfa -24 + ^ x29: .cfa -32 + ^
STACK CFI 29eec .cfa: sp 32 +
STACK CFI 29ef4 .cfa: sp 0 +
STACK CFI 29ef8 .cfa: x29 32 +
STACK CFI 29efc .cfa: sp 32 +
STACK CFI 29f04 .cfa: sp 0 +
STACK CFI 29f08 .cfa: x29 32 +
STACK CFI INIT 2a438 40c .cfa: sp 0 +
STACK CFI 2a43c .cfa: sp 272 +
STACK CFI 2a450 .cfa: x29 64 + x19: .cfa -8 + ^ x20: .cfa -16 + ^ x21: .cfa -24 + ^ x22: .cfa -32 + ^ x23: .cfa -40 + ^ x28: .cfa -48 + ^ .ra: .cfa -56 + ^ x29: .cfa -64 + ^
STACK CFI 2a708 .cfa: sp 272 +
STACK CFI 2a71c .cfa: sp 0 +
STACK CFI 2a720 .cfa: x29 64 +
STACK CFI INIT 2a848 1d4 .cfa: sp 0 +
STACK CFI 2a84c .cfa: sp 128 +
STACK CFI 2a868 .cfa: x29 96 + x19: .cfa -8 + ^ x20: .cfa -16 + ^ x21: .cfa -24 + ^ x22: .cfa -32 + ^ x23: .cfa -40 + ^ x24: .cfa -48 + ^ x25: .cfa -56 + ^ x26: .cfa -64 + ^ x27: .cfa -72 + ^ x28: .cfa -80 + ^ .ra: .cfa -88 + ^ x29: .cfa -96 + ^
STACK CFI 2a9d4 .cfa: sp 128 +
STACK CFI 2a9f0 .cfa: sp 0 +
STACK CFI 2a9f4 .cfa: x29 96 +
STACK CFI INIT 2aa34 584 .cfa: sp 0 +
STACK CFI 2aa38 .cfa: sp 96 +
STACK CFI 2aa54 .cfa: x29 88 + x19: .cfa -8 + ^ x20: .cfa -16 + ^ x21: .cfa -24 + ^ x22: .cfa -32 + ^ x23: .cfa -40 + ^ x24: .cfa -48 + ^ x25: .cfa -56 + ^ x26: .cfa -64 + ^ x28: .cfa -72 + ^ .ra: .cfa -80 + ^ x29: .cfa -88 + ^ v8: .cfa -96 + ^
STACK CFI 2af04 .cfa: sp 96 +
STACK CFI 2af20 .cfa: sp 0 +
STACK CFI 2af24 .cfa: x29 88 +
STACK CFI INIT 2afb8 39c .cfa: sp 0 +
STACK CFI 2afbc .cfa: sp 224 +
STACK CFI 2afd0 .cfa: x29 64 + x19: .cfa -8 + ^ x20: .cfa -16 + ^ x21: .cfa -24 + ^ x22: .cfa -32 + ^ x23: .cfa -48 + ^ .ra: .cfa -56 + ^ x29: .cfa -64 + ^
STACK CFI 2b224 .cfa: sp 224 +
STACK CFI 2b238 .cfa: sp 0 +
STACK CFI 2b23c .cfa: x29 64 +
STACK CFI INIT 2b358 668 .cfa: sp 0 +
STACK CFI 2b35c .cfa: sp 192 +
STACK CFI 2b374 .cfa: x29 80 + x19: .cfa -8 + ^ x20: .cfa -16 + ^ x21: .cfa -24 + ^ x22: .cfa -32 + ^ x23: .cfa -40 + ^ x24: .cfa -48 + ^ x25: .cfa -64 + ^ .ra: .cfa -72 + ^ x29: .cfa -80 + ^
STACK CFI 2b90c .cfa: sp 192 +
STACK CFI 2b924 .cfa: sp 0 +
STACK CFI 2b928 .cfa: x29 80 +
STACK CFI INIT 2b9c0 31c .cfa: sp 0 +
STACK CFI 2b9c4 .cfa: sp 224 +
STACK CFI 2b9d8 .cfa: x29 64 + x19: .cfa -8 + ^ x20: .cfa -16 + ^ x21: .cfa -24 + ^ x22: .cfa -32 + ^ x23: .cfa -48 + ^ .ra: .cfa -56 + ^ x29: .cfa -64 + ^
STACK CFI 2bbcc .cfa: sp 224 +
STACK CFI 2bbe0 .cfa: sp 0 +
STACK CFI 2bbe4 .cfa: x29 64 +
STACK CFI INIT 2bce0 8b4 .cfa: sp 0 +
STACK CFI 2bce4 .cfa: sp 208 +
STACK CFI 2bd00 .cfa: x29 96 + x19: .cfa -8 + ^ x20: .cfa -16 + ^ x21: .cfa -24 + ^ x22: .cfa -32 + ^ x23: .cfa -40 + ^ x24: .cfa -48 + ^ x25: .cfa -56 + ^ x26: .cfa -64 + ^ x27: .cfa -80 + ^ .ra: .cfa -88 + ^ x29: .cfa -96 + ^
STACK CFI 2c4a8 .cfa: sp 208 +
STACK CFI 2c4c4 .cfa: sp 0 +
STACK CFI 2c4c8 .cfa: x29 96 +
STACK CFI INIT 2c594 a8 .cfa: sp 0 +
STACK CFI 2c598 .cfa: sp 32 +
STACK CFI 2c5a0 .cfa: x29 32 + x19: .cfa -16 + ^ .ra: .cfa -24 + ^ x29: .cfa -32 + ^
STACK CFI 2c5d4 .cfa: sp 32 +
STACK CFI 2c5dc .cfa: sp 0 +
STACK CFI 2c5e0 .cfa: x29 32 +
STACK CFI 2c5e4 .cfa: sp 32 +
STACK CFI 2c5ec .cfa: sp 0 +
STACK CFI 2c5f0 .cfa: x29 32 +
STACK CFI INIT 2c6c8 36c .cfa: sp 0 +
STACK CFI 2c6cc .cfa: sp 240 +
STACK CFI 2c6e0 .cfa: x29 64 + x19: .cfa -8 + ^ x20: .cfa -16 + ^ x21: .cfa -24 + ^ x22: .cfa -32 + ^ x23: .cfa -40 + ^ x24: .cfa -48 + ^ .ra: .cfa -56 + ^ x29: .cfa -64 + ^
STACK CFI 2c908 .cfa: sp 240 +
STACK CFI 2c91c .cfa: sp 0 +
STACK CFI 2c920 .cfa: x29 64 +
STACK CFI INIT 2ca38 7ac .cfa: sp 0 +
STACK CFI 2ca3c .cfa: sp 464 +
STACK CFI 2ca58 .cfa: x29 96 + x19: .cfa -8 + ^ x20: .cfa -16 + ^ x21: .cfa -24 + ^ x22: .cfa -32 + ^ x23: .cfa -40 + ^ x24: .cfa -48 + ^ x25: .cfa -56 + ^ x26: .cfa -64 + ^ x28: .cfa -80 + ^ .ra: .cfa -88 + ^ x29: .cfa -96 + ^
STACK CFI 2cf20 .cfa: sp 464 +
STACK CFI 2cf3c .cfa: sp 0 +
STACK CFI 2cf40 .cfa: x29 96 +
STACK CFI INIT 2d1e4 374 .cfa: sp 0 +
STACK CFI 2d1e8 .cfa: sp 256 +
STACK CFI 2d1fc .cfa: x29 64 + x19: .cfa -8 + ^ x20: .cfa -16 + ^ x21: .cfa -24 + ^ x22: .cfa -32 + ^ x23: .cfa -48 + ^ .ra: .cfa -56 + ^ x29: .cfa -64 + ^
STACK CFI 2d42c .cfa: sp 256 +
STACK CFI 2d440 .cfa: sp 0 +
STACK CFI 2d444 .cfa: x29 64 +
STACK CFI INIT 2d55c 8cc .cfa: sp 0 +
STACK CFI 2d560 .cfa: sp 208 +
STACK CFI 2d57c .cfa: x29 96 + x19: .cfa -8 + ^ x20: .cfa -16 + ^ x21: .cfa -24 + ^ x22: .cfa -32 + ^ x23: .cfa -40 + ^ x24: .cfa -48 + ^ x25: .cfa -56 + ^ x26: .cfa -64 + ^ x27: .cfa -80 + ^ .ra: .cfa -88 + ^ x29: .cfa -96 + ^
STACK CFI 2dd38 .cfa: sp 208 +
STACK CFI 2dd54 .cfa: sp 0 +
STACK CFI 2dd58 .cfa: x29 96 +
STACK CFI INIT 2de28 66c .cfa: sp 0 +
STACK CFI 2de2c .cfa: sp 256 +
STACK CFI 2de44 .cfa: x29 80 + x19: .cfa -8 + ^ x20: .cfa -16 + ^ x21: .cfa -24 + ^ x22: .cfa -32 + ^ x23: .cfa -40 + ^ x24: .cfa -48 + ^ x25: .cfa -56 + ^ x26: .cfa -64 + ^ .ra: .cfa -72 + ^ x29: .cfa -80 + ^
STACK CFI 2e2b8 .cfa: sp 256 +
STACK CFI 2e2d0 .cfa: sp 0 +
STACK CFI 2e2d4 .cfa: x29 80 +
STACK CFI INIT 2e498 178 .cfa: sp 0 +
STACK CFI 2e49c .cfa: sp 112 +
STACK CFI 2e4ac .cfa: x29 48 + x19: .cfa -8 + ^ x20: .cfa -16 + ^ x21: .cfa -32 + ^ .ra: .cfa -40 + ^ x29: .cfa -48 + ^
STACK CFI 2e5ac .cfa: sp 112 +
STACK CFI 2e5bc .cfa: sp 0 +
STACK CFI 2e5c0 .cfa: x29 48 +
STACK CFI INIT 2e610 994 .cfa: sp 0 +
STACK CFI 2e614 .cfa: sp 96 +
STACK CFI 2e62c .cfa: x29 96 + x19: .cfa -8 + ^ x20: .cfa -16 + ^ x21: .cfa -24 + ^ x22: .cfa -32 + ^ x23: .cfa -40 + ^ x24: .cfa -48 + ^ x25: .cfa -56 + ^ x26: .cfa -64 + ^ x28: .cfa -80 + ^ .ra: .cfa -88 + ^ x29: .cfa -96 + ^
STACK CFI 2ed8c .cfa: sp 96 +
STACK CFI 2eda4 .cfa: sp 0 +
STACK CFI 2eda8 .cfa: x29 96 +
STACK CFI INIT 2effc 874 .cfa: sp 0 +
STACK CFI 2f000 .cfa: sp 112 +
STACK CFI 2f01c .cfa: x29 96 + x19: .cfa -8 + ^ x20: .cfa -16 + ^ x21: .cfa -24 + ^ x22: .cfa -32 + ^ x23: .cfa -40 + ^ x24: .cfa -48 + ^ x25: .cfa -56 + ^ x26: .cfa -64 + ^ x27: .cfa -72 + ^ x28: .cfa -80 + ^ .ra: .cfa -88 + ^ x29: .cfa -96 + ^ v8: .cfa -112 + ^
STACK CFI 2f718 .cfa: sp 112 +
STACK CFI 2f734 .cfa: sp 0 +
STACK CFI 2f738 .cfa: x29 96 +
STACK CFI INIT 2fd14 78 .cfa: sp 0 +
STACK CFI 2fd18 .cfa: sp 32 +
STACK CFI 2fd20 .cfa: x29 32 + x19: .cfa -8 + ^ x20: .cfa -16 + ^ .ra: .cfa -24 + ^ x29: .cfa -32 + ^
STACK CFI 2fd28 .cfa: sp 32 +
STACK CFI 2fd30 .cfa: sp 0 +
STACK CFI 2fd34 .cfa: x29 32 +
STACK CFI INIT 2fd8c c38 .cfa: sp 0 +
STACK CFI 2fd90 .cfa: sp 432 +
STACK CFI 2fdac .cfa: x29 96 + x19: .cfa -8 + ^ x20: .cfa -16 + ^ x21: .cfa -24 + ^ x22: .cfa -32 + ^ x23: .cfa -40 + ^ x24: .cfa -48 + ^ x25: .cfa -56 + ^ x26: .cfa -64 + ^ x27: .cfa -72 + ^ x28: .cfa -80 + ^ .ra: .cfa -88 + ^ x29: .cfa -96 + ^
STACK CFI 30888 .cfa: sp 432 +
STACK CFI 308a4 .cfa: sp 0 +
STACK CFI 308a8 .cfa: x29 96 +
STACK CFI 308bc .cfa: sp 432 +
STACK CFI 308d8 .cfa: sp 0 +
STACK CFI 308dc .cfa: x29 96 +
STACK CFI INIT 309c4 c4 .cfa: sp 0 +
STACK CFI 309c8 .cfa: sp 32 +
STACK CFI 309d0 .cfa: x29 32 + x19: .cfa -8 + ^ x20: .cfa -16 + ^ .ra: .cfa -24 + ^ x29: .cfa -32 + ^
STACK CFI 30a44 .cfa: sp 32 +
STACK CFI 30a4c .cfa: sp 0 +
STACK CFI 30a50 .cfa: x29 32 +
STACK CFI INIT 30a88 74 .cfa: sp 0 +
STACK CFI 30a8c .cfa: sp 48 +
STACK CFI 30a98 .cfa: x29 32 + x19: .cfa -8 + ^ x20: .cfa -16 + ^ .ra: .cfa -24 + ^ x29: .cfa -32 + ^
STACK CFI 30ae4 .cfa: sp 48 +
STACK CFI 30af0 .cfa: sp 0 +
STACK CFI 30af4 .cfa: x29 32 +
STACK CFI INIT 30afc 4d0 .cfa: sp 0 +
STACK CFI 30b00 .cfa: sp 96 +
STACK CFI 30b18 .cfa: x29 96 + x19: .cfa -8 + ^ x20: .cfa -16 + ^ x21: .cfa -24 + ^ x22: .cfa -32 + ^ x23: .cfa -40 + ^ x24: .cfa -48 + ^ x25: .cfa -56 + ^ x26: .cfa -64 + ^ x27: .cfa -72 + ^ x28: .cfa -80 + ^ .ra: .cfa -88 + ^ x29: .cfa -96 + ^
STACK CFI 30c70 .cfa: sp 96 +
STACK CFI 30c88 .cfa: sp 0 +
STACK CFI 30c8c .cfa: x29 96 +
STACK CFI 30c98 .cfa: sp 96 +
STACK CFI 30cb0 .cfa: sp 0 +
STACK CFI 30cb4 .cfa: x29 96 +
STACK CFI 30d18 .cfa: sp 96 +
STACK CFI 30d30 .cfa: sp 0 +
STACK CFI 30d34 .cfa: x29 96 +
STACK CFI 30f58 .cfa: sp 96 +
STACK CFI 30f70 .cfa: sp 0 +
STACK CFI 30f74 .cfa: x29 96 +
STACK CFI INIT 31530 364 .cfa: sp 0 +
STACK CFI 31534 .cfa: sp 144 +
STACK CFI 31548 .cfa: x29 64 + x19: .cfa -8 + ^ x20: .cfa -16 + ^ x21: .cfa -24 + ^ x22: .cfa -32 + ^ x23: .cfa -48 + ^ .ra: .cfa -56 + ^ x29: .cfa -64 + ^
STACK CFI 316dc .cfa: sp 144 +
STACK CFI 316f0 .cfa: sp 0 +
STACK CFI 316f4 .cfa: x29 64 +
STACK CFI INIT 31894 678 .cfa: sp 0 +
STACK CFI 31898 .cfa: sp 64 +
STACK CFI 318a8 .cfa: x29 64 + x19: .cfa -8 + ^ x20: .cfa -16 + ^ x21: .cfa -24 + ^ x22: .cfa -32 + ^ x23: .cfa -48 + ^ .ra: .cfa -56 + ^ x29: .cfa -64 + ^
STACK CFI 3191c .cfa: sp 64 +
STACK CFI 3192c .cfa: sp 0 +
STACK CFI 31930 .cfa: x29 64 +
STACK CFI 31938 .cfa: sp 64 +
STACK CFI 31948 .cfa: sp 0 +
STACK CFI 3194c .cfa: x29 64 +
STACK CFI 31978 .cfa: sp 64 +
STACK CFI 31988 .cfa: sp 0 +
STACK CFI 3198c .cfa: x29 64 +
STACK CFI 31a14 .cfa: sp 64 +
STACK CFI 31a24 .cfa: sp 0 +
STACK CFI 31a28 .cfa: x29 64 +
STACK CFI 31a58 .cfa: sp 64 +
STACK CFI 31a68 .cfa: sp 0 +
STACK CFI 31a6c .cfa: x29 64 +
STACK CFI 31bf0 .cfa: sp 64 +
STACK CFI 31c00 .cfa: sp 0 +
STACK CFI 31c04 .cfa: x29 64 +
STACK CFI 31c20 .cfa: sp 64 +
STACK CFI 31c30 .cfa: sp 0 +
STACK CFI 31c34 .cfa: x29 64 +
STACK CFI 31dd0 .cfa: sp 64 +
STACK CFI 31de0 .cfa: sp 0 +
STACK CFI 31de4 .cfa: x29 64 +
STACK CFI 31e70 .cfa: sp 64 +
STACK CFI 31e80 .cfa: sp 0 +
STACK CFI 31e84 .cfa: x29 64 +
STACK CFI INIT 3230c bbc .cfa: sp 0 +
STACK CFI 32310 .cfa: sp 320 +
STACK CFI 3232c .cfa: x29 96 + x19: .cfa -8 + ^ x20: .cfa -16 + ^ x21: .cfa -24 + ^ x22: .cfa -32 + ^ x23: .cfa -40 + ^ x24: .cfa -48 + ^ x25: .cfa -56 + ^ x26: .cfa -64 + ^ x27: .cfa -72 + ^ x28: .cfa -80 + ^ .ra: .cfa -88 + ^ x29: .cfa -96 + ^
STACK CFI 32c78 .cfa: sp 320 +
STACK CFI 32c94 .cfa: sp 0 +
STACK CFI 32c98 .cfa: x29 96 +
STACK CFI INIT 33a78 308 .cfa: sp 0 +
STACK CFI 33a7c .cfa: sp 144 +
STACK CFI 33a94 .cfa: x29 80 + x19: .cfa -8 + ^ x20: .cfa -16 + ^ x21: .cfa -24 + ^ x22: .cfa -32 + ^ x23: .cfa -40 + ^ x24: .cfa -48 + ^ x25: .cfa -64 + ^ .ra: .cfa -72 + ^ x29: .cfa -80 + ^
STACK CFI 33cec .cfa: sp 144 +
STACK CFI 33d04 .cfa: sp 0 +
STACK CFI 33d08 .cfa: x29 80 +
STACK CFI INIT 34a78 294 .cfa: sp 0 +
STACK CFI 34a7c .cfa: sp 240 +
STACK CFI 34a94 .cfa: x29 80 + x19: .cfa -8 + ^ x20: .cfa -16 + ^ x21: .cfa -24 + ^ x22: .cfa -32 + ^ x23: .cfa -40 + ^ x24: .cfa -48 + ^ x25: .cfa -64 + ^ .ra: .cfa -72 + ^ x29: .cfa -80 + ^
STACK CFI 34c34 .cfa: sp 240 +
STACK CFI 34c4c .cfa: sp 0 +
STACK CFI 34c50 .cfa: x29 80 +
STACK CFI INIT 34d88 50 .cfa: sp 0 +
STACK CFI 34d8c .cfa: sp 32 +
STACK CFI 34d94 .cfa: x29 32 + x19: .cfa -8 + ^ x20: .cfa -16 + ^ .ra: .cfa -24 + ^ x29: .cfa -32 + ^
STACK CFI INIT 34e04 7c0 .cfa: sp 0 +
STACK CFI 34e08 .cfa: sp 320 +
STACK CFI 34e24 .cfa: x29 96 + x19: .cfa -8 + ^ x20: .cfa -16 + ^ x21: .cfa -24 + ^ x22: .cfa -32 + ^ x23: .cfa -40 + ^ x24: .cfa -48 + ^ x25: .cfa -56 + ^ x26: .cfa -64 + ^ x27: .cfa -72 + ^ x28: .cfa -80 + ^ .ra: .cfa -88 + ^ x29: .cfa -96 + ^
STACK CFI 35474 .cfa: sp 320 +
STACK CFI 35490 .cfa: sp 0 +
STACK CFI 35494 .cfa: x29 96 +
STACK CFI INIT 35628 13c .cfa: sp 0 +
STACK CFI 3562c .cfa: sp 80 +
STACK CFI 35640 .cfa: x29 80 + x19: .cfa -8 + ^ x20: .cfa -16 + ^ x21: .cfa -24 + ^ x22: .cfa -32 + ^ x23: .cfa -40 + ^ x24: .cfa -48 + ^ x28: .cfa -64 + ^ .ra: .cfa -72 + ^ x29: .cfa -80 + ^
STACK CFI 356d4 .cfa: sp 80 +
STACK CFI 356e8 .cfa: sp 0 +
STACK CFI 356ec .cfa: x29 80 +
STACK CFI INIT 36714 118 .cfa: sp 0 +
STACK CFI 36718 .cfa: sp 80 +
STACK CFI 36728 .cfa: x29 48 + x19: .cfa -8 + ^ x20: .cfa -16 + ^ x21: .cfa -32 + ^ .ra: .cfa -40 + ^ x29: .cfa -48 + ^
STACK CFI 367d8 .cfa: sp 80 +
STACK CFI 367e8 .cfa: sp 0 +
STACK CFI 367ec .cfa: x29 48 +
STACK CFI INIT 39620 cd0 .cfa: sp 0 +
STACK CFI 39624 .cfa: sp 96 +
STACK CFI 3963c .cfa: x29 96 + x19: .cfa -8 + ^ x20: .cfa -16 + ^ x21: .cfa -24 + ^ x22: .cfa -32 + ^ x23: .cfa -40 + ^ x24: .cfa -48 + ^ x25: .cfa -56 + ^ x26: .cfa -64 + ^ x27: .cfa -72 + ^ x28: .cfa -80 + ^ .ra: .cfa -88 + ^ x29: .cfa -96 + ^
STACK CFI 3a11c .cfa: sp 96 +
STACK CFI 3a134 .cfa: sp 0 +
STACK CFI 3a138 .cfa: x29 96 +
STACK CFI INIT 3a5d8 af8 .cfa: sp 0 +
STACK CFI 3a5dc .cfa: sp 96 +
STACK CFI 3a5f4 .cfa: x29 96 + x19: .cfa -8 + ^ x20: .cfa -16 + ^ x21: .cfa -24 + ^ x22: .cfa -32 + ^ x23: .cfa -40 + ^ x24: .cfa -48 + ^ x25: .cfa -56 + ^ x26: .cfa -64 + ^ x27: .cfa -72 + ^ x28: .cfa -80 + ^ .ra: .cfa -88 + ^ x29: .cfa -96 + ^
STACK CFI 3b044 .cfa: sp 96 +
STACK CFI 3b05c .cfa: sp 0 +
STACK CFI 3b060 .cfa: x29 96 +
STACK CFI INIT 3b2c4 1430 .cfa: sp 0 +
STACK CFI 3b2c8 .cfa: sp 96 +
STACK CFI 3b2e0 .cfa: x29 96 + x19: .cfa -8 + ^ x20: .cfa -16 + ^ x21: .cfa -24 + ^ x22: .cfa -32 + ^ x23: .cfa -40 + ^ x24: .cfa -48 + ^ x25: .cfa -56 + ^ x26: .cfa -64 + ^ x27: .cfa -72 + ^ x28: .cfa -80 + ^ .ra: .cfa -88 + ^ x29: .cfa -96 + ^
STACK CFI 3c57c .cfa: sp 96 +
STACK CFI 3c594 .cfa: sp 0 +
STACK CFI 3c598 .cfa: x29 96 +
STACK CFI INIT 3c818 75c .cfa: sp 0 +
STACK CFI 3c81c .cfa: sp 368 +
STACK CFI 3c838 .cfa: x29 96 + x19: .cfa -8 + ^ x20: .cfa -16 + ^ x21: .cfa -24 + ^ x22: .cfa -32 + ^ x23: .cfa -40 + ^ x24: .cfa -48 + ^ x25: .cfa -56 + ^ x26: .cfa -64 + ^ x27: .cfa -72 + ^ x28: .cfa -80 + ^ .ra: .cfa -88 + ^ x29: .cfa -96 + ^
STACK CFI 3c8ec .cfa: sp 368 +
STACK CFI 3c908 .cfa: sp 0 +
STACK CFI 3c90c .cfa: x29 96 +
STACK CFI 3c960 .cfa: sp 368 +
STACK CFI 3c97c .cfa: sp 0 +
STACK CFI 3c980 .cfa: x29 96 +
STACK CFI INIT 3d334 eec .cfa: sp 0 +
STACK CFI 3d338 .cfa: sp 96 +
STACK CFI 3d350 .cfa: x29 96 + x19: .cfa -8 + ^ x20: .cfa -16 + ^ x21: .cfa -24 + ^ x22: .cfa -32 + ^ x23: .cfa -40 + ^ x24: .cfa -48 + ^ x25: .cfa -56 + ^ x26: .cfa -64 + ^ x27: .cfa -72 + ^ x28: .cfa -80 + ^ .ra: .cfa -88 + ^ x29: .cfa -96 + ^
STACK CFI 3e018 .cfa: sp 96 +
STACK CFI 3e030 .cfa: sp 0 +
STACK CFI 3e034 .cfa: x29 96 +
STACK CFI INIT 3e598 1ca0 .cfa: sp 0 +
STACK CFI 3e59c .cfa: sp 112 +
STACK CFI 3e5b8 .cfa: x29 96 + x19: .cfa -8 + ^ x20: .cfa -16 + ^ x21: .cfa -24 + ^ x22: .cfa -32 + ^ x23: .cfa -40 + ^ x24: .cfa -48 + ^ x25: .cfa -56 + ^ x26: .cfa -64 + ^ x27: .cfa -72 + ^ x28: .cfa -80 + ^ .ra: .cfa -88 + ^ x29: .cfa -96 + ^ v8: .cfa -112 + ^
STACK CFI 3e9a0 .cfa: sp 112 +
STACK CFI 3e9bc .cfa: sp 0 +
STACK CFI 3e9c0 .cfa: x29 96 +
STACK CFI INIT 429fc 9a0 .cfa: sp 0 +
STACK CFI 42a00 .cfa: sp 144 +
STACK CFI 42a18 .cfa: x29 80 + x19: .cfa -8 + ^ x20: .cfa -16 + ^ x21: .cfa -24 + ^ x22: .cfa -32 + ^ x23: .cfa -40 + ^ x24: .cfa -48 + ^ x25: .cfa -64 + ^ .ra: .cfa -72 + ^ x29: .cfa -80 + ^
STACK CFI 43318 .cfa: sp 144 +
STACK CFI 43330 .cfa: sp 0 +
STACK CFI 43334 .cfa: x29 80 +
STACK CFI INIT 448c0 578 .cfa: sp 0 +
STACK CFI 448c4 .cfa: sp 96 +
STACK CFI 448dc .cfa: x29 96 + x19: .cfa -8 + ^ x20: .cfa -16 + ^ x21: .cfa -24 + ^ x22: .cfa -32 + ^ x23: .cfa -40 + ^ x24: .cfa -48 + ^ x25: .cfa -56 + ^ x26: .cfa -64 + ^ x27: .cfa -72 + ^ x28: .cfa -80 + ^ .ra: .cfa -88 + ^ x29: .cfa -96 + ^
STACK CFI 44d9c .cfa: sp 96 +
STACK CFI 44db4 .cfa: sp 0 +
STACK CFI 44db8 .cfa: x29 96 +
STACK CFI INIT 44e38 678 .cfa: sp 0 +
STACK CFI 44e3c .cfa: sp 96 +
STACK CFI 44e54 .cfa: x29 96 + x19: .cfa -8 + ^ x20: .cfa -16 + ^ x21: .cfa -24 + ^ x22: .cfa -32 + ^ x23: .cfa -40 + ^ x24: .cfa -48 + ^ x25: .cfa -56 + ^ x26: .cfa -64 + ^ x27: .cfa -72 + ^ x28: .cfa -80 + ^ .ra: .cfa -88 + ^ x29: .cfa -96 + ^
STACK CFI 45414 .cfa: sp 96 +
STACK CFI 4542c .cfa: sp 0 +
STACK CFI 45430 .cfa: x29 96 +
