MODULE Linux arm64 040029EC70F27069C0202AFCF3440CD30 prevter.smooth-scroll.android64.so
INFO CODE_ID EC290004F2706970C0202AFCF3440CD387B53D46
INFO GENERATOR mozilla/dump_syms 2.3.4
PUBLIC 4220 0 __on_dlclose
PUBLIC 4230 0 __emutls_unregister_key
PUBLIC 4238 0 __on_dlclose_late
PUBLIC 4240 0 __atexit_handler_wrapper
PUBLIC 4254 0 atexit
PUBLIC 4270 0 pthread_atfork
PUBLIC 4280 0 __aarch64_ldadd8_acq_rel
PUBLIC 42b0 0 init_have_lse_atomics
PUBLIC 4348 0 __init_cpu_features_constructor
PUBLIC 45f4 0 __init_cpu_features
PUBLIC 4680 0 __aarch64_ldadd8_relax
PUBLIC 46b0 0 geode::listenForSettingChanges<getSpeed()::$_0>(std::__ndk1::basic_string_view<char, std::__ndk1::char_traits<char> >, getSpeed()::$_0&&, geode::Mod*)
PUBLIC 4870 0 geode::Mod::get<void>()
PUBLIC 48ac 0 geode::Mod::getSettingValue<double>(std::__ndk1::basic_string_view<char, std::__ndk1::char_traits<char> >) const
PUBLIC 49d8 0 geode::listenForSettingChanges<getSensitivity()::$_0>(std::__ndk1::basic_string_view<char, std::__ndk1::char_traits<char> >, getSensitivity()::$_0&&, geode::Mod*)
PUBLIC 4b90 0 __cxx_global_var_init
PUBLIC 5888 0 geode::modifier::ModifyBase<geode::modifier::ModifyDerive<ScrolledCCMouseDispatcher, cocos2d::CCMouseDispatcher> >::~ModifyBase()
PUBLIC 58a0 0 __clang_call_terminate
PUBLIC 58b0 0 geode::EventListener<geode::SettingChangedFilterV3>::EventListener(std::__ndk1::function<void (std::__ndk1::shared_ptr<geode::SettingV3>)>, geode::SettingChangedFilterV3)
PUBLIC 59a8 0 geode::SettingChangedFilterV3::~SettingChangedFilterV3()
PUBLIC 59f8 0 std::__ndk1::__function::__func<geode::listenForSettingChangesV3<double, getSpeed()::$_0>(std::__ndk1::basic_string_view<char, std::__ndk1::char_traits<char> >, getSpeed()::$_0&&, geode::Mod*)::{lambda(std::__ndk1::shared_ptr<geode::SettingV3>)#1}, std::__ndk1::allocator<geode::listenForSettingChangesV3<double, getSpeed()::$_0>(std::__ndk1::basic_string_view<char, std::__ndk1::char_traits<char> >, getSpeed()::$_0&&, geode::Mod*)::{lambda(std::__ndk1::shared_ptr<geode::SettingV3>)#1}>, void (std::__ndk1::shared_ptr<geode::SettingV3>)>::~__func()
PUBLIC 59fc 0 std::__ndk1::__function::__func<geode::listenForSettingChangesV3<double, getSpeed()::$_0>(std::__ndk1::basic_string_view<char, std::__ndk1::char_traits<char> >, getSpeed()::$_0&&, geode::Mod*)::{lambda(std::__ndk1::shared_ptr<geode::SettingV3>)#1}, std::__ndk1::allocator<geode::listenForSettingChangesV3<double, getSpeed()::$_0>(std::__ndk1::basic_string_view<char, std::__ndk1::char_traits<char> >, getSpeed()::$_0&&, geode::Mod*)::{lambda(std::__ndk1::shared_ptr<geode::SettingV3>)#1}>, void (std::__ndk1::shared_ptr<geode::SettingV3>)>::__clone() const
PUBLIC 5a34 0 std::__ndk1::__function::__func<geode::listenForSettingChangesV3<double, getSpeed()::$_0>(std::__ndk1::basic_string_view<char, std::__ndk1::char_traits<char> >, getSpeed()::$_0&&, geode::Mod*)::{lambda(std::__ndk1::shared_ptr<geode::SettingV3>)#1}, std::__ndk1::allocator<geode::listenForSettingChangesV3<double, getSpeed()::$_0>(std::__ndk1::basic_string_view<char, std::__ndk1::char_traits<char> >, getSpeed()::$_0&&, geode::Mod*)::{lambda(std::__ndk1::shared_ptr<geode::SettingV3>)#1}>, void (std::__ndk1::shared_ptr<geode::SettingV3>)>::__clone(std::__ndk1::__function::__base<void (std::__ndk1::shared_ptr<geode::SettingV3>)>*) const
PUBLIC 5a4c 0 std::__ndk1::__function::__func<geode::listenForSettingChangesV3<double, getSpeed()::$_0>(std::__ndk1::basic_string_view<char, std::__ndk1::char_traits<char> >, getSpeed()::$_0&&, geode::Mod*)::{lambda(std::__ndk1::shared_ptr<geode::SettingV3>)#1}, std::__ndk1::allocator<geode::listenForSettingChangesV3<double, getSpeed()::$_0>(std::__ndk1::basic_string_view<char, std::__ndk1::char_traits<char> >, getSpeed()::$_0&&, geode::Mod*)::{lambda(std::__ndk1::shared_ptr<geode::SettingV3>)#1}>, void (std::__ndk1::shared_ptr<geode::SettingV3>)>::destroy()
PUBLIC 5a50 0 std::__ndk1::__function::__func<geode::listenForSettingChangesV3<double, getSpeed()::$_0>(std::__ndk1::basic_string_view<char, std::__ndk1::char_traits<char> >, getSpeed()::$_0&&, geode::Mod*)::{lambda(std::__ndk1::shared_ptr<geode::SettingV3>)#1}, std::__ndk1::allocator<geode::listenForSettingChangesV3<double, getSpeed()::$_0>(std::__ndk1::basic_string_view<char, std::__ndk1::char_traits<char> >, getSpeed()::$_0&&, geode::Mod*)::{lambda(std::__ndk1::shared_ptr<geode::SettingV3>)#1}>, void (std::__ndk1::shared_ptr<geode::SettingV3>)>::destroy_deallocate()
PUBLIC 5a54 0 std::__ndk1::__function::__func<geode::listenForSettingChangesV3<double, getSpeed()::$_0>(std::__ndk1::basic_string_view<char, std::__ndk1::char_traits<char> >, getSpeed()::$_0&&, geode::Mod*)::{lambda(std::__ndk1::shared_ptr<geode::SettingV3>)#1}, std::__ndk1::allocator<geode::listenForSettingChangesV3<double, getSpeed()::$_0>(std::__ndk1::basic_string_view<char, std::__ndk1::char_traits<char> >, getSpeed()::$_0&&, geode::Mod*)::{lambda(std::__ndk1::shared_ptr<geode::SettingV3>)#1}>, void (std::__ndk1::shared_ptr<geode::SettingV3>)>::operator()(std::__ndk1::shared_ptr<geode::SettingV3>&&)
PUBLIC 5b40 0 std::__ndk1::__function::__func<geode::listenForSettingChangesV3<double, getSpeed()::$_0>(std::__ndk1::basic_string_view<char, std::__ndk1::char_traits<char> >, getSpeed()::$_0&&, geode::Mod*)::{lambda(std::__ndk1::shared_ptr<geode::SettingV3>)#1}, std::__ndk1::allocator<geode::listenForSettingChangesV3<double, getSpeed()::$_0>(std::__ndk1::basic_string_view<char, std::__ndk1::char_traits<char> >, getSpeed()::$_0&&, geode::Mod*)::{lambda(std::__ndk1::shared_ptr<geode::SettingV3>)#1}>, void (std::__ndk1::shared_ptr<geode::SettingV3>)>::target(std::type_info const&) const
PUBLIC 5b5c 0 std::__ndk1::__function::__func<geode::listenForSettingChangesV3<double, getSpeed()::$_0>(std::__ndk1::basic_string_view<char, std::__ndk1::char_traits<char> >, getSpeed()::$_0&&, geode::Mod*)::{lambda(std::__ndk1::shared_ptr<geode::SettingV3>)#1}, std::__ndk1::allocator<geode::listenForSettingChangesV3<double, getSpeed()::$_0>(std::__ndk1::basic_string_view<char, std::__ndk1::char_traits<char> >, getSpeed()::$_0&&, geode::Mod*)::{lambda(std::__ndk1::shared_ptr<geode::SettingV3>)#1}>, void (std::__ndk1::shared_ptr<geode::SettingV3>)>::target_type() const
PUBLIC 5b68 0 std::__throw_bad_array_new_length([abi:ne190000], void)
PUBLIC 5b9c 0 geode::cast::traverseTypeinfoFor(void*, geode::cast::ClassTypeinfoType const*, char const*)
PUBLIC 5c94 0 std::__ndk1::basic_string<char, std::__ndk1::char_traits<char>, std::__ndk1::allocator<char> >::__throw_length_error[abi:ne190000]() const
PUBLIC 5ca8 0 std::__ndk1::__throw_length_error[abi:ne190000](char const*)
PUBLIC 5cf8 0 std::length_error::length_error[abi:ne190000](char const*)
PUBLIC 5d28 0 geode::EventListener<geode::SettingChangedFilterV3>::getPool() const
PUBLIC 5d2c 0 geode::EventListener<geode::SettingChangedFilterV3>::handle(geode::Event*)
PUBLIC 5e90 0 geode::EventListener<geode::SettingChangedFilterV3>::~EventListener()
PUBLIC 5f2c 0 geode::EventListener<geode::SettingChangedFilterV3>::~EventListener()
PUBLIC 5fd0 0 std::__ndk1::__function::__base<void (std::__ndk1::shared_ptr<geode::SettingV3>)>::~__base()
PUBLIC 5fd4 0 std::__ndk1::__function::__func<geode::listenForSettingChangesV3<double, getSensitivity()::$_0>(std::__ndk1::basic_string_view<char, std::__ndk1::char_traits<char> >, getSensitivity()::$_0&&, geode::Mod*)::{lambda(std::__ndk1::shared_ptr<geode::SettingV3>)#1}, std::__ndk1::allocator<geode::listenForSettingChangesV3<double, getSensitivity()::$_0>(std::__ndk1::basic_string_view<char, std::__ndk1::char_traits<char> >, getSensitivity()::$_0&&, geode::Mod*)::{lambda(std::__ndk1::shared_ptr<geode::SettingV3>)#1}>, void (std::__ndk1::shared_ptr<geode::SettingV3>)>::~__func()
PUBLIC 5fd8 0 std::__ndk1::__function::__func<geode::listenForSettingChangesV3<double, getSensitivity()::$_0>(std::__ndk1::basic_string_view<char, std::__ndk1::char_traits<char> >, getSensitivity()::$_0&&, geode::Mod*)::{lambda(std::__ndk1::shared_ptr<geode::SettingV3>)#1}, std::__ndk1::allocator<geode::listenForSettingChangesV3<double, getSensitivity()::$_0>(std::__ndk1::basic_string_view<char, std::__ndk1::char_traits<char> >, getSensitivity()::$_0&&, geode::Mod*)::{lambda(std::__ndk1::shared_ptr<geode::SettingV3>)#1}>, void (std::__ndk1::shared_ptr<geode::SettingV3>)>::__clone() const
PUBLIC 6010 0 std::__ndk1::__function::__func<geode::listenForSettingChangesV3<double, getSensitivity()::$_0>(std::__ndk1::basic_string_view<char, std::__ndk1::char_traits<char> >, getSensitivity()::$_0&&, geode::Mod*)::{lambda(std::__ndk1::shared_ptr<geode::SettingV3>)#1}, std::__ndk1::allocator<geode::listenForSettingChangesV3<double, getSensitivity()::$_0>(std::__ndk1::basic_string_view<char, std::__ndk1::char_traits<char> >, getSensitivity()::$_0&&, geode::Mod*)::{lambda(std::__ndk1::shared_ptr<geode::SettingV3>)#1}>, void (std::__ndk1::shared_ptr<geode::SettingV3>)>::__clone(std::__ndk1::__function::__base<void (std::__ndk1::shared_ptr<geode::SettingV3>)>*) const
PUBLIC 6028 0 std::__ndk1::__function::__func<geode::listenForSettingChangesV3<double, getSensitivity()::$_0>(std::__ndk1::basic_string_view<char, std::__ndk1::char_traits<char> >, getSensitivity()::$_0&&, geode::Mod*)::{lambda(std::__ndk1::shared_ptr<geode::SettingV3>)#1}, std::__ndk1::allocator<geode::listenForSettingChangesV3<double, getSensitivity()::$_0>(std::__ndk1::basic_string_view<char, std::__ndk1::char_traits<char> >, getSensitivity()::$_0&&, geode::Mod*)::{lambda(std::__ndk1::shared_ptr<geode::SettingV3>)#1}>, void (std::__ndk1::shared_ptr<geode::SettingV3>)>::destroy()
PUBLIC 602c 0 std::__ndk1::__function::__func<geode::listenForSettingChangesV3<double, getSensitivity()::$_0>(std::__ndk1::basic_string_view<char, std::__ndk1::char_traits<char> >, getSensitivity()::$_0&&, geode::Mod*)::{lambda(std::__ndk1::shared_ptr<geode::SettingV3>)#1}, std::__ndk1::allocator<geode::listenForSettingChangesV3<double, getSensitivity()::$_0>(std::__ndk1::basic_string_view<char, std::__ndk1::char_traits<char> >, getSensitivity()::$_0&&, geode::Mod*)::{lambda(std::__ndk1::shared_ptr<geode::SettingV3>)#1}>, void (std::__ndk1::shared_ptr<geode::SettingV3>)>::destroy_deallocate()
PUBLIC 6030 0 std::__ndk1::__function::__func<geode::listenForSettingChangesV3<double, getSensitivity()::$_0>(std::__ndk1::basic_string_view<char, std::__ndk1::char_traits<char> >, getSensitivity()::$_0&&, geode::Mod*)::{lambda(std::__ndk1::shared_ptr<geode::SettingV3>)#1}, std::__ndk1::allocator<geode::listenForSettingChangesV3<double, getSensitivity()::$_0>(std::__ndk1::basic_string_view<char, std::__ndk1::char_traits<char> >, getSensitivity()::$_0&&, geode::Mod*)::{lambda(std::__ndk1::shared_ptr<geode::SettingV3>)#1}>, void (std::__ndk1::shared_ptr<geode::SettingV3>)>::operator()(std::__ndk1::shared_ptr<geode::SettingV3>&&)
PUBLIC 611c 0 std::__ndk1::__function::__func<geode::listenForSettingChangesV3<double, getSensitivity()::$_0>(std::__ndk1::basic_string_view<char, std::__ndk1::char_traits<char> >, getSensitivity()::$_0&&, geode::Mod*)::{lambda(std::__ndk1::shared_ptr<geode::SettingV3>)#1}, std::__ndk1::allocator<geode::listenForSettingChangesV3<double, getSensitivity()::$_0>(std::__ndk1::basic_string_view<char, std::__ndk1::char_traits<char> >, getSensitivity()::$_0&&, geode::Mod*)::{lambda(std::__ndk1::shared_ptr<geode::SettingV3>)#1}>, void (std::__ndk1::shared_ptr<geode::SettingV3>)>::target(std::type_info const&) const
PUBLIC 6138 0 std::__ndk1::__function::__func<geode::listenForSettingChangesV3<double, getSensitivity()::$_0>(std::__ndk1::basic_string_view<char, std::__ndk1::char_traits<char> >, getSensitivity()::$_0&&, geode::Mod*)::{lambda(std::__ndk1::shared_ptr<geode::SettingV3>)#1}, std::__ndk1::allocator<geode::listenForSettingChangesV3<double, getSensitivity()::$_0>(std::__ndk1::basic_string_view<char, std::__ndk1::char_traits<char> >, getSensitivity()::$_0&&, geode::Mod*)::{lambda(std::__ndk1::shared_ptr<geode::SettingV3>)#1}>, void (std::__ndk1::shared_ptr<geode::SettingV3>)>::target_type() const
PUBLIC 6144 0 geode::modifier::ModifyDerive<ScrolledCCMouseDispatcher, cocos2d::CCMouseDispatcher>::apply()
PUBLIC 6608 0 std::__ndk1::shared_ptr<geode::Hook>::~shared_ptr[abi:ne190000]()
PUBLIC 6658 0 geode::impl::ResultData<geode::Hook*, std::__ndk1::basic_string<char, std::__ndk1::char_traits<char>, std::__ndk1::allocator<char> > >::~ResultData()
PUBLIC 66cc 0 std::__ndk1::vector<std::__ndk1::basic_string<char, std::__ndk1::char_traits<char>, std::__ndk1::allocator<char> >, std::__ndk1::allocator<std::__ndk1::basic_string<char, std::__ndk1::char_traits<char>, std::__ndk1::allocator<char> > > >::~vector[abi:ne190000]()
PUBLIC 6748 0 geode::modifier::ModifyBase<geode::modifier::ModifyDerive<ScrolledCCMouseDispatcher, cocos2d::CCMouseDispatcher> >::apply()
PUBLIC 674c 0 std::__ndk1::__tree<std::__ndk1::__value_type<std::__ndk1::basic_string<char, std::__ndk1::char_traits<char>, std::__ndk1::allocator<char> >, std::__ndk1::shared_ptr<geode::Hook> >, std::__ndk1::__map_value_compare<std::__ndk1::basic_string<char, std::__ndk1::char_traits<char>, std::__ndk1::allocator<char> >, std::__ndk1::__value_type<std::__ndk1::basic_string<char, std::__ndk1::char_traits<char>, std::__ndk1::allocator<char> >, std::__ndk1::shared_ptr<geode::Hook> >, std::__ndk1::less<std::__ndk1::basic_string<char, std::__ndk1::char_traits<char>, std::__ndk1::allocator<char> > >, true>, std::__ndk1::allocator<std::__ndk1::__value_type<std::__ndk1::basic_string<char, std::__ndk1::char_traits<char>, std::__ndk1::allocator<char> >, std::__ndk1::shared_ptr<geode::Hook> > > >::find<std::__ndk1::basic_string<char, std::__ndk1::char_traits<char>, std::__ndk1::allocator<char> > >(std::__ndk1::basic_string<char, std::__ndk1::char_traits<char>, std::__ndk1::allocator<char> > const&)
PUBLIC 6878 0 std::__ndk1::unique_ptr<std::__ndk1::__tree_node<std::__ndk1::__value_type<std::__ndk1::basic_string<char, std::__ndk1::char_traits<char>, std::__ndk1::allocator<char> >, std::__ndk1::shared_ptr<geode::Hook> >, void*>, std::__ndk1::__tree_node_destructor<std::__ndk1::allocator<std::__ndk1::__tree_node<std::__ndk1::__value_type<std::__ndk1::basic_string<char, std::__ndk1::char_traits<char>, std::__ndk1::allocator<char> >, std::__ndk1::shared_ptr<geode::Hook> >, void*> > > >::~unique_ptr[abi:ne190000]()
PUBLIC 68f4 0 std::__ndk1::basic_string<char, std::__ndk1::char_traits<char>, std::__ndk1::allocator<char> >::__init_copy_ctor_external(char const*, unsigned long)
PUBLIC 6988 0 std::__ndk1::__tree_balance_after_insert[abi:ne190000]<std::__ndk1::__tree_node_base<void*>*>(std::__ndk1::__tree_node_base<void*>*, std::__ndk1::__tree_node_base<void*>*)
PUBLIC 6b30 0 _ZN5geode15UnwrapExceptionC2IRPNS_4HookEQsr4implE18IsStringStreamableIT_EEENS_4impl5OkTagEOS5_
PUBLIC 6c84 0 std::__ndk1::__throw_bad_variant_access[abi:ne190000]()
PUBLIC 6cb8 0 std::__ndk1::basic_stringstream<char, std::__ndk1::char_traits<char>, std::__ndk1::allocator<char> >::basic_stringstream[abi:ne190000]()
PUBLIC m 6dec 0 std::__ndk1::basic_stringstream<char, std::__ndk1::char_traits<char>, std::__ndk1::allocator<char> >::~basic_stringstream()
PUBLIC 6e6c 0 geode::UnwrapException::~UnwrapException()
PUBLIC 6e90 0 std::__ndk1::__put_character_sequence[abi:ne190000]<char, std::__ndk1::char_traits<char> >(std::__ndk1::basic_ostream<char, std::__ndk1::char_traits<char> >, std::__ndk1::basic_ostream const*, unsigned long)
PUBLIC 7034 0 std::__ndk1::__pad_and_output[abi:ne190000]<char, std::__ndk1::char_traits<char> >(std::__ndk1::char_traits<char>, std::__ndk1::ostreambuf_iterator const*, std::__ndk1::ostreambuf_iterator const, std::__ndk1::ostreambuf_iterator const, std::__ndk1::ios_base&, std::__ndk1::ostreambuf_iterator)
PUBLIC 7220 0 std::__ndk1::basic_stringbuf<char, std::__ndk1::char_traits<char>, std::__ndk1::allocator<char> >::str[abi:ne190000]() &&
PUBLIC 7390 0 std::__ndk1::basic_stringbuf<char, std::__ndk1::char_traits<char>, std::__ndk1::allocator<char> >::__init_buf_ptrs[abi:ne190000]()
PUBLIC 74d8 0 std::__ndk1::basic_string<char, std::__ndk1::char_traits<char>, std::__ndk1::allocator<char> >::__erase_external_with_move(unsigned long, unsigned long)
PUBLIC 7560 0 std::__ndk1::__variant_detail::__visitation::__base::__dispatcher<(unsigned long)0>::__dispatch[abi:ne190000]<std::__ndk1::__variant_detail::__dtor<std::__ndk1::__variant_detail::__traits<std::__ndk1::monostate, std::__ndk1::basic_string<char, std::__ndk1::char_traits<char>, std::__ndk1::allocator<char> > >, (std::__ndk1::__variant_detail::_Trait)1>::__destroy[abi:ne190000]()::{lambda(auto:1&)#1}, std::__ndk1::__variant_detail::__base<(std::__ndk1::__variant_detail::__traits<std::__ndk1::monostate, std::__ndk1::basic_string<char, std::__ndk1::char_traits<char>, std::__ndk1::allocator<char> > >)1, std::__ndk1::__variant_detail::__traits, std::__ndk1::allocator<char> >&>(std::__ndk1::__variant_detail::__dtor<std::__ndk1::__variant_detail::__traits<std::__ndk1::monostate, std::__ndk1::basic_string<char, std::__ndk1::char_traits<char>, std::__ndk1::allocator<char> > >, (std::__ndk1::__variant_detail::_Trait)1>, std::__ndk1::__variant_detail::__base<(std::__ndk1::__variant_detail::__traits<std::__ndk1::monostate, std::__ndk1::basic_string<char, std::__ndk1::char_traits<char>, std::__ndk1::allocator<char> > >)1, std::__ndk1::__variant_detail::__traits, std::__ndk1::allocator<char> >&)
PUBLIC 7564 0 std::__ndk1::__variant_detail::__visitation::__base::__dispatcher<(unsigned long)1>::__dispatch[abi:ne190000]<std::__ndk1::__variant_detail::__dtor<std::__ndk1::__variant_detail::__traits<std::__ndk1::monostate, std::__ndk1::basic_string<char, std::__ndk1::char_traits<char>, std::__ndk1::allocator<char> > >, (std::__ndk1::__variant_detail::_Trait)1>::__destroy[abi:ne190000]()::{lambda(auto:1&)#1}, std::__ndk1::__variant_detail::__base<(std::__ndk1::__variant_detail::__traits<std::__ndk1::monostate, std::__ndk1::basic_string<char, std::__ndk1::char_traits<char>, std::__ndk1::allocator<char> > >)1, std::__ndk1::__variant_detail::__traits, std::__ndk1::allocator<char> >&>(std::__ndk1::__variant_detail::__dtor<std::__ndk1::__variant_detail::__traits<std::__ndk1::monostate, std::__ndk1::basic_string<char, std::__ndk1::char_traits<char>, std::__ndk1::allocator<char> > >, (std::__ndk1::__variant_detail::_Trait)1>, std::__ndk1::__variant_detail::__base<(std::__ndk1::__variant_detail::__traits<std::__ndk1::monostate, std::__ndk1::basic_string<char, std::__ndk1::char_traits<char>, std::__ndk1::allocator<char> > >)1, std::__ndk1::__variant_detail::__traits, std::__ndk1::allocator<char> >&)
PUBLIC 7578 0 std::__ndk1::__split_buffer<std::__ndk1::basic_string<char, std::__ndk1::char_traits<char>, std::__ndk1::allocator<char> >, std::__ndk1::allocator<std::__ndk1::basic_string<char, std::__ndk1::char_traits<char>, std::__ndk1::allocator<char> > >&>::~__split_buffer()
PUBLIC 75e0 0 std::__ndk1::vector<std::__ndk1::basic_string<char, std::__ndk1::char_traits<char>, std::__ndk1::allocator<char> >, std::__ndk1::allocator<std::__ndk1::basic_string<char, std::__ndk1::char_traits<char>, std::__ndk1::allocator<char> > > >::__throw_length_error[abi:ne190000]() const
PUBLIC 75f4 0 std::__ndk1::__variant_detail::__visitation::__base::__dispatcher<(unsigned long)0>::__dispatch[abi:ne190000]<std::__ndk1::__variant_detail::__dtor<std::__ndk1::__variant_detail::__traits<geode::Hook*, std::__ndk1::basic_string<char, std::__ndk1::char_traits<char>, std::__ndk1::allocator<char> > >, (std::__ndk1::__variant_detail::_Trait)1>::__destroy[abi:ne190000]()::{lambda(auto:1&)#1}, std::__ndk1::__variant_detail::__base<(std::__ndk1::__variant_detail::__traits<geode::Hook*, std::__ndk1::basic_string<char, std::__ndk1::char_traits<char>, std::__ndk1::allocator<char> > >)1, geode::Hook, std::__ndk1::allocator<char> >&>(std::__ndk1::__variant_detail::__dtor<std::__ndk1::__variant_detail::__traits<geode::Hook*, std::__ndk1::basic_string<char, std::__ndk1::char_traits<char>, std::__ndk1::allocator<char> > >, (std::__ndk1::__variant_detail::_Trait)1>, std::__ndk1::__variant_detail::__base<(std::__ndk1::__variant_detail::__traits<geode::Hook*, std::__ndk1::basic_string<char, std::__ndk1::char_traits<char>, std::__ndk1::allocator<char> > >)1, geode::Hook, std::__ndk1::allocator<char> >&)
PUBLIC 75f8 0 std::__ndk1::__variant_detail::__visitation::__base::__dispatcher<(unsigned long)1>::__dispatch[abi:ne190000]<std::__ndk1::__variant_detail::__dtor<std::__ndk1::__variant_detail::__traits<geode::Hook*, std::__ndk1::basic_string<char, std::__ndk1::char_traits<char>, std::__ndk1::allocator<char> > >, (std::__ndk1::__variant_detail::_Trait)1>::__destroy[abi:ne190000]()::{lambda(auto:1&)#1}, std::__ndk1::__variant_detail::__base<(std::__ndk1::__variant_detail::__traits<geode::Hook*, std::__ndk1::basic_string<char, std::__ndk1::char_traits<char>, std::__ndk1::allocator<char> > >)1, geode::Hook, std::__ndk1::allocator<char> >&>(std::__ndk1::__variant_detail::__dtor<std::__ndk1::__variant_detail::__traits<geode::Hook*, std::__ndk1::basic_string<char, std::__ndk1::char_traits<char>, std::__ndk1::allocator<char> > >, (std::__ndk1::__variant_detail::_Trait)1>, std::__ndk1::__variant_detail::__base<(std::__ndk1::__variant_detail::__traits<geode::Hook*, std::__ndk1::basic_string<char, std::__ndk1::char_traits<char>, std::__ndk1::allocator<char> > >)1, geode::Hook, std::__ndk1::allocator<char> >&)
PUBLIC 760c 0 std::__ndk1::__tree<std::__ndk1::__value_type<std::__ndk1::basic_string<char, std::__ndk1::char_traits<char>, std::__ndk1::allocator<char> >, std::__ndk1::shared_ptr<geode::Hook> >, std::__ndk1::__map_value_compare<std::__ndk1::basic_string<char, std::__ndk1::char_traits<char>, std::__ndk1::allocator<char> >, std::__ndk1::__value_type<std::__ndk1::basic_string<char, std::__ndk1::char_traits<char>, std::__ndk1::allocator<char> >, std::__ndk1::shared_ptr<geode::Hook> >, std::__ndk1::less<std::__ndk1::basic_string<char, std::__ndk1::char_traits<char>, std::__ndk1::allocator<char> > >, true>, std::__ndk1::allocator<std::__ndk1::__value_type<std::__ndk1::basic_string<char, std::__ndk1::char_traits<char>, std::__ndk1::allocator<char> >, std::__ndk1::shared_ptr<geode::Hook> > > >::destroy(std::__ndk1::__tree_node<std::__ndk1::__value_type<std::__ndk1::basic_string<char, std::__ndk1::char_traits<char>, std::__ndk1::allocator<char> >, std::__ndk1::shared_ptr<geode::Hook> >, void*>*)
PUBLIC 7690 0 geode::modifier::AsStaticFunction_dispatchScrollMSG<ScrolledCCMouseDispatcher, bool (ScrolledCCMouseDispatcher::*)(float, float)>::Impl<bool (ScrolledCCMouseDispatcher::*)(float, float)>::function(ScrolledCCMouseDispatcher*, float, float)
PUBLIC 77c8 0 std::__ndk1::shared_ptr<tulip::hook::CallingConvention>::~shared_ptr[abi:ne190000]()
PUBLIC 7818 0 tulip::hook::HandlerMetadata::~HandlerMetadata()
PUBLIC 787c 0 ScrolledCCMouseDispatcher::updateScroll(float)
PUBLIC 79a0 0 geode::getMod()
PUBLIC m 79dc 0 geodeImplicitEntry
PUBLIC 7a18 0 LevelEditorLayer::get()
PUBLIC 7a30 0 <.plt ELF section in prevter.smooth-scroll.android64.so>
STACK CFI INIT 4220 10 .cfa: sp 0 +
STACK CFI INIT 4230 8 .cfa: sp 0 +
STACK CFI INIT 4238 8 .cfa: sp 0 +
STACK CFI INIT 4240 14 .cfa: sp 0 +
STACK CFI INIT 4254 1c .cfa: sp 0 +
STACK CFI INIT 4270 10 .cfa: sp 0 +
STACK CFI INIT 4280 30 .cfa: sp 0 +
STACK CFI INIT 42b0 98 .cfa: sp 0 +
STACK CFI INIT 4348 2ac .cfa: sp 0 +
STACK CFI INIT 45f4 8c .cfa: sp 0 +
STACK CFI INIT 4680 30 .cfa: sp 0 +
STACK CFI INIT 4870 3c .cfa: sp 0 +
STACK CFI 4874 .cfa: sp 32 +
STACK CFI 487c .cfa: x29 32 + x19: .cfa -16 + ^ .ra: .cfa -24 + ^ x29: .cfa -32 + ^
STACK CFI 4888 .cfa: sp 32 +
STACK CFI 4890 .cfa: sp 0 +
STACK CFI 4894 .cfa: x29 32 +
STACK CFI 48a0 .cfa: sp 32 +
STACK CFI 48a8 .cfa: sp 0 +
STACK CFI INIT 48ac 12c .cfa: sp 0 +
STACK CFI 48b0 .cfa: sp 96 +
STACK CFI 48c4 .cfa: x29 48 + x19: .cfa -8 + ^ x20: .cfa -16 + ^ x21: .cfa -24 + ^ x22: .cfa -32 + ^ .ra: .cfa -40 + ^ x29: .cfa -48 + ^ v8: .cfa -64 + ^
STACK CFI 49bc .cfa: sp 96 +
STACK CFI 49d0 .cfa: sp 0 +
STACK CFI 49d4 .cfa: x29 48 +
STACK CFI INIT 5888 18 .cfa: sp 0 +
STACK CFI INIT 58a0 10 .cfa: sp 0 +
STACK CFI 58a4 .cfa: sp 16 +
STACK CFI 58a8 .cfa: x29 16 + .ra: .cfa -8 + ^ x29: .cfa -16 + ^
STACK CFI INIT 59a8 50 .cfa: sp 0 +
STACK CFI 59ac .cfa: sp 32 +
STACK CFI 59b4 .cfa: x29 32 + x19: .cfa -16 + ^ .ra: .cfa -24 + ^ x29: .cfa -32 + ^
STACK CFI 59cc .cfa: sp 32 +
STACK CFI 59d4 .cfa: sp 0 +
STACK CFI 59d8 .cfa: x29 32 +
STACK CFI 59ec .cfa: sp 32 +
STACK CFI 59f4 .cfa: sp 0 +
STACK CFI INIT 59f8 4 .cfa: sp 0 +
STACK CFI INIT 59fc 38 .cfa: sp 0 +
STACK CFI 5a00 .cfa: sp 32 +
STACK CFI 5a08 .cfa: x29 32 + x19: .cfa -16 + ^ .ra: .cfa -24 + ^ x29: .cfa -32 + ^
STACK CFI 5a28 .cfa: sp 32 +
STACK CFI 5a30 .cfa: sp 0 +
STACK CFI INIT 5a34 18 .cfa: sp 0 +
STACK CFI INIT 5a4c 4 .cfa: sp 0 +
STACK CFI INIT 5a50 4 .cfa: sp 0 +
STACK CFI INIT 5a54 ec .cfa: sp 0 +
STACK CFI 5a58 .cfa: sp 32 +
STACK CFI 5a60 .cfa: x29 32 + x19: .cfa -8 + ^ x20: .cfa -16 + ^ .ra: .cfa -24 + ^ x29: .cfa -32 + ^
STACK CFI 5ae0 .cfa: sp 32 +
STACK CFI 5ae8 .cfa: sp 0 +
STACK CFI 5aec .cfa: x29 32 +
STACK CFI 5b34 .cfa: sp 32 +
STACK CFI 5b3c .cfa: sp 0 +
STACK CFI INIT 5b40 1c .cfa: sp 0 +
STACK CFI INIT 5b5c c .cfa: sp 0 +
STACK CFI INIT 5b68 34 .cfa: sp 0 +
STACK CFI 5b6c .cfa: sp 32 +
STACK CFI 5b74 .cfa: x29 32 + x19: .cfa -16 + ^ .ra: .cfa -24 + ^ x29: .cfa -32 + ^
STACK CFI INIT 5b9c f8 .cfa: sp 0 +
STACK CFI 5ba0 .cfa: sp 64 +
STACK CFI 5bb0 .cfa: x29 64 + x19: .cfa -8 + ^ x20: .cfa -16 + ^ x21: .cfa -24 + ^ x22: .cfa -32 + ^ x23: .cfa -48 + ^ .ra: .cfa -56 + ^ x29: .cfa -64 + ^
STACK CFI 5c0c .cfa: sp 64 +
STACK CFI 5c1c .cfa: sp 0 +
STACK CFI 5c20 .cfa: x29 64 +
STACK CFI 5c3c .cfa: sp 64 +
STACK CFI 5c4c .cfa: sp 0 +
STACK CFI 5c50 .cfa: x29 64 +
STACK CFI 5c80 .cfa: sp 64 +
STACK CFI 5c90 .cfa: sp 0 +
STACK CFI INIT 5c94 14 .cfa: sp 0 +
STACK CFI 5c98 .cfa: sp 16 +
STACK CFI 5c9c .cfa: x29 16 + .ra: .cfa -8 + ^ x29: .cfa -16 + ^
STACK CFI INIT 5cf8 30 .cfa: sp 0 +
STACK CFI 5cfc .cfa: sp 32 +
STACK CFI 5d04 .cfa: x29 32 + x19: .cfa -16 + ^ .ra: .cfa -24 + ^ x29: .cfa -32 + ^
STACK CFI 5d1c .cfa: sp 32 +
STACK CFI 5d24 .cfa: sp 0 +
STACK CFI INIT 5d28 4 .cfa: sp 0 +
STACK CFI INIT 5e90 9c .cfa: sp 0 +
STACK CFI 5e94 .cfa: sp 32 +
STACK CFI 5e9c .cfa: x29 32 + x19: .cfa -8 + ^ x20: .cfa -16 + ^ .ra: .cfa -24 + ^ x29: .cfa -32 + ^
STACK CFI 5f20 .cfa: sp 32 +
STACK CFI 5f28 .cfa: sp 0 +
STACK CFI INIT 5f2c a4 .cfa: sp 0 +
STACK CFI 5f30 .cfa: sp 32 +
STACK CFI 5f38 .cfa: x29 32 + x19: .cfa -8 + ^ x20: .cfa -16 + ^ .ra: .cfa -24 + ^ x29: .cfa -32 + ^
STACK CFI 5fc4 .cfa: sp 32 +
STACK CFI 5fcc .cfa: sp 0 +
STACK CFI INIT 5fd0 4 .cfa: sp 0 +
STACK CFI INIT 5fd4 4 .cfa: sp 0 +
STACK CFI INIT 5fd8 38 .cfa: sp 0 +
STACK CFI 5fdc .cfa: sp 32 +
STACK CFI 5fe4 .cfa: x29 32 + x19: .cfa -16 + ^ .ra: .cfa -24 + ^ x29: .cfa -32 + ^
STACK CFI 6004 .cfa: sp 32 +
STACK CFI 600c .cfa: sp 0 +
STACK CFI INIT 6010 18 .cfa: sp 0 +
STACK CFI INIT 6028 4 .cfa: sp 0 +
STACK CFI INIT 602c 4 .cfa: sp 0 +
STACK CFI INIT 6030 ec .cfa: sp 0 +
STACK CFI 6034 .cfa: sp 32 +
STACK CFI 603c .cfa: x29 32 + x19: .cfa -8 + ^ x20: .cfa -16 + ^ .ra: .cfa -24 + ^ x29: .cfa -32 + ^
STACK CFI 60bc .cfa: sp 32 +
STACK CFI 60c4 .cfa: sp 0 +
STACK CFI 60c8 .cfa: x29 32 +
STACK CFI 6110 .cfa: sp 32 +
STACK CFI 6118 .cfa: sp 0 +
STACK CFI INIT 611c 1c .cfa: sp 0 +
STACK CFI INIT 6138 c .cfa: sp 0 +
STACK CFI INIT 6608 50 .cfa: sp 0 +
STACK CFI 660c .cfa: sp 32 +
STACK CFI 6614 .cfa: x29 32 + x19: .cfa -16 + ^ .ra: .cfa -24 + ^ x29: .cfa -32 + ^
STACK CFI 662c .cfa: sp 32 +
STACK CFI 6634 .cfa: sp 0 +
STACK CFI 6638 .cfa: x29 32 +
STACK CFI 664c .cfa: sp 32 +
STACK CFI 6654 .cfa: sp 0 +
STACK CFI INIT 66cc 7c .cfa: sp 0 +
STACK CFI 66d0 .cfa: sp 48 +
STACK CFI 66dc .cfa: x29 48 + x19: .cfa -8 + ^ x20: .cfa -16 + ^ x21: .cfa -32 + ^ .ra: .cfa -40 + ^ x29: .cfa -48 + ^
STACK CFI 6728 .cfa: sp 48 +
STACK CFI 6734 .cfa: sp 0 +
STACK CFI 6738 .cfa: sp 48 +
STACK CFI 6744 .cfa: sp 0 +
STACK CFI INIT 6748 4 .cfa: sp 0 +
STACK CFI INIT 674c 12c .cfa: sp 0 +
STACK CFI 6750 .cfa: sp 64 +
STACK CFI 6760 .cfa: x29 64 + x19: .cfa -8 + ^ x20: .cfa -16 + ^ x21: .cfa -24 + ^ x22: .cfa -32 + ^ x23: .cfa -40 + ^ x24: .cfa -48 + ^ .ra: .cfa -56 + ^ x29: .cfa -64 + ^
STACK CFI 6864 .cfa: sp 64 +
STACK CFI 6874 .cfa: sp 0 +
STACK CFI INIT 6878 7c .cfa: sp 0 +
STACK CFI 687c .cfa: sp 32 +
STACK CFI 6884 .cfa: x29 32 + x19: .cfa -8 + ^ x20: .cfa -16 + ^ .ra: .cfa -24 + ^ x29: .cfa -32 + ^
STACK CFI 68dc .cfa: sp 32 +
STACK CFI 68e4 .cfa: sp 0 +
STACK CFI 68e8 .cfa: sp 32 +
STACK CFI 68f0 .cfa: sp 0 +
STACK CFI INIT 68f4 94 .cfa: sp 0 +
STACK CFI 68f8 .cfa: sp 48 +
STACK CFI 6904 .cfa: x29 48 + x19: .cfa -8 + ^ x20: .cfa -16 + ^ x21: .cfa -24 + ^ x22: .cfa -32 + ^ .ra: .cfa -40 + ^ x29: .cfa -48 + ^
STACK CFI 691c .cfa: sp 48 +
STACK CFI 6928 .cfa: sp 0 +
STACK CFI 692c .cfa: x29 48 +
STACK CFI 6970 .cfa: sp 48 +
STACK CFI 697c .cfa: sp 0 +
STACK CFI 6980 .cfa: x29 48 +
STACK CFI INIT 6988 1a8 .cfa: sp 0 +
STACK CFI INIT 6c84 34 .cfa: sp 0 +
STACK CFI 6c88 .cfa: sp 16 +
STACK CFI 6c8c .cfa: x29 16 + .ra: .cfa -8 + ^ x29: .cfa -16 + ^
STACK CFI INIT 6dec 80 .cfa: sp 0 +
STACK CFI 6df0 .cfa: sp 48 +
STACK CFI 6dfc .cfa: x29 48 + x19: .cfa -8 + ^ x20: .cfa -16 + ^ x21: .cfa -32 + ^ .ra: .cfa -40 + ^ x29: .cfa -48 + ^
STACK CFI 6e5c .cfa: sp 48 +
STACK CFI 6e68 .cfa: sp 0 +
STACK CFI INIT 6e6c 24 .cfa: sp 0 +
STACK CFI 6e70 .cfa: sp 32 +
STACK CFI 6e78 .cfa: x29 32 + x19: .cfa -16 + ^ .ra: .cfa -24 + ^ x29: .cfa -32 + ^
STACK CFI 6e84 .cfa: sp 32 +
STACK CFI 6e8c .cfa: sp 0 +
STACK CFI INIT 7390 148 .cfa: sp 0 +
STACK CFI 7394 .cfa: sp 48 +
STACK CFI 73a0 .cfa: x29 48 + x19: .cfa -8 + ^ x20: .cfa -16 + ^ x21: .cfa -32 + ^ .ra: .cfa -40 + ^ x29: .cfa -48 + ^
STACK CFI 74c8 .cfa: sp 48 +
STACK CFI 74d4 .cfa: sp 0 +
STACK CFI INIT 74d8 88 .cfa: sp 0 +
STACK CFI 74e0 .cfa: sp 48 +
STACK CFI 74ec .cfa: x29 48 + x19: .cfa -8 + ^ x20: .cfa -16 + ^ x21: .cfa -24 + ^ x22: .cfa -32 + ^ .ra: .cfa -40 + ^ x29: .cfa -48 + ^
STACK CFI 7550 .cfa: sp 48 +
STACK CFI 755c .cfa: sp 0 +
STACK CFI INIT 7560 4 .cfa: sp 0 +
STACK CFI INIT 7564 14 .cfa: sp 0 +
STACK CFI INIT 7578 68 .cfa: sp 0 +
STACK CFI 757c .cfa: sp 32 +
STACK CFI 7584 .cfa: x29 32 + x19: .cfa -8 + ^ x20: .cfa -16 + ^ .ra: .cfa -24 + ^ x29: .cfa -32 + ^
STACK CFI 759c .cfa: sp 32 +
STACK CFI 75a4 .cfa: sp 0 +
STACK CFI 75a8 .cfa: x29 32 +
STACK CFI 75d4 .cfa: sp 32 +
STACK CFI 75dc .cfa: sp 0 +
STACK CFI INIT 75e0 14 .cfa: sp 0 +
STACK CFI 75e4 .cfa: sp 16 +
STACK CFI 75e8 .cfa: x29 16 + .ra: .cfa -8 + ^ x29: .cfa -16 + ^
STACK CFI INIT 75f4 4 .cfa: sp 0 +
STACK CFI INIT 75f8 14 .cfa: sp 0 +
STACK CFI INIT 760c 84 .cfa: sp 0 +
STACK CFI 7614 .cfa: sp 32 +
STACK CFI 761c .cfa: x29 32 + x19: .cfa -8 + ^ x20: .cfa -16 + ^ .ra: .cfa -24 + ^ x29: .cfa -32 + ^
STACK CFI 765c .cfa: sp 32 +
STACK CFI 7664 .cfa: sp 0 +
STACK CFI 766c .cfa: x29 32 +
STACK CFI INIT 77c8 50 .cfa: sp 0 +
STACK CFI 77cc .cfa: sp 32 +
STACK CFI 77d4 .cfa: x29 32 + x19: .cfa -16 + ^ .ra: .cfa -24 + ^ x29: .cfa -32 + ^
STACK CFI 77ec .cfa: sp 32 +
STACK CFI 77f4 .cfa: sp 0 +
STACK CFI 77f8 .cfa: x29 32 +
STACK CFI 780c .cfa: sp 32 +
STACK CFI 7814 .cfa: sp 0 +
STACK CFI INIT 7818 64 .cfa: sp 0 +
STACK CFI 781c .cfa: sp 32 +
STACK CFI 7824 .cfa: x29 32 + x19: .cfa -16 + ^ .ra: .cfa -24 + ^ x29: .cfa -32 + ^
STACK CFI 7850 .cfa: sp 32 +
STACK CFI 7858 .cfa: sp 0 +
STACK CFI 785c .cfa: x29 32 +
STACK CFI 7870 .cfa: sp 32 +
STACK CFI 7878 .cfa: sp 0 +
STACK CFI INIT 79a0 3c .cfa: sp 0 +
STACK CFI 79a4 .cfa: sp 32 +
STACK CFI 79ac .cfa: x29 32 + x19: .cfa -16 + ^ .ra: .cfa -24 + ^ x29: .cfa -32 + ^
STACK CFI 79b8 .cfa: sp 32 +
STACK CFI 79c0 .cfa: sp 0 +
STACK CFI 79c4 .cfa: x29 32 +
STACK CFI 79d0 .cfa: sp 32 +
STACK CFI 79d8 .cfa: sp 0 +
STACK CFI INIT 79dc 3c .cfa: sp 0 +
STACK CFI 79e0 .cfa: sp 32 +
STACK CFI 79e8 .cfa: x29 32 + x19: .cfa -16 + ^ .ra: .cfa -24 + ^ x29: .cfa -32 + ^
STACK CFI 79f4 .cfa: sp 32 +
STACK CFI 79fc .cfa: sp 0 +
STACK CFI 7a00 .cfa: x29 32 +
STACK CFI 7a0c .cfa: sp 32 +
STACK CFI 7a14 .cfa: sp 0 +
STACK CFI INIT 7a18 18 .cfa: sp 0 +
STACK CFI 7a1c .cfa: sp 16 +
STACK CFI 7a20 .cfa: x29 16 + .ra: .cfa -8 + ^ x29: .cfa -16 + ^
STACK CFI 7a28 .cfa: sp 16 +
STACK CFI 7a2c .cfa: sp 0 +
STACK CFI INIT 46b0 1c0 .cfa: sp 0 +
STACK CFI 46b4 .cfa: sp 176 +
STACK CFI 46c4 .cfa: x29 48 + x19: .cfa -8 + ^ x20: .cfa -16 + ^ x21: .cfa -32 + ^ .ra: .cfa -40 + ^ x29: .cfa -48 + ^
STACK CFI 47d8 .cfa: sp 176 +
STACK CFI 47e8 .cfa: sp 0 +
STACK CFI 47ec .cfa: x29 48 +
STACK CFI INIT 49d8 1b8 .cfa: sp 0 +
STACK CFI 49dc .cfa: sp 176 +
STACK CFI 49ec .cfa: x29 48 + x19: .cfa -8 + ^ x20: .cfa -16 + ^ x21: .cfa -32 + ^ .ra: .cfa -40 + ^ x29: .cfa -48 + ^
STACK CFI 4af8 .cfa: sp 176 +
STACK CFI 4b08 .cfa: sp 0 +
STACK CFI 4b0c .cfa: x29 48 +
STACK CFI INIT 4b90 cf8 .cfa: sp 0 +
STACK CFI 4b94 .cfa: sp 240 +
STACK CFI 4bb0 .cfa: x29 96 + x19: .cfa -8 + ^ x20: .cfa -16 + ^ x21: .cfa -24 + ^ x22: .cfa -32 + ^ x23: .cfa -40 + ^ x24: .cfa -48 + ^ x25: .cfa -56 + ^ x26: .cfa -64 + ^ x27: .cfa -72 + ^ x28: .cfa -80 + ^ .ra: .cfa -88 + ^ x29: .cfa -96 + ^
STACK CFI 4d04 .cfa: sp 240 +
STACK CFI 4d20 .cfa: sp 0 +
STACK CFI 4d24 .cfa: x29 96 +
STACK CFI 56e8 .cfa: sp 240 +
STACK CFI 5704 .cfa: sp 0 +
STACK CFI 5708 .cfa: x29 96 +
STACK CFI INIT 58b0 f8 .cfa: sp 0 +
STACK CFI 58b4 .cfa: sp 48 +
STACK CFI 58c0 .cfa: x29 48 + x19: .cfa -8 + ^ x20: .cfa -16 + ^ x21: .cfa -32 + ^ .ra: .cfa -40 + ^ x29: .cfa -48 + ^
STACK CFI 592c .cfa: sp 48 +
STACK CFI 5938 .cfa: sp 0 +
STACK CFI 593c .cfa: x29 48 +
STACK CFI INIT 5ca8 50 .cfa: sp 0 +
STACK CFI 5cac .cfa: sp 32 +
STACK CFI 5cb4 .cfa: x29 32 + x19: .cfa -8 + ^ x20: .cfa -16 + ^ .ra: .cfa -24 + ^ x29: .cfa -32 + ^
STACK CFI INIT 5d2c 164 .cfa: sp 0 +
STACK CFI 5d30 .cfa: sp 112 +
STACK CFI 5d40 .cfa: x29 48 + x19: .cfa -8 + ^ x20: .cfa -16 + ^ x21: .cfa -24 + ^ x22: .cfa -32 + ^ .ra: .cfa -40 + ^ x29: .cfa -48 + ^
STACK CFI 5e2c .cfa: sp 112 +
STACK CFI 5e3c .cfa: sp 0 +
STACK CFI 5e40 .cfa: x29 48 +
STACK CFI INIT 6144 4c4 .cfa: sp 0 +
STACK CFI 6148 .cfa: sp 320 +
STACK CFI 6164 .cfa: x29 96 + x19: .cfa -8 + ^ x20: .cfa -16 + ^ x21: .cfa -24 + ^ x22: .cfa -32 + ^ x23: .cfa -40 + ^ x24: .cfa -48 + ^ x25: .cfa -56 + ^ x26: .cfa -64 + ^ x27: .cfa -72 + ^ x28: .cfa -80 + ^ .ra: .cfa -88 + ^ x29: .cfa -96 + ^
STACK CFI 64bc .cfa: sp 320 +
STACK CFI 64d8 .cfa: sp 0 +
STACK CFI 64dc .cfa: x29 96 +
STACK CFI INIT 6658 74 .cfa: sp 0 +
STACK CFI 665c .cfa: sp 48 +
STACK CFI 6668 .cfa: x29 32 + x19: .cfa -8 + ^ x20: .cfa -16 + ^ .ra: .cfa -24 + ^ x29: .cfa -32 + ^
STACK CFI 66b4 .cfa: sp 48 +
STACK CFI 66c0 .cfa: sp 0 +
STACK CFI 66c4 .cfa: x29 32 +
STACK CFI INIT 6b30 154 .cfa: sp 0 +
STACK CFI 6b34 .cfa: sp 384 +
STACK CFI 6b48 .cfa: x29 64 + x19: .cfa -8 + ^ x20: .cfa -16 + ^ x21: .cfa -24 + ^ x22: .cfa -32 + ^ x23: .cfa -40 + ^ x28: .cfa -48 + ^ .ra: .cfa -56 + ^ x29: .cfa -64 + ^
STACK CFI 6c2c .cfa: sp 384 +
STACK CFI 6c40 .cfa: sp 0 +
STACK CFI 6c44 .cfa: x29 64 +
STACK CFI INIT 6cb8 134 .cfa: sp 0 +
STACK CFI 6cbc .cfa: sp 80 +
STACK CFI 6cd0 .cfa: x29 80 + x19: .cfa -8 + ^ x20: .cfa -16 + ^ x21: .cfa -24 + ^ x22: .cfa -32 + ^ x23: .cfa -40 + ^ x24: .cfa -48 + ^ x25: .cfa -56 + ^ x26: .cfa -64 + ^ .ra: .cfa -72 + ^ x29: .cfa -80 + ^
STACK CFI 6da0 .cfa: sp 80 +
STACK CFI 6db4 .cfa: sp 0 +
STACK CFI 6db8 .cfa: x29 80 +
STACK CFI INIT 6e90 1a4 .cfa: sp 0 +
STACK CFI 6e94 .cfa: sp 112 +
STACK CFI 6eac .cfa: x29 80 + x19: .cfa -8 + ^ x20: .cfa -16 + ^ x21: .cfa -24 + ^ x22: .cfa -32 + ^ x23: .cfa -40 + ^ x24: .cfa -48 + ^ x25: .cfa -56 + ^ x26: .cfa -64 + ^ .ra: .cfa -72 + ^ x29: .cfa -80 + ^
STACK CFI 6f9c .cfa: sp 112 +
STACK CFI 6fb4 .cfa: sp 0 +
STACK CFI 6fb8 .cfa: x29 80 +
STACK CFI INIT 7034 1ec .cfa: sp 0 +
STACK CFI 7038 .cfa: sp 128 +
STACK CFI 7054 .cfa: x29 96 + x19: .cfa -8 + ^ x20: .cfa -16 + ^ x21: .cfa -24 + ^ x22: .cfa -32 + ^ x23: .cfa -40 + ^ x24: .cfa -48 + ^ x25: .cfa -56 + ^ x26: .cfa -64 + ^ x27: .cfa -80 + ^ .ra: .cfa -88 + ^ x29: .cfa -96 + ^
STACK CFI 71d0 .cfa: sp 128 +
STACK CFI 71ec .cfa: sp 0 +
STACK CFI 71f0 .cfa: x29 96 +
STACK CFI INIT 7220 170 .cfa: sp 0 +
STACK CFI 7224 .cfa: sp 48 +
STACK CFI 7230 .cfa: x29 48 + x19: .cfa -8 + ^ x20: .cfa -16 + ^ x21: .cfa -32 + ^ .ra: .cfa -40 + ^ x29: .cfa -48 + ^
STACK CFI 7364 .cfa: sp 48 +
STACK CFI 7370 .cfa: sp 0 +
STACK CFI 7374 .cfa: x29 48 +
STACK CFI INIT 7690 138 .cfa: sp 0 +
STACK CFI 7694 .cfa: sp 48 +
STACK CFI 76a0 .cfa: x29 32 + x19: .cfa -16 + ^ .ra: .cfa -24 + ^ x29: .cfa -32 + ^ v8: .cfa -40 + ^ v9: .cfa -48 + ^
STACK CFI 76d4 .cfa: sp 48 +
STACK CFI 76e0 .cfa: sp 0 +
STACK CFI 76e4 .cfa: x29 32 +
STACK CFI 76ec .cfa: sp 48 +
STACK CFI 76f8 .cfa: sp 0 +
STACK CFI 76fc .cfa: x29 32 +
STACK CFI 7760 .cfa: sp 48 +
STACK CFI 776c .cfa: sp 0 +
STACK CFI 7770 .cfa: x29 32 +
STACK CFI INIT 787c 124 .cfa: sp 0 +
STACK CFI 7880 .cfa: sp 48 +
STACK CFI 788c .cfa: x29 32 + x19: .cfa -8 + ^ x20: .cfa -16 + ^ .ra: .cfa -24 + ^ x29: .cfa -32 + ^ v8: .cfa -40 + ^ v9: .cfa -48 + ^
STACK CFI 793c .cfa: sp 48 +
STACK CFI 7948 .cfa: sp 0 +
STACK CFI 794c .cfa: x29 32 +
