MODULE Linux arm64 AEECE6EF9161DF77E02933E9D7831A930 alphalaneous.asyncweb.android64.so
INFO CODE_ID EFE6ECAE619177DFE02933E9D7831A93C71D9D1B
INFO GENERATOR mozilla/dump_syms 2.3.4
PUBLIC 6030 0 __on_dlclose
PUBLIC 6040 0 __emutls_unregister_key
PUBLIC 6048 0 __on_dlclose_late
PUBLIC 6050 0 __atexit_handler_wrapper
PUBLIC 6064 0 atexit
PUBLIC 6080 0 pthread_atfork
PUBLIC 6090 0 __aarch64_ldadd8_relax
PUBLIC 60c0 0 init_have_lse_atomics
PUBLIC 6158 0 __init_cpu_features_constructor
PUBLIC 6404 0 __init_cpu_features
PUBLIC 6490 0 __aarch64_ldadd8_acq_rel
PUBLIC 64c0 0 std::__ndk1::map<cocos2d::extension::CCHttpRequest*, std::__ndk1::shared_ptr<geode::EventListener<geode::Task<geode::utils::web::WebResponse, geode::utils::web::WebProgress> > >, std::__ndk1::less<cocos2d::extension::CCHttpRequest*>, std::__ndk1::allocator<std::__ndk1::pair<cocos2d::extension::CCHttpRequest* const, std::__ndk1::shared_ptr<geode::EventListener<geode::Task<geode::utils::web::WebResponse, geode::utils::web::WebProgress> > > > > >::~map[abi:ne190000]()
PUBLIC 64c8 0 __cxx_global_var_init.1
PUBLIC 6c58 0 geode::modifier::ModifyBase<geode::modifier::ModifyDerive<MyCCHttpClient, cocos2d::extension::CCHttpClient> >::~ModifyBase()
PUBLIC 6c70 0 __clang_call_terminate
PUBLIC 6c80 0 std::__ndk1::__tree<std::__ndk1::__value_type<cocos2d::extension::CCHttpRequest*, std::__ndk1::shared_ptr<geode::EventListener<geode::Task<geode::utils::web::WebResponse, geode::utils::web::WebProgress> > > >, std::__ndk1::__map_value_compare<cocos2d::extension::CCHttpRequest*, std::__ndk1::__value_type<cocos2d::extension::CCHttpRequest*, std::__ndk1::shared_ptr<geode::EventListener<geode::Task<geode::utils::web::WebResponse, geode::utils::web::WebProgress> > > >, std::__ndk1::less<cocos2d::extension::CCHttpRequest*>, true>, std::__ndk1::allocator<std::__ndk1::__value_type<cocos2d::extension::CCHttpRequest*, std::__ndk1::shared_ptr<geode::EventListener<geode::Task<geode::utils::web::WebResponse, geode::utils::web::WebProgress> > > > > >::destroy(std::__ndk1::__tree_node<std::__ndk1::__value_type<cocos2d::extension::CCHttpRequest*, std::__ndk1::shared_ptr<geode::EventListener<geode::Task<geode::utils::web::WebResponse, geode::utils::web::WebProgress> > > >, void*>*)
PUBLIC 6cf8 0 geode::modifier::ModifyDerive<MyCCHttpClient, cocos2d::extension::CCHttpClient>::apply()
PUBLIC 716c 0 std::__ndk1::shared_ptr<geode::Hook>::~shared_ptr[abi:ne190000]()
PUBLIC 71bc 0 geode::impl::ResultData<geode::Hook*, std::__ndk1::basic_string<char, std::__ndk1::char_traits<char>, std::__ndk1::allocator<char> > >::~ResultData()
PUBLIC 7230 0 std::__ndk1::vector<std::__ndk1::basic_string<char, std::__ndk1::char_traits<char>, std::__ndk1::allocator<char> >, std::__ndk1::allocator<std::__ndk1::basic_string<char, std::__ndk1::char_traits<char>, std::__ndk1::allocator<char> > > >::~vector[abi:ne190000]()
PUBLIC 72ac 0 geode::modifier::ModifyBase<geode::modifier::ModifyDerive<MyCCHttpClient, cocos2d::extension::CCHttpClient> >::apply()
PUBLIC 72b0 0 _ZN5geode15UnwrapExceptionC2IRPNS_4HookEQsr4implE18IsStringStreamableIT_EEENS_4impl5OkTagEOS5_
PUBLIC 79cc 0 std::__ndk1::__throw_bad_variant_access[abi:ne190000]()
PUBLIC m 7a00 0 std::__ndk1::basic_stringstream<char, std::__ndk1::char_traits<char>, std::__ndk1::allocator<char> >::~basic_stringstream()
PUBLIC 7a80 0 geode::UnwrapException::~UnwrapException()
PUBLIC 7aa4 0 std::__ndk1::basic_string<char, std::__ndk1::char_traits<char>, std::__ndk1::allocator<char> >::__throw_length_error[abi:ne190000]() const
PUBLIC 7ab8 0 std::__ndk1::__throw_length_error[abi:ne190000](char const*)
PUBLIC 7b08 0 std::length_error::length_error[abi:ne190000](char const*)
PUBLIC 7b38 0 std::__throw_bad_array_new_length([abi:ne190000], void)
PUBLIC 7b6c 0 std::__ndk1::basic_string<char, std::__ndk1::char_traits<char>, std::__ndk1::allocator<char> >::__erase_external_with_move(unsigned long, unsigned long)
PUBLIC 7bf0 0 std::__ndk1::basic_string<char, std::__ndk1::char_traits<char>, std::__ndk1::allocator<char> >::__init_copy_ctor_external(char const*, unsigned long)
PUBLIC 7c80 0 std::__ndk1::__split_buffer<std::__ndk1::basic_string<char, std::__ndk1::char_traits<char>, std::__ndk1::allocator<char> >, std::__ndk1::allocator<std::__ndk1::basic_string<char, std::__ndk1::char_traits<char>, std::__ndk1::allocator<char> > >&>::~__split_buffer()
PUBLIC 7ce8 0 std::__ndk1::vector<std::__ndk1::basic_string<char, std::__ndk1::char_traits<char>, std::__ndk1::allocator<char> >, std::__ndk1::allocator<std::__ndk1::basic_string<char, std::__ndk1::char_traits<char>, std::__ndk1::allocator<char> > > >::__throw_length_error[abi:ne190000]() const
PUBLIC 7cfc 0 std::__ndk1::__variant_detail::__visitation::__base::__dispatcher<(unsigned long)0>::__dispatch[abi:ne190000]<std::__ndk1::__variant_detail::__dtor<std::__ndk1::__variant_detail::__traits<geode::Hook*, std::__ndk1::basic_string<char, std::__ndk1::char_traits<char>, std::__ndk1::allocator<char> > >, (std::__ndk1::__variant_detail::_Trait)1>::__destroy[abi:ne190000]()::{lambda(auto:1&)#1}, std::__ndk1::__variant_detail::__base<(std::__ndk1::__variant_detail::__traits<geode::Hook*, std::__ndk1::basic_string<char, std::__ndk1::char_traits<char>, std::__ndk1::allocator<char> > >)1, geode::Hook, std::__ndk1::allocator<char> >&>(std::__ndk1::__variant_detail::__dtor<std::__ndk1::__variant_detail::__traits<geode::Hook*, std::__ndk1::basic_string<char, std::__ndk1::char_traits<char>, std::__ndk1::allocator<char> > >, (std::__ndk1::__variant_detail::_Trait)1>, std::__ndk1::__variant_detail::__base<(std::__ndk1::__variant_detail::__traits<geode::Hook*, std::__ndk1::basic_string<char, std::__ndk1::char_traits<char>, std::__ndk1::allocator<char> > >)1, geode::Hook, std::__ndk1::allocator<char> >&)
PUBLIC 7d00 0 std::__ndk1::__variant_detail::__visitation::__base::__dispatcher<(unsigned long)1>::__dispatch[abi:ne190000]<std::__ndk1::__variant_detail::__dtor<std::__ndk1::__variant_detail::__traits<geode::Hook*, std::__ndk1::basic_string<char, std::__ndk1::char_traits<char>, std::__ndk1::allocator<char> > >, (std::__ndk1::__variant_detail::_Trait)1>::__destroy[abi:ne190000]()::{lambda(auto:1&)#1}, std::__ndk1::__variant_detail::__base<(std::__ndk1::__variant_detail::__traits<geode::Hook*, std::__ndk1::basic_string<char, std::__ndk1::char_traits<char>, std::__ndk1::allocator<char> > >)1, geode::Hook, std::__ndk1::allocator<char> >&>(std::__ndk1::__variant_detail::__dtor<std::__ndk1::__variant_detail::__traits<geode::Hook*, std::__ndk1::basic_string<char, std::__ndk1::char_traits<char>, std::__ndk1::allocator<char> > >, (std::__ndk1::__variant_detail::_Trait)1>, std::__ndk1::__variant_detail::__base<(std::__ndk1::__variant_detail::__traits<geode::Hook*, std::__ndk1::basic_string<char, std::__ndk1::char_traits<char>, std::__ndk1::allocator<char> > >)1, geode::Hook, std::__ndk1::allocator<char> >&)
PUBLIC 7d14 0 std::__ndk1::__tree_remove[abi:ne190000]<std::__ndk1::__tree_node_base<void*>*>(std::__ndk1::__tree_node_base<void*>*, std::__ndk1::__tree_node_base<void*>*)
PUBLIC 80dc 0 std::__ndk1::__tree<std::__ndk1::__value_type<std::__ndk1::basic_string<char, std::__ndk1::char_traits<char>, std::__ndk1::allocator<char> >, std::__ndk1::shared_ptr<geode::Hook> >, std::__ndk1::__map_value_compare<std::__ndk1::basic_string<char, std::__ndk1::char_traits<char>, std::__ndk1::allocator<char> >, std::__ndk1::__value_type<std::__ndk1::basic_string<char, std::__ndk1::char_traits<char>, std::__ndk1::allocator<char> >, std::__ndk1::shared_ptr<geode::Hook> >, std::__ndk1::less<std::__ndk1::basic_string<char, std::__ndk1::char_traits<char>, std::__ndk1::allocator<char> > >, true>, std::__ndk1::allocator<std::__ndk1::__value_type<std::__ndk1::basic_string<char, std::__ndk1::char_traits<char>, std::__ndk1::allocator<char> >, std::__ndk1::shared_ptr<geode::Hook> > > >::destroy(std::__ndk1::__tree_node<std::__ndk1::__value_type<std::__ndk1::basic_string<char, std::__ndk1::char_traits<char>, std::__ndk1::allocator<char> >, std::__ndk1::shared_ptr<geode::Hook> >, void*>*)
PUBLIC 8160 0 geode::modifier::AsStaticFunction_send<MyCCHttpClient, void (MyCCHttpClient::*)(cocos2d::extension::CCHttpRequest*)>::Impl<void (MyCCHttpClient::*)(cocos2d::extension::CCHttpRequest*)>::function(MyCCHttpClient*, cocos2d::extension::CCHttpRequest*)
PUBLIC 8900 0 std::__ndk1::shared_ptr<tulip::hook::CallingConvention>::~shared_ptr[abi:ne190000]()
PUBLIC 8950 0 tulip::hook::HandlerMetadata::~HandlerMetadata()
PUBLIC 89b4 0 MyCCHttpClient::send(cocos2d::extension::CCHttpRequest*)::{lambda(geode::Task<geode::utils::web::WebResponse, geode::utils::web::WebProgress>::Event*)#1}::~{lambda(geode::Task<geode::utils::web::WebResponse, geode::utils::web::WebProgress>::Event*)#1}()
PUBLIC 8a04 0 geode::Task<geode::utils::web::WebResponse, geode::utils::web::WebProgress>::~Task()
PUBLIC 8a54 0 std::__ndk1::vector<char, std::__ndk1::allocator<char> >::__throw_length_error[abi:ne190000]() const
PUBLIC 8a68 0 std::__ndk1::vector<unsigned char, std::__ndk1::allocator<unsigned char> >::__throw_length_error[abi:ne190000]() const
PUBLIC 8a7c 0 std::__ndk1::__shared_ptr_emplace<geode::EventListener<geode::Task<geode::utils::web::WebResponse, geode::utils::web::WebProgress> >, std::__ndk1::allocator<geode::EventListener<geode::Task<geode::utils::web::WebResponse, geode::utils::web::WebProgress> > > >::~__shared_ptr_emplace()
PUBLIC 8a8c 0 std::__ndk1::__shared_ptr_emplace<geode::EventListener<geode::Task<geode::utils::web::WebResponse, geode::utils::web::WebProgress> >, std::__ndk1::allocator<geode::EventListener<geode::Task<geode::utils::web::WebResponse, geode::utils::web::WebProgress> > > >::~__shared_ptr_emplace()
PUBLIC 8abc 0 std::__ndk1::__shared_ptr_emplace<geode::EventListener<geode::Task<geode::utils::web::WebResponse, geode::utils::web::WebProgress> >, std::__ndk1::allocator<geode::EventListener<geode::Task<geode::utils::web::WebResponse, geode::utils::web::WebProgress> > > >::__on_zero_shared()
PUBLIC 8ac8 0 std::__ndk1::__shared_ptr_emplace<geode::EventListener<geode::Task<geode::utils::web::WebResponse, geode::utils::web::WebProgress> >, std::__ndk1::allocator<geode::EventListener<geode::Task<geode::utils::web::WebResponse, geode::utils::web::WebProgress> > > >::__on_zero_shared_weak()
PUBLIC 8acc 0 geode::Task<geode::utils::web::WebResponse, geode::utils::web::WebProgress>::setListener(geode::EventListenerProtocol*)
PUBLIC 8cd0 0 geode::EventListener<geode::Task<geode::utils::web::WebResponse, geode::utils::web::WebProgress> >::getPool() const
PUBLIC 8cd4 0 geode::EventListener<geode::Task<geode::utils::web::WebResponse, geode::utils::web::WebProgress> >::handle(geode::Event*)
PUBLIC 8e78 0 geode::EventListener<geode::Task<geode::utils::web::WebResponse, geode::utils::web::WebProgress> >::~EventListener()
PUBLIC 8f14 0 geode::EventListener<geode::Task<geode::utils::web::WebResponse, geode::utils::web::WebProgress> >::~EventListener()
PUBLIC 8fb8 0 geode::Task<geode::utils::web::WebResponse, geode::utils::web::WebProgress>::setListener(geode::EventListenerProtocol*)::{lambda()#1}::~{lambda()#1}()
PUBLIC 9008 0 geode::Task<geode::utils::web::WebResponse, geode::utils::web::WebProgress>::setListener(geode::EventListenerProtocol*)::{lambda()#2}::~{lambda()#2}()
PUBLIC 9058 0 std::__ndk1::__function::__func<geode::Task<geode::utils::web::WebResponse, geode::utils::web::WebProgress>::setListener(geode::EventListenerProtocol*)::{lambda()#1}, std::__ndk1::allocator<geode::Task<geode::utils::web::WebResponse, geode::utils::web::WebProgress>::setListener(geode::EventListenerProtocol*)::{lambda()#1}>, void ()>::~__func()
PUBLIC 90b4 0 std::__ndk1::__function::__func<geode::Task<geode::utils::web::WebResponse, geode::utils::web::WebProgress>::setListener(geode::EventListenerProtocol*)::{lambda()#1}, std::__ndk1::allocator<geode::Task<geode::utils::web::WebResponse, geode::utils::web::WebProgress>::setListener(geode::EventListenerProtocol*)::{lambda()#1}>, void ()>::~__func()
PUBLIC 9120 0 std::__ndk1::__function::__func<geode::Task<geode::utils::web::WebResponse, geode::utils::web::WebProgress>::setListener(geode::EventListenerProtocol*)::{lambda()#1}, std::__ndk1::allocator<geode::Task<geode::utils::web::WebResponse, geode::utils::web::WebProgress>::setListener(geode::EventListenerProtocol*)::{lambda()#1}>, void ()>::__clone() const
PUBLIC 9178 0 std::__ndk1::__function::__func<geode::Task<geode::utils::web::WebResponse, geode::utils::web::WebProgress>::setListener(geode::EventListenerProtocol*)::{lambda()#1}, std::__ndk1::allocator<geode::Task<geode::utils::web::WebResponse, geode::utils::web::WebProgress>::setListener(geode::EventListenerProtocol*)::{lambda()#1}>, void ()>::__clone(std::__ndk1::__function::__base<void ()>*) const
PUBLIC 91c4 0 std::__ndk1::__function::__func<geode::Task<geode::utils::web::WebResponse, geode::utils::web::WebProgress>::setListener(geode::EventListenerProtocol*)::{lambda()#1}, std::__ndk1::allocator<geode::Task<geode::utils::web::WebResponse, geode::utils::web::WebProgress>::setListener(geode::EventListenerProtocol*)::{lambda()#1}>, void ()>::destroy()
PUBLIC 9214 0 std::__ndk1::__function::__func<geode::Task<geode::utils::web::WebResponse, geode::utils::web::WebProgress>::setListener(geode::EventListenerProtocol*)::{lambda()#1}, std::__ndk1::allocator<geode::Task<geode::utils::web::WebResponse, geode::utils::web::WebProgress>::setListener(geode::EventListenerProtocol*)::{lambda()#1}>, void ()>::destroy_deallocate()
PUBLIC 9274 0 std::__ndk1::__function::__func<geode::Task<geode::utils::web::WebResponse, geode::utils::web::WebProgress>::setListener(geode::EventListenerProtocol*)::{lambda()#1}, std::__ndk1::allocator<geode::Task<geode::utils::web::WebResponse, geode::utils::web::WebProgress>::setListener(geode::EventListenerProtocol*)::{lambda()#1}>, void ()>::operator()()
PUBLIC 940c 0 std::__ndk1::__function::__func<geode::Task<geode::utils::web::WebResponse, geode::utils::web::WebProgress>::setListener(geode::EventListenerProtocol*)::{lambda()#1}, std::__ndk1::allocator<geode::Task<geode::utils::web::WebResponse, geode::utils::web::WebProgress>::setListener(geode::EventListenerProtocol*)::{lambda()#1}>, void ()>::target(std::type_info const&) const
PUBLIC 9428 0 std::__ndk1::__function::__func<geode::Task<geode::utils::web::WebResponse, geode::utils::web::WebProgress>::setListener(geode::EventListenerProtocol*)::{lambda()#1}, std::__ndk1::allocator<geode::Task<geode::utils::web::WebResponse, geode::utils::web::WebProgress>::setListener(geode::EventListenerProtocol*)::{lambda()#1}>, void ()>::target_type() const
PUBLIC 9434 0 std::__ndk1::shared_ptr<geode::Task<geode::utils::web::WebResponse, geode::utils::web::WebProgress>::Handle>::~shared_ptr[abi:ne190000]()
PUBLIC 9484 0 geode::Task<geode::utils::web::WebResponse, geode::utils::web::WebProgress>::Event::~Event()
PUBLIC 94e4 0 geode::Task<geode::utils::web::WebResponse, geode::utils::web::WebProgress>::Event::~Event()
PUBLIC 9554 0 std::__ndk1::__function::__func<geode::Task<geode::utils::web::WebResponse, geode::utils::web::WebProgress>::setListener(geode::EventListenerProtocol*)::{lambda()#2}, std::__ndk1::allocator<geode::Task<geode::utils::web::WebResponse, geode::utils::web::WebProgress>::setListener(geode::EventListenerProtocol*)::{lambda()#2}>, void ()>::~__func()
PUBLIC 95b0 0 std::__ndk1::__function::__func<geode::Task<geode::utils::web::WebResponse, geode::utils::web::WebProgress>::setListener(geode::EventListenerProtocol*)::{lambda()#2}, std::__ndk1::allocator<geode::Task<geode::utils::web::WebResponse, geode::utils::web::WebProgress>::setListener(geode::EventListenerProtocol*)::{lambda()#2}>, void ()>::~__func()
PUBLIC 961c 0 std::__ndk1::__function::__func<geode::Task<geode::utils::web::WebResponse, geode::utils::web::WebProgress>::setListener(geode::EventListenerProtocol*)::{lambda()#2}, std::__ndk1::allocator<geode::Task<geode::utils::web::WebResponse, geode::utils::web::WebProgress>::setListener(geode::EventListenerProtocol*)::{lambda()#2}>, void ()>::__clone() const
PUBLIC 9674 0 std::__ndk1::__function::__func<geode::Task<geode::utils::web::WebResponse, geode::utils::web::WebProgress>::setListener(geode::EventListenerProtocol*)::{lambda()#2}, std::__ndk1::allocator<geode::Task<geode::utils::web::WebResponse, geode::utils::web::WebProgress>::setListener(geode::EventListenerProtocol*)::{lambda()#2}>, void ()>::__clone(std::__ndk1::__function::__base<void ()>*) const
PUBLIC 96c0 0 std::__ndk1::__function::__func<geode::Task<geode::utils::web::WebResponse, geode::utils::web::WebProgress>::setListener(geode::EventListenerProtocol*)::{lambda()#2}, std::__ndk1::allocator<geode::Task<geode::utils::web::WebResponse, geode::utils::web::WebProgress>::setListener(geode::EventListenerProtocol*)::{lambda()#2}>, void ()>::destroy()
PUBLIC 9710 0 std::__ndk1::__function::__func<geode::Task<geode::utils::web::WebResponse, geode::utils::web::WebProgress>::setListener(geode::EventListenerProtocol*)::{lambda()#2}, std::__ndk1::allocator<geode::Task<geode::utils::web::WebResponse, geode::utils::web::WebProgress>::setListener(geode::EventListenerProtocol*)::{lambda()#2}>, void ()>::destroy_deallocate()
PUBLIC 9770 0 std::__ndk1::__function::__func<geode::Task<geode::utils::web::WebResponse, geode::utils::web::WebProgress>::setListener(geode::EventListenerProtocol*)::{lambda()#2}, std::__ndk1::allocator<geode::Task<geode::utils::web::WebResponse, geode::utils::web::WebProgress>::setListener(geode::EventListenerProtocol*)::{lambda()#2}>, void ()>::operator()()
PUBLIC 98f8 0 std::__ndk1::__function::__func<geode::Task<geode::utils::web::WebResponse, geode::utils::web::WebProgress>::setListener(geode::EventListenerProtocol*)::{lambda()#2}, std::__ndk1::allocator<geode::Task<geode::utils::web::WebResponse, geode::utils::web::WebProgress>::setListener(geode::EventListenerProtocol*)::{lambda()#2}>, void ()>::target(std::type_info const&) const
PUBLIC 9914 0 std::__ndk1::__function::__func<geode::Task<geode::utils::web::WebResponse, geode::utils::web::WebProgress>::setListener(geode::EventListenerProtocol*)::{lambda()#2}, std::__ndk1::allocator<geode::Task<geode::utils::web::WebResponse, geode::utils::web::WebProgress>::setListener(geode::EventListenerProtocol*)::{lambda()#2}>, void ()>::target_type() const
PUBLIC 9920 0 geode::cast::traverseTypeinfoFor(void*, geode::cast::ClassTypeinfoType const*, char const*)
PUBLIC 9a1c 0 std::__ndk1::__throw_bad_function_call[abi:ne190000]()
PUBLIC 9a50 0 std::__ndk1::bad_function_call::~bad_function_call()
PUBLIC 9a74 0 std::__ndk1::__tree_balance_after_insert[abi:ne190000]<std::__ndk1::__tree_node_base<void*>*>(std::__ndk1::__tree_node_base<void*>*, std::__ndk1::__tree_node_base<void*>*)
PUBLIC 9c1c 0 cocos2d::CCCopying::copyWithZone(cocos2d::CCZone*)
PUBLIC 9c24 0 cocos2d::extension::CCHttpResponse::~CCHttpResponse()
PUBLIC 9c80 0 cocos2d::extension::CCHttpResponse::~CCHttpResponse()
PUBLIC 9ce4 0 cocos2d::CCObject::update(float)
PUBLIC 9ce8 0 std::__ndk1::__function::__func<MyCCHttpClient::send(cocos2d::extension::CCHttpRequest*)::{lambda(geode::Task<geode::utils::web::WebResponse, geode::utils::web::WebProgress>::Event*)#1}, std::__ndk1::allocator<MyCCHttpClient::send(cocos2d::extension::CCHttpRequest*)::{lambda(geode::Task<geode::utils::web::WebResponse, geode::utils::web::WebProgress>::Event*)#1}>, void (geode::Task<geode::utils::web::WebResponse, geode::utils::web::WebProgress>::Event*)>::~__func()
PUBLIC 9d44 0 std::__ndk1::__function::__func<MyCCHttpClient::send(cocos2d::extension::CCHttpRequest*)::{lambda(geode::Task<geode::utils::web::WebResponse, geode::utils::web::WebProgress>::Event*)#1}, std::__ndk1::allocator<MyCCHttpClient::send(cocos2d::extension::CCHttpRequest*)::{lambda(geode::Task<geode::utils::web::WebResponse, geode::utils::web::WebProgress>::Event*)#1}>, void (geode::Task<geode::utils::web::WebResponse, geode::utils::web::WebProgress>::Event*)>::~__func()
PUBLIC 9db0 0 std::__ndk1::__function::__func<MyCCHttpClient::send(cocos2d::extension::CCHttpRequest*)::{lambda(geode::Task<geode::utils::web::WebResponse, geode::utils::web::WebProgress>::Event*)#1}, std::__ndk1::allocator<MyCCHttpClient::send(cocos2d::extension::CCHttpRequest*)::{lambda(geode::Task<geode::utils::web::WebResponse, geode::utils::web::WebProgress>::Event*)#1}>, void (geode::Task<geode::utils::web::WebResponse, geode::utils::web::WebProgress>::Event*)>::__clone() const
PUBLIC 9e10 0 std::__ndk1::__function::__func<MyCCHttpClient::send(cocos2d::extension::CCHttpRequest*)::{lambda(geode::Task<geode::utils::web::WebResponse, geode::utils::web::WebProgress>::Event*)#1}, std::__ndk1::allocator<MyCCHttpClient::send(cocos2d::extension::CCHttpRequest*)::{lambda(geode::Task<geode::utils::web::WebResponse, geode::utils::web::WebProgress>::Event*)#1}>, void (geode::Task<geode::utils::web::WebResponse, geode::utils::web::WebProgress>::Event*)>::__clone(std::__ndk1::__function::__base<void (geode::Task<geode::utils::web::WebResponse, geode::utils::web::WebProgress>::Event*)>*) const
PUBLIC 9e64 0 std::__ndk1::__function::__func<MyCCHttpClient::send(cocos2d::extension::CCHttpRequest*)::{lambda(geode::Task<geode::utils::web::WebResponse, geode::utils::web::WebProgress>::Event*)#1}, std::__ndk1::allocator<MyCCHttpClient::send(cocos2d::extension::CCHttpRequest*)::{lambda(geode::Task<geode::utils::web::WebResponse, geode::utils::web::WebProgress>::Event*)#1}>, void (geode::Task<geode::utils::web::WebResponse, geode::utils::web::WebProgress>::Event*)>::destroy()
PUBLIC 9eb4 0 std::__ndk1::__function::__func<MyCCHttpClient::send(cocos2d::extension::CCHttpRequest*)::{lambda(geode::Task<geode::utils::web::WebResponse, geode::utils::web::WebProgress>::Event*)#1}, std::__ndk1::allocator<MyCCHttpClient::send(cocos2d::extension::CCHttpRequest*)::{lambda(geode::Task<geode::utils::web::WebResponse, geode::utils::web::WebProgress>::Event*)#1}>, void (geode::Task<geode::utils::web::WebResponse, geode::utils::web::WebProgress>::Event*)>::destroy_deallocate()
PUBLIC 9f14 0 std::__ndk1::__function::__func<MyCCHttpClient::send(cocos2d::extension::CCHttpRequest*)::{lambda(geode::Task<geode::utils::web::WebResponse, geode::utils::web::WebProgress>::Event*)#1}, std::__ndk1::allocator<MyCCHttpClient::send(cocos2d::extension::CCHttpRequest*)::{lambda(geode::Task<geode::utils::web::WebResponse, geode::utils::web::WebProgress>::Event*)#1}>, void (geode::Task<geode::utils::web::WebResponse, geode::utils::web::WebProgress>::Event*)>::operator()(geode::Task<geode::utils::web::WebResponse, geode::utils::web::WebProgress>::Event*&&)
PUBLIC a2e8 0 std::__ndk1::__function::__func<MyCCHttpClient::send(cocos2d::extension::CCHttpRequest*)::{lambda(geode::Task<geode::utils::web::WebResponse, geode::utils::web::WebProgress>::Event*)#1}, std::__ndk1::allocator<MyCCHttpClient::send(cocos2d::extension::CCHttpRequest*)::{lambda(geode::Task<geode::utils::web::WebResponse, geode::utils::web::WebProgress>::Event*)#1}>, void (geode::Task<geode::utils::web::WebResponse, geode::utils::web::WebProgress>::Event*)>::target(std::type_info const&) const
PUBLIC a304 0 std::__ndk1::__function::__func<MyCCHttpClient::send(cocos2d::extension::CCHttpRequest*)::{lambda(geode::Task<geode::utils::web::WebResponse, geode::utils::web::WebProgress>::Event*)#1}, std::__ndk1::allocator<MyCCHttpClient::send(cocos2d::extension::CCHttpRequest*)::{lambda(geode::Task<geode::utils::web::WebResponse, geode::utils::web::WebProgress>::Event*)#1}>, void (geode::Task<geode::utils::web::WebResponse, geode::utils::web::WebProgress>::Event*)>::target_type() const
PUBLIC a310 0 MyCCHttpClient::send(cocos2d::extension::CCHttpRequest*)::{lambda(geode::Task<geode::utils::web::WebResponse, geode::utils::web::WebProgress>::Event*)#1}::operator()(geode::Task<geode::utils::web::WebResponse, geode::utils::web::WebProgress>::Event*) const::{lambda()#1}::~{lambda()#1}()
PUBLIC a360 0 std::__ndk1::__function::__func<MyCCHttpClient::send(cocos2d::extension::CCHttpRequest*)::{lambda(geode::Task<geode::utils::web::WebResponse, geode::utils::web::WebProgress>::Event*)#1}::operator()(geode::Task<geode::utils::web::WebResponse, geode::utils::web::WebProgress>::Event*) const::{lambda()#1}, std::__ndk1::allocator<MyCCHttpClient::send(cocos2d::extension::CCHttpRequest*)::{lambda(geode::Task<geode::utils::web::WebResponse, geode::utils::web::WebProgress>::Event*)#1}::operator()(geode::Task<geode::utils::web::WebResponse, geode::utils::web::WebProgress>::Event*) const::{lambda()#1}>, void ()>::~__func()
PUBLIC a3bc 0 std::__ndk1::__function::__func<MyCCHttpClient::send(cocos2d::extension::CCHttpRequest*)::{lambda(geode::Task<geode::utils::web::WebResponse, geode::utils::web::WebProgress>::Event*)#1}::operator()(geode::Task<geode::utils::web::WebResponse, geode::utils::web::WebProgress>::Event*) const::{lambda()#1}, std::__ndk1::allocator<MyCCHttpClient::send(cocos2d::extension::CCHttpRequest*)::{lambda(geode::Task<geode::utils::web::WebResponse, geode::utils::web::WebProgress>::Event*)#1}::operator()(geode::Task<geode::utils::web::WebResponse, geode::utils::web::WebProgress>::Event*) const::{lambda()#1}>, void ()>::~__func()
PUBLIC a428 0 std::__ndk1::__function::__func<MyCCHttpClient::send(cocos2d::extension::CCHttpRequest*)::{lambda(geode::Task<geode::utils::web::WebResponse, geode::utils::web::WebProgress>::Event*)#1}::operator()(geode::Task<geode::utils::web::WebResponse, geode::utils::web::WebProgress>::Event*) const::{lambda()#1}, std::__ndk1::allocator<MyCCHttpClient::send(cocos2d::extension::CCHttpRequest*)::{lambda(geode::Task<geode::utils::web::WebResponse, geode::utils::web::WebProgress>::Event*)#1}::operator()(geode::Task<geode::utils::web::WebResponse, geode::utils::web::WebProgress>::Event*) const::{lambda()#1}>, void ()>::__clone() const
PUBLIC a490 0 std::__ndk1::__function::__func<MyCCHttpClient::send(cocos2d::extension::CCHttpRequest*)::{lambda(geode::Task<geode::utils::web::WebResponse, geode::utils::web::WebProgress>::Event*)#1}::operator()(geode::Task<geode::utils::web::WebResponse, geode::utils::web::WebProgress>::Event*) const::{lambda()#1}, std::__ndk1::allocator<MyCCHttpClient::send(cocos2d::extension::CCHttpRequest*)::{lambda(geode::Task<geode::utils::web::WebResponse, geode::utils::web::WebProgress>::Event*)#1}::operator()(geode::Task<geode::utils::web::WebResponse, geode::utils::web::WebProgress>::Event*) const::{lambda()#1}>, void ()>::__clone(std::__ndk1::__function::__base<void ()>*) const
PUBLIC a4ec 0 std::__ndk1::__function::__func<MyCCHttpClient::send(cocos2d::extension::CCHttpRequest*)::{lambda(geode::Task<geode::utils::web::WebResponse, geode::utils::web::WebProgress>::Event*)#1}::operator()(geode::Task<geode::utils::web::WebResponse, geode::utils::web::WebProgress>::Event*) const::{lambda()#1}, std::__ndk1::allocator<MyCCHttpClient::send(cocos2d::extension::CCHttpRequest*)::{lambda(geode::Task<geode::utils::web::WebResponse, geode::utils::web::WebProgress>::Event*)#1}::operator()(geode::Task<geode::utils::web::WebResponse, geode::utils::web::WebProgress>::Event*) const::{lambda()#1}>, void ()>::destroy()
PUBLIC a53c 0 std::__ndk1::__function::__func<MyCCHttpClient::send(cocos2d::extension::CCHttpRequest*)::{lambda(geode::Task<geode::utils::web::WebResponse, geode::utils::web::WebProgress>::Event*)#1}::operator()(geode::Task<geode::utils::web::WebResponse, geode::utils::web::WebProgress>::Event*) const::{lambda()#1}, std::__ndk1::allocator<MyCCHttpClient::send(cocos2d::extension::CCHttpRequest*)::{lambda(geode::Task<geode::utils::web::WebResponse, geode::utils::web::WebProgress>::Event*)#1}::operator()(geode::Task<geode::utils::web::WebResponse, geode::utils::web::WebProgress>::Event*) const::{lambda()#1}>, void ()>::destroy_deallocate()
PUBLIC a59c 0 std::__ndk1::__function::__func<MyCCHttpClient::send(cocos2d::extension::CCHttpRequest*)::{lambda(geode::Task<geode::utils::web::WebResponse, geode::utils::web::WebProgress>::Event*)#1}::operator()(geode::Task<geode::utils::web::WebResponse, geode::utils::web::WebProgress>::Event*) const::{lambda()#1}, std::__ndk1::allocator<MyCCHttpClient::send(cocos2d::extension::CCHttpRequest*)::{lambda(geode::Task<geode::utils::web::WebResponse, geode::utils::web::WebProgress>::Event*)#1}::operator()(geode::Task<geode::utils::web::WebResponse, geode::utils::web::WebProgress>::Event*) const::{lambda()#1}>, void ()>::operator()()
PUBLIC a874 0 std::__ndk1::__function::__func<MyCCHttpClient::send(cocos2d::extension::CCHttpRequest*)::{lambda(geode::Task<geode::utils::web::WebResponse, geode::utils::web::WebProgress>::Event*)#1}::operator()(geode::Task<geode::utils::web::WebResponse, geode::utils::web::WebProgress>::Event*) const::{lambda()#1}, std::__ndk1::allocator<MyCCHttpClient::send(cocos2d::extension::CCHttpRequest*)::{lambda(geode::Task<geode::utils::web::WebResponse, geode::utils::web::WebProgress>::Event*)#1}::operator()(geode::Task<geode::utils::web::WebResponse, geode::utils::web::WebProgress>::Event*) const::{lambda()#1}>, void ()>::target(std::type_info const&) const
PUBLIC a890 0 std::__ndk1::__function::__func<MyCCHttpClient::send(cocos2d::extension::CCHttpRequest*)::{lambda(geode::Task<geode::utils::web::WebResponse, geode::utils::web::WebProgress>::Event*)#1}::operator()(geode::Task<geode::utils::web::WebResponse, geode::utils::web::WebProgress>::Event*) const::{lambda()#1}, std::__ndk1::allocator<MyCCHttpClient::send(cocos2d::extension::CCHttpRequest*)::{lambda(geode::Task<geode::utils::web::WebResponse, geode::utils::web::WebProgress>::Event*)#1}::operator()(geode::Task<geode::utils::web::WebResponse, geode::utils::web::WebProgress>::Event*) const::{lambda()#1}>, void ()>::target_type() const
PUBLIC a89c 0 std::__ndk1::__function::__func<geode::Task<geode::utils::web::WebResponse, geode::utils::web::WebProgress>::cancel(std::__ndk1::shared_ptr<geode::Task<geode::utils::web::WebResponse, geode::utils::web::WebProgress>::Handle>, bool)::{lambda()#1}, std::__ndk1::allocator<geode::Task<geode::utils::web::WebResponse, geode::utils::web::WebProgress>::cancel(std::__ndk1::shared_ptr<geode::Task<geode::utils::web::WebResponse, geode::utils::web::WebProgress>::Handle>, bool)::{lambda()#1}>, void ()>::~__func()
PUBLIC a8f8 0 std::__ndk1::__function::__func<geode::Task<geode::utils::web::WebResponse, geode::utils::web::WebProgress>::cancel(std::__ndk1::shared_ptr<geode::Task<geode::utils::web::WebResponse, geode::utils::web::WebProgress>::Handle>, bool)::{lambda()#1}, std::__ndk1::allocator<geode::Task<geode::utils::web::WebResponse, geode::utils::web::WebProgress>::cancel(std::__ndk1::shared_ptr<geode::Task<geode::utils::web::WebResponse, geode::utils::web::WebProgress>::Handle>, bool)::{lambda()#1}>, void ()>::~__func()
PUBLIC a964 0 std::__ndk1::__function::__func<geode::Task<geode::utils::web::WebResponse, geode::utils::web::WebProgress>::cancel(std::__ndk1::shared_ptr<geode::Task<geode::utils::web::WebResponse, geode::utils::web::WebProgress>::Handle>, bool)::{lambda()#1}, std::__ndk1::allocator<geode::Task<geode::utils::web::WebResponse, geode::utils::web::WebProgress>::cancel(std::__ndk1::shared_ptr<geode::Task<geode::utils::web::WebResponse, geode::utils::web::WebProgress>::Handle>, bool)::{lambda()#1}>, void ()>::__clone() const
PUBLIC a9b4 0 std::__ndk1::__function::__func<geode::Task<geode::utils::web::WebResponse, geode::utils::web::WebProgress>::cancel(std::__ndk1::shared_ptr<geode::Task<geode::utils::web::WebResponse, geode::utils::web::WebProgress>::Handle>, bool)::{lambda()#1}, std::__ndk1::allocator<geode::Task<geode::utils::web::WebResponse, geode::utils::web::WebProgress>::cancel(std::__ndk1::shared_ptr<geode::Task<geode::utils::web::WebResponse, geode::utils::web::WebProgress>::Handle>, bool)::{lambda()#1}>, void ()>::__clone(std::__ndk1::__function::__base<void ()>*) const
PUBLIC a9e8 0 std::__ndk1::__function::__func<geode::Task<geode::utils::web::WebResponse, geode::utils::web::WebProgress>::cancel(std::__ndk1::shared_ptr<geode::Task<geode::utils::web::WebResponse, geode::utils::web::WebProgress>::Handle>, bool)::{lambda()#1}, std::__ndk1::allocator<geode::Task<geode::utils::web::WebResponse, geode::utils::web::WebProgress>::cancel(std::__ndk1::shared_ptr<geode::Task<geode::utils::web::WebResponse, geode::utils::web::WebProgress>::Handle>, bool)::{lambda()#1}>, void ()>::destroy()
PUBLIC aa38 0 std::__ndk1::__function::__func<geode::Task<geode::utils::web::WebResponse, geode::utils::web::WebProgress>::cancel(std::__ndk1::shared_ptr<geode::Task<geode::utils::web::WebResponse, geode::utils::web::WebProgress>::Handle>, bool)::{lambda()#1}, std::__ndk1::allocator<geode::Task<geode::utils::web::WebResponse, geode::utils::web::WebProgress>::cancel(std::__ndk1::shared_ptr<geode::Task<geode::utils::web::WebResponse, geode::utils::web::WebProgress>::Handle>, bool)::{lambda()#1}>, void ()>::destroy_deallocate()
PUBLIC aa98 0 std::__ndk1::__function::__func<geode::Task<geode::utils::web::WebResponse, geode::utils::web::WebProgress>::cancel(std::__ndk1::shared_ptr<geode::Task<geode::utils::web::WebResponse, geode::utils::web::WebProgress>::Handle>, bool)::{lambda()#1}, std::__ndk1::allocator<geode::Task<geode::utils::web::WebResponse, geode::utils::web::WebProgress>::cancel(std::__ndk1::shared_ptr<geode::Task<geode::utils::web::WebResponse, geode::utils::web::WebProgress>::Handle>, bool)::{lambda()#1}>, void ()>::operator()()
PUBLIC ac34 0 std::__ndk1::__function::__func<geode::Task<geode::utils::web::WebResponse, geode::utils::web::WebProgress>::cancel(std::__ndk1::shared_ptr<geode::Task<geode::utils::web::WebResponse, geode::utils::web::WebProgress>::Handle>, bool)::{lambda()#1}, std::__ndk1::allocator<geode::Task<geode::utils::web::WebResponse, geode::utils::web::WebProgress>::cancel(std::__ndk1::shared_ptr<geode::Task<geode::utils::web::WebResponse, geode::utils::web::WebProgress>::Handle>, bool)::{lambda()#1}>, void ()>::target(std::type_info const&) const
PUBLIC ac50 0 std::__ndk1::__function::__func<geode::Task<geode::utils::web::WebResponse, geode::utils::web::WebProgress>::cancel(std::__ndk1::shared_ptr<geode::Task<geode::utils::web::WebResponse, geode::utils::web::WebProgress>::Handle>, bool)::{lambda()#1}, std::__ndk1::allocator<geode::Task<geode::utils::web::WebResponse, geode::utils::web::WebProgress>::cancel(std::__ndk1::shared_ptr<geode::Task<geode::utils::web::WebResponse, geode::utils::web::WebProgress>::Handle>, bool)::{lambda()#1}>, void ()>::target_type() const
PUBLIC ac5c 0 _GLOBAL__sub_I_main.cpp
PUBLIC ac88 0 geode::getMod()
PUBLIC m acc4 0 geodeImplicitEntry
PUBLIC ad00 0 <.plt ELF section in alphalaneous.asyncweb.android64.so>
STACK CFI INIT 6030 10 .cfa: sp 0 +
STACK CFI INIT 6040 8 .cfa: sp 0 +
STACK CFI INIT 6048 8 .cfa: sp 0 +
STACK CFI INIT 6050 14 .cfa: sp 0 +
STACK CFI INIT 6064 1c .cfa: sp 0 +
STACK CFI INIT 6080 10 .cfa: sp 0 +
STACK CFI INIT 6090 30 .cfa: sp 0 +
STACK CFI INIT 60c0 98 .cfa: sp 0 +
STACK CFI INIT 6158 2ac .cfa: sp 0 +
STACK CFI INIT 6404 8c .cfa: sp 0 +
STACK CFI INIT 6490 30 .cfa: sp 0 +
STACK CFI INIT 64c0 8 .cfa: sp 0 +
STACK CFI INIT 6c58 18 .cfa: sp 0 +
STACK CFI INIT 6c70 10 .cfa: sp 0 +
STACK CFI 6c74 .cfa: sp 16 +
STACK CFI 6c78 .cfa: x29 16 + .ra: .cfa -8 + ^ x29: .cfa -16 + ^
STACK CFI INIT 6c80 78 .cfa: sp 0 +
STACK CFI 6c88 .cfa: sp 32 +
STACK CFI 6c90 .cfa: x29 32 + x19: .cfa -8 + ^ x20: .cfa -16 + ^ .ra: .cfa -24 + ^ x29: .cfa -32 + ^
STACK CFI 6cc0 .cfa: sp 32 +
STACK CFI 6cc8 .cfa: sp 0 +
STACK CFI 6cd0 .cfa: x29 32 +
STACK CFI 6cec .cfa: sp 32 +
STACK CFI 6cf4 .cfa: sp 0 +
STACK CFI INIT 716c 50 .cfa: sp 0 +
STACK CFI 7170 .cfa: sp 32 +
STACK CFI 7178 .cfa: x29 32 + x19: .cfa -16 + ^ .ra: .cfa -24 + ^ x29: .cfa -32 + ^
STACK CFI 7190 .cfa: sp 32 +
STACK CFI 7198 .cfa: sp 0 +
STACK CFI 719c .cfa: x29 32 +
STACK CFI 71b0 .cfa: sp 32 +
STACK CFI 71b8 .cfa: sp 0 +
STACK CFI INIT 7230 7c .cfa: sp 0 +
STACK CFI 7234 .cfa: sp 48 +
STACK CFI 7240 .cfa: x29 48 + x19: .cfa -8 + ^ x20: .cfa -16 + ^ x21: .cfa -32 + ^ .ra: .cfa -40 + ^ x29: .cfa -48 + ^
STACK CFI 728c .cfa: sp 48 +
STACK CFI 7298 .cfa: sp 0 +
STACK CFI 729c .cfa: sp 48 +
STACK CFI 72a8 .cfa: sp 0 +
STACK CFI INIT 72ac 4 .cfa: sp 0 +
STACK CFI INIT 79cc 34 .cfa: sp 0 +
STACK CFI 79d0 .cfa: sp 16 +
STACK CFI 79d4 .cfa: x29 16 + .ra: .cfa -8 + ^ x29: .cfa -16 + ^
STACK CFI INIT 7a00 80 .cfa: sp 0 +
STACK CFI 7a04 .cfa: sp 48 +
STACK CFI 7a10 .cfa: x29 48 + x19: .cfa -8 + ^ x20: .cfa -16 + ^ x21: .cfa -32 + ^ .ra: .cfa -40 + ^ x29: .cfa -48 + ^
STACK CFI 7a70 .cfa: sp 48 +
STACK CFI 7a7c .cfa: sp 0 +
STACK CFI INIT 7a80 24 .cfa: sp 0 +
STACK CFI 7a84 .cfa: sp 32 +
STACK CFI 7a8c .cfa: x29 32 + x19: .cfa -16 + ^ .ra: .cfa -24 + ^ x29: .cfa -32 + ^
STACK CFI 7a98 .cfa: sp 32 +
STACK CFI 7aa0 .cfa: sp 0 +
STACK CFI INIT 7aa4 14 .cfa: sp 0 +
STACK CFI 7aa8 .cfa: sp 16 +
STACK CFI 7aac .cfa: x29 16 + .ra: .cfa -8 + ^ x29: .cfa -16 + ^
STACK CFI INIT 7b08 30 .cfa: sp 0 +
STACK CFI 7b0c .cfa: sp 32 +
STACK CFI 7b14 .cfa: x29 32 + x19: .cfa -16 + ^ .ra: .cfa -24 + ^ x29: .cfa -32 + ^
STACK CFI 7b2c .cfa: sp 32 +
STACK CFI 7b34 .cfa: sp 0 +
STACK CFI INIT 7b38 34 .cfa: sp 0 +
STACK CFI 7b3c .cfa: sp 32 +
STACK CFI 7b44 .cfa: x29 32 + x19: .cfa -16 + ^ .ra: .cfa -24 + ^ x29: .cfa -32 + ^
STACK CFI INIT 7b6c 84 .cfa: sp 0 +
STACK CFI 7b74 .cfa: sp 48 +
STACK CFI 7b80 .cfa: x29 48 + x19: .cfa -8 + ^ x20: .cfa -16 + ^ x21: .cfa -32 + ^ .ra: .cfa -40 + ^ x29: .cfa -48 + ^
STACK CFI 7be0 .cfa: sp 48 +
STACK CFI 7bec .cfa: sp 0 +
STACK CFI INIT 7bf0 90 .cfa: sp 0 +
STACK CFI 7bf4 .cfa: sp 48 +
STACK CFI 7c00 .cfa: x29 48 + x19: .cfa -8 + ^ x20: .cfa -16 + ^ x21: .cfa -24 + ^ x22: .cfa -32 + ^ .ra: .cfa -40 + ^ x29: .cfa -48 + ^
STACK CFI 7c18 .cfa: sp 48 +
STACK CFI 7c24 .cfa: sp 0 +
STACK CFI 7c28 .cfa: x29 48 +
STACK CFI 7c6c .cfa: sp 48 +
STACK CFI 7c78 .cfa: sp 0 +
STACK CFI 7c7c .cfa: x29 48 +
STACK CFI INIT 7c80 68 .cfa: sp 0 +
STACK CFI 7c84 .cfa: sp 32 +
STACK CFI 7c8c .cfa: x29 32 + x19: .cfa -8 + ^ x20: .cfa -16 + ^ .ra: .cfa -24 + ^ x29: .cfa -32 + ^
STACK CFI 7ca4 .cfa: sp 32 +
STACK CFI 7cac .cfa: sp 0 +
STACK CFI 7cb0 .cfa: x29 32 +
STACK CFI 7cdc .cfa: sp 32 +
STACK CFI 7ce4 .cfa: sp 0 +
STACK CFI INIT 7ce8 14 .cfa: sp 0 +
STACK CFI 7cec .cfa: sp 16 +
STACK CFI 7cf0 .cfa: x29 16 + .ra: .cfa -8 + ^ x29: .cfa -16 + ^
STACK CFI INIT 7cfc 4 .cfa: sp 0 +
STACK CFI INIT 7d00 14 .cfa: sp 0 +
STACK CFI INIT 7d14 3c8 .cfa: sp 0 +
STACK CFI INIT 80dc 84 .cfa: sp 0 +
STACK CFI 80e4 .cfa: sp 32 +
STACK CFI 80ec .cfa: x29 32 + x19: .cfa -8 + ^ x20: .cfa -16 + ^ .ra: .cfa -24 + ^ x29: .cfa -32 + ^
STACK CFI 812c .cfa: sp 32 +
STACK CFI 8134 .cfa: sp 0 +
STACK CFI 813c .cfa: x29 32 +
STACK CFI INIT 8900 50 .cfa: sp 0 +
STACK CFI 8904 .cfa: sp 32 +
STACK CFI 890c .cfa: x29 32 + x19: .cfa -16 + ^ .ra: .cfa -24 + ^ x29: .cfa -32 + ^
STACK CFI 8924 .cfa: sp 32 +
STACK CFI 892c .cfa: sp 0 +
STACK CFI 8930 .cfa: x29 32 +
STACK CFI 8944 .cfa: sp 32 +
STACK CFI 894c .cfa: sp 0 +
STACK CFI INIT 8950 64 .cfa: sp 0 +
STACK CFI 8954 .cfa: sp 32 +
STACK CFI 895c .cfa: x29 32 + x19: .cfa -16 + ^ .ra: .cfa -24 + ^ x29: .cfa -32 + ^
STACK CFI 8988 .cfa: sp 32 +
STACK CFI 8990 .cfa: sp 0 +
STACK CFI 8994 .cfa: x29 32 +
STACK CFI 89a8 .cfa: sp 32 +
STACK CFI 89b0 .cfa: sp 0 +
STACK CFI INIT 89b4 50 .cfa: sp 0 +
STACK CFI 89b8 .cfa: sp 32 +
STACK CFI 89c0 .cfa: x29 32 + x19: .cfa -16 + ^ .ra: .cfa -24 + ^ x29: .cfa -32 + ^
STACK CFI 89d8 .cfa: sp 32 +
STACK CFI 89e0 .cfa: sp 0 +
STACK CFI 89e4 .cfa: x29 32 +
STACK CFI 89f8 .cfa: sp 32 +
STACK CFI 8a00 .cfa: sp 0 +
STACK CFI INIT 8a04 50 .cfa: sp 0 +
STACK CFI 8a08 .cfa: sp 32 +
STACK CFI 8a10 .cfa: x29 32 + x19: .cfa -16 + ^ .ra: .cfa -24 + ^ x29: .cfa -32 + ^
STACK CFI 8a28 .cfa: sp 32 +
STACK CFI 8a30 .cfa: sp 0 +
STACK CFI 8a34 .cfa: x29 32 +
STACK CFI 8a48 .cfa: sp 32 +
STACK CFI 8a50 .cfa: sp 0 +
STACK CFI INIT 8a54 14 .cfa: sp 0 +
STACK CFI 8a58 .cfa: sp 16 +
STACK CFI 8a5c .cfa: x29 16 + .ra: .cfa -8 + ^ x29: .cfa -16 + ^
STACK CFI INIT 8a68 14 .cfa: sp 0 +
STACK CFI 8a6c .cfa: sp 16 +
STACK CFI 8a70 .cfa: x29 16 + .ra: .cfa -8 + ^ x29: .cfa -16 + ^
STACK CFI INIT 8a7c 10 .cfa: sp 0 +
STACK CFI INIT 8a8c 30 .cfa: sp 0 +
STACK CFI 8a90 .cfa: sp 32 +
STACK CFI 8a98 .cfa: x29 32 + x19: .cfa -16 + ^ .ra: .cfa -24 + ^ x29: .cfa -32 + ^
STACK CFI 8ab0 .cfa: sp 32 +
STACK CFI 8ab8 .cfa: sp 0 +
STACK CFI INIT 8abc c .cfa: sp 0 +
STACK CFI INIT 8ac8 4 .cfa: sp 0 +
STACK CFI INIT 8cd0 4 .cfa: sp 0 +
STACK CFI INIT 8e78 9c .cfa: sp 0 +
STACK CFI 8e7c .cfa: sp 32 +
STACK CFI 8e84 .cfa: x29 32 + x19: .cfa -8 + ^ x20: .cfa -16 + ^ .ra: .cfa -24 + ^ x29: .cfa -32 + ^
STACK CFI 8f08 .cfa: sp 32 +
STACK CFI 8f10 .cfa: sp 0 +
STACK CFI INIT 8f14 a4 .cfa: sp 0 +
STACK CFI 8f18 .cfa: sp 32 +
STACK CFI 8f20 .cfa: x29 32 + x19: .cfa -8 + ^ x20: .cfa -16 + ^ .ra: .cfa -24 + ^ x29: .cfa -32 + ^
STACK CFI 8fac .cfa: sp 32 +
STACK CFI 8fb4 .cfa: sp 0 +
STACK CFI INIT 8fb8 50 .cfa: sp 0 +
STACK CFI 8fbc .cfa: sp 32 +
STACK CFI 8fc4 .cfa: x29 32 + x19: .cfa -16 + ^ .ra: .cfa -24 + ^ x29: .cfa -32 + ^
STACK CFI 8fdc .cfa: sp 32 +
STACK CFI 8fe4 .cfa: sp 0 +
STACK CFI 8fe8 .cfa: x29 32 +
STACK CFI 8ffc .cfa: sp 32 +
STACK CFI 9004 .cfa: sp 0 +
STACK CFI INIT 9008 50 .cfa: sp 0 +
STACK CFI 900c .cfa: sp 32 +
STACK CFI 9014 .cfa: x29 32 + x19: .cfa -16 + ^ .ra: .cfa -24 + ^ x29: .cfa -32 + ^
STACK CFI 902c .cfa: sp 32 +
STACK CFI 9034 .cfa: sp 0 +
STACK CFI 9038 .cfa: x29 32 +
STACK CFI 904c .cfa: sp 32 +
STACK CFI 9054 .cfa: sp 0 +
STACK CFI INIT 9058 5c .cfa: sp 0 +
STACK CFI 905c .cfa: sp 32 +
STACK CFI 9064 .cfa: x29 32 + x19: .cfa -16 + ^ .ra: .cfa -24 + ^ x29: .cfa -32 + ^
STACK CFI 9088 .cfa: sp 32 +
STACK CFI 9090 .cfa: sp 0 +
STACK CFI 9094 .cfa: x29 32 +
STACK CFI 90a8 .cfa: sp 32 +
STACK CFI 90b0 .cfa: sp 0 +
STACK CFI INIT 90b4 6c .cfa: sp 0 +
STACK CFI 90b8 .cfa: sp 32 +
STACK CFI 90c0 .cfa: x29 32 + x19: .cfa -8 + ^ x20: .cfa -16 + ^ .ra: .cfa -24 + ^ x29: .cfa -32 + ^
STACK CFI 90ec .cfa: sp 32 +
STACK CFI 90f4 .cfa: sp 0 +
STACK CFI 90f8 .cfa: x29 32 +
STACK CFI 9114 .cfa: sp 32 +
STACK CFI 911c .cfa: sp 0 +
STACK CFI INIT 9120 58 .cfa: sp 0 +
STACK CFI 9124 .cfa: sp 32 +
STACK CFI 912c .cfa: x29 32 + x19: .cfa -8 + ^ x20: .cfa -16 + ^ .ra: .cfa -24 + ^ x29: .cfa -32 + ^
STACK CFI 916c .cfa: sp 32 +
STACK CFI 9174 .cfa: sp 0 +
STACK CFI INIT 9178 4c .cfa: sp 0 +
STACK CFI 917c .cfa: sp 32 +
STACK CFI 9184 .cfa: x29 32 + x19: .cfa -8 + ^ x20: .cfa -16 + ^ .ra: .cfa -24 + ^ x29: .cfa -32 + ^
STACK CFI 91b8 .cfa: sp 32 +
STACK CFI 91c0 .cfa: sp 0 +
STACK CFI INIT 91c4 50 .cfa: sp 0 +
STACK CFI 91c8 .cfa: sp 32 +
STACK CFI 91d0 .cfa: x29 32 + x19: .cfa -16 + ^ .ra: .cfa -24 + ^ x29: .cfa -32 + ^
STACK CFI 91e8 .cfa: sp 32 +
STACK CFI 91f0 .cfa: sp 0 +
STACK CFI 91f4 .cfa: x29 32 +
STACK CFI 9208 .cfa: sp 32 +
STACK CFI 9210 .cfa: sp 0 +
STACK CFI INIT 9214 60 .cfa: sp 0 +
STACK CFI 9218 .cfa: sp 32 +
STACK CFI 9220 .cfa: x29 32 + x19: .cfa -8 + ^ x20: .cfa -16 + ^ .ra: .cfa -24 + ^ x29: .cfa -32 + ^
STACK CFI 9240 .cfa: sp 32 +
STACK CFI 9248 .cfa: sp 0 +
STACK CFI 924c .cfa: x29 32 +
STACK CFI 9268 .cfa: sp 32 +
STACK CFI 9270 .cfa: sp 0 +
STACK CFI INIT 940c 1c .cfa: sp 0 +
STACK CFI INIT 9428 c .cfa: sp 0 +
STACK CFI INIT 9434 50 .cfa: sp 0 +
STACK CFI 9438 .cfa: sp 32 +
STACK CFI 9440 .cfa: x29 32 + x19: .cfa -16 + ^ .ra: .cfa -24 + ^ x29: .cfa -32 + ^
STACK CFI 9458 .cfa: sp 32 +
STACK CFI 9460 .cfa: sp 0 +
STACK CFI 9464 .cfa: x29 32 +
STACK CFI 9478 .cfa: sp 32 +
STACK CFI 9480 .cfa: sp 0 +
STACK CFI INIT 9484 60 .cfa: sp 0 +
STACK CFI 9488 .cfa: sp 32 +
STACK CFI 9490 .cfa: x29 32 + x19: .cfa -8 + ^ x20: .cfa -16 + ^ .ra: .cfa -24 + ^ x29: .cfa -32 + ^
STACK CFI 94b0 .cfa: sp 32 +
STACK CFI 94b8 .cfa: sp 0 +
STACK CFI 94bc .cfa: x29 32 +
STACK CFI 94d8 .cfa: sp 32 +
STACK CFI 94e0 .cfa: sp 0 +
STACK CFI INIT 94e4 70 .cfa: sp 0 +
STACK CFI 94e8 .cfa: sp 32 +
STACK CFI 94f0 .cfa: x29 32 + x19: .cfa -8 + ^ x20: .cfa -16 + ^ .ra: .cfa -24 + ^ x29: .cfa -32 + ^
STACK CFI 9518 .cfa: sp 32 +
STACK CFI 9520 .cfa: sp 0 +
STACK CFI 9524 .cfa: x29 32 +
STACK CFI 9548 .cfa: sp 32 +
STACK CFI 9550 .cfa: sp 0 +
STACK CFI INIT 9554 5c .cfa: sp 0 +
STACK CFI 9558 .cfa: sp 32 +
STACK CFI 9560 .cfa: x29 32 + x19: .cfa -16 + ^ .ra: .cfa -24 + ^ x29: .cfa -32 + ^
STACK CFI 9584 .cfa: sp 32 +
STACK CFI 958c .cfa: sp 0 +
STACK CFI 9590 .cfa: x29 32 +
STACK CFI 95a4 .cfa: sp 32 +
STACK CFI 95ac .cfa: sp 0 +
STACK CFI INIT 95b0 6c .cfa: sp 0 +
STACK CFI 95b4 .cfa: sp 32 +
STACK CFI 95bc .cfa: x29 32 + x19: .cfa -8 + ^ x20: .cfa -16 + ^ .ra: .cfa -24 + ^ x29: .cfa -32 + ^
STACK CFI 95e8 .cfa: sp 32 +
STACK CFI 95f0 .cfa: sp 0 +
STACK CFI 95f4 .cfa: x29 32 +
STACK CFI 9610 .cfa: sp 32 +
STACK CFI 9618 .cfa: sp 0 +
STACK CFI INIT 961c 58 .cfa: sp 0 +
STACK CFI 9620 .cfa: sp 32 +
STACK CFI 9628 .cfa: x29 32 + x19: .cfa -8 + ^ x20: .cfa -16 + ^ .ra: .cfa -24 + ^ x29: .cfa -32 + ^
STACK CFI 9668 .cfa: sp 32 +
STACK CFI 9670 .cfa: sp 0 +
STACK CFI INIT 9674 4c .cfa: sp 0 +
STACK CFI 9678 .cfa: sp 32 +
STACK CFI 9680 .cfa: x29 32 + x19: .cfa -8 + ^ x20: .cfa -16 + ^ .ra: .cfa -24 + ^ x29: .cfa -32 + ^
STACK CFI 96b4 .cfa: sp 32 +
STACK CFI 96bc .cfa: sp 0 +
STACK CFI INIT 96c0 50 .cfa: sp 0 +
STACK CFI 96c4 .cfa: sp 32 +
STACK CFI 96cc .cfa: x29 32 + x19: .cfa -16 + ^ .ra: .cfa -24 + ^ x29: .cfa -32 + ^
STACK CFI 96e4 .cfa: sp 32 +
STACK CFI 96ec .cfa: sp 0 +
STACK CFI 96f0 .cfa: x29 32 +
STACK CFI 9704 .cfa: sp 32 +
STACK CFI 970c .cfa: sp 0 +
STACK CFI INIT 9710 60 .cfa: sp 0 +
STACK CFI 9714 .cfa: sp 32 +
STACK CFI 971c .cfa: x29 32 + x19: .cfa -8 + ^ x20: .cfa -16 + ^ .ra: .cfa -24 + ^ x29: .cfa -32 + ^
STACK CFI 973c .cfa: sp 32 +
STACK CFI 9744 .cfa: sp 0 +
STACK CFI 9748 .cfa: x29 32 +
STACK CFI 9764 .cfa: sp 32 +
STACK CFI 976c .cfa: sp 0 +
STACK CFI INIT 98f8 1c .cfa: sp 0 +
STACK CFI INIT 9914 c .cfa: sp 0 +
STACK CFI INIT 9920 fc .cfa: sp 0 +
STACK CFI 9924 .cfa: sp 64 +
STACK CFI 9934 .cfa: x29 64 + x19: .cfa -8 + ^ x20: .cfa -16 + ^ x21: .cfa -24 + ^ x22: .cfa -32 + ^ x23: .cfa -48 + ^ .ra: .cfa -56 + ^ x29: .cfa -64 + ^
STACK CFI 9998 .cfa: sp 64 +
STACK CFI 99a8 .cfa: sp 0 +
STACK CFI 99ac .cfa: x29 64 +
STACK CFI 99c8 .cfa: sp 64 +
STACK CFI 99d8 .cfa: sp 0 +
STACK CFI 99dc .cfa: x29 64 +
STACK CFI 9a08 .cfa: sp 64 +
STACK CFI 9a18 .cfa: sp 0 +
STACK CFI INIT 9a1c 34 .cfa: sp 0 +
STACK CFI 9a20 .cfa: sp 16 +
STACK CFI 9a24 .cfa: x29 16 + .ra: .cfa -8 + ^ x29: .cfa -16 + ^
STACK CFI INIT 9a50 24 .cfa: sp 0 +
STACK CFI 9a54 .cfa: sp 32 +
STACK CFI 9a5c .cfa: x29 32 + x19: .cfa -16 + ^ .ra: .cfa -24 + ^ x29: .cfa -32 + ^
STACK CFI 9a68 .cfa: sp 32 +
STACK CFI 9a70 .cfa: sp 0 +
STACK CFI INIT 9a74 1a8 .cfa: sp 0 +
STACK CFI INIT 9c1c 8 .cfa: sp 0 +
STACK CFI INIT 9ce4 4 .cfa: sp 0 +
STACK CFI INIT 9ce8 5c .cfa: sp 0 +
STACK CFI 9cec .cfa: sp 32 +
STACK CFI 9cf4 .cfa: x29 32 + x19: .cfa -16 + ^ .ra: .cfa -24 + ^ x29: .cfa -32 + ^
STACK CFI 9d18 .cfa: sp 32 +
STACK CFI 9d20 .cfa: sp 0 +
STACK CFI 9d24 .cfa: x29 32 +
STACK CFI 9d38 .cfa: sp 32 +
STACK CFI 9d40 .cfa: sp 0 +
STACK CFI INIT 9d44 6c .cfa: sp 0 +
STACK CFI 9d48 .cfa: sp 32 +
STACK CFI 9d50 .cfa: x29 32 + x19: .cfa -8 + ^ x20: .cfa -16 + ^ .ra: .cfa -24 + ^ x29: .cfa -32 + ^
STACK CFI 9d7c .cfa: sp 32 +
STACK CFI 9d84 .cfa: sp 0 +
STACK CFI 9d88 .cfa: x29 32 +
STACK CFI 9da4 .cfa: sp 32 +
STACK CFI 9dac .cfa: sp 0 +
STACK CFI INIT 9db0 60 .cfa: sp 0 +
STACK CFI 9db4 .cfa: sp 32 +
STACK CFI 9dbc .cfa: x29 32 + x19: .cfa -8 + ^ x20: .cfa -16 + ^ .ra: .cfa -24 + ^ x29: .cfa -32 + ^
STACK CFI 9e04 .cfa: sp 32 +
STACK CFI 9e0c .cfa: sp 0 +
STACK CFI INIT 9e10 54 .cfa: sp 0 +
STACK CFI 9e14 .cfa: sp 32 +
STACK CFI 9e1c .cfa: x29 32 + x19: .cfa -8 + ^ x20: .cfa -16 + ^ .ra: .cfa -24 + ^ x29: .cfa -32 + ^
STACK CFI 9e58 .cfa: sp 32 +
STACK CFI 9e60 .cfa: sp 0 +
STACK CFI INIT 9e64 50 .cfa: sp 0 +
STACK CFI 9e68 .cfa: sp 32 +
STACK CFI 9e70 .cfa: x29 32 + x19: .cfa -16 + ^ .ra: .cfa -24 + ^ x29: .cfa -32 + ^
STACK CFI 9e88 .cfa: sp 32 +
STACK CFI 9e90 .cfa: sp 0 +
STACK CFI 9e94 .cfa: x29 32 +
STACK CFI 9ea8 .cfa: sp 32 +
STACK CFI 9eb0 .cfa: sp 0 +
STACK CFI INIT 9eb4 60 .cfa: sp 0 +
STACK CFI 9eb8 .cfa: sp 32 +
STACK CFI 9ec0 .cfa: x29 32 + x19: .cfa -8 + ^ x20: .cfa -16 + ^ .ra: .cfa -24 + ^ x29: .cfa -32 + ^
STACK CFI 9ee0 .cfa: sp 32 +
STACK CFI 9ee8 .cfa: sp 0 +
STACK CFI 9eec .cfa: x29 32 +
STACK CFI 9f08 .cfa: sp 32 +
STACK CFI 9f10 .cfa: sp 0 +
STACK CFI INIT a2e8 1c .cfa: sp 0 +
STACK CFI INIT a304 c .cfa: sp 0 +
STACK CFI INIT a310 50 .cfa: sp 0 +
STACK CFI a314 .cfa: sp 32 +
STACK CFI a31c .cfa: x29 32 + x19: .cfa -16 + ^ .ra: .cfa -24 + ^ x29: .cfa -32 + ^
STACK CFI a334 .cfa: sp 32 +
STACK CFI a33c .cfa: sp 0 +
STACK CFI a340 .cfa: x29 32 +
STACK CFI a354 .cfa: sp 32 +
STACK CFI a35c .cfa: sp 0 +
STACK CFI INIT a360 5c .cfa: sp 0 +
STACK CFI a364 .cfa: sp 32 +
STACK CFI a36c .cfa: x29 32 + x19: .cfa -16 + ^ .ra: .cfa -24 + ^ x29: .cfa -32 + ^
STACK CFI a390 .cfa: sp 32 +
STACK CFI a398 .cfa: sp 0 +
STACK CFI a39c .cfa: x29 32 +
STACK CFI a3b0 .cfa: sp 32 +
STACK CFI a3b8 .cfa: sp 0 +
STACK CFI INIT a3bc 6c .cfa: sp 0 +
STACK CFI a3c0 .cfa: sp 32 +
STACK CFI a3c8 .cfa: x29 32 + x19: .cfa -8 + ^ x20: .cfa -16 + ^ .ra: .cfa -24 + ^ x29: .cfa -32 + ^
STACK CFI a3f4 .cfa: sp 32 +
STACK CFI a3fc .cfa: sp 0 +
STACK CFI a400 .cfa: x29 32 +
STACK CFI a41c .cfa: sp 32 +
STACK CFI a424 .cfa: sp 0 +
STACK CFI INIT a428 68 .cfa: sp 0 +
STACK CFI a42c .cfa: sp 32 +
STACK CFI a434 .cfa: x29 32 + x19: .cfa -8 + ^ x20: .cfa -16 + ^ .ra: .cfa -24 + ^ x29: .cfa -32 + ^
STACK CFI a484 .cfa: sp 32 +
STACK CFI a48c .cfa: sp 0 +
STACK CFI INIT a490 5c .cfa: sp 0 +
STACK CFI a494 .cfa: sp 32 +
STACK CFI a49c .cfa: x29 32 + x19: .cfa -8 + ^ x20: .cfa -16 + ^ .ra: .cfa -24 + ^ x29: .cfa -32 + ^
STACK CFI a4e0 .cfa: sp 32 +
STACK CFI a4e8 .cfa: sp 0 +
STACK CFI INIT a4ec 50 .cfa: sp 0 +
STACK CFI a4f0 .cfa: sp 32 +
STACK CFI a4f8 .cfa: x29 32 + x19: .cfa -16 + ^ .ra: .cfa -24 + ^ x29: .cfa -32 + ^
STACK CFI a510 .cfa: sp 32 +
STACK CFI a518 .cfa: sp 0 +
STACK CFI a51c .cfa: x29 32 +
STACK CFI a530 .cfa: sp 32 +
STACK CFI a538 .cfa: sp 0 +
STACK CFI INIT a53c 60 .cfa: sp 0 +
STACK CFI a540 .cfa: sp 32 +
STACK CFI a548 .cfa: x29 32 + x19: .cfa -8 + ^ x20: .cfa -16 + ^ .ra: .cfa -24 + ^ x29: .cfa -32 + ^
STACK CFI a568 .cfa: sp 32 +
STACK CFI a570 .cfa: sp 0 +
STACK CFI a574 .cfa: x29 32 +
STACK CFI a590 .cfa: sp 32 +
STACK CFI a598 .cfa: sp 0 +
STACK CFI INIT a874 1c .cfa: sp 0 +
STACK CFI INIT a890 c .cfa: sp 0 +
STACK CFI INIT a89c 5c .cfa: sp 0 +
STACK CFI a8a0 .cfa: sp 32 +
STACK CFI a8a8 .cfa: x29 32 + x19: .cfa -16 + ^ .ra: .cfa -24 + ^ x29: .cfa -32 + ^
STACK CFI a8cc .cfa: sp 32 +
STACK CFI a8d4 .cfa: sp 0 +
STACK CFI a8d8 .cfa: x29 32 +
STACK CFI a8ec .cfa: sp 32 +
STACK CFI a8f4 .cfa: sp 0 +
STACK CFI INIT a8f8 6c .cfa: sp 0 +
STACK CFI a8fc .cfa: sp 32 +
STACK CFI a904 .cfa: x29 32 + x19: .cfa -8 + ^ x20: .cfa -16 + ^ .ra: .cfa -24 + ^ x29: .cfa -32 + ^
STACK CFI a930 .cfa: sp 32 +
STACK CFI a938 .cfa: sp 0 +
STACK CFI a93c .cfa: x29 32 +
STACK CFI a958 .cfa: sp 32 +
STACK CFI a960 .cfa: sp 0 +
STACK CFI INIT a964 50 .cfa: sp 0 +
STACK CFI a968 .cfa: sp 32 +
STACK CFI a970 .cfa: x29 32 + x19: .cfa -16 + ^ .ra: .cfa -24 + ^ x29: .cfa -32 + ^
STACK CFI a9a8 .cfa: sp 32 +
STACK CFI a9b0 .cfa: sp 0 +
STACK CFI INIT a9b4 34 .cfa: sp 0 +
STACK CFI a9d0 .cfa: sp 16 +
STACK CFI a9d4 .cfa: x29 16 + .ra: .cfa -8 + ^ x29: .cfa -16 + ^
STACK CFI a9e0 .cfa: sp 16 +
STACK CFI a9e4 .cfa: sp 0 +
STACK CFI INIT a9e8 50 .cfa: sp 0 +
STACK CFI a9ec .cfa: sp 32 +
STACK CFI a9f4 .cfa: x29 32 + x19: .cfa -16 + ^ .ra: .cfa -24 + ^ x29: .cfa -32 + ^
STACK CFI aa0c .cfa: sp 32 +
STACK CFI aa14 .cfa: sp 0 +
STACK CFI aa18 .cfa: x29 32 +
STACK CFI aa2c .cfa: sp 32 +
STACK CFI aa34 .cfa: sp 0 +
STACK CFI INIT aa38 60 .cfa: sp 0 +
STACK CFI aa3c .cfa: sp 32 +
STACK CFI aa44 .cfa: x29 32 + x19: .cfa -8 + ^ x20: .cfa -16 + ^ .ra: .cfa -24 + ^ x29: .cfa -32 + ^
STACK CFI aa64 .cfa: sp 32 +
STACK CFI aa6c .cfa: sp 0 +
STACK CFI aa70 .cfa: x29 32 +
STACK CFI aa8c .cfa: sp 32 +
STACK CFI aa94 .cfa: sp 0 +
STACK CFI INIT ac34 1c .cfa: sp 0 +
STACK CFI INIT ac50 c .cfa: sp 0 +
STACK CFI INIT ac5c 2c .cfa: sp 0 +
STACK CFI INIT ac88 3c .cfa: sp 0 +
STACK CFI ac8c .cfa: sp 32 +
STACK CFI ac94 .cfa: x29 32 + x19: .cfa -16 + ^ .ra: .cfa -24 + ^ x29: .cfa -32 + ^
STACK CFI aca0 .cfa: sp 32 +
STACK CFI aca8 .cfa: sp 0 +
STACK CFI acac .cfa: x29 32 +
STACK CFI acb8 .cfa: sp 32 +
STACK CFI acc0 .cfa: sp 0 +
STACK CFI INIT acc4 3c .cfa: sp 0 +
STACK CFI acc8 .cfa: sp 32 +
STACK CFI acd0 .cfa: x29 32 + x19: .cfa -16 + ^ .ra: .cfa -24 + ^ x29: .cfa -32 + ^
STACK CFI acdc .cfa: sp 32 +
STACK CFI ace4 .cfa: sp 0 +
STACK CFI ace8 .cfa: x29 32 +
STACK CFI acf4 .cfa: sp 32 +
STACK CFI acfc .cfa: sp 0 +
STACK CFI INIT 64c8 790 .cfa: sp 0 +
STACK CFI 64cc .cfa: sp 240 +
STACK CFI 64e8 .cfa: x29 96 + x19: .cfa -8 + ^ x20: .cfa -16 + ^ x21: .cfa -24 + ^ x22: .cfa -32 + ^ x23: .cfa -40 + ^ x24: .cfa -48 + ^ x25: .cfa -56 + ^ x26: .cfa -64 + ^ x27: .cfa -72 + ^ x28: .cfa -80 + ^ .ra: .cfa -88 + ^ x29: .cfa -96 + ^
STACK CFI 6860 .cfa: sp 240 +
STACK CFI 687c .cfa: sp 0 +
STACK CFI 6880 .cfa: x29 96 +
STACK CFI 6b00 .cfa: sp 240 +
STACK CFI 6b1c .cfa: sp 0 +
STACK CFI 6b20 .cfa: x29 96 +
STACK CFI INIT 6cf8 474 .cfa: sp 0 +
STACK CFI 6cfc .cfa: sp 304 +
STACK CFI 6d18 .cfa: x29 96 + x19: .cfa -8 + ^ x20: .cfa -16 + ^ x21: .cfa -24 + ^ x22: .cfa -32 + ^ x23: .cfa -40 + ^ x24: .cfa -48 + ^ x25: .cfa -56 + ^ x26: .cfa -64 + ^ x27: .cfa -72 + ^ x28: .cfa -80 + ^ .ra: .cfa -88 + ^ x29: .cfa -96 + ^
STACK CFI 702c .cfa: sp 304 +
STACK CFI 7048 .cfa: sp 0 +
STACK CFI 704c .cfa: x29 96 +
STACK CFI INIT 71bc 74 .cfa: sp 0 +
STACK CFI 71c0 .cfa: sp 48 +
STACK CFI 71cc .cfa: x29 32 + x19: .cfa -8 + ^ x20: .cfa -16 + ^ .ra: .cfa -24 + ^ x29: .cfa -32 + ^
STACK CFI 7218 .cfa: sp 48 +
STACK CFI 7224 .cfa: sp 0 +
STACK CFI 7228 .cfa: x29 32 +
STACK CFI INIT 72b0 71c .cfa: sp 0 +
STACK CFI 72b4 .cfa: sp 496 +
STACK CFI 72d0 .cfa: x29 96 + x19: .cfa -8 + ^ x20: .cfa -16 + ^ x21: .cfa -24 + ^ x22: .cfa -32 + ^ x23: .cfa -40 + ^ x24: .cfa -48 + ^ x25: .cfa -56 + ^ x26: .cfa -64 + ^ x27: .cfa -72 + ^ x28: .cfa -80 + ^ .ra: .cfa -88 + ^ x29: .cfa -96 + ^
STACK CFI 789c .cfa: sp 496 +
STACK CFI 78b8 .cfa: sp 0 +
STACK CFI 78bc .cfa: x29 96 +
STACK CFI INIT 7ab8 50 .cfa: sp 0 +
STACK CFI 7abc .cfa: sp 32 +
STACK CFI 7ac4 .cfa: x29 32 + x19: .cfa -8 + ^ x20: .cfa -16 + ^ .ra: .cfa -24 + ^ x29: .cfa -32 + ^
STACK CFI INIT 8160 7a0 .cfa: sp 0 +
STACK CFI 8164 .cfa: sp 288 +
STACK CFI 8180 .cfa: x29 96 + x19: .cfa -8 + ^ x20: .cfa -16 + ^ x21: .cfa -24 + ^ x22: .cfa -32 + ^ x23: .cfa -40 + ^ x24: .cfa -48 + ^ x25: .cfa -56 + ^ x26: .cfa -64 + ^ x27: .cfa -72 + ^ x28: .cfa -80 + ^ .ra: .cfa -88 + ^ x29: .cfa -96 + ^
STACK CFI 86ac .cfa: sp 288 +
STACK CFI 86c8 .cfa: sp 0 +
STACK CFI 86cc .cfa: x29 96 +
STACK CFI INIT 8acc 204 .cfa: sp 0 +
STACK CFI 8ad0 .cfa: sp 128 +
STACK CFI 8ae4 .cfa: x29 64 + x19: .cfa -8 + ^ x20: .cfa -16 + ^ x21: .cfa -24 + ^ x22: .cfa -32 + ^ x23: .cfa -40 + ^ x24: .cfa -48 + ^ .ra: .cfa -56 + ^ x29: .cfa -64 + ^
STACK CFI 8c08 .cfa: sp 128 +
STACK CFI 8c1c .cfa: sp 0 +
STACK CFI 8c20 .cfa: x29 64 +
STACK CFI INIT 8cd4 1a4 .cfa: sp 0 +
STACK CFI 8cd8 .cfa: sp 128 +
STACK CFI 8ce8 .cfa: x29 48 + x19: .cfa -8 + ^ x20: .cfa -16 + ^ x21: .cfa -24 + ^ x22: .cfa -32 + ^ .ra: .cfa -40 + ^ x29: .cfa -48 + ^
STACK CFI 8dfc .cfa: sp 128 +
STACK CFI 8e0c .cfa: sp 0 +
STACK CFI 8e10 .cfa: x29 48 +
STACK CFI INIT 9274 198 .cfa: sp 0 +
STACK CFI 9278 .cfa: sp 128 +
STACK CFI 928c .cfa: x29 64 + x19: .cfa -8 + ^ x20: .cfa -16 + ^ x21: .cfa -24 + ^ x22: .cfa -32 + ^ x23: .cfa -48 + ^ .ra: .cfa -56 + ^ x29: .cfa -64 + ^
STACK CFI 93cc .cfa: sp 128 +
STACK CFI 93e0 .cfa: sp 0 +
STACK CFI 93e4 .cfa: x29 64 +
STACK CFI INIT 9770 188 .cfa: sp 0 +
STACK CFI 9774 .cfa: sp 112 +
STACK CFI 9784 .cfa: x29 48 + x19: .cfa -8 + ^ x20: .cfa -16 + ^ x21: .cfa -24 + ^ x22: .cfa -32 + ^ .ra: .cfa -40 + ^ x29: .cfa -48 + ^
STACK CFI 98bc .cfa: sp 112 +
STACK CFI 98cc .cfa: sp 0 +
STACK CFI 98d0 .cfa: x29 48 +
STACK CFI INIT 9c24 5c .cfa: sp 0 +
STACK CFI 9c28 .cfa: sp 32 +
STACK CFI 9c30 .cfa: x29 32 + x19: .cfa -16 + ^ .ra: .cfa -24 + ^ x29: .cfa -32 + ^
STACK CFI 9c70 .cfa: sp 32 +
STACK CFI 9c78 .cfa: sp 0 +
STACK CFI 9c7c .cfa: x29 32 +
STACK CFI INIT 9c80 64 .cfa: sp 0 +
STACK CFI 9c84 .cfa: sp 32 +
STACK CFI 9c8c .cfa: x29 32 + x19: .cfa -16 + ^ .ra: .cfa -24 + ^ x29: .cfa -32 + ^
STACK CFI 9cd4 .cfa: sp 32 +
STACK CFI 9cdc .cfa: sp 0 +
STACK CFI 9ce0 .cfa: x29 32 +
STACK CFI INIT 9f14 3d4 .cfa: sp 0 +
STACK CFI 9f18 .cfa: sp 160 +
STACK CFI 9f30 .cfa: x29 80 + x19: .cfa -8 + ^ x20: .cfa -16 + ^ x21: .cfa -24 + ^ x22: .cfa -32 + ^ x23: .cfa -40 + ^ x24: .cfa -48 + ^ x25: .cfa -56 + ^ x26: .cfa -64 + ^ .ra: .cfa -72 + ^ x29: .cfa -80 + ^
STACK CFI a208 .cfa: sp 160 +
STACK CFI a220 .cfa: sp 0 +
STACK CFI a224 .cfa: x29 80 +
STACK CFI INIT a59c 2d8 .cfa: sp 0 +
STACK CFI a5a0 .cfa: sp 112 +
STACK CFI a5b8 .cfa: x29 80 + x19: .cfa -8 + ^ x20: .cfa -16 + ^ x21: .cfa -24 + ^ x22: .cfa -32 + ^ x23: .cfa -40 + ^ x24: .cfa -48 + ^ x25: .cfa -64 + ^ .ra: .cfa -72 + ^ x29: .cfa -80 + ^
STACK CFI a810 .cfa: sp 112 +
STACK CFI a828 .cfa: sp 0 +
STACK CFI a82c .cfa: x29 80 +
STACK CFI INIT aa98 19c .cfa: sp 0 +
STACK CFI aa9c .cfa: sp 112 +
STACK CFI aaac .cfa: x29 48 + x19: .cfa -8 + ^ x20: .cfa -16 + ^ x21: .cfa -24 + ^ x22: .cfa -32 + ^ .ra: .cfa -40 + ^ x29: .cfa -48 + ^
STACK CFI abf0 .cfa: sp 112 +
STACK CFI ac00 .cfa: sp 0 +
STACK CFI ac04 .cfa: x29 48 +
