MODULE Linux arm64 31541B40A698FCFF153D56DB7FB766960 techstudent10.creation_rotation.android64.so
INFO CODE_ID 401B543198A6FFFC153D56DB7FB7669600C840A3
INFO GENERATOR mozilla/dump_syms 2.3.4
PUBLIC a4e90 0 __on_dlclose
PUBLIC a4ea0 0 __emutls_unregister_key
PUBLIC a4ea8 0 __on_dlclose_late
PUBLIC a4eb0 0 __atexit_handler_wrapper
PUBLIC a4ec4 0 atexit
PUBLIC a4ee0 0 pthread_atfork
FUNC a4ef0 c 0 mbedtls_net_init
FUNC a4efc 130 0 mbedtls_net_connect
FUNC a502c 18c 0 mbedtls_net_bind
FUNC a51b8 22c 0 mbedtls_net_accept
FUNC a53e4 38 0 mbedtls_net_set_block
FUNC a541c 38 0 mbedtls_net_set_nonblock
FUNC a5454 16c 0 mbedtls_net_poll
FUNC a55c0 8c 0 mbedtls_net_usleep
FUNC a564c 88 0 mbedtls_net_recv
FUNC a56d4 188 0 mbedtls_net_recv_timeout
FUNC a585c 84 0 mbedtls_net_send
FUNC a58e0 34 0 mbedtls_net_close
FUNC a5914 40 0 mbedtls_net_free
FUNC a5954 58 0 mbedtls_ssl_set_timer
FUNC a59ac 68 0 mbedtls_ssl_check_timer
FUNC a5a14 180 0 mbedtls_ssl_check_record
FUNC a5b94 2dc 0 ssl_parse_record_header
FUNC a5e70 92c 0 mbedtls_ssl_decrypt_buf
FUNC a679c 980 0 mbedtls_ssl_encrypt_buf
FUNC a711c 38 0 ssl_extract_add_data_from_record
FUNC a7154 ac 0 ssl_build_record_nonce
FUNC a7200 59c 0 mbedtls_ssl_fetch_input
FUNC a779c c4 0 ssl_double_retransmit_timeout
FUNC a7860 70 0 mbedtls_ssl_resend
FUNC a78d0 20c 0 mbedtls_ssl_flush_output
FUNC a7adc 74 0 mbedtls_ssl_update_out_pointers
FUNC a7b50 3c 0 mbedtls_ssl_flight_free
FUNC a7b8c 3d8 0 mbedtls_ssl_flight_transmit
FUNC a7f64 108 0 ssl_swap_epochs
FUNC a806c 124 0 ssl_get_remaining_payload_in_datagram
FUNC a8190 464 0 mbedtls_ssl_write_record
FUNC a85f4 dc 0 mbedtls_ssl_recv_flight_completed
FUNC a86d0 148 0 mbedtls_ssl_buffering_free
FUNC a8818 bc 0 mbedtls_ssl_send_flight_completed
FUNC a88d4 42c 0 mbedtls_ssl_write_handshake_msg
FUNC a8d00 28 0 mbedtls_ssl_write_version
FUNC a8d28 2ec 0 mbedtls_ssl_prepare_handshake_record
FUNC a9014 c4 0 mbedtls_ssl_update_handshake_status
FUNC a90d8 8 0 mbedtls_ssl_dtls_replay_reset
FUNC a90e0 78 0 mbedtls_ssl_dtls_replay_check
FUNC a9158 98 0 mbedtls_ssl_dtls_replay_update
FUNC a91f0 118c 0 mbedtls_ssl_read_record
FUNC aa37c 294 0 mbedtls_ssl_handle_message_type
FUNC aa610 c 0 mbedtls_ssl_send_fatal_handshake_failure
FUNC aa61c 128 0 mbedtls_ssl_send_alert_message
FUNC aa744 b0 0 mbedtls_ssl_write_change_cipher_spec
FUNC aa7f4 1b0 0 mbedtls_ssl_parse_change_cipher_spec
FUNC aa9a4 4c 0 mbedtls_ssl_update_in_pointers
FUNC aa9f0 a0 0 mbedtls_ssl_reset_in_out_pointers
FUNC aaa90 18 0 mbedtls_ssl_get_bytes_avail
FUNC aaaa8 f4 0 mbedtls_ssl_check_pending
FUNC aab9c a0 0 mbedtls_ssl_get_record_expansion
FUNC aac3c 5b8 0 mbedtls_ssl_read
FUNC ab1f4 e0 0 ssl_check_ctr_renegotiate
FUNC ab2d4 198 0 mbedtls_ssl_write
FUNC ab46c cc 0 mbedtls_ssl_close_notify
FUNC ab538 4c 0 mbedtls_ssl_transform_free
FUNC ab584 44 0 mbedtls_ssl_read_version
FUNC ab5c8 8c 0 mbedtls_ssl_dtls_record_replay_check
FUNC ab654 294 0 ssl_buffer_make_space
FUNC ab8e8 1e0 0 ssl_bitmask_set
FUNC abac8 9c 0 ssl_bitmask_check
FUNC abb64 4d0 0 ssl_handle_possible_reconnect
FUNC ac034 148 0 ssl_write_real
FUNC ac17c c 0 mbedtls_debug_set_threshold
FUNC ac188 11c 0 mbedtls_debug_print_msg
FUNC ac2a4 cc 0 mbedtls_debug_print_ret
FUNC ac370 a4 0 _ZL8snprintfPcU17pass_object_size1mPKcz
FUNC ac414 2d8 0 mbedtls_debug_print_buf
FUNC ac6ec 104 0 mbedtls_debug_print_ecp
FUNC ac7f0 20c 0 mbedtls_debug_print_mpi
FUNC ac9fc 3e4 0 mbedtls_debug_print_crt
FUNC acde0 54 0 mbedtls_debug_printf_ecdh
FUNC ace34 110 0 mbedtls_ssl_session_copy
FUNC acf44 4c 0 mbedtls_ssl_session_free
FUNC acf90 40 0 mbedtls_ssl_tls_prf
FUNC acfd0 40c 0 tls1_prf
FUNC ad3dc 28 0 tls_prf_sha384
FUNC ad404 28 0 tls_prf_sha256
FUNC ad42c 334 0 mbedtls_ssl_derive_keys
FUNC ad760 794 0 ssl_populate_transform
FUNC adef4 2c0 0 mbedtls_ssl_psk_derive_premaster
FUNC ae1b4 124 0 mbedtls_ssl_resend_hello_request
FUNC ae2d8 2cc 0 mbedtls_ssl_write_certificate
FUNC ae5a4 98c 0 mbedtls_ssl_parse_certificate
FUNC aef30 34 0 ssl_clear_peer_cert
FUNC aef64 50 0 mbedtls_ssl_optimize_checksum
FUNC aefb4 48 0 ssl_update_checksum_md5sha1
FUNC aeffc c 0 ssl_update_checksum_sha384
FUNC af008 c 0 ssl_update_checksum_sha256
FUNC af014 50 0 mbedtls_ssl_reset_checksum
FUNC af064 84 0 mbedtls_ssl_handshake_wrapup_free_hs_transform
FUNC af0e8 c4 0 mbedtls_ssl_handshake_free
FUNC af1ac 170 0 mbedtls_ssl_handshake_wrapup
FUNC af31c 254 0 mbedtls_ssl_write_finished
FUNC af570 260 0 mbedtls_ssl_parse_finished
FUNC af7d0 74 0 mbedtls_ssl_transform_init
FUNC af844 1c 0 mbedtls_ssl_session_init
FUNC af860 48 0 mbedtls_ssl_init
FUNC af8a8 d4 0 mbedtls_ssl_setup
FUNC af97c 288 0 ssl_handshake_init
FUNC afc04 130 0 mbedtls_ssl_session_reset_int
FUNC afd34 8 0 mbedtls_ssl_session_reset
FUNC afd3c 8 0 mbedtls_ssl_conf_endpoint
FUNC afd44 8 0 mbedtls_ssl_conf_transport
FUNC afd4c 8 0 mbedtls_ssl_conf_dtls_anti_replay
FUNC afd54 8 0 mbedtls_ssl_conf_dtls_badmac_limit
FUNC afd5c 10 0 mbedtls_ssl_set_datagram_packing
FUNC afd6c 8 0 mbedtls_ssl_conf_handshake_timeout
FUNC afd74 8 0 mbedtls_ssl_conf_authmode
FUNC afd7c 8 0 mbedtls_ssl_conf_verify
FUNC afd84 8 0 mbedtls_ssl_conf_rng
FUNC afd8c 8 0 mbedtls_ssl_conf_dbg
FUNC afd94 c 0 mbedtls_ssl_set_bio
FUNC afda0 8 0 mbedtls_ssl_set_mtu
FUNC afda8 8 0 mbedtls_ssl_conf_read_timeout
FUNC afdb0 14 0 mbedtls_ssl_set_timer_cb
FUNC afdc4 c 0 mbedtls_ssl_conf_session_cache
FUNC afdd0 58 0 mbedtls_ssl_set_session
FUNC afe28 c 0 mbedtls_ssl_conf_ciphersuites
FUNC afe34 1c 0 mbedtls_ssl_conf_ciphersuites_for_version
FUNC afe50 8 0 mbedtls_ssl_conf_cert_profile
FUNC afe58 74 0 mbedtls_ssl_conf_own_cert
FUNC afecc 8 0 mbedtls_ssl_conf_ca_chain
FUNC afed4 74 0 mbedtls_ssl_set_hs_own_cert
FUNC aff48 10 0 mbedtls_ssl_set_hs_ca_chain
FUNC aff58 c 0 mbedtls_ssl_set_hs_authmode
FUNC aff64 8 0 mbedtls_ssl_set_verify
FUNC aff6c 11c 0 mbedtls_ssl_conf_psk
FUNC b0088 b0 0 mbedtls_ssl_set_hs_psk
FUNC b0138 8 0 mbedtls_ssl_conf_psk_cb
FUNC b0140 60 0 mbedtls_ssl_conf_dh_param
FUNC b01a0 8c 0 mbedtls_ssl_conf_dh_param_bin
FUNC b022c 68 0 mbedtls_ssl_conf_dh_param_ctx
FUNC b0294 8 0 mbedtls_ssl_conf_dhm_min_bitlen
FUNC b029c 8 0 mbedtls_ssl_conf_sig_hashes
FUNC b02a4 8 0 mbedtls_ssl_conf_curves
FUNC b02ac b4 0 mbedtls_ssl_set_hostname
FUNC b0360 8 0 mbedtls_ssl_conf_sni
FUNC b0368 70 0 mbedtls_ssl_conf_alpn_protocols
FUNC b03d8 8 0 mbedtls_ssl_get_alpn_protocol
FUNC b03e0 c 0 mbedtls_ssl_conf_max_version
FUNC b03ec c 0 mbedtls_ssl_conf_min_version
FUNC b03f8 8 0 mbedtls_ssl_conf_fallback
FUNC b0400 8 0 mbedtls_ssl_conf_cert_req_ca_list
FUNC b0408 8 0 mbedtls_ssl_conf_encrypt_then_mac
FUNC b0410 8 0 mbedtls_ssl_conf_extended_master_secret
FUNC b0418 8 0 mbedtls_ssl_conf_arc4_support
FUNC b0420 24 0 mbedtls_ssl_conf_max_frag_len
FUNC b0444 8 0 mbedtls_ssl_conf_truncated_hmac
FUNC b044c 8 0 mbedtls_ssl_conf_cbc_record_splitting
FUNC b0454 8 0 mbedtls_ssl_conf_legacy_renegotiation
FUNC b045c 8 0 mbedtls_ssl_conf_renegotiation
FUNC b0464 8 0 mbedtls_ssl_conf_renegotiation_enforced
FUNC b046c c 0 mbedtls_ssl_conf_renegotiation_period
FUNC b0478 8 0 mbedtls_ssl_conf_session_tickets
FUNC b0480 c 0 mbedtls_ssl_conf_session_tickets_cb
FUNC b048c c 0 mbedtls_ssl_conf_export_keys_cb
FUNC b0498 8 0 mbedtls_ssl_conf_export_keys_ext_cb
FUNC b04a0 20 0 mbedtls_ssl_get_verify_result
FUNC b04c0 1c 0 mbedtls_ssl_get_ciphersuite
FUNC b04dc 68 0 mbedtls_ssl_get_version
FUNC b0544 c8 0 mbedtls_ssl_get_input_max_frag_len
FUNC b060c f0 0 mbedtls_ssl_get_output_max_frag_len
FUNC b06fc 4 0 mbedtls_ssl_get_max_frag_len
FUNC b0700 5c 0 mbedtls_ssl_get_current_mtu
FUNC b075c 118 0 mbedtls_ssl_get_max_out_record_payload
FUNC b0874 1c 0 mbedtls_ssl_get_peer_cert
FUNC b0890 30 0 mbedtls_ssl_get_session
FUNC b08c0 c 0 mbedtls_ssl_get_session_pointer
FUNC b08cc 14 0 mbedtls_ssl_session_save
FUNC b08e0 224 0 ssl_session_save
FUNC b0b04 68 0 mbedtls_ssl_session_load
FUNC b0b6c 260 0 ssl_session_load
FUNC b0dcc 68 0 mbedtls_ssl_handshake_step
FUNC b0e34 128 0 mbedtls_ssl_handshake
FUNC b0f5c e4 0 mbedtls_ssl_start_renegotiation
FUNC b1040 16c 0 mbedtls_ssl_renegotiate
FUNC b11ac 484 0 mbedtls_ssl_context_save
FUNC b1630 350 0 mbedtls_ssl_context_load
FUNC b1980 180 0 mbedtls_ssl_free
FUNC b1b00 3c 0 mbedtls_ssl_config_init
FUNC b1b3c 21c 0 mbedtls_ssl_config_defaults
FUNC b1d58 8 0 ssl_cookie_write_dummy
FUNC b1d60 8 0 ssl_cookie_check_dummy
FUNC b1d68 84 0 mbedtls_ssl_config_free
FUNC b1dec 48 0 mbedtls_ssl_sig_from_pk
FUNC b1e34 20 0 mbedtls_ssl_sig_from_pk_alg
FUNC b1e54 1c 0 mbedtls_ssl_pk_alg_from_sig
FUNC b1e70 24 0 mbedtls_ssl_sig_hash_set_find
FUNC b1e94 2c 0 mbedtls_ssl_sig_hash_set_add
FUNC b1ec0 8 0 mbedtls_ssl_sig_hash_set_const_hash
FUNC b1ec8 18 0 mbedtls_ssl_md_alg_from_hash
FUNC b1ee0 14 0 mbedtls_ssl_hash_from_md_alg
FUNC b1ef4 38 0 mbedtls_ssl_check_curve
FUNC b1f2c 60 0 mbedtls_ssl_check_curve_tls_id
FUNC b1f8c 38 0 mbedtls_ssl_check_sig_hash
FUNC b1fc4 c0 0 mbedtls_ssl_check_cert_usage
FUNC b2084 5c 0 mbedtls_ssl_set_calc_verify_md
FUNC b20e0 11c 0 ssl_calc_verify_tls
FUNC b21fc f4 0 ssl_calc_verify_tls_sha384
FUNC b22f0 f4 0 ssl_calc_verify_tls_sha256
FUNC b23e4 24c 0 mbedtls_ssl_get_key_exchange_md_ssl_tls
FUNC b2630 1e8 0 mbedtls_ssl_get_key_exchange_md_tls1_2
FUNC b2818 264 0 tls_prf_generic
FUNC b2a7c 1d4 0 ssl_calc_finished_tls
FUNC b2c50 170 0 ssl_calc_finished_tls_sha384
FUNC b2dc0 170 0 ssl_calc_finished_tls_sha256
FUNC b2f30 70 0 ssl_update_checksum_start
FUNC b2fa0 a0 0 mbedtls_ssl_list_ciphersuites
FUNC b3040 28 0 mbedtls_ssl_ciphersuite_from_id
FUNC b3068 48 0 mbedtls_ssl_ciphersuite_from_string
FUNC b30b0 34 0 mbedtls_ssl_get_ciphersuite_name
FUNC b30e4 4c 0 mbedtls_ssl_get_ciphersuite_id
FUNC b3130 28 0 mbedtls_ssl_get_ciphersuite_sig_pk_alg
FUNC b3158 28 0 mbedtls_ssl_get_ciphersuite_sig_alg
FUNC b3180 28 0 mbedtls_ssl_ciphersuite_uses_ec
FUNC b31a8 14 0 mbedtls_ssl_ciphersuite_uses_psk
FUNC b31bc 7c 0 mbedtls_ssl_set_client_transport_id
FUNC b3238 c 0 mbedtls_ssl_conf_dtls_cookies
FUNC b3244 208 0 mbedtls_ssl_handshake_server_step
FUNC b344c 1278 0 ssl_parse_client_hello
FUNC b46c4 a5c 0 ssl_write_server_hello
FUNC b5120 8c8 0 ssl_write_server_key_exchange
FUNC b59e8 2ec 0 ssl_write_certificate_request
FUNC b5cd4 118 0 ssl_write_server_hello_done
FUNC b5dec 6f0 0 ssl_parse_client_key_exchange
FUNC b64dc 3d8 0 ssl_parse_certificate_verify
FUNC b68b4 17c 0 ssl_write_new_session_ticket
FUNC b6a30 194 0 ssl_parse_servername_ext
FUNC b6bc4 c8 0 ssl_parse_renegotiation_info
FUNC b6c8c 1a4 0 ssl_parse_signature_algorithms_ext
FUNC b6e30 178 0 ssl_parse_supported_elliptic_curves
FUNC b6fa8 b4 0 ssl_parse_supported_point_formats
FUNC b705c 70 0 ssl_parse_max_fragment_length_ext
FUNC b70cc 7c 0 ssl_parse_truncated_hmac_ext
FUNC b7148 88 0 ssl_parse_encrypt_then_mac_ext
FUNC b71d0 88 0 ssl_parse_extended_ms_ext
FUNC b7258 214 0 ssl_parse_session_ticket_ext
FUNC b746c 11c 0 ssl_parse_alpn_ext
FUNC b7588 46c 0 ssl_ciphersuite_match
FUNC b79f4 10c 0 ssl_parse_client_dh_public
FUNC b7b00 194 0 ssl_parse_client_psk_identity
FUNC b7c94 2c0 0 ssl_parse_encrypted_pms
FUNC b7f54 20c 0 mbedtls_ssl_handshake_client_step
FUNC b8160 a88 0 ssl_write_client_hello
FUNC b8be8 d6c 0 ssl_parse_server_hello
FUNC b9954 774 0 ssl_parse_server_key_exchange
FUNC ba0c8 35c 0 ssl_parse_certificate_request
FUNC ba424 158 0 ssl_parse_server_hello_done
FUNC ba57c 60c 0 ssl_write_client_key_exchange
FUNC bab88 3a0 0 ssl_write_certificate_verify
FUNC baf28 2ac 0 ssl_parse_new_session_ticket
FUNC bb1d4 a8 0 ssl_validate_ciphersuite
FUNC bb27c cc 0 ssl_write_hostname_ext
FUNC bb348 c0 0 ssl_write_renegotiation_ext
FUNC bb408 170 0 ssl_write_signature_algorithms_ext
FUNC bb578 170 0 ssl_write_supported_elliptic_curves_ext
FUNC bb6e8 80 0 ssl_write_supported_point_formats_ext
FUNC bb768 98 0 ssl_write_max_fragment_length_ext
FUNC bb800 88 0 ssl_write_truncated_hmac_ext
FUNC bb888 90 0 ssl_write_encrypt_then_mac_ext
FUNC bb918 90 0 ssl_write_extended_ms_ext
FUNC bb9a8 14c 0 ssl_write_alpn_ext
FUNC bbaf4 104 0 ssl_write_session_ticket_ext
FUNC bbbf8 f8 0 ssl_parse_renegotiation_info
FUNC bbcf0 74 0 ssl_parse_max_fragment_length_ext
FUNC bbd64 70 0 ssl_parse_truncated_hmac_ext
FUNC bbdd4 78 0 ssl_parse_encrypt_then_mac_ext
FUNC bbe4c 78 0 ssl_parse_extended_ms_ext
FUNC bbec4 70 0 ssl_parse_session_ticket_ext
FUNC bbf34 e0 0 ssl_parse_supported_point_formats_ext
FUNC bc014 120 0 ssl_parse_alpn_ext
FUNC bc134 88 0 ssl_parse_server_psk_hint
FUNC bc1bc 11c 0 ssl_parse_server_dh_params
FUNC bc2d8 94 0 ssl_parse_server_ecdh_params
FUNC bc36c 164 0 ssl_parse_signature_algorithm
FUNC bc4d0 bc 0 ssl_check_server_ecdh_params
FUNC bc58c 1f0 0 ssl_write_encrypted_pms
FUNC bc77c 10 0 mbedtls_x509_crt_parse_der_nocopy
FUNC bc78c 528 0 mbedtls_x509_crt_parse_der_internal
FUNC bccb4 4 0 mbedtls_x509_crt_parse_der_with_ext_cb
FUNC bccb8 10 0 mbedtls_x509_crt_parse_der
FUNC bccc8 1ec 0 mbedtls_x509_crt_parse
FUNC bceb4 84 0 mbedtls_x509_crt_parse_file
FUNC bcf38 17c 0 mbedtls_x509_crt_parse_path
FUNC bd0b4 a4 0 _ZL8snprintfPcU17pass_object_size1mPKcz
FUNC bd158 214 0 mbedtls_x509_parse_subject_alt_name
FUNC bd36c 5e4 0 mbedtls_x509_crt_info
FUNC bd950 314 0 x509_info_subject_alt_name
FUNC bdc64 22c 0 x509_info_cert_type
FUNC bde90 25c 0 x509_info_key_usage
FUNC be0ec 158 0 x509_info_ext_key_usage
FUNC be244 158 0 x509_info_cert_policies
FUNC be39c e8 0 mbedtls_x509_crt_verify_info
FUNC be484 3c 0 mbedtls_x509_crt_check_key_usage
FUNC be4c0 9c 0 mbedtls_x509_crt_check_extended_key_usage
FUNC be55c 5c 0 mbedtls_x509_crt_is_revoked
FUNC be5b8 1c 0 mbedtls_x509_crt_verify
FUNC be5d4 860 0 x509_crt_verify_restartable_ca_cb
FUNC bee34 4 0 mbedtls_x509_crt_verify_with_profile
FUNC bee38 4 0 mbedtls_x509_crt_verify_restartable
FUNC bee3c c 0 mbedtls_x509_crt_init
FUNC bee48 168 0 mbedtls_x509_crt_free
FUNC befb0 bc 0 x509_get_dates
FUNC bf06c 7c 0 x509_get_uid
FUNC bf0e8 350 0 x509_get_crt_ext
FUNC bf438 130 0 x509_get_basic_constraints
FUNC bf568 d0 0 x509_get_key_usage
FUNC bf638 1c8 0 x509_get_subject_alt_name
FUNC bf800 88 0 x509_get_ns_cert_type
FUNC bf888 1d4 0 x509_get_certificate_policies
FUNC bfa5c 130 0 x509_crt_check_cn
FUNC bfb8c 148 0 x509_name_cmp
FUNC bfcd4 88 0 mbedtls_x509_get_serial
FUNC bfd5c 24 0 mbedtls_x509_get_alg_null
FUNC bfd80 24 0 mbedtls_x509_get_alg
FUNC bfda4 2a0 0 mbedtls_x509_get_rsassa_pss_params
FUNC c0044 114 0 x509_get_hash_alg
FUNC c0158 240 0 mbedtls_x509_get_name
FUNC c0398 3c8 0 mbedtls_x509_get_time
FUNC c0760 9c 0 mbedtls_x509_get_sig
FUNC c07fc d8 0 mbedtls_x509_get_sig_alg
FUNC c08d4 b8 0 mbedtls_x509_get_ext
FUNC c098c 26c 0 mbedtls_x509_dn_gets
FUNC c0bf8 a4 0 _ZL8snprintfPcU17pass_object_size1mPKcz
FUNC c0c9c 160 0 mbedtls_x509_serial_gets
FUNC c0dfc 17c 0 mbedtls_x509_sig_alg_gets
FUNC c0f78 4c 0 mbedtls_x509_key_size_helper
FUNC c0fc4 f4 0 mbedtls_x509_time_is_past
FUNC c10b8 f0 0 mbedtls_x509_time_is_future
FUNC c11a8 148 0 mbedtls_x509_self_test
FUNC c12f0 110 0 x509_date_is_valid
FUNC c1400 f0 0 mbedtls_asn1_get_len
FUNC c14f0 38 0 mbedtls_asn1_get_tag
FUNC c1528 c0 0 mbedtls_asn1_get_bool
FUNC c15e8 12c 0 mbedtls_asn1_get_int
FUNC c1714 12c 0 mbedtls_asn1_get_enum
FUNC c1840 c4 0 mbedtls_asn1_get_mpi
FUNC c1904 c8 0 mbedtls_asn1_get_bitstring
FUNC c19cc 17c 0 mbedtls_asn1_traverse_sequence_of
FUNC c1b48 8c 0 mbedtls_asn1_get_bitstring_null
FUNC c1bd4 40 0 mbedtls_asn1_sequence_free
FUNC c1c14 15c 0 mbedtls_asn1_get_sequence_of
FUNC c1d70 160 0 mbedtls_asn1_get_alg
FUNC c1ed0 70 0 mbedtls_asn1_get_alg_null
FUNC c1f40 40 0 mbedtls_asn1_free_named_data
FUNC c1f80 58 0 mbedtls_asn1_free_named_data_list
FUNC c1fd8 60 0 mbedtls_asn1_find_named_data
FUNC c2038 10 0 mbedtls_mpi_init
FUNC c2048 48 0 mbedtls_mpi_free
FUNC c2090 ac 0 mbedtls_mpi_grow
FUNC c213c 124 0 mbedtls_mpi_shrink
FUNC c2260 164 0 mbedtls_mpi_copy
FUNC c23c4 58 0 mbedtls_mpi_swap
FUNC c241c ac 0 mbedtls_mpi_lset
FUNC c24c8 30 0 mbedtls_mpi_get_bit
FUNC c24f8 11c 0 mbedtls_mpi_set_bit
FUNC c2614 54 0 mbedtls_mpi_lsb
FUNC c2668 7c 0 mbedtls_mpi_bitlen
FUNC c26e4 80 0 mbedtls_mpi_size
FUNC c2764 3ac 0 mbedtls_mpi_read_string
FUNC c2b10 554 0 mbedtls_mpi_mul_int
FUNC c3064 70 0 mbedtls_mpi_add_int
FUNC c30d4 5a8 0 mbedtls_mpi_write_string
FUNC c367c 180 0 mbedtls_mpi_read_file
FUNC c37fc 148 0 mbedtls_mpi_write_file
FUNC c3944 7c 0 mbedtls_mpi_read_binary_le
FUNC c39c0 f0 0 mbedtls_mpi_resize_clear
FUNC c3ab0 b4 0 mbedtls_mpi_read_binary
FUNC c3b64 bc 0 mbedtls_mpi_write_binary_le
FUNC c3c20 d4 0 mbedtls_mpi_write_binary
FUNC c3cf4 268 0 mbedtls_mpi_shift_l
FUNC c3f5c 1f0 0 mbedtls_mpi_shift_r
FUNC c414c a4 0 mbedtls_mpi_cmp_abs
FUNC c41f0 ec 0 mbedtls_mpi_cmp_mpi
FUNC c42dc b8 0 mbedtls_mpi_cmp_int
FUNC c4394 278 0 mbedtls_mpi_add_abs
FUNC c460c 20c 0 mbedtls_mpi_sub_abs
FUNC c4818 8 0 mbedtls_mpi_add_mpi
FUNC c4820 120 0 add_sub_mpi
FUNC c4940 8 0 mbedtls_mpi_sub_mpi
FUNC c4948 70 0 mbedtls_mpi_sub_int
FUNC c49b8 694 0 mbedtls_mpi_mul_mpi
FUNC c504c 6bc 0 mbedtls_mpi_div_mpi
FUNC c5708 6c 0 mbedtls_mpi_div_int
FUNC c5774 1a0 0 mbedtls_mpi_mod_mpi
FUNC c5914 94 0 mbedtls_mpi_mod_int
FUNC c59a8 40 0 mbedtls_mpi_montmul_init
FUNC c59e8 928 0 mbedtls_mpi_montmul
FUNC c6310 d8 0 mbedtls_mpi_get_mont_r2_unsafe
FUNC c63e8 95c 0 mbedtls_mpi_exp_mod
FUNC c6d44 7c 0 mpi_select
FUNC c6dc0 3cc 0 mbedtls_mpi_gcd
FUNC c718c 108 0 mbedtls_mpi_fill_random
FUNC c7294 364 0 mbedtls_mpi_random
FUNC c75f8 5ac 0 mbedtls_mpi_inv_mod
FUNC c7ba4 170 0 mbedtls_mpi_is_prime_ext
FUNC c7d14 ec 0 mpi_check_small_factors
FUNC c7e00 668 0 mpi_miller_rabin
FUNC c8468 10 0 mbedtls_mpi_is_prime
FUNC c8478 3e0 0 mbedtls_mpi_gen_prime
FUNC c8858 598 0 mbedtls_mpi_self_test
FUNC c8df0 58 0 mbedtls_cipher_list
FUNC c8e48 40 0 mbedtls_cipher_info_from_type
FUNC c8e88 60 0 mbedtls_cipher_info_from_string
FUNC c8ee8 50 0 mbedtls_cipher_info_from_values
FUNC c8f38 18 0 mbedtls_cipher_init
FUNC c8f50 48 0 mbedtls_cipher_free
FUNC c8f98 84 0 mbedtls_cipher_setup
FUNC c901c 58 0 mbedtls_cipher_set_padding_mode
FUNC c9074 64 0 mbedtls_cipher_setkey
FUNC c90d8 cc 0 mbedtls_cipher_set_iv
FUNC c91a4 20 0 mbedtls_cipher_reset
FUNC c91c4 bc 0 mbedtls_cipher_update_ad
FUNC c9280 430 0 mbedtls_cipher_update
FUNC c96b0 18c 0 mbedtls_cipher_finish
FUNC c983c d8 0 add_pkcs_padding
FUNC c9914 b0 0 get_pkcs_padding
FUNC c99c4 ec 0 add_one_and_zeros_padding
FUNC c9ab0 d0 0 get_one_and_zeros_padding
FUNC c9b80 ec 0 add_zeros_and_len_padding
FUNC c9c6c a8 0 get_zeros_and_len_padding
FUNC c9d14 1c 0 add_zeros_padding
FUNC c9d30 90 0 get_zeros_padding
FUNC c9dc0 1c 0 get_no_padding
FUNC c9ddc 54 0 mbedtls_cipher_write_tag
FUNC c9e30 120 0 mbedtls_cipher_check_tag
FUNC c9f50 198 0 mbedtls_cipher_crypt
FUNC ca0e8 14 0 mbedtls_cipher_auth_encrypt
FUNC ca0fc e0 0 mbedtls_cipher_aead_encrypt
FUNC ca1dc 14 0 mbedtls_cipher_auth_decrypt
FUNC ca1f0 f4 0 mbedtls_cipher_aead_decrypt
FUNC ca2e4 5c 0 mbedtls_cipher_auth_encrypt_ext
FUNC ca340 3c 0 mbedtls_cipher_auth_decrypt_ext
FUNC ca37c 38 0 mbedtls_chacha20_init
FUNC ca3b4 10 0 mbedtls_chacha20_free
FUNC ca3c4 58 0 mbedtls_chacha20_setkey
FUNC ca41c 50 0 mbedtls_chacha20_starts
FUNC ca46c 28c 0 mbedtls_chacha20_update
FUNC ca6f8 308 0 chacha20_block
FUNC caa00 f8 0 mbedtls_chacha20_crypt
FUNC caaf8 284 0 mbedtls_chacha20_self_test
FUNC cad7c 30 0 mbedtls_chachapoly_init
FUNC cadac 34 0 mbedtls_chachapoly_free
FUNC cade0 4 0 mbedtls_chachapoly_setkey
FUNC cade4 b8 0 mbedtls_chachapoly_starts
FUNC cae9c 2c 0 mbedtls_chachapoly_update_aad
FUNC caec8 130 0 mbedtls_chachapoly_update
FUNC caff8 dc 0 mbedtls_chachapoly_finish
FUNC cb0d4 40 0 mbedtls_chachapoly_encrypt_and_tag
FUNC cb114 14c 0 chachapoly_crypt_and_tag
FUNC cb260 9c 0 mbedtls_chachapoly_auth_decrypt
FUNC cb2fc 198 0 mbedtls_chachapoly_self_test
FUNC cb494 18 0 mbedtls_ccm_init
FUNC cb4ac 8c 0 mbedtls_ccm_setkey
FUNC cb538 30 0 mbedtls_ccm_free
FUNC cb568 48 0 mbedtls_ccm_star_encrypt_and_tag
FUNC cb5b0 4c8 0 ccm_auth_crypt
FUNC cba78 58 0 mbedtls_ccm_encrypt_and_tag
FUNC cbad0 a8 0 mbedtls_ccm_star_auth_decrypt
FUNC cbb78 b4 0 mbedtls_ccm_auth_decrypt
FUNC cbc2c 2a0 0 mbedtls_ccm_self_test
FUNC cbecc 4 0 aes_crypt_ecb_wrap
FUNC cbed0 4 0 aes_crypt_cbc_wrap
FUNC cbed4 4 0 aes_crypt_cfb128_wrap
FUNC cbed8 4 0 aes_crypt_ofb_wrap
FUNC cbedc 4 0 aes_crypt_ctr_wrap
FUNC cbee0 4 0 aes_setkey_enc_wrap
FUNC cbee4 4 0 aes_setkey_dec_wrap
FUNC cbee8 34 0 aes_ctx_alloc
FUNC cbf1c 24 0 aes_ctx_free
FUNC cbf40 14 0 aes_crypt_xts_wrap
FUNC cbf54 4 0 xts_aes_setkey_enc_wrap
FUNC cbf58 4 0 xts_aes_setkey_dec_wrap
FUNC cbf5c 34 0 xts_aes_ctx_alloc
FUNC cbf90 2c 0 xts_aes_ctx_free
FUNC cbfbc 10 0 gcm_aes_setkey_wrap
FUNC cbfcc 34 0 gcm_ctx_alloc
FUNC cc000 24 0 gcm_ctx_free
FUNC cc024 10 0 ccm_aes_setkey_wrap
FUNC cc034 34 0 ccm_ctx_alloc
FUNC cc068 24 0 ccm_ctx_free
FUNC cc08c 4 0 arc4_crypt_stream_wrap
FUNC cc090 2c 0 arc4_setkey_wrap
FUNC cc0bc 34 0 arc4_ctx_alloc
FUNC cc0f0 24 0 arc4_ctx_free
FUNC cc114 4 0 blowfish_crypt_ecb_wrap
FUNC cc118 4 0 blowfish_crypt_cbc_wrap
FUNC cc11c 4 0 blowfish_crypt_cfb64_wrap
FUNC cc120 4 0 blowfish_crypt_ctr_wrap
FUNC cc124 4 0 blowfish_setkey_wrap
FUNC cc128 34 0 blowfish_ctx_alloc
FUNC cc15c 24 0 blowfish_ctx_free
FUNC cc180 4 0 camellia_crypt_ecb_wrap
FUNC cc184 4 0 camellia_crypt_cbc_wrap
FUNC cc188 4 0 camellia_crypt_cfb128_wrap
FUNC cc18c 4 0 camellia_crypt_ctr_wrap
FUNC cc190 4 0 camellia_setkey_enc_wrap
FUNC cc194 4 0 camellia_setkey_dec_wrap
FUNC cc198 34 0 camellia_ctx_alloc
FUNC cc1cc 24 0 camellia_ctx_free
FUNC cc1f0 10 0 gcm_camellia_setkey_wrap
FUNC cc200 10 0 ccm_camellia_setkey_wrap
FUNC cc210 c 0 des_crypt_ecb_wrap
FUNC cc21c 4 0 des_crypt_cbc_wrap
FUNC cc220 4 0 des_setkey_enc_wrap
FUNC cc224 4 0 des_setkey_dec_wrap
FUNC cc228 34 0 des_ctx_alloc
FUNC cc25c 24 0 des_ctx_free
FUNC cc280 c 0 des3_crypt_ecb_wrap
FUNC cc28c 4 0 des3_crypt_cbc_wrap
FUNC cc290 4 0 des3_set2key_enc_wrap
FUNC cc294 4 0 des3_set2key_dec_wrap
FUNC cc298 34 0 des3_ctx_alloc
FUNC cc2cc 24 0 des3_ctx_free
FUNC cc2f0 4 0 des3_set3key_enc_wrap
FUNC cc2f4 4 0 des3_set3key_dec_wrap
FUNC cc2f8 20 0 chacha20_stream_wrap
FUNC cc318 34 0 chacha20_setkey_wrap
FUNC cc34c 34 0 chacha20_ctx_alloc
FUNC cc380 24 0 chacha20_ctx_free
FUNC cc3a4 34 0 chachapoly_setkey_wrap
FUNC cc3d8 34 0 chachapoly_ctx_alloc
FUNC cc40c 24 0 chachapoly_ctx_free
FUNC cc430 2c 0 mbedtls_aes_init
FUNC cc45c 10 0 mbedtls_aes_free
FUNC cc46c 50 0 mbedtls_aes_xts_init
FUNC cc4bc 34 0 mbedtls_aes_xts_free
FUNC cc4f0 758 0 mbedtls_aes_setkey_enc
FUNC ccc48 254 0 mbedtls_aes_setkey_dec
FUNC cce9c 74 0 mbedtls_aes_xts_setkey_enc
FUNC ccf10 74 0 mbedtls_aes_xts_setkey_dec
FUNC ccf84 4b8 0 mbedtls_internal_aes_encrypt
FUNC cd43c 4 0 mbedtls_aes_encrypt
FUNC cd440 4b8 0 mbedtls_internal_aes_decrypt
FUNC cd8f8 4 0 mbedtls_aes_decrypt
FUNC cd8fc 38 0 mbedtls_aes_crypt_ecb
FUNC cd934 2f8 0 mbedtls_aes_crypt_cbc
FUNC cdc2c 644 0 mbedtls_aes_crypt_xts
FUNC ce270 ec 0 mbedtls_aes_crypt_cfb128
FUNC ce35c f4 0 mbedtls_aes_crypt_cfb8
FUNC ce450 a4 0 mbedtls_aes_crypt_ofb
FUNC ce4f4 d0 0 mbedtls_aes_crypt_ctr
FUNC ce5c4 874 0 mbedtls_aes_self_test
FUNC cee38 2c 0 mbedtls_arc4_init
FUNC cee64 10 0 mbedtls_arc4_free
FUNC cee74 10c 0 mbedtls_arc4_setup
FUNC cef80 60 0 mbedtls_arc4_crypt
FUNC cefe0 474 0 mbedtls_arc4_self_test
FUNC cf454 c 0 mbedtls_blowfish_init
FUNC cf460 10 0 mbedtls_blowfish_free
FUNC cf470 38c 0 mbedtls_blowfish_setkey
FUNC cf7fc 12c 0 mbedtls_blowfish_crypt_ecb
FUNC cf928 1c4 0 mbedtls_blowfish_crypt_cbc
FUNC cfaec f4 0 mbedtls_blowfish_crypt_cfb64
FUNC cfbe0 128 0 mbedtls_blowfish_crypt_ctr
FUNC cfd08 30 0 mbedtls_camellia_init
FUNC cfd38 10 0 mbedtls_camellia_free
FUNC cfd48 11c0 0 mbedtls_camellia_setkey_enc
FUNC d0f08 21c 0 mbedtls_camellia_setkey_dec
FUNC d1124 470 0 mbedtls_camellia_crypt_ecb
FUNC d1594 2dc 0 mbedtls_camellia_crypt_cbc
FUNC d1870 ec 0 mbedtls_camellia_crypt_cfb128
FUNC d195c d0 0 mbedtls_camellia_crypt_ctr
FUNC d1a2c a3c 0 mbedtls_camellia_self_test
FUNC d2468 38 0 mbedtls_ct_memcmp
FUNC d24a0 c 0 mbedtls_ct_uint_mask
FUNC d24ac c 0 mbedtls_ct_size_mask
FUNC d24b8 c 0 mbedtls_ct_mpi_uint_mask
FUNC d24c4 10 0 mbedtls_ct_size_mask_ge
FUNC d24d4 c 0 mbedtls_ct_size_bool_eq
FUNC d24e0 1c 0 mbedtls_ct_mpi_uint_lt
FUNC d24fc c 0 mbedtls_ct_uint_if
FUNC d2508 c4 0 mbedtls_ct_mpi_uint_cond_assign
FUNC d25cc a4 0 mbedtls_ct_base64_enc_char
FUNC d2670 7c 0 mbedtls_ct_base64_dec_value
FUNC d26ec f0 0 mbedtls_ct_memcpy_if_eq
FUNC d27dc 148 0 mbedtls_ct_memcpy_offset
FUNC d2924 3c4 0 mbedtls_ct_hmac
FUNC d2ce8 150 0 mbedtls_mpi_safe_cond_assign
FUNC d2e38 e0 0 mbedtls_mpi_safe_cond_swap
FUNC d2f18 d4 0 mbedtls_mpi_lt_mpi_ct
FUNC d2fec 298 0 mbedtls_ct_rsaes_pkcs1_v15_unpadding
FUNC d3284 48 0 mbedtls_ctr_drbg_init
FUNC d32cc 44 0 mbedtls_ctr_drbg_free
FUNC d3310 8 0 mbedtls_ctr_drbg_set_prediction_resistance
FUNC d3318 8 0 mbedtls_ctr_drbg_set_entropy_len
FUNC d3320 30 0 mbedtls_ctr_drbg_set_nonce_len
FUNC d3350 8 0 mbedtls_ctr_drbg_set_reseed_interval
FUNC d3358 7c 0 mbedtls_ctr_drbg_update_ret
FUNC d33d4 2ec 0 block_cipher_df
FUNC d36c0 1e4 0 ctr_drbg_update_internal
FUNC d38a4 78 0 mbedtls_ctr_drbg_update
FUNC d391c 8 0 mbedtls_ctr_drbg_reseed
FUNC d3924 174 0 mbedtls_ctr_drbg_reseed_internal
FUNC d3a98 d0 0 mbedtls_ctr_drbg_seed
FUNC d3b68 260 0 mbedtls_ctr_drbg_random_with_add
FUNC d3dc8 c 0 mbedtls_ctr_drbg_random
FUNC d3dd4 c8 0 mbedtls_ctr_drbg_write_seed_file
FUNC d3e9c 194 0 mbedtls_ctr_drbg_update_seed_file
FUNC d4030 410 0 mbedtls_ctr_drbg_self_test
FUNC d4440 48 0 ctr_drbg_self_test_entropy
FUNC d4488 18 0 mbedtls_des_init
FUNC d44a0 10 0 mbedtls_des_free
FUNC d44b0 38 0 mbedtls_des3_init
FUNC d44e8 10 0 mbedtls_des3_free
FUNC d44f8 8c 0 mbedtls_des_key_set_parity
FUNC d4584 b4 0 mbedtls_des_key_check_key_parity
FUNC d4638 17c 0 mbedtls_des_key_check_weak
FUNC d47b4 394 0 mbedtls_des_setkey
FUNC d4b48 18 0 mbedtls_des_setkey_enc
FUNC d4b60 64 0 mbedtls_des_setkey_dec
FUNC d4bc4 d8 0 mbedtls_des3_set2key_enc
FUNC d4c9c dc 0 mbedtls_des3_set2key_dec
FUNC d4d78 e4 0 mbedtls_des3_set3key_enc
FUNC d4e5c e8 0 mbedtls_des3_set3key_dec
FUNC d4f44 258 0 mbedtls_des_crypt_ecb
FUNC d519c 1bc 0 mbedtls_des_crypt_cbc
FUNC d5358 440 0 mbedtls_des3_crypt_ecb
FUNC d5798 1bc 0 mbedtls_des3_crypt_cbc
FUNC d5954 814 0 mbedtls_des_self_test
FUNC d6168 2c 0 mbedtls_dhm_init
FUNC d6194 1ec 0 mbedtls_dhm_read_params
FUNC d6380 108 0 mbedtls_dhm_make_params
FUNC d6488 16c 0 dhm_make_common
FUNC d65f4 5c 0 mbedtls_dhm_set_group
FUNC d6650 40 0 mbedtls_dhm_read_public
FUNC d6690 8c 0 mbedtls_dhm_make_public
FUNC d671c 3c8 0 mbedtls_dhm_calc_secret
FUNC d6ae4 7c 0 mbedtls_dhm_free
FUNC d6b60 1a8 0 mbedtls_dhm_parse_dhm
FUNC d6d08 134 0 mbedtls_dhm_parse_dhmfile
FUNC d6e3c e8 0 mbedtls_dhm_self_test
FUNC d6f24 8 0 mbedtls_ecdh_can_do
FUNC d6f2c 7c 0 mbedtls_ecdh_gen_public
FUNC d6fa8 d0 0 mbedtls_ecdh_compute_shared
FUNC d7078 5c 0 mbedtls_ecdh_init
FUNC d70d4 20 0 mbedtls_ecdh_setup
FUNC d70f4 60 0 mbedtls_ecdh_free
FUNC d7154 104 0 mbedtls_ecdh_make_params
FUNC d7258 98 0 mbedtls_ecdh_read_params
FUNC d72f0 a8 0 mbedtls_ecdh_get_params
FUNC d7398 c0 0 mbedtls_ecdh_make_public
FUNC d7458 80 0 mbedtls_ecdh_read_public
FUNC d74d8 148 0 mbedtls_ecdh_calc_secret
FUNC d7620 c 0 mbedtls_ecp_curve_list
FUNC d762c 54 0 mbedtls_ecp_grp_id_list
FUNC d7680 24 0 mbedtls_ecp_curve_info_from_grp_id
FUNC d76a4 2c 0 mbedtls_ecp_curve_info_from_tls_id
FUNC d76d0 1c0 0 mbedtls_ecp_curve_info_from_name
FUNC d7890 24 0 mbedtls_ecp_get_type
FUNC d78b4 2c 0 mbedtls_ecp_point_init
FUNC d78e0 6c 0 mbedtls_ecp_group_init
FUNC d794c 88 0 mbedtls_ecp_keypair_init
FUNC d79d4 34 0 mbedtls_ecp_point_free
FUNC d7a08 d8 0 mbedtls_ecp_group_free
FUNC d7ae0 44 0 mbedtls_ecp_keypair_free
FUNC d7b24 4c 0 mbedtls_ecp_copy
FUNC d7b70 8 0 mbedtls_ecp_group_copy
FUNC d7b78 4c 0 mbedtls_ecp_set_zero
FUNC d7bc4 24 0 mbedtls_ecp_is_zero
FUNC d7be8 4c 0 mbedtls_ecp_point_cmp
FUNC d7c34 60 0 mbedtls_ecp_point_read_string
FUNC d7c94 178 0 mbedtls_ecp_point_write_binary
FUNC d7e0c 174 0 mbedtls_ecp_point_read_binary
FUNC d7f80 48 0 mbedtls_ecp_tls_read_point
FUNC d7fc8 50 0 mbedtls_ecp_tls_write_point
FUNC d8018 74 0 mbedtls_ecp_tls_read_group
FUNC d808c 7c 0 mbedtls_ecp_tls_read_group_id
FUNC d8108 58 0 mbedtls_ecp_tls_write_group
FUNC d8160 b2c 0 mbedtls_ecp_mul_restartable
FUNC d8c8c cc 0 mbedtls_ecp_check_privkey
FUNC d8d58 2bc 0 mbedtls_ecp_check_pubkey
FUNC d9014 4 0 mbedtls_ecp_mul
FUNC d9018 12c 0 mbedtls_ecp_muladd_restartable
FUNC d9144 184 0 mbedtls_ecp_mul_shortcuts
FUNC d92c8 3e8 0 ecp_add_mixed
FUNC d96b0 108 0 ecp_normalize_jac
FUNC d97b8 8 0 mbedtls_ecp_muladd
FUNC d97c0 fc 0 mbedtls_ecp_gen_privkey
FUNC d98bc 80 0 mbedtls_ecp_gen_keypair_base
FUNC d993c 78 0 mbedtls_ecp_gen_keypair
FUNC d99b4 7c 0 mbedtls_ecp_gen_key
FUNC d9a30 13c 0 mbedtls_ecp_read_key
FUNC d9b6c a8 0 mbedtls_ecp_write_key
FUNC d9c14 13c 0 mbedtls_ecp_check_pub_priv
FUNC d9d50 270 0 mbedtls_ecp_self_test
FUNC d9fc0 194 0 self_test_point
FUNC da154 4 0 ecp_drbg_random
FUNC da158 d0 0 ecp_randomize_mxz
FUNC da228 304 0 ecp_double_add_mxz
FUNC da52c 60 0 ecp_normalize_mxz
FUNC da58c 108 0 mbedtls_mpi_mul_mod
FUNC da694 60 0 mbedtls_mpi_add_mod
FUNC da6f4 68 0 mbedtls_mpi_sub_mod
FUNC da75c 3c4 0 ecp_double_jac
FUNC dab20 2ac 0 ecp_normalize_jac_many
FUNC dadcc 5c 0 mbedtls_mpi_shift_l_mod
FUNC dae28 134 0 ecp_randomize_jac
FUNC daf5c 108 0 ecp_select_comb
FUNC db064 740 0 mbedtls_ecp_group_load
FUNC db7a4 d4 0 ecp_mod_p192
FUNC db878 2dc 0 ecp_mod_p224
FUNC dbb54 490 0 ecp_mod_p256
FUNC dbfe4 5d0 0 ecp_mod_p384
FUNC dc5b4 e4 0 ecp_mod_p521
FUNC dc698 1c 0 ecp_mod_p192k1
FUNC dc6b4 1c 0 ecp_mod_p224k1
FUNC dc6d0 1c 0 ecp_mod_p256k1
FUNC dc6ec 124 0 ecp_mod_p255
FUNC dc810 18c 0 ecp_mod_p448
FUNC dc99c 228 0 ecp_mod_koblitz
FUNC dcbc4 a4 0 mbedtls_entropy_init
FUNC dcc68 3c 0 mbedtls_entropy_add_source
FUNC dcca4 48 0 mbedtls_entropy_free
FUNC dccec 10 0 mbedtls_entropy_update_manual
FUNC dccfc fc 0 entropy_update
FUNC dcdf8 4 0 mbedtls_entropy_gather
FUNC dcdfc 114 0 entropy_gather_internal
FUNC dcf10 1dc 0 mbedtls_entropy_func
FUNC dd0ec c0 0 mbedtls_entropy_write_seed_file
FUNC dd1ac 114 0 mbedtls_entropy_update_seed_file
FUNC dd2c0 420 0 mbedtls_entropy_self_test
FUNC dd6e0 34 0 entropy_dummy_source
FUNC dd714 84 0 mbedtls_platform_entropy_poll
FUNC dd798 4c 0 mbedtls_hardclock_poll
FUNC dd7e4 38 0 mbedtls_high_level_strerr
FUNC dd81c 34 0 mbedtls_low_level_strerr
FUNC dd850 158 0 mbedtls_strerror
FUNC dd9a8 a4 0 _ZL8snprintfPcU17pass_object_size1mPKcz
FUNC dda4c 3c 0 mbedtls_gcm_init
FUNC dda88 208 0 mbedtls_gcm_setkey
FUNC ddc90 2fc 0 mbedtls_gcm_starts
FUNC ddf8c 138 0 gcm_mult
FUNC de0c4 198 0 mbedtls_gcm_update
FUNC de25c 1bc 0 mbedtls_gcm_finish
FUNC de418 8c 0 mbedtls_gcm_crypt_and_tag
FUNC de4a4 bc 0 mbedtls_gcm_auth_decrypt
FUNC de560 30 0 mbedtls_gcm_free
FUNC de590 784 0 mbedtls_gcm_self_test
FUNC ded14 20 0 mbedtls_hmac_drbg_init
FUNC ded34 15c 0 mbedtls_hmac_drbg_update_ret
FUNC dee90 4 0 mbedtls_hmac_drbg_update
FUNC dee94 90 0 mbedtls_hmac_drbg_seed_buf
FUNC def24 118 0 mbedtls_hmac_drbg_reseed
FUNC df03c 1b4 0 mbedtls_hmac_drbg_seed
FUNC df1f0 8 0 mbedtls_hmac_drbg_set_prediction_resistance
FUNC df1f8 8 0 mbedtls_hmac_drbg_set_entropy_len
FUNC df200 8 0 mbedtls_hmac_drbg_set_reseed_interval
FUNC df208 228 0 mbedtls_hmac_drbg_random_with_add
FUNC df430 c 0 mbedtls_hmac_drbg_random
FUNC df43c 38 0 mbedtls_hmac_drbg_free
FUNC df474 c8 0 mbedtls_hmac_drbg_write_seed_file
FUNC df53c 178 0 mbedtls_hmac_drbg_update_seed_file
FUNC df6b4 2c4 0 mbedtls_hmac_drbg_self_test
FUNC df978 48 0 hmac_drbg_self_test_entropy
FUNC df9c0 c 0 mbedtls_md_list
FUNC df9cc 114 0 mbedtls_md_info_from_string
FUNC dfae0 24 0 mbedtls_md_info_from_type
FUNC dfb04 c 0 mbedtls_md_init
FUNC dfb10 cc 0 mbedtls_md_free
FUNC dfbdc d0 0 mbedtls_md_clone
FUNC dfcac 8 0 mbedtls_md_init_ctx
FUNC dfcb4 184 0 mbedtls_md_setup
FUNC dfe38 a8 0 mbedtls_md_starts
FUNC dfee0 78 0 mbedtls_md_update
FUNC dff58 78 0 mbedtls_md_finish
FUNC dffd0 d8 0 mbedtls_md
FUNC e00a8 124 0 mbedtls_md_file
FUNC e01cc 26c 0 mbedtls_md_hmac_starts
FUNC e0438 20 0 mbedtls_md_hmac_update
FUNC e0458 cc 0 mbedtls_md_hmac_finish
FUNC e0524 58 0 mbedtls_md_hmac_reset
FUNC e057c ec 0 mbedtls_md_hmac
FUNC e0668 78 0 mbedtls_md_process
FUNC e06e0 c 0 mbedtls_md_get_size
FUNC e06ec c 0 mbedtls_md_get_type
FUNC e06f8 c 0 mbedtls_md_get_name
FUNC e0704 18 0 mbedtls_md5_init
FUNC e071c 10 0 mbedtls_md5_free
FUNC e072c 24 0 mbedtls_md5_clone
FUNC e0750 24 0 mbedtls_md5_starts_ret
FUNC e0774 1c 0 mbedtls_md5_starts
FUNC e0790 a44 0 mbedtls_internal_md5_process
FUNC e11d4 4 0 mbedtls_md5_process
FUNC e11d8 d8 0 mbedtls_md5_update_ret
FUNC e12b0 4 0 mbedtls_md5_update
FUNC e12b4 168 0 mbedtls_md5_finish_ret
FUNC e141c 4 0 mbedtls_md5_finish
FUNC e1420 90 0 mbedtls_md5_ret
FUNC e14b0 8c 0 mbedtls_md5
FUNC e153c 158 0 mbedtls_md5_self_test
FUNC e1694 80 0 mbedtls_oid_get_attr_short_name
FUNC e1714 11c 0 mbedtls_oid_get_x509_ext_type
FUNC e1830 154 0 mbedtls_oid_get_extended_key_usage
FUNC e1984 40 0 mbedtls_oid_get_certificate_policies
FUNC e19c4 3c 0 mbedtls_oid_get_sig_alg_desc
FUNC e1a00 254 0 oid_sig_alg_from_asn1
FUNC e1c54 48 0 mbedtls_oid_get_sig_alg
FUNC e1c9c a0 0 mbedtls_oid_get_oid_by_sig_alg
FUNC e1d3c c8 0 mbedtls_oid_get_pk_alg
FUNC e1e04 4c 0 mbedtls_oid_get_oid_by_pk_alg
FUNC e1e50 1d8 0 mbedtls_oid_get_ec_grp
FUNC e2028 58 0 mbedtls_oid_get_oid_by_ec_grp
FUNC e2080 84 0 mbedtls_oid_get_cipher_alg
FUNC e2104 148 0 mbedtls_oid_get_md_alg
FUNC e224c 4c 0 mbedtls_oid_get_oid_by_md
FUNC e2298 f0 0 mbedtls_oid_get_md_hmac
FUNC e2388 88 0 mbedtls_oid_get_pkcs12_pbe_alg
FUNC e2410 164 0 mbedtls_oid_get_numeric_string
FUNC e2574 a4 0 _ZL8snprintfPcU17pass_object_size1mPKcz
FUNC e2618 c 0 mbedtls_pem_init
FUNC e2624 5d8 0 mbedtls_pem_read_buffer
FUNC e2bfc cc 0 pem_get_iv
FUNC e2cc8 e0 0 pem_des3_decrypt
FUNC e2da8 d8 0 pem_des_decrypt
FUNC e2e80 f4 0 pem_aes_decrypt
FUNC e2f74 44 0 mbedtls_pem_free
FUNC e2fb8 1dc 0 mbedtls_pem_write_buffer
FUNC e3194 18c 0 pem_pbkdf1
FUNC e3320 1d4 0 mbedtls_base64_encode
FUNC e34f4 260 0 mbedtls_base64_decode
FUNC e3754 1a4 0 mbedtls_base64_self_test
FUNC e38f8 8 0 mbedtls_pk_init
FUNC e3900 44 0 mbedtls_pk_free
FUNC e3944 24 0 mbedtls_pk_info_from_type
FUNC e3968 5c 0 mbedtls_pk_setup
FUNC e39c4 80 0 mbedtls_pk_setup_rsa_alt
FUNC e3a44 20 0 mbedtls_pk_can_do
FUNC e3a64 e4 0 mbedtls_pk_verify_restartable
FUNC e3b48 e4 0 mbedtls_pk_verify
FUNC e3c2c 1d0 0 mbedtls_pk_verify_ext
FUNC e3dfc 100 0 mbedtls_pk_sign_restartable
FUNC e3efc 100 0 mbedtls_pk_sign
FUNC e3ffc 28 0 mbedtls_pk_decrypt
FUNC e4024 28 0 mbedtls_pk_encrypt
FUNC e404c 5c 0 mbedtls_pk_check_pair
FUNC e40a8 20 0 mbedtls_pk_get_bitlen
FUNC e40c8 3c 0 mbedtls_pk_debug
FUNC e4104 20 0 mbedtls_pk_get_name
FUNC e4124 1c 0 mbedtls_pk_get_type
FUNC e4140 94 0 rsa_get_bitlen
FUNC e41d4 10 0 rsa_can_do
FUNC e41e4 a8 0 rsa_verify_wrap
FUNC e428c a4 0 rsa_sign_wrap
FUNC e4330 98 0 rsa_decrypt_wrap
FUNC e43c8 98 0 rsa_encrypt_wrap
FUNC e4460 4 0 rsa_check_pair_wrap
FUNC e4464 3c 0 rsa_alloc_wrap
FUNC e44a0 24 0 rsa_free_wrap
FUNC e44c4 30 0 rsa_debug
FUNC e44f4 8 0 eckey_get_bitlen
FUNC e44fc 14 0 eckey_can_do
FUNC e4510 bc 0 eckey_verify_wrap
FUNC e45cc d0 0 eckey_sign_wrap
FUNC e469c 4 0 eckey_check_pair
FUNC e46a0 34 0 eckey_alloc_wrap
FUNC e46d4 24 0 eckey_free_wrap
FUNC e46f8 1c 0 eckey_debug
FUNC e4714 10 0 eckeydh_can_do
FUNC e4724 c 0 ecdsa_can_do
FUNC e4730 34 0 ecdsa_verify_wrap
FUNC e4764 4 0 ecdsa_sign_wrap
FUNC e4768 34 0 ecdsa_alloc_wrap
FUNC e479c 24 0 ecdsa_free_wrap
FUNC e47c0 20 0 rsa_alt_get_bitlen
FUNC e47e0 c 0 rsa_alt_can_do
FUNC e47ec b0 0 rsa_alt_sign_wrap
FUNC e489c 84 0 rsa_alt_decrypt_wrap
FUNC e4920 168 0 rsa_alt_check_pair
FUNC e4a88 c 0 rsa_alt_alloc_wrap
FUNC e4a94 28 0 rsa_alt_free_wrap
FUNC e4abc 10 0 mbedtls_ecdsa_can_do
FUNC e4acc 20 0 mbedtls_ecdsa_sign
FUNC e4aec 280 0 ecdsa_sign_restartable
FUNC e4d6c 24 0 mbedtls_ecdsa_sign_det
FUNC e4d90 228 0 ecdsa_sign_det_restartable
FUNC e4fb8 c 0 mbedtls_ecdsa_sign_det_ext
FUNC e4fc4 4 0 mbedtls_ecdsa_verify
FUNC e4fc8 27c 0 ecdsa_verify_restartable
FUNC e5244 184 0 mbedtls_ecdsa_write_signature_restartable
FUNC e53c8 1c 0 mbedtls_ecdsa_write_signature
FUNC e53e4 3c 0 mbedtls_ecdsa_write_signature_det
FUNC e5420 4 0 mbedtls_ecdsa_read_signature
FUNC e5424 120 0 mbedtls_ecdsa_read_signature_restartable
FUNC e5544 58 0 mbedtls_ecdsa_genkey
FUNC e559c 5c 0 mbedtls_ecdsa_from_keypair
FUNC e55f8 c 0 mbedtls_ecdsa_free
FUNC e5604 4 0 mbedtls_ecdsa_init
FUNC e5608 a0 0 derive_mpi
FUNC e56a8 1b0 0 mbedtls_asn1_write_len
FUNC e5858 2c 0 mbedtls_asn1_write_tag
FUNC e5884 54 0 mbedtls_asn1_write_raw_buffer
FUNC e58d8 e0 0 mbedtls_asn1_write_mpi
FUNC e59b8 4c 0 mbedtls_asn1_write_null
FUNC e5a04 a8 0 mbedtls_asn1_write_oid
FUNC e5aac 8 0 mbedtls_asn1_write_algorithm_identifier
FUNC e5ab4 140 0 mbedtls_asn1_write_algorithm_identifier_ext
FUNC e5bf4 70 0 mbedtls_asn1_write_bool
FUNC e5c64 c4 0 mbedtls_asn1_write_int
FUNC e5d28 c4 0 mbedtls_asn1_write_enum
FUNC e5dec a8 0 mbedtls_asn1_write_tagged_string
FUNC e5e94 a8 0 mbedtls_asn1_write_utf8_string
FUNC e5f3c a8 0 mbedtls_asn1_write_printable_string
FUNC e5fe4 a8 0 mbedtls_asn1_write_ia5_string
FUNC e608c 148 0 mbedtls_asn1_write_named_bitstring
FUNC e61d4 f8 0 mbedtls_asn1_write_bitstring
FUNC e62cc a8 0 mbedtls_asn1_write_octet_string
FUNC e6374 154 0 mbedtls_asn1_store_named_data
FUNC e64c8 114 0 mbedtls_pk_load_file
FUNC e65dc cc 0 mbedtls_pk_parse_keyfile
FUNC e66a8 3e0 0 mbedtls_pk_parse_key
FUNC e6a88 a8 0 mbedtls_pk_parse_public_keyfile
FUNC e6b30 230 0 mbedtls_pk_parse_public_key
FUNC e6d60 218 0 mbedtls_pk_parse_subpubkey
FUNC e6f78 174 0 pk_get_rsapubkey
FUNC e70ec 4a8 0 pk_use_ecparams
FUNC e7594 54 0 pk_get_ecpubkey
FUNC e75e8 2ec 0 pk_parse_key_pkcs1_der
FUNC e78d4 238 0 pk_parse_key_sec1_der
FUNC e7b0c 218 0 pk_parse_key_pkcs8_unencrypted_der
FUNC e7d24 1ec 0 pk_parse_key_pkcs8_encrypted_der
FUNC e7f10 3c 0 asn1_get_nonzero_mpi
FUNC e7f4c 9c 0 pk_get_ecparams
FUNC e7fe8 e0 0 mbedtls_pkcs12_pbe_sha1_rc4_128
FUNC e80c8 238 0 pkcs12_pbe_derive_key_iv
FUNC e8300 5c 0 mbedtls_pkcs12_pbe
FUNC e835c 1f0 0 mbedtls_pkcs12_pbe_ext
FUNC e854c 3a0 0 mbedtls_pkcs12_derivation
FUNC e88ec 54 0 mbedtls_pkcs5_pbes2
FUNC e8940 3ac 0 mbedtls_pkcs5_pbes2_ext
FUNC e8cec 39c 0 mbedtls_pkcs5_pbkdf2_hmac
FUNC e9088 188 0 mbedtls_pkcs5_self_test
FUNC e9210 1c 0 mbedtls_platform_zeroize
FUNC e922c 4 0 mbedtls_platform_gmtime_r
FUNC e9230 8 0 mbedtls_poly1305_init
FUNC e9238 10 0 mbedtls_poly1305_free
FUNC e9248 94 0 mbedtls_poly1305_starts
FUNC e92dc 100 0 mbedtls_poly1305_update
FUNC e93dc 138 0 poly1305_process
FUNC e9514 168 0 mbedtls_poly1305_finish
FUNC e967c f4 0 mbedtls_poly1305_mac
FUNC e9770 1e0 0 mbedtls_poly1305_self_test
FUNC e9950 18 0 mbedtls_ripemd160_init
FUNC e9968 10 0 mbedtls_ripemd160_free
FUNC e9978 24 0 mbedtls_ripemd160_clone
FUNC e999c 30 0 mbedtls_ripemd160_starts_ret
FUNC e99cc 28 0 mbedtls_ripemd160_starts
FUNC e99f4 1694 0 mbedtls_internal_ripemd160_process
FUNC eb088 4 0 mbedtls_ripemd160_process
FUNC eb08c d8 0 mbedtls_ripemd160_update_ret
FUNC eb164 4 0 mbedtls_ripemd160_update
FUNC eb168 180 0 mbedtls_ripemd160_finish_ret
FUNC eb2e8 4 0 mbedtls_ripemd160_finish
FUNC eb2ec 9c 0 mbedtls_ripemd160_ret
FUNC eb388 98 0 mbedtls_ripemd160
FUNC eb420 184 0 mbedtls_ripemd160_self_test
FUNC eb5a4 d0 0 mbedtls_rsa_import
FUNC eb674 d8 0 mbedtls_rsa_import_raw
FUNC eb74c 1fc 0 mbedtls_rsa_complete
FUNC eb948 11c 0 rsa_check_context
FUNC eba64 16c 0 mbedtls_rsa_export_raw
FUNC ebbd0 108 0 mbedtls_rsa_export
FUNC ebcd8 d4 0 mbedtls_rsa_export_crt
FUNC ebdac 3c 0 mbedtls_rsa_init
FUNC ebde8 c 0 mbedtls_rsa_set_padding
FUNC ebdf4 8 0 mbedtls_rsa_get_len
FUNC ebdfc 2d8 0 mbedtls_rsa_gen_key
FUNC ec0d4 94 0 mbedtls_rsa_check_privkey
FUNC ec168 88 0 mbedtls_rsa_free
FUNC ec1f0 cc 0 mbedtls_rsa_check_pubkey
FUNC ec2bc c4 0 mbedtls_rsa_check_pub_priv
FUNC ec380 150 0 mbedtls_rsa_public
FUNC ec4d0 51c 0 mbedtls_rsa_private
FUNC ec9ec 11c 0 rsa_unblind
FUNC ecb08 240 0 mbedtls_rsa_rsaes_oaep_encrypt
FUNC ecd48 240 0 mgf_mask
FUNC ecf88 1a4 0 mbedtls_rsa_rsaes_pkcs1_v15_encrypt
FUNC ed12c 58 0 mbedtls_rsa_pkcs1_encrypt
FUNC ed184 28c 0 mbedtls_rsa_rsaes_oaep_decrypt
FUNC ed410 104 0 mbedtls_rsa_rsaes_pkcs1_v15_decrypt
FUNC ed514 13c 0 mbedtls_rsa_pkcs1_decrypt
FUNC ed650 38 0 mbedtls_rsa_rsassa_pss_sign_ext
FUNC ed688 2d4 0 rsa_rsassa_pss_sign
FUNC ed95c 28 0 mbedtls_rsa_rsassa_pss_sign
FUNC ed984 18c 0 mbedtls_rsa_rsassa_pkcs1_v15_sign
FUNC edb10 1d4 0 rsa_rsassa_pkcs1_v15_encode
FUNC edce4 44 0 mbedtls_rsa_pkcs1_sign
FUNC edd28 2c8 0 mbedtls_rsa_rsassa_pss_verify_ext
FUNC edff0 38 0 mbedtls_rsa_rsassa_pss_verify
FUNC ee028 154 0 mbedtls_rsa_rsassa_pkcs1_v15_verify
FUNC ee17c 54 0 mbedtls_rsa_pkcs1_verify
FUNC ee1d0 14c 0 mbedtls_rsa_copy
FUNC ee31c 43c 0 mbedtls_rsa_self_test
FUNC ee758 38 0 myrand
FUNC ee790 2fc 0 mbedtls_rsa_deduce_primes
FUNC eea8c 154 0 mbedtls_rsa_deduce_private_exponent
FUNC eebe0 200 0 mbedtls_rsa_validate_crt
FUNC eede0 2d0 0 mbedtls_rsa_validate_params
FUNC ef0b0 114 0 mbedtls_rsa_deduce_crt
FUNC ef1c4 18 0 mbedtls_sha1_init
FUNC ef1dc 10 0 mbedtls_sha1_free
FUNC ef1ec 24 0 mbedtls_sha1_clone
FUNC ef210 30 0 mbedtls_sha1_starts_ret
FUNC ef240 28 0 mbedtls_sha1_starts
FUNC ef268 1050 0 mbedtls_internal_sha1_process
FUNC f02b8 4 0 mbedtls_sha1_process
FUNC f02bc d8 0 mbedtls_sha1_update_ret
FUNC f0394 4 0 mbedtls_sha1_update
FUNC f0398 18c 0 mbedtls_sha1_finish_ret
FUNC f0524 4 0 mbedtls_sha1_finish
FUNC f0528 9c 0 mbedtls_sha1_ret
FUNC f05c4 98 0 mbedtls_sha1
FUNC f065c 288 0 mbedtls_sha1_self_test
FUNC f08e4 18 0 mbedtls_sha256_init
FUNC f08fc 10 0 mbedtls_sha256_free
FUNC f090c 2c 0 mbedtls_sha256_clone
FUNC f0938 54 0 mbedtls_sha256_starts_ret
FUNC f098c 4c 0 mbedtls_sha256_starts
FUNC f09d8 a24 0 mbedtls_internal_sha256_process
FUNC f13fc 4 0 mbedtls_sha256_process
FUNC f1400 d8 0 mbedtls_sha256_update_ret
FUNC f14d8 4 0 mbedtls_sha256_update
FUNC f14dc 200 0 mbedtls_sha256_finish_ret
FUNC f16dc 4 0 mbedtls_sha256_finish
FUNC f16e0 c8 0 mbedtls_sha256_ret
FUNC f17a8 c4 0 mbedtls_sha256
FUNC f186c 24c 0 mbedtls_sha256_self_test
FUNC f1ab8 28 0 mbedtls_sha512_init
FUNC f1ae0 10 0 mbedtls_sha512_free
FUNC f1af0 44 0 mbedtls_sha512_clone
FUNC f1b34 64 0 mbedtls_sha512_starts_ret
FUNC f1b98 5c 0 mbedtls_sha512_starts
FUNC f1bf4 904 0 mbedtls_internal_sha512_process
FUNC f24f8 4 0 mbedtls_sha512_process
FUNC f24fc dc 0 mbedtls_sha512_update_ret
FUNC f25d8 4 0 mbedtls_sha512_update
FUNC f25dc 3a8 0 mbedtls_sha512_finish_ret
FUNC f2984 4 0 mbedtls_sha512_finish
FUNC f2988 e8 0 mbedtls_sha512_ret
FUNC f2a70 e4 0 mbedtls_sha512
FUNC f2b54 278 0 mbedtls_sha512_self_test
FUNC f2dcc 94 0 mbedtls_timing_hardclock
FUNC f2e60 b0 0 mbedtls_timing_get_timer
FUNC f2f10 4c 0 mbedtls_set_alarm
FUNC f2f5c 1c 0 sighandler
FUNC f2f78 60 0 mbedtls_timing_set_delay
FUNC f2fd8 c0 0 mbedtls_timing_get_delay
FUNC f3098 7d8 0 mbedtls_timing_self_test
PUBLIC f3870 0 unwind_phase2
PUBLIC f39a4 0 _Unwind_Resume
PUBLIC f3a28 0 unwind_phase2_forced
PUBLIC m f3b1c 0 __unw_init_local
PUBLIC m f3bc4 0 __unw_get_reg
PUBLIC f3c40 0 __unw_step_stage2
PUBLIC m f3c54 0 __unw_get_proc_info
PUBLIC m f3c94 0 __unw_resume
PUBLIC f3cbc 0 libunwind::CFI_Parser<libunwind::LocalAddressSpace>::decodeFDE(libunwind::LocalAddressSpace&, unsigned long, libunwind::CFI_Parser<libunwind::LocalAddressSpace>::FDE_Info*, libunwind::CFI_Parser<libunwind::LocalAddressSpace>::CIE_Info*, bool)
PUBLIC f3e4c 0 libunwind::CFI_Parser<libunwind::LocalAddressSpace>::parseCIE(libunwind::LocalAddressSpace&, unsigned long, libunwind::CFI_Parser<libunwind::LocalAddressSpace>::CIE_Info*)
PUBLIC f4114 0 libunwind::AbstractUnwindCursor::~AbstractUnwindCursor()
PUBLIC f411c 0 libunwind::UnwindCursor<libunwind::LocalAddressSpace, libunwind::Registers_arm64>::~UnwindCursor()
PUBLIC f4124 0 libunwind::UnwindCursor<libunwind::LocalAddressSpace, libunwind::Registers_arm64>::validReg(int)
PUBLIC f4168 0 libunwind::UnwindCursor<libunwind::LocalAddressSpace, libunwind::Registers_arm64>::getReg(int)
PUBLIC f4250 0 libunwind::UnwindCursor<libunwind::LocalAddressSpace, libunwind::Registers_arm64>::setReg(int, unsigned long)
PUBLIC f4338 0 libunwind::UnwindCursor<libunwind::LocalAddressSpace, libunwind::Registers_arm64>::validFloatReg(int)
PUBLIC f434c 0 libunwind::UnwindCursor<libunwind::LocalAddressSpace, libunwind::Registers_arm64>::getFloatReg(int)
PUBLIC f435c 0 libunwind::UnwindCursor<libunwind::LocalAddressSpace, libunwind::Registers_arm64>::setFloatReg(int, double)
PUBLIC f436c 0 libunwind::UnwindCursor<libunwind::LocalAddressSpace, libunwind::Registers_arm64>::step(bool)
PUBLIC f445c 0 libunwind::UnwindCursor<libunwind::LocalAddressSpace, libunwind::Registers_arm64>::getInfo(unw_proc_info_t*)
PUBLIC f44a0 0 libunwind::UnwindCursor<libunwind::LocalAddressSpace, libunwind::Registers_arm64>::jumpto()
PUBLIC f44ac 0 libunwind::UnwindCursor<libunwind::LocalAddressSpace, libunwind::Registers_arm64>::isSignalFrame()
PUBLIC f44b8 0 libunwind::UnwindCursor<libunwind::LocalAddressSpace, libunwind::Registers_arm64>::getFunctionName(char*, unsigned long, unsigned long*)
PUBLIC f44e4 0 libunwind::UnwindCursor<libunwind::LocalAddressSpace, libunwind::Registers_arm64>::setInfoBasedOnIPRegister(bool)
PUBLIC f4764 0 libunwind::UnwindCursor<libunwind::LocalAddressSpace, libunwind::Registers_arm64>::getRegisterName(int)
PUBLIC f4770 0 libunwind::UnwindCursor<libunwind::LocalAddressSpace, libunwind::Registers_arm64>::stepThroughSigReturn(libunwind::Registers_arm64&)
PUBLIC f4890 0 libunwind::DwarfInstructions<libunwind::LocalAddressSpace, libunwind::Registers_arm64>::stepWithDwarf(libunwind::LocalAddressSpace&, unsigned long, unsigned long, libunwind::Registers_arm64&, bool&, bool)
PUBLIC f4d18 0 libunwind::CFI_Parser<libunwind::LocalAddressSpace>::parseFDEInstructions(libunwind::LocalAddressSpace&, libunwind::CFI_Parser<libunwind::LocalAddressSpace>::FDE_Info const&, libunwind::CFI_Parser<libunwind::LocalAddressSpace>::CIE_Info const&, unsigned long, int, libunwind::CFI_Parser<libunwind::LocalAddressSpace>::PrologInfo*)
PUBLIC f5960 0 libunwind::DwarfInstructions<libunwind::LocalAddressSpace, libunwind::Registers_arm64>::getCFA(libunwind::LocalAddressSpace&, libunwind::CFI_Parser<libunwind::LocalAddressSpace>::PrologInfo const&, libunwind::Registers_arm64 const&)
PUBLIC f5a94 0 libunwind::DwarfInstructions<libunwind::LocalAddressSpace, libunwind::Registers_arm64>::getSavedRegister(libunwind::LocalAddressSpace&, libunwind::Registers_arm64 const&, unsigned long, libunwind::CFI_Parser<libunwind::LocalAddressSpace>::RegisterLocation const&)
PUBLIC f5ca4 0 libunwind::LocalAddressSpace::getEncodedP(unsigned long&, unsigned long, unsigned char, unsigned long)
PUBLIC f6030 0 libunwind::LocalAddressSpace::getULEB128(unsigned long&, unsigned long)
PUBLIC f61f8 0 libunwind::DwarfInstructions<libunwind::LocalAddressSpace, libunwind::Registers_arm64>::evaluateExpression(unsigned long, libunwind::LocalAddressSpace&, libunwind::Registers_arm64 const&, unsigned long)
PUBLIC f6bb4 0 libunwind::UnwindCursor<libunwind::LocalAddressSpace, libunwind::Registers_arm64>::getInfoFromDwarfSection(unsigned long, libunwind::UnwindInfoSections const&, unsigned int)
PUBLIC f6e88 0 libunwind::findUnwindSectionsByPhdr(dl_phdr_info*, unsigned long, void*)
PUBLIC f6fbc 0 libunwind::EHHeaderParser<libunwind::LocalAddressSpace>::decodeEHHdr(libunwind::LocalAddressSpace&, unsigned long, unsigned long, libunwind::EHHeaderParser<libunwind::LocalAddressSpace>::EHHeaderInfo&)
PUBLIC f70dc 0 libunwind::CFI_Parser<libunwind::LocalAddressSpace>::findFDE(libunwind::LocalAddressSpace&, unsigned long, unsigned long, unsigned long, unsigned long, libunwind::CFI_Parser<libunwind::LocalAddressSpace>::FDE_Info*, libunwind::CFI_Parser<libunwind::LocalAddressSpace>::CIE_Info*)
PUBLIC f72a4 0 libunwind::EHHeaderParser<libunwind::LocalAddressSpace>::findFDE(libunwind::LocalAddressSpace&, unsigned long, unsigned long, unsigned int, libunwind::CFI_Parser<libunwind::LocalAddressSpace>::FDE_Info*, libunwind::CFI_Parser<libunwind::LocalAddressSpace>::CIE_Info*)
PUBLIC f740c 0 libunwind::EHHeaderParser<libunwind::LocalAddressSpace>::getTableEntrySize(unsigned char)
PUBLIC f7508 0 libunwind::Registers_arm64::getRegisterName(int)
PUBLIC f7538 0 __libunwind_Registers_arm64_jumpto
PUBLIC m f75c8 0 __unw_getcontext
PUBLIC f7664 0 __udivti3
PUBLIC f7670 0 __udivmodti4
PUBLIC f78c0 0 __aarch64_ldadd8_relax
PUBLIC f78f0 0 init_have_lse_atomics
PUBLIC f7988 0 __init_cpu_features_constructor
PUBLIC f7f24 0 __init_cpu_features
PUBLIC f7fb0 0 __aarch64_ldadd8_acq_rel
FUNC f7fe0 334 0 AdminButtonSetting::createNode(float)
FUNC f8314 50 0 std::__ndk1::shared_ptr<AdminButtonSetting>::~shared_ptr[abi:ne180000]()
FUNC f8364 50 0 std::__ndk1::shared_ptr<geode::SettingV3>::~shared_ptr[abi:ne180000]()
FUNC f83b4 138 0 geodeExecFunction117<(anonymous namespace)::ExecFuncUnique117>(geode::ModStateEvent*)
FUNC f84ec 24 0 AdminButtonSetting::~AdminButtonSetting()
FUNC f8510 8 0 AdminButtonSetting::load(matjson::Value const&)
FUNC f8518 8 0 AdminButtonSetting::save(matjson::Value&) const
FUNC f8520 8 0 AdminButtonSetting::isDefaultValue() const
FUNC f8528 4 0 AdminButtonSetting::reset()
FUNC f852c 14 0 std::__ndk1::basic_string<char, std::__ndk1::char_traits<char>, std::__ndk1::allocator<char> >::__throw_length_error[abi:ne180000]() const
FUNC f8540 50 0 std::__ndk1::__throw_length_error[abi:ne180000](char const*)
FUNC f8590 30 0 std::length_error::length_error[abi:ne180000](char const*)
PUBLIC f85c0 0 __clang_call_terminate
FUNC f85d0 8 0 cocos2d::CCCopying::copyWithZone(cocos2d::CCZone*)
FUNC f85d8 60 0 geode::SettingNodeV3::~SettingNodeV3()
FUNC f8638 68 0 AdminButtonSettingNode::~AdminButtonSettingNode()
FUNC f86a0 190 0 AdminButtonSettingNode::updateState(cocos2d::CCNode*)
FUNC f8830 4 0 AdminButtonSettingNode::onCommit()
FUNC f8834 4 0 AdminButtonSettingNode::onResetToDefault()
FUNC f8838 8 0 AdminButtonSettingNode::hasUncommittedChanges() const
FUNC f8840 8 0 AdminButtonSettingNode::hasNonDefaultValue() const
FUNC f8848 14c 0 AdminButtonSettingNode::onButton(cocos2d::CCObject*)
FUNC f8994 188 0 NetworkManager::~NetworkManager()
FUNC f8b1c 4 0 std::__ndk1::__function::__base<void ()>::~__base()
FUNC f8b20 4 0 std::__ndk1::__function::__func<AdminButtonSettingNode::onButton(cocos2d::CCObject*)::{lambda()#1}, std::__ndk1::allocator<AdminButtonSettingNode::onButton(cocos2d::CCObject*)::{lambda()#1}>, void ()>::~__func()
FUNC f8b24 24 0 std::__ndk1::__function::__func<AdminButtonSettingNode::onButton(cocos2d::CCObject*)::{lambda()#1}, std::__ndk1::allocator<AdminButtonSettingNode::onButton(cocos2d::CCObject*)::{lambda()#1}>, void ()>::__clone() const
FUNC f8b48 10 0 std::__ndk1::__function::__func<AdminButtonSettingNode::onButton(cocos2d::CCObject*)::{lambda()#1}, std::__ndk1::allocator<AdminButtonSettingNode::onButton(cocos2d::CCObject*)::{lambda()#1}>, void ()>::__clone(std::__ndk1::__function::__base<void ()>*) const
FUNC f8b58 4 0 std::__ndk1::__function::__func<AdminButtonSettingNode::onButton(cocos2d::CCObject*)::{lambda()#1}, std::__ndk1::allocator<AdminButtonSettingNode::onButton(cocos2d::CCObject*)::{lambda()#1}>, void ()>::destroy()
FUNC f8b5c 4 0 std::__ndk1::__function::__func<AdminButtonSettingNode::onButton(cocos2d::CCObject*)::{lambda()#1}, std::__ndk1::allocator<AdminButtonSettingNode::onButton(cocos2d::CCObject*)::{lambda()#1}>, void ()>::destroy_deallocate()
FUNC f8b60 1c 0 std::__ndk1::__function::__func<AdminButtonSettingNode::onButton(cocos2d::CCObject*)::{lambda()#1}, std::__ndk1::allocator<AdminButtonSettingNode::onButton(cocos2d::CCObject*)::{lambda()#1}>, void ()>::operator()()
FUNC f8b7c 1c 0 std::__ndk1::__function::__func<AdminButtonSettingNode::onButton(cocos2d::CCObject*)::{lambda()#1}, std::__ndk1::allocator<AdminButtonSettingNode::onButton(cocos2d::CCObject*)::{lambda()#1}>, void ()>::target(std::type_info const&) const
FUNC f8b98 c 0 std::__ndk1::__function::__func<AdminButtonSettingNode::onButton(cocos2d::CCObject*)::{lambda()#1}, std::__ndk1::allocator<AdminButtonSettingNode::onButton(cocos2d::CCObject*)::{lambda()#1}>, void ()>::target_type() const
FUNC f8ba4 34 0 std::__ndk1::__throw_bad_weak_ptr[abi:ne180000]()
FUNC f8bd8 37c 0 AdminButtonSetting::parse(std::__ndk1::basic_string<char, std::__ndk1::char_traits<char>, std::__ndk1::allocator<char> > const&, std::__ndk1::basic_string<char, std::__ndk1::char_traits<char>, std::__ndk1::allocator<char> > const&, matjson::Value const&)
FUNC f8f54 74 0 geode::impl::ResultData<void, std::__ndk1::basic_string<char, std::__ndk1::char_traits<char>, std::__ndk1::allocator<char> > >::~ResultData()
FUNC f8fc8 10 0 std::__ndk1::__shared_ptr_emplace<AdminButtonSetting, std::__ndk1::allocator<AdminButtonSetting> >::~__shared_ptr_emplace()
FUNC f8fd8 30 0 std::__ndk1::__shared_ptr_emplace<AdminButtonSetting, std::__ndk1::allocator<AdminButtonSetting> >::~__shared_ptr_emplace()
FUNC f9008 c 0 std::__ndk1::__shared_ptr_emplace<AdminButtonSetting, std::__ndk1::allocator<AdminButtonSetting> >::__on_zero_shared()
FUNC f9014 4 0 std::__ndk1::__shared_ptr_emplace<AdminButtonSetting, std::__ndk1::allocator<AdminButtonSetting> >::__on_zero_shared_weak()
FUNC f9018 34 0 std::__ndk1::__throw_bad_variant_access[abi:ne180000]()
FUNC f904c 24 0 geode::UnwrapException::~UnwrapException()
FUNC f9070 70 0 std::__ndk1::basic_string<char, std::__ndk1::char_traits<char>, std::__ndk1::allocator<char> >::__init_copy_ctor_external(char const*, unsigned long)
FUNC f90e0 4 0 std::__ndk1::__function::__base<geode::Result<std::__ndk1::shared_ptr<geode::SettingV3>, std::__ndk1::basic_string<char, std::__ndk1::char_traits<char>, std::__ndk1::allocator<char> > >(std::__ndk1::basic_string<char, std::__ndk1::char_traits<char>, std::__ndk1::allocator<char> > const&, std::__ndk1::basic_string<char, std::__ndk1::char_traits<char>, std::__ndk1::allocator<char> > const&, matjson::Value const&)>::~__base()
FUNC f90e4 4 0 std::__ndk1::__function::__func<geode::Result<std::__ndk1::shared_ptr<geode::SettingV3>, std::__ndk1::basic_string<char, std::__ndk1::char_traits<char>, std::__ndk1::allocator<char> > > (*)(std::__ndk1::basic_string<char, std::__ndk1::char_traits<char>, std::__ndk1::allocator<char> > const&, std::__ndk1::basic_string<char, std::__ndk1::char_traits<char>, std::__ndk1::allocator<char> > const&, matjson::Value const&), std::__ndk1::allocator<geode::Result<std::__ndk1::shared_ptr<geode::SettingV3>, std::__ndk1::basic_string<char, std::__ndk1::char_traits<char>, std::__ndk1::allocator<char> > > (*)(std::__ndk1::basic_string<char, std::__ndk1::char_traits<char>, std::__ndk1::allocator<char> > const&, std::__ndk1::basic_string<char, std::__ndk1::char_traits<char>, std::__ndk1::allocator<char> > const&, matjson::Value const&)>, geode::Result<std::__ndk1::shared_ptr<geode::SettingV3>, std::__ndk1::basic_string<char, std::__ndk1::char_traits<char>, std::__ndk1::allocator<char> > >(std::__ndk1::basic_string<char, std::__ndk1::char_traits<char>, std::__ndk1::allocator<char> > const&, std::__ndk1::basic_string<char, std::__ndk1::char_traits<char>, std::__ndk1::allocator<char> > const&, matjson::Value const&)>::~__func()
FUNC f90e8 34 0 std::__ndk1::__function::__func<geode::Result<std::__ndk1::shared_ptr<geode::SettingV3>, std::__ndk1::basic_string<char, std::__ndk1::char_traits<char>, std::__ndk1::allocator<char> > > (*)(std::__ndk1::basic_string<char, std::__ndk1::char_traits<char>, std::__ndk1::allocator<char> > const&, std::__ndk1::basic_string<char, std::__ndk1::char_traits<char>, std::__ndk1::allocator<char> > const&, matjson::Value const&), std::__ndk1::allocator<geode::Result<std::__ndk1::shared_ptr<geode::SettingV3>, std::__ndk1::basic_string<char, std::__ndk1::char_traits<char>, std::__ndk1::allocator<char> > > (*)(std::__ndk1::basic_string<char, std::__ndk1::char_traits<char>, std::__ndk1::allocator<char> > const&, std::__ndk1::basic_string<char, std::__ndk1::char_traits<char>, std::__ndk1::allocator<char> > const&, matjson::Value const&)>, geode::Result<std::__ndk1::shared_ptr<geode::SettingV3>, std::__ndk1::basic_string<char, std::__ndk1::char_traits<char>, std::__ndk1::allocator<char> > >(std::__ndk1::basic_string<char, std::__ndk1::char_traits<char>, std::__ndk1::allocator<char> > const&, std::__ndk1::basic_string<char, std::__ndk1::char_traits<char>, std::__ndk1::allocator<char> > const&, matjson::Value const&)>::__clone() const
FUNC f911c 14 0 std::__ndk1::__function::__func<geode::Result<std::__ndk1::shared_ptr<geode::SettingV3>, std::__ndk1::basic_string<char, std::__ndk1::char_traits<char>, std::__ndk1::allocator<char> > > (*)(std::__ndk1::basic_string<char, std::__ndk1::char_traits<char>, std::__ndk1::allocator<char> > const&, std::__ndk1::basic_string<char, std::__ndk1::char_traits<char>, std::__ndk1::allocator<char> > const&, matjson::Value const&), std::__ndk1::allocator<geode::Result<std::__ndk1::shared_ptr<geode::SettingV3>, std::__ndk1::basic_string<char, std::__ndk1::char_traits<char>, std::__ndk1::allocator<char> > > (*)(std::__ndk1::basic_string<char, std::__ndk1::char_traits<char>, std::__ndk1::allocator<char> > const&, std::__ndk1::basic_string<char, std::__ndk1::char_traits<char>, std::__ndk1::allocator<char> > const&, matjson::Value const&)>, geode::Result<std::__ndk1::shared_ptr<geode::SettingV3>, std::__ndk1::basic_string<char, std::__ndk1::char_traits<char>, std::__ndk1::allocator<char> > >(std::__ndk1::basic_string<char, std::__ndk1::char_traits<char>, std::__ndk1::allocator<char> > const&, std::__ndk1::basic_string<char, std::__ndk1::char_traits<char>, std::__ndk1::allocator<char> > const&, matjson::Value const&)>::__clone(std::__ndk1::__function::__base<geode::Result<std::__ndk1::shared_ptr<geode::SettingV3>, std::__ndk1::basic_string<char, std::__ndk1::char_traits<char>, std::__ndk1::allocator<char> > >(std::__ndk1::basic_string<char, std::__ndk1::char_traits<char>, std::__ndk1::allocator<char> > const&, std::__ndk1::basic_string<char, std::__ndk1::char_traits<char>, std::__ndk1::allocator<char> > const&, matjson::Value const&)>*) const
FUNC f9130 4 0 std::__ndk1::__function::__func<geode::Result<std::__ndk1::shared_ptr<geode::SettingV3>, std::__ndk1::basic_string<char, std::__ndk1::char_traits<char>, std::__ndk1::allocator<char> > > (*)(std::__ndk1::basic_string<char, std::__ndk1::char_traits<char>, std::__ndk1::allocator<char> > const&, std::__ndk1::basic_string<char, std::__ndk1::char_traits<char>, std::__ndk1::allocator<char> > const&, matjson::Value const&), std::__ndk1::allocator<geode::Result<std::__ndk1::shared_ptr<geode::SettingV3>, std::__ndk1::basic_string<char, std::__ndk1::char_traits<char>, std::__ndk1::allocator<char> > > (*)(std::__ndk1::basic_string<char, std::__ndk1::char_traits<char>, std::__ndk1::allocator<char> > const&, std::__ndk1::basic_string<char, std::__ndk1::char_traits<char>, std::__ndk1::allocator<char> > const&, matjson::Value const&)>, geode::Result<std::__ndk1::shared_ptr<geode::SettingV3>, std::__ndk1::basic_string<char, std::__ndk1::char_traits<char>, std::__ndk1::allocator<char> > >(std::__ndk1::basic_string<char, std::__ndk1::char_traits<char>, std::__ndk1::allocator<char> > const&, std::__ndk1::basic_string<char, std::__ndk1::char_traits<char>, std::__ndk1::allocator<char> > const&, matjson::Value const&)>::destroy()
FUNC f9134 4 0 std::__ndk1::__function::__func<geode::Result<std::__ndk1::shared_ptr<geode::SettingV3>, std::__ndk1::basic_string<char, std::__ndk1::char_traits<char>, std::__ndk1::allocator<char> > > (*)(std::__ndk1::basic_string<char, std::__ndk1::char_traits<char>, std::__ndk1::allocator<char> > const&, std::__ndk1::basic_string<char, std::__ndk1::char_traits<char>, std::__ndk1::allocator<char> > const&, matjson::Value const&), std::__ndk1::allocator<geode::Result<std::__ndk1::shared_ptr<geode::SettingV3>, std::__ndk1::basic_string<char, std::__ndk1::char_traits<char>, std::__ndk1::allocator<char> > > (*)(std::__ndk1::basic_string<char, std::__ndk1::char_traits<char>, std::__ndk1::allocator<char> > const&, std::__ndk1::basic_string<char, std::__ndk1::char_traits<char>, std::__ndk1::allocator<char> > const&, matjson::Value const&)>, geode::Result<std::__ndk1::shared_ptr<geode::SettingV3>, std::__ndk1::basic_string<char, std::__ndk1::char_traits<char>, std::__ndk1::allocator<char> > >(std::__ndk1::basic_string<char, std::__ndk1::char_traits<char>, std::__ndk1::allocator<char> > const&, std::__ndk1::basic_string<char, std::__ndk1::char_traits<char>, std::__ndk1::allocator<char> > const&, matjson::Value const&)>::destroy_deallocate()
FUNC f9138 14 0 std::__ndk1::__function::__func<geode::Result<std::__ndk1::shared_ptr<geode::SettingV3>, std::__ndk1::basic_string<char, std::__ndk1::char_traits<char>, std::__ndk1::allocator<char> > > (*)(std::__ndk1::basic_string<char, std::__ndk1::char_traits<char>, std::__ndk1::allocator<char> > const&, std::__ndk1::basic_string<char, std::__ndk1::char_traits<char>, std::__ndk1::allocator<char> > const&, matjson::Value const&), std::__ndk1::allocator<geode::Result<std::__ndk1::shared_ptr<geode::SettingV3>, std::__ndk1::basic_string<char, std::__ndk1::char_traits<char>, std::__ndk1::allocator<char> > > (*)(std::__ndk1::basic_string<char, std::__ndk1::char_traits<char>, std::__ndk1::allocator<char> > const&, std::__ndk1::basic_string<char, std::__ndk1::char_traits<char>, std::__ndk1::allocator<char> > const&, matjson::Value const&)>, geode::Result<std::__ndk1::shared_ptr<geode::SettingV3>, std::__ndk1::basic_string<char, std::__ndk1::char_traits<char>, std::__ndk1::allocator<char> > >(std::__ndk1::basic_string<char, std::__ndk1::char_traits<char>, std::__ndk1::allocator<char> > const&, std::__ndk1::basic_string<char, std::__ndk1::char_traits<char>, std::__ndk1::allocator<char> > const&, matjson::Value const&)>::operator()(std::__ndk1::basic_string<char, std::__ndk1::char_traits<char>, std::__ndk1::allocator<char> > const&, std::__ndk1::basic_string<char, std::__ndk1::char_traits<char>, std::__ndk1::allocator<char> > const&, matjson::Value const&)
FUNC f914c 1c 0 std::__ndk1::__function::__func<geode::Result<std::__ndk1::shared_ptr<geode::SettingV3>, std::__ndk1::basic_string<char, std::__ndk1::char_traits<char>, std::__ndk1::allocator<char> > > (*)(std::__ndk1::basic_string<char, std::__ndk1::char_traits<char>, std::__ndk1::allocator<char> > const&, std::__ndk1::basic_string<char, std::__ndk1::char_traits<char>, std::__ndk1::allocator<char> > const&, matjson::Value const&), std::__ndk1::allocator<geode::Result<std::__ndk1::shared_ptr<geode::SettingV3>, std::__ndk1::basic_string<char, std::__ndk1::char_traits<char>, std::__ndk1::allocator<char> > > (*)(std::__ndk1::basic_string<char, std::__ndk1::char_traits<char>, std::__ndk1::allocator<char> > const&, std::__ndk1::basic_string<char, std::__ndk1::char_traits<char>, std::__ndk1::allocator<char> > const&, matjson::Value const&)>, geode::Result<std::__ndk1::shared_ptr<geode::SettingV3>, std::__ndk1::basic_string<char, std::__ndk1::char_traits<char>, std::__ndk1::allocator<char> > >(std::__ndk1::basic_string<char, std::__ndk1::char_traits<char>, std::__ndk1::allocator<char> > const&, std::__ndk1::basic_string<char, std::__ndk1::char_traits<char>, std::__ndk1::allocator<char> > const&, matjson::Value const&)>::target(std::type_info const&) const
FUNC f9168 c 0 std::__ndk1::__function::__func<geode::Result<std::__ndk1::shared_ptr<geode::SettingV3>, std::__ndk1::basic_string<char, std::__ndk1::char_traits<char>, std::__ndk1::allocator<char> > > (*)(std::__ndk1::basic_string<char, std::__ndk1::char_traits<char>, std::__ndk1::allocator<char> > const&, std::__ndk1::basic_string<char, std::__ndk1::char_traits<char>, std::__ndk1::allocator<char> > const&, matjson::Value const&), std::__ndk1::allocator<geode::Result<std::__ndk1::shared_ptr<geode::SettingV3>, std::__ndk1::basic_string<char, std::__ndk1::char_traits<char>, std::__ndk1::allocator<char> > > (*)(std::__ndk1::basic_string<char, std::__ndk1::char_traits<char>, std::__ndk1::allocator<char> > const&, std::__ndk1::basic_string<char, std::__ndk1::char_traits<char>, std::__ndk1::allocator<char> > const&, matjson::Value const&)>, geode::Result<std::__ndk1::shared_ptr<geode::SettingV3>, std::__ndk1::basic_string<char, std::__ndk1::char_traits<char>, std::__ndk1::allocator<char> > >(std::__ndk1::basic_string<char, std::__ndk1::char_traits<char>, std::__ndk1::allocator<char> > const&, std::__ndk1::basic_string<char, std::__ndk1::char_traits<char>, std::__ndk1::allocator<char> > const&, matjson::Value const&)>::target_type() const
FUNC f9174 4 0 std::__ndk1::__variant_detail::__visitation::__base::__dispatcher<(unsigned long)0>::__dispatch[abi:ne180000]<std::__ndk1::__variant_detail::__dtor<std::__ndk1::__variant_detail::__traits<std::__ndk1::monostate, std::__ndk1::basic_string<char, std::__ndk1::char_traits<char>, std::__ndk1::allocator<char> > >, (std::__ndk1::__variant_detail::_Trait)1>::__destroy[abi:ne180000]()::{lambda(auto:1&)#1}, std::__ndk1::__variant_detail::__base<(std::__ndk1::__variant_detail::__traits<std::__ndk1::monostate, std::__ndk1::basic_string<char, std::__ndk1::char_traits<char>, std::__ndk1::allocator<char> > >)1, std::__ndk1::__variant_detail::__traits, std::__ndk1::allocator<char> >&>(std::__ndk1::__variant_detail::__dtor<std::__ndk1::__variant_detail::__traits<std::__ndk1::monostate, std::__ndk1::basic_string<char, std::__ndk1::char_traits<char>, std::__ndk1::allocator<char> > >, (std::__ndk1::__variant_detail::_Trait)1>, std::__ndk1::__variant_detail::__base<(std::__ndk1::__variant_detail::__traits<std::__ndk1::monostate, std::__ndk1::basic_string<char, std::__ndk1::char_traits<char>, std::__ndk1::allocator<char> > >)1, std::__ndk1::__variant_detail::__traits, std::__ndk1::allocator<char> >&)
FUNC f9178 14 0 std::__ndk1::__variant_detail::__visitation::__base::__dispatcher<(unsigned long)1>::__dispatch[abi:ne180000]<std::__ndk1::__variant_detail::__dtor<std::__ndk1::__variant_detail::__traits<std::__ndk1::monostate, std::__ndk1::basic_string<char, std::__ndk1::char_traits<char>, std::__ndk1::allocator<char> > >, (std::__ndk1::__variant_detail::_Trait)1>::__destroy[abi:ne180000]()::{lambda(auto:1&)#1}, std::__ndk1::__variant_detail::__base<(std::__ndk1::__variant_detail::__traits<std::__ndk1::monostate, std::__ndk1::basic_string<char, std::__ndk1::char_traits<char>, std::__ndk1::allocator<char> > >)1, std::__ndk1::__variant_detail::__traits, std::__ndk1::allocator<char> >&>(std::__ndk1::__variant_detail::__dtor<std::__ndk1::__variant_detail::__traits<std::__ndk1::monostate, std::__ndk1::basic_string<char, std::__ndk1::char_traits<char>, std::__ndk1::allocator<char> > >, (std::__ndk1::__variant_detail::_Trait)1>, std::__ndk1::__variant_detail::__base<(std::__ndk1::__variant_detail::__traits<std::__ndk1::monostate, std::__ndk1::basic_string<char, std::__ndk1::char_traits<char>, std::__ndk1::allocator<char> > >)1, std::__ndk1::__variant_detail::__traits, std::__ndk1::allocator<char> >&)
FUNC f918c 4 0 geode::EventListener<geode::ModStateFilter>::getPool() const
FUNC f9190 174 0 geode::EventListener<geode::ModStateFilter>::handle(geode::Event*)
FUNC f9304 5c 0 geode::EventListener<geode::ModStateFilter>::~EventListener()
FUNC f9360 64 0 geode::EventListener<geode::ModStateFilter>::~EventListener()
FUNC f93c4 4 0 std::__ndk1::__function::__base<void (geode::ModStateEvent*)>::~__base()
FUNC f93c8 4 0 std::__ndk1::__function::__func<void (*)(geode::ModStateEvent*), std::__ndk1::allocator<void (*)(geode::ModStateEvent*)>, void (geode::ModStateEvent*)>::~__func()
FUNC f93cc 34 0 std::__ndk1::__function::__func<void (*)(geode::ModStateEvent*), std::__ndk1::allocator<void (*)(geode::ModStateEvent*)>, void (geode::ModStateEvent*)>::__clone() const
FUNC f9400 14 0 std::__ndk1::__function::__func<void (*)(geode::ModStateEvent*), std::__ndk1::allocator<void (*)(geode::ModStateEvent*)>, void (geode::ModStateEvent*)>::__clone(std::__ndk1::__function::__base<void (geode::ModStateEvent*)>*) const
FUNC f9414 4 0 std::__ndk1::__function::__func<void (*)(geode::ModStateEvent*), std::__ndk1::allocator<void (*)(geode::ModStateEvent*)>, void (geode::ModStateEvent*)>::destroy()
FUNC f9418 4 0 std::__ndk1::__function::__func<void (*)(geode::ModStateEvent*), std::__ndk1::allocator<void (*)(geode::ModStateEvent*)>, void (geode::ModStateEvent*)>::destroy_deallocate()
FUNC f941c 10 0 std::__ndk1::__function::__func<void (*)(geode::ModStateEvent*), std::__ndk1::allocator<void (*)(geode::ModStateEvent*)>, void (geode::ModStateEvent*)>::operator()(geode::ModStateEvent*&&)
FUNC f942c 1c 0 std::__ndk1::__function::__func<void (*)(geode::ModStateEvent*), std::__ndk1::allocator<void (*)(geode::ModStateEvent*)>, void (geode::ModStateEvent*)>::target(std::type_info const&) const
FUNC f9448 c 0 std::__ndk1::__function::__func<void (*)(geode::ModStateEvent*), std::__ndk1::allocator<void (*)(geode::ModStateEvent*)>, void (geode::ModStateEvent*)>::target_type() const
FUNC f9454 e4 0 geode::cast::traverseTypeinfoFor(void*, geode::cast::ClassTypeinfoType const*, char const*)
FUNC f9538 17c 0 _GLOBAL__sub_I_AdminSetting.cpp
FUNC f96b4 158 0 AdminPanel::create()
FUNC f980c 474 0 AdminPanel::setup()
FUNC f9c80 14c 0 geode::Popup<>::setTitle(std::__ndk1::basic_string<char, std::__ndk1::char_traits<char>, std::__ndk1::allocator<char> > const&, char const*, float, float)
FUNC f9dcc 13c 0 geode::cocos::CCMenuItemExt::createSpriteExtra(cocos2d::CCNode*, std::__ndk1::function<void (CCMenuItemSpriteExtra*)>)
FUNC f9f08 6c 0 geode::Popup<>::~Popup()
FUNC f9f74 74 0 AdminPanel::~AdminPanel()
FUNC f9fe8 2c 0 geode::Popup<>::registerWithTouchDispatcher()
FUNC fa014 28 0 geode::Popup<>::keyDown(cocos2d::enumKeyCodes)
FUNC fa03c 4 0 cocos2d::CCLayerRGBA::setOpacityModifyRGB(bool)
FUNC fa040 8 0 cocos2d::CCLayerRGBA::isOpacityModifyRGB()
FUNC fa048 148 0 geode::Popup<>::onClose(cocos2d::CCObject*)
FUNC fa190 6c 0 {virtual override thunk({offset(-320)}, AdminPanel::~AdminPanel())}
FUNC fa1fc 74 0 {virtual override thunk({offset(-320)}, AdminPanel::~AdminPanel())}
FUNC fa270 2c 0 {virtual override thunk({offset(-344)}, geode::Popup<>::keyDown(cocos2d::enumKeyCodes))}
FUNC fa29c 4 0 cocos2d::CCKeyboardDelegate::keyUp(cocos2d::enumKeyCodes)
FUNC fa2a0 4 0 cocos2d::CCMouseDelegate::rightKeyDown()
FUNC fa2a4 4 0 cocos2d::CCMouseDelegate::rightKeyUp()
FUNC fa2a8 4 0 cocos2d::CCMouseDelegate::scrollWheel(float, float)
FUNC fa2ac 4 0 {virtual override thunk({offset(-408)}, cocos2d::CCLayerRGBA::setOpacityModifyRGB(bool))}
FUNC fa2b0 8 0 {virtual override thunk({offset(-408)}, cocos2d::CCLayerRGBA::isOpacityModifyRGB())}
FUNC fa2b8 34 0 std::__throw_bad_array_new_length([abi:ne180000], void)
FUNC fa2ec 4 0 geode::Popup<>::~Popup()
FUNC fa2f0 6c 0 {virtual override thunk({offset(-320)}, geode::Popup<>::~Popup())}
FUNC fa35c 4 0 {virtual override thunk({offset(-320)}, geode::Popup<>::~Popup())}
FUNC fa360 194 0 geode::cocos::CCMenuItemExt::assignCallback<CCMenuItemSpriteExtra>(cocos2d::CCMenuItem*, std::__ndk1::function<void (CCMenuItemSpriteExtra*)>)
FUNC fa4f4 1c8 0 geode::cocos::CCMenuItemExt::LambdaCallback<CCMenuItemSpriteExtra>::create(std::__ndk1::function<void (CCMenuItemSpriteExtra*)>)
FUNC fa6bc 70 0 geode::cocos::CCMenuItemExt::LambdaCallback<CCMenuItemSpriteExtra>::execute(cocos2d::CCNode*)
FUNC fa72c 5c 0 geode::cocos::CCMenuItemExt::LambdaCallback<CCMenuItemSpriteExtra>::~LambdaCallback()
FUNC fa788 64 0 geode::cocos::CCMenuItemExt::LambdaCallback<CCMenuItemSpriteExtra>::~LambdaCallback()
FUNC fa7ec 4 0 cocos2d::CCObject::update(float)
FUNC fa7f0 34 0 std::__ndk1::__throw_bad_function_call[abi:ne180000]()
FUNC fa824 24 0 std::__ndk1::bad_function_call::~bad_function_call()
FUNC fa848 2ec 0 geode::Popup<>::initBase(float, float, char const*, cocos2d::CCRect, bool)
FUNC fab34 4 0 std::__ndk1::__function::__func<AdminPanel::setup()::$_0, std::__ndk1::allocator<AdminPanel::setup()::$_0>, void (CCMenuItemSpriteExtra*)>::~__func()
FUNC fab38 38 0 std::__ndk1::__function::__func<AdminPanel::setup()::$_0, std::__ndk1::allocator<AdminPanel::setup()::$_0>, void (CCMenuItemSpriteExtra*)>::__clone() const
FUNC fab70 18 0 std::__ndk1::__function::__func<AdminPanel::setup()::$_0, std::__ndk1::allocator<AdminPanel::setup()::$_0>, void (CCMenuItemSpriteExtra*)>::__clone(std::__ndk1::__function::__base<void (CCMenuItemSpriteExtra*)>*) const
FUNC fab88 4 0 std::__ndk1::__function::__func<AdminPanel::setup()::$_0, std::__ndk1::allocator<AdminPanel::setup()::$_0>, void (CCMenuItemSpriteExtra*)>::destroy()
FUNC fab8c 4 0 std::__ndk1::__function::__func<AdminPanel::setup()::$_0, std::__ndk1::allocator<AdminPanel::setup()::$_0>, void (CCMenuItemSpriteExtra*)>::destroy_deallocate()
FUNC fab90 b40 0 std::__ndk1::__function::__func<AdminPanel::setup()::$_0, std::__ndk1::allocator<AdminPanel::setup()::$_0>, void (CCMenuItemSpriteExtra*)>::operator()(CCMenuItemSpriteExtra*&&)
FUNC fb6d0 1c 0 std::__ndk1::__function::__func<AdminPanel::setup()::$_0, std::__ndk1::allocator<AdminPanel::setup()::$_0>, void (CCMenuItemSpriteExtra*)>::target(std::type_info const&) const
FUNC fb6ec c 0 std::__ndk1::__function::__func<AdminPanel::setup()::$_0, std::__ndk1::allocator<AdminPanel::setup()::$_0>, void (CCMenuItemSpriteExtra*)>::target_type() const
FUNC fb6f8 124 0 std::__ndk1::basic_stringstream<char, std::__ndk1::char_traits<char>, std::__ndk1::allocator<char> >::basic_stringstream[abi:ne180000]()
FUNC fb81c 210 0 cereal::JSONOutputArchive::JSONOutputArchive(std::__ndk1::basic_ostream<char, std::__ndk1::char_traits<char> >&, cereal::JSONOutputArchive::Options const&)
FUNC fba2c a4 0 cereal::JSONOutputArchive::~JSONOutputArchive()
FUNC fbad0 74 0 geode::impl::ResultData<matjson::Value, std::__ndk1::basic_string<char, std::__ndk1::char_traits<char>, std::__ndk1::allocator<char> > >::~ResultData()
FUNC fbb44 74 0 geode::impl::ResultData<matjson::Value, matjson::ParseError>::~ResultData()
FUNC fbbb8 80 0 std::__ndk1::basic_stringstream<char, std::__ndk1::char_traits<char>, std::__ndk1::allocator<char> >::~basic_stringstream()
FUNC fbc38 38 0 rapidjson::Writer<rapidjson::BasicOStreamWrapper<std::__ndk1::basic_ostream<char, std::__ndk1::char_traits<char> > >, rapidjson::UTF8<char>, rapidjson::UTF8<char>, rapidjson::CrtAllocator, (unsigned int)2>::~Writer()
FUNC fbc70 24 0 cereal::JSONOutputArchive::~JSONOutputArchive()
FUNC fbc94 4 0 cereal::detail::OutputArchiveBase::rtti()
FUNC fbc98 1a4 0 cereal::OutputArchive<cereal::JSONOutputArchive, (unsigned int)0>::~OutputArchive()
FUNC fbe3c 24 0 cereal::OutputArchive<cereal::JSONOutputArchive, (unsigned int)0>::~OutputArchive()
FUNC fbe60 2c 0 cereal::RapidJSONException::RapidJSONException(char const*)
FUNC fbe8c 24 0 cereal::RapidJSONException::~RapidJSONException()
FUNC fbeb0 4bc 0 std::__ndk1::deque<unsigned int, std::__ndk1::allocator<unsigned int> >::__add_back_capacity()
FUNC fc36c 188 0 std::__ndk1::__split_buffer<unsigned int*, std::__ndk1::allocator<unsigned int*> >::push_back(unsigned int*&&)
FUNC fc4f4 18c 0 std::__ndk1::__split_buffer<unsigned int*, std::__ndk1::allocator<unsigned int*> >::push_front(unsigned int*&&)
FUNC fc680 18c 0 std::__ndk1::__split_buffer<unsigned int*, std::__ndk1::allocator<unsigned int*>&>::push_front(unsigned int* const&)
FUNC fc80c 4bc 0 std::__ndk1::deque<cereal::JSONOutputArchive::NodeType, std::__ndk1::allocator<cereal::JSONOutputArchive::NodeType> >::__add_back_capacity()
FUNC fccc8 188 0 std::__ndk1::__split_buffer<cereal::JSONOutputArchive::NodeType*, std::__ndk1::allocator<cereal::JSONOutputArchive::NodeType*> >::push_back(cereal::JSONOutputArchive::NodeType*&&)
FUNC fce50 18c 0 std::__ndk1::__split_buffer<cereal::JSONOutputArchive::NodeType*, std::__ndk1::allocator<cereal::JSONOutputArchive::NodeType*> >::push_front(cereal::JSONOutputArchive::NodeType*&&)
FUNC fcfdc 18c 0 std::__ndk1::__split_buffer<cereal::JSONOutputArchive::NodeType*, std::__ndk1::allocator<cereal::JSONOutputArchive::NodeType*>&>::push_front(cereal::JSONOutputArchive::NodeType* const&)
FUNC fd168 d0 0 std::__ndk1::deque<cereal::JSONOutputArchive::NodeType, std::__ndk1::allocator<cereal::JSONOutputArchive::NodeType> >::~deque[abi:ne180000]()
FUNC fd238 d0 0 std::__ndk1::deque<unsigned int, std::__ndk1::allocator<unsigned int> >::~deque[abi:ne180000]()
FUNC fd308 e0 0 cereal::JSONOutputArchive::startNode()
FUNC fd3e8 26c 0 cereal::JSONOutputArchive::writeName()
FUNC fd654 e8 0 rapidjson::PrettyWriter<rapidjson::BasicOStreamWrapper<std::__ndk1::basic_ostream<char, std::__ndk1::char_traits<char> > >, rapidjson::UTF8<char>, rapidjson::UTF8<char>, rapidjson::CrtAllocator, (unsigned int)2>::StartArray()
FUNC fd73c e4 0 rapidjson::PrettyWriter<rapidjson::BasicOStreamWrapper<std::__ndk1::basic_ostream<char, std::__ndk1::char_traits<char> > >, rapidjson::UTF8<char>, rapidjson::UTF8<char>, rapidjson::CrtAllocator, (unsigned int)2>::StartObject()
FUNC fd820 1fc 0 rapidjson::PrettyWriter<rapidjson::BasicOStreamWrapper<std::__ndk1::basic_ostream<char, std::__ndk1::char_traits<char> > >, rapidjson::UTF8<char>, rapidjson::UTF8<char>, rapidjson::CrtAllocator, (unsigned int)2>::PrettyPrefix(rapidjson::Type)
FUNC fda1c b0 0 rapidjson::internal::Stack<rapidjson::CrtAllocator>::Expand<rapidjson::Writer<rapidjson::BasicOStreamWrapper<std::__ndk1::basic_ostream<char, std::__ndk1::char_traits<char> > >, rapidjson::UTF8<char>, rapidjson::UTF8<char>, rapidjson::CrtAllocator, (unsigned int)2>::Level>(unsigned long)
FUNC fdacc 14 0 std::__ndk1::basic_string<char, std::__ndk1::char_traits<char>, std::__ndk1::allocator<char> >::__throw_out_of_range[abi:ne180000]() const
FUNC fdae0 50 0 std::__ndk1::__throw_out_of_range[abi:ne180000](char const*)
FUNC fdb30 30 0 std::out_of_range::out_of_range[abi:ne180000](char const*)
FUNC fdb60 b8 0 rapidjson::PrettyWriter<rapidjson::BasicOStreamWrapper<std::__ndk1::basic_ostream<char, std::__ndk1::char_traits<char> > >, rapidjson::UTF8<char>, rapidjson::UTF8<char>, rapidjson::CrtAllocator, (unsigned int)2>::String(char const*, unsigned int, bool)
FUNC fdc18 110 0 rapidjson::Writer<rapidjson::BasicOStreamWrapper<std::__ndk1::basic_ostream<char, std::__ndk1::char_traits<char> > >, rapidjson::UTF8<char>, rapidjson::UTF8<char>, rapidjson::CrtAllocator, (unsigned int)2>::WriteString(char const*, unsigned int)
FUNC fdd28 12c 0 cereal::JSONOutputArchive::finishNode()
FUNC fde54 148 0 rapidjson::PrettyWriter<rapidjson::BasicOStreamWrapper<std::__ndk1::basic_ostream<char, std::__ndk1::char_traits<char> > >, rapidjson::UTF8<char>, rapidjson::UTF8<char>, rapidjson::CrtAllocator, (unsigned int)2>::EndArray(unsigned int)
FUNC fdf9c 164 0 rapidjson::PrettyWriter<rapidjson::BasicOStreamWrapper<std::__ndk1::basic_ostream<char, std::__ndk1::char_traits<char> > >, rapidjson::UTF8<char>, rapidjson::UTF8<char>, rapidjson::CrtAllocator, (unsigned int)2>::EndObject(unsigned int)
FUNC fe100 394 0 matjson::ParseError::operator std::__ndk1::basic_string<char, std::__ndk1::char_traits<char>, std::__ndk1::allocator<char> >() const
FUNC fe494 168 0 _ZN5geode15UnwrapExceptionC2IRNSt6__ndk112basic_stringIcNS2_11char_traitsIcEENS2_9allocatorIcEEEEQsr4implE18IsStringStreamableIT_EEENS_4impl6ErrTagEOSA_
FUNC fe5fc 198 0 std::__ndk1::__put_character_sequence[abi:ne180000]<char, std::__ndk1::char_traits<char> >(std::__ndk1::basic_ostream<char, std::__ndk1::char_traits<char> >, std::__ndk1::basic_ostream const*, unsigned long)
FUNC fe794 1b4 0 std::__ndk1::__pad_and_output[abi:ne180000]<char, std::__ndk1::char_traits<char> >(std::__ndk1::char_traits<char>, std::__ndk1::ostreambuf_iterator const*, std::__ndk1::ostreambuf_iterator const, std::__ndk1::ostreambuf_iterator const, std::__ndk1::ios_base&, std::__ndk1::ostreambuf_iterator)
FUNC fe948 15c 0 std::__ndk1::basic_stringbuf<char, std::__ndk1::char_traits<char>, std::__ndk1::allocator<char> >::str[abi:ne180000]() &&
FUNC feaa4 148 0 std::__ndk1::basic_stringbuf<char, std::__ndk1::char_traits<char>, std::__ndk1::allocator<char> >::__init_buf_ptrs[abi:ne180000]()
FUNC febec 8 0 std::__ndk1::__variant_detail::__visitation::__base::__dispatcher<(unsigned long)0>::__dispatch[abi:ne180000]<std::__ndk1::__variant_detail::__dtor<std::__ndk1::__variant_detail::__traits<matjson::Value, std::__ndk1::basic_string<char, std::__ndk1::char_traits<char>, std::__ndk1::allocator<char> > >, (std::__ndk1::__variant_detail::_Trait)1>::__destroy[abi:ne180000]()::{lambda(auto:1&)#1}, std::__ndk1::__variant_detail::__base<(std::__ndk1::__variant_detail::__traits<matjson::Value, std::__ndk1::basic_string<char, std::__ndk1::char_traits<char>, std::__ndk1::allocator<char> > >)1, matjson, std::__ndk1::allocator<char> >&>(std::__ndk1::__variant_detail::__dtor<std::__ndk1::__variant_detail::__traits<matjson::Value, std::__ndk1::basic_string<char, std::__ndk1::char_traits<char>, std::__ndk1::allocator<char> > >, (std::__ndk1::__variant_detail::_Trait)1>, std::__ndk1::__variant_detail::__base<(std::__ndk1::__variant_detail::__traits<matjson::Value, std::__ndk1::basic_string<char, std::__ndk1::char_traits<char>, std::__ndk1::allocator<char> > >)1, matjson, std::__ndk1::allocator<char> >&)
FUNC febf4 14 0 std::__ndk1::__variant_detail::__visitation::__base::__dispatcher<(unsigned long)1>::__dispatch[abi:ne180000]<std::__ndk1::__variant_detail::__dtor<std::__ndk1::__variant_detail::__traits<matjson::Value, std::__ndk1::basic_string<char, std::__ndk1::char_traits<char>, std::__ndk1::allocator<char> > >, (std::__ndk1::__variant_detail::_Trait)1>::__destroy[abi:ne180000]()::{lambda(auto:1&)#1}, std::__ndk1::__variant_detail::__base<(std::__ndk1::__variant_detail::__traits<matjson::Value, std::__ndk1::basic_string<char, std::__ndk1::char_traits<char>, std::__ndk1::allocator<char> > >)1, matjson, std::__ndk1::allocator<char> >&>(std::__ndk1::__variant_detail::__dtor<std::__ndk1::__variant_detail::__traits<matjson::Value, std::__ndk1::basic_string<char, std::__ndk1::char_traits<char>, std::__ndk1::allocator<char> > >, (std::__ndk1::__variant_detail::_Trait)1>, std::__ndk1::__variant_detail::__base<(std::__ndk1::__variant_detail::__traits<matjson::Value, std::__ndk1::basic_string<char, std::__ndk1::char_traits<char>, std::__ndk1::allocator<char> > >)1, matjson, std::__ndk1::allocator<char> >&)
FUNC fec08 8 0 std::__ndk1::__variant_detail::__visitation::__base::__dispatcher<(unsigned long)0>::__dispatch[abi:ne180000]<std::__ndk1::__variant_detail::__dtor<std::__ndk1::__variant_detail::__traits<matjson::Value, std::__ndk1::__variant_detail::__traits::ParseError>, (std::__ndk1::__variant_detail::_Trait)1>::__destroy[abi:ne180000]()::{lambda(auto:1&)#1}, std::__ndk1::__variant_detail::__base<(std::__ndk1::__variant_detail::__traits<matjson::Value, std::__ndk1::__variant_detail::__traits::ParseError>)1, matjson, matjson::Value>&>(std::__ndk1::__variant_detail::__dtor<std::__ndk1::__variant_detail::__traits<matjson::Value, std::__ndk1::__variant_detail::__traits::ParseError>, (std::__ndk1::__variant_detail::_Trait)1>, std::__ndk1::__variant_detail::__base<(std::__ndk1::__variant_detail::__traits<matjson::Value, std::__ndk1::__variant_detail::__traits::ParseError>)1, matjson, matjson::Value>&)
FUNC fec10 14 0 std::__ndk1::__variant_detail::__visitation::__base::__dispatcher<(unsigned long)1>::__dispatch[abi:ne180000]<std::__ndk1::__variant_detail::__dtor<std::__ndk1::__variant_detail::__traits<matjson::Value, std::__ndk1::__variant_detail::__traits::ParseError>, (std::__ndk1::__variant_detail::_Trait)1>::__destroy[abi:ne180000]()::{lambda(auto:1&)#1}, std::__ndk1::__variant_detail::__base<(std::__ndk1::__variant_detail::__traits<matjson::Value, std::__ndk1::__variant_detail::__traits::ParseError>)1, matjson, matjson::Value>&>(std::__ndk1::__variant_detail::__dtor<std::__ndk1::__variant_detail::__traits<matjson::Value, std::__ndk1::__variant_detail::__traits::ParseError>, (std::__ndk1::__variant_detail::_Trait)1>, std::__ndk1::__variant_detail::__base<(std::__ndk1::__variant_detail::__traits<matjson::Value, std::__ndk1::__variant_detail::__traits::ParseError>)1, matjson, matjson::Value>&)
FUNC fec24 44 0 std::__ndk1::__function::__func<NetworkManager::send<BanUserPacket>(BanUserPacket*, std::__ndk1::function<void ()>)::{lambda(int, int)#1}, std::__ndk1::allocator<NetworkManager::send<BanUserPacket>(BanUserPacket*, std::__ndk1::function<void ()>)::{lambda(int, int)#1}>, bool (int, int)>::~__func()
FUNC fec68 5c 0 std::__ndk1::__function::__func<NetworkManager::send<BanUserPacket>(BanUserPacket*, std::__ndk1::function<void ()>)::{lambda(int, int)#1}, std::__ndk1::allocator<NetworkManager::send<BanUserPacket>(BanUserPacket*, std::__ndk1::function<void ()>)::{lambda(int, int)#1}>, bool (int, int)>::~__func()
FUNC fecc4 88 0 std::__ndk1::__function::__func<NetworkManager::send<BanUserPacket>(BanUserPacket*, std::__ndk1::function<void ()>)::{lambda(int, int)#1}, std::__ndk1::allocator<NetworkManager::send<BanUserPacket>(BanUserPacket*, std::__ndk1::function<void ()>)::{lambda(int, int)#1}>, bool (int, int)>::__clone() const
FUNC fed4c 74 0 std::__ndk1::__function::__func<NetworkManager::send<BanUserPacket>(BanUserPacket*, std::__ndk1::function<void ()>)::{lambda(int, int)#1}, std::__ndk1::allocator<NetworkManager::send<BanUserPacket>(BanUserPacket*, std::__ndk1::function<void ()>)::{lambda(int, int)#1}>, bool (int, int)>::__clone(std::__ndk1::__function::__base<bool (int, int)>*) const
FUNC fedc0 38 0 std::__ndk1::__function::__func<NetworkManager::send<BanUserPacket>(BanUserPacket*, std::__ndk1::function<void ()>)::{lambda(int, int)#1}, std::__ndk1::allocator<NetworkManager::send<BanUserPacket>(BanUserPacket*, std::__ndk1::function<void ()>)::{lambda(int, int)#1}>, bool (int, int)>::destroy()
FUNC fedf8 50 0 std::__ndk1::__function::__func<NetworkManager::send<BanUserPacket>(BanUserPacket*, std::__ndk1::function<void ()>)::{lambda(int, int)#1}, std::__ndk1::allocator<NetworkManager::send<BanUserPacket>(BanUserPacket*, std::__ndk1::function<void ()>)::{lambda(int, int)#1}>, bool (int, int)>::destroy_deallocate()
FUNC fee48 21c 0 std::__ndk1::__function::__func<NetworkManager::send<BanUserPacket>(BanUserPacket*, std::__ndk1::function<void ()>)::{lambda(int, int)#1}, std::__ndk1::allocator<NetworkManager::send<BanUserPacket>(BanUserPacket*, std::__ndk1::function<void ()>)::{lambda(int, int)#1}>, bool (int, int)>::operator()(int&&, int&&)
FUNC ff064 1c 0 std::__ndk1::__function::__func<NetworkManager::send<BanUserPacket>(BanUserPacket*, std::__ndk1::function<void ()>)::{lambda(int, int)#1}, std::__ndk1::allocator<NetworkManager::send<BanUserPacket>(BanUserPacket*, std::__ndk1::function<void ()>)::{lambda(int, int)#1}>, bool (int, int)>::target(std::type_info const&) const
FUNC ff080 c 0 std::__ndk1::__function::__func<NetworkManager::send<BanUserPacket>(BanUserPacket*, std::__ndk1::function<void ()>)::{lambda(int, int)#1}, std::__ndk1::allocator<NetworkManager::send<BanUserPacket>(BanUserPacket*, std::__ndk1::function<void ()>)::{lambda(int, int)#1}>, bool (int, int)>::target_type() const
FUNC ff08c 44 0 std::__ndk1::__function::__func<NetworkManager::send<BanUserPacket>(BanUserPacket*, std::__ndk1::function<void ()>)::{lambda(int, int)#1}::operator()(int, int) const::{lambda()#1}, std::__ndk1::allocator<NetworkManager::send<BanUserPacket>(BanUserPacket*, std::__ndk1::function<void ()>)::{lambda(int, int)#1}::operator()(int, int) const::{lambda()#1}>, void ()>::~__func()
FUNC ff0d0 5c 0 std::__ndk1::__function::__func<NetworkManager::send<BanUserPacket>(BanUserPacket*, std::__ndk1::function<void ()>)::{lambda(int, int)#1}::operator()(int, int) const::{lambda()#1}, std::__ndk1::allocator<NetworkManager::send<BanUserPacket>(BanUserPacket*, std::__ndk1::function<void ()>)::{lambda(int, int)#1}::operator()(int, int) const::{lambda()#1}>, void ()>::~__func()
FUNC ff12c 88 0 std::__ndk1::__function::__func<NetworkManager::send<BanUserPacket>(BanUserPacket*, std::__ndk1::function<void ()>)::{lambda(int, int)#1}::operator()(int, int) const::{lambda()#1}, std::__ndk1::allocator<NetworkManager::send<BanUserPacket>(BanUserPacket*, std::__ndk1::function<void ()>)::{lambda(int, int)#1}::operator()(int, int) const::{lambda()#1}>, void ()>::__clone() const
FUNC ff1b4 74 0 std::__ndk1::__function::__func<NetworkManager::send<BanUserPacket>(BanUserPacket*, std::__ndk1::function<void ()>)::{lambda(int, int)#1}::operator()(int, int) const::{lambda()#1}, std::__ndk1::allocator<NetworkManager::send<BanUserPacket>(BanUserPacket*, std::__ndk1::function<void ()>)::{lambda(int, int)#1}::operator()(int, int) const::{lambda()#1}>, void ()>::__clone(std::__ndk1::__function::__base<void ()>*) const
FUNC ff228 38 0 std::__ndk1::__function::__func<NetworkManager::send<BanUserPacket>(BanUserPacket*, std::__ndk1::function<void ()>)::{lambda(int, int)#1}::operator()(int, int) const::{lambda()#1}, std::__ndk1::allocator<NetworkManager::send<BanUserPacket>(BanUserPacket*, std::__ndk1::function<void ()>)::{lambda(int, int)#1}::operator()(int, int) const::{lambda()#1}>, void ()>::destroy()
FUNC ff260 50 0 std::__ndk1::__function::__func<NetworkManager::send<BanUserPacket>(BanUserPacket*, std::__ndk1::function<void ()>)::{lambda(int, int)#1}::operator()(int, int) const::{lambda()#1}, std::__ndk1::allocator<NetworkManager::send<BanUserPacket>(BanUserPacket*, std::__ndk1::function<void ()>)::{lambda(int, int)#1}::operator()(int, int) const::{lambda()#1}>, void ()>::destroy_deallocate()
FUNC ff2b0 20 0 std::__ndk1::__function::__func<NetworkManager::send<BanUserPacket>(BanUserPacket*, std::__ndk1::function<void ()>)::{lambda(int, int)#1}::operator()(int, int) const::{lambda()#1}, std::__ndk1::allocator<NetworkManager::send<BanUserPacket>(BanUserPacket*, std::__ndk1::function<void ()>)::{lambda(int, int)#1}::operator()(int, int) const::{lambda()#1}>, void ()>::operator()()
FUNC ff2d0 1c 0 std::__ndk1::__function::__func<NetworkManager::send<BanUserPacket>(BanUserPacket*, std::__ndk1::function<void ()>)::{lambda(int, int)#1}::operator()(int, int) const::{lambda()#1}, std::__ndk1::allocator<NetworkManager::send<BanUserPacket>(BanUserPacket*, std::__ndk1::function<void ()>)::{lambda(int, int)#1}::operator()(int, int) const::{lambda()#1}>, void ()>::target(std::type_info const&) const
FUNC ff2ec c 0 std::__ndk1::__function::__func<NetworkManager::send<BanUserPacket>(BanUserPacket*, std::__ndk1::function<void ()>)::{lambda(int, int)#1}::operator()(int, int) const::{lambda()#1}, std::__ndk1::allocator<NetworkManager::send<BanUserPacket>(BanUserPacket*, std::__ndk1::function<void ()>)::{lambda(int, int)#1}::operator()(int, int) const::{lambda()#1}>, void ()>::target_type() const
FUNC ff2f8 4 0 BanUserPacket::decode(std::__ndk1::basic_string<char, std::__ndk1::char_traits<char>, std::__ndk1::allocator<char> >)
FUNC ff2fc 8 0 BanUserPacket::getPacketID() const
FUNC ff304 c 0 BanUserPacket::getPacketName() const
FUNC ff310 4 0 std::__ndk1::__function::__base<void (CCMenuItemSpriteExtra*)>::~__base()
FUNC ff314 4 0 std::__ndk1::__function::__func<AdminPanel::setup()::$_1, std::__ndk1::allocator<AdminPanel::setup()::$_1>, void (CCMenuItemSpriteExtra*)>::~__func()
FUNC ff318 34 0 std::__ndk1::__function::__func<AdminPanel::setup()::$_1, std::__ndk1::allocator<AdminPanel::setup()::$_1>, void (CCMenuItemSpriteExtra*)>::__clone() const
FUNC ff34c 14 0 std::__ndk1::__function::__func<AdminPanel::setup()::$_1, std::__ndk1::allocator<AdminPanel::setup()::$_1>, void (CCMenuItemSpriteExtra*)>::__clone(std::__ndk1::__function::__base<void (CCMenuItemSpriteExtra*)>*) const
FUNC ff360 4 0 std::__ndk1::__function::__func<AdminPanel::setup()::$_1, std::__ndk1::allocator<AdminPanel::setup()::$_1>, void (CCMenuItemSpriteExtra*)>::destroy()
FUNC ff364 4 0 std::__ndk1::__function::__func<AdminPanel::setup()::$_1, std::__ndk1::allocator<AdminPanel::setup()::$_1>, void (CCMenuItemSpriteExtra*)>::destroy_deallocate()
FUNC ff368 a18 0 std::__ndk1::__function::__func<AdminPanel::setup()::$_1, std::__ndk1::allocator<AdminPanel::setup()::$_1>, void (CCMenuItemSpriteExtra*)>::operator()(CCMenuItemSpriteExtra*&&)
FUNC ffd80 1c 0 std::__ndk1::__function::__func<AdminPanel::setup()::$_1, std::__ndk1::allocator<AdminPanel::setup()::$_1>, void (CCMenuItemSpriteExtra*)>::target(std::type_info const&) const
FUNC ffd9c c 0 std::__ndk1::__function::__func<AdminPanel::setup()::$_1, std::__ndk1::allocator<AdminPanel::setup()::$_1>, void (CCMenuItemSpriteExtra*)>::target_type() const
FUNC ffda8 1c4 0 geode::utils::numFromString<int>(std::__ndk1::basic_string_view<char, std::__ndk1::char_traits<char> >, int)
FUNC fff6c 74 0 geode::impl::ResultData<int, std::__ndk1::basic_string<char, std::__ndk1::char_traits<char>, std::__ndk1::allocator<char> > >::~ResultData()
FUNC fffe0 318 0 rapidjson::internal::u32toa(unsigned int, char*)
FUNC 1002f8 44 0 std::__ndk1::__function::__func<NetworkManager::send<UnbanUserPacket>(UnbanUserPacket*, std::__ndk1::function<void ()>)::{lambda(int, int)#1}, std::__ndk1::allocator<NetworkManager::send<UnbanUserPacket>(UnbanUserPacket*, std::__ndk1::function<void ()>)::{lambda(int, int)#1}>, bool (int, int)>::~__func()
FUNC 10033c 5c 0 std::__ndk1::__function::__func<NetworkManager::send<UnbanUserPacket>(UnbanUserPacket*, std::__ndk1::function<void ()>)::{lambda(int, int)#1}, std::__ndk1::allocator<NetworkManager::send<UnbanUserPacket>(UnbanUserPacket*, std::__ndk1::function<void ()>)::{lambda(int, int)#1}>, bool (int, int)>::~__func()
FUNC 100398 88 0 std::__ndk1::__function::__func<NetworkManager::send<UnbanUserPacket>(UnbanUserPacket*, std::__ndk1::function<void ()>)::{lambda(int, int)#1}, std::__ndk1::allocator<NetworkManager::send<UnbanUserPacket>(UnbanUserPacket*, std::__ndk1::function<void ()>)::{lambda(int, int)#1}>, bool (int, int)>::__clone() const
FUNC 100420 74 0 std::__ndk1::__function::__func<NetworkManager::send<UnbanUserPacket>(UnbanUserPacket*, std::__ndk1::function<void ()>)::{lambda(int, int)#1}, std::__ndk1::allocator<NetworkManager::send<UnbanUserPacket>(UnbanUserPacket*, std::__ndk1::function<void ()>)::{lambda(int, int)#1}>, bool (int, int)>::__clone(std::__ndk1::__function::__base<bool (int, int)>*) const
FUNC 100494 38 0 std::__ndk1::__function::__func<NetworkManager::send<UnbanUserPacket>(UnbanUserPacket*, std::__ndk1::function<void ()>)::{lambda(int, int)#1}, std::__ndk1::allocator<NetworkManager::send<UnbanUserPacket>(UnbanUserPacket*, std::__ndk1::function<void ()>)::{lambda(int, int)#1}>, bool (int, int)>::destroy()
FUNC 1004cc 50 0 std::__ndk1::__function::__func<NetworkManager::send<UnbanUserPacket>(UnbanUserPacket*, std::__ndk1::function<void ()>)::{lambda(int, int)#1}, std::__ndk1::allocator<NetworkManager::send<UnbanUserPacket>(UnbanUserPacket*, std::__ndk1::function<void ()>)::{lambda(int, int)#1}>, bool (int, int)>::destroy_deallocate()
FUNC 10051c 21c 0 std::__ndk1::__function::__func<NetworkManager::send<UnbanUserPacket>(UnbanUserPacket*, std::__ndk1::function<void ()>)::{lambda(int, int)#1}, std::__ndk1::allocator<NetworkManager::send<UnbanUserPacket>(UnbanUserPacket*, std::__ndk1::function<void ()>)::{lambda(int, int)#1}>, bool (int, int)>::operator()(int&&, int&&)
FUNC 100738 1c 0 std::__ndk1::__function::__func<NetworkManager::send<UnbanUserPacket>(UnbanUserPacket*, std::__ndk1::function<void ()>)::{lambda(int, int)#1}, std::__ndk1::allocator<NetworkManager::send<UnbanUserPacket>(UnbanUserPacket*, std::__ndk1::function<void ()>)::{lambda(int, int)#1}>, bool (int, int)>::target(std::type_info const&) const
FUNC 100754 c 0 std::__ndk1::__function::__func<NetworkManager::send<UnbanUserPacket>(UnbanUserPacket*, std::__ndk1::function<void ()>)::{lambda(int, int)#1}, std::__ndk1::allocator<NetworkManager::send<UnbanUserPacket>(UnbanUserPacket*, std::__ndk1::function<void ()>)::{lambda(int, int)#1}>, bool (int, int)>::target_type() const
FUNC 100760 44 0 std::__ndk1::__function::__func<NetworkManager::send<UnbanUserPacket>(UnbanUserPacket*, std::__ndk1::function<void ()>)::{lambda(int, int)#1}::operator()(int, int) const::{lambda()#1}, std::__ndk1::allocator<NetworkManager::send<UnbanUserPacket>(UnbanUserPacket*, std::__ndk1::function<void ()>)::{lambda(int, int)#1}::operator()(int, int) const::{lambda()#1}>, void ()>::~__func()
FUNC 1007a4 5c 0 std::__ndk1::__function::__func<NetworkManager::send<UnbanUserPacket>(UnbanUserPacket*, std::__ndk1::function<void ()>)::{lambda(int, int)#1}::operator()(int, int) const::{lambda()#1}, std::__ndk1::allocator<NetworkManager::send<UnbanUserPacket>(UnbanUserPacket*, std::__ndk1::function<void ()>)::{lambda(int, int)#1}::operator()(int, int) const::{lambda()#1}>, void ()>::~__func()
FUNC 100800 88 0 std::__ndk1::__function::__func<NetworkManager::send<UnbanUserPacket>(UnbanUserPacket*, std::__ndk1::function<void ()>)::{lambda(int, int)#1}::operator()(int, int) const::{lambda()#1}, std::__ndk1::allocator<NetworkManager::send<UnbanUserPacket>(UnbanUserPacket*, std::__ndk1::function<void ()>)::{lambda(int, int)#1}::operator()(int, int) const::{lambda()#1}>, void ()>::__clone() const
FUNC 100888 74 0 std::__ndk1::__function::__func<NetworkManager::send<UnbanUserPacket>(UnbanUserPacket*, std::__ndk1::function<void ()>)::{lambda(int, int)#1}::operator()(int, int) const::{lambda()#1}, std::__ndk1::allocator<NetworkManager::send<UnbanUserPacket>(UnbanUserPacket*, std::__ndk1::function<void ()>)::{lambda(int, int)#1}::operator()(int, int) const::{lambda()#1}>, void ()>::__clone(std::__ndk1::__function::__base<void ()>*) const
FUNC 1008fc 38 0 std::__ndk1::__function::__func<NetworkManager::send<UnbanUserPacket>(UnbanUserPacket*, std::__ndk1::function<void ()>)::{lambda(int, int)#1}::operator()(int, int) const::{lambda()#1}, std::__ndk1::allocator<NetworkManager::send<UnbanUserPacket>(UnbanUserPacket*, std::__ndk1::function<void ()>)::{lambda(int, int)#1}::operator()(int, int) const::{lambda()#1}>, void ()>::destroy()
FUNC 100934 50 0 std::__ndk1::__function::__func<NetworkManager::send<UnbanUserPacket>(UnbanUserPacket*, std::__ndk1::function<void ()>)::{lambda(int, int)#1}::operator()(int, int) const::{lambda()#1}, std::__ndk1::allocator<NetworkManager::send<UnbanUserPacket>(UnbanUserPacket*, std::__ndk1::function<void ()>)::{lambda(int, int)#1}::operator()(int, int) const::{lambda()#1}>, void ()>::destroy_deallocate()
FUNC 100984 20 0 std::__ndk1::__function::__func<NetworkManager::send<UnbanUserPacket>(UnbanUserPacket*, std::__ndk1::function<void ()>)::{lambda(int, int)#1}::operator()(int, int) const::{lambda()#1}, std::__ndk1::allocator<NetworkManager::send<UnbanUserPacket>(UnbanUserPacket*, std::__ndk1::function<void ()>)::{lambda(int, int)#1}::operator()(int, int) const::{lambda()#1}>, void ()>::operator()()
FUNC 1009a4 1c 0 std::__ndk1::__function::__func<NetworkManager::send<UnbanUserPacket>(UnbanUserPacket*, std::__ndk1::function<void ()>)::{lambda(int, int)#1}::operator()(int, int) const::{lambda()#1}, std::__ndk1::allocator<NetworkManager::send<UnbanUserPacket>(UnbanUserPacket*, std::__ndk1::function<void ()>)::{lambda(int, int)#1}::operator()(int, int) const::{lambda()#1}>, void ()>::target(std::type_info const&) const
FUNC 1009c0 c 0 std::__ndk1::__function::__func<NetworkManager::send<UnbanUserPacket>(UnbanUserPacket*, std::__ndk1::function<void ()>)::{lambda(int, int)#1}::operator()(int, int) const::{lambda()#1}, std::__ndk1::allocator<NetworkManager::send<UnbanUserPacket>(UnbanUserPacket*, std::__ndk1::function<void ()>)::{lambda(int, int)#1}::operator()(int, int) const::{lambda()#1}>, void ()>::target_type() const
FUNC 1009cc 4 0 UnbanUserPacket::decode(std::__ndk1::basic_string<char, std::__ndk1::char_traits<char>, std::__ndk1::allocator<char> >)
FUNC 1009d0 8 0 UnbanUserPacket::getPacketID() const
FUNC 1009d8 c 0 UnbanUserPacket::getPacketName() const
FUNC 1009e4 270 0 _ZNSt6__ndk121__from_chars_integralB8ne180000IjTnNS_9enable_ifIXsr11is_unsignedIT_EE5valueEiE4typeELi0EEENS_17from_chars_resultEPKcS7_RS2_i
FUNC 100c54 1a0 0 _ZNSt6__ndk124__subject_seq_combinatorB8ne180000IPKcjZNS_21__from_chars_integralB8ne180000IjTnNS_9enable_ifIXsr11is_unsignedIT_EE5valueEiE4typeELi0EEENS_17from_chars_resultES2_S2_RS5_iEUlS2_S2_RjiE_JiEEES8_S5_S5_RT0_T1_DpT2_
FUNC 100df4 208 0 _ZZNSt6__ndk121__from_chars_integralB8ne180000IjTnNS_9enable_ifIXsr11is_unsignedIT_EE5valueEiE4typeELi0EEENS_17from_chars_resultEPKcS7_RS2_iENKUlS7_S7_RjiE_clES7_S7_S9_i
FUNC 100ffc 4 0 std::__ndk1::__variant_detail::__visitation::__base::__dispatcher<(unsigned long)0>::__dispatch[abi:ne180000]<std::__ndk1::__variant_detail::__dtor<std::__ndk1::__variant_detail::__traits<int, std::__ndk1::basic_string<char, std::__ndk1::char_traits<char>, std::__ndk1::allocator<char> > >, (std::__ndk1::__variant_detail::_Trait)1>::__destroy[abi:ne180000]()::{lambda(auto:1&)#1}, std::__ndk1::__variant_detail::__base<(std::__ndk1::__variant_detail::__traits<int, std::__ndk1::basic_string<char, std::__ndk1::char_traits<char>, std::__ndk1::allocator<char> > >)1, int, std::__ndk1::allocator<char> >&>(std::__ndk1::__variant_detail::__dtor<std::__ndk1::__variant_detail::__traits<int, std::__ndk1::basic_string<char, std::__ndk1::char_traits<char>, std::__ndk1::allocator<char> > >, (std::__ndk1::__variant_detail::_Trait)1>, std::__ndk1::__variant_detail::__base<(std::__ndk1::__variant_detail::__traits<int, std::__ndk1::basic_string<char, std::__ndk1::char_traits<char>, std::__ndk1::allocator<char> > >)1, int, std::__ndk1::allocator<char> >&)
FUNC 101000 14 0 std::__ndk1::__variant_detail::__visitation::__base::__dispatcher<(unsigned long)1>::__dispatch[abi:ne180000]<std::__ndk1::__variant_detail::__dtor<std::__ndk1::__variant_detail::__traits<int, std::__ndk1::basic_string<char, std::__ndk1::char_traits<char>, std::__ndk1::allocator<char> > >, (std::__ndk1::__variant_detail::_Trait)1>::__destroy[abi:ne180000]()::{lambda(auto:1&)#1}, std::__ndk1::__variant_detail::__base<(std::__ndk1::__variant_detail::__traits<int, std::__ndk1::basic_string<char, std::__ndk1::char_traits<char>, std::__ndk1::allocator<char> > >)1, int, std::__ndk1::allocator<char> >&>(std::__ndk1::__variant_detail::__dtor<std::__ndk1::__variant_detail::__traits<int, std::__ndk1::basic_string<char, std::__ndk1::char_traits<char>, std::__ndk1::allocator<char> > >, (std::__ndk1::__variant_detail::_Trait)1>, std::__ndk1::__variant_detail::__base<(std::__ndk1::__variant_detail::__traits<int, std::__ndk1::basic_string<char, std::__ndk1::char_traits<char>, std::__ndk1::allocator<char> > >)1, int, std::__ndk1::allocator<char> >&)
FUNC 101014 50 0 geode::Popup<>::CloseEvent::~CloseEvent()
FUNC 101064 58 0 geode::Popup<>::CloseEvent::~CloseEvent()
FUNC 1010bc 10 0 std::__ndk1::__shared_ptr_emplace<geode::Popup<>::CloseEvent::Impl, std::__ndk1::allocator<geode::Popup<>::CloseEvent::Impl> >::~__shared_ptr_emplace()
FUNC 1010cc 30 0 std::__ndk1::__shared_ptr_emplace<geode::Popup<>::CloseEvent::Impl, std::__ndk1::allocator<geode::Popup<>::CloseEvent::Impl> >::~__shared_ptr_emplace()
FUNC 1010fc 4 0 std::__ndk1::__shared_ptr_emplace<geode::Popup<>::CloseEvent::Impl, std::__ndk1::allocator<geode::Popup<>::CloseEvent::Impl> >::__on_zero_shared()
FUNC 101100 4 0 std::__ndk1::__shared_ptr_emplace<geode::Popup<>::CloseEvent::Impl, std::__ndk1::allocator<geode::Popup<>::CloseEvent::Impl> >::__on_zero_shared_weak()
FUNC 101104 60 0 _GLOBAL__sub_I_AdminPanel.cpp
FUNC 101164 8c 0 std::__ndk1::basic_string<char, std::__ndk1::char_traits<char>, std::__ndk1::allocator<char> >::basic_string[abi:ne180000]<0>()
FUNC 1011f0 150 0 AuthPopup::create()
FUNC 101340 5e0 0 AuthPopup::setup()
FUNC 101920 74 0 AuthPopup::~AuthPopup()
FUNC 101994 6c 0 {virtual override thunk({offset(-320)}, AuthPopup::~AuthPopup())}
FUNC 101a00 74 0 {virtual override thunk({offset(-320)}, AuthPopup::~AuthPopup())}
FUNC 101a74 4 0 std::__ndk1::__function::__func<AuthPopup::setup()::$_0, std::__ndk1::allocator<AuthPopup::setup()::$_0>, void (CCMenuItemSpriteExtra*)>::~__func()
FUNC 101a78 38 0 std::__ndk1::__function::__func<AuthPopup::setup()::$_0, std::__ndk1::allocator<AuthPopup::setup()::$_0>, void (CCMenuItemSpriteExtra*)>::__clone() const
FUNC 101ab0 18 0 std::__ndk1::__function::__func<AuthPopup::setup()::$_0, std::__ndk1::allocator<AuthPopup::setup()::$_0>, void (CCMenuItemSpriteExtra*)>::__clone(std::__ndk1::__function::__base<void (CCMenuItemSpriteExtra*)>*) const
FUNC 101ac8 4 0 std::__ndk1::__function::__func<AuthPopup::setup()::$_0, std::__ndk1::allocator<AuthPopup::setup()::$_0>, void (CCMenuItemSpriteExtra*)>::destroy()
FUNC 101acc 4 0 std::__ndk1::__function::__func<AuthPopup::setup()::$_0, std::__ndk1::allocator<AuthPopup::setup()::$_0>, void (CCMenuItemSpriteExtra*)>::destroy_deallocate()
FUNC 101ad0 9e0 0 std::__ndk1::__function::__func<AuthPopup::setup()::$_0, std::__ndk1::allocator<AuthPopup::setup()::$_0>, void (CCMenuItemSpriteExtra*)>::operator()(CCMenuItemSpriteExtra*&&)
FUNC 1024b0 1c 0 std::__ndk1::__function::__func<AuthPopup::setup()::$_0, std::__ndk1::allocator<AuthPopup::setup()::$_0>, void (CCMenuItemSpriteExtra*)>::target(std::type_info const&) const
FUNC 1024cc c 0 std::__ndk1::__function::__func<AuthPopup::setup()::$_0, std::__ndk1::allocator<AuthPopup::setup()::$_0>, void (CCMenuItemSpriteExtra*)>::target_type() const
FUNC 1024d8 24 0 cereal::Exception::~Exception()
FUNC 1024fc 38 0 rapidjson::internal::Stack<rapidjson::CrtAllocator>::~Stack()
FUNC 102534 5c 0 std::__ndk1::operator+[abi:ne180000]<char, std::__ndk1::char_traits<char>, std::__ndk1::allocator<char> >(std::__ndk1::allocator<char>&&, std::__ndk1::basic_string const*)
FUNC 102590 5c 0 std::__ndk1::operator+[abi:ne180000]<char, std::__ndk1::char_traits<char>, std::__ndk1::allocator<char> >(std::__ndk1::basic_string const*, std::__ndk1::allocator<char>&&)
FUNC 1025ec 44 0 std::__ndk1::__function::__func<NetworkManager::send<AuthorizeUserPacket>(AuthorizeUserPacket*, std::__ndk1::function<void ()>)::{lambda(int, int)#1}, std::__ndk1::allocator<NetworkManager::send<AuthorizeUserPacket>(AuthorizeUserPacket*, std::__ndk1::function<void ()>)::{lambda(int, int)#1}>, bool (int, int)>::~__func()
FUNC 102630 5c 0 std::__ndk1::__function::__func<NetworkManager::send<AuthorizeUserPacket>(AuthorizeUserPacket*, std::__ndk1::function<void ()>)::{lambda(int, int)#1}, std::__ndk1::allocator<NetworkManager::send<AuthorizeUserPacket>(AuthorizeUserPacket*, std::__ndk1::function<void ()>)::{lambda(int, int)#1}>, bool (int, int)>::~__func()
FUNC 10268c 88 0 std::__ndk1::__function::__func<NetworkManager::send<AuthorizeUserPacket>(AuthorizeUserPacket*, std::__ndk1::function<void ()>)::{lambda(int, int)#1}, std::__ndk1::allocator<NetworkManager::send<AuthorizeUserPacket>(AuthorizeUserPacket*, std::__ndk1::function<void ()>)::{lambda(int, int)#1}>, bool (int, int)>::__clone() const
FUNC 102714 74 0 std::__ndk1::__function::__func<NetworkManager::send<AuthorizeUserPacket>(AuthorizeUserPacket*, std::__ndk1::function<void ()>)::{lambda(int, int)#1}, std::__ndk1::allocator<NetworkManager::send<AuthorizeUserPacket>(AuthorizeUserPacket*, std::__ndk1::function<void ()>)::{lambda(int, int)#1}>, bool (int, int)>::__clone(std::__ndk1::__function::__base<bool (int, int)>*) const
FUNC 102788 38 0 std::__ndk1::__function::__func<NetworkManager::send<AuthorizeUserPacket>(AuthorizeUserPacket*, std::__ndk1::function<void ()>)::{lambda(int, int)#1}, std::__ndk1::allocator<NetworkManager::send<AuthorizeUserPacket>(AuthorizeUserPacket*, std::__ndk1::function<void ()>)::{lambda(int, int)#1}>, bool (int, int)>::destroy()
FUNC 1027c0 50 0 std::__ndk1::__function::__func<NetworkManager::send<AuthorizeUserPacket>(AuthorizeUserPacket*, std::__ndk1::function<void ()>)::{lambda(int, int)#1}, std::__ndk1::allocator<NetworkManager::send<AuthorizeUserPacket>(AuthorizeUserPacket*, std::__ndk1::function<void ()>)::{lambda(int, int)#1}>, bool (int, int)>::destroy_deallocate()
FUNC 102810 21c 0 std::__ndk1::__function::__func<NetworkManager::send<AuthorizeUserPacket>(AuthorizeUserPacket*, std::__ndk1::function<void ()>)::{lambda(int, int)#1}, std::__ndk1::allocator<NetworkManager::send<AuthorizeUserPacket>(AuthorizeUserPacket*, std::__ndk1::function<void ()>)::{lambda(int, int)#1}>, bool (int, int)>::operator()(int&&, int&&)
FUNC 102a2c 1c 0 std::__ndk1::__function::__func<NetworkManager::send<AuthorizeUserPacket>(AuthorizeUserPacket*, std::__ndk1::function<void ()>)::{lambda(int, int)#1}, std::__ndk1::allocator<NetworkManager::send<AuthorizeUserPacket>(AuthorizeUserPacket*, std::__ndk1::function<void ()>)::{lambda(int, int)#1}>, bool (int, int)>::target(std::type_info const&) const
FUNC 102a48 c 0 std::__ndk1::__function::__func<NetworkManager::send<AuthorizeUserPacket>(AuthorizeUserPacket*, std::__ndk1::function<void ()>)::{lambda(int, int)#1}, std::__ndk1::allocator<NetworkManager::send<AuthorizeUserPacket>(AuthorizeUserPacket*, std::__ndk1::function<void ()>)::{lambda(int, int)#1}>, bool (int, int)>::target_type() const
FUNC 102a54 44 0 std::__ndk1::__function::__func<NetworkManager::send<AuthorizeUserPacket>(AuthorizeUserPacket*, std::__ndk1::function<void ()>)::{lambda(int, int)#1}::operator()(int, int) const::{lambda()#1}, std::__ndk1::allocator<NetworkManager::send<AuthorizeUserPacket>(AuthorizeUserPacket*, std::__ndk1::function<void ()>)::{lambda(int, int)#1}::operator()(int, int) const::{lambda()#1}>, void ()>::~__func()
FUNC 102a98 5c 0 std::__ndk1::__function::__func<NetworkManager::send<AuthorizeUserPacket>(AuthorizeUserPacket*, std::__ndk1::function<void ()>)::{lambda(int, int)#1}::operator()(int, int) const::{lambda()#1}, std::__ndk1::allocator<NetworkManager::send<AuthorizeUserPacket>(AuthorizeUserPacket*, std::__ndk1::function<void ()>)::{lambda(int, int)#1}::operator()(int, int) const::{lambda()#1}>, void ()>::~__func()
FUNC 102af4 88 0 std::__ndk1::__function::__func<NetworkManager::send<AuthorizeUserPacket>(AuthorizeUserPacket*, std::__ndk1::function<void ()>)::{lambda(int, int)#1}::operator()(int, int) const::{lambda()#1}, std::__ndk1::allocator<NetworkManager::send<AuthorizeUserPacket>(AuthorizeUserPacket*, std::__ndk1::function<void ()>)::{lambda(int, int)#1}::operator()(int, int) const::{lambda()#1}>, void ()>::__clone() const
FUNC 102b7c 74 0 std::__ndk1::__function::__func<NetworkManager::send<AuthorizeUserPacket>(AuthorizeUserPacket*, std::__ndk1::function<void ()>)::{lambda(int, int)#1}::operator()(int, int) const::{lambda()#1}, std::__ndk1::allocator<NetworkManager::send<AuthorizeUserPacket>(AuthorizeUserPacket*, std::__ndk1::function<void ()>)::{lambda(int, int)#1}::operator()(int, int) const::{lambda()#1}>, void ()>::__clone(std::__ndk1::__function::__base<void ()>*) const
FUNC 102bf0 38 0 std::__ndk1::__function::__func<NetworkManager::send<AuthorizeUserPacket>(AuthorizeUserPacket*, std::__ndk1::function<void ()>)::{lambda(int, int)#1}::operator()(int, int) const::{lambda()#1}, std::__ndk1::allocator<NetworkManager::send<AuthorizeUserPacket>(AuthorizeUserPacket*, std::__ndk1::function<void ()>)::{lambda(int, int)#1}::operator()(int, int) const::{lambda()#1}>, void ()>::destroy()
FUNC 102c28 50 0 std::__ndk1::__function::__func<NetworkManager::send<AuthorizeUserPacket>(AuthorizeUserPacket*, std::__ndk1::function<void ()>)::{lambda(int, int)#1}::operator()(int, int) const::{lambda()#1}, std::__ndk1::allocator<NetworkManager::send<AuthorizeUserPacket>(AuthorizeUserPacket*, std::__ndk1::function<void ()>)::{lambda(int, int)#1}::operator()(int, int) const::{lambda()#1}>, void ()>::destroy_deallocate()
FUNC 102c78 20 0 std::__ndk1::__function::__func<NetworkManager::send<AuthorizeUserPacket>(AuthorizeUserPacket*, std::__ndk1::function<void ()>)::{lambda(int, int)#1}::operator()(int, int) const::{lambda()#1}, std::__ndk1::allocator<NetworkManager::send<AuthorizeUserPacket>(AuthorizeUserPacket*, std::__ndk1::function<void ()>)::{lambda(int, int)#1}::operator()(int, int) const::{lambda()#1}>, void ()>::operator()()
FUNC 102c98 1c 0 std::__ndk1::__function::__func<NetworkManager::send<AuthorizeUserPacket>(AuthorizeUserPacket*, std::__ndk1::function<void ()>)::{lambda(int, int)#1}::operator()(int, int) const::{lambda()#1}, std::__ndk1::allocator<NetworkManager::send<AuthorizeUserPacket>(AuthorizeUserPacket*, std::__ndk1::function<void ()>)::{lambda(int, int)#1}::operator()(int, int) const::{lambda()#1}>, void ()>::target(std::type_info const&) const
FUNC 102cb4 c 0 std::__ndk1::__function::__func<NetworkManager::send<AuthorizeUserPacket>(AuthorizeUserPacket*, std::__ndk1::function<void ()>)::{lambda(int, int)#1}::operator()(int, int) const::{lambda()#1}, std::__ndk1::allocator<NetworkManager::send<AuthorizeUserPacket>(AuthorizeUserPacket*, std::__ndk1::function<void ()>)::{lambda(int, int)#1}::operator()(int, int) const::{lambda()#1}>, void ()>::target_type() const
FUNC 102cc0 4 0 AuthorizeUserPacket::decode(std::__ndk1::basic_string<char, std::__ndk1::char_traits<char>, std::__ndk1::allocator<char> >)
FUNC 102cc4 8 0 AuthorizeUserPacket::getPacketID() const
FUNC 102ccc c 0 AuthorizeUserPacket::getPacketName() const
FUNC 102cd8 314 0 std::__ndk1::__hash_table<std::__ndk1::__hash_value_type<int, std::__ndk1::function<void (std::__ndk1::basic_string<char, std::__ndk1::char_traits<char>, std::__ndk1::allocator<char> >)> >, std::__ndk1::__unordered_map_hasher<int, std::__ndk1::__hash_value_type<int, std::__ndk1::function<void (std::__ndk1::basic_string<char, std::__ndk1::char_traits<char>, std::__ndk1::allocator<char> >)> >, std::__ndk1::hash<int>, std::__ndk1::equal_to<int>, true>, std::__ndk1::__unordered_map_equal<int, std::__ndk1::__hash_value_type<int, std::__ndk1::function<void (std::__ndk1::basic_string<char, std::__ndk1::char_traits<char>, std::__ndk1::allocator<char> >)> >, std::__ndk1::equal_to<int>, std::__ndk1::hash<int>, true>, std::__ndk1::allocator<std::__ndk1::__hash_value_type<int, std::__ndk1::function<void (std::__ndk1::basic_string<char, std::__ndk1::char_traits<char>, std::__ndk1::allocator<char> >)> > > >::__emplace_unique_key_args<int, std::__ndk1::piecewise_construct_t const&, std::__ndk1::tuple<int const&>, std::__ndk1::tuple<> >(int const&, std::__ndk1::piecewise_construct_t const&, std::__ndk1::tuple<int const&>, std::__ndk1::tuple<>)
FUNC 102fec 6c 0 std::__ndk1::unique_ptr<std::__ndk1::__hash_node<std::__ndk1::__hash_value_type<int, std::__ndk1::function<void (std::__ndk1::basic_string<char, std::__ndk1::char_traits<char>, std::__ndk1::allocator<char> >)> >, void*>, std::__ndk1::__hash_node_destructor<std::__ndk1::allocator<std::__ndk1::__hash_node<std::__ndk1::__hash_value_type<int, std::__ndk1::function<void (std::__ndk1::basic_string<char, std::__ndk1::char_traits<char>, std::__ndk1::allocator<char> >)> >, void*> > > >::~unique_ptr[abi:ne180000]()
FUNC 103058 15c 0 std::__ndk1::__hash_table<std::__ndk1::__hash_value_type<int, std::__ndk1::function<void (std::__ndk1::basic_string<char, std::__ndk1::char_traits<char>, std::__ndk1::allocator<char> >)> >, std::__ndk1::__unordered_map_hasher<int, std::__ndk1::__hash_value_type<int, std::__ndk1::function<void (std::__ndk1::basic_string<char, std::__ndk1::char_traits<char>, std::__ndk1::allocator<char> >)> >, std::__ndk1::hash<int>, std::__ndk1::equal_to<int>, true>, std::__ndk1::__unordered_map_equal<int, std::__ndk1::__hash_value_type<int, std::__ndk1::function<void (std::__ndk1::basic_string<char, std::__ndk1::char_traits<char>, std::__ndk1::allocator<char> >)> >, std::__ndk1::equal_to<int>, std::__ndk1::hash<int>, true>, std::__ndk1::allocator<std::__ndk1::__hash_value_type<int, std::__ndk1::function<void (std::__ndk1::basic_string<char, std::__ndk1::char_traits<char>, std::__ndk1::allocator<char> >)> > > >::__do_rehash<true>(unsigned long)
FUNC 1031b4 44 0 _ZNSt6__ndk110__function6__funcIZN14NetworkManager2onI20AuthorizedUserPacketQsr3stdE12is_base_of_vI6PacketT_EEEvNS_8functionIFvPS6_EEEbEUlNS_12basic_stringIcNS_11char_traitsIcEENS_9allocatorIcEEEEE_NSE_ISH_EEFvSG_EED2Ev
FUNC 1031f8 5c 0 _ZNSt6__ndk110__function6__funcIZN14NetworkManager2onI20AuthorizedUserPacketQsr3stdE12is_base_of_vI6PacketT_EEEvNS_8functionIFvPS6_EEEbEUlNS_12basic_stringIcNS_11char_traitsIcEENS_9allocatorIcEEEEE_NSE_ISH_EEFvSG_EED0Ev
FUNC 103254 88 0 _ZNKSt6__ndk110__function6__funcIZN14NetworkManager2onI20AuthorizedUserPacketQsr3stdE12is_base_of_vI6PacketT_EEEvNS_8functionIFvPS6_EEEbEUlNS_12basic_stringIcNS_11char_traitsIcEENS_9allocatorIcEEEEE_NSE_ISH_EEFvSG_EE7__cloneEv
FUNC 1032dc 74 0 _ZNKSt6__ndk110__function6__funcIZN14NetworkManager2onI20AuthorizedUserPacketQsr3stdE12is_base_of_vI6PacketT_EEEvNS_8functionIFvPS6_EEEbEUlNS_12basic_stringIcNS_11char_traitsIcEENS_9allocatorIcEEEEE_NSE_ISH_EEFvSG_EE7__cloneEPNS0_6__baseISJ_EE
FUNC 103350 38 0 _ZNSt6__ndk110__function6__funcIZN14NetworkManager2onI20AuthorizedUserPacketQsr3stdE12is_base_of_vI6PacketT_EEEvNS_8functionIFvPS6_EEEbEUlNS_12basic_stringIcNS_11char_traitsIcEENS_9allocatorIcEEEEE_NSE_ISH_EEFvSG_EE7destroyEv
FUNC 103388 50 0 _ZNSt6__ndk110__function6__funcIZN14NetworkManager2onI20AuthorizedUserPacketQsr3stdE12is_base_of_vI6PacketT_EEEvNS_8functionIFvPS6_EEEbEUlNS_12basic_stringIcNS_11char_traitsIcEENS_9allocatorIcEEEEE_NSE_ISH_EEFvSG_EE18destroy_deallocateEv
FUNC 1033d8 3bc 0 _ZNSt6__ndk110__function6__funcIZN14NetworkManager2onI20AuthorizedUserPacketQsr3stdE12is_base_of_vI6PacketT_EEEvNS_8functionIFvPS6_EEEbEUlNS_12basic_stringIcNS_11char_traitsIcEENS_9allocatorIcEEEEE_NSE_ISH_EEFvSG_EEclEOSG_
FUNC 103794 1c 0 _ZNKSt6__ndk110__function6__funcIZN14NetworkManager2onI20AuthorizedUserPacketQsr3stdE12is_base_of_vI6PacketT_EEEvNS_8functionIFvPS6_EEEbEUlNS_12basic_stringIcNS_11char_traitsIcEENS_9allocatorIcEEEEE_NSE_ISH_EEFvSG_EE6targetERKSt9type_info
FUNC 1037b0 c 0 _ZNKSt6__ndk110__function6__funcIZN14NetworkManager2onI20AuthorizedUserPacketQsr3stdE12is_base_of_vI6PacketT_EEEvNS_8functionIFvPS6_EEEbEUlNS_12basic_stringIcNS_11char_traitsIcEENS_9allocatorIcEEEEE_NSE_ISH_EEFvSG_EE11target_typeEv
FUNC 1037bc 280 0 cereal::JSONInputArchive::JSONInputArchive(std::__ndk1::basic_istream<char, std::__ndk1::char_traits<char> >&)
FUNC 103a3c 44 0 cereal::JSONInputArchive::~JSONInputArchive()
FUNC 103a80 4 0 AuthorizedUserPacket::decode(std::__ndk1::basic_string<char, std::__ndk1::char_traits<char>, std::__ndk1::allocator<char> >)
FUNC 103a84 8 0 AuthorizedUserPacket::getPacketID() const
FUNC 103a8c c 0 AuthorizedUserPacket::getPacketName() const
FUNC 103a98 190 0 std::__ndk1::vector<cereal::JSONInputArchive::Iterator, std::__ndk1::allocator<cereal::JSONInputArchive::Iterator> >::emplace_back<rapidjson::GenericValue<rapidjson::UTF8<char>, rapidjson::MemoryPoolAllocator<rapidjson::CrtAllocator> >*, rapidjson::GenericValue<rapidjson::UTF8<char>, rapidjson::MemoryPoolAllocator<rapidjson::CrtAllocator> >*>(rapidjson::GenericValue<rapidjson::UTF8<char>, rapidjson::MemoryPoolAllocator<rapidjson::CrtAllocator> >*, rapidjson::GenericValue<rapidjson::UTF8<char>, rapidjson::MemoryPoolAllocator<rapidjson::CrtAllocator> >*&&)
FUNC 103c28 18c 0 std::__ndk1::vector<cereal::JSONInputArchive::Iterator, std::__ndk1::allocator<cereal::JSONInputArchive::Iterator> >::emplace_back<rapidjson::GenericMemberIterator<false, rapidjson::UTF8<char>, rapidjson::MemoryPoolAllocator<rapidjson::CrtAllocator> >, rapidjson::GenericMemberIterator<false, rapidjson::UTF8<char>, rapidjson::MemoryPoolAllocator<rapidjson::CrtAllocator> > >(rapidjson::GenericMemberIterator<false, rapidjson::UTF8<char>, rapidjson::MemoryPoolAllocator<rapidjson::CrtAllocator> >&&, rapidjson::GenericMemberIterator<false, rapidjson::UTF8<char>, rapidjson::MemoryPoolAllocator<rapidjson::CrtAllocator> >)
FUNC 103db4 a8 0 rapidjson::GenericDocument<rapidjson::UTF8<char>, rapidjson::MemoryPoolAllocator<rapidjson::CrtAllocator>, rapidjson::CrtAllocator>::~GenericDocument()
FUNC 103e5c 4c 0 cereal::JSONInputArchive::~JSONInputArchive()
FUNC 103ea8 4 0 cereal::detail::InputArchiveBase::rtti()
FUNC 103eac 18c 0 cereal::InputArchive<cereal::JSONInputArchive, (unsigned int)0>::~InputArchive()
FUNC 104038 24 0 cereal::InputArchive<cereal::JSONInputArchive, (unsigned int)0>::~InputArchive()
FUNC 10405c 1a4 0 rapidjson::GenericDocument<rapidjson::UTF8<char>, rapidjson::MemoryPoolAllocator<rapidjson::CrtAllocator>, rapidjson::CrtAllocator>::ParseStream<(unsigned int)272, rapidjson::UTF8<char>, rapidjson::BasicIStreamWrapper<std::__ndk1::basic_istream<char, std::__ndk1::char_traits<char> > > >(rapidjson::BasicIStreamWrapper<std::__ndk1::basic_istream<char, std::__ndk1::char_traits<char> > >&)
FUNC 104200 20c 0 rapidjson::GenericReader<rapidjson::UTF8<char>, rapidjson::UTF8<char>, rapidjson::CrtAllocator>::Parse<(unsigned int)272, rapidjson::BasicIStreamWrapper<std::__ndk1::basic_istream<char, std::__ndk1::char_traits<char> > >, rapidjson::GenericDocument<rapidjson::UTF8<char>, rapidjson::MemoryPoolAllocator<rapidjson::CrtAllocator>, rapidjson::CrtAllocator> >(rapidjson::BasicIStreamWrapper<std::__ndk1::basic_istream<char, std::__ndk1::char_traits<char> > >&, rapidjson::GenericDocument<rapidjson::UTF8<char>, rapidjson::MemoryPoolAllocator<rapidjson::CrtAllocator>, rapidjson::CrtAllocator>&)
FUNC 10440c 38 0 rapidjson::GenericReader<rapidjson::UTF8<char>, rapidjson::UTF8<char>, rapidjson::CrtAllocator>::~GenericReader()
FUNC 104444 60 0 rapidjson::GenericReader<rapidjson::UTF8<char>, rapidjson::UTF8<char>, rapidjson::CrtAllocator>::ParseValue<(unsigned int)272, rapidjson::BasicIStreamWrapper<std::__ndk1::basic_istream<char, std::__ndk1::char_traits<char> > >, rapidjson::GenericDocument<rapidjson::UTF8<char>, rapidjson::MemoryPoolAllocator<rapidjson::CrtAllocator>, rapidjson::CrtAllocator> >(rapidjson::BasicIStreamWrapper<std::__ndk1::basic_istream<char, std::__ndk1::char_traits<char> > >&, rapidjson::GenericDocument<rapidjson::UTF8<char>, rapidjson::MemoryPoolAllocator<rapidjson::CrtAllocator>, rapidjson::CrtAllocator>&)
FUNC 1044a4 bc 0 rapidjson::BasicIStreamWrapper<std::__ndk1::basic_istream<char, std::__ndk1::char_traits<char> > >::Take()
FUNC 104560 10 0 rapidjson::ParseResult::IsError() const
FUNC 104570 354 0 rapidjson::GenericReader<rapidjson::UTF8<char>, rapidjson::UTF8<char>, rapidjson::CrtAllocator>::ParseNull<(unsigned int)272, rapidjson::BasicIStreamWrapper<std::__ndk1::basic_istream<char, std::__ndk1::char_traits<char> > >, rapidjson::GenericDocument<rapidjson::UTF8<char>, rapidjson::MemoryPoolAllocator<rapidjson::CrtAllocator>, rapidjson::CrtAllocator> >(rapidjson::BasicIStreamWrapper<std::__ndk1::basic_istream<char, std::__ndk1::char_traits<char> > >&, rapidjson::GenericDocument<rapidjson::UTF8<char>, rapidjson::MemoryPoolAllocator<rapidjson::CrtAllocator>, rapidjson::CrtAllocator>&)
FUNC 1048c4 358 0 rapidjson::GenericReader<rapidjson::UTF8<char>, rapidjson::UTF8<char>, rapidjson::CrtAllocator>::ParseTrue<(unsigned int)272, rapidjson::BasicIStreamWrapper<std::__ndk1::basic_istream<char, std::__ndk1::char_traits<char> > >, rapidjson::GenericDocument<rapidjson::UTF8<char>, rapidjson::MemoryPoolAllocator<rapidjson::CrtAllocator>, rapidjson::CrtAllocator> >(rapidjson::BasicIStreamWrapper<std::__ndk1::basic_istream<char, std::__ndk1::char_traits<char> > >&, rapidjson::GenericDocument<rapidjson::UTF8<char>, rapidjson::MemoryPoolAllocator<rapidjson::CrtAllocator>, rapidjson::CrtAllocator>&)
FUNC 104c1c 3ec 0 rapidjson::GenericReader<rapidjson::UTF8<char>, rapidjson::UTF8<char>, rapidjson::CrtAllocator>::ParseFalse<(unsigned int)272, rapidjson::BasicIStreamWrapper<std::__ndk1::basic_istream<char, std::__ndk1::char_traits<char> > >, rapidjson::GenericDocument<rapidjson::UTF8<char>, rapidjson::MemoryPoolAllocator<rapidjson::CrtAllocator>, rapidjson::CrtAllocator> >(rapidjson::BasicIStreamWrapper<std::__ndk1::basic_istream<char, std::__ndk1::char_traits<char> > >&, rapidjson::GenericDocument<rapidjson::UTF8<char>, rapidjson::MemoryPoolAllocator<rapidjson::CrtAllocator>, rapidjson::CrtAllocator>&)
FUNC 105008 814 0 rapidjson::GenericReader<rapidjson::UTF8<char>, rapidjson::UTF8<char>, rapidjson::CrtAllocator>::ParseString<(unsigned int)272, rapidjson::BasicIStreamWrapper<std::__ndk1::basic_istream<char, std::__ndk1::char_traits<char> > >, rapidjson::GenericDocument<rapidjson::UTF8<char>, rapidjson::MemoryPoolAllocator<rapidjson::CrtAllocator>, rapidjson::CrtAllocator> >(rapidjson::BasicIStreamWrapper<std::__ndk1::basic_istream<char, std::__ndk1::char_traits<char> > >&, rapidjson::GenericDocument<rapidjson::UTF8<char>, rapidjson::MemoryPoolAllocator<rapidjson::CrtAllocator>, rapidjson::CrtAllocator>&, bool)
FUNC 10581c 6e0 0 rapidjson::GenericReader<rapidjson::UTF8<char>, rapidjson::UTF8<char>, rapidjson::CrtAllocator>::ParseObject<(unsigned int)272, rapidjson::BasicIStreamWrapper<std::__ndk1::basic_istream<char, std::__ndk1::char_traits<char> > >, rapidjson::GenericDocument<rapidjson::UTF8<char>, rapidjson::MemoryPoolAllocator<rapidjson::CrtAllocator>, rapidjson::CrtAllocator> >(rapidjson::BasicIStreamWrapper<std::__ndk1::basic_istream<char, std::__ndk1::char_traits<char> > >&, rapidjson::GenericDocument<rapidjson::UTF8<char>, rapidjson::MemoryPoolAllocator<rapidjson::CrtAllocator>, rapidjson::CrtAllocator>&)
FUNC 105efc 540 0 rapidjson::GenericReader<rapidjson::UTF8<char>, rapidjson::UTF8<char>, rapidjson::CrtAllocator>::ParseArray<(unsigned int)272, rapidjson::BasicIStreamWrapper<std::__ndk1::basic_istream<char, std::__ndk1::char_traits<char> > >, rapidjson::GenericDocument<rapidjson::UTF8<char>, rapidjson::MemoryPoolAllocator<rapidjson::CrtAllocator>, rapidjson::CrtAllocator> >(rapidjson::BasicIStreamWrapper<std::__ndk1::basic_istream<char, std::__ndk1::char_traits<char> > >&, rapidjson::GenericDocument<rapidjson::UTF8<char>, rapidjson::MemoryPoolAllocator<rapidjson::CrtAllocator>, rapidjson::CrtAllocator>&)
FUNC 10643c 1c5c 0 rapidjson::GenericReader<rapidjson::UTF8<char>, rapidjson::UTF8<char>, rapidjson::CrtAllocator>::ParseNumber<(unsigned int)272, rapidjson::BasicIStreamWrapper<std::__ndk1::basic_istream<char, std::__ndk1::char_traits<char> > >, rapidjson::GenericDocument<rapidjson::UTF8<char>, rapidjson::MemoryPoolAllocator<rapidjson::CrtAllocator>, rapidjson::CrtAllocator> >(rapidjson::BasicIStreamWrapper<std::__ndk1::basic_istream<char, std::__ndk1::char_traits<char> > >&, rapidjson::GenericDocument<rapidjson::UTF8<char>, rapidjson::MemoryPoolAllocator<rapidjson::CrtAllocator>, rapidjson::CrtAllocator>&)
FUNC 108098 d0 0 rapidjson::GenericDocument<rapidjson::UTF8<char>, rapidjson::MemoryPoolAllocator<rapidjson::CrtAllocator>, rapidjson::CrtAllocator>::Null()
FUNC 108168 b4 0 rapidjson::internal::Stack<rapidjson::CrtAllocator>::Expand<rapidjson::GenericValue<rapidjson::UTF8<char>, rapidjson::MemoryPoolAllocator<rapidjson::CrtAllocator> > >(unsigned long)
FUNC 10821c e8 0 rapidjson::GenericDocument<rapidjson::UTF8<char>, rapidjson::MemoryPoolAllocator<rapidjson::CrtAllocator>, rapidjson::CrtAllocator>::Bool(bool)
FUNC 108304 2d8 0 rapidjson::GenericDocument<rapidjson::UTF8<char>, rapidjson::MemoryPoolAllocator<rapidjson::CrtAllocator>, rapidjson::CrtAllocator>::String(char const*, unsigned int, bool)
FUNC 1085dc 184 0 rapidjson::GenericReader<rapidjson::UTF8<char>, rapidjson::UTF8<char>, rapidjson::CrtAllocator>::ParseHex4<rapidjson::BasicIStreamWrapper<std::__ndk1::basic_istream<char, std::__ndk1::char_traits<char> > > >(rapidjson::BasicIStreamWrapper<std::__ndk1::basic_istream<char, std::__ndk1::char_traits<char> > >&, unsigned long)
FUNC 108760 6e4 0 rapidjson::UTF8<char>::Encode<rapidjson::GenericReader<rapidjson::UTF8<char>, rapidjson::UTF8<char>, rapidjson::CrtAllocator>::StackStream<char> >(rapidjson::GenericReader<rapidjson::UTF8<char>, rapidjson::UTF8<char>, rapidjson::CrtAllocator>::StackStream<char>&, unsigned int)
FUNC 108e44 b0 0 rapidjson::internal::Stack<rapidjson::CrtAllocator>::Expand<char>(unsigned long)
FUNC 108ef4 120 0 rapidjson::GenericValue<rapidjson::UTF8<char>, rapidjson::MemoryPoolAllocator<rapidjson::CrtAllocator> >::SetStringRaw(rapidjson::GenericStringRef<char>, rapidjson::MemoryPoolAllocator<rapidjson::CrtAllocator>&)
FUNC 109014 d8 0 rapidjson::GenericDocument<rapidjson::UTF8<char>, rapidjson::MemoryPoolAllocator<rapidjson::CrtAllocator>, rapidjson::CrtAllocator>::StartObject()
FUNC 1090ec e0 0 rapidjson::GenericDocument<rapidjson::UTF8<char>, rapidjson::MemoryPoolAllocator<rapidjson::CrtAllocator>, rapidjson::CrtAllocator>::EndObject(unsigned int)
FUNC 1091cc ec 0 rapidjson::GenericValue<rapidjson::UTF8<char>, rapidjson::MemoryPoolAllocator<rapidjson::CrtAllocator> >::SetObjectRaw(rapidjson::GenericMember<rapidjson::UTF8<char>, rapidjson::MemoryPoolAllocator<rapidjson::CrtAllocator> >*, unsigned int, rapidjson::MemoryPoolAllocator<rapidjson::CrtAllocator>&)
FUNC 1092b8 d8 0 rapidjson::GenericDocument<rapidjson::UTF8<char>, rapidjson::MemoryPoolAllocator<rapidjson::CrtAllocator>, rapidjson::CrtAllocator>::StartArray()
FUNC 109390 e0 0 rapidjson::GenericDocument<rapidjson::UTF8<char>, rapidjson::MemoryPoolAllocator<rapidjson::CrtAllocator>, rapidjson::CrtAllocator>::EndArray(unsigned int)
FUNC 109470 ec 0 rapidjson::GenericValue<rapidjson::UTF8<char>, rapidjson::MemoryPoolAllocator<rapidjson::CrtAllocator> >::SetArrayRaw(rapidjson::GenericValue<rapidjson::UTF8<char>, rapidjson::MemoryPoolAllocator<rapidjson::CrtAllocator> >*, unsigned int, rapidjson::MemoryPoolAllocator<rapidjson::CrtAllocator>&)
FUNC 10955c 114 0 rapidjson::GenericReader<rapidjson::UTF8<char>, rapidjson::UTF8<char>, rapidjson::CrtAllocator>::NumberStream<rapidjson::BasicIStreamWrapper<std::__ndk1::basic_istream<char, std::__ndk1::char_traits<char> > >, true, false>::Pop()
FUNC 109670 324 0 rapidjson::internal::StrtodFullPrecision(double, int, char const*, unsigned long, unsigned long, int)
FUNC 109994 e8 0 rapidjson::GenericDocument<rapidjson::UTF8<char>, rapidjson::MemoryPoolAllocator<rapidjson::CrtAllocator>, rapidjson::CrtAllocator>::Double(double)
FUNC 109a7c 120 0 rapidjson::GenericDocument<rapidjson::UTF8<char>, rapidjson::MemoryPoolAllocator<rapidjson::CrtAllocator>, rapidjson::CrtAllocator>::Int64(long)
FUNC 109b9c 10c 0 rapidjson::GenericDocument<rapidjson::UTF8<char>, rapidjson::MemoryPoolAllocator<rapidjson::CrtAllocator>, rapidjson::CrtAllocator>::Uint64(unsigned long)
FUNC 109ca8 ec 0 rapidjson::GenericDocument<rapidjson::UTF8<char>, rapidjson::MemoryPoolAllocator<rapidjson::CrtAllocator>, rapidjson::CrtAllocator>::Int(int)
FUNC 109d94 f0 0 rapidjson::GenericDocument<rapidjson::UTF8<char>, rapidjson::MemoryPoolAllocator<rapidjson::CrtAllocator>, rapidjson::CrtAllocator>::Uint(unsigned int)
FUNC 109e84 488 0 rapidjson::internal::StrtodDiyFp(char const*, int, int, double*)
FUNC 10a30c 154 0 rapidjson::internal::StrtodBigInteger(double, char const*, int, int)
FUNC 10a460 bc 0 rapidjson::internal::GetCachedPower10(int, int*)
FUNC 10a51c cc 0 rapidjson::internal::BigInteger::BigInteger(char const*, unsigned long)
FUNC 10a5e8 35c 0 rapidjson::internal::CheckWithinHalfULP(double, rapidjson::internal::BigInteger const&, int)
FUNC 10a944 178 0 rapidjson::internal::BigInteger::AppendDecimal64(char const*, char const*)
FUNC 10aabc 12c 0 rapidjson::internal::BigInteger::operator<<=(unsigned long)
FUNC 10abe8 dc 0 rapidjson::internal::BigInteger::operator+=(unsigned long)
FUNC 10acc4 124 0 rapidjson::internal::BigInteger::operator*=(unsigned long)
FUNC 10ade8 100 0 rapidjson::internal::BigInteger::operator*=(unsigned int)
FUNC 10aee8 fc 0 rapidjson::internal::BigInteger::Difference(rapidjson::internal::BigInteger const&, rapidjson::internal::BigInteger*) const
FUNC 10afe4 14 0 std::__ndk1::vector<cereal::JSONInputArchive::Iterator, std::__ndk1::allocator<cereal::JSONInputArchive::Iterator> >::__throw_length_error[abi:ne180000]() const
FUNC 10aff8 1f8 0 cereal::JSONInputArchive::startNode()
FUNC 10b1f0 d0 0 cereal::JSONInputArchive::search()
FUNC 10b2c0 c0 0 cereal::JSONInputArchive::Iterator::value()
FUNC 10b380 190 0 std::__ndk1::vector<cereal::JSONInputArchive::Iterator, std::__ndk1::allocator<cereal::JSONInputArchive::Iterator> >::emplace_back<rapidjson::GenericValue<rapidjson::UTF8<char>, rapidjson::MemoryPoolAllocator<rapidjson::CrtAllocator> > const*, rapidjson::GenericValue<rapidjson::UTF8<char>, rapidjson::MemoryPoolAllocator<rapidjson::CrtAllocator> > const*>(rapidjson::GenericValue<rapidjson::UTF8<char>, rapidjson::MemoryPoolAllocator<rapidjson::CrtAllocator> > const*, rapidjson::GenericValue<rapidjson::UTF8<char>, rapidjson::MemoryPoolAllocator<rapidjson::CrtAllocator> > const*&&)
FUNC 10b510 18c 0 std::__ndk1::vector<cereal::JSONInputArchive::Iterator, std::__ndk1::allocator<cereal::JSONInputArchive::Iterator> >::emplace_back<rapidjson::GenericMemberIterator<true, rapidjson::UTF8<char>, rapidjson::MemoryPoolAllocator<rapidjson::CrtAllocator> >, rapidjson::GenericMemberIterator<true, rapidjson::UTF8<char>, rapidjson::MemoryPoolAllocator<rapidjson::CrtAllocator> > >(rapidjson::GenericMemberIterator<true, rapidjson::UTF8<char>, rapidjson::MemoryPoolAllocator<rapidjson::CrtAllocator> >&&, rapidjson::GenericMemberIterator<true, rapidjson::UTF8<char>, rapidjson::MemoryPoolAllocator<rapidjson::CrtAllocator> >)
FUNC 10b69c 24c 0 cereal::JSONInputArchive::Iterator::search(char const*)
FUNC 10b8e8 2c 0 cereal::Exception::Exception(char const*)
FUNC 10b914 a0 0 cereal::JSONInputArchive::loadValue(std::__ndk1::basic_string<char, std::__ndk1::char_traits<char>, std::__ndk1::allocator<char> >&)
FUNC 10b9b4 128 0 std::__ndk1::basic_string<char, std::__ndk1::char_traits<char>, std::__ndk1::allocator<char> >::__assign_external(char const*, unsigned long)
FUNC 10badc 34 0 std::__ndk1::basic_string<char, std::__ndk1::char_traits<char>, std::__ndk1::allocator<char> >::__assign_external(char const*)
FUNC 10bb10 44 0 _ZNSt6__ndk110__function6__funcIZZN14NetworkManager2onI20AuthorizedUserPacketQsr3stdE12is_base_of_vI6PacketT_EEEvNS_8functionIFvPS6_EEEbENKUlNS_12basic_stringIcNS_11char_traitsIcEENS_9allocatorIcEEEEE_clESG_EUlvE_NSE_ISI_EEFvvEED2Ev
FUNC 10bb54 5c 0 _ZNSt6__ndk110__function6__funcIZZN14NetworkManager2onI20AuthorizedUserPacketQsr3stdE12is_base_of_vI6PacketT_EEEvNS_8functionIFvPS6_EEEbENKUlNS_12basic_stringIcNS_11char_traitsIcEENS_9allocatorIcEEEEE_clESG_EUlvE_NSE_ISI_EEFvvEED0Ev
FUNC 10bbb0 90 0 _ZNKSt6__ndk110__function6__funcIZZN14NetworkManager2onI20AuthorizedUserPacketQsr3stdE12is_base_of_vI6PacketT_EEEvNS_8functionIFvPS6_EEEbENKUlNS_12basic_stringIcNS_11char_traitsIcEENS_9allocatorIcEEEEE_clESG_EUlvE_NSE_ISI_EEFvvEE7__cloneEv
FUNC 10bc40 78 0 _ZNKSt6__ndk110__function6__funcIZZN14NetworkManager2onI20AuthorizedUserPacketQsr3stdE12is_base_of_vI6PacketT_EEEvNS_8functionIFvPS6_EEEbENKUlNS_12basic_stringIcNS_11char_traitsIcEENS_9allocatorIcEEEEE_clESG_EUlvE_NSE_ISI_EEFvvEE7__cloneEPNS0_6__baseISK_EE
FUNC 10bcb8 38 0 _ZNSt6__ndk110__function6__funcIZZN14NetworkManager2onI20AuthorizedUserPacketQsr3stdE12is_base_of_vI6PacketT_EEEvNS_8functionIFvPS6_EEEbENKUlNS_12basic_stringIcNS_11char_traitsIcEENS_9allocatorIcEEEEE_clESG_EUlvE_NSE_ISI_EEFvvEE7destroyEv
FUNC 10bcf0 50 0 _ZNSt6__ndk110__function6__funcIZZN14NetworkManager2onI20AuthorizedUserPacketQsr3stdE12is_base_of_vI6PacketT_EEEvNS_8functionIFvPS6_EEEbENKUlNS_12basic_stringIcNS_11char_traitsIcEENS_9allocatorIcEEEEE_clESG_EUlvE_NSE_ISI_EEFvvEE18destroy_deallocateEv
FUNC 10bd40 74 0 _ZNSt6__ndk110__function6__funcIZZN14NetworkManager2onI20AuthorizedUserPacketQsr3stdE12is_base_of_vI6PacketT_EEEvNS_8functionIFvPS6_EEEbENKUlNS_12basic_stringIcNS_11char_traitsIcEENS_9allocatorIcEEEEE_clESG_EUlvE_NSE_ISI_EEFvvEEclEv
FUNC 10bdb4 1c 0 _ZNKSt6__ndk110__function6__funcIZZN14NetworkManager2onI20AuthorizedUserPacketQsr3stdE12is_base_of_vI6PacketT_EEEvNS_8functionIFvPS6_EEEbENKUlNS_12basic_stringIcNS_11char_traitsIcEENS_9allocatorIcEEEEE_clESG_EUlvE_NSE_ISI_EEFvvEE6targetERKSt9type_info
FUNC 10bdd0 c 0 _ZNKSt6__ndk110__function6__funcIZZN14NetworkManager2onI20AuthorizedUserPacketQsr3stdE12is_base_of_vI6PacketT_EEEvNS_8functionIFvPS6_EEEbENKUlNS_12basic_stringIcNS_11char_traitsIcEENS_9allocatorIcEEEEE_clESG_EUlvE_NSE_ISI_EEFvvEE11target_typeEv
FUNC 10bddc 168 0 std::__ndk1::__function::__value_func<void (std::__ndk1::basic_string<char, std::__ndk1::char_traits<char>, std::__ndk1::allocator<char> >)>::swap[abi:ne180000](std::__ndk1::__function::__value_func<void (std::__ndk1::basic_string<char, std::__ndk1::char_traits<char>, std::__ndk1::allocator<char> >)>&)
FUNC 10bf44 4 0 std::__ndk1::__function::__base<void (AuthorizedUserPacket*)>::~__base()
FUNC 10bf48 4 0 std::__ndk1::__function::__func<AuthPopup::setup()::$_1, std::__ndk1::allocator<AuthPopup::setup()::$_1>, void (AuthorizedUserPacket*)>::~__func()
FUNC 10bf4c 34 0 std::__ndk1::__function::__func<AuthPopup::setup()::$_1, std::__ndk1::allocator<AuthPopup::setup()::$_1>, void (AuthorizedUserPacket*)>::__clone() const
FUNC 10bf80 14 0 std::__ndk1::__function::__func<AuthPopup::setup()::$_1, std::__ndk1::allocator<AuthPopup::setup()::$_1>, void (AuthorizedUserPacket*)>::__clone(std::__ndk1::__function::__base<void (AuthorizedUserPacket*)>*) const
FUNC 10bf94 4 0 std::__ndk1::__function::__func<AuthPopup::setup()::$_1, std::__ndk1::allocator<AuthPopup::setup()::$_1>, void (AuthorizedUserPacket*)>::destroy()
FUNC 10bf98 4 0 std::__ndk1::__function::__func<AuthPopup::setup()::$_1, std::__ndk1::allocator<AuthPopup::setup()::$_1>, void (AuthorizedUserPacket*)>::destroy_deallocate()
FUNC 10bf9c 1c 0 std::__ndk1::__function::__func<AuthPopup::setup()::$_1, std::__ndk1::allocator<AuthPopup::setup()::$_1>, void (AuthorizedUserPacket*)>::operator()(AuthorizedUserPacket*&&)
FUNC 10bfb8 1c 0 std::__ndk1::__function::__func<AuthPopup::setup()::$_1, std::__ndk1::allocator<AuthPopup::setup()::$_1>, void (AuthorizedUserPacket*)>::target(std::type_info const&) const
FUNC 10bfd4 c 0 std::__ndk1::__function::__func<AuthPopup::setup()::$_1, std::__ndk1::allocator<AuthPopup::setup()::$_1>, void (AuthorizedUserPacket*)>::target_type() const
FUNC 10bfe0 60 0 _GLOBAL__sub_I_AuthPopup.cpp
FUNC 10c040 5c 0 __cxx_global_var_init.1
FUNC 10c09c 88 0 std::__ndk1::vector<Message, std::__ndk1::allocator<Message> >::~vector[abi:ne180000]()
FUNC 10c124 5c 0 __cxx_global_var_init.2
FUNC 10c180 154 0 ChatPanel::create()
FUNC 10c2d4 1f4 0 ChatPanel::initialize()
FUNC 10c4c8 654 0 ChatPanel::setup()
FUNC 10cb1c 14c 0 geode::cocos::CCMenuItemExt::createSpriteExtraWithFrameName(std::__ndk1::basic_string_view<char, std::__ndk1::char_traits<char> >, float, std::__ndk1::function<void (CCMenuItemSpriteExtra*)>)
FUNC 10cc68 1ec 0 ChatPanel::renderMessage(Message)
FUNC 10ce54 44 0 Message::~Message()
FUNC 10ce98 278 0 ChatPanel::updateMessages(float)
FUNC 10d110 e4 0 ChatPanel::clearMessages()
FUNC 10d1f4 198 0 _ZN14NetworkManager6unbindI17MessageSentPacketQsr3stdE12is_base_of_vI6PacketT_EEEvv
FUNC 10d38c b0c 0 ChatPanel::sendMessage()
FUNC 10de98 114 0 ChatPanel::keyDown(cocos2d::enumKeyCodes)
FUNC 10dfac 8 0 {virtual override thunk({offset(-344)}, ChatPanel::keyDown(cocos2d::enumKeyCodes))}
FUNC 10dfb4 74 0 ChatPanel::~ChatPanel()
FUNC 10e028 6c 0 {virtual override thunk({offset(-320)}, ChatPanel::~ChatPanel())}
FUNC 10e094 74 0 {virtual override thunk({offset(-320)}, ChatPanel::~ChatPanel())}
FUNC 10e108 1c4 0 _ZNSt6__ndk18functionIFvNS_12basic_stringIcNS_11char_traitsIcEENS_9allocatorIcEEEEEEaSIZN14NetworkManager2onI17MessageSentPacketQsr3stdE12is_base_of_vI6PacketT_EEEvNS0_IFvPSE_EEEbEUlS6_E_vEERS8_OSE_
FUNC 10e2cc 44 0 _ZNSt6__ndk110__function6__funcIZN14NetworkManager2onI17MessageSentPacketQsr3stdE12is_base_of_vI6PacketT_EEEvNS_8functionIFvPS6_EEEbEUlNS_12basic_stringIcNS_11char_traitsIcEENS_9allocatorIcEEEEE_NSE_ISH_EEFvSG_EED2Ev
FUNC 10e310 5c 0 _ZNSt6__ndk110__function6__funcIZN14NetworkManager2onI17MessageSentPacketQsr3stdE12is_base_of_vI6PacketT_EEEvNS_8functionIFvPS6_EEEbEUlNS_12basic_stringIcNS_11char_traitsIcEENS_9allocatorIcEEEEE_NSE_ISH_EEFvSG_EED0Ev
FUNC 10e36c 88 0 _ZNKSt6__ndk110__function6__funcIZN14NetworkManager2onI17MessageSentPacketQsr3stdE12is_base_of_vI6PacketT_EEEvNS_8functionIFvPS6_EEEbEUlNS_12basic_stringIcNS_11char_traitsIcEENS_9allocatorIcEEEEE_NSE_ISH_EEFvSG_EE7__cloneEv
FUNC 10e3f4 74 0 _ZNKSt6__ndk110__function6__funcIZN14NetworkManager2onI17MessageSentPacketQsr3stdE12is_base_of_vI6PacketT_EEEvNS_8functionIFvPS6_EEEbEUlNS_12basic_stringIcNS_11char_traitsIcEENS_9allocatorIcEEEEE_NSE_ISH_EEFvSG_EE7__cloneEPNS0_6__baseISJ_EE
FUNC 10e468 38 0 _ZNSt6__ndk110__function6__funcIZN14NetworkManager2onI17MessageSentPacketQsr3stdE12is_base_of_vI6PacketT_EEEvNS_8functionIFvPS6_EEEbEUlNS_12basic_stringIcNS_11char_traitsIcEENS_9allocatorIcEEEEE_NSE_ISH_EEFvSG_EE7destroyEv
FUNC 10e4a0 50 0 _ZNSt6__ndk110__function6__funcIZN14NetworkManager2onI17MessageSentPacketQsr3stdE12is_base_of_vI6PacketT_EEEvNS_8functionIFvPS6_EEEbEUlNS_12basic_stringIcNS_11char_traitsIcEENS_9allocatorIcEEEEE_NSE_ISH_EEFvSG_EE18destroy_deallocateEv
FUNC 10e4f0 5c0 0 _ZNSt6__ndk110__function6__funcIZN14NetworkManager2onI17MessageSentPacketQsr3stdE12is_base_of_vI6PacketT_EEEvNS_8functionIFvPS6_EEEbEUlNS_12basic_stringIcNS_11char_traitsIcEENS_9allocatorIcEEEEE_NSE_ISH_EEFvSG_EEclEOSG_
FUNC 10eab0 1c 0 _ZNKSt6__ndk110__function6__funcIZN14NetworkManager2onI17MessageSentPacketQsr3stdE12is_base_of_vI6PacketT_EEEvNS_8functionIFvPS6_EEEbEUlNS_12basic_stringIcNS_11char_traitsIcEENS_9allocatorIcEEEEE_NSE_ISH_EEFvSG_EE6targetERKSt9type_info
FUNC 10eacc c 0 _ZNKSt6__ndk110__function6__funcIZN14NetworkManager2onI17MessageSentPacketQsr3stdE12is_base_of_vI6PacketT_EEEvNS_8functionIFvPS6_EEEbEUlNS_12basic_stringIcNS_11char_traitsIcEENS_9allocatorIcEEEEE_NSE_ISH_EEFvSG_EE11target_typeEv
FUNC 10ead8 4 0 MessageSentPacket::decode(std::__ndk1::basic_string<char, std::__ndk1::char_traits<char>, std::__ndk1::allocator<char> >)
FUNC 10eadc 8 0 MessageSentPacket::getPacketID() const
FUNC 10eae4 c 0 MessageSentPacket::getPacketName() const
FUNC 10eaf0 15c 0 cereal::InputArchive<cereal::JSONInputArchive, (unsigned int)0>::process<cereal::NameValuePair<int&>, cereal::NameValuePair<int&>, cereal::NameValuePair<int&>, cereal::NameValuePair<int&>, cereal::NameValuePair<int&>, cereal::NameValuePair<int&> >(cereal::NameValuePair<int&>&&, cereal::NameValuePair<int&>&&, cereal::NameValuePair<int&>, cereal::NameValuePair<int&>, cereal::NameValuePair<int&>, cereal::NameValuePair<int&>)
FUNC 10ec4c 144 0 cereal::InputArchive<cereal::JSONInputArchive, (unsigned int)0>::process<cereal::NameValuePair<int&>, cereal::NameValuePair<int&>, cereal::NameValuePair<int&>, cereal::NameValuePair<int&> >(cereal::NameValuePair<int&>&&, cereal::NameValuePair<int&>&&, cereal::NameValuePair<int&>, cereal::NameValuePair<int&>)
FUNC 10ed90 128 0 cereal::InputArchive<cereal::JSONInputArchive, (unsigned int)0>::process<cereal::NameValuePair<int&>, cereal::NameValuePair<int&> >(cereal::NameValuePair<int&>&&, cereal::NameValuePair<int&>&&)
FUNC 10eeb8 44 0 _ZNSt6__ndk110__function6__funcIZZN14NetworkManager2onI17MessageSentPacketQsr3stdE12is_base_of_vI6PacketT_EEEvNS_8functionIFvPS6_EEEbENKUlNS_12basic_stringIcNS_11char_traitsIcEENS_9allocatorIcEEEEE_clESG_EUlvE_NSE_ISI_EEFvvEED2Ev
FUNC 10eefc 5c 0 _ZNSt6__ndk110__function6__funcIZZN14NetworkManager2onI17MessageSentPacketQsr3stdE12is_base_of_vI6PacketT_EEEvNS_8functionIFvPS6_EEEbENKUlNS_12basic_stringIcNS_11char_traitsIcEENS_9allocatorIcEEEEE_clESG_EUlvE_NSE_ISI_EEFvvEED0Ev
FUNC 10ef58 90 0 _ZNKSt6__ndk110__function6__funcIZZN14NetworkManager2onI17MessageSentPacketQsr3stdE12is_base_of_vI6PacketT_EEEvNS_8functionIFvPS6_EEEbENKUlNS_12basic_stringIcNS_11char_traitsIcEENS_9allocatorIcEEEEE_clESG_EUlvE_NSE_ISI_EEFvvEE7__cloneEv
FUNC 10efe8 78 0 _ZNKSt6__ndk110__function6__funcIZZN14NetworkManager2onI17MessageSentPacketQsr3stdE12is_base_of_vI6PacketT_EEEvNS_8functionIFvPS6_EEEbENKUlNS_12basic_stringIcNS_11char_traitsIcEENS_9allocatorIcEEEEE_clESG_EUlvE_NSE_ISI_EEFvvEE7__cloneEPNS0_6__baseISK_EE
FUNC 10f060 38 0 _ZNSt6__ndk110__function6__funcIZZN14NetworkManager2onI17MessageSentPacketQsr3stdE12is_base_of_vI6PacketT_EEEvNS_8functionIFvPS6_EEEbENKUlNS_12basic_stringIcNS_11char_traitsIcEENS_9allocatorIcEEEEE_clESG_EUlvE_NSE_ISI_EEFvvEE7destroyEv
FUNC 10f098 50 0 _ZNSt6__ndk110__function6__funcIZZN14NetworkManager2onI17MessageSentPacketQsr3stdE12is_base_of_vI6PacketT_EEEvNS_8functionIFvPS6_EEEbENKUlNS_12basic_stringIcNS_11char_traitsIcEENS_9allocatorIcEEEEE_clESG_EUlvE_NSE_ISI_EEFvvEE18destroy_deallocateEv
FUNC 10f0e8 74 0 _ZNSt6__ndk110__function6__funcIZZN14NetworkManager2onI17MessageSentPacketQsr3stdE12is_base_of_vI6PacketT_EEEvNS_8functionIFvPS6_EEEbENKUlNS_12basic_stringIcNS_11char_traitsIcEENS_9allocatorIcEEEEE_clESG_EUlvE_NSE_ISI_EEFvvEEclEv
FUNC 10f15c 1c 0 _ZNKSt6__ndk110__function6__funcIZZN14NetworkManager2onI17MessageSentPacketQsr3stdE12is_base_of_vI6PacketT_EEEvNS_8functionIFvPS6_EEEbENKUlNS_12basic_stringIcNS_11char_traitsIcEENS_9allocatorIcEEEEE_clESG_EUlvE_NSE_ISI_EEFvvEE6targetERKSt9type_info
FUNC 10f178 c 0 _ZNKSt6__ndk110__function6__funcIZZN14NetworkManager2onI17MessageSentPacketQsr3stdE12is_base_of_vI6PacketT_EEEvNS_8functionIFvPS6_EEEbENKUlNS_12basic_stringIcNS_11char_traitsIcEENS_9allocatorIcEEEEE_clESG_EUlvE_NSE_ISI_EEFvvEE11target_typeEv
FUNC 10f184 4 0 std::__ndk1::__function::__base<void (MessageSentPacket*)>::~__base()
FUNC 10f188 4 0 std::__ndk1::__function::__func<ChatPanel::initialize()::$_0, std::__ndk1::allocator<ChatPanel::initialize()::$_0>, void (MessageSentPacket*)>::~__func()
FUNC 10f18c 24 0 std::__ndk1::__function::__func<ChatPanel::initialize()::$_0, std::__ndk1::allocator<ChatPanel::initialize()::$_0>, void (MessageSentPacket*)>::__clone() const
FUNC 10f1b0 10 0 std::__ndk1::__function::__func<ChatPanel::initialize()::$_0, std::__ndk1::allocator<ChatPanel::initialize()::$_0>, void (MessageSentPacket*)>::__clone(std::__ndk1::__function::__base<void (MessageSentPacket*)>*) const
FUNC 10f1c0 4 0 std::__ndk1::__function::__func<ChatPanel::initialize()::$_0, std::__ndk1::allocator<ChatPanel::initialize()::$_0>, void (MessageSentPacket*)>::destroy()
FUNC 10f1c4 4 0 std::__ndk1::__function::__func<ChatPanel::initialize()::$_0, std::__ndk1::allocator<ChatPanel::initialize()::$_0>, void (MessageSentPacket*)>::destroy_deallocate()
FUNC 10f1c8 8c 0 std::__ndk1::__function::__func<ChatPanel::initialize()::$_0, std::__ndk1::allocator<ChatPanel::initialize()::$_0>, void (MessageSentPacket*)>::operator()(MessageSentPacket*&&)
FUNC 10f254 1c 0 std::__ndk1::__function::__func<ChatPanel::initialize()::$_0, std::__ndk1::allocator<ChatPanel::initialize()::$_0>, void (MessageSentPacket*)>::target(std::type_info const&) const
FUNC 10f270 c 0 std::__ndk1::__function::__func<ChatPanel::initialize()::$_0, std::__ndk1::allocator<ChatPanel::initialize()::$_0>, void (MessageSentPacket*)>::target_type() const
FUNC 10f27c c8 0 std::__ndk1::vector<Message, std::__ndk1::allocator<Message> >::__construct_one_at_end[abi:ne180000]<Message const&>(Message const&)
FUNC 10f344 2b4 0 std::__ndk1::vector<Message, std::__ndk1::allocator<Message> >::__push_back_slow_path<Message const&>(Message const&)
FUNC 10f5f8 7c 0 std::__ndk1::__split_buffer<Message, std::__ndk1::allocator<Message>&>::~__split_buffer()
FUNC 10f674 14 0 std::__ndk1::vector<Message, std::__ndk1::allocator<Message> >::__throw_length_error[abi:ne180000]() const
FUNC 10f688 4 0 std::__ndk1::__function::__func<ChatPanel::setup()::$_0, std::__ndk1::allocator<ChatPanel::setup()::$_0>, void (CCMenuItemSpriteExtra*)>::~__func()
FUNC 10f68c 34 0 std::__ndk1::__function::__func<ChatPanel::setup()::$_0, std::__ndk1::allocator<ChatPanel::setup()::$_0>, void (CCMenuItemSpriteExtra*)>::__clone() const
FUNC 10f6c0 14 0 std::__ndk1::__function::__func<ChatPanel::setup()::$_0, std::__ndk1::allocator<ChatPanel::setup()::$_0>, void (CCMenuItemSpriteExtra*)>::__clone(std::__ndk1::__function::__base<void (CCMenuItemSpriteExtra*)>*) const
FUNC 10f6d4 4 0 std::__ndk1::__function::__func<ChatPanel::setup()::$_0, std::__ndk1::allocator<ChatPanel::setup()::$_0>, void (CCMenuItemSpriteExtra*)>::destroy()
FUNC 10f6d8 4 0 std::__ndk1::__function::__func<ChatPanel::setup()::$_0, std::__ndk1::allocator<ChatPanel::setup()::$_0>, void (CCMenuItemSpriteExtra*)>::destroy_deallocate()
FUNC 10f6dc 8 0 std::__ndk1::__function::__func<ChatPanel::setup()::$_0, std::__ndk1::allocator<ChatPanel::setup()::$_0>, void (CCMenuItemSpriteExtra*)>::operator()(CCMenuItemSpriteExtra*&&)
FUNC 10f6e4 1c 0 std::__ndk1::__function::__func<ChatPanel::setup()::$_0, std::__ndk1::allocator<ChatPanel::setup()::$_0>, void (CCMenuItemSpriteExtra*)>::target(std::type_info const&) const
FUNC 10f700 c 0 std::__ndk1::__function::__func<ChatPanel::setup()::$_0, std::__ndk1::allocator<ChatPanel::setup()::$_0>, void (CCMenuItemSpriteExtra*)>::target_type() const
FUNC 10f70c 148 0 std::__ndk1::__hash_table<std::__ndk1::__hash_value_type<int, std::__ndk1::function<void (std::__ndk1::basic_string<char, std::__ndk1::char_traits<char>, std::__ndk1::allocator<char> >)> >, std::__ndk1::__unordered_map_hasher<int, std::__ndk1::__hash_value_type<int, std::__ndk1::function<void (std::__ndk1::basic_string<char, std::__ndk1::char_traits<char>, std::__ndk1::allocator<char> >)> >, std::__ndk1::hash<int>, std::__ndk1::equal_to<int>, true>, std::__ndk1::__unordered_map_equal<int, std::__ndk1::__hash_value_type<int, std::__ndk1::function<void (std::__ndk1::basic_string<char, std::__ndk1::char_traits<char>, std::__ndk1::allocator<char> >)> >, std::__ndk1::equal_to<int>, std::__ndk1::hash<int>, true>, std::__ndk1::allocator<std::__ndk1::__hash_value_type<int, std::__ndk1::function<void (std::__ndk1::basic_string<char, std::__ndk1::char_traits<char>, std::__ndk1::allocator<char> >)> > > >::__erase_unique<int>(int const&)
FUNC 10f854 134 0 std::__ndk1::__hash_table<std::__ndk1::__hash_value_type<int, std::__ndk1::function<void (std::__ndk1::basic_string<char, std::__ndk1::char_traits<char>, std::__ndk1::allocator<char> >)> >, std::__ndk1::__unordered_map_hasher<int, std::__ndk1::__hash_value_type<int, std::__ndk1::function<void (std::__ndk1::basic_string<char, std::__ndk1::char_traits<char>, std::__ndk1::allocator<char> >)> >, std::__ndk1::hash<int>, std::__ndk1::equal_to<int>, true>, std::__ndk1::__unordered_map_equal<int, std::__ndk1::__hash_value_type<int, std::__ndk1::function<void (std::__ndk1::basic_string<char, std::__ndk1::char_traits<char>, std::__ndk1::allocator<char> >)> >, std::__ndk1::equal_to<int>, std::__ndk1::hash<int>, true>, std::__ndk1::allocator<std::__ndk1::__hash_value_type<int, std::__ndk1::function<void (std::__ndk1::basic_string<char, std::__ndk1::char_traits<char>, std::__ndk1::allocator<char> >)> > > >::remove(std::__ndk1::__hash_const_iterator<std::__ndk1::__hash_node<std::__ndk1::__hash_value_type<int, std::__ndk1::function<void (std::__ndk1::basic_string<char, std::__ndk1::char_traits<char>, std::__ndk1::allocator<char> >)> >, void*>*>)
FUNC 10f988 4 0 SendMessagePacket::decode(std::__ndk1::basic_string<char, std::__ndk1::char_traits<char>, std::__ndk1::allocator<char> >)
FUNC 10f98c 8 0 SendMessagePacket::getPacketID() const
FUNC 10f994 c 0 SendMessagePacket::getPacketName() const
FUNC 10f9a0 44 0 std::__ndk1::__function::__func<NetworkManager::send<SendMessagePacket>(SendMessagePacket*, std::__ndk1::function<void ()>)::{lambda(int, int)#1}, std::__ndk1::allocator<NetworkManager::send<SendMessagePacket>(SendMessagePacket*, std::__ndk1::function<void ()>)::{lambda(int, int)#1}>, bool (int, int)>::~__func()
FUNC 10f9e4 5c 0 std::__ndk1::__function::__func<NetworkManager::send<SendMessagePacket>(SendMessagePacket*, std::__ndk1::function<void ()>)::{lambda(int, int)#1}, std::__ndk1::allocator<NetworkManager::send<SendMessagePacket>(SendMessagePacket*, std::__ndk1::function<void ()>)::{lambda(int, int)#1}>, bool (int, int)>::~__func()
FUNC 10fa40 88 0 std::__ndk1::__function::__func<NetworkManager::send<SendMessagePacket>(SendMessagePacket*, std::__ndk1::function<void ()>)::{lambda(int, int)#1}, std::__ndk1::allocator<NetworkManager::send<SendMessagePacket>(SendMessagePacket*, std::__ndk1::function<void ()>)::{lambda(int, int)#1}>, bool (int, int)>::__clone() const
FUNC 10fac8 74 0 std::__ndk1::__function::__func<NetworkManager::send<SendMessagePacket>(SendMessagePacket*, std::__ndk1::function<void ()>)::{lambda(int, int)#1}, std::__ndk1::allocator<NetworkManager::send<SendMessagePacket>(SendMessagePacket*, std::__ndk1::function<void ()>)::{lambda(int, int)#1}>, bool (int, int)>::__clone(std::__ndk1::__function::__base<bool (int, int)>*) const
FUNC 10fb3c 38 0 std::__ndk1::__function::__func<NetworkManager::send<SendMessagePacket>(SendMessagePacket*, std::__ndk1::function<void ()>)::{lambda(int, int)#1}, std::__ndk1::allocator<NetworkManager::send<SendMessagePacket>(SendMessagePacket*, std::__ndk1::function<void ()>)::{lambda(int, int)#1}>, bool (int, int)>::destroy()
FUNC 10fb74 50 0 std::__ndk1::__function::__func<NetworkManager::send<SendMessagePacket>(SendMessagePacket*, std::__ndk1::function<void ()>)::{lambda(int, int)#1}, std::__ndk1::allocator<NetworkManager::send<SendMessagePacket>(SendMessagePacket*, std::__ndk1::function<void ()>)::{lambda(int, int)#1}>, bool (int, int)>::destroy_deallocate()
FUNC 10fbc4 21c 0 std::__ndk1::__function::__func<NetworkManager::send<SendMessagePacket>(SendMessagePacket*, std::__ndk1::function<void ()>)::{lambda(int, int)#1}, std::__ndk1::allocator<NetworkManager::send<SendMessagePacket>(SendMessagePacket*, std::__ndk1::function<void ()>)::{lambda(int, int)#1}>, bool (int, int)>::operator()(int&&, int&&)
FUNC 10fde0 1c 0 std::__ndk1::__function::__func<NetworkManager::send<SendMessagePacket>(SendMessagePacket*, std::__ndk1::function<void ()>)::{lambda(int, int)#1}, std::__ndk1::allocator<NetworkManager::send<SendMessagePacket>(SendMessagePacket*, std::__ndk1::function<void ()>)::{lambda(int, int)#1}>, bool (int, int)>::target(std::type_info const&) const
FUNC 10fdfc c 0 std::__ndk1::__function::__func<NetworkManager::send<SendMessagePacket>(SendMessagePacket*, std::__ndk1::function<void ()>)::{lambda(int, int)#1}, std::__ndk1::allocator<NetworkManager::send<SendMessagePacket>(SendMessagePacket*, std::__ndk1::function<void ()>)::{lambda(int, int)#1}>, bool (int, int)>::target_type() const
FUNC 10fe08 44 0 std::__ndk1::__function::__func<NetworkManager::send<SendMessagePacket>(SendMessagePacket*, std::__ndk1::function<void ()>)::{lambda(int, int)#1}::operator()(int, int) const::{lambda()#1}, std::__ndk1::allocator<NetworkManager::send<SendMessagePacket>(SendMessagePacket*, std::__ndk1::function<void ()>)::{lambda(int, int)#1}::operator()(int, int) const::{lambda()#1}>, void ()>::~__func()
FUNC 10fe4c 5c 0 std::__ndk1::__function::__func<NetworkManager::send<SendMessagePacket>(SendMessagePacket*, std::__ndk1::function<void ()>)::{lambda(int, int)#1}::operator()(int, int) const::{lambda()#1}, std::__ndk1::allocator<NetworkManager::send<SendMessagePacket>(SendMessagePacket*, std::__ndk1::function<void ()>)::{lambda(int, int)#1}::operator()(int, int) const::{lambda()#1}>, void ()>::~__func()
FUNC 10fea8 88 0 std::__ndk1::__function::__func<NetworkManager::send<SendMessagePacket>(SendMessagePacket*, std::__ndk1::function<void ()>)::{lambda(int, int)#1}::operator()(int, int) const::{lambda()#1}, std::__ndk1::allocator<NetworkManager::send<SendMessagePacket>(SendMessagePacket*, std::__ndk1::function<void ()>)::{lambda(int, int)#1}::operator()(int, int) const::{lambda()#1}>, void ()>::__clone() const
FUNC 10ff30 74 0 std::__ndk1::__function::__func<NetworkManager::send<SendMessagePacket>(SendMessagePacket*, std::__ndk1::function<void ()>)::{lambda(int, int)#1}::operator()(int, int) const::{lambda()#1}, std::__ndk1::allocator<NetworkManager::send<SendMessagePacket>(SendMessagePacket*, std::__ndk1::function<void ()>)::{lambda(int, int)#1}::operator()(int, int) const::{lambda()#1}>, void ()>::__clone(std::__ndk1::__function::__base<void ()>*) const
FUNC 10ffa4 38 0 std::__ndk1::__function::__func<NetworkManager::send<SendMessagePacket>(SendMessagePacket*, std::__ndk1::function<void ()>)::{lambda(int, int)#1}::operator()(int, int) const::{lambda()#1}, std::__ndk1::allocator<NetworkManager::send<SendMessagePacket>(SendMessagePacket*, std::__ndk1::function<void ()>)::{lambda(int, int)#1}::operator()(int, int) const::{lambda()#1}>, void ()>::destroy()
FUNC 10ffdc 50 0 std::__ndk1::__function::__func<NetworkManager::send<SendMessagePacket>(SendMessagePacket*, std::__ndk1::function<void ()>)::{lambda(int, int)#1}::operator()(int, int) const::{lambda()#1}, std::__ndk1::allocator<NetworkManager::send<SendMessagePacket>(SendMessagePacket*, std::__ndk1::function<void ()>)::{lambda(int, int)#1}::operator()(int, int) const::{lambda()#1}>, void ()>::destroy_deallocate()
FUNC 11002c 20 0 std::__ndk1::__function::__func<NetworkManager::send<SendMessagePacket>(SendMessagePacket*, std::__ndk1::function<void ()>)::{lambda(int, int)#1}::operator()(int, int) const::{lambda()#1}, std::__ndk1::allocator<NetworkManager::send<SendMessagePacket>(SendMessagePacket*, std::__ndk1::function<void ()>)::{lambda(int, int)#1}::operator()(int, int) const::{lambda()#1}>, void ()>::operator()()
FUNC 11004c 1c 0 std::__ndk1::__function::__func<NetworkManager::send<SendMessagePacket>(SendMessagePacket*, std::__ndk1::function<void ()>)::{lambda(int, int)#1}::operator()(int, int) const::{lambda()#1}, std::__ndk1::allocator<NetworkManager::send<SendMessagePacket>(SendMessagePacket*, std::__ndk1::function<void ()>)::{lambda(int, int)#1}::operator()(int, int) const::{lambda()#1}>, void ()>::target(std::type_info const&) const
FUNC 110068 c 0 std::__ndk1::__function::__func<NetworkManager::send<SendMessagePacket>(SendMessagePacket*, std::__ndk1::function<void ()>)::{lambda(int, int)#1}::operator()(int, int) const::{lambda()#1}, std::__ndk1::allocator<NetworkManager::send<SendMessagePacket>(SendMessagePacket*, std::__ndk1::function<void ()>)::{lambda(int, int)#1}::operator()(int, int) const::{lambda()#1}>, void ()>::target_type() const
FUNC 110074 60 0 _GLOBAL__sub_I_ChatPanel.cpp
FUNC 1100d4 154 0 PlayerCell::onKickUser(cocos2d::CCObject*)
FUNC 110228 134 0 LobbyLayer::create(std::__ndk1::basic_string<char, std::__ndk1::char_traits<char>, std::__ndk1::allocator<char> >)
FUNC 11035c e08 0 LobbyLayer::init(std::__ndk1::basic_string<char, std::__ndk1::char_traits<char>, std::__ndk1::allocator<char> >)
FUNC 111164 158 0 LobbyLayer::onStart(cocos2d::CCObject*)
FUNC 1112bc 14c 0 LobbyLayer::onSettings(cocos2d::CCObject*)
FUNC 111408 228 0 LobbyLayer::unregisterListeners()
FUNC 111630 74 0 LobbyLayer::~LobbyLayer()
FUNC 1116a4 8 0 {virtual override thunk({offset(-320)}, LobbyLayer::~LobbyLayer())}
FUNC 1116ac 24 0 LobbyLayer::~LobbyLayer()
FUNC 1116d0 28 0 {virtual override thunk({offset(-320)}, LobbyLayer::~LobbyLayer())}
FUNC 1116f8 1264 0 LobbyLayer::refresh(LobbyInfo, bool)
FUNC 11295c 14c 0 LobbyInfo::LobbyInfo(LobbyInfo const&)
FUNC 112aa8 bc 0 LobbyLayer::refresh(LobbyInfo, bool)::$_0::~$_0()
FUNC 112b64 134 0 geode::Mod::getSettingValue<bool>(std::__ndk1::basic_string_view<char, std::__ndk1::char_traits<char> >) const
FUNC 112c98 174 0 LobbyLayer::keyBackClicked()
FUNC 112e0c 8 0 {virtual override thunk({offset(-336)}, LobbyLayer::keyBackClicked())}
FUNC 112e14 60 0 PlayerCell::~PlayerCell()
FUNC 112e74 64 0 PlayerCell::~PlayerCell()
FUNC 112ed8 5c 0 {virtual override thunk({offset(-320)}, PlayerCell::~PlayerCell())}
FUNC 112f34 64 0 {virtual override thunk({offset(-320)}, PlayerCell::~PlayerCell())}
FUNC 112f98 ac 0 std::__ndk1::basic_string<char, std::__ndk1::char_traits<char>, std::__ndk1::allocator<char> >::__assign_no_alias<true>(char const*, unsigned long)
FUNC 113044 100 0 std::__ndk1::basic_string<char, std::__ndk1::char_traits<char>, std::__ndk1::allocator<char> >::__assign_no_alias<false>(char const*, unsigned long)
FUNC 113144 14 0 SwapManager::~SwapManager()
FUNC 113158 44 0 LobbySettings::~LobbySettings()
FUNC 11319c 178 0 std::__ndk1::vector<Account, std::__ndk1::allocator<Account> >::__init_with_size[abi:ne180000]<Account*, std::__ndk1::vector<Account, std::__ndk1::allocator<Account> >::__init_with_size[abi:ne180000]>(Account*, std::__ndk1::vector<Account, std::__ndk1::allocator<Account> >::__init_with_size[abi:ne180000], unsigned long)
FUNC 113314 8c 0 std::__ndk1::__exception_guard_exceptions<std::__ndk1::vector<Account, std::__ndk1::allocator<Account> >::__destroy_vector>::~__exception_guard_exceptions[abi:ne180000]()
FUNC 1133a0 14 0 std::__ndk1::vector<Account, std::__ndk1::allocator<Account> >::__throw_length_error[abi:ne180000]() const
FUNC 1133b4 60 0 std::__ndk1::__exception_guard_exceptions<std::__ndk1::_AllocatorDestroyRangeReverse<std::__ndk1::allocator<Account>, Account*> >::~__exception_guard_exceptions[abi:ne180000]()
FUNC 113414 bc 0 LobbyInfo::~LobbyInfo()
FUNC 1134d0 4 0 std::__ndk1::__function::__func<PlayerCell::onKickUser(cocos2d::CCObject*)::$_0, std::__ndk1::allocator<PlayerCell::onKickUser(cocos2d::CCObject*)::$_0>, void (FLAlertLayer*, bool)>::~__func()
FUNC 1134d4 34 0 std::__ndk1::__function::__func<PlayerCell::onKickUser(cocos2d::CCObject*)::$_0, std::__ndk1::allocator<PlayerCell::onKickUser(cocos2d::CCObject*)::$_0>, void (FLAlertLayer*, bool)>::__clone() const
FUNC 113508 14 0 std::__ndk1::__function::__func<PlayerCell::onKickUser(cocos2d::CCObject*)::$_0, std::__ndk1::allocator<PlayerCell::onKickUser(cocos2d::CCObject*)::$_0>, void (FLAlertLayer*, bool)>::__clone(std::__ndk1::__function::__base<void (FLAlertLayer*, bool)>*) const
FUNC 11351c 4 0 std::__ndk1::__function::__func<PlayerCell::onKickUser(cocos2d::CCObject*)::$_0, std::__ndk1::allocator<PlayerCell::onKickUser(cocos2d::CCObject*)::$_0>, void (FLAlertLayer*, bool)>::destroy()
FUNC 113520 4 0 std::__ndk1::__function::__func<PlayerCell::onKickUser(cocos2d::CCObject*)::$_0, std::__ndk1::allocator<PlayerCell::onKickUser(cocos2d::CCObject*)::$_0>, void (FLAlertLayer*, bool)>::destroy_deallocate()
FUNC 113524 970 0 std::__ndk1::__function::__func<PlayerCell::onKickUser(cocos2d::CCObject*)::$_0, std::__ndk1::allocator<PlayerCell::onKickUser(cocos2d::CCObject*)::$_0>, void (FLAlertLayer*, bool)>::operator()(FLAlertLayer*&&, bool&&)
FUNC 113e94 1c 0 std::__ndk1::__function::__func<PlayerCell::onKickUser(cocos2d::CCObject*)::$_0, std::__ndk1::allocator<PlayerCell::onKickUser(cocos2d::CCObject*)::$_0>, void (FLAlertLayer*, bool)>::target(std::type_info const&) const
FUNC 113eb0 c 0 std::__ndk1::__function::__func<PlayerCell::onKickUser(cocos2d::CCObject*)::$_0, std::__ndk1::allocator<PlayerCell::onKickUser(cocos2d::CCObject*)::$_0>, void (FLAlertLayer*, bool)>::target_type() const
FUNC 113ebc 44 0 std::__ndk1::__function::__func<NetworkManager::send<KickUserPacket>(KickUserPacket*, std::__ndk1::function<void ()>)::{lambda(int, int)#1}, std::__ndk1::allocator<NetworkManager::send<KickUserPacket>(KickUserPacket*, std::__ndk1::function<void ()>)::{lambda(int, int)#1}>, bool (int, int)>::~__func()
FUNC 113f00 5c 0 std::__ndk1::__function::__func<NetworkManager::send<KickUserPacket>(KickUserPacket*, std::__ndk1::function<void ()>)::{lambda(int, int)#1}, std::__ndk1::allocator<NetworkManager::send<KickUserPacket>(KickUserPacket*, std::__ndk1::function<void ()>)::{lambda(int, int)#1}>, bool (int, int)>::~__func()
FUNC 113f5c 88 0 std::__ndk1::__function::__func<NetworkManager::send<KickUserPacket>(KickUserPacket*, std::__ndk1::function<void ()>)::{lambda(int, int)#1}, std::__ndk1::allocator<NetworkManager::send<KickUserPacket>(KickUserPacket*, std::__ndk1::function<void ()>)::{lambda(int, int)#1}>, bool (int, int)>::__clone() const
FUNC 113fe4 74 0 std::__ndk1::__function::__func<NetworkManager::send<KickUserPacket>(KickUserPacket*, std::__ndk1::function<void ()>)::{lambda(int, int)#1}, std::__ndk1::allocator<NetworkManager::send<KickUserPacket>(KickUserPacket*, std::__ndk1::function<void ()>)::{lambda(int, int)#1}>, bool (int, int)>::__clone(std::__ndk1::__function::__base<bool (int, int)>*) const
FUNC 114058 38 0 std::__ndk1::__function::__func<NetworkManager::send<KickUserPacket>(KickUserPacket*, std::__ndk1::function<void ()>)::{lambda(int, int)#1}, std::__ndk1::allocator<NetworkManager::send<KickUserPacket>(KickUserPacket*, std::__ndk1::function<void ()>)::{lambda(int, int)#1}>, bool (int, int)>::destroy()
FUNC 114090 50 0 std::__ndk1::__function::__func<NetworkManager::send<KickUserPacket>(KickUserPacket*, std::__ndk1::function<void ()>)::{lambda(int, int)#1}, std::__ndk1::allocator<NetworkManager::send<KickUserPacket>(KickUserPacket*, std::__ndk1::function<void ()>)::{lambda(int, int)#1}>, bool (int, int)>::destroy_deallocate()
FUNC 1140e0 21c 0 std::__ndk1::__function::__func<NetworkManager::send<KickUserPacket>(KickUserPacket*, std::__ndk1::function<void ()>)::{lambda(int, int)#1}, std::__ndk1::allocator<NetworkManager::send<KickUserPacket>(KickUserPacket*, std::__ndk1::function<void ()>)::{lambda(int, int)#1}>, bool (int, int)>::operator()(int&&, int&&)
FUNC 1142fc 1c 0 std::__ndk1::__function::__func<NetworkManager::send<KickUserPacket>(KickUserPacket*, std::__ndk1::function<void ()>)::{lambda(int, int)#1}, std::__ndk1::allocator<NetworkManager::send<KickUserPacket>(KickUserPacket*, std::__ndk1::function<void ()>)::{lambda(int, int)#1}>, bool (int, int)>::target(std::type_info const&) const
FUNC 114318 c 0 std::__ndk1::__function::__func<NetworkManager::send<KickUserPacket>(KickUserPacket*, std::__ndk1::function<void ()>)::{lambda(int, int)#1}, std::__ndk1::allocator<NetworkManager::send<KickUserPacket>(KickUserPacket*, std::__ndk1::function<void ()>)::{lambda(int, int)#1}>, bool (int, int)>::target_type() const
FUNC 114324 44 0 std::__ndk1::__function::__func<NetworkManager::send<KickUserPacket>(KickUserPacket*, std::__ndk1::function<void ()>)::{lambda(int, int)#1}::operator()(int, int) const::{lambda()#1}, std::__ndk1::allocator<NetworkManager::send<KickUserPacket>(KickUserPacket*, std::__ndk1::function<void ()>)::{lambda(int, int)#1}::operator()(int, int) const::{lambda()#1}>, void ()>::~__func()
FUNC 114368 5c 0 std::__ndk1::__function::__func<NetworkManager::send<KickUserPacket>(KickUserPacket*, std::__ndk1::function<void ()>)::{lambda(int, int)#1}::operator()(int, int) const::{lambda()#1}, std::__ndk1::allocator<NetworkManager::send<KickUserPacket>(KickUserPacket*, std::__ndk1::function<void ()>)::{lambda(int, int)#1}::operator()(int, int) const::{lambda()#1}>, void ()>::~__func()
FUNC 1143c4 88 0 std::__ndk1::__function::__func<NetworkManager::send<KickUserPacket>(KickUserPacket*, std::__ndk1::function<void ()>)::{lambda(int, int)#1}::operator()(int, int) const::{lambda()#1}, std::__ndk1::allocator<NetworkManager::send<KickUserPacket>(KickUserPacket*, std::__ndk1::function<void ()>)::{lambda(int, int)#1}::operator()(int, int) const::{lambda()#1}>, void ()>::__clone() const
FUNC 11444c 74 0 std::__ndk1::__function::__func<NetworkManager::send<KickUserPacket>(KickUserPacket*, std::__ndk1::function<void ()>)::{lambda(int, int)#1}::operator()(int, int) const::{lambda()#1}, std::__ndk1::allocator<NetworkManager::send<KickUserPacket>(KickUserPacket*, std::__ndk1::function<void ()>)::{lambda(int, int)#1}::operator()(int, int) const::{lambda()#1}>, void ()>::__clone(std::__ndk1::__function::__base<void ()>*) const
FUNC 1144c0 38 0 std::__ndk1::__function::__func<NetworkManager::send<KickUserPacket>(KickUserPacket*, std::__ndk1::function<void ()>)::{lambda(int, int)#1}::operator()(int, int) const::{lambda()#1}, std::__ndk1::allocator<NetworkManager::send<KickUserPacket>(KickUserPacket*, std::__ndk1::function<void ()>)::{lambda(int, int)#1}::operator()(int, int) const::{lambda()#1}>, void ()>::destroy()
FUNC 1144f8 50 0 std::__ndk1::__function::__func<NetworkManager::send<KickUserPacket>(KickUserPacket*, std::__ndk1::function<void ()>)::{lambda(int, int)#1}::operator()(int, int) const::{lambda()#1}, std::__ndk1::allocator<NetworkManager::send<KickUserPacket>(KickUserPacket*, std::__ndk1::function<void ()>)::{lambda(int, int)#1}::operator()(int, int) const::{lambda()#1}>, void ()>::destroy_deallocate()
FUNC 114548 20 0 std::__ndk1::__function::__func<NetworkManager::send<KickUserPacket>(KickUserPacket*, std::__ndk1::function<void ()>)::{lambda(int, int)#1}::operator()(int, int) const::{lambda()#1}, std::__ndk1::allocator<NetworkManager::send<KickUserPacket>(KickUserPacket*, std::__ndk1::function<void ()>)::{lambda(int, int)#1}::operator()(int, int) const::{lambda()#1}>, void ()>::operator()()
FUNC 114568 1c 0 std::__ndk1::__function::__func<NetworkManager::send<KickUserPacket>(KickUserPacket*, std::__ndk1::function<void ()>)::{lambda(int, int)#1}::operator()(int, int) const::{lambda()#1}, std::__ndk1::allocator<NetworkManager::send<KickUserPacket>(KickUserPacket*, std::__ndk1::function<void ()>)::{lambda(int, int)#1}::operator()(int, int) const::{lambda()#1}>, void ()>::target(std::type_info const&) const
FUNC 114584 c 0 std::__ndk1::__function::__func<NetworkManager::send<KickUserPacket>(KickUserPacket*, std::__ndk1::function<void ()>)::{lambda(int, int)#1}::operator()(int, int) const::{lambda()#1}, std::__ndk1::allocator<NetworkManager::send<KickUserPacket>(KickUserPacket*, std::__ndk1::function<void ()>)::{lambda(int, int)#1}::operator()(int, int) const::{lambda()#1}>, void ()>::target_type() const
FUNC 114590 4 0 KickUserPacket::decode(std::__ndk1::basic_string<char, std::__ndk1::char_traits<char>, std::__ndk1::allocator<char> >)
FUNC 114594 8 0 KickUserPacket::getPacketID() const
FUNC 11459c c 0 KickUserPacket::getPacketName() const
FUNC 1145a8 4 0 std::__ndk1::__function::__func<LobbyLayer::init(std::__ndk1::basic_string<char, std::__ndk1::char_traits<char>, std::__ndk1::allocator<char> >)::$_1, std::__ndk1::allocator<LobbyLayer::init(std::__ndk1::basic_string<char, std::__ndk1::char_traits<char>, std::__ndk1::allocator<char> >)::$_1>, void (CCMenuItemSpriteExtra*)>::~__func()
FUNC 1145ac 34 0 std::__ndk1::__function::__func<LobbyLayer::init(std::__ndk1::basic_string<char, std::__ndk1::char_traits<char>, std::__ndk1::allocator<char> >)::$_1, std::__ndk1::allocator<LobbyLayer::init(std::__ndk1::basic_string<char, std::__ndk1::char_traits<char>, std::__ndk1::allocator<char> >)::$_1>, void (CCMenuItemSpriteExtra*)>::__clone() const
FUNC 1145e0 14 0 std::__ndk1::__function::__func<LobbyLayer::init(std::__ndk1::basic_string<char, std::__ndk1::char_traits<char>, std::__ndk1::allocator<char> >)::$_1, std::__ndk1::allocator<LobbyLayer::init(std::__ndk1::basic_string<char, std::__ndk1::char_traits<char>, std::__ndk1::allocator<char> >)::$_1>, void (CCMenuItemSpriteExtra*)>::__clone(std::__ndk1::__function::__base<void (CCMenuItemSpriteExtra*)>*) const
FUNC 1145f4 4 0 std::__ndk1::__function::__func<LobbyLayer::init(std::__ndk1::basic_string<char, std::__ndk1::char_traits<char>, std::__ndk1::allocator<char> >)::$_1, std::__ndk1::allocator<LobbyLayer::init(std::__ndk1::basic_string<char, std::__ndk1::char_traits<char>, std::__ndk1::allocator<char> >)::$_1>, void (CCMenuItemSpriteExtra*)>::destroy()
FUNC 1145f8 4 0 std::__ndk1::__function::__func<LobbyLayer::init(std::__ndk1::basic_string<char, std::__ndk1::char_traits<char>, std::__ndk1::allocator<char> >)::$_1, std::__ndk1::allocator<LobbyLayer::init(std::__ndk1::basic_string<char, std::__ndk1::char_traits<char>, std::__ndk1::allocator<char> >)::$_1>, void (CCMenuItemSpriteExtra*)>::destroy_deallocate()
FUNC 1145fc 10 0 std::__ndk1::__function::__func<LobbyLayer::init(std::__ndk1::basic_string<char, std::__ndk1::char_traits<char>, std::__ndk1::allocator<char> >)::$_1, std::__ndk1::allocator<LobbyLayer::init(std::__ndk1::basic_string<char, std::__ndk1::char_traits<char>, std::__ndk1::allocator<char> >)::$_1>, void (CCMenuItemSpriteExtra*)>::operator()(CCMenuItemSpriteExtra*&&)
FUNC 11460c 1c 0 std::__ndk1::__function::__func<LobbyLayer::init(std::__ndk1::basic_string<char, std::__ndk1::char_traits<char>, std::__ndk1::allocator<char> >)::$_1, std::__ndk1::allocator<LobbyLayer::init(std::__ndk1::basic_string<char, std::__ndk1::char_traits<char>, std::__ndk1::allocator<char> >)::$_1>, void (CCMenuItemSpriteExtra*)>::target(std::type_info const&) const
FUNC 114628 c 0 std::__ndk1::__function::__func<LobbyLayer::init(std::__ndk1::basic_string<char, std::__ndk1::char_traits<char>, std::__ndk1::allocator<char> >)::$_1, std::__ndk1::allocator<LobbyLayer::init(std::__ndk1::basic_string<char, std::__ndk1::char_traits<char>, std::__ndk1::allocator<char> >)::$_1>, void (CCMenuItemSpriteExtra*)>::target_type() const
FUNC 114634 4 0 std::__ndk1::__function::__func<LobbyLayer::init(std::__ndk1::basic_string<char, std::__ndk1::char_traits<char>, std::__ndk1::allocator<char> >)::$_2, std::__ndk1::allocator<LobbyLayer::init(std::__ndk1::basic_string<char, std::__ndk1::char_traits<char>, std::__ndk1::allocator<char> >)::$_2>, void (CCMenuItemSpriteExtra*)>::~__func()
FUNC 114638 34 0 std::__ndk1::__function::__func<LobbyLayer::init(std::__ndk1::basic_string<char, std::__ndk1::char_traits<char>, std::__ndk1::allocator<char> >)::$_2, std::__ndk1::allocator<LobbyLayer::init(std::__ndk1::basic_string<char, std::__ndk1::char_traits<char>, std::__ndk1::allocator<char> >)::$_2>, void (CCMenuItemSpriteExtra*)>::__clone() const
FUNC 11466c 14 0 std::__ndk1::__function::__func<LobbyLayer::init(std::__ndk1::basic_string<char, std::__ndk1::char_traits<char>, std::__ndk1::allocator<char> >)::$_2, std::__ndk1::allocator<LobbyLayer::init(std::__ndk1::basic_string<char, std::__ndk1::char_traits<char>, std::__ndk1::allocator<char> >)::$_2>, void (CCMenuItemSpriteExtra*)>::__clone(std::__ndk1::__function::__base<void (CCMenuItemSpriteExtra*)>*) const
FUNC 114680 4 0 std::__ndk1::__function::__func<LobbyLayer::init(std::__ndk1::basic_string<char, std::__ndk1::char_traits<char>, std::__ndk1::allocator<char> >)::$_2, std::__ndk1::allocator<LobbyLayer::init(std::__ndk1::basic_string<char, std::__ndk1::char_traits<char>, std::__ndk1::allocator<char> >)::$_2>, void (CCMenuItemSpriteExtra*)>::destroy()
FUNC 114684 4 0 std::__ndk1::__function::__func<LobbyLayer::init(std::__ndk1::basic_string<char, std::__ndk1::char_traits<char>, std::__ndk1::allocator<char> >)::$_2, std::__ndk1::allocator<LobbyLayer::init(std::__ndk1::basic_string<char, std::__ndk1::char_traits<char>, std::__ndk1::allocator<char> >)::$_2>, void (CCMenuItemSpriteExtra*)>::destroy_deallocate()
FUNC 114688 15c 0 std::__ndk1::__function::__func<LobbyLayer::init(std::__ndk1::basic_string<char, std::__ndk1::char_traits<char>, std::__ndk1::allocator<char> >)::$_2, std::__ndk1::allocator<LobbyLayer::init(std::__ndk1::basic_string<char, std::__ndk1::char_traits<char>, std::__ndk1::allocator<char> >)::$_2>, void (CCMenuItemSpriteExtra*)>::operator()(CCMenuItemSpriteExtra*&&)
FUNC 1147e4 1c 0 std::__ndk1::__function::__func<LobbyLayer::init(std::__ndk1::basic_string<char, std::__ndk1::char_traits<char>, std::__ndk1::allocator<char> >)::$_2, std::__ndk1::allocator<LobbyLayer::init(std::__ndk1::basic_string<char, std::__ndk1::char_traits<char>, std::__ndk1::allocator<char> >)::$_2>, void (CCMenuItemSpriteExtra*)>::target(std::type_info const&) const
FUNC 114800 c 0 std::__ndk1::__function::__func<LobbyLayer::init(std::__ndk1::basic_string<char, std::__ndk1::char_traits<char>, std::__ndk1::allocator<char> >)::$_2, std::__ndk1::allocator<LobbyLayer::init(std::__ndk1::basic_string<char, std::__ndk1::char_traits<char>, std::__ndk1::allocator<char> >)::$_2>, void (CCMenuItemSpriteExtra*)>::target_type() const
FUNC 11480c 4 0 std::__ndk1::__function::__func<LobbyLayer::init(std::__ndk1::basic_string<char, std::__ndk1::char_traits<char>, std::__ndk1::allocator<char> >)::$_3, std::__ndk1::allocator<LobbyLayer::init(std::__ndk1::basic_string<char, std::__ndk1::char_traits<char>, std::__ndk1::allocator<char> >)::$_3>, void (CCMenuItemSpriteExtra*)>::~__func()
FUNC 114810 24 0 std::__ndk1::__function::__func<LobbyLayer::init(std::__ndk1::basic_string<char, std::__ndk1::char_traits<char>, std::__ndk1::allocator<char> >)::$_3, std::__ndk1::allocator<LobbyLayer::init(std::__ndk1::basic_string<char, std::__ndk1::char_traits<char>, std::__ndk1::allocator<char> >)::$_3>, void (CCMenuItemSpriteExtra*)>::__clone() const
FUNC 114834 10 0 std::__ndk1::__function::__func<LobbyLayer::init(std::__ndk1::basic_string<char, std::__ndk1::char_traits<char>, std::__ndk1::allocator<char> >)::$_3, std::__ndk1::allocator<LobbyLayer::init(std::__ndk1::basic_string<char, std::__ndk1::char_traits<char>, std::__ndk1::allocator<char> >)::$_3>, void (CCMenuItemSpriteExtra*)>::__clone(std::__ndk1::__function::__base<void (CCMenuItemSpriteExtra*)>*) const
FUNC 114844 4 0 std::__ndk1::__function::__func<LobbyLayer::init(std::__ndk1::basic_string<char, std::__ndk1::char_traits<char>, std::__ndk1::allocator<char> >)::$_3, std::__ndk1::allocator<LobbyLayer::init(std::__ndk1::basic_string<char, std::__ndk1::char_traits<char>, std::__ndk1::allocator<char> >)::$_3>, void (CCMenuItemSpriteExtra*)>::destroy()
FUNC 114848 4 0 std::__ndk1::__function::__func<LobbyLayer::init(std::__ndk1::basic_string<char, std::__ndk1::char_traits<char>, std::__ndk1::allocator<char> >)::$_3, std::__ndk1::allocator<LobbyLayer::init(std::__ndk1::basic_string<char, std::__ndk1::char_traits<char>, std::__ndk1::allocator<char> >)::$_3>, void (CCMenuItemSpriteExtra*)>::destroy_deallocate()
FUNC 11484c 1c 0 std::__ndk1::__function::__func<LobbyLayer::init(std::__ndk1::basic_string<char, std::__ndk1::char_traits<char>, std::__ndk1::allocator<char> >)::$_3, std::__ndk1::allocator<LobbyLayer::init(std::__ndk1::basic_string<char, std::__ndk1::char_traits<char>, std::__ndk1::allocator<char> >)::$_3>, void (CCMenuItemSpriteExtra*)>::operator()(CCMenuItemSpriteExtra*&&)
FUNC 114868 1c 0 std::__ndk1::__function::__func<LobbyLayer::init(std::__ndk1::basic_string<char, std::__ndk1::char_traits<char>, std::__ndk1::allocator<char> >)::$_3, std::__ndk1::allocator<LobbyLayer::init(std::__ndk1::basic_string<char, std::__ndk1::char_traits<char>, std::__ndk1::allocator<char> >)::$_3>, void (CCMenuItemSpriteExtra*)>::target(std::type_info const&) const
FUNC 114884 c 0 std::__ndk1::__function::__func<LobbyLayer::init(std::__ndk1::basic_string<char, std::__ndk1::char_traits<char>, std::__ndk1::allocator<char> >)::$_3, std::__ndk1::allocator<LobbyLayer::init(std::__ndk1::basic_string<char, std::__ndk1::char_traits<char>, std::__ndk1::allocator<char> >)::$_3>, void (CCMenuItemSpriteExtra*)>::target_type() const
FUNC 114890 4 0 std::__ndk1::__function::__func<LobbyLayer::init(std::__ndk1::basic_string<char, std::__ndk1::char_traits<char>, std::__ndk1::allocator<char> >)::$_4, std::__ndk1::allocator<LobbyLayer::init(std::__ndk1::basic_string<char, std::__ndk1::char_traits<char>, std::__ndk1::allocator<char> >)::$_4>, void (CCMenuItemSpriteExtra*)>::~__func()
FUNC 114894 34 0 std::__ndk1::__function::__func<LobbyLayer::init(std::__ndk1::basic_string<char, std::__ndk1::char_traits<char>, std::__ndk1::allocator<char> >)::$_4, std::__ndk1::allocator<LobbyLayer::init(std::__ndk1::basic_string<char, std::__ndk1::char_traits<char>, std::__ndk1::allocator<char> >)::$_4>, void (CCMenuItemSpriteExtra*)>::__clone() const
FUNC 1148c8 14 0 std::__ndk1::__function::__func<LobbyLayer::init(std::__ndk1::basic_string<char, std::__ndk1::char_traits<char>, std::__ndk1::allocator<char> >)::$_4, std::__ndk1::allocator<LobbyLayer::init(std::__ndk1::basic_string<char, std::__ndk1::char_traits<char>, std::__ndk1::allocator<char> >)::$_4>, void (CCMenuItemSpriteExtra*)>::__clone(std::__ndk1::__function::__base<void (CCMenuItemSpriteExtra*)>*) const
FUNC 1148dc 4 0 std::__ndk1::__function::__func<LobbyLayer::init(std::__ndk1::basic_string<char, std::__ndk1::char_traits<char>, std::__ndk1::allocator<char> >)::$_4, std::__ndk1::allocator<LobbyLayer::init(std::__ndk1::basic_string<char, std::__ndk1::char_traits<char>, std::__ndk1::allocator<char> >)::$_4>, void (CCMenuItemSpriteExtra*)>::destroy()
FUNC 1148e0 4 0 std::__ndk1::__function::__func<LobbyLayer::init(std::__ndk1::basic_string<char, std::__ndk1::char_traits<char>, std::__ndk1::allocator<char> >)::$_4, std::__ndk1::allocator<LobbyLayer::init(std::__ndk1::basic_string<char, std::__ndk1::char_traits<char>, std::__ndk1::allocator<char> >)::$_4>, void (CCMenuItemSpriteExtra*)>::destroy_deallocate()
FUNC 1148e4 14c 0 std::__ndk1::__function::__func<LobbyLayer::init(std::__ndk1::basic_string<char, std::__ndk1::char_traits<char>, std::__ndk1::allocator<char> >)::$_4, std::__ndk1::allocator<LobbyLayer::init(std::__ndk1::basic_string<char, std::__ndk1::char_traits<char>, std::__ndk1::allocator<char> >)::$_4>, void (CCMenuItemSpriteExtra*)>::operator()(CCMenuItemSpriteExtra*&&)
FUNC 114a30 1c 0 std::__ndk1::__function::__func<LobbyLayer::init(std::__ndk1::basic_string<char, std::__ndk1::char_traits<char>, std::__ndk1::allocator<char> >)::$_4, std::__ndk1::allocator<LobbyLayer::init(std::__ndk1::basic_string<char, std::__ndk1::char_traits<char>, std::__ndk1::allocator<char> >)::$_4>, void (CCMenuItemSpriteExtra*)>::target(std::type_info const&) const
FUNC 114a4c c 0 std::__ndk1::__function::__func<LobbyLayer::init(std::__ndk1::basic_string<char, std::__ndk1::char_traits<char>, std::__ndk1::allocator<char> >)::$_4, std::__ndk1::allocator<LobbyLayer::init(std::__ndk1::basic_string<char, std::__ndk1::char_traits<char>, std::__ndk1::allocator<char> >)::$_4>, void (CCMenuItemSpriteExtra*)>::target_type() const
FUNC 114a58 4 0 std::__ndk1::__function::__func<LobbyLayer::init(std::__ndk1::basic_string<char, std::__ndk1::char_traits<char>, std::__ndk1::allocator<char> >)::$_4::operator()(cocos2d::CCObject*) const::{lambda(LobbyInfo)#1}, std::__ndk1::allocator<LobbyLayer::init(std::__ndk1::basic_string<char, std::__ndk1::char_traits<char>, std::__ndk1::allocator<char> >)::$_4::operator()(cocos2d::CCObject*) const::{lambda(LobbyInfo)#1}>, void (LobbyInfo)>::~__func()
FUNC 114a5c 34 0 std::__ndk1::__function::__func<LobbyLayer::init(std::__ndk1::basic_string<char, std::__ndk1::char_traits<char>, std::__ndk1::allocator<char> >)::$_4::operator()(cocos2d::CCObject*) const::{lambda(LobbyInfo)#1}, std::__ndk1::allocator<LobbyLayer::init(std::__ndk1::basic_string<char, std::__ndk1::char_traits<char>, std::__ndk1::allocator<char> >)::$_4::operator()(cocos2d::CCObject*) const::{lambda(LobbyInfo)#1}>, void (LobbyInfo)>::__clone() const
FUNC 114a90 14 0 std::__ndk1::__function::__func<LobbyLayer::init(std::__ndk1::basic_string<char, std::__ndk1::char_traits<char>, std::__ndk1::allocator<char> >)::$_4::operator()(cocos2d::CCObject*) const::{lambda(LobbyInfo)#1}, std::__ndk1::allocator<LobbyLayer::init(std::__ndk1::basic_string<char, std::__ndk1::char_traits<char>, std::__ndk1::allocator<char> >)::$_4::operator()(cocos2d::CCObject*) const::{lambda(LobbyInfo)#1}>, void (LobbyInfo)>::__clone(std::__ndk1::__function::__base<void (LobbyInfo)>*) const
FUNC 114aa4 4 0 std::__ndk1::__function::__func<LobbyLayer::init(std::__ndk1::basic_string<char, std::__ndk1::char_traits<char>, std::__ndk1::allocator<char> >)::$_4::operator()(cocos2d::CCObject*) const::{lambda(LobbyInfo)#1}, std::__ndk1::allocator<LobbyLayer::init(std::__ndk1::basic_string<char, std::__ndk1::char_traits<char>, std::__ndk1::allocator<char> >)::$_4::operator()(cocos2d::CCObject*) const::{lambda(LobbyInfo)#1}>, void (LobbyInfo)>::destroy()
FUNC 114aa8 4 0 std::__ndk1::__function::__func<LobbyLayer::init(std::__ndk1::basic_string<char, std::__ndk1::char_traits<char>, std::__ndk1::allocator<char> >)::$_4::operator()(cocos2d::CCObject*) const::{lambda(LobbyInfo)#1}, std::__ndk1::allocator<LobbyLayer::init(std::__ndk1::basic_string<char, std::__ndk1::char_traits<char>, std::__ndk1::allocator<char> >)::$_4::operator()(cocos2d::CCObject*) const::{lambda(LobbyInfo)#1}>, void (LobbyInfo)>::destroy_deallocate()
FUNC 114aac 23c 0 std::__ndk1::__function::__func<LobbyLayer::init(std::__ndk1::basic_string<char, std::__ndk1::char_traits<char>, std::__ndk1::allocator<char> >)::$_4::operator()(cocos2d::CCObject*) const::{lambda(LobbyInfo)#1}, std::__ndk1::allocator<LobbyLayer::init(std::__ndk1::basic_string<char, std::__ndk1::char_traits<char>, std::__ndk1::allocator<char> >)::$_4::operator()(cocos2d::CCObject*) const::{lambda(LobbyInfo)#1}>, void (LobbyInfo)>::operator()(LobbyInfo&&)
FUNC 114ce8 1c 0 std::__ndk1::__function::__func<LobbyLayer::init(std::__ndk1::basic_string<char, std::__ndk1::char_traits<char>, std::__ndk1::allocator<char> >)::$_4::operator()(cocos2d::CCObject*) const::{lambda(LobbyInfo)#1}, std::__ndk1::allocator<LobbyLayer::init(std::__ndk1::basic_string<char, std::__ndk1::char_traits<char>, std::__ndk1::allocator<char> >)::$_4::operator()(cocos2d::CCObject*) const::{lambda(LobbyInfo)#1}>, void (LobbyInfo)>::target(std::type_info const&) const
FUNC 114d04 c 0 std::__ndk1::__function::__func<LobbyLayer::init(std::__ndk1::basic_string<char, std::__ndk1::char_traits<char>, std::__ndk1::allocator<char> >)::$_4::operator()(cocos2d::CCObject*) const::{lambda(LobbyInfo)#1}, std::__ndk1::allocator<LobbyLayer::init(std::__ndk1::basic_string<char, std::__ndk1::char_traits<char>, std::__ndk1::allocator<char> >)::$_4::operator()(cocos2d::CCObject*) const::{lambda(LobbyInfo)#1}>, void (LobbyInfo)>::target_type() const
FUNC 114d10 4 0 std::__ndk1::__function::__func<LobbyLayer::init(std::__ndk1::basic_string<char, std::__ndk1::char_traits<char>, std::__ndk1::allocator<char> >)::$_0, std::__ndk1::allocator<LobbyLayer::init(std::__ndk1::basic_string<char, std::__ndk1::char_traits<char>, std::__ndk1::allocator<char> >)::$_0>, void (CCMenuItemSpriteExtra*)>::~__func()
FUNC 114d14 34 0 std::__ndk1::__function::__func<LobbyLayer::init(std::__ndk1::basic_string<char, std::__ndk1::char_traits<char>, std::__ndk1::allocator<char> >)::$_0, std::__ndk1::allocator<LobbyLayer::init(std::__ndk1::basic_string<char, std::__ndk1::char_traits<char>, std::__ndk1::allocator<char> >)::$_0>, void (CCMenuItemSpriteExtra*)>::__clone() const
FUNC 114d48 14 0 std::__ndk1::__function::__func<LobbyLayer::init(std::__ndk1::basic_string<char, std::__ndk1::char_traits<char>, std::__ndk1::allocator<char> >)::$_0, std::__ndk1::allocator<LobbyLayer::init(std::__ndk1::basic_string<char, std::__ndk1::char_traits<char>, std::__ndk1::allocator<char> >)::$_0>, void (CCMenuItemSpriteExtra*)>::__clone(std::__ndk1::__function::__base<void (CCMenuItemSpriteExtra*)>*) const
FUNC 114d5c 4 0 std::__ndk1::__function::__func<LobbyLayer::init(std::__ndk1::basic_string<char, std::__ndk1::char_traits<char>, std::__ndk1::allocator<char> >)::$_0, std::__ndk1::allocator<LobbyLayer::init(std::__ndk1::basic_string<char, std::__ndk1::char_traits<char>, std::__ndk1::allocator<char> >)::$_0>, void (CCMenuItemSpriteExtra*)>::destroy()
FUNC 114d60 4 0 std::__ndk1::__function::__func<LobbyLayer::init(std::__ndk1::basic_string<char, std::__ndk1::char_traits<char>, std::__ndk1::allocator<char> >)::$_0, std::__ndk1::allocator<LobbyLayer::init(std::__ndk1::basic_string<char, std::__ndk1::char_traits<char>, std::__ndk1::allocator<char> >)::$_0>, void (CCMenuItemSpriteExtra*)>::destroy_deallocate()
FUNC 114d64 17c 0 std::__ndk1::__function::__func<LobbyLayer::init(std::__ndk1::basic_string<char, std::__ndk1::char_traits<char>, std::__ndk1::allocator<char> >)::$_0, std::__ndk1::allocator<LobbyLayer::init(std::__ndk1::basic_string<char, std::__ndk1::char_traits<char>, std::__ndk1::allocator<char> >)::$_0>, void (CCMenuItemSpriteExtra*)>::operator()(CCMenuItemSpriteExtra*&&)
FUNC 114ee0 1c 0 std::__ndk1::__function::__func<LobbyLayer::init(std::__ndk1::basic_string<char, std::__ndk1::char_traits<char>, std::__ndk1::allocator<char> >)::$_0, std::__ndk1::allocator<LobbyLayer::init(std::__ndk1::basic_string<char, std::__ndk1::char_traits<char>, std::__ndk1::allocator<char> >)::$_0>, void (CCMenuItemSpriteExtra*)>::target(std::type_info const&) const
FUNC 114efc c 0 std::__ndk1::__function::__func<LobbyLayer::init(std::__ndk1::basic_string<char, std::__ndk1::char_traits<char>, std::__ndk1::allocator<char> >)::$_0, std::__ndk1::allocator<LobbyLayer::init(std::__ndk1::basic_string<char, std::__ndk1::char_traits<char>, std::__ndk1::allocator<char> >)::$_0>, void (CCMenuItemSpriteExtra*)>::target_type() const
FUNC 114f08 4 0 std::__ndk1::__function::__func<LobbyLayer::init(std::__ndk1::basic_string<char, std::__ndk1::char_traits<char>, std::__ndk1::allocator<char> >)::$_0::operator()(cocos2d::CCObject*) const::{lambda(auto:1, bool)#1}, std::__ndk1::allocator<LobbyLayer::init(std::__ndk1::basic_string<char, std::__ndk1::char_traits<char>, std::__ndk1::allocator<char> >)::$_0::operator()(cocos2d::CCObject*) const::{lambda(auto:1, bool)#1}>, void (FLAlertLayer*, bool)>::~__func()
FUNC 114f0c 34 0 std::__ndk1::__function::__func<LobbyLayer::init(std::__ndk1::basic_string<char, std::__ndk1::char_traits<char>, std::__ndk1::allocator<char> >)::$_0::operator()(cocos2d::CCObject*) const::{lambda(auto:1, bool)#1}, std::__ndk1::allocator<LobbyLayer::init(std::__ndk1::basic_string<char, std::__ndk1::char_traits<char>, std::__ndk1::allocator<char> >)::$_0::operator()(cocos2d::CCObject*) const::{lambda(auto:1, bool)#1}>, void (FLAlertLayer*, bool)>::__clone() const
FUNC 114f40 14 0 std::__ndk1::__function::__func<LobbyLayer::init(std::__ndk1::basic_string<char, std::__ndk1::char_traits<char>, std::__ndk1::allocator<char> >)::$_0::operator()(cocos2d::CCObject*) const::{lambda(auto:1, bool)#1}, std::__ndk1::allocator<LobbyLayer::init(std::__ndk1::basic_string<char, std::__ndk1::char_traits<char>, std::__ndk1::allocator<char> >)::$_0::operator()(cocos2d::CCObject*) const::{lambda(auto:1, bool)#1}>, void (FLAlertLayer*, bool)>::__clone(std::__ndk1::__function::__base<void (FLAlertLayer*, bool)>*) const
FUNC 114f54 4 0 std::__ndk1::__function::__func<LobbyLayer::init(std::__ndk1::basic_string<char, std::__ndk1::char_traits<char>, std::__ndk1::allocator<char> >)::$_0::operator()(cocos2d::CCObject*) const::{lambda(auto:1, bool)#1}, std::__ndk1::allocator<LobbyLayer::init(std::__ndk1::basic_string<char, std::__ndk1::char_traits<char>, std::__ndk1::allocator<char> >)::$_0::operator()(cocos2d::CCObject*) const::{lambda(auto:1, bool)#1}>, void (FLAlertLayer*, bool)>::destroy()
FUNC 114f58 4 0 std::__ndk1::__function::__func<LobbyLayer::init(std::__ndk1::basic_string<char, std::__ndk1::char_traits<char>, std::__ndk1::allocator<char> >)::$_0::operator()(cocos2d::CCObject*) const::{lambda(auto:1, bool)#1}, std::__ndk1::allocator<LobbyLayer::init(std::__ndk1::basic_string<char, std::__ndk1::char_traits<char>, std::__ndk1::allocator<char> >)::$_0::operator()(cocos2d::CCObject*) const::{lambda(auto:1, bool)#1}>, void (FLAlertLayer*, bool)>::destroy_deallocate()
FUNC 114f5c 138 0 std::__ndk1::__function::__func<LobbyLayer::init(std::__ndk1::basic_string<char, std::__ndk1::char_traits<char>, std::__ndk1::allocator<char> >)::$_0::operator()(cocos2d::CCObject*) const::{lambda(auto:1, bool)#1}, std::__ndk1::allocator<LobbyLayer::init(std::__ndk1::basic_string<char, std::__ndk1::char_traits<char>, std::__ndk1::allocator<char> >)::$_0::operator()(cocos2d::CCObject*) const::{lambda(auto:1, bool)#1}>, void (FLAlertLayer*, bool)>::operator()(FLAlertLayer*&&, bool&&)
FUNC 115094 1c 0 std::__ndk1::__function::__func<LobbyLayer::init(std::__ndk1::basic_string<char, std::__ndk1::char_traits<char>, std::__ndk1::allocator<char> >)::$_0::operator()(cocos2d::CCObject*) const::{lambda(auto:1, bool)#1}, std::__ndk1::allocator<LobbyLayer::init(std::__ndk1::basic_string<char, std::__ndk1::char_traits<char>, std::__ndk1::allocator<char> >)::$_0::operator()(cocos2d::CCObject*) const::{lambda(auto:1, bool)#1}>, void (FLAlertLayer*, bool)>::target(std::type_info const&) const
FUNC 1150b0 c 0 std::__ndk1::__function::__func<LobbyLayer::init(std::__ndk1::basic_string<char, std::__ndk1::char_traits<char>, std::__ndk1::allocator<char> >)::$_0::operator()(cocos2d::CCObject*) const::{lambda(auto:1, bool)#1}, std::__ndk1::allocator<LobbyLayer::init(std::__ndk1::basic_string<char, std::__ndk1::char_traits<char>, std::__ndk1::allocator<char> >)::$_0::operator()(cocos2d::CCObject*) const::{lambda(auto:1, bool)#1}>, void (FLAlertLayer*, bool)>::target_type() const
FUNC 1150bc 4 0 std::__ndk1::__function::__func<LobbyLayer::init(std::__ndk1::basic_string<char, std::__ndk1::char_traits<char>, std::__ndk1::allocator<char> >)::$_5, std::__ndk1::allocator<LobbyLayer::init(std::__ndk1::basic_string<char, std::__ndk1::char_traits<char>, std::__ndk1::allocator<char> >)::$_5>, void (LobbyInfo)>::~__func()
FUNC 1150c0 34 0 std::__ndk1::__function::__func<LobbyLayer::init(std::__ndk1::basic_string<char, std::__ndk1::char_traits<char>, std::__ndk1::allocator<char> >)::$_5, std::__ndk1::allocator<LobbyLayer::init(std::__ndk1::basic_string<char, std::__ndk1::char_traits<char>, std::__ndk1::allocator<char> >)::$_5>, void (LobbyInfo)>::__clone() const
FUNC 1150f4 14 0 std::__ndk1::__function::__func<LobbyLayer::init(std::__ndk1::basic_string<char, std::__ndk1::char_traits<char>, std::__ndk1::allocator<char> >)::$_5, std::__ndk1::allocator<LobbyLayer::init(std::__ndk1::basic_string<char, std::__ndk1::char_traits<char>, std::__ndk1::allocator<char> >)::$_5>, void (LobbyInfo)>::__clone(std::__ndk1::__function::__base<void (LobbyInfo)>*) const
FUNC 115108 4 0 std::__ndk1::__function::__func<LobbyLayer::init(std::__ndk1::basic_string<char, std::__ndk1::char_traits<char>, std::__ndk1::allocator<char> >)::$_5, std::__ndk1::allocator<LobbyLayer::init(std::__ndk1::basic_string<char, std::__ndk1::char_traits<char>, std::__ndk1::allocator<char> >)::$_5>, void (LobbyInfo)>::destroy()
FUNC 11510c 4 0 std::__ndk1::__function::__func<LobbyLayer::init(std::__ndk1::basic_string<char, std::__ndk1::char_traits<char>, std::__ndk1::allocator<char> >)::$_5, std::__ndk1::allocator<LobbyLayer::init(std::__ndk1::basic_string<char, std::__ndk1::char_traits<char>, std::__ndk1::allocator<char> >)::$_5>, void (LobbyInfo)>::destroy_deallocate()
FUNC 115110 23c 0 std::__ndk1::__function::__func<LobbyLayer::init(std::__ndk1::basic_string<char, std::__ndk1::char_traits<char>, std::__ndk1::allocator<char> >)::$_5, std::__ndk1::allocator<LobbyLayer::init(std::__ndk1::basic_string<char, std::__ndk1::char_traits<char>, std::__ndk1::allocator<char> >)::$_5>, void (LobbyInfo)>::operator()(LobbyInfo&&)
FUNC 11534c 1c 0 std::__ndk1::__function::__func<LobbyLayer::init(std::__ndk1::basic_string<char, std::__ndk1::char_traits<char>, std::__ndk1::allocator<char> >)::$_5, std::__ndk1::allocator<LobbyLayer::init(std::__ndk1::basic_string<char, std::__ndk1::char_traits<char>, std::__ndk1::allocator<char> >)::$_5>, void (LobbyInfo)>::target(std::type_info const&) const
FUNC 115368 c 0 std::__ndk1::__function::__func<LobbyLayer::init(std::__ndk1::basic_string<char, std::__ndk1::char_traits<char>, std::__ndk1::allocator<char> >)::$_5, std::__ndk1::allocator<LobbyLayer::init(std::__ndk1::basic_string<char, std::__ndk1::char_traits<char>, std::__ndk1::allocator<char> >)::$_5>, void (LobbyInfo)>::target_type() const
FUNC 115374 44 0 _ZNSt6__ndk110__function6__funcIZN14NetworkManager2onI18LobbyUpdatedPacketQsr3stdE12is_base_of_vI6PacketT_EEEvNS_8functionIFvPS6_EEEbEUlNS_12basic_stringIcNS_11char_traitsIcEENS_9allocatorIcEEEEE_NSE_ISH_EEFvSG_EED2Ev
FUNC 1153b8 5c 0 _ZNSt6__ndk110__function6__funcIZN14NetworkManager2onI18LobbyUpdatedPacketQsr3stdE12is_base_of_vI6PacketT_EEEvNS_8functionIFvPS6_EEEbEUlNS_12basic_stringIcNS_11char_traitsIcEENS_9allocatorIcEEEEE_NSE_ISH_EEFvSG_EED0Ev
FUNC 115414 88 0 _ZNKSt6__ndk110__function6__funcIZN14NetworkManager2onI18LobbyUpdatedPacketQsr3stdE12is_base_of_vI6PacketT_EEEvNS_8functionIFvPS6_EEEbEUlNS_12basic_stringIcNS_11char_traitsIcEENS_9allocatorIcEEEEE_NSE_ISH_EEFvSG_EE7__cloneEv
FUNC 11549c 74 0 _ZNKSt6__ndk110__function6__funcIZN14NetworkManager2onI18LobbyUpdatedPacketQsr3stdE12is_base_of_vI6PacketT_EEEvNS_8functionIFvPS6_EEEbEUlNS_12basic_stringIcNS_11char_traitsIcEENS_9allocatorIcEEEEE_NSE_ISH_EEFvSG_EE7__cloneEPNS0_6__baseISJ_EE
FUNC 115510 38 0 _ZNSt6__ndk110__function6__funcIZN14NetworkManager2onI18LobbyUpdatedPacketQsr3stdE12is_base_of_vI6PacketT_EEEvNS_8functionIFvPS6_EEEbEUlNS_12basic_stringIcNS_11char_traitsIcEENS_9allocatorIcEEEEE_NSE_ISH_EEFvSG_EE7destroyEv
FUNC 115548 50 0 _ZNSt6__ndk110__function6__funcIZN14NetworkManager2onI18LobbyUpdatedPacketQsr3stdE12is_base_of_vI6PacketT_EEEvNS_8functionIFvPS6_EEEbEUlNS_12basic_stringIcNS_11char_traitsIcEENS_9allocatorIcEEEEE_NSE_ISH_EEFvSG_EE18destroy_deallocateEv
FUNC 115598 420 0 _ZNSt6__ndk110__function6__funcIZN14NetworkManager2onI18LobbyUpdatedPacketQsr3stdE12is_base_of_vI6PacketT_EEEvNS_8functionIFvPS6_EEEbEUlNS_12basic_stringIcNS_11char_traitsIcEENS_9allocatorIcEEEEE_NSE_ISH_EEFvSG_EEclEOSG_
FUNC 1159b8 1c 0 _ZNKSt6__ndk110__function6__funcIZN14NetworkManager2onI18LobbyUpdatedPacketQsr3stdE12is_base_of_vI6PacketT_EEEvNS_8functionIFvPS6_EEEbEUlNS_12basic_stringIcNS_11char_traitsIcEENS_9allocatorIcEEEEE_NSE_ISH_EEFvSG_EE6targetERKSt9type_info
FUNC 1159d4 c 0 _ZNKSt6__ndk110__function6__funcIZN14NetworkManager2onI18LobbyUpdatedPacketQsr3stdE12is_base_of_vI6PacketT_EEEvNS_8functionIFvPS6_EEEbEUlNS_12basic_stringIcNS_11char_traitsIcEENS_9allocatorIcEEEEE_NSE_ISH_EEFvSG_EE11target_typeEv
FUNC 1159e0 4 0 LobbyUpdatedPacket::decode(std::__ndk1::basic_string<char, std::__ndk1::char_traits<char>, std::__ndk1::allocator<char> >)
FUNC 1159e4 8 0 LobbyUpdatedPacket::getPacketID() const
FUNC 1159ec c 0 LobbyUpdatedPacket::getPacketName() const
FUNC 1159f8 180 0 LobbyInfo::serialize<cereal::JSONInputArchive>(cereal::JSONInputArchive&)
FUNC 115b78 208 0 cereal::InputArchive<cereal::JSONInputArchive, (unsigned int)0>::process<cereal::NameValuePair<int&>, cereal::NameValuePair<Account&>, cereal::NameValuePair<int&>, cereal::NameValuePair<bool&> >(cereal::NameValuePair<int&>&&, cereal::NameValuePair<Account&>&&, cereal::NameValuePair<int&>, cereal::NameValuePair<bool&>)
FUNC 115d80 d0 0 cereal::InputArchive<cereal::JSONInputArchive, (unsigned int)0>::process<cereal::NameValuePair<int&>, cereal::NameValuePair<bool&> >(cereal::NameValuePair<int&>&&, cereal::NameValuePair<bool&>&&)
FUNC 115e50 98 0 cereal::JSONInputArchive::loadValue(bool&)
FUNC 115ee8 1f0 0 cereal::load<cereal::JSONInputArchive, Account, std::__ndk1::allocator<Account> >(cereal::JSONInputArchive&, std::__ndk1::vector<Account, std::__ndk1::allocator<Account> >&)
FUNC 1160d8 c0 0 cereal::JSONInputArchive::loadSize(unsigned long&)
FUNC 116198 1fc 0 std::__ndk1::vector<Account, std::__ndk1::allocator<Account> >::__append(unsigned long)
FUNC 116394 44 0 _ZNSt6__ndk110__function6__funcIZZN14NetworkManager2onI18LobbyUpdatedPacketQsr3stdE12is_base_of_vI6PacketT_EEEvNS_8functionIFvPS6_EEEbENKUlNS_12basic_stringIcNS_11char_traitsIcEENS_9allocatorIcEEEEE_clESG_EUlvE_NSE_ISI_EEFvvEED2Ev
FUNC 1163d8 5c 0 _ZNSt6__ndk110__function6__funcIZZN14NetworkManager2onI18LobbyUpdatedPacketQsr3stdE12is_base_of_vI6PacketT_EEEvNS_8functionIFvPS6_EEEbENKUlNS_12basic_stringIcNS_11char_traitsIcEENS_9allocatorIcEEEEE_clESG_EUlvE_NSE_ISI_EEFvvEED0Ev
FUNC 116434 90 0 _ZNKSt6__ndk110__function6__funcIZZN14NetworkManager2onI18LobbyUpdatedPacketQsr3stdE12is_base_of_vI6PacketT_EEEvNS_8functionIFvPS6_EEEbENKUlNS_12basic_stringIcNS_11char_traitsIcEENS_9allocatorIcEEEEE_clESG_EUlvE_NSE_ISI_EEFvvEE7__cloneEv
FUNC 1164c4 78 0 _ZNKSt6__ndk110__function6__funcIZZN14NetworkManager2onI18LobbyUpdatedPacketQsr3stdE12is_base_of_vI6PacketT_EEEvNS_8functionIFvPS6_EEEbENKUlNS_12basic_stringIcNS_11char_traitsIcEENS_9allocatorIcEEEEE_clESG_EUlvE_NSE_ISI_EEFvvEE7__cloneEPNS0_6__baseISK_EE
FUNC 11653c 38 0 _ZNSt6__ndk110__function6__funcIZZN14NetworkManager2onI18LobbyUpdatedPacketQsr3stdE12is_base_of_vI6PacketT_EEEvNS_8functionIFvPS6_EEEbENKUlNS_12basic_stringIcNS_11char_traitsIcEENS_9allocatorIcEEEEE_clESG_EUlvE_NSE_ISI_EEFvvEE7destroyEv
FUNC 116574 50 0 _ZNSt6__ndk110__function6__funcIZZN14NetworkManager2onI18LobbyUpdatedPacketQsr3stdE12is_base_of_vI6PacketT_EEEvNS_8functionIFvPS6_EEEbENKUlNS_12basic_stringIcNS_11char_traitsIcEENS_9allocatorIcEEEEE_clESG_EUlvE_NSE_ISI_EEFvvEE18destroy_deallocateEv
FUNC 1165c4 74 0 _ZNSt6__ndk110__function6__funcIZZN14NetworkManager2onI18LobbyUpdatedPacketQsr3stdE12is_base_of_vI6PacketT_EEEvNS_8functionIFvPS6_EEEbENKUlNS_12basic_stringIcNS_11char_traitsIcEENS_9allocatorIcEEEEE_clESG_EUlvE_NSE_ISI_EEFvvEEclEv
FUNC 116638 1c 0 _ZNKSt6__ndk110__function6__funcIZZN14NetworkManager2onI18LobbyUpdatedPacketQsr3stdE12is_base_of_vI6PacketT_EEEvNS_8functionIFvPS6_EEEbENKUlNS_12basic_stringIcNS_11char_traitsIcEENS_9allocatorIcEEEEE_clESG_EUlvE_NSE_ISI_EEFvvEE6targetERKSt9type_info
FUNC 116654 c 0 _ZNKSt6__ndk110__function6__funcIZZN14NetworkManager2onI18LobbyUpdatedPacketQsr3stdE12is_base_of_vI6PacketT_EEEvNS_8functionIFvPS6_EEEbENKUlNS_12basic_stringIcNS_11char_traitsIcEENS_9allocatorIcEEEEE_clESG_EUlvE_NSE_ISI_EEFvvEE11target_typeEv
FUNC 116660 4 0 std::__ndk1::__function::__base<void (LobbyUpdatedPacket*)>::~__base()
FUNC 116664 4 0 std::__ndk1::__function::__func<LobbyLayer::registerListeners()::$_0, std::__ndk1::allocator<LobbyLayer::registerListeners()::$_0>, void (LobbyUpdatedPacket*)>::~__func()
FUNC 116668 34 0 std::__ndk1::__function::__func<LobbyLayer::registerListeners()::$_0, std::__ndk1::allocator<LobbyLayer::registerListeners()::$_0>, void (LobbyUpdatedPacket*)>::__clone() const
FUNC 11669c 14 0 std::__ndk1::__function::__func<LobbyLayer::registerListeners()::$_0, std::__ndk1::allocator<LobbyLayer::registerListeners()::$_0>, void (LobbyUpdatedPacket*)>::__clone(std::__ndk1::__function::__base<void (LobbyUpdatedPacket*)>*) const
FUNC 1166b0 4 0 std::__ndk1::__function::__func<LobbyLayer::registerListeners()::$_0, std::__ndk1::allocator<LobbyLayer::registerListeners()::$_0>, void (LobbyUpdatedPacket*)>::destroy()
FUNC 1166b4 4 0 std::__ndk1::__function::__func<LobbyLayer::registerListeners()::$_0, std::__ndk1::allocator<LobbyLayer::registerListeners()::$_0>, void (LobbyUpdatedPacket*)>::destroy_deallocate()
FUNC 1166b8 120 0 std::__ndk1::__function::__func<LobbyLayer::registerListeners()::$_0, std::__ndk1::allocator<LobbyLayer::registerListeners()::$_0>, void (LobbyUpdatedPacket*)>::operator()(LobbyUpdatedPacket*&&)
FUNC 1167d8 1c 0 std::__ndk1::__function::__func<LobbyLayer::registerListeners()::$_0, std::__ndk1::allocator<LobbyLayer::registerListeners()::$_0>, void (LobbyUpdatedPacket*)>::target(std::type_info const&) const
FUNC 1167f4 c 0 std::__ndk1::__function::__func<LobbyLayer::registerListeners()::$_0, std::__ndk1::allocator<LobbyLayer::registerListeners()::$_0>, void (LobbyUpdatedPacket*)>::target_type() const
FUNC 116800 44 0 _ZNSt6__ndk110__function6__funcIZN14NetworkManager2onI17SwapStartedPacketQsr3stdE12is_base_of_vI6PacketT_EEEvNS_8functionIFvPS6_EEEbEUlNS_12basic_stringIcNS_11char_traitsIcEENS_9allocatorIcEEEEE_NSE_ISH_EEFvSG_EED2Ev
FUNC 116844 5c 0 _ZNSt6__ndk110__function6__funcIZN14NetworkManager2onI17SwapStartedPacketQsr3stdE12is_base_of_vI6PacketT_EEEvNS_8functionIFvPS6_EEEbEUlNS_12basic_stringIcNS_11char_traitsIcEENS_9allocatorIcEEEEE_NSE_ISH_EEFvSG_EED0Ev
FUNC 1168a0 88 0 _ZNKSt6__ndk110__function6__funcIZN14NetworkManager2onI17SwapStartedPacketQsr3stdE12is_base_of_vI6PacketT_EEEvNS_8functionIFvPS6_EEEbEUlNS_12basic_stringIcNS_11char_traitsIcEENS_9allocatorIcEEEEE_NSE_ISH_EEFvSG_EE7__cloneEv
FUNC 116928 74 0 _ZNKSt6__ndk110__function6__funcIZN14NetworkManager2onI17SwapStartedPacketQsr3stdE12is_base_of_vI6PacketT_EEEvNS_8functionIFvPS6_EEEbEUlNS_12basic_stringIcNS_11char_traitsIcEENS_9allocatorIcEEEEE_NSE_ISH_EEFvSG_EE7__cloneEPNS0_6__baseISJ_EE
FUNC 11699c 38 0 _ZNSt6__ndk110__function6__funcIZN14NetworkManager2onI17SwapStartedPacketQsr3stdE12is_base_of_vI6PacketT_EEEvNS_8functionIFvPS6_EEEbEUlNS_12basic_stringIcNS_11char_traitsIcEENS_9allocatorIcEEEEE_NSE_ISH_EEFvSG_EE7destroyEv
FUNC 1169d4 50 0 _ZNSt6__ndk110__function6__funcIZN14NetworkManager2onI17SwapStartedPacketQsr3stdE12is_base_of_vI6PacketT_EEEvNS_8functionIFvPS6_EEEbEUlNS_12basic_stringIcNS_11char_traitsIcEENS_9allocatorIcEEEEE_NSE_ISH_EEFvSG_EE18destroy_deallocateEv
FUNC 116a24 3bc 0 _ZNSt6__ndk110__function6__funcIZN14NetworkManager2onI17SwapStartedPacketQsr3stdE12is_base_of_vI6PacketT_EEEvNS_8functionIFvPS6_EEEbEUlNS_12basic_stringIcNS_11char_traitsIcEENS_9allocatorIcEEEEE_NSE_ISH_EEFvSG_EEclEOSG_
FUNC 116de0 1c 0 _ZNKSt6__ndk110__function6__funcIZN14NetworkManager2onI17SwapStartedPacketQsr3stdE12is_base_of_vI6PacketT_EEEvNS_8functionIFvPS6_EEEbEUlNS_12basic_stringIcNS_11char_traitsIcEENS_9allocatorIcEEEEE_NSE_ISH_EEFvSG_EE6targetERKSt9type_info
FUNC 116dfc c 0 _ZNKSt6__ndk110__function6__funcIZN14NetworkManager2onI17SwapStartedPacketQsr3stdE12is_base_of_vI6PacketT_EEEvNS_8functionIFvPS6_EEEbEUlNS_12basic_stringIcNS_11char_traitsIcEENS_9allocatorIcEEEEE_NSE_ISH_EEFvSG_EE11target_typeEv
FUNC 116e08 4 0 SwapStartedPacket::decode(std::__ndk1::basic_string<char, std::__ndk1::char_traits<char>, std::__ndk1::allocator<char> >)
FUNC 116e0c 8 0 SwapStartedPacket::getPacketID() const
FUNC 116e14 c 0 SwapStartedPacket::getPacketName() const
FUNC 116e20 44 0 _ZNSt6__ndk110__function6__funcIZZN14NetworkManager2onI17SwapStartedPacketQsr3stdE12is_base_of_vI6PacketT_EEEvNS_8functionIFvPS6_EEEbENKUlNS_12basic_stringIcNS_11char_traitsIcEENS_9allocatorIcEEEEE_clESG_EUlvE_NSE_ISI_EEFvvEED2Ev
FUNC 116e64 5c 0 _ZNSt6__ndk110__function6__funcIZZN14NetworkManager2onI17SwapStartedPacketQsr3stdE12is_base_of_vI6PacketT_EEEvNS_8functionIFvPS6_EEEbENKUlNS_12basic_stringIcNS_11char_traitsIcEENS_9allocatorIcEEEEE_clESG_EUlvE_NSE_ISI_EEFvvEED0Ev
FUNC 116ec0 90 0 _ZNKSt6__ndk110__function6__funcIZZN14NetworkManager2onI17SwapStartedPacketQsr3stdE12is_base_of_vI6PacketT_EEEvNS_8functionIFvPS6_EEEbENKUlNS_12basic_stringIcNS_11char_traitsIcEENS_9allocatorIcEEEEE_clESG_EUlvE_NSE_ISI_EEFvvEE7__cloneEv
FUNC 116f50 78 0 _ZNKSt6__ndk110__function6__funcIZZN14NetworkManager2onI17SwapStartedPacketQsr3stdE12is_base_of_vI6PacketT_EEEvNS_8functionIFvPS6_EEEbENKUlNS_12basic_stringIcNS_11char_traitsIcEENS_9allocatorIcEEEEE_clESG_EUlvE_NSE_ISI_EEFvvEE7__cloneEPNS0_6__baseISK_EE
FUNC 116fc8 38 0 _ZNSt6__ndk110__function6__funcIZZN14NetworkManager2onI17SwapStartedPacketQsr3stdE12is_base_of_vI6PacketT_EEEvNS_8functionIFvPS6_EEEbENKUlNS_12basic_stringIcNS_11char_traitsIcEENS_9allocatorIcEEEEE_clESG_EUlvE_NSE_ISI_EEFvvEE7destroyEv
FUNC 117000 50 0 _ZNSt6__ndk110__function6__funcIZZN14NetworkManager2onI17SwapStartedPacketQsr3stdE12is_base_of_vI6PacketT_EEEvNS_8functionIFvPS6_EEEbENKUlNS_12basic_stringIcNS_11char_traitsIcEENS_9allocatorIcEEEEE_clESG_EUlvE_NSE_ISI_EEFvvEE18destroy_deallocateEv
FUNC 117050 74 0 _ZNSt6__ndk110__function6__funcIZZN14NetworkManager2onI17SwapStartedPacketQsr3stdE12is_base_of_vI6PacketT_EEEvNS_8functionIFvPS6_EEEbENKUlNS_12basic_stringIcNS_11char_traitsIcEENS_9allocatorIcEEEEE_clESG_EUlvE_NSE_ISI_EEFvvEEclEv
FUNC 1170c4 1c 0 _ZNKSt6__ndk110__function6__funcIZZN14NetworkManager2onI17SwapStartedPacketQsr3stdE12is_base_of_vI6PacketT_EEEvNS_8functionIFvPS6_EEEbENKUlNS_12basic_stringIcNS_11char_traitsIcEENS_9allocatorIcEEEEE_clESG_EUlvE_NSE_ISI_EEFvvEE6targetERKSt9type_info
FUNC 1170e0 c 0 _ZNKSt6__ndk110__function6__funcIZZN14NetworkManager2onI17SwapStartedPacketQsr3stdE12is_base_of_vI6PacketT_EEEvNS_8functionIFvPS6_EEEbENKUlNS_12basic_stringIcNS_11char_traitsIcEENS_9allocatorIcEEEEE_clESG_EUlvE_NSE_ISI_EEFvvEE11target_typeEv
FUNC 1170ec 4 0 std::__ndk1::__function::__base<void (SwapStartedPacket*)>::~__base()
FUNC 1170f0 4 0 std::__ndk1::__function::__func<LobbyLayer::registerListeners()::$_1, std::__ndk1::allocator<LobbyLayer::registerListeners()::$_1>, void (SwapStartedPacket*)>::~__func()
FUNC 1170f4 34 0 std::__ndk1::__function::__func<LobbyLayer::registerListeners()::$_1, std::__ndk1::allocator<LobbyLayer::registerListeners()::$_1>, void (SwapStartedPacket*)>::__clone() const
FUNC 117128 14 0 std::__ndk1::__function::__func<LobbyLayer::registerListeners()::$_1, std::__ndk1::allocator<LobbyLayer::registerListeners()::$_1>, void (SwapStartedPacket*)>::__clone(std::__ndk1::__function::__base<void (SwapStartedPacket*)>*) const
FUNC 11713c 4 0 std::__ndk1::__function::__func<LobbyLayer::registerListeners()::$_1, std::__ndk1::allocator<LobbyLayer::registerListeners()::$_1>, void (SwapStartedPacket*)>::destroy()
FUNC 117140 4 0 std::__ndk1::__function::__func<LobbyLayer::registerListeners()::$_1, std::__ndk1::allocator<LobbyLayer::registerListeners()::$_1>, void (SwapStartedPacket*)>::destroy_deallocate()
FUNC 117144 2a4 0 std::__ndk1::__function::__func<LobbyLayer::registerListeners()::$_1, std::__ndk1::allocator<LobbyLayer::registerListeners()::$_1>, void (SwapStartedPacket*)>::operator()(SwapStartedPacket*&&)
FUNC 1173e8 1c 0 std::__ndk1::__function::__func<LobbyLayer::registerListeners()::$_1, std::__ndk1::allocator<LobbyLayer::registerListeners()::$_1>, void (SwapStartedPacket*)>::target(std::type_info const&) const
FUNC 117404 c 0 std::__ndk1::__function::__func<LobbyLayer::registerListeners()::$_1, std::__ndk1::allocator<LobbyLayer::registerListeners()::$_1>, void (SwapStartedPacket*)>::target_type() const
FUNC 117410 4 0 std::__ndk1::__function::__base<void (std::__ndk1::basic_string<char, std::__ndk1::char_traits<char>, std::__ndk1::allocator<char> >)>::~__base()
FUNC 117414 4 0 std::__ndk1::__function::__func<LobbyLayer::registerListeners()::$_2, std::__ndk1::allocator<LobbyLayer::registerListeners()::$_2>, void (std::__ndk1::basic_string<char, std::__ndk1::char_traits<char>, std::__ndk1::allocator<char> >)>::~__func()
FUNC 117418 34 0 std::__ndk1::__function::__func<LobbyLayer::registerListeners()::$_2, std::__ndk1::allocator<LobbyLayer::registerListeners()::$_2>, void (std::__ndk1::basic_string<char, std::__ndk1::char_traits<char>, std::__ndk1::allocator<char> >)>::__clone() const
FUNC 11744c 14 0 std::__ndk1::__function::__func<LobbyLayer::registerListeners()::$_2, std::__ndk1::allocator<LobbyLayer::registerListeners()::$_2>, void (std::__ndk1::basic_string<char, std::__ndk1::char_traits<char>, std::__ndk1::allocator<char> >)>::__clone(std::__ndk1::__function::__base<void (std::__ndk1::basic_string<char, std::__ndk1::char_traits<char>, std::__ndk1::allocator<char> >)>*) const
FUNC 117460 4 0 std::__ndk1::__function::__func<LobbyLayer::registerListeners()::$_2, std::__ndk1::allocator<LobbyLayer::registerListeners()::$_2>, void (std::__ndk1::basic_string<char, std::__ndk1::char_traits<char>, std::__ndk1::allocator<char> >)>::destroy()
FUNC 117464 4 0 std::__ndk1::__function::__func<LobbyLayer::registerListeners()::$_2, std::__ndk1::allocator<LobbyLayer::registerListeners()::$_2>, void (std::__ndk1::basic_string<char, std::__ndk1::char_traits<char>, std::__ndk1::allocator<char> >)>::destroy_deallocate()
FUNC 117468 e8 0 std::__ndk1::__function::__func<LobbyLayer::registerListeners()::$_2, std::__ndk1::allocator<LobbyLayer::registerListeners()::$_2>, void (std::__ndk1::basic_string<char, std::__ndk1::char_traits<char>, std::__ndk1::allocator<char> >)>::operator()(std::__ndk1::basic_string<char, std::__ndk1::char_traits<char>, std::__ndk1::allocator<char> >&&)
FUNC 117550 1c 0 std::__ndk1::__function::__func<LobbyLayer::registerListeners()::$_2, std::__ndk1::allocator<LobbyLayer::registerListeners()::$_2>, void (std::__ndk1::basic_string<char, std::__ndk1::char_traits<char>, std::__ndk1::allocator<char> >)>::target(std::type_info const&) const
FUNC 11756c c 0 std::__ndk1::__function::__func<LobbyLayer::registerListeners()::$_2, std::__ndk1::allocator<LobbyLayer::registerListeners()::$_2>, void (std::__ndk1::basic_string<char, std::__ndk1::char_traits<char>, std::__ndk1::allocator<char> >)>::target_type() const
FUNC 117578 c8 0 std::__ndk1::__function::__func<LobbyLayer::refresh(LobbyInfo, bool)::$_0, std::__ndk1::allocator<LobbyLayer::refresh(LobbyInfo, bool)::$_0>, void (CCMenuItemSpriteExtra*)>::~__func()
FUNC 117640 c4 0 std::__ndk1::__function::__func<LobbyLayer::refresh(LobbyInfo, bool)::$_0, std::__ndk1::allocator<LobbyLayer::refresh(LobbyInfo, bool)::$_0>, void (CCMenuItemSpriteExtra*)>::~__func()
FUNC 117704 54 0 std::__ndk1::__function::__func<LobbyLayer::refresh(LobbyInfo, bool)::$_0, std::__ndk1::allocator<LobbyLayer::refresh(LobbyInfo, bool)::$_0>, void (CCMenuItemSpriteExtra*)>::__clone() const
FUNC 117758 1c 0 std::__ndk1::__function::__func<LobbyLayer::refresh(LobbyInfo, bool)::$_0, std::__ndk1::allocator<LobbyLayer::refresh(LobbyInfo, bool)::$_0>, void (CCMenuItemSpriteExtra*)>::__clone(std::__ndk1::__function::__base<void (CCMenuItemSpriteExtra*)>*) const
FUNC 117774 8 0 std::__ndk1::__function::__func<LobbyLayer::refresh(LobbyInfo, bool)::$_0, std::__ndk1::allocator<LobbyLayer::refresh(LobbyInfo, bool)::$_0>, void (CCMenuItemSpriteExtra*)>::destroy()
FUNC 11777c 28 0 std::__ndk1::__function::__func<LobbyLayer::refresh(LobbyInfo, bool)::$_0, std::__ndk1::allocator<LobbyLayer::refresh(LobbyInfo, bool)::$_0>, void (CCMenuItemSpriteExtra*)>::destroy_deallocate()
FUNC 1177a4 cc 0 std::__ndk1::__function::__func<LobbyLayer::refresh(LobbyInfo, bool)::$_0, std::__ndk1::allocator<LobbyLayer::refresh(LobbyInfo, bool)::$_0>, void (CCMenuItemSpriteExtra*)>::operator()(CCMenuItemSpriteExtra*&&)
FUNC 117870 1c 0 std::__ndk1::__function::__func<LobbyLayer::refresh(LobbyInfo, bool)::$_0, std::__ndk1::allocator<LobbyLayer::refresh(LobbyInfo, bool)::$_0>, void (CCMenuItemSpriteExtra*)>::target(std::type_info const&) const
FUNC 11788c c 0 std::__ndk1::__function::__func<LobbyLayer::refresh(LobbyInfo, bool)::$_0, std::__ndk1::allocator<LobbyLayer::refresh(LobbyInfo, bool)::$_0>, void (CCMenuItemSpriteExtra*)>::target_type() const
FUNC 117898 bc 0 std::__ndk1::__function::__alloc_func<LobbyLayer::refresh(LobbyInfo, bool)::$_0, std::__ndk1::allocator<LobbyLayer::refresh(LobbyInfo, bool)::$_0>, void (CCMenuItemSpriteExtra*)>::destroy[abi:ne180000]()
FUNC 117954 4 0 std::__ndk1::__function::__func<LobbyLayer::onStart(cocos2d::CCObject*)::$_0, std::__ndk1::allocator<LobbyLayer::onStart(cocos2d::CCObject*)::$_0>, void (FLAlertLayer*, bool)>::~__func()
FUNC 117958 34 0 std::__ndk1::__function::__func<LobbyLayer::onStart(cocos2d::CCObject*)::$_0, std::__ndk1::allocator<LobbyLayer::onStart(cocos2d::CCObject*)::$_0>, void (FLAlertLayer*, bool)>::__clone() const
FUNC 11798c 14 0 std::__ndk1::__function::__func<LobbyLayer::onStart(cocos2d::CCObject*)::$_0, std::__ndk1::allocator<LobbyLayer::onStart(cocos2d::CCObject*)::$_0>, void (FLAlertLayer*, bool)>::__clone(std::__ndk1::__function::__base<void (FLAlertLayer*, bool)>*) const
FUNC 1179a0 4 0 std::__ndk1::__function::__func<LobbyLayer::onStart(cocos2d::CCObject*)::$_0, std::__ndk1::allocator<LobbyLayer::onStart(cocos2d::CCObject*)::$_0>, void (FLAlertLayer*, bool)>::destroy()
FUNC 1179a4 4 0 std::__ndk1::__function::__func<LobbyLayer::onStart(cocos2d::CCObject*)::$_0, std::__ndk1::allocator<LobbyLayer::onStart(cocos2d::CCObject*)::$_0>, void (FLAlertLayer*, bool)>::destroy_deallocate()
FUNC 1179a8 9f0 0 std::__ndk1::__function::__func<LobbyLayer::onStart(cocos2d::CCObject*)::$_0, std::__ndk1::allocator<LobbyLayer::onStart(cocos2d::CCObject*)::$_0>, void (FLAlertLayer*, bool)>::operator()(FLAlertLayer*&&, bool&&)
FUNC 118398 1c 0 std::__ndk1::__function::__func<LobbyLayer::onStart(cocos2d::CCObject*)::$_0, std::__ndk1::allocator<LobbyLayer::onStart(cocos2d::CCObject*)::$_0>, void (FLAlertLayer*, bool)>::target(std::type_info const&) const
FUNC 1183b4 c 0 std::__ndk1::__function::__func<LobbyLayer::onStart(cocos2d::CCObject*)::$_0, std::__ndk1::allocator<LobbyLayer::onStart(cocos2d::CCObject*)::$_0>, void (FLAlertLayer*, bool)>::target_type() const
FUNC 1183c0 44 0 std::__ndk1::__function::__func<NetworkManager::send<StartSwapPacket>(StartSwapPacket*, std::__ndk1::function<void ()>)::{lambda(int, int)#1}, std::__ndk1::allocator<NetworkManager::send<StartSwapPacket>(StartSwapPacket*, std::__ndk1::function<void ()>)::{lambda(int, int)#1}>, bool (int, int)>::~__func()
FUNC 118404 5c 0 std::__ndk1::__function::__func<NetworkManager::send<StartSwapPacket>(StartSwapPacket*, std::__ndk1::function<void ()>)::{lambda(int, int)#1}, std::__ndk1::allocator<NetworkManager::send<StartSwapPacket>(StartSwapPacket*, std::__ndk1::function<void ()>)::{lambda(int, int)#1}>, bool (int, int)>::~__func()
FUNC 118460 88 0 std::__ndk1::__function::__func<NetworkManager::send<StartSwapPacket>(StartSwapPacket*, std::__ndk1::function<void ()>)::{lambda(int, int)#1}, std::__ndk1::allocator<NetworkManager::send<StartSwapPacket>(StartSwapPacket*, std::__ndk1::function<void ()>)::{lambda(int, int)#1}>, bool (int, int)>::__clone() const
FUNC 1184e8 74 0 std::__ndk1::__function::__func<NetworkManager::send<StartSwapPacket>(StartSwapPacket*, std::__ndk1::function<void ()>)::{lambda(int, int)#1}, std::__ndk1::allocator<NetworkManager::send<StartSwapPacket>(StartSwapPacket*, std::__ndk1::function<void ()>)::{lambda(int, int)#1}>, bool (int, int)>::__clone(std::__ndk1::__function::__base<bool (int, int)>*) const
FUNC 11855c 38 0 std::__ndk1::__function::__func<NetworkManager::send<StartSwapPacket>(StartSwapPacket*, std::__ndk1::function<void ()>)::{lambda(int, int)#1}, std::__ndk1::allocator<NetworkManager::send<StartSwapPacket>(StartSwapPacket*, std::__ndk1::function<void ()>)::{lambda(int, int)#1}>, bool (int, int)>::destroy()
FUNC 118594 50 0 std::__ndk1::__function::__func<NetworkManager::send<StartSwapPacket>(StartSwapPacket*, std::__ndk1::function<void ()>)::{lambda(int, int)#1}, std::__ndk1::allocator<NetworkManager::send<StartSwapPacket>(StartSwapPacket*, std::__ndk1::function<void ()>)::{lambda(int, int)#1}>, bool (int, int)>::destroy_deallocate()
FUNC 1185e4 21c 0 std::__ndk1::__function::__func<NetworkManager::send<StartSwapPacket>(StartSwapPacket*, std::__ndk1::function<void ()>)::{lambda(int, int)#1}, std::__ndk1::allocator<NetworkManager::send<StartSwapPacket>(StartSwapPacket*, std::__ndk1::function<void ()>)::{lambda(int, int)#1}>, bool (int, int)>::operator()(int&&, int&&)
FUNC 118800 1c 0 std::__ndk1::__function::__func<NetworkManager::send<StartSwapPacket>(StartSwapPacket*, std::__ndk1::function<void ()>)::{lambda(int, int)#1}, std::__ndk1::allocator<NetworkManager::send<StartSwapPacket>(StartSwapPacket*, std::__ndk1::function<void ()>)::{lambda(int, int)#1}>, bool (int, int)>::target(std::type_info const&) const
FUNC 11881c c 0 std::__ndk1::__function::__func<NetworkManager::send<StartSwapPacket>(StartSwapPacket*, std::__ndk1::function<void ()>)::{lambda(int, int)#1}, std::__ndk1::allocator<NetworkManager::send<StartSwapPacket>(StartSwapPacket*, std::__ndk1::function<void ()>)::{lambda(int, int)#1}>, bool (int, int)>::target_type() const
FUNC 118828 44 0 std::__ndk1::__function::__func<NetworkManager::send<StartSwapPacket>(StartSwapPacket*, std::__ndk1::function<void ()>)::{lambda(int, int)#1}::operator()(int, int) const::{lambda()#1}, std::__ndk1::allocator<NetworkManager::send<StartSwapPacket>(StartSwapPacket*, std::__ndk1::function<void ()>)::{lambda(int, int)#1}::operator()(int, int) const::{lambda()#1}>, void ()>::~__func()
FUNC 11886c 5c 0 std::__ndk1::__function::__func<NetworkManager::send<StartSwapPacket>(StartSwapPacket*, std::__ndk1::function<void ()>)::{lambda(int, int)#1}::operator()(int, int) const::{lambda()#1}, std::__ndk1::allocator<NetworkManager::send<StartSwapPacket>(StartSwapPacket*, std::__ndk1::function<void ()>)::{lambda(int, int)#1}::operator()(int, int) const::{lambda()#1}>, void ()>::~__func()
FUNC 1188c8 88 0 std::__ndk1::__function::__func<NetworkManager::send<StartSwapPacket>(StartSwapPacket*, std::__ndk1::function<void ()>)::{lambda(int, int)#1}::operator()(int, int) const::{lambda()#1}, std::__ndk1::allocator<NetworkManager::send<StartSwapPacket>(StartSwapPacket*, std::__ndk1::function<void ()>)::{lambda(int, int)#1}::operator()(int, int) const::{lambda()#1}>, void ()>::__clone() const
FUNC 118950 74 0 std::__ndk1::__function::__func<NetworkManager::send<StartSwapPacket>(StartSwapPacket*, std::__ndk1::function<void ()>)::{lambda(int, int)#1}::operator()(int, int) const::{lambda()#1}, std::__ndk1::allocator<NetworkManager::send<StartSwapPacket>(StartSwapPacket*, std::__ndk1::function<void ()>)::{lambda(int, int)#1}::operator()(int, int) const::{lambda()#1}>, void ()>::__clone(std::__ndk1::__function::__base<void ()>*) const
FUNC 1189c4 38 0 std::__ndk1::__function::__func<NetworkManager::send<StartSwapPacket>(StartSwapPacket*, std::__ndk1::function<void ()>)::{lambda(int, int)#1}::operator()(int, int) const::{lambda()#1}, std::__ndk1::allocator<NetworkManager::send<StartSwapPacket>(StartSwapPacket*, std::__ndk1::function<void ()>)::{lambda(int, int)#1}::operator()(int, int) const::{lambda()#1}>, void ()>::destroy()
FUNC 1189fc 50 0 std::__ndk1::__function::__func<NetworkManager::send<StartSwapPacket>(StartSwapPacket*, std::__ndk1::function<void ()>)::{lambda(int, int)#1}::operator()(int, int) const::{lambda()#1}, std::__ndk1::allocator<NetworkManager::send<StartSwapPacket>(StartSwapPacket*, std::__ndk1::function<void ()>)::{lambda(int, int)#1}::operator()(int, int) const::{lambda()#1}>, void ()>::destroy_deallocate()
FUNC 118a4c 20 0 std::__ndk1::__function::__func<NetworkManager::send<StartSwapPacket>(StartSwapPacket*, std::__ndk1::function<void ()>)::{lambda(int, int)#1}::operator()(int, int) const::{lambda()#1}, std::__ndk1::allocator<NetworkManager::send<StartSwapPacket>(StartSwapPacket*, std::__ndk1::function<void ()>)::{lambda(int, int)#1}::operator()(int, int) const::{lambda()#1}>, void ()>::operator()()
FUNC 118a6c 1c 0 std::__ndk1::__function::__func<NetworkManager::send<StartSwapPacket>(StartSwapPacket*, std::__ndk1::function<void ()>)::{lambda(int, int)#1}::operator()(int, int) const::{lambda()#1}, std::__ndk1::allocator<NetworkManager::send<StartSwapPacket>(StartSwapPacket*, std::__ndk1::function<void ()>)::{lambda(int, int)#1}::operator()(int, int) const::{lambda()#1}>, void ()>::target(std::type_info const&) const
FUNC 118a88 c 0 std::__ndk1::__function::__func<NetworkManager::send<StartSwapPacket>(StartSwapPacket*, std::__ndk1::function<void ()>)::{lambda(int, int)#1}::operator()(int, int) const::{lambda()#1}, std::__ndk1::allocator<NetworkManager::send<StartSwapPacket>(StartSwapPacket*, std::__ndk1::function<void ()>)::{lambda(int, int)#1}::operator()(int, int) const::{lambda()#1}>, void ()>::target_type() const
FUNC 118a94 4 0 StartSwapPacket::decode(std::__ndk1::basic_string<char, std::__ndk1::char_traits<char>, std::__ndk1::allocator<char> >)
FUNC 118a98 8 0 StartSwapPacket::getPacketID() const
FUNC 118aa0 c 0 StartSwapPacket::getPacketName() const
FUNC 118aac 4 0 std::__ndk1::__function::__base<void (LobbyInfo)>::~__base()
FUNC 118ab0 4 0 std::__ndk1::__function::__func<LobbyLayer::onSettings(cocos2d::CCObject*)::$_0, std::__ndk1::allocator<LobbyLayer::onSettings(cocos2d::CCObject*)::$_0>, void (LobbyInfo)>::~__func()
FUNC 118ab4 34 0 std::__ndk1::__function::__func<LobbyLayer::onSettings(cocos2d::CCObject*)::$_0, std::__ndk1::allocator<LobbyLayer::onSettings(cocos2d::CCObject*)::$_0>, void (LobbyInfo)>::__clone() const
FUNC 118ae8 14 0 std::__ndk1::__function::__func<LobbyLayer::onSettings(cocos2d::CCObject*)::$_0, std::__ndk1::allocator<LobbyLayer::onSettings(cocos2d::CCObject*)::$_0>, void (LobbyInfo)>::__clone(std::__ndk1::__function::__base<void (LobbyInfo)>*) const
FUNC 118afc 4 0 std::__ndk1::__function::__func<LobbyLayer::onSettings(cocos2d::CCObject*)::$_0, std::__ndk1::allocator<LobbyLayer::onSettings(cocos2d::CCObject*)::$_0>, void (LobbyInfo)>::destroy()
FUNC 118b00 4 0 std::__ndk1::__function::__func<LobbyLayer::onSettings(cocos2d::CCObject*)::$_0, std::__ndk1::allocator<LobbyLayer::onSettings(cocos2d::CCObject*)::$_0>, void (LobbyInfo)>::destroy_deallocate()
FUNC 118b04 2c4 0 std::__ndk1::__function::__func<LobbyLayer::onSettings(cocos2d::CCObject*)::$_0, std::__ndk1::allocator<LobbyLayer::onSettings(cocos2d::CCObject*)::$_0>, void (LobbyInfo)>::operator()(LobbyInfo&&)
FUNC 118dc8 1c 0 std::__ndk1::__function::__func<LobbyLayer::onSettings(cocos2d::CCObject*)::$_0, std::__ndk1::allocator<LobbyLayer::onSettings(cocos2d::CCObject*)::$_0>, void (LobbyInfo)>::target(std::type_info const&) const
FUNC 118de4 c 0 std::__ndk1::__function::__func<LobbyLayer::onSettings(cocos2d::CCObject*)::$_0, std::__ndk1::allocator<LobbyLayer::onSettings(cocos2d::CCObject*)::$_0>, void (LobbyInfo)>::target_type() const
FUNC 118df0 4 0 std::__ndk1::__function::__base<void (LobbySettings)>::~__base()
FUNC 118df4 4 0 std::__ndk1::__function::__func<LobbyLayer::onSettings(cocos2d::CCObject*)::$_0::operator()(LobbyInfo) const::{lambda(LobbySettings)#1}, std::__ndk1::allocator<LobbyLayer::onSettings(cocos2d::CCObject*)::$_0::operator()(LobbyInfo) const::{lambda(LobbySettings)#1}>, void (LobbySettings)>::~__func()
FUNC 118df8 34 0 std::__ndk1::__function::__func<LobbyLayer::onSettings(cocos2d::CCObject*)::$_0::operator()(LobbyInfo) const::{lambda(LobbySettings)#1}, std::__ndk1::allocator<LobbyLayer::onSettings(cocos2d::CCObject*)::$_0::operator()(LobbyInfo) const::{lambda(LobbySettings)#1}>, void (LobbySettings)>::__clone() const
FUNC 118e2c 14 0 std::__ndk1::__function::__func<LobbyLayer::onSettings(cocos2d::CCObject*)::$_0::operator()(LobbyInfo) const::{lambda(LobbySettings)#1}, std::__ndk1::allocator<LobbyLayer::onSettings(cocos2d::CCObject*)::$_0::operator()(LobbyInfo) const::{lambda(LobbySettings)#1}>, void (LobbySettings)>::__clone(std::__ndk1::__function::__base<void (LobbySettings)>*) const
FUNC 118e40 4 0 std::__ndk1::__function::__func<LobbyLayer::onSettings(cocos2d::CCObject*)::$_0::operator()(LobbyInfo) const::{lambda(LobbySettings)#1}, std::__ndk1::allocator<LobbyLayer::onSettings(cocos2d::CCObject*)::$_0::operator()(LobbyInfo) const::{lambda(LobbySettings)#1}>, void (LobbySettings)>::destroy()
FUNC 118e44 4 0 std::__ndk1::__function::__func<LobbyLayer::onSettings(cocos2d::CCObject*)::$_0::operator()(LobbyInfo) const::{lambda(LobbySettings)#1}, std::__ndk1::allocator<LobbyLayer::onSettings(cocos2d::CCObject*)::$_0::operator()(LobbyInfo) const::{lambda(LobbySettings)#1}>, void (LobbySettings)>::destroy_deallocate()
FUNC 118e48 21c 0 std::__ndk1::__function::__func<LobbyLayer::onSettings(cocos2d::CCObject*)::$_0::operator()(LobbyInfo) const::{lambda(LobbySettings)#1}, std::__ndk1::allocator<LobbyLayer::onSettings(cocos2d::CCObject*)::$_0::operator()(LobbyInfo) const::{lambda(LobbySettings)#1}>, void (LobbySettings)>::operator()(LobbySettings&&)
FUNC 119064 1c 0 std::__ndk1::__function::__func<LobbyLayer::onSettings(cocos2d::CCObject*)::$_0::operator()(LobbyInfo) const::{lambda(LobbySettings)#1}, std::__ndk1::allocator<LobbyLayer::onSettings(cocos2d::CCObject*)::$_0::operator()(LobbyInfo) const::{lambda(LobbySettings)#1}>, void (LobbySettings)>::target(std::type_info const&) const
FUNC 119080 c 0 std::__ndk1::__function::__func<LobbyLayer::onSettings(cocos2d::CCObject*)::$_0::operator()(LobbyInfo) const::{lambda(LobbySettings)#1}, std::__ndk1::allocator<LobbyLayer::onSettings(cocos2d::CCObject*)::$_0::operator()(LobbyInfo) const::{lambda(LobbySettings)#1}>, void (LobbySettings)>::target_type() const
FUNC 11908c 4 0 std::__ndk1::__function::__func<LobbyLayer::onDisconnect(cocos2d::CCObject*)::$_0, std::__ndk1::allocator<LobbyLayer::onDisconnect(cocos2d::CCObject*)::$_0>, void (FLAlertLayer*, bool)>::~__func()
FUNC 119090 34 0 std::__ndk1::__function::__func<LobbyLayer::onDisconnect(cocos2d::CCObject*)::$_0, std::__ndk1::allocator<LobbyLayer::onDisconnect(cocos2d::CCObject*)::$_0>, void (FLAlertLayer*, bool)>::__clone() const
FUNC 1190c4 14 0 std::__ndk1::__function::__func<LobbyLayer::onDisconnect(cocos2d::CCObject*)::$_0, std::__ndk1::allocator<LobbyLayer::onDisconnect(cocos2d::CCObject*)::$_0>, void (FLAlertLayer*, bool)>::__clone(std::__ndk1::__function::__base<void (FLAlertLayer*, bool)>*) const
FUNC 1190d8 4 0 std::__ndk1::__function::__func<LobbyLayer::onDisconnect(cocos2d::CCObject*)::$_0, std::__ndk1::allocator<LobbyLayer::onDisconnect(cocos2d::CCObject*)::$_0>, void (FLAlertLayer*, bool)>::destroy()
FUNC 1190dc 4 0 std::__ndk1::__function::__func<LobbyLayer::onDisconnect(cocos2d::CCObject*)::$_0, std::__ndk1::allocator<LobbyLayer::onDisconnect(cocos2d::CCObject*)::$_0>, void (FLAlertLayer*, bool)>::destroy_deallocate()
FUNC 1190e0 124 0 std::__ndk1::__function::__func<LobbyLayer::onDisconnect(cocos2d::CCObject*)::$_0, std::__ndk1::allocator<LobbyLayer::onDisconnect(cocos2d::CCObject*)::$_0>, void (FLAlertLayer*, bool)>::operator()(FLAlertLayer*&&, bool&&)
FUNC 119204 1c 0 std::__ndk1::__function::__func<LobbyLayer::onDisconnect(cocos2d::CCObject*)::$_0, std::__ndk1::allocator<LobbyLayer::onDisconnect(cocos2d::CCObject*)::$_0>, void (FLAlertLayer*, bool)>::target(std::type_info const&) const
FUNC 119220 c 0 std::__ndk1::__function::__func<LobbyLayer::onDisconnect(cocos2d::CCObject*)::$_0, std::__ndk1::allocator<LobbyLayer::onDisconnect(cocos2d::CCObject*)::$_0>, void (FLAlertLayer*, bool)>::target_type() const
FUNC 11922c 4 0 std::__ndk1::__function::__base<void (FLAlertLayer*, bool)>::~__base()
FUNC 119230 4 0 std::__ndk1::__function::__func<LobbyLayer::keyBackClicked()::$_0, std::__ndk1::allocator<LobbyLayer::keyBackClicked()::$_0>, void (FLAlertLayer*, bool)>::~__func()
FUNC 119234 34 0 std::__ndk1::__function::__func<LobbyLayer::keyBackClicked()::$_0, std::__ndk1::allocator<LobbyLayer::keyBackClicked()::$_0>, void (FLAlertLayer*, bool)>::__clone() const
FUNC 119268 14 0 std::__ndk1::__function::__func<LobbyLayer::keyBackClicked()::$_0, std::__ndk1::allocator<LobbyLayer::keyBackClicked()::$_0>, void (FLAlertLayer*, bool)>::__clone(std::__ndk1::__function::__base<void (FLAlertLayer*, bool)>*) const
FUNC 11927c 4 0 std::__ndk1::__function::__func<LobbyLayer::keyBackClicked()::$_0, std::__ndk1::allocator<LobbyLayer::keyBackClicked()::$_0>, void (FLAlertLayer*, bool)>::destroy()
FUNC 119280 4 0 std::__ndk1::__function::__func<LobbyLayer::keyBackClicked()::$_0, std::__ndk1::allocator<LobbyLayer::keyBackClicked()::$_0>, void (FLAlertLayer*, bool)>::destroy_deallocate()
FUNC 119284 28 0 std::__ndk1::__function::__func<LobbyLayer::keyBackClicked()::$_0, std::__ndk1::allocator<LobbyLayer::keyBackClicked()::$_0>, void (FLAlertLayer*, bool)>::operator()(FLAlertLayer*&&, bool&&)
FUNC 1192ac 1c 0 std::__ndk1::__function::__func<LobbyLayer::keyBackClicked()::$_0, std::__ndk1::allocator<LobbyLayer::keyBackClicked()::$_0>, void (FLAlertLayer*, bool)>::target(std::type_info const&) const
FUNC 1192c8 c 0 std::__ndk1::__function::__func<LobbyLayer::keyBackClicked()::$_0, std::__ndk1::allocator<LobbyLayer::keyBackClicked()::$_0>, void (FLAlertLayer*, bool)>::target_type() const
FUNC 1192d4 60 0 _GLOBAL__sub_I_Lobby.cpp
FUNC 119334 150 0 LobbyJoinPopup::create()
FUNC 119484 30c 0 LobbyJoinPopup::setup()
FUNC 119790 74 0 LobbyJoinPopup::~LobbyJoinPopup()
FUNC 119804 6c 0 {virtual override thunk({offset(-320)}, LobbyJoinPopup::~LobbyJoinPopup())}
FUNC 119870 74 0 {virtual override thunk({offset(-320)}, LobbyJoinPopup::~LobbyJoinPopup())}
FUNC 1198e4 4 0 std::__ndk1::__function::__func<LobbyJoinPopup::setup()::$_0, std::__ndk1::allocator<LobbyJoinPopup::setup()::$_0>, void (CCMenuItemSpriteExtra*)>::~__func()
FUNC 1198e8 38 0 std::__ndk1::__function::__func<LobbyJoinPopup::setup()::$_0, std::__ndk1::allocator<LobbyJoinPopup::setup()::$_0>, void (CCMenuItemSpriteExtra*)>::__clone() const
FUNC 119920 18 0 std::__ndk1::__function::__func<LobbyJoinPopup::setup()::$_0, std::__ndk1::allocator<LobbyJoinPopup::setup()::$_0>, void (CCMenuItemSpriteExtra*)>::__clone(std::__ndk1::__function::__base<void (CCMenuItemSpriteExtra*)>*) const
FUNC 119938 4 0 std::__ndk1::__function::__func<LobbyJoinPopup::setup()::$_0, std::__ndk1::allocator<LobbyJoinPopup::setup()::$_0>, void (CCMenuItemSpriteExtra*)>::destroy()
FUNC 11993c 4 0 std::__ndk1::__function::__func<LobbyJoinPopup::setup()::$_0, std::__ndk1::allocator<LobbyJoinPopup::setup()::$_0>, void (CCMenuItemSpriteExtra*)>::destroy_deallocate()
FUNC 119940 2a4 0 std::__ndk1::__function::__func<LobbyJoinPopup::setup()::$_0, std::__ndk1::allocator<LobbyJoinPopup::setup()::$_0>, void (CCMenuItemSpriteExtra*)>::operator()(CCMenuItemSpriteExtra*&&)
FUNC 119be4 1c 0 std::__ndk1::__function::__func<LobbyJoinPopup::setup()::$_0, std::__ndk1::allocator<LobbyJoinPopup::setup()::$_0>, void (CCMenuItemSpriteExtra*)>::target(std::type_info const&) const
FUNC 119c00 c 0 std::__ndk1::__function::__func<LobbyJoinPopup::setup()::$_0, std::__ndk1::allocator<LobbyJoinPopup::setup()::$_0>, void (CCMenuItemSpriteExtra*)>::target_type() const
FUNC 119c0c 20 0 std::__ndk1::__function::__func<LobbyJoinPopup::setup()::$_0::operator()(cocos2d::CCObject*) const::{lambda()#1}, std::__ndk1::allocator<LobbyJoinPopup::setup()::$_0::operator()(cocos2d::CCObject*) const::{lambda()#1}>, void ()>::~__func()
FUNC 119c2c 40 0 std::__ndk1::__function::__func<LobbyJoinPopup::setup()::$_0::operator()(cocos2d::CCObject*) const::{lambda()#1}, std::__ndk1::allocator<LobbyJoinPopup::setup()::$_0::operator()(cocos2d::CCObject*) const::{lambda()#1}>, void ()>::~__func()
FUNC 119c6c 74 0 std::__ndk1::__function::__func<LobbyJoinPopup::setup()::$_0::operator()(cocos2d::CCObject*) const::{lambda()#1}, std::__ndk1::allocator<LobbyJoinPopup::setup()::$_0::operator()(cocos2d::CCObject*) const::{lambda()#1}>, void ()>::__clone() const
FUNC 119ce0 3c 0 std::__ndk1::__function::__func<LobbyJoinPopup::setup()::$_0::operator()(cocos2d::CCObject*) const::{lambda()#1}, std::__ndk1::allocator<LobbyJoinPopup::setup()::$_0::operator()(cocos2d::CCObject*) const::{lambda()#1}>, void ()>::__clone(std::__ndk1::__function::__base<void ()>*) const
FUNC 119d1c 14 0 std::__ndk1::__function::__func<LobbyJoinPopup::setup()::$_0::operator()(cocos2d::CCObject*) const::{lambda()#1}, std::__ndk1::allocator<LobbyJoinPopup::setup()::$_0::operator()(cocos2d::CCObject*) const::{lambda()#1}>, void ()>::destroy()
FUNC 119d30 34 0 std::__ndk1::__function::__func<LobbyJoinPopup::setup()::$_0::operator()(cocos2d::CCObject*) const::{lambda()#1}, std::__ndk1::allocator<LobbyJoinPopup::setup()::$_0::operator()(cocos2d::CCObject*) const::{lambda()#1}>, void ()>::destroy_deallocate()
FUNC 119d64 f8 0 std::__ndk1::__function::__func<LobbyJoinPopup::setup()::$_0::operator()(cocos2d::CCObject*) const::{lambda()#1}, std::__ndk1::allocator<LobbyJoinPopup::setup()::$_0::operator()(cocos2d::CCObject*) const::{lambda()#1}>, void ()>::operator()()
FUNC 119e5c 1c 0 std::__ndk1::__function::__func<LobbyJoinPopup::setup()::$_0::operator()(cocos2d::CCObject*) const::{lambda()#1}, std::__ndk1::allocator<LobbyJoinPopup::setup()::$_0::operator()(cocos2d::CCObject*) const::{lambda()#1}>, void ()>::target(std::type_info const&) const
FUNC 119e78 c 0 std::__ndk1::__function::__func<LobbyJoinPopup::setup()::$_0::operator()(cocos2d::CCObject*) const::{lambda()#1}, std::__ndk1::allocator<LobbyJoinPopup::setup()::$_0::operator()(cocos2d::CCObject*) const::{lambda()#1}>, void ()>::target_type() const
FUNC 119e84 60 0 _GLOBAL__sub_I_LobbyJoinPopup.cpp
FUNC 119ee4 158 0 LobbySelectPopup::create()
FUNC 11a03c f04 0 LobbySelectPopup::setup()
FUNC 11af40 74 0 LobbySelectPopup::~LobbySelectPopup()
FUNC 11afb4 6c 0 {virtual override thunk({offset(-320)}, LobbySelectPopup::~LobbySelectPopup())}
FUNC 11b020 74 0 {virtual override thunk({offset(-320)}, LobbySelectPopup::~LobbySelectPopup())}
FUNC 11b094 4 0 std::__ndk1::__function::__func<LobbySelectPopup::setup()::$_0, std::__ndk1::allocator<LobbySelectPopup::setup()::$_0>, void (CCMenuItemSpriteExtra*)>::~__func()
FUNC 11b098 34 0 std::__ndk1::__function::__func<LobbySelectPopup::setup()::$_0, std::__ndk1::allocator<LobbySelectPopup::setup()::$_0>, void (CCMenuItemSpriteExtra*)>::__clone() const
FUNC 11b0cc 14 0 std::__ndk1::__function::__func<LobbySelectPopup::setup()::$_0, std::__ndk1::allocator<LobbySelectPopup::setup()::$_0>, void (CCMenuItemSpriteExtra*)>::__clone(std::__ndk1::__function::__base<void (CCMenuItemSpriteExtra*)>*) const
FUNC 11b0e0 4 0 std::__ndk1::__function::__func<LobbySelectPopup::setup()::$_0, std::__ndk1::allocator<LobbySelectPopup::setup()::$_0>, void (CCMenuItemSpriteExtra*)>::destroy()
FUNC 11b0e4 4 0 std::__ndk1::__function::__func<LobbySelectPopup::setup()::$_0, std::__ndk1::allocator<LobbySelectPopup::setup()::$_0>, void (CCMenuItemSpriteExtra*)>::destroy_deallocate()
FUNC 11b0e8 30 0 std::__ndk1::__function::__func<LobbySelectPopup::setup()::$_0, std::__ndk1::allocator<LobbySelectPopup::setup()::$_0>, void (CCMenuItemSpriteExtra*)>::operator()(CCMenuItemSpriteExtra*&&)
FUNC 11b118 1c 0 std::__ndk1::__function::__func<LobbySelectPopup::setup()::$_0, std::__ndk1::allocator<LobbySelectPopup::setup()::$_0>, void (CCMenuItemSpriteExtra*)>::target(std::type_info const&) const
FUNC 11b134 c 0 std::__ndk1::__function::__func<LobbySelectPopup::setup()::$_0, std::__ndk1::allocator<LobbySelectPopup::setup()::$_0>, void (CCMenuItemSpriteExtra*)>::target_type() const
FUNC 11b140 4 0 std::__ndk1::__function::__func<LobbySelectPopup::setup()::$_1, std::__ndk1::allocator<LobbySelectPopup::setup()::$_1>, void (CCMenuItemSpriteExtra*)>::~__func()
FUNC 11b144 34 0 std::__ndk1::__function::__func<LobbySelectPopup::setup()::$_1, std::__ndk1::allocator<LobbySelectPopup::setup()::$_1>, void (CCMenuItemSpriteExtra*)>::__clone() const
FUNC 11b178 14 0 std::__ndk1::__function::__func<LobbySelectPopup::setup()::$_1, std::__ndk1::allocator<LobbySelectPopup::setup()::$_1>, void (CCMenuItemSpriteExtra*)>::__clone(std::__ndk1::__function::__base<void (CCMenuItemSpriteExtra*)>*) const
FUNC 11b18c 4 0 std::__ndk1::__function::__func<LobbySelectPopup::setup()::$_1, std::__ndk1::allocator<LobbySelectPopup::setup()::$_1>, void (CCMenuItemSpriteExtra*)>::destroy()
FUNC 11b190 4 0 std::__ndk1::__function::__func<LobbySelectPopup::setup()::$_1, std::__ndk1::allocator<LobbySelectPopup::setup()::$_1>, void (CCMenuItemSpriteExtra*)>::destroy_deallocate()
FUNC 11b194 214 0 std::__ndk1::__function::__func<LobbySelectPopup::setup()::$_1, std::__ndk1::allocator<LobbySelectPopup::setup()::$_1>, void (CCMenuItemSpriteExtra*)>::operator()(CCMenuItemSpriteExtra*&&)
FUNC 11b3a8 1c 0 std::__ndk1::__function::__func<LobbySelectPopup::setup()::$_1, std::__ndk1::allocator<LobbySelectPopup::setup()::$_1>, void (CCMenuItemSpriteExtra*)>::target(std::type_info const&) const
FUNC 11b3c4 c 0 std::__ndk1::__function::__func<LobbySelectPopup::setup()::$_1, std::__ndk1::allocator<LobbySelectPopup::setup()::$_1>, void (CCMenuItemSpriteExtra*)>::target_type() const
FUNC 11b3d0 4 0 std::__ndk1::__function::__func<LobbySelectPopup::setup()::$_1::operator()(cocos2d::CCObject*) const::{lambda(LobbySettings)#1}, std::__ndk1::allocator<LobbySelectPopup::setup()::$_1::operator()(cocos2d::CCObject*) const::{lambda(LobbySettings)#1}>, void (LobbySettings)>::~__func()
FUNC 11b3d4 34 0 std::__ndk1::__function::__func<LobbySelectPopup::setup()::$_1::operator()(cocos2d::CCObject*) const::{lambda(LobbySettings)#1}, std::__ndk1::allocator<LobbySelectPopup::setup()::$_1::operator()(cocos2d::CCObject*) const::{lambda(LobbySettings)#1}>, void (LobbySettings)>::__clone() const
FUNC 11b408 14 0 std::__ndk1::__function::__func<LobbySelectPopup::setup()::$_1::operator()(cocos2d::CCObject*) const::{lambda(LobbySettings)#1}, std::__ndk1::allocator<LobbySelectPopup::setup()::$_1::operator()(cocos2d::CCObject*) const::{lambda(LobbySettings)#1}>, void (LobbySettings)>::__clone(std::__ndk1::__function::__base<void (LobbySettings)>*) const
FUNC 11b41c 4 0 std::__ndk1::__function::__func<LobbySelectPopup::setup()::$_1::operator()(cocos2d::CCObject*) const::{lambda(LobbySettings)#1}, std::__ndk1::allocator<LobbySelectPopup::setup()::$_1::operator()(cocos2d::CCObject*) const::{lambda(LobbySettings)#1}>, void (LobbySettings)>::destroy()
FUNC 11b420 4 0 std::__ndk1::__function::__func<LobbySelectPopup::setup()::$_1::operator()(cocos2d::CCObject*) const::{lambda(LobbySettings)#1}, std::__ndk1::allocator<LobbySelectPopup::setup()::$_1::operator()(cocos2d::CCObject*) const::{lambda(LobbySettings)#1}>, void (LobbySettings)>::destroy_deallocate()
FUNC 11b424 298 0 std::__ndk1::__function::__func<LobbySelectPopup::setup()::$_1::operator()(cocos2d::CCObject*) const::{lambda(LobbySettings)#1}, std::__ndk1::allocator<LobbySelectPopup::setup()::$_1::operator()(cocos2d::CCObject*) const::{lambda(LobbySettings)#1}>, void (LobbySettings)>::operator()(LobbySettings&&)
FUNC 11b6bc 1c 0 std::__ndk1::__function::__func<LobbySelectPopup::setup()::$_1::operator()(cocos2d::CCObject*) const::{lambda(LobbySettings)#1}, std::__ndk1::allocator<LobbySelectPopup::setup()::$_1::operator()(cocos2d::CCObject*) const::{lambda(LobbySettings)#1}>, void (LobbySettings)>::target(std::type_info const&) const
FUNC 11b6d8 c 0 std::__ndk1::__function::__func<LobbySelectPopup::setup()::$_1::operator()(cocos2d::CCObject*) const::{lambda(LobbySettings)#1}, std::__ndk1::allocator<LobbySelectPopup::setup()::$_1::operator()(cocos2d::CCObject*) const::{lambda(LobbySettings)#1}>, void (LobbySettings)>::target_type() const
FUNC 11b6e4 4 0 std::__ndk1::__function::__func<LobbySelectPopup::setup()::$_1::operator()(cocos2d::CCObject*) const::{lambda(LobbySettings)#1}::operator()(LobbySettings) const::{lambda(std::__ndk1::basic_string<char, std::__ndk1::char_traits<char>, std::__ndk1::allocator<char> >)#1}, std::__ndk1::allocator<LobbySelectPopup::setup()::$_1::operator()(cocos2d::CCObject*) const::{lambda(LobbySettings)#1}::operator()(LobbySettings) const::{lambda(std::__ndk1::basic_string<char, std::__ndk1::char_traits<char>, std::__ndk1::allocator<char> >)#1}>, void (std::__ndk1::basic_string<char, std::__ndk1::char_traits<char>, std::__ndk1::allocator<char> >)>::~__func()
FUNC 11b6e8 24 0 std::__ndk1::__function::__func<LobbySelectPopup::setup()::$_1::operator()(cocos2d::CCObject*) const::{lambda(LobbySettings)#1}::operator()(LobbySettings) const::{lambda(std::__ndk1::basic_string<char, std::__ndk1::char_traits<char>, std::__ndk1::allocator<char> >)#1}, std::__ndk1::allocator<LobbySelectPopup::setup()::$_1::operator()(cocos2d::CCObject*) const::{lambda(LobbySettings)#1}::operator()(LobbySettings) const::{lambda(std::__ndk1::basic_string<char, std::__ndk1::char_traits<char>, std::__ndk1::allocator<char> >)#1}>, void (std::__ndk1::basic_string<char, std::__ndk1::char_traits<char>, std::__ndk1::allocator<char> >)>::__clone() const
FUNC 11b70c 10 0 std::__ndk1::__function::__func<LobbySelectPopup::setup()::$_1::operator()(cocos2d::CCObject*) const::{lambda(LobbySettings)#1}::operator()(LobbySettings) const::{lambda(std::__ndk1::basic_string<char, std::__ndk1::char_traits<char>, std::__ndk1::allocator<char> >)#1}, std::__ndk1::allocator<LobbySelectPopup::setup()::$_1::operator()(cocos2d::CCObject*) const::{lambda(LobbySettings)#1}::operator()(LobbySettings) const::{lambda(std::__ndk1::basic_string<char, std::__ndk1::char_traits<char>, std::__ndk1::allocator<char> >)#1}>, void (std::__ndk1::basic_string<char, std::__ndk1::char_traits<char>, std::__ndk1::allocator<char> >)>::__clone(std::__ndk1::__function::__base<void (std::__ndk1::basic_string<char, std::__ndk1::char_traits<char>, std::__ndk1::allocator<char> >)>*) const
FUNC 11b71c 4 0 std::__ndk1::__function::__func<LobbySelectPopup::setup()::$_1::operator()(cocos2d::CCObject*) const::{lambda(LobbySettings)#1}::operator()(LobbySettings) const::{lambda(std::__ndk1::basic_string<char, std::__ndk1::char_traits<char>, std::__ndk1::allocator<char> >)#1}, std::__ndk1::allocator<LobbySelectPopup::setup()::$_1::operator()(cocos2d::CCObject*) const::{lambda(LobbySettings)#1}::operator()(LobbySettings) const::{lambda(std::__ndk1::basic_string<char, std::__ndk1::char_traits<char>, std::__ndk1::allocator<char> >)#1}>, void (std::__ndk1::basic_string<char, std::__ndk1::char_traits<char>, std::__ndk1::allocator<char> >)>::destroy()
FUNC 11b720 4 0 std::__ndk1::__function::__func<LobbySelectPopup::setup()::$_1::operator()(cocos2d::CCObject*) const::{lambda(LobbySettings)#1}::operator()(LobbySettings) const::{lambda(std::__ndk1::basic_string<char, std::__ndk1::char_traits<char>, std::__ndk1::allocator<char> >)#1}, std::__ndk1::allocator<LobbySelectPopup::setup()::$_1::operator()(cocos2d::CCObject*) const::{lambda(LobbySettings)#1}::operator()(LobbySettings) const::{lambda(std::__ndk1::basic_string<char, std::__ndk1::char_traits<char>, std::__ndk1::allocator<char> >)#1}>, void (std::__ndk1::basic_string<char, std::__ndk1::char_traits<char>, std::__ndk1::allocator<char> >)>::destroy_deallocate()
FUNC 11b724 148 0 std::__ndk1::__function::__func<LobbySelectPopup::setup()::$_1::operator()(cocos2d::CCObject*) const::{lambda(LobbySettings)#1}::operator()(LobbySettings) const::{lambda(std::__ndk1::basic_string<char, std::__ndk1::char_traits<char>, std::__ndk1::allocator<char> >)#1}, std::__ndk1::allocator<LobbySelectPopup::setup()::$_1::operator()(cocos2d::CCObject*) const::{lambda(LobbySettings)#1}::operator()(LobbySettings) const::{lambda(std::__ndk1::basic_string<char, std::__ndk1::char_traits<char>, std::__ndk1::allocator<char> >)#1}>, void (std::__ndk1::basic_string<char, std::__ndk1::char_traits<char>, std::__ndk1::allocator<char> >)>::operator()(std::__ndk1::basic_string<char, std::__ndk1::char_traits<char>, std::__ndk1::allocator<char> >&&)
FUNC 11b86c 1c 0 std::__ndk1::__function::__func<LobbySelectPopup::setup()::$_1::operator()(cocos2d::CCObject*) const::{lambda(LobbySettings)#1}::operator()(LobbySettings) const::{lambda(std::__ndk1::basic_string<char, std::__ndk1::char_traits<char>, std::__ndk1::allocator<char> >)#1}, std::__ndk1::allocator<LobbySelectPopup::setup()::$_1::operator()(cocos2d::CCObject*) const::{lambda(LobbySettings)#1}::operator()(LobbySettings) const::{lambda(std::__ndk1::basic_string<char, std::__ndk1::char_traits<char>, std::__ndk1::allocator<char> >)#1}>, void (std::__ndk1::basic_string<char, std::__ndk1::char_traits<char>, std::__ndk1::allocator<char> >)>::target(std::type_info const&) const
FUNC 11b888 c 0 std::__ndk1::__function::__func<LobbySelectPopup::setup()::$_1::operator()(cocos2d::CCObject*) const::{lambda(LobbySettings)#1}::operator()(LobbySettings) const::{lambda(std::__ndk1::basic_string<char, std::__ndk1::char_traits<char>, std::__ndk1::allocator<char> >)#1}, std::__ndk1::allocator<LobbySelectPopup::setup()::$_1::operator()(cocos2d::CCObject*) const::{lambda(LobbySettings)#1}::operator()(LobbySettings) const::{lambda(std::__ndk1::basic_string<char, std::__ndk1::char_traits<char>, std::__ndk1::allocator<char> >)#1}>, void (std::__ndk1::basic_string<char, std::__ndk1::char_traits<char>, std::__ndk1::allocator<char> >)>::target_type() const
FUNC 11b894 4 0 std::__ndk1::__function::__func<LobbySelectPopup::setup()::$_2, std::__ndk1::allocator<LobbySelectPopup::setup()::$_2>, void (std::__ndk1::basic_string<char, std::__ndk1::char_traits<char>, std::__ndk1::allocator<char> >)>::~__func()
FUNC 11b898 34 0 std::__ndk1::__function::__func<LobbySelectPopup::setup()::$_2, std::__ndk1::allocator<LobbySelectPopup::setup()::$_2>, void (std::__ndk1::basic_string<char, std::__ndk1::char_traits<char>, std::__ndk1::allocator<char> >)>::__clone() const
FUNC 11b8cc 14 0 std::__ndk1::__function::__func<LobbySelectPopup::setup()::$_2, std::__ndk1::allocator<LobbySelectPopup::setup()::$_2>, void (std::__ndk1::basic_string<char, std::__ndk1::char_traits<char>, std::__ndk1::allocator<char> >)>::__clone(std::__ndk1::__function::__base<void (std::__ndk1::basic_string<char, std::__ndk1::char_traits<char>, std::__ndk1::allocator<char> >)>*) const
FUNC 11b8e0 4 0 std::__ndk1::__function::__func<LobbySelectPopup::setup()::$_2, std::__ndk1::allocator<LobbySelectPopup::setup()::$_2>, void (std::__ndk1::basic_string<char, std::__ndk1::char_traits<char>, std::__ndk1::allocator<char> >)>::destroy()
FUNC 11b8e4 4 0 std::__ndk1::__function::__func<LobbySelectPopup::setup()::$_2, std::__ndk1::allocator<LobbySelectPopup::setup()::$_2>, void (std::__ndk1::basic_string<char, std::__ndk1::char_traits<char>, std::__ndk1::allocator<char> >)>::destroy_deallocate()
FUNC 11b8e8 1c 0 std::__ndk1::__function::__func<LobbySelectPopup::setup()::$_2, std::__ndk1::allocator<LobbySelectPopup::setup()::$_2>, void (std::__ndk1::basic_string<char, std::__ndk1::char_traits<char>, std::__ndk1::allocator<char> >)>::operator()(std::__ndk1::basic_string<char, std::__ndk1::char_traits<char>, std::__ndk1::allocator<char> >&&)
FUNC 11b904 1c 0 std::__ndk1::__function::__func<LobbySelectPopup::setup()::$_2, std::__ndk1::allocator<LobbySelectPopup::setup()::$_2>, void (std::__ndk1::basic_string<char, std::__ndk1::char_traits<char>, std::__ndk1::allocator<char> >)>::target(std::type_info const&) const
FUNC 11b920 c 0 std::__ndk1::__function::__func<LobbySelectPopup::setup()::$_2, std::__ndk1::allocator<LobbySelectPopup::setup()::$_2>, void (std::__ndk1::basic_string<char, std::__ndk1::char_traits<char>, std::__ndk1::allocator<char> >)>::target_type() const
FUNC 11b92c 4 0 GetPublicLobbiesPacket::decode(std::__ndk1::basic_string<char, std::__ndk1::char_traits<char>, std::__ndk1::allocator<char> >)
FUNC 11b930 8 0 GetPublicLobbiesPacket::getPacketID() const
FUNC 11b938 c 0 GetPublicLobbiesPacket::getPacketName() const
FUNC 11b944 44 0 std::__ndk1::__function::__func<NetworkManager::send<GetPublicLobbiesPacket>(GetPublicLobbiesPacket*, std::__ndk1::function<void ()>)::{lambda(int, int)#1}, std::__ndk1::allocator<NetworkManager::send<GetPublicLobbiesPacket>(GetPublicLobbiesPacket*, std::__ndk1::function<void ()>)::{lambda(int, int)#1}>, bool (int, int)>::~__func()
FUNC 11b988 5c 0 std::__ndk1::__function::__func<NetworkManager::send<GetPublicLobbiesPacket>(GetPublicLobbiesPacket*, std::__ndk1::function<void ()>)::{lambda(int, int)#1}, std::__ndk1::allocator<NetworkManager::send<GetPublicLobbiesPacket>(GetPublicLobbiesPacket*, std::__ndk1::function<void ()>)::{lambda(int, int)#1}>, bool (int, int)>::~__func()
FUNC 11b9e4 88 0 std::__ndk1::__function::__func<NetworkManager::send<GetPublicLobbiesPacket>(GetPublicLobbiesPacket*, std::__ndk1::function<void ()>)::{lambda(int, int)#1}, std::__ndk1::allocator<NetworkManager::send<GetPublicLobbiesPacket>(GetPublicLobbiesPacket*, std::__ndk1::function<void ()>)::{lambda(int, int)#1}>, bool (int, int)>::__clone() const
FUNC 11ba6c 74 0 std::__ndk1::__function::__func<NetworkManager::send<GetPublicLobbiesPacket>(GetPublicLobbiesPacket*, std::__ndk1::function<void ()>)::{lambda(int, int)#1}, std::__ndk1::allocator<NetworkManager::send<GetPublicLobbiesPacket>(GetPublicLobbiesPacket*, std::__ndk1::function<void ()>)::{lambda(int, int)#1}>, bool (int, int)>::__clone(std::__ndk1::__function::__base<bool (int, int)>*) const
FUNC 11bae0 38 0 std::__ndk1::__function::__func<NetworkManager::send<GetPublicLobbiesPacket>(GetPublicLobbiesPacket*, std::__ndk1::function<void ()>)::{lambda(int, int)#1}, std::__ndk1::allocator<NetworkManager::send<GetPublicLobbiesPacket>(GetPublicLobbiesPacket*, std::__ndk1::function<void ()>)::{lambda(int, int)#1}>, bool (int, int)>::destroy()
FUNC 11bb18 50 0 std::__ndk1::__function::__func<NetworkManager::send<GetPublicLobbiesPacket>(GetPublicLobbiesPacket*, std::__ndk1::function<void ()>)::{lambda(int, int)#1}, std::__ndk1::allocator<NetworkManager::send<GetPublicLobbiesPacket>(GetPublicLobbiesPacket*, std::__ndk1::function<void ()>)::{lambda(int, int)#1}>, bool (int, int)>::destroy_deallocate()
FUNC 11bb68 21c 0 std::__ndk1::__function::__func<NetworkManager::send<GetPublicLobbiesPacket>(GetPublicLobbiesPacket*, std::__ndk1::function<void ()>)::{lambda(int, int)#1}, std::__ndk1::allocator<NetworkManager::send<GetPublicLobbiesPacket>(GetPublicLobbiesPacket*, std::__ndk1::function<void ()>)::{lambda(int, int)#1}>, bool (int, int)>::operator()(int&&, int&&)
FUNC 11bd84 1c 0 std::__ndk1::__function::__func<NetworkManager::send<GetPublicLobbiesPacket>(GetPublicLobbiesPacket*, std::__ndk1::function<void ()>)::{lambda(int, int)#1}, std::__ndk1::allocator<NetworkManager::send<GetPublicLobbiesPacket>(GetPublicLobbiesPacket*, std::__ndk1::function<void ()>)::{lambda(int, int)#1}>, bool (int, int)>::target(std::type_info const&) const
FUNC 11bda0 c 0 std::__ndk1::__function::__func<NetworkManager::send<GetPublicLobbiesPacket>(GetPublicLobbiesPacket*, std::__ndk1::function<void ()>)::{lambda(int, int)#1}, std::__ndk1::allocator<NetworkManager::send<GetPublicLobbiesPacket>(GetPublicLobbiesPacket*, std::__ndk1::function<void ()>)::{lambda(int, int)#1}>, bool (int, int)>::target_type() const
FUNC 11bdac 44 0 std::__ndk1::__function::__func<NetworkManager::send<GetPublicLobbiesPacket>(GetPublicLobbiesPacket*, std::__ndk1::function<void ()>)::{lambda(int, int)#1}::operator()(int, int) const::{lambda()#1}, std::__ndk1::allocator<NetworkManager::send<GetPublicLobbiesPacket>(GetPublicLobbiesPacket*, std::__ndk1::function<void ()>)::{lambda(int, int)#1}::operator()(int, int) const::{lambda()#1}>, void ()>::~__func()
FUNC 11bdf0 5c 0 std::__ndk1::__function::__func<NetworkManager::send<GetPublicLobbiesPacket>(GetPublicLobbiesPacket*, std::__ndk1::function<void ()>)::{lambda(int, int)#1}::operator()(int, int) const::{lambda()#1}, std::__ndk1::allocator<NetworkManager::send<GetPublicLobbiesPacket>(GetPublicLobbiesPacket*, std::__ndk1::function<void ()>)::{lambda(int, int)#1}::operator()(int, int) const::{lambda()#1}>, void ()>::~__func()
FUNC 11be4c 88 0 std::__ndk1::__function::__func<NetworkManager::send<GetPublicLobbiesPacket>(GetPublicLobbiesPacket*, std::__ndk1::function<void ()>)::{lambda(int, int)#1}::operator()(int, int) const::{lambda()#1}, std::__ndk1::allocator<NetworkManager::send<GetPublicLobbiesPacket>(GetPublicLobbiesPacket*, std::__ndk1::function<void ()>)::{lambda(int, int)#1}::operator()(int, int) const::{lambda()#1}>, void ()>::__clone() const
FUNC 11bed4 74 0 std::__ndk1::__function::__func<NetworkManager::send<GetPublicLobbiesPacket>(GetPublicLobbiesPacket*, std::__ndk1::function<void ()>)::{lambda(int, int)#1}::operator()(int, int) const::{lambda()#1}, std::__ndk1::allocator<NetworkManager::send<GetPublicLobbiesPacket>(GetPublicLobbiesPacket*, std::__ndk1::function<void ()>)::{lambda(int, int)#1}::operator()(int, int) const::{lambda()#1}>, void ()>::__clone(std::__ndk1::__function::__base<void ()>*) const
FUNC 11bf48 38 0 std::__ndk1::__function::__func<NetworkManager::send<GetPublicLobbiesPacket>(GetPublicLobbiesPacket*, std::__ndk1::function<void ()>)::{lambda(int, int)#1}::operator()(int, int) const::{lambda()#1}, std::__ndk1::allocator<NetworkManager::send<GetPublicLobbiesPacket>(GetPublicLobbiesPacket*, std::__ndk1::function<void ()>)::{lambda(int, int)#1}::operator()(int, int) const::{lambda()#1}>, void ()>::destroy()
FUNC 11bf80 50 0 std::__ndk1::__function::__func<NetworkManager::send<GetPublicLobbiesPacket>(GetPublicLobbiesPacket*, std::__ndk1::function<void ()>)::{lambda(int, int)#1}::operator()(int, int) const::{lambda()#1}, std::__ndk1::allocator<NetworkManager::send<GetPublicLobbiesPacket>(GetPublicLobbiesPacket*, std::__ndk1::function<void ()>)::{lambda(int, int)#1}::operator()(int, int) const::{lambda()#1}>, void ()>::destroy_deallocate()
FUNC 11bfd0 20 0 std::__ndk1::__function::__func<NetworkManager::send<GetPublicLobbiesPacket>(GetPublicLobbiesPacket*, std::__ndk1::function<void ()>)::{lambda(int, int)#1}::operator()(int, int) const::{lambda()#1}, std::__ndk1::allocator<NetworkManager::send<GetPublicLobbiesPacket>(GetPublicLobbiesPacket*, std::__ndk1::function<void ()>)::{lambda(int, int)#1}::operator()(int, int) const::{lambda()#1}>, void ()>::operator()()
FUNC 11bff0 1c 0 std::__ndk1::__function::__func<NetworkManager::send<GetPublicLobbiesPacket>(GetPublicLobbiesPacket*, std::__ndk1::function<void ()>)::{lambda(int, int)#1}::operator()(int, int) const::{lambda()#1}, std::__ndk1::allocator<NetworkManager::send<GetPublicLobbiesPacket>(GetPublicLobbiesPacket*, std::__ndk1::function<void ()>)::{lambda(int, int)#1}::operator()(int, int) const::{lambda()#1}>, void ()>::target(std::type_info const&) const
FUNC 11c00c c 0 std::__ndk1::__function::__func<NetworkManager::send<GetPublicLobbiesPacket>(GetPublicLobbiesPacket*, std::__ndk1::function<void ()>)::{lambda(int, int)#1}::operator()(int, int) const::{lambda()#1}, std::__ndk1::allocator<NetworkManager::send<GetPublicLobbiesPacket>(GetPublicLobbiesPacket*, std::__ndk1::function<void ()>)::{lambda(int, int)#1}::operator()(int, int) const::{lambda()#1}>, void ()>::target_type() const
FUNC 11c018 44 0 _ZNSt6__ndk110__function6__funcIZN14NetworkManager2onI26ReceivePublicLobbiesPacketQsr3stdE12is_base_of_vI6PacketT_EEEvNS_8functionIFvPS6_EEEbEUlNS_12basic_stringIcNS_11char_traitsIcEENS_9allocatorIcEEEEE_NSE_ISH_EEFvSG_EED2Ev
FUNC 11c05c 5c 0 _ZNSt6__ndk110__function6__funcIZN14NetworkManager2onI26ReceivePublicLobbiesPacketQsr3stdE12is_base_of_vI6PacketT_EEEvNS_8functionIFvPS6_EEEbEUlNS_12basic_stringIcNS_11char_traitsIcEENS_9allocatorIcEEEEE_NSE_ISH_EEFvSG_EED0Ev
FUNC 11c0b8 88 0 _ZNKSt6__ndk110__function6__funcIZN14NetworkManager2onI26ReceivePublicLobbiesPacketQsr3stdE12is_base_of_vI6PacketT_EEEvNS_8functionIFvPS6_EEEbEUlNS_12basic_stringIcNS_11char_traitsIcEENS_9allocatorIcEEEEE_NSE_ISH_EEFvSG_EE7__cloneEv
FUNC 11c140 74 0 _ZNKSt6__ndk110__function6__funcIZN14NetworkManager2onI26ReceivePublicLobbiesPacketQsr3stdE12is_base_of_vI6PacketT_EEEvNS_8functionIFvPS6_EEEbEUlNS_12basic_stringIcNS_11char_traitsIcEENS_9allocatorIcEEEEE_NSE_ISH_EEFvSG_EE7__cloneEPNS0_6__baseISJ_EE
FUNC 11c1b4 38 0 _ZNSt6__ndk110__function6__funcIZN14NetworkManager2onI26ReceivePublicLobbiesPacketQsr3stdE12is_base_of_vI6PacketT_EEEvNS_8functionIFvPS6_EEEbEUlNS_12basic_stringIcNS_11char_traitsIcEENS_9allocatorIcEEEEE_NSE_ISH_EEFvSG_EE7destroyEv
FUNC 11c1ec 50 0 _ZNSt6__ndk110__function6__funcIZN14NetworkManager2onI26ReceivePublicLobbiesPacketQsr3stdE12is_base_of_vI6PacketT_EEEvNS_8functionIFvPS6_EEEbEUlNS_12basic_stringIcNS_11char_traitsIcEENS_9allocatorIcEEEEE_NSE_ISH_EEFvSG_EE18destroy_deallocateEv
FUNC 11c23c 4d0 0 _ZNSt6__ndk110__function6__funcIZN14NetworkManager2onI26ReceivePublicLobbiesPacketQsr3stdE12is_base_of_vI6PacketT_EEEvNS_8functionIFvPS6_EEEbEUlNS_12basic_stringIcNS_11char_traitsIcEENS_9allocatorIcEEEEE_NSE_ISH_EEFvSG_EEclEOSG_
FUNC 11c70c 1c 0 _ZNKSt6__ndk110__function6__funcIZN14NetworkManager2onI26ReceivePublicLobbiesPacketQsr3stdE12is_base_of_vI6PacketT_EEEvNS_8functionIFvPS6_EEEbEUlNS_12basic_stringIcNS_11char_traitsIcEENS_9allocatorIcEEEEE_NSE_ISH_EEFvSG_EE6targetERKSt9type_info
FUNC 11c728 c 0 _ZNKSt6__ndk110__function6__funcIZN14NetworkManager2onI26ReceivePublicLobbiesPacketQsr3stdE12is_base_of_vI6PacketT_EEEvNS_8functionIFvPS6_EEEbEUlNS_12basic_stringIcNS_11char_traitsIcEENS_9allocatorIcEEEEE_NSE_ISH_EEFvSG_EE11target_typeEv
FUNC 11c734 4 0 ReceivePublicLobbiesPacket::decode(std::__ndk1::basic_string<char, std::__ndk1::char_traits<char>, std::__ndk1::allocator<char> >)
FUNC 11c738 8 0 ReceivePublicLobbiesPacket::getPacketID() const
FUNC 11c740 c 0 ReceivePublicLobbiesPacket::getPacketName() const
FUNC 11c74c 14 0 std::__ndk1::vector<LobbyInfo, std::__ndk1::allocator<LobbyInfo> >::__throw_length_error[abi:ne180000]() const
FUNC 11c760 44 0 _ZNSt6__ndk110__function6__funcIZZN14NetworkManager2onI26ReceivePublicLobbiesPacketQsr3stdE12is_base_of_vI6PacketT_EEEvNS_8functionIFvPS6_EEEbENKUlNS_12basic_stringIcNS_11char_traitsIcEENS_9allocatorIcEEEEE_clESG_EUlvE_NSE_ISI_EEFvvEED2Ev
FUNC 11c7a4 5c 0 _ZNSt6__ndk110__function6__funcIZZN14NetworkManager2onI26ReceivePublicLobbiesPacketQsr3stdE12is_base_of_vI6PacketT_EEEvNS_8functionIFvPS6_EEEbENKUlNS_12basic_stringIcNS_11char_traitsIcEENS_9allocatorIcEEEEE_clESG_EUlvE_NSE_ISI_EEFvvEED0Ev
FUNC 11c800 90 0 _ZNKSt6__ndk110__function6__funcIZZN14NetworkManager2onI26ReceivePublicLobbiesPacketQsr3stdE12is_base_of_vI6PacketT_EEEvNS_8functionIFvPS6_EEEbENKUlNS_12basic_stringIcNS_11char_traitsIcEENS_9allocatorIcEEEEE_clESG_EUlvE_NSE_ISI_EEFvvEE7__cloneEv
FUNC 11c890 78 0 _ZNKSt6__ndk110__function6__funcIZZN14NetworkManager2onI26ReceivePublicLobbiesPacketQsr3stdE12is_base_of_vI6PacketT_EEEvNS_8functionIFvPS6_EEEbENKUlNS_12basic_stringIcNS_11char_traitsIcEENS_9allocatorIcEEEEE_clESG_EUlvE_NSE_ISI_EEFvvEE7__cloneEPNS0_6__baseISK_EE
FUNC 11c908 38 0 _ZNSt6__ndk110__function6__funcIZZN14NetworkManager2onI26ReceivePublicLobbiesPacketQsr3stdE12is_base_of_vI6PacketT_EEEvNS_8functionIFvPS6_EEEbENKUlNS_12basic_stringIcNS_11char_traitsIcEENS_9allocatorIcEEEEE_clESG_EUlvE_NSE_ISI_EEFvvEE7destroyEv
FUNC 11c940 50 0 _ZNSt6__ndk110__function6__funcIZZN14NetworkManager2onI26ReceivePublicLobbiesPacketQsr3stdE12is_base_of_vI6PacketT_EEEvNS_8functionIFvPS6_EEEbENKUlNS_12basic_stringIcNS_11char_traitsIcEENS_9allocatorIcEEEEE_clESG_EUlvE_NSE_ISI_EEFvvEE18destroy_deallocateEv
FUNC 11c990 74 0 _ZNSt6__ndk110__function6__funcIZZN14NetworkManager2onI26ReceivePublicLobbiesPacketQsr3stdE12is_base_of_vI6PacketT_EEEvNS_8functionIFvPS6_EEEbENKUlNS_12basic_stringIcNS_11char_traitsIcEENS_9allocatorIcEEEEE_clESG_EUlvE_NSE_ISI_EEFvvEEclEv
FUNC 11ca04 1c 0 _ZNKSt6__ndk110__function6__funcIZZN14NetworkManager2onI26ReceivePublicLobbiesPacketQsr3stdE12is_base_of_vI6PacketT_EEEvNS_8functionIFvPS6_EEEbENKUlNS_12basic_stringIcNS_11char_traitsIcEENS_9allocatorIcEEEEE_clESG_EUlvE_NSE_ISI_EEFvvEE6targetERKSt9type_info
FUNC 11ca20 c 0 _ZNKSt6__ndk110__function6__funcIZZN14NetworkManager2onI26ReceivePublicLobbiesPacketQsr3stdE12is_base_of_vI6PacketT_EEEvNS_8functionIFvPS6_EEEbENKUlNS_12basic_stringIcNS_11char_traitsIcEENS_9allocatorIcEEEEE_clESG_EUlvE_NSE_ISI_EEFvvEE11target_typeEv
FUNC 11ca2c 4 0 std::__ndk1::__function::__base<void (ReceivePublicLobbiesPacket*)>::~__base()
FUNC 11ca30 4 0 std::__ndk1::__function::__func<LobbySelectPopup::refresh(bool)::$_0, std::__ndk1::allocator<LobbySelectPopup::refresh(bool)::$_0>, void (ReceivePublicLobbiesPacket*)>::~__func()
FUNC 11ca34 38 0 std::__ndk1::__function::__func<LobbySelectPopup::refresh(bool)::$_0, std::__ndk1::allocator<LobbySelectPopup::refresh(bool)::$_0>, void (ReceivePublicLobbiesPacket*)>::__clone() const
FUNC 11ca6c 18 0 std::__ndk1::__function::__func<LobbySelectPopup::refresh(bool)::$_0, std::__ndk1::allocator<LobbySelectPopup::refresh(bool)::$_0>, void (ReceivePublicLobbiesPacket*)>::__clone(std::__ndk1::__function::__base<void (ReceivePublicLobbiesPacket*)>*) const
FUNC 11ca84 4 0 std::__ndk1::__function::__func<LobbySelectPopup::refresh(bool)::$_0, std::__ndk1::allocator<LobbySelectPopup::refresh(bool)::$_0>, void (ReceivePublicLobbiesPacket*)>::destroy()
FUNC 11ca88 4 0 std::__ndk1::__function::__func<LobbySelectPopup::refresh(bool)::$_0, std::__ndk1::allocator<LobbySelectPopup::refresh(bool)::$_0>, void (ReceivePublicLobbiesPacket*)>::destroy_deallocate()
FUNC 11ca8c b3c 0 std::__ndk1::__function::__func<LobbySelectPopup::refresh(bool)::$_0, std::__ndk1::allocator<LobbySelectPopup::refresh(bool)::$_0>, void (ReceivePublicLobbiesPacket*)>::operator()(ReceivePublicLobbiesPacket*&&)
FUNC 11d5c8 1c 0 std::__ndk1::__function::__func<LobbySelectPopup::refresh(bool)::$_0, std::__ndk1::allocator<LobbySelectPopup::refresh(bool)::$_0>, void (ReceivePublicLobbiesPacket*)>::target(std::type_info const&) const
FUNC 11d5e4 c 0 std::__ndk1::__function::__func<LobbySelectPopup::refresh(bool)::$_0, std::__ndk1::allocator<LobbySelectPopup::refresh(bool)::$_0>, void (ReceivePublicLobbiesPacket*)>::target_type() const
FUNC 11d5f0 24 0 LobbyItem::~LobbyItem()
FUNC 11d614 8 0 {virtual override thunk({offset(-320)}, LobbyItem::~LobbyItem())}
FUNC 11d61c 28 0 {virtual override thunk({offset(-320)}, LobbyItem::~LobbyItem())}
FUNC 11d644 ec 0 LobbyItem::init(float, LobbyInfo, std::__ndk1::function<void ()>)::{lambda(cocos2d::CCObject*)#1}::~{lambda(cocos2d::CCObject*)#1}()
FUNC 11d730 10 0 std::__ndk1::__function::__func<LobbyItem::init(float, LobbyInfo, std::__ndk1::function<void ()>)::{lambda(cocos2d::CCObject*)#1}, std::__ndk1::allocator<LobbyItem::init(float, LobbyInfo, std::__ndk1::function<void ()>)::{lambda(cocos2d::CCObject*)#1}>, void (CCMenuItemSpriteExtra*)>::~__func()
FUNC 11d740 30 0 std::__ndk1::__function::__func<LobbyItem::init(float, LobbyInfo, std::__ndk1::function<void ()>)::{lambda(cocos2d::CCObject*)#1}, std::__ndk1::allocator<LobbyItem::init(float, LobbyInfo, std::__ndk1::function<void ()>)::{lambda(cocos2d::CCObject*)#1}>, void (CCMenuItemSpriteExtra*)>::~__func()
FUNC 11d770 b0 0 std::__ndk1::__function::__func<LobbyItem::init(float, LobbyInfo, std::__ndk1::function<void ()>)::{lambda(cocos2d::CCObject*)#1}, std::__ndk1::allocator<LobbyItem::init(float, LobbyInfo, std::__ndk1::function<void ()>)::{lambda(cocos2d::CCObject*)#1}>, void (CCMenuItemSpriteExtra*)>::__clone() const
FUNC 11d820 98 0 std::__ndk1::__function::__func<LobbyItem::init(float, LobbyInfo, std::__ndk1::function<void ()>)::{lambda(cocos2d::CCObject*)#1}, std::__ndk1::allocator<LobbyItem::init(float, LobbyInfo, std::__ndk1::function<void ()>)::{lambda(cocos2d::CCObject*)#1}>, void (CCMenuItemSpriteExtra*)>::__clone(std::__ndk1::__function::__base<void (CCMenuItemSpriteExtra*)>*) const
FUNC 11d8b8 8 0 std::__ndk1::__function::__func<LobbyItem::init(float, LobbyInfo, std::__ndk1::function<void ()>)::{lambda(cocos2d::CCObject*)#1}, std::__ndk1::allocator<LobbyItem::init(float, LobbyInfo, std::__ndk1::function<void ()>)::{lambda(cocos2d::CCObject*)#1}>, void (CCMenuItemSpriteExtra*)>::destroy()
FUNC 11d8c0 28 0 std::__ndk1::__function::__func<LobbyItem::init(float, LobbyInfo, std::__ndk1::function<void ()>)::{lambda(cocos2d::CCObject*)#1}, std::__ndk1::allocator<LobbyItem::init(float, LobbyInfo, std::__ndk1::function<void ()>)::{lambda(cocos2d::CCObject*)#1}>, void (CCMenuItemSpriteExtra*)>::destroy_deallocate()
FUNC 11d8e8 3b0 0 std::__ndk1::__function::__func<LobbyItem::init(float, LobbyInfo, std::__ndk1::function<void ()>)::{lambda(cocos2d::CCObject*)#1}, std::__ndk1::allocator<LobbyItem::init(float, LobbyInfo, std::__ndk1::function<void ()>)::{lambda(cocos2d::CCObject*)#1}>, void (CCMenuItemSpriteExtra*)>::operator()(CCMenuItemSpriteExtra*&&)
FUNC 11dc98 1c 0 std::__ndk1::__function::__func<LobbyItem::init(float, LobbyInfo, std::__ndk1::function<void ()>)::{lambda(cocos2d::CCObject*)#1}, std::__ndk1::allocator<LobbyItem::init(float, LobbyInfo, std::__ndk1::function<void ()>)::{lambda(cocos2d::CCObject*)#1}>, void (CCMenuItemSpriteExtra*)>::target(std::type_info const&) const
FUNC 11dcb4 c 0 std::__ndk1::__function::__func<LobbyItem::init(float, LobbyInfo, std::__ndk1::function<void ()>)::{lambda(cocos2d::CCObject*)#1}, std::__ndk1::allocator<LobbyItem::init(float, LobbyInfo, std::__ndk1::function<void ()>)::{lambda(cocos2d::CCObject*)#1}>, void (CCMenuItemSpriteExtra*)>::target_type() const
FUNC 11dcc0 ec 0 LobbyItem::init(float, LobbyInfo, std::__ndk1::function<void ()>)::{lambda(cocos2d::CCObject*)#1}::operator()(cocos2d::CCObject*) const::{lambda()#1}::~{lambda()#1}()
FUNC 11ddac 10 0 std::__ndk1::__function::__func<LobbyItem::init(float, LobbyInfo, std::__ndk1::function<void ()>)::{lambda(cocos2d::CCObject*)#1}::operator()(cocos2d::CCObject*) const::{lambda()#1}, std::__ndk1::allocator<LobbyItem::init(float, LobbyInfo, std::__ndk1::function<void ()>)::{lambda(cocos2d::CCObject*)#1}::operator()(cocos2d::CCObject*) const::{lambda()#1}>, void ()>::~__func()
FUNC 11ddbc 30 0 std::__ndk1::__function::__func<LobbyItem::init(float, LobbyInfo, std::__ndk1::function<void ()>)::{lambda(cocos2d::CCObject*)#1}::operator()(cocos2d::CCObject*) const::{lambda()#1}, std::__ndk1::allocator<LobbyItem::init(float, LobbyInfo, std::__ndk1::function<void ()>)::{lambda(cocos2d::CCObject*)#1}::operator()(cocos2d::CCObject*) const::{lambda()#1}>, void ()>::~__func()
FUNC 11ddec b0 0 std::__ndk1::__function::__func<LobbyItem::init(float, LobbyInfo, std::__ndk1::function<void ()>)::{lambda(cocos2d::CCObject*)#1}::operator()(cocos2d::CCObject*) const::{lambda()#1}, std::__ndk1::allocator<LobbyItem::init(float, LobbyInfo, std::__ndk1::function<void ()>)::{lambda(cocos2d::CCObject*)#1}::operator()(cocos2d::CCObject*) const::{lambda()#1}>, void ()>::__clone() const
FUNC 11de9c 98 0 std::__ndk1::__function::__func<LobbyItem::init(float, LobbyInfo, std::__ndk1::function<void ()>)::{lambda(cocos2d::CCObject*)#1}::operator()(cocos2d::CCObject*) const::{lambda()#1}, std::__ndk1::allocator<LobbyItem::init(float, LobbyInfo, std::__ndk1::function<void ()>)::{lambda(cocos2d::CCObject*)#1}::operator()(cocos2d::CCObject*) const::{lambda()#1}>, void ()>::__clone(std::__ndk1::__function::__base<void ()>*) const
FUNC 11df34 8 0 std::__ndk1::__function::__func<LobbyItem::init(float, LobbyInfo, std::__ndk1::function<void ()>)::{lambda(cocos2d::CCObject*)#1}::operator()(cocos2d::CCObject*) const::{lambda()#1}, std::__ndk1::allocator<LobbyItem::init(float, LobbyInfo, std::__ndk1::function<void ()>)::{lambda(cocos2d::CCObject*)#1}::operator()(cocos2d::CCObject*) const::{lambda()#1}>, void ()>::destroy()
FUNC 11df3c 28 0 std::__ndk1::__function::__func<LobbyItem::init(float, LobbyInfo, std::__ndk1::function<void ()>)::{lambda(cocos2d::CCObject*)#1}::operator()(cocos2d::CCObject*) const::{lambda()#1}, std::__ndk1::allocator<LobbyItem::init(float, LobbyInfo, std::__ndk1::function<void ()>)::{lambda(cocos2d::CCObject*)#1}::operator()(cocos2d::CCObject*) const::{lambda()#1}>, void ()>::destroy_deallocate()
FUNC 11df64 11c 0 std::__ndk1::__function::__func<LobbyItem::init(float, LobbyInfo, std::__ndk1::function<void ()>)::{lambda(cocos2d::CCObject*)#1}::operator()(cocos2d::CCObject*) const::{lambda()#1}, std::__ndk1::allocator<LobbyItem::init(float, LobbyInfo, std::__ndk1::function<void ()>)::{lambda(cocos2d::CCObject*)#1}::operator()(cocos2d::CCObject*) const::{lambda()#1}>, void ()>::operator()()
FUNC 11e080 1c 0 std::__ndk1::__function::__func<LobbyItem::init(float, LobbyInfo, std::__ndk1::function<void ()>)::{lambda(cocos2d::CCObject*)#1}::operator()(cocos2d::CCObject*) const::{lambda()#1}, std::__ndk1::allocator<LobbyItem::init(float, LobbyInfo, std::__ndk1::function<void ()>)::{lambda(cocos2d::CCObject*)#1}::operator()(cocos2d::CCObject*) const::{lambda()#1}>, void ()>::target(std::type_info const&) const
FUNC 11e09c c 0 std::__ndk1::__function::__func<LobbyItem::init(float, LobbyInfo, std::__ndk1::function<void ()>)::{lambda(cocos2d::CCObject*)#1}::operator()(cocos2d::CCObject*) const::{lambda()#1}, std::__ndk1::allocator<LobbyItem::init(float, LobbyInfo, std::__ndk1::function<void ()>)::{lambda(cocos2d::CCObject*)#1}::operator()(cocos2d::CCObject*) const::{lambda()#1}>, void ()>::target_type() const
FUNC 11e0a8 4 0 std::__ndk1::__function::__func<LobbySelectPopup::refresh(bool)::$_0::operator()(ReceivePublicLobbiesPacket*) const::{lambda()#1}, std::__ndk1::allocator<LobbySelectPopup::refresh(bool)::$_0::operator()(ReceivePublicLobbiesPacket*) const::{lambda()#1}>, void ()>::~__func()
FUNC 11e0ac 34 0 std::__ndk1::__function::__func<LobbySelectPopup::refresh(bool)::$_0::operator()(ReceivePublicLobbiesPacket*) const::{lambda()#1}, std::__ndk1::allocator<LobbySelectPopup::refresh(bool)::$_0::operator()(ReceivePublicLobbiesPacket*) const::{lambda()#1}>, void ()>::__clone() const
FUNC 11e0e0 14 0 std::__ndk1::__function::__func<LobbySelectPopup::refresh(bool)::$_0::operator()(ReceivePublicLobbiesPacket*) const::{lambda()#1}, std::__ndk1::allocator<LobbySelectPopup::refresh(bool)::$_0::operator()(ReceivePublicLobbiesPacket*) const::{lambda()#1}>, void ()>::__clone(std::__ndk1::__function::__base<void ()>*) const
FUNC 11e0f4 4 0 std::__ndk1::__function::__func<LobbySelectPopup::refresh(bool)::$_0::operator()(ReceivePublicLobbiesPacket*) const::{lambda()#1}, std::__ndk1::allocator<LobbySelectPopup::refresh(bool)::$_0::operator()(ReceivePublicLobbiesPacket*) const::{lambda()#1}>, void ()>::destroy()
FUNC 11e0f8 4 0 std::__ndk1::__function::__func<LobbySelectPopup::refresh(bool)::$_0::operator()(ReceivePublicLobbiesPacket*) const::{lambda()#1}, std::__ndk1::allocator<LobbySelectPopup::refresh(bool)::$_0::operator()(ReceivePublicLobbiesPacket*) const::{lambda()#1}>, void ()>::destroy_deallocate()
FUNC 11e0fc 14 0 std::__ndk1::__function::__func<LobbySelectPopup::refresh(bool)::$_0::operator()(ReceivePublicLobbiesPacket*) const::{lambda()#1}, std::__ndk1::allocator<LobbySelectPopup::refresh(bool)::$_0::operator()(ReceivePublicLobbiesPacket*) const::{lambda()#1}>, void ()>::operator()()
FUNC 11e110 1c 0 std::__ndk1::__function::__func<LobbySelectPopup::refresh(bool)::$_0::operator()(ReceivePublicLobbiesPacket*) const::{lambda()#1}, std::__ndk1::allocator<LobbySelectPopup::refresh(bool)::$_0::operator()(ReceivePublicLobbiesPacket*) const::{lambda()#1}>, void ()>::target(std::type_info const&) const
FUNC 11e12c c 0 std::__ndk1::__function::__func<LobbySelectPopup::refresh(bool)::$_0::operator()(ReceivePublicLobbiesPacket*) const::{lambda()#1}, std::__ndk1::allocator<LobbySelectPopup::refresh(bool)::$_0::operator()(ReceivePublicLobbiesPacket*) const::{lambda()#1}>, void ()>::target_type() const
FUNC 11e138 60 0 _GLOBAL__sub_I_LobbySelectPopup.cpp
FUNC 11e198 754 0 LobbySettingsPopup::create(LobbySettings, std::__ndk1::function<void (LobbySettings)>)
FUNC 11e8ec 8b0 0 LobbySettingsPopup::setup(LobbySettings, std::__ndk1::function<void (LobbySettings)>)
FUNC 11f19c b2c 0 LobbySettingsCell::create(float, std::__ndk1::basic_string<char, std::__ndk1::char_traits<char>, std::__ndk1::allocator<char> >, LobbySettingType, std::__ndk1::basic_string<char, std::__ndk1::char_traits<char>, std::__ndk1::allocator<char> >, std::__ndk1::basic_string<char, std::__ndk1::char_traits<char>, std::__ndk1::allocator<char> >, std::__ndk1::basic_string<char, std::__ndk1::char_traits<char>, std::__ndk1::allocator<char> >)
FUNC 11fcc8 6c 0 geode::Popup<LobbySettings, std::__ndk1::function<void (LobbySettings)> >::~Popup()
FUNC 11fd34 74 0 LobbySettingsPopup::~LobbySettingsPopup()
FUNC 11fda8 2c 0 geode::Popup<LobbySettings, std::__ndk1::function<void (LobbySettings)> >::registerWithTouchDispatcher()
FUNC 11fdd4 28 0 geode::Popup<LobbySettings, std::__ndk1::function<void (LobbySettings)> >::keyDown(cocos2d::enumKeyCodes)
FUNC 11fdfc 148 0 geode::Popup<LobbySettings, std::__ndk1::function<void (LobbySettings)> >::onClose(cocos2d::CCObject*)
FUNC 11ff44 6c 0 {virtual override thunk({offset(-320)}, LobbySettingsPopup::~LobbySettingsPopup())}
FUNC 11ffb0 74 0 {virtual override thunk({offset(-320)}, LobbySettingsPopup::~LobbySettingsPopup())}
FUNC 120024 2c 0 {virtual override thunk({offset(-344)}, geode::Popup<LobbySettings, std::__ndk1::function<void (LobbySettings)> >::keyDown(cocos2d::enumKeyCodes))}
FUNC 120050 4 0 geode::Popup<LobbySettings, std::__ndk1::function<void (LobbySettings)> >::~Popup()
FUNC 120054 6c 0 {virtual override thunk({offset(-320)}, geode::Popup<LobbySettings, std::__ndk1::function<void (LobbySettings)> >::~Popup())}
FUNC 1200c0 4 0 {virtual override thunk({offset(-320)}, geode::Popup<LobbySettings, std::__ndk1::function<void (LobbySettings)> >::~Popup())}
FUNC 1200c4 24 0 LobbySettingsCell::~LobbySettingsCell()
FUNC 1200e8 70 0 geode::cocos::CCMenuItemExt::LambdaCallback<CCMenuItemToggler>::execute(cocos2d::CCNode*)
FUNC 120158 5c 0 geode::cocos::CCMenuItemExt::LambdaCallback<CCMenuItemToggler>::~LambdaCallback()
FUNC 1201b4 64 0 geode::cocos::CCMenuItemExt::LambdaCallback<CCMenuItemToggler>::~LambdaCallback()
FUNC 120218 4 0 std::__ndk1::__function::__base<void (CCMenuItemToggler*)>::~__base()
FUNC 12021c 4 0 std::__ndk1::__function::__func<LobbySettingsCell::init(float, std::__ndk1::basic_string<char, std::__ndk1::char_traits<char>, std::__ndk1::allocator<char> >, LobbySettingType, std::__ndk1::basic_string<char, std::__ndk1::char_traits<char>, std::__ndk1::allocator<char> >, std::__ndk1::basic_string<char, std::__ndk1::char_traits<char>, std::__ndk1::allocator<char> >, std::__ndk1::basic_string<char, std::__ndk1::char_traits<char>, std::__ndk1::allocator<char> >)::{lambda(cocos2d::CCObject*)#1}, std::__ndk1::allocator<LobbySettingsCell::init(float, std::__ndk1::basic_string<char, std::__ndk1::char_traits<char>, std::__ndk1::allocator<char> >, LobbySettingType, std::__ndk1::basic_string<char, std::__ndk1::char_traits<char>, std::__ndk1::allocator<char> >, std::__ndk1::basic_string<char, std::__ndk1::char_traits<char>, std::__ndk1::allocator<char> >, std::__ndk1::basic_string<char, std::__ndk1::char_traits<char>, std::__ndk1::allocator<char> >)::{lambda(cocos2d::CCObject*)#1}>, void (CCMenuItemToggler*)>::~__func()
FUNC 120220 34 0 std::__ndk1::__function::__func<LobbySettingsCell::init(float, std::__ndk1::basic_string<char, std::__ndk1::char_traits<char>, std::__ndk1::allocator<char> >, LobbySettingType, std::__ndk1::basic_string<char, std::__ndk1::char_traits<char>, std::__ndk1::allocator<char> >, std::__ndk1::basic_string<char, std::__ndk1::char_traits<char>, std::__ndk1::allocator<char> >, std::__ndk1::basic_string<char, std::__ndk1::char_traits<char>, std::__ndk1::allocator<char> >)::{lambda(cocos2d::CCObject*)#1}, std::__ndk1::allocator<LobbySettingsCell::init(float, std::__ndk1::basic_string<char, std::__ndk1::char_traits<char>, std::__ndk1::allocator<char> >, LobbySettingType, std::__ndk1::basic_string<char, std::__ndk1::char_traits<char>, std::__ndk1::allocator<char> >, std::__ndk1::basic_string<char, std::__ndk1::char_traits<char>, std::__ndk1::allocator<char> >, std::__ndk1::basic_string<char, std::__ndk1::char_traits<char>, std::__ndk1::allocator<char> >)::{lambda(cocos2d::CCObject*)#1}>, void (CCMenuItemToggler*)>::__clone() const
FUNC 120254 14 0 std::__ndk1::__function::__func<LobbySettingsCell::init(float, std::__ndk1::basic_string<char, std::__ndk1::char_traits<char>, std::__ndk1::allocator<char> >, LobbySettingType, std::__ndk1::basic_string<char, std::__ndk1::char_traits<char>, std::__ndk1::allocator<char> >, std::__ndk1::basic_string<char, std::__ndk1::char_traits<char>, std::__ndk1::allocator<char> >, std::__ndk1::basic_string<char, std::__ndk1::char_traits<char>, std::__ndk1::allocator<char> >)::{lambda(cocos2d::CCObject*)#1}, std::__ndk1::allocator<LobbySettingsCell::init(float, std::__ndk1::basic_string<char, std::__ndk1::char_traits<char>, std::__ndk1::allocator<char> >, LobbySettingType, std::__ndk1::basic_string<char, std::__ndk1::char_traits<char>, std::__ndk1::allocator<char> >, std::__ndk1::basic_string<char, std::__ndk1::char_traits<char>, std::__ndk1::allocator<char> >, std::__ndk1::basic_string<char, std::__ndk1::char_traits<char>, std::__ndk1::allocator<char> >)::{lambda(cocos2d::CCObject*)#1}>, void (CCMenuItemToggler*)>::__clone(std::__ndk1::__function::__base<void (CCMenuItemToggler*)>*) const
FUNC 120268 4 0 std::__ndk1::__function::__func<LobbySettingsCell::init(float, std::__ndk1::basic_string<char, std::__ndk1::char_traits<char>, std::__ndk1::allocator<char> >, LobbySettingType, std::__ndk1::basic_string<char, std::__ndk1::char_traits<char>, std::__ndk1::allocator<char> >, std::__ndk1::basic_string<char, std::__ndk1::char_traits<char>, std::__ndk1::allocator<char> >, std::__ndk1::basic_string<char, std::__ndk1::char_traits<char>, std::__ndk1::allocator<char> >)::{lambda(cocos2d::CCObject*)#1}, std::__ndk1::allocator<LobbySettingsCell::init(float, std::__ndk1::basic_string<char, std::__ndk1::char_traits<char>, std::__ndk1::allocator<char> >, LobbySettingType, std::__ndk1::basic_string<char, std::__ndk1::char_traits<char>, std::__ndk1::allocator<char> >, std::__ndk1::basic_string<char, std::__ndk1::char_traits<char>, std::__ndk1::allocator<char> >, std::__ndk1::basic_string<char, std::__ndk1::char_traits<char>, std::__ndk1::allocator<char> >)::{lambda(cocos2d::CCObject*)#1}>, void (CCMenuItemToggler*)>::destroy()
FUNC 12026c 4 0 std::__ndk1::__function::__func<LobbySettingsCell::init(float, std::__ndk1::basic_string<char, std::__ndk1::char_traits<char>, std::__ndk1::allocator<char> >, LobbySettingType, std::__ndk1::basic_string<char, std::__ndk1::char_traits<char>, std::__ndk1::allocator<char> >, std::__ndk1::basic_string<char, std::__ndk1::char_traits<char>, std::__ndk1::allocator<char> >, std::__ndk1::basic_string<char, std::__ndk1::char_traits<char>, std::__ndk1::allocator<char> >)::{lambda(cocos2d::CCObject*)#1}, std::__ndk1::allocator<LobbySettingsCell::init(float, std::__ndk1::basic_string<char, std::__ndk1::char_traits<char>, std::__ndk1::allocator<char> >, LobbySettingType, std::__ndk1::basic_string<char, std::__ndk1::char_traits<char>, std::__ndk1::allocator<char> >, std::__ndk1::basic_string<char, std::__ndk1::char_traits<char>, std::__ndk1::allocator<char> >, std::__ndk1::basic_string<char, std::__ndk1::char_traits<char>, std::__ndk1::allocator<char> >)::{lambda(cocos2d::CCObject*)#1}>, void (CCMenuItemToggler*)>::destroy_deallocate()
FUNC 120270 18 0 std::__ndk1::__function::__func<LobbySettingsCell::init(float, std::__ndk1::basic_string<char, std::__ndk1::char_traits<char>, std::__ndk1::allocator<char> >, LobbySettingType, std::__ndk1::basic_string<char, std::__ndk1::char_traits<char>, std::__ndk1::allocator<char> >, std::__ndk1::basic_string<char, std::__ndk1::char_traits<char>, std::__ndk1::allocator<char> >, std::__ndk1::basic_string<char, std::__ndk1::char_traits<char>, std::__ndk1::allocator<char> >)::{lambda(cocos2d::CCObject*)#1}, std::__ndk1::allocator<LobbySettingsCell::init(float, std::__ndk1::basic_string<char, std::__ndk1::char_traits<char>, std::__ndk1::allocator<char> >, LobbySettingType, std::__ndk1::basic_string<char, std::__ndk1::char_traits<char>, std::__ndk1::allocator<char> >, std::__ndk1::basic_string<char, std::__ndk1::char_traits<char>, std::__ndk1::allocator<char> >, std::__ndk1::basic_string<char, std::__ndk1::char_traits<char>, std::__ndk1::allocator<char> >)::{lambda(cocos2d::CCObject*)#1}>, void (CCMenuItemToggler*)>::operator()(CCMenuItemToggler*&&)
FUNC 120288 1c 0 std::__ndk1::__function::__func<LobbySettingsCell::init(float, std::__ndk1::basic_string<char, std::__ndk1::char_traits<char>, std::__ndk1::allocator<char> >, LobbySettingType, std::__ndk1::basic_string<char, std::__ndk1::char_traits<char>, std::__ndk1::allocator<char> >, std::__ndk1::basic_string<char, std::__ndk1::char_traits<char>, std::__ndk1::allocator<char> >, std::__ndk1::basic_string<char, std::__ndk1::char_traits<char>, std::__ndk1::allocator<char> >)::{lambda(cocos2d::CCObject*)#1}, std::__ndk1::allocator<LobbySettingsCell::init(float, std::__ndk1::basic_string<char, std::__ndk1::char_traits<char>, std::__ndk1::allocator<char> >, LobbySettingType, std::__ndk1::basic_string<char, std::__ndk1::char_traits<char>, std::__ndk1::allocator<char> >, std::__ndk1::basic_string<char, std::__ndk1::char_traits<char>, std::__ndk1::allocator<char> >, std::__ndk1::basic_string<char, std::__ndk1::char_traits<char>, std::__ndk1::allocator<char> >)::{lambda(cocos2d::CCObject*)#1}>, void (CCMenuItemToggler*)>::target(std::type_info const&) const
FUNC 1202a4 c 0 std::__ndk1::__function::__func<LobbySettingsCell::init(float, std::__ndk1::basic_string<char, std::__ndk1::char_traits<char>, std::__ndk1::allocator<char> >, LobbySettingType, std::__ndk1::basic_string<char, std::__ndk1::char_traits<char>, std::__ndk1::allocator<char> >, std::__ndk1::basic_string<char, std::__ndk1::char_traits<char>, std::__ndk1::allocator<char> >, std::__ndk1::basic_string<char, std::__ndk1::char_traits<char>, std::__ndk1::allocator<char> >)::{lambda(cocos2d::CCObject*)#1}, std::__ndk1::allocator<LobbySettingsCell::init(float, std::__ndk1::basic_string<char, std::__ndk1::char_traits<char>, std::__ndk1::allocator<char> >, LobbySettingType, std::__ndk1::basic_string<char, std::__ndk1::char_traits<char>, std::__ndk1::allocator<char> >, std::__ndk1::basic_string<char, std::__ndk1::char_traits<char>, std::__ndk1::allocator<char> >, std::__ndk1::basic_string<char, std::__ndk1::char_traits<char>, std::__ndk1::allocator<char> >)::{lambda(cocos2d::CCObject*)#1}>, void (CCMenuItemToggler*)>::target_type() const
FUNC 1202b0 50 0 geode::Popup<LobbySettings, std::__ndk1::function<void (LobbySettings)> >::CloseEvent::~CloseEvent()
FUNC 120300 58 0 geode::Popup<LobbySettings, std::__ndk1::function<void (LobbySettings)> >::CloseEvent::~CloseEvent()
FUNC 120358 10 0 std::__ndk1::__shared_ptr_emplace<geode::Popup<LobbySettings, std::__ndk1::function<void (LobbySettings)> >::CloseEvent::Impl, std::__ndk1::allocator<geode::Popup<LobbySettings, std::__ndk1::function<void (LobbySettings)> >::CloseEvent::Impl> >::~__shared_ptr_emplace()
FUNC 120368 30 0 std::__ndk1::__shared_ptr_emplace<geode::Popup<LobbySettings, std::__ndk1::function<void (LobbySettings)> >::CloseEvent::Impl, std::__ndk1::allocator<geode::Popup<LobbySettings, std::__ndk1::function<void (LobbySettings)> >::CloseEvent::Impl> >::~__shared_ptr_emplace()
FUNC 120398 4 0 std::__ndk1::__shared_ptr_emplace<geode::Popup<LobbySettings, std::__ndk1::function<void (LobbySettings)> >::CloseEvent::Impl, std::__ndk1::allocator<geode::Popup<LobbySettings, std::__ndk1::function<void (LobbySettings)> >::CloseEvent::Impl> >::__on_zero_shared()
FUNC 12039c 4 0 std::__ndk1::__shared_ptr_emplace<geode::Popup<LobbySettings, std::__ndk1::function<void (LobbySettings)> >::CloseEvent::Impl, std::__ndk1::allocator<geode::Popup<LobbySettings, std::__ndk1::function<void (LobbySettings)> >::CloseEvent::Impl> >::__on_zero_shared_weak()
FUNC 1203a0 44 0 std::__ndk1::__function::__func<LobbySettingsPopup::setup(LobbySettings, std::__ndk1::function<void (LobbySettings)>)::$_0, std::__ndk1::allocator<LobbySettingsPopup::setup(LobbySettings, std::__ndk1::function<void (LobbySettings)>)::$_0>, void (CCMenuItemSpriteExtra*)>::~__func()
FUNC 1203e4 5c 0 std::__ndk1::__function::__func<LobbySettingsPopup::setup(LobbySettings, std::__ndk1::function<void (LobbySettings)>)::$_0, std::__ndk1::allocator<LobbySettingsPopup::setup(LobbySettings, std::__ndk1::function<void (LobbySettings)>)::$_0>, void (CCMenuItemSpriteExtra*)>::~__func()
FUNC 120440 90 0 std::__ndk1::__function::__func<LobbySettingsPopup::setup(LobbySettings, std::__ndk1::function<void (LobbySettings)>)::$_0, std::__ndk1::allocator<LobbySettingsPopup::setup(LobbySettings, std::__ndk1::function<void (LobbySettings)>)::$_0>, void (CCMenuItemSpriteExtra*)>::__clone() const
FUNC 1204d0 80 0 std::__ndk1::__function::__func<LobbySettingsPopup::setup(LobbySettings, std::__ndk1::function<void (LobbySettings)>)::$_0, std::__ndk1::allocator<LobbySettingsPopup::setup(LobbySettings, std::__ndk1::function<void (LobbySettings)>)::$_0>, void (CCMenuItemSpriteExtra*)>::__clone(std::__ndk1::__function::__base<void (CCMenuItemSpriteExtra*)>*) const
FUNC 120550 38 0 std::__ndk1::__function::__func<LobbySettingsPopup::setup(LobbySettings, std::__ndk1::function<void (LobbySettings)>)::$_0, std::__ndk1::allocator<LobbySettingsPopup::setup(LobbySettings, std::__ndk1::function<void (LobbySettings)>)::$_0>, void (CCMenuItemSpriteExtra*)>::destroy()
FUNC 120588 50 0 std::__ndk1::__function::__func<LobbySettingsPopup::setup(LobbySettings, std::__ndk1::function<void (LobbySettings)>)::$_0, std::__ndk1::allocator<LobbySettingsPopup::setup(LobbySettings, std::__ndk1::function<void (LobbySettings)>)::$_0>, void (CCMenuItemSpriteExtra*)>::destroy_deallocate()
FUNC 1205d8 3ac 0 std::__ndk1::__function::__func<LobbySettingsPopup::setup(LobbySettings, std::__ndk1::function<void (LobbySettings)>)::$_0, std::__ndk1::allocator<LobbySettingsPopup::setup(LobbySettings, std::__ndk1::function<void (LobbySettings)>)::$_0>, void (CCMenuItemSpriteExtra*)>::operator()(CCMenuItemSpriteExtra*&&)
FUNC 120984 1c 0 std::__ndk1::__function::__func<LobbySettingsPopup::setup(LobbySettings, std::__ndk1::function<void (LobbySettings)>)::$_0, std::__ndk1::allocator<LobbySettingsPopup::setup(LobbySettings, std::__ndk1::function<void (LobbySettings)>)::$_0>, void (CCMenuItemSpriteExtra*)>::target(std::type_info const&) const
FUNC 1209a0 c 0 std::__ndk1::__function::__func<LobbySettingsPopup::setup(LobbySettings, std::__ndk1::function<void (LobbySettings)>)::$_0, std::__ndk1::allocator<LobbySettingsPopup::setup(LobbySettings, std::__ndk1::function<void (LobbySettings)>)::$_0>, void (CCMenuItemSpriteExtra*)>::target_type() const
FUNC 1209ac 20 0 geode::cocos::CCArrayExt<LobbySettingsCell*, LobbySettingsCell>::~CCArrayExt()
FUNC 1209cc 60 0 _GLOBAL__sub_I_LobbySettings.cpp
FUNC 120a2c 168 0 geodeExecFunction39<(anonymous namespace)::ExecFuncUnique39>(geode::ModStateEvent*)
FUNC 120b94 444 0 __cxx_global_var_init.4
FUNC 120fd8 18 0 geode::modifier::ModifyBase<geode::modifier::ModifyDerive<CRBrowserLayer, LevelBrowserLayer> >::~ModifyBase()
FUNC 120ff0 444 0 __cxx_global_var_init.5
FUNC 121434 18 0 geode::modifier::ModifyBase<geode::modifier::ModifyDerive<CREditorUI, EditorUI> >::~ModifyBase()
FUNC 12144c 444 0 __cxx_global_var_init.6
FUNC 121890 18 0 geode::modifier::ModifyBase<geode::modifier::ModifyDerive<CRLvlInfoLayer, LevelInfoLayer> >::~ModifyBase()
FUNC 1218a8 41c 0 __cxx_global_var_init.7
FUNC 121cc4 17c 0 _GLOBAL__sub_I_main.cpp
FUNC 121e40 18 0 geode::modifier::ModifyBase<geode::modifier::ModifyDerive<hook216<(anonymous namespace)::hook216Parent>, EditorPauseLayer> >::~ModifyBase()
FUNC 121e58 4 0 std::__ndk1::__function::__base<void (std::__ndk1::function<void ()>)>::~__base()
FUNC 121e5c 4 0 std::__ndk1::__function::__func<geodeExecFunction39<(anonymous namespace)::ExecFuncUnique39>(geode::ModStateEvent*)::{lambda(std::__ndk1::function<void ()>)#1}, std::__ndk1::allocator<geodeExecFunction39<(anonymous namespace)::ExecFuncUnique39>(geode::ModStateEvent*)::{lambda(std::__ndk1::function<void ()>)#1}>, void (std::__ndk1::function<void ()>)>::~__func()
FUNC 121e60 24 0 std::__ndk1::__function::__func<geodeExecFunction39<(anonymous namespace)::ExecFuncUnique39>(geode::ModStateEvent*)::{lambda(std::__ndk1::function<void ()>)#1}, std::__ndk1::allocator<geodeExecFunction39<(anonymous namespace)::ExecFuncUnique39>(geode::ModStateEvent*)::{lambda(std::__ndk1::function<void ()>)#1}>, void (std::__ndk1::function<void ()>)>::__clone() const
FUNC 121e84 10 0 std::__ndk1::__function::__func<geodeExecFunction39<(anonymous namespace)::ExecFuncUnique39>(geode::ModStateEvent*)::{lambda(std::__ndk1::function<void ()>)#1}, std::__ndk1::allocator<geodeExecFunction39<(anonymous namespace)::ExecFuncUnique39>(geode::ModStateEvent*)::{lambda(std::__ndk1::function<void ()>)#1}>, void (std::__ndk1::function<void ()>)>::__clone(std::__ndk1::__function::__base<void (std::__ndk1::function<void ()>)>*) const
FUNC 121e94 4 0 std::__ndk1::__function::__func<geodeExecFunction39<(anonymous namespace)::ExecFuncUnique39>(geode::ModStateEvent*)::{lambda(std::__ndk1::function<void ()>)#1}, std::__ndk1::allocator<geodeExecFunction39<(anonymous namespace)::ExecFuncUnique39>(geode::ModStateEvent*)::{lambda(std::__ndk1::function<void ()>)#1}>, void (std::__ndk1::function<void ()>)>::destroy()
FUNC 121e98 4 0 std::__ndk1::__function::__func<geodeExecFunction39<(anonymous namespace)::ExecFuncUnique39>(geode::ModStateEvent*)::{lambda(std::__ndk1::function<void ()>)#1}, std::__ndk1::allocator<geodeExecFunction39<(anonymous namespace)::ExecFuncUnique39>(geode::ModStateEvent*)::{lambda(std::__ndk1::function<void ()>)#1}>, void (std::__ndk1::function<void ()>)>::destroy_deallocate()
FUNC 121e9c 2e8 0 std::__ndk1::__function::__func<geodeExecFunction39<(anonymous namespace)::ExecFuncUnique39>(geode::ModStateEvent*)::{lambda(std::__ndk1::function<void ()>)#1}, std::__ndk1::allocator<geodeExecFunction39<(anonymous namespace)::ExecFuncUnique39>(geode::ModStateEvent*)::{lambda(std::__ndk1::function<void ()>)#1}>, void (std::__ndk1::function<void ()>)>::operator()(std::__ndk1::function<void ()>&&)
FUNC 122184 1c 0 std::__ndk1::__function::__func<geodeExecFunction39<(anonymous namespace)::ExecFuncUnique39>(geode::ModStateEvent*)::{lambda(std::__ndk1::function<void ()>)#1}, std::__ndk1::allocator<geodeExecFunction39<(anonymous namespace)::ExecFuncUnique39>(geode::ModStateEvent*)::{lambda(std::__ndk1::function<void ()>)#1}>, void (std::__ndk1::function<void ()>)>::target(std::type_info const&) const
FUNC 1221a0 c 0 std::__ndk1::__function::__func<geodeExecFunction39<(anonymous namespace)::ExecFuncUnique39>(geode::ModStateEvent*)::{lambda(std::__ndk1::function<void ()>)#1}, std::__ndk1::allocator<geodeExecFunction39<(anonymous namespace)::ExecFuncUnique39>(geode::ModStateEvent*)::{lambda(std::__ndk1::function<void ()>)#1}>, void (std::__ndk1::function<void ()>)>::target_type() const
FUNC 1221ac 44 0 std::__ndk1::__function::__func<geodeExecFunction39<(anonymous namespace)::ExecFuncUnique39>(geode::ModStateEvent*)::{lambda(std::__ndk1::function<void ()>(std::__ndk1::function<void ()>))#1}::operator() const::{lambda()#1}, std::__ndk1::allocator<geodeExecFunction39<(anonymous namespace)::ExecFuncUnique39>(geode::ModStateEvent*)::{lambda(std::__ndk1::function<void ()>(std::__ndk1::function<void ()>))#1}::operator() const::{lambda()#1}>, void ()>::~__func()
FUNC 1221f0 5c 0 std::__ndk1::__function::__func<geodeExecFunction39<(anonymous namespace)::ExecFuncUnique39>(geode::ModStateEvent*)::{lambda(std::__ndk1::function<void ()>(std::__ndk1::function<void ()>))#1}::operator() const::{lambda()#1}, std::__ndk1::allocator<geodeExecFunction39<(anonymous namespace)::ExecFuncUnique39>(geode::ModStateEvent*)::{lambda(std::__ndk1::function<void ()>(std::__ndk1::function<void ()>))#1}::operator() const::{lambda()#1}>, void ()>::~__func()
FUNC 12224c 88 0 std::__ndk1::__function::__func<geodeExecFunction39<(anonymous namespace)::ExecFuncUnique39>(geode::ModStateEvent*)::{lambda(std::__ndk1::function<void ()>(std::__ndk1::function<void ()>))#1}::operator() const::{lambda()#1}, std::__ndk1::allocator<geodeExecFunction39<(anonymous namespace)::ExecFuncUnique39>(geode::ModStateEvent*)::{lambda(std::__ndk1::function<void ()>(std::__ndk1::function<void ()>))#1}::operator() const::{lambda()#1}>, void ()>::__clone() const
FUNC 1222d4 74 0 std::__ndk1::__function::__func<geodeExecFunction39<(anonymous namespace)::ExecFuncUnique39>(geode::ModStateEvent*)::{lambda(std::__ndk1::function<void ()>(std::__ndk1::function<void ()>))#1}::operator() const::{lambda()#1}, std::__ndk1::allocator<geodeExecFunction39<(anonymous namespace)::ExecFuncUnique39>(geode::ModStateEvent*)::{lambda(std::__ndk1::function<void ()>(std::__ndk1::function<void ()>))#1}::operator() const::{lambda()#1}>, void ()>::__clone(std::__ndk1::__function::__base<void ()>*) const
FUNC 122348 38 0 std::__ndk1::__function::__func<geodeExecFunction39<(anonymous namespace)::ExecFuncUnique39>(geode::ModStateEvent*)::{lambda(std::__ndk1::function<void ()>(std::__ndk1::function<void ()>))#1}::operator() const::{lambda()#1}, std::__ndk1::allocator<geodeExecFunction39<(anonymous namespace)::ExecFuncUnique39>(geode::ModStateEvent*)::{lambda(std::__ndk1::function<void ()>(std::__ndk1::function<void ()>))#1}::operator() const::{lambda()#1}>, void ()>::destroy()
FUNC 122380 50 0 std::__ndk1::__function::__func<geodeExecFunction39<(anonymous namespace)::ExecFuncUnique39>(geode::ModStateEvent*)::{lambda(std::__ndk1::function<void ()>(std::__ndk1::function<void ()>))#1}::operator() const::{lambda()#1}, std::__ndk1::allocator<geodeExecFunction39<(anonymous namespace)::ExecFuncUnique39>(geode::ModStateEvent*)::{lambda(std::__ndk1::function<void ()>(std::__ndk1::function<void ()>))#1}::operator() const::{lambda()#1}>, void ()>::destroy_deallocate()
FUNC 1223d0 20 0 std::__ndk1::__function::__func<geodeExecFunction39<(anonymous namespace)::ExecFuncUnique39>(geode::ModStateEvent*)::{lambda(std::__ndk1::function<void ()>(std::__ndk1::function<void ()>))#1}::operator() const::{lambda()#1}, std::__ndk1::allocator<geodeExecFunction39<(anonymous namespace)::ExecFuncUnique39>(geode::ModStateEvent*)::{lambda(std::__ndk1::function<void ()>(std::__ndk1::function<void ()>))#1}::operator() const::{lambda()#1}>, void ()>::operator()()
FUNC 1223f0 1c 0 std::__ndk1::__function::__func<geodeExecFunction39<(anonymous namespace)::ExecFuncUnique39>(geode::ModStateEvent*)::{lambda(std::__ndk1::function<void ()>(std::__ndk1::function<void ()>))#1}::operator() const::{lambda()#1}, std::__ndk1::allocator<geodeExecFunction39<(anonymous namespace)::ExecFuncUnique39>(geode::ModStateEvent*)::{lambda(std::__ndk1::function<void ()>(std::__ndk1::function<void ()>))#1}::operator() const::{lambda()#1}>, void ()>::target(std::type_info const&) const
FUNC 12240c c 0 std::__ndk1::__function::__func<geodeExecFunction39<(anonymous namespace)::ExecFuncUnique39>(geode::ModStateEvent*)::{lambda(std::__ndk1::function<void ()>(std::__ndk1::function<void ()>))#1}::operator() const::{lambda()#1}, std::__ndk1::allocator<geodeExecFunction39<(anonymous namespace)::ExecFuncUnique39>(geode::ModStateEvent*)::{lambda(std::__ndk1::function<void ()>(std::__ndk1::function<void ()>))#1}::operator() const::{lambda()#1}>, void ()>::target_type() const
FUNC 122418 3d0 0 geode::modifier::ModifyDerive<CRBrowserLayer, LevelBrowserLayer>::apply()
FUNC 1227e8 50 0 std::__ndk1::shared_ptr<geode::Hook>::~shared_ptr[abi:ne180000]()
FUNC 122838 74 0 geode::impl::ResultData<geode::Hook*, std::__ndk1::basic_string<char, std::__ndk1::char_traits<char>, std::__ndk1::allocator<char> > >::~ResultData()
FUNC 1228ac 7c 0 std::__ndk1::vector<std::__ndk1::basic_string<char, std::__ndk1::char_traits<char>, std::__ndk1::allocator<char> >, std::__ndk1::allocator<std::__ndk1::basic_string<char, std::__ndk1::char_traits<char>, std::__ndk1::allocator<char> > > >::~vector[abi:ne180000]()
FUNC 122928 4 0 geode::modifier::ModifyBase<geode::modifier::ModifyDerive<CRBrowserLayer, LevelBrowserLayer> >::apply()
FUNC 12292c 154 0 _ZN5geode15UnwrapExceptionC2IRPNS_4HookEQsr4implE18IsStringStreamableIT_EEENS_4impl5OkTagEOS5_
FUNC 122a80 21c 0 std::__ndk1::vector<std::__ndk1::basic_string<char, std::__ndk1::char_traits<char>, std::__ndk1::allocator<char> >, std::__ndk1::allocator<std::__ndk1::basic_string<char, std::__ndk1::char_traits<char>, std::__ndk1::allocator<char> > > >::__push_back_slow_path<std::__ndk1::basic_string<char, std::__ndk1::char_traits<char>, std::__ndk1::allocator<char> > const&>(std::__ndk1::basic_string<char, std::__ndk1::char_traits<char>, std::__ndk1::allocator<char> > const&)
FUNC 122c9c 68 0 std::__ndk1::__split_buffer<std::__ndk1::basic_string<char, std::__ndk1::char_traits<char>, std::__ndk1::allocator<char> >, std::__ndk1::allocator<std::__ndk1::basic_string<char, std::__ndk1::char_traits<char>, std::__ndk1::allocator<char> > >&>::~__split_buffer()
FUNC 122d04 14 0 std::__ndk1::vector<std::__ndk1::basic_string<char, std::__ndk1::char_traits<char>, std::__ndk1::allocator<char> >, std::__ndk1::allocator<std::__ndk1::basic_string<char, std::__ndk1::char_traits<char>, std::__ndk1::allocator<char> > > >::__throw_length_error[abi:ne180000]() const
FUNC 122d18 4 0 std::__ndk1::__variant_detail::__visitation::__base::__dispatcher<(unsigned long)0>::__dispatch[abi:ne180000]<std::__ndk1::__variant_detail::__dtor<std::__ndk1::__variant_detail::__traits<geode::Hook*, std::__ndk1::basic_string<char, std::__ndk1::char_traits<char>, std::__ndk1::allocator<char> > >, (std::__ndk1::__variant_detail::_Trait)1>::__destroy[abi:ne180000]()::{lambda(auto:1&)#1}, std::__ndk1::__variant_detail::__base<(std::__ndk1::__variant_detail::__traits<geode::Hook*, std::__ndk1::basic_string<char, std::__ndk1::char_traits<char>, std::__ndk1::allocator<char> > >)1, geode::Hook, std::__ndk1::allocator<char> >&>(std::__ndk1::__variant_detail::__dtor<std::__ndk1::__variant_detail::__traits<geode::Hook*, std::__ndk1::basic_string<char, std::__ndk1::char_traits<char>, std::__ndk1::allocator<char> > >, (std::__ndk1::__variant_detail::_Trait)1>, std::__ndk1::__variant_detail::__base<(std::__ndk1::__variant_detail::__traits<geode::Hook*, std::__ndk1::basic_string<char, std::__ndk1::char_traits<char>, std::__ndk1::allocator<char> > >)1, geode::Hook, std::__ndk1::allocator<char> >&)
FUNC 122d1c 14 0 std::__ndk1::__variant_detail::__visitation::__base::__dispatcher<(unsigned long)1>::__dispatch[abi:ne180000]<std::__ndk1::__variant_detail::__dtor<std::__ndk1::__variant_detail::__traits<geode::Hook*, std::__ndk1::basic_string<char, std::__ndk1::char_traits<char>, std::__ndk1::allocator<char> > >, (std::__ndk1::__variant_detail::_Trait)1>::__destroy[abi:ne180000]()::{lambda(auto:1&)#1}, std::__ndk1::__variant_detail::__base<(std::__ndk1::__variant_detail::__traits<geode::Hook*, std::__ndk1::basic_string<char, std::__ndk1::char_traits<char>, std::__ndk1::allocator<char> > >)1, geode::Hook, std::__ndk1::allocator<char> >&>(std::__ndk1::__variant_detail::__dtor<std::__ndk1::__variant_detail::__traits<geode::Hook*, std::__ndk1::basic_string<char, std::__ndk1::char_traits<char>, std::__ndk1::allocator<char> > >, (std::__ndk1::__variant_detail::_Trait)1>, std::__ndk1::__variant_detail::__base<(std::__ndk1::__variant_detail::__traits<geode::Hook*, std::__ndk1::basic_string<char, std::__ndk1::char_traits<char>, std::__ndk1::allocator<char> > >)1, geode::Hook, std::__ndk1::allocator<char> >&)
FUNC 122d30 fc 0 std::__ndk1::__tree<std::__ndk1::__value_type<std::__ndk1::basic_string<char, std::__ndk1::char_traits<char>, std::__ndk1::allocator<char> >, std::__ndk1::shared_ptr<geode::Hook> >, std::__ndk1::__map_value_compare<std::__ndk1::basic_string<char, std::__ndk1::char_traits<char>, std::__ndk1::allocator<char> >, std::__ndk1::__value_type<std::__ndk1::basic_string<char, std::__ndk1::char_traits<char>, std::__ndk1::allocator<char> >, std::__ndk1::shared_ptr<geode::Hook> >, std::__ndk1::less<std::__ndk1::basic_string<char, std::__ndk1::char_traits<char>, std::__ndk1::allocator<char> > >, true>, std::__ndk1::allocator<std::__ndk1::__value_type<std::__ndk1::basic_string<char, std::__ndk1::char_traits<char>, std::__ndk1::allocator<char> >, std::__ndk1::shared_ptr<geode::Hook> > > >::find<std::__ndk1::basic_string<char, std::__ndk1::char_traits<char>, std::__ndk1::allocator<char> > >(std::__ndk1::basic_string<char, std::__ndk1::char_traits<char>, std::__ndk1::allocator<char> > const&)
FUNC 122e2c 454 0 std::__ndk1::__tree<std::__ndk1::__value_type<std::__ndk1::basic_string<char, std::__ndk1::char_traits<char>, std::__ndk1::allocator<char> >, std::__ndk1::shared_ptr<geode::Hook> >, std::__ndk1::__map_value_compare<std::__ndk1::basic_string<char, std::__ndk1::char_traits<char>, std::__ndk1::allocator<char> >, std::__ndk1::__value_type<std::__ndk1::basic_string<char, std::__ndk1::char_traits<char>, std::__ndk1::allocator<char> >, std::__ndk1::shared_ptr<geode::Hook> >, std::__ndk1::less<std::__ndk1::basic_string<char, std::__ndk1::char_traits<char>, std::__ndk1::allocator<char> > >, true>, std::__ndk1::allocator<std::__ndk1::__value_type<std::__ndk1::basic_string<char, std::__ndk1::char_traits<char>, std::__ndk1::allocator<char> >, std::__ndk1::shared_ptr<geode::Hook> > > >::erase(std::__ndk1::__tree_const_iterator<std::__ndk1::__value_type<std::__ndk1::basic_string<char, std::__ndk1::char_traits<char>, std::__ndk1::allocator<char> >, std::__ndk1::shared_ptr<geode::Hook> >, std::__ndk1::__tree_node<std::__ndk1::__value_type<std::__ndk1::basic_string<char, std::__ndk1::char_traits<char>, std::__ndk1::allocator<char> >, std::__ndk1::shared_ptr<geode::Hook> >, void*>*, long>)
FUNC 123280 84 0 std::__ndk1::__tree<std::__ndk1::__value_type<std::__ndk1::basic_string<char, std::__ndk1::char_traits<char>, std::__ndk1::allocator<char> >, std::__ndk1::shared_ptr<geode::Hook> >, std::__ndk1::__map_value_compare<std::__ndk1::basic_string<char, std::__ndk1::char_traits<char>, std::__ndk1::allocator<char> >, std::__ndk1::__value_type<std::__ndk1::basic_string<char, std::__ndk1::char_traits<char>, std::__ndk1::allocator<char> >, std::__ndk1::shared_ptr<geode::Hook> >, std::__ndk1::less<std::__ndk1::basic_string<char, std::__ndk1::char_traits<char>, std::__ndk1::allocator<char> > >, true>, std::__ndk1::allocator<std::__ndk1::__value_type<std::__ndk1::basic_string<char, std::__ndk1::char_traits<char>, std::__ndk1::allocator<char> >, std::__ndk1::shared_ptr<geode::Hook> > > >::destroy(std::__ndk1::__tree_node<std::__ndk1::__value_type<std::__ndk1::basic_string<char, std::__ndk1::char_traits<char>, std::__ndk1::allocator<char> >, std::__ndk1::shared_ptr<geode::Hook> >, void*>*)
FUNC 123304 330 0 geode::modifier::AsStaticFunction_init<CRBrowserLayer, bool (CRBrowserLayer::*)(GJSearchObject*)>::Impl<bool (CRBrowserLayer::*)(GJSearchObject*)>::function(CRBrowserLayer*, GJSearchObject*)
FUNC 123634 50 0 std::__ndk1::shared_ptr<tulip::hook::CallingConvention>::~shared_ptr[abi:ne180000]()
FUNC 123684 64 0 tulip::hook::HandlerMetadata::~HandlerMetadata()
FUNC 1236e8 918 0 CRBrowserLayer::onMyButton(cocos2d::CCObject*)
FUNC 124000 184 0 geode::Mod::getSettingValue<std::__ndk1::basic_string<char, std::__ndk1::char_traits<char>, std::__ndk1::allocator<char> > >(std::__ndk1::basic_string_view<char, std::__ndk1::char_traits<char> >) const
FUNC 124184 50 0 std::__ndk1::shared_ptr<geode::StringSettingV3>::~shared_ptr[abi:ne180000]()
FUNC 1241d4 74 0 geode::impl::ResultData<matjson::Value&, std::__ndk1::basic_string<char, std::__ndk1::char_traits<char>, std::__ndk1::allocator<char> > >::~ResultData()
FUNC 124248 4 0 std::__ndk1::__variant_detail::__visitation::__base::__dispatcher<(unsigned long)0>::__dispatch[abi:ne180000]<std::__ndk1::__variant_detail::__dtor<std::__ndk1::__variant_detail::__traits<std::__ndk1::reference_wrapper<matjson::Value>, std::__ndk1::basic_string<char, std::__ndk1::char_traits<char>, std::__ndk1::allocator<char> > >, (std::__ndk1::__variant_detail::_Trait)1>::__destroy[abi:ne180000]()::{lambda(auto:1&)#1}, std::__ndk1::__variant_detail::__base<(std::__ndk1::__variant_detail::__traits<std::__ndk1::reference_wrapper<matjson::Value>, std::__ndk1::basic_string<char, std::__ndk1::char_traits<char>, std::__ndk1::allocator<char> > >)1, matjson::Value, std::__ndk1::allocator<char> >&>(std::__ndk1::__variant_detail::__dtor<std::__ndk1::__variant_detail::__traits<std::__ndk1::reference_wrapper<matjson::Value>, std::__ndk1::basic_string<char, std::__ndk1::char_traits<char>, std::__ndk1::allocator<char> > >, (std::__ndk1::__variant_detail::_Trait)1>, std::__ndk1::__variant_detail::__base<(std::__ndk1::__variant_detail::__traits<std::__ndk1::reference_wrapper<matjson::Value>, std::__ndk1::basic_string<char, std::__ndk1::char_traits<char>, std::__ndk1::allocator<char> > >)1, matjson::Value, std::__ndk1::allocator<char> >&)
FUNC 12424c 14 0 std::__ndk1::__variant_detail::__visitation::__base::__dispatcher<(unsigned long)1>::__dispatch[abi:ne180000]<std::__ndk1::__variant_detail::__dtor<std::__ndk1::__variant_detail::__traits<std::__ndk1::reference_wrapper<matjson::Value>, std::__ndk1::basic_string<char, std::__ndk1::char_traits<char>, std::__ndk1::allocator<char> > >, (std::__ndk1::__variant_detail::_Trait)1>::__destroy[abi:ne180000]()::{lambda(auto:1&)#1}, std::__ndk1::__variant_detail::__base<(std::__ndk1::__variant_detail::__traits<std::__ndk1::reference_wrapper<matjson::Value>, std::__ndk1::basic_string<char, std::__ndk1::char_traits<char>, std::__ndk1::allocator<char> > >)1, matjson::Value, std::__ndk1::allocator<char> >&>(std::__ndk1::__variant_detail::__dtor<std::__ndk1::__variant_detail::__traits<std::__ndk1::reference_wrapper<matjson::Value>, std::__ndk1::basic_string<char, std::__ndk1::char_traits<char>, std::__ndk1::allocator<char> > >, (std::__ndk1::__variant_detail::_Trait)1>, std::__ndk1::__variant_detail::__base<(std::__ndk1::__variant_detail::__traits<std::__ndk1::reference_wrapper<matjson::Value>, std::__ndk1::basic_string<char, std::__ndk1::char_traits<char>, std::__ndk1::allocator<char> > >)1, matjson::Value, std::__ndk1::allocator<char> >&)
FUNC 124260 4 0 std::__ndk1::__variant_detail::__visitation::__base::__dispatcher<(unsigned long)0>::__dispatch[abi:ne180000]<std::__ndk1::__variant_detail::__dtor<std::__ndk1::__variant_detail::__traits<bool, std::__ndk1::basic_string<char, std::__ndk1::char_traits<char>, std::__ndk1::allocator<char> > >, (std::__ndk1::__variant_detail::_Trait)1>::__destroy[abi:ne180000]()::{lambda(auto:1&)#1}, std::__ndk1::__variant_detail::__base<(std::__ndk1::__variant_detail::__traits<bool, std::__ndk1::basic_string<char, std::__ndk1::char_traits<char>, std::__ndk1::allocator<char> > >)1, bool, std::__ndk1::allocator<char> >&>(std::__ndk1::__variant_detail::__dtor<std::__ndk1::__variant_detail::__traits<bool, std::__ndk1::basic_string<char, std::__ndk1::char_traits<char>, std::__ndk1::allocator<char> > >, (std::__ndk1::__variant_detail::_Trait)1>, std::__ndk1::__variant_detail::__base<(std::__ndk1::__variant_detail::__traits<bool, std::__ndk1::basic_string<char, std::__ndk1::char_traits<char>, std::__ndk1::allocator<char> > >)1, bool, std::__ndk1::allocator<char> >&)
FUNC 124264 14 0 std::__ndk1::__variant_detail::__visitation::__base::__dispatcher<(unsigned long)1>::__dispatch[abi:ne180000]<std::__ndk1::__variant_detail::__dtor<std::__ndk1::__variant_detail::__traits<bool, std::__ndk1::basic_string<char, std::__ndk1::char_traits<char>, std::__ndk1::allocator<char> > >, (std::__ndk1::__variant_detail::_Trait)1>::__destroy[abi:ne180000]()::{lambda(auto:1&)#1}, std::__ndk1::__variant_detail::__base<(std::__ndk1::__variant_detail::__traits<bool, std::__ndk1::basic_string<char, std::__ndk1::char_traits<char>, std::__ndk1::allocator<char> > >)1, bool, std::__ndk1::allocator<char> >&>(std::__ndk1::__variant_detail::__dtor<std::__ndk1::__variant_detail::__traits<bool, std::__ndk1::basic_string<char, std::__ndk1::char_traits<char>, std::__ndk1::allocator<char> > >, (std::__ndk1::__variant_detail::_Trait)1>, std::__ndk1::__variant_detail::__base<(std::__ndk1::__variant_detail::__traits<bool, std::__ndk1::basic_string<char, std::__ndk1::char_traits<char>, std::__ndk1::allocator<char> > >)1, bool, std::__ndk1::allocator<char> >&)
FUNC 124278 4 0 std::__ndk1::__function::__func<CRBrowserLayer::onMyButton(cocos2d::CCObject*)::{lambda()#1}, std::__ndk1::allocator<CRBrowserLayer::onMyButton(cocos2d::CCObject*)::{lambda()#1}>, void ()>::~__func()
FUNC 12427c 24 0 std::__ndk1::__function::__func<CRBrowserLayer::onMyButton(cocos2d::CCObject*)::{lambda()#1}, std::__ndk1::allocator<CRBrowserLayer::onMyButton(cocos2d::CCObject*)::{lambda()#1}>, void ()>::__clone() const
FUNC 1242a0 10 0 std::__ndk1::__function::__func<CRBrowserLayer::onMyButton(cocos2d::CCObject*)::{lambda()#1}, std::__ndk1::allocator<CRBrowserLayer::onMyButton(cocos2d::CCObject*)::{lambda()#1}>, void ()>::__clone(std::__ndk1::__function::__base<void ()>*) const
FUNC 1242b0 4 0 std::__ndk1::__function::__func<CRBrowserLayer::onMyButton(cocos2d::CCObject*)::{lambda()#1}, std::__ndk1::allocator<CRBrowserLayer::onMyButton(cocos2d::CCObject*)::{lambda()#1}>, void ()>::destroy()
FUNC 1242b4 4 0 std::__ndk1::__function::__func<CRBrowserLayer::onMyButton(cocos2d::CCObject*)::{lambda()#1}, std::__ndk1::allocator<CRBrowserLayer::onMyButton(cocos2d::CCObject*)::{lambda()#1}>, void ()>::destroy_deallocate()
FUNC 1242b8 1c 0 std::__ndk1::__function::__func<CRBrowserLayer::onMyButton(cocos2d::CCObject*)::{lambda()#1}, std::__ndk1::allocator<CRBrowserLayer::onMyButton(cocos2d::CCObject*)::{lambda()#1}>, void ()>::operator()()
FUNC 1242d4 1c 0 std::__ndk1::__function::__func<CRBrowserLayer::onMyButton(cocos2d::CCObject*)::{lambda()#1}, std::__ndk1::allocator<CRBrowserLayer::onMyButton(cocos2d::CCObject*)::{lambda()#1}>, void ()>::target(std::type_info const&) const
FUNC 1242f0 c 0 std::__ndk1::__function::__func<CRBrowserLayer::onMyButton(cocos2d::CCObject*)::{lambda()#1}, std::__ndk1::allocator<CRBrowserLayer::onMyButton(cocos2d::CCObject*)::{lambda()#1}>, void ()>::target_type() const
FUNC 1242fc 104 0 std::__ndk1::__tree<std::__ndk1::__value_type<std::__ndk1::basic_string<char, std::__ndk1::char_traits<char>, std::__ndk1::allocator<char> >, std::__ndk1::shared_ptr<geode::Hook> >, std::__ndk1::__map_value_compare<std::__ndk1::basic_string<char, std::__ndk1::char_traits<char>, std::__ndk1::allocator<char> >, std::__ndk1::__value_type<std::__ndk1::basic_string<char, std::__ndk1::char_traits<char>, std::__ndk1::allocator<char> >, std::__ndk1::shared_ptr<geode::Hook> >, std::__ndk1::less<std::__ndk1::basic_string<char, std::__ndk1::char_traits<char>, std::__ndk1::allocator<char> > >, true>, std::__ndk1::allocator<std::__ndk1::__value_type<std::__ndk1::basic_string<char, std::__ndk1::char_traits<char>, std::__ndk1::allocator<char> >, std::__ndk1::shared_ptr<geode::Hook> > > >::__find_equal<std::__ndk1::basic_string<char, std::__ndk1::char_traits<char>, std::__ndk1::allocator<char> > >(std::__ndk1::__tree_end_node<std::__ndk1::__tree_node_base<void*>*>*&, std::__ndk1::basic_string<char, std::__ndk1::char_traits<char>, std::__ndk1::allocator<char> > const&)
FUNC 124400 19c 0 std::__ndk1::__tree_balance_after_insert[abi:ne180000]<std::__ndk1::__tree_node_base<void*>*>(std::__ndk1::__tree_node_base<void*>*, std::__ndk1::__tree_node_base<void*>*)
FUNC 12459c 690 0 geode::modifier::ModifyDerive<CREditorUI, EditorUI>::apply()
FUNC 124c2c 4 0 geode::modifier::ModifyBase<geode::modifier::ModifyDerive<CREditorUI, EditorUI> >::apply()
FUNC 124c30 21c 0 geode::modifier::AsStaticFunction_init<CREditorUI, bool (CREditorUI::*)(LevelEditorLayer*)>::Impl<bool (CREditorUI::*)(LevelEditorLayer*)>::function(CREditorUI*, LevelEditorLayer*)
FUNC 124e4c 58 0 geode::modifier::AsStaticFunction_showUI<CREditorUI, void (CREditorUI::*)(bool)>::Impl<void (CREditorUI::*)(bool)>::function(CREditorUI*, bool)
FUNC 124ea4 1c4 0 CREditorUI::updateTimer(float)
FUNC 125068 188 0 geode::modifier::FieldIntermediate<CREditorUI, EditorUI>::self()
FUNC 1251f0 430 0 geode::modifier::FieldContainer::getField(unsigned long)
FUNC 125620 10c 0 geode::modifier::FieldContainer::setField(unsigned long, unsigned long, std::__ndk1::function<void (void*)>)
FUNC 12572c 4 0 geode::modifier::FieldIntermediate<CREditorUI, EditorUI>::fieldDestructor(void*)
FUNC 125730 14 0 std::__ndk1::vector<void*, std::__ndk1::allocator<void*> >::__throw_length_error[abi:ne180000]() const
FUNC 125744 14 0 std::__ndk1::vector<std::__ndk1::function<void (void*)>, std::__ndk1::allocator<std::__ndk1::function<void (void*)> > >::__throw_length_error[abi:ne180000]() const
FUNC 125758 14 0 std::__ndk1::vector<void*, std::__ndk1::allocator<void*> >::__throw_out_of_range[abi:ne180000]() const
FUNC 12576c 14 0 std::__ndk1::vector<std::__ndk1::function<void (void*)>, std::__ndk1::allocator<std::__ndk1::function<void (void*)> > >::__throw_out_of_range[abi:ne180000]() const
FUNC 125780 4 0 std::__ndk1::__function::__base<void (void*)>::~__base()
FUNC 125784 4 0 std::__ndk1::__function::__func<void (*)(void*), std::__ndk1::allocator<void (*)(void*)>, void (void*)>::~__func()
FUNC 125788 38 0 std::__ndk1::__function::__func<void (*)(void*), std::__ndk1::allocator<void (*)(void*)>, void (void*)>::__clone() const
FUNC 1257c0 18 0 std::__ndk1::__function::__func<void (*)(void*), std::__ndk1::allocator<void (*)(void*)>, void (void*)>::__clone(std::__ndk1::__function::__base<void (void*)>*) const
FUNC 1257d8 4 0 std::__ndk1::__function::__func<void (*)(void*), std::__ndk1::allocator<void (*)(void*)>, void (void*)>::destroy()
FUNC 1257dc 4 0 std::__ndk1::__function::__func<void (*)(void*), std::__ndk1::allocator<void (*)(void*)>, void (void*)>::destroy_deallocate()
FUNC 1257e0 10 0 std::__ndk1::__function::__func<void (*)(void*), std::__ndk1::allocator<void (*)(void*)>, void (void*)>::operator()(void*&&)
FUNC 1257f0 1c 0 std::__ndk1::__function::__func<void (*)(void*), std::__ndk1::allocator<void (*)(void*)>, void (void*)>::target(std::type_info const&) const
FUNC 12580c c 0 std::__ndk1::__function::__func<void (*)(void*), std::__ndk1::allocator<void (*)(void*)>, void (void*)>::target_type() const
FUNC 125818 13a4 0 fmt::v11::detail::value<fmt::v11::context>::format_custom_arg<std::__ndk1::chrono::duration<int, std::__ndk1::ratio<(long)1, (long)1> >, fmt::v11::formatter<std::__ndk1::chrono::duration<int, std::__ndk1::ratio<(long)1, (long)1> >, char, void> >(void*, fmt::v11::basic_format_parse_context<char>&, fmt::v11::context&)
FUNC 126bbc 1a4 0 fmt::v11::detail::parse_dynamic_spec<char>(char const*, char const*, int&, fmt::v11::detail::arg_ref<char>&, fmt::v11::basic_format_parse_context<char>&)
FUNC 126d60 17c 0 fmt::v11::detail::do_parse_arg_id<char, fmt::v11::detail::dynamic_spec_id_handler<char>&>(char const*, char const*, fmt::v11::detail::dynamic_spec_id_handler<char>&)
FUNC 126edc 2c 0 fmt::v11::format_error::runtime_error(char const*)
FUNC 126f08 24 0 fmt::v11::format_error::~format_error()
FUNC 126f2c 50 0 fmt::v11::detail::chrono_format_checker::unsupported()
FUNC 126f7c 114 0 fmt::v11::detail::handle_dynamic_spec<fmt::v11::detail::width_checker, fmt::v11::context>(int&, fmt::v11::detail::arg_ref<fmt::v11::context::char_type>, fmt::v11::context&)
FUNC 127090 114 0 fmt::v11::detail::handle_dynamic_spec<fmt::v11::detail::precision_checker, fmt::v11::context>(int&, fmt::v11::detail::arg_ref<fmt::v11::context::char_type>, fmt::v11::context&)
FUNC 1271a4 27c 0 fmt::v11::detail::write<char, fmt::v11::basic_appender<char> >(fmt::v11::basic_appender<char>, fmt::v11::basic_string_view<char>, fmt::v11::format_specs const&)
FUNC 127420 78 0 fmt::v11::basic_memory_buffer<char, (unsigned long)500, std::__ndk1::allocator<char> >::grow(fmt::v11::detail::buffer<char>&, unsigned long)
FUNC 127498 94 0 fmt::v11::detail::get_dynamic_spec<fmt::v11::detail::width_checker, fmt::v11::basic_format_arg<fmt::v11::context> >(fmt::v11::basic_format_arg<fmt::v11::context>)
FUNC 12752c 158 0 fmt::v11::basic_format_args<fmt::v11::context>::get<char>(fmt::v11::basic_string_view<char>) const
FUNC 127684 94 0 fmt::v11::detail::get_dynamic_spec<fmt::v11::detail::precision_checker, fmt::v11::basic_format_arg<fmt::v11::context> >(fmt::v11::basic_format_arg<fmt::v11::context>)
FUNC 127718 150 0 fmt::v11::detail::copy_noinline<char, char*, std::__ndk1::back_insert_iterator<fmt::v11::basic_memory_buffer<char, (unsigned long)500, std::__ndk1::allocator<char> > > >(char*, char*, std::__ndk1::back_insert_iterator<fmt::v11::basic_memory_buffer<char, (unsigned long)500, std::__ndk1::allocator<char> > >)
FUNC 127868 a0 0 fmt::v11::detail::chrono_formatter<fmt::v11::context, std::__ndk1::back_insert_iterator<fmt::v11::basic_memory_buffer<char, (unsigned long)500, std::__ndk1::allocator<char> > >, int, std::__ndk1::ratio<(long)1, (long)1> >::on_12_hour(fmt::v11::detail::numeric_system, fmt::v11::detail::pad_type)
FUNC 127908 1d0 0 fmt::v11::detail::chrono_formatter<fmt::v11::context, std::__ndk1::back_insert_iterator<fmt::v11::basic_memory_buffer<char, (unsigned long)500, std::__ndk1::allocator<char> > >, int, std::__ndk1::ratio<(long)1, (long)1> >::write(int, int, fmt::v11::detail::pad_type)
FUNC 127ad8 1c0 0 fmt::v11::detail::chrono_formatter<fmt::v11::context, std::__ndk1::back_insert_iterator<fmt::v11::basic_memory_buffer<char, (unsigned long)500, std::__ndk1::allocator<char> > >, int, std::__ndk1::ratio<(long)1, (long)1> >::format_tm<void (fmt::v11::detail::tm_writer<std::__ndk1::back_insert_iterator<fmt::v11::basic_memory_buffer<char, (unsigned long)500, std::__ndk1::allocator<char> > >, char, std::__ndk1::chrono::duration<long long, std::__ndk1::ratio<(long)1, (long)1> > >::*)(fmt::v11::detail::numeric_system, fmt::v11::detail::pad_type), fmt::v11::detail::numeric_system, fmt::v11::detail::pad_type>(tm const&, void (fmt::v11::detail::tm_writer<std::__ndk1::back_insert_iterator<fmt::v11::basic_memory_buffer<char, (unsigned long)500, std::__ndk1::allocator<char> > >, char, std::__ndk1::chrono::duration<long long, std::__ndk1::ratio<(long)1, (long)1> > >::*)(fmt::v11::detail::numeric_system, fmt::v11::detail::pad_type), fmt::v11::detail::numeric_system, fmt::v11::detail::pad_type)
FUNC 127c98 24 0 fmt::v11::detail::tm_writer<std::__ndk1::back_insert_iterator<fmt::v11::basic_memory_buffer<char, (unsigned long)500, std::__ndk1::allocator<char> > >, char, std::__ndk1::chrono::duration<long long, std::__ndk1::ratio<(long)1, (long)1> > >::on_24_hour(fmt::v11::detail::numeric_system, fmt::v11::detail::pad_type)
FUNC 127cbc 14c 0 fmt::v11::detail::tm_writer<std::__ndk1::back_insert_iterator<fmt::v11::basic_memory_buffer<char, (unsigned long)500, std::__ndk1::allocator<char> > >, char, std::__ndk1::chrono::duration<long long, std::__ndk1::ratio<(long)1, (long)1> > >::write2(int, fmt::v11::detail::pad_type)
FUNC 127e08 978 0 fmt::v11::detail::tm_writer<std::__ndk1::back_insert_iterator<fmt::v11::basic_memory_buffer<char, (unsigned long)500, std::__ndk1::allocator<char> > >, char, std::__ndk1::chrono::duration<long long, std::__ndk1::ratio<(long)1, (long)1> > >::format_localized(char, char)
FUNC 128780 24 0 fmt::v11::detail::formatbuf<std::__ndk1::basic_streambuf<char, std::__ndk1::char_traits<char> > >::~formatbuf()
FUNC 1287a4 158 0 fmt::v11::detail::formatbuf<std::__ndk1::basic_streambuf<char, std::__ndk1::char_traits<char> > >::xsputn(char const*, long)
FUNC 1288fc 5c 0 fmt::v11::detail::formatbuf<std::__ndk1::basic_streambuf<char, std::__ndk1::char_traits<char> > >::overflow(int)
FUNC 128958 78 0 fmt::v11::basic_memory_buffer<char, (unsigned long)128, std::__ndk1::allocator<char> >::grow(fmt::v11::detail::buffer<char>&, unsigned long)
FUNC 1289d0 38 0 fmt::v11::detail::tm_writer<std::__ndk1::back_insert_iterator<fmt::v11::basic_memory_buffer<char, (unsigned long)500, std::__ndk1::allocator<char> > >, char, std::__ndk1::chrono::duration<long long, std::__ndk1::ratio<(long)1, (long)1> > >::on_12_hour(fmt::v11::detail::numeric_system, fmt::v11::detail::pad_type)
FUNC 128a08 24 0 fmt::v11::detail::tm_writer<std::__ndk1::back_insert_iterator<fmt::v11::basic_memory_buffer<char, (unsigned long)500, std::__ndk1::allocator<char> > >, char, std::__ndk1::chrono::duration<long long, std::__ndk1::ratio<(long)1, (long)1> > >::on_minute(fmt::v11::detail::numeric_system, fmt::v11::detail::pad_type)
FUNC 128a2c 24 0 fmt::v11::detail::tm_writer<std::__ndk1::back_insert_iterator<fmt::v11::basic_memory_buffer<char, (unsigned long)500, std::__ndk1::allocator<char> > >, char, std::__ndk1::chrono::duration<long long, std::__ndk1::ratio<(long)1, (long)1> > >::on_second(fmt::v11::detail::numeric_system, fmt::v11::detail::pad_type)
FUNC 128a50 1b4 0 fmt::v11::detail::chrono_formatter<fmt::v11::context, std::__ndk1::back_insert_iterator<fmt::v11::basic_memory_buffer<char, (unsigned long)500, std::__ndk1::allocator<char> > >, int, std::__ndk1::ratio<(long)1, (long)1> >::format_tm<void (fmt::v11::detail::tm_writer<std::__ndk1::back_insert_iterator<fmt::v11::basic_memory_buffer<char, (unsigned long)500, std::__ndk1::allocator<char> > >, char, std::__ndk1::chrono::duration<long long, std::__ndk1::ratio<(long)1, (long)1> > >::*)(), >(tm const&, void (fmt::v11::detail::tm_writer<std::__ndk1::back_insert_iterator<fmt::v11::basic_memory_buffer<char, (unsigned long)500, std::__ndk1::allocator<char> > >, char, std::__ndk1::chrono::duration<long long, std::__ndk1::ratio<(long)1, (long)1> > >::*)(), )
FUNC 128c04 26c 0 fmt::v11::detail::tm_writer<std::__ndk1::back_insert_iterator<fmt::v11::basic_memory_buffer<char, (unsigned long)500, std::__ndk1::allocator<char> > >, char, std::__ndk1::chrono::duration<long long, std::__ndk1::ratio<(long)1, (long)1> > >::on_12_hour_time()
FUNC 128e70 c0 0 fmt::v11::detail::tm_writer<std::__ndk1::back_insert_iterator<fmt::v11::basic_memory_buffer<char, (unsigned long)500, std::__ndk1::allocator<char> > >, char, std::__ndk1::chrono::duration<long long, std::__ndk1::ratio<(long)1, (long)1> > >::on_am_pm()
FUNC 128f30 200 0 fmt::v11::detail::write_escaped_string<char, fmt::v11::detail::counting_iterator>(fmt::v11::detail::counting_iterator, fmt::v11::basic_string_view<char>)
FUNC 129130 20c 0 fmt::v11::detail::write_padded<char, (fmt::v11::align::type)1, fmt::v11::basic_appender<char>, fmt::v11::detail::write<char, fmt::v11::basic_appender<char> >(fmt::v11::basic_appender<char>, fmt::v11::basic_string_view<char>, fmt::v11::format_specs const&)::{lambda(fmt::v11::basic_appender<char>)#1}>(fmt::v11::basic_appender<char>, fmt::v11::format_specs const&, unsigned long, unsigned long, fmt::v11::detail::write<char, fmt::v11::basic_appender<char> >(fmt::v11::basic_appender<char>, fmt::v11::basic_string_view<char>, fmt::v11::format_specs const&)::{lambda(fmt::v11::basic_appender<char>&&)#1})
FUNC 12933c 3ac 0 fmt::v11::detail::for_each_codepoint<fmt::v11::detail::code_point_index(fmt::v11::basic_string_view<char>, unsigned long)::{lambda(unsigned int, fmt::v11::basic_string_view<char>)#1}>(fmt::v11::basic_string_view<char>, fmt::v11::detail::code_point_index(fmt::v11::basic_string_view<char>, unsigned long)::{lambda(unsigned int, fmt::v11::basic_string_view<char>)#1})
FUNC 1296e8 194 0 fmt::v11::detail::write_escaped_cp<fmt::v11::detail::counting_iterator, char>(fmt::v11::detail::counting_iterator, fmt::v11::detail::find_escape_result<char> const&)
FUNC 12987c 17c 0 fmt::v11::detail::for_each_codepoint<fmt::v11::detail::find_escape(char const*, char const*)::{lambda(unsigned int, fmt::v11::basic_string_view<char>)#1}>(fmt::v11::basic_string_view<char>, fmt::v11::detail::find_escape(char const*, char const*)::{lambda(unsigned int, fmt::v11::basic_string_view<char>)#1})::{lambda(char const*, char const*)#1}::operator()(char const*, char const*) const
FUNC 1299f8 1b8 0 fmt::v11::detail::for_each_codepoint<fmt::v11::detail::compute_width(fmt::v11::basic_string_view<char>)::count_code_points>(fmt::v11::basic_string_view<char>, fmt::v11::detail::compute_width(fmt::v11::basic_string_view<char>)::count_code_points)::{lambda(char const*, char const*)#1}::operator()(char const*, char const*) const
FUNC 129bb0 1d0 0 fmt::v11::detail::fill<char, fmt::v11::basic_appender<char> >(fmt::v11::basic_appender<char>, unsigned long, fmt::v11::detail::fill_t const&)
FUNC 129d80 380 0 fmt::v11::detail::write_escaped_string<char, fmt::v11::basic_appender<char> >(fmt::v11::basic_appender<char>, fmt::v11::basic_string_view<char>)
FUNC 12a100 1e4 0 fmt::v11::detail::write_escaped_cp<fmt::v11::basic_appender<char>, char>(fmt::v11::basic_appender<char>, fmt::v11::detail::find_escape_result<char> const&)
FUNC 12a2e4 178 0 fmt::v11::detail::write_codepoint<(unsigned long)2, char, fmt::v11::basic_appender<char> >(fmt::v11::basic_appender<char>, char, unsigned int)
FUNC 12a45c 178 0 fmt::v11::detail::write_codepoint<(unsigned long)4, char, fmt::v11::basic_appender<char> >(fmt::v11::basic_appender<char>, char, unsigned int)
FUNC 12a5d4 178 0 fmt::v11::detail::write_codepoint<(unsigned long)8, char, fmt::v11::basic_appender<char> >(fmt::v11::basic_appender<char>, char, unsigned int)
FUNC 12a74c 3a4 0 geode::modifier::ModifyDerive<CRLvlInfoLayer, LevelInfoLayer>::apply()
FUNC 12aaf0 4 0 geode::modifier::ModifyBase<geode::modifier::ModifyDerive<CRLvlInfoLayer, LevelInfoLayer> >::apply()
FUNC 12aaf4 4 0 geode::modifier::AsStaticFunction_onPlay<CRLvlInfoLayer, void (CRLvlInfoLayer::*)(cocos2d::CCObject*)>::Impl<void (CRLvlInfoLayer::*)(cocos2d::CCObject*)>::function(CRLvlInfoLayer*, cocos2d::CCObject*)
FUNC 12aaf8 254 0 CRLvlInfoLayer::onPlay(cocos2d::CCObject*)
FUNC 12ad4c 188 0 geode::modifier::FieldIntermediate<CRLvlInfoLayer, LevelInfoLayer>::self()
FUNC 12aed4 4 0 geode::modifier::FieldIntermediate<CRLvlInfoLayer, LevelInfoLayer>::fieldDestructor(void*)
FUNC 12aed8 4 0 std::__ndk1::__function::__func<CRLvlInfoLayer::onPlay(cocos2d::CCObject*)::{lambda(auto:1, bool)#1}, std::__ndk1::allocator<CRLvlInfoLayer::onPlay(cocos2d::CCObject*)::{lambda(auto:1, bool)#1}>, void (FLAlertLayer*, bool)>::~__func()
FUNC 12aedc 38 0 std::__ndk1::__function::__func<CRLvlInfoLayer::onPlay(cocos2d::CCObject*)::{lambda(auto:1, bool)#1}, std::__ndk1::allocator<CRLvlInfoLayer::onPlay(cocos2d::CCObject*)::{lambda(auto:1, bool)#1}>, void (FLAlertLayer*, bool)>::__clone() const
FUNC 12af14 18 0 std::__ndk1::__function::__func<CRLvlInfoLayer::onPlay(cocos2d::CCObject*)::{lambda(auto:1, bool)#1}, std::__ndk1::allocator<CRLvlInfoLayer::onPlay(cocos2d::CCObject*)::{lambda(auto:1, bool)#1}>, void (FLAlertLayer*, bool)>::__clone(std::__ndk1::__function::__base<void (FLAlertLayer*, bool)>*) const
FUNC 12af2c 4 0 std::__ndk1::__function::__func<CRLvlInfoLayer::onPlay(cocos2d::CCObject*)::{lambda(auto:1, bool)#1}, std::__ndk1::allocator<CRLvlInfoLayer::onPlay(cocos2d::CCObject*)::{lambda(auto:1, bool)#1}>, void (FLAlertLayer*, bool)>::destroy()
FUNC 12af30 4 0 std::__ndk1::__function::__func<CRLvlInfoLayer::onPlay(cocos2d::CCObject*)::{lambda(auto:1, bool)#1}, std::__ndk1::allocator<CRLvlInfoLayer::onPlay(cocos2d::CCObject*)::{lambda(auto:1, bool)#1}>, void (FLAlertLayer*, bool)>::destroy_deallocate()
FUNC 12af34 48 0 std::__ndk1::__function::__func<CRLvlInfoLayer::onPlay(cocos2d::CCObject*)::{lambda(auto:1, bool)#1}, std::__ndk1::allocator<CRLvlInfoLayer::onPlay(cocos2d::CCObject*)::{lambda(auto:1, bool)#1}>, void (FLAlertLayer*, bool)>::operator()(FLAlertLayer*&&, bool&&)
FUNC 12af7c 1c 0 std::__ndk1::__function::__func<CRLvlInfoLayer::onPlay(cocos2d::CCObject*)::{lambda(auto:1, bool)#1}, std::__ndk1::allocator<CRLvlInfoLayer::onPlay(cocos2d::CCObject*)::{lambda(auto:1, bool)#1}>, void (FLAlertLayer*, bool)>::target(std::type_info const&) const
FUNC 12af98 c 0 std::__ndk1::__function::__func<CRLvlInfoLayer::onPlay(cocos2d::CCObject*)::{lambda(auto:1, bool)#1}, std::__ndk1::allocator<CRLvlInfoLayer::onPlay(cocos2d::CCObject*)::{lambda(auto:1, bool)#1}>, void (FLAlertLayer*, bool)>::target_type() const
FUNC 12afa4 3a4 0 geode::modifier::ModifyDerive<hook216<(anonymous namespace)::hook216Parent>, EditorPauseLayer>::apply()
FUNC 12b348 4 0 geode::modifier::ModifyBase<geode::modifier::ModifyDerive<hook216<(anonymous namespace)::hook216Parent>, EditorPauseLayer> >::apply()
FUNC 12b34c 2e0 0 geode::modifier::AsStaticFunction_init<hook216<(anonymous namespace)::hook216Parent>, bool (hook216<(anonymous namespace)::hook216Parent>::*)(LevelEditorLayer*)>::Impl<bool (hook216<(anonymous namespace)::hook216Parent>::*)(LevelEditorLayer*)>::function(hook216<(anonymous namespace)::hook216Parent>*, LevelEditorLayer*)
FUNC 12b62c 4 0 std::__ndk1::__function::__func<hook216<(anonymous namespace)::hook216Parent>::init(LevelEditorLayer*)::{lambda(cocos2d::CCObject*)#1}, std::__ndk1::allocator<hook216<(anonymous namespace)::hook216Parent>::init(LevelEditorLayer*)::{lambda(cocos2d::CCObject*)#1}>, void (CCMenuItemSpriteExtra*)>::~__func()
FUNC 12b630 24 0 std::__ndk1::__function::__func<hook216<(anonymous namespace)::hook216Parent>::init(LevelEditorLayer*)::{lambda(cocos2d::CCObject*)#1}, std::__ndk1::allocator<hook216<(anonymous namespace)::hook216Parent>::init(LevelEditorLayer*)::{lambda(cocos2d::CCObject*)#1}>, void (CCMenuItemSpriteExtra*)>::__clone() const
FUNC 12b654 10 0 std::__ndk1::__function::__func<hook216<(anonymous namespace)::hook216Parent>::init(LevelEditorLayer*)::{lambda(cocos2d::CCObject*)#1}, std::__ndk1::allocator<hook216<(anonymous namespace)::hook216Parent>::init(LevelEditorLayer*)::{lambda(cocos2d::CCObject*)#1}>, void (CCMenuItemSpriteExtra*)>::__clone(std::__ndk1::__function::__base<void (CCMenuItemSpriteExtra*)>*) const
FUNC 12b664 4 0 std::__ndk1::__function::__func<hook216<(anonymous namespace)::hook216Parent>::init(LevelEditorLayer*)::{lambda(cocos2d::CCObject*)#1}, std::__ndk1::allocator<hook216<(anonymous namespace)::hook216Parent>::init(LevelEditorLayer*)::{lambda(cocos2d::CCObject*)#1}>, void (CCMenuItemSpriteExtra*)>::destroy()
FUNC 12b668 4 0 std::__ndk1::__function::__func<hook216<(anonymous namespace)::hook216Parent>::init(LevelEditorLayer*)::{lambda(cocos2d::CCObject*)#1}, std::__ndk1::allocator<hook216<(anonymous namespace)::hook216Parent>::init(LevelEditorLayer*)::{lambda(cocos2d::CCObject*)#1}>, void (CCMenuItemSpriteExtra*)>::destroy_deallocate()
FUNC 12b66c 1c 0 std::__ndk1::__function::__func<hook216<(anonymous namespace)::hook216Parent>::init(LevelEditorLayer*)::{lambda(cocos2d::CCObject*)#1}, std::__ndk1::allocator<hook216<(anonymous namespace)::hook216Parent>::init(LevelEditorLayer*)::{lambda(cocos2d::CCObject*)#1}>, void (CCMenuItemSpriteExtra*)>::operator()(CCMenuItemSpriteExtra*&&)
FUNC 12b688 1c 0 std::__ndk1::__function::__func<hook216<(anonymous namespace)::hook216Parent>::init(LevelEditorLayer*)::{lambda(cocos2d::CCObject*)#1}, std::__ndk1::allocator<hook216<(anonymous namespace)::hook216Parent>::init(LevelEditorLayer*)::{lambda(cocos2d::CCObject*)#1}>, void (CCMenuItemSpriteExtra*)>::target(std::type_info const&) const
FUNC 12b6a4 c 0 std::__ndk1::__function::__func<hook216<(anonymous namespace)::hook216Parent>::init(LevelEditorLayer*)::{lambda(cocos2d::CCObject*)#1}, std::__ndk1::allocator<hook216<(anonymous namespace)::hook216Parent>::init(LevelEditorLayer*)::{lambda(cocos2d::CCObject*)#1}>, void (CCMenuItemSpriteExtra*)>::target_type() const
FUNC 12b6b0 5b8 0 AuthManager::AuthManager()
FUNC 12bc68 fc4 0 AuthManager::beginAuthorization(std::__ndk1::function<void ()>)
FUNC 12cc2c cc 0 cr::utils::createAccountType()
FUNC 12ccf8 1044 0 AuthManager::login(std::__ndk1::function<void ()>)
FUNC 12dd3c 25c 0 AuthManager::getToken()
FUNC 12df98 aec 0 AuthManager::uploadMessageFinished(int)
FUNC 12ea84 78 0 AuthManager::uploadMessageFailed(int)
FUNC 12eafc 74 0 geode::impl::ResultData<std::__ndk1::basic_string<char, std::__ndk1::char_traits<char>, std::__ndk1::allocator<char> >, std::__ndk1::basic_string<char, std::__ndk1::char_traits<char>, std::__ndk1::allocator<char> > >::~ResultData()
FUNC 12eb70 14 0 std::__ndk1::__variant_detail::__visitation::__base::__dispatcher<(unsigned long)0>::__dispatch[abi:ne180000]<std::__ndk1::__variant_detail::__dtor<std::__ndk1::__variant_detail::__traits<std::__ndk1::basic_string<char, std::__ndk1::char_traits<char>, std::__ndk1::allocator<char> >, std::__ndk1::allocator<char> >, (std::__ndk1::__variant_detail::_Trait)1>::__destroy[abi:ne180000]()::{lambda(auto:1&)#1}, std::__ndk1::__variant_detail::__base<(std::__ndk1::__variant_detail::__traits<std::__ndk1::basic_string<char, std::__ndk1::char_traits<char>, std::__ndk1::allocator<char> >, std::__ndk1::allocator<char> >)1, std::__ndk1::allocator<char>, std::__ndk1::allocator<char> >&>(std::__ndk1::__variant_detail::__dtor<std::__ndk1::__variant_detail::__traits<std::__ndk1::basic_string<char, std::__ndk1::char_traits<char>, std::__ndk1::allocator<char> >, std::__ndk1::allocator<char> >, (std::__ndk1::__variant_detail::_Trait)1>, std::__ndk1::__variant_detail::__base<(std::__ndk1::__variant_detail::__traits<std::__ndk1::basic_string<char, std::__ndk1::char_traits<char>, std::__ndk1::allocator<char> >, std::__ndk1::allocator<char> >)1, std::__ndk1::allocator<char>, std::__ndk1::allocator<char> >&)
FUNC 12eb84 14 0 std::__ndk1::__variant_detail::__visitation::__base::__dispatcher<(unsigned long)1>::__dispatch[abi:ne180000]<std::__ndk1::__variant_detail::__dtor<std::__ndk1::__variant_detail::__traits<std::__ndk1::basic_string<char, std::__ndk1::char_traits<char>, std::__ndk1::allocator<char> >, std::__ndk1::allocator<char> >, (std::__ndk1::__variant_detail::_Trait)1>::__destroy[abi:ne180000]()::{lambda(auto:1&)#1}, std::__ndk1::__variant_detail::__base<(std::__ndk1::__variant_detail::__traits<std::__ndk1::basic_string<char, std::__ndk1::char_traits<char>, std::__ndk1::allocator<char> >, std::__ndk1::allocator<char> >)1, std::__ndk1::allocator<char>, std::__ndk1::allocator<char> >&>(std::__ndk1::__variant_detail::__dtor<std::__ndk1::__variant_detail::__traits<std::__ndk1::basic_string<char, std::__ndk1::char_traits<char>, std::__ndk1::allocator<char> >, std::__ndk1::allocator<char> >, (std::__ndk1::__variant_detail::_Trait)1>, std::__ndk1::__variant_detail::__base<(std::__ndk1::__variant_detail::__traits<std::__ndk1::basic_string<char, std::__ndk1::char_traits<char>, std::__ndk1::allocator<char> >, std::__ndk1::allocator<char> >)1, std::__ndk1::allocator<char>, std::__ndk1::allocator<char> >&)
FUNC 12eb98 44 0 _ZNSt6__ndk110__function6__funcIZN14NetworkManager2onI18InvalidTokenPacketQsr3stdE12is_base_of_vI6PacketT_EEEvNS_8functionIFvPS6_EEEbEUlNS_12basic_stringIcNS_11char_traitsIcEENS_9allocatorIcEEEEE_NSE_ISH_EEFvSG_EED2Ev
FUNC 12ebdc 5c 0 _ZNSt6__ndk110__function6__funcIZN14NetworkManager2onI18InvalidTokenPacketQsr3stdE12is_base_of_vI6PacketT_EEEvNS_8functionIFvPS6_EEEbEUlNS_12basic_stringIcNS_11char_traitsIcEENS_9allocatorIcEEEEE_NSE_ISH_EEFvSG_EED0Ev
FUNC 12ec38 88 0 _ZNKSt6__ndk110__function6__funcIZN14NetworkManager2onI18InvalidTokenPacketQsr3stdE12is_base_of_vI6PacketT_EEEvNS_8functionIFvPS6_EEEbEUlNS_12basic_stringIcNS_11char_traitsIcEENS_9allocatorIcEEEEE_NSE_ISH_EEFvSG_EE7__cloneEv
FUNC 12ecc0 74 0 _ZNKSt6__ndk110__function6__funcIZN14NetworkManager2onI18InvalidTokenPacketQsr3stdE12is_base_of_vI6PacketT_EEEvNS_8functionIFvPS6_EEEbEUlNS_12basic_stringIcNS_11char_traitsIcEENS_9allocatorIcEEEEE_NSE_ISH_EEFvSG_EE7__cloneEPNS0_6__baseISJ_EE
FUNC 12ed34 38 0 _ZNSt6__ndk110__function6__funcIZN14NetworkManager2onI18InvalidTokenPacketQsr3stdE12is_base_of_vI6PacketT_EEEvNS_8functionIFvPS6_EEEbEUlNS_12basic_stringIcNS_11char_traitsIcEENS_9allocatorIcEEEEE_NSE_ISH_EEFvSG_EE7destroyEv
FUNC 12ed6c 50 0 _ZNSt6__ndk110__function6__funcIZN14NetworkManager2onI18InvalidTokenPacketQsr3stdE12is_base_of_vI6PacketT_EEEvNS_8functionIFvPS6_EEEbEUlNS_12basic_stringIcNS_11char_traitsIcEENS_9allocatorIcEEEEE_NSE_ISH_EEFvSG_EE18destroy_deallocateEv
FUNC 12edbc 3bc 0 _ZNSt6__ndk110__function6__funcIZN14NetworkManager2onI18InvalidTokenPacketQsr3stdE12is_base_of_vI6PacketT_EEEvNS_8functionIFvPS6_EEEbEUlNS_12basic_stringIcNS_11char_traitsIcEENS_9allocatorIcEEEEE_NSE_ISH_EEFvSG_EEclEOSG_
FUNC 12f178 1c 0 _ZNKSt6__ndk110__function6__funcIZN14NetworkManager2onI18InvalidTokenPacketQsr3stdE12is_base_of_vI6PacketT_EEEvNS_8functionIFvPS6_EEEbEUlNS_12basic_stringIcNS_11char_traitsIcEENS_9allocatorIcEEEEE_NSE_ISH_EEFvSG_EE6targetERKSt9type_info
FUNC 12f194 c 0 _ZNKSt6__ndk110__function6__funcIZN14NetworkManager2onI18InvalidTokenPacketQsr3stdE12is_base_of_vI6PacketT_EEEvNS_8functionIFvPS6_EEEbEUlNS_12basic_stringIcNS_11char_traitsIcEENS_9allocatorIcEEEEE_NSE_ISH_EEFvSG_EE11target_typeEv
FUNC 12f1a0 4 0 InvalidTokenPacket::decode(std::__ndk1::basic_string<char, std::__ndk1::char_traits<char>, std::__ndk1::allocator<char> >)
FUNC 12f1a4 8 0 InvalidTokenPacket::getPacketID() const
FUNC 12f1ac c 0 InvalidTokenPacket::getPacketName() const
FUNC 12f1b8 44 0 _ZNSt6__ndk110__function6__funcIZZN14NetworkManager2onI18InvalidTokenPacketQsr3stdE12is_base_of_vI6PacketT_EEEvNS_8functionIFvPS6_EEEbENKUlNS_12basic_stringIcNS_11char_traitsIcEENS_9allocatorIcEEEEE_clESG_EUlvE_NSE_ISI_EEFvvEED2Ev
FUNC 12f1fc 5c 0 _ZNSt6__ndk110__function6__funcIZZN14NetworkManager2onI18InvalidTokenPacketQsr3stdE12is_base_of_vI6PacketT_EEEvNS_8functionIFvPS6_EEEbENKUlNS_12basic_stringIcNS_11char_traitsIcEENS_9allocatorIcEEEEE_clESG_EUlvE_NSE_ISI_EEFvvEED0Ev
FUNC 12f258 90 0 _ZNKSt6__ndk110__function6__funcIZZN14NetworkManager2onI18InvalidTokenPacketQsr3stdE12is_base_of_vI6PacketT_EEEvNS_8functionIFvPS6_EEEbENKUlNS_12basic_stringIcNS_11char_traitsIcEENS_9allocatorIcEEEEE_clESG_EUlvE_NSE_ISI_EEFvvEE7__cloneEv
FUNC 12f2e8 78 0 _ZNKSt6__ndk110__function6__funcIZZN14NetworkManager2onI18InvalidTokenPacketQsr3stdE12is_base_of_vI6PacketT_EEEvNS_8functionIFvPS6_EEEbENKUlNS_12basic_stringIcNS_11char_traitsIcEENS_9allocatorIcEEEEE_clESG_EUlvE_NSE_ISI_EEFvvEE7__cloneEPNS0_6__baseISK_EE
FUNC 12f360 38 0 _ZNSt6__ndk110__function6__funcIZZN14NetworkManager2onI18InvalidTokenPacketQsr3stdE12is_base_of_vI6PacketT_EEEvNS_8functionIFvPS6_EEEbENKUlNS_12basic_stringIcNS_11char_traitsIcEENS_9allocatorIcEEEEE_clESG_EUlvE_NSE_ISI_EEFvvEE7destroyEv
FUNC 12f398 50 0 _ZNSt6__ndk110__function6__funcIZZN14NetworkManager2onI18InvalidTokenPacketQsr3stdE12is_base_of_vI6PacketT_EEEvNS_8functionIFvPS6_EEEbENKUlNS_12basic_stringIcNS_11char_traitsIcEENS_9allocatorIcEEEEE_clESG_EUlvE_NSE_ISI_EEFvvEE18destroy_deallocateEv
FUNC 12f3e8 74 0 _ZNSt6__ndk110__function6__funcIZZN14NetworkManager2onI18InvalidTokenPacketQsr3stdE12is_base_of_vI6PacketT_EEEvNS_8functionIFvPS6_EEEbENKUlNS_12basic_stringIcNS_11char_traitsIcEENS_9allocatorIcEEEEE_clESG_EUlvE_NSE_ISI_EEFvvEEclEv
FUNC 12f45c 1c 0 _ZNKSt6__ndk110__function6__funcIZZN14NetworkManager2onI18InvalidTokenPacketQsr3stdE12is_base_of_vI6PacketT_EEEvNS_8functionIFvPS6_EEEbENKUlNS_12basic_stringIcNS_11char_traitsIcEENS_9allocatorIcEEEEE_clESG_EUlvE_NSE_ISI_EEFvvEE6targetERKSt9type_info
FUNC 12f478 c 0 _ZNKSt6__ndk110__function6__funcIZZN14NetworkManager2onI18InvalidTokenPacketQsr3stdE12is_base_of_vI6PacketT_EEEvNS_8functionIFvPS6_EEEbENKUlNS_12basic_stringIcNS_11char_traitsIcEENS_9allocatorIcEEEEE_clESG_EUlvE_NSE_ISI_EEFvvEE11target_typeEv
FUNC 12f484 4 0 std::__ndk1::__function::__base<void (InvalidTokenPacket*)>::~__base()
FUNC 12f488 4 0 std::__ndk1::__function::__func<AuthManager::AuthManager()::$_0, std::__ndk1::allocator<AuthManager::AuthManager()::$_0>, void (InvalidTokenPacket*)>::~__func()
FUNC 12f48c 34 0 std::__ndk1::__function::__func<AuthManager::AuthManager()::$_0, std::__ndk1::allocator<AuthManager::AuthManager()::$_0>, void (InvalidTokenPacket*)>::__clone() const
FUNC 12f4c0 14 0 std::__ndk1::__function::__func<AuthManager::AuthManager()::$_0, std::__ndk1::allocator<AuthManager::AuthManager()::$_0>, void (InvalidTokenPacket*)>::__clone(std::__ndk1::__function::__base<void (InvalidTokenPacket*)>*) const
FUNC 12f4d4 4 0 std::__ndk1::__function::__func<AuthManager::AuthManager()::$_0, std::__ndk1::allocator<AuthManager::AuthManager()::$_0>, void (InvalidTokenPacket*)>::destroy()
FUNC 12f4d8 4 0 std::__ndk1::__function::__func<AuthManager::AuthManager()::$_0, std::__ndk1::allocator<AuthManager::AuthManager()::$_0>, void (InvalidTokenPacket*)>::destroy_deallocate()
FUNC 12f4dc 15c 0 std::__ndk1::__function::__func<AuthManager::AuthManager()::$_0, std::__ndk1::allocator<AuthManager::AuthManager()::$_0>, void (InvalidTokenPacket*)>::operator()(InvalidTokenPacket*&&)
FUNC 12f638 1c 0 std::__ndk1::__function::__func<AuthManager::AuthManager()::$_0, std::__ndk1::allocator<AuthManager::AuthManager()::$_0>, void (InvalidTokenPacket*)>::target(std::type_info const&) const
FUNC 12f654 c 0 std::__ndk1::__function::__func<AuthManager::AuthManager()::$_0, std::__ndk1::allocator<AuthManager::AuthManager()::$_0>, void (InvalidTokenPacket*)>::target_type() const
FUNC 12f660 4 0 std::__ndk1::__function::__func<AuthManager::AuthManager()::$_0::operator()(InvalidTokenPacket*) const::{lambda(auto:1, bool)#1}, std::__ndk1::allocator<AuthManager::AuthManager()::$_0::operator()(InvalidTokenPacket*) const::{lambda(auto:1, bool)#1}>, void (FLAlertLayer*, bool)>::~__func()
FUNC 12f664 34 0 std::__ndk1::__function::__func<AuthManager::AuthManager()::$_0::operator()(InvalidTokenPacket*) const::{lambda(auto:1, bool)#1}, std::__ndk1::allocator<AuthManager::AuthManager()::$_0::operator()(InvalidTokenPacket*) const::{lambda(auto:1, bool)#1}>, void (FLAlertLayer*, bool)>::__clone() const
FUNC 12f698 14 0 std::__ndk1::__function::__func<AuthManager::AuthManager()::$_0::operator()(InvalidTokenPacket*) const::{lambda(auto:1, bool)#1}, std::__ndk1::allocator<AuthManager::AuthManager()::$_0::operator()(InvalidTokenPacket*) const::{lambda(auto:1, bool)#1}>, void (FLAlertLayer*, bool)>::__clone(std::__ndk1::__function::__base<void (FLAlertLayer*, bool)>*) const
FUNC 12f6ac 4 0 std::__ndk1::__function::__func<AuthManager::AuthManager()::$_0::operator()(InvalidTokenPacket*) const::{lambda(auto:1, bool)#1}, std::__ndk1::allocator<AuthManager::AuthManager()::$_0::operator()(InvalidTokenPacket*) const::{lambda(auto:1, bool)#1}>, void (FLAlertLayer*, bool)>::destroy()
FUNC 12f6b0 4 0 std::__ndk1::__function::__func<AuthManager::AuthManager()::$_0::operator()(InvalidTokenPacket*) const::{lambda(auto:1, bool)#1}, std::__ndk1::allocator<AuthManager::AuthManager()::$_0::operator()(InvalidTokenPacket*) const::{lambda(auto:1, bool)#1}>, void (FLAlertLayer*, bool)>::destroy_deallocate()
FUNC 12f6b4 e0 0 std::__ndk1::__function::__func<AuthManager::AuthManager()::$_0::operator()(InvalidTokenPacket*) const::{lambda(auto:1, bool)#1}, std::__ndk1::allocator<AuthManager::AuthManager()::$_0::operator()(InvalidTokenPacket*) const::{lambda(auto:1, bool)#1}>, void (FLAlertLayer*, bool)>::operator()(FLAlertLayer*&&, bool&&)
FUNC 12f794 1c 0 std::__ndk1::__function::__func<AuthManager::AuthManager()::$_0::operator()(InvalidTokenPacket*) const::{lambda(auto:1, bool)#1}, std::__ndk1::allocator<AuthManager::AuthManager()::$_0::operator()(InvalidTokenPacket*) const::{lambda(auto:1, bool)#1}>, void (FLAlertLayer*, bool)>::target(std::type_info const&) const
FUNC 12f7b0 c 0 std::__ndk1::__function::__func<AuthManager::AuthManager()::$_0::operator()(InvalidTokenPacket*) const::{lambda(auto:1, bool)#1}, std::__ndk1::allocator<AuthManager::AuthManager()::$_0::operator()(InvalidTokenPacket*) const::{lambda(auto:1, bool)#1}>, void (FLAlertLayer*, bool)>::target_type() const
FUNC 12f7bc 4 0 std::__ndk1::__function::__func<AuthManager::AuthManager()::$_0::operator()(InvalidTokenPacket*) const::{lambda(auto:1, bool)#1}::operator()<FLAlertLayer*>(FLAlertLayer*, bool) const::{lambda()#1}, std::__ndk1::allocator<AuthManager::AuthManager()::$_0::operator()(InvalidTokenPacket*) const::{lambda(auto:1, bool)#1}::operator()<FLAlertLayer*>(FLAlertLayer*, bool) const::{lambda()#1}>, void ()>::~__func()
FUNC 12f7c0 24 0 std::__ndk1::__function::__func<AuthManager::AuthManager()::$_0::operator()(InvalidTokenPacket*) const::{lambda(auto:1, bool)#1}::operator()<FLAlertLayer*>(FLAlertLayer*, bool) const::{lambda()#1}, std::__ndk1::allocator<AuthManager::AuthManager()::$_0::operator()(InvalidTokenPacket*) const::{lambda(auto:1, bool)#1}::operator()<FLAlertLayer*>(FLAlertLayer*, bool) const::{lambda()#1}>, void ()>::__clone() const
FUNC 12f7e4 10 0 std::__ndk1::__function::__func<AuthManager::AuthManager()::$_0::operator()(InvalidTokenPacket*) const::{lambda(auto:1, bool)#1}::operator()<FLAlertLayer*>(FLAlertLayer*, bool) const::{lambda()#1}, std::__ndk1::allocator<AuthManager::AuthManager()::$_0::operator()(InvalidTokenPacket*) const::{lambda(auto:1, bool)#1}::operator()<FLAlertLayer*>(FLAlertLayer*, bool) const::{lambda()#1}>, void ()>::__clone(std::__ndk1::__function::__base<void ()>*) const
FUNC 12f7f4 4 0 std::__ndk1::__function::__func<AuthManager::AuthManager()::$_0::operator()(InvalidTokenPacket*) const::{lambda(auto:1, bool)#1}::operator()<FLAlertLayer*>(FLAlertLayer*, bool) const::{lambda()#1}, std::__ndk1::allocator<AuthManager::AuthManager()::$_0::operator()(InvalidTokenPacket*) const::{lambda(auto:1, bool)#1}::operator()<FLAlertLayer*>(FLAlertLayer*, bool) const::{lambda()#1}>, void ()>::destroy()
FUNC 12f7f8 4 0 std::__ndk1::__function::__func<AuthManager::AuthManager()::$_0::operator()(InvalidTokenPacket*) const::{lambda(auto:1, bool)#1}::operator()<FLAlertLayer*>(FLAlertLayer*, bool) const::{lambda()#1}, std::__ndk1::allocator<AuthManager::AuthManager()::$_0::operator()(InvalidTokenPacket*) const::{lambda(auto:1, bool)#1}::operator()<FLAlertLayer*>(FLAlertLayer*, bool) const::{lambda()#1}>, void ()>::destroy_deallocate()
FUNC 12f7fc 4 0 std::__ndk1::__function::__func<AuthManager::AuthManager()::$_0::operator()(InvalidTokenPacket*) const::{lambda(auto:1, bool)#1}::operator()<FLAlertLayer*>(FLAlertLayer*, bool) const::{lambda()#1}, std::__ndk1::allocator<AuthManager::AuthManager()::$_0::operator()(InvalidTokenPacket*) const::{lambda(auto:1, bool)#1}::operator()<FLAlertLayer*>(FLAlertLayer*, bool) const::{lambda()#1}>, void ()>::operator()()
FUNC 12f800 1c 0 std::__ndk1::__function::__func<AuthManager::AuthManager()::$_0::operator()(InvalidTokenPacket*) const::{lambda(auto:1, bool)#1}::operator()<FLAlertLayer*>(FLAlertLayer*, bool) const::{lambda()#1}, std::__ndk1::allocator<AuthManager::AuthManager()::$_0::operator()(InvalidTokenPacket*) const::{lambda(auto:1, bool)#1}::operator()<FLAlertLayer*>(FLAlertLayer*, bool) const::{lambda()#1}>, void ()>::target(std::type_info const&) const
FUNC 12f81c c 0 std::__ndk1::__function::__func<AuthManager::AuthManager()::$_0::operator()(InvalidTokenPacket*) const::{lambda(auto:1, bool)#1}::operator()<FLAlertLayer*>(FLAlertLayer*, bool) const::{lambda()#1}, std::__ndk1::allocator<AuthManager::AuthManager()::$_0::operator()(InvalidTokenPacket*) const::{lambda(auto:1, bool)#1}::operator()<FLAlertLayer*>(FLAlertLayer*, bool) const::{lambda()#1}>, void ()>::target_type() const
FUNC 12f828 44 0 _ZNSt6__ndk110__function6__funcIZN14NetworkManager2onI22LoginNotReceivedPacketQsr3stdE12is_base_of_vI6PacketT_EEEvNS_8functionIFvPS6_EEEbEUlNS_12basic_stringIcNS_11char_traitsIcEENS_9allocatorIcEEEEE_NSE_ISH_EEFvSG_EED2Ev
FUNC 12f86c 5c 0 _ZNSt6__ndk110__function6__funcIZN14NetworkManager2onI22LoginNotReceivedPacketQsr3stdE12is_base_of_vI6PacketT_EEEvNS_8functionIFvPS6_EEEbEUlNS_12basic_stringIcNS_11char_traitsIcEENS_9allocatorIcEEEEE_NSE_ISH_EEFvSG_EED0Ev
FUNC 12f8c8 88 0 _ZNKSt6__ndk110__function6__funcIZN14NetworkManager2onI22LoginNotReceivedPacketQsr3stdE12is_base_of_vI6PacketT_EEEvNS_8functionIFvPS6_EEEbEUlNS_12basic_stringIcNS_11char_traitsIcEENS_9allocatorIcEEEEE_NSE_ISH_EEFvSG_EE7__cloneEv
FUNC 12f950 74 0 _ZNKSt6__ndk110__function6__funcIZN14NetworkManager2onI22LoginNotReceivedPacketQsr3stdE12is_base_of_vI6PacketT_EEEvNS_8functionIFvPS6_EEEbEUlNS_12basic_stringIcNS_11char_traitsIcEENS_9allocatorIcEEEEE_NSE_ISH_EEFvSG_EE7__cloneEPNS0_6__baseISJ_EE
FUNC 12f9c4 38 0 _ZNSt6__ndk110__function6__funcIZN14NetworkManager2onI22LoginNotReceivedPacketQsr3stdE12is_base_of_vI6PacketT_EEEvNS_8functionIFvPS6_EEEbEUlNS_12basic_stringIcNS_11char_traitsIcEENS_9allocatorIcEEEEE_NSE_ISH_EEFvSG_EE7destroyEv
FUNC 12f9fc 50 0 _ZNSt6__ndk110__function6__funcIZN14NetworkManager2onI22LoginNotReceivedPacketQsr3stdE12is_base_of_vI6PacketT_EEEvNS_8functionIFvPS6_EEEbEUlNS_12basic_stringIcNS_11char_traitsIcEENS_9allocatorIcEEEEE_NSE_ISH_EEFvSG_EE18destroy_deallocateEv
FUNC 12fa4c 3bc 0 _ZNSt6__ndk110__function6__funcIZN14NetworkManager2onI22LoginNotReceivedPacketQsr3stdE12is_base_of_vI6PacketT_EEEvNS_8functionIFvPS6_EEEbEUlNS_12basic_stringIcNS_11char_traitsIcEENS_9allocatorIcEEEEE_NSE_ISH_EEFvSG_EEclEOSG_
FUNC 12fe08 1c 0 _ZNKSt6__ndk110__function6__funcIZN14NetworkManager2onI22LoginNotReceivedPacketQsr3stdE12is_base_of_vI6PacketT_EEEvNS_8functionIFvPS6_EEEbEUlNS_12basic_stringIcNS_11char_traitsIcEENS_9allocatorIcEEEEE_NSE_ISH_EEFvSG_EE6targetERKSt9type_info
FUNC 12fe24 c 0 _ZNKSt6__ndk110__function6__funcIZN14NetworkManager2onI22LoginNotReceivedPacketQsr3stdE12is_base_of_vI6PacketT_EEEvNS_8functionIFvPS6_EEEbEUlNS_12basic_stringIcNS_11char_traitsIcEENS_9allocatorIcEEEEE_NSE_ISH_EEFvSG_EE11target_typeEv
FUNC 12fe30 4 0 LoginNotReceivedPacket::decode(std::__ndk1::basic_string<char, std::__ndk1::char_traits<char>, std::__ndk1::allocator<char> >)
FUNC 12fe34 8 0 LoginNotReceivedPacket::getPacketID() const
FUNC 12fe3c c 0 LoginNotReceivedPacket::getPacketName() const
FUNC 12fe48 44 0 _ZNSt6__ndk110__function6__funcIZZN14NetworkManager2onI22LoginNotReceivedPacketQsr3stdE12is_base_of_vI6PacketT_EEEvNS_8functionIFvPS6_EEEbENKUlNS_12basic_stringIcNS_11char_traitsIcEENS_9allocatorIcEEEEE_clESG_EUlvE_NSE_ISI_EEFvvEED2Ev
FUNC 12fe8c 5c 0 _ZNSt6__ndk110__function6__funcIZZN14NetworkManager2onI22LoginNotReceivedPacketQsr3stdE12is_base_of_vI6PacketT_EEEvNS_8functionIFvPS6_EEEbENKUlNS_12basic_stringIcNS_11char_traitsIcEENS_9allocatorIcEEEEE_clESG_EUlvE_NSE_ISI_EEFvvEED0Ev
FUNC 12fee8 90 0 _ZNKSt6__ndk110__function6__funcIZZN14NetworkManager2onI22LoginNotReceivedPacketQsr3stdE12is_base_of_vI6PacketT_EEEvNS_8functionIFvPS6_EEEbENKUlNS_12basic_stringIcNS_11char_traitsIcEENS_9allocatorIcEEEEE_clESG_EUlvE_NSE_ISI_EEFvvEE7__cloneEv
FUNC 12ff78 78 0 _ZNKSt6__ndk110__function6__funcIZZN14NetworkManager2onI22LoginNotReceivedPacketQsr3stdE12is_base_of_vI6PacketT_EEEvNS_8functionIFvPS6_EEEbENKUlNS_12basic_stringIcNS_11char_traitsIcEENS_9allocatorIcEEEEE_clESG_EUlvE_NSE_ISI_EEFvvEE7__cloneEPNS0_6__baseISK_EE
FUNC 12fff0 38 0 _ZNSt6__ndk110__function6__funcIZZN14NetworkManager2onI22LoginNotReceivedPacketQsr3stdE12is_base_of_vI6PacketT_EEEvNS_8functionIFvPS6_EEEbENKUlNS_12basic_stringIcNS_11char_traitsIcEENS_9allocatorIcEEEEE_clESG_EUlvE_NSE_ISI_EEFvvEE7destroyEv
FUNC 130028 50 0 _ZNSt6__ndk110__function6__funcIZZN14NetworkManager2onI22LoginNotReceivedPacketQsr3stdE12is_base_of_vI6PacketT_EEEvNS_8functionIFvPS6_EEEbENKUlNS_12basic_stringIcNS_11char_traitsIcEENS_9allocatorIcEEEEE_clESG_EUlvE_NSE_ISI_EEFvvEE18destroy_deallocateEv
FUNC 130078 74 0 _ZNSt6__ndk110__function6__funcIZZN14NetworkManager2onI22LoginNotReceivedPacketQsr3stdE12is_base_of_vI6PacketT_EEEvNS_8functionIFvPS6_EEEbENKUlNS_12basic_stringIcNS_11char_traitsIcEENS_9allocatorIcEEEEE_clESG_EUlvE_NSE_ISI_EEFvvEEclEv
FUNC 1300ec 1c 0 _ZNKSt6__ndk110__function6__funcIZZN14NetworkManager2onI22LoginNotReceivedPacketQsr3stdE12is_base_of_vI6PacketT_EEEvNS_8functionIFvPS6_EEEbENKUlNS_12basic_stringIcNS_11char_traitsIcEENS_9allocatorIcEEEEE_clESG_EUlvE_NSE_ISI_EEFvvEE6targetERKSt9type_info
FUNC 130108 c 0 _ZNKSt6__ndk110__function6__funcIZZN14NetworkManager2onI22LoginNotReceivedPacketQsr3stdE12is_base_of_vI6PacketT_EEEvNS_8functionIFvPS6_EEEbENKUlNS_12basic_stringIcNS_11char_traitsIcEENS_9allocatorIcEEEEE_clESG_EUlvE_NSE_ISI_EEFvvEE11target_typeEv
FUNC 130114 4 0 std::__ndk1::__function::__base<void (LoginNotReceivedPacket*)>::~__base()
FUNC 130118 4 0 std::__ndk1::__function::__func<AuthManager::AuthManager()::$_1, std::__ndk1::allocator<AuthManager::AuthManager()::$_1>, void (LoginNotReceivedPacket*)>::~__func()
FUNC 13011c 34 0 std::__ndk1::__function::__func<AuthManager::AuthManager()::$_1, std::__ndk1::allocator<AuthManager::AuthManager()::$_1>, void (LoginNotReceivedPacket*)>::__clone() const
FUNC 130150 14 0 std::__ndk1::__function::__func<AuthManager::AuthManager()::$_1, std::__ndk1::allocator<AuthManager::AuthManager()::$_1>, void (LoginNotReceivedPacket*)>::__clone(std::__ndk1::__function::__base<void (LoginNotReceivedPacket*)>*) const
FUNC 130164 4 0 std::__ndk1::__function::__func<AuthManager::AuthManager()::$_1, std::__ndk1::allocator<AuthManager::AuthManager()::$_1>, void (LoginNotReceivedPacket*)>::destroy()
FUNC 130168 4 0 std::__ndk1::__function::__func<AuthManager::AuthManager()::$_1, std::__ndk1::allocator<AuthManager::AuthManager()::$_1>, void (LoginNotReceivedPacket*)>::destroy_deallocate()
FUNC 13016c 160 0 std::__ndk1::__function::__func<AuthManager::AuthManager()::$_1, std::__ndk1::allocator<AuthManager::AuthManager()::$_1>, void (LoginNotReceivedPacket*)>::operator()(LoginNotReceivedPacket*&&)
FUNC 1302cc 1c 0 std::__ndk1::__function::__func<AuthManager::AuthManager()::$_1, std::__ndk1::allocator<AuthManager::AuthManager()::$_1>, void (LoginNotReceivedPacket*)>::target(std::type_info const&) const
FUNC 1302e8 c 0 std::__ndk1::__function::__func<AuthManager::AuthManager()::$_1, std::__ndk1::allocator<AuthManager::AuthManager()::$_1>, void (LoginNotReceivedPacket*)>::target_type() const
FUNC 1302f4 4 0 std::__ndk1::__function::__func<AuthManager::AuthManager()::$_1::operator()(LoginNotReceivedPacket*) const::{lambda(auto:1, bool)#1}, std::__ndk1::allocator<AuthManager::AuthManager()::$_1::operator()(LoginNotReceivedPacket*) const::{lambda(auto:1, bool)#1}>, void (FLAlertLayer*, bool)>::~__func()
FUNC 1302f8 34 0 std::__ndk1::__function::__func<AuthManager::AuthManager()::$_1::operator()(LoginNotReceivedPacket*) const::{lambda(auto:1, bool)#1}, std::__ndk1::allocator<AuthManager::AuthManager()::$_1::operator()(LoginNotReceivedPacket*) const::{lambda(auto:1, bool)#1}>, void (FLAlertLayer*, bool)>::__clone() const
FUNC 13032c 14 0 std::__ndk1::__function::__func<AuthManager::AuthManager()::$_1::operator()(LoginNotReceivedPacket*) const::{lambda(auto:1, bool)#1}, std::__ndk1::allocator<AuthManager::AuthManager()::$_1::operator()(LoginNotReceivedPacket*) const::{lambda(auto:1, bool)#1}>, void (FLAlertLayer*, bool)>::__clone(std::__ndk1::__function::__base<void (FLAlertLayer*, bool)>*) const
FUNC 130340 4 0 std::__ndk1::__function::__func<AuthManager::AuthManager()::$_1::operator()(LoginNotReceivedPacket*) const::{lambda(auto:1, bool)#1}, std::__ndk1::allocator<AuthManager::AuthManager()::$_1::operator()(LoginNotReceivedPacket*) const::{lambda(auto:1, bool)#1}>, void (FLAlertLayer*, bool)>::destroy()
FUNC 130344 4 0 std::__ndk1::__function::__func<AuthManager::AuthManager()::$_1::operator()(LoginNotReceivedPacket*) const::{lambda(auto:1, bool)#1}, std::__ndk1::allocator<AuthManager::AuthManager()::$_1::operator()(LoginNotReceivedPacket*) const::{lambda(auto:1, bool)#1}>, void (FLAlertLayer*, bool)>::destroy_deallocate()
FUNC 130348 e0 0 std::__ndk1::__function::__func<AuthManager::AuthManager()::$_1::operator()(LoginNotReceivedPacket*) const::{lambda(auto:1, bool)#1}, std::__ndk1::allocator<AuthManager::AuthManager()::$_1::operator()(LoginNotReceivedPacket*) const::{lambda(auto:1, bool)#1}>, void (FLAlertLayer*, bool)>::operator()(FLAlertLayer*&&, bool&&)
FUNC 130428 1c 0 std::__ndk1::__function::__func<AuthManager::AuthManager()::$_1::operator()(LoginNotReceivedPacket*) const::{lambda(auto:1, bool)#1}, std::__ndk1::allocator<AuthManager::AuthManager()::$_1::operator()(LoginNotReceivedPacket*) const::{lambda(auto:1, bool)#1}>, void (FLAlertLayer*, bool)>::target(std::type_info const&) const
FUNC 130444 c 0 std::__ndk1::__function::__func<AuthManager::AuthManager()::$_1::operator()(LoginNotReceivedPacket*) const::{lambda(auto:1, bool)#1}, std::__ndk1::allocator<AuthManager::AuthManager()::$_1::operator()(LoginNotReceivedPacket*) const::{lambda(auto:1, bool)#1}>, void (FLAlertLayer*, bool)>::target_type() const
FUNC 130450 4 0 std::__ndk1::__function::__func<AuthManager::login(std::__ndk1::function<void ()>), std::__ndk1::allocator<AuthManager::login(std::__ndk1::function<void ()>)>, void ()>::~__func()
FUNC 130454 24 0 std::__ndk1::__function::__func<AuthManager::login(std::__ndk1::function<void ()>), std::__ndk1::allocator<AuthManager::login(std::__ndk1::function<void ()>)>, void ()>::__clone() const
FUNC 130478 10 0 std::__ndk1::__function::__func<AuthManager::login(std::__ndk1::function<void ()>), std::__ndk1::allocator<AuthManager::login(std::__ndk1::function<void ()>)>, void ()>::__clone(std::__ndk1::__function::__base<void ()>*) const
FUNC 130488 4 0 std::__ndk1::__function::__func<AuthManager::login(std::__ndk1::function<void ()>), std::__ndk1::allocator<AuthManager::login(std::__ndk1::function<void ()>)>, void ()>::destroy()
FUNC 13048c 4 0 std::__ndk1::__function::__func<AuthManager::login(std::__ndk1::function<void ()>), std::__ndk1::allocator<AuthManager::login(std::__ndk1::function<void ()>)>, void ()>::destroy_deallocate()
FUNC 130490 4 0 std::__ndk1::__function::__func<AuthManager::login(std::__ndk1::function<void ()>), std::__ndk1::allocator<AuthManager::login(std::__ndk1::function<void ()>)>, void ()>::operator()()
FUNC 130494 1c 0 std::__ndk1::__function::__func<AuthManager::login(std::__ndk1::function<void ()>), std::__ndk1::allocator<AuthManager::login(std::__ndk1::function<void ()>)>, void ()>::target(std::type_info const&) const
FUNC 1304b0 c 0 std::__ndk1::__function::__func<AuthManager::login(std::__ndk1::function<void ()>), std::__ndk1::allocator<AuthManager::login(std::__ndk1::function<void ()>)>, void ()>::target_type() const
FUNC 1304bc 4 0 RequestAuthorizationPacket::decode(std::__ndk1::basic_string<char, std::__ndk1::char_traits<char>, std::__ndk1::allocator<char> >)
FUNC 1304c0 8 0 RequestAuthorizationPacket::getPacketID() const
FUNC 1304c8 c 0 RequestAuthorizationPacket::getPacketName() const
FUNC 1304d4 44 0 std::__ndk1::__function::__func<NetworkManager::send<RequestAuthorizationPacket>(RequestAuthorizationPacket*, std::__ndk1::function<void ()>)::{lambda(int, int)#1}, std::__ndk1::allocator<NetworkManager::send<RequestAuthorizationPacket>(RequestAuthorizationPacket*, std::__ndk1::function<void ()>)::{lambda(int, int)#1}>, bool (int, int)>::~__func()
FUNC 130518 5c 0 std::__ndk1::__function::__func<NetworkManager::send<RequestAuthorizationPacket>(RequestAuthorizationPacket*, std::__ndk1::function<void ()>)::{lambda(int, int)#1}, std::__ndk1::allocator<NetworkManager::send<RequestAuthorizationPacket>(RequestAuthorizationPacket*, std::__ndk1::function<void ()>)::{lambda(int, int)#1}>, bool (int, int)>::~__func()
FUNC 130574 88 0 std::__ndk1::__function::__func<NetworkManager::send<RequestAuthorizationPacket>(RequestAuthorizationPacket*, std::__ndk1::function<void ()>)::{lambda(int, int)#1}, std::__ndk1::allocator<NetworkManager::send<RequestAuthorizationPacket>(RequestAuthorizationPacket*, std::__ndk1::function<void ()>)::{lambda(int, int)#1}>, bool (int, int)>::__clone() const
FUNC 1305fc 74 0 std::__ndk1::__function::__func<NetworkManager::send<RequestAuthorizationPacket>(RequestAuthorizationPacket*, std::__ndk1::function<void ()>)::{lambda(int, int)#1}, std::__ndk1::allocator<NetworkManager::send<RequestAuthorizationPacket>(RequestAuthorizationPacket*, std::__ndk1::function<void ()>)::{lambda(int, int)#1}>, bool (int, int)>::__clone(std::__ndk1::__function::__base<bool (int, int)>*) const
FUNC 130670 38 0 std::__ndk1::__function::__func<NetworkManager::send<RequestAuthorizationPacket>(RequestAuthorizationPacket*, std::__ndk1::function<void ()>)::{lambda(int, int)#1}, std::__ndk1::allocator<NetworkManager::send<RequestAuthorizationPacket>(RequestAuthorizationPacket*, std::__ndk1::function<void ()>)::{lambda(int, int)#1}>, bool (int, int)>::destroy()
FUNC 1306a8 50 0 std::__ndk1::__function::__func<NetworkManager::send<RequestAuthorizationPacket>(RequestAuthorizationPacket*, std::__ndk1::function<void ()>)::{lambda(int, int)#1}, std::__ndk1::allocator<NetworkManager::send<RequestAuthorizationPacket>(RequestAuthorizationPacket*, std::__ndk1::function<void ()>)::{lambda(int, int)#1}>, bool (int, int)>::destroy_deallocate()
FUNC 1306f8 21c 0 std::__ndk1::__function::__func<NetworkManager::send<RequestAuthorizationPacket>(RequestAuthorizationPacket*, std::__ndk1::function<void ()>)::{lambda(int, int)#1}, std::__ndk1::allocator<NetworkManager::send<RequestAuthorizationPacket>(RequestAuthorizationPacket*, std::__ndk1::function<void ()>)::{lambda(int, int)#1}>, bool (int, int)>::operator()(int&&, int&&)
FUNC 130914 1c 0 std::__ndk1::__function::__func<NetworkManager::send<RequestAuthorizationPacket>(RequestAuthorizationPacket*, std::__ndk1::function<void ()>)::{lambda(int, int)#1}, std::__ndk1::allocator<NetworkManager::send<RequestAuthorizationPacket>(RequestAuthorizationPacket*, std::__ndk1::function<void ()>)::{lambda(int, int)#1}>, bool (int, int)>::target(std::type_info const&) const
FUNC 130930 c 0 std::__ndk1::__function::__func<NetworkManager::send<RequestAuthorizationPacket>(RequestAuthorizationPacket*, std::__ndk1::function<void ()>)::{lambda(int, int)#1}, std::__ndk1::allocator<NetworkManager::send<RequestAuthorizationPacket>(RequestAuthorizationPacket*, std::__ndk1::function<void ()>)::{lambda(int, int)#1}>, bool (int, int)>::target_type() const
FUNC 13093c 44 0 std::__ndk1::__function::__func<NetworkManager::send<RequestAuthorizationPacket>(RequestAuthorizationPacket*, std::__ndk1::function<void ()>)::{lambda(int, int)#1}::operator()(int, int) const::{lambda()#1}, std::__ndk1::allocator<NetworkManager::send<RequestAuthorizationPacket>(RequestAuthorizationPacket*, std::__ndk1::function<void ()>)::{lambda(int, int)#1}::operator()(int, int) const::{lambda()#1}>, void ()>::~__func()
FUNC 130980 5c 0 std::__ndk1::__function::__func<NetworkManager::send<RequestAuthorizationPacket>(RequestAuthorizationPacket*, std::__ndk1::function<void ()>)::{lambda(int, int)#1}::operator()(int, int) const::{lambda()#1}, std::__ndk1::allocator<NetworkManager::send<RequestAuthorizationPacket>(RequestAuthorizationPacket*, std::__ndk1::function<void ()>)::{lambda(int, int)#1}::operator()(int, int) const::{lambda()#1}>, void ()>::~__func()
FUNC 1309dc 88 0 std::__ndk1::__function::__func<NetworkManager::send<RequestAuthorizationPacket>(RequestAuthorizationPacket*, std::__ndk1::function<void ()>)::{lambda(int, int)#1}::operator()(int, int) const::{lambda()#1}, std::__ndk1::allocator<NetworkManager::send<RequestAuthorizationPacket>(RequestAuthorizationPacket*, std::__ndk1::function<void ()>)::{lambda(int, int)#1}::operator()(int, int) const::{lambda()#1}>, void ()>::__clone() const
FUNC 130a64 74 0 std::__ndk1::__function::__func<NetworkManager::send<RequestAuthorizationPacket>(RequestAuthorizationPacket*, std::__ndk1::function<void ()>)::{lambda(int, int)#1}::operator()(int, int) const::{lambda()#1}, std::__ndk1::allocator<NetworkManager::send<RequestAuthorizationPacket>(RequestAuthorizationPacket*, std::__ndk1::function<void ()>)::{lambda(int, int)#1}::operator()(int, int) const::{lambda()#1}>, void ()>::__clone(std::__ndk1::__function::__base<void ()>*) const
FUNC 130ad8 38 0 std::__ndk1::__function::__func<NetworkManager::send<RequestAuthorizationPacket>(RequestAuthorizationPacket*, std::__ndk1::function<void ()>)::{lambda(int, int)#1}::operator()(int, int) const::{lambda()#1}, std::__ndk1::allocator<NetworkManager::send<RequestAuthorizationPacket>(RequestAuthorizationPacket*, std::__ndk1::function<void ()>)::{lambda(int, int)#1}::operator()(int, int) const::{lambda()#1}>, void ()>::destroy()
FUNC 130b10 50 0 std::__ndk1::__function::__func<NetworkManager::send<RequestAuthorizationPacket>(RequestAuthorizationPacket*, std::__ndk1::function<void ()>)::{lambda(int, int)#1}::operator()(int, int) const::{lambda()#1}, std::__ndk1::allocator<NetworkManager::send<RequestAuthorizationPacket>(RequestAuthorizationPacket*, std::__ndk1::function<void ()>)::{lambda(int, int)#1}::operator()(int, int) const::{lambda()#1}>, void ()>::destroy_deallocate()
FUNC 130b60 20 0 std::__ndk1::__function::__func<NetworkManager::send<RequestAuthorizationPacket>(RequestAuthorizationPacket*, std::__ndk1::function<void ()>)::{lambda(int, int)#1}::operator()(int, int) const::{lambda()#1}, std::__ndk1::allocator<NetworkManager::send<RequestAuthorizationPacket>(RequestAuthorizationPacket*, std::__ndk1::function<void ()>)::{lambda(int, int)#1}::operator()(int, int) const::{lambda()#1}>, void ()>::operator()()
FUNC 130b80 1c 0 std::__ndk1::__function::__func<NetworkManager::send<RequestAuthorizationPacket>(RequestAuthorizationPacket*, std::__ndk1::function<void ()>)::{lambda(int, int)#1}::operator()(int, int) const::{lambda()#1}, std::__ndk1::allocator<NetworkManager::send<RequestAuthorizationPacket>(RequestAuthorizationPacket*, std::__ndk1::function<void ()>)::{lambda(int, int)#1}::operator()(int, int) const::{lambda()#1}>, void ()>::target(std::type_info const&) const
FUNC 130b9c c 0 std::__ndk1::__function::__func<NetworkManager::send<RequestAuthorizationPacket>(RequestAuthorizationPacket*, std::__ndk1::function<void ()>)::{lambda(int, int)#1}::operator()(int, int) const::{lambda()#1}, std::__ndk1::allocator<NetworkManager::send<RequestAuthorizationPacket>(RequestAuthorizationPacket*, std::__ndk1::function<void ()>)::{lambda(int, int)#1}::operator()(int, int) const::{lambda()#1}>, void ()>::target_type() const
FUNC 130ba8 44 0 _ZNSt6__ndk110__function6__funcIZN14NetworkManager2onI21ReceiveAuthCodePacketQsr3stdE12is_base_of_vI6PacketT_EEEvNS_8functionIFvPS6_EEEbEUlNS_12basic_stringIcNS_11char_traitsIcEENS_9allocatorIcEEEEE_NSE_ISH_EEFvSG_EED2Ev
FUNC 130bec 5c 0 _ZNSt6__ndk110__function6__funcIZN14NetworkManager2onI21ReceiveAuthCodePacketQsr3stdE12is_base_of_vI6PacketT_EEEvNS_8functionIFvPS6_EEEbEUlNS_12basic_stringIcNS_11char_traitsIcEENS_9allocatorIcEEEEE_NSE_ISH_EEFvSG_EED0Ev
FUNC 130c48 88 0 _ZNKSt6__ndk110__function6__funcIZN14NetworkManager2onI21ReceiveAuthCodePacketQsr3stdE12is_base_of_vI6PacketT_EEEvNS_8functionIFvPS6_EEEbEUlNS_12basic_stringIcNS_11char_traitsIcEENS_9allocatorIcEEEEE_NSE_ISH_EEFvSG_EE7__cloneEv
FUNC 130cd0 74 0 _ZNKSt6__ndk110__function6__funcIZN14NetworkManager2onI21ReceiveAuthCodePacketQsr3stdE12is_base_of_vI6PacketT_EEEvNS_8functionIFvPS6_EEEbEUlNS_12basic_stringIcNS_11char_traitsIcEENS_9allocatorIcEEEEE_NSE_ISH_EEFvSG_EE7__cloneEPNS0_6__baseISJ_EE
FUNC 130d44 38 0 _ZNSt6__ndk110__function6__funcIZN14NetworkManager2onI21ReceiveAuthCodePacketQsr3stdE12is_base_of_vI6PacketT_EEEvNS_8functionIFvPS6_EEEbEUlNS_12basic_stringIcNS_11char_traitsIcEENS_9allocatorIcEEEEE_NSE_ISH_EEFvSG_EE7destroyEv
FUNC 130d7c 50 0 _ZNSt6__ndk110__function6__funcIZN14NetworkManager2onI21ReceiveAuthCodePacketQsr3stdE12is_base_of_vI6PacketT_EEEvNS_8functionIFvPS6_EEEbEUlNS_12basic_stringIcNS_11char_traitsIcEENS_9allocatorIcEEEEE_NSE_ISH_EEFvSG_EE18destroy_deallocateEv
FUNC 130dcc 490 0 _ZNSt6__ndk110__function6__funcIZN14NetworkManager2onI21ReceiveAuthCodePacketQsr3stdE12is_base_of_vI6PacketT_EEEvNS_8functionIFvPS6_EEEbEUlNS_12basic_stringIcNS_11char_traitsIcEENS_9allocatorIcEEEEE_NSE_ISH_EEFvSG_EEclEOSG_
FUNC 13125c 1c 0 _ZNKSt6__ndk110__function6__funcIZN14NetworkManager2onI21ReceiveAuthCodePacketQsr3stdE12is_base_of_vI6PacketT_EEEvNS_8functionIFvPS6_EEEbEUlNS_12basic_stringIcNS_11char_traitsIcEENS_9allocatorIcEEEEE_NSE_ISH_EEFvSG_EE6targetERKSt9type_info
FUNC 131278 c 0 _ZNKSt6__ndk110__function6__funcIZN14NetworkManager2onI21ReceiveAuthCodePacketQsr3stdE12is_base_of_vI6PacketT_EEEvNS_8functionIFvPS6_EEEbEUlNS_12basic_stringIcNS_11char_traitsIcEENS_9allocatorIcEEEEE_NSE_ISH_EEFvSG_EE11target_typeEv
FUNC 131284 4 0 ReceiveAuthCodePacket::decode(std::__ndk1::basic_string<char, std::__ndk1::char_traits<char>, std::__ndk1::allocator<char> >)
FUNC 131288 8 0 ReceiveAuthCodePacket::getPacketID() const
FUNC 131290 c 0 ReceiveAuthCodePacket::getPacketName() const
FUNC 13129c 44 0 _ZNSt6__ndk110__function6__funcIZZN14NetworkManager2onI21ReceiveAuthCodePacketQsr3stdE12is_base_of_vI6PacketT_EEEvNS_8functionIFvPS6_EEEbENKUlNS_12basic_stringIcNS_11char_traitsIcEENS_9allocatorIcEEEEE_clESG_EUlvE_NSE_ISI_EEFvvEED2Ev
FUNC 1312e0 5c 0 _ZNSt6__ndk110__function6__funcIZZN14NetworkManager2onI21ReceiveAuthCodePacketQsr3stdE12is_base_of_vI6PacketT_EEEvNS_8functionIFvPS6_EEEbENKUlNS_12basic_stringIcNS_11char_traitsIcEENS_9allocatorIcEEEEE_clESG_EUlvE_NSE_ISI_EEFvvEED0Ev
FUNC 13133c 90 0 _ZNKSt6__ndk110__function6__funcIZZN14NetworkManager2onI21ReceiveAuthCodePacketQsr3stdE12is_base_of_vI6PacketT_EEEvNS_8functionIFvPS6_EEEbENKUlNS_12basic_stringIcNS_11char_traitsIcEENS_9allocatorIcEEEEE_clESG_EUlvE_NSE_ISI_EEFvvEE7__cloneEv
FUNC 1313cc 78 0 _ZNKSt6__ndk110__function6__funcIZZN14NetworkManager2onI21ReceiveAuthCodePacketQsr3stdE12is_base_of_vI6PacketT_EEEvNS_8functionIFvPS6_EEEbENKUlNS_12basic_stringIcNS_11char_traitsIcEENS_9allocatorIcEEEEE_clESG_EUlvE_NSE_ISI_EEFvvEE7__cloneEPNS0_6__baseISK_EE
FUNC 131444 38 0 _ZNSt6__ndk110__function6__funcIZZN14NetworkManager2onI21ReceiveAuthCodePacketQsr3stdE12is_base_of_vI6PacketT_EEEvNS_8functionIFvPS6_EEEbENKUlNS_12basic_stringIcNS_11char_traitsIcEENS_9allocatorIcEEEEE_clESG_EUlvE_NSE_ISI_EEFvvEE7destroyEv
FUNC 13147c 50 0 _ZNSt6__ndk110__function6__funcIZZN14NetworkManager2onI21ReceiveAuthCodePacketQsr3stdE12is_base_of_vI6PacketT_EEEvNS_8functionIFvPS6_EEEbENKUlNS_12basic_stringIcNS_11char_traitsIcEENS_9allocatorIcEEEEE_clESG_EUlvE_NSE_ISI_EEFvvEE18destroy_deallocateEv
FUNC 1314cc 74 0 _ZNSt6__ndk110__function6__funcIZZN14NetworkManager2onI21ReceiveAuthCodePacketQsr3stdE12is_base_of_vI6PacketT_EEEvNS_8functionIFvPS6_EEEbENKUlNS_12basic_stringIcNS_11char_traitsIcEENS_9allocatorIcEEEEE_clESG_EUlvE_NSE_ISI_EEFvvEEclEv
FUNC 131540 1c 0 _ZNKSt6__ndk110__function6__funcIZZN14NetworkManager2onI21ReceiveAuthCodePacketQsr3stdE12is_base_of_vI6PacketT_EEEvNS_8functionIFvPS6_EEEbENKUlNS_12basic_stringIcNS_11char_traitsIcEENS_9allocatorIcEEEEE_clESG_EUlvE_NSE_ISI_EEFvvEE6targetERKSt9type_info
FUNC 13155c c 0 _ZNKSt6__ndk110__function6__funcIZZN14NetworkManager2onI21ReceiveAuthCodePacketQsr3stdE12is_base_of_vI6PacketT_EEEvNS_8functionIFvPS6_EEEbENKUlNS_12basic_stringIcNS_11char_traitsIcEENS_9allocatorIcEEEEE_clESG_EUlvE_NSE_ISI_EEFvvEE11target_typeEv
FUNC 131568 4 0 std::__ndk1::__function::__base<void (ReceiveAuthCodePacket*)>::~__base()
FUNC 13156c 4 0 std::__ndk1::__function::__func<AuthManager::beginAuthorization(std::__ndk1::function<void ()>)::$_0, std::__ndk1::allocator<AuthManager::beginAuthorization(std::__ndk1::function<void ()>)::$_0>, void (ReceiveAuthCodePacket*)>::~__func()
FUNC 131570 34 0 std::__ndk1::__function::__func<AuthManager::beginAuthorization(std::__ndk1::function<void ()>)::$_0, std::__ndk1::allocator<AuthManager::beginAuthorization(std::__ndk1::function<void ()>)::$_0>, void (ReceiveAuthCodePacket*)>::__clone() const
FUNC 1315a4 14 0 std::__ndk1::__function::__func<AuthManager::beginAuthorization(std::__ndk1::function<void ()>)::$_0, std::__ndk1::allocator<AuthManager::beginAuthorization(std::__ndk1::function<void ()>)::$_0>, void (ReceiveAuthCodePacket*)>::__clone(std::__ndk1::__function::__base<void (ReceiveAuthCodePacket*)>*) const
FUNC 1315b8 4 0 std::__ndk1::__function::__func<AuthManager::beginAuthorization(std::__ndk1::function<void ()>)::$_0, std::__ndk1::allocator<AuthManager::beginAuthorization(std::__ndk1::function<void ()>)::$_0>, void (ReceiveAuthCodePacket*)>::destroy()
FUNC 1315bc 4 0 std::__ndk1::__function::__func<AuthManager::beginAuthorization(std::__ndk1::function<void ()>)::$_0, std::__ndk1::allocator<AuthManager::beginAuthorization(std::__ndk1::function<void ()>)::$_0>, void (ReceiveAuthCodePacket*)>::destroy_deallocate()
FUNC 1315c0 dc 0 std::__ndk1::__function::__func<AuthManager::beginAuthorization(std::__ndk1::function<void ()>)::$_0, std::__ndk1::allocator<AuthManager::beginAuthorization(std::__ndk1::function<void ()>)::$_0>, void (ReceiveAuthCodePacket*)>::operator()(ReceiveAuthCodePacket*&&)
FUNC 13169c 1c 0 std::__ndk1::__function::__func<AuthManager::beginAuthorization(std::__ndk1::function<void ()>)::$_0, std::__ndk1::allocator<AuthManager::beginAuthorization(std::__ndk1::function<void ()>)::$_0>, void (ReceiveAuthCodePacket*)>::target(std::type_info const&) const
FUNC 1316b8 c 0 std::__ndk1::__function::__func<AuthManager::beginAuthorization(std::__ndk1::function<void ()>)::$_0, std::__ndk1::allocator<AuthManager::beginAuthorization(std::__ndk1::function<void ()>)::$_0>, void (ReceiveAuthCodePacket*)>::target_type() const
FUNC 1316c4 44 0 _ZNSt6__ndk110__function6__funcIZN14NetworkManager2onI18ReceiveTokenPacketQsr3stdE12is_base_of_vI6PacketT_EEEvNS_8functionIFvPS6_EEEbEUlNS_12basic_stringIcNS_11char_traitsIcEENS_9allocatorIcEEEEE_NSE_ISH_EEFvSG_EED2Ev
FUNC 131708 5c 0 _ZNSt6__ndk110__function6__funcIZN14NetworkManager2onI18ReceiveTokenPacketQsr3stdE12is_base_of_vI6PacketT_EEEvNS_8functionIFvPS6_EEEbEUlNS_12basic_stringIcNS_11char_traitsIcEENS_9allocatorIcEEEEE_NSE_ISH_EEFvSG_EED0Ev
FUNC 131764 88 0 _ZNKSt6__ndk110__function6__funcIZN14NetworkManager2onI18ReceiveTokenPacketQsr3stdE12is_base_of_vI6PacketT_EEEvNS_8functionIFvPS6_EEEbEUlNS_12basic_stringIcNS_11char_traitsIcEENS_9allocatorIcEEEEE_NSE_ISH_EEFvSG_EE7__cloneEv
FUNC 1317ec 74 0 _ZNKSt6__ndk110__function6__funcIZN14NetworkManager2onI18ReceiveTokenPacketQsr3stdE12is_base_of_vI6PacketT_EEEvNS_8functionIFvPS6_EEEbEUlNS_12basic_stringIcNS_11char_traitsIcEENS_9allocatorIcEEEEE_NSE_ISH_EEFvSG_EE7__cloneEPNS0_6__baseISJ_EE
FUNC 131860 38 0 _ZNSt6__ndk110__function6__funcIZN14NetworkManager2onI18ReceiveTokenPacketQsr3stdE12is_base_of_vI6PacketT_EEEvNS_8functionIFvPS6_EEEbEUlNS_12basic_stringIcNS_11char_traitsIcEENS_9allocatorIcEEEEE_NSE_ISH_EEFvSG_EE7destroyEv
FUNC 131898 50 0 _ZNSt6__ndk110__function6__funcIZN14NetworkManager2onI18ReceiveTokenPacketQsr3stdE12is_base_of_vI6PacketT_EEEvNS_8functionIFvPS6_EEEbEUlNS_12basic_stringIcNS_11char_traitsIcEENS_9allocatorIcEEEEE_NSE_ISH_EEFvSG_EE18destroy_deallocateEv
FUNC 1318e8 3d0 0 _ZNSt6__ndk110__function6__funcIZN14NetworkManager2onI18ReceiveTokenPacketQsr3stdE12is_base_of_vI6PacketT_EEEvNS_8functionIFvPS6_EEEbEUlNS_12basic_stringIcNS_11char_traitsIcEENS_9allocatorIcEEEEE_NSE_ISH_EEFvSG_EEclEOSG_
FUNC 131cb8 1c 0 _ZNKSt6__ndk110__function6__funcIZN14NetworkManager2onI18ReceiveTokenPacketQsr3stdE12is_base_of_vI6PacketT_EEEvNS_8functionIFvPS6_EEEbEUlNS_12basic_stringIcNS_11char_traitsIcEENS_9allocatorIcEEEEE_NSE_ISH_EEFvSG_EE6targetERKSt9type_info
FUNC 131cd4 c 0 _ZNKSt6__ndk110__function6__funcIZN14NetworkManager2onI18ReceiveTokenPacketQsr3stdE12is_base_of_vI6PacketT_EEEvNS_8functionIFvPS6_EEEbEUlNS_12basic_stringIcNS_11char_traitsIcEENS_9allocatorIcEEEEE_NSE_ISH_EEFvSG_EE11target_typeEv
FUNC 131ce0 4 0 ReceiveTokenPacket::decode(std::__ndk1::basic_string<char, std::__ndk1::char_traits<char>, std::__ndk1::allocator<char> >)
FUNC 131ce4 8 0 ReceiveTokenPacket::getPacketID() const
FUNC 131cec c 0 ReceiveTokenPacket::getPacketName() const
FUNC 131cf8 44 0 _ZNSt6__ndk110__function6__funcIZZN14NetworkManager2onI18ReceiveTokenPacketQsr3stdE12is_base_of_vI6PacketT_EEEvNS_8functionIFvPS6_EEEbENKUlNS_12basic_stringIcNS_11char_traitsIcEENS_9allocatorIcEEEEE_clESG_EUlvE_NSE_ISI_EEFvvEED2Ev
FUNC 131d3c 5c 0 _ZNSt6__ndk110__function6__funcIZZN14NetworkManager2onI18ReceiveTokenPacketQsr3stdE12is_base_of_vI6PacketT_EEEvNS_8functionIFvPS6_EEEbENKUlNS_12basic_stringIcNS_11char_traitsIcEENS_9allocatorIcEEEEE_clESG_EUlvE_NSE_ISI_EEFvvEED0Ev
FUNC 131d98 90 0 _ZNKSt6__ndk110__function6__funcIZZN14NetworkManager2onI18ReceiveTokenPacketQsr3stdE12is_base_of_vI6PacketT_EEEvNS_8functionIFvPS6_EEEbENKUlNS_12basic_stringIcNS_11char_traitsIcEENS_9allocatorIcEEEEE_clESG_EUlvE_NSE_ISI_EEFvvEE7__cloneEv
FUNC 131e28 78 0 _ZNKSt6__ndk110__function6__funcIZZN14NetworkManager2onI18ReceiveTokenPacketQsr3stdE12is_base_of_vI6PacketT_EEEvNS_8functionIFvPS6_EEEbENKUlNS_12basic_stringIcNS_11char_traitsIcEENS_9allocatorIcEEEEE_clESG_EUlvE_NSE_ISI_EEFvvEE7__cloneEPNS0_6__baseISK_EE
FUNC 131ea0 38 0 _ZNSt6__ndk110__function6__funcIZZN14NetworkManager2onI18ReceiveTokenPacketQsr3stdE12is_base_of_vI6PacketT_EEEvNS_8functionIFvPS6_EEEbENKUlNS_12basic_stringIcNS_11char_traitsIcEENS_9allocatorIcEEEEE_clESG_EUlvE_NSE_ISI_EEFvvEE7destroyEv
FUNC 131ed8 50 0 _ZNSt6__ndk110__function6__funcIZZN14NetworkManager2onI18ReceiveTokenPacketQsr3stdE12is_base_of_vI6PacketT_EEEvNS_8functionIFvPS6_EEEbENKUlNS_12basic_stringIcNS_11char_traitsIcEENS_9allocatorIcEEEEE_clESG_EUlvE_NSE_ISI_EEFvvEE18destroy_deallocateEv
FUNC 131f28 74 0 _ZNSt6__ndk110__function6__funcIZZN14NetworkManager2onI18ReceiveTokenPacketQsr3stdE12is_base_of_vI6PacketT_EEEvNS_8functionIFvPS6_EEEbENKUlNS_12basic_stringIcNS_11char_traitsIcEENS_9allocatorIcEEEEE_clESG_EUlvE_NSE_ISI_EEFvvEEclEv
FUNC 131f9c 1c 0 _ZNKSt6__ndk110__function6__funcIZZN14NetworkManager2onI18ReceiveTokenPacketQsr3stdE12is_base_of_vI6PacketT_EEEvNS_8functionIFvPS6_EEEbENKUlNS_12basic_stringIcNS_11char_traitsIcEENS_9allocatorIcEEEEE_clESG_EUlvE_NSE_ISI_EEFvvEE6targetERKSt9type_info
FUNC 131fb8 c 0 _ZNKSt6__ndk110__function6__funcIZZN14NetworkManager2onI18ReceiveTokenPacketQsr3stdE12is_base_of_vI6PacketT_EEEvNS_8functionIFvPS6_EEEbENKUlNS_12basic_stringIcNS_11char_traitsIcEENS_9allocatorIcEEEEE_clESG_EUlvE_NSE_ISI_EEFvvEE11target_typeEv
FUNC 131fc4 44 0 std::__ndk1::__function::__func<AuthManager::beginAuthorization(std::__ndk1::function<void ()>)::$_1, std::__ndk1::allocator<AuthManager::beginAuthorization(std::__ndk1::function<void ()>)::$_1>, void (ReceiveTokenPacket*)>::~__func()
FUNC 132008 5c 0 std::__ndk1::__function::__func<AuthManager::beginAuthorization(std::__ndk1::function<void ()>)::$_1, std::__ndk1::allocator<AuthManager::beginAuthorization(std::__ndk1::function<void ()>)::$_1>, void (ReceiveTokenPacket*)>::~__func()
FUNC 132064 90 0 std::__ndk1::__function::__func<AuthManager::beginAuthorization(std::__ndk1::function<void ()>)::$_1, std::__ndk1::allocator<AuthManager::beginAuthorization(std::__ndk1::function<void ()>)::$_1>, void (ReceiveTokenPacket*)>::__clone() const
FUNC 1320f4 80 0 std::__ndk1::__function::__func<AuthManager::beginAuthorization(std::__ndk1::function<void ()>)::$_1, std::__ndk1::allocator<AuthManager::beginAuthorization(std::__ndk1::function<void ()>)::$_1>, void (ReceiveTokenPacket*)>::__clone(std::__ndk1::__function::__base<void (ReceiveTokenPacket*)>*) const
FUNC 132174 38 0 std::__ndk1::__function::__func<AuthManager::beginAuthorization(std::__ndk1::function<void ()>)::$_1, std::__ndk1::allocator<AuthManager::beginAuthorization(std::__ndk1::function<void ()>)::$_1>, void (ReceiveTokenPacket*)>::destroy()
FUNC 1321ac 50 0 std::__ndk1::__function::__func<AuthManager::beginAuthorization(std::__ndk1::function<void ()>)::$_1, std::__ndk1::allocator<AuthManager::beginAuthorization(std::__ndk1::function<void ()>)::$_1>, void (ReceiveTokenPacket*)>::destroy_deallocate()
FUNC 1321fc 42c 0 std::__ndk1::__function::__func<AuthManager::beginAuthorization(std::__ndk1::function<void ()>)::$_1, std::__ndk1::allocator<AuthManager::beginAuthorization(std::__ndk1::function<void ()>)::$_1>, void (ReceiveTokenPacket*)>::operator()(ReceiveTokenPacket*&&)
FUNC 132628 1c 0 std::__ndk1::__function::__func<AuthManager::beginAuthorization(std::__ndk1::function<void ()>)::$_1, std::__ndk1::allocator<AuthManager::beginAuthorization(std::__ndk1::function<void ()>)::$_1>, void (ReceiveTokenPacket*)>::target(std::type_info const&) const
FUNC 132644 c 0 std::__ndk1::__function::__func<AuthManager::beginAuthorization(std::__ndk1::function<void ()>)::$_1, std::__ndk1::allocator<AuthManager::beginAuthorization(std::__ndk1::function<void ()>)::$_1>, void (ReceiveTokenPacket*)>::target_type() const
FUNC 132650 4 0 LoginPacket::decode(std::__ndk1::basic_string<char, std::__ndk1::char_traits<char>, std::__ndk1::allocator<char> >)
FUNC 132654 8 0 LoginPacket::getPacketID() const
FUNC 13265c c 0 LoginPacket::getPacketName() const
FUNC 132668 138 0 cereal::OutputArchive<cereal::JSONOutputArchive, (unsigned int)0>::process<cereal::NameValuePair<int&>, cereal::NameValuePair<int&>, cereal::NameValuePair<int&>, cereal::NameValuePair<int&>, cereal::NameValuePair<int&>, cereal::NameValuePair<int&> >(cereal::NameValuePair<int&>&&, cereal::NameValuePair<int&>&&, cereal::NameValuePair<int&>, cereal::NameValuePair<int&>, cereal::NameValuePair<int&>, cereal::NameValuePair<int&>)
FUNC 1327a0 130 0 cereal::OutputArchive<cereal::JSONOutputArchive, (unsigned int)0>::process<cereal::NameValuePair<int&>, cereal::NameValuePair<int&>, cereal::NameValuePair<int&>, cereal::NameValuePair<int&>, cereal::NameValuePair<int&> >(cereal::NameValuePair<int&>&&, cereal::NameValuePair<int&>&&, cereal::NameValuePair<int&>, cereal::NameValuePair<int&>, cereal::NameValuePair<int&>)
FUNC 1328d0 120 0 cereal::OutputArchive<cereal::JSONOutputArchive, (unsigned int)0>::process<cereal::NameValuePair<int&>, cereal::NameValuePair<int&>, cereal::NameValuePair<int&>, cereal::NameValuePair<int&> >(cereal::NameValuePair<int&>&&, cereal::NameValuePair<int&>&&, cereal::NameValuePair<int&>, cereal::NameValuePair<int&>)
FUNC 1329f0 118 0 cereal::OutputArchive<cereal::JSONOutputArchive, (unsigned int)0>::process<cereal::NameValuePair<int&>, cereal::NameValuePair<int&>, cereal::NameValuePair<int&> >(cereal::NameValuePair<int&>&&, cereal::NameValuePair<int&>&&, cereal::NameValuePair<int&>)
FUNC 132b08 1a8 0 cereal::OutputArchive<cereal::JSONOutputArchive, (unsigned int)0>::process<cereal::NameValuePair<int&>, cereal::NameValuePair<int&> >(cereal::NameValuePair<int&>&&, cereal::NameValuePair<int&>&&)
FUNC 132cb0 44 0 std::__ndk1::__function::__func<NetworkManager::send<LoginPacket>(LoginPacket*, std::__ndk1::function<void ()>)::{lambda(int, int)#1}, std::__ndk1::allocator<NetworkManager::send<LoginPacket>(LoginPacket*, std::__ndk1::function<void ()>)::{lambda(int, int)#1}>, bool (int, int)>::~__func()
FUNC 132cf4 5c 0 std::__ndk1::__function::__func<NetworkManager::send<LoginPacket>(LoginPacket*, std::__ndk1::function<void ()>)::{lambda(int, int)#1}, std::__ndk1::allocator<NetworkManager::send<LoginPacket>(LoginPacket*, std::__ndk1::function<void ()>)::{lambda(int, int)#1}>, bool (int, int)>::~__func()
FUNC 132d50 88 0 std::__ndk1::__function::__func<NetworkManager::send<LoginPacket>(LoginPacket*, std::__ndk1::function<void ()>)::{lambda(int, int)#1}, std::__ndk1::allocator<NetworkManager::send<LoginPacket>(LoginPacket*, std::__ndk1::function<void ()>)::{lambda(int, int)#1}>, bool (int, int)>::__clone() const
FUNC 132dd8 74 0 std::__ndk1::__function::__func<NetworkManager::send<LoginPacket>(LoginPacket*, std::__ndk1::function<void ()>)::{lambda(int, int)#1}, std::__ndk1::allocator<NetworkManager::send<LoginPacket>(LoginPacket*, std::__ndk1::function<void ()>)::{lambda(int, int)#1}>, bool (int, int)>::__clone(std::__ndk1::__function::__base<bool (int, int)>*) const
FUNC 132e4c 38 0 std::__ndk1::__function::__func<NetworkManager::send<LoginPacket>(LoginPacket*, std::__ndk1::function<void ()>)::{lambda(int, int)#1}, std::__ndk1::allocator<NetworkManager::send<LoginPacket>(LoginPacket*, std::__ndk1::function<void ()>)::{lambda(int, int)#1}>, bool (int, int)>::destroy()
FUNC 132e84 50 0 std::__ndk1::__function::__func<NetworkManager::send<LoginPacket>(LoginPacket*, std::__ndk1::function<void ()>)::{lambda(int, int)#1}, std::__ndk1::allocator<NetworkManager::send<LoginPacket>(LoginPacket*, std::__ndk1::function<void ()>)::{lambda(int, int)#1}>, bool (int, int)>::destroy_deallocate()
FUNC 132ed4 21c 0 std::__ndk1::__function::__func<NetworkManager::send<LoginPacket>(LoginPacket*, std::__ndk1::function<void ()>)::{lambda(int, int)#1}, std::__ndk1::allocator<NetworkManager::send<LoginPacket>(LoginPacket*, std::__ndk1::function<void ()>)::{lambda(int, int)#1}>, bool (int, int)>::operator()(int&&, int&&)
FUNC 1330f0 1c 0 std::__ndk1::__function::__func<NetworkManager::send<LoginPacket>(LoginPacket*, std::__ndk1::function<void ()>)::{lambda(int, int)#1}, std::__ndk1::allocator<NetworkManager::send<LoginPacket>(LoginPacket*, std::__ndk1::function<void ()>)::{lambda(int, int)#1}>, bool (int, int)>::target(std::type_info const&) const
FUNC 13310c c 0 std::__ndk1::__function::__func<NetworkManager::send<LoginPacket>(LoginPacket*, std::__ndk1::function<void ()>)::{lambda(int, int)#1}, std::__ndk1::allocator<NetworkManager::send<LoginPacket>(LoginPacket*, std::__ndk1::function<void ()>)::{lambda(int, int)#1}>, bool (int, int)>::target_type() const
FUNC 133118 44 0 std::__ndk1::__function::__func<NetworkManager::send<LoginPacket>(LoginPacket*, std::__ndk1::function<void ()>)::{lambda(int, int)#1}::operator()(int, int) const::{lambda()#1}, std::__ndk1::allocator<NetworkManager::send<LoginPacket>(LoginPacket*, std::__ndk1::function<void ()>)::{lambda(int, int)#1}::operator()(int, int) const::{lambda()#1}>, void ()>::~__func()
FUNC 13315c 5c 0 std::__ndk1::__function::__func<NetworkManager::send<LoginPacket>(LoginPacket*, std::__ndk1::function<void ()>)::{lambda(int, int)#1}::operator()(int, int) const::{lambda()#1}, std::__ndk1::allocator<NetworkManager::send<LoginPacket>(LoginPacket*, std::__ndk1::function<void ()>)::{lambda(int, int)#1}::operator()(int, int) const::{lambda()#1}>, void ()>::~__func()
FUNC 1331b8 88 0 std::__ndk1::__function::__func<NetworkManager::send<LoginPacket>(LoginPacket*, std::__ndk1::function<void ()>)::{lambda(int, int)#1}::operator()(int, int) const::{lambda()#1}, std::__ndk1::allocator<NetworkManager::send<LoginPacket>(LoginPacket*, std::__ndk1::function<void ()>)::{lambda(int, int)#1}::operator()(int, int) const::{lambda()#1}>, void ()>::__clone() const
FUNC 133240 74 0 std::__ndk1::__function::__func<NetworkManager::send<LoginPacket>(LoginPacket*, std::__ndk1::function<void ()>)::{lambda(int, int)#1}::operator()(int, int) const::{lambda()#1}, std::__ndk1::allocator<NetworkManager::send<LoginPacket>(LoginPacket*, std::__ndk1::function<void ()>)::{lambda(int, int)#1}::operator()(int, int) const::{lambda()#1}>, void ()>::__clone(std::__ndk1::__function::__base<void ()>*) const
FUNC 1332b4 38 0 std::__ndk1::__function::__func<NetworkManager::send<LoginPacket>(LoginPacket*, std::__ndk1::function<void ()>)::{lambda(int, int)#1}::operator()(int, int) const::{lambda()#1}, std::__ndk1::allocator<NetworkManager::send<LoginPacket>(LoginPacket*, std::__ndk1::function<void ()>)::{lambda(int, int)#1}::operator()(int, int) const::{lambda()#1}>, void ()>::destroy()
FUNC 1332ec 50 0 std::__ndk1::__function::__func<NetworkManager::send<LoginPacket>(LoginPacket*, std::__ndk1::function<void ()>)::{lambda(int, int)#1}::operator()(int, int) const::{lambda()#1}, std::__ndk1::allocator<NetworkManager::send<LoginPacket>(LoginPacket*, std::__ndk1::function<void ()>)::{lambda(int, int)#1}::operator()(int, int) const::{lambda()#1}>, void ()>::destroy_deallocate()
FUNC 13333c 20 0 std::__ndk1::__function::__func<NetworkManager::send<LoginPacket>(LoginPacket*, std::__ndk1::function<void ()>)::{lambda(int, int)#1}::operator()(int, int) const::{lambda()#1}, std::__ndk1::allocator<NetworkManager::send<LoginPacket>(LoginPacket*, std::__ndk1::function<void ()>)::{lambda(int, int)#1}::operator()(int, int) const::{lambda()#1}>, void ()>::operator()()
FUNC 13335c 1c 0 std::__ndk1::__function::__func<NetworkManager::send<LoginPacket>(LoginPacket*, std::__ndk1::function<void ()>)::{lambda(int, int)#1}::operator()(int, int) const::{lambda()#1}, std::__ndk1::allocator<NetworkManager::send<LoginPacket>(LoginPacket*, std::__ndk1::function<void ()>)::{lambda(int, int)#1}::operator()(int, int) const::{lambda()#1}>, void ()>::target(std::type_info const&) const
FUNC 133378 c 0 std::__ndk1::__function::__func<NetworkManager::send<LoginPacket>(LoginPacket*, std::__ndk1::function<void ()>)::{lambda(int, int)#1}::operator()(int, int) const::{lambda()#1}, std::__ndk1::allocator<NetworkManager::send<LoginPacket>(LoginPacket*, std::__ndk1::function<void ()>)::{lambda(int, int)#1}::operator()(int, int) const::{lambda()#1}>, void ()>::target_type() const
FUNC 133384 44 0 _ZNSt6__ndk110__function6__funcIZN14NetworkManager2onI14LoggedInPacketQsr3stdE12is_base_of_vI6PacketT_EEEvNS_8functionIFvPS6_EEEbEUlNS_12basic_stringIcNS_11char_traitsIcEENS_9allocatorIcEEEEE_NSE_ISH_EEFvSG_EED2Ev
FUNC 1333c8 5c 0 _ZNSt6__ndk110__function6__funcIZN14NetworkManager2onI14LoggedInPacketQsr3stdE12is_base_of_vI6PacketT_EEEvNS_8functionIFvPS6_EEEbEUlNS_12basic_stringIcNS_11char_traitsIcEENS_9allocatorIcEEEEE_NSE_ISH_EEFvSG_EED0Ev
FUNC 133424 88 0 _ZNKSt6__ndk110__function6__funcIZN14NetworkManager2onI14LoggedInPacketQsr3stdE12is_base_of_vI6PacketT_EEEvNS_8functionIFvPS6_EEEbEUlNS_12basic_stringIcNS_11char_traitsIcEENS_9allocatorIcEEEEE_NSE_ISH_EEFvSG_EE7__cloneEv
FUNC 1334ac 74 0 _ZNKSt6__ndk110__function6__funcIZN14NetworkManager2onI14LoggedInPacketQsr3stdE12is_base_of_vI6PacketT_EEEvNS_8functionIFvPS6_EEEbEUlNS_12basic_stringIcNS_11char_traitsIcEENS_9allocatorIcEEEEE_NSE_ISH_EEFvSG_EE7__cloneEPNS0_6__baseISJ_EE
FUNC 133520 38 0 _ZNSt6__ndk110__function6__funcIZN14NetworkManager2onI14LoggedInPacketQsr3stdE12is_base_of_vI6PacketT_EEEvNS_8functionIFvPS6_EEEbEUlNS_12basic_stringIcNS_11char_traitsIcEENS_9allocatorIcEEEEE_NSE_ISH_EEFvSG_EE7destroyEv
FUNC 133558 50 0 _ZNSt6__ndk110__function6__funcIZN14NetworkManager2onI14LoggedInPacketQsr3stdE12is_base_of_vI6PacketT_EEEvNS_8functionIFvPS6_EEEbEUlNS_12basic_stringIcNS_11char_traitsIcEENS_9allocatorIcEEEEE_NSE_ISH_EEFvSG_EE18destroy_deallocateEv
FUNC 1335a8 3bc 0 _ZNSt6__ndk110__function6__funcIZN14NetworkManager2onI14LoggedInPacketQsr3stdE12is_base_of_vI6PacketT_EEEvNS_8functionIFvPS6_EEEbEUlNS_12basic_stringIcNS_11char_traitsIcEENS_9allocatorIcEEEEE_NSE_ISH_EEFvSG_EEclEOSG_
FUNC 133964 1c 0 _ZNKSt6__ndk110__function6__funcIZN14NetworkManager2onI14LoggedInPacketQsr3stdE12is_base_of_vI6PacketT_EEEvNS_8functionIFvPS6_EEEbEUlNS_12basic_stringIcNS_11char_traitsIcEENS_9allocatorIcEEEEE_NSE_ISH_EEFvSG_EE6targetERKSt9type_info
FUNC 133980 c 0 _ZNKSt6__ndk110__function6__funcIZN14NetworkManager2onI14LoggedInPacketQsr3stdE12is_base_of_vI6PacketT_EEEvNS_8functionIFvPS6_EEEbEUlNS_12basic_stringIcNS_11char_traitsIcEENS_9allocatorIcEEEEE_NSE_ISH_EEFvSG_EE11target_typeEv
FUNC 13398c 4 0 LoggedInPacket::decode(std::__ndk1::basic_string<char, std::__ndk1::char_traits<char>, std::__ndk1::allocator<char> >)
FUNC 133990 8 0 LoggedInPacket::getPacketID() const
FUNC 133998 c 0 LoggedInPacket::getPacketName() const
FUNC 1339a4 44 0 _ZNSt6__ndk110__function6__funcIZZN14NetworkManager2onI14LoggedInPacketQsr3stdE12is_base_of_vI6PacketT_EEEvNS_8functionIFvPS6_EEEbENKUlNS_12basic_stringIcNS_11char_traitsIcEENS_9allocatorIcEEEEE_clESG_EUlvE_NSE_ISI_EEFvvEED2Ev
FUNC 1339e8 5c 0 _ZNSt6__ndk110__function6__funcIZZN14NetworkManager2onI14LoggedInPacketQsr3stdE12is_base_of_vI6PacketT_EEEvNS_8functionIFvPS6_EEEbENKUlNS_12basic_stringIcNS_11char_traitsIcEENS_9allocatorIcEEEEE_clESG_EUlvE_NSE_ISI_EEFvvEED0Ev
FUNC 133a44 90 0 _ZNKSt6__ndk110__function6__funcIZZN14NetworkManager2onI14LoggedInPacketQsr3stdE12is_base_of_vI6PacketT_EEEvNS_8functionIFvPS6_EEEbENKUlNS_12basic_stringIcNS_11char_traitsIcEENS_9allocatorIcEEEEE_clESG_EUlvE_NSE_ISI_EEFvvEE7__cloneEv
FUNC 133ad4 78 0 _ZNKSt6__ndk110__function6__funcIZZN14NetworkManager2onI14LoggedInPacketQsr3stdE12is_base_of_vI6PacketT_EEEvNS_8functionIFvPS6_EEEbENKUlNS_12basic_stringIcNS_11char_traitsIcEENS_9allocatorIcEEEEE_clESG_EUlvE_NSE_ISI_EEFvvEE7__cloneEPNS0_6__baseISK_EE
FUNC 133b4c 38 0 _ZNSt6__ndk110__function6__funcIZZN14NetworkManager2onI14LoggedInPacketQsr3stdE12is_base_of_vI6PacketT_EEEvNS_8functionIFvPS6_EEEbENKUlNS_12basic_stringIcNS_11char_traitsIcEENS_9allocatorIcEEEEE_clESG_EUlvE_NSE_ISI_EEFvvEE7destroyEv
FUNC 133b84 50 0 _ZNSt6__ndk110__function6__funcIZZN14NetworkManager2onI14LoggedInPacketQsr3stdE12is_base_of_vI6PacketT_EEEvNS_8functionIFvPS6_EEEbENKUlNS_12basic_stringIcNS_11char_traitsIcEENS_9allocatorIcEEEEE_clESG_EUlvE_NSE_ISI_EEFvvEE18destroy_deallocateEv
FUNC 133bd4 74 0 _ZNSt6__ndk110__function6__funcIZZN14NetworkManager2onI14LoggedInPacketQsr3stdE12is_base_of_vI6PacketT_EEEvNS_8functionIFvPS6_EEEbENKUlNS_12basic_stringIcNS_11char_traitsIcEENS_9allocatorIcEEEEE_clESG_EUlvE_NSE_ISI_EEFvvEEclEv
FUNC 133c48 1c 0 _ZNKSt6__ndk110__function6__funcIZZN14NetworkManager2onI14LoggedInPacketQsr3stdE12is_base_of_vI6PacketT_EEEvNS_8functionIFvPS6_EEEbENKUlNS_12basic_stringIcNS_11char_traitsIcEENS_9allocatorIcEEEEE_clESG_EUlvE_NSE_ISI_EEFvvEE6targetERKSt9type_info
FUNC 133c64 c 0 _ZNKSt6__ndk110__function6__funcIZZN14NetworkManager2onI14LoggedInPacketQsr3stdE12is_base_of_vI6PacketT_EEEvNS_8functionIFvPS6_EEEbENKUlNS_12basic_stringIcNS_11char_traitsIcEENS_9allocatorIcEEEEE_clESG_EUlvE_NSE_ISI_EEFvvEE11target_typeEv
FUNC 133c70 44 0 std::__ndk1::__function::__func<AuthManager::login(std::__ndk1::function<void ()>)::$_0, std::__ndk1::allocator<AuthManager::login(std::__ndk1::function<void ()>)::$_0>, void (LoggedInPacket*)>::~__func()
FUNC 133cb4 5c 0 std::__ndk1::__function::__func<AuthManager::login(std::__ndk1::function<void ()>)::$_0, std::__ndk1::allocator<AuthManager::login(std::__ndk1::function<void ()>)::$_0>, void (LoggedInPacket*)>::~__func()
FUNC 133d10 88 0 std::__ndk1::__function::__func<AuthManager::login(std::__ndk1::function<void ()>)::$_0, std::__ndk1::allocator<AuthManager::login(std::__ndk1::function<void ()>)::$_0>, void (LoggedInPacket*)>::__clone() const
FUNC 133d98 74 0 std::__ndk1::__function::__func<AuthManager::login(std::__ndk1::function<void ()>)::$_0, std::__ndk1::allocator<AuthManager::login(std::__ndk1::function<void ()>)::$_0>, void (LoggedInPacket*)>::__clone(std::__ndk1::__function::__base<void (LoggedInPacket*)>*) const
FUNC 133e0c 38 0 std::__ndk1::__function::__func<AuthManager::login(std::__ndk1::function<void ()>)::$_0, std::__ndk1::allocator<AuthManager::login(std::__ndk1::function<void ()>)::$_0>, void (LoggedInPacket*)>::destroy()
FUNC 133e44 50 0 std::__ndk1::__function::__func<AuthManager::login(std::__ndk1::function<void ()>)::$_0, std::__ndk1::allocator<AuthManager::login(std::__ndk1::function<void ()>)::$_0>, void (LoggedInPacket*)>::destroy_deallocate()
FUNC 133e94 20 0 std::__ndk1::__function::__func<AuthManager::login(std::__ndk1::function<void ()>)::$_0, std::__ndk1::allocator<AuthManager::login(std::__ndk1::function<void ()>)::$_0>, void (LoggedInPacket*)>::operator()(LoggedInPacket*&&)
FUNC 133eb4 1c 0 std::__ndk1::__function::__func<AuthManager::login(std::__ndk1::function<void ()>)::$_0, std::__ndk1::allocator<AuthManager::login(std::__ndk1::function<void ()>)::$_0>, void (LoggedInPacket*)>::target(std::type_info const&) const
FUNC 133ed0 c 0 std::__ndk1::__function::__func<AuthManager::login(std::__ndk1::function<void ()>)::$_0, std::__ndk1::allocator<AuthManager::login(std::__ndk1::function<void ()>)::$_0>, void (LoggedInPacket*)>::target_type() const
FUNC 133edc 4 0 VerifyAuthPacket::decode(std::__ndk1::basic_string<char, std::__ndk1::char_traits<char>, std::__ndk1::allocator<char> >)
FUNC 133ee0 8 0 VerifyAuthPacket::getPacketID() const
FUNC 133ee8 c 0 VerifyAuthPacket::getPacketName() const
FUNC 133ef4 44 0 std::__ndk1::__function::__func<NetworkManager::send<VerifyAuthPacket>(VerifyAuthPacket*, std::__ndk1::function<void ()>)::{lambda(int, int)#1}, std::__ndk1::allocator<NetworkManager::send<VerifyAuthPacket>(VerifyAuthPacket*, std::__ndk1::function<void ()>)::{lambda(int, int)#1}>, bool (int, int)>::~__func()
FUNC 133f38 5c 0 std::__ndk1::__function::__func<NetworkManager::send<VerifyAuthPacket>(VerifyAuthPacket*, std::__ndk1::function<void ()>)::{lambda(int, int)#1}, std::__ndk1::allocator<NetworkManager::send<VerifyAuthPacket>(VerifyAuthPacket*, std::__ndk1::function<void ()>)::{lambda(int, int)#1}>, bool (int, int)>::~__func()
FUNC 133f94 88 0 std::__ndk1::__function::__func<NetworkManager::send<VerifyAuthPacket>(VerifyAuthPacket*, std::__ndk1::function<void ()>)::{lambda(int, int)#1}, std::__ndk1::allocator<NetworkManager::send<VerifyAuthPacket>(VerifyAuthPacket*, std::__ndk1::function<void ()>)::{lambda(int, int)#1}>, bool (int, int)>::__clone() const
FUNC 13401c 74 0 std::__ndk1::__function::__func<NetworkManager::send<VerifyAuthPacket>(VerifyAuthPacket*, std::__ndk1::function<void ()>)::{lambda(int, int)#1}, std::__ndk1::allocator<NetworkManager::send<VerifyAuthPacket>(VerifyAuthPacket*, std::__ndk1::function<void ()>)::{lambda(int, int)#1}>, bool (int, int)>::__clone(std::__ndk1::__function::__base<bool (int, int)>*) const
FUNC 134090 38 0 std::__ndk1::__function::__func<NetworkManager::send<VerifyAuthPacket>(VerifyAuthPacket*, std::__ndk1::function<void ()>)::{lambda(int, int)#1}, std::__ndk1::allocator<NetworkManager::send<VerifyAuthPacket>(VerifyAuthPacket*, std::__ndk1::function<void ()>)::{lambda(int, int)#1}>, bool (int, int)>::destroy()
FUNC 1340c8 50 0 std::__ndk1::__function::__func<NetworkManager::send<VerifyAuthPacket>(VerifyAuthPacket*, std::__ndk1::function<void ()>)::{lambda(int, int)#1}, std::__ndk1::allocator<NetworkManager::send<VerifyAuthPacket>(VerifyAuthPacket*, std::__ndk1::function<void ()>)::{lambda(int, int)#1}>, bool (int, int)>::destroy_deallocate()
FUNC 134118 21c 0 std::__ndk1::__function::__func<NetworkManager::send<VerifyAuthPacket>(VerifyAuthPacket*, std::__ndk1::function<void ()>)::{lambda(int, int)#1}, std::__ndk1::allocator<NetworkManager::send<VerifyAuthPacket>(VerifyAuthPacket*, std::__ndk1::function<void ()>)::{lambda(int, int)#1}>, bool (int, int)>::operator()(int&&, int&&)
FUNC 134334 1c 0 std::__ndk1::__function::__func<NetworkManager::send<VerifyAuthPacket>(VerifyAuthPacket*, std::__ndk1::function<void ()>)::{lambda(int, int)#1}, std::__ndk1::allocator<NetworkManager::send<VerifyAuthPacket>(VerifyAuthPacket*, std::__ndk1::function<void ()>)::{lambda(int, int)#1}>, bool (int, int)>::target(std::type_info const&) const
FUNC 134350 c 0 std::__ndk1::__function::__func<NetworkManager::send<VerifyAuthPacket>(VerifyAuthPacket*, std::__ndk1::function<void ()>)::{lambda(int, int)#1}, std::__ndk1::allocator<NetworkManager::send<VerifyAuthPacket>(VerifyAuthPacket*, std::__ndk1::function<void ()>)::{lambda(int, int)#1}>, bool (int, int)>::target_type() const
FUNC 13435c 44 0 std::__ndk1::__function::__func<NetworkManager::send<VerifyAuthPacket>(VerifyAuthPacket*, std::__ndk1::function<void ()>)::{lambda(int, int)#1}::operator()(int, int) const::{lambda()#1}, std::__ndk1::allocator<NetworkManager::send<VerifyAuthPacket>(VerifyAuthPacket*, std::__ndk1::function<void ()>)::{lambda(int, int)#1}::operator()(int, int) const::{lambda()#1}>, void ()>::~__func()
FUNC 1343a0 5c 0 std::__ndk1::__function::__func<NetworkManager::send<VerifyAuthPacket>(VerifyAuthPacket*, std::__ndk1::function<void ()>)::{lambda(int, int)#1}::operator()(int, int) const::{lambda()#1}, std::__ndk1::allocator<NetworkManager::send<VerifyAuthPacket>(VerifyAuthPacket*, std::__ndk1::function<void ()>)::{lambda(int, int)#1}::operator()(int, int) const::{lambda()#1}>, void ()>::~__func()
FUNC 1343fc 88 0 std::__ndk1::__function::__func<NetworkManager::send<VerifyAuthPacket>(VerifyAuthPacket*, std::__ndk1::function<void ()>)::{lambda(int, int)#1}::operator()(int, int) const::{lambda()#1}, std::__ndk1::allocator<NetworkManager::send<VerifyAuthPacket>(VerifyAuthPacket*, std::__ndk1::function<void ()>)::{lambda(int, int)#1}::operator()(int, int) const::{lambda()#1}>, void ()>::__clone() const
FUNC 134484 74 0 std::__ndk1::__function::__func<NetworkManager::send<VerifyAuthPacket>(VerifyAuthPacket*, std::__ndk1::function<void ()>)::{lambda(int, int)#1}::operator()(int, int) const::{lambda()#1}, std::__ndk1::allocator<NetworkManager::send<VerifyAuthPacket>(VerifyAuthPacket*, std::__ndk1::function<void ()>)::{lambda(int, int)#1}::operator()(int, int) const::{lambda()#1}>, void ()>::__clone(std::__ndk1::__function::__base<void ()>*) const
FUNC 1344f8 38 0 std::__ndk1::__function::__func<NetworkManager::send<VerifyAuthPacket>(VerifyAuthPacket*, std::__ndk1::function<void ()>)::{lambda(int, int)#1}::operator()(int, int) const::{lambda()#1}, std::__ndk1::allocator<NetworkManager::send<VerifyAuthPacket>(VerifyAuthPacket*, std::__ndk1::function<void ()>)::{lambda(int, int)#1}::operator()(int, int) const::{lambda()#1}>, void ()>::destroy()
FUNC 134530 50 0 std::__ndk1::__function::__func<NetworkManager::send<VerifyAuthPacket>(VerifyAuthPacket*, std::__ndk1::function<void ()>)::{lambda(int, int)#1}::operator()(int, int) const::{lambda()#1}, std::__ndk1::allocator<NetworkManager::send<VerifyAuthPacket>(VerifyAuthPacket*, std::__ndk1::function<void ()>)::{lambda(int, int)#1}::operator()(int, int) const::{lambda()#1}>, void ()>::destroy_deallocate()
FUNC 134580 20 0 std::__ndk1::__function::__func<NetworkManager::send<VerifyAuthPacket>(VerifyAuthPacket*, std::__ndk1::function<void ()>)::{lambda(int, int)#1}::operator()(int, int) const::{lambda()#1}, std::__ndk1::allocator<NetworkManager::send<VerifyAuthPacket>(VerifyAuthPacket*, std::__ndk1::function<void ()>)::{lambda(int, int)#1}::operator()(int, int) const::{lambda()#1}>, void ()>::operator()()
FUNC 1345a0 1c 0 std::__ndk1::__function::__func<NetworkManager::send<VerifyAuthPacket>(VerifyAuthPacket*, std::__ndk1::function<void ()>)::{lambda(int, int)#1}::operator()(int, int) const::{lambda()#1}, std::__ndk1::allocator<NetworkManager::send<VerifyAuthPacket>(VerifyAuthPacket*, std::__ndk1::function<void ()>)::{lambda(int, int)#1}::operator()(int, int) const::{lambda()#1}>, void ()>::target(std::type_info const&) const
FUNC 1345bc c 0 std::__ndk1::__function::__func<NetworkManager::send<VerifyAuthPacket>(VerifyAuthPacket*, std::__ndk1::function<void ()>)::{lambda(int, int)#1}::operator()(int, int) const::{lambda()#1}, std::__ndk1::allocator<NetworkManager::send<VerifyAuthPacket>(VerifyAuthPacket*, std::__ndk1::function<void ()>)::{lambda(int, int)#1}::operator()(int, int) const::{lambda()#1}>, void ()>::target_type() const
FUNC 1345c8 60 0 _GLOBAL__sub_I_AuthManager.cpp
FUNC 134628 170 0 SwapManager::SwapManager()
FUNC 134798 144 0 SwapManager::createDefaultSettings()
FUNC 1348dc cc 0 cr::utils::createAccountType()
FUNC 1349a8 ff8 0 SwapManager::createLobby(LobbySettings, std::__ndk1::function<void (std::__ndk1::basic_string<char, std::__ndk1::char_traits<char>, std::__ndk1::allocator<char> >)>)
FUNC 1359a0 10c8 0 SwapManager::joinLobby(std::__ndk1::basic_string<char, std::__ndk1::char_traits<char>, std::__ndk1::allocator<char> >, std::__ndk1::function<void ()>)
FUNC 136a68 64 0 SwapManager::joinLobby(std::__ndk1::basic_string<char, std::__ndk1::char_traits<char>, std::__ndk1::allocator<char> >, std::__ndk1::function<void ()>)::$_0::~$_0()
FUNC 136acc df8 0 SwapManager::getLobbyInfo(std::__ndk1::function<void (LobbyInfo)>)
FUNC 1378c4 db8 0 SwapManager::updateLobby(LobbySettings)
FUNC 13867c 168 0 SwapManager::disconnectLobby()
FUNC 1387e4 134 0 SwapManager::startSwap(SwapStartedPacket*)
FUNC 138918 8f8 0 SwapManager::registerListeners()
FUNC 139210 4 0 std::__ndk1::__function::__func<SwapManager::SwapManager()::$_0, std::__ndk1::allocator<SwapManager::SwapManager()::$_0>, void (std::__ndk1::basic_string<char, std::__ndk1::char_traits<char>, std::__ndk1::allocator<char> >)>::~__func()
FUNC 139214 34 0 std::__ndk1::__function::__func<SwapManager::SwapManager()::$_0, std::__ndk1::allocator<SwapManager::SwapManager()::$_0>, void (std::__ndk1::basic_string<char, std::__ndk1::char_traits<char>, std::__ndk1::allocator<char> >)>::__clone() const
FUNC 139248 14 0 std::__ndk1::__function::__func<SwapManager::SwapManager()::$_0, std::__ndk1::allocator<SwapManager::SwapManager()::$_0>, void (std::__ndk1::basic_string<char, std::__ndk1::char_traits<char>, std::__ndk1::allocator<char> >)>::__clone(std::__ndk1::__function::__base<void (std::__ndk1::basic_string<char, std::__ndk1::char_traits<char>, std::__ndk1::allocator<char> >)>*) const
FUNC 13925c 4 0 std::__ndk1::__function::__func<SwapManager::SwapManager()::$_0, std::__ndk1::allocator<SwapManager::SwapManager()::$_0>, void (std::__ndk1::basic_string<char, std::__ndk1::char_traits<char>, std::__ndk1::allocator<char> >)>::destroy()
FUNC 139260 4 0 std::__ndk1::__function::__func<SwapManager::SwapManager()::$_0, std::__ndk1::allocator<SwapManager::SwapManager()::$_0>, void (std::__ndk1::basic_string<char, std::__ndk1::char_traits<char>, std::__ndk1::allocator<char> >)>::destroy_deallocate()
FUNC 139264 44 0 std::__ndk1::__function::__func<SwapManager::SwapManager()::$_0, std::__ndk1::allocator<SwapManager::SwapManager()::$_0>, void (std::__ndk1::basic_string<char, std::__ndk1::char_traits<char>, std::__ndk1::allocator<char> >)>::operator()(std::__ndk1::basic_string<char, std::__ndk1::char_traits<char>, std::__ndk1::allocator<char> >&&)
FUNC 1392a8 1c 0 std::__ndk1::__function::__func<SwapManager::SwapManager()::$_0, std::__ndk1::allocator<SwapManager::SwapManager()::$_0>, void (std::__ndk1::basic_string<char, std::__ndk1::char_traits<char>, std::__ndk1::allocator<char> >)>::target(std::type_info const&) const
FUNC 1392c4 c 0 std::__ndk1::__function::__func<SwapManager::SwapManager()::$_0, std::__ndk1::allocator<SwapManager::SwapManager()::$_0>, void (std::__ndk1::basic_string<char, std::__ndk1::char_traits<char>, std::__ndk1::allocator<char> >)>::target_type() const
FUNC 1392d0 4 0 CreateLobbyPacket::decode(std::__ndk1::basic_string<char, std::__ndk1::char_traits<char>, std::__ndk1::allocator<char> >)
FUNC 1392d4 8 0 CreateLobbyPacket::getPacketID() const
FUNC 1392dc c 0 CreateLobbyPacket::getPacketName() const
FUNC 1392e8 390 0 cereal::OutputArchive<cereal::JSONOutputArchive, (unsigned int)0>::process<cereal::NameValuePair<int&>, cereal::NameValuePair<Account&>, cereal::NameValuePair<int&>, cereal::NameValuePair<bool&> >(cereal::NameValuePair<int&>&&, cereal::NameValuePair<Account&>&&, cereal::NameValuePair<int&>, cereal::NameValuePair<bool&>)
FUNC 139678 44 0 std::__ndk1::__function::__func<NetworkManager::send<CreateLobbyPacket>(CreateLobbyPacket*, std::__ndk1::function<void ()>)::{lambda(int, int)#1}, std::__ndk1::allocator<NetworkManager::send<CreateLobbyPacket>(CreateLobbyPacket*, std::__ndk1::function<void ()>)::{lambda(int, int)#1}>, bool (int, int)>::~__func()
FUNC 1396bc 5c 0 std::__ndk1::__function::__func<NetworkManager::send<CreateLobbyPacket>(CreateLobbyPacket*, std::__ndk1::function<void ()>)::{lambda(int, int)#1}, std::__ndk1::allocator<NetworkManager::send<CreateLobbyPacket>(CreateLobbyPacket*, std::__ndk1::function<void ()>)::{lambda(int, int)#1}>, bool (int, int)>::~__func()
FUNC 139718 88 0 std::__ndk1::__function::__func<NetworkManager::send<CreateLobbyPacket>(CreateLobbyPacket*, std::__ndk1::function<void ()>)::{lambda(int, int)#1}, std::__ndk1::allocator<NetworkManager::send<CreateLobbyPacket>(CreateLobbyPacket*, std::__ndk1::function<void ()>)::{lambda(int, int)#1}>, bool (int, int)>::__clone() const
FUNC 1397a0 74 0 std::__ndk1::__function::__func<NetworkManager::send<CreateLobbyPacket>(CreateLobbyPacket*, std::__ndk1::function<void ()>)::{lambda(int, int)#1}, std::__ndk1::allocator<NetworkManager::send<CreateLobbyPacket>(CreateLobbyPacket*, std::__ndk1::function<void ()>)::{lambda(int, int)#1}>, bool (int, int)>::__clone(std::__ndk1::__function::__base<bool (int, int)>*) const
FUNC 139814 38 0 std::__ndk1::__function::__func<NetworkManager::send<CreateLobbyPacket>(CreateLobbyPacket*, std::__ndk1::function<void ()>)::{lambda(int, int)#1}, std::__ndk1::allocator<NetworkManager::send<CreateLobbyPacket>(CreateLobbyPacket*, std::__ndk1::function<void ()>)::{lambda(int, int)#1}>, bool (int, int)>::destroy()
FUNC 13984c 50 0 std::__ndk1::__function::__func<NetworkManager::send<CreateLobbyPacket>(CreateLobbyPacket*, std::__ndk1::function<void ()>)::{lambda(int, int)#1}, std::__ndk1::allocator<NetworkManager::send<CreateLobbyPacket>(CreateLobbyPacket*, std::__ndk1::function<void ()>)::{lambda(int, int)#1}>, bool (int, int)>::destroy_deallocate()
FUNC 13989c 21c 0 std::__ndk1::__function::__func<NetworkManager::send<CreateLobbyPacket>(CreateLobbyPacket*, std::__ndk1::function<void ()>)::{lambda(int, int)#1}, std::__ndk1::allocator<NetworkManager::send<CreateLobbyPacket>(CreateLobbyPacket*, std::__ndk1::function<void ()>)::{lambda(int, int)#1}>, bool (int, int)>::operator()(int&&, int&&)
FUNC 139ab8 1c 0 std::__ndk1::__function::__func<NetworkManager::send<CreateLobbyPacket>(CreateLobbyPacket*, std::__ndk1::function<void ()>)::{lambda(int, int)#1}, std::__ndk1::allocator<NetworkManager::send<CreateLobbyPacket>(CreateLobbyPacket*, std::__ndk1::function<void ()>)::{lambda(int, int)#1}>, bool (int, int)>::target(std::type_info const&) const
FUNC 139ad4 c 0 std::__ndk1::__function::__func<NetworkManager::send<CreateLobbyPacket>(CreateLobbyPacket*, std::__ndk1::function<void ()>)::{lambda(int, int)#1}, std::__ndk1::allocator<NetworkManager::send<CreateLobbyPacket>(CreateLobbyPacket*, std::__ndk1::function<void ()>)::{lambda(int, int)#1}>, bool (int, int)>::target_type() const
FUNC 139ae0 44 0 std::__ndk1::__function::__func<NetworkManager::send<CreateLobbyPacket>(CreateLobbyPacket*, std::__ndk1::function<void ()>)::{lambda(int, int)#1}::operator()(int, int) const::{lambda()#1}, std::__ndk1::allocator<NetworkManager::send<CreateLobbyPacket>(CreateLobbyPacket*, std::__ndk1::function<void ()>)::{lambda(int, int)#1}::operator()(int, int) const::{lambda()#1}>, void ()>::~__func()
FUNC 139b24 5c 0 std::__ndk1::__function::__func<NetworkManager::send<CreateLobbyPacket>(CreateLobbyPacket*, std::__ndk1::function<void ()>)::{lambda(int, int)#1}::operator()(int, int) const::{lambda()#1}, std::__ndk1::allocator<NetworkManager::send<CreateLobbyPacket>(CreateLobbyPacket*, std::__ndk1::function<void ()>)::{lambda(int, int)#1}::operator()(int, int) const::{lambda()#1}>, void ()>::~__func()
FUNC 139b80 88 0 std::__ndk1::__function::__func<NetworkManager::send<CreateLobbyPacket>(CreateLobbyPacket*, std::__ndk1::function<void ()>)::{lambda(int, int)#1}::operator()(int, int) const::{lambda()#1}, std::__ndk1::allocator<NetworkManager::send<CreateLobbyPacket>(CreateLobbyPacket*, std::__ndk1::function<void ()>)::{lambda(int, int)#1}::operator()(int, int) const::{lambda()#1}>, void ()>::__clone() const
FUNC 139c08 74 0 std::__ndk1::__function::__func<NetworkManager::send<CreateLobbyPacket>(CreateLobbyPacket*, std::__ndk1::function<void ()>)::{lambda(int, int)#1}::operator()(int, int) const::{lambda()#1}, std::__ndk1::allocator<NetworkManager::send<CreateLobbyPacket>(CreateLobbyPacket*, std::__ndk1::function<void ()>)::{lambda(int, int)#1}::operator()(int, int) const::{lambda()#1}>, void ()>::__clone(std::__ndk1::__function::__base<void ()>*) const
FUNC 139c7c 38 0 std::__ndk1::__function::__func<NetworkManager::send<CreateLobbyPacket>(CreateLobbyPacket*, std::__ndk1::function<void ()>)::{lambda(int, int)#1}::operator()(int, int) const::{lambda()#1}, std::__ndk1::allocator<NetworkManager::send<CreateLobbyPacket>(CreateLobbyPacket*, std::__ndk1::function<void ()>)::{lambda(int, int)#1}::operator()(int, int) const::{lambda()#1}>, void ()>::destroy()
FUNC 139cb4 50 0 std::__ndk1::__function::__func<NetworkManager::send<CreateLobbyPacket>(CreateLobbyPacket*, std::__ndk1::function<void ()>)::{lambda(int, int)#1}::operator()(int, int) const::{lambda()#1}, std::__ndk1::allocator<NetworkManager::send<CreateLobbyPacket>(CreateLobbyPacket*, std::__ndk1::function<void ()>)::{lambda(int, int)#1}::operator()(int, int) const::{lambda()#1}>, void ()>::destroy_deallocate()
FUNC 139d04 20 0 std::__ndk1::__function::__func<NetworkManager::send<CreateLobbyPacket>(CreateLobbyPacket*, std::__ndk1::function<void ()>)::{lambda(int, int)#1}::operator()(int, int) const::{lambda()#1}, std::__ndk1::allocator<NetworkManager::send<CreateLobbyPacket>(CreateLobbyPacket*, std::__ndk1::function<void ()>)::{lambda(int, int)#1}::operator()(int, int) const::{lambda()#1}>, void ()>::operator()()
FUNC 139d24 1c 0 std::__ndk1::__function::__func<NetworkManager::send<CreateLobbyPacket>(CreateLobbyPacket*, std::__ndk1::function<void ()>)::{lambda(int, int)#1}::operator()(int, int) const::{lambda()#1}, std::__ndk1::allocator<NetworkManager::send<CreateLobbyPacket>(CreateLobbyPacket*, std::__ndk1::function<void ()>)::{lambda(int, int)#1}::operator()(int, int) const::{lambda()#1}>, void ()>::target(std::type_info const&) const
FUNC 139d40 c 0 std::__ndk1::__function::__func<NetworkManager::send<CreateLobbyPacket>(CreateLobbyPacket*, std::__ndk1::function<void ()>)::{lambda(int, int)#1}::operator()(int, int) const::{lambda()#1}, std::__ndk1::allocator<NetworkManager::send<CreateLobbyPacket>(CreateLobbyPacket*, std::__ndk1::function<void ()>)::{lambda(int, int)#1}::operator()(int, int) const::{lambda()#1}>, void ()>::target_type() const
FUNC 139d4c 44 0 _ZNSt6__ndk110__function6__funcIZN14NetworkManager2onI18LobbyCreatedPacketQsr3stdE12is_base_of_vI6PacketT_EEEvNS_8functionIFvPS6_EEEbEUlNS_12basic_stringIcNS_11char_traitsIcEENS_9allocatorIcEEEEE_NSE_ISH_EEFvSG_EED2Ev
FUNC 139d90 5c 0 _ZNSt6__ndk110__function6__funcIZN14NetworkManager2onI18LobbyCreatedPacketQsr3stdE12is_base_of_vI6PacketT_EEEvNS_8functionIFvPS6_EEEbEUlNS_12basic_stringIcNS_11char_traitsIcEENS_9allocatorIcEEEEE_NSE_ISH_EEFvSG_EED0Ev
FUNC 139dec 88 0 _ZNKSt6__ndk110__function6__funcIZN14NetworkManager2onI18LobbyCreatedPacketQsr3stdE12is_base_of_vI6PacketT_EEEvNS_8functionIFvPS6_EEEbEUlNS_12basic_stringIcNS_11char_traitsIcEENS_9allocatorIcEEEEE_NSE_ISH_EEFvSG_EE7__cloneEv
FUNC 139e74 74 0 _ZNKSt6__ndk110__function6__funcIZN14NetworkManager2onI18LobbyCreatedPacketQsr3stdE12is_base_of_vI6PacketT_EEEvNS_8functionIFvPS6_EEEbEUlNS_12basic_stringIcNS_11char_traitsIcEENS_9allocatorIcEEEEE_NSE_ISH_EEFvSG_EE7__cloneEPNS0_6__baseISJ_EE
FUNC 139ee8 38 0 _ZNSt6__ndk110__function6__funcIZN14NetworkManager2onI18LobbyCreatedPacketQsr3stdE12is_base_of_vI6PacketT_EEEvNS_8functionIFvPS6_EEEbEUlNS_12basic_stringIcNS_11char_traitsIcEENS_9allocatorIcEEEEE_NSE_ISH_EEFvSG_EE7destroyEv
FUNC 139f20 50 0 _ZNSt6__ndk110__function6__funcIZN14NetworkManager2onI18LobbyCreatedPacketQsr3stdE12is_base_of_vI6PacketT_EEEvNS_8functionIFvPS6_EEEbEUlNS_12basic_stringIcNS_11char_traitsIcEENS_9allocatorIcEEEEE_NSE_ISH_EEFvSG_EE18destroy_deallocateEv
FUNC 139f70 420 0 _ZNSt6__ndk110__function6__funcIZN14NetworkManager2onI18LobbyCreatedPacketQsr3stdE12is_base_of_vI6PacketT_EEEvNS_8functionIFvPS6_EEEbEUlNS_12basic_stringIcNS_11char_traitsIcEENS_9allocatorIcEEEEE_NSE_ISH_EEFvSG_EEclEOSG_
FUNC 13a390 1c 0 _ZNKSt6__ndk110__function6__funcIZN14NetworkManager2onI18LobbyCreatedPacketQsr3stdE12is_base_of_vI6PacketT_EEEvNS_8functionIFvPS6_EEEbEUlNS_12basic_stringIcNS_11char_traitsIcEENS_9allocatorIcEEEEE_NSE_ISH_EEFvSG_EE6targetERKSt9type_info
FUNC 13a3ac c 0 _ZNKSt6__ndk110__function6__funcIZN14NetworkManager2onI18LobbyCreatedPacketQsr3stdE12is_base_of_vI6PacketT_EEEvNS_8functionIFvPS6_EEEbEUlNS_12basic_stringIcNS_11char_traitsIcEENS_9allocatorIcEEEEE_NSE_ISH_EEFvSG_EE11target_typeEv
FUNC 13a3b8 4 0 LobbyCreatedPacket::decode(std::__ndk1::basic_string<char, std::__ndk1::char_traits<char>, std::__ndk1::allocator<char> >)
FUNC 13a3bc 8 0 LobbyCreatedPacket::getPacketID() const
FUNC 13a3c4 c 0 LobbyCreatedPacket::getPacketName() const
FUNC 13a3d0 44 0 _ZNSt6__ndk110__function6__funcIZZN14NetworkManager2onI18LobbyCreatedPacketQsr3stdE12is_base_of_vI6PacketT_EEEvNS_8functionIFvPS6_EEEbENKUlNS_12basic_stringIcNS_11char_traitsIcEENS_9allocatorIcEEEEE_clESG_EUlvE_NSE_ISI_EEFvvEED2Ev
FUNC 13a414 5c 0 _ZNSt6__ndk110__function6__funcIZZN14NetworkManager2onI18LobbyCreatedPacketQsr3stdE12is_base_of_vI6PacketT_EEEvNS_8functionIFvPS6_EEEbENKUlNS_12basic_stringIcNS_11char_traitsIcEENS_9allocatorIcEEEEE_clESG_EUlvE_NSE_ISI_EEFvvEED0Ev
FUNC 13a470 90 0 _ZNKSt6__ndk110__function6__funcIZZN14NetworkManager2onI18LobbyCreatedPacketQsr3stdE12is_base_of_vI6PacketT_EEEvNS_8functionIFvPS6_EEEbENKUlNS_12basic_stringIcNS_11char_traitsIcEENS_9allocatorIcEEEEE_clESG_EUlvE_NSE_ISI_EEFvvEE7__cloneEv
FUNC 13a500 78 0 _ZNKSt6__ndk110__function6__funcIZZN14NetworkManager2onI18LobbyCreatedPacketQsr3stdE12is_base_of_vI6PacketT_EEEvNS_8functionIFvPS6_EEEbENKUlNS_12basic_stringIcNS_11char_traitsIcEENS_9allocatorIcEEEEE_clESG_EUlvE_NSE_ISI_EEFvvEE7__cloneEPNS0_6__baseISK_EE
FUNC 13a578 38 0 _ZNSt6__ndk110__function6__funcIZZN14NetworkManager2onI18LobbyCreatedPacketQsr3stdE12is_base_of_vI6PacketT_EEEvNS_8functionIFvPS6_EEEbENKUlNS_12basic_stringIcNS_11char_traitsIcEENS_9allocatorIcEEEEE_clESG_EUlvE_NSE_ISI_EEFvvEE7destroyEv
FUNC 13a5b0 50 0 _ZNSt6__ndk110__function6__funcIZZN14NetworkManager2onI18LobbyCreatedPacketQsr3stdE12is_base_of_vI6PacketT_EEEvNS_8functionIFvPS6_EEEbENKUlNS_12basic_stringIcNS_11char_traitsIcEENS_9allocatorIcEEEEE_clESG_EUlvE_NSE_ISI_EEFvvEE18destroy_deallocateEv
FUNC 13a600 74 0 _ZNSt6__ndk110__function6__funcIZZN14NetworkManager2onI18LobbyCreatedPacketQsr3stdE12is_base_of_vI6PacketT_EEEvNS_8functionIFvPS6_EEEbENKUlNS_12basic_stringIcNS_11char_traitsIcEENS_9allocatorIcEEEEE_clESG_EUlvE_NSE_ISI_EEFvvEEclEv
FUNC 13a674 1c 0 _ZNKSt6__ndk110__function6__funcIZZN14NetworkManager2onI18LobbyCreatedPacketQsr3stdE12is_base_of_vI6PacketT_EEEvNS_8functionIFvPS6_EEEbENKUlNS_12basic_stringIcNS_11char_traitsIcEENS_9allocatorIcEEEEE_clESG_EUlvE_NSE_ISI_EEFvvEE6targetERKSt9type_info
FUNC 13a690 c 0 _ZNKSt6__ndk110__function6__funcIZZN14NetworkManager2onI18LobbyCreatedPacketQsr3stdE12is_base_of_vI6PacketT_EEEvNS_8functionIFvPS6_EEEbENKUlNS_12basic_stringIcNS_11char_traitsIcEENS_9allocatorIcEEEEE_clESG_EUlvE_NSE_ISI_EEFvvEE11target_typeEv
FUNC 13a69c 44 0 std::__ndk1::__function::__func<SwapManager::createLobby(LobbySettings, std::__ndk1::function<void (std::__ndk1::basic_string<char, std::__ndk1::char_traits<char>, std::__ndk1::allocator<char> >)>)::$_0, std::__ndk1::allocator<SwapManager::createLobby(LobbySettings, std::__ndk1::function<void (std::__ndk1::basic_string<char, std::__ndk1::char_traits<char>, std::__ndk1::allocator<char> >)>)::$_0>, void (LobbyCreatedPacket*)>::~__func()
FUNC 13a6e0 5c 0 std::__ndk1::__function::__func<SwapManager::createLobby(LobbySettings, std::__ndk1::function<void (std::__ndk1::basic_string<char, std::__ndk1::char_traits<char>, std::__ndk1::allocator<char> >)>)::$_0, std::__ndk1::allocator<SwapManager::createLobby(LobbySettings, std::__ndk1::function<void (std::__ndk1::basic_string<char, std::__ndk1::char_traits<char>, std::__ndk1::allocator<char> >)>)::$_0>, void (LobbyCreatedPacket*)>::~__func()
FUNC 13a73c 90 0 std::__ndk1::__function::__func<SwapManager::createLobby(LobbySettings, std::__ndk1::function<void (std::__ndk1::basic_string<char, std::__ndk1::char_traits<char>, std::__ndk1::allocator<char> >)>)::$_0, std::__ndk1::allocator<SwapManager::createLobby(LobbySettings, std::__ndk1::function<void (std::__ndk1::basic_string<char, std::__ndk1::char_traits<char>, std::__ndk1::allocator<char> >)>)::$_0>, void (LobbyCreatedPacket*)>::__clone() const
FUNC 13a7cc 80 0 std::__ndk1::__function::__func<SwapManager::createLobby(LobbySettings, std::__ndk1::function<void (std::__ndk1::basic_string<char, std::__ndk1::char_traits<char>, std::__ndk1::allocator<char> >)>)::$_0, std::__ndk1::allocator<SwapManager::createLobby(LobbySettings, std::__ndk1::function<void (std::__ndk1::basic_string<char, std::__ndk1::char_traits<char>, std::__ndk1::allocator<char> >)>)::$_0>, void (LobbyCreatedPacket*)>::__clone(std::__ndk1::__function::__base<void (LobbyCreatedPacket*)>*) const
FUNC 13a84c 38 0 std::__ndk1::__function::__func<SwapManager::createLobby(LobbySettings, std::__ndk1::function<void (std::__ndk1::basic_string<char, std::__ndk1::char_traits<char>, std::__ndk1::allocator<char> >)>)::$_0, std::__ndk1::allocator<SwapManager::createLobby(LobbySettings, std::__ndk1::function<void (std::__ndk1::basic_string<char, std::__ndk1::char_traits<char>, std::__ndk1::allocator<char> >)>)::$_0>, void (LobbyCreatedPacket*)>::destroy()
FUNC 13a884 50 0 std::__ndk1::__function::__func<SwapManager::createLobby(LobbySettings, std::__ndk1::function<void (std::__ndk1::basic_string<char, std::__ndk1::char_traits<char>, std::__ndk1::allocator<char> >)>)::$_0, std::__ndk1::allocator<SwapManager::createLobby(LobbySettings, std::__ndk1::function<void (std::__ndk1::basic_string<char, std::__ndk1::char_traits<char>, std::__ndk1::allocator<char> >)>)::$_0>, void (LobbyCreatedPacket*)>::destroy_deallocate()
FUNC 13a8d4 214 0 std::__ndk1::__function::__func<SwapManager::createLobby(LobbySettings, std::__ndk1::function<void (std::__ndk1::basic_string<char, std::__ndk1::char_traits<char>, std::__ndk1::allocator<char> >)>)::$_0, std::__ndk1::allocator<SwapManager::createLobby(LobbySettings, std::__ndk1::function<void (std::__ndk1::basic_string<char, std::__ndk1::char_traits<char>, std::__ndk1::allocator<char> >)>)::$_0>, void (LobbyCreatedPacket*)>::operator()(LobbyCreatedPacket*&&)
FUNC 13aae8 1c 0 std::__ndk1::__function::__func<SwapManager::createLobby(LobbySettings, std::__ndk1::function<void (std::__ndk1::basic_string<char, std::__ndk1::char_traits<char>, std::__ndk1::allocator<char> >)>)::$_0, std::__ndk1::allocator<SwapManager::createLobby(LobbySettings, std::__ndk1::function<void (std::__ndk1::basic_string<char, std::__ndk1::char_traits<char>, std::__ndk1::allocator<char> >)>)::$_0>, void (LobbyCreatedPacket*)>::target(std::type_info const&) const
FUNC 13ab04 c 0 std::__ndk1::__function::__func<SwapManager::createLobby(LobbySettings, std::__ndk1::function<void (std::__ndk1::basic_string<char, std::__ndk1::char_traits<char>, std::__ndk1::allocator<char> >)>)::$_0, std::__ndk1::allocator<SwapManager::createLobby(LobbySettings, std::__ndk1::function<void (std::__ndk1::basic_string<char, std::__ndk1::char_traits<char>, std::__ndk1::allocator<char> >)>)::$_0>, void (LobbyCreatedPacket*)>::target_type() const
FUNC 13ab10 44 0 std::__ndk1::__function::__func<SwapManager::createLobby(LobbySettings, std::__ndk1::function<void (std::__ndk1::basic_string<char, std::__ndk1::char_traits<char>, std::__ndk1::allocator<char> >)>)::$_0::operator()(LobbyCreatedPacket*) const::{lambda()#1}, std::__ndk1::allocator<SwapManager::createLobby(LobbySettings, std::__ndk1::function<void (std::__ndk1::basic_string<char, std::__ndk1::char_traits<char>, std::__ndk1::allocator<char> >)>)::$_0::operator()(LobbyCreatedPacket*) const::{lambda()#1}>, void ()>::~__func()
FUNC 13ab54 5c 0 std::__ndk1::__function::__func<SwapManager::createLobby(LobbySettings, std::__ndk1::function<void (std::__ndk1::basic_string<char, std::__ndk1::char_traits<char>, std::__ndk1::allocator<char> >)>)::$_0::operator()(LobbyCreatedPacket*) const::{lambda()#1}, std::__ndk1::allocator<SwapManager::createLobby(LobbySettings, std::__ndk1::function<void (std::__ndk1::basic_string<char, std::__ndk1::char_traits<char>, std::__ndk1::allocator<char> >)>)::$_0::operator()(LobbyCreatedPacket*) const::{lambda()#1}>, void ()>::~__func()
FUNC 13abb0 90 0 std::__ndk1::__function::__func<SwapManager::createLobby(LobbySettings, std::__ndk1::function<void (std::__ndk1::basic_string<char, std::__ndk1::char_traits<char>, std::__ndk1::allocator<char> >)>)::$_0::operator()(LobbyCreatedPacket*) const::{lambda()#1}, std::__ndk1::allocator<SwapManager::createLobby(LobbySettings, std::__ndk1::function<void (std::__ndk1::basic_string<char, std::__ndk1::char_traits<char>, std::__ndk1::allocator<char> >)>)::$_0::operator()(LobbyCreatedPacket*) const::{lambda()#1}>, void ()>::__clone() const
FUNC 13ac40 80 0 std::__ndk1::__function::__func<SwapManager::createLobby(LobbySettings, std::__ndk1::function<void (std::__ndk1::basic_string<char, std::__ndk1::char_traits<char>, std::__ndk1::allocator<char> >)>)::$_0::operator()(LobbyCreatedPacket*) const::{lambda()#1}, std::__ndk1::allocator<SwapManager::createLobby(LobbySettings, std::__ndk1::function<void (std::__ndk1::basic_string<char, std::__ndk1::char_traits<char>, std::__ndk1::allocator<char> >)>)::$_0::operator()(LobbyCreatedPacket*) const::{lambda()#1}>, void ()>::__clone(std::__ndk1::__function::__base<void ()>*) const
FUNC 13acc0 38 0 std::__ndk1::__function::__func<SwapManager::createLobby(LobbySettings, std::__ndk1::function<void (std::__ndk1::basic_string<char, std::__ndk1::char_traits<char>, std::__ndk1::allocator<char> >)>)::$_0::operator()(LobbyCreatedPacket*) const::{lambda()#1}, std::__ndk1::allocator<SwapManager::createLobby(LobbySettings, std::__ndk1::function<void (std::__ndk1::basic_string<char, std::__ndk1::char_traits<char>, std::__ndk1::allocator<char> >)>)::$_0::operator()(LobbyCreatedPacket*) const::{lambda()#1}>, void ()>::destroy()
FUNC 13acf8 50 0 std::__ndk1::__function::__func<SwapManager::createLobby(LobbySettings, std::__ndk1::function<void (std::__ndk1::basic_string<char, std::__ndk1::char_traits<char>, std::__ndk1::allocator<char> >)>)::$_0::operator()(LobbyCreatedPacket*) const::{lambda()#1}, std::__ndk1::allocator<SwapManager::createLobby(LobbySettings, std::__ndk1::function<void (std::__ndk1::basic_string<char, std::__ndk1::char_traits<char>, std::__ndk1::allocator<char> >)>)::$_0::operator()(LobbyCreatedPacket*) const::{lambda()#1}>, void ()>::destroy_deallocate()
FUNC 13ad48 dc 0 std::__ndk1::__function::__func<SwapManager::createLobby(LobbySettings, std::__ndk1::function<void (std::__ndk1::basic_string<char, std::__ndk1::char_traits<char>, std::__ndk1::allocator<char> >)>)::$_0::operator()(LobbyCreatedPacket*) const::{lambda()#1}, std::__ndk1::allocator<SwapManager::createLobby(LobbySettings, std::__ndk1::function<void (std::__ndk1::basic_string<char, std::__ndk1::char_traits<char>, std::__ndk1::allocator<char> >)>)::$_0::operator()(LobbyCreatedPacket*) const::{lambda()#1}>, void ()>::operator()()
FUNC 13ae24 1c 0 std::__ndk1::__function::__func<SwapManager::createLobby(LobbySettings, std::__ndk1::function<void (std::__ndk1::basic_string<char, std::__ndk1::char_traits<char>, std::__ndk1::allocator<char> >)>)::$_0::operator()(LobbyCreatedPacket*) const::{lambda()#1}, std::__ndk1::allocator<SwapManager::createLobby(LobbySettings, std::__ndk1::function<void (std::__ndk1::basic_string<char, std::__ndk1::char_traits<char>, std::__ndk1::allocator<char> >)>)::$_0::operator()(LobbyCreatedPacket*) const::{lambda()#1}>, void ()>::target(std::type_info const&) const
FUNC 13ae40 c 0 std::__ndk1::__function::__func<SwapManager::createLobby(LobbySettings, std::__ndk1::function<void (std::__ndk1::basic_string<char, std::__ndk1::char_traits<char>, std::__ndk1::allocator<char> >)>)::$_0::operator()(LobbyCreatedPacket*) const::{lambda()#1}, std::__ndk1::allocator<SwapManager::createLobby(LobbySettings, std::__ndk1::function<void (std::__ndk1::basic_string<char, std::__ndk1::char_traits<char>, std::__ndk1::allocator<char> >)>)::$_0::operator()(LobbyCreatedPacket*) const::{lambda()#1}>, void ()>::target_type() const
FUNC 13ae4c 4 0 JoinLobbyPacket::decode(std::__ndk1::basic_string<char, std::__ndk1::char_traits<char>, std::__ndk1::allocator<char> >)
FUNC 13ae50 8 0 JoinLobbyPacket::getPacketID() const
FUNC 13ae58 c 0 JoinLobbyPacket::getPacketName() const
FUNC 13ae64 44 0 std::__ndk1::__function::__func<NetworkManager::send<JoinLobbyPacket>(JoinLobbyPacket*, std::__ndk1::function<void ()>)::{lambda(int, int)#1}, std::__ndk1::allocator<NetworkManager::send<JoinLobbyPacket>(JoinLobbyPacket*, std::__ndk1::function<void ()>)::{lambda(int, int)#1}>, bool (int, int)>::~__func()
FUNC 13aea8 5c 0 std::__ndk1::__function::__func<NetworkManager::send<JoinLobbyPacket>(JoinLobbyPacket*, std::__ndk1::function<void ()>)::{lambda(int, int)#1}, std::__ndk1::allocator<NetworkManager::send<JoinLobbyPacket>(JoinLobbyPacket*, std::__ndk1::function<void ()>)::{lambda(int, int)#1}>, bool (int, int)>::~__func()
FUNC 13af04 88 0 std::__ndk1::__function::__func<NetworkManager::send<JoinLobbyPacket>(JoinLobbyPacket*, std::__ndk1::function<void ()>)::{lambda(int, int)#1}, std::__ndk1::allocator<NetworkManager::send<JoinLobbyPacket>(JoinLobbyPacket*, std::__ndk1::function<void ()>)::{lambda(int, int)#1}>, bool (int, int)>::__clone() const
FUNC 13af8c 74 0 std::__ndk1::__function::__func<NetworkManager::send<JoinLobbyPacket>(JoinLobbyPacket*, std::__ndk1::function<void ()>)::{lambda(int, int)#1}, std::__ndk1::allocator<NetworkManager::send<JoinLobbyPacket>(JoinLobbyPacket*, std::__ndk1::function<void ()>)::{lambda(int, int)#1}>, bool (int, int)>::__clone(std::__ndk1::__function::__base<bool (int, int)>*) const
FUNC 13b000 38 0 std::__ndk1::__function::__func<NetworkManager::send<JoinLobbyPacket>(JoinLobbyPacket*, std::__ndk1::function<void ()>)::{lambda(int, int)#1}, std::__ndk1::allocator<NetworkManager::send<JoinLobbyPacket>(JoinLobbyPacket*, std::__ndk1::function<void ()>)::{lambda(int, int)#1}>, bool (int, int)>::destroy()
FUNC 13b038 50 0 std::__ndk1::__function::__func<NetworkManager::send<JoinLobbyPacket>(JoinLobbyPacket*, std::__ndk1::function<void ()>)::{lambda(int, int)#1}, std::__ndk1::allocator<NetworkManager::send<JoinLobbyPacket>(JoinLobbyPacket*, std::__ndk1::function<void ()>)::{lambda(int, int)#1}>, bool (int, int)>::destroy_deallocate()
FUNC 13b088 21c 0 std::__ndk1::__function::__func<NetworkManager::send<JoinLobbyPacket>(JoinLobbyPacket*, std::__ndk1::function<void ()>)::{lambda(int, int)#1}, std::__ndk1::allocator<NetworkManager::send<JoinLobbyPacket>(JoinLobbyPacket*, std::__ndk1::function<void ()>)::{lambda(int, int)#1}>, bool (int, int)>::operator()(int&&, int&&)
FUNC 13b2a4 1c 0 std::__ndk1::__function::__func<NetworkManager::send<JoinLobbyPacket>(JoinLobbyPacket*, std::__ndk1::function<void ()>)::{lambda(int, int)#1}, std::__ndk1::allocator<NetworkManager::send<JoinLobbyPacket>(JoinLobbyPacket*, std::__ndk1::function<void ()>)::{lambda(int, int)#1}>, bool (int, int)>::target(std::type_info const&) const
FUNC 13b2c0 c 0 std::__ndk1::__function::__func<NetworkManager::send<JoinLobbyPacket>(JoinLobbyPacket*, std::__ndk1::function<void ()>)::{lambda(int, int)#1}, std::__ndk1::allocator<NetworkManager::send<JoinLobbyPacket>(JoinLobbyPacket*, std::__ndk1::function<void ()>)::{lambda(int, int)#1}>, bool (int, int)>::target_type() const
FUNC 13b2cc 44 0 std::__ndk1::__function::__func<NetworkManager::send<JoinLobbyPacket>(JoinLobbyPacket*, std::__ndk1::function<void ()>)::{lambda(int, int)#1}::operator()(int, int) const::{lambda()#1}, std::__ndk1::allocator<NetworkManager::send<JoinLobbyPacket>(JoinLobbyPacket*, std::__ndk1::function<void ()>)::{lambda(int, int)#1}::operator()(int, int) const::{lambda()#1}>, void ()>::~__func()
FUNC 13b310 5c 0 std::__ndk1::__function::__func<NetworkManager::send<JoinLobbyPacket>(JoinLobbyPacket*, std::__ndk1::function<void ()>)::{lambda(int, int)#1}::operator()(int, int) const::{lambda()#1}, std::__ndk1::allocator<NetworkManager::send<JoinLobbyPacket>(JoinLobbyPacket*, std::__ndk1::function<void ()>)::{lambda(int, int)#1}::operator()(int, int) const::{lambda()#1}>, void ()>::~__func()
FUNC 13b36c 88 0 std::__ndk1::__function::__func<NetworkManager::send<JoinLobbyPacket>(JoinLobbyPacket*, std::__ndk1::function<void ()>)::{lambda(int, int)#1}::operator()(int, int) const::{lambda()#1}, std::__ndk1::allocator<NetworkManager::send<JoinLobbyPacket>(JoinLobbyPacket*, std::__ndk1::function<void ()>)::{lambda(int, int)#1}::operator()(int, int) const::{lambda()#1}>, void ()>::__clone() const
FUNC 13b3f4 74 0 std::__ndk1::__function::__func<NetworkManager::send<JoinLobbyPacket>(JoinLobbyPacket*, std::__ndk1::function<void ()>)::{lambda(int, int)#1}::operator()(int, int) const::{lambda()#1}, std::__ndk1::allocator<NetworkManager::send<JoinLobbyPacket>(JoinLobbyPacket*, std::__ndk1::function<void ()>)::{lambda(int, int)#1}::operator()(int, int) const::{lambda()#1}>, void ()>::__clone(std::__ndk1::__function::__base<void ()>*) const
FUNC 13b468 38 0 std::__ndk1::__function::__func<NetworkManager::send<JoinLobbyPacket>(JoinLobbyPacket*, std::__ndk1::function<void ()>)::{lambda(int, int)#1}::operator()(int, int) const::{lambda()#1}, std::__ndk1::allocator<NetworkManager::send<JoinLobbyPacket>(JoinLobbyPacket*, std::__ndk1::function<void ()>)::{lambda(int, int)#1}::operator()(int, int) const::{lambda()#1}>, void ()>::destroy()
FUNC 13b4a0 50 0 std::__ndk1::__function::__func<NetworkManager::send<JoinLobbyPacket>(JoinLobbyPacket*, std::__ndk1::function<void ()>)::{lambda(int, int)#1}::operator()(int, int) const::{lambda()#1}, std::__ndk1::allocator<NetworkManager::send<JoinLobbyPacket>(JoinLobbyPacket*, std::__ndk1::function<void ()>)::{lambda(int, int)#1}::operator()(int, int) const::{lambda()#1}>, void ()>::destroy_deallocate()
FUNC 13b4f0 20 0 std::__ndk1::__function::__func<NetworkManager::send<JoinLobbyPacket>(JoinLobbyPacket*, std::__ndk1::function<void ()>)::{lambda(int, int)#1}::operator()(int, int) const::{lambda()#1}, std::__ndk1::allocator<NetworkManager::send<JoinLobbyPacket>(JoinLobbyPacket*, std::__ndk1::function<void ()>)::{lambda(int, int)#1}::operator()(int, int) const::{lambda()#1}>, void ()>::operator()()
FUNC 13b510 1c 0 std::__ndk1::__function::__func<NetworkManager::send<JoinLobbyPacket>(JoinLobbyPacket*, std::__ndk1::function<void ()>)::{lambda(int, int)#1}::operator()(int, int) const::{lambda()#1}, std::__ndk1::allocator<NetworkManager::send<JoinLobbyPacket>(JoinLobbyPacket*, std::__ndk1::function<void ()>)::{lambda(int, int)#1}::operator()(int, int) const::{lambda()#1}>, void ()>::target(std::type_info const&) const
FUNC 13b52c c 0 std::__ndk1::__function::__func<NetworkManager::send<JoinLobbyPacket>(JoinLobbyPacket*, std::__ndk1::function<void ()>)::{lambda(int, int)#1}::operator()(int, int) const::{lambda()#1}, std::__ndk1::allocator<NetworkManager::send<JoinLobbyPacket>(JoinLobbyPacket*, std::__ndk1::function<void ()>)::{lambda(int, int)#1}::operator()(int, int) const::{lambda()#1}>, void ()>::target_type() const
FUNC 13b538 44 0 _ZNSt6__ndk110__function6__funcIZN14NetworkManager2onI17JoinedLobbyPacketQsr3stdE12is_base_of_vI6PacketT_EEEvNS_8functionIFvPS6_EEEbEUlNS_12basic_stringIcNS_11char_traitsIcEENS_9allocatorIcEEEEE_NSE_ISH_EEFvSG_EED2Ev
FUNC 13b57c 5c 0 _ZNSt6__ndk110__function6__funcIZN14NetworkManager2onI17JoinedLobbyPacketQsr3stdE12is_base_of_vI6PacketT_EEEvNS_8functionIFvPS6_EEEbEUlNS_12basic_stringIcNS_11char_traitsIcEENS_9allocatorIcEEEEE_NSE_ISH_EEFvSG_EED0Ev
FUNC 13b5d8 88 0 _ZNKSt6__ndk110__function6__funcIZN14NetworkManager2onI17JoinedLobbyPacketQsr3stdE12is_base_of_vI6PacketT_EEEvNS_8functionIFvPS6_EEEbEUlNS_12basic_stringIcNS_11char_traitsIcEENS_9allocatorIcEEEEE_NSE_ISH_EEFvSG_EE7__cloneEv
FUNC 13b660 74 0 _ZNKSt6__ndk110__function6__funcIZN14NetworkManager2onI17JoinedLobbyPacketQsr3stdE12is_base_of_vI6PacketT_EEEvNS_8functionIFvPS6_EEEbEUlNS_12basic_stringIcNS_11char_traitsIcEENS_9allocatorIcEEEEE_NSE_ISH_EEFvSG_EE7__cloneEPNS0_6__baseISJ_EE
FUNC 13b6d4 38 0 _ZNSt6__ndk110__function6__funcIZN14NetworkManager2onI17JoinedLobbyPacketQsr3stdE12is_base_of_vI6PacketT_EEEvNS_8functionIFvPS6_EEEbEUlNS_12basic_stringIcNS_11char_traitsIcEENS_9allocatorIcEEEEE_NSE_ISH_EEFvSG_EE7destroyEv
FUNC 13b70c 50 0 _ZNSt6__ndk110__function6__funcIZN14NetworkManager2onI17JoinedLobbyPacketQsr3stdE12is_base_of_vI6PacketT_EEEvNS_8functionIFvPS6_EEEbEUlNS_12basic_stringIcNS_11char_traitsIcEENS_9allocatorIcEEEEE_NSE_ISH_EEFvSG_EE18destroy_deallocateEv
FUNC 13b75c 3bc 0 _ZNSt6__ndk110__function6__funcIZN14NetworkManager2onI17JoinedLobbyPacketQsr3stdE12is_base_of_vI6PacketT_EEEvNS_8functionIFvPS6_EEEbEUlNS_12basic_stringIcNS_11char_traitsIcEENS_9allocatorIcEEEEE_NSE_ISH_EEFvSG_EEclEOSG_
FUNC 13bb18 1c 0 _ZNKSt6__ndk110__function6__funcIZN14NetworkManager2onI17JoinedLobbyPacketQsr3stdE12is_base_of_vI6PacketT_EEEvNS_8functionIFvPS6_EEEbEUlNS_12basic_stringIcNS_11char_traitsIcEENS_9allocatorIcEEEEE_NSE_ISH_EEFvSG_EE6targetERKSt9type_info
FUNC 13bb34 c 0 _ZNKSt6__ndk110__function6__funcIZN14NetworkManager2onI17JoinedLobbyPacketQsr3stdE12is_base_of_vI6PacketT_EEEvNS_8functionIFvPS6_EEEbEUlNS_12basic_stringIcNS_11char_traitsIcEENS_9allocatorIcEEEEE_NSE_ISH_EEFvSG_EE11target_typeEv
FUNC 13bb40 4 0 JoinedLobbyPacket::decode(std::__ndk1::basic_string<char, std::__ndk1::char_traits<char>, std::__ndk1::allocator<char> >)
FUNC 13bb44 8 0 JoinedLobbyPacket::getPacketID() const
FUNC 13bb4c c 0 JoinedLobbyPacket::getPacketName() const
FUNC 13bb58 44 0 _ZNSt6__ndk110__function6__funcIZZN14NetworkManager2onI17JoinedLobbyPacketQsr3stdE12is_base_of_vI6PacketT_EEEvNS_8functionIFvPS6_EEEbENKUlNS_12basic_stringIcNS_11char_traitsIcEENS_9allocatorIcEEEEE_clESG_EUlvE_NSE_ISI_EEFvvEED2Ev
FUNC 13bb9c 5c 0 _ZNSt6__ndk110__function6__funcIZZN14NetworkManager2onI17JoinedLobbyPacketQsr3stdE12is_base_of_vI6PacketT_EEEvNS_8functionIFvPS6_EEEbENKUlNS_12basic_stringIcNS_11char_traitsIcEENS_9allocatorIcEEEEE_clESG_EUlvE_NSE_ISI_EEFvvEED0Ev
FUNC 13bbf8 90 0 _ZNKSt6__ndk110__function6__funcIZZN14NetworkManager2onI17JoinedLobbyPacketQsr3stdE12is_base_of_vI6PacketT_EEEvNS_8functionIFvPS6_EEEbENKUlNS_12basic_stringIcNS_11char_traitsIcEENS_9allocatorIcEEEEE_clESG_EUlvE_NSE_ISI_EEFvvEE7__cloneEv
FUNC 13bc88 78 0 _ZNKSt6__ndk110__function6__funcIZZN14NetworkManager2onI17JoinedLobbyPacketQsr3stdE12is_base_of_vI6PacketT_EEEvNS_8functionIFvPS6_EEEbENKUlNS_12basic_stringIcNS_11char_traitsIcEENS_9allocatorIcEEEEE_clESG_EUlvE_NSE_ISI_EEFvvEE7__cloneEPNS0_6__baseISK_EE
FUNC 13bd00 38 0 _ZNSt6__ndk110__function6__funcIZZN14NetworkManager2onI17JoinedLobbyPacketQsr3stdE12is_base_of_vI6PacketT_EEEvNS_8functionIFvPS6_EEEbENKUlNS_12basic_stringIcNS_11char_traitsIcEENS_9allocatorIcEEEEE_clESG_EUlvE_NSE_ISI_EEFvvEE7destroyEv
FUNC 13bd38 50 0 _ZNSt6__ndk110__function6__funcIZZN14NetworkManager2onI17JoinedLobbyPacketQsr3stdE12is_base_of_vI6PacketT_EEEvNS_8functionIFvPS6_EEEbENKUlNS_12basic_stringIcNS_11char_traitsIcEENS_9allocatorIcEEEEE_clESG_EUlvE_NSE_ISI_EEFvvEE18destroy_deallocateEv
FUNC 13bd88 74 0 _ZNSt6__ndk110__function6__funcIZZN14NetworkManager2onI17JoinedLobbyPacketQsr3stdE12is_base_of_vI6PacketT_EEEvNS_8functionIFvPS6_EEEbENKUlNS_12basic_stringIcNS_11char_traitsIcEENS_9allocatorIcEEEEE_clESG_EUlvE_NSE_ISI_EEFvvEEclEv
FUNC 13bdfc 1c 0 _ZNKSt6__ndk110__function6__funcIZZN14NetworkManager2onI17JoinedLobbyPacketQsr3stdE12is_base_of_vI6PacketT_EEEvNS_8functionIFvPS6_EEEbENKUlNS_12basic_stringIcNS_11char_traitsIcEENS_9allocatorIcEEEEE_clESG_EUlvE_NSE_ISI_EEFvvEE6targetERKSt9type_info
FUNC 13be18 c 0 _ZNKSt6__ndk110__function6__funcIZZN14NetworkManager2onI17JoinedLobbyPacketQsr3stdE12is_base_of_vI6PacketT_EEEvNS_8functionIFvPS6_EEEbENKUlNS_12basic_stringIcNS_11char_traitsIcEENS_9allocatorIcEEEEE_clESG_EUlvE_NSE_ISI_EEFvvEE11target_typeEv
FUNC 13be24 70 0 std::__ndk1::__function::__func<SwapManager::joinLobby(std::__ndk1::basic_string<char, std::__ndk1::char_traits<char>, std::__ndk1::allocator<char> >, std::__ndk1::function<void ()>)::$_0, std::__ndk1::allocator<SwapManager::joinLobby(std::__ndk1::basic_string<char, std::__ndk1::char_traits<char>, std::__ndk1::allocator<char> >, std::__ndk1::function<void ()>)::$_0>, void (JoinedLobbyPacket*)>::~__func()
FUNC 13be94 6c 0 std::__ndk1::__function::__func<SwapManager::joinLobby(std::__ndk1::basic_string<char, std::__ndk1::char_traits<char>, std::__ndk1::allocator<char> >, std::__ndk1::function<void ()>)::$_0, std::__ndk1::allocator<SwapManager::joinLobby(std::__ndk1::basic_string<char, std::__ndk1::char_traits<char>, std::__ndk1::allocator<char> >, std::__ndk1::function<void ()>)::$_0>, void (JoinedLobbyPacket*)>::~__func()
FUNC 13bf00 100 0 std::__ndk1::__function::__func<SwapManager::joinLobby(std::__ndk1::basic_string<char, std::__ndk1::char_traits<char>, std::__ndk1::allocator<char> >, std::__ndk1::function<void ()>)::$_0, std::__ndk1::allocator<SwapManager::joinLobby(std::__ndk1::basic_string<char, std::__ndk1::char_traits<char>, std::__ndk1::allocator<char> >, std::__ndk1::function<void ()>)::$_0>, void (JoinedLobbyPacket*)>::__clone() const
FUNC 13c000 f0 0 std::__ndk1::__function::__func<SwapManager::joinLobby(std::__ndk1::basic_string<char, std::__ndk1::char_traits<char>, std::__ndk1::allocator<char> >, std::__ndk1::function<void ()>)::$_0, std::__ndk1::allocator<SwapManager::joinLobby(std::__ndk1::basic_string<char, std::__ndk1::char_traits<char>, std::__ndk1::allocator<char> >, std::__ndk1::function<void ()>)::$_0>, void (JoinedLobbyPacket*)>::__clone(std::__ndk1::__function::__base<void (JoinedLobbyPacket*)>*) const
FUNC 13c0f0 64 0 std::__ndk1::__function::__func<SwapManager::joinLobby(std::__ndk1::basic_string<char, std::__ndk1::char_traits<char>, std::__ndk1::allocator<char> >, std::__ndk1::function<void ()>)::$_0, std::__ndk1::allocator<SwapManager::joinLobby(std::__ndk1::basic_string<char, std::__ndk1::char_traits<char>, std::__ndk1::allocator<char> >, std::__ndk1::function<void ()>)::$_0>, void (JoinedLobbyPacket*)>::destroy()
FUNC 13c154 60 0 std::__ndk1::__function::__func<SwapManager::joinLobby(std::__ndk1::basic_string<char, std::__ndk1::char_traits<char>, std::__ndk1::allocator<char> >, std::__ndk1::function<void ()>)::$_0, std::__ndk1::allocator<SwapManager::joinLobby(std::__ndk1::basic_string<char, std::__ndk1::char_traits<char>, std::__ndk1::allocator<char> >, std::__ndk1::function<void ()>)::$_0>, void (JoinedLobbyPacket*)>::destroy_deallocate()
FUNC 13c1b4 98 0 std::__ndk1::__function::__func<SwapManager::joinLobby(std::__ndk1::basic_string<char, std::__ndk1::char_traits<char>, std::__ndk1::allocator<char> >, std::__ndk1::function<void ()>)::$_0, std::__ndk1::allocator<SwapManager::joinLobby(std::__ndk1::basic_string<char, std::__ndk1::char_traits<char>, std::__ndk1::allocator<char> >, std::__ndk1::function<void ()>)::$_0>, void (JoinedLobbyPacket*)>::operator()(JoinedLobbyPacket*&&)
FUNC 13c24c 1c 0 std::__ndk1::__function::__func<SwapManager::joinLobby(std::__ndk1::basic_string<char, std::__ndk1::char_traits<char>, std::__ndk1::allocator<char> >, std::__ndk1::function<void ()>)::$_0, std::__ndk1::allocator<SwapManager::joinLobby(std::__ndk1::basic_string<char, std::__ndk1::char_traits<char>, std::__ndk1::allocator<char> >, std::__ndk1::function<void ()>)::$_0>, void (JoinedLobbyPacket*)>::target(std::type_info const&) const
FUNC 13c268 c 0 std::__ndk1::__function::__func<SwapManager::joinLobby(std::__ndk1::basic_string<char, std::__ndk1::char_traits<char>, std::__ndk1::allocator<char> >, std::__ndk1::function<void ()>)::$_0, std::__ndk1::allocator<SwapManager::joinLobby(std::__ndk1::basic_string<char, std::__ndk1::char_traits<char>, std::__ndk1::allocator<char> >, std::__ndk1::function<void ()>)::$_0>, void (JoinedLobbyPacket*)>::target_type() const
FUNC 13c274 4 0 GetLobbyInfoPacket::decode(std::__ndk1::basic_string<char, std::__ndk1::char_traits<char>, std::__ndk1::allocator<char> >)
FUNC 13c278 8 0 GetLobbyInfoPacket::getPacketID() const
FUNC 13c280 c 0 GetLobbyInfoPacket::getPacketName() const
FUNC 13c28c 44 0 std::__ndk1::__function::__func<NetworkManager::send<GetLobbyInfoPacket>(GetLobbyInfoPacket*, std::__ndk1::function<void ()>)::{lambda(int, int)#1}, std::__ndk1::allocator<NetworkManager::send<GetLobbyInfoPacket>(GetLobbyInfoPacket*, std::__ndk1::function<void ()>)::{lambda(int, int)#1}>, bool (int, int)>::~__func()
FUNC 13c2d0 5c 0 std::__ndk1::__function::__func<NetworkManager::send<GetLobbyInfoPacket>(GetLobbyInfoPacket*, std::__ndk1::function<void ()>)::{lambda(int, int)#1}, std::__ndk1::allocator<NetworkManager::send<GetLobbyInfoPacket>(GetLobbyInfoPacket*, std::__ndk1::function<void ()>)::{lambda(int, int)#1}>, bool (int, int)>::~__func()
FUNC 13c32c 88 0 std::__ndk1::__function::__func<NetworkManager::send<GetLobbyInfoPacket>(GetLobbyInfoPacket*, std::__ndk1::function<void ()>)::{lambda(int, int)#1}, std::__ndk1::allocator<NetworkManager::send<GetLobbyInfoPacket>(GetLobbyInfoPacket*, std::__ndk1::function<void ()>)::{lambda(int, int)#1}>, bool (int, int)>::__clone() const
FUNC 13c3b4 74 0 std::__ndk1::__function::__func<NetworkManager::send<GetLobbyInfoPacket>(GetLobbyInfoPacket*, std::__ndk1::function<void ()>)::{lambda(int, int)#1}, std::__ndk1::allocator<NetworkManager::send<GetLobbyInfoPacket>(GetLobbyInfoPacket*, std::__ndk1::function<void ()>)::{lambda(int, int)#1}>, bool (int, int)>::__clone(std::__ndk1::__function::__base<bool (int, int)>*) const
FUNC 13c428 38 0 std::__ndk1::__function::__func<NetworkManager::send<GetLobbyInfoPacket>(GetLobbyInfoPacket*, std::__ndk1::function<void ()>)::{lambda(int, int)#1}, std::__ndk1::allocator<NetworkManager::send<GetLobbyInfoPacket>(GetLobbyInfoPacket*, std::__ndk1::function<void ()>)::{lambda(int, int)#1}>, bool (int, int)>::destroy()
FUNC 13c460 50 0 std::__ndk1::__function::__func<NetworkManager::send<GetLobbyInfoPacket>(GetLobbyInfoPacket*, std::__ndk1::function<void ()>)::{lambda(int, int)#1}, std::__ndk1::allocator<NetworkManager::send<GetLobbyInfoPacket>(GetLobbyInfoPacket*, std::__ndk1::function<void ()>)::{lambda(int, int)#1}>, bool (int, int)>::destroy_deallocate()
FUNC 13c4b0 21c 0 std::__ndk1::__function::__func<NetworkManager::send<GetLobbyInfoPacket>(GetLobbyInfoPacket*, std::__ndk1::function<void ()>)::{lambda(int, int)#1}, std::__ndk1::allocator<NetworkManager::send<GetLobbyInfoPacket>(GetLobbyInfoPacket*, std::__ndk1::function<void ()>)::{lambda(int, int)#1}>, bool (int, int)>::operator()(int&&, int&&)
FUNC 13c6cc 1c 0 std::__ndk1::__function::__func<NetworkManager::send<GetLobbyInfoPacket>(GetLobbyInfoPacket*, std::__ndk1::function<void ()>)::{lambda(int, int)#1}, std::__ndk1::allocator<NetworkManager::send<GetLobbyInfoPacket>(GetLobbyInfoPacket*, std::__ndk1::function<void ()>)::{lambda(int, int)#1}>, bool (int, int)>::target(std::type_info const&) const
FUNC 13c6e8 c 0 std::__ndk1::__function::__func<NetworkManager::send<GetLobbyInfoPacket>(GetLobbyInfoPacket*, std::__ndk1::function<void ()>)::{lambda(int, int)#1}, std::__ndk1::allocator<NetworkManager::send<GetLobbyInfoPacket>(GetLobbyInfoPacket*, std::__ndk1::function<void ()>)::{lambda(int, int)#1}>, bool (int, int)>::target_type() const
FUNC 13c6f4 44 0 std::__ndk1::__function::__func<NetworkManager::send<GetLobbyInfoPacket>(GetLobbyInfoPacket*, std::__ndk1::function<void ()>)::{lambda(int, int)#1}::operator()(int, int) const::{lambda()#1}, std::__ndk1::allocator<NetworkManager::send<GetLobbyInfoPacket>(GetLobbyInfoPacket*, std::__ndk1::function<void ()>)::{lambda(int, int)#1}::operator()(int, int) const::{lambda()#1}>, void ()>::~__func()
FUNC 13c738 5c 0 std::__ndk1::__function::__func<NetworkManager::send<GetLobbyInfoPacket>(GetLobbyInfoPacket*, std::__ndk1::function<void ()>)::{lambda(int, int)#1}::operator()(int, int) const::{lambda()#1}, std::__ndk1::allocator<NetworkManager::send<GetLobbyInfoPacket>(GetLobbyInfoPacket*, std::__ndk1::function<void ()>)::{lambda(int, int)#1}::operator()(int, int) const::{lambda()#1}>, void ()>::~__func()
FUNC 13c794 88 0 std::__ndk1::__function::__func<NetworkManager::send<GetLobbyInfoPacket>(GetLobbyInfoPacket*, std::__ndk1::function<void ()>)::{lambda(int, int)#1}::operator()(int, int) const::{lambda()#1}, std::__ndk1::allocator<NetworkManager::send<GetLobbyInfoPacket>(GetLobbyInfoPacket*, std::__ndk1::function<void ()>)::{lambda(int, int)#1}::operator()(int, int) const::{lambda()#1}>, void ()>::__clone() const
FUNC 13c81c 74 0 std::__ndk1::__function::__func<NetworkManager::send<GetLobbyInfoPacket>(GetLobbyInfoPacket*, std::__ndk1::function<void ()>)::{lambda(int, int)#1}::operator()(int, int) const::{lambda()#1}, std::__ndk1::allocator<NetworkManager::send<GetLobbyInfoPacket>(GetLobbyInfoPacket*, std::__ndk1::function<void ()>)::{lambda(int, int)#1}::operator()(int, int) const::{lambda()#1}>, void ()>::__clone(std::__ndk1::__function::__base<void ()>*) const
FUNC 13c890 38 0 std::__ndk1::__function::__func<NetworkManager::send<GetLobbyInfoPacket>(GetLobbyInfoPacket*, std::__ndk1::function<void ()>)::{lambda(int, int)#1}::operator()(int, int) const::{lambda()#1}, std::__ndk1::allocator<NetworkManager::send<GetLobbyInfoPacket>(GetLobbyInfoPacket*, std::__ndk1::function<void ()>)::{lambda(int, int)#1}::operator()(int, int) const::{lambda()#1}>, void ()>::destroy()
FUNC 13c8c8 50 0 std::__ndk1::__function::__func<NetworkManager::send<GetLobbyInfoPacket>(GetLobbyInfoPacket*, std::__ndk1::function<void ()>)::{lambda(int, int)#1}::operator()(int, int) const::{lambda()#1}, std::__ndk1::allocator<NetworkManager::send<GetLobbyInfoPacket>(GetLobbyInfoPacket*, std::__ndk1::function<void ()>)::{lambda(int, int)#1}::operator()(int, int) const::{lambda()#1}>, void ()>::destroy_deallocate()
FUNC 13c918 20 0 std::__ndk1::__function::__func<NetworkManager::send<GetLobbyInfoPacket>(GetLobbyInfoPacket*, std::__ndk1::function<void ()>)::{lambda(int, int)#1}::operator()(int, int) const::{lambda()#1}, std::__ndk1::allocator<NetworkManager::send<GetLobbyInfoPacket>(GetLobbyInfoPacket*, std::__ndk1::function<void ()>)::{lambda(int, int)#1}::operator()(int, int) const::{lambda()#1}>, void ()>::operator()()
FUNC 13c938 1c 0 std::__ndk1::__function::__func<NetworkManager::send<GetLobbyInfoPacket>(GetLobbyInfoPacket*, std::__ndk1::function<void ()>)::{lambda(int, int)#1}::operator()(int, int) const::{lambda()#1}, std::__ndk1::allocator<NetworkManager::send<GetLobbyInfoPacket>(GetLobbyInfoPacket*, std::__ndk1::function<void ()>)::{lambda(int, int)#1}::operator()(int, int) const::{lambda()#1}>, void ()>::target(std::type_info const&) const
FUNC 13c954 c 0 std::__ndk1::__function::__func<NetworkManager::send<GetLobbyInfoPacket>(GetLobbyInfoPacket*, std::__ndk1::function<void ()>)::{lambda(int, int)#1}::operator()(int, int) const::{lambda()#1}, std::__ndk1::allocator<NetworkManager::send<GetLobbyInfoPacket>(GetLobbyInfoPacket*, std::__ndk1::function<void ()>)::{lambda(int, int)#1}::operator()(int, int) const::{lambda()#1}>, void ()>::target_type() const
FUNC 13c960 44 0 _ZNSt6__ndk110__function6__funcIZN14NetworkManager2onI22ReceiveLobbyInfoPacketQsr3stdE12is_base_of_vI6PacketT_EEEvNS_8functionIFvPS6_EEEbEUlNS_12basic_stringIcNS_11char_traitsIcEENS_9allocatorIcEEEEE_NSE_ISH_EEFvSG_EED2Ev
FUNC 13c9a4 5c 0 _ZNSt6__ndk110__function6__funcIZN14NetworkManager2onI22ReceiveLobbyInfoPacketQsr3stdE12is_base_of_vI6PacketT_EEEvNS_8functionIFvPS6_EEEbEUlNS_12basic_stringIcNS_11char_traitsIcEENS_9allocatorIcEEEEE_NSE_ISH_EEFvSG_EED0Ev
FUNC 13ca00 88 0 _ZNKSt6__ndk110__function6__funcIZN14NetworkManager2onI22ReceiveLobbyInfoPacketQsr3stdE12is_base_of_vI6PacketT_EEEvNS_8functionIFvPS6_EEEbEUlNS_12basic_stringIcNS_11char_traitsIcEENS_9allocatorIcEEEEE_NSE_ISH_EEFvSG_EE7__cloneEv
FUNC 13ca88 74 0 _ZNKSt6__ndk110__function6__funcIZN14NetworkManager2onI22ReceiveLobbyInfoPacketQsr3stdE12is_base_of_vI6PacketT_EEEvNS_8functionIFvPS6_EEEbEUlNS_12basic_stringIcNS_11char_traitsIcEENS_9allocatorIcEEEEE_NSE_ISH_EEFvSG_EE7__cloneEPNS0_6__baseISJ_EE
FUNC 13cafc 38 0 _ZNSt6__ndk110__function6__funcIZN14NetworkManager2onI22ReceiveLobbyInfoPacketQsr3stdE12is_base_of_vI6PacketT_EEEvNS_8functionIFvPS6_EEEbEUlNS_12basic_stringIcNS_11char_traitsIcEENS_9allocatorIcEEEEE_NSE_ISH_EEFvSG_EE7destroyEv
FUNC 13cb34 50 0 _ZNSt6__ndk110__function6__funcIZN14NetworkManager2onI22ReceiveLobbyInfoPacketQsr3stdE12is_base_of_vI6PacketT_EEEvNS_8functionIFvPS6_EEEbEUlNS_12basic_stringIcNS_11char_traitsIcEENS_9allocatorIcEEEEE_NSE_ISH_EEFvSG_EE18destroy_deallocateEv
FUNC 13cb84 420 0 _ZNSt6__ndk110__function6__funcIZN14NetworkManager2onI22ReceiveLobbyInfoPacketQsr3stdE12is_base_of_vI6PacketT_EEEvNS_8functionIFvPS6_EEEbEUlNS_12basic_stringIcNS_11char_traitsIcEENS_9allocatorIcEEEEE_NSE_ISH_EEFvSG_EEclEOSG_
FUNC 13cfa4 1c 0 _ZNKSt6__ndk110__function6__funcIZN14NetworkManager2onI22ReceiveLobbyInfoPacketQsr3stdE12is_base_of_vI6PacketT_EEEvNS_8functionIFvPS6_EEEbEUlNS_12basic_stringIcNS_11char_traitsIcEENS_9allocatorIcEEEEE_NSE_ISH_EEFvSG_EE6targetERKSt9type_info
FUNC 13cfc0 c 0 _ZNKSt6__ndk110__function6__funcIZN14NetworkManager2onI22ReceiveLobbyInfoPacketQsr3stdE12is_base_of_vI6PacketT_EEEvNS_8functionIFvPS6_EEEbEUlNS_12basic_stringIcNS_11char_traitsIcEENS_9allocatorIcEEEEE_NSE_ISH_EEFvSG_EE11target_typeEv
FUNC 13cfcc 4 0 ReceiveLobbyInfoPacket::decode(std::__ndk1::basic_string<char, std::__ndk1::char_traits<char>, std::__ndk1::allocator<char> >)
FUNC 13cfd0 8 0 ReceiveLobbyInfoPacket::getPacketID() const
FUNC 13cfd8 c 0 ReceiveLobbyInfoPacket::getPacketName() const
FUNC 13cfe4 44 0 _ZNSt6__ndk110__function6__funcIZZN14NetworkManager2onI22ReceiveLobbyInfoPacketQsr3stdE12is_base_of_vI6PacketT_EEEvNS_8functionIFvPS6_EEEbENKUlNS_12basic_stringIcNS_11char_traitsIcEENS_9allocatorIcEEEEE_clESG_EUlvE_NSE_ISI_EEFvvEED2Ev
FUNC 13d028 5c 0 _ZNSt6__ndk110__function6__funcIZZN14NetworkManager2onI22ReceiveLobbyInfoPacketQsr3stdE12is_base_of_vI6PacketT_EEEvNS_8functionIFvPS6_EEEbENKUlNS_12basic_stringIcNS_11char_traitsIcEENS_9allocatorIcEEEEE_clESG_EUlvE_NSE_ISI_EEFvvEED0Ev
FUNC 13d084 90 0 _ZNKSt6__ndk110__function6__funcIZZN14NetworkManager2onI22ReceiveLobbyInfoPacketQsr3stdE12is_base_of_vI6PacketT_EEEvNS_8functionIFvPS6_EEEbENKUlNS_12basic_stringIcNS_11char_traitsIcEENS_9allocatorIcEEEEE_clESG_EUlvE_NSE_ISI_EEFvvEE7__cloneEv
FUNC 13d114 78 0 _ZNKSt6__ndk110__function6__funcIZZN14NetworkManager2onI22ReceiveLobbyInfoPacketQsr3stdE12is_base_of_vI6PacketT_EEEvNS_8functionIFvPS6_EEEbENKUlNS_12basic_stringIcNS_11char_traitsIcEENS_9allocatorIcEEEEE_clESG_EUlvE_NSE_ISI_EEFvvEE7__cloneEPNS0_6__baseISK_EE
FUNC 13d18c 38 0 _ZNSt6__ndk110__function6__funcIZZN14NetworkManager2onI22ReceiveLobbyInfoPacketQsr3stdE12is_base_of_vI6PacketT_EEEvNS_8functionIFvPS6_EEEbENKUlNS_12basic_stringIcNS_11char_traitsIcEENS_9allocatorIcEEEEE_clESG_EUlvE_NSE_ISI_EEFvvEE7destroyEv
FUNC 13d1c4 50 0 _ZNSt6__ndk110__function6__funcIZZN14NetworkManager2onI22ReceiveLobbyInfoPacketQsr3stdE12is_base_of_vI6PacketT_EEEvNS_8functionIFvPS6_EEEbENKUlNS_12basic_stringIcNS_11char_traitsIcEENS_9allocatorIcEEEEE_clESG_EUlvE_NSE_ISI_EEFvvEE18destroy_deallocateEv
FUNC 13d214 74 0 _ZNSt6__ndk110__function6__funcIZZN14NetworkManager2onI22ReceiveLobbyInfoPacketQsr3stdE12is_base_of_vI6PacketT_EEEvNS_8functionIFvPS6_EEEbENKUlNS_12basic_stringIcNS_11char_traitsIcEENS_9allocatorIcEEEEE_clESG_EUlvE_NSE_ISI_EEFvvEEclEv
FUNC 13d288 1c 0 _ZNKSt6__ndk110__function6__funcIZZN14NetworkManager2onI22ReceiveLobbyInfoPacketQsr3stdE12is_base_of_vI6PacketT_EEEvNS_8functionIFvPS6_EEEbENKUlNS_12basic_stringIcNS_11char_traitsIcEENS_9allocatorIcEEEEE_clESG_EUlvE_NSE_ISI_EEFvvEE6targetERKSt9type_info
FUNC 13d2a4 c 0 _ZNKSt6__ndk110__function6__funcIZZN14NetworkManager2onI22ReceiveLobbyInfoPacketQsr3stdE12is_base_of_vI6PacketT_EEEvNS_8functionIFvPS6_EEEbENKUlNS_12basic_stringIcNS_11char_traitsIcEENS_9allocatorIcEEEEE_clESG_EUlvE_NSE_ISI_EEFvvEE11target_typeEv
FUNC 13d2b0 44 0 std::__ndk1::__function::__func<SwapManager::getLobbyInfo(std::__ndk1::function<void (LobbyInfo)>)::$_0, std::__ndk1::allocator<SwapManager::getLobbyInfo(std::__ndk1::function<void (LobbyInfo)>)::$_0>, void (ReceiveLobbyInfoPacket*)>::~__func()
FUNC 13d2f4 5c 0 std::__ndk1::__function::__func<SwapManager::getLobbyInfo(std::__ndk1::function<void (LobbyInfo)>)::$_0, std::__ndk1::allocator<SwapManager::getLobbyInfo(std::__ndk1::function<void (LobbyInfo)>)::$_0>, void (ReceiveLobbyInfoPacket*)>::~__func()
FUNC 13d350 90 0 std::__ndk1::__function::__func<SwapManager::getLobbyInfo(std::__ndk1::function<void (LobbyInfo)>)::$_0, std::__ndk1::allocator<SwapManager::getLobbyInfo(std::__ndk1::function<void (LobbyInfo)>)::$_0>, void (ReceiveLobbyInfoPacket*)>::__clone() const
FUNC 13d3e0 80 0 std::__ndk1::__function::__func<SwapManager::getLobbyInfo(std::__ndk1::function<void (LobbyInfo)>)::$_0, std::__ndk1::allocator<SwapManager::getLobbyInfo(std::__ndk1::function<void (LobbyInfo)>)::$_0>, void (ReceiveLobbyInfoPacket*)>::__clone(std::__ndk1::__function::__base<void (ReceiveLobbyInfoPacket*)>*) const
FUNC 13d460 38 0 std::__ndk1::__function::__func<SwapManager::getLobbyInfo(std::__ndk1::function<void (LobbyInfo)>)::$_0, std::__ndk1::allocator<SwapManager::getLobbyInfo(std::__ndk1::function<void (LobbyInfo)>)::$_0>, void (ReceiveLobbyInfoPacket*)>::destroy()
FUNC 13d498 50 0 std::__ndk1::__function::__func<SwapManager::getLobbyInfo(std::__ndk1::function<void (LobbyInfo)>)::$_0, std::__ndk1::allocator<SwapManager::getLobbyInfo(std::__ndk1::function<void (LobbyInfo)>)::$_0>, void (ReceiveLobbyInfoPacket*)>::destroy_deallocate()
FUNC 13d4e8 13c 0 std::__ndk1::__function::__func<SwapManager::getLobbyInfo(std::__ndk1::function<void (LobbyInfo)>)::$_0, std::__ndk1::allocator<SwapManager::getLobbyInfo(std::__ndk1::function<void (LobbyInfo)>)::$_0>, void (ReceiveLobbyInfoPacket*)>::operator()(ReceiveLobbyInfoPacket*&&)
FUNC 13d624 1c 0 std::__ndk1::__function::__func<SwapManager::getLobbyInfo(std::__ndk1::function<void (LobbyInfo)>)::$_0, std::__ndk1::allocator<SwapManager::getLobbyInfo(std::__ndk1::function<void (LobbyInfo)>)::$_0>, void (ReceiveLobbyInfoPacket*)>::target(std::type_info const&) const
FUNC 13d640 c 0 std::__ndk1::__function::__func<SwapManager::getLobbyInfo(std::__ndk1::function<void (LobbyInfo)>)::$_0, std::__ndk1::allocator<SwapManager::getLobbyInfo(std::__ndk1::function<void (LobbyInfo)>)::$_0>, void (ReceiveLobbyInfoPacket*)>::target_type() const
FUNC 13d64c 4 0 UpdateLobbyPacket::decode(std::__ndk1::basic_string<char, std::__ndk1::char_traits<char>, std::__ndk1::allocator<char> >)
FUNC 13d650 8 0 UpdateLobbyPacket::getPacketID() const
FUNC 13d658 c 0 UpdateLobbyPacket::getPacketName() const
FUNC 13d664 44 0 std::__ndk1::__function::__func<NetworkManager::send<UpdateLobbyPacket>(UpdateLobbyPacket*, std::__ndk1::function<void ()>)::{lambda(int, int)#1}, std::__ndk1::allocator<NetworkManager::send<UpdateLobbyPacket>(UpdateLobbyPacket*, std::__ndk1::function<void ()>)::{lambda(int, int)#1}>, bool (int, int)>::~__func()
FUNC 13d6a8 5c 0 std::__ndk1::__function::__func<NetworkManager::send<UpdateLobbyPacket>(UpdateLobbyPacket*, std::__ndk1::function<void ()>)::{lambda(int, int)#1}, std::__ndk1::allocator<NetworkManager::send<UpdateLobbyPacket>(UpdateLobbyPacket*, std::__ndk1::function<void ()>)::{lambda(int, int)#1}>, bool (int, int)>::~__func()
FUNC 13d704 88 0 std::__ndk1::__function::__func<NetworkManager::send<UpdateLobbyPacket>(UpdateLobbyPacket*, std::__ndk1::function<void ()>)::{lambda(int, int)#1}, std::__ndk1::allocator<NetworkManager::send<UpdateLobbyPacket>(UpdateLobbyPacket*, std::__ndk1::function<void ()>)::{lambda(int, int)#1}>, bool (int, int)>::__clone() const
FUNC 13d78c 74 0 std::__ndk1::__function::__func<NetworkManager::send<UpdateLobbyPacket>(UpdateLobbyPacket*, std::__ndk1::function<void ()>)::{lambda(int, int)#1}, std::__ndk1::allocator<NetworkManager::send<UpdateLobbyPacket>(UpdateLobbyPacket*, std::__ndk1::function<void ()>)::{lambda(int, int)#1}>, bool (int, int)>::__clone(std::__ndk1::__function::__base<bool (int, int)>*) const
FUNC 13d800 38 0 std::__ndk1::__function::__func<NetworkManager::send<UpdateLobbyPacket>(UpdateLobbyPacket*, std::__ndk1::function<void ()>)::{lambda(int, int)#1}, std::__ndk1::allocator<NetworkManager::send<UpdateLobbyPacket>(UpdateLobbyPacket*, std::__ndk1::function<void ()>)::{lambda(int, int)#1}>, bool (int, int)>::destroy()
FUNC 13d838 50 0 std::__ndk1::__function::__func<NetworkManager::send<UpdateLobbyPacket>(UpdateLobbyPacket*, std::__ndk1::function<void ()>)::{lambda(int, int)#1}, std::__ndk1::allocator<NetworkManager::send<UpdateLobbyPacket>(UpdateLobbyPacket*, std::__ndk1::function<void ()>)::{lambda(int, int)#1}>, bool (int, int)>::destroy_deallocate()
FUNC 13d888 21c 0 std::__ndk1::__function::__func<NetworkManager::send<UpdateLobbyPacket>(UpdateLobbyPacket*, std::__ndk1::function<void ()>)::{lambda(int, int)#1}, std::__ndk1::allocator<NetworkManager::send<UpdateLobbyPacket>(UpdateLobbyPacket*, std::__ndk1::function<void ()>)::{lambda(int, int)#1}>, bool (int, int)>::operator()(int&&, int&&)
FUNC 13daa4 1c 0 std::__ndk1::__function::__func<NetworkManager::send<UpdateLobbyPacket>(UpdateLobbyPacket*, std::__ndk1::function<void ()>)::{lambda(int, int)#1}, std::__ndk1::allocator<NetworkManager::send<UpdateLobbyPacket>(UpdateLobbyPacket*, std::__ndk1::function<void ()>)::{lambda(int, int)#1}>, bool (int, int)>::target(std::type_info const&) const
FUNC 13dac0 c 0 std::__ndk1::__function::__func<NetworkManager::send<UpdateLobbyPacket>(UpdateLobbyPacket*, std::__ndk1::function<void ()>)::{lambda(int, int)#1}, std::__ndk1::allocator<NetworkManager::send<UpdateLobbyPacket>(UpdateLobbyPacket*, std::__ndk1::function<void ()>)::{lambda(int, int)#1}>, bool (int, int)>::target_type() const
FUNC 13dacc 44 0 std::__ndk1::__function::__func<NetworkManager::send<UpdateLobbyPacket>(UpdateLobbyPacket*, std::__ndk1::function<void ()>)::{lambda(int, int)#1}::operator()(int, int) const::{lambda()#1}, std::__ndk1::allocator<NetworkManager::send<UpdateLobbyPacket>(UpdateLobbyPacket*, std::__ndk1::function<void ()>)::{lambda(int, int)#1}::operator()(int, int) const::{lambda()#1}>, void ()>::~__func()
FUNC 13db10 5c 0 std::__ndk1::__function::__func<NetworkManager::send<UpdateLobbyPacket>(UpdateLobbyPacket*, std::__ndk1::function<void ()>)::{lambda(int, int)#1}::operator()(int, int) const::{lambda()#1}, std::__ndk1::allocator<NetworkManager::send<UpdateLobbyPacket>(UpdateLobbyPacket*, std::__ndk1::function<void ()>)::{lambda(int, int)#1}::operator()(int, int) const::{lambda()#1}>, void ()>::~__func()
FUNC 13db6c 88 0 std::__ndk1::__function::__func<NetworkManager::send<UpdateLobbyPacket>(UpdateLobbyPacket*, std::__ndk1::function<void ()>)::{lambda(int, int)#1}::operator()(int, int) const::{lambda()#1}, std::__ndk1::allocator<NetworkManager::send<UpdateLobbyPacket>(UpdateLobbyPacket*, std::__ndk1::function<void ()>)::{lambda(int, int)#1}::operator()(int, int) const::{lambda()#1}>, void ()>::__clone() const
FUNC 13dbf4 74 0 std::__ndk1::__function::__func<NetworkManager::send<UpdateLobbyPacket>(UpdateLobbyPacket*, std::__ndk1::function<void ()>)::{lambda(int, int)#1}::operator()(int, int) const::{lambda()#1}, std::__ndk1::allocator<NetworkManager::send<UpdateLobbyPacket>(UpdateLobbyPacket*, std::__ndk1::function<void ()>)::{lambda(int, int)#1}::operator()(int, int) const::{lambda()#1}>, void ()>::__clone(std::__ndk1::__function::__base<void ()>*) const
FUNC 13dc68 38 0 std::__ndk1::__function::__func<NetworkManager::send<UpdateLobbyPacket>(UpdateLobbyPacket*, std::__ndk1::function<void ()>)::{lambda(int, int)#1}::operator()(int, int) const::{lambda()#1}, std::__ndk1::allocator<NetworkManager::send<UpdateLobbyPacket>(UpdateLobbyPacket*, std::__ndk1::function<void ()>)::{lambda(int, int)#1}::operator()(int, int) const::{lambda()#1}>, void ()>::destroy()
FUNC 13dca0 50 0 std::__ndk1::__function::__func<NetworkManager::send<UpdateLobbyPacket>(UpdateLobbyPacket*, std::__ndk1::function<void ()>)::{lambda(int, int)#1}::operator()(int, int) const::{lambda()#1}, std::__ndk1::allocator<NetworkManager::send<UpdateLobbyPacket>(UpdateLobbyPacket*, std::__ndk1::function<void ()>)::{lambda(int, int)#1}::operator()(int, int) const::{lambda()#1}>, void ()>::destroy_deallocate()
FUNC 13dcf0 20 0 std::__ndk1::__function::__func<NetworkManager::send<UpdateLobbyPacket>(UpdateLobbyPacket*, std::__ndk1::function<void ()>)::{lambda(int, int)#1}::operator()(int, int) const::{lambda()#1}, std::__ndk1::allocator<NetworkManager::send<UpdateLobbyPacket>(UpdateLobbyPacket*, std::__ndk1::function<void ()>)::{lambda(int, int)#1}::operator()(int, int) const::{lambda()#1}>, void ()>::operator()()
FUNC 13dd10 1c 0 std::__ndk1::__function::__func<NetworkManager::send<UpdateLobbyPacket>(UpdateLobbyPacket*, std::__ndk1::function<void ()>)::{lambda(int, int)#1}::operator()(int, int) const::{lambda()#1}, std::__ndk1::allocator<NetworkManager::send<UpdateLobbyPacket>(UpdateLobbyPacket*, std::__ndk1::function<void ()>)::{lambda(int, int)#1}::operator()(int, int) const::{lambda()#1}>, void ()>::target(std::type_info const&) const
FUNC 13dd2c c 0 std::__ndk1::__function::__func<NetworkManager::send<UpdateLobbyPacket>(UpdateLobbyPacket*, std::__ndk1::function<void ()>)::{lambda(int, int)#1}::operator()(int, int) const::{lambda()#1}, std::__ndk1::allocator<NetworkManager::send<UpdateLobbyPacket>(UpdateLobbyPacket*, std::__ndk1::function<void ()>)::{lambda(int, int)#1}::operator()(int, int) const::{lambda()#1}>, void ()>::target_type() const
FUNC 13dd38 4 0 std::__ndk1::__function::__func<SwapManager::startSwap(SwapStartedPacket*)::$_0, std::__ndk1::allocator<SwapManager::startSwap(SwapStartedPacket*)::$_0>, void (LobbyInfo)>::~__func()
FUNC 13dd3c 34 0 std::__ndk1::__function::__func<SwapManager::startSwap(SwapStartedPacket*)::$_0, std::__ndk1::allocator<SwapManager::startSwap(SwapStartedPacket*)::$_0>, void (LobbyInfo)>::__clone() const
FUNC 13dd70 14 0 std::__ndk1::__function::__func<SwapManager::startSwap(SwapStartedPacket*)::$_0, std::__ndk1::allocator<SwapManager::startSwap(SwapStartedPacket*)::$_0>, void (LobbyInfo)>::__clone(std::__ndk1::__function::__base<void (LobbyInfo)>*) const
FUNC 13dd84 4 0 std::__ndk1::__function::__func<SwapManager::startSwap(SwapStartedPacket*)::$_0, std::__ndk1::allocator<SwapManager::startSwap(SwapStartedPacket*)::$_0>, void (LobbyInfo)>::destroy()
FUNC 13dd88 4 0 std::__ndk1::__function::__func<SwapManager::startSwap(SwapStartedPacket*)::$_0, std::__ndk1::allocator<SwapManager::startSwap(SwapStartedPacket*)::$_0>, void (LobbyInfo)>::destroy_deallocate()
FUNC 13dd8c f8 0 std::__ndk1::__function::__func<SwapManager::startSwap(SwapStartedPacket*)::$_0, std::__ndk1::allocator<SwapManager::startSwap(SwapStartedPacket*)::$_0>, void (LobbyInfo)>::operator()(LobbyInfo&&)
FUNC 13de84 1c 0 std::__ndk1::__function::__func<SwapManager::startSwap(SwapStartedPacket*)::$_0, std::__ndk1::allocator<SwapManager::startSwap(SwapStartedPacket*)::$_0>, void (LobbyInfo)>::target(std::type_info const&) const
FUNC 13dea0 c 0 std::__ndk1::__function::__func<SwapManager::startSwap(SwapStartedPacket*)::$_0, std::__ndk1::allocator<SwapManager::startSwap(SwapStartedPacket*)::$_0>, void (LobbyInfo)>::target_type() const
FUNC 13deac 4 0 std::__ndk1::__function::__func<SwapManager::registerListeners()::$_0, std::__ndk1::allocator<SwapManager::registerListeners()::$_0>, void (std::__ndk1::basic_string<char, std::__ndk1::char_traits<char>, std::__ndk1::allocator<char> >)>::~__func()
FUNC 13deb0 24 0 std::__ndk1::__function::__func<SwapManager::registerListeners()::$_0, std::__ndk1::allocator<SwapManager::registerListeners()::$_0>, void (std::__ndk1::basic_string<char, std::__ndk1::char_traits<char>, std::__ndk1::allocator<char> >)>::__clone() const
FUNC 13ded4 10 0 std::__ndk1::__function::__func<SwapManager::registerListeners()::$_0, std::__ndk1::allocator<SwapManager::registerListeners()::$_0>, void (std::__ndk1::basic_string<char, std::__ndk1::char_traits<char>, std::__ndk1::allocator<char> >)>::__clone(std::__ndk1::__function::__base<void (std::__ndk1::basic_string<char, std::__ndk1::char_traits<char>, std::__ndk1::allocator<char> >)>*) const
FUNC 13dee4 4 0 std::__ndk1::__function::__func<SwapManager::registerListeners()::$_0, std::__ndk1::allocator<SwapManager::registerListeners()::$_0>, void (std::__ndk1::basic_string<char, std::__ndk1::char_traits<char>, std::__ndk1::allocator<char> >)>::destroy()
FUNC 13dee8 4 0 std::__ndk1::__function::__func<SwapManager::registerListeners()::$_0, std::__ndk1::allocator<SwapManager::registerListeners()::$_0>, void (std::__ndk1::basic_string<char, std::__ndk1::char_traits<char>, std::__ndk1::allocator<char> >)>::destroy_deallocate()
FUNC 13deec 1c 0 std::__ndk1::__function::__func<SwapManager::registerListeners()::$_0, std::__ndk1::allocator<SwapManager::registerListeners()::$_0>, void (std::__ndk1::basic_string<char, std::__ndk1::char_traits<char>, std::__ndk1::allocator<char> >)>::operator()(std::__ndk1::basic_string<char, std::__ndk1::char_traits<char>, std::__ndk1::allocator<char> >&&)
FUNC 13df08 1c 0 std::__ndk1::__function::__func<SwapManager::registerListeners()::$_0, std::__ndk1::allocator<SwapManager::registerListeners()::$_0>, void (std::__ndk1::basic_string<char, std::__ndk1::char_traits<char>, std::__ndk1::allocator<char> >)>::target(std::type_info const&) const
FUNC 13df24 c 0 std::__ndk1::__function::__func<SwapManager::registerListeners()::$_0, std::__ndk1::allocator<SwapManager::registerListeners()::$_0>, void (std::__ndk1::basic_string<char, std::__ndk1::char_traits<char>, std::__ndk1::allocator<char> >)>::target_type() const
FUNC 13df30 44 0 _ZNSt6__ndk110__function6__funcIZN14NetworkManager2onI16TimeToSwapPacketQsr3stdE12is_base_of_vI6PacketT_EEEvNS_8functionIFvPS6_EEEbEUlNS_12basic_stringIcNS_11char_traitsIcEENS_9allocatorIcEEEEE_NSE_ISH_EEFvSG_EED2Ev
FUNC 13df74 5c 0 _ZNSt6__ndk110__function6__funcIZN14NetworkManager2onI16TimeToSwapPacketQsr3stdE12is_base_of_vI6PacketT_EEEvNS_8functionIFvPS6_EEEbEUlNS_12basic_stringIcNS_11char_traitsIcEENS_9allocatorIcEEEEE_NSE_ISH_EEFvSG_EED0Ev
FUNC 13dfd0 88 0 _ZNKSt6__ndk110__function6__funcIZN14NetworkManager2onI16TimeToSwapPacketQsr3stdE12is_base_of_vI6PacketT_EEEvNS_8functionIFvPS6_EEEbEUlNS_12basic_stringIcNS_11char_traitsIcEENS_9allocatorIcEEEEE_NSE_ISH_EEFvSG_EE7__cloneEv
FUNC 13e058 74 0 _ZNKSt6__ndk110__function6__funcIZN14NetworkManager2onI16TimeToSwapPacketQsr3stdE12is_base_of_vI6PacketT_EEEvNS_8functionIFvPS6_EEEbEUlNS_12basic_stringIcNS_11char_traitsIcEENS_9allocatorIcEEEEE_NSE_ISH_EEFvSG_EE7__cloneEPNS0_6__baseISJ_EE
FUNC 13e0cc 38 0 _ZNSt6__ndk110__function6__funcIZN14NetworkManager2onI16TimeToSwapPacketQsr3stdE12is_base_of_vI6PacketT_EEEvNS_8functionIFvPS6_EEEbEUlNS_12basic_stringIcNS_11char_traitsIcEENS_9allocatorIcEEEEE_NSE_ISH_EEFvSG_EE7destroyEv
FUNC 13e104 50 0 _ZNSt6__ndk110__function6__funcIZN14NetworkManager2onI16TimeToSwapPacketQsr3stdE12is_base_of_vI6PacketT_EEEvNS_8functionIFvPS6_EEEbEUlNS_12basic_stringIcNS_11char_traitsIcEENS_9allocatorIcEEEEE_NSE_ISH_EEFvSG_EE18destroy_deallocateEv
FUNC 13e154 3bc 0 _ZNSt6__ndk110__function6__funcIZN14NetworkManager2onI16TimeToSwapPacketQsr3stdE12is_base_of_vI6PacketT_EEEvNS_8functionIFvPS6_EEEbEUlNS_12basic_stringIcNS_11char_traitsIcEENS_9allocatorIcEEEEE_NSE_ISH_EEFvSG_EEclEOSG_
FUNC 13e510 1c 0 _ZNKSt6__ndk110__function6__funcIZN14NetworkManager2onI16TimeToSwapPacketQsr3stdE12is_base_of_vI6PacketT_EEEvNS_8functionIFvPS6_EEEbEUlNS_12basic_stringIcNS_11char_traitsIcEENS_9allocatorIcEEEEE_NSE_ISH_EEFvSG_EE6targetERKSt9type_info
FUNC 13e52c c 0 _ZNKSt6__ndk110__function6__funcIZN14NetworkManager2onI16TimeToSwapPacketQsr3stdE12is_base_of_vI6PacketT_EEEvNS_8functionIFvPS6_EEEbEUlNS_12basic_stringIcNS_11char_traitsIcEENS_9allocatorIcEEEEE_NSE_ISH_EEFvSG_EE11target_typeEv
FUNC 13e538 4 0 TimeToSwapPacket::decode(std::__ndk1::basic_string<char, std::__ndk1::char_traits<char>, std::__ndk1::allocator<char> >)
FUNC 13e53c 8 0 TimeToSwapPacket::getPacketID() const
FUNC 13e544 c 0 TimeToSwapPacket::getPacketName() const
FUNC 13e550 44 0 _ZNSt6__ndk110__function6__funcIZZN14NetworkManager2onI16TimeToSwapPacketQsr3stdE12is_base_of_vI6PacketT_EEEvNS_8functionIFvPS6_EEEbENKUlNS_12basic_stringIcNS_11char_traitsIcEENS_9allocatorIcEEEEE_clESG_EUlvE_NSE_ISI_EEFvvEED2Ev
FUNC 13e594 5c 0 _ZNSt6__ndk110__function6__funcIZZN14NetworkManager2onI16TimeToSwapPacketQsr3stdE12is_base_of_vI6PacketT_EEEvNS_8functionIFvPS6_EEEbENKUlNS_12basic_stringIcNS_11char_traitsIcEENS_9allocatorIcEEEEE_clESG_EUlvE_NSE_ISI_EEFvvEED0Ev
FUNC 13e5f0 90 0 _ZNKSt6__ndk110__function6__funcIZZN14NetworkManager2onI16TimeToSwapPacketQsr3stdE12is_base_of_vI6PacketT_EEEvNS_8functionIFvPS6_EEEbENKUlNS_12basic_stringIcNS_11char_traitsIcEENS_9allocatorIcEEEEE_clESG_EUlvE_NSE_ISI_EEFvvEE7__cloneEv
FUNC 13e680 78 0 _ZNKSt6__ndk110__function6__funcIZZN14NetworkManager2onI16TimeToSwapPacketQsr3stdE12is_base_of_vI6PacketT_EEEvNS_8functionIFvPS6_EEEbENKUlNS_12basic_stringIcNS_11char_traitsIcEENS_9allocatorIcEEEEE_clESG_EUlvE_NSE_ISI_EEFvvEE7__cloneEPNS0_6__baseISK_EE
FUNC 13e6f8 38 0 _ZNSt6__ndk110__function6__funcIZZN14NetworkManager2onI16TimeToSwapPacketQsr3stdE12is_base_of_vI6PacketT_EEEvNS_8functionIFvPS6_EEEbENKUlNS_12basic_stringIcNS_11char_traitsIcEENS_9allocatorIcEEEEE_clESG_EUlvE_NSE_ISI_EEFvvEE7destroyEv
FUNC 13e730 50 0 _ZNSt6__ndk110__function6__funcIZZN14NetworkManager2onI16TimeToSwapPacketQsr3stdE12is_base_of_vI6PacketT_EEEvNS_8functionIFvPS6_EEEbENKUlNS_12basic_stringIcNS_11char_traitsIcEENS_9allocatorIcEEEEE_clESG_EUlvE_NSE_ISI_EEFvvEE18destroy_deallocateEv
FUNC 13e780 74 0 _ZNSt6__ndk110__function6__funcIZZN14NetworkManager2onI16TimeToSwapPacketQsr3stdE12is_base_of_vI6PacketT_EEEvNS_8functionIFvPS6_EEEbENKUlNS_12basic_stringIcNS_11char_traitsIcEENS_9allocatorIcEEEEE_clESG_EUlvE_NSE_ISI_EEFvvEEclEv
FUNC 13e7f4 1c 0 _ZNKSt6__ndk110__function6__funcIZZN14NetworkManager2onI16TimeToSwapPacketQsr3stdE12is_base_of_vI6PacketT_EEEvNS_8functionIFvPS6_EEEbENKUlNS_12basic_stringIcNS_11char_traitsIcEENS_9allocatorIcEEEEE_clESG_EUlvE_NSE_ISI_EEFvvEE6targetERKSt9type_info
FUNC 13e810 c 0 _ZNKSt6__ndk110__function6__funcIZZN14NetworkManager2onI16TimeToSwapPacketQsr3stdE12is_base_of_vI6PacketT_EEEvNS_8functionIFvPS6_EEEbENKUlNS_12basic_stringIcNS_11char_traitsIcEENS_9allocatorIcEEEEE_clESG_EUlvE_NSE_ISI_EEFvvEE11target_typeEv
FUNC 13e81c 4 0 std::__ndk1::__function::__base<void (TimeToSwapPacket*)>::~__base()
FUNC 13e820 4 0 std::__ndk1::__function::__func<SwapManager::registerListeners()::$_1, std::__ndk1::allocator<SwapManager::registerListeners()::$_1>, void (TimeToSwapPacket*)>::~__func()
FUNC 13e824 34 0 std::__ndk1::__function::__func<SwapManager::registerListeners()::$_1, std::__ndk1::allocator<SwapManager::registerListeners()::$_1>, void (TimeToSwapPacket*)>::__clone() const
FUNC 13e858 14 0 std::__ndk1::__function::__func<SwapManager::registerListeners()::$_1, std::__ndk1::allocator<SwapManager::registerListeners()::$_1>, void (TimeToSwapPacket*)>::__clone(std::__ndk1::__function::__base<void (TimeToSwapPacket*)>*) const
FUNC 13e86c 4 0 std::__ndk1::__function::__func<SwapManager::registerListeners()::$_1, std::__ndk1::allocator<SwapManager::registerListeners()::$_1>, void (TimeToSwapPacket*)>::destroy()
FUNC 13e870 4 0 std::__ndk1::__function::__func<SwapManager::registerListeners()::$_1, std::__ndk1::allocator<SwapManager::registerListeners()::$_1>, void (TimeToSwapPacket*)>::destroy_deallocate()
FUNC 13e874 1004 0 std::__ndk1::__function::__func<SwapManager::registerListeners()::$_1, std::__ndk1::allocator<SwapManager::registerListeners()::$_1>, void (TimeToSwapPacket*)>::operator()(TimeToSwapPacket*&&)
FUNC 13f878 1c 0 std::__ndk1::__function::__func<SwapManager::registerListeners()::$_1, std::__ndk1::allocator<SwapManager::registerListeners()::$_1>, void (TimeToSwapPacket*)>::target(std::type_info const&) const
FUNC 13f894 c 0 std::__ndk1::__function::__func<SwapManager::registerListeners()::$_1, std::__ndk1::allocator<SwapManager::registerListeners()::$_1>, void (TimeToSwapPacket*)>::target_type() const
FUNC 13f8a0 f4 0 LevelData::LevelData(LevelData const&)
FUNC 13f994 64 0 LevelData::~LevelData()
FUNC 13f9f8 c4 0 std::__ndk1::__fs::filesystem::path::operator/=[abi:ne180000](std::__ndk1::__fs::filesystem::path const&)
FUNC 13fabc 44 0 std::__ndk1::__function::__func<NetworkManager::send<SendLevelPacket>(SendLevelPacket*, std::__ndk1::function<void ()>)::{lambda(int, int)#1}, std::__ndk1::allocator<NetworkManager::send<SendLevelPacket>(SendLevelPacket*, std::__ndk1::function<void ()>)::{lambda(int, int)#1}>, bool (int, int)>::~__func()
FUNC 13fb00 5c 0 std::__ndk1::__function::__func<NetworkManager::send<SendLevelPacket>(SendLevelPacket*, std::__ndk1::function<void ()>)::{lambda(int, int)#1}, std::__ndk1::allocator<NetworkManager::send<SendLevelPacket>(SendLevelPacket*, std::__ndk1::function<void ()>)::{lambda(int, int)#1}>, bool (int, int)>::~__func()
FUNC 13fb5c 88 0 std::__ndk1::__function::__func<NetworkManager::send<SendLevelPacket>(SendLevelPacket*, std::__ndk1::function<void ()>)::{lambda(int, int)#1}, std::__ndk1::allocator<NetworkManager::send<SendLevelPacket>(SendLevelPacket*, std::__ndk1::function<void ()>)::{lambda(int, int)#1}>, bool (int, int)>::__clone() const
FUNC 13fbe4 74 0 std::__ndk1::__function::__func<NetworkManager::send<SendLevelPacket>(SendLevelPacket*, std::__ndk1::function<void ()>)::{lambda(int, int)#1}, std::__ndk1::allocator<NetworkManager::send<SendLevelPacket>(SendLevelPacket*, std::__ndk1::function<void ()>)::{lambda(int, int)#1}>, bool (int, int)>::__clone(std::__ndk1::__function::__base<bool (int, int)>*) const
FUNC 13fc58 38 0 std::__ndk1::__function::__func<NetworkManager::send<SendLevelPacket>(SendLevelPacket*, std::__ndk1::function<void ()>)::{lambda(int, int)#1}, std::__ndk1::allocator<NetworkManager::send<SendLevelPacket>(SendLevelPacket*, std::__ndk1::function<void ()>)::{lambda(int, int)#1}>, bool (int, int)>::destroy()
FUNC 13fc90 50 0 std::__ndk1::__function::__func<NetworkManager::send<SendLevelPacket>(SendLevelPacket*, std::__ndk1::function<void ()>)::{lambda(int, int)#1}, std::__ndk1::allocator<NetworkManager::send<SendLevelPacket>(SendLevelPacket*, std::__ndk1::function<void ()>)::{lambda(int, int)#1}>, bool (int, int)>::destroy_deallocate()
FUNC 13fce0 21c 0 std::__ndk1::__function::__func<NetworkManager::send<SendLevelPacket>(SendLevelPacket*, std::__ndk1::function<void ()>)::{lambda(int, int)#1}, std::__ndk1::allocator<NetworkManager::send<SendLevelPacket>(SendLevelPacket*, std::__ndk1::function<void ()>)::{lambda(int, int)#1}>, bool (int, int)>::operator()(int&&, int&&)
FUNC 13fefc 1c 0 std::__ndk1::__function::__func<NetworkManager::send<SendLevelPacket>(SendLevelPacket*, std::__ndk1::function<void ()>)::{lambda(int, int)#1}, std::__ndk1::allocator<NetworkManager::send<SendLevelPacket>(SendLevelPacket*, std::__ndk1::function<void ()>)::{lambda(int, int)#1}>, bool (int, int)>::target(std::type_info const&) const
FUNC 13ff18 c 0 std::__ndk1::__function::__func<NetworkManager::send<SendLevelPacket>(SendLevelPacket*, std::__ndk1::function<void ()>)::{lambda(int, int)#1}, std::__ndk1::allocator<NetworkManager::send<SendLevelPacket>(SendLevelPacket*, std::__ndk1::function<void ()>)::{lambda(int, int)#1}>, bool (int, int)>::target_type() const
FUNC 13ff24 44 0 std::__ndk1::__function::__func<NetworkManager::send<SendLevelPacket>(SendLevelPacket*, std::__ndk1::function<void ()>)::{lambda(int, int)#1}::operator()(int, int) const::{lambda()#1}, std::__ndk1::allocator<NetworkManager::send<SendLevelPacket>(SendLevelPacket*, std::__ndk1::function<void ()>)::{lambda(int, int)#1}::operator()(int, int) const::{lambda()#1}>, void ()>::~__func()
FUNC 13ff68 5c 0 std::__ndk1::__function::__func<NetworkManager::send<SendLevelPacket>(SendLevelPacket*, std::__ndk1::function<void ()>)::{lambda(int, int)#1}::operator()(int, int) const::{lambda()#1}, std::__ndk1::allocator<NetworkManager::send<SendLevelPacket>(SendLevelPacket*, std::__ndk1::function<void ()>)::{lambda(int, int)#1}::operator()(int, int) const::{lambda()#1}>, void ()>::~__func()
FUNC 13ffc4 88 0 std::__ndk1::__function::__func<NetworkManager::send<SendLevelPacket>(SendLevelPacket*, std::__ndk1::function<void ()>)::{lambda(int, int)#1}::operator()(int, int) const::{lambda()#1}, std::__ndk1::allocator<NetworkManager::send<SendLevelPacket>(SendLevelPacket*, std::__ndk1::function<void ()>)::{lambda(int, int)#1}::operator()(int, int) const::{lambda()#1}>, void ()>::__clone() const
FUNC 14004c 74 0 std::__ndk1::__function::__func<NetworkManager::send<SendLevelPacket>(SendLevelPacket*, std::__ndk1::function<void ()>)::{lambda(int, int)#1}::operator()(int, int) const::{lambda()#1}, std::__ndk1::allocator<NetworkManager::send<SendLevelPacket>(SendLevelPacket*, std::__ndk1::function<void ()>)::{lambda(int, int)#1}::operator()(int, int) const::{lambda()#1}>, void ()>::__clone(std::__ndk1::__function::__base<void ()>*) const
FUNC 1400c0 38 0 std::__ndk1::__function::__func<NetworkManager::send<SendLevelPacket>(SendLevelPacket*, std::__ndk1::function<void ()>)::{lambda(int, int)#1}::operator()(int, int) const::{lambda()#1}, std::__ndk1::allocator<NetworkManager::send<SendLevelPacket>(SendLevelPacket*, std::__ndk1::function<void ()>)::{lambda(int, int)#1}::operator()(int, int) const::{lambda()#1}>, void ()>::destroy()
FUNC 1400f8 50 0 std::__ndk1::__function::__func<NetworkManager::send<SendLevelPacket>(SendLevelPacket*, std::__ndk1::function<void ()>)::{lambda(int, int)#1}::operator()(int, int) const::{lambda()#1}, std::__ndk1::allocator<NetworkManager::send<SendLevelPacket>(SendLevelPacket*, std::__ndk1::function<void ()>)::{lambda(int, int)#1}::operator()(int, int) const::{lambda()#1}>, void ()>::destroy_deallocate()
FUNC 140148 20 0 std::__ndk1::__function::__func<NetworkManager::send<SendLevelPacket>(SendLevelPacket*, std::__ndk1::function<void ()>)::{lambda(int, int)#1}::operator()(int, int) const::{lambda()#1}, std::__ndk1::allocator<NetworkManager::send<SendLevelPacket>(SendLevelPacket*, std::__ndk1::function<void ()>)::{lambda(int, int)#1}::operator()(int, int) const::{lambda()#1}>, void ()>::operator()()
FUNC 140168 1c 0 std::__ndk1::__function::__func<NetworkManager::send<SendLevelPacket>(SendLevelPacket*, std::__ndk1::function<void ()>)::{lambda(int, int)#1}::operator()(int, int) const::{lambda()#1}, std::__ndk1::allocator<NetworkManager::send<SendLevelPacket>(SendLevelPacket*, std::__ndk1::function<void ()>)::{lambda(int, int)#1}::operator()(int, int) const::{lambda()#1}>, void ()>::target(std::type_info const&) const
FUNC 140184 c 0 std::__ndk1::__function::__func<NetworkManager::send<SendLevelPacket>(SendLevelPacket*, std::__ndk1::function<void ()>)::{lambda(int, int)#1}::operator()(int, int) const::{lambda()#1}, std::__ndk1::allocator<NetworkManager::send<SendLevelPacket>(SendLevelPacket*, std::__ndk1::function<void ()>)::{lambda(int, int)#1}::operator()(int, int) const::{lambda()#1}>, void ()>::target_type() const
FUNC 140190 4 0 SendLevelPacket::decode(std::__ndk1::basic_string<char, std::__ndk1::char_traits<char>, std::__ndk1::allocator<char> >)
FUNC 140194 8 0 SendLevelPacket::getPacketID() const
FUNC 14019c c 0 SendLevelPacket::getPacketName() const
FUNC 1401a8 44 0 _ZNSt6__ndk110__function6__funcIZN14NetworkManager2onI25ReceiveSwappedLevelPacketQsr3stdE12is_base_of_vI6PacketT_EEEvNS_8functionIFvPS6_EEEbEUlNS_12basic_stringIcNS_11char_traitsIcEENS_9allocatorIcEEEEE_NSE_ISH_EEFvSG_EED2Ev
FUNC 1401ec 5c 0 _ZNSt6__ndk110__function6__funcIZN14NetworkManager2onI25ReceiveSwappedLevelPacketQsr3stdE12is_base_of_vI6PacketT_EEEvNS_8functionIFvPS6_EEEbEUlNS_12basic_stringIcNS_11char_traitsIcEENS_9allocatorIcEEEEE_NSE_ISH_EEFvSG_EED0Ev
FUNC 140248 88 0 _ZNKSt6__ndk110__function6__funcIZN14NetworkManager2onI25ReceiveSwappedLevelPacketQsr3stdE12is_base_of_vI6PacketT_EEEvNS_8functionIFvPS6_EEEbEUlNS_12basic_stringIcNS_11char_traitsIcEENS_9allocatorIcEEEEE_NSE_ISH_EEFvSG_EE7__cloneEv
FUNC 1402d0 74 0 _ZNKSt6__ndk110__function6__funcIZN14NetworkManager2onI25ReceiveSwappedLevelPacketQsr3stdE12is_base_of_vI6PacketT_EEEvNS_8functionIFvPS6_EEEbEUlNS_12basic_stringIcNS_11char_traitsIcEENS_9allocatorIcEEEEE_NSE_ISH_EEFvSG_EE7__cloneEPNS0_6__baseISJ_EE
FUNC 140344 38 0 _ZNSt6__ndk110__function6__funcIZN14NetworkManager2onI25ReceiveSwappedLevelPacketQsr3stdE12is_base_of_vI6PacketT_EEEvNS_8functionIFvPS6_EEEbEUlNS_12basic_stringIcNS_11char_traitsIcEENS_9allocatorIcEEEEE_NSE_ISH_EEFvSG_EE7destroyEv
FUNC 14037c 50 0 _ZNSt6__ndk110__function6__funcIZN14NetworkManager2onI25ReceiveSwappedLevelPacketQsr3stdE12is_base_of_vI6PacketT_EEEvNS_8functionIFvPS6_EEEbEUlNS_12basic_stringIcNS_11char_traitsIcEENS_9allocatorIcEEEEE_NSE_ISH_EEFvSG_EE18destroy_deallocateEv
FUNC 1403cc 6e8 0 _ZNSt6__ndk110__function6__funcIZN14NetworkManager2onI25ReceiveSwappedLevelPacketQsr3stdE12is_base_of_vI6PacketT_EEEvNS_8functionIFvPS6_EEEbEUlNS_12basic_stringIcNS_11char_traitsIcEENS_9allocatorIcEEEEE_NSE_ISH_EEFvSG_EEclEOSG_
FUNC 140ab4 1c 0 _ZNKSt6__ndk110__function6__funcIZN14NetworkManager2onI25ReceiveSwappedLevelPacketQsr3stdE12is_base_of_vI6PacketT_EEEvNS_8functionIFvPS6_EEEbEUlNS_12basic_stringIcNS_11char_traitsIcEENS_9allocatorIcEEEEE_NSE_ISH_EEFvSG_EE6targetERKSt9type_info
FUNC 140ad0 c 0 _ZNKSt6__ndk110__function6__funcIZN14NetworkManager2onI25ReceiveSwappedLevelPacketQsr3stdE12is_base_of_vI6PacketT_EEEvNS_8functionIFvPS6_EEEbEUlNS_12basic_stringIcNS_11char_traitsIcEENS_9allocatorIcEEEEE_NSE_ISH_EEFvSG_EE11target_typeEv
FUNC 140adc 4 0 ReceiveSwappedLevelPacket::decode(std::__ndk1::basic_string<char, std::__ndk1::char_traits<char>, std::__ndk1::allocator<char> >)
FUNC 140ae0 8 0 ReceiveSwappedLevelPacket::getPacketID() const
FUNC 140ae8 c 0 ReceiveSwappedLevelPacket::getPacketName() const
FUNC 140af4 14 0 std::__ndk1::vector<SwappedLevel, std::__ndk1::allocator<SwappedLevel> >::__throw_length_error[abi:ne180000]() const
FUNC 140b08 64 0 SwappedLevel::~SwappedLevel()
FUNC 140b6c 44 0 _ZNSt6__ndk110__function6__funcIZZN14NetworkManager2onI25ReceiveSwappedLevelPacketQsr3stdE12is_base_of_vI6PacketT_EEEvNS_8functionIFvPS6_EEEbENKUlNS_12basic_stringIcNS_11char_traitsIcEENS_9allocatorIcEEEEE_clESG_EUlvE_NSE_ISI_EEFvvEED2Ev
FUNC 140bb0 5c 0 _ZNSt6__ndk110__function6__funcIZZN14NetworkManager2onI25ReceiveSwappedLevelPacketQsr3stdE12is_base_of_vI6PacketT_EEEvNS_8functionIFvPS6_EEEbENKUlNS_12basic_stringIcNS_11char_traitsIcEENS_9allocatorIcEEEEE_clESG_EUlvE_NSE_ISI_EEFvvEED0Ev
FUNC 140c0c 90 0 _ZNKSt6__ndk110__function6__funcIZZN14NetworkManager2onI25ReceiveSwappedLevelPacketQsr3stdE12is_base_of_vI6PacketT_EEEvNS_8functionIFvPS6_EEEbENKUlNS_12basic_stringIcNS_11char_traitsIcEENS_9allocatorIcEEEEE_clESG_EUlvE_NSE_ISI_EEFvvEE7__cloneEv
FUNC 140c9c 78 0 _ZNKSt6__ndk110__function6__funcIZZN14NetworkManager2onI25ReceiveSwappedLevelPacketQsr3stdE12is_base_of_vI6PacketT_EEEvNS_8functionIFvPS6_EEEbENKUlNS_12basic_stringIcNS_11char_traitsIcEENS_9allocatorIcEEEEE_clESG_EUlvE_NSE_ISI_EEFvvEE7__cloneEPNS0_6__baseISK_EE
FUNC 140d14 38 0 _ZNSt6__ndk110__function6__funcIZZN14NetworkManager2onI25ReceiveSwappedLevelPacketQsr3stdE12is_base_of_vI6PacketT_EEEvNS_8functionIFvPS6_EEEbENKUlNS_12basic_stringIcNS_11char_traitsIcEENS_9allocatorIcEEEEE_clESG_EUlvE_NSE_ISI_EEFvvEE7destroyEv
FUNC 140d4c 50 0 _ZNSt6__ndk110__function6__funcIZZN14NetworkManager2onI25ReceiveSwappedLevelPacketQsr3stdE12is_base_of_vI6PacketT_EEEvNS_8functionIFvPS6_EEEbENKUlNS_12basic_stringIcNS_11char_traitsIcEENS_9allocatorIcEEEEE_clESG_EUlvE_NSE_ISI_EEFvvEE18destroy_deallocateEv
FUNC 140d9c 74 0 _ZNSt6__ndk110__function6__funcIZZN14NetworkManager2onI25ReceiveSwappedLevelPacketQsr3stdE12is_base_of_vI6PacketT_EEEvNS_8functionIFvPS6_EEEbENKUlNS_12basic_stringIcNS_11char_traitsIcEENS_9allocatorIcEEEEE_clESG_EUlvE_NSE_ISI_EEFvvEEclEv
FUNC 140e10 1c 0 _ZNKSt6__ndk110__function6__funcIZZN14NetworkManager2onI25ReceiveSwappedLevelPacketQsr3stdE12is_base_of_vI6PacketT_EEEvNS_8functionIFvPS6_EEEbENKUlNS_12basic_stringIcNS_11char_traitsIcEENS_9allocatorIcEEEEE_clESG_EUlvE_NSE_ISI_EEFvvEE6targetERKSt9type_info
FUNC 140e2c c 0 _ZNKSt6__ndk110__function6__funcIZZN14NetworkManager2onI25ReceiveSwappedLevelPacketQsr3stdE12is_base_of_vI6PacketT_EEEvNS_8functionIFvPS6_EEEbENKUlNS_12basic_stringIcNS_11char_traitsIcEENS_9allocatorIcEEEEE_clESG_EUlvE_NSE_ISI_EEFvvEE11target_typeEv
FUNC 140e38 4 0 std::__ndk1::__function::__base<void (ReceiveSwappedLevelPacket*)>::~__base()
FUNC 140e3c 4 0 std::__ndk1::__function::__func<SwapManager::registerListeners()::$_2, std::__ndk1::allocator<SwapManager::registerListeners()::$_2>, void (ReceiveSwappedLevelPacket*)>::~__func()
FUNC 140e40 34 0 std::__ndk1::__function::__func<SwapManager::registerListeners()::$_2, std::__ndk1::allocator<SwapManager::registerListeners()::$_2>, void (ReceiveSwappedLevelPacket*)>::__clone() const
FUNC 140e74 14 0 std::__ndk1::__function::__func<SwapManager::registerListeners()::$_2, std::__ndk1::allocator<SwapManager::registerListeners()::$_2>, void (ReceiveSwappedLevelPacket*)>::__clone(std::__ndk1::__function::__base<void (ReceiveSwappedLevelPacket*)>*) const
FUNC 140e88 4 0 std::__ndk1::__function::__func<SwapManager::registerListeners()::$_2, std::__ndk1::allocator<SwapManager::registerListeners()::$_2>, void (ReceiveSwappedLevelPacket*)>::destroy()
FUNC 140e8c 4 0 std::__ndk1::__function::__func<SwapManager::registerListeners()::$_2, std::__ndk1::allocator<SwapManager::registerListeners()::$_2>, void (ReceiveSwappedLevelPacket*)>::destroy_deallocate()
FUNC 140e90 3cc 0 std::__ndk1::__function::__func<SwapManager::registerListeners()::$_2, std::__ndk1::allocator<SwapManager::registerListeners()::$_2>, void (ReceiveSwappedLevelPacket*)>::operator()(ReceiveSwappedLevelPacket*&&)
FUNC 14125c 1c 0 std::__ndk1::__function::__func<SwapManager::registerListeners()::$_2, std::__ndk1::allocator<SwapManager::registerListeners()::$_2>, void (ReceiveSwappedLevelPacket*)>::target(std::type_info const&) const
FUNC 141278 c 0 std::__ndk1::__function::__func<SwapManager::registerListeners()::$_2, std::__ndk1::allocator<SwapManager::registerListeners()::$_2>, void (ReceiveSwappedLevelPacket*)>::target_type() const
FUNC 141284 44 0 _ZNSt6__ndk110__function6__funcIZN14NetworkManager2onI15SwapEndedPacketQsr3stdE12is_base_of_vI6PacketT_EEEvNS_8functionIFvPS6_EEEbEUlNS_12basic_stringIcNS_11char_traitsIcEENS_9allocatorIcEEEEE_NSE_ISH_EEFvSG_EED2Ev
FUNC 1412c8 5c 0 _ZNSt6__ndk110__function6__funcIZN14NetworkManager2onI15SwapEndedPacketQsr3stdE12is_base_of_vI6PacketT_EEEvNS_8functionIFvPS6_EEEbEUlNS_12basic_stringIcNS_11char_traitsIcEENS_9allocatorIcEEEEE_NSE_ISH_EEFvSG_EED0Ev
FUNC 141324 88 0 _ZNKSt6__ndk110__function6__funcIZN14NetworkManager2onI15SwapEndedPacketQsr3stdE12is_base_of_vI6PacketT_EEEvNS_8functionIFvPS6_EEEbEUlNS_12basic_stringIcNS_11char_traitsIcEENS_9allocatorIcEEEEE_NSE_ISH_EEFvSG_EE7__cloneEv
FUNC 1413ac 74 0 _ZNKSt6__ndk110__function6__funcIZN14NetworkManager2onI15SwapEndedPacketQsr3stdE12is_base_of_vI6PacketT_EEEvNS_8functionIFvPS6_EEEbEUlNS_12basic_stringIcNS_11char_traitsIcEENS_9allocatorIcEEEEE_NSE_ISH_EEFvSG_EE7__cloneEPNS0_6__baseISJ_EE
FUNC 141420 38 0 _ZNSt6__ndk110__function6__funcIZN14NetworkManager2onI15SwapEndedPacketQsr3stdE12is_base_of_vI6PacketT_EEEvNS_8functionIFvPS6_EEEbEUlNS_12basic_stringIcNS_11char_traitsIcEENS_9allocatorIcEEEEE_NSE_ISH_EEFvSG_EE7destroyEv
FUNC 141458 50 0 _ZNSt6__ndk110__function6__funcIZN14NetworkManager2onI15SwapEndedPacketQsr3stdE12is_base_of_vI6PacketT_EEEvNS_8functionIFvPS6_EEEbEUlNS_12basic_stringIcNS_11char_traitsIcEENS_9allocatorIcEEEEE_NSE_ISH_EEFvSG_EE18destroy_deallocateEv
FUNC 1414a8 3bc 0 _ZNSt6__ndk110__function6__funcIZN14NetworkManager2onI15SwapEndedPacketQsr3stdE12is_base_of_vI6PacketT_EEEvNS_8functionIFvPS6_EEEbEUlNS_12basic_stringIcNS_11char_traitsIcEENS_9allocatorIcEEEEE_NSE_ISH_EEFvSG_EEclEOSG_
FUNC 141864 1c 0 _ZNKSt6__ndk110__function6__funcIZN14NetworkManager2onI15SwapEndedPacketQsr3stdE12is_base_of_vI6PacketT_EEEvNS_8functionIFvPS6_EEEbEUlNS_12basic_stringIcNS_11char_traitsIcEENS_9allocatorIcEEEEE_NSE_ISH_EEFvSG_EE6targetERKSt9type_info
FUNC 141880 c 0 _ZNKSt6__ndk110__function6__funcIZN14NetworkManager2onI15SwapEndedPacketQsr3stdE12is_base_of_vI6PacketT_EEEvNS_8functionIFvPS6_EEEbEUlNS_12basic_stringIcNS_11char_traitsIcEENS_9allocatorIcEEEEE_NSE_ISH_EEFvSG_EE11target_typeEv
FUNC 14188c 4 0 SwapEndedPacket::decode(std::__ndk1::basic_string<char, std::__ndk1::char_traits<char>, std::__ndk1::allocator<char> >)
FUNC 141890 8 0 SwapEndedPacket::getPacketID() const
FUNC 141898 c 0 SwapEndedPacket::getPacketName() const
FUNC 1418a4 44 0 _ZNSt6__ndk110__function6__funcIZZN14NetworkManager2onI15SwapEndedPacketQsr3stdE12is_base_of_vI6PacketT_EEEvNS_8functionIFvPS6_EEEbENKUlNS_12basic_stringIcNS_11char_traitsIcEENS_9allocatorIcEEEEE_clESG_EUlvE_NSE_ISI_EEFvvEED2Ev
FUNC 1418e8 5c 0 _ZNSt6__ndk110__function6__funcIZZN14NetworkManager2onI15SwapEndedPacketQsr3stdE12is_base_of_vI6PacketT_EEEvNS_8functionIFvPS6_EEEbENKUlNS_12basic_stringIcNS_11char_traitsIcEENS_9allocatorIcEEEEE_clESG_EUlvE_NSE_ISI_EEFvvEED0Ev
FUNC 141944 90 0 _ZNKSt6__ndk110__function6__funcIZZN14NetworkManager2onI15SwapEndedPacketQsr3stdE12is_base_of_vI6PacketT_EEEvNS_8functionIFvPS6_EEEbENKUlNS_12basic_stringIcNS_11char_traitsIcEENS_9allocatorIcEEEEE_clESG_EUlvE_NSE_ISI_EEFvvEE7__cloneEv
FUNC 1419d4 78 0 _ZNKSt6__ndk110__function6__funcIZZN14NetworkManager2onI15SwapEndedPacketQsr3stdE12is_base_of_vI6PacketT_EEEvNS_8functionIFvPS6_EEEbENKUlNS_12basic_stringIcNS_11char_traitsIcEENS_9allocatorIcEEEEE_clESG_EUlvE_NSE_ISI_EEFvvEE7__cloneEPNS0_6__baseISK_EE
FUNC 141a4c 38 0 _ZNSt6__ndk110__function6__funcIZZN14NetworkManager2onI15SwapEndedPacketQsr3stdE12is_base_of_vI6PacketT_EEEvNS_8functionIFvPS6_EEEbENKUlNS_12basic_stringIcNS_11char_traitsIcEENS_9allocatorIcEEEEE_clESG_EUlvE_NSE_ISI_EEFvvEE7destroyEv
FUNC 141a84 50 0 _ZNSt6__ndk110__function6__funcIZZN14NetworkManager2onI15SwapEndedPacketQsr3stdE12is_base_of_vI6PacketT_EEEvNS_8functionIFvPS6_EEEbENKUlNS_12basic_stringIcNS_11char_traitsIcEENS_9allocatorIcEEEEE_clESG_EUlvE_NSE_ISI_EEFvvEE18destroy_deallocateEv
FUNC 141ad4 74 0 _ZNSt6__ndk110__function6__funcIZZN14NetworkManager2onI15SwapEndedPacketQsr3stdE12is_base_of_vI6PacketT_EEEvNS_8functionIFvPS6_EEEbENKUlNS_12basic_stringIcNS_11char_traitsIcEENS_9allocatorIcEEEEE_clESG_EUlvE_NSE_ISI_EEFvvEEclEv
FUNC 141b48 1c 0 _ZNKSt6__ndk110__function6__funcIZZN14NetworkManager2onI15SwapEndedPacketQsr3stdE12is_base_of_vI6PacketT_EEEvNS_8functionIFvPS6_EEEbENKUlNS_12basic_stringIcNS_11char_traitsIcEENS_9allocatorIcEEEEE_clESG_EUlvE_NSE_ISI_EEFvvEE6targetERKSt9type_info
FUNC 141b64 c 0 _ZNKSt6__ndk110__function6__funcIZZN14NetworkManager2onI15SwapEndedPacketQsr3stdE12is_base_of_vI6PacketT_EEEvNS_8functionIFvPS6_EEEbENKUlNS_12basic_stringIcNS_11char_traitsIcEENS_9allocatorIcEEEEE_clESG_EUlvE_NSE_ISI_EEFvvEE11target_typeEv
FUNC 141b70 4 0 std::__ndk1::__function::__base<void (SwapEndedPacket*)>::~__base()
FUNC 141b74 4 0 std::__ndk1::__function::__func<SwapManager::registerListeners()::$_3, std::__ndk1::allocator<SwapManager::registerListeners()::$_3>, void (SwapEndedPacket*)>::~__func()
FUNC 141b78 34 0 std::__ndk1::__function::__func<SwapManager::registerListeners()::$_3, std::__ndk1::allocator<SwapManager::registerListeners()::$_3>, void (SwapEndedPacket*)>::__clone() const
FUNC 141bac 14 0 std::__ndk1::__function::__func<SwapManager::registerListeners()::$_3, std::__ndk1::allocator<SwapManager::registerListeners()::$_3>, void (SwapEndedPacket*)>::__clone(std::__ndk1::__function::__base<void (SwapEndedPacket*)>*) const
FUNC 141bc0 4 0 std::__ndk1::__function::__func<SwapManager::registerListeners()::$_3, std::__ndk1::allocator<SwapManager::registerListeners()::$_3>, void (SwapEndedPacket*)>::destroy()
FUNC 141bc4 4 0 std::__ndk1::__function::__func<SwapManager::registerListeners()::$_3, std::__ndk1::allocator<SwapManager::registerListeners()::$_3>, void (SwapEndedPacket*)>::destroy_deallocate()
FUNC 141bc8 19c 0 std::__ndk1::__function::__func<SwapManager::registerListeners()::$_3, std::__ndk1::allocator<SwapManager::registerListeners()::$_3>, void (SwapEndedPacket*)>::operator()(SwapEndedPacket*&&)
FUNC 141d64 1c 0 std::__ndk1::__function::__func<SwapManager::registerListeners()::$_3, std::__ndk1::allocator<SwapManager::registerListeners()::$_3>, void (SwapEndedPacket*)>::target(std::type_info const&) const
FUNC 141d80 c 0 std::__ndk1::__function::__func<SwapManager::registerListeners()::$_3, std::__ndk1::allocator<SwapManager::registerListeners()::$_3>, void (SwapEndedPacket*)>::target_type() const
FUNC 141d8c 60 0 _GLOBAL__sub_I_SwapManager.cpp
FUNC 141dec 400 0 NetworkManager::NetworkManager()
FUNC 1421ec 90 0 std::__ndk1::vector<std::__ndk1::function<void ()>, std::__ndk1::allocator<std::__ndk1::function<void ()> > >::~vector[abi:ne180000]()
FUNC 14227c 8c 0 std::__ndk1::unordered_map<int, std::__ndk1::function<void (std::__ndk1::basic_string<char, std::__ndk1::char_traits<char>, std::__ndk1::allocator<char> >)>, std::__ndk1::hash<int>, std::__ndk1::equal_to<int>, std::__ndk1::allocator<std::__ndk1::pair<int const, std::__ndk1::function<void (std::__ndk1::basic_string<char, std::__ndk1::char_traits<char>, std::__ndk1::allocator<char> >)> > > >::~unordered_map[abi:ne180000]()
FUNC 142308 8b0 0 NetworkManager::update(float)
FUNC 142bb8 6b0 0 NetworkManager::connect(bool, std::__ndk1::function<void ()>)
FUNC 143268 94 0 ix::SocketTLSOptions::~SocketTLSOptions()
FUNC 1432fc 24 0 NetworkManager::~NetworkManager()
FUNC 143320 44 0 _ZNSt6__ndk110__function6__funcIZN14NetworkManager2onI10PongPacketQsr3stdE12is_base_of_vI6PacketT_EEEvNS_8functionIFvPS6_EEEbEUlNS_12basic_stringIcNS_11char_traitsIcEENS_9allocatorIcEEEEE_NSE_ISH_EEFvSG_EED2Ev
FUNC 143364 5c 0 _ZNSt6__ndk110__function6__funcIZN14NetworkManager2onI10PongPacketQsr3stdE12is_base_of_vI6PacketT_EEEvNS_8functionIFvPS6_EEEbEUlNS_12basic_stringIcNS_11char_traitsIcEENS_9allocatorIcEEEEE_NSE_ISH_EEFvSG_EED0Ev
FUNC 1433c0 88 0 _ZNKSt6__ndk110__function6__funcIZN14NetworkManager2onI10PongPacketQsr3stdE12is_base_of_vI6PacketT_EEEvNS_8functionIFvPS6_EEEbEUlNS_12basic_stringIcNS_11char_traitsIcEENS_9allocatorIcEEEEE_NSE_ISH_EEFvSG_EE7__cloneEv
FUNC 143448 74 0 _ZNKSt6__ndk110__function6__funcIZN14NetworkManager2onI10PongPacketQsr3stdE12is_base_of_vI6PacketT_EEEvNS_8functionIFvPS6_EEEbEUlNS_12basic_stringIcNS_11char_traitsIcEENS_9allocatorIcEEEEE_NSE_ISH_EEFvSG_EE7__cloneEPNS0_6__baseISJ_EE
FUNC 1434bc 38 0 _ZNSt6__ndk110__function6__funcIZN14NetworkManager2onI10PongPacketQsr3stdE12is_base_of_vI6PacketT_EEEvNS_8functionIFvPS6_EEEbEUlNS_12basic_stringIcNS_11char_traitsIcEENS_9allocatorIcEEEEE_NSE_ISH_EEFvSG_EE7destroyEv
FUNC 1434f4 50 0 _ZNSt6__ndk110__function6__funcIZN14NetworkManager2onI10PongPacketQsr3stdE12is_base_of_vI6PacketT_EEEvNS_8functionIFvPS6_EEEbEUlNS_12basic_stringIcNS_11char_traitsIcEENS_9allocatorIcEEEEE_NSE_ISH_EEFvSG_EE18destroy_deallocateEv
FUNC 143544 3bc 0 _ZNSt6__ndk110__function6__funcIZN14NetworkManager2onI10PongPacketQsr3stdE12is_base_of_vI6PacketT_EEEvNS_8functionIFvPS6_EEEbEUlNS_12basic_stringIcNS_11char_traitsIcEENS_9allocatorIcEEEEE_NSE_ISH_EEFvSG_EEclEOSG_
FUNC 143900 1c 0 _ZNKSt6__ndk110__function6__funcIZN14NetworkManager2onI10PongPacketQsr3stdE12is_base_of_vI6PacketT_EEEvNS_8functionIFvPS6_EEEbEUlNS_12basic_stringIcNS_11char_traitsIcEENS_9allocatorIcEEEEE_NSE_ISH_EEFvSG_EE6targetERKSt9type_info
FUNC 14391c c 0 _ZNKSt6__ndk110__function6__funcIZN14NetworkManager2onI10PongPacketQsr3stdE12is_base_of_vI6PacketT_EEEvNS_8functionIFvPS6_EEEbEUlNS_12basic_stringIcNS_11char_traitsIcEENS_9allocatorIcEEEEE_NSE_ISH_EEFvSG_EE11target_typeEv
FUNC 143928 4 0 PongPacket::decode(std::__ndk1::basic_string<char, std::__ndk1::char_traits<char>, std::__ndk1::allocator<char> >)
FUNC 14392c 8 0 PongPacket::getPacketID() const
FUNC 143934 c 0 PongPacket::getPacketName() const
