MODULE Linux arm64 2590A5BBB638AEB0664110FF959A52650 raydeeux.deathscreentweaks.android64.so
INFO CODE_ID BBA5902538B6B0AE664110FF959A5265AF7DE2C2
INFO GENERATOR mozilla/dump_syms 2.3.4
PUBLIC 17210 0 __on_dlclose
PUBLIC 17220 0 __emutls_unregister_key
PUBLIC 17228 0 __on_dlclose_late
PUBLIC 17230 0 __atexit_handler_wrapper
PUBLIC 17244 0 atexit
PUBLIC 17260 0 pthread_atfork
PUBLIC 17270 0 __aarch64_ldadd8_acq_rel
PUBLIC 172a0 0 init_have_lse_atomics
PUBLIC 17338 0 __init_cpu_features_constructor
PUBLIC 178d4 0 __init_cpu_features
PUBLIC 17960 0 __aarch64_ldadd8_relax
PUBLIC 17990 0 geodeExecFunction11<(anonymous namespace)::ExecFuncUnique11>(geode::ModStateEvent*)
PUBLIC 18b3c 0 MyButtonSettingV3::parse(std::__ndk1::basic_string<char, std::__ndk1::char_traits<char>, std::__ndk1::allocator<char> > const&, std::__ndk1::basic_string<char, std::__ndk1::char_traits<char>, std::__ndk1::allocator<char> > const&, matjson::Value const&)
PUBLIC 18ec0 0 geode::impl::ResultData<void, std::__ndk1::basic_string<char, std::__ndk1::char_traits<char>, std::__ndk1::allocator<char> > >::~ResultData()
PUBLIC 18f34 0 addResourceQuotes()
PUBLIC 19054 0 geode::Mod::getSavedValue<bool>(std::__ndk1::basic_string_view<char, std::__ndk1::char_traits<char> >)
PUBLIC m 191e4 0 std::__ndk1::basic_ifstream<char, std::__ndk1::char_traits<char> >::~basic_ifstream()
PUBLIC 19234 0 addQuotes(std::__ndk1::basic_string<char, std::__ndk1::char_traits<char>, std::__ndk1::allocator<char> > const&)
PUBLIC 19fcc 0 __clang_call_terminate
PUBLIC 19fdc 0 std::__ndk1::shared_ptr<geode::SettingV3>::~shared_ptr[abi:ne180000]()
PUBLIC 1a02c 0 std::__ndk1::shared_ptr<MyButtonSettingV3>::~shared_ptr[abi:ne180000]()
PUBLIC 1a07c 0 std::__throw_bad_array_new_length([abi:ne180000], void)
PUBLIC 1a0b0 0 std::__ndk1::__shared_ptr_emplace<MyButtonSettingV3, std::__ndk1::allocator<MyButtonSettingV3> >::~__shared_ptr_emplace()
PUBLIC 1a0c0 0 std::__ndk1::__shared_ptr_emplace<MyButtonSettingV3, std::__ndk1::allocator<MyButtonSettingV3> >::~__shared_ptr_emplace()
PUBLIC 1a0f0 0 std::__ndk1::__shared_ptr_emplace<MyButtonSettingV3, std::__ndk1::allocator<MyButtonSettingV3> >::__on_zero_shared()
PUBLIC 1a0fc 0 std::__ndk1::__shared_ptr_emplace<MyButtonSettingV3, std::__ndk1::allocator<MyButtonSettingV3> >::__on_zero_shared_weak()
PUBLIC 1a100 0 std::__ndk1::__throw_bad_variant_access[abi:ne180000]()
PUBLIC 1a134 0 geode::UnwrapException::~UnwrapException()
PUBLIC 1a158 0 std::__ndk1::basic_string<char, std::__ndk1::char_traits<char>, std::__ndk1::allocator<char> >::__init_copy_ctor_external(char const*, unsigned long)
PUBLIC 1a1d8 0 std::__ndk1::basic_string<char, std::__ndk1::char_traits<char>, std::__ndk1::allocator<char> >::__throw_length_error[abi:ne180000]() const
PUBLIC 1a1ec 0 std::__ndk1::__throw_length_error[abi:ne180000](char const*)
PUBLIC 1a23c 0 std::length_error::length_error[abi:ne180000](char const*)
PUBLIC 1a26c 0 std::__ndk1::__function::__base<geode::Result<std::__ndk1::shared_ptr<geode::SettingV3>, std::__ndk1::basic_string<char, std::__ndk1::char_traits<char>, std::__ndk1::allocator<char> > >(std::__ndk1::basic_string<char, std::__ndk1::char_traits<char>, std::__ndk1::allocator<char> > const&, std::__ndk1::basic_string<char, std::__ndk1::char_traits<char>, std::__ndk1::allocator<char> > const&, matjson::Value const&)>::~__base()
PUBLIC 1a270 0 std::__ndk1::__function::__func<geode::Result<std::__ndk1::shared_ptr<geode::SettingV3>, std::__ndk1::basic_string<char, std::__ndk1::char_traits<char>, std::__ndk1::allocator<char> > > (*)(std::__ndk1::basic_string<char, std::__ndk1::char_traits<char>, std::__ndk1::allocator<char> > const&, std::__ndk1::basic_string<char, std::__ndk1::char_traits<char>, std::__ndk1::allocator<char> > const&, matjson::Value const&), std::__ndk1::allocator<geode::Result<std::__ndk1::shared_ptr<geode::SettingV3>, std::__ndk1::basic_string<char, std::__ndk1::char_traits<char>, std::__ndk1::allocator<char> > > (*)(std::__ndk1::basic_string<char, std::__ndk1::char_traits<char>, std::__ndk1::allocator<char> > const&, std::__ndk1::basic_string<char, std::__ndk1::char_traits<char>, std::__ndk1::allocator<char> > const&, matjson::Value const&)>, geode::Result<std::__ndk1::shared_ptr<geode::SettingV3>, std::__ndk1::basic_string<char, std::__ndk1::char_traits<char>, std::__ndk1::allocator<char> > >(std::__ndk1::basic_string<char, std::__ndk1::char_traits<char>, std::__ndk1::allocator<char> > const&, std::__ndk1::basic_string<char, std::__ndk1::char_traits<char>, std::__ndk1::allocator<char> > const&, matjson::Value const&)>::~__func()
PUBLIC 1a274 0 std::__ndk1::__function::__func<geode::Result<std::__ndk1::shared_ptr<geode::SettingV3>, std::__ndk1::basic_string<char, std::__ndk1::char_traits<char>, std::__ndk1::allocator<char> > > (*)(std::__ndk1::basic_string<char, std::__ndk1::char_traits<char>, std::__ndk1::allocator<char> > const&, std::__ndk1::basic_string<char, std::__ndk1::char_traits<char>, std::__ndk1::allocator<char> > const&, matjson::Value const&), std::__ndk1::allocator<geode::Result<std::__ndk1::shared_ptr<geode::SettingV3>, std::__ndk1::basic_string<char, std::__ndk1::char_traits<char>, std::__ndk1::allocator<char> > > (*)(std::__ndk1::basic_string<char, std::__ndk1::char_traits<char>, std::__ndk1::allocator<char> > const&, std::__ndk1::basic_string<char, std::__ndk1::char_traits<char>, std::__ndk1::allocator<char> > const&, matjson::Value const&)>, geode::Result<std::__ndk1::shared_ptr<geode::SettingV3>, std::__ndk1::basic_string<char, std::__ndk1::char_traits<char>, std::__ndk1::allocator<char> > >(std::__ndk1::basic_string<char, std::__ndk1::char_traits<char>, std::__ndk1::allocator<char> > const&, std::__ndk1::basic_string<char, std::__ndk1::char_traits<char>, std::__ndk1::allocator<char> > const&, matjson::Value const&)>::__clone() const
PUBLIC 1a2a8 0 std::__ndk1::__function::__func<geode::Result<std::__ndk1::shared_ptr<geode::SettingV3>, std::__ndk1::basic_string<char, std::__ndk1::char_traits<char>, std::__ndk1::allocator<char> > > (*)(std::__ndk1::basic_string<char, std::__ndk1::char_traits<char>, std::__ndk1::allocator<char> > const&, std::__ndk1::basic_string<char, std::__ndk1::char_traits<char>, std::__ndk1::allocator<char> > const&, matjson::Value const&), std::__ndk1::allocator<geode::Result<std::__ndk1::shared_ptr<geode::SettingV3>, std::__ndk1::basic_string<char, std::__ndk1::char_traits<char>, std::__ndk1::allocator<char> > > (*)(std::__ndk1::basic_string<char, std::__ndk1::char_traits<char>, std::__ndk1::allocator<char> > const&, std::__ndk1::basic_string<char, std::__ndk1::char_traits<char>, std::__ndk1::allocator<char> > const&, matjson::Value const&)>, geode::Result<std::__ndk1::shared_ptr<geode::SettingV3>, std::__ndk1::basic_string<char, std::__ndk1::char_traits<char>, std::__ndk1::allocator<char> > >(std::__ndk1::basic_string<char, std::__ndk1::char_traits<char>, std::__ndk1::allocator<char> > const&, std::__ndk1::basic_string<char, std::__ndk1::char_traits<char>, std::__ndk1::allocator<char> > const&, matjson::Value const&)>::__clone(std::__ndk1::__function::__base<geode::Result<std::__ndk1::shared_ptr<geode::SettingV3>, std::__ndk1::basic_string<char, std::__ndk1::char_traits<char>, std::__ndk1::allocator<char> > >(std::__ndk1::basic_string<char, std::__ndk1::char_traits<char>, std::__ndk1::allocator<char> > const&, std::__ndk1::basic_string<char, std::__ndk1::char_traits<char>, std::__ndk1::allocator<char> > const&, matjson::Value const&)>*) const
PUBLIC 1a2bc 0 std::__ndk1::__function::__func<geode::Result<std::__ndk1::shared_ptr<geode::SettingV3>, std::__ndk1::basic_string<char, std::__ndk1::char_traits<char>, std::__ndk1::allocator<char> > > (*)(std::__ndk1::basic_string<char, std::__ndk1::char_traits<char>, std::__ndk1::allocator<char> > const&, std::__ndk1::basic_string<char, std::__ndk1::char_traits<char>, std::__ndk1::allocator<char> > const&, matjson::Value const&), std::__ndk1::allocator<geode::Result<std::__ndk1::shared_ptr<geode::SettingV3>, std::__ndk1::basic_string<char, std::__ndk1::char_traits<char>, std::__ndk1::allocator<char> > > (*)(std::__ndk1::basic_string<char, std::__ndk1::char_traits<char>, std::__ndk1::allocator<char> > const&, std::__ndk1::basic_string<char, std::__ndk1::char_traits<char>, std::__ndk1::allocator<char> > const&, matjson::Value const&)>, geode::Result<std::__ndk1::shared_ptr<geode::SettingV3>, std::__ndk1::basic_string<char, std::__ndk1::char_traits<char>, std::__ndk1::allocator<char> > >(std::__ndk1::basic_string<char, std::__ndk1::char_traits<char>, std::__ndk1::allocator<char> > const&, std::__ndk1::basic_string<char, std::__ndk1::char_traits<char>, std::__ndk1::allocator<char> > const&, matjson::Value const&)>::destroy()
PUBLIC 1a2c0 0 std::__ndk1::__function::__func<geode::Result<std::__ndk1::shared_ptr<geode::SettingV3>, std::__ndk1::basic_string<char, std::__ndk1::char_traits<char>, std::__ndk1::allocator<char> > > (*)(std::__ndk1::basic_string<char, std::__ndk1::char_traits<char>, std::__ndk1::allocator<char> > const&, std::__ndk1::basic_string<char, std::__ndk1::char_traits<char>, std::__ndk1::allocator<char> > const&, matjson::Value const&), std::__ndk1::allocator<geode::Result<std::__ndk1::shared_ptr<geode::SettingV3>, std::__ndk1::basic_string<char, std::__ndk1::char_traits<char>, std::__ndk1::allocator<char> > > (*)(std::__ndk1::basic_string<char, std::__ndk1::char_traits<char>, std::__ndk1::allocator<char> > const&, std::__ndk1::basic_string<char, std::__ndk1::char_traits<char>, std::__ndk1::allocator<char> > const&, matjson::Value const&)>, geode::Result<std::__ndk1::shared_ptr<geode::SettingV3>, std::__ndk1::basic_string<char, std::__ndk1::char_traits<char>, std::__ndk1::allocator<char> > >(std::__ndk1::basic_string<char, std::__ndk1::char_traits<char>, std::__ndk1::allocator<char> > const&, std::__ndk1::basic_string<char, std::__ndk1::char_traits<char>, std::__ndk1::allocator<char> > const&, matjson::Value const&)>::destroy_deallocate()
PUBLIC 1a2c4 0 std::__ndk1::__function::__func<geode::Result<std::__ndk1::shared_ptr<geode::SettingV3>, std::__ndk1::basic_string<char, std::__ndk1::char_traits<char>, std::__ndk1::allocator<char> > > (*)(std::__ndk1::basic_string<char, std::__ndk1::char_traits<char>, std::__ndk1::allocator<char> > const&, std::__ndk1::basic_string<char, std::__ndk1::char_traits<char>, std::__ndk1::allocator<char> > const&, matjson::Value const&), std::__ndk1::allocator<geode::Result<std::__ndk1::shared_ptr<geode::SettingV3>, std::__ndk1::basic_string<char, std::__ndk1::char_traits<char>, std::__ndk1::allocator<char> > > (*)(std::__ndk1::basic_string<char, std::__ndk1::char_traits<char>, std::__ndk1::allocator<char> > const&, std::__ndk1::basic_string<char, std::__ndk1::char_traits<char>, std::__ndk1::allocator<char> > const&, matjson::Value const&)>, geode::Result<std::__ndk1::shared_ptr<geode::SettingV3>, std::__ndk1::basic_string<char, std::__ndk1::char_traits<char>, std::__ndk1::allocator<char> > >(std::__ndk1::basic_string<char, std::__ndk1::char_traits<char>, std::__ndk1::allocator<char> > const&, std::__ndk1::basic_string<char, std::__ndk1::char_traits<char>, std::__ndk1::allocator<char> > const&, matjson::Value const&)>::operator()(std::__ndk1::basic_string<char, std::__ndk1::char_traits<char>, std::__ndk1::allocator<char> > const&, std::__ndk1::basic_string<char, std::__ndk1::char_traits<char>, std::__ndk1::allocator<char> > const&, matjson::Value const&)
PUBLIC 1a2d8 0 std::__ndk1::__function::__func<geode::Result<std::__ndk1::shared_ptr<geode::SettingV3>, std::__ndk1::basic_string<char, std::__ndk1::char_traits<char>, std::__ndk1::allocator<char> > > (*)(std::__ndk1::basic_string<char, std::__ndk1::char_traits<char>, std::__ndk1::allocator<char> > const&, std::__ndk1::basic_string<char, std::__ndk1::char_traits<char>, std::__ndk1::allocator<char> > const&, matjson::Value const&), std::__ndk1::allocator<geode::Result<std::__ndk1::shared_ptr<geode::SettingV3>, std::__ndk1::basic_string<char, std::__ndk1::char_traits<char>, std::__ndk1::allocator<char> > > (*)(std::__ndk1::basic_string<char, std::__ndk1::char_traits<char>, std::__ndk1::allocator<char> > const&, std::__ndk1::basic_string<char, std::__ndk1::char_traits<char>, std::__ndk1::allocator<char> > const&, matjson::Value const&)>, geode::Result<std::__ndk1::shared_ptr<geode::SettingV3>, std::__ndk1::basic_string<char, std::__ndk1::char_traits<char>, std::__ndk1::allocator<char> > >(std::__ndk1::basic_string<char, std::__ndk1::char_traits<char>, std::__ndk1::allocator<char> > const&, std::__ndk1::basic_string<char, std::__ndk1::char_traits<char>, std::__ndk1::allocator<char> > const&, matjson::Value const&)>::target(std::type_info const&) const
PUBLIC 1a2f4 0 std::__ndk1::__function::__func<geode::Result<std::__ndk1::shared_ptr<geode::SettingV3>, std::__ndk1::basic_string<char, std::__ndk1::char_traits<char>, std::__ndk1::allocator<char> > > (*)(std::__ndk1::basic_string<char, std::__ndk1::char_traits<char>, std::__ndk1::allocator<char> > const&, std::__ndk1::basic_string<char, std::__ndk1::char_traits<char>, std::__ndk1::allocator<char> > const&, matjson::Value const&), std::__ndk1::allocator<geode::Result<std::__ndk1::shared_ptr<geode::SettingV3>, std::__ndk1::basic_string<char, std::__ndk1::char_traits<char>, std::__ndk1::allocator<char> > > (*)(std::__ndk1::basic_string<char, std::__ndk1::char_traits<char>, std::__ndk1::allocator<char> > const&, std::__ndk1::basic_string<char, std::__ndk1::char_traits<char>, std::__ndk1::allocator<char> > const&, matjson::Value const&)>, geode::Result<std::__ndk1::shared_ptr<geode::SettingV3>, std::__ndk1::basic_string<char, std::__ndk1::char_traits<char>, std::__ndk1::allocator<char> > >(std::__ndk1::basic_string<char, std::__ndk1::char_traits<char>, std::__ndk1::allocator<char> > const&, std::__ndk1::basic_string<char, std::__ndk1::char_traits<char>, std::__ndk1::allocator<char> > const&, matjson::Value const&)>::target_type() const
PUBLIC 1a300 0 std::__ndk1::__variant_detail::__visitation::__base::__dispatcher<(unsigned long)0>::__dispatch[abi:ne180000]<std::__ndk1::__variant_detail::__dtor<std::__ndk1::__variant_detail::__traits<std::__ndk1::monostate, std::__ndk1::basic_string<char, std::__ndk1::char_traits<char>, std::__ndk1::allocator<char> > >, (std::__ndk1::__variant_detail::_Trait)1>::__destroy[abi:ne180000]()::{lambda(auto:1&)#1}, std::__ndk1::__variant_detail::__base<(std::__ndk1::__variant_detail::__traits<std::__ndk1::monostate, std::__ndk1::basic_string<char, std::__ndk1::char_traits<char>, std::__ndk1::allocator<char> > >)1, std::__ndk1::__variant_detail::__traits, std::__ndk1::allocator<char> >&>(std::__ndk1::__variant_detail::__dtor<std::__ndk1::__variant_detail::__traits<std::__ndk1::monostate, std::__ndk1::basic_string<char, std::__ndk1::char_traits<char>, std::__ndk1::allocator<char> > >, (std::__ndk1::__variant_detail::_Trait)1>, std::__ndk1::__variant_detail::__base<(std::__ndk1::__variant_detail::__traits<std::__ndk1::monostate, std::__ndk1::basic_string<char, std::__ndk1::char_traits<char>, std::__ndk1::allocator<char> > >)1, std::__ndk1::__variant_detail::__traits, std::__ndk1::allocator<char> >&)
PUBLIC 1a304 0 std::__ndk1::__variant_detail::__visitation::__base::__dispatcher<(unsigned long)1>::__dispatch[abi:ne180000]<std::__ndk1::__variant_detail::__dtor<std::__ndk1::__variant_detail::__traits<std::__ndk1::monostate, std::__ndk1::basic_string<char, std::__ndk1::char_traits<char>, std::__ndk1::allocator<char> > >, (std::__ndk1::__variant_detail::_Trait)1>::__destroy[abi:ne180000]()::{lambda(auto:1&)#1}, std::__ndk1::__variant_detail::__base<(std::__ndk1::__variant_detail::__traits<std::__ndk1::monostate, std::__ndk1::basic_string<char, std::__ndk1::char_traits<char>, std::__ndk1::allocator<char> > >)1, std::__ndk1::__variant_detail::__traits, std::__ndk1::allocator<char> >&>(std::__ndk1::__variant_detail::__dtor<std::__ndk1::__variant_detail::__traits<std::__ndk1::monostate, std::__ndk1::basic_string<char, std::__ndk1::char_traits<char>, std::__ndk1::allocator<char> > >, (std::__ndk1::__variant_detail::_Trait)1>, std::__ndk1::__variant_detail::__base<(std::__ndk1::__variant_detail::__traits<std::__ndk1::monostate, std::__ndk1::basic_string<char, std::__ndk1::char_traits<char>, std::__ndk1::allocator<char> > >)1, std::__ndk1::__variant_detail::__traits, std::__ndk1::allocator<char> >&)
PUBLIC 1a318 0 std::__ndk1::__fs::filesystem::path::operator/=[abi:ne180000](std::__ndk1::__fs::filesystem::path const&)
PUBLIC 1a400 0 std::__ndk1::basic_string<char, std::__ndk1::char_traits<char>, std::__ndk1::allocator<char> >::__assign_no_alias<true>(char const*, unsigned long)
PUBLIC 1a4ac 0 std::__ndk1::basic_string<char, std::__ndk1::char_traits<char>, std::__ndk1::allocator<char> >::__assign_no_alias<false>(char const*, unsigned long)
PUBLIC 1a5bc 0 _ZNSt6__ndk112basic_stringIcNS_11char_traitsIcEENS_9allocatorIcEEE6appendB8ne180000IPKcTnNS_9enable_ifIXsr31__has_forward_iterator_categoryIT_EE5valueEiE4typeELi0EEERS5_SA_SA_
PUBLIC 1a8c0 0 geode::impl::ResultData<matjson::Value&, std::__ndk1::basic_string<char, std::__ndk1::char_traits<char>, std::__ndk1::allocator<char> > >::~ResultData()
PUBLIC 1a934 0 std::__ndk1::__variant_detail::__visitation::__base::__dispatcher<(unsigned long)0>::__dispatch[abi:ne180000]<std::__ndk1::__variant_detail::__dtor<std::__ndk1::__variant_detail::__traits<std::__ndk1::reference_wrapper<matjson::Value>, std::__ndk1::basic_string<char, std::__ndk1::char_traits<char>, std::__ndk1::allocator<char> > >, (std::__ndk1::__variant_detail::_Trait)1>::__destroy[abi:ne180000]()::{lambda(auto:1&)#1}, std::__ndk1::__variant_detail::__base<(std::__ndk1::__variant_detail::__traits<std::__ndk1::reference_wrapper<matjson::Value>, std::__ndk1::basic_string<char, std::__ndk1::char_traits<char>, std::__ndk1::allocator<char> > >)1, matjson::Value, std::__ndk1::allocator<char> >&>(std::__ndk1::__variant_detail::__dtor<std::__ndk1::__variant_detail::__traits<std::__ndk1::reference_wrapper<matjson::Value>, std::__ndk1::basic_string<char, std::__ndk1::char_traits<char>, std::__ndk1::allocator<char> > >, (std::__ndk1::__variant_detail::_Trait)1>, std::__ndk1::__variant_detail::__base<(std::__ndk1::__variant_detail::__traits<std::__ndk1::reference_wrapper<matjson::Value>, std::__ndk1::basic_string<char, std::__ndk1::char_traits<char>, std::__ndk1::allocator<char> > >)1, matjson::Value, std::__ndk1::allocator<char> >&)
PUBLIC 1a938 0 std::__ndk1::__variant_detail::__visitation::__base::__dispatcher<(unsigned long)1>::__dispatch[abi:ne180000]<std::__ndk1::__variant_detail::__dtor<std::__ndk1::__variant_detail::__traits<std::__ndk1::reference_wrapper<matjson::Value>, std::__ndk1::basic_string<char, std::__ndk1::char_traits<char>, std::__ndk1::allocator<char> > >, (std::__ndk1::__variant_detail::_Trait)1>::__destroy[abi:ne180000]()::{lambda(auto:1&)#1}, std::__ndk1::__variant_detail::__base<(std::__ndk1::__variant_detail::__traits<std::__ndk1::reference_wrapper<matjson::Value>, std::__ndk1::basic_string<char, std::__ndk1::char_traits<char>, std::__ndk1::allocator<char> > >)1, matjson::Value, std::__ndk1::allocator<char> >&>(std::__ndk1::__variant_detail::__dtor<std::__ndk1::__variant_detail::__traits<std::__ndk1::reference_wrapper<matjson::Value>, std::__ndk1::basic_string<char, std::__ndk1::char_traits<char>, std::__ndk1::allocator<char> > >, (std::__ndk1::__variant_detail::_Trait)1>, std::__ndk1::__variant_detail::__base<(std::__ndk1::__variant_detail::__traits<std::__ndk1::reference_wrapper<matjson::Value>, std::__ndk1::basic_string<char, std::__ndk1::char_traits<char>, std::__ndk1::allocator<char> > >)1, matjson::Value, std::__ndk1::allocator<char> >&)
PUBLIC 1a94c 0 std::__ndk1::__variant_detail::__visitation::__base::__dispatcher<(unsigned long)0>::__dispatch[abi:ne180000]<std::__ndk1::__variant_detail::__dtor<std::__ndk1::__variant_detail::__traits<bool, std::__ndk1::basic_string<char, std::__ndk1::char_traits<char>, std::__ndk1::allocator<char> > >, (std::__ndk1::__variant_detail::_Trait)1>::__destroy[abi:ne180000]()::{lambda(auto:1&)#1}, std::__ndk1::__variant_detail::__base<(std::__ndk1::__variant_detail::__traits<bool, std::__ndk1::basic_string<char, std::__ndk1::char_traits<char>, std::__ndk1::allocator<char> > >)1, bool, std::__ndk1::allocator<char> >&>(std::__ndk1::__variant_detail::__dtor<std::__ndk1::__variant_detail::__traits<bool, std::__ndk1::basic_string<char, std::__ndk1::char_traits<char>, std::__ndk1::allocator<char> > >, (std::__ndk1::__variant_detail::_Trait)1>, std::__ndk1::__variant_detail::__base<(std::__ndk1::__variant_detail::__traits<bool, std::__ndk1::basic_string<char, std::__ndk1::char_traits<char>, std::__ndk1::allocator<char> > >)1, bool, std::__ndk1::allocator<char> >&)
PUBLIC 1a950 0 std::__ndk1::__variant_detail::__visitation::__base::__dispatcher<(unsigned long)1>::__dispatch[abi:ne180000]<std::__ndk1::__variant_detail::__dtor<std::__ndk1::__variant_detail::__traits<bool, std::__ndk1::basic_string<char, std::__ndk1::char_traits<char>, std::__ndk1::allocator<char> > >, (std::__ndk1::__variant_detail::_Trait)1>::__destroy[abi:ne180000]()::{lambda(auto:1&)#1}, std::__ndk1::__variant_detail::__base<(std::__ndk1::__variant_detail::__traits<bool, std::__ndk1::basic_string<char, std::__ndk1::char_traits<char>, std::__ndk1::allocator<char> > >)1, bool, std::__ndk1::allocator<char> >&>(std::__ndk1::__variant_detail::__dtor<std::__ndk1::__variant_detail::__traits<bool, std::__ndk1::basic_string<char, std::__ndk1::char_traits<char>, std::__ndk1::allocator<char> > >, (std::__ndk1::__variant_detail::_Trait)1>, std::__ndk1::__variant_detail::__base<(std::__ndk1::__variant_detail::__traits<bool, std::__ndk1::basic_string<char, std::__ndk1::char_traits<char>, std::__ndk1::allocator<char> > >)1, bool, std::__ndk1::allocator<char> >&)
PUBLIC 1a964 0 std::__ndk1::basic_ifstream<char, std::__ndk1::char_traits<char> >::basic_ifstream(char const*, unsigned int)
PUBLIC 1aa78 0 std::__ndk1::getline[abi:ne180000]<char, std::__ndk1::char_traits<char>, std::__ndk1::allocator<char> >(std::__ndk1::basic_istream<char, std::__ndk1::char_traits<char> >, std::__ndk1::basic_string<std::__ndk1::basic_istream, char, std::__ndk1::allocator<char> >&, std::__ndk1::basic_istream)
PUBLIC 1ac2c 0 std::__ndk1::basic_regex<char, std::__ndk1::regex_traits<char> >::basic_regex[abi:ne180000](char const*, std::__ndk1::regex_constants::syntax_option_type)
PUBLIC 1acf0 0 std::__ndk1::shared_ptr<std::__ndk1::__empty_state<char> >::~shared_ptr[abi:ne180000]()
PUBLIC 1ad40 0 std::__ndk1::basic_regex<char, std::__ndk1::regex_traits<char> >::__parse<char const*>(char const*, char const*)
PUBLIC 1b198 0 std::__ndk1::__throw_regex_error[abi:ne180000]<(std::__ndk1::regex_constants::error_type)17>()
PUBLIC 1b1e4 0 std::__ndk1::basic_regex<char, std::__ndk1::regex_traits<char> >::__parse_ecma_exp<char const*>(char const*, char const*)
PUBLIC 1b450 0 std::__ndk1::basic_regex<char, std::__ndk1::regex_traits<char> >::__parse_basic_reg_exp<char const*>(char const*, char const*)
PUBLIC 1b5f8 0 std::__ndk1::basic_regex<char, std::__ndk1::regex_traits<char> >::__parse_extended_reg_exp<char const*>(char const*, char const*)
PUBLIC 1b768 0 std::__ndk1::basic_regex<char, std::__ndk1::regex_traits<char> >::__parse_grep<char const*>(char const*, char const*)
PUBLIC 1b924 0 std::__ndk1::basic_regex<char, std::__ndk1::regex_traits<char> >::__parse_egrep<char const*>(char const*, char const*)
PUBLIC 1bae0 0 std::__ndk1::__throw_regex_error[abi:ne180000]<(std::__ndk1::regex_constants::error_type)14>()
PUBLIC 1bb2c 0 std::__ndk1::__end_state<char>::~__end_state()
PUBLIC 1bb30 0 std::__ndk1::__end_state<char>::__exec(std::__ndk1::__state<char>&) const
PUBLIC 1bb3c 0 std::__ndk1::__node<char>::__exec_split(bool, std::__ndk1::__state<char>&) const
PUBLIC 1bb40 0 std::__ndk1::__node<char>::__exec(std::__ndk1::__state<char>&) const
PUBLIC 1bb44 0 std::__ndk1::__shared_ptr_pointer<std::__ndk1::__empty_state<char>*, std::__ndk1::shared_ptr<std::__ndk1::__empty_state<char> >::__shared_ptr_default_delete<std::__ndk1::__empty_state<char>, std::__ndk1::__empty_state<char> >, std::__ndk1::allocator<std::__ndk1::__empty_state<char> > >::~__shared_ptr_pointer()
PUBLIC 1bb68 0 std::__ndk1::__shared_ptr_pointer<std::__ndk1::__empty_state<char>*, std::__ndk1::shared_ptr<std::__ndk1::__empty_state<char> >::__shared_ptr_default_delete<std::__ndk1::__empty_state<char>, std::__ndk1::__empty_state<char> >, std::__ndk1::allocator<std::__ndk1::__empty_state<char> > >::__on_zero_shared()
PUBLIC 1bb80 0 std::__ndk1::__shared_ptr_pointer<std::__ndk1::__empty_state<char>*, std::__ndk1::shared_ptr<std::__ndk1::__empty_state<char> >::__shared_ptr_default_delete<std::__ndk1::__empty_state<char>, std::__ndk1::__empty_state<char> >, std::__ndk1::allocator<std::__ndk1::__empty_state<char> > >::__get_deleter(std::type_info const&) const
PUBLIC 1bb9c 0 std::__ndk1::__shared_ptr_pointer<std::__ndk1::__empty_state<char>*, std::__ndk1::shared_ptr<std::__ndk1::__empty_state<char> >::__shared_ptr_default_delete<std::__ndk1::__empty_state<char>, std::__ndk1::__empty_state<char> >, std::__ndk1::allocator<std::__ndk1::__empty_state<char> > >::__on_zero_shared_weak()
PUBLIC 1bba0 0 std::__ndk1::__empty_state<char>::~__empty_state()
PUBLIC 1bbe8 0 std::__ndk1::__empty_state<char>::__exec(std::__ndk1::__state<char>&) const
PUBLIC 1bbfc 0 std::__ndk1::__owns_one_state<char>::~__owns_one_state()
PUBLIC 1bc44 0 std::__ndk1::basic_regex<char, std::__ndk1::regex_traits<char> >::__parse_assertion<char const*>(char const*, char const*)
PUBLIC 1bfa8 0 std::__ndk1::basic_regex<char, std::__ndk1::regex_traits<char> >::__parse_atom<char const*>(char const*, char const*)
PUBLIC 1c208 0 std::__ndk1::basic_regex<char, std::__ndk1::regex_traits<char> >::__parse_ERE_dupl_symbol<char const*>(char const*, char const*, std::__ndk1::__owns_one_state<char>*, unsigned int, unsigned int)
PUBLIC 1c5fc 0 std::__ndk1::basic_regex<char, std::__ndk1::regex_traits<char> >::basic_regex[abi:ne180000]()
PUBLIC 1c668 0 std::__ndk1::basic_regex<char, std::__ndk1::regex_traits<char> >::__push_lookahead(std::__ndk1::basic_regex<char, std::__ndk1::regex_traits<char> > const&, bool, unsigned int)
PUBLIC 1c71c 0 std::__ndk1::__throw_regex_error[abi:ne180000]<(std::__ndk1::regex_constants::error_type)6>()
PUBLIC 1c768 0 std::__ndk1::basic_regex<char, std::__ndk1::regex_traits<char> >::~basic_regex()
PUBLIC 1c7c8 0 std::__ndk1::__l_anchor_multiline<char>::~__l_anchor_multiline()
PUBLIC 1c810 0 std::__ndk1::__l_anchor_multiline<char>::__exec(std::__ndk1::__state<char>&) const
PUBLIC 1c874 0 std::__ndk1::__r_anchor_multiline<char>::~__r_anchor_multiline()
PUBLIC 1c8bc 0 std::__ndk1::__r_anchor_multiline<char>::__exec(std::__ndk1::__state<char>&) const
PUBLIC 1c910 0 std::__ndk1::__word_boundary<char, std::__ndk1::regex_traits<char> >::~__word_boundary()
PUBLIC 1c96c 0 std::__ndk1::__word_boundary<char, std::__ndk1::regex_traits<char> >::~__word_boundary()
PUBLIC 1c9c4 0 std::__ndk1::__word_boundary<char, std::__ndk1::regex_traits<char> >::__exec(std::__ndk1::__state<char>&) const
PUBLIC 1cad4 0 std::__ndk1::__lookahead<char, std::__ndk1::regex_traits<char> >::~__lookahead()
PUBLIC 1cb64 0 std::__ndk1::__lookahead<char, std::__ndk1::regex_traits<char> >::~__lookahead()
PUBLIC 1cbf0 0 std::__ndk1::__lookahead<char, std::__ndk1::regex_traits<char> >::__exec(std::__ndk1::__state<char>&) const
PUBLIC 1cdac 0 std::__ndk1::basic_regex<char, std::__ndk1::regex_traits<char> >::__match_at_start_ecma<std::__ndk1::allocator<std::__ndk1::sub_match<char const*> > >(char const*, char const*, std::__ndk1::match_results<char const*, std::__ndk1::allocator<std::__ndk1::sub_match<char const*> > >&, std::__ndk1::regex_constants::match_flag_type, bool) const
PUBLIC 1d220 0 std::__ndk1::vector<std::__ndk1::sub_match<char const*>, std::__ndk1::allocator<std::__ndk1::sub_match<char const*> > >::assign(unsigned long, std::__ndk1::sub_match<char const*> const&)
PUBLIC 1d3f4 0 std::__ndk1::vector<std::__ndk1::sub_match<char const*>, std::__ndk1::allocator<std::__ndk1::sub_match<char const*> > >::__throw_length_error[abi:ne180000]() const
PUBLIC 1d408 0 std::__ndk1::__state<char>::~__state()
PUBLIC 1d44c 0 std::__ndk1::__throw_regex_error[abi:ne180000]<(std::__ndk1::regex_constants::error_type)12>()
PUBLIC 1d498 0 std::__ndk1::__state<char>::__state(std::__ndk1::__state<char> const&)
PUBLIC 1d610 0 std::__ndk1::__throw_regex_error[abi:ne180000]<(std::__ndk1::regex_constants::error_type)16>()
PUBLIC 1d65c 0 std::__ndk1::vector<std::__ndk1::__state<char>, std::__ndk1::allocator<std::__ndk1::__state<char> > >::~vector[abi:ne180000]()
PUBLIC 1d6f4 0 std::__ndk1::vector<std::__ndk1::__state<char>, std::__ndk1::allocator<std::__ndk1::__state<char> > >::__push_back_slow_path<std::__ndk1::__state<char> >(std::__ndk1::__state<char>&&)
PUBLIC 1d8d4 0 std::__ndk1::vector<std::__ndk1::__state<char>, std::__ndk1::allocator<std::__ndk1::__state<char> > >::__throw_length_error[abi:ne180000]() const
PUBLIC 1d8e8 0 std::__ndk1::vector<std::__ndk1::sub_match<char const*>, std::__ndk1::allocator<std::__ndk1::sub_match<char const*> > >::__append(unsigned long, std::__ndk1::sub_match<char const*> const&)
PUBLIC 1da90 0 std::__ndk1::vector<std::__ndk1::pair<unsigned long, char const*>, std::__ndk1::allocator<std::__ndk1::pair<unsigned long, char const*> > >::__append(unsigned long)
PUBLIC 1dbc0 0 std::__ndk1::vector<std::__ndk1::pair<unsigned long, char const*>, std::__ndk1::allocator<std::__ndk1::pair<unsigned long, char const*> > >::__throw_length_error[abi:ne180000]() const
PUBLIC 1dbd4 0 std::__ndk1::basic_regex<char, std::__ndk1::regex_traits<char> >::__parse_atom_escape<char const*>(char const*, char const*)
PUBLIC 1dd60 0 std::__ndk1::basic_regex<char, std::__ndk1::regex_traits<char> >::__parse_bracket_expression<char const*>(char const*, char const*)
PUBLIC 1deb4 0 std::__ndk1::__throw_regex_error[abi:ne180000]<(std::__ndk1::regex_constants::error_type)11>()
PUBLIC 1df00 0 std::__ndk1::basic_regex<char, std::__ndk1::regex_traits<char> >::__parse_pattern_character<char const*>(char const*, char const*)
PUBLIC 1df78 0 std::__ndk1::__match_any_but_newline<char>::~__match_any_but_newline()
PUBLIC 1dfc0 0 std::__ndk1::__throw_regex_error[abi:ne180000]<(std::__ndk1::regex_constants::error_type)3>()
PUBLIC 1e00c 0 std::__ndk1::basic_regex<char, std::__ndk1::regex_traits<char> >::__parse_character_class_escape<char const*>(char const*, char const*)
PUBLIC 1e260 0 std::__ndk1::basic_regex<char, std::__ndk1::regex_traits<char> >::__parse_character_escape<char const*>(char const*, char const*, std::__ndk1::basic_string<char, std::__ndk1::char_traits<char>, std::__ndk1::allocator<char> >*)
PUBLIC 1e76c 0 std::__ndk1::basic_regex<char, std::__ndk1::regex_traits<char> >::__push_char(char)
PUBLIC 1e8ac 0 std::__ndk1::__throw_regex_error[abi:ne180000]<(std::__ndk1::regex_constants::error_type)4>()
PUBLIC 1e8f8 0 std::__ndk1::basic_regex<char, std::__ndk1::regex_traits<char> >::__push_back_ref(int)
PUBLIC 1e9c0 0 std::__ndk1::__match_char_icase<char, std::__ndk1::regex_traits<char> >::~__match_char_icase()
PUBLIC 1ea1c 0 std::__ndk1::__match_char_icase<char, std::__ndk1::regex_traits<char> >::~__match_char_icase()
PUBLIC 1ea74 0 std::__ndk1::__match_char_icase<char, std::__ndk1::regex_traits<char> >::__exec(std::__ndk1::__state<char>&) const
PUBLIC 1eaf4 0 std::__ndk1::__match_char_collate<char, std::__ndk1::regex_traits<char> >::~__match_char_collate()
PUBLIC 1eb50 0 std::__ndk1::__match_char_collate<char, std::__ndk1::regex_traits<char> >::~__match_char_collate()
PUBLIC 1eba8 0 std::__ndk1::__match_char_collate<char, std::__ndk1::regex_traits<char> >::__exec(std::__ndk1::__state<char>&) const
PUBLIC 1ebf0 0 std::__ndk1::__match_char<char>::~__match_char()
PUBLIC 1ec38 0 std::__ndk1::__match_char<char>::__exec(std::__ndk1::__state<char>&) const
PUBLIC 1ec80 0 std::__ndk1::__back_ref_icase<char, std::__ndk1::regex_traits<char> >::~__back_ref_icase()
PUBLIC 1ecdc 0 std::__ndk1::__back_ref_icase<char, std::__ndk1::regex_traits<char> >::~__back_ref_icase()
PUBLIC 1ed34 0 std::__ndk1::__back_ref_icase<char, std::__ndk1::regex_traits<char> >::__exec(std::__ndk1::__state<char>&) const
PUBLIC 1ee2c 0 std::__ndk1::__back_ref_collate<char, std::__ndk1::regex_traits<char> >::~__back_ref_collate()
PUBLIC 1ee88 0 std::__ndk1::__back_ref_collate<char, std::__ndk1::regex_traits<char> >::~__back_ref_collate()
PUBLIC 1eee0 0 std::__ndk1::__back_ref_collate<char, std::__ndk1::regex_traits<char> >::__exec(std::__ndk1::__state<char>&) const
PUBLIC 1ef70 0 std::__ndk1::__back_ref<char>::~__back_ref()
PUBLIC 1efb8 0 std::__ndk1::__back_ref<char>::__exec(std::__ndk1::__state<char>&) const
PUBLIC 1f088 0 std::__ndk1::__bracket_expression<char, std::__ndk1::regex_traits<char> >::__add_char[abi:ne180000](char)
PUBLIC 1f53c 0 std::__ndk1::__bracket_expression<char, std::__ndk1::regex_traits<char> >::__bracket_expression[abi:ne180000](std::__ndk1::regex_traits<char> const&, std::__ndk1::__node<char>*, bool, bool, bool)
PUBLIC 1f718 0 std::__ndk1::vector<std::__ndk1::basic_string<char, std::__ndk1::char_traits<char>, std::__ndk1::allocator<char> >, std::__ndk1::allocator<std::__ndk1::basic_string<char, std::__ndk1::char_traits<char>, std::__ndk1::allocator<char> > > >::~vector[abi:ne180000]()
PUBLIC 1f794 0 std::__ndk1::vector<std::__ndk1::pair<std::__ndk1::basic_string<char, std::__ndk1::char_traits<char>, std::__ndk1::allocator<char> >, std::__ndk1::basic_string<char, std::__ndk1::char_traits<char>, std::__ndk1::allocator<char> > >, std::__ndk1::allocator<std::__ndk1::pair<std::__ndk1::basic_string<char, std::__ndk1::char_traits<char>, std::__ndk1::allocator<char> >, std::__ndk1::basic_string<char, std::__ndk1::char_traits<char>, std::__ndk1::allocator<char> > > > >::~vector[abi:ne180000]()
PUBLIC 1f838 0 std::__ndk1::__bracket_expression<char, std::__ndk1::regex_traits<char> >::~__bracket_expression()
PUBLIC 1f984 0 std::__ndk1::__bracket_expression<char, std::__ndk1::regex_traits<char> >::~__bracket_expression()
PUBLIC 1f9a8 0 std::__ndk1::__bracket_expression<char, std::__ndk1::regex_traits<char> >::__exec(std::__ndk1::__state<char>&) const
PUBLIC 204a0 0 std::__ndk1::pair<std::__ndk1::basic_string<char, std::__ndk1::char_traits<char>, std::__ndk1::allocator<char> >, std::__ndk1::basic_string<char, std::__ndk1::char_traits<char>, std::__ndk1::allocator<char> > >::~pair()
PUBLIC 204e4 0 std::__ndk1::regex_traits<char>::__lookup_collatename<char*>(char*, char*, char) const
PUBLIC 20798 0 std::__ndk1::regex_traits<char>::__transform_primary<char*>(char*, char*, char) const
PUBLIC 2095c 0 std::__ndk1::vector<char, std::__ndk1::allocator<char> >::__throw_length_error[abi:ne180000]() const
PUBLIC 20970 0 std::__ndk1::__throw_regex_error[abi:ne180000]<(std::__ndk1::regex_constants::error_type)5>()
PUBLIC 209bc 0 std::__ndk1::basic_regex<char, std::__ndk1::regex_traits<char> >::__parse_expression_term<char const*>(char const*, char const*, std::__ndk1::__bracket_expression<char, std::__ndk1::regex_traits<char> >*)
PUBLIC 20f84 0 std::__ndk1::basic_regex<char, std::__ndk1::regex_traits<char> >::__parse_equivalence_class<char const*>(char const*, char const*, std::__ndk1::__bracket_expression<char, std::__ndk1::regex_traits<char> >*)
PUBLIC 21264 0 std::__ndk1::basic_regex<char, std::__ndk1::regex_traits<char> >::__parse_collating_symbol<char const*>(char const*, char const*, std::__ndk1::basic_string<char, std::__ndk1::char_traits<char>, std::__ndk1::allocator<char> >&)
PUBLIC 21390 0 std::__ndk1::basic_regex<char, std::__ndk1::regex_traits<char> >::__parse_class_escape<char const*>(char const*, char const*, std::__ndk1::basic_string<char, std::__ndk1::char_traits<char>, std::__ndk1::allocator<char> >&, std::__ndk1::__bracket_expression<char, std::__ndk1::regex_traits<char> >*)
PUBLIC 21564 0 std::__ndk1::basic_regex<char, std::__ndk1::regex_traits<char> >::__parse_awk_escape<char const*>(char const*, char const*, std::__ndk1::basic_string<char, std::__ndk1::char_traits<char>, std::__ndk1::allocator<char> >*)
PUBLIC 21a28 0 std::__ndk1::__bracket_expression<char, std::__ndk1::regex_traits<char> >::__add_range[abi:ne180000](std::__ndk1::basic_string<char, std::__ndk1::char_traits<char>, std::__ndk1::allocator<char> >, std::__ndk1::allocator<char>)
PUBLIC 21ec8 0 std::__ndk1::__bracket_expression<char, std::__ndk1::regex_traits<char> >::__add_digraph[abi:ne180000](char, char)
PUBLIC 222ec 0 std::__ndk1::__throw_regex_error[abi:ne180000]<(std::__ndk1::regex_constants::error_type)1>()
PUBLIC 22338 0 std::__ndk1::regex_traits<char>::__lookup_collatename<char const*>(char const*, char const*, char) const
PUBLIC 225ec 0 std::__ndk1::regex_traits<char>::__transform_primary<std::__ndk1::__wrap_iter<char*> >(std::__ndk1::__wrap_iter<char*>, std::__ndk1::__wrap_iter<char*>, char) const
PUBLIC 22804 0 std::__ndk1::__throw_regex_error[abi:ne180000]<(std::__ndk1::regex_constants::error_type)2>()
PUBLIC 22850 0 std::__ndk1::regex_traits<char>::__lookup_classname<char const*>(char const*, char const*, bool, char) const
PUBLIC 229d0 0 std::__ndk1::__bracket_expression<char, std::__ndk1::regex_traits<char> >::__add_neg_char[abi:ne180000](char)
PUBLIC 22e84 0 std::__ndk1::regex_traits<char>::transform<std::__ndk1::__wrap_iter<char*> >(std::__ndk1::__wrap_iter<char*>, std::__ndk1::__wrap_iter<char*>) const
PUBLIC 23038 0 std::__ndk1::__throw_regex_error[abi:ne180000]<(std::__ndk1::regex_constants::error_type)9>()
PUBLIC 23084 0 std::__ndk1::vector<std::__ndk1::pair<std::__ndk1::basic_string<char, std::__ndk1::char_traits<char>, std::__ndk1::allocator<char> >, std::__ndk1::basic_string<char, std::__ndk1::char_traits<char>, std::__ndk1::allocator<char> > >, std::__ndk1::allocator<std::__ndk1::pair<std::__ndk1::basic_string<char, std::__ndk1::char_traits<char>, std::__ndk1::allocator<char> >, std::__ndk1::basic_string<char, std::__ndk1::char_traits<char>, std::__ndk1::allocator<char> > > > >::__push_back_slow_path<std::__ndk1::pair<std::__ndk1::basic_string<char, std::__ndk1::char_traits<char>, std::__ndk1::allocator<char> >, std::__ndk1::basic_string<char, std::__ndk1::char_traits<char>, std::__ndk1::allocator<char> > > >(std::__ndk1::pair<std::__ndk1::basic_string<char, std::__ndk1::char_traits<char>, std::__ndk1::allocator<char> >, std::__ndk1::basic_string<char, std::__ndk1::char_traits<char>, std::__ndk1::allocator<char> > >&&)
PUBLIC 23230 0 std::__ndk1::vector<std::__ndk1::pair<std::__ndk1::basic_string<char, std::__ndk1::char_traits<char>, std::__ndk1::allocator<char> >, std::__ndk1::basic_string<char, std::__ndk1::char_traits<char>, std::__ndk1::allocator<char> > >, std::__ndk1::allocator<std::__ndk1::pair<std::__ndk1::basic_string<char, std::__ndk1::char_traits<char>, std::__ndk1::allocator<char> >, std::__ndk1::basic_string<char, std::__ndk1::char_traits<char>, std::__ndk1::allocator<char> > > > >::__throw_length_error[abi:ne180000]() const
PUBLIC 23244 0 std::__ndk1::vector<std::__ndk1::pair<char, char>, std::__ndk1::allocator<std::__ndk1::pair<char, char> > >::__throw_length_error[abi:ne180000]() const
PUBLIC 23258 0 std::__ndk1::__begin_marked_subexpression<char>::~__begin_marked_subexpression()
PUBLIC 232a0 0 std::__ndk1::__begin_marked_subexpression<char>::__exec(std::__ndk1::__state<char>&) const
PUBLIC 232d0 0 std::__ndk1::__end_marked_subexpression<char>::~__end_marked_subexpression()
PUBLIC 23318 0 std::__ndk1::__end_marked_subexpression<char>::__exec(std::__ndk1::__state<char>&) const
PUBLIC 23350 0 std::__ndk1::basic_regex<char, std::__ndk1::regex_traits<char> >::__push_loop(unsigned long, unsigned long, std::__ndk1::__owns_one_state<char>*, unsigned long, unsigned long, bool)
PUBLIC 23490 0 std::__ndk1::__throw_regex_error[abi:ne180000]<(std::__ndk1::regex_constants::error_type)8>()
PUBLIC 234dc 0 std::__ndk1::__throw_regex_error[abi:ne180000]<(std::__ndk1::regex_constants::error_type)7>()
PUBLIC 23528 0 std::__ndk1::__loop<char>::~__loop()
PUBLIC 23590 0 std::__ndk1::__loop<char>::__exec(std::__ndk1::__state<char>&) const
PUBLIC 23754 0 std::__ndk1::__loop<char>::__exec_split(bool, std::__ndk1::__state<char>&) const
PUBLIC 23818 0 std::__ndk1::__owns_two_states<char>::~__owns_two_states()
PUBLIC 23880 0 std::__ndk1::__repeat_one_loop<char>::~__repeat_one_loop()
PUBLIC 23884 0 std::__ndk1::__repeat_one_loop<char>::__exec(std::__ndk1::__state<char>&) const
PUBLIC 23898 0 std::__ndk1::__owns_two_states<char>::~__owns_two_states()
PUBLIC 23904 0 std::__ndk1::__alternate<char>::~__alternate()
PUBLIC 2396c 0 std::__ndk1::__alternate<char>::__exec(std::__ndk1::__state<char>&) const
PUBLIC 23978 0 std::__ndk1::__alternate<char>::__exec_split(bool, std::__ndk1::__state<char>&) const
PUBLIC 2399c 0 std::__ndk1::__node<char>::~__node()
PUBLIC 239a0 0 std::__ndk1::__empty_non_own_state<char>::~__empty_non_own_state()
PUBLIC 239a4 0 std::__ndk1::__empty_non_own_state<char>::__exec(std::__ndk1::__state<char>&) const
PUBLIC 239b8 0 std::__ndk1::__throw_regex_error[abi:ne180000]<(std::__ndk1::regex_constants::error_type)15>()
PUBLIC 23a04 0 std::__ndk1::basic_regex<char, std::__ndk1::regex_traits<char> >::__parse_nondupl_RE<char const*>(char const*, char const*)
PUBLIC 23c30 0 std::__ndk1::basic_regex<char, std::__ndk1::regex_traits<char> >::__parse_RE_dupl_symbol<char const*>(char const*, char const*, std::__ndk1::__owns_one_state<char>*, unsigned int, unsigned int)
PUBLIC 23ea0 0 std::__ndk1::basic_regex<char, std::__ndk1::regex_traits<char> >::__parse_one_char_or_coll_elem_RE<char const*>(char const*, char const*)
PUBLIC 23fbc 0 std::__ndk1::__owns_one_state<char>::~__owns_one_state()
PUBLIC 23fe8 0 std::__ndk1::__match_any<char>::~__match_any()
PUBLIC 24030 0 std::__ndk1::__match_any<char>::__exec(std::__ndk1::__state<char>&) const
PUBLIC 24070 0 std::__ndk1::basic_regex<char, std::__ndk1::regex_traits<char> >::__test_back_ref(char)
PUBLIC 240d0 0 std::__ndk1::basic_regex<char, std::__ndk1::regex_traits<char> >::__parse_ERE_expression<char const*>(char const*, char const*)
PUBLIC 242cc 0 std::__ndk1::basic_regex<char, std::__ndk1::regex_traits<char> >::__parse_one_char_or_coll_elem_ERE<char const*>(char const*, char const*)
PUBLIC 2440c 0 std::__ndk1::basic_regex<char, std::__ndk1::regex_traits<char> >::__parse_QUOTED_CHAR_ERE<char const*>(char const*, char const*)
PUBLIC 244e4 0 std::__ndk1::vector<std::__ndk1::basic_string<char, std::__ndk1::char_traits<char>, std::__ndk1::allocator<char> >, std::__ndk1::allocator<std::__ndk1::basic_string<char, std::__ndk1::char_traits<char>, std::__ndk1::allocator<char> > > >::__push_back_slow_path<std::__ndk1::basic_string<char, std::__ndk1::char_traits<char>, std::__ndk1::allocator<char> > const&>(std::__ndk1::basic_string<char, std::__ndk1::char_traits<char>, std::__ndk1::allocator<char> > const&)
PUBLIC 2470c 0 std::__ndk1::__split_buffer<std::__ndk1::basic_string<char, std::__ndk1::char_traits<char>, std::__ndk1::allocator<char> >, std::__ndk1::allocator<std::__ndk1::basic_string<char, std::__ndk1::char_traits<char>, std::__ndk1::allocator<char> > >&>::~__split_buffer()
PUBLIC 24774 0 std::__ndk1::vector<std::__ndk1::basic_string<char, std::__ndk1::char_traits<char>, std::__ndk1::allocator<char> >, std::__ndk1::allocator<std::__ndk1::basic_string<char, std::__ndk1::char_traits<char>, std::__ndk1::allocator<char> > > >::__throw_length_error[abi:ne180000]() const
PUBLIC 24788 0 geode::Mod::getSettingValue<bool>(std::__ndk1::basic_string_view<char, std::__ndk1::char_traits<char> >) const
PUBLIC 248bc 0 std::__ndk1::basic_ifstream<char, std::__ndk1::char_traits<char> >::basic_ifstream(std::__ndk1::basic_string<char, std::__ndk1::char_traits<char>, std::__ndk1::allocator<char> > const&, unsigned int)
PUBLIC 249dc 0 std::__ndk1::shared_ptr<geode::BoolSettingV3>::~shared_ptr[abi:ne180000]()
PUBLIC 24a2c 0 geode::cast::traverseTypeinfoFor(void*, geode::cast::ClassTypeinfoType const*, char const*)
PUBLIC 24b30 0 geode::EventListener<geode::SettingChangedFilterV3>::EventListener(std::__ndk1::function<void (std::__ndk1::shared_ptr<geode::SettingV3>)>, geode::SettingChangedFilterV3)
PUBLIC 24c28 0 geode::SettingChangedFilterV3::~SettingChangedFilterV3()
PUBLIC 24c78 0 std::__ndk1::__function::__func<geode::listenForSettingChangesV3<bool, geodeExecFunction11<(anonymous namespace)::ExecFuncUnique11>(geode::ModStateEvent*)::{lambda(bool)#1}>(std::__ndk1::basic_string_view<char, std::__ndk1::char_traits<char> >, geodeExecFunction11<(anonymous namespace)::ExecFuncUnique11>(geode::ModStateEvent*)::{lambda(bool)#1}&&, geode::Mod*)::{lambda(std::__ndk1::shared_ptr<geode::SettingV3>)#1}, std::__ndk1::allocator<geode::listenForSettingChangesV3<bool, geodeExecFunction11<(anonymous namespace)::ExecFuncUnique11>(geode::ModStateEvent*)::{lambda(bool)#1}>(std::__ndk1::basic_string_view<char, std::__ndk1::char_traits<char> >, geodeExecFunction11<(anonymous namespace)::ExecFuncUnique11>(geode::ModStateEvent*)::{lambda(bool)#1}&&, geode::Mod*)::{lambda(std::__ndk1::shared_ptr<geode::SettingV3>)#1}>, void (std::__ndk1::shared_ptr<geode::SettingV3>)>::~__func()
PUBLIC 24c7c 0 std::__ndk1::__function::__func<geode::listenForSettingChangesV3<bool, geodeExecFunction11<(anonymous namespace)::ExecFuncUnique11>(geode::ModStateEvent*)::{lambda(bool)#1}>(std::__ndk1::basic_string_view<char, std::__ndk1::char_traits<char> >, geodeExecFunction11<(anonymous namespace)::ExecFuncUnique11>(geode::ModStateEvent*)::{lambda(bool)#1}&&, geode::Mod*)::{lambda(std::__ndk1::shared_ptr<geode::SettingV3>)#1}, std::__ndk1::allocator<geode::listenForSettingChangesV3<bool, geodeExecFunction11<(anonymous namespace)::ExecFuncUnique11>(geode::ModStateEvent*)::{lambda(bool)#1}>(std::__ndk1::basic_string_view<char, std::__ndk1::char_traits<char> >, geodeExecFunction11<(anonymous namespace)::ExecFuncUnique11>(geode::ModStateEvent*)::{lambda(bool)#1}&&, geode::Mod*)::{lambda(std::__ndk1::shared_ptr<geode::SettingV3>)#1}>, void (std::__ndk1::shared_ptr<geode::SettingV3>)>::__clone() const
PUBLIC 24cb4 0 std::__ndk1::__function::__func<geode::listenForSettingChangesV3<bool, geodeExecFunction11<(anonymous namespace)::ExecFuncUnique11>(geode::ModStateEvent*)::{lambda(bool)#1}>(std::__ndk1::basic_string_view<char, std::__ndk1::char_traits<char> >, geodeExecFunction11<(anonymous namespace)::ExecFuncUnique11>(geode::ModStateEvent*)::{lambda(bool)#1}&&, geode::Mod*)::{lambda(std::__ndk1::shared_ptr<geode::SettingV3>)#1}, std::__ndk1::allocator<geode::listenForSettingChangesV3<bool, geodeExecFunction11<(anonymous namespace)::ExecFuncUnique11>(geode::ModStateEvent*)::{lambda(bool)#1}>(std::__ndk1::basic_string_view<char, std::__ndk1::char_traits<char> >, geodeExecFunction11<(anonymous namespace)::ExecFuncUnique11>(geode::ModStateEvent*)::{lambda(bool)#1}&&, geode::Mod*)::{lambda(std::__ndk1::shared_ptr<geode::SettingV3>)#1}>, void (std::__ndk1::shared_ptr<geode::SettingV3>)>::__clone(std::__ndk1::__function::__base<void (std::__ndk1::shared_ptr<geode::SettingV3>)>*) const
PUBLIC 24ccc 0 std::__ndk1::__function::__func<geode::listenForSettingChangesV3<bool, geodeExecFunction11<(anonymous namespace)::ExecFuncUnique11>(geode::ModStateEvent*)::{lambda(bool)#1}>(std::__ndk1::basic_string_view<char, std::__ndk1::char_traits<char> >, geodeExecFunction11<(anonymous namespace)::ExecFuncUnique11>(geode::ModStateEvent*)::{lambda(bool)#1}&&, geode::Mod*)::{lambda(std::__ndk1::shared_ptr<geode::SettingV3>)#1}, std::__ndk1::allocator<geode::listenForSettingChangesV3<bool, geodeExecFunction11<(anonymous namespace)::ExecFuncUnique11>(geode::ModStateEvent*)::{lambda(bool)#1}>(std::__ndk1::basic_string_view<char, std::__ndk1::char_traits<char> >, geodeExecFunction11<(anonymous namespace)::ExecFuncUnique11>(geode::ModStateEvent*)::{lambda(bool)#1}&&, geode::Mod*)::{lambda(std::__ndk1::shared_ptr<geode::SettingV3>)#1}>, void (std::__ndk1::shared_ptr<geode::SettingV3>)>::destroy()
PUBLIC 24cd0 0 std::__ndk1::__function::__func<geode::listenForSettingChangesV3<bool, geodeExecFunction11<(anonymous namespace)::ExecFuncUnique11>(geode::ModStateEvent*)::{lambda(bool)#1}>(std::__ndk1::basic_string_view<char, std::__ndk1::char_traits<char> >, geodeExecFunction11<(anonymous namespace)::ExecFuncUnique11>(geode::ModStateEvent*)::{lambda(bool)#1}&&, geode::Mod*)::{lambda(std::__ndk1::shared_ptr<geode::SettingV3>)#1}, std::__ndk1::allocator<geode::listenForSettingChangesV3<bool, geodeExecFunction11<(anonymous namespace)::ExecFuncUnique11>(geode::ModStateEvent*)::{lambda(bool)#1}>(std::__ndk1::basic_string_view<char, std::__ndk1::char_traits<char> >, geodeExecFunction11<(anonymous namespace)::ExecFuncUnique11>(geode::ModStateEvent*)::{lambda(bool)#1}&&, geode::Mod*)::{lambda(std::__ndk1::shared_ptr<geode::SettingV3>)#1}>, void (std::__ndk1::shared_ptr<geode::SettingV3>)>::destroy_deallocate()
PUBLIC 24cd4 0 std::__ndk1::__function::__func<geode::listenForSettingChangesV3<bool, geodeExecFunction11<(anonymous namespace)::ExecFuncUnique11>(geode::ModStateEvent*)::{lambda(bool)#1}>(std::__ndk1::basic_string_view<char, std::__ndk1::char_traits<char> >, geodeExecFunction11<(anonymous namespace)::ExecFuncUnique11>(geode::ModStateEvent*)::{lambda(bool)#1}&&, geode::Mod*)::{lambda(std::__ndk1::shared_ptr<geode::SettingV3>)#1}, std::__ndk1::allocator<geode::listenForSettingChangesV3<bool, geodeExecFunction11<(anonymous namespace)::ExecFuncUnique11>(geode::ModStateEvent*)::{lambda(bool)#1}>(std::__ndk1::basic_string_view<char, std::__ndk1::char_traits<char> >, geodeExecFunction11<(anonymous namespace)::ExecFuncUnique11>(geode::ModStateEvent*)::{lambda(bool)#1}&&, geode::Mod*)::{lambda(std::__ndk1::shared_ptr<geode::SettingV3>)#1}>, void (std::__ndk1::shared_ptr<geode::SettingV3>)>::operator()(std::__ndk1::shared_ptr<geode::SettingV3>&&)
PUBLIC 24e3c 0 std::__ndk1::__function::__func<geode::listenForSettingChangesV3<bool, geodeExecFunction11<(anonymous namespace)::ExecFuncUnique11>(geode::ModStateEvent*)::{lambda(bool)#1}>(std::__ndk1::basic_string_view<char, std::__ndk1::char_traits<char> >, geodeExecFunction11<(anonymous namespace)::ExecFuncUnique11>(geode::ModStateEvent*)::{lambda(bool)#1}&&, geode::Mod*)::{lambda(std::__ndk1::shared_ptr<geode::SettingV3>)#1}, std::__ndk1::allocator<geode::listenForSettingChangesV3<bool, geodeExecFunction11<(anonymous namespace)::ExecFuncUnique11>(geode::ModStateEvent*)::{lambda(bool)#1}>(std::__ndk1::basic_string_view<char, std::__ndk1::char_traits<char> >, geodeExecFunction11<(anonymous namespace)::ExecFuncUnique11>(geode::ModStateEvent*)::{lambda(bool)#1}&&, geode::Mod*)::{lambda(std::__ndk1::shared_ptr<geode::SettingV3>)#1}>, void (std::__ndk1::shared_ptr<geode::SettingV3>)>::target(std::type_info const&) const
PUBLIC 24e58 0 std::__ndk1::__function::__func<geode::listenForSettingChangesV3<bool, geodeExecFunction11<(anonymous namespace)::ExecFuncUnique11>(geode::ModStateEvent*)::{lambda(bool)#1}>(std::__ndk1::basic_string_view<char, std::__ndk1::char_traits<char> >, geodeExecFunction11<(anonymous namespace)::ExecFuncUnique11>(geode::ModStateEvent*)::{lambda(bool)#1}&&, geode::Mod*)::{lambda(std::__ndk1::shared_ptr<geode::SettingV3>)#1}, std::__ndk1::allocator<geode::listenForSettingChangesV3<bool, geodeExecFunction11<(anonymous namespace)::ExecFuncUnique11>(geode::ModStateEvent*)::{lambda(bool)#1}>(std::__ndk1::basic_string_view<char, std::__ndk1::char_traits<char> >, geodeExecFunction11<(anonymous namespace)::ExecFuncUnique11>(geode::ModStateEvent*)::{lambda(bool)#1}&&, geode::Mod*)::{lambda(std::__ndk1::shared_ptr<geode::SettingV3>)#1}>, void (std::__ndk1::shared_ptr<geode::SettingV3>)>::target_type() const
PUBLIC 24e64 0 managerReset()
PUBLIC 25008 0 geode::EventListener<geode::SettingChangedFilterV3>::getPool() const
PUBLIC 2500c 0 geode::EventListener<geode::SettingChangedFilterV3>::handle(geode::Event*)
PUBLIC 25180 0 geode::EventListener<geode::SettingChangedFilterV3>::~EventListener()
PUBLIC 2521c 0 geode::EventListener<geode::SettingChangedFilterV3>::~EventListener()
PUBLIC 252c0 0 std::__ndk1::__function::__func<geode::listenForSettingChangesV3<bool, geodeExecFunction11<(anonymous namespace)::ExecFuncUnique11>(geode::ModStateEvent*)::{lambda(bool)#2}>(std::__ndk1::basic_string_view<char, std::__ndk1::char_traits<char> >, geodeExecFunction11<(anonymous namespace)::ExecFuncUnique11>(geode::ModStateEvent*)::{lambda(bool)#2}&&, geode::Mod*)::{lambda(std::__ndk1::shared_ptr<geode::SettingV3>)#1}, std::__ndk1::allocator<geode::listenForSettingChangesV3<bool, geodeExecFunction11<(anonymous namespace)::ExecFuncUnique11>(geode::ModStateEvent*)::{lambda(bool)#2}>(std::__ndk1::basic_string_view<char, std::__ndk1::char_traits<char> >, geodeExecFunction11<(anonymous namespace)::ExecFuncUnique11>(geode::ModStateEvent*)::{lambda(bool)#2}&&, geode::Mod*)::{lambda(std::__ndk1::shared_ptr<geode::SettingV3>)#1}>, void (std::__ndk1::shared_ptr<geode::SettingV3>)>::~__func()
PUBLIC 252c4 0 std::__ndk1::__function::__func<geode::listenForSettingChangesV3<bool, geodeExecFunction11<(anonymous namespace)::ExecFuncUnique11>(geode::ModStateEvent*)::{lambda(bool)#2}>(std::__ndk1::basic_string_view<char, std::__ndk1::char_traits<char> >, geodeExecFunction11<(anonymous namespace)::ExecFuncUnique11>(geode::ModStateEvent*)::{lambda(bool)#2}&&, geode::Mod*)::{lambda(std::__ndk1::shared_ptr<geode::SettingV3>)#1}, std::__ndk1::allocator<geode::listenForSettingChangesV3<bool, geodeExecFunction11<(anonymous namespace)::ExecFuncUnique11>(geode::ModStateEvent*)::{lambda(bool)#2}>(std::__ndk1::basic_string_view<char, std::__ndk1::char_traits<char> >, geodeExecFunction11<(anonymous namespace)::ExecFuncUnique11>(geode::ModStateEvent*)::{lambda(bool)#2}&&, geode::Mod*)::{lambda(std::__ndk1::shared_ptr<geode::SettingV3>)#1}>, void (std::__ndk1::shared_ptr<geode::SettingV3>)>::__clone() const
PUBLIC 252fc 0 std::__ndk1::__function::__func<geode::listenForSettingChangesV3<bool, geodeExecFunction11<(anonymous namespace)::ExecFuncUnique11>(geode::ModStateEvent*)::{lambda(bool)#2}>(std::__ndk1::basic_string_view<char, std::__ndk1::char_traits<char> >, geodeExecFunction11<(anonymous namespace)::ExecFuncUnique11>(geode::ModStateEvent*)::{lambda(bool)#2}&&, geode::Mod*)::{lambda(std::__ndk1::shared_ptr<geode::SettingV3>)#1}, std::__ndk1::allocator<geode::listenForSettingChangesV3<bool, geodeExecFunction11<(anonymous namespace)::ExecFuncUnique11>(geode::ModStateEvent*)::{lambda(bool)#2}>(std::__ndk1::basic_string_view<char, std::__ndk1::char_traits<char> >, geodeExecFunction11<(anonymous namespace)::ExecFuncUnique11>(geode::ModStateEvent*)::{lambda(bool)#2}&&, geode::Mod*)::{lambda(std::__ndk1::shared_ptr<geode::SettingV3>)#1}>, void (std::__ndk1::shared_ptr<geode::SettingV3>)>::__clone(std::__ndk1::__function::__base<void (std::__ndk1::shared_ptr<geode::SettingV3>)>*) const
PUBLIC 25314 0 std::__ndk1::__function::__func<geode::listenForSettingChangesV3<bool, geodeExecFunction11<(anonymous namespace)::ExecFuncUnique11>(geode::ModStateEvent*)::{lambda(bool)#2}>(std::__ndk1::basic_string_view<char, std::__ndk1::char_traits<char> >, geodeExecFunction11<(anonymous namespace)::ExecFuncUnique11>(geode::ModStateEvent*)::{lambda(bool)#2}&&, geode::Mod*)::{lambda(std::__ndk1::shared_ptr<geode::SettingV3>)#1}, std::__ndk1::allocator<geode::listenForSettingChangesV3<bool, geodeExecFunction11<(anonymous namespace)::ExecFuncUnique11>(geode::ModStateEvent*)::{lambda(bool)#2}>(std::__ndk1::basic_string_view<char, std::__ndk1::char_traits<char> >, geodeExecFunction11<(anonymous namespace)::ExecFuncUnique11>(geode::ModStateEvent*)::{lambda(bool)#2}&&, geode::Mod*)::{lambda(std::__ndk1::shared_ptr<geode::SettingV3>)#1}>, void (std::__ndk1::shared_ptr<geode::SettingV3>)>::destroy()
PUBLIC 25318 0 std::__ndk1::__function::__func<geode::listenForSettingChangesV3<bool, geodeExecFunction11<(anonymous namespace)::ExecFuncUnique11>(geode::ModStateEvent*)::{lambda(bool)#2}>(std::__ndk1::basic_string_view<char, std::__ndk1::char_traits<char> >, geodeExecFunction11<(anonymous namespace)::ExecFuncUnique11>(geode::ModStateEvent*)::{lambda(bool)#2}&&, geode::Mod*)::{lambda(std::__ndk1::shared_ptr<geode::SettingV3>)#1}, std::__ndk1::allocator<geode::listenForSettingChangesV3<bool, geodeExecFunction11<(anonymous namespace)::ExecFuncUnique11>(geode::ModStateEvent*)::{lambda(bool)#2}>(std::__ndk1::basic_string_view<char, std::__ndk1::char_traits<char> >, geodeExecFunction11<(anonymous namespace)::ExecFuncUnique11>(geode::ModStateEvent*)::{lambda(bool)#2}&&, geode::Mod*)::{lambda(std::__ndk1::shared_ptr<geode::SettingV3>)#1}>, void (std::__ndk1::shared_ptr<geode::SettingV3>)>::destroy_deallocate()
PUBLIC 2531c 0 std::__ndk1::__function::__func<geode::listenForSettingChangesV3<bool, geodeExecFunction11<(anonymous namespace)::ExecFuncUnique11>(geode::ModStateEvent*)::{lambda(bool)#2}>(std::__ndk1::basic_string_view<char, std::__ndk1::char_traits<char> >, geodeExecFunction11<(anonymous namespace)::ExecFuncUnique11>(geode::ModStateEvent*)::{lambda(bool)#2}&&, geode::Mod*)::{lambda(std::__ndk1::shared_ptr<geode::SettingV3>)#1}, std::__ndk1::allocator<geode::listenForSettingChangesV3<bool, geodeExecFunction11<(anonymous namespace)::ExecFuncUnique11>(geode::ModStateEvent*)::{lambda(bool)#2}>(std::__ndk1::basic_string_view<char, std::__ndk1::char_traits<char> >, geodeExecFunction11<(anonymous namespace)::ExecFuncUnique11>(geode::ModStateEvent*)::{lambda(bool)#2}&&, geode::Mod*)::{lambda(std::__ndk1::shared_ptr<geode::SettingV3>)#1}>, void (std::__ndk1::shared_ptr<geode::SettingV3>)>::operator()(std::__ndk1::shared_ptr<geode::SettingV3>&&)
PUBLIC 25484 0 std::__ndk1::__function::__func<geode::listenForSettingChangesV3<bool, geodeExecFunction11<(anonymous namespace)::ExecFuncUnique11>(geode::ModStateEvent*)::{lambda(bool)#2}>(std::__ndk1::basic_string_view<char, std::__ndk1::char_traits<char> >, geodeExecFunction11<(anonymous namespace)::ExecFuncUnique11>(geode::ModStateEvent*)::{lambda(bool)#2}&&, geode::Mod*)::{lambda(std::__ndk1::shared_ptr<geode::SettingV3>)#1}, std::__ndk1::allocator<geode::listenForSettingChangesV3<bool, geodeExecFunction11<(anonymous namespace)::ExecFuncUnique11>(geode::ModStateEvent*)::{lambda(bool)#2}>(std::__ndk1::basic_string_view<char, std::__ndk1::char_traits<char> >, geodeExecFunction11<(anonymous namespace)::ExecFuncUnique11>(geode::ModStateEvent*)::{lambda(bool)#2}&&, geode::Mod*)::{lambda(std::__ndk1::shared_ptr<geode::SettingV3>)#1}>, void (std::__ndk1::shared_ptr<geode::SettingV3>)>::target(std::type_info const&) const
PUBLIC 254a0 0 std::__ndk1::__function::__func<geode::listenForSettingChangesV3<bool, geodeExecFunction11<(anonymous namespace)::ExecFuncUnique11>(geode::ModStateEvent*)::{lambda(bool)#2}>(std::__ndk1::basic_string_view<char, std::__ndk1::char_traits<char> >, geodeExecFunction11<(anonymous namespace)::ExecFuncUnique11>(geode::ModStateEvent*)::{lambda(bool)#2}&&, geode::Mod*)::{lambda(std::__ndk1::shared_ptr<geode::SettingV3>)#1}, std::__ndk1::allocator<geode::listenForSettingChangesV3<bool, geodeExecFunction11<(anonymous namespace)::ExecFuncUnique11>(geode::ModStateEvent*)::{lambda(bool)#2}>(std::__ndk1::basic_string_view<char, std::__ndk1::char_traits<char> >, geodeExecFunction11<(anonymous namespace)::ExecFuncUnique11>(geode::ModStateEvent*)::{lambda(bool)#2}&&, geode::Mod*)::{lambda(std::__ndk1::shared_ptr<geode::SettingV3>)#1}>, void (std::__ndk1::shared_ptr<geode::SettingV3>)>::target_type() const
PUBLIC 254ac 0 std::__ndk1::__function::__func<geode::listenForSettingChangesV3<bool, geodeExecFunction11<(anonymous namespace)::ExecFuncUnique11>(geode::ModStateEvent*)::{lambda(bool)#3}>(std::__ndk1::basic_string_view<char, std::__ndk1::char_traits<char> >, geodeExecFunction11<(anonymous namespace)::ExecFuncUnique11>(geode::ModStateEvent*)::{lambda(bool)#3}&&, geode::Mod*)::{lambda(std::__ndk1::shared_ptr<geode::SettingV3>)#1}, std::__ndk1::allocator<geode::listenForSettingChangesV3<bool, geodeExecFunction11<(anonymous namespace)::ExecFuncUnique11>(geode::ModStateEvent*)::{lambda(bool)#3}>(std::__ndk1::basic_string_view<char, std::__ndk1::char_traits<char> >, geodeExecFunction11<(anonymous namespace)::ExecFuncUnique11>(geode::ModStateEvent*)::{lambda(bool)#3}&&, geode::Mod*)::{lambda(std::__ndk1::shared_ptr<geode::SettingV3>)#1}>, void (std::__ndk1::shared_ptr<geode::SettingV3>)>::~__func()
PUBLIC 254b0 0 std::__ndk1::__function::__func<geode::listenForSettingChangesV3<bool, geodeExecFunction11<(anonymous namespace)::ExecFuncUnique11>(geode::ModStateEvent*)::{lambda(bool)#3}>(std::__ndk1::basic_string_view<char, std::__ndk1::char_traits<char> >, geodeExecFunction11<(anonymous namespace)::ExecFuncUnique11>(geode::ModStateEvent*)::{lambda(bool)#3}&&, geode::Mod*)::{lambda(std::__ndk1::shared_ptr<geode::SettingV3>)#1}, std::__ndk1::allocator<geode::listenForSettingChangesV3<bool, geodeExecFunction11<(anonymous namespace)::ExecFuncUnique11>(geode::ModStateEvent*)::{lambda(bool)#3}>(std::__ndk1::basic_string_view<char, std::__ndk1::char_traits<char> >, geodeExecFunction11<(anonymous namespace)::ExecFuncUnique11>(geode::ModStateEvent*)::{lambda(bool)#3}&&, geode::Mod*)::{lambda(std::__ndk1::shared_ptr<geode::SettingV3>)#1}>, void (std::__ndk1::shared_ptr<geode::SettingV3>)>::__clone() const
PUBLIC 254e8 0 std::__ndk1::__function::__func<geode::listenForSettingChangesV3<bool, geodeExecFunction11<(anonymous namespace)::ExecFuncUnique11>(geode::ModStateEvent*)::{lambda(bool)#3}>(std::__ndk1::basic_string_view<char, std::__ndk1::char_traits<char> >, geodeExecFunction11<(anonymous namespace)::ExecFuncUnique11>(geode::ModStateEvent*)::{lambda(bool)#3}&&, geode::Mod*)::{lambda(std::__ndk1::shared_ptr<geode::SettingV3>)#1}, std::__ndk1::allocator<geode::listenForSettingChangesV3<bool, geodeExecFunction11<(anonymous namespace)::ExecFuncUnique11>(geode::ModStateEvent*)::{lambda(bool)#3}>(std::__ndk1::basic_string_view<char, std::__ndk1::char_traits<char> >, geodeExecFunction11<(anonymous namespace)::ExecFuncUnique11>(geode::ModStateEvent*)::{lambda(bool)#3}&&, geode::Mod*)::{lambda(std::__ndk1::shared_ptr<geode::SettingV3>)#1}>, void (std::__ndk1::shared_ptr<geode::SettingV3>)>::__clone(std::__ndk1::__function::__base<void (std::__ndk1::shared_ptr<geode::SettingV3>)>*) const
PUBLIC 25500 0 std::__ndk1::__function::__func<geode::listenForSettingChangesV3<bool, geodeExecFunction11<(anonymous namespace)::ExecFuncUnique11>(geode::ModStateEvent*)::{lambda(bool)#3}>(std::__ndk1::basic_string_view<char, std::__ndk1::char_traits<char> >, geodeExecFunction11<(anonymous namespace)::ExecFuncUnique11>(geode::ModStateEvent*)::{lambda(bool)#3}&&, geode::Mod*)::{lambda(std::__ndk1::shared_ptr<geode::SettingV3>)#1}, std::__ndk1::allocator<geode::listenForSettingChangesV3<bool, geodeExecFunction11<(anonymous namespace)::ExecFuncUnique11>(geode::ModStateEvent*)::{lambda(bool)#3}>(std::__ndk1::basic_string_view<char, std::__ndk1::char_traits<char> >, geodeExecFunction11<(anonymous namespace)::ExecFuncUnique11>(geode::ModStateEvent*)::{lambda(bool)#3}&&, geode::Mod*)::{lambda(std::__ndk1::shared_ptr<geode::SettingV3>)#1}>, void (std::__ndk1::shared_ptr<geode::SettingV3>)>::destroy()
PUBLIC 25504 0 std::__ndk1::__function::__func<geode::listenForSettingChangesV3<bool, geodeExecFunction11<(anonymous namespace)::ExecFuncUnique11>(geode::ModStateEvent*)::{lambda(bool)#3}>(std::__ndk1::basic_string_view<char, std::__ndk1::char_traits<char> >, geodeExecFunction11<(anonymous namespace)::ExecFuncUnique11>(geode::ModStateEvent*)::{lambda(bool)#3}&&, geode::Mod*)::{lambda(std::__ndk1::shared_ptr<geode::SettingV3>)#1}, std::__ndk1::allocator<geode::listenForSettingChangesV3<bool, geodeExecFunction11<(anonymous namespace)::ExecFuncUnique11>(geode::ModStateEvent*)::{lambda(bool)#3}>(std::__ndk1::basic_string_view<char, std::__ndk1::char_traits<char> >, geodeExecFunction11<(anonymous namespace)::ExecFuncUnique11>(geode::ModStateEvent*)::{lambda(bool)#3}&&, geode::Mod*)::{lambda(std::__ndk1::shared_ptr<geode::SettingV3>)#1}>, void (std::__ndk1::shared_ptr<geode::SettingV3>)>::destroy_deallocate()
PUBLIC 25508 0 std::__ndk1::__function::__func<geode::listenForSettingChangesV3<bool, geodeExecFunction11<(anonymous namespace)::ExecFuncUnique11>(geode::ModStateEvent*)::{lambda(bool)#3}>(std::__ndk1::basic_string_view<char, std::__ndk1::char_traits<char> >, geodeExecFunction11<(anonymous namespace)::ExecFuncUnique11>(geode::ModStateEvent*)::{lambda(bool)#3}&&, geode::Mod*)::{lambda(std::__ndk1::shared_ptr<geode::SettingV3>)#1}, std::__ndk1::allocator<geode::listenForSettingChangesV3<bool, geodeExecFunction11<(anonymous namespace)::ExecFuncUnique11>(geode::ModStateEvent*)::{lambda(bool)#3}>(std::__ndk1::basic_string_view<char, std::__ndk1::char_traits<char> >, geodeExecFunction11<(anonymous namespace)::ExecFuncUnique11>(geode::ModStateEvent*)::{lambda(bool)#3}&&, geode::Mod*)::{lambda(std::__ndk1::shared_ptr<geode::SettingV3>)#1}>, void (std::__ndk1::shared_ptr<geode::SettingV3>)>::operator()(std::__ndk1::shared_ptr<geode::SettingV3>&&)
PUBLIC 25670 0 std::__ndk1::__function::__func<geode::listenForSettingChangesV3<bool, geodeExecFunction11<(anonymous namespace)::ExecFuncUnique11>(geode::ModStateEvent*)::{lambda(bool)#3}>(std::__ndk1::basic_string_view<char, std::__ndk1::char_traits<char> >, geodeExecFunction11<(anonymous namespace)::ExecFuncUnique11>(geode::ModStateEvent*)::{lambda(bool)#3}&&, geode::Mod*)::{lambda(std::__ndk1::shared_ptr<geode::SettingV3>)#1}, std::__ndk1::allocator<geode::listenForSettingChangesV3<bool, geodeExecFunction11<(anonymous namespace)::ExecFuncUnique11>(geode::ModStateEvent*)::{lambda(bool)#3}>(std::__ndk1::basic_string_view<char, std::__ndk1::char_traits<char> >, geodeExecFunction11<(anonymous namespace)::ExecFuncUnique11>(geode::ModStateEvent*)::{lambda(bool)#3}&&, geode::Mod*)::{lambda(std::__ndk1::shared_ptr<geode::SettingV3>)#1}>, void (std::__ndk1::shared_ptr<geode::SettingV3>)>::target(std::type_info const&) const
PUBLIC 2568c 0 std::__ndk1::__function::__func<geode::listenForSettingChangesV3<bool, geodeExecFunction11<(anonymous namespace)::ExecFuncUnique11>(geode::ModStateEvent*)::{lambda(bool)#3}>(std::__ndk1::basic_string_view<char, std::__ndk1::char_traits<char> >, geodeExecFunction11<(anonymous namespace)::ExecFuncUnique11>(geode::ModStateEvent*)::{lambda(bool)#3}&&, geode::Mod*)::{lambda(std::__ndk1::shared_ptr<geode::SettingV3>)#1}, std::__ndk1::allocator<geode::listenForSettingChangesV3<bool, geodeExecFunction11<(anonymous namespace)::ExecFuncUnique11>(geode::ModStateEvent*)::{lambda(bool)#3}>(std::__ndk1::basic_string_view<char, std::__ndk1::char_traits<char> >, geodeExecFunction11<(anonymous namespace)::ExecFuncUnique11>(geode::ModStateEvent*)::{lambda(bool)#3}&&, geode::Mod*)::{lambda(std::__ndk1::shared_ptr<geode::SettingV3>)#1}>, void (std::__ndk1::shared_ptr<geode::SettingV3>)>::target_type() const
PUBLIC 25698 0 std::__ndk1::__function::__base<void (std::__ndk1::shared_ptr<geode::SettingV3>)>::~__base()
PUBLIC 2569c 0 std::__ndk1::__function::__func<geode::listenForSettingChangesV3<bool, geodeExecFunction11<(anonymous namespace)::ExecFuncUnique11>(geode::ModStateEvent*)::{lambda(bool)#4}>(std::__ndk1::basic_string_view<char, std::__ndk1::char_traits<char> >, geodeExecFunction11<(anonymous namespace)::ExecFuncUnique11>(geode::ModStateEvent*)::{lambda(bool)#4}&&, geode::Mod*)::{lambda(std::__ndk1::shared_ptr<geode::SettingV3>)#1}, std::__ndk1::allocator<geode::listenForSettingChangesV3<bool, geodeExecFunction11<(anonymous namespace)::ExecFuncUnique11>(geode::ModStateEvent*)::{lambda(bool)#4}>(std::__ndk1::basic_string_view<char, std::__ndk1::char_traits<char> >, geodeExecFunction11<(anonymous namespace)::ExecFuncUnique11>(geode::ModStateEvent*)::{lambda(bool)#4}&&, geode::Mod*)::{lambda(std::__ndk1::shared_ptr<geode::SettingV3>)#1}>, void (std::__ndk1::shared_ptr<geode::SettingV3>)>::~__func()
PUBLIC 256a0 0 std::__ndk1::__function::__func<geode::listenForSettingChangesV3<bool, geodeExecFunction11<(anonymous namespace)::ExecFuncUnique11>(geode::ModStateEvent*)::{lambda(bool)#4}>(std::__ndk1::basic_string_view<char, std::__ndk1::char_traits<char> >, geodeExecFunction11<(anonymous namespace)::ExecFuncUnique11>(geode::ModStateEvent*)::{lambda(bool)#4}&&, geode::Mod*)::{lambda(std::__ndk1::shared_ptr<geode::SettingV3>)#1}, std::__ndk1::allocator<geode::listenForSettingChangesV3<bool, geodeExecFunction11<(anonymous namespace)::ExecFuncUnique11>(geode::ModStateEvent*)::{lambda(bool)#4}>(std::__ndk1::basic_string_view<char, std::__ndk1::char_traits<char> >, geodeExecFunction11<(anonymous namespace)::ExecFuncUnique11>(geode::ModStateEvent*)::{lambda(bool)#4}&&, geode::Mod*)::{lambda(std::__ndk1::shared_ptr<geode::SettingV3>)#1}>, void (std::__ndk1::shared_ptr<geode::SettingV3>)>::__clone() const
PUBLIC 256d8 0 std::__ndk1::__function::__func<geode::listenForSettingChangesV3<bool, geodeExecFunction11<(anonymous namespace)::ExecFuncUnique11>(geode::ModStateEvent*)::{lambda(bool)#4}>(std::__ndk1::basic_string_view<char, std::__ndk1::char_traits<char> >, geodeExecFunction11<(anonymous namespace)::ExecFuncUnique11>(geode::ModStateEvent*)::{lambda(bool)#4}&&, geode::Mod*)::{lambda(std::__ndk1::shared_ptr<geode::SettingV3>)#1}, std::__ndk1::allocator<geode::listenForSettingChangesV3<bool, geodeExecFunction11<(anonymous namespace)::ExecFuncUnique11>(geode::ModStateEvent*)::{lambda(bool)#4}>(std::__ndk1::basic_string_view<char, std::__ndk1::char_traits<char> >, geodeExecFunction11<(anonymous namespace)::ExecFuncUnique11>(geode::ModStateEvent*)::{lambda(bool)#4}&&, geode::Mod*)::{lambda(std::__ndk1::shared_ptr<geode::SettingV3>)#1}>, void (std::__ndk1::shared_ptr<geode::SettingV3>)>::__clone(std::__ndk1::__function::__base<void (std::__ndk1::shared_ptr<geode::SettingV3>)>*) const
PUBLIC 256f0 0 std::__ndk1::__function::__func<geode::listenForSettingChangesV3<bool, geodeExecFunction11<(anonymous namespace)::ExecFuncUnique11>(geode::ModStateEvent*)::{lambda(bool)#4}>(std::__ndk1::basic_string_view<char, std::__ndk1::char_traits<char> >, geodeExecFunction11<(anonymous namespace)::ExecFuncUnique11>(geode::ModStateEvent*)::{lambda(bool)#4}&&, geode::Mod*)::{lambda(std::__ndk1::shared_ptr<geode::SettingV3>)#1}, std::__ndk1::allocator<geode::listenForSettingChangesV3<bool, geodeExecFunction11<(anonymous namespace)::ExecFuncUnique11>(geode::ModStateEvent*)::{lambda(bool)#4}>(std::__ndk1::basic_string_view<char, std::__ndk1::char_traits<char> >, geodeExecFunction11<(anonymous namespace)::ExecFuncUnique11>(geode::ModStateEvent*)::{lambda(bool)#4}&&, geode::Mod*)::{lambda(std::__ndk1::shared_ptr<geode::SettingV3>)#1}>, void (std::__ndk1::shared_ptr<geode::SettingV3>)>::destroy()
PUBLIC 256f4 0 std::__ndk1::__function::__func<geode::listenForSettingChangesV3<bool, geodeExecFunction11<(anonymous namespace)::ExecFuncUnique11>(geode::ModStateEvent*)::{lambda(bool)#4}>(std::__ndk1::basic_string_view<char, std::__ndk1::char_traits<char> >, geodeExecFunction11<(anonymous namespace)::ExecFuncUnique11>(geode::ModStateEvent*)::{lambda(bool)#4}&&, geode::Mod*)::{lambda(std::__ndk1::shared_ptr<geode::SettingV3>)#1}, std::__ndk1::allocator<geode::listenForSettingChangesV3<bool, geodeExecFunction11<(anonymous namespace)::ExecFuncUnique11>(geode::ModStateEvent*)::{lambda(bool)#4}>(std::__ndk1::basic_string_view<char, std::__ndk1::char_traits<char> >, geodeExecFunction11<(anonymous namespace)::ExecFuncUnique11>(geode::ModStateEvent*)::{lambda(bool)#4}&&, geode::Mod*)::{lambda(std::__ndk1::shared_ptr<geode::SettingV3>)#1}>, void (std::__ndk1::shared_ptr<geode::SettingV3>)>::destroy_deallocate()
PUBLIC 256f8 0 std::__ndk1::__function::__func<geode::listenForSettingChangesV3<bool, geodeExecFunction11<(anonymous namespace)::ExecFuncUnique11>(geode::ModStateEvent*)::{lambda(bool)#4}>(std::__ndk1::basic_string_view<char, std::__ndk1::char_traits<char> >, geodeExecFunction11<(anonymous namespace)::ExecFuncUnique11>(geode::ModStateEvent*)::{lambda(bool)#4}&&, geode::Mod*)::{lambda(std::__ndk1::shared_ptr<geode::SettingV3>)#1}, std::__ndk1::allocator<geode::listenForSettingChangesV3<bool, geodeExecFunction11<(anonymous namespace)::ExecFuncUnique11>(geode::ModStateEvent*)::{lambda(bool)#4}>(std::__ndk1::basic_string_view<char, std::__ndk1::char_traits<char> >, geodeExecFunction11<(anonymous namespace)::ExecFuncUnique11>(geode::ModStateEvent*)::{lambda(bool)#4}&&, geode::Mod*)::{lambda(std::__ndk1::shared_ptr<geode::SettingV3>)#1}>, void (std::__ndk1::shared_ptr<geode::SettingV3>)>::operator()(std::__ndk1::shared_ptr<geode::SettingV3>&&)
PUBLIC 25860 0 std::__ndk1::__function::__func<geode::listenForSettingChangesV3<bool, geodeExecFunction11<(anonymous namespace)::ExecFuncUnique11>(geode::ModStateEvent*)::{lambda(bool)#4}>(std::__ndk1::basic_string_view<char, std::__ndk1::char_traits<char> >, geodeExecFunction11<(anonymous namespace)::ExecFuncUnique11>(geode::ModStateEvent*)::{lambda(bool)#4}&&, geode::Mod*)::{lambda(std::__ndk1::shared_ptr<geode::SettingV3>)#1}, std::__ndk1::allocator<geode::listenForSettingChangesV3<bool, geodeExecFunction11<(anonymous namespace)::ExecFuncUnique11>(geode::ModStateEvent*)::{lambda(bool)#4}>(std::__ndk1::basic_string_view<char, std::__ndk1::char_traits<char> >, geodeExecFunction11<(anonymous namespace)::ExecFuncUnique11>(geode::ModStateEvent*)::{lambda(bool)#4}&&, geode::Mod*)::{lambda(std::__ndk1::shared_ptr<geode::SettingV3>)#1}>, void (std::__ndk1::shared_ptr<geode::SettingV3>)>::target(std::type_info const&) const
PUBLIC 2587c 0 std::__ndk1::__function::__func<geode::listenForSettingChangesV3<bool, geodeExecFunction11<(anonymous namespace)::ExecFuncUnique11>(geode::ModStateEvent*)::{lambda(bool)#4}>(std::__ndk1::basic_string_view<char, std::__ndk1::char_traits<char> >, geodeExecFunction11<(anonymous namespace)::ExecFuncUnique11>(geode::ModStateEvent*)::{lambda(bool)#4}&&, geode::Mod*)::{lambda(std::__ndk1::shared_ptr<geode::SettingV3>)#1}, std::__ndk1::allocator<geode::listenForSettingChangesV3<bool, geodeExecFunction11<(anonymous namespace)::ExecFuncUnique11>(geode::ModStateEvent*)::{lambda(bool)#4}>(std::__ndk1::basic_string_view<char, std::__ndk1::char_traits<char> >, geodeExecFunction11<(anonymous namespace)::ExecFuncUnique11>(geode::ModStateEvent*)::{lambda(bool)#4}&&, geode::Mod*)::{lambda(std::__ndk1::shared_ptr<geode::SettingV3>)#1}>, void (std::__ndk1::shared_ptr<geode::SettingV3>)>::target_type() const
PUBLIC 25888 0 geode::EventListener<geode::ModStateFilter>::getPool() const
PUBLIC 2588c 0 geode::EventListener<geode::ModStateFilter>::handle(geode::Event*)
PUBLIC 25a00 0 geode::EventListener<geode::ModStateFilter>::~EventListener()
PUBLIC 25a5c 0 geode::EventListener<geode::ModStateFilter>::~EventListener()
PUBLIC 25ac0 0 std::__ndk1::__function::__base<void (geode::ModStateEvent*)>::~__base()
PUBLIC 25ac4 0 std::__ndk1::__function::__func<void (*)(geode::ModStateEvent*), std::__ndk1::allocator<void (*)(geode::ModStateEvent*)>, void (geode::ModStateEvent*)>::~__func()
PUBLIC 25ac8 0 std::__ndk1::__function::__func<void (*)(geode::ModStateEvent*), std::__ndk1::allocator<void (*)(geode::ModStateEvent*)>, void (geode::ModStateEvent*)>::__clone() const
PUBLIC 25afc 0 std::__ndk1::__function::__func<void (*)(geode::ModStateEvent*), std::__ndk1::allocator<void (*)(geode::ModStateEvent*)>, void (geode::ModStateEvent*)>::__clone(std::__ndk1::__function::__base<void (geode::ModStateEvent*)>*) const
PUBLIC 25b10 0 std::__ndk1::__function::__func<void (*)(geode::ModStateEvent*), std::__ndk1::allocator<void (*)(geode::ModStateEvent*)>, void (geode::ModStateEvent*)>::destroy()
PUBLIC 25b14 0 std::__ndk1::__function::__func<void (*)(geode::ModStateEvent*), std::__ndk1::allocator<void (*)(geode::ModStateEvent*)>, void (geode::ModStateEvent*)>::destroy_deallocate()
PUBLIC 25b18 0 std::__ndk1::__function::__func<void (*)(geode::ModStateEvent*), std::__ndk1::allocator<void (*)(geode::ModStateEvent*)>, void (geode::ModStateEvent*)>::operator()(geode::ModStateEvent*&&)
PUBLIC 25b28 0 std::__ndk1::__function::__func<void (*)(geode::ModStateEvent*), std::__ndk1::allocator<void (*)(geode::ModStateEvent*)>, void (geode::ModStateEvent*)>::target(std::type_info const&) const
PUBLIC 25b44 0 std::__ndk1::__function::__func<void (*)(geode::ModStateEvent*), std::__ndk1::allocator<void (*)(geode::ModStateEvent*)>, void (geode::ModStateEvent*)>::target_type() const
PUBLIC 25b50 0 _GLOBAL__sub_I_main.cpp
PUBLIC 25c7c 0 __cxx_global_var_init
PUBLIC 260fc 0 geode::modifier::ModifyBase<geode::modifier::ModifyDerive<MyMenuLayer, MenuLayer> >::~ModifyBase()
PUBLIC 26118 0 geode::modifier::ModifyDerive<MyMenuLayer, MenuLayer>::apply()
PUBLIC 26420 0 std::__ndk1::shared_ptr<geode::Hook>::~shared_ptr[abi:ne180000]()
PUBLIC 26470 0 geode::impl::ResultData<geode::Hook*, std::__ndk1::basic_string<char, std::__ndk1::char_traits<char>, std::__ndk1::allocator<char> > >::~ResultData()
PUBLIC 264e4 0 geode::modifier::ModifyBase<geode::modifier::ModifyDerive<MyMenuLayer, MenuLayer> >::apply()
PUBLIC 264e8 0 _ZN5geode15UnwrapExceptionC2IRPNS_4HookEQsr4implE18IsStringStreamableIT_EEENS_4impl5OkTagEOS5_
PUBLIC 2663c 0 std::__ndk1::basic_stringstream<char, std::__ndk1::char_traits<char>, std::__ndk1::allocator<char> >::basic_stringstream[abi:ne180000]()
PUBLIC m 26768 0 std::__ndk1::basic_stringstream<char, std::__ndk1::char_traits<char>, std::__ndk1::allocator<char> >::~basic_stringstream()
PUBLIC 267e8 0 std::__ndk1::__put_character_sequence[abi:ne180000]<char, std::__ndk1::char_traits<char> >(std::__ndk1::basic_ostream<char, std::__ndk1::char_traits<char> >, std::__ndk1::basic_ostream const*, unsigned long)
PUBLIC 2698c 0 std::__ndk1::__pad_and_output[abi:ne180000]<char, std::__ndk1::char_traits<char> >(std::__ndk1::char_traits<char>, std::__ndk1::ostreambuf_iterator const*, std::__ndk1::ostreambuf_iterator const, std::__ndk1::ostreambuf_iterator const, std::__ndk1::ios_base&, std::__ndk1::ostreambuf_iterator)
PUBLIC 26b68 0 std::__ndk1::basic_stringbuf<char, std::__ndk1::char_traits<char>, std::__ndk1::allocator<char> >::str[abi:ne180000]() &&
PUBLIC 26ce0 0 std::__ndk1::basic_stringbuf<char, std::__ndk1::char_traits<char>, std::__ndk1::allocator<char> >::__init_buf_ptrs[abi:ne180000]()
PUBLIC 26e28 0 std::__ndk1::__variant_detail::__visitation::__base::__dispatcher<(unsigned long)0>::__dispatch[abi:ne180000]<std::__ndk1::__variant_detail::__dtor<std::__ndk1::__variant_detail::__traits<geode::Hook*, std::__ndk1::basic_string<char, std::__ndk1::char_traits<char>, std::__ndk1::allocator<char> > >, (std::__ndk1::__variant_detail::_Trait)1>::__destroy[abi:ne180000]()::{lambda(auto:1&)#1}, std::__ndk1::__variant_detail::__base<(std::__ndk1::__variant_detail::__traits<geode::Hook*, std::__ndk1::basic_string<char, std::__ndk1::char_traits<char>, std::__ndk1::allocator<char> > >)1, geode::Hook, std::__ndk1::allocator<char> >&>(std::__ndk1::__variant_detail::__dtor<std::__ndk1::__variant_detail::__traits<geode::Hook*, std::__ndk1::basic_string<char, std::__ndk1::char_traits<char>, std::__ndk1::allocator<char> > >, (std::__ndk1::__variant_detail::_Trait)1>, std::__ndk1::__variant_detail::__base<(std::__ndk1::__variant_detail::__traits<geode::Hook*, std::__ndk1::basic_string<char, std::__ndk1::char_traits<char>, std::__ndk1::allocator<char> > >)1, geode::Hook, std::__ndk1::allocator<char> >&)
PUBLIC 26e2c 0 std::__ndk1::__variant_detail::__visitation::__base::__dispatcher<(unsigned long)1>::__dispatch[abi:ne180000]<std::__ndk1::__variant_detail::__dtor<std::__ndk1::__variant_detail::__traits<geode::Hook*, std::__ndk1::basic_string<char, std::__ndk1::char_traits<char>, std::__ndk1::allocator<char> > >, (std::__ndk1::__variant_detail::_Trait)1>::__destroy[abi:ne180000]()::{lambda(auto:1&)#1}, std::__ndk1::__variant_detail::__base<(std::__ndk1::__variant_detail::__traits<geode::Hook*, std::__ndk1::basic_string<char, std::__ndk1::char_traits<char>, std::__ndk1::allocator<char> > >)1, geode::Hook, std::__ndk1::allocator<char> >&>(std::__ndk1::__variant_detail::__dtor<std::__ndk1::__variant_detail::__traits<geode::Hook*, std::__ndk1::basic_string<char, std::__ndk1::char_traits<char>, std::__ndk1::allocator<char> > >, (std::__ndk1::__variant_detail::_Trait)1>, std::__ndk1::__variant_detail::__base<(std::__ndk1::__variant_detail::__traits<geode::Hook*, std::__ndk1::basic_string<char, std::__ndk1::char_traits<char>, std::__ndk1::allocator<char> > >)1, geode::Hook, std::__ndk1::allocator<char> >&)
PUBLIC 26e40 0 std::__ndk1::__tree<std::__ndk1::__value_type<std::__ndk1::basic_string<char, std::__ndk1::char_traits<char>, std::__ndk1::allocator<char> >, std::__ndk1::shared_ptr<geode::Hook> >, std::__ndk1::__map_value_compare<std::__ndk1::basic_string<char, std::__ndk1::char_traits<char>, std::__ndk1::allocator<char> >, std::__ndk1::__value_type<std::__ndk1::basic_string<char, std::__ndk1::char_traits<char>, std::__ndk1::allocator<char> >, std::__ndk1::shared_ptr<geode::Hook> >, std::__ndk1::less<std::__ndk1::basic_string<char, std::__ndk1::char_traits<char>, std::__ndk1::allocator<char> > >, true>, std::__ndk1::allocator<std::__ndk1::__value_type<std::__ndk1::basic_string<char, std::__ndk1::char_traits<char>, std::__ndk1::allocator<char> >, std::__ndk1::shared_ptr<geode::Hook> > > >::find<std::__ndk1::basic_string<char, std::__ndk1::char_traits<char>, std::__ndk1::allocator<char> > >(std::__ndk1::basic_string<char, std::__ndk1::char_traits<char>, std::__ndk1::allocator<char> > const&)
PUBLIC 26f60 0 std::__ndk1::__tree<std::__ndk1::__value_type<std::__ndk1::basic_string<char, std::__ndk1::char_traits<char>, std::__ndk1::allocator<char> >, std::__ndk1::shared_ptr<geode::Hook> >, std::__ndk1::__map_value_compare<std::__ndk1::basic_string<char, std::__ndk1::char_traits<char>, std::__ndk1::allocator<char> >, std::__ndk1::__value_type<std::__ndk1::basic_string<char, std::__ndk1::char_traits<char>, std::__ndk1::allocator<char> >, std::__ndk1::shared_ptr<geode::Hook> >, std::__ndk1::less<std::__ndk1::basic_string<char, std::__ndk1::char_traits<char>, std::__ndk1::allocator<char> > >, true>, std::__ndk1::allocator<std::__ndk1::__value_type<std::__ndk1::basic_string<char, std::__ndk1::char_traits<char>, std::__ndk1::allocator<char> >, std::__ndk1::shared_ptr<geode::Hook> > > >::erase(std::__ndk1::__tree_const_iterator<std::__ndk1::__value_type<std::__ndk1::basic_string<char, std::__ndk1::char_traits<char>, std::__ndk1::allocator<char> >, std::__ndk1::shared_ptr<geode::Hook> >, std::__ndk1::__tree_node<std::__ndk1::__value_type<std::__ndk1::basic_string<char, std::__ndk1::char_traits<char>, std::__ndk1::allocator<char> >, std::__ndk1::shared_ptr<geode::Hook> >, void*>*, long>)
PUBLIC 27034 0 std::__ndk1::__tree_remove[abi:ne180000]<std::__ndk1::__tree_node_base<void*>*>(std::__ndk1::__tree_node_base<void*>*, std::__ndk1::__tree_node_base<void*>*)
PUBLIC 273fc 0 std::__ndk1::__tree<std::__ndk1::__value_type<std::__ndk1::basic_string<char, std::__ndk1::char_traits<char>, std::__ndk1::allocator<char> >, std::__ndk1::shared_ptr<geode::Hook> >, std::__ndk1::__map_value_compare<std::__ndk1::basic_string<char, std::__ndk1::char_traits<char>, std::__ndk1::allocator<char> >, std::__ndk1::__value_type<std::__ndk1::basic_string<char, std::__ndk1::char_traits<char>, std::__ndk1::allocator<char> >, std::__ndk1::shared_ptr<geode::Hook> >, std::__ndk1::less<std::__ndk1::basic_string<char, std::__ndk1::char_traits<char>, std::__ndk1::allocator<char> > >, true>, std::__ndk1::allocator<std::__ndk1::__value_type<std::__ndk1::basic_string<char, std::__ndk1::char_traits<char>, std::__ndk1::allocator<char> >, std::__ndk1::shared_ptr<geode::Hook> > > >::destroy(std::__ndk1::__tree_node<std::__ndk1::__value_type<std::__ndk1::basic_string<char, std::__ndk1::char_traits<char>, std::__ndk1::allocator<char> >, std::__ndk1::shared_ptr<geode::Hook> >, void*>*)
PUBLIC 27488 0 geode::modifier::AsStaticFunction_init<MyMenuLayer, bool (MyMenuLayer::*)()>::Impl<bool (MyMenuLayer::*)()>::function(MyMenuLayer*)
PUBLIC 27824 0 geode::addresser::Addresser::addressOfVirtual<bool, MenuLayer, >(bool (MenuLayer::*)())
PUBLIC 278cc 0 MenuLayer::MenuLayer(geode::ZeroConstructorType)
PUBLIC 27968 0 std::__ndk1::shared_ptr<tulip::hook::CallingConvention>::~shared_ptr[abi:ne180000]()
PUBLIC 279b8 0 tulip::hook::HandlerMetadata::~HandlerMetadata()
PUBLIC 27a1c 0 std::__ndk1::__tree<std::__ndk1::__value_type<std::__ndk1::basic_string<char, std::__ndk1::char_traits<char>, std::__ndk1::allocator<char> >, std::__ndk1::shared_ptr<geode::Hook> >, std::__ndk1::__map_value_compare<std::__ndk1::basic_string<char, std::__ndk1::char_traits<char>, std::__ndk1::allocator<char> >, std::__ndk1::__value_type<std::__ndk1::basic_string<char, std::__ndk1::char_traits<char>, std::__ndk1::allocator<char> >, std::__ndk1::shared_ptr<geode::Hook> >, std::__ndk1::less<std::__ndk1::basic_string<char, std::__ndk1::char_traits<char>, std::__ndk1::allocator<char> > >, true>, std::__ndk1::allocator<std::__ndk1::__value_type<std::__ndk1::basic_string<char, std::__ndk1::char_traits<char>, std::__ndk1::allocator<char> >, std::__ndk1::shared_ptr<geode::Hook> > > >::__emplace_unique_key_args<std::__ndk1::basic_string<char, std::__ndk1::char_traits<char>, std::__ndk1::allocator<char> >, std::__ndk1::piecewise_construct_t const&, std::__ndk1::tuple<std::__ndk1::basic_string<char, std::__ndk1::char_traits<char>, std::__ndk1::allocator<char> >&&>, std::__ndk1::tuple<> >(std::__ndk1::basic_string<char, std::__ndk1::char_traits<char>, std::__ndk1::allocator<char> > const&, std::__ndk1::piecewise_construct_t const&, std::__ndk1::tuple<std::__ndk1::basic_string<char, std::__ndk1::char_traits<char>, std::__ndk1::allocator<char> >&&>, std::__ndk1::tuple<>)
PUBLIC 27b94 0 std::__ndk1::__tree_balance_after_insert[abi:ne180000]<std::__ndk1::__tree_node_base<void*>*>(std::__ndk1::__tree_node_base<void*>*, std::__ndk1::__tree_node_base<void*>*)
PUBLIC 27d44 0 __cxx_global_var_init
PUBLIC 281c4 0 geode::modifier::ModifyBase<geode::modifier::ModifyDerive<MyPlayLayer, PlayLayer> >::~ModifyBase()
PUBLIC 281e0 0 geode::modifier::ModifyDerive<MyPlayLayer, PlayLayer>::apply()
PUBLIC 28520 0 geode::Mod::get<void>()
PUBLIC 2855c 0 geode::modifier::ModifyBase<geode::modifier::ModifyDerive<MyPlayLayer, PlayLayer> >::apply()
PUBLIC 28560 0 geode::modifier::AsStaticFunction_updateProgressbar<MyPlayLayer, void (MyPlayLayer::*)()>::Impl<void (MyPlayLayer::*)()>::function(MyPlayLayer*)
PUBLIC 29bfc 0 std::__ndk1::basic_string<char, std::__ndk1::char_traits<char>, std::__ndk1::allocator<char> >::basic_string[abi:ne180000]<0>()
PUBLIC 29c98 0 geode::Mod::getSettingValue<long>(std::__ndk1::basic_string_view<char, std::__ndk1::char_traits<char> >) const
PUBLIC 29db0 0 geode::log::info<bool>(fmt::v11::basic_format_string<char, fmt::v11::type_identity<decltype ((wrapCocosObj<bool>)((std::declval<bool>)()))>::type>, bool&&)
PUBLIC 29e48 0 geode::impl::ResultData<int, std::__ndk1::basic_string<char, std::__ndk1::char_traits<char>, std::__ndk1::allocator<char> > >::unwrap() &
PUBLIC 29ec0 0 geode::log::info<int&>(fmt::v11::basic_format_string<char, fmt::v11::type_identity<decltype ((wrapCocosObj<int&>)((std::declval<int&>)()))>::type>, int&)
PUBLIC 29f58 0 geode::impl::ResultData<int, std::__ndk1::basic_string<char, std::__ndk1::char_traits<char>, std::__ndk1::allocator<char> > >::~ResultData()
PUBLIC 29fcc 0 MyPlayLayer::grabRandomQuote(std::__ndk1::vector<std::__ndk1::basic_string<char, std::__ndk1::char_traits<char>, std::__ndk1::allocator<char> >, std::__ndk1::allocator<std::__ndk1::basic_string<char, std::__ndk1::char_traits<char>, std::__ndk1::allocator<char> > > >)
PUBLIC 2a31c 0 geode::Mod::getSettingValue<double>(std::__ndk1::basic_string_view<char, std::__ndk1::char_traits<char> >) const
PUBLIC 2a458 0 geode::cocos::CCArrayExt<cocos2d::CCNode*>::~CCArrayExt()
PUBLIC 2a478 0 std::__ndk1::basic_regex<char, std::__ndk1::regex_traits<char> >::__search<std::__ndk1::allocator<std::__ndk1::sub_match<char const*> > >(char const*, char const*, std::__ndk1::match_results<char const*, std::__ndk1::allocator<std::__ndk1::sub_match<char const*> > >&, std::__ndk1::regex_constants::match_flag_type) const
PUBLIC 2a6e4 0 std::__ndk1::match_results<std::__ndk1::__wrap_iter<char const*>, std::__ndk1::allocator<std::__ndk1::sub_match<std::__ndk1::__wrap_iter<char const*> > > >::__assign[abi:ne180000]<char const*, std::__ndk1::allocator<std::__ndk1::sub_match<char const*> > >(std::__ndk1::__wrap_iter<char const*>, std::__ndk1::__wrap_iter<char const*>, std::__ndk1::match_results<char const*, std::__ndk1::allocator<std::__ndk1::sub_match<char const*> > > const&, bool)
PUBLIC 2a9fc 0 std::__ndk1::basic_regex<char, std::__ndk1::regex_traits<char> >::__match_at_start_posix_nosubs<std::__ndk1::allocator<std::__ndk1::sub_match<char const*> > >(char const*, char const*, std::__ndk1::match_results<char const*, std::__ndk1::allocator<std::__ndk1::sub_match<char const*> > >&, std::__ndk1::regex_constants::match_flag_type, bool) const
PUBLIC 2b8a4 0 std::__ndk1::basic_regex<char, std::__ndk1::regex_traits<char> >::__match_at_start_posix_subs<std::__ndk1::allocator<std::__ndk1::sub_match<char const*> > >(char const*, char const*, std::__ndk1::match_results<char const*, std::__ndk1::allocator<std::__ndk1::sub_match<char const*> > >&, std::__ndk1::regex_constants::match_flag_type, bool) const
PUBLIC 2c338 0 std::__ndk1::deque<std::__ndk1::__state<char>, std::__ndk1::allocator<std::__ndk1::__state<char> > >::~deque[abi:ne180000]()
PUBLIC 2c500 0 std::__ndk1::deque<std::__ndk1::__state<char>, std::__ndk1::allocator<std::__ndk1::__state<char> > >::__add_back_capacity()
PUBLIC 2caf0 0 std::__ndk1::__split_buffer<std::__ndk1::__state<char>*, std::__ndk1::allocator<std::__ndk1::__state<char>*> >::push_back(std::__ndk1::__state<char>*&&)
PUBLIC 2cc78 0 std::__ndk1::__split_buffer<std::__ndk1::__state<char>*, std::__ndk1::allocator<std::__ndk1::__state<char>*> >::push_front(std::__ndk1::__state<char>*&&)
PUBLIC 2ce04 0 std::__ndk1::__split_buffer<std::__ndk1::__state<char>*, std::__ndk1::allocator<std::__ndk1::__state<char>*> >::push_front(std::__ndk1::__state<char>* const&)
PUBLIC 2cf90 0 std::__ndk1::vector<std::__ndk1::sub_match<std::__ndk1::__wrap_iter<char const*> >, std::__ndk1::allocator<std::__ndk1::sub_match<std::__ndk1::__wrap_iter<char const*> > > >::__throw_length_error[abi:ne180000]() const
PUBLIC 2cfa4 0 std::__ndk1::regex_replace[abi:ne180000]<std::__ndk1::back_insert_iterator<std::__ndk1::basic_string<char, std::__ndk1::char_traits<char>, std::__ndk1::allocator<char> > >, std::__ndk1::__wrap_iter<char const*>, std::__ndk1::regex_traits<char>, char>(std::__ndk1::regex_traits<char>, std::__ndk1::__wrap_iter<char const*>, std::__ndk1::back_insert_iterator<std::__ndk1::basic_string<char, std::__ndk1::char_traits<char>, std::__ndk1::allocator<char> > >, std::__ndk1::basic_regex<char, std::__ndk1::regex_traits<char> > const&, std::__ndk1::basic_regex const*, std::__ndk1::regex_constants::match_flag_type)
PUBLIC 2d498 0 _ZN5geode15UnwrapExceptionC2IRNSt6__ndk112basic_stringIcNS2_11char_traitsIcEENS2_9allocatorIcEEEEQsr4implE18IsStringStreamableIT_EEENS_4impl6ErrTagEOSA_
PUBLIC 2d600 0 std::__ndk1::__variant_detail::__visitation::__base::__dispatcher<(unsigned long)0>::__dispatch[abi:ne180000]<std::__ndk1::__variant_detail::__dtor<std::__ndk1::__variant_detail::__traits<int, std::__ndk1::basic_string<char, std::__ndk1::char_traits<char>, std::__ndk1::allocator<char> > >, (std::__ndk1::__variant_detail::_Trait)1>::__destroy[abi:ne180000]()::{lambda(auto:1&)#1}, std::__ndk1::__variant_detail::__base<(std::__ndk1::__variant_detail::__traits<int, std::__ndk1::basic_string<char, std::__ndk1::char_traits<char>, std::__ndk1::allocator<char> > >)1, int, std::__ndk1::allocator<char> >&>(std::__ndk1::__variant_detail::__dtor<std::__ndk1::__variant_detail::__traits<int, std::__ndk1::basic_string<char, std::__ndk1::char_traits<char>, std::__ndk1::allocator<char> > >, (std::__ndk1::__variant_detail::_Trait)1>, std::__ndk1::__variant_detail::__base<(std::__ndk1::__variant_detail::__traits<int, std::__ndk1::basic_string<char, std::__ndk1::char_traits<char>, std::__ndk1::allocator<char> > >)1, int, std::__ndk1::allocator<char> >&)
PUBLIC 2d604 0 std::__ndk1::__variant_detail::__visitation::__base::__dispatcher<(unsigned long)1>::__dispatch[abi:ne180000]<std::__ndk1::__variant_detail::__dtor<std::__ndk1::__variant_detail::__traits<int, std::__ndk1::basic_string<char, std::__ndk1::char_traits<char>, std::__ndk1::allocator<char> > >, (std::__ndk1::__variant_detail::_Trait)1>::__destroy[abi:ne180000]()::{lambda(auto:1&)#1}, std::__ndk1::__variant_detail::__base<(std::__ndk1::__variant_detail::__traits<int, std::__ndk1::basic_string<char, std::__ndk1::char_traits<char>, std::__ndk1::allocator<char> > >)1, int, std::__ndk1::allocator<char> >&>(std::__ndk1::__variant_detail::__dtor<std::__ndk1::__variant_detail::__traits<int, std::__ndk1::basic_string<char, std::__ndk1::char_traits<char>, std::__ndk1::allocator<char> > >, (std::__ndk1::__variant_detail::_Trait)1>, std::__ndk1::__variant_detail::__base<(std::__ndk1::__variant_detail::__traits<int, std::__ndk1::basic_string<char, std::__ndk1::char_traits<char>, std::__ndk1::allocator<char> > >)1, int, std::__ndk1::allocator<char> >&)
PUBLIC 2d618 0 std::__ndk1::__independent_bits_engine<std::__ndk1::mersenne_twister_engine<unsigned long, (unsigned long)32, (unsigned long)624, (unsigned long)397, (unsigned long)31, (unsigned long)2567483615, (unsigned long)11, (unsigned long)4294967295, (unsigned long)7, (unsigned long)2636928640, (unsigned long)15, (unsigned long)4022730752, (unsigned long)18, (unsigned long)1812433253>, unsigned long>::__eval(std::__ndk1::integral_constant<bool, true>)
PUBLIC 2d818 0 std::__ndk1::vector<std::__ndk1::basic_string<char, std::__ndk1::char_traits<char>, std::__ndk1::allocator<char> >, std::__ndk1::allocator<std::__ndk1::basic_string<char, std::__ndk1::char_traits<char>, std::__ndk1::allocator<char> > > >::__init_with_size[abi:ne180000]<std::__ndk1::basic_string<char, std::__ndk1::char_traits<char>, std::__ndk1::allocator<char> >*, std::__ndk1::vector<std::__ndk1::basic_string<char, std::__ndk1::char_traits<char>, std::__ndk1::allocator<char> >, std::__ndk1::allocator<std::__ndk1::basic_string<char, std::__ndk1::char_traits<char>, std::__ndk1::allocator<char> > > >::__init_with_size[abi:ne180000]>(std::__ndk1::basic_string<char, std::__ndk1::char_traits<char>, std::__ndk1::allocator<char> >*, std::__ndk1::vector<std::__ndk1::basic_string<char, std::__ndk1::char_traits<char>, std::__ndk1::allocator<char> >, std::__ndk1::allocator<std::__ndk1::basic_string<char, std::__ndk1::char_traits<char>, std::__ndk1::allocator<char> > > >::__init_with_size[abi:ne180000], unsigned long)
PUBLIC 2d984 0 std::__ndk1::__exception_guard_exceptions<std::__ndk1::vector<std::__ndk1::basic_string<char, std::__ndk1::char_traits<char>, std::__ndk1::allocator<char> >, std::__ndk1::allocator<std::__ndk1::basic_string<char, std::__ndk1::char_traits<char>, std::__ndk1::allocator<char> > > >::__destroy_vector>::~__exception_guard_exceptions[abi:ne180000]()
PUBLIC 2da10 0 std::__ndk1::__exception_guard_exceptions<std::__ndk1::_AllocatorDestroyRangeReverse<std::__ndk1::allocator<std::__ndk1::basic_string<char, std::__ndk1::char_traits<char>, std::__ndk1::allocator<char> > >, std::__ndk1::basic_string<char, std::__ndk1::char_traits<char>, std::__ndk1::allocator<char> >*> >::~__exception_guard_exceptions[abi:ne180000]()
PUBLIC 2da70 0 __cxx_global_var_init
PUBLIC 2def0 0 geode::modifier::ModifyBase<geode::modifier::ModifyDerive<MyPlayerObject, PlayerObject> >::~ModifyBase()
PUBLIC 2df0c 0 geode::modifier::ModifyDerive<MyPlayerObject, PlayerObject>::apply()
PUBLIC 2e294 0 geode::modifier::ModifyBase<geode::modifier::ModifyDerive<MyPlayerObject, PlayerObject> >::apply()
PUBLIC 2e298 0 geode::modifier::AsStaticFunction_playerDestroyed<MyPlayerObject, void (MyPlayerObject::*)(bool)>::Impl<void (MyPlayerObject::*)(bool)>::function(MyPlayerObject*, bool)
PUBLIC 2e934 0 geode::log::info<int>(fmt::v11::basic_format_string<char, fmt::v11::type_identity<decltype ((wrapCocosObj<int>)((std::declval<int>)()))>::type>, int&&)
PUBLIC 2e9cc 0 std::__ndk1::__fs::filesystem::operator/[abi:ne180000](std::__ndk1::__fs::filesystem::path const&, std::__ndk1::__fs::filesystem::path const)
PUBLIC 2ea40 0 geode::Mod::getSettingValue<std::__ndk1::basic_string<char, std::__ndk1::char_traits<char>, std::__ndk1::allocator<char> > >(std::__ndk1::basic_string_view<char, std::__ndk1::char_traits<char> >) const
PUBLIC 2ebdc 0 geode::log::info<std::__ndk1::basic_string<char, std::__ndk1::char_traits<char>, std::__ndk1::allocator<char> > >(fmt::v11::basic_format_string<char, fmt::v11::type_identity<decltype ((wrapCocosObj<std::__ndk1::basic_string<char, std::__ndk1::char_traits<char>, std::__ndk1::allocator<char> > >)((std::declval<std::__ndk1::basic_string<char, std::__ndk1::char_traits<char>, std::__ndk1::allocator<char> > >)()))>::type>, std::__ndk1::basic_string<char, std::__ndk1::char_traits<char>, std::__ndk1::allocator<char> >&&)
PUBLIC 2ec88 0 std::__ndk1::shared_ptr<geode::StringSettingV3>::~shared_ptr[abi:ne180000]()
PUBLIC 2ecd8 0 MyButtonSettingV3::createNode(float)
PUBLIC 2f310 0 MyButtonSettingV3::~MyButtonSettingV3()
PUBLIC 2f334 0 MyButtonSettingV3::load(matjson::Value const&)
PUBLIC 2f33c 0 MyButtonSettingV3::save(matjson::Value&) const
PUBLIC 2f344 0 MyButtonSettingV3::isDefaultValue() const
PUBLIC 2f34c 0 MyButtonSettingV3::reset()
PUBLIC 2f350 0 cocos2d::CCCopying::copyWithZone(cocos2d::CCZone*)
PUBLIC 2f358 0 MyButtonSettingNodeV3::~MyButtonSettingNodeV3()
PUBLIC 2f414 0 MyButtonSettingNodeV3::~MyButtonSettingNodeV3()
PUBLIC 2f4e0 0 MyButtonSettingNodeV3::onCommit()
PUBLIC 2f4e4 0 MyButtonSettingNodeV3::onResetToDefault()
PUBLIC 2f4e8 0 MyButtonSettingNodeV3::hasUncommittedChanges() const
PUBLIC 2f4f0 0 MyButtonSettingNodeV3::hasNonDefaultValue() const
PUBLIC 2f4f8 0 MyButtonSettingNodeV3::onConfigDirButton(cocos2d::CCObject*)
PUBLIC 2f6a8 0 std::__ndk1::__throw_bad_optional_access[abi:ne180000]()
PUBLIC 2f6dc 0 std::__ndk1::__throw_bad_weak_ptr[abi:ne180000]()
PUBLIC m 2f710 0 geodeImplicitEntry
PUBLIC 2f74c 0 std::__ndk1::unordered_map<void*, bool, std::__ndk1::hash<void*>, std::__ndk1::equal_to<void*>, std::__ndk1::allocator<std::__ndk1::pair<void* const, bool> > >::~unordered_map[abi:ne180000]()
PUBLIC 2f798 0 wrapFunction(unsigned long, tulip::hook::WrapperMetadata const&)
PUBLIC 2f8cc 0 geode::impl::ResultData<void*, std::__ndk1::basic_string<char, std::__ndk1::char_traits<char>, std::__ndk1::allocator<char> > >::unwrapErr() &
PUBLIC 2f944 0 geode::impl::ResultData<void*, std::__ndk1::basic_string<char, std::__ndk1::char_traits<char>, std::__ndk1::allocator<char> > >::~ResultData()
PUBLIC 2f9b8 0 tulip::hook::WrapperMetadata::~WrapperMetadata()
PUBLIC 2fa1c 0 cocos2d::CCObject::~CCObject()
PUBLIC 2fa40 0 cocos2d::CCNode::CCNode()
PUBLIC 2fc9c 0 cocos2d::CCNode::~CCNode()
PUBLIC 2fcc0 0 FLAlertLayer::create(FLAlertLayerProtocol*, char const*, gd::string, char const*, char const*, float)
PUBLIC 2fe78 0 tulip::hook::AbstractFunction::from<FLAlertLayer*, FLAlertLayerProtocol*, char const*, gd::string, char const*, char const*, float>(FLAlertLayer* (*)(FLAlertLayerProtocol*, char const*, gd::string, char const*, char const*, float))
PUBLIC 2ffe4 0 FMODAudioEngine::playEffect(gd::string)
PUBLIC 3015c 0 tulip::hook::AbstractFunction::from<void, FMODAudioEngine*, gd::string>(void (*)(FMODAudioEngine*, gd::string))
PUBLIC 30200 0 cocos2d::CCObject::update(float)
PUBLIC 30204 0 cocos2d::CCNode::~CCNode()
PUBLIC 304a4 0 cocos2d::CCObject::~CCObject()
PUBLIC 30998 0 _ZN5geode15UnwrapExceptionC2IRPvQsr4implE18IsStringStreamableIT_EEENS_4impl5OkTagEOS4_
PUBLIC 30aec 0 std::__ndk1::__variant_detail::__visitation::__base::__dispatcher<(unsigned long)0>::__dispatch[abi:ne180000]<std::__ndk1::__variant_detail::__dtor<std::__ndk1::__variant_detail::__traits<void*, std::__ndk1::basic_string<char, std::__ndk1::char_traits<char>, std::__ndk1::allocator<char> > >, (std::__ndk1::__variant_detail::_Trait)1>::__destroy[abi:ne180000]()::{lambda(auto:1&)#1}, std::__ndk1::__variant_detail::__base<(std::__ndk1::__variant_detail::__traits<void*, std::__ndk1::basic_string<char, std::__ndk1::char_traits<char>, std::__ndk1::allocator<char> > >)1, std::__ndk1::__variant_detail::__traits, std::__ndk1::allocator<char> >&>(std::__ndk1::__variant_detail::__dtor<std::__ndk1::__variant_detail::__traits<void*, std::__ndk1::basic_string<char, std::__ndk1::char_traits<char>, std::__ndk1::allocator<char> > >, (std::__ndk1::__variant_detail::_Trait)1>, std::__ndk1::__variant_detail::__base<(std::__ndk1::__variant_detail::__traits<void*, std::__ndk1::basic_string<char, std::__ndk1::char_traits<char>, std::__ndk1::allocator<char> > >)1, std::__ndk1::__variant_detail::__traits, std::__ndk1::allocator<char> >&)
PUBLIC 30af0 0 std::__ndk1::__variant_detail::__visitation::__base::__dispatcher<(unsigned long)1>::__dispatch[abi:ne180000]<std::__ndk1::__variant_detail::__dtor<std::__ndk1::__variant_detail::__traits<void*, std::__ndk1::basic_string<char, std::__ndk1::char_traits<char>, std::__ndk1::allocator<char> > >, (std::__ndk1::__variant_detail::_Trait)1>::__destroy[abi:ne180000]()::{lambda(auto:1&)#1}, std::__ndk1::__variant_detail::__base<(std::__ndk1::__variant_detail::__traits<void*, std::__ndk1::basic_string<char, std::__ndk1::char_traits<char>, std::__ndk1::allocator<char> > >)1, std::__ndk1::__variant_detail::__traits, std::__ndk1::allocator<char> >&>(std::__ndk1::__variant_detail::__dtor<std::__ndk1::__variant_detail::__traits<void*, std::__ndk1::basic_string<char, std::__ndk1::char_traits<char>, std::__ndk1::allocator<char> > >, (std::__ndk1::__variant_detail::_Trait)1>, std::__ndk1::__variant_detail::__base<(std::__ndk1::__variant_detail::__traits<void*, std::__ndk1::basic_string<char, std::__ndk1::char_traits<char>, std::__ndk1::allocator<char> > >)1, std::__ndk1::__variant_detail::__traits, std::__ndk1::allocator<char> >&)
PUBLIC 30b04 0 std::__ndk1::__hash_table<std::__ndk1::__hash_value_type<void*, bool>, std::__ndk1::__unordered_map_hasher<void*, std::__ndk1::__hash_value_type<void*, bool>, std::__ndk1::hash<void*>, std::__ndk1::equal_to<void*>, true>, std::__ndk1::__unordered_map_equal<void*, std::__ndk1::__hash_value_type<void*, bool>, std::__ndk1::equal_to<void*>, std::__ndk1::hash<void*>, true>, std::__ndk1::allocator<std::__ndk1::__hash_value_type<void*, bool> > >::__emplace_unique_key_args<void*, std::__ndk1::piecewise_construct_t const&, std::__ndk1::tuple<void* const&>, std::__ndk1::tuple<> >(void* const&, std::__ndk1::piecewise_construct_t const&, std::__ndk1::tuple<void* const&>, std::__ndk1::tuple<>)
PUBLIC 31010 0 __udivti3
PUBLIC 3101c 0 __udivmodti4
PUBLIC m 31268 0 __eqtf2
PUBLIC 31308 0 __unordtf2
PUBLIC 31340 0 fmt::v11::detail::write_loc(fmt::v11::basic_appender<char>, fmt::v11::loc_value, fmt::v11::format_specs const&, fmt::v11::detail::locale_ref)
PUBLIC 315d4 0 fmt::v11::format_facet<std::__ndk1::locale>::~format_facet()
PUBLIC 31650 0 fmt::v11::report_error(char const*)
PUBLIC 316a0 0 fmt::v11::format_error::runtime_error(char const*)
PUBLIC 316cc 0 fmt::v11::format_facet<std::__ndk1::locale>::do_put(fmt::v11::basic_appender<char>, fmt::v11::loc_value, fmt::v11::format_specs const&) const
PUBLIC 31e8c 0 fmt::v11::detail::loc_writer<char>::~loc_writer()
PUBLIC 31ef0 0 fmt::v11::vformat(fmt::v11::basic_string_view<char>, fmt::v11::basic_format_args<fmt::v11::context>)
PUBLIC 3202c 0 fmt::v11::detail::vformat_to<char>(fmt::v11::detail::buffer<char>&, fmt::v11::basic_string_view<char>, fmt::v11::detail::vformat_args<char>::type, fmt::v11::detail::locale_ref)
PUBLIC 3259c 0 fmt::v11::detail::is_printable(unsigned int)
PUBLIC 327c4 0 fmt::v11::detail::dragonbox::to_decimal<float>(float)
PUBLIC 32aa0 0 fmt::v11::detail::dragonbox::to_decimal<double>(double)
PUBLIC 32fdc 0 fmt::v11::basic_memory_buffer<char, (unsigned long)500, std::__ndk1::allocator<char> >::grow(fmt::v11::detail::buffer<char>&, unsigned long)
PUBLIC 33054 0 fmt::v11::format_facet<std::__ndk1::locale>::~format_facet()
PUBLIC 330e0 0 fmt::v11::format_error::~format_error()
PUBLIC 33104 0 fmt::v11::detail::copy_noinline<char, char const*, fmt::v11::basic_appender<char> >(char const*, char const*, fmt::v11::basic_appender<char>)
PUBLIC 33254 0 fmt::v11::detail::default_arg_formatter<char>::operator()<bool>(bool)
PUBLIC 332bc 0 fmt::v11::detail::default_arg_formatter<char>::operator()<char>(char)
PUBLIC 3334c 0 fmt::v11::detail::default_arg_formatter<char>::operator()<float>(float)
PUBLIC 33438 0 fmt::v11::detail::default_arg_formatter<char>::operator()<double>(double)
PUBLIC 33524 0 fmt::v11::detail::default_arg_formatter<char>::operator()<char const*>(char const*)
PUBLIC 3356c 0 fmt::v11::detail::default_arg_formatter<char>::operator()<void const*>(void const*)
PUBLIC 33604 0 _ZN3fmt3v116detail5writeIcNS0_14basic_appenderIcEEiTnNSt6__ndk19enable_ifIXaaaasr11is_integralIT1_EE5valuentsr3std7is_sameIS7_bEE5valuentsr3std7is_sameIS7_T_EE5valueEiE4typeELi0EEET0_SB_S7_
PUBLIC 33864 0 fmt::v11::detail::copy_noinline<char, char*, fmt::v11::basic_appender<char> >(char*, char*, fmt::v11::basic_appender<char>)
PUBLIC 339b4 0 _ZN3fmt3v116detail5writeIcNS0_14basic_appenderIcEEjTnNSt6__ndk19enable_ifIXaaaasr11is_integralIT1_EE5valuentsr3std7is_sameIS7_bEE5valuentsr3std7is_sameIS7_T_EE5valueEiE4typeELi0EEET0_SB_S7_
PUBLIC 33b94 0 _ZN3fmt3v116detail5writeIcNS0_14basic_appenderIcEExTnNSt6__ndk19enable_ifIXaaaasr11is_integralIT1_EE5valuentsr3std7is_sameIS7_bEE5valuentsr3std7is_sameIS7_T_EE5valueEiE4typeELi0EEET0_SB_S7_
PUBLIC 33e18 0 _ZN3fmt3v116detail5writeIcNS0_14basic_appenderIcEEyTnNSt6__ndk19enable_ifIXaaaasr11is_integralIT1_EE5valuentsr3std7is_sameIS7_bEE5valuentsr3std7is_sameIS7_T_EE5valueEiE4typeELi0EEET0_SB_S7_
PUBLIC 34020 0 _ZN3fmt3v116detail5writeIcNS0_14basic_appenderIcEEnTnNSt6__ndk19enable_ifIXaaaasr11is_integralIT1_EE5valuentsr3std7is_sameIS7_bEE5valuentsr3std7is_sameIS7_T_EE5valueEiE4typeELi0EEET0_SB_S7_
PUBLIC 34380 0 _ZN3fmt3v116detail5writeIcNS0_14basic_appenderIcEEoTnNSt6__ndk19enable_ifIXaaaasr11is_integralIT1_EE5valuentsr3std7is_sameIS7_bEE5valuentsr3std7is_sameIS7_T_EE5valueEiE4typeELi0EEET0_SB_S7_
PUBLIC 34694 0 _ZN3fmt3v116detail5writeIcNS0_14basic_appenderIcEEbTnNSt6__ndk19enable_ifIXsr3std7is_sameIT1_bEE5valueEiE4typeELi0EEET0_SA_S7_RKNS0_12format_specsENS1_10locale_refE
PUBLIC 34924 0 fmt::v11::detail::write_int_noinline<char, fmt::v11::basic_appender<char>, unsigned int>(fmt::v11::basic_appender<char>, fmt::v11::detail::write_int_arg<unsigned int>, fmt::v11::format_specs const&, fmt::v11::detail::locale_ref)
PUBLIC 35700 0 fmt::v11::detail::fill<char, fmt::v11::basic_appender<char> >(fmt::v11::basic_appender<char>, unsigned long, fmt::v11::detail::fill_t const&)
PUBLIC 358d0 0 fmt::v11::detail::write_padded<char, (fmt::v11::align::type)1, fmt::v11::basic_appender<char>, fmt::v11::detail::write_char<char, fmt::v11::basic_appender<char> >(fmt::v11::basic_appender<char>, char, fmt::v11::format_specs const&)::{lambda(fmt::v11::basic_appender<char>&)#1}>(fmt::v11::basic_appender<char>, fmt::v11::format_specs const&, unsigned long, unsigned long, fmt::v11::detail::write_char<char, fmt::v11::basic_appender<char> >(fmt::v11::basic_appender<char>, char, fmt::v11::format_specs const&)::{lambda(fmt::v11::basic_appender<char>&)#1})
PUBLIC 35b0c 0 fmt::v11::detail::write_escaped_cp<fmt::v11::basic_appender<char>, char>(fmt::v11::basic_appender<char>, fmt::v11::detail::find_escape_result<char> const&)
PUBLIC 35e18 0 fmt::v11::detail::write_codepoint<(unsigned long)2, char, fmt::v11::basic_appender<char> >(fmt::v11::basic_appender<char>, char, unsigned int)
PUBLIC 35f90 0 fmt::v11::detail::write_codepoint<(unsigned long)8, char, fmt::v11::basic_appender<char> >(fmt::v11::basic_appender<char>, char, unsigned int)
PUBLIC 36108 0 fmt::v11::detail::write_padded<char, (fmt::v11::align::type)1, fmt::v11::basic_appender<char>, fmt::v11::detail::write_nonfinite<char, fmt::v11::basic_appender<char> >(fmt::v11::basic_appender<char>, bool, fmt::v11::format_specs, fmt::v11::sign::type)::{lambda(fmt::v11::basic_appender<char>&)#1}>(fmt::v11::basic_appender<char>, fmt::v11::format_specs const&, unsigned long, unsigned long, fmt::v11::detail::write_nonfinite<char, fmt::v11::basic_appender<char> >(fmt::v11::basic_appender<char>, bool, fmt::v11::format_specs, fmt::v11::sign::type)::{lambda(fmt::v11::basic_appender<char>&)#1})
PUBLIC 36348 0 fmt::v11::detail::do_write_float<char, fmt::v11::basic_appender<char>, fmt::v11::detail::dragonbox::decimal_fp<float>, fmt::v11::detail::digit_grouping<char> >(fmt::v11::basic_appender<char>, fmt::v11::detail::dragonbox::decimal_fp<float> const&, fmt::v11::format_specs const&, fmt::v11::detail::float_specs, fmt::v11::detail::locale_ref)
PUBLIC 36fbc 0 fmt::v11::detail::do_write_float<char, fmt::v11::basic_appender<char>, fmt::v11::detail::dragonbox::decimal_fp<float>, fmt::v11::detail::digit_grouping<char> >(fmt::v11::basic_appender<char>, fmt::v11::detail::dragonbox::decimal_fp<float> const&, fmt::v11::format_specs const&, fmt::v11::detail::float_specs, fmt::v11::detail::locale_ref)::{lambda(fmt::v11::basic_appender<char>(fmt::v11::basic_appender<char>))#1}::operator() const
PUBLIC 37110 0 fmt::v11::detail::digit_grouping<char>::digit_grouping(fmt::v11::detail::locale_ref, bool)
PUBLIC 3737c 0 fmt::v11::detail::digit_grouping<char>::~digit_grouping()
PUBLIC 373c0 0 fmt::v11::detail::write_exponent<char, fmt::v11::basic_appender<char> >(int, fmt::v11::basic_appender<char>)
PUBLIC 37590 0 _ZN3fmt3v116detail17write_significandIcjTnNSt6__ndk19enable_ifIXsr3std11is_integralIT0_EE5valueEiE4typeELi0EEEPT_S9_S5_iiS8_
PUBLIC 3770c 0 fmt::v11::detail::digit_grouping<char>::apply<fmt::v11::basic_appender<char>, char>(fmt::v11::basic_appender<char>, fmt::v11::basic_string_view<char>) const
PUBLIC 37ac4 0 fmt::v11::basic_memory_buffer<int, (unsigned long)500, std::__ndk1::allocator<int> >::grow(fmt::v11::detail::buffer<int>&, unsigned long)
PUBLIC 37b64 0 fmt::v11::detail::do_write_float<char, fmt::v11::basic_appender<char>, fmt::v11::detail::dragonbox::decimal_fp<double>, fmt::v11::detail::digit_grouping<char> >(fmt::v11::basic_appender<char>, fmt::v11::detail::dragonbox::decimal_fp<double> const&, fmt::v11::format_specs const&, fmt::v11::detail::float_specs, fmt::v11::detail::locale_ref)
PUBLIC 38818 0 fmt::v11::detail::do_write_float<char, fmt::v11::basic_appender<char>, fmt::v11::detail::dragonbox::decimal_fp<double>, fmt::v11::detail::digit_grouping<char> >(fmt::v11::basic_appender<char>, fmt::v11::detail::dragonbox::decimal_fp<double> const&, fmt::v11::format_specs const&, fmt::v11::detail::float_specs, fmt::v11::detail::locale_ref)::{lambda(fmt::v11::basic_appender<char>(fmt::v11::basic_appender<char>))#1}::operator() const
PUBLIC 38970 0 _ZN3fmt3v116detail17write_significandIcmTnNSt6__ndk19enable_ifIXsr3std11is_integralIT0_EE5valueEiE4typeELi0EEEPT_S9_S5_iiS8_
PUBLIC 38b00 0 fmt::v11::detail::write_float<char, fmt::v11::basic_appender<char>, long double>(fmt::v11::basic_appender<char>, long double, fmt::v11::format_specs, fmt::v11::detail::locale_ref)
PUBLIC 395fc 0 fmt::v11::detail::write_padded<char, (fmt::v11::align::type)2, fmt::v11::basic_appender<char>, fmt::v11::detail::write_bytes<char, (fmt::v11::align::type)2, fmt::v11::basic_appender<char> >(fmt::v11::basic_appender<char>, fmt::v11::basic_string_view<char>, fmt::v11::format_specs const&)::{lambda(fmt::v11::basic_appender<char>&)#1}>(fmt::v11::basic_appender<char>, fmt::v11::format_specs const&, unsigned long, unsigned long, fmt::v11::detail::write_bytes<char, (fmt::v11::align::type)2, fmt::v11::basic_appender<char> >(fmt::v11::basic_appender<char>, fmt::v11::basic_string_view<char>, fmt::v11::format_specs const&)::{lambda(fmt::v11::basic_appender<char>&)#1})
PUBLIC 397d8 0 fmt::v11::detail::format_dragon(fmt::v11::detail::basic_fp<unsigned __int128>, unsigned int, int, fmt::v11::detail::buffer<char>&, int&)
PUBLIC 3ac08 0 fmt::v11::detail::bigint::operator<<=(int)
PUBLIC 3ad2c 0 fmt::v11::detail::bigint::assign_pow10(int)
PUBLIC 3b488 0 fmt::v11::detail::bigint::divmod_assign(fmt::v11::detail::bigint const&)
PUBLIC 3b7a8 0 fmt::v11::basic_memory_buffer<unsigned int, (unsigned long)32, std::__ndk1::allocator<unsigned int> >::grow(fmt::v11::detail::buffer<unsigned int>&, unsigned long)
PUBLIC 3b848 0 fmt::v11::detail::do_write_float<char, fmt::v11::basic_appender<char>, fmt::v11::detail::big_decimal_fp, fmt::v11::detail::digit_grouping<char> >(fmt::v11::basic_appender<char>, fmt::v11::detail::big_decimal_fp const&, fmt::v11::format_specs const&, fmt::v11::detail::float_specs, fmt::v11::detail::locale_ref)
PUBLIC 3c6f8 0 fmt::v11::detail::do_write_float<char, fmt::v11::basic_appender<char>, fmt::v11::detail::big_decimal_fp, fmt::v11::detail::digit_grouping<char> >(fmt::v11::basic_appender<char>, fmt::v11::detail::big_decimal_fp const&, fmt::v11::format_specs const&, fmt::v11::detail::float_specs, fmt::v11::detail::locale_ref)::{lambda(fmt::v11::basic_appender<char>(fmt::v11::basic_appender<char>))#1}::operator() const
PUBLIC 3c858 0 fmt::v11::detail::write_padded<char, (fmt::v11::align::type)2, fmt::v11::basic_appender<char>, fmt::v11::detail::write_ptr<char, fmt::v11::basic_appender<char>, unsigned long>(fmt::v11::basic_appender<char>, unsigned long, fmt::v11::format_specs const*)::{lambda(fmt::v11::basic_appender<char>&)#1}>(fmt::v11::basic_appender<char>, fmt::v11::format_specs const&, unsigned long, unsigned long, fmt::v11::detail::write_ptr<char, fmt::v11::basic_appender<char>, unsigned long>(fmt::v11::basic_appender<char>, unsigned long, fmt::v11::format_specs const*)::{lambda(fmt::v11::basic_appender<char>&)#1})
PUBLIC 3ca6c 0 fmt::v11::detail::parse_replacement_field<char, fmt::v11::detail::vformat_to<char>(fmt::v11::detail::buffer<char>&, fmt::v11::basic_string_view<char>, fmt::v11::detail::vformat_args<char>::type, fmt::v11::detail::locale_ref)::format_handler&>(char const*, char const*, fmt::v11::detail::vformat_to<char>(fmt::v11::detail::buffer<char>&, fmt::v11::basic_string_view<char>, fmt::v11::detail::vformat_args<char>::type, fmt::v11::detail::locale_ref)::format_handler&)
PUBLIC 3e708 0 fmt::v11::detail::parse_dynamic_spec<char>(char const*, char const*, int&, fmt::v11::detail::arg_ref<char>&, fmt::v11::basic_format_parse_context<char>&)
PUBLIC 3e998 0 fmt::v11::basic_format_args<fmt::v11::context>::get<char>(fmt::v11::basic_string_view<char>) const
PUBLIC 3eaf0 0 fmt::v11::detail::write_int_noinline<char, fmt::v11::basic_appender<char>, unsigned long>(fmt::v11::basic_appender<char>, fmt::v11::detail::write_int_arg<unsigned long>, fmt::v11::format_specs const&, fmt::v11::detail::locale_ref)
PUBLIC 3f944 0 fmt::v11::detail::write_int_noinline<char, fmt::v11::basic_appender<char>, unsigned __int128>(fmt::v11::basic_appender<char>, fmt::v11::detail::write_int_arg<unsigned __int128>, fmt::v11::format_specs const&, fmt::v11::detail::locale_ref)
PUBLIC 409ac 0 _ZN3fmt3v116detail15format_hexfloatIdTnNSt6__ndk19enable_ifIXntsr16is_double_doubleIT_EE5valueEiE4typeELi0EEEvS5_NS0_12format_specsERNS1_6bufferIcEE
PUBLIC 40ecc 0 fmt::v11::detail::format_float<double>(double, int, fmt::v11::detail::float_specs, fmt::v11::detail::buffer<char>&)
PUBLIC 4186c 0 fmt::v11::detail::write<char, fmt::v11::basic_appender<char> >(fmt::v11::basic_appender<char>, fmt::v11::basic_string_view<char>, fmt::v11::format_specs const&)
PUBLIC 42bd8 0 fmt::v11::detail::for_each_codepoint<fmt::v11::detail::compute_width(fmt::v11::basic_string_view<char>)::count_code_points>(fmt::v11::basic_string_view<char>, fmt::v11::detail::compute_width(fmt::v11::basic_string_view<char>)::count_code_points)::{lambda(char const*, char const*)#1}::operator()(char const*, char const*) const
PUBLIC 42d90 0 fmt::v11::detail::write_int<fmt::v11::basic_appender<char>, unsigned long, char>(fmt::v11::basic_appender<char>, unsigned long, unsigned int, fmt::v11::format_specs const&, fmt::v11::detail::digit_grouping<char> const&)
PUBLIC 4330c 0 fmt::v11::detail::write_int<fmt::v11::basic_appender<char>, unsigned __int128, char>(fmt::v11::basic_appender<char>, unsigned __int128, unsigned int, fmt::v11::format_specs const&, fmt::v11::detail::digit_grouping<char> const&)
PUBLIC 43990 0 <.plt ELF section in raydeeux.deathscreentweaks.android64.so>
STACK CFI INIT 17210 10 .cfa: sp 0 +
STACK CFI INIT 17220 8 .cfa: sp 0 +
STACK CFI INIT 17228 8 .cfa: sp 0 +
STACK CFI INIT 17230 14 .cfa: sp 0 +
STACK CFI INIT 17244 1c .cfa: sp 0 +
STACK CFI INIT 17260 10 .cfa: sp 0 +
STACK CFI INIT 17270 30 .cfa: sp 0 +
STACK CFI INIT 172a0 98 .cfa: sp 0 +
STACK CFI INIT 17338 59c .cfa: sp 0 +
STACK CFI INIT 178d4 8c .cfa: sp 0 +
STACK CFI INIT 17960 30 .cfa: sp 0 +
STACK CFI INIT 191e4 50 .cfa: sp 0 +
STACK CFI 191e8 .cfa: sp 32 +
STACK CFI 191f0 .cfa: x29 32 + x19: .cfa -8 + ^ x20: .cfa -16 + ^ .ra: .cfa -24 + ^ x29: .cfa -32 + ^
STACK CFI 19228 .cfa: sp 32 +
STACK CFI 19230 .cfa: sp 0 +
STACK CFI INIT 19fcc 10 .cfa: sp 0 +
STACK CFI 19fd0 .cfa: sp 16 +
STACK CFI 19fd4 .cfa: x29 16 + .ra: .cfa -8 + ^ x29: .cfa -16 + ^
STACK CFI INIT 19fdc 50 .cfa: sp 0 +
STACK CFI 19fe0 .cfa: sp 32 +
STACK CFI 19fe8 .cfa: x29 32 + x19: .cfa -16 + ^ .ra: .cfa -24 + ^ x29: .cfa -32 + ^
STACK CFI 1a000 .cfa: sp 32 +
STACK CFI 1a008 .cfa: sp 0 +
STACK CFI 1a00c .cfa: x29 32 +
STACK CFI 1a020 .cfa: sp 32 +
STACK CFI 1a028 .cfa: sp 0 +
STACK CFI INIT 1a02c 50 .cfa: sp 0 +
STACK CFI 1a030 .cfa: sp 32 +
STACK CFI 1a038 .cfa: x29 32 + x19: .cfa -16 + ^ .ra: .cfa -24 + ^ x29: .cfa -32 + ^
STACK CFI 1a050 .cfa: sp 32 +
STACK CFI 1a058 .cfa: sp 0 +
STACK CFI 1a05c .cfa: x29 32 +
STACK CFI 1a070 .cfa: sp 32 +
STACK CFI 1a078 .cfa: sp 0 +
STACK CFI INIT 1a07c 34 .cfa: sp 0 +
STACK CFI 1a080 .cfa: sp 32 +
STACK CFI 1a088 .cfa: x29 32 + x19: .cfa -16 + ^ .ra: .cfa -24 + ^ x29: .cfa -32 + ^
STACK CFI INIT 1a0b0 10 .cfa: sp 0 +
STACK CFI INIT 1a0c0 30 .cfa: sp 0 +
STACK CFI 1a0c4 .cfa: sp 32 +
STACK CFI 1a0cc .cfa: x29 32 + x19: .cfa -16 + ^ .ra: .cfa -24 + ^ x29: .cfa -32 + ^
STACK CFI 1a0e4 .cfa: sp 32 +
STACK CFI 1a0ec .cfa: sp 0 +
STACK CFI INIT 1a0f0 c .cfa: sp 0 +
STACK CFI INIT 1a0fc 4 .cfa: sp 0 +
STACK CFI INIT 1a100 34 .cfa: sp 0 +
STACK CFI 1a104 .cfa: sp 16 +
STACK CFI 1a108 .cfa: x29 16 + .ra: .cfa -8 + ^ x29: .cfa -16 + ^
STACK CFI INIT 1a134 24 .cfa: sp 0 +
STACK CFI 1a138 .cfa: sp 32 +
STACK CFI 1a140 .cfa: x29 32 + x19: .cfa -16 + ^ .ra: .cfa -24 + ^ x29: .cfa -32 + ^
STACK CFI 1a14c .cfa: sp 32 +
STACK CFI 1a154 .cfa: sp 0 +
STACK CFI INIT 1a158 80 .cfa: sp 0 +
STACK CFI 1a15c .cfa: sp 48 +
STACK CFI 1a168 .cfa: x29 48 + x19: .cfa -8 + ^ x20: .cfa -16 + ^ x21: .cfa -24 + ^ x22: .cfa -32 + ^ .ra: .cfa -40 + ^ x29: .cfa -48 + ^
STACK CFI 1a180 .cfa: sp 48 +
STACK CFI 1a18c .cfa: sp 0 +
STACK CFI 1a190 .cfa: x29 48 +
STACK CFI 1a1c0 .cfa: sp 48 +
STACK CFI 1a1cc .cfa: sp 0 +
STACK CFI 1a1d0 .cfa: x29 48 +
STACK CFI INIT 1a1d8 14 .cfa: sp 0 +
STACK CFI 1a1dc .cfa: sp 16 +
STACK CFI 1a1e0 .cfa: x29 16 + .ra: .cfa -8 + ^ x29: .cfa -16 + ^
STACK CFI INIT 1a23c 30 .cfa: sp 0 +
STACK CFI 1a240 .cfa: sp 32 +
STACK CFI 1a248 .cfa: x29 32 + x19: .cfa -16 + ^ .ra: .cfa -24 + ^ x29: .cfa -32 + ^
STACK CFI 1a260 .cfa: sp 32 +
STACK CFI 1a268 .cfa: sp 0 +
STACK CFI INIT 1a26c 4 .cfa: sp 0 +
STACK CFI INIT 1a270 4 .cfa: sp 0 +
STACK CFI INIT 1a274 34 .cfa: sp 0 +
STACK CFI 1a278 .cfa: sp 32 +
STACK CFI 1a280 .cfa: x29 32 + x19: .cfa -16 + ^ .ra: .cfa -24 + ^ x29: .cfa -32 + ^
STACK CFI 1a29c .cfa: sp 32 +
STACK CFI 1a2a4 .cfa: sp 0 +
STACK CFI INIT 1a2a8 14 .cfa: sp 0 +
STACK CFI INIT 1a2bc 4 .cfa: sp 0 +
STACK CFI INIT 1a2c0 4 .cfa: sp 0 +
STACK CFI INIT 1a2c4 14 .cfa: sp 0 +
STACK CFI INIT 1a2d8 1c .cfa: sp 0 +
STACK CFI INIT 1a2f4 c .cfa: sp 0 +
STACK CFI INIT 1a300 4 .cfa: sp 0 +
STACK CFI INIT 1a304 14 .cfa: sp 0 +
STACK CFI INIT 1a318 e8 .cfa: sp 0 +
STACK CFI 1a31c .cfa: sp 32 +
STACK CFI 1a324 .cfa: x29 32 + x19: .cfa -8 + ^ x20: .cfa -16 + ^ .ra: .cfa -24 + ^ x29: .cfa -32 + ^
STACK CFI 1a364 .cfa: sp 32 +
STACK CFI 1a36c .cfa: sp 0 +
STACK CFI 1a370 .cfa: x29 32 +
STACK CFI 1a3ac .cfa: sp 32 +
STACK CFI 1a3b4 .cfa: sp 0 +
STACK CFI 1a3b8 .cfa: x29 32 +
STACK CFI 1a3d8 .cfa: sp 32 +
STACK CFI 1a3e0 .cfa: sp 0 +
STACK CFI 1a3e4 .cfa: x29 32 +
STACK CFI 1a3f4 .cfa: sp 32 +
STACK CFI 1a3fc .cfa: sp 0 +
STACK CFI INIT 1a400 ac .cfa: sp 0 +
STACK CFI 1a404 .cfa: sp 64 +
STACK CFI 1a414 .cfa: x29 64 + x19: .cfa -8 + ^ x20: .cfa -16 + ^ x21: .cfa -24 + ^ x22: .cfa -32 + ^ x23: .cfa -48 + ^ .ra: .cfa -56 + ^ x29: .cfa -64 + ^
STACK CFI 1a490 .cfa: sp 64 +
STACK CFI 1a4a0 .cfa: sp 0 +
STACK CFI 1a4a4 .cfa: x29 64 +
STACK CFI INIT 1a4ac 110 .cfa: sp 0 +
STACK CFI 1a4b0 .cfa: sp 64 +
STACK CFI 1a4c0 .cfa: x29 64 + x19: .cfa -8 + ^ x20: .cfa -16 + ^ x21: .cfa -24 + ^ x22: .cfa -32 + ^ x23: .cfa -40 + ^ x24: .cfa -48 + ^ .ra: .cfa -56 + ^ x29: .cfa -64 + ^
STACK CFI 1a5a0 .cfa: sp 64 +
STACK CFI 1a5b0 .cfa: sp 0 +
STACK CFI 1a5b4 .cfa: x29 64 +
STACK CFI INIT 1a934 4 .cfa: sp 0 +
STACK CFI INIT 1a938 14 .cfa: sp 0 +
STACK CFI INIT 1a94c 4 .cfa: sp 0 +
STACK CFI INIT 1a950 14 .cfa: sp 0 +
STACK CFI INIT 1acf0 50 .cfa: sp 0 +
STACK CFI 1acf4 .cfa: sp 32 +
STACK CFI 1acfc .cfa: x29 32 + x19: .cfa -16 + ^ .ra: .cfa -24 + ^ x29: .cfa -32 + ^
STACK CFI 1ad14 .cfa: sp 32 +
STACK CFI 1ad1c .cfa: sp 0 +
STACK CFI 1ad20 .cfa: x29 32 +
STACK CFI 1ad34 .cfa: sp 32 +
STACK CFI 1ad3c .cfa: sp 0 +
STACK CFI INIT 1b1e4 26c .cfa: sp 0 +
STACK CFI 1b1e8 .cfa: sp 112 +
STACK CFI 1b204 .cfa: x29 96 + x19: .cfa -8 + ^ x20: .cfa -16 + ^ x21: .cfa -24 + ^ x22: .cfa -32 + ^ x23: .cfa -40 + ^ x24: .cfa -48 + ^ x25: .cfa -56 + ^ x26: .cfa -64 + ^ x27: .cfa -72 + ^ x28: .cfa -80 + ^ .ra: .cfa -88 + ^ x29: .cfa -96 + ^
STACK CFI 1b430 .cfa: sp 112 +
STACK CFI 1b44c .cfa: sp 0 +
STACK CFI INIT 1b450 1a8 .cfa: sp 0 +
STACK CFI 1b454 .cfa: sp 64 +
STACK CFI 1b464 .cfa: x29 64 + x19: .cfa -8 + ^ x20: .cfa -16 + ^ x21: .cfa -24 + ^ x22: .cfa -32 + ^ x23: .cfa -48 + ^ .ra: .cfa -56 + ^ x29: .cfa -64 + ^
STACK CFI 1b4e8 .cfa: sp 64 +
STACK CFI 1b4f8 .cfa: sp 0 +
STACK CFI 1b4fc .cfa: x29 64 +
STACK CFI 1b504 .cfa: sp 64 +
STACK CFI 1b514 .cfa: sp 0 +
STACK CFI 1b518 .cfa: x29 64 +
STACK CFI 1b5e0 .cfa: sp 64 +
STACK CFI 1b5f0 .cfa: sp 0 +
STACK CFI 1b5f4 .cfa: x29 64 +
STACK CFI INIT 1b5f8 170 .cfa: sp 0 +
STACK CFI 1b5fc .cfa: sp 96 +
STACK CFI 1b614 .cfa: x29 96 + x19: .cfa -8 + ^ x20: .cfa -16 + ^ x21: .cfa -24 + ^ x22: .cfa -32 + ^ x23: .cfa -40 + ^ x24: .cfa -48 + ^ x25: .cfa -56 + ^ x26: .cfa -64 + ^ x27: .cfa -80 + ^ .ra: .cfa -88 + ^ x29: .cfa -96 + ^
STACK CFI 1b748 .cfa: sp 96 +
STACK CFI 1b760 .cfa: sp 0 +
STACK CFI 1b764 .cfa: x29 96 +
STACK CFI INIT 1b768 1bc .cfa: sp 0 +
STACK CFI 1b76c .cfa: sp 96 +
STACK CFI 1b784 .cfa: x29 96 + x19: .cfa -8 + ^ x20: .cfa -16 + ^ x21: .cfa -24 + ^ x22: .cfa -32 + ^ x23: .cfa -40 + ^ x24: .cfa -48 + ^ x25: .cfa -56 + ^ x26: .cfa -64 + ^ x27: .cfa -72 + ^ x28: .cfa -80 + ^ .ra: .cfa -88 + ^ x29: .cfa -96 + ^
STACK CFI 1b908 .cfa: sp 96 +
STACK CFI 1b920 .cfa: sp 0 +
STACK CFI INIT 1b924 1bc .cfa: sp 0 +
STACK CFI 1b928 .cfa: sp 96 +
STACK CFI 1b940 .cfa: x29 96 + x19: .cfa -8 + ^ x20: .cfa -16 + ^ x21: .cfa -24 + ^ x22: .cfa -32 + ^ x23: .cfa -40 + ^ x24: .cfa -48 + ^ x25: .cfa -56 + ^ x26: .cfa -64 + ^ x27: .cfa -72 + ^ x28: .cfa -80 + ^ .ra: .cfa -88 + ^ x29: .cfa -96 + ^
STACK CFI 1bac4 .cfa: sp 96 +
STACK CFI 1badc .cfa: sp 0 +
STACK CFI INIT 1bb2c 4 .cfa: sp 0 +
STACK CFI INIT 1bb30 c .cfa: sp 0 +
STACK CFI INIT 1bb3c 4 .cfa: sp 0 +
STACK CFI INIT 1bb40 4 .cfa: sp 0 +
STACK CFI INIT 1bb44 24 .cfa: sp 0 +
STACK CFI 1bb48 .cfa: sp 32 +
STACK CFI 1bb50 .cfa: x29 32 + x19: .cfa -16 + ^ .ra: .cfa -24 + ^ x29: .cfa -32 + ^
STACK CFI 1bb5c .cfa: sp 32 +
STACK CFI 1bb64 .cfa: sp 0 +
STACK CFI INIT 1bb68 18 .cfa: sp 0 +
STACK CFI INIT 1bb80 1c .cfa: sp 0 +
STACK CFI INIT 1bb9c 4 .cfa: sp 0 +
STACK CFI INIT 1bba0 48 .cfa: sp 0 +
STACK CFI 1bbbc .cfa: sp 32 +
STACK CFI 1bbc4 .cfa: x29 32 + x19: .cfa -16 + ^ .ra: .cfa -24 + ^ x29: .cfa -32 + ^
STACK CFI 1bbdc .cfa: sp 32 +
STACK CFI 1bbe4 .cfa: sp 0 +
STACK CFI INIT 1bbe8 14 .cfa: sp 0 +
STACK CFI INIT 1bbfc 48 .cfa: sp 0 +
STACK CFI 1bc18 .cfa: sp 32 +
STACK CFI 1bc20 .cfa: x29 32 + x19: .cfa -16 + ^ .ra: .cfa -24 + ^ x29: .cfa -32 + ^
STACK CFI 1bc38 .cfa: sp 32 +
STACK CFI 1bc40 .cfa: sp 0 +
STACK CFI INIT 1bfa8 260 .cfa: sp 0 +
STACK CFI 1bfac .cfa: sp 64 +
STACK CFI 1bfbc .cfa: x29 64 + x19: .cfa -8 + ^ x20: .cfa -16 + ^ x21: .cfa -24 + ^ x22: .cfa -32 + ^ x23: .cfa -48 + ^ .ra: .cfa -56 + ^ x29: .cfa -64 + ^
STACK CFI 1c030 .cfa: sp 64 +
STACK CFI 1c040 .cfa: sp 0 +
STACK CFI 1c044 .cfa: x29 64 +
STACK CFI 1c04c .cfa: sp 64 +
STACK CFI 1c05c .cfa: sp 0 +
STACK CFI 1c060 .cfa: x29 64 +
STACK CFI 1c138 .cfa: sp 64 +
STACK CFI 1c148 .cfa: sp 0 +
STACK CFI 1c14c .cfa: x29 64 +
STACK CFI 1c1d8 .cfa: sp 64 +
STACK CFI 1c1e8 .cfa: sp 0 +
STACK CFI 1c1ec .cfa: x29 64 +
STACK CFI INIT 1c208 3f4 .cfa: sp 0 +
STACK CFI 1c20c .cfa: sp 32 +
STACK CFI 1c214 .cfa: x29 32 + x19: .cfa -16 + ^ .ra: .cfa -24 + ^ x29: .cfa -32 + ^
STACK CFI 1c360 .cfa: sp 32 +
STACK CFI 1c368 .cfa: sp 0 +
STACK CFI 1c36c .cfa: x29 32 +
STACK CFI 1c374 .cfa: sp 32 +
STACK CFI 1c37c .cfa: sp 0 +
STACK CFI 1c380 .cfa: x29 32 +
STACK CFI 1c3bc .cfa: sp 32 +
STACK CFI 1c3c4 .cfa: sp 0 +
STACK CFI 1c3c8 .cfa: x29 32 +
STACK CFI 1c404 .cfa: sp 32 +
STACK CFI 1c40c .cfa: sp 0 +
STACK CFI 1c410 .cfa: x29 32 +
STACK CFI 1c43c .cfa: sp 32 +
STACK CFI 1c444 .cfa: sp 0 +
STACK CFI 1c448 .cfa: x29 32 +
STACK CFI 1c464 .cfa: sp 32 +
STACK CFI 1c46c .cfa: sp 0 +
STACK CFI 1c470 .cfa: x29 32 +
STACK CFI 1c4d4 .cfa: sp 32 +
STACK CFI 1c4dc .cfa: sp 0 +
STACK CFI 1c4e0 .cfa: x29 32 +
STACK CFI 1c5b0 .cfa: sp 32 +
STACK CFI 1c5b8 .cfa: sp 0 +
STACK CFI 1c5bc .cfa: x29 32 +
STACK CFI 1c5e8 .cfa: sp 32 +
STACK CFI 1c5f0 .cfa: sp 0 +
STACK CFI 1c5f4 .cfa: x29 32 +
STACK CFI INIT 1c668 b4 .cfa: sp 0 +
STACK CFI 1c66c .cfa: sp 64 +
STACK CFI 1c67c .cfa: x29 64 + x19: .cfa -8 + ^ x20: .cfa -16 + ^ x21: .cfa -24 + ^ x22: .cfa -32 + ^ x23: .cfa -48 + ^ .ra: .cfa -56 + ^ x29: .cfa -64 + ^
STACK CFI 1c708 .cfa: sp 64 +
STACK CFI 1c718 .cfa: sp 0 +
STACK CFI INIT 1c768 60 .cfa: sp 0 +
STACK CFI 1c76c .cfa: sp 32 +
STACK CFI 1c774 .cfa: x29 32 + x19: .cfa -8 + ^ x20: .cfa -16 + ^ .ra: .cfa -24 + ^ x29: .cfa -32 + ^
STACK CFI 1c794 .cfa: sp 32 +
STACK CFI 1c79c .cfa: sp 0 +
STACK CFI 1c7a0 .cfa: x29 32 +
STACK CFI 1c7bc .cfa: sp 32 +
STACK CFI 1c7c4 .cfa: sp 0 +
STACK CFI INIT 1c7c8 48 .cfa: sp 0 +
STACK CFI 1c7e4 .cfa: sp 32 +
STACK CFI 1c7ec .cfa: x29 32 + x19: .cfa -16 + ^ .ra: .cfa -24 + ^ x29: .cfa -32 + ^
STACK CFI 1c804 .cfa: sp 32 +
STACK CFI 1c80c .cfa: sp 0 +
STACK CFI INIT 1c810 64 .cfa: sp 0 +
STACK CFI INIT 1c874 48 .cfa: sp 0 +
STACK CFI 1c890 .cfa: sp 32 +
STACK CFI 1c898 .cfa: x29 32 + x19: .cfa -16 + ^ .ra: .cfa -24 + ^ x29: .cfa -32 + ^
STACK CFI 1c8b0 .cfa: sp 32 +
STACK CFI 1c8b8 .cfa: sp 0 +
STACK CFI INIT 1c8bc 54 .cfa: sp 0 +
STACK CFI INIT 1c910 5c .cfa: sp 0 +
STACK CFI 1c914 .cfa: sp 32 +
STACK CFI 1c91c .cfa: x29 32 + x19: .cfa -16 + ^ .ra: .cfa -24 + ^ x29: .cfa -32 + ^
STACK CFI 1c954 .cfa: sp 32 +
STACK CFI 1c95c .cfa: sp 0 +
STACK CFI 1c960 .cfa: sp 32 +
STACK CFI 1c968 .cfa: sp 0 +
STACK CFI INIT 1c96c 58 .cfa: sp 0 +
STACK CFI 1c970 .cfa: sp 32 +
STACK CFI 1c978 .cfa: x29 32 + x19: .cfa -16 + ^ .ra: .cfa -24 + ^ x29: .cfa -32 + ^
STACK CFI 1c9b8 .cfa: sp 32 +
STACK CFI 1c9c0 .cfa: sp 0 +
STACK CFI INIT 1c9c4 110 .cfa: sp 0 +
STACK CFI INIT 1cad4 90 .cfa: sp 0 +
STACK CFI 1cad8 .cfa: sp 32 +
STACK CFI 1cae0 .cfa: x29 32 + x19: .cfa -8 + ^ x20: .cfa -16 + ^ .ra: .cfa -24 + ^ x29: .cfa -32 + ^
STACK CFI 1cb4c .cfa: sp 32 +
STACK CFI 1cb54 .cfa: sp 0 +
STACK CFI 1cb58 .cfa: sp 32 +
STACK CFI 1cb60 .cfa: sp 0 +
STACK CFI INIT 1cb64 8c .cfa: sp 0 +
STACK CFI 1cb68 .cfa: sp 32 +
STACK CFI 1cb70 .cfa: x29 32 + x19: .cfa -8 + ^ x20: .cfa -16 + ^ .ra: .cfa -24 + ^ x29: .cfa -32 + ^
STACK CFI 1cbe4 .cfa: sp 32 +
STACK CFI 1cbec .cfa: sp 0 +
STACK CFI INIT 1d220 1d4 .cfa: sp 0 +
STACK CFI 1d224 .cfa: sp 48 +
STACK CFI 1d230 .cfa: x29 48 + x19: .cfa -8 + ^ x20: .cfa -16 + ^ x21: .cfa -24 + ^ x22: .cfa -32 + ^ .ra: .cfa -40 + ^ x29: .cfa -48 + ^
STACK CFI 1d3c0 .cfa: sp 48 +
STACK CFI 1d3cc .cfa: sp 0 +
STACK CFI 1d3d0 .cfa: x29 48 +
STACK CFI 1d3dc .cfa: sp 48 +
STACK CFI 1d3e8 .cfa: sp 0 +
STACK CFI 1d3ec .cfa: x29 48 +
STACK CFI INIT 1d3f4 14 .cfa: sp 0 +
STACK CFI 1d3f8 .cfa: sp 16 +
STACK CFI 1d3fc .cfa: x29 16 + .ra: .cfa -8 + ^ x29: .cfa -16 + ^
STACK CFI INIT 1d408 44 .cfa: sp 0 +
STACK CFI 1d40c .cfa: sp 32 +
STACK CFI 1d414 .cfa: x29 32 + x19: .cfa -16 + ^ .ra: .cfa -24 + ^ x29: .cfa -32 + ^
STACK CFI 1d434 .cfa: sp 32 +
STACK CFI 1d43c .cfa: sp 0 +
STACK CFI 1d440 .cfa: sp 32 +
STACK CFI 1d448 .cfa: sp 0 +
STACK CFI INIT 1d65c 98 .cfa: sp 0 +
STACK CFI 1d660 .cfa: sp 48 +
STACK CFI 1d66c .cfa: x29 48 + x19: .cfa -8 + ^ x20: .cfa -16 + ^ x21: .cfa -32 + ^ .ra: .cfa -40 + ^ x29: .cfa -48 + ^
STACK CFI 1d68c .cfa: sp 48 +
STACK CFI 1d698 .cfa: sp 0 +
STACK CFI 1d69c .cfa: x29 48 +
STACK CFI 1d6d4 .cfa: sp 48 +
STACK CFI 1d6e0 .cfa: sp 0 +
STACK CFI 1d6e4 .cfa: sp 48 +
STACK CFI 1d6f0 .cfa: sp 0 +
STACK CFI INIT 1d6f4 1e0 .cfa: sp 0 +
STACK CFI 1d6f8 .cfa: sp 48 +
STACK CFI 1d704 .cfa: x29 48 + x19: .cfa -8 + ^ x20: .cfa -16 + ^ x21: .cfa -24 + ^ x22: .cfa -32 + ^ .ra: .cfa -40 + ^ x29: .cfa -48 + ^
STACK CFI 1d8b8 .cfa: sp 48 +
STACK CFI 1d8c4 .cfa: sp 0 +
STACK CFI 1d8c8 .cfa: x29 48 +
STACK CFI INIT 1d8d4 14 .cfa: sp 0 +
STACK CFI 1d8d8 .cfa: sp 16 +
STACK CFI 1d8dc .cfa: x29 16 + .ra: .cfa -8 + ^ x29: .cfa -16 + ^
STACK CFI INIT 1d8e8 1a8 .cfa: sp 0 +
STACK CFI 1d8ec .cfa: sp 64 +
STACK CFI 1d8fc .cfa: x29 64 + x19: .cfa -8 + ^ x20: .cfa -16 + ^ x21: .cfa -24 + ^ x22: .cfa -32 + ^ x23: .cfa -40 + ^ x24: .cfa -48 + ^ .ra: .cfa -56 + ^ x29: .cfa -64 + ^
STACK CFI 1da60 .cfa: sp 64 +
STACK CFI 1da70 .cfa: sp 0 +
STACK CFI 1da74 .cfa: sp 64 +
STACK CFI 1da84 .cfa: sp 0 +
STACK CFI 1da88 .cfa: x29 64 +
STACK CFI INIT 1da90 130 .cfa: sp 0 +
STACK CFI 1da94 .cfa: sp 64 +
STACK CFI 1daa4 .cfa: x29 64 + x19: .cfa -8 + ^ x20: .cfa -16 + ^ x21: .cfa -24 + ^ x22: .cfa -32 + ^ x23: .cfa -40 + ^ x24: .cfa -48 + ^ .ra: .cfa -56 + ^ x29: .cfa -64 + ^
STACK CFI 1db8c .cfa: sp 64 +
STACK CFI 1db9c .cfa: sp 0 +
STACK CFI 1dba0 .cfa: sp 64 +
STACK CFI 1dbb0 .cfa: sp 0 +
STACK CFI 1dbb4 .cfa: x29 64 +
STACK CFI INIT 1dbc0 14 .cfa: sp 0 +
STACK CFI 1dbc4 .cfa: sp 16 +
STACK CFI 1dbc8 .cfa: x29 16 + .ra: .cfa -8 + ^ x29: .cfa -16 + ^
STACK CFI INIT 1dbd4 18c .cfa: sp 0 +
STACK CFI 1dbd8 .cfa: sp 64 +
STACK CFI 1dbe8 .cfa: x29 64 + x19: .cfa -8 + ^ x20: .cfa -16 + ^ x21: .cfa -24 + ^ x22: .cfa -32 + ^ x23: .cfa -48 + ^ .ra: .cfa -56 + ^ x29: .cfa -64 + ^
STACK CFI 1dc24 .cfa: sp 64 +
STACK CFI 1dc34 .cfa: sp 0 +
STACK CFI 1dc38 .cfa: x29 64 +
STACK CFI 1dc40 .cfa: sp 64 +
STACK CFI 1dc50 .cfa: sp 0 +
STACK CFI 1dc54 .cfa: x29 64 +
STACK CFI 1dd14 .cfa: sp 64 +
STACK CFI 1dd24 .cfa: sp 0 +
STACK CFI 1dd28 .cfa: x29 64 +
STACK CFI 1dd44 .cfa: sp 64 +
STACK CFI 1dd54 .cfa: sp 0 +
STACK CFI 1dd58 .cfa: x29 64 +
STACK CFI INIT 1df00 78 .cfa: sp 0 +
STACK CFI 1df04 .cfa: sp 32 +
STACK CFI 1df0c .cfa: x29 32 + x19: .cfa -16 + ^ .ra: .cfa -24 + ^ x29: .cfa -32 + ^
STACK CFI 1df48 .cfa: sp 32 +
STACK CFI 1df50 .cfa: sp 0 +
STACK CFI 1df54 .cfa: x29 32 +
STACK CFI 1df6c .cfa: sp 32 +
STACK CFI 1df74 .cfa: sp 0 +
STACK CFI INIT 1df78 48 .cfa: sp 0 +
STACK CFI 1df94 .cfa: sp 32 +
STACK CFI 1df9c .cfa: x29 32 + x19: .cfa -16 + ^ .ra: .cfa -24 + ^ x29: .cfa -32 + ^
STACK CFI 1dfb4 .cfa: sp 32 +
STACK CFI 1dfbc .cfa: sp 0 +
STACK CFI INIT 1e260 50c .cfa: sp 0 +
STACK CFI 1e264 .cfa: sp 32 +
STACK CFI 1e26c .cfa: x29 32 + x19: .cfa -16 + ^ .ra: .cfa -24 + ^ x29: .cfa -32 + ^
STACK CFI 1e3b4 .cfa: sp 32 +
STACK CFI 1e3bc .cfa: sp 0 +
STACK CFI 1e3c0 .cfa: x29 32 +
STACK CFI 1e530 .cfa: sp 32 +
STACK CFI 1e538 .cfa: sp 0 +
STACK CFI 1e53c .cfa: x29 32 +
STACK CFI 1e558 .cfa: sp 32 +
STACK CFI 1e560 .cfa: sp 0 +
STACK CFI 1e564 .cfa: x29 32 +
STACK CFI 1e5c0 .cfa: sp 32 +
STACK CFI 1e5c8 .cfa: sp 0 +
STACK CFI 1e5cc .cfa: x29 32 +
STACK CFI 1e5e8 .cfa: sp 32 +
STACK CFI 1e5f0 .cfa: sp 0 +
STACK CFI 1e5f4 .cfa: x29 32 +
STACK CFI 1e610 .cfa: sp 32 +
STACK CFI 1e618 .cfa: sp 0 +
STACK CFI 1e61c .cfa: x29 32 +
STACK CFI 1e638 .cfa: sp 32 +
STACK CFI 1e640 .cfa: sp 0 +
STACK CFI 1e644 .cfa: x29 32 +
STACK CFI 1e65c .cfa: sp 32 +
STACK CFI 1e664 .cfa: sp 0 +
STACK CFI 1e668 .cfa: x29 32 +
STACK CFI 1e684 .cfa: sp 32 +
STACK CFI 1e68c .cfa: sp 0 +
STACK CFI 1e690 .cfa: x29 32 +
STACK CFI 1e6ac .cfa: sp 32 +
STACK CFI 1e6b4 .cfa: sp 0 +
STACK CFI 1e6b8 .cfa: x29 32 +
STACK CFI 1e6d4 .cfa: sp 32 +
STACK CFI 1e6dc .cfa: sp 0 +
STACK CFI 1e6e0 .cfa: x29 32 +
STACK CFI 1e734 .cfa: sp 32 +
STACK CFI 1e73c .cfa: sp 0 +
STACK CFI 1e740 .cfa: x29 32 +
STACK CFI 1e75c .cfa: sp 32 +
STACK CFI 1e764 .cfa: sp 0 +
STACK CFI 1e768 .cfa: x29 32 +
STACK CFI INIT 1e8f8 c8 .cfa: sp 0 +
STACK CFI 1e8fc .cfa: sp 48 +
STACK CFI 1e908 .cfa: x29 48 + x19: .cfa -8 + ^ x20: .cfa -16 + ^ x21: .cfa -32 + ^ .ra: .cfa -40 + ^ x29: .cfa -48 + ^
STACK CFI 1e9b0 .cfa: sp 48 +
STACK CFI 1e9bc .cfa: sp 0 +
STACK CFI INIT 1e9c0 5c .cfa: sp 0 +
STACK CFI 1e9c4 .cfa: sp 32 +
STACK CFI 1e9cc .cfa: x29 32 + x19: .cfa -16 + ^ .ra: .cfa -24 + ^ x29: .cfa -32 + ^
STACK CFI 1ea04 .cfa: sp 32 +
STACK CFI 1ea0c .cfa: sp 0 +
STACK CFI 1ea10 .cfa: sp 32 +
STACK CFI 1ea18 .cfa: sp 0 +
STACK CFI INIT 1ea1c 58 .cfa: sp 0 +
STACK CFI 1ea20 .cfa: sp 32 +
STACK CFI 1ea28 .cfa: x29 32 + x19: .cfa -16 + ^ .ra: .cfa -24 + ^ x29: .cfa -32 + ^
STACK CFI 1ea68 .cfa: sp 32 +
STACK CFI 1ea70 .cfa: sp 0 +
STACK CFI INIT 1ea74 80 .cfa: sp 0 +
STACK CFI 1ea78 .cfa: sp 32 +
STACK CFI 1ea80 .cfa: x29 32 + x19: .cfa -8 + ^ x20: .cfa -16 + ^ .ra: .cfa -24 + ^ x29: .cfa -32 + ^
STACK CFI 1ead0 .cfa: sp 32 +
STACK CFI 1ead8 .cfa: sp 0 +
STACK CFI 1eadc .cfa: x29 32 +
STACK CFI 1eae8 .cfa: sp 32 +
STACK CFI 1eaf0 .cfa: sp 0 +
STACK CFI INIT 1eaf4 5c .cfa: sp 0 +
STACK CFI 1eaf8 .cfa: sp 32 +
STACK CFI 1eb00 .cfa: x29 32 + x19: .cfa -16 + ^ .ra: .cfa -24 + ^ x29: .cfa -32 + ^
STACK CFI 1eb38 .cfa: sp 32 +
STACK CFI 1eb40 .cfa: sp 0 +
STACK CFI 1eb44 .cfa: sp 32 +
STACK CFI 1eb4c .cfa: sp 0 +
STACK CFI INIT 1eb50 58 .cfa: sp 0 +
STACK CFI 1eb54 .cfa: sp 32 +
STACK CFI 1eb5c .cfa: x29 32 + x19: .cfa -16 + ^ .ra: .cfa -24 + ^ x29: .cfa -32 + ^
STACK CFI 1eb9c .cfa: sp 32 +
STACK CFI 1eba4 .cfa: sp 0 +
STACK CFI INIT 1eba8 48 .cfa: sp 0 +
STACK CFI INIT 1ebf0 48 .cfa: sp 0 +
STACK CFI 1ec0c .cfa: sp 32 +
STACK CFI 1ec14 .cfa: x29 32 + x19: .cfa -16 + ^ .ra: .cfa -24 + ^ x29: .cfa -32 + ^
STACK CFI 1ec2c .cfa: sp 32 +
STACK CFI 1ec34 .cfa: sp 0 +
STACK CFI INIT 1ec38 48 .cfa: sp 0 +
STACK CFI INIT 1ec80 5c .cfa: sp 0 +
STACK CFI 1ec84 .cfa: sp 32 +
STACK CFI 1ec8c .cfa: x29 32 + x19: .cfa -16 + ^ .ra: .cfa -24 + ^ x29: .cfa -32 + ^
STACK CFI 1ecc4 .cfa: sp 32 +
STACK CFI 1eccc .cfa: sp 0 +
STACK CFI 1ecd0 .cfa: sp 32 +
STACK CFI 1ecd8 .cfa: sp 0 +
STACK CFI INIT 1ecdc 58 .cfa: sp 0 +
STACK CFI 1ece0 .cfa: sp 32 +
STACK CFI 1ece8 .cfa: x29 32 + x19: .cfa -16 + ^ .ra: .cfa -24 + ^ x29: .cfa -32 + ^
STACK CFI 1ed28 .cfa: sp 32 +
STACK CFI 1ed30 .cfa: sp 0 +
STACK CFI INIT 1ed34 f8 .cfa: sp 0 +
STACK CFI 1ed38 .cfa: sp 64 +
STACK CFI 1ed48 .cfa: x29 64 + x19: .cfa -8 + ^ x20: .cfa -16 + ^ x21: .cfa -24 + ^ x22: .cfa -32 + ^ x23: .cfa -40 + ^ x24: .cfa -48 + ^ .ra: .cfa -56 + ^ x29: .cfa -64 + ^
STACK CFI 1ed8c .cfa: sp 64 +
STACK CFI 1ed9c .cfa: sp 0 +
STACK CFI 1eda0 .cfa: x29 64 +
STACK CFI 1ee18 .cfa: sp 64 +
STACK CFI 1ee28 .cfa: sp 0 +
STACK CFI INIT 1ee2c 5c .cfa: sp 0 +
STACK CFI 1ee30 .cfa: sp 32 +
STACK CFI 1ee38 .cfa: x29 32 + x19: .cfa -16 + ^ .ra: .cfa -24 + ^ x29: .cfa -32 + ^
STACK CFI 1ee70 .cfa: sp 32 +
STACK CFI 1ee78 .cfa: sp 0 +
STACK CFI 1ee7c .cfa: sp 32 +
STACK CFI 1ee84 .cfa: sp 0 +
STACK CFI INIT 1ee88 58 .cfa: sp 0 +
STACK CFI 1ee8c .cfa: sp 32 +
STACK CFI 1ee94 .cfa: x29 32 + x19: .cfa -16 + ^ .ra: .cfa -24 + ^ x29: .cfa -32 + ^
STACK CFI 1eed4 .cfa: sp 32 +
STACK CFI 1eedc .cfa: sp 0 +
STACK CFI INIT 1eee0 90 .cfa: sp 0 +
STACK CFI INIT 1ef70 48 .cfa: sp 0 +
STACK CFI 1ef8c .cfa: sp 32 +
STACK CFI 1ef94 .cfa: x29 32 + x19: .cfa -16 + ^ .ra: .cfa -24 + ^ x29: .cfa -32 + ^
STACK CFI 1efac .cfa: sp 32 +
STACK CFI 1efb4 .cfa: sp 0 +
STACK CFI INIT 1efb8 d0 .cfa: sp 0 +
STACK CFI 1efbc .cfa: sp 48 +
STACK CFI 1efc8 .cfa: x29 48 + x19: .cfa -8 + ^ x20: .cfa -16 + ^ x21: .cfa -24 + ^ x22: .cfa -32 + ^ .ra: .cfa -40 + ^ x29: .cfa -48 + ^
STACK CFI 1f04c .cfa: sp 48 +
STACK CFI 1f058 .cfa: sp 0 +
STACK CFI 1f05c .cfa: x29 48 +
STACK CFI 1f074 .cfa: sp 48 +
STACK CFI 1f080 .cfa: sp 0 +
STACK CFI 1f084 .cfa: x29 48 +
STACK CFI INIT 1f088 4b4 .cfa: sp 0 +
STACK CFI 1f08c .cfa: sp 80 +
STACK CFI 1f0a0 .cfa: x29 80 + x19: .cfa -8 + ^ x20: .cfa -16 + ^ x21: .cfa -24 + ^ x22: .cfa -32 + ^ x23: .cfa -40 + ^ x24: .cfa -48 + ^ x25: .cfa -64 + ^ .ra: .cfa -72 + ^ x29: .cfa -80 + ^
STACK CFI 1f0d4 .cfa: sp 80 +
STACK CFI 1f0e8 .cfa: sp 0 +
STACK CFI 1f0ec .cfa: x29 80 +
STACK CFI 1f4ac .cfa: sp 80 +
STACK CFI 1f4c0 .cfa: sp 0 +
STACK CFI 1f4c4 .cfa: x29 80 +
STACK CFI 1f51c .cfa: sp 80 +
STACK CFI 1f530 .cfa: sp 0 +
STACK CFI 1f534 .cfa: x29 80 +
STACK CFI INIT 1f718 7c .cfa: sp 0 +
STACK CFI 1f71c .cfa: sp 48 +
STACK CFI 1f728 .cfa: x29 48 + x19: .cfa -8 + ^ x20: .cfa -16 + ^ x21: .cfa -32 + ^ .ra: .cfa -40 + ^ x29: .cfa -48 + ^
STACK CFI 1f774 .cfa: sp 48 +
STACK CFI 1f780 .cfa: sp 0 +
STACK CFI 1f784 .cfa: sp 48 +
STACK CFI 1f790 .cfa: sp 0 +
STACK CFI INIT 1f794 a4 .cfa: sp 0 +
STACK CFI 1f798 .cfa: sp 48 +
STACK CFI 1f7a4 .cfa: x29 48 + x19: .cfa -8 + ^ x20: .cfa -16 + ^ x21: .cfa -32 + ^ .ra: .cfa -40 + ^ x29: .cfa -48 + ^
STACK CFI 1f7c4 .cfa: sp 48 +
STACK CFI 1f7d0 .cfa: sp 0 +
STACK CFI 1f7d4 .cfa: x29 48 +
STACK CFI 1f818 .cfa: sp 48 +
STACK CFI 1f824 .cfa: sp 0 +
STACK CFI 1f828 .cfa: sp 48 +
STACK CFI 1f834 .cfa: sp 0 +
STACK CFI INIT 1f838 14c .cfa: sp 0 +
STACK CFI 1f83c .cfa: sp 48 +
STACK CFI 1f848 .cfa: x29 48 + x19: .cfa -8 + ^ x20: .cfa -16 + ^ x21: .cfa -32 + ^ .ra: .cfa -40 + ^ x29: .cfa -48 + ^
STACK CFI 1f964 .cfa: sp 48 +
STACK CFI 1f970 .cfa: sp 0 +
STACK CFI 1f974 .cfa: sp 48 +
STACK CFI 1f980 .cfa: sp 0 +
STACK CFI INIT 1f984 24 .cfa: sp 0 +
STACK CFI 1f988 .cfa: sp 32 +
STACK CFI 1f990 .cfa: x29 32 + x19: .cfa -16 + ^ .ra: .cfa -24 + ^ x29: .cfa -32 + ^
STACK CFI 1f99c .cfa: sp 32 +
STACK CFI 1f9a4 .cfa: sp 0 +
STACK CFI INIT 204a0 44 .cfa: sp 0 +
STACK CFI 204a4 .cfa: sp 32 +
STACK CFI 204ac .cfa: x29 32 + x19: .cfa -16 + ^ .ra: .cfa -24 + ^ x29: .cfa -32 + ^
STACK CFI 204c8 .cfa: sp 32 +
STACK CFI 204d0 .cfa: sp 0 +
STACK CFI 204d4 .cfa: x29 32 +
STACK CFI 204d8 .cfa: sp 32 +
STACK CFI 204e0 .cfa: sp 0 +
STACK CFI INIT 2095c 14 .cfa: sp 0 +
STACK CFI 20960 .cfa: sp 16 +
STACK CFI 20964 .cfa: x29 16 + .ra: .cfa -8 + ^ x29: .cfa -16 + ^
STACK CFI INIT 21264 12c .cfa: sp 0 +
STACK CFI 21268 .cfa: sp 80 +
STACK CFI 21278 .cfa: x29 48 + x19: .cfa -8 + ^ x20: .cfa -16 + ^ x21: .cfa -24 + ^ x22: .cfa -32 + ^ .ra: .cfa -40 + ^ x29: .cfa -48 + ^
STACK CFI 21350 .cfa: sp 80 +
STACK CFI 21360 .cfa: sp 0 +
STACK CFI 21364 .cfa: x29 48 +
STACK CFI INIT 21390 1d4 .cfa: sp 0 +
STACK CFI 21394 .cfa: sp 32 +
STACK CFI 2139c .cfa: x29 32 + x19: .cfa -16 + ^ .ra: .cfa -24 + ^ x29: .cfa -32 + ^
STACK CFI 213d4 .cfa: sp 32 +
STACK CFI 213dc .cfa: sp 0 +
STACK CFI 213e0 .cfa: x29 32 +
STACK CFI 21408 .cfa: sp 32 +
STACK CFI 21410 .cfa: sp 0 +
STACK CFI 21414 .cfa: x29 32 +
STACK CFI 21444 .cfa: sp 32 +
STACK CFI 2144c .cfa: sp 0 +
STACK CFI 21450 .cfa: x29 32 +
STACK CFI 21480 .cfa: sp 32 +
STACK CFI 21488 .cfa: sp 0 +
STACK CFI 2148c .cfa: x29 32 +
STACK CFI 214a4 .cfa: sp 32 +
STACK CFI 214ac .cfa: sp 0 +
STACK CFI 214b0 .cfa: x29 32 +
STACK CFI 214cc .cfa: sp 32 +
STACK CFI 214d4 .cfa: sp 0 +
STACK CFI 214d8 .cfa: x29 32 +
STACK CFI 214e8 .cfa: sp 32 +
STACK CFI 214f0 .cfa: sp 0 +
STACK CFI 214f4 .cfa: x29 32 +
STACK CFI 21504 .cfa: sp 32 +
STACK CFI 2150c .cfa: sp 0 +
STACK CFI 21510 .cfa: sp 32 +
STACK CFI 21518 .cfa: sp 0 +
STACK CFI 2151c .cfa: x29 32 +
STACK CFI 21530 .cfa: sp 32 +
STACK CFI 21538 .cfa: sp 0 +
STACK CFI 2153c .cfa: x29 32 +
STACK CFI 21554 .cfa: sp 32 +
STACK CFI 2155c .cfa: sp 0 +
STACK CFI 21560 .cfa: x29 32 +
STACK CFI INIT 21564 4c4 .cfa: sp 0 +
STACK CFI 21568 .cfa: sp 32 +
STACK CFI 21570 .cfa: x29 32 + x19: .cfa -16 + ^ .ra: .cfa -24 + ^ x29: .cfa -32 + ^
STACK CFI 215c4 .cfa: sp 32 +
STACK CFI 215cc .cfa: sp 0 +
STACK CFI 215d0 .cfa: x29 32 +
STACK CFI 21610 .cfa: sp 32 +
STACK CFI 21618 .cfa: sp 0 +
STACK CFI 2161c .cfa: x29 32 +
STACK CFI 2164c .cfa: sp 32 +
STACK CFI 21654 .cfa: sp 0 +
STACK CFI 21658 .cfa: x29 32 +
STACK CFI 21688 .cfa: sp 32 +
STACK CFI 21690 .cfa: sp 0 +
STACK CFI 21694 .cfa: x29 32 +
STACK CFI 216a4 .cfa: sp 32 +
STACK CFI 216ac .cfa: sp 0 +
STACK CFI 216b0 .cfa: x29 32 +
STACK CFI 216d0 .cfa: sp 32 +
STACK CFI 216d8 .cfa: sp 0 +
STACK CFI 216dc .cfa: x29 32 +
STACK CFI 216fc .cfa: sp 32 +
STACK CFI 21704 .cfa: sp 0 +
STACK CFI 21708 .cfa: x29 32 +
STACK CFI 21728 .cfa: sp 32 +
STACK CFI 21730 .cfa: sp 0 +
STACK CFI 21734 .cfa: x29 32 +
STACK CFI 21754 .cfa: sp 32 +
STACK CFI 2175c .cfa: sp 0 +
STACK CFI 21760 .cfa: x29 32 +
STACK CFI 217e4 .cfa: sp 32 +
STACK CFI 217ec .cfa: sp 0 +
STACK CFI 217f0 .cfa: x29 32 +
STACK CFI 21800 .cfa: sp 32 +
STACK CFI 21808 .cfa: sp 0 +
STACK CFI 2180c .cfa: x29 32 +
STACK CFI 2181c .cfa: sp 32 +
STACK CFI 21824 .cfa: sp 0 +
STACK CFI 21828 .cfa: x29 32 +
STACK CFI 21838 .cfa: sp 32 +
STACK CFI 21840 .cfa: sp 0 +
STACK CFI 21844 .cfa: x29 32 +
STACK CFI 21854 .cfa: sp 32 +
STACK CFI 2185c .cfa: sp 0 +
STACK CFI 21860 .cfa: x29 32 +
STACK CFI 21870 .cfa: sp 32 +
STACK CFI 21878 .cfa: sp 0 +
STACK CFI 2187c .cfa: x29 32 +
STACK CFI 2188c .cfa: sp 32 +
STACK CFI 21894 .cfa: sp 0 +
STACK CFI 21898 .cfa: x29 32 +
STACK CFI 218a8 .cfa: sp 32 +
STACK CFI 218b0 .cfa: sp 0 +
STACK CFI 218b4 .cfa: x29 32 +
STACK CFI 218d8 .cfa: sp 32 +
STACK CFI 218e0 .cfa: sp 0 +
STACK CFI 218e4 .cfa: x29 32 +
STACK CFI 218fc .cfa: sp 32 +
STACK CFI 21904 .cfa: sp 0 +
STACK CFI 21908 .cfa: x29 32 +
STACK CFI 21920 .cfa: sp 32 +
STACK CFI 21928 .cfa: sp 0 +
STACK CFI 2192c .cfa: x29 32 +
STACK CFI 21944 .cfa: sp 32 +
STACK CFI 2194c .cfa: sp 0 +
STACK CFI 21950 .cfa: x29 32 +
STACK CFI 21968 .cfa: sp 32 +
STACK CFI 21970 .cfa: sp 0 +
STACK CFI 21974 .cfa: x29 32 +
STACK CFI 2198c .cfa: sp 32 +
STACK CFI 21994 .cfa: sp 0 +
STACK CFI 21998 .cfa: x29 32 +
STACK CFI 219b0 .cfa: sp 32 +
STACK CFI 219b8 .cfa: sp 0 +
STACK CFI 219bc .cfa: x29 32 +
STACK CFI 219d4 .cfa: sp 32 +
STACK CFI 219dc .cfa: sp 0 +
STACK CFI 219e0 .cfa: x29 32 +
STACK CFI 219f8 .cfa: sp 32 +
STACK CFI 21a00 .cfa: sp 0 +
STACK CFI 21a04 .cfa: x29 32 +
STACK CFI 21a18 .cfa: sp 32 +
STACK CFI 21a20 .cfa: sp 0 +
STACK CFI 21a24 .cfa: x29 32 +
STACK CFI INIT 21ec8 424 .cfa: sp 0 +
STACK CFI 21ecc .cfa: sp 80 +
STACK CFI 21ee0 .cfa: x29 80 + x19: .cfa -8 + ^ x20: .cfa -16 + ^ x21: .cfa -24 + ^ x22: .cfa -32 + ^ x23: .cfa -40 + ^ x24: .cfa -48 + ^ x25: .cfa -64 + ^ .ra: .cfa -72 + ^ x29: .cfa -80 + ^
STACK CFI 21f34 .cfa: sp 80 +
STACK CFI 21f48 .cfa: sp 0 +
STACK CFI 21f4c .cfa: x29 80 +
STACK CFI 220f4 .cfa: sp 80 +
STACK CFI 22108 .cfa: sp 0 +
STACK CFI 2210c .cfa: x29 80 +
STACK CFI 222c8 .cfa: sp 80 +
STACK CFI 222dc .cfa: sp 0 +
STACK CFI 222e0 .cfa: x29 80 +
STACK CFI INIT 229d0 4b4 .cfa: sp 0 +
STACK CFI 229d4 .cfa: sp 80 +
STACK CFI 229e8 .cfa: x29 80 + x19: .cfa -8 + ^ x20: .cfa -16 + ^ x21: .cfa -24 + ^ x22: .cfa -32 + ^ x23: .cfa -40 + ^ x24: .cfa -48 + ^ x25: .cfa -64 + ^ .ra: .cfa -72 + ^ x29: .cfa -80 + ^
STACK CFI 22a1c .cfa: sp 80 +
STACK CFI 22a30 .cfa: sp 0 +
STACK CFI 22a34 .cfa: x29 80 +
STACK CFI 22df4 .cfa: sp 80 +
STACK CFI 22e08 .cfa: sp 0 +
STACK CFI 22e0c .cfa: x29 80 +
STACK CFI 22e64 .cfa: sp 80 +
STACK CFI 22e78 .cfa: sp 0 +
STACK CFI 22e7c .cfa: x29 80 +
STACK CFI INIT 23084 1ac .cfa: sp 0 +
STACK CFI 23088 .cfa: sp 48 +
STACK CFI 23094 .cfa: x29 48 + x19: .cfa -8 + ^ x20: .cfa -16 + ^ x21: .cfa -24 + ^ x22: .cfa -32 + ^ .ra: .cfa -40 + ^ x29: .cfa -48 + ^
STACK CFI 23214 .cfa: sp 48 +
STACK CFI 23220 .cfa: sp 0 +
STACK CFI 23224 .cfa: x29 48 +
STACK CFI INIT 23230 14 .cfa: sp 0 +
STACK CFI 23234 .cfa: sp 16 +
STACK CFI 23238 .cfa: x29 16 + .ra: .cfa -8 + ^ x29: .cfa -16 + ^
STACK CFI INIT 23244 14 .cfa: sp 0 +
STACK CFI 23248 .cfa: sp 16 +
STACK CFI 2324c .cfa: x29 16 + .ra: .cfa -8 + ^ x29: .cfa -16 + ^
STACK CFI INIT 23258 48 .cfa: sp 0 +
STACK CFI 23274 .cfa: sp 32 +
STACK CFI 2327c .cfa: x29 32 + x19: .cfa -16 + ^ .ra: .cfa -24 + ^ x29: .cfa -32 + ^
STACK CFI 23294 .cfa: sp 32 +
STACK CFI 2329c .cfa: sp 0 +
STACK CFI INIT 232a0 30 .cfa: sp 0 +
STACK CFI INIT 232d0 48 .cfa: sp 0 +
STACK CFI 232ec .cfa: sp 32 +
STACK CFI 232f4 .cfa: x29 32 + x19: .cfa -16 + ^ .ra: .cfa -24 + ^ x29: .cfa -32 + ^
STACK CFI 2330c .cfa: sp 32 +
STACK CFI 23314 .cfa: sp 0 +
STACK CFI INIT 23318 38 .cfa: sp 0 +
STACK CFI INIT 23528 68 .cfa: sp 0 +
STACK CFI 2352c .cfa: sp 32 +
STACK CFI 23534 .cfa: x29 32 + x19: .cfa -16 + ^ .ra: .cfa -24 + ^ x29: .cfa -32 + ^
STACK CFI 23584 .cfa: sp 32 +
STACK CFI 2358c .cfa: sp 0 +
STACK CFI INIT 23590 1c4 .cfa: sp 0 +
STACK CFI INIT 23754 c4 .cfa: sp 0 +
STACK CFI INIT 23818 68 .cfa: sp 0 +
STACK CFI 2381c .cfa: sp 32 +
STACK CFI 23824 .cfa: x29 32 + x19: .cfa -16 + ^ .ra: .cfa -24 + ^ x29: .cfa -32 + ^
STACK CFI 23874 .cfa: sp 32 +
STACK CFI 2387c .cfa: sp 0 +
STACK CFI INIT 23880 4 .cfa: sp 0 +
STACK CFI INIT 23884 14 .cfa: sp 0 +
STACK CFI INIT 23898 6c .cfa: sp 0 +
STACK CFI 2389c .cfa: sp 32 +
STACK CFI 238a4 .cfa: x29 32 + x19: .cfa -16 + ^ .ra: .cfa -24 + ^ x29: .cfa -32 + ^
STACK CFI 238ec .cfa: sp 32 +
STACK CFI 238f4 .cfa: sp 0 +
STACK CFI 238f8 .cfa: sp 32 +
STACK CFI 23900 .cfa: sp 0 +
STACK CFI INIT 23904 68 .cfa: sp 0 +
STACK CFI 23908 .cfa: sp 32 +
STACK CFI 23910 .cfa: x29 32 + x19: .cfa -16 + ^ .ra: .cfa -24 + ^ x29: .cfa -32 + ^
STACK CFI 23960 .cfa: sp 32 +
STACK CFI 23968 .cfa: sp 0 +
STACK CFI INIT 2396c c .cfa: sp 0 +
STACK CFI INIT 23978 24 .cfa: sp 0 +
STACK CFI INIT 2399c 4 .cfa: sp 0 +
STACK CFI INIT 239a0 4 .cfa: sp 0 +
STACK CFI INIT 239a4 14 .cfa: sp 0 +
STACK CFI INIT 23a04 22c .cfa: sp 0 +
STACK CFI 23a08 .cfa: sp 64 +
STACK CFI 23a18 .cfa: x29 64 + x19: .cfa -8 + ^ x20: .cfa -16 + ^ x21: .cfa -24 + ^ x22: .cfa -32 + ^ x23: .cfa -40 + ^ x24: .cfa -48 + ^ .ra: .cfa -56 + ^ x29: .cfa -64 + ^
STACK CFI 23ac4 .cfa: sp 64 +
STACK CFI 23ad4 .cfa: sp 0 +
STACK CFI 23ad8 .cfa: x29 64 +
STACK CFI 23b18 .cfa: sp 64 +
STACK CFI 23b28 .cfa: sp 0 +
STACK CFI 23b2c .cfa: x29 64 +
STACK CFI 23b30 .cfa: sp 64 +
STACK CFI 23b40 .cfa: sp 0 +
STACK CFI 23b44 .cfa: x29 64 +
STACK CFI 23c14 .cfa: sp 64 +
STACK CFI 23c24 .cfa: sp 0 +
STACK CFI 23c28 .cfa: x29 64 +
STACK CFI INIT 23c30 270 .cfa: sp 0 +
STACK CFI 23c34 .cfa: sp 32 +
STACK CFI 23c3c .cfa: x29 32 + x19: .cfa -16 + ^ .ra: .cfa -24 + ^ x29: .cfa -32 + ^
STACK CFI 23c74 .cfa: sp 32 +
STACK CFI 23c7c .cfa: sp 0 +
STACK CFI 23c80 .cfa: x29 32 +
STACK CFI 23dc8 .cfa: sp 32 +
STACK CFI 23dd0 .cfa: sp 0 +
STACK CFI 23dd4 .cfa: x29 32 +
STACK CFI 23e10 .cfa: sp 32 +
STACK CFI 23e18 .cfa: sp 0 +
STACK CFI 23e1c .cfa: x29 32 +
STACK CFI 23e90 .cfa: sp 32 +
STACK CFI 23e98 .cfa: sp 0 +
STACK CFI 23e9c .cfa: x29 32 +
STACK CFI INIT 23ea0 11c .cfa: sp 0 +
STACK CFI 23ea4 .cfa: sp 32 +
STACK CFI 23eac .cfa: x29 32 + x19: .cfa -8 + ^ x20: .cfa -16 + ^ .ra: .cfa -24 + ^ x29: .cfa -32 + ^
STACK CFI 23ecc .cfa: sp 32 +
STACK CFI 23ed4 .cfa: sp 0 +
STACK CFI 23ed8 .cfa: x29 32 +
STACK CFI 23f48 .cfa: sp 32 +
STACK CFI 23f50 .cfa: sp 0 +
STACK CFI 23f54 .cfa: x29 32 +
STACK CFI 23f98 .cfa: sp 32 +
STACK CFI 23fa0 .cfa: sp 0 +
STACK CFI 23fa4 .cfa: x29 32 +
STACK CFI 23fb0 .cfa: sp 32 +
STACK CFI 23fb8 .cfa: sp 0 +
STACK CFI INIT 23fbc 2c .cfa: sp 0 +
STACK CFI INIT 23fe8 48 .cfa: sp 0 +
STACK CFI 24004 .cfa: sp 32 +
STACK CFI 2400c .cfa: x29 32 + x19: .cfa -16 + ^ .ra: .cfa -24 + ^ x29: .cfa -32 + ^
STACK CFI 24024 .cfa: sp 32 +
STACK CFI 2402c .cfa: sp 0 +
STACK CFI INIT 24030 40 .cfa: sp 0 +
STACK CFI INIT 24070 60 .cfa: sp 0 +
STACK CFI 24074 .cfa: sp 16 +
STACK CFI 24078 .cfa: x29 16 + .ra: .cfa -8 + ^ x29: .cfa -16 + ^
STACK CFI 240b8 .cfa: sp 16 +
STACK CFI 240bc .cfa: sp 0 +
STACK CFI 240c0 .cfa: x29 16 +
STACK CFI 240c4 .cfa: sp 16 +
STACK CFI 240c8 .cfa: sp 0 +
STACK CFI 240cc .cfa: x29 16 +
STACK CFI INIT 240d0 1fc .cfa: sp 0 +
STACK CFI 240d4 .cfa: sp 80 +
STACK CFI 240e8 .cfa: x29 80 + x19: .cfa -8 + ^ x20: .cfa -16 + ^ x21: .cfa -24 + ^ x22: .cfa -32 + ^ x23: .cfa -40 + ^ x24: .cfa -48 + ^ x25: .cfa -64 + ^ .ra: .cfa -72 + ^ x29: .cfa -80 + ^
STACK CFI 24294 .cfa: sp 80 +
STACK CFI 242a8 .cfa: sp 0 +
STACK CFI 242ac .cfa: x29 80 +
STACK CFI 242b0 .cfa: sp 80 +
STACK CFI 242c4 .cfa: sp 0 +
STACK CFI 242c8 .cfa: x29 80 +
STACK CFI INIT 242cc 140 .cfa: sp 0 +
STACK CFI 242d0 .cfa: sp 48 +
STACK CFI 242dc .cfa: x29 48 + x19: .cfa -8 + ^ x20: .cfa -16 + ^ x21: .cfa -32 + ^ .ra: .cfa -40 + ^ x29: .cfa -48 + ^
STACK CFI 24334 .cfa: sp 48 +
STACK CFI 24340 .cfa: sp 0 +
STACK CFI 24344 .cfa: x29 48 +
STACK CFI 243a4 .cfa: sp 48 +
STACK CFI 243b0 .cfa: sp 0 +
STACK CFI 243b4 .cfa: x29 48 +
STACK CFI 243c0 .cfa: sp 48 +
STACK CFI 243cc .cfa: sp 0 +
STACK CFI 243d0 .cfa: x29 48 +
STACK CFI 243fc .cfa: sp 48 +
STACK CFI 24408 .cfa: sp 0 +
STACK CFI INIT 2440c d8 .cfa: sp 0 +
STACK CFI 24410 .cfa: sp 32 +
STACK CFI 24418 .cfa: x29 32 + x19: .cfa -16 + ^ .ra: .cfa -24 + ^ x29: .cfa -32 + ^
STACK CFI 24488 .cfa: sp 32 +
STACK CFI 24490 .cfa: sp 0 +
STACK CFI 24494 .cfa: x29 32 +
STACK CFI 244ac .cfa: sp 32 +
STACK CFI 244b4 .cfa: sp 0 +
STACK CFI 244b8 .cfa: x29 32 +
STACK CFI 244d8 .cfa: sp 32 +
STACK CFI 244e0 .cfa: sp 0 +
STACK CFI INIT 2470c 68 .cfa: sp 0 +
STACK CFI 24710 .cfa: sp 32 +
STACK CFI 24718 .cfa: x29 32 + x19: .cfa -8 + ^ x20: .cfa -16 + ^ .ra: .cfa -24 + ^ x29: .cfa -32 + ^
STACK CFI 24730 .cfa: sp 32 +
STACK CFI 24738 .cfa: sp 0 +
STACK CFI 2473c .cfa: x29 32 +
STACK CFI 24768 .cfa: sp 32 +
STACK CFI 24770 .cfa: sp 0 +
STACK CFI INIT 24774 14 .cfa: sp 0 +
STACK CFI 24778 .cfa: sp 16 +
STACK CFI 2477c .cfa: x29 16 + .ra: .cfa -8 + ^ x29: .cfa -16 + ^
STACK CFI INIT 249dc 50 .cfa: sp 0 +
STACK CFI 249e0 .cfa: sp 32 +
STACK CFI 249e8 .cfa: x29 32 + x19: .cfa -16 + ^ .ra: .cfa -24 + ^ x29: .cfa -32 + ^
STACK CFI 24a00 .cfa: sp 32 +
STACK CFI 24a08 .cfa: sp 0 +
STACK CFI 24a0c .cfa: x29 32 +
STACK CFI 24a20 .cfa: sp 32 +
STACK CFI 24a28 .cfa: sp 0 +
STACK CFI INIT 24a2c 104 .cfa: sp 0 +
STACK CFI 24a30 .cfa: sp 64 +
STACK CFI 24a40 .cfa: x29 64 + x19: .cfa -8 + ^ x20: .cfa -16 + ^ x21: .cfa -24 + ^ x22: .cfa -32 + ^ x23: .cfa -48 + ^ .ra: .cfa -56 + ^ x29: .cfa -64 + ^
STACK CFI 24a9c .cfa: sp 64 +
STACK CFI 24aac .cfa: sp 0 +
STACK CFI 24ab0 .cfa: x29 64 +
STACK CFI 24acc .cfa: sp 64 +
STACK CFI 24adc .cfa: sp 0 +
STACK CFI 24ae0 .cfa: x29 64 +
STACK CFI 24b1c .cfa: sp 64 +
STACK CFI 24b2c .cfa: sp 0 +
STACK CFI INIT 24c28 50 .cfa: sp 0 +
STACK CFI 24c2c .cfa: sp 32 +
STACK CFI 24c34 .cfa: x29 32 + x19: .cfa -16 + ^ .ra: .cfa -24 + ^ x29: .cfa -32 + ^
STACK CFI 24c4c .cfa: sp 32 +
STACK CFI 24c54 .cfa: sp 0 +
STACK CFI 24c58 .cfa: x29 32 +
STACK CFI 24c6c .cfa: sp 32 +
STACK CFI 24c74 .cfa: sp 0 +
STACK CFI INIT 24c78 4 .cfa: sp 0 +
STACK CFI INIT 24c7c 38 .cfa: sp 0 +
STACK CFI 24c80 .cfa: sp 32 +
STACK CFI 24c88 .cfa: x29 32 + x19: .cfa -16 + ^ .ra: .cfa -24 + ^ x29: .cfa -32 + ^
STACK CFI 24ca8 .cfa: sp 32 +
STACK CFI 24cb0 .cfa: sp 0 +
STACK CFI INIT 24cb4 18 .cfa: sp 0 +
STACK CFI INIT 24ccc 4 .cfa: sp 0 +
STACK CFI INIT 24cd0 4 .cfa: sp 0 +
STACK CFI INIT 24e3c 1c .cfa: sp 0 +
STACK CFI INIT 24e58 c .cfa: sp 0 +
STACK CFI INIT 25008 4 .cfa: sp 0 +
STACK CFI INIT 25180 9c .cfa: sp 0 +
STACK CFI 25184 .cfa: sp 32 +
STACK CFI 2518c .cfa: x29 32 + x19: .cfa -8 + ^ x20: .cfa -16 + ^ .ra: .cfa -24 + ^ x29: .cfa -32 + ^
STACK CFI 25210 .cfa: sp 32 +
STACK CFI 25218 .cfa: sp 0 +
STACK CFI INIT 2521c a4 .cfa: sp 0 +
STACK CFI 25220 .cfa: sp 32 +
STACK CFI 25228 .cfa: x29 32 + x19: .cfa -8 + ^ x20: .cfa -16 + ^ .ra: .cfa -24 + ^ x29: .cfa -32 + ^
STACK CFI 252b4 .cfa: sp 32 +
STACK CFI 252bc .cfa: sp 0 +
STACK CFI INIT 252c0 4 .cfa: sp 0 +
STACK CFI INIT 252c4 38 .cfa: sp 0 +
STACK CFI 252c8 .cfa: sp 32 +
STACK CFI 252d0 .cfa: x29 32 + x19: .cfa -16 + ^ .ra: .cfa -24 + ^ x29: .cfa -32 + ^
STACK CFI 252f0 .cfa: sp 32 +
STACK CFI 252f8 .cfa: sp 0 +
STACK CFI INIT 252fc 18 .cfa: sp 0 +
STACK CFI INIT 25314 4 .cfa: sp 0 +
STACK CFI INIT 25318 4 .cfa: sp 0 +
STACK CFI INIT 25484 1c .cfa: sp 0 +
STACK CFI INIT 254a0 c .cfa: sp 0 +
STACK CFI INIT 254ac 4 .cfa: sp 0 +
STACK CFI INIT 254b0 38 .cfa: sp 0 +
STACK CFI 254b4 .cfa: sp 32 +
STACK CFI 254bc .cfa: x29 32 + x19: .cfa -16 + ^ .ra: .cfa -24 + ^ x29: .cfa -32 + ^
STACK CFI 254dc .cfa: sp 32 +
STACK CFI 254e4 .cfa: sp 0 +
STACK CFI INIT 254e8 18 .cfa: sp 0 +
STACK CFI INIT 25500 4 .cfa: sp 0 +
STACK CFI INIT 25504 4 .cfa: sp 0 +
STACK CFI INIT 25670 1c .cfa: sp 0 +
STACK CFI INIT 2568c c .cfa: sp 0 +
STACK CFI INIT 25698 4 .cfa: sp 0 +
STACK CFI INIT 2569c 4 .cfa: sp 0 +
STACK CFI INIT 256a0 38 .cfa: sp 0 +
STACK CFI 256a4 .cfa: sp 32 +
STACK CFI 256ac .cfa: x29 32 + x19: .cfa -16 + ^ .ra: .cfa -24 + ^ x29: .cfa -32 + ^
STACK CFI 256cc .cfa: sp 32 +
STACK CFI 256d4 .cfa: sp 0 +
STACK CFI INIT 256d8 18 .cfa: sp 0 +
STACK CFI INIT 256f0 4 .cfa: sp 0 +
STACK CFI INIT 256f4 4 .cfa: sp 0 +
STACK CFI INIT 25860 1c .cfa: sp 0 +
STACK CFI INIT 2587c c .cfa: sp 0 +
STACK CFI INIT 25888 4 .cfa: sp 0 +
STACK CFI INIT 25a00 5c .cfa: sp 0 +
STACK CFI 25a04 .cfa: sp 32 +
STACK CFI 25a0c .cfa: x29 32 + x19: .cfa -16 + ^ .ra: .cfa -24 + ^ x29: .cfa -32 + ^
STACK CFI 25a50 .cfa: sp 32 +
STACK CFI 25a58 .cfa: sp 0 +
STACK CFI INIT 25a5c 64 .cfa: sp 0 +
STACK CFI 25a60 .cfa: sp 32 +
STACK CFI 25a68 .cfa: x29 32 + x19: .cfa -16 + ^ .ra: .cfa -24 + ^ x29: .cfa -32 + ^
STACK CFI 25ab4 .cfa: sp 32 +
STACK CFI 25abc .cfa: sp 0 +
STACK CFI INIT 25ac0 4 .cfa: sp 0 +
STACK CFI INIT 25ac4 4 .cfa: sp 0 +
STACK CFI INIT 25ac8 34 .cfa: sp 0 +
STACK CFI 25acc .cfa: sp 32 +
STACK CFI 25ad4 .cfa: x29 32 + x19: .cfa -16 + ^ .ra: .cfa -24 + ^ x29: .cfa -32 + ^
STACK CFI 25af0 .cfa: sp 32 +
STACK CFI 25af8 .cfa: sp 0 +
STACK CFI INIT 25afc 14 .cfa: sp 0 +
STACK CFI INIT 25b10 4 .cfa: sp 0 +
STACK CFI INIT 25b14 4 .cfa: sp 0 +
STACK CFI INIT 25b18 10 .cfa: sp 0 +
STACK CFI INIT 25b28 1c .cfa: sp 0 +
STACK CFI INIT 25b44 c .cfa: sp 0 +
STACK CFI INIT 260fc 1c .cfa: sp 0 +
STACK CFI INIT 26420 50 .cfa: sp 0 +
STACK CFI 26424 .cfa: sp 32 +
STACK CFI 2642c .cfa: x29 32 + x19: .cfa -16 + ^ .ra: .cfa -24 + ^ x29: .cfa -32 + ^
STACK CFI 26444 .cfa: sp 32 +
STACK CFI 2644c .cfa: sp 0 +
STACK CFI 26450 .cfa: x29 32 +
STACK CFI 26464 .cfa: sp 32 +
STACK CFI 2646c .cfa: sp 0 +
STACK CFI INIT 264e4 4 .cfa: sp 0 +
STACK CFI INIT 26768 80 .cfa: sp 0 +
STACK CFI 2676c .cfa: sp 48 +
STACK CFI 26778 .cfa: x29 48 + x19: .cfa -8 + ^ x20: .cfa -16 + ^ x21: .cfa -32 + ^ .ra: .cfa -40 + ^ x29: .cfa -48 + ^
STACK CFI 267d8 .cfa: sp 48 +
STACK CFI 267e4 .cfa: sp 0 +
STACK CFI INIT 26ce0 148 .cfa: sp 0 +
STACK CFI 26ce4 .cfa: sp 48 +
STACK CFI 26cf0 .cfa: x29 48 + x19: .cfa -8 + ^ x20: .cfa -16 + ^ x21: .cfa -32 + ^ .ra: .cfa -40 + ^ x29: .cfa -48 + ^
STACK CFI 26e18 .cfa: sp 48 +
STACK CFI 26e24 .cfa: sp 0 +
STACK CFI INIT 26e28 4 .cfa: sp 0 +
STACK CFI INIT 26e2c 14 .cfa: sp 0 +
STACK CFI INIT 26e40 120 .cfa: sp 0 +
STACK CFI 26e44 .cfa: sp 64 +
STACK CFI 26e54 .cfa: x29 64 + x19: .cfa -8 + ^ x20: .cfa -16 + ^ x21: .cfa -24 + ^ x22: .cfa -32 + ^ x23: .cfa -40 + ^ x24: .cfa -48 + ^ .ra: .cfa -56 + ^ x29: .cfa -64 + ^
STACK CFI 26f4c .cfa: sp 64 +
STACK CFI 26f5c .cfa: sp 0 +
STACK CFI INIT 26f60 d4 .cfa: sp 0 +
STACK CFI 26f64 .cfa: sp 48 +
STACK CFI 26f70 .cfa: x29 48 + x19: .cfa -8 + ^ x20: .cfa -16 + ^ x21: .cfa -32 + ^ .ra: .cfa -40 + ^ x29: .cfa -48 + ^
STACK CFI 27000 .cfa: sp 48 +
STACK CFI 2700c .cfa: sp 0 +
STACK CFI 27010 .cfa: x29 48 +
STACK CFI INIT 27034 3c8 .cfa: sp 0 +
STACK CFI INIT 273fc 8c .cfa: sp 0 +
STACK CFI 27404 .cfa: sp 32 +
STACK CFI 2740c .cfa: x29 32 + x19: .cfa -8 + ^ x20: .cfa -16 + ^ .ra: .cfa -24 + ^ x29: .cfa -32 + ^
STACK CFI 27454 .cfa: sp 32 +
STACK CFI 2745c .cfa: sp 0 +
STACK CFI 27464 .cfa: x29 32 +
STACK CFI INIT 278cc 9c .cfa: sp 0 +
STACK CFI INIT 27968 50 .cfa: sp 0 +
STACK CFI 2796c .cfa: sp 32 +
STACK CFI 27974 .cfa: x29 32 + x19: .cfa -16 + ^ .ra: .cfa -24 + ^ x29: .cfa -32 + ^
STACK CFI 2798c .cfa: sp 32 +
STACK CFI 27994 .cfa: sp 0 +
STACK CFI 27998 .cfa: x29 32 +
STACK CFI 279ac .cfa: sp 32 +
STACK CFI 279b4 .cfa: sp 0 +
STACK CFI INIT 279b8 64 .cfa: sp 0 +
STACK CFI 279bc .cfa: sp 32 +
STACK CFI 279c4 .cfa: x29 32 + x19: .cfa -16 + ^ .ra: .cfa -24 + ^ x29: .cfa -32 + ^
STACK CFI 279f0 .cfa: sp 32 +
STACK CFI 279f8 .cfa: sp 0 +
STACK CFI 279fc .cfa: x29 32 +
STACK CFI 27a10 .cfa: sp 32 +
STACK CFI 27a18 .cfa: sp 0 +
STACK CFI INIT 27a1c 178 .cfa: sp 0 +
STACK CFI 27a20 .cfa: sp 80 +
STACK CFI 27a34 .cfa: x29 80 + x19: .cfa -8 + ^ x20: .cfa -16 + ^ x21: .cfa -24 + ^ x22: .cfa -32 + ^ x23: .cfa -40 + ^ x24: .cfa -48 + ^ x25: .cfa -56 + ^ x26: .cfa -64 + ^ .ra: .cfa -72 + ^ x29: .cfa -80 + ^
STACK CFI 27b7c .cfa: sp 80 +
STACK CFI 27b90 .cfa: sp 0 +
STACK CFI INIT 27b94 1b0 .cfa: sp 0 +
STACK CFI INIT 281c4 1c .cfa: sp 0 +
STACK CFI INIT 28520 3c .cfa: sp 0 +
STACK CFI 28524 .cfa: sp 32 +
STACK CFI 2852c .cfa: x29 32 + x19: .cfa -16 + ^ .ra: .cfa -24 + ^ x29: .cfa -32 + ^
STACK CFI 28538 .cfa: sp 32 +
STACK CFI 28540 .cfa: sp 0 +
STACK CFI 28544 .cfa: x29 32 +
STACK CFI 28550 .cfa: sp 32 +
STACK CFI 28558 .cfa: sp 0 +
STACK CFI INIT 2855c 4 .cfa: sp 0 +
STACK CFI INIT 29bfc 9c .cfa: sp 0 +
STACK CFI 29c00 .cfa: sp 48 +
STACK CFI 29c0c .cfa: x29 48 + x19: .cfa -8 + ^ x20: .cfa -16 + ^ x21: .cfa -24 + ^ x22: .cfa -32 + ^ .ra: .cfa -40 + ^ x29: .cfa -48 + ^
STACK CFI 29c40 .cfa: sp 48 +
STACK CFI 29c4c .cfa: sp 0 +
STACK CFI 29c50 .cfa: x29 48 +
STACK CFI 29c80 .cfa: sp 48 +
STACK CFI 29c8c .cfa: sp 0 +
STACK CFI 29c90 .cfa: x29 48 +
STACK CFI INIT 29db0 98 .cfa: sp 0 +
STACK CFI 29db4 .cfa: sp 96 +
STACK CFI 29dc8 .cfa: x29 64 + x19: .cfa -8 + ^ x20: .cfa -16 + ^ x21: .cfa -24 + ^ x22: .cfa -32 + ^ x23: .cfa -48 + ^ .ra: .cfa -56 + ^ x29: .cfa -64 + ^
STACK CFI 29e2c .cfa: sp 96 +
STACK CFI 29e40 .cfa: sp 0 +
STACK CFI 29e44 .cfa: x29 64 +
STACK CFI INIT 29ec0 98 .cfa: sp 0 +
STACK CFI 29ec4 .cfa: sp 96 +
STACK CFI 29ed8 .cfa: x29 64 + x19: .cfa -8 + ^ x20: .cfa -16 + ^ x21: .cfa -24 + ^ x22: .cfa -32 + ^ x23: .cfa -48 + ^ .ra: .cfa -56 + ^ x29: .cfa -64 + ^
STACK CFI 29f3c .cfa: sp 96 +
STACK CFI 29f50 .cfa: sp 0 +
STACK CFI 29f54 .cfa: x29 64 +
STACK CFI INIT 2a478 26c .cfa: sp 0 +
STACK CFI 2a47c .cfa: sp 80 +
STACK CFI 2a490 .cfa: x29 80 + x19: .cfa -8 + ^ x20: .cfa -16 + ^ x21: .cfa -24 + ^ x22: .cfa -32 + ^ x23: .cfa -40 + ^ x24: .cfa -48 + ^ x25: .cfa -64 + ^ .ra: .cfa -72 + ^ x29: .cfa -80 + ^
STACK CFI 2a5c4 .cfa: sp 80 +
STACK CFI 2a5d8 .cfa: sp 0 +
STACK CFI 2a5dc .cfa: x29 80 +
STACK CFI 2a6cc .cfa: sp 80 +
STACK CFI 2a6e0 .cfa: sp 0 +
STACK CFI INIT 2a6e4 318 .cfa: sp 0 +
STACK CFI 2a6e8 .cfa: sp 128 +
STACK CFI 2a704 .cfa: x29 96 + x19: .cfa -8 + ^ x20: .cfa -16 + ^ x21: .cfa -24 + ^ x22: .cfa -32 + ^ x23: .cfa -40 + ^ x24: .cfa -48 + ^ x25: .cfa -56 + ^ x26: .cfa -64 + ^ x27: .cfa -72 + ^ x28: .cfa -80 + ^ .ra: .cfa -88 + ^ x29: .cfa -96 + ^
STACK CFI 2a9d4 .cfa: sp 128 +
STACK CFI 2a9f0 .cfa: sp 0 +
STACK CFI 2a9f4 .cfa: x29 96 +
STACK CFI INIT 2c338 1c8 .cfa: sp 0 +
STACK CFI 2c33c .cfa: sp 80 +
STACK CFI 2c350 .cfa: x29 80 + x19: .cfa -8 + ^ x20: .cfa -16 + ^ x21: .cfa -24 + ^ x22: .cfa -32 + ^ x23: .cfa -40 + ^ x24: .cfa -48 + ^ x25: .cfa -64 + ^ .ra: .cfa -72 + ^ x29: .cfa -80 + ^
STACK CFI 2c4d0 .cfa: sp 80 +
STACK CFI 2c4e4 .cfa: sp 0 +
STACK CFI 2c4e8 .cfa: sp 80 +
STACK CFI 2c4fc .cfa: sp 0 +
STACK CFI INIT 2caf0 188 .cfa: sp 0 +
STACK CFI 2caf4 .cfa: sp 80 +
STACK CFI 2cb08 .cfa: x29 80 + x19: .cfa -8 + ^ x20: .cfa -16 + ^ x21: .cfa -24 + ^ x22: .cfa -32 + ^ x23: .cfa -40 + ^ x24: .cfa -48 + ^ x25: .cfa -64 + ^ .ra: .cfa -72 + ^ x29: .cfa -80 + ^
STACK CFI 2cc5c .cfa: sp 80 +
STACK CFI 2cc70 .cfa: sp 0 +
STACK CFI 2cc74 .cfa: x29 80 +
STACK CFI INIT 2cc78 18c .cfa: sp 0 +
STACK CFI 2cc7c .cfa: sp 64 +
STACK CFI 2cc8c .cfa: x29 64 + x19: .cfa -8 + ^ x20: .cfa -16 + ^ x21: .cfa -24 + ^ x22: .cfa -32 + ^ x23: .cfa -40 + ^ x24: .cfa -48 + ^ .ra: .cfa -56 + ^ x29: .cfa -64 + ^
STACK CFI 2cdec .cfa: sp 64 +
STACK CFI 2cdfc .cfa: sp 0 +
STACK CFI 2ce00 .cfa: x29 64 +
STACK CFI INIT 2ce04 18c .cfa: sp 0 +
STACK CFI 2ce08 .cfa: sp 64 +
STACK CFI 2ce18 .cfa: x29 64 + x19: .cfa -8 + ^ x20: .cfa -16 + ^ x21: .cfa -24 + ^ x22: .cfa -32 + ^ x23: .cfa -40 + ^ x24: .cfa -48 + ^ .ra: .cfa -56 + ^ x29: .cfa -64 + ^
STACK CFI 2cf78 .cfa: sp 64 +
STACK CFI 2cf88 .cfa: sp 0 +
STACK CFI 2cf8c .cfa: x29 64 +
STACK CFI INIT 2cf90 14 .cfa: sp 0 +
STACK CFI 2cf94 .cfa: sp 16 +
STACK CFI 2cf98 .cfa: x29 16 + .ra: .cfa -8 + ^ x29: .cfa -16 + ^
STACK CFI INIT 2d600 4 .cfa: sp 0 +
STACK CFI INIT 2d604 14 .cfa: sp 0 +
STACK CFI INIT 2d618 200 .cfa: sp 0 +
STACK CFI INIT 2d984 8c .cfa: sp 0 +
STACK CFI 2d988 .cfa: sp 48 +
STACK CFI 2d994 .cfa: x29 48 + x19: .cfa -8 + ^ x20: .cfa -16 + ^ x21: .cfa -24 + ^ x22: .cfa -32 + ^ .ra: .cfa -40 + ^ x29: .cfa -48 + ^
STACK CFI 2d99c .cfa: sp 48 +
STACK CFI 2d9a8 .cfa: sp 0 +
STACK CFI 2d9ac .cfa: x29 48 +
STACK CFI 2da00 .cfa: sp 48 +
STACK CFI 2da0c .cfa: sp 0 +
STACK CFI INIT 2da10 60 .cfa: sp 0 +
STACK CFI 2da20 .cfa: sp 32 +
STACK CFI 2da28 .cfa: x29 32 + x19: .cfa -8 + ^ x20: .cfa -16 + ^ .ra: .cfa -24 + ^ x29: .cfa -32 + ^
STACK CFI 2da64 .cfa: sp 32 +
STACK CFI 2da6c .cfa: sp 0 +
STACK CFI INIT 2def0 1c .cfa: sp 0 +
STACK CFI INIT 2e294 4 .cfa: sp 0 +
STACK CFI INIT 2e934 98 .cfa: sp 0 +
STACK CFI 2e938 .cfa: sp 96 +
STACK CFI 2e94c .cfa: x29 64 + x19: .cfa -8 + ^ x20: .cfa -16 + ^ x21: .cfa -24 + ^ x22: .cfa -32 + ^ x23: .cfa -48 + ^ .ra: .cfa -56 + ^ x29: .cfa -64 + ^
STACK CFI 2e9b0 .cfa: sp 96 +
STACK CFI 2e9c4 .cfa: sp 0 +
STACK CFI 2e9c8 .cfa: x29 64 +
STACK CFI INIT 2ebdc ac .cfa: sp 0 +
STACK CFI 2ebe0 .cfa: sp 96 +
STACK CFI 2ebf4 .cfa: x29 64 + x19: .cfa -8 + ^ x20: .cfa -16 + ^ x21: .cfa -24 + ^ x22: .cfa -32 + ^ x23: .cfa -48 + ^ .ra: .cfa -56 + ^ x29: .cfa -64 + ^
STACK CFI 2ec6c .cfa: sp 96 +
STACK CFI 2ec80 .cfa: sp 0 +
STACK CFI 2ec84 .cfa: x29 64 +
STACK CFI INIT 2ec88 50 .cfa: sp 0 +
STACK CFI 2ec8c .cfa: sp 32 +
STACK CFI 2ec94 .cfa: x29 32 + x19: .cfa -16 + ^ .ra: .cfa -24 + ^ x29: .cfa -32 + ^
STACK CFI 2ecac .cfa: sp 32 +
STACK CFI 2ecb4 .cfa: sp 0 +
STACK CFI 2ecb8 .cfa: x29 32 +
STACK CFI 2eccc .cfa: sp 32 +
STACK CFI 2ecd4 .cfa: sp 0 +
STACK CFI INIT 2f310 24 .cfa: sp 0 +
STACK CFI 2f314 .cfa: sp 32 +
STACK CFI 2f31c .cfa: x29 32 + x19: .cfa -16 + ^ .ra: .cfa -24 + ^ x29: .cfa -32 + ^
STACK CFI 2f328 .cfa: sp 32 +
STACK CFI 2f330 .cfa: sp 0 +
STACK CFI INIT 2f334 8 .cfa: sp 0 +
STACK CFI INIT 2f33c 8 .cfa: sp 0 +
STACK CFI INIT 2f344 8 .cfa: sp 0 +
STACK CFI INIT 2f34c 4 .cfa: sp 0 +
STACK CFI INIT 2f350 8 .cfa: sp 0 +
STACK CFI INIT 2f358 bc .cfa: sp 0 +
STACK CFI 2f35c .cfa: sp 32 +
STACK CFI 2f364 .cfa: x29 32 + x19: .cfa -8 + ^ x20: .cfa -16 + ^ .ra: .cfa -24 + ^ x29: .cfa -32 + ^
STACK CFI 2f3a0 .cfa: sp 32 +
STACK CFI 2f3a8 .cfa: sp 0 +
STACK CFI 2f3ac .cfa: x29 32 +
STACK CFI 2f408 .cfa: sp 32 +
STACK CFI 2f410 .cfa: sp 0 +
STACK CFI INIT 2f414 cc .cfa: sp 0 +
STACK CFI 2f418 .cfa: sp 32 +
STACK CFI 2f420 .cfa: x29 32 + x19: .cfa -8 + ^ x20: .cfa -16 + ^ .ra: .cfa -24 + ^ x29: .cfa -32 + ^
STACK CFI 2f464 .cfa: sp 32 +
STACK CFI 2f46c .cfa: sp 0 +
STACK CFI 2f470 .cfa: x29 32 +
STACK CFI 2f4d4 .cfa: sp 32 +
STACK CFI 2f4dc .cfa: sp 0 +
STACK CFI INIT 2f4e0 4 .cfa: sp 0 +
STACK CFI INIT 2f4e4 4 .cfa: sp 0 +
STACK CFI INIT 2f4e8 8 .cfa: sp 0 +
STACK CFI INIT 2f4f0 8 .cfa: sp 0 +
STACK CFI INIT 2f6a8 34 .cfa: sp 0 +
STACK CFI 2f6ac .cfa: sp 16 +
STACK CFI 2f6b0 .cfa: x29 16 + .ra: .cfa -8 + ^ x29: .cfa -16 + ^
STACK CFI INIT 2f6dc 34 .cfa: sp 0 +
STACK CFI 2f6e0 .cfa: sp 16 +
STACK CFI 2f6e4 .cfa: x29 16 + .ra: .cfa -8 + ^ x29: .cfa -16 + ^
STACK CFI INIT 2f710 3c .cfa: sp 0 +
STACK CFI 2f714 .cfa: sp 32 +
STACK CFI 2f71c .cfa: x29 32 + x19: .cfa -16 + ^ .ra: .cfa -24 + ^ x29: .cfa -32 + ^
STACK CFI 2f728 .cfa: sp 32 +
STACK CFI 2f730 .cfa: sp 0 +
STACK CFI 2f734 .cfa: x29 32 +
STACK CFI 2f740 .cfa: sp 32 +
STACK CFI 2f748 .cfa: sp 0 +
STACK CFI INIT 2f74c 4c .cfa: sp 0 +
STACK CFI 2f750 .cfa: sp 32 +
STACK CFI 2f758 .cfa: x29 32 + x19: .cfa -8 + ^ x20: .cfa -16 + ^ .ra: .cfa -24 + ^ x29: .cfa -32 + ^
STACK CFI 2f780 .cfa: sp 32 +
STACK CFI 2f788 .cfa: sp 0 +
STACK CFI 2f78c .cfa: sp 32 +
STACK CFI 2f794 .cfa: sp 0 +
STACK CFI INIT 2f9b8 64 .cfa: sp 0 +
STACK CFI 2f9bc .cfa: sp 32 +
STACK CFI 2f9c4 .cfa: x29 32 + x19: .cfa -16 + ^ .ra: .cfa -24 + ^ x29: .cfa -32 + ^
STACK CFI 2f9f0 .cfa: sp 32 +
STACK CFI 2f9f8 .cfa: sp 0 +
STACK CFI 2f9fc .cfa: x29 32 +
STACK CFI 2fa10 .cfa: sp 32 +
STACK CFI 2fa18 .cfa: sp 0 +
STACK CFI INIT 2fa1c 24 .cfa: sp 0 +
STACK CFI 2fa20 .cfa: sp 32 +
STACK CFI 2fa28 .cfa: x29 32 + x19: .cfa -16 + ^ .ra: .cfa -24 + ^ x29: .cfa -32 + ^
STACK CFI 2fa34 .cfa: sp 32 +
STACK CFI 2fa3c .cfa: sp 0 +
STACK CFI INIT 2fc9c 24 .cfa: sp 0 +
STACK CFI 2fca0 .cfa: sp 32 +
STACK CFI 2fca8 .cfa: x29 32 + x19: .cfa -16 + ^ .ra: .cfa -24 + ^ x29: .cfa -32 + ^
STACK CFI 2fcb4 .cfa: sp 32 +
STACK CFI 2fcbc .cfa: sp 0 +
STACK CFI INIT 30200 4 .cfa: sp 0 +
STACK CFI INIT 30aec 4 .cfa: sp 0 +
STACK CFI INIT 30af0 14 .cfa: sp 0 +
STACK CFI INIT 31010 c .cfa: sp 0 +
STACK CFI INIT 3101c 24c .cfa: sp 0 +
STACK CFI INIT 31268 a0 .cfa: sp 0 +
STACK CFI 31274 .cfa: sp 32 +
STACK CFI 312cc .cfa: sp 0 +
STACK CFI 312d0 .cfa: sp 32 +
STACK CFI 312d8 .cfa: sp 0 +
STACK CFI 312dc .cfa: sp 32 +
STACK CFI 312f0 .cfa: sp 0 +
STACK CFI 312f4 .cfa: sp 32 +
STACK CFI 31304 .cfa: sp 0 +
STACK CFI INIT 31308 38 .cfa: sp 0 +
STACK CFI 31314 .cfa: sp 32 +
STACK CFI 3133c .cfa: sp 0 +
STACK CFI INIT 315d4 7c .cfa: sp 0 +
STACK CFI 315d8 .cfa: sp 32 +
STACK CFI 315e0 .cfa: x29 32 + x19: .cfa -16 + ^ .ra: .cfa -24 + ^ x29: .cfa -32 + ^
STACK CFI 3160c .cfa: sp 32 +
STACK CFI 31614 .cfa: sp 0 +
STACK CFI 31618 .cfa: x29 32 +
STACK CFI 31644 .cfa: sp 32 +
STACK CFI 3164c .cfa: sp 0 +
STACK CFI INIT 316a0 2c .cfa: sp 0 +
STACK CFI 316a4 .cfa: sp 32 +
STACK CFI 316ac .cfa: x29 32 + x19: .cfa -16 + ^ .ra: .cfa -24 + ^ x29: .cfa -32 + ^
STACK CFI 316c0 .cfa: sp 32 +
STACK CFI 316c8 .cfa: sp 0 +
STACK CFI INIT 31e8c 64 .cfa: sp 0 +
STACK CFI 31e90 .cfa: sp 32 +
STACK CFI 31e98 .cfa: x29 32 + x19: .cfa -16 + ^ .ra: .cfa -24 + ^ x29: .cfa -32 + ^
STACK CFI 31eb4 .cfa: sp 32 +
STACK CFI 31ebc .cfa: sp 0 +
STACK CFI 31ec0 .cfa: x29 32 +
STACK CFI 31ee4 .cfa: sp 32 +
STACK CFI 31eec .cfa: sp 0 +
STACK CFI INIT 3202c 570 .cfa: sp 0 +
STACK CFI 32030 .cfa: sp 176 +
STACK CFI 32044 .cfa: x29 64 + x19: .cfa -8 + ^ x20: .cfa -16 + ^ x21: .cfa -24 + ^ x22: .cfa -32 + ^ x23: .cfa -40 + ^ x24: .cfa -48 + ^ .ra: .cfa -56 + ^ x29: .cfa -64 + ^
STACK CFI 32274 .cfa: sp 176 +
STACK CFI 32288 .cfa: sp 0 +
STACK CFI 3228c .cfa: x29 64 +
STACK CFI 322d8 .cfa: sp 176 +
STACK CFI 322ec .cfa: sp 0 +
STACK CFI 322f0 .cfa: x29 64 +
STACK CFI 32328 .cfa: sp 176 +
STACK CFI 3233c .cfa: sp 0 +
STACK CFI 32340 .cfa: x29 64 +
STACK CFI 32358 .cfa: sp 176 +
STACK CFI 3236c .cfa: sp 0 +
STACK CFI 32370 .cfa: x29 64 +
STACK CFI 32390 .cfa: sp 176 +
STACK CFI 323a4 .cfa: sp 0 +
STACK CFI 323a8 .cfa: x29 64 +
STACK CFI 323c0 .cfa: sp 176 +
STACK CFI 323d4 .cfa: sp 0 +
STACK CFI 323d8 .cfa: x29 64 +
STACK CFI 323ec .cfa: sp 176 +
STACK CFI 32400 .cfa: sp 0 +
STACK CFI 32404 .cfa: x29 64 +
STACK CFI 32418 .cfa: sp 176 +
STACK CFI 3242c .cfa: sp 0 +
STACK CFI 32430 .cfa: x29 64 +
STACK CFI 32440 .cfa: sp 176 +
STACK CFI 32454 .cfa: sp 0 +
STACK CFI 32458 .cfa: x29 64 +
STACK CFI 32468 .cfa: sp 176 +
STACK CFI 3247c .cfa: sp 0 +
STACK CFI 32480 .cfa: x29 64 +
STACK CFI 32498 .cfa: sp 176 +
STACK CFI 324ac .cfa: sp 0 +
STACK CFI 324b0 .cfa: x29 64 +
STACK CFI 324c4 .cfa: sp 176 +
STACK CFI 324d8 .cfa: sp 0 +
STACK CFI 324dc .cfa: x29 64 +
STACK CFI 324f4 .cfa: sp 176 +
STACK CFI 32508 .cfa: sp 0 +
STACK CFI 3250c .cfa: x29 64 +
STACK CFI 32538 .cfa: sp 176 +
STACK CFI 3254c .cfa: sp 0 +
STACK CFI 32550 .cfa: x29 64 +
STACK CFI 32564 .cfa: sp 176 +
STACK CFI 32578 .cfa: sp 0 +
STACK CFI 3257c .cfa: x29 64 +
STACK CFI INIT 3259c 228 .cfa: sp 0 +
STACK CFI INIT 327c4 2dc .cfa: sp 0 +
STACK CFI INIT 32aa0 53c .cfa: sp 0 +
STACK CFI INIT 32fdc 78 .cfa: sp 0 +
STACK CFI 32fe0 .cfa: sp 48 +
STACK CFI 32fec .cfa: x29 48 + x19: .cfa -8 + ^ x20: .cfa -16 + ^ x21: .cfa -24 + ^ x22: .cfa -32 + ^ .ra: .cfa -40 + ^ x29: .cfa -48 + ^
STACK CFI 33034 .cfa: sp 48 +
STACK CFI 33040 .cfa: sp 0 +
STACK CFI 33044 .cfa: sp 48 +
STACK CFI 33050 .cfa: sp 0 +
STACK CFI INIT 33054 8c .cfa: sp 0 +
STACK CFI 33058 .cfa: sp 32 +
STACK CFI 33060 .cfa: x29 32 + x19: .cfa -16 + ^ .ra: .cfa -24 + ^ x29: .cfa -32 + ^
STACK CFI 33094 .cfa: sp 32 +
STACK CFI 3309c .cfa: sp 0 +
STACK CFI 330a0 .cfa: x29 32 +
STACK CFI 330d4 .cfa: sp 32 +
STACK CFI 330dc .cfa: sp 0 +
STACK CFI INIT 330e0 24 .cfa: sp 0 +
STACK CFI 330e4 .cfa: sp 32 +
STACK CFI 330ec .cfa: x29 32 + x19: .cfa -16 + ^ .ra: .cfa -24 + ^ x29: .cfa -32 + ^
STACK CFI 330f8 .cfa: sp 32 +
STACK CFI 33100 .cfa: sp 0 +
STACK CFI INIT 33104 150 .cfa: sp 0 +
STACK CFI 33108 .cfa: sp 48 +
STACK CFI 33114 .cfa: x29 48 + x19: .cfa -8 + ^ x20: .cfa -16 + ^ x21: .cfa -24 + ^ x22: .cfa -32 + ^ .ra: .cfa -40 + ^ x29: .cfa -48 + ^
STACK CFI 33244 .cfa: sp 48 +
STACK CFI 33250 .cfa: sp 0 +
STACK CFI INIT 33254 68 .cfa: sp 0 +
STACK CFI 33258 .cfa: sp 64 +
STACK CFI 33264 .cfa: x29 32 + x19: .cfa -16 + ^ .ra: .cfa -24 + ^ x29: .cfa -32 + ^
STACK CFI 332a8 .cfa: sp 64 +
STACK CFI 332b4 .cfa: sp 0 +
STACK CFI 332b8 .cfa: x29 32 +
STACK CFI INIT 332bc 90 .cfa: sp 0 +
STACK CFI 332c0 .cfa: sp 32 +
STACK CFI 332c8 .cfa: x29 32 + x19: .cfa -8 + ^ x20: .cfa -16 + ^ .ra: .cfa -24 + ^ x29: .cfa -32 + ^
STACK CFI 332f4 .cfa: sp 32 +
STACK CFI 332fc .cfa: sp 0 +
STACK CFI 33300 .cfa: x29 32 +
STACK CFI 33340 .cfa: sp 32 +
STACK CFI 33348 .cfa: sp 0 +
STACK CFI INIT 3334c ec .cfa: sp 0 +
STACK CFI 33350 .cfa: sp 112 +
STACK CFI 33360 .cfa: x29 48 + x19: .cfa -8 + ^ x20: .cfa -16 + ^ x21: .cfa -32 + ^ .ra: .cfa -40 + ^ x29: .cfa -48 + ^
STACK CFI 33420 .cfa: sp 112 +
STACK CFI 33430 .cfa: sp 0 +
STACK CFI 33434 .cfa: x29 48 +
STACK CFI INIT 33438 ec .cfa: sp 0 +
STACK CFI 3343c .cfa: sp 112 +
STACK CFI 3344c .cfa: x29 48 + x19: .cfa -8 + ^ x20: .cfa -16 + ^ x21: .cfa -32 + ^ .ra: .cfa -40 + ^ x29: .cfa -48 + ^
STACK CFI 3350c .cfa: sp 112 +
STACK CFI 3351c .cfa: sp 0 +
STACK CFI 33520 .cfa: x29 48 +
STACK CFI INIT 33524 48 .cfa: sp 0 +
STACK CFI 33528 .cfa: sp 32 +
STACK CFI 33530 .cfa: x29 32 + x19: .cfa -8 + ^ x20: .cfa -16 + ^ .ra: .cfa -24 + ^ x29: .cfa -32 + ^
STACK CFI 33554 .cfa: sp 32 +
STACK CFI 3355c .cfa: sp 0 +
STACK CFI 33560 .cfa: x29 32 +
STACK CFI INIT 3356c 98 .cfa: sp 0 +
STACK CFI 33570 .cfa: sp 80 +
STACK CFI 3357c .cfa: x29 32 + x19: .cfa -16 + ^ .ra: .cfa -24 + ^ x29: .cfa -32 + ^
STACK CFI 335f0 .cfa: sp 80 +
STACK CFI 335fc .cfa: sp 0 +
STACK CFI 33600 .cfa: x29 32 +
STACK CFI INIT 33604 260 .cfa: sp 0 +
STACK CFI 33608 .cfa: sp 112 +
STACK CFI 33620 .cfa: x29 80 + x19: .cfa -8 + ^ x20: .cfa -16 + ^ x21: .cfa -24 + ^ x22: .cfa -32 + ^ x23: .cfa -40 + ^ x24: .cfa -48 + ^ x25: .cfa -64 + ^ .ra: .cfa -72 + ^ x29: .cfa -80 + ^
STACK CFI 33804 .cfa: sp 112 +
STACK CFI 3381c .cfa: sp 0 +
STACK CFI 33820 .cfa: x29 80 +
STACK CFI INIT 33864 150 .cfa: sp 0 +
STACK CFI 33868 .cfa: sp 48 +
STACK CFI 33874 .cfa: x29 48 + x19: .cfa -8 + ^ x20: .cfa -16 + ^ x21: .cfa -24 + ^ x22: .cfa -32 + ^ .ra: .cfa -40 + ^ x29: .cfa -48 + ^
STACK CFI 339a4 .cfa: sp 48 +
STACK CFI 339b0 .cfa: sp 0 +
STACK CFI INIT 339b4 1e0 .cfa: sp 0 +
STACK CFI 339b8 .cfa: sp 96 +
STACK CFI 339cc .cfa: x29 64 + x19: .cfa -8 + ^ x20: .cfa -16 + ^ x21: .cfa -24 + ^ x22: .cfa -32 + ^ x23: .cfa -40 + ^ x24: .cfa -48 + ^ .ra: .cfa -56 + ^ x29: .cfa -64 + ^
STACK CFI 33b4c .cfa: sp 96 +
STACK CFI 33b60 .cfa: sp 0 +
STACK CFI 33b64 .cfa: x29 64 +
STACK CFI INIT 33b94 284 .cfa: sp 0 +
STACK CFI 33b98 .cfa: sp 112 +
STACK CFI 33bb0 .cfa: x29 80 + x19: .cfa -8 + ^ x20: .cfa -16 + ^ x21: .cfa -24 + ^ x22: .cfa -32 + ^ x23: .cfa -40 + ^ x24: .cfa -48 + ^ x25: .cfa -64 + ^ .ra: .cfa -72 + ^ x29: .cfa -80 + ^
STACK CFI 33db8 .cfa: sp 112 +
STACK CFI 33dd0 .cfa: sp 0 +
STACK CFI 33dd4 .cfa: x29 80 +
STACK CFI INIT 33e18 208 .cfa: sp 0 +
STACK CFI 33e1c .cfa: sp 96 +
STACK CFI 33e30 .cfa: x29 64 + x19: .cfa -8 + ^ x20: .cfa -16 + ^ x21: .cfa -24 + ^ x22: .cfa -32 + ^ x23: .cfa -40 + ^ x24: .cfa -48 + ^ .ra: .cfa -56 + ^ x29: .cfa -64 + ^
STACK CFI 33fd8 .cfa: sp 96 +
STACK CFI 33fec .cfa: sp 0 +
STACK CFI 33ff0 .cfa: x29 64 +
STACK CFI INIT 34020 360 .cfa: sp 0 +
STACK CFI 34024 .cfa: sp 160 +
STACK CFI 34040 .cfa: x29 96 + x19: .cfa -8 + ^ x20: .cfa -16 + ^ x21: .cfa -24 + ^ x22: .cfa -32 + ^ x23: .cfa -40 + ^ x24: .cfa -48 + ^ x25: .cfa -56 + ^ x26: .cfa -64 + ^ x27: .cfa -72 + ^ x28: .cfa -80 + ^ .ra: .cfa -88 + ^ x29: .cfa -96 + ^
STACK CFI 3430c .cfa: sp 160 +
STACK CFI 34328 .cfa: sp 0 +
STACK CFI 3432c .cfa: x29 96 +
STACK CFI INIT 34380 314 .cfa: sp 0 +
STACK CFI 34384 .cfa: sp 144 +
STACK CFI 343a0 .cfa: x29 96 + x19: .cfa -8 + ^ x20: .cfa -16 + ^ x21: .cfa -24 + ^ x22: .cfa -32 + ^ x23: .cfa -40 + ^ x24: .cfa -48 + ^ x25: .cfa -56 + ^ x26: .cfa -64 + ^ x27: .cfa -72 + ^ x28: .cfa -80 + ^ .ra: .cfa -88 + ^ x29: .cfa -96 + ^
STACK CFI 3461c .cfa: sp 144 +
STACK CFI 34638 .cfa: sp 0 +
STACK CFI 3463c .cfa: x29 96 +
STACK CFI INIT 34694 290 .cfa: sp 0 +
STACK CFI 34698 .cfa: sp 128 +
STACK CFI 346b0 .cfa: x29 80 + x19: .cfa -8 + ^ x20: .cfa -16 + ^ x21: .cfa -24 + ^ x22: .cfa -32 + ^ x23: .cfa -40 + ^ x24: .cfa -48 + ^ x25: .cfa -56 + ^ x26: .cfa -64 + ^ .ra: .cfa -72 + ^ x29: .cfa -80 + ^
STACK CFI 34904 .cfa: sp 128 +
STACK CFI 3491c .cfa: sp 0 +
STACK CFI 34920 .cfa: x29 80 +
STACK CFI INIT 34924 ddc .cfa: sp 0 +
STACK CFI 34928 .cfa: sp 144 +
STACK CFI 34944 .cfa: x29 96 + x19: .cfa -8 + ^ x20: .cfa -16 + ^ x21: .cfa -24 + ^ x22: .cfa -32 + ^ x23: .cfa -40 + ^ x24: .cfa -48 + ^ x25: .cfa -56 + ^ x26: .cfa -64 + ^ x27: .cfa -72 + ^ x28: .cfa -80 + ^ .ra: .cfa -88 + ^ x29: .cfa -96 + ^
STACK CFI 355d8 .cfa: sp 144 +
STACK CFI 355f4 .cfa: sp 0 +
STACK CFI 355f8 .cfa: x29 96 +
STACK CFI INIT 35700 1d0 .cfa: sp 0 +
STACK CFI 35704 .cfa: sp 80 +
STACK CFI 35718 .cfa: x29 80 + x19: .cfa -8 + ^ x20: .cfa -16 + ^ x21: .cfa -24 + ^ x22: .cfa -32 + ^ x23: .cfa -40 + ^ x24: .cfa -48 + ^ x25: .cfa -64 + ^ .ra: .cfa -72 + ^ x29: .cfa -80 + ^
STACK CFI 358b8 .cfa: sp 80 +
STACK CFI 358cc .cfa: sp 0 +
STACK CFI INIT 358d0 23c .cfa: sp 0 +
STACK CFI 358d4 .cfa: sp 112 +
STACK CFI 358e8 .cfa: x29 64 + x19: .cfa -8 + ^ x20: .cfa -16 + ^ x21: .cfa -24 + ^ x22: .cfa -32 + ^ x23: .cfa -40 + ^ x24: .cfa -48 + ^ .ra: .cfa -56 + ^ x29: .cfa -64 + ^
STACK CFI 35ac4 .cfa: sp 112 +
STACK CFI 35ad8 .cfa: sp 0 +
STACK CFI 35adc .cfa: x29 64 +
STACK CFI INIT 35b0c 30c .cfa: sp 0 +
STACK CFI 35b10 .cfa: sp 80 +
STACK CFI 35b24 .cfa: x29 64 + x19: .cfa -8 + ^ x20: .cfa -16 + ^ x21: .cfa -24 + ^ x22: .cfa -32 + ^ x23: .cfa -40 + ^ x24: .cfa -48 + ^ .ra: .cfa -56 + ^ x29: .cfa -64 + ^
STACK CFI 35ca0 .cfa: sp 80 +
STACK CFI 35cb4 .cfa: sp 0 +
STACK CFI 35cb8 .cfa: x29 64 +
STACK CFI INIT 35e18 178 .cfa: sp 0 +
STACK CFI 35e1c .cfa: sp 80 +
STACK CFI 35e30 .cfa: x29 64 + x19: .cfa -8 + ^ x20: .cfa -16 + ^ x21: .cfa -24 + ^ x22: .cfa -32 + ^ x23: .cfa -40 + ^ x24: .cfa -48 + ^ .ra: .cfa -56 + ^ x29: .cfa -64 + ^
STACK CFI 35f74 .cfa: sp 80 +
STACK CFI 35f88 .cfa: sp 0 +
STACK CFI 35f8c .cfa: x29 64 +
STACK CFI INIT 35f90 178 .cfa: sp 0 +
STACK CFI 35f94 .cfa: sp 80 +
STACK CFI 35fa8 .cfa: x29 64 + x19: .cfa -8 + ^ x20: .cfa -16 + ^ x21: .cfa -24 + ^ x22: .cfa -32 + ^ x23: .cfa -40 + ^ x24: .cfa -48 + ^ .ra: .cfa -56 + ^ x29: .cfa -64 + ^
STACK CFI 360ec .cfa: sp 80 +
STACK CFI 36100 .cfa: sp 0 +
STACK CFI 36104 .cfa: x29 64 +
STACK CFI INIT 36108 240 .cfa: sp 0 +
STACK CFI 3610c .cfa: sp 96 +
STACK CFI 36124 .cfa: x29 96 + x19: .cfa -8 + ^ x20: .cfa -16 + ^ x21: .cfa -24 + ^ x22: .cfa -32 + ^ x23: .cfa -40 + ^ x24: .cfa -48 + ^ x25: .cfa -56 + ^ x26: .cfa -64 + ^ x27: .cfa -72 + ^ x28: .cfa -80 + ^ .ra: .cfa -88 + ^ x29: .cfa -96 + ^
STACK CFI 3632c .cfa: sp 96 +
STACK CFI 36344 .cfa: sp 0 +
STACK CFI INIT 36fbc 154 .cfa: sp 0 +
STACK CFI 36fc0 .cfa: sp 96 +
STACK CFI 36fd4 .cfa: x29 64 + x19: .cfa -8 + ^ x20: .cfa -16 + ^ x21: .cfa -24 + ^ x22: .cfa -32 + ^ x23: .cfa -48 + ^ .ra: .cfa -56 + ^ x29: .cfa -64 + ^
STACK CFI 370b4 .cfa: sp 96 +
STACK CFI 370c8 .cfa: sp 0 +
STACK CFI 370cc .cfa: x29 64 +
STACK CFI INIT 3737c 44 .cfa: sp 0 +
STACK CFI 37380 .cfa: sp 32 +
STACK CFI 37388 .cfa: x29 32 + x19: .cfa -16 + ^ .ra: .cfa -24 + ^ x29: .cfa -32 + ^
STACK CFI 373a4 .cfa: sp 32 +
STACK CFI 373ac .cfa: sp 0 +
STACK CFI 373b0 .cfa: x29 32 +
STACK CFI 373b4 .cfa: sp 32 +
STACK CFI 373bc .cfa: sp 0 +
STACK CFI INIT 373c0 1d0 .cfa: sp 0 +
STACK CFI 373c4 .cfa: sp 64 +
STACK CFI 373d4 .cfa: x29 64 + x19: .cfa -8 + ^ x20: .cfa -16 + ^ x21: .cfa -24 + ^ x22: .cfa -32 + ^ x23: .cfa -40 + ^ x24: .cfa -48 + ^ .ra: .cfa -56 + ^ x29: .cfa -64 + ^
STACK CFI 37494 .cfa: sp 64 +
STACK CFI 374a4 .cfa: sp 0 +
STACK CFI 374a8 .cfa: x29 64 +
STACK CFI INIT 37590 17c .cfa: sp 0 +
STACK CFI INIT 37ac4 a0 .cfa: sp 0 +
STACK CFI 37ac8 .cfa: sp 48 +
STACK CFI 37ad4 .cfa: x29 48 + x19: .cfa -8 + ^ x20: .cfa -16 + ^ x21: .cfa -24 + ^ x22: .cfa -32 + ^ .ra: .cfa -40 + ^ x29: .cfa -48 + ^
STACK CFI 37b40 .cfa: sp 48 +
STACK CFI 37b4c .cfa: sp 0 +
STACK CFI 37b50 .cfa: sp 48 +
STACK CFI 37b5c .cfa: sp 0 +
STACK CFI 37b60 .cfa: x29 48 +
STACK CFI INIT 38818 158 .cfa: sp 0 +
STACK CFI 3881c .cfa: sp 96 +
STACK CFI 38830 .cfa: x29 64 + x19: .cfa -8 + ^ x20: .cfa -16 + ^ x21: .cfa -24 + ^ x22: .cfa -32 + ^ x23: .cfa -48 + ^ .ra: .cfa -56 + ^ x29: .cfa -64 + ^
STACK CFI 38914 .cfa: sp 96 +
STACK CFI 38928 .cfa: sp 0 +
STACK CFI 3892c .cfa: x29 64 +
STACK CFI INIT 38970 190 .cfa: sp 0 +
STACK CFI INIT 395fc 1dc .cfa: sp 0 +
STACK CFI 39600 .cfa: sp 80 +
STACK CFI 39614 .cfa: x29 80 + x19: .cfa -8 + ^ x20: .cfa -16 + ^ x21: .cfa -24 + ^ x22: .cfa -32 + ^ x23: .cfa -40 + ^ x24: .cfa -48 + ^ x25: .cfa -64 + ^ .ra: .cfa -72 + ^ x29: .cfa -80 + ^
STACK CFI 397c0 .cfa: sp 80 +
STACK CFI 397d4 .cfa: sp 0 +
STACK CFI INIT 3ac08 124 .cfa: sp 0 +
STACK CFI 3ac38 .cfa: sp 32 +
STACK CFI 3ac40 .cfa: x29 32 + x19: .cfa -8 + ^ x20: .cfa -16 + ^ .ra: .cfa -24 + ^ x29: .cfa -32 + ^
STACK CFI 3ad20 .cfa: sp 32 +
STACK CFI 3ad28 .cfa: sp 0 +
STACK CFI INIT 3b488 320 .cfa: sp 0 +
STACK CFI 3b48c .cfa: sp 64 +
STACK CFI 3b49c .cfa: x29 64 + x19: .cfa -8 + ^ x20: .cfa -16 + ^ x21: .cfa -24 + ^ x22: .cfa -32 + ^ x23: .cfa -40 + ^ x24: .cfa -48 + ^ .ra: .cfa -56 + ^ x29: .cfa -64 + ^
STACK CFI 3b518 .cfa: sp 64 +
STACK CFI 3b528 .cfa: sp 0 +
STACK CFI 3b52c .cfa: x29 64 +
STACK CFI 3b700 .cfa: sp 64 +
STACK CFI 3b710 .cfa: sp 0 +
STACK CFI 3b714 .cfa: x29 64 +
STACK CFI 3b724 .cfa: sp 64 +
STACK CFI 3b734 .cfa: sp 0 +
STACK CFI 3b738 .cfa: x29 64 +
STACK CFI INIT 3b7a8 a0 .cfa: sp 0 +
STACK CFI 3b7ac .cfa: sp 48 +
STACK CFI 3b7b8 .cfa: x29 48 + x19: .cfa -8 + ^ x20: .cfa -16 + ^ x21: .cfa -24 + ^ x22: .cfa -32 + ^ .ra: .cfa -40 + ^ x29: .cfa -48 + ^
STACK CFI 3b824 .cfa: sp 48 +
STACK CFI 3b830 .cfa: sp 0 +
STACK CFI 3b834 .cfa: sp 48 +
STACK CFI 3b840 .cfa: sp 0 +
STACK CFI 3b844 .cfa: x29 48 +
STACK CFI INIT 3c6f8 160 .cfa: sp 0 +
STACK CFI 3c6fc .cfa: sp 64 +
STACK CFI 3c70c .cfa: x29 64 + x19: .cfa -8 + ^ x20: .cfa -16 + ^ x21: .cfa -24 + ^ x22: .cfa -32 + ^ x23: .cfa -48 + ^ .ra: .cfa -56 + ^ x29: .cfa -64 + ^
STACK CFI 3c804 .cfa: sp 64 +
STACK CFI 3c814 .cfa: sp 0 +
STACK CFI 3c818 .cfa: x29 64 +
STACK CFI INIT 3c858 214 .cfa: sp 0 +
STACK CFI 3c85c .cfa: sp 128 +
STACK CFI 3c878 .cfa: x29 96 + x19: .cfa -8 + ^ x20: .cfa -16 + ^ x21: .cfa -24 + ^ x22: .cfa -32 + ^ x23: .cfa -40 + ^ x24: .cfa -48 + ^ x25: .cfa -56 + ^ x26: .cfa -64 + ^ x27: .cfa -80 + ^ .ra: .cfa -88 + ^ x29: .cfa -96 + ^
STACK CFI 3c9f4 .cfa: sp 128 +
STACK CFI 3ca10 .cfa: sp 0 +
STACK CFI 3ca14 .cfa: x29 96 +
STACK CFI INIT 3e708 290 .cfa: sp 0 +
STACK CFI 3e70c .cfa: sp 16 +
STACK CFI 3e710 .cfa: x29 16 + .ra: .cfa -8 + ^ x29: .cfa -16 + ^
STACK CFI 3e79c .cfa: sp 16 +
STACK CFI 3e7a0 .cfa: sp 0 +
STACK CFI 3e7a4 .cfa: x29 16 +
STACK CFI 3e7f4 .cfa: sp 16 +
STACK CFI 3e7f8 .cfa: sp 0 +
STACK CFI 3e7fc .cfa: x29 16 +
STACK CFI 3e960 .cfa: sp 16 +
STACK CFI 3e964 .cfa: sp 0 +
STACK CFI 3e968 .cfa: x29 16 +
STACK CFI INIT 3e998 158 .cfa: sp 0 +
STACK CFI 3e99c .cfa: sp 112 +
STACK CFI 3e9b8 .cfa: x29 96 + x19: .cfa -8 + ^ x20: .cfa -16 + ^ x21: .cfa -24 + ^ x22: .cfa -32 + ^ x23: .cfa -40 + ^ x24: .cfa -48 + ^ x25: .cfa -56 + ^ x26: .cfa -64 + ^ x27: .cfa -72 + ^ x28: .cfa -80 + ^ .ra: .cfa -88 + ^ x29: .cfa -96 + ^
STACK CFI 3eaa0 .cfa: sp 112 +
STACK CFI 3eaa4 .cfa: x29 96 +
STACK CFI 3eaac .cfa: sp 112 +
STACK CFI 3eac8 .cfa: sp 0 +
STACK CFI 3eacc .cfa: x29 96 +
STACK CFI 3eaec .cfa: sp 112 +
STACK CFI INIT 3eaf0 e54 .cfa: sp 0 +
STACK CFI 3eaf4 .cfa: sp 192 +
STACK CFI 3eb10 .cfa: x29 96 + x19: .cfa -8 + ^ x20: .cfa -16 + ^ x21: .cfa -24 + ^ x22: .cfa -32 + ^ x23: .cfa -40 + ^ x24: .cfa -48 + ^ x25: .cfa -56 + ^ x26: .cfa -64 + ^ x27: .cfa -72 + ^ x28: .cfa -80 + ^ .ra: .cfa -88 + ^ x29: .cfa -96 + ^
STACK CFI 3f82c .cfa: sp 192 +
STACK CFI 3f848 .cfa: sp 0 +
STACK CFI 3f84c .cfa: x29 96 +
STACK CFI INIT 3f944 1068 .cfa: sp 0 +
STACK CFI 3f948 .cfa: sp 288 +
STACK CFI 3f964 .cfa: x29 96 + x19: .cfa -8 + ^ x20: .cfa -16 + ^ x21: .cfa -24 + ^ x22: .cfa -32 + ^ x23: .cfa -40 + ^ x24: .cfa -48 + ^ x25: .cfa -56 + ^ x26: .cfa -64 + ^ x27: .cfa -72 + ^ x28: .cfa -80 + ^ .ra: .cfa -88 + ^ x29: .cfa -96 + ^
STACK CFI 406f4 .cfa: sp 288 +
STACK CFI 40710 .cfa: sp 0 +
STACK CFI 40714 .cfa: x29 96 +
STACK CFI INIT 409ac 520 .cfa: sp 0 +
STACK CFI 409b0 .cfa: sp 144 +
STACK CFI 409cc .cfa: x29 96 + x19: .cfa -8 + ^ x20: .cfa -16 + ^ x21: .cfa -24 + ^ x22: .cfa -32 + ^ x23: .cfa -40 + ^ x24: .cfa -48 + ^ x25: .cfa -56 + ^ x26: .cfa -64 + ^ x27: .cfa -72 + ^ x28: .cfa -80 + ^ .ra: .cfa -88 + ^ x29: .cfa -96 + ^
STACK CFI 40ea8 .cfa: sp 144 +
STACK CFI 40ec4 .cfa: sp 0 +
STACK CFI 40ec8 .cfa: x29 96 +
STACK CFI INIT 4186c 136c .cfa: sp 0 +
STACK CFI 41870 .cfa: sp 224 +
STACK CFI 4188c .cfa: x29 96 + x19: .cfa -8 + ^ x20: .cfa -16 + ^ x21: .cfa -24 + ^ x22: .cfa -32 + ^ x23: .cfa -40 + ^ x24: .cfa -48 + ^ x25: .cfa -56 + ^ x26: .cfa -64 + ^ x27: .cfa -72 + ^ x28: .cfa -80 + ^ .ra: .cfa -88 + ^ x29: .cfa -96 + ^
STACK CFI 42bb4 .cfa: sp 224 +
STACK CFI 42bd0 .cfa: sp 0 +
STACK CFI 42bd4 .cfa: x29 96 +
STACK CFI INIT 42bd8 1b8 .cfa: sp 0 +
STACK CFI INIT 17990 11ac .cfa: sp 0 +
STACK CFI 17994 .cfa: sp 96 +
STACK CFI 179ac .cfa: x29 96 + x19: .cfa -8 + ^ x20: .cfa -16 + ^ x21: .cfa -24 + ^ x22: .cfa -32 + ^ x23: .cfa -40 + ^ x24: .cfa -48 + ^ x25: .cfa -56 + ^ x26: .cfa -64 + ^ x27: .cfa -72 + ^ x28: .cfa -80 + ^ .ra: .cfa -88 + ^ x29: .cfa -96 + ^
STACK CFI 186b4 .cfa: sp 96 +
STACK CFI 186cc .cfa: sp 0 +
STACK CFI 186d0 .cfa: x29 96 +
STACK CFI INIT 18b3c 384 .cfa: sp 0 +
STACK CFI 18b40 .cfa: sp 192 +
STACK CFI 18b5c .cfa: x29 96 + x19: .cfa -8 + ^ x20: .cfa -16 + ^ x21: .cfa -24 + ^ x22: .cfa -32 + ^ x23: .cfa -40 + ^ x24: .cfa -48 + ^ x25: .cfa -56 + ^ x26: .cfa -64 + ^ x27: .cfa -80 + ^ .ra: .cfa -88 + ^ x29: .cfa -96 + ^
STACK CFI 18d8c .cfa: sp 192 +
STACK CFI 18da8 .cfa: sp 0 +
STACK CFI 18dac .cfa: x29 96 +
STACK CFI INIT 18ec0 74 .cfa: sp 0 +
STACK CFI 18ec4 .cfa: sp 48 +
STACK CFI 18ed0 .cfa: x29 32 + x19: .cfa -8 + ^ x20: .cfa -16 + ^ .ra: .cfa -24 + ^ x29: .cfa -32 + ^
STACK CFI 18f1c .cfa: sp 48 +
STACK CFI 18f28 .cfa: sp 0 +
STACK CFI 18f2c .cfa: x29 32 +
STACK CFI INIT 18f34 120 .cfa: sp 0 +
STACK CFI 18f38 .cfa: sp 64 +
STACK CFI 18f44 .cfa: x29 32 + x19: .cfa -8 + ^ x20: .cfa -16 + ^ .ra: .cfa -24 + ^ x29: .cfa -32 + ^
STACK CFI 1900c .cfa: sp 64 +
STACK CFI 19018 .cfa: sp 0 +
STACK CFI 1901c .cfa: x29 32 +
STACK CFI INIT 19054 190 .cfa: sp 0 +
STACK CFI 19058 .cfa: sp 160 +
STACK CFI 19068 .cfa: x29 48 + x19: .cfa -8 + ^ x20: .cfa -16 + ^ x21: .cfa -32 + ^ .ra: .cfa -40 + ^ x29: .cfa -48 + ^
STACK CFI 19188 .cfa: sp 160 +
STACK CFI 19198 .cfa: sp 0 +
STACK CFI 1919c .cfa: x29 48 +
STACK CFI INIT 19234 d98 .cfa: sp 0 +
STACK CFI 19238 .cfa: sp 96 +
STACK CFI 19250 .cfa: x29 96 + x19: .cfa -8 + ^ x20: .cfa -16 + ^ x21: .cfa -24 + ^ x22: .cfa -32 + ^ x23: .cfa -40 + ^ x24: .cfa -48 + ^ x25: .cfa -56 + ^ x26: .cfa -64 + ^ x27: .cfa -72 + ^ x28: .cfa -80 + ^ .ra: .cfa -88 + ^ x29: .cfa -96 + ^
STACK CFI 19950 .cfa: sp 96 +
STACK CFI 19968 .cfa: sp 0 +
STACK CFI 1996c .cfa: x29 96 +
STACK CFI INIT 1a1ec 50 .cfa: sp 0 +
STACK CFI 1a1f0 .cfa: sp 32 +
STACK CFI 1a1f8 .cfa: x29 32 + x19: .cfa -8 + ^ x20: .cfa -16 + ^ .ra: .cfa -24 + ^ x29: .cfa -32 + ^
STACK CFI INIT 1a5bc 304 .cfa: sp 0 +
STACK CFI 1a5c0 .cfa: sp 128 +
STACK CFI 1a5dc .cfa: x29 96 + x19: .cfa -8 + ^ x20: .cfa -16 + ^ x21: .cfa -24 + ^ x22: .cfa -32 + ^ x23: .cfa -40 + ^ x24: .cfa -48 + ^ x25: .cfa -56 + ^ x26: .cfa -64 + ^ x27: .cfa -72 + ^ x28: .cfa -80 + ^ .ra: .cfa -88 + ^ x29: .cfa -96 + ^
STACK CFI 1a840 .cfa: sp 128 +
STACK CFI 1a85c .cfa: sp 0 +
STACK CFI 1a860 .cfa: x29 96 +
STACK CFI INIT 1a8c0 74 .cfa: sp 0 +
STACK CFI 1a8c4 .cfa: sp 48 +
STACK CFI 1a8d0 .cfa: x29 32 + x19: .cfa -8 + ^ x20: .cfa -16 + ^ .ra: .cfa -24 + ^ x29: .cfa -32 + ^
STACK CFI 1a91c .cfa: sp 48 +
STACK CFI 1a928 .cfa: sp 0 +
STACK CFI 1a92c .cfa: x29 32 +
STACK CFI INIT 1a964 114 .cfa: sp 0 +
STACK CFI 1a968 .cfa: sp 80 +
STACK CFI 1a97c .cfa: x29 80 + x19: .cfa -8 + ^ x20: .cfa -16 + ^ x21: .cfa -24 + ^ x22: .cfa -32 + ^ x23: .cfa -40 + ^ x24: .cfa -48 + ^ x25: .cfa -56 + ^ x26: .cfa -64 + ^ .ra: .cfa -72 + ^ x29: .cfa -80 + ^
STACK CFI 1aa1c .cfa: sp 80 +
STACK CFI 1aa30 .cfa: sp 0 +
STACK CFI 1aa34 .cfa: x29 80 +
STACK CFI INIT 1aa78 1b4 .cfa: sp 0 +
STACK CFI 1aa7c .cfa: sp 80 +
STACK CFI 1aa90 .cfa: x29 64 + x19: .cfa -8 + ^ x20: .cfa -16 + ^ x21: .cfa -24 + ^ x22: .cfa -32 + ^ x23: .cfa -40 + ^ x24: .cfa -48 + ^ .ra: .cfa -56 + ^ x29: .cfa -64 + ^
STACK CFI 1ab9c .cfa: sp 80 +
STACK CFI 1abb0 .cfa: sp 0 +
STACK CFI 1abb4 .cfa: x29 64 +
STACK CFI INIT 1ac2c c4 .cfa: sp 0 +
STACK CFI 1ac30 .cfa: sp 48 +
STACK CFI 1ac3c .cfa: x29 48 + x19: .cfa -8 + ^ x20: .cfa -16 + ^ x21: .cfa -32 + ^ .ra: .cfa -40 + ^ x29: .cfa -48 + ^
STACK CFI 1acac .cfa: sp 48 +
STACK CFI 1acb8 .cfa: sp 0 +
STACK CFI 1acbc .cfa: x29 48 +
STACK CFI INIT 1ad40 458 .cfa: sp 0 +
STACK CFI 1ad44 .cfa: sp 112 +
STACK CFI 1ad60 .cfa: x29 96 + x19: .cfa -8 + ^ x20: .cfa -16 + ^ x21: .cfa -24 + ^ x22: .cfa -32 + ^ x23: .cfa -40 + ^ x24: .cfa -48 + ^ x25: .cfa -56 + ^ x26: .cfa -64 + ^ x27: .cfa -72 + ^ x28: .cfa -80 + ^ .ra: .cfa -88 + ^ x29: .cfa -96 + ^
STACK CFI 1ae60 .cfa: sp 112 +
STACK CFI 1ae7c .cfa: sp 0 +
STACK CFI 1ae80 .cfa: x29 96 +
STACK CFI 1ae8c .cfa: sp 112 +
STACK CFI 1aea8 .cfa: sp 0 +
STACK CFI 1aeac .cfa: x29 96 +
STACK CFI 1aeb8 .cfa: sp 112 +
STACK CFI 1aed4 .cfa: sp 0 +
STACK CFI 1aed8 .cfa: x29 96 +
STACK CFI 1aee4 .cfa: sp 112 +
STACK CFI 1af00 .cfa: sp 0 +
STACK CFI 1af04 .cfa: x29 96 +
STACK CFI 1b120 .cfa: sp 112 +
STACK CFI 1b13c .cfa: sp 0 +
STACK CFI 1b140 .cfa: x29 96 +
STACK CFI INIT 1b198 4c .cfa: sp 0 +
STACK CFI 1b19c .cfa: sp 32 +
STACK CFI 1b1a4 .cfa: x29 32 + x19: .cfa -8 + ^ x20: .cfa -16 + ^ .ra: .cfa -24 + ^ x29: .cfa -32 + ^
STACK CFI INIT 1bae0 4c .cfa: sp 0 +
STACK CFI 1bae4 .cfa: sp 32 +
STACK CFI 1baec .cfa: x29 32 + x19: .cfa -8 + ^ x20: .cfa -16 + ^ .ra: .cfa -24 + ^ x29: .cfa -32 + ^
STACK CFI INIT 1bc44 364 .cfa: sp 0 +
STACK CFI 1bc48 .cfa: sp 144 +
STACK CFI 1bc5c .cfa: x29 64 + x19: .cfa -8 + ^ x20: .cfa -16 + ^ x21: .cfa -24 + ^ x22: .cfa -32 + ^ x23: .cfa -48 + ^ .ra: .cfa -56 + ^ x29: .cfa -64 + ^
STACK CFI 1bdf0 .cfa: sp 144 +
STACK CFI 1be04 .cfa: sp 0 +
STACK CFI 1be08 .cfa: x29 64 +
STACK CFI INIT 1c5fc 6c .cfa: sp 0 +
STACK CFI 1c600 .cfa: sp 32 +
STACK CFI 1c608 .cfa: x29 32 + x19: .cfa -8 + ^ x20: .cfa -16 + ^ .ra: .cfa -24 + ^ x29: .cfa -32 + ^
STACK CFI 1c648 .cfa: sp 32 +
STACK CFI 1c650 .cfa: sp 0 +
STACK CFI 1c654 .cfa: x29 32 +
STACK CFI INIT 1c71c 4c .cfa: sp 0 +
STACK CFI 1c720 .cfa: sp 32 +
STACK CFI 1c728 .cfa: x29 32 + x19: .cfa -8 + ^ x20: .cfa -16 + ^ .ra: .cfa -24 + ^ x29: .cfa -32 + ^
STACK CFI INIT 1cbf0 1bc .cfa: sp 0 +
STACK CFI 1cbf4 .cfa: sp 176 +
STACK CFI 1cc04 .cfa: x29 48 + x19: .cfa -8 + ^ x20: .cfa -16 + ^ x21: .cfa -24 + ^ x22: .cfa -32 + ^ .ra: .cfa -40 + ^ x29: .cfa -48 + ^
STACK CFI 1cd64 .cfa: sp 176 +
STACK CFI 1cd74 .cfa: sp 0 +
STACK CFI 1cd78 .cfa: x29 48 +
STACK CFI INIT 1cdac 474 .cfa: sp 0 +
STACK CFI 1cdb0 .cfa: sp 256 +
STACK CFI 1cdcc .cfa: x29 96 + x19: .cfa -8 + ^ x20: .cfa -16 + ^ x21: .cfa -24 + ^ x22: .cfa -32 + ^ x23: .cfa -40 + ^ x24: .cfa -48 + ^ x25: .cfa -56 + ^ x26: .cfa -64 + ^ x27: .cfa -72 + ^ x28: .cfa -80 + ^ .ra: .cfa -88 + ^ x29: .cfa -96 + ^
STACK CFI 1d124 .cfa: sp 256 +
STACK CFI 1d140 .cfa: sp 0 +
STACK CFI 1d144 .cfa: x29 96 +
STACK CFI INIT 1d44c 4c .cfa: sp 0 +
STACK CFI 1d450 .cfa: sp 32 +
STACK CFI 1d458 .cfa: x29 32 + x19: .cfa -8 + ^ x20: .cfa -16 + ^ .ra: .cfa -24 + ^ x29: .cfa -32 + ^
STACK CFI INIT 1d498 178 .cfa: sp 0 +
STACK CFI 1d49c .cfa: sp 80 +
STACK CFI 1d4b0 .cfa: x29 80 + x19: .cfa -8 + ^ x20: .cfa -16 + ^ x21: .cfa -24 + ^ x22: .cfa -32 + ^ x23: .cfa -40 + ^ x24: .cfa -48 + ^ x25: .cfa -64 + ^ .ra: .cfa -72 + ^ x29: .cfa -80 + ^
STACK CFI 1d5a4 .cfa: sp 80 +
STACK CFI 1d5b8 .cfa: sp 0 +
STACK CFI 1d5bc .cfa: x29 80 +
STACK CFI INIT 1d610 4c .cfa: sp 0 +
STACK CFI 1d614 .cfa: sp 32 +
STACK CFI 1d61c .cfa: x29 32 + x19: .cfa -8 + ^ x20: .cfa -16 + ^ .ra: .cfa -24 + ^ x29: .cfa -32 + ^
STACK CFI INIT 1dd60 154 .cfa: sp 0 +
STACK CFI 1dd64 .cfa: sp 64 +
STACK CFI 1dd74 .cfa: x29 64 + x19: .cfa -8 + ^ x20: .cfa -16 + ^ x21: .cfa -24 + ^ x22: .cfa -32 + ^ x23: .cfa -48 + ^ .ra: .cfa -56 + ^ x29: .cfa -64 + ^
STACK CFI 1de88 .cfa: sp 64 +
STACK CFI 1de98 .cfa: sp 0 +
STACK CFI 1de9c .cfa: x29 64 +
STACK CFI INIT 1deb4 4c .cfa: sp 0 +
STACK CFI 1deb8 .cfa: sp 32 +
STACK CFI 1dec0 .cfa: x29 32 + x19: .cfa -8 + ^ x20: .cfa -16 + ^ .ra: .cfa -24 + ^ x29: .cfa -32 + ^
STACK CFI INIT 1dfc0 4c .cfa: sp 0 +
STACK CFI 1dfc4 .cfa: sp 32 +
STACK CFI 1dfcc .cfa: x29 32 + x19: .cfa -8 + ^ x20: .cfa -16 + ^ .ra: .cfa -24 + ^ x29: .cfa -32 + ^
STACK CFI INIT 1e00c 254 .cfa: sp 0 +
STACK CFI 1e010 .cfa: sp 48 +
STACK CFI 1e01c .cfa: x29 48 + x19: .cfa -8 + ^ x20: .cfa -16 + ^ x21: .cfa -32 + ^ .ra: .cfa -40 + ^ x29: .cfa -48 + ^
STACK CFI 1e1d8 .cfa: sp 48 +
STACK CFI 1e1e4 .cfa: sp 0 +
STACK CFI 1e1e8 .cfa: x29 48 +
STACK CFI INIT 1e76c 140 .cfa: sp 0 +
STACK CFI 1e770 .cfa: sp 48 +
STACK CFI 1e77c .cfa: x29 48 + x19: .cfa -8 + ^ x20: .cfa -16 + ^ x21: .cfa -32 + ^ .ra: .cfa -40 + ^ x29: .cfa -48 + ^
STACK CFI 1e85c .cfa: sp 48 +
STACK CFI 1e868 .cfa: sp 0 +
STACK CFI 1e86c .cfa: x29 48 +
STACK CFI INIT 1e8ac 4c .cfa: sp 0 +
STACK CFI 1e8b0 .cfa: sp 32 +
STACK CFI 1e8b8 .cfa: x29 32 + x19: .cfa -8 + ^ x20: .cfa -16 + ^ .ra: .cfa -24 + ^ x29: .cfa -32 + ^
STACK CFI INIT 1f53c 1dc .cfa: sp 0 +
STACK CFI 1f540 .cfa: sp 128 +
STACK CFI 1f558 .cfa: x29 80 + x19: .cfa -8 + ^ x20: .cfa -16 + ^ x21: .cfa -24 + ^ x22: .cfa -32 + ^ x23: .cfa -40 + ^ x24: .cfa -48 + ^ x25: .cfa -64 + ^ .ra: .cfa -72 + ^ x29: .cfa -80 + ^
STACK CFI 1f64c .cfa: sp 128 +
STACK CFI 1f664 .cfa: sp 0 +
STACK CFI 1f668 .cfa: x29 80 +
STACK CFI INIT 1f9a8 af8 .cfa: sp 0 +
STACK CFI 1f9ac .cfa: sp 224 +
STACK CFI 1f9c8 .cfa: x29 96 + x19: .cfa -8 + ^ x20: .cfa -16 + ^ x21: .cfa -24 + ^ x22: .cfa -32 + ^ x23: .cfa -40 + ^ x24: .cfa -48 + ^ x25: .cfa -56 + ^ x26: .cfa -64 + ^ x27: .cfa -72 + ^ x28: .cfa -80 + ^ .ra: .cfa -88 + ^ x29: .cfa -96 + ^
STACK CFI 20408 .cfa: sp 224 +
STACK CFI 20424 .cfa: sp 0 +
STACK CFI 20428 .cfa: x29 96 +
STACK CFI INIT 204e4 2b4 .cfa: sp 0 +
STACK CFI 204e8 .cfa: sp 144 +
STACK CFI 20500 .cfa: x29 80 + x19: .cfa -8 + ^ x20: .cfa -16 + ^ x21: .cfa -24 + ^ x22: .cfa -32 + ^ x23: .cfa -40 + ^ x24: .cfa -48 + ^ x25: .cfa -64 + ^ .ra: .cfa -72 + ^ x29: .cfa -80 + ^
STACK CFI 20704 .cfa: sp 144 +
STACK CFI 2071c .cfa: sp 0 +
STACK CFI 20720 .cfa: x29 80 +
STACK CFI INIT 20798 1c4 .cfa: sp 0 +
STACK CFI 2079c .cfa: sp 112 +
STACK CFI 207b4 .cfa: x29 80 + x19: .cfa -8 + ^ x20: .cfa -16 + ^ x21: .cfa -24 + ^ x22: .cfa -32 + ^ x23: .cfa -40 + ^ x24: .cfa -48 + ^ x25: .cfa -64 + ^ .ra: .cfa -72 + ^ x29: .cfa -80 + ^
STACK CFI 208e0 .cfa: sp 112 +
STACK CFI 208f8 .cfa: sp 0 +
STACK CFI 208fc .cfa: x29 80 +
STACK CFI INIT 20970 4c .cfa: sp 0 +
STACK CFI 20974 .cfa: sp 32 +
STACK CFI 2097c .cfa: x29 32 + x19: .cfa -8 + ^ x20: .cfa -16 + ^ .ra: .cfa -24 + ^ x29: .cfa -32 + ^
STACK CFI INIT 209bc 5c8 .cfa: sp 0 +
STACK CFI 209c0 .cfa: sp 192 +
STACK CFI 209d4 .cfa: x29 64 + x19: .cfa -8 + ^ x20: .cfa -16 + ^ x21: .cfa -24 + ^ x22: .cfa -32 + ^ x23: .cfa -40 + ^ x24: .cfa -48 + ^ .ra: .cfa -56 + ^ x29: .cfa -64 + ^
STACK CFI 20ccc .cfa: sp 192 +
STACK CFI 20ce0 .cfa: sp 0 +
STACK CFI 20ce4 .cfa: x29 64 +
STACK CFI INIT 20f84 2e0 .cfa: sp 0 +
STACK CFI 20f88 .cfa: sp 128 +
STACK CFI 20f9c .cfa: x29 64 + x19: .cfa -8 + ^ x20: .cfa -16 + ^ x21: .cfa -24 + ^ x22: .cfa -32 + ^ x23: .cfa -40 + ^ x24: .cfa -48 + ^ .ra: .cfa -56 + ^ x29: .cfa -64 + ^
STACK CFI 21198 .cfa: sp 128 +
STACK CFI 211ac .cfa: sp 0 +
STACK CFI 211b0 .cfa: x29 64 +
STACK CFI INIT 21a28 4a0 .cfa: sp 0 +
STACK CFI 21a2c .cfa: sp 176 +
STACK CFI 21a40 .cfa: x29 64 + x19: .cfa -8 + ^ x20: .cfa -16 + ^ x21: .cfa -24 + ^ x22: .cfa -32 + ^ x23: .cfa -40 + ^ x24: .cfa -48 + ^ .ra: .cfa -56 + ^ x29: .cfa -64 + ^
STACK CFI 21e0c .cfa: sp 176 +
STACK CFI 21e20 .cfa: sp 0 +
STACK CFI 21e24 .cfa: x29 64 +
STACK CFI INIT 222ec 4c .cfa: sp 0 +
STACK CFI 222f0 .cfa: sp 32 +
STACK CFI 222f8 .cfa: x29 32 + x19: .cfa -8 + ^ x20: .cfa -16 + ^ .ra: .cfa -24 + ^ x29: .cfa -32 + ^
STACK CFI INIT 22338 2b4 .cfa: sp 0 +
STACK CFI 2233c .cfa: sp 144 +
STACK CFI 22354 .cfa: x29 80 + x19: .cfa -8 + ^ x20: .cfa -16 + ^ x21: .cfa -24 + ^ x22: .cfa -32 + ^ x23: .cfa -40 + ^ x24: .cfa -48 + ^ x25: .cfa -64 + ^ .ra: .cfa -72 + ^ x29: .cfa -80 + ^
STACK CFI 22558 .cfa: sp 144 +
STACK CFI 22570 .cfa: sp 0 +
STACK CFI 22574 .cfa: x29 80 +
STACK CFI INIT 225ec 218 .cfa: sp 0 +
STACK CFI 225f0 .cfa: sp 112 +
STACK CFI 22608 .cfa: x29 80 + x19: .cfa -8 + ^ x20: .cfa -16 + ^ x21: .cfa -24 + ^ x22: .cfa -32 + ^ x23: .cfa -40 + ^ x24: .cfa -48 + ^ x25: .cfa -64 + ^ .ra: .cfa -72 + ^ x29: .cfa -80 + ^
STACK CFI 22788 .cfa: sp 112 +
STACK CFI 227a0 .cfa: sp 0 +
STACK CFI 227a4 .cfa: x29 80 +
STACK CFI INIT 22804 4c .cfa: sp 0 +
STACK CFI 22808 .cfa: sp 32 +
STACK CFI 22810 .cfa: x29 32 + x19: .cfa -8 + ^ x20: .cfa -16 + ^ .ra: .cfa -24 + ^ x29: .cfa -32 + ^
STACK CFI INIT 22850 180 .cfa: sp 0 +
STACK CFI 22854 .cfa: sp 112 +
STACK CFI 2286c .cfa: x29 80 + x19: .cfa -8 + ^ x20: .cfa -16 + ^ x21: .cfa -24 + ^ x22: .cfa -32 + ^ x23: .cfa -40 + ^ x24: .cfa -48 + ^ x25: .cfa -64 + ^ .ra: .cfa -72 + ^ x29: .cfa -80 + ^
STACK CFI 2296c .cfa: sp 112 +
STACK CFI 22984 .cfa: sp 0 +
STACK CFI 22988 .cfa: x29 80 +
STACK CFI INIT 22e84 1b4 .cfa: sp 0 +
STACK CFI 22e88 .cfa: sp 112 +
STACK CFI 22ea0 .cfa: x29 80 + x19: .cfa -8 + ^ x20: .cfa -16 + ^ x21: .cfa -24 + ^ x22: .cfa -32 + ^ x23: .cfa -40 + ^ x24: .cfa -48 + ^ x25: .cfa -64 + ^ .ra: .cfa -72 + ^ x29: .cfa -80 + ^
STACK CFI 22fd4 .cfa: sp 112 +
STACK CFI 22fec .cfa: sp 0 +
STACK CFI 22ff0 .cfa: x29 80 +
STACK CFI INIT 23038 4c .cfa: sp 0 +
STACK CFI 2303c .cfa: sp 32 +
STACK CFI 23044 .cfa: x29 32 + x19: .cfa -8 + ^ x20: .cfa -16 + ^ .ra: .cfa -24 + ^ x29: .cfa -32 + ^
STACK CFI INIT 23350 140 .cfa: sp 0 +
STACK CFI 23354 .cfa: sp 96 +
STACK CFI 2336c .cfa: x29 96 + x19: .cfa -8 + ^ x20: .cfa -16 + ^ x21: .cfa -24 + ^ x22: .cfa -32 + ^ x23: .cfa -40 + ^ x24: .cfa -48 + ^ x25: .cfa -56 + ^ x26: .cfa -64 + ^ x27: .cfa -72 + ^ x28: .cfa -80 + ^ .ra: .cfa -88 + ^ x29: .cfa -96 + ^
STACK CFI 23428 .cfa: sp 96 +
STACK CFI 23440 .cfa: sp 0 +
STACK CFI 23444 .cfa: x29 96 +
STACK CFI INIT 23490 4c .cfa: sp 0 +
STACK CFI 23494 .cfa: sp 32 +
STACK CFI 2349c .cfa: x29 32 + x19: .cfa -8 + ^ x20: .cfa -16 + ^ .ra: .cfa -24 + ^ x29: .cfa -32 + ^
STACK CFI INIT 234dc 4c .cfa: sp 0 +
STACK CFI 234e0 .cfa: sp 32 +
STACK CFI 234e8 .cfa: x29 32 + x19: .cfa -8 + ^ x20: .cfa -16 + ^ .ra: .cfa -24 + ^ x29: .cfa -32 + ^
STACK CFI INIT 239b8 4c .cfa: sp 0 +
STACK CFI 239bc .cfa: sp 32 +
STACK CFI 239c4 .cfa: x29 32 + x19: .cfa -8 + ^ x20: .cfa -16 + ^ .ra: .cfa -24 + ^ x29: .cfa -32 + ^
STACK CFI INIT 244e4 228 .cfa: sp 0 +
STACK CFI 244e8 .cfa: sp 128 +
STACK CFI 24500 .cfa: x29 80 + x19: .cfa -8 + ^ x20: .cfa -16 + ^ x21: .cfa -24 + ^ x22: .cfa -32 + ^ x23: .cfa -40 + ^ x24: .cfa -48 + ^ x25: .cfa -64 + ^ .ra: .cfa -72 + ^ x29: .cfa -80 + ^
STACK CFI 2469c .cfa: sp 128 +
STACK CFI 246b4 .cfa: sp 0 +
STACK CFI 246b8 .cfa: x29 80 +
STACK CFI INIT 24788 134 .cfa: sp 0 +
STACK CFI 2478c .cfa: sp 80 +
STACK CFI 2479c .cfa: x29 48 + x19: .cfa -8 + ^ x20: .cfa -16 + ^ x21: .cfa -24 + ^ x22: .cfa -32 + ^ .ra: .cfa -40 + ^ x29: .cfa -48 + ^
STACK CFI 248a0 .cfa: sp 80 +
STACK CFI 248b0 .cfa: sp 0 +
STACK CFI 248b4 .cfa: x29 48 +
STACK CFI INIT 248bc 120 .cfa: sp 0 +
STACK CFI 248c0 .cfa: sp 80 +
STACK CFI 248d4 .cfa: x29 80 + x19: .cfa -8 + ^ x20: .cfa -16 + ^ x21: .cfa -24 + ^ x22: .cfa -32 + ^ x23: .cfa -40 + ^ x24: .cfa -48 + ^ x25: .cfa -56 + ^ x26: .cfa -64 + ^ .ra: .cfa -72 + ^ x29: .cfa -80 + ^
STACK CFI 24980 .cfa: sp 80 +
STACK CFI 24994 .cfa: sp 0 +
STACK CFI 24998 .cfa: x29 80 +
STACK CFI INIT 24b30 f8 .cfa: sp 0 +
STACK CFI 24b34 .cfa: sp 48 +
STACK CFI 24b40 .cfa: x29 48 + x19: .cfa -8 + ^ x20: .cfa -16 + ^ x21: .cfa -32 + ^ .ra: .cfa -40 + ^ x29: .cfa -48 + ^
STACK CFI 24bac .cfa: sp 48 +
STACK CFI 24bb8 .cfa: sp 0 +
STACK CFI 24bbc .cfa: x29 48 +
STACK CFI INIT 24cd4 168 .cfa: sp 0 +
STACK CFI 24cd8 .cfa: sp 96 +
STACK CFI 24ce8 .cfa: x29 48 + x19: .cfa -8 + ^ x20: .cfa -16 + ^ x21: .cfa -32 + ^ .ra: .cfa -40 + ^ x29: .cfa -48 + ^
STACK CFI 24d88 .cfa: sp 96 +
STACK CFI 24d98 .cfa: sp 0 +
STACK CFI 24d9c .cfa: x29 48 +
STACK CFI 24df4 .cfa: sp 96 +
STACK CFI 24e04 .cfa: sp 0 +
STACK CFI 24e08 .cfa: x29 48 +
STACK CFI INIT 24e64 1a4 .cfa: sp 0 +
STACK CFI 24e68 .cfa: sp 80 +
STACK CFI 24e78 .cfa: x29 48 + x19: .cfa -8 + ^ x20: .cfa -16 + ^ x21: .cfa -24 + ^ x22: .cfa -32 + ^ .ra: .cfa -40 + ^ x29: .cfa -48 + ^
STACK CFI 24fb8 .cfa: sp 80 +
STACK CFI 24fc8 .cfa: sp 0 +
STACK CFI 24fcc .cfa: x29 48 +
STACK CFI INIT 2500c 174 .cfa: sp 0 +
STACK CFI 25010 .cfa: sp 112 +
STACK CFI 25020 .cfa: x29 48 + x19: .cfa -8 + ^ x20: .cfa -16 + ^ x21: .cfa -32 + ^ .ra: .cfa -40 + ^ x29: .cfa -48 + ^
STACK CFI 2511c .cfa: sp 112 +
STACK CFI 2512c .cfa: sp 0 +
STACK CFI 25130 .cfa: x29 48 +
STACK CFI INIT 2531c 168 .cfa: sp 0 +
STACK CFI 25320 .cfa: sp 96 +
STACK CFI 25330 .cfa: x29 48 + x19: .cfa -8 + ^ x20: .cfa -16 + ^ x21: .cfa -32 + ^ .ra: .cfa -40 + ^ x29: .cfa -48 + ^
STACK CFI 253d0 .cfa: sp 96 +
STACK CFI 253e0 .cfa: sp 0 +
STACK CFI 253e4 .cfa: x29 48 +
STACK CFI 2543c .cfa: sp 96 +
STACK CFI 2544c .cfa: sp 0 +
STACK CFI 25450 .cfa: x29 48 +
STACK CFI INIT 25508 168 .cfa: sp 0 +
STACK CFI 2550c .cfa: sp 96 +
STACK CFI 2551c .cfa: x29 48 + x19: .cfa -8 + ^ x20: .cfa -16 + ^ x21: .cfa -32 + ^ .ra: .cfa -40 + ^ x29: .cfa -48 + ^
STACK CFI 255bc .cfa: sp 96 +
STACK CFI 255cc .cfa: sp 0 +
STACK CFI 255d0 .cfa: x29 48 +
STACK CFI 25628 .cfa: sp 96 +
STACK CFI 25638 .cfa: sp 0 +
STACK CFI 2563c .cfa: x29 48 +
STACK CFI INIT 256f8 168 .cfa: sp 0 +
STACK CFI 256fc .cfa: sp 96 +
STACK CFI 2570c .cfa: x29 48 + x19: .cfa -8 + ^ x20: .cfa -16 + ^ x21: .cfa -32 + ^ .ra: .cfa -40 + ^ x29: .cfa -48 + ^
STACK CFI 257ac .cfa: sp 96 +
STACK CFI 257bc .cfa: sp 0 +
STACK CFI 257c0 .cfa: x29 48 +
STACK CFI 25818 .cfa: sp 96 +
STACK CFI 25828 .cfa: sp 0 +
STACK CFI 2582c .cfa: x29 48 +
STACK CFI INIT 2588c 174 .cfa: sp 0 +
STACK CFI 25890 .cfa: sp 112 +
STACK CFI 258a0 .cfa: x29 48 + x19: .cfa -8 + ^ x20: .cfa -16 + ^ x21: .cfa -32 + ^ .ra: .cfa -40 + ^ x29: .cfa -48 + ^
STACK CFI 2599c .cfa: sp 112 +
STACK CFI 259ac .cfa: sp 0 +
STACK CFI 259b0 .cfa: x29 48 +
STACK CFI INIT 25b50 12c .cfa: sp 0 +
STACK CFI 25b54 .cfa: sp 80 +
STACK CFI 25b64 .cfa: x29 48 + x19: .cfa -8 + ^ x20: .cfa -16 + ^ x21: .cfa -32 + ^ .ra: .cfa -40 + ^ x29: .cfa -48 + ^
STACK CFI 25bfc .cfa: sp 80 +
STACK CFI 25c0c .cfa: sp 0 +
STACK CFI 25c10 .cfa: x29 48 +
STACK CFI INIT 25c7c 480 .cfa: sp 0 +
STACK CFI 25c80 .cfa: sp 224 +
STACK CFI 25c9c .cfa: x29 96 + x19: .cfa -8 + ^ x20: .cfa -16 + ^ x21: .cfa -24 + ^ x22: .cfa -32 + ^ x23: .cfa -40 + ^ x24: .cfa -48 + ^ x25: .cfa -56 + ^ x26: .cfa -64 + ^ x27: .cfa -80 + ^ .ra: .cfa -88 + ^ x29: .cfa -96 + ^
STACK CFI 25f08 .cfa: sp 224 +
STACK CFI 25f24 .cfa: sp 0 +
STACK CFI 25f28 .cfa: x29 96 +
STACK CFI 25ff4 .cfa: sp 224 +
STACK CFI 26010 .cfa: sp 0 +
STACK CFI 26014 .cfa: x29 96 +
STACK CFI INIT 26118 308 .cfa: sp 0 +
STACK CFI 2611c .cfa: sp 176 +
STACK CFI 26130 .cfa: x29 64 + x19: .cfa -8 + ^ x20: .cfa -16 + ^ x21: .cfa -24 + ^ x22: .cfa -32 + ^ x23: .cfa -48 + ^ .ra: .cfa -56 + ^ x29: .cfa -64 + ^
STACK CFI 26318 .cfa: sp 176 +
STACK CFI 2632c .cfa: sp 0 +
STACK CFI 26330 .cfa: x29 64 +
STACK CFI INIT 26470 74 .cfa: sp 0 +
STACK CFI 26474 .cfa: sp 48 +
STACK CFI 26480 .cfa: x29 32 + x19: .cfa -8 + ^ x20: .cfa -16 + ^ .ra: .cfa -24 + ^ x29: .cfa -32 + ^
STACK CFI 264cc .cfa: sp 48 +
STACK CFI 264d8 .cfa: sp 0 +
STACK CFI 264dc .cfa: x29 32 +
STACK CFI INIT 264e8 154 .cfa: sp 0 +
STACK CFI 264ec .cfa: sp 384 +
STACK CFI 26500 .cfa: x29 64 + x19: .cfa -8 + ^ x20: .cfa -16 + ^ x21: .cfa -24 + ^ x22: .cfa -32 + ^ x23: .cfa -40 + ^ x28: .cfa -48 + ^ .ra: .cfa -56 + ^ x29: .cfa -64 + ^
STACK CFI 265e4 .cfa: sp 384 +
STACK CFI 265f8 .cfa: sp 0 +
STACK CFI 265fc .cfa: x29 64 +
STACK CFI INIT 2663c 12c .cfa: sp 0 +
STACK CFI 26640 .cfa: sp 80 +
STACK CFI 26654 .cfa: x29 80 + x19: .cfa -8 + ^ x20: .cfa -16 + ^ x21: .cfa -24 + ^ x22: .cfa -32 + ^ x23: .cfa -40 + ^ x24: .cfa -48 + ^ x25: .cfa -56 + ^ x26: .cfa -64 + ^ .ra: .cfa -72 + ^ x29: .cfa -80 + ^
STACK CFI 2671c .cfa: sp 80 +
STACK CFI 26730 .cfa: sp 0 +
STACK CFI 26734 .cfa: x29 80 +
STACK CFI INIT 267e8 1a4 .cfa: sp 0 +
STACK CFI 267ec .cfa: sp 112 +
STACK CFI 26804 .cfa: x29 80 + x19: .cfa -8 + ^ x20: .cfa -16 + ^ x21: .cfa -24 + ^ x22: .cfa -32 + ^ x23: .cfa -40 + ^ x24: .cfa -48 + ^ x25: .cfa -56 + ^ x26: .cfa -64 + ^ .ra: .cfa -72 + ^ x29: .cfa -80 + ^
STACK CFI 268f4 .cfa: sp 112 +
STACK CFI 2690c .cfa: sp 0 +
STACK CFI 26910 .cfa: x29 80 +
STACK CFI INIT 2698c 1dc .cfa: sp 0 +
STACK CFI 26990 .cfa: sp 128 +
STACK CFI 269ac .cfa: x29 96 + x19: .cfa -8 + ^ x20: .cfa -16 + ^ x21: .cfa -24 + ^ x22: .cfa -32 + ^ x23: .cfa -40 + ^ x24: .cfa -48 + ^ x25: .cfa -56 + ^ x26: .cfa -64 + ^ x27: .cfa -80 + ^ .ra: .cfa -88 + ^ x29: .cfa -96 + ^
STACK CFI 26b18 .cfa: sp 128 +
STACK CFI 26b34 .cfa: sp 0 +
STACK CFI 26b38 .cfa: x29 96 +
STACK CFI INIT 26b68 178 .cfa: sp 0 +
STACK CFI 26b6c .cfa: sp 80 +
STACK CFI 26b80 .cfa: x29 80 + x19: .cfa -8 + ^ x20: .cfa -16 + ^ x21: .cfa -24 + ^ x22: .cfa -32 + ^ x23: .cfa -40 + ^ x24: .cfa -48 + ^ x25: .cfa -64 + ^ .ra: .cfa -72 + ^ x29: .cfa -80 + ^
STACK CFI 26cac .cfa: sp 80 +
STACK CFI 26cc0 .cfa: sp 0 +
STACK CFI 26cc4 .cfa: x29 80 +
STACK CFI INIT 27488 39c .cfa: sp 0 +
STACK CFI 2748c .cfa: sp 144 +
STACK CFI 274a0 .cfa: x29 64 + x19: .cfa -8 + ^ x20: .cfa -16 + ^ x21: .cfa -24 + ^ x22: .cfa -32 + ^ x23: .cfa -48 + ^ .ra: .cfa -56 + ^ x29: .cfa -64 + ^
STACK CFI 277c8 .cfa: sp 144 +
STACK CFI 277dc .cfa: sp 0 +
STACK CFI 277e0 .cfa: x29 64 +
STACK CFI INIT 27824 a8 .cfa: sp 0 +
STACK CFI 27828 .cfa: sp 32 +
STACK CFI 27830 .cfa: x29 32 + x19: .cfa -16 + ^ .ra: .cfa -24 + ^ x29: .cfa -32 + ^
STACK CFI 27864 .cfa: sp 32 +
STACK CFI 2786c .cfa: sp 0 +
STACK CFI 27870 .cfa: x29 32 +
STACK CFI 27874 .cfa: sp 32 +
STACK CFI 2787c .cfa: sp 0 +
STACK CFI 27880 .cfa: x29 32 +
STACK CFI INIT 27d44 480 .cfa: sp 0 +
STACK CFI 27d48 .cfa: sp 224 +
STACK CFI 27d64 .cfa: x29 96 + x19: .cfa -8 + ^ x20: .cfa -16 + ^ x21: .cfa -24 + ^ x22: .cfa -32 + ^ x23: .cfa -40 + ^ x24: .cfa -48 + ^ x25: .cfa -56 + ^ x26: .cfa -64 + ^ x27: .cfa -80 + ^ .ra: .cfa -88 + ^ x29: .cfa -96 + ^
STACK CFI 27fd0 .cfa: sp 224 +
STACK CFI 27fec .cfa: sp 0 +
STACK CFI 27ff0 .cfa: x29 96 +
STACK CFI 280bc .cfa: sp 224 +
STACK CFI 280d8 .cfa: sp 0 +
STACK CFI 280dc .cfa: x29 96 +
STACK CFI INIT 281e0 340 .cfa: sp 0 +
STACK CFI 281e4 .cfa: sp 240 +
STACK CFI 281f8 .cfa: x29 64 + x19: .cfa -8 + ^ x20: .cfa -16 + ^ x21: .cfa -24 + ^ x22: .cfa -32 + ^ x23: .cfa -48 + ^ .ra: .cfa -56 + ^ x29: .cfa -64 + ^
STACK CFI 28408 .cfa: sp 240 +
STACK CFI 2841c .cfa: sp 0 +
STACK CFI 28420 .cfa: x29 64 +
STACK CFI INIT 28560 169c .cfa: sp 0 +
STACK CFI 28564 .cfa: sp 112 +
STACK CFI 28580 .cfa: x29 96 + x19: .cfa -8 + ^ x20: .cfa -16 + ^ x21: .cfa -24 + ^ x22: .cfa -32 + ^ x23: .cfa -40 + ^ x24: .cfa -48 + ^ x25: .cfa -56 + ^ x26: .cfa -64 + ^ x27: .cfa -72 + ^ x28: .cfa -80 + ^ .ra: .cfa -88 + ^ x29: .cfa -96 + ^ v8: .cfa -104 + ^ v9: .cfa -112 + ^
STACK CFI 28618 .cfa: sp 112 +
STACK CFI 28634 .cfa: sp 0 +
STACK CFI 28638 .cfa: x29 96 +
STACK CFI 287a8 .cfa: sp 112 +
STACK CFI 287c4 .cfa: sp 0 +
STACK CFI 287c8 .cfa: x29 96 +
STACK CFI INIT 29c98 118 .cfa: sp 0 +
STACK CFI 29c9c .cfa: sp 80 +
STACK CFI 29cac .cfa: x29 48 + x19: .cfa -8 + ^ x20: .cfa -16 + ^ x21: .cfa -24 + ^ x22: .cfa -32 + ^ .ra: .cfa -40 + ^ x29: .cfa -48 + ^
STACK CFI 29d94 .cfa: sp 80 +
STACK CFI 29da4 .cfa: sp 0 +
STACK CFI 29da8 .cfa: x29 48 +
STACK CFI INIT 29e48 78 .cfa: sp 0 +
STACK CFI 29e4c .cfa: sp 32 +
STACK CFI 29e54 .cfa: x29 32 + x19: .cfa -8 + ^ x20: .cfa -16 + ^ .ra: .cfa -24 + ^ x29: .cfa -32 + ^
STACK CFI 29e5c .cfa: sp 32 +
STACK CFI 29e64 .cfa: sp 0 +
STACK CFI 29e68 .cfa: x29 32 +
STACK CFI INIT 29f58 74 .cfa: sp 0 +
STACK CFI 29f5c .cfa: sp 48 +
STACK CFI 29f68 .cfa: x29 32 + x19: .cfa -8 + ^ x20: .cfa -16 + ^ .ra: .cfa -24 + ^ x29: .cfa -32 + ^
STACK CFI 29fb4 .cfa: sp 48 +
STACK CFI 29fc0 .cfa: sp 0 +
STACK CFI 29fc4 .cfa: x29 32 +
STACK CFI INIT 29fcc 350 .cfa: sp 0 +
STACK CFI 29fd0 .cfa: sp 96 +
STACK CFI 29fe8 .cfa: x29 96 + x19: .cfa -8 + ^ x20: .cfa -16 + ^ x21: .cfa -24 + ^ x22: .cfa -32 + ^ x23: .cfa -40 + ^ x24: .cfa -48 + ^ x25: .cfa -56 + ^ x26: .cfa -64 + ^ x27: .cfa -72 + ^ x28: .cfa -80 + ^ .ra: .cfa -88 + ^ x29: .cfa -96 + ^
STACK CFI 2a2c0 .cfa: sp 96 +
STACK CFI 2a2d8 .cfa: sp 0 +
STACK CFI 2a2dc .cfa: x29 96 +
STACK CFI INIT 2a31c 13c .cfa: sp 0 +
STACK CFI 2a320 .cfa: sp 96 +
STACK CFI 2a334 .cfa: x29 48 + x19: .cfa -8 + ^ x20: .cfa -16 + ^ x21: .cfa -24 + ^ x22: .cfa -32 + ^ .ra: .cfa -40 + ^ x29: .cfa -48 + ^ v8: .cfa -64 + ^
STACK CFI 2a438 .cfa: sp 96 +
STACK CFI 2a44c .cfa: sp 0 +
STACK CFI 2a450 .cfa: x29 48 +
STACK CFI INIT 2a458 20 .cfa: sp 0 +
STACK CFI 2a45c .cfa: sp 16 +
STACK CFI 2a460 .cfa: x29 16 + .ra: .cfa -8 + ^ x29: .cfa -16 + ^
STACK CFI 2a46c .cfa: sp 16 +
STACK CFI 2a470 .cfa: sp 0 +
STACK CFI 2a474 .cfa: x29 16 +
STACK CFI INIT 2a9fc ea8 .cfa: sp 0 +
STACK CFI 2aa00 .cfa: sp 384 +
STACK CFI 2aa1c .cfa: x29 96 + x19: .cfa -8 + ^ x20: .cfa -16 + ^ x21: .cfa -24 + ^ x22: .cfa -32 + ^ x23: .cfa -40 + ^ x24: .cfa -48 + ^ x25: .cfa -56 + ^ x26: .cfa -64 + ^ x27: .cfa -72 + ^ x28: .cfa -80 + ^ .ra: .cfa -88 + ^ x29: .cfa -96 + ^
STACK CFI 2b77c .cfa: sp 384 +
STACK CFI 2b798 .cfa: sp 0 +
STACK CFI 2b79c .cfa: x29 96 +
STACK CFI INIT 2b8a4 a94 .cfa: sp 0 +
STACK CFI 2b8a8 .cfa: sp 416 +
STACK CFI 2b8c4 .cfa: x29 96 + x19: .cfa -8 + ^ x20: .cfa -16 + ^ x21: .cfa -24 + ^ x22: .cfa -32 + ^ x23: .cfa -40 + ^ x24: .cfa -48 + ^ x25: .cfa -56 + ^ x26: .cfa -64 + ^ x27: .cfa -72 + ^ x28: .cfa -80 + ^ .ra: .cfa -88 + ^ x29: .cfa -96 + ^
STACK CFI 2ba50 .cfa: sp 416 +
STACK CFI 2ba6c .cfa: sp 0 +
STACK CFI 2ba70 .cfa: x29 96 +
STACK CFI INIT 2c500 5f0 .cfa: sp 0 +
STACK CFI 2c504 .cfa: sp 112 +
STACK CFI 2c520 .cfa: x29 96 + x19: .cfa -8 + ^ x20: .cfa -16 + ^ x21: .cfa -24 + ^ x22: .cfa -32 + ^ x23: .cfa -40 + ^ x24: .cfa -48 + ^ x25: .cfa -56 + ^ x26: .cfa -64 + ^ x27: .cfa -80 + ^ .ra: .cfa -88 + ^ x29: .cfa -96 + ^
STACK CFI 2c7c4 .cfa: sp 112 +
STACK CFI 2c7e0 .cfa: sp 0 +
STACK CFI 2c7e4 .cfa: x29 96 +
STACK CFI 2c9d8 .cfa: sp 112 +
STACK CFI 2c9f4 .cfa: sp 0 +
STACK CFI 2c9f8 .cfa: x29 96 +
STACK CFI INIT 2cfa4 4f4 .cfa: sp 0 +
STACK CFI 2cfa8 .cfa: sp 416 +
STACK CFI 2cfc4 .cfa: x29 96 + x19: .cfa -8 + ^ x20: .cfa -16 + ^ x21: .cfa -24 + ^ x22: .cfa -32 + ^ x23: .cfa -40 + ^ x24: .cfa -48 + ^ x25: .cfa -56 + ^ x26: .cfa -64 + ^ x27: .cfa -72 + ^ x28: .cfa -80 + ^ .ra: .cfa -88 + ^ x29: .cfa -96 + ^
STACK CFI 2d3c8 .cfa: sp 416 +
STACK CFI 2d3e4 .cfa: sp 0 +
STACK CFI 2d3e8 .cfa: x29 96 +
STACK CFI INIT 2d498 168 .cfa: sp 0 +
STACK CFI 2d49c .cfa: sp 384 +
STACK CFI 2d4b0 .cfa: x29 64 + x19: .cfa -8 + ^ x20: .cfa -16 + ^ x21: .cfa -24 + ^ x22: .cfa -32 + ^ x23: .cfa -40 + ^ x28: .cfa -48 + ^ .ra: .cfa -56 + ^ x29: .cfa -64 + ^
STACK CFI 2d5a8 .cfa: sp 384 +
STACK CFI 2d5bc .cfa: sp 0 +
STACK CFI 2d5c0 .cfa: x29 64 +
STACK CFI INIT 2d818 16c .cfa: sp 0 +
STACK CFI 2d81c .cfa: sp 144 +
STACK CFI 2d830 .cfa: x29 64 + x19: .cfa -8 + ^ x20: .cfa -16 + ^ x21: .cfa -24 + ^ x22: .cfa -32 + ^ x23: .cfa -40 + ^ x24: .cfa -48 + ^ .ra: .cfa -56 + ^ x29: .cfa -64 + ^
STACK CFI 2d918 .cfa: sp 144 +
STACK CFI 2d92c .cfa: sp 0 +
STACK CFI 2d930 .cfa: x29 64 +
STACK CFI INIT 2da70 480 .cfa: sp 0 +
STACK CFI 2da74 .cfa: sp 224 +
STACK CFI 2da90 .cfa: x29 96 + x19: .cfa -8 + ^ x20: .cfa -16 + ^ x21: .cfa -24 + ^ x22: .cfa -32 + ^ x23: .cfa -40 + ^ x24: .cfa -48 + ^ x25: .cfa -56 + ^ x26: .cfa -64 + ^ x27: .cfa -80 + ^ .ra: .cfa -88 + ^ x29: .cfa -96 + ^
STACK CFI 2dcfc .cfa: sp 224 +
STACK CFI 2dd18 .cfa: sp 0 +
STACK CFI 2dd1c .cfa: x29 96 +
STACK CFI 2dde8 .cfa: sp 224 +
STACK CFI 2de04 .cfa: sp 0 +
STACK CFI 2de08 .cfa: x29 96 +
STACK CFI INIT 2df0c 388 .cfa: sp 0 +
STACK CFI 2df10 .cfa: sp 256 +
STACK CFI 2df24 .cfa: x29 64 + x19: .cfa -8 + ^ x20: .cfa -16 + ^ x21: .cfa -24 + ^ x22: .cfa -32 + ^ x23: .cfa -48 + ^ .ra: .cfa -56 + ^ x29: .cfa -64 + ^
STACK CFI 2e168 .cfa: sp 256 +
STACK CFI 2e17c .cfa: sp 0 +
STACK CFI 2e180 .cfa: x29 64 +
STACK CFI INIT 2e298 69c .cfa: sp 0 +
STACK CFI 2e29c .cfa: sp 224 +
STACK CFI 2e2b0 .cfa: x29 64 + x19: .cfa -8 + ^ x20: .cfa -16 + ^ x21: .cfa -24 + ^ x22: .cfa -32 + ^ x23: .cfa -40 + ^ x24: .cfa -48 + ^ .ra: .cfa -56 + ^ x29: .cfa -64 + ^
STACK CFI 2e330 .cfa: sp 224 +
STACK CFI 2e344 .cfa: sp 0 +
STACK CFI 2e348 .cfa: x29 64 +
STACK CFI INIT 2e9cc 74 .cfa: sp 0 +
STACK CFI 2e9d0 .cfa: sp 32 +
STACK CFI 2e9d8 .cfa: x29 32 + x19: .cfa -8 + ^ x20: .cfa -16 + ^ .ra: .cfa -24 + ^ x29: .cfa -32 + ^
STACK CFI 2ea18 .cfa: sp 32 +
STACK CFI 2ea20 .cfa: sp 0 +
STACK CFI 2ea24 .cfa: x29 32 +
STACK CFI INIT 2ea40 19c .cfa: sp 0 +
STACK CFI 2ea44 .cfa: sp 96 +
STACK CFI 2ea58 .cfa: x29 64 + x19: .cfa -8 + ^ x20: .cfa -16 + ^ x21: .cfa -24 + ^ x22: .cfa -32 + ^ x23: .cfa -48 + ^ .ra: .cfa -56 + ^ x29: .cfa -64 + ^
STACK CFI 2eb58 .cfa: sp 96 +
STACK CFI 2eb6c .cfa: sp 0 +
STACK CFI 2eb70 .cfa: x29 64 +
STACK CFI INIT 2ecd8 638 .cfa: sp 0 +
STACK CFI 2ecdc .cfa: sp 240 +
STACK CFI 2ecfc .cfa: x29 96 + x19: .cfa -8 + ^ x20: .cfa -16 + ^ x21: .cfa -24 + ^ x22: .cfa -32 + ^ x23: .cfa -40 + ^ x24: .cfa -48 + ^ x25: .cfa -56 + ^ x26: .cfa -64 + ^ x27: .cfa -72 + ^ x28: .cfa -80 + ^ .ra: .cfa -88 + ^ x29: .cfa -96 + ^ v8: .cfa -112 + ^
STACK CFI 2f1d8 .cfa: sp 240 +
STACK CFI 2f1f8 .cfa: sp 0 +
STACK CFI 2f1fc .cfa: x29 96 +
STACK CFI INIT 2f4f8 1b0 .cfa: sp 0 +
STACK CFI 2f4fc .cfa: sp 80 +
STACK CFI 2f508 .cfa: x29 32 + x19: .cfa -8 + ^ x20: .cfa -16 + ^ .ra: .cfa -24 + ^ x29: .cfa -32 + ^
STACK CFI 2f5cc .cfa: sp 80 +
STACK CFI 2f5d8 .cfa: sp 0 +
STACK CFI 2f5dc .cfa: x29 32 +
STACK CFI INIT 2f798 134 .cfa: sp 0 +
STACK CFI 2f79c .cfa: sp 80 +
STACK CFI 2f7a8 .cfa: x29 32 + x19: .cfa -8 + ^ x20: .cfa -16 + ^ .ra: .cfa -24 + ^ x29: .cfa -32 + ^
STACK CFI 2f7d8 .cfa: sp 80 +
STACK CFI 2f7e4 .cfa: sp 0 +
STACK CFI 2f7e8 .cfa: x29 32 +
STACK CFI INIT 2f8cc 78 .cfa: sp 0 +
STACK CFI 2f8d0 .cfa: sp 32 +
STACK CFI 2f8d8 .cfa: x29 32 + x19: .cfa -8 + ^ x20: .cfa -16 + ^ .ra: .cfa -24 + ^ x29: .cfa -32 + ^
STACK CFI 2f8e4 .cfa: sp 32 +
STACK CFI 2f8ec .cfa: sp 0 +
STACK CFI 2f8f0 .cfa: x29 32 +
STACK CFI INIT 2f944 74 .cfa: sp 0 +
STACK CFI 2f948 .cfa: sp 48 +
STACK CFI 2f954 .cfa: x29 32 + x19: .cfa -8 + ^ x20: .cfa -16 + ^ .ra: .cfa -24 + ^ x29: .cfa -32 + ^
STACK CFI 2f9a0 .cfa: sp 48 +
STACK CFI 2f9ac .cfa: sp 0 +
STACK CFI 2f9b0 .cfa: x29 32 +
STACK CFI INIT 2fa40 25c .cfa: sp 0 +
STACK CFI 2fa44 .cfa: sp 128 +
STACK CFI 2fa54 .cfa: x29 48 + x19: .cfa -8 + ^ x20: .cfa -16 + ^ x21: .cfa -32 + ^ .ra: .cfa -40 + ^ x29: .cfa -48 + ^
STACK CFI 2fb3c .cfa: sp 128 +
STACK CFI 2fb4c .cfa: sp 0 +
STACK CFI 2fb50 .cfa: x29 48 +
STACK CFI INIT 2fcc0 1b8 .cfa: sp 0 +
STACK CFI 2fcc4 .cfa: sp 160 +
STACK CFI 2fce0 .cfa: x29 72 + x19: .cfa -8 + ^ x20: .cfa -16 + ^ x21: .cfa -24 + ^ x22: .cfa -32 + ^ x23: .cfa -40 + ^ x24: .cfa -48 + ^ x25: .cfa -56 + ^ .ra: .cfa -64 + ^ x29: .cfa -72 + ^ v8: .cfa -80 + ^
STACK CFI 2fd64 .cfa: sp 160 +
STACK CFI 2fd80 .cfa: sp 0 +
STACK CFI 2fd84 .cfa: x29 72 +
STACK CFI INIT 2fe78 16c .cfa: sp 0 +
STACK CFI 2fe7c .cfa: sp 64 +
STACK CFI 2fe8c .cfa: x29 48 + x19: .cfa -8 + ^ x20: .cfa -16 + ^ x21: .cfa -24 + ^ x22: .cfa -32 + ^ .ra: .cfa -40 + ^ x29: .cfa -48 + ^
STACK CFI 2ff84 .cfa: sp 64 +
STACK CFI 2ff94 .cfa: sp 0 +
STACK CFI 2ff98 .cfa: x29 48 +
STACK CFI INIT 2ffe4 178 .cfa: sp 0 +
STACK CFI 2ffe8 .cfa: sp 128 +
STACK CFI 2fff8 .cfa: x29 48 + x19: .cfa -8 + ^ x20: .cfa -16 + ^ x21: .cfa -24 + ^ x22: .cfa -32 + ^ .ra: .cfa -40 + ^ x29: .cfa -48 + ^
STACK CFI 30054 .cfa: sp 128 +
STACK CFI 30064 .cfa: sp 0 +
STACK CFI 30068 .cfa: x29 48 +
STACK CFI INIT 3015c a4 .cfa: sp 0 +
STACK CFI 30160 .cfa: sp 48 +
STACK CFI 3016c .cfa: x29 48 + x19: .cfa -8 + ^ x20: .cfa -16 + ^ x21: .cfa -32 + ^ .ra: .cfa -40 + ^ x29: .cfa -48 + ^
STACK CFI 301d8 .cfa: sp 48 +
STACK CFI 301e4 .cfa: sp 0 +
STACK CFI 301e8 .cfa: x29 48 +
STACK CFI INIT 30204 2a0 .cfa: sp 0 +
STACK CFI 30208 .cfa: sp 144 +
STACK CFI 3021c .cfa: x29 64 + x19: .cfa -8 + ^ x20: .cfa -16 + ^ x21: .cfa -24 + ^ x22: .cfa -32 + ^ x23: .cfa -48 + ^ .ra: .cfa -56 + ^ x29: .cfa -64 + ^
STACK CFI 30350 .cfa: sp 144 +
STACK CFI 30364 .cfa: sp 0 +
STACK CFI 30368 .cfa: x29 64 +
STACK CFI INIT 304a4 4f4 .cfa: sp 0 +
STACK CFI 304a8 .cfa: sp 144 +
STACK CFI 304bc .cfa: x29 64 + x19: .cfa -8 + ^ x20: .cfa -16 + ^ x21: .cfa -24 + ^ x22: .cfa -32 + ^ x23: .cfa -48 + ^ .ra: .cfa -56 + ^ x29: .cfa -64 + ^
STACK CFI 307f0 .cfa: sp 144 +
STACK CFI 30804 .cfa: sp 0 +
STACK CFI 30808 .cfa: x29 64 +
STACK CFI INIT 30998 154 .cfa: sp 0 +
STACK CFI 3099c .cfa: sp 384 +
STACK CFI 309b0 .cfa: x29 64 + x19: .cfa -8 + ^ x20: .cfa -16 + ^ x21: .cfa -24 + ^ x22: .cfa -32 + ^ x23: .cfa -40 + ^ x28: .cfa -48 + ^ .ra: .cfa -56 + ^ x29: .cfa -64 + ^
STACK CFI 30a94 .cfa: sp 384 +
STACK CFI 30aa8 .cfa: sp 0 +
STACK CFI 30aac .cfa: x29 64 +
STACK CFI INIT 30b04 50c .cfa: sp 0 +
STACK CFI 30b08 .cfa: sp 64 +
STACK CFI 30b18 .cfa: x29 64 + x19: .cfa -8 + ^ x20: .cfa -16 + ^ x21: .cfa -24 + ^ x22: .cfa -32 + ^ x23: .cfa -40 + ^ x24: .cfa -48 + ^ .ra: .cfa -56 + ^ x29: .cfa -64 + ^
STACK CFI 30c38 .cfa: sp 64 +
STACK CFI 30c48 .cfa: sp 0 +
STACK CFI 30c4c .cfa: x29 64 +
STACK CFI 30fe4 .cfa: sp 64 +
STACK CFI 30ff4 .cfa: sp 0 +
STACK CFI 30ff8 .cfa: x29 64 +
STACK CFI INIT 31340 294 .cfa: sp 0 +
STACK CFI 31344 .cfa: sp 240 +
STACK CFI 3135c .cfa: x29 80 + x19: .cfa -8 + ^ x20: .cfa -16 + ^ x21: .cfa -24 + ^ x22: .cfa -32 + ^ x23: .cfa -40 + ^ x24: .cfa -48 + ^ x25: .cfa -64 + ^ .ra: .cfa -72 + ^ x29: .cfa -80 + ^
STACK CFI 314fc .cfa: sp 240 +
STACK CFI 31514 .cfa: sp 0 +
STACK CFI 31518 .cfa: x29 80 +
STACK CFI INIT 31650 50 .cfa: sp 0 +
STACK CFI 31654 .cfa: sp 32 +
STACK CFI 3165c .cfa: x29 32 + x19: .cfa -8 + ^ x20: .cfa -16 + ^ .ra: .cfa -24 + ^ x29: .cfa -32 + ^
STACK CFI INIT 316cc 7c0 .cfa: sp 0 +
STACK CFI 316d0 .cfa: sp 320 +
STACK CFI 316ec .cfa: x29 96 + x19: .cfa -8 + ^ x20: .cfa -16 + ^ x21: .cfa -24 + ^ x22: .cfa -32 + ^ x23: .cfa -40 + ^ x24: .cfa -48 + ^ x25: .cfa -56 + ^ x26: .cfa -64 + ^ x27: .cfa -72 + ^ x28: .cfa -80 + ^ .ra: .cfa -88 + ^ x29: .cfa -96 + ^
STACK CFI 31d3c .cfa: sp 320 +
STACK CFI 31d58 .cfa: sp 0 +
STACK CFI 31d5c .cfa: x29 96 +
STACK CFI INIT 31ef0 13c .cfa: sp 0 +
STACK CFI 31ef4 .cfa: sp 80 +
STACK CFI 31f08 .cfa: x29 80 + x19: .cfa -8 + ^ x20: .cfa -16 + ^ x21: .cfa -24 + ^ x22: .cfa -32 + ^ x23: .cfa -40 + ^ x24: .cfa -48 + ^ x28: .cfa -64 + ^ .ra: .cfa -72 + ^ x29: .cfa -80 + ^
STACK CFI 31f9c .cfa: sp 80 +
STACK CFI 31fb0 .cfa: sp 0 +
STACK CFI 31fb4 .cfa: x29 80 +
STACK CFI INIT 36348 c74 .cfa: sp 0 +
STACK CFI 3634c .cfa: sp 96 +
STACK CFI 36364 .cfa: x29 96 + x19: .cfa -8 + ^ x20: .cfa -16 + ^ x21: .cfa -24 + ^ x22: .cfa -32 + ^ x23: .cfa -40 + ^ x24: .cfa -48 + ^ x25: .cfa -56 + ^ x26: .cfa -64 + ^ x27: .cfa -72 + ^ x28: .cfa -80 + ^ .ra: .cfa -88 + ^ x29: .cfa -96 + ^
STACK CFI 36ddc .cfa: sp 96 +
STACK CFI 36df4 .cfa: sp 0 +
STACK CFI 36df8 .cfa: x29 96 +
STACK CFI INIT 37110 26c .cfa: sp 0 +
STACK CFI 37114 .cfa: sp 128 +
STACK CFI 37124 .cfa: x29 48 + x19: .cfa -8 + ^ x20: .cfa -16 + ^ x21: .cfa -24 + ^ x22: .cfa -32 + ^ .ra: .cfa -40 + ^ x29: .cfa -48 + ^
STACK CFI 372c8 .cfa: sp 128 +
STACK CFI 372d8 .cfa: sp 0 +
STACK CFI 372dc .cfa: x29 48 +
STACK CFI INIT 3770c 3b8 .cfa: sp 0 +
STACK CFI 37710 .cfa: sp 96 +
STACK CFI 37728 .cfa: x29 96 + x19: .cfa -8 + ^ x20: .cfa -16 + ^ x21: .cfa -24 + ^ x22: .cfa -32 + ^ x23: .cfa -40 + ^ x24: .cfa -48 + ^ x25: .cfa -56 + ^ x26: .cfa -64 + ^ x27: .cfa -72 + ^ x28: .cfa -80 + ^ .ra: .cfa -88 + ^ x29: .cfa -96 + ^
STACK CFI 37a64 .cfa: sp 96 +
STACK CFI 37a7c .cfa: sp 0 +
STACK CFI 37a80 .cfa: x29 96 +
STACK CFI INIT 37b64 cb4 .cfa: sp 0 +
STACK CFI 37b68 .cfa: sp 96 +
STACK CFI 37b80 .cfa: x29 96 + x19: .cfa -8 + ^ x20: .cfa -16 + ^ x21: .cfa -24 + ^ x22: .cfa -32 + ^ x23: .cfa -40 + ^ x24: .cfa -48 + ^ x25: .cfa -56 + ^ x26: .cfa -64 + ^ x27: .cfa -72 + ^ x28: .cfa -80 + ^ .ra: .cfa -88 + ^ x29: .cfa -96 + ^
STACK CFI 38628 .cfa: sp 96 +
STACK CFI 38640 .cfa: sp 0 +
STACK CFI 38644 .cfa: x29 96 +
STACK CFI INIT 38b00 afc .cfa: sp 0 +
STACK CFI 38b04 .cfa: sp 96 +
STACK CFI 38b1c .cfa: x29 96 + x19: .cfa -8 + ^ x20: .cfa -16 + ^ x21: .cfa -24 + ^ x22: .cfa -32 + ^ x23: .cfa -40 + ^ x24: .cfa -48 + ^ x25: .cfa -56 + ^ x26: .cfa -64 + ^ x27: .cfa -72 + ^ x28: .cfa -80 + ^ .ra: .cfa -88 + ^ x29: .cfa -96 + ^
STACK CFI 39570 .cfa: sp 96 +
STACK CFI 39588 .cfa: sp 0 +
STACK CFI 3958c .cfa: x29 96 +
STACK CFI INIT 397d8 1430 .cfa: sp 0 +
STACK CFI 397dc .cfa: sp 96 +
STACK CFI 397f4 .cfa: x29 96 + x19: .cfa -8 + ^ x20: .cfa -16 + ^ x21: .cfa -24 + ^ x22: .cfa -32 + ^ x23: .cfa -40 + ^ x24: .cfa -48 + ^ x25: .cfa -56 + ^ x26: .cfa -64 + ^ x27: .cfa -72 + ^ x28: .cfa -80 + ^ .ra: .cfa -88 + ^ x29: .cfa -96 + ^
STACK CFI 3aa90 .cfa: sp 96 +
STACK CFI 3aaa8 .cfa: sp 0 +
STACK CFI 3aaac .cfa: x29 96 +
STACK CFI INIT 3ad2c 75c .cfa: sp 0 +
STACK CFI 3ad30 .cfa: sp 368 +
STACK CFI 3ad4c .cfa: x29 96 + x19: .cfa -8 + ^ x20: .cfa -16 + ^ x21: .cfa -24 + ^ x22: .cfa -32 + ^ x23: .cfa -40 + ^ x24: .cfa -48 + ^ x25: .cfa -56 + ^ x26: .cfa -64 + ^ x27: .cfa -72 + ^ x28: .cfa -80 + ^ .ra: .cfa -88 + ^ x29: .cfa -96 + ^
STACK CFI 3ae00 .cfa: sp 368 +
STACK CFI 3ae1c .cfa: sp 0 +
STACK CFI 3ae20 .cfa: x29 96 +
STACK CFI 3ae74 .cfa: sp 368 +
STACK CFI 3ae90 .cfa: sp 0 +
STACK CFI 3ae94 .cfa: x29 96 +
STACK CFI INIT 3b848 eb0 .cfa: sp 0 +
STACK CFI 3b84c .cfa: sp 96 +
STACK CFI 3b864 .cfa: x29 96 + x19: .cfa -8 + ^ x20: .cfa -16 + ^ x21: .cfa -24 + ^ x22: .cfa -32 + ^ x23: .cfa -40 + ^ x24: .cfa -48 + ^ x25: .cfa -56 + ^ x26: .cfa -64 + ^ x27: .cfa -72 + ^ x28: .cfa -80 + ^ .ra: .cfa -88 + ^ x29: .cfa -96 + ^
STACK CFI 3c50c .cfa: sp 96 +
STACK CFI 3c524 .cfa: sp 0 +
STACK CFI 3c528 .cfa: x29 96 +
STACK CFI INIT 3ca6c 1c9c .cfa: sp 0 +
STACK CFI 3ca70 .cfa: sp 112 +
STACK CFI 3ca8c .cfa: x29 96 + x19: .cfa -8 + ^ x20: .cfa -16 + ^ x21: .cfa -24 + ^ x22: .cfa -32 + ^ x23: .cfa -40 + ^ x24: .cfa -48 + ^ x25: .cfa -56 + ^ x26: .cfa -64 + ^ x27: .cfa -72 + ^ x28: .cfa -80 + ^ .ra: .cfa -88 + ^ x29: .cfa -96 + ^ v8: .cfa -112 + ^
STACK CFI 3ce74 .cfa: sp 112 +
STACK CFI 3ce90 .cfa: sp 0 +
STACK CFI 3ce94 .cfa: x29 96 +
STACK CFI INIT 40ecc 9a0 .cfa: sp 0 +
STACK CFI 40ed0 .cfa: sp 144 +
STACK CFI 40ee8 .cfa: x29 80 + x19: .cfa -8 + ^ x20: .cfa -16 + ^ x21: .cfa -24 + ^ x22: .cfa -32 + ^ x23: .cfa -40 + ^ x24: .cfa -48 + ^ x25: .cfa -64 + ^ .ra: .cfa -72 + ^ x29: .cfa -80 + ^
STACK CFI 417e8 .cfa: sp 144 +
STACK CFI 41800 .cfa: sp 0 +
STACK CFI 41804 .cfa: x29 80 +
STACK CFI INIT 42d90 57c .cfa: sp 0 +
STACK CFI 42d94 .cfa: sp 96 +
STACK CFI 42dac .cfa: x29 96 + x19: .cfa -8 + ^ x20: .cfa -16 + ^ x21: .cfa -24 + ^ x22: .cfa -32 + ^ x23: .cfa -40 + ^ x24: .cfa -48 + ^ x25: .cfa -56 + ^ x26: .cfa -64 + ^ x27: .cfa -72 + ^ x28: .cfa -80 + ^ .ra: .cfa -88 + ^ x29: .cfa -96 + ^
STACK CFI 43270 .cfa: sp 96 +
STACK CFI 43288 .cfa: sp 0 +
STACK CFI 4328c .cfa: x29 96 +
STACK CFI INIT 4330c 67c .cfa: sp 0 +
STACK CFI 43310 .cfa: sp 96 +
STACK CFI 43328 .cfa: x29 96 + x19: .cfa -8 + ^ x20: .cfa -16 + ^ x21: .cfa -24 + ^ x22: .cfa -32 + ^ x23: .cfa -40 + ^ x24: .cfa -48 + ^ x25: .cfa -56 + ^ x26: .cfa -64 + ^ x27: .cfa -72 + ^ x28: .cfa -80 + ^ .ra: .cfa -88 + ^ x29: .cfa -96 + ^
STACK CFI 438ec .cfa: sp 96 +
STACK CFI 43904 .cfa: sp 0 +
STACK CFI 43908 .cfa: x29 96 +
