MODULE Linux arm64 2129FD1D70C2A6C9F54DD0B0451509560 hiimjustin000.geode_in_pause_menu.android64.so
INFO CODE_ID 1DFD2921C270C9A6F54DD0B045150956E1E9C703
INFO GENERATOR mozilla/dump_syms 2.3.4
PUBLIC 11340 0 __on_dlclose
PUBLIC 11350 0 __emutls_unregister_key
PUBLIC 11358 0 __on_dlclose_late
PUBLIC 11360 0 __atexit_handler_wrapper
PUBLIC 11374 0 atexit
PUBLIC 11390 0 pthread_atfork
PUBLIC 113a0 0 unwind_phase2
PUBLIC 114d4 0 _Unwind_Resume
PUBLIC 11558 0 unwind_phase2_forced
PUBLIC m 1164c 0 __unw_init_local
PUBLIC m 116f4 0 __unw_get_reg
PUBLIC 11770 0 __unw_step_stage2
PUBLIC m 11784 0 __unw_get_proc_info
PUBLIC m 117c4 0 __unw_resume
PUBLIC 117ec 0 libunwind::CFI_Parser<libunwind::LocalAddressSpace>::decodeFDE(libunwind::LocalAddressSpace&, unsigned long, libunwind::CFI_Parser<libunwind::LocalAddressSpace>::FDE_Info*, libunwind::CFI_Parser<libunwind::LocalAddressSpace>::CIE_Info*, bool)
PUBLIC 1197c 0 libunwind::CFI_Parser<libunwind::LocalAddressSpace>::parseCIE(libunwind::LocalAddressSpace&, unsigned long, libunwind::CFI_Parser<libunwind::LocalAddressSpace>::CIE_Info*)
PUBLIC 11c44 0 libunwind::AbstractUnwindCursor::~AbstractUnwindCursor()
PUBLIC 11c4c 0 libunwind::UnwindCursor<libunwind::LocalAddressSpace, libunwind::Registers_arm64>::~UnwindCursor()
PUBLIC 11c54 0 libunwind::UnwindCursor<libunwind::LocalAddressSpace, libunwind::Registers_arm64>::validReg(int)
PUBLIC 11c98 0 libunwind::UnwindCursor<libunwind::LocalAddressSpace, libunwind::Registers_arm64>::getReg(int)
PUBLIC 11d80 0 libunwind::UnwindCursor<libunwind::LocalAddressSpace, libunwind::Registers_arm64>::setReg(int, unsigned long)
PUBLIC 11e68 0 libunwind::UnwindCursor<libunwind::LocalAddressSpace, libunwind::Registers_arm64>::validFloatReg(int)
PUBLIC 11e7c 0 libunwind::UnwindCursor<libunwind::LocalAddressSpace, libunwind::Registers_arm64>::getFloatReg(int)
PUBLIC 11e8c 0 libunwind::UnwindCursor<libunwind::LocalAddressSpace, libunwind::Registers_arm64>::setFloatReg(int, double)
PUBLIC 11e9c 0 libunwind::UnwindCursor<libunwind::LocalAddressSpace, libunwind::Registers_arm64>::step(bool)
PUBLIC 11f8c 0 libunwind::UnwindCursor<libunwind::LocalAddressSpace, libunwind::Registers_arm64>::getInfo(unw_proc_info_t*)
PUBLIC 11fd0 0 libunwind::UnwindCursor<libunwind::LocalAddressSpace, libunwind::Registers_arm64>::jumpto()
PUBLIC 11fdc 0 libunwind::UnwindCursor<libunwind::LocalAddressSpace, libunwind::Registers_arm64>::isSignalFrame()
PUBLIC 11fe8 0 libunwind::UnwindCursor<libunwind::LocalAddressSpace, libunwind::Registers_arm64>::getFunctionName(char*, unsigned long, unsigned long*)
PUBLIC 12014 0 libunwind::UnwindCursor<libunwind::LocalAddressSpace, libunwind::Registers_arm64>::setInfoBasedOnIPRegister(bool)
PUBLIC 12294 0 libunwind::UnwindCursor<libunwind::LocalAddressSpace, libunwind::Registers_arm64>::getRegisterName(int)
PUBLIC 122a0 0 libunwind::UnwindCursor<libunwind::LocalAddressSpace, libunwind::Registers_arm64>::stepThroughSigReturn(libunwind::Registers_arm64&)
PUBLIC 123c0 0 libunwind::DwarfInstructions<libunwind::LocalAddressSpace, libunwind::Registers_arm64>::stepWithDwarf(libunwind::LocalAddressSpace&, unsigned long, unsigned long, libunwind::Registers_arm64&, bool&, bool)
PUBLIC 12848 0 libunwind::CFI_Parser<libunwind::LocalAddressSpace>::parseFDEInstructions(libunwind::LocalAddressSpace&, libunwind::CFI_Parser<libunwind::LocalAddressSpace>::FDE_Info const&, libunwind::CFI_Parser<libunwind::LocalAddressSpace>::CIE_Info const&, unsigned long, int, libunwind::CFI_Parser<libunwind::LocalAddressSpace>::PrologInfo*)
PUBLIC 13490 0 libunwind::DwarfInstructions<libunwind::LocalAddressSpace, libunwind::Registers_arm64>::getCFA(libunwind::LocalAddressSpace&, libunwind::CFI_Parser<libunwind::LocalAddressSpace>::PrologInfo const&, libunwind::Registers_arm64 const&)
PUBLIC 135c4 0 libunwind::DwarfInstructions<libunwind::LocalAddressSpace, libunwind::Registers_arm64>::getSavedRegister(libunwind::LocalAddressSpace&, libunwind::Registers_arm64 const&, unsigned long, libunwind::CFI_Parser<libunwind::LocalAddressSpace>::RegisterLocation const&)
PUBLIC 137d4 0 libunwind::LocalAddressSpace::getEncodedP(unsigned long&, unsigned long, unsigned char, unsigned long)
PUBLIC 13b60 0 libunwind::LocalAddressSpace::getULEB128(unsigned long&, unsigned long)
PUBLIC 13d28 0 libunwind::DwarfInstructions<libunwind::LocalAddressSpace, libunwind::Registers_arm64>::evaluateExpression(unsigned long, libunwind::LocalAddressSpace&, libunwind::Registers_arm64 const&, unsigned long)
PUBLIC 146e4 0 libunwind::UnwindCursor<libunwind::LocalAddressSpace, libunwind::Registers_arm64>::getInfoFromDwarfSection(unsigned long, libunwind::UnwindInfoSections const&, unsigned int)
PUBLIC 149b8 0 libunwind::findUnwindSectionsByPhdr(dl_phdr_info*, unsigned long, void*)
PUBLIC 14aec 0 libunwind::EHHeaderParser<libunwind::LocalAddressSpace>::decodeEHHdr(libunwind::LocalAddressSpace&, unsigned long, unsigned long, libunwind::EHHeaderParser<libunwind::LocalAddressSpace>::EHHeaderInfo&)
PUBLIC 14c0c 0 libunwind::CFI_Parser<libunwind::LocalAddressSpace>::findFDE(libunwind::LocalAddressSpace&, unsigned long, unsigned long, unsigned long, unsigned long, libunwind::CFI_Parser<libunwind::LocalAddressSpace>::FDE_Info*, libunwind::CFI_Parser<libunwind::LocalAddressSpace>::CIE_Info*)
PUBLIC 14dd4 0 libunwind::EHHeaderParser<libunwind::LocalAddressSpace>::findFDE(libunwind::LocalAddressSpace&, unsigned long, unsigned long, unsigned int, libunwind::CFI_Parser<libunwind::LocalAddressSpace>::FDE_Info*, libunwind::CFI_Parser<libunwind::LocalAddressSpace>::CIE_Info*)
PUBLIC 14f3c 0 libunwind::EHHeaderParser<libunwind::LocalAddressSpace>::getTableEntrySize(unsigned char)
PUBLIC 15038 0 libunwind::Registers_arm64::getRegisterName(int)
PUBLIC 15068 0 __libunwind_Registers_arm64_jumpto
PUBLIC m 150f8 0 __unw_getcontext
PUBLIC 151a0 0 __aarch64_ldadd8_relax
PUBLIC 151d0 0 init_have_lse_atomics
PUBLIC 15268 0 __init_cpu_features_constructor
PUBLIC 15804 0 __init_cpu_features
PUBLIC 15890 0 __aarch64_ldadd8_acq_rel
PUBLIC 158c0 0 openGeodeMenu()
PUBLIC 15a80 0 __cxx_global_var_init
PUBLIC 15f04 0 geode::modifier::ModifyBase<geode::modifier::ModifyDerive<GIPMPauseLayer, PauseLayer> >::~ModifyBase()
PUBLIC 15f1c 0 __cxx_global_var_init.1
PUBLIC 163a0 0 geode::modifier::ModifyBase<geode::modifier::ModifyDerive<GIPMEditorPauseLayer, EditorPauseLayer> >::~ModifyBase()
PUBLIC 163b8 0 geode::cast::traverseTypeinfoFor(void*, geode::cast::ClassTypeinfoType const*, char const*)
PUBLIC 164b0 0 std::__ndk1::__function::__base<void ()>::~__base()
PUBLIC 164b4 0 std::__ndk1::__function::__func<openGeodeMenu()::$_0, std::__ndk1::allocator<openGeodeMenu()::$_0>, void ()>::~__func()
PUBLIC 164b8 0 std::__ndk1::__function::__func<openGeodeMenu()::$_0, std::__ndk1::allocator<openGeodeMenu()::$_0>, void ()>::__clone() const
PUBLIC 164ec 0 std::__ndk1::__function::__func<openGeodeMenu()::$_0, std::__ndk1::allocator<openGeodeMenu()::$_0>, void ()>::__clone(std::__ndk1::__function::__base<void ()>*) const
PUBLIC 16500 0 std::__ndk1::__function::__func<openGeodeMenu()::$_0, std::__ndk1::allocator<openGeodeMenu()::$_0>, void ()>::destroy()
PUBLIC 16504 0 std::__ndk1::__function::__func<openGeodeMenu()::$_0, std::__ndk1::allocator<openGeodeMenu()::$_0>, void ()>::destroy_deallocate()
PUBLIC 16508 0 std::__ndk1::__function::__func<openGeodeMenu()::$_0, std::__ndk1::allocator<openGeodeMenu()::$_0>, void ()>::operator()()
PUBLIC 16548 0 std::__ndk1::__function::__func<openGeodeMenu()::$_0, std::__ndk1::allocator<openGeodeMenu()::$_0>, void ()>::target(std::type_info const&) const
PUBLIC 16564 0 std::__ndk1::__function::__func<openGeodeMenu()::$_0, std::__ndk1::allocator<openGeodeMenu()::$_0>, void ()>::target_type() const
PUBLIC 16570 0 std::__throw_bad_array_new_length([abi:ne180000], void)
PUBLIC 165a4 0 __clang_call_terminate
PUBLIC 165b4 0 geode::modifier::ModifyDerive<GIPMPauseLayer, PauseLayer>::apply()
PUBLIC 168d0 0 std::__ndk1::shared_ptr<geode::Hook>::~shared_ptr[abi:ne180000]()
PUBLIC 16920 0 geode::impl::ResultData<geode::Hook*, std::__ndk1::basic_string<char, std::__ndk1::char_traits<char>, std::__ndk1::allocator<char> > >::~ResultData()
PUBLIC 16994 0 std::__ndk1::vector<std::__ndk1::basic_string<char, std::__ndk1::char_traits<char>, std::__ndk1::allocator<char> >, std::__ndk1::allocator<std::__ndk1::basic_string<char, std::__ndk1::char_traits<char>, std::__ndk1::allocator<char> > > >::~vector[abi:ne180000]()
PUBLIC 16a10 0 geode::modifier::ModifyBase<geode::modifier::ModifyDerive<GIPMPauseLayer, PauseLayer> >::apply()
PUBLIC 16a14 0 _ZN5geode15UnwrapExceptionC2IRPNS_4HookEQsr4implE18IsStringStreamableIT_EEENS_4impl5OkTagEOS5_
PUBLIC 16b68 0 std::__ndk1::__throw_bad_variant_access[abi:ne180000]()
PUBLIC 16b9c 0 std::__ndk1::basic_stringstream<char, std::__ndk1::char_traits<char>, std::__ndk1::allocator<char> >::basic_stringstream[abi:ne180000]()
PUBLIC m 16cc8 0 std::__ndk1::basic_stringstream<char, std::__ndk1::char_traits<char>, std::__ndk1::allocator<char> >::~basic_stringstream()
PUBLIC 16d48 0 geode::UnwrapException::~UnwrapException()
PUBLIC 16d6c 0 std::__ndk1::__put_character_sequence[abi:ne180000]<char, std::__ndk1::char_traits<char> >(std::__ndk1::basic_ostream<char, std::__ndk1::char_traits<char> >, std::__ndk1::basic_ostream const*, unsigned long)
PUBLIC 16f10 0 std::__ndk1::__pad_and_output[abi:ne180000]<char, std::__ndk1::char_traits<char> >(std::__ndk1::char_traits<char>, std::__ndk1::ostreambuf_iterator const*, std::__ndk1::ostreambuf_iterator const, std::__ndk1::ostreambuf_iterator const, std::__ndk1::ios_base&, std::__ndk1::ostreambuf_iterator)
PUBLIC 170ec 0 std::__ndk1::basic_string<char, std::__ndk1::char_traits<char>, std::__ndk1::allocator<char> >::__throw_length_error[abi:ne180000]() const
PUBLIC 17100 0 std::__ndk1::__throw_length_error[abi:ne180000](char const*)
PUBLIC 17150 0 std::length_error::length_error[abi:ne180000](char const*)
PUBLIC 17180 0 std::__ndk1::basic_stringbuf<char, std::__ndk1::char_traits<char>, std::__ndk1::allocator<char> >::str[abi:ne180000]() &&
PUBLIC 172f8 0 std::__ndk1::basic_stringbuf<char, std::__ndk1::char_traits<char>, std::__ndk1::allocator<char> >::__init_buf_ptrs[abi:ne180000]()
PUBLIC 17440 0 std::__ndk1::vector<std::__ndk1::basic_string<char, std::__ndk1::char_traits<char>, std::__ndk1::allocator<char> >, std::__ndk1::allocator<std::__ndk1::basic_string<char, std::__ndk1::char_traits<char>, std::__ndk1::allocator<char> > > >::__push_back_slow_path<std::__ndk1::basic_string<char, std::__ndk1::char_traits<char>, std::__ndk1::allocator<char> > const&>(std::__ndk1::basic_string<char, std::__ndk1::char_traits<char>, std::__ndk1::allocator<char> > const&)
PUBLIC 17664 0 std::__ndk1::basic_string<char, std::__ndk1::char_traits<char>, std::__ndk1::allocator<char> >::__init_copy_ctor_external(char const*, unsigned long)
PUBLIC 176e4 0 std::__ndk1::__split_buffer<std::__ndk1::basic_string<char, std::__ndk1::char_traits<char>, std::__ndk1::allocator<char> >, std::__ndk1::allocator<std::__ndk1::basic_string<char, std::__ndk1::char_traits<char>, std::__ndk1::allocator<char> > >&>::~__split_buffer()
PUBLIC 1774c 0 std::__ndk1::vector<std::__ndk1::basic_string<char, std::__ndk1::char_traits<char>, std::__ndk1::allocator<char> >, std::__ndk1::allocator<std::__ndk1::basic_string<char, std::__ndk1::char_traits<char>, std::__ndk1::allocator<char> > > >::__throw_length_error[abi:ne180000]() const
PUBLIC 17760 0 std::__ndk1::__variant_detail::__visitation::__base::__dispatcher<(unsigned long)0>::__dispatch[abi:ne180000]<std::__ndk1::__variant_detail::__dtor<std::__ndk1::__variant_detail::__traits<geode::Hook*, std::__ndk1::basic_string<char, std::__ndk1::char_traits<char>, std::__ndk1::allocator<char> > >, (std::__ndk1::__variant_detail::_Trait)1>::__destroy[abi:ne180000]()::{lambda(auto:1&)#1}, std::__ndk1::__variant_detail::__base<(std::__ndk1::__variant_detail::__traits<geode::Hook*, std::__ndk1::basic_string<char, std::__ndk1::char_traits<char>, std::__ndk1::allocator<char> > >)1, geode::Hook, std::__ndk1::allocator<char> >&>(std::__ndk1::__variant_detail::__dtor<std::__ndk1::__variant_detail::__traits<geode::Hook*, std::__ndk1::basic_string<char, std::__ndk1::char_traits<char>, std::__ndk1::allocator<char> > >, (std::__ndk1::__variant_detail::_Trait)1>, std::__ndk1::__variant_detail::__base<(std::__ndk1::__variant_detail::__traits<geode::Hook*, std::__ndk1::basic_string<char, std::__ndk1::char_traits<char>, std::__ndk1::allocator<char> > >)1, geode::Hook, std::__ndk1::allocator<char> >&)
PUBLIC 17764 0 std::__ndk1::__variant_detail::__visitation::__base::__dispatcher<(unsigned long)1>::__dispatch[abi:ne180000]<std::__ndk1::__variant_detail::__dtor<std::__ndk1::__variant_detail::__traits<geode::Hook*, std::__ndk1::basic_string<char, std::__ndk1::char_traits<char>, std::__ndk1::allocator<char> > >, (std::__ndk1::__variant_detail::_Trait)1>::__destroy[abi:ne180000]()::{lambda(auto:1&)#1}, std::__ndk1::__variant_detail::__base<(std::__ndk1::__variant_detail::__traits<geode::Hook*, std::__ndk1::basic_string<char, std::__ndk1::char_traits<char>, std::__ndk1::allocator<char> > >)1, geode::Hook, std::__ndk1::allocator<char> >&>(std::__ndk1::__variant_detail::__dtor<std::__ndk1::__variant_detail::__traits<geode::Hook*, std::__ndk1::basic_string<char, std::__ndk1::char_traits<char>, std::__ndk1::allocator<char> > >, (std::__ndk1::__variant_detail::_Trait)1>, std::__ndk1::__variant_detail::__base<(std::__ndk1::__variant_detail::__traits<geode::Hook*, std::__ndk1::basic_string<char, std::__ndk1::char_traits<char>, std::__ndk1::allocator<char> > >)1, geode::Hook, std::__ndk1::allocator<char> >&)
PUBLIC 17778 0 std::__ndk1::__tree<std::__ndk1::__value_type<std::__ndk1::basic_string<char, std::__ndk1::char_traits<char>, std::__ndk1::allocator<char> >, std::__ndk1::shared_ptr<geode::Hook> >, std::__ndk1::__map_value_compare<std::__ndk1::basic_string<char, std::__ndk1::char_traits<char>, std::__ndk1::allocator<char> >, std::__ndk1::__value_type<std::__ndk1::basic_string<char, std::__ndk1::char_traits<char>, std::__ndk1::allocator<char> >, std::__ndk1::shared_ptr<geode::Hook> >, std::__ndk1::less<std::__ndk1::basic_string<char, std::__ndk1::char_traits<char>, std::__ndk1::allocator<char> > >, true>, std::__ndk1::allocator<std::__ndk1::__value_type<std::__ndk1::basic_string<char, std::__ndk1::char_traits<char>, std::__ndk1::allocator<char> >, std::__ndk1::shared_ptr<geode::Hook> > > >::find<std::__ndk1::basic_string<char, std::__ndk1::char_traits<char>, std::__ndk1::allocator<char> > >(std::__ndk1::basic_string<char, std::__ndk1::char_traits<char>, std::__ndk1::allocator<char> > const&)
PUBLIC 17898 0 std::__ndk1::__tree<std::__ndk1::__value_type<std::__ndk1::basic_string<char, std::__ndk1::char_traits<char>, std::__ndk1::allocator<char> >, std::__ndk1::shared_ptr<geode::Hook> >, std::__ndk1::__map_value_compare<std::__ndk1::basic_string<char, std::__ndk1::char_traits<char>, std::__ndk1::allocator<char> >, std::__ndk1::__value_type<std::__ndk1::basic_string<char, std::__ndk1::char_traits<char>, std::__ndk1::allocator<char> >, std::__ndk1::shared_ptr<geode::Hook> >, std::__ndk1::less<std::__ndk1::basic_string<char, std::__ndk1::char_traits<char>, std::__ndk1::allocator<char> > >, true>, std::__ndk1::allocator<std::__ndk1::__value_type<std::__ndk1::basic_string<char, std::__ndk1::char_traits<char>, std::__ndk1::allocator<char> >, std::__ndk1::shared_ptr<geode::Hook> > > >::erase(std::__ndk1::__tree_const_iterator<std::__ndk1::__value_type<std::__ndk1::basic_string<char, std::__ndk1::char_traits<char>, std::__ndk1::allocator<char> >, std::__ndk1::shared_ptr<geode::Hook> >, std::__ndk1::__tree_node<std::__ndk1::__value_type<std::__ndk1::basic_string<char, std::__ndk1::char_traits<char>, std::__ndk1::allocator<char> >, std::__ndk1::shared_ptr<geode::Hook> >, void*>*, long>)
PUBLIC 17d3c 0 std::__ndk1::__tree<std::__ndk1::__value_type<std::__ndk1::basic_string<char, std::__ndk1::char_traits<char>, std::__ndk1::allocator<char> >, std::__ndk1::shared_ptr<geode::Hook> >, std::__ndk1::__map_value_compare<std::__ndk1::basic_string<char, std::__ndk1::char_traits<char>, std::__ndk1::allocator<char> >, std::__ndk1::__value_type<std::__ndk1::basic_string<char, std::__ndk1::char_traits<char>, std::__ndk1::allocator<char> >, std::__ndk1::shared_ptr<geode::Hook> >, std::__ndk1::less<std::__ndk1::basic_string<char, std::__ndk1::char_traits<char>, std::__ndk1::allocator<char> > >, true>, std::__ndk1::allocator<std::__ndk1::__value_type<std::__ndk1::basic_string<char, std::__ndk1::char_traits<char>, std::__ndk1::allocator<char> >, std::__ndk1::shared_ptr<geode::Hook> > > >::destroy(std::__ndk1::__tree_node<std::__ndk1::__value_type<std::__ndk1::basic_string<char, std::__ndk1::char_traits<char>, std::__ndk1::allocator<char> >, std::__ndk1::shared_ptr<geode::Hook> >, void*>*)
PUBLIC 17dc0 0 geode::modifier::AsStaticFunction_customSetup<GIPMPauseLayer, void (GIPMPauseLayer::*)()>::Impl<void (GIPMPauseLayer::*)()>::function(GIPMPauseLayer*)
PUBLIC 17f60 0 geode::addresser::Addresser::addressOfVirtual<void, PauseLayer, >(void (PauseLayer::*)())
PUBLIC 18008 0 PauseLayer::PauseLayer(geode::ZeroConstructorType)
PUBLIC 18094 0 std::__ndk1::shared_ptr<tulip::hook::CallingConvention>::~shared_ptr[abi:ne180000]()
PUBLIC 180e4 0 tulip::hook::HandlerMetadata::~HandlerMetadata()
PUBLIC 18148 0 geode::Mod::getSettingValue<bool>(std::__ndk1::basic_string_view<char, std::__ndk1::char_traits<char> >) const
PUBLIC 18278 0 GIPMPauseLayer::onGeode(cocos2d::CCObject*)
PUBLIC 1827c 0 std::__ndk1::__tree<std::__ndk1::__value_type<std::__ndk1::basic_string<char, std::__ndk1::char_traits<char>, std::__ndk1::allocator<char> >, std::__ndk1::shared_ptr<geode::Hook> >, std::__ndk1::__map_value_compare<std::__ndk1::basic_string<char, std::__ndk1::char_traits<char>, std::__ndk1::allocator<char> >, std::__ndk1::__value_type<std::__ndk1::basic_string<char, std::__ndk1::char_traits<char>, std::__ndk1::allocator<char> >, std::__ndk1::shared_ptr<geode::Hook> >, std::__ndk1::less<std::__ndk1::basic_string<char, std::__ndk1::char_traits<char>, std::__ndk1::allocator<char> > >, true>, std::__ndk1::allocator<std::__ndk1::__value_type<std::__ndk1::basic_string<char, std::__ndk1::char_traits<char>, std::__ndk1::allocator<char> >, std::__ndk1::shared_ptr<geode::Hook> > > >::__emplace_unique_key_args<std::__ndk1::basic_string<char, std::__ndk1::char_traits<char>, std::__ndk1::allocator<char> >, std::__ndk1::piecewise_construct_t const&, std::__ndk1::tuple<std::__ndk1::basic_string<char, std::__ndk1::char_traits<char>, std::__ndk1::allocator<char> >&&>, std::__ndk1::tuple<> >(std::__ndk1::basic_string<char, std::__ndk1::char_traits<char>, std::__ndk1::allocator<char> > const&, std::__ndk1::piecewise_construct_t const&, std::__ndk1::tuple<std::__ndk1::basic_string<char, std::__ndk1::char_traits<char>, std::__ndk1::allocator<char> >&&>, std::__ndk1::tuple<>)
PUBLIC 183e4 0 std::__ndk1::__tree_balance_after_insert[abi:ne180000]<std::__ndk1::__tree_node_base<void*>*>(std::__ndk1::__tree_node_base<void*>*, std::__ndk1::__tree_node_base<void*>*)
PUBLIC 18594 0 geode::modifier::ModifyDerive<GIPMEditorPauseLayer, EditorPauseLayer>::apply()
PUBLIC 188e0 0 geode::modifier::ModifyBase<geode::modifier::ModifyDerive<GIPMEditorPauseLayer, EditorPauseLayer> >::apply()
PUBLIC 188e4 0 geode::modifier::AsStaticFunction_init<GIPMEditorPauseLayer, bool (GIPMEditorPauseLayer::*)(LevelEditorLayer*)>::Impl<bool (GIPMEditorPauseLayer::*)(LevelEditorLayer*)>::function(GIPMEditorPauseLayer*, LevelEditorLayer*)
PUBLIC 18a70 0 GIPMEditorPauseLayer::onGeode(cocos2d::CCObject*)
PUBLIC 18a74 0 ModsLayerWrapper::create(cocos2d::CCLayer*)
PUBLIC 18b7c 0 ModsLayerWrapper::init(cocos2d::CCLayer*)
PUBLIC 18d48 0 ModsLayerWrapper::onClose(cocos2d::CCObject*)
PUBLIC 18da8 0 cocos2d::CCCopying::copyWithZone(cocos2d::CCZone*)
PUBLIC 18db0 0 ModsLayerWrapper::~ModsLayerWrapper()
PUBLIC 18dd4 0 ModsLayerWrapper::registerWithTouchDispatcher()
PUBLIC 18e00 0 ModsLayerWrapper::keyBackClicked()
PUBLIC 18e60 0 ModsLayerWrapper::keyDown(cocos2d::enumKeyCodes)
PUBLIC 18e70 0 cocos2d::CCLayerRGBA::setOpacityModifyRGB(bool)
PUBLIC 18e74 0 cocos2d::CCLayerRGBA::isOpacityModifyRGB()
PUBLIC 18e7c 0 {virtual override thunk({offset(-320)}, ModsLayerWrapper::~ModsLayerWrapper())}
PUBLIC 18e84 0 {virtual override thunk({offset(-320)}, ModsLayerWrapper::~ModsLayerWrapper())}
PUBLIC 18eac 0 {virtual override thunk({offset(-336)}, ModsLayerWrapper::keyBackClicked())}
PUBLIC 18f10 0 {virtual override thunk({offset(-344)}, ModsLayerWrapper::keyDown(cocos2d::enumKeyCodes))}
PUBLIC 18f20 0 cocos2d::CCKeyboardDelegate::keyUp(cocos2d::enumKeyCodes)
PUBLIC 18f24 0 cocos2d::CCMouseDelegate::rightKeyDown()
PUBLIC 18f28 0 cocos2d::CCMouseDelegate::rightKeyUp()
PUBLIC 18f2c 0 cocos2d::CCMouseDelegate::scrollWheel(float, float)
PUBLIC 18f30 0 {virtual override thunk({offset(-408)}, cocos2d::CCLayerRGBA::setOpacityModifyRGB(bool))}
PUBLIC 18f34 0 {virtual override thunk({offset(-408)}, cocos2d::CCLayerRGBA::isOpacityModifyRGB())}
PUBLIC m 18f3c 0 geodeImplicitEntry
PUBLIC 18f78 0 std::__ndk1::unordered_map<void*, bool, std::__ndk1::hash<void*>, std::__ndk1::equal_to<void*>, std::__ndk1::allocator<std::__ndk1::pair<void* const, bool> > >::~unordered_map[abi:ne180000]()
PUBLIC 18fc4 0 wrapFunction(unsigned long, tulip::hook::WrapperMetadata const&)
PUBLIC 190f8 0 geode::impl::ResultData<void*, std::__ndk1::basic_string<char, std::__ndk1::char_traits<char>, std::__ndk1::allocator<char> > >::unwrapErr() &
PUBLIC 19170 0 geode::impl::ResultData<void*, std::__ndk1::basic_string<char, std::__ndk1::char_traits<char>, std::__ndk1::allocator<char> > >::~ResultData()
PUBLIC 191e4 0 tulip::hook::WrapperMetadata::~WrapperMetadata()
PUBLIC 19248 0 cocos2d::CCObject::~CCObject()
PUBLIC 1926c 0 cocos2d::CCNode::~CCNode()
PUBLIC 19290 0 {virtual override thunk({offset(-320)}, cocos2d::CCLayer::~CCLayer())}
PUBLIC 19298 0 cocos2d::CCLayer::~CCLayer()
PUBLIC 192bc 0 {virtual override thunk({offset(-320)}, cocos2d::CCLayer::~CCLayer())}
PUBLIC 192e4 0 cocos2d::CCLayerRGBA::~CCLayerRGBA()
PUBLIC 195bc 0 {virtual override thunk({offset(-320)}, cocos2d::CCLayerRGBA::~CCLayerRGBA())}
PUBLIC 195c4 0 cocos2d::CCLayerRGBA::~CCLayerRGBA()
PUBLIC 195e8 0 {virtual override thunk({offset(-320)}, cocos2d::CCLayerRGBA::~CCLayerRGBA())}
PUBLIC 19610 0 cocos2d::CCLayerColor::CCLayerColor()
PUBLIC 19860 0 {virtual override thunk({offset(-320)}, cocos2d::CCLayerColor::~CCLayerColor())}
PUBLIC 19868 0 cocos2d::CCLayerColor::~CCLayerColor()
PUBLIC 1988c 0 {virtual override thunk({offset(-320)}, cocos2d::CCLayerColor::~CCLayerColor())}
PUBLIC 198b4 0 {virtual override thunk({offset(-320)}, FLAlertLayer::~FLAlertLayer())}
PUBLIC 198bc 0 FLAlertLayer::~FLAlertLayer()
PUBLIC 198e0 0 {virtual override thunk({offset(-320)}, FLAlertLayer::~FLAlertLayer())}
PUBLIC 19908 0 cocos2d::CCObject::update(float)
PUBLIC 1990c 0 cocos2d::CCLayerColor::~CCLayerColor()
PUBLIC 19bc8 0 FLAlertLayer::~FLAlertLayer()
PUBLIC 19e84 0 cocos2d::CCNode::~CCNode()
PUBLIC 1a0fc 0 cocos2d::CCLayer::~CCLayer()
PUBLIC 1a3c4 0 cocos2d::CCObject::~CCObject()
PUBLIC 1a890 0 _ZN5geode15UnwrapExceptionC2IRPvQsr4implE18IsStringStreamableIT_EEENS_4impl5OkTagEOS4_
PUBLIC 1a9e4 0 _ZN5geode15UnwrapExceptionC2IRNSt6__ndk112basic_stringIcNS2_11char_traitsIcEENS2_9allocatorIcEEEEQsr4implE18IsStringStreamableIT_EEENS_4impl6ErrTagEOSA_
PUBLIC 1ab4c 0 std::__ndk1::__variant_detail::__visitation::__base::__dispatcher<(unsigned long)0>::__dispatch[abi:ne180000]<std::__ndk1::__variant_detail::__dtor<std::__ndk1::__variant_detail::__traits<void*, std::__ndk1::basic_string<char, std::__ndk1::char_traits<char>, std::__ndk1::allocator<char> > >, (std::__ndk1::__variant_detail::_Trait)1>::__destroy[abi:ne180000]()::{lambda(auto:1&)#1}, std::__ndk1::__variant_detail::__base<(std::__ndk1::__variant_detail::__traits<void*, std::__ndk1::basic_string<char, std::__ndk1::char_traits<char>, std::__ndk1::allocator<char> > >)1, std::__ndk1::__variant_detail::__traits, std::__ndk1::allocator<char> >&>(std::__ndk1::__variant_detail::__dtor<std::__ndk1::__variant_detail::__traits<void*, std::__ndk1::basic_string<char, std::__ndk1::char_traits<char>, std::__ndk1::allocator<char> > >, (std::__ndk1::__variant_detail::_Trait)1>, std::__ndk1::__variant_detail::__base<(std::__ndk1::__variant_detail::__traits<void*, std::__ndk1::basic_string<char, std::__ndk1::char_traits<char>, std::__ndk1::allocator<char> > >)1, std::__ndk1::__variant_detail::__traits, std::__ndk1::allocator<char> >&)
PUBLIC 1ab50 0 std::__ndk1::__variant_detail::__visitation::__base::__dispatcher<(unsigned long)1>::__dispatch[abi:ne180000]<std::__ndk1::__variant_detail::__dtor<std::__ndk1::__variant_detail::__traits<void*, std::__ndk1::basic_string<char, std::__ndk1::char_traits<char>, std::__ndk1::allocator<char> > >, (std::__ndk1::__variant_detail::_Trait)1>::__destroy[abi:ne180000]()::{lambda(auto:1&)#1}, std::__ndk1::__variant_detail::__base<(std::__ndk1::__variant_detail::__traits<void*, std::__ndk1::basic_string<char, std::__ndk1::char_traits<char>, std::__ndk1::allocator<char> > >)1, std::__ndk1::__variant_detail::__traits, std::__ndk1::allocator<char> >&>(std::__ndk1::__variant_detail::__dtor<std::__ndk1::__variant_detail::__traits<void*, std::__ndk1::basic_string<char, std::__ndk1::char_traits<char>, std::__ndk1::allocator<char> > >, (std::__ndk1::__variant_detail::_Trait)1>, std::__ndk1::__variant_detail::__base<(std::__ndk1::__variant_detail::__traits<void*, std::__ndk1::basic_string<char, std::__ndk1::char_traits<char>, std::__ndk1::allocator<char> > >)1, std::__ndk1::__variant_detail::__traits, std::__ndk1::allocator<char> >&)
PUBLIC 1ab64 0 std::__ndk1::__hash_table<std::__ndk1::__hash_value_type<void*, bool>, std::__ndk1::__unordered_map_hasher<void*, std::__ndk1::__hash_value_type<void*, bool>, std::__ndk1::hash<void*>, std::__ndk1::equal_to<void*>, true>, std::__ndk1::__unordered_map_equal<void*, std::__ndk1::__hash_value_type<void*, bool>, std::__ndk1::equal_to<void*>, std::__ndk1::hash<void*>, true>, std::__ndk1::allocator<std::__ndk1::__hash_value_type<void*, bool> > >::__emplace_unique_key_args<void*, std::__ndk1::piecewise_construct_t const&, std::__ndk1::tuple<void* const&>, std::__ndk1::tuple<> >(void* const&, std::__ndk1::piecewise_construct_t const&, std::__ndk1::tuple<void* const&>, std::__ndk1::tuple<>)
PUBLIC 1b050 0 <.plt ELF section in hiimjustin000.geode_in_pause_menu.android64.so>
STACK CFI INIT 11340 10 .cfa: sp 0 +
STACK CFI INIT 11350 8 .cfa: sp 0 +
STACK CFI INIT 11358 8 .cfa: sp 0 +
STACK CFI INIT 11360 14 .cfa: sp 0 +
STACK CFI INIT 11374 1c .cfa: sp 0 +
STACK CFI INIT 11390 10 .cfa: sp 0 +
STACK CFI INIT 113a0 134 .cfa: sp 0 +
STACK CFI INIT 114d4 84 .cfa: sp 0 +
STACK CFI INIT 11558 f4 .cfa: sp 0 +
STACK CFI INIT 1164c a8 .cfa: sp 0 +
STACK CFI INIT 116f4 7c .cfa: sp 0 +
STACK CFI INIT 11770 14 .cfa: sp 0 +
STACK CFI INIT 11784 40 .cfa: sp 0 +
STACK CFI INIT 117c4 28 .cfa: sp 0 +
STACK CFI INIT 117ec 190 .cfa: sp 0 +
STACK CFI INIT 1197c 2c8 .cfa: sp 0 +
STACK CFI INIT 11c44 8 .cfa: sp 0 +
STACK CFI INIT 11c4c 8 .cfa: sp 0 +
STACK CFI INIT 11c54 44 .cfa: sp 0 +
STACK CFI INIT 11c98 e8 .cfa: sp 0 +
STACK CFI INIT 11d80 e8 .cfa: sp 0 +
STACK CFI INIT 11e68 14 .cfa: sp 0 +
STACK CFI INIT 11e7c 10 .cfa: sp 0 +
STACK CFI INIT 11e8c 10 .cfa: sp 0 +
STACK CFI INIT 11e9c f0 .cfa: sp 0 +
STACK CFI INIT 11f8c 44 .cfa: sp 0 +
STACK CFI INIT 11fd0 c .cfa: sp 0 +
STACK CFI INIT 11fdc c .cfa: sp 0 +
STACK CFI INIT 11fe8 2c .cfa: sp 0 +
STACK CFI INIT 12014 280 .cfa: sp 0 +
STACK CFI INIT 12294 c .cfa: sp 0 +
STACK CFI INIT 122a0 120 .cfa: sp 0 +
STACK CFI INIT 123c0 488 .cfa: sp 0 +
STACK CFI INIT 12848 c48 .cfa: sp 0 +
STACK CFI INIT 13490 134 .cfa: sp 0 +
STACK CFI INIT 135c4 210 .cfa: sp 0 +
STACK CFI INIT 137d4 38c .cfa: sp 0 +
STACK CFI INIT 13b60 1c8 .cfa: sp 0 +
STACK CFI INIT 13d28 9bc .cfa: sp 0 +
STACK CFI INIT 146e4 2d4 .cfa: sp 0 +
STACK CFI INIT 149b8 134 .cfa: sp 0 +
STACK CFI INIT 14aec 120 .cfa: sp 0 +
STACK CFI INIT 14c0c 1c8 .cfa: sp 0 +
STACK CFI INIT 14dd4 168 .cfa: sp 0 +
STACK CFI INIT 14f3c fc .cfa: sp 0 +
STACK CFI INIT 15038 30 .cfa: sp 0 +
STACK CFI INIT 151a0 30 .cfa: sp 0 +
STACK CFI INIT 151d0 98 .cfa: sp 0 +
STACK CFI INIT 15268 59c .cfa: sp 0 +
STACK CFI INIT 15804 8c .cfa: sp 0 +
STACK CFI INIT 15890 30 .cfa: sp 0 +
STACK CFI INIT 15f04 18 .cfa: sp 0 +
STACK CFI INIT 163a0 18 .cfa: sp 0 +
STACK CFI INIT 163b8 f8 .cfa: sp 0 +
STACK CFI 163bc .cfa: sp 64 +
STACK CFI 163cc .cfa: x29 64 + x19: .cfa -8 + ^ x20: .cfa -16 + ^ x21: .cfa -24 + ^ x22: .cfa -32 + ^ x23: .cfa -48 + ^ .ra: .cfa -56 + ^ x29: .cfa -64 + ^
STACK CFI 16428 .cfa: sp 64 +
STACK CFI 16438 .cfa: sp 0 +
STACK CFI 1643c .cfa: x29 64 +
STACK CFI 16458 .cfa: sp 64 +
STACK CFI 16468 .cfa: sp 0 +
STACK CFI 1646c .cfa: x29 64 +
STACK CFI 1649c .cfa: sp 64 +
STACK CFI 164ac .cfa: sp 0 +
STACK CFI INIT 164b0 4 .cfa: sp 0 +
STACK CFI INIT 164b4 4 .cfa: sp 0 +
STACK CFI INIT 164b8 34 .cfa: sp 0 +
STACK CFI 164bc .cfa: sp 32 +
STACK CFI 164c4 .cfa: x29 32 + x19: .cfa -16 + ^ .ra: .cfa -24 + ^ x29: .cfa -32 + ^
STACK CFI 164e0 .cfa: sp 32 +
STACK CFI 164e8 .cfa: sp 0 +
STACK CFI INIT 164ec 14 .cfa: sp 0 +
STACK CFI INIT 16500 4 .cfa: sp 0 +
STACK CFI INIT 16504 4 .cfa: sp 0 +
STACK CFI INIT 16508 40 .cfa: sp 0 +
STACK CFI 1650c .cfa: sp 32 +
STACK CFI 16514 .cfa: x29 32 + x19: .cfa -16 + ^ .ra: .cfa -24 + ^ x29: .cfa -32 + ^
STACK CFI 1653c .cfa: sp 32 +
STACK CFI 16544 .cfa: sp 0 +
STACK CFI INIT 16548 1c .cfa: sp 0 +
STACK CFI INIT 16564 c .cfa: sp 0 +
STACK CFI INIT 16570 34 .cfa: sp 0 +
STACK CFI 16574 .cfa: sp 32 +
STACK CFI 1657c .cfa: x29 32 + x19: .cfa -16 + ^ .ra: .cfa -24 + ^ x29: .cfa -32 + ^
STACK CFI INIT 165a4 10 .cfa: sp 0 +
STACK CFI 165a8 .cfa: sp 16 +
STACK CFI 165ac .cfa: x29 16 + .ra: .cfa -8 + ^ x29: .cfa -16 + ^
STACK CFI INIT 168d0 50 .cfa: sp 0 +
STACK CFI 168d4 .cfa: sp 32 +
STACK CFI 168dc .cfa: x29 32 + x19: .cfa -16 + ^ .ra: .cfa -24 + ^ x29: .cfa -32 + ^
STACK CFI 168f4 .cfa: sp 32 +
STACK CFI 168fc .cfa: sp 0 +
STACK CFI 16900 .cfa: x29 32 +
STACK CFI 16914 .cfa: sp 32 +
STACK CFI 1691c .cfa: sp 0 +
STACK CFI INIT 16994 7c .cfa: sp 0 +
STACK CFI 16998 .cfa: sp 48 +
STACK CFI 169a4 .cfa: x29 48 + x19: .cfa -8 + ^ x20: .cfa -16 + ^ x21: .cfa -32 + ^ .ra: .cfa -40 + ^ x29: .cfa -48 + ^
STACK CFI 169f0 .cfa: sp 48 +
STACK CFI 169fc .cfa: sp 0 +
STACK CFI 16a00 .cfa: sp 48 +
STACK CFI 16a0c .cfa: sp 0 +
STACK CFI INIT 16a10 4 .cfa: sp 0 +
STACK CFI INIT 16b68 34 .cfa: sp 0 +
STACK CFI 16b6c .cfa: sp 16 +
STACK CFI 16b70 .cfa: x29 16 + .ra: .cfa -8 + ^ x29: .cfa -16 + ^
STACK CFI INIT 16cc8 80 .cfa: sp 0 +
STACK CFI 16ccc .cfa: sp 48 +
STACK CFI 16cd8 .cfa: x29 48 + x19: .cfa -8 + ^ x20: .cfa -16 + ^ x21: .cfa -32 + ^ .ra: .cfa -40 + ^ x29: .cfa -48 + ^
STACK CFI 16d38 .cfa: sp 48 +
STACK CFI 16d44 .cfa: sp 0 +
STACK CFI INIT 16d48 24 .cfa: sp 0 +
STACK CFI 16d4c .cfa: sp 32 +
STACK CFI 16d54 .cfa: x29 32 + x19: .cfa -16 + ^ .ra: .cfa -24 + ^ x29: .cfa -32 + ^
STACK CFI 16d60 .cfa: sp 32 +
STACK CFI 16d68 .cfa: sp 0 +
STACK CFI INIT 170ec 14 .cfa: sp 0 +
STACK CFI 170f0 .cfa: sp 16 +
STACK CFI 170f4 .cfa: x29 16 + .ra: .cfa -8 + ^ x29: .cfa -16 + ^
STACK CFI INIT 17150 30 .cfa: sp 0 +
STACK CFI 17154 .cfa: sp 32 +
STACK CFI 1715c .cfa: x29 32 + x19: .cfa -16 + ^ .ra: .cfa -24 + ^ x29: .cfa -32 + ^
STACK CFI 17174 .cfa: sp 32 +
STACK CFI 1717c .cfa: sp 0 +
STACK CFI INIT 172f8 148 .cfa: sp 0 +
STACK CFI 172fc .cfa: sp 48 +
STACK CFI 17308 .cfa: x29 48 + x19: .cfa -8 + ^ x20: .cfa -16 + ^ x21: .cfa -32 + ^ .ra: .cfa -40 + ^ x29: .cfa -48 + ^
STACK CFI 17430 .cfa: sp 48 +
STACK CFI 1743c .cfa: sp 0 +
STACK CFI INIT 17664 80 .cfa: sp 0 +
STACK CFI 17668 .cfa: sp 48 +
STACK CFI 17674 .cfa: x29 48 + x19: .cfa -8 + ^ x20: .cfa -16 + ^ x21: .cfa -24 + ^ x22: .cfa -32 + ^ .ra: .cfa -40 + ^ x29: .cfa -48 + ^
STACK CFI 1768c .cfa: sp 48 +
STACK CFI 17698 .cfa: sp 0 +
STACK CFI 1769c .cfa: x29 48 +
STACK CFI 176cc .cfa: sp 48 +
STACK CFI 176d8 .cfa: sp 0 +
STACK CFI 176dc .cfa: x29 48 +
STACK CFI INIT 176e4 68 .cfa: sp 0 +
STACK CFI 176e8 .cfa: sp 32 +
STACK CFI 176f0 .cfa: x29 32 + x19: .cfa -8 + ^ x20: .cfa -16 + ^ .ra: .cfa -24 + ^ x29: .cfa -32 + ^
STACK CFI 17708 .cfa: sp 32 +
STACK CFI 17710 .cfa: sp 0 +
STACK CFI 17714 .cfa: x29 32 +
STACK CFI 17740 .cfa: sp 32 +
STACK CFI 17748 .cfa: sp 0 +
STACK CFI INIT 1774c 14 .cfa: sp 0 +
STACK CFI 17750 .cfa: sp 16 +
STACK CFI 17754 .cfa: x29 16 + .ra: .cfa -8 + ^ x29: .cfa -16 + ^
STACK CFI INIT 17760 4 .cfa: sp 0 +
STACK CFI INIT 17764 14 .cfa: sp 0 +
STACK CFI INIT 17778 120 .cfa: sp 0 +
STACK CFI 1777c .cfa: sp 64 +
STACK CFI 1778c .cfa: x29 64 + x19: .cfa -8 + ^ x20: .cfa -16 + ^ x21: .cfa -24 + ^ x22: .cfa -32 + ^ x23: .cfa -40 + ^ x24: .cfa -48 + ^ .ra: .cfa -56 + ^ x29: .cfa -64 + ^
STACK CFI 17884 .cfa: sp 64 +
STACK CFI 17894 .cfa: sp 0 +
STACK CFI INIT 17898 4a4 .cfa: sp 0 +
STACK CFI 1789c .cfa: sp 32 +
STACK CFI 178a4 .cfa: x29 32 + x19: .cfa -8 + ^ x20: .cfa -16 + ^ .ra: .cfa -24 + ^ x29: .cfa -32 + ^
STACK CFI 17c84 .cfa: sp 32 +
STACK CFI 17c8c .cfa: sp 0 +
STACK CFI 17c90 .cfa: x29 32 +
STACK CFI INIT 17d3c 84 .cfa: sp 0 +
STACK CFI 17d44 .cfa: sp 32 +
STACK CFI 17d4c .cfa: x29 32 + x19: .cfa -8 + ^ x20: .cfa -16 + ^ .ra: .cfa -24 + ^ x29: .cfa -32 + ^
STACK CFI 17d8c .cfa: sp 32 +
STACK CFI 17d94 .cfa: sp 0 +
STACK CFI 17d9c .cfa: x29 32 +
STACK CFI INIT 18008 8c .cfa: sp 0 +
STACK CFI 1800c .cfa: sp 32 +
STACK CFI 18014 .cfa: x29 32 + x19: .cfa -16 + ^ .ra: .cfa -24 + ^ x29: .cfa -32 + ^
STACK CFI 18088 .cfa: sp 32 +
STACK CFI 18090 .cfa: sp 0 +
STACK CFI INIT 18094 50 .cfa: sp 0 +
STACK CFI 18098 .cfa: sp 32 +
STACK CFI 180a0 .cfa: x29 32 + x19: .cfa -16 + ^ .ra: .cfa -24 + ^ x29: .cfa -32 + ^
STACK CFI 180b8 .cfa: sp 32 +
STACK CFI 180c0 .cfa: sp 0 +
STACK CFI 180c4 .cfa: x29 32 +
STACK CFI 180d8 .cfa: sp 32 +
STACK CFI 180e0 .cfa: sp 0 +
STACK CFI INIT 180e4 64 .cfa: sp 0 +
STACK CFI 180e8 .cfa: sp 32 +
STACK CFI 180f0 .cfa: x29 32 + x19: .cfa -16 + ^ .ra: .cfa -24 + ^ x29: .cfa -32 + ^
STACK CFI 1811c .cfa: sp 32 +
STACK CFI 18124 .cfa: sp 0 +
STACK CFI 18128 .cfa: x29 32 +
STACK CFI 1813c .cfa: sp 32 +
STACK CFI 18144 .cfa: sp 0 +
STACK CFI INIT 18148 130 .cfa: sp 0 +
STACK CFI 1814c .cfa: sp 80 +
STACK CFI 1815c .cfa: x29 48 + x19: .cfa -8 + ^ x20: .cfa -16 + ^ x21: .cfa -24 + ^ x22: .cfa -32 + ^ .ra: .cfa -40 + ^ x29: .cfa -48 + ^
STACK CFI 18260 .cfa: sp 80 +
STACK CFI 18270 .cfa: sp 0 +
STACK CFI 18274 .cfa: x29 48 +
STACK CFI INIT 18278 4 .cfa: sp 0 +
STACK CFI INIT 1827c 168 .cfa: sp 0 +
STACK CFI 18280 .cfa: sp 80 +
STACK CFI 18294 .cfa: x29 80 + x19: .cfa -8 + ^ x20: .cfa -16 + ^ x21: .cfa -24 + ^ x22: .cfa -32 + ^ x23: .cfa -40 + ^ x24: .cfa -48 + ^ x25: .cfa -56 + ^ x26: .cfa -64 + ^ .ra: .cfa -72 + ^ x29: .cfa -80 + ^
STACK CFI 183cc .cfa: sp 80 +
STACK CFI 183e0 .cfa: sp 0 +
STACK CFI INIT 183e4 1b0 .cfa: sp 0 +
STACK CFI INIT 188e0 4 .cfa: sp 0 +
STACK CFI INIT 18a70 4 .cfa: sp 0 +
STACK CFI INIT 18d48 60 .cfa: sp 0 +
STACK CFI 18d4c .cfa: sp 32 +
STACK CFI 18d54 .cfa: x29 32 + x19: .cfa -16 + ^ .ra: .cfa -24 + ^ x29: .cfa -32 + ^
STACK CFI 18d9c .cfa: sp 32 +
STACK CFI 18da4 .cfa: sp 0 +
STACK CFI INIT 18da8 8 .cfa: sp 0 +
STACK CFI INIT 18db0 24 .cfa: sp 0 +
STACK CFI 18db4 .cfa: sp 32 +
STACK CFI 18dbc .cfa: x29 32 + x19: .cfa -16 + ^ .ra: .cfa -24 + ^ x29: .cfa -32 + ^
STACK CFI 18dc8 .cfa: sp 32 +
STACK CFI 18dd0 .cfa: sp 0 +
STACK CFI INIT 18dd4 2c .cfa: sp 0 +
STACK CFI 18dd8 .cfa: sp 32 +
STACK CFI 18de0 .cfa: x29 32 + x19: .cfa -16 + ^ .ra: .cfa -24 + ^ x29: .cfa -32 + ^
STACK CFI 18df4 .cfa: sp 32 +
STACK CFI 18dfc .cfa: sp 0 +
STACK CFI INIT 18e00 60 .cfa: sp 0 +
STACK CFI 18e04 .cfa: sp 32 +
STACK CFI 18e0c .cfa: x29 32 + x19: .cfa -16 + ^ .ra: .cfa -24 + ^ x29: .cfa -32 + ^
STACK CFI 18e54 .cfa: sp 32 +
STACK CFI 18e5c .cfa: sp 0 +
STACK CFI INIT 18e60 10 .cfa: sp 0 +
STACK CFI INIT 18e70 4 .cfa: sp 0 +
STACK CFI INIT 18e74 8 .cfa: sp 0 +
STACK CFI INIT 18e7c 8 .cfa: sp 0 +
STACK CFI INIT 18e84 28 .cfa: sp 0 +
STACK CFI 18e88 .cfa: sp 32 +
STACK CFI 18e90 .cfa: x29 32 + x19: .cfa -16 + ^ .ra: .cfa -24 + ^ x29: .cfa -32 + ^
STACK CFI 18ea0 .cfa: sp 32 +
STACK CFI 18ea8 .cfa: sp 0 +
STACK CFI INIT 18eac 64 .cfa: sp 0 +
STACK CFI 18eb0 .cfa: sp 32 +
STACK CFI 18eb8 .cfa: x29 32 + x19: .cfa -16 + ^ .ra: .cfa -24 + ^ x29: .cfa -32 + ^
STACK CFI 18f04 .cfa: sp 32 +
STACK CFI 18f0c .cfa: sp 0 +
STACK CFI INIT 18f10 10 .cfa: sp 0 +
STACK CFI INIT 18f20 4 .cfa: sp 0 +
STACK CFI INIT 18f24 4 .cfa: sp 0 +
STACK CFI INIT 18f28 4 .cfa: sp 0 +
STACK CFI INIT 18f2c 4 .cfa: sp 0 +
STACK CFI INIT 18f30 4 .cfa: sp 0 +
STACK CFI INIT 18f34 8 .cfa: sp 0 +
STACK CFI INIT 18f3c 3c .cfa: sp 0 +
STACK CFI 18f40 .cfa: sp 32 +
STACK CFI 18f48 .cfa: x29 32 + x19: .cfa -16 + ^ .ra: .cfa -24 + ^ x29: .cfa -32 + ^
STACK CFI 18f54 .cfa: sp 32 +
STACK CFI 18f5c .cfa: sp 0 +
STACK CFI 18f60 .cfa: x29 32 +
STACK CFI 18f6c .cfa: sp 32 +
STACK CFI 18f74 .cfa: sp 0 +
STACK CFI INIT 18f78 4c .cfa: sp 0 +
STACK CFI 18f7c .cfa: sp 32 +
STACK CFI 18f84 .cfa: x29 32 + x19: .cfa -8 + ^ x20: .cfa -16 + ^ .ra: .cfa -24 + ^ x29: .cfa -32 + ^
STACK CFI 18fac .cfa: sp 32 +
STACK CFI 18fb4 .cfa: sp 0 +
STACK CFI 18fb8 .cfa: sp 32 +
STACK CFI 18fc0 .cfa: sp 0 +
STACK CFI INIT 191e4 64 .cfa: sp 0 +
STACK CFI 191e8 .cfa: sp 32 +
STACK CFI 191f0 .cfa: x29 32 + x19: .cfa -16 + ^ .ra: .cfa -24 + ^ x29: .cfa -32 + ^
STACK CFI 1921c .cfa: sp 32 +
STACK CFI 19224 .cfa: sp 0 +
STACK CFI 19228 .cfa: x29 32 +
STACK CFI 1923c .cfa: sp 32 +
STACK CFI 19244 .cfa: sp 0 +
STACK CFI INIT 19248 24 .cfa: sp 0 +
STACK CFI 1924c .cfa: sp 32 +
STACK CFI 19254 .cfa: x29 32 + x19: .cfa -16 + ^ .ra: .cfa -24 + ^ x29: .cfa -32 + ^
STACK CFI 19260 .cfa: sp 32 +
STACK CFI 19268 .cfa: sp 0 +
STACK CFI INIT 1926c 24 .cfa: sp 0 +
STACK CFI 19270 .cfa: sp 32 +
STACK CFI 19278 .cfa: x29 32 + x19: .cfa -16 + ^ .ra: .cfa -24 + ^ x29: .cfa -32 + ^
STACK CFI 19284 .cfa: sp 32 +
STACK CFI 1928c .cfa: sp 0 +
STACK CFI INIT 19290 8 .cfa: sp 0 +
STACK CFI INIT 19298 24 .cfa: sp 0 +
STACK CFI 1929c .cfa: sp 32 +
STACK CFI 192a4 .cfa: x29 32 + x19: .cfa -16 + ^ .ra: .cfa -24 + ^ x29: .cfa -32 + ^
STACK CFI 192b0 .cfa: sp 32 +
STACK CFI 192b8 .cfa: sp 0 +
STACK CFI INIT 192bc 28 .cfa: sp 0 +
STACK CFI 192c0 .cfa: sp 32 +
STACK CFI 192c8 .cfa: x29 32 + x19: .cfa -16 + ^ .ra: .cfa -24 + ^ x29: .cfa -32 + ^
STACK CFI 192d8 .cfa: sp 32 +
STACK CFI 192e0 .cfa: sp 0 +
STACK CFI INIT 195bc 8 .cfa: sp 0 +
STACK CFI INIT 195c4 24 .cfa: sp 0 +
STACK CFI 195c8 .cfa: sp 32 +
STACK CFI 195d0 .cfa: x29 32 + x19: .cfa -16 + ^ .ra: .cfa -24 + ^ x29: .cfa -32 + ^
STACK CFI 195dc .cfa: sp 32 +
STACK CFI 195e4 .cfa: sp 0 +
STACK CFI INIT 195e8 28 .cfa: sp 0 +
STACK CFI 195ec .cfa: sp 32 +
STACK CFI 195f4 .cfa: x29 32 + x19: .cfa -16 + ^ .ra: .cfa -24 + ^ x29: .cfa -32 + ^
STACK CFI 19604 .cfa: sp 32 +
STACK CFI 1960c .cfa: sp 0 +
STACK CFI INIT 19860 8 .cfa: sp 0 +
STACK CFI INIT 19868 24 .cfa: sp 0 +
STACK CFI 1986c .cfa: sp 32 +
STACK CFI 19874 .cfa: x29 32 + x19: .cfa -16 + ^ .ra: .cfa -24 + ^ x29: .cfa -32 + ^
STACK CFI 19880 .cfa: sp 32 +
STACK CFI 19888 .cfa: sp 0 +
STACK CFI INIT 1988c 28 .cfa: sp 0 +
STACK CFI 19890 .cfa: sp 32 +
STACK CFI 19898 .cfa: x29 32 + x19: .cfa -16 + ^ .ra: .cfa -24 + ^ x29: .cfa -32 + ^
STACK CFI 198a8 .cfa: sp 32 +
STACK CFI 198b0 .cfa: sp 0 +
STACK CFI INIT 198b4 8 .cfa: sp 0 +
STACK CFI INIT 198bc 24 .cfa: sp 0 +
STACK CFI 198c0 .cfa: sp 32 +
STACK CFI 198c8 .cfa: x29 32 + x19: .cfa -16 + ^ .ra: .cfa -24 + ^ x29: .cfa -32 + ^
STACK CFI 198d4 .cfa: sp 32 +
STACK CFI 198dc .cfa: sp 0 +
STACK CFI INIT 198e0 28 .cfa: sp 0 +
STACK CFI 198e4 .cfa: sp 32 +
STACK CFI 198ec .cfa: x29 32 + x19: .cfa -16 + ^ .ra: .cfa -24 + ^ x29: .cfa -32 + ^
STACK CFI 198fc .cfa: sp 32 +
STACK CFI 19904 .cfa: sp 0 +
STACK CFI INIT 19908 4 .cfa: sp 0 +
STACK CFI INIT 1ab4c 4 .cfa: sp 0 +
STACK CFI INIT 1ab50 14 .cfa: sp 0 +
STACK CFI INIT 158c0 1c0 .cfa: sp 0 +
STACK CFI 158c4 .cfa: sp 128 +
STACK CFI 158d8 .cfa: x29 64 + x19: .cfa -8 + ^ x20: .cfa -16 + ^ x21: .cfa -24 + ^ x22: .cfa -32 + ^ x23: .cfa -40 + ^ x24: .cfa -48 + ^ .ra: .cfa -56 + ^ x29: .cfa -64 + ^
STACK CFI 15a18 .cfa: sp 128 +
STACK CFI 15a2c .cfa: sp 0 +
STACK CFI 15a30 .cfa: x29 64 +
STACK CFI INIT 15a80 484 .cfa: sp 0 +
STACK CFI 15a84 .cfa: sp 224 +
STACK CFI 15aa0 .cfa: x29 96 + x19: .cfa -8 + ^ x20: .cfa -16 + ^ x21: .cfa -24 + ^ x22: .cfa -32 + ^ x23: .cfa -40 + ^ x24: .cfa -48 + ^ x25: .cfa -56 + ^ x26: .cfa -64 + ^ x27: .cfa -72 + ^ x28: .cfa -80 + ^ .ra: .cfa -88 + ^ x29: .cfa -96 + ^
STACK CFI 15d10 .cfa: sp 224 +
STACK CFI 15d2c .cfa: sp 0 +
STACK CFI 15d30 .cfa: x29 96 +
STACK CFI 15dfc .cfa: sp 224 +
STACK CFI 15e18 .cfa: sp 0 +
STACK CFI 15e1c .cfa: x29 96 +
STACK CFI INIT 15f1c 484 .cfa: sp 0 +
STACK CFI 15f20 .cfa: sp 224 +
STACK CFI 15f3c .cfa: x29 96 + x19: .cfa -8 + ^ x20: .cfa -16 + ^ x21: .cfa -24 + ^ x22: .cfa -32 + ^ x23: .cfa -40 + ^ x24: .cfa -48 + ^ x25: .cfa -56 + ^ x26: .cfa -64 + ^ x27: .cfa -72 + ^ x28: .cfa -80 + ^ .ra: .cfa -88 + ^ x29: .cfa -96 + ^
STACK CFI 161ac .cfa: sp 224 +
STACK CFI 161c8 .cfa: sp 0 +
STACK CFI 161cc .cfa: x29 96 +
STACK CFI 16298 .cfa: sp 224 +
STACK CFI 162b4 .cfa: sp 0 +
STACK CFI 162b8 .cfa: x29 96 +
STACK CFI INIT 165b4 31c .cfa: sp 0 +
STACK CFI 165b8 .cfa: sp 224 +
STACK CFI 165cc .cfa: x29 64 + x19: .cfa -8 + ^ x20: .cfa -16 + ^ x21: .cfa -24 + ^ x22: .cfa -32 + ^ x23: .cfa -48 + ^ .ra: .cfa -56 + ^ x29: .cfa -64 + ^
STACK CFI 167c0 .cfa: sp 224 +
STACK CFI 167d4 .cfa: sp 0 +
STACK CFI 167d8 .cfa: x29 64 +
STACK CFI INIT 16920 74 .cfa: sp 0 +
STACK CFI 16924 .cfa: sp 48 +
STACK CFI 16930 .cfa: x29 32 + x19: .cfa -8 + ^ x20: .cfa -16 + ^ .ra: .cfa -24 + ^ x29: .cfa -32 + ^
STACK CFI 1697c .cfa: sp 48 +
STACK CFI 16988 .cfa: sp 0 +
STACK CFI 1698c .cfa: x29 32 +
STACK CFI INIT 16a14 154 .cfa: sp 0 +
STACK CFI 16a18 .cfa: sp 384 +
STACK CFI 16a2c .cfa: x29 64 + x19: .cfa -8 + ^ x20: .cfa -16 + ^ x21: .cfa -24 + ^ x22: .cfa -32 + ^ x23: .cfa -40 + ^ x28: .cfa -48 + ^ .ra: .cfa -56 + ^ x29: .cfa -64 + ^
STACK CFI 16b10 .cfa: sp 384 +
STACK CFI 16b24 .cfa: sp 0 +
STACK CFI 16b28 .cfa: x29 64 +
STACK CFI INIT 16b9c 12c .cfa: sp 0 +
STACK CFI 16ba0 .cfa: sp 80 +
STACK CFI 16bb4 .cfa: x29 80 + x19: .cfa -8 + ^ x20: .cfa -16 + ^ x21: .cfa -24 + ^ x22: .cfa -32 + ^ x23: .cfa -40 + ^ x24: .cfa -48 + ^ x25: .cfa -56 + ^ x26: .cfa -64 + ^ .ra: .cfa -72 + ^ x29: .cfa -80 + ^
STACK CFI 16c7c .cfa: sp 80 +
STACK CFI 16c90 .cfa: sp 0 +
STACK CFI 16c94 .cfa: x29 80 +
STACK CFI INIT 16d6c 1a4 .cfa: sp 0 +
STACK CFI 16d70 .cfa: sp 112 +
STACK CFI 16d88 .cfa: x29 80 + x19: .cfa -8 + ^ x20: .cfa -16 + ^ x21: .cfa -24 + ^ x22: .cfa -32 + ^ x23: .cfa -40 + ^ x24: .cfa -48 + ^ x25: .cfa -56 + ^ x26: .cfa -64 + ^ .ra: .cfa -72 + ^ x29: .cfa -80 + ^
STACK CFI 16e78 .cfa: sp 112 +
STACK CFI 16e90 .cfa: sp 0 +
STACK CFI 16e94 .cfa: x29 80 +
STACK CFI INIT 16f10 1dc .cfa: sp 0 +
STACK CFI 16f14 .cfa: sp 128 +
STACK CFI 16f30 .cfa: x29 96 + x19: .cfa -8 + ^ x20: .cfa -16 + ^ x21: .cfa -24 + ^ x22: .cfa -32 + ^ x23: .cfa -40 + ^ x24: .cfa -48 + ^ x25: .cfa -56 + ^ x26: .cfa -64 + ^ x27: .cfa -80 + ^ .ra: .cfa -88 + ^ x29: .cfa -96 + ^
STACK CFI 1709c .cfa: sp 128 +
STACK CFI 170b8 .cfa: sp 0 +
STACK CFI 170bc .cfa: x29 96 +
STACK CFI INIT 17100 50 .cfa: sp 0 +
STACK CFI 17104 .cfa: sp 32 +
STACK CFI 1710c .cfa: x29 32 + x19: .cfa -8 + ^ x20: .cfa -16 + ^ .ra: .cfa -24 + ^ x29: .cfa -32 + ^
STACK CFI INIT 17180 178 .cfa: sp 0 +
STACK CFI 17184 .cfa: sp 80 +
STACK CFI 17198 .cfa: x29 80 + x19: .cfa -8 + ^ x20: .cfa -16 + ^ x21: .cfa -24 + ^ x22: .cfa -32 + ^ x23: .cfa -40 + ^ x24: .cfa -48 + ^ x25: .cfa -64 + ^ .ra: .cfa -72 + ^ x29: .cfa -80 + ^
STACK CFI 172c4 .cfa: sp 80 +
STACK CFI 172d8 .cfa: sp 0 +
STACK CFI 172dc .cfa: x29 80 +
STACK CFI INIT 17440 224 .cfa: sp 0 +
STACK CFI 17444 .cfa: sp 128 +
STACK CFI 1745c .cfa: x29 80 + x19: .cfa -8 + ^ x20: .cfa -16 + ^ x21: .cfa -24 + ^ x22: .cfa -32 + ^ x23: .cfa -40 + ^ x24: .cfa -48 + ^ x25: .cfa -64 + ^ .ra: .cfa -72 + ^ x29: .cfa -80 + ^
STACK CFI 175f8 .cfa: sp 128 +
STACK CFI 17610 .cfa: sp 0 +
STACK CFI 17614 .cfa: x29 80 +
STACK CFI INIT 17dc0 1a0 .cfa: sp 0 +
STACK CFI 17dc4 .cfa: sp 80 +
STACK CFI 17dd4 .cfa: x29 48 + x19: .cfa -8 + ^ x20: .cfa -16 + ^ x21: .cfa -24 + ^ x22: .cfa -32 + ^ .ra: .cfa -40 + ^ x29: .cfa -48 + ^
STACK CFI 17f1c .cfa: sp 80 +
STACK CFI 17f2c .cfa: sp 0 +
STACK CFI 17f30 .cfa: x29 48 +
STACK CFI INIT 17f60 a8 .cfa: sp 0 +
STACK CFI 17f64 .cfa: sp 32 +
STACK CFI 17f6c .cfa: x29 32 + x19: .cfa -16 + ^ .ra: .cfa -24 + ^ x29: .cfa -32 + ^
STACK CFI 17fa0 .cfa: sp 32 +
STACK CFI 17fa8 .cfa: sp 0 +
STACK CFI 17fac .cfa: x29 32 +
STACK CFI 17fb0 .cfa: sp 32 +
STACK CFI 17fb8 .cfa: sp 0 +
STACK CFI 17fbc .cfa: x29 32 +
STACK CFI INIT 18594 34c .cfa: sp 0 +
STACK CFI 18598 .cfa: sp 208 +
STACK CFI 185ac .cfa: x29 64 + x19: .cfa -8 + ^ x20: .cfa -16 + ^ x21: .cfa -24 + ^ x22: .cfa -32 + ^ x23: .cfa -40 + ^ x24: .cfa -48 + ^ .ra: .cfa -56 + ^ x29: .cfa -64 + ^
STACK CFI 187bc .cfa: sp 208 +
STACK CFI 187d0 .cfa: sp 0 +
STACK CFI 187d4 .cfa: x29 64 +
STACK CFI INIT 188e4 18c .cfa: sp 0 +
STACK CFI 188e8 .cfa: sp 80 +
STACK CFI 188f8 .cfa: x29 48 + x19: .cfa -8 + ^ x20: .cfa -16 + ^ x21: .cfa -24 + ^ x22: .cfa -32 + ^ .ra: .cfa -40 + ^ x29: .cfa -48 + ^
STACK CFI 18a2c .cfa: sp 80 +
STACK CFI 18a3c .cfa: sp 0 +
STACK CFI 18a40 .cfa: x29 48 +
STACK CFI INIT 18a74 108 .cfa: sp 0 +
STACK CFI 18a78 .cfa: sp 32 +
STACK CFI 18a80 .cfa: x29 32 + x19: .cfa -8 + ^ x20: .cfa -16 + ^ .ra: .cfa -24 + ^ x29: .cfa -32 + ^
STACK CFI 18b38 .cfa: sp 32 +
STACK CFI 18b40 .cfa: sp 0 +
STACK CFI 18b44 .cfa: x29 32 +
STACK CFI 18b5c .cfa: sp 32 +
STACK CFI 18b64 .cfa: sp 0 +
STACK CFI 18b68 .cfa: x29 32 +
STACK CFI INIT 18b7c 1cc .cfa: sp 0 +
STACK CFI 18b80 .cfa: sp 80 +
STACK CFI 18b90 .cfa: x29 48 + x19: .cfa -8 + ^ x20: .cfa -16 + ^ x21: .cfa -24 + ^ x22: .cfa -32 + ^ .ra: .cfa -40 + ^ x29: .cfa -48 + ^
STACK CFI 18d04 .cfa: sp 80 +
STACK CFI 18d14 .cfa: sp 0 +
STACK CFI 18d18 .cfa: x29 48 +
STACK CFI INIT 18fc4 134 .cfa: sp 0 +
STACK CFI 18fc8 .cfa: sp 80 +
STACK CFI 18fd4 .cfa: x29 32 + x19: .cfa -8 + ^ x20: .cfa -16 + ^ .ra: .cfa -24 + ^ x29: .cfa -32 + ^
STACK CFI 19004 .cfa: sp 80 +
STACK CFI 19010 .cfa: sp 0 +
STACK CFI 19014 .cfa: x29 32 +
STACK CFI INIT 190f8 78 .cfa: sp 0 +
STACK CFI 190fc .cfa: sp 32 +
STACK CFI 19104 .cfa: x29 32 + x19: .cfa -8 + ^ x20: .cfa -16 + ^ .ra: .cfa -24 + ^ x29: .cfa -32 + ^
STACK CFI 19110 .cfa: sp 32 +
STACK CFI 19118 .cfa: sp 0 +
STACK CFI 1911c .cfa: x29 32 +
STACK CFI INIT 19170 74 .cfa: sp 0 +
STACK CFI 19174 .cfa: sp 48 +
STACK CFI 19180 .cfa: x29 32 + x19: .cfa -8 + ^ x20: .cfa -16 + ^ .ra: .cfa -24 + ^ x29: .cfa -32 + ^
STACK CFI 191cc .cfa: sp 48 +
STACK CFI 191d8 .cfa: sp 0 +
STACK CFI 191dc .cfa: x29 32 +
STACK CFI INIT 192e4 2d8 .cfa: sp 0 +
STACK CFI 192e8 .cfa: sp 128 +
STACK CFI 192fc .cfa: x29 64 + x19: .cfa -8 + ^ x20: .cfa -16 + ^ x21: .cfa -24 + ^ x22: .cfa -32 + ^ x23: .cfa -48 + ^ .ra: .cfa -56 + ^ x29: .cfa -64 + ^
STACK CFI 19468 .cfa: sp 128 +
STACK CFI 1947c .cfa: sp 0 +
STACK CFI 19480 .cfa: x29 64 +
STACK CFI INIT 19610 250 .cfa: sp 0 +
STACK CFI 19614 .cfa: sp 112 +
STACK CFI 19624 .cfa: x29 48 + x19: .cfa -8 + ^ x20: .cfa -16 + ^ x21: .cfa -32 + ^ .ra: .cfa -40 + ^ x29: .cfa -48 + ^
STACK CFI 19708 .cfa: sp 112 +
STACK CFI 19718 .cfa: sp 0 +
STACK CFI 1971c .cfa: x29 48 +
STACK CFI INIT 1990c 2bc .cfa: sp 0 +
STACK CFI 19910 .cfa: sp 128 +
STACK CFI 19924 .cfa: x29 64 + x19: .cfa -8 + ^ x20: .cfa -16 + ^ x21: .cfa -24 + ^ x22: .cfa -32 + ^ x23: .cfa -48 + ^ .ra: .cfa -56 + ^ x29: .cfa -64 + ^
STACK CFI 19a74 .cfa: sp 128 +
STACK CFI 19a88 .cfa: sp 0 +
STACK CFI 19a8c .cfa: x29 64 +
STACK CFI INIT 19bc8 2bc .cfa: sp 0 +
STACK CFI 19bcc .cfa: sp 128 +
STACK CFI 19be0 .cfa: x29 64 + x19: .cfa -8 + ^ x20: .cfa -16 + ^ x21: .cfa -24 + ^ x22: .cfa -32 + ^ x23: .cfa -48 + ^ .ra: .cfa -56 + ^ x29: .cfa -64 + ^
STACK CFI 19d30 .cfa: sp 128 +
STACK CFI 19d44 .cfa: sp 0 +
STACK CFI 19d48 .cfa: x29 64 +
STACK CFI INIT 19e84 278 .cfa: sp 0 +
STACK CFI 19e88 .cfa: sp 128 +
STACK CFI 19e9c .cfa: x29 64 + x19: .cfa -8 + ^ x20: .cfa -16 + ^ x21: .cfa -24 + ^ x22: .cfa -32 + ^ x23: .cfa -48 + ^ .ra: .cfa -56 + ^ x29: .cfa -64 + ^
STACK CFI 19fa8 .cfa: sp 128 +
STACK CFI 19fbc .cfa: sp 0 +
STACK CFI 19fc0 .cfa: x29 64 +
STACK CFI INIT 1a0fc 2c8 .cfa: sp 0 +
STACK CFI 1a100 .cfa: sp 128 +
STACK CFI 1a114 .cfa: x29 64 + x19: .cfa -8 + ^ x20: .cfa -16 + ^ x21: .cfa -24 + ^ x22: .cfa -32 + ^ x23: .cfa -48 + ^ .ra: .cfa -56 + ^ x29: .cfa -64 + ^
STACK CFI 1a270 .cfa: sp 128 +
STACK CFI 1a284 .cfa: sp 0 +
STACK CFI 1a288 .cfa: x29 64 +
STACK CFI INIT 1a3c4 4cc .cfa: sp 0 +
STACK CFI 1a3c8 .cfa: sp 128 +
STACK CFI 1a3dc .cfa: x29 64 + x19: .cfa -8 + ^ x20: .cfa -16 + ^ x21: .cfa -24 + ^ x22: .cfa -32 + ^ x23: .cfa -48 + ^ .ra: .cfa -56 + ^ x29: .cfa -64 + ^
STACK CFI 1a6e8 .cfa: sp 128 +
STACK CFI 1a6fc .cfa: sp 0 +
STACK CFI 1a700 .cfa: x29 64 +
STACK CFI INIT 1a890 154 .cfa: sp 0 +
STACK CFI 1a894 .cfa: sp 384 +
STACK CFI 1a8a8 .cfa: x29 64 + x19: .cfa -8 + ^ x20: .cfa -16 + ^ x21: .cfa -24 + ^ x22: .cfa -32 + ^ x23: .cfa -40 + ^ x28: .cfa -48 + ^ .ra: .cfa -56 + ^ x29: .cfa -64 + ^
STACK CFI 1a98c .cfa: sp 384 +
STACK CFI 1a9a0 .cfa: sp 0 +
STACK CFI 1a9a4 .cfa: x29 64 +
STACK CFI INIT 1a9e4 168 .cfa: sp 0 +
STACK CFI 1a9e8 .cfa: sp 384 +
STACK CFI 1a9fc .cfa: x29 64 + x19: .cfa -8 + ^ x20: .cfa -16 + ^ x21: .cfa -24 + ^ x22: .cfa -32 + ^ x23: .cfa -40 + ^ x28: .cfa -48 + ^ .ra: .cfa -56 + ^ x29: .cfa -64 + ^
STACK CFI 1aaf4 .cfa: sp 384 +
STACK CFI 1ab08 .cfa: sp 0 +
STACK CFI 1ab0c .cfa: x29 64 +
STACK CFI INIT 1ab64 4e0 .cfa: sp 0 +
STACK CFI 1ab68 .cfa: sp 64 +
STACK CFI 1ab78 .cfa: x29 64 + x19: .cfa -8 + ^ x20: .cfa -16 + ^ x21: .cfa -24 + ^ x22: .cfa -32 + ^ x23: .cfa -40 + ^ x24: .cfa -48 + ^ .ra: .cfa -56 + ^ x29: .cfa -64 + ^
STACK CFI 1b018 .cfa: sp 64 +
STACK CFI 1b028 .cfa: sp 0 +
STACK CFI 1b02c .cfa: x29 64 +
