MODULE Linux arm A19CB7BE3B23DAD7D6EEA5F2809EFBBF0 elohmrow.death_tracker.android32.so
INFO CODE_ID BEB79CA1233BD7DAD6EEA5F2809EFBBF301B66EB
INFO GENERATOR mozilla/dump_syms 2.3.4
PUBLIC 2ebb0 0 __on_dlclose
PUBLIC 2ebc0 0 __emutls_unregister_key
PUBLIC 2ebc4 0 __on_dlclose_late
PUBLIC 2ebc8 0 __atexit_handler_wrapper
PUBLIC 2ebd4 0 atexit
PUBLIC 2ebf4 0 pthread_atfork
FUNC 2ec04 68 0 DTCCTextInputNode::onTextFieldInsertText(cocos2d::CCTextFieldTTF*, char const*, int, cocos2d::enumKeyCodes)
FUNC 2ec6c 4 0 cocos2d::CCCopying::copyWithZone(cocos2d::CCZone*)
FUNC 2ec70 2 0 cocos2d::CCKeyboardDelegate::keyUp(cocos2d::enumKeyCodes)
FUNC 2ec72 2 0 cocos2d::CCMouseDelegate::rightKeyDown()
FUNC 2ec74 2 0 cocos2d::CCMouseDelegate::rightKeyUp()
FUNC 2ec76 2 0 cocos2d::CCMouseDelegate::scrollWheel(float, float)
FUNC 2ec78 4 0 cocos2d::CCIMEDelegate::canAttachWithIME()
FUNC 2ec7c 2 0 cocos2d::CCIMEDelegate::didAttachWithIME()
FUNC 2ec7e 4 0 cocos2d::CCIMEDelegate::canDetachWithIME()
FUNC 2ec82 2 0 cocos2d::CCIMEDelegate::didDetachWithIME()
FUNC 2ec84 2 0 cocos2d::CCIMEDelegate::insertText(char const*, int, cocos2d::enumKeyCodes)
FUNC 2ec86 2 0 cocos2d::CCIMEDelegate::deleteBackward()
FUNC 2ec88 4 0 cocos2d::CCIMEDelegate::getContentText()
FUNC 2ec8c 2 0 cocos2d::CCIMEDelegate::keyboardDidShow(cocos2d::CCIMEKeyboardNotificationInfo&)
FUNC 2ec8e 2 0 cocos2d::CCIMEDelegate::keyboardDidHide(cocos2d::CCIMEKeyboardNotificationInfo&)
FUNC 2ec90 4c 0 __cxx_global_var_init
FUNC 2ecdc 20 0 geode::modifier::ModifyBase<geode::modifier::ModifyDerive<DTCCTextInputNode, CCTextInputNode> >::~ModifyBase()
FUNC 2ecfc 11c 0 geode::modifier::FieldIntermediate<DTCCTextInputNode, CCTextInputNode>::self()
FUNC 2ee18 1c0 0 geode::modifier::FieldContainer::getField(unsigned int)
FUNC 2efd8 ae 0 geode::modifier::FieldContainer::setField(unsigned int, unsigned int, std::__ndk1::function<void (void*)>)
FUNC 2f086 2 0 geode::modifier::FieldIntermediate<DTCCTextInputNode, CCTextInputNode>::fieldDestructor(void*)
FUNC 2f088 10 0 std::__ndk1::vector<void*, std::__ndk1::allocator<void*> >::__throw_length_error[abi:ne180000]() const
PUBLIC 2f099 0 __clang_call_terminate
FUNC 2f0a4 38 0 std::__ndk1::__throw_length_error[abi:ne180000](char const*)
FUNC 2f0dc 18 0 std::length_error::length_error[abi:ne180000](char const*)
FUNC 2f0f4 28 0 std::__throw_bad_array_new_length([abi:ne180000], void)
FUNC 2f11c 186 0 std::__ndk1::vector<std::__ndk1::function<void (void*)>, std::__ndk1::allocator<std::__ndk1::function<void (void*)> > >::__push_back_slow_path<std::__ndk1::function<void (void*)> >(std::__ndk1::function<void (void*)>&&)
FUNC 2f2a4 10 0 std::__ndk1::vector<std::__ndk1::function<void (void*)>, std::__ndk1::allocator<std::__ndk1::function<void (void*)> > >::__throw_length_error[abi:ne180000]() const
FUNC 2f2b4 10 0 std::__ndk1::vector<void*, std::__ndk1::allocator<void*> >::__throw_out_of_range[abi:ne180000]() const
FUNC 2f2c4 38 0 std::__ndk1::__throw_out_of_range[abi:ne180000](char const*)
FUNC 2f2fc 18 0 std::out_of_range::out_of_range[abi:ne180000](char const*)
FUNC 2f314 10 0 std::__ndk1::vector<std::__ndk1::function<void (void*)>, std::__ndk1::allocator<std::__ndk1::function<void (void*)> > >::__throw_out_of_range[abi:ne180000]() const
FUNC 2f324 2 0 std::__ndk1::__function::__base<void (void*)>::~__base()
FUNC 2f326 4 0 std::__ndk1::__function::__func<void (*)(void*), std::__ndk1::allocator<void (*)(void*)>, void (void*)>::~__func()
FUNC 2f32c 20 0 std::__ndk1::__function::__func<void (*)(void*), std::__ndk1::allocator<void (*)(void*)>, void (void*)>::__clone() const
FUNC 2f34c 14 0 std::__ndk1::__function::__func<void (*)(void*), std::__ndk1::allocator<void (*)(void*)>, void (void*)>::__clone(std::__ndk1::__function::__base<void (void*)>*) const
FUNC 2f360 2 0 std::__ndk1::__function::__func<void (*)(void*), std::__ndk1::allocator<void (*)(void*)>, void (void*)>::destroy()
FUNC 2f362 4 0 std::__ndk1::__function::__func<void (*)(void*), std::__ndk1::allocator<void (*)(void*)>, void (void*)>::destroy_deallocate()
FUNC 2f366 8 0 std::__ndk1::__function::__func<void (*)(void*), std::__ndk1::allocator<void (*)(void*)>, void (void*)>::operator()(void*&&)
FUNC 2f370 18 0 std::__ndk1::__function::__func<void (*)(void*), std::__ndk1::allocator<void (*)(void*)>, void (void*)>::target(std::type_info const&) const
FUNC 2f388 c 0 std::__ndk1::__function::__func<void (*)(void*), std::__ndk1::allocator<void (*)(void*)>, void (void*)>::target_type() const
FUNC 2f394 29c 0 geode::modifier::ModifyBase<geode::modifier::ModifyDerive<DTCCTextInputNode, CCTextInputNode> >::ModifyBase()
FUNC 2f630 278 0 geode::modifier::ModifyDerive<DTCCTextInputNode, CCTextInputNode>::apply()
FUNC 2f8a8 3a 0 std::__ndk1::shared_ptr<geode::Hook>::~shared_ptr[abi:ne180000]()
FUNC 2f8e4 60 0 geode::impl::ResultData<geode::Hook*, std::__ndk1::basic_string<char, std::__ndk1::char_traits<char>, std::__ndk1::allocator<char> > >::~ResultData()
FUNC 2f944 3e 0 std::__ndk1::vector<std::__ndk1::basic_string<char, std::__ndk1::char_traits<char>, std::__ndk1::allocator<char> >, std::__ndk1::allocator<std::__ndk1::basic_string<char, std::__ndk1::char_traits<char>, std::__ndk1::allocator<char> > > >::~vector[abi:ne180000]()
FUNC 2f982 2 0 geode::modifier::ModifyBase<geode::modifier::ModifyDerive<DTCCTextInputNode, CCTextInputNode> >::apply()
FUNC 2f984 f8 0 _ZN5geode15UnwrapExceptionC2IRPNS_4HookEQsr4implE18IsStringStreamableIT_EEENS_4impl5OkTagEOS5_
FUNC 2fa7c 34 0 std::__ndk1::__throw_bad_variant_access[abi:ne180000]()
FUNC 2fab0 d8 0 std::__ndk1::basic_stringstream<char, std::__ndk1::char_traits<char>, std::__ndk1::allocator<char> >::basic_stringstream[abi:ne180000]()
FUNC 2fb88 68 0 std::__ndk1::basic_stringstream<char, std::__ndk1::char_traits<char>, std::__ndk1::allocator<char> >::~basic_stringstream()
FUNC 2fbf0 10 0 geode::UnwrapException::~UnwrapException()
FUNC 2fc00 108 0 std::__ndk1::__put_character_sequence[abi:ne180000]<char, std::__ndk1::char_traits<char> >(std::__ndk1::basic_ostream<char, std::__ndk1::char_traits<char> >, std::__ndk1::basic_ostream const*, unsigned int)
FUNC 2fd08 110 0 std::__ndk1::__pad_and_output[abi:ne180000]<char, std::__ndk1::char_traits<char> >(std::__ndk1::char_traits<char>, std::__ndk1::ostreambuf_iterator const*, std::__ndk1::ostreambuf_iterator const, std::__ndk1::ostreambuf_iterator const, std::__ndk1::ios_base&, std::__ndk1::ostreambuf_iterator)
FUNC 2fe18 10 0 std::__ndk1::basic_string<char, std::__ndk1::char_traits<char>, std::__ndk1::allocator<char> >::__throw_length_error[abi:ne180000]() const
FUNC 2fe28 ce 0 std::__ndk1::basic_stringbuf<char, std::__ndk1::char_traits<char>, std::__ndk1::allocator<char> >::str[abi:ne180000]() &&
FUNC 2fef6 e0 0 std::__ndk1::basic_stringbuf<char, std::__ndk1::char_traits<char>, std::__ndk1::allocator<char> >::__init_buf_ptrs[abi:ne180000]()
FUNC 2ffd8 164 0 std::__ndk1::vector<std::__ndk1::basic_string<char, std::__ndk1::char_traits<char>, std::__ndk1::allocator<char> >, std::__ndk1::allocator<std::__ndk1::basic_string<char, std::__ndk1::char_traits<char>, std::__ndk1::allocator<char> > > >::__push_back_slow_path<std::__ndk1::basic_string<char, std::__ndk1::char_traits<char>, std::__ndk1::allocator<char> > const&>(std::__ndk1::basic_string<char, std::__ndk1::char_traits<char>, std::__ndk1::allocator<char> > const&)
FUNC 3013c 46 0 std::__ndk1::basic_string<char, std::__ndk1::char_traits<char>, std::__ndk1::allocator<char> >::__init_copy_ctor_external(char const*, unsigned int)
FUNC 30182 3c 0 std::__ndk1::__split_buffer<std::__ndk1::basic_string<char, std::__ndk1::char_traits<char>, std::__ndk1::allocator<char> >, std::__ndk1::allocator<std::__ndk1::basic_string<char, std::__ndk1::char_traits<char>, std::__ndk1::allocator<char> > >&>::~__split_buffer()
FUNC 301c0 10 0 std::__ndk1::vector<std::__ndk1::basic_string<char, std::__ndk1::char_traits<char>, std::__ndk1::allocator<char> >, std::__ndk1::allocator<std::__ndk1::basic_string<char, std::__ndk1::char_traits<char>, std::__ndk1::allocator<char> > > >::__throw_length_error[abi:ne180000]() const
FUNC 301d0 2 0 std::__ndk1::__variant_detail::__visitation::__base::__dispatcher<(unsigned int)0>::__dispatch[abi:ne180000]<std::__ndk1::__variant_detail::__dtor<std::__ndk1::__variant_detail::__traits<geode::Hook*, std::__ndk1::basic_string<char, std::__ndk1::char_traits<char>, std::__ndk1::allocator<char> > >, (std::__ndk1::__variant_detail::_Trait)1>::__destroy[abi:ne180000]()::{lambda(auto:1&)#1}, std::__ndk1::__variant_detail::__base<(std::__ndk1::__variant_detail::__traits<geode::Hook*, std::__ndk1::basic_string<char, std::__ndk1::char_traits<char>, std::__ndk1::allocator<char> > >)1, geode::Hook, std::__ndk1::allocator<char> >&>(std::__ndk1::__variant_detail::__dtor<std::__ndk1::__variant_detail::__traits<geode::Hook*, std::__ndk1::basic_string<char, std::__ndk1::char_traits<char>, std::__ndk1::allocator<char> > >, (std::__ndk1::__variant_detail::_Trait)1>, std::__ndk1::__variant_detail::__base<(std::__ndk1::__variant_detail::__traits<geode::Hook*, std::__ndk1::basic_string<char, std::__ndk1::char_traits<char>, std::__ndk1::allocator<char> > >)1, geode::Hook, std::__ndk1::allocator<char> >&)
FUNC 301d2 e 0 std::__ndk1::__variant_detail::__visitation::__base::__dispatcher<(unsigned int)1>::__dispatch[abi:ne180000]<std::__ndk1::__variant_detail::__dtor<std::__ndk1::__variant_detail::__traits<geode::Hook*, std::__ndk1::basic_string<char, std::__ndk1::char_traits<char>, std::__ndk1::allocator<char> > >, (std::__ndk1::__variant_detail::_Trait)1>::__destroy[abi:ne180000]()::{lambda(auto:1&)#1}, std::__ndk1::__variant_detail::__base<(std::__ndk1::__variant_detail::__traits<geode::Hook*, std::__ndk1::basic_string<char, std::__ndk1::char_traits<char>, std::__ndk1::allocator<char> > >)1, geode::Hook, std::__ndk1::allocator<char> >&>(std::__ndk1::__variant_detail::__dtor<std::__ndk1::__variant_detail::__traits<geode::Hook*, std::__ndk1::basic_string<char, std::__ndk1::char_traits<char>, std::__ndk1::allocator<char> > >, (std::__ndk1::__variant_detail::_Trait)1>, std::__ndk1::__variant_detail::__base<(std::__ndk1::__variant_detail::__traits<geode::Hook*, std::__ndk1::basic_string<char, std::__ndk1::char_traits<char>, std::__ndk1::allocator<char> > >)1, geode::Hook, std::__ndk1::allocator<char> >&)
FUNC 301e0 c0 0 std::__ndk1::__tree<std::__ndk1::__value_type<std::__ndk1::basic_string<char, std::__ndk1::char_traits<char>, std::__ndk1::allocator<char> >, std::__ndk1::shared_ptr<geode::Hook> >, std::__ndk1::__map_value_compare<std::__ndk1::basic_string<char, std::__ndk1::char_traits<char>, std::__ndk1::allocator<char> >, std::__ndk1::__value_type<std::__ndk1::basic_string<char, std::__ndk1::char_traits<char>, std::__ndk1::allocator<char> >, std::__ndk1::shared_ptr<geode::Hook> >, std::__ndk1::less<std::__ndk1::basic_string<char, std::__ndk1::char_traits<char>, std::__ndk1::allocator<char> > >, true>, std::__ndk1::allocator<std::__ndk1::__value_type<std::__ndk1::basic_string<char, std::__ndk1::char_traits<char>, std::__ndk1::allocator<char> >, std::__ndk1::shared_ptr<geode::Hook> > > >::find<std::__ndk1::basic_string<char, std::__ndk1::char_traits<char>, std::__ndk1::allocator<char> > >(std::__ndk1::basic_string<char, std::__ndk1::char_traits<char>, std::__ndk1::allocator<char> > const&)
FUNC 302a0 82 0 std::__ndk1::__tree<std::__ndk1::__value_type<std::__ndk1::basic_string<char, std::__ndk1::char_traits<char>, std::__ndk1::allocator<char> >, std::__ndk1::shared_ptr<geode::Hook> >, std::__ndk1::__map_value_compare<std::__ndk1::basic_string<char, std::__ndk1::char_traits<char>, std::__ndk1::allocator<char> >, std::__ndk1::__value_type<std::__ndk1::basic_string<char, std::__ndk1::char_traits<char>, std::__ndk1::allocator<char> >, std::__ndk1::shared_ptr<geode::Hook> >, std::__ndk1::less<std::__ndk1::basic_string<char, std::__ndk1::char_traits<char>, std::__ndk1::allocator<char> > >, true>, std::__ndk1::allocator<std::__ndk1::__value_type<std::__ndk1::basic_string<char, std::__ndk1::char_traits<char>, std::__ndk1::allocator<char> >, std::__ndk1::shared_ptr<geode::Hook> > > >::erase(std::__ndk1::__tree_const_iterator<std::__ndk1::__value_type<std::__ndk1::basic_string<char, std::__ndk1::char_traits<char>, std::__ndk1::allocator<char> >, std::__ndk1::shared_ptr<geode::Hook> >, std::__ndk1::__tree_node<std::__ndk1::__value_type<std::__ndk1::basic_string<char, std::__ndk1::char_traits<char>, std::__ndk1::allocator<char> >, std::__ndk1::shared_ptr<geode::Hook> >, void*>*, int>)
FUNC 30322 274 0 std::__ndk1::__tree_remove[abi:ne180000]<std::__ndk1::__tree_node_base<void*>*>(std::__ndk1::__tree_node_base<void*>*, std::__ndk1::__tree_node_base<void*>*)
FUNC 30596 5e 0 std::__ndk1::__tree<std::__ndk1::__value_type<std::__ndk1::basic_string<char, std::__ndk1::char_traits<char>, std::__ndk1::allocator<char> >, std::__ndk1::shared_ptr<geode::Hook> >, std::__ndk1::__map_value_compare<std::__ndk1::basic_string<char, std::__ndk1::char_traits<char>, std::__ndk1::allocator<char> >, std::__ndk1::__value_type<std::__ndk1::basic_string<char, std::__ndk1::char_traits<char>, std::__ndk1::allocator<char> >, std::__ndk1::shared_ptr<geode::Hook> >, std::__ndk1::less<std::__ndk1::basic_string<char, std::__ndk1::char_traits<char>, std::__ndk1::allocator<char> > >, true>, std::__ndk1::allocator<std::__ndk1::__value_type<std::__ndk1::basic_string<char, std::__ndk1::char_traits<char>, std::__ndk1::allocator<char> >, std::__ndk1::shared_ptr<geode::Hook> > > >::destroy(std::__ndk1::__tree_node<std::__ndk1::__value_type<std::__ndk1::basic_string<char, std::__ndk1::char_traits<char>, std::__ndk1::allocator<char> >, std::__ndk1::shared_ptr<geode::Hook> >, void*>*)
FUNC 305f4 44 0 geode::addresser::getVirtual<bool (CCTextInputNode::*)(cocos2d::CCTextFieldTTF*, char const*, int, cocos2d::enumKeyCodes)>(bool (CCTextInputNode::*)(cocos2d::CCTextFieldTTF*, char const*, int, cocos2d::enumKeyCodes))
FUNC 30638 b0 0 geode::Hook::create<bool (*)(DTCCTextInputNode*, cocos2d::CCTextFieldTTF*, char const*, int, cocos2d::enumKeyCodes)>(void*, bool (*)(DTCCTextInputNode*, cocos2d::CCTextFieldTTF*, char const*, int, cocos2d::enumKeyCodes), std::__ndk1::basic_string<char, std::__ndk1::char_traits<char>, std::__ndk1::allocator<char> > const&, tulip::hook::TulipConvention, tulip::hook::HookMetadata const&)
FUNC 306e8 c 0 geode::modifier::AsStaticFunction_onTextFieldInsertText<DTCCTextInputNode, bool (DTCCTextInputNode::*)(cocos2d::CCTextFieldTTF*, char const*, int, cocos2d::enumKeyCodes)>::Impl<bool (DTCCTextInputNode::*)(cocos2d::CCTextFieldTTF*, char const*, int, cocos2d::enumKeyCodes)>::function(DTCCTextInputNode*, cocos2d::CCTextFieldTTF*, char const*, int, cocos2d::enumKeyCodes)
FUNC 306f4 6c 0 _ZN5geode9addresser9Addresser14cachedInstanceI15CCTextInputNodeEEPT_vQ18HasZeroConstructorIS4_E
FUNC 30760 d4 0 CCTextInputNode::CCTextInputNode(geode::ZeroConstructorType)
FUNC 30840 360 0 tulip::hook::AbstractFunction::from<bool, DTCCTextInputNode*, cocos2d::CCTextFieldTTF*, char const*, int, cocos2d::enumKeyCodes>(bool (*)(DTCCTextInputNode*, cocos2d::CCTextFieldTTF*, char const*, int, cocos2d::enumKeyCodes))
FUNC 30ba0 3a 0 std::__ndk1::shared_ptr<tulip::hook::CallingConvention>::~shared_ptr[abi:ne180000]()
FUNC 30bda 46 0 tulip::hook::HandlerMetadata::~HandlerMetadata()
FUNC 30c20 10 0 std::__ndk1::vector<tulip::hook::AbstractType, std::__ndk1::allocator<tulip::hook::AbstractType> >::__throw_length_error[abi:ne180000]() const
FUNC 30c30 ba 0 std::__ndk1::__tree<std::__ndk1::__value_type<std::__ndk1::basic_string<char, std::__ndk1::char_traits<char>, std::__ndk1::allocator<char> >, std::__ndk1::shared_ptr<geode::Hook> >, std::__ndk1::__map_value_compare<std::__ndk1::basic_string<char, std::__ndk1::char_traits<char>, std::__ndk1::allocator<char> >, std::__ndk1::__value_type<std::__ndk1::basic_string<char, std::__ndk1::char_traits<char>, std::__ndk1::allocator<char> >, std::__ndk1::shared_ptr<geode::Hook> >, std::__ndk1::less<std::__ndk1::basic_string<char, std::__ndk1::char_traits<char>, std::__ndk1::allocator<char> > >, true>, std::__ndk1::allocator<std::__ndk1::__value_type<std::__ndk1::basic_string<char, std::__ndk1::char_traits<char>, std::__ndk1::allocator<char> >, std::__ndk1::shared_ptr<geode::Hook> > > >::__find_equal<std::__ndk1::basic_string<char, std::__ndk1::char_traits<char>, std::__ndk1::allocator<char> > >(std::__ndk1::__tree_end_node<std::__ndk1::__tree_node_base<void*>*>*&, std::__ndk1::basic_string<char, std::__ndk1::char_traits<char>, std::__ndk1::allocator<char> > const&)
FUNC 30cea 14a 0 std::__ndk1::__tree_balance_after_insert[abi:ne180000]<std::__ndk1::__tree_node_base<void*>*>(std::__ndk1::__tree_node_base<void*>*, std::__ndk1::__tree_node_base<void*>*)
FUNC 30e34 4e 0 DTColorSelectPopup::colorValueChanged(cocos2d::_ccColor3B)
FUNC 30e82 2 0 cocos2d::CCLayerRGBA::setOpacityModifyRGB(bool)
FUNC 30e84 4 0 cocos2d::CCLayerRGBA::isOpacityModifyRGB()
FUNC 30e88 2 0 {virtual override thunk({offset(-316)}, cocos2d::CCLayerRGBA::setOpacityModifyRGB(bool))}
FUNC 30e8a 4 0 {virtual override thunk({offset(-316)}, cocos2d::CCLayerRGBA::isOpacityModifyRGB())}
FUNC 30e90 4c 0 __cxx_global_var_init
FUNC 30edc 20 0 geode::modifier::ModifyBase<geode::modifier::ModifyDerive<DTColorSelectPopup, ColorSelectPopup> >::~ModifyBase()
FUNC 30efc 11c 0 geode::modifier::FieldIntermediate<DTColorSelectPopup, ColorSelectPopup>::self()
FUNC 31018 2 0 geode::modifier::FieldIntermediate<DTColorSelectPopup, ColorSelectPopup>::fieldDestructor(void*)
FUNC 3101c 29c 0 geode::modifier::ModifyBase<geode::modifier::ModifyDerive<DTColorSelectPopup, ColorSelectPopup> >::ModifyBase()
FUNC 312b8 270 0 geode::modifier::ModifyDerive<DTColorSelectPopup, ColorSelectPopup>::apply()
FUNC 31528 2 0 geode::modifier::ModifyBase<geode::modifier::ModifyDerive<DTColorSelectPopup, ColorSelectPopup> >::apply()
FUNC 3152a 44 0 geode::addresser::getVirtual<void (ColorSelectPopup::*)(cocos2d::_ccColor3B)>(void (ColorSelectPopup::*)(cocos2d::_ccColor3B))
FUNC 31570 108 0 geode::Hook::create<void (*)(DTColorSelectPopup*, cocos2d::_ccColor3B)>(void*, void (*)(DTColorSelectPopup*, cocos2d::_ccColor3B), std::__ndk1::basic_string<char, std::__ndk1::char_traits<char>, std::__ndk1::allocator<char> > const&, tulip::hook::TulipConvention, tulip::hook::HookMetadata const&)
FUNC 31678 8 0 geode::modifier::AsStaticFunction_colorValueChanged<DTColorSelectPopup, void (DTColorSelectPopup::*)(cocos2d::_ccColor3B)>::Impl<void (DTColorSelectPopup::*)(cocos2d::_ccColor3B)>::function(DTColorSelectPopup*, cocos2d::_ccColor3B)
FUNC 31680 6c 0 _ZN5geode9addresser9Addresser14cachedInstanceI16ColorSelectPopupEEPT_vQ18HasZeroConstructorIS4_E
FUNC 316ec a0 0 ColorSelectPopup::ColorSelectPopup(geode::ZeroConstructorType)
FUNC 3178c 1e 0 DTEditLevelLayer::openDTLayer(cocos2d::CCObject*)
FUNC 317aa b2 0 LevelStats_s::~LevelStats_s()
FUNC 3185c 2f4 0 __cxx_global_var_init
FUNC 31b50 20 0 geode::modifier::ModifyBase<geode::modifier::ModifyDerive<DTEditLevelLayer, EditLevelLayer> >::~ModifyBase()
FUNC 31b70 c8 0 std::__ndk1::basic_string<char, std::__ndk1::char_traits<char>, std::__ndk1::allocator<char> >::__assign_external(char const*, unsigned int)
FUNC 31c38 28 0 std::__ndk1::__tree<int, std::__ndk1::less<int>, std::__ndk1::allocator<int> >::destroy(std::__ndk1::__tree_node<int, void*>*)
FUNC 31c60 32 0 std::__ndk1::__tree<std::__ndk1::__value_type<std::__ndk1::basic_string<char, std::__ndk1::char_traits<char>, std::__ndk1::allocator<char> >, int>, std::__ndk1::__map_value_compare<std::__ndk1::basic_string<char, std::__ndk1::char_traits<char>, std::__ndk1::allocator<char> >, std::__ndk1::__value_type<std::__ndk1::basic_string<char, std::__ndk1::char_traits<char>, std::__ndk1::allocator<char> >, int>, std::__ndk1::less<std::__ndk1::basic_string<char, std::__ndk1::char_traits<char>, std::__ndk1::allocator<char> > >, true>, std::__ndk1::allocator<std::__ndk1::__value_type<std::__ndk1::basic_string<char, std::__ndk1::char_traits<char>, std::__ndk1::allocator<char> >, int> > >::destroy(std::__ndk1::__tree_node<std::__ndk1::__value_type<std::__ndk1::basic_string<char, std::__ndk1::char_traits<char>, std::__ndk1::allocator<char> >, int>, void*>*)
FUNC 31ca0 310 0 geode::modifier::ModifyDerive<DTEditLevelLayer, EditLevelLayer>::apply()
FUNC 31fb0 2 0 geode::modifier::ModifyBase<geode::modifier::ModifyDerive<DTEditLevelLayer, EditLevelLayer> >::apply()
FUNC 31fb4 324 0 geode::modifier::AsStaticFunction_init<DTEditLevelLayer, bool (DTEditLevelLayer::*)(GJGameLevel*)>::Impl<bool (DTEditLevelLayer::*)(GJGameLevel*)>::function(DTEditLevelLayer*, GJGameLevel*)
FUNC 322d8 2f4 0 __cxx_global_var_init
FUNC 325cc 20 0 geode::modifier::ModifyBase<geode::modifier::ModifyDerive<DTGJBaseGameLayer, GJBaseGameLayer> >::~ModifyBase()
FUNC 325ec 4c 0 __cxx_global_var_init.1
FUNC 32638 20 0 geode::modifier::ModifyBase<geode::modifier::ModifyDerive<DTPlayLayer, PlayLayer> >::~ModifyBase()
FUNC 32658 12c 0 geode::modifier::FieldIntermediate<DTPlayLayer, PlayLayer>::self()
FUNC 32784 22 0 geode::modifier::FieldIntermediate<DTPlayLayer, PlayLayer>::fieldDestructor(void*)
FUNC 327b0 31c 0 geode::modifier::ModifyDerive<DTGJBaseGameLayer, GJBaseGameLayer>::apply()
FUNC 32acc 2 0 geode::modifier::ModifyBase<geode::modifier::ModifyDerive<DTGJBaseGameLayer, GJBaseGameLayer> >::apply()
FUNC 32ad0 84 0 geode::addresser::getVirtual<void (GJBaseGameLayer::*)(CheckpointGameObject*)>(void (GJBaseGameLayer::*)(CheckpointGameObject*))
FUNC 32b54 32 0 geode::modifier::AsStaticFunction_checkpointActivated<DTGJBaseGameLayer, void (DTGJBaseGameLayer::*)(CheckpointGameObject*)>::Impl<void (DTGJBaseGameLayer::*)(CheckpointGameObject*)>::function(DTGJBaseGameLayer*, CheckpointGameObject*)
FUNC 32b88 60a 0 GJBaseGameLayer::GJBaseGameLayer(geode::ZeroConstructorType)
FUNC 33194 3e0 0 GJGameState::GJGameState()
FUNC 33574 3a 0 geode::stl::unordered_map<int, int, geode::stl::hash<int>, geode::stl::equal_to<int>, std::__ndk1::allocator<std::__ndk1::pair<int const, int> > >::~unordered_map()
FUNC 335ae 3a 0 geode::stl::unordered_set<int, geode::stl::hash<int>, geode::stl::equal_to<int>, std::__ndk1::allocator<int> >::~unordered_set()
FUNC 335e8 4c 0 geode::stl::unordered_map<int, gd::string, geode::stl::hash<int>, geode::stl::equal_to<int>, std::__ndk1::allocator<std::__ndk1::pair<int const, gd::string> > >::~unordered_map()
FUNC 33634 14 0 gd::map<std::__ndk1::pair<int, int>, int>::~map()
FUNC 33648 4e 0 geode::stl::unordered_map<int, gd::vector<LabelGameObject*>, geode::stl::hash<int>, geode::stl::equal_to<int>, std::__ndk1::allocator<std::__ndk1::pair<int const, gd::vector<LabelGameObject*> > > >::~unordered_map()
FUNC 33696 3a 0 geode::stl::unordered_map<int, std::__ndk1::pair<int, int>, geode::stl::hash<int>, geode::stl::equal_to<int>, std::__ndk1::allocator<std::__ndk1::pair<int const, std::__ndk1::pair<int, int> > > >::~unordered_map()
FUNC 336d0 4e 0 geode::stl::unordered_map<int, gd::vector<GameObject*>, geode::stl::hash<int>, geode::stl::equal_to<int>, std::__ndk1::allocator<std::__ndk1::pair<int const, gd::vector<GameObject*> > > >::~unordered_map()
FUNC 3371e 3a 0 geode::stl::unordered_map<int, cocos2d::CCPoint, geode::stl::hash<int>, geode::stl::equal_to<int>, std::__ndk1::allocator<std::__ndk1::pair<int const, cocos2d::CCPoint> > >::~unordered_map()
FUNC 33758 9a 0 gd::vector<geode::stl::unordered_map<int, int, geode::stl::hash<int>, geode::stl::equal_to<int>, std::__ndk1::allocator<std::__ndk1::pair<int const, int> > > >::~vector()
FUNC 337f2 33a 0 GJGameState::~GJGameState()
FUNC 33b2c 3a 0 geode::stl::unordered_map<int, SongChannelState, geode::stl::hash<int>, geode::stl::equal_to<int>, std::__ndk1::allocator<std::__ndk1::pair<int const, SongChannelState> > >::~unordered_map()
FUNC 33b66 14 0 gd::map<std::__ndk1::pair<int, int>, SFXTriggerInstance>::~map()
FUNC 33b7a 50 0 geode::stl::unordered_map<int, std::__ndk1::vector<int, std::__ndk1::allocator<int> >, geode::stl::hash<int>, geode::stl::equal_to<int>, std::__ndk1::allocator<std::__ndk1::pair<int const, std::__ndk1::vector<int, std::__ndk1::allocator<int> > > > >::~unordered_map()
FUNC 33bca 58 0 gd::vector<EnterEffectInstance>::~vector()
FUNC 33c22 34 0 geode::stl::unordered_map<int, std::__ndk1::vector<EnterEffectInstance, std::__ndk1::allocator<EnterEffectInstance> >, geode::stl::hash<int>, geode::stl::equal_to<int>, std::__ndk1::allocator<std::__ndk1::pair<int const, std::__ndk1::vector<EnterEffectInstance, std::__ndk1::allocator<EnterEffectInstance> > > > >::~unordered_map()
FUNC 33c56 14 0 gd::map<std::__ndk1::pair<GJGameEvent, int>, int>::~map()
FUNC 33c6a 14 0 gd::map<std::__ndk1::pair<GJGameEvent, int>, gd::vector<EventTriggerInstance> >::~map()
FUNC 33c7e 3a 0 geode::stl::unordered_map<int, EnhancedGameObject*, geode::stl::hash<int>, geode::stl::equal_to<int>, std::__ndk1::allocator<std::__ndk1::pair<int const, EnhancedGameObject*> > >::~unordered_map()
FUNC 33cb8 3a 0 geode::stl::unordered_map<int, GameObjectPhysics, geode::stl::hash<int>, geode::stl::equal_to<int>, std::__ndk1::allocator<std::__ndk1::pair<int const, GameObjectPhysics> > >::~unordered_map()
FUNC 33cf2 3a 0 geode::stl::unordered_map<int, GJValueTween, geode::stl::hash<int>, geode::stl::equal_to<int>, std::__ndk1::allocator<std::__ndk1::pair<int const, GJValueTween> > >::~unordered_map()
FUNC 33d2c 3a 0 geode::stl::unordered_map<int, bool, geode::stl::hash<int>, geode::stl::equal_to<int>, std::__ndk1::allocator<std::__ndk1::pair<int const, bool> > >::~unordered_map()
FUNC 33d68 11c 0 gd::map<std::__ndk1::pair<GJGameEvent, int>, gd::vector<EventTriggerInstance> >::map(std::__ndk1::map<std::__ndk1::pair<GJGameEvent, int>, gd::vector<EventTriggerInstance>, std::__ndk1::less<std::__ndk1::pair<GJGameEvent, int> >, std::__ndk1::allocator<std::__ndk1::pair<std::__ndk1::pair<GJGameEvent, int> const, gd::vector<EventTriggerInstance> > > >)
FUNC 33e84 19e 0 gd::map<std::__ndk1::pair<GJGameEvent, int>, gd::vector<EventTriggerInstance> >::insert_pair(std::__ndk1::pair<std::__ndk1::pair<GJGameEvent, int>, gd::vector<EventTriggerInstance> > const&)
FUNC 34022 40 0 std::__ndk1::pair<std::__ndk1::pair<GJGameEvent, int>, gd::vector<EventTriggerInstance> >::~pair()
FUNC 34062 40 0 std::__ndk1::pair<std::__ndk1::pair<GJGameEvent, int> const, gd::vector<EventTriggerInstance> >::~pair()
FUNC 340a2 10a 0 gd::vector<EventTriggerInstance>::vector(gd::vector<EventTriggerInstance> const&)
FUNC 341ac 17c 0 geode::stl::_rb_insert_rebalance(bool, geode::stl::_rb_tree_base*, geode::stl::_rb_tree_base*, geode::stl::_rb_tree_base&)
FUNC 34328 12e 0 gd::vector<EventTriggerInstance>::operator=(gd::vector<EventTriggerInstance> const&)
FUNC 34456 40 0 gd::vector<EventTriggerInstance>::~vector()
FUNC 34496 5c 0 std::__ndk1::__tree<std::__ndk1::__value_type<std::__ndk1::pair<GJGameEvent, int>, gd::vector<EventTriggerInstance> >, std::__ndk1::__map_value_compare<std::__ndk1::pair<GJGameEvent, int>, std::__ndk1::__value_type<std::__ndk1::pair<GJGameEvent, int>, gd::vector<EventTriggerInstance> >, std::__ndk1::less<std::__ndk1::pair<GJGameEvent, int> >, true>, std::__ndk1::allocator<std::__ndk1::__value_type<std::__ndk1::pair<GJGameEvent, int>, gd::vector<EventTriggerInstance> > > >::destroy(std::__ndk1::__tree_node<std::__ndk1::__value_type<std::__ndk1::pair<GJGameEvent, int>, gd::vector<EventTriggerInstance> >, void*>*)
FUNC 344f2 2c 0 gd::map<std::__ndk1::pair<int, int>, SFXTriggerInstance>::erase(geode::stl::_rb_tree_node<std::__ndk1::pair<std::__ndk1::pair<int, int>, SFXTriggerInstance> >*)
FUNC 3451e 2c 0 gd::map<int, EnterEffectAnimValue>::erase(geode::stl::_rb_tree_node<std::__ndk1::pair<int, EnterEffectAnimValue> >*)
FUNC 3454a 64 0 geode::stl::__detail::_Hashtable_alloc<std::__ndk1::allocator<geode::stl::__detail::_Hash_node<std::__ndk1::pair<int const, std::__ndk1::vector<EnterEffectInstance, std::__ndk1::allocator<EnterEffectInstance> > >, false> > >::_M_deallocate_nodes(geode::stl::__detail::_Hash_node<std::__ndk1::pair<int const, std::__ndk1::vector<EnterEffectInstance, std::__ndk1::allocator<EnterEffectInstance> > >, false>*)
FUNC 345ae 2c 0 gd::map<std::__ndk1::pair<GJGameEvent, int>, int>::erase(geode::stl::_rb_tree_node<std::__ndk1::pair<std::__ndk1::pair<GJGameEvent, int>, int> >*)
FUNC 345da 6e 0 gd::map<std::__ndk1::pair<GJGameEvent, int>, gd::vector<EventTriggerInstance> >::erase(geode::stl::_rb_tree_node<std::__ndk1::pair<std::__ndk1::pair<GJGameEvent, int>, gd::vector<EventTriggerInstance> > >*)
FUNC 34648 2c 0 gd::map<std::__ndk1::pair<int, int>, int>::erase(geode::stl::_rb_tree_node<std::__ndk1::pair<std::__ndk1::pair<int, int>, int> >*)
FUNC 34674 29c 0 geode::modifier::ModifyBase<geode::modifier::ModifyDerive<DTPlayLayer, PlayLayer> >::ModifyBase()
FUNC 34910 c68 0 geode::modifier::ModifyDerive<DTPlayLayer, PlayLayer>::apply()
FUNC 35578 2 0 geode::modifier::ModifyBase<geode::modifier::ModifyDerive<DTPlayLayer, PlayLayer> >::apply()
FUNC 3557a 44 0 geode::addresser::getVirtual<void (PlayLayer::*)(PlayerObject*, GameObject*)>(void (PlayLayer::*)(PlayerObject*, GameObject*))
FUNC 355c0 138 0 geode::Hook::create<void (*)(DTPlayLayer*, PlayerObject*, GameObject*)>(void*, void (*)(DTPlayLayer*, PlayerObject*, GameObject*), std::__ndk1::basic_string<char, std::__ndk1::char_traits<char>, std::__ndk1::allocator<char> > const&, tulip::hook::TulipConvention, tulip::hook::HookMetadata const&)
FUNC 356f8 4 0 geode::modifier::AsStaticFunction_destroyPlayer<DTPlayLayer, void (DTPlayLayer::*)(PlayerObject*, GameObject*)>::Impl<void (DTPlayLayer::*)(PlayerObject*, GameObject*)>::function(DTPlayLayer*, PlayerObject*, GameObject*)
FUNC 356fc 44 0 geode::addresser::getVirtual<void (PlayLayer::*)()>(void (PlayLayer::*)())
FUNC 35740 cc 0 geode::Hook::create<void (*)(DTPlayLayer*)>(void*, void (*)(DTPlayLayer*), std::__ndk1::basic_string<char, std::__ndk1::char_traits<char>, std::__ndk1::allocator<char> > const&, tulip::hook::TulipConvention, tulip::hook::HookMetadata const&)
FUNC 3580c 1a 0 geode::modifier::AsStaticFunction_removeAllCheckpoints<DTPlayLayer, void (DTPlayLayer::*)()>::Impl<void (DTPlayLayer::*)()>::function(DTPlayLayer*)
FUNC 35828 b0 0 geode::Hook::create<bool (*)(DTPlayLayer*, GJGameLevel*, bool, bool)>(void*, bool (*)(DTPlayLayer*, GJGameLevel*, bool, bool), std::__ndk1::basic_string<char, std::__ndk1::char_traits<char>, std::__ndk1::allocator<char> > const&, tulip::hook::TulipConvention, tulip::hook::HookMetadata const&)
FUNC 358d8 4 0 geode::modifier::AsStaticFunction_init<DTPlayLayer, bool (DTPlayLayer::*)(GJGameLevel*, bool, bool)>::Impl<bool (DTPlayLayer::*)(GJGameLevel*, bool, bool)>::function(DTPlayLayer*, GJGameLevel*, bool, bool)
FUNC 358dc 4 0 geode::modifier::AsStaticFunction_levelComplete<DTPlayLayer, void (DTPlayLayer::*)()>::Impl<void (DTPlayLayer::*)()>::function(DTPlayLayer*)
FUNC 358e0 4 0 geode::modifier::AsStaticFunction_onQuit<DTPlayLayer, void (DTPlayLayer::*)()>::Impl<void (DTPlayLayer::*)()>::function(DTPlayLayer*)
FUNC 358e4 4e 0 geode::modifier::AsStaticFunction_resetLevel<DTPlayLayer, void (DTPlayLayer::*)()>::Impl<void (DTPlayLayer::*)()>::function(DTPlayLayer*)
FUNC 35934 6c 0 _ZN5geode9addresser9Addresser14cachedInstanceI9PlayLayerEEPT_vQ18HasZeroConstructorIS4_E
FUNC 359a0 90 0 PlayLayer::PlayLayer(geode::ZeroConstructorType)
FUNC 35a30 606 0 GJBaseGameLayer::GJBaseGameLayer(geode::ZeroConstructorType, unsigned int)
FUNC 36040 260 0 tulip::hook::AbstractFunction::from<bool, DTPlayLayer*, GJGameLevel*, bool, bool>(bool (*)(DTPlayLayer*, GJGameLevel*, bool, bool))
FUNC 362a0 1e 0 DTLevelInfoLayer::openDTLayer(cocos2d::CCObject*)
FUNC 362c0 d8 0 DTLevelInfoLayer::checkIfPlayVisible(float)
FUNC 36398 2f4 0 __cxx_global_var_init
FUNC 3668c 20 0 geode::modifier::ModifyBase<geode::modifier::ModifyDerive<DTLevelInfoLayer, LevelInfoLayer> >::~ModifyBase()
FUNC 366ac 118 0 geode::modifier::FieldIntermediate<DTLevelInfoLayer, LevelInfoLayer>::self()
FUNC 367c4 2 0 geode::modifier::FieldIntermediate<DTLevelInfoLayer, LevelInfoLayer>::fieldDestructor(void*)
FUNC 367d0 340 0 geode::modifier::ModifyDerive<DTLevelInfoLayer, LevelInfoLayer>::apply()
FUNC 36b10 2 0 geode::modifier::ModifyBase<geode::modifier::ModifyDerive<DTLevelInfoLayer, LevelInfoLayer> >::apply()
FUNC 36b14 394 0 geode::modifier::AsStaticFunction_init<DTLevelInfoLayer, bool (DTLevelInfoLayer::*)(GJGameLevel*, bool)>::Impl<bool (DTLevelInfoLayer::*)(GJGameLevel*, bool)>::function(DTLevelInfoLayer*, GJGameLevel*, bool)
FUNC 36ea8 50 0 DTPauseLayer::onDTMiniMenuOpened(cocos2d::CCObject*)
FUNC 36ef8 2f4 0 __cxx_global_var_init.4
FUNC 371ec 20 0 geode::modifier::ModifyBase<geode::modifier::ModifyDerive<DTPauseLayer, PauseLayer> >::~ModifyBase()
FUNC 3720c 2d0 0 geode::modifier::ModifyDerive<DTPauseLayer, PauseLayer>::apply()
FUNC 374dc 2 0 geode::modifier::ModifyBase<geode::modifier::ModifyDerive<DTPauseLayer, PauseLayer> >::apply()
FUNC 374e0 7c 0 geode::addresser::getVirtual<void (PauseLayer::*)()>(void (PauseLayer::*)())
FUNC 3755c 160 0 geode::modifier::AsStaticFunction_customSetup<DTPauseLayer, void (DTPauseLayer::*)()>::Impl<void (DTPauseLayer::*)()>::function(DTPauseLayer*)
FUNC 376bc 78 0 PauseLayer::PauseLayer(geode::ZeroConstructorType)
FUNC 37734 380 0 DTPlayLayer::init(GJGameLevel*, bool, bool)
FUNC 37ab4 60 0 geode::impl::ResultData<std::__ndk1::basic_string<char, std::__ndk1::char_traits<char>, std::__ndk1::allocator<char> >, std::__ndk1::basic_string<char, std::__ndk1::char_traits<char>, std::__ndk1::allocator<char> > >::~ResultData()
FUNC 37b14 36c 0 DTPlayLayer::destroyPlayer(PlayerObject*, GameObject*)
FUNC 37e80 f0 0 std::__ndk1::vector<int, std::__ndk1::allocator<int> >::push_back[abi:ne180000](int const&)
FUNC 37f70 2f8 0 DTPlayLayer::levelComplete()
FUNC 38268 dc 0 DTPlayLayer::onQuit()
FUNC 38344 e 0 std::__ndk1::__variant_detail::__visitation::__base::__dispatcher<(unsigned int)0>::__dispatch[abi:ne180000]<std::__ndk1::__variant_detail::__dtor<std::__ndk1::__variant_detail::__traits<std::__ndk1::basic_string<char, std::__ndk1::char_traits<char>, std::__ndk1::allocator<char> >, std::__ndk1::allocator<char> >, (std::__ndk1::__variant_detail::_Trait)1>::__destroy[abi:ne180000]()::{lambda(auto:1&)#1}, std::__ndk1::__variant_detail::__base<(std::__ndk1::__variant_detail::__traits<std::__ndk1::basic_string<char, std::__ndk1::char_traits<char>, std::__ndk1::allocator<char> >, std::__ndk1::allocator<char> >)1, std::__ndk1::allocator<char>, std::__ndk1::allocator<char> >&>(std::__ndk1::__variant_detail::__dtor<std::__ndk1::__variant_detail::__traits<std::__ndk1::basic_string<char, std::__ndk1::char_traits<char>, std::__ndk1::allocator<char> >, std::__ndk1::allocator<char> >, (std::__ndk1::__variant_detail::_Trait)1>, std::__ndk1::__variant_detail::__base<(std::__ndk1::__variant_detail::__traits<std::__ndk1::basic_string<char, std::__ndk1::char_traits<char>, std::__ndk1::allocator<char> >, std::__ndk1::allocator<char> >)1, std::__ndk1::allocator<char>, std::__ndk1::allocator<char> >&)
FUNC 38352 e 0 std::__ndk1::__variant_detail::__visitation::__base::__dispatcher<(unsigned int)1>::__dispatch[abi:ne180000]<std::__ndk1::__variant_detail::__dtor<std::__ndk1::__variant_detail::__traits<std::__ndk1::basic_string<char, std::__ndk1::char_traits<char>, std::__ndk1::allocator<char> >, std::__ndk1::allocator<char> >, (std::__ndk1::__variant_detail::_Trait)1>::__destroy[abi:ne180000]()::{lambda(auto:1&)#1}, std::__ndk1::__variant_detail::__base<(std::__ndk1::__variant_detail::__traits<std::__ndk1::basic_string<char, std::__ndk1::char_traits<char>, std::__ndk1::allocator<char> >, std::__ndk1::allocator<char> >)1, std::__ndk1::allocator<char>, std::__ndk1::allocator<char> >&>(std::__ndk1::__variant_detail::__dtor<std::__ndk1::__variant_detail::__traits<std::__ndk1::basic_string<char, std::__ndk1::char_traits<char>, std::__ndk1::allocator<char> >, std::__ndk1::allocator<char> >, (std::__ndk1::__variant_detail::_Trait)1>, std::__ndk1::__variant_detail::__base<(std::__ndk1::__variant_detail::__traits<std::__ndk1::basic_string<char, std::__ndk1::char_traits<char>, std::__ndk1::allocator<char> >, std::__ndk1::allocator<char> >)1, std::__ndk1::allocator<char>, std::__ndk1::allocator<char> >&)
FUNC 38360 10 0 std::__ndk1::vector<int, std::__ndk1::allocator<int> >::__throw_length_error[abi:ne180000]() const
FUNC 38370 10 0 std::__ndk1::vector<Run_s, std::__ndk1::allocator<Run_s> >::__throw_length_error[abi:ne180000]() const
FUNC 38380 1ac 0 ChooseRunCell::init(int const&, std::__ndk1::function<void (int const&)> const&)
FUNC 3852c 16 0 ChooseRunCell::ChooseMe(cocos2d::CCObject*)
FUNC 38544 3c 0 ChooseRunCell::~ChooseRunCell()
FUNC 38580 40 0 ChooseRunCell::~ChooseRunCell()
FUNC 385c0 cc 0 std::__ndk1::__function::__value_func<void (int const&)>::swap[abi:ne180000](std::__ndk1::__function::__value_func<void (int const&)>&)
FUNC 38690 ac 0 DTExportImportLayer::create(DTLayer* const&)
FUNC 3873c 128 0 DTExportImportLayer::DTExportImportLayer()
FUNC 38870 654 0 DTExportImportLayer::setup(DTLayer* const&)
FUNC 38ec4 40 0 DTExportImportLayer::onExportWithLabelsClicked(cocos2d::CCObject*)
FUNC 38f04 5f8 0 DTExportImportLayer::onExportClicked(cocos2d::CCObject*)
FUNC 394fc 134 0 DTExportImportLayer::onOpenExportsFolderClicked(cocos2d::CCObject*)
FUNC 39630 4e8 0 DTExportImportLayer::onImportClicked(cocos2d::CCObject*)
FUNC 39b18 a4 0 DTExportImportLayer::onExportInfo(cocos2d::CCObject*)
FUNC 39bbc a4 0 DTExportImportLayer::onImportInfo(cocos2d::CCObject*)
FUNC 39c60 76 0 std::__ndk1::optional<std::__ndk1::__fs::filesystem::path>::operator=[abi:ne180000]<std::__ndk1::__fs::filesystem::path&, void>(std::__ndk1::__fs::filesystem::path&)
FUNC 39cd6 4a 0 geode::utils::file::FilePickOptions::Filter::~Filter()
FUNC 39d20 3a 0 geode::Task<geode::Result<std::__ndk1::__fs::filesystem::path, std::__ndk1::basic_string<char, std::__ndk1::char_traits<char>, std::__ndk1::allocator<char> > >, std::__ndk1::monostate>::~Task()
FUNC 39d5a 1a 0 std::__ndk1::vector<geode::utils::file::FilePickOptions::Filter, std::__ndk1::allocator<geode::utils::file::FilePickOptions::Filter> >::~vector[abi:ne180000]()
FUNC 39d74 30 0 geode::utils::file::FilePickOptions::~FilePickOptions()
FUNC 39da4 60 0 geode::impl::ResultData<void, std::__ndk1::basic_string<char, std::__ndk1::char_traits<char>, std::__ndk1::allocator<char> > >::~ResultData()
FUNC 39e04 17c 0 geode::utils::numFromString<int>(std::__ndk1::basic_string_view<char, std::__ndk1::char_traits<char> >, int)
FUNC 39f80 60 0 geode::impl::ResultData<int, std::__ndk1::basic_string<char, std::__ndk1::char_traits<char>, std::__ndk1::allocator<char> > >::~ResultData()
FUNC 39fe0 10c 0 DTExportImportLayer::~DTExportImportLayer()
FUNC 3a0ec 10 0 DTExportImportLayer::~DTExportImportLayer()
FUNC 3a0fc 20 0 geode::Popup<DTLayer* const&>::registerWithTouchDispatcher()
FUNC 3a11c 18 0 geode::Popup<DTLayer* const&>::keyDown(cocos2d::enumKeyCodes)
FUNC 3a134 e4 0 geode::Popup<DTLayer* const&>::onClose(cocos2d::CCObject*)
FUNC 3a218 8 0 {virtual override thunk({offset(-264)}, DTExportImportLayer::~DTExportImportLayer())}
FUNC 3a220 14 0 {virtual override thunk({offset(-264)}, DTExportImportLayer::~DTExportImportLayer())}
FUNC 3a234 1c 0 {virtual override thunk({offset(-276)}, geode::Popup<DTLayer* const&>::keyDown(cocos2d::enumKeyCodes))}
FUNC 3a250 5c 0 geode::Popup<DTLayer* const&>::~Popup()
FUNC 3a2ac 2 0 geode::Popup<DTLayer* const&>::~Popup()
FUNC 3a2b0 60 0 {virtual override thunk({offset(-264)}, geode::Popup<DTLayer* const&>::~Popup())}
FUNC 3a310 2 0 {virtual override thunk({offset(-264)}, geode::Popup<DTLayer* const&>::~Popup())}
FUNC 3a314 168 0 geode::Task<geode::Result<std::__ndk1::__fs::filesystem::path, std::__ndk1::basic_string<char, std::__ndk1::char_traits<char>, std::__ndk1::allocator<char> > >, std::__ndk1::monostate>::setListener(geode::EventListenerProtocol*)
FUNC 3a47c 4 0 geode::EventListener<geode::Task<geode::Result<std::__ndk1::__fs::filesystem::path, std::__ndk1::basic_string<char, std::__ndk1::char_traits<char>, std::__ndk1::allocator<char> > >, std::__ndk1::monostate> >::getPool() const
FUNC 3a480 e8 0 geode::EventListener<geode::Task<geode::Result<std::__ndk1::__fs::filesystem::path, std::__ndk1::basic_string<char, std::__ndk1::char_traits<char>, std::__ndk1::allocator<char> > >, std::__ndk1::monostate> >::handle(geode::Event*)
FUNC 3a568 68 0 geode::EventListener<geode::Task<geode::Result<std::__ndk1::__fs::filesystem::path, std::__ndk1::basic_string<char, std::__ndk1::char_traits<char>, std::__ndk1::allocator<char> > >, std::__ndk1::monostate> >::~EventListener()
FUNC 3a5d0 6c 0 geode::EventListener<geode::Task<geode::Result<std::__ndk1::__fs::filesystem::path, std::__ndk1::basic_string<char, std::__ndk1::char_traits<char>, std::__ndk1::allocator<char> > >, std::__ndk1::monostate> >::~EventListener()
FUNC 3a63c 3a 0 geode::Task<geode::Result<std::__ndk1::__fs::filesystem::path, std::__ndk1::basic_string<char, std::__ndk1::char_traits<char>, std::__ndk1::allocator<char> > >, std::__ndk1::monostate>::setListener(geode::EventListenerProtocol*)::{lambda()#1}::~{lambda()#1}()
FUNC 3a676 3a 0 geode::Task<geode::Result<std::__ndk1::__fs::filesystem::path, std::__ndk1::basic_string<char, std::__ndk1::char_traits<char>, std::__ndk1::allocator<char> > >, std::__ndk1::monostate>::setListener(geode::EventListenerProtocol*)::{lambda()#2}::~{lambda()#2}()
FUNC 3a6b0 48 0 std::__ndk1::__function::__func<geode::Task<geode::Result<std::__ndk1::__fs::filesystem::path, std::__ndk1::basic_string<char, std::__ndk1::char_traits<char>, std::__ndk1::allocator<char> > >, std::__ndk1::monostate>::setListener(geode::EventListenerProtocol*)::{lambda()#1}, std::__ndk1::allocator<geode::Task<geode::Result<std::__ndk1::__fs::filesystem::path, std::__ndk1::basic_string<char, std::__ndk1::char_traits<char>, std::__ndk1::allocator<char> > >, std::__ndk1::monostate>::setListener(geode::EventListenerProtocol*)::{lambda()#1}>, void ()>::~__func()
FUNC 3a6f8 54 0 std::__ndk1::__function::__func<geode::Task<geode::Result<std::__ndk1::__fs::filesystem::path, std::__ndk1::basic_string<char, std::__ndk1::char_traits<char>, std::__ndk1::allocator<char> > >, std::__ndk1::monostate>::setListener(geode::EventListenerProtocol*)::{lambda()#1}, std::__ndk1::allocator<geode::Task<geode::Result<std::__ndk1::__fs::filesystem::path, std::__ndk1::basic_string<char, std::__ndk1::char_traits<char>, std::__ndk1::allocator<char> > >, std::__ndk1::monostate>::setListener(geode::EventListenerProtocol*)::{lambda()#1}>, void ()>::~__func()
FUNC 3a74c 40 0 std::__ndk1::__function::__func<geode::Task<geode::Result<std::__ndk1::__fs::filesystem::path, std::__ndk1::basic_string<char, std::__ndk1::char_traits<char>, std::__ndk1::allocator<char> > >, std::__ndk1::monostate>::setListener(geode::EventListenerProtocol*)::{lambda()#1}, std::__ndk1::allocator<geode::Task<geode::Result<std::__ndk1::__fs::filesystem::path, std::__ndk1::basic_string<char, std::__ndk1::char_traits<char>, std::__ndk1::allocator<char> > >, std::__ndk1::monostate>::setListener(geode::EventListenerProtocol*)::{lambda()#1}>, void ()>::__clone() const
FUNC 3a78c 34 0 std::__ndk1::__function::__func<geode::Task<geode::Result<std::__ndk1::__fs::filesystem::path, std::__ndk1::basic_string<char, std::__ndk1::char_traits<char>, std::__ndk1::allocator<char> > >, std::__ndk1::monostate>::setListener(geode::EventListenerProtocol*)::{lambda()#1}, std::__ndk1::allocator<geode::Task<geode::Result<std::__ndk1::__fs::filesystem::path, std::__ndk1::basic_string<char, std::__ndk1::char_traits<char>, std::__ndk1::allocator<char> > >, std::__ndk1::monostate>::setListener(geode::EventListenerProtocol*)::{lambda()#1}>, void ()>::__clone(std::__ndk1::__function::__base<void ()>*) const
FUNC 3a7c0 3a 0 std::__ndk1::__function::__func<geode::Task<geode::Result<std::__ndk1::__fs::filesystem::path, std::__ndk1::basic_string<char, std::__ndk1::char_traits<char>, std::__ndk1::allocator<char> > >, std::__ndk1::monostate>::setListener(geode::EventListenerProtocol*)::{lambda()#1}, std::__ndk1::allocator<geode::Task<geode::Result<std::__ndk1::__fs::filesystem::path, std::__ndk1::basic_string<char, std::__ndk1::char_traits<char>, std::__ndk1::allocator<char> > >, std::__ndk1::monostate>::setListener(geode::EventListenerProtocol*)::{lambda()#1}>, void ()>::destroy()
FUNC 3a7fa 44 0 std::__ndk1::__function::__func<geode::Task<geode::Result<std::__ndk1::__fs::filesystem::path, std::__ndk1::basic_string<char, std::__ndk1::char_traits<char>, std::__ndk1::allocator<char> > >, std::__ndk1::monostate>::setListener(geode::EventListenerProtocol*)::{lambda()#1}, std::__ndk1::allocator<geode::Task<geode::Result<std::__ndk1::__fs::filesystem::path, std::__ndk1::basic_string<char, std::__ndk1::char_traits<char>, std::__ndk1::allocator<char> > >, std::__ndk1::monostate>::setListener(geode::EventListenerProtocol*)::{lambda()#1}>, void ()>::destroy_deallocate()
FUNC 3a840 150 0 std::__ndk1::__function::__func<geode::Task<geode::Result<std::__ndk1::__fs::filesystem::path, std::__ndk1::basic_string<char, std::__ndk1::char_traits<char>, std::__ndk1::allocator<char> > >, std::__ndk1::monostate>::setListener(geode::EventListenerProtocol*)::{lambda()#1}, std::__ndk1::allocator<geode::Task<geode::Result<std::__ndk1::__fs::filesystem::path, std::__ndk1::basic_string<char, std::__ndk1::char_traits<char>, std::__ndk1::allocator<char> > >, std::__ndk1::monostate>::setListener(geode::EventListenerProtocol*)::{lambda()#1}>, void ()>::operator()()
FUNC 3a990 18 0 std::__ndk1::__function::__func<geode::Task<geode::Result<std::__ndk1::__fs::filesystem::path, std::__ndk1::basic_string<char, std::__ndk1::char_traits<char>, std::__ndk1::allocator<char> > >, std::__ndk1::monostate>::setListener(geode::EventListenerProtocol*)::{lambda()#1}, std::__ndk1::allocator<geode::Task<geode::Result<std::__ndk1::__fs::filesystem::path, std::__ndk1::basic_string<char, std::__ndk1::char_traits<char>, std::__ndk1::allocator<char> > >, std::__ndk1::monostate>::setListener(geode::EventListenerProtocol*)::{lambda()#1}>, void ()>::target(std::type_info const&) const
FUNC 3a9a8 c 0 std::__ndk1::__function::__func<geode::Task<geode::Result<std::__ndk1::__fs::filesystem::path, std::__ndk1::basic_string<char, std::__ndk1::char_traits<char>, std::__ndk1::allocator<char> > >, std::__ndk1::monostate>::setListener(geode::EventListenerProtocol*)::{lambda()#1}, std::__ndk1::allocator<geode::Task<geode::Result<std::__ndk1::__fs::filesystem::path, std::__ndk1::basic_string<char, std::__ndk1::char_traits<char>, std::__ndk1::allocator<char> > >, std::__ndk1::monostate>::setListener(geode::EventListenerProtocol*)::{lambda()#1}>, void ()>::target_type() const
FUNC 3a9b4 44 0 geode::Task<geode::Result<std::__ndk1::__fs::filesystem::path, std::__ndk1::basic_string<char, std::__ndk1::char_traits<char>, std::__ndk1::allocator<char> > >, std::__ndk1::monostate>::Event::~Event()
FUNC 3a9f8 40 0 geode::Task<geode::Result<std::__ndk1::__fs::filesystem::path, std::__ndk1::basic_string<char, std::__ndk1::char_traits<char>, std::__ndk1::allocator<char> > >, std::__ndk1::monostate>::Event::~Event()
FUNC 3aa38 48 0 std::__ndk1::__function::__func<geode::Task<geode::Result<std::__ndk1::__fs::filesystem::path, std::__ndk1::basic_string<char, std::__ndk1::char_traits<char>, std::__ndk1::allocator<char> > >, std::__ndk1::monostate>::setListener(geode::EventListenerProtocol*)::{lambda()#2}, std::__ndk1::allocator<geode::Task<geode::Result<std::__ndk1::__fs::filesystem::path, std::__ndk1::basic_string<char, std::__ndk1::char_traits<char>, std::__ndk1::allocator<char> > >, std::__ndk1::monostate>::setListener(geode::EventListenerProtocol*)::{lambda()#2}>, void ()>::~__func()
FUNC 3aa80 54 0 std::__ndk1::__function::__func<geode::Task<geode::Result<std::__ndk1::__fs::filesystem::path, std::__ndk1::basic_string<char, std::__ndk1::char_traits<char>, std::__ndk1::allocator<char> > >, std::__ndk1::monostate>::setListener(geode::EventListenerProtocol*)::{lambda()#2}, std::__ndk1::allocator<geode::Task<geode::Result<std::__ndk1::__fs::filesystem::path, std::__ndk1::basic_string<char, std::__ndk1::char_traits<char>, std::__ndk1::allocator<char> > >, std::__ndk1::monostate>::setListener(geode::EventListenerProtocol*)::{lambda()#2}>, void ()>::~__func()
FUNC 3aad4 3c 0 std::__ndk1::__function::__func<geode::Task<geode::Result<std::__ndk1::__fs::filesystem::path, std::__ndk1::basic_string<char, std::__ndk1::char_traits<char>, std::__ndk1::allocator<char> > >, std::__ndk1::monostate>::setListener(geode::EventListenerProtocol*)::{lambda()#2}, std::__ndk1::allocator<geode::Task<geode::Result<std::__ndk1::__fs::filesystem::path, std::__ndk1::basic_string<char, std::__ndk1::char_traits<char>, std::__ndk1::allocator<char> > >, std::__ndk1::monostate>::setListener(geode::EventListenerProtocol*)::{lambda()#2}>, void ()>::__clone() const
FUNC 3ab10 30 0 std::__ndk1::__function::__func<geode::Task<geode::Result<std::__ndk1::__fs::filesystem::path, std::__ndk1::basic_string<char, std::__ndk1::char_traits<char>, std::__ndk1::allocator<char> > >, std::__ndk1::monostate>::setListener(geode::EventListenerProtocol*)::{lambda()#2}, std::__ndk1::allocator<geode::Task<geode::Result<std::__ndk1::__fs::filesystem::path, std::__ndk1::basic_string<char, std::__ndk1::char_traits<char>, std::__ndk1::allocator<char> > >, std::__ndk1::monostate>::setListener(geode::EventListenerProtocol*)::{lambda()#2}>, void ()>::__clone(std::__ndk1::__function::__base<void ()>*) const
FUNC 3ab40 3a 0 std::__ndk1::__function::__func<geode::Task<geode::Result<std::__ndk1::__fs::filesystem::path, std::__ndk1::basic_string<char, std::__ndk1::char_traits<char>, std::__ndk1::allocator<char> > >, std::__ndk1::monostate>::setListener(geode::EventListenerProtocol*)::{lambda()#2}, std::__ndk1::allocator<geode::Task<geode::Result<std::__ndk1::__fs::filesystem::path, std::__ndk1::basic_string<char, std::__ndk1::char_traits<char>, std::__ndk1::allocator<char> > >, std::__ndk1::monostate>::setListener(geode::EventListenerProtocol*)::{lambda()#2}>, void ()>::destroy()
FUNC 3ab7a 44 0 std::__ndk1::__function::__func<geode::Task<geode::Result<std::__ndk1::__fs::filesystem::path, std::__ndk1::basic_string<char, std::__ndk1::char_traits<char>, std::__ndk1::allocator<char> > >, std::__ndk1::monostate>::setListener(geode::EventListenerProtocol*)::{lambda()#2}, std::__ndk1::allocator<geode::Task<geode::Result<std::__ndk1::__fs::filesystem::path, std::__ndk1::basic_string<char, std::__ndk1::char_traits<char>, std::__ndk1::allocator<char> > >, std::__ndk1::monostate>::setListener(geode::EventListenerProtocol*)::{lambda()#2}>, void ()>::destroy_deallocate()
FUNC 3abc0 150 0 std::__ndk1::__function::__func<geode::Task<geode::Result<std::__ndk1::__fs::filesystem::path, std::__ndk1::basic_string<char, std::__ndk1::char_traits<char>, std::__ndk1::allocator<char> > >, std::__ndk1::monostate>::setListener(geode::EventListenerProtocol*)::{lambda()#2}, std::__ndk1::allocator<geode::Task<geode::Result<std::__ndk1::__fs::filesystem::path, std::__ndk1::basic_string<char, std::__ndk1::char_traits<char>, std::__ndk1::allocator<char> > >, std::__ndk1::monostate>::setListener(geode::EventListenerProtocol*)::{lambda()#2}>, void ()>::operator()()
FUNC 3ad10 18 0 std::__ndk1::__function::__func<geode::Task<geode::Result<std::__ndk1::__fs::filesystem::path, std::__ndk1::basic_string<char, std::__ndk1::char_traits<char>, std::__ndk1::allocator<char> > >, std::__ndk1::monostate>::setListener(geode::EventListenerProtocol*)::{lambda()#2}, std::__ndk1::allocator<geode::Task<geode::Result<std::__ndk1::__fs::filesystem::path, std::__ndk1::basic_string<char, std::__ndk1::char_traits<char>, std::__ndk1::allocator<char> > >, std::__ndk1::monostate>::setListener(geode::EventListenerProtocol*)::{lambda()#2}>, void ()>::target(std::type_info const&) const
FUNC 3ad28 c 0 std::__ndk1::__function::__func<geode::Task<geode::Result<std::__ndk1::__fs::filesystem::path, std::__ndk1::basic_string<char, std::__ndk1::char_traits<char>, std::__ndk1::allocator<char> > >, std::__ndk1::monostate>::setListener(geode::EventListenerProtocol*)::{lambda()#2}, std::__ndk1::allocator<geode::Task<geode::Result<std::__ndk1::__fs::filesystem::path, std::__ndk1::basic_string<char, std::__ndk1::char_traits<char>, std::__ndk1::allocator<char> > >, std::__ndk1::monostate>::setListener(geode::EventListenerProtocol*)::{lambda()#2}>, void ()>::target_type() const
FUNC 3ad34 8c 0 geode::cast::traverseTypeinfoFor(void*, geode::cast::ClassTypeinfoType const*, char const*)
FUNC 3adc0 34 0 std::__ndk1::__throw_bad_function_call[abi:ne180000]()
FUNC 3adf4 10 0 std::__ndk1::bad_function_call::~bad_function_call()
FUNC 3ae04 ac 0 std::__ndk1::__fs::filesystem::path::operator/=[abi:ne180000](std::__ndk1::__fs::filesystem::path const&)
FUNC 3aeb0 66 0 std::__ndk1::basic_string<char, std::__ndk1::char_traits<char>, std::__ndk1::allocator<char> >::__assign_no_alias<true>(char const*, unsigned int)
FUNC 3af16 a6 0 std::__ndk1::basic_string<char, std::__ndk1::char_traits<char>, std::__ndk1::allocator<char> >::__assign_no_alias<false>(char const*, unsigned int)
FUNC 3afbc 490 0 std::__ndk1::unordered_set<std::__ndk1::basic_string<char, std::__ndk1::char_traits<char>, std::__ndk1::allocator<char> >, std::__ndk1::hash<std::__ndk1::basic_string<char, std::__ndk1::char_traits<char>, std::__ndk1::allocator<char> > >, std::__ndk1::equal_to<std::__ndk1::basic_string<char, std::__ndk1::char_traits<char>, std::__ndk1::allocator<char> > >, std::__ndk1::allocator<std::__ndk1::basic_string<char, std::__ndk1::char_traits<char>, std::__ndk1::allocator<char> > > >::unordered_set(std::__ndk1::unordered_set<std::__ndk1::basic_string<char, std::__ndk1::char_traits<char>, std::__ndk1::allocator<char> >, std::__ndk1::hash<std::__ndk1::basic_string<char, std::__ndk1::char_traits<char>, std::__ndk1::allocator<char> > >, std::__ndk1::equal_to<std::__ndk1::basic_string<char, std::__ndk1::char_traits<char>, std::__ndk1::allocator<char> > >, std::__ndk1::allocator<std::__ndk1::basic_string<char, std::__ndk1::char_traits<char>, std::__ndk1::allocator<char> > > > const&)
FUNC 3b44c 3e 0 std::__ndk1::__hash_table<std::__ndk1::basic_string<char, std::__ndk1::char_traits<char>, std::__ndk1::allocator<char> >, std::__ndk1::hash<std::__ndk1::basic_string<char, std::__ndk1::char_traits<char>, std::__ndk1::allocator<char> > >, std::__ndk1::equal_to<std::__ndk1::basic_string<char, std::__ndk1::char_traits<char>, std::__ndk1::allocator<char> > >, std::__ndk1::allocator<std::__ndk1::basic_string<char, std::__ndk1::char_traits<char>, std::__ndk1::allocator<char> > > >::~__hash_table()
FUNC 3b48a 10c 0 std::__ndk1::__hash_table<std::__ndk1::basic_string<char, std::__ndk1::char_traits<char>, std::__ndk1::allocator<char> >, std::__ndk1::hash<std::__ndk1::basic_string<char, std::__ndk1::char_traits<char>, std::__ndk1::allocator<char> > >, std::__ndk1::equal_to<std::__ndk1::basic_string<char, std::__ndk1::char_traits<char>, std::__ndk1::allocator<char> > >, std::__ndk1::allocator<std::__ndk1::basic_string<char, std::__ndk1::char_traits<char>, std::__ndk1::allocator<char> > > >::__do_rehash<true>(unsigned int)
FUNC 3b596 3a 0 std::__ndk1::unique_ptr<std::__ndk1::__hash_node<std::__ndk1::basic_string<char, std::__ndk1::char_traits<char>, std::__ndk1::allocator<char> >, void*>, std::__ndk1::__hash_node_destructor<std::__ndk1::allocator<std::__ndk1::__hash_node<std::__ndk1::basic_string<char, std::__ndk1::char_traits<char>, std::__ndk1::allocator<char> >, void*> > > >::~unique_ptr[abi:ne180000]()
FUNC 3b5d0 22 0 std::__ndk1::__hash_table<std::__ndk1::basic_string<char, std::__ndk1::char_traits<char>, std::__ndk1::allocator<char> >, std::__ndk1::hash<std::__ndk1::basic_string<char, std::__ndk1::char_traits<char>, std::__ndk1::allocator<char> > >, std::__ndk1::equal_to<std::__ndk1::basic_string<char, std::__ndk1::char_traits<char>, std::__ndk1::allocator<char> > >, std::__ndk1::allocator<std::__ndk1::basic_string<char, std::__ndk1::char_traits<char>, std::__ndk1::allocator<char> > > >::__deallocate_node(std::__ndk1::__hash_node_base<std::__ndk1::__hash_node<std::__ndk1::basic_string<char, std::__ndk1::char_traits<char>, std::__ndk1::allocator<char> >, void*>*>*)
FUNC 3b5f2 2c 0 std::__ndk1::__exception_guard_exceptions<std::__ndk1::vector<geode::utils::file::FilePickOptions::Filter, std::__ndk1::allocator<geode::utils::file::FilePickOptions::Filter> >::__destroy_vector>::~__exception_guard_exceptions[abi:ne180000]()
FUNC 3b620 10 0 std::__ndk1::vector<geode::utils::file::FilePickOptions::Filter, std::__ndk1::allocator<geode::utils::file::FilePickOptions::Filter> >::__throw_length_error[abi:ne180000]() const
FUNC 3b630 a8 0 std::__ndk1::__uninitialized_allocator_copy_impl[abi:ne180000]<std::__ndk1::allocator<geode::utils::file::FilePickOptions::Filter>, geode::utils::file::FilePickOptions const*, geode::utils::file::FilePickOptions const, geode::utils::file::FilePickOptions*>(std::__ndk1::allocator<geode::utils::file::FilePickOptions::Filter>&, geode::utils::file::FilePickOptions const*, geode::utils::file::FilePickOptions const, geode::utils::file::FilePickOptions*)
FUNC 3b6d8 76 0 std::__ndk1::__exception_guard_exceptions<std::__ndk1::_AllocatorDestroyRangeReverse<std::__ndk1::allocator<geode::utils::file::FilePickOptions::Filter>, geode::utils::file::FilePickOptions::Filter*> >::~__exception_guard_exceptions[abi:ne180000]()
FUNC 3b74e 6e 0 std::__ndk1::vector<geode::utils::file::FilePickOptions::Filter, std::__ndk1::allocator<geode::utils::file::FilePickOptions::Filter> >::__base_destruct_at_end[abi:ne180000](geode::utils::file::FilePickOptions::Filter*)
FUNC 3b7bc 114 0 std::__ndk1::vector<geode::utils::file::FilePickOptions::Filter, std::__ndk1::allocator<geode::utils::file::FilePickOptions::Filter> >::__assign_with_size[abi:ne180000]<geode::utils::file::FilePickOptions::Filter*, std::__ndk1::vector<geode::utils::file::FilePickOptions::Filter, std::__ndk1::allocator<geode::utils::file::FilePickOptions::Filter> >::__assign_with_size[abi:ne180000]>(geode::utils::file::FilePickOptions::Filter*, std::__ndk1::vector<geode::utils::file::FilePickOptions::Filter, std::__ndk1::allocator<geode::utils::file::FilePickOptions::Filter> >::__assign_with_size[abi:ne180000], int)
FUNC 3b8d0 a8 0 std::__ndk1::__uninitialized_allocator_copy_impl[abi:ne180000]<std::__ndk1::allocator<geode::utils::file::FilePickOptions::Filter>, geode::utils::file::FilePickOptions*, std::__ndk1::allocator<geode::utils::file::FilePickOptions::Filter>, std::__ndk1::allocator<geode::utils::file::FilePickOptions::Filter> >(std::__ndk1::allocator<geode::utils::file::FilePickOptions::Filter>&, geode::utils::file::FilePickOptions*, std::__ndk1::allocator<geode::utils::file::FilePickOptions::Filter>, geode::utils::file::FilePickOptions*)
FUNC 3b978 238 0 _ZNSt6__ndk121__unwrap_and_dispatchB8ne180000INS_10__overloadINS_11__copy_loopINS_17_ClassicAlgPolicyEEENS_14__copy_trivialEEEPN5geode5utils4file15FilePickOptions6FilterESC_SC_TnNS_9enable_ifIXsr12__can_rewrapIT0_T1_T2_EE5valueEiE4typeELi0EEENS_4pairISE_SG_EESE_SF_SG_
FUNC 3bbb0 58c 0 std::__ndk1::__hash_table<std::__ndk1::basic_string<char, std::__ndk1::char_traits<char>, std::__ndk1::allocator<char> >, std::__ndk1::hash<std::__ndk1::basic_string<char, std::__ndk1::char_traits<char>, std::__ndk1::allocator<char> > >, std::__ndk1::equal_to<std::__ndk1::basic_string<char, std::__ndk1::char_traits<char>, std::__ndk1::allocator<char> > >, std::__ndk1::allocator<std::__ndk1::basic_string<char, std::__ndk1::char_traits<char>, std::__ndk1::allocator<char> > > >::__node_insert_multi(std::__ndk1::__hash_node<std::__ndk1::basic_string<char, std::__ndk1::char_traits<char>, std::__ndk1::allocator<char> >, void*>*)
FUNC 3c13c 2 0 std::__ndk1::__variant_detail::__visitation::__base::__dispatcher<(unsigned int)0>::__dispatch[abi:ne180000]<std::__ndk1::__variant_detail::__dtor<std::__ndk1::__variant_detail::__traits<std::__ndk1::monostate, std::__ndk1::basic_string<char, std::__ndk1::char_traits<char>, std::__ndk1::allocator<char> > >, (std::__ndk1::__variant_detail::_Trait)1>::__destroy[abi:ne180000]()::{lambda(auto:1&)#1}, std::__ndk1::__variant_detail::__base<(std::__ndk1::__variant_detail::__traits<std::__ndk1::monostate, std::__ndk1::basic_string<char, std::__ndk1::char_traits<char>, std::__ndk1::allocator<char> > >)1, std::__ndk1::__variant_detail::__traits, std::__ndk1::allocator<char> >&>(std::__ndk1::__variant_detail::__dtor<std::__ndk1::__variant_detail::__traits<std::__ndk1::monostate, std::__ndk1::basic_string<char, std::__ndk1::char_traits<char>, std::__ndk1::allocator<char> > >, (std::__ndk1::__variant_detail::_Trait)1>, std::__ndk1::__variant_detail::__base<(std::__ndk1::__variant_detail::__traits<std::__ndk1::monostate, std::__ndk1::basic_string<char, std::__ndk1::char_traits<char>, std::__ndk1::allocator<char> > >)1, std::__ndk1::__variant_detail::__traits, std::__ndk1::allocator<char> >&)
FUNC 3c13e e 0 std::__ndk1::__variant_detail::__visitation::__base::__dispatcher<(unsigned int)1>::__dispatch[abi:ne180000]<std::__ndk1::__variant_detail::__dtor<std::__ndk1::__variant_detail::__traits<std::__ndk1::monostate, std::__ndk1::basic_string<char, std::__ndk1::char_traits<char>, std::__ndk1::allocator<char> > >, (std::__ndk1::__variant_detail::_Trait)1>::__destroy[abi:ne180000]()::{lambda(auto:1&)#1}, std::__ndk1::__variant_detail::__base<(std::__ndk1::__variant_detail::__traits<std::__ndk1::monostate, std::__ndk1::basic_string<char, std::__ndk1::char_traits<char>, std::__ndk1::allocator<char> > >)1, std::__ndk1::__variant_detail::__traits, std::__ndk1::allocator<char> >&>(std::__ndk1::__variant_detail::__dtor<std::__ndk1::__variant_detail::__traits<std::__ndk1::monostate, std::__ndk1::basic_string<char, std::__ndk1::char_traits<char>, std::__ndk1::allocator<char> > >, (std::__ndk1::__variant_detail::_Trait)1>, std::__ndk1::__variant_detail::__base<(std::__ndk1::__variant_detail::__traits<std::__ndk1::monostate, std::__ndk1::basic_string<char, std::__ndk1::char_traits<char>, std::__ndk1::allocator<char> > >)1, std::__ndk1::__variant_detail::__traits, std::__ndk1::allocator<char> >&)
FUNC 3c14c 2 0 std::__ndk1::__variant_detail::__visitation::__base::__dispatcher<(unsigned int)0>::__dispatch[abi:ne180000]<std::__ndk1::__variant_detail::__dtor<std::__ndk1::__variant_detail::__traits<int, std::__ndk1::basic_string<char, std::__ndk1::char_traits<char>, std::__ndk1::allocator<char> > >, (std::__ndk1::__variant_detail::_Trait)1>::__destroy[abi:ne180000]()::{lambda(auto:1&)#1}, std::__ndk1::__variant_detail::__base<(std::__ndk1::__variant_detail::__traits<int, std::__ndk1::basic_string<char, std::__ndk1::char_traits<char>, std::__ndk1::allocator<char> > >)1, int, std::__ndk1::allocator<char> >&>(std::__ndk1::__variant_detail::__dtor<std::__ndk1::__variant_detail::__traits<int, std::__ndk1::basic_string<char, std::__ndk1::char_traits<char>, std::__ndk1::allocator<char> > >, (std::__ndk1::__variant_detail::_Trait)1>, std::__ndk1::__variant_detail::__base<(std::__ndk1::__variant_detail::__traits<int, std::__ndk1::basic_string<char, std::__ndk1::char_traits<char>, std::__ndk1::allocator<char> > >)1, int, std::__ndk1::allocator<char> >&)
FUNC 3c14e e 0 std::__ndk1::__variant_detail::__visitation::__base::__dispatcher<(unsigned int)1>::__dispatch[abi:ne180000]<std::__ndk1::__variant_detail::__dtor<std::__ndk1::__variant_detail::__traits<int, std::__ndk1::basic_string<char, std::__ndk1::char_traits<char>, std::__ndk1::allocator<char> > >, (std::__ndk1::__variant_detail::_Trait)1>::__destroy[abi:ne180000]()::{lambda(auto:1&)#1}, std::__ndk1::__variant_detail::__base<(std::__ndk1::__variant_detail::__traits<int, std::__ndk1::basic_string<char, std::__ndk1::char_traits<char>, std::__ndk1::allocator<char> > >)1, int, std::__ndk1::allocator<char> >&>(std::__ndk1::__variant_detail::__dtor<std::__ndk1::__variant_detail::__traits<int, std::__ndk1::basic_string<char, std::__ndk1::char_traits<char>, std::__ndk1::allocator<char> > >, (std::__ndk1::__variant_detail::_Trait)1>, std::__ndk1::__variant_detail::__base<(std::__ndk1::__variant_detail::__traits<int, std::__ndk1::basic_string<char, std::__ndk1::char_traits<char>, std::__ndk1::allocator<char> > >)1, int, std::__ndk1::allocator<char> >&)
FUNC 3c15c d0 0 std::__ndk1::__tree<std::__ndk1::__value_type<std::__ndk1::basic_string<char, std::__ndk1::char_traits<char>, std::__ndk1::allocator<char> >, int>, std::__ndk1::__map_value_compare<std::__ndk1::basic_string<char, std::__ndk1::char_traits<char>, std::__ndk1::allocator<char> >, std::__ndk1::__value_type<std::__ndk1::basic_string<char, std::__ndk1::char_traits<char>, std::__ndk1::allocator<char> >, int>, std::__ndk1::less<std::__ndk1::basic_string<char, std::__ndk1::char_traits<char>, std::__ndk1::allocator<char> > >, true>, std::__ndk1::allocator<std::__ndk1::__value_type<std::__ndk1::basic_string<char, std::__ndk1::char_traits<char>, std::__ndk1::allocator<char> >, int> > >::__emplace_hint_unique_key_args<std::__ndk1::basic_string<char, std::__ndk1::char_traits<char>, std::__ndk1::allocator<char> >, std::__ndk1::pair<std::__ndk1::basic_string<char, std::__ndk1::char_traits<char>, std::__ndk1::allocator<char> > const, int> const&>(std::__ndk1::__tree_const_iterator<std::__ndk1::__value_type<std::__ndk1::basic_string<char, std::__ndk1::char_traits<char>, std::__ndk1::allocator<char> >, int>, std::__ndk1::__tree_node<std::__ndk1::__value_type<std::__ndk1::basic_string<char, std::__ndk1::char_traits<char>, std::__ndk1::allocator<char> >, int>, void*>*, int>, std::__ndk1::basic_string<char, std::__ndk1::char_traits<char>, std::__ndk1::allocator<char> > const&, std::__ndk1::pair<std::__ndk1::basic_string<char, std::__ndk1::char_traits<char>, std::__ndk1::allocator<char> > const, int> const&)
FUNC 3c22c 1fc 0 std::__ndk1::__tree<std::__ndk1::__value_type<std::__ndk1::basic_string<char, std::__ndk1::char_traits<char>, std::__ndk1::allocator<char> >, int>, std::__ndk1::__map_value_compare<std::__ndk1::basic_string<char, std::__ndk1::char_traits<char>, std::__ndk1::allocator<char> >, std::__ndk1::__value_type<std::__ndk1::basic_string<char, std::__ndk1::char_traits<char>, std::__ndk1::allocator<char> >, int>, std::__ndk1::less<std::__ndk1::basic_string<char, std::__ndk1::char_traits<char>, std::__ndk1::allocator<char> > >, true>, std::__ndk1::allocator<std::__ndk1::__value_type<std::__ndk1::basic_string<char, std::__ndk1::char_traits<char>, std::__ndk1::allocator<char> >, int> > >::__find_equal<std::__ndk1::basic_string<char, std::__ndk1::char_traits<char>, std::__ndk1::allocator<char> > >(std::__ndk1::__tree_const_iterator<std::__ndk1::__value_type<std::__ndk1::basic_string<char, std::__ndk1::char_traits<char>, std::__ndk1::allocator<char> >, int>, std::__ndk1::__tree_node<std::__ndk1::__value_type<std::__ndk1::basic_string<char, std::__ndk1::char_traits<char>, std::__ndk1::allocator<char> >, int>, void*>*, int>, std::__ndk1::__tree_end_node<std::__ndk1::__tree_node_base<void*>*>*&, std::__ndk1::__tree_node_base<void*>*&, std::__ndk1::basic_string<char, std::__ndk1::char_traits<char>, std::__ndk1::allocator<char> > const&)
FUNC 3c428 3a 0 std::__ndk1::unique_ptr<std::__ndk1::__tree_node<std::__ndk1::__value_type<std::__ndk1::basic_string<char, std::__ndk1::char_traits<char>, std::__ndk1::allocator<char> >, int>, void*>, std::__ndk1::__tree_node_destructor<std::__ndk1::allocator<std::__ndk1::__tree_node<std::__ndk1::__value_type<std::__ndk1::basic_string<char, std::__ndk1::char_traits<char>, std::__ndk1::allocator<char> >, int>, void*> > > >::~unique_ptr[abi:ne180000]()
FUNC 3c462 ba 0 std::__ndk1::__tree<std::__ndk1::__value_type<std::__ndk1::basic_string<char, std::__ndk1::char_traits<char>, std::__ndk1::allocator<char> >, int>, std::__ndk1::__map_value_compare<std::__ndk1::basic_string<char, std::__ndk1::char_traits<char>, std::__ndk1::allocator<char> >, std::__ndk1::__value_type<std::__ndk1::basic_string<char, std::__ndk1::char_traits<char>, std::__ndk1::allocator<char> >, int>, std::__ndk1::less<std::__ndk1::basic_string<char, std::__ndk1::char_traits<char>, std::__ndk1::allocator<char> > >, true>, std::__ndk1::allocator<std::__ndk1::__value_type<std::__ndk1::basic_string<char, std::__ndk1::char_traits<char>, std::__ndk1::allocator<char> >, int> > >::__find_equal<std::__ndk1::basic_string<char, std::__ndk1::char_traits<char>, std::__ndk1::allocator<char> > >(std::__ndk1::__tree_end_node<std::__ndk1::__tree_node_base<void*>*>*&, std::__ndk1::basic_string<char, std::__ndk1::char_traits<char>, std::__ndk1::allocator<char> > const&)
FUNC 3c51c 248 0 geode::Popup<DTLayer* const&>::initBase(float, float, DTLayer* const&, char const*, cocos2d::CCRect, bool)
FUNC 3c764 1e0 0 _ZNSt6__ndk112basic_stringIcNS_11char_traitsIcEENS_9allocatorIcEEE6appendB8ne180000IPKcTnNS_9enable_ifIXsr31__has_forward_iterator_categoryIT_EE5valueEiE4typeELi0EEERS5_SA_SA_
FUNC 3c944 4 0 std::__ndk1::__function::__func<geode::Task<geode::Result<std::__ndk1::__fs::filesystem::path, std::__ndk1::basic_string<char, std::__ndk1::char_traits<char>, std::__ndk1::allocator<char> > >, std::__ndk1::monostate>::listen<DTExportImportLayer::onExportClicked(cocos2d::CCObject*)::$_0, DTExportImportLayer::onExportClicked(cocos2d::CCObject*)::$_1, DTExportImportLayer::onExportClicked(cocos2d::CCObject*)::$_2>(DTExportImportLayer::onExportClicked(cocos2d::CCObject*)::$_0&&, DTExportImportLayer::onExportClicked(cocos2d::CCObject*)::$_1&&, DTExportImportLayer::onExportClicked(cocos2d::CCObject*)::$_2&&) const::{lambda(geode::Task<geode::Result<std::__ndk1::__fs::filesystem::path, std::__ndk1::basic_string<char, std::__ndk1::char_traits<char>, std::__ndk1::allocator<char> > >, std::__ndk1::monostate>::Event*)#1}, std::__ndk1::allocator<geode::Task<geode::Result<std::__ndk1::__fs::filesystem::path, std::__ndk1::basic_string<char, std::__ndk1::char_traits<char>, std::__ndk1::allocator<char> > >, std::__ndk1::monostate>::listen<DTExportImportLayer::onExportClicked(cocos2d::CCObject*)::$_0, DTExportImportLayer::onExportClicked(cocos2d::CCObject*)::$_1, DTExportImportLayer::onExportClicked(cocos2d::CCObject*)::$_2>(DTExportImportLayer::onExportClicked(cocos2d::CCObject*)::$_0&&, DTExportImportLayer::onExportClicked(cocos2d::CCObject*)::$_1&&, DTExportImportLayer::onExportClicked(cocos2d::CCObject*)::$_2&&) const::{lambda(geode::Task<geode::Result<std::__ndk1::__fs::filesystem::path, std::__ndk1::basic_string<char, std::__ndk1::char_traits<char>, std::__ndk1::allocator<char> > >, std::__ndk1::monostate>::Event*)#1}>, void (geode::Task<geode::Result<std::__ndk1::__fs::filesystem::path, std::__ndk1::basic_string<char, std::__ndk1::char_traits<char>, std::__ndk1::allocator<char> > >, std::__ndk1::monostate>::Event*)>::~__func()
FUNC 3c948 28 0 std::__ndk1::__function::__func<geode::Task<geode::Result<std::__ndk1::__fs::filesystem::path, std::__ndk1::basic_string<char, std::__ndk1::char_traits<char>, std::__ndk1::allocator<char> > >, std::__ndk1::monostate>::listen<DTExportImportLayer::onExportClicked(cocos2d::CCObject*)::$_0, DTExportImportLayer::onExportClicked(cocos2d::CCObject*)::$_1, DTExportImportLayer::onExportClicked(cocos2d::CCObject*)::$_2>(DTExportImportLayer::onExportClicked(cocos2d::CCObject*)::$_0&&, DTExportImportLayer::onExportClicked(cocos2d::CCObject*)::$_1&&, DTExportImportLayer::onExportClicked(cocos2d::CCObject*)::$_2&&) const::{lambda(geode::Task<geode::Result<std::__ndk1::__fs::filesystem::path, std::__ndk1::basic_string<char, std::__ndk1::char_traits<char>, std::__ndk1::allocator<char> > >, std::__ndk1::monostate>::Event*)#1}, std::__ndk1::allocator<geode::Task<geode::Result<std::__ndk1::__fs::filesystem::path, std::__ndk1::basic_string<char, std::__ndk1::char_traits<char>, std::__ndk1::allocator<char> > >, std::__ndk1::monostate>::listen<DTExportImportLayer::onExportClicked(cocos2d::CCObject*)::$_0, DTExportImportLayer::onExportClicked(cocos2d::CCObject*)::$_1, DTExportImportLayer::onExportClicked(cocos2d::CCObject*)::$_2>(DTExportImportLayer::onExportClicked(cocos2d::CCObject*)::$_0&&, DTExportImportLayer::onExportClicked(cocos2d::CCObject*)::$_1&&, DTExportImportLayer::onExportClicked(cocos2d::CCObject*)::$_2&&) const::{lambda(geode::Task<geode::Result<std::__ndk1::__fs::filesystem::path, std::__ndk1::basic_string<char, std::__ndk1::char_traits<char>, std::__ndk1::allocator<char> > >, std::__ndk1::monostate>::Event*)#1}>, void (geode::Task<geode::Result<std::__ndk1::__fs::filesystem::path, std::__ndk1::basic_string<char, std::__ndk1::char_traits<char>, std::__ndk1::allocator<char> > >, std::__ndk1::monostate>::Event*)>::__clone() const
FUNC 3c970 1c 0 std::__ndk1::__function::__func<geode::Task<geode::Result<std::__ndk1::__fs::filesystem::path, std::__ndk1::basic_string<char, std::__ndk1::char_traits<char>, std::__ndk1::allocator<char> > >, std::__ndk1::monostate>::listen<DTExportImportLayer::onExportClicked(cocos2d::CCObject*)::$_0, DTExportImportLayer::onExportClicked(cocos2d::CCObject*)::$_1, DTExportImportLayer::onExportClicked(cocos2d::CCObject*)::$_2>(DTExportImportLayer::onExportClicked(cocos2d::CCObject*)::$_0&&, DTExportImportLayer::onExportClicked(cocos2d::CCObject*)::$_1&&, DTExportImportLayer::onExportClicked(cocos2d::CCObject*)::$_2&&) const::{lambda(geode::Task<geode::Result<std::__ndk1::__fs::filesystem::path, std::__ndk1::basic_string<char, std::__ndk1::char_traits<char>, std::__ndk1::allocator<char> > >, std::__ndk1::monostate>::Event*)#1}, std::__ndk1::allocator<geode::Task<geode::Result<std::__ndk1::__fs::filesystem::path, std::__ndk1::basic_string<char, std::__ndk1::char_traits<char>, std::__ndk1::allocator<char> > >, std::__ndk1::monostate>::listen<DTExportImportLayer::onExportClicked(cocos2d::CCObject*)::$_0, DTExportImportLayer::onExportClicked(cocos2d::CCObject*)::$_1, DTExportImportLayer::onExportClicked(cocos2d::CCObject*)::$_2>(DTExportImportLayer::onExportClicked(cocos2d::CCObject*)::$_0&&, DTExportImportLayer::onExportClicked(cocos2d::CCObject*)::$_1&&, DTExportImportLayer::onExportClicked(cocos2d::CCObject*)::$_2&&) const::{lambda(geode::Task<geode::Result<std::__ndk1::__fs::filesystem::path, std::__ndk1::basic_string<char, std::__ndk1::char_traits<char>, std::__ndk1::allocator<char> > >, std::__ndk1::monostate>::Event*)#1}>, void (geode::Task<geode::Result<std::__ndk1::__fs::filesystem::path, std::__ndk1::basic_string<char, std::__ndk1::char_traits<char>, std::__ndk1::allocator<char> > >, std::__ndk1::monostate>::Event*)>::__clone(std::__ndk1::__function::__base<void (geode::Task<geode::Result<std::__ndk1::__fs::filesystem::path, std::__ndk1::basic_string<char, std::__ndk1::char_traits<char>, std::__ndk1::allocator<char> > >, std::__ndk1::monostate>::Event*)>*) const
FUNC 3c98c 2 0 std::__ndk1::__function::__func<geode::Task<geode::Result<std::__ndk1::__fs::filesystem::path, std::__ndk1::basic_string<char, std::__ndk1::char_traits<char>, std::__ndk1::allocator<char> > >, std::__ndk1::monostate>::listen<DTExportImportLayer::onExportClicked(cocos2d::CCObject*)::$_0, DTExportImportLayer::onExportClicked(cocos2d::CCObject*)::$_1, DTExportImportLayer::onExportClicked(cocos2d::CCObject*)::$_2>(DTExportImportLayer::onExportClicked(cocos2d::CCObject*)::$_0&&, DTExportImportLayer::onExportClicked(cocos2d::CCObject*)::$_1&&, DTExportImportLayer::onExportClicked(cocos2d::CCObject*)::$_2&&) const::{lambda(geode::Task<geode::Result<std::__ndk1::__fs::filesystem::path, std::__ndk1::basic_string<char, std::__ndk1::char_traits<char>, std::__ndk1::allocator<char> > >, std::__ndk1::monostate>::Event*)#1}, std::__ndk1::allocator<geode::Task<geode::Result<std::__ndk1::__fs::filesystem::path, std::__ndk1::basic_string<char, std::__ndk1::char_traits<char>, std::__ndk1::allocator<char> > >, std::__ndk1::monostate>::listen<DTExportImportLayer::onExportClicked(cocos2d::CCObject*)::$_0, DTExportImportLayer::onExportClicked(cocos2d::CCObject*)::$_1, DTExportImportLayer::onExportClicked(cocos2d::CCObject*)::$_2>(DTExportImportLayer::onExportClicked(cocos2d::CCObject*)::$_0&&, DTExportImportLayer::onExportClicked(cocos2d::CCObject*)::$_1&&, DTExportImportLayer::onExportClicked(cocos2d::CCObject*)::$_2&&) const::{lambda(geode::Task<geode::Result<std::__ndk1::__fs::filesystem::path, std::__ndk1::basic_string<char, std::__ndk1::char_traits<char>, std::__ndk1::allocator<char> > >, std::__ndk1::monostate>::Event*)#1}>, void (geode::Task<geode::Result<std::__ndk1::__fs::filesystem::path, std::__ndk1::basic_string<char, std::__ndk1::char_traits<char>, std::__ndk1::allocator<char> > >, std::__ndk1::monostate>::Event*)>::destroy()
FUNC 3c98e 4 0 std::__ndk1::__function::__func<geode::Task<geode::Result<std::__ndk1::__fs::filesystem::path, std::__ndk1::basic_string<char, std::__ndk1::char_traits<char>, std::__ndk1::allocator<char> > >, std::__ndk1::monostate>::listen<DTExportImportLayer::onExportClicked(cocos2d::CCObject*)::$_0, DTExportImportLayer::onExportClicked(cocos2d::CCObject*)::$_1, DTExportImportLayer::onExportClicked(cocos2d::CCObject*)::$_2>(DTExportImportLayer::onExportClicked(cocos2d::CCObject*)::$_0&&, DTExportImportLayer::onExportClicked(cocos2d::CCObject*)::$_1&&, DTExportImportLayer::onExportClicked(cocos2d::CCObject*)::$_2&&) const::{lambda(geode::Task<geode::Result<std::__ndk1::__fs::filesystem::path, std::__ndk1::basic_string<char, std::__ndk1::char_traits<char>, std::__ndk1::allocator<char> > >, std::__ndk1::monostate>::Event*)#1}, std::__ndk1::allocator<geode::Task<geode::Result<std::__ndk1::__fs::filesystem::path, std::__ndk1::basic_string<char, std::__ndk1::char_traits<char>, std::__ndk1::allocator<char> > >, std::__ndk1::monostate>::listen<DTExportImportLayer::onExportClicked(cocos2d::CCObject*)::$_0, DTExportImportLayer::onExportClicked(cocos2d::CCObject*)::$_1, DTExportImportLayer::onExportClicked(cocos2d::CCObject*)::$_2>(DTExportImportLayer::onExportClicked(cocos2d::CCObject*)::$_0&&, DTExportImportLayer::onExportClicked(cocos2d::CCObject*)::$_1&&, DTExportImportLayer::onExportClicked(cocos2d::CCObject*)::$_2&&) const::{lambda(geode::Task<geode::Result<std::__ndk1::__fs::filesystem::path, std::__ndk1::basic_string<char, std::__ndk1::char_traits<char>, std::__ndk1::allocator<char> > >, std::__ndk1::monostate>::Event*)#1}>, void (geode::Task<geode::Result<std::__ndk1::__fs::filesystem::path, std::__ndk1::basic_string<char, std::__ndk1::char_traits<char>, std::__ndk1::allocator<char> > >, std::__ndk1::monostate>::Event*)>::destroy_deallocate()
FUNC 3c994 a80 0 std::__ndk1::__function::__func<geode::Task<geode::Result<std::__ndk1::__fs::filesystem::path, std::__ndk1::basic_string<char, std::__ndk1::char_traits<char>, std::__ndk1::allocator<char> > >, std::__ndk1::monostate>::listen<DTExportImportLayer::onExportClicked(cocos2d::CCObject*)::$_0, DTExportImportLayer::onExportClicked(cocos2d::CCObject*)::$_1, DTExportImportLayer::onExportClicked(cocos2d::CCObject*)::$_2>(DTExportImportLayer::onExportClicked(cocos2d::CCObject*)::$_0&&, DTExportImportLayer::onExportClicked(cocos2d::CCObject*)::$_1&&, DTExportImportLayer::onExportClicked(cocos2d::CCObject*)::$_2&&) const::{lambda(geode::Task<geode::Result<std::__ndk1::__fs::filesystem::path, std::__ndk1::basic_string<char, std::__ndk1::char_traits<char>, std::__ndk1::allocator<char> > >, std::__ndk1::monostate>::Event*)#1}, std::__ndk1::allocator<geode::Task<geode::Result<std::__ndk1::__fs::filesystem::path, std::__ndk1::basic_string<char, std::__ndk1::char_traits<char>, std::__ndk1::allocator<char> > >, std::__ndk1::monostate>::listen<DTExportImportLayer::onExportClicked(cocos2d::CCObject*)::$_0, DTExportImportLayer::onExportClicked(cocos2d::CCObject*)::$_1, DTExportImportLayer::onExportClicked(cocos2d::CCObject*)::$_2>(DTExportImportLayer::onExportClicked(cocos2d::CCObject*)::$_0&&, DTExportImportLayer::onExportClicked(cocos2d::CCObject*)::$_1&&, DTExportImportLayer::onExportClicked(cocos2d::CCObject*)::$_2&&) const::{lambda(geode::Task<geode::Result<std::__ndk1::__fs::filesystem::path, std::__ndk1::basic_string<char, std::__ndk1::char_traits<char>, std::__ndk1::allocator<char> > >, std::__ndk1::monostate>::Event*)#1}>, void (geode::Task<geode::Result<std::__ndk1::__fs::filesystem::path, std::__ndk1::basic_string<char, std::__ndk1::char_traits<char>, std::__ndk1::allocator<char> > >, std::__ndk1::monostate>::Event*)>::operator()(geode::Task<geode::Result<std::__ndk1::__fs::filesystem::path, std::__ndk1::basic_string<char, std::__ndk1::char_traits<char>, std::__ndk1::allocator<char> > >, std::__ndk1::monostate>::Event*&&)
FUNC 3d414 18 0 std::__ndk1::__function::__func<geode::Task<geode::Result<std::__ndk1::__fs::filesystem::path, std::__ndk1::basic_string<char, std::__ndk1::char_traits<char>, std::__ndk1::allocator<char> > >, std::__ndk1::monostate>::listen<DTExportImportLayer::onExportClicked(cocos2d::CCObject*)::$_0, DTExportImportLayer::onExportClicked(cocos2d::CCObject*)::$_1, DTExportImportLayer::onExportClicked(cocos2d::CCObject*)::$_2>(DTExportImportLayer::onExportClicked(cocos2d::CCObject*)::$_0&&, DTExportImportLayer::onExportClicked(cocos2d::CCObject*)::$_1&&, DTExportImportLayer::onExportClicked(cocos2d::CCObject*)::$_2&&) const::{lambda(geode::Task<geode::Result<std::__ndk1::__fs::filesystem::path, std::__ndk1::basic_string<char, std::__ndk1::char_traits<char>, std::__ndk1::allocator<char> > >, std::__ndk1::monostate>::Event*)#1}, std::__ndk1::allocator<geode::Task<geode::Result<std::__ndk1::__fs::filesystem::path, std::__ndk1::basic_string<char, std::__ndk1::char_traits<char>, std::__ndk1::allocator<char> > >, std::__ndk1::monostate>::listen<DTExportImportLayer::onExportClicked(cocos2d::CCObject*)::$_0, DTExportImportLayer::onExportClicked(cocos2d::CCObject*)::$_1, DTExportImportLayer::onExportClicked(cocos2d::CCObject*)::$_2>(DTExportImportLayer::onExportClicked(cocos2d::CCObject*)::$_0&&, DTExportImportLayer::onExportClicked(cocos2d::CCObject*)::$_1&&, DTExportImportLayer::onExportClicked(cocos2d::CCObject*)::$_2&&) const::{lambda(geode::Task<geode::Result<std::__ndk1::__fs::filesystem::path, std::__ndk1::basic_string<char, std::__ndk1::char_traits<char>, std::__ndk1::allocator<char> > >, std::__ndk1::monostate>::Event*)#1}>, void (geode::Task<geode::Result<std::__ndk1::__fs::filesystem::path, std::__ndk1::basic_string<char, std::__ndk1::char_traits<char>, std::__ndk1::allocator<char> > >, std::__ndk1::monostate>::Event*)>::target(std::type_info const&) const
FUNC 3d42c c 0 std::__ndk1::__function::__func<geode::Task<geode::Result<std::__ndk1::__fs::filesystem::path, std::__ndk1::basic_string<char, std::__ndk1::char_traits<char>, std::__ndk1::allocator<char> > >, std::__ndk1::monostate>::listen<DTExportImportLayer::onExportClicked(cocos2d::CCObject*)::$_0, DTExportImportLayer::onExportClicked(cocos2d::CCObject*)::$_1, DTExportImportLayer::onExportClicked(cocos2d::CCObject*)::$_2>(DTExportImportLayer::onExportClicked(cocos2d::CCObject*)::$_0&&, DTExportImportLayer::onExportClicked(cocos2d::CCObject*)::$_1&&, DTExportImportLayer::onExportClicked(cocos2d::CCObject*)::$_2&&) const::{lambda(geode::Task<geode::Result<std::__ndk1::__fs::filesystem::path, std::__ndk1::basic_string<char, std::__ndk1::char_traits<char>, std::__ndk1::allocator<char> > >, std::__ndk1::monostate>::Event*)#1}, std::__ndk1::allocator<geode::Task<geode::Result<std::__ndk1::__fs::filesystem::path, std::__ndk1::basic_string<char, std::__ndk1::char_traits<char>, std::__ndk1::allocator<char> > >, std::__ndk1::monostate>::listen<DTExportImportLayer::onExportClicked(cocos2d::CCObject*)::$_0, DTExportImportLayer::onExportClicked(cocos2d::CCObject*)::$_1, DTExportImportLayer::onExportClicked(cocos2d::CCObject*)::$_2>(DTExportImportLayer::onExportClicked(cocos2d::CCObject*)::$_0&&, DTExportImportLayer::onExportClicked(cocos2d::CCObject*)::$_1&&, DTExportImportLayer::onExportClicked(cocos2d::CCObject*)::$_2&&) const::{lambda(geode::Task<geode::Result<std::__ndk1::__fs::filesystem::path, std::__ndk1::basic_string<char, std::__ndk1::char_traits<char>, std::__ndk1::allocator<char> > >, std::__ndk1::monostate>::Event*)#1}>, void (geode::Task<geode::Result<std::__ndk1::__fs::filesystem::path, std::__ndk1::basic_string<char, std::__ndk1::char_traits<char>, std::__ndk1::allocator<char> > >, std::__ndk1::monostate>::Event*)>::target_type() const
FUNC 3d438 4c 0 std::__ndk1::vector<LabelLayout, std::__ndk1::allocator<LabelLayout> >::~vector[abi:ne180000]()
FUNC 3d484 10 0 std::__ndk1::basic_string<char, std::__ndk1::char_traits<char>, std::__ndk1::allocator<char> >::__throw_out_of_range[abi:ne180000]() const
FUNC 3d494 5e 0 std::__ndk1::basic_string<char, std::__ndk1::char_traits<char>, std::__ndk1::allocator<char> >::__erase_external_with_move(unsigned int, unsigned int)
FUNC 3d4f2 2e 0 std::__ndk1::__tree<std::__ndk1::__value_type<int, std::__ndk1::basic_string<char, std::__ndk1::char_traits<char>, std::__ndk1::allocator<char> > >, std::__ndk1::__map_value_compare<int, std::__ndk1::__value_type<int, std::__ndk1::basic_string<char, std::__ndk1::char_traits<char>, std::__ndk1::allocator<char> > >, std::__ndk1::less<int>, true>, std::__ndk1::allocator<std::__ndk1::__value_type<int, std::__ndk1::basic_string<char, std::__ndk1::char_traits<char>, std::__ndk1::allocator<char> > > > >::destroy(std::__ndk1::__tree_node<std::__ndk1::__value_type<int, std::__ndk1::basic_string<char, std::__ndk1::char_traits<char>, std::__ndk1::allocator<char> > >, void*>*)
FUNC 3d520 2 0 std::__ndk1::__function::__base<void ()>::~__base()
FUNC 3d522 4 0 std::__ndk1::__function::__func<geode::Task<geode::Result<std::__ndk1::__fs::filesystem::path, std::__ndk1::basic_string<char, std::__ndk1::char_traits<char>, std::__ndk1::allocator<char> > >, std::__ndk1::monostate>::listen<DTExportImportLayer::onExportClicked(cocos2d::CCObject*)::$_0, DTExportImportLayer::onExportClicked(cocos2d::CCObject*)::$_1, DTExportImportLayer::onExportClicked(cocos2d::CCObject*)::$_2>(DTExportImportLayer::onExportClicked(cocos2d::CCObject*)::$_0&&, DTExportImportLayer::onExportClicked(cocos2d::CCObject*)::$_1&&, DTExportImportLayer::onExportClicked(cocos2d::CCObject*)::$_2&&) const::{lambda(geode::Task<geode::Result<std::__ndk1::__fs::filesystem::path, std::__ndk1::basic_string<char, std::__ndk1::char_traits<char>, std::__ndk1::allocator<char> > >, std::__ndk1::monostate>::Event*)#1}::operator()(geode::Task<geode::Result<std::__ndk1::__fs::filesystem::path, std::__ndk1::basic_string<char, std::__ndk1::char_traits<char>, std::__ndk1::allocator<char> > >, std::__ndk1::monostate>::Event*)::{lambda()#1}, std::__ndk1::allocator<geode::Task<geode::Result<std::__ndk1::__fs::filesystem::path, std::__ndk1::basic_string<char, std::__ndk1::char_traits<char>, std::__ndk1::allocator<char> > >, std::__ndk1::monostate>::listen<DTExportImportLayer::onExportClicked(cocos2d::CCObject*)::$_0, DTExportImportLayer::onExportClicked(cocos2d::CCObject*)::$_1, DTExportImportLayer::onExportClicked(cocos2d::CCObject*)::$_2>(DTExportImportLayer::onExportClicked(cocos2d::CCObject*)::$_0&&, DTExportImportLayer::onExportClicked(cocos2d::CCObject*)::$_1&&, DTExportImportLayer::onExportClicked(cocos2d::CCObject*)::$_2&&) const::{lambda(geode::Task<geode::Result<std::__ndk1::__fs::filesystem::path, std::__ndk1::basic_string<char, std::__ndk1::char_traits<char>, std::__ndk1::allocator<char> > >, std::__ndk1::monostate>::Event*)#1}::operator()(geode::Task<geode::Result<std::__ndk1::__fs::filesystem::path, std::__ndk1::basic_string<char, std::__ndk1::char_traits<char>, std::__ndk1::allocator<char> > >, std::__ndk1::monostate>::Event*)::{lambda()#1}>, void ()>::~__func()
FUNC 3d528 20 0 std::__ndk1::__function::__func<geode::Task<geode::Result<std::__ndk1::__fs::filesystem::path, std::__ndk1::basic_string<char, std::__ndk1::char_traits<char>, std::__ndk1::allocator<char> > >, std::__ndk1::monostate>::listen<DTExportImportLayer::onExportClicked(cocos2d::CCObject*)::$_0, DTExportImportLayer::onExportClicked(cocos2d::CCObject*)::$_1, DTExportImportLayer::onExportClicked(cocos2d::CCObject*)::$_2>(DTExportImportLayer::onExportClicked(cocos2d::CCObject*)::$_0&&, DTExportImportLayer::onExportClicked(cocos2d::CCObject*)::$_1&&, DTExportImportLayer::onExportClicked(cocos2d::CCObject*)::$_2&&) const::{lambda(geode::Task<geode::Result<std::__ndk1::__fs::filesystem::path, std::__ndk1::basic_string<char, std::__ndk1::char_traits<char>, std::__ndk1::allocator<char> > >, std::__ndk1::monostate>::Event*)#1}::operator()(geode::Task<geode::Result<std::__ndk1::__fs::filesystem::path, std::__ndk1::basic_string<char, std::__ndk1::char_traits<char>, std::__ndk1::allocator<char> > >, std::__ndk1::monostate>::Event*)::{lambda()#1}, std::__ndk1::allocator<geode::Task<geode::Result<std::__ndk1::__fs::filesystem::path, std::__ndk1::basic_string<char, std::__ndk1::char_traits<char>, std::__ndk1::allocator<char> > >, std::__ndk1::monostate>::listen<DTExportImportLayer::onExportClicked(cocos2d::CCObject*)::$_0, DTExportImportLayer::onExportClicked(cocos2d::CCObject*)::$_1, DTExportImportLayer::onExportClicked(cocos2d::CCObject*)::$_2>(DTExportImportLayer::onExportClicked(cocos2d::CCObject*)::$_0&&, DTExportImportLayer::onExportClicked(cocos2d::CCObject*)::$_1&&, DTExportImportLayer::onExportClicked(cocos2d::CCObject*)::$_2&&) const::{lambda(geode::Task<geode::Result<std::__ndk1::__fs::filesystem::path, std::__ndk1::basic_string<char, std::__ndk1::char_traits<char>, std::__ndk1::allocator<char> > >, std::__ndk1::monostate>::Event*)#1}::operator()(geode::Task<geode::Result<std::__ndk1::__fs::filesystem::path, std::__ndk1::basic_string<char, std::__ndk1::char_traits<char>, std::__ndk1::allocator<char> > >, std::__ndk1::monostate>::Event*)::{lambda()#1}>, void ()>::__clone() const
FUNC 3d548 14 0 std::__ndk1::__function::__func<geode::Task<geode::Result<std::__ndk1::__fs::filesystem::path, std::__ndk1::basic_string<char, std::__ndk1::char_traits<char>, std::__ndk1::allocator<char> > >, std::__ndk1::monostate>::listen<DTExportImportLayer::onExportClicked(cocos2d::CCObject*)::$_0, DTExportImportLayer::onExportClicked(cocos2d::CCObject*)::$_1, DTExportImportLayer::onExportClicked(cocos2d::CCObject*)::$_2>(DTExportImportLayer::onExportClicked(cocos2d::CCObject*)::$_0&&, DTExportImportLayer::onExportClicked(cocos2d::CCObject*)::$_1&&, DTExportImportLayer::onExportClicked(cocos2d::CCObject*)::$_2&&) const::{lambda(geode::Task<geode::Result<std::__ndk1::__fs::filesystem::path, std::__ndk1::basic_string<char, std::__ndk1::char_traits<char>, std::__ndk1::allocator<char> > >, std::__ndk1::monostate>::Event*)#1}::operator()(geode::Task<geode::Result<std::__ndk1::__fs::filesystem::path, std::__ndk1::basic_string<char, std::__ndk1::char_traits<char>, std::__ndk1::allocator<char> > >, std::__ndk1::monostate>::Event*)::{lambda()#1}, std::__ndk1::allocator<geode::Task<geode::Result<std::__ndk1::__fs::filesystem::path, std::__ndk1::basic_string<char, std::__ndk1::char_traits<char>, std::__ndk1::allocator<char> > >, std::__ndk1::monostate>::listen<DTExportImportLayer::onExportClicked(cocos2d::CCObject*)::$_0, DTExportImportLayer::onExportClicked(cocos2d::CCObject*)::$_1, DTExportImportLayer::onExportClicked(cocos2d::CCObject*)::$_2>(DTExportImportLayer::onExportClicked(cocos2d::CCObject*)::$_0&&, DTExportImportLayer::onExportClicked(cocos2d::CCObject*)::$_1&&, DTExportImportLayer::onExportClicked(cocos2d::CCObject*)::$_2&&) const::{lambda(geode::Task<geode::Result<std::__ndk1::__fs::filesystem::path, std::__ndk1::basic_string<char, std::__ndk1::char_traits<char>, std::__ndk1::allocator<char> > >, std::__ndk1::monostate>::Event*)#1}::operator()(geode::Task<geode::Result<std::__ndk1::__fs::filesystem::path, std::__ndk1::basic_string<char, std::__ndk1::char_traits<char>, std::__ndk1::allocator<char> > >, std::__ndk1::monostate>::Event*)::{lambda()#1}>, void ()>::__clone(std::__ndk1::__function::__base<void ()>*) const
FUNC 3d55c 2 0 std::__ndk1::__function::__func<geode::Task<geode::Result<std::__ndk1::__fs::filesystem::path, std::__ndk1::basic_string<char, std::__ndk1::char_traits<char>, std::__ndk1::allocator<char> > >, std::__ndk1::monostate>::listen<DTExportImportLayer::onExportClicked(cocos2d::CCObject*)::$_0, DTExportImportLayer::onExportClicked(cocos2d::CCObject*)::$_1, DTExportImportLayer::onExportClicked(cocos2d::CCObject*)::$_2>(DTExportImportLayer::onExportClicked(cocos2d::CCObject*)::$_0&&, DTExportImportLayer::onExportClicked(cocos2d::CCObject*)::$_1&&, DTExportImportLayer::onExportClicked(cocos2d::CCObject*)::$_2&&) const::{lambda(geode::Task<geode::Result<std::__ndk1::__fs::filesystem::path, std::__ndk1::basic_string<char, std::__ndk1::char_traits<char>, std::__ndk1::allocator<char> > >, std::__ndk1::monostate>::Event*)#1}::operator()(geode::Task<geode::Result<std::__ndk1::__fs::filesystem::path, std::__ndk1::basic_string<char, std::__ndk1::char_traits<char>, std::__ndk1::allocator<char> > >, std::__ndk1::monostate>::Event*)::{lambda()#1}, std::__ndk1::allocator<geode::Task<geode::Result<std::__ndk1::__fs::filesystem::path, std::__ndk1::basic_string<char, std::__ndk1::char_traits<char>, std::__ndk1::allocator<char> > >, std::__ndk1::monostate>::listen<DTExportImportLayer::onExportClicked(cocos2d::CCObject*)::$_0, DTExportImportLayer::onExportClicked(cocos2d::CCObject*)::$_1, DTExportImportLayer::onExportClicked(cocos2d::CCObject*)::$_2>(DTExportImportLayer::onExportClicked(cocos2d::CCObject*)::$_0&&, DTExportImportLayer::onExportClicked(cocos2d::CCObject*)::$_1&&, DTExportImportLayer::onExportClicked(cocos2d::CCObject*)::$_2&&) const::{lambda(geode::Task<geode::Result<std::__ndk1::__fs::filesystem::path, std::__ndk1::basic_string<char, std::__ndk1::char_traits<char>, std::__ndk1::allocator<char> > >, std::__ndk1::monostate>::Event*)#1}::operator()(geode::Task<geode::Result<std::__ndk1::__fs::filesystem::path, std::__ndk1::basic_string<char, std::__ndk1::char_traits<char>, std::__ndk1::allocator<char> > >, std::__ndk1::monostate>::Event*)::{lambda()#1}>, void ()>::destroy()
FUNC 3d55e 4 0 std::__ndk1::__function::__func<geode::Task<geode::Result<std::__ndk1::__fs::filesystem::path, std::__ndk1::basic_string<char, std::__ndk1::char_traits<char>, std::__ndk1::allocator<char> > >, std::__ndk1::monostate>::listen<DTExportImportLayer::onExportClicked(cocos2d::CCObject*)::$_0, DTExportImportLayer::onExportClicked(cocos2d::CCObject*)::$_1, DTExportImportLayer::onExportClicked(cocos2d::CCObject*)::$_2>(DTExportImportLayer::onExportClicked(cocos2d::CCObject*)::$_0&&, DTExportImportLayer::onExportClicked(cocos2d::CCObject*)::$_1&&, DTExportImportLayer::onExportClicked(cocos2d::CCObject*)::$_2&&) const::{lambda(geode::Task<geode::Result<std::__ndk1::__fs::filesystem::path, std::__ndk1::basic_string<char, std::__ndk1::char_traits<char>, std::__ndk1::allocator<char> > >, std::__ndk1::monostate>::Event*)#1}::operator()(geode::Task<geode::Result<std::__ndk1::__fs::filesystem::path, std::__ndk1::basic_string<char, std::__ndk1::char_traits<char>, std::__ndk1::allocator<char> > >, std::__ndk1::monostate>::Event*)::{lambda()#1}, std::__ndk1::allocator<geode::Task<geode::Result<std::__ndk1::__fs::filesystem::path, std::__ndk1::basic_string<char, std::__ndk1::char_traits<char>, std::__ndk1::allocator<char> > >, std::__ndk1::monostate>::listen<DTExportImportLayer::onExportClicked(cocos2d::CCObject*)::$_0, DTExportImportLayer::onExportClicked(cocos2d::CCObject*)::$_1, DTExportImportLayer::onExportClicked(cocos2d::CCObject*)::$_2>(DTExportImportLayer::onExportClicked(cocos2d::CCObject*)::$_0&&, DTExportImportLayer::onExportClicked(cocos2d::CCObject*)::$_1&&, DTExportImportLayer::onExportClicked(cocos2d::CCObject*)::$_2&&) const::{lambda(geode::Task<geode::Result<std::__ndk1::__fs::filesystem::path, std::__ndk1::basic_string<char, std::__ndk1::char_traits<char>, std::__ndk1::allocator<char> > >, std::__ndk1::monostate>::Event*)#1}::operator()(geode::Task<geode::Result<std::__ndk1::__fs::filesystem::path, std::__ndk1::basic_string<char, std::__ndk1::char_traits<char>, std::__ndk1::allocator<char> > >, std::__ndk1::monostate>::Event*)::{lambda()#1}>, void ()>::destroy_deallocate()
FUNC 3d562 e 0 std::__ndk1::__function::__func<geode::Task<geode::Result<std::__ndk1::__fs::filesystem::path, std::__ndk1::basic_string<char, std::__ndk1::char_traits<char>, std::__ndk1::allocator<char> > >, std::__ndk1::monostate>::listen<DTExportImportLayer::onExportClicked(cocos2d::CCObject*)::$_0, DTExportImportLayer::onExportClicked(cocos2d::CCObject*)::$_1, DTExportImportLayer::onExportClicked(cocos2d::CCObject*)::$_2>(DTExportImportLayer::onExportClicked(cocos2d::CCObject*)::$_0&&, DTExportImportLayer::onExportClicked(cocos2d::CCObject*)::$_1&&, DTExportImportLayer::onExportClicked(cocos2d::CCObject*)::$_2&&) const::{lambda(geode::Task<geode::Result<std::__ndk1::__fs::filesystem::path, std::__ndk1::basic_string<char, std::__ndk1::char_traits<char>, std::__ndk1::allocator<char> > >, std::__ndk1::monostate>::Event*)#1}::operator()(geode::Task<geode::Result<std::__ndk1::__fs::filesystem::path, std::__ndk1::basic_string<char, std::__ndk1::char_traits<char>, std::__ndk1::allocator<char> > >, std::__ndk1::monostate>::Event*)::{lambda()#1}, std::__ndk1::allocator<geode::Task<geode::Result<std::__ndk1::__fs::filesystem::path, std::__ndk1::basic_string<char, std::__ndk1::char_traits<char>, std::__ndk1::allocator<char> > >, std::__ndk1::monostate>::listen<DTExportImportLayer::onExportClicked(cocos2d::CCObject*)::$_0, DTExportImportLayer::onExportClicked(cocos2d::CCObject*)::$_1, DTExportImportLayer::onExportClicked(cocos2d::CCObject*)::$_2>(DTExportImportLayer::onExportClicked(cocos2d::CCObject*)::$_0&&, DTExportImportLayer::onExportClicked(cocos2d::CCObject*)::$_1&&, DTExportImportLayer::onExportClicked(cocos2d::CCObject*)::$_2&&) const::{lambda(geode::Task<geode::Result<std::__ndk1::__fs::filesystem::path, std::__ndk1::basic_string<char, std::__ndk1::char_traits<char>, std::__ndk1::allocator<char> > >, std::__ndk1::monostate>::Event*)#1}::operator()(geode::Task<geode::Result<std::__ndk1::__fs::filesystem::path, std::__ndk1::basic_string<char, std::__ndk1::char_traits<char>, std::__ndk1::allocator<char> > >, std::__ndk1::monostate>::Event*)::{lambda()#1}>, void ()>::operator()()
FUNC 3d570 18 0 std::__ndk1::__function::__func<geode::Task<geode::Result<std::__ndk1::__fs::filesystem::path, std::__ndk1::basic_string<char, std::__ndk1::char_traits<char>, std::__ndk1::allocator<char> > >, std::__ndk1::monostate>::listen<DTExportImportLayer::onExportClicked(cocos2d::CCObject*)::$_0, DTExportImportLayer::onExportClicked(cocos2d::CCObject*)::$_1, DTExportImportLayer::onExportClicked(cocos2d::CCObject*)::$_2>(DTExportImportLayer::onExportClicked(cocos2d::CCObject*)::$_0&&, DTExportImportLayer::onExportClicked(cocos2d::CCObject*)::$_1&&, DTExportImportLayer::onExportClicked(cocos2d::CCObject*)::$_2&&) const::{lambda(geode::Task<geode::Result<std::__ndk1::__fs::filesystem::path, std::__ndk1::basic_string<char, std::__ndk1::char_traits<char>, std::__ndk1::allocator<char> > >, std::__ndk1::monostate>::Event*)#1}::operator()(geode::Task<geode::Result<std::__ndk1::__fs::filesystem::path, std::__ndk1::basic_string<char, std::__ndk1::char_traits<char>, std::__ndk1::allocator<char> > >, std::__ndk1::monostate>::Event*)::{lambda()#1}, std::__ndk1::allocator<geode::Task<geode::Result<std::__ndk1::__fs::filesystem::path, std::__ndk1::basic_string<char, std::__ndk1::char_traits<char>, std::__ndk1::allocator<char> > >, std::__ndk1::monostate>::listen<DTExportImportLayer::onExportClicked(cocos2d::CCObject*)::$_0, DTExportImportLayer::onExportClicked(cocos2d::CCObject*)::$_1, DTExportImportLayer::onExportClicked(cocos2d::CCObject*)::$_2>(DTExportImportLayer::onExportClicked(cocos2d::CCObject*)::$_0&&, DTExportImportLayer::onExportClicked(cocos2d::CCObject*)::$_1&&, DTExportImportLayer::onExportClicked(cocos2d::CCObject*)::$_2&&) const::{lambda(geode::Task<geode::Result<std::__ndk1::__fs::filesystem::path, std::__ndk1::basic_string<char, std::__ndk1::char_traits<char>, std::__ndk1::allocator<char> > >, std::__ndk1::monostate>::Event*)#1}::operator()(geode::Task<geode::Result<std::__ndk1::__fs::filesystem::path, std::__ndk1::basic_string<char, std::__ndk1::char_traits<char>, std::__ndk1::allocator<char> > >, std::__ndk1::monostate>::Event*)::{lambda()#1}>, void ()>::target(std::type_info const&) const
FUNC 3d588 c 0 std::__ndk1::__function::__func<geode::Task<geode::Result<std::__ndk1::__fs::filesystem::path, std::__ndk1::basic_string<char, std::__ndk1::char_traits<char>, std::__ndk1::allocator<char> > >, std::__ndk1::monostate>::listen<DTExportImportLayer::onExportClicked(cocos2d::CCObject*)::$_0, DTExportImportLayer::onExportClicked(cocos2d::CCObject*)::$_1, DTExportImportLayer::onExportClicked(cocos2d::CCObject*)::$_2>(DTExportImportLayer::onExportClicked(cocos2d::CCObject*)::$_0&&, DTExportImportLayer::onExportClicked(cocos2d::CCObject*)::$_1&&, DTExportImportLayer::onExportClicked(cocos2d::CCObject*)::$_2&&) const::{lambda(geode::Task<geode::Result<std::__ndk1::__fs::filesystem::path, std::__ndk1::basic_string<char, std::__ndk1::char_traits<char>, std::__ndk1::allocator<char> > >, std::__ndk1::monostate>::Event*)#1}::operator()(geode::Task<geode::Result<std::__ndk1::__fs::filesystem::path, std::__ndk1::basic_string<char, std::__ndk1::char_traits<char>, std::__ndk1::allocator<char> > >, std::__ndk1::monostate>::Event*)::{lambda()#1}, std::__ndk1::allocator<geode::Task<geode::Result<std::__ndk1::__fs::filesystem::path, std::__ndk1::basic_string<char, std::__ndk1::char_traits<char>, std::__ndk1::allocator<char> > >, std::__ndk1::monostate>::listen<DTExportImportLayer::onExportClicked(cocos2d::CCObject*)::$_0, DTExportImportLayer::onExportClicked(cocos2d::CCObject*)::$_1, DTExportImportLayer::onExportClicked(cocos2d::CCObject*)::$_2>(DTExportImportLayer::onExportClicked(cocos2d::CCObject*)::$_0&&, DTExportImportLayer::onExportClicked(cocos2d::CCObject*)::$_1&&, DTExportImportLayer::onExportClicked(cocos2d::CCObject*)::$_2&&) const::{lambda(geode::Task<geode::Result<std::__ndk1::__fs::filesystem::path, std::__ndk1::basic_string<char, std::__ndk1::char_traits<char>, std::__ndk1::allocator<char> > >, std::__ndk1::monostate>::Event*)#1}::operator()(geode::Task<geode::Result<std::__ndk1::__fs::filesystem::path, std::__ndk1::basic_string<char, std::__ndk1::char_traits<char>, std::__ndk1::allocator<char> > >, std::__ndk1::monostate>::Event*)::{lambda()#1}>, void ()>::target_type() const
FUNC 3d594 cc 0 std::__ndk1::__function::__value_func<void (geode::Task<geode::Result<std::__ndk1::__fs::filesystem::path, std::__ndk1::basic_string<char, std::__ndk1::char_traits<char>, std::__ndk1::allocator<char> > >, std::__ndk1::monostate>::Event*)>::swap[abi:ne180000](std::__ndk1::__function::__value_func<void (geode::Task<geode::Result<std::__ndk1::__fs::filesystem::path, std::__ndk1::basic_string<char, std::__ndk1::char_traits<char>, std::__ndk1::allocator<char> > >, std::__ndk1::monostate>::Event*)>&)
FUNC 3d660 2 0 std::__ndk1::__function::__base<void (geode::Task<geode::Result<std::__ndk1::__fs::filesystem::path, std::__ndk1::basic_string<char, std::__ndk1::char_traits<char>, std::__ndk1::allocator<char> > >, std::__ndk1::monostate>::Event*)>::~__base()
FUNC 3d662 4 0 std::__ndk1::__function::__func<DTExportImportLayer::onImportClicked(cocos2d::CCObject*)::$_0, std::__ndk1::allocator<DTExportImportLayer::onImportClicked(cocos2d::CCObject*)::$_0>, void (geode::Task<geode::Result<std::__ndk1::__fs::filesystem::path, std::__ndk1::basic_string<char, std::__ndk1::char_traits<char>, std::__ndk1::allocator<char> > >, std::__ndk1::monostate>::Event*)>::~__func()
FUNC 3d668 20 0 std::__ndk1::__function::__func<DTExportImportLayer::onImportClicked(cocos2d::CCObject*)::$_0, std::__ndk1::allocator<DTExportImportLayer::onImportClicked(cocos2d::CCObject*)::$_0>, void (geode::Task<geode::Result<std::__ndk1::__fs::filesystem::path, std::__ndk1::basic_string<char, std::__ndk1::char_traits<char>, std::__ndk1::allocator<char> > >, std::__ndk1::monostate>::Event*)>::__clone() const
FUNC 3d688 14 0 std::__ndk1::__function::__func<DTExportImportLayer::onImportClicked(cocos2d::CCObject*)::$_0, std::__ndk1::allocator<DTExportImportLayer::onImportClicked(cocos2d::CCObject*)::$_0>, void (geode::Task<geode::Result<std::__ndk1::__fs::filesystem::path, std::__ndk1::basic_string<char, std::__ndk1::char_traits<char>, std::__ndk1::allocator<char> > >, std::__ndk1::monostate>::Event*)>::__clone(std::__ndk1::__function::__base<void (geode::Task<geode::Result<std::__ndk1::__fs::filesystem::path, std::__ndk1::basic_string<char, std::__ndk1::char_traits<char>, std::__ndk1::allocator<char> > >, std::__ndk1::monostate>::Event*)>*) const
FUNC 3d69c 2 0 std::__ndk1::__function::__func<DTExportImportLayer::onImportClicked(cocos2d::CCObject*)::$_0, std::__ndk1::allocator<DTExportImportLayer::onImportClicked(cocos2d::CCObject*)::$_0>, void (geode::Task<geode::Result<std::__ndk1::__fs::filesystem::path, std::__ndk1::basic_string<char, std::__ndk1::char_traits<char>, std::__ndk1::allocator<char> > >, std::__ndk1::monostate>::Event*)>::destroy()
FUNC 3d69e 4 0 std::__ndk1::__function::__func<DTExportImportLayer::onImportClicked(cocos2d::CCObject*)::$_0, std::__ndk1::allocator<DTExportImportLayer::onImportClicked(cocos2d::CCObject*)::$_0>, void (geode::Task<geode::Result<std::__ndk1::__fs::filesystem::path, std::__ndk1::basic_string<char, std::__ndk1::char_traits<char>, std::__ndk1::allocator<char> > >, std::__ndk1::monostate>::Event*)>::destroy_deallocate()
FUNC 3d6a4 7ec 0 std::__ndk1::__function::__func<DTExportImportLayer::onImportClicked(cocos2d::CCObject*)::$_0, std::__ndk1::allocator<DTExportImportLayer::onImportClicked(cocos2d::CCObject*)::$_0>, void (geode::Task<geode::Result<std::__ndk1::__fs::filesystem::path, std::__ndk1::basic_string<char, std::__ndk1::char_traits<char>, std::__ndk1::allocator<char> > >, std::__ndk1::monostate>::Event*)>::operator()(geode::Task<geode::Result<std::__ndk1::__fs::filesystem::path, std::__ndk1::basic_string<char, std::__ndk1::char_traits<char>, std::__ndk1::allocator<char> > >, std::__ndk1::monostate>::Event*&&)
FUNC 3de90 18 0 std::__ndk1::__function::__func<DTExportImportLayer::onImportClicked(cocos2d::CCObject*)::$_0, std::__ndk1::allocator<DTExportImportLayer::onImportClicked(cocos2d::CCObject*)::$_0>, void (geode::Task<geode::Result<std::__ndk1::__fs::filesystem::path, std::__ndk1::basic_string<char, std::__ndk1::char_traits<char>, std::__ndk1::allocator<char> > >, std::__ndk1::monostate>::Event*)>::target(std::type_info const&) const
FUNC 3dea8 c 0 std::__ndk1::__function::__func<DTExportImportLayer::onImportClicked(cocos2d::CCObject*)::$_0, std::__ndk1::allocator<DTExportImportLayer::onImportClicked(cocos2d::CCObject*)::$_0>, void (geode::Task<geode::Result<std::__ndk1::__fs::filesystem::path, std::__ndk1::basic_string<char, std::__ndk1::char_traits<char>, std::__ndk1::allocator<char> > >, std::__ndk1::monostate>::Event*)>::target_type() const
FUNC 3deb4 c4 0 std::__ndk1::__tree<std::__ndk1::__value_type<std::__ndk1::basic_string<char, std::__ndk1::char_traits<char>, std::__ndk1::allocator<char> >, int>, std::__ndk1::__map_value_compare<std::__ndk1::basic_string<char, std::__ndk1::char_traits<char>, std::__ndk1::allocator<char> >, std::__ndk1::__value_type<std::__ndk1::basic_string<char, std::__ndk1::char_traits<char>, std::__ndk1::allocator<char> >, int>, std::__ndk1::less<std::__ndk1::basic_string<char, std::__ndk1::char_traits<char>, std::__ndk1::allocator<char> > >, true>, std::__ndk1::allocator<std::__ndk1::__value_type<std::__ndk1::basic_string<char, std::__ndk1::char_traits<char>, std::__ndk1::allocator<char> >, int> > >::__emplace_unique_key_args<std::__ndk1::basic_string<char, std::__ndk1::char_traits<char>, std::__ndk1::allocator<char> >, std::__ndk1::piecewise_construct_t const&, std::__ndk1::tuple<std::__ndk1::basic_string<char, std::__ndk1::char_traits<char>, std::__ndk1::allocator<char> > const&>, std::__ndk1::tuple<> >(std::__ndk1::basic_string<char, std::__ndk1::char_traits<char>, std::__ndk1::allocator<char> > const&, std::__ndk1::piecewise_construct_t const&, std::__ndk1::tuple<std::__ndk1::basic_string<char, std::__ndk1::char_traits<char>, std::__ndk1::allocator<char> > const&>, std::__ndk1::tuple<>)
FUNC 3df78 1a4 0 _ZNSt6__ndk121__from_chars_integralB8ne180000IjTnNS_9enable_ifIXsr11is_unsignedIT_EE5valueEiE4typeELi0EEENS_17from_chars_resultEPKcS7_RS2_i
FUNC 3e11c 100 0 _ZNSt6__ndk124__subject_seq_combinatorB8ne180000IPKcjZNS_21__from_chars_integralB8ne180000IjTnNS_9enable_ifIXsr11is_unsignedIT_EE5valueEiE4typeELi0EEENS_17from_chars_resultES2_S2_RS5_iEUlS2_S2_RjiE_JiEEES8_S5_S5_RT0_T1_DpT2_
FUNC 3e21c 17c 0 _ZZNSt6__ndk121__from_chars_integralB8ne180000IjTnNS_9enable_ifIXsr11is_unsignedIT_EE5valueEiE4typeELi0EEENS_17from_chars_resultEPKcS7_RS2_iENKUlS7_S7_RjiE_clES7_S7_S9_i
FUNC 3e398 44 0 geode::Popup<DTLayer* const&>::CloseEvent::~CloseEvent()
FUNC 3e3dc 40 0 geode::Popup<DTLayer* const&>::CloseEvent::~CloseEvent()
FUNC 3e41c 10 0 std::__ndk1::__shared_ptr_emplace<geode::Popup<DTLayer* const&>::CloseEvent::Impl, std::__ndk1::allocator<geode::Popup<DTLayer* const&>::CloseEvent::Impl> >::~__shared_ptr_emplace()
FUNC 3e42c 1c 0 std::__ndk1::__shared_ptr_emplace<geode::Popup<DTLayer* const&>::CloseEvent::Impl, std::__ndk1::allocator<geode::Popup<DTLayer* const&>::CloseEvent::Impl> >::~__shared_ptr_emplace()
FUNC 3e448 2 0 std::__ndk1::__shared_ptr_emplace<geode::Popup<DTLayer* const&>::CloseEvent::Impl, std::__ndk1::allocator<geode::Popup<DTLayer* const&>::CloseEvent::Impl> >::__on_zero_shared()
FUNC 3e44a 4 0 std::__ndk1::__shared_ptr_emplace<geode::Popup<DTLayer* const&>::CloseEvent::Impl, std::__ndk1::allocator<geode::Popup<DTLayer* const&>::CloseEvent::Impl> >::__on_zero_shared_weak()
FUNC 3e450 150 0 DTGraphLayer::create(DTLayer* const&)
FUNC 3e5a0 f54 0 DTGraphLayer::setup(DTLayer* const&)
FUNC 3f4f4 a4 0 DTGraphLayer::onOverallInfo(cocos2d::CCObject*)
FUNC 3f598 6ac 0 DTGraphLayer::refreshGraph()
FUNC 3fc44 194 0 DTGraphLayer::switchedSessionRight(cocos2d::CCObject*)
FUNC 3fdd8 198 0 DTGraphLayer::switchedSessionLeft(cocos2d::CCObject*)
FUNC 3ff70 4c 0 DTGraphLayer::onViewModeButton(cocos2d::CCObject*)
FUNC 3ffbc 4c 0 DTGraphLayer::onRunViewModeButton(cocos2d::CCObject*)
FUNC 40008 50 0 DTGraphLayer::onTypeViewModeButton(cocos2d::CCObject*)
FUNC 40058 88 0 DTGraphLayer::RunChosen(int const&)
FUNC 400e0 1b20 0 DTGraphLayer::CreateGraph(std::__ndk1::vector<DeathInfo_s, std::__ndk1::allocator<DeathInfo_s> > const&, int const&, cocos2d::_ccColor3B const&, cocos2d::CCPoint const&, cocos2d::_ccColor4B const&, cocos2d::_ccColor4B const&, float const&, cocos2d::_ccColor4B const&, cocos2d::_ccColor4B const&, int const&, cocos2d::_ccColor4B const&, int const&, DTGraphLayer::GraphType const&)
FUNC 41c00 28e 0 std::__ndk1::vector<std::__ndk1::pair<int, int>, std::__ndk1::allocator<std::__ndk1::pair<int, int> > >::insert(std::__ndk1::__wrap_iter<std::__ndk1::pair<int, int> const*>, std::__ndk1::pair<int, int>&&)
FUNC 41e90 144 0 DTGraphLayer::OnPointSelected(cocos2d::CCNode*)
FUNC 41fd4 8 0 {virtual override thunk({offset(-524)}, DTGraphLayer::OnPointSelected(cocos2d::CCNode*))}
FUNC 41fdc 32 0 DTGraphLayer::OnPointDeselected(cocos2d::CCNode*)
FUNC 4200e 2c 0 {virtual override thunk({offset(-524)}, DTGraphLayer::OnPointDeselected(cocos2d::CCNode*))}
FUNC 4203c 270 0 DTGraphLayer::textChanged(CCTextInputNode*)
FUNC 422ac 8 0 {virtual override thunk({offset(-520)}, DTGraphLayer::textChanged(CCTextInputNode*))}
FUNC 422b4 c0 0 DTGraphLayer::textInputOpened(CCTextInputNode*)
FUNC 42374 8 0 {virtual override thunk({offset(-520)}, DTGraphLayer::textInputOpened(CCTextInputNode*))}
FUNC 4237c c4 0 DTGraphLayer::textInputClosed(CCTextInputNode*)
FUNC 42440 8 0 {virtual override thunk({offset(-520)}, DTGraphLayer::textInputClosed(CCTextInputNode*))}
FUNC 42448 42 0 DTGraphLayer::onClose(cocos2d::CCObject*)
FUNC 4248c 60 0 DTGraphLayer::~DTGraphLayer()
FUNC 424ec 60 0 {virtual override thunk({offset(-264)}, DTGraphLayer::~DTGraphLayer())}
FUNC 4254c 64 0 {virtual override thunk({offset(-264)}, DTGraphLayer::~DTGraphLayer())}
FUNC 425b0 2100 0 std::__ndk1::__introsort<std::__ndk1::_RangeAlgPolicy, DTGraphLayer::setup(DTLayer* const&)::$_0&, Session*, false>(Session*, Session*, DTGraphLayer::setup(DTLayer* const&)::$_0&, std::__ndk1::iterator_traits<Session*>::difference_type, bool)
FUNC 446b0 150 0 Session::Session(Session const&)
FUNC 44800 26 0 Session::~Session()
FUNC 44828 238 0 _ZNSt6__ndk124__sort5_maybe_branchlessB8ne180000INS_15_RangeAlgPolicyERZN12DTGraphLayer5setupERKP7DTLayerE3$_0P7SessionTnNS_9enable_ifIXntsr21__use_branchless_sortIT0_T1_EE5valueEiE4typeELi0EEEvSD_SD_SD_SD_SD_SC_
FUNC 44a60 2a8 0 std::__ndk1::__sort3[abi:ne180000]<std::__ndk1::_RangeAlgPolicy, DTGraphLayer::setup(DTLayer* const&)::$_0&, Session*>(Session*, Session*, Session*, DTGraphLayer::setup(DTLayer* const&)::$_0&)
FUNC 44d08 4e0 0 std::__ndk1::__insertion_sort_incomplete[abi:ne180000]<std::__ndk1::_RangeAlgPolicy, DTGraphLayer::setup(DTLayer* const&)::$_0&, Session*>(Session*, Session*, DTGraphLayer::setup(DTLayer* const&)::$_0&)
FUNC 451e8 b8 0 std::__ndk1::set<int, std::__ndk1::less<int>, std::__ndk1::allocator<int> >::insert[abi:ne180000]<std::__ndk1::__tree_const_iterator<int, std::__ndk1::__tree_node<int, void*>*, int> >(std::__ndk1::__tree_const_iterator<int, std::__ndk1::__tree_node<int, void*>*, int>, std::__ndk1::__tree_const_iterator<int, std::__ndk1::__tree_node<int, void*>*, int>)
FUNC 452a0 106 0 std::__ndk1::__tree<int, std::__ndk1::less<int>, std::__ndk1::allocator<int> >::__find_equal<int>(std::__ndk1::__tree_const_iterator<int, std::__ndk1::__tree_node<int, void*>*, int>, std::__ndk1::__tree_end_node<std::__ndk1::__tree_node_base<void*>*>*&, std::__ndk1::__tree_node_base<void*>*&, int const&)
FUNC 453a8 104 0 _ZNKSt6__ndk16ranges6__swap4__fnclB8ne180000ITkNS1_14__exchangeableE7SessionEEvRT_S6_
FUNC 454ac 168 0 std::__ndk1::exchange[abi:ne180000]<Session, std::__ndk1::exchange[abi:ne180000]>(Session&, std::__ndk1::exchange[abi:ne180000]&&)
FUNC 45614 1bc 0 std::__ndk1::__sort4[abi:ne180000]<std::__ndk1::_RangeAlgPolicy, DTGraphLayer::setup(DTLayer* const&)::$_0&, Session*>(Session*, Session*, Session*, Session*, DTGraphLayer::setup(DTLayer* const&)::$_0&)
FUNC 457d0 10 0 std::__ndk1::vector<cocos2d::CCSprite*, std::__ndk1::allocator<cocos2d::CCSprite*> >::__throw_length_error[abi:ne180000]() const
FUNC 457e0 10 0 std::__ndk1::vector<DeathInfo_s, std::__ndk1::allocator<DeathInfo_s> >::__throw_length_error[abi:ne180000]() const
FUNC 457f0 10 0 std::__ndk1::vector<cocos2d::CCPoint, std::__ndk1::allocator<cocos2d::CCPoint> >::__throw_length_error[abi:ne180000]() const
FUNC 45800 10 0 std::__ndk1::vector<std::__ndk1::pair<int, int>, std::__ndk1::allocator<std::__ndk1::pair<int, int> > >::__throw_length_error[abi:ne180000]() const
FUNC 45810 2 0 std::__ndk1::__function::__base<void (int const&)>::~__base()
FUNC 45812 4 0 std::__ndk1::__function::__func<std::__ndk1::__bind<void (DTGraphLayer::*)(int const&), DTGraphLayer*, std::__ndk1::placeholders::__ph<1> const&>, std::__ndk1::allocator<std::__ndk1::__bind<void (DTGraphLayer::*)(int const&), DTGraphLayer*, std::__ndk1::placeholders::__ph<1> const&> >, void (int const&)>::~__func()
FUNC 45818 28 0 std::__ndk1::__function::__func<std::__ndk1::__bind<void (DTGraphLayer::*)(int const&), DTGraphLayer*, std::__ndk1::placeholders::__ph<1> const&>, std::__ndk1::allocator<std::__ndk1::__bind<void (DTGraphLayer::*)(int const&), DTGraphLayer*, std::__ndk1::placeholders::__ph<1> const&> >, void (int const&)>::__clone() const
FUNC 45840 1c 0 std::__ndk1::__function::__func<std::__ndk1::__bind<void (DTGraphLayer::*)(int const&), DTGraphLayer*, std::__ndk1::placeholders::__ph<1> const&>, std::__ndk1::allocator<std::__ndk1::__bind<void (DTGraphLayer::*)(int const&), DTGraphLayer*, std::__ndk1::placeholders::__ph<1> const&> >, void (int const&)>::__clone(std::__ndk1::__function::__base<void (int const&)>*) const
FUNC 4585c 2 0 std::__ndk1::__function::__func<std::__ndk1::__bind<void (DTGraphLayer::*)(int const&), DTGraphLayer*, std::__ndk1::placeholders::__ph<1> const&>, std::__ndk1::allocator<std::__ndk1::__bind<void (DTGraphLayer::*)(int const&), DTGraphLayer*, std::__ndk1::placeholders::__ph<1> const&> >, void (int const&)>::destroy()
FUNC 4585e 4 0 std::__ndk1::__function::__func<std::__ndk1::__bind<void (DTGraphLayer::*)(int const&), DTGraphLayer*, std::__ndk1::placeholders::__ph<1> const&>, std::__ndk1::allocator<std::__ndk1::__bind<void (DTGraphLayer::*)(int const&), DTGraphLayer*, std::__ndk1::placeholders::__ph<1> const&> >, void (int const&)>::destroy_deallocate()
FUNC 45862 14 0 std::__ndk1::__function::__func<std::__ndk1::__bind<void (DTGraphLayer::*)(int const&), DTGraphLayer*, std::__ndk1::placeholders::__ph<1> const&>, std::__ndk1::allocator<std::__ndk1::__bind<void (DTGraphLayer::*)(int const&), DTGraphLayer*, std::__ndk1::placeholders::__ph<1> const&> >, void (int const&)>::operator()(int const&)
FUNC 45878 18 0 std::__ndk1::__function::__func<std::__ndk1::__bind<void (DTGraphLayer::*)(int const&), DTGraphLayer*, std::__ndk1::placeholders::__ph<1> const&>, std::__ndk1::allocator<std::__ndk1::__bind<void (DTGraphLayer::*)(int const&), DTGraphLayer*, std::__ndk1::placeholders::__ph<1> const&> >, void (int const&)>::target(std::type_info const&) const
FUNC 45890 c 0 std::__ndk1::__function::__func<std::__ndk1::__bind<void (DTGraphLayer::*)(int const&), DTGraphLayer*, std::__ndk1::placeholders::__ph<1> const&>, std::__ndk1::allocator<std::__ndk1::__bind<void (DTGraphLayer::*)(int const&), DTGraphLayer*, std::__ndk1::placeholders::__ph<1> const&> >, void (int const&)>::target_type() const
FUNC 458a0 ac 0 DTLayer::create(GJGameLevel* const&)
FUNC 4594c 244 0 DTLayer::DTLayer()
FUNC 45b90 13f8 0 DTLayer::setup(GJGameLevel* const&)
FUNC 46f88 e6c 0 DTLayer::UpdateSharedStats()
FUNC 47df4 3c 0 DTLayer::onEditLayout(cocos2d::CCObject*)
FUNC 47e30 50 0 DTLayer::OnLinkButtonClicked(cocos2d::CCObject*)
FUNC 47e80 2c 0 DTLayer::onSettings(cocos2d::CCObject*)
FUNC 47eac 448 0 DTLayer::onSpecificSettings(cocos2d::CCObject*)
FUNC 482f4 384 0 DTLayer::onEditLayoutApply(cocos2d::CCObject*)
FUNC 48680 24c 0 DTLayer::addBox(cocos2d::CCObject*)
FUNC 488cc 94 0 DTLayer::onLayoutInfo(cocos2d::CCObject*)
FUNC 48960 b4 0 DTLayer::onResetLayout(cocos2d::CCObject*)
FUNC 48a14 94 0 DTLayer::editnbcColor(cocos2d::CCObject*)
FUNC 48aa8 94 0 DTLayer::editsbcColor(cocos2d::CCObject*)
FUNC 48b3c ec 0 DTLayer::SwitchSessionRight(cocos2d::CCObject*)
FUNC 48c28 f0 0 DTLayer::SwitchSessionLeft(cocos2d::CCObject*)
FUNC 48d18 50 0 DTLayer::openGraphMenu(cocos2d::CCObject*)
FUNC 48d68 f0 0 DTLayer::copyText(cocos2d::CCObject*)
FUNC 48e58 94 0 DTLayer::onCopyInfo(cocos2d::CCObject*)
FUNC 48eec 388 0 DTLayer::createLayoutBlocks()
FUNC 49274 6a4 0 DTLayer::refreshAll(bool)
FUNC 49918 48 0 DTLayer::update(float)
FUNC 49960 1fc 0 DTLayer::EditLayoutEnabled(bool const&)
FUNC 49b5c 158 0 DTLayer::textChanged(CCTextInputNode*)
FUNC 49cb4 418 0 DTLayer::refreshSession(bool)
FUNC 4a0cc 8 0 {virtual override thunk({offset(-520)}, DTLayer::textChanged(CCTextInputNode*))}
FUNC 4a0d4 b8 0 DTLayer::textInputOpened(CCTextInputNode*)
FUNC 4a18c 8 0 {virtual override thunk({offset(-520)}, DTLayer::textInputOpened(CCTextInputNode*))}
FUNC 4a194 ac 0 DTLayer::textInputClosed(CCTextInputNode*)
FUNC 4a240 8 0 {virtual override thunk({offset(-520)}, DTLayer::textInputClosed(CCTextInputNode*))}
FUNC 4a248 564 0 DTLayer::updateSessionString(int const&)
FUNC 4a7ac 154 0 geode::Task<geode::Result<void, std::__ndk1::basic_string<char, std::__ndk1::char_traits<char>, std::__ndk1::allocator<char> > >, std::__ndk1::monostate>::immediate(geode::Result<void, std::__ndk1::basic_string<char, std::__ndk1::char_traits<char>, std::__ndk1::allocator<char> > >, std::__ndk1::basic_string_view<char, std::__ndk1::char_traits<char> >)
FUNC 4a900 1d8 0 DTLayer::CreateDeathsInfo(std::__ndk1::map<std::__ndk1::basic_string<char, std::__ndk1::char_traits<char>, std::__ndk1::allocator<char> >, int, std::__ndk1::less<std::__ndk1::basic_string<char, std::__ndk1::char_traits<char>, std::__ndk1::allocator<char> > >, std::__ndk1::allocator<std::__ndk1::pair<std::__ndk1::basic_string<char, std::__ndk1::char_traits<char>, std::__ndk1::allocator<char> > const, int> > > const&, std::__ndk1::set<int, std::__ndk1::less<int>, std::__ndk1::allocator<int> > const&)
FUNC 4aad8 26 0 DTLayer::updateSessionString(int const&)::$_0::~$_0()
FUNC 4aafe 3a 0 geode::Task<geode::Result<std::__ndk1::vector<DeathInfo_s, std::__ndk1::allocator<DeathInfo_s> >, std::__ndk1::basic_string<char, std::__ndk1::char_traits<char>, std::__ndk1::allocator<char> > >, std::__ndk1::monostate>::~Task()
FUNC 4ab38 3a 0 geode::Task<geode::Result<void, std::__ndk1::basic_string<char, std::__ndk1::char_traits<char>, std::__ndk1::allocator<char> > >, std::__ndk1::monostate>::~Task()
FUNC 4ab74 70 0 DTLayer::ccTouchBegan(cocos2d::CCTouch*, cocos2d::CCEvent*)
FUNC 4abe4 70 0 {virtual override thunk({offset(-264)}, DTLayer::ccTouchBegan(cocos2d::CCTouch*, cocos2d::CCEvent*))}
FUNC 4ac54 68 0 DTLayer::ccTouchMoved(cocos2d::CCTouch*, cocos2d::CCEvent*)
FUNC 4acbc 68 0 {virtual override thunk({offset(-264)}, DTLayer::ccTouchMoved(cocos2d::CCTouch*, cocos2d::CCEvent*))}
FUNC 4ad24 8 0 DTLayer::ccTouchEnded(cocos2d::CCTouch*, cocos2d::CCEvent*)
FUNC 4ad2c 8 0 {virtual override thunk({offset(-264)}, DTLayer::ccTouchEnded(cocos2d::CCTouch*, cocos2d::CCEvent*))}
FUNC 4ad34 8 0 DTLayer::ccTouchCancelled(cocos2d::CCTouch*, cocos2d::CCEvent*)
FUNC 4ad3c 8 0 {virtual override thunk({offset(-264)}, DTLayer::ccTouchCancelled(cocos2d::CCTouch*, cocos2d::CCEvent*))}
FUNC 4ad44 334 0 DTLayer::changeScrollSizeByBoxes(bool const&)
FUNC 4b078 e50 0 DTLayer::RefreshText(bool)
FUNC 4bec8 b04 0 DTLayer::modifyString(std::__ndk1::basic_string<char, std::__ndk1::char_traits<char>, std::__ndk1::allocator<char> >)
FUNC 4c9cc 238 0 geode::Task<geode::Result<std::__ndk1::vector<DeathInfo_s, std::__ndk1::allocator<DeathInfo_s> >, std::__ndk1::basic_string<char, std::__ndk1::char_traits<char>, std::__ndk1::allocator<char> > >, std::__ndk1::monostate>::run(std::__ndk1::function<geode::Task<geode::Result<std::__ndk1::vector<DeathInfo_s, std::__ndk1::allocator<DeathInfo_s> >, std::__ndk1::basic_string<char, std::__ndk1::char_traits<char>, std::__ndk1::allocator<char> > >, std::__ndk1::monostate>::Result(std::__ndk1::function<void (std::__ndk1::monostate)>, std::__ndk1::function<bool ()>)>&&, std::__ndk1::basic_string_view<char, std::__ndk1::char_traits<char> >)
FUNC 4cc04 1a 0 DTLayer::CreateDeathsInfo(std::__ndk1::map<std::__ndk1::basic_string<char, std::__ndk1::char_traits<char>, std::__ndk1::allocator<char> >, int, std::__ndk1::less<std::__ndk1::basic_string<char, std::__ndk1::char_traits<char>, std::__ndk1::allocator<char> > >, std::__ndk1::allocator<std::__ndk1::pair<std::__ndk1::basic_string<char, std::__ndk1::char_traits<char>, std::__ndk1::allocator<char> > const, int> > > const&, std::__ndk1::set<int, std::__ndk1::less<int>, std::__ndk1::allocator<int> > const&)::$_0::~$_0()
FUNC 4cc20 174 0 DTLayer::CreateRunsInfo(std::__ndk1::map<std::__ndk1::basic_string<char, std::__ndk1::char_traits<char>, std::__ndk1::allocator<char> >, int, std::__ndk1::less<std::__ndk1::basic_string<char, std::__ndk1::char_traits<char>, std::__ndk1::allocator<char> > >, std::__ndk1::allocator<std::__ndk1::pair<std::__ndk1::basic_string<char, std::__ndk1::char_traits<char>, std::__ndk1::allocator<char> > const, int> > >)
FUNC 4cd94 124 0 std::__ndk1::basic_stringstream<char, std::__ndk1::char_traits<char>, std::__ndk1::allocator<char> >::basic_stringstream[abi:ne180000](std::__ndk1::basic_string<char, std::__ndk1::char_traits<char>, std::__ndk1::allocator<char> > const&, unsigned int)
FUNC 4ceb8 108 0 std::__ndk1::getline[abi:ne180000]<char, std::__ndk1::char_traits<char>, std::__ndk1::allocator<char> >(std::__ndk1::basic_istream<char, std::__ndk1::char_traits<char> >, std::__ndk1::basic_string<std::__ndk1::basic_istream, char, std::__ndk1::allocator<char> >&, std::__ndk1::basic_istream)
FUNC 4cfc0 10c 0 geode::utils::numFromString<float>(std::__ndk1::basic_string_view<char, std::__ndk1::char_traits<char> >, int)
FUNC 4d0cc 6c 0 geode::log::error<char const*>(fmt::v11::basic_format_string<char, fmt::v11::type_identity<std::__ndk1::conditional<IsWrappedCocos<char const*>, decltype ((wrapCocosObj<char const*>)((std::declval<char const*>)())), char const*>::type>::type>, char const*&&)
FUNC 4d138 72c 0 DTLayer::updatePlaytime(std::__ndk1::vector<DeathInfo_s, std::__ndk1::allocator<DeathInfo_s> >, bool)
FUNC 4d864 22 0 LabelLayout::~LabelLayout()
FUNC 4d890 560 0 DTLayer::FLAlert_Clicked(FLAlertLayer*, bool)
FUNC 4ddf0 8 0 {virtual override thunk({offset(-524)}, DTLayer::FLAlert_Clicked(FLAlertLayer*, bool))}
FUNC 4ddf8 bc 0 DTLayer::onClose(cocos2d::CCObject*)
FUNC 4deb4 d4 0 LevelStats_s::operator=(LevelStats_s const&)
FUNC 4df88 60 0 geode::impl::ResultData<LevelStats_s, std::__ndk1::basic_string<char, std::__ndk1::char_traits<char>, std::__ndk1::allocator<char> > >::~ResultData()
FUNC 4dfe8 d4 0 std::__ndk1::vector<Session, std::__ndk1::allocator<Session> >::reserve(unsigned int)
FUNC 4e0bc 230 0 DTLayer::clickedWindow(cocos2d::CCNode*)
FUNC 4e2ec 48 0 cocos2d::CCSequence::create(cocos2d::CCFiniteTimeAction*, ...)
FUNC 4e334 98 0 DTLayer::onMoveTransitionEnded(cocos2d::CCObject*)
FUNC 4e3cc 58 0 DTLayer::updateColor(cocos2d::_ccColor4B const&)
FUNC 4e424 58 0 {virtual override thunk({offset(-528)}, DTLayer::updateColor(cocos2d::_ccColor4B const&))}
FUNC 4e47c e 0 DTLayer::onRefreshFinished(geode::Task<geode::Result<void, std::__ndk1::basic_string<char, std::__ndk1::char_traits<char>, std::__ndk1::allocator<char> > >, std::__ndk1::monostate>::Event*)
FUNC 4e48c 1c0 0 DTLayer::~DTLayer()
FUNC 4e64c 10 0 DTLayer::~DTLayer()
FUNC 4e65c 20 0 geode::Popup<GJGameLevel* const&>::registerWithTouchDispatcher()
FUNC 4e67c 18 0 geode::Popup<GJGameLevel* const&>::keyDown(cocos2d::enumKeyCodes)
FUNC 4e694 8 0 {virtual override thunk({offset(-264)}, DTLayer::~DTLayer())}
FUNC 4e69c 14 0 {virtual override thunk({offset(-264)}, DTLayer::~DTLayer())}
FUNC 4e6b0 1c 0 {virtual override thunk({offset(-276)}, geode::Popup<GJGameLevel* const&>::keyDown(cocos2d::enumKeyCodes))}
FUNC 4e6cc d0 0 LevelStats_s::LevelStats_s()
FUNC 4e79c 5c 0 geode::Popup<GJGameLevel* const&>::~Popup()
FUNC 4e7f8 2 0 geode::Popup<GJGameLevel* const&>::~Popup()
FUNC 4e7fc e4 0 geode::Popup<GJGameLevel* const&>::onClose(cocos2d::CCObject*)
FUNC 4e8e0 60 0 {virtual override thunk({offset(-264)}, geode::Popup<GJGameLevel* const&>::~Popup())}
FUNC 4e940 2 0 {virtual override thunk({offset(-264)}, geode::Popup<GJGameLevel* const&>::~Popup())}
FUNC 4e942 44 0 geode::Popup<GJGameLevel* const&>::CloseEvent::~CloseEvent()
FUNC 4e986 40 0 geode::Popup<GJGameLevel* const&>::CloseEvent::~CloseEvent()
FUNC 4e9c8 10 0 std::__ndk1::__shared_ptr_emplace<geode::Popup<GJGameLevel* const&>::CloseEvent::Impl, std::__ndk1::allocator<geode::Popup<GJGameLevel* const&>::CloseEvent::Impl> >::~__shared_ptr_emplace()
FUNC 4e9d8 1c 0 std::__ndk1::__shared_ptr_emplace<geode::Popup<GJGameLevel* const&>::CloseEvent::Impl, std::__ndk1::allocator<geode::Popup<GJGameLevel* const&>::CloseEvent::Impl> >::~__shared_ptr_emplace()
FUNC 4e9f4 2 0 std::__ndk1::__shared_ptr_emplace<geode::Popup<GJGameLevel* const&>::CloseEvent::Impl, std::__ndk1::allocator<geode::Popup<GJGameLevel* const&>::CloseEvent::Impl> >::__on_zero_shared()
FUNC 4e9f6 4 0 std::__ndk1::__shared_ptr_emplace<geode::Popup<GJGameLevel* const&>::CloseEvent::Impl, std::__ndk1::allocator<geode::Popup<GJGameLevel* const&>::CloseEvent::Impl> >::__on_zero_shared_weak()
FUNC 4e9fa 50 0 std::__ndk1::vector<Session, std::__ndk1::allocator<Session> >::~vector[abi:ne180000]()
FUNC 4ea4c 168 0 geode::Task<geode::Result<void, std::__ndk1::basic_string<char, std::__ndk1::char_traits<char>, std::__ndk1::allocator<char> > >, std::__ndk1::monostate>::setListener(geode::EventListenerProtocol*)
FUNC 4ebb4 4 0 geode::EventListener<geode::Task<geode::Result<void, std::__ndk1::basic_string<char, std::__ndk1::char_traits<char>, std::__ndk1::allocator<char> > >, std::__ndk1::monostate> >::getPool() const
FUNC 4ebb8 e8 0 geode::EventListener<geode::Task<geode::Result<void, std::__ndk1::basic_string<char, std::__ndk1::char_traits<char>, std::__ndk1::allocator<char> > >, std::__ndk1::monostate> >::handle(geode::Event*)
FUNC 4eca0 68 0 geode::EventListener<geode::Task<geode::Result<void, std::__ndk1::basic_string<char, std::__ndk1::char_traits<char>, std::__ndk1::allocator<char> > >, std::__ndk1::monostate> >::~EventListener()
FUNC 4ed08 6c 0 geode::EventListener<geode::Task<geode::Result<void, std::__ndk1::basic_string<char, std::__ndk1::char_traits<char>, std::__ndk1::allocator<char> > >, std::__ndk1::monostate> >::~EventListener()
FUNC 4ed74 3a 0 geode::Task<geode::Result<void, std::__ndk1::basic_string<char, std::__ndk1::char_traits<char>, std::__ndk1::allocator<char> > >, std::__ndk1::monostate>::setListener(geode::EventListenerProtocol*)::{lambda()#1}::~{lambda()#1}()
FUNC 4edae 3a 0 geode::Task<geode::Result<void, std::__ndk1::basic_string<char, std::__ndk1::char_traits<char>, std::__ndk1::allocator<char> > >, std::__ndk1::monostate>::setListener(geode::EventListenerProtocol*)::{lambda()#2}::~{lambda()#2}()
FUNC 4ede8 48 0 std::__ndk1::__function::__func<geode::Task<geode::Result<void, std::__ndk1::basic_string<char, std::__ndk1::char_traits<char>, std::__ndk1::allocator<char> > >, std::__ndk1::monostate>::setListener(geode::EventListenerProtocol*)::{lambda()#1}, std::__ndk1::allocator<geode::Task<geode::Result<void, std::__ndk1::basic_string<char, std::__ndk1::char_traits<char>, std::__ndk1::allocator<char> > >, std::__ndk1::monostate>::setListener(geode::EventListenerProtocol*)::{lambda()#1}>, void ()>::~__func()
FUNC 4ee30 54 0 std::__ndk1::__function::__func<geode::Task<geode::Result<void, std::__ndk1::basic_string<char, std::__ndk1::char_traits<char>, std::__ndk1::allocator<char> > >, std::__ndk1::monostate>::setListener(geode::EventListenerProtocol*)::{lambda()#1}, std::__ndk1::allocator<geode::Task<geode::Result<void, std::__ndk1::basic_string<char, std::__ndk1::char_traits<char>, std::__ndk1::allocator<char> > >, std::__ndk1::monostate>::setListener(geode::EventListenerProtocol*)::{lambda()#1}>, void ()>::~__func()
FUNC 4ee84 40 0 std::__ndk1::__function::__func<geode::Task<geode::Result<void, std::__ndk1::basic_string<char, std::__ndk1::char_traits<char>, std::__ndk1::allocator<char> > >, std::__ndk1::monostate>::setListener(geode::EventListenerProtocol*)::{lambda()#1}, std::__ndk1::allocator<geode::Task<geode::Result<void, std::__ndk1::basic_string<char, std::__ndk1::char_traits<char>, std::__ndk1::allocator<char> > >, std::__ndk1::monostate>::setListener(geode::EventListenerProtocol*)::{lambda()#1}>, void ()>::__clone() const
FUNC 4eec4 34 0 std::__ndk1::__function::__func<geode::Task<geode::Result<void, std::__ndk1::basic_string<char, std::__ndk1::char_traits<char>, std::__ndk1::allocator<char> > >, std::__ndk1::monostate>::setListener(geode::EventListenerProtocol*)::{lambda()#1}, std::__ndk1::allocator<geode::Task<geode::Result<void, std::__ndk1::basic_string<char, std::__ndk1::char_traits<char>, std::__ndk1::allocator<char> > >, std::__ndk1::monostate>::setListener(geode::EventListenerProtocol*)::{lambda()#1}>, void ()>::__clone(std::__ndk1::__function::__base<void ()>*) const
FUNC 4eef8 3a 0 std::__ndk1::__function::__func<geode::Task<geode::Result<void, std::__ndk1::basic_string<char, std::__ndk1::char_traits<char>, std::__ndk1::allocator<char> > >, std::__ndk1::monostate>::setListener(geode::EventListenerProtocol*)::{lambda()#1}, std::__ndk1::allocator<geode::Task<geode::Result<void, std::__ndk1::basic_string<char, std::__ndk1::char_traits<char>, std::__ndk1::allocator<char> > >, std::__ndk1::monostate>::setListener(geode::EventListenerProtocol*)::{lambda()#1}>, void ()>::destroy()
FUNC 4ef32 44 0 std::__ndk1::__function::__func<geode::Task<geode::Result<void, std::__ndk1::basic_string<char, std::__ndk1::char_traits<char>, std::__ndk1::allocator<char> > >, std::__ndk1::monostate>::setListener(geode::EventListenerProtocol*)::{lambda()#1}, std::__ndk1::allocator<geode::Task<geode::Result<void, std::__ndk1::basic_string<char, std::__ndk1::char_traits<char>, std::__ndk1::allocator<char> > >, std::__ndk1::monostate>::setListener(geode::EventListenerProtocol*)::{lambda()#1}>, void ()>::destroy_deallocate()
FUNC 4ef78 150 0 std::__ndk1::__function::__func<geode::Task<geode::Result<void, std::__ndk1::basic_string<char, std::__ndk1::char_traits<char>, std::__ndk1::allocator<char> > >, std::__ndk1::monostate>::setListener(geode::EventListenerProtocol*)::{lambda()#1}, std::__ndk1::allocator<geode::Task<geode::Result<void, std::__ndk1::basic_string<char, std::__ndk1::char_traits<char>, std::__ndk1::allocator<char> > >, std::__ndk1::monostate>::setListener(geode::EventListenerProtocol*)::{lambda()#1}>, void ()>::operator()()
FUNC 4f0c8 18 0 std::__ndk1::__function::__func<geode::Task<geode::Result<void, std::__ndk1::basic_string<char, std::__ndk1::char_traits<char>, std::__ndk1::allocator<char> > >, std::__ndk1::monostate>::setListener(geode::EventListenerProtocol*)::{lambda()#1}, std::__ndk1::allocator<geode::Task<geode::Result<void, std::__ndk1::basic_string<char, std::__ndk1::char_traits<char>, std::__ndk1::allocator<char> > >, std::__ndk1::monostate>::setListener(geode::EventListenerProtocol*)::{lambda()#1}>, void ()>::target(std::type_info const&) const
FUNC 4f0e0 c 0 std::__ndk1::__function::__func<geode::Task<geode::Result<void, std::__ndk1::basic_string<char, std::__ndk1::char_traits<char>, std::__ndk1::allocator<char> > >, std::__ndk1::monostate>::setListener(geode::EventListenerProtocol*)::{lambda()#1}, std::__ndk1::allocator<geode::Task<geode::Result<void, std::__ndk1::basic_string<char, std::__ndk1::char_traits<char>, std::__ndk1::allocator<char> > >, std::__ndk1::monostate>::setListener(geode::EventListenerProtocol*)::{lambda()#1}>, void ()>::target_type() const
FUNC 4f0ec 3a 0 std::__ndk1::shared_ptr<geode::Task<geode::Result<void, std::__ndk1::basic_string<char, std::__ndk1::char_traits<char>, std::__ndk1::allocator<char> > >, std::__ndk1::monostate>::Handle>::~shared_ptr[abi:ne180000]()
FUNC 4f126 44 0 geode::Task<geode::Result<void, std::__ndk1::basic_string<char, std::__ndk1::char_traits<char>, std::__ndk1::allocator<char> > >, std::__ndk1::monostate>::Event::~Event()
FUNC 4f16a 40 0 geode::Task<geode::Result<void, std::__ndk1::basic_string<char, std::__ndk1::char_traits<char>, std::__ndk1::allocator<char> > >, std::__ndk1::monostate>::Event::~Event()
FUNC 4f1ac 48 0 std::__ndk1::__function::__func<geode::Task<geode::Result<void, std::__ndk1::basic_string<char, std::__ndk1::char_traits<char>, std::__ndk1::allocator<char> > >, std::__ndk1::monostate>::setListener(geode::EventListenerProtocol*)::{lambda()#2}, std::__ndk1::allocator<geode::Task<geode::Result<void, std::__ndk1::basic_string<char, std::__ndk1::char_traits<char>, std::__ndk1::allocator<char> > >, std::__ndk1::monostate>::setListener(geode::EventListenerProtocol*)::{lambda()#2}>, void ()>::~__func()
FUNC 4f1f4 54 0 std::__ndk1::__function::__func<geode::Task<geode::Result<void, std::__ndk1::basic_string<char, std::__ndk1::char_traits<char>, std::__ndk1::allocator<char> > >, std::__ndk1::monostate>::setListener(geode::EventListenerProtocol*)::{lambda()#2}, std::__ndk1::allocator<geode::Task<geode::Result<void, std::__ndk1::basic_string<char, std::__ndk1::char_traits<char>, std::__ndk1::allocator<char> > >, std::__ndk1::monostate>::setListener(geode::EventListenerProtocol*)::{lambda()#2}>, void ()>::~__func()
FUNC 4f248 3c 0 std::__ndk1::__function::__func<geode::Task<geode::Result<void, std::__ndk1::basic_string<char, std::__ndk1::char_traits<char>, std::__ndk1::allocator<char> > >, std::__ndk1::monostate>::setListener(geode::EventListenerProtocol*)::{lambda()#2}, std::__ndk1::allocator<geode::Task<geode::Result<void, std::__ndk1::basic_string<char, std::__ndk1::char_traits<char>, std::__ndk1::allocator<char> > >, std::__ndk1::monostate>::setListener(geode::EventListenerProtocol*)::{lambda()#2}>, void ()>::__clone() const
FUNC 4f284 30 0 std::__ndk1::__function::__func<geode::Task<geode::Result<void, std::__ndk1::basic_string<char, std::__ndk1::char_traits<char>, std::__ndk1::allocator<char> > >, std::__ndk1::monostate>::setListener(geode::EventListenerProtocol*)::{lambda()#2}, std::__ndk1::allocator<geode::Task<geode::Result<void, std::__ndk1::basic_string<char, std::__ndk1::char_traits<char>, std::__ndk1::allocator<char> > >, std::__ndk1::monostate>::setListener(geode::EventListenerProtocol*)::{lambda()#2}>, void ()>::__clone(std::__ndk1::__function::__base<void ()>*) const
FUNC 4f2b4 3a 0 std::__ndk1::__function::__func<geode::Task<geode::Result<void, std::__ndk1::basic_string<char, std::__ndk1::char_traits<char>, std::__ndk1::allocator<char> > >, std::__ndk1::monostate>::setListener(geode::EventListenerProtocol*)::{lambda()#2}, std::__ndk1::allocator<geode::Task<geode::Result<void, std::__ndk1::basic_string<char, std::__ndk1::char_traits<char>, std::__ndk1::allocator<char> > >, std::__ndk1::monostate>::setListener(geode::EventListenerProtocol*)::{lambda()#2}>, void ()>::destroy()
FUNC 4f2ee 44 0 std::__ndk1::__function::__func<geode::Task<geode::Result<void, std::__ndk1::basic_string<char, std::__ndk1::char_traits<char>, std::__ndk1::allocator<char> > >, std::__ndk1::monostate>::setListener(geode::EventListenerProtocol*)::{lambda()#2}, std::__ndk1::allocator<geode::Task<geode::Result<void, std::__ndk1::basic_string<char, std::__ndk1::char_traits<char>, std::__ndk1::allocator<char> > >, std::__ndk1::monostate>::setListener(geode::EventListenerProtocol*)::{lambda()#2}>, void ()>::destroy_deallocate()
FUNC 4f334 150 0 std::__ndk1::__function::__func<geode::Task<geode::Result<void, std::__ndk1::basic_string<char, std::__ndk1::char_traits<char>, std::__ndk1::allocator<char> > >, std::__ndk1::monostate>::setListener(geode::EventListenerProtocol*)::{lambda()#2}, std::__ndk1::allocator<geode::Task<geode::Result<void, std::__ndk1::basic_string<char, std::__ndk1::char_traits<char>, std::__ndk1::allocator<char> > >, std::__ndk1::monostate>::setListener(geode::EventListenerProtocol*)::{lambda()#2}>, void ()>::operator()()
FUNC 4f484 18 0 std::__ndk1::__function::__func<geode::Task<geode::Result<void, std::__ndk1::basic_string<char, std::__ndk1::char_traits<char>, std::__ndk1::allocator<char> > >, std::__ndk1::monostate>::setListener(geode::EventListenerProtocol*)::{lambda()#2}, std::__ndk1::allocator<geode::Task<geode::Result<void, std::__ndk1::basic_string<char, std::__ndk1::char_traits<char>, std::__ndk1::allocator<char> > >, std::__ndk1::monostate>::setListener(geode::EventListenerProtocol*)::{lambda()#2}>, void ()>::target(std::type_info const&) const
FUNC 4f49c c 0 std::__ndk1::__function::__func<geode::Task<geode::Result<void, std::__ndk1::basic_string<char, std::__ndk1::char_traits<char>, std::__ndk1::allocator<char> > >, std::__ndk1::monostate>::setListener(geode::EventListenerProtocol*)::{lambda()#2}, std::__ndk1::allocator<geode::Task<geode::Result<void, std::__ndk1::basic_string<char, std::__ndk1::char_traits<char>, std::__ndk1::allocator<char> > >, std::__ndk1::monostate>::setListener(geode::EventListenerProtocol*)::{lambda()#2}>, void ()>::target_type() const
FUNC 4f4a8 3a 0 std::__ndk1::shared_ptr<geode::Task<geode::Result<std::__ndk1::vector<DeathInfo_s, std::__ndk1::allocator<DeathInfo_s> >, std::__ndk1::basic_string<char, std::__ndk1::char_traits<char>, std::__ndk1::allocator<char> > >, std::__ndk1::monostate>::Handle>::~shared_ptr[abi:ne180000]()
FUNC 4f4e2 4e 0 std::__ndk1::__split_buffer<LabelLayout, std::__ndk1::allocator<LabelLayout>&>::~__split_buffer()
FUNC 4f530 10 0 std::__ndk1::vector<LabelLayout, std::__ndk1::allocator<LabelLayout> >::__throw_length_error[abi:ne180000]() const
FUNC 4f540 10 0 std::__ndk1::vector<LabelLayoutWindow*, std::__ndk1::allocator<LabelLayoutWindow*> >::__throw_length_error[abi:ne180000]() const
FUNC 4f550 73a 0 std::__ndk1::__introsort<std::__ndk1::_RangeAlgPolicy, DTLayer::changeScrollSizeByBoxes(bool const&)::$_0&, LabelLayoutWindow**, false>(LabelLayoutWindow**, LabelLayoutWindow**, DTLayer::changeScrollSizeByBoxes(bool const&)::$_0&, std::__ndk1::iterator_traits<LabelLayoutWindow**>::difference_type, bool)
FUNC 4fc8a 11c 0 _ZNSt6__ndk124__sort5_maybe_branchlessB8ne180000INS_15_RangeAlgPolicyERZN7DTLayer23changeScrollSizeByBoxesERKbE3$_0PP17LabelLayoutWindowTnNS_9enable_ifIXntsr21__use_branchless_sortIT0_T1_EE5valueEiE4typeELi0EEEvSC_SC_SC_SC_SC_SB_
FUNC 4fda8 20c 0 std::__ndk1::__insertion_sort_incomplete[abi:ne180000]<std::__ndk1::_RangeAlgPolicy, DTLayer::changeScrollSizeByBoxes(bool const&)::$_0&, LabelLayoutWindow**>(LabelLayoutWindow**, LabelLayoutWindow**, DTLayer::changeScrollSizeByBoxes(bool const&)::$_0&)
FUNC 4ffb4 10 0 std::__ndk1::vector<cocos2d::CCNode*, std::__ndk1::allocator<cocos2d::CCNode*> >::__throw_length_error[abi:ne180000]() const
FUNC 4ffc4 10 0 std::__ndk1::vector<std::__ndk1::tuple<geode::SimpleTextArea*, int, int>, std::__ndk1::allocator<std::__ndk1::tuple<geode::SimpleTextArea*, int, int> > >::__throw_length_error[abi:ne180000]() const
FUNC 4ffd4 1c 0 std::__ndk1::basic_string<char, std::__ndk1::char_traits<char>, std::__ndk1::allocator<char> >::__assign_external(char const*)
FUNC 4fff0 24 0 std::__ndk1::__tree<std::__ndk1::__value_type<int, bool>, std::__ndk1::__map_value_compare<int, std::__ndk1::__value_type<int, bool>, std::__ndk1::less<int>, true>, std::__ndk1::allocator<std::__ndk1::__value_type<int, bool> > >::destroy(std::__ndk1::__tree_node<std::__ndk1::__value_type<int, bool>, void*>*)
FUNC 50014 2 0 std::__ndk1::__variant_detail::__visitation::__base::__dispatcher<(unsigned int)0>::__dispatch[abi:ne180000]<std::__ndk1::__variant_detail::__dtor<std::__ndk1::__variant_detail::__traits<float, std::__ndk1::basic_string<char, std::__ndk1::char_traits<char>, std::__ndk1::allocator<char> > >, (std::__ndk1::__variant_detail::_Trait)1>::__destroy[abi:ne180000]()::{lambda(auto:1&)#1}, std::__ndk1::__variant_detail::__base<(std::__ndk1::__variant_detail::__traits<float, std::__ndk1::basic_string<char, std::__ndk1::char_traits<char>, std::__ndk1::allocator<char> > >)1, float, std::__ndk1::allocator<char> >&>(std::__ndk1::__variant_detail::__dtor<std::__ndk1::__variant_detail::__traits<float, std::__ndk1::basic_string<char, std::__ndk1::char_traits<char>, std::__ndk1::allocator<char> > >, (std::__ndk1::__variant_detail::_Trait)1>, std::__ndk1::__variant_detail::__base<(std::__ndk1::__variant_detail::__traits<float, std::__ndk1::basic_string<char, std::__ndk1::char_traits<char>, std::__ndk1::allocator<char> > >)1, float, std::__ndk1::allocator<char> >&)
FUNC 50016 e 0 std::__ndk1::__variant_detail::__visitation::__base::__dispatcher<(unsigned int)1>::__dispatch[abi:ne180000]<std::__ndk1::__variant_detail::__dtor<std::__ndk1::__variant_detail::__traits<float, std::__ndk1::basic_string<char, std::__ndk1::char_traits<char>, std::__ndk1::allocator<char> > >, (std::__ndk1::__variant_detail::_Trait)1>::__destroy[abi:ne180000]()::{lambda(auto:1&)#1}, std::__ndk1::__variant_detail::__base<(std::__ndk1::__variant_detail::__traits<float, std::__ndk1::basic_string<char, std::__ndk1::char_traits<char>, std::__ndk1::allocator<char> > >)1, float, std::__ndk1::allocator<char> >&>(std::__ndk1::__variant_detail::__dtor<std::__ndk1::__variant_detail::__traits<float, std::__ndk1::basic_string<char, std::__ndk1::char_traits<char>, std::__ndk1::allocator<char> > >, (std::__ndk1::__variant_detail::_Trait)1>, std::__ndk1::__variant_detail::__base<(std::__ndk1::__variant_detail::__traits<float, std::__ndk1::basic_string<char, std::__ndk1::char_traits<char>, std::__ndk1::allocator<char> > >)1, float, std::__ndk1::allocator<char> >&)
FUNC 50024 5c 0 std::__ndk1::__exception_guard_exceptions<std::__ndk1::vector<LabelLayout, std::__ndk1::allocator<LabelLayout> >::__destroy_vector>::~__exception_guard_exceptions[abi:ne180000]()
FUNC 50080 dc 0 std::__ndk1::__uninitialized_allocator_copy_impl[abi:ne180000]<std::__ndk1::allocator<LabelLayout>, std::__ndk1::allocator const*, std::__ndk1::allocator const, std::__ndk1::allocator*>(std::__ndk1::allocator<LabelLayout>&, std::__ndk1::allocator const*, std::__ndk1::allocator const, std::__ndk1::allocator*)
FUNC 5015c 4a 0 std::__ndk1::__exception_guard_exceptions<std::__ndk1::_AllocatorDestroyRangeReverse<std::__ndk1::allocator<LabelLayout>, LabelLayout*> >::~__exception_guard_exceptions[abi:ne180000]()
FUNC 501a8 1f0 0 std::__ndk1::__tree<std::__ndk1::__value_type<std::__ndk1::basic_string<char, std::__ndk1::char_traits<char>, std::__ndk1::allocator<char> >, int>, std::__ndk1::__map_value_compare<std::__ndk1::basic_string<char, std::__ndk1::char_traits<char>, std::__ndk1::allocator<char> >, std::__ndk1::__value_type<std::__ndk1::basic_string<char, std::__ndk1::char_traits<char>, std::__ndk1::allocator<char> >, int>, std::__ndk1::less<std::__ndk1::basic_string<char, std::__ndk1::char_traits<char>, std::__ndk1::allocator<char> > >, true>, std::__ndk1::allocator<std::__ndk1::__value_type<std::__ndk1::basic_string<char, std::__ndk1::char_traits<char>, std::__ndk1::allocator<char> >, int> > >::__assign_multi<std::__ndk1::__tree_const_iterator<std::__ndk1::__value_type<std::__ndk1::basic_string<char, std::__ndk1::char_traits<char>, std::__ndk1::allocator<char> >, int>, std::__ndk1::__tree_node<std::__ndk1::__value_type<std::__ndk1::basic_string<char, std::__ndk1::char_traits<char>, std::__ndk1::allocator<char> >, int>, void*>*, int> >(std::__ndk1::__tree_const_iterator<std::__ndk1::__value_type<std::__ndk1::basic_string<char, std::__ndk1::char_traits<char>, std::__ndk1::allocator<char> >, int>, std::__ndk1::__tree_node<std::__ndk1::__value_type<std::__ndk1::basic_string<char, std::__ndk1::char_traits<char>, std::__ndk1::allocator<char> >, int>, void*>*, int>, std::__ndk1::__tree_const_iterator<std::__ndk1::__value_type<std::__ndk1::basic_string<char, std::__ndk1::char_traits<char>, std::__ndk1::allocator<char> >, int>, std::__ndk1::__tree_node<std::__ndk1::__value_type<std::__ndk1::basic_string<char, std::__ndk1::char_traits<char>, std::__ndk1::allocator<char> >, int>, void*>*, int>)
FUNC 50398 b6 0 std::__ndk1::__tree<std::__ndk1::__value_type<std::__ndk1::basic_string<char, std::__ndk1::char_traits<char>, std::__ndk1::allocator<char> >, int>, std::__ndk1::__map_value_compare<std::__ndk1::basic_string<char, std::__ndk1::char_traits<char>, std::__ndk1::allocator<char> >, std::__ndk1::__value_type<std::__ndk1::basic_string<char, std::__ndk1::char_traits<char>, std::__ndk1::allocator<char> >, int>, std::__ndk1::less<std::__ndk1::basic_string<char, std::__ndk1::char_traits<char>, std::__ndk1::allocator<char> > >, true>, std::__ndk1::allocator<std::__ndk1::__value_type<std::__ndk1::basic_string<char, std::__ndk1::char_traits<char>, std::__ndk1::allocator<char> >, int> > >::__node_insert_multi(std::__ndk1::__tree_node<std::__ndk1::__value_type<std::__ndk1::basic_string<char, std::__ndk1::char_traits<char>, std::__ndk1::allocator<char> >, int>, void*>*)
FUNC 5044e 2a 0 std::__ndk1::__tree<std::__ndk1::__value_type<std::__ndk1::basic_string<char, std::__ndk1::char_traits<char>, std::__ndk1::allocator<char> >, int>, std::__ndk1::__map_value_compare<std::__ndk1::basic_string<char, std::__ndk1::char_traits<char>, std::__ndk1::allocator<char> >, std::__ndk1::__value_type<std::__ndk1::basic_string<char, std::__ndk1::char_traits<char>, std::__ndk1::allocator<char> >, int>, std::__ndk1::less<std::__ndk1::basic_string<char, std::__ndk1::char_traits<char>, std::__ndk1::allocator<char> > >, true>, std::__ndk1::allocator<std::__ndk1::__value_type<std::__ndk1::basic_string<char, std::__ndk1::char_traits<char>, std::__ndk1::allocator<char> >, int> > >::_DetachedTreeCache::~_DetachedTreeCache[abi:ne180000]()
FUNC 50478 124 0 std::__ndk1::__tree<std::__ndk1::__value_type<std::__ndk1::basic_string<char, std::__ndk1::char_traits<char>, std::__ndk1::allocator<char> >, int>, std::__ndk1::__map_value_compare<std::__ndk1::basic_string<char, std::__ndk1::char_traits<char>, std::__ndk1::allocator<char> >, std::__ndk1::__value_type<std::__ndk1::basic_string<char, std::__ndk1::char_traits<char>, std::__ndk1::allocator<char> >, int>, std::__ndk1::less<std::__ndk1::basic_string<char, std::__ndk1::char_traits<char>, std::__ndk1::allocator<char> > >, true>, std::__ndk1::allocator<std::__ndk1::__value_type<std::__ndk1::basic_string<char, std::__ndk1::char_traits<char>, std::__ndk1::allocator<char> >, int> > >::__emplace_multi<std::__ndk1::pair<std::__ndk1::basic_string<char, std::__ndk1::char_traits<char>, std::__ndk1::allocator<char> > const, int> const&>(std::__ndk1::pair<std::__ndk1::basic_string<char, std::__ndk1::char_traits<char>, std::__ndk1::allocator<char> > const, int> const&)
FUNC 5059c 208 0 std::__ndk1::__tree<int, std::__ndk1::less<int>, std::__ndk1::allocator<int> >::__assign_multi<std::__ndk1::__tree_const_iterator<int, std::__ndk1::__tree_node<int, void*>*, int> >(std::__ndk1::__tree_const_iterator<int, std::__ndk1::__tree_node<int, void*>*, int>, std::__ndk1::__tree_const_iterator<int, std::__ndk1::__tree_node<int, void*>*, int>)
FUNC 507a4 2b8 0 std::__ndk1::vector<Session, std::__ndk1::allocator<Session> >::__assign_with_size[abi:ne180000]<Session*, std::__ndk1::vector<Session, std::__ndk1::allocator<Session> >::__assign_with_size[abi:ne180000]>(Session*, std::__ndk1::vector<Session, std::__ndk1::allocator<Session> >::__assign_with_size[abi:ne180000], int)
FUNC 50a5c 4c 0 std::__ndk1::__exception_guard_exceptions<std::__ndk1::_AllocatorDestroyRangeReverse<std::__ndk1::allocator<Session>, Session*> >::~__exception_guard_exceptions[abi:ne180000]()
FUNC 50aa8 10 0 std::__ndk1::vector<Session, std::__ndk1::allocator<Session> >::__throw_length_error[abi:ne180000]() const
FUNC 50ab8 be 0 std::__ndk1::vector<int, std::__ndk1::allocator<int> >::__assign_with_size[abi:ne180000]<int*, std::__ndk1::vector<int, std::__ndk1::allocator<int> >::__assign_with_size[abi:ne180000]>(int*, std::__ndk1::vector<int, std::__ndk1::allocator<int> >::__assign_with_size[abi:ne180000], int)
FUNC 50b78 2a8 0 std::__ndk1::vector<std::__ndk1::basic_string<char, std::__ndk1::char_traits<char>, std::__ndk1::allocator<char> >, std::__ndk1::allocator<std::__ndk1::basic_string<char, std::__ndk1::char_traits<char>, std::__ndk1::allocator<char> > > >::__assign_with_size[abi:ne180000]<std::__ndk1::basic_string<char, std::__ndk1::char_traits<char>, std::__ndk1::allocator<char> >*, std::__ndk1::vector<std::__ndk1::basic_string<char, std::__ndk1::char_traits<char>, std::__ndk1::allocator<char> >, std::__ndk1::allocator<std::__ndk1::basic_string<char, std::__ndk1::char_traits<char>, std::__ndk1::allocator<char> > > >::__assign_with_size[abi:ne180000]>(std::__ndk1::basic_string<char, std::__ndk1::char_traits<char>, std::__ndk1::allocator<char> >*, std::__ndk1::vector<std::__ndk1::basic_string<char, std::__ndk1::char_traits<char>, std::__ndk1::allocator<char> >, std::__ndk1::allocator<std::__ndk1::basic_string<char, std::__ndk1::char_traits<char>, std::__ndk1::allocator<char> > > >::__assign_with_size[abi:ne180000], int)
FUNC 50e20 3a 0 std::__ndk1::__exception_guard_exceptions<std::__ndk1::_AllocatorDestroyRangeReverse<std::__ndk1::allocator<std::__ndk1::basic_string<char, std::__ndk1::char_traits<char>, std::__ndk1::allocator<char> > >, std::__ndk1::basic_string<char, std::__ndk1::char_traits<char>, std::__ndk1::allocator<char> >*> >::~__exception_guard_exceptions[abi:ne180000]()
FUNC 50e5a 6 0 std::__ndk1::__variant_detail::__visitation::__base::__dispatcher<(unsigned int)0>::__dispatch[abi:ne180000]<std::__ndk1::__variant_detail::__dtor<std::__ndk1::__variant_detail::__traits<LevelStats_s, std::__ndk1::basic_string<char, std::__ndk1::char_traits<char>, std::__ndk1::allocator<char> > >, (std::__ndk1::__variant_detail::_Trait)1>::__destroy[abi:ne180000]()::{lambda(auto:1&)#1}, std::__ndk1::__variant_detail::__base<(std::__ndk1::__variant_detail::__traits<LevelStats_s, std::__ndk1::basic_string<char, std::__ndk1::char_traits<char>, std::__ndk1::allocator<char> > >)1, std::__ndk1::__variant_detail::__traits, std::__ndk1::allocator<char> >&>(std::__ndk1::__variant_detail::__dtor<std::__ndk1::__variant_detail::__traits<LevelStats_s, std::__ndk1::basic_string<char, std::__ndk1::char_traits<char>, std::__ndk1::allocator<char> > >, (std::__ndk1::__variant_detail::_Trait)1>, std::__ndk1::__variant_detail::__base<(std::__ndk1::__variant_detail::__traits<LevelStats_s, std::__ndk1::basic_string<char, std::__ndk1::char_traits<char>, std::__ndk1::allocator<char> > >)1, std::__ndk1::__variant_detail::__traits, std::__ndk1::allocator<char> >&)
FUNC 50e60 e 0 std::__ndk1::__variant_detail::__visitation::__base::__dispatcher<(unsigned int)1>::__dispatch[abi:ne180000]<std::__ndk1::__variant_detail::__dtor<std::__ndk1::__variant_detail::__traits<LevelStats_s, std::__ndk1::basic_string<char, std::__ndk1::char_traits<char>, std::__ndk1::allocator<char> > >, (std::__ndk1::__variant_detail::_Trait)1>::__destroy[abi:ne180000]()::{lambda(auto:1&)#1}, std::__ndk1::__variant_detail::__base<(std::__ndk1::__variant_detail::__traits<LevelStats_s, std::__ndk1::basic_string<char, std::__ndk1::char_traits<char>, std::__ndk1::allocator<char> > >)1, std::__ndk1::__variant_detail::__traits, std::__ndk1::allocator<char> >&>(std::__ndk1::__variant_detail::__dtor<std::__ndk1::__variant_detail::__traits<LevelStats_s, std::__ndk1::basic_string<char, std::__ndk1::char_traits<char>, std::__ndk1::allocator<char> > >, (std::__ndk1::__variant_detail::_Trait)1>, std::__ndk1::__variant_detail::__base<(std::__ndk1::__variant_detail::__traits<LevelStats_s, std::__ndk1::basic_string<char, std::__ndk1::char_traits<char>, std::__ndk1::allocator<char> > >)1, std::__ndk1::__variant_detail::__traits, std::__ndk1::allocator<char> >&)
FUNC 50e6e 138 0 std::__ndk1::vector<Session, std::__ndk1::allocator<Session> >::__swap_out_circular_buffer(std::__ndk1::__split_buffer<Session, std::__ndk1::allocator<Session>&>&)
FUNC 50fa6 54 0 std::__ndk1::__split_buffer<Session, std::__ndk1::allocator<Session>&>::~__split_buffer()
FUNC 50ffc 64a 0 std::__ndk1::__introsort<std::__ndk1::_RangeAlgPolicy, DTLayer::UpdateSharedStats()::$_0&, int*, false>(int*, int*, DTLayer::UpdateSharedStats()::$_0&, std::__ndk1::iterator_traits<int*>::difference_type, bool)
FUNC 51648 24c 0 std::__ndk1::__insertion_sort_incomplete[abi:ne180000]<std::__ndk1::_RangeAlgPolicy, DTLayer::UpdateSharedStats()::$_0&, int*>(int*, int*, DTLayer::UpdateSharedStats()::$_0&)
FUNC 51894 64a 0 std::__ndk1::__introsort<std::__ndk1::_RangeAlgPolicy, DTLayer::UpdateSharedStats()::$_1&, int*, false>(int*, int*, DTLayer::UpdateSharedStats()::$_1&, std::__ndk1::iterator_traits<int*>::difference_type, bool)
FUNC 51ee0 24c 0 std::__ndk1::__insertion_sort_incomplete[abi:ne180000]<std::__ndk1::_RangeAlgPolicy, DTLayer::UpdateSharedStats()::$_1&, int*>(int*, int*, DTLayer::UpdateSharedStats()::$_1&)
FUNC 5212c 2100 0 std::__ndk1::__introsort<std::__ndk1::_RangeAlgPolicy, DTLayer::UpdateSharedStats()::$_2&, Session*, false>(Session*, Session*, DTLayer::UpdateSharedStats()::$_2&, std::__ndk1::iterator_traits<Session*>::difference_type, bool)
FUNC 5422c 238 0 _ZNSt6__ndk124__sort5_maybe_branchlessB8ne180000INS_15_RangeAlgPolicyERZN7DTLayer17UpdateSharedStatsEvE3$_2P7SessionTnNS_9enable_ifIXntsr21__use_branchless_sortIT0_T1_EE5valueEiE4typeELi0EEEvS9_S9_S9_S9_S9_S8_
FUNC 54464 2a8 0 std::__ndk1::__sort3[abi:ne180000]<std::__ndk1::_RangeAlgPolicy, DTLayer::UpdateSharedStats()::$_2&, Session*>(Session*, Session*, Session*, DTLayer::UpdateSharedStats()::$_2&)
FUNC 5470c 4e0 0 std::__ndk1::__insertion_sort_incomplete[abi:ne180000]<std::__ndk1::_RangeAlgPolicy, DTLayer::UpdateSharedStats()::$_2&, Session*>(Session*, Session*, DTLayer::UpdateSharedStats()::$_2&)
FUNC 54bec 1bc 0 std::__ndk1::__sort4[abi:ne180000]<std::__ndk1::_RangeAlgPolicy, DTLayer::UpdateSharedStats()::$_2&, Session*>(Session*, Session*, Session*, Session*, DTLayer::UpdateSharedStats()::$_2&)
FUNC 54da8 248 0 geode::Popup<GJGameLevel* const&>::initBase(float, float, GJGameLevel* const&, char const*, cocos2d::CCRect, bool)
FUNC 54ff0 15c 0 geode::Task<geode::Result<void, std::__ndk1::basic_string<char, std::__ndk1::char_traits<char>, std::__ndk1::allocator<char> > >, std::__ndk1::monostate>::finish(std::__ndk1::shared_ptr<geode::Task<geode::Result<void, std::__ndk1::basic_string<char, std::__ndk1::char_traits<char>, std::__ndk1::allocator<char> > >, std::__ndk1::monostate>::Handle>, geode::Result<void, std::__ndk1::basic_string<char, std::__ndk1::char_traits<char>, std::__ndk1::allocator<char> > >&&)
FUNC 5514c 10 0 std::__ndk1::__shared_ptr_emplace<geode::Task<geode::Result<void, std::__ndk1::basic_string<char, std::__ndk1::char_traits<char>, std::__ndk1::allocator<char> > >, std::__ndk1::monostate>::Handle, std::__ndk1::allocator<geode::Task<geode::Result<void, std::__ndk1::basic_string<char, std::__ndk1::char_traits<char>, std::__ndk1::allocator<char> > >, std::__ndk1::monostate>::Handle> >::~__shared_ptr_emplace()
FUNC 5515c 1c 0 std::__ndk1::__shared_ptr_emplace<geode::Task<geode::Result<void, std::__ndk1::basic_string<char, std::__ndk1::char_traits<char>, std::__ndk1::allocator<char> > >, std::__ndk1::monostate>::Handle, std::__ndk1::allocator<geode::Task<geode::Result<void, std::__ndk1::basic_string<char, std::__ndk1::char_traits<char>, std::__ndk1::allocator<char> > >, std::__ndk1::monostate>::Handle> >::~__shared_ptr_emplace()
FUNC 55178 bc 0 std::__ndk1::__shared_ptr_emplace<geode::Task<geode::Result<void, std::__ndk1::basic_string<char, std::__ndk1::char_traits<char>, std::__ndk1::allocator<char> > >, std::__ndk1::monostate>::Handle, std::__ndk1::allocator<geode::Task<geode::Result<void, std::__ndk1::basic_string<char, std::__ndk1::char_traits<char>, std::__ndk1::allocator<char> > >, std::__ndk1::monostate>::Handle> >::__on_zero_shared()
FUNC 55234 4 0 std::__ndk1::__shared_ptr_emplace<geode::Task<geode::Result<void, std::__ndk1::basic_string<char, std::__ndk1::char_traits<char>, std::__ndk1::allocator<char> > >, std::__ndk1::monostate>::Handle, std::__ndk1::allocator<geode::Task<geode::Result<void, std::__ndk1::basic_string<char, std::__ndk1::char_traits<char>, std::__ndk1::allocator<char> > >, std::__ndk1::monostate>::Handle> >::__on_zero_shared_weak()
FUNC 55238 88 0 geode::Task<geode::Result<void, std::__ndk1::basic_string<char, std::__ndk1::char_traits<char>, std::__ndk1::allocator<char> > >, std::__ndk1::monostate>::Handle::Handle(geode::Task<geode::Result<void, std::__ndk1::basic_string<char, std::__ndk1::char_traits<char>, std::__ndk1::allocator<char> > >, std::__ndk1::monostate>::Handle::PrivateMarker, std::__ndk1::basic_string_view<char, std::__ndk1::char_traits<char> >)
FUNC 552c0 64 0 std::__ndk1::__optional_destruct_base<geode::Result<void, std::__ndk1::basic_string<char, std::__ndk1::char_traits<char>, std::__ndk1::allocator<char> > >, false>::~__optional_destruct_base[abi:ne180000]()
FUNC 55324 3a 0 geode::Task<geode::Result<void, std::__ndk1::basic_string<char, std::__ndk1::char_traits<char>, std::__ndk1::allocator<char> > >, std::__ndk1::monostate>::finish(std::__ndk1::shared_ptr<geode::Task<geode::Result<void, std::__ndk1::basic_string<char, std::__ndk1::char_traits<char>, std::__ndk1::allocator<char> > >, std::__ndk1::monostate>::Handle>, geode::Result<void, std::__ndk1::basic_string<char, std::__ndk1::char_traits<char>, std::__ndk1::allocator<char> > >&&)::{lambda()#1}::~{lambda()#1}()
FUNC 5535e 2 0 std::__ndk1::__variant_detail::__visitation::__base::__dispatcher<(unsigned int)0, (unsigned int)0>::__dispatch[abi:ne180000]<std::__ndk1::__variant_detail::__ctor<std::__ndk1::__variant_detail::__traits<std::__ndk1::monostate, std::__ndk1::basic_string<char, std::__ndk1::char_traits<char>, std::__ndk1::allocator<char> > > >::__generic_construct[abi:ne180000]<std::__ndk1::__variant_detail::__move_constructor<std::__ndk1::basic_string<char, std::__ndk1::char_traits<char>, std::__ndk1::allocator<char> >, (std::__ndk1::__variant_detail::_Trait)1> >(std::__ndk1::__variant_detail::__traits<std::__ndk1::monostate, std::__ndk1::basic_string<char, std::__ndk1::char_traits<char>, std::__ndk1::allocator<char> > >&, std::__ndk1::__variant_detail::__move_constructor<std::__ndk1::basic_string<char, std::__ndk1::char_traits<char>, std::__ndk1::allocator<char> >, (std::__ndk1::__variant_detail::_Trait)1>&&)::{lambda(std::__ndk1::__variant_detail::__move_constructor<std::__ndk1::basic_string<char, std::__ndk1::char_traits<char>, std::__ndk1::allocator<char> >, (std::__ndk1::__variant_detail::_Trait)1>&, auto:2&&)#1}, std::__ndk1::__variant_detail::__base<(std::__ndk1::__variant_detail::__ctor<std::__ndk1::__variant_detail::__traits<std::__ndk1::monostate, std::__ndk1::basic_string<char, std::__ndk1::char_traits<char>, std::__ndk1::allocator<char> > > >::__generic_construct[abi:ne180000])1, std::__ndk1::__variant_detail::__traits, std::__ndk1::allocator<char> >&, std::__ndk1::__variant_detail::__ctor<std::__ndk1::__variant_detail::__traits<std::__ndk1::monostate, std::__ndk1::basic_string<char, std::__ndk1::char_traits<char>, std::__ndk1::allocator<char> > > >::__generic_construct[abi:ne180000]<std::__ndk1::__variant_detail::__move_constructor<std::__ndk1::basic_string<char, std::__ndk1::char_traits<char>, std::__ndk1::allocator<char> >, (std::__ndk1::__variant_detail::_Trait)1> >(std::__ndk1::__variant_detail::__traits<std::__ndk1::monostate, std::__ndk1::basic_string<char, std::__ndk1::char_traits<char>, std::__ndk1::allocator<char> > >&, std::__ndk1::__variant_detail::__move_constructor<std::__ndk1::basic_string<char, std::__ndk1::char_traits<char>, std::__ndk1::allocator<char> >, (std::__ndk1::__variant_detail::_Trait)1>&&)::{lambda(std::__ndk1::__variant_detail::__move_constructor<std::__ndk1::basic_string<char, std::__ndk1::char_traits<char>, std::__ndk1::allocator<char> >, (std::__ndk1::__variant_detail::_Trait)1>&, auto:2&&)#1}>(std::__ndk1::__variant_detail::__move_constructor<std::__ndk1::basic_string<char, std::__ndk1::char_traits<char>, std::__ndk1::allocator<char> >, (std::__ndk1::__variant_detail::_Trait)1>, std::__ndk1::__variant_detail::__base<(std::__ndk1::__variant_detail::__ctor<std::__ndk1::__variant_detail::__traits<std::__ndk1::monostate, std::__ndk1::basic_string<char, std::__ndk1::char_traits<char>, std::__ndk1::allocator<char> > > >::__generic_construct[abi:ne180000])1, std::__ndk1::__variant_detail::__traits, std::__ndk1::allocator<char> >&, std::__ndk1::__variant_detail::__ctor<std::__ndk1::__variant_detail::__traits<std::__ndk1::monostate, std::__ndk1::basic_string<char, std::__ndk1::char_traits<char>, std::__ndk1::allocator<char> > > >::__generic_construct[abi:ne180000]<std::__ndk1::__variant_detail::__move_constructor<std::__ndk1::basic_string<char, std::__ndk1::char_traits<char>, std::__ndk1::allocator<char> >, (std::__ndk1::__variant_detail::_Trait)1> >(std::__ndk1::__variant_detail::__traits<std::__ndk1::monostate, std::__ndk1::basic_string<char, std::__ndk1::char_traits<char>, std::__ndk1::allocator<char> > >&, std::__ndk1::__variant_detail::__move_constructor<std::__ndk1::basic_string<char, std::__ndk1::char_traits<char>, std::__ndk1::allocator<char> >, (std::__ndk1::__variant_detail::_Trait)1>&&)::{lambda(std::__ndk1::__variant_detail::__move_constructor<std::__ndk1::basic_string<char, std::__ndk1::char_traits<char>, std::__ndk1::allocator<char> >, (std::__ndk1::__variant_detail::_Trait)1>&, auto:2&&)#1})
FUNC 55360 16 0 std::__ndk1::__variant_detail::__visitation::__base::__dispatcher<(unsigned int)1, (unsigned int)1>::__dispatch[abi:ne180000]<std::__ndk1::__variant_detail::__ctor<std::__ndk1::__variant_detail::__traits<std::__ndk1::monostate, std::__ndk1::basic_string<char, std::__ndk1::char_traits<char>, std::__ndk1::allocator<char> > > >::__generic_construct[abi:ne180000]<std::__ndk1::__variant_detail::__move_constructor<std::__ndk1::basic_string<char, std::__ndk1::char_traits<char>, std::__ndk1::allocator<char> >, (std::__ndk1::__variant_detail::_Trait)1> >(std::__ndk1::__variant_detail::__traits<std::__ndk1::monostate, std::__ndk1::basic_string<char, std::__ndk1::char_traits<char>, std::__ndk1::allocator<char> > >&, std::__ndk1::__variant_detail::__move_constructor<std::__ndk1::basic_string<char, std::__ndk1::char_traits<char>, std::__ndk1::allocator<char> >, (std::__ndk1::__variant_detail::_Trait)1>&&)::{lambda(std::__ndk1::__variant_detail::__move_constructor<std::__ndk1::basic_string<char, std::__ndk1::char_traits<char>, std::__ndk1::allocator<char> >, (std::__ndk1::__variant_detail::_Trait)1>&, auto:2&&)#1}, std::__ndk1::__variant_detail::__base<(std::__ndk1::__variant_detail::__ctor<std::__ndk1::__variant_detail::__traits<std::__ndk1::monostate, std::__ndk1::basic_string<char, std::__ndk1::char_traits<char>, std::__ndk1::allocator<char> > > >::__generic_construct[abi:ne180000])1, std::__ndk1::__variant_detail::__traits, std::__ndk1::allocator<char> >&, std::__ndk1::__variant_detail::__ctor<std::__ndk1::__variant_detail::__traits<std::__ndk1::monostate, std::__ndk1::basic_string<char, std::__ndk1::char_traits<char>, std::__ndk1::allocator<char> > > >::__generic_construct[abi:ne180000]<std::__ndk1::__variant_detail::__move_constructor<std::__ndk1::basic_string<char, std::__ndk1::char_traits<char>, std::__ndk1::allocator<char> >, (std::__ndk1::__variant_detail::_Trait)1> >(std::__ndk1::__variant_detail::__traits<std::__ndk1::monostate, std::__ndk1::basic_string<char, std::__ndk1::char_traits<char>, std::__ndk1::allocator<char> > >&, std::__ndk1::__variant_detail::__move_constructor<std::__ndk1::basic_string<char, std::__ndk1::char_traits<char>, std::__ndk1::allocator<char> >, (std::__ndk1::__variant_detail::_Trait)1>&&)::{lambda(std::__ndk1::__variant_detail::__move_constructor<std::__ndk1::basic_string<char, std::__ndk1::char_traits<char>, std::__ndk1::allocator<char> >, (std::__ndk1::__variant_detail::_Trait)1>&, auto:2&&)#1}>(std::__ndk1::__variant_detail::__move_constructor<std::__ndk1::basic_string<char, std::__ndk1::char_traits<char>, std::__ndk1::allocator<char> >, (std::__ndk1::__variant_detail::_Trait)1>, std::__ndk1::__variant_detail::__base<(std::__ndk1::__variant_detail::__ctor<std::__ndk1::__variant_detail::__traits<std::__ndk1::monostate, std::__ndk1::basic_string<char, std::__ndk1::char_traits<char>, std::__ndk1::allocator<char> > > >::__generic_construct[abi:ne180000])1, std::__ndk1::__variant_detail::__traits, std::__ndk1::allocator<char> >&, std::__ndk1::__variant_detail::__ctor<std::__ndk1::__variant_detail::__traits<std::__ndk1::monostate, std::__ndk1::basic_string<char, std::__ndk1::char_traits<char>, std::__ndk1::allocator<char> > > >::__generic_construct[abi:ne180000]<std::__ndk1::__variant_detail::__move_constructor<std::__ndk1::basic_string<char, std::__ndk1::char_traits<char>, std::__ndk1::allocator<char> >, (std::__ndk1::__variant_detail::_Trait)1> >(std::__ndk1::__variant_detail::__traits<std::__ndk1::monostate, std::__ndk1::basic_string<char, std::__ndk1::char_traits<char>, std::__ndk1::allocator<char> > >&, std::__ndk1::__variant_detail::__move_constructor<std::__ndk1::basic_string<char, std::__ndk1::char_traits<char>, std::__ndk1::allocator<char> >, (std::__ndk1::__variant_detail::_Trait)1>&&)::{lambda(std::__ndk1::__variant_detail::__move_constructor<std::__ndk1::basic_string<char, std::__ndk1::char_traits<char>, std::__ndk1::allocator<char> >, (std::__ndk1::__variant_detail::_Trait)1>&, auto:2&&)#1})
FUNC 55378 48 0 std::__ndk1::__function::__func<geode::Task<geode::Result<void, std::__ndk1::basic_string<char, std::__ndk1::char_traits<char>, std::__ndk1::allocator<char> > >, std::__ndk1::monostate>::finish(std::__ndk1::shared_ptr<geode::Task<geode::Result<void, std::__ndk1::basic_string<char, std::__ndk1::char_traits<char>, std::__ndk1::allocator<char> > >, std::__ndk1::monostate>::Handle>, geode::Result<void, std::__ndk1::basic_string<char, std::__ndk1::char_traits<char>, std::__ndk1::allocator<char> > >&&)::{lambda()#1}, std::__ndk1::allocator<geode::Task<geode::Result<void, std::__ndk1::basic_string<char, std::__ndk1::char_traits<char>, std::__ndk1::allocator<char> > >, std::__ndk1::monostate>::finish(std::__ndk1::shared_ptr<geode::Task<geode::Result<void, std::__ndk1::basic_string<char, std::__ndk1::char_traits<char>, std::__ndk1::allocator<char> > >, std::__ndk1::monostate>::Handle>, geode::Result<void, std::__ndk1::basic_string<char, std::__ndk1::char_traits<char>, std::__ndk1::allocator<char> > >&&)::{lambda()#1}>, void ()>::~__func()
FUNC 553c0 54 0 std::__ndk1::__function::__func<geode::Task<geode::Result<void, std::__ndk1::basic_string<char, std::__ndk1::char_traits<char>, std::__ndk1::allocator<char> > >, std::__ndk1::monostate>::finish(std::__ndk1::shared_ptr<geode::Task<geode::Result<void, std::__ndk1::basic_string<char, std::__ndk1::char_traits<char>, std::__ndk1::allocator<char> > >, std::__ndk1::monostate>::Handle>, geode::Result<void, std::__ndk1::basic_string<char, std::__ndk1::char_traits<char>, std::__ndk1::allocator<char> > >&&)::{lambda()#1}, std::__ndk1::allocator<geode::Task<geode::Result<void, std::__ndk1::basic_string<char, std::__ndk1::char_traits<char>, std::__ndk1::allocator<char> > >, std::__ndk1::monostate>::finish(std::__ndk1::shared_ptr<geode::Task<geode::Result<void, std::__ndk1::basic_string<char, std::__ndk1::char_traits<char>, std::__ndk1::allocator<char> > >, std::__ndk1::monostate>::Handle>, geode::Result<void, std::__ndk1::basic_string<char, std::__ndk1::char_traits<char>, std::__ndk1::allocator<char> > >&&)::{lambda()#1}>, void ()>::~__func()
FUNC 55414 3c 0 std::__ndk1::__function::__func<geode::Task<geode::Result<void, std::__ndk1::basic_string<char, std::__ndk1::char_traits<char>, std::__ndk1::allocator<char> > >, std::__ndk1::monostate>::finish(std::__ndk1::shared_ptr<geode::Task<geode::Result<void, std::__ndk1::basic_string<char, std::__ndk1::char_traits<char>, std::__ndk1::allocator<char> > >, std::__ndk1::monostate>::Handle>, geode::Result<void, std::__ndk1::basic_string<char, std::__ndk1::char_traits<char>, std::__ndk1::allocator<char> > >&&)::{lambda()#1}, std::__ndk1::allocator<geode::Task<geode::Result<void, std::__ndk1::basic_string<char, std::__ndk1::char_traits<char>, std::__ndk1::allocator<char> > >, std::__ndk1::monostate>::finish(std::__ndk1::shared_ptr<geode::Task<geode::Result<void, std::__ndk1::basic_string<char, std::__ndk1::char_traits<char>, std::__ndk1::allocator<char> > >, std::__ndk1::monostate>::Handle>, geode::Result<void, std::__ndk1::basic_string<char, std::__ndk1::char_traits<char>, std::__ndk1::allocator<char> > >&&)::{lambda()#1}>, void ()>::__clone() const
FUNC 55450 30 0 std::__ndk1::__function::__func<geode::Task<geode::Result<void, std::__ndk1::basic_string<char, std::__ndk1::char_traits<char>, std::__ndk1::allocator<char> > >, std::__ndk1::monostate>::finish(std::__ndk1::shared_ptr<geode::Task<geode::Result<void, std::__ndk1::basic_string<char, std::__ndk1::char_traits<char>, std::__ndk1::allocator<char> > >, std::__ndk1::monostate>::Handle>, geode::Result<void, std::__ndk1::basic_string<char, std::__ndk1::char_traits<char>, std::__ndk1::allocator<char> > >&&)::{lambda()#1}, std::__ndk1::allocator<geode::Task<geode::Result<void, std::__ndk1::basic_string<char, std::__ndk1::char_traits<char>, std::__ndk1::allocator<char> > >, std::__ndk1::monostate>::finish(std::__ndk1::shared_ptr<geode::Task<geode::Result<void, std::__ndk1::basic_string<char, std::__ndk1::char_traits<char>, std::__ndk1::allocator<char> > >, std::__ndk1::monostate>::Handle>, geode::Result<void, std::__ndk1::basic_string<char, std::__ndk1::char_traits<char>, std::__ndk1::allocator<char> > >&&)::{lambda()#1}>, void ()>::__clone(std::__ndk1::__function::__base<void ()>*) const
FUNC 55480 3a 0 std::__ndk1::__function::__func<geode::Task<geode::Result<void, std::__ndk1::basic_string<char, std::__ndk1::char_traits<char>, std::__ndk1::allocator<char> > >, std::__ndk1::monostate>::finish(std::__ndk1::shared_ptr<geode::Task<geode::Result<void, std::__ndk1::basic_string<char, std::__ndk1::char_traits<char>, std::__ndk1::allocator<char> > >, std::__ndk1::monostate>::Handle>, geode::Result<void, std::__ndk1::basic_string<char, std::__ndk1::char_traits<char>, std::__ndk1::allocator<char> > >&&)::{lambda()#1}, std::__ndk1::allocator<geode::Task<geode::Result<void, std::__ndk1::basic_string<char, std::__ndk1::char_traits<char>, std::__ndk1::allocator<char> > >, std::__ndk1::monostate>::finish(std::__ndk1::shared_ptr<geode::Task<geode::Result<void, std::__ndk1::basic_string<char, std::__ndk1::char_traits<char>, std::__ndk1::allocator<char> > >, std::__ndk1::monostate>::Handle>, geode::Result<void, std::__ndk1::basic_string<char, std::__ndk1::char_traits<char>, std::__ndk1::allocator<char> > >&&)::{lambda()#1}>, void ()>::destroy()
FUNC 554ba 44 0 std::__ndk1::__function::__func<geode::Task<geode::Result<void, std::__ndk1::basic_string<char, std::__ndk1::char_traits<char>, std::__ndk1::allocator<char> > >, std::__ndk1::monostate>::finish(std::__ndk1::shared_ptr<geode::Task<geode::Result<void, std::__ndk1::basic_string<char, std::__ndk1::char_traits<char>, std::__ndk1::allocator<char> > >, std::__ndk1::monostate>::Handle>, geode::Result<void, std::__ndk1::basic_string<char, std::__ndk1::char_traits<char>, std::__ndk1::allocator<char> > >&&)::{lambda()#1}, std::__ndk1::allocator<geode::Task<geode::Result<void, std::__ndk1::basic_string<char, std::__ndk1::char_traits<char>, std::__ndk1::allocator<char> > >, std::__ndk1::monostate>::finish(std::__ndk1::shared_ptr<geode::Task<geode::Result<void, std::__ndk1::basic_string<char, std::__ndk1::char_traits<char>, std::__ndk1::allocator<char> > >, std::__ndk1::monostate>::Handle>, geode::Result<void, std::__ndk1::basic_string<char, std::__ndk1::char_traits<char>, std::__ndk1::allocator<char> > >&&)::{lambda()#1}>, void ()>::destroy_deallocate()
FUNC 55500 16c 0 std::__ndk1::__function::__func<geode::Task<geode::Result<void, std::__ndk1::basic_string<char, std::__ndk1::char_traits<char>, std::__ndk1::allocator<char> > >, std::__ndk1::monostate>::finish(std::__ndk1::shared_ptr<geode::Task<geode::Result<void, std::__ndk1::basic_string<char, std::__ndk1::char_traits<char>, std::__ndk1::allocator<char> > >, std::__ndk1::monostate>::Handle>, geode::Result<void, std::__ndk1::basic_string<char, std::__ndk1::char_traits<char>, std::__ndk1::allocator<char> > >&&)::{lambda()#1}, std::__ndk1::allocator<geode::Task<geode::Result<void, std::__ndk1::basic_string<char, std::__ndk1::char_traits<char>, std::__ndk1::allocator<char> > >, std::__ndk1::monostate>::finish(std::__ndk1::shared_ptr<geode::Task<geode::Result<void, std::__ndk1::basic_string<char, std::__ndk1::char_traits<char>, std::__ndk1::allocator<char> > >, std::__ndk1::monostate>::Handle>, geode::Result<void, std::__ndk1::basic_string<char, std::__ndk1::char_traits<char>, std::__ndk1::allocator<char> > >&&)::{lambda()#1}>, void ()>::operator()()
FUNC 5566c 18 0 std::__ndk1::__function::__func<geode::Task<geode::Result<void, std::__ndk1::basic_string<char, std::__ndk1::char_traits<char>, std::__ndk1::allocator<char> > >, std::__ndk1::monostate>::finish(std::__ndk1::shared_ptr<geode::Task<geode::Result<void, std::__ndk1::basic_string<char, std::__ndk1::char_traits<char>, std::__ndk1::allocator<char> > >, std::__ndk1::monostate>::Handle>, geode::Result<void, std::__ndk1::basic_string<char, std::__ndk1::char_traits<char>, std::__ndk1::allocator<char> > >&&)::{lambda()#1}, std::__ndk1::allocator<geode::Task<geode::Result<void, std::__ndk1::basic_string<char, std::__ndk1::char_traits<char>, std::__ndk1::allocator<char> > >, std::__ndk1::monostate>::finish(std::__ndk1::shared_ptr<geode::Task<geode::Result<void, std::__ndk1::basic_string<char, std::__ndk1::char_traits<char>, std::__ndk1::allocator<char> > >, std::__ndk1::monostate>::Handle>, geode::Result<void, std::__ndk1::basic_string<char, std::__ndk1::char_traits<char>, std::__ndk1::allocator<char> > >&&)::{lambda()#1}>, void ()>::target(std::type_info const&) const
FUNC 55684 c 0 std::__ndk1::__function::__func<geode::Task<geode::Result<void, std::__ndk1::basic_string<char, std::__ndk1::char_traits<char>, std::__ndk1::allocator<char> > >, std::__ndk1::monostate>::finish(std::__ndk1::shared_ptr<geode::Task<geode::Result<void, std::__ndk1::basic_string<char, std::__ndk1::char_traits<char>, std::__ndk1::allocator<char> > >, std::__ndk1::monostate>::Handle>, geode::Result<void, std::__ndk1::basic_string<char, std::__ndk1::char_traits<char>, std::__ndk1::allocator<char> > >&&)::{lambda()#1}, std::__ndk1::allocator<geode::Task<geode::Result<void, std::__ndk1::basic_string<char, std::__ndk1::char_traits<char>, std::__ndk1::allocator<char> > >, std::__ndk1::monostate>::finish(std::__ndk1::shared_ptr<geode::Task<geode::Result<void, std::__ndk1::basic_string<char, std::__ndk1::char_traits<char>, std::__ndk1::allocator<char> > >, std::__ndk1::monostate>::Handle>, geode::Result<void, std::__ndk1::basic_string<char, std::__ndk1::char_traits<char>, std::__ndk1::allocator<char> > >&&)::{lambda()#1}>, void ()>::target_type() const
FUNC 55690 150 0 geode::Task<geode::Result<void, std::__ndk1::basic_string<char, std::__ndk1::char_traits<char>, std::__ndk1::allocator<char> > >, std::__ndk1::monostate>::cancelled(std::__ndk1::basic_string_view<char, std::__ndk1::char_traits<char> >)
FUNC 557e0 63c 0 DTLayer::updateSessionString(int const&)::$_0::operator()(geode::Result<std::__ndk1::vector<DeathInfo_s, std::__ndk1::allocator<DeathInfo_s> >, std::__ndk1::basic_string<char, std::__ndk1::char_traits<char>, std::__ndk1::allocator<char> > >*) const
FUNC 55e1c 200 0 geode::EventListener<geode::Task<geode::Result<std::__ndk1::vector<DeathInfo_s, std::__ndk1::allocator<DeathInfo_s> >, std::__ndk1::basic_string<char, std::__ndk1::char_traits<char>, std::__ndk1::allocator<char> > >, std::__ndk1::monostate> >::EventListener(std::__ndk1::function<void (geode::Task<geode::Result<std::__ndk1::vector<DeathInfo_s, std::__ndk1::allocator<DeathInfo_s> >, std::__ndk1::basic_string<char, std::__ndk1::char_traits<char>, std::__ndk1::allocator<char> > >, std::__ndk1::monostate>*::Event)>, geode::Task<geode::Result<std::__ndk1::vector<DeathInfo_s, std::__ndk1::allocator<DeathInfo_s> >, std::__ndk1::basic_string<char, std::__ndk1::char_traits<char>, std::__ndk1::allocator<char> > >, std::__ndk1::monostate>)
FUNC 5601c 30 0 _ZZNK5geode4TaskINS_6ResultINSt6__ndk16vectorI11DeathInfo_sNS2_9allocatorIS4_EEEENS2_12basic_stringIcNS2_11char_traitsIcEENS5_IcEEEEEENS2_9monostateEE5chainITkNS2_9invocableIPT_EEZN7DTLayer19updateSessionStringERKiE3$_0EEDTclfL0p_clL_ZNS2_7declvalB8ne180000IPSD_EEDTclsr3stdE9__declvalISI_ELi0EEEvEEEESI_NS2_17basic_string_viewIcSA_EEENUlPNSF_5EventEE_D2Ev
FUNC 5604c e0 0 geode::Task<geode::Result<void, std::__ndk1::basic_string<char, std::__ndk1::char_traits<char>, std::__ndk1::allocator<char> > >, std::__ndk1::monostate>::cancel(std::__ndk1::shared_ptr<geode::Task<geode::Result<void, std::__ndk1::basic_string<char, std::__ndk1::char_traits<char>, std::__ndk1::allocator<char> > >, std::__ndk1::monostate>::Handle>, bool)
FUNC 5612c 3a 0 geode::Task<geode::Result<void, std::__ndk1::basic_string<char, std::__ndk1::char_traits<char>, std::__ndk1::allocator<char> > >, std::__ndk1::monostate>::cancel(std::__ndk1::shared_ptr<geode::Task<geode::Result<void, std::__ndk1::basic_string<char, std::__ndk1::char_traits<char>, std::__ndk1::allocator<char> > >, std::__ndk1::monostate>::Handle>, bool)::{lambda()#1}::~{lambda()#1}()
FUNC 56168 48 0 std::__ndk1::__function::__func<geode::Task<geode::Result<void, std::__ndk1::basic_string<char, std::__ndk1::char_traits<char>, std::__ndk1::allocator<char> > >, std::__ndk1::monostate>::cancel(std::__ndk1::shared_ptr<geode::Task<geode::Result<void, std::__ndk1::basic_string<char, std::__ndk1::char_traits<char>, std::__ndk1::allocator<char> > >, std::__ndk1::monostate>::Handle>, bool)::{lambda()#1}, std::__ndk1::allocator<geode::Task<geode::Result<void, std::__ndk1::basic_string<char, std::__ndk1::char_traits<char>, std::__ndk1::allocator<char> > >, std::__ndk1::monostate>::cancel(std::__ndk1::shared_ptr<geode::Task<geode::Result<void, std::__ndk1::basic_string<char, std::__ndk1::char_traits<char>, std::__ndk1::allocator<char> > >, std::__ndk1::monostate>::Handle>, bool)::{lambda()#1}>, void ()>::~__func()
FUNC 561b0 54 0 std::__ndk1::__function::__func<geode::Task<geode::Result<void, std::__ndk1::basic_string<char, std::__ndk1::char_traits<char>, std::__ndk1::allocator<char> > >, std::__ndk1::monostate>::cancel(std::__ndk1::shared_ptr<geode::Task<geode::Result<void, std::__ndk1::basic_string<char, std::__ndk1::char_traits<char>, std::__ndk1::allocator<char> > >, std::__ndk1::monostate>::Handle>, bool)::{lambda()#1}, std::__ndk1::allocator<geode::Task<geode::Result<void, std::__ndk1::basic_string<char, std::__ndk1::char_traits<char>, std::__ndk1::allocator<char> > >, std::__ndk1::monostate>::cancel(std::__ndk1::shared_ptr<geode::Task<geode::Result<void, std::__ndk1::basic_string<char, std::__ndk1::char_traits<char>, std::__ndk1::allocator<char> > >, std::__ndk1::monostate>::Handle>, bool)::{lambda()#1}>, void ()>::~__func()
FUNC 56204 38 0 std::__ndk1::__function::__func<geode::Task<geode::Result<void, std::__ndk1::basic_string<char, std::__ndk1::char_traits<char>, std::__ndk1::allocator<char> > >, std::__ndk1::monostate>::cancel(std::__ndk1::shared_ptr<geode::Task<geode::Result<void, std::__ndk1::basic_string<char, std::__ndk1::char_traits<char>, std::__ndk1::allocator<char> > >, std::__ndk1::monostate>::Handle>, bool)::{lambda()#1}, std::__ndk1::allocator<geode::Task<geode::Result<void, std::__ndk1::basic_string<char, std::__ndk1::char_traits<char>, std::__ndk1::allocator<char> > >, std::__ndk1::monostate>::cancel(std::__ndk1::shared_ptr<geode::Task<geode::Result<void, std::__ndk1::basic_string<char, std::__ndk1::char_traits<char>, std::__ndk1::allocator<char> > >, std::__ndk1::monostate>::Handle>, bool)::{lambda()#1}>, void ()>::__clone() const
FUNC 5623c 30 0 std::__ndk1::__function::__func<geode::Task<geode::Result<void, std::__ndk1::basic_string<char, std::__ndk1::char_traits<char>, std::__ndk1::allocator<char> > >, std::__ndk1::monostate>::cancel(std::__ndk1::shared_ptr<geode::Task<geode::Result<void, std::__ndk1::basic_string<char, std::__ndk1::char_traits<char>, std::__ndk1::allocator<char> > >, std::__ndk1::monostate>::Handle>, bool)::{lambda()#1}, std::__ndk1::allocator<geode::Task<geode::Result<void, std::__ndk1::basic_string<char, std::__ndk1::char_traits<char>, std::__ndk1::allocator<char> > >, std::__ndk1::monostate>::cancel(std::__ndk1::shared_ptr<geode::Task<geode::Result<void, std::__ndk1::basic_string<char, std::__ndk1::char_traits<char>, std::__ndk1::allocator<char> > >, std::__ndk1::monostate>::Handle>, bool)::{lambda()#1}>, void ()>::__clone(std::__ndk1::__function::__base<void ()>*) const
FUNC 5626c 3a 0 std::__ndk1::__function::__func<geode::Task<geode::Result<void, std::__ndk1::basic_string<char, std::__ndk1::char_traits<char>, std::__ndk1::allocator<char> > >, std::__ndk1::monostate>::cancel(std::__ndk1::shared_ptr<geode::Task<geode::Result<void, std::__ndk1::basic_string<char, std::__ndk1::char_traits<char>, std::__ndk1::allocator<char> > >, std::__ndk1::monostate>::Handle>, bool)::{lambda()#1}, std::__ndk1::allocator<geode::Task<geode::Result<void, std::__ndk1::basic_string<char, std::__ndk1::char_traits<char>, std::__ndk1::allocator<char> > >, std::__ndk1::monostate>::cancel(std::__ndk1::shared_ptr<geode::Task<geode::Result<void, std::__ndk1::basic_string<char, std::__ndk1::char_traits<char>, std::__ndk1::allocator<char> > >, std::__ndk1::monostate>::Handle>, bool)::{lambda()#1}>, void ()>::destroy()
FUNC 562a6 44 0 std::__ndk1::__function::__func<geode::Task<geode::Result<void, std::__ndk1::basic_string<char, std::__ndk1::char_traits<char>, std::__ndk1::allocator<char> > >, std::__ndk1::monostate>::cancel(std::__ndk1::shared_ptr<geode::Task<geode::Result<void, std::__ndk1::basic_string<char, std::__ndk1::char_traits<char>, std::__ndk1::allocator<char> > >, std::__ndk1::monostate>::Handle>, bool)::{lambda()#1}, std::__ndk1::allocator<geode::Task<geode::Result<void, std::__ndk1::basic_string<char, std::__ndk1::char_traits<char>, std::__ndk1::allocator<char> > >, std::__ndk1::monostate>::cancel(std::__ndk1::shared_ptr<geode::Task<geode::Result<void, std::__ndk1::basic_string<char, std::__ndk1::char_traits<char>, std::__ndk1::allocator<char> > >, std::__ndk1::monostate>::Handle>, bool)::{lambda()#1}>, void ()>::destroy_deallocate()
FUNC 562ec 164 0 std::__ndk1::__function::__func<geode::Task<geode::Result<void, std::__ndk1::basic_string<char, std::__ndk1::char_traits<char>, std::__ndk1::allocator<char> > >, std::__ndk1::monostate>::cancel(std::__ndk1::shared_ptr<geode::Task<geode::Result<void, std::__ndk1::basic_string<char, std::__ndk1::char_traits<char>, std::__ndk1::allocator<char> > >, std::__ndk1::monostate>::Handle>, bool)::{lambda()#1}, std::__ndk1::allocator<geode::Task<geode::Result<void, std::__ndk1::basic_string<char, std::__ndk1::char_traits<char>, std::__ndk1::allocator<char> > >, std::__ndk1::monostate>::cancel(std::__ndk1::shared_ptr<geode::Task<geode::Result<void, std::__ndk1::basic_string<char, std::__ndk1::char_traits<char>, std::__ndk1::allocator<char> > >, std::__ndk1::monostate>::Handle>, bool)::{lambda()#1}>, void ()>::operator()()
FUNC 56450 18 0 std::__ndk1::__function::__func<geode::Task<geode::Result<void, std::__ndk1::basic_string<char, std::__ndk1::char_traits<char>, std::__ndk1::allocator<char> > >, std::__ndk1::monostate>::cancel(std::__ndk1::shared_ptr<geode::Task<geode::Result<void, std::__ndk1::basic_string<char, std::__ndk1::char_traits<char>, std::__ndk1::allocator<char> > >, std::__ndk1::monostate>::Handle>, bool)::{lambda()#1}, std::__ndk1::allocator<geode::Task<geode::Result<void, std::__ndk1::basic_string<char, std::__ndk1::char_traits<char>, std::__ndk1::allocator<char> > >, std::__ndk1::monostate>::cancel(std::__ndk1::shared_ptr<geode::Task<geode::Result<void, std::__ndk1::basic_string<char, std::__ndk1::char_traits<char>, std::__ndk1::allocator<char> > >, std::__ndk1::monostate>::Handle>, bool)::{lambda()#1}>, void ()>::target(std::type_info const&) const
FUNC 56468 c 0 std::__ndk1::__function::__func<geode::Task<geode::Result<void, std::__ndk1::basic_string<char, std::__ndk1::char_traits<char>, std::__ndk1::allocator<char> > >, std::__ndk1::monostate>::cancel(std::__ndk1::shared_ptr<geode::Task<geode::Result<void, std::__ndk1::basic_string<char, std::__ndk1::char_traits<char>, std::__ndk1::allocator<char> > >, std::__ndk1::monostate>::Handle>, bool)::{lambda()#1}, std::__ndk1::allocator<geode::Task<geode::Result<void, std::__ndk1::basic_string<char, std::__ndk1::char_traits<char>, std::__ndk1::allocator<char> > >, std::__ndk1::monostate>::cancel(std::__ndk1::shared_ptr<geode::Task<geode::Result<void, std::__ndk1::basic_string<char, std::__ndk1::char_traits<char>, std::__ndk1::allocator<char> > >, std::__ndk1::monostate>::Handle>, bool)::{lambda()#1}>, void ()>::target_type() const
FUNC 56474 104 0 _ZN5geode15UnwrapExceptionC2IRNSt6__ndk112basic_stringIcNS2_11char_traitsIcEENS2_9allocatorIcEEEEQsr4implE18IsStringStreamableIT_EEENS_4impl6ErrTagEOSA_
FUNC 56578 d6 0 std::__ndk1::vector<DeathInfo_s, std::__ndk1::allocator<DeathInfo_s> >::__assign_with_size[abi:ne180000]<DeathInfo_s*, std::__ndk1::vector<DeathInfo_s, std::__ndk1::allocator<DeathInfo_s> >::__assign_with_size[abi:ne180000]>(DeathInfo_s*, std::__ndk1::vector<DeathInfo_s, std::__ndk1::allocator<DeathInfo_s> >::__assign_with_size[abi:ne180000], int)
FUNC 56650 370 0 DTLayer::updateSessionString(int const&)::$_0::operator()(geode::Result<std::__ndk1::vector<DeathInfo_s, std::__ndk1::allocator<DeathInfo_s> >, std::__ndk1::basic_string<char, std::__ndk1::char_traits<char>, std::__ndk1::allocator<char> > >*) const::{lambda(geode::Result<std::__ndk1::vector<DeathInfo_s, std::__ndk1::allocator<DeathInfo_s> >, std::__ndk1::basic_string<char, std::__ndk1::char_traits<char>, std::__ndk1::allocator<char> > >*)#1}::operator()(geode::Result<std::__ndk1::vector<DeathInfo_s, std::__ndk1::allocator<DeathInfo_s> >, std::__ndk1::basic_string<char, std::__ndk1::char_traits<char>, std::__ndk1::allocator<char> > >*) const
FUNC 569c0 2c 0 _ZNSt6__ndk110__function6__funcIZNK5geode4TaskINS2_6ResultINS_6vectorI11DeathInfo_sNS_9allocatorIS6_EEEENS_12basic_stringIcNS_11char_traitsIcEENS7_IcEEEEEENS_9monostateEE5chainITkNS_9invocableIPT_EEZZN7DTLayer19updateSessionStringERKiENK3$_0clEPSF_EUlSQ_E_EEDTclfL0p_clL_ZNS_7declvalB8ne180000ISQ_EEDTclsr3stdE9__declvalISK_ELi0EEEvEEEESK_NS_17basic_string_viewIcSC_EEEUlPNSH_5EventEE_NS7_ISZ_EEFvSY_EED2Ev
FUNC 569ec 30 0 _ZNSt6__ndk110__function6__funcIZNK5geode4TaskINS2_6ResultINS_6vectorI11DeathInfo_sNS_9allocatorIS6_EEEENS_12basic_stringIcNS_11char_traitsIcEENS7_IcEEEEEENS_9monostateEE5chainITkNS_9invocableIPT_EEZZN7DTLayer19updateSessionStringERKiENK3$_0clEPSF_EUlSQ_E_EEDTclfL0p_clL_ZNS_7declvalB8ne180000ISQ_EEDTclsr3stdE9__declvalISK_ELi0EEEvEEEESK_NS_17basic_string_viewIcSC_EEEUlPNSH_5EventEE_NS7_ISZ_EEFvSY_EED0Ev
FUNC 56a1c 3c 0 _ZNKSt6__ndk110__function6__funcIZNK5geode4TaskINS2_6ResultINS_6vectorI11DeathInfo_sNS_9allocatorIS6_EEEENS_12basic_stringIcNS_11char_traitsIcEENS7_IcEEEEEENS_9monostateEE5chainITkNS_9invocableIPT_EEZZN7DTLayer19updateSessionStringERKiENK3$_0clEPSF_EUlSQ_E_EEDTclfL0p_clL_ZNS_7declvalB8ne180000ISQ_EEDTclsr3stdE9__declvalISK_ELi0EEEvEEEESK_NS_17basic_string_viewIcSC_EEEUlPNSH_5EventEE_NS7_ISZ_EEFvSY_EE7__cloneEv
FUNC 56a58 30 0 _ZNKSt6__ndk110__function6__funcIZNK5geode4TaskINS2_6ResultINS_6vectorI11DeathInfo_sNS_9allocatorIS6_EEEENS_12basic_stringIcNS_11char_traitsIcEENS7_IcEEEEEENS_9monostateEE5chainITkNS_9invocableIPT_EEZZN7DTLayer19updateSessionStringERKiENK3$_0clEPSF_EUlSQ_E_EEDTclfL0p_clL_ZNS_7declvalB8ne180000ISQ_EEDTclsr3stdE9__declvalISK_ELi0EEEvEEEESK_NS_17basic_string_viewIcSC_EEEUlPNSH_5EventEE_NS7_ISZ_EEFvSY_EE7__cloneEPNS0_6__baseIS11_EE
FUNC 56a88 c 0 _ZNSt6__ndk110__function6__funcIZNK5geode4TaskINS2_6ResultINS_6vectorI11DeathInfo_sNS_9allocatorIS6_EEEENS_12basic_stringIcNS_11char_traitsIcEENS7_IcEEEEEENS_9monostateEE5chainITkNS_9invocableIPT_EEZZN7DTLayer19updateSessionStringERKiENK3$_0clEPSF_EUlSQ_E_EEDTclfL0p_clL_ZNS_7declvalB8ne180000ISQ_EEDTclsr3stdE9__declvalISK_ELi0EEEvEEEESK_NS_17basic_string_viewIcSC_EEEUlPNSH_5EventEE_NS7_ISZ_EEFvSY_EE7destroyEv
FUNC 56a94 20 0 _ZNSt6__ndk110__function6__funcIZNK5geode4TaskINS2_6ResultINS_6vectorI11DeathInfo_sNS_9allocatorIS6_EEEENS_12basic_stringIcNS_11char_traitsIcEENS7_IcEEEEEENS_9monostateEE5chainITkNS_9invocableIPT_EEZZN7DTLayer19updateSessionStringERKiENK3$_0clEPSF_EUlSQ_E_EEDTclfL0p_clL_ZNS_7declvalB8ne180000ISQ_EEDTclsr3stdE9__declvalISK_ELi0EEEvEEEESK_NS_17basic_string_viewIcSC_EEEUlPNSH_5EventEE_NS7_ISZ_EEFvSY_EE18destroy_deallocateEv
FUNC 56ab4 238 0 _ZNSt6__ndk110__function6__funcIZNK5geode4TaskINS2_6ResultINS_6vectorI11DeathInfo_sNS_9allocatorIS6_EEEENS_12basic_stringIcNS_11char_traitsIcEENS7_IcEEEEEENS_9monostateEE5chainITkNS_9invocableIPT_EEZZN7DTLayer19updateSessionStringERKiENK3$_0clEPSF_EUlSQ_E_EEDTclfL0p_clL_ZNS_7declvalB8ne180000ISQ_EEDTclsr3stdE9__declvalISK_ELi0EEEvEEEESK_NS_17basic_string_viewIcSC_EEEUlPNSH_5EventEE_NS7_ISZ_EEFvSY_EEclEOSY_
FUNC 56cec 18 0 _ZNKSt6__ndk110__function6__funcIZNK5geode4TaskINS2_6ResultINS_6vectorI11DeathInfo_sNS_9allocatorIS6_EEEENS_12basic_stringIcNS_11char_traitsIcEENS7_IcEEEEEENS_9monostateEE5chainITkNS_9invocableIPT_EEZZN7DTLayer19updateSessionStringERKiENK3$_0clEPSF_EUlSQ_E_EEDTclfL0p_clL_ZNS_7declvalB8ne180000ISQ_EEDTclsr3stdE9__declvalISK_ELi0EEEvEEEESK_NS_17basic_string_viewIcSC_EEEUlPNSH_5EventEE_NS7_ISZ_EEFvSY_EE6targetERKSt9type_info
FUNC 56d04 c 0 _ZNKSt6__ndk110__function6__funcIZNK5geode4TaskINS2_6ResultINS_6vectorI11DeathInfo_sNS_9allocatorIS6_EEEENS_12basic_stringIcNS_11char_traitsIcEENS7_IcEEEEEENS_9monostateEE5chainITkNS_9invocableIPT_EEZZN7DTLayer19updateSessionStringERKiENK3$_0clEPSF_EUlSQ_E_EEDTclfL0p_clL_ZNS_7declvalB8ne180000ISQ_EEDTclsr3stdE9__declvalISK_ELi0EEEvEEEESK_NS_17basic_string_viewIcSC_EEEUlPNSH_5EventEE_NS7_ISZ_EEFvSY_EE11target_typeEv
FUNC 56d10 a8 0 geode::EventListener<geode::Task<geode::Result<void, std::__ndk1::basic_string<char, std::__ndk1::char_traits<char>, std::__ndk1::allocator<char> > >, std::__ndk1::monostate> >::EventListener(std::__ndk1::function<void (geode::Task<geode::Result<void, std::__ndk1::basic_string<char, std::__ndk1::char_traits<char>, std::__ndk1::allocator<char> > >, std::__ndk1::monostate>*::Event)>, geode::Task<geode::Result<void, std::__ndk1::basic_string<char, std::__ndk1::char_traits<char>, std::__ndk1::allocator<char> > >, std::__ndk1::monostate>)
FUNC 56db8 2c 0 _ZNSt6__ndk110__function6__funcIZZNK5geode4TaskINS2_6ResultINS_6vectorI11DeathInfo_sNS_9allocatorIS6_EEEENS_12basic_stringIcNS_11char_traitsIcEENS7_IcEEEEEENS_9monostateEE5chainITkNS_9invocableIPT_EEZZN7DTLayer19updateSessionStringERKiENK3$_0clEPSF_EUlSQ_E_EEDTclfL1p_clL_ZNS_7declvalB8ne180000ISQ_EEDTclsr3stdE9__declvalISK_ELi0EEEvEEEESK_NS_17basic_string_viewIcSC_EEENUlPNSH_5EventEE_clESY_EUlPNS3_INS4_IvSE_EESG_E5EventEE_NS7_IS14_EEFvS13_EED2Ev
FUNC 56de4 30 0 _ZNSt6__ndk110__function6__funcIZZNK5geode4TaskINS2_6ResultINS_6vectorI11DeathInfo_sNS_9allocatorIS6_EEEENS_12basic_stringIcNS_11char_traitsIcEENS7_IcEEEEEENS_9monostateEE5chainITkNS_9invocableIPT_EEZZN7DTLayer19updateSessionStringERKiENK3$_0clEPSF_EUlSQ_E_EEDTclfL1p_clL_ZNS_7declvalB8ne180000ISQ_EEDTclsr3stdE9__declvalISK_ELi0EEEvEEEESK_NS_17basic_string_viewIcSC_EEENUlPNSH_5EventEE_clESY_EUlPNS3_INS4_IvSE_EESG_E5EventEE_NS7_IS14_EEFvS13_EED0Ev
FUNC 56e14 38 0 _ZNKSt6__ndk110__function6__funcIZZNK5geode4TaskINS2_6ResultINS_6vectorI11DeathInfo_sNS_9allocatorIS6_EEEENS_12basic_stringIcNS_11char_traitsIcEENS7_IcEEEEEENS_9monostateEE5chainITkNS_9invocableIPT_EEZZN7DTLayer19updateSessionStringERKiENK3$_0clEPSF_EUlSQ_E_EEDTclfL1p_clL_ZNS_7declvalB8ne180000ISQ_EEDTclsr3stdE9__declvalISK_ELi0EEEvEEEESK_NS_17basic_string_viewIcSC_EEENUlPNSH_5EventEE_clESY_EUlPNS3_INS4_IvSE_EESG_E5EventEE_NS7_IS14_EEFvS13_EE7__cloneEv
FUNC 56e4c 30 0 _ZNKSt6__ndk110__function6__funcIZZNK5geode4TaskINS2_6ResultINS_6vectorI11DeathInfo_sNS_9allocatorIS6_EEEENS_12basic_stringIcNS_11char_traitsIcEENS7_IcEEEEEENS_9monostateEE5chainITkNS_9invocableIPT_EEZZN7DTLayer19updateSessionStringERKiENK3$_0clEPSF_EUlSQ_E_EEDTclfL1p_clL_ZNS_7declvalB8ne180000ISQ_EEDTclsr3stdE9__declvalISK_ELi0EEEvEEEESK_NS_17basic_string_viewIcSC_EEENUlPNSH_5EventEE_clESY_EUlPNS3_INS4_IvSE_EESG_E5EventEE_NS7_IS14_EEFvS13_EE7__cloneEPNS0_6__baseIS16_EE
FUNC 56e7c c 0 _ZNSt6__ndk110__function6__funcIZZNK5geode4TaskINS2_6ResultINS_6vectorI11DeathInfo_sNS_9allocatorIS6_EEEENS_12basic_stringIcNS_11char_traitsIcEENS7_IcEEEEEENS_9monostateEE5chainITkNS_9invocableIPT_EEZZN7DTLayer19updateSessionStringERKiENK3$_0clEPSF_EUlSQ_E_EEDTclfL1p_clL_ZNS_7declvalB8ne180000ISQ_EEDTclsr3stdE9__declvalISK_ELi0EEEvEEEESK_NS_17basic_string_viewIcSC_EEENUlPNSH_5EventEE_clESY_EUlPNS3_INS4_IvSE_EESG_E5EventEE_NS7_IS14_EEFvS13_EE7destroyEv
FUNC 56e88 20 0 _ZNSt6__ndk110__function6__funcIZZNK5geode4TaskINS2_6ResultINS_6vectorI11DeathInfo_sNS_9allocatorIS6_EEEENS_12basic_stringIcNS_11char_traitsIcEENS7_IcEEEEEENS_9monostateEE5chainITkNS_9invocableIPT_EEZZN7DTLayer19updateSessionStringERKiENK3$_0clEPSF_EUlSQ_E_EEDTclfL1p_clL_ZNS_7declvalB8ne180000ISQ_EEDTclsr3stdE9__declvalISK_ELi0EEEvEEEESK_NS_17basic_string_viewIcSC_EEENUlPNSH_5EventEE_clESY_EUlPNS3_INS4_IvSE_EESG_E5EventEE_NS7_IS14_EEFvS13_EE18destroy_deallocateEv
FUNC 56ea8 13c 0 _ZNSt6__ndk110__function6__funcIZZNK5geode4TaskINS2_6ResultINS_6vectorI11DeathInfo_sNS_9allocatorIS6_EEEENS_12basic_stringIcNS_11char_traitsIcEENS7_IcEEEEEENS_9monostateEE5chainITkNS_9invocableIPT_EEZZN7DTLayer19updateSessionStringERKiENK3$_0clEPSF_EUlSQ_E_EEDTclfL1p_clL_ZNS_7declvalB8ne180000ISQ_EEDTclsr3stdE9__declvalISK_ELi0EEEvEEEESK_NS_17basic_string_viewIcSC_EEENUlPNSH_5EventEE_clESY_EUlPNS3_INS4_IvSE_EESG_E5EventEE_NS7_IS14_EEFvS13_EEclEOS13_
FUNC 56fe4 18 0 _ZNKSt6__ndk110__function6__funcIZZNK5geode4TaskINS2_6ResultINS_6vectorI11DeathInfo_sNS_9allocatorIS6_EEEENS_12basic_stringIcNS_11char_traitsIcEENS7_IcEEEEEENS_9monostateEE5chainITkNS_9invocableIPT_EEZZN7DTLayer19updateSessionStringERKiENK3$_0clEPSF_EUlSQ_E_EEDTclfL1p_clL_ZNS_7declvalB8ne180000ISQ_EEDTclsr3stdE9__declvalISK_ELi0EEEvEEEESK_NS_17basic_string_viewIcSC_EEENUlPNSH_5EventEE_clESY_EUlPNS3_INS4_IvSE_EESG_E5EventEE_NS7_IS14_EEFvS13_EE6targetERKSt9type_info
FUNC 56ffc c 0 _ZNKSt6__ndk110__function6__funcIZZNK5geode4TaskINS2_6ResultINS_6vectorI11DeathInfo_sNS_9allocatorIS6_EEEENS_12basic_stringIcNS_11char_traitsIcEENS7_IcEEEEEENS_9monostateEE5chainITkNS_9invocableIPT_EEZZN7DTLayer19updateSessionStringERKiENK3$_0clEPSF_EUlSQ_E_EEDTclfL1p_clL_ZNS_7declvalB8ne180000ISQ_EEDTclsr3stdE9__declvalISK_ELi0EEEvEEEESK_NS_17basic_string_viewIcSC_EEENUlPNSH_5EventEE_clESY_EUlPNS3_INS4_IvSE_EESG_E5EventEE_NS7_IS14_EEFvS13_EE11target_typeEv
FUNC 57008 d0 0 geode::Task<geode::Result<void, std::__ndk1::basic_string<char, std::__ndk1::char_traits<char>, std::__ndk1::allocator<char> > >, std::__ndk1::monostate>::progress(std::__ndk1::shared_ptr<geode::Task<geode::Result<void, std::__ndk1::basic_string<char, std::__ndk1::char_traits<char>, std::__ndk1::allocator<char> > >, std::__ndk1::monostate>::Handle>, std::__ndk1::monostate&&)
FUNC 570d8 3a 0 geode::Task<geode::Result<void, std::__ndk1::basic_string<char, std::__ndk1::char_traits<char>, std::__ndk1::allocator<char> > >, std::__ndk1::monostate>::progress(std::__ndk1::shared_ptr<geode::Task<geode::Result<void, std::__ndk1::basic_string<char, std::__ndk1::char_traits<char>, std::__ndk1::allocator<char> > >, std::__ndk1::monostate>::Handle>, std::__ndk1::monostate&&)::{lambda()#1}::~{lambda()#1}()
FUNC 57114 48 0 std::__ndk1::__function::__func<geode::Task<geode::Result<void, std::__ndk1::basic_string<char, std::__ndk1::char_traits<char>, std::__ndk1::allocator<char> > >, std::__ndk1::monostate>::progress(std::__ndk1::shared_ptr<geode::Task<geode::Result<void, std::__ndk1::basic_string<char, std::__ndk1::char_traits<char>, std::__ndk1::allocator<char> > >, std::__ndk1::monostate>::Handle>, std::__ndk1::monostate&&)::{lambda()#1}, std::__ndk1::allocator<geode::Task<geode::Result<void, std::__ndk1::basic_string<char, std::__ndk1::char_traits<char>, std::__ndk1::allocator<char> > >, std::__ndk1::monostate>::progress(std::__ndk1::shared_ptr<geode::Task<geode::Result<void, std::__ndk1::basic_string<char, std::__ndk1::char_traits<char>, std::__ndk1::allocator<char> > >, std::__ndk1::monostate>::Handle>, std::__ndk1::monostate&&)::{lambda()#1}>, void ()>::~__func()
FUNC 5715c 54 0 std::__ndk1::__function::__func<geode::Task<geode::Result<void, std::__ndk1::basic_string<char, std::__ndk1::char_traits<char>, std::__ndk1::allocator<char> > >, std::__ndk1::monostate>::progress(std::__ndk1::shared_ptr<geode::Task<geode::Result<void, std::__ndk1::basic_string<char, std::__ndk1::char_traits<char>, std::__ndk1::allocator<char> > >, std::__ndk1::monostate>::Handle>, std::__ndk1::monostate&&)::{lambda()#1}, std::__ndk1::allocator<geode::Task<geode::Result<void, std::__ndk1::basic_string<char, std::__ndk1::char_traits<char>, std::__ndk1::allocator<char> > >, std::__ndk1::monostate>::progress(std::__ndk1::shared_ptr<geode::Task<geode::Result<void, std::__ndk1::basic_string<char, std::__ndk1::char_traits<char>, std::__ndk1::allocator<char> > >, std::__ndk1::monostate>::Handle>, std::__ndk1::monostate&&)::{lambda()#1}>, void ()>::~__func()
FUNC 571b0 38 0 std::__ndk1::__function::__func<geode::Task<geode::Result<void, std::__ndk1::basic_string<char, std::__ndk1::char_traits<char>, std::__ndk1::allocator<char> > >, std::__ndk1::monostate>::progress(std::__ndk1::shared_ptr<geode::Task<geode::Result<void, std::__ndk1::basic_string<char, std::__ndk1::char_traits<char>, std::__ndk1::allocator<char> > >, std::__ndk1::monostate>::Handle>, std::__ndk1::monostate&&)::{lambda()#1}, std::__ndk1::allocator<geode::Task<geode::Result<void, std::__ndk1::basic_string<char, std::__ndk1::char_traits<char>, std::__ndk1::allocator<char> > >, std::__ndk1::monostate>::progress(std::__ndk1::shared_ptr<geode::Task<geode::Result<void, std::__ndk1::basic_string<char, std::__ndk1::char_traits<char>, std::__ndk1::allocator<char> > >, std::__ndk1::monostate>::Handle>, std::__ndk1::monostate&&)::{lambda()#1}>, void ()>::__clone() const
FUNC 571e8 30 0 std::__ndk1::__function::__func<geode::Task<geode::Result<void, std::__ndk1::basic_string<char, std::__ndk1::char_traits<char>, std::__ndk1::allocator<char> > >, std::__ndk1::monostate>::progress(std::__ndk1::shared_ptr<geode::Task<geode::Result<void, std::__ndk1::basic_string<char, std::__ndk1::char_traits<char>, std::__ndk1::allocator<char> > >, std::__ndk1::monostate>::Handle>, std::__ndk1::monostate&&)::{lambda()#1}, std::__ndk1::allocator<geode::Task<geode::Result<void, std::__ndk1::basic_string<char, std::__ndk1::char_traits<char>, std::__ndk1::allocator<char> > >, std::__ndk1::monostate>::progress(std::__ndk1::shared_ptr<geode::Task<geode::Result<void, std::__ndk1::basic_string<char, std::__ndk1::char_traits<char>, std::__ndk1::allocator<char> > >, std::__ndk1::monostate>::Handle>, std::__ndk1::monostate&&)::{lambda()#1}>, void ()>::__clone(std::__ndk1::__function::__base<void ()>*) const
FUNC 57218 3a 0 std::__ndk1::__function::__func<geode::Task<geode::Result<void, std::__ndk1::basic_string<char, std::__ndk1::char_traits<char>, std::__ndk1::allocator<char> > >, std::__ndk1::monostate>::progress(std::__ndk1::shared_ptr<geode::Task<geode::Result<void, std::__ndk1::basic_string<char, std::__ndk1::char_traits<char>, std::__ndk1::allocator<char> > >, std::__ndk1::monostate>::Handle>, std::__ndk1::monostate&&)::{lambda()#1}, std::__ndk1::allocator<geode::Task<geode::Result<void, std::__ndk1::basic_string<char, std::__ndk1::char_traits<char>, std::__ndk1::allocator<char> > >, std::__ndk1::monostate>::progress(std::__ndk1::shared_ptr<geode::Task<geode::Result<void, std::__ndk1::basic_string<char, std::__ndk1::char_traits<char>, std::__ndk1::allocator<char> > >, std::__ndk1::monostate>::Handle>, std::__ndk1::monostate&&)::{lambda()#1}>, void ()>::destroy()
FUNC 57252 44 0 std::__ndk1::__function::__func<geode::Task<geode::Result<void, std::__ndk1::basic_string<char, std::__ndk1::char_traits<char>, std::__ndk1::allocator<char> > >, std::__ndk1::monostate>::progress(std::__ndk1::shared_ptr<geode::Task<geode::Result<void, std::__ndk1::basic_string<char, std::__ndk1::char_traits<char>, std::__ndk1::allocator<char> > >, std::__ndk1::monostate>::Handle>, std::__ndk1::monostate&&)::{lambda()#1}, std::__ndk1::allocator<geode::Task<geode::Result<void, std::__ndk1::basic_string<char, std::__ndk1::char_traits<char>, std::__ndk1::allocator<char> > >, std::__ndk1::monostate>::progress(std::__ndk1::shared_ptr<geode::Task<geode::Result<void, std::__ndk1::basic_string<char, std::__ndk1::char_traits<char>, std::__ndk1::allocator<char> > >, std::__ndk1::monostate>::Handle>, std::__ndk1::monostate&&)::{lambda()#1}>, void ()>::destroy_deallocate()
FUNC 57298 154 0 std::__ndk1::__function::__func<geode::Task<geode::Result<void, std::__ndk1::basic_string<char, std::__ndk1::char_traits<char>, std::__ndk1::allocator<char> > >, std::__ndk1::monostate>::progress(std::__ndk1::shared_ptr<geode::Task<geode::Result<void, std::__ndk1::basic_string<char, std::__ndk1::char_traits<char>, std::__ndk1::allocator<char> > >, std::__ndk1::monostate>::Handle>, std::__ndk1::monostate&&)::{lambda()#1}, std::__ndk1::allocator<geode::Task<geode::Result<void, std::__ndk1::basic_string<char, std::__ndk1::char_traits<char>, std::__ndk1::allocator<char> > >, std::__ndk1::monostate>::progress(std::__ndk1::shared_ptr<geode::Task<geode::Result<void, std::__ndk1::basic_string<char, std::__ndk1::char_traits<char>, std::__ndk1::allocator<char> > >, std::__ndk1::monostate>::Handle>, std::__ndk1::monostate&&)::{lambda()#1}>, void ()>::operator()()
FUNC 573ec 18 0 std::__ndk1::__function::__func<geode::Task<geode::Result<void, std::__ndk1::basic_string<char, std::__ndk1::char_traits<char>, std::__ndk1::allocator<char> > >, std::__ndk1::monostate>::progress(std::__ndk1::shared_ptr<geode::Task<geode::Result<void, std::__ndk1::basic_string<char, std::__ndk1::char_traits<char>, std::__ndk1::allocator<char> > >, std::__ndk1::monostate>::Handle>, std::__ndk1::monostate&&)::{lambda()#1}, std::__ndk1::allocator<geode::Task<geode::Result<void, std::__ndk1::basic_string<char, std::__ndk1::char_traits<char>, std::__ndk1::allocator<char> > >, std::__ndk1::monostate>::progress(std::__ndk1::shared_ptr<geode::Task<geode::Result<void, std::__ndk1::basic_string<char, std::__ndk1::char_traits<char>, std::__ndk1::allocator<char> > >, std::__ndk1::monostate>::Handle>, std::__ndk1::monostate&&)::{lambda()#1}>, void ()>::target(std::type_info const&) const
FUNC 57404 c 0 std::__ndk1::__function::__func<geode::Task<geode::Result<void, std::__ndk1::basic_string<char, std::__ndk1::char_traits<char>, std::__ndk1::allocator<char> > >, std::__ndk1::monostate>::progress(std::__ndk1::shared_ptr<geode::Task<geode::Result<void, std::__ndk1::basic_string<char, std::__ndk1::char_traits<char>, std::__ndk1::allocator<char> > >, std::__ndk1::monostate>::Handle>, std::__ndk1::monostate&&)::{lambda()#1}, std::__ndk1::allocator<geode::Task<geode::Result<void, std::__ndk1::basic_string<char, std::__ndk1::char_traits<char>, std::__ndk1::allocator<char> > >, std::__ndk1::monostate>::progress(std::__ndk1::shared_ptr<geode::Task<geode::Result<void, std::__ndk1::basic_string<char, std::__ndk1::char_traits<char>, std::__ndk1::allocator<char> > >, std::__ndk1::monostate>::Handle>, std::__ndk1::monostate&&)::{lambda()#1}>, void ()>::target_type() const
FUNC 57410 c 0 _ZZZNK5geode4TaskINS_6ResultINSt6__ndk16vectorI11DeathInfo_sNS2_9allocatorIS4_EEEENS2_12basic_stringIcNS2_11char_traitsIcEENS5_IcEEEEEENS2_9monostateEE5chainITkNS2_9invocableIPT_EEZZN7DTLayer19updateSessionStringERKiENK3$_0clEPSD_EUlSO_E_EEDTclfL1p_clL_ZNS2_7declvalB8ne180000ISO_EEDTclsr3stdE9__declvalISI_ELi0EEEvEEEESI_NS2_17basic_string_viewIcSA_EEENUlPNSF_5EventEE_clESW_ENUlPvE_8__invokeESY_
FUNC 5741c 9c 0 _ZZZNK5geode4TaskINS_6ResultINSt6__ndk16vectorI11DeathInfo_sNS2_9allocatorIS4_EEEENS2_12basic_stringIcNS2_11char_traitsIcEENS5_IcEEEEEENS2_9monostateEE5chainITkNS2_9invocableIPT_EEZZN7DTLayer19updateSessionStringERKiENK3$_0clEPSD_EUlSO_E_EEDTclfL1p_clL_ZNS2_7declvalB8ne180000ISO_EEDTclsr3stdE9__declvalISI_ELi0EEEvEEEESI_NS2_17basic_string_viewIcSA_EEENUlPNSF_5EventEE_clESW_ENUlPvE0_8__invokeESY_
FUNC 574b8 c 0 _ZZNK5geode4TaskINS_6ResultINSt6__ndk16vectorI11DeathInfo_sNS2_9allocatorIS4_EEEENS2_12basic_stringIcNS2_11char_traitsIcEENS5_IcEEEEEENS2_9monostateEE5chainITkNS2_9invocableIPT_EEZZN7DTLayer19updateSessionStringERKiENK3$_0clEPSD_EUlSO_E_EEDTclfL0p_clL_ZNS2_7declvalB8ne180000ISO_EEDTclsr3stdE9__declvalISI_ELi0EEEvEEEESI_NS2_17basic_string_viewIcSA_EEENUlPvE_8__invokeESV_
FUNC 574c4 9c 0 _ZZNK5geode4TaskINS_6ResultINSt6__ndk16vectorI11DeathInfo_sNS2_9allocatorIS4_EEEENS2_12basic_stringIcNS2_11char_traitsIcEENS5_IcEEEEEENS2_9monostateEE5chainITkNS2_9invocableIPT_EEZZN7DTLayer19updateSessionStringERKiENK3$_0clEPSD_EUlSO_E_EEDTclfL0p_clL_ZNS2_7declvalB8ne180000ISO_EEDTclsr3stdE9__declvalISI_ELi0EEEvEEEESI_NS2_17basic_string_viewIcSA_EEENUlPvE0_8__invokeESV_
FUNC 57560 e0 0 geode::Task<geode::Result<std::__ndk1::vector<DeathInfo_s, std::__ndk1::allocator<DeathInfo_s> >, std::__ndk1::basic_string<char, std::__ndk1::char_traits<char>, std::__ndk1::allocator<char> > >, std::__ndk1::monostate>::cancel(std::__ndk1::shared_ptr<geode::Task<geode::Result<std::__ndk1::vector<DeathInfo_s, std::__ndk1::allocator<DeathInfo_s> >, std::__ndk1::basic_string<char, std::__ndk1::char_traits<char>, std::__ndk1::allocator<char> > >, std::__ndk1::monostate>::Handle>, bool)
FUNC 57640 3a 0 geode::Task<geode::Result<std::__ndk1::vector<DeathInfo_s, std::__ndk1::allocator<DeathInfo_s> >, std::__ndk1::basic_string<char, std::__ndk1::char_traits<char>, std::__ndk1::allocator<char> > >, std::__ndk1::monostate>::cancel(std::__ndk1::shared_ptr<geode::Task<geode::Result<std::__ndk1::vector<DeathInfo_s, std::__ndk1::allocator<DeathInfo_s> >, std::__ndk1::basic_string<char, std::__ndk1::char_traits<char>, std::__ndk1::allocator<char> > >, std::__ndk1::monostate>::Handle>, bool)::{lambda()#1}::~{lambda()#1}()
FUNC 5767c 48 0 std::__ndk1::__function::__func<geode::Task<geode::Result<std::__ndk1::vector<DeathInfo_s, std::__ndk1::allocator<DeathInfo_s> >, std::__ndk1::basic_string<char, std::__ndk1::char_traits<char>, std::__ndk1::allocator<char> > >, std::__ndk1::monostate>::cancel(std::__ndk1::shared_ptr<geode::Task<geode::Result<std::__ndk1::vector<DeathInfo_s, std::__ndk1::allocator<DeathInfo_s> >, std::__ndk1::basic_string<char, std::__ndk1::char_traits<char>, std::__ndk1::allocator<char> > >, std::__ndk1::monostate>::Handle>, bool)::{lambda()#1}, std::__ndk1::allocator<geode::Task<geode::Result<std::__ndk1::vector<DeathInfo_s, std::__ndk1::allocator<DeathInfo_s> >, std::__ndk1::basic_string<char, std::__ndk1::char_traits<char>, std::__ndk1::allocator<char> > >, std::__ndk1::monostate>::cancel(std::__ndk1::shared_ptr<geode::Task<geode::Result<std::__ndk1::vector<DeathInfo_s, std::__ndk1::allocator<DeathInfo_s> >, std::__ndk1::basic_string<char, std::__ndk1::char_traits<char>, std::__ndk1::allocator<char> > >, std::__ndk1::monostate>::Handle>, bool)::{lambda()#1}>, void ()>::~__func()
FUNC 576c4 54 0 std::__ndk1::__function::__func<geode::Task<geode::Result<std::__ndk1::vector<DeathInfo_s, std::__ndk1::allocator<DeathInfo_s> >, std::__ndk1::basic_string<char, std::__ndk1::char_traits<char>, std::__ndk1::allocator<char> > >, std::__ndk1::monostate>::cancel(std::__ndk1::shared_ptr<geode::Task<geode::Result<std::__ndk1::vector<DeathInfo_s, std::__ndk1::allocator<DeathInfo_s> >, std::__ndk1::basic_string<char, std::__ndk1::char_traits<char>, std::__ndk1::allocator<char> > >, std::__ndk1::monostate>::Handle>, bool)::{lambda()#1}, std::__ndk1::allocator<geode::Task<geode::Result<std::__ndk1::vector<DeathInfo_s, std::__ndk1::allocator<DeathInfo_s> >, std::__ndk1::basic_string<char, std::__ndk1::char_traits<char>, std::__ndk1::allocator<char> > >, std::__ndk1::monostate>::cancel(std::__ndk1::shared_ptr<geode::Task<geode::Result<std::__ndk1::vector<DeathInfo_s, std::__ndk1::allocator<DeathInfo_s> >, std::__ndk1::basic_string<char, std::__ndk1::char_traits<char>, std::__ndk1::allocator<char> > >, std::__ndk1::monostate>::Handle>, bool)::{lambda()#1}>, void ()>::~__func()
FUNC 57718 38 0 std::__ndk1::__function::__func<geode::Task<geode::Result<std::__ndk1::vector<DeathInfo_s, std::__ndk1::allocator<DeathInfo_s> >, std::__ndk1::basic_string<char, std::__ndk1::char_traits<char>, std::__ndk1::allocator<char> > >, std::__ndk1::monostate>::cancel(std::__ndk1::shared_ptr<geode::Task<geode::Result<std::__ndk1::vector<DeathInfo_s, std::__ndk1::allocator<DeathInfo_s> >, std::__ndk1::basic_string<char, std::__ndk1::char_traits<char>, std::__ndk1::allocator<char> > >, std::__ndk1::monostate>::Handle>, bool)::{lambda()#1}, std::__ndk1::allocator<geode::Task<geode::Result<std::__ndk1::vector<DeathInfo_s, std::__ndk1::allocator<DeathInfo_s> >, std::__ndk1::basic_string<char, std::__ndk1::char_traits<char>, std::__ndk1::allocator<char> > >, std::__ndk1::monostate>::cancel(std::__ndk1::shared_ptr<geode::Task<geode::Result<std::__ndk1::vector<DeathInfo_s, std::__ndk1::allocator<DeathInfo_s> >, std::__ndk1::basic_string<char, std::__ndk1::char_traits<char>, std::__ndk1::allocator<char> > >, std::__ndk1::monostate>::Handle>, bool)::{lambda()#1}>, void ()>::__clone() const
FUNC 57750 30 0 std::__ndk1::__function::__func<geode::Task<geode::Result<std::__ndk1::vector<DeathInfo_s, std::__ndk1::allocator<DeathInfo_s> >, std::__ndk1::basic_string<char, std::__ndk1::char_traits<char>, std::__ndk1::allocator<char> > >, std::__ndk1::monostate>::cancel(std::__ndk1::shared_ptr<geode::Task<geode::Result<std::__ndk1::vector<DeathInfo_s, std::__ndk1::allocator<DeathInfo_s> >, std::__ndk1::basic_string<char, std::__ndk1::char_traits<char>, std::__ndk1::allocator<char> > >, std::__ndk1::monostate>::Handle>, bool)::{lambda()#1}, std::__ndk1::allocator<geode::Task<geode::Result<std::__ndk1::vector<DeathInfo_s, std::__ndk1::allocator<DeathInfo_s> >, std::__ndk1::basic_string<char, std::__ndk1::char_traits<char>, std::__ndk1::allocator<char> > >, std::__ndk1::monostate>::cancel(std::__ndk1::shared_ptr<geode::Task<geode::Result<std::__ndk1::vector<DeathInfo_s, std::__ndk1::allocator<DeathInfo_s> >, std::__ndk1::basic_string<char, std::__ndk1::char_traits<char>, std::__ndk1::allocator<char> > >, std::__ndk1::monostate>::Handle>, bool)::{lambda()#1}>, void ()>::__clone(std::__ndk1::__function::__base<void ()>*) const
FUNC 57780 3a 0 std::__ndk1::__function::__func<geode::Task<geode::Result<std::__ndk1::vector<DeathInfo_s, std::__ndk1::allocator<DeathInfo_s> >, std::__ndk1::basic_string<char, std::__ndk1::char_traits<char>, std::__ndk1::allocator<char> > >, std::__ndk1::monostate>::cancel(std::__ndk1::shared_ptr<geode::Task<geode::Result<std::__ndk1::vector<DeathInfo_s, std::__ndk1::allocator<DeathInfo_s> >, std::__ndk1::basic_string<char, std::__ndk1::char_traits<char>, std::__ndk1::allocator<char> > >, std::__ndk1::monostate>::Handle>, bool)::{lambda()#1}, std::__ndk1::allocator<geode::Task<geode::Result<std::__ndk1::vector<DeathInfo_s, std::__ndk1::allocator<DeathInfo_s> >, std::__ndk1::basic_string<char, std::__ndk1::char_traits<char>, std::__ndk1::allocator<char> > >, std::__ndk1::monostate>::cancel(std::__ndk1::shared_ptr<geode::Task<geode::Result<std::__ndk1::vector<DeathInfo_s, std::__ndk1::allocator<DeathInfo_s> >, std::__ndk1::basic_string<char, std::__ndk1::char_traits<char>, std::__ndk1::allocator<char> > >, std::__ndk1::monostate>::Handle>, bool)::{lambda()#1}>, void ()>::destroy()
FUNC 577ba 44 0 std::__ndk1::__function::__func<geode::Task<geode::Result<std::__ndk1::vector<DeathInfo_s, std::__ndk1::allocator<DeathInfo_s> >, std::__ndk1::basic_string<char, std::__ndk1::char_traits<char>, std::__ndk1::allocator<char> > >, std::__ndk1::monostate>::cancel(std::__ndk1::shared_ptr<geode::Task<geode::Result<std::__ndk1::vector<DeathInfo_s, std::__ndk1::allocator<DeathInfo_s> >, std::__ndk1::basic_string<char, std::__ndk1::char_traits<char>, std::__ndk1::allocator<char> > >, std::__ndk1::monostate>::Handle>, bool)::{lambda()#1}, std::__ndk1::allocator<geode::Task<geode::Result<std::__ndk1::vector<DeathInfo_s, std::__ndk1::allocator<DeathInfo_s> >, std::__ndk1::basic_string<char, std::__ndk1::char_traits<char>, std::__ndk1::allocator<char> > >, std::__ndk1::monostate>::cancel(std::__ndk1::shared_ptr<geode::Task<geode::Result<std::__ndk1::vector<DeathInfo_s, std::__ndk1::allocator<DeathInfo_s> >, std::__ndk1::basic_string<char, std::__ndk1::char_traits<char>, std::__ndk1::allocator<char> > >, std::__ndk1::monostate>::Handle>, bool)::{lambda()#1}>, void ()>::destroy_deallocate()
FUNC 57800 164 0 std::__ndk1::__function::__func<geode::Task<geode::Result<std::__ndk1::vector<DeathInfo_s, std::__ndk1::allocator<DeathInfo_s> >, std::__ndk1::basic_string<char, std::__ndk1::char_traits<char>, std::__ndk1::allocator<char> > >, std::__ndk1::monostate>::cancel(std::__ndk1::shared_ptr<geode::Task<geode::Result<std::__ndk1::vector<DeathInfo_s, std::__ndk1::allocator<DeathInfo_s> >, std::__ndk1::basic_string<char, std::__ndk1::char_traits<char>, std::__ndk1::allocator<char> > >, std::__ndk1::monostate>::Handle>, bool)::{lambda()#1}, std::__ndk1::allocator<geode::Task<geode::Result<std::__ndk1::vector<DeathInfo_s, std::__ndk1::allocator<DeathInfo_s> >, std::__ndk1::basic_string<char, std::__ndk1::char_traits<char>, std::__ndk1::allocator<char> > >, std::__ndk1::monostate>::cancel(std::__ndk1::shared_ptr<geode::Task<geode::Result<std::__ndk1::vector<DeathInfo_s, std::__ndk1::allocator<DeathInfo_s> >, std::__ndk1::basic_string<char, std::__ndk1::char_traits<char>, std::__ndk1::allocator<char> > >, std::__ndk1::monostate>::Handle>, bool)::{lambda()#1}>, void ()>::operator()()
FUNC 57964 18 0 std::__ndk1::__function::__func<geode::Task<geode::Result<std::__ndk1::vector<DeathInfo_s, std::__ndk1::allocator<DeathInfo_s> >, std::__ndk1::basic_string<char, std::__ndk1::char_traits<char>, std::__ndk1::allocator<char> > >, std::__ndk1::monostate>::cancel(std::__ndk1::shared_ptr<geode::Task<geode::Result<std::__ndk1::vector<DeathInfo_s, std::__ndk1::allocator<DeathInfo_s> >, std::__ndk1::basic_string<char, std::__ndk1::char_traits<char>, std::__ndk1::allocator<char> > >, std::__ndk1::monostate>::Handle>, bool)::{lambda()#1}, std::__ndk1::allocator<geode::Task<geode::Result<std::__ndk1::vector<DeathInfo_s, std::__ndk1::allocator<DeathInfo_s> >, std::__ndk1::basic_string<char, std::__ndk1::char_traits<char>, std::__ndk1::allocator<char> > >, std::__ndk1::monostate>::cancel(std::__ndk1::shared_ptr<geode::Task<geode::Result<std::__ndk1::vector<DeathInfo_s, std::__ndk1::allocator<DeathInfo_s> >, std::__ndk1::basic_string<char, std::__ndk1::char_traits<char>, std::__ndk1::allocator<char> > >, std::__ndk1::monostate>::Handle>, bool)::{lambda()#1}>, void ()>::target(std::type_info const&) const
FUNC 5797c c 0 std::__ndk1::__function::__func<geode::Task<geode::Result<std::__ndk1::vector<DeathInfo_s, std::__ndk1::allocator<DeathInfo_s> >, std::__ndk1::basic_string<char, std::__ndk1::char_traits<char>, std::__ndk1::allocator<char> > >, std::__ndk1::monostate>::cancel(std::__ndk1::shared_ptr<geode::Task<geode::Result<std::__ndk1::vector<DeathInfo_s, std::__ndk1::allocator<DeathInfo_s> >, std::__ndk1::basic_string<char, std::__ndk1::char_traits<char>, std::__ndk1::allocator<char> > >, std::__ndk1::monostate>::Handle>, bool)::{lambda()#1}, std::__ndk1::allocator<geode::Task<geode::Result<std::__ndk1::vector<DeathInfo_s, std::__ndk1::allocator<DeathInfo_s> >, std::__ndk1::basic_string<char, std::__ndk1::char_traits<char>, std::__ndk1::allocator<char> > >, std::__ndk1::monostate>::cancel(std::__ndk1::shared_ptr<geode::Task<geode::Result<std::__ndk1::vector<DeathInfo_s, std::__ndk1::allocator<DeathInfo_s> >, std::__ndk1::basic_string<char, std::__ndk1::char_traits<char>, std::__ndk1::allocator<char> > >, std::__ndk1::monostate>::Handle>, bool)::{lambda()#1}>, void ()>::target_type() const
FUNC 57988 44 0 geode::Task<geode::Result<std::__ndk1::vector<DeathInfo_s, std::__ndk1::allocator<DeathInfo_s> >, std::__ndk1::basic_string<char, std::__ndk1::char_traits<char>, std::__ndk1::allocator<char> > >, std::__ndk1::monostate>::Event::~Event()
FUNC 579cc 40 0 geode::Task<geode::Result<std::__ndk1::vector<DeathInfo_s, std::__ndk1::allocator<DeathInfo_s> >, std::__ndk1::basic_string<char, std::__ndk1::char_traits<char>, std::__ndk1::allocator<char> > >, std::__ndk1::monostate>::Event::~Event()
FUNC 57a0c 40 0 _ZNSt6__ndk110__function6__funcIZNK5geode4TaskINS2_6ResultINS_6vectorI11DeathInfo_sNS_9allocatorIS6_EEEENS_12basic_stringIcNS_11char_traitsIcEENS7_IcEEEEEENS_9monostateEE5chainITkNS_9invocableIPT_EEZN7DTLayer19updateSessionStringERKiE3$_0EEDTclfL0p_clL_ZNS_7declvalB8ne180000IPSF_EEDTclsr3stdE9__declvalISK_ELi0EEEvEEEESK_NS_17basic_string_viewIcSC_EEEUlPNSH_5EventEE_NS7_ISY_EEFvSX_EED2Ev
FUNC 57a4c 44 0 _ZNSt6__ndk110__function6__funcIZNK5geode4TaskINS2_6ResultINS_6vectorI11DeathInfo_sNS_9allocatorIS6_EEEENS_12basic_stringIcNS_11char_traitsIcEENS7_IcEEEEEENS_9monostateEE5chainITkNS_9invocableIPT_EEZN7DTLayer19updateSessionStringERKiE3$_0EEDTclfL0p_clL_ZNS_7declvalB8ne180000IPSF_EEDTclsr3stdE9__declvalISK_ELi0EEEvEEEESK_NS_17basic_string_viewIcSC_EEEUlPNSH_5EventEE_NS7_ISY_EEFvSX_EED0Ev
FUNC 57a90 60 0 _ZNKSt6__ndk110__function6__funcIZNK5geode4TaskINS2_6ResultINS_6vectorI11DeathInfo_sNS_9allocatorIS6_EEEENS_12basic_stringIcNS_11char_traitsIcEENS7_IcEEEEEENS_9monostateEE5chainITkNS_9invocableIPT_EEZN7DTLayer19updateSessionStringERKiE3$_0EEDTclfL0p_clL_ZNS_7declvalB8ne180000IPSF_EEDTclsr3stdE9__declvalISK_ELi0EEEvEEEESK_NS_17basic_string_viewIcSC_EEEUlPNSH_5EventEE_NS7_ISY_EEFvSX_EE7__cloneEv
FUNC 57af0 50 0 _ZNKSt6__ndk110__function6__funcIZNK5geode4TaskINS2_6ResultINS_6vectorI11DeathInfo_sNS_9allocatorIS6_EEEENS_12basic_stringIcNS_11char_traitsIcEENS7_IcEEEEEENS_9monostateEE5chainITkNS_9invocableIPT_EEZN7DTLayer19updateSessionStringERKiE3$_0EEDTclfL0p_clL_ZNS_7declvalB8ne180000IPSF_EEDTclsr3stdE9__declvalISK_ELi0EEEvEEEESK_NS_17basic_string_viewIcSC_EEEUlPNSH_5EventEE_NS7_ISY_EEFvSX_EE7__cloneEPNS0_6__baseIS10_EE
FUNC 57b40 30 0 _ZNSt6__ndk110__function6__funcIZNK5geode4TaskINS2_6ResultINS_6vectorI11DeathInfo_sNS_9allocatorIS6_EEEENS_12basic_stringIcNS_11char_traitsIcEENS7_IcEEEEEENS_9monostateEE5chainITkNS_9invocableIPT_EEZN7DTLayer19updateSessionStringERKiE3$_0EEDTclfL0p_clL_ZNS_7declvalB8ne180000IPSF_EEDTclsr3stdE9__declvalISK_ELi0EEEvEEEESK_NS_17basic_string_viewIcSC_EEEUlPNSH_5EventEE_NS7_ISY_EEFvSX_EE7destroyEv
FUNC 57b70 36 0 _ZNSt6__ndk110__function6__funcIZNK5geode4TaskINS2_6ResultINS_6vectorI11DeathInfo_sNS_9allocatorIS6_EEEENS_12basic_stringIcNS_11char_traitsIcEENS7_IcEEEEEENS_9monostateEE5chainITkNS_9invocableIPT_EEZN7DTLayer19updateSessionStringERKiE3$_0EEDTclfL0p_clL_ZNS_7declvalB8ne180000IPSF_EEDTclsr3stdE9__declvalISK_ELi0EEEvEEEESK_NS_17basic_string_viewIcSC_EEEUlPNSH_5EventEE_NS7_ISY_EEFvSX_EE18destroy_deallocateEv
FUNC 57ba8 238 0 _ZNSt6__ndk110__function6__funcIZNK5geode4TaskINS2_6ResultINS_6vectorI11DeathInfo_sNS_9allocatorIS6_EEEENS_12basic_stringIcNS_11char_traitsIcEENS7_IcEEEEEENS_9monostateEE5chainITkNS_9invocableIPT_EEZN7DTLayer19updateSessionStringERKiE3$_0EEDTclfL0p_clL_ZNS_7declvalB8ne180000IPSF_EEDTclsr3stdE9__declvalISK_ELi0EEEvEEEESK_NS_17basic_string_viewIcSC_EEEUlPNSH_5EventEE_NS7_ISY_EEFvSX_EEclEOSX_
FUNC 57de0 18 0 _ZNKSt6__ndk110__function6__funcIZNK5geode4TaskINS2_6ResultINS_6vectorI11DeathInfo_sNS_9allocatorIS6_EEEENS_12basic_stringIcNS_11char_traitsIcEENS7_IcEEEEEENS_9monostateEE5chainITkNS_9invocableIPT_EEZN7DTLayer19updateSessionStringERKiE3$_0EEDTclfL0p_clL_ZNS_7declvalB8ne180000IPSF_EEDTclsr3stdE9__declvalISK_ELi0EEEvEEEESK_NS_17basic_string_viewIcSC_EEEUlPNSH_5EventEE_NS7_ISY_EEFvSX_EE6targetERKSt9type_info
FUNC 57df8 c 0 _ZNKSt6__ndk110__function6__funcIZNK5geode4TaskINS2_6ResultINS_6vectorI11DeathInfo_sNS_9allocatorIS6_EEEENS_12basic_stringIcNS_11char_traitsIcEENS7_IcEEEEEENS_9monostateEE5chainITkNS_9invocableIPT_EEZN7DTLayer19updateSessionStringERKiE3$_0EEDTclfL0p_clL_ZNS_7declvalB8ne180000IPSF_EEDTclsr3stdE9__declvalISK_ELi0EEEvEEEESK_NS_17basic_string_viewIcSC_EEEUlPNSH_5EventEE_NS7_ISY_EEFvSX_EE11target_typeEv
FUNC 57e04 2c 0 _ZNSt6__ndk110__function6__funcIZZNK5geode4TaskINS2_6ResultINS_6vectorI11DeathInfo_sNS_9allocatorIS6_EEEENS_12basic_stringIcNS_11char_traitsIcEENS7_IcEEEEEENS_9monostateEE5chainITkNS_9invocableIPT_EEZN7DTLayer19updateSessionStringERKiE3$_0EEDTclfL1p_clL_ZNS_7declvalB8ne180000IPSF_EEDTclsr3stdE9__declvalISK_ELi0EEEvEEEESK_NS_17basic_string_viewIcSC_EEENUlPNSH_5EventEE_clESX_EUlPNS3_INS4_IvSE_EESG_E5EventEE_NS7_IS13_EEFvS12_EED2Ev
FUNC 57e30 30 0 _ZNSt6__ndk110__function6__funcIZZNK5geode4TaskINS2_6ResultINS_6vectorI11DeathInfo_sNS_9allocatorIS6_EEEENS_12basic_stringIcNS_11char_traitsIcEENS7_IcEEEEEENS_9monostateEE5chainITkNS_9invocableIPT_EEZN7DTLayer19updateSessionStringERKiE3$_0EEDTclfL1p_clL_ZNS_7declvalB8ne180000IPSF_EEDTclsr3stdE9__declvalISK_ELi0EEEvEEEESK_NS_17basic_string_viewIcSC_EEENUlPNSH_5EventEE_clESX_EUlPNS3_INS4_IvSE_EESG_E5EventEE_NS7_IS13_EEFvS12_EED0Ev
FUNC 57e60 38 0 _ZNKSt6__ndk110__function6__funcIZZNK5geode4TaskINS2_6ResultINS_6vectorI11DeathInfo_sNS_9allocatorIS6_EEEENS_12basic_stringIcNS_11char_traitsIcEENS7_IcEEEEEENS_9monostateEE5chainITkNS_9invocableIPT_EEZN7DTLayer19updateSessionStringERKiE3$_0EEDTclfL1p_clL_ZNS_7declvalB8ne180000IPSF_EEDTclsr3stdE9__declvalISK_ELi0EEEvEEEESK_NS_17basic_string_viewIcSC_EEENUlPNSH_5EventEE_clESX_EUlPNS3_INS4_IvSE_EESG_E5EventEE_NS7_IS13_EEFvS12_EE7__cloneEv
FUNC 57e98 30 0 _ZNKSt6__ndk110__function6__funcIZZNK5geode4TaskINS2_6ResultINS_6vectorI11DeathInfo_sNS_9allocatorIS6_EEEENS_12basic_stringIcNS_11char_traitsIcEENS7_IcEEEEEENS_9monostateEE5chainITkNS_9invocableIPT_EEZN7DTLayer19updateSessionStringERKiE3$_0EEDTclfL1p_clL_ZNS_7declvalB8ne180000IPSF_EEDTclsr3stdE9__declvalISK_ELi0EEEvEEEESK_NS_17basic_string_viewIcSC_EEENUlPNSH_5EventEE_clESX_EUlPNS3_INS4_IvSE_EESG_E5EventEE_NS7_IS13_EEFvS12_EE7__cloneEPNS0_6__baseIS15_EE
FUNC 57ec8 c 0 _ZNSt6__ndk110__function6__funcIZZNK5geode4TaskINS2_6ResultINS_6vectorI11DeathInfo_sNS_9allocatorIS6_EEEENS_12basic_stringIcNS_11char_traitsIcEENS7_IcEEEEEENS_9monostateEE5chainITkNS_9invocableIPT_EEZN7DTLayer19updateSessionStringERKiE3$_0EEDTclfL1p_clL_ZNS_7declvalB8ne180000IPSF_EEDTclsr3stdE9__declvalISK_ELi0EEEvEEEESK_NS_17basic_string_viewIcSC_EEENUlPNSH_5EventEE_clESX_EUlPNS3_INS4_IvSE_EESG_E5EventEE_NS7_IS13_EEFvS12_EE7destroyEv
FUNC 57ed4 20 0 _ZNSt6__ndk110__function6__funcIZZNK5geode4TaskINS2_6ResultINS_6vectorI11DeathInfo_sNS_9allocatorIS6_EEEENS_12basic_stringIcNS_11char_traitsIcEENS7_IcEEEEEENS_9monostateEE5chainITkNS_9invocableIPT_EEZN7DTLayer19updateSessionStringERKiE3$_0EEDTclfL1p_clL_ZNS_7declvalB8ne180000IPSF_EEDTclsr3stdE9__declvalISK_ELi0EEEvEEEESK_NS_17basic_string_viewIcSC_EEENUlPNSH_5EventEE_clESX_EUlPNS3_INS4_IvSE_EESG_E5EventEE_NS7_IS13_EEFvS12_EE18destroy_deallocateEv
FUNC 57ef4 13c 0 _ZNSt6__ndk110__function6__funcIZZNK5geode4TaskINS2_6ResultINS_6vectorI11DeathInfo_sNS_9allocatorIS6_EEEENS_12basic_stringIcNS_11char_traitsIcEENS7_IcEEEEEENS_9monostateEE5chainITkNS_9invocableIPT_EEZN7DTLayer19updateSessionStringERKiE3$_0EEDTclfL1p_clL_ZNS_7declvalB8ne180000IPSF_EEDTclsr3stdE9__declvalISK_ELi0EEEvEEEESK_NS_17basic_string_viewIcSC_EEENUlPNSH_5EventEE_clESX_EUlPNS3_INS4_IvSE_EESG_E5EventEE_NS7_IS13_EEFvS12_EEclEOS12_
FUNC 58030 18 0 _ZNKSt6__ndk110__function6__funcIZZNK5geode4TaskINS2_6ResultINS_6vectorI11DeathInfo_sNS_9allocatorIS6_EEEENS_12basic_stringIcNS_11char_traitsIcEENS7_IcEEEEEENS_9monostateEE5chainITkNS_9invocableIPT_EEZN7DTLayer19updateSessionStringERKiE3$_0EEDTclfL1p_clL_ZNS_7declvalB8ne180000IPSF_EEDTclsr3stdE9__declvalISK_ELi0EEEvEEEESK_NS_17basic_string_viewIcSC_EEENUlPNSH_5EventEE_clESX_EUlPNS3_INS4_IvSE_EESG_E5EventEE_NS7_IS13_EEFvS12_EE6targetERKSt9type_info
FUNC 58048 c 0 _ZNKSt6__ndk110__function6__funcIZZNK5geode4TaskINS2_6ResultINS_6vectorI11DeathInfo_sNS_9allocatorIS6_EEEENS_12basic_stringIcNS_11char_traitsIcEENS7_IcEEEEEENS_9monostateEE5chainITkNS_9invocableIPT_EEZN7DTLayer19updateSessionStringERKiE3$_0EEDTclfL1p_clL_ZNS_7declvalB8ne180000IPSF_EEDTclsr3stdE9__declvalISK_ELi0EEEvEEEESK_NS_17basic_string_viewIcSC_EEENUlPNSH_5EventEE_clESX_EUlPNS3_INS4_IvSE_EESG_E5EventEE_NS7_IS13_EEFvS12_EE11target_typeEv
FUNC 58054 c 0 _ZZZNK5geode4TaskINS_6ResultINSt6__ndk16vectorI11DeathInfo_sNS2_9allocatorIS4_EEEENS2_12basic_stringIcNS2_11char_traitsIcEENS5_IcEEEEEENS2_9monostateEE5chainITkNS2_9invocableIPT_EEZN7DTLayer19updateSessionStringERKiE3$_0EEDTclfL1p_clL_ZNS2_7declvalB8ne180000IPSD_EEDTclsr3stdE9__declvalISI_ELi0EEEvEEEESI_NS2_17basic_string_viewIcSA_EEENUlPNSF_5EventEE_clESV_ENUlPvE_8__invokeESX_
FUNC 58060 9c 0 _ZZZNK5geode4TaskINS_6ResultINSt6__ndk16vectorI11DeathInfo_sNS2_9allocatorIS4_EEEENS2_12basic_stringIcNS2_11char_traitsIcEENS5_IcEEEEEENS2_9monostateEE5chainITkNS2_9invocableIPT_EEZN7DTLayer19updateSessionStringERKiE3$_0EEDTclfL1p_clL_ZNS2_7declvalB8ne180000IPSD_EEDTclsr3stdE9__declvalISI_ELi0EEEvEEEESI_NS2_17basic_string_viewIcSA_EEENUlPNSF_5EventEE_clESV_ENUlPvE0_8__invokeESX_
FUNC 580fc 4 0 geode::EventListener<geode::Task<geode::Result<std::__ndk1::vector<DeathInfo_s, std::__ndk1::allocator<DeathInfo_s> >, std::__ndk1::basic_string<char, std::__ndk1::char_traits<char>, std::__ndk1::allocator<char> > >, std::__ndk1::monostate> >::getPool() const
FUNC 58100 e8 0 geode::EventListener<geode::Task<geode::Result<std::__ndk1::vector<DeathInfo_s, std::__ndk1::allocator<DeathInfo_s> >, std::__ndk1::basic_string<char, std::__ndk1::char_traits<char>, std::__ndk1::allocator<char> > >, std::__ndk1::monostate> >::handle(geode::Event*)
FUNC 581e8 68 0 geode::EventListener<geode::Task<geode::Result<std::__ndk1::vector<DeathInfo_s, std::__ndk1::allocator<DeathInfo_s> >, std::__ndk1::basic_string<char, std::__ndk1::char_traits<char>, std::__ndk1::allocator<char> > >, std::__ndk1::monostate> >::~EventListener()
FUNC 58250 6c 0 geode::EventListener<geode::Task<geode::Result<std::__ndk1::vector<DeathInfo_s, std::__ndk1::allocator<DeathInfo_s> >, std::__ndk1::basic_string<char, std::__ndk1::char_traits<char>, std::__ndk1::allocator<char> > >, std::__ndk1::monostate> >::~EventListener()
FUNC 582bc 3a 0 geode::Task<geode::Result<std::__ndk1::vector<DeathInfo_s, std::__ndk1::allocator<DeathInfo_s> >, std::__ndk1::basic_string<char, std::__ndk1::char_traits<char>, std::__ndk1::allocator<char> > >, std::__ndk1::monostate>::setListener(geode::EventListenerProtocol*)::{lambda()#1}::~{lambda()#1}()
FUNC 582f6 3a 0 geode::Task<geode::Result<std::__ndk1::vector<DeathInfo_s, std::__ndk1::allocator<DeathInfo_s> >, std::__ndk1::basic_string<char, std::__ndk1::char_traits<char>, std::__ndk1::allocator<char> > >, std::__ndk1::monostate>::setListener(geode::EventListenerProtocol*)::{lambda()#2}::~{lambda()#2}()
FUNC 58330 48 0 std::__ndk1::__function::__func<geode::Task<geode::Result<std::__ndk1::vector<DeathInfo_s, std::__ndk1::allocator<DeathInfo_s> >, std::__ndk1::basic_string<char, std::__ndk1::char_traits<char>, std::__ndk1::allocator<char> > >, std::__ndk1::monostate>::setListener(geode::EventListenerProtocol*)::{lambda()#1}, std::__ndk1::allocator<geode::Task<geode::Result<std::__ndk1::vector<DeathInfo_s, std::__ndk1::allocator<DeathInfo_s> >, std::__ndk1::basic_string<char, std::__ndk1::char_traits<char>, std::__ndk1::allocator<char> > >, std::__ndk1::monostate>::setListener(geode::EventListenerProtocol*)::{lambda()#1}>, void ()>::~__func()
FUNC 58378 54 0 std::__ndk1::__function::__func<geode::Task<geode::Result<std::__ndk1::vector<DeathInfo_s, std::__ndk1::allocator<DeathInfo_s> >, std::__ndk1::basic_string<char, std::__ndk1::char_traits<char>, std::__ndk1::allocator<char> > >, std::__ndk1::monostate>::setListener(geode::EventListenerProtocol*)::{lambda()#1}, std::__ndk1::allocator<geode::Task<geode::Result<std::__ndk1::vector<DeathInfo_s, std::__ndk1::allocator<DeathInfo_s> >, std::__ndk1::basic_string<char, std::__ndk1::char_traits<char>, std::__ndk1::allocator<char> > >, std::__ndk1::monostate>::setListener(geode::EventListenerProtocol*)::{lambda()#1}>, void ()>::~__func()
FUNC 583cc 40 0 std::__ndk1::__function::__func<geode::Task<geode::Result<std::__ndk1::vector<DeathInfo_s, std::__ndk1::allocator<DeathInfo_s> >, std::__ndk1::basic_string<char, std::__ndk1::char_traits<char>, std::__ndk1::allocator<char> > >, std::__ndk1::monostate>::setListener(geode::EventListenerProtocol*)::{lambda()#1}, std::__ndk1::allocator<geode::Task<geode::Result<std::__ndk1::vector<DeathInfo_s, std::__ndk1::allocator<DeathInfo_s> >, std::__ndk1::basic_string<char, std::__ndk1::char_traits<char>, std::__ndk1::allocator<char> > >, std::__ndk1::monostate>::setListener(geode::EventListenerProtocol*)::{lambda()#1}>, void ()>::__clone() const
FUNC 5840c 34 0 std::__ndk1::__function::__func<geode::Task<geode::Result<std::__ndk1::vector<DeathInfo_s, std::__ndk1::allocator<DeathInfo_s> >, std::__ndk1::basic_string<char, std::__ndk1::char_traits<char>, std::__ndk1::allocator<char> > >, std::__ndk1::monostate>::setListener(geode::EventListenerProtocol*)::{lambda()#1}, std::__ndk1::allocator<geode::Task<geode::Result<std::__ndk1::vector<DeathInfo_s, std::__ndk1::allocator<DeathInfo_s> >, std::__ndk1::basic_string<char, std::__ndk1::char_traits<char>, std::__ndk1::allocator<char> > >, std::__ndk1::monostate>::setListener(geode::EventListenerProtocol*)::{lambda()#1}>, void ()>::__clone(std::__ndk1::__function::__base<void ()>*) const
FUNC 58440 3a 0 std::__ndk1::__function::__func<geode::Task<geode::Result<std::__ndk1::vector<DeathInfo_s, std::__ndk1::allocator<DeathInfo_s> >, std::__ndk1::basic_string<char, std::__ndk1::char_traits<char>, std::__ndk1::allocator<char> > >, std::__ndk1::monostate>::setListener(geode::EventListenerProtocol*)::{lambda()#1}, std::__ndk1::allocator<geode::Task<geode::Result<std::__ndk1::vector<DeathInfo_s, std::__ndk1::allocator<DeathInfo_s> >, std::__ndk1::basic_string<char, std::__ndk1::char_traits<char>, std::__ndk1::allocator<char> > >, std::__ndk1::monostate>::setListener(geode::EventListenerProtocol*)::{lambda()#1}>, void ()>::destroy()
FUNC 5847a 44 0 std::__ndk1::__function::__func<geode::Task<geode::Result<std::__ndk1::vector<DeathInfo_s, std::__ndk1::allocator<DeathInfo_s> >, std::__ndk1::basic_string<char, std::__ndk1::char_traits<char>, std::__ndk1::allocator<char> > >, std::__ndk1::monostate>::setListener(geode::EventListenerProtocol*)::{lambda()#1}, std::__ndk1::allocator<geode::Task<geode::Result<std::__ndk1::vector<DeathInfo_s, std::__ndk1::allocator<DeathInfo_s> >, std::__ndk1::basic_string<char, std::__ndk1::char_traits<char>, std::__ndk1::allocator<char> > >, std::__ndk1::monostate>::setListener(geode::EventListenerProtocol*)::{lambda()#1}>, void ()>::destroy_deallocate()
FUNC 584c0 150 0 std::__ndk1::__function::__func<geode::Task<geode::Result<std::__ndk1::vector<DeathInfo_s, std::__ndk1::allocator<DeathInfo_s> >, std::__ndk1::basic_string<char, std::__ndk1::char_traits<char>, std::__ndk1::allocator<char> > >, std::__ndk1::monostate>::setListener(geode::EventListenerProtocol*)::{lambda()#1}, std::__ndk1::allocator<geode::Task<geode::Result<std::__ndk1::vector<DeathInfo_s, std::__ndk1::allocator<DeathInfo_s> >, std::__ndk1::basic_string<char, std::__ndk1::char_traits<char>, std::__ndk1::allocator<char> > >, std::__ndk1::monostate>::setListener(geode::EventListenerProtocol*)::{lambda()#1}>, void ()>::operator()()
FUNC 58610 18 0 std::__ndk1::__function::__func<geode::Task<geode::Result<std::__ndk1::vector<DeathInfo_s, std::__ndk1::allocator<DeathInfo_s> >, std::__ndk1::basic_string<char, std::__ndk1::char_traits<char>, std::__ndk1::allocator<char> > >, std::__ndk1::monostate>::setListener(geode::EventListenerProtocol*)::{lambda()#1}, std::__ndk1::allocator<geode::Task<geode::Result<std::__ndk1::vector<DeathInfo_s, std::__ndk1::allocator<DeathInfo_s> >, std::__ndk1::basic_string<char, std::__ndk1::char_traits<char>, std::__ndk1::allocator<char> > >, std::__ndk1::monostate>::setListener(geode::EventListenerProtocol*)::{lambda()#1}>, void ()>::target(std::type_info const&) const
FUNC 58628 c 0 std::__ndk1::__function::__func<geode::Task<geode::Result<std::__ndk1::vector<DeathInfo_s, std::__ndk1::allocator<DeathInfo_s> >, std::__ndk1::basic_string<char, std::__ndk1::char_traits<char>, std::__ndk1::allocator<char> > >, std::__ndk1::monostate>::setListener(geode::EventListenerProtocol*)::{lambda()#1}, std::__ndk1::allocator<geode::Task<geode::Result<std::__ndk1::vector<DeathInfo_s, std::__ndk1::allocator<DeathInfo_s> >, std::__ndk1::basic_string<char, std::__ndk1::char_traits<char>, std::__ndk1::allocator<char> > >, std::__ndk1::monostate>::setListener(geode::EventListenerProtocol*)::{lambda()#1}>, void ()>::target_type() const
FUNC 58634 48 0 std::__ndk1::__function::__func<geode::Task<geode::Result<std::__ndk1::vector<DeathInfo_s, std::__ndk1::allocator<DeathInfo_s> >, std::__ndk1::basic_string<char, std::__ndk1::char_traits<char>, std::__ndk1::allocator<char> > >, std::__ndk1::monostate>::setListener(geode::EventListenerProtocol*)::{lambda()#2}, std::__ndk1::allocator<geode::Task<geode::Result<std::__ndk1::vector<DeathInfo_s, std::__ndk1::allocator<DeathInfo_s> >, std::__ndk1::basic_string<char, std::__ndk1::char_traits<char>, std::__ndk1::allocator<char> > >, std::__ndk1::monostate>::setListener(geode::EventListenerProtocol*)::{lambda()#2}>, void ()>::~__func()
FUNC 5867c 54 0 std::__ndk1::__function::__func<geode::Task<geode::Result<std::__ndk1::vector<DeathInfo_s, std::__ndk1::allocator<DeathInfo_s> >, std::__ndk1::basic_string<char, std::__ndk1::char_traits<char>, std::__ndk1::allocator<char> > >, std::__ndk1::monostate>::setListener(geode::EventListenerProtocol*)::{lambda()#2}, std::__ndk1::allocator<geode::Task<geode::Result<std::__ndk1::vector<DeathInfo_s, std::__ndk1::allocator<DeathInfo_s> >, std::__ndk1::basic_string<char, std::__ndk1::char_traits<char>, std::__ndk1::allocator<char> > >, std::__ndk1::monostate>::setListener(geode::EventListenerProtocol*)::{lambda()#2}>, void ()>::~__func()
FUNC 586d0 3c 0 std::__ndk1::__function::__func<geode::Task<geode::Result<std::__ndk1::vector<DeathInfo_s, std::__ndk1::allocator<DeathInfo_s> >, std::__ndk1::basic_string<char, std::__ndk1::char_traits<char>, std::__ndk1::allocator<char> > >, std::__ndk1::monostate>::setListener(geode::EventListenerProtocol*)::{lambda()#2}, std::__ndk1::allocator<geode::Task<geode::Result<std::__ndk1::vector<DeathInfo_s, std::__ndk1::allocator<DeathInfo_s> >, std::__ndk1::basic_string<char, std::__ndk1::char_traits<char>, std::__ndk1::allocator<char> > >, std::__ndk1::monostate>::setListener(geode::EventListenerProtocol*)::{lambda()#2}>, void ()>::__clone() const
FUNC 5870c 30 0 std::__ndk1::__function::__func<geode::Task<geode::Result<std::__ndk1::vector<DeathInfo_s, std::__ndk1::allocator<DeathInfo_s> >, std::__ndk1::basic_string<char, std::__ndk1::char_traits<char>, std::__ndk1::allocator<char> > >, std::__ndk1::monostate>::setListener(geode::EventListenerProtocol*)::{lambda()#2}, std::__ndk1::allocator<geode::Task<geode::Result<std::__ndk1::vector<DeathInfo_s, std::__ndk1::allocator<DeathInfo_s> >, std::__ndk1::basic_string<char, std::__ndk1::char_traits<char>, std::__ndk1::allocator<char> > >, std::__ndk1::monostate>::setListener(geode::EventListenerProtocol*)::{lambda()#2}>, void ()>::__clone(std::__ndk1::__function::__base<void ()>*) const
FUNC 5873c 3a 0 std::__ndk1::__function::__func<geode::Task<geode::Result<std::__ndk1::vector<DeathInfo_s, std::__ndk1::allocator<DeathInfo_s> >, std::__ndk1::basic_string<char, std::__ndk1::char_traits<char>, std::__ndk1::allocator<char> > >, std::__ndk1::monostate>::setListener(geode::EventListenerProtocol*)::{lambda()#2}, std::__ndk1::allocator<geode::Task<geode::Result<std::__ndk1::vector<DeathInfo_s, std::__ndk1::allocator<DeathInfo_s> >, std::__ndk1::basic_string<char, std::__ndk1::char_traits<char>, std::__ndk1::allocator<char> > >, std::__ndk1::monostate>::setListener(geode::EventListenerProtocol*)::{lambda()#2}>, void ()>::destroy()
FUNC 58776 44 0 std::__ndk1::__function::__func<geode::Task<geode::Result<std::__ndk1::vector<DeathInfo_s, std::__ndk1::allocator<DeathInfo_s> >, std::__ndk1::basic_string<char, std::__ndk1::char_traits<char>, std::__ndk1::allocator<char> > >, std::__ndk1::monostate>::setListener(geode::EventListenerProtocol*)::{lambda()#2}, std::__ndk1::allocator<geode::Task<geode::Result<std::__ndk1::vector<DeathInfo_s, std::__ndk1::allocator<DeathInfo_s> >, std::__ndk1::basic_string<char, std::__ndk1::char_traits<char>, std::__ndk1::allocator<char> > >, std::__ndk1::monostate>::setListener(geode::EventListenerProtocol*)::{lambda()#2}>, void ()>::destroy_deallocate()
FUNC 587bc 150 0 std::__ndk1::__function::__func<geode::Task<geode::Result<std::__ndk1::vector<DeathInfo_s, std::__ndk1::allocator<DeathInfo_s> >, std::__ndk1::basic_string<char, std::__ndk1::char_traits<char>, std::__ndk1::allocator<char> > >, std::__ndk1::monostate>::setListener(geode::EventListenerProtocol*)::{lambda()#2}, std::__ndk1::allocator<geode::Task<geode::Result<std::__ndk1::vector<DeathInfo_s, std::__ndk1::allocator<DeathInfo_s> >, std::__ndk1::basic_string<char, std::__ndk1::char_traits<char>, std::__ndk1::allocator<char> > >, std::__ndk1::monostate>::setListener(geode::EventListenerProtocol*)::{lambda()#2}>, void ()>::operator()()
FUNC 5890c 18 0 std::__ndk1::__function::__func<geode::Task<geode::Result<std::__ndk1::vector<DeathInfo_s, std::__ndk1::allocator<DeathInfo_s> >, std::__ndk1::basic_string<char, std::__ndk1::char_traits<char>, std::__ndk1::allocator<char> > >, std::__ndk1::monostate>::setListener(geode::EventListenerProtocol*)::{lambda()#2}, std::__ndk1::allocator<geode::Task<geode::Result<std::__ndk1::vector<DeathInfo_s, std::__ndk1::allocator<DeathInfo_s> >, std::__ndk1::basic_string<char, std::__ndk1::char_traits<char>, std::__ndk1::allocator<char> > >, std::__ndk1::monostate>::setListener(geode::EventListenerProtocol*)::{lambda()#2}>, void ()>::target(std::type_info const&) const
FUNC 58924 c 0 std::__ndk1::__function::__func<geode::Task<geode::Result<std::__ndk1::vector<DeathInfo_s, std::__ndk1::allocator<DeathInfo_s> >, std::__ndk1::basic_string<char, std::__ndk1::char_traits<char>, std::__ndk1::allocator<char> > >, std::__ndk1::monostate>::setListener(geode::EventListenerProtocol*)::{lambda()#2}, std::__ndk1::allocator<geode::Task<geode::Result<std::__ndk1::vector<DeathInfo_s, std::__ndk1::allocator<DeathInfo_s> >, std::__ndk1::basic_string<char, std::__ndk1::char_traits<char>, std::__ndk1::allocator<char> > >, std::__ndk1::monostate>::setListener(geode::EventListenerProtocol*)::{lambda()#2}>, void ()>::target_type() const
FUNC 58930 c 0 _ZZNK5geode4TaskINS_6ResultINSt6__ndk16vectorI11DeathInfo_sNS2_9allocatorIS4_EEEENS2_12basic_stringIcNS2_11char_traitsIcEENS5_IcEEEEEENS2_9monostateEE5chainITkNS2_9invocableIPT_EEZN7DTLayer19updateSessionStringERKiE3$_0EEDTclfL0p_clL_ZNS2_7declvalB8ne180000IPSD_EEDTclsr3stdE9__declvalISI_ELi0EEEvEEEESI_NS2_17basic_string_viewIcSA_EEENUlPvE_8__invokeESU_
FUNC 5893c 9c 0 _ZZNK5geode4TaskINS_6ResultINSt6__ndk16vectorI11DeathInfo_sNS2_9allocatorIS4_EEEENS2_12basic_stringIcNS2_11char_traitsIcEENS5_IcEEEEEENS2_9monostateEE5chainITkNS2_9invocableIPT_EEZN7DTLayer19updateSessionStringERKiE3$_0EEDTclfL0p_clL_ZNS2_7declvalB8ne180000IPSD_EEDTclsr3stdE9__declvalISI_ELi0EEEvEEEESI_NS2_17basic_string_viewIcSA_EEENUlPvE0_8__invokeESU_
FUNC 589d8 24 0 std::__ndk1::__tree<std::__ndk1::__value_type<int, float>, std::__ndk1::__map_value_compare<int, std::__ndk1::__value_type<int, float>, std::__ndk1::less<int>, true>, std::__ndk1::allocator<std::__ndk1::__value_type<int, float> > >::destroy(std::__ndk1::__tree_node<std::__ndk1::__value_type<int, float>, void*>*)
FUNC 589fc 6b8 0 DTLayer::refreshStrings()::$_0::operator()(geode::Result<std::__ndk1::vector<DeathInfo_s, std::__ndk1::allocator<DeathInfo_s> >, std::__ndk1::basic_string<char, std::__ndk1::char_traits<char>, std::__ndk1::allocator<char> > >*) const
FUNC 590b4 3bc 0 DTLayer::refreshStrings()::$_0::operator()(geode::Result<std::__ndk1::vector<DeathInfo_s, std::__ndk1::allocator<DeathInfo_s> >, std::__ndk1::basic_string<char, std::__ndk1::char_traits<char>, std::__ndk1::allocator<char> > >*) const::{lambda(geode::Result<std::__ndk1::vector<DeathInfo_s, std::__ndk1::allocator<DeathInfo_s> >, std::__ndk1::basic_string<char, std::__ndk1::char_traits<char>, std::__ndk1::allocator<char> > >*)#1}::operator()(geode::Result<std::__ndk1::vector<DeathInfo_s, std::__ndk1::allocator<DeathInfo_s> >, std::__ndk1::basic_string<char, std::__ndk1::char_traits<char>, std::__ndk1::allocator<char> > >*) const
FUNC 59470 2c 0 _ZNSt6__ndk110__function6__funcIZNK5geode4TaskINS2_6ResultINS_6vectorI11DeathInfo_sNS_9allocatorIS6_EEEENS_12basic_stringIcNS_11char_traitsIcEENS7_IcEEEEEENS_9monostateEE5chainITkNS_9invocableIPT_EEZZN7DTLayer14refreshStringsEvENK3$_0clEPSF_EUlSO_E_EEDTclfL0p_clL_ZNS_7declvalB8ne180000ISO_EEDTclsr3stdE9__declvalISK_ELi0EEEvEEEESK_NS_17basic_string_viewIcSC_EEEUlPNSH_5EventEE_NS7_ISX_EEFvSW_EED2Ev
FUNC 5949c 30 0 _ZNSt6__ndk110__function6__funcIZNK5geode4TaskINS2_6ResultINS_6vectorI11DeathInfo_sNS_9allocatorIS6_EEEENS_12basic_stringIcNS_11char_traitsIcEENS7_IcEEEEEENS_9monostateEE5chainITkNS_9invocableIPT_EEZZN7DTLayer14refreshStringsEvENK3$_0clEPSF_EUlSO_E_EEDTclfL0p_clL_ZNS_7declvalB8ne180000ISO_EEDTclsr3stdE9__declvalISK_ELi0EEEvEEEESK_NS_17basic_string_viewIcSC_EEEUlPNSH_5EventEE_NS7_ISX_EEFvSW_EED0Ev
FUNC 594cc 3c 0 _ZNKSt6__ndk110__function6__funcIZNK5geode4TaskINS2_6ResultINS_6vectorI11DeathInfo_sNS_9allocatorIS6_EEEENS_12basic_stringIcNS_11char_traitsIcEENS7_IcEEEEEENS_9monostateEE5chainITkNS_9invocableIPT_EEZZN7DTLayer14refreshStringsEvENK3$_0clEPSF_EUlSO_E_EEDTclfL0p_clL_ZNS_7declvalB8ne180000ISO_EEDTclsr3stdE9__declvalISK_ELi0EEEvEEEESK_NS_17basic_string_viewIcSC_EEEUlPNSH_5EventEE_NS7_ISX_EEFvSW_EE7__cloneEv
FUNC 59508 30 0 _ZNKSt6__ndk110__function6__funcIZNK5geode4TaskINS2_6ResultINS_6vectorI11DeathInfo_sNS_9allocatorIS6_EEEENS_12basic_stringIcNS_11char_traitsIcEENS7_IcEEEEEENS_9monostateEE5chainITkNS_9invocableIPT_EEZZN7DTLayer14refreshStringsEvENK3$_0clEPSF_EUlSO_E_EEDTclfL0p_clL_ZNS_7declvalB8ne180000ISO_EEDTclsr3stdE9__declvalISK_ELi0EEEvEEEESK_NS_17basic_string_viewIcSC_EEEUlPNSH_5EventEE_NS7_ISX_EEFvSW_EE7__cloneEPNS0_6__baseISZ_EE
FUNC 59538 c 0 _ZNSt6__ndk110__function6__funcIZNK5geode4TaskINS2_6ResultINS_6vectorI11DeathInfo_sNS_9allocatorIS6_EEEENS_12basic_stringIcNS_11char_traitsIcEENS7_IcEEEEEENS_9monostateEE5chainITkNS_9invocableIPT_EEZZN7DTLayer14refreshStringsEvENK3$_0clEPSF_EUlSO_E_EEDTclfL0p_clL_ZNS_7declvalB8ne180000ISO_EEDTclsr3stdE9__declvalISK_ELi0EEEvEEEESK_NS_17basic_string_viewIcSC_EEEUlPNSH_5EventEE_NS7_ISX_EEFvSW_EE7destroyEv
FUNC 59544 20 0 _ZNSt6__ndk110__function6__funcIZNK5geode4TaskINS2_6ResultINS_6vectorI11DeathInfo_sNS_9allocatorIS6_EEEENS_12basic_stringIcNS_11char_traitsIcEENS7_IcEEEEEENS_9monostateEE5chainITkNS_9invocableIPT_EEZZN7DTLayer14refreshStringsEvENK3$_0clEPSF_EUlSO_E_EEDTclfL0p_clL_ZNS_7declvalB8ne180000ISO_EEDTclsr3stdE9__declvalISK_ELi0EEEvEEEESK_NS_17basic_string_viewIcSC_EEEUlPNSH_5EventEE_NS7_ISX_EEFvSW_EE18destroy_deallocateEv
FUNC 59564 238 0 _ZNSt6__ndk110__function6__funcIZNK5geode4TaskINS2_6ResultINS_6vectorI11DeathInfo_sNS_9allocatorIS6_EEEENS_12basic_stringIcNS_11char_traitsIcEENS7_IcEEEEEENS_9monostateEE5chainITkNS_9invocableIPT_EEZZN7DTLayer14refreshStringsEvENK3$_0clEPSF_EUlSO_E_EEDTclfL0p_clL_ZNS_7declvalB8ne180000ISO_EEDTclsr3stdE9__declvalISK_ELi0EEEvEEEESK_NS_17basic_string_viewIcSC_EEEUlPNSH_5EventEE_NS7_ISX_EEFvSW_EEclEOSW_
FUNC 5979c 18 0 _ZNKSt6__ndk110__function6__funcIZNK5geode4TaskINS2_6ResultINS_6vectorI11DeathInfo_sNS_9allocatorIS6_EEEENS_12basic_stringIcNS_11char_traitsIcEENS7_IcEEEEEENS_9monostateEE5chainITkNS_9invocableIPT_EEZZN7DTLayer14refreshStringsEvENK3$_0clEPSF_EUlSO_E_EEDTclfL0p_clL_ZNS_7declvalB8ne180000ISO_EEDTclsr3stdE9__declvalISK_ELi0EEEvEEEESK_NS_17basic_string_viewIcSC_EEEUlPNSH_5EventEE_NS7_ISX_EEFvSW_EE6targetERKSt9type_info
FUNC 597b4 c 0 _ZNKSt6__ndk110__function6__funcIZNK5geode4TaskINS2_6ResultINS_6vectorI11DeathInfo_sNS_9allocatorIS6_EEEENS_12basic_stringIcNS_11char_traitsIcEENS7_IcEEEEEENS_9monostateEE5chainITkNS_9invocableIPT_EEZZN7DTLayer14refreshStringsEvENK3$_0clEPSF_EUlSO_E_EEDTclfL0p_clL_ZNS_7declvalB8ne180000ISO_EEDTclsr3stdE9__declvalISK_ELi0EEEvEEEESK_NS_17basic_string_viewIcSC_EEEUlPNSH_5EventEE_NS7_ISX_EEFvSW_EE11target_typeEv
FUNC 597c0 2c 0 _ZNSt6__ndk110__function6__funcIZZNK5geode4TaskINS2_6ResultINS_6vectorI11DeathInfo_sNS_9allocatorIS6_EEEENS_12basic_stringIcNS_11char_traitsIcEENS7_IcEEEEEENS_9monostateEE5chainITkNS_9invocableIPT_EEZZN7DTLayer14refreshStringsEvENK3$_0clEPSF_EUlSO_E_EEDTclfL1p_clL_ZNS_7declvalB8ne180000ISO_EEDTclsr3stdE9__declvalISK_ELi0EEEvEEEESK_NS_17basic_string_viewIcSC_EEENUlPNSH_5EventEE_clESW_EUlPNS3_INS4_IvSE_EESG_E5EventEE_NS7_IS12_EEFvS11_EED2Ev
FUNC 597ec 30 0 _ZNSt6__ndk110__function6__funcIZZNK5geode4TaskINS2_6ResultINS_6vectorI11DeathInfo_sNS_9allocatorIS6_EEEENS_12basic_stringIcNS_11char_traitsIcEENS7_IcEEEEEENS_9monostateEE5chainITkNS_9invocableIPT_EEZZN7DTLayer14refreshStringsEvENK3$_0clEPSF_EUlSO_E_EEDTclfL1p_clL_ZNS_7declvalB8ne180000ISO_EEDTclsr3stdE9__declvalISK_ELi0EEEvEEEESK_NS_17basic_string_viewIcSC_EEENUlPNSH_5EventEE_clESW_EUlPNS3_INS4_IvSE_EESG_E5EventEE_NS7_IS12_EEFvS11_EED0Ev
FUNC 5981c 38 0 _ZNKSt6__ndk110__function6__funcIZZNK5geode4TaskINS2_6ResultINS_6vectorI11DeathInfo_sNS_9allocatorIS6_EEEENS_12basic_stringIcNS_11char_traitsIcEENS7_IcEEEEEENS_9monostateEE5chainITkNS_9invocableIPT_EEZZN7DTLayer14refreshStringsEvENK3$_0clEPSF_EUlSO_E_EEDTclfL1p_clL_ZNS_7declvalB8ne180000ISO_EEDTclsr3stdE9__declvalISK_ELi0EEEvEEEESK_NS_17basic_string_viewIcSC_EEENUlPNSH_5EventEE_clESW_EUlPNS3_INS4_IvSE_EESG_E5EventEE_NS7_IS12_EEFvS11_EE7__cloneEv
FUNC 59854 30 0 _ZNKSt6__ndk110__function6__funcIZZNK5geode4TaskINS2_6ResultINS_6vectorI11DeathInfo_sNS_9allocatorIS6_EEEENS_12basic_stringIcNS_11char_traitsIcEENS7_IcEEEEEENS_9monostateEE5chainITkNS_9invocableIPT_EEZZN7DTLayer14refreshStringsEvENK3$_0clEPSF_EUlSO_E_EEDTclfL1p_clL_ZNS_7declvalB8ne180000ISO_EEDTclsr3stdE9__declvalISK_ELi0EEEvEEEESK_NS_17basic_string_viewIcSC_EEENUlPNSH_5EventEE_clESW_EUlPNS3_INS4_IvSE_EESG_E5EventEE_NS7_IS12_EEFvS11_EE7__cloneEPNS0_6__baseIS14_EE
FUNC 59884 c 0 _ZNSt6__ndk110__function6__funcIZZNK5geode4TaskINS2_6ResultINS_6vectorI11DeathInfo_sNS_9allocatorIS6_EEEENS_12basic_stringIcNS_11char_traitsIcEENS7_IcEEEEEENS_9monostateEE5chainITkNS_9invocableIPT_EEZZN7DTLayer14refreshStringsEvENK3$_0clEPSF_EUlSO_E_EEDTclfL1p_clL_ZNS_7declvalB8ne180000ISO_EEDTclsr3stdE9__declvalISK_ELi0EEEvEEEESK_NS_17basic_string_viewIcSC_EEENUlPNSH_5EventEE_clESW_EUlPNS3_INS4_IvSE_EESG_E5EventEE_NS7_IS12_EEFvS11_EE7destroyEv
FUNC 59890 20 0 _ZNSt6__ndk110__function6__funcIZZNK5geode4TaskINS2_6ResultINS_6vectorI11DeathInfo_sNS_9allocatorIS6_EEEENS_12basic_stringIcNS_11char_traitsIcEENS7_IcEEEEEENS_9monostateEE5chainITkNS_9invocableIPT_EEZZN7DTLayer14refreshStringsEvENK3$_0clEPSF_EUlSO_E_EEDTclfL1p_clL_ZNS_7declvalB8ne180000ISO_EEDTclsr3stdE9__declvalISK_ELi0EEEvEEEESK_NS_17basic_string_viewIcSC_EEENUlPNSH_5EventEE_clESW_EUlPNS3_INS4_IvSE_EESG_E5EventEE_NS7_IS12_EEFvS11_EE18destroy_deallocateEv
FUNC 598b0 13c 0 _ZNSt6__ndk110__function6__funcIZZNK5geode4TaskINS2_6ResultINS_6vectorI11DeathInfo_sNS_9allocatorIS6_EEEENS_12basic_stringIcNS_11char_traitsIcEENS7_IcEEEEEENS_9monostateEE5chainITkNS_9invocableIPT_EEZZN7DTLayer14refreshStringsEvENK3$_0clEPSF_EUlSO_E_EEDTclfL1p_clL_ZNS_7declvalB8ne180000ISO_EEDTclsr3stdE9__declvalISK_ELi0EEEvEEEESK_NS_17basic_string_viewIcSC_EEENUlPNSH_5EventEE_clESW_EUlPNS3_INS4_IvSE_EESG_E5EventEE_NS7_IS12_EEFvS11_EEclEOS11_
FUNC 599ec 18 0 _ZNKSt6__ndk110__function6__funcIZZNK5geode4TaskINS2_6ResultINS_6vectorI11DeathInfo_sNS_9allocatorIS6_EEEENS_12basic_stringIcNS_11char_traitsIcEENS7_IcEEEEEENS_9monostateEE5chainITkNS_9invocableIPT_EEZZN7DTLayer14refreshStringsEvENK3$_0clEPSF_EUlSO_E_EEDTclfL1p_clL_ZNS_7declvalB8ne180000ISO_EEDTclsr3stdE9__declvalISK_ELi0EEEvEEEESK_NS_17basic_string_viewIcSC_EEENUlPNSH_5EventEE_clESW_EUlPNS3_INS4_IvSE_EESG_E5EventEE_NS7_IS12_EEFvS11_EE6targetERKSt9type_info
FUNC 59a04 c 0 _ZNKSt6__ndk110__function6__funcIZZNK5geode4TaskINS2_6ResultINS_6vectorI11DeathInfo_sNS_9allocatorIS6_EEEENS_12basic_stringIcNS_11char_traitsIcEENS7_IcEEEEEENS_9monostateEE5chainITkNS_9invocableIPT_EEZZN7DTLayer14refreshStringsEvENK3$_0clEPSF_EUlSO_E_EEDTclfL1p_clL_ZNS_7declvalB8ne180000ISO_EEDTclsr3stdE9__declvalISK_ELi0EEEvEEEESK_NS_17basic_string_viewIcSC_EEENUlPNSH_5EventEE_clESW_EUlPNS3_INS4_IvSE_EESG_E5EventEE_NS7_IS12_EEFvS11_EE11target_typeEv
FUNC 59a10 c 0 _ZZZNK5geode4TaskINS_6ResultINSt6__ndk16vectorI11DeathInfo_sNS2_9allocatorIS4_EEEENS2_12basic_stringIcNS2_11char_traitsIcEENS5_IcEEEEEENS2_9monostateEE5chainITkNS2_9invocableIPT_EEZZN7DTLayer14refreshStringsEvENK3$_0clEPSD_EUlSM_E_EEDTclfL1p_clL_ZNS2_7declvalB8ne180000ISM_EEDTclsr3stdE9__declvalISI_ELi0EEEvEEEESI_NS2_17basic_string_viewIcSA_EEENUlPNSF_5EventEE_clESU_ENUlPvE_8__invokeESW_
FUNC 59a1c 9c 0 _ZZZNK5geode4TaskINS_6ResultINSt6__ndk16vectorI11DeathInfo_sNS2_9allocatorIS4_EEEENS2_12basic_stringIcNS2_11char_traitsIcEENS5_IcEEEEEENS2_9monostateEE5chainITkNS2_9invocableIPT_EEZZN7DTLayer14refreshStringsEvENK3$_0clEPSD_EUlSM_E_EEDTclfL1p_clL_ZNS2_7declvalB8ne180000ISM_EEDTclsr3stdE9__declvalISI_ELi0EEEvEEEESI_NS2_17basic_string_viewIcSA_EEENUlPNSF_5EventEE_clESU_ENUlPvE0_8__invokeESW_
FUNC 59ab8 c 0 _ZZNK5geode4TaskINS_6ResultINSt6__ndk16vectorI11DeathInfo_sNS2_9allocatorIS4_EEEENS2_12basic_stringIcNS2_11char_traitsIcEENS5_IcEEEEEENS2_9monostateEE5chainITkNS2_9invocableIPT_EEZZN7DTLayer14refreshStringsEvENK3$_0clEPSD_EUlSM_E_EEDTclfL0p_clL_ZNS2_7declvalB8ne180000ISM_EEDTclsr3stdE9__declvalISI_ELi0EEEvEEEESI_NS2_17basic_string_viewIcSA_EEENUlPvE_8__invokeEST_
FUNC 59ac4 9c 0 _ZZNK5geode4TaskINS_6ResultINSt6__ndk16vectorI11DeathInfo_sNS2_9allocatorIS4_EEEENS2_12basic_stringIcNS2_11char_traitsIcEENS5_IcEEEEEENS2_9monostateEE5chainITkNS2_9invocableIPT_EEZZN7DTLayer14refreshStringsEvENK3$_0clEPSD_EUlSM_E_EEDTclfL0p_clL_ZNS2_7declvalB8ne180000ISM_EEDTclsr3stdE9__declvalISI_ELi0EEEvEEEESI_NS2_17basic_string_viewIcSA_EEENUlPvE0_8__invokeEST_
FUNC 59b60 2c 0 _ZNSt6__ndk110__function6__funcIZNK5geode4TaskINS2_6ResultINS_6vectorI11DeathInfo_sNS_9allocatorIS6_EEEENS_12basic_stringIcNS_11char_traitsIcEENS7_IcEEEEEENS_9monostateEE5chainITkNS_9invocableIPT_EEZN7DTLayer14refreshStringsEvE3$_0EEDTclfL0p_clL_ZNS_7declvalB8ne180000IPSF_EEDTclsr3stdE9__declvalISK_ELi0EEEvEEEESK_NS_17basic_string_viewIcSC_EEEUlPNSH_5EventEE_NS7_ISW_EEFvSV_EED2Ev
FUNC 59b8c 30 0 _ZNSt6__ndk110__function6__funcIZNK5geode4TaskINS2_6ResultINS_6vectorI11DeathInfo_sNS_9allocatorIS6_EEEENS_12basic_stringIcNS_11char_traitsIcEENS7_IcEEEEEENS_9monostateEE5chainITkNS_9invocableIPT_EEZN7DTLayer14refreshStringsEvE3$_0EEDTclfL0p_clL_ZNS_7declvalB8ne180000IPSF_EEDTclsr3stdE9__declvalISK_ELi0EEEvEEEESK_NS_17basic_string_viewIcSC_EEEUlPNSH_5EventEE_NS7_ISW_EEFvSV_EED0Ev
FUNC 59bbc 3c 0 _ZNKSt6__ndk110__function6__funcIZNK5geode4TaskINS2_6ResultINS_6vectorI11DeathInfo_sNS_9allocatorIS6_EEEENS_12basic_stringIcNS_11char_traitsIcEENS7_IcEEEEEENS_9monostateEE5chainITkNS_9invocableIPT_EEZN7DTLayer14refreshStringsEvE3$_0EEDTclfL0p_clL_ZNS_7declvalB8ne180000IPSF_EEDTclsr3stdE9__declvalISK_ELi0EEEvEEEESK_NS_17basic_string_viewIcSC_EEEUlPNSH_5EventEE_NS7_ISW_EEFvSV_EE7__cloneEv
FUNC 59bf8 30 0 _ZNKSt6__ndk110__function6__funcIZNK5geode4TaskINS2_6ResultINS_6vectorI11DeathInfo_sNS_9allocatorIS6_EEEENS_12basic_stringIcNS_11char_traitsIcEENS7_IcEEEEEENS_9monostateEE5chainITkNS_9invocableIPT_EEZN7DTLayer14refreshStringsEvE3$_0EEDTclfL0p_clL_ZNS_7declvalB8ne180000IPSF_EEDTclsr3stdE9__declvalISK_ELi0EEEvEEEESK_NS_17basic_string_viewIcSC_EEEUlPNSH_5EventEE_NS7_ISW_EEFvSV_EE7__cloneEPNS0_6__baseISY_EE
FUNC 59c28 c 0 _ZNSt6__ndk110__function6__funcIZNK5geode4TaskINS2_6ResultINS_6vectorI11DeathInfo_sNS_9allocatorIS6_EEEENS_12basic_stringIcNS_11char_traitsIcEENS7_IcEEEEEENS_9monostateEE5chainITkNS_9invocableIPT_EEZN7DTLayer14refreshStringsEvE3$_0EEDTclfL0p_clL_ZNS_7declvalB8ne180000IPSF_EEDTclsr3stdE9__declvalISK_ELi0EEEvEEEESK_NS_17basic_string_viewIcSC_EEEUlPNSH_5EventEE_NS7_ISW_EEFvSV_EE7destroyEv
FUNC 59c34 20 0 _ZNSt6__ndk110__function6__funcIZNK5geode4TaskINS2_6ResultINS_6vectorI11DeathInfo_sNS_9allocatorIS6_EEEENS_12basic_stringIcNS_11char_traitsIcEENS7_IcEEEEEENS_9monostateEE5chainITkNS_9invocableIPT_EEZN7DTLayer14refreshStringsEvE3$_0EEDTclfL0p_clL_ZNS_7declvalB8ne180000IPSF_EEDTclsr3stdE9__declvalISK_ELi0EEEvEEEESK_NS_17basic_string_viewIcSC_EEEUlPNSH_5EventEE_NS7_ISW_EEFvSV_EE18destroy_deallocateEv
FUNC 59c54 238 0 _ZNSt6__ndk110__function6__funcIZNK5geode4TaskINS2_6ResultINS_6vectorI11DeathInfo_sNS_9allocatorIS6_EEEENS_12basic_stringIcNS_11char_traitsIcEENS7_IcEEEEEENS_9monostateEE5chainITkNS_9invocableIPT_EEZN7DTLayer14refreshStringsEvE3$_0EEDTclfL0p_clL_ZNS_7declvalB8ne180000IPSF_EEDTclsr3stdE9__declvalISK_ELi0EEEvEEEESK_NS_17basic_string_viewIcSC_EEEUlPNSH_5EventEE_NS7_ISW_EEFvSV_EEclEOSV_
FUNC 59e8c 18 0 _ZNKSt6__ndk110__function6__funcIZNK5geode4TaskINS2_6ResultINS_6vectorI11DeathInfo_sNS_9allocatorIS6_EEEENS_12basic_stringIcNS_11char_traitsIcEENS7_IcEEEEEENS_9monostateEE5chainITkNS_9invocableIPT_EEZN7DTLayer14refreshStringsEvE3$_0EEDTclfL0p_clL_ZNS_7declvalB8ne180000IPSF_EEDTclsr3stdE9__declvalISK_ELi0EEEvEEEESK_NS_17basic_string_viewIcSC_EEEUlPNSH_5EventEE_NS7_ISW_EEFvSV_EE6targetERKSt9type_info
FUNC 59ea4 c 0 _ZNKSt6__ndk110__function6__funcIZNK5geode4TaskINS2_6ResultINS_6vectorI11DeathInfo_sNS_9allocatorIS6_EEEENS_12basic_stringIcNS_11char_traitsIcEENS7_IcEEEEEENS_9monostateEE5chainITkNS_9invocableIPT_EEZN7DTLayer14refreshStringsEvE3$_0EEDTclfL0p_clL_ZNS_7declvalB8ne180000IPSF_EEDTclsr3stdE9__declvalISK_ELi0EEEvEEEESK_NS_17basic_string_viewIcSC_EEEUlPNSH_5EventEE_NS7_ISW_EEFvSV_EE11target_typeEv
FUNC 59eb0 2c 0 _ZNSt6__ndk110__function6__funcIZZNK5geode4TaskINS2_6ResultINS_6vectorI11DeathInfo_sNS_9allocatorIS6_EEEENS_12basic_stringIcNS_11char_traitsIcEENS7_IcEEEEEENS_9monostateEE5chainITkNS_9invocableIPT_EEZN7DTLayer14refreshStringsEvE3$_0EEDTclfL1p_clL_ZNS_7declvalB8ne180000IPSF_EEDTclsr3stdE9__declvalISK_ELi0EEEvEEEESK_NS_17basic_string_viewIcSC_EEENUlPNSH_5EventEE_clESV_EUlPNS3_INS4_IvSE_EESG_E5EventEE_NS7_IS11_EEFvS10_EED2Ev
FUNC 59edc 30 0 _ZNSt6__ndk110__function6__funcIZZNK5geode4TaskINS2_6ResultINS_6vectorI11DeathInfo_sNS_9allocatorIS6_EEEENS_12basic_stringIcNS_11char_traitsIcEENS7_IcEEEEEENS_9monostateEE5chainITkNS_9invocableIPT_EEZN7DTLayer14refreshStringsEvE3$_0EEDTclfL1p_clL_ZNS_7declvalB8ne180000IPSF_EEDTclsr3stdE9__declvalISK_ELi0EEEvEEEESK_NS_17basic_string_viewIcSC_EEENUlPNSH_5EventEE_clESV_EUlPNS3_INS4_IvSE_EESG_E5EventEE_NS7_IS11_EEFvS10_EED0Ev
FUNC 59f0c 38 0 _ZNKSt6__ndk110__function6__funcIZZNK5geode4TaskINS2_6ResultINS_6vectorI11DeathInfo_sNS_9allocatorIS6_EEEENS_12basic_stringIcNS_11char_traitsIcEENS7_IcEEEEEENS_9monostateEE5chainITkNS_9invocableIPT_EEZN7DTLayer14refreshStringsEvE3$_0EEDTclfL1p_clL_ZNS_7declvalB8ne180000IPSF_EEDTclsr3stdE9__declvalISK_ELi0EEEvEEEESK_NS_17basic_string_viewIcSC_EEENUlPNSH_5EventEE_clESV_EUlPNS3_INS4_IvSE_EESG_E5EventEE_NS7_IS11_EEFvS10_EE7__cloneEv
FUNC 59f44 30 0 _ZNKSt6__ndk110__function6__funcIZZNK5geode4TaskINS2_6ResultINS_6vectorI11DeathInfo_sNS_9allocatorIS6_EEEENS_12basic_stringIcNS_11char_traitsIcEENS7_IcEEEEEENS_9monostateEE5chainITkNS_9invocableIPT_EEZN7DTLayer14refreshStringsEvE3$_0EEDTclfL1p_clL_ZNS_7declvalB8ne180000IPSF_EEDTclsr3stdE9__declvalISK_ELi0EEEvEEEESK_NS_17basic_string_viewIcSC_EEENUlPNSH_5EventEE_clESV_EUlPNS3_INS4_IvSE_EESG_E5EventEE_NS7_IS11_EEFvS10_EE7__cloneEPNS0_6__baseIS13_EE
FUNC 59f74 c 0 _ZNSt6__ndk110__function6__funcIZZNK5geode4TaskINS2_6ResultINS_6vectorI11DeathInfo_sNS_9allocatorIS6_EEEENS_12basic_stringIcNS_11char_traitsIcEENS7_IcEEEEEENS_9monostateEE5chainITkNS_9invocableIPT_EEZN7DTLayer14refreshStringsEvE3$_0EEDTclfL1p_clL_ZNS_7declvalB8ne180000IPSF_EEDTclsr3stdE9__declvalISK_ELi0EEEvEEEESK_NS_17basic_string_viewIcSC_EEENUlPNSH_5EventEE_clESV_EUlPNS3_INS4_IvSE_EESG_E5EventEE_NS7_IS11_EEFvS10_EE7destroyEv
FUNC 59f80 20 0 _ZNSt6__ndk110__function6__funcIZZNK5geode4TaskINS2_6ResultINS_6vectorI11DeathInfo_sNS_9allocatorIS6_EEEENS_12basic_stringIcNS_11char_traitsIcEENS7_IcEEEEEENS_9monostateEE5chainITkNS_9invocableIPT_EEZN7DTLayer14refreshStringsEvE3$_0EEDTclfL1p_clL_ZNS_7declvalB8ne180000IPSF_EEDTclsr3stdE9__declvalISK_ELi0EEEvEEEESK_NS_17basic_string_viewIcSC_EEENUlPNSH_5EventEE_clESV_EUlPNS3_INS4_IvSE_EESG_E5EventEE_NS7_IS11_EEFvS10_EE18destroy_deallocateEv
FUNC 59fa0 13c 0 _ZNSt6__ndk110__function6__funcIZZNK5geode4TaskINS2_6ResultINS_6vectorI11DeathInfo_sNS_9allocatorIS6_EEEENS_12basic_stringIcNS_11char_traitsIcEENS7_IcEEEEEENS_9monostateEE5chainITkNS_9invocableIPT_EEZN7DTLayer14refreshStringsEvE3$_0EEDTclfL1p_clL_ZNS_7declvalB8ne180000IPSF_EEDTclsr3stdE9__declvalISK_ELi0EEEvEEEESK_NS_17basic_string_viewIcSC_EEENUlPNSH_5EventEE_clESV_EUlPNS3_INS4_IvSE_EESG_E5EventEE_NS7_IS11_EEFvS10_EEclEOS10_
FUNC 5a0dc 18 0 _ZNKSt6__ndk110__function6__funcIZZNK5geode4TaskINS2_6ResultINS_6vectorI11DeathInfo_sNS_9allocatorIS6_EEEENS_12basic_stringIcNS_11char_traitsIcEENS7_IcEEEEEENS_9monostateEE5chainITkNS_9invocableIPT_EEZN7DTLayer14refreshStringsEvE3$_0EEDTclfL1p_clL_ZNS_7declvalB8ne180000IPSF_EEDTclsr3stdE9__declvalISK_ELi0EEEvEEEESK_NS_17basic_string_viewIcSC_EEENUlPNSH_5EventEE_clESV_EUlPNS3_INS4_IvSE_EESG_E5EventEE_NS7_IS11_EEFvS10_EE6targetERKSt9type_info
FUNC 5a0f4 c 0 _ZNKSt6__ndk110__function6__funcIZZNK5geode4TaskINS2_6ResultINS_6vectorI11DeathInfo_sNS_9allocatorIS6_EEEENS_12basic_stringIcNS_11char_traitsIcEENS7_IcEEEEEENS_9monostateEE5chainITkNS_9invocableIPT_EEZN7DTLayer14refreshStringsEvE3$_0EEDTclfL1p_clL_ZNS_7declvalB8ne180000IPSF_EEDTclsr3stdE9__declvalISK_ELi0EEEvEEEESK_NS_17basic_string_viewIcSC_EEENUlPNSH_5EventEE_clESV_EUlPNS3_INS4_IvSE_EESG_E5EventEE_NS7_IS11_EEFvS10_EE11target_typeEv
FUNC 5a100 c 0 _ZZZNK5geode4TaskINS_6ResultINSt6__ndk16vectorI11DeathInfo_sNS2_9allocatorIS4_EEEENS2_12basic_stringIcNS2_11char_traitsIcEENS5_IcEEEEEENS2_9monostateEE5chainITkNS2_9invocableIPT_EEZN7DTLayer14refreshStringsEvE3$_0EEDTclfL1p_clL_ZNS2_7declvalB8ne180000IPSD_EEDTclsr3stdE9__declvalISI_ELi0EEEvEEEESI_NS2_17basic_string_viewIcSA_EEENUlPNSF_5EventEE_clEST_ENUlPvE_8__invokeESV_
FUNC 5a10c 9c 0 _ZZZNK5geode4TaskINS_6ResultINSt6__ndk16vectorI11DeathInfo_sNS2_9allocatorIS4_EEEENS2_12basic_stringIcNS2_11char_traitsIcEENS5_IcEEEEEENS2_9monostateEE5chainITkNS2_9invocableIPT_EEZN7DTLayer14refreshStringsEvE3$_0EEDTclfL1p_clL_ZNS2_7declvalB8ne180000IPSD_EEDTclsr3stdE9__declvalISI_ELi0EEEvEEEESI_NS2_17basic_string_viewIcSA_EEENUlPNSF_5EventEE_clEST_ENUlPvE0_8__invokeESV_
FUNC 5a1a8 c 0 _ZZNK5geode4TaskINS_6ResultINSt6__ndk16vectorI11DeathInfo_sNS2_9allocatorIS4_EEEENS2_12basic_stringIcNS2_11char_traitsIcEENS5_IcEEEEEENS2_9monostateEE5chainITkNS2_9invocableIPT_EEZN7DTLayer14refreshStringsEvE3$_0EEDTclfL0p_clL_ZNS2_7declvalB8ne180000IPSD_EEDTclsr3stdE9__declvalISI_ELi0EEEvEEEESI_NS2_17basic_string_viewIcSA_EEENUlPvE_8__invokeESS_
FUNC 5a1b4 9c 0 _ZZNK5geode4TaskINS_6ResultINSt6__ndk16vectorI11DeathInfo_sNS2_9allocatorIS4_EEEENS2_12basic_stringIcNS2_11char_traitsIcEENS5_IcEEEEEENS2_9monostateEE5chainITkNS2_9invocableIPT_EEZN7DTLayer14refreshStringsEvE3$_0EEDTclfL0p_clL_ZNS2_7declvalB8ne180000IPSD_EEDTclsr3stdE9__declvalISI_ELi0EEEvEEEESI_NS2_17basic_string_viewIcSA_EEENUlPvE0_8__invokeESS_
FUNC 5a250 3a 0 geode::Task<geode::Result<std::__ndk1::vector<DeathInfo_s, std::__ndk1::allocator<DeathInfo_s> >, std::__ndk1::basic_string<char, std::__ndk1::char_traits<char>, std::__ndk1::allocator<char> > >, std::__ndk1::monostate>::run(std::__ndk1::function<geode::Task<geode::Result<std::__ndk1::vector<DeathInfo_s, std::__ndk1::allocator<DeathInfo_s> >, std::__ndk1::basic_string<char, std::__ndk1::char_traits<char>, std::__ndk1::allocator<char> > >, std::__ndk1::monostate>::Result(std::__ndk1::function<void (std::__ndk1::monostate)>, std::__ndk1::function<bool ()>)>&&, std::__ndk1::basic_string_view<char, std::__ndk1::char_traits<char> >)::{lambda()#1}::~{lambda()#1}()
FUNC 5a28c 10 0 std::__ndk1::__shared_ptr_emplace<geode::Task<geode::Result<std::__ndk1::vector<DeathInfo_s, std::__ndk1::allocator<DeathInfo_s> >, std::__ndk1::basic_string<char, std::__ndk1::char_traits<char>, std::__ndk1::allocator<char> > >, std::__ndk1::monostate>::Handle, std::__ndk1::allocator<geode::Task<geode::Result<std::__ndk1::vector<DeathInfo_s, std::__ndk1::allocator<DeathInfo_s> >, std::__ndk1::basic_string<char, std::__ndk1::char_traits<char>, std::__ndk1::allocator<char> > >, std::__ndk1::monostate>::Handle> >::~__shared_ptr_emplace()
FUNC 5a29c 1c 0 std::__ndk1::__shared_ptr_emplace<geode::Task<geode::Result<std::__ndk1::vector<DeathInfo_s, std::__ndk1::allocator<DeathInfo_s> >, std::__ndk1::basic_string<char, std::__ndk1::char_traits<char>, std::__ndk1::allocator<char> > >, std::__ndk1::monostate>::Handle, std::__ndk1::allocator<geode::Task<geode::Result<std::__ndk1::vector<DeathInfo_s, std::__ndk1::allocator<DeathInfo_s> >, std::__ndk1::basic_string<char, std::__ndk1::char_traits<char>, std::__ndk1::allocator<char> > >, std::__ndk1::monostate>::Handle> >::~__shared_ptr_emplace()
FUNC 5a2b8 bc 0 std::__ndk1::__shared_ptr_emplace<geode::Task<geode::Result<std::__ndk1::vector<DeathInfo_s, std::__ndk1::allocator<DeathInfo_s> >, std::__ndk1::basic_string<char, std::__ndk1::char_traits<char>, std::__ndk1::allocator<char> > >, std::__ndk1::monostate>::Handle, std::__ndk1::allocator<geode::Task<geode::Result<std::__ndk1::vector<DeathInfo_s, std::__ndk1::allocator<DeathInfo_s> >, std::__ndk1::basic_string<char, std::__ndk1::char_traits<char>, std::__ndk1::allocator<char> > >, std::__ndk1::monostate>::Handle> >::__on_zero_shared()
FUNC 5a374 4 0 std::__ndk1::__shared_ptr_emplace<geode::Task<geode::Result<std::__ndk1::vector<DeathInfo_s, std::__ndk1::allocator<DeathInfo_s> >, std::__ndk1::basic_string<char, std::__ndk1::char_traits<char>, std::__ndk1::allocator<char> > >, std::__ndk1::monostate>::Handle, std::__ndk1::allocator<geode::Task<geode::Result<std::__ndk1::vector<DeathInfo_s, std::__ndk1::allocator<DeathInfo_s> >, std::__ndk1::basic_string<char, std::__ndk1::char_traits<char>, std::__ndk1::allocator<char> > >, std::__ndk1::monostate>::Handle> >::__on_zero_shared_weak()
FUNC 5a378 64 0 std::__ndk1::__optional_destruct_base<geode::Result<std::__ndk1::vector<DeathInfo_s, std::__ndk1::allocator<DeathInfo_s> >, std::__ndk1::basic_string<char, std::__ndk1::char_traits<char>, std::__ndk1::allocator<char> > >, false>::~__optional_destruct_base[abi:ne180000]()
FUNC 5a3dc e 0 std::__ndk1::__variant_detail::__visitation::__base::__dispatcher<(unsigned int)0>::__dispatch[abi:ne180000]<std::__ndk1::__variant_detail::__dtor<std::__ndk1::__variant_detail::__traits<std::__ndk1::vector<DeathInfo_s, std::__ndk1::allocator<std::__ndk1::vector> >, std::__ndk1::basic_string<char, std::__ndk1::char_traits<char>, DeathInfo_s<char> > >, (std::__ndk1::__variant_detail::_Trait)1>::__destroy[abi:ne180000]()::{lambda(auto:1&)#1}, std::__ndk1::__variant_detail::__base<(std::__ndk1::__variant_detail::__traits<std::__ndk1::vector<DeathInfo_s, std::__ndk1::allocator<std::__ndk1::vector> >, std::__ndk1::basic_string<char, std::__ndk1::char_traits<char>, DeathInfo_s<char> > >)1, std::__ndk1::allocator<std::__ndk1::vector>, DeathInfo_s<char> >&>(std::__ndk1::__variant_detail::__dtor<std::__ndk1::__variant_detail::__traits<std::__ndk1::vector<DeathInfo_s, std::__ndk1::allocator<std::__ndk1::vector> >, std::__ndk1::basic_string<char, std::__ndk1::char_traits<char>, DeathInfo_s<char> > >, (std::__ndk1::__variant_detail::_Trait)1>, std::__ndk1::__variant_detail::__base<(std::__ndk1::__variant_detail::__traits<std::__ndk1::vector<DeathInfo_s, std::__ndk1::allocator<std::__ndk1::vector> >, std::__ndk1::basic_string<char, std::__ndk1::char_traits<char>, DeathInfo_s<char> > >)1, std::__ndk1::allocator<std::__ndk1::vector>, DeathInfo_s<char> >&)
FUNC 5a3ea e 0 std::__ndk1::__variant_detail::__visitation::__base::__dispatcher<(unsigned int)1>::__dispatch[abi:ne180000]<std::__ndk1::__variant_detail::__dtor<std::__ndk1::__variant_detail::__traits<std::__ndk1::vector<DeathInfo_s, std::__ndk1::allocator<std::__ndk1::vector> >, std::__ndk1::basic_string<char, std::__ndk1::char_traits<char>, DeathInfo_s<char> > >, (std::__ndk1::__variant_detail::_Trait)1>::__destroy[abi:ne180000]()::{lambda(auto:1&)#1}, std::__ndk1::__variant_detail::__base<(std::__ndk1::__variant_detail::__traits<std::__ndk1::vector<DeathInfo_s, std::__ndk1::allocator<std::__ndk1::vector> >, std::__ndk1::basic_string<char, std::__ndk1::char_traits<char>, DeathInfo_s<char> > >)1, std::__ndk1::allocator<std::__ndk1::vector>, DeathInfo_s<char> >&>(std::__ndk1::__variant_detail::__dtor<std::__ndk1::__variant_detail::__traits<std::__ndk1::vector<DeathInfo_s, std::__ndk1::allocator<std::__ndk1::vector> >, std::__ndk1::basic_string<char, std::__ndk1::char_traits<char>, DeathInfo_s<char> > >, (std::__ndk1::__variant_detail::_Trait)1>, std::__ndk1::__variant_detail::__base<(std::__ndk1::__variant_detail::__traits<std::__ndk1::vector<DeathInfo_s, std::__ndk1::allocator<std::__ndk1::vector> >, std::__ndk1::basic_string<char, std::__ndk1::char_traits<char>, DeathInfo_s<char> > >)1, std::__ndk1::allocator<std::__ndk1::vector>, DeathInfo_s<char> >&)
FUNC 5a3f8 42c 0 std::__ndk1::__thread_proxy[abi:ne180000]<std::__ndk1::tuple<std::__ndk1::unique_ptr<std::__ndk1::__thread_struct, std::__ndk1::default_delete<std::__ndk1::unique_ptr> >, geode::Task<std::__ndk1::unique_ptr<std::__ndk1::__thread_struct, std::__ndk1::default_delete<std::__ndk1::unique_ptr> >::Result<std::__ndk1::vector<DeathInfo_s, std::__ndk1::allocator<std::__ndk1::vector> >, std::__ndk1::basic_string<char, std::__ndk1::char_traits<char>, DeathInfo_s<char> > >, std::__ndk1::monostate>::run(std::__ndk1::function<std::__ndk1::monostate(geode::Task<std::__ndk1::unique_ptr<std::__ndk1::__thread_struct, std::__ndk1::default_delete<std::__ndk1::unique_ptr> >::Result<std::__ndk1::vector<DeathInfo_s, std::__ndk1::allocator<std::__ndk1::vector> >, std::__ndk1::basic_string<char, std::__ndk1::char_traits<char>, DeathInfo_s<char> > >, std::__ndk1::monostate><void (std::__ndk1::unique_ptr<std::__ndk1::__thread_struct, std::__ndk1::default_delete<std::__ndk1::unique_ptr> >::Result<std::__ndk1::vector<DeathInfo_s, std::__ndk1::allocator<std::__ndk1::vector> >, std::__ndk1::basic_string<char, std::__ndk1::char_traits<char>, DeathInfo_s<char> > >)>, geode::Task<std::__ndk1::unique_ptr<std::__ndk1::__thread_struct, std::__ndk1::default_delete<std::__ndk1::unique_ptr> >::Result<std::__ndk1::vector<DeathInfo_s, std::__ndk1::allocator<std::__ndk1::vector> >, std::__ndk1::basic_string<char, std::__ndk1::char_traits<char>, DeathInfo_s<char> > >, std::__ndk1::monostate><bool ()>)::Result>&&, std::__ndk1::basic_string_view<char, std::__ndk1::char_traits>)::{lambda()#1}> >(std::__ndk1::tuple<std::__ndk1::unique_ptr<std::__ndk1::__thread_struct, std::__ndk1::default_delete<std::__ndk1::unique_ptr> >, geode::Task<std::__ndk1::unique_ptr<std::__ndk1::__thread_struct, std::__ndk1::default_delete<std::__ndk1::unique_ptr> >::Result<std::__ndk1::vector<DeathInfo_s, std::__ndk1::allocator<std::__ndk1::vector> >, std::__ndk1::basic_string<char, std::__ndk1::char_traits<char>, DeathInfo_s<char> > >, std::__ndk1::monostate>::run(std::__ndk1::function<std::__ndk1::monostate(geode::Task<std::__ndk1::unique_ptr<std::__ndk1::__thread_struct, std::__ndk1::default_delete<std::__ndk1::unique_ptr> >::Result<std::__ndk1::vector<DeathInfo_s, std::__ndk1::allocator<std::__ndk1::vector> >, std::__ndk1::basic_string<char, std::__ndk1::char_traits<char>, DeathInfo_s<char> > >, std::__ndk1::monostate><void (std::__ndk1::unique_ptr<std::__ndk1::__thread_struct, std::__ndk1::default_delete<std::__ndk1::unique_ptr> >::Result<std::__ndk1::vector<DeathInfo_s, std::__ndk1::allocator<std::__ndk1::vector> >, std::__ndk1::basic_string<char, std::__ndk1::char_traits<char>, DeathInfo_s<char> > >)>, geode::Task<std::__ndk1::unique_ptr<std::__ndk1::__thread_struct, std::__ndk1::default_delete<std::__ndk1::unique_ptr> >::Result<std::__ndk1::vector<DeathInfo_s, std::__ndk1::allocator<std::__ndk1::vector> >, std::__ndk1::basic_string<char, std::__ndk1::char_traits<char>, DeathInfo_s<char> > >, std::__ndk1::monostate><bool ()>)::Result>&&, std::__ndk1::basic_string_view<char, std::__ndk1::char_traits>)::{lambda()#1}>)
FUNC 5a824 22 0 std::__ndk1::unique_ptr<std::__ndk1::__thread_struct, std::__ndk1::default_delete<std::__ndk1::__thread_struct> >::~unique_ptr[abi:ne180000]()
FUNC 5a848 60 0 geode::Task<geode::Result<std::__ndk1::vector<DeathInfo_s, std::__ndk1::allocator<DeathInfo_s> >, std::__ndk1::basic_string<char, std::__ndk1::char_traits<char>, std::__ndk1::allocator<char> > >, std::__ndk1::monostate>::Result::~Result()
FUNC 5a8a8 2c 0 std::__ndk1::__function::__func<geode::Task<geode::Result<std::__ndk1::vector<DeathInfo_s, std::__ndk1::allocator<DeathInfo_s> >, std::__ndk1::basic_string<char, std::__ndk1::char_traits<char>, std::__ndk1::allocator<char> > >, std::__ndk1::monostate>::run(std::__ndk1::function<geode::Task<geode::Result<std::__ndk1::vector<DeathInfo_s, std::__ndk1::allocator<DeathInfo_s> >, std::__ndk1::basic_string<char, std::__ndk1::char_traits<char>, std::__ndk1::allocator<char> > >, std::__ndk1::monostate>::Result(std::__ndk1::function<void (std::__ndk1::monostate)>, std::__ndk1::function<bool ()>)>&&, std::__ndk1::basic_string_view<char, std::__ndk1::char_traits<char> >)::{lambda()#1}::operator()() const::{lambda(std::__ndk1::monostate)#1}, std::__ndk1::allocator<geode::Task<geode::Result<std::__ndk1::vector<DeathInfo_s, std::__ndk1::allocator<DeathInfo_s> >, std::__ndk1::basic_string<char, std::__ndk1::char_traits<char>, std::__ndk1::allocator<char> > >, std::__ndk1::monostate>::run(std::__ndk1::function<geode::Task<geode::Result<std::__ndk1::vector<DeathInfo_s, std::__ndk1::allocator<DeathInfo_s> >, std::__ndk1::basic_string<char, std::__ndk1::char_traits<char>, std::__ndk1::allocator<char> > >, std::__ndk1::monostate>::Result(std::__ndk1::function<void (std::__ndk1::monostate)>, std::__ndk1::function<bool ()>)>&&, std::__ndk1::basic_string_view<char, std::__ndk1::char_traits<char> >)::{lambda()#1}::operator()() const::{lambda(std::__ndk1::monostate)#1}>, void (std::__ndk1::monostate)>::~__func()
FUNC 5a8d4 30 0 std::__ndk1::__function::__func<geode::Task<geode::Result<std::__ndk1::vector<DeathInfo_s, std::__ndk1::allocator<DeathInfo_s> >, std::__ndk1::basic_string<char, std::__ndk1::char_traits<char>, std::__ndk1::allocator<char> > >, std::__ndk1::monostate>::run(std::__ndk1::function<geode::Task<geode::Result<std::__ndk1::vector<DeathInfo_s, std::__ndk1::allocator<DeathInfo_s> >, std::__ndk1::basic_string<char, std::__ndk1::char_traits<char>, std::__ndk1::allocator<char> > >, std::__ndk1::monostate>::Result(std::__ndk1::function<void (std::__ndk1::monostate)>, std::__ndk1::function<bool ()>)>&&, std::__ndk1::basic_string_view<char, std::__ndk1::char_traits<char> >)::{lambda()#1}::operator()() const::{lambda(std::__ndk1::monostate)#1}, std::__ndk1::allocator<geode::Task<geode::Result<std::__ndk1::vector<DeathInfo_s, std::__ndk1::allocator<DeathInfo_s> >, std::__ndk1::basic_string<char, std::__ndk1::char_traits<char>, std::__ndk1::allocator<char> > >, std::__ndk1::monostate>::run(std::__ndk1::function<geode::Task<geode::Result<std::__ndk1::vector<DeathInfo_s, std::__ndk1::allocator<DeathInfo_s> >, std::__ndk1::basic_string<char, std::__ndk1::char_traits<char>, std::__ndk1::allocator<char> > >, std::__ndk1::monostate>::Result(std::__ndk1::function<void (std::__ndk1::monostate)>, std::__ndk1::function<bool ()>)>&&, std::__ndk1::basic_string_view<char, std::__ndk1::char_traits<char> >)::{lambda()#1}::operator()() const::{lambda(std::__ndk1::monostate)#1}>, void (std::__ndk1::monostate)>::~__func()
FUNC 5a904 38 0 std::__ndk1::__function::__func<geode::Task<geode::Result<std::__ndk1::vector<DeathInfo_s, std::__ndk1::allocator<DeathInfo_s> >, std::__ndk1::basic_string<char, std::__ndk1::char_traits<char>, std::__ndk1::allocator<char> > >, std::__ndk1::monostate>::run(std::__ndk1::function<geode::Task<geode::Result<std::__ndk1::vector<DeathInfo_s, std::__ndk1::allocator<DeathInfo_s> >, std::__ndk1::basic_string<char, std::__ndk1::char_traits<char>, std::__ndk1::allocator<char> > >, std::__ndk1::monostate>::Result(std::__ndk1::function<void (std::__ndk1::monostate)>, std::__ndk1::function<bool ()>)>&&, std::__ndk1::basic_string_view<char, std::__ndk1::char_traits<char> >)::{lambda()#1}::operator()() const::{lambda(std::__ndk1::monostate)#1}, std::__ndk1::allocator<geode::Task<geode::Result<std::__ndk1::vector<DeathInfo_s, std::__ndk1::allocator<DeathInfo_s> >, std::__ndk1::basic_string<char, std::__ndk1::char_traits<char>, std::__ndk1::allocator<char> > >, std::__ndk1::monostate>::run(std::__ndk1::function<geode::Task<geode::Result<std::__ndk1::vector<DeathInfo_s, std::__ndk1::allocator<DeathInfo_s> >, std::__ndk1::basic_string<char, std::__ndk1::char_traits<char>, std::__ndk1::allocator<char> > >, std::__ndk1::monostate>::Result(std::__ndk1::function<void (std::__ndk1::monostate)>, std::__ndk1::function<bool ()>)>&&, std::__ndk1::basic_string_view<char, std::__ndk1::char_traits<char> >)::{lambda()#1}::operator()() const::{lambda(std::__ndk1::monostate)#1}>, void (std::__ndk1::monostate)>::__clone() const
FUNC 5a93c 30 0 std::__ndk1::__function::__func<geode::Task<geode::Result<std::__ndk1::vector<DeathInfo_s, std::__ndk1::allocator<DeathInfo_s> >, std::__ndk1::basic_string<char, std::__ndk1::char_traits<char>, std::__ndk1::allocator<char> > >, std::__ndk1::monostate>::run(std::__ndk1::function<geode::Task<geode::Result<std::__ndk1::vector<DeathInfo_s, std::__ndk1::allocator<DeathInfo_s> >, std::__ndk1::basic_string<char, std::__ndk1::char_traits<char>, std::__ndk1::allocator<char> > >, std::__ndk1::monostate>::Result(std::__ndk1::function<void (std::__ndk1::monostate)>, std::__ndk1::function<bool ()>)>&&, std::__ndk1::basic_string_view<char, std::__ndk1::char_traits<char> >)::{lambda()#1}::operator()() const::{lambda(std::__ndk1::monostate)#1}, std::__ndk1::allocator<geode::Task<geode::Result<std::__ndk1::vector<DeathInfo_s, std::__ndk1::allocator<DeathInfo_s> >, std::__ndk1::basic_string<char, std::__ndk1::char_traits<char>, std::__ndk1::allocator<char> > >, std::__ndk1::monostate>::run(std::__ndk1::function<geode::Task<geode::Result<std::__ndk1::vector<DeathInfo_s, std::__ndk1::allocator<DeathInfo_s> >, std::__ndk1::basic_string<char, std::__ndk1::char_traits<char>, std::__ndk1::allocator<char> > >, std::__ndk1::monostate>::Result(std::__ndk1::function<void (std::__ndk1::monostate)>, std::__ndk1::function<bool ()>)>&&, std::__ndk1::basic_string_view<char, std::__ndk1::char_traits<char> >)::{lambda()#1}::operator()() const::{lambda(std::__ndk1::monostate)#1}>, void (std::__ndk1::monostate)>::__clone(std::__ndk1::__function::__base<void (std::__ndk1::monostate)>*) const
FUNC 5a96c c 0 std::__ndk1::__function::__func<geode::Task<geode::Result<std::__ndk1::vector<DeathInfo_s, std::__ndk1::allocator<DeathInfo_s> >, std::__ndk1::basic_string<char, std::__ndk1::char_traits<char>, std::__ndk1::allocator<char> > >, std::__ndk1::monostate>::run(std::__ndk1::function<geode::Task<geode::Result<std::__ndk1::vector<DeathInfo_s, std::__ndk1::allocator<DeathInfo_s> >, std::__ndk1::basic_string<char, std::__ndk1::char_traits<char>, std::__ndk1::allocator<char> > >, std::__ndk1::monostate>::Result(std::__ndk1::function<void (std::__ndk1::monostate)>, std::__ndk1::function<bool ()>)>&&, std::__ndk1::basic_string_view<char, std::__ndk1::char_traits<char> >)::{lambda()#1}::operator()() const::{lambda(std::__ndk1::monostate)#1}, std::__ndk1::allocator<geode::Task<geode::Result<std::__ndk1::vector<DeathInfo_s, std::__ndk1::allocator<DeathInfo_s> >, std::__ndk1::basic_string<char, std::__ndk1::char_traits<char>, std::__ndk1::allocator<char> > >, std::__ndk1::monostate>::run(std::__ndk1::function<geode::Task<geode::Result<std::__ndk1::vector<DeathInfo_s, std::__ndk1::allocator<DeathInfo_s> >, std::__ndk1::basic_string<char, std::__ndk1::char_traits<char>, std::__ndk1::allocator<char> > >, std::__ndk1::monostate>::Result(std::__ndk1::function<void (std::__ndk1::monostate)>, std::__ndk1::function<bool ()>)>&&, std::__ndk1::basic_string_view<char, std::__ndk1::char_traits<char> >)::{lambda()#1}::operator()() const::{lambda(std::__ndk1::monostate)#1}>, void (std::__ndk1::monostate)>::destroy()
FUNC 5a978 20 0 std::__ndk1::__function::__func<geode::Task<geode::Result<std::__ndk1::vector<DeathInfo_s, std::__ndk1::allocator<DeathInfo_s> >, std::__ndk1::basic_string<char, std::__ndk1::char_traits<char>, std::__ndk1::allocator<char> > >, std::__ndk1::monostate>::run(std::__ndk1::function<geode::Task<geode::Result<std::__ndk1::vector<DeathInfo_s, std::__ndk1::allocator<DeathInfo_s> >, std::__ndk1::basic_string<char, std::__ndk1::char_traits<char>, std::__ndk1::allocator<char> > >, std::__ndk1::monostate>::Result(std::__ndk1::function<void (std::__ndk1::monostate)>, std::__ndk1::function<bool ()>)>&&, std::__ndk1::basic_string_view<char, std::__ndk1::char_traits<char> >)::{lambda()#1}::operator()() const::{lambda(std::__ndk1::monostate)#1}, std::__ndk1::allocator<geode::Task<geode::Result<std::__ndk1::vector<DeathInfo_s, std::__ndk1::allocator<DeathInfo_s> >, std::__ndk1::basic_string<char, std::__ndk1::char_traits<char>, std::__ndk1::allocator<char> > >, std::__ndk1::monostate>::run(std::__ndk1::function<geode::Task<geode::Result<std::__ndk1::vector<DeathInfo_s, std::__ndk1::allocator<DeathInfo_s> >, std::__ndk1::basic_string<char, std::__ndk1::char_traits<char>, std::__ndk1::allocator<char> > >, std::__ndk1::monostate>::Result(std::__ndk1::function<void (std::__ndk1::monostate)>, std::__ndk1::function<bool ()>)>&&, std::__ndk1::basic_string_view<char, std::__ndk1::char_traits<char> >)::{lambda()#1}::operator()() const::{lambda(std::__ndk1::monostate)#1}>, void (std::__ndk1::monostate)>::destroy_deallocate()
FUNC 5a998 110 0 std::__ndk1::__function::__func<geode::Task<geode::Result<std::__ndk1::vector<DeathInfo_s, std::__ndk1::allocator<DeathInfo_s> >, std::__ndk1::basic_string<char, std::__ndk1::char_traits<char>, std::__ndk1::allocator<char> > >, std::__ndk1::monostate>::run(std::__ndk1::function<geode::Task<geode::Result<std::__ndk1::vector<DeathInfo_s, std::__ndk1::allocator<DeathInfo_s> >, std::__ndk1::basic_string<char, std::__ndk1::char_traits<char>, std::__ndk1::allocator<char> > >, std::__ndk1::monostate>::Result(std::__ndk1::function<void (std::__ndk1::monostate)>, std::__ndk1::function<bool ()>)>&&, std::__ndk1::basic_string_view<char, std::__ndk1::char_traits<char> >)::{lambda()#1}::operator()() const::{lambda(std::__ndk1::monostate)#1}, std::__ndk1::allocator<geode::Task<geode::Result<std::__ndk1::vector<DeathInfo_s, std::__ndk1::allocator<DeathInfo_s> >, std::__ndk1::basic_string<char, std::__ndk1::char_traits<char>, std::__ndk1::allocator<char> > >, std::__ndk1::monostate>::run(std::__ndk1::function<geode::Task<geode::Result<std::__ndk1::vector<DeathInfo_s, std::__ndk1::allocator<DeathInfo_s> >, std::__ndk1::basic_string<char, std::__ndk1::char_traits<char>, std::__ndk1::allocator<char> > >, std::__ndk1::monostate>::Result(std::__ndk1::function<void (std::__ndk1::monostate)>, std::__ndk1::function<bool ()>)>&&, std::__ndk1::basic_string_view<char, std::__ndk1::char_traits<char> >)::{lambda()#1}::operator()() const::{lambda(std::__ndk1::monostate)#1}>, void (std::__ndk1::monostate)>::operator()(std::__ndk1::monostate&&)
FUNC 5aaa8 18 0 std::__ndk1::__function::__func<geode::Task<geode::Result<std::__ndk1::vector<DeathInfo_s, std::__ndk1::allocator<DeathInfo_s> >, std::__ndk1::basic_string<char, std::__ndk1::char_traits<char>, std::__ndk1::allocator<char> > >, std::__ndk1::monostate>::run(std::__ndk1::function<geode::Task<geode::Result<std::__ndk1::vector<DeathInfo_s, std::__ndk1::allocator<DeathInfo_s> >, std::__ndk1::basic_string<char, std::__ndk1::char_traits<char>, std::__ndk1::allocator<char> > >, std::__ndk1::monostate>::Result(std::__ndk1::function<void (std::__ndk1::monostate)>, std::__ndk1::function<bool ()>)>&&, std::__ndk1::basic_string_view<char, std::__ndk1::char_traits<char> >)::{lambda()#1}::operator()() const::{lambda(std::__ndk1::monostate)#1}, std::__ndk1::allocator<geode::Task<geode::Result<std::__ndk1::vector<DeathInfo_s, std::__ndk1::allocator<DeathInfo_s> >, std::__ndk1::basic_string<char, std::__ndk1::char_traits<char>, std::__ndk1::allocator<char> > >, std::__ndk1::monostate>::run(std::__ndk1::function<geode::Task<geode::Result<std::__ndk1::vector<DeathInfo_s, std::__ndk1::allocator<DeathInfo_s> >, std::__ndk1::basic_string<char, std::__ndk1::char_traits<char>, std::__ndk1::allocator<char> > >, std::__ndk1::monostate>::Result(std::__ndk1::function<void (std::__ndk1::monostate)>, std::__ndk1::function<bool ()>)>&&, std::__ndk1::basic_string_view<char, std::__ndk1::char_traits<char> >)::{lambda()#1}::operator()() const::{lambda(std::__ndk1::monostate)#1}>, void (std::__ndk1::monostate)>::target(std::type_info const&) const
FUNC 5aac0 c 0 std::__ndk1::__function::__func<geode::Task<geode::Result<std::__ndk1::vector<DeathInfo_s, std::__ndk1::allocator<DeathInfo_s> >, std::__ndk1::basic_string<char, std::__ndk1::char_traits<char>, std::__ndk1::allocator<char> > >, std::__ndk1::monostate>::run(std::__ndk1::function<geode::Task<geode::Result<std::__ndk1::vector<DeathInfo_s, std::__ndk1::allocator<DeathInfo_s> >, std::__ndk1::basic_string<char, std::__ndk1::char_traits<char>, std::__ndk1::allocator<char> > >, std::__ndk1::monostate>::Result(std::__ndk1::function<void (std::__ndk1::monostate)>, std::__ndk1::function<bool ()>)>&&, std::__ndk1::basic_string_view<char, std::__ndk1::char_traits<char> >)::{lambda()#1}::operator()() const::{lambda(std::__ndk1::monostate)#1}, std::__ndk1::allocator<geode::Task<geode::Result<std::__ndk1::vector<DeathInfo_s, std::__ndk1::allocator<DeathInfo_s> >, std::__ndk1::basic_string<char, std::__ndk1::char_traits<char>, std::__ndk1::allocator<char> > >, std::__ndk1::monostate>::run(std::__ndk1::function<geode::Task<geode::Result<std::__ndk1::vector<DeathInfo_s, std::__ndk1::allocator<DeathInfo_s> >, std::__ndk1::basic_string<char, std::__ndk1::char_traits<char>, std::__ndk1::allocator<char> > >, std::__ndk1::monostate>::Result(std::__ndk1::function<void (std::__ndk1::monostate)>, std::__ndk1::function<bool ()>)>&&, std::__ndk1::basic_string_view<char, std::__ndk1::char_traits<char> >)::{lambda()#1}::operator()() const::{lambda(std::__ndk1::monostate)#1}>, void (std::__ndk1::monostate)>::target_type() const
FUNC 5aacc 3a 0 geode::Task<geode::Result<std::__ndk1::vector<DeathInfo_s, std::__ndk1::allocator<DeathInfo_s> >, std::__ndk1::basic_string<char, std::__ndk1::char_traits<char>, std::__ndk1::allocator<char> > >, std::__ndk1::monostate>::progress(std::__ndk1::shared_ptr<geode::Task<geode::Result<std::__ndk1::vector<DeathInfo_s, std::__ndk1::allocator<DeathInfo_s> >, std::__ndk1::basic_string<char, std::__ndk1::char_traits<char>, std::__ndk1::allocator<char> > >, std::__ndk1::monostate>::Handle>, std::__ndk1::monostate&&)::{lambda()#1}::~{lambda()#1}()
FUNC 5ab08 48 0 std::__ndk1::__function::__func<geode::Task<geode::Result<std::__ndk1::vector<DeathInfo_s, std::__ndk1::allocator<DeathInfo_s> >, std::__ndk1::basic_string<char, std::__ndk1::char_traits<char>, std::__ndk1::allocator<char> > >, std::__ndk1::monostate>::progress(std::__ndk1::shared_ptr<geode::Task<geode::Result<std::__ndk1::vector<DeathInfo_s, std::__ndk1::allocator<DeathInfo_s> >, std::__ndk1::basic_string<char, std::__ndk1::char_traits<char>, std::__ndk1::allocator<char> > >, std::__ndk1::monostate>::Handle>, std::__ndk1::monostate&&)::{lambda()#1}, std::__ndk1::allocator<geode::Task<geode::Result<std::__ndk1::vector<DeathInfo_s, std::__ndk1::allocator<DeathInfo_s> >, std::__ndk1::basic_string<char, std::__ndk1::char_traits<char>, std::__ndk1::allocator<char> > >, std::__ndk1::monostate>::progress(std::__ndk1::shared_ptr<geode::Task<geode::Result<std::__ndk1::vector<DeathInfo_s, std::__ndk1::allocator<DeathInfo_s> >, std::__ndk1::basic_string<char, std::__ndk1::char_traits<char>, std::__ndk1::allocator<char> > >, std::__ndk1::monostate>::Handle>, std::__ndk1::monostate&&)::{lambda()#1}>, void ()>::~__func()
FUNC 5ab50 54 0 std::__ndk1::__function::__func<geode::Task<geode::Result<std::__ndk1::vector<DeathInfo_s, std::__ndk1::allocator<DeathInfo_s> >, std::__ndk1::basic_string<char, std::__ndk1::char_traits<char>, std::__ndk1::allocator<char> > >, std::__ndk1::monostate>::progress(std::__ndk1::shared_ptr<geode::Task<geode::Result<std::__ndk1::vector<DeathInfo_s, std::__ndk1::allocator<DeathInfo_s> >, std::__ndk1::basic_string<char, std::__ndk1::char_traits<char>, std::__ndk1::allocator<char> > >, std::__ndk1::monostate>::Handle>, std::__ndk1::monostate&&)::{lambda()#1}, std::__ndk1::allocator<geode::Task<geode::Result<std::__ndk1::vector<DeathInfo_s, std::__ndk1::allocator<DeathInfo_s> >, std::__ndk1::basic_string<char, std::__ndk1::char_traits<char>, std::__ndk1::allocator<char> > >, std::__ndk1::monostate>::progress(std::__ndk1::shared_ptr<geode::Task<geode::Result<std::__ndk1::vector<DeathInfo_s, std::__ndk1::allocator<DeathInfo_s> >, std::__ndk1::basic_string<char, std::__ndk1::char_traits<char>, std::__ndk1::allocator<char> > >, std::__ndk1::monostate>::Handle>, std::__ndk1::monostate&&)::{lambda()#1}>, void ()>::~__func()
FUNC 5aba4 38 0 std::__ndk1::__function::__func<geode::Task<geode::Result<std::__ndk1::vector<DeathInfo_s, std::__ndk1::allocator<DeathInfo_s> >, std::__ndk1::basic_string<char, std::__ndk1::char_traits<char>, std::__ndk1::allocator<char> > >, std::__ndk1::monostate>::progress(std::__ndk1::shared_ptr<geode::Task<geode::Result<std::__ndk1::vector<DeathInfo_s, std::__ndk1::allocator<DeathInfo_s> >, std::__ndk1::basic_string<char, std::__ndk1::char_traits<char>, std::__ndk1::allocator<char> > >, std::__ndk1::monostate>::Handle>, std::__ndk1::monostate&&)::{lambda()#1}, std::__ndk1::allocator<geode::Task<geode::Result<std::__ndk1::vector<DeathInfo_s, std::__ndk1::allocator<DeathInfo_s> >, std::__ndk1::basic_string<char, std::__ndk1::char_traits<char>, std::__ndk1::allocator<char> > >, std::__ndk1::monostate>::progress(std::__ndk1::shared_ptr<geode::Task<geode::Result<std::__ndk1::vector<DeathInfo_s, std::__ndk1::allocator<DeathInfo_s> >, std::__ndk1::basic_string<char, std::__ndk1::char_traits<char>, std::__ndk1::allocator<char> > >, std::__ndk1::monostate>::Handle>, std::__ndk1::monostate&&)::{lambda()#1}>, void ()>::__clone() const
FUNC 5abdc 30 0 std::__ndk1::__function::__func<geode::Task<geode::Result<std::__ndk1::vector<DeathInfo_s, std::__ndk1::allocator<DeathInfo_s> >, std::__ndk1::basic_string<char, std::__ndk1::char_traits<char>, std::__ndk1::allocator<char> > >, std::__ndk1::monostate>::progress(std::__ndk1::shared_ptr<geode::Task<geode::Result<std::__ndk1::vector<DeathInfo_s, std::__ndk1::allocator<DeathInfo_s> >, std::__ndk1::basic_string<char, std::__ndk1::char_traits<char>, std::__ndk1::allocator<char> > >, std::__ndk1::monostate>::Handle>, std::__ndk1::monostate&&)::{lambda()#1}, std::__ndk1::allocator<geode::Task<geode::Result<std::__ndk1::vector<DeathInfo_s, std::__ndk1::allocator<DeathInfo_s> >, std::__ndk1::basic_string<char, std::__ndk1::char_traits<char>, std::__ndk1::allocator<char> > >, std::__ndk1::monostate>::progress(std::__ndk1::shared_ptr<geode::Task<geode::Result<std::__ndk1::vector<DeathInfo_s, std::__ndk1::allocator<DeathInfo_s> >, std::__ndk1::basic_string<char, std::__ndk1::char_traits<char>, std::__ndk1::allocator<char> > >, std::__ndk1::monostate>::Handle>, std::__ndk1::monostate&&)::{lambda()#1}>, void ()>::__clone(std::__ndk1::__function::__base<void ()>*) const
FUNC 5ac0c 3a 0 std::__ndk1::__function::__func<geode::Task<geode::Result<std::__ndk1::vector<DeathInfo_s, std::__ndk1::allocator<DeathInfo_s> >, std::__ndk1::basic_string<char, std::__ndk1::char_traits<char>, std::__ndk1::allocator<char> > >, std::__ndk1::monostate>::progress(std::__ndk1::shared_ptr<geode::Task<geode::Result<std::__ndk1::vector<DeathInfo_s, std::__ndk1::allocator<DeathInfo_s> >, std::__ndk1::basic_string<char, std::__ndk1::char_traits<char>, std::__ndk1::allocator<char> > >, std::__ndk1::monostate>::Handle>, std::__ndk1::monostate&&)::{lambda()#1}, std::__ndk1::allocator<geode::Task<geode::Result<std::__ndk1::vector<DeathInfo_s, std::__ndk1::allocator<DeathInfo_s> >, std::__ndk1::basic_string<char, std::__ndk1::char_traits<char>, std::__ndk1::allocator<char> > >, std::__ndk1::monostate>::progress(std::__ndk1::shared_ptr<geode::Task<geode::Result<std::__ndk1::vector<DeathInfo_s, std::__ndk1::allocator<DeathInfo_s> >, std::__ndk1::basic_string<char, std::__ndk1::char_traits<char>, std::__ndk1::allocator<char> > >, std::__ndk1::monostate>::Handle>, std::__ndk1::monostate&&)::{lambda()#1}>, void ()>::destroy()
FUNC 5ac46 44 0 std::__ndk1::__function::__func<geode::Task<geode::Result<std::__ndk1::vector<DeathInfo_s, std::__ndk1::allocator<DeathInfo_s> >, std::__ndk1::basic_string<char, std::__ndk1::char_traits<char>, std::__ndk1::allocator<char> > >, std::__ndk1::monostate>::progress(std::__ndk1::shared_ptr<geode::Task<geode::Result<std::__ndk1::vector<DeathInfo_s, std::__ndk1::allocator<DeathInfo_s> >, std::__ndk1::basic_string<char, std::__ndk1::char_traits<char>, std::__ndk1::allocator<char> > >, std::__ndk1::monostate>::Handle>, std::__ndk1::monostate&&)::{lambda()#1}, std::__ndk1::allocator<geode::Task<geode::Result<std::__ndk1::vector<DeathInfo_s, std::__ndk1::allocator<DeathInfo_s> >, std::__ndk1::basic_string<char, std::__ndk1::char_traits<char>, std::__ndk1::allocator<char> > >, std::__ndk1::monostate>::progress(std::__ndk1::shared_ptr<geode::Task<geode::Result<std::__ndk1::vector<DeathInfo_s, std::__ndk1::allocator<DeathInfo_s> >, std::__ndk1::basic_string<char, std::__ndk1::char_traits<char>, std::__ndk1::allocator<char> > >, std::__ndk1::monostate>::Handle>, std::__ndk1::monostate&&)::{lambda()#1}>, void ()>::destroy_deallocate()
FUNC 5ac8c 154 0 std::__ndk1::__function::__func<geode::Task<geode::Result<std::__ndk1::vector<DeathInfo_s, std::__ndk1::allocator<DeathInfo_s> >, std::__ndk1::basic_string<char, std::__ndk1::char_traits<char>, std::__ndk1::allocator<char> > >, std::__ndk1::monostate>::progress(std::__ndk1::shared_ptr<geode::Task<geode::Result<std::__ndk1::vector<DeathInfo_s, std::__ndk1::allocator<DeathInfo_s> >, std::__ndk1::basic_string<char, std::__ndk1::char_traits<char>, std::__ndk1::allocator<char> > >, std::__ndk1::monostate>::Handle>, std::__ndk1::monostate&&)::{lambda()#1}, std::__ndk1::allocator<geode::Task<geode::Result<std::__ndk1::vector<DeathInfo_s, std::__ndk1::allocator<DeathInfo_s> >, std::__ndk1::basic_string<char, std::__ndk1::char_traits<char>, std::__ndk1::allocator<char> > >, std::__ndk1::monostate>::progress(std::__ndk1::shared_ptr<geode::Task<geode::Result<std::__ndk1::vector<DeathInfo_s, std::__ndk1::allocator<DeathInfo_s> >, std::__ndk1::basic_string<char, std::__ndk1::char_traits<char>, std::__ndk1::allocator<char> > >, std::__ndk1::monostate>::Handle>, std::__ndk1::monostate&&)::{lambda()#1}>, void ()>::operator()()
FUNC 5ade0 18 0 std::__ndk1::__function::__func<geode::Task<geode::Result<std::__ndk1::vector<DeathInfo_s, std::__ndk1::allocator<DeathInfo_s> >, std::__ndk1::basic_string<char, std::__ndk1::char_traits<char>, std::__ndk1::allocator<char> > >, std::__ndk1::monostate>::progress(std::__ndk1::shared_ptr<geode::Task<geode::Result<std::__ndk1::vector<DeathInfo_s, std::__ndk1::allocator<DeathInfo_s> >, std::__ndk1::basic_string<char, std::__ndk1::char_traits<char>, std::__ndk1::allocator<char> > >, std::__ndk1::monostate>::Handle>, std::__ndk1::monostate&&)::{lambda()#1}, std::__ndk1::allocator<geode::Task<geode::Result<std::__ndk1::vector<DeathInfo_s, std::__ndk1::allocator<DeathInfo_s> >, std::__ndk1::basic_string<char, std::__ndk1::char_traits<char>, std::__ndk1::allocator<char> > >, std::__ndk1::monostate>::progress(std::__ndk1::shared_ptr<geode::Task<geode::Result<std::__ndk1::vector<DeathInfo_s, std::__ndk1::allocator<DeathInfo_s> >, std::__ndk1::basic_string<char, std::__ndk1::char_traits<char>, std::__ndk1::allocator<char> > >, std::__ndk1::monostate>::Handle>, std::__ndk1::monostate&&)::{lambda()#1}>, void ()>::target(std::type_info const&) const
FUNC 5adf8 c 0 std::__ndk1::__function::__func<geode::Task<geode::Result<std::__ndk1::vector<DeathInfo_s, std::__ndk1::allocator<DeathInfo_s> >, std::__ndk1::basic_string<char, std::__ndk1::char_traits<char>, std::__ndk1::allocator<char> > >, std::__ndk1::monostate>::progress(std::__ndk1::shared_ptr<geode::Task<geode::Result<std::__ndk1::vector<DeathInfo_s, std::__ndk1::allocator<DeathInfo_s> >, std::__ndk1::basic_string<char, std::__ndk1::char_traits<char>, std::__ndk1::allocator<char> > >, std::__ndk1::monostate>::Handle>, std::__ndk1::monostate&&)::{lambda()#1}, std::__ndk1::allocator<geode::Task<geode::Result<std::__ndk1::vector<DeathInfo_s, std::__ndk1::allocator<DeathInfo_s> >, std::__ndk1::basic_string<char, std::__ndk1::char_traits<char>, std::__ndk1::allocator<char> > >, std::__ndk1::monostate>::progress(std::__ndk1::shared_ptr<geode::Task<geode::Result<std::__ndk1::vector<DeathInfo_s, std::__ndk1::allocator<DeathInfo_s> >, std::__ndk1::basic_string<char, std::__ndk1::char_traits<char>, std::__ndk1::allocator<char> > >, std::__ndk1::monostate>::Handle>, std::__ndk1::monostate&&)::{lambda()#1}>, void ()>::target_type() const
FUNC 5ae04 2c 0 std::__ndk1::__function::__func<geode::Task<geode::Result<std::__ndk1::vector<DeathInfo_s, std::__ndk1::allocator<DeathInfo_s> >, std::__ndk1::basic_string<char, std::__ndk1::char_traits<char>, std::__ndk1::allocator<char> > >, std::__ndk1::monostate>::run(std::__ndk1::function<geode::Task<geode::Result<std::__ndk1::vector<DeathInfo_s, std::__ndk1::allocator<DeathInfo_s> >, std::__ndk1::basic_string<char, std::__ndk1::char_traits<char>, std::__ndk1::allocator<char> > >, std::__ndk1::monostate>::Result(std::__ndk1::function<void (std::__ndk1::monostate)>, std::__ndk1::function<bool ()>)>&&, std::__ndk1::basic_string_view<char, std::__ndk1::char_traits<char> >)::{lambda()#1}::operator()() const::{lambda()#1}, std::__ndk1::allocator<geode::Task<geode::Result<std::__ndk1::vector<DeathInfo_s, std::__ndk1::allocator<DeathInfo_s> >, std::__ndk1::basic_string<char, std::__ndk1::char_traits<char>, std::__ndk1::allocator<char> > >, std::__ndk1::monostate>::run(std::__ndk1::function<geode::Task<geode::Result<std::__ndk1::vector<DeathInfo_s, std::__ndk1::allocator<DeathInfo_s> >, std::__ndk1::basic_string<char, std::__ndk1::char_traits<char>, std::__ndk1::allocator<char> > >, std::__ndk1::monostate>::Result(std::__ndk1::function<void (std::__ndk1::monostate)>, std::__ndk1::function<bool ()>)>&&, std::__ndk1::basic_string_view<char, std::__ndk1::char_traits<char> >)::{lambda()#1}::operator()() const::{lambda()#1}>, bool ()>::~__func()
FUNC 5ae30 30 0 std::__ndk1::__function::__func<geode::Task<geode::Result<std::__ndk1::vector<DeathInfo_s, std::__ndk1::allocator<DeathInfo_s> >, std::__ndk1::basic_string<char, std::__ndk1::char_traits<char>, std::__ndk1::allocator<char> > >, std::__ndk1::monostate>::run(std::__ndk1::function<geode::Task<geode::Result<std::__ndk1::vector<DeathInfo_s, std::__ndk1::allocator<DeathInfo_s> >, std::__ndk1::basic_string<char, std::__ndk1::char_traits<char>, std::__ndk1::allocator<char> > >, std::__ndk1::monostate>::Result(std::__ndk1::function<void (std::__ndk1::monostate)>, std::__ndk1::function<bool ()>)>&&, std::__ndk1::basic_string_view<char, std::__ndk1::char_traits<char> >)::{lambda()#1}::operator()() const::{lambda()#1}, std::__ndk1::allocator<geode::Task<geode::Result<std::__ndk1::vector<DeathInfo_s, std::__ndk1::allocator<DeathInfo_s> >, std::__ndk1::basic_string<char, std::__ndk1::char_traits<char>, std::__ndk1::allocator<char> > >, std::__ndk1::monostate>::run(std::__ndk1::function<geode::Task<geode::Result<std::__ndk1::vector<DeathInfo_s, std::__ndk1::allocator<DeathInfo_s> >, std::__ndk1::basic_string<char, std::__ndk1::char_traits<char>, std::__ndk1::allocator<char> > >, std::__ndk1::monostate>::Result(std::__ndk1::function<void (std::__ndk1::monostate)>, std::__ndk1::function<bool ()>)>&&, std::__ndk1::basic_string_view<char, std::__ndk1::char_traits<char> >)::{lambda()#1}::operator()() const::{lambda()#1}>, bool ()>::~__func()
FUNC 5ae60 38 0 std::__ndk1::__function::__func<geode::Task<geode::Result<std::__ndk1::vector<DeathInfo_s, std::__ndk1::allocator<DeathInfo_s> >, std::__ndk1::basic_string<char, std::__ndk1::char_traits<char>, std::__ndk1::allocator<char> > >, std::__ndk1::monostate>::run(std::__ndk1::function<geode::Task<geode::Result<std::__ndk1::vector<DeathInfo_s, std::__ndk1::allocator<DeathInfo_s> >, std::__ndk1::basic_string<char, std::__ndk1::char_traits<char>, std::__ndk1::allocator<char> > >, std::__ndk1::monostate>::Result(std::__ndk1::function<void (std::__ndk1::monostate)>, std::__ndk1::function<bool ()>)>&&, std::__ndk1::basic_string_view<char, std::__ndk1::char_traits<char> >)::{lambda()#1}::operator()() const::{lambda()#1}, std::__ndk1::allocator<geode::Task<geode::Result<std::__ndk1::vector<DeathInfo_s, std::__ndk1::allocator<DeathInfo_s> >, std::__ndk1::basic_string<char, std::__ndk1::char_traits<char>, std::__ndk1::allocator<char> > >, std::__ndk1::monostate>::run(std::__ndk1::function<geode::Task<geode::Result<std::__ndk1::vector<DeathInfo_s, std::__ndk1::allocator<DeathInfo_s> >, std::__ndk1::basic_string<char, std::__ndk1::char_traits<char>, std::__ndk1::allocator<char> > >, std::__ndk1::monostate>::Result(std::__ndk1::function<void (std::__ndk1::monostate)>, std::__ndk1::function<bool ()>)>&&, std::__ndk1::basic_string_view<char, std::__ndk1::char_traits<char> >)::{lambda()#1}::operator()() const::{lambda()#1}>, bool ()>::__clone() const
FUNC 5ae98 30 0 std::__ndk1::__function::__func<geode::Task<geode::Result<std::__ndk1::vector<DeathInfo_s, std::__ndk1::allocator<DeathInfo_s> >, std::__ndk1::basic_string<char, std::__ndk1::char_traits<char>, std::__ndk1::allocator<char> > >, std::__ndk1::monostate>::run(std::__ndk1::function<geode::Task<geode::Result<std::__ndk1::vector<DeathInfo_s, std::__ndk1::allocator<DeathInfo_s> >, std::__ndk1::basic_string<char, std::__ndk1::char_traits<char>, std::__ndk1::allocator<char> > >, std::__ndk1::monostate>::Result(std::__ndk1::function<void (std::__ndk1::monostate)>, std::__ndk1::function<bool ()>)>&&, std::__ndk1::basic_string_view<char, std::__ndk1::char_traits<char> >)::{lambda()#1}::operator()() const::{lambda()#1}, std::__ndk1::allocator<geode::Task<geode::Result<std::__ndk1::vector<DeathInfo_s, std::__ndk1::allocator<DeathInfo_s> >, std::__ndk1::basic_string<char, std::__ndk1::char_traits<char>, std::__ndk1::allocator<char> > >, std::__ndk1::monostate>::run(std::__ndk1::function<geode::Task<geode::Result<std::__ndk1::vector<DeathInfo_s, std::__ndk1::allocator<DeathInfo_s> >, std::__ndk1::basic_string<char, std::__ndk1::char_traits<char>, std::__ndk1::allocator<char> > >, std::__ndk1::monostate>::Result(std::__ndk1::function<void (std::__ndk1::monostate)>, std::__ndk1::function<bool ()>)>&&, std::__ndk1::basic_string_view<char, std::__ndk1::char_traits<char> >)::{lambda()#1}::operator()() const::{lambda()#1}>, bool ()>::__clone(std::__ndk1::__function::__base<bool ()>*) const
FUNC 5aec8 c 0 std::__ndk1::__function::__func<geode::Task<geode::Result<std::__ndk1::vector<DeathInfo_s, std::__ndk1::allocator<DeathInfo_s> >, std::__ndk1::basic_string<char, std::__ndk1::char_traits<char>, std::__ndk1::allocator<char> > >, std::__ndk1::monostate>::run(std::__ndk1::function<geode::Task<geode::Result<std::__ndk1::vector<DeathInfo_s, std::__ndk1::allocator<DeathInfo_s> >, std::__ndk1::basic_string<char, std::__ndk1::char_traits<char>, std::__ndk1::allocator<char> > >, std::__ndk1::monostate>::Result(std::__ndk1::function<void (std::__ndk1::monostate)>, std::__ndk1::function<bool ()>)>&&, std::__ndk1::basic_string_view<char, std::__ndk1::char_traits<char> >)::{lambda()#1}::operator()() const::{lambda()#1}, std::__ndk1::allocator<geode::Task<geode::Result<std::__ndk1::vector<DeathInfo_s, std::__ndk1::allocator<DeathInfo_s> >, std::__ndk1::basic_string<char, std::__ndk1::char_traits<char>, std::__ndk1::allocator<char> > >, std::__ndk1::monostate>::run(std::__ndk1::function<geode::Task<geode::Result<std::__ndk1::vector<DeathInfo_s, std::__ndk1::allocator<DeathInfo_s> >, std::__ndk1::basic_string<char, std::__ndk1::char_traits<char>, std::__ndk1::allocator<char> > >, std::__ndk1::monostate>::Result(std::__ndk1::function<void (std::__ndk1::monostate)>, std::__ndk1::function<bool ()>)>&&, std::__ndk1::basic_string_view<char, std::__ndk1::char_traits<char> >)::{lambda()#1}::operator()() const::{lambda()#1}>, bool ()>::destroy()
FUNC 5aed4 20 0 std::__ndk1::__function::__func<geode::Task<geode::Result<std::__ndk1::vector<DeathInfo_s, std::__ndk1::allocator<DeathInfo_s> >, std::__ndk1::basic_string<char, std::__ndk1::char_traits<char>, std::__ndk1::allocator<char> > >, std::__ndk1::monostate>::run(std::__ndk1::function<geode::Task<geode::Result<std::__ndk1::vector<DeathInfo_s, std::__ndk1::allocator<DeathInfo_s> >, std::__ndk1::basic_string<char, std::__ndk1::char_traits<char>, std::__ndk1::allocator<char> > >, std::__ndk1::monostate>::Result(std::__ndk1::function<void (std::__ndk1::monostate)>, std::__ndk1::function<bool ()>)>&&, std::__ndk1::basic_string_view<char, std::__ndk1::char_traits<char> >)::{lambda()#1}::operator()() const::{lambda()#1}, std::__ndk1::allocator<geode::Task<geode::Result<std::__ndk1::vector<DeathInfo_s, std::__ndk1::allocator<DeathInfo_s> >, std::__ndk1::basic_string<char, std::__ndk1::char_traits<char>, std::__ndk1::allocator<char> > >, std::__ndk1::monostate>::run(std::__ndk1::function<geode::Task<geode::Result<std::__ndk1::vector<DeathInfo_s, std::__ndk1::allocator<DeathInfo_s> >, std::__ndk1::basic_string<char, std::__ndk1::char_traits<char>, std::__ndk1::allocator<char> > >, std::__ndk1::monostate>::Result(std::__ndk1::function<void (std::__ndk1::monostate)>, std::__ndk1::function<bool ()>)>&&, std::__ndk1::basic_string_view<char, std::__ndk1::char_traits<char> >)::{lambda()#1}::operator()() const::{lambda()#1}>, bool ()>::destroy_deallocate()
FUNC 5aef4 a0 0 std::__ndk1::__function::__func<geode::Task<geode::Result<std::__ndk1::vector<DeathInfo_s, std::__ndk1::allocator<DeathInfo_s> >, std::__ndk1::basic_string<char, std::__ndk1::char_traits<char>, std::__ndk1::allocator<char> > >, std::__ndk1::monostate>::run(std::__ndk1::function<geode::Task<geode::Result<std::__ndk1::vector<DeathInfo_s, std::__ndk1::allocator<DeathInfo_s> >, std::__ndk1::basic_string<char, std::__ndk1::char_traits<char>, std::__ndk1::allocator<char> > >, std::__ndk1::monostate>::Result(std::__ndk1::function<void (std::__ndk1::monostate)>, std::__ndk1::function<bool ()>)>&&, std::__ndk1::basic_string_view<char, std::__ndk1::char_traits<char> >)::{lambda()#1}::operator()() const::{lambda()#1}, std::__ndk1::allocator<geode::Task<geode::Result<std::__ndk1::vector<DeathInfo_s, std::__ndk1::allocator<DeathInfo_s> >, std::__ndk1::basic_string<char, std::__ndk1::char_traits<char>, std::__ndk1::allocator<char> > >, std::__ndk1::monostate>::run(std::__ndk1::function<geode::Task<geode::Result<std::__ndk1::vector<DeathInfo_s, std::__ndk1::allocator<DeathInfo_s> >, std::__ndk1::basic_string<char, std::__ndk1::char_traits<char>, std::__ndk1::allocator<char> > >, std::__ndk1::monostate>::Result(std::__ndk1::function<void (std::__ndk1::monostate)>, std::__ndk1::function<bool ()>)>&&, std::__ndk1::basic_string_view<char, std::__ndk1::char_traits<char> >)::{lambda()#1}::operator()() const::{lambda()#1}>, bool ()>::operator()()
FUNC 5af94 18 0 std::__ndk1::__function::__func<geode::Task<geode::Result<std::__ndk1::vector<DeathInfo_s, std::__ndk1::allocator<DeathInfo_s> >, std::__ndk1::basic_string<char, std::__ndk1::char_traits<char>, std::__ndk1::allocator<char> > >, std::__ndk1::monostate>::run(std::__ndk1::function<geode::Task<geode::Result<std::__ndk1::vector<DeathInfo_s, std::__ndk1::allocator<DeathInfo_s> >, std::__ndk1::basic_string<char, std::__ndk1::char_traits<char>, std::__ndk1::allocator<char> > >, std::__ndk1::monostate>::Result(std::__ndk1::function<void (std::__ndk1::monostate)>, std::__ndk1::function<bool ()>)>&&, std::__ndk1::basic_string_view<char, std::__ndk1::char_traits<char> >)::{lambda()#1}::operator()() const::{lambda()#1}, std::__ndk1::allocator<geode::Task<geode::Result<std::__ndk1::vector<DeathInfo_s, std::__ndk1::allocator<DeathInfo_s> >, std::__ndk1::basic_string<char, std::__ndk1::char_traits<char>, std::__ndk1::allocator<char> > >, std::__ndk1::monostate>::run(std::__ndk1::function<geode::Task<geode::Result<std::__ndk1::vector<DeathInfo_s, std::__ndk1::allocator<DeathInfo_s> >, std::__ndk1::basic_string<char, std::__ndk1::char_traits<char>, std::__ndk1::allocator<char> > >, std::__ndk1::monostate>::Result(std::__ndk1::function<void (std::__ndk1::monostate)>, std::__ndk1::function<bool ()>)>&&, std::__ndk1::basic_string_view<char, std::__ndk1::char_traits<char> >)::{lambda()#1}::operator()() const::{lambda()#1}>, bool ()>::target(std::type_info const&) const
FUNC 5afac c 0 std::__ndk1::__function::__func<geode::Task<geode::Result<std::__ndk1::vector<DeathInfo_s, std::__ndk1::allocator<DeathInfo_s> >, std::__ndk1::basic_string<char, std::__ndk1::char_traits<char>, std::__ndk1::allocator<char> > >, std::__ndk1::monostate>::run(std::__ndk1::function<geode::Task<geode::Result<std::__ndk1::vector<DeathInfo_s, std::__ndk1::allocator<DeathInfo_s> >, std::__ndk1::basic_string<char, std::__ndk1::char_traits<char>, std::__ndk1::allocator<char> > >, std::__ndk1::monostate>::Result(std::__ndk1::function<void (std::__ndk1::monostate)>, std::__ndk1::function<bool ()>)>&&, std::__ndk1::basic_string_view<char, std::__ndk1::char_traits<char> >)::{lambda()#1}::operator()() const::{lambda()#1}, std::__ndk1::allocator<geode::Task<geode::Result<std::__ndk1::vector<DeathInfo_s, std::__ndk1::allocator<DeathInfo_s> >, std::__ndk1::basic_string<char, std::__ndk1::char_traits<char>, std::__ndk1::allocator<char> > >, std::__ndk1::monostate>::run(std::__ndk1::function<geode::Task<geode::Result<std::__ndk1::vector<DeathInfo_s, std::__ndk1::allocator<DeathInfo_s> >, std::__ndk1::basic_string<char, std::__ndk1::char_traits<char>, std::__ndk1::allocator<char> > >, std::__ndk1::monostate>::Result(std::__ndk1::function<void (std::__ndk1::monostate)>, std::__ndk1::function<bool ()>)>&&, std::__ndk1::basic_string_view<char, std::__ndk1::char_traits<char> >)::{lambda()#1}::operator()() const::{lambda()#1}>, bool ()>::target_type() const
FUNC 5afb8 3a 0 geode::Task<geode::Result<std::__ndk1::vector<DeathInfo_s, std::__ndk1::allocator<DeathInfo_s> >, std::__ndk1::basic_string<char, std::__ndk1::char_traits<char>, std::__ndk1::allocator<char> > >, std::__ndk1::monostate>::finish(std::__ndk1::shared_ptr<geode::Task<geode::Result<std::__ndk1::vector<DeathInfo_s, std::__ndk1::allocator<DeathInfo_s> >, std::__ndk1::basic_string<char, std::__ndk1::char_traits<char>, std::__ndk1::allocator<char> > >, std::__ndk1::monostate>::Handle>, geode::Result<std::__ndk1::vector<DeathInfo_s, std::__ndk1::allocator<DeathInfo_s> >, std::__ndk1::basic_string<char, std::__ndk1::char_traits<char>, std::__ndk1::allocator<char> > >&&)::{lambda()#1}::~{lambda()#1}()
FUNC 5aff2 1e 0 _ZNSt6__ndk116__variant_detail12__visitation6__base12__dispatcherIJLj0ELj0EEE10__dispatchB8ne180000IOZNS0_6__ctorINS0_8__traitsIJNS_6vectorI11DeathInfo_sNS_9allocatorIS9_EEEENS_12basic_stringIcNS_11char_traitsIcEENSA_IcEEEEEEEE19__generic_constructB8ne180000INS0_18__move_constructorISI_LNS0_6_TraitE1EEEEEvRSJ_OT_EUlRSP_OT0_E_JRNS0_6__baseILSM_1EJSC_SH_EEEOSX_EEEDcSP_DpT0_
FUNC 5b010 16 0 _ZNSt6__ndk116__variant_detail12__visitation6__base12__dispatcherIJLj1ELj1EEE10__dispatchB8ne180000IOZNS0_6__ctorINS0_8__traitsIJNS_6vectorI11DeathInfo_sNS_9allocatorIS9_EEEENS_12basic_stringIcNS_11char_traitsIcEENSA_IcEEEEEEEE19__generic_constructB8ne180000INS0_18__move_constructorISI_LNS0_6_TraitE1EEEEEvRSJ_OT_EUlRSP_OT0_E_JRNS0_6__baseILSM_1EJSC_SH_EEEOSX_EEEDcSP_DpT0_
FUNC 5b028 48 0 std::__ndk1::__function::__func<geode::Task<geode::Result<std::__ndk1::vector<DeathInfo_s, std::__ndk1::allocator<DeathInfo_s> >, std::__ndk1::basic_string<char, std::__ndk1::char_traits<char>, std::__ndk1::allocator<char> > >, std::__ndk1::monostate>::finish(std::__ndk1::shared_ptr<geode::Task<geode::Result<std::__ndk1::vector<DeathInfo_s, std::__ndk1::allocator<DeathInfo_s> >, std::__ndk1::basic_string<char, std::__ndk1::char_traits<char>, std::__ndk1::allocator<char> > >, std::__ndk1::monostate>::Handle>, geode::Result<std::__ndk1::vector<DeathInfo_s, std::__ndk1::allocator<DeathInfo_s> >, std::__ndk1::basic_string<char, std::__ndk1::char_traits<char>, std::__ndk1::allocator<char> > >&&)::{lambda()#1}, std::__ndk1::allocator<geode::Task<geode::Result<std::__ndk1::vector<DeathInfo_s, std::__ndk1::allocator<DeathInfo_s> >, std::__ndk1::basic_string<char, std::__ndk1::char_traits<char>, std::__ndk1::allocator<char> > >, std::__ndk1::monostate>::finish(std::__ndk1::shared_ptr<geode::Task<geode::Result<std::__ndk1::vector<DeathInfo_s, std::__ndk1::allocator<DeathInfo_s> >, std::__ndk1::basic_string<char, std::__ndk1::char_traits<char>, std::__ndk1::allocator<char> > >, std::__ndk1::monostate>::Handle>, geode::Result<std::__ndk1::vector<DeathInfo_s, std::__ndk1::allocator<DeathInfo_s> >, std::__ndk1::basic_string<char, std::__ndk1::char_traits<char>, std::__ndk1::allocator<char> > >&&)::{lambda()#1}>, void ()>::~__func()
FUNC 5b070 54 0 std::__ndk1::__function::__func<geode::Task<geode::Result<std::__ndk1::vector<DeathInfo_s, std::__ndk1::allocator<DeathInfo_s> >, std::__ndk1::basic_string<char, std::__ndk1::char_traits<char>, std::__ndk1::allocator<char> > >, std::__ndk1::monostate>::finish(std::__ndk1::shared_ptr<geode::Task<geode::Result<std::__ndk1::vector<DeathInfo_s, std::__ndk1::allocator<DeathInfo_s> >, std::__ndk1::basic_string<char, std::__ndk1::char_traits<char>, std::__ndk1::allocator<char> > >, std::__ndk1::monostate>::Handle>, geode::Result<std::__ndk1::vector<DeathInfo_s, std::__ndk1::allocator<DeathInfo_s> >, std::__ndk1::basic_string<char, std::__ndk1::char_traits<char>, std::__ndk1::allocator<char> > >&&)::{lambda()#1}, std::__ndk1::allocator<geode::Task<geode::Result<std::__ndk1::vector<DeathInfo_s, std::__ndk1::allocator<DeathInfo_s> >, std::__ndk1::basic_string<char, std::__ndk1::char_traits<char>, std::__ndk1::allocator<char> > >, std::__ndk1::monostate>::finish(std::__ndk1::shared_ptr<geode::Task<geode::Result<std::__ndk1::vector<DeathInfo_s, std::__ndk1::allocator<DeathInfo_s> >, std::__ndk1::basic_string<char, std::__ndk1::char_traits<char>, std::__ndk1::allocator<char> > >, std::__ndk1::monostate>::Handle>, geode::Result<std::__ndk1::vector<DeathInfo_s, std::__ndk1::allocator<DeathInfo_s> >, std::__ndk1::basic_string<char, std::__ndk1::char_traits<char>, std::__ndk1::allocator<char> > >&&)::{lambda()#1}>, void ()>::~__func()
FUNC 5b0c4 3c 0 std::__ndk1::__function::__func<geode::Task<geode::Result<std::__ndk1::vector<DeathInfo_s, std::__ndk1::allocator<DeathInfo_s> >, std::__ndk1::basic_string<char, std::__ndk1::char_traits<char>, std::__ndk1::allocator<char> > >, std::__ndk1::monostate>::finish(std::__ndk1::shared_ptr<geode::Task<geode::Result<std::__ndk1::vector<DeathInfo_s, std::__ndk1::allocator<DeathInfo_s> >, std::__ndk1::basic_string<char, std::__ndk1::char_traits<char>, std::__ndk1::allocator<char> > >, std::__ndk1::monostate>::Handle>, geode::Result<std::__ndk1::vector<DeathInfo_s, std::__ndk1::allocator<DeathInfo_s> >, std::__ndk1::basic_string<char, std::__ndk1::char_traits<char>, std::__ndk1::allocator<char> > >&&)::{lambda()#1}, std::__ndk1::allocator<geode::Task<geode::Result<std::__ndk1::vector<DeathInfo_s, std::__ndk1::allocator<DeathInfo_s> >, std::__ndk1::basic_string<char, std::__ndk1::char_traits<char>, std::__ndk1::allocator<char> > >, std::__ndk1::monostate>::finish(std::__ndk1::shared_ptr<geode::Task<geode::Result<std::__ndk1::vector<DeathInfo_s, std::__ndk1::allocator<DeathInfo_s> >, std::__ndk1::basic_string<char, std::__ndk1::char_traits<char>, std::__ndk1::allocator<char> > >, std::__ndk1::monostate>::Handle>, geode::Result<std::__ndk1::vector<DeathInfo_s, std::__ndk1::allocator<DeathInfo_s> >, std::__ndk1::basic_string<char, std::__ndk1::char_traits<char>, std::__ndk1::allocator<char> > >&&)::{lambda()#1}>, void ()>::__clone() const
FUNC 5b100 30 0 std::__ndk1::__function::__func<geode::Task<geode::Result<std::__ndk1::vector<DeathInfo_s, std::__ndk1::allocator<DeathInfo_s> >, std::__ndk1::basic_string<char, std::__ndk1::char_traits<char>, std::__ndk1::allocator<char> > >, std::__ndk1::monostate>::finish(std::__ndk1::shared_ptr<geode::Task<geode::Result<std::__ndk1::vector<DeathInfo_s, std::__ndk1::allocator<DeathInfo_s> >, std::__ndk1::basic_string<char, std::__ndk1::char_traits<char>, std::__ndk1::allocator<char> > >, std::__ndk1::monostate>::Handle>, geode::Result<std::__ndk1::vector<DeathInfo_s, std::__ndk1::allocator<DeathInfo_s> >, std::__ndk1::basic_string<char, std::__ndk1::char_traits<char>, std::__ndk1::allocator<char> > >&&)::{lambda()#1}, std::__ndk1::allocator<geode::Task<geode::Result<std::__ndk1::vector<DeathInfo_s, std::__ndk1::allocator<DeathInfo_s> >, std::__ndk1::basic_string<char, std::__ndk1::char_traits<char>, std::__ndk1::allocator<char> > >, std::__ndk1::monostate>::finish(std::__ndk1::shared_ptr<geode::Task<geode::Result<std::__ndk1::vector<DeathInfo_s, std::__ndk1::allocator<DeathInfo_s> >, std::__ndk1::basic_string<char, std::__ndk1::char_traits<char>, std::__ndk1::allocator<char> > >, std::__ndk1::monostate>::Handle>, geode::Result<std::__ndk1::vector<DeathInfo_s, std::__ndk1::allocator<DeathInfo_s> >, std::__ndk1::basic_string<char, std::__ndk1::char_traits<char>, std::__ndk1::allocator<char> > >&&)::{lambda()#1}>, void ()>::__clone(std::__ndk1::__function::__base<void ()>*) const
FUNC 5b130 3a 0 std::__ndk1::__function::__func<geode::Task<geode::Result<std::__ndk1::vector<DeathInfo_s, std::__ndk1::allocator<DeathInfo_s> >, std::__ndk1::basic_string<char, std::__ndk1::char_traits<char>, std::__ndk1::allocator<char> > >, std::__ndk1::monostate>::finish(std::__ndk1::shared_ptr<geode::Task<geode::Result<std::__ndk1::vector<DeathInfo_s, std::__ndk1::allocator<DeathInfo_s> >, std::__ndk1::basic_string<char, std::__ndk1::char_traits<char>, std::__ndk1::allocator<char> > >, std::__ndk1::monostate>::Handle>, geode::Result<std::__ndk1::vector<DeathInfo_s, std::__ndk1::allocator<DeathInfo_s> >, std::__ndk1::basic_string<char, std::__ndk1::char_traits<char>, std::__ndk1::allocator<char> > >&&)::{lambda()#1}, std::__ndk1::allocator<geode::Task<geode::Result<std::__ndk1::vector<DeathInfo_s, std::__ndk1::allocator<DeathInfo_s> >, std::__ndk1::basic_string<char, std::__ndk1::char_traits<char>, std::__ndk1::allocator<char> > >, std::__ndk1::monostate>::finish(std::__ndk1::shared_ptr<geode::Task<geode::Result<std::__ndk1::vector<DeathInfo_s, std::__ndk1::allocator<DeathInfo_s> >, std::__ndk1::basic_string<char, std::__ndk1::char_traits<char>, std::__ndk1::allocator<char> > >, std::__ndk1::monostate>::Handle>, geode::Result<std::__ndk1::vector<DeathInfo_s, std::__ndk1::allocator<DeathInfo_s> >, std::__ndk1::basic_string<char, std::__ndk1::char_traits<char>, std::__ndk1::allocator<char> > >&&)::{lambda()#1}>, void ()>::destroy()
FUNC 5b16a 44 0 std::__ndk1::__function::__func<geode::Task<geode::Result<std::__ndk1::vector<DeathInfo_s, std::__ndk1::allocator<DeathInfo_s> >, std::__ndk1::basic_string<char, std::__ndk1::char_traits<char>, std::__ndk1::allocator<char> > >, std::__ndk1::monostate>::finish(std::__ndk1::shared_ptr<geode::Task<geode::Result<std::__ndk1::vector<DeathInfo_s, std::__ndk1::allocator<DeathInfo_s> >, std::__ndk1::basic_string<char, std::__ndk1::char_traits<char>, std::__ndk1::allocator<char> > >, std::__ndk1::monostate>::Handle>, geode::Result<std::__ndk1::vector<DeathInfo_s, std::__ndk1::allocator<DeathInfo_s> >, std::__ndk1::basic_string<char, std::__ndk1::char_traits<char>, std::__ndk1::allocator<char> > >&&)::{lambda()#1}, std::__ndk1::allocator<geode::Task<geode::Result<std::__ndk1::vector<DeathInfo_s, std::__ndk1::allocator<DeathInfo_s> >, std::__ndk1::basic_string<char, std::__ndk1::char_traits<char>, std::__ndk1::allocator<char> > >, std::__ndk1::monostate>::finish(std::__ndk1::shared_ptr<geode::Task<geode::Result<std::__ndk1::vector<DeathInfo_s, std::__ndk1::allocator<DeathInfo_s> >, std::__ndk1::basic_string<char, std::__ndk1::char_traits<char>, std::__ndk1::allocator<char> > >, std::__ndk1::monostate>::Handle>, geode::Result<std::__ndk1::vector<DeathInfo_s, std::__ndk1::allocator<DeathInfo_s> >, std::__ndk1::basic_string<char, std::__ndk1::char_traits<char>, std::__ndk1::allocator<char> > >&&)::{lambda()#1}>, void ()>::destroy_deallocate()
FUNC 5b1b0 16c 0 std::__ndk1::__function::__func<geode::Task<geode::Result<std::__ndk1::vector<DeathInfo_s, std::__ndk1::allocator<DeathInfo_s> >, std::__ndk1::basic_string<char, std::__ndk1::char_traits<char>, std::__ndk1::allocator<char> > >, std::__ndk1::monostate>::finish(std::__ndk1::shared_ptr<geode::Task<geode::Result<std::__ndk1::vector<DeathInfo_s, std::__ndk1::allocator<DeathInfo_s> >, std::__ndk1::basic_string<char, std::__ndk1::char_traits<char>, std::__ndk1::allocator<char> > >, std::__ndk1::monostate>::Handle>, geode::Result<std::__ndk1::vector<DeathInfo_s, std::__ndk1::allocator<DeathInfo_s> >, std::__ndk1::basic_string<char, std::__ndk1::char_traits<char>, std::__ndk1::allocator<char> > >&&)::{lambda()#1}, std::__ndk1::allocator<geode::Task<geode::Result<std::__ndk1::vector<DeathInfo_s, std::__ndk1::allocator<DeathInfo_s> >, std::__ndk1::basic_string<char, std::__ndk1::char_traits<char>, std::__ndk1::allocator<char> > >, std::__ndk1::monostate>::finish(std::__ndk1::shared_ptr<geode::Task<geode::Result<std::__ndk1::vector<DeathInfo_s, std::__ndk1::allocator<DeathInfo_s> >, std::__ndk1::basic_string<char, std::__ndk1::char_traits<char>, std::__ndk1::allocator<char> > >, std::__ndk1::monostate>::Handle>, geode::Result<std::__ndk1::vector<DeathInfo_s, std::__ndk1::allocator<DeathInfo_s> >, std::__ndk1::basic_string<char, std::__ndk1::char_traits<char>, std::__ndk1::allocator<char> > >&&)::{lambda()#1}>, void ()>::operator()()
FUNC 5b31c 18 0 std::__ndk1::__function::__func<geode::Task<geode::Result<std::__ndk1::vector<DeathInfo_s, std::__ndk1::allocator<DeathInfo_s> >, std::__ndk1::basic_string<char, std::__ndk1::char_traits<char>, std::__ndk1::allocator<char> > >, std::__ndk1::monostate>::finish(std::__ndk1::shared_ptr<geode::Task<geode::Result<std::__ndk1::vector<DeathInfo_s, std::__ndk1::allocator<DeathInfo_s> >, std::__ndk1::basic_string<char, std::__ndk1::char_traits<char>, std::__ndk1::allocator<char> > >, std::__ndk1::monostate>::Handle>, geode::Result<std::__ndk1::vector<DeathInfo_s, std::__ndk1::allocator<DeathInfo_s> >, std::__ndk1::basic_string<char, std::__ndk1::char_traits<char>, std::__ndk1::allocator<char> > >&&)::{lambda()#1}, std::__ndk1::allocator<geode::Task<geode::Result<std::__ndk1::vector<DeathInfo_s, std::__ndk1::allocator<DeathInfo_s> >, std::__ndk1::basic_string<char, std::__ndk1::char_traits<char>, std::__ndk1::allocator<char> > >, std::__ndk1::monostate>::finish(std::__ndk1::shared_ptr<geode::Task<geode::Result<std::__ndk1::vector<DeathInfo_s, std::__ndk1::allocator<DeathInfo_s> >, std::__ndk1::basic_string<char, std::__ndk1::char_traits<char>, std::__ndk1::allocator<char> > >, std::__ndk1::monostate>::Handle>, geode::Result<std::__ndk1::vector<DeathInfo_s, std::__ndk1::allocator<DeathInfo_s> >, std::__ndk1::basic_string<char, std::__ndk1::char_traits<char>, std::__ndk1::allocator<char> > >&&)::{lambda()#1}>, void ()>::target(std::type_info const&) const
FUNC 5b334 c 0 std::__ndk1::__function::__func<geode::Task<geode::Result<std::__ndk1::vector<DeathInfo_s, std::__ndk1::allocator<DeathInfo_s> >, std::__ndk1::basic_string<char, std::__ndk1::char_traits<char>, std::__ndk1::allocator<char> > >, std::__ndk1::monostate>::finish(std::__ndk1::shared_ptr<geode::Task<geode::Result<std::__ndk1::vector<DeathInfo_s, std::__ndk1::allocator<DeathInfo_s> >, std::__ndk1::basic_string<char, std::__ndk1::char_traits<char>, std::__ndk1::allocator<char> > >, std::__ndk1::monostate>::Handle>, geode::Result<std::__ndk1::vector<DeathInfo_s, std::__ndk1::allocator<DeathInfo_s> >, std::__ndk1::basic_string<char, std::__ndk1::char_traits<char>, std::__ndk1::allocator<char> > >&&)::{lambda()#1}, std::__ndk1::allocator<geode::Task<geode::Result<std::__ndk1::vector<DeathInfo_s, std::__ndk1::allocator<DeathInfo_s> >, std::__ndk1::basic_string<char, std::__ndk1::char_traits<char>, std::__ndk1::allocator<char> > >, std::__ndk1::monostate>::finish(std::__ndk1::shared_ptr<geode::Task<geode::Result<std::__ndk1::vector<DeathInfo_s, std::__ndk1::allocator<DeathInfo_s> >, std::__ndk1::basic_string<char, std::__ndk1::char_traits<char>, std::__ndk1::allocator<char> > >, std::__ndk1::monostate>::Handle>, geode::Result<std::__ndk1::vector<DeathInfo_s, std::__ndk1::allocator<DeathInfo_s> >, std::__ndk1::basic_string<char, std::__ndk1::char_traits<char>, std::__ndk1::allocator<char> > >&&)::{lambda()#1}>, void ()>::target_type() const
FUNC 5b340 60 0 std::__ndk1::__variant_detail::__visitation::__base::__dispatcher<(unsigned int)0>::__dispatch[abi:ne180000]<std::__ndk1::__variant_detail::__dtor<std::__ndk1::__variant_detail::__traits<geode::Result<std::__ndk1::vector<DeathInfo_s, std::__ndk1::allocator<std::__ndk1::vector> >, std::__ndk1::basic_string<char, std::__ndk1::char_traits<char>, DeathInfo_s<char> > >, std::__ndk1::__variant_detail::__traits::Task<std::__ndk1::basic_string<char, std::__ndk1::char_traits<char>, DeathInfo_s<char> >, std::__ndk1::monostate>::Cancel>, (std::__ndk1::__variant_detail::_Trait)1>::__destroy[abi:ne180000]()::{lambda(auto:1&)#1}, std::__ndk1::__variant_detail::__base<(std::__ndk1::__variant_detail::__traits<geode::Result<std::__ndk1::vector<DeathInfo_s, std::__ndk1::allocator<std::__ndk1::vector> >, std::__ndk1::basic_string<char, std::__ndk1::char_traits<char>, DeathInfo_s<char> > >, std::__ndk1::__variant_detail::__traits::Task<std::__ndk1::basic_string<char, std::__ndk1::char_traits<char>, DeathInfo_s<char> >, std::__ndk1::monostate>::Cancel>)1, std::__ndk1::basic_string<char, std::__ndk1::char_traits<char>, DeathInfo_s<char> >, std::__ndk1::__variant_detail::__traits::Task<std::__ndk1::basic_string<char, std::__ndk1::char_traits<char>, DeathInfo_s<char> >, std::__ndk1::monostate> >&>(std::__ndk1::__variant_detail::__dtor<std::__ndk1::__variant_detail::__traits<geode::Result<std::__ndk1::vector<DeathInfo_s, std::__ndk1::allocator<std::__ndk1::vector> >, std::__ndk1::basic_string<char, std::__ndk1::char_traits<char>, DeathInfo_s<char> > >, std::__ndk1::__variant_detail::__traits::Task<std::__ndk1::basic_string<char, std::__ndk1::char_traits<char>, DeathInfo_s<char> >, std::__ndk1::monostate>::Cancel>, (std::__ndk1::__variant_detail::_Trait)1>, std::__ndk1::__variant_detail::__base<(std::__ndk1::__variant_detail::__traits<geode::Result<std::__ndk1::vector<DeathInfo_s, std::__ndk1::allocator<std::__ndk1::vector> >, std::__ndk1::basic_string<char, std::__ndk1::char_traits<char>, DeathInfo_s<char> > >, std::__ndk1::__variant_detail::__traits::Task<std::__ndk1::basic_string<char, std::__ndk1::char_traits<char>, DeathInfo_s<char> >, std::__ndk1::monostate>::Cancel>)1, std::__ndk1::basic_string<char, std::__ndk1::char_traits<char>, DeathInfo_s<char> >, std::__ndk1::__variant_detail::__traits::Task<std::__ndk1::basic_string<char, std::__ndk1::char_traits<char>, DeathInfo_s<char> >, std::__ndk1::monostate> >&)
FUNC 5b3a0 2 0 std::__ndk1::__variant_detail::__visitation::__base::__dispatcher<(unsigned int)1>::__dispatch[abi:ne180000]<std::__ndk1::__variant_detail::__dtor<std::__ndk1::__variant_detail::__traits<geode::Result<std::__ndk1::vector<DeathInfo_s, std::__ndk1::allocator<std::__ndk1::vector> >, std::__ndk1::basic_string<char, std::__ndk1::char_traits<char>, DeathInfo_s<char> > >, std::__ndk1::__variant_detail::__traits::Task<std::__ndk1::basic_string<char, std::__ndk1::char_traits<char>, DeathInfo_s<char> >, std::__ndk1::monostate>::Cancel>, (std::__ndk1::__variant_detail::_Trait)1>::__destroy[abi:ne180000]()::{lambda(auto:1&)#1}, std::__ndk1::__variant_detail::__base<(std::__ndk1::__variant_detail::__traits<geode::Result<std::__ndk1::vector<DeathInfo_s, std::__ndk1::allocator<std::__ndk1::vector> >, std::__ndk1::basic_string<char, std::__ndk1::char_traits<char>, DeathInfo_s<char> > >, std::__ndk1::__variant_detail::__traits::Task<std::__ndk1::basic_string<char, std::__ndk1::char_traits<char>, DeathInfo_s<char> >, std::__ndk1::monostate>::Cancel>)1, std::__ndk1::basic_string<char, std::__ndk1::char_traits<char>, DeathInfo_s<char> >, std::__ndk1::__variant_detail::__traits::Task<std::__ndk1::basic_string<char, std::__ndk1::char_traits<char>, DeathInfo_s<char> >, std::__ndk1::monostate> >&>(std::__ndk1::__variant_detail::__dtor<std::__ndk1::__variant_detail::__traits<geode::Result<std::__ndk1::vector<DeathInfo_s, std::__ndk1::allocator<std::__ndk1::vector> >, std::__ndk1::basic_string<char, std::__ndk1::char_traits<char>, DeathInfo_s<char> > >, std::__ndk1::__variant_detail::__traits::Task<std::__ndk1::basic_string<char, std::__ndk1::char_traits<char>, DeathInfo_s<char> >, std::__ndk1::monostate>::Cancel>, (std::__ndk1::__variant_detail::_Trait)1>, std::__ndk1::__variant_detail::__base<(std::__ndk1::__variant_detail::__traits<geode::Result<std::__ndk1::vector<DeathInfo_s, std::__ndk1::allocator<std::__ndk1::vector> >, std::__ndk1::basic_string<char, std::__ndk1::char_traits<char>, DeathInfo_s<char> > >, std::__ndk1::__variant_detail::__traits::Task<std::__ndk1::basic_string<char, std::__ndk1::char_traits<char>, DeathInfo_s<char> >, std::__ndk1::monostate>::Cancel>)1, std::__ndk1::basic_string<char, std::__ndk1::char_traits<char>, DeathInfo_s<char> >, std::__ndk1::__variant_detail::__traits::Task<std::__ndk1::basic_string<char, std::__ndk1::char_traits<char>, DeathInfo_s<char> >, std::__ndk1::monostate> >&)
FUNC 5b3a2 56 0 std::__ndk1::default_delete<std::__ndk1::tuple<std::__ndk1::unique_ptr<std::__ndk1::__thread_struct, std::__ndk1::default_delete<std::__ndk1::__thread_struct> >, geode::Task<geode::Result<std::__ndk1::vector<DeathInfo_s, std::__ndk1::allocator<DeathInfo_s> >, std::__ndk1::basic_string<char, std::__ndk1::char_traits<char>, std::__ndk1::allocator<char> > >, std::__ndk1::monostate>::run(std::__ndk1::function<geode::Task<geode::Result<std::__ndk1::vector<DeathInfo_s, std::__ndk1::allocator<DeathInfo_s> >, std::__ndk1::basic_string<char, std::__ndk1::char_traits<char>, std::__ndk1::allocator<char> > >, std::__ndk1::monostate>::Result(std::__ndk1::function<void (std::__ndk1::monostate)>, std::__ndk1::function<bool ()>)>&&, std::__ndk1::basic_string_view<char, std::__ndk1::char_traits<char> >)::{lambda()#1}> >::operator()[abi:ne180000](std::__ndk1::tuple<std::__ndk1::unique_ptr<std::__ndk1::__thread_struct, std::__ndk1::default_delete<std::__ndk1::__thread_struct> >, geode::Task<geode::Result<std::__ndk1::vector<DeathInfo_s, std::__ndk1::allocator<DeathInfo_s> >, std::__ndk1::basic_string<char, std::__ndk1::char_traits<char>, std::__ndk1::allocator<char> > >, std::__ndk1::monostate>::run(std::__ndk1::function<geode::Task<geode::Result<std::__ndk1::vector<DeathInfo_s, std::__ndk1::allocator<DeathInfo_s> >, std::__ndk1::basic_string<char, std::__ndk1::char_traits<char>, std::__ndk1::allocator<char> > >, std::__ndk1::monostate>::Result(std::__ndk1::function<void (std::__ndk1::monostate)>, std::__ndk1::function<bool ()>)>&&, std::__ndk1::basic_string_view<char, std::__ndk1::char_traits<char> >)::{lambda()#1}>*) const
FUNC 5b3f8 28 0 std::__ndk1::__function::__func<DTLayer::CreateDeathsInfo(std::__ndk1::map<std::__ndk1::basic_string<char, std::__ndk1::char_traits<char>, std::__ndk1::allocator<char> >, int, std::__ndk1::less<std::__ndk1::basic_string<char, std::__ndk1::char_traits<char>, std::__ndk1::allocator<char> > >, std::__ndk1::allocator<std::__ndk1::pair<std::__ndk1::basic_string<char, std::__ndk1::char_traits<char>, std::__ndk1::allocator<char> > const, int> > > const&, std::__ndk1::set<int, std::__ndk1::less<int>, std::__ndk1::allocator<int> > const&)::$_0, std::__ndk1::allocator<DTLayer::CreateDeathsInfo(std::__ndk1::map<std::__ndk1::basic_string<char, std::__ndk1::char_traits<char>, std::__ndk1::allocator<char> >, int, std::__ndk1::less<std::__ndk1::basic_string<char, std::__ndk1::char_traits<char>, std::__ndk1::allocator<char> > >, std::__ndk1::allocator<std::__ndk1::pair<std::__ndk1::basic_string<char, std::__ndk1::char_traits<char>, std::__ndk1::allocator<char> > const, int> > > const&, std::__ndk1::set<int, std::__ndk1::less<int>, std::__ndk1::allocator<int> > const&)::$_0>, geode::Task<geode::Result<std::__ndk1::vector<DeathInfo_s, std::__ndk1::allocator<DeathInfo_s> >, std::__ndk1::basic_string<char, std::__ndk1::char_traits<char>, std::__ndk1::allocator<char> > >, std::__ndk1::monostate>::Result(std::__ndk1::function<void (std::__ndk1::monostate)>, std::__ndk1::function<bool ()>)>::~__func()
FUNC 5b420 30 0 std::__ndk1::__function::__func<DTLayer::CreateDeathsInfo(std::__ndk1::map<std::__ndk1::basic_string<char, std::__ndk1::char_traits<char>, std::__ndk1::allocator<char> >, int, std::__ndk1::less<std::__ndk1::basic_string<char, std::__ndk1::char_traits<char>, std::__ndk1::allocator<char> > >, std::__ndk1::allocator<std::__ndk1::pair<std::__ndk1::basic_string<char, std::__ndk1::char_traits<char>, std::__ndk1::allocator<char> > const, int> > > const&, std::__ndk1::set<int, std::__ndk1::less<int>, std::__ndk1::allocator<int> > const&)::$_0, std::__ndk1::allocator<DTLayer::CreateDeathsInfo(std::__ndk1::map<std::__ndk1::basic_string<char, std::__ndk1::char_traits<char>, std::__ndk1::allocator<char> >, int, std::__ndk1::less<std::__ndk1::basic_string<char, std::__ndk1::char_traits<char>, std::__ndk1::allocator<char> > >, std::__ndk1::allocator<std::__ndk1::pair<std::__ndk1::basic_string<char, std::__ndk1::char_traits<char>, std::__ndk1::allocator<char> > const, int> > > const&, std::__ndk1::set<int, std::__ndk1::less<int>, std::__ndk1::allocator<int> > const&)::$_0>, geode::Task<geode::Result<std::__ndk1::vector<DeathInfo_s, std::__ndk1::allocator<DeathInfo_s> >, std::__ndk1::basic_string<char, std::__ndk1::char_traits<char>, std::__ndk1::allocator<char> > >, std::__ndk1::monostate>::Result(std::__ndk1::function<void (std::__ndk1::monostate)>, std::__ndk1::function<bool ()>)>::~__func()
FUNC 5b450 34 0 std::__ndk1::__function::__func<DTLayer::CreateDeathsInfo(std::__ndk1::map<std::__ndk1::basic_string<char, std::__ndk1::char_traits<char>, std::__ndk1::allocator<char> >, int, std::__ndk1::less<std::__ndk1::basic_string<char, std::__ndk1::char_traits<char>, std::__ndk1::allocator<char> > >, std::__ndk1::allocator<std::__ndk1::pair<std::__ndk1::basic_string<char, std::__ndk1::char_traits<char>, std::__ndk1::allocator<char> > const, int> > > const&, std::__ndk1::set<int, std::__ndk1::less<int>, std::__ndk1::allocator<int> > const&)::$_0, std::__ndk1::allocator<DTLayer::CreateDeathsInfo(std::__ndk1::map<std::__ndk1::basic_string<char, std::__ndk1::char_traits<char>, std::__ndk1::allocator<char> >, int, std::__ndk1::less<std::__ndk1::basic_string<char, std::__ndk1::char_traits<char>, std::__ndk1::allocator<char> > >, std::__ndk1::allocator<std::__ndk1::pair<std::__ndk1::basic_string<char, std::__ndk1::char_traits<char>, std::__ndk1::allocator<char> > const, int> > > const&, std::__ndk1::set<int, std::__ndk1::less<int>, std::__ndk1::allocator<int> > const&)::$_0>, geode::Task<geode::Result<std::__ndk1::vector<DeathInfo_s, std::__ndk1::allocator<DeathInfo_s> >, std::__ndk1::basic_string<char, std::__ndk1::char_traits<char>, std::__ndk1::allocator<char> > >, std::__ndk1::monostate>::Result(std::__ndk1::function<void (std::__ndk1::monostate)>, std::__ndk1::function<bool ()>)>::__clone() const
FUNC 5b484 18 0 std::__ndk1::__function::__func<DTLayer::CreateDeathsInfo(std::__ndk1::map<std::__ndk1::basic_string<char, std::__ndk1::char_traits<char>, std::__ndk1::allocator<char> >, int, std::__ndk1::less<std::__ndk1::basic_string<char, std::__ndk1::char_traits<char>, std::__ndk1::allocator<char> > >, std::__ndk1::allocator<std::__ndk1::pair<std::__ndk1::basic_string<char, std::__ndk1::char_traits<char>, std::__ndk1::allocator<char> > const, int> > > const&, std::__ndk1::set<int, std::__ndk1::less<int>, std::__ndk1::allocator<int> > const&)::$_0, std::__ndk1::allocator<DTLayer::CreateDeathsInfo(std::__ndk1::map<std::__ndk1::basic_string<char, std::__ndk1::char_traits<char>, std::__ndk1::allocator<char> >, int, std::__ndk1::less<std::__ndk1::basic_string<char, std::__ndk1::char_traits<char>, std::__ndk1::allocator<char> > >, std::__ndk1::allocator<std::__ndk1::pair<std::__ndk1::basic_string<char, std::__ndk1::char_traits<char>, std::__ndk1::allocator<char> > const, int> > > const&, std::__ndk1::set<int, std::__ndk1::less<int>, std::__ndk1::allocator<int> > const&)::$_0>, geode::Task<geode::Result<std::__ndk1::vector<DeathInfo_s, std::__ndk1::allocator<DeathInfo_s> >, std::__ndk1::basic_string<char, std::__ndk1::char_traits<char>, std::__ndk1::allocator<char> > >, std::__ndk1::monostate>::Result(std::__ndk1::function<void (std::__ndk1::monostate)>, std::__ndk1::function<bool ()>)>::__clone(std::__ndk1::__function::__base<geode::Task<geode::Result<std::__ndk1::vector<DeathInfo_s, std::__ndk1::allocator<DeathInfo_s> >, std::__ndk1::basic_string<char, std::__ndk1::char_traits<char>, std::__ndk1::allocator<char> > >, std::__ndk1::monostate>::Result(std::__ndk1::function<void (std::__ndk1::monostate)>, std::__ndk1::function<bool ()>)>*) const
FUNC 5b49c 1a 0 std::__ndk1::__function::__func<DTLayer::CreateDeathsInfo(std::__ndk1::map<std::__ndk1::basic_string<char, std::__ndk1::char_traits<char>, std::__ndk1::allocator<char> >, int, std::__ndk1::less<std::__ndk1::basic_string<char, std::__ndk1::char_traits<char>, std::__ndk1::allocator<char> > >, std::__ndk1::allocator<std::__ndk1::pair<std::__ndk1::basic_string<char, std::__ndk1::char_traits<char>, std::__ndk1::allocator<char> > const, int> > > const&, std::__ndk1::set<int, std::__ndk1::less<int>, std::__ndk1::allocator<int> > const&)::$_0, std::__ndk1::allocator<DTLayer::CreateDeathsInfo(std::__ndk1::map<std::__ndk1::basic_string<char, std::__ndk1::char_traits<char>, std::__ndk1::allocator<char> >, int, std::__ndk1::less<std::__ndk1::basic_string<char, std::__ndk1::char_traits<char>, std::__ndk1::allocator<char> > >, std::__ndk1::allocator<std::__ndk1::pair<std::__ndk1::basic_string<char, std::__ndk1::char_traits<char>, std::__ndk1::allocator<char> > const, int> > > const&, std::__ndk1::set<int, std::__ndk1::less<int>, std::__ndk1::allocator<int> > const&)::$_0>, geode::Task<geode::Result<std::__ndk1::vector<DeathInfo_s, std::__ndk1::allocator<DeathInfo_s> >, std::__ndk1::basic_string<char, std::__ndk1::char_traits<char>, std::__ndk1::allocator<char> > >, std::__ndk1::monostate>::Result(std::__ndk1::function<void (std::__ndk1::monostate)>, std::__ndk1::function<bool ()>)>::destroy()
FUNC 5b4b6 20 0 std::__ndk1::__function::__func<DTLayer::CreateDeathsInfo(std::__ndk1::map<std::__ndk1::basic_string<char, std::__ndk1::char_traits<char>, std::__ndk1::allocator<char> >, int, std::__ndk1::less<std::__ndk1::basic_string<char, std::__ndk1::char_traits<char>, std::__ndk1::allocator<char> > >, std::__ndk1::allocator<std::__ndk1::pair<std::__ndk1::basic_string<char, std::__ndk1::char_traits<char>, std::__ndk1::allocator<char> > const, int> > > const&, std::__ndk1::set<int, std::__ndk1::less<int>, std::__ndk1::allocator<int> > const&)::$_0, std::__ndk1::allocator<DTLayer::CreateDeathsInfo(std::__ndk1::map<std::__ndk1::basic_string<char, std::__ndk1::char_traits<char>, std::__ndk1::allocator<char> >, int, std::__ndk1::less<std::__ndk1::basic_string<char, std::__ndk1::char_traits<char>, std::__ndk1::allocator<char> > >, std::__ndk1::allocator<std::__ndk1::pair<std::__ndk1::basic_string<char, std::__ndk1::char_traits<char>, std::__ndk1::allocator<char> > const, int> > > const&, std::__ndk1::set<int, std::__ndk1::less<int>, std::__ndk1::allocator<int> > const&)::$_0>, geode::Task<geode::Result<std::__ndk1::vector<DeathInfo_s, std::__ndk1::allocator<DeathInfo_s> >, std::__ndk1::basic_string<char, std::__ndk1::char_traits<char>, std::__ndk1::allocator<char> > >, std::__ndk1::monostate>::Result(std::__ndk1::function<void (std::__ndk1::monostate)>, std::__ndk1::function<bool ()>)>::destroy_deallocate()
FUNC 5b4d8 670 0 std::__ndk1::__function::__func<DTLayer::CreateDeathsInfo(std::__ndk1::map<std::__ndk1::basic_string<char, std::__ndk1::char_traits<char>, std::__ndk1::allocator<char> >, int, std::__ndk1::less<std::__ndk1::basic_string<char, std::__ndk1::char_traits<char>, std::__ndk1::allocator<char> > >, std::__ndk1::allocator<std::__ndk1::pair<std::__ndk1::basic_string<char, std::__ndk1::char_traits<char>, std::__ndk1::allocator<char> > const, int> > > const&, std::__ndk1::set<int, std::__ndk1::less<int>, std::__ndk1::allocator<int> > const&)::$_0, std::__ndk1::allocator<DTLayer::CreateDeathsInfo(std::__ndk1::map<std::__ndk1::basic_string<char, std::__ndk1::char_traits<char>, std::__ndk1::allocator<char> >, int, std::__ndk1::less<std::__ndk1::basic_string<char, std::__ndk1::char_traits<char>, std::__ndk1::allocator<char> > >, std::__ndk1::allocator<std::__ndk1::pair<std::__ndk1::basic_string<char, std::__ndk1::char_traits<char>, std::__ndk1::allocator<char> > const, int> > > const&, std::__ndk1::set<int, std::__ndk1::less<int>, std::__ndk1::allocator<int> > const&)::$_0>, geode::Task<geode::Result<std::__ndk1::vector<DeathInfo_s, std::__ndk1::allocator<DeathInfo_s> >, std::__ndk1::basic_string<char, std::__ndk1::char_traits<char>, std::__ndk1::allocator<char> > >, std::__ndk1::monostate>::Result(std::__ndk1::function<void (std::__ndk1::monostate)>, std::__ndk1::function<bool ()>)>::operator()(std::__ndk1::function<void (std::__ndk1::monostate)>&&, std::__ndk1::function<bool ()>&&)
FUNC 5bb48 18 0 std::__ndk1::__function::__func<DTLayer::CreateDeathsInfo(std::__ndk1::map<std::__ndk1::basic_string<char, std::__ndk1::char_traits<char>, std::__ndk1::allocator<char> >, int, std::__ndk1::less<std::__ndk1::basic_string<char, std::__ndk1::char_traits<char>, std::__ndk1::allocator<char> > >, std::__ndk1::allocator<std::__ndk1::pair<std::__ndk1::basic_string<char, std::__ndk1::char_traits<char>, std::__ndk1::allocator<char> > const, int> > > const&, std::__ndk1::set<int, std::__ndk1::less<int>, std::__ndk1::allocator<int> > const&)::$_0, std::__ndk1::allocator<DTLayer::CreateDeathsInfo(std::__ndk1::map<std::__ndk1::basic_string<char, std::__ndk1::char_traits<char>, std::__ndk1::allocator<char> >, int, std::__ndk1::less<std::__ndk1::basic_string<char, std::__ndk1::char_traits<char>, std::__ndk1::allocator<char> > >, std::__ndk1::allocator<std::__ndk1::pair<std::__ndk1::basic_string<char, std::__ndk1::char_traits<char>, std::__ndk1::allocator<char> > const, int> > > const&, std::__ndk1::set<int, std::__ndk1::less<int>, std::__ndk1::allocator<int> > const&)::$_0>, geode::Task<geode::Result<std::__ndk1::vector<DeathInfo_s, std::__ndk1::allocator<DeathInfo_s> >, std::__ndk1::basic_string<char, std::__ndk1::char_traits<char>, std::__ndk1::allocator<char> > >, std::__ndk1::monostate>::Result(std::__ndk1::function<void (std::__ndk1::monostate)>, std::__ndk1::function<bool ()>)>::target(std::type_info const&) const
FUNC 5bb60 c 0 std::__ndk1::__function::__func<DTLayer::CreateDeathsInfo(std::__ndk1::map<std::__ndk1::basic_string<char, std::__ndk1::char_traits<char>, std::__ndk1::allocator<char> >, int, std::__ndk1::less<std::__ndk1::basic_string<char, std::__ndk1::char_traits<char>, std::__ndk1::allocator<char> > >, std::__ndk1::allocator<std::__ndk1::pair<std::__ndk1::basic_string<char, std::__ndk1::char_traits<char>, std::__ndk1::allocator<char> > const, int> > > const&, std::__ndk1::set<int, std::__ndk1::less<int>, std::__ndk1::allocator<int> > const&)::$_0, std::__ndk1::allocator<DTLayer::CreateDeathsInfo(std::__ndk1::map<std::__ndk1::basic_string<char, std::__ndk1::char_traits<char>, std::__ndk1::allocator<char> >, int, std::__ndk1::less<std::__ndk1::basic_string<char, std::__ndk1::char_traits<char>, std::__ndk1::allocator<char> > >, std::__ndk1::allocator<std::__ndk1::pair<std::__ndk1::basic_string<char, std::__ndk1::char_traits<char>, std::__ndk1::allocator<char> > const, int> > > const&, std::__ndk1::set<int, std::__ndk1::less<int>, std::__ndk1::allocator<int> > const&)::$_0>, geode::Task<geode::Result<std::__ndk1::vector<DeathInfo_s, std::__ndk1::allocator<DeathInfo_s> >, std::__ndk1::basic_string<char, std::__ndk1::char_traits<char>, std::__ndk1::allocator<char> > >, std::__ndk1::monostate>::Result(std::__ndk1::function<void (std::__ndk1::monostate)>, std::__ndk1::function<bool ()>)>::target_type() const
FUNC 5bb6c cc 0 std::__ndk1::__compressed_pair_elem<DTLayer::CreateDeathsInfo(std::__ndk1::map<std::__ndk1::basic_string<char, std::__ndk1::char_traits<char>, std::__ndk1::allocator<char> >, int, std::__ndk1::less<std::__ndk1::basic_string<char, std::__ndk1::char_traits<char>, std::__ndk1::allocator<char> > >, std::__ndk1::allocator<std::__ndk1::pair<std::__ndk1::basic_string<char, std::__ndk1::char_traits<char>, std::__ndk1::allocator<char> > const, int> > > const&, std::__ndk1::set<int, std::__ndk1::less<int>, std::__ndk1::allocator<int> > const&)::$_0, 0, false>::__compressed_pair_elem[abi:ne180000]<DTLayer::CreateDeathsInfo(std::__ndk1::map<std::__ndk1::basic_string<char, std::__ndk1::char_traits<char>, std::__ndk1::allocator<char> >, int, std::__ndk1::less<std::__ndk1::basic_string<char, std::__ndk1::char_traits<char>, std::__ndk1::allocator<char> > >, std::__ndk1::allocator<std::__ndk1::pair<std::__ndk1::basic_string<char, std::__ndk1::char_traits<char>, std::__ndk1::allocator<char> > const, int> > > const&, std::__ndk1::set<int, std::__ndk1::less<int>, std::__ndk1::allocator<int> > const&)::$_0 const&, (unsigned int)0>(std::__ndk1::tuple<DTLayer::CreateDeathsInfo(std::__ndk1::map<std::__ndk1::basic_string<char, std::__ndk1::char_traits<char>, std::__ndk1::allocator<char> >, int, std::__ndk1::less<std::__ndk1::basic_string<char, std::__ndk1::char_traits<char>, std::__ndk1::allocator<char> > >, std::__ndk1::allocator<std::__ndk1::pair<std::__ndk1::basic_string<char, std::__ndk1::char_traits<char>, std::__ndk1::allocator<char> > const, int> > > const&, std::__ndk1::set<int, std::__ndk1::less<int>, std::__ndk1::allocator<int> > const&)::$_0 const&>, std::__ndk1::__tuple_indices<((unsigned int)0)...>)
FUNC 5bc38 d2c 0 std::__ndk1::__introsort<std::__ndk1::_RangeAlgPolicy, DTLayer::CreateDeathsInfo(std::__ndk1::map<std::__ndk1::basic_string<char, std::__ndk1::char_traits<char>, std::__ndk1::allocator<char> >, int, std::__ndk1::less<std::__ndk1::basic_string<char, std::__ndk1::char_traits<char>, std::__ndk1::allocator<char> > >, std::__ndk1::allocator<std::__ndk1::pair<std::__ndk1::basic_string<char, std::__ndk1::char_traits<char>, std::__ndk1::allocator<char> > const, int> > > const&, std::__ndk1::set<int, std::__ndk1::less<int>, std::__ndk1::allocator<int> > const&)::$_0::operator()<std::__ndk1::function<void (std::__ndk1::monostate)>, std::__ndk1::function<bool ()> >(std::__ndk1::function<void (std::__ndk1::monostate)>, std::__ndk1::function<bool ()>) const::{lambda(DeathInfo_s, DeathInfo_s)#1}&, DeathInfo_s*, false>(DeathInfo_s*, DeathInfo_s*, DTLayer::CreateDeathsInfo(std::__ndk1::map<std::__ndk1::basic_string<char, std::__ndk1::char_traits<char>, std::__ndk1::allocator<char> >, int, std::__ndk1::less<std::__ndk1::basic_string<char, std::__ndk1::char_traits<char>, std::__ndk1::allocator<char> > >, std::__ndk1::allocator<std::__ndk1::pair<std::__ndk1::basic_string<char, std::__ndk1::char_traits<char>, std::__ndk1::allocator<char> > const, int> > > const&, std::__ndk1::set<int, std::__ndk1::less<int>, std::__ndk1::allocator<int> > const&)::$_0::operator()<std::__ndk1::function<void (std::__ndk1::monostate)>, std::__ndk1::function<bool ()> >(std::__ndk1::function<void (std::__ndk1::monostate)>, std::__ndk1::function<bool ()>) const::{lambda(DeathInfo_s, DeathInfo_s)#1}&, std::__ndk1::iterator_traits<DeathInfo_s*>::difference_type, bool)
FUNC 5c964 438 0 std::__ndk1::__insertion_sort_incomplete[abi:ne180000]<std::__ndk1::_RangeAlgPolicy, DTLayer::CreateDeathsInfo(std::__ndk1::map<std::__ndk1::basic_string<char, std::__ndk1::char_traits<char>, std::__ndk1::allocator<char> >, int, std::__ndk1::less<std::__ndk1::allocator<char> >, std::__ndk1::char_traits<char><std::__ndk1::pair<std::__ndk1::allocator<char> const, int> > > const&, std::__ndk1::set<int, std::__ndk1::basic_string<char, std::__ndk1::char_traits<char>, std::__ndk1::allocator<char> ><int>, std::__ndk1::char_traits<char><int> > const&)::$_0::operator()<std::__ndk1::function<void (std::__ndk1::monostate)>, $_0::operator()<bool ()> >(std::__ndk1::function<void (std::__ndk1::monostate)>, $_0::operator()<bool ()>) const::{lambda(std::__ndk1::vector, std::__ndk1::vector)#1}&, std::__ndk1::vector*>(std::__ndk1::vector*, std::__ndk1::vector*, std::__ndk1::_RangeAlgPolicy)
FUNC 5cd9c 204 0 std::__ndk1::__sort4[abi:ne180000]<std::__ndk1::_RangeAlgPolicy, DTLayer::CreateDeathsInfo(std::__ndk1::map<std::__ndk1::basic_string<char, std::__ndk1::char_traits<char>, std::__ndk1::allocator<char> >, int, std::__ndk1::less<std::__ndk1::allocator<char> >, std::__ndk1::char_traits<char><std::__ndk1::pair<std::__ndk1::allocator<char> const, int> > > const&, std::__ndk1::set<int, std::__ndk1::basic_string<char, std::__ndk1::char_traits<char>, std::__ndk1::allocator<char> ><int>, std::__ndk1::char_traits<char><int> > const&)::$_0::operator()<std::__ndk1::function<void (std::__ndk1::monostate)>, $_0::operator()<bool ()> >(std::__ndk1::function<void (std::__ndk1::monostate)>, $_0::operator()<bool ()>) const::{lambda(std::__ndk1::vector, std::__ndk1::vector)#1}&, std::__ndk1::vector*>(std::__ndk1::vector*, std::__ndk1::vector*, std::__ndk1::vector*, std::__ndk1::vector*, std::__ndk1::_RangeAlgPolicy)
FUNC 5cfa0 28 0 std::__ndk1::__tree<std::__ndk1::__value_type<int, int>, std::__ndk1::__map_value_compare<int, std::__ndk1::__value_type<int, int>, std::__ndk1::less<int>, true>, std::__ndk1::allocator<std::__ndk1::__value_type<int, int> > >::destroy(std::__ndk1::__tree_node<std::__ndk1::__value_type<int, int>, void*>*)
FUNC 5cfc8 20 0 std::__ndk1::__function::__func<DTLayer::CreateRunsInfo(std::__ndk1::map<std::__ndk1::basic_string<char, std::__ndk1::char_traits<char>, std::__ndk1::allocator<char> >, int, std::__ndk1::less<std::__ndk1::basic_string<char, std::__ndk1::char_traits<char>, std::__ndk1::allocator<char> > >, std::__ndk1::allocator<std::__ndk1::pair<std::__ndk1::basic_string<char, std::__ndk1::char_traits<char>, std::__ndk1::allocator<char> > const, int> > >)::$_0, std::__ndk1::allocator<DTLayer::CreateRunsInfo(std::__ndk1::map<std::__ndk1::basic_string<char, std::__ndk1::char_traits<char>, std::__ndk1::allocator<char> >, int, std::__ndk1::less<std::__ndk1::basic_string<char, std::__ndk1::char_traits<char>, std::__ndk1::allocator<char> > >, std::__ndk1::allocator<std::__ndk1::pair<std::__ndk1::basic_string<char, std::__ndk1::char_traits<char>, std::__ndk1::allocator<char> > const, int> > >)::$_0>, geode::Task<geode::Result<std::__ndk1::vector<DeathInfo_s, std::__ndk1::allocator<DeathInfo_s> >, std::__ndk1::basic_string<char, std::__ndk1::char_traits<char>, std::__ndk1::allocator<char> > >, std::__ndk1::monostate>::Result(std::__ndk1::function<void (std::__ndk1::monostate)>, std::__ndk1::function<bool ()>)>::~__func()
FUNC 5cfe8 24 0 std::__ndk1::__function::__func<DTLayer::CreateRunsInfo(std::__ndk1::map<std::__ndk1::basic_string<char, std::__ndk1::char_traits<char>, std::__ndk1::allocator<char> >, int, std::__ndk1::less<std::__ndk1::basic_string<char, std::__ndk1::char_traits<char>, std::__ndk1::allocator<char> > >, std::__ndk1::allocator<std::__ndk1::pair<std::__ndk1::basic_string<char, std::__ndk1::char_traits<char>, std::__ndk1::allocator<char> > const, int> > >)::$_0, std::__ndk1::allocator<DTLayer::CreateRunsInfo(std::__ndk1::map<std::__ndk1::basic_string<char, std::__ndk1::char_traits<char>, std::__ndk1::allocator<char> >, int, std::__ndk1::less<std::__ndk1::basic_string<char, std::__ndk1::char_traits<char>, std::__ndk1::allocator<char> > >, std::__ndk1::allocator<std::__ndk1::pair<std::__ndk1::basic_string<char, std::__ndk1::char_traits<char>, std::__ndk1::allocator<char> > const, int> > >)::$_0>, geode::Task<geode::Result<std::__ndk1::vector<DeathInfo_s, std::__ndk1::allocator<DeathInfo_s> >, std::__ndk1::basic_string<char, std::__ndk1::char_traits<char>, std::__ndk1::allocator<char> > >, std::__ndk1::monostate>::Result(std::__ndk1::function<void (std::__ndk1::monostate)>, std::__ndk1::function<bool ()>)>::~__func()
FUNC 5d00c c4 0 std::__ndk1::__function::__func<DTLayer::CreateRunsInfo(std::__ndk1::map<std::__ndk1::basic_string<char, std::__ndk1::char_traits<char>, std::__ndk1::allocator<char> >, int, std::__ndk1::less<std::__ndk1::basic_string<char, std::__ndk1::char_traits<char>, std::__ndk1::allocator<char> > >, std::__ndk1::allocator<std::__ndk1::pair<std::__ndk1::basic_string<char, std::__ndk1::char_traits<char>, std::__ndk1::allocator<char> > const, int> > >)::$_0, std::__ndk1::allocator<DTLayer::CreateRunsInfo(std::__ndk1::map<std::__ndk1::basic_string<char, std::__ndk1::char_traits<char>, std::__ndk1::allocator<char> >, int, std::__ndk1::less<std::__ndk1::basic_string<char, std::__ndk1::char_traits<char>, std::__ndk1::allocator<char> > >, std::__ndk1::allocator<std::__ndk1::pair<std::__ndk1::basic_string<char, std::__ndk1::char_traits<char>, std::__ndk1::allocator<char> > const, int> > >)::$_0>, geode::Task<geode::Result<std::__ndk1::vector<DeathInfo_s, std::__ndk1::allocator<DeathInfo_s> >, std::__ndk1::basic_string<char, std::__ndk1::char_traits<char>, std::__ndk1::allocator<char> > >, std::__ndk1::monostate>::Result(std::__ndk1::function<void (std::__ndk1::monostate)>, std::__ndk1::function<bool ()>)>::__clone() const
FUNC 5d0d0 b0 0 std::__ndk1::__function::__func<DTLayer::CreateRunsInfo(std::__ndk1::map<std::__ndk1::basic_string<char, std::__ndk1::char_traits<char>, std::__ndk1::allocator<char> >, int, std::__ndk1::less<std::__ndk1::basic_string<char, std::__ndk1::char_traits<char>, std::__ndk1::allocator<char> > >, std::__ndk1::allocator<std::__ndk1::pair<std::__ndk1::basic_string<char, std::__ndk1::char_traits<char>, std::__ndk1::allocator<char> > const, int> > >)::$_0, std::__ndk1::allocator<DTLayer::CreateRunsInfo(std::__ndk1::map<std::__ndk1::basic_string<char, std::__ndk1::char_traits<char>, std::__ndk1::allocator<char> >, int, std::__ndk1::less<std::__ndk1::basic_string<char, std::__ndk1::char_traits<char>, std::__ndk1::allocator<char> > >, std::__ndk1::allocator<std::__ndk1::pair<std::__ndk1::basic_string<char, std::__ndk1::char_traits<char>, std::__ndk1::allocator<char> > const, int> > >)::$_0>, geode::Task<geode::Result<std::__ndk1::vector<DeathInfo_s, std::__ndk1::allocator<DeathInfo_s> >, std::__ndk1::basic_string<char, std::__ndk1::char_traits<char>, std::__ndk1::allocator<char> > >, std::__ndk1::monostate>::Result(std::__ndk1::function<void (std::__ndk1::monostate)>, std::__ndk1::function<bool ()>)>::__clone(std::__ndk1::__function::__base<geode::Task<geode::Result<std::__ndk1::vector<DeathInfo_s, std::__ndk1::allocator<DeathInfo_s> >, std::__ndk1::basic_string<char, std::__ndk1::char_traits<char>, std::__ndk1::allocator<char> > >, std::__ndk1::monostate>::Result(std::__ndk1::function<void (std::__ndk1::monostate)>, std::__ndk1::function<bool ()>)>*) const
FUNC 5d180 8 0 std::__ndk1::__function::__func<DTLayer::CreateRunsInfo(std::__ndk1::map<std::__ndk1::basic_string<char, std::__ndk1::char_traits<char>, std::__ndk1::allocator<char> >, int, std::__ndk1::less<std::__ndk1::basic_string<char, std::__ndk1::char_traits<char>, std::__ndk1::allocator<char> > >, std::__ndk1::allocator<std::__ndk1::pair<std::__ndk1::basic_string<char, std::__ndk1::char_traits<char>, std::__ndk1::allocator<char> > const, int> > >)::$_0, std::__ndk1::allocator<DTLayer::CreateRunsInfo(std::__ndk1::map<std::__ndk1::basic_string<char, std::__ndk1::char_traits<char>, std::__ndk1::allocator<char> >, int, std::__ndk1::less<std::__ndk1::basic_string<char, std::__ndk1::char_traits<char>, std::__ndk1::allocator<char> > >, std::__ndk1::allocator<std::__ndk1::pair<std::__ndk1::basic_string<char, std::__ndk1::char_traits<char>, std::__ndk1::allocator<char> > const, int> > >)::$_0>, geode::Task<geode::Result<std::__ndk1::vector<DeathInfo_s, std::__ndk1::allocator<DeathInfo_s> >, std::__ndk1::basic_string<char, std::__ndk1::char_traits<char>, std::__ndk1::allocator<char> > >, std::__ndk1::monostate>::Result(std::__ndk1::function<void (std::__ndk1::monostate)>, std::__ndk1::function<bool ()>)>::destroy()
FUNC 5d188 18 0 std::__ndk1::__function::__func<DTLayer::CreateRunsInfo(std::__ndk1::map<std::__ndk1::basic_string<char, std::__ndk1::char_traits<char>, std::__ndk1::allocator<char> >, int, std::__ndk1::less<std::__ndk1::basic_string<char, std::__ndk1::char_traits<char>, std::__ndk1::allocator<char> > >, std::__ndk1::allocator<std::__ndk1::pair<std::__ndk1::basic_string<char, std::__ndk1::char_traits<char>, std::__ndk1::allocator<char> > const, int> > >)::$_0, std::__ndk1::allocator<DTLayer::CreateRunsInfo(std::__ndk1::map<std::__ndk1::basic_string<char, std::__ndk1::char_traits<char>, std::__ndk1::allocator<char> >, int, std::__ndk1::less<std::__ndk1::basic_string<char, std::__ndk1::char_traits<char>, std::__ndk1::allocator<char> > >, std::__ndk1::allocator<std::__ndk1::pair<std::__ndk1::basic_string<char, std::__ndk1::char_traits<char>, std::__ndk1::allocator<char> > const, int> > >)::$_0>, geode::Task<geode::Result<std::__ndk1::vector<DeathInfo_s, std::__ndk1::allocator<DeathInfo_s> >, std::__ndk1::basic_string<char, std::__ndk1::char_traits<char>, std::__ndk1::allocator<char> > >, std::__ndk1::monostate>::Result(std::__ndk1::function<void (std::__ndk1::monostate)>, std::__ndk1::function<bool ()>)>::destroy_deallocate()
FUNC 5d1a0 72c 0 std::__ndk1::__function::__func<DTLayer::CreateRunsInfo(std::__ndk1::map<std::__ndk1::basic_string<char, std::__ndk1::char_traits<char>, std::__ndk1::allocator<char> >, int, std::__ndk1::less<std::__ndk1::basic_string<char, std::__ndk1::char_traits<char>, std::__ndk1::allocator<char> > >, std::__ndk1::allocator<std::__ndk1::pair<std::__ndk1::basic_string<char, std::__ndk1::char_traits<char>, std::__ndk1::allocator<char> > const, int> > >)::$_0, std::__ndk1::allocator<DTLayer::CreateRunsInfo(std::__ndk1::map<std::__ndk1::basic_string<char, std::__ndk1::char_traits<char>, std::__ndk1::allocator<char> >, int, std::__ndk1::less<std::__ndk1::basic_string<char, std::__ndk1::char_traits<char>, std::__ndk1::allocator<char> > >, std::__ndk1::allocator<std::__ndk1::pair<std::__ndk1::basic_string<char, std::__ndk1::char_traits<char>, std::__ndk1::allocator<char> > const, int> > >)::$_0>, geode::Task<geode::Result<std::__ndk1::vector<DeathInfo_s, std::__ndk1::allocator<DeathInfo_s> >, std::__ndk1::basic_string<char, std::__ndk1::char_traits<char>, std::__ndk1::allocator<char> > >, std::__ndk1::monostate>::Result(std::__ndk1::function<void (std::__ndk1::monostate)>, std::__ndk1::function<bool ()>)>::operator()(std::__ndk1::function<void (std::__ndk1::monostate)>&&, std::__ndk1::function<bool ()>&&)
FUNC 5d8cc 18 0 std::__ndk1::__function::__func<DTLayer::CreateRunsInfo(std::__ndk1::map<std::__ndk1::basic_string<char, std::__ndk1::char_traits<char>, std::__ndk1::allocator<char> >, int, std::__ndk1::less<std::__ndk1::basic_string<char, std::__ndk1::char_traits<char>, std::__ndk1::allocator<char> > >, std::__ndk1::allocator<std::__ndk1::pair<std::__ndk1::basic_string<char, std::__ndk1::char_traits<char>, std::__ndk1::allocator<char> > const, int> > >)::$_0, std::__ndk1::allocator<DTLayer::CreateRunsInfo(std::__ndk1::map<std::__ndk1::basic_string<char, std::__ndk1::char_traits<char>, std::__ndk1::allocator<char> >, int, std::__ndk1::less<std::__ndk1::basic_string<char, std::__ndk1::char_traits<char>, std::__ndk1::allocator<char> > >, std::__ndk1::allocator<std::__ndk1::pair<std::__ndk1::basic_string<char, std::__ndk1::char_traits<char>, std::__ndk1::allocator<char> > const, int> > >)::$_0>, geode::Task<geode::Result<std::__ndk1::vector<DeathInfo_s, std::__ndk1::allocator<DeathInfo_s> >, std::__ndk1::basic_string<char, std::__ndk1::char_traits<char>, std::__ndk1::allocator<char> > >, std::__ndk1::monostate>::Result(std::__ndk1::function<void (std::__ndk1::monostate)>, std::__ndk1::function<bool ()>)>::target(std::type_info const&) const
FUNC 5d8e4 c 0 std::__ndk1::__function::__func<DTLayer::CreateRunsInfo(std::__ndk1::map<std::__ndk1::basic_string<char, std::__ndk1::char_traits<char>, std::__ndk1::allocator<char> >, int, std::__ndk1::less<std::__ndk1::basic_string<char, std::__ndk1::char_traits<char>, std::__ndk1::allocator<char> > >, std::__ndk1::allocator<std::__ndk1::pair<std::__ndk1::basic_string<char, std::__ndk1::char_traits<char>, std::__ndk1::allocator<char> > const, int> > >)::$_0, std::__ndk1::allocator<DTLayer::CreateRunsInfo(std::__ndk1::map<std::__ndk1::basic_string<char, std::__ndk1::char_traits<char>, std::__ndk1::allocator<char> >, int, std::__ndk1::less<std::__ndk1::basic_string<char, std::__ndk1::char_traits<char>, std::__ndk1::allocator<char> > >, std::__ndk1::allocator<std::__ndk1::pair<std::__ndk1::basic_string<char, std::__ndk1::char_traits<char>, std::__ndk1::allocator<char> > const, int> > >)::$_0>, geode::Task<geode::Result<std::__ndk1::vector<DeathInfo_s, std::__ndk1::allocator<DeathInfo_s> >, std::__ndk1::basic_string<char, std::__ndk1::char_traits<char>, std::__ndk1::allocator<char> > >, std::__ndk1::monostate>::Result(std::__ndk1::function<void (std::__ndk1::monostate)>, std::__ndk1::function<bool ()>)>::target_type() const
FUNC 5d8f0 3e 0 std::__ndk1::vector<std::__ndk1::tuple<std::__ndk1::basic_string<char, std::__ndk1::char_traits<char>, std::__ndk1::allocator<char> >, int>, std::__ndk1::allocator<std::__ndk1::tuple<std::__ndk1::basic_string<char, std::__ndk1::char_traits<char>, std::__ndk1::allocator<char> >, int> > >::~vector[abi:ne180000]()
FUNC 5d930 10 0 std::__ndk1::vector<std::__ndk1::tuple<std::__ndk1::basic_string<char, std::__ndk1::char_traits<char>, std::__ndk1::allocator<char> >, int>, std::__ndk1::allocator<std::__ndk1::tuple<std::__ndk1::basic_string<char, std::__ndk1::char_traits<char>, std::__ndk1::allocator<char> >, int> > >::__throw_length_error[abi:ne180000]() const
FUNC 5d940 1ac4 0 std::__ndk1::__introsort<std::__ndk1::_RangeAlgPolicy, DTLayer::CreateRunsInfo(std::__ndk1::map<std::__ndk1::basic_string<char, std::__ndk1::char_traits<char>, std::__ndk1::allocator<char> >, int, std::__ndk1::less<std::__ndk1::basic_string<char, std::__ndk1::char_traits<char>, std::__ndk1::allocator<char> > >, std::__ndk1::allocator<std::__ndk1::pair<std::__ndk1::basic_string<char, std::__ndk1::char_traits<char>, std::__ndk1::allocator<char> > const, int> > >)::$_0::operator()<std::__ndk1::function<void (std::__ndk1::monostate)>, std::__ndk1::function<bool ()> >(std::__ndk1::function<void (std::__ndk1::monostate)>, std::__ndk1::function<bool ()>) const::{lambda(std::__ndk1::tuple<std::__ndk1::basic_string<char, std::__ndk1::char_traits<char>, std::__ndk1::allocator<char> >, int>&, std::__ndk1::tuple<std::__ndk1::basic_string<char, std::__ndk1::char_traits<char>, std::__ndk1::allocator<char> >, int>)#1}, std::__ndk1::tuple<std::__ndk1::basic_string<char, std::__ndk1::char_traits<char>, std::__ndk1::allocator<char> >, int>*, false>(std::__ndk1::tuple<std::__ndk1::basic_string<char, std::__ndk1::char_traits<char>, std::__ndk1::allocator<char> >, int>*, std::__ndk1::tuple<std::__ndk1::basic_string<char, std::__ndk1::char_traits<char>, std::__ndk1::allocator<char> >, int>*, DTLayer::CreateRunsInfo(std::__ndk1::map<std::__ndk1::basic_string<char, std::__ndk1::char_traits<char>, std::__ndk1::allocator<char> >, int, std::__ndk1::less<std::__ndk1::basic_string<char, std::__ndk1::char_traits<char>, std::__ndk1::allocator<char> > >, std::__ndk1::allocator<std::__ndk1::pair<std::__ndk1::basic_string<char, std::__ndk1::char_traits<char>, std::__ndk1::allocator<char> > const, int> > >)::$_0::operator()<std::__ndk1::function<void (std::__ndk1::monostate)>, std::__ndk1::function<bool ()> >(std::__ndk1::function<void (std::__ndk1::monostate)>, std::__ndk1::function<bool ()>) const::{lambda(std::__ndk1::tuple<std::__ndk1::basic_string<char, std::__ndk1::char_traits<char>, std::__ndk1::allocator<char> >, int>&, std::__ndk1::tuple<std::__ndk1::basic_string<char, std::__ndk1::char_traits<char>, std::__ndk1::allocator<char> >, int>)#1}, std::__ndk1::iterator_traits<std::__ndk1::tuple<std::__ndk1::basic_string<char, std::__ndk1::char_traits<char>, std::__ndk1::allocator<char> >, int>*>::difference_type, bool)
FUNC 5f404 3e0 0 _ZNSt6__ndk124__sort5_maybe_branchlessB8ne180000INS_15_RangeAlgPolicyERZZN7DTLayer14CreateRunsInfoENS_3mapINS_12basic_stringIcNS_11char_traitsIcEENS_9allocatorIcEEEEiNS_4lessIS9_EENS7_INS_4pairIKS9_iEEEEEEENK3$_0clINS_8functionIFvNS_9monostateEEEENSJ_IFbvEEEEEN5geode4TaskINSP_6ResultINS_6vectorI11DeathInfo_sNS7_IST_EEEES9_EESK_E6ResultET_T0_EUlNS_5tupleIJS9_iEEES12_E_PS12_TnNS_9enable_ifIXntsr21__use_branchless_sortIS10_T1_EE5valueEiE4typeELi0EEEvS17_S17_S17_S17_S17_S10_
FUNC 5f7e4 48c 0 std::__ndk1::__sort3[abi:ne180000]<std::__ndk1::_RangeAlgPolicy, DTLayer::CreateRunsInfo(std::__ndk1::map<std::__ndk1::basic_string<char, std::__ndk1::char_traits<char>, std::__ndk1::allocator<char> >, int, std::__ndk1::less<std::__ndk1::allocator<char> >, std::__ndk1::char_traits<char><std::__ndk1::pair<std::__ndk1::allocator<char> const, int> > >)::$_0::operator()<std::__ndk1::function<void (std::__ndk1::monostate)>, $_0::operator()<bool ()> >(std::__ndk1::function<void (std::__ndk1::monostate)>, $_0::operator()<bool ()>) const::{lambda(std::__ndk1::tuple<std::__ndk1::allocator<char>, int>&, std::__ndk1::tuple)#1}, std::__ndk1::tuple*>(std::__ndk1::tuple*, std::__ndk1::tuple*, std::__ndk1::tuple*, std::__ndk1::_RangeAlgPolicy)
FUNC 5fc70 3fc 0 std::__ndk1::__insertion_sort_incomplete[abi:ne180000]<std::__ndk1::_RangeAlgPolicy, DTLayer::CreateRunsInfo(std::__ndk1::map<std::__ndk1::basic_string<char, std::__ndk1::char_traits<char>, std::__ndk1::allocator<char> >, int, std::__ndk1::less<std::__ndk1::allocator<char> >, std::__ndk1::char_traits<char><std::__ndk1::pair<std::__ndk1::allocator<char> const, int> > >)::$_0::operator()<std::__ndk1::function<void (std::__ndk1::monostate)>, $_0::operator()<bool ()> >(std::__ndk1::function<void (std::__ndk1::monostate)>, $_0::operator()<bool ()>) const::{lambda(std::__ndk1::tuple<std::__ndk1::allocator<char>, int>&, std::__ndk1::tuple)#1}, std::__ndk1::tuple*>(std::__ndk1::tuple*, std::__ndk1::tuple*, std::__ndk1::_RangeAlgPolicy)
FUNC 6006c 2f4 0 std::__ndk1::__sort4[abi:ne180000]<std::__ndk1::_RangeAlgPolicy, DTLayer::CreateRunsInfo(std::__ndk1::map<std::__ndk1::basic_string<char, std::__ndk1::char_traits<char>, std::__ndk1::allocator<char> >, int, std::__ndk1::less<std::__ndk1::allocator<char> >, std::__ndk1::char_traits<char><std::__ndk1::pair<std::__ndk1::allocator<char> const, int> > >)::$_0::operator()<std::__ndk1::function<void (std::__ndk1::monostate)>, $_0::operator()<bool ()> >(std::__ndk1::function<void (std::__ndk1::monostate)>, $_0::operator()<bool ()>) const::{lambda(std::__ndk1::tuple<std::__ndk1::allocator<char>, int>&, std::__ndk1::tuple)#1}, std::__ndk1::tuple*>(std::__ndk1::tuple*, std::__ndk1::tuple*, std::__ndk1::tuple*, std::__ndk1::tuple*, std::__ndk1::_RangeAlgPolicy)
FUNC 60360 148 0 DTLayer::refreshAll(bool)::$_0::operator()(geode::Result<void, std::__ndk1::basic_string<char, std::__ndk1::char_traits<char>, std::__ndk1::allocator<char> > >*) const
FUNC 604a8 2c 0 _ZNSt6__ndk110__function6__funcIZNK5geode4TaskINS2_6ResultIvNS_12basic_stringIcNS_11char_traitsIcEENS_9allocatorIcEEEEEENS_9monostateEE5chainITkNS_9invocableIPT_EEZN7DTLayer10refreshAllEbE3$_0EEDTclfL0p_clL_ZNS_7declvalB8ne180000IPSB_EEDTclsr3stdE9__declvalISG_ELi0EEEvEEEESG_NS_17basic_string_viewIcS7_EEEUlPNSD_5EventEE_NS8_ISS_EEFvSR_EED2Ev
FUNC 604d4 30 0 _ZNSt6__ndk110__function6__funcIZNK5geode4TaskINS2_6ResultIvNS_12basic_stringIcNS_11char_traitsIcEENS_9allocatorIcEEEEEENS_9monostateEE5chainITkNS_9invocableIPT_EEZN7DTLayer10refreshAllEbE3$_0EEDTclfL0p_clL_ZNS_7declvalB8ne180000IPSB_EEDTclsr3stdE9__declvalISG_ELi0EEEvEEEESG_NS_17basic_string_viewIcS7_EEEUlPNSD_5EventEE_NS8_ISS_EEFvSR_EED0Ev
FUNC 60504 40 0 _ZNKSt6__ndk110__function6__funcIZNK5geode4TaskINS2_6ResultIvNS_12basic_stringIcNS_11char_traitsIcEENS_9allocatorIcEEEEEENS_9monostateEE5chainITkNS_9invocableIPT_EEZN7DTLayer10refreshAllEbE3$_0EEDTclfL0p_clL_ZNS_7declvalB8ne180000IPSB_EEDTclsr3stdE9__declvalISG_ELi0EEEvEEEESG_NS_17basic_string_viewIcS7_EEEUlPNSD_5EventEE_NS8_ISS_EEFvSR_EE7__cloneEv
FUNC 60544 34 0 _ZNKSt6__ndk110__function6__funcIZNK5geode4TaskINS2_6ResultIvNS_12basic_stringIcNS_11char_traitsIcEENS_9allocatorIcEEEEEENS_9monostateEE5chainITkNS_9invocableIPT_EEZN7DTLayer10refreshAllEbE3$_0EEDTclfL0p_clL_ZNS_7declvalB8ne180000IPSB_EEDTclsr3stdE9__declvalISG_ELi0EEEvEEEESG_NS_17basic_string_viewIcS7_EEEUlPNSD_5EventEE_NS8_ISS_EEFvSR_EE7__cloneEPNS0_6__baseISU_EE
FUNC 60578 c 0 _ZNSt6__ndk110__function6__funcIZNK5geode4TaskINS2_6ResultIvNS_12basic_stringIcNS_11char_traitsIcEENS_9allocatorIcEEEEEENS_9monostateEE5chainITkNS_9invocableIPT_EEZN7DTLayer10refreshAllEbE3$_0EEDTclfL0p_clL_ZNS_7declvalB8ne180000IPSB_EEDTclsr3stdE9__declvalISG_ELi0EEEvEEEESG_NS_17basic_string_viewIcS7_EEEUlPNSD_5EventEE_NS8_ISS_EEFvSR_EE7destroyEv
FUNC 60584 20 0 _ZNSt6__ndk110__function6__funcIZNK5geode4TaskINS2_6ResultIvNS_12basic_stringIcNS_11char_traitsIcEENS_9allocatorIcEEEEEENS_9monostateEE5chainITkNS_9invocableIPT_EEZN7DTLayer10refreshAllEbE3$_0EEDTclfL0p_clL_ZNS_7declvalB8ne180000IPSB_EEDTclsr3stdE9__declvalISG_ELi0EEEvEEEESG_NS_17basic_string_viewIcS7_EEEUlPNSD_5EventEE_NS8_ISS_EEFvSR_EE18destroy_deallocateEv
FUNC 605a4 238 0 _ZNSt6__ndk110__function6__funcIZNK5geode4TaskINS2_6ResultIvNS_12basic_stringIcNS_11char_traitsIcEENS_9allocatorIcEEEEEENS_9monostateEE5chainITkNS_9invocableIPT_EEZN7DTLayer10refreshAllEbE3$_0EEDTclfL0p_clL_ZNS_7declvalB8ne180000IPSB_EEDTclsr3stdE9__declvalISG_ELi0EEEvEEEESG_NS_17basic_string_viewIcS7_EEEUlPNSD_5EventEE_NS8_ISS_EEFvSR_EEclEOSR_
FUNC 607dc 18 0 _ZNKSt6__ndk110__function6__funcIZNK5geode4TaskINS2_6ResultIvNS_12basic_stringIcNS_11char_traitsIcEENS_9allocatorIcEEEEEENS_9monostateEE5chainITkNS_9invocableIPT_EEZN7DTLayer10refreshAllEbE3$_0EEDTclfL0p_clL_ZNS_7declvalB8ne180000IPSB_EEDTclsr3stdE9__declvalISG_ELi0EEEvEEEESG_NS_17basic_string_viewIcS7_EEEUlPNSD_5EventEE_NS8_ISS_EEFvSR_EE6targetERKSt9type_info
FUNC 607f4 c 0 _ZNKSt6__ndk110__function6__funcIZNK5geode4TaskINS2_6ResultIvNS_12basic_stringIcNS_11char_traitsIcEENS_9allocatorIcEEEEEENS_9monostateEE5chainITkNS_9invocableIPT_EEZN7DTLayer10refreshAllEbE3$_0EEDTclfL0p_clL_ZNS_7declvalB8ne180000IPSB_EEDTclsr3stdE9__declvalISG_ELi0EEEvEEEESG_NS_17basic_string_viewIcS7_EEEUlPNSD_5EventEE_NS8_ISS_EEFvSR_EE11target_typeEv
FUNC 60800 2c 0 _ZNSt6__ndk110__function6__funcIZZNK5geode4TaskINS2_6ResultIvNS_12basic_stringIcNS_11char_traitsIcEENS_9allocatorIcEEEEEENS_9monostateEE5chainITkNS_9invocableIPT_EEZN7DTLayer10refreshAllEbE3$_0EEDTclfL1p_clL_ZNS_7declvalB8ne180000IPSB_EEDTclsr3stdE9__declvalISG_ELi0EEEvEEEESG_NS_17basic_string_viewIcS7_EEENUlPNSD_5EventEE_clESR_EUlSR_E_NS8_IST_EEFvSR_EED2Ev
FUNC 6082c 30 0 _ZNSt6__ndk110__function6__funcIZZNK5geode4TaskINS2_6ResultIvNS_12basic_stringIcNS_11char_traitsIcEENS_9allocatorIcEEEEEENS_9monostateEE5chainITkNS_9invocableIPT_EEZN7DTLayer10refreshAllEbE3$_0EEDTclfL1p_clL_ZNS_7declvalB8ne180000IPSB_EEDTclsr3stdE9__declvalISG_ELi0EEEvEEEESG_NS_17basic_string_viewIcS7_EEENUlPNSD_5EventEE_clESR_EUlSR_E_NS8_IST_EEFvSR_EED0Ev
FUNC 6085c 38 0 _ZNKSt6__ndk110__function6__funcIZZNK5geode4TaskINS2_6ResultIvNS_12basic_stringIcNS_11char_traitsIcEENS_9allocatorIcEEEEEENS_9monostateEE5chainITkNS_9invocableIPT_EEZN7DTLayer10refreshAllEbE3$_0EEDTclfL1p_clL_ZNS_7declvalB8ne180000IPSB_EEDTclsr3stdE9__declvalISG_ELi0EEEvEEEESG_NS_17basic_string_viewIcS7_EEENUlPNSD_5EventEE_clESR_EUlSR_E_NS8_IST_EEFvSR_EE7__cloneEv
FUNC 60894 30 0 _ZNKSt6__ndk110__function6__funcIZZNK5geode4TaskINS2_6ResultIvNS_12basic_stringIcNS_11char_traitsIcEENS_9allocatorIcEEEEEENS_9monostateEE5chainITkNS_9invocableIPT_EEZN7DTLayer10refreshAllEbE3$_0EEDTclfL1p_clL_ZNS_7declvalB8ne180000IPSB_EEDTclsr3stdE9__declvalISG_ELi0EEEvEEEESG_NS_17basic_string_viewIcS7_EEENUlPNSD_5EventEE_clESR_EUlSR_E_NS8_IST_EEFvSR_EE7__cloneEPNS0_6__baseISV_EE
FUNC 608c4 c 0 _ZNSt6__ndk110__function6__funcIZZNK5geode4TaskINS2_6ResultIvNS_12basic_stringIcNS_11char_traitsIcEENS_9allocatorIcEEEEEENS_9monostateEE5chainITkNS_9invocableIPT_EEZN7DTLayer10refreshAllEbE3$_0EEDTclfL1p_clL_ZNS_7declvalB8ne180000IPSB_EEDTclsr3stdE9__declvalISG_ELi0EEEvEEEESG_NS_17basic_string_viewIcS7_EEENUlPNSD_5EventEE_clESR_EUlSR_E_NS8_IST_EEFvSR_EE7destroyEv
FUNC 608d0 20 0 _ZNSt6__ndk110__function6__funcIZZNK5geode4TaskINS2_6ResultIvNS_12basic_stringIcNS_11char_traitsIcEENS_9allocatorIcEEEEEENS_9monostateEE5chainITkNS_9invocableIPT_EEZN7DTLayer10refreshAllEbE3$_0EEDTclfL1p_clL_ZNS_7declvalB8ne180000IPSB_EEDTclsr3stdE9__declvalISG_ELi0EEEvEEEESG_NS_17basic_string_viewIcS7_EEENUlPNSD_5EventEE_clESR_EUlSR_E_NS8_IST_EEFvSR_EE18destroy_deallocateEv
FUNC 608f0 13c 0 _ZNSt6__ndk110__function6__funcIZZNK5geode4TaskINS2_6ResultIvNS_12basic_stringIcNS_11char_traitsIcEENS_9allocatorIcEEEEEENS_9monostateEE5chainITkNS_9invocableIPT_EEZN7DTLayer10refreshAllEbE3$_0EEDTclfL1p_clL_ZNS_7declvalB8ne180000IPSB_EEDTclsr3stdE9__declvalISG_ELi0EEEvEEEESG_NS_17basic_string_viewIcS7_EEENUlPNSD_5EventEE_clESR_EUlSR_E_NS8_IST_EEFvSR_EEclEOSR_
FUNC 60a2c 18 0 _ZNKSt6__ndk110__function6__funcIZZNK5geode4TaskINS2_6ResultIvNS_12basic_stringIcNS_11char_traitsIcEENS_9allocatorIcEEEEEENS_9monostateEE5chainITkNS_9invocableIPT_EEZN7DTLayer10refreshAllEbE3$_0EEDTclfL1p_clL_ZNS_7declvalB8ne180000IPSB_EEDTclsr3stdE9__declvalISG_ELi0EEEvEEEESG_NS_17basic_string_viewIcS7_EEENUlPNSD_5EventEE_clESR_EUlSR_E_NS8_IST_EEFvSR_EE6targetERKSt9type_info
FUNC 60a44 c 0 _ZNKSt6__ndk110__function6__funcIZZNK5geode4TaskINS2_6ResultIvNS_12basic_stringIcNS_11char_traitsIcEENS_9allocatorIcEEEEEENS_9monostateEE5chainITkNS_9invocableIPT_EEZN7DTLayer10refreshAllEbE3$_0EEDTclfL1p_clL_ZNS_7declvalB8ne180000IPSB_EEDTclsr3stdE9__declvalISG_ELi0EEEvEEEESG_NS_17basic_string_viewIcS7_EEENUlPNSD_5EventEE_clESR_EUlSR_E_NS8_IST_EEFvSR_EE11target_typeEv
FUNC 60a50 c 0 _ZZZNK5geode4TaskINS_6ResultIvNSt6__ndk112basic_stringIcNS2_11char_traitsIcEENS2_9allocatorIcEEEEEENS2_9monostateEE5chainITkNS2_9invocableIPT_EEZN7DTLayer10refreshAllEbE3$_0EEDTclfL1p_clL_ZNS2_7declvalB8ne180000IPS9_EEDTclsr3stdE9__declvalISE_ELi0EEEvEEEESE_NS2_17basic_string_viewIcS5_EEENUlPNSB_5EventEE_clESP_ENUlPvE_8__invokeESR_
FUNC 60a5c 9c 0 _ZZZNK5geode4TaskINS_6ResultIvNSt6__ndk112basic_stringIcNS2_11char_traitsIcEENS2_9allocatorIcEEEEEENS2_9monostateEE5chainITkNS2_9invocableIPT_EEZN7DTLayer10refreshAllEbE3$_0EEDTclfL1p_clL_ZNS2_7declvalB8ne180000IPS9_EEDTclsr3stdE9__declvalISE_ELi0EEEvEEEESE_NS2_17basic_string_viewIcS5_EEENUlPNSB_5EventEE_clESP_ENUlPvE0_8__invokeESR_
FUNC 60af8 c 0 _ZZNK5geode4TaskINS_6ResultIvNSt6__ndk112basic_stringIcNS2_11char_traitsIcEENS2_9allocatorIcEEEEEENS2_9monostateEE5chainITkNS2_9invocableIPT_EEZN7DTLayer10refreshAllEbE3$_0EEDTclfL0p_clL_ZNS2_7declvalB8ne180000IPS9_EEDTclsr3stdE9__declvalISE_ELi0EEEvEEEESE_NS2_17basic_string_viewIcS5_EEENUlPvE_8__invokeESO_
FUNC 60b04 9c 0 _ZZNK5geode4TaskINS_6ResultIvNSt6__ndk112basic_stringIcNS2_11char_traitsIcEENS2_9allocatorIcEEEEEENS2_9monostateEE5chainITkNS2_9invocableIPT_EEZN7DTLayer10refreshAllEbE3$_0EEDTclfL0p_clL_ZNS2_7declvalB8ne180000IPS9_EEDTclsr3stdE9__declvalISE_ELi0EEEvEEEESE_NS2_17basic_string_viewIcS5_EEENUlPvE0_8__invokeESO_
FUNC 60ba0 2 0 std::__ndk1::__function::__base<void (geode::Task<geode::Result<void, std::__ndk1::basic_string<char, std::__ndk1::char_traits<char>, std::__ndk1::allocator<char> > >, std::__ndk1::monostate>::Event*)>::~__base()
FUNC 60ba2 4 0 std::__ndk1::__function::__func<std::__ndk1::__bind<void (DTLayer::*&)(geode::Task<geode::Result<void, std::__ndk1::basic_string<char, std::__ndk1::char_traits<char>, std::__ndk1::allocator<char> > >, std::__ndk1::monostate>::Event*), DTLayer*&, std::__ndk1::placeholders::__ph<1> const&>, std::__ndk1::allocator<std::__ndk1::__bind<void (DTLayer::*&)(geode::Task<geode::Result<void, std::__ndk1::basic_string<char, std::__ndk1::char_traits<char>, std::__ndk1::allocator<char> > >, std::__ndk1::monostate>::Event*), DTLayer*&, std::__ndk1::placeholders::__ph<1> const&> >, void (geode::Task<geode::Result<void, std::__ndk1::basic_string<char, std::__ndk1::char_traits<char>, std::__ndk1::allocator<char> > >, std::__ndk1::monostate>::Event*)>::~__func()
FUNC 60ba8 28 0 std::__ndk1::__function::__func<std::__ndk1::__bind<void (DTLayer::*&)(geode::Task<geode::Result<void, std::__ndk1::basic_string<char, std::__ndk1::char_traits<char>, std::__ndk1::allocator<char> > >, std::__ndk1::monostate>::Event*), DTLayer*&, std::__ndk1::placeholders::__ph<1> const&>, std::__ndk1::allocator<std::__ndk1::__bind<void (DTLayer::*&)(geode::Task<geode::Result<void, std::__ndk1::basic_string<char, std::__ndk1::char_traits<char>, std::__ndk1::allocator<char> > >, std::__ndk1::monostate>::Event*), DTLayer*&, std::__ndk1::placeholders::__ph<1> const&> >, void (geode::Task<geode::Result<void, std::__ndk1::basic_string<char, std::__ndk1::char_traits<char>, std::__ndk1::allocator<char> > >, std::__ndk1::monostate>::Event*)>::__clone() const
FUNC 60bd0 1c 0 std::__ndk1::__function::__func<std::__ndk1::__bind<void (DTLayer::*&)(geode::Task<geode::Result<void, std::__ndk1::basic_string<char, std::__ndk1::char_traits<char>, std::__ndk1::allocator<char> > >, std::__ndk1::monostate>::Event*), DTLayer*&, std::__ndk1::placeholders::__ph<1> const&>, std::__ndk1::allocator<std::__ndk1::__bind<void (DTLayer::*&)(geode::Task<geode::Result<void, std::__ndk1::basic_string<char, std::__ndk1::char_traits<char>, std::__ndk1::allocator<char> > >, std::__ndk1::monostate>::Event*), DTLayer*&, std::__ndk1::placeholders::__ph<1> const&> >, void (geode::Task<geode::Result<void, std::__ndk1::basic_string<char, std::__ndk1::char_traits<char>, std::__ndk1::allocator<char> > >, std::__ndk1::monostate>::Event*)>::__clone(std::__ndk1::__function::__base<void (geode::Task<geode::Result<void, std::__ndk1::basic_string<char, std::__ndk1::char_traits<char>, std::__ndk1::allocator<char> > >, std::__ndk1::monostate>::Event*)>*) const
FUNC 60bec 2 0 std::__ndk1::__function::__func<std::__ndk1::__bind<void (DTLayer::*&)(geode::Task<geode::Result<void, std::__ndk1::basic_string<char, std::__ndk1::char_traits<char>, std::__ndk1::allocator<char> > >, std::__ndk1::monostate>::Event*), DTLayer*&, std::__ndk1::placeholders::__ph<1> const&>, std::__ndk1::allocator<std::__ndk1::__bind<void (DTLayer::*&)(geode::Task<geode::Result<void, std::__ndk1::basic_string<char, std::__ndk1::char_traits<char>, std::__ndk1::allocator<char> > >, std::__ndk1::monostate>::Event*), DTLayer*&, std::__ndk1::placeholders::__ph<1> const&> >, void (geode::Task<geode::Result<void, std::__ndk1::basic_string<char, std::__ndk1::char_traits<char>, std::__ndk1::allocator<char> > >, std::__ndk1::monostate>::Event*)>::destroy()
FUNC 60bee 4 0 std::__ndk1::__function::__func<std::__ndk1::__bind<void (DTLayer::*&)(geode::Task<geode::Result<void, std::__ndk1::basic_string<char, std::__ndk1::char_traits<char>, std::__ndk1::allocator<char> > >, std::__ndk1::monostate>::Event*), DTLayer*&, std::__ndk1::placeholders::__ph<1> const&>, std::__ndk1::allocator<std::__ndk1::__bind<void (DTLayer::*&)(geode::Task<geode::Result<void, std::__ndk1::basic_string<char, std::__ndk1::char_traits<char>, std::__ndk1::allocator<char> > >, std::__ndk1::monostate>::Event*), DTLayer*&, std::__ndk1::placeholders::__ph<1> const&> >, void (geode::Task<geode::Result<void, std::__ndk1::basic_string<char, std::__ndk1::char_traits<char>, std::__ndk1::allocator<char> > >, std::__ndk1::monostate>::Event*)>::destroy_deallocate()
FUNC 60bf2 16 0 std::__ndk1::__function::__func<std::__ndk1::__bind<void (DTLayer::*&)(geode::Task<geode::Result<void, std::__ndk1::basic_string<char, std::__ndk1::char_traits<char>, std::__ndk1::allocator<char> > >, std::__ndk1::monostate>::Event*), DTLayer*&, std::__ndk1::placeholders::__ph<1> const&>, std::__ndk1::allocator<std::__ndk1::__bind<void (DTLayer::*&)(geode::Task<geode::Result<void, std::__ndk1::basic_string<char, std::__ndk1::char_traits<char>, std::__ndk1::allocator<char> > >, std::__ndk1::monostate>::Event*), DTLayer*&, std::__ndk1::placeholders::__ph<1> const&> >, void (geode::Task<geode::Result<void, std::__ndk1::basic_string<char, std::__ndk1::char_traits<char>, std::__ndk1::allocator<char> > >, std::__ndk1::monostate>::Event*)>::operator()(geode::Task<geode::Result<void, std::__ndk1::basic_string<char, std::__ndk1::char_traits<char>, std::__ndk1::allocator<char> > >, std::__ndk1::monostate>::Event*&&)
FUNC 60c08 18 0 std::__ndk1::__function::__func<std::__ndk1::__bind<void (DTLayer::*&)(geode::Task<geode::Result<void, std::__ndk1::basic_string<char, std::__ndk1::char_traits<char>, std::__ndk1::allocator<char> > >, std::__ndk1::monostate>::Event*), DTLayer*&, std::__ndk1::placeholders::__ph<1> const&>, std::__ndk1::allocator<std::__ndk1::__bind<void (DTLayer::*&)(geode::Task<geode::Result<void, std::__ndk1::basic_string<char, std::__ndk1::char_traits<char>, std::__ndk1::allocator<char> > >, std::__ndk1::monostate>::Event*), DTLayer*&, std::__ndk1::placeholders::__ph<1> const&> >, void (geode::Task<geode::Result<void, std::__ndk1::basic_string<char, std::__ndk1::char_traits<char>, std::__ndk1::allocator<char> > >, std::__ndk1::monostate>::Event*)>::target(std::type_info const&) const
FUNC 60c20 c 0 std::__ndk1::__function::__func<std::__ndk1::__bind<void (DTLayer::*&)(geode::Task<geode::Result<void, std::__ndk1::basic_string<char, std::__ndk1::char_traits<char>, std::__ndk1::allocator<char> > >, std::__ndk1::monostate>::Event*), DTLayer*&, std::__ndk1::placeholders::__ph<1> const&>, std::__ndk1::allocator<std::__ndk1::__bind<void (DTLayer::*&)(geode::Task<geode::Result<void, std::__ndk1::basic_string<char, std::__ndk1::char_traits<char>, std::__ndk1::allocator<char> > >, std::__ndk1::monostate>::Event*), DTLayer*&, std::__ndk1::placeholders::__ph<1> const&> >, void (geode::Task<geode::Result<void, std::__ndk1::basic_string<char, std::__ndk1::char_traits<char>, std::__ndk1::allocator<char> > >, std::__ndk1::monostate>::Event*)>::target_type() const
FUNC 60c2c cc 0 std::__ndk1::__function::__value_func<void (geode::Task<geode::Result<void, std::__ndk1::basic_string<char, std::__ndk1::char_traits<char>, std::__ndk1::allocator<char> > >, std::__ndk1::monostate>::Event*)>::swap[abi:ne180000](std::__ndk1::__function::__value_func<void (geode::Task<geode::Result<void, std::__ndk1::basic_string<char, std::__ndk1::char_traits<char>, std::__ndk1::allocator<char> > >, std::__ndk1::monostate>::Event*)>&)
FUNC 60cf8 148 0 DTLayer::refreshSession(bool)::$_0::operator()(geode::Result<void, std::__ndk1::basic_string<char, std::__ndk1::char_traits<char>, std::__ndk1::allocator<char> > >*) const
FUNC 60e40 2c 0 _ZNSt6__ndk110__function6__funcIZNK5geode4TaskINS2_6ResultIvNS_12basic_stringIcNS_11char_traitsIcEENS_9allocatorIcEEEEEENS_9monostateEE5chainITkNS_9invocableIPT_EEZN7DTLayer14refreshSessionEbE3$_0EEDTclfL0p_clL_ZNS_7declvalB8ne180000IPSB_EEDTclsr3stdE9__declvalISG_ELi0EEEvEEEESG_NS_17basic_string_viewIcS7_EEEUlPNSD_5EventEE_NS8_ISS_EEFvSR_EED2Ev
FUNC 60e6c 30 0 _ZNSt6__ndk110__function6__funcIZNK5geode4TaskINS2_6ResultIvNS_12basic_stringIcNS_11char_traitsIcEENS_9allocatorIcEEEEEENS_9monostateEE5chainITkNS_9invocableIPT_EEZN7DTLayer14refreshSessionEbE3$_0EEDTclfL0p_clL_ZNS_7declvalB8ne180000IPSB_EEDTclsr3stdE9__declvalISG_ELi0EEEvEEEESG_NS_17basic_string_viewIcS7_EEEUlPNSD_5EventEE_NS8_ISS_EEFvSR_EED0Ev
FUNC 60e9c 40 0 _ZNKSt6__ndk110__function6__funcIZNK5geode4TaskINS2_6ResultIvNS_12basic_stringIcNS_11char_traitsIcEENS_9allocatorIcEEEEEENS_9monostateEE5chainITkNS_9invocableIPT_EEZN7DTLayer14refreshSessionEbE3$_0EEDTclfL0p_clL_ZNS_7declvalB8ne180000IPSB_EEDTclsr3stdE9__declvalISG_ELi0EEEvEEEESG_NS_17basic_string_viewIcS7_EEEUlPNSD_5EventEE_NS8_ISS_EEFvSR_EE7__cloneEv
FUNC 60edc 34 0 _ZNKSt6__ndk110__function6__funcIZNK5geode4TaskINS2_6ResultIvNS_12basic_stringIcNS_11char_traitsIcEENS_9allocatorIcEEEEEENS_9monostateEE5chainITkNS_9invocableIPT_EEZN7DTLayer14refreshSessionEbE3$_0EEDTclfL0p_clL_ZNS_7declvalB8ne180000IPSB_EEDTclsr3stdE9__declvalISG_ELi0EEEvEEEESG_NS_17basic_string_viewIcS7_EEEUlPNSD_5EventEE_NS8_ISS_EEFvSR_EE7__cloneEPNS0_6__baseISU_EE
FUNC 60f10 c 0 _ZNSt6__ndk110__function6__funcIZNK5geode4TaskINS2_6ResultIvNS_12basic_stringIcNS_11char_traitsIcEENS_9allocatorIcEEEEEENS_9monostateEE5chainITkNS_9invocableIPT_EEZN7DTLayer14refreshSessionEbE3$_0EEDTclfL0p_clL_ZNS_7declvalB8ne180000IPSB_EEDTclsr3stdE9__declvalISG_ELi0EEEvEEEESG_NS_17basic_string_viewIcS7_EEEUlPNSD_5EventEE_NS8_ISS_EEFvSR_EE7destroyEv
FUNC 60f1c 20 0 _ZNSt6__ndk110__function6__funcIZNK5geode4TaskINS2_6ResultIvNS_12basic_stringIcNS_11char_traitsIcEENS_9allocatorIcEEEEEENS_9monostateEE5chainITkNS_9invocableIPT_EEZN7DTLayer14refreshSessionEbE3$_0EEDTclfL0p_clL_ZNS_7declvalB8ne180000IPSB_EEDTclsr3stdE9__declvalISG_ELi0EEEvEEEESG_NS_17basic_string_viewIcS7_EEEUlPNSD_5EventEE_NS8_ISS_EEFvSR_EE18destroy_deallocateEv
FUNC 60f3c 238 0 _ZNSt6__ndk110__function6__funcIZNK5geode4TaskINS2_6ResultIvNS_12basic_stringIcNS_11char_traitsIcEENS_9allocatorIcEEEEEENS_9monostateEE5chainITkNS_9invocableIPT_EEZN7DTLayer14refreshSessionEbE3$_0EEDTclfL0p_clL_ZNS_7declvalB8ne180000IPSB_EEDTclsr3stdE9__declvalISG_ELi0EEEvEEEESG_NS_17basic_string_viewIcS7_EEEUlPNSD_5EventEE_NS8_ISS_EEFvSR_EEclEOSR_
FUNC 61174 18 0 _ZNKSt6__ndk110__function6__funcIZNK5geode4TaskINS2_6ResultIvNS_12basic_stringIcNS_11char_traitsIcEENS_9allocatorIcEEEEEENS_9monostateEE5chainITkNS_9invocableIPT_EEZN7DTLayer14refreshSessionEbE3$_0EEDTclfL0p_clL_ZNS_7declvalB8ne180000IPSB_EEDTclsr3stdE9__declvalISG_ELi0EEEvEEEESG_NS_17basic_string_viewIcS7_EEEUlPNSD_5EventEE_NS8_ISS_EEFvSR_EE6targetERKSt9type_info
FUNC 6118c c 0 _ZNKSt6__ndk110__function6__funcIZNK5geode4TaskINS2_6ResultIvNS_12basic_stringIcNS_11char_traitsIcEENS_9allocatorIcEEEEEENS_9monostateEE5chainITkNS_9invocableIPT_EEZN7DTLayer14refreshSessionEbE3$_0EEDTclfL0p_clL_ZNS_7declvalB8ne180000IPSB_EEDTclsr3stdE9__declvalISG_ELi0EEEvEEEESG_NS_17basic_string_viewIcS7_EEEUlPNSD_5EventEE_NS8_ISS_EEFvSR_EE11target_typeEv
FUNC 61198 2c 0 _ZNSt6__ndk110__function6__funcIZZNK5geode4TaskINS2_6ResultIvNS_12basic_stringIcNS_11char_traitsIcEENS_9allocatorIcEEEEEENS_9monostateEE5chainITkNS_9invocableIPT_EEZN7DTLayer14refreshSessionEbE3$_0EEDTclfL1p_clL_ZNS_7declvalB8ne180000IPSB_EEDTclsr3stdE9__declvalISG_ELi0EEEvEEEESG_NS_17basic_string_viewIcS7_EEENUlPNSD_5EventEE_clESR_EUlSR_E_NS8_IST_EEFvSR_EED2Ev
FUNC 611c4 30 0 _ZNSt6__ndk110__function6__funcIZZNK5geode4TaskINS2_6ResultIvNS_12basic_stringIcNS_11char_traitsIcEENS_9allocatorIcEEEEEENS_9monostateEE5chainITkNS_9invocableIPT_EEZN7DTLayer14refreshSessionEbE3$_0EEDTclfL1p_clL_ZNS_7declvalB8ne180000IPSB_EEDTclsr3stdE9__declvalISG_ELi0EEEvEEEESG_NS_17basic_string_viewIcS7_EEENUlPNSD_5EventEE_clESR_EUlSR_E_NS8_IST_EEFvSR_EED0Ev
FUNC 611f4 38 0 _ZNKSt6__ndk110__function6__funcIZZNK5geode4TaskINS2_6ResultIvNS_12basic_stringIcNS_11char_traitsIcEENS_9allocatorIcEEEEEENS_9monostateEE5chainITkNS_9invocableIPT_EEZN7DTLayer14refreshSessionEbE3$_0EEDTclfL1p_clL_ZNS_7declvalB8ne180000IPSB_EEDTclsr3stdE9__declvalISG_ELi0EEEvEEEESG_NS_17basic_string_viewIcS7_EEENUlPNSD_5EventEE_clESR_EUlSR_E_NS8_IST_EEFvSR_EE7__cloneEv
FUNC 6122c 30 0 _ZNKSt6__ndk110__function6__funcIZZNK5geode4TaskINS2_6ResultIvNS_12basic_stringIcNS_11char_traitsIcEENS_9allocatorIcEEEEEENS_9monostateEE5chainITkNS_9invocableIPT_EEZN7DTLayer14refreshSessionEbE3$_0EEDTclfL1p_clL_ZNS_7declvalB8ne180000IPSB_EEDTclsr3stdE9__declvalISG_ELi0EEEvEEEESG_NS_17basic_string_viewIcS7_EEENUlPNSD_5EventEE_clESR_EUlSR_E_NS8_IST_EEFvSR_EE7__cloneEPNS0_6__baseISV_EE
FUNC 6125c c 0 _ZNSt6__ndk110__function6__funcIZZNK5geode4TaskINS2_6ResultIvNS_12basic_stringIcNS_11char_traitsIcEENS_9allocatorIcEEEEEENS_9monostateEE5chainITkNS_9invocableIPT_EEZN7DTLayer14refreshSessionEbE3$_0EEDTclfL1p_clL_ZNS_7declvalB8ne180000IPSB_EEDTclsr3stdE9__declvalISG_ELi0EEEvEEEESG_NS_17basic_string_viewIcS7_EEENUlPNSD_5EventEE_clESR_EUlSR_E_NS8_IST_EEFvSR_EE7destroyEv
FUNC 61268 20 0 _ZNSt6__ndk110__function6__funcIZZNK5geode4TaskINS2_6ResultIvNS_12basic_stringIcNS_11char_traitsIcEENS_9allocatorIcEEEEEENS_9monostateEE5chainITkNS_9invocableIPT_EEZN7DTLayer14refreshSessionEbE3$_0EEDTclfL1p_clL_ZNS_7declvalB8ne180000IPSB_EEDTclsr3stdE9__declvalISG_ELi0EEEvEEEESG_NS_17basic_string_viewIcS7_EEENUlPNSD_5EventEE_clESR_EUlSR_E_NS8_IST_EEFvSR_EE18destroy_deallocateEv
FUNC 61288 13c 0 _ZNSt6__ndk110__function6__funcIZZNK5geode4TaskINS2_6ResultIvNS_12basic_stringIcNS_11char_traitsIcEENS_9allocatorIcEEEEEENS_9monostateEE5chainITkNS_9invocableIPT_EEZN7DTLayer14refreshSessionEbE3$_0EEDTclfL1p_clL_ZNS_7declvalB8ne180000IPSB_EEDTclsr3stdE9__declvalISG_ELi0EEEvEEEESG_NS_17basic_string_viewIcS7_EEENUlPNSD_5EventEE_clESR_EUlSR_E_NS8_IST_EEFvSR_EEclEOSR_
FUNC 613c4 18 0 _ZNKSt6__ndk110__function6__funcIZZNK5geode4TaskINS2_6ResultIvNS_12basic_stringIcNS_11char_traitsIcEENS_9allocatorIcEEEEEENS_9monostateEE5chainITkNS_9invocableIPT_EEZN7DTLayer14refreshSessionEbE3$_0EEDTclfL1p_clL_ZNS_7declvalB8ne180000IPSB_EEDTclsr3stdE9__declvalISG_ELi0EEEvEEEESG_NS_17basic_string_viewIcS7_EEENUlPNSD_5EventEE_clESR_EUlSR_E_NS8_IST_EEFvSR_EE6targetERKSt9type_info
FUNC 613dc c 0 _ZNKSt6__ndk110__function6__funcIZZNK5geode4TaskINS2_6ResultIvNS_12basic_stringIcNS_11char_traitsIcEENS_9allocatorIcEEEEEENS_9monostateEE5chainITkNS_9invocableIPT_EEZN7DTLayer14refreshSessionEbE3$_0EEDTclfL1p_clL_ZNS_7declvalB8ne180000IPSB_EEDTclsr3stdE9__declvalISG_ELi0EEEvEEEESG_NS_17basic_string_viewIcS7_EEENUlPNSD_5EventEE_clESR_EUlSR_E_NS8_IST_EEFvSR_EE11target_typeEv
FUNC 613e8 c 0 _ZZZNK5geode4TaskINS_6ResultIvNSt6__ndk112basic_stringIcNS2_11char_traitsIcEENS2_9allocatorIcEEEEEENS2_9monostateEE5chainITkNS2_9invocableIPT_EEZN7DTLayer14refreshSessionEbE3$_0EEDTclfL1p_clL_ZNS2_7declvalB8ne180000IPS9_EEDTclsr3stdE9__declvalISE_ELi0EEEvEEEESE_NS2_17basic_string_viewIcS5_EEENUlPNSB_5EventEE_clESP_ENUlPvE_8__invokeESR_
FUNC 613f4 9c 0 _ZZZNK5geode4TaskINS_6ResultIvNSt6__ndk112basic_stringIcNS2_11char_traitsIcEENS2_9allocatorIcEEEEEENS2_9monostateEE5chainITkNS2_9invocableIPT_EEZN7DTLayer14refreshSessionEbE3$_0EEDTclfL1p_clL_ZNS2_7declvalB8ne180000IPS9_EEDTclsr3stdE9__declvalISE_ELi0EEEvEEEESE_NS2_17basic_string_viewIcS5_EEENUlPNSB_5EventEE_clESP_ENUlPvE0_8__invokeESR_
FUNC 61490 c 0 _ZZNK5geode4TaskINS_6ResultIvNSt6__ndk112basic_stringIcNS2_11char_traitsIcEENS2_9allocatorIcEEEEEENS2_9monostateEE5chainITkNS2_9invocableIPT_EEZN7DTLayer14refreshSessionEbE3$_0EEDTclfL0p_clL_ZNS2_7declvalB8ne180000IPS9_EEDTclsr3stdE9__declvalISE_ELi0EEEvEEEESE_NS2_17basic_string_viewIcS5_EEENUlPvE_8__invokeESO_
FUNC 6149c 9c 0 _ZZNK5geode4TaskINS_6ResultIvNSt6__ndk112basic_stringIcNS2_11char_traitsIcEENS2_9allocatorIcEEEEEENS2_9monostateEE5chainITkNS2_9invocableIPT_EEZN7DTLayer14refreshSessionEbE3$_0EEDTclfL0p_clL_ZNS2_7declvalB8ne180000IPS9_EEDTclsr3stdE9__declvalISE_ELi0EEEvEEEESE_NS2_17basic_string_viewIcS5_EEENUlPvE0_8__invokeESO_
FUNC 61540 1a24 0 DTLevelSpecificSettingsLayer::init(cocos2d::CCSize const&, DTLayer* const&)
FUNC 62f64 804 0 DTLevelSpecificSettingsLayer::addRunAllowed(cocos2d::CCObject*)
FUNC 63768 43c 0 DTLevelSpecificSettingsLayer::removeRunAllowed(int const&, cocos2d::CCNode*)
FUNC 63ba4 f4 0 DTLevelSpecificSettingsLayer::onRunsAInfo(cocos2d::CCObject*)
FUNC 63c98 5d8 0 DTLevelSpecificSettingsLayer::OnToggleAllRuns(cocos2d::CCObject*)
FUNC 64270 a4 0 DTLevelSpecificSettingsLayer::deleteUnused(cocos2d::CCObject*)
FUNC 64314 ec 0 DTLevelSpecificSettingsLayer::onSaveManagementInfo(cocos2d::CCObject*)
FUNC 64400 32 0 DTLevelSpecificSettingsLayer::onExportClicked(cocos2d::CCObject*)
FUNC 64434 a4 0 DTLevelSpecificSettingsLayer::onCurrentDeleteClicked(cocos2d::CCObject*)
FUNC 644d8 a4 0 DTLevelSpecificSettingsLayer::onRevertClicked(cocos2d::CCObject*)
FUNC 6457c ec 0 DTLevelSpecificSettingsLayer::onModRunsInfo(cocos2d::CCObject*)
FUNC 64668 1f4 0 DTLevelSpecificSettingsLayer::onAddedFZRun(cocos2d::CCObject*)
FUNC 6485c 7c4 0 DTLevelSpecificSettingsLayer::onRemovedFZRun(cocos2d::CCObject*)
FUNC 65020 138 0 DTLevelSpecificSettingsLayer::addRunStartInputKeyDown()
FUNC 65158 240 0 DTLevelSpecificSettingsLayer::onAddedRun(cocos2d::CCObject*)
FUNC 65398 55c 0 DTLevelSpecificSettingsLayer::onRemovedRun(cocos2d::CCObject*)
FUNC 658f4 228 0 LevelStats_s::LevelStats_s(LevelStats_s const&)
FUNC 65b1c 8c4 0 DTLevelSpecificSettingsLayer::FLAlert_Clicked(FLAlertLayer*, bool)
FUNC 663e0 8 0 {virtual override thunk({offset(-264)}, DTLevelSpecificSettingsLayer::FLAlert_Clicked(FLAlertLayer*, bool))}
FUNC 663e8 178 0 DTLevelSpecificSettingsLayer::EnableTouch(bool)
FUNC 66560 948 0 DTLevelSpecificSettingsLayer::textChanged(CCTextInputNode*)
FUNC 66ea8 8 0 {virtual override thunk({offset(-268)}, DTLevelSpecificSettingsLayer::textChanged(CCTextInputNode*))}
FUNC 66eb0 3c 0 DTLevelSpecificSettingsLayer::~DTLevelSpecificSettingsLayer()
FUNC 66eec 40 0 DTLevelSpecificSettingsLayer::~DTLevelSpecificSettingsLayer()
FUNC 66f2c 10 0 std::__ndk1::vector<cocos2d::CCMenu*, std::__ndk1::allocator<cocos2d::CCMenu*> >::__throw_length_error[abi:ne180000]() const
FUNC 66f3c 64a 0 std::__ndk1::__introsort<std::__ndk1::_RangeAlgPolicy, DTLevelSpecificSettingsLayer::addRunAllowed(cocos2d::CCObject*)::$_0&, int*, false>(int*, int*, DTLevelSpecificSettingsLayer::addRunAllowed(cocos2d::CCObject*)::$_0&, std::__ndk1::iterator_traits<int*>::difference_type, bool)
FUNC 67588 24c 0 std::__ndk1::__insertion_sort_incomplete[abi:ne180000]<std::__ndk1::_RangeAlgPolicy, DTLevelSpecificSettingsLayer::addRunAllowed(cocos2d::CCObject*)::$_0&, int*>(int*, int*, DTLevelSpecificSettingsLayer::addRunAllowed(cocos2d::CCObject*)::$_0&)
FUNC 677d4 64a 0 std::__ndk1::__introsort<std::__ndk1::_RangeAlgPolicy, DTLevelSpecificSettingsLayer::addRunAllowed(cocos2d::CCObject*)::$_1&, int*, false>(int*, int*, DTLevelSpecificSettingsLayer::addRunAllowed(cocos2d::CCObject*)::$_1&, std::__ndk1::iterator_traits<int*>::difference_type, bool)
FUNC 67e20 24c 0 std::__ndk1::__insertion_sort_incomplete[abi:ne180000]<std::__ndk1::_RangeAlgPolicy, DTLevelSpecificSettingsLayer::addRunAllowed(cocos2d::CCObject*)::$_1&, int*>(int*, int*, DTLevelSpecificSettingsLayer::addRunAllowed(cocos2d::CCObject*)::$_1&)
FUNC 6806c c4 0 std::__ndk1::vector<Session, std::__ndk1::allocator<Session> >::__init_with_size[abi:ne180000]<Session*, std::__ndk1::vector<Session, std::__ndk1::allocator<Session> >::__init_with_size[abi:ne180000]>(Session*, std::__ndk1::vector<Session, std::__ndk1::allocator<Session> >::__init_with_size[abi:ne180000], unsigned int)
FUNC 68130 62 0 std::__ndk1::__exception_guard_exceptions<std::__ndk1::vector<Session, std::__ndk1::allocator<Session> >::__destroy_vector>::~__exception_guard_exceptions[abi:ne180000]()
FUNC 68194 d4 0 std::__ndk1::vector<std::__ndk1::basic_string<char, std::__ndk1::char_traits<char>, std::__ndk1::allocator<char> >, std::__ndk1::allocator<std::__ndk1::basic_string<char, std::__ndk1::char_traits<char>, std::__ndk1::allocator<char> > > >::__init_with_size[abi:ne180000]<std::__ndk1::basic_string<char, std::__ndk1::char_traits<char>, std::__ndk1::allocator<char> >*, std::__ndk1::vector<std::__ndk1::basic_string<char, std::__ndk1::char_traits<char>, std::__ndk1::allocator<char> >, std::__ndk1::allocator<std::__ndk1::basic_string<char, std::__ndk1::char_traits<char>, std::__ndk1::allocator<char> > > >::__init_with_size[abi:ne180000]>(std::__ndk1::basic_string<char, std::__ndk1::char_traits<char>, std::__ndk1::allocator<char> >*, std::__ndk1::vector<std::__ndk1::basic_string<char, std::__ndk1::char_traits<char>, std::__ndk1::allocator<char> >, std::__ndk1::allocator<std::__ndk1::basic_string<char, std::__ndk1::char_traits<char>, std::__ndk1::allocator<char> > > >::__init_with_size[abi:ne180000], unsigned int)
FUNC 68268 4e 0 std::__ndk1::__exception_guard_exceptions<std::__ndk1::vector<std::__ndk1::basic_string<char, std::__ndk1::char_traits<char>, std::__ndk1::allocator<char> >, std::__ndk1::allocator<std::__ndk1::basic_string<char, std::__ndk1::char_traits<char>, std::__ndk1::allocator<char> > > >::__destroy_vector>::~__exception_guard_exceptions[abi:ne180000]()
FUNC 682b8 64a 0 std::__ndk1::__introsort<std::__ndk1::_RangeAlgPolicy, DTLevelSpecificSettingsLayer::removeRunAllowed(int const&, cocos2d::CCNode*)::$_0&, int*, false>(int*, int*, DTLevelSpecificSettingsLayer::removeRunAllowed(int const&, cocos2d::CCNode*)::$_0&, std::__ndk1::iterator_traits<int*>::difference_type, bool)
FUNC 68904 24c 0 std::__ndk1::__insertion_sort_incomplete[abi:ne180000]<std::__ndk1::_RangeAlgPolicy, DTLevelSpecificSettingsLayer::removeRunAllowed(int const&, cocos2d::CCNode*)::$_0&, int*>(int*, int*, DTLevelSpecificSettingsLayer::removeRunAllowed(int const&, cocos2d::CCNode*)::$_0&)
FUNC 68b50 e 0 std::__ndk1::__variant_detail::__visitation::__base::__dispatcher<(unsigned int)0>::__dispatch[abi:ne180000]<std::__ndk1::__variant_detail::__dtor<std::__ndk1::__variant_detail::__traits<std::__ndk1::__fs::filesystem::path, std::__ndk1::basic_string<char, std::__ndk1::char_traits<char>, std::__ndk1::allocator<char> > >, (std::__ndk1::__variant_detail::_Trait)1>::__destroy[abi:ne180000]()::{lambda(auto:1&)#1}, std::__ndk1::__variant_detail::__base<(std::__ndk1::__variant_detail::__traits<std::__ndk1::__fs::filesystem::path, std::__ndk1::basic_string<char, std::__ndk1::char_traits<char>, std::__ndk1::allocator<char> > >)1, std::__ndk1::__fs::filesystem, std::__ndk1::allocator<char> >&>(std::__ndk1::__variant_detail::__dtor<std::__ndk1::__variant_detail::__traits<std::__ndk1::__fs::filesystem::path, std::__ndk1::basic_string<char, std::__ndk1::char_traits<char>, std::__ndk1::allocator<char> > >, (std::__ndk1::__variant_detail::_Trait)1>, std::__ndk1::__variant_detail::__base<(std::__ndk1::__variant_detail::__traits<std::__ndk1::__fs::filesystem::path, std::__ndk1::basic_string<char, std::__ndk1::char_traits<char>, std::__ndk1::allocator<char> > >)1, std::__ndk1::__fs::filesystem, std::__ndk1::allocator<char> >&)
FUNC 68b5e e 0 std::__ndk1::__variant_detail::__visitation::__base::__dispatcher<(unsigned int)1>::__dispatch[abi:ne180000]<std::__ndk1::__variant_detail::__dtor<std::__ndk1::__variant_detail::__traits<std::__ndk1::__fs::filesystem::path, std::__ndk1::basic_string<char, std::__ndk1::char_traits<char>, std::__ndk1::allocator<char> > >, (std::__ndk1::__variant_detail::_Trait)1>::__destroy[abi:ne180000]()::{lambda(auto:1&)#1}, std::__ndk1::__variant_detail::__base<(std::__ndk1::__variant_detail::__traits<std::__ndk1::__fs::filesystem::path, std::__ndk1::basic_string<char, std::__ndk1::char_traits<char>, std::__ndk1::allocator<char> > >)1, std::__ndk1::__fs::filesystem, std::__ndk1::allocator<char> >&>(std::__ndk1::__variant_detail::__dtor<std::__ndk1::__variant_detail::__traits<std::__ndk1::__fs::filesystem::path, std::__ndk1::basic_string<char, std::__ndk1::char_traits<char>, std::__ndk1::allocator<char> > >, (std::__ndk1::__variant_detail::_Trait)1>, std::__ndk1::__variant_detail::__base<(std::__ndk1::__variant_detail::__traits<std::__ndk1::__fs::filesystem::path, std::__ndk1::basic_string<char, std::__ndk1::char_traits<char>, std::__ndk1::allocator<char> > >)1, std::__ndk1::__fs::filesystem, std::__ndk1::allocator<char> >&)
FUNC 68b6c 120 0 std::__ndk1::vector<Session, std::__ndk1::allocator<Session> >::__push_back_slow_path<Session const&>(Session const&)
FUNC 68c8c 2 0 std::__ndk1::__function::__base<void (int const&, cocos2d::CCNode*)>::~__base()
FUNC 68c8e 4 0 std::__ndk1::__function::__func<std::__ndk1::__bind<void (DTLevelSpecificSettingsLayer::*)(int const&, cocos2d::CCNode*), DTLevelSpecificSettingsLayer*, std::__ndk1::placeholders::__ph<1> const&, std::__ndk1::placeholders::__ph<2> const&>, std::__ndk1::allocator<std::__ndk1::__bind<void (DTLevelSpecificSettingsLayer::*)(int const&, cocos2d::CCNode*), DTLevelSpecificSettingsLayer*, std::__ndk1::placeholders::__ph<1> const&, std::__ndk1::placeholders::__ph<2> const&> >, void (int const&, cocos2d::CCNode*)>::~__func()
FUNC 68c94 28 0 std::__ndk1::__function::__func<std::__ndk1::__bind<void (DTLevelSpecificSettingsLayer::*)(int const&, cocos2d::CCNode*), DTLevelSpecificSettingsLayer*, std::__ndk1::placeholders::__ph<1> const&, std::__ndk1::placeholders::__ph<2> const&>, std::__ndk1::allocator<std::__ndk1::__bind<void (DTLevelSpecificSettingsLayer::*)(int const&, cocos2d::CCNode*), DTLevelSpecificSettingsLayer*, std::__ndk1::placeholders::__ph<1> const&, std::__ndk1::placeholders::__ph<2> const&> >, void (int const&, cocos2d::CCNode*)>::__clone() const
FUNC 68cbc 1c 0 std::__ndk1::__function::__func<std::__ndk1::__bind<void (DTLevelSpecificSettingsLayer::*)(int const&, cocos2d::CCNode*), DTLevelSpecificSettingsLayer*, std::__ndk1::placeholders::__ph<1> const&, std::__ndk1::placeholders::__ph<2> const&>, std::__ndk1::allocator<std::__ndk1::__bind<void (DTLevelSpecificSettingsLayer::*)(int const&, cocos2d::CCNode*), DTLevelSpecificSettingsLayer*, std::__ndk1::placeholders::__ph<1> const&, std::__ndk1::placeholders::__ph<2> const&> >, void (int const&, cocos2d::CCNode*)>::__clone(std::__ndk1::__function::__base<void (int const&, cocos2d::CCNode*)>*) const
FUNC 68cd8 2 0 std::__ndk1::__function::__func<std::__ndk1::__bind<void (DTLevelSpecificSettingsLayer::*)(int const&, cocos2d::CCNode*), DTLevelSpecificSettingsLayer*, std::__ndk1::placeholders::__ph<1> const&, std::__ndk1::placeholders::__ph<2> const&>, std::__ndk1::allocator<std::__ndk1::__bind<void (DTLevelSpecificSettingsLayer::*)(int const&, cocos2d::CCNode*), DTLevelSpecificSettingsLayer*, std::__ndk1::placeholders::__ph<1> const&, std::__ndk1::placeholders::__ph<2> const&> >, void (int const&, cocos2d::CCNode*)>::destroy()
FUNC 68cda 4 0 std::__ndk1::__function::__func<std::__ndk1::__bind<void (DTLevelSpecificSettingsLayer::*)(int const&, cocos2d::CCNode*), DTLevelSpecificSettingsLayer*, std::__ndk1::placeholders::__ph<1> const&, std::__ndk1::placeholders::__ph<2> const&>, std::__ndk1::allocator<std::__ndk1::__bind<void (DTLevelSpecificSettingsLayer::*)(int const&, cocos2d::CCNode*), DTLevelSpecificSettingsLayer*, std::__ndk1::placeholders::__ph<1> const&, std::__ndk1::placeholders::__ph<2> const&> >, void (int const&, cocos2d::CCNode*)>::destroy_deallocate()
FUNC 68cde 18 0 std::__ndk1::__function::__func<std::__ndk1::__bind<void (DTLevelSpecificSettingsLayer::*)(int const&, cocos2d::CCNode*), DTLevelSpecificSettingsLayer*, std::__ndk1::placeholders::__ph<1> const&, std::__ndk1::placeholders::__ph<2> const&>, std::__ndk1::allocator<std::__ndk1::__bind<void (DTLevelSpecificSettingsLayer::*)(int const&, cocos2d::CCNode*), DTLevelSpecificSettingsLayer*, std::__ndk1::placeholders::__ph<1> const&, std::__ndk1::placeholders::__ph<2> const&> >, void (int const&, cocos2d::CCNode*)>::operator()(int const&, cocos2d::CCNode*&&)
FUNC 68cf8 18 0 std::__ndk1::__function::__func<std::__ndk1::__bind<void (DTLevelSpecificSettingsLayer::*)(int const&, cocos2d::CCNode*), DTLevelSpecificSettingsLayer*, std::__ndk1::placeholders::__ph<1> const&, std::__ndk1::placeholders::__ph<2> const&>, std::__ndk1::allocator<std::__ndk1::__bind<void (DTLevelSpecificSettingsLayer::*)(int const&, cocos2d::CCNode*), DTLevelSpecificSettingsLayer*, std::__ndk1::placeholders::__ph<1> const&, std::__ndk1::placeholders::__ph<2> const&> >, void (int const&, cocos2d::CCNode*)>::target(std::type_info const&) const
FUNC 68d10 c 0 std::__ndk1::__function::__func<std::__ndk1::__bind<void (DTLevelSpecificSettingsLayer::*)(int const&, cocos2d::CCNode*), DTLevelSpecificSettingsLayer*, std::__ndk1::placeholders::__ph<1> const&, std::__ndk1::placeholders::__ph<2> const&>, std::__ndk1::allocator<std::__ndk1::__bind<void (DTLevelSpecificSettingsLayer::*)(int const&, cocos2d::CCNode*), DTLevelSpecificSettingsLayer*, std::__ndk1::placeholders::__ph<1> const&, std::__ndk1::placeholders::__ph<2> const&> >, void (int const&, cocos2d::CCNode*)>::target_type() const
FUNC 68d1c c0 0 std::__ndk1::__tree<std::__ndk1::__value_type<std::__ndk1::basic_string<char, std::__ndk1::char_traits<char>, std::__ndk1::allocator<char> >, int>, std::__ndk1::__map_value_compare<std::__ndk1::basic_string<char, std::__ndk1::char_traits<char>, std::__ndk1::allocator<char> >, std::__ndk1::__value_type<std::__ndk1::basic_string<char, std::__ndk1::char_traits<char>, std::__ndk1::allocator<char> >, int>, std::__ndk1::less<std::__ndk1::basic_string<char, std::__ndk1::char_traits<char>, std::__ndk1::allocator<char> > >, true>, std::__ndk1::allocator<std::__ndk1::__value_type<std::__ndk1::basic_string<char, std::__ndk1::char_traits<char>, std::__ndk1::allocator<char> >, int> > >::find<std::__ndk1::basic_string<char, std::__ndk1::char_traits<char>, std::__ndk1::allocator<char> > >(std::__ndk1::basic_string<char, std::__ndk1::char_traits<char>, std::__ndk1::allocator<char> > const&) const
FUNC 68ddc 11e 0 std::__ndk1::__tree<std::__ndk1::__value_type<std::__ndk1::basic_string<char, std::__ndk1::char_traits<char>, std::__ndk1::allocator<char> >, int>, std::__ndk1::__map_value_compare<std::__ndk1::basic_string<char, std::__ndk1::char_traits<char>, std::__ndk1::allocator<char> >, std::__ndk1::__value_type<std::__ndk1::basic_string<char, std::__ndk1::char_traits<char>, std::__ndk1::allocator<char> >, int>, std::__ndk1::less<std::__ndk1::basic_string<char, std::__ndk1::char_traits<char>, std::__ndk1::allocator<char> > >, true>, std::__ndk1::allocator<std::__ndk1::__value_type<std::__ndk1::basic_string<char, std::__ndk1::char_traits<char>, std::__ndk1::allocator<char> >, int> > >::__erase_unique<std::__ndk1::basic_string<char, std::__ndk1::char_traits<char>, std::__ndk1::allocator<char> > >(std::__ndk1::basic_string<char, std::__ndk1::char_traits<char>, std::__ndk1::allocator<char> > const&)
FUNC 68f00 160 0 DTLinkLayer::create(DTLayer* const&)
FUNC 69060 378 0 DTLinkLayer::setup(DTLayer* const&)
FUNC 693d8 a4 0 DTLinkLayer::onOverallInfo(cocos2d::CCObject*)
FUNC 6947c e 0 DTLinkLayer::levelsListMoveRight(cocos2d::CCObject*)
FUNC 6948a e 0 DTLinkLayer::levelsListMoveLeft(cocos2d::CCObject*)
FUNC 69498 a7c 0 DTLinkLayer::refreshLists()
FUNC 69f14 330 0 DTLinkLayer::SpacialEditList(GJListLayer* const&, cocos2d::CCPoint const&, float const&)
FUNC 6a244 500 0 DTLinkLayer::ChangeLevelLinked(std::__ndk1::basic_string<char, std::__ndk1::char_traits<char>, std::__ndk1::allocator<char> >, LevelStats_s, bool const&)
FUNC 6a744 4c 0 std::__ndk1::vector<std::__ndk1::pair<std::__ndk1::basic_string<char, std::__ndk1::char_traits<char>, std::__ndk1::allocator<char> >, LevelStats_s>, std::__ndk1::allocator<std::__ndk1::pair<std::__ndk1::basic_string<char, std::__ndk1::char_traits<char>, std::__ndk1::allocator<char> >, LevelStats_s> > >::~vector[abi:ne180000]()
FUNC 6a790 1e8 0 DTLinkLayer::update(float)
FUNC 6a978 108 0 DTLinkLayer::textChanged(CCTextInputNode*)
FUNC 6aa80 8 0 {virtual override thunk({offset(-520)}, DTLinkLayer::textChanged(CCTextInputNode*))}
FUNC 6aa88 46 0 DTLinkLayer::onClose(cocos2d::CCObject*)
FUNC 6aad0 f8 0 DTLinkLayer::~DTLinkLayer()
FUNC 6abc8 10 0 DTLinkLayer::~DTLinkLayer()
FUNC 6abd8 8 0 {virtual override thunk({offset(-264)}, DTLinkLayer::~DTLinkLayer())}
FUNC 6abe0 14 0 {virtual override thunk({offset(-264)}, DTLinkLayer::~DTLinkLayer())}
FUNC 6abf4 a8 0 std::__ndk1::__uninitialized_allocator_copy_impl[abi:ne180000]<std::__ndk1::allocator<std::__ndk1::pair<std::__ndk1::basic_string<char, std::__ndk1::char_traits<char>, std::__ndk1::__uninitialized_allocator_copy_impl[abi:ne180000]<char> >, LevelStats_s> >, LevelStats_s*, std::__ndk1::allocator<std::__ndk1::pair<std::__ndk1::basic_string<char, std::__ndk1::char_traits<char>, std::__ndk1::__uninitialized_allocator_copy_impl[abi:ne180000]<char> >, LevelStats_s> >, std::__ndk1::allocator<std::__ndk1::pair<std::__ndk1::basic_string<char, std::__ndk1::char_traits<char>, std::__ndk1::__uninitialized_allocator_copy_impl[abi:ne180000]<char> >, LevelStats_s> > >(std::__ndk1::allocator<std::__ndk1::pair<std::__ndk1::basic_string<char, std::__ndk1::char_traits<char>, std::__ndk1::__uninitialized_allocator_copy_impl[abi:ne180000]<char> >, LevelStats_s> >&, LevelStats_s*, std::__ndk1::allocator<std::__ndk1::pair<std::__ndk1::basic_string<char, std::__ndk1::char_traits<char>, std::__ndk1::__uninitialized_allocator_copy_impl[abi:ne180000]<char> >, LevelStats_s> >, LevelStats_s*)
FUNC 6ac9c 42 0 std::__ndk1::__exception_guard_exceptions<std::__ndk1::_AllocatorDestroyRangeReverse<std::__ndk1::allocator<std::__ndk1::pair<std::__ndk1::basic_string<char, std::__ndk1::char_traits<char>, std::__ndk1::allocator<char> >, LevelStats_s> >, std::__ndk1::pair<std::__ndk1::basic_string<char, std::__ndk1::char_traits<char>, std::__ndk1::allocator<char> >, LevelStats_s>*> >::~__exception_guard_exceptions[abi:ne180000]()
FUNC 6ace0 10 0 std::__ndk1::vector<std::__ndk1::pair<std::__ndk1::basic_string<char, std::__ndk1::char_traits<char>, std::__ndk1::allocator<char> >, LevelStats_s>, std::__ndk1::allocator<std::__ndk1::pair<std::__ndk1::basic_string<char, std::__ndk1::char_traits<char>, std::__ndk1::allocator<char> >, LevelStats_s> > >::__throw_length_error[abi:ne180000]() const
FUNC 6acf0 48 0 std::__ndk1::__split_buffer<std::__ndk1::pair<std::__ndk1::basic_string<char, std::__ndk1::char_traits<char>, std::__ndk1::allocator<char> >, LevelStats_s>, std::__ndk1::allocator<std::__ndk1::pair<std::__ndk1::basic_string<char, std::__ndk1::char_traits<char>, std::__ndk1::allocator<char> >, LevelStats_s> >&>::~__split_buffer()
FUNC 6ad38 10a 0 LevelStats_s::LevelStats_s(LevelStats_s&&)
FUNC 6ae42 60 0 std::__ndk1::__exception_guard_exceptions<std::__ndk1::vector<std::__ndk1::pair<std::__ndk1::basic_string<char, std::__ndk1::char_traits<char>, std::__ndk1::allocator<char> >, LevelStats_s>, std::__ndk1::allocator<std::__ndk1::pair<std::__ndk1::basic_string<char, std::__ndk1::char_traits<char>, std::__ndk1::allocator<char> >, LevelStats_s> > >::__destroy_vector>::~__exception_guard_exceptions[abi:ne180000]()
FUNC 6aea4 2e0 0 std::__ndk1::__thread_proxy[abi:ne180000]<std::__ndk1::tuple<std::__ndk1::unique_ptr<std::__ndk1::__thread_struct, std::__ndk1::default_delete<std::__ndk1::unique_ptr> >, DTLinkLayer::setup(DTLayer* const&)::$_0> >(std::__ndk1::tuple<std::__ndk1::unique_ptr<std::__ndk1::__thread_struct, std::__ndk1::default_delete<std::__ndk1::unique_ptr> >, DTLinkLayer::setup(DTLayer* const&)::$_0>)
FUNC 6b184 26 0 std::__ndk1::unique_ptr<std::__ndk1::tuple<std::__ndk1::unique_ptr<std::__ndk1::__thread_struct, std::__ndk1::default_delete<std::__ndk1::__thread_struct> >, DTLinkLayer::setup(DTLayer* const&)::$_0>, std::__ndk1::default_delete<std::__ndk1::tuple<std::__ndk1::unique_ptr<std::__ndk1::__thread_struct, std::__ndk1::default_delete<std::__ndk1::__thread_struct> >, DTLinkLayer::setup(DTLayer* const&)::$_0> > >::~unique_ptr[abi:ne180000]()
FUNC 6b1ac a8 0 std::__ndk1::vector<std::__ndk1::pair<std::__ndk1::basic_string<char, std::__ndk1::char_traits<char>, std::__ndk1::allocator<char> >, LevelStats_s>, std::__ndk1::allocator<std::__ndk1::pair<std::__ndk1::basic_string<char, std::__ndk1::char_traits<char>, std::__ndk1::allocator<char> >, LevelStats_s> > >::vector(std::__ndk1::vector<std::__ndk1::pair<std::__ndk1::basic_string<char, std::__ndk1::char_traits<char>, std::__ndk1::allocator<char> >, LevelStats_s>, std::__ndk1::allocator<std::__ndk1::pair<std::__ndk1::basic_string<char, std::__ndk1::char_traits<char>, std::__ndk1::allocator<char> >, LevelStats_s> > > const&)
FUNC 6b254 4c 0 DTLinkLayer::setup(DTLayer* const&)::$_0::operator()() const::{lambda()#1}::~{lambda()#1}()
FUNC 6b2a0 60 0 geode::impl::ResultData<std::__ndk1::vector<std::__ndk1::pair<std::__ndk1::basic_string<char, std::__ndk1::char_traits<char>, std::__ndk1::allocator<char> >, LevelStats_s>, std::__ndk1::allocator<std::__ndk1::pair<std::__ndk1::basic_string<char, std::__ndk1::char_traits<char>, std::__ndk1::allocator<char> >, LevelStats_s> > >, std::__ndk1::basic_string<char, std::__ndk1::char_traits<char>, std::__ndk1::allocator<char> > >::~ResultData()
FUNC 6b300 60 0 std::__ndk1::__function::__func<DTLinkLayer::setup(DTLayer* const&)::$_0::operator()() const::{lambda()#1}, std::__ndk1::allocator<DTLinkLayer::setup(DTLayer* const&)::$_0::operator()() const::{lambda()#1}>, void ()>::~__func()
FUNC 6b360 64 0 std::__ndk1::__function::__func<DTLinkLayer::setup(DTLayer* const&)::$_0::operator()() const::{lambda()#1}, std::__ndk1::allocator<DTLinkLayer::setup(DTLayer* const&)::$_0::operator()() const::{lambda()#1}>, void ()>::~__func()
FUNC 6b3c4 38 0 std::__ndk1::__function::__func<DTLinkLayer::setup(DTLayer* const&)::$_0::operator()() const::{lambda()#1}, std::__ndk1::allocator<DTLinkLayer::setup(DTLayer* const&)::$_0::operator()() const::{lambda()#1}>, void ()>::__clone() const
FUNC 6b3fc 24 0 std::__ndk1::__function::__func<DTLinkLayer::setup(DTLayer* const&)::$_0::operator()() const::{lambda()#1}, std::__ndk1::allocator<DTLinkLayer::setup(DTLayer* const&)::$_0::operator()() const::{lambda()#1}>, void ()>::__clone(std::__ndk1::__function::__base<void ()>*) const
FUNC 6b420 50 0 std::__ndk1::__function::__func<DTLinkLayer::setup(DTLayer* const&)::$_0::operator()() const::{lambda()#1}, std::__ndk1::allocator<DTLinkLayer::setup(DTLayer* const&)::$_0::operator()() const::{lambda()#1}>, void ()>::destroy()
FUNC 6b470 52 0 std::__ndk1::__function::__func<DTLinkLayer::setup(DTLayer* const&)::$_0::operator()() const::{lambda()#1}, std::__ndk1::allocator<DTLinkLayer::setup(DTLayer* const&)::$_0::operator()() const::{lambda()#1}>, void ()>::destroy_deallocate()
FUNC 6b4c2 290 0 std::__ndk1::__function::__func<DTLinkLayer::setup(DTLayer* const&)::$_0::operator()() const::{lambda()#1}, std::__ndk1::allocator<DTLinkLayer::setup(DTLayer* const&)::$_0::operator()() const::{lambda()#1}>, void ()>::operator()()
FUNC 6b754 18 0 std::__ndk1::__function::__func<DTLinkLayer::setup(DTLayer* const&)::$_0::operator()() const::{lambda()#1}, std::__ndk1::allocator<DTLinkLayer::setup(DTLayer* const&)::$_0::operator()() const::{lambda()#1}>, void ()>::target(std::type_info const&) const
FUNC 6b76c c 0 std::__ndk1::__function::__func<DTLinkLayer::setup(DTLayer* const&)::$_0::operator()() const::{lambda()#1}, std::__ndk1::allocator<DTLinkLayer::setup(DTLayer* const&)::$_0::operator()() const::{lambda()#1}>, void ()>::target_type() const
FUNC 6b778 50 0 std::__ndk1::__variant_detail::__visitation::__base::__dispatcher<(unsigned int)0>::__dispatch[abi:ne180000]<std::__ndk1::__variant_detail::__dtor<std::__ndk1::__variant_detail::__traits<std::__ndk1::vector<std::__ndk1::pair<std::__ndk1::basic_string<char, std::__ndk1::char_traits<char>, std::__ndk1::allocator<char> >, LevelStats_s>, std::__ndk1::char_traits<char><LevelStats_s> >, std::__ndk1::allocator<char> >, (std::__ndk1::__variant_detail::_Trait)1>::__destroy[abi:ne180000]()::{lambda(auto:1&)#1}, std::__ndk1::__variant_detail::__base<(std::__ndk1::__variant_detail::__traits<std::__ndk1::vector<std::__ndk1::pair<std::__ndk1::basic_string<char, std::__ndk1::char_traits<char>, std::__ndk1::allocator<char> >, LevelStats_s>, std::__ndk1::char_traits<char><LevelStats_s> >, std::__ndk1::allocator<char> >)1, std::__ndk1::char_traits<char><LevelStats_s>, std::__ndk1::allocator<char> >&>(std::__ndk1::__variant_detail::__dtor<std::__ndk1::__variant_detail::__traits<std::__ndk1::vector<std::__ndk1::pair<std::__ndk1::basic_string<char, std::__ndk1::char_traits<char>, std::__ndk1::allocator<char> >, LevelStats_s>, std::__ndk1::char_traits<char><LevelStats_s> >, std::__ndk1::allocator<char> >, (std::__ndk1::__variant_detail::_Trait)1>, std::__ndk1::__variant_detail::__base<(std::__ndk1::__variant_detail::__traits<std::__ndk1::vector<std::__ndk1::pair<std::__ndk1::basic_string<char, std::__ndk1::char_traits<char>, std::__ndk1::allocator<char> >, LevelStats_s>, std::__ndk1::char_traits<char><LevelStats_s> >, std::__ndk1::allocator<char> >)1, std::__ndk1::char_traits<char><LevelStats_s>, std::__ndk1::allocator<char> >&)
FUNC 6b7c8 e 0 std::__ndk1::__variant_detail::__visitation::__base::__dispatcher<(unsigned int)1>::__dispatch[abi:ne180000]<std::__ndk1::__variant_detail::__dtor<std::__ndk1::__variant_detail::__traits<std::__ndk1::vector<std::__ndk1::pair<std::__ndk1::basic_string<char, std::__ndk1::char_traits<char>, std::__ndk1::allocator<char> >, LevelStats_s>, std::__ndk1::char_traits<char><LevelStats_s> >, std::__ndk1::allocator<char> >, (std::__ndk1::__variant_detail::_Trait)1>::__destroy[abi:ne180000]()::{lambda(auto:1&)#1}, std::__ndk1::__variant_detail::__base<(std::__ndk1::__variant_detail::__traits<std::__ndk1::vector<std::__ndk1::pair<std::__ndk1::basic_string<char, std::__ndk1::char_traits<char>, std::__ndk1::allocator<char> >, LevelStats_s>, std::__ndk1::char_traits<char><LevelStats_s> >, std::__ndk1::allocator<char> >)1, std::__ndk1::char_traits<char><LevelStats_s>, std::__ndk1::allocator<char> >&>(std::__ndk1::__variant_detail::__dtor<std::__ndk1::__variant_detail::__traits<std::__ndk1::vector<std::__ndk1::pair<std::__ndk1::basic_string<char, std::__ndk1::char_traits<char>, std::__ndk1::allocator<char> >, LevelStats_s>, std::__ndk1::char_traits<char><LevelStats_s> >, std::__ndk1::allocator<char> >, (std::__ndk1::__variant_detail::_Trait)1>, std::__ndk1::__variant_detail::__base<(std::__ndk1::__variant_detail::__traits<std::__ndk1::vector<std::__ndk1::pair<std::__ndk1::basic_string<char, std::__ndk1::char_traits<char>, std::__ndk1::allocator<char> >, LevelStats_s>, std::__ndk1::char_traits<char><LevelStats_s> >, std::__ndk1::allocator<char> >)1, std::__ndk1::char_traits<char><LevelStats_s>, std::__ndk1::allocator<char> >&)
FUNC 6b7d6 2 0 std::__ndk1::__function::__base<void (std::__ndk1::basic_string<char, std::__ndk1::char_traits<char>, std::__ndk1::allocator<char> >, LevelStats_s, bool const&)>::~__base()
FUNC 6b7d8 4 0 std::__ndk1::__function::__func<std::__ndk1::__bind<void (DTLinkLayer::*)(std::__ndk1::basic_string<char, std::__ndk1::char_traits<char>, std::__ndk1::allocator<char> >, LevelStats_s, bool const&), DTLinkLayer*, std::__ndk1::placeholders::__ph<1> const&, std::__ndk1::placeholders::__ph<2> const&, std::__ndk1::placeholders::__ph<3> const&>, std::__ndk1::allocator<std::__ndk1::__bind<void (DTLinkLayer::*)(std::__ndk1::basic_string<char, std::__ndk1::char_traits<char>, std::__ndk1::allocator<char> >, LevelStats_s, bool const&), DTLinkLayer*, std::__ndk1::placeholders::__ph<1> const&, std::__ndk1::placeholders::__ph<2> const&, std::__ndk1::placeholders::__ph<3> const&> >, void (std::__ndk1::basic_string<char, std::__ndk1::char_traits<char>, std::__ndk1::allocator<char> >, LevelStats_s, bool const&)>::~__func()
FUNC 6b7dc 28 0 std::__ndk1::__function::__func<std::__ndk1::__bind<void (DTLinkLayer::*)(std::__ndk1::basic_string<char, std::__ndk1::char_traits<char>, std::__ndk1::allocator<char> >, LevelStats_s, bool const&), DTLinkLayer*, std::__ndk1::placeholders::__ph<1> const&, std::__ndk1::placeholders::__ph<2> const&, std::__ndk1::placeholders::__ph<3> const&>, std::__ndk1::allocator<std::__ndk1::__bind<void (DTLinkLayer::*)(std::__ndk1::basic_string<char, std::__ndk1::char_traits<char>, std::__ndk1::allocator<char> >, LevelStats_s, bool const&), DTLinkLayer*, std::__ndk1::placeholders::__ph<1> const&, std::__ndk1::placeholders::__ph<2> const&, std::__ndk1::placeholders::__ph<3> const&> >, void (std::__ndk1::basic_string<char, std::__ndk1::char_traits<char>, std::__ndk1::allocator<char> >, LevelStats_s, bool const&)>::__clone() const
FUNC 6b804 1c 0 std::__ndk1::__function::__func<std::__ndk1::__bind<void (DTLinkLayer::*)(std::__ndk1::basic_string<char, std::__ndk1::char_traits<char>, std::__ndk1::allocator<char> >, LevelStats_s, bool const&), DTLinkLayer*, std::__ndk1::placeholders::__ph<1> const&, std::__ndk1::placeholders::__ph<2> const&, std::__ndk1::placeholders::__ph<3> const&>, std::__ndk1::allocator<std::__ndk1::__bind<void (DTLinkLayer::*)(std::__ndk1::basic_string<char, std::__ndk1::char_traits<char>, std::__ndk1::allocator<char> >, LevelStats_s, bool const&), DTLinkLayer*, std::__ndk1::placeholders::__ph<1> const&, std::__ndk1::placeholders::__ph<2> const&, std::__ndk1::placeholders::__ph<3> const&> >, void (std::__ndk1::basic_string<char, std::__ndk1::char_traits<char>, std::__ndk1::allocator<char> >, LevelStats_s, bool const&)>::__clone(std::__ndk1::__function::__base<void (std::__ndk1::basic_string<char, std::__ndk1::char_traits<char>, std::__ndk1::allocator<char> >, LevelStats_s, bool const&)>*) const
FUNC 6b820 2 0 std::__ndk1::__function::__func<std::__ndk1::__bind<void (DTLinkLayer::*)(std::__ndk1::basic_string<char, std::__ndk1::char_traits<char>, std::__ndk1::allocator<char> >, LevelStats_s, bool const&), DTLinkLayer*, std::__ndk1::placeholders::__ph<1> const&, std::__ndk1::placeholders::__ph<2> const&, std::__ndk1::placeholders::__ph<3> const&>, std::__ndk1::allocator<std::__ndk1::__bind<void (DTLinkLayer::*)(std::__ndk1::basic_string<char, std::__ndk1::char_traits<char>, std::__ndk1::allocator<char> >, LevelStats_s, bool const&), DTLinkLayer*, std::__ndk1::placeholders::__ph<1> const&, std::__ndk1::placeholders::__ph<2> const&, std::__ndk1::placeholders::__ph<3> const&> >, void (std::__ndk1::basic_string<char, std::__ndk1::char_traits<char>, std::__ndk1::allocator<char> >, LevelStats_s, bool const&)>::destroy()
FUNC 6b822 4 0 std::__ndk1::__function::__func<std::__ndk1::__bind<void (DTLinkLayer::*)(std::__ndk1::basic_string<char, std::__ndk1::char_traits<char>, std::__ndk1::allocator<char> >, LevelStats_s, bool const&), DTLinkLayer*, std::__ndk1::placeholders::__ph<1> const&, std::__ndk1::placeholders::__ph<2> const&, std::__ndk1::placeholders::__ph<3> const&>, std::__ndk1::allocator<std::__ndk1::__bind<void (DTLinkLayer::*)(std::__ndk1::basic_string<char, std::__ndk1::char_traits<char>, std::__ndk1::allocator<char> >, LevelStats_s, bool const&), DTLinkLayer*, std::__ndk1::placeholders::__ph<1> const&, std::__ndk1::placeholders::__ph<2> const&, std::__ndk1::placeholders::__ph<3> const&> >, void (std::__ndk1::basic_string<char, std::__ndk1::char_traits<char>, std::__ndk1::allocator<char> >, LevelStats_s, bool const&)>::destroy_deallocate()
FUNC 6b828 168 0 std::__ndk1::__function::__func<std::__ndk1::__bind<void (DTLinkLayer::*)(std::__ndk1::basic_string<char, std::__ndk1::char_traits<char>, std::__ndk1::allocator<char> >, LevelStats_s, bool const&), DTLinkLayer*, std::__ndk1::placeholders::__ph<1> const&, std::__ndk1::placeholders::__ph<2> const&, std::__ndk1::placeholders::__ph<3> const&>, std::__ndk1::allocator<std::__ndk1::__bind<void (DTLinkLayer::*)(std::__ndk1::basic_string<char, std::__ndk1::char_traits<char>, std::__ndk1::allocator<char> >, LevelStats_s, bool const&), DTLinkLayer*, std::__ndk1::placeholders::__ph<1> const&, std::__ndk1::placeholders::__ph<2> const&, std::__ndk1::placeholders::__ph<3> const&> >, void (std::__ndk1::basic_string<char, std::__ndk1::char_traits<char>, std::__ndk1::allocator<char> >, LevelStats_s, bool const&)>::operator()(std::__ndk1::basic_string<char, std::__ndk1::char_traits<char>, std::__ndk1::allocator<char> >&&, LevelStats_s&&, bool const&)
FUNC 6b990 18 0 std::__ndk1::__function::__func<std::__ndk1::__bind<void (DTLinkLayer::*)(std::__ndk1::basic_string<char, std::__ndk1::char_traits<char>, std::__ndk1::allocator<char> >, LevelStats_s, bool const&), DTLinkLayer*, std::__ndk1::placeholders::__ph<1> const&, std::__ndk1::placeholders::__ph<2> const&, std::__ndk1::placeholders::__ph<3> const&>, std::__ndk1::allocator<std::__ndk1::__bind<void (DTLinkLayer::*)(std::__ndk1::basic_string<char, std::__ndk1::char_traits<char>, std::__ndk1::allocator<char> >, LevelStats_s, bool const&), DTLinkLayer*, std::__ndk1::placeholders::__ph<1> const&, std::__ndk1::placeholders::__ph<2> const&, std::__ndk1::placeholders::__ph<3> const&> >, void (std::__ndk1::basic_string<char, std::__ndk1::char_traits<char>, std::__ndk1::allocator<char> >, LevelStats_s, bool const&)>::target(std::type_info const&) const
FUNC 6b9a8 c 0 std::__ndk1::__function::__func<std::__ndk1::__bind<void (DTLinkLayer::*)(std::__ndk1::basic_string<char, std::__ndk1::char_traits<char>, std::__ndk1::allocator<char> >, LevelStats_s, bool const&), DTLinkLayer*, std::__ndk1::placeholders::__ph<1> const&, std::__ndk1::placeholders::__ph<2> const&, std::__ndk1::placeholders::__ph<3> const&>, std::__ndk1::allocator<std::__ndk1::__bind<void (DTLinkLayer::*)(std::__ndk1::basic_string<char, std::__ndk1::char_traits<char>, std::__ndk1::allocator<char> >, LevelStats_s, bool const&), DTLinkLayer*, std::__ndk1::placeholders::__ph<1> const&, std::__ndk1::placeholders::__ph<2> const&, std::__ndk1::placeholders::__ph<3> const&> >, void (std::__ndk1::basic_string<char, std::__ndk1::char_traits<char>, std::__ndk1::allocator<char> >, LevelStats_s, bool const&)>::target_type() const
FUNC 6b9b4 124 0 GraphPoint::init(std::__ndk1::basic_string<char, std::__ndk1::char_traits<char>, std::__ndk1::allocator<char> > const&, float const&, cocos2d::_ccColor3B const&)
FUNC 6bad8 58 0 GraphPoint::update(float)
FUNC 6bb30 3c 0 GraphPoint::~GraphPoint()
FUNC 6bb6c 38 0 GraphPoint::~GraphPoint()
FUNC 6bba4 2 0 cocos2d::CCNodeRGBA::setOpacityModifyRGB(bool)
FUNC 6bba6 4 0 cocos2d::CCNodeRGBA::isOpacityModifyRGB()
FUNC 6bbaa 2 0 {virtual override thunk({offset(-264)}, cocos2d::CCNodeRGBA::setOpacityModifyRGB(bool))}
FUNC 6bbac 4 0 {virtual override thunk({offset(-264)}, cocos2d::CCNodeRGBA::isOpacityModifyRGB())}
FUNC 6bbb0 178 0 LabelFontCell::init(int const&, std::__ndk1::basic_string<char, std::__ndk1::char_traits<char>, std::__ndk1::allocator<char> > const&, std::__ndk1::basic_string<char, std::__ndk1::char_traits<char>, std::__ndk1::allocator<char> > const&, std::__ndk1::function<void (int const&)> const&)
FUNC 6bd28 16 0 LabelFontCell::Use(cocos2d::CCObject*)
FUNC 6bd40 3c 0 LabelFontCell::~LabelFontCell()
FUNC 6bd7c 40 0 LabelFontCell::~LabelFontCell()
FUNC 6bdbc 1dc 0 LabelLayoutWindow::init(LabelLayout const&, DTLayer* const&)
FUNC 6bf98 a6 0 LabelLayout::operator=(LabelLayout const&)
FUNC 6c040 3ec 0 LabelLayoutWindow::myUpdate(float)
FUNC 6c42c bc 0 LabelLayoutWindow::mousePosToNode(cocos2d::CCNode* const&)
FUNC 6c4e8 110 0 LabelLayoutWindow::isMouseTouching(cocos2d::CCNode* const&)
FUNC 6c5f8 4e 0 LabelLayoutWindow::updateLine(int const&)
FUNC 6c648 2f4 0 LabelLayoutWindow::setPositionBasedOnLayout(LabelLayout const&, int)
FUNC 6c93c 5c 0 LabelLayoutWindow::~LabelLayoutWindow()
FUNC 6c998 60 0 LabelLayoutWindow::~LabelLayoutWindow()
FUNC 6ca00 140 0 LabelSettingsLayer::create(LabelLayoutWindow* const&, DTLayer* const&)
FUNC 6cb40 1ac4 0 LabelSettingsLayer::setup(LabelLayoutWindow* const&, DTLayer* const&)
FUNC 6e604 a4 0 LabelSettingsLayer::ConfirmDeletLabel(cocos2d::CCObject*)
FUNC 6e6a8 11c 0 LabelSettingsLayer::OnInfo(cocos2d::CCObject*)
FUNC 6e7c4 bc 0 LabelSettingsLayer::updatePreviewText()
FUNC 6e880 b8 0 LabelSettingsLayer::updatePreviewTextPosition()
FUNC 6e938 17c 0 LabelSettingsLayer::updateInputFields(std::__ndk1::basic_string<char, std::__ndk1::char_traits<char>, std::__ndk1::allocator<char> > const&)
FUNC 6eab4 154 0 LabelSettingsLayer::onAlign(cocos2d::CCObject*)
FUNC 6ec08 e8 0 LabelSettingsLayer::OnFontSizeSliderChanged(cocos2d::CCObject*)
FUNC 6ecf0 36 0 LabelSettingsLayer::OnColorClicked(cocos2d::CCObject*)
FUNC 6ed26 22 0 std::__ndk1::pair<std::__ndk1::basic_string<char, std::__ndk1::char_traits<char>, std::__ndk1::allocator<char> > const, std::__ndk1::basic_string<char, std::__ndk1::char_traits<char>, std::__ndk1::allocator<char> > >::~pair()
FUNC 6ed48 15c 0 LabelSettingsLayer::useSTK(std::__ndk1::basic_string<char, std::__ndk1::char_traits<char>, std::__ndk1::allocator<char> > const&)
FUNC 6eea4 1cc 0 LabelSettingsLayer::setFont(int const&)
FUNC 6f070 2a8 0 LabelSettingsLayer::removeTextBestColoring()
FUNC 6f318 6c 0 LabelSettingsLayer::OnTransitionEnded(cocos2d::CCObject*)
FUNC 6f384 94 0 LabelSettingsLayer::onClose(cocos2d::CCObject*)
FUNC 6f418 184 0 LabelSettingsLayer::playClosingAnimation(cocos2d::CCPoint const&)
FUNC 6f59c e4 0 geode::Popup<LabelLayoutWindow* const&, DTLayer* const&>::onClose(cocos2d::CCObject*)
FUNC 6f680 b4 0 LabelSettingsLayer::updateColor(cocos2d::_ccColor4B const&)
FUNC 6f734 a8 0 {virtual override thunk({offset(-520)}, LabelSettingsLayer::updateColor(cocos2d::_ccColor4B const&))}
FUNC 6f7dc e 0 LabelSettingsLayer::update(float)
FUNC 6f7ea 14 0 LabelSettingsLayer::FLAlert_Clicked(FLAlertLayer*, bool)
FUNC 6f800 158 0 LabelSettingsLayer::deleteLabel()
FUNC 6f958 16 0 {virtual override thunk({offset(-524)}, LabelSettingsLayer::FLAlert_Clicked(FLAlertLayer*, bool))}
FUNC 6f970 5c 0 geode::Popup<LabelLayoutWindow* const&, DTLayer* const&>::~Popup()
FUNC 6f9cc 60 0 LabelSettingsLayer::~LabelSettingsLayer()
FUNC 6fa2c 20 0 geode::Popup<LabelLayoutWindow* const&, DTLayer* const&>::registerWithTouchDispatcher()
FUNC 6fa4c 18 0 geode::Popup<LabelLayoutWindow* const&, DTLayer* const&>::keyDown(cocos2d::enumKeyCodes)
FUNC 6fa64 60 0 {virtual override thunk({offset(-264)}, LabelSettingsLayer::~LabelSettingsLayer())}
FUNC 6fac4 64 0 {virtual override thunk({offset(-264)}, LabelSettingsLayer::~LabelSettingsLayer())}
FUNC 6fb28 1c 0 {virtual override thunk({offset(-276)}, geode::Popup<LabelLayoutWindow* const&, DTLayer* const&>::keyDown(cocos2d::enumKeyCodes))}
FUNC 6fb44 2 0 geode::Popup<LabelLayoutWindow* const&, DTLayer* const&>::~Popup()
FUNC 6fb48 60 0 {virtual override thunk({offset(-264)}, geode::Popup<LabelLayoutWindow* const&, DTLayer* const&>::~Popup())}
FUNC 6fba8 2 0 {virtual override thunk({offset(-264)}, geode::Popup<LabelLayoutWindow* const&, DTLayer* const&>::~Popup())}
FUNC 6fbaa 10 0 cocos2d::CCBool::~CCBool()
FUNC 6fbba c 0 cocos2d::CCBool::acceptVisitor(cocos2d::CCDataVisitor&)
FUNC 6fbc6 2 0 cocos2d::CCObject::update(float)
FUNC 6fbc8 24c 0 geode::Popup<LabelLayoutWindow* const&, DTLayer* const&>::initBase(float, float, LabelLayoutWindow* const&, DTLayer* const&, char const*, cocos2d::CCRect, bool)
FUNC 6fe14 4 0 std::__ndk1::__function::__func<LabelSettingsLayer::setup(LabelLayoutWindow* const&, DTLayer* const&)::$_0, std::__ndk1::allocator<LabelSettingsLayer::setup(LabelLayoutWindow* const&, DTLayer* const&)::$_0>, void (std::__ndk1::basic_string<char, std::__ndk1::char_traits<char>, std::__ndk1::allocator<char> > const&)>::~__func()
FUNC 6fe18 20 0 std::__ndk1::__function::__func<LabelSettingsLayer::setup(LabelLayoutWindow* const&, DTLayer* const&)::$_0, std::__ndk1::allocator<LabelSettingsLayer::setup(LabelLayoutWindow* const&, DTLayer* const&)::$_0>, void (std::__ndk1::basic_string<char, std::__ndk1::char_traits<char>, std::__ndk1::allocator<char> > const&)>::__clone() const
FUNC 6fe38 14 0 std::__ndk1::__function::__func<LabelSettingsLayer::setup(LabelLayoutWindow* const&, DTLayer* const&)::$_0, std::__ndk1::allocator<LabelSettingsLayer::setup(LabelLayoutWindow* const&, DTLayer* const&)::$_0>, void (std::__ndk1::basic_string<char, std::__ndk1::char_traits<char>, std::__ndk1::allocator<char> > const&)>::__clone(std::__ndk1::__function::__base<void (std::__ndk1::basic_string<char, std::__ndk1::char_traits<char>, std::__ndk1::allocator<char> > const&)>*) const
FUNC 6fe4c 2 0 std::__ndk1::__function::__func<LabelSettingsLayer::setup(LabelLayoutWindow* const&, DTLayer* const&)::$_0, std::__ndk1::allocator<LabelSettingsLayer::setup(LabelLayoutWindow* const&, DTLayer* const&)::$_0>, void (std::__ndk1::basic_string<char, std::__ndk1::char_traits<char>, std::__ndk1::allocator<char> > const&)>::destroy()
FUNC 6fe4e 4 0 std::__ndk1::__function::__func<LabelSettingsLayer::setup(LabelLayoutWindow* const&, DTLayer* const&)::$_0, std::__ndk1::allocator<LabelSettingsLayer::setup(LabelLayoutWindow* const&, DTLayer* const&)::$_0>, void (std::__ndk1::basic_string<char, std::__ndk1::char_traits<char>, std::__ndk1::allocator<char> > const&)>::destroy_deallocate()
FUNC 6fe52 56 0 std::__ndk1::__function::__func<LabelSettingsLayer::setup(LabelLayoutWindow* const&, DTLayer* const&)::$_0, std::__ndk1::allocator<LabelSettingsLayer::setup(LabelLayoutWindow* const&, DTLayer* const&)::$_0>, void (std::__ndk1::basic_string<char, std::__ndk1::char_traits<char>, std::__ndk1::allocator<char> > const&)>::operator()(std::__ndk1::basic_string<char, std::__ndk1::char_traits<char>, std::__ndk1::allocator<char> > const&)
FUNC 6fea8 18 0 std::__ndk1::__function::__func<LabelSettingsLayer::setup(LabelLayoutWindow* const&, DTLayer* const&)::$_0, std::__ndk1::allocator<LabelSettingsLayer::setup(LabelLayoutWindow* const&, DTLayer* const&)::$_0>, void (std::__ndk1::basic_string<char, std::__ndk1::char_traits<char>, std::__ndk1::allocator<char> > const&)>::target(std::type_info const&) const
FUNC 6fec0 c 0 std::__ndk1::__function::__func<LabelSettingsLayer::setup(LabelLayoutWindow* const&, DTLayer* const&)::$_0, std::__ndk1::allocator<LabelSettingsLayer::setup(LabelLayoutWindow* const&, DTLayer* const&)::$_0>, void (std::__ndk1::basic_string<char, std::__ndk1::char_traits<char>, std::__ndk1::allocator<char> > const&)>::target_type() const
FUNC 6fecc 4 0 std::__ndk1::__function::__func<LabelSettingsLayer::setup(LabelLayoutWindow* const&, DTLayer* const&)::$_1, std::__ndk1::allocator<LabelSettingsLayer::setup(LabelLayoutWindow* const&, DTLayer* const&)::$_1>, void (std::__ndk1::basic_string<char, std::__ndk1::char_traits<char>, std::__ndk1::allocator<char> > const&)>::~__func()
FUNC 6fed0 20 0 std::__ndk1::__function::__func<LabelSettingsLayer::setup(LabelLayoutWindow* const&, DTLayer* const&)::$_1, std::__ndk1::allocator<LabelSettingsLayer::setup(LabelLayoutWindow* const&, DTLayer* const&)::$_1>, void (std::__ndk1::basic_string<char, std::__ndk1::char_traits<char>, std::__ndk1::allocator<char> > const&)>::__clone() const
FUNC 6fef0 14 0 std::__ndk1::__function::__func<LabelSettingsLayer::setup(LabelLayoutWindow* const&, DTLayer* const&)::$_1, std::__ndk1::allocator<LabelSettingsLayer::setup(LabelLayoutWindow* const&, DTLayer* const&)::$_1>, void (std::__ndk1::basic_string<char, std::__ndk1::char_traits<char>, std::__ndk1::allocator<char> > const&)>::__clone(std::__ndk1::__function::__base<void (std::__ndk1::basic_string<char, std::__ndk1::char_traits<char>, std::__ndk1::allocator<char> > const&)>*) const
FUNC 6ff04 2 0 std::__ndk1::__function::__func<LabelSettingsLayer::setup(LabelLayoutWindow* const&, DTLayer* const&)::$_1, std::__ndk1::allocator<LabelSettingsLayer::setup(LabelLayoutWindow* const&, DTLayer* const&)::$_1>, void (std::__ndk1::basic_string<char, std::__ndk1::char_traits<char>, std::__ndk1::allocator<char> > const&)>::destroy()
FUNC 6ff06 4 0 std::__ndk1::__function::__func<LabelSettingsLayer::setup(LabelLayoutWindow* const&, DTLayer* const&)::$_1, std::__ndk1::allocator<LabelSettingsLayer::setup(LabelLayoutWindow* const&, DTLayer* const&)::$_1>, void (std::__ndk1::basic_string<char, std::__ndk1::char_traits<char>, std::__ndk1::allocator<char> > const&)>::destroy_deallocate()
FUNC 6ff0c 1f8 0 std::__ndk1::__function::__func<LabelSettingsLayer::setup(LabelLayoutWindow* const&, DTLayer* const&)::$_1, std::__ndk1::allocator<LabelSettingsLayer::setup(LabelLayoutWindow* const&, DTLayer* const&)::$_1>, void (std::__ndk1::basic_string<char, std::__ndk1::char_traits<char>, std::__ndk1::allocator<char> > const&)>::operator()(std::__ndk1::basic_string<char, std::__ndk1::char_traits<char>, std::__ndk1::allocator<char> > const&)
FUNC 70104 18 0 std::__ndk1::__function::__func<LabelSettingsLayer::setup(LabelLayoutWindow* const&, DTLayer* const&)::$_1, std::__ndk1::allocator<LabelSettingsLayer::setup(LabelLayoutWindow* const&, DTLayer* const&)::$_1>, void (std::__ndk1::basic_string<char, std::__ndk1::char_traits<char>, std::__ndk1::allocator<char> > const&)>::target(std::type_info const&) const
FUNC 7011c c 0 std::__ndk1::__function::__func<LabelSettingsLayer::setup(LabelLayoutWindow* const&, DTLayer* const&)::$_1, std::__ndk1::allocator<LabelSettingsLayer::setup(LabelLayoutWindow* const&, DTLayer* const&)::$_1>, void (std::__ndk1::basic_string<char, std::__ndk1::char_traits<char>, std::__ndk1::allocator<char> > const&)>::target_type() const
FUNC 70128 34 0 std::__ndk1::unique_ptr<std::__ndk1::__tree_node<std::__ndk1::__value_type<std::__ndk1::basic_string<char, std::__ndk1::char_traits<char>, std::__ndk1::allocator<char> >, std::__ndk1::basic_string<char, std::__ndk1::char_traits<char>, std::__ndk1::allocator<char> > >, void*>, std::__ndk1::__tree_node_destructor<std::__ndk1::allocator<std::__ndk1::__tree_node<std::__ndk1::__value_type<std::__ndk1::basic_string<char, std::__ndk1::char_traits<char>, std::__ndk1::allocator<char> >, std::__ndk1::basic_string<char, std::__ndk1::char_traits<char>, std::__ndk1::allocator<char> > >, void*> > > >::~unique_ptr[abi:ne180000]()
FUNC 7015c 3a 0 std::__ndk1::__tree<std::__ndk1::__value_type<std::__ndk1::basic_string<char, std::__ndk1::char_traits<char>, std::__ndk1::allocator<char> >, std::__ndk1::basic_string<char, std::__ndk1::char_traits<char>, std::__ndk1::allocator<char> > >, std::__ndk1::__map_value_compare<std::__ndk1::basic_string<char, std::__ndk1::char_traits<char>, std::__ndk1::allocator<char> >, std::__ndk1::__value_type<std::__ndk1::basic_string<char, std::__ndk1::char_traits<char>, std::__ndk1::allocator<char> >, std::__ndk1::basic_string<char, std::__ndk1::char_traits<char>, std::__ndk1::allocator<char> > >, std::__ndk1::less<std::__ndk1::basic_string<char, std::__ndk1::char_traits<char>, std::__ndk1::allocator<char> > >, true>, std::__ndk1::allocator<std::__ndk1::__value_type<std::__ndk1::basic_string<char, std::__ndk1::char_traits<char>, std::__ndk1::allocator<char> >, std::__ndk1::basic_string<char, std::__ndk1::char_traits<char>, std::__ndk1::allocator<char> > > > >::destroy(std::__ndk1::__tree_node<std::__ndk1::__value_type<std::__ndk1::basic_string<char, std::__ndk1::char_traits<char>, std::__ndk1::allocator<char> >, std::__ndk1::basic_string<char, std::__ndk1::char_traits<char>, std::__ndk1::allocator<char> > >, void*>*)
FUNC 70196 4 0 std::__ndk1::__function::__func<std::__ndk1::__bind<void (LabelSettingsLayer::*)(std::__ndk1::basic_string<char, std::__ndk1::char_traits<char>, std::__ndk1::allocator<char> > const&), LabelSettingsLayer*, std::__ndk1::placeholders::__ph<1> const&>, std::__ndk1::allocator<std::__ndk1::__bind<void (LabelSettingsLayer::*)(std::__ndk1::basic_string<char, std::__ndk1::char_traits<char>, std::__ndk1::allocator<char> > const&), LabelSettingsLayer*, std::__ndk1::placeholders::__ph<1> const&> >, void (std::__ndk1::basic_string<char, std::__ndk1::char_traits<char>, std::__ndk1::allocator<char> > const&)>::~__func()
FUNC 7019c 28 0 std::__ndk1::__function::__func<std::__ndk1::__bind<void (LabelSettingsLayer::*)(std::__ndk1::basic_string<char, std::__ndk1::char_traits<char>, std::__ndk1::allocator<char> > const&), LabelSettingsLayer*, std::__ndk1::placeholders::__ph<1> const&>, std::__ndk1::allocator<std::__ndk1::__bind<void (LabelSettingsLayer::*)(std::__ndk1::basic_string<char, std::__ndk1::char_traits<char>, std::__ndk1::allocator<char> > const&), LabelSettingsLayer*, std::__ndk1::placeholders::__ph<1> const&> >, void (std::__ndk1::basic_string<char, std::__ndk1::char_traits<char>, std::__ndk1::allocator<char> > const&)>::__clone() const
FUNC 701c4 1c 0 std::__ndk1::__function::__func<std::__ndk1::__bind<void (LabelSettingsLayer::*)(std::__ndk1::basic_string<char, std::__ndk1::char_traits<char>, std::__ndk1::allocator<char> > const&), LabelSettingsLayer*, std::__ndk1::placeholders::__ph<1> const&>, std::__ndk1::allocator<std::__ndk1::__bind<void (LabelSettingsLayer::*)(std::__ndk1::basic_string<char, std::__ndk1::char_traits<char>, std::__ndk1::allocator<char> > const&), LabelSettingsLayer*, std::__ndk1::placeholders::__ph<1> const&> >, void (std::__ndk1::basic_string<char, std::__ndk1::char_traits<char>, std::__ndk1::allocator<char> > const&)>::__clone(std::__ndk1::__function::__base<void (std::__ndk1::basic_string<char, std::__ndk1::char_traits<char>, std::__ndk1::allocator<char> > const&)>*) const
FUNC 701e0 2 0 std::__ndk1::__function::__func<std::__ndk1::__bind<void (LabelSettingsLayer::*)(std::__ndk1::basic_string<char, std::__ndk1::char_traits<char>, std::__ndk1::allocator<char> > const&), LabelSettingsLayer*, std::__ndk1::placeholders::__ph<1> const&>, std::__ndk1::allocator<std::__ndk1::__bind<void (LabelSettingsLayer::*)(std::__ndk1::basic_string<char, std::__ndk1::char_traits<char>, std::__ndk1::allocator<char> > const&), LabelSettingsLayer*, std::__ndk1::placeholders::__ph<1> const&> >, void (std::__ndk1::basic_string<char, std::__ndk1::char_traits<char>, std::__ndk1::allocator<char> > const&)>::destroy()
FUNC 701e2 4 0 std::__ndk1::__function::__func<std::__ndk1::__bind<void (LabelSettingsLayer::*)(std::__ndk1::basic_string<char, std::__ndk1::char_traits<char>, std::__ndk1::allocator<char> > const&), LabelSettingsLayer*, std::__ndk1::placeholders::__ph<1> const&>, std::__ndk1::allocator<std::__ndk1::__bind<void (LabelSettingsLayer::*)(std::__ndk1::basic_string<char, std::__ndk1::char_traits<char>, std::__ndk1::allocator<char> > const&), LabelSettingsLayer*, std::__ndk1::placeholders::__ph<1> const&> >, void (std::__ndk1::basic_string<char, std::__ndk1::char_traits<char>, std::__ndk1::allocator<char> > const&)>::destroy_deallocate()
FUNC 701e6 14 0 std::__ndk1::__function::__func<std::__ndk1::__bind<void (LabelSettingsLayer::*)(std::__ndk1::basic_string<char, std::__ndk1::char_traits<char>, std::__ndk1::allocator<char> > const&), LabelSettingsLayer*, std::__ndk1::placeholders::__ph<1> const&>, std::__ndk1::allocator<std::__ndk1::__bind<void (LabelSettingsLayer::*)(std::__ndk1::basic_string<char, std::__ndk1::char_traits<char>, std::__ndk1::allocator<char> > const&), LabelSettingsLayer*, std::__ndk1::placeholders::__ph<1> const&> >, void (std::__ndk1::basic_string<char, std::__ndk1::char_traits<char>, std::__ndk1::allocator<char> > const&)>::operator()(std::__ndk1::basic_string<char, std::__ndk1::char_traits<char>, std::__ndk1::allocator<char> > const&)
FUNC 701fc 18 0 std::__ndk1::__function::__func<std::__ndk1::__bind<void (LabelSettingsLayer::*)(std::__ndk1::basic_string<char, std::__ndk1::char_traits<char>, std::__ndk1::allocator<char> > const&), LabelSettingsLayer*, std::__ndk1::placeholders::__ph<1> const&>, std::__ndk1::allocator<std::__ndk1::__bind<void (LabelSettingsLayer::*)(std::__ndk1::basic_string<char, std::__ndk1::char_traits<char>, std::__ndk1::allocator<char> > const&), LabelSettingsLayer*, std::__ndk1::placeholders::__ph<1> const&> >, void (std::__ndk1::basic_string<char, std::__ndk1::char_traits<char>, std::__ndk1::allocator<char> > const&)>::target(std::type_info const&) const
FUNC 70214 c 0 std::__ndk1::__function::__func<std::__ndk1::__bind<void (LabelSettingsLayer::*)(std::__ndk1::basic_string<char, std::__ndk1::char_traits<char>, std::__ndk1::allocator<char> > const&), LabelSettingsLayer*, std::__ndk1::placeholders::__ph<1> const&>, std::__ndk1::allocator<std::__ndk1::__bind<void (LabelSettingsLayer::*)(std::__ndk1::basic_string<char, std::__ndk1::char_traits<char>, std::__ndk1::allocator<char> > const&), LabelSettingsLayer*, std::__ndk1::placeholders::__ph<1> const&> >, void (std::__ndk1::basic_string<char, std::__ndk1::char_traits<char>, std::__ndk1::allocator<char> > const&)>::target_type() const
FUNC 70220 4 0 std::__ndk1::__function::__func<std::__ndk1::__bind<void (LabelSettingsLayer::*)(int const&), LabelSettingsLayer*, std::__ndk1::placeholders::__ph<1> const&>, std::__ndk1::allocator<std::__ndk1::__bind<void (LabelSettingsLayer::*)(int const&), LabelSettingsLayer*, std::__ndk1::placeholders::__ph<1> const&> >, void (int const&)>::~__func()
FUNC 70224 28 0 std::__ndk1::__function::__func<std::__ndk1::__bind<void (LabelSettingsLayer::*)(int const&), LabelSettingsLayer*, std::__ndk1::placeholders::__ph<1> const&>, std::__ndk1::allocator<std::__ndk1::__bind<void (LabelSettingsLayer::*)(int const&), LabelSettingsLayer*, std::__ndk1::placeholders::__ph<1> const&> >, void (int const&)>::__clone() const
FUNC 7024c 1c 0 std::__ndk1::__function::__func<std::__ndk1::__bind<void (LabelSettingsLayer::*)(int const&), LabelSettingsLayer*, std::__ndk1::placeholders::__ph<1> const&>, std::__ndk1::allocator<std::__ndk1::__bind<void (LabelSettingsLayer::*)(int const&), LabelSettingsLayer*, std::__ndk1::placeholders::__ph<1> const&> >, void (int const&)>::__clone(std::__ndk1::__function::__base<void (int const&)>*) const
FUNC 70268 2 0 std::__ndk1::__function::__func<std::__ndk1::__bind<void (LabelSettingsLayer::*)(int const&), LabelSettingsLayer*, std::__ndk1::placeholders::__ph<1> const&>, std::__ndk1::allocator<std::__ndk1::__bind<void (LabelSettingsLayer::*)(int const&), LabelSettingsLayer*, std::__ndk1::placeholders::__ph<1> const&> >, void (int const&)>::destroy()
FUNC 7026a 4 0 std::__ndk1::__function::__func<std::__ndk1::__bind<void (LabelSettingsLayer::*)(int const&), LabelSettingsLayer*, std::__ndk1::placeholders::__ph<1> const&>, std::__ndk1::allocator<std::__ndk1::__bind<void (LabelSettingsLayer::*)(int const&), LabelSettingsLayer*, std::__ndk1::placeholders::__ph<1> const&> >, void (int const&)>::destroy_deallocate()
FUNC 7026e 14 0 std::__ndk1::__function::__func<std::__ndk1::__bind<void (LabelSettingsLayer::*)(int const&), LabelSettingsLayer*, std::__ndk1::placeholders::__ph<1> const&>, std::__ndk1::allocator<std::__ndk1::__bind<void (LabelSettingsLayer::*)(int const&), LabelSettingsLayer*, std::__ndk1::placeholders::__ph<1> const&> >, void (int const&)>::operator()(int const&)
FUNC 70284 18 0 std::__ndk1::__function::__func<std::__ndk1::__bind<void (LabelSettingsLayer::*)(int const&), LabelSettingsLayer*, std::__ndk1::placeholders::__ph<1> const&>, std::__ndk1::allocator<std::__ndk1::__bind<void (LabelSettingsLayer::*)(int const&), LabelSettingsLayer*, std::__ndk1::placeholders::__ph<1> const&> >, void (int const&)>::target(std::type_info const&) const
FUNC 7029c c 0 std::__ndk1::__function::__func<std::__ndk1::__bind<void (LabelSettingsLayer::*)(int const&), LabelSettingsLayer*, std::__ndk1::placeholders::__ph<1> const&>, std::__ndk1::allocator<std::__ndk1::__bind<void (LabelSettingsLayer::*)(int const&), LabelSettingsLayer*, std::__ndk1::placeholders::__ph<1> const&> >, void (int const&)>::target_type() const
FUNC 702a8 44 0 geode::Popup<LabelLayoutWindow* const&, DTLayer* const&>::CloseEvent::~CloseEvent()
FUNC 702ec 40 0 geode::Popup<LabelLayoutWindow* const&, DTLayer* const&>::CloseEvent::~CloseEvent()
FUNC 7032c 10 0 std::__ndk1::__shared_ptr_emplace<geode::Popup<LabelLayoutWindow* const&, DTLayer* const&>::CloseEvent::Impl, std::__ndk1::allocator<geode::Popup<LabelLayoutWindow* const&, DTLayer* const&>::CloseEvent::Impl> >::~__shared_ptr_emplace()
FUNC 7033c 1c 0 std::__ndk1::__shared_ptr_emplace<geode::Popup<LabelLayoutWindow* const&, DTLayer* const&>::CloseEvent::Impl, std::__ndk1::allocator<geode::Popup<LabelLayoutWindow* const&, DTLayer* const&>::CloseEvent::Impl> >::~__shared_ptr_emplace()
FUNC 70358 2 0 std::__ndk1::__shared_ptr_emplace<geode::Popup<LabelLayoutWindow* const&, DTLayer* const&>::CloseEvent::Impl, std::__ndk1::allocator<geode::Popup<LabelLayoutWindow* const&, DTLayer* const&>::CloseEvent::Impl> >::__on_zero_shared()
FUNC 7035a 4 0 std::__ndk1::__shared_ptr_emplace<geode::Popup<LabelLayoutWindow* const&, DTLayer* const&>::CloseEvent::Impl, std::__ndk1::allocator<geode::Popup<LabelLayoutWindow* const&, DTLayer* const&>::CloseEvent::Impl> >::__on_zero_shared_weak()
FUNC 7035e 2 0 std::__ndk1::__function::__base<void (std::__ndk1::basic_string<char, std::__ndk1::char_traits<char>, std::__ndk1::allocator<char> > const&)>::~__base()
FUNC 70360 4 0 std::__ndk1::__function::__func<LabelSettingsLayer::updateInputFields(std::__ndk1::basic_string<char, std::__ndk1::char_traits<char>, std::__ndk1::allocator<char> > const&)::$_0, std::__ndk1::allocator<LabelSettingsLayer::updateInputFields(std::__ndk1::basic_string<char, std::__ndk1::char_traits<char>, std::__ndk1::allocator<char> > const&)::$_0>, void (std::__ndk1::basic_string<char, std::__ndk1::char_traits<char>, std::__ndk1::allocator<char> > const&)>::~__func()
FUNC 70364 20 0 std::__ndk1::__function::__func<LabelSettingsLayer::updateInputFields(std::__ndk1::basic_string<char, std::__ndk1::char_traits<char>, std::__ndk1::allocator<char> > const&)::$_0, std::__ndk1::allocator<LabelSettingsLayer::updateInputFields(std::__ndk1::basic_string<char, std::__ndk1::char_traits<char>, std::__ndk1::allocator<char> > const&)::$_0>, void (std::__ndk1::basic_string<char, std::__ndk1::char_traits<char>, std::__ndk1::allocator<char> > const&)>::__clone() const
FUNC 70384 14 0 std::__ndk1::__function::__func<LabelSettingsLayer::updateInputFields(std::__ndk1::basic_string<char, std::__ndk1::char_traits<char>, std::__ndk1::allocator<char> > const&)::$_0, std::__ndk1::allocator<LabelSettingsLayer::updateInputFields(std::__ndk1::basic_string<char, std::__ndk1::char_traits<char>, std::__ndk1::allocator<char> > const&)::$_0>, void (std::__ndk1::basic_string<char, std::__ndk1::char_traits<char>, std::__ndk1::allocator<char> > const&)>::__clone(std::__ndk1::__function::__base<void (std::__ndk1::basic_string<char, std::__ndk1::char_traits<char>, std::__ndk1::allocator<char> > const&)>*) const
FUNC 70398 2 0 std::__ndk1::__function::__func<LabelSettingsLayer::updateInputFields(std::__ndk1::basic_string<char, std::__ndk1::char_traits<char>, std::__ndk1::allocator<char> > const&)::$_0, std::__ndk1::allocator<LabelSettingsLayer::updateInputFields(std::__ndk1::basic_string<char, std::__ndk1::char_traits<char>, std::__ndk1::allocator<char> > const&)::$_0>, void (std::__ndk1::basic_string<char, std::__ndk1::char_traits<char>, std::__ndk1::allocator<char> > const&)>::destroy()
FUNC 7039a 4 0 std::__ndk1::__function::__func<LabelSettingsLayer::updateInputFields(std::__ndk1::basic_string<char, std::__ndk1::char_traits<char>, std::__ndk1::allocator<char> > const&)::$_0, std::__ndk1::allocator<LabelSettingsLayer::updateInputFields(std::__ndk1::basic_string<char, std::__ndk1::char_traits<char>, std::__ndk1::allocator<char> > const&)::$_0>, void (std::__ndk1::basic_string<char, std::__ndk1::char_traits<char>, std::__ndk1::allocator<char> > const&)>::destroy_deallocate()
FUNC 7039e 64 0 std::__ndk1::__function::__func<LabelSettingsLayer::updateInputFields(std::__ndk1::basic_string<char, std::__ndk1::char_traits<char>, std::__ndk1::allocator<char> > const&)::$_0, std::__ndk1::allocator<LabelSettingsLayer::updateInputFields(std::__ndk1::basic_string<char, std::__ndk1::char_traits<char>, std::__ndk1::allocator<char> > const&)::$_0>, void (std::__ndk1::basic_string<char, std::__ndk1::char_traits<char>, std::__ndk1::allocator<char> > const&)>::operator()(std::__ndk1::basic_string<char, std::__ndk1::char_traits<char>, std::__ndk1::allocator<char> > const&)
FUNC 70404 18 0 std::__ndk1::__function::__func<LabelSettingsLayer::updateInputFields(std::__ndk1::basic_string<char, std::__ndk1::char_traits<char>, std::__ndk1::allocator<char> > const&)::$_0, std::__ndk1::allocator<LabelSettingsLayer::updateInputFields(std::__ndk1::basic_string<char, std::__ndk1::char_traits<char>, std::__ndk1::allocator<char> > const&)::$_0>, void (std::__ndk1::basic_string<char, std::__ndk1::char_traits<char>, std::__ndk1::allocator<char> > const&)>::target(std::type_info const&) const
FUNC 7041c c 0 std::__ndk1::__function::__func<LabelSettingsLayer::updateInputFields(std::__ndk1::basic_string<char, std::__ndk1::char_traits<char>, std::__ndk1::allocator<char> > const&)::$_0, std::__ndk1::allocator<LabelSettingsLayer::updateInputFields(std::__ndk1::basic_string<char, std::__ndk1::char_traits<char>, std::__ndk1::allocator<char> > const&)::$_0>, void (std::__ndk1::basic_string<char, std::__ndk1::char_traits<char>, std::__ndk1::allocator<char> > const&)>::target_type() const
FUNC 70428 94 0 LinkLevelCell::create(float const&, std::__ndk1::basic_string<char, std::__ndk1::char_traits<char>, std::__ndk1::allocator<char> > const&, LevelStats_s const&, bool const&, std::__ndk1::function<void (std::__ndk1::basic_string<char, std::__ndk1::char_traits<char>, std::__ndk1::allocator<char> >, LevelStats_s, bool const&)> const&)
FUNC 704bc 6a4 0 LinkLevelCell::init(float const&, std::__ndk1::basic_string<char, std::__ndk1::char_traits<char>, std::__ndk1::allocator<char> > const&, LevelStats_s const&, bool const&, std::__ndk1::function<void (std::__ndk1::basic_string<char, std::__ndk1::char_traits<char>, std::__ndk1::allocator<char> >, LevelStats_s, bool const&)> const&)
FUNC 70b60 ac 0 LinkLevelCell::MoveMe(cocos2d::CCObject*)
FUNC 70c0c 22 0 std::__ndk1::pair<std::__ndk1::basic_string<char, std::__ndk1::char_traits<char>, std::__ndk1::allocator<char> >, std::__ndk1::basic_string<char, std::__ndk1::char_traits<char>, std::__ndk1::allocator<char> > >::~pair()
FUNC 70c30 54 0 LinkLevelCell::~LinkLevelCell()
FUNC 70c84 58 0 LinkLevelCell::~LinkLevelCell()
FUNC 70cdc 21c 0 RunAllowedCell::init(int const&, float const&, std::__ndk1::function<void (int const&, cocos2d::CCNode*)> const&)
FUNC 70ef8 48 0 RunAllowedCell::DeleteMe(cocos2d::CCObject*)
FUNC 70f40 68 0 RunAllowedCell::~RunAllowedCell()
FUNC 70fa8 6c 0 RunAllowedCell::~RunAllowedCell()
FUNC 71014 34 0 std::__ndk1::__function::__func<std::__ndk1::function<void (int const&, cocos2d::CCNode*)>, std::__ndk1::allocator<std::__ndk1::function<void (int const&, cocos2d::CCNode*)> >, void (int, cocos2d::CCNode*)>::~__func()
FUNC 71048 38 0 std::__ndk1::__function::__func<std::__ndk1::function<void (int const&, cocos2d::CCNode*)>, std::__ndk1::allocator<std::__ndk1::function<void (int const&, cocos2d::CCNode*)> >, void (int, cocos2d::CCNode*)>::~__func()
FUNC 71080 54 0 std::__ndk1::__function::__func<std::__ndk1::function<void (int const&, cocos2d::CCNode*)>, std::__ndk1::allocator<std::__ndk1::function<void (int const&, cocos2d::CCNode*)> >, void (int, cocos2d::CCNode*)>::__clone() const
FUNC 710d4 44 0 std::__ndk1::__function::__func<std::__ndk1::function<void (int const&, cocos2d::CCNode*)>, std::__ndk1::allocator<std::__ndk1::function<void (int const&, cocos2d::CCNode*)> >, void (int, cocos2d::CCNode*)>::__clone(std::__ndk1::__function::__base<void (int, cocos2d::CCNode*)>*) const
FUNC 71118 1e 0 std::__ndk1::__function::__func<std::__ndk1::function<void (int const&, cocos2d::CCNode*)>, std::__ndk1::allocator<std::__ndk1::function<void (int const&, cocos2d::CCNode*)> >, void (int, cocos2d::CCNode*)>::destroy()
FUNC 71136 2a 0 std::__ndk1::__function::__func<std::__ndk1::function<void (int const&, cocos2d::CCNode*)>, std::__ndk1::allocator<std::__ndk1::function<void (int const&, cocos2d::CCNode*)> >, void (int, cocos2d::CCNode*)>::destroy_deallocate()
FUNC 71160 44 0 std::__ndk1::__function::__func<std::__ndk1::function<void (int const&, cocos2d::CCNode*)>, std::__ndk1::allocator<std::__ndk1::function<void (int const&, cocos2d::CCNode*)> >, void (int, cocos2d::CCNode*)>::operator()(int&&, cocos2d::CCNode*&&)
FUNC 711a4 18 0 std::__ndk1::__function::__func<std::__ndk1::function<void (int const&, cocos2d::CCNode*)>, std::__ndk1::allocator<std::__ndk1::function<void (int const&, cocos2d::CCNode*)> >, void (int, cocos2d::CCNode*)>::target(std::type_info const&) const
FUNC 711bc c 0 std::__ndk1::__function::__func<std::__ndk1::function<void (int const&, cocos2d::CCNode*)>, std::__ndk1::allocator<std::__ndk1::function<void (int const&, cocos2d::CCNode*)> >, void (int, cocos2d::CCNode*)>::target_type() const
FUNC 711c8 2fc 0 SpecialTextKeyCell::init(std::__ndk1::basic_string<char, std::__ndk1::char_traits<char>, std::__ndk1::allocator<char> > const&, std::__ndk1::basic_string<char, std::__ndk1::char_traits<char>, std::__ndk1::allocator<char> > const&, std::__ndk1::function<void (std::__ndk1::basic_string<char, std::__ndk1::char_traits<char>, std::__ndk1::allocator<char> > const&)> const&)
FUNC 714c4 16 0 SpecialTextKeyCell::Add(cocos2d::CCObject*)
FUNC 714dc a8 0 SpecialTextKeyCell::onInfo(cocos2d::CCObject*)
FUNC 71584 5c 0 SpecialTextKeyCell::~SpecialTextKeyCell()
FUNC 715e0 60 0 SpecialTextKeyCell::~SpecialTextKeyCell()
FUNC 71640 150 0 confirmImportLayer::create(DTLayer* const&, std::__ndk1::map<std::__ndk1::basic_string<char, std::__ndk1::char_traits<char>, std::__ndk1::allocator<char> >, int, std::__ndk1::less<std::__ndk1::basic_string<char, std::__ndk1::char_traits<char>, std::__ndk1::allocator<char> > >, std::__ndk1::allocator<std::__ndk1::pair<std::__ndk1::basic_string<char, std::__ndk1::char_traits<char>, std::__ndk1::allocator<char> > const, int> > > const&, std::__ndk1::map<std::__ndk1::basic_string<char, std::__ndk1::char_traits<char>, std::__ndk1::allocator<char> >, int, std::__ndk1::less<std::__ndk1::basic_string<char, std::__ndk1::char_traits<char>, std::__ndk1::allocator<char> > >, std::__ndk1::allocator<std::__ndk1::pair<std::__ndk1::basic_string<char, std::__ndk1::char_traits<char>, std::__ndk1::allocator<char> > const, int> > > const&)
FUNC 71790 a5c 0 confirmImportLayer::setup(DTLayer* const&, std::__ndk1::map<std::__ndk1::basic_string<char, std::__ndk1::char_traits<char>, std::__ndk1::allocator<char> >, int, std::__ndk1::less<std::__ndk1::basic_string<char, std::__ndk1::char_traits<char>, std::__ndk1::allocator<char> > >, std::__ndk1::allocator<std::__ndk1::pair<std::__ndk1::basic_string<char, std::__ndk1::char_traits<char>, std::__ndk1::allocator<char> > const, int> > > const&, std::__ndk1::map<std::__ndk1::basic_string<char, std::__ndk1::char_traits<char>, std::__ndk1::allocator<char> >, int, std::__ndk1::less<std::__ndk1::basic_string<char, std::__ndk1::char_traits<char>, std::__ndk1::allocator<char> > >, std::__ndk1::allocator<std::__ndk1::pair<std::__ndk1::basic_string<char, std::__ndk1::char_traits<char>, std::__ndk1::allocator<char> > const, int> > > const&)
FUNC 721ec 164 0 confirmImportLayer::yesClicked(cocos2d::CCObject*)
FUNC 72350 e 0 confirmImportLayer::update(float)
FUNC 72360 b0 0 confirmImportLayer::~confirmImportLayer()
FUNC 72410 b4 0 confirmImportLayer::~confirmImportLayer()
FUNC 724c4 20 0 geode::Popup<DTLayer* const&, std::__ndk1::map<std::__ndk1::basic_string<char, std::__ndk1::char_traits<char>, std::__ndk1::allocator<char> >, int, std::__ndk1::less<std::__ndk1::basic_string<char, std::__ndk1::char_traits<char>, std::__ndk1::allocator<char> > >, std::__ndk1::allocator<std::__ndk1::pair<std::__ndk1::basic_string<char, std::__ndk1::char_traits<char>, std::__ndk1::allocator<char> > const, int> > > const&, std::__ndk1::map<std::__ndk1::basic_string<char, std::__ndk1::char_traits<char>, std::__ndk1::allocator<char> >, int, std::__ndk1::less<std::__ndk1::basic_string<char, std::__ndk1::char_traits<char>, std::__ndk1::allocator<char> > >, std::__ndk1::allocator<std::__ndk1::pair<std::__ndk1::basic_string<char, std::__ndk1::char_traits<char>, std::__ndk1::allocator<char> > const, int> > > const&>::registerWithTouchDispatcher()
FUNC 724e4 18 0 geode::Popup<DTLayer* const&, std::__ndk1::map<std::__ndk1::basic_string<char, std::__ndk1::char_traits<char>, std::__ndk1::allocator<char> >, int, std::__ndk1::less<std::__ndk1::basic_string<char, std::__ndk1::char_traits<char>, std::__ndk1::allocator<char> > >, std::__ndk1::allocator<std::__ndk1::pair<std::__ndk1::basic_string<char, std::__ndk1::char_traits<char>, std::__ndk1::allocator<char> > const, int> > > const&, std::__ndk1::map<std::__ndk1::basic_string<char, std::__ndk1::char_traits<char>, std::__ndk1::allocator<char> >, int, std::__ndk1::less<std::__ndk1::basic_string<char, std::__ndk1::char_traits<char>, std::__ndk1::allocator<char> > >, std::__ndk1::allocator<std::__ndk1::pair<std::__ndk1::basic_string<char, std::__ndk1::char_traits<char>, std::__ndk1::allocator<char> > const, int> > > const&>::keyDown(cocos2d::enumKeyCodes)
FUNC 724fc e4 0 geode::Popup<DTLayer* const&, std::__ndk1::map<std::__ndk1::basic_string<char, std::__ndk1::char_traits<char>, std::__ndk1::allocator<char> >, int, std::__ndk1::less<std::__ndk1::basic_string<char, std::__ndk1::char_traits<char>, std::__ndk1::allocator<char> > >, std::__ndk1::allocator<std::__ndk1::pair<std::__ndk1::basic_string<char, std::__ndk1::char_traits<char>, std::__ndk1::allocator<char> > const, int> > > const&, std::__ndk1::map<std::__ndk1::basic_string<char, std::__ndk1::char_traits<char>, std::__ndk1::allocator<char> >, int, std::__ndk1::less<std::__ndk1::basic_string<char, std::__ndk1::char_traits<char>, std::__ndk1::allocator<char> > >, std::__ndk1::allocator<std::__ndk1::pair<std::__ndk1::basic_string<char, std::__ndk1::char_traits<char>, std::__ndk1::allocator<char> > const, int> > > const&>::onClose(cocos2d::CCObject*)
FUNC 725e0 c0 0 {virtual override thunk({offset(-264)}, confirmImportLayer::~confirmImportLayer())}
FUNC 726a0 c4 0 {virtual override thunk({offset(-264)}, confirmImportLayer::~confirmImportLayer())}
FUNC 72764 1c 0 {virtual override thunk({offset(-276)}, geode::Popup<DTLayer* const&, std::__ndk1::map<std::__ndk1::basic_string<char, std::__ndk1::char_traits<char>, std::__ndk1::allocator<char> >, int, std::__ndk1::less<std::__ndk1::basic_string<char, std::__ndk1::char_traits<char>, std::__ndk1::allocator<char> > >, std::__ndk1::allocator<std::__ndk1::pair<std::__ndk1::basic_string<char, std::__ndk1::char_traits<char>, std::__ndk1::allocator<char> > const, int> > > const&, std::__ndk1::map<std::__ndk1::basic_string<char, std::__ndk1::char_traits<char>, std::__ndk1::allocator<char> >, int, std::__ndk1::less<std::__ndk1::basic_string<char, std::__ndk1::char_traits<char>, std::__ndk1::allocator<char> > >, std::__ndk1::allocator<std::__ndk1::pair<std::__ndk1::basic_string<char, std::__ndk1::char_traits<char>, std::__ndk1::allocator<char> > const, int> > > const&>::keyDown(cocos2d::enumKeyCodes))}
FUNC 72780 5c 0 geode::Popup<DTLayer* const&, std::__ndk1::map<std::__ndk1::basic_string<char, std::__ndk1::char_traits<char>, std::__ndk1::allocator<char> >, int, std::__ndk1::less<std::__ndk1::basic_string<char, std::__ndk1::char_traits<char>, std::__ndk1::allocator<char> > >, std::__ndk1::allocator<std::__ndk1::pair<std::__ndk1::basic_string<char, std::__ndk1::char_traits<char>, std::__ndk1::allocator<char> > const, int> > > const&, std::__ndk1::map<std::__ndk1::basic_string<char, std::__ndk1::char_traits<char>, std::__ndk1::allocator<char> >, int, std::__ndk1::less<std::__ndk1::basic_string<char, std::__ndk1::char_traits<char>, std::__ndk1::allocator<char> > >, std::__ndk1::allocator<std::__ndk1::pair<std::__ndk1::basic_string<char, std::__ndk1::char_traits<char>, std::__ndk1::allocator<char> > const, int> > > const&>::~Popup()
FUNC 727dc 2 0 geode::Popup<DTLayer* const&, std::__ndk1::map<std::__ndk1::basic_string<char, std::__ndk1::char_traits<char>, std::__ndk1::allocator<char> >, int, std::__ndk1::less<std::__ndk1::basic_string<char, std::__ndk1::char_traits<char>, std::__ndk1::allocator<char> > >, std::__ndk1::allocator<std::__ndk1::pair<std::__ndk1::basic_string<char, std::__ndk1::char_traits<char>, std::__ndk1::allocator<char> > const, int> > > const&, std::__ndk1::map<std::__ndk1::basic_string<char, std::__ndk1::char_traits<char>, std::__ndk1::allocator<char> >, int, std::__ndk1::less<std::__ndk1::basic_string<char, std::__ndk1::char_traits<char>, std::__ndk1::allocator<char> > >, std::__ndk1::allocator<std::__ndk1::pair<std::__ndk1::basic_string<char, std::__ndk1::char_traits<char>, std::__ndk1::allocator<char> > const, int> > > const&>::~Popup()
FUNC 727e0 60 0 {virtual override thunk({offset(-264)}, geode::Popup<DTLayer* const&, std::__ndk1::map<std::__ndk1::basic_string<char, std::__ndk1::char_traits<char>, std::__ndk1::allocator<char> >, int, std::__ndk1::less<std::__ndk1::basic_string<char, std::__ndk1::char_traits<char>, std::__ndk1::allocator<char> > >, std::__ndk1::allocator<std::__ndk1::pair<std::__ndk1::basic_string<char, std::__ndk1::char_traits<char>, std::__ndk1::allocator<char> > const, int> > > const&, std::__ndk1::map<std::__ndk1::basic_string<char, std::__ndk1::char_traits<char>, std::__ndk1::allocator<char> >, int, std::__ndk1::less<std::__ndk1::basic_string<char, std::__ndk1::char_traits<char>, std::__ndk1::allocator<char> > >, std::__ndk1::allocator<std::__ndk1::pair<std::__ndk1::basic_string<char, std::__ndk1::char_traits<char>, std::__ndk1::allocator<char> > const, int> > > const&>::~Popup())}
FUNC 72840 2 0 {virtual override thunk({offset(-264)}, geode::Popup<DTLayer* const&, std::__ndk1::map<std::__ndk1::basic_string<char, std::__ndk1::char_traits<char>, std::__ndk1::allocator<char> >, int, std::__ndk1::less<std::__ndk1::basic_string<char, std::__ndk1::char_traits<char>, std::__ndk1::allocator<char> > >, std::__ndk1::allocator<std::__ndk1::pair<std::__ndk1::basic_string<char, std::__ndk1::char_traits<char>, std::__ndk1::allocator<char> > const, int> > > const&, std::__ndk1::map<std::__ndk1::basic_string<char, std::__ndk1::char_traits<char>, std::__ndk1::allocator<char> >, int, std::__ndk1::less<std::__ndk1::basic_string<char, std::__ndk1::char_traits<char>, std::__ndk1::allocator<char> > >, std::__ndk1::allocator<std::__ndk1::pair<std::__ndk1::basic_string<char, std::__ndk1::char_traits<char>, std::__ndk1::allocator<char> > const, int> > > const&>::~Popup())}
FUNC 72844 254 0 geode::Popup<DTLayer* const&, std::__ndk1::map<std::__ndk1::basic_string<char, std::__ndk1::char_traits<char>, std::__ndk1::allocator<char> >, int, std::__ndk1::less<std::__ndk1::basic_string<char, std::__ndk1::char_traits<char>, std::__ndk1::allocator<char> > >, std::__ndk1::allocator<std::__ndk1::pair<std::__ndk1::basic_string<char, std::__ndk1::char_traits<char>, std::__ndk1::allocator<char> > const, int> > > const&, std::__ndk1::map<std::__ndk1::basic_string<char, std::__ndk1::char_traits<char>, std::__ndk1::allocator<char> >, int, std::__ndk1::less<std::__ndk1::basic_string<char, std::__ndk1::char_traits<char>, std::__ndk1::allocator<char> > >, std::__ndk1::allocator<std::__ndk1::pair<std::__ndk1::basic_string<char, std::__ndk1::char_traits<char>, std::__ndk1::allocator<char> > const, int> > > const&>::initBase(float, float, DTLayer* const&, std::__ndk1::map<std::__ndk1::basic_string<char, std::__ndk1::char_traits<char>, std::__ndk1::allocator<char> >, int, std::__ndk1::less<std::__ndk1::basic_string<char, std::__ndk1::char_traits<char>, std::__ndk1::allocator<char> > >, std::__ndk1::allocator<std::__ndk1::pair<std::__ndk1::basic_string<char, std::__ndk1::char_traits<char>, std::__ndk1::allocator<char> > const, int> > > const&, std::__ndk1::map<std::__ndk1::basic_string<char, std::__ndk1::char_traits<char>, std::__ndk1::allocator<char> >, int, std::__ndk1::less<std::__ndk1::basic_string<char, std::__ndk1::char_traits<char>, std::__ndk1::allocator<char> > >, std::__ndk1::allocator<std::__ndk1::pair<std::__ndk1::basic_string<char, std::__ndk1::char_traits<char>, std::__ndk1::allocator<char> > const, int> > > const&, char const*, cocos2d::CCRect, bool)
FUNC 72a98 44 0 geode::Popup<DTLayer* const&, std::__ndk1::map<std::__ndk1::basic_string<char, std::__ndk1::char_traits<char>, std::__ndk1::allocator<char> >, int, std::__ndk1::less<std::__ndk1::basic_string<char, std::__ndk1::char_traits<char>, std::__ndk1::allocator<char> > >, std::__ndk1::allocator<std::__ndk1::pair<std::__ndk1::basic_string<char, std::__ndk1::char_traits<char>, std::__ndk1::allocator<char> > const, int> > > const&, std::__ndk1::map<std::__ndk1::basic_string<char, std::__ndk1::char_traits<char>, std::__ndk1::allocator<char> >, int, std::__ndk1::less<std::__ndk1::basic_string<char, std::__ndk1::char_traits<char>, std::__ndk1::allocator<char> > >, std::__ndk1::allocator<std::__ndk1::pair<std::__ndk1::basic_string<char, std::__ndk1::char_traits<char>, std::__ndk1::allocator<char> > const, int> > > const&>::CloseEvent::~CloseEvent()
FUNC 72adc 40 0 geode::Popup<DTLayer* const&, std::__ndk1::map<std::__ndk1::basic_string<char, std::__ndk1::char_traits<char>, std::__ndk1::allocator<char> >, int, std::__ndk1::less<std::__ndk1::basic_string<char, std::__ndk1::char_traits<char>, std::__ndk1::allocator<char> > >, std::__ndk1::allocator<std::__ndk1::pair<std::__ndk1::basic_string<char, std::__ndk1::char_traits<char>, std::__ndk1::allocator<char> > const, int> > > const&, std::__ndk1::map<std::__ndk1::basic_string<char, std::__ndk1::char_traits<char>, std::__ndk1::allocator<char> >, int, std::__ndk1::less<std::__ndk1::basic_string<char, std::__ndk1::char_traits<char>, std::__ndk1::allocator<char> > >, std::__ndk1::allocator<std::__ndk1::pair<std::__ndk1::basic_string<char, std::__ndk1::char_traits<char>, std::__ndk1::allocator<char> > const, int> > > const&>::CloseEvent::~CloseEvent()
FUNC 72b1c 10 0 std::__ndk1::__shared_ptr_emplace<geode::Popup<DTLayer* const&, std::__ndk1::map<std::__ndk1::basic_string<char, std::__ndk1::char_traits<char>, std::__ndk1::allocator<char> >, int, std::__ndk1::less<std::__ndk1::basic_string<char, std::__ndk1::char_traits<char>, std::__ndk1::allocator<char> > >, std::__ndk1::allocator<std::__ndk1::pair<std::__ndk1::basic_string<char, std::__ndk1::char_traits<char>, std::__ndk1::allocator<char> > const, int> > > const&, std::__ndk1::map<std::__ndk1::basic_string<char, std::__ndk1::char_traits<char>, std::__ndk1::allocator<char> >, int, std::__ndk1::less<std::__ndk1::basic_string<char, std::__ndk1::char_traits<char>, std::__ndk1::allocator<char> > >, std::__ndk1::allocator<std::__ndk1::pair<std::__ndk1::basic_string<char, std::__ndk1::char_traits<char>, std::__ndk1::allocator<char> > const, int> > > const&>::CloseEvent::Impl, std::__ndk1::allocator<geode::Popup<DTLayer* const&, std::__ndk1::map<std::__ndk1::basic_string<char, std::__ndk1::char_traits<char>, std::__ndk1::allocator<char> >, int, std::__ndk1::less<std::__ndk1::basic_string<char, std::__ndk1::char_traits<char>, std::__ndk1::allocator<char> > >, std::__ndk1::allocator<std::__ndk1::pair<std::__ndk1::basic_string<char, std::__ndk1::char_traits<char>, std::__ndk1::allocator<char> > const, int> > > const&, std::__ndk1::map<std::__ndk1::basic_string<char, std::__ndk1::char_traits<char>, std::__ndk1::allocator<char> >, int, std::__ndk1::less<std::__ndk1::basic_string<char, std::__ndk1::char_traits<char>, std::__ndk1::allocator<char> > >, std::__ndk1::allocator<std::__ndk1::pair<std::__ndk1::basic_string<char, std::__ndk1::char_traits<char>, std::__ndk1::allocator<char> > const, int> > > const&>::CloseEvent::Impl> >::~__shared_ptr_emplace()
FUNC 72b2c 1c 0 std::__ndk1::__shared_ptr_emplace<geode::Popup<DTLayer* const&, std::__ndk1::map<std::__ndk1::basic_string<char, std::__ndk1::char_traits<char>, std::__ndk1::allocator<char> >, int, std::__ndk1::less<std::__ndk1::basic_string<char, std::__ndk1::char_traits<char>, std::__ndk1::allocator<char> > >, std::__ndk1::allocator<std::__ndk1::pair<std::__ndk1::basic_string<char, std::__ndk1::char_traits<char>, std::__ndk1::allocator<char> > const, int> > > const&, std::__ndk1::map<std::__ndk1::basic_string<char, std::__ndk1::char_traits<char>, std::__ndk1::allocator<char> >, int, std::__ndk1::less<std::__ndk1::basic_string<char, std::__ndk1::char_traits<char>, std::__ndk1::allocator<char> > >, std::__ndk1::allocator<std::__ndk1::pair<std::__ndk1::basic_string<char, std::__ndk1::char_traits<char>, std::__ndk1::allocator<char> > const, int> > > const&>::CloseEvent::Impl, std::__ndk1::allocator<geode::Popup<DTLayer* const&, std::__ndk1::map<std::__ndk1::basic_string<char, std::__ndk1::char_traits<char>, std::__ndk1::allocator<char> >, int, std::__ndk1::less<std::__ndk1::basic_string<char, std::__ndk1::char_traits<char>, std::__ndk1::allocator<char> > >, std::__ndk1::allocator<std::__ndk1::pair<std::__ndk1::basic_string<char, std::__ndk1::char_traits<char>, std::__ndk1::allocator<char> > const, int> > > const&, std::__ndk1::map<std::__ndk1::basic_string<char, std::__ndk1::char_traits<char>, std::__ndk1::allocator<char> >, int, std::__ndk1::less<std::__ndk1::basic_string<char, std::__ndk1::char_traits<char>, std::__ndk1::allocator<char> > >, std::__ndk1::allocator<std::__ndk1::pair<std::__ndk1::basic_string<char, std::__ndk1::char_traits<char>, std::__ndk1::allocator<char> > const, int> > > const&>::CloseEvent::Impl> >::~__shared_ptr_emplace()
FUNC 72b48 2 0 std::__ndk1::__shared_ptr_emplace<geode::Popup<DTLayer* const&, std::__ndk1::map<std::__ndk1::basic_string<char, std::__ndk1::char_traits<char>, std::__ndk1::allocator<char> >, int, std::__ndk1::less<std::__ndk1::basic_string<char, std::__ndk1::char_traits<char>, std::__ndk1::allocator<char> > >, std::__ndk1::allocator<std::__ndk1::pair<std::__ndk1::basic_string<char, std::__ndk1::char_traits<char>, std::__ndk1::allocator<char> > const, int> > > const&, std::__ndk1::map<std::__ndk1::basic_string<char, std::__ndk1::char_traits<char>, std::__ndk1::allocator<char> >, int, std::__ndk1::less<std::__ndk1::basic_string<char, std::__ndk1::char_traits<char>, std::__ndk1::allocator<char> > >, std::__ndk1::allocator<std::__ndk1::pair<std::__ndk1::basic_string<char, std::__ndk1::char_traits<char>, std::__ndk1::allocator<char> > const, int> > > const&>::CloseEvent::Impl, std::__ndk1::allocator<geode::Popup<DTLayer* const&, std::__ndk1::map<std::__ndk1::basic_string<char, std::__ndk1::char_traits<char>, std::__ndk1::allocator<char> >, int, std::__ndk1::less<std::__ndk1::basic_string<char, std::__ndk1::char_traits<char>, std::__ndk1::allocator<char> > >, std::__ndk1::allocator<std::__ndk1::pair<std::__ndk1::basic_string<char, std::__ndk1::char_traits<char>, std::__ndk1::allocator<char> > const, int> > > const&, std::__ndk1::map<std::__ndk1::basic_string<char, std::__ndk1::char_traits<char>, std::__ndk1::allocator<char> >, int, std::__ndk1::less<std::__ndk1::basic_string<char, std::__ndk1::char_traits<char>, std::__ndk1::allocator<char> > >, std::__ndk1::allocator<std::__ndk1::pair<std::__ndk1::basic_string<char, std::__ndk1::char_traits<char>, std::__ndk1::allocator<char> > const, int> > > const&>::CloseEvent::Impl> >::__on_zero_shared()
FUNC 72b4a 4 0 std::__ndk1::__shared_ptr_emplace<geode::Popup<DTLayer* const&, std::__ndk1::map<std::__ndk1::basic_string<char, std::__ndk1::char_traits<char>, std::__ndk1::allocator<char> >, int, std::__ndk1::less<std::__ndk1::basic_string<char, std::__ndk1::char_traits<char>, std::__ndk1::allocator<char> > >, std::__ndk1::allocator<std::__ndk1::pair<std::__ndk1::basic_string<char, std::__ndk1::char_traits<char>, std::__ndk1::allocator<char> > const, int> > > const&, std::__ndk1::map<std::__ndk1::basic_string<char, std::__ndk1::char_traits<char>, std::__ndk1::allocator<char> >, int, std::__ndk1::less<std::__ndk1::basic_string<char, std::__ndk1::char_traits<char>, std::__ndk1::allocator<char> > >, std::__ndk1::allocator<std::__ndk1::pair<std::__ndk1::basic_string<char, std::__ndk1::char_traits<char>, std::__ndk1::allocator<char> > const, int> > > const&>::CloseEvent::Impl, std::__ndk1::allocator<geode::Popup<DTLayer* const&, std::__ndk1::map<std::__ndk1::basic_string<char, std::__ndk1::char_traits<char>, std::__ndk1::allocator<char> >, int, std::__ndk1::less<std::__ndk1::basic_string<char, std::__ndk1::char_traits<char>, std::__ndk1::allocator<char> > >, std::__ndk1::allocator<std::__ndk1::pair<std::__ndk1::basic_string<char, std::__ndk1::char_traits<char>, std::__ndk1::allocator<char> > const, int> > > const&, std::__ndk1::map<std::__ndk1::basic_string<char, std::__ndk1::char_traits<char>, std::__ndk1::allocator<char> >, int, std::__ndk1::less<std::__ndk1::basic_string<char, std::__ndk1::char_traits<char>, std::__ndk1::allocator<char> > >, std::__ndk1::allocator<std::__ndk1::pair<std::__ndk1::basic_string<char, std::__ndk1::char_traits<char>, std::__ndk1::allocator<char> > const, int> > > const&>::CloseEvent::Impl> >::__on_zero_shared_weak()
FUNC 72b50 104 0 geodeExecFunction95<(anonymous namespace)::ExecFuncUnique95>(geode::ModStateEvent*)
FUNC 72c54 4 0 geode::EventListener<geode::ModStateFilter>::getPool() const
FUNC 72c58 e4 0 geode::EventListener<geode::ModStateFilter>::handle(geode::Event*)
FUNC 72d3c 38 0 geode::EventListener<geode::ModStateFilter>::~EventListener()
FUNC 72d74 3c 0 geode::EventListener<geode::ModStateFilter>::~EventListener()
FUNC 72db0 2 0 std::__ndk1::__function::__base<void (geode::ModStateEvent*)>::~__base()
FUNC 72db2 4 0 std::__ndk1::__function::__func<void (*)(geode::ModStateEvent*), std::__ndk1::allocator<void (*)(geode::ModStateEvent*)>, void (geode::ModStateEvent*)>::~__func()
FUNC 72db8 20 0 std::__ndk1::__function::__func<void (*)(geode::ModStateEvent*), std::__ndk1::allocator<void (*)(geode::ModStateEvent*)>, void (geode::ModStateEvent*)>::__clone() const
FUNC 72dd8 14 0 std::__ndk1::__function::__func<void (*)(geode::ModStateEvent*), std::__ndk1::allocator<void (*)(geode::ModStateEvent*)>, void (geode::ModStateEvent*)>::__clone(std::__ndk1::__function::__base<void (geode::ModStateEvent*)>*) const
FUNC 72dec 2 0 std::__ndk1::__function::__func<void (*)(geode::ModStateEvent*), std::__ndk1::allocator<void (*)(geode::ModStateEvent*)>, void (geode::ModStateEvent*)>::destroy()
FUNC 72dee 4 0 std::__ndk1::__function::__func<void (*)(geode::ModStateEvent*), std::__ndk1::allocator<void (*)(geode::ModStateEvent*)>, void (geode::ModStateEvent*)>::destroy_deallocate()
FUNC 72df2 8 0 std::__ndk1::__function::__func<void (*)(geode::ModStateEvent*), std::__ndk1::allocator<void (*)(geode::ModStateEvent*)>, void (geode::ModStateEvent*)>::operator()(geode::ModStateEvent*&&)
FUNC 72dfc 18 0 std::__ndk1::__function::__func<void (*)(geode::ModStateEvent*), std::__ndk1::allocator<void (*)(geode::ModStateEvent*)>, void (geode::ModStateEvent*)>::target(std::type_info const&) const
FUNC 72e14 c 0 std::__ndk1::__function::__func<void (*)(geode::ModStateEvent*), std::__ndk1::allocator<void (*)(geode::ModStateEvent*)>, void (geode::ModStateEvent*)>::target_type() const
FUNC 72e20 77c 0 _GLOBAL__sub_I_main.cpp
FUNC 7359c 29c 0 StatsManager::splitStr(std::__ndk1::basic_string<char, std::__ndk1::char_traits<char>, std::__ndk1::allocator<char> > const&, std::__ndk1::basic_string<char, std::__ndk1::char_traits<char>, std::__ndk1::allocator<char> > const&)
FUNC 73838 10 0 std::__ndk1::set<std::__ndk1::basic_string<char, std::__ndk1::char_traits<char>, std::__ndk1::allocator<char> >, std::__ndk1::less<std::__ndk1::basic_string<char, std::__ndk1::char_traits<char>, std::__ndk1::allocator<char> > >, std::__ndk1::allocator<std::__ndk1::basic_string<char, std::__ndk1::char_traits<char>, std::__ndk1::allocator<char> > > >::~set[abi:ne180000]()
FUNC 73848 1e 0 std::__ndk1::__fs::filesystem::path::~path[abi:ne180000]()
FUNC 73866 24 0 std::__ndk1::array<std::__ndk1::basic_string<char, std::__ndk1::char_traits<char>, std::__ndk1::allocator<char> >, (unsigned int)62>::~array()
FUNC 7388c ac 0 StatsManager::loadLevelStats(GJGameLevel* const&)
FUNC 73938 14e0 0 StatsManager::loadData(GJGameLevel* const&)
FUNC 74e18 60 0 geode::impl::ResultData<matjson::Value, std::__ndk1::basic_string<char, std::__ndk1::char_traits<char>, std::__ndk1::allocator<char> > >::~ResultData()
FUNC 74e78 2bc 0 StatsManager::getLevelStats(std::__ndk1::basic_string<char, std::__ndk1::char_traits<char>, std::__ndk1::allocator<char> > const&)
FUNC 75134 418 0 StatsManager::getBackupStats(GJGameLevel* const&)
FUNC 7554c 1b0 0 StatsManager::getLevelKey(GJGameLevel* const&)
FUNC 756fc 48 0 geode::impl::ResultData<std::__ndk1::basic_string<char, std::__ndk1::char_traits<char>, std::__ndk1::allocator<char> >, std::__ndk1::basic_string<char, std::__ndk1::char_traits<char>, std::__ndk1::allocator<char> > >::unwrapErr() &&
FUNC 75744 4c 0 geode::impl::ResultData<std::__ndk1::basic_string<char, std::__ndk1::char_traits<char>, std::__ndk1::allocator<char> >, std::__ndk1::basic_string<char, std::__ndk1::char_traits<char>, std::__ndk1::allocator<char> > >::unwrap() &&
FUNC 75790 1cc 0 StatsManager::logDeath(int const&)
FUNC 7595c 2d0 0 StatsManager::getSession()
FUNC 75c2c 280 0 StatsManager::saveData()
FUNC 75eac 234 0 StatsManager::logDeaths(std::__ndk1::vector<int, std::__ndk1::allocator<int> > const&)
FUNC 760e0 130 0 StatsManager::logRun(Run_s const&)
FUNC 76210 170 0 StatsManager::logRuns(std::__ndk1::vector<Run_s, std::__ndk1::allocator<Run_s> > const&)
FUNC 76380 ac 0 StatsManager::splitRunKey(std::__ndk1::basic_string<char, std::__ndk1::char_traits<char>, std::__ndk1::allocator<char> > const&)
FUNC 7642c 10c 0 StatsManager::hasPlayedLevel()
FUNC 76538 284 0 StatsManager::getLevelSaveFilePath(GJGameLevel* const&)
FUNC 767bc 60 0 geode::impl::ResultData<std::__ndk1::__fs::filesystem::path, std::__ndk1::basic_string<char, std::__ndk1::char_traits<char>, std::__ndk1::allocator<char> > >::~ResultData()
FUNC 7681c 38 0 std::__ndk1::basic_ofstream<char, std::__ndk1::char_traits<char> >::~basic_ofstream()
FUNC 76854 280 0 StatsManager::saveData(LevelStats_s const&, GJGameLevel* const&)
FUNC 76ad4 2e0 0 StatsManager::saveBackup(LevelStats_s const&, GJGameLevel* const&)
FUNC 76db4 33c 0 StatsManager::saveData(LevelStats_s const&, std::__ndk1::basic_string<char, std::__ndk1::char_traits<char>, std::__ndk1::allocator<char> > const&)
FUNC 770f0 170 0 geode::Mod::getSavedValue<std::__ndk1::vector<int, std::__ndk1::allocator<int> > >(std::__ndk1::basic_string_view<char, std::__ndk1::char_traits<char> >)
FUNC 77260 38c 0 geode::Mod::getSavedValue<std::__ndk1::vector<bool, std::__ndk1::allocator<bool> > >(std::__ndk1::basic_string_view<char, std::__ndk1::char_traits<char> >)
FUNC 775ec 60 0 geode::impl::ResultData<std::__ndk1::tuple<std::__ndk1::set<int, std::__ndk1::less<int>, std::__ndk1::allocator<int> >, int>, std::__ndk1::basic_string<char, std::__ndk1::char_traits<char>, std::__ndk1::allocator<char> > >::~ResultData()
FUNC 7764c e30 0 StatsManager::getAllLevels()
FUNC 7847c 1c 0 std::__ndk1::pair<std::__ndk1::basic_string<char, std::__ndk1::char_traits<char>, std::__ndk1::allocator<char> >, LevelStats_s>::~pair()
FUNC 78498 3e 0 std::__ndk1::vector<std::__ndk1::__fs::filesystem::path, std::__ndk1::allocator<std::__ndk1::__fs::filesystem::path> >::~vector[abi:ne180000]()
FUNC 784d8 60 0 geode::impl::ResultData<std::__ndk1::vector<std::__ndk1::__fs::filesystem::path, std::__ndk1::allocator<std::__ndk1::__fs::filesystem::path> >, std::__ndk1::basic_string<char, std::__ndk1::char_traits<char>, std::__ndk1::allocator<char> > >::~ResultData()
FUNC 78538 138 0 StatsManager::splitLevelKey(std::__ndk1::basic_string<char, std::__ndk1::char_traits<char>, std::__ndk1::allocator<char> > const&)
FUNC 78670 2b8 0 StatsManager::KMPSearch(std::__ndk1::basic_string<char, std::__ndk1::char_traits<char>, std::__ndk1::allocator<char> > const&, std::__ndk1::basic_string<char, std::__ndk1::char_traits<char>, std::__ndk1::allocator<char> > const&)
FUNC 78928 210 0 StatsManager::getCursorPosition(cocos2d::CCLabelBMFont* const&, cocos2d::CCLabelBMFont* const&)
FUNC 78b38 148 0 StatsManager::isKeyInIndex(std::__ndk1::basic_string<char, std::__ndk1::char_traits<char>, std::__ndk1::allocator<char> > const&, int const&, std::__ndk1::basic_string<char, std::__ndk1::char_traits<char>, std::__ndk1::allocator<char> > const&)
FUNC 78c80 290 0 StatsManager::workingTime(long long)
FUNC 78f10 60 0 std::__ndk1::basic_ostringstream<char, std::__ndk1::char_traits<char>, std::__ndk1::allocator<char> >::~basic_ostringstream()
FUNC 78f70 102 0 std::__ndk1::vector<std::__ndk1::basic_string<char, std::__ndk1::char_traits<char>, std::__ndk1::allocator<char> >, std::__ndk1::allocator<std::__ndk1::basic_string<char, std::__ndk1::char_traits<char>, std::__ndk1::allocator<char> > > >::__push_back_slow_path<std::__ndk1::basic_string<char, std::__ndk1::char_traits<char>, std::__ndk1::allocator<char> > >(std::__ndk1::basic_string<char, std::__ndk1::char_traits<char>, std::__ndk1::allocator<char> >&&)
FUNC 79074 142c 0 matjson::Serialize<LevelStats_s>::fromJson(matjson::Value const&)
FUNC 7a4a0 48 0 geode::impl::ResultData<long long, std::__ndk1::basic_string<char, std::__ndk1::char_traits<char>, std::__ndk1::allocator<char> > >::unwrapErr() &&
FUNC 7a4e8 4c 0 geode::impl::ResultData<long long, std::__ndk1::basic_string<char, std::__ndk1::char_traits<char>, std::__ndk1::allocator<char> > >::unwrap() &&
FUNC 7a534 48 0 geode::impl::ResultData<std::__ndk1::vector<int, std::__ndk1::allocator<int> >, std::__ndk1::basic_string<char, std::__ndk1::char_traits<char>, std::__ndk1::allocator<char> > >::unwrapErr() &&
FUNC 7a57c 4c 0 geode::impl::ResultData<std::__ndk1::vector<int, std::__ndk1::allocator<int> >, std::__ndk1::basic_string<char, std::__ndk1::char_traits<char>, std::__ndk1::allocator<char> > >::unwrap() &&
FUNC 7a5c8 60 0 geode::impl::ResultData<std::__ndk1::vector<int, std::__ndk1::allocator<int> >, std::__ndk1::basic_string<char, std::__ndk1::char_traits<char>, std::__ndk1::allocator<char> > >::~ResultData()
FUNC 7a628 48 0 geode::impl::ResultData<std::__ndk1::vector<std::__ndk1::basic_string<char, std::__ndk1::char_traits<char>, std::__ndk1::allocator<char> >, std::__ndk1::allocator<std::__ndk1::basic_string<char, std::__ndk1::char_traits<char>, std::__ndk1::allocator<char> > > >, std::__ndk1::basic_string<char, std::__ndk1::char_traits<char>, std::__ndk1::allocator<char> > >::unwrapErr() &&
FUNC 7a670 4c 0 geode::impl::ResultData<std::__ndk1::vector<std::__ndk1::basic_string<char, std::__ndk1::char_traits<char>, std::__ndk1::allocator<char> >, std::__ndk1::allocator<std::__ndk1::basic_string<char, std::__ndk1::char_traits<char>, std::__ndk1::allocator<char> > > >, std::__ndk1::basic_string<char, std::__ndk1::char_traits<char>, std::__ndk1::allocator<char> > >::unwrap() &&
FUNC 7a6bc 60 0 std::__ndk1::vector<std::__ndk1::basic_string<char, std::__ndk1::char_traits<char>, std::__ndk1::allocator<char> >, std::__ndk1::allocator<std::__ndk1::basic_string<char, std::__ndk1::char_traits<char>, std::__ndk1::allocator<char> > > >::operator=[abi:ne180000](std::__ndk1::vector<std::__ndk1::basic_string<char, std::__ndk1::char_traits<char>, std::__ndk1::allocator<char> >, std::__ndk1::allocator<std::__ndk1::basic_string<char, std::__ndk1::char_traits<char>, std::__ndk1::allocator<char> > > >&&)
FUNC 7a71c 60 0 geode::impl::ResultData<std::__ndk1::vector<std::__ndk1::basic_string<char, std::__ndk1::char_traits<char>, std::__ndk1::allocator<char> >, std::__ndk1::allocator<std::__ndk1::basic_string<char, std::__ndk1::char_traits<char>, std::__ndk1::allocator<char> > > >, std::__ndk1::basic_string<char, std::__ndk1::char_traits<char>, std::__ndk1::allocator<char> > >::~ResultData()
FUNC 7a77c 60 0 geode::impl::ResultData<long long, std::__ndk1::basic_string<char, std::__ndk1::char_traits<char>, std::__ndk1::allocator<char> > >::~ResultData()
FUNC 7a7dc 60 0 geode::impl::ResultData<std::__ndk1::vector<Session, std::__ndk1::allocator<Session> >, std::__ndk1::basic_string<char, std::__ndk1::char_traits<char>, std::__ndk1::allocator<char> > >::~ResultData()
FUNC 7a83c 60 0 geode::impl::ResultData<std::__ndk1::set<int, std::__ndk1::less<int>, std::__ndk1::allocator<int> >, std::__ndk1::basic_string<char, std::__ndk1::char_traits<char>, std::__ndk1::allocator<char> > >::~ResultData()
FUNC 7a89c 60 0 geode::impl::ResultData<std::__ndk1::map<std::__ndk1::basic_string<char, std::__ndk1::char_traits<char>, std::__ndk1::allocator<char> >, int, std::__ndk1::less<std::__ndk1::basic_string<char, std::__ndk1::char_traits<char>, std::__ndk1::allocator<char> > >, std::__ndk1::allocator<std::__ndk1::pair<std::__ndk1::basic_string<char, std::__ndk1::char_traits<char>, std::__ndk1::allocator<char> > const, int> > >, std::__ndk1::basic_string<char, std::__ndk1::char_traits<char>, std::__ndk1::allocator<char> > >::~ResultData()
FUNC 7a8fc 344 0 _ZN7matjson9SerializeINSt6__ndk13mapINS1_12basic_stringIcNS1_11char_traitsIcEENS1_9allocatorIcEEEEiNS1_4lessIS8_EENS6_INS1_4pairIKS8_iEEEEEEE8fromJsonERKNS_5ValueEQrQSJ__Xcldtfp_2asIu7__decayIT_EEEE
FUNC 7ac40 c0 0 matjson::Value::as<int>() const
FUNC 7ad00 22c 0 _ZN7matjson9SerializeINSt6__ndk13setIiNS1_4lessIiEENS1_9allocatorIiEEEEE8fromJsonERKNS_5ValueEQrQSB__Xcldtfp_2asIu7__decayIT_EEEE
FUNC 7af2c f8 0 _ZN5geode15UnwrapExceptionC2IRxQsr4implE18IsStringStreamableIT_EEENS_4impl5OkTagEOS3_
FUNC 7b024 60 0 geode::impl::ResultData<Session, std::__ndk1::basic_string<char, std::__ndk1::char_traits<char>, std::__ndk1::allocator<char> > >::~ResultData()
FUNC 7b084 c8 0 matjson::Value::as<long long>() const
FUNC 7b14c 28 0 std::__ndk1::__variant_detail::__visitation::__base::__dispatcher<(unsigned int)0>::__dispatch[abi:ne180000]<std::__ndk1::__variant_detail::__dtor<std::__ndk1::__variant_detail::__traits<Session, std::__ndk1::basic_string<char, std::__ndk1::char_traits<char>, std::__ndk1::allocator<char> > >, (std::__ndk1::__variant_detail::_Trait)1>::__destroy[abi:ne180000]()::{lambda(auto:1&)#1}, std::__ndk1::__variant_detail::__base<(std::__ndk1::__variant_detail::__traits<Session, std::__ndk1::basic_string<char, std::__ndk1::char_traits<char>, std::__ndk1::allocator<char> > >)1, std::__ndk1::__variant_detail::__traits, std::__ndk1::allocator<char> >&>(std::__ndk1::__variant_detail::__dtor<std::__ndk1::__variant_detail::__traits<Session, std::__ndk1::basic_string<char, std::__ndk1::char_traits<char>, std::__ndk1::allocator<char> > >, (std::__ndk1::__variant_detail::_Trait)1>, std::__ndk1::__variant_detail::__base<(std::__ndk1::__variant_detail::__traits<Session, std::__ndk1::basic_string<char, std::__ndk1::char_traits<char>, std::__ndk1::allocator<char> > >)1, std::__ndk1::__variant_detail::__traits, std::__ndk1::allocator<char> >&)
FUNC 7b174 e 0 std::__ndk1::__variant_detail::__visitation::__base::__dispatcher<(unsigned int)1>::__dispatch[abi:ne180000]<std::__ndk1::__variant_detail::__dtor<std::__ndk1::__variant_detail::__traits<Session, std::__ndk1::basic_string<char, std::__ndk1::char_traits<char>, std::__ndk1::allocator<char> > >, (std::__ndk1::__variant_detail::_Trait)1>::__destroy[abi:ne180000]()::{lambda(auto:1&)#1}, std::__ndk1::__variant_detail::__base<(std::__ndk1::__variant_detail::__traits<Session, std::__ndk1::basic_string<char, std::__ndk1::char_traits<char>, std::__ndk1::allocator<char> > >)1, std::__ndk1::__variant_detail::__traits, std::__ndk1::allocator<char> >&>(std::__ndk1::__variant_detail::__dtor<std::__ndk1::__variant_detail::__traits<Session, std::__ndk1::basic_string<char, std::__ndk1::char_traits<char>, std::__ndk1::allocator<char> > >, (std::__ndk1::__variant_detail::_Trait)1>, std::__ndk1::__variant_detail::__base<(std::__ndk1::__variant_detail::__traits<Session, std::__ndk1::basic_string<char, std::__ndk1::char_traits<char>, std::__ndk1::allocator<char> > >)1, std::__ndk1::__variant_detail::__traits, std::__ndk1::allocator<char> >&)
FUNC 7b184 39c 0 _ZN7matjson9SerializeINSt6__ndk16vectorIiNS1_9allocatorIiEEEEE8fromJsonERKNS_5ValueEQrQS9__Xcldtfp_2asIT_EEE
FUNC 7b520 20 0 _ZN5geode15UnwrapExceptionC2IRNSt6__ndk16vectorIiNS2_9allocatorIiEEEEQntsr4implE18IsStringStreamableIT_EEENS_4impl5OkTagEOS8_
FUNC 7b540 e 0 std::__ndk1::__variant_detail::__visitation::__base::__dispatcher<(unsigned int)0>::__dispatch[abi:ne180000]<std::__ndk1::__variant_detail::__dtor<std::__ndk1::__variant_detail::__traits<std::__ndk1::vector<int, std::__ndk1::allocator<int> >, std::__ndk1::basic_string<char, std::__ndk1::char_traits<char>, std::__ndk1::vector<char> > >, (std::__ndk1::__variant_detail::_Trait)1>::__destroy[abi:ne180000]()::{lambda(auto:1&)#1}, std::__ndk1::__variant_detail::__base<(std::__ndk1::__variant_detail::__traits<std::__ndk1::vector<int, std::__ndk1::allocator<int> >, std::__ndk1::basic_string<char, std::__ndk1::char_traits<char>, std::__ndk1::vector<char> > >)1, std::__ndk1::allocator<int>, std::__ndk1::vector<char> >&>(std::__ndk1::__variant_detail::__dtor<std::__ndk1::__variant_detail::__traits<std::__ndk1::vector<int, std::__ndk1::allocator<int> >, std::__ndk1::basic_string<char, std::__ndk1::char_traits<char>, std::__ndk1::vector<char> > >, (std::__ndk1::__variant_detail::_Trait)1>, std::__ndk1::__variant_detail::__base<(std::__ndk1::__variant_detail::__traits<std::__ndk1::vector<int, std::__ndk1::allocator<int> >, std::__ndk1::basic_string<char, std::__ndk1::char_traits<char>, std::__ndk1::vector<char> > >)1, std::__ndk1::allocator<int>, std::__ndk1::vector<char> >&)
FUNC 7b54e e 0 std::__ndk1::__variant_detail::__visitation::__base::__dispatcher<(unsigned int)1>::__dispatch[abi:ne180000]<std::__ndk1::__variant_detail::__dtor<std::__ndk1::__variant_detail::__traits<std::__ndk1::vector<int, std::__ndk1::allocator<int> >, std::__ndk1::basic_string<char, std::__ndk1::char_traits<char>, std::__ndk1::vector<char> > >, (std::__ndk1::__variant_detail::_Trait)1>::__destroy[abi:ne180000]()::{lambda(auto:1&)#1}, std::__ndk1::__variant_detail::__base<(std::__ndk1::__variant_detail::__traits<std::__ndk1::vector<int, std::__ndk1::allocator<int> >, std::__ndk1::basic_string<char, std::__ndk1::char_traits<char>, std::__ndk1::vector<char> > >)1, std::__ndk1::allocator<int>, std::__ndk1::vector<char> >&>(std::__ndk1::__variant_detail::__dtor<std::__ndk1::__variant_detail::__traits<std::__ndk1::vector<int, std::__ndk1::allocator<int> >, std::__ndk1::basic_string<char, std::__ndk1::char_traits<char>, std::__ndk1::vector<char> > >, (std::__ndk1::__variant_detail::_Trait)1>, std::__ndk1::__variant_detail::__base<(std::__ndk1::__variant_detail::__traits<std::__ndk1::vector<int, std::__ndk1::allocator<int> >, std::__ndk1::basic_string<char, std::__ndk1::char_traits<char>, std::__ndk1::vector<char> > >)1, std::__ndk1::allocator<int>, std::__ndk1::vector<char> >&)
FUNC 7b55c 3f8 0 _ZN7matjson9SerializeINSt6__ndk16vectorINS1_12basic_stringIcNS1_11char_traitsIcEENS1_9allocatorIcEEEENS6_IS8_EEEEE8fromJsonERKNS_5ValueEQrQSE__Xcldtfp_2asIT_EEE
FUNC 7b954 20 0 _ZN5geode15UnwrapExceptionC2IRNSt6__ndk16vectorINS2_12basic_stringIcNS2_11char_traitsIcEENS2_9allocatorIcEEEENS7_IS9_EEEEQntsr4implE18IsStringStreamableIT_EEENS_4impl5OkTagEOSD_
FUNC 7b974 44 0 std::__ndk1::__variant_detail::__visitation::__base::__dispatcher<(unsigned int)0>::__dispatch[abi:ne180000]<std::__ndk1::__variant_detail::__dtor<std::__ndk1::__variant_detail::__traits<std::__ndk1::vector<std::__ndk1::basic_string<char, std::__ndk1::char_traits<char>, std::__ndk1::allocator<char> >, std::__ndk1::char_traits<char><std::__ndk1::allocator<char> > >, std::__ndk1::allocator<char> >, (std::__ndk1::__variant_detail::_Trait)1>::__destroy[abi:ne180000]()::{lambda(auto:1&)#1}, std::__ndk1::__variant_detail::__base<(std::__ndk1::__variant_detail::__traits<std::__ndk1::vector<std::__ndk1::basic_string<char, std::__ndk1::char_traits<char>, std::__ndk1::allocator<char> >, std::__ndk1::char_traits<char><std::__ndk1::allocator<char> > >, std::__ndk1::allocator<char> >)1, std::__ndk1::char_traits<char><std::__ndk1::allocator<char> >, std::__ndk1::allocator<char> >&>(std::__ndk1::__variant_detail::__dtor<std::__ndk1::__variant_detail::__traits<std::__ndk1::vector<std::__ndk1::basic_string<char, std::__ndk1::char_traits<char>, std::__ndk1::allocator<char> >, std::__ndk1::char_traits<char><std::__ndk1::allocator<char> > >, std::__ndk1::allocator<char> >, (std::__ndk1::__variant_detail::_Trait)1>, std::__ndk1::__variant_detail::__base<(std::__ndk1::__variant_detail::__traits<std::__ndk1::vector<std::__ndk1::basic_string<char, std::__ndk1::char_traits<char>, std::__ndk1::allocator<char> >, std::__ndk1::char_traits<char><std::__ndk1::allocator<char> > >, std::__ndk1::allocator<char> >)1, std::__ndk1::char_traits<char><std::__ndk1::allocator<char> >, std::__ndk1::allocator<char> >&)
FUNC 7b9b8 e 0 std::__ndk1::__variant_detail::__visitation::__base::__dispatcher<(unsigned int)1>::__dispatch[abi:ne180000]<std::__ndk1::__variant_detail::__dtor<std::__ndk1::__variant_detail::__traits<std::__ndk1::vector<std::__ndk1::basic_string<char, std::__ndk1::char_traits<char>, std::__ndk1::allocator<char> >, std::__ndk1::char_traits<char><std::__ndk1::allocator<char> > >, std::__ndk1::allocator<char> >, (std::__ndk1::__variant_detail::_Trait)1>::__destroy[abi:ne180000]()::{lambda(auto:1&)#1}, std::__ndk1::__variant_detail::__base<(std::__ndk1::__variant_detail::__traits<std::__ndk1::vector<std::__ndk1::basic_string<char, std::__ndk1::char_traits<char>, std::__ndk1::allocator<char> >, std::__ndk1::char_traits<char><std::__ndk1::allocator<char> > >, std::__ndk1::allocator<char> >)1, std::__ndk1::char_traits<char><std::__ndk1::allocator<char> >, std::__ndk1::allocator<char> >&>(std::__ndk1::__variant_detail::__dtor<std::__ndk1::__variant_detail::__traits<std::__ndk1::vector<std::__ndk1::basic_string<char, std::__ndk1::char_traits<char>, std::__ndk1::allocator<char> >, std::__ndk1::char_traits<char><std::__ndk1::allocator<char> > >, std::__ndk1::allocator<char> >, (std::__ndk1::__variant_detail::_Trait)1>, std::__ndk1::__variant_detail::__base<(std::__ndk1::__variant_detail::__traits<std::__ndk1::vector<std::__ndk1::basic_string<char, std::__ndk1::char_traits<char>, std::__ndk1::allocator<char> >, std::__ndk1::char_traits<char><std::__ndk1::allocator<char> > >, std::__ndk1::allocator<char> >)1, std::__ndk1::char_traits<char><std::__ndk1::allocator<char> >, std::__ndk1::allocator<char> >&)
FUNC 7b9c6 2 0 std::__ndk1::__variant_detail::__visitation::__base::__dispatcher<(unsigned int)0>::__dispatch[abi:ne180000]<std::__ndk1::__variant_detail::__dtor<std::__ndk1::__variant_detail::__traits<long long, std::__ndk1::basic_string<char, std::__ndk1::char_traits<char>, std::__ndk1::allocator<char> > >, (std::__ndk1::__variant_detail::_Trait)1>::__destroy[abi:ne180000]()::{lambda(auto:1&)#1}, std::__ndk1::__variant_detail::__base<(std::__ndk1::__variant_detail::__traits<long long, std::__ndk1::basic_string<char, std::__ndk1::char_traits<char>, std::__ndk1::allocator<char> > >)1, long long, std::__ndk1::allocator<char> >&>(std::__ndk1::__variant_detail::__dtor<std::__ndk1::__variant_detail::__traits<long long, std::__ndk1::basic_string<char, std::__ndk1::char_traits<char>, std::__ndk1::allocator<char> > >, (std::__ndk1::__variant_detail::_Trait)1>, std::__ndk1::__variant_detail::__base<(std::__ndk1::__variant_detail::__traits<long long, std::__ndk1::basic_string<char, std::__ndk1::char_traits<char>, std::__ndk1::allocator<char> > >)1, long long, std::__ndk1::allocator<char> >&)
