MODULE Linux arm64 1F6D9E669370B46B085B76DA4B66C5170 alphalaneous.relocate_build_tools.android64.so
INFO CODE_ID 669E6D1F70936BB4085B76DA4B66C517B3DE71D0
INFO GENERATOR mozilla/dump_syms 2.3.4
PUBLIC b830 0 __on_dlclose
PUBLIC b840 0 __emutls_unregister_key
PUBLIC b848 0 __on_dlclose_late
PUBLIC b850 0 __atexit_handler_wrapper
PUBLIC b864 0 atexit
PUBLIC b880 0 pthread_atfork
PUBLIC b890 0 unwind_phase2
PUBLIC b9c4 0 _Unwind_Resume
PUBLIC ba48 0 unwind_phase2_forced
PUBLIC m bb3c 0 __unw_init_local
PUBLIC m bbe4 0 __unw_get_reg
PUBLIC bc60 0 __unw_step_stage2
PUBLIC m bc74 0 __unw_get_proc_info
PUBLIC m bcb4 0 __unw_resume
PUBLIC bcdc 0 libunwind::CFI_Parser<libunwind::LocalAddressSpace>::decodeFDE(libunwind::LocalAddressSpace&, unsigned long, libunwind::CFI_Parser<libunwind::LocalAddressSpace>::FDE_Info*, libunwind::CFI_Parser<libunwind::LocalAddressSpace>::CIE_Info*, bool)
PUBLIC be6c 0 libunwind::CFI_Parser<libunwind::LocalAddressSpace>::parseCIE(libunwind::LocalAddressSpace&, unsigned long, libunwind::CFI_Parser<libunwind::LocalAddressSpace>::CIE_Info*)
PUBLIC c134 0 libunwind::AbstractUnwindCursor::~AbstractUnwindCursor()
PUBLIC c13c 0 libunwind::UnwindCursor<libunwind::LocalAddressSpace, libunwind::Registers_arm64>::~UnwindCursor()
PUBLIC c144 0 libunwind::UnwindCursor<libunwind::LocalAddressSpace, libunwind::Registers_arm64>::validReg(int)
PUBLIC c188 0 libunwind::UnwindCursor<libunwind::LocalAddressSpace, libunwind::Registers_arm64>::getReg(int)
PUBLIC c270 0 libunwind::UnwindCursor<libunwind::LocalAddressSpace, libunwind::Registers_arm64>::setReg(int, unsigned long)
PUBLIC c358 0 libunwind::UnwindCursor<libunwind::LocalAddressSpace, libunwind::Registers_arm64>::validFloatReg(int)
PUBLIC c36c 0 libunwind::UnwindCursor<libunwind::LocalAddressSpace, libunwind::Registers_arm64>::getFloatReg(int)
PUBLIC c37c 0 libunwind::UnwindCursor<libunwind::LocalAddressSpace, libunwind::Registers_arm64>::setFloatReg(int, double)
PUBLIC c38c 0 libunwind::UnwindCursor<libunwind::LocalAddressSpace, libunwind::Registers_arm64>::step(bool)
PUBLIC c47c 0 libunwind::UnwindCursor<libunwind::LocalAddressSpace, libunwind::Registers_arm64>::getInfo(unw_proc_info_t*)
PUBLIC c4c0 0 libunwind::UnwindCursor<libunwind::LocalAddressSpace, libunwind::Registers_arm64>::jumpto()
PUBLIC c4cc 0 libunwind::UnwindCursor<libunwind::LocalAddressSpace, libunwind::Registers_arm64>::isSignalFrame()
PUBLIC c4d8 0 libunwind::UnwindCursor<libunwind::LocalAddressSpace, libunwind::Registers_arm64>::getFunctionName(char*, unsigned long, unsigned long*)
PUBLIC c504 0 libunwind::UnwindCursor<libunwind::LocalAddressSpace, libunwind::Registers_arm64>::setInfoBasedOnIPRegister(bool)
PUBLIC c784 0 libunwind::UnwindCursor<libunwind::LocalAddressSpace, libunwind::Registers_arm64>::getRegisterName(int)
PUBLIC c790 0 libunwind::UnwindCursor<libunwind::LocalAddressSpace, libunwind::Registers_arm64>::stepThroughSigReturn(libunwind::Registers_arm64&)
PUBLIC c8b0 0 libunwind::DwarfInstructions<libunwind::LocalAddressSpace, libunwind::Registers_arm64>::stepWithDwarf(libunwind::LocalAddressSpace&, unsigned long, unsigned long, libunwind::Registers_arm64&, bool&, bool)
PUBLIC cd38 0 libunwind::CFI_Parser<libunwind::LocalAddressSpace>::parseFDEInstructions(libunwind::LocalAddressSpace&, libunwind::CFI_Parser<libunwind::LocalAddressSpace>::FDE_Info const&, libunwind::CFI_Parser<libunwind::LocalAddressSpace>::CIE_Info const&, unsigned long, int, libunwind::CFI_Parser<libunwind::LocalAddressSpace>::PrologInfo*)
PUBLIC d980 0 libunwind::DwarfInstructions<libunwind::LocalAddressSpace, libunwind::Registers_arm64>::getCFA(libunwind::LocalAddressSpace&, libunwind::CFI_Parser<libunwind::LocalAddressSpace>::PrologInfo const&, libunwind::Registers_arm64 const&)
PUBLIC dab4 0 libunwind::DwarfInstructions<libunwind::LocalAddressSpace, libunwind::Registers_arm64>::getSavedRegister(libunwind::LocalAddressSpace&, libunwind::Registers_arm64 const&, unsigned long, libunwind::CFI_Parser<libunwind::LocalAddressSpace>::RegisterLocation const&)
PUBLIC dcc4 0 libunwind::LocalAddressSpace::getEncodedP(unsigned long&, unsigned long, unsigned char, unsigned long)
PUBLIC e050 0 libunwind::LocalAddressSpace::getULEB128(unsigned long&, unsigned long)
PUBLIC e218 0 libunwind::DwarfInstructions<libunwind::LocalAddressSpace, libunwind::Registers_arm64>::evaluateExpression(unsigned long, libunwind::LocalAddressSpace&, libunwind::Registers_arm64 const&, unsigned long)
PUBLIC ebd4 0 libunwind::UnwindCursor<libunwind::LocalAddressSpace, libunwind::Registers_arm64>::getInfoFromDwarfSection(unsigned long, libunwind::UnwindInfoSections const&, unsigned int)
PUBLIC eea8 0 libunwind::findUnwindSectionsByPhdr(dl_phdr_info*, unsigned long, void*)
PUBLIC efdc 0 libunwind::EHHeaderParser<libunwind::LocalAddressSpace>::decodeEHHdr(libunwind::LocalAddressSpace&, unsigned long, unsigned long, libunwind::EHHeaderParser<libunwind::LocalAddressSpace>::EHHeaderInfo&)
PUBLIC f0fc 0 libunwind::CFI_Parser<libunwind::LocalAddressSpace>::findFDE(libunwind::LocalAddressSpace&, unsigned long, unsigned long, unsigned long, unsigned long, libunwind::CFI_Parser<libunwind::LocalAddressSpace>::FDE_Info*, libunwind::CFI_Parser<libunwind::LocalAddressSpace>::CIE_Info*)
PUBLIC f2c4 0 libunwind::EHHeaderParser<libunwind::LocalAddressSpace>::findFDE(libunwind::LocalAddressSpace&, unsigned long, unsigned long, unsigned int, libunwind::CFI_Parser<libunwind::LocalAddressSpace>::FDE_Info*, libunwind::CFI_Parser<libunwind::LocalAddressSpace>::CIE_Info*)
PUBLIC f42c 0 libunwind::EHHeaderParser<libunwind::LocalAddressSpace>::getTableEntrySize(unsigned char)
PUBLIC f528 0 libunwind::Registers_arm64::getRegisterName(int)
PUBLIC f558 0 __libunwind_Registers_arm64_jumpto
PUBLIC m f5e8 0 __unw_getcontext
PUBLIC f690 0 __aarch64_ldadd8_relax
PUBLIC f6c0 0 init_have_lse_atomics
PUBLIC f758 0 __init_cpu_features_constructor
PUBLIC fcf4 0 __init_cpu_features
PUBLIC fd80 0 __aarch64_ldadd8_acq_rel
PUBLIC fdb0 0 _ZNSt6__ndk14pairIKNS_12basic_stringIcNS_11char_traitsIcEENS_9allocatorIcEEEES6_EC2B8ne180000IRA13_KcRA12_SA_TnNS_9enable_ifIXclsr10_CheckArgsE17__enable_implicitIT_T0_EEEiE4typeELi0EEEOSG_OSH_
PUBLIC fee8 0 _ZNSt6__ndk14pairIKNS_12basic_stringIcNS_11char_traitsIcEENS_9allocatorIcEEEES6_EC2B8ne180000IRA7_KcSC_TnNS_9enable_ifIXclsr10_CheckArgsE17__enable_implicitIT_T0_EEEiE4typeELi0EEEOSE_OSF_
PUBLIC 10020 0 _ZNSt6__ndk14pairIKNS_12basic_stringIcNS_11char_traitsIcEENS_9allocatorIcEEEES6_EC2B8ne180000IRA11_KcRA13_SA_TnNS_9enable_ifIXclsr10_CheckArgsE17__enable_implicitIT_T0_EEEiE4typeELi0EEEOSG_OSH_
PUBLIC 10158 0 std::__ndk1::pair<std::__ndk1::basic_string<char, std::__ndk1::char_traits<char>, std::__ndk1::allocator<char> > const, std::__ndk1::basic_string<char, std::__ndk1::char_traits<char>, std::__ndk1::allocator<char> > >::~pair()
PUBLIC 1019c 0 std::__ndk1::map<std::__ndk1::basic_string<char, std::__ndk1::char_traits<char>, std::__ndk1::allocator<char> >, std::__ndk1::basic_string<char, std::__ndk1::char_traits<char>, std::__ndk1::allocator<char> >, std::__ndk1::less<std::__ndk1::basic_string<char, std::__ndk1::char_traits<char>, std::__ndk1::allocator<char> > >, std::__ndk1::allocator<std::__ndk1::pair<std::__ndk1::basic_string<char, std::__ndk1::char_traits<char>, std::__ndk1::allocator<char> > const, std::__ndk1::basic_string<char, std::__ndk1::char_traits<char>, std::__ndk1::allocator<char> > > > >::~map[abi:ne180000]()
PUBLIC 101a4 0 geode::Mod::getSettingValue<std::__ndk1::basic_string<char, std::__ndk1::char_traits<char>, std::__ndk1::allocator<char> > >(std::__ndk1::basic_string_view<char, std::__ndk1::char_traits<char> >) const
PUBLIC 1033c 0 geode::cocos::CCArrayExt<cocos2d::CCNode*, cocos2d::CCNode>::~CCArrayExt()
PUBLIC 10358 0 __cxx_global_var_init.36
PUBLIC 10ac0 0 geode::modifier::ModifyBase<geode::modifier::ModifyDerive<MyEditorPauseLayer, EditorPauseLayer> >::~ModifyBase()
PUBLIC 10ad8 0 __cxx_global_var_init.37
PUBLIC 10f5c 0 geode::modifier::ModifyBase<geode::modifier::ModifyDerive<MyEditorUI, EditorUI> >::~ModifyBase()
PUBLIC 10f74 0 std::__ndk1::basic_string<char, std::__ndk1::char_traits<char>, std::__ndk1::allocator<char> >::__throw_length_error[abi:ne180000]() const
PUBLIC 10f88 0 std::__ndk1::__throw_length_error[abi:ne180000](char const*)
PUBLIC 10fd8 0 std::length_error::length_error[abi:ne180000](char const*)
PUBLIC 11008 0 std::__throw_bad_array_new_length([abi:ne180000], void)
PUBLIC 1103c 0 __clang_call_terminate
PUBLIC 1104c 0 geode::modifier::ModifyDerive<MyEditorPauseLayer, EditorPauseLayer>::apply()
PUBLIC 11658 0 std::__ndk1::shared_ptr<geode::Hook>::~shared_ptr[abi:ne180000]()
PUBLIC 116a8 0 geode::impl::ResultData<geode::Hook*, std::__ndk1::basic_string<char, std::__ndk1::char_traits<char>, std::__ndk1::allocator<char> > >::~ResultData()
PUBLIC 1171c 0 std::__ndk1::vector<std::__ndk1::basic_string<char, std::__ndk1::char_traits<char>, std::__ndk1::allocator<char> >, std::__ndk1::allocator<std::__ndk1::basic_string<char, std::__ndk1::char_traits<char>, std::__ndk1::allocator<char> > > >::~vector[abi:ne180000]()
PUBLIC 11798 0 geode::modifier::ModifyBase<geode::modifier::ModifyDerive<MyEditorPauseLayer, EditorPauseLayer> >::apply()
PUBLIC 1179c 0 std::__ndk1::__tree<std::__ndk1::__value_type<std::__ndk1::basic_string<char, std::__ndk1::char_traits<char>, std::__ndk1::allocator<char> >, std::__ndk1::shared_ptr<geode::Hook> >, std::__ndk1::__map_value_compare<std::__ndk1::basic_string<char, std::__ndk1::char_traits<char>, std::__ndk1::allocator<char> >, std::__ndk1::__value_type<std::__ndk1::basic_string<char, std::__ndk1::char_traits<char>, std::__ndk1::allocator<char> >, std::__ndk1::shared_ptr<geode::Hook> >, std::__ndk1::less<std::__ndk1::basic_string<char, std::__ndk1::char_traits<char>, std::__ndk1::allocator<char> > >, true>, std::__ndk1::allocator<std::__ndk1::__value_type<std::__ndk1::basic_string<char, std::__ndk1::char_traits<char>, std::__ndk1::allocator<char> >, std::__ndk1::shared_ptr<geode::Hook> > > >::find<std::__ndk1::basic_string<char, std::__ndk1::char_traits<char>, std::__ndk1::allocator<char> > >(std::__ndk1::basic_string<char, std::__ndk1::char_traits<char>, std::__ndk1::allocator<char> > const&)
PUBLIC 118bc 0 std::__ndk1::unique_ptr<std::__ndk1::__tree_node<std::__ndk1::__value_type<std::__ndk1::basic_string<char, std::__ndk1::char_traits<char>, std::__ndk1::allocator<char> >, std::__ndk1::shared_ptr<geode::Hook> >, void*>, std::__ndk1::__tree_node_destructor<std::__ndk1::allocator<std::__ndk1::__tree_node<std::__ndk1::__value_type<std::__ndk1::basic_string<char, std::__ndk1::char_traits<char>, std::__ndk1::allocator<char> >, std::__ndk1::shared_ptr<geode::Hook> >, void*> > > >::~unique_ptr[abi:ne180000]()
PUBLIC 11938 0 std::__ndk1::basic_string<char, std::__ndk1::char_traits<char>, std::__ndk1::allocator<char> >::__init_copy_ctor_external(char const*, unsigned long)
PUBLIC 119b8 0 std::__ndk1::__tree_balance_after_insert[abi:ne180000]<std::__ndk1::__tree_node_base<void*>*>(std::__ndk1::__tree_node_base<void*>*, std::__ndk1::__tree_node_base<void*>*)
PUBLIC 11b68 0 _ZN5geode15UnwrapExceptionC2IRPNS_4HookEQsr4implE18IsStringStreamableIT_EEENS_4impl5OkTagEOS5_
PUBLIC 11cbc 0 std::__ndk1::__throw_bad_variant_access[abi:ne180000]()
PUBLIC 11cf0 0 std::__ndk1::basic_stringstream<char, std::__ndk1::char_traits<char>, std::__ndk1::allocator<char> >::basic_stringstream[abi:ne180000]()
PUBLIC m 11e1c 0 std::__ndk1::basic_stringstream<char, std::__ndk1::char_traits<char>, std::__ndk1::allocator<char> >::~basic_stringstream()
PUBLIC 11e9c 0 geode::UnwrapException::~UnwrapException()
PUBLIC 11ec0 0 std::__ndk1::__put_character_sequence[abi:ne180000]<char, std::__ndk1::char_traits<char> >(std::__ndk1::basic_ostream<char, std::__ndk1::char_traits<char> >, std::__ndk1::basic_ostream const*, unsigned long)
PUBLIC 12064 0 std::__ndk1::__pad_and_output[abi:ne180000]<char, std::__ndk1::char_traits<char> >(std::__ndk1::char_traits<char>, std::__ndk1::ostreambuf_iterator const*, std::__ndk1::ostreambuf_iterator const, std::__ndk1::ostreambuf_iterator const, std::__ndk1::ios_base&, std::__ndk1::ostreambuf_iterator)
PUBLIC 12240 0 std::__ndk1::basic_stringbuf<char, std::__ndk1::char_traits<char>, std::__ndk1::allocator<char> >::str[abi:ne180000]() &&
PUBLIC 123b8 0 std::__ndk1::basic_stringbuf<char, std::__ndk1::char_traits<char>, std::__ndk1::allocator<char> >::__init_buf_ptrs[abi:ne180000]()
PUBLIC 12500 0 _ZN5geode15UnwrapExceptionC2IRNSt6__ndk112basic_stringIcNS2_11char_traitsIcEENS2_9allocatorIcEEEEQsr4implE18IsStringStreamableIT_EEENS_4impl6ErrTagEOSA_
PUBLIC 12668 0 std::__ndk1::__variant_detail::__visitation::__base::__dispatcher<(unsigned long)0>::__dispatch[abi:ne180000]<std::__ndk1::__variant_detail::__dtor<std::__ndk1::__variant_detail::__traits<std::__ndk1::monostate, std::__ndk1::basic_string<char, std::__ndk1::char_traits<char>, std::__ndk1::allocator<char> > >, (std::__ndk1::__variant_detail::_Trait)1>::__destroy[abi:ne180000]()::{lambda(auto:1&)#1}, std::__ndk1::__variant_detail::__base<(std::__ndk1::__variant_detail::__traits<std::__ndk1::monostate, std::__ndk1::basic_string<char, std::__ndk1::char_traits<char>, std::__ndk1::allocator<char> > >)1, std::__ndk1::__variant_detail::__traits, std::__ndk1::allocator<char> >&>(std::__ndk1::__variant_detail::__dtor<std::__ndk1::__variant_detail::__traits<std::__ndk1::monostate, std::__ndk1::basic_string<char, std::__ndk1::char_traits<char>, std::__ndk1::allocator<char> > >, (std::__ndk1::__variant_detail::_Trait)1>, std::__ndk1::__variant_detail::__base<(std::__ndk1::__variant_detail::__traits<std::__ndk1::monostate, std::__ndk1::basic_string<char, std::__ndk1::char_traits<char>, std::__ndk1::allocator<char> > >)1, std::__ndk1::__variant_detail::__traits, std::__ndk1::allocator<char> >&)
PUBLIC 1266c 0 std::__ndk1::__variant_detail::__visitation::__base::__dispatcher<(unsigned long)1>::__dispatch[abi:ne180000]<std::__ndk1::__variant_detail::__dtor<std::__ndk1::__variant_detail::__traits<std::__ndk1::monostate, std::__ndk1::basic_string<char, std::__ndk1::char_traits<char>, std::__ndk1::allocator<char> > >, (std::__ndk1::__variant_detail::_Trait)1>::__destroy[abi:ne180000]()::{lambda(auto:1&)#1}, std::__ndk1::__variant_detail::__base<(std::__ndk1::__variant_detail::__traits<std::__ndk1::monostate, std::__ndk1::basic_string<char, std::__ndk1::char_traits<char>, std::__ndk1::allocator<char> > >)1, std::__ndk1::__variant_detail::__traits, std::__ndk1::allocator<char> >&>(std::__ndk1::__variant_detail::__dtor<std::__ndk1::__variant_detail::__traits<std::__ndk1::monostate, std::__ndk1::basic_string<char, std::__ndk1::char_traits<char>, std::__ndk1::allocator<char> > >, (std::__ndk1::__variant_detail::_Trait)1>, std::__ndk1::__variant_detail::__base<(std::__ndk1::__variant_detail::__traits<std::__ndk1::monostate, std::__ndk1::basic_string<char, std::__ndk1::char_traits<char>, std::__ndk1::allocator<char> > >)1, std::__ndk1::__variant_detail::__traits, std::__ndk1::allocator<char> >&)
PUBLIC 12680 0 std::__ndk1::vector<std::__ndk1::basic_string<char, std::__ndk1::char_traits<char>, std::__ndk1::allocator<char> >, std::__ndk1::allocator<std::__ndk1::basic_string<char, std::__ndk1::char_traits<char>, std::__ndk1::allocator<char> > > >::__push_back_slow_path<std::__ndk1::basic_string<char, std::__ndk1::char_traits<char>, std::__ndk1::allocator<char> > const&>(std::__ndk1::basic_string<char, std::__ndk1::char_traits<char>, std::__ndk1::allocator<char> > const&)
PUBLIC 128a4 0 std::__ndk1::__split_buffer<std::__ndk1::basic_string<char, std::__ndk1::char_traits<char>, std::__ndk1::allocator<char> >, std::__ndk1::allocator<std::__ndk1::basic_string<char, std::__ndk1::char_traits<char>, std::__ndk1::allocator<char> > >&>::~__split_buffer()
PUBLIC 1290c 0 std::__ndk1::vector<std::__ndk1::basic_string<char, std::__ndk1::char_traits<char>, std::__ndk1::allocator<char> >, std::__ndk1::allocator<std::__ndk1::basic_string<char, std::__ndk1::char_traits<char>, std::__ndk1::allocator<char> > > >::__throw_length_error[abi:ne180000]() const
PUBLIC 12920 0 std::__ndk1::__variant_detail::__visitation::__base::__dispatcher<(unsigned long)0>::__dispatch[abi:ne180000]<std::__ndk1::__variant_detail::__dtor<std::__ndk1::__variant_detail::__traits<geode::Hook*, std::__ndk1::basic_string<char, std::__ndk1::char_traits<char>, std::__ndk1::allocator<char> > >, (std::__ndk1::__variant_detail::_Trait)1>::__destroy[abi:ne180000]()::{lambda(auto:1&)#1}, std::__ndk1::__variant_detail::__base<(std::__ndk1::__variant_detail::__traits<geode::Hook*, std::__ndk1::basic_string<char, std::__ndk1::char_traits<char>, std::__ndk1::allocator<char> > >)1, geode::Hook, std::__ndk1::allocator<char> >&>(std::__ndk1::__variant_detail::__dtor<std::__ndk1::__variant_detail::__traits<geode::Hook*, std::__ndk1::basic_string<char, std::__ndk1::char_traits<char>, std::__ndk1::allocator<char> > >, (std::__ndk1::__variant_detail::_Trait)1>, std::__ndk1::__variant_detail::__base<(std::__ndk1::__variant_detail::__traits<geode::Hook*, std::__ndk1::basic_string<char, std::__ndk1::char_traits<char>, std::__ndk1::allocator<char> > >)1, geode::Hook, std::__ndk1::allocator<char> >&)
PUBLIC 12924 0 std::__ndk1::__variant_detail::__visitation::__base::__dispatcher<(unsigned long)1>::__dispatch[abi:ne180000]<std::__ndk1::__variant_detail::__dtor<std::__ndk1::__variant_detail::__traits<geode::Hook*, std::__ndk1::basic_string<char, std::__ndk1::char_traits<char>, std::__ndk1::allocator<char> > >, (std::__ndk1::__variant_detail::_Trait)1>::__destroy[abi:ne180000]()::{lambda(auto:1&)#1}, std::__ndk1::__variant_detail::__base<(std::__ndk1::__variant_detail::__traits<geode::Hook*, std::__ndk1::basic_string<char, std::__ndk1::char_traits<char>, std::__ndk1::allocator<char> > >)1, geode::Hook, std::__ndk1::allocator<char> >&>(std::__ndk1::__variant_detail::__dtor<std::__ndk1::__variant_detail::__traits<geode::Hook*, std::__ndk1::basic_string<char, std::__ndk1::char_traits<char>, std::__ndk1::allocator<char> > >, (std::__ndk1::__variant_detail::_Trait)1>, std::__ndk1::__variant_detail::__base<(std::__ndk1::__variant_detail::__traits<geode::Hook*, std::__ndk1::basic_string<char, std::__ndk1::char_traits<char>, std::__ndk1::allocator<char> > >)1, geode::Hook, std::__ndk1::allocator<char> >&)
PUBLIC 12938 0 std::__ndk1::__tree<std::__ndk1::__value_type<std::__ndk1::basic_string<char, std::__ndk1::char_traits<char>, std::__ndk1::allocator<char> >, std::__ndk1::shared_ptr<geode::Hook> >, std::__ndk1::__map_value_compare<std::__ndk1::basic_string<char, std::__ndk1::char_traits<char>, std::__ndk1::allocator<char> >, std::__ndk1::__value_type<std::__ndk1::basic_string<char, std::__ndk1::char_traits<char>, std::__ndk1::allocator<char> >, std::__ndk1::shared_ptr<geode::Hook> >, std::__ndk1::less<std::__ndk1::basic_string<char, std::__ndk1::char_traits<char>, std::__ndk1::allocator<char> > >, true>, std::__ndk1::allocator<std::__ndk1::__value_type<std::__ndk1::basic_string<char, std::__ndk1::char_traits<char>, std::__ndk1::allocator<char> >, std::__ndk1::shared_ptr<geode::Hook> > > >::erase(std::__ndk1::__tree_const_iterator<std::__ndk1::__value_type<std::__ndk1::basic_string<char, std::__ndk1::char_traits<char>, std::__ndk1::allocator<char> >, std::__ndk1::shared_ptr<geode::Hook> >, std::__ndk1::__tree_node<std::__ndk1::__value_type<std::__ndk1::basic_string<char, std::__ndk1::char_traits<char>, std::__ndk1::allocator<char> >, std::__ndk1::shared_ptr<geode::Hook> >, void*>*, long>)
PUBLIC 12ddc 0 std::__ndk1::__tree<std::__ndk1::__value_type<std::__ndk1::basic_string<char, std::__ndk1::char_traits<char>, std::__ndk1::allocator<char> >, std::__ndk1::shared_ptr<geode::Hook> >, std::__ndk1::__map_value_compare<std::__ndk1::basic_string<char, std::__ndk1::char_traits<char>, std::__ndk1::allocator<char> >, std::__ndk1::__value_type<std::__ndk1::basic_string<char, std::__ndk1::char_traits<char>, std::__ndk1::allocator<char> >, std::__ndk1::shared_ptr<geode::Hook> >, std::__ndk1::less<std::__ndk1::basic_string<char, std::__ndk1::char_traits<char>, std::__ndk1::allocator<char> > >, true>, std::__ndk1::allocator<std::__ndk1::__value_type<std::__ndk1::basic_string<char, std::__ndk1::char_traits<char>, std::__ndk1::allocator<char> >, std::__ndk1::shared_ptr<geode::Hook> > > >::destroy(std::__ndk1::__tree_node<std::__ndk1::__value_type<std::__ndk1::basic_string<char, std::__ndk1::char_traits<char>, std::__ndk1::allocator<char> >, std::__ndk1::shared_ptr<geode::Hook> >, void*>*)
PUBLIC 12e60 0 geode::modifier::AsStaticFunction_init<MyEditorPauseLayer, bool (MyEditorPauseLayer::*)(LevelEditorLayer*)>::Impl<bool (MyEditorPauseLayer::*)(LevelEditorLayer*)>::function(MyEditorPauseLayer*, LevelEditorLayer*)
PUBLIC 13010 0 geode::modifier::AsStaticFunction_onResume<MyEditorPauseLayer, void (MyEditorPauseLayer::*)(cocos2d::CCObject*)>::Impl<void (MyEditorPauseLayer::*)(cocos2d::CCObject*)>::function(MyEditorPauseLayer*, cocos2d::CCObject*)
PUBLIC 13054 0 std::__ndk1::shared_ptr<tulip::hook::CallingConvention>::~shared_ptr[abi:ne180000]()
PUBLIC 130a4 0 tulip::hook::HandlerMetadata::~HandlerMetadata()
PUBLIC 13108 0 std::__ndk1::__tree<std::__ndk1::__value_type<std::__ndk1::basic_string<char, std::__ndk1::char_traits<char>, std::__ndk1::allocator<char> >, std::__ndk1::shared_ptr<geode::Hook> >, std::__ndk1::__map_value_compare<std::__ndk1::basic_string<char, std::__ndk1::char_traits<char>, std::__ndk1::allocator<char> >, std::__ndk1::__value_type<std::__ndk1::basic_string<char, std::__ndk1::char_traits<char>, std::__ndk1::allocator<char> >, std::__ndk1::shared_ptr<geode::Hook> >, std::__ndk1::less<std::__ndk1::basic_string<char, std::__ndk1::char_traits<char>, std::__ndk1::allocator<char> > >, true>, std::__ndk1::allocator<std::__ndk1::__value_type<std::__ndk1::basic_string<char, std::__ndk1::char_traits<char>, std::__ndk1::allocator<char> >, std::__ndk1::shared_ptr<geode::Hook> > > >::__emplace_unique_key_args<std::__ndk1::basic_string<char, std::__ndk1::char_traits<char>, std::__ndk1::allocator<char> >, std::__ndk1::piecewise_construct_t const&, std::__ndk1::tuple<std::__ndk1::basic_string<char, std::__ndk1::char_traits<char>, std::__ndk1::allocator<char> >&&>, std::__ndk1::tuple<> >(std::__ndk1::basic_string<char, std::__ndk1::char_traits<char>, std::__ndk1::allocator<char> > const&, std::__ndk1::piecewise_construct_t const&, std::__ndk1::tuple<std::__ndk1::basic_string<char, std::__ndk1::char_traits<char>, std::__ndk1::allocator<char> >&&>, std::__ndk1::tuple<>)
PUBLIC 13270 0 geode::modifier::FieldIntermediate<MyEditorPauseLayer, EditorPauseLayer>::self()
PUBLIC 133fc 0 geode::modifier::FieldContainer::getField(unsigned long)
PUBLIC 13840 0 geode::modifier::FieldContainer::setField(unsigned long, unsigned long, std::__ndk1::function<void (void*)>)
PUBLIC 1394c 0 geode::modifier::FieldIntermediate<MyEditorPauseLayer, EditorPauseLayer>::fieldDestructor(void*)
PUBLIC 13950 0 std::__ndk1::vector<void*, std::__ndk1::allocator<void*> >::__throw_length_error[abi:ne180000]() const
PUBLIC 13964 0 std::__ndk1::vector<std::__ndk1::function<void (void*)>, std::__ndk1::allocator<std::__ndk1::function<void (void*)> > >::__throw_length_error[abi:ne180000]() const
PUBLIC 13978 0 std::__ndk1::vector<void*, std::__ndk1::allocator<void*> >::__throw_out_of_range[abi:ne180000]() const
PUBLIC 13984 0 std::__ndk1::__throw_out_of_range[abi:ne180000](char const*)
PUBLIC 139d4 0 std::out_of_range::out_of_range[abi:ne180000](char const*)
PUBLIC 13a04 0 std::__ndk1::vector<std::__ndk1::function<void (void*)>, std::__ndk1::allocator<std::__ndk1::function<void (void*)> > >::__throw_out_of_range[abi:ne180000]() const
PUBLIC 13a10 0 std::__ndk1::__function::__base<void (void*)>::~__base()
PUBLIC 13a14 0 std::__ndk1::__function::__func<void (*)(void*), std::__ndk1::allocator<void (*)(void*)>, void (void*)>::~__func()
PUBLIC 13a18 0 std::__ndk1::__function::__func<void (*)(void*), std::__ndk1::allocator<void (*)(void*)>, void (void*)>::__clone() const
PUBLIC 13a50 0 std::__ndk1::__function::__func<void (*)(void*), std::__ndk1::allocator<void (*)(void*)>, void (void*)>::__clone(std::__ndk1::__function::__base<void (void*)>*) const
PUBLIC 13a68 0 std::__ndk1::__function::__func<void (*)(void*), std::__ndk1::allocator<void (*)(void*)>, void (void*)>::destroy()
PUBLIC 13a6c 0 std::__ndk1::__function::__func<void (*)(void*), std::__ndk1::allocator<void (*)(void*)>, void (void*)>::destroy_deallocate()
PUBLIC 13a70 0 std::__ndk1::__function::__func<void (*)(void*), std::__ndk1::allocator<void (*)(void*)>, void (void*)>::operator()(void*&&)
PUBLIC 13a80 0 std::__ndk1::__function::__func<void (*)(void*), std::__ndk1::allocator<void (*)(void*)>, void (void*)>::target(std::type_info const&) const
PUBLIC 13a9c 0 std::__ndk1::__function::__func<void (*)(void*), std::__ndk1::allocator<void (*)(void*)>, void (void*)>::target_type() const
PUBLIC 13aa8 0 std::__ndk1::unique_ptr<std::__ndk1::__tree_node<std::__ndk1::__value_type<std::__ndk1::basic_string<char, std::__ndk1::char_traits<char>, std::__ndk1::allocator<char> >, std::__ndk1::basic_string<char, std::__ndk1::char_traits<char>, std::__ndk1::allocator<char> > >, void*>, std::__ndk1::__tree_node_destructor<std::__ndk1::allocator<std::__ndk1::__tree_node<std::__ndk1::__value_type<std::__ndk1::basic_string<char, std::__ndk1::char_traits<char>, std::__ndk1::allocator<char> >, std::__ndk1::basic_string<char, std::__ndk1::char_traits<char>, std::__ndk1::allocator<char> > >, void*> > > >::~unique_ptr[abi:ne180000]()
PUBLIC 13b04 0 std::__ndk1::__tree<std::__ndk1::__value_type<std::__ndk1::basic_string<char, std::__ndk1::char_traits<char>, std::__ndk1::allocator<char> >, std::__ndk1::basic_string<char, std::__ndk1::char_traits<char>, std::__ndk1::allocator<char> > >, std::__ndk1::__map_value_compare<std::__ndk1::basic_string<char, std::__ndk1::char_traits<char>, std::__ndk1::allocator<char> >, std::__ndk1::__value_type<std::__ndk1::basic_string<char, std::__ndk1::char_traits<char>, std::__ndk1::allocator<char> >, std::__ndk1::basic_string<char, std::__ndk1::char_traits<char>, std::__ndk1::allocator<char> > >, std::__ndk1::less<std::__ndk1::basic_string<char, std::__ndk1::char_traits<char>, std::__ndk1::allocator<char> > >, true>, std::__ndk1::allocator<std::__ndk1::__value_type<std::__ndk1::basic_string<char, std::__ndk1::char_traits<char>, std::__ndk1::allocator<char> >, std::__ndk1::basic_string<char, std::__ndk1::char_traits<char>, std::__ndk1::allocator<char> > > > >::destroy(std::__ndk1::__tree_node<std::__ndk1::__value_type<std::__ndk1::basic_string<char, std::__ndk1::char_traits<char>, std::__ndk1::allocator<char> >, std::__ndk1::basic_string<char, std::__ndk1::char_traits<char>, std::__ndk1::allocator<char> > >, void*>*)
PUBLIC 13b74 0 std::__ndk1::shared_ptr<geode::StringSettingV3>::~shared_ptr[abi:ne180000]()
PUBLIC 13bc4 0 geode::cast::traverseTypeinfoFor(void*, geode::cast::ClassTypeinfoType const*, char const*)
PUBLIC 13cbc 0 std::__ndk1::__tree<std::__ndk1::__value_type<std::__ndk1::basic_string<char, std::__ndk1::char_traits<char>, std::__ndk1::allocator<char> >, std::__ndk1::basic_string<char, std::__ndk1::char_traits<char>, std::__ndk1::allocator<char> > >, std::__ndk1::__map_value_compare<std::__ndk1::basic_string<char, std::__ndk1::char_traits<char>, std::__ndk1::allocator<char> >, std::__ndk1::__value_type<std::__ndk1::basic_string<char, std::__ndk1::char_traits<char>, std::__ndk1::allocator<char> >, std::__ndk1::basic_string<char, std::__ndk1::char_traits<char>, std::__ndk1::allocator<char> > >, std::__ndk1::less<std::__ndk1::basic_string<char, std::__ndk1::char_traits<char>, std::__ndk1::allocator<char> > >, true>, std::__ndk1::allocator<std::__ndk1::__value_type<std::__ndk1::basic_string<char, std::__ndk1::char_traits<char>, std::__ndk1::allocator<char> >, std::__ndk1::basic_string<char, std::__ndk1::char_traits<char>, std::__ndk1::allocator<char> > > > >::__emplace_unique_key_args<std::__ndk1::basic_string<char, std::__ndk1::char_traits<char>, std::__ndk1::allocator<char> >, std::__ndk1::piecewise_construct_t const&, std::__ndk1::tuple<std::__ndk1::basic_string<char, std::__ndk1::char_traits<char>, std::__ndk1::allocator<char> > const&>, std::__ndk1::tuple<> >(std::__ndk1::basic_string<char, std::__ndk1::char_traits<char>, std::__ndk1::allocator<char> > const&, std::__ndk1::piecewise_construct_t const&, std::__ndk1::tuple<std::__ndk1::basic_string<char, std::__ndk1::char_traits<char>, std::__ndk1::allocator<char> > const&>, std::__ndk1::tuple<>)
PUBLIC 13e9c 0 geode::modifier::ModifyDerive<MyEditorUI, EditorUI>::apply()
PUBLIC 141e8 0 geode::modifier::ModifyBase<geode::modifier::ModifyDerive<MyEditorUI, EditorUI> >::apply()
PUBLIC 141ec 0 geode::modifier::AsStaticFunction_init<MyEditorUI, bool (MyEditorUI::*)(LevelEditorLayer*)>::Impl<bool (MyEditorUI::*)(LevelEditorLayer*)>::function(MyEditorUI*, LevelEditorLayer*)
PUBLIC 1455c 0 MyEditorUI::createBuildTools(EditorUI*, CCMenuItemToggler*)
PUBLIC 15c0c 0 geode::modifier::FieldIntermediate<MyEditorUI, EditorUI>::self()
PUBLIC 15d98 0 geode::modifier::FieldIntermediate<MyEditorUI, EditorUI>::fieldDestructor(void*)
PUBLIC 15db8 0 std::__ndk1::__function::__base<void ()>::~__base()
PUBLIC 15dbc 0 std::__ndk1::__function::__func<MyEditorUI::init(LevelEditorLayer*)::{lambda()#1}, std::__ndk1::allocator<MyEditorUI::init(LevelEditorLayer*)::{lambda()#1}>, void ()>::~__func()
PUBLIC 15dc0 0 std::__ndk1::__function::__func<MyEditorUI::init(LevelEditorLayer*)::{lambda()#1}, std::__ndk1::allocator<MyEditorUI::init(LevelEditorLayer*)::{lambda()#1}>, void ()>::__clone() const
PUBLIC 15df4 0 std::__ndk1::__function::__func<MyEditorUI::init(LevelEditorLayer*)::{lambda()#1}, std::__ndk1::allocator<MyEditorUI::init(LevelEditorLayer*)::{lambda()#1}>, void ()>::__clone(std::__ndk1::__function::__base<void ()>*) const
PUBLIC 15e08 0 std::__ndk1::__function::__func<MyEditorUI::init(LevelEditorLayer*)::{lambda()#1}, std::__ndk1::allocator<MyEditorUI::init(LevelEditorLayer*)::{lambda()#1}>, void ()>::destroy()
PUBLIC 15e0c 0 std::__ndk1::__function::__func<MyEditorUI::init(LevelEditorLayer*)::{lambda()#1}, std::__ndk1::allocator<MyEditorUI::init(LevelEditorLayer*)::{lambda()#1}>, void ()>::destroy_deallocate()
PUBLIC 15e10 0 std::__ndk1::__function::__func<MyEditorUI::init(LevelEditorLayer*)::{lambda()#1}, std::__ndk1::allocator<MyEditorUI::init(LevelEditorLayer*)::{lambda()#1}>, void ()>::operator()()
PUBLIC 15eac 0 std::__ndk1::__function::__func<MyEditorUI::init(LevelEditorLayer*)::{lambda()#1}, std::__ndk1::allocator<MyEditorUI::init(LevelEditorLayer*)::{lambda()#1}>, void ()>::target(std::type_info const&) const
PUBLIC 15ec8 0 std::__ndk1::__function::__func<MyEditorUI::init(LevelEditorLayer*)::{lambda()#1}, std::__ndk1::allocator<MyEditorUI::init(LevelEditorLayer*)::{lambda()#1}>, void ()>::target_type() const
PUBLIC 15ed4 0 cocos2d::CCCopying::copyWithZone(cocos2d::CCZone*)
PUBLIC 15edc 0 cocos2d::CCInteger::~CCInteger()
PUBLIC 15f00 0 cocos2d::CCInteger::acceptVisitor(cocos2d::CCDataVisitor&)
PUBLIC 15f18 0 cocos2d::CCObject::update(float)
PUBLIC 15f1c 0 std::__ndk1::__function::__base<cocos2d::CCNode* (EditorUI*, CCMenuItemToggler*)>::~__base()
PUBLIC 15f20 0 std::__ndk1::__function::__func<std::__ndk1::__bind<cocos2d::CCNode* (MyEditorUI::*)(EditorUI*, CCMenuItemToggler*), MyEditorUI*, std::__ndk1::placeholders::__ph<1> const&, std::__ndk1::placeholders::__ph<2> const&>, std::__ndk1::allocator<std::__ndk1::__bind<cocos2d::CCNode* (MyEditorUI::*)(EditorUI*, CCMenuItemToggler*), MyEditorUI*, std::__ndk1::placeholders::__ph<1> const&, std::__ndk1::placeholders::__ph<2> const&> >, cocos2d::CCNode* (EditorUI*, CCMenuItemToggler*)>::~__func()
PUBLIC 15f24 0 std::__ndk1::__function::__func<std::__ndk1::__bind<cocos2d::CCNode* (MyEditorUI::*)(EditorUI*, CCMenuItemToggler*), MyEditorUI*, std::__ndk1::placeholders::__ph<1> const&, std::__ndk1::placeholders::__ph<2> const&>, std::__ndk1::allocator<std::__ndk1::__bind<cocos2d::CCNode* (MyEditorUI::*)(EditorUI*, CCMenuItemToggler*), MyEditorUI*, std::__ndk1::placeholders::__ph<1> const&, std::__ndk1::placeholders::__ph<2> const&> >, cocos2d::CCNode* (EditorUI*, CCMenuItemToggler*)>::__clone() const
PUBLIC 15f64 0 std::__ndk1::__function::__func<std::__ndk1::__bind<cocos2d::CCNode* (MyEditorUI::*)(EditorUI*, CCMenuItemToggler*), MyEditorUI*, std::__ndk1::placeholders::__ph<1> const&, std::__ndk1::placeholders::__ph<2> const&>, std::__ndk1::allocator<std::__ndk1::__bind<cocos2d::CCNode* (MyEditorUI::*)(EditorUI*, CCMenuItemToggler*), MyEditorUI*, std::__ndk1::placeholders::__ph<1> const&, std::__ndk1::placeholders::__ph<2> const&> >, cocos2d::CCNode* (EditorUI*, CCMenuItemToggler*)>::__clone(std::__ndk1::__function::__base<cocos2d::CCNode* (EditorUI*, CCMenuItemToggler*)>*) const
PUBLIC 15f84 0 std::__ndk1::__function::__func<std::__ndk1::__bind<cocos2d::CCNode* (MyEditorUI::*)(EditorUI*, CCMenuItemToggler*), MyEditorUI*, std::__ndk1::placeholders::__ph<1> const&, std::__ndk1::placeholders::__ph<2> const&>, std::__ndk1::allocator<std::__ndk1::__bind<cocos2d::CCNode* (MyEditorUI::*)(EditorUI*, CCMenuItemToggler*), MyEditorUI*, std::__ndk1::placeholders::__ph<1> const&, std::__ndk1::placeholders::__ph<2> const&> >, cocos2d::CCNode* (EditorUI*, CCMenuItemToggler*)>::destroy()
PUBLIC 15f88 0 std::__ndk1::__function::__func<std::__ndk1::__bind<cocos2d::CCNode* (MyEditorUI::*)(EditorUI*, CCMenuItemToggler*), MyEditorUI*, std::__ndk1::placeholders::__ph<1> const&, std::__ndk1::placeholders::__ph<2> const&>, std::__ndk1::allocator<std::__ndk1::__bind<cocos2d::CCNode* (MyEditorUI::*)(EditorUI*, CCMenuItemToggler*), MyEditorUI*, std::__ndk1::placeholders::__ph<1> const&, std::__ndk1::placeholders::__ph<2> const&> >, cocos2d::CCNode* (EditorUI*, CCMenuItemToggler*)>::destroy_deallocate()
PUBLIC 15f8c 0 std::__ndk1::__function::__func<std::__ndk1::__bind<cocos2d::CCNode* (MyEditorUI::*)(EditorUI*, CCMenuItemToggler*), MyEditorUI*, std::__ndk1::placeholders::__ph<1> const&, std::__ndk1::placeholders::__ph<2> const&>, std::__ndk1::allocator<std::__ndk1::__bind<cocos2d::CCNode* (MyEditorUI::*)(EditorUI*, CCMenuItemToggler*), MyEditorUI*, std::__ndk1::placeholders::__ph<1> const&, std::__ndk1::placeholders::__ph<2> const&> >, cocos2d::CCNode* (EditorUI*, CCMenuItemToggler*)>::operator()(EditorUI*&&, CCMenuItemToggler*&&)
PUBLIC 15fb0 0 std::__ndk1::__function::__func<std::__ndk1::__bind<cocos2d::CCNode* (MyEditorUI::*)(EditorUI*, CCMenuItemToggler*), MyEditorUI*, std::__ndk1::placeholders::__ph<1> const&, std::__ndk1::placeholders::__ph<2> const&>, std::__ndk1::allocator<std::__ndk1::__bind<cocos2d::CCNode* (MyEditorUI::*)(EditorUI*, CCMenuItemToggler*), MyEditorUI*, std::__ndk1::placeholders::__ph<1> const&, std::__ndk1::placeholders::__ph<2> const&> >, cocos2d::CCNode* (EditorUI*, CCMenuItemToggler*)>::target(std::type_info const&) const
PUBLIC 15fcc 0 std::__ndk1::__function::__func<std::__ndk1::__bind<cocos2d::CCNode* (MyEditorUI::*)(EditorUI*, CCMenuItemToggler*), MyEditorUI*, std::__ndk1::placeholders::__ph<1> const&, std::__ndk1::placeholders::__ph<2> const&>, std::__ndk1::allocator<std::__ndk1::__bind<cocos2d::CCNode* (MyEditorUI::*)(EditorUI*, CCMenuItemToggler*), MyEditorUI*, std::__ndk1::placeholders::__ph<1> const&, std::__ndk1::placeholders::__ph<2> const&> >, cocos2d::CCNode* (EditorUI*, CCMenuItemToggler*)>::target_type() const
PUBLIC 15fd8 0 _GLOBAL__sub_I_main.cpp
PUBLIC m 16a58 0 geodeImplicitEntry
PUBLIC 16a94 0 std::__ndk1::unordered_map<void*, bool, std::__ndk1::hash<void*>, std::__ndk1::equal_to<void*>, std::__ndk1::allocator<std::__ndk1::pair<void* const, bool> > >::~unordered_map[abi:ne180000]()
PUBLIC 16ae0 0 wrapFunction(unsigned long, tulip::hook::WrapperMetadata const&)
PUBLIC 16c14 0 geode::impl::ResultData<void*, std::__ndk1::basic_string<char, std::__ndk1::char_traits<char>, std::__ndk1::allocator<char> > >::unwrapErr() &
PUBLIC 16c8c 0 geode::impl::ResultData<void*, std::__ndk1::basic_string<char, std::__ndk1::char_traits<char>, std::__ndk1::allocator<char> > >::~ResultData()
PUBLIC 16d00 0 tulip::hook::WrapperMetadata::~WrapperMetadata()
PUBLIC 16d64 0 cocos2d::CCObject::CCObject()
PUBLIC 16f88 0 cocos2d::CCObject::~CCObject()
PUBLIC 16fac 0 cocos2d::CCObject::~CCObject()
PUBLIC 174a0 0 _ZN5geode15UnwrapExceptionC2IRPvQsr4implE18IsStringStreamableIT_EEENS_4impl5OkTagEOS4_
PUBLIC 175f4 0 std::__ndk1::__variant_detail::__visitation::__base::__dispatcher<(unsigned long)0>::__dispatch[abi:ne180000]<std::__ndk1::__variant_detail::__dtor<std::__ndk1::__variant_detail::__traits<void*, std::__ndk1::basic_string<char, std::__ndk1::char_traits<char>, std::__ndk1::allocator<char> > >, (std::__ndk1::__variant_detail::_Trait)1>::__destroy[abi:ne180000]()::{lambda(auto:1&)#1}, std::__ndk1::__variant_detail::__base<(std::__ndk1::__variant_detail::__traits<void*, std::__ndk1::basic_string<char, std::__ndk1::char_traits<char>, std::__ndk1::allocator<char> > >)1, std::__ndk1::__variant_detail::__traits, std::__ndk1::allocator<char> >&>(std::__ndk1::__variant_detail::__dtor<std::__ndk1::__variant_detail::__traits<void*, std::__ndk1::basic_string<char, std::__ndk1::char_traits<char>, std::__ndk1::allocator<char> > >, (std::__ndk1::__variant_detail::_Trait)1>, std::__ndk1::__variant_detail::__base<(std::__ndk1::__variant_detail::__traits<void*, std::__ndk1::basic_string<char, std::__ndk1::char_traits<char>, std::__ndk1::allocator<char> > >)1, std::__ndk1::__variant_detail::__traits, std::__ndk1::allocator<char> >&)
PUBLIC 175f8 0 std::__ndk1::__variant_detail::__visitation::__base::__dispatcher<(unsigned long)1>::__dispatch[abi:ne180000]<std::__ndk1::__variant_detail::__dtor<std::__ndk1::__variant_detail::__traits<void*, std::__ndk1::basic_string<char, std::__ndk1::char_traits<char>, std::__ndk1::allocator<char> > >, (std::__ndk1::__variant_detail::_Trait)1>::__destroy[abi:ne180000]()::{lambda(auto:1&)#1}, std::__ndk1::__variant_detail::__base<(std::__ndk1::__variant_detail::__traits<void*, std::__ndk1::basic_string<char, std::__ndk1::char_traits<char>, std::__ndk1::allocator<char> > >)1, std::__ndk1::__variant_detail::__traits, std::__ndk1::allocator<char> >&>(std::__ndk1::__variant_detail::__dtor<std::__ndk1::__variant_detail::__traits<void*, std::__ndk1::basic_string<char, std::__ndk1::char_traits<char>, std::__ndk1::allocator<char> > >, (std::__ndk1::__variant_detail::_Trait)1>, std::__ndk1::__variant_detail::__base<(std::__ndk1::__variant_detail::__traits<void*, std::__ndk1::basic_string<char, std::__ndk1::char_traits<char>, std::__ndk1::allocator<char> > >)1, std::__ndk1::__variant_detail::__traits, std::__ndk1::allocator<char> >&)
PUBLIC 1760c 0 std::__ndk1::__hash_table<std::__ndk1::__hash_value_type<void*, bool>, std::__ndk1::__unordered_map_hasher<void*, std::__ndk1::__hash_value_type<void*, bool>, std::__ndk1::hash<void*>, std::__ndk1::equal_to<void*>, true>, std::__ndk1::__unordered_map_equal<void*, std::__ndk1::__hash_value_type<void*, bool>, std::__ndk1::equal_to<void*>, std::__ndk1::hash<void*>, true>, std::__ndk1::allocator<std::__ndk1::__hash_value_type<void*, bool> > >::__emplace_unique_key_args<void*, std::__ndk1::piecewise_construct_t const&, std::__ndk1::tuple<void* const&>, std::__ndk1::tuple<> >(void* const&, std::__ndk1::piecewise_construct_t const&, std::__ndk1::tuple<void* const&>, std::__ndk1::tuple<>)
PUBLIC 17b18 0 __udivti3
PUBLIC 17b24 0 __udivmodti4
PUBLIC m 17d70 0 __eqtf2
PUBLIC 17e10 0 __unordtf2
PUBLIC 17e48 0 fmt::v11::detail::write_loc(fmt::v11::basic_appender<char>, fmt::v11::loc_value, fmt::v11::format_specs const&, fmt::v11::detail::locale_ref)
PUBLIC 180dc 0 fmt::v11::format_facet<std::__ndk1::locale>::~format_facet()
PUBLIC 18158 0 fmt::v11::report_error(char const*)
PUBLIC 181a8 0 fmt::v11::format_error::runtime_error(char const*)
PUBLIC 181d4 0 fmt::v11::format_facet<std::__ndk1::locale>::do_put(fmt::v11::basic_appender<char>, fmt::v11::loc_value, fmt::v11::format_specs const&) const
PUBLIC 18994 0 fmt::v11::detail::loc_writer<char>::~loc_writer()
PUBLIC 189f8 0 fmt::v11::detail::vformat_to<char>(fmt::v11::detail::buffer<char>&, fmt::v11::basic_string_view<char>, fmt::v11::detail::vformat_args<char>::type, fmt::v11::detail::locale_ref)
PUBLIC 18f68 0 fmt::v11::detail::is_printable(unsigned int)
PUBLIC 19190 0 fmt::v11::detail::dragonbox::to_decimal<float>(float)
PUBLIC 1946c 0 fmt::v11::detail::dragonbox::to_decimal<double>(double)
PUBLIC 199a8 0 fmt::v11::basic_memory_buffer<char, (unsigned long)500, std::__ndk1::allocator<char> >::grow(fmt::v11::detail::buffer<char>&, unsigned long)
PUBLIC 19a20 0 fmt::v11::format_facet<std::__ndk1::locale>::~format_facet()
PUBLIC 19aac 0 fmt::v11::format_error::~format_error()
PUBLIC 19ad0 0 fmt::v11::detail::copy_noinline<char, char const*, fmt::v11::basic_appender<char> >(char const*, char const*, fmt::v11::basic_appender<char>)
PUBLIC 19c20 0 fmt::v11::detail::default_arg_formatter<char>::operator()<bool>(bool)
PUBLIC 19c88 0 fmt::v11::detail::default_arg_formatter<char>::operator()<char>(char)
PUBLIC 19d18 0 fmt::v11::detail::default_arg_formatter<char>::operator()<float>(float)
PUBLIC 19e04 0 fmt::v11::detail::default_arg_formatter<char>::operator()<double>(double)
PUBLIC 19ef0 0 fmt::v11::detail::default_arg_formatter<char>::operator()<char const*>(char const*)
PUBLIC 19f38 0 fmt::v11::detail::default_arg_formatter<char>::operator()<void const*>(void const*)
PUBLIC 19fd0 0 _ZN3fmt3v116detail5writeIcNS0_14basic_appenderIcEEiTnNSt6__ndk19enable_ifIXaaaasr11is_integralIT1_EE5valuentsr3std7is_sameIS7_bEE5valuentsr3std7is_sameIS7_T_EE5valueEiE4typeELi0EEET0_SB_S7_
PUBLIC 1a230 0 fmt::v11::detail::copy_noinline<char, char*, fmt::v11::basic_appender<char> >(char*, char*, fmt::v11::basic_appender<char>)
PUBLIC 1a380 0 _ZN3fmt3v116detail5writeIcNS0_14basic_appenderIcEEjTnNSt6__ndk19enable_ifIXaaaasr11is_integralIT1_EE5valuentsr3std7is_sameIS7_bEE5valuentsr3std7is_sameIS7_T_EE5valueEiE4typeELi0EEET0_SB_S7_
PUBLIC 1a560 0 _ZN3fmt3v116detail5writeIcNS0_14basic_appenderIcEExTnNSt6__ndk19enable_ifIXaaaasr11is_integralIT1_EE5valuentsr3std7is_sameIS7_bEE5valuentsr3std7is_sameIS7_T_EE5valueEiE4typeELi0EEET0_SB_S7_
PUBLIC 1a7e4 0 _ZN3fmt3v116detail5writeIcNS0_14basic_appenderIcEEyTnNSt6__ndk19enable_ifIXaaaasr11is_integralIT1_EE5valuentsr3std7is_sameIS7_bEE5valuentsr3std7is_sameIS7_T_EE5valueEiE4typeELi0EEET0_SB_S7_
PUBLIC 1a9ec 0 _ZN3fmt3v116detail5writeIcNS0_14basic_appenderIcEEnTnNSt6__ndk19enable_ifIXaaaasr11is_integralIT1_EE5valuentsr3std7is_sameIS7_bEE5valuentsr3std7is_sameIS7_T_EE5valueEiE4typeELi0EEET0_SB_S7_
PUBLIC 1ad4c 0 _ZN3fmt3v116detail5writeIcNS0_14basic_appenderIcEEoTnNSt6__ndk19enable_ifIXaaaasr11is_integralIT1_EE5valuentsr3std7is_sameIS7_bEE5valuentsr3std7is_sameIS7_T_EE5valueEiE4typeELi0EEET0_SB_S7_
PUBLIC 1b060 0 _ZN3fmt3v116detail5writeIcNS0_14basic_appenderIcEEbTnNSt6__ndk19enable_ifIXsr3std7is_sameIT1_bEE5valueEiE4typeELi0EEET0_SA_S7_RKNS0_12format_specsENS1_10locale_refE
PUBLIC 1b2f0 0 fmt::v11::detail::write_int_noinline<char, fmt::v11::basic_appender<char>, unsigned int>(fmt::v11::basic_appender<char>, fmt::v11::detail::write_int_arg<unsigned int>, fmt::v11::format_specs const&, fmt::v11::detail::locale_ref)
PUBLIC 1c0cc 0 fmt::v11::detail::fill<char, fmt::v11::basic_appender<char> >(fmt::v11::basic_appender<char>, unsigned long, fmt::v11::detail::fill_t const&)
PUBLIC 1c29c 0 fmt::v11::detail::write_padded<char, (fmt::v11::align::type)1, fmt::v11::basic_appender<char>, fmt::v11::detail::write_char<char, fmt::v11::basic_appender<char> >(fmt::v11::basic_appender<char>, char, fmt::v11::format_specs const&)::{lambda(fmt::v11::basic_appender<char>&)#1}>(fmt::v11::basic_appender<char>, fmt::v11::format_specs const&, unsigned long, unsigned long, fmt::v11::detail::write_char<char, fmt::v11::basic_appender<char> >(fmt::v11::basic_appender<char>, char, fmt::v11::format_specs const&)::{lambda(fmt::v11::basic_appender<char>&)#1})
PUBLIC 1c4d8 0 fmt::v11::detail::write_escaped_cp<fmt::v11::basic_appender<char>, char>(fmt::v11::basic_appender<char>, fmt::v11::detail::find_escape_result<char> const&)
PUBLIC 1c7e4 0 fmt::v11::detail::write_codepoint<(unsigned long)2, char, fmt::v11::basic_appender<char> >(fmt::v11::basic_appender<char>, char, unsigned int)
PUBLIC 1c95c 0 fmt::v11::detail::write_codepoint<(unsigned long)8, char, fmt::v11::basic_appender<char> >(fmt::v11::basic_appender<char>, char, unsigned int)
PUBLIC 1cad4 0 fmt::v11::detail::write_padded<char, (fmt::v11::align::type)1, fmt::v11::basic_appender<char>, fmt::v11::detail::write_nonfinite<char, fmt::v11::basic_appender<char> >(fmt::v11::basic_appender<char>, bool, fmt::v11::format_specs, fmt::v11::sign::type)::{lambda(fmt::v11::basic_appender<char>&)#1}>(fmt::v11::basic_appender<char>, fmt::v11::format_specs const&, unsigned long, unsigned long, fmt::v11::detail::write_nonfinite<char, fmt::v11::basic_appender<char> >(fmt::v11::basic_appender<char>, bool, fmt::v11::format_specs, fmt::v11::sign::type)::{lambda(fmt::v11::basic_appender<char>&)#1})
PUBLIC 1cd14 0 fmt::v11::detail::do_write_float<char, fmt::v11::basic_appender<char>, fmt::v11::detail::dragonbox::decimal_fp<float>, fmt::v11::detail::digit_grouping<char> >(fmt::v11::basic_appender<char>, fmt::v11::detail::dragonbox::decimal_fp<float> const&, fmt::v11::format_specs const&, fmt::v11::detail::float_specs, fmt::v11::detail::locale_ref)
PUBLIC 1d988 0 fmt::v11::detail::do_write_float<char, fmt::v11::basic_appender<char>, fmt::v11::detail::dragonbox::decimal_fp<float>, fmt::v11::detail::digit_grouping<char> >(fmt::v11::basic_appender<char>, fmt::v11::detail::dragonbox::decimal_fp<float> const&, fmt::v11::format_specs const&, fmt::v11::detail::float_specs, fmt::v11::detail::locale_ref)::{lambda(fmt::v11::basic_appender<char>(fmt::v11::basic_appender<char>))#1}::operator() const
PUBLIC 1dadc 0 fmt::v11::detail::digit_grouping<char>::digit_grouping(fmt::v11::detail::locale_ref, bool)
PUBLIC 1dd48 0 fmt::v11::detail::digit_grouping<char>::~digit_grouping()
PUBLIC 1dd8c 0 fmt::v11::detail::write_exponent<char, fmt::v11::basic_appender<char> >(int, fmt::v11::basic_appender<char>)
PUBLIC 1df5c 0 _ZN3fmt3v116detail17write_significandIcjTnNSt6__ndk19enable_ifIXsr3std11is_integralIT0_EE5valueEiE4typeELi0EEEPT_S9_S5_iiS8_
PUBLIC 1e0d8 0 std::__ndk1::basic_string<char, std::__ndk1::char_traits<char>, std::__ndk1::allocator<char> >::__assign_no_alias<true>(char const*, unsigned long)
PUBLIC 1e184 0 std::__ndk1::basic_string<char, std::__ndk1::char_traits<char>, std::__ndk1::allocator<char> >::__assign_no_alias<false>(char const*, unsigned long)
PUBLIC 1e294 0 fmt::v11::detail::digit_grouping<char>::apply<fmt::v11::basic_appender<char>, char>(fmt::v11::basic_appender<char>, fmt::v11::basic_string_view<char>) const
PUBLIC 1e64c 0 fmt::v11::basic_memory_buffer<int, (unsigned long)500, std::__ndk1::allocator<int> >::grow(fmt::v11::detail::buffer<int>&, unsigned long)
PUBLIC 1e6ec 0 fmt::v11::detail::do_write_float<char, fmt::v11::basic_appender<char>, fmt::v11::detail::dragonbox::decimal_fp<double>, fmt::v11::detail::digit_grouping<char> >(fmt::v11::basic_appender<char>, fmt::v11::detail::dragonbox::decimal_fp<double> const&, fmt::v11::format_specs const&, fmt::v11::detail::float_specs, fmt::v11::detail::locale_ref)
PUBLIC 1f3a0 0 fmt::v11::detail::do_write_float<char, fmt::v11::basic_appender<char>, fmt::v11::detail::dragonbox::decimal_fp<double>, fmt::v11::detail::digit_grouping<char> >(fmt::v11::basic_appender<char>, fmt::v11::detail::dragonbox::decimal_fp<double> const&, fmt::v11::format_specs const&, fmt::v11::detail::float_specs, fmt::v11::detail::locale_ref)::{lambda(fmt::v11::basic_appender<char>(fmt::v11::basic_appender<char>))#1}::operator() const
PUBLIC 1f4f8 0 _ZN3fmt3v116detail17write_significandIcmTnNSt6__ndk19enable_ifIXsr3std11is_integralIT0_EE5valueEiE4typeELi0EEEPT_S9_S5_iiS8_
PUBLIC 1f688 0 fmt::v11::detail::write_float<char, fmt::v11::basic_appender<char>, long double>(fmt::v11::basic_appender<char>, long double, fmt::v11::format_specs, fmt::v11::detail::locale_ref)
PUBLIC 20184 0 fmt::v11::detail::write_padded<char, (fmt::v11::align::type)2, fmt::v11::basic_appender<char>, fmt::v11::detail::write_bytes<char, (fmt::v11::align::type)2, fmt::v11::basic_appender<char> >(fmt::v11::basic_appender<char>, fmt::v11::basic_string_view<char>, fmt::v11::format_specs const&)::{lambda(fmt::v11::basic_appender<char>&)#1}>(fmt::v11::basic_appender<char>, fmt::v11::format_specs const&, unsigned long, unsigned long, fmt::v11::detail::write_bytes<char, (fmt::v11::align::type)2, fmt::v11::basic_appender<char> >(fmt::v11::basic_appender<char>, fmt::v11::basic_string_view<char>, fmt::v11::format_specs const&)::{lambda(fmt::v11::basic_appender<char>&)#1})
PUBLIC 20360 0 fmt::v11::detail::format_dragon(fmt::v11::detail::basic_fp<unsigned __int128>, unsigned int, int, fmt::v11::detail::buffer<char>&, int&)
PUBLIC 21790 0 fmt::v11::detail::bigint::operator<<=(int)
PUBLIC 218b4 0 fmt::v11::detail::bigint::assign_pow10(int)
PUBLIC 22010 0 fmt::v11::detail::bigint::divmod_assign(fmt::v11::detail::bigint const&)
PUBLIC 22330 0 fmt::v11::basic_memory_buffer<unsigned int, (unsigned long)32, std::__ndk1::allocator<unsigned int> >::grow(fmt::v11::detail::buffer<unsigned int>&, unsigned long)
PUBLIC 223d0 0 fmt::v11::detail::do_write_float<char, fmt::v11::basic_appender<char>, fmt::v11::detail::big_decimal_fp, fmt::v11::detail::digit_grouping<char> >(fmt::v11::basic_appender<char>, fmt::v11::detail::big_decimal_fp const&, fmt::v11::format_specs const&, fmt::v11::detail::float_specs, fmt::v11::detail::locale_ref)
PUBLIC 23280 0 fmt::v11::detail::do_write_float<char, fmt::v11::basic_appender<char>, fmt::v11::detail::big_decimal_fp, fmt::v11::detail::digit_grouping<char> >(fmt::v11::basic_appender<char>, fmt::v11::detail::big_decimal_fp const&, fmt::v11::format_specs const&, fmt::v11::detail::float_specs, fmt::v11::detail::locale_ref)::{lambda(fmt::v11::basic_appender<char>(fmt::v11::basic_appender<char>))#1}::operator() const
PUBLIC 233e0 0 fmt::v11::detail::write_padded<char, (fmt::v11::align::type)2, fmt::v11::basic_appender<char>, fmt::v11::detail::write_ptr<char, fmt::v11::basic_appender<char>, unsigned long>(fmt::v11::basic_appender<char>, unsigned long, fmt::v11::format_specs const*)::{lambda(fmt::v11::basic_appender<char>&)#1}>(fmt::v11::basic_appender<char>, fmt::v11::format_specs const&, unsigned long, unsigned long, fmt::v11::detail::write_ptr<char, fmt::v11::basic_appender<char>, unsigned long>(fmt::v11::basic_appender<char>, unsigned long, fmt::v11::format_specs const*)::{lambda(fmt::v11::basic_appender<char>&)#1})
PUBLIC 235f4 0 fmt::v11::detail::parse_replacement_field<char, fmt::v11::detail::vformat_to<char>(fmt::v11::detail::buffer<char>&, fmt::v11::basic_string_view<char>, fmt::v11::detail::vformat_args<char>::type, fmt::v11::detail::locale_ref)::format_handler&>(char const*, char const*, fmt::v11::detail::vformat_to<char>(fmt::v11::detail::buffer<char>&, fmt::v11::basic_string_view<char>, fmt::v11::detail::vformat_args<char>::type, fmt::v11::detail::locale_ref)::format_handler&)
PUBLIC 25290 0 fmt::v11::detail::parse_dynamic_spec<char>(char const*, char const*, int&, fmt::v11::detail::arg_ref<char>&, fmt::v11::basic_format_parse_context<char>&)
PUBLIC 25520 0 fmt::v11::basic_format_args<fmt::v11::context>::get<char>(fmt::v11::basic_string_view<char>) const
PUBLIC 25678 0 fmt::v11::detail::write_int_noinline<char, fmt::v11::basic_appender<char>, unsigned long>(fmt::v11::basic_appender<char>, fmt::v11::detail::write_int_arg<unsigned long>, fmt::v11::format_specs const&, fmt::v11::detail::locale_ref)
PUBLIC 264cc 0 fmt::v11::detail::write_int_noinline<char, fmt::v11::basic_appender<char>, unsigned __int128>(fmt::v11::basic_appender<char>, fmt::v11::detail::write_int_arg<unsigned __int128>, fmt::v11::format_specs const&, fmt::v11::detail::locale_ref)
PUBLIC 27534 0 _ZN3fmt3v116detail15format_hexfloatIdTnNSt6__ndk19enable_ifIXntsr16is_double_doubleIT_EE5valueEiE4typeELi0EEEvS5_NS0_12format_specsERNS1_6bufferIcEE
PUBLIC 27a54 0 fmt::v11::detail::format_float<double>(double, int, fmt::v11::detail::float_specs, fmt::v11::detail::buffer<char>&)
PUBLIC 283f4 0 fmt::v11::detail::write<char, fmt::v11::basic_appender<char> >(fmt::v11::basic_appender<char>, fmt::v11::basic_string_view<char>, fmt::v11::format_specs const&)
PUBLIC 29760 0 fmt::v11::detail::for_each_codepoint<fmt::v11::detail::compute_width(fmt::v11::basic_string_view<char>)::count_code_points>(fmt::v11::basic_string_view<char>, fmt::v11::detail::compute_width(fmt::v11::basic_string_view<char>)::count_code_points)::{lambda(char const*, char const*)#1}::operator()(char const*, char const*) const
PUBLIC 29918 0 fmt::v11::detail::write_int<fmt::v11::basic_appender<char>, unsigned long, char>(fmt::v11::basic_appender<char>, unsigned long, unsigned int, fmt::v11::format_specs const&, fmt::v11::detail::digit_grouping<char> const&)
PUBLIC 29e94 0 fmt::v11::detail::write_int<fmt::v11::basic_appender<char>, unsigned __int128, char>(fmt::v11::basic_appender<char>, unsigned __int128, unsigned int, fmt::v11::format_specs const&, fmt::v11::detail::digit_grouping<char> const&)
PUBLIC 2a510 0 <.plt ELF section in alphalaneous.relocate_build_tools.android64.so>
STACK CFI INIT b830 10 .cfa: sp 0 +
STACK CFI INIT b840 8 .cfa: sp 0 +
STACK CFI INIT b848 8 .cfa: sp 0 +
STACK CFI INIT b850 14 .cfa: sp 0 +
STACK CFI INIT b864 1c .cfa: sp 0 +
STACK CFI INIT b880 10 .cfa: sp 0 +
STACK CFI INIT b890 134 .cfa: sp 0 +
STACK CFI INIT b9c4 84 .cfa: sp 0 +
STACK CFI INIT ba48 f4 .cfa: sp 0 +
STACK CFI INIT bb3c a8 .cfa: sp 0 +
STACK CFI INIT bbe4 7c .cfa: sp 0 +
STACK CFI INIT bc60 14 .cfa: sp 0 +
STACK CFI INIT bc74 40 .cfa: sp 0 +
STACK CFI INIT bcb4 28 .cfa: sp 0 +
STACK CFI INIT bcdc 190 .cfa: sp 0 +
STACK CFI INIT be6c 2c8 .cfa: sp 0 +
STACK CFI INIT c134 8 .cfa: sp 0 +
STACK CFI INIT c13c 8 .cfa: sp 0 +
STACK CFI INIT c144 44 .cfa: sp 0 +
STACK CFI INIT c188 e8 .cfa: sp 0 +
STACK CFI INIT c270 e8 .cfa: sp 0 +
STACK CFI INIT c358 14 .cfa: sp 0 +
STACK CFI INIT c36c 10 .cfa: sp 0 +
STACK CFI INIT c37c 10 .cfa: sp 0 +
STACK CFI INIT c38c f0 .cfa: sp 0 +
STACK CFI INIT c47c 44 .cfa: sp 0 +
STACK CFI INIT c4c0 c .cfa: sp 0 +
STACK CFI INIT c4cc c .cfa: sp 0 +
STACK CFI INIT c4d8 2c .cfa: sp 0 +
STACK CFI INIT c504 280 .cfa: sp 0 +
STACK CFI INIT c784 c .cfa: sp 0 +
STACK CFI INIT c790 120 .cfa: sp 0 +
STACK CFI INIT c8b0 488 .cfa: sp 0 +
STACK CFI INIT cd38 c48 .cfa: sp 0 +
STACK CFI INIT d980 134 .cfa: sp 0 +
STACK CFI INIT dab4 210 .cfa: sp 0 +
STACK CFI INIT dcc4 38c .cfa: sp 0 +
STACK CFI INIT e050 1c8 .cfa: sp 0 +
STACK CFI INIT e218 9bc .cfa: sp 0 +
STACK CFI INIT ebd4 2d4 .cfa: sp 0 +
STACK CFI INIT eea8 134 .cfa: sp 0 +
STACK CFI INIT efdc 120 .cfa: sp 0 +
STACK CFI INIT f0fc 1c8 .cfa: sp 0 +
STACK CFI INIT f2c4 168 .cfa: sp 0 +
STACK CFI INIT f42c fc .cfa: sp 0 +
STACK CFI INIT f528 30 .cfa: sp 0 +
STACK CFI INIT f690 30 .cfa: sp 0 +
STACK CFI INIT f6c0 98 .cfa: sp 0 +
STACK CFI INIT f758 59c .cfa: sp 0 +
STACK CFI INIT fcf4 8c .cfa: sp 0 +
STACK CFI INIT fd80 30 .cfa: sp 0 +
STACK CFI INIT 10158 44 .cfa: sp 0 +
STACK CFI 1015c .cfa: sp 32 +
STACK CFI 10164 .cfa: x29 32 + x19: .cfa -16 + ^ .ra: .cfa -24 + ^ x29: .cfa -32 + ^
STACK CFI 10180 .cfa: sp 32 +
STACK CFI 10188 .cfa: sp 0 +
STACK CFI 1018c .cfa: x29 32 +
STACK CFI 10190 .cfa: sp 32 +
STACK CFI 10198 .cfa: sp 0 +
STACK CFI INIT 1019c 8 .cfa: sp 0 +
STACK CFI INIT 10ac0 18 .cfa: sp 0 +
STACK CFI INIT 10f5c 18 .cfa: sp 0 +
STACK CFI INIT 10f74 14 .cfa: sp 0 +
STACK CFI 10f78 .cfa: sp 16 +
STACK CFI 10f7c .cfa: x29 16 + .ra: .cfa -8 + ^ x29: .cfa -16 + ^
STACK CFI INIT 10fd8 30 .cfa: sp 0 +
STACK CFI 10fdc .cfa: sp 32 +
STACK CFI 10fe4 .cfa: x29 32 + x19: .cfa -16 + ^ .ra: .cfa -24 + ^ x29: .cfa -32 + ^
STACK CFI 10ffc .cfa: sp 32 +
STACK CFI 11004 .cfa: sp 0 +
STACK CFI INIT 11008 34 .cfa: sp 0 +
STACK CFI 1100c .cfa: sp 32 +
STACK CFI 11014 .cfa: x29 32 + x19: .cfa -16 + ^ .ra: .cfa -24 + ^ x29: .cfa -32 + ^
STACK CFI INIT 1103c 10 .cfa: sp 0 +
STACK CFI 11040 .cfa: sp 16 +
STACK CFI 11044 .cfa: x29 16 + .ra: .cfa -8 + ^ x29: .cfa -16 + ^
STACK CFI INIT 11658 50 .cfa: sp 0 +
STACK CFI 1165c .cfa: sp 32 +
STACK CFI 11664 .cfa: x29 32 + x19: .cfa -16 + ^ .ra: .cfa -24 + ^ x29: .cfa -32 + ^
STACK CFI 1167c .cfa: sp 32 +
STACK CFI 11684 .cfa: sp 0 +
STACK CFI 11688 .cfa: x29 32 +
STACK CFI 1169c .cfa: sp 32 +
STACK CFI 116a4 .cfa: sp 0 +
STACK CFI INIT 1171c 7c .cfa: sp 0 +
STACK CFI 11720 .cfa: sp 48 +
STACK CFI 1172c .cfa: x29 48 + x19: .cfa -8 + ^ x20: .cfa -16 + ^ x21: .cfa -32 + ^ .ra: .cfa -40 + ^ x29: .cfa -48 + ^
STACK CFI 11778 .cfa: sp 48 +
STACK CFI 11784 .cfa: sp 0 +
STACK CFI 11788 .cfa: sp 48 +
STACK CFI 11794 .cfa: sp 0 +
STACK CFI INIT 11798 4 .cfa: sp 0 +
STACK CFI INIT 1179c 120 .cfa: sp 0 +
STACK CFI 117a0 .cfa: sp 64 +
STACK CFI 117b0 .cfa: x29 64 + x19: .cfa -8 + ^ x20: .cfa -16 + ^ x21: .cfa -24 + ^ x22: .cfa -32 + ^ x23: .cfa -40 + ^ x24: .cfa -48 + ^ .ra: .cfa -56 + ^ x29: .cfa -64 + ^
STACK CFI 118a8 .cfa: sp 64 +
STACK CFI 118b8 .cfa: sp 0 +
STACK CFI INIT 118bc 7c .cfa: sp 0 +
STACK CFI 118c0 .cfa: sp 32 +
STACK CFI 118c8 .cfa: x29 32 + x19: .cfa -8 + ^ x20: .cfa -16 + ^ .ra: .cfa -24 + ^ x29: .cfa -32 + ^
STACK CFI 11920 .cfa: sp 32 +
STACK CFI 11928 .cfa: sp 0 +
STACK CFI 1192c .cfa: sp 32 +
STACK CFI 11934 .cfa: sp 0 +
STACK CFI INIT 11938 80 .cfa: sp 0 +
STACK CFI 1193c .cfa: sp 48 +
STACK CFI 11948 .cfa: x29 48 + x19: .cfa -8 + ^ x20: .cfa -16 + ^ x21: .cfa -24 + ^ x22: .cfa -32 + ^ .ra: .cfa -40 + ^ x29: .cfa -48 + ^
STACK CFI 11960 .cfa: sp 48 +
STACK CFI 1196c .cfa: sp 0 +
STACK CFI 11970 .cfa: x29 48 +
STACK CFI 119a0 .cfa: sp 48 +
STACK CFI 119ac .cfa: sp 0 +
STACK CFI 119b0 .cfa: x29 48 +
STACK CFI INIT 119b8 1b0 .cfa: sp 0 +
STACK CFI INIT 11cbc 34 .cfa: sp 0 +
STACK CFI 11cc0 .cfa: sp 16 +
STACK CFI 11cc4 .cfa: x29 16 + .ra: .cfa -8 + ^ x29: .cfa -16 + ^
STACK CFI INIT 11e1c 80 .cfa: sp 0 +
STACK CFI 11e20 .cfa: sp 48 +
STACK CFI 11e2c .cfa: x29 48 + x19: .cfa -8 + ^ x20: .cfa -16 + ^ x21: .cfa -32 + ^ .ra: .cfa -40 + ^ x29: .cfa -48 + ^
STACK CFI 11e8c .cfa: sp 48 +
STACK CFI 11e98 .cfa: sp 0 +
STACK CFI INIT 11e9c 24 .cfa: sp 0 +
STACK CFI 11ea0 .cfa: sp 32 +
STACK CFI 11ea8 .cfa: x29 32 + x19: .cfa -16 + ^ .ra: .cfa -24 + ^ x29: .cfa -32 + ^
STACK CFI 11eb4 .cfa: sp 32 +
STACK CFI 11ebc .cfa: sp 0 +
STACK CFI INIT 123b8 148 .cfa: sp 0 +
STACK CFI 123bc .cfa: sp 48 +
STACK CFI 123c8 .cfa: x29 48 + x19: .cfa -8 + ^ x20: .cfa -16 + ^ x21: .cfa -32 + ^ .ra: .cfa -40 + ^ x29: .cfa -48 + ^
STACK CFI 124f0 .cfa: sp 48 +
STACK CFI 124fc .cfa: sp 0 +
STACK CFI INIT 12668 4 .cfa: sp 0 +
STACK CFI INIT 1266c 14 .cfa: sp 0 +
STACK CFI INIT 128a4 68 .cfa: sp 0 +
STACK CFI 128a8 .cfa: sp 32 +
STACK CFI 128b0 .cfa: x29 32 + x19: .cfa -8 + ^ x20: .cfa -16 + ^ .ra: .cfa -24 + ^ x29: .cfa -32 + ^
STACK CFI 128c8 .cfa: sp 32 +
STACK CFI 128d0 .cfa: sp 0 +
STACK CFI 128d4 .cfa: x29 32 +
STACK CFI 12900 .cfa: sp 32 +
STACK CFI 12908 .cfa: sp 0 +
STACK CFI INIT 1290c 14 .cfa: sp 0 +
STACK CFI 12910 .cfa: sp 16 +
STACK CFI 12914 .cfa: x29 16 + .ra: .cfa -8 + ^ x29: .cfa -16 + ^
STACK CFI INIT 12920 4 .cfa: sp 0 +
STACK CFI INIT 12924 14 .cfa: sp 0 +
STACK CFI INIT 12938 4a4 .cfa: sp 0 +
STACK CFI 1293c .cfa: sp 32 +
STACK CFI 12944 .cfa: x29 32 + x19: .cfa -8 + ^ x20: .cfa -16 + ^ .ra: .cfa -24 + ^ x29: .cfa -32 + ^
STACK CFI 12d24 .cfa: sp 32 +
STACK CFI 12d2c .cfa: sp 0 +
STACK CFI 12d30 .cfa: x29 32 +
STACK CFI INIT 12ddc 84 .cfa: sp 0 +
STACK CFI 12de4 .cfa: sp 32 +
STACK CFI 12dec .cfa: x29 32 + x19: .cfa -8 + ^ x20: .cfa -16 + ^ .ra: .cfa -24 + ^ x29: .cfa -32 + ^
STACK CFI 12e2c .cfa: sp 32 +
STACK CFI 12e34 .cfa: sp 0 +
STACK CFI 12e3c .cfa: x29 32 +
STACK CFI INIT 13010 44 .cfa: sp 0 +
STACK CFI 13014 .cfa: sp 32 +
STACK CFI 1301c .cfa: x29 32 + x19: .cfa -8 + ^ x20: .cfa -16 + ^ .ra: .cfa -24 + ^ x29: .cfa -32 + ^
STACK CFI 13034 .cfa: sp 32 +
STACK CFI 1303c .cfa: sp 0 +
STACK CFI 13040 .cfa: x29 32 +
STACK CFI 13048 .cfa: sp 32 +
STACK CFI 13050 .cfa: sp 0 +
STACK CFI INIT 13054 50 .cfa: sp 0 +
STACK CFI 13058 .cfa: sp 32 +
STACK CFI 13060 .cfa: x29 32 + x19: .cfa -16 + ^ .ra: .cfa -24 + ^ x29: .cfa -32 + ^
STACK CFI 13078 .cfa: sp 32 +
STACK CFI 13080 .cfa: sp 0 +
STACK CFI 13084 .cfa: x29 32 +
STACK CFI 13098 .cfa: sp 32 +
STACK CFI 130a0 .cfa: sp 0 +
STACK CFI INIT 130a4 64 .cfa: sp 0 +
STACK CFI 130a8 .cfa: sp 32 +
STACK CFI 130b0 .cfa: x29 32 + x19: .cfa -16 + ^ .ra: .cfa -24 + ^ x29: .cfa -32 + ^
STACK CFI 130dc .cfa: sp 32 +
STACK CFI 130e4 .cfa: sp 0 +
STACK CFI 130e8 .cfa: x29 32 +
STACK CFI 130fc .cfa: sp 32 +
STACK CFI 13104 .cfa: sp 0 +
STACK CFI INIT 13108 168 .cfa: sp 0 +
STACK CFI 1310c .cfa: sp 80 +
STACK CFI 13120 .cfa: x29 80 + x19: .cfa -8 + ^ x20: .cfa -16 + ^ x21: .cfa -24 + ^ x22: .cfa -32 + ^ x23: .cfa -40 + ^ x24: .cfa -48 + ^ x25: .cfa -56 + ^ x26: .cfa -64 + ^ .ra: .cfa -72 + ^ x29: .cfa -80 + ^
STACK CFI 13258 .cfa: sp 80 +
STACK CFI 1326c .cfa: sp 0 +
STACK CFI INIT 1394c 4 .cfa: sp 0 +
STACK CFI INIT 13950 14 .cfa: sp 0 +
STACK CFI 13954 .cfa: sp 16 +
STACK CFI 13958 .cfa: x29 16 + .ra: .cfa -8 + ^ x29: .cfa -16 + ^
STACK CFI INIT 13964 14 .cfa: sp 0 +
STACK CFI 13968 .cfa: sp 16 +
STACK CFI 1396c .cfa: x29 16 + .ra: .cfa -8 + ^ x29: .cfa -16 + ^
STACK CFI INIT 13978 c .cfa: sp 0 +
STACK CFI 1397c .cfa: sp 16 +
STACK CFI 13980 .cfa: x29 16 + .ra: .cfa -8 + ^ x29: .cfa -16 + ^
STACK CFI INIT 139d4 30 .cfa: sp 0 +
STACK CFI 139d8 .cfa: sp 32 +
STACK CFI 139e0 .cfa: x29 32 + x19: .cfa -16 + ^ .ra: .cfa -24 + ^ x29: .cfa -32 + ^
STACK CFI 139f8 .cfa: sp 32 +
STACK CFI 13a00 .cfa: sp 0 +
STACK CFI INIT 13a04 c .cfa: sp 0 +
STACK CFI 13a08 .cfa: sp 16 +
STACK CFI 13a0c .cfa: x29 16 + .ra: .cfa -8 + ^ x29: .cfa -16 + ^
STACK CFI INIT 13a10 4 .cfa: sp 0 +
STACK CFI INIT 13a14 4 .cfa: sp 0 +
STACK CFI INIT 13a18 38 .cfa: sp 0 +
STACK CFI 13a1c .cfa: sp 32 +
STACK CFI 13a24 .cfa: x29 32 + x19: .cfa -16 + ^ .ra: .cfa -24 + ^ x29: .cfa -32 + ^
STACK CFI 13a44 .cfa: sp 32 +
STACK CFI 13a4c .cfa: sp 0 +
STACK CFI INIT 13a50 18 .cfa: sp 0 +
STACK CFI INIT 13a68 4 .cfa: sp 0 +
STACK CFI INIT 13a6c 4 .cfa: sp 0 +
STACK CFI INIT 13a70 10 .cfa: sp 0 +
STACK CFI INIT 13a80 1c .cfa: sp 0 +
STACK CFI INIT 13a9c c .cfa: sp 0 +
STACK CFI INIT 13aa8 5c .cfa: sp 0 +
STACK CFI 13aac .cfa: sp 32 +
STACK CFI 13ab4 .cfa: x29 32 + x19: .cfa -16 + ^ .ra: .cfa -24 + ^ x29: .cfa -32 + ^
STACK CFI 13aec .cfa: sp 32 +
STACK CFI 13af4 .cfa: sp 0 +
STACK CFI 13af8 .cfa: sp 32 +
STACK CFI 13b00 .cfa: sp 0 +
STACK CFI INIT 13b04 70 .cfa: sp 0 +
STACK CFI 13b0c .cfa: sp 32 +
STACK CFI 13b14 .cfa: x29 32 + x19: .cfa -16 + ^ .ra: .cfa -24 + ^ x29: .cfa -32 + ^
STACK CFI 13b3c .cfa: sp 32 +
STACK CFI 13b44 .cfa: sp 0 +
STACK CFI 13b4c .cfa: x29 32 +
STACK CFI 13b68 .cfa: sp 32 +
STACK CFI 13b70 .cfa: sp 0 +
STACK CFI INIT 13b74 50 .cfa: sp 0 +
STACK CFI 13b78 .cfa: sp 32 +
STACK CFI 13b80 .cfa: x29 32 + x19: .cfa -16 + ^ .ra: .cfa -24 + ^ x29: .cfa -32 + ^
STACK CFI 13b98 .cfa: sp 32 +
STACK CFI 13ba0 .cfa: sp 0 +
STACK CFI 13ba4 .cfa: x29 32 +
STACK CFI 13bb8 .cfa: sp 32 +
STACK CFI 13bc0 .cfa: sp 0 +
STACK CFI INIT 13bc4 f8 .cfa: sp 0 +
STACK CFI 13bc8 .cfa: sp 64 +
STACK CFI 13bd8 .cfa: x29 64 + x19: .cfa -8 + ^ x20: .cfa -16 + ^ x21: .cfa -24 + ^ x22: .cfa -32 + ^ x23: .cfa -48 + ^ .ra: .cfa -56 + ^ x29: .cfa -64 + ^
STACK CFI 13c34 .cfa: sp 64 +
STACK CFI 13c44 .cfa: sp 0 +
STACK CFI 13c48 .cfa: x29 64 +
STACK CFI 13c64 .cfa: sp 64 +
STACK CFI 13c74 .cfa: sp 0 +
STACK CFI 13c78 .cfa: x29 64 +
STACK CFI 13ca8 .cfa: sp 64 +
STACK CFI 13cb8 .cfa: sp 0 +
STACK CFI INIT 141e8 4 .cfa: sp 0 +
STACK CFI INIT 15db8 4 .cfa: sp 0 +
STACK CFI INIT 15dbc 4 .cfa: sp 0 +
STACK CFI INIT 15dc0 34 .cfa: sp 0 +
STACK CFI 15dc4 .cfa: sp 32 +
STACK CFI 15dcc .cfa: x29 32 + x19: .cfa -16 + ^ .ra: .cfa -24 + ^ x29: .cfa -32 + ^
STACK CFI 15de8 .cfa: sp 32 +
STACK CFI 15df0 .cfa: sp 0 +
STACK CFI INIT 15df4 14 .cfa: sp 0 +
STACK CFI INIT 15e08 4 .cfa: sp 0 +
STACK CFI INIT 15e0c 4 .cfa: sp 0 +
STACK CFI INIT 15e10 9c .cfa: sp 0 +
STACK CFI 15e14 .cfa: sp 32 +
STACK CFI 15e1c .cfa: x29 32 + x19: .cfa -8 + ^ x20: .cfa -16 + ^ .ra: .cfa -24 + ^ x29: .cfa -32 + ^
STACK CFI 15e94 .cfa: sp 32 +
STACK CFI 15e9c .cfa: sp 0 +
STACK CFI 15ea0 .cfa: sp 32 +
STACK CFI 15ea8 .cfa: sp 0 +
STACK CFI INIT 15eac 1c .cfa: sp 0 +
STACK CFI INIT 15ec8 c .cfa: sp 0 +
STACK CFI INIT 15ed4 8 .cfa: sp 0 +
STACK CFI INIT 15edc 24 .cfa: sp 0 +
STACK CFI 15ee0 .cfa: sp 32 +
STACK CFI 15ee8 .cfa: x29 32 + x19: .cfa -16 + ^ .ra: .cfa -24 + ^ x29: .cfa -32 + ^
STACK CFI 15ef4 .cfa: sp 32 +
STACK CFI 15efc .cfa: sp 0 +
STACK CFI INIT 15f00 18 .cfa: sp 0 +
STACK CFI INIT 15f18 4 .cfa: sp 0 +
STACK CFI INIT 15f1c 4 .cfa: sp 0 +
STACK CFI INIT 15f20 4 .cfa: sp 0 +
STACK CFI INIT 15f24 40 .cfa: sp 0 +
STACK CFI 15f28 .cfa: sp 32 +
STACK CFI 15f30 .cfa: x29 32 + x19: .cfa -16 + ^ .ra: .cfa -24 + ^ x29: .cfa -32 + ^
STACK CFI 15f58 .cfa: sp 32 +
STACK CFI 15f60 .cfa: sp 0 +
STACK CFI INIT 15f64 20 .cfa: sp 0 +
STACK CFI INIT 15f84 4 .cfa: sp 0 +
STACK CFI INIT 15f88 4 .cfa: sp 0 +
STACK CFI INIT 15f8c 24 .cfa: sp 0 +
STACK CFI INIT 15fb0 1c .cfa: sp 0 +
STACK CFI INIT 15fcc c .cfa: sp 0 +
STACK CFI INIT 16a58 3c .cfa: sp 0 +
STACK CFI 16a5c .cfa: sp 32 +
STACK CFI 16a64 .cfa: x29 32 + x19: .cfa -16 + ^ .ra: .cfa -24 + ^ x29: .cfa -32 + ^
STACK CFI 16a70 .cfa: sp 32 +
STACK CFI 16a78 .cfa: sp 0 +
STACK CFI 16a7c .cfa: x29 32 +
STACK CFI 16a88 .cfa: sp 32 +
STACK CFI 16a90 .cfa: sp 0 +
STACK CFI INIT 16a94 4c .cfa: sp 0 +
STACK CFI 16a98 .cfa: sp 32 +
STACK CFI 16aa0 .cfa: x29 32 + x19: .cfa -8 + ^ x20: .cfa -16 + ^ .ra: .cfa -24 + ^ x29: .cfa -32 + ^
STACK CFI 16ac8 .cfa: sp 32 +
STACK CFI 16ad0 .cfa: sp 0 +
STACK CFI 16ad4 .cfa: sp 32 +
STACK CFI 16adc .cfa: sp 0 +
STACK CFI INIT 16d00 64 .cfa: sp 0 +
STACK CFI 16d04 .cfa: sp 32 +
STACK CFI 16d0c .cfa: x29 32 + x19: .cfa -16 + ^ .ra: .cfa -24 + ^ x29: .cfa -32 + ^
STACK CFI 16d38 .cfa: sp 32 +
STACK CFI 16d40 .cfa: sp 0 +
STACK CFI 16d44 .cfa: x29 32 +
STACK CFI 16d58 .cfa: sp 32 +
STACK CFI 16d60 .cfa: sp 0 +
STACK CFI INIT 16f88 24 .cfa: sp 0 +
STACK CFI 16f8c .cfa: sp 32 +
STACK CFI 16f94 .cfa: x29 32 + x19: .cfa -16 + ^ .ra: .cfa -24 + ^ x29: .cfa -32 + ^
STACK CFI 16fa0 .cfa: sp 32 +
STACK CFI 16fa8 .cfa: sp 0 +
STACK CFI INIT 175f4 4 .cfa: sp 0 +
STACK CFI INIT 175f8 14 .cfa: sp 0 +
STACK CFI INIT 17b18 c .cfa: sp 0 +
STACK CFI INIT 17b24 24c .cfa: sp 0 +
STACK CFI INIT 17d70 a0 .cfa: sp 0 +
STACK CFI 17d7c .cfa: sp 32 +
STACK CFI 17dd4 .cfa: sp 0 +
STACK CFI 17dd8 .cfa: sp 32 +
STACK CFI 17de0 .cfa: sp 0 +
STACK CFI 17de4 .cfa: sp 32 +
STACK CFI 17df8 .cfa: sp 0 +
STACK CFI 17dfc .cfa: sp 32 +
STACK CFI 17e0c .cfa: sp 0 +
STACK CFI INIT 17e10 38 .cfa: sp 0 +
STACK CFI 17e1c .cfa: sp 32 +
STACK CFI 17e44 .cfa: sp 0 +
STACK CFI INIT 180dc 7c .cfa: sp 0 +
STACK CFI 180e0 .cfa: sp 32 +
STACK CFI 180e8 .cfa: x29 32 + x19: .cfa -16 + ^ .ra: .cfa -24 + ^ x29: .cfa -32 + ^
STACK CFI 18114 .cfa: sp 32 +
STACK CFI 1811c .cfa: sp 0 +
STACK CFI 18120 .cfa: x29 32 +
STACK CFI 1814c .cfa: sp 32 +
STACK CFI 18154 .cfa: sp 0 +
STACK CFI INIT 181a8 2c .cfa: sp 0 +
STACK CFI 181ac .cfa: sp 32 +
STACK CFI 181b4 .cfa: x29 32 + x19: .cfa -16 + ^ .ra: .cfa -24 + ^ x29: .cfa -32 + ^
STACK CFI 181c8 .cfa: sp 32 +
STACK CFI 181d0 .cfa: sp 0 +
STACK CFI INIT 18994 64 .cfa: sp 0 +
STACK CFI 18998 .cfa: sp 32 +
STACK CFI 189a0 .cfa: x29 32 + x19: .cfa -16 + ^ .ra: .cfa -24 + ^ x29: .cfa -32 + ^
STACK CFI 189bc .cfa: sp 32 +
STACK CFI 189c4 .cfa: sp 0 +
STACK CFI 189c8 .cfa: x29 32 +
STACK CFI 189ec .cfa: sp 32 +
STACK CFI 189f4 .cfa: sp 0 +
STACK CFI INIT 189f8 570 .cfa: sp 0 +
STACK CFI 189fc .cfa: sp 176 +
STACK CFI 18a10 .cfa: x29 64 + x19: .cfa -8 + ^ x20: .cfa -16 + ^ x21: .cfa -24 + ^ x22: .cfa -32 + ^ x23: .cfa -40 + ^ x24: .cfa -48 + ^ .ra: .cfa -56 + ^ x29: .cfa -64 + ^
STACK CFI 18c40 .cfa: sp 176 +
STACK CFI 18c54 .cfa: sp 0 +
STACK CFI 18c58 .cfa: x29 64 +
STACK CFI 18ca4 .cfa: sp 176 +
STACK CFI 18cb8 .cfa: sp 0 +
STACK CFI 18cbc .cfa: x29 64 +
STACK CFI 18cf4 .cfa: sp 176 +
STACK CFI 18d08 .cfa: sp 0 +
STACK CFI 18d0c .cfa: x29 64 +
STACK CFI 18d24 .cfa: sp 176 +
STACK CFI 18d38 .cfa: sp 0 +
STACK CFI 18d3c .cfa: x29 64 +
STACK CFI 18d5c .cfa: sp 176 +
STACK CFI 18d70 .cfa: sp 0 +
STACK CFI 18d74 .cfa: x29 64 +
STACK CFI 18d8c .cfa: sp 176 +
STACK CFI 18da0 .cfa: sp 0 +
STACK CFI 18da4 .cfa: x29 64 +
STACK CFI 18db8 .cfa: sp 176 +
STACK CFI 18dcc .cfa: sp 0 +
STACK CFI 18dd0 .cfa: x29 64 +
STACK CFI 18de4 .cfa: sp 176 +
STACK CFI 18df8 .cfa: sp 0 +
STACK CFI 18dfc .cfa: x29 64 +
STACK CFI 18e0c .cfa: sp 176 +
STACK CFI 18e20 .cfa: sp 0 +
STACK CFI 18e24 .cfa: x29 64 +
STACK CFI 18e34 .cfa: sp 176 +
STACK CFI 18e48 .cfa: sp 0 +
STACK CFI 18e4c .cfa: x29 64 +
STACK CFI 18e64 .cfa: sp 176 +
STACK CFI 18e78 .cfa: sp 0 +
STACK CFI 18e7c .cfa: x29 64 +
STACK CFI 18e90 .cfa: sp 176 +
STACK CFI 18ea4 .cfa: sp 0 +
STACK CFI 18ea8 .cfa: x29 64 +
STACK CFI 18ec0 .cfa: sp 176 +
STACK CFI 18ed4 .cfa: sp 0 +
STACK CFI 18ed8 .cfa: x29 64 +
STACK CFI 18f04 .cfa: sp 176 +
STACK CFI 18f18 .cfa: sp 0 +
STACK CFI 18f1c .cfa: x29 64 +
STACK CFI 18f30 .cfa: sp 176 +
STACK CFI 18f44 .cfa: sp 0 +
STACK CFI 18f48 .cfa: x29 64 +
STACK CFI INIT 18f68 228 .cfa: sp 0 +
STACK CFI INIT 19190 2dc .cfa: sp 0 +
STACK CFI INIT 1946c 53c .cfa: sp 0 +
STACK CFI INIT 199a8 78 .cfa: sp 0 +
STACK CFI 199ac .cfa: sp 48 +
STACK CFI 199b8 .cfa: x29 48 + x19: .cfa -8 + ^ x20: .cfa -16 + ^ x21: .cfa -24 + ^ x22: .cfa -32 + ^ .ra: .cfa -40 + ^ x29: .cfa -48 + ^
STACK CFI 19a00 .cfa: sp 48 +
STACK CFI 19a0c .cfa: sp 0 +
STACK CFI 19a10 .cfa: sp 48 +
STACK CFI 19a1c .cfa: sp 0 +
STACK CFI INIT 19a20 8c .cfa: sp 0 +
STACK CFI 19a24 .cfa: sp 32 +
STACK CFI 19a2c .cfa: x29 32 + x19: .cfa -16 + ^ .ra: .cfa -24 + ^ x29: .cfa -32 + ^
STACK CFI 19a60 .cfa: sp 32 +
STACK CFI 19a68 .cfa: sp 0 +
STACK CFI 19a6c .cfa: x29 32 +
STACK CFI 19aa0 .cfa: sp 32 +
STACK CFI 19aa8 .cfa: sp 0 +
STACK CFI INIT 19aac 24 .cfa: sp 0 +
STACK CFI 19ab0 .cfa: sp 32 +
STACK CFI 19ab8 .cfa: x29 32 + x19: .cfa -16 + ^ .ra: .cfa -24 + ^ x29: .cfa -32 + ^
STACK CFI 19ac4 .cfa: sp 32 +
STACK CFI 19acc .cfa: sp 0 +
STACK CFI INIT 19ad0 150 .cfa: sp 0 +
STACK CFI 19ad4 .cfa: sp 48 +
STACK CFI 19ae0 .cfa: x29 48 + x19: .cfa -8 + ^ x20: .cfa -16 + ^ x21: .cfa -24 + ^ x22: .cfa -32 + ^ .ra: .cfa -40 + ^ x29: .cfa -48 + ^
STACK CFI 19c10 .cfa: sp 48 +
STACK CFI 19c1c .cfa: sp 0 +
STACK CFI INIT 19c20 68 .cfa: sp 0 +
STACK CFI 19c24 .cfa: sp 64 +
STACK CFI 19c30 .cfa: x29 32 + x19: .cfa -16 + ^ .ra: .cfa -24 + ^ x29: .cfa -32 + ^
STACK CFI 19c74 .cfa: sp 64 +
STACK CFI 19c80 .cfa: sp 0 +
STACK CFI 19c84 .cfa: x29 32 +
STACK CFI INIT 19c88 90 .cfa: sp 0 +
STACK CFI 19c8c .cfa: sp 32 +
STACK CFI 19c94 .cfa: x29 32 + x19: .cfa -8 + ^ x20: .cfa -16 + ^ .ra: .cfa -24 + ^ x29: .cfa -32 + ^
STACK CFI 19cc0 .cfa: sp 32 +
STACK CFI 19cc8 .cfa: sp 0 +
STACK CFI 19ccc .cfa: x29 32 +
STACK CFI 19d0c .cfa: sp 32 +
STACK CFI 19d14 .cfa: sp 0 +
STACK CFI INIT 19d18 ec .cfa: sp 0 +
STACK CFI 19d1c .cfa: sp 112 +
STACK CFI 19d2c .cfa: x29 48 + x19: .cfa -8 + ^ x20: .cfa -16 + ^ x21: .cfa -32 + ^ .ra: .cfa -40 + ^ x29: .cfa -48 + ^
STACK CFI 19dec .cfa: sp 112 +
STACK CFI 19dfc .cfa: sp 0 +
STACK CFI 19e00 .cfa: x29 48 +
STACK CFI INIT 19e04 ec .cfa: sp 0 +
STACK CFI 19e08 .cfa: sp 112 +
STACK CFI 19e18 .cfa: x29 48 + x19: .cfa -8 + ^ x20: .cfa -16 + ^ x21: .cfa -32 + ^ .ra: .cfa -40 + ^ x29: .cfa -48 + ^
STACK CFI 19ed8 .cfa: sp 112 +
STACK CFI 19ee8 .cfa: sp 0 +
STACK CFI 19eec .cfa: x29 48 +
STACK CFI INIT 19ef0 48 .cfa: sp 0 +
STACK CFI 19ef4 .cfa: sp 32 +
STACK CFI 19efc .cfa: x29 32 + x19: .cfa -8 + ^ x20: .cfa -16 + ^ .ra: .cfa -24 + ^ x29: .cfa -32 + ^
STACK CFI 19f20 .cfa: sp 32 +
STACK CFI 19f28 .cfa: sp 0 +
STACK CFI 19f2c .cfa: x29 32 +
STACK CFI INIT 19f38 98 .cfa: sp 0 +
STACK CFI 19f3c .cfa: sp 80 +
STACK CFI 19f48 .cfa: x29 32 + x19: .cfa -16 + ^ .ra: .cfa -24 + ^ x29: .cfa -32 + ^
STACK CFI 19fbc .cfa: sp 80 +
STACK CFI 19fc8 .cfa: sp 0 +
STACK CFI 19fcc .cfa: x29 32 +
STACK CFI INIT 19fd0 260 .cfa: sp 0 +
STACK CFI 19fd4 .cfa: sp 112 +
STACK CFI 19fec .cfa: x29 80 + x19: .cfa -8 + ^ x20: .cfa -16 + ^ x21: .cfa -24 + ^ x22: .cfa -32 + ^ x23: .cfa -40 + ^ x24: .cfa -48 + ^ x25: .cfa -64 + ^ .ra: .cfa -72 + ^ x29: .cfa -80 + ^
STACK CFI 1a1d0 .cfa: sp 112 +
STACK CFI 1a1e8 .cfa: sp 0 +
STACK CFI 1a1ec .cfa: x29 80 +
STACK CFI INIT 1a230 150 .cfa: sp 0 +
STACK CFI 1a234 .cfa: sp 48 +
STACK CFI 1a240 .cfa: x29 48 + x19: .cfa -8 + ^ x20: .cfa -16 + ^ x21: .cfa -24 + ^ x22: .cfa -32 + ^ .ra: .cfa -40 + ^ x29: .cfa -48 + ^
STACK CFI 1a370 .cfa: sp 48 +
STACK CFI 1a37c .cfa: sp 0 +
STACK CFI INIT 1a380 1e0 .cfa: sp 0 +
STACK CFI 1a384 .cfa: sp 96 +
STACK CFI 1a398 .cfa: x29 64 + x19: .cfa -8 + ^ x20: .cfa -16 + ^ x21: .cfa -24 + ^ x22: .cfa -32 + ^ x23: .cfa -40 + ^ x24: .cfa -48 + ^ .ra: .cfa -56 + ^ x29: .cfa -64 + ^
STACK CFI 1a518 .cfa: sp 96 +
STACK CFI 1a52c .cfa: sp 0 +
STACK CFI 1a530 .cfa: x29 64 +
STACK CFI INIT 1a560 284 .cfa: sp 0 +
STACK CFI 1a564 .cfa: sp 112 +
STACK CFI 1a57c .cfa: x29 80 + x19: .cfa -8 + ^ x20: .cfa -16 + ^ x21: .cfa -24 + ^ x22: .cfa -32 + ^ x23: .cfa -40 + ^ x24: .cfa -48 + ^ x25: .cfa -64 + ^ .ra: .cfa -72 + ^ x29: .cfa -80 + ^
STACK CFI 1a784 .cfa: sp 112 +
STACK CFI 1a79c .cfa: sp 0 +
STACK CFI 1a7a0 .cfa: x29 80 +
STACK CFI INIT 1a7e4 208 .cfa: sp 0 +
STACK CFI 1a7e8 .cfa: sp 96 +
STACK CFI 1a7fc .cfa: x29 64 + x19: .cfa -8 + ^ x20: .cfa -16 + ^ x21: .cfa -24 + ^ x22: .cfa -32 + ^ x23: .cfa -40 + ^ x24: .cfa -48 + ^ .ra: .cfa -56 + ^ x29: .cfa -64 + ^
STACK CFI 1a9a4 .cfa: sp 96 +
STACK CFI 1a9b8 .cfa: sp 0 +
STACK CFI 1a9bc .cfa: x29 64 +
STACK CFI INIT 1a9ec 360 .cfa: sp 0 +
STACK CFI 1a9f0 .cfa: sp 160 +
STACK CFI 1aa0c .cfa: x29 96 + x19: .cfa -8 + ^ x20: .cfa -16 + ^ x21: .cfa -24 + ^ x22: .cfa -32 + ^ x23: .cfa -40 + ^ x24: .cfa -48 + ^ x25: .cfa -56 + ^ x26: .cfa -64 + ^ x27: .cfa -72 + ^ x28: .cfa -80 + ^ .ra: .cfa -88 + ^ x29: .cfa -96 + ^
STACK CFI 1acd8 .cfa: sp 160 +
STACK CFI 1acf4 .cfa: sp 0 +
STACK CFI 1acf8 .cfa: x29 96 +
STACK CFI INIT 1ad4c 314 .cfa: sp 0 +
STACK CFI 1ad50 .cfa: sp 144 +
STACK CFI 1ad6c .cfa: x29 96 + x19: .cfa -8 + ^ x20: .cfa -16 + ^ x21: .cfa -24 + ^ x22: .cfa -32 + ^ x23: .cfa -40 + ^ x24: .cfa -48 + ^ x25: .cfa -56 + ^ x26: .cfa -64 + ^ x27: .cfa -72 + ^ x28: .cfa -80 + ^ .ra: .cfa -88 + ^ x29: .cfa -96 + ^
STACK CFI 1afe8 .cfa: sp 144 +
STACK CFI 1b004 .cfa: sp 0 +
STACK CFI 1b008 .cfa: x29 96 +
STACK CFI INIT 1b060 290 .cfa: sp 0 +
STACK CFI 1b064 .cfa: sp 128 +
STACK CFI 1b07c .cfa: x29 80 + x19: .cfa -8 + ^ x20: .cfa -16 + ^ x21: .cfa -24 + ^ x22: .cfa -32 + ^ x23: .cfa -40 + ^ x24: .cfa -48 + ^ x25: .cfa -56 + ^ x26: .cfa -64 + ^ .ra: .cfa -72 + ^ x29: .cfa -80 + ^
STACK CFI 1b2d0 .cfa: sp 128 +
STACK CFI 1b2e8 .cfa: sp 0 +
STACK CFI 1b2ec .cfa: x29 80 +
STACK CFI INIT 1b2f0 ddc .cfa: sp 0 +
STACK CFI 1b2f4 .cfa: sp 144 +
STACK CFI 1b310 .cfa: x29 96 + x19: .cfa -8 + ^ x20: .cfa -16 + ^ x21: .cfa -24 + ^ x22: .cfa -32 + ^ x23: .cfa -40 + ^ x24: .cfa -48 + ^ x25: .cfa -56 + ^ x26: .cfa -64 + ^ x27: .cfa -72 + ^ x28: .cfa -80 + ^ .ra: .cfa -88 + ^ x29: .cfa -96 + ^
STACK CFI 1bfa4 .cfa: sp 144 +
STACK CFI 1bfc0 .cfa: sp 0 +
STACK CFI 1bfc4 .cfa: x29 96 +
STACK CFI INIT 1c0cc 1d0 .cfa: sp 0 +
STACK CFI 1c0d0 .cfa: sp 80 +
STACK CFI 1c0e4 .cfa: x29 80 + x19: .cfa -8 + ^ x20: .cfa -16 + ^ x21: .cfa -24 + ^ x22: .cfa -32 + ^ x23: .cfa -40 + ^ x24: .cfa -48 + ^ x25: .cfa -64 + ^ .ra: .cfa -72 + ^ x29: .cfa -80 + ^
STACK CFI 1c284 .cfa: sp 80 +
STACK CFI 1c298 .cfa: sp 0 +
STACK CFI INIT 1c29c 23c .cfa: sp 0 +
STACK CFI 1c2a0 .cfa: sp 112 +
STACK CFI 1c2b4 .cfa: x29 64 + x19: .cfa -8 + ^ x20: .cfa -16 + ^ x21: .cfa -24 + ^ x22: .cfa -32 + ^ x23: .cfa -40 + ^ x24: .cfa -48 + ^ .ra: .cfa -56 + ^ x29: .cfa -64 + ^
STACK CFI 1c490 .cfa: sp 112 +
STACK CFI 1c4a4 .cfa: sp 0 +
STACK CFI 1c4a8 .cfa: x29 64 +
STACK CFI INIT 1c4d8 30c .cfa: sp 0 +
STACK CFI 1c4dc .cfa: sp 80 +
STACK CFI 1c4f0 .cfa: x29 64 + x19: .cfa -8 + ^ x20: .cfa -16 + ^ x21: .cfa -24 + ^ x22: .cfa -32 + ^ x23: .cfa -40 + ^ x24: .cfa -48 + ^ .ra: .cfa -56 + ^ x29: .cfa -64 + ^
STACK CFI 1c66c .cfa: sp 80 +
STACK CFI 1c680 .cfa: sp 0 +
STACK CFI 1c684 .cfa: x29 64 +
STACK CFI INIT 1c7e4 178 .cfa: sp 0 +
STACK CFI 1c7e8 .cfa: sp 80 +
STACK CFI 1c7fc .cfa: x29 64 + x19: .cfa -8 + ^ x20: .cfa -16 + ^ x21: .cfa -24 + ^ x22: .cfa -32 + ^ x23: .cfa -40 + ^ x24: .cfa -48 + ^ .ra: .cfa -56 + ^ x29: .cfa -64 + ^
STACK CFI 1c940 .cfa: sp 80 +
STACK CFI 1c954 .cfa: sp 0 +
STACK CFI 1c958 .cfa: x29 64 +
STACK CFI INIT 1c95c 178 .cfa: sp 0 +
STACK CFI 1c960 .cfa: sp 80 +
STACK CFI 1c974 .cfa: x29 64 + x19: .cfa -8 + ^ x20: .cfa -16 + ^ x21: .cfa -24 + ^ x22: .cfa -32 + ^ x23: .cfa -40 + ^ x24: .cfa -48 + ^ .ra: .cfa -56 + ^ x29: .cfa -64 + ^
STACK CFI 1cab8 .cfa: sp 80 +
STACK CFI 1cacc .cfa: sp 0 +
STACK CFI 1cad0 .cfa: x29 64 +
STACK CFI INIT 1cad4 240 .cfa: sp 0 +
STACK CFI 1cad8 .cfa: sp 96 +
STACK CFI 1caf0 .cfa: x29 96 + x19: .cfa -8 + ^ x20: .cfa -16 + ^ x21: .cfa -24 + ^ x22: .cfa -32 + ^ x23: .cfa -40 + ^ x24: .cfa -48 + ^ x25: .cfa -56 + ^ x26: .cfa -64 + ^ x27: .cfa -72 + ^ x28: .cfa -80 + ^ .ra: .cfa -88 + ^ x29: .cfa -96 + ^
STACK CFI 1ccf8 .cfa: sp 96 +
STACK CFI 1cd10 .cfa: sp 0 +
STACK CFI INIT 1d988 154 .cfa: sp 0 +
STACK CFI 1d98c .cfa: sp 96 +
STACK CFI 1d9a0 .cfa: x29 64 + x19: .cfa -8 + ^ x20: .cfa -16 + ^ x21: .cfa -24 + ^ x22: .cfa -32 + ^ x23: .cfa -48 + ^ .ra: .cfa -56 + ^ x29: .cfa -64 + ^
STACK CFI 1da80 .cfa: sp 96 +
STACK CFI 1da94 .cfa: sp 0 +
STACK CFI 1da98 .cfa: x29 64 +
STACK CFI INIT 1dd48 44 .cfa: sp 0 +
STACK CFI 1dd4c .cfa: sp 32 +
STACK CFI 1dd54 .cfa: x29 32 + x19: .cfa -16 + ^ .ra: .cfa -24 + ^ x29: .cfa -32 + ^
STACK CFI 1dd70 .cfa: sp 32 +
STACK CFI 1dd78 .cfa: sp 0 +
STACK CFI 1dd7c .cfa: x29 32 +
STACK CFI 1dd80 .cfa: sp 32 +
STACK CFI 1dd88 .cfa: sp 0 +
STACK CFI INIT 1dd8c 1d0 .cfa: sp 0 +
STACK CFI 1dd90 .cfa: sp 64 +
STACK CFI 1dda0 .cfa: x29 64 + x19: .cfa -8 + ^ x20: .cfa -16 + ^ x21: .cfa -24 + ^ x22: .cfa -32 + ^ x23: .cfa -40 + ^ x24: .cfa -48 + ^ .ra: .cfa -56 + ^ x29: .cfa -64 + ^
STACK CFI 1de60 .cfa: sp 64 +
STACK CFI 1de70 .cfa: sp 0 +
STACK CFI 1de74 .cfa: x29 64 +
STACK CFI INIT 1df5c 17c .cfa: sp 0 +
STACK CFI INIT 1e0d8 ac .cfa: sp 0 +
STACK CFI 1e0dc .cfa: sp 64 +
STACK CFI 1e0ec .cfa: x29 64 + x19: .cfa -8 + ^ x20: .cfa -16 + ^ x21: .cfa -24 + ^ x22: .cfa -32 + ^ x23: .cfa -48 + ^ .ra: .cfa -56 + ^ x29: .cfa -64 + ^
STACK CFI 1e168 .cfa: sp 64 +
STACK CFI 1e178 .cfa: sp 0 +
STACK CFI 1e17c .cfa: x29 64 +
STACK CFI INIT 1e184 110 .cfa: sp 0 +
STACK CFI 1e188 .cfa: sp 64 +
STACK CFI 1e198 .cfa: x29 64 + x19: .cfa -8 + ^ x20: .cfa -16 + ^ x21: .cfa -24 + ^ x22: .cfa -32 + ^ x23: .cfa -40 + ^ x24: .cfa -48 + ^ .ra: .cfa -56 + ^ x29: .cfa -64 + ^
STACK CFI 1e278 .cfa: sp 64 +
STACK CFI 1e288 .cfa: sp 0 +
STACK CFI 1e28c .cfa: x29 64 +
STACK CFI INIT 1e64c a0 .cfa: sp 0 +
STACK CFI 1e650 .cfa: sp 48 +
STACK CFI 1e65c .cfa: x29 48 + x19: .cfa -8 + ^ x20: .cfa -16 + ^ x21: .cfa -24 + ^ x22: .cfa -32 + ^ .ra: .cfa -40 + ^ x29: .cfa -48 + ^
STACK CFI 1e6c8 .cfa: sp 48 +
STACK CFI 1e6d4 .cfa: sp 0 +
STACK CFI 1e6d8 .cfa: sp 48 +
STACK CFI 1e6e4 .cfa: sp 0 +
STACK CFI 1e6e8 .cfa: x29 48 +
STACK CFI INIT 1f3a0 158 .cfa: sp 0 +
STACK CFI 1f3a4 .cfa: sp 96 +
STACK CFI 1f3b8 .cfa: x29 64 + x19: .cfa -8 + ^ x20: .cfa -16 + ^ x21: .cfa -24 + ^ x22: .cfa -32 + ^ x23: .cfa -48 + ^ .ra: .cfa -56 + ^ x29: .cfa -64 + ^
STACK CFI 1f49c .cfa: sp 96 +
STACK CFI 1f4b0 .cfa: sp 0 +
STACK CFI 1f4b4 .cfa: x29 64 +
STACK CFI INIT 1f4f8 190 .cfa: sp 0 +
STACK CFI INIT 20184 1dc .cfa: sp 0 +
STACK CFI 20188 .cfa: sp 80 +
STACK CFI 2019c .cfa: x29 80 + x19: .cfa -8 + ^ x20: .cfa -16 + ^ x21: .cfa -24 + ^ x22: .cfa -32 + ^ x23: .cfa -40 + ^ x24: .cfa -48 + ^ x25: .cfa -64 + ^ .ra: .cfa -72 + ^ x29: .cfa -80 + ^
STACK CFI 20348 .cfa: sp 80 +
STACK CFI 2035c .cfa: sp 0 +
STACK CFI INIT 21790 124 .cfa: sp 0 +
STACK CFI 217c0 .cfa: sp 32 +
STACK CFI 217c8 .cfa: x29 32 + x19: .cfa -8 + ^ x20: .cfa -16 + ^ .ra: .cfa -24 + ^ x29: .cfa -32 + ^
STACK CFI 218a8 .cfa: sp 32 +
STACK CFI 218b0 .cfa: sp 0 +
STACK CFI INIT 22010 320 .cfa: sp 0 +
STACK CFI 22014 .cfa: sp 64 +
STACK CFI 22024 .cfa: x29 64 + x19: .cfa -8 + ^ x20: .cfa -16 + ^ x21: .cfa -24 + ^ x22: .cfa -32 + ^ x23: .cfa -40 + ^ x24: .cfa -48 + ^ .ra: .cfa -56 + ^ x29: .cfa -64 + ^
STACK CFI 220a0 .cfa: sp 64 +
STACK CFI 220b0 .cfa: sp 0 +
STACK CFI 220b4 .cfa: x29 64 +
STACK CFI 22288 .cfa: sp 64 +
STACK CFI 22298 .cfa: sp 0 +
STACK CFI 2229c .cfa: x29 64 +
STACK CFI 222ac .cfa: sp 64 +
STACK CFI 222bc .cfa: sp 0 +
STACK CFI 222c0 .cfa: x29 64 +
STACK CFI INIT 22330 a0 .cfa: sp 0 +
STACK CFI 22334 .cfa: sp 48 +
STACK CFI 22340 .cfa: x29 48 + x19: .cfa -8 + ^ x20: .cfa -16 + ^ x21: .cfa -24 + ^ x22: .cfa -32 + ^ .ra: .cfa -40 + ^ x29: .cfa -48 + ^
STACK CFI 223ac .cfa: sp 48 +
STACK CFI 223b8 .cfa: sp 0 +
STACK CFI 223bc .cfa: sp 48 +
STACK CFI 223c8 .cfa: sp 0 +
STACK CFI 223cc .cfa: x29 48 +
STACK CFI INIT 23280 160 .cfa: sp 0 +
STACK CFI 23284 .cfa: sp 64 +
STACK CFI 23294 .cfa: x29 64 + x19: .cfa -8 + ^ x20: .cfa -16 + ^ x21: .cfa -24 + ^ x22: .cfa -32 + ^ x23: .cfa -48 + ^ .ra: .cfa -56 + ^ x29: .cfa -64 + ^
STACK CFI 2338c .cfa: sp 64 +
STACK CFI 2339c .cfa: sp 0 +
STACK CFI 233a0 .cfa: x29 64 +
STACK CFI INIT 233e0 214 .cfa: sp 0 +
STACK CFI 233e4 .cfa: sp 128 +
STACK CFI 23400 .cfa: x29 96 + x19: .cfa -8 + ^ x20: .cfa -16 + ^ x21: .cfa -24 + ^ x22: .cfa -32 + ^ x23: .cfa -40 + ^ x24: .cfa -48 + ^ x25: .cfa -56 + ^ x26: .cfa -64 + ^ x27: .cfa -80 + ^ .ra: .cfa -88 + ^ x29: .cfa -96 + ^
STACK CFI 2357c .cfa: sp 128 +
STACK CFI 23598 .cfa: sp 0 +
STACK CFI 2359c .cfa: x29 96 +
STACK CFI INIT 25290 290 .cfa: sp 0 +
STACK CFI 25294 .cfa: sp 16 +
STACK CFI 25298 .cfa: x29 16 + .ra: .cfa -8 + ^ x29: .cfa -16 + ^
STACK CFI 25324 .cfa: sp 16 +
STACK CFI 25328 .cfa: sp 0 +
STACK CFI 2532c .cfa: x29 16 +
STACK CFI 2537c .cfa: sp 16 +
STACK CFI 25380 .cfa: sp 0 +
STACK CFI 25384 .cfa: x29 16 +
STACK CFI 254e8 .cfa: sp 16 +
STACK CFI 254ec .cfa: sp 0 +
STACK CFI 254f0 .cfa: x29 16 +
STACK CFI INIT 25520 158 .cfa: sp 0 +
STACK CFI 25524 .cfa: sp 112 +
STACK CFI 25540 .cfa: x29 96 + x19: .cfa -8 + ^ x20: .cfa -16 + ^ x21: .cfa -24 + ^ x22: .cfa -32 + ^ x23: .cfa -40 + ^ x24: .cfa -48 + ^ x25: .cfa -56 + ^ x26: .cfa -64 + ^ x27: .cfa -72 + ^ x28: .cfa -80 + ^ .ra: .cfa -88 + ^ x29: .cfa -96 + ^
STACK CFI 25628 .cfa: sp 112 +
STACK CFI 2562c .cfa: x29 96 +
STACK CFI 25634 .cfa: sp 112 +
STACK CFI 25650 .cfa: sp 0 +
STACK CFI 25654 .cfa: x29 96 +
STACK CFI 25674 .cfa: sp 112 +
STACK CFI INIT 25678 e54 .cfa: sp 0 +
STACK CFI 2567c .cfa: sp 192 +
STACK CFI 25698 .cfa: x29 96 + x19: .cfa -8 + ^ x20: .cfa -16 + ^ x21: .cfa -24 + ^ x22: .cfa -32 + ^ x23: .cfa -40 + ^ x24: .cfa -48 + ^ x25: .cfa -56 + ^ x26: .cfa -64 + ^ x27: .cfa -72 + ^ x28: .cfa -80 + ^ .ra: .cfa -88 + ^ x29: .cfa -96 + ^
STACK CFI 263b4 .cfa: sp 192 +
STACK CFI 263d0 .cfa: sp 0 +
STACK CFI 263d4 .cfa: x29 96 +
STACK CFI INIT 264cc 1068 .cfa: sp 0 +
STACK CFI 264d0 .cfa: sp 288 +
STACK CFI 264ec .cfa: x29 96 + x19: .cfa -8 + ^ x20: .cfa -16 + ^ x21: .cfa -24 + ^ x22: .cfa -32 + ^ x23: .cfa -40 + ^ x24: .cfa -48 + ^ x25: .cfa -56 + ^ x26: .cfa -64 + ^ x27: .cfa -72 + ^ x28: .cfa -80 + ^ .ra: .cfa -88 + ^ x29: .cfa -96 + ^
STACK CFI 2727c .cfa: sp 288 +
STACK CFI 27298 .cfa: sp 0 +
STACK CFI 2729c .cfa: x29 96 +
STACK CFI INIT 27534 520 .cfa: sp 0 +
STACK CFI 27538 .cfa: sp 144 +
STACK CFI 27554 .cfa: x29 96 + x19: .cfa -8 + ^ x20: .cfa -16 + ^ x21: .cfa -24 + ^ x22: .cfa -32 + ^ x23: .cfa -40 + ^ x24: .cfa -48 + ^ x25: .cfa -56 + ^ x26: .cfa -64 + ^ x27: .cfa -72 + ^ x28: .cfa -80 + ^ .ra: .cfa -88 + ^ x29: .cfa -96 + ^
STACK CFI 27a30 .cfa: sp 144 +
STACK CFI 27a4c .cfa: sp 0 +
STACK CFI 27a50 .cfa: x29 96 +
STACK CFI INIT 283f4 136c .cfa: sp 0 +
STACK CFI 283f8 .cfa: sp 224 +
STACK CFI 28414 .cfa: x29 96 + x19: .cfa -8 + ^ x20: .cfa -16 + ^ x21: .cfa -24 + ^ x22: .cfa -32 + ^ x23: .cfa -40 + ^ x24: .cfa -48 + ^ x25: .cfa -56 + ^ x26: .cfa -64 + ^ x27: .cfa -72 + ^ x28: .cfa -80 + ^ .ra: .cfa -88 + ^ x29: .cfa -96 + ^
STACK CFI 2973c .cfa: sp 224 +
STACK CFI 29758 .cfa: sp 0 +
STACK CFI 2975c .cfa: x29 96 +
STACK CFI INIT 29760 1b8 .cfa: sp 0 +
STACK CFI INIT fdb0 138 .cfa: sp 0 +
STACK CFI fdb4 .cfa: sp 64 +
STACK CFI fdc4 .cfa: x29 64 + x19: .cfa -8 + ^ x20: .cfa -16 + ^ x21: .cfa -24 + ^ x22: .cfa -32 + ^ x23: .cfa -40 + ^ x24: .cfa -48 + ^ .ra: .cfa -56 + ^ x29: .cfa -64 + ^
STACK CFI fe60 .cfa: sp 64 +
STACK CFI fe70 .cfa: sp 0 +
STACK CFI fe74 .cfa: x29 64 +
STACK CFI fea8 .cfa: sp 64 +
STACK CFI feb8 .cfa: sp 0 +
STACK CFI febc .cfa: x29 64 +
STACK CFI INIT fee8 138 .cfa: sp 0 +
STACK CFI feec .cfa: sp 64 +
STACK CFI fefc .cfa: x29 64 + x19: .cfa -8 + ^ x20: .cfa -16 + ^ x21: .cfa -24 + ^ x22: .cfa -32 + ^ x23: .cfa -40 + ^ x24: .cfa -48 + ^ .ra: .cfa -56 + ^ x29: .cfa -64 + ^
STACK CFI ff98 .cfa: sp 64 +
STACK CFI ffa8 .cfa: sp 0 +
STACK CFI ffac .cfa: x29 64 +
STACK CFI ffe0 .cfa: sp 64 +
STACK CFI fff0 .cfa: sp 0 +
STACK CFI fff4 .cfa: x29 64 +
STACK CFI INIT 10020 138 .cfa: sp 0 +
STACK CFI 10024 .cfa: sp 64 +
STACK CFI 10034 .cfa: x29 64 + x19: .cfa -8 + ^ x20: .cfa -16 + ^ x21: .cfa -24 + ^ x22: .cfa -32 + ^ x23: .cfa -40 + ^ x24: .cfa -48 + ^ .ra: .cfa -56 + ^ x29: .cfa -64 + ^
STACK CFI 100d0 .cfa: sp 64 +
STACK CFI 100e0 .cfa: sp 0 +
STACK CFI 100e4 .cfa: x29 64 +
STACK CFI 10118 .cfa: sp 64 +
STACK CFI 10128 .cfa: sp 0 +
STACK CFI 1012c .cfa: x29 64 +
STACK CFI INIT 101a4 198 .cfa: sp 0 +
STACK CFI 101a8 .cfa: sp 96 +
STACK CFI 101bc .cfa: x29 64 + x19: .cfa -8 + ^ x20: .cfa -16 + ^ x21: .cfa -24 + ^ x22: .cfa -32 + ^ x23: .cfa -48 + ^ .ra: .cfa -56 + ^ x29: .cfa -64 + ^
STACK CFI 102bc .cfa: sp 96 +
STACK CFI 102d0 .cfa: sp 0 +
STACK CFI 102d4 .cfa: x29 64 +
STACK CFI INIT 1033c 1c .cfa: sp 0 +
STACK CFI 10340 .cfa: sp 16 +
STACK CFI 10344 .cfa: x29 16 + .ra: .cfa -8 + ^ x29: .cfa -16 + ^
STACK CFI 1034c .cfa: sp 16 +
STACK CFI 10350 .cfa: sp 0 +
STACK CFI 10354 .cfa: x29 16 +
STACK CFI INIT 10358 768 .cfa: sp 0 +
STACK CFI 1035c .cfa: sp 224 +
STACK CFI 10378 .cfa: x29 96 + x19: .cfa -8 + ^ x20: .cfa -16 + ^ x21: .cfa -24 + ^ x22: .cfa -32 + ^ x23: .cfa -40 + ^ x24: .cfa -48 + ^ x25: .cfa -56 + ^ x26: .cfa -64 + ^ x27: .cfa -72 + ^ x28: .cfa -80 + ^ .ra: .cfa -88 + ^ x29: .cfa -96 + ^
STACK CFI 104e0 .cfa: sp 224 +
STACK CFI 104fc .cfa: sp 0 +
STACK CFI 10500 .cfa: x29 96 +
STACK CFI 10954 .cfa: sp 224 +
STACK CFI 10970 .cfa: sp 0 +
STACK CFI 10974 .cfa: x29 96 +
STACK CFI INIT 10ad8 484 .cfa: sp 0 +
STACK CFI 10adc .cfa: sp 224 +
STACK CFI 10af8 .cfa: x29 96 + x19: .cfa -8 + ^ x20: .cfa -16 + ^ x21: .cfa -24 + ^ x22: .cfa -32 + ^ x23: .cfa -40 + ^ x24: .cfa -48 + ^ x25: .cfa -56 + ^ x26: .cfa -64 + ^ x27: .cfa -72 + ^ x28: .cfa -80 + ^ .ra: .cfa -88 + ^ x29: .cfa -96 + ^
STACK CFI 10d68 .cfa: sp 224 +
STACK CFI 10d84 .cfa: sp 0 +
STACK CFI 10d88 .cfa: x29 96 +
STACK CFI 10e54 .cfa: sp 224 +
STACK CFI 10e70 .cfa: sp 0 +
STACK CFI 10e74 .cfa: x29 96 +
STACK CFI INIT 10f88 50 .cfa: sp 0 +
STACK CFI 10f8c .cfa: sp 32 +
STACK CFI 10f94 .cfa: x29 32 + x19: .cfa -8 + ^ x20: .cfa -16 + ^ .ra: .cfa -24 + ^ x29: .cfa -32 + ^
STACK CFI INIT 1104c 60c .cfa: sp 0 +
STACK CFI 11050 .cfa: sp 288 +
STACK CFI 1106c .cfa: x29 96 + x19: .cfa -8 + ^ x20: .cfa -16 + ^ x21: .cfa -24 + ^ x22: .cfa -32 + ^ x23: .cfa -40 + ^ x24: .cfa -48 + ^ x25: .cfa -56 + ^ x26: .cfa -64 + ^ x28: .cfa -80 + ^ .ra: .cfa -88 + ^ x29: .cfa -96 + ^
STACK CFI 11484 .cfa: sp 288 +
STACK CFI 114a0 .cfa: sp 0 +
STACK CFI 114a4 .cfa: x29 96 +
STACK CFI INIT 116a8 74 .cfa: sp 0 +
STACK CFI 116ac .cfa: sp 48 +
STACK CFI 116b8 .cfa: x29 32 + x19: .cfa -8 + ^ x20: .cfa -16 + ^ .ra: .cfa -24 + ^ x29: .cfa -32 + ^
STACK CFI 11704 .cfa: sp 48 +
STACK CFI 11710 .cfa: sp 0 +
STACK CFI 11714 .cfa: x29 32 +
STACK CFI INIT 11b68 154 .cfa: sp 0 +
STACK CFI 11b6c .cfa: sp 384 +
STACK CFI 11b80 .cfa: x29 64 + x19: .cfa -8 + ^ x20: .cfa -16 + ^ x21: .cfa -24 + ^ x22: .cfa -32 + ^ x23: .cfa -40 + ^ x28: .cfa -48 + ^ .ra: .cfa -56 + ^ x29: .cfa -64 + ^
STACK CFI 11c64 .cfa: sp 384 +
STACK CFI 11c78 .cfa: sp 0 +
STACK CFI 11c7c .cfa: x29 64 +
STACK CFI INIT 11cf0 12c .cfa: sp 0 +
STACK CFI 11cf4 .cfa: sp 80 +
STACK CFI 11d08 .cfa: x29 80 + x19: .cfa -8 + ^ x20: .cfa -16 + ^ x21: .cfa -24 + ^ x22: .cfa -32 + ^ x23: .cfa -40 + ^ x24: .cfa -48 + ^ x25: .cfa -56 + ^ x26: .cfa -64 + ^ .ra: .cfa -72 + ^ x29: .cfa -80 + ^
STACK CFI 11dd0 .cfa: sp 80 +
STACK CFI 11de4 .cfa: sp 0 +
STACK CFI 11de8 .cfa: x29 80 +
STACK CFI INIT 11ec0 1a4 .cfa: sp 0 +
STACK CFI 11ec4 .cfa: sp 112 +
STACK CFI 11edc .cfa: x29 80 + x19: .cfa -8 + ^ x20: .cfa -16 + ^ x21: .cfa -24 + ^ x22: .cfa -32 + ^ x23: .cfa -40 + ^ x24: .cfa -48 + ^ x25: .cfa -56 + ^ x26: .cfa -64 + ^ .ra: .cfa -72 + ^ x29: .cfa -80 + ^
STACK CFI 11fcc .cfa: sp 112 +
STACK CFI 11fe4 .cfa: sp 0 +
STACK CFI 11fe8 .cfa: x29 80 +
STACK CFI INIT 12064 1dc .cfa: sp 0 +
STACK CFI 12068 .cfa: sp 128 +
STACK CFI 12084 .cfa: x29 96 + x19: .cfa -8 + ^ x20: .cfa -16 + ^ x21: .cfa -24 + ^ x22: .cfa -32 + ^ x23: .cfa -40 + ^ x24: .cfa -48 + ^ x25: .cfa -56 + ^ x26: .cfa -64 + ^ x27: .cfa -80 + ^ .ra: .cfa -88 + ^ x29: .cfa -96 + ^
STACK CFI 121f0 .cfa: sp 128 +
STACK CFI 1220c .cfa: sp 0 +
STACK CFI 12210 .cfa: x29 96 +
STACK CFI INIT 12240 178 .cfa: sp 0 +
STACK CFI 12244 .cfa: sp 80 +
STACK CFI 12258 .cfa: x29 80 + x19: .cfa -8 + ^ x20: .cfa -16 + ^ x21: .cfa -24 + ^ x22: .cfa -32 + ^ x23: .cfa -40 + ^ x24: .cfa -48 + ^ x25: .cfa -64 + ^ .ra: .cfa -72 + ^ x29: .cfa -80 + ^
STACK CFI 12384 .cfa: sp 80 +
STACK CFI 12398 .cfa: sp 0 +
STACK CFI 1239c .cfa: x29 80 +
STACK CFI INIT 12500 168 .cfa: sp 0 +
STACK CFI 12504 .cfa: sp 384 +
STACK CFI 12518 .cfa: x29 64 + x19: .cfa -8 + ^ x20: .cfa -16 + ^ x21: .cfa -24 + ^ x22: .cfa -32 + ^ x23: .cfa -40 + ^ x28: .cfa -48 + ^ .ra: .cfa -56 + ^ x29: .cfa -64 + ^
STACK CFI 12610 .cfa: sp 384 +
STACK CFI 12624 .cfa: sp 0 +
STACK CFI 12628 .cfa: x29 64 +
STACK CFI INIT 12680 224 .cfa: sp 0 +
STACK CFI 12684 .cfa: sp 128 +
STACK CFI 1269c .cfa: x29 80 + x19: .cfa -8 + ^ x20: .cfa -16 + ^ x21: .cfa -24 + ^ x22: .cfa -32 + ^ x23: .cfa -40 + ^ x24: .cfa -48 + ^ x25: .cfa -64 + ^ .ra: .cfa -72 + ^ x29: .cfa -80 + ^
STACK CFI 12838 .cfa: sp 128 +
STACK CFI 12850 .cfa: sp 0 +
STACK CFI 12854 .cfa: x29 80 +
STACK CFI INIT 12e60 1b0 .cfa: sp 0 +
STACK CFI 12e64 .cfa: sp 64 +
STACK CFI 12e74 .cfa: x29 64 + x19: .cfa -8 + ^ x20: .cfa -16 + ^ x21: .cfa -24 + ^ x22: .cfa -32 + ^ x23: .cfa -40 + ^ x24: .cfa -48 + ^ .ra: .cfa -56 + ^ x29: .cfa -64 + ^
STACK CFI 12fd0 .cfa: sp 64 +
STACK CFI 12fe0 .cfa: sp 0 +
STACK CFI 12fe4 .cfa: x29 64 +
STACK CFI INIT 13270 18c .cfa: sp 0 +
STACK CFI 13274 .cfa: sp 112 +
STACK CFI 13284 .cfa: x29 48 + x19: .cfa -8 + ^ x20: .cfa -16 + ^ x21: .cfa -32 + ^ .ra: .cfa -40 + ^ x29: .cfa -48 + ^
STACK CFI 13354 .cfa: sp 112 +
STACK CFI 13364 .cfa: sp 0 +
STACK CFI 13368 .cfa: x29 48 +
STACK CFI INIT 133fc 444 .cfa: sp 0 +
STACK CFI 13400 .cfa: sp 176 +
STACK CFI 1341c .cfa: x29 96 + x19: .cfa -8 + ^ x20: .cfa -16 + ^ x21: .cfa -24 + ^ x22: .cfa -32 + ^ x23: .cfa -40 + ^ x24: .cfa -48 + ^ x25: .cfa -56 + ^ x26: .cfa -64 + ^ x27: .cfa -72 + ^ x28: .cfa -80 + ^ .ra: .cfa -88 + ^ x29: .cfa -96 + ^
STACK CFI 1345c .cfa: sp 176 +
STACK CFI 13478 .cfa: sp 0 +
STACK CFI 1347c .cfa: x29 96 +
STACK CFI INIT 13840 10c .cfa: sp 0 +
STACK CFI 13844 .cfa: sp 64 +
STACK CFI 13854 .cfa: x29 64 + x19: .cfa -8 + ^ x20: .cfa -16 + ^ x21: .cfa -24 + ^ x22: .cfa -32 + ^ x23: .cfa -48 + ^ .ra: .cfa -56 + ^ x29: .cfa -64 + ^
STACK CFI 1392c .cfa: sp 64 +
STACK CFI 1393c .cfa: sp 0 +
STACK CFI 13940 .cfa: x29 64 +
STACK CFI INIT 13984 50 .cfa: sp 0 +
STACK CFI 13988 .cfa: sp 32 +
STACK CFI 13990 .cfa: x29 32 + x19: .cfa -8 + ^ x20: .cfa -16 + ^ .ra: .cfa -24 + ^ x29: .cfa -32 + ^
STACK CFI INIT 13cbc 1e0 .cfa: sp 0 +
STACK CFI 13cc0 .cfa: sp 128 +
STACK CFI 13cdc .cfa: x29 96 + x19: .cfa -8 + ^ x20: .cfa -16 + ^ x21: .cfa -24 + ^ x22: .cfa -32 + ^ x23: .cfa -40 + ^ x24: .cfa -48 + ^ x25: .cfa -56 + ^ x26: .cfa -64 + ^ x27: .cfa -80 + ^ .ra: .cfa -88 + ^ x29: .cfa -96 + ^
STACK CFI 13e54 .cfa: sp 128 +
STACK CFI 13e70 .cfa: sp 0 +
STACK CFI 13e74 .cfa: x29 96 +
STACK CFI INIT 13e9c 34c .cfa: sp 0 +
STACK CFI 13ea0 .cfa: sp 208 +
STACK CFI 13eb8 .cfa: x29 80 + x19: .cfa -8 + ^ x20: .cfa -16 + ^ x21: .cfa -24 + ^ x22: .cfa -32 + ^ x23: .cfa -40 + ^ x24: .cfa -48 + ^ x25: .cfa -64 + ^ .ra: .cfa -72 + ^ x29: .cfa -80 + ^
STACK CFI 140c0 .cfa: sp 208 +
STACK CFI 140d8 .cfa: sp 0 +
STACK CFI 140dc .cfa: x29 80 +
STACK CFI INIT 141ec 370 .cfa: sp 0 +
STACK CFI 141f0 .cfa: sp 208 +
STACK CFI 14204 .cfa: x29 64 + x19: .cfa -8 + ^ x20: .cfa -16 + ^ x21: .cfa -24 + ^ x22: .cfa -32 + ^ x23: .cfa -48 + ^ .ra: .cfa -56 + ^ x29: .cfa -64 + ^
STACK CFI 1447c .cfa: sp 208 +
STACK CFI 14490 .cfa: sp 0 +
STACK CFI 14494 .cfa: x29 64 +
STACK CFI INIT 1455c 16b0 .cfa: sp 0 +
STACK CFI 14560 .cfa: sp 128 +
STACK CFI 14580 .cfa: x29 96 + x19: .cfa -8 + ^ x20: .cfa -16 + ^ x21: .cfa -24 + ^ x22: .cfa -32 + ^ x23: .cfa -40 + ^ x24: .cfa -48 + ^ x25: .cfa -56 + ^ x26: .cfa -64 + ^ x27: .cfa -72 + ^ x28: .cfa -80 + ^ .ra: .cfa -88 + ^ x29: .cfa -96 + ^ v8: .cfa -104 + ^ v9: .cfa -112 + ^ v10: .cfa -120 + ^ v11: .cfa -128 + ^
STACK CFI 159d8 .cfa: sp 128 +
STACK CFI 159f8 .cfa: sp 0 +
STACK CFI 159fc .cfa: x29 96 +
STACK CFI INIT 15c0c 18c .cfa: sp 0 +
STACK CFI 15c10 .cfa: sp 112 +
STACK CFI 15c20 .cfa: x29 48 + x19: .cfa -8 + ^ x20: .cfa -16 + ^ x21: .cfa -32 + ^ .ra: .cfa -40 + ^ x29: .cfa -48 + ^
STACK CFI 15cf0 .cfa: sp 112 +
STACK CFI 15d00 .cfa: sp 0 +
STACK CFI 15d04 .cfa: x29 48 +
STACK CFI INIT 15d98 20 .cfa: sp 0 +
STACK CFI 15d9c .cfa: sp 16 +
STACK CFI 15da0 .cfa: x29 16 + .ra: .cfa -8 + ^ x29: .cfa -16 + ^
STACK CFI 15dac .cfa: sp 16 +
STACK CFI 15db0 .cfa: sp 0 +
STACK CFI 15db4 .cfa: x29 16 +
STACK CFI INIT 15fd8 a80 .cfa: sp 0 +
STACK CFI 15fdc .cfa: sp 96 +
STACK CFI 15ff4 .cfa: x29 96 + x19: .cfa -8 + ^ x20: .cfa -16 + ^ x21: .cfa -24 + ^ x22: .cfa -32 + ^ x23: .cfa -40 + ^ x24: .cfa -48 + ^ x25: .cfa -56 + ^ x26: .cfa -64 + ^ x27: .cfa -72 + ^ x28: .cfa -80 + ^ .ra: .cfa -88 + ^ x29: .cfa -96 + ^
STACK CFI 16738 .cfa: sp 96 +
STACK CFI 16750 .cfa: sp 0 +
STACK CFI 16754 .cfa: x29 96 +
STACK CFI INIT 16ae0 134 .cfa: sp 0 +
STACK CFI 16ae4 .cfa: sp 80 +
STACK CFI 16af0 .cfa: x29 32 + x19: .cfa -8 + ^ x20: .cfa -16 + ^ .ra: .cfa -24 + ^ x29: .cfa -32 + ^
STACK CFI 16b20 .cfa: sp 80 +
STACK CFI 16b2c .cfa: sp 0 +
STACK CFI 16b30 .cfa: x29 32 +
STACK CFI INIT 16c14 78 .cfa: sp 0 +
STACK CFI 16c18 .cfa: sp 32 +
STACK CFI 16c20 .cfa: x29 32 + x19: .cfa -8 + ^ x20: .cfa -16 + ^ .ra: .cfa -24 + ^ x29: .cfa -32 + ^
STACK CFI 16c2c .cfa: sp 32 +
STACK CFI 16c34 .cfa: sp 0 +
STACK CFI 16c38 .cfa: x29 32 +
STACK CFI INIT 16c8c 74 .cfa: sp 0 +
STACK CFI 16c90 .cfa: sp 48 +
STACK CFI 16c9c .cfa: x29 32 + x19: .cfa -8 + ^ x20: .cfa -16 + ^ .ra: .cfa -24 + ^ x29: .cfa -32 + ^
STACK CFI 16ce8 .cfa: sp 48 +
STACK CFI 16cf4 .cfa: sp 0 +
STACK CFI 16cf8 .cfa: x29 32 +
STACK CFI INIT 16d64 224 .cfa: sp 0 +
STACK CFI 16d68 .cfa: sp 128 +
STACK CFI 16d78 .cfa: x29 48 + x19: .cfa -8 + ^ x20: .cfa -16 + ^ x21: .cfa -32 + ^ .ra: .cfa -40 + ^ x29: .cfa -48 + ^
STACK CFI 16e28 .cfa: sp 128 +
STACK CFI 16e38 .cfa: sp 0 +
STACK CFI 16e3c .cfa: x29 48 +
STACK CFI INIT 16fac 4f4 .cfa: sp 0 +
STACK CFI 16fb0 .cfa: sp 144 +
STACK CFI 16fc4 .cfa: x29 64 + x19: .cfa -8 + ^ x20: .cfa -16 + ^ x21: .cfa -24 + ^ x22: .cfa -32 + ^ x23: .cfa -48 + ^ .ra: .cfa -56 + ^ x29: .cfa -64 + ^
STACK CFI 172f8 .cfa: sp 144 +
STACK CFI 1730c .cfa: sp 0 +
STACK CFI 17310 .cfa: x29 64 +
STACK CFI INIT 174a0 154 .cfa: sp 0 +
STACK CFI 174a4 .cfa: sp 384 +
STACK CFI 174b8 .cfa: x29 64 + x19: .cfa -8 + ^ x20: .cfa -16 + ^ x21: .cfa -24 + ^ x22: .cfa -32 + ^ x23: .cfa -40 + ^ x28: .cfa -48 + ^ .ra: .cfa -56 + ^ x29: .cfa -64 + ^
STACK CFI 1759c .cfa: sp 384 +
STACK CFI 175b0 .cfa: sp 0 +
STACK CFI 175b4 .cfa: x29 64 +
STACK CFI INIT 1760c 50c .cfa: sp 0 +
STACK CFI 17610 .cfa: sp 64 +
STACK CFI 17620 .cfa: x29 64 + x19: .cfa -8 + ^ x20: .cfa -16 + ^ x21: .cfa -24 + ^ x22: .cfa -32 + ^ x23: .cfa -40 + ^ x24: .cfa -48 + ^ .ra: .cfa -56 + ^ x29: .cfa -64 + ^
STACK CFI 17740 .cfa: sp 64 +
STACK CFI 17750 .cfa: sp 0 +
STACK CFI 17754 .cfa: x29 64 +
STACK CFI 17aec .cfa: sp 64 +
STACK CFI 17afc .cfa: sp 0 +
STACK CFI 17b00 .cfa: x29 64 +
STACK CFI INIT 17e48 294 .cfa: sp 0 +
STACK CFI 17e4c .cfa: sp 240 +
STACK CFI 17e64 .cfa: x29 80 + x19: .cfa -8 + ^ x20: .cfa -16 + ^ x21: .cfa -24 + ^ x22: .cfa -32 + ^ x23: .cfa -40 + ^ x24: .cfa -48 + ^ x25: .cfa -64 + ^ .ra: .cfa -72 + ^ x29: .cfa -80 + ^
STACK CFI 18004 .cfa: sp 240 +
STACK CFI 1801c .cfa: sp 0 +
STACK CFI 18020 .cfa: x29 80 +
STACK CFI INIT 18158 50 .cfa: sp 0 +
STACK CFI 1815c .cfa: sp 32 +
STACK CFI 18164 .cfa: x29 32 + x19: .cfa -8 + ^ x20: .cfa -16 + ^ .ra: .cfa -24 + ^ x29: .cfa -32 + ^
STACK CFI INIT 181d4 7c0 .cfa: sp 0 +
STACK CFI 181d8 .cfa: sp 320 +
STACK CFI 181f4 .cfa: x29 96 + x19: .cfa -8 + ^ x20: .cfa -16 + ^ x21: .cfa -24 + ^ x22: .cfa -32 + ^ x23: .cfa -40 + ^ x24: .cfa -48 + ^ x25: .cfa -56 + ^ x26: .cfa -64 + ^ x27: .cfa -72 + ^ x28: .cfa -80 + ^ .ra: .cfa -88 + ^ x29: .cfa -96 + ^
STACK CFI 18844 .cfa: sp 320 +
STACK CFI 18860 .cfa: sp 0 +
STACK CFI 18864 .cfa: x29 96 +
STACK CFI INIT 1cd14 c74 .cfa: sp 0 +
STACK CFI 1cd18 .cfa: sp 96 +
STACK CFI 1cd30 .cfa: x29 96 + x19: .cfa -8 + ^ x20: .cfa -16 + ^ x21: .cfa -24 + ^ x22: .cfa -32 + ^ x23: .cfa -40 + ^ x24: .cfa -48 + ^ x25: .cfa -56 + ^ x26: .cfa -64 + ^ x27: .cfa -72 + ^ x28: .cfa -80 + ^ .ra: .cfa -88 + ^ x29: .cfa -96 + ^
STACK CFI 1d7a8 .cfa: sp 96 +
STACK CFI 1d7c0 .cfa: sp 0 +
STACK CFI 1d7c4 .cfa: x29 96 +
STACK CFI INIT 1dadc 26c .cfa: sp 0 +
STACK CFI 1dae0 .cfa: sp 128 +
STACK CFI 1daf0 .cfa: x29 48 + x19: .cfa -8 + ^ x20: .cfa -16 + ^ x21: .cfa -24 + ^ x22: .cfa -32 + ^ .ra: .cfa -40 + ^ x29: .cfa -48 + ^
STACK CFI 1dc94 .cfa: sp 128 +
STACK CFI 1dca4 .cfa: sp 0 +
STACK CFI 1dca8 .cfa: x29 48 +
STACK CFI INIT 1e294 3b8 .cfa: sp 0 +
STACK CFI 1e298 .cfa: sp 96 +
STACK CFI 1e2b0 .cfa: x29 96 + x19: .cfa -8 + ^ x20: .cfa -16 + ^ x21: .cfa -24 + ^ x22: .cfa -32 + ^ x23: .cfa -40 + ^ x24: .cfa -48 + ^ x25: .cfa -56 + ^ x26: .cfa -64 + ^ x27: .cfa -72 + ^ x28: .cfa -80 + ^ .ra: .cfa -88 + ^ x29: .cfa -96 + ^
STACK CFI 1e5ec .cfa: sp 96 +
STACK CFI 1e604 .cfa: sp 0 +
STACK CFI 1e608 .cfa: x29 96 +
STACK CFI INIT 1e6ec cb4 .cfa: sp 0 +
STACK CFI 1e6f0 .cfa: sp 96 +
STACK CFI 1e708 .cfa: x29 96 + x19: .cfa -8 + ^ x20: .cfa -16 + ^ x21: .cfa -24 + ^ x22: .cfa -32 + ^ x23: .cfa -40 + ^ x24: .cfa -48 + ^ x25: .cfa -56 + ^ x26: .cfa -64 + ^ x27: .cfa -72 + ^ x28: .cfa -80 + ^ .ra: .cfa -88 + ^ x29: .cfa -96 + ^
STACK CFI 1f1b0 .cfa: sp 96 +
STACK CFI 1f1c8 .cfa: sp 0 +
STACK CFI 1f1cc .cfa: x29 96 +
STACK CFI INIT 1f688 afc .cfa: sp 0 +
STACK CFI 1f68c .cfa: sp 96 +
STACK CFI 1f6a4 .cfa: x29 96 + x19: .cfa -8 + ^ x20: .cfa -16 + ^ x21: .cfa -24 + ^ x22: .cfa -32 + ^ x23: .cfa -40 + ^ x24: .cfa -48 + ^ x25: .cfa -56 + ^ x26: .cfa -64 + ^ x27: .cfa -72 + ^ x28: .cfa -80 + ^ .ra: .cfa -88 + ^ x29: .cfa -96 + ^
STACK CFI 200f8 .cfa: sp 96 +
STACK CFI 20110 .cfa: sp 0 +
STACK CFI 20114 .cfa: x29 96 +
STACK CFI INIT 20360 1430 .cfa: sp 0 +
STACK CFI 20364 .cfa: sp 96 +
STACK CFI 2037c .cfa: x29 96 + x19: .cfa -8 + ^ x20: .cfa -16 + ^ x21: .cfa -24 + ^ x22: .cfa -32 + ^ x23: .cfa -40 + ^ x24: .cfa -48 + ^ x25: .cfa -56 + ^ x26: .cfa -64 + ^ x27: .cfa -72 + ^ x28: .cfa -80 + ^ .ra: .cfa -88 + ^ x29: .cfa -96 + ^
STACK CFI 21618 .cfa: sp 96 +
STACK CFI 21630 .cfa: sp 0 +
STACK CFI 21634 .cfa: x29 96 +
STACK CFI INIT 218b4 75c .cfa: sp 0 +
STACK CFI 218b8 .cfa: sp 368 +
STACK CFI 218d4 .cfa: x29 96 + x19: .cfa -8 + ^ x20: .cfa -16 + ^ x21: .cfa -24 + ^ x22: .cfa -32 + ^ x23: .cfa -40 + ^ x24: .cfa -48 + ^ x25: .cfa -56 + ^ x26: .cfa -64 + ^ x27: .cfa -72 + ^ x28: .cfa -80 + ^ .ra: .cfa -88 + ^ x29: .cfa -96 + ^
STACK CFI 21988 .cfa: sp 368 +
STACK CFI 219a4 .cfa: sp 0 +
STACK CFI 219a8 .cfa: x29 96 +
STACK CFI 219fc .cfa: sp 368 +
STACK CFI 21a18 .cfa: sp 0 +
STACK CFI 21a1c .cfa: x29 96 +
STACK CFI INIT 223d0 eb0 .cfa: sp 0 +
STACK CFI 223d4 .cfa: sp 96 +
STACK CFI 223ec .cfa: x29 96 + x19: .cfa -8 + ^ x20: .cfa -16 + ^ x21: .cfa -24 + ^ x22: .cfa -32 + ^ x23: .cfa -40 + ^ x24: .cfa -48 + ^ x25: .cfa -56 + ^ x26: .cfa -64 + ^ x27: .cfa -72 + ^ x28: .cfa -80 + ^ .ra: .cfa -88 + ^ x29: .cfa -96 + ^
STACK CFI 23094 .cfa: sp 96 +
STACK CFI 230ac .cfa: sp 0 +
STACK CFI 230b0 .cfa: x29 96 +
STACK CFI INIT 235f4 1c9c .cfa: sp 0 +
STACK CFI 235f8 .cfa: sp 112 +
STACK CFI 23614 .cfa: x29 96 + x19: .cfa -8 + ^ x20: .cfa -16 + ^ x21: .cfa -24 + ^ x22: .cfa -32 + ^ x23: .cfa -40 + ^ x24: .cfa -48 + ^ x25: .cfa -56 + ^ x26: .cfa -64 + ^ x27: .cfa -72 + ^ x28: .cfa -80 + ^ .ra: .cfa -88 + ^ x29: .cfa -96 + ^ v8: .cfa -112 + ^
STACK CFI 239fc .cfa: sp 112 +
STACK CFI 23a18 .cfa: sp 0 +
STACK CFI 23a1c .cfa: x29 96 +
STACK CFI INIT 27a54 9a0 .cfa: sp 0 +
STACK CFI 27a58 .cfa: sp 144 +
STACK CFI 27a70 .cfa: x29 80 + x19: .cfa -8 + ^ x20: .cfa -16 + ^ x21: .cfa -24 + ^ x22: .cfa -32 + ^ x23: .cfa -40 + ^ x24: .cfa -48 + ^ x25: .cfa -64 + ^ .ra: .cfa -72 + ^ x29: .cfa -80 + ^
STACK CFI 28370 .cfa: sp 144 +
STACK CFI 28388 .cfa: sp 0 +
STACK CFI 2838c .cfa: x29 80 +
STACK CFI INIT 29918 57c .cfa: sp 0 +
STACK CFI 2991c .cfa: sp 96 +
STACK CFI 29934 .cfa: x29 96 + x19: .cfa -8 + ^ x20: .cfa -16 + ^ x21: .cfa -24 + ^ x22: .cfa -32 + ^ x23: .cfa -40 + ^ x24: .cfa -48 + ^ x25: .cfa -56 + ^ x26: .cfa -64 + ^ x27: .cfa -72 + ^ x28: .cfa -80 + ^ .ra: .cfa -88 + ^ x29: .cfa -96 + ^
STACK CFI 29df8 .cfa: sp 96 +
STACK CFI 29e10 .cfa: sp 0 +
STACK CFI 29e14 .cfa: x29 96 +
STACK CFI INIT 29e94 67c .cfa: sp 0 +
STACK CFI 29e98 .cfa: sp 96 +
STACK CFI 29eb0 .cfa: x29 96 + x19: .cfa -8 + ^ x20: .cfa -16 + ^ x21: .cfa -24 + ^ x22: .cfa -32 + ^ x23: .cfa -40 + ^ x24: .cfa -48 + ^ x25: .cfa -56 + ^ x26: .cfa -64 + ^ x27: .cfa -72 + ^ x28: .cfa -80 + ^ .ra: .cfa -88 + ^ x29: .cfa -96 + ^
STACK CFI 2a474 .cfa: sp 96 +
STACK CFI 2a48c .cfa: sp 0 +
STACK CFI 2a490 .cfa: x29 96 +
