MODULE Linux arm64 3D6CA438FCA4BF93E065A19E8613779C0 mariomastr.progress_of_editor_levels.android64.so
INFO CODE_ID 38A46C3DA4FC93BFE065A19E8613779C25BBC1B5
INFO GENERATOR mozilla/dump_syms 2.3.4
PUBLIC 4ae0 0 __on_dlclose
PUBLIC 4af0 0 __emutls_unregister_key
PUBLIC 4af8 0 __on_dlclose_late
PUBLIC 4b00 0 __atexit_handler_wrapper
PUBLIC 4b14 0 atexit
PUBLIC 4b30 0 pthread_atfork
PUBLIC 4b40 0 unwind_phase2
PUBLIC 4c74 0 _Unwind_Resume
PUBLIC 4cf8 0 unwind_phase2_forced
PUBLIC m 4dec 0 __unw_init_local
PUBLIC m 4e94 0 __unw_get_reg
PUBLIC 4f10 0 __unw_step_stage2
PUBLIC m 4f24 0 __unw_get_proc_info
PUBLIC m 4f64 0 __unw_resume
PUBLIC 4f8c 0 libunwind::CFI_Parser<libunwind::LocalAddressSpace>::decodeFDE(libunwind::LocalAddressSpace&, unsigned long, libunwind::CFI_Parser<libunwind::LocalAddressSpace>::FDE_Info*, libunwind::CFI_Parser<libunwind::LocalAddressSpace>::CIE_Info*, bool)
PUBLIC 511c 0 libunwind::CFI_Parser<libunwind::LocalAddressSpace>::parseCIE(libunwind::LocalAddressSpace&, unsigned long, libunwind::CFI_Parser<libunwind::LocalAddressSpace>::CIE_Info*)
PUBLIC 53e4 0 libunwind::AbstractUnwindCursor::~AbstractUnwindCursor()
PUBLIC 53ec 0 libunwind::UnwindCursor<libunwind::LocalAddressSpace, libunwind::Registers_arm64>::~UnwindCursor()
PUBLIC 53f4 0 libunwind::UnwindCursor<libunwind::LocalAddressSpace, libunwind::Registers_arm64>::validReg(int)
PUBLIC 5438 0 libunwind::UnwindCursor<libunwind::LocalAddressSpace, libunwind::Registers_arm64>::getReg(int)
PUBLIC 5520 0 libunwind::UnwindCursor<libunwind::LocalAddressSpace, libunwind::Registers_arm64>::setReg(int, unsigned long)
PUBLIC 5608 0 libunwind::UnwindCursor<libunwind::LocalAddressSpace, libunwind::Registers_arm64>::validFloatReg(int)
PUBLIC 561c 0 libunwind::UnwindCursor<libunwind::LocalAddressSpace, libunwind::Registers_arm64>::getFloatReg(int)
PUBLIC 562c 0 libunwind::UnwindCursor<libunwind::LocalAddressSpace, libunwind::Registers_arm64>::setFloatReg(int, double)
PUBLIC 563c 0 libunwind::UnwindCursor<libunwind::LocalAddressSpace, libunwind::Registers_arm64>::step(bool)
PUBLIC 572c 0 libunwind::UnwindCursor<libunwind::LocalAddressSpace, libunwind::Registers_arm64>::getInfo(unw_proc_info_t*)
PUBLIC 5770 0 libunwind::UnwindCursor<libunwind::LocalAddressSpace, libunwind::Registers_arm64>::jumpto()
PUBLIC 577c 0 libunwind::UnwindCursor<libunwind::LocalAddressSpace, libunwind::Registers_arm64>::isSignalFrame()
PUBLIC 5788 0 libunwind::UnwindCursor<libunwind::LocalAddressSpace, libunwind::Registers_arm64>::getFunctionName(char*, unsigned long, unsigned long*)
PUBLIC 57b4 0 libunwind::UnwindCursor<libunwind::LocalAddressSpace, libunwind::Registers_arm64>::setInfoBasedOnIPRegister(bool)
PUBLIC 5a34 0 libunwind::UnwindCursor<libunwind::LocalAddressSpace, libunwind::Registers_arm64>::getRegisterName(int)
PUBLIC 5a40 0 libunwind::UnwindCursor<libunwind::LocalAddressSpace, libunwind::Registers_arm64>::stepThroughSigReturn(libunwind::Registers_arm64&)
PUBLIC 5b60 0 libunwind::DwarfInstructions<libunwind::LocalAddressSpace, libunwind::Registers_arm64>::stepWithDwarf(libunwind::LocalAddressSpace&, unsigned long, unsigned long, libunwind::Registers_arm64&, bool&, bool)
PUBLIC 5fe8 0 libunwind::CFI_Parser<libunwind::LocalAddressSpace>::parseFDEInstructions(libunwind::LocalAddressSpace&, libunwind::CFI_Parser<libunwind::LocalAddressSpace>::FDE_Info const&, libunwind::CFI_Parser<libunwind::LocalAddressSpace>::CIE_Info const&, unsigned long, int, libunwind::CFI_Parser<libunwind::LocalAddressSpace>::PrologInfo*)
PUBLIC 6c30 0 libunwind::DwarfInstructions<libunwind::LocalAddressSpace, libunwind::Registers_arm64>::getCFA(libunwind::LocalAddressSpace&, libunwind::CFI_Parser<libunwind::LocalAddressSpace>::PrologInfo const&, libunwind::Registers_arm64 const&)
PUBLIC 6d64 0 libunwind::DwarfInstructions<libunwind::LocalAddressSpace, libunwind::Registers_arm64>::getSavedRegister(libunwind::LocalAddressSpace&, libunwind::Registers_arm64 const&, unsigned long, libunwind::CFI_Parser<libunwind::LocalAddressSpace>::RegisterLocation const&)
PUBLIC 6f74 0 libunwind::LocalAddressSpace::getEncodedP(unsigned long&, unsigned long, unsigned char, unsigned long)
PUBLIC 7300 0 libunwind::LocalAddressSpace::getULEB128(unsigned long&, unsigned long)
PUBLIC 74c8 0 libunwind::DwarfInstructions<libunwind::LocalAddressSpace, libunwind::Registers_arm64>::evaluateExpression(unsigned long, libunwind::LocalAddressSpace&, libunwind::Registers_arm64 const&, unsigned long)
PUBLIC 7e84 0 libunwind::UnwindCursor<libunwind::LocalAddressSpace, libunwind::Registers_arm64>::getInfoFromDwarfSection(unsigned long, libunwind::UnwindInfoSections const&, unsigned int)
PUBLIC 8158 0 libunwind::findUnwindSectionsByPhdr(dl_phdr_info*, unsigned long, void*)
PUBLIC 828c 0 libunwind::EHHeaderParser<libunwind::LocalAddressSpace>::decodeEHHdr(libunwind::LocalAddressSpace&, unsigned long, unsigned long, libunwind::EHHeaderParser<libunwind::LocalAddressSpace>::EHHeaderInfo&)
PUBLIC 83ac 0 libunwind::CFI_Parser<libunwind::LocalAddressSpace>::findFDE(libunwind::LocalAddressSpace&, unsigned long, unsigned long, unsigned long, unsigned long, libunwind::CFI_Parser<libunwind::LocalAddressSpace>::FDE_Info*, libunwind::CFI_Parser<libunwind::LocalAddressSpace>::CIE_Info*)
PUBLIC 8574 0 libunwind::EHHeaderParser<libunwind::LocalAddressSpace>::findFDE(libunwind::LocalAddressSpace&, unsigned long, unsigned long, unsigned int, libunwind::CFI_Parser<libunwind::LocalAddressSpace>::FDE_Info*, libunwind::CFI_Parser<libunwind::LocalAddressSpace>::CIE_Info*)
PUBLIC 86dc 0 libunwind::EHHeaderParser<libunwind::LocalAddressSpace>::getTableEntrySize(unsigned char)
PUBLIC 87d8 0 libunwind::Registers_arm64::getRegisterName(int)
PUBLIC 8808 0 __libunwind_Registers_arm64_jumpto
PUBLIC m 8898 0 __unw_getcontext
PUBLIC 8940 0 __aarch64_ldadd8_relax
PUBLIC 8970 0 init_have_lse_atomics
PUBLIC 8a08 0 __init_cpu_features_constructor
PUBLIC 8fa4 0 __init_cpu_features
PUBLIC 9030 0 __aarch64_ldadd8_acq_rel
PUBLIC 9060 0 __cxx_global_var_init
PUBLIC 9c34 0 geode::modifier::ModifyBase<geode::modifier::ModifyDerive<MyEditLevelLayer, EditLevelLayer> >::~ModifyBase()
PUBLIC 9c4c 0 geode::modifier::ModifyDerive<MyEditLevelLayer, EditLevelLayer>::apply()
PUBLIC a25c 0 std::__ndk1::shared_ptr<geode::Hook>::~shared_ptr[abi:ne180000]()
PUBLIC a2ac 0 geode::impl::ResultData<geode::Hook*, std::__ndk1::basic_string<char, std::__ndk1::char_traits<char>, std::__ndk1::allocator<char> > >::~ResultData()
PUBLIC a320 0 std::__ndk1::vector<std::__ndk1::basic_string<char, std::__ndk1::char_traits<char>, std::__ndk1::allocator<char> >, std::__ndk1::allocator<std::__ndk1::basic_string<char, std::__ndk1::char_traits<char>, std::__ndk1::allocator<char> > > >::~vector[abi:ne180000]()
PUBLIC a39c 0 geode::modifier::ModifyBase<geode::modifier::ModifyDerive<MyEditLevelLayer, EditLevelLayer> >::apply()
PUBLIC a3a0 0 __clang_call_terminate
PUBLIC a3b0 0 _ZN5geode15UnwrapExceptionC2IRPNS_4HookEQsr4implE18IsStringStreamableIT_EEENS_4impl5OkTagEOS5_
PUBLIC aaac 0 std::__ndk1::__throw_bad_variant_access[abi:ne180000]()
PUBLIC m aae0 0 std::__ndk1::basic_stringstream<char, std::__ndk1::char_traits<char>, std::__ndk1::allocator<char> >::~basic_stringstream()
PUBLIC ab60 0 geode::UnwrapException::~UnwrapException()
PUBLIC ab84 0 std::__ndk1::basic_string<char, std::__ndk1::char_traits<char>, std::__ndk1::allocator<char> >::__throw_length_error[abi:ne180000]() const
PUBLIC ab98 0 std::__ndk1::__throw_length_error[abi:ne180000](char const*)
PUBLIC abe8 0 std::length_error::length_error[abi:ne180000](char const*)
PUBLIC ac18 0 std::__throw_bad_array_new_length([abi:ne180000], void)
PUBLIC ac4c 0 std::__ndk1::basic_string<char, std::__ndk1::char_traits<char>, std::__ndk1::allocator<char> >::__init_copy_ctor_external(char const*, unsigned long)
PUBLIC acc8 0 std::__ndk1::__split_buffer<std::__ndk1::basic_string<char, std::__ndk1::char_traits<char>, std::__ndk1::allocator<char> >, std::__ndk1::allocator<std::__ndk1::basic_string<char, std::__ndk1::char_traits<char>, std::__ndk1::allocator<char> > >&>::~__split_buffer()
PUBLIC ad30 0 std::__ndk1::vector<std::__ndk1::basic_string<char, std::__ndk1::char_traits<char>, std::__ndk1::allocator<char> >, std::__ndk1::allocator<std::__ndk1::basic_string<char, std::__ndk1::char_traits<char>, std::__ndk1::allocator<char> > > >::__throw_length_error[abi:ne180000]() const
PUBLIC ad44 0 std::__ndk1::__variant_detail::__visitation::__base::__dispatcher<(unsigned long)0>::__dispatch[abi:ne180000]<std::__ndk1::__variant_detail::__dtor<std::__ndk1::__variant_detail::__traits<geode::Hook*, std::__ndk1::basic_string<char, std::__ndk1::char_traits<char>, std::__ndk1::allocator<char> > >, (std::__ndk1::__variant_detail::_Trait)1>::__destroy[abi:ne180000]()::{lambda(auto:1&)#1}, std::__ndk1::__variant_detail::__base<(std::__ndk1::__variant_detail::__traits<geode::Hook*, std::__ndk1::basic_string<char, std::__ndk1::char_traits<char>, std::__ndk1::allocator<char> > >)1, geode::Hook, std::__ndk1::allocator<char> >&>(std::__ndk1::__variant_detail::__dtor<std::__ndk1::__variant_detail::__traits<geode::Hook*, std::__ndk1::basic_string<char, std::__ndk1::char_traits<char>, std::__ndk1::allocator<char> > >, (std::__ndk1::__variant_detail::_Trait)1>, std::__ndk1::__variant_detail::__base<(std::__ndk1::__variant_detail::__traits<geode::Hook*, std::__ndk1::basic_string<char, std::__ndk1::char_traits<char>, std::__ndk1::allocator<char> > >)1, geode::Hook, std::__ndk1::allocator<char> >&)
PUBLIC ad48 0 std::__ndk1::__variant_detail::__visitation::__base::__dispatcher<(unsigned long)1>::__dispatch[abi:ne180000]<std::__ndk1::__variant_detail::__dtor<std::__ndk1::__variant_detail::__traits<geode::Hook*, std::__ndk1::basic_string<char, std::__ndk1::char_traits<char>, std::__ndk1::allocator<char> > >, (std::__ndk1::__variant_detail::_Trait)1>::__destroy[abi:ne180000]()::{lambda(auto:1&)#1}, std::__ndk1::__variant_detail::__base<(std::__ndk1::__variant_detail::__traits<geode::Hook*, std::__ndk1::basic_string<char, std::__ndk1::char_traits<char>, std::__ndk1::allocator<char> > >)1, geode::Hook, std::__ndk1::allocator<char> >&>(std::__ndk1::__variant_detail::__dtor<std::__ndk1::__variant_detail::__traits<geode::Hook*, std::__ndk1::basic_string<char, std::__ndk1::char_traits<char>, std::__ndk1::allocator<char> > >, (std::__ndk1::__variant_detail::_Trait)1>, std::__ndk1::__variant_detail::__base<(std::__ndk1::__variant_detail::__traits<geode::Hook*, std::__ndk1::basic_string<char, std::__ndk1::char_traits<char>, std::__ndk1::allocator<char> > >)1, geode::Hook, std::__ndk1::allocator<char> >&)
PUBLIC ad5c 0 std::__ndk1::__tree<std::__ndk1::__value_type<std::__ndk1::basic_string<char, std::__ndk1::char_traits<char>, std::__ndk1::allocator<char> >, std::__ndk1::shared_ptr<geode::Hook> >, std::__ndk1::__map_value_compare<std::__ndk1::basic_string<char, std::__ndk1::char_traits<char>, std::__ndk1::allocator<char> >, std::__ndk1::__value_type<std::__ndk1::basic_string<char, std::__ndk1::char_traits<char>, std::__ndk1::allocator<char> >, std::__ndk1::shared_ptr<geode::Hook> >, std::__ndk1::less<std::__ndk1::basic_string<char, std::__ndk1::char_traits<char>, std::__ndk1::allocator<char> > >, true>, std::__ndk1::allocator<std::__ndk1::__value_type<std::__ndk1::basic_string<char, std::__ndk1::char_traits<char>, std::__ndk1::allocator<char> >, std::__ndk1::shared_ptr<geode::Hook> > > >::destroy(std::__ndk1::__tree_node<std::__ndk1::__value_type<std::__ndk1::basic_string<char, std::__ndk1::char_traits<char>, std::__ndk1::allocator<char> >, std::__ndk1::shared_ptr<geode::Hook> >, void*>*)
PUBLIC ade0 0 geode::modifier::AsStaticFunction_init<MyEditLevelLayer, bool (MyEditLevelLayer::*)(GJGameLevel*)>::Impl<bool (MyEditLevelLayer::*)(GJGameLevel*)>::function(MyEditLevelLayer*, GJGameLevel*)
PUBLIC b8d4 0 std::__ndk1::shared_ptr<tulip::hook::CallingConvention>::~shared_ptr[abi:ne180000]()
PUBLIC b924 0 tulip::hook::HandlerMetadata::~HandlerMetadata()
PUBLIC b988 0 std::__ndk1::__hash_table<std::__ndk1::__hash_value_type<std::__ndk1::basic_string<char, std::__ndk1::char_traits<char>, std::__ndk1::allocator<char> >, void (*)(cocos2d::CCNode*)>, std::__ndk1::__unordered_map_hasher<std::__ndk1::basic_string<char, std::__ndk1::char_traits<char>, std::__ndk1::allocator<char> >, std::__ndk1::__hash_value_type<std::__ndk1::basic_string<char, std::__ndk1::char_traits<char>, std::__ndk1::allocator<char> >, void (*)(cocos2d::CCNode*)>, std::__ndk1::hash<std::__ndk1::basic_string<char, std::__ndk1::char_traits<char>, std::__ndk1::allocator<char> > >, std::__ndk1::equal_to<std::__ndk1::basic_string<char, std::__ndk1::char_traits<char>, std::__ndk1::allocator<char> > >, true>, std::__ndk1::__unordered_map_equal<std::__ndk1::basic_string<char, std::__ndk1::char_traits<char>, std::__ndk1::allocator<char> >, std::__ndk1::__hash_value_type<std::__ndk1::basic_string<char, std::__ndk1::char_traits<char>, std::__ndk1::allocator<char> >, void (*)(cocos2d::CCNode*)>, std::__ndk1::equal_to<std::__ndk1::basic_string<char, std::__ndk1::char_traits<char>, std::__ndk1::allocator<char> > >, std::__ndk1::hash<std::__ndk1::basic_string<char, std::__ndk1::char_traits<char>, std::__ndk1::allocator<char> > >, true>, std::__ndk1::allocator<std::__ndk1::__hash_value_type<std::__ndk1::basic_string<char, std::__ndk1::char_traits<char>, std::__ndk1::allocator<char> >, void (*)(cocos2d::CCNode*)> > >::find<std::__ndk1::basic_string<char, std::__ndk1::char_traits<char>, std::__ndk1::allocator<char> > >(std::__ndk1::basic_string<char, std::__ndk1::char_traits<char>, std::__ndk1::allocator<char> > const&) const
PUBLIC bfc4 0 std::__ndk1::__throw_out_of_range[abi:ne180000](char const*)
PUBLIC c00c 0 std::out_of_range::out_of_range[abi:ne180000](char const*)
PUBLIC m c044 0 geodeImplicitEntry
PUBLIC c080 0 <.plt ELF section in mariomastr.progress_of_editor_levels.android64.so>
STACK CFI INIT 4ae0 10 .cfa: sp 0 +
STACK CFI INIT 4af0 8 .cfa: sp 0 +
STACK CFI INIT 4af8 8 .cfa: sp 0 +
STACK CFI INIT 4b00 14 .cfa: sp 0 +
STACK CFI INIT 4b14 1c .cfa: sp 0 +
STACK CFI INIT 4b30 10 .cfa: sp 0 +
STACK CFI INIT 4b40 134 .cfa: sp 0 +
STACK CFI INIT 4c74 84 .cfa: sp 0 +
STACK CFI INIT 4cf8 f4 .cfa: sp 0 +
STACK CFI INIT 4dec a8 .cfa: sp 0 +
STACK CFI INIT 4e94 7c .cfa: sp 0 +
STACK CFI INIT 4f10 14 .cfa: sp 0 +
STACK CFI INIT 4f24 40 .cfa: sp 0 +
STACK CFI INIT 4f64 28 .cfa: sp 0 +
STACK CFI INIT 4f8c 190 .cfa: sp 0 +
STACK CFI INIT 511c 2c8 .cfa: sp 0 +
STACK CFI INIT 53e4 8 .cfa: sp 0 +
STACK CFI INIT 53ec 8 .cfa: sp 0 +
STACK CFI INIT 53f4 44 .cfa: sp 0 +
STACK CFI INIT 5438 e8 .cfa: sp 0 +
STACK CFI INIT 5520 e8 .cfa: sp 0 +
STACK CFI INIT 5608 14 .cfa: sp 0 +
STACK CFI INIT 561c 10 .cfa: sp 0 +
STACK CFI INIT 562c 10 .cfa: sp 0 +
STACK CFI INIT 563c f0 .cfa: sp 0 +
STACK CFI INIT 572c 44 .cfa: sp 0 +
STACK CFI INIT 5770 c .cfa: sp 0 +
STACK CFI INIT 577c c .cfa: sp 0 +
STACK CFI INIT 5788 2c .cfa: sp 0 +
STACK CFI INIT 57b4 280 .cfa: sp 0 +
STACK CFI INIT 5a34 c .cfa: sp 0 +
STACK CFI INIT 5a40 120 .cfa: sp 0 +
STACK CFI INIT 5b60 488 .cfa: sp 0 +
STACK CFI INIT 5fe8 c48 .cfa: sp 0 +
STACK CFI INIT 6c30 134 .cfa: sp 0 +
STACK CFI INIT 6d64 210 .cfa: sp 0 +
STACK CFI INIT 6f74 38c .cfa: sp 0 +
STACK CFI INIT 7300 1c8 .cfa: sp 0 +
STACK CFI INIT 74c8 9bc .cfa: sp 0 +
STACK CFI INIT 7e84 2d4 .cfa: sp 0 +
STACK CFI INIT 8158 134 .cfa: sp 0 +
STACK CFI INIT 828c 120 .cfa: sp 0 +
STACK CFI INIT 83ac 1c8 .cfa: sp 0 +
STACK CFI INIT 8574 168 .cfa: sp 0 +
STACK CFI INIT 86dc fc .cfa: sp 0 +
STACK CFI INIT 87d8 30 .cfa: sp 0 +
STACK CFI INIT 8940 30 .cfa: sp 0 +
STACK CFI INIT 8970 98 .cfa: sp 0 +
STACK CFI INIT 8a08 59c .cfa: sp 0 +
STACK CFI INIT 8fa4 8c .cfa: sp 0 +
STACK CFI INIT 9030 30 .cfa: sp 0 +
STACK CFI INIT 9c34 18 .cfa: sp 0 +
STACK CFI INIT a25c 50 .cfa: sp 0 +
STACK CFI a260 .cfa: sp 32 +
STACK CFI a268 .cfa: x29 32 + x19: .cfa -16 + ^ .ra: .cfa -24 + ^ x29: .cfa -32 + ^
STACK CFI a280 .cfa: sp 32 +
STACK CFI a288 .cfa: sp 0 +
STACK CFI a28c .cfa: x29 32 +
STACK CFI a2a0 .cfa: sp 32 +
STACK CFI a2a8 .cfa: sp 0 +
STACK CFI INIT a320 7c .cfa: sp 0 +
STACK CFI a324 .cfa: sp 48 +
STACK CFI a330 .cfa: x29 48 + x19: .cfa -8 + ^ x20: .cfa -16 + ^ x21: .cfa -32 + ^ .ra: .cfa -40 + ^ x29: .cfa -48 + ^
STACK CFI a37c .cfa: sp 48 +
STACK CFI a388 .cfa: sp 0 +
STACK CFI a38c .cfa: sp 48 +
STACK CFI a398 .cfa: sp 0 +
STACK CFI INIT a39c 4 .cfa: sp 0 +
STACK CFI INIT a3a0 10 .cfa: sp 0 +
STACK CFI a3a4 .cfa: sp 16 +
STACK CFI a3a8 .cfa: x29 16 + .ra: .cfa -8 + ^ x29: .cfa -16 + ^
STACK CFI INIT aaac 34 .cfa: sp 0 +
STACK CFI aab0 .cfa: sp 16 +
STACK CFI aab4 .cfa: x29 16 + .ra: .cfa -8 + ^ x29: .cfa -16 + ^
STACK CFI INIT aae0 80 .cfa: sp 0 +
STACK CFI aae4 .cfa: sp 48 +
STACK CFI aaf0 .cfa: x29 48 + x19: .cfa -8 + ^ x20: .cfa -16 + ^ x21: .cfa -32 + ^ .ra: .cfa -40 + ^ x29: .cfa -48 + ^
STACK CFI ab50 .cfa: sp 48 +
STACK CFI ab5c .cfa: sp 0 +
STACK CFI INIT ab60 24 .cfa: sp 0 +
STACK CFI ab64 .cfa: sp 32 +
STACK CFI ab6c .cfa: x29 32 + x19: .cfa -16 + ^ .ra: .cfa -24 + ^ x29: .cfa -32 + ^
STACK CFI ab78 .cfa: sp 32 +
STACK CFI ab80 .cfa: sp 0 +
STACK CFI INIT ab84 14 .cfa: sp 0 +
STACK CFI ab88 .cfa: sp 16 +
STACK CFI ab8c .cfa: x29 16 + .ra: .cfa -8 + ^ x29: .cfa -16 + ^
STACK CFI INIT abe8 30 .cfa: sp 0 +
STACK CFI abec .cfa: sp 32 +
STACK CFI abf4 .cfa: x29 32 + x19: .cfa -16 + ^ .ra: .cfa -24 + ^ x29: .cfa -32 + ^
STACK CFI ac0c .cfa: sp 32 +
STACK CFI ac14 .cfa: sp 0 +
STACK CFI INIT ac18 34 .cfa: sp 0 +
STACK CFI ac1c .cfa: sp 32 +
STACK CFI ac24 .cfa: x29 32 + x19: .cfa -16 + ^ .ra: .cfa -24 + ^ x29: .cfa -32 + ^
STACK CFI INIT ac4c 7c .cfa: sp 0 +
STACK CFI ac50 .cfa: sp 48 +
STACK CFI ac5c .cfa: x29 48 + x19: .cfa -8 + ^ x20: .cfa -16 + ^ x21: .cfa -24 + ^ x22: .cfa -32 + ^ .ra: .cfa -40 + ^ x29: .cfa -48 + ^
STACK CFI ac74 .cfa: sp 48 +
STACK CFI ac80 .cfa: sp 0 +
STACK CFI ac84 .cfa: x29 48 +
STACK CFI acb4 .cfa: sp 48 +
STACK CFI acc0 .cfa: sp 0 +
STACK CFI acc4 .cfa: x29 48 +
STACK CFI INIT acc8 68 .cfa: sp 0 +
STACK CFI accc .cfa: sp 32 +
STACK CFI acd4 .cfa: x29 32 + x19: .cfa -8 + ^ x20: .cfa -16 + ^ .ra: .cfa -24 + ^ x29: .cfa -32 + ^
STACK CFI acec .cfa: sp 32 +
STACK CFI acf4 .cfa: sp 0 +
STACK CFI acf8 .cfa: x29 32 +
STACK CFI ad24 .cfa: sp 32 +
STACK CFI ad2c .cfa: sp 0 +
STACK CFI INIT ad30 14 .cfa: sp 0 +
STACK CFI ad34 .cfa: sp 16 +
STACK CFI ad38 .cfa: x29 16 + .ra: .cfa -8 + ^ x29: .cfa -16 + ^
STACK CFI INIT ad44 4 .cfa: sp 0 +
STACK CFI INIT ad48 14 .cfa: sp 0 +
STACK CFI INIT ad5c 84 .cfa: sp 0 +
STACK CFI ad64 .cfa: sp 32 +
STACK CFI ad6c .cfa: x29 32 + x19: .cfa -8 + ^ x20: .cfa -16 + ^ .ra: .cfa -24 + ^ x29: .cfa -32 + ^
STACK CFI adac .cfa: sp 32 +
STACK CFI adb4 .cfa: sp 0 +
STACK CFI adbc .cfa: x29 32 +
STACK CFI INIT b8d4 50 .cfa: sp 0 +
STACK CFI b8d8 .cfa: sp 32 +
STACK CFI b8e0 .cfa: x29 32 + x19: .cfa -16 + ^ .ra: .cfa -24 + ^ x29: .cfa -32 + ^
STACK CFI b8f8 .cfa: sp 32 +
STACK CFI b900 .cfa: sp 0 +
STACK CFI b904 .cfa: x29 32 +
STACK CFI b918 .cfa: sp 32 +
STACK CFI b920 .cfa: sp 0 +
STACK CFI INIT b924 64 .cfa: sp 0 +
STACK CFI b928 .cfa: sp 32 +
STACK CFI b930 .cfa: x29 32 + x19: .cfa -16 + ^ .ra: .cfa -24 + ^ x29: .cfa -32 + ^
STACK CFI b95c .cfa: sp 32 +
STACK CFI b964 .cfa: sp 0 +
STACK CFI b968 .cfa: x29 32 +
STACK CFI b97c .cfa: sp 32 +
STACK CFI b984 .cfa: sp 0 +
STACK CFI INIT b988 63c .cfa: sp 0 +
STACK CFI b98c .cfa: sp 64 +
STACK CFI b99c .cfa: x29 64 + x19: .cfa -8 + ^ x20: .cfa -16 + ^ x21: .cfa -24 + ^ x22: .cfa -32 + ^ x23: .cfa -40 + ^ x24: .cfa -48 + ^ .ra: .cfa -56 + ^ x29: .cfa -64 + ^
STACK CFI bd7c .cfa: sp 64 +
STACK CFI bd8c .cfa: sp 0 +
STACK CFI bd90 .cfa: x29 64 +
STACK CFI bf00 .cfa: sp 64 +
STACK CFI bf10 .cfa: sp 0 +
STACK CFI bf14 .cfa: x29 64 +
STACK CFI bf18 .cfa: sp 64 +
STACK CFI bf28 .cfa: sp 0 +
STACK CFI bf2c .cfa: x29 64 +
STACK CFI INIT c00c 38 .cfa: sp 0 +
STACK CFI c010 .cfa: sp 32 +
STACK CFI c018 .cfa: x29 32 + x19: .cfa -16 + ^ .ra: .cfa -24 + ^ x29: .cfa -32 + ^
STACK CFI c038 .cfa: sp 32 +
STACK CFI c040 .cfa: sp 0 +
STACK CFI INIT c044 3c .cfa: sp 0 +
STACK CFI c048 .cfa: sp 32 +
STACK CFI c050 .cfa: x29 32 + x19: .cfa -16 + ^ .ra: .cfa -24 + ^ x29: .cfa -32 + ^
STACK CFI c05c .cfa: sp 32 +
STACK CFI c064 .cfa: sp 0 +
STACK CFI c068 .cfa: x29 32 +
STACK CFI c074 .cfa: sp 32 +
STACK CFI c07c .cfa: sp 0 +
STACK CFI INIT 9060 bd4 .cfa: sp 0 +
STACK CFI 9064 .cfa: sp 240 +
STACK CFI 9080 .cfa: x29 96 + x19: .cfa -8 + ^ x20: .cfa -16 + ^ x21: .cfa -24 + ^ x22: .cfa -32 + ^ x23: .cfa -40 + ^ x24: .cfa -48 + ^ x25: .cfa -56 + ^ x26: .cfa -64 + ^ x27: .cfa -72 + ^ x28: .cfa -80 + ^ .ra: .cfa -88 + ^ x29: .cfa -96 + ^
STACK CFI 945c .cfa: sp 240 +
STACK CFI 9478 .cfa: sp 0 +
STACK CFI 947c .cfa: x29 96 +
STACK CFI 9adc .cfa: sp 240 +
STACK CFI 9af8 .cfa: sp 0 +
STACK CFI 9afc .cfa: x29 96 +
STACK CFI INIT 9c4c 610 .cfa: sp 0 +
STACK CFI 9c50 .cfa: sp 240 +
STACK CFI 9c6c .cfa: x29 96 + x19: .cfa -8 + ^ x20: .cfa -16 + ^ x21: .cfa -24 + ^ x22: .cfa -32 + ^ x23: .cfa -40 + ^ x24: .cfa -48 + ^ x25: .cfa -56 + ^ x26: .cfa -64 + ^ x27: .cfa -72 + ^ x28: .cfa -80 + ^ .ra: .cfa -88 + ^ x29: .cfa -96 + ^
STACK CFI a140 .cfa: sp 240 +
STACK CFI a15c .cfa: sp 0 +
STACK CFI a160 .cfa: x29 96 +
STACK CFI INIT a2ac 74 .cfa: sp 0 +
STACK CFI a2b0 .cfa: sp 48 +
STACK CFI a2bc .cfa: x29 32 + x19: .cfa -8 + ^ x20: .cfa -16 + ^ .ra: .cfa -24 + ^ x29: .cfa -32 + ^
STACK CFI a308 .cfa: sp 48 +
STACK CFI a314 .cfa: sp 0 +
STACK CFI a318 .cfa: x29 32 +
STACK CFI INIT a3b0 6fc .cfa: sp 0 +
STACK CFI a3b4 .cfa: sp 496 +
STACK CFI a3d0 .cfa: x29 96 + x19: .cfa -8 + ^ x20: .cfa -16 + ^ x21: .cfa -24 + ^ x22: .cfa -32 + ^ x23: .cfa -40 + ^ x24: .cfa -48 + ^ x25: .cfa -56 + ^ x26: .cfa -64 + ^ x27: .cfa -72 + ^ x28: .cfa -80 + ^ .ra: .cfa -88 + ^ x29: .cfa -96 + ^
STACK CFI a980 .cfa: sp 496 +
STACK CFI a99c .cfa: sp 0 +
STACK CFI a9a0 .cfa: x29 96 +
STACK CFI INIT ab98 50 .cfa: sp 0 +
STACK CFI ab9c .cfa: sp 32 +
STACK CFI aba4 .cfa: x29 32 + x19: .cfa -8 + ^ x20: .cfa -16 + ^ .ra: .cfa -24 + ^ x29: .cfa -32 + ^
STACK CFI INIT ade0 af4 .cfa: sp 0 +
STACK CFI ade4 .cfa: sp 160 +
STACK CFI ae04 .cfa: x29 80 + x19: .cfa -8 + ^ x20: .cfa -16 + ^ x21: .cfa -24 + ^ x22: .cfa -32 + ^ x23: .cfa -40 + ^ x24: .cfa -48 + ^ x25: .cfa -56 + ^ x26: .cfa -64 + ^ .ra: .cfa -72 + ^ x29: .cfa -80 + ^ v8: .cfa -88 + ^ v9: .cfa -96 + ^ v10: .cfa -112 + ^
STACK CFI b850 .cfa: sp 160 +
STACK CFI b870 .cfa: sp 0 +
STACK CFI b874 .cfa: x29 80 +
STACK CFI INIT bfc4 48 .cfa: sp 0 +
STACK CFI bfc8 .cfa: sp 32 +
STACK CFI bfd0 .cfa: x29 32 + x19: .cfa -8 + ^ x20: .cfa -16 + ^ .ra: .cfa -24 + ^ x29: .cfa -32 + ^
