MODULE Linux arm A3B34817243C1DE1558810DB7B79A01C0 weebify.coins_in_pause_menu.android32.so
INFO CODE_ID 1748B3A33C24E11D558810DB7B79A01C0D8B5D65
INFO GENERATOR mozilla/dump_syms 2.3.4
FILE 0 /home/runner/work/coins-in-pause-menu-geode/coins-in-pause-menu-geode/geode-sdk-clone/loader/include/Geode/utils/addresser.hpp
FILE 1 /home/runner/work/coins-in-pause-menu-geode/coins-in-pause-menu-geode/geode-sdk-clone/loader/include/Geode/platform/ItaniumCast.hpp
FILE 2 /usr/local/lib/android/sdk/ndk/27.2.12479018/toolchains/llvm/prebuilt/linux-x86_64/sysroot/usr/include/c++/v1/ostream
FILE 3 /usr/local/lib/android/sdk/ndk/27.2.12479018/toolchains/llvm/prebuilt/linux-x86_64/sysroot/usr/include/c++/v1/stdexcept
FILE 4 /usr/local/lib/android/sdk/ndk/27.2.12479018/toolchains/llvm/prebuilt/linux-x86_64/sysroot/usr/include/c++/v1/variant
FILE 5 /usr/local/lib/android/sdk/ndk/27.2.12479018/toolchains/llvm/prebuilt/linux-x86_64/sysroot/usr/include/c++/v1/locale
FILE 6 /usr/local/lib/android/sdk/ndk/27.2.12479018/toolchains/llvm/prebuilt/linux-x86_64/sysroot/usr/include/c++/v1/__tree
FILE 7 /usr/local/lib/android/sdk/ndk/27.2.12479018/toolchains/llvm/prebuilt/linux-x86_64/sysroot/usr/include/c++/v1/new
FILE 8 /home/runner/work/coins-in-pause-menu-geode/coins-in-pause-menu-geode/geode-sdk-clone/loader/include/Geode/modify/Field.hpp
FILE 9 /usr/local/lib/android/sdk/ndk/27.2.12479018/toolchains/llvm/prebuilt/linux-x86_64/sysroot/usr/include/c++/v1/__functional/function.h
FILE 10 /home/runner/work/coins-in-pause-menu-geode/coins-in-pause-menu-geode/build/bindings/bindings/Geode/modify/EffectGameObject.hpp
FILE 11 /home/runner/work/coins-in-pause-menu-geode/coins-in-pause-menu-geode/build/bindings/bindings/Geode/modify/GameObject.hpp
FILE 12 /home/runner/work/coins-in-pause-menu-geode/coins-in-pause-menu-geode/build/bindings/bindings/Geode/modify/PlayLayer.hpp
FILE 13 /home/runner/work/coins-in-pause-menu-geode/coins-in-pause-menu-geode/build/bindings/bindings/Geode/modify/PauseLayer.hpp
FILE 14 /home/runner/work/coins-in-pause-menu-geode/coins-in-pause-menu-geode/src/main.cpp
FILE 15 /home/runner/work/coins-in-pause-menu-geode/coins-in-pause-menu-geode/geode-sdk-clone/loader/include/Geode/modify/Modify.hpp
FILE 16 /usr/local/lib/android/sdk/ndk/27.2.12479018/toolchains/llvm/prebuilt/linux-x86_64/sysroot/usr/include/c++/v1/vector
FILE 17 /usr/local/lib/android/sdk/ndk/27.2.12479018/toolchains/llvm/prebuilt/linux-x86_64/sysroot/usr/include/c++/v1/__memory/shared_ptr.h
FILE 18 /home/runner/work/coins-in-pause-menu-geode/coins-in-pause-menu-geode/cpm-cache/result/28b1b03e0682509636d5e5825265ce2421aac4dc/include/Geode/Result.hpp
FILE 19 /usr/local/lib/android/sdk/ndk/27.2.12479018/toolchains/llvm/prebuilt/linux-x86_64/sysroot/usr/include/c++/v1/sstream
FILE 20 /usr/local/lib/android/sdk/ndk/27.2.12479018/toolchains/llvm/prebuilt/linux-x86_64/sysroot/usr/include/c++/v1/string
FILE 21 /usr/local/lib/android/sdk/ndk/27.2.12479018/toolchains/llvm/prebuilt/linux-x86_64/sysroot/usr/include/c++/v1/__split_buffer
FILE 22 /home/runner/work/coins-in-pause-menu-geode/coins-in-pause-menu-geode/cpm-cache/tuliphook/727bc6fdab39f84eb52f1519195d5488a312e77e/include/tulip/HandlerData.hpp
FILE 23 /usr/local/lib/android/sdk/ndk/27.2.12479018/toolchains/llvm/prebuilt/linux-x86_64/sysroot/usr/include/c++/v1/__memory/unique_ptr.h
FILE 24 /home/runner/work/coins-in-pause-menu-geode/coins-in-pause-menu-geode/geode-sdk-clone/loader/include/Geode/loader/Hook.hpp
FILE 25 /home/runner/work/coins-in-pause-menu-geode/coins-in-pause-menu-geode/build/bindings/bindings/Geode/binding/PauseLayer.hpp
FILE 26 /home/runner/work/coins-in-pause-menu-geode/coins-in-pause-menu-geode/geode-sdk-clone/loader/include/Geode/utils/cocos.hpp
FILE 27 /home/runner/work/coins-in-pause-menu-geode/coins-in-pause-menu-geode/cpm-cache/tuliphook/727bc6fdab39f84eb52f1519195d5488a312e77e/include/tulip/AbstractFunction.hpp
FILE 28 /home/runner/work/coins-in-pause-menu-geode/coins-in-pause-menu-geode/geode-sdk-clone/entry.cpp
FILE 29 /home/runner/work/coins-in-pause-menu-geode/coins-in-pause-menu-geode/geode-sdk-clone/loader/include/Geode/c++stl/gnustl-map.hpp
FILE 30 /home/runner/work/coins-in-pause-menu-geode/coins-in-pause-menu-geode/build/bindings/bindings/Geode/GeneratedSource.cpp
FILE 31 /home/runner/work/coins-in-pause-menu-geode/coins-in-pause-menu-geode/cpm-cache/tuliphook/727bc6fdab39f84eb52f1519195d5488a312e77e/include/tulip/WrapperData.hpp
FILE 32 /home/runner/work/coins-in-pause-menu-geode/coins-in-pause-menu-geode/geode-sdk-clone/loader/include/Geode/c++stl/gnustl.hpp
PUBLIC 3eb0 0 __on_dlclose
PUBLIC 3ec0 0 __emutls_unregister_key
PUBLIC 3ec4 0 __on_dlclose_late
PUBLIC 3ec8 0 __atexit_handler_wrapper
PUBLIC 3ed4 0 atexit
PUBLIC 3ef4 0 pthread_atfork
FUNC 3f04 5c 0 EffectGameObject_triggerObject(MyCoinObject*, GJBaseGameLayer*, int, gd::vector<int> const*)
3f04 a 311 14
3f0e c 312 14
3f1a e 314 14
3f28 a 315 14
3f32 4 316 14
3f36 4 315 14
3f3a 4 316 14
3f3e 2 315 14
3f40 4 316 14
3f44 e 317 14
3f52 e 320 14
FUNC 3f60 38 0 CheckpointGameObject_triggerObject(CheckpointGameObject*, GJBaseGameLayer*, int, gd::vector<int> const*)
3f60 6 322 14
3f66 a 323 14
3f70 a 325 14
3f7a 4 328 14
3f7e 10 326 14
3f8e a 328 14
FUNC 3f98 54 0 __cxx_global_var_init.1
3fa0 4c 346 15
FUNC 3fec 1c 0 geode::modifier::ModifyBase<geode::modifier::ModifyDerive<MyCoinObject, EffectGameObject> >::~ModifyBase()
3fec 1c 141 15
FUNC 4010 2c4 0 __cxx_global_var_init.2
401a 2ba 346 15
FUNC 42d4 2c4 0 __cxx_global_var_init.3
42de 2ba 346 15
FUNC 4598 42c 0 __cxx_global_var_init.4
45a2 422 346 15
FUNC 49d0 520 0 _GLOBAL__sub_I_main.cpp
FUNC 4ef0 1c 0 geode::modifier::ModifyBase<geode::modifier::ModifyDerive<hook34<(anonymous namespace)::hook34Parent>, GameObject> >::~ModifyBase()
4ef0 1c 141 15
FUNC 4f0c 1c 0 geode::modifier::ModifyBase<geode::modifier::ModifyDerive<hook66<(anonymous namespace)::hook66Parent>, PlayLayer> >::~ModifyBase()
4f0c 1c 141 15
FUNC 4f28 1c 0 geode::modifier::ModifyBase<geode::modifier::ModifyDerive<hook118<(anonymous namespace)::hook118Parent>, PauseLayer> >::~ModifyBase()
4f28 1c 141 15
FUNC 4f44 4dc 0 geode::modifier::FieldIntermediate<MyCoinObject, EffectGameObject>::self()
4f44 a 73 8
4f4e 2 81 8
4f50 8 77 8
4f58 16 81 8
4f6e 18 85 8
4f86 16 89 8
4f9c 6 90 8
4fa2 1c 92 8
4fbe 70 91 8
502e 2ca 89 8
52f8 60 91 8
5358 10 95 8
5368 e 98 8
5376 10 89 8
5386 26 85 8
53ac 8 91 8
53b4 c 85 8
53c0 24 91 8
53e4 26 89 8
540a 16 383 9
FUNC 5420 2 0 geode::modifier::FieldIntermediate<MyCoinObject, EffectGameObject>::fieldDestructor(void*)
5420 2 71 8
FUNC 5424 10 0 std::__ndk1::vector<void*, std::__ndk1::allocator<void*> >::__throw_length_error[abi:ne180000]() const
5424 10 940 16
PUBLIC 5435 0 __clang_call_terminate
FUNC 5440 38 0 std::__ndk1::__throw_length_error[abi:ne180000](char const*)
5440 6 239 3
5446 32 241 3
FUNC 5478 18 0 std::length_error::length_error[abi:ne180000](char const*)
5478 18 152 3
FUNC 5490 28 0 std::__throw_bad_array_new_length([abi:ne180000], void)
5490 4 172 7
5494 24 174 7
FUNC 54b8 10 0 std::__ndk1::vector<std::__ndk1::function<void (void*)>, std::__ndk1::allocator<std::__ndk1::function<void (void*)> > >::__throw_length_error[abi:ne180000]() const
54b8 10 940 16
FUNC 54c8 10 0 std::__ndk1::vector<void*, std::__ndk1::allocator<void*> >::__throw_out_of_range[abi:ne180000]() const
54c8 10 942 16
FUNC 54d8 38 0 std::__ndk1::__throw_out_of_range[abi:ne180000](char const*)
54d8 6 247 3
54de 32 249 3
FUNC 5510 18 0 std::out_of_range::out_of_range[abi:ne180000](char const*)
5510 18 163 3
FUNC 5528 10 0 std::__ndk1::vector<std::__ndk1::function<void (void*)>, std::__ndk1::allocator<std::__ndk1::function<void (void*)> > >::__throw_out_of_range[abi:ne180000]() const
5528 10 942 16
FUNC 5538 2 0 std::__ndk1::__function::__base<void (void*)>::~__base()
5538 2 235 9
FUNC 553a 4 0 std::__ndk1::__function::__func<void (*)(void*), std::__ndk1::allocator<void (*)(void*)>, void (void*)>::~__func()
553a 4 250 9
FUNC 5540 20 0 std::__ndk1::__function::__func<void (*)(void*), std::__ndk1::allocator<void (*)(void*)>, void (void*)>::__clone() const
5540 6 277 9
5546 6 282 9
554c e 283 9
555a 6 285 9
FUNC 5560 14 0 std::__ndk1::__function::__func<void (*)(void*), std::__ndk1::allocator<void (*)(void*)>, void (void*)>::__clone(std::__ndk1::__function::__base<void (void*)>*) const
5560 e 289 9
556e 6 290 9
FUNC 5574 2 0 std::__ndk1::__function::__func<void (*)(void*), std::__ndk1::allocator<void (*)(void*)>, void (void*)>::destroy()
5574 2 295 9
FUNC 5576 4 0 std::__ndk1::__function::__func<void (*)(void*), std::__ndk1::allocator<void (*)(void*)>, void (void*)>::destroy_deallocate()
5576 4 303 9
FUNC 557a 8 0 std::__ndk1::__function::__func<void (*)(void*), std::__ndk1::allocator<void (*)(void*)>, void (void*)>::operator()(void*&&)
557a 8 308 9
FUNC 5584 18 0 std::__ndk1::__function::__func<void (*)(void*), std::__ndk1::allocator<void (*)(void*)>, void (void*)>::target(std::type_info const&) const
5584 10 315 9
5594 8 318 9
FUNC 559c c 0 std::__ndk1::__function::__func<void (*)(void*), std::__ndk1::allocator<void (*)(void*)>, void (void*)>::target_type() const
559c c 322 9
FUNC 55a8 2 0 geode::modifier::ModifyDerive<MyCoinObject, EffectGameObject>::apply()
55a8 2 326 10
FUNC 55aa 3a 0 std::__ndk1::shared_ptr<geode::Hook>::~shared_ptr[abi:ne180000]()
55aa 4 643 17
55ae 4 644 17
55b2 1a 645 17
55cc 4 646 17
55d0 12 645 17
55e2 2 646 17
FUNC 55e4 60 0 geode::impl::ResultData<geode::Hook*, std::__ndk1::basic_string<char, std::__ndk1::char_traits<char>, std::__ndk1::allocator<char> > >::~ResultData()
55e4 60 334 18
FUNC 5644 3e 0 std::__ndk1::vector<std::__ndk1::basic_string<char, std::__ndk1::char_traits<char>, std::__ndk1::allocator<char> >, std::__ndk1::allocator<std::__ndk1::basic_string<char, std::__ndk1::char_traits<char>, std::__ndk1::allocator<char> > > >::~vector[abi:ne180000]()
5644 3e 501 16
FUNC 5682 2 0 geode::modifier::ModifyBase<geode::modifier::ModifyDerive<MyCoinObject, EffectGameObject> >::apply()
5682 2 316 15
FUNC 5684 f8 0 _ZN5geode15UnwrapExceptionC2IRPNS_4HookEQsr4implE18IsStringStreamableIT_EEENS_4impl5OkTagEOS5_
5684 1a 316 18
569e 2c 315 18
56ca 5a 314 18
5724 24 316 18
5748 34 314 18
FUNC 577c 34 0 std::__ndk1::__throw_bad_variant_access[abi:ne180000]()
577c 4 285 4
5780 30 287 4
FUNC 57b0 d8 0 std::__ndk1::basic_stringstream<char, std::__ndk1::char_traits<char>, std::__ndk1::allocator<char> >::basic_stringstream[abi:ne180000]()
57b0 d8 1010 19
FUNC 5888 68 0 std::__ndk1::basic_stringstream<char, std::__ndk1::char_traits<char>, std::__ndk1::allocator<char> >::~basic_stringstream()
5888 68 1102 19
FUNC 58f0 10 0 geode::UnwrapException::~UnwrapException()
58f0 10 325 18
FUNC 5900 108 0 std::__ndk1::__put_character_sequence[abi:ne180000]<char, std::__ndk1::char_traits<char> >(std::__ndk1::basic_ostream<char, std::__ndk1::char_traits<char> >, std::__ndk1::basic_ostream const*, unsigned int)
5900 1c 665 2
591c 6 669 2
5922 6 670 2
5928 c 673 2
5934 2 678 2
5936 4 675 2
593a 4 673 2
593e 2a 678 2
5968 2 672 2
596a 4 675 2
596e 4 672 2
5972 8 675 2
597a 4 672 2
597e 4 675 2
5982 6 672 2
5988 16 680 2
599e 10 683 2
59ae 16 687 2
59c4 a 678 2
59ce e 683 2
59dc e 684 2
59ea 1e 685 2
FUNC 5a08 110 0 std::__ndk1::__pad_and_output[abi:ne180000]<char, std::__ndk1::char_traits<char> >(std::__ndk1::char_traits<char>, std::__ndk1::ostreambuf_iterator const*, std::__ndk1::ostreambuf_iterator const, std::__ndk1::ostreambuf_iterator const, std::__ndk1::ios_base&, std::__ndk1::ostreambuf_iterator)
5a08 10 1246 5
5a18 12 1247 5
5a2a 2 1249 5
5a2c 6 1255 5
5a32 4 1250 5
5a36 6 1251 5
5a3c 4 1256 5
5a40 e 1257 5
5a4e a 1262 5
5a58 3a 1263 5
5a92 2 1264 5
5a94 2 1263 5
5a96 18 1264 5
5aae 12 1268 5
5ac0 4 1269 5
5ac4 4 1270 5
5ac8 12 1271 5
5ada 14 1276 5
5aee 10 1278 5
5afe 1a 1268 5
FUNC 5b18 10 0 std::__ndk1::basic_string<char, std::__ndk1::char_traits<char>, std::__ndk1::allocator<char> >::__throw_length_error[abi:ne180000]() const
5b18 4 2118 20
5b1c c 2119 20
FUNC 5b28 ce 0 std::__ndk1::basic_stringbuf<char, std::__ndk1::char_traits<char>, std::__ndk1::allocator<char> >::str[abi:ne180000]() &&
5b28 a 396 19
5b32 2a 397 19
5b5c 1e 398 19
5b7a 8 402 19
5b82 4 401 19
5b86 42 402 19
5bc8 12 403 19
5bda 6 404 19
5be0 16 406 19
FUNC 5bf6 e0 0 std::__ndk1::basic_stringbuf<char, std::__ndk1::char_traits<char>, std::__ndk1::allocator<char> >::__init_buf_ptrs[abi:ne180000]()
5bf6 8 626 19
5bfe c 628 19
5c0a 4 629 19
5c0e 2 630 19
5c10 2 628 19
5c12 2 627 19
5c14 4 628 19
5c18 8 629 19
5c20 4 628 19
5c24 2 630 19
5c26 6 631 19
5c2c 6 632 19
5c32 2 631 19
5c34 4 634 19
5c38 2 636 19
5c3a 6 635 19
5c40 42 636 19
5c82 4 637 19
5c86 4 638 19
5c8a c 637 19
5c96 2 638 19
5c98 4 637 19
5c9c 2 638 19
5c9e 6 639 19
5ca4 6 643 19
5caa 6 647 19
5cb0 c 641 19
5cbc e 639 19
5cca 6 644 19
5cd0 6 647 19
FUNC 5cd8 160 0 std::__ndk1::vector<std::__ndk1::basic_string<char, std::__ndk1::char_traits<char>, std::__ndk1::allocator<char> >, std::__ndk1::allocator<std::__ndk1::basic_string<char, std::__ndk1::char_traits<char>, std::__ndk1::allocator<char> > > >::__push_back_slow_path<std::__ndk1::basic_string<char, std::__ndk1::char_traits<char>, std::__ndk1::allocator<char> > const&>(std::__ndk1::basic_string<char, std::__ndk1::char_traits<char>, std::__ndk1::allocator<char> > const&)
5cd8 20 1449 16
5cf8 5c 1451 16
5d54 4 1453 16
5d58 12 1451 16
5d6a 2 1453 16
5d6c 2 1451 16
5d6e 1c 1453 16
5d8a 8 1455 16
5d92 4 1454 16
5d96 30 1455 16
5dc6 2 1457 16
5dc8 12 1455 16
5dda 44 1457 16
5e1e a 1451 16
5e28 10 1457 16
FUNC 5e38 46 0 std::__ndk1::basic_string<char, std::__ndk1::char_traits<char>, std::__ndk1::allocator<char> >::__init_copy_ctor_external(char const*, unsigned int)
5e38 a 2232 20
5e42 4 2237 20
5e46 a 2239 20
5e50 6 2241 20
5e56 c 2243 20
5e62 8 2247 20
5e6a 2 2246 20
5e6c 6 2250 20
5e72 6 2252 20
5e78 6 2242 20
FUNC 5e7e 3c 0 std::__ndk1::__split_buffer<std::__ndk1::basic_string<char, std::__ndk1::char_traits<char>, std::__ndk1::allocator<char> >, std::__ndk1::allocator<std::__ndk1::basic_string<char, std::__ndk1::char_traits<char>, std::__ndk1::allocator<char> > >&>::~__split_buffer()
5e7e 6 352 21
5e84 8 353 21
5e8c 4 354 21
5e90 6 355 21
5e96 4 356 21
5e9a 20 353 21
FUNC 5ebc 10 0 std::__ndk1::vector<std::__ndk1::basic_string<char, std::__ndk1::char_traits<char>, std::__ndk1::allocator<char> >, std::__ndk1::allocator<std::__ndk1::basic_string<char, std::__ndk1::char_traits<char>, std::__ndk1::allocator<char> > > >::__throw_length_error[abi:ne180000]() const
5ebc 10 940 16
FUNC 5ecc 2 0 std::__ndk1::__variant_detail::__visitation::__base::__dispatcher<(unsigned int)0>::__dispatch[abi:ne180000]<std::__ndk1::__variant_detail::__dtor<std::__ndk1::__variant_detail::__traits<geode::Hook*, std::__ndk1::basic_string<char, std::__ndk1::char_traits<char>, std::__ndk1::allocator<char> > >, (std::__ndk1::__variant_detail::_Trait)1>::__destroy[abi:ne180000]()::{lambda(auto:1&)#1}, std::__ndk1::__variant_detail::__base<(std::__ndk1::__variant_detail::__traits<geode::Hook*, std::__ndk1::basic_string<char, std::__ndk1::char_traits<char>, std::__ndk1::allocator<char> > >)1, geode::Hook, std::__ndk1::allocator<char> >&>(std::__ndk1::__variant_detail::__dtor<std::__ndk1::__variant_detail::__traits<geode::Hook*, std::__ndk1::basic_string<char, std::__ndk1::char_traits<char>, std::__ndk1::allocator<char> > >, (std::__ndk1::__variant_detail::_Trait)1>, std::__ndk1::__variant_detail::__base<(std::__ndk1::__variant_detail::__traits<geode::Hook*, std::__ndk1::basic_string<char, std::__ndk1::char_traits<char>, std::__ndk1::allocator<char> > >)1, geode::Hook, std::__ndk1::allocator<char> >&)
5ecc 2 526 4
FUNC 5ece e 0 std::__ndk1::__variant_detail::__visitation::__base::__dispatcher<(unsigned int)1>::__dispatch[abi:ne180000]<std::__ndk1::__variant_detail::__dtor<std::__ndk1::__variant_detail::__traits<geode::Hook*, std::__ndk1::basic_string<char, std::__ndk1::char_traits<char>, std::__ndk1::allocator<char> > >, (std::__ndk1::__variant_detail::_Trait)1>::__destroy[abi:ne180000]()::{lambda(auto:1&)#1}, std::__ndk1::__variant_detail::__base<(std::__ndk1::__variant_detail::__traits<geode::Hook*, std::__ndk1::basic_string<char, std::__ndk1::char_traits<char>, std::__ndk1::allocator<char> > >)1, geode::Hook, std::__ndk1::allocator<char> >&>(std::__ndk1::__variant_detail::__dtor<std::__ndk1::__variant_detail::__traits<geode::Hook*, std::__ndk1::basic_string<char, std::__ndk1::char_traits<char>, std::__ndk1::allocator<char> > >, (std::__ndk1::__variant_detail::_Trait)1>, std::__ndk1::__variant_detail::__base<(std::__ndk1::__variant_detail::__traits<geode::Hook*, std::__ndk1::basic_string<char, std::__ndk1::char_traits<char>, std::__ndk1::allocator<char> > >)1, geode::Hook, std::__ndk1::allocator<char> >&)
5ece e 526 4
FUNC 5edc c0 0 std::__ndk1::__tree<std::__ndk1::__value_type<std::__ndk1::basic_string<char, std::__ndk1::char_traits<char>, std::__ndk1::allocator<char> >, std::__ndk1::shared_ptr<geode::Hook> >, std::__ndk1::__map_value_compare<std::__ndk1::basic_string<char, std::__ndk1::char_traits<char>, std::__ndk1::allocator<char> >, std::__ndk1::__value_type<std::__ndk1::basic_string<char, std::__ndk1::char_traits<char>, std::__ndk1::allocator<char> >, std::__ndk1::shared_ptr<geode::Hook> >, std::__ndk1::less<std::__ndk1::basic_string<char, std::__ndk1::char_traits<char>, std::__ndk1::allocator<char> > >, true>, std::__ndk1::allocator<std::__ndk1::__value_type<std::__ndk1::basic_string<char, std::__ndk1::char_traits<char>, std::__ndk1::allocator<char> >, std::__ndk1::shared_ptr<geode::Hook> > > >::find<std::__ndk1::basic_string<char, std::__ndk1::char_traits<char>, std::__ndk1::allocator<char> > >(std::__ndk1::basic_string<char, std::__ndk1::char_traits<char>, std::__ndk1::allocator<char> > const&)
5edc a 2087 6
5ee6 6c 2088 6
5f52 42 2089 6
5f94 8 2092 6
FUNC 5f9c 2ba 0 std::__ndk1::__tree<std::__ndk1::__value_type<std::__ndk1::basic_string<char, std::__ndk1::char_traits<char>, std::__ndk1::allocator<char> >, std::__ndk1::shared_ptr<geode::Hook> >, std::__ndk1::__map_value_compare<std::__ndk1::basic_string<char, std::__ndk1::char_traits<char>, std::__ndk1::allocator<char> >, std::__ndk1::__value_type<std::__ndk1::basic_string<char, std::__ndk1::char_traits<char>, std::__ndk1::allocator<char> >, std::__ndk1::shared_ptr<geode::Hook> >, std::__ndk1::less<std::__ndk1::basic_string<char, std::__ndk1::char_traits<char>, std::__ndk1::allocator<char> > >, true>, std::__ndk1::allocator<std::__ndk1::__value_type<std::__ndk1::basic_string<char, std::__ndk1::char_traits<char>, std::__ndk1::allocator<char> >, std::__ndk1::shared_ptr<geode::Hook> > > >::erase(std::__ndk1::__tree_const_iterator<std::__ndk1::__value_type<std::__ndk1::basic_string<char, std::__ndk1::char_traits<char>, std::__ndk1::allocator<char> >, std::__ndk1::shared_ptr<geode::Hook> >, std::__ndk1::__tree_node<std::__ndk1::__value_type<std::__ndk1::basic_string<char, std::__ndk1::char_traits<char>, std::__ndk1::allocator<char> >, std::__ndk1::shared_ptr<geode::Hook> >, void*>*, int>)
5f9c 8 2046 6
5fa4 b4 2048 6
6058 3e 2050 6
6096 e 2051 6
60a4 1b2 2048 6
FUNC 6256 5a 0 std::__ndk1::__tree<std::__ndk1::__value_type<std::__ndk1::basic_string<char, std::__ndk1::char_traits<char>, std::__ndk1::allocator<char> >, std::__ndk1::shared_ptr<geode::Hook> >, std::__ndk1::__map_value_compare<std::__ndk1::basic_string<char, std::__ndk1::char_traits<char>, std::__ndk1::allocator<char> >, std::__ndk1::__value_type<std::__ndk1::basic_string<char, std::__ndk1::char_traits<char>, std::__ndk1::allocator<char> >, std::__ndk1::shared_ptr<geode::Hook> >, std::__ndk1::less<std::__ndk1::basic_string<char, std::__ndk1::char_traits<char>, std::__ndk1::allocator<char> > >, true>, std::__ndk1::allocator<std::__ndk1::__value_type<std::__ndk1::basic_string<char, std::__ndk1::char_traits<char>, std::__ndk1::allocator<char> >, std::__ndk1::shared_ptr<geode::Hook> > > >::destroy(std::__ndk1::__tree_node<std::__ndk1::__value_type<std::__ndk1::basic_string<char, std::__ndk1::char_traits<char>, std::__ndk1::allocator<char> >, std::__ndk1::shared_ptr<geode::Hook> >, void*>*)
6256 2 1544 6
6258 a 1551 6
6262 6 1545 6
6268 6 1546 6
626e 38 1548 6
62a6 a 1549 6
FUNC 62b0 2dc 0 geode::modifier::ModifyDerive<hook34<(anonymous namespace)::hook34Parent>, GameObject>::apply()
62b0 c 2486 11
62bc 22a 2490 11
64e6 e 2743 11
64f4 98 2490 11
FUNC 658c 2 0 geode::modifier::ModifyBase<geode::modifier::ModifyDerive<hook34<(anonymous namespace)::hook34Parent>, GameObject> >::apply()
658c 2 316 15
FUNC 6590 134 0 geode::modifier::AsStaticFunction_createWithKey<hook34<(anonymous namespace)::hook34Parent>, GameObject* (*)(int)>::Impl<GameObject* (*)(int)>::function(int)
6590 11e 15 11
66ae 16 2212 20
FUNC 66c4 3a 0 std::__ndk1::shared_ptr<tulip::hook::CallingConvention>::~shared_ptr[abi:ne180000]()
66c4 4 643 17
66c8 4 644 17
66cc 1a 645 17
66e6 4 646 17
66ea 12 645 17
66fc 2 646 17
FUNC 66fe 46 0 tulip::hook::HandlerMetadata::~HandlerMetadata()
66fe 46 12 22
FUNC 6744 10 0 std::__ndk1::vector<tulip::hook::AbstractType, std::__ndk1::allocator<tulip::hook::AbstractType> >::__throw_length_error[abi:ne180000]() const
6744 10 940 16
FUNC 6754 88 0 geode::cast::traverseTypeinfoFor(void*, geode::cast::ClassTypeinfoType const*, char const*)
6754 a 57 1
675e 4 59 1
6762 e 60 1
6770 2 64 1
6772 2 65 1
6774 6 64 1
677a 8 65 1
6782 2 67 1
6784 2 60 1
6786 2 59 1
6788 a 60 1
6792 6 80 1
6798 e 69 1
67a6 6 80 1
67ac a 71 1
67b6 6 74 1
67bc 4 73 1
67c0 8 74 1
67c8 6 71 1
67ce e 80 1
FUNC 67dc ba 0 std::__ndk1::__tree<std::__ndk1::__value_type<std::__ndk1::basic_string<char, std::__ndk1::char_traits<char>, std::__ndk1::allocator<char> >, std::__ndk1::shared_ptr<geode::Hook> >, std::__ndk1::__map_value_compare<std::__ndk1::basic_string<char, std::__ndk1::char_traits<char>, std::__ndk1::allocator<char> >, std::__ndk1::__value_type<std::__ndk1::basic_string<char, std::__ndk1::char_traits<char>, std::__ndk1::allocator<char> >, std::__ndk1::shared_ptr<geode::Hook> >, std::__ndk1::less<std::__ndk1::basic_string<char, std::__ndk1::char_traits<char>, std::__ndk1::allocator<char> > >, true>, std::__ndk1::allocator<std::__ndk1::__value_type<std::__ndk1::basic_string<char, std::__ndk1::char_traits<char>, std::__ndk1::allocator<char> >, std::__ndk1::shared_ptr<geode::Hook> > > >::__find_equal<std::__ndk1::basic_string<char, std::__ndk1::char_traits<char>, std::__ndk1::allocator<char> > >(std::__ndk1::__tree_end_node<std::__ndk1::__tree_node_base<void*>*>*&, std::__ndk1::basic_string<char, std::__ndk1::char_traits<char>, std::__ndk1::allocator<char> > const&)
67dc e 1682 6
67ea 4 1683 6
67ee 1a 1685 6
6808 8 1688 6
6810 44 1687 6
6854 26 1695 6
687a 12 1696 6
688c a 1711 6
FUNC 6896 5c 0 std::__ndk1::unique_ptr<std::__ndk1::__tree_node<std::__ndk1::__value_type<std::__ndk1::basic_string<char, std::__ndk1::char_traits<char>, std::__ndk1::allocator<char> >, std::__ndk1::shared_ptr<geode::Hook> >, void*>, std::__ndk1::__tree_node_destructor<std::__ndk1::allocator<std::__ndk1::__tree_node<std::__ndk1::__value_type<std::__ndk1::basic_string<char, std::__ndk1::char_traits<char>, std::__ndk1::allocator<char> >, std::__ndk1::shared_ptr<geode::Hook> >, void*> > > >::~unique_ptr[abi:ne180000]()
6896 5c 240 23
FUNC 68f2 14a 0 std::__ndk1::__tree_balance_after_insert[abi:ne180000]<std::__ndk1::__tree_node_base<void*>*>(std::__ndk1::__tree_node_base<void*>*, std::__ndk1::__tree_node_base<void*>*)
68f2 c 285 6
68fe 28 330 6
6926 a 286 6
6930 c 288 6
693c c 310 6
6948 4 289 6
694c a 290 6
6956 6 297 6
695c 28 299 6
6984 4 303 6
6988 2 299 6
698a 6 305 6
6990 a 317 6
699a 22 319 6
69bc 4 323 6
69c0 2 319 6
69c2 6 325 6
69c8 4 322 6
69cc 4 324 6
69d0 2e 325 6
69fe 6 330 6
6a04 4 302 6
6a08 2 305 6
6a0a 4 304 6
6a0e 2c 305 6
6a3a 2 330 6
FUNC 6a40 ba8 0 geode::modifier::ModifyDerive<hook66<(anonymous namespace)::hook66Parent>, PlayLayer>::apply()
6a40 12 1276 12
6a52 1ba 1297 12
6c0c 278 1307 12
6e84 1aa 1331 12
702e 1e2 1334 12
7210 1ba 1364 12
73ca 16 1408 12
73e0 28 1297 12
7408 28 1307 12
7430 26 1331 12
7456 26 1334 12
747c 32 1364 12
74ae c 1334 12
74ba c 1331 12
74c6 c 1307 12
74d2 12 1297 12
74e4 104 1307 12
FUNC 75e8 2 0 geode::modifier::ModifyBase<geode::modifier::ModifyDerive<hook66<(anonymous namespace)::hook66Parent>, PlayLayer> >::apply()
75e8 2 316 15
FUNC 75ec cc 0 geode::Hook::create<void (*)(hook66<(anonymous namespace)::hook66Parent>*)>(void*, void (*)(hook66<(anonymous namespace)::hook66Parent>*), std::__ndk1::basic_string<char, std::__ndk1::char_traits<char>, std::__ndk1::allocator<char> > const&, tulip::hook::TulipConvention, tulip::hook::HookMetadata const&)
75ec 16 58 24
7602 16 60 24
7618 22 61 24
763a 10 63 24
764a 5e 70 24
76a8 10 59 24
FUNC 76b8 24 0 geode::modifier::AsStaticFunction_fullReset<hook66<(anonymous namespace)::hook66Parent>, void (hook66<(anonymous namespace)::hook66Parent>::*)()>::Impl<void (hook66<(anonymous namespace)::hook66Parent>::*)()>::function(hook66<(anonymous namespace)::hook66Parent>*)
76b8 24 85 12
FUNC 76dc 44 0 geode::modifier::AsStaticFunction_init<hook66<(anonymous namespace)::hook66Parent>, bool (hook66<(anonymous namespace)::hook66Parent>::*)(GJGameLevel*, bool, bool)>::Impl<bool (hook66<(anonymous namespace)::hook66Parent>::*)(GJGameLevel*, bool, bool)>::function(hook66<(anonymous namespace)::hook66Parent>*, GJGameLevel*, bool, bool)
76dc 44 135 12
FUNC 7720 38 0 geode::modifier::AsStaticFunction_resetLevel<hook66<(anonymous namespace)::hook66Parent>, void (hook66<(anonymous namespace)::hook66Parent>::*)()>::Impl<void (hook66<(anonymous namespace)::hook66Parent>::*)()>::function(hook66<(anonymous namespace)::hook66Parent>*)
7720 38 255 12
FUNC 7760 108 0 geode::Hook::create<void (*)(hook66<(anonymous namespace)::hook66Parent>*, bool)>(void*, void (*)(hook66<(anonymous namespace)::hook66Parent>*, bool), std::__ndk1::basic_string<char, std::__ndk1::char_traits<char>, std::__ndk1::allocator<char> > const&, tulip::hook::TulipConvention, tulip::hook::HookMetadata const&)
7760 10 58 24
7770 18 60 24
7788 40 61 24
77c8 12 63 24
77da 5c 70 24
7836 c 61 24
7842 26 59 24
FUNC 7868 2c 0 geode::modifier::AsStaticFunction_resumeAndRestart<hook66<(anonymous namespace)::hook66Parent>, void (hook66<(anonymous namespace)::hook66Parent>::*)(bool)>::Impl<void (hook66<(anonymous namespace)::hook66Parent>::*)(bool)>::function(hook66<(anonymous namespace)::hook66Parent>*, bool)
7868 2c 270 12
FUNC 7894 2c 0 geode::modifier::AsStaticFunction_togglePracticeMode<hook66<(anonymous namespace)::hook66Parent>, void (hook66<(anonymous namespace)::hook66Parent>::*)(bool)>::Impl<void (hook66<(anonymous namespace)::hook66Parent>::*)(bool)>::function(hook66<(anonymous namespace)::hook66Parent>*, bool)
7894 2c 420 12
FUNC 78c0 2d0 0 geode::modifier::ModifyDerive<hook118<(anonymous namespace)::hook118Parent>, PauseLayer>::apply()
78c0 c 281 13
78cc 228 308 13
7af4 e 311 13
7b02 8e 308 13
FUNC 7b90 2 0 geode::modifier::ModifyBase<geode::modifier::ModifyDerive<hook118<(anonymous namespace)::hook118Parent>, PauseLayer> >::apply()
7b90 2 316 15
FUNC 7b94 104 0 _ZN5geode15UnwrapExceptionC2IRNSt6__ndk112basic_stringIcNS2_11char_traitsIcEENS2_9allocatorIcEEEEQsr4implE18IsStringStreamableIT_EEENS_4impl6ErrTagEOSA_
7b94 1a 304 18
7bae 3a 303 18
7be8 5a 302 18
7c42 24 304 18
7c66 32 302 18
FUNC 7c98 2 0 std::__ndk1::__variant_detail::__visitation::__base::__dispatcher<(unsigned int)0>::__dispatch[abi:ne180000]<std::__ndk1::__variant_detail::__dtor<std::__ndk1::__variant_detail::__traits<std::__ndk1::monostate, std::__ndk1::basic_string<char, std::__ndk1::char_traits<char>, std::__ndk1::allocator<char> > >, (std::__ndk1::__variant_detail::_Trait)1>::__destroy[abi:ne180000]()::{lambda(auto:1&)#1}, std::__ndk1::__variant_detail::__base<(std::__ndk1::__variant_detail::__traits<std::__ndk1::monostate, std::__ndk1::basic_string<char, std::__ndk1::char_traits<char>, std::__ndk1::allocator<char> > >)1, std::__ndk1::__variant_detail::__traits, std::__ndk1::allocator<char> >&>(std::__ndk1::__variant_detail::__dtor<std::__ndk1::__variant_detail::__traits<std::__ndk1::monostate, std::__ndk1::basic_string<char, std::__ndk1::char_traits<char>, std::__ndk1::allocator<char> > >, (std::__ndk1::__variant_detail::_Trait)1>, std::__ndk1::__variant_detail::__base<(std::__ndk1::__variant_detail::__traits<std::__ndk1::monostate, std::__ndk1::basic_string<char, std::__ndk1::char_traits<char>, std::__ndk1::allocator<char> > >)1, std::__ndk1::__variant_detail::__traits, std::__ndk1::allocator<char> >&)
7c98 2 526 4
FUNC 7c9a e 0 std::__ndk1::__variant_detail::__visitation::__base::__dispatcher<(unsigned int)1>::__dispatch[abi:ne180000]<std::__ndk1::__variant_detail::__dtor<std::__ndk1::__variant_detail::__traits<std::__ndk1::monostate, std::__ndk1::basic_string<char, std::__ndk1::char_traits<char>, std::__ndk1::allocator<char> > >, (std::__ndk1::__variant_detail::_Trait)1>::__destroy[abi:ne180000]()::{lambda(auto:1&)#1}, std::__ndk1::__variant_detail::__base<(std::__ndk1::__variant_detail::__traits<std::__ndk1::monostate, std::__ndk1::basic_string<char, std::__ndk1::char_traits<char>, std::__ndk1::allocator<char> > >)1, std::__ndk1::__variant_detail::__traits, std::__ndk1::allocator<char> >&>(std::__ndk1::__variant_detail::__dtor<std::__ndk1::__variant_detail::__traits<std::__ndk1::monostate, std::__ndk1::basic_string<char, std::__ndk1::char_traits<char>, std::__ndk1::allocator<char> > >, (std::__ndk1::__variant_detail::_Trait)1>, std::__ndk1::__variant_detail::__base<(std::__ndk1::__variant_detail::__traits<std::__ndk1::monostate, std::__ndk1::basic_string<char, std::__ndk1::char_traits<char>, std::__ndk1::allocator<char> > >)1, std::__ndk1::__variant_detail::__traits, std::__ndk1::allocator<char> >&)
7c9a e 526 4
FUNC 7ca8 7c 0 geode::addresser::getVirtual<void (PauseLayer::*)()>(void (PauseLayer::*)())
7ca8 4 169 0
7cac 78 170 0
FUNC 7d24 d8c 0 geode::modifier::AsStaticFunction_customSetup<hook118<(anonymous namespace)::hook118Parent>, void (hook118<(anonymous namespace)::hook118Parent>::*)()>::Impl<void (hook118<(anonymous namespace)::hook118Parent>::*)()>::function(hook118<(anonymous namespace)::hook118Parent>*)
7d24 d8c 130 13
FUNC 8ab0 78 0 PauseLayer::PauseLayer(geode::ZeroConstructorType)
8ab0 78 17 25
FUNC 8b28 16 0 geode::cocos::CCArrayExt<cocos2d::CCSprite*>::~CCArrayExt()
8b28 16 1009 26
FUNC 8b40 10 0 std::__ndk1::basic_string<char, std::__ndk1::char_traits<char>, std::__ndk1::allocator<char> >::__throw_out_of_range[abi:ne180000]() const
8b40 4 2122 20
8b44 c 2123 20
FUNC 8b50 260 0 tulip::hook::AbstractFunction::from<void, CheckpointGameObject*, GJBaseGameLayer*, int, gd::vector<int> const*>(void (*)(CheckpointGameObject*, GJBaseGameLayer*, int, gd::vector<int> const*))
8b50 e 39 27
8b5e 8 40 27
8b66 4 41 27
8b6a 4 40 27
8b6e 1f6 42 27
8d64 8 45 27
8d6c 1a 42 27
8d86 2a 45 27
FUNC 8db0 20 0 geodeImplicitEntry
8db0 4 16 28
8db4 8 18 28
8dbc 4 19 28
8dc0 a 18 28
8dca 6 19 28
FUNC 8dd0 cc 0 wrapFunction(unsigned int, tulip::hook::WrapperMetadata const&)
8dd0 16 27 30
8de6 4 28 30
8dea 4 29 30
8dee 2 33 30
8df0 2 32 30
8df2 24 33 30
8e16 4 29 30
8e1a 24 30 30
8e3e 36 32 30
8e74 28 33 30
FUNC 8e9c 48 0 geode::impl::ResultData<void*, std::__ndk1::basic_string<char, std::__ndk1::char_traits<char>, std::__ndk1::allocator<char> > >::unwrapErr() &
8e9c 4 472 18
8ea0 4 473 18
8ea4 6 474 18
8eaa 3a 477 18
FUNC 8ee4 60 0 geode::impl::ResultData<void*, std::__ndk1::basic_string<char, std::__ndk1::char_traits<char>, std::__ndk1::allocator<char> > >::~ResultData()
8ee4 60 334 18
FUNC 8f44 46 0 tulip::hook::WrapperMetadata::~WrapperMetadata()
8f44 46 10 31
FUNC 8f8c e4 0 cocos2d::CCDictionary::objectForKey(gd::string const&)
8f8c a 579 30
8f96 1c 581 30
8fb2 1e 585 30
8fd0 2e 581 30
8ffe 8 582 30
9006 4 581 30
900a 8 583 30
9012 5e 581 30
FUNC 9070 70 0 tulip::hook::AbstractFunction::from<cocos2d::CCObject*, cocos2d::CCDictionary*, gd::string const&>(cocos2d::CCObject* (*)(cocos2d::CCDictionary*, gd::string const&))
9070 10 39 27
9080 4 41 27
9084 6 40 27
908a 32 42 27
90bc 24 45 27
FUNC 90e0 d4 0 gd::map<int, gd::string>::operator[](int const&)
90e0 e 194 32
90ee 30 195 32
911e c 196 32
912a 2c 197 32
9156 32 198 32
9188 10 200 32
9198 1c 197 32
FUNC 91b4 f8 0 _ZN5geode15UnwrapExceptionC2IRPvQsr4implE18IsStringStreamableIT_EEENS_4impl5OkTagEOS4_
91b4 1a 316 18
91ce 2c 315 18
91fa 5a 314 18
9254 24 316 18
9278 34 314 18
FUNC 92ac 2 0 std::__ndk1::__variant_detail::__visitation::__base::__dispatcher<(unsigned int)0>::__dispatch[abi:ne180000]<std::__ndk1::__variant_detail::__dtor<std::__ndk1::__variant_detail::__traits<void*, std::__ndk1::basic_string<char, std::__ndk1::char_traits<char>, std::__ndk1::allocator<char> > >, (std::__ndk1::__variant_detail::_Trait)1>::__destroy[abi:ne180000]()::{lambda(auto:1&)#1}, std::__ndk1::__variant_detail::__base<(std::__ndk1::__variant_detail::__traits<void*, std::__ndk1::basic_string<char, std::__ndk1::char_traits<char>, std::__ndk1::allocator<char> > >)1, std::__ndk1::__variant_detail::__traits, std::__ndk1::allocator<char> >&>(std::__ndk1::__variant_detail::__dtor<std::__ndk1::__variant_detail::__traits<void*, std::__ndk1::basic_string<char, std::__ndk1::char_traits<char>, std::__ndk1::allocator<char> > >, (std::__ndk1::__variant_detail::_Trait)1>, std::__ndk1::__variant_detail::__base<(std::__ndk1::__variant_detail::__traits<void*, std::__ndk1::basic_string<char, std::__ndk1::char_traits<char>, std::__ndk1::allocator<char> > >)1, std::__ndk1::__variant_detail::__traits, std::__ndk1::allocator<char> >&)
92ac 2 526 4
FUNC 92ae e 0 std::__ndk1::__variant_detail::__visitation::__base::__dispatcher<(unsigned int)1>::__dispatch[abi:ne180000]<std::__ndk1::__variant_detail::__dtor<std::__ndk1::__variant_detail::__traits<void*, std::__ndk1::basic_string<char, std::__ndk1::char_traits<char>, std::__ndk1::allocator<char> > >, (std::__ndk1::__variant_detail::_Trait)1>::__destroy[abi:ne180000]()::{lambda(auto:1&)#1}, std::__ndk1::__variant_detail::__base<(std::__ndk1::__variant_detail::__traits<void*, std::__ndk1::basic_string<char, std::__ndk1::char_traits<char>, std::__ndk1::allocator<char> > >)1, std::__ndk1::__variant_detail::__traits, std::__ndk1::allocator<char> >&>(std::__ndk1::__variant_detail::__dtor<std::__ndk1::__variant_detail::__traits<void*, std::__ndk1::basic_string<char, std::__ndk1::char_traits<char>, std::__ndk1::allocator<char> > >, (std::__ndk1::__variant_detail::_Trait)1>, std::__ndk1::__variant_detail::__base<(std::__ndk1::__variant_detail::__traits<void*, std::__ndk1::basic_string<char, std::__ndk1::char_traits<char>, std::__ndk1::allocator<char> > >)1, std::__ndk1::__variant_detail::__traits, std::__ndk1::allocator<char> >&)
92ae e 526 4
FUNC 92bc 17c 0 geode::stl::_rb_insert_rebalance(bool, geode::stl::_rb_tree_base*, geode::stl::_rb_tree_base*, geode::stl::_rb_tree_base&)
92bc 8 110 29
92c4 2 113 29
92c6 4 111 29
92ca 6 113 29
92d0 4 114 29
92d4 2 116 29
92d6 2 118 29
92d8 2 121 29
92da 2 119 29
92dc 4 121 29
92e0 6 125 29
92e6 2 130 29
92e8 a 132 29
92f2 1a 137 29
930c 2 138 29
930e 6 140 29
9314 6 160 29
931a c 167 29
9326 2 141 29
9328 6 142 29
932e 1a 149 29
9348 2e 169 29
9376 2 173 29
9378 2 171 29
937a 4 172 29
937e 2c 173 29
93aa 2c 151 29
93d6 2 155 29
93d8 2 151 29
93da 2 155 29
93dc 2 153 29
93de 4 155 29
93e2 4 154 29
93e6 26 155 29
940c 1c 137 29
9428 2 177 29
942a 6 178 29
9430 2 122 29
9432 6 123 29
FUNC 9438 132 0 gd::map<int, gd::string>::insert_pair(std::__ndk1::pair<int, gd::string> const&)
9438 e 112 32
9446 8 113 32
944e 6 116 32
9454 4 118 32
9458 a 119 32
9462 4 116 32
9466 6 123 32
946c 8 124 32
9474 1a 128 32
948e 1a 125 32
94a8 10 128 32
94b8 40 125 32
94f8 a 131 32
9502 50 132 32
9552 8 134 32
955a 10 128 32
PUBLIC 956d 0 __ThumbV7PILongThunk___cxa_atexit
PUBLIC 9579 0 __ThumbV7PILongThunk__ZdlPv
PUBLIC 9585 0 __ThumbV7PILongThunk__ZN9PlayLayer4initEP11GJGameLevelbb
PUBLIC 9591 0 __ThumbV7PILongThunk__ZN5geode9addresser9Addresser19followThunkFunctionEi
PUBLIC 95a0 0 <.plt ELF section in weebify.coins_in_pause_menu.android32.so>
STACK CFI INIT 3f04 5c .cfa: sp 0 +
STACK CFI 3f06 .cfa: sp 20 + .ra: .cfa -4 + ^ r7: .cfa -8 + ^ r6: .cfa -12 + ^ r5: .cfa -16 + ^ r4: .cfa -20 + ^
STACK CFI 3f08 .cfa: r7 8 +
STACK CFI 3f0c r11: .cfa -24 + ^
STACK CFI INIT 3f60 38 .cfa: sp 0 +
STACK CFI 3f62 .cfa: sp 16 + .ra: .cfa -4 + ^ r7: .cfa -8 + ^ r6: .cfa -12 + ^ r4: .cfa -16 + ^
STACK CFI 3f64 .cfa: r7 8 +
STACK CFI INIT 3f98 54 .cfa: sp 0 +
STACK CFI 3fa6 .cfa: sp 16 + .ra: .cfa -4 + ^ r7: .cfa -8 + ^ r5: .cfa -12 + ^ r4: .cfa -16 + ^
STACK CFI 3fa8 .cfa: r7 8 +
STACK CFI INIT 3fec 1c .cfa: sp 0 +
STACK CFI 3fee .cfa: sp 16 + .ra: .cfa -4 + ^ r7: .cfa -8 + ^ r6: .cfa -12 + ^ r4: .cfa -16 + ^
STACK CFI 3ff0 .cfa: r7 8 +
STACK CFI INIT 4010 2c4 .cfa: sp 0 +
STACK CFI 4012 .cfa: sp 20 + .ra: .cfa -4 + ^ r7: .cfa -8 + ^ r6: .cfa -12 + ^ r5: .cfa -16 + ^ r4: .cfa -20 + ^
STACK CFI 4014 .cfa: r7 8 +
STACK CFI 4018 r11: .cfa -24 + ^ r10: .cfa -28 + ^ r9: .cfa -32 + ^ r8: .cfa -36 + ^
STACK CFI INIT 4ef0 1c .cfa: sp 0 +
STACK CFI 4ef2 .cfa: sp 16 + .ra: .cfa -4 + ^ r7: .cfa -8 + ^ r6: .cfa -12 + ^ r4: .cfa -16 + ^
STACK CFI 4ef4 .cfa: r7 8 +
STACK CFI INIT 42d4 2c4 .cfa: sp 0 +
STACK CFI 42d6 .cfa: sp 20 + .ra: .cfa -4 + ^ r7: .cfa -8 + ^ r6: .cfa -12 + ^ r5: .cfa -16 + ^ r4: .cfa -20 + ^
STACK CFI 42d8 .cfa: r7 8 +
STACK CFI 42dc r11: .cfa -24 + ^ r10: .cfa -28 + ^ r9: .cfa -32 + ^ r8: .cfa -36 + ^
STACK CFI INIT 4f0c 1c .cfa: sp 0 +
STACK CFI 4f0e .cfa: sp 16 + .ra: .cfa -4 + ^ r7: .cfa -8 + ^ r6: .cfa -12 + ^ r4: .cfa -16 + ^
STACK CFI 4f10 .cfa: r7 8 +
STACK CFI INIT 4598 42c .cfa: sp 0 +
STACK CFI 459a .cfa: sp 20 + .ra: .cfa -4 + ^ r7: .cfa -8 + ^ r6: .cfa -12 + ^ r5: .cfa -16 + ^ r4: .cfa -20 + ^
STACK CFI 459c .cfa: r7 8 +
STACK CFI 45a0 r11: .cfa -24 + ^ r10: .cfa -28 + ^ r9: .cfa -32 + ^ r8: .cfa -36 + ^
STACK CFI INIT 4f28 1c .cfa: sp 0 +
STACK CFI 4f2a .cfa: sp 16 + .ra: .cfa -4 + ^ r7: .cfa -8 + ^ r6: .cfa -12 + ^ r4: .cfa -16 + ^
STACK CFI 4f2c .cfa: r7 8 +
STACK CFI INIT 4f44 4dc .cfa: sp 0 +
STACK CFI 4f46 .cfa: sp 20 + .ra: .cfa -4 + ^ r7: .cfa -8 + ^ r6: .cfa -12 + ^ r5: .cfa -16 + ^ r4: .cfa -20 + ^
STACK CFI 4f48 .cfa: r7 8 +
STACK CFI 4f4c r11: .cfa -24 + ^ r10: .cfa -28 + ^ r9: .cfa -32 + ^ r8: .cfa -36 + ^
STACK CFI INIT 5420 2 .cfa: sp 0 +
STACK CFI INIT 5424 10 .cfa: sp 0 +
STACK CFI 5426 .cfa: sp 8 + .ra: .cfa -4 + ^ r7: .cfa -8 + ^
STACK CFI 5428 .cfa: r7 8 +
STACK CFI INIT 5434 c .cfa: sp 0 +
STACK CFI 5436 .cfa: sp 8 + .ra: .cfa -4 + ^ r7: .cfa -8 + ^
STACK CFI 5438 .cfa: r7 8 +
STACK CFI INIT 5440 38 .cfa: sp 0 +
STACK CFI 5442 .cfa: sp 16 + .ra: .cfa -4 + ^ r7: .cfa -8 + ^ r5: .cfa -12 + ^ r4: .cfa -16 + ^
STACK CFI 5444 .cfa: r7 8 +
STACK CFI INIT 5478 18 .cfa: sp 0 +
STACK CFI 547a .cfa: sp 8 + .ra: .cfa -4 + ^ r7: .cfa -8 + ^
STACK CFI 547c .cfa: r7 8 +
STACK CFI INIT 5490 28 .cfa: sp 0 +
STACK CFI 5492 .cfa: sp 8 + .ra: .cfa -4 + ^ r7: .cfa -8 + ^
STACK CFI 5494 .cfa: r7 8 +
STACK CFI INIT 54b8 10 .cfa: sp 0 +
STACK CFI 54ba .cfa: sp 8 + .ra: .cfa -4 + ^ r7: .cfa -8 + ^
STACK CFI 54bc .cfa: r7 8 +
STACK CFI INIT 54c8 10 .cfa: sp 0 +
STACK CFI 54ca .cfa: sp 8 + .ra: .cfa -4 + ^ r7: .cfa -8 + ^
STACK CFI 54cc .cfa: r7 8 +
STACK CFI INIT 54d8 38 .cfa: sp 0 +
STACK CFI 54da .cfa: sp 16 + .ra: .cfa -4 + ^ r7: .cfa -8 + ^ r5: .cfa -12 + ^ r4: .cfa -16 + ^
STACK CFI 54dc .cfa: r7 8 +
STACK CFI INIT 5510 18 .cfa: sp 0 +
STACK CFI 5512 .cfa: sp 8 + .ra: .cfa -4 + ^ r7: .cfa -8 + ^
STACK CFI 5514 .cfa: r7 8 +
STACK CFI INIT 5528 10 .cfa: sp 0 +
STACK CFI 552a .cfa: sp 8 + .ra: .cfa -4 + ^ r7: .cfa -8 + ^
STACK CFI 552c .cfa: r7 8 +
STACK CFI INIT 5538 2 .cfa: sp 0 +
STACK CFI INIT 553a 4 .cfa: sp 0 +
STACK CFI INIT 5540 20 .cfa: sp 0 +
STACK CFI 5542 .cfa: sp 16 + .ra: .cfa -4 + ^ r7: .cfa -8 + ^ r6: .cfa -12 + ^ r4: .cfa -16 + ^
STACK CFI 5544 .cfa: r7 8 +
STACK CFI INIT 5560 14 .cfa: sp 0 +
STACK CFI INIT 5574 2 .cfa: sp 0 +
STACK CFI INIT 5576 4 .cfa: sp 0 +
STACK CFI INIT 557a 8 .cfa: sp 0 +
STACK CFI INIT 5584 18 .cfa: sp 0 +
STACK CFI INIT 559c c .cfa: sp 0 +
STACK CFI INIT 55a8 2 .cfa: sp 0 +
STACK CFI INIT 55aa 3a .cfa: sp 0 +
STACK CFI 55ac .cfa: sp 16 + .ra: .cfa -4 + ^ r7: .cfa -8 + ^ r5: .cfa -12 + ^ r4: .cfa -16 + ^
STACK CFI 55ae .cfa: r7 8 +
STACK CFI INIT 55e4 60 .cfa: sp 0 +
STACK CFI 55e6 .cfa: sp 16 + .ra: .cfa -4 + ^ r7: .cfa -8 + ^ r6: .cfa -12 + ^ r4: .cfa -16 + ^
STACK CFI 55e8 .cfa: r7 8 +
STACK CFI INIT 5644 3e .cfa: sp 0 +
STACK CFI 5646 .cfa: sp 20 + .ra: .cfa -4 + ^ r7: .cfa -8 + ^ r6: .cfa -12 + ^ r5: .cfa -16 + ^ r4: .cfa -20 + ^
STACK CFI 5648 .cfa: r7 8 +
STACK CFI 564c r11: .cfa -24 + ^
STACK CFI INIT 5682 2 .cfa: sp 0 +
STACK CFI INIT 5684 f8 .cfa: sp 0 +
STACK CFI 5686 .cfa: sp 20 + .ra: .cfa -4 + ^ r7: .cfa -8 + ^ r6: .cfa -12 + ^ r5: .cfa -16 + ^ r4: .cfa -20 + ^
STACK CFI 5688 .cfa: r7 8 +
STACK CFI 568c r8: .cfa -24 + ^
STACK CFI INIT 577c 34 .cfa: sp 0 +
STACK CFI 577e .cfa: sp 8 + .ra: .cfa -4 + ^ r7: .cfa -8 + ^
STACK CFI 5780 .cfa: r7 8 +
STACK CFI INIT 57b0 d8 .cfa: sp 0 +
STACK CFI 57b2 .cfa: sp 20 + .ra: .cfa -4 + ^ r7: .cfa -8 + ^ r6: .cfa -12 + ^ r5: .cfa -16 + ^ r4: .cfa -20 + ^
STACK CFI 57b4 .cfa: r7 8 +
STACK CFI 57b8 r11: .cfa -24 + ^ r10: .cfa -28 + ^ r9: .cfa -32 + ^ r8: .cfa -36 + ^
STACK CFI INIT 5888 68 .cfa: sp 0 +
STACK CFI 588a .cfa: sp 20 + .ra: .cfa -4 + ^ r7: .cfa -8 + ^ r6: .cfa -12 + ^ r5: .cfa -16 + ^ r4: .cfa -20 + ^
STACK CFI 588c .cfa: r7 8 +
STACK CFI 5890 r11: .cfa -24 + ^
STACK CFI INIT 58f0 10 .cfa: sp 0 +
STACK CFI 58f2 .cfa: sp 8 + .ra: .cfa -4 + ^ r7: .cfa -8 + ^
STACK CFI 58f4 .cfa: r7 8 +
STACK CFI INIT 5900 108 .cfa: sp 0 +
STACK CFI 5902 .cfa: sp 20 + .ra: .cfa -4 + ^ r7: .cfa -8 + ^ r6: .cfa -12 + ^ r5: .cfa -16 + ^ r4: .cfa -20 + ^
STACK CFI 5904 .cfa: r7 8 +
STACK CFI 5908 r11: .cfa -24 + ^ r10: .cfa -28 + ^ r9: .cfa -32 + ^ r8: .cfa -36 + ^
STACK CFI INIT 5a08 110 .cfa: sp 0 +
STACK CFI 5a0a .cfa: sp 20 + .ra: .cfa -4 + ^ r7: .cfa -8 + ^ r6: .cfa -12 + ^ r5: .cfa -16 + ^ r4: .cfa -20 + ^
STACK CFI 5a0c .cfa: r7 8 +
STACK CFI 5a10 r11: .cfa -24 + ^ r10: .cfa -28 + ^ r9: .cfa -32 + ^ r8: .cfa -36 + ^
STACK CFI INIT 5b18 10 .cfa: sp 0 +
STACK CFI 5b1a .cfa: sp 8 + .ra: .cfa -4 + ^ r7: .cfa -8 + ^
STACK CFI 5b1c .cfa: r7 8 +
STACK CFI INIT 5b28 ce .cfa: sp 0 +
STACK CFI 5b2a .cfa: sp 20 + .ra: .cfa -4 + ^ r7: .cfa -8 + ^ r6: .cfa -12 + ^ r5: .cfa -16 + ^ r4: .cfa -20 + ^
STACK CFI 5b2c .cfa: r7 8 +
STACK CFI 5b30 r10: .cfa -24 + ^ r9: .cfa -28 + ^ r8: .cfa -32 + ^
STACK CFI INIT 5bf6 e0 .cfa: sp 0 +
STACK CFI 5bf8 .cfa: sp 20 + .ra: .cfa -4 + ^ r7: .cfa -8 + ^ r6: .cfa -12 + ^ r5: .cfa -16 + ^ r4: .cfa -20 + ^
STACK CFI 5bfa .cfa: r7 8 +
STACK CFI 5bfe r11: .cfa -24 + ^ r9: .cfa -28 + ^ r8: .cfa -32 + ^
STACK CFI INIT 5cd8 160 .cfa: sp 0 +
STACK CFI 5cda .cfa: sp 20 + .ra: .cfa -4 + ^ r7: .cfa -8 + ^ r6: .cfa -12 + ^ r5: .cfa -16 + ^ r4: .cfa -20 + ^
STACK CFI 5cdc .cfa: r7 8 +
STACK CFI 5ce0 r10: .cfa -24 + ^ r9: .cfa -28 + ^ r8: .cfa -32 + ^
STACK CFI INIT 5e38 46 .cfa: sp 0 +
STACK CFI 5e3a .cfa: sp 20 + .ra: .cfa -4 + ^ r7: .cfa -8 + ^ r6: .cfa -12 + ^ r5: .cfa -16 + ^ r4: .cfa -20 + ^
STACK CFI 5e3c .cfa: r7 8 +
STACK CFI 5e40 r8: .cfa -24 + ^
STACK CFI INIT 5e7e 3c .cfa: sp 0 +
STACK CFI 5e80 .cfa: sp 16 + .ra: .cfa -4 + ^ r7: .cfa -8 + ^ r5: .cfa -12 + ^ r4: .cfa -16 + ^
STACK CFI 5e82 .cfa: r7 8 +
STACK CFI INIT 5ebc 10 .cfa: sp 0 +
STACK CFI 5ebe .cfa: sp 8 + .ra: .cfa -4 + ^ r7: .cfa -8 + ^
STACK CFI 5ec0 .cfa: r7 8 +
STACK CFI INIT 5ecc 2 .cfa: sp 0 +
STACK CFI INIT 5ece e .cfa: sp 0 +
STACK CFI INIT 5edc c0 .cfa: sp 0 +
STACK CFI 5ede .cfa: sp 20 + .ra: .cfa -4 + ^ r7: .cfa -8 + ^ r6: .cfa -12 + ^ r5: .cfa -16 + ^ r4: .cfa -20 + ^
STACK CFI 5ee0 .cfa: r7 8 +
STACK CFI 5ee4 r10: .cfa -24 + ^ r9: .cfa -28 + ^ r8: .cfa -32 + ^
STACK CFI INIT 5f9c 2ba .cfa: sp 0 +
STACK CFI 5f9e .cfa: sp 20 + .ra: .cfa -4 + ^ r7: .cfa -8 + ^ r6: .cfa -12 + ^ r5: .cfa -16 + ^ r4: .cfa -20 + ^
STACK CFI 5fa0 .cfa: r7 8 +
STACK CFI 5fa4 r8: .cfa -24 + ^
STACK CFI INIT 6256 5a .cfa: sp 0 +
STACK CFI 625e .cfa: sp 16 + .ra: .cfa -4 + ^ r7: .cfa -8 + ^ r5: .cfa -12 + ^ r4: .cfa -16 + ^
STACK CFI 6260 .cfa: r7 8 +
STACK CFI INIT 62b0 2dc .cfa: sp 0 +
STACK CFI 62b2 .cfa: sp 20 + .ra: .cfa -4 + ^ r7: .cfa -8 + ^ r6: .cfa -12 + ^ r5: .cfa -16 + ^ r4: .cfa -20 + ^
STACK CFI 62b4 .cfa: r7 8 +
STACK CFI 62b8 r10: .cfa -24 + ^ r9: .cfa -28 + ^ r8: .cfa -32 + ^
STACK CFI INIT 658c 2 .cfa: sp 0 +
STACK CFI INIT 6590 134 .cfa: sp 0 +
STACK CFI 6592 .cfa: sp 20 + .ra: .cfa -4 + ^ r7: .cfa -8 + ^ r6: .cfa -12 + ^ r5: .cfa -16 + ^ r4: .cfa -20 + ^
STACK CFI 6594 .cfa: r7 8 +
STACK CFI 6598 r10: .cfa -24 + ^ r9: .cfa -28 + ^ r8: .cfa -32 + ^
STACK CFI INIT 66c4 3a .cfa: sp 0 +
STACK CFI 66c6 .cfa: sp 16 + .ra: .cfa -4 + ^ r7: .cfa -8 + ^ r5: .cfa -12 + ^ r4: .cfa -16 + ^
STACK CFI 66c8 .cfa: r7 8 +
STACK CFI INIT 66fe 46 .cfa: sp 0 +
STACK CFI 6700 .cfa: sp 16 + .ra: .cfa -4 + ^ r7: .cfa -8 + ^ r5: .cfa -12 + ^ r4: .cfa -16 + ^
STACK CFI 6702 .cfa: r7 8 +
STACK CFI INIT 6744 10 .cfa: sp 0 +
STACK CFI 6746 .cfa: sp 8 + .ra: .cfa -4 + ^ r7: .cfa -8 + ^
STACK CFI 6748 .cfa: r7 8 +
STACK CFI INIT 6754 88 .cfa: sp 0 +
STACK CFI 6756 .cfa: sp 20 + .ra: .cfa -4 + ^ r7: .cfa -8 + ^ r6: .cfa -12 + ^ r5: .cfa -16 + ^ r4: .cfa -20 + ^
STACK CFI 6758 .cfa: r7 8 +
STACK CFI 675c r11: .cfa -24 + ^ r9: .cfa -28 + ^ r8: .cfa -32 + ^
STACK CFI INIT 67dc ba .cfa: sp 0 +
STACK CFI 67de .cfa: sp 20 + .ra: .cfa -4 + ^ r7: .cfa -8 + ^ r6: .cfa -12 + ^ r5: .cfa -16 + ^ r4: .cfa -20 + ^
STACK CFI 67e0 .cfa: r7 8 +
STACK CFI 67e4 r11: .cfa -24 + ^ r10: .cfa -28 + ^ r9: .cfa -32 + ^ r8: .cfa -36 + ^
STACK CFI INIT 6896 5c .cfa: sp 0 +
STACK CFI 6898 .cfa: sp 20 + .ra: .cfa -4 + ^ r7: .cfa -8 + ^ r6: .cfa -12 + ^ r5: .cfa -16 + ^ r4: .cfa -20 + ^
STACK CFI 689a .cfa: r7 8 +
STACK CFI 689e r11: .cfa -24 + ^
STACK CFI INIT 68f2 14a .cfa: sp 0 +
STACK CFI 6904 .cfa: sp 16 + .ra: .cfa -4 + ^ r7: .cfa -8 + ^ r6: .cfa -12 + ^ r4: .cfa -16 + ^
STACK CFI 6906 .cfa: r7 8 +
STACK CFI INIT 6a40 ba8 .cfa: sp 0 +
STACK CFI 6a42 .cfa: sp 20 + .ra: .cfa -4 + ^ r7: .cfa -8 + ^ r6: .cfa -12 + ^ r5: .cfa -16 + ^ r4: .cfa -20 + ^
STACK CFI 6a44 .cfa: r7 8 +
STACK CFI 6a48 r11: .cfa -24 + ^ r10: .cfa -28 + ^ r9: .cfa -32 + ^ r8: .cfa -36 + ^
STACK CFI INIT 75e8 2 .cfa: sp 0 +
STACK CFI INIT 75ec cc .cfa: sp 0 +
STACK CFI 75ee .cfa: sp 20 + .ra: .cfa -4 + ^ r7: .cfa -8 + ^ r6: .cfa -12 + ^ r5: .cfa -16 + ^ r4: .cfa -20 + ^
STACK CFI 75f0 .cfa: r7 8 +
STACK CFI 75f4 r10: .cfa -24 + ^ r9: .cfa -28 + ^ r8: .cfa -32 + ^
STACK CFI INIT 76b8 24 .cfa: sp 0 +
STACK CFI 76ba .cfa: sp 8 + .ra: .cfa -4 + ^ r7: .cfa -8 + ^
STACK CFI 76bc .cfa: r7 8 +
STACK CFI INIT 76dc 44 .cfa: sp 0 +
STACK CFI 76de .cfa: sp 20 + .ra: .cfa -4 + ^ r7: .cfa -8 + ^ r6: .cfa -12 + ^ r5: .cfa -16 + ^ r4: .cfa -20 + ^
STACK CFI 76e0 .cfa: r7 8 +
STACK CFI 76e4 r11: .cfa -24 + ^
STACK CFI INIT 7720 38 .cfa: sp 0 +
STACK CFI 7722 .cfa: sp 16 + .ra: .cfa -4 + ^ r7: .cfa -8 + ^ r6: .cfa -12 + ^ r4: .cfa -16 + ^
STACK CFI 7724 .cfa: r7 8 +
STACK CFI INIT 7760 108 .cfa: sp 0 +
STACK CFI 7762 .cfa: sp 20 + .ra: .cfa -4 + ^ r7: .cfa -8 + ^ r6: .cfa -12 + ^ r5: .cfa -16 + ^ r4: .cfa -20 + ^
STACK CFI 7764 .cfa: r7 8 +
STACK CFI 7768 r11: .cfa -24 + ^ r10: .cfa -28 + ^ r9: .cfa -32 + ^ r8: .cfa -36 + ^
STACK CFI INIT 7868 2c .cfa: sp 0 +
STACK CFI 786a .cfa: sp 16 + .ra: .cfa -4 + ^ r7: .cfa -8 + ^ r6: .cfa -12 + ^ r4: .cfa -16 + ^
STACK CFI 786c .cfa: r7 8 +
STACK CFI INIT 7894 2c .cfa: sp 0 +
STACK CFI 7896 .cfa: sp 16 + .ra: .cfa -4 + ^ r7: .cfa -8 + ^ r6: .cfa -12 + ^ r4: .cfa -16 + ^
STACK CFI 7898 .cfa: r7 8 +
STACK CFI INIT 78c0 2d0 .cfa: sp 0 +
STACK CFI 78c2 .cfa: sp 20 + .ra: .cfa -4 + ^ r7: .cfa -8 + ^ r6: .cfa -12 + ^ r5: .cfa -16 + ^ r4: .cfa -20 + ^
STACK CFI 78c4 .cfa: r7 8 +
STACK CFI 78c8 r11: .cfa -24 + ^ r9: .cfa -28 + ^ r8: .cfa -32 + ^
STACK CFI INIT 7b90 2 .cfa: sp 0 +
STACK CFI INIT 7b94 104 .cfa: sp 0 +
STACK CFI 7b96 .cfa: sp 20 + .ra: .cfa -4 + ^ r7: .cfa -8 + ^ r6: .cfa -12 + ^ r5: .cfa -16 + ^ r4: .cfa -20 + ^
STACK CFI 7b98 .cfa: r7 8 +
STACK CFI 7b9c r8: .cfa -24 + ^
STACK CFI INIT 7c98 2 .cfa: sp 0 +
STACK CFI INIT 7c9a e .cfa: sp 0 +
STACK CFI INIT 7ca8 7c .cfa: sp 0 +
STACK CFI 7caa .cfa: sp 16 + .ra: .cfa -4 + ^ r7: .cfa -8 + ^ r6: .cfa -12 + ^ r4: .cfa -16 + ^
STACK CFI 7cac .cfa: r7 8 +
STACK CFI INIT 7d24 d8c .cfa: sp 0 +
STACK CFI 7d26 .cfa: sp 20 + .ra: .cfa -4 + ^ r7: .cfa -8 + ^ r6: .cfa -12 + ^ r5: .cfa -16 + ^ r4: .cfa -20 + ^
STACK CFI 7d28 .cfa: r7 8 +
STACK CFI 7d2c r11: .cfa -24 + ^ r10: .cfa -28 + ^ r9: .cfa -32 + ^ r8: .cfa -36 + ^
STACK CFI INIT 8ab0 78 .cfa: sp 0 +
STACK CFI 8ab2 .cfa: sp 16 + .ra: .cfa -4 + ^ r7: .cfa -8 + ^ r6: .cfa -12 + ^ r4: .cfa -16 + ^
STACK CFI 8ab4 .cfa: r7 8 +
STACK CFI INIT 8b28 16 .cfa: sp 0 +
STACK CFI 8b2a .cfa: sp 16 + .ra: .cfa -4 + ^ r7: .cfa -8 + ^ r6: .cfa -12 + ^ r4: .cfa -16 + ^
STACK CFI 8b2c .cfa: r7 8 +
STACK CFI INIT 8b40 10 .cfa: sp 0 +
STACK CFI 8b42 .cfa: sp 8 + .ra: .cfa -4 + ^ r7: .cfa -8 + ^
STACK CFI 8b44 .cfa: r7 8 +
STACK CFI INIT 8b50 260 .cfa: sp 0 +
STACK CFI 8b52 .cfa: sp 20 + .ra: .cfa -4 + ^ r7: .cfa -8 + ^ r6: .cfa -12 + ^ r5: .cfa -16 + ^ r4: .cfa -20 + ^
STACK CFI 8b54 .cfa: r7 8 +
STACK CFI 8b58 r11: .cfa -24 + ^ r10: .cfa -28 + ^ r9: .cfa -32 + ^ r8: .cfa -36 + ^
STACK CFI INIT 49d0 520 .cfa: sp 0 +
STACK CFI 49d2 .cfa: sp 20 + .ra: .cfa -4 + ^ r7: .cfa -8 + ^ r6: .cfa -12 + ^ r5: .cfa -16 + ^ r4: .cfa -20 + ^
STACK CFI 49d4 .cfa: r7 8 +
STACK CFI 49d8 r11: .cfa -24 + ^ r10: .cfa -28 + ^ r9: .cfa -32 + ^ r8: .cfa -36 + ^
STACK CFI INIT 0 20 .cfa: sp 0 +
STACK CFI 2 .cfa: sp 16 + .ra: .cfa -4 + ^ r7: .cfa -8 + ^ r6: .cfa -12 + ^ r4: .cfa -16 + ^
STACK CFI 4 .cfa: r7 8 +
STACK CFI INIT 8db0 20 .cfa: sp 0 +
STACK CFI 8db2 .cfa: sp 16 + .ra: .cfa -4 + ^ r7: .cfa -8 + ^ r6: .cfa -12 + ^ r4: .cfa -16 + ^
STACK CFI 8db4 .cfa: r7 8 +
STACK CFI INIT 8dd0 cc .cfa: sp 0 +
STACK CFI 8dd2 .cfa: sp 16 + .ra: .cfa -4 + ^ r7: .cfa -8 + ^ r6: .cfa -12 + ^ r4: .cfa -16 + ^
STACK CFI 8dd4 .cfa: r7 8 +
STACK CFI INIT 8e9c 48 .cfa: sp 0 +
STACK CFI 8e9e .cfa: sp 16 + .ra: .cfa -4 + ^ r7: .cfa -8 + ^ r5: .cfa -12 + ^ r4: .cfa -16 + ^
STACK CFI 8ea0 .cfa: r7 8 +
STACK CFI INIT 8ee4 60 .cfa: sp 0 +
STACK CFI 8ee6 .cfa: sp 16 + .ra: .cfa -4 + ^ r7: .cfa -8 + ^ r6: .cfa -12 + ^ r4: .cfa -16 + ^
STACK CFI 8ee8 .cfa: r7 8 +
STACK CFI INIT 8f44 46 .cfa: sp 0 +
STACK CFI 8f46 .cfa: sp 16 + .ra: .cfa -4 + ^ r7: .cfa -8 + ^ r5: .cfa -12 + ^ r4: .cfa -16 + ^
STACK CFI 8f48 .cfa: r7 8 +
STACK CFI INIT 8f8c e4 .cfa: sp 0 +
STACK CFI 8f8e .cfa: sp 20 + .ra: .cfa -4 + ^ r7: .cfa -8 + ^ r6: .cfa -12 + ^ r5: .cfa -16 + ^ r4: .cfa -20 + ^
STACK CFI 8f90 .cfa: r7 8 +
STACK CFI 8f94 r11: .cfa -24 + ^ r9: .cfa -28 + ^ r8: .cfa -32 + ^
STACK CFI INIT 9070 70 .cfa: sp 0 +
STACK CFI 9072 .cfa: sp 20 + .ra: .cfa -4 + ^ r7: .cfa -8 + ^ r6: .cfa -12 + ^ r5: .cfa -16 + ^ r4: .cfa -20 + ^
STACK CFI 9074 .cfa: r7 8 +
STACK CFI 9078 r8: .cfa -24 + ^
STACK CFI INIT 0 6 .cfa: sp 0 +
STACK CFI INIT 0 40 .cfa: sp 0 +
STACK CFI 2 .cfa: sp 8 + .ra: .cfa -4 + ^ r7: .cfa -8 + ^
STACK CFI 4 .cfa: r7 8 +
STACK CFI INIT 90e0 d4 .cfa: sp 0 +
STACK CFI 90e2 .cfa: sp 20 + .ra: .cfa -4 + ^ r7: .cfa -8 + ^ r6: .cfa -12 + ^ r5: .cfa -16 + ^ r4: .cfa -20 + ^
STACK CFI 90e4 .cfa: r7 8 +
STACK CFI 90e8 r11: .cfa -24 + ^ r9: .cfa -28 + ^ r8: .cfa -32 + ^
STACK CFI INIT 91b4 f8 .cfa: sp 0 +
STACK CFI 91b6 .cfa: sp 20 + .ra: .cfa -4 + ^ r7: .cfa -8 + ^ r6: .cfa -12 + ^ r5: .cfa -16 + ^ r4: .cfa -20 + ^
STACK CFI 91b8 .cfa: r7 8 +
STACK CFI 91bc r8: .cfa -24 + ^
STACK CFI INIT 92ac 2 .cfa: sp 0 +
STACK CFI INIT 92ae e .cfa: sp 0 +
STACK CFI INIT 92bc 17c .cfa: sp 0 +
STACK CFI 92be .cfa: sp 20 + .ra: .cfa -4 + ^ r7: .cfa -8 + ^ r6: .cfa -12 + ^ r5: .cfa -16 + ^ r4: .cfa -20 + ^
STACK CFI 92c0 .cfa: r7 8 +
STACK CFI 92c4 r11: .cfa -24 + ^
STACK CFI INIT 9438 132 .cfa: sp 0 +
STACK CFI 943a .cfa: sp 20 + .ra: .cfa -4 + ^ r7: .cfa -8 + ^ r6: .cfa -12 + ^ r5: .cfa -16 + ^ r4: .cfa -20 + ^
STACK CFI 943c .cfa: r7 8 +
STACK CFI 9440 r11: .cfa -24 + ^ r10: .cfa -28 + ^ r9: .cfa -32 + ^ r8: .cfa -36 + ^
