MODULE Linux arm FF1DC27571111290262173CB75B83ECB0 trealdry.dynamic-icon-change.android32.so
INFO CODE_ID 75C21DFF11719012262173CB75B83ECBCF7C0160
INFO GENERATOR mozilla/dump_syms 2.3.4
FILE 0 /home/runner/work/Dynamic-Icon-Change/Dynamic-Icon-Change/geode-sdk-clone/loader/include/Geode/utils/addresser.hpp
FILE 1 /home/runner/work/Dynamic-Icon-Change/Dynamic-Icon-Change/geode-sdk-clone/loader/include/Geode/platform/ItaniumCast.hpp
FILE 2 /usr/local/lib/android/sdk/ndk/27.2.12479018/toolchains/llvm/prebuilt/linux-x86_64/sysroot/usr/include/c++/v1/ostream
FILE 3 /usr/local/lib/android/sdk/ndk/27.2.12479018/toolchains/llvm/prebuilt/linux-x86_64/sysroot/usr/include/c++/v1/stdexcept
FILE 4 /usr/local/lib/android/sdk/ndk/27.2.12479018/toolchains/llvm/prebuilt/linux-x86_64/sysroot/usr/include/c++/v1/variant
FILE 5 /usr/local/lib/android/sdk/ndk/27.2.12479018/toolchains/llvm/prebuilt/linux-x86_64/sysroot/usr/include/c++/v1/locale
FILE 6 /usr/local/lib/android/sdk/ndk/27.2.12479018/toolchains/llvm/prebuilt/linux-x86_64/sysroot/usr/include/c++/v1/__tree
FILE 7 /usr/local/lib/android/sdk/ndk/27.2.12479018/toolchains/llvm/prebuilt/linux-x86_64/sysroot/usr/include/c++/v1/new
FILE 8 /home/runner/work/Dynamic-Icon-Change/Dynamic-Icon-Change/build/bindings/bindings/Geode/modify/PlayLayer.hpp
FILE 9 /home/runner/work/Dynamic-Icon-Change/Dynamic-Icon-Change/build/bindings/bindings/Geode/modify/PlayerObject.hpp
FILE 10 /home/runner/work/Dynamic-Icon-Change/Dynamic-Icon-Change/build/bindings/bindings/Geode/modify/PauseLayer.hpp
FILE 11 /home/runner/work/Dynamic-Icon-Change/Dynamic-Icon-Change/build/bindings/bindings/Geode/modify/LevelEditorLayer.hpp
FILE 12 /home/runner/work/Dynamic-Icon-Change/Dynamic-Icon-Change/build/bindings/bindings/Geode/modify/AppDelegate.hpp
FILE 13 /home/runner/work/Dynamic-Icon-Change/Dynamic-Icon-Change/geode-sdk-clone/loader/include/Geode/modify/Modify.hpp
FILE 14 /home/runner/work/Dynamic-Icon-Change/Dynamic-Icon-Change/geode-sdk-clone/loader/include/Geode/loader/Event.hpp
FILE 15 /home/runner/work/Dynamic-Icon-Change/Dynamic-Icon-Change/geode-sdk-clone/loader/include/Geode/loader/SettingV3.hpp
FILE 16 /usr/local/lib/android/sdk/ndk/27.2.12479018/toolchains/llvm/prebuilt/linux-x86_64/sysroot/usr/include/c++/v1/__functional/function.h
FILE 17 /usr/local/lib/android/sdk/ndk/27.2.12479018/toolchains/llvm/prebuilt/linux-x86_64/sysroot/usr/include/c++/v1/string
FILE 18 /usr/local/lib/android/sdk/ndk/27.2.12479018/toolchains/llvm/prebuilt/linux-x86_64/sysroot/usr/include/c++/v1/__memory/shared_ptr.h
FILE 19 /home/runner/work/Dynamic-Icon-Change/Dynamic-Icon-Change/cpm-cache/result/a5380f9e23f94b98200baa461086514f602899cb/include/Geode/Result.hpp
FILE 20 /usr/local/lib/android/sdk/ndk/27.2.12479018/toolchains/llvm/prebuilt/linux-x86_64/sysroot/usr/include/c++/v1/vector
FILE 21 /usr/local/lib/android/sdk/ndk/27.2.12479018/toolchains/llvm/prebuilt/linux-x86_64/sysroot/usr/include/c++/v1/sstream
FILE 22 /usr/local/lib/android/sdk/ndk/27.2.12479018/toolchains/llvm/prebuilt/linux-x86_64/sysroot/usr/include/c++/v1/__split_buffer
FILE 23 /home/runner/work/Dynamic-Icon-Change/Dynamic-Icon-Change/src/main.cpp
FILE 24 /home/runner/work/Dynamic-Icon-Change/Dynamic-Icon-Change/cpm-cache/tuliphook/8d0d2aa407f52cdee9f79187fca5c9affddf8dd5/include/tulip/HandlerData.hpp
FILE 25 /home/runner/work/Dynamic-Icon-Change/Dynamic-Icon-Change/geode-sdk-clone/loader/include/Geode/loader/Hook.hpp
FILE 26 /home/runner/work/Dynamic-Icon-Change/Dynamic-Icon-Change/build/bindings/bindings/Geode/binding/PauseLayer.hpp
FILE 27 /home/runner/work/Dynamic-Icon-Change/Dynamic-Icon-Change/src/IconManager.cpp
FILE 28 /home/runner/work/Dynamic-Icon-Change/Dynamic-Icon-Change/src/DynamicIconChange.cpp
FILE 29 /home/runner/work/Dynamic-Icon-Change/Dynamic-Icon-Change/geode-sdk-clone/loader/include/Geode/loader/Mod.hpp
FILE 30 /home/runner/work/Dynamic-Icon-Change/Dynamic-Icon-Change/geode-sdk-clone/loader/include/Geode/platform/platform.hpp
FILE 31 /home/runner/work/Dynamic-Icon-Change/Dynamic-Icon-Change/src/DynamicIconChange.hpp
FILE 32 /home/runner/work/Dynamic-Icon-Change/Dynamic-Icon-Change/src/IconManager.hpp
FILE 33 /home/runner/work/Dynamic-Icon-Change/Dynamic-Icon-Change/geode-sdk-clone/entry.cpp
FILE 34 /home/runner/work/Dynamic-Icon-Change/Dynamic-Icon-Change/build/bindings/bindings/Geode/GeneratedSource.cpp
PUBLIC 4340 0 __on_dlclose
PUBLIC 4350 0 __emutls_unregister_key
PUBLIC 4354 0 __on_dlclose_late
PUBLIC 4358 0 __atexit_handler_wrapper
PUBLIC 4364 0 atexit
PUBLIC 4384 0 pthread_atfork
FUNC 4394 2f4 0 __cxx_global_var_init.2
43b4 2d4 446 13
FUNC 4688 1c 0 geode::modifier::ModifyBase<geode::modifier::ModifyDerive<MyPlayLayer, PlayLayer> >::~ModifyBase()
4688 1c 200 13
FUNC 46a4 2f4 0 __cxx_global_var_init.3
46c4 2d4 446 13
FUNC 4998 1c 0 geode::modifier::ModifyBase<geode::modifier::ModifyDerive<MyPlayerObject, PlayerObject> >::~ModifyBase()
4998 1c 200 13
FUNC 49b4 2f4 0 __cxx_global_var_init.4
49d4 2d4 446 13
FUNC 4ca8 1c 0 geode::modifier::ModifyBase<geode::modifier::ModifyDerive<MyPauseLayer, PauseLayer> >::~ModifyBase()
4ca8 1c 200 13
FUNC 4cc4 2f4 0 __cxx_global_var_init.5
4ce4 2d4 446 13
FUNC 4fb8 1c 0 geode::modifier::ModifyBase<geode::modifier::ModifyDerive<MyLevelEditorLayer, LevelEditorLayer> >::~ModifyBase()
4fb8 1c 200 13
FUNC 4fd4 2f4 0 __cxx_global_var_init.6
4ff4 2d4 446 13
FUNC 52c8 1c 0 geode::modifier::ModifyBase<geode::modifier::ModifyDerive<MyAppDelegate, AppDelegate> >::~ModifyBase()
52c8 1c 200 13
FUNC 52e4 90 0 geode::EventListener<geode::SettingChangedFilterV3>::EventListener(std::__ndk1::function<void (std::__ndk1::shared_ptr<geode::SettingV3>)>, geode::SettingChangedFilterV3)
52e4 c 158 14
52f0 8 157 14
52f8 8 158 14
5300 2 156 14
5302 2 158 14
5304 2c 157 14
5330 2 159 14
5332 6 160 14
5338 3c 161 14
FUNC 5374 3a 0 geode::SettingChangedFilterV3::~SettingChangedFilterV3()
5374 3a 651 15
FUNC 53ae 4 0 std::__ndk1::__function::__func<geode::listenForSettingChangesV3<bool, geodeExecFunction20<(anonymous namespace)::ExecFuncUnique20>()::{lambda(bool)#1}>(std::__ndk1::basic_string_view<char, std::__ndk1::char_traits<char> >, geodeExecFunction20<(anonymous namespace)::ExecFuncUnique20>()::{lambda(bool)#1}&&, geode::Mod*)::{lambda(std::__ndk1::shared_ptr<geode::SettingV3>)#1}, std::__ndk1::allocator<geode::listenForSettingChangesV3<bool, geodeExecFunction20<(anonymous namespace)::ExecFuncUnique20>()::{lambda(bool)#1}>(std::__ndk1::basic_string_view<char, std::__ndk1::char_traits<char> >, geodeExecFunction20<(anonymous namespace)::ExecFuncUnique20>()::{lambda(bool)#1}&&, geode::Mod*)::{lambda(std::__ndk1::shared_ptr<geode::SettingV3>)#1}>, void (std::__ndk1::shared_ptr<geode::SettingV3>)>::~__func()
53ae 4 250 16
FUNC 53b4 20 0 std::__ndk1::__function::__func<geode::listenForSettingChangesV3<bool, geodeExecFunction20<(anonymous namespace)::ExecFuncUnique20>()::{lambda(bool)#1}>(std::__ndk1::basic_string_view<char, std::__ndk1::char_traits<char> >, geodeExecFunction20<(anonymous namespace)::ExecFuncUnique20>()::{lambda(bool)#1}&&, geode::Mod*)::{lambda(std::__ndk1::shared_ptr<geode::SettingV3>)#1}, std::__ndk1::allocator<geode::listenForSettingChangesV3<bool, geodeExecFunction20<(anonymous namespace)::ExecFuncUnique20>()::{lambda(bool)#1}>(std::__ndk1::basic_string_view<char, std::__ndk1::char_traits<char> >, geodeExecFunction20<(anonymous namespace)::ExecFuncUnique20>()::{lambda(bool)#1}&&, geode::Mod*)::{lambda(std::__ndk1::shared_ptr<geode::SettingV3>)#1}>, void (std::__ndk1::shared_ptr<geode::SettingV3>)>::__clone() const
53b4 6 277 16
53ba 6 282 16
53c0 c 283 16
53cc 8 285 16
FUNC 53d4 14 0 std::__ndk1::__function::__func<geode::listenForSettingChangesV3<bool, geodeExecFunction20<(anonymous namespace)::ExecFuncUnique20>()::{lambda(bool)#1}>(std::__ndk1::basic_string_view<char, std::__ndk1::char_traits<char> >, geodeExecFunction20<(anonymous namespace)::ExecFuncUnique20>()::{lambda(bool)#1}&&, geode::Mod*)::{lambda(std::__ndk1::shared_ptr<geode::SettingV3>)#1}, std::__ndk1::allocator<geode::listenForSettingChangesV3<bool, geodeExecFunction20<(anonymous namespace)::ExecFuncUnique20>()::{lambda(bool)#1}>(std::__ndk1::basic_string_view<char, std::__ndk1::char_traits<char> >, geodeExecFunction20<(anonymous namespace)::ExecFuncUnique20>()::{lambda(bool)#1}&&, geode::Mod*)::{lambda(std::__ndk1::shared_ptr<geode::SettingV3>)#1}>, void (std::__ndk1::shared_ptr<geode::SettingV3>)>::__clone(std::__ndk1::__function::__base<void (std::__ndk1::shared_ptr<geode::SettingV3>)>*) const
53d4 c 289 16
53e0 8 290 16
FUNC 53e8 2 0 std::__ndk1::__function::__func<geode::listenForSettingChangesV3<bool, geodeExecFunction20<(anonymous namespace)::ExecFuncUnique20>()::{lambda(bool)#1}>(std::__ndk1::basic_string_view<char, std::__ndk1::char_traits<char> >, geodeExecFunction20<(anonymous namespace)::ExecFuncUnique20>()::{lambda(bool)#1}&&, geode::Mod*)::{lambda(std::__ndk1::shared_ptr<geode::SettingV3>)#1}, std::__ndk1::allocator<geode::listenForSettingChangesV3<bool, geodeExecFunction20<(anonymous namespace)::ExecFuncUnique20>()::{lambda(bool)#1}>(std::__ndk1::basic_string_view<char, std::__ndk1::char_traits<char> >, geodeExecFunction20<(anonymous namespace)::ExecFuncUnique20>()::{lambda(bool)#1}&&, geode::Mod*)::{lambda(std::__ndk1::shared_ptr<geode::SettingV3>)#1}>, void (std::__ndk1::shared_ptr<geode::SettingV3>)>::destroy()
53e8 2 295 16
FUNC 53ea 4 0 std::__ndk1::__function::__func<geode::listenForSettingChangesV3<bool, geodeExecFunction20<(anonymous namespace)::ExecFuncUnique20>()::{lambda(bool)#1}>(std::__ndk1::basic_string_view<char, std::__ndk1::char_traits<char> >, geodeExecFunction20<(anonymous namespace)::ExecFuncUnique20>()::{lambda(bool)#1}&&, geode::Mod*)::{lambda(std::__ndk1::shared_ptr<geode::SettingV3>)#1}, std::__ndk1::allocator<geode::listenForSettingChangesV3<bool, geodeExecFunction20<(anonymous namespace)::ExecFuncUnique20>()::{lambda(bool)#1}>(std::__ndk1::basic_string_view<char, std::__ndk1::char_traits<char> >, geodeExecFunction20<(anonymous namespace)::ExecFuncUnique20>()::{lambda(bool)#1}&&, geode::Mod*)::{lambda(std::__ndk1::shared_ptr<geode::SettingV3>)#1}>, void (std::__ndk1::shared_ptr<geode::SettingV3>)>::destroy_deallocate()
53ea 4 303 16
FUNC 53f0 b4 0 std::__ndk1::__function::__func<geode::listenForSettingChangesV3<bool, geodeExecFunction20<(anonymous namespace)::ExecFuncUnique20>()::{lambda(bool)#1}>(std::__ndk1::basic_string_view<char, std::__ndk1::char_traits<char> >, geodeExecFunction20<(anonymous namespace)::ExecFuncUnique20>()::{lambda(bool)#1}&&, geode::Mod*)::{lambda(std::__ndk1::shared_ptr<geode::SettingV3>)#1}, std::__ndk1::allocator<geode::listenForSettingChangesV3<bool, geodeExecFunction20<(anonymous namespace)::ExecFuncUnique20>()::{lambda(bool)#1}>(std::__ndk1::basic_string_view<char, std::__ndk1::char_traits<char> >, geodeExecFunction20<(anonymous namespace)::ExecFuncUnique20>()::{lambda(bool)#1}&&, geode::Mod*)::{lambda(std::__ndk1::shared_ptr<geode::SettingV3>)#1}>, void (std::__ndk1::shared_ptr<geode::SettingV3>)>::operator()(std::__ndk1::shared_ptr<geode::SettingV3>&&)
53f0 4 307 16
53f4 b0 308 16
FUNC 54a4 18 0 std::__ndk1::__function::__func<geode::listenForSettingChangesV3<bool, geodeExecFunction20<(anonymous namespace)::ExecFuncUnique20>()::{lambda(bool)#1}>(std::__ndk1::basic_string_view<char, std::__ndk1::char_traits<char> >, geodeExecFunction20<(anonymous namespace)::ExecFuncUnique20>()::{lambda(bool)#1}&&, geode::Mod*)::{lambda(std::__ndk1::shared_ptr<geode::SettingV3>)#1}, std::__ndk1::allocator<geode::listenForSettingChangesV3<bool, geodeExecFunction20<(anonymous namespace)::ExecFuncUnique20>()::{lambda(bool)#1}>(std::__ndk1::basic_string_view<char, std::__ndk1::char_traits<char> >, geodeExecFunction20<(anonymous namespace)::ExecFuncUnique20>()::{lambda(bool)#1}&&, geode::Mod*)::{lambda(std::__ndk1::shared_ptr<geode::SettingV3>)#1}>, void (std::__ndk1::shared_ptr<geode::SettingV3>)>::target(std::type_info const&) const
54a4 e 315 16
54b2 a 318 16
FUNC 54bc c 0 std::__ndk1::__function::__func<geode::listenForSettingChangesV3<bool, geodeExecFunction20<(anonymous namespace)::ExecFuncUnique20>()::{lambda(bool)#1}>(std::__ndk1::basic_string_view<char, std::__ndk1::char_traits<char> >, geodeExecFunction20<(anonymous namespace)::ExecFuncUnique20>()::{lambda(bool)#1}&&, geode::Mod*)::{lambda(std::__ndk1::shared_ptr<geode::SettingV3>)#1}, std::__ndk1::allocator<geode::listenForSettingChangesV3<bool, geodeExecFunction20<(anonymous namespace)::ExecFuncUnique20>()::{lambda(bool)#1}>(std::__ndk1::basic_string_view<char, std::__ndk1::char_traits<char> >, geodeExecFunction20<(anonymous namespace)::ExecFuncUnique20>()::{lambda(bool)#1}&&, geode::Mod*)::{lambda(std::__ndk1::shared_ptr<geode::SettingV3>)#1}>, void (std::__ndk1::shared_ptr<geode::SettingV3>)>::target_type() const
54bc c 322 16
FUNC 54c8 28 0 std::__throw_bad_array_new_length([abi:ne180000], void)
54c8 4 172 7
54cc 24 174 7
PUBLIC 54f1 0 __clang_call_terminate
FUNC 54fc 8c 0 geode::cast::traverseTypeinfoFor(void*, geode::cast::ClassTypeinfoType const*, char const*)
54fc a 57 1
5506 4 59 1
550a e 60 1
5518 2 64 1
551a 2 65 1
551c 6 64 1
5522 8 65 1
552a 2 67 1
552c 2 60 1
552e 2 59 1
5530 a 60 1
553a 6 80 1
5540 e 69 1
554e 6 80 1
5554 8 71 1
555c 4 73 1
5560 6 74 1
5566 4 73 1
556a 6 74 1
5570 a 71 1
557a e 80 1
FUNC 5588 10 0 std::__ndk1::basic_string<char, std::__ndk1::char_traits<char>, std::__ndk1::allocator<char> >::__throw_length_error[abi:ne180000]() const
5588 4 2118 17
558c c 2119 17
FUNC 5598 38 0 std::__ndk1::__throw_length_error[abi:ne180000](char const*)
5598 6 239 3
559e 32 241 3
FUNC 55d0 18 0 std::length_error::length_error[abi:ne180000](char const*)
55d0 18 152 3
FUNC 55e8 4 0 geode::EventListener<geode::SettingChangedFilterV3>::getPool() const
55e8 4 148 14
FUNC 55ec e4 0 geode::EventListener<geode::SettingChangedFilterV3>::handle(geode::Event*)
55ec e 138 14
55fa 22 139 14
561c e 145 14
562a 1c 140 14
5646 8a 141 14
FUNC 56d0 68 0 geode::EventListener<geode::SettingChangedFilterV3>::~EventListener()
56d0 68 131 14
FUNC 5738 6c 0 geode::EventListener<geode::SettingChangedFilterV3>::~EventListener()
5738 6c 131 14
FUNC 57a4 2 0 std::__ndk1::__function::__base<void (std::__ndk1::shared_ptr<geode::SettingV3>)>::~__base()
57a4 2 235 16
FUNC 57a6 4 0 std::__ndk1::__function::__func<geode::listenForSettingChangesV3<bool, geodeExecFunction20<(anonymous namespace)::ExecFuncUnique20>()::{lambda(bool)#2}>(std::__ndk1::basic_string_view<char, std::__ndk1::char_traits<char> >, geodeExecFunction20<(anonymous namespace)::ExecFuncUnique20>()::{lambda(bool)#2}&&, geode::Mod*)::{lambda(std::__ndk1::shared_ptr<geode::SettingV3>)#1}, std::__ndk1::allocator<geode::listenForSettingChangesV3<bool, geodeExecFunction20<(anonymous namespace)::ExecFuncUnique20>()::{lambda(bool)#2}>(std::__ndk1::basic_string_view<char, std::__ndk1::char_traits<char> >, geodeExecFunction20<(anonymous namespace)::ExecFuncUnique20>()::{lambda(bool)#2}&&, geode::Mod*)::{lambda(std::__ndk1::shared_ptr<geode::SettingV3>)#1}>, void (std::__ndk1::shared_ptr<geode::SettingV3>)>::~__func()
57a6 4 250 16
FUNC 57ac 20 0 std::__ndk1::__function::__func<geode::listenForSettingChangesV3<bool, geodeExecFunction20<(anonymous namespace)::ExecFuncUnique20>()::{lambda(bool)#2}>(std::__ndk1::basic_string_view<char, std::__ndk1::char_traits<char> >, geodeExecFunction20<(anonymous namespace)::ExecFuncUnique20>()::{lambda(bool)#2}&&, geode::Mod*)::{lambda(std::__ndk1::shared_ptr<geode::SettingV3>)#1}, std::__ndk1::allocator<geode::listenForSettingChangesV3<bool, geodeExecFunction20<(anonymous namespace)::ExecFuncUnique20>()::{lambda(bool)#2}>(std::__ndk1::basic_string_view<char, std::__ndk1::char_traits<char> >, geodeExecFunction20<(anonymous namespace)::ExecFuncUnique20>()::{lambda(bool)#2}&&, geode::Mod*)::{lambda(std::__ndk1::shared_ptr<geode::SettingV3>)#1}>, void (std::__ndk1::shared_ptr<geode::SettingV3>)>::__clone() const
57ac 6 277 16
57b2 6 282 16
57b8 c 283 16
57c4 8 285 16
FUNC 57cc 14 0 std::__ndk1::__function::__func<geode::listenForSettingChangesV3<bool, geodeExecFunction20<(anonymous namespace)::ExecFuncUnique20>()::{lambda(bool)#2}>(std::__ndk1::basic_string_view<char, std::__ndk1::char_traits<char> >, geodeExecFunction20<(anonymous namespace)::ExecFuncUnique20>()::{lambda(bool)#2}&&, geode::Mod*)::{lambda(std::__ndk1::shared_ptr<geode::SettingV3>)#1}, std::__ndk1::allocator<geode::listenForSettingChangesV3<bool, geodeExecFunction20<(anonymous namespace)::ExecFuncUnique20>()::{lambda(bool)#2}>(std::__ndk1::basic_string_view<char, std::__ndk1::char_traits<char> >, geodeExecFunction20<(anonymous namespace)::ExecFuncUnique20>()::{lambda(bool)#2}&&, geode::Mod*)::{lambda(std::__ndk1::shared_ptr<geode::SettingV3>)#1}>, void (std::__ndk1::shared_ptr<geode::SettingV3>)>::__clone(std::__ndk1::__function::__base<void (std::__ndk1::shared_ptr<geode::SettingV3>)>*) const
57cc c 289 16
57d8 8 290 16
FUNC 57e0 2 0 std::__ndk1::__function::__func<geode::listenForSettingChangesV3<bool, geodeExecFunction20<(anonymous namespace)::ExecFuncUnique20>()::{lambda(bool)#2}>(std::__ndk1::basic_string_view<char, std::__ndk1::char_traits<char> >, geodeExecFunction20<(anonymous namespace)::ExecFuncUnique20>()::{lambda(bool)#2}&&, geode::Mod*)::{lambda(std::__ndk1::shared_ptr<geode::SettingV3>)#1}, std::__ndk1::allocator<geode::listenForSettingChangesV3<bool, geodeExecFunction20<(anonymous namespace)::ExecFuncUnique20>()::{lambda(bool)#2}>(std::__ndk1::basic_string_view<char, std::__ndk1::char_traits<char> >, geodeExecFunction20<(anonymous namespace)::ExecFuncUnique20>()::{lambda(bool)#2}&&, geode::Mod*)::{lambda(std::__ndk1::shared_ptr<geode::SettingV3>)#1}>, void (std::__ndk1::shared_ptr<geode::SettingV3>)>::destroy()
57e0 2 295 16
FUNC 57e2 4 0 std::__ndk1::__function::__func<geode::listenForSettingChangesV3<bool, geodeExecFunction20<(anonymous namespace)::ExecFuncUnique20>()::{lambda(bool)#2}>(std::__ndk1::basic_string_view<char, std::__ndk1::char_traits<char> >, geodeExecFunction20<(anonymous namespace)::ExecFuncUnique20>()::{lambda(bool)#2}&&, geode::Mod*)::{lambda(std::__ndk1::shared_ptr<geode::SettingV3>)#1}, std::__ndk1::allocator<geode::listenForSettingChangesV3<bool, geodeExecFunction20<(anonymous namespace)::ExecFuncUnique20>()::{lambda(bool)#2}>(std::__ndk1::basic_string_view<char, std::__ndk1::char_traits<char> >, geodeExecFunction20<(anonymous namespace)::ExecFuncUnique20>()::{lambda(bool)#2}&&, geode::Mod*)::{lambda(std::__ndk1::shared_ptr<geode::SettingV3>)#1}>, void (std::__ndk1::shared_ptr<geode::SettingV3>)>::destroy_deallocate()
57e2 4 303 16
FUNC 57e8 b0 0 std::__ndk1::__function::__func<geode::listenForSettingChangesV3<bool, geodeExecFunction20<(anonymous namespace)::ExecFuncUnique20>()::{lambda(bool)#2}>(std::__ndk1::basic_string_view<char, std::__ndk1::char_traits<char> >, geodeExecFunction20<(anonymous namespace)::ExecFuncUnique20>()::{lambda(bool)#2}&&, geode::Mod*)::{lambda(std::__ndk1::shared_ptr<geode::SettingV3>)#1}, std::__ndk1::allocator<geode::listenForSettingChangesV3<bool, geodeExecFunction20<(anonymous namespace)::ExecFuncUnique20>()::{lambda(bool)#2}>(std::__ndk1::basic_string_view<char, std::__ndk1::char_traits<char> >, geodeExecFunction20<(anonymous namespace)::ExecFuncUnique20>()::{lambda(bool)#2}&&, geode::Mod*)::{lambda(std::__ndk1::shared_ptr<geode::SettingV3>)#1}>, void (std::__ndk1::shared_ptr<geode::SettingV3>)>::operator()(std::__ndk1::shared_ptr<geode::SettingV3>&&)
57e8 4 307 16
57ec ac 308 16
FUNC 5898 18 0 std::__ndk1::__function::__func<geode::listenForSettingChangesV3<bool, geodeExecFunction20<(anonymous namespace)::ExecFuncUnique20>()::{lambda(bool)#2}>(std::__ndk1::basic_string_view<char, std::__ndk1::char_traits<char> >, geodeExecFunction20<(anonymous namespace)::ExecFuncUnique20>()::{lambda(bool)#2}&&, geode::Mod*)::{lambda(std::__ndk1::shared_ptr<geode::SettingV3>)#1}, std::__ndk1::allocator<geode::listenForSettingChangesV3<bool, geodeExecFunction20<(anonymous namespace)::ExecFuncUnique20>()::{lambda(bool)#2}>(std::__ndk1::basic_string_view<char, std::__ndk1::char_traits<char> >, geodeExecFunction20<(anonymous namespace)::ExecFuncUnique20>()::{lambda(bool)#2}&&, geode::Mod*)::{lambda(std::__ndk1::shared_ptr<geode::SettingV3>)#1}>, void (std::__ndk1::shared_ptr<geode::SettingV3>)>::target(std::type_info const&) const
5898 e 315 16
58a6 a 318 16
FUNC 58b0 c 0 std::__ndk1::__function::__func<geode::listenForSettingChangesV3<bool, geodeExecFunction20<(anonymous namespace)::ExecFuncUnique20>()::{lambda(bool)#2}>(std::__ndk1::basic_string_view<char, std::__ndk1::char_traits<char> >, geodeExecFunction20<(anonymous namespace)::ExecFuncUnique20>()::{lambda(bool)#2}&&, geode::Mod*)::{lambda(std::__ndk1::shared_ptr<geode::SettingV3>)#1}, std::__ndk1::allocator<geode::listenForSettingChangesV3<bool, geodeExecFunction20<(anonymous namespace)::ExecFuncUnique20>()::{lambda(bool)#2}>(std::__ndk1::basic_string_view<char, std::__ndk1::char_traits<char> >, geodeExecFunction20<(anonymous namespace)::ExecFuncUnique20>()::{lambda(bool)#2}&&, geode::Mod*)::{lambda(std::__ndk1::shared_ptr<geode::SettingV3>)#1}>, void (std::__ndk1::shared_ptr<geode::SettingV3>)>::target_type() const
58b0 c 322 16
FUNC 58c0 5b8 0 geode::modifier::ModifyDerive<MyPlayLayer, PlayLayer>::apply()
58c0 12 1276 8
58d2 27e 1341 8
5b50 202 1350 8
5d52 16 1408 8
5d68 26 1341 8
5d8e 32 1350 8
5dc0 c 1341 8
5dcc 4 1350 8
5dd0 a8 1341 8
FUNC 5e78 3a 0 std::__ndk1::shared_ptr<geode::Hook>::~shared_ptr[abi:ne180000]()
5e78 4 643 18
5e7c 4 644 18
5e80 1a 645 18
5e9a 4 646 18
5e9e 12 645 18
5eb0 2 646 18
FUNC 5eb4 60 0 geode::impl::ResultData<geode::Hook*, std::__ndk1::basic_string<char, std::__ndk1::char_traits<char>, std::__ndk1::allocator<char> > >::~ResultData()
5eb4 60 422 19
FUNC 5f14 3e 0 std::__ndk1::vector<std::__ndk1::basic_string<char, std::__ndk1::char_traits<char>, std::__ndk1::allocator<char> >, std::__ndk1::allocator<std::__ndk1::basic_string<char, std::__ndk1::char_traits<char>, std::__ndk1::allocator<char> > > >::~vector[abi:ne180000]()
5f14 3e 501 20
FUNC 5f52 2 0 geode::modifier::ModifyBase<geode::modifier::ModifyDerive<MyPlayLayer, PlayLayer> >::apply()
5f52 2 416 13
FUNC 5f54 f8 0 _ZN5geode15UnwrapExceptionC2IRPNS_4HookEQsr4implE18IsStringStreamableIT_EEENS_4impl5OkTagEOS5_
5f54 1a 404 19
5f6e 2c 403 19
5f9a 5a 402 19
5ff4 24 404 19
6018 34 402 19
FUNC 604c 34 0 std::__ndk1::__throw_bad_variant_access[abi:ne180000]()
604c 4 285 4
6050 30 287 4
FUNC 6080 d8 0 std::__ndk1::basic_stringstream<char, std::__ndk1::char_traits<char>, std::__ndk1::allocator<char> >::basic_stringstream[abi:ne180000]()
6080 d8 1010 21
FUNC 6158 68 0 std::__ndk1::basic_stringstream<char, std::__ndk1::char_traits<char>, std::__ndk1::allocator<char> >::~basic_stringstream()
6158 68 1102 21
FUNC 61c0 10 0 geode::UnwrapException::~UnwrapException()
61c0 10 413 19
FUNC 61d0 108 0 std::__ndk1::__put_character_sequence[abi:ne180000]<char, std::__ndk1::char_traits<char> >(std::__ndk1::basic_ostream<char, std::__ndk1::char_traits<char> >, std::__ndk1::basic_ostream const*, unsigned int)
61d0 1c 665 2
61ec 6 669 2
61f2 6 670 2
61f8 c 673 2
6204 2 678 2
6206 4 675 2
620a 4 673 2
620e 2a 678 2
6238 2 672 2
623a 4 675 2
623e 4 672 2
6242 8 675 2
624a 4 672 2
624e 4 675 2
6252 6 672 2
6258 16 680 2
626e 10 683 2
627e 16 687 2
6294 a 678 2
629e e 683 2
62ac e 684 2
62ba 1e 685 2
FUNC 62d8 110 0 std::__ndk1::__pad_and_output[abi:ne180000]<char, std::__ndk1::char_traits<char> >(std::__ndk1::char_traits<char>, std::__ndk1::ostreambuf_iterator const*, std::__ndk1::ostreambuf_iterator const, std::__ndk1::ostreambuf_iterator const, std::__ndk1::ios_base&, std::__ndk1::ostreambuf_iterator)
62d8 10 1246 5
62e8 12 1247 5
62fa 2 1249 5
62fc 6 1255 5
6302 4 1250 5
6306 6 1251 5
630c 4 1256 5
6310 e 1257 5
631e a 1262 5
6328 3a 1263 5
6362 2 1264 5
6364 2 1263 5
6366 18 1264 5
637e 12 1268 5
6390 4 1269 5
6394 4 1270 5
6398 12 1271 5
63aa 14 1276 5
63be 10 1278 5
63ce 1a 1268 5
FUNC 63e8 ce 0 std::__ndk1::basic_stringbuf<char, std::__ndk1::char_traits<char>, std::__ndk1::allocator<char> >::str[abi:ne180000]() &&
63e8 a 396 21
63f2 2a 397 21
641c 1e 398 21
643a 8 402 21
6442 4 401 21
6446 42 402 21
6488 12 403 21
649a 6 404 21
64a0 16 406 21
FUNC 64b6 e0 0 std::__ndk1::basic_stringbuf<char, std::__ndk1::char_traits<char>, std::__ndk1::allocator<char> >::__init_buf_ptrs[abi:ne180000]()
64b6 8 626 21
64be c 628 21
64ca 4 629 21
64ce 2 630 21
64d0 2 628 21
64d2 2 627 21
64d4 4 628 21
64d8 8 629 21
64e0 4 628 21
64e4 2 630 21
64e6 6 631 21
64ec 6 632 21
64f2 2 631 21
64f4 4 634 21
64f8 2 636 21
64fa 6 635 21
6500 42 636 21
6542 4 637 21
6546 4 638 21
654a c 637 21
6556 2 638 21
6558 4 637 21
655c 2 638 21
655e 6 639 21
6564 6 643 21
656a 6 647 21
6570 c 641 21
657c e 639 21
658a 6 644 21
6590 6 647 21
FUNC 6598 160 0 std::__ndk1::vector<std::__ndk1::basic_string<char, std::__ndk1::char_traits<char>, std::__ndk1::allocator<char> >, std::__ndk1::allocator<std::__ndk1::basic_string<char, std::__ndk1::char_traits<char>, std::__ndk1::allocator<char> > > >::__push_back_slow_path<std::__ndk1::basic_string<char, std::__ndk1::char_traits<char>, std::__ndk1::allocator<char> > const&>(std::__ndk1::basic_string<char, std::__ndk1::char_traits<char>, std::__ndk1::allocator<char> > const&)
6598 20 1449 20
65b8 5c 1451 20
6614 4 1453 20
6618 12 1451 20
662a 2 1453 20
662c 2 1451 20
662e 1c 1453 20
664a 8 1455 20
6652 4 1454 20
6656 30 1455 20
6686 2 1457 20
6688 12 1455 20
669a 44 1457 20
66de a 1451 20
66e8 10 1457 20
FUNC 66f8 46 0 std::__ndk1::basic_string<char, std::__ndk1::char_traits<char>, std::__ndk1::allocator<char> >::__init_copy_ctor_external(char const*, unsigned int)
66f8 a 2232 17
6702 4 2237 17
6706 a 2239 17
6710 6 2241 17
6716 c 2243 17
6722 8 2247 17
672a 2 2246 17
672c 6 2250 17
6732 6 2252 17
6738 6 2242 17
FUNC 673e 3c 0 std::__ndk1::__split_buffer<std::__ndk1::basic_string<char, std::__ndk1::char_traits<char>, std::__ndk1::allocator<char> >, std::__ndk1::allocator<std::__ndk1::basic_string<char, std::__ndk1::char_traits<char>, std::__ndk1::allocator<char> > >&>::~__split_buffer()
673e 6 352 22
6744 8 353 22
674c 4 354 22
6750 6 355 22
6756 4 356 22
675a 20 353 22
FUNC 677c 10 0 std::__ndk1::vector<std::__ndk1::basic_string<char, std::__ndk1::char_traits<char>, std::__ndk1::allocator<char> >, std::__ndk1::allocator<std::__ndk1::basic_string<char, std::__ndk1::char_traits<char>, std::__ndk1::allocator<char> > > >::__throw_length_error[abi:ne180000]() const
677c 10 940 20
FUNC 678c 2 0 std::__ndk1::__variant_detail::__visitation::__base::__dispatcher<(unsigned int)0>::__dispatch[abi:ne180000]<std::__ndk1::__variant_detail::__dtor<std::__ndk1::__variant_detail::__traits<geode::Hook*, std::__ndk1::basic_string<char, std::__ndk1::char_traits<char>, std::__ndk1::allocator<char> > >, (std::__ndk1::__variant_detail::_Trait)1>::__destroy[abi:ne180000]()::{lambda(auto:1&)#1}, std::__ndk1::__variant_detail::__base<(std::__ndk1::__variant_detail::__traits<geode::Hook*, std::__ndk1::basic_string<char, std::__ndk1::char_traits<char>, std::__ndk1::allocator<char> > >)1, geode::Hook, std::__ndk1::allocator<char> >&>(std::__ndk1::__variant_detail::__dtor<std::__ndk1::__variant_detail::__traits<geode::Hook*, std::__ndk1::basic_string<char, std::__ndk1::char_traits<char>, std::__ndk1::allocator<char> > >, (std::__ndk1::__variant_detail::_Trait)1>, std::__ndk1::__variant_detail::__base<(std::__ndk1::__variant_detail::__traits<geode::Hook*, std::__ndk1::basic_string<char, std::__ndk1::char_traits<char>, std::__ndk1::allocator<char> > >)1, geode::Hook, std::__ndk1::allocator<char> >&)
678c 2 526 4
FUNC 678e e 0 std::__ndk1::__variant_detail::__visitation::__base::__dispatcher<(unsigned int)1>::__dispatch[abi:ne180000]<std::__ndk1::__variant_detail::__dtor<std::__ndk1::__variant_detail::__traits<geode::Hook*, std::__ndk1::basic_string<char, std::__ndk1::char_traits<char>, std::__ndk1::allocator<char> > >, (std::__ndk1::__variant_detail::_Trait)1>::__destroy[abi:ne180000]()::{lambda(auto:1&)#1}, std::__ndk1::__variant_detail::__base<(std::__ndk1::__variant_detail::__traits<geode::Hook*, std::__ndk1::basic_string<char, std::__ndk1::char_traits<char>, std::__ndk1::allocator<char> > >)1, geode::Hook, std::__ndk1::allocator<char> >&>(std::__ndk1::__variant_detail::__dtor<std::__ndk1::__variant_detail::__traits<geode::Hook*, std::__ndk1::basic_string<char, std::__ndk1::char_traits<char>, std::__ndk1::allocator<char> > >, (std::__ndk1::__variant_detail::_Trait)1>, std::__ndk1::__variant_detail::__base<(std::__ndk1::__variant_detail::__traits<geode::Hook*, std::__ndk1::basic_string<char, std::__ndk1::char_traits<char>, std::__ndk1::allocator<char> > >)1, geode::Hook, std::__ndk1::allocator<char> >&)
678e e 526 4
FUNC 679c c0 0 std::__ndk1::__tree<std::__ndk1::__value_type<std::__ndk1::basic_string<char, std::__ndk1::char_traits<char>, std::__ndk1::allocator<char> >, std::__ndk1::shared_ptr<geode::Hook> >, std::__ndk1::__map_value_compare<std::__ndk1::basic_string<char, std::__ndk1::char_traits<char>, std::__ndk1::allocator<char> >, std::__ndk1::__value_type<std::__ndk1::basic_string<char, std::__ndk1::char_traits<char>, std::__ndk1::allocator<char> >, std::__ndk1::shared_ptr<geode::Hook> >, std::__ndk1::less<std::__ndk1::basic_string<char, std::__ndk1::char_traits<char>, std::__ndk1::allocator<char> > >, true>, std::__ndk1::allocator<std::__ndk1::__value_type<std::__ndk1::basic_string<char, std::__ndk1::char_traits<char>, std::__ndk1::allocator<char> >, std::__ndk1::shared_ptr<geode::Hook> > > >::find<std::__ndk1::basic_string<char, std::__ndk1::char_traits<char>, std::__ndk1::allocator<char> > >(std::__ndk1::basic_string<char, std::__ndk1::char_traits<char>, std::__ndk1::allocator<char> > const&)
679c a 2087 6
67a6 6c 2088 6
6812 42 2089 6
6854 8 2092 6
FUNC 685c 2ba 0 std::__ndk1::__tree<std::__ndk1::__value_type<std::__ndk1::basic_string<char, std::__ndk1::char_traits<char>, std::__ndk1::allocator<char> >, std::__ndk1::shared_ptr<geode::Hook> >, std::__ndk1::__map_value_compare<std::__ndk1::basic_string<char, std::__ndk1::char_traits<char>, std::__ndk1::allocator<char> >, std::__ndk1::__value_type<std::__ndk1::basic_string<char, std::__ndk1::char_traits<char>, std::__ndk1::allocator<char> >, std::__ndk1::shared_ptr<geode::Hook> >, std::__ndk1::less<std::__ndk1::basic_string<char, std::__ndk1::char_traits<char>, std::__ndk1::allocator<char> > >, true>, std::__ndk1::allocator<std::__ndk1::__value_type<std::__ndk1::basic_string<char, std::__ndk1::char_traits<char>, std::__ndk1::allocator<char> >, std::__ndk1::shared_ptr<geode::Hook> > > >::erase(std::__ndk1::__tree_const_iterator<std::__ndk1::__value_type<std::__ndk1::basic_string<char, std::__ndk1::char_traits<char>, std::__ndk1::allocator<char> >, std::__ndk1::shared_ptr<geode::Hook> >, std::__ndk1::__tree_node<std::__ndk1::__value_type<std::__ndk1::basic_string<char, std::__ndk1::char_traits<char>, std::__ndk1::allocator<char> >, std::__ndk1::shared_ptr<geode::Hook> >, void*>*, int>)
685c 8 2046 6
6864 b4 2048 6
6918 3e 2050 6
6956 e 2051 6
6964 1b2 2048 6
FUNC 6b16 5a 0 std::__ndk1::__tree<std::__ndk1::__value_type<std::__ndk1::basic_string<char, std::__ndk1::char_traits<char>, std::__ndk1::allocator<char> >, std::__ndk1::shared_ptr<geode::Hook> >, std::__ndk1::__map_value_compare<std::__ndk1::basic_string<char, std::__ndk1::char_traits<char>, std::__ndk1::allocator<char> >, std::__ndk1::__value_type<std::__ndk1::basic_string<char, std::__ndk1::char_traits<char>, std::__ndk1::allocator<char> >, std::__ndk1::shared_ptr<geode::Hook> >, std::__ndk1::less<std::__ndk1::basic_string<char, std::__ndk1::char_traits<char>, std::__ndk1::allocator<char> > >, true>, std::__ndk1::allocator<std::__ndk1::__value_type<std::__ndk1::basic_string<char, std::__ndk1::char_traits<char>, std::__ndk1::allocator<char> >, std::__ndk1::shared_ptr<geode::Hook> > > >::destroy(std::__ndk1::__tree_node<std::__ndk1::__value_type<std::__ndk1::basic_string<char, std::__ndk1::char_traits<char>, std::__ndk1::allocator<char> >, std::__ndk1::shared_ptr<geode::Hook> >, void*>*)
6b16 2 1544 6
6b18 a 1551 6
6b22 6 1545 6
6b28 6 1546 6
6b2e 38 1548 6
6b66 a 1549 6
FUNC 6b70 4c 0 geode::modifier::AsStaticFunction_init<MyPlayLayer, bool (MyPlayLayer::*)(GJGameLevel*, bool, bool)>::Impl<bool (MyPlayLayer::*)(GJGameLevel*, bool, bool)>::function(MyPlayLayer*, GJGameLevel*, bool, bool)
6b70 46 305 8
6bb6 6 42 23
FUNC 6bbc c8 0 geode::modifier::AsStaticFunction_onQuit<MyPlayLayer, void (MyPlayLayer::*)()>::Impl<void (MyPlayLayer::*)()>::function(MyPlayLayer*)
6bbc b2 350 8
6c6e 16 51 23
FUNC 6c84 3a 0 std::__ndk1::shared_ptr<tulip::hook::CallingConvention>::~shared_ptr[abi:ne180000]()
6c84 4 643 18
6c88 4 644 18
6c8c 1a 645 18
6ca6 4 646 18
6caa 12 645 18
6cbc 2 646 18
FUNC 6cbe 46 0 tulip::hook::HandlerMetadata::~HandlerMetadata()
6cbe 46 12 24
FUNC 6d04 ba 0 std::__ndk1::__tree<std::__ndk1::__value_type<std::__ndk1::basic_string<char, std::__ndk1::char_traits<char>, std::__ndk1::allocator<char> >, std::__ndk1::shared_ptr<geode::Hook> >, std::__ndk1::__map_value_compare<std::__ndk1::basic_string<char, std::__ndk1::char_traits<char>, std::__ndk1::allocator<char> >, std::__ndk1::__value_type<std::__ndk1::basic_string<char, std::__ndk1::char_traits<char>, std::__ndk1::allocator<char> >, std::__ndk1::shared_ptr<geode::Hook> >, std::__ndk1::less<std::__ndk1::basic_string<char, std::__ndk1::char_traits<char>, std::__ndk1::allocator<char> > >, true>, std::__ndk1::allocator<std::__ndk1::__value_type<std::__ndk1::basic_string<char, std::__ndk1::char_traits<char>, std::__ndk1::allocator<char> >, std::__ndk1::shared_ptr<geode::Hook> > > >::__find_equal<std::__ndk1::basic_string<char, std::__ndk1::char_traits<char>, std::__ndk1::allocator<char> > >(std::__ndk1::__tree_end_node<std::__ndk1::__tree_node_base<void*>*>*&, std::__ndk1::basic_string<char, std::__ndk1::char_traits<char>, std::__ndk1::allocator<char> > const&)
6d04 e 1682 6
6d12 4 1683 6
6d16 1a 1685 6
6d30 8 1688 6
6d38 44 1687 6
6d7c 26 1695 6
6da2 12 1696 6
6db4 a 1711 6
FUNC 6dbe 14a 0 std::__ndk1::__tree_balance_after_insert[abi:ne180000]<std::__ndk1::__tree_node_base<void*>*>(std::__ndk1::__tree_node_base<void*>*, std::__ndk1::__tree_node_base<void*>*)
6dbe c 285 6
6dca 28 330 6
6df2 a 286 6
6dfc c 288 6
6e08 c 310 6
6e14 4 289 6
6e18 a 290 6
6e22 6 297 6
6e28 28 299 6
6e50 4 303 6
6e54 2 299 6
6e56 6 305 6
6e5c a 317 6
6e66 22 319 6
6e88 4 323 6
6e8c 2 319 6
6e8e 6 325 6
6e94 4 322 6
6e98 4 324 6
6e9c 2e 325 6
6eca 6 330 6
6ed0 4 302 6
6ed4 2 305 6
6ed6 4 304 6
6eda 2c 305 6
6f06 2 330 6
FUNC 6f08 10d8 0 geode::modifier::ModifyDerive<MyPlayerObject, PlayerObject>::apply()
6f08 c 2176 9
6f14 1b4 2339 9
70c8 1d8 2340 9
72a0 1aa 2341 9
744a 1de 2344 9
7628 1aa 2345 9
77d2 1e2 2346 9
79b4 1ae 2347 9
7b62 1ba 2348 9
7d1c 48 2401 9
7d64 28 2339 9
7d8c 28 2340 9
7db4 28 2341 9
7ddc 28 2344 9
7e04 28 2345 9
7e2c 26 2346 9
7e52 26 2347 9
7e78 32 2348 9
7eaa c 2347 9
7eb6 c 2346 9
7ec2 c 2345 9
7ece c 2344 9
7eda c 2341 9
7ee6 c 2340 9
7ef2 ee 2339 9
FUNC 7fe0 2 0 geode::modifier::ModifyBase<geode::modifier::ModifyDerive<MyPlayerObject, PlayerObject> >::apply()
7fe0 2 416 13
FUNC 7ff0 138 0 geode::Hook::create<void (*)(MyPlayerObject*, bool, bool)>(void*, void (*)(MyPlayerObject*, bool, bool), std::__ndk1::basic_string<char, std::__ndk1::char_traits<char>, std::__ndk1::allocator<char> > const&, tulip::hook::TulipConvention, tulip::hook::HookMetadata const&)
7ff0 10 58 25
8000 18 60 25
8018 6a 61 25
8082 12 63 25
8094 60 70 25
80f4 c 61 25
8100 28 59 25
FUNC 8128 3c 0 geode::modifier::AsStaticFunction_toggleBirdMode<MyPlayerObject, void (MyPlayerObject::*)(bool, bool)>::Impl<void (MyPlayerObject::*)(bool, bool)>::function(MyPlayerObject*, bool, bool)
8128 36 770 9
815e 6 75 23
FUNC 8164 3c 0 geode::modifier::AsStaticFunction_toggleDartMode<MyPlayerObject, void (MyPlayerObject::*)(bool, bool)>::Impl<void (MyPlayerObject::*)(bool, bool)>::function(MyPlayerObject*, bool, bool)
8164 36 775 9
819a 6 80 23
FUNC 81a0 3c 0 geode::modifier::AsStaticFunction_toggleFlyMode<MyPlayerObject, void (MyPlayerObject::*)(bool, bool)>::Impl<void (MyPlayerObject::*)(bool, bool)>::function(MyPlayerObject*, bool, bool)
81a0 36 780 9
81d6 6 65 23
FUNC 81dc 34 0 geode::modifier::AsStaticFunction_togglePlayerScale<MyPlayerObject, void (MyPlayerObject::*)(bool, bool)>::Impl<void (MyPlayerObject::*)(bool, bool)>::function(MyPlayerObject*, bool, bool)
81dc 2e 790 9
820a 6 60 23
FUNC 8210 3c 0 geode::modifier::AsStaticFunction_toggleRobotMode<MyPlayerObject, void (MyPlayerObject::*)(bool, bool)>::Impl<void (MyPlayerObject::*)(bool, bool)>::function(MyPlayerObject*, bool, bool)
8210 36 795 9
8246 6 85 23
FUNC 824c 3c 0 geode::modifier::AsStaticFunction_toggleRollMode<MyPlayerObject, void (MyPlayerObject::*)(bool, bool)>::Impl<void (MyPlayerObject::*)(bool, bool)>::function(MyPlayerObject*, bool, bool)
824c 36 800 9
8282 6 70 23
FUNC 8288 3c 0 geode::modifier::AsStaticFunction_toggleSpiderMode<MyPlayerObject, void (MyPlayerObject::*)(bool, bool)>::Impl<void (MyPlayerObject::*)(bool, bool)>::function(MyPlayerObject*, bool, bool)
8288 36 805 9
82be 6 90 23
FUNC 82c4 3c 0 geode::modifier::AsStaticFunction_toggleSwingMode<MyPlayerObject, void (MyPlayerObject::*)(bool, bool)>::Impl<void (MyPlayerObject::*)(bool, bool)>::function(MyPlayerObject*, bool, bool)
82c4 36 810 9
82fa 6 95 23
FUNC 8300 2d0 0 geode::modifier::ModifyDerive<MyPauseLayer, PauseLayer>::apply()
8300 c 281 10
830c 228 287 10
8534 e 311 10
8542 8e 287 10
FUNC 85d0 2 0 geode::modifier::ModifyBase<geode::modifier::ModifyDerive<MyPauseLayer, PauseLayer> >::apply()
85d0 2 416 13
FUNC 85d4 7c 0 geode::addresser::getVirtual<void (PauseLayer::*)()>(void (PauseLayer::*)())
85d4 4 169 0
85d8 78 170 0
FUNC 8650 c8 0 geode::modifier::AsStaticFunction_customSetup<MyPauseLayer, void (MyPauseLayer::*)()>::Impl<void (MyPauseLayer::*)()>::function(MyPauseLayer*)
8650 c8 25 10
FUNC 8718 78 0 PauseLayer::PauseLayer(geode::ZeroConstructorType)
8718 78 17 26
FUNC 8790 6 0 MyPauseLayer::onFlippedToggler(cocos2d::CCObject*)
8790 2 126 23
8792 4 127 23
FUNC 87a0 350 0 geode::modifier::ModifyDerive<MyLevelEditorLayer, LevelEditorLayer>::apply()
87a0 c 1626 11
87ac 272 1716 11
8a1e e 1791 11
8a2c c4 1716 11
FUNC 8af0 2 0 geode::modifier::ModifyBase<geode::modifier::ModifyDerive<MyLevelEditorLayer, LevelEditorLayer> >::apply()
8af0 2 416 13
FUNC 8af4 d4 0 geode::modifier::AsStaticFunction_init<MyLevelEditorLayer, bool (MyLevelEditorLayer::*)(GJGameLevel*, bool)>::Impl<bool (MyLevelEditorLayer::*)(GJGameLevel*, bool)>::function(MyLevelEditorLayer*, GJGameLevel*, bool)
8af4 be 305 8
8bb2 16 141 23
FUNC 8bd0 30c 0 geode::modifier::ModifyDerive<MyAppDelegate, AppDelegate>::apply()
8bd0 10 216 12
8be0 236 224 12
8e16 12 238 12
8e28 b4 224 12
FUNC 8edc 2 0 geode::modifier::ModifyBase<geode::modifier::ModifyDerive<MyAppDelegate, AppDelegate> >::apply()
8edc 2 416 13
FUNC 8ee0 30 0 geode::modifier::AsStaticFunction_trySaveGame<MyAppDelegate, void (MyAppDelegate::*)(bool)>::Impl<void (MyAppDelegate::*)(bool)>::function(MyAppDelegate*, bool)
8ee0 30 40 12
FUNC 8f10 94 0 geode::addresser::Addresser::addressOfVirtual<void, AppDelegate, bool>(void (AppDelegate::*)(bool))
8f10 4 94 0
8f14 14 97 0
8f28 2 100 0
8f2a a 103 0
8f34 2 108 0
8f36 2 107 0
8f38 8 119 0
8f40 4 122 0
8f44 60 97 0
FUNC 8fa4 2a0 0 _GLOBAL__sub_I_main.cpp
FUNC 9244 154 0 IconManager::setIcon(PlayerObject*, int, int, bool)
9244 20 3 27
9264 4 4 27
9268 4 6 27
926c 10 11 27
927c 10 12 27
928c a 7 27
9296 1a 8 27
92b0 10 16 27
92c0 10 14 27
92d0 10 15 27
92e0 10 19 27
92f0 10 13 27
9300 10 17 27
9310 14 18 27
9324 2 25 27
9326 c 23 27
9332 2 25 27
9334 2 23 27
9336 2 25 27
9338 4 23 27
933c 38 25 27
9374 24 26 27
FUNC 9398 10c 0 IconManager::updateIcon(PlayerObject*, int, int, bool)
9398 20 28 27
93b8 4 29 27
93bc c 30 27
93c8 2 31 27
93ca 16 32 27
93e0 10 36 27
93f0 a 37 27
93fa a 41 27
9404 a 39 27
940e a 40 27
9418 a 44 27
9422 a 38 27
942c 10 42 27
943c 8 43 27
9444 3e 48 27
9482 22 49 27
FUNC 94a4 d8 0 IconManager::saveIconKit()
94a4 32 56 27
94d6 1a 60 27
94f0 2 62 27
94f2 2 63 27
94f4 8 62 27
94fc 4 63 27
9500 6 57 27
9506 22 58 27
9528 8 59 27
9530 2 60 27
9532 4 59 27
9536 22 60 27
9558 24 65 27
FUNC 957c 54c 0 IconManager::loadIconKit()
957c c 67 27
9588 44 68 27
95cc 7a 70 27
9646 38 71 27
967e 60 70 27
96de 3a 71 27
9718 60 70 27
9778 34 71 27
97ac 58 70 27
9804 34 71 27
9838 58 70 27
9890 34 71 27
98c4 58 70 27
991c 34 71 27
9950 58 70 27
99a8 34 71 27
99dc 58 70 27
9a34 40 71 27
9a74 54 73 27
FUNC 9ac8 308 0 IconManager::loadAndUpdateIconKit(PlayerObject*, int)
9ac8 1a 75 27
9ae2 6 76 27
9ae8 1de 79 27
9cc6 4 81 27
9cca 4 84 27
9cce 4 81 27
9cd2 1c 84 27
9cee 8 85 27
9cf6 e 86 27
9d04 5e 88 27
9d62 1e 91 27
9d80 50 92 27
FUNC 9dd0 194 0 IconManager::getUnlockIcons(int)
9dd0 c 94 27
9ddc 16 95 27
9df2 4 98 27
9df6 2 95 27
9df8 1c 98 27
9e14 8 99 27
9e1c 10 98 27
9e2c 120 99 27
9f4c a 101 27
9f56 e 99 27
FUNC 9f64 10 0 std::__ndk1::vector<int, std::__ndk1::allocator<int> >::__throw_length_error[abi:ne180000]() const
9f64 10 940 20
FUNC 9f74 b4 0 SettingsManager::getIconLimits()
9f74 a 3 28
9f7e 2a 4 28
9fa8 a 6 28
9fb2 c 14 28
9fbe 4 6 28
9fc2 2 14 28
9fc4 6 6 28
9fca 24 13 28
9fee 6 14 28
9ff4 4 13 28
9ff8 14 14 28
a00c a 17 28
a016 12 4 28
FUNC a028 f8 0 geode::Mod::getSettingValue<long long>(std::__ndk1::basic_string_view<char, std::__ndk1::char_traits<char> >) const
a028 1c 238 29
a044 5a 240 29
a09e 6 241 29
a0a4 5c 240 29
a100 e 244 29
a10e 4 240 29
a112 e 266 30
FUNC a120 26c 0 GUIManager::onFlippedToggler(cocos2d::CCObject*)
a120 16 36 28
a136 e 38 28
a144 a 40 28
a14e 4 42 28
a152 2 43 28
a154 2 42 28
a156 1e 43 28
a174 8 45 28
a17c 4 44 28
a180 36 45 28
a1b6 6 47 28
a1bc 8 54 28
a1c4 c 57 28
a1d0 24 48 28
a1f4 e 50 28
a202 a 52 28
a20c c 58 28
a218 c 59 28
a224 c 60 28
a230 c 61 28
a23c c 62 28
a248 e 63 28
a256 c0 65 28
a316 30 67 28
a346 e 69 28
a354 38 43 28
FUNC a38c ac 0 DynamicIconChange::initMod()
a38c 12 98 28
a39e 1e 99 28
a3bc 6 101 28
a3c2 8 103 28
a3ca a 108 28
a3d4 4 110 28
a3d8 8 111 28
a3e0 3c 116 28
a41c 1c 117 28
FUNC a438 114 0 DynamicIconChange::enableMod(PlayLayer*)
a438 12 119 28
a44a 6 120 28
a450 6 122 28
a456 24 123 28
a47a 4 125 28
a47e 68 126 28
a4e6 8 133 28
a4ee 2 131 28
a4f0 30 133 28
a520 2c 134 28
FUNC a54c 110 0 DynamicIconChange::DynamicIconChange()
a54c 110 75 31
FUNC a65c 9c 0 DynamicIconChange::initInstance(DynamicIconChange*)
a65c 8 82 28
a664 a 83 28
a66e 6 96 28
a674 8 87 28
a67c 2 86 28
a67e 2 85 28
a680 1c 87 28
a69c 2 88 28
a69e 2 87 28
a6a0 1a 88 28
a6ba 2 90 28
a6bc 2 89 28
a6be 10 90 28
a6ce 2 92 28
a6d0 2 93 28
a6d2 4 95 28
a6d6 6 96 28
a6dc 1c 90 28
FUNC a6f8 78 0 IconManager::IconManager()
a6f8 78 38 32
FUNC a770 d0 0 DynamicIconChange::validateLimits()
a770 16 156 28
a786 40 158 28
a7c6 38 159 28
a7fe c 166 28
a80a 36 164 28
FUNC a840 1f4 0 DynamicIconChange::generateIconList()
a840 c 218 28
a84c 4 219 28
a850 6 220 28
a856 1a 219 28
a870 4 237 28
a874 2 222 28
a876 2 237 28
a878 6 222 28
a87e a 223 28
a888 4 227 28
a88c 2 223 28
a88e 5c 226 28
a8ea 18 225 28
a902 4 235 28
a906 8 225 28
a90e 6 235 28
a914 108 237 28
aa1c 8 235 28
aa24 8 241 28
aa2c 8 237 28
FUNC aa34 15e 0 DynamicIconChange::generateRandIcon(int)
aa34 a 168 28
aa3e 26 169 28
aa64 94 170 28
aaf8 92 172 28
ab8a 8 173 28
FUNC ab92 ce 0 DynamicIconChange::changeMode(PlayerObject*, int, bool, bool)
ab92 a 177 28
ab9c 6 178 28
aba2 1a 180 28
abbc c 182 28
abc8 a 189 28
abd2 1a 183 28
abec 16 184 28
ac02 6 183 28
ac08 8 189 28
ac10 16 190 28
ac26 a 192 28
ac30 2 195 28
ac32 6 192 28
ac38 20 195 28
ac58 8 196 28
FUNC ac60 130 0 DynamicIconChange::setMiniMode(PlayerObject*, bool)
ac60 1a 198 28
ac7a 24 199 28
ac9e 2 205 28
aca0 a 202 28
acaa 2 205 28
acac 6 202 28
acb2 2 203 28
acb4 8 202 28
acbc 6 201 28
acc2 2 205 28
acc4 4 201 28
acc8 30 205 28
acf8 e 207 28
ad06 6 210 28
ad0c 16 211 28
ad22 16 213 28
ad38 16 214 28
ad4e e 213 28
ad5c e 216 28
ad6a 26 215 28
FUNC ad90 14c 0 geode::Mod::setSettingValue<bool>(std::__ndk1::basic_string_view<char, std::__ndk1::char_traits<char> >, bool const&)
ad90 1e 247 29
adae 6e 249 29
ae1c 2 250 29
ae1e 2 251 29
ae20 2 250 29
ae22 2 251 29
ae24 6 250 29
ae2a 3e 251 29
ae68 44 249 29
aeac c 255 29
aeb8 4 251 29
aebc 20 249 29
FUNC aedc 3a 0 std::__ndk1::shared_ptr<geode::BoolSettingV3>::~shared_ptr[abi:ne180000]()
aedc 4 643 18
aee0 4 644 18
aee4 1a 645 18
aefe 4 646 18
af02 12 645 18
af14 2 646 18
FUNC af16 2 0 std::__ndk1::__variant_detail::__visitation::__base::__dispatcher<(unsigned int)0>::__dispatch[abi:ne180000]<std::__ndk1::__variant_detail::__dtor<std::__ndk1::__variant_detail::__traits<std::__ndk1::monostate, std::__ndk1::basic_string<char, std::__ndk1::char_traits<char>, std::__ndk1::allocator<char> > >, (std::__ndk1::__variant_detail::_Trait)1>::__destroy[abi:ne180000]()::{lambda(auto:1&)#1}, std::__ndk1::__variant_detail::__base<(std::__ndk1::__variant_detail::__traits<std::__ndk1::monostate, std::__ndk1::basic_string<char, std::__ndk1::char_traits<char>, std::__ndk1::allocator<char> > >)1, std::__ndk1::__variant_detail::__traits, std::__ndk1::allocator<char> >&>(std::__ndk1::__variant_detail::__dtor<std::__ndk1::__variant_detail::__traits<std::__ndk1::monostate, std::__ndk1::basic_string<char, std::__ndk1::char_traits<char>, std::__ndk1::allocator<char> > >, (std::__ndk1::__variant_detail::_Trait)1>, std::__ndk1::__variant_detail::__base<(std::__ndk1::__variant_detail::__traits<std::__ndk1::monostate, std::__ndk1::basic_string<char, std::__ndk1::char_traits<char>, std::__ndk1::allocator<char> > >)1, std::__ndk1::__variant_detail::__traits, std::__ndk1::allocator<char> >&)
af16 2 526 4
FUNC af18 e 0 std::__ndk1::__variant_detail::__visitation::__base::__dispatcher<(unsigned int)1>::__dispatch[abi:ne180000]<std::__ndk1::__variant_detail::__dtor<std::__ndk1::__variant_detail::__traits<std::__ndk1::monostate, std::__ndk1::basic_string<char, std::__ndk1::char_traits<char>, std::__ndk1::allocator<char> > >, (std::__ndk1::__variant_detail::_Trait)1>::__destroy[abi:ne180000]()::{lambda(auto:1&)#1}, std::__ndk1::__variant_detail::__base<(std::__ndk1::__variant_detail::__traits<std::__ndk1::monostate, std::__ndk1::basic_string<char, std::__ndk1::char_traits<char>, std::__ndk1::allocator<char> > >)1, std::__ndk1::__variant_detail::__traits, std::__ndk1::allocator<char> >&>(std::__ndk1::__variant_detail::__dtor<std::__ndk1::__variant_detail::__traits<std::__ndk1::monostate, std::__ndk1::basic_string<char, std::__ndk1::char_traits<char>, std::__ndk1::allocator<char> > >, (std::__ndk1::__variant_detail::_Trait)1>, std::__ndk1::__variant_detail::__base<(std::__ndk1::__variant_detail::__traits<std::__ndk1::monostate, std::__ndk1::basic_string<char, std::__ndk1::char_traits<char>, std::__ndk1::allocator<char> > >)1, std::__ndk1::__variant_detail::__traits, std::__ndk1::allocator<char> >&)
af18 e 526 4
FUNC af28 f8 0 geode::Mod::getSettingValue<bool>(std::__ndk1::basic_string_view<char, std::__ndk1::char_traits<char> >) const
af28 1c 238 29
af44 5c 240 29
afa0 a 241 29
afaa 58 240 29
b002 c 244 29
b00e 4 240 29
b012 e 266 30
FUNC b020 10 0 std::__ndk1::vector<std::__ndk1::vector<int, std::__ndk1::allocator<int> >*, std::__ndk1::allocator<std::__ndk1::vector<int, std::__ndk1::allocator<int> >*> >::__throw_length_error[abi:ne180000]() const
b020 10 940 20
FUNC b030 20 0 geode::getMod()
b030 4 11 33
b034 1c 12 33
FUNC b050 20 0 geodeImplicitEntry
b050 4 16 33
b054 8 18 33
b05c 4 19 33
b060 a 18 33
b06a 6 19 33
FUNC b070 180 0 CCMenuItemToggler::createWithStandardSprites(cocos2d::CCObject*, void (cocos2d::CCObject::*)(cocos2d::CCObject*), float)
b070 12 2317 34
b082 1a 2318 34
b09c a 2319 34
b0a6 16 2321 34
b0bc 2 2322 34
b0be 4 2321 34
b0c2 2 2322 34
b0c4 4 2321 34
b0c8 12 2322 34
b0da 2 2324 34
b0dc 4 2322 34
b0e0 2 2324 34
b0e2 4 2322 34
b0e6 6 2324 34
b0ec a 2325 34
b0f6 10 2327 34
b106 4 2322 34
b10a 2 2327 34
b10c 4 2322 34
b110 4 2321 34
b114 6 2322 34
b11a a 2321 34
b124 14 2329 34
b138 16 2331 34
b14e 1a 2332 34
b168 1c 2334 34
b184 14 2335 34
b198 12 2337 34
b1aa 1e 2338 34
b1c8 28 2340 34
PUBLIC b1f1 0 __ThumbV7PILongThunk___cxa_atexit
PUBLIC b1fd 0 __ThumbV7PILongThunk__ZdlPv
PUBLIC b209 0 __ThumbV7PILongThunk__ZNSt6__ndk119__shared_weak_count14__release_weakEv
PUBLIC b215 0 __ThumbV7PILongThunk__ZN5geode24DefaultEventListenerPool3getEv
PUBLIC b221 0 __ThumbV7PILongThunk__ZN5geode21EventListenerProtocolD2Ev
PUBLIC b22d 0 __ThumbV7PILongThunk__ZN9PlayLayer4initEP11GJGameLevelbb
PUBLIC b239 0 __ThumbV7PILongThunk__ZN9PlayLayer6onQuitEv
PUBLIC b245 0 __ThumbV7PILongThunk__ZN12PlayerObject14toggleBirdModeEbb
PUBLIC b251 0 __ThumbV7PILongThunk__ZN12PlayerObject14toggleDartModeEbb
PUBLIC b25d 0 __ThumbV7PILongThunk__ZN12PlayerObject13toggleFlyModeEbb
PUBLIC b269 0 __ThumbV7PILongThunk__ZN12PlayerObject17togglePlayerScaleEbb
PUBLIC b275 0 __ThumbV7PILongThunk__ZN12PlayerObject15toggleRobotModeEbb
PUBLIC b281 0 __ThumbV7PILongThunk__ZN12PlayerObject14toggleRollModeEbb
PUBLIC b28d 0 __ThumbV7PILongThunk__ZN12PlayerObject16toggleSpiderModeEbb
PUBLIC b299 0 __ThumbV7PILongThunk__ZN12PlayerObject15toggleSwingModeEbb
PUBLIC b2a5 0 __ThumbV7PILongThunk__ZN5geode9addresser9Addresser19followThunkFunctionEi
PUBLIC b2b1 0 __ThumbV7PILongThunk__ZN7cocos2d6CCNode12updateLayoutEb
PUBLIC b2bd 0 __ThumbV7PILongThunk__ZN16LevelEditorLayer4initEP11GJGameLevelb
PUBLIC b2c9 0 __ThumbV7PILongThunk__ZN11AppDelegate11trySaveGameEb
PUBLIC b2e0 0 <.plt ELF section in trealdry.dynamic-icon-change.android32.so>
STACK CFI INIT 4394 2f4 .cfa: sp 0 +
STACK CFI 4396 .cfa: sp 20 + .ra: .cfa -4 + ^ r7: .cfa -8 + ^ r6: .cfa -12 + ^ r5: .cfa -16 + ^ r4: .cfa -20 + ^
STACK CFI 4398 .cfa: r7 8 +
STACK CFI 439c r11: .cfa -24 + ^ r10: .cfa -28 + ^ r9: .cfa -32 + ^ r8: .cfa -36 + ^
STACK CFI INIT 4688 1c .cfa: sp 0 +
STACK CFI 468a .cfa: sp 16 + .ra: .cfa -4 + ^ r7: .cfa -8 + ^ r6: .cfa -12 + ^ r4: .cfa -16 + ^
STACK CFI 468c .cfa: r7 8 +
STACK CFI INIT 46a4 2f4 .cfa: sp 0 +
STACK CFI 46a6 .cfa: sp 20 + .ra: .cfa -4 + ^ r7: .cfa -8 + ^ r6: .cfa -12 + ^ r5: .cfa -16 + ^ r4: .cfa -20 + ^
STACK CFI 46a8 .cfa: r7 8 +
STACK CFI 46ac r11: .cfa -24 + ^ r10: .cfa -28 + ^ r9: .cfa -32 + ^ r8: .cfa -36 + ^
STACK CFI INIT 4998 1c .cfa: sp 0 +
STACK CFI 499a .cfa: sp 16 + .ra: .cfa -4 + ^ r7: .cfa -8 + ^ r6: .cfa -12 + ^ r4: .cfa -16 + ^
STACK CFI 499c .cfa: r7 8 +
STACK CFI INIT 49b4 2f4 .cfa: sp 0 +
STACK CFI 49b6 .cfa: sp 20 + .ra: .cfa -4 + ^ r7: .cfa -8 + ^ r6: .cfa -12 + ^ r5: .cfa -16 + ^ r4: .cfa -20 + ^
STACK CFI 49b8 .cfa: r7 8 +
STACK CFI 49bc r11: .cfa -24 + ^ r10: .cfa -28 + ^ r9: .cfa -32 + ^ r8: .cfa -36 + ^
STACK CFI INIT 4ca8 1c .cfa: sp 0 +
STACK CFI 4caa .cfa: sp 16 + .ra: .cfa -4 + ^ r7: .cfa -8 + ^ r6: .cfa -12 + ^ r4: .cfa -16 + ^
STACK CFI 4cac .cfa: r7 8 +
STACK CFI INIT 4cc4 2f4 .cfa: sp 0 +
STACK CFI 4cc6 .cfa: sp 20 + .ra: .cfa -4 + ^ r7: .cfa -8 + ^ r6: .cfa -12 + ^ r5: .cfa -16 + ^ r4: .cfa -20 + ^
STACK CFI 4cc8 .cfa: r7 8 +
STACK CFI 4ccc r11: .cfa -24 + ^ r10: .cfa -28 + ^ r9: .cfa -32 + ^ r8: .cfa -36 + ^
STACK CFI INIT 4fb8 1c .cfa: sp 0 +
STACK CFI 4fba .cfa: sp 16 + .ra: .cfa -4 + ^ r7: .cfa -8 + ^ r6: .cfa -12 + ^ r4: .cfa -16 + ^
STACK CFI 4fbc .cfa: r7 8 +
STACK CFI INIT 4fd4 2f4 .cfa: sp 0 +
STACK CFI 4fd6 .cfa: sp 20 + .ra: .cfa -4 + ^ r7: .cfa -8 + ^ r6: .cfa -12 + ^ r5: .cfa -16 + ^ r4: .cfa -20 + ^
STACK CFI 4fd8 .cfa: r7 8 +
STACK CFI 4fdc r11: .cfa -24 + ^ r10: .cfa -28 + ^ r9: .cfa -32 + ^ r8: .cfa -36 + ^
STACK CFI INIT 52c8 1c .cfa: sp 0 +
STACK CFI 52ca .cfa: sp 16 + .ra: .cfa -4 + ^ r7: .cfa -8 + ^ r6: .cfa -12 + ^ r4: .cfa -16 + ^
STACK CFI 52cc .cfa: r7 8 +
STACK CFI INIT 52e4 90 .cfa: sp 0 +
STACK CFI 52e6 .cfa: sp 20 + .ra: .cfa -4 + ^ r7: .cfa -8 + ^ r6: .cfa -12 + ^ r5: .cfa -16 + ^ r4: .cfa -20 + ^
STACK CFI 52e8 .cfa: r7 8 +
STACK CFI 52ec r8: .cfa -24 + ^
STACK CFI INIT 5374 3a .cfa: sp 0 +
STACK CFI 5376 .cfa: sp 16 + .ra: .cfa -4 + ^ r7: .cfa -8 + ^ r5: .cfa -12 + ^ r4: .cfa -16 + ^
STACK CFI 5378 .cfa: r7 8 +
STACK CFI INIT 53ae 4 .cfa: sp 0 +
STACK CFI INIT 53b4 20 .cfa: sp 0 +
STACK CFI 53b6 .cfa: sp 16 + .ra: .cfa -4 + ^ r7: .cfa -8 + ^ r6: .cfa -12 + ^ r4: .cfa -16 + ^
STACK CFI 53b8 .cfa: r7 8 +
STACK CFI INIT 53d4 14 .cfa: sp 0 +
STACK CFI INIT 53e8 2 .cfa: sp 0 +
STACK CFI INIT 53ea 4 .cfa: sp 0 +
STACK CFI INIT 53f0 b4 .cfa: sp 0 +
STACK CFI 53f2 .cfa: sp 16 + .ra: .cfa -4 + ^ r7: .cfa -8 + ^ r5: .cfa -12 + ^ r4: .cfa -16 + ^
STACK CFI 53f4 .cfa: r7 8 +
STACK CFI INIT 54a4 18 .cfa: sp 0 +
STACK CFI INIT 54bc c .cfa: sp 0 +
STACK CFI INIT 54c8 28 .cfa: sp 0 +
STACK CFI 54ca .cfa: sp 8 + .ra: .cfa -4 + ^ r7: .cfa -8 + ^
STACK CFI 54cc .cfa: r7 8 +
STACK CFI INIT 54f0 c .cfa: sp 0 +
STACK CFI 54f2 .cfa: sp 8 + .ra: .cfa -4 + ^ r7: .cfa -8 + ^
STACK CFI 54f4 .cfa: r7 8 +
STACK CFI INIT 54fc 8c .cfa: sp 0 +
STACK CFI 54fe .cfa: sp 20 + .ra: .cfa -4 + ^ r7: .cfa -8 + ^ r6: .cfa -12 + ^ r5: .cfa -16 + ^ r4: .cfa -20 + ^
STACK CFI 5500 .cfa: r7 8 +
STACK CFI 5504 r11: .cfa -24 + ^ r9: .cfa -28 + ^ r8: .cfa -32 + ^
STACK CFI INIT 5588 10 .cfa: sp 0 +
STACK CFI 558a .cfa: sp 8 + .ra: .cfa -4 + ^ r7: .cfa -8 + ^
STACK CFI 558c .cfa: r7 8 +
STACK CFI INIT 5598 38 .cfa: sp 0 +
STACK CFI 559a .cfa: sp 16 + .ra: .cfa -4 + ^ r7: .cfa -8 + ^ r5: .cfa -12 + ^ r4: .cfa -16 + ^
STACK CFI 559c .cfa: r7 8 +
STACK CFI INIT 55d0 18 .cfa: sp 0 +
STACK CFI 55d2 .cfa: sp 8 + .ra: .cfa -4 + ^ r7: .cfa -8 + ^
STACK CFI 55d4 .cfa: r7 8 +
STACK CFI INIT 55e8 4 .cfa: sp 0 +
STACK CFI INIT 55ec e4 .cfa: sp 0 +
STACK CFI 55ee .cfa: sp 20 + .ra: .cfa -4 + ^ r7: .cfa -8 + ^ r6: .cfa -12 + ^ r5: .cfa -16 + ^ r4: .cfa -20 + ^
STACK CFI 55f0 .cfa: r7 8 +
STACK CFI 55f4 r11: .cfa -24 + ^
STACK CFI INIT 56d0 68 .cfa: sp 0 +
STACK CFI 56d2 .cfa: sp 16 + .ra: .cfa -4 + ^ r7: .cfa -8 + ^ r5: .cfa -12 + ^ r4: .cfa -16 + ^
STACK CFI 56d4 .cfa: r7 8 +
STACK CFI INIT 5738 6c .cfa: sp 0 +
STACK CFI 573a .cfa: sp 16 + .ra: .cfa -4 + ^ r7: .cfa -8 + ^ r5: .cfa -12 + ^ r4: .cfa -16 + ^
STACK CFI 573c .cfa: r7 8 +
STACK CFI INIT 57a4 2 .cfa: sp 0 +
STACK CFI INIT 57a6 4 .cfa: sp 0 +
STACK CFI INIT 57ac 20 .cfa: sp 0 +
STACK CFI 57ae .cfa: sp 16 + .ra: .cfa -4 + ^ r7: .cfa -8 + ^ r6: .cfa -12 + ^ r4: .cfa -16 + ^
STACK CFI 57b0 .cfa: r7 8 +
STACK CFI INIT 57cc 14 .cfa: sp 0 +
STACK CFI INIT 57e0 2 .cfa: sp 0 +
STACK CFI INIT 57e2 4 .cfa: sp 0 +
STACK CFI INIT 57e8 b0 .cfa: sp 0 +
STACK CFI 57ea .cfa: sp 16 + .ra: .cfa -4 + ^ r7: .cfa -8 + ^ r5: .cfa -12 + ^ r4: .cfa -16 + ^
STACK CFI 57ec .cfa: r7 8 +
STACK CFI INIT 5898 18 .cfa: sp 0 +
STACK CFI INIT 58b0 c .cfa: sp 0 +
STACK CFI INIT 58c0 5b8 .cfa: sp 0 +
STACK CFI 58c2 .cfa: sp 20 + .ra: .cfa -4 + ^ r7: .cfa -8 + ^ r6: .cfa -12 + ^ r5: .cfa -16 + ^ r4: .cfa -20 + ^
STACK CFI 58c4 .cfa: r7 8 +
STACK CFI 58c8 r11: .cfa -24 + ^ r10: .cfa -28 + ^ r9: .cfa -32 + ^ r8: .cfa -36 + ^
STACK CFI INIT 5e78 3a .cfa: sp 0 +
STACK CFI 5e7a .cfa: sp 16 + .ra: .cfa -4 + ^ r7: .cfa -8 + ^ r5: .cfa -12 + ^ r4: .cfa -16 + ^
STACK CFI 5e7c .cfa: r7 8 +
STACK CFI INIT 5eb4 60 .cfa: sp 0 +
STACK CFI 5eb6 .cfa: sp 16 + .ra: .cfa -4 + ^ r7: .cfa -8 + ^ r6: .cfa -12 + ^ r4: .cfa -16 + ^
STACK CFI 5eb8 .cfa: r7 8 +
STACK CFI INIT 5f14 3e .cfa: sp 0 +
STACK CFI 5f16 .cfa: sp 20 + .ra: .cfa -4 + ^ r7: .cfa -8 + ^ r6: .cfa -12 + ^ r5: .cfa -16 + ^ r4: .cfa -20 + ^
STACK CFI 5f18 .cfa: r7 8 +
STACK CFI 5f1c r11: .cfa -24 + ^
STACK CFI INIT 5f52 2 .cfa: sp 0 +
STACK CFI INIT 5f54 f8 .cfa: sp 0 +
STACK CFI 5f56 .cfa: sp 20 + .ra: .cfa -4 + ^ r7: .cfa -8 + ^ r6: .cfa -12 + ^ r5: .cfa -16 + ^ r4: .cfa -20 + ^
STACK CFI 5f58 .cfa: r7 8 +
STACK CFI 5f5c r8: .cfa -24 + ^
STACK CFI INIT 604c 34 .cfa: sp 0 +
STACK CFI 604e .cfa: sp 8 + .ra: .cfa -4 + ^ r7: .cfa -8 + ^
STACK CFI 6050 .cfa: r7 8 +
STACK CFI INIT 6080 d8 .cfa: sp 0 +
STACK CFI 6082 .cfa: sp 20 + .ra: .cfa -4 + ^ r7: .cfa -8 + ^ r6: .cfa -12 + ^ r5: .cfa -16 + ^ r4: .cfa -20 + ^
STACK CFI 6084 .cfa: r7 8 +
STACK CFI 6088 r11: .cfa -24 + ^ r10: .cfa -28 + ^ r9: .cfa -32 + ^ r8: .cfa -36 + ^
STACK CFI INIT 6158 68 .cfa: sp 0 +
STACK CFI 615a .cfa: sp 20 + .ra: .cfa -4 + ^ r7: .cfa -8 + ^ r6: .cfa -12 + ^ r5: .cfa -16 + ^ r4: .cfa -20 + ^
STACK CFI 615c .cfa: r7 8 +
STACK CFI 6160 r11: .cfa -24 + ^
STACK CFI INIT 61c0 10 .cfa: sp 0 +
STACK CFI 61c2 .cfa: sp 8 + .ra: .cfa -4 + ^ r7: .cfa -8 + ^
STACK CFI 61c4 .cfa: r7 8 +
STACK CFI INIT 61d0 108 .cfa: sp 0 +
STACK CFI 61d2 .cfa: sp 20 + .ra: .cfa -4 + ^ r7: .cfa -8 + ^ r6: .cfa -12 + ^ r5: .cfa -16 + ^ r4: .cfa -20 + ^
STACK CFI 61d4 .cfa: r7 8 +
STACK CFI 61d8 r11: .cfa -24 + ^ r10: .cfa -28 + ^ r9: .cfa -32 + ^ r8: .cfa -36 + ^
STACK CFI INIT 62d8 110 .cfa: sp 0 +
STACK CFI 62da .cfa: sp 20 + .ra: .cfa -4 + ^ r7: .cfa -8 + ^ r6: .cfa -12 + ^ r5: .cfa -16 + ^ r4: .cfa -20 + ^
STACK CFI 62dc .cfa: r7 8 +
STACK CFI 62e0 r11: .cfa -24 + ^ r10: .cfa -28 + ^ r9: .cfa -32 + ^ r8: .cfa -36 + ^
STACK CFI INIT 63e8 ce .cfa: sp 0 +
STACK CFI 63ea .cfa: sp 20 + .ra: .cfa -4 + ^ r7: .cfa -8 + ^ r6: .cfa -12 + ^ r5: .cfa -16 + ^ r4: .cfa -20 + ^
STACK CFI 63ec .cfa: r7 8 +
STACK CFI 63f0 r10: .cfa -24 + ^ r9: .cfa -28 + ^ r8: .cfa -32 + ^
STACK CFI INIT 64b6 e0 .cfa: sp 0 +
STACK CFI 64b8 .cfa: sp 20 + .ra: .cfa -4 + ^ r7: .cfa -8 + ^ r6: .cfa -12 + ^ r5: .cfa -16 + ^ r4: .cfa -20 + ^
STACK CFI 64ba .cfa: r7 8 +
STACK CFI 64be r11: .cfa -24 + ^ r9: .cfa -28 + ^ r8: .cfa -32 + ^
STACK CFI INIT 6598 160 .cfa: sp 0 +
STACK CFI 659a .cfa: sp 20 + .ra: .cfa -4 + ^ r7: .cfa -8 + ^ r6: .cfa -12 + ^ r5: .cfa -16 + ^ r4: .cfa -20 + ^
STACK CFI 659c .cfa: r7 8 +
STACK CFI 65a0 r10: .cfa -24 + ^ r9: .cfa -28 + ^ r8: .cfa -32 + ^
STACK CFI INIT 66f8 46 .cfa: sp 0 +
STACK CFI 66fa .cfa: sp 20 + .ra: .cfa -4 + ^ r7: .cfa -8 + ^ r6: .cfa -12 + ^ r5: .cfa -16 + ^ r4: .cfa -20 + ^
STACK CFI 66fc .cfa: r7 8 +
STACK CFI 6700 r8: .cfa -24 + ^
STACK CFI INIT 673e 3c .cfa: sp 0 +
STACK CFI 6740 .cfa: sp 16 + .ra: .cfa -4 + ^ r7: .cfa -8 + ^ r5: .cfa -12 + ^ r4: .cfa -16 + ^
STACK CFI 6742 .cfa: r7 8 +
STACK CFI INIT 677c 10 .cfa: sp 0 +
STACK CFI 677e .cfa: sp 8 + .ra: .cfa -4 + ^ r7: .cfa -8 + ^
STACK CFI 6780 .cfa: r7 8 +
STACK CFI INIT 678c 2 .cfa: sp 0 +
STACK CFI INIT 678e e .cfa: sp 0 +
STACK CFI INIT 679c c0 .cfa: sp 0 +
STACK CFI 679e .cfa: sp 20 + .ra: .cfa -4 + ^ r7: .cfa -8 + ^ r6: .cfa -12 + ^ r5: .cfa -16 + ^ r4: .cfa -20 + ^
STACK CFI 67a0 .cfa: r7 8 +
STACK CFI 67a4 r10: .cfa -24 + ^ r9: .cfa -28 + ^ r8: .cfa -32 + ^
STACK CFI INIT 685c 2ba .cfa: sp 0 +
STACK CFI 685e .cfa: sp 20 + .ra: .cfa -4 + ^ r7: .cfa -8 + ^ r6: .cfa -12 + ^ r5: .cfa -16 + ^ r4: .cfa -20 + ^
STACK CFI 6860 .cfa: r7 8 +
STACK CFI 6864 r8: .cfa -24 + ^
STACK CFI INIT 6b16 5a .cfa: sp 0 +
STACK CFI 6b1e .cfa: sp 16 + .ra: .cfa -4 + ^ r7: .cfa -8 + ^ r5: .cfa -12 + ^ r4: .cfa -16 + ^
STACK CFI 6b20 .cfa: r7 8 +
STACK CFI INIT 6b70 4c .cfa: sp 0 +
STACK CFI 6b72 .cfa: sp 20 + .ra: .cfa -4 + ^ r7: .cfa -8 + ^ r6: .cfa -12 + ^ r5: .cfa -16 + ^ r4: .cfa -20 + ^
STACK CFI 6b74 .cfa: r7 8 +
STACK CFI 6b78 r11: .cfa -24 + ^ r9: .cfa -28 + ^ r8: .cfa -32 + ^
STACK CFI INIT 6bbc c8 .cfa: sp 0 +
STACK CFI 6bbe .cfa: sp 20 + .ra: .cfa -4 + ^ r7: .cfa -8 + ^ r6: .cfa -12 + ^ r5: .cfa -16 + ^ r4: .cfa -20 + ^
STACK CFI 6bc0 .cfa: r7 8 +
STACK CFI 6bc4 r8: .cfa -24 + ^
STACK CFI INIT 6c84 3a .cfa: sp 0 +
STACK CFI 6c86 .cfa: sp 16 + .ra: .cfa -4 + ^ r7: .cfa -8 + ^ r5: .cfa -12 + ^ r4: .cfa -16 + ^
STACK CFI 6c88 .cfa: r7 8 +
STACK CFI INIT 6cbe 46 .cfa: sp 0 +
STACK CFI 6cc0 .cfa: sp 16 + .ra: .cfa -4 + ^ r7: .cfa -8 + ^ r5: .cfa -12 + ^ r4: .cfa -16 + ^
STACK CFI 6cc2 .cfa: r7 8 +
STACK CFI INIT 0 10 .cfa: sp 0 +
STACK CFI 2 .cfa: sp 8 + .ra: .cfa -4 + ^ r7: .cfa -8 + ^
STACK CFI 4 .cfa: r7 8 +
STACK CFI INIT 6d04 ba .cfa: sp 0 +
STACK CFI 6d06 .cfa: sp 20 + .ra: .cfa -4 + ^ r7: .cfa -8 + ^ r6: .cfa -12 + ^ r5: .cfa -16 + ^ r4: .cfa -20 + ^
STACK CFI 6d08 .cfa: r7 8 +
STACK CFI 6d0c r11: .cfa -24 + ^ r10: .cfa -28 + ^ r9: .cfa -32 + ^ r8: .cfa -36 + ^
STACK CFI INIT 6dbe 14a .cfa: sp 0 +
STACK CFI 6dd0 .cfa: sp 16 + .ra: .cfa -4 + ^ r7: .cfa -8 + ^ r6: .cfa -12 + ^ r4: .cfa -16 + ^
STACK CFI 6dd2 .cfa: r7 8 +
STACK CFI INIT 6f08 10d8 .cfa: sp 0 +
STACK CFI 6f0a .cfa: sp 20 + .ra: .cfa -4 + ^ r7: .cfa -8 + ^ r6: .cfa -12 + ^ r5: .cfa -16 + ^ r4: .cfa -20 + ^
STACK CFI 6f0c .cfa: r7 8 +
STACK CFI 6f10 r11: .cfa -24 + ^ r9: .cfa -28 + ^ r8: .cfa -32 + ^
STACK CFI INIT 7fe0 2 .cfa: sp 0 +
STACK CFI INIT 7ff0 138 .cfa: sp 0 +
STACK CFI 7ff2 .cfa: sp 20 + .ra: .cfa -4 + ^ r7: .cfa -8 + ^ r6: .cfa -12 + ^ r5: .cfa -16 + ^ r4: .cfa -20 + ^
STACK CFI 7ff4 .cfa: r7 8 +
STACK CFI 7ff8 r11: .cfa -24 + ^ r10: .cfa -28 + ^ r9: .cfa -32 + ^ r8: .cfa -36 + ^
STACK CFI INIT 8128 3c .cfa: sp 0 +
STACK CFI 812a .cfa: sp 20 + .ra: .cfa -4 + ^ r7: .cfa -8 + ^ r6: .cfa -12 + ^ r5: .cfa -16 + ^ r4: .cfa -20 + ^
STACK CFI 812c .cfa: r7 8 +
STACK CFI 8130 r11: .cfa -24 + ^
STACK CFI INIT 8164 3c .cfa: sp 0 +
STACK CFI 8166 .cfa: sp 20 + .ra: .cfa -4 + ^ r7: .cfa -8 + ^ r6: .cfa -12 + ^ r5: .cfa -16 + ^ r4: .cfa -20 + ^
STACK CFI 8168 .cfa: r7 8 +
STACK CFI 816c r11: .cfa -24 + ^
STACK CFI INIT 81a0 3c .cfa: sp 0 +
STACK CFI 81a2 .cfa: sp 20 + .ra: .cfa -4 + ^ r7: .cfa -8 + ^ r6: .cfa -12 + ^ r5: .cfa -16 + ^ r4: .cfa -20 + ^
STACK CFI 81a4 .cfa: r7 8 +
STACK CFI 81a8 r11: .cfa -24 + ^
STACK CFI INIT 81dc 34 .cfa: sp 0 +
STACK CFI 81de .cfa: sp 20 + .ra: .cfa -4 + ^ r7: .cfa -8 + ^ r6: .cfa -12 + ^ r5: .cfa -16 + ^ r4: .cfa -20 + ^
STACK CFI 81e0 .cfa: r7 8 +
STACK CFI 81e4 r11: .cfa -24 + ^
STACK CFI INIT 8210 3c .cfa: sp 0 +
STACK CFI 8212 .cfa: sp 20 + .ra: .cfa -4 + ^ r7: .cfa -8 + ^ r6: .cfa -12 + ^ r5: .cfa -16 + ^ r4: .cfa -20 + ^
STACK CFI 8214 .cfa: r7 8 +
STACK CFI 8218 r11: .cfa -24 + ^
STACK CFI INIT 824c 3c .cfa: sp 0 +
STACK CFI 824e .cfa: sp 20 + .ra: .cfa -4 + ^ r7: .cfa -8 + ^ r6: .cfa -12 + ^ r5: .cfa -16 + ^ r4: .cfa -20 + ^
STACK CFI 8250 .cfa: r7 8 +
STACK CFI 8254 r11: .cfa -24 + ^
STACK CFI INIT 8288 3c .cfa: sp 0 +
STACK CFI 828a .cfa: sp 20 + .ra: .cfa -4 + ^ r7: .cfa -8 + ^ r6: .cfa -12 + ^ r5: .cfa -16 + ^ r4: .cfa -20 + ^
STACK CFI 828c .cfa: r7 8 +
STACK CFI 8290 r11: .cfa -24 + ^
STACK CFI INIT 82c4 3c .cfa: sp 0 +
STACK CFI 82c6 .cfa: sp 20 + .ra: .cfa -4 + ^ r7: .cfa -8 + ^ r6: .cfa -12 + ^ r5: .cfa -16 + ^ r4: .cfa -20 + ^
STACK CFI 82c8 .cfa: r7 8 +
STACK CFI 82cc r11: .cfa -24 + ^
STACK CFI INIT 8300 2d0 .cfa: sp 0 +
STACK CFI 8302 .cfa: sp 20 + .ra: .cfa -4 + ^ r7: .cfa -8 + ^ r6: .cfa -12 + ^ r5: .cfa -16 + ^ r4: .cfa -20 + ^
STACK CFI 8304 .cfa: r7 8 +
STACK CFI 8308 r11: .cfa -24 + ^ r9: .cfa -28 + ^ r8: .cfa -32 + ^
STACK CFI INIT 85d0 2 .cfa: sp 0 +
STACK CFI INIT 85d4 7c .cfa: sp 0 +
STACK CFI 85d6 .cfa: sp 16 + .ra: .cfa -4 + ^ r7: .cfa -8 + ^ r6: .cfa -12 + ^ r4: .cfa -16 + ^
STACK CFI 85d8 .cfa: r7 8 +
STACK CFI INIT 8650 c8 .cfa: sp 0 +
STACK CFI 8652 .cfa: sp 20 + .ra: .cfa -4 + ^ r7: .cfa -8 + ^ r6: .cfa -12 + ^ r5: .cfa -16 + ^ r4: .cfa -20 + ^
STACK CFI 8654 .cfa: r7 8 +
STACK CFI 8658 r11: .cfa -24 + ^
STACK CFI INIT 8718 78 .cfa: sp 0 +
STACK CFI 871a .cfa: sp 16 + .ra: .cfa -4 + ^ r7: .cfa -8 + ^ r6: .cfa -12 + ^ r4: .cfa -16 + ^
STACK CFI 871c .cfa: r7 8 +
STACK CFI INIT 8790 6 .cfa: sp 0 +
STACK CFI INIT 87a0 350 .cfa: sp 0 +
STACK CFI 87a2 .cfa: sp 20 + .ra: .cfa -4 + ^ r7: .cfa -8 + ^ r6: .cfa -12 + ^ r5: .cfa -16 + ^ r4: .cfa -20 + ^
STACK CFI 87a4 .cfa: r7 8 +
STACK CFI 87a8 r10: .cfa -24 + ^ r9: .cfa -28 + ^ r8: .cfa -32 + ^
STACK CFI INIT 8af0 2 .cfa: sp 0 +
STACK CFI INIT 8af4 d4 .cfa: sp 0 +
STACK CFI 8af6 .cfa: sp 20 + .ra: .cfa -4 + ^ r7: .cfa -8 + ^ r6: .cfa -12 + ^ r5: .cfa -16 + ^ r4: .cfa -20 + ^
STACK CFI 8af8 .cfa: r7 8 +
STACK CFI 8afc r10: .cfa -24 + ^ r9: .cfa -28 + ^ r8: .cfa -32 + ^
STACK CFI INIT 8bd0 30c .cfa: sp 0 +
STACK CFI 8bd2 .cfa: sp 20 + .ra: .cfa -4 + ^ r7: .cfa -8 + ^ r6: .cfa -12 + ^ r5: .cfa -16 + ^ r4: .cfa -20 + ^
STACK CFI 8bd4 .cfa: r7 8 +
STACK CFI 8bd8 r11: .cfa -24 + ^ r9: .cfa -28 + ^ r8: .cfa -32 + ^
STACK CFI INIT 8edc 2 .cfa: sp 0 +
STACK CFI INIT 8ee0 30 .cfa: sp 0 +
STACK CFI 8ef2 .cfa: sp 16 + .ra: .cfa -4 + ^ r7: .cfa -8 + ^ r5: .cfa -12 + ^ r4: .cfa -16 + ^
STACK CFI 8ef4 .cfa: r7 8 +
STACK CFI INIT 8f10 94 .cfa: sp 0 +
STACK CFI 8f12 .cfa: sp 16 + .ra: .cfa -4 + ^ r7: .cfa -8 + ^ r6: .cfa -12 + ^ r4: .cfa -16 + ^
STACK CFI 8f14 .cfa: r7 8 +
STACK CFI INIT 8fa4 2a0 .cfa: sp 0 +
STACK CFI 8fa6 .cfa: sp 20 + .ra: .cfa -4 + ^ r7: .cfa -8 + ^ r6: .cfa -12 + ^ r5: .cfa -16 + ^ r4: .cfa -20 + ^
STACK CFI 8fa8 .cfa: r7 8 +
STACK CFI 8fac r10: .cfa -24 + ^ r9: .cfa -28 + ^ r8: .cfa -32 + ^
STACK CFI INIT 9244 154 .cfa: sp 0 +
STACK CFI 9246 .cfa: sp 20 + .ra: .cfa -4 + ^ r7: .cfa -8 + ^ r6: .cfa -12 + ^ r5: .cfa -16 + ^ r4: .cfa -20 + ^
STACK CFI 9248 .cfa: r7 8 +
STACK CFI 924c r10: .cfa -24 + ^ r9: .cfa -28 + ^ r8: .cfa -32 + ^
STACK CFI INIT 9398 10c .cfa: sp 0 +
STACK CFI 939a .cfa: sp 20 + .ra: .cfa -4 + ^ r7: .cfa -8 + ^ r6: .cfa -12 + ^ r5: .cfa -16 + ^ r4: .cfa -20 + ^
STACK CFI 939c .cfa: r7 8 +
STACK CFI 93a0 r8: .cfa -24 + ^
STACK CFI INIT 0 36 .cfa: sp 0 +
STACK CFI 2 .cfa: sp 20 + .ra: .cfa -4 + ^ r7: .cfa -8 + ^ r6: .cfa -12 + ^ r5: .cfa -16 + ^ r4: .cfa -20 + ^
STACK CFI 4 .cfa: r7 8 +
STACK CFI 8 r11: .cfa -24 + ^ r9: .cfa -28 + ^ r8: .cfa -32 + ^
STACK CFI INIT 94a4 d8 .cfa: sp 0 +
STACK CFI 94a6 .cfa: sp 20 + .ra: .cfa -4 + ^ r7: .cfa -8 + ^ r6: .cfa -12 + ^ r5: .cfa -16 + ^ r4: .cfa -20 + ^
STACK CFI 94a8 .cfa: r7 8 +
STACK CFI 94ac r11: .cfa -24 + ^ r10: .cfa -28 + ^ r9: .cfa -32 + ^ r8: .cfa -36 + ^
STACK CFI INIT 957c 54c .cfa: sp 0 +
STACK CFI 957e .cfa: sp 20 + .ra: .cfa -4 + ^ r7: .cfa -8 + ^ r6: .cfa -12 + ^ r5: .cfa -16 + ^ r4: .cfa -20 + ^
STACK CFI 9580 .cfa: r7 8 +
STACK CFI 9584 r11: .cfa -24 + ^ r10: .cfa -28 + ^ r9: .cfa -32 + ^ r8: .cfa -36 + ^
STACK CFI INIT 9ac8 308 .cfa: sp 0 +
STACK CFI 9aca .cfa: sp 20 + .ra: .cfa -4 + ^ r7: .cfa -8 + ^ r6: .cfa -12 + ^ r5: .cfa -16 + ^ r4: .cfa -20 + ^
STACK CFI 9acc .cfa: r7 8 +
STACK CFI 9ad0 r11: .cfa -24 + ^ r10: .cfa -28 + ^ r9: .cfa -32 + ^ r8: .cfa -36 + ^
STACK CFI INIT 9dd0 194 .cfa: sp 0 +
STACK CFI 9dd2 .cfa: sp 20 + .ra: .cfa -4 + ^ r7: .cfa -8 + ^ r6: .cfa -12 + ^ r5: .cfa -16 + ^ r4: .cfa -20 + ^
STACK CFI 9dd4 .cfa: r7 8 +
STACK CFI 9dd8 r11: .cfa -24 + ^ r10: .cfa -28 + ^ r9: .cfa -32 + ^ r8: .cfa -36 + ^
STACK CFI INIT 0 3c .cfa: sp 0 +
STACK CFI 2 .cfa: sp 16 + .ra: .cfa -4 + ^ r7: .cfa -8 + ^ r5: .cfa -12 + ^ r4: .cfa -16 + ^
STACK CFI 4 .cfa: r7 8 +
STACK CFI INIT 9f64 10 .cfa: sp 0 +
STACK CFI 9f66 .cfa: sp 8 + .ra: .cfa -4 + ^ r7: .cfa -8 + ^
STACK CFI 9f68 .cfa: r7 8 +
STACK CFI INIT 9f74 b4 .cfa: sp 0 +
STACK CFI 9f76 .cfa: sp 20 + .ra: .cfa -4 + ^ r7: .cfa -8 + ^ r6: .cfa -12 + ^ r5: .cfa -16 + ^ r4: .cfa -20 + ^
STACK CFI 9f78 .cfa: r7 8 +
STACK CFI 9f7c r11: .cfa -24 + ^ r10: .cfa -28 + ^ r9: .cfa -32 + ^ r8: .cfa -36 + ^
STACK CFI INIT a028 f8 .cfa: sp 0 +
STACK CFI a02a .cfa: sp 20 + .ra: .cfa -4 + ^ r7: .cfa -8 + ^ r6: .cfa -12 + ^ r5: .cfa -16 + ^ r4: .cfa -20 + ^
STACK CFI a02c .cfa: r7 8 +
STACK CFI a030 r11: .cfa -24 + ^
STACK CFI INIT a120 26c .cfa: sp 0 +
STACK CFI a122 .cfa: sp 20 + .ra: .cfa -4 + ^ r7: .cfa -8 + ^ r6: .cfa -12 + ^ r5: .cfa -16 + ^ r4: .cfa -20 + ^
STACK CFI a124 .cfa: r7 8 +
STACK CFI a128 r11: .cfa -24 + ^ r10: .cfa -28 + ^ r9: .cfa -32 + ^ r8: .cfa -36 + ^
STACK CFI INIT 0 34 .cfa: sp 0 +
STACK CFI 2 .cfa: sp 16 + .ra: .cfa -4 + ^ r7: .cfa -8 + ^ r5: .cfa -12 + ^ r4: .cfa -16 + ^
STACK CFI 4 .cfa: r7 8 +
STACK CFI INIT a38c ac .cfa: sp 0 +
STACK CFI a38e .cfa: sp 16 + .ra: .cfa -4 + ^ r7: .cfa -8 + ^ r5: .cfa -12 + ^ r4: .cfa -16 + ^
STACK CFI a390 .cfa: r7 8 +
STACK CFI INIT a438 114 .cfa: sp 0 +
STACK CFI a43a .cfa: sp 16 + .ra: .cfa -4 + ^ r7: .cfa -8 + ^ r5: .cfa -12 + ^ r4: .cfa -16 + ^
STACK CFI a43c .cfa: r7 8 +
STACK CFI INIT a54c 110 .cfa: sp 0 +
STACK CFI a54e .cfa: sp 20 + .ra: .cfa -4 + ^ r7: .cfa -8 + ^ r6: .cfa -12 + ^ r5: .cfa -16 + ^ r4: .cfa -20 + ^
STACK CFI a550 .cfa: r7 8 +
STACK CFI a554 r11: .cfa -24 + ^
STACK CFI INIT a65c 9c .cfa: sp 0 +
STACK CFI a65e .cfa: sp 20 + .ra: .cfa -4 + ^ r7: .cfa -8 + ^ r6: .cfa -12 + ^ r5: .cfa -16 + ^ r4: .cfa -20 + ^
STACK CFI a660 .cfa: r7 8 +
STACK CFI a664 r8: .cfa -24 + ^
STACK CFI INIT a6f8 78 .cfa: sp 0 +
STACK CFI a6fa .cfa: sp 20 + .ra: .cfa -4 + ^ r7: .cfa -8 + ^ r6: .cfa -12 + ^ r5: .cfa -16 + ^ r4: .cfa -20 + ^
STACK CFI a6fc .cfa: r7 8 +
STACK CFI a700 r11: .cfa -24 + ^
STACK CFI INIT a770 d0 .cfa: sp 0 +
STACK CFI a772 .cfa: sp 16 + .ra: .cfa -4 + ^ r7: .cfa -8 + ^ r6: .cfa -12 + ^ r4: .cfa -16 + ^
STACK CFI a774 .cfa: r7 8 +
STACK CFI INIT a840 1f4 .cfa: sp 0 +
STACK CFI a842 .cfa: sp 20 + .ra: .cfa -4 + ^ r7: .cfa -8 + ^ r6: .cfa -12 + ^ r5: .cfa -16 + ^ r4: .cfa -20 + ^
STACK CFI a844 .cfa: r7 8 +
STACK CFI a848 r11: .cfa -24 + ^ r10: .cfa -28 + ^ r9: .cfa -32 + ^ r8: .cfa -36 + ^
STACK CFI INIT 0 68 .cfa: sp 0 +
STACK CFI 2 .cfa: sp 16 + .ra: .cfa -4 + ^ r7: .cfa -8 + ^ r5: .cfa -12 + ^ r4: .cfa -16 + ^
STACK CFI 4 .cfa: r7 8 +
STACK CFI INIT aa34 15e .cfa: sp 0 +
STACK CFI aa36 .cfa: sp 20 + .ra: .cfa -4 + ^ r7: .cfa -8 + ^ r6: .cfa -12 + ^ r5: .cfa -16 + ^ r4: .cfa -20 + ^
STACK CFI aa38 .cfa: r7 8 +
STACK CFI aa3c r11: .cfa -24 + ^ r10: .cfa -28 + ^ r9: .cfa -32 + ^ r8: .cfa -36 + ^
STACK CFI INIT ab92 ce .cfa: sp 0 +
STACK CFI ab94 .cfa: sp 20 + .ra: .cfa -4 + ^ r7: .cfa -8 + ^ r6: .cfa -12 + ^ r5: .cfa -16 + ^ r4: .cfa -20 + ^
STACK CFI ab96 .cfa: r7 8 +
STACK CFI ab9a r11: .cfa -24 + ^ r9: .cfa -28 + ^ r8: .cfa -32 + ^
STACK CFI INIT ac60 130 .cfa: sp 0 +
STACK CFI ac62 .cfa: sp 20 + .ra: .cfa -4 + ^ r7: .cfa -8 + ^ r6: .cfa -12 + ^ r5: .cfa -16 + ^ r4: .cfa -20 + ^
STACK CFI ac64 .cfa: r7 8 +
STACK CFI ac68 r11: .cfa -24 + ^ r10: .cfa -28 + ^ r9: .cfa -32 + ^ r8: .cfa -36 + ^
STACK CFI INIT ad90 14c .cfa: sp 0 +
STACK CFI ad92 .cfa: sp 20 + .ra: .cfa -4 + ^ r7: .cfa -8 + ^ r6: .cfa -12 + ^ r5: .cfa -16 + ^ r4: .cfa -20 + ^
STACK CFI ad94 .cfa: r7 8 +
STACK CFI ad98 r11: .cfa -24 + ^
STACK CFI INIT aedc 3a .cfa: sp 0 +
STACK CFI aede .cfa: sp 16 + .ra: .cfa -4 + ^ r7: .cfa -8 + ^ r5: .cfa -12 + ^ r4: .cfa -16 + ^
STACK CFI aee0 .cfa: r7 8 +
STACK CFI INIT af16 2 .cfa: sp 0 +
STACK CFI INIT af18 e .cfa: sp 0 +
STACK CFI INIT af28 f8 .cfa: sp 0 +
STACK CFI af2a .cfa: sp 20 + .ra: .cfa -4 + ^ r7: .cfa -8 + ^ r6: .cfa -12 + ^ r5: .cfa -16 + ^ r4: .cfa -20 + ^
STACK CFI af2c .cfa: r7 8 +
STACK CFI af30 r11: .cfa -24 + ^
STACK CFI INIT b020 10 .cfa: sp 0 +
STACK CFI b022 .cfa: sp 8 + .ra: .cfa -4 + ^ r7: .cfa -8 + ^
STACK CFI b024 .cfa: r7 8 +
STACK CFI INIT b030 20 .cfa: sp 0 +
STACK CFI b032 .cfa: sp 16 + .ra: .cfa -4 + ^ r7: .cfa -8 + ^ r6: .cfa -12 + ^ r4: .cfa -16 + ^
STACK CFI b034 .cfa: r7 8 +
STACK CFI INIT b050 20 .cfa: sp 0 +
STACK CFI b052 .cfa: sp 16 + .ra: .cfa -4 + ^ r7: .cfa -8 + ^ r6: .cfa -12 + ^ r4: .cfa -16 + ^
STACK CFI b054 .cfa: r7 8 +
STACK CFI INIT b070 180 .cfa: sp 0 +
STACK CFI b072 .cfa: sp 20 + .ra: .cfa -4 + ^ r7: .cfa -8 + ^ r6: .cfa -12 + ^ r5: .cfa -16 + ^ r4: .cfa -20 + ^
STACK CFI b074 .cfa: r7 8 +
STACK CFI b078 r11: .cfa -24 + ^ r10: .cfa -28 + ^ r9: .cfa -32 + ^ r8: .cfa -36 + ^
STACK CFI INIT 0 6 .cfa: sp 0 +
STACK CFI INIT 0 4 .cfa: sp 0 +
STACK CFI INIT 0 6 .cfa: sp 0 +
STACK CFI INIT 0 10 .cfa: sp 0 +
STACK CFI INIT 0 10 .cfa: sp 0 +
STACK CFI INIT 0 10 .cfa: sp 0 +
STACK CFI INIT 0 10 .cfa: sp 0 +
STACK CFI INIT 0 10 .cfa: sp 0 +
STACK CFI INIT 0 10 .cfa: sp 0 +
STACK CFI INIT 0 10 .cfa: sp 0 +
STACK CFI INIT 0 10 .cfa: sp 0 +
