MODULE Linux arm E9A9143FADB33B6C24700B843E8C93280 omgrod.garage_plus.android32.so
INFO CODE_ID 3F14A9E9B3AD6C3B24700B843E8C9328243B2273
INFO GENERATOR mozilla/dump_syms 2.3.4
PUBLIC e160 0 __on_dlclose
PUBLIC e170 0 __emutls_unregister_key
PUBLIC e174 0 __on_dlclose_late
PUBLIC e178 0 __atexit_handler_wrapper
PUBLIC e184 0 atexit
PUBLIC e1a4 0 pthread_atfork
FUNC e1b4 2d0 0 __cxx_global_var_init
FUNC e484 20 0 geode::modifier::ModifyBase<geode::modifier::ModifyDerive<hook6<(anonymous namespace)::hook6Parent>, GameManager> >::~ModifyBase()
FUNC e4b0 608 0 geode::modifier::ModifyDerive<hook6<(anonymous namespace)::hook6Parent>, GameManager>::apply()
FUNC eab8 3a 0 std::__ndk1::shared_ptr<geode::Hook>::~shared_ptr[abi:ne180000]()
FUNC eaf4 60 0 geode::impl::ResultData<geode::Hook*, std::__ndk1::basic_string<char, std::__ndk1::char_traits<char>, std::__ndk1::allocator<char> > >::~ResultData()
FUNC eb54 3e 0 std::__ndk1::vector<std::__ndk1::basic_string<char, std::__ndk1::char_traits<char>, std::__ndk1::allocator<char> >, std::__ndk1::allocator<std::__ndk1::basic_string<char, std::__ndk1::char_traits<char>, std::__ndk1::allocator<char> > > >::~vector[abi:ne180000]()
FUNC eb92 2 0 geode::modifier::ModifyBase<geode::modifier::ModifyDerive<hook6<(anonymous namespace)::hook6Parent>, GameManager> >::apply()
PUBLIC eb95 0 __clang_call_terminate
FUNC eba0 f8 0 _ZN5geode15UnwrapExceptionC2IRPNS_4HookEQsr4implE18IsStringStreamableIT_EEENS_4impl5OkTagEOS5_
FUNC ec98 34 0 std::__ndk1::__throw_bad_variant_access[abi:ne180000]()
FUNC eccc d8 0 std::__ndk1::basic_stringstream<char, std::__ndk1::char_traits<char>, std::__ndk1::allocator<char> >::basic_stringstream[abi:ne180000]()
FUNC eda4 68 0 std::__ndk1::basic_stringstream<char, std::__ndk1::char_traits<char>, std::__ndk1::allocator<char> >::~basic_stringstream()
FUNC ee0c 10 0 geode::UnwrapException::~UnwrapException()
FUNC ee1c 108 0 std::__ndk1::__put_character_sequence[abi:ne180000]<char, std::__ndk1::char_traits<char> >(std::__ndk1::basic_ostream<char, std::__ndk1::char_traits<char> >, std::__ndk1::basic_ostream const*, unsigned int)
FUNC ef24 110 0 std::__ndk1::__pad_and_output[abi:ne180000]<char, std::__ndk1::char_traits<char> >(std::__ndk1::char_traits<char>, std::__ndk1::ostreambuf_iterator const*, std::__ndk1::ostreambuf_iterator const, std::__ndk1::ostreambuf_iterator const, std::__ndk1::ios_base&, std::__ndk1::ostreambuf_iterator)
FUNC f034 10 0 std::__ndk1::basic_string<char, std::__ndk1::char_traits<char>, std::__ndk1::allocator<char> >::__throw_length_error[abi:ne180000]() const
FUNC f044 38 0 std::__ndk1::__throw_length_error[abi:ne180000](char const*)
FUNC f07c 18 0 std::length_error::length_error[abi:ne180000](char const*)
FUNC f094 28 0 std::__throw_bad_array_new_length([abi:ne180000], void)
FUNC f0bc ce 0 std::__ndk1::basic_stringbuf<char, std::__ndk1::char_traits<char>, std::__ndk1::allocator<char> >::str[abi:ne180000]() &&
FUNC f18a e0 0 std::__ndk1::basic_stringbuf<char, std::__ndk1::char_traits<char>, std::__ndk1::allocator<char> >::__init_buf_ptrs[abi:ne180000]()
FUNC f26c 164 0 std::__ndk1::vector<std::__ndk1::basic_string<char, std::__ndk1::char_traits<char>, std::__ndk1::allocator<char> >, std::__ndk1::allocator<std::__ndk1::basic_string<char, std::__ndk1::char_traits<char>, std::__ndk1::allocator<char> > > >::__push_back_slow_path<std::__ndk1::basic_string<char, std::__ndk1::char_traits<char>, std::__ndk1::allocator<char> > const&>(std::__ndk1::basic_string<char, std::__ndk1::char_traits<char>, std::__ndk1::allocator<char> > const&)
FUNC f3d0 46 0 std::__ndk1::basic_string<char, std::__ndk1::char_traits<char>, std::__ndk1::allocator<char> >::__init_copy_ctor_external(char const*, unsigned int)
FUNC f416 3c 0 std::__ndk1::__split_buffer<std::__ndk1::basic_string<char, std::__ndk1::char_traits<char>, std::__ndk1::allocator<char> >, std::__ndk1::allocator<std::__ndk1::basic_string<char, std::__ndk1::char_traits<char>, std::__ndk1::allocator<char> > >&>::~__split_buffer()
FUNC f454 10 0 std::__ndk1::vector<std::__ndk1::basic_string<char, std::__ndk1::char_traits<char>, std::__ndk1::allocator<char> >, std::__ndk1::allocator<std::__ndk1::basic_string<char, std::__ndk1::char_traits<char>, std::__ndk1::allocator<char> > > >::__throw_length_error[abi:ne180000]() const
FUNC f464 2 0 std::__ndk1::__variant_detail::__visitation::__base::__dispatcher<(unsigned int)0>::__dispatch[abi:ne180000]<std::__ndk1::__variant_detail::__dtor<std::__ndk1::__variant_detail::__traits<geode::Hook*, std::__ndk1::basic_string<char, std::__ndk1::char_traits<char>, std::__ndk1::allocator<char> > >, (std::__ndk1::__variant_detail::_Trait)1>::__destroy[abi:ne180000]()::{lambda(auto:1&)#1}, std::__ndk1::__variant_detail::__base<(std::__ndk1::__variant_detail::__traits<geode::Hook*, std::__ndk1::basic_string<char, std::__ndk1::char_traits<char>, std::__ndk1::allocator<char> > >)1, geode::Hook, std::__ndk1::allocator<char> >&>(std::__ndk1::__variant_detail::__dtor<std::__ndk1::__variant_detail::__traits<geode::Hook*, std::__ndk1::basic_string<char, std::__ndk1::char_traits<char>, std::__ndk1::allocator<char> > >, (std::__ndk1::__variant_detail::_Trait)1>, std::__ndk1::__variant_detail::__base<(std::__ndk1::__variant_detail::__traits<geode::Hook*, std::__ndk1::basic_string<char, std::__ndk1::char_traits<char>, std::__ndk1::allocator<char> > >)1, geode::Hook, std::__ndk1::allocator<char> >&)
FUNC f466 e 0 std::__ndk1::__variant_detail::__visitation::__base::__dispatcher<(unsigned int)1>::__dispatch[abi:ne180000]<std::__ndk1::__variant_detail::__dtor<std::__ndk1::__variant_detail::__traits<geode::Hook*, std::__ndk1::basic_string<char, std::__ndk1::char_traits<char>, std::__ndk1::allocator<char> > >, (std::__ndk1::__variant_detail::_Trait)1>::__destroy[abi:ne180000]()::{lambda(auto:1&)#1}, std::__ndk1::__variant_detail::__base<(std::__ndk1::__variant_detail::__traits<geode::Hook*, std::__ndk1::basic_string<char, std::__ndk1::char_traits<char>, std::__ndk1::allocator<char> > >)1, geode::Hook, std::__ndk1::allocator<char> >&>(std::__ndk1::__variant_detail::__dtor<std::__ndk1::__variant_detail::__traits<geode::Hook*, std::__ndk1::basic_string<char, std::__ndk1::char_traits<char>, std::__ndk1::allocator<char> > >, (std::__ndk1::__variant_detail::_Trait)1>, std::__ndk1::__variant_detail::__base<(std::__ndk1::__variant_detail::__traits<geode::Hook*, std::__ndk1::basic_string<char, std::__ndk1::char_traits<char>, std::__ndk1::allocator<char> > >)1, geode::Hook, std::__ndk1::allocator<char> >&)
FUNC f474 c0 0 std::__ndk1::__tree<std::__ndk1::__value_type<std::__ndk1::basic_string<char, std::__ndk1::char_traits<char>, std::__ndk1::allocator<char> >, std::__ndk1::shared_ptr<geode::Hook> >, std::__ndk1::__map_value_compare<std::__ndk1::basic_string<char, std::__ndk1::char_traits<char>, std::__ndk1::allocator<char> >, std::__ndk1::__value_type<std::__ndk1::basic_string<char, std::__ndk1::char_traits<char>, std::__ndk1::allocator<char> >, std::__ndk1::shared_ptr<geode::Hook> >, std::__ndk1::less<std::__ndk1::basic_string<char, std::__ndk1::char_traits<char>, std::__ndk1::allocator<char> > >, true>, std::__ndk1::allocator<std::__ndk1::__value_type<std::__ndk1::basic_string<char, std::__ndk1::char_traits<char>, std::__ndk1::allocator<char> >, std::__ndk1::shared_ptr<geode::Hook> > > >::find<std::__ndk1::basic_string<char, std::__ndk1::char_traits<char>, std::__ndk1::allocator<char> > >(std::__ndk1::basic_string<char, std::__ndk1::char_traits<char>, std::__ndk1::allocator<char> > const&)
FUNC f534 82 0 std::__ndk1::__tree<std::__ndk1::__value_type<std::__ndk1::basic_string<char, std::__ndk1::char_traits<char>, std::__ndk1::allocator<char> >, std::__ndk1::shared_ptr<geode::Hook> >, std::__ndk1::__map_value_compare<std::__ndk1::basic_string<char, std::__ndk1::char_traits<char>, std::__ndk1::allocator<char> >, std::__ndk1::__value_type<std::__ndk1::basic_string<char, std::__ndk1::char_traits<char>, std::__ndk1::allocator<char> >, std::__ndk1::shared_ptr<geode::Hook> >, std::__ndk1::less<std::__ndk1::basic_string<char, std::__ndk1::char_traits<char>, std::__ndk1::allocator<char> > >, true>, std::__ndk1::allocator<std::__ndk1::__value_type<std::__ndk1::basic_string<char, std::__ndk1::char_traits<char>, std::__ndk1::allocator<char> >, std::__ndk1::shared_ptr<geode::Hook> > > >::erase(std::__ndk1::__tree_const_iterator<std::__ndk1::__value_type<std::__ndk1::basic_string<char, std::__ndk1::char_traits<char>, std::__ndk1::allocator<char> >, std::__ndk1::shared_ptr<geode::Hook> >, std::__ndk1::__tree_node<std::__ndk1::__value_type<std::__ndk1::basic_string<char, std::__ndk1::char_traits<char>, std::__ndk1::allocator<char> >, std::__ndk1::shared_ptr<geode::Hook> >, void*>*, int>)
FUNC f5b6 274 0 std::__ndk1::__tree_remove[abi:ne180000]<std::__ndk1::__tree_node_base<void*>*>(std::__ndk1::__tree_node_base<void*>*, std::__ndk1::__tree_node_base<void*>*)
FUNC f82a 5e 0 std::__ndk1::__tree<std::__ndk1::__value_type<std::__ndk1::basic_string<char, std::__ndk1::char_traits<char>, std::__ndk1::allocator<char> >, std::__ndk1::shared_ptr<geode::Hook> >, std::__ndk1::__map_value_compare<std::__ndk1::basic_string<char, std::__ndk1::char_traits<char>, std::__ndk1::allocator<char> >, std::__ndk1::__value_type<std::__ndk1::basic_string<char, std::__ndk1::char_traits<char>, std::__ndk1::allocator<char> >, std::__ndk1::shared_ptr<geode::Hook> >, std::__ndk1::less<std::__ndk1::basic_string<char, std::__ndk1::char_traits<char>, std::__ndk1::allocator<char> > >, true>, std::__ndk1::allocator<std::__ndk1::__value_type<std::__ndk1::basic_string<char, std::__ndk1::char_traits<char>, std::__ndk1::allocator<char> >, std::__ndk1::shared_ptr<geode::Hook> > > >::destroy(std::__ndk1::__tree_node<std::__ndk1::__value_type<std::__ndk1::basic_string<char, std::__ndk1::char_traits<char>, std::__ndk1::allocator<char> >, std::__ndk1::shared_ptr<geode::Hook> >, void*>*)
FUNC f888 48 0 geode::modifier::AsStaticFunction_isColorUnlocked<hook6<(anonymous namespace)::hook6Parent>, bool (hook6<(anonymous namespace)::hook6Parent>::*)(int, UnlockType)>::Impl<bool (hook6<(anonymous namespace)::hook6Parent>::*)(int, UnlockType)>::function(hook6<(anonymous namespace)::hook6Parent>*, int, UnlockType)
FUNC f8d0 50 0 geode::modifier::AsStaticFunction_isIconUnlocked<hook6<(anonymous namespace)::hook6Parent>, bool (hook6<(anonymous namespace)::hook6Parent>::*)(int, IconType)>::Impl<bool (hook6<(anonymous namespace)::hook6Parent>::*)(int, IconType)>::function(hook6<(anonymous namespace)::hook6Parent>*, int, IconType)
FUNC f920 3a 0 std::__ndk1::shared_ptr<tulip::hook::CallingConvention>::~shared_ptr[abi:ne180000]()
FUNC f95a 46 0 tulip::hook::HandlerMetadata::~HandlerMetadata()
FUNC f9a0 f8 0 geode::Mod::getSettingValue<bool>(std::__ndk1::basic_string_view<char, std::__ndk1::char_traits<char> >) const
FUNC fa98 8c 0 geode::cast::traverseTypeinfoFor(void*, geode::cast::ClassTypeinfoType const*, char const*)
FUNC fb24 ba 0 std::__ndk1::__tree<std::__ndk1::__value_type<std::__ndk1::basic_string<char, std::__ndk1::char_traits<char>, std::__ndk1::allocator<char> >, std::__ndk1::shared_ptr<geode::Hook> >, std::__ndk1::__map_value_compare<std::__ndk1::basic_string<char, std::__ndk1::char_traits<char>, std::__ndk1::allocator<char> >, std::__ndk1::__value_type<std::__ndk1::basic_string<char, std::__ndk1::char_traits<char>, std::__ndk1::allocator<char> >, std::__ndk1::shared_ptr<geode::Hook> >, std::__ndk1::less<std::__ndk1::basic_string<char, std::__ndk1::char_traits<char>, std::__ndk1::allocator<char> > >, true>, std::__ndk1::allocator<std::__ndk1::__value_type<std::__ndk1::basic_string<char, std::__ndk1::char_traits<char>, std::__ndk1::allocator<char> >, std::__ndk1::shared_ptr<geode::Hook> > > >::__find_equal<std::__ndk1::basic_string<char, std::__ndk1::char_traits<char>, std::__ndk1::allocator<char> > >(std::__ndk1::__tree_end_node<std::__ndk1::__tree_node_base<void*>*>*&, std::__ndk1::basic_string<char, std::__ndk1::char_traits<char>, std::__ndk1::allocator<char> > const&)
FUNC fbde 14a 0 std::__ndk1::__tree_balance_after_insert[abi:ne180000]<std::__ndk1::__tree_node_base<void*>*>(std::__ndk1::__tree_node_base<void*>*, std::__ndk1::__tree_node_base<void*>*)
FUNC fd28 2f4 0 __cxx_global_var_init
FUNC 1001c 20 0 geode::modifier::ModifyBase<geode::modifier::ModifyDerive<MenuLayerModified, MenuLayer> >::~ModifyBase()
FUNC 10040 320 0 geode::modifier::ModifyDerive<MenuLayerModified, MenuLayer>::apply()
FUNC 10360 2 0 geode::modifier::ModifyBase<geode::modifier::ModifyDerive<MenuLayerModified, MenuLayer> >::apply()
FUNC 10364 118 0 geode::modifier::AsStaticFunction_onGarage<MenuLayerModified, void (MenuLayerModified::*)(cocos2d::CCObject*)>::Impl<void (MenuLayerModified::*)(cocos2d::CCObject*)>::function(MenuLayerModified*, cocos2d::CCObject*)
FUNC 1047c 114 0 geode::Mod::getSavedValue<bool>(std::__ndk1::basic_string_view<char, std::__ndk1::char_traits<char> >)
FUNC 10590 60 0 geode::impl::ResultData<matjson::Value&, std::__ndk1::basic_string<char, std::__ndk1::char_traits<char>, std::__ndk1::allocator<char> > >::~ResultData()
FUNC 105f0 2 0 std::__ndk1::__variant_detail::__visitation::__base::__dispatcher<(unsigned int)0>::__dispatch[abi:ne180000]<std::__ndk1::__variant_detail::__dtor<std::__ndk1::__variant_detail::__traits<std::__ndk1::reference_wrapper<matjson::Value>, std::__ndk1::basic_string<char, std::__ndk1::char_traits<char>, std::__ndk1::allocator<char> > >, (std::__ndk1::__variant_detail::_Trait)1>::__destroy[abi:ne180000]()::{lambda(auto:1&)#1}, std::__ndk1::__variant_detail::__base<(std::__ndk1::__variant_detail::__traits<std::__ndk1::reference_wrapper<matjson::Value>, std::__ndk1::basic_string<char, std::__ndk1::char_traits<char>, std::__ndk1::allocator<char> > >)1, matjson::Value, std::__ndk1::allocator<char> >&>(std::__ndk1::__variant_detail::__dtor<std::__ndk1::__variant_detail::__traits<std::__ndk1::reference_wrapper<matjson::Value>, std::__ndk1::basic_string<char, std::__ndk1::char_traits<char>, std::__ndk1::allocator<char> > >, (std::__ndk1::__variant_detail::_Trait)1>, std::__ndk1::__variant_detail::__base<(std::__ndk1::__variant_detail::__traits<std::__ndk1::reference_wrapper<matjson::Value>, std::__ndk1::basic_string<char, std::__ndk1::char_traits<char>, std::__ndk1::allocator<char> > >)1, matjson::Value, std::__ndk1::allocator<char> >&)
FUNC 105f2 e 0 std::__ndk1::__variant_detail::__visitation::__base::__dispatcher<(unsigned int)1>::__dispatch[abi:ne180000]<std::__ndk1::__variant_detail::__dtor<std::__ndk1::__variant_detail::__traits<std::__ndk1::reference_wrapper<matjson::Value>, std::__ndk1::basic_string<char, std::__ndk1::char_traits<char>, std::__ndk1::allocator<char> > >, (std::__ndk1::__variant_detail::_Trait)1>::__destroy[abi:ne180000]()::{lambda(auto:1&)#1}, std::__ndk1::__variant_detail::__base<(std::__ndk1::__variant_detail::__traits<std::__ndk1::reference_wrapper<matjson::Value>, std::__ndk1::basic_string<char, std::__ndk1::char_traits<char>, std::__ndk1::allocator<char> > >)1, matjson::Value, std::__ndk1::allocator<char> >&>(std::__ndk1::__variant_detail::__dtor<std::__ndk1::__variant_detail::__traits<std::__ndk1::reference_wrapper<matjson::Value>, std::__ndk1::basic_string<char, std::__ndk1::char_traits<char>, std::__ndk1::allocator<char> > >, (std::__ndk1::__variant_detail::_Trait)1>, std::__ndk1::__variant_detail::__base<(std::__ndk1::__variant_detail::__traits<std::__ndk1::reference_wrapper<matjson::Value>, std::__ndk1::basic_string<char, std::__ndk1::char_traits<char>, std::__ndk1::allocator<char> > >)1, matjson::Value, std::__ndk1::allocator<char> >&)
FUNC 10600 2 0 std::__ndk1::__variant_detail::__visitation::__base::__dispatcher<(unsigned int)0>::__dispatch[abi:ne180000]<std::__ndk1::__variant_detail::__dtor<std::__ndk1::__variant_detail::__traits<bool, std::__ndk1::basic_string<char, std::__ndk1::char_traits<char>, std::__ndk1::allocator<char> > >, (std::__ndk1::__variant_detail::_Trait)1>::__destroy[abi:ne180000]()::{lambda(auto:1&)#1}, std::__ndk1::__variant_detail::__base<(std::__ndk1::__variant_detail::__traits<bool, std::__ndk1::basic_string<char, std::__ndk1::char_traits<char>, std::__ndk1::allocator<char> > >)1, bool, std::__ndk1::allocator<char> >&>(std::__ndk1::__variant_detail::__dtor<std::__ndk1::__variant_detail::__traits<bool, std::__ndk1::basic_string<char, std::__ndk1::char_traits<char>, std::__ndk1::allocator<char> > >, (std::__ndk1::__variant_detail::_Trait)1>, std::__ndk1::__variant_detail::__base<(std::__ndk1::__variant_detail::__traits<bool, std::__ndk1::basic_string<char, std::__ndk1::char_traits<char>, std::__ndk1::allocator<char> > >)1, bool, std::__ndk1::allocator<char> >&)
FUNC 10602 e 0 std::__ndk1::__variant_detail::__visitation::__base::__dispatcher<(unsigned int)1>::__dispatch[abi:ne180000]<std::__ndk1::__variant_detail::__dtor<std::__ndk1::__variant_detail::__traits<bool, std::__ndk1::basic_string<char, std::__ndk1::char_traits<char>, std::__ndk1::allocator<char> > >, (std::__ndk1::__variant_detail::_Trait)1>::__destroy[abi:ne180000]()::{lambda(auto:1&)#1}, std::__ndk1::__variant_detail::__base<(std::__ndk1::__variant_detail::__traits<bool, std::__ndk1::basic_string<char, std::__ndk1::char_traits<char>, std::__ndk1::allocator<char> > >)1, bool, std::__ndk1::allocator<char> >&>(std::__ndk1::__variant_detail::__dtor<std::__ndk1::__variant_detail::__traits<bool, std::__ndk1::basic_string<char, std::__ndk1::char_traits<char>, std::__ndk1::allocator<char> > >, (std::__ndk1::__variant_detail::_Trait)1>, std::__ndk1::__variant_detail::__base<(std::__ndk1::__variant_detail::__traits<bool, std::__ndk1::basic_string<char, std::__ndk1::char_traits<char>, std::__ndk1::allocator<char> > >)1, bool, std::__ndk1::allocator<char> >&)
FUNC 10610 2 0 std::__ndk1::__function::__base<void (FLAlertLayer*, bool)>::~__base()
FUNC 10612 4 0 std::__ndk1::__function::__func<MenuLayerModified::onGarage(cocos2d::CCObject*)::{lambda(auto:1, bool)#1}, std::__ndk1::allocator<MenuLayerModified::onGarage(cocos2d::CCObject*)::{lambda(auto:1, bool)#1}>, void (FLAlertLayer*, bool)>::~__func()
FUNC 10618 18 0 std::__ndk1::__function::__func<MenuLayerModified::onGarage(cocos2d::CCObject*)::{lambda(auto:1, bool)#1}, std::__ndk1::allocator<MenuLayerModified::onGarage(cocos2d::CCObject*)::{lambda(auto:1, bool)#1}>, void (FLAlertLayer*, bool)>::__clone() const
FUNC 10630 10 0 std::__ndk1::__function::__func<MenuLayerModified::onGarage(cocos2d::CCObject*)::{lambda(auto:1, bool)#1}, std::__ndk1::allocator<MenuLayerModified::onGarage(cocos2d::CCObject*)::{lambda(auto:1, bool)#1}>, void (FLAlertLayer*, bool)>::__clone(std::__ndk1::__function::__base<void (FLAlertLayer*, bool)>*) const
FUNC 10640 2 0 std::__ndk1::__function::__func<MenuLayerModified::onGarage(cocos2d::CCObject*)::{lambda(auto:1, bool)#1}, std::__ndk1::allocator<MenuLayerModified::onGarage(cocos2d::CCObject*)::{lambda(auto:1, bool)#1}>, void (FLAlertLayer*, bool)>::destroy()
FUNC 10642 4 0 std::__ndk1::__function::__func<MenuLayerModified::onGarage(cocos2d::CCObject*)::{lambda(auto:1, bool)#1}, std::__ndk1::allocator<MenuLayerModified::onGarage(cocos2d::CCObject*)::{lambda(auto:1, bool)#1}>, void (FLAlertLayer*, bool)>::destroy_deallocate()
FUNC 10648 a0 0 std::__ndk1::__function::__func<MenuLayerModified::onGarage(cocos2d::CCObject*)::{lambda(auto:1, bool)#1}, std::__ndk1::allocator<MenuLayerModified::onGarage(cocos2d::CCObject*)::{lambda(auto:1, bool)#1}>, void (FLAlertLayer*, bool)>::operator()(FLAlertLayer*&&, bool&&)
FUNC 106e8 18 0 std::__ndk1::__function::__func<MenuLayerModified::onGarage(cocos2d::CCObject*)::{lambda(auto:1, bool)#1}, std::__ndk1::allocator<MenuLayerModified::onGarage(cocos2d::CCObject*)::{lambda(auto:1, bool)#1}>, void (FLAlertLayer*, bool)>::target(std::type_info const&) const
FUNC 10700 c 0 std::__ndk1::__function::__func<MenuLayerModified::onGarage(cocos2d::CCObject*)::{lambda(auto:1, bool)#1}, std::__ndk1::allocator<MenuLayerModified::onGarage(cocos2d::CCObject*)::{lambda(auto:1, bool)#1}>, void (FLAlertLayer*, bool)>::target_type() const
FUNC 1070c 1b0 0 plm_init_decoders(plm_t*)
FUNC 108bc 4f0 0 plm_demux_has_headers
FUNC 10dac 6c 0 plm_read_video_packet(plm_buffer_t*, void*)
FUNC 10e18 6c 0 plm_read_audio_packet(plm_buffer_t*, void*)
FUNC 10e84 186 0 plm_demux_decode
FUNC 1100a a0 0 plm_buffer_write
FUNC 110aa 64 0 plm_buffer_load_file_callback(plm_buffer_t*, void*)
FUNC 1110e 90 0 plm_buffer_read(plm_buffer_t*, int)
FUNC 1119e 44 0 plm_buffer_skip(plm_buffer_t*, unsigned int)
FUNC 111e8 288 0 plm_demux_decode_time(plm_demux_t*)
FUNC 11470 3fe 0 plm_demux_decode_packet(plm_demux_t*, int)
FUNC 11870 5f4 0 plm_video_decode_sequence_header(plm_video_t*)
FUNC 11e64 68c 0 plm_video_decode_slice(plm_video_t*, int)
FUNC 124f0 1ac 0 plm_video_predict_macroblock(plm_video_t*)
FUNC 1269c b98 0 plm_video_decode_block(plm_video_t*, int)
FUNC 13234 174 0 plm_video_decode_motion_vector(plm_video_t*, int, int)
FUNC 133a8 826 0 plm_video_process_macroblock(plm_video_t*, unsigned char*, unsigned char*, int, int, int, int)
FUNC 13bd0 490 0 plm_video_idct(int*)
FUNC 14060 5ec 0 plm_audio_decode_header(plm_audio_t*)
FUNC 1464c e0 0 plm_audio_read_allocation(plm_audio_t*, int, int)
FUNC 1472c 390 0 plm_audio_read_samples(plm_audio_t*, int, int, int)
FUNC 14abc 564 0 videoplayer::VideoPlayer::init(std::__ndk1::__fs::filesystem::path const&, bool)
FUNC 15020 be 0 videoplayer::VideoPlayer::videoCallback(plm_t*, plm_frame_t*, void*)
FUNC 150de 602 0 videoplayer::VideoPlayer::audioCallback(plm_t*, plm_samples_t*, void*)
FUNC 156e0 474 0 videoplayer::VideoPlayer::initAudio()
FUNC 15b54 f0 0 videoplayer::VideoPlayer::PCMRead(FMOD_SOUND*, void*, unsigned int)
FUNC 15c44 58 0 videoplayer::VideoPlayer::audioCallback(FMOD_CHANNELCONTROL*, FMOD_CHANNELCONTROL_TYPE, FMOD_CHANNELCONTROL_CALLBACK_TYPE, void*, void*)
FUNC 15c9c 1e14 0 videoplayer::VideoPlayer::update(float)
FUNC 17ab0 130 0 videoplayer::VideoPlayer::draw()
FUNC 17be0 1e 0 videoplayer::VideoPlayer::onExit()
FUNC 17c00 cc 0 videoplayer::VideoPlayer::~VideoPlayer()
FUNC 17ccc 10 0 videoplayer::VideoPlayer::~VideoPlayer()
FUNC 17cdc 1e 0 videoplayer::VideoPlayer::setPosition(float, float)
FUNC 17cfa 4 0 cocos2d::CCCopying::copyWithZone(cocos2d::CCZone*)
FUNC 17cfe 2 0 cocos2d::CCNodeRGBA::setOpacityModifyRGB(bool)
FUNC 17d00 4 0 cocos2d::CCNodeRGBA::isOpacityModifyRGB()
FUNC 17d04 2 0 {virtual override thunk({offset(-264)}, cocos2d::CCNodeRGBA::setOpacityModifyRGB(bool))}
FUNC 17d06 4 0 {virtual override thunk({offset(-264)}, cocos2d::CCNodeRGBA::isOpacityModifyRGB())}
FUNC 17d0a 66 0 std::__ndk1::basic_string<char, std::__ndk1::char_traits<char>, std::__ndk1::allocator<char> >::__assign_no_alias<true>(char const*, unsigned int)
FUNC 17d70 a6 0 std::__ndk1::basic_string<char, std::__ndk1::char_traits<char>, std::__ndk1::allocator<char> >::__assign_no_alias<false>(char const*, unsigned int)
FUNC 17e16 ce 0 std::__ndk1::__split_buffer<float*, std::__ndk1::allocator<float*> >::shrink_to_fit()
FUNC 17ee4 314 0 StatsDisplayAPI::getNewItem(std::__ndk1::basic_string<char, std::__ndk1::char_traits<char>, std::__ndk1::allocator<char> >, cocos2d::CCNode*, int, float)
FUNC 181f8 498 0 __cxx_global_var_init
FUNC 18690 20 0 geode::modifier::ModifyBase<geode::modifier::ModifyDerive<GJGarageLayerModified, GJGarageLayer> >::~ModifyBase()
FUNC 186b0 2d0 0 geode::modifier::ModifyDerive<GJGarageLayerModified, GJGarageLayer>::apply()
FUNC 18980 2 0 geode::modifier::ModifyBase<geode::modifier::ModifyDerive<GJGarageLayerModified, GJGarageLayer> >::apply()
FUNC 18982 5c 0 std::__ndk1::unique_ptr<std::__ndk1::__tree_node<std::__ndk1::__value_type<std::__ndk1::basic_string<char, std::__ndk1::char_traits<char>, std::__ndk1::allocator<char> >, std::__ndk1::shared_ptr<geode::Hook> >, void*>, std::__ndk1::__tree_node_destructor<std::__ndk1::allocator<std::__ndk1::__tree_node<std::__ndk1::__value_type<std::__ndk1::basic_string<char, std::__ndk1::char_traits<char>, std::__ndk1::allocator<char> >, std::__ndk1::shared_ptr<geode::Hook> >, void*> > > >::~unique_ptr[abi:ne180000]()
FUNC 189e0 104 0 _ZN5geode15UnwrapExceptionC2IRNSt6__ndk112basic_stringIcNS2_11char_traitsIcEENS2_9allocatorIcEEEEQsr4implE18IsStringStreamableIT_EEENS_4impl6ErrTagEOSA_
FUNC 18ae4 2 0 std::__ndk1::__variant_detail::__visitation::__base::__dispatcher<(unsigned int)0>::__dispatch[abi:ne180000]<std::__ndk1::__variant_detail::__dtor<std::__ndk1::__variant_detail::__traits<std::__ndk1::monostate, std::__ndk1::basic_string<char, std::__ndk1::char_traits<char>, std::__ndk1::allocator<char> > >, (std::__ndk1::__variant_detail::_Trait)1>::__destroy[abi:ne180000]()::{lambda(auto:1&)#1}, std::__ndk1::__variant_detail::__base<(std::__ndk1::__variant_detail::__traits<std::__ndk1::monostate, std::__ndk1::basic_string<char, std::__ndk1::char_traits<char>, std::__ndk1::allocator<char> > >)1, std::__ndk1::__variant_detail::__traits, std::__ndk1::allocator<char> >&>(std::__ndk1::__variant_detail::__dtor<std::__ndk1::__variant_detail::__traits<std::__ndk1::monostate, std::__ndk1::basic_string<char, std::__ndk1::char_traits<char>, std::__ndk1::allocator<char> > >, (std::__ndk1::__variant_detail::_Trait)1>, std::__ndk1::__variant_detail::__base<(std::__ndk1::__variant_detail::__traits<std::__ndk1::monostate, std::__ndk1::basic_string<char, std::__ndk1::char_traits<char>, std::__ndk1::allocator<char> > >)1, std::__ndk1::__variant_detail::__traits, std::__ndk1::allocator<char> >&)
FUNC 18ae6 e 0 std::__ndk1::__variant_detail::__visitation::__base::__dispatcher<(unsigned int)1>::__dispatch[abi:ne180000]<std::__ndk1::__variant_detail::__dtor<std::__ndk1::__variant_detail::__traits<std::__ndk1::monostate, std::__ndk1::basic_string<char, std::__ndk1::char_traits<char>, std::__ndk1::allocator<char> > >, (std::__ndk1::__variant_detail::_Trait)1>::__destroy[abi:ne180000]()::{lambda(auto:1&)#1}, std::__ndk1::__variant_detail::__base<(std::__ndk1::__variant_detail::__traits<std::__ndk1::monostate, std::__ndk1::basic_string<char, std::__ndk1::char_traits<char>, std::__ndk1::allocator<char> > >)1, std::__ndk1::__variant_detail::__traits, std::__ndk1::allocator<char> >&>(std::__ndk1::__variant_detail::__dtor<std::__ndk1::__variant_detail::__traits<std::__ndk1::monostate, std::__ndk1::basic_string<char, std::__ndk1::char_traits<char>, std::__ndk1::allocator<char> > >, (std::__ndk1::__variant_detail::_Trait)1>, std::__ndk1::__variant_detail::__base<(std::__ndk1::__variant_detail::__traits<std::__ndk1::monostate, std::__ndk1::basic_string<char, std::__ndk1::char_traits<char>, std::__ndk1::allocator<char> > >)1, std::__ndk1::__variant_detail::__traits, std::__ndk1::allocator<char> >&)
FUNC 18af4 7c 0 geode::addresser::getVirtual<bool (GJGarageLayer::*)()>(bool (GJGarageLayer::*)())
FUNC 18b70 a28 0 geode::modifier::AsStaticFunction_init<GJGarageLayerModified, bool (GJGarageLayerModified::*)()>::Impl<bool (GJGarageLayerModified::*)()>::function(GJGarageLayerModified*)
FUNC 19598 a4 0 GJGarageLayer::GJGarageLayer(geode::ZeroConstructorType)
FUNC 1963c 2 0 cocos2d::CCKeyboardDelegate::keyUp(cocos2d::enumKeyCodes)
FUNC 1963e 2 0 cocos2d::CCMouseDelegate::rightKeyDown()
FUNC 19640 2 0 cocos2d::CCMouseDelegate::rightKeyUp()
FUNC 19642 2 0 cocos2d::CCMouseDelegate::scrollWheel(float, float)
FUNC 19644 358 0 GJGarageLayerModified::refreshCP(cocos2d::CCObject*, bool)
FUNC 1999c 2c 0 GPSceneManager::onModSettings(cocos2d::CCObject*)
FUNC 199c8 148 0 GPSceneManager::onFeedbackBtn(cocos2d::CCObject*)
FUNC 19b10 2 0 GPSceneManager::onShopsBtn(cocos2d::CCObject*)
FUNC 19b14 148 0 GPSceneManager::onKofiBtn(cocos2d::CCObject*)
FUNC 19c5c 3a 0 geode::Task<geode::utils::web::WebResponse, geode::utils::web::WebProgress>::~Task()
FUNC 19c98 548 0 geode::modifier::FieldIntermediate<GJGarageLayerModified, GJGarageLayer>::self()
FUNC 1a1e0 68 0 geode::modifier::FieldIntermediate<GJGarageLayerModified, GJGarageLayer>::fieldDestructor(void*)
FUNC 1a248 10 0 std::__ndk1::vector<void*, std::__ndk1::allocator<void*> >::__throw_length_error[abi:ne180000]() const
FUNC 1a258 10 0 std::__ndk1::vector<std::__ndk1::function<void (void*)>, std::__ndk1::allocator<std::__ndk1::function<void (void*)> > >::__throw_length_error[abi:ne180000]() const
FUNC 1a268 8 0 std::__ndk1::vector<void*, std::__ndk1::allocator<void*> >::__throw_out_of_range[abi:ne180000]() const
FUNC 1a270 3c 0 std::__ndk1::__throw_out_of_range[abi:ne180000](char const*)
FUNC 1a2ac 18 0 std::out_of_range::out_of_range[abi:ne180000](char const*)
FUNC 1a2c4 8 0 std::__ndk1::vector<std::__ndk1::function<void (void*)>, std::__ndk1::allocator<std::__ndk1::function<void (void*)> > >::__throw_out_of_range[abi:ne180000]() const
FUNC 1a2cc 68 0 geode::EventListener<geode::Task<geode::utils::web::WebResponse, geode::utils::web::WebProgress> >::~EventListener()
FUNC 1a334 4 0 geode::EventListener<geode::Task<geode::utils::web::WebResponse, geode::utils::web::WebProgress> >::getPool() const
FUNC 1a338 e8 0 geode::EventListener<geode::Task<geode::utils::web::WebResponse, geode::utils::web::WebProgress> >::handle(geode::Event*)
FUNC 1a420 6c 0 geode::EventListener<geode::Task<geode::utils::web::WebResponse, geode::utils::web::WebProgress> >::~EventListener()
FUNC 1a48c 34 0 std::__ndk1::__throw_bad_function_call[abi:ne180000]()
FUNC 1a4c0 10 0 std::__ndk1::bad_function_call::~bad_function_call()
FUNC 1a4d0 2 0 std::__ndk1::__function::__base<void (void*)>::~__base()
FUNC 1a4d2 4 0 std::__ndk1::__function::__func<void (*)(void*), std::__ndk1::allocator<void (*)(void*)>, void (void*)>::~__func()
FUNC 1a4d8 20 0 std::__ndk1::__function::__func<void (*)(void*), std::__ndk1::allocator<void (*)(void*)>, void (void*)>::__clone() const
FUNC 1a4f8 14 0 std::__ndk1::__function::__func<void (*)(void*), std::__ndk1::allocator<void (*)(void*)>, void (void*)>::__clone(std::__ndk1::__function::__base<void (void*)>*) const
FUNC 1a50c 2 0 std::__ndk1::__function::__func<void (*)(void*), std::__ndk1::allocator<void (*)(void*)>, void (void*)>::destroy()
FUNC 1a50e 4 0 std::__ndk1::__function::__func<void (*)(void*), std::__ndk1::allocator<void (*)(void*)>, void (void*)>::destroy_deallocate()
FUNC 1a512 8 0 std::__ndk1::__function::__func<void (*)(void*), std::__ndk1::allocator<void (*)(void*)>, void (void*)>::operator()(void*&&)
FUNC 1a51c 18 0 std::__ndk1::__function::__func<void (*)(void*), std::__ndk1::allocator<void (*)(void*)>, void (void*)>::target(std::type_info const&) const
FUNC 1a534 c 0 std::__ndk1::__function::__func<void (*)(void*), std::__ndk1::allocator<void (*)(void*)>, void (void*)>::target_type() const
FUNC 1a540 168 0 geode::Task<geode::utils::web::WebResponse, geode::utils::web::WebProgress>::setListener(geode::EventListenerProtocol*)
FUNC 1a6a8 3a 0 geode::Task<geode::utils::web::WebResponse, geode::utils::web::WebProgress>::setListener(geode::EventListenerProtocol*)::{lambda()#1}::~{lambda()#1}()
FUNC 1a6e2 3a 0 geode::Task<geode::utils::web::WebResponse, geode::utils::web::WebProgress>::setListener(geode::EventListenerProtocol*)::{lambda()#2}::~{lambda()#2}()
FUNC 1a71c 48 0 std::__ndk1::__function::__func<geode::Task<geode::utils::web::WebResponse, geode::utils::web::WebProgress>::setListener(geode::EventListenerProtocol*)::{lambda()#1}, std::__ndk1::allocator<geode::Task<geode::utils::web::WebResponse, geode::utils::web::WebProgress>::setListener(geode::EventListenerProtocol*)::{lambda()#1}>, void ()>::~__func()
FUNC 1a764 54 0 std::__ndk1::__function::__func<geode::Task<geode::utils::web::WebResponse, geode::utils::web::WebProgress>::setListener(geode::EventListenerProtocol*)::{lambda()#1}, std::__ndk1::allocator<geode::Task<geode::utils::web::WebResponse, geode::utils::web::WebProgress>::setListener(geode::EventListenerProtocol*)::{lambda()#1}>, void ()>::~__func()
FUNC 1a7b8 40 0 std::__ndk1::__function::__func<geode::Task<geode::utils::web::WebResponse, geode::utils::web::WebProgress>::setListener(geode::EventListenerProtocol*)::{lambda()#1}, std::__ndk1::allocator<geode::Task<geode::utils::web::WebResponse, geode::utils::web::WebProgress>::setListener(geode::EventListenerProtocol*)::{lambda()#1}>, void ()>::__clone() const
FUNC 1a7f8 34 0 std::__ndk1::__function::__func<geode::Task<geode::utils::web::WebResponse, geode::utils::web::WebProgress>::setListener(geode::EventListenerProtocol*)::{lambda()#1}, std::__ndk1::allocator<geode::Task<geode::utils::web::WebResponse, geode::utils::web::WebProgress>::setListener(geode::EventListenerProtocol*)::{lambda()#1}>, void ()>::__clone(std::__ndk1::__function::__base<void ()>*) const
FUNC 1a82c 3a 0 std::__ndk1::__function::__func<geode::Task<geode::utils::web::WebResponse, geode::utils::web::WebProgress>::setListener(geode::EventListenerProtocol*)::{lambda()#1}, std::__ndk1::allocator<geode::Task<geode::utils::web::WebResponse, geode::utils::web::WebProgress>::setListener(geode::EventListenerProtocol*)::{lambda()#1}>, void ()>::destroy()
FUNC 1a866 44 0 std::__ndk1::__function::__func<geode::Task<geode::utils::web::WebResponse, geode::utils::web::WebProgress>::setListener(geode::EventListenerProtocol*)::{lambda()#1}, std::__ndk1::allocator<geode::Task<geode::utils::web::WebResponse, geode::utils::web::WebProgress>::setListener(geode::EventListenerProtocol*)::{lambda()#1}>, void ()>::destroy_deallocate()
FUNC 1a8ac 150 0 std::__ndk1::__function::__func<geode::Task<geode::utils::web::WebResponse, geode::utils::web::WebProgress>::setListener(geode::EventListenerProtocol*)::{lambda()#1}, std::__ndk1::allocator<geode::Task<geode::utils::web::WebResponse, geode::utils::web::WebProgress>::setListener(geode::EventListenerProtocol*)::{lambda()#1}>, void ()>::operator()()
FUNC 1a9fc 18 0 std::__ndk1::__function::__func<geode::Task<geode::utils::web::WebResponse, geode::utils::web::WebProgress>::setListener(geode::EventListenerProtocol*)::{lambda()#1}, std::__ndk1::allocator<geode::Task<geode::utils::web::WebResponse, geode::utils::web::WebProgress>::setListener(geode::EventListenerProtocol*)::{lambda()#1}>, void ()>::target(std::type_info const&) const
FUNC 1aa14 c 0 std::__ndk1::__function::__func<geode::Task<geode::utils::web::WebResponse, geode::utils::web::WebProgress>::setListener(geode::EventListenerProtocol*)::{lambda()#1}, std::__ndk1::allocator<geode::Task<geode::utils::web::WebResponse, geode::utils::web::WebProgress>::setListener(geode::EventListenerProtocol*)::{lambda()#1}>, void ()>::target_type() const
FUNC 1aa20 44 0 geode::Task<geode::utils::web::WebResponse, geode::utils::web::WebProgress>::Event::~Event()
FUNC 1aa64 40 0 geode::Task<geode::utils::web::WebResponse, geode::utils::web::WebProgress>::Event::~Event()
FUNC 1aaa4 48 0 std::__ndk1::__function::__func<geode::Task<geode::utils::web::WebResponse, geode::utils::web::WebProgress>::setListener(geode::EventListenerProtocol*)::{lambda()#2}, std::__ndk1::allocator<geode::Task<geode::utils::web::WebResponse, geode::utils::web::WebProgress>::setListener(geode::EventListenerProtocol*)::{lambda()#2}>, void ()>::~__func()
FUNC 1aaec 54 0 std::__ndk1::__function::__func<geode::Task<geode::utils::web::WebResponse, geode::utils::web::WebProgress>::setListener(geode::EventListenerProtocol*)::{lambda()#2}, std::__ndk1::allocator<geode::Task<geode::utils::web::WebResponse, geode::utils::web::WebProgress>::setListener(geode::EventListenerProtocol*)::{lambda()#2}>, void ()>::~__func()
FUNC 1ab40 3c 0 std::__ndk1::__function::__func<geode::Task<geode::utils::web::WebResponse, geode::utils::web::WebProgress>::setListener(geode::EventListenerProtocol*)::{lambda()#2}, std::__ndk1::allocator<geode::Task<geode::utils::web::WebResponse, geode::utils::web::WebProgress>::setListener(geode::EventListenerProtocol*)::{lambda()#2}>, void ()>::__clone() const
FUNC 1ab7c 30 0 std::__ndk1::__function::__func<geode::Task<geode::utils::web::WebResponse, geode::utils::web::WebProgress>::setListener(geode::EventListenerProtocol*)::{lambda()#2}, std::__ndk1::allocator<geode::Task<geode::utils::web::WebResponse, geode::utils::web::WebProgress>::setListener(geode::EventListenerProtocol*)::{lambda()#2}>, void ()>::__clone(std::__ndk1::__function::__base<void ()>*) const
FUNC 1abac 3a 0 std::__ndk1::__function::__func<geode::Task<geode::utils::web::WebResponse, geode::utils::web::WebProgress>::setListener(geode::EventListenerProtocol*)::{lambda()#2}, std::__ndk1::allocator<geode::Task<geode::utils::web::WebResponse, geode::utils::web::WebProgress>::setListener(geode::EventListenerProtocol*)::{lambda()#2}>, void ()>::destroy()
FUNC 1abe6 44 0 std::__ndk1::__function::__func<geode::Task<geode::utils::web::WebResponse, geode::utils::web::WebProgress>::setListener(geode::EventListenerProtocol*)::{lambda()#2}, std::__ndk1::allocator<geode::Task<geode::utils::web::WebResponse, geode::utils::web::WebProgress>::setListener(geode::EventListenerProtocol*)::{lambda()#2}>, void ()>::destroy_deallocate()
FUNC 1ac2c 150 0 std::__ndk1::__function::__func<geode::Task<geode::utils::web::WebResponse, geode::utils::web::WebProgress>::setListener(geode::EventListenerProtocol*)::{lambda()#2}, std::__ndk1::allocator<geode::Task<geode::utils::web::WebResponse, geode::utils::web::WebProgress>::setListener(geode::EventListenerProtocol*)::{lambda()#2}>, void ()>::operator()()
FUNC 1ad7c 18 0 std::__ndk1::__function::__func<geode::Task<geode::utils::web::WebResponse, geode::utils::web::WebProgress>::setListener(geode::EventListenerProtocol*)::{lambda()#2}, std::__ndk1::allocator<geode::Task<geode::utils::web::WebResponse, geode::utils::web::WebProgress>::setListener(geode::EventListenerProtocol*)::{lambda()#2}>, void ()>::target(std::type_info const&) const
FUNC 1ad94 c 0 std::__ndk1::__function::__func<geode::Task<geode::utils::web::WebResponse, geode::utils::web::WebProgress>::setListener(geode::EventListenerProtocol*)::{lambda()#2}, std::__ndk1::allocator<geode::Task<geode::utils::web::WebResponse, geode::utils::web::WebProgress>::setListener(geode::EventListenerProtocol*)::{lambda()#2}>, void ()>::target_type() const
FUNC 1ada0 cc 0 std::__ndk1::__function::__value_func<void (geode::Task<geode::utils::web::WebResponse, geode::utils::web::WebProgress>::Event*)>::swap[abi:ne180000](std::__ndk1::__function::__value_func<void (geode::Task<geode::utils::web::WebResponse, geode::utils::web::WebProgress>::Event*)>&)
FUNC 1ae6c 4 0 std::__ndk1::__function::__func<GJGarageLayerModified::refreshCP(cocos2d::CCObject*, bool)::{lambda(geode::Task<geode::utils::web::WebResponse, geode::utils::web::WebProgress>::Event*)#1}, std::__ndk1::allocator<GJGarageLayerModified::refreshCP(cocos2d::CCObject*, bool)::{lambda(geode::Task<geode::utils::web::WebResponse, geode::utils::web::WebProgress>::Event*)#1}>, void (geode::Task<geode::utils::web::WebResponse, geode::utils::web::WebProgress>::Event*)>::~__func()
FUNC 1ae70 28 0 std::__ndk1::__function::__func<GJGarageLayerModified::refreshCP(cocos2d::CCObject*, bool)::{lambda(geode::Task<geode::utils::web::WebResponse, geode::utils::web::WebProgress>::Event*)#1}, std::__ndk1::allocator<GJGarageLayerModified::refreshCP(cocos2d::CCObject*, bool)::{lambda(geode::Task<geode::utils::web::WebResponse, geode::utils::web::WebProgress>::Event*)#1}>, void (geode::Task<geode::utils::web::WebResponse, geode::utils::web::WebProgress>::Event*)>::__clone() const
FUNC 1ae98 1c 0 std::__ndk1::__function::__func<GJGarageLayerModified::refreshCP(cocos2d::CCObject*, bool)::{lambda(geode::Task<geode::utils::web::WebResponse, geode::utils::web::WebProgress>::Event*)#1}, std::__ndk1::allocator<GJGarageLayerModified::refreshCP(cocos2d::CCObject*, bool)::{lambda(geode::Task<geode::utils::web::WebResponse, geode::utils::web::WebProgress>::Event*)#1}>, void (geode::Task<geode::utils::web::WebResponse, geode::utils::web::WebProgress>::Event*)>::__clone(std::__ndk1::__function::__base<void (geode::Task<geode::utils::web::WebResponse, geode::utils::web::WebProgress>::Event*)>*) const
FUNC 1aeb4 2 0 std::__ndk1::__function::__func<GJGarageLayerModified::refreshCP(cocos2d::CCObject*, bool)::{lambda(geode::Task<geode::utils::web::WebResponse, geode::utils::web::WebProgress>::Event*)#1}, std::__ndk1::allocator<GJGarageLayerModified::refreshCP(cocos2d::CCObject*, bool)::{lambda(geode::Task<geode::utils::web::WebResponse, geode::utils::web::WebProgress>::Event*)#1}>, void (geode::Task<geode::utils::web::WebResponse, geode::utils::web::WebProgress>::Event*)>::destroy()
FUNC 1aeb6 4 0 std::__ndk1::__function::__func<GJGarageLayerModified::refreshCP(cocos2d::CCObject*, bool)::{lambda(geode::Task<geode::utils::web::WebResponse, geode::utils::web::WebProgress>::Event*)#1}, std::__ndk1::allocator<GJGarageLayerModified::refreshCP(cocos2d::CCObject*, bool)::{lambda(geode::Task<geode::utils::web::WebResponse, geode::utils::web::WebProgress>::Event*)#1}>, void (geode::Task<geode::utils::web::WebResponse, geode::utils::web::WebProgress>::Event*)>::destroy_deallocate()
FUNC 1aebc 558 0 std::__ndk1::__function::__func<GJGarageLayerModified::refreshCP(cocos2d::CCObject*, bool)::{lambda(geode::Task<geode::utils::web::WebResponse, geode::utils::web::WebProgress>::Event*)#1}, std::__ndk1::allocator<GJGarageLayerModified::refreshCP(cocos2d::CCObject*, bool)::{lambda(geode::Task<geode::utils::web::WebResponse, geode::utils::web::WebProgress>::Event*)#1}>, void (geode::Task<geode::utils::web::WebResponse, geode::utils::web::WebProgress>::Event*)>::operator()(geode::Task<geode::utils::web::WebResponse, geode::utils::web::WebProgress>::Event*&&)
FUNC 1b414 18 0 std::__ndk1::__function::__func<GJGarageLayerModified::refreshCP(cocos2d::CCObject*, bool)::{lambda(geode::Task<geode::utils::web::WebResponse, geode::utils::web::WebProgress>::Event*)#1}, std::__ndk1::allocator<GJGarageLayerModified::refreshCP(cocos2d::CCObject*, bool)::{lambda(geode::Task<geode::utils::web::WebResponse, geode::utils::web::WebProgress>::Event*)#1}>, void (geode::Task<geode::utils::web::WebResponse, geode::utils::web::WebProgress>::Event*)>::target(std::type_info const&) const
FUNC 1b42c c 0 std::__ndk1::__function::__func<GJGarageLayerModified::refreshCP(cocos2d::CCObject*, bool)::{lambda(geode::Task<geode::utils::web::WebResponse, geode::utils::web::WebProgress>::Event*)#1}, std::__ndk1::allocator<GJGarageLayerModified::refreshCP(cocos2d::CCObject*, bool)::{lambda(geode::Task<geode::utils::web::WebResponse, geode::utils::web::WebProgress>::Event*)#1}>, void (geode::Task<geode::utils::web::WebResponse, geode::utils::web::WebProgress>::Event*)>::target_type() const
FUNC 1b438 60 0 geode::impl::ResultData<std::__ndk1::basic_string<char, std::__ndk1::char_traits<char>, std::__ndk1::allocator<char> >, std::__ndk1::basic_string<char, std::__ndk1::char_traits<char>, std::__ndk1::allocator<char> > >::~ResultData()
FUNC 1b498 6 0 GJGarageLayerModified::refreshCPWrapper(cocos2d::CCObject*)
FUNC 1b49e e 0 std::__ndk1::__variant_detail::__visitation::__base::__dispatcher<(unsigned int)0>::__dispatch[abi:ne180000]<std::__ndk1::__variant_detail::__dtor<std::__ndk1::__variant_detail::__traits<std::__ndk1::basic_string<char, std::__ndk1::char_traits<char>, std::__ndk1::allocator<char> >, std::__ndk1::allocator<char> >, (std::__ndk1::__variant_detail::_Trait)1>::__destroy[abi:ne180000]()::{lambda(auto:1&)#1}, std::__ndk1::__variant_detail::__base<(std::__ndk1::__variant_detail::__traits<std::__ndk1::basic_string<char, std::__ndk1::char_traits<char>, std::__ndk1::allocator<char> >, std::__ndk1::allocator<char> >)1, std::__ndk1::allocator<char>, std::__ndk1::allocator<char> >&>(std::__ndk1::__variant_detail::__dtor<std::__ndk1::__variant_detail::__traits<std::__ndk1::basic_string<char, std::__ndk1::char_traits<char>, std::__ndk1::allocator<char> >, std::__ndk1::allocator<char> >, (std::__ndk1::__variant_detail::_Trait)1>, std::__ndk1::__variant_detail::__base<(std::__ndk1::__variant_detail::__traits<std::__ndk1::basic_string<char, std::__ndk1::char_traits<char>, std::__ndk1::allocator<char> >, std::__ndk1::allocator<char> >)1, std::__ndk1::allocator<char>, std::__ndk1::allocator<char> >&)
FUNC 1b4ac e 0 std::__ndk1::__variant_detail::__visitation::__base::__dispatcher<(unsigned int)1>::__dispatch[abi:ne180000]<std::__ndk1::__variant_detail::__dtor<std::__ndk1::__variant_detail::__traits<std::__ndk1::basic_string<char, std::__ndk1::char_traits<char>, std::__ndk1::allocator<char> >, std::__ndk1::allocator<char> >, (std::__ndk1::__variant_detail::_Trait)1>::__destroy[abi:ne180000]()::{lambda(auto:1&)#1}, std::__ndk1::__variant_detail::__base<(std::__ndk1::__variant_detail::__traits<std::__ndk1::basic_string<char, std::__ndk1::char_traits<char>, std::__ndk1::allocator<char> >, std::__ndk1::allocator<char> >)1, std::__ndk1::allocator<char>, std::__ndk1::allocator<char> >&>(std::__ndk1::__variant_detail::__dtor<std::__ndk1::__variant_detail::__traits<std::__ndk1::basic_string<char, std::__ndk1::char_traits<char>, std::__ndk1::allocator<char> >, std::__ndk1::allocator<char> >, (std::__ndk1::__variant_detail::_Trait)1>, std::__ndk1::__variant_detail::__base<(std::__ndk1::__variant_detail::__traits<std::__ndk1::basic_string<char, std::__ndk1::char_traits<char>, std::__ndk1::allocator<char> >, std::__ndk1::allocator<char> >)1, std::__ndk1::allocator<char>, std::__ndk1::allocator<char> >&)
FUNC 1b4bc b4 0 GPFeedbackLayer::~GPFeedbackLayer()
FUNC 1b570 b8 0 GPFeedbackLayer::~GPFeedbackLayer()
FUNC 1b628 7b4 0 GPFeedbackLayer::init()
FUNC 1bddc 10 0 GPFeedbackLayer::KeyBackClicked()
FUNC 1bdec b8 0 {virtual override thunk({offset(-264)}, GPFeedbackLayer::~GPFeedbackLayer())}
FUNC 1bea4 bc 0 {virtual override thunk({offset(-264)}, GPFeedbackLayer::~GPFeedbackLayer())}
FUNC 1bf60 34 0 GPFeedbackLayer::onClick(cocos2d::CCObject*)
FUNC 1bf94 a4 0 GPFeedbackLayer::onInfoClick(cocos2d::CCObject*)
FUNC 1c038 550 0 GPFeedbackLayer::onFeedbackClick(cocos2d::CCObject*)
FUNC 1c588 2 0 std::__ndk1::__function::__base<void (geode::Task<geode::utils::web::WebResponse, geode::utils::web::WebProgress>::Event*)>::~__base()
FUNC 1c58a 4 0 std::__ndk1::__function::__func<GPFeedbackLayer::onFeedbackClick(cocos2d::CCObject*)::{lambda(geode::Task<geode::utils::web::WebResponse, geode::utils::web::WebProgress>::Event*)#1}, std::__ndk1::allocator<GPFeedbackLayer::onFeedbackClick(cocos2d::CCObject*)::{lambda(geode::Task<geode::utils::web::WebResponse, geode::utils::web::WebProgress>::Event*)#1}>, void (geode::Task<geode::utils::web::WebResponse, geode::utils::web::WebProgress>::Event*)>::~__func()
FUNC 1c590 20 0 std::__ndk1::__function::__func<GPFeedbackLayer::onFeedbackClick(cocos2d::CCObject*)::{lambda(geode::Task<geode::utils::web::WebResponse, geode::utils::web::WebProgress>::Event*)#1}, std::__ndk1::allocator<GPFeedbackLayer::onFeedbackClick(cocos2d::CCObject*)::{lambda(geode::Task<geode::utils::web::WebResponse, geode::utils::web::WebProgress>::Event*)#1}>, void (geode::Task<geode::utils::web::WebResponse, geode::utils::web::WebProgress>::Event*)>::__clone() const
FUNC 1c5b0 14 0 std::__ndk1::__function::__func<GPFeedbackLayer::onFeedbackClick(cocos2d::CCObject*)::{lambda(geode::Task<geode::utils::web::WebResponse, geode::utils::web::WebProgress>::Event*)#1}, std::__ndk1::allocator<GPFeedbackLayer::onFeedbackClick(cocos2d::CCObject*)::{lambda(geode::Task<geode::utils::web::WebResponse, geode::utils::web::WebProgress>::Event*)#1}>, void (geode::Task<geode::utils::web::WebResponse, geode::utils::web::WebProgress>::Event*)>::__clone(std::__ndk1::__function::__base<void (geode::Task<geode::utils::web::WebResponse, geode::utils::web::WebProgress>::Event*)>*) const
FUNC 1c5c4 2 0 std::__ndk1::__function::__func<GPFeedbackLayer::onFeedbackClick(cocos2d::CCObject*)::{lambda(geode::Task<geode::utils::web::WebResponse, geode::utils::web::WebProgress>::Event*)#1}, std::__ndk1::allocator<GPFeedbackLayer::onFeedbackClick(cocos2d::CCObject*)::{lambda(geode::Task<geode::utils::web::WebResponse, geode::utils::web::WebProgress>::Event*)#1}>, void (geode::Task<geode::utils::web::WebResponse, geode::utils::web::WebProgress>::Event*)>::destroy()
FUNC 1c5c6 4 0 std::__ndk1::__function::__func<GPFeedbackLayer::onFeedbackClick(cocos2d::CCObject*)::{lambda(geode::Task<geode::utils::web::WebResponse, geode::utils::web::WebProgress>::Event*)#1}, std::__ndk1::allocator<GPFeedbackLayer::onFeedbackClick(cocos2d::CCObject*)::{lambda(geode::Task<geode::utils::web::WebResponse, geode::utils::web::WebProgress>::Event*)#1}>, void (geode::Task<geode::utils::web::WebResponse, geode::utils::web::WebProgress>::Event*)>::destroy_deallocate()
FUNC 1c5cc 2a0 0 std::__ndk1::__function::__func<GPFeedbackLayer::onFeedbackClick(cocos2d::CCObject*)::{lambda(geode::Task<geode::utils::web::WebResponse, geode::utils::web::WebProgress>::Event*)#1}, std::__ndk1::allocator<GPFeedbackLayer::onFeedbackClick(cocos2d::CCObject*)::{lambda(geode::Task<geode::utils::web::WebResponse, geode::utils::web::WebProgress>::Event*)#1}>, void (geode::Task<geode::utils::web::WebResponse, geode::utils::web::WebProgress>::Event*)>::operator()(geode::Task<geode::utils::web::WebResponse, geode::utils::web::WebProgress>::Event*&&)
FUNC 1c86c 18 0 std::__ndk1::__function::__func<GPFeedbackLayer::onFeedbackClick(cocos2d::CCObject*)::{lambda(geode::Task<geode::utils::web::WebResponse, geode::utils::web::WebProgress>::Event*)#1}, std::__ndk1::allocator<GPFeedbackLayer::onFeedbackClick(cocos2d::CCObject*)::{lambda(geode::Task<geode::utils::web::WebResponse, geode::utils::web::WebProgress>::Event*)#1}>, void (geode::Task<geode::utils::web::WebResponse, geode::utils::web::WebProgress>::Event*)>::target(std::type_info const&) const
FUNC 1c884 c 0 std::__ndk1::__function::__func<GPFeedbackLayer::onFeedbackClick(cocos2d::CCObject*)::{lambda(geode::Task<geode::utils::web::WebResponse, geode::utils::web::WebProgress>::Event*)#1}, std::__ndk1::allocator<GPFeedbackLayer::onFeedbackClick(cocos2d::CCObject*)::{lambda(geode::Task<geode::utils::web::WebResponse, geode::utils::web::WebProgress>::Event*)#1}>, void (geode::Task<geode::utils::web::WebResponse, geode::utils::web::WebProgress>::Event*)>::target_type() const
FUNC 1c890 4 0 std::__ndk1::__function::__func<GPFeedbackLayer::onFeedbackClick(cocos2d::CCObject*)::{lambda(geode::Task<geode::utils::web::WebResponse, geode::utils::web::WebProgress>::Event*)#1}::operator()(geode::Task<geode::utils::web::WebResponse, geode::utils::web::WebProgress>::Event*) const::{lambda(auto:1, bool)#1}, std::__ndk1::allocator<GPFeedbackLayer::onFeedbackClick(cocos2d::CCObject*)::{lambda(geode::Task<geode::utils::web::WebResponse, geode::utils::web::WebProgress>::Event*)#1}::operator()(geode::Task<geode::utils::web::WebResponse, geode::utils::web::WebProgress>::Event*) const::{lambda(auto:1, bool)#1}>, void (FLAlertLayer*, bool)>::~__func()
FUNC 1c894 20 0 std::__ndk1::__function::__func<GPFeedbackLayer::onFeedbackClick(cocos2d::CCObject*)::{lambda(geode::Task<geode::utils::web::WebResponse, geode::utils::web::WebProgress>::Event*)#1}::operator()(geode::Task<geode::utils::web::WebResponse, geode::utils::web::WebProgress>::Event*) const::{lambda(auto:1, bool)#1}, std::__ndk1::allocator<GPFeedbackLayer::onFeedbackClick(cocos2d::CCObject*)::{lambda(geode::Task<geode::utils::web::WebResponse, geode::utils::web::WebProgress>::Event*)#1}::operator()(geode::Task<geode::utils::web::WebResponse, geode::utils::web::WebProgress>::Event*) const::{lambda(auto:1, bool)#1}>, void (FLAlertLayer*, bool)>::__clone() const
FUNC 1c8b4 14 0 std::__ndk1::__function::__func<GPFeedbackLayer::onFeedbackClick(cocos2d::CCObject*)::{lambda(geode::Task<geode::utils::web::WebResponse, geode::utils::web::WebProgress>::Event*)#1}::operator()(geode::Task<geode::utils::web::WebResponse, geode::utils::web::WebProgress>::Event*) const::{lambda(auto:1, bool)#1}, std::__ndk1::allocator<GPFeedbackLayer::onFeedbackClick(cocos2d::CCObject*)::{lambda(geode::Task<geode::utils::web::WebResponse, geode::utils::web::WebProgress>::Event*)#1}::operator()(geode::Task<geode::utils::web::WebResponse, geode::utils::web::WebProgress>::Event*) const::{lambda(auto:1, bool)#1}>, void (FLAlertLayer*, bool)>::__clone(std::__ndk1::__function::__base<void (FLAlertLayer*, bool)>*) const
FUNC 1c8c8 2 0 std::__ndk1::__function::__func<GPFeedbackLayer::onFeedbackClick(cocos2d::CCObject*)::{lambda(geode::Task<geode::utils::web::WebResponse, geode::utils::web::WebProgress>::Event*)#1}::operator()(geode::Task<geode::utils::web::WebResponse, geode::utils::web::WebProgress>::Event*) const::{lambda(auto:1, bool)#1}, std::__ndk1::allocator<GPFeedbackLayer::onFeedbackClick(cocos2d::CCObject*)::{lambda(geode::Task<geode::utils::web::WebResponse, geode::utils::web::WebProgress>::Event*)#1}::operator()(geode::Task<geode::utils::web::WebResponse, geode::utils::web::WebProgress>::Event*) const::{lambda(auto:1, bool)#1}>, void (FLAlertLayer*, bool)>::destroy()
FUNC 1c8ca 4 0 std::__ndk1::__function::__func<GPFeedbackLayer::onFeedbackClick(cocos2d::CCObject*)::{lambda(geode::Task<geode::utils::web::WebResponse, geode::utils::web::WebProgress>::Event*)#1}::operator()(geode::Task<geode::utils::web::WebResponse, geode::utils::web::WebProgress>::Event*) const::{lambda(auto:1, bool)#1}, std::__ndk1::allocator<GPFeedbackLayer::onFeedbackClick(cocos2d::CCObject*)::{lambda(geode::Task<geode::utils::web::WebResponse, geode::utils::web::WebProgress>::Event*)#1}::operator()(geode::Task<geode::utils::web::WebResponse, geode::utils::web::WebProgress>::Event*) const::{lambda(auto:1, bool)#1}>, void (FLAlertLayer*, bool)>::destroy_deallocate()
FUNC 1c8ce 34 0 std::__ndk1::__function::__func<GPFeedbackLayer::onFeedbackClick(cocos2d::CCObject*)::{lambda(geode::Task<geode::utils::web::WebResponse, geode::utils::web::WebProgress>::Event*)#1}::operator()(geode::Task<geode::utils::web::WebResponse, geode::utils::web::WebProgress>::Event*) const::{lambda(auto:1, bool)#1}, std::__ndk1::allocator<GPFeedbackLayer::onFeedbackClick(cocos2d::CCObject*)::{lambda(geode::Task<geode::utils::web::WebResponse, geode::utils::web::WebProgress>::Event*)#1}::operator()(geode::Task<geode::utils::web::WebResponse, geode::utils::web::WebProgress>::Event*) const::{lambda(auto:1, bool)#1}>, void (FLAlertLayer*, bool)>::operator()(FLAlertLayer*&&, bool&&)
FUNC 1c904 18 0 std::__ndk1::__function::__func<GPFeedbackLayer::onFeedbackClick(cocos2d::CCObject*)::{lambda(geode::Task<geode::utils::web::WebResponse, geode::utils::web::WebProgress>::Event*)#1}::operator()(geode::Task<geode::utils::web::WebResponse, geode::utils::web::WebProgress>::Event*) const::{lambda(auto:1, bool)#1}, std::__ndk1::allocator<GPFeedbackLayer::onFeedbackClick(cocos2d::CCObject*)::{lambda(geode::Task<geode::utils::web::WebResponse, geode::utils::web::WebProgress>::Event*)#1}::operator()(geode::Task<geode::utils::web::WebResponse, geode::utils::web::WebProgress>::Event*) const::{lambda(auto:1, bool)#1}>, void (FLAlertLayer*, bool)>::target(std::type_info const&) const
FUNC 1c91c c 0 std::__ndk1::__function::__func<GPFeedbackLayer::onFeedbackClick(cocos2d::CCObject*)::{lambda(geode::Task<geode::utils::web::WebResponse, geode::utils::web::WebProgress>::Event*)#1}::operator()(geode::Task<geode::utils::web::WebResponse, geode::utils::web::WebProgress>::Event*) const::{lambda(auto:1, bool)#1}, std::__ndk1::allocator<GPFeedbackLayer::onFeedbackClick(cocos2d::CCObject*)::{lambda(geode::Task<geode::utils::web::WebResponse, geode::utils::web::WebProgress>::Event*)#1}::operator()(geode::Task<geode::utils::web::WebResponse, geode::utils::web::WebProgress>::Event*) const::{lambda(auto:1, bool)#1}>, void (FLAlertLayer*, bool)>::target_type() const
FUNC 1c928 b4 0 GPKofiLayer::~GPKofiLayer()
FUNC 1c9dc b8 0 GPKofiLayer::~GPKofiLayer()
FUNC 1ca98 68c 0 GPKofiLayer::init()
FUNC 1d124 10 0 GPKofiLayer::KeyBackClicked()
FUNC 1d134 b8 0 {virtual override thunk({offset(-264)}, GPKofiLayer::~GPKofiLayer())}
FUNC 1d1ec bc 0 {virtual override thunk({offset(-264)}, GPKofiLayer::~GPKofiLayer())}
FUNC 1d2a8 84 0 GPKofiLayer::onKofiBtn(cocos2d::CCObject*)
FUNC 1d32c 20 0 geode::getMod()
FUNC 1d34c 20 0 geodeImplicitEntry
FUNC 1d36c 28 0 std::__ndk1::unordered_map<void*, bool, std::__ndk1::hash<void*>, std::__ndk1::equal_to<void*>, std::__ndk1::allocator<std::__ndk1::pair<void* const, bool> > >::~unordered_map[abi:ne180000]()
FUNC 1d394 cc 0 wrapFunction(unsigned int, tulip::hook::WrapperMetadata const&)
FUNC 1d460 48 0 geode::impl::ResultData<void*, std::__ndk1::basic_string<char, std::__ndk1::char_traits<char>, std::__ndk1::allocator<char> > >::unwrapErr() &
FUNC 1d4a8 60 0 geode::impl::ResultData<void*, std::__ndk1::basic_string<char, std::__ndk1::char_traits<char>, std::__ndk1::allocator<char> > >::~ResultData()
FUNC 1d508 46 0 tulip::hook::WrapperMetadata::~WrapperMetadata()
FUNC 1d54e 10 0 cocos2d::CCObject::~CCObject()
FUNC 1d55e 10 0 cocos2d::CCNode::~CCNode()
FUNC 1d570 1c8 0 cocos2d::CCNodeRGBA::CCNodeRGBA()
FUNC 1d738 10 0 cocos2d::CCNodeRGBA::~CCNodeRGBA()
FUNC 1d748 234 0 cocos2d::CCGLProgram::~CCGLProgram()
FUNC 1d97c 10 0 cocos2d::CCGLProgram::~CCGLProgram()
FUNC 1d98c 1c4 0 cocos2d::CCGLProgram::CCGLProgram()
FUNC 1db50 1e0 0 cocos2d::CCLayer::CCLayer()
FUNC 1dd30 8 0 {virtual override thunk({offset(-264)}, cocos2d::CCLayer::~CCLayer())}
FUNC 1dd38 10 0 cocos2d::CCLayer::~CCLayer()
FUNC 1dd48 14 0 {virtual override thunk({offset(-264)}, cocos2d::CCLayer::~CCLayer())}
FUNC 1dd5c 238 0 cocos2d::CCTexture2D::~CCTexture2D()
FUNC 1df94 10 0 cocos2d::CCTexture2D::~CCTexture2D()
FUNC 1dfa4 1c4 0 cocos2d::CCTexture2D::CCTexture2D()
FUNC 1e168 138 0 FLAlertLayer::create(FLAlertLayerProtocol*, char const*, gd::string, char const*, char const*, float, bool, float, float)
FUNC 1e2a0 310 0 tulip::hook::AbstractFunction::from<FLAlertLayer*, FLAlertLayerProtocol*, char const*, gd::string, char const*, char const*, float, bool, float, float>(FLAlertLayer* (*)(FLAlertLayerProtocol*, char const*, gd::string, char const*, char const*, float, bool, float, float))
FUNC 1e5b0 258 0 cocos2d::CCNodeRGBA::~CCNodeRGBA()
FUNC 1e808 f8 0 CCTextInputNode::setAllowedChars(gd::string)
FUNC 1e900 70 0 tulip::hook::AbstractFunction::from<void, CCTextInputNode*, gd::string>(void (*)(CCTextInputNode*, gd::string))
FUNC 1e970 2 0 cocos2d::CCObject::update(float)
FUNC 1e974 22c 0 cocos2d::CCNode::~CCNode()
FUNC 1eba0 274 0 cocos2d::CCLayer::~CCLayer()
FUNC 1ee14 42c 0 cocos2d::CCObject::~CCObject()
FUNC 1f240 f8 0 _ZN5geode15UnwrapExceptionC2IRPvQsr4implE18IsStringStreamableIT_EEENS_4impl5OkTagEOS4_
FUNC 1f338 2 0 std::__ndk1::__variant_detail::__visitation::__base::__dispatcher<(unsigned int)0>::__dispatch[abi:ne180000]<std::__ndk1::__variant_detail::__dtor<std::__ndk1::__variant_detail::__traits<void*, std::__ndk1::basic_string<char, std::__ndk1::char_traits<char>, std::__ndk1::allocator<char> > >, (std::__ndk1::__variant_detail::_Trait)1>::__destroy[abi:ne180000]()::{lambda(auto:1&)#1}, std::__ndk1::__variant_detail::__base<(std::__ndk1::__variant_detail::__traits<void*, std::__ndk1::basic_string<char, std::__ndk1::char_traits<char>, std::__ndk1::allocator<char> > >)1, std::__ndk1::__variant_detail::__traits, std::__ndk1::allocator<char> >&>(std::__ndk1::__variant_detail::__dtor<std::__ndk1::__variant_detail::__traits<void*, std::__ndk1::basic_string<char, std::__ndk1::char_traits<char>, std::__ndk1::allocator<char> > >, (std::__ndk1::__variant_detail::_Trait)1>, std::__ndk1::__variant_detail::__base<(std::__ndk1::__variant_detail::__traits<void*, std::__ndk1::basic_string<char, std::__ndk1::char_traits<char>, std::__ndk1::allocator<char> > >)1, std::__ndk1::__variant_detail::__traits, std::__ndk1::allocator<char> >&)
FUNC 1f33a e 0 std::__ndk1::__variant_detail::__visitation::__base::__dispatcher<(unsigned int)1>::__dispatch[abi:ne180000]<std::__ndk1::__variant_detail::__dtor<std::__ndk1::__variant_detail::__traits<void*, std::__ndk1::basic_string<char, std::__ndk1::char_traits<char>, std::__ndk1::allocator<char> > >, (std::__ndk1::__variant_detail::_Trait)1>::__destroy[abi:ne180000]()::{lambda(auto:1&)#1}, std::__ndk1::__variant_detail::__base<(std::__ndk1::__variant_detail::__traits<void*, std::__ndk1::basic_string<char, std::__ndk1::char_traits<char>, std::__ndk1::allocator<char> > >)1, std::__ndk1::__variant_detail::__traits, std::__ndk1::allocator<char> >&>(std::__ndk1::__variant_detail::__dtor<std::__ndk1::__variant_detail::__traits<void*, std::__ndk1::basic_string<char, std::__ndk1::char_traits<char>, std::__ndk1::allocator<char> > >, (std::__ndk1::__variant_detail::_Trait)1>, std::__ndk1::__variant_detail::__base<(std::__ndk1::__variant_detail::__traits<void*, std::__ndk1::basic_string<char, std::__ndk1::char_traits<char>, std::__ndk1::allocator<char> > >)1, std::__ndk1::__variant_detail::__traits, std::__ndk1::allocator<char> >&)
FUNC 1f348 3ea 0 std::__ndk1::__hash_table<std::__ndk1::__hash_value_type<void*, bool>, std::__ndk1::__unordered_map_hasher<void*, std::__ndk1::__hash_value_type<void*, bool>, std::__ndk1::hash<void*>, std::__ndk1::equal_to<void*>, true>, std::__ndk1::__unordered_map_equal<void*, std::__ndk1::__hash_value_type<void*, bool>, std::__ndk1::equal_to<void*>, std::__ndk1::hash<void*>, true>, std::__ndk1::allocator<std::__ndk1::__hash_value_type<void*, bool> > >::__emplace_unique_key_args<void*, std::__ndk1::piecewise_construct_t const&, std::__ndk1::tuple<void* const&>, std::__ndk1::tuple<> >(void* const&, std::__ndk1::piecewise_construct_t const&, std::__ndk1::tuple<void* const&>, std::__ndk1::tuple<>)
FUNC 1f734 10 0 std::__ndk1::vector<tulip::hook::AbstractType, std::__ndk1::allocator<tulip::hook::AbstractType> >::__throw_length_error[abi:ne180000]() const
PUBLIC 1f745 0 __ThumbV7PILongThunk__ZdlPv
PUBLIC 1f751 0 __ThumbV7PILongThunk___cxa_atexit
PUBLIC 1f75d 0 __ThumbV7PILongThunk__ZN5geode9addresser9Addresser19followThunkFunctionEi
PUBLIC 1f769 0 __ThumbV7PILongThunk__ZN5geode17openSettingsPopupEPNS_3ModE
PUBLIC 1f775 0 __ThumbV7PILongThunk__ZN7cocos2d10CCDirector12replaceSceneEPNS_7CCSceneE
PUBLIC 1f781 0 __ThumbV7PILongThunk__ZN5geode21EventListenerProtocolD2Ev
PUBLIC 1f78d 0 __ThumbV7PILongThunk__ZN5geode24DefaultEventListenerPool3getEv
PUBLIC 1f799 0 __ThumbV7PILongThunk__ZNSt6__ndk119__shared_weak_count14__release_weakEv
PUBLIC 1f7a5 0 __ThumbV7PILongThunk__ZN5geode5EventD2Ev
PUBLIC 1f7b1 0 __ThumbV7PILongThunk__ZN7cocos2d10CCDirector8popSceneEv
PUBLIC 1f7c0 0 <.plt ELF section in omgrod.garage_plus.android32.so>
STACK CFI INIT e1b4 2d0 .cfa: sp 0 +
STACK CFI e1b6 .cfa: sp 20 + .ra: .cfa -4 + ^ r7: .cfa -8 + ^ r6: .cfa -12 + ^ r5: .cfa -16 + ^ r4: .cfa -20 + ^
STACK CFI e1b8 .cfa: r7 8 +
STACK CFI e1bc r11: .cfa -24 + ^ r10: .cfa -28 + ^ r9: .cfa -32 + ^ r8: .cfa -36 + ^
STACK CFI INIT e484 20 .cfa: sp 0 +
STACK CFI e486 .cfa: sp 16 + .ra: .cfa -4 + ^ r7: .cfa -8 + ^ r6: .cfa -12 + ^ r4: .cfa -16 + ^
STACK CFI e488 .cfa: r7 8 +
STACK CFI INIT e4b0 608 .cfa: sp 0 +
STACK CFI e4b2 .cfa: sp 20 + .ra: .cfa -4 + ^ r7: .cfa -8 + ^ r6: .cfa -12 + ^ r5: .cfa -16 + ^ r4: .cfa -20 + ^
STACK CFI e4b4 .cfa: r7 8 +
STACK CFI e4b8 r10: .cfa -24 + ^ r9: .cfa -28 + ^ r8: .cfa -32 + ^
STACK CFI INIT eab8 3a .cfa: sp 0 +
STACK CFI eaba .cfa: sp 16 + .ra: .cfa -4 + ^ r7: .cfa -8 + ^ r5: .cfa -12 + ^ r4: .cfa -16 + ^
STACK CFI eabc .cfa: r7 8 +
STACK CFI INIT eaf4 60 .cfa: sp 0 +
STACK CFI eaf6 .cfa: sp 16 + .ra: .cfa -4 + ^ r7: .cfa -8 + ^ r6: .cfa -12 + ^ r4: .cfa -16 + ^
STACK CFI eaf8 .cfa: r7 8 +
STACK CFI INIT eb54 3e .cfa: sp 0 +
STACK CFI eb56 .cfa: sp 20 + .ra: .cfa -4 + ^ r7: .cfa -8 + ^ r6: .cfa -12 + ^ r5: .cfa -16 + ^ r4: .cfa -20 + ^
STACK CFI eb58 .cfa: r7 8 +
STACK CFI eb5c r11: .cfa -24 + ^
STACK CFI INIT eb92 2 .cfa: sp 0 +
STACK CFI INIT eb94 c .cfa: sp 0 +
STACK CFI eb96 .cfa: sp 8 + .ra: .cfa -4 + ^ r7: .cfa -8 + ^
STACK CFI eb98 .cfa: r7 8 +
STACK CFI INIT eba0 f8 .cfa: sp 0 +
STACK CFI eba2 .cfa: sp 20 + .ra: .cfa -4 + ^ r7: .cfa -8 + ^ r6: .cfa -12 + ^ r5: .cfa -16 + ^ r4: .cfa -20 + ^
STACK CFI eba4 .cfa: r7 8 +
STACK CFI eba8 r8: .cfa -24 + ^
STACK CFI INIT ec98 34 .cfa: sp 0 +
STACK CFI ec9a .cfa: sp 8 + .ra: .cfa -4 + ^ r7: .cfa -8 + ^
STACK CFI ec9c .cfa: r7 8 +
STACK CFI INIT eccc d8 .cfa: sp 0 +
STACK CFI ecce .cfa: sp 20 + .ra: .cfa -4 + ^ r7: .cfa -8 + ^ r6: .cfa -12 + ^ r5: .cfa -16 + ^ r4: .cfa -20 + ^
STACK CFI ecd0 .cfa: r7 8 +
STACK CFI ecd4 r11: .cfa -24 + ^ r10: .cfa -28 + ^ r9: .cfa -32 + ^ r8: .cfa -36 + ^
STACK CFI INIT eda4 68 .cfa: sp 0 +
STACK CFI eda6 .cfa: sp 20 + .ra: .cfa -4 + ^ r7: .cfa -8 + ^ r6: .cfa -12 + ^ r5: .cfa -16 + ^ r4: .cfa -20 + ^
STACK CFI eda8 .cfa: r7 8 +
STACK CFI edac r11: .cfa -24 + ^
STACK CFI INIT ee0c 10 .cfa: sp 0 +
STACK CFI ee0e .cfa: sp 8 + .ra: .cfa -4 + ^ r7: .cfa -8 + ^
STACK CFI ee10 .cfa: r7 8 +
STACK CFI INIT ee1c 108 .cfa: sp 0 +
STACK CFI ee1e .cfa: sp 20 + .ra: .cfa -4 + ^ r7: .cfa -8 + ^ r6: .cfa -12 + ^ r5: .cfa -16 + ^ r4: .cfa -20 + ^
STACK CFI ee20 .cfa: r7 8 +
STACK CFI ee24 r11: .cfa -24 + ^ r10: .cfa -28 + ^ r9: .cfa -32 + ^ r8: .cfa -36 + ^
STACK CFI INIT ef24 110 .cfa: sp 0 +
STACK CFI ef26 .cfa: sp 20 + .ra: .cfa -4 + ^ r7: .cfa -8 + ^ r6: .cfa -12 + ^ r5: .cfa -16 + ^ r4: .cfa -20 + ^
STACK CFI ef28 .cfa: r7 8 +
STACK CFI ef2c r11: .cfa -24 + ^ r10: .cfa -28 + ^ r9: .cfa -32 + ^ r8: .cfa -36 + ^
STACK CFI INIT f034 10 .cfa: sp 0 +
STACK CFI f036 .cfa: sp 8 + .ra: .cfa -4 + ^ r7: .cfa -8 + ^
STACK CFI f038 .cfa: r7 8 +
STACK CFI INIT f044 38 .cfa: sp 0 +
STACK CFI f046 .cfa: sp 16 + .ra: .cfa -4 + ^ r7: .cfa -8 + ^ r5: .cfa -12 + ^ r4: .cfa -16 + ^
STACK CFI f048 .cfa: r7 8 +
STACK CFI INIT f07c 18 .cfa: sp 0 +
STACK CFI f07e .cfa: sp 8 + .ra: .cfa -4 + ^ r7: .cfa -8 + ^
STACK CFI f080 .cfa: r7 8 +
STACK CFI INIT f094 28 .cfa: sp 0 +
STACK CFI f096 .cfa: sp 8 + .ra: .cfa -4 + ^ r7: .cfa -8 + ^
STACK CFI f098 .cfa: r7 8 +
STACK CFI INIT f0bc ce .cfa: sp 0 +
STACK CFI f0be .cfa: sp 20 + .ra: .cfa -4 + ^ r7: .cfa -8 + ^ r6: .cfa -12 + ^ r5: .cfa -16 + ^ r4: .cfa -20 + ^
STACK CFI f0c0 .cfa: r7 8 +
STACK CFI f0c4 r10: .cfa -24 + ^ r9: .cfa -28 + ^ r8: .cfa -32 + ^
STACK CFI INIT f18a e0 .cfa: sp 0 +
STACK CFI f18c .cfa: sp 20 + .ra: .cfa -4 + ^ r7: .cfa -8 + ^ r6: .cfa -12 + ^ r5: .cfa -16 + ^ r4: .cfa -20 + ^
STACK CFI f18e .cfa: r7 8 +
STACK CFI f192 r11: .cfa -24 + ^ r9: .cfa -28 + ^ r8: .cfa -32 + ^
STACK CFI INIT f26c 164 .cfa: sp 0 +
STACK CFI f26e .cfa: sp 20 + .ra: .cfa -4 + ^ r7: .cfa -8 + ^ r6: .cfa -12 + ^ r5: .cfa -16 + ^ r4: .cfa -20 + ^
STACK CFI f270 .cfa: r7 8 +
STACK CFI f274 r10: .cfa -24 + ^ r9: .cfa -28 + ^ r8: .cfa -32 + ^
STACK CFI INIT f3d0 46 .cfa: sp 0 +
STACK CFI f3d2 .cfa: sp 20 + .ra: .cfa -4 + ^ r7: .cfa -8 + ^ r6: .cfa -12 + ^ r5: .cfa -16 + ^ r4: .cfa -20 + ^
STACK CFI f3d4 .cfa: r7 8 +
STACK CFI f3d8 r8: .cfa -24 + ^
STACK CFI INIT f416 3c .cfa: sp 0 +
STACK CFI f418 .cfa: sp 16 + .ra: .cfa -4 + ^ r7: .cfa -8 + ^ r5: .cfa -12 + ^ r4: .cfa -16 + ^
STACK CFI f41a .cfa: r7 8 +
STACK CFI INIT f454 10 .cfa: sp 0 +
STACK CFI f456 .cfa: sp 8 + .ra: .cfa -4 + ^ r7: .cfa -8 + ^
STACK CFI f458 .cfa: r7 8 +
STACK CFI INIT f464 2 .cfa: sp 0 +
STACK CFI INIT f466 e .cfa: sp 0 +
STACK CFI INIT f474 c0 .cfa: sp 0 +
STACK CFI f476 .cfa: sp 20 + .ra: .cfa -4 + ^ r7: .cfa -8 + ^ r6: .cfa -12 + ^ r5: .cfa -16 + ^ r4: .cfa -20 + ^
STACK CFI f478 .cfa: r7 8 +
STACK CFI f47c r10: .cfa -24 + ^ r9: .cfa -28 + ^ r8: .cfa -32 + ^
STACK CFI INIT f534 82 .cfa: sp 0 +
STACK CFI f536 .cfa: sp 20 + .ra: .cfa -4 + ^ r7: .cfa -8 + ^ r6: .cfa -12 + ^ r5: .cfa -16 + ^ r4: .cfa -20 + ^
STACK CFI f538 .cfa: r7 8 +
STACK CFI f53c r11: .cfa -24 + ^
STACK CFI INIT f5b6 274 .cfa: sp 0 +
STACK CFI f5b8 .cfa: sp 20 + .ra: .cfa -4 + ^ r7: .cfa -8 + ^ r6: .cfa -12 + ^ r5: .cfa -16 + ^ r4: .cfa -20 + ^
STACK CFI f5ba .cfa: r7 8 +
STACK CFI f5be r8: .cfa -24 + ^
STACK CFI INIT f82a 5e .cfa: sp 0 +
STACK CFI f832 .cfa: sp 16 + .ra: .cfa -4 + ^ r7: .cfa -8 + ^ r5: .cfa -12 + ^ r4: .cfa -16 + ^
STACK CFI f834 .cfa: r7 8 +
STACK CFI INIT f888 48 .cfa: sp 0 +
STACK CFI f88a .cfa: sp 20 + .ra: .cfa -4 + ^ r7: .cfa -8 + ^ r6: .cfa -12 + ^ r5: .cfa -16 + ^ r4: .cfa -20 + ^
STACK CFI f88c .cfa: r7 8 +
STACK CFI f890 r8: .cfa -24 + ^
STACK CFI INIT f8d0 50 .cfa: sp 0 +
STACK CFI f8d2 .cfa: sp 20 + .ra: .cfa -4 + ^ r7: .cfa -8 + ^ r6: .cfa -12 + ^ r5: .cfa -16 + ^ r4: .cfa -20 + ^
STACK CFI f8d4 .cfa: r7 8 +
STACK CFI f8d8 r8: .cfa -24 + ^
STACK CFI INIT f920 3a .cfa: sp 0 +
STACK CFI f922 .cfa: sp 16 + .ra: .cfa -4 + ^ r7: .cfa -8 + ^ r5: .cfa -12 + ^ r4: .cfa -16 + ^
STACK CFI f924 .cfa: r7 8 +
STACK CFI INIT f95a 46 .cfa: sp 0 +
STACK CFI f95c .cfa: sp 16 + .ra: .cfa -4 + ^ r7: .cfa -8 + ^ r5: .cfa -12 + ^ r4: .cfa -16 + ^
STACK CFI f95e .cfa: r7 8 +
STACK CFI INIT f9a0 f8 .cfa: sp 0 +
STACK CFI f9a2 .cfa: sp 20 + .ra: .cfa -4 + ^ r7: .cfa -8 + ^ r6: .cfa -12 + ^ r5: .cfa -16 + ^ r4: .cfa -20 + ^
STACK CFI f9a4 .cfa: r7 8 +
STACK CFI f9a8 r11: .cfa -24 + ^
STACK CFI INIT fa98 8c .cfa: sp 0 +
STACK CFI fa9a .cfa: sp 20 + .ra: .cfa -4 + ^ r7: .cfa -8 + ^ r6: .cfa -12 + ^ r5: .cfa -16 + ^ r4: .cfa -20 + ^
STACK CFI fa9c .cfa: r7 8 +
STACK CFI faa0 r11: .cfa -24 + ^ r9: .cfa -28 + ^ r8: .cfa -32 + ^
STACK CFI INIT fb24 ba .cfa: sp 0 +
STACK CFI fb26 .cfa: sp 20 + .ra: .cfa -4 + ^ r7: .cfa -8 + ^ r6: .cfa -12 + ^ r5: .cfa -16 + ^ r4: .cfa -20 + ^
STACK CFI fb28 .cfa: r7 8 +
STACK CFI fb2c r11: .cfa -24 + ^ r10: .cfa -28 + ^ r9: .cfa -32 + ^ r8: .cfa -36 + ^
STACK CFI INIT fbde 14a .cfa: sp 0 +
STACK CFI fbf0 .cfa: sp 16 + .ra: .cfa -4 + ^ r7: .cfa -8 + ^ r6: .cfa -12 + ^ r4: .cfa -16 + ^
STACK CFI fbf2 .cfa: r7 8 +
STACK CFI INIT fd28 2f4 .cfa: sp 0 +
STACK CFI fd2a .cfa: sp 20 + .ra: .cfa -4 + ^ r7: .cfa -8 + ^ r6: .cfa -12 + ^ r5: .cfa -16 + ^ r4: .cfa -20 + ^
STACK CFI fd2c .cfa: r7 8 +
STACK CFI fd30 r11: .cfa -24 + ^ r10: .cfa -28 + ^ r9: .cfa -32 + ^ r8: .cfa -36 + ^
STACK CFI INIT 1001c 20 .cfa: sp 0 +
STACK CFI 1001e .cfa: sp 16 + .ra: .cfa -4 + ^ r7: .cfa -8 + ^ r6: .cfa -12 + ^ r4: .cfa -16 + ^
STACK CFI 10020 .cfa: r7 8 +
STACK CFI INIT 10040 320 .cfa: sp 0 +
STACK CFI 10042 .cfa: sp 20 + .ra: .cfa -4 + ^ r7: .cfa -8 + ^ r6: .cfa -12 + ^ r5: .cfa -16 + ^ r4: .cfa -20 + ^
STACK CFI 10044 .cfa: r7 8 +
STACK CFI 10048 r10: .cfa -24 + ^ r9: .cfa -28 + ^ r8: .cfa -32 + ^
STACK CFI INIT 10360 2 .cfa: sp 0 +
STACK CFI INIT 10364 118 .cfa: sp 0 +
STACK CFI 10366 .cfa: sp 16 + .ra: .cfa -4 + ^ r7: .cfa -8 + ^ r5: .cfa -12 + ^ r4: .cfa -16 + ^
STACK CFI 10368 .cfa: r7 8 +
STACK CFI INIT 1047c 114 .cfa: sp 0 +
STACK CFI 1047e .cfa: sp 20 + .ra: .cfa -4 + ^ r7: .cfa -8 + ^ r6: .cfa -12 + ^ r5: .cfa -16 + ^ r4: .cfa -20 + ^
STACK CFI 10480 .cfa: r7 8 +
STACK CFI 10484 r11: .cfa -24 + ^
STACK CFI INIT 10590 60 .cfa: sp 0 +
STACK CFI 10592 .cfa: sp 16 + .ra: .cfa -4 + ^ r7: .cfa -8 + ^ r6: .cfa -12 + ^ r4: .cfa -16 + ^
STACK CFI 10594 .cfa: r7 8 +
STACK CFI INIT 105f0 2 .cfa: sp 0 +
STACK CFI INIT 105f2 e .cfa: sp 0 +
STACK CFI INIT 10600 2 .cfa: sp 0 +
STACK CFI INIT 10602 e .cfa: sp 0 +
STACK CFI INIT 10610 2 .cfa: sp 0 +
STACK CFI INIT 10612 4 .cfa: sp 0 +
STACK CFI INIT 10618 18 .cfa: sp 0 +
STACK CFI 1061a .cfa: sp 8 + .ra: .cfa -4 + ^ r7: .cfa -8 + ^
STACK CFI 1061c .cfa: r7 8 +
STACK CFI INIT 10630 10 .cfa: sp 0 +
STACK CFI INIT 10640 2 .cfa: sp 0 +
STACK CFI INIT 10642 4 .cfa: sp 0 +
STACK CFI INIT 10648 a0 .cfa: sp 0 +
STACK CFI 1064a .cfa: sp 16 + .ra: .cfa -4 + ^ r7: .cfa -8 + ^ r5: .cfa -12 + ^ r4: .cfa -16 + ^
STACK CFI 1064c .cfa: r7 8 +
STACK CFI INIT 106e8 18 .cfa: sp 0 +
STACK CFI INIT 10700 c .cfa: sp 0 +
STACK CFI INIT 1070c 1b0 .cfa: sp 0 +
STACK CFI 1070e .cfa: sp 20 + .ra: .cfa -4 + ^ r7: .cfa -8 + ^ r6: .cfa -12 + ^ r5: .cfa -16 + ^ r4: .cfa -20 + ^
STACK CFI 10710 .cfa: r7 8 +
STACK CFI 10714 r8: .cfa -24 + ^
STACK CFI INIT 108bc 4f0 .cfa: sp 0 +
STACK CFI 108be .cfa: sp 20 + .ra: .cfa -4 + ^ r7: .cfa -8 + ^ r6: .cfa -12 + ^ r5: .cfa -16 + ^ r4: .cfa -20 + ^
STACK CFI 108c0 .cfa: r7 8 +
STACK CFI 108c4 r10: .cfa -24 + ^ r9: .cfa -28 + ^ r8: .cfa -32 + ^
STACK CFI INIT 10dac 6c .cfa: sp 0 +
STACK CFI 10dae .cfa: sp 20 + .ra: .cfa -4 + ^ r7: .cfa -8 + ^ r6: .cfa -12 + ^ r5: .cfa -16 + ^ r4: .cfa -20 + ^
STACK CFI 10db0 .cfa: r7 8 +
STACK CFI 10db4 r11: .cfa -24 + ^ r9: .cfa -28 + ^ r8: .cfa -32 + ^
STACK CFI INIT 10e18 6c .cfa: sp 0 +
STACK CFI 10e1a .cfa: sp 20 + .ra: .cfa -4 + ^ r7: .cfa -8 + ^ r6: .cfa -12 + ^ r5: .cfa -16 + ^ r4: .cfa -20 + ^
STACK CFI 10e1c .cfa: r7 8 +
STACK CFI 10e20 r11: .cfa -24 + ^ r9: .cfa -28 + ^ r8: .cfa -32 + ^
STACK CFI INIT 10e84 186 .cfa: sp 0 +
STACK CFI 10e86 .cfa: sp 20 + .ra: .cfa -4 + ^ r7: .cfa -8 + ^ r6: .cfa -12 + ^ r5: .cfa -16 + ^ r4: .cfa -20 + ^
STACK CFI 10e88 .cfa: r7 8 +
STACK CFI 10e8c r11: .cfa -24 + ^
STACK CFI INIT 1100a a0 .cfa: sp 0 +
STACK CFI 1100c .cfa: sp 20 + .ra: .cfa -4 + ^ r7: .cfa -8 + ^ r6: .cfa -12 + ^ r5: .cfa -16 + ^ r4: .cfa -20 + ^
STACK CFI 1100e .cfa: r7 8 +
STACK CFI 11012 r11: .cfa -24 + ^ r9: .cfa -28 + ^ r8: .cfa -32 + ^
STACK CFI INIT 110aa 64 .cfa: sp 0 +
STACK CFI 110ac .cfa: sp 20 + .ra: .cfa -4 + ^ r7: .cfa -8 + ^ r6: .cfa -12 + ^ r5: .cfa -16 + ^ r4: .cfa -20 + ^
STACK CFI 110ae .cfa: r7 8 +
STACK CFI 110b2 r11: .cfa -24 + ^
STACK CFI INIT 1110e 90 .cfa: sp 0 +
STACK CFI 11110 .cfa: sp 20 + .ra: .cfa -4 + ^ r7: .cfa -8 + ^ r6: .cfa -12 + ^ r5: .cfa -16 + ^ r4: .cfa -20 + ^
STACK CFI 11112 .cfa: r7 8 +
STACK CFI 11116 r8: .cfa -24 + ^
STACK CFI INIT 1119e 44 .cfa: sp 0 +
STACK CFI 111a0 .cfa: sp 16 + .ra: .cfa -4 + ^ r7: .cfa -8 + ^ r5: .cfa -12 + ^ r4: .cfa -16 + ^
STACK CFI 111a2 .cfa: r7 8 +
STACK CFI INIT 111e8 288 .cfa: sp 0 +
STACK CFI 111ea .cfa: sp 20 + .ra: .cfa -4 + ^ r7: .cfa -8 + ^ r6: .cfa -12 + ^ r5: .cfa -16 + ^ r4: .cfa -20 + ^
STACK CFI 111ec .cfa: r7 8 +
STACK CFI 111f0 r11: .cfa -24 + ^ r10: .cfa -28 + ^ r9: .cfa -32 + ^ r8: .cfa -36 + ^
STACK CFI INIT 11470 3fe .cfa: sp 0 +
STACK CFI 11472 .cfa: sp 20 + .ra: .cfa -4 + ^ r7: .cfa -8 + ^ r6: .cfa -12 + ^ r5: .cfa -16 + ^ r4: .cfa -20 + ^
STACK CFI 11474 .cfa: r7 8 +
STACK CFI 11478 r11: .cfa -24 + ^ r9: .cfa -28 + ^ r8: .cfa -32 + ^
STACK CFI INIT 11870 5f4 .cfa: sp 0 +
STACK CFI 11872 .cfa: sp 20 + .ra: .cfa -4 + ^ r7: .cfa -8 + ^ r6: .cfa -12 + ^ r5: .cfa -16 + ^ r4: .cfa -20 + ^
STACK CFI 11874 .cfa: r7 8 +
STACK CFI 11878 r11: .cfa -24 + ^ r10: .cfa -28 + ^ r9: .cfa -32 + ^ r8: .cfa -36 + ^
STACK CFI INIT 11e64 68c .cfa: sp 0 +
STACK CFI 11e66 .cfa: sp 20 + .ra: .cfa -4 + ^ r7: .cfa -8 + ^ r6: .cfa -12 + ^ r5: .cfa -16 + ^ r4: .cfa -20 + ^
STACK CFI 11e68 .cfa: r7 8 +
STACK CFI 11e6c r10: .cfa -24 + ^ r9: .cfa -28 + ^ r8: .cfa -32 + ^
STACK CFI INIT 124f0 1ac .cfa: sp 0 +
STACK CFI 124f2 .cfa: sp 20 + .ra: .cfa -4 + ^ r7: .cfa -8 + ^ r6: .cfa -12 + ^ r5: .cfa -16 + ^ r4: .cfa -20 + ^
STACK CFI 124f4 .cfa: r7 8 +
STACK CFI 124f8 r11: .cfa -24 + ^ r10: .cfa -28 + ^ r9: .cfa -32 + ^ r8: .cfa -36 + ^
STACK CFI INIT 1269c b98 .cfa: sp 0 +
STACK CFI 1269e .cfa: sp 20 + .ra: .cfa -4 + ^ r7: .cfa -8 + ^ r6: .cfa -12 + ^ r5: .cfa -16 + ^ r4: .cfa -20 + ^
STACK CFI 126a0 .cfa: r7 8 +
STACK CFI 126a4 r11: .cfa -24 + ^ r10: .cfa -28 + ^ r9: .cfa -32 + ^ r8: .cfa -36 + ^
STACK CFI INIT 13234 174 .cfa: sp 0 +
STACK CFI 13236 .cfa: sp 20 + .ra: .cfa -4 + ^ r7: .cfa -8 + ^ r6: .cfa -12 + ^ r5: .cfa -16 + ^ r4: .cfa -20 + ^
STACK CFI 13238 .cfa: r7 8 +
STACK CFI 1323c r11: .cfa -24 + ^ r10: .cfa -28 + ^ r9: .cfa -32 + ^ r8: .cfa -36 + ^
STACK CFI INIT 133a8 826 .cfa: sp 0 +
STACK CFI 133aa .cfa: sp 20 + .ra: .cfa -4 + ^ r7: .cfa -8 + ^ r6: .cfa -12 + ^ r5: .cfa -16 + ^ r4: .cfa -20 + ^
STACK CFI 133ac .cfa: r7 8 +
STACK CFI 133b0 r11: .cfa -24 + ^ r10: .cfa -28 + ^ r9: .cfa -32 + ^ r8: .cfa -36 + ^
STACK CFI INIT 13bd0 490 .cfa: sp 0 +
STACK CFI 13bd2 .cfa: sp 20 + .ra: .cfa -4 + ^ r7: .cfa -8 + ^ r6: .cfa -12 + ^ r5: .cfa -16 + ^ r4: .cfa -20 + ^
STACK CFI 13bd4 .cfa: r7 8 +
STACK CFI 13bd8 r11: .cfa -24 + ^ r10: .cfa -28 + ^ r9: .cfa -32 + ^ r8: .cfa -36 + ^
STACK CFI INIT 14060 5ec .cfa: sp 0 +
STACK CFI 14062 .cfa: sp 20 + .ra: .cfa -4 + ^ r7: .cfa -8 + ^ r6: .cfa -12 + ^ r5: .cfa -16 + ^ r4: .cfa -20 + ^
STACK CFI 14064 .cfa: r7 8 +
STACK CFI 14068 r11: .cfa -24 + ^ r10: .cfa -28 + ^ r9: .cfa -32 + ^ r8: .cfa -36 + ^
STACK CFI INIT 1464c e0 .cfa: sp 0 +
STACK CFI 1464e .cfa: sp 20 + .ra: .cfa -4 + ^ r7: .cfa -8 + ^ r6: .cfa -12 + ^ r5: .cfa -16 + ^ r4: .cfa -20 + ^
STACK CFI 14650 .cfa: r7 8 +
STACK CFI 14654 r11: .cfa -24 + ^ r9: .cfa -28 + ^ r8: .cfa -32 + ^
STACK CFI INIT 1472c 390 .cfa: sp 0 +
STACK CFI 1472e .cfa: sp 20 + .ra: .cfa -4 + ^ r7: .cfa -8 + ^ r6: .cfa -12 + ^ r5: .cfa -16 + ^ r4: .cfa -20 + ^
STACK CFI 14730 .cfa: r7 8 +
STACK CFI 14734 r11: .cfa -24 + ^ r10: .cfa -28 + ^ r9: .cfa -32 + ^ r8: .cfa -36 + ^
STACK CFI INIT 14abc 564 .cfa: sp 0 +
STACK CFI 14abe .cfa: sp 20 + .ra: .cfa -4 + ^ r7: .cfa -8 + ^ r6: .cfa -12 + ^ r5: .cfa -16 + ^ r4: .cfa -20 + ^
STACK CFI 14ac0 .cfa: r7 8 +
STACK CFI 14ac4 r11: .cfa -24 + ^ r10: .cfa -28 + ^ r9: .cfa -32 + ^ r8: .cfa -36 + ^
STACK CFI INIT 15020 be .cfa: sp 0 +
STACK CFI 15022 .cfa: sp 20 + .ra: .cfa -4 + ^ r7: .cfa -8 + ^ r6: .cfa -12 + ^ r5: .cfa -16 + ^ r4: .cfa -20 + ^
STACK CFI 15024 .cfa: r7 8 +
STACK CFI 15028 r10: .cfa -24 + ^ r9: .cfa -28 + ^ r8: .cfa -32 + ^
STACK CFI INIT 150de 602 .cfa: sp 0 +
STACK CFI 150e0 .cfa: sp 20 + .ra: .cfa -4 + ^ r7: .cfa -8 + ^ r6: .cfa -12 + ^ r5: .cfa -16 + ^ r4: .cfa -20 + ^
STACK CFI 150e2 .cfa: r7 8 +
STACK CFI 150e6 r11: .cfa -24 + ^ r10: .cfa -28 + ^ r9: .cfa -32 + ^ r8: .cfa -36 + ^
STACK CFI INIT 156e0 474 .cfa: sp 0 +
STACK CFI 156e2 .cfa: sp 20 + .ra: .cfa -4 + ^ r7: .cfa -8 + ^ r6: .cfa -12 + ^ r5: .cfa -16 + ^ r4: .cfa -20 + ^
STACK CFI 156e4 .cfa: r7 8 +
STACK CFI 156e8 r11: .cfa -24 + ^ r10: .cfa -28 + ^ r9: .cfa -32 + ^ r8: .cfa -36 + ^
STACK CFI INIT 15b54 f0 .cfa: sp 0 +
STACK CFI 15b56 .cfa: sp 20 + .ra: .cfa -4 + ^ r7: .cfa -8 + ^ r6: .cfa -12 + ^ r5: .cfa -16 + ^ r4: .cfa -20 + ^
STACK CFI 15b58 .cfa: r7 8 +
STACK CFI 15b5c r8: .cfa -24 + ^
STACK CFI INIT 15c44 58 .cfa: sp 0 +
STACK CFI 15c46 .cfa: sp 8 + .ra: .cfa -4 + ^ r7: .cfa -8 + ^
STACK CFI 15c48 .cfa: r7 8 +
STACK CFI INIT 15c9c 1e14 .cfa: sp 0 +
STACK CFI 15c9e .cfa: sp 20 + .ra: .cfa -4 + ^ r7: .cfa -8 + ^ r6: .cfa -12 + ^ r5: .cfa -16 + ^ r4: .cfa -20 + ^
STACK CFI 15ca0 .cfa: r7 8 +
STACK CFI 15ca4 r11: .cfa -24 + ^ r10: .cfa -28 + ^ r9: .cfa -32 + ^ r8: .cfa -36 + ^
STACK CFI INIT 17ab0 130 .cfa: sp 0 +
STACK CFI 17ab2 .cfa: sp 16 + .ra: .cfa -4 + ^ r7: .cfa -8 + ^ r5: .cfa -12 + ^ r4: .cfa -16 + ^
STACK CFI 17ab4 .cfa: r7 8 +
STACK CFI INIT 17be0 1e .cfa: sp 0 +
STACK CFI 17be2 .cfa: sp 16 + .ra: .cfa -4 + ^ r7: .cfa -8 + ^ r6: .cfa -12 + ^ r4: .cfa -16 + ^
STACK CFI 17be4 .cfa: r7 8 +
STACK CFI INIT 17c00 cc .cfa: sp 0 +
STACK CFI 17c02 .cfa: sp 20 + .ra: .cfa -4 + ^ r7: .cfa -8 + ^ r6: .cfa -12 + ^ r5: .cfa -16 + ^ r4: .cfa -20 + ^
STACK CFI 17c04 .cfa: r7 8 +
STACK CFI 17c08 r11: .cfa -24 + ^
STACK CFI INIT 17ccc 10 .cfa: sp 0 +
STACK CFI 17cce .cfa: sp 8 + .ra: .cfa -4 + ^ r7: .cfa -8 + ^
STACK CFI 17cd0 .cfa: r7 8 +
STACK CFI INIT 0 88 .cfa: sp 0 +
STACK CFI 2 .cfa: sp 20 + .ra: .cfa -4 + ^ r7: .cfa -8 + ^ r6: .cfa -12 + ^ r5: .cfa -16 + ^ r4: .cfa -20 + ^
STACK CFI 4 .cfa: r7 8 +
STACK CFI 8 r11: .cfa -24 + ^
STACK CFI INIT 0 54 .cfa: sp 0 +
STACK CFI 2 .cfa: sp 8 + .ra: .cfa -4 + ^ r7: .cfa -8 + ^
STACK CFI 4 .cfa: r7 8 +
STACK CFI INIT 17cdc 1e .cfa: sp 0 +
STACK CFI 17cde .cfa: sp 16 + .ra: .cfa -4 + ^ r7: .cfa -8 + ^ r5: .cfa -12 + ^ r4: .cfa -16 + ^
STACK CFI 17ce0 .cfa: r7 8 +
STACK CFI INIT 17cfa 4 .cfa: sp 0 +
STACK CFI INIT 17cfe 2 .cfa: sp 0 +
STACK CFI INIT 17d00 4 .cfa: sp 0 +
STACK CFI INIT 17d04 2 .cfa: sp 0 +
STACK CFI INIT 17d06 4 .cfa: sp 0 +
STACK CFI INIT 17d0a 66 .cfa: sp 0 +
STACK CFI 17d0c .cfa: sp 20 + .ra: .cfa -4 + ^ r7: .cfa -8 + ^ r6: .cfa -12 + ^ r5: .cfa -16 + ^ r4: .cfa -20 + ^
STACK CFI 17d0e .cfa: r7 8 +
STACK CFI 17d12 r11: .cfa -24 + ^ r9: .cfa -28 + ^ r8: .cfa -32 + ^
STACK CFI INIT 17d70 a6 .cfa: sp 0 +
STACK CFI 17d72 .cfa: sp 20 + .ra: .cfa -4 + ^ r7: .cfa -8 + ^ r6: .cfa -12 + ^ r5: .cfa -16 + ^ r4: .cfa -20 + ^
STACK CFI 17d74 .cfa: r7 8 +
STACK CFI 17d78 r10: .cfa -24 + ^ r9: .cfa -28 + ^ r8: .cfa -32 + ^
STACK CFI INIT 17e16 ce .cfa: sp 0 +
STACK CFI 17e18 .cfa: sp 20 + .ra: .cfa -4 + ^ r7: .cfa -8 + ^ r6: .cfa -12 + ^ r5: .cfa -16 + ^ r4: .cfa -20 + ^
STACK CFI 17e1a .cfa: r7 8 +
STACK CFI 17e1e r11: .cfa -24 + ^ r10: .cfa -28 + ^ r9: .cfa -32 + ^ r8: .cfa -36 + ^
STACK CFI INIT 17ee4 314 .cfa: sp 0 +
STACK CFI 17ee6 .cfa: sp 20 + .ra: .cfa -4 + ^ r7: .cfa -8 + ^ r6: .cfa -12 + ^ r5: .cfa -16 + ^ r4: .cfa -20 + ^
STACK CFI 17ee8 .cfa: r7 8 +
STACK CFI 17eec r11: .cfa -24 + ^ r10: .cfa -28 + ^ r9: .cfa -32 + ^ r8: .cfa -36 + ^
STACK CFI INIT 181f8 498 .cfa: sp 0 +
STACK CFI 181fa .cfa: sp 20 + .ra: .cfa -4 + ^ r7: .cfa -8 + ^ r6: .cfa -12 + ^ r5: .cfa -16 + ^ r4: .cfa -20 + ^
STACK CFI 181fc .cfa: r7 8 +
STACK CFI 18200 r11: .cfa -24 + ^ r10: .cfa -28 + ^ r9: .cfa -32 + ^ r8: .cfa -36 + ^
STACK CFI INIT 18690 20 .cfa: sp 0 +
STACK CFI 18692 .cfa: sp 16 + .ra: .cfa -4 + ^ r7: .cfa -8 + ^ r6: .cfa -12 + ^ r4: .cfa -16 + ^
STACK CFI 18694 .cfa: r7 8 +
STACK CFI INIT 186b0 2d0 .cfa: sp 0 +
STACK CFI 186b2 .cfa: sp 20 + .ra: .cfa -4 + ^ r7: .cfa -8 + ^ r6: .cfa -12 + ^ r5: .cfa -16 + ^ r4: .cfa -20 + ^
STACK CFI 186b4 .cfa: r7 8 +
STACK CFI 186b8 r11: .cfa -24 + ^ r9: .cfa -28 + ^ r8: .cfa -32 + ^
STACK CFI INIT 18980 2 .cfa: sp 0 +
STACK CFI INIT 18982 5c .cfa: sp 0 +
STACK CFI 18984 .cfa: sp 20 + .ra: .cfa -4 + ^ r7: .cfa -8 + ^ r6: .cfa -12 + ^ r5: .cfa -16 + ^ r4: .cfa -20 + ^
STACK CFI 18986 .cfa: r7 8 +
STACK CFI 1898a r11: .cfa -24 + ^
STACK CFI INIT 189e0 104 .cfa: sp 0 +
STACK CFI 189e2 .cfa: sp 20 + .ra: .cfa -4 + ^ r7: .cfa -8 + ^ r6: .cfa -12 + ^ r5: .cfa -16 + ^ r4: .cfa -20 + ^
STACK CFI 189e4 .cfa: r7 8 +
STACK CFI 189e8 r8: .cfa -24 + ^
STACK CFI INIT 18ae4 2 .cfa: sp 0 +
STACK CFI INIT 18ae6 e .cfa: sp 0 +
STACK CFI INIT 18af4 7c .cfa: sp 0 +
STACK CFI 18af6 .cfa: sp 16 + .ra: .cfa -4 + ^ r7: .cfa -8 + ^ r6: .cfa -12 + ^ r4: .cfa -16 + ^
STACK CFI 18af8 .cfa: r7 8 +
STACK CFI INIT 18b70 a28 .cfa: sp 0 +
STACK CFI 18b72 .cfa: sp 20 + .ra: .cfa -4 + ^ r7: .cfa -8 + ^ r6: .cfa -12 + ^ r5: .cfa -16 + ^ r4: .cfa -20 + ^
STACK CFI 18b74 .cfa: r7 8 +
STACK CFI 18b78 r11: .cfa -24 + ^ r10: .cfa -28 + ^ r9: .cfa -32 + ^ r8: .cfa -36 + ^
STACK CFI INIT 19598 a4 .cfa: sp 0 +
STACK CFI 1959a .cfa: sp 20 + .ra: .cfa -4 + ^ r7: .cfa -8 + ^ r6: .cfa -12 + ^ r5: .cfa -16 + ^ r4: .cfa -20 + ^
STACK CFI 1959c .cfa: r7 8 +
STACK CFI 195a0 r11: .cfa -24 + ^
STACK CFI INIT 1963c 2 .cfa: sp 0 +
STACK CFI INIT 1963e 2 .cfa: sp 0 +
STACK CFI INIT 19640 2 .cfa: sp 0 +
STACK CFI INIT 19642 2 .cfa: sp 0 +
STACK CFI INIT 19644 358 .cfa: sp 0 +
STACK CFI 19646 .cfa: sp 20 + .ra: .cfa -4 + ^ r7: .cfa -8 + ^ r6: .cfa -12 + ^ r5: .cfa -16 + ^ r4: .cfa -20 + ^
STACK CFI 19648 .cfa: r7 8 +
STACK CFI 1964c r11: .cfa -24 + ^ r10: .cfa -28 + ^ r9: .cfa -32 + ^ r8: .cfa -36 + ^
STACK CFI INIT 1999c 2c .cfa: sp 0 +
STACK CFI 1999e .cfa: sp 16 + .ra: .cfa -4 + ^ r7: .cfa -8 + ^ r6: .cfa -12 + ^ r4: .cfa -16 + ^
STACK CFI 199a0 .cfa: r7 8 +
STACK CFI INIT 199c8 148 .cfa: sp 0 +
STACK CFI 199ca .cfa: sp 20 + .ra: .cfa -4 + ^ r7: .cfa -8 + ^ r6: .cfa -12 + ^ r5: .cfa -16 + ^ r4: .cfa -20 + ^
STACK CFI 199cc .cfa: r7 8 +
STACK CFI 199d0 r11: .cfa -24 + ^ r9: .cfa -28 + ^ r8: .cfa -32 + ^
STACK CFI INIT 19b10 2 .cfa: sp 0 +
STACK CFI INIT 19b14 148 .cfa: sp 0 +
STACK CFI 19b16 .cfa: sp 20 + .ra: .cfa -4 + ^ r7: .cfa -8 + ^ r6: .cfa -12 + ^ r5: .cfa -16 + ^ r4: .cfa -20 + ^
STACK CFI 19b18 .cfa: r7 8 +
STACK CFI 19b1c r11: .cfa -24 + ^ r9: .cfa -28 + ^ r8: .cfa -32 + ^
STACK CFI INIT 19c5c 3a .cfa: sp 0 +
STACK CFI 19c5e .cfa: sp 16 + .ra: .cfa -4 + ^ r7: .cfa -8 + ^ r5: .cfa -12 + ^ r4: .cfa -16 + ^
STACK CFI 19c60 .cfa: r7 8 +
STACK CFI INIT 19c98 548 .cfa: sp 0 +
STACK CFI 19c9a .cfa: sp 20 + .ra: .cfa -4 + ^ r7: .cfa -8 + ^ r6: .cfa -12 + ^ r5: .cfa -16 + ^ r4: .cfa -20 + ^
STACK CFI 19c9c .cfa: r7 8 +
STACK CFI 19ca0 r11: .cfa -24 + ^ r10: .cfa -28 + ^ r9: .cfa -32 + ^ r8: .cfa -36 + ^
STACK CFI INIT 1a1e0 68 .cfa: sp 0 +
STACK CFI 1a1e2 .cfa: sp 16 + .ra: .cfa -4 + ^ r7: .cfa -8 + ^ r5: .cfa -12 + ^ r4: .cfa -16 + ^
STACK CFI 1a1e4 .cfa: r7 8 +
STACK CFI INIT 1a248 10 .cfa: sp 0 +
STACK CFI 1a24a .cfa: sp 8 + .ra: .cfa -4 + ^ r7: .cfa -8 + ^
STACK CFI 1a24c .cfa: r7 8 +
STACK CFI INIT 1a258 10 .cfa: sp 0 +
STACK CFI 1a25a .cfa: sp 8 + .ra: .cfa -4 + ^ r7: .cfa -8 + ^
STACK CFI 1a25c .cfa: r7 8 +
STACK CFI INIT 1a268 8 .cfa: sp 0 +
STACK CFI 1a26a .cfa: sp 8 + .ra: .cfa -4 + ^ r7: .cfa -8 + ^
STACK CFI 1a26c .cfa: r7 8 +
STACK CFI INIT 1a270 3c .cfa: sp 0 +
STACK CFI 1a272 .cfa: sp 16 + .ra: .cfa -4 + ^ r7: .cfa -8 + ^ r6: .cfa -12 + ^ r4: .cfa -16 + ^
STACK CFI 1a274 .cfa: r7 8 +
STACK CFI INIT 1a2ac 18 .cfa: sp 0 +
STACK CFI 1a2ae .cfa: sp 8 + .ra: .cfa -4 + ^ r7: .cfa -8 + ^
STACK CFI 1a2b0 .cfa: r7 8 +
STACK CFI INIT 1a2c4 8 .cfa: sp 0 +
STACK CFI 1a2c6 .cfa: sp 8 + .ra: .cfa -4 + ^ r7: .cfa -8 + ^
STACK CFI 1a2c8 .cfa: r7 8 +
STACK CFI INIT 1a2cc 68 .cfa: sp 0 +
STACK CFI 1a2ce .cfa: sp 16 + .ra: .cfa -4 + ^ r7: .cfa -8 + ^ r5: .cfa -12 + ^ r4: .cfa -16 + ^
STACK CFI 1a2d0 .cfa: r7 8 +
STACK CFI INIT 1a334 4 .cfa: sp 0 +
STACK CFI INIT 1a338 e8 .cfa: sp 0 +
STACK CFI 1a33a .cfa: sp 16 + .ra: .cfa -4 + ^ r7: .cfa -8 + ^ r5: .cfa -12 + ^ r4: .cfa -16 + ^
STACK CFI 1a33c .cfa: r7 8 +
STACK CFI INIT 1a420 6c .cfa: sp 0 +
STACK CFI 1a422 .cfa: sp 16 + .ra: .cfa -4 + ^ r7: .cfa -8 + ^ r5: .cfa -12 + ^ r4: .cfa -16 + ^
STACK CFI 1a424 .cfa: r7 8 +
STACK CFI INIT 1a48c 34 .cfa: sp 0 +
STACK CFI 1a48e .cfa: sp 8 + .ra: .cfa -4 + ^ r7: .cfa -8 + ^
STACK CFI 1a490 .cfa: r7 8 +
STACK CFI INIT 1a4c0 10 .cfa: sp 0 +
STACK CFI 1a4c2 .cfa: sp 8 + .ra: .cfa -4 + ^ r7: .cfa -8 + ^
STACK CFI 1a4c4 .cfa: r7 8 +
STACK CFI INIT 1a4d0 2 .cfa: sp 0 +
STACK CFI INIT 1a4d2 4 .cfa: sp 0 +
STACK CFI INIT 1a4d8 20 .cfa: sp 0 +
STACK CFI 1a4da .cfa: sp 16 + .ra: .cfa -4 + ^ r7: .cfa -8 + ^ r6: .cfa -12 + ^ r4: .cfa -16 + ^
STACK CFI 1a4dc .cfa: r7 8 +
STACK CFI INIT 1a4f8 14 .cfa: sp 0 +
STACK CFI INIT 1a50c 2 .cfa: sp 0 +
STACK CFI INIT 1a50e 4 .cfa: sp 0 +
STACK CFI INIT 1a512 8 .cfa: sp 0 +
STACK CFI INIT 1a51c 18 .cfa: sp 0 +
STACK CFI INIT 1a534 c .cfa: sp 0 +
STACK CFI INIT 1a540 168 .cfa: sp 0 +
STACK CFI 1a542 .cfa: sp 20 + .ra: .cfa -4 + ^ r7: .cfa -8 + ^ r6: .cfa -12 + ^ r5: .cfa -16 + ^ r4: .cfa -20 + ^
STACK CFI 1a544 .cfa: r7 8 +
STACK CFI 1a548 r11: .cfa -24 + ^ r9: .cfa -28 + ^ r8: .cfa -32 + ^
STACK CFI INIT 1a6a8 3a .cfa: sp 0 +
STACK CFI 1a6aa .cfa: sp 16 + .ra: .cfa -4 + ^ r7: .cfa -8 + ^ r5: .cfa -12 + ^ r4: .cfa -16 + ^
STACK CFI 1a6ac .cfa: r7 8 +
STACK CFI INIT 1a6e2 3a .cfa: sp 0 +
STACK CFI 1a6e4 .cfa: sp 16 + .ra: .cfa -4 + ^ r7: .cfa -8 + ^ r5: .cfa -12 + ^ r4: .cfa -16 + ^
STACK CFI 1a6e6 .cfa: r7 8 +
STACK CFI INIT 1a71c 48 .cfa: sp 0 +
STACK CFI 1a71e .cfa: sp 16 + .ra: .cfa -4 + ^ r7: .cfa -8 + ^ r5: .cfa -12 + ^ r4: .cfa -16 + ^
STACK CFI 1a720 .cfa: r7 8 +
STACK CFI INIT 1a764 54 .cfa: sp 0 +
STACK CFI 1a766 .cfa: sp 16 + .ra: .cfa -4 + ^ r7: .cfa -8 + ^ r5: .cfa -12 + ^ r4: .cfa -16 + ^
STACK CFI 1a768 .cfa: r7 8 +
STACK CFI INIT 1a7b8 40 .cfa: sp 0 +
STACK CFI 1a7ba .cfa: sp 16 + .ra: .cfa -4 + ^ r7: .cfa -8 + ^ r6: .cfa -12 + ^ r4: .cfa -16 + ^
STACK CFI 1a7bc .cfa: r7 8 +
STACK CFI INIT 1a7f8 34 .cfa: sp 0 +
STACK CFI INIT 1a82c 3a .cfa: sp 0 +
STACK CFI 1a82e .cfa: sp 16 + .ra: .cfa -4 + ^ r7: .cfa -8 + ^ r6: .cfa -12 + ^ r4: .cfa -16 + ^
STACK CFI 1a830 .cfa: r7 8 +
STACK CFI INIT 1a866 44 .cfa: sp 0 +
STACK CFI 1a868 .cfa: sp 16 + .ra: .cfa -4 + ^ r7: .cfa -8 + ^ r5: .cfa -12 + ^ r4: .cfa -16 + ^
STACK CFI 1a86a .cfa: r7 8 +
STACK CFI INIT 1a8ac 150 .cfa: sp 0 +
STACK CFI 1a8ae .cfa: sp 20 + .ra: .cfa -4 + ^ r7: .cfa -8 + ^ r6: .cfa -12 + ^ r5: .cfa -16 + ^ r4: .cfa -20 + ^
STACK CFI 1a8b0 .cfa: r7 8 +
STACK CFI 1a8b4 r11: .cfa -24 + ^
STACK CFI INIT 1a9fc 18 .cfa: sp 0 +
STACK CFI INIT 1aa14 c .cfa: sp 0 +
STACK CFI INIT 1aa20 44 .cfa: sp 0 +
STACK CFI 1aa22 .cfa: sp 16 + .ra: .cfa -4 + ^ r7: .cfa -8 + ^ r5: .cfa -12 + ^ r4: .cfa -16 + ^
STACK CFI 1aa24 .cfa: r7 8 +
STACK CFI INIT 1aa64 40 .cfa: sp 0 +
STACK CFI 1aa66 .cfa: sp 16 + .ra: .cfa -4 + ^ r7: .cfa -8 + ^ r5: .cfa -12 + ^ r4: .cfa -16 + ^
STACK CFI 1aa68 .cfa: r7 8 +
STACK CFI INIT 1aaa4 48 .cfa: sp 0 +
STACK CFI 1aaa6 .cfa: sp 16 + .ra: .cfa -4 + ^ r7: .cfa -8 + ^ r5: .cfa -12 + ^ r4: .cfa -16 + ^
STACK CFI 1aaa8 .cfa: r7 8 +
STACK CFI INIT 1aaec 54 .cfa: sp 0 +
STACK CFI 1aaee .cfa: sp 16 + .ra: .cfa -4 + ^ r7: .cfa -8 + ^ r5: .cfa -12 + ^ r4: .cfa -16 + ^
STACK CFI 1aaf0 .cfa: r7 8 +
STACK CFI INIT 1ab40 3c .cfa: sp 0 +
STACK CFI 1ab42 .cfa: sp 16 + .ra: .cfa -4 + ^ r7: .cfa -8 + ^ r6: .cfa -12 + ^ r4: .cfa -16 + ^
STACK CFI 1ab44 .cfa: r7 8 +
STACK CFI INIT 1ab7c 30 .cfa: sp 0 +
STACK CFI INIT 1abac 3a .cfa: sp 0 +
STACK CFI 1abae .cfa: sp 16 + .ra: .cfa -4 + ^ r7: .cfa -8 + ^ r6: .cfa -12 + ^ r4: .cfa -16 + ^
STACK CFI 1abb0 .cfa: r7 8 +
STACK CFI INIT 1abe6 44 .cfa: sp 0 +
STACK CFI 1abe8 .cfa: sp 16 + .ra: .cfa -4 + ^ r7: .cfa -8 + ^ r5: .cfa -12 + ^ r4: .cfa -16 + ^
STACK CFI 1abea .cfa: r7 8 +
STACK CFI INIT 1ac2c 150 .cfa: sp 0 +
STACK CFI 1ac2e .cfa: sp 20 + .ra: .cfa -4 + ^ r7: .cfa -8 + ^ r6: .cfa -12 + ^ r5: .cfa -16 + ^ r4: .cfa -20 + ^
STACK CFI 1ac30 .cfa: r7 8 +
STACK CFI 1ac34 r11: .cfa -24 + ^
STACK CFI INIT 1ad7c 18 .cfa: sp 0 +
STACK CFI INIT 1ad94 c .cfa: sp 0 +
STACK CFI INIT 1ada0 cc .cfa: sp 0 +
STACK CFI 1ada2 .cfa: sp 20 + .ra: .cfa -4 + ^ r7: .cfa -8 + ^ r6: .cfa -12 + ^ r5: .cfa -16 + ^ r4: .cfa -20 + ^
STACK CFI 1ada4 .cfa: r7 8 +
STACK CFI 1ada8 r11: .cfa -24 + ^
STACK CFI INIT 1ae6c 4 .cfa: sp 0 +
STACK CFI INIT 1ae70 28 .cfa: sp 0 +
STACK CFI 1ae72 .cfa: sp 16 + .ra: .cfa -4 + ^ r7: .cfa -8 + ^ r6: .cfa -12 + ^ r4: .cfa -16 + ^
STACK CFI 1ae74 .cfa: r7 8 +
STACK CFI INIT 1ae98 1c .cfa: sp 0 +
STACK CFI INIT 1aeb4 2 .cfa: sp 0 +
STACK CFI INIT 1aeb6 4 .cfa: sp 0 +
STACK CFI INIT 1aebc 558 .cfa: sp 0 +
STACK CFI 1aebe .cfa: sp 20 + .ra: .cfa -4 + ^ r7: .cfa -8 + ^ r6: .cfa -12 + ^ r5: .cfa -16 + ^ r4: .cfa -20 + ^
STACK CFI 1aec0 .cfa: r7 8 +
STACK CFI 1aec4 r11: .cfa -24 + ^ r10: .cfa -28 + ^ r9: .cfa -32 + ^ r8: .cfa -36 + ^
STACK CFI INIT 1b414 18 .cfa: sp 0 +
STACK CFI INIT 1b42c c .cfa: sp 0 +
STACK CFI INIT 1b438 60 .cfa: sp 0 +
STACK CFI 1b43a .cfa: sp 16 + .ra: .cfa -4 + ^ r7: .cfa -8 + ^ r6: .cfa -12 + ^ r4: .cfa -16 + ^
STACK CFI 1b43c .cfa: r7 8 +
STACK CFI INIT 1b498 6 .cfa: sp 0 +
STACK CFI INIT 1b49e e .cfa: sp 0 +
STACK CFI INIT 1b4ac e .cfa: sp 0 +
STACK CFI INIT 1b4bc b4 .cfa: sp 0 +
STACK CFI 1b4be .cfa: sp 20 + .ra: .cfa -4 + ^ r7: .cfa -8 + ^ r6: .cfa -12 + ^ r5: .cfa -16 + ^ r4: .cfa -20 + ^
STACK CFI 1b4c0 .cfa: r7 8 +
STACK CFI 1b4c4 r8: .cfa -24 + ^
STACK CFI INIT 1b570 b8 .cfa: sp 0 +
STACK CFI 1b572 .cfa: sp 20 + .ra: .cfa -4 + ^ r7: .cfa -8 + ^ r6: .cfa -12 + ^ r5: .cfa -16 + ^ r4: .cfa -20 + ^
STACK CFI 1b574 .cfa: r7 8 +
STACK CFI 1b578 r8: .cfa -24 + ^
STACK CFI INIT 1b628 7b4 .cfa: sp 0 +
STACK CFI 1b62a .cfa: sp 20 + .ra: .cfa -4 + ^ r7: .cfa -8 + ^ r6: .cfa -12 + ^ r5: .cfa -16 + ^ r4: .cfa -20 + ^
STACK CFI 1b62c .cfa: r7 8 +
STACK CFI 1b630 r10: .cfa -24 + ^ r9: .cfa -28 + ^ r8: .cfa -32 + ^
STACK CFI INIT 1bddc 10 .cfa: sp 0 +
STACK CFI 1bdde .cfa: sp 8 + .ra: .cfa -4 + ^ r7: .cfa -8 + ^
STACK CFI 1bde0 .cfa: r7 8 +
STACK CFI INIT 1bdec b8 .cfa: sp 0 +
STACK CFI 1bdee .cfa: sp 20 + .ra: .cfa -4 + ^ r7: .cfa -8 + ^ r6: .cfa -12 + ^ r5: .cfa -16 + ^ r4: .cfa -20 + ^
STACK CFI 1bdf0 .cfa: r7 8 +
STACK CFI 1bdf4 r11: .cfa -24 + ^ r9: .cfa -28 + ^ r8: .cfa -32 + ^
STACK CFI INIT 1bea4 bc .cfa: sp 0 +
STACK CFI 1bea6 .cfa: sp 20 + .ra: .cfa -4 + ^ r7: .cfa -8 + ^ r6: .cfa -12 + ^ r5: .cfa -16 + ^ r4: .cfa -20 + ^
STACK CFI 1bea8 .cfa: r7 8 +
STACK CFI 1beac r11: .cfa -24 + ^ r9: .cfa -28 + ^ r8: .cfa -32 + ^
STACK CFI INIT 1bf60 34 .cfa: sp 0 +
STACK CFI 1bf62 .cfa: sp 16 + .ra: .cfa -4 + ^ r7: .cfa -8 + ^ r6: .cfa -12 + ^ r4: .cfa -16 + ^
STACK CFI 1bf64 .cfa: r7 8 +
STACK CFI INIT 1bf94 a4 .cfa: sp 0 +
STACK CFI 1bf96 .cfa: sp 16 + .ra: .cfa -4 + ^ r7: .cfa -8 + ^ r6: .cfa -12 + ^ r4: .cfa -16 + ^
STACK CFI 1bf98 .cfa: r7 8 +
STACK CFI INIT 1c038 550 .cfa: sp 0 +
STACK CFI 1c03a .cfa: sp 20 + .ra: .cfa -4 + ^ r7: .cfa -8 + ^ r6: .cfa -12 + ^ r5: .cfa -16 + ^ r4: .cfa -20 + ^
STACK CFI 1c03c .cfa: r7 8 +
STACK CFI 1c040 r11: .cfa -24 + ^ r10: .cfa -28 + ^ r9: .cfa -32 + ^ r8: .cfa -36 + ^
STACK CFI INIT 1c588 2 .cfa: sp 0 +
STACK CFI INIT 1c58a 4 .cfa: sp 0 +
STACK CFI INIT 1c590 20 .cfa: sp 0 +
STACK CFI 1c592 .cfa: sp 16 + .ra: .cfa -4 + ^ r7: .cfa -8 + ^ r6: .cfa -12 + ^ r4: .cfa -16 + ^
STACK CFI 1c594 .cfa: r7 8 +
STACK CFI INIT 1c5b0 14 .cfa: sp 0 +
STACK CFI INIT 1c5c4 2 .cfa: sp 0 +
STACK CFI INIT 1c5c6 4 .cfa: sp 0 +
STACK CFI INIT 1c5cc 2a0 .cfa: sp 0 +
STACK CFI 1c5ce .cfa: sp 20 + .ra: .cfa -4 + ^ r7: .cfa -8 + ^ r6: .cfa -12 + ^ r5: .cfa -16 + ^ r4: .cfa -20 + ^
STACK CFI 1c5d0 .cfa: r7 8 +
STACK CFI 1c5d4 r10: .cfa -24 + ^ r9: .cfa -28 + ^ r8: .cfa -32 + ^
STACK CFI INIT 1c86c 18 .cfa: sp 0 +
STACK CFI INIT 1c884 c .cfa: sp 0 +
STACK CFI INIT 1c890 4 .cfa: sp 0 +
STACK CFI INIT 1c894 20 .cfa: sp 0 +
STACK CFI 1c896 .cfa: sp 16 + .ra: .cfa -4 + ^ r7: .cfa -8 + ^ r6: .cfa -12 + ^ r4: .cfa -16 + ^
STACK CFI 1c898 .cfa: r7 8 +
STACK CFI INIT 1c8b4 14 .cfa: sp 0 +
STACK CFI INIT 1c8c8 2 .cfa: sp 0 +
STACK CFI INIT 1c8ca 4 .cfa: sp 0 +
STACK CFI INIT 1c8ce 34 .cfa: sp 0 +
STACK CFI 1c8d0 .cfa: sp 16 + .ra: .cfa -4 + ^ r7: .cfa -8 + ^ r6: .cfa -12 + ^ r4: .cfa -16 + ^
STACK CFI 1c8d2 .cfa: r7 8 +
STACK CFI INIT 1c904 18 .cfa: sp 0 +
STACK CFI INIT 1c91c c .cfa: sp 0 +
STACK CFI INIT 1c928 b4 .cfa: sp 0 +
STACK CFI 1c92a .cfa: sp 20 + .ra: .cfa -4 + ^ r7: .cfa -8 + ^ r6: .cfa -12 + ^ r5: .cfa -16 + ^ r4: .cfa -20 + ^
STACK CFI 1c92c .cfa: r7 8 +
STACK CFI 1c930 r8: .cfa -24 + ^
STACK CFI INIT 1c9dc b8 .cfa: sp 0 +
STACK CFI 1c9de .cfa: sp 20 + .ra: .cfa -4 + ^ r7: .cfa -8 + ^ r6: .cfa -12 + ^ r5: .cfa -16 + ^ r4: .cfa -20 + ^
STACK CFI 1c9e0 .cfa: r7 8 +
STACK CFI 1c9e4 r8: .cfa -24 + ^
STACK CFI INIT 1ca98 68c .cfa: sp 0 +
STACK CFI 1ca9a .cfa: sp 20 + .ra: .cfa -4 + ^ r7: .cfa -8 + ^ r6: .cfa -12 + ^ r5: .cfa -16 + ^ r4: .cfa -20 + ^
STACK CFI 1ca9c .cfa: r7 8 +
STACK CFI 1caa0 r11: .cfa -24 + ^ r10: .cfa -28 + ^ r9: .cfa -32 + ^ r8: .cfa -36 + ^
STACK CFI INIT 1d124 10 .cfa: sp 0 +
STACK CFI 1d126 .cfa: sp 8 + .ra: .cfa -4 + ^ r7: .cfa -8 + ^
STACK CFI 1d128 .cfa: r7 8 +
STACK CFI INIT 1d134 b8 .cfa: sp 0 +
STACK CFI 1d136 .cfa: sp 20 + .ra: .cfa -4 + ^ r7: .cfa -8 + ^ r6: .cfa -12 + ^ r5: .cfa -16 + ^ r4: .cfa -20 + ^
STACK CFI 1d138 .cfa: r7 8 +
STACK CFI 1d13c r11: .cfa -24 + ^ r9: .cfa -28 + ^ r8: .cfa -32 + ^
STACK CFI INIT 1d1ec bc .cfa: sp 0 +
STACK CFI 1d1ee .cfa: sp 20 + .ra: .cfa -4 + ^ r7: .cfa -8 + ^ r6: .cfa -12 + ^ r5: .cfa -16 + ^ r4: .cfa -20 + ^
STACK CFI 1d1f0 .cfa: r7 8 +
STACK CFI 1d1f4 r11: .cfa -24 + ^ r9: .cfa -28 + ^ r8: .cfa -32 + ^
STACK CFI INIT 1d2a8 84 .cfa: sp 0 +
STACK CFI 1d2aa .cfa: sp 8 + .ra: .cfa -4 + ^ r7: .cfa -8 + ^
STACK CFI 1d2ac .cfa: r7 8 +
STACK CFI INIT 1d32c 20 .cfa: sp 0 +
STACK CFI 1d32e .cfa: sp 16 + .ra: .cfa -4 + ^ r7: .cfa -8 + ^ r6: .cfa -12 + ^ r4: .cfa -16 + ^
STACK CFI 1d330 .cfa: r7 8 +
STACK CFI INIT 1d34c 20 .cfa: sp 0 +
STACK CFI 1d34e .cfa: sp 16 + .ra: .cfa -4 + ^ r7: .cfa -8 + ^ r6: .cfa -12 + ^ r4: .cfa -16 + ^
STACK CFI 1d350 .cfa: r7 8 +
STACK CFI INIT 1d36c 28 .cfa: sp 0 +
STACK CFI 1d36e .cfa: sp 16 + .ra: .cfa -4 + ^ r7: .cfa -8 + ^ r5: .cfa -12 + ^ r4: .cfa -16 + ^
STACK CFI 1d370 .cfa: r7 8 +
STACK CFI INIT 1d394 cc .cfa: sp 0 +
STACK CFI 1d396 .cfa: sp 16 + .ra: .cfa -4 + ^ r7: .cfa -8 + ^ r6: .cfa -12 + ^ r4: .cfa -16 + ^
STACK CFI 1d398 .cfa: r7 8 +
STACK CFI INIT 1d460 48 .cfa: sp 0 +
STACK CFI 1d462 .cfa: sp 16 + .ra: .cfa -4 + ^ r7: .cfa -8 + ^ r5: .cfa -12 + ^ r4: .cfa -16 + ^
STACK CFI 1d464 .cfa: r7 8 +
STACK CFI INIT 1d4a8 60 .cfa: sp 0 +
STACK CFI 1d4aa .cfa: sp 16 + .ra: .cfa -4 + ^ r7: .cfa -8 + ^ r6: .cfa -12 + ^ r4: .cfa -16 + ^
STACK CFI 1d4ac .cfa: r7 8 +
STACK CFI INIT 1d508 46 .cfa: sp 0 +
STACK CFI 1d50a .cfa: sp 16 + .ra: .cfa -4 + ^ r7: .cfa -8 + ^ r5: .cfa -12 + ^ r4: .cfa -16 + ^
STACK CFI 1d50c .cfa: r7 8 +
STACK CFI INIT 1d54e 10 .cfa: sp 0 +
STACK CFI 1d550 .cfa: sp 8 + .ra: .cfa -4 + ^ r7: .cfa -8 + ^
STACK CFI 1d552 .cfa: r7 8 +
STACK CFI INIT 1d55e 10 .cfa: sp 0 +
STACK CFI 1d560 .cfa: sp 8 + .ra: .cfa -4 + ^ r7: .cfa -8 + ^
STACK CFI 1d562 .cfa: r7 8 +
STACK CFI INIT 1d570 1c8 .cfa: sp 0 +
STACK CFI 1d572 .cfa: sp 20 + .ra: .cfa -4 + ^ r7: .cfa -8 + ^ r6: .cfa -12 + ^ r5: .cfa -16 + ^ r4: .cfa -20 + ^
STACK CFI 1d574 .cfa: r7 8 +
STACK CFI 1d578 r8: .cfa -24 + ^
STACK CFI INIT 1d738 10 .cfa: sp 0 +
STACK CFI 1d73a .cfa: sp 8 + .ra: .cfa -4 + ^ r7: .cfa -8 + ^
STACK CFI 1d73c .cfa: r7 8 +
STACK CFI INIT 1d748 234 .cfa: sp 0 +
STACK CFI 1d74a .cfa: sp 20 + .ra: .cfa -4 + ^ r7: .cfa -8 + ^ r6: .cfa -12 + ^ r5: .cfa -16 + ^ r4: .cfa -20 + ^
STACK CFI 1d74c .cfa: r7 8 +
STACK CFI 1d750 r11: .cfa -24 + ^ r10: .cfa -28 + ^ r9: .cfa -32 + ^ r8: .cfa -36 + ^
STACK CFI INIT 1d97c 10 .cfa: sp 0 +
STACK CFI 1d97e .cfa: sp 8 + .ra: .cfa -4 + ^ r7: .cfa -8 + ^
STACK CFI 1d980 .cfa: r7 8 +
STACK CFI INIT 1d98c 1c4 .cfa: sp 0 +
STACK CFI 1d98e .cfa: sp 20 + .ra: .cfa -4 + ^ r7: .cfa -8 + ^ r6: .cfa -12 + ^ r5: .cfa -16 + ^ r4: .cfa -20 + ^
STACK CFI 1d990 .cfa: r7 8 +
STACK CFI 1d994 r11: .cfa -24 + ^ r9: .cfa -28 + ^ r8: .cfa -32 + ^
STACK CFI INIT 1db50 1e0 .cfa: sp 0 +
STACK CFI 1db52 .cfa: sp 20 + .ra: .cfa -4 + ^ r7: .cfa -8 + ^ r6: .cfa -12 + ^ r5: .cfa -16 + ^ r4: .cfa -20 + ^
STACK CFI 1db54 .cfa: r7 8 +
STACK CFI 1db58 r8: .cfa -24 + ^
STACK CFI INIT 1dd30 8 .cfa: sp 0 +
STACK CFI INIT 1dd38 10 .cfa: sp 0 +
STACK CFI 1dd3a .cfa: sp 8 + .ra: .cfa -4 + ^ r7: .cfa -8 + ^
STACK CFI 1dd3c .cfa: r7 8 +
STACK CFI INIT 1dd48 14 .cfa: sp 0 +
STACK CFI 1dd4a .cfa: sp 8 + .ra: .cfa -4 + ^ r7: .cfa -8 + ^
STACK CFI 1dd4c .cfa: r7 8 +
STACK CFI INIT 1dd5c 238 .cfa: sp 0 +
STACK CFI 1dd5e .cfa: sp 20 + .ra: .cfa -4 + ^ r7: .cfa -8 + ^ r6: .cfa -12 + ^ r5: .cfa -16 + ^ r4: .cfa -20 + ^
STACK CFI 1dd60 .cfa: r7 8 +
STACK CFI 1dd64 r11: .cfa -24 + ^ r10: .cfa -28 + ^ r9: .cfa -32 + ^ r8: .cfa -36 + ^
STACK CFI INIT 1df94 10 .cfa: sp 0 +
STACK CFI 1df96 .cfa: sp 8 + .ra: .cfa -4 + ^ r7: .cfa -8 + ^
STACK CFI 1df98 .cfa: r7 8 +
STACK CFI INIT 1dfa4 1c4 .cfa: sp 0 +
STACK CFI 1dfa6 .cfa: sp 20 + .ra: .cfa -4 + ^ r7: .cfa -8 + ^ r6: .cfa -12 + ^ r5: .cfa -16 + ^ r4: .cfa -20 + ^
STACK CFI 1dfa8 .cfa: r7 8 +
STACK CFI 1dfac r8: .cfa -24 + ^
STACK CFI INIT 1e168 138 .cfa: sp 0 +
STACK CFI 1e16a .cfa: sp 20 + .ra: .cfa -4 + ^ r7: .cfa -8 + ^ r6: .cfa -12 + ^ r5: .cfa -16 + ^ r4: .cfa -20 + ^
STACK CFI 1e16c .cfa: r7 8 +
STACK CFI 1e170 r11: .cfa -24 + ^ r10: .cfa -28 + ^ r9: .cfa -32 + ^ r8: .cfa -36 + ^
STACK CFI INIT 1e2a0 310 .cfa: sp 0 +
STACK CFI 1e2a2 .cfa: sp 20 + .ra: .cfa -4 + ^ r7: .cfa -8 + ^ r6: .cfa -12 + ^ r5: .cfa -16 + ^ r4: .cfa -20 + ^
STACK CFI 1e2a4 .cfa: r7 8 +
STACK CFI 1e2a8 r11: .cfa -24 + ^ r10: .cfa -28 + ^ r9: .cfa -32 + ^ r8: .cfa -36 + ^
STACK CFI INIT 1e5b0 258 .cfa: sp 0 +
STACK CFI 1e5b2 .cfa: sp 20 + .ra: .cfa -4 + ^ r7: .cfa -8 + ^ r6: .cfa -12 + ^ r5: .cfa -16 + ^ r4: .cfa -20 + ^
STACK CFI 1e5b4 .cfa: r7 8 +
STACK CFI 1e5b8 r11: .cfa -24 + ^ r10: .cfa -28 + ^ r9: .cfa -32 + ^ r8: .cfa -36 + ^
STACK CFI INIT 0 30 .cfa: sp 0 +
STACK CFI 2 .cfa: sp 8 + .ra: .cfa -4 + ^ r7: .cfa -8 + ^
STACK CFI 4 .cfa: r7 8 +
STACK CFI INIT 0 18 .cfa: sp 0 +
STACK CFI 2 .cfa: sp 8 + .ra: .cfa -4 + ^ r7: .cfa -8 + ^
STACK CFI 4 .cfa: r7 8 +
STACK CFI INIT 0 20 .cfa: sp 0 +
STACK CFI 2 .cfa: sp 16 + .ra: .cfa -4 + ^ r7: .cfa -8 + ^ r5: .cfa -12 + ^ r4: .cfa -16 + ^
STACK CFI 4 .cfa: r7 8 +
STACK CFI INIT 1e808 f8 .cfa: sp 0 +
STACK CFI 1e80a .cfa: sp 20 + .ra: .cfa -4 + ^ r7: .cfa -8 + ^ r6: .cfa -12 + ^ r5: .cfa -16 + ^ r4: .cfa -20 + ^
STACK CFI 1e80c .cfa: r7 8 +
STACK CFI 1e810 r11: .cfa -24 + ^ r9: .cfa -28 + ^ r8: .cfa -32 + ^
STACK CFI INIT 1e900 70 .cfa: sp 0 +
STACK CFI 1e902 .cfa: sp 20 + .ra: .cfa -4 + ^ r7: .cfa -8 + ^ r6: .cfa -12 + ^ r5: .cfa -16 + ^ r4: .cfa -20 + ^
STACK CFI 1e904 .cfa: r7 8 +
STACK CFI 1e908 r11: .cfa -24 + ^
STACK CFI INIT 0 4 .cfa: sp 0 +
STACK CFI INIT 1e970 2 .cfa: sp 0 +
STACK CFI INIT 1e974 22c .cfa: sp 0 +
STACK CFI 1e976 .cfa: sp 20 + .ra: .cfa -4 + ^ r7: .cfa -8 + ^ r6: .cfa -12 + ^ r5: .cfa -16 + ^ r4: .cfa -20 + ^
STACK CFI 1e978 .cfa: r7 8 +
STACK CFI 1e97c r11: .cfa -24 + ^ r10: .cfa -28 + ^ r9: .cfa -32 + ^ r8: .cfa -36 + ^
STACK CFI INIT 1eba0 274 .cfa: sp 0 +
STACK CFI 1eba2 .cfa: sp 20 + .ra: .cfa -4 + ^ r7: .cfa -8 + ^ r6: .cfa -12 + ^ r5: .cfa -16 + ^ r4: .cfa -20 + ^
STACK CFI 1eba4 .cfa: r7 8 +
STACK CFI 1eba8 r11: .cfa -24 + ^ r10: .cfa -28 + ^ r9: .cfa -32 + ^ r8: .cfa -36 + ^
STACK CFI INIT 1ee14 42c .cfa: sp 0 +
STACK CFI 1ee16 .cfa: sp 20 + .ra: .cfa -4 + ^ r7: .cfa -8 + ^ r6: .cfa -12 + ^ r5: .cfa -16 + ^ r4: .cfa -20 + ^
STACK CFI 1ee18 .cfa: r7 8 +
STACK CFI 1ee1c r11: .cfa -24 + ^ r10: .cfa -28 + ^ r9: .cfa -32 + ^ r8: .cfa -36 + ^
STACK CFI INIT 1f240 f8 .cfa: sp 0 +
STACK CFI 1f242 .cfa: sp 20 + .ra: .cfa -4 + ^ r7: .cfa -8 + ^ r6: .cfa -12 + ^ r5: .cfa -16 + ^ r4: .cfa -20 + ^
STACK CFI 1f244 .cfa: r7 8 +
STACK CFI 1f248 r8: .cfa -24 + ^
STACK CFI INIT 1f338 2 .cfa: sp 0 +
STACK CFI INIT 1f33a e .cfa: sp 0 +
STACK CFI INIT 1f348 3ea .cfa: sp 0 +
STACK CFI 1f34a .cfa: sp 20 + .ra: .cfa -4 + ^ r7: .cfa -8 + ^ r6: .cfa -12 + ^ r5: .cfa -16 + ^ r4: .cfa -20 + ^
STACK CFI 1f34c .cfa: r7 8 +
STACK CFI 1f350 r11: .cfa -24 + ^ r10: .cfa -28 + ^ r9: .cfa -32 + ^ r8: .cfa -36 + ^
STACK CFI INIT 1f734 10 .cfa: sp 0 +
STACK CFI 1f736 .cfa: sp 8 + .ra: .cfa -4 + ^ r7: .cfa -8 + ^
STACK CFI 1f738 .cfa: r7 8 +
