MODULE Linux arm64 1E821A451340747A10DF16EA3712687A0 hiimjustin000.demons_in_between.android64.so
INFO CODE_ID 451A821E40137A7410DF16EA3712687AD327EB3D
INFO GENERATOR mozilla/dump_syms 2.3.4
PUBLIC 26210 0 __on_dlclose
PUBLIC 26220 0 __emutls_unregister_key
PUBLIC 26228 0 __on_dlclose_late
PUBLIC 26230 0 __atexit_handler_wrapper
PUBLIC 26244 0 atexit
PUBLIC 26260 0 pthread_atfork
PUBLIC 26270 0 unwind_phase2
PUBLIC 263a4 0 _Unwind_Resume
PUBLIC 26428 0 unwind_phase2_forced
PUBLIC m 2651c 0 __unw_init_local
PUBLIC m 265c4 0 __unw_get_reg
PUBLIC 26640 0 __unw_step_stage2
PUBLIC m 26654 0 __unw_get_proc_info
PUBLIC m 26694 0 __unw_resume
PUBLIC 266bc 0 libunwind::CFI_Parser<libunwind::LocalAddressSpace>::decodeFDE(libunwind::LocalAddressSpace&, unsigned long, libunwind::CFI_Parser<libunwind::LocalAddressSpace>::FDE_Info*, libunwind::CFI_Parser<libunwind::LocalAddressSpace>::CIE_Info*, bool)
PUBLIC 2684c 0 libunwind::CFI_Parser<libunwind::LocalAddressSpace>::parseCIE(libunwind::LocalAddressSpace&, unsigned long, libunwind::CFI_Parser<libunwind::LocalAddressSpace>::CIE_Info*)
PUBLIC 26b14 0 libunwind::AbstractUnwindCursor::~AbstractUnwindCursor()
PUBLIC 26b1c 0 libunwind::UnwindCursor<libunwind::LocalAddressSpace, libunwind::Registers_arm64>::~UnwindCursor()
PUBLIC 26b24 0 libunwind::UnwindCursor<libunwind::LocalAddressSpace, libunwind::Registers_arm64>::validReg(int)
PUBLIC 26b68 0 libunwind::UnwindCursor<libunwind::LocalAddressSpace, libunwind::Registers_arm64>::getReg(int)
PUBLIC 26c50 0 libunwind::UnwindCursor<libunwind::LocalAddressSpace, libunwind::Registers_arm64>::setReg(int, unsigned long)
PUBLIC 26d38 0 libunwind::UnwindCursor<libunwind::LocalAddressSpace, libunwind::Registers_arm64>::validFloatReg(int)
PUBLIC 26d4c 0 libunwind::UnwindCursor<libunwind::LocalAddressSpace, libunwind::Registers_arm64>::getFloatReg(int)
PUBLIC 26d5c 0 libunwind::UnwindCursor<libunwind::LocalAddressSpace, libunwind::Registers_arm64>::setFloatReg(int, double)
PUBLIC 26d6c 0 libunwind::UnwindCursor<libunwind::LocalAddressSpace, libunwind::Registers_arm64>::step(bool)
PUBLIC 26e5c 0 libunwind::UnwindCursor<libunwind::LocalAddressSpace, libunwind::Registers_arm64>::getInfo(unw_proc_info_t*)
PUBLIC 26ea0 0 libunwind::UnwindCursor<libunwind::LocalAddressSpace, libunwind::Registers_arm64>::jumpto()
PUBLIC 26eac 0 libunwind::UnwindCursor<libunwind::LocalAddressSpace, libunwind::Registers_arm64>::isSignalFrame()
PUBLIC 26eb8 0 libunwind::UnwindCursor<libunwind::LocalAddressSpace, libunwind::Registers_arm64>::getFunctionName(char*, unsigned long, unsigned long*)
PUBLIC 26ee4 0 libunwind::UnwindCursor<libunwind::LocalAddressSpace, libunwind::Registers_arm64>::setInfoBasedOnIPRegister(bool)
PUBLIC 27164 0 libunwind::UnwindCursor<libunwind::LocalAddressSpace, libunwind::Registers_arm64>::getRegisterName(int)
PUBLIC 27170 0 libunwind::UnwindCursor<libunwind::LocalAddressSpace, libunwind::Registers_arm64>::stepThroughSigReturn(libunwind::Registers_arm64&)
PUBLIC 27290 0 libunwind::DwarfInstructions<libunwind::LocalAddressSpace, libunwind::Registers_arm64>::stepWithDwarf(libunwind::LocalAddressSpace&, unsigned long, unsigned long, libunwind::Registers_arm64&, bool&, bool)
PUBLIC 27718 0 libunwind::CFI_Parser<libunwind::LocalAddressSpace>::parseFDEInstructions(libunwind::LocalAddressSpace&, libunwind::CFI_Parser<libunwind::LocalAddressSpace>::FDE_Info const&, libunwind::CFI_Parser<libunwind::LocalAddressSpace>::CIE_Info const&, unsigned long, int, libunwind::CFI_Parser<libunwind::LocalAddressSpace>::PrologInfo*)
PUBLIC 28360 0 libunwind::DwarfInstructions<libunwind::LocalAddressSpace, libunwind::Registers_arm64>::getCFA(libunwind::LocalAddressSpace&, libunwind::CFI_Parser<libunwind::LocalAddressSpace>::PrologInfo const&, libunwind::Registers_arm64 const&)
PUBLIC 28494 0 libunwind::DwarfInstructions<libunwind::LocalAddressSpace, libunwind::Registers_arm64>::getSavedRegister(libunwind::LocalAddressSpace&, libunwind::Registers_arm64 const&, unsigned long, libunwind::CFI_Parser<libunwind::LocalAddressSpace>::RegisterLocation const&)
PUBLIC 286a4 0 libunwind::LocalAddressSpace::getEncodedP(unsigned long&, unsigned long, unsigned char, unsigned long)
PUBLIC 28a30 0 libunwind::LocalAddressSpace::getULEB128(unsigned long&, unsigned long)
PUBLIC 28bf8 0 libunwind::DwarfInstructions<libunwind::LocalAddressSpace, libunwind::Registers_arm64>::evaluateExpression(unsigned long, libunwind::LocalAddressSpace&, libunwind::Registers_arm64 const&, unsigned long)
PUBLIC 295b4 0 libunwind::UnwindCursor<libunwind::LocalAddressSpace, libunwind::Registers_arm64>::getInfoFromDwarfSection(unsigned long, libunwind::UnwindInfoSections const&, unsigned int)
PUBLIC 29888 0 libunwind::findUnwindSectionsByPhdr(dl_phdr_info*, unsigned long, void*)
PUBLIC 299bc 0 libunwind::EHHeaderParser<libunwind::LocalAddressSpace>::decodeEHHdr(libunwind::LocalAddressSpace&, unsigned long, unsigned long, libunwind::EHHeaderParser<libunwind::LocalAddressSpace>::EHHeaderInfo&)
PUBLIC 29adc 0 libunwind::CFI_Parser<libunwind::LocalAddressSpace>::findFDE(libunwind::LocalAddressSpace&, unsigned long, unsigned long, unsigned long, unsigned long, libunwind::CFI_Parser<libunwind::LocalAddressSpace>::FDE_Info*, libunwind::CFI_Parser<libunwind::LocalAddressSpace>::CIE_Info*)
PUBLIC 29ca4 0 libunwind::EHHeaderParser<libunwind::LocalAddressSpace>::findFDE(libunwind::LocalAddressSpace&, unsigned long, unsigned long, unsigned int, libunwind::CFI_Parser<libunwind::LocalAddressSpace>::FDE_Info*, libunwind::CFI_Parser<libunwind::LocalAddressSpace>::CIE_Info*)
PUBLIC 29e0c 0 libunwind::EHHeaderParser<libunwind::LocalAddressSpace>::getTableEntrySize(unsigned char)
PUBLIC 29f08 0 libunwind::Registers_arm64::getRegisterName(int)
PUBLIC 29f38 0 __libunwind_Registers_arm64_jumpto
PUBLIC m 29fc8 0 __unw_getcontext
PUBLIC 2a070 0 __aarch64_ldadd8_acq_rel
PUBLIC 2a0a0 0 init_have_lse_atomics
PUBLIC 2a138 0 __init_cpu_features_constructor
PUBLIC 2a6d4 0 __init_cpu_features
PUBLIC 2a760 0 __cxx_global_var_init
PUBLIC 2a7bc 0 std::__ndk1::vector<LadderDemon, std::__ndk1::allocator<LadderDemon> >::~vector[abi:ne180000]()
PUBLIC 2a7d4 0 __cxx_global_var_init.1
PUBLIC 2aee4 0 std::__ndk1::pair<int const, std::__ndk1::vector<std::__ndk1::basic_string<char, std::__ndk1::char_traits<char>, std::__ndk1::allocator<char> >, std::__ndk1::allocator<std::__ndk1::basic_string<char, std::__ndk1::char_traits<char>, std::__ndk1::allocator<char> > > > >::~pair()
PUBLIC 2af60 0 std::__ndk1::vector<std::__ndk1::basic_string<char, std::__ndk1::char_traits<char>, std::__ndk1::allocator<char> >, std::__ndk1::allocator<std::__ndk1::basic_string<char, std::__ndk1::char_traits<char>, std::__ndk1::allocator<char> > > >::~vector[abi:ne180000]()
PUBLIC 2afdc 0 std::__ndk1::map<int, std::__ndk1::vector<std::__ndk1::basic_string<char, std::__ndk1::char_traits<char>, std::__ndk1::allocator<char> >, std::__ndk1::allocator<std::__ndk1::basic_string<char, std::__ndk1::char_traits<char>, std::__ndk1::allocator<char> > > >, std::__ndk1::less<int>, std::__ndk1::allocator<std::__ndk1::pair<int const, std::__ndk1::vector<std::__ndk1::basic_string<char, std::__ndk1::char_traits<char>, std::__ndk1::allocator<char> >, std::__ndk1::allocator<std::__ndk1::basic_string<char, std::__ndk1::char_traits<char>, std::__ndk1::allocator<char> > > > > > >::~map[abi:ne180000]()
PUBLIC 2afe4 0 DIBInfoPopup::create()
PUBLIC 2b1e4 0 DIBInfoPopup::setup()
PUBLIC 2cbb4 0 geode::cocos::CCDictionaryExt<std::__ndk1::basic_string<char, std::__ndk1::char_traits<char>, std::__ndk1::allocator<char> >, GJGameLevel*, GJGameLevel>::~CCDictionaryExt()
PUBLIC 2cbd0 0 geode::cocos::CCMenuItemExt::createSpriteExtraWithFrameName(std::__ndk1::basic_string_view<char, std::__ndk1::char_traits<char> >, float, std::__ndk1::function<void (CCMenuItemSpriteExtra*)>)
PUBLIC 2cd1c 0 geode::cocos::CCMenuItemExt::createSpriteExtra(cocos2d::CCNode*, std::__ndk1::function<void (CCMenuItemSpriteExtra*)>)
PUBLIC 2ce58 0 DIBInfoPopup::loadPage(int)
PUBLIC 2d2cc 0 DIBInfoPopup::onClose(cocos2d::CCObject*)
PUBLIC 2d304 0 geode::Popup<>::onClose(cocos2d::CCObject*)
PUBLIC 2d44c 0 DIBInfoPopup::keyDown(cocos2d::enumKeyCodes)
PUBLIC 2d4b4 0 geode::Popup<>::keyDown(cocos2d::enumKeyCodes)
PUBLIC 2d4dc 0 {virtual override thunk({offset(-344)}, DIBInfoPopup::keyDown(cocos2d::enumKeyCodes))}
PUBLIC 2d54c 0 DIBInfoPopup::~DIBInfoPopup()
PUBLIC 2d63c 0 __clang_call_terminate
PUBLIC 2d64c 0 {virtual override thunk({offset(-320)}, DIBInfoPopup::~DIBInfoPopup())}
PUBLIC 2d654 0 DIBInfoPopup::~DIBInfoPopup()
PUBLIC 2d678 0 {virtual override thunk({offset(-320)}, DIBInfoPopup::~DIBInfoPopup())}
PUBLIC 2d6a0 0 cocos2d::CCCopying::copyWithZone(cocos2d::CCZone*)
PUBLIC 2d6a8 0 geode::Popup<>::registerWithTouchDispatcher()
PUBLIC 2d6d4 0 cocos2d::CCLayerRGBA::setOpacityModifyRGB(bool)
PUBLIC 2d6d8 0 cocos2d::CCLayerRGBA::isOpacityModifyRGB()
PUBLIC 2d6e0 0 cocos2d::CCKeyboardDelegate::keyUp(cocos2d::enumKeyCodes)
PUBLIC 2d6e4 0 cocos2d::CCMouseDelegate::rightKeyDown()
PUBLIC 2d6e8 0 cocos2d::CCMouseDelegate::rightKeyUp()
PUBLIC 2d6ec 0 cocos2d::CCMouseDelegate::scrollWheel(float, float)
PUBLIC 2d6f0 0 {virtual override thunk({offset(-408)}, cocos2d::CCLayerRGBA::setOpacityModifyRGB(bool))}
PUBLIC 2d6f4 0 {virtual override thunk({offset(-408)}, cocos2d::CCLayerRGBA::isOpacityModifyRGB())}
PUBLIC 2d6fc 0 std::__ndk1::vector<std::__ndk1::basic_string<char, std::__ndk1::char_traits<char>, std::__ndk1::allocator<char> >, std::__ndk1::allocator<std::__ndk1::basic_string<char, std::__ndk1::char_traits<char>, std::__ndk1::allocator<char> > > >::__init_with_size[abi:ne180000]<std::__ndk1::basic_string<char, std::__ndk1::char_traits<char>, std::__ndk1::allocator<char> >*, std::__ndk1::vector<std::__ndk1::basic_string<char, std::__ndk1::char_traits<char>, std::__ndk1::allocator<char> >, std::__ndk1::allocator<std::__ndk1::basic_string<char, std::__ndk1::char_traits<char>, std::__ndk1::allocator<char> > > >::__init_with_size[abi:ne180000]>(std::__ndk1::basic_string<char, std::__ndk1::char_traits<char>, std::__ndk1::allocator<char> >*, std::__ndk1::vector<std::__ndk1::basic_string<char, std::__ndk1::char_traits<char>, std::__ndk1::allocator<char> >, std::__ndk1::allocator<std::__ndk1::basic_string<char, std::__ndk1::char_traits<char>, std::__ndk1::allocator<char> > > >::__init_with_size[abi:ne180000], unsigned long)
PUBLIC 2d868 0 std::__ndk1::__exception_guard_exceptions<std::__ndk1::vector<std::__ndk1::basic_string<char, std::__ndk1::char_traits<char>, std::__ndk1::allocator<char> >, std::__ndk1::allocator<std::__ndk1::basic_string<char, std::__ndk1::char_traits<char>, std::__ndk1::allocator<char> > > >::__destroy_vector>::~__exception_guard_exceptions[abi:ne180000]()
PUBLIC 2d8f4 0 std::__ndk1::vector<std::__ndk1::basic_string<char, std::__ndk1::char_traits<char>, std::__ndk1::allocator<char> >, std::__ndk1::allocator<std::__ndk1::basic_string<char, std::__ndk1::char_traits<char>, std::__ndk1::allocator<char> > > >::__throw_length_error[abi:ne180000]() const
PUBLIC 2d908 0 std::__ndk1::__throw_length_error[abi:ne180000](char const*)
PUBLIC 2d958 0 std::length_error::length_error[abi:ne180000](char const*)
PUBLIC 2d988 0 std::__ndk1::__exception_guard_exceptions<std::__ndk1::_AllocatorDestroyRangeReverse<std::__ndk1::allocator<std::__ndk1::basic_string<char, std::__ndk1::char_traits<char>, std::__ndk1::allocator<char> > >, std::__ndk1::basic_string<char, std::__ndk1::char_traits<char>, std::__ndk1::allocator<char> >*> >::~__exception_guard_exceptions[abi:ne180000]()
PUBLIC 2d9e8 0 std::__ndk1::basic_string<char, std::__ndk1::char_traits<char>, std::__ndk1::allocator<char> >::__init_copy_ctor_external(char const*, unsigned long)
PUBLIC 2da68 0 std::__ndk1::basic_string<char, std::__ndk1::char_traits<char>, std::__ndk1::allocator<char> >::__throw_length_error[abi:ne180000]() const
PUBLIC 2da7c 0 geode::Popup<>::~Popup()
PUBLIC 2dae8 0 geode::Popup<>::~Popup()
PUBLIC 2daec 0 {virtual override thunk({offset(-320)}, geode::Popup<>::~Popup())}
PUBLIC 2db58 0 {virtual override thunk({offset(-320)}, geode::Popup<>::~Popup())}
PUBLIC 2db5c 0 {virtual override thunk({offset(-344)}, geode::Popup<>::keyDown(cocos2d::enumKeyCodes))}
PUBLIC 2db88 0 geode::cocos::CCMenuItemExt::assignCallback<CCMenuItemSpriteExtra>(cocos2d::CCMenuItem*, std::__ndk1::function<void (CCMenuItemSpriteExtra*)>)
PUBLIC 2dd1c 0 geode::cocos::CCMenuItemExt::LambdaCallback<CCMenuItemSpriteExtra>::create(std::__ndk1::function<void (CCMenuItemSpriteExtra*)>)
PUBLIC 2dee4 0 geode::cocos::CCMenuItemExt::LambdaCallback<CCMenuItemSpriteExtra>::execute(cocos2d::CCNode*)
PUBLIC 2df54 0 geode::cocos::CCMenuItemExt::LambdaCallback<CCMenuItemSpriteExtra>::~LambdaCallback()
PUBLIC 2dfb0 0 geode::cocos::CCMenuItemExt::LambdaCallback<CCMenuItemSpriteExtra>::~LambdaCallback()
PUBLIC 2e014 0 cocos2d::CCObject::update(float)
PUBLIC 2e018 0 std::__ndk1::__throw_bad_function_call[abi:ne180000]()
PUBLIC 2e04c 0 std::__ndk1::bad_function_call::~bad_function_call()
PUBLIC 2e070 0 std::__ndk1::__tree<std::__ndk1::__value_type<int, std::__ndk1::vector<std::__ndk1::basic_string<char, std::__ndk1::char_traits<char>, std::__ndk1::allocator<char> >, std::__ndk1::allocator<std::__ndk1::basic_string<char, std::__ndk1::char_traits<char>, std::__ndk1::allocator<char> > > > >, std::__ndk1::__map_value_compare<int, std::__ndk1::__value_type<int, std::__ndk1::vector<std::__ndk1::basic_string<char, std::__ndk1::char_traits<char>, std::__ndk1::allocator<char> >, std::__ndk1::allocator<std::__ndk1::basic_string<char, std::__ndk1::char_traits<char>, std::__ndk1::allocator<char> > > > >, std::__ndk1::less<int>, true>, std::__ndk1::allocator<std::__ndk1::__value_type<int, std::__ndk1::vector<std::__ndk1::basic_string<char, std::__ndk1::char_traits<char>, std::__ndk1::allocator<char> >, std::__ndk1::allocator<std::__ndk1::basic_string<char, std::__ndk1::char_traits<char>, std::__ndk1::allocator<char> > > > > > >::__emplace_hint_unique_key_args<int, std::__ndk1::pair<int const, std::__ndk1::vector<std::__ndk1::basic_string<char, std::__ndk1::char_traits<char>, std::__ndk1::allocator<char> >, std::__ndk1::allocator<std::__ndk1::basic_string<char, std::__ndk1::char_traits<char>, std::__ndk1::allocator<char> > > > > const&>(std::__ndk1::__tree_const_iterator<std::__ndk1::__value_type<int, std::__ndk1::vector<std::__ndk1::basic_string<char, std::__ndk1::char_traits<char>, std::__ndk1::allocator<char> >, std::__ndk1::allocator<std::__ndk1::basic_string<char, std::__ndk1::char_traits<char>, std::__ndk1::allocator<char> > > > >, std::__ndk1::__tree_node<std::__ndk1::__value_type<int, std::__ndk1::vector<std::__ndk1::basic_string<char, std::__ndk1::char_traits<char>, std::__ndk1::allocator<char> >, std::__ndk1::allocator<std::__ndk1::basic_string<char, std::__ndk1::char_traits<char>, std::__ndk1::allocator<char> > > > >, void*>*, long>, int const&, std::__ndk1::pair<int const, std::__ndk1::vector<std::__ndk1::basic_string<char, std::__ndk1::char_traits<char>, std::__ndk1::allocator<char> >, std::__ndk1::allocator<std::__ndk1::basic_string<char, std::__ndk1::char_traits<char>, std::__ndk1::allocator<char> > > > > const&)
PUBLIC 2e1a8 0 std::__ndk1::__tree<std::__ndk1::__value_type<int, std::__ndk1::vector<std::__ndk1::basic_string<char, std::__ndk1::char_traits<char>, std::__ndk1::allocator<char> >, std::__ndk1::allocator<std::__ndk1::basic_string<char, std::__ndk1::char_traits<char>, std::__ndk1::allocator<char> > > > >, std::__ndk1::__map_value_compare<int, std::__ndk1::__value_type<int, std::__ndk1::vector<std::__ndk1::basic_string<char, std::__ndk1::char_traits<char>, std::__ndk1::allocator<char> >, std::__ndk1::allocator<std::__ndk1::basic_string<char, std::__ndk1::char_traits<char>, std::__ndk1::allocator<char> > > > >, std::__ndk1::less<int>, true>, std::__ndk1::allocator<std::__ndk1::__value_type<int, std::__ndk1::vector<std::__ndk1::basic_string<char, std::__ndk1::char_traits<char>, std::__ndk1::allocator<char> >, std::__ndk1::allocator<std::__ndk1::basic_string<char, std::__ndk1::char_traits<char>, std::__ndk1::allocator<char> > > > > > >::__find_equal<int>(std::__ndk1::__tree_const_iterator<std::__ndk1::__value_type<int, std::__ndk1::vector<std::__ndk1::basic_string<char, std::__ndk1::char_traits<char>, std::__ndk1::allocator<char> >, std::__ndk1::allocator<std::__ndk1::basic_string<char, std::__ndk1::char_traits<char>, std::__ndk1::allocator<char> > > > >, std::__ndk1::__tree_node<std::__ndk1::__value_type<int, std::__ndk1::vector<std::__ndk1::basic_string<char, std::__ndk1::char_traits<char>, std::__ndk1::allocator<char> >, std::__ndk1::allocator<std::__ndk1::basic_string<char, std::__ndk1::char_traits<char>, std::__ndk1::allocator<char> > > > >, void*>*, long>, std::__ndk1::__tree_end_node<std::__ndk1::__tree_node_base<void*>*>*&, std::__ndk1::__tree_node_base<void*>*&, int const&)
PUBLIC 2e358 0 std::__ndk1::unique_ptr<std::__ndk1::__tree_node<std::__ndk1::__value_type<int, std::__ndk1::vector<std::__ndk1::basic_string<char, std::__ndk1::char_traits<char>, std::__ndk1::allocator<char> >, std::__ndk1::allocator<std::__ndk1::basic_string<char, std::__ndk1::char_traits<char>, std::__ndk1::allocator<char> > > > >, void*>, std::__ndk1::__tree_node_destructor<std::__ndk1::allocator<std::__ndk1::__tree_node<std::__ndk1::__value_type<int, std::__ndk1::vector<std::__ndk1::basic_string<char, std::__ndk1::char_traits<char>, std::__ndk1::allocator<char> >, std::__ndk1::allocator<std::__ndk1::basic_string<char, std::__ndk1::char_traits<char>, std::__ndk1::allocator<char> > > > >, void*> > > >::~unique_ptr[abi:ne180000]()
PUBLIC 2e3ec 0 std::__ndk1::__tree_balance_after_insert[abi:ne180000]<std::__ndk1::__tree_node_base<void*>*>(std::__ndk1::__tree_node_base<void*>*, std::__ndk1::__tree_node_base<void*>*)
PUBLIC 2e59c 0 std::__ndk1::__tree<std::__ndk1::__value_type<int, std::__ndk1::vector<std::__ndk1::basic_string<char, std::__ndk1::char_traits<char>, std::__ndk1::allocator<char> >, std::__ndk1::allocator<std::__ndk1::basic_string<char, std::__ndk1::char_traits<char>, std::__ndk1::allocator<char> > > > >, std::__ndk1::__map_value_compare<int, std::__ndk1::__value_type<int, std::__ndk1::vector<std::__ndk1::basic_string<char, std::__ndk1::char_traits<char>, std::__ndk1::allocator<char> >, std::__ndk1::allocator<std::__ndk1::basic_string<char, std::__ndk1::char_traits<char>, std::__ndk1::allocator<char> > > > >, std::__ndk1::less<int>, true>, std::__ndk1::allocator<std::__ndk1::__value_type<int, std::__ndk1::vector<std::__ndk1::basic_string<char, std::__ndk1::char_traits<char>, std::__ndk1::allocator<char> >, std::__ndk1::allocator<std::__ndk1::basic_string<char, std::__ndk1::char_traits<char>, std::__ndk1::allocator<char> > > > > > >::destroy(std::__ndk1::__tree_node<std::__ndk1::__value_type<int, std::__ndk1::vector<std::__ndk1::basic_string<char, std::__ndk1::char_traits<char>, std::__ndk1::allocator<char> >, std::__ndk1::allocator<std::__ndk1::basic_string<char, std::__ndk1::char_traits<char>, std::__ndk1::allocator<char> > > > >, void*>*)
PUBLIC 2e630 0 geode::Popup<>::initBase(float, float, char const*, cocos2d::CCRect, bool)
PUBLIC 2e938 0 std::__ndk1::__function::__func<DIBInfoPopup::setup()::$_0, std::__ndk1::allocator<DIBInfoPopup::setup()::$_0>, void (CCMenuItemSpriteExtra*)>::~__func()
PUBLIC 2e93c 0 std::__ndk1::__function::__func<DIBInfoPopup::setup()::$_0, std::__ndk1::allocator<DIBInfoPopup::setup()::$_0>, void (CCMenuItemSpriteExtra*)>::__clone() const
PUBLIC 2e970 0 std::__ndk1::__function::__func<DIBInfoPopup::setup()::$_0, std::__ndk1::allocator<DIBInfoPopup::setup()::$_0>, void (CCMenuItemSpriteExtra*)>::__clone(std::__ndk1::__function::__base<void (CCMenuItemSpriteExtra*)>*) const
PUBLIC 2e984 0 std::__ndk1::__function::__func<DIBInfoPopup::setup()::$_0, std::__ndk1::allocator<DIBInfoPopup::setup()::$_0>, void (CCMenuItemSpriteExtra*)>::destroy()
PUBLIC 2e988 0 std::__ndk1::__function::__func<DIBInfoPopup::setup()::$_0, std::__ndk1::allocator<DIBInfoPopup::setup()::$_0>, void (CCMenuItemSpriteExtra*)>::destroy_deallocate()
PUBLIC 2e98c 0 std::__ndk1::__function::__func<DIBInfoPopup::setup()::$_0, std::__ndk1::allocator<DIBInfoPopup::setup()::$_0>, void (CCMenuItemSpriteExtra*)>::operator()(CCMenuItemSpriteExtra*&&)
PUBLIC 2e99c 0 std::__ndk1::__function::__func<DIBInfoPopup::setup()::$_0, std::__ndk1::allocator<DIBInfoPopup::setup()::$_0>, void (CCMenuItemSpriteExtra*)>::target(std::type_info const&) const
PUBLIC 2e9b8 0 std::__ndk1::__function::__func<DIBInfoPopup::setup()::$_0, std::__ndk1::allocator<DIBInfoPopup::setup()::$_0>, void (CCMenuItemSpriteExtra*)>::target_type() const
PUBLIC 2e9c4 0 std::__ndk1::__function::__base<void (CCMenuItemSpriteExtra*)>::~__base()
PUBLIC 2e9c8 0 std::__ndk1::__function::__func<DIBInfoPopup::setup()::$_1, std::__ndk1::allocator<DIBInfoPopup::setup()::$_1>, void (CCMenuItemSpriteExtra*)>::~__func()
PUBLIC 2e9cc 0 std::__ndk1::__function::__func<DIBInfoPopup::setup()::$_1, std::__ndk1::allocator<DIBInfoPopup::setup()::$_1>, void (CCMenuItemSpriteExtra*)>::__clone() const
PUBLIC 2ea00 0 std::__ndk1::__function::__func<DIBInfoPopup::setup()::$_1, std::__ndk1::allocator<DIBInfoPopup::setup()::$_1>, void (CCMenuItemSpriteExtra*)>::__clone(std::__ndk1::__function::__base<void (CCMenuItemSpriteExtra*)>*) const
PUBLIC 2ea14 0 std::__ndk1::__function::__func<DIBInfoPopup::setup()::$_1, std::__ndk1::allocator<DIBInfoPopup::setup()::$_1>, void (CCMenuItemSpriteExtra*)>::destroy()
PUBLIC 2ea18 0 std::__ndk1::__function::__func<DIBInfoPopup::setup()::$_1, std::__ndk1::allocator<DIBInfoPopup::setup()::$_1>, void (CCMenuItemSpriteExtra*)>::destroy_deallocate()
PUBLIC 2ea1c 0 std::__ndk1::__function::__func<DIBInfoPopup::setup()::$_1, std::__ndk1::allocator<DIBInfoPopup::setup()::$_1>, void (CCMenuItemSpriteExtra*)>::operator()(CCMenuItemSpriteExtra*&&)
PUBLIC 2ea2c 0 std::__ndk1::__function::__func<DIBInfoPopup::setup()::$_1, std::__ndk1::allocator<DIBInfoPopup::setup()::$_1>, void (CCMenuItemSpriteExtra*)>::target(std::type_info const&) const
PUBLIC 2ea48 0 std::__ndk1::__function::__func<DIBInfoPopup::setup()::$_1, std::__ndk1::allocator<DIBInfoPopup::setup()::$_1>, void (CCMenuItemSpriteExtra*)>::target_type() const
PUBLIC 2ea54 0 geode::Popup<>::CloseEvent::~CloseEvent()
PUBLIC 2eab4 0 geode::Popup<>::CloseEvent::~CloseEvent()
PUBLIC 2eb24 0 std::__ndk1::__shared_ptr_emplace<geode::Popup<>::CloseEvent::Impl, std::__ndk1::allocator<geode::Popup<>::CloseEvent::Impl> >::~__shared_ptr_emplace()
PUBLIC 2eb34 0 std::__ndk1::__shared_ptr_emplace<geode::Popup<>::CloseEvent::Impl, std::__ndk1::allocator<geode::Popup<>::CloseEvent::Impl> >::~__shared_ptr_emplace()
PUBLIC 2eb64 0 std::__ndk1::__shared_ptr_emplace<geode::Popup<>::CloseEvent::Impl, std::__ndk1::allocator<geode::Popup<>::CloseEvent::Impl> >::__on_zero_shared()
PUBLIC 2eb68 0 std::__ndk1::__shared_ptr_emplace<geode::Popup<>::CloseEvent::Impl, std::__ndk1::allocator<geode::Popup<>::CloseEvent::Impl> >::__on_zero_shared_weak()
PUBLIC 2eb6c 0 DIBSearchPopup::create()
PUBLIC 2ecd0 0 DIBSearchPopup::setup()
PUBLIC 2f534 0 DIBSearchPopup::~DIBSearchPopup()
PUBLIC 2f5a8 0 {virtual override thunk({offset(-320)}, DIBSearchPopup::~DIBSearchPopup())}
PUBLIC 2f614 0 {virtual override thunk({offset(-320)}, DIBSearchPopup::~DIBSearchPopup())}
PUBLIC 2f688 0 std::__ndk1::__function::__func<DIBSearchPopup::setup()::$_0, std::__ndk1::allocator<DIBSearchPopup::setup()::$_0>, void (CCMenuItemSpriteExtra*)>::~__func()
PUBLIC 2f68c 0 std::__ndk1::__function::__func<DIBSearchPopup::setup()::$_0, std::__ndk1::allocator<DIBSearchPopup::setup()::$_0>, void (CCMenuItemSpriteExtra*)>::__clone() const
PUBLIC 2f6c4 0 std::__ndk1::__function::__func<DIBSearchPopup::setup()::$_0, std::__ndk1::allocator<DIBSearchPopup::setup()::$_0>, void (CCMenuItemSpriteExtra*)>::__clone(std::__ndk1::__function::__base<void (CCMenuItemSpriteExtra*)>*) const
PUBLIC 2f6dc 0 std::__ndk1::__function::__func<DIBSearchPopup::setup()::$_0, std::__ndk1::allocator<DIBSearchPopup::setup()::$_0>, void (CCMenuItemSpriteExtra*)>::destroy()
PUBLIC 2f6e0 0 std::__ndk1::__function::__func<DIBSearchPopup::setup()::$_0, std::__ndk1::allocator<DIBSearchPopup::setup()::$_0>, void (CCMenuItemSpriteExtra*)>::destroy_deallocate()
PUBLIC 2f6e4 0 std::__ndk1::__function::__func<DIBSearchPopup::setup()::$_0, std::__ndk1::allocator<DIBSearchPopup::setup()::$_0>, void (CCMenuItemSpriteExtra*)>::operator()(CCMenuItemSpriteExtra*&&)
PUBLIC 2f738 0 std::__ndk1::__function::__func<DIBSearchPopup::setup()::$_0, std::__ndk1::allocator<DIBSearchPopup::setup()::$_0>, void (CCMenuItemSpriteExtra*)>::target(std::type_info const&) const
PUBLIC 2f754 0 std::__ndk1::__function::__func<DIBSearchPopup::setup()::$_0, std::__ndk1::allocator<DIBSearchPopup::setup()::$_0>, void (CCMenuItemSpriteExtra*)>::target_type() const
PUBLIC 2f760 0 TableNode::create(int, int)
PUBLIC 2f88c 0 TableNode::setRowLayout(geode::AxisLayout*)
PUBLIC 2f968 0 geode::cocos::CCArrayExt<cocos2d::CCMenu*, cocos2d::CCMenu>::~CCArrayExt()
PUBLIC 2f988 0 TableNode::setRowHeight(float)
PUBLIC 2fa78 0 TableNode::setRowPrefix(std::__ndk1::basic_string<char, std::__ndk1::char_traits<char>, std::__ndk1::allocator<char> > const&)
PUBLIC 2fce0 0 TableNode::updateAllLayouts()
PUBLIC 2fdb8 0 TableNode::addButton(cocos2d::CCMenuItem*)
PUBLIC 30034 0 TableNode::~TableNode()
PUBLIC 30080 0 TableNode::~TableNode()
PUBLIC 300d4 0 std::__ndk1::basic_string<char, std::__ndk1::char_traits<char>, std::__ndk1::allocator<char> >::__assign_no_alias<true>(char const*, unsigned long)
PUBLIC 30180 0 std::__ndk1::basic_string<char, std::__ndk1::char_traits<char>, std::__ndk1::allocator<char> >::__assign_no_alias<false>(char const*, unsigned long)
PUBLIC 30290 0 __aarch64_ldadd8_relax
PUBLIC 302c0 0 __cxx_global_var_init.2
PUBLIC 307f4 0 geode::modifier::ModifyBase<geode::modifier::ModifyDerive<DIBLevelBrowserLayer, LevelBrowserLayer> >::~ModifyBase()
PUBLIC 30810 0 std::__throw_bad_array_new_length([abi:ne180000], void)
PUBLIC 30844 0 geode::modifier::ModifyDerive<DIBLevelBrowserLayer, LevelBrowserLayer>::apply()
PUBLIC 31fd8 0 std::__ndk1::shared_ptr<geode::Hook>::~shared_ptr[abi:ne180000]()
PUBLIC 32028 0 geode::impl::ResultData<geode::Hook*, std::__ndk1::basic_string<char, std::__ndk1::char_traits<char>, std::__ndk1::allocator<char> > >::~ResultData()
PUBLIC 3209c 0 geode::modifier::ModifyBase<geode::modifier::ModifyDerive<DIBLevelBrowserLayer, LevelBrowserLayer> >::apply()
PUBLIC 320a0 0 geode::modifier::ModifyBase<geode::modifier::ModifyDerive<DIBLevelBrowserLayer, LevelBrowserLayer> >::setHookPriorityBefore(std::__ndk1::basic_string_view<char, std::__ndk1::char_traits<char> >, std::__ndk1::basic_string_view<char, std::__ndk1::char_traits<char> >)
PUBLIC 32554 0 geode::modifier::ModifyBase<geode::modifier::ModifyDerive<DIBLevelBrowserLayer, LevelBrowserLayer> >::setHookPriorityBefore(std::__ndk1::basic_string_view<char, std::__ndk1::char_traits<char> >, geode::Mod*)::{lambda(geode::ModStateEvent*)#1}::operator()(geode::ModStateEvent*) const
PUBLIC 32664 0 std::__ndk1::__tree<std::__ndk1::__value_type<std::__ndk1::basic_string<char, std::__ndk1::char_traits<char>, std::__ndk1::allocator<char> >, std::__ndk1::shared_ptr<geode::Hook> >, std::__ndk1::__map_value_compare<std::__ndk1::basic_string<char, std::__ndk1::char_traits<char>, std::__ndk1::allocator<char> >, std::__ndk1::__value_type<std::__ndk1::basic_string<char, std::__ndk1::char_traits<char>, std::__ndk1::allocator<char> >, std::__ndk1::shared_ptr<geode::Hook> >, std::__ndk1::less<std::__ndk1::basic_string<char, std::__ndk1::char_traits<char>, std::__ndk1::allocator<char> > >, true>, std::__ndk1::allocator<std::__ndk1::__value_type<std::__ndk1::basic_string<char, std::__ndk1::char_traits<char>, std::__ndk1::allocator<char> >, std::__ndk1::shared_ptr<geode::Hook> > > >::find<std::__ndk1::basic_string<char, std::__ndk1::char_traits<char>, std::__ndk1::allocator<char> > >(std::__ndk1::basic_string<char, std::__ndk1::char_traits<char>, std::__ndk1::allocator<char> > const&)
PUBLIC 32784 0 std::__ndk1::__tree<std::__ndk1::__value_type<std::__ndk1::basic_string<char, std::__ndk1::char_traits<char>, std::__ndk1::allocator<char> >, std::__ndk1::shared_ptr<geode::Hook> >, std::__ndk1::__map_value_compare<std::__ndk1::basic_string<char, std::__ndk1::char_traits<char>, std::__ndk1::allocator<char> >, std::__ndk1::__value_type<std::__ndk1::basic_string<char, std::__ndk1::char_traits<char>, std::__ndk1::allocator<char> >, std::__ndk1::shared_ptr<geode::Hook> >, std::__ndk1::less<std::__ndk1::basic_string<char, std::__ndk1::char_traits<char>, std::__ndk1::allocator<char> > >, true>, std::__ndk1::allocator<std::__ndk1::__value_type<std::__ndk1::basic_string<char, std::__ndk1::char_traits<char>, std::__ndk1::allocator<char> >, std::__ndk1::shared_ptr<geode::Hook> > > >::__emplace_unique_key_args<std::__ndk1::basic_string<char, std::__ndk1::char_traits<char>, std::__ndk1::allocator<char> >, std::__ndk1::piecewise_construct_t const&, std::__ndk1::tuple<std::__ndk1::basic_string<char, std::__ndk1::char_traits<char>, std::__ndk1::allocator<char> > const&>, std::__ndk1::tuple<> >(std::__ndk1::basic_string<char, std::__ndk1::char_traits<char>, std::__ndk1::allocator<char> > const&, std::__ndk1::piecewise_construct_t const&, std::__ndk1::tuple<std::__ndk1::basic_string<char, std::__ndk1::char_traits<char>, std::__ndk1::allocator<char> > const&>, std::__ndk1::tuple<>)
PUBLIC 32978 0 std::__ndk1::unique_ptr<std::__ndk1::__tree_node<std::__ndk1::__value_type<std::__ndk1::basic_string<char, std::__ndk1::char_traits<char>, std::__ndk1::allocator<char> >, std::__ndk1::shared_ptr<geode::Hook> >, void*>, std::__ndk1::__tree_node_destructor<std::__ndk1::allocator<std::__ndk1::__tree_node<std::__ndk1::__value_type<std::__ndk1::basic_string<char, std::__ndk1::char_traits<char>, std::__ndk1::allocator<char> >, std::__ndk1::shared_ptr<geode::Hook> >, void*> > > >::~unique_ptr[abi:ne180000]()
PUBLIC 329f4 0 _ZN5geode15UnwrapExceptionC2IRPNS_4HookEQsr4implE18IsStringStreamableIT_EEENS_4impl5OkTagEOS5_
PUBLIC 32b48 0 std::__ndk1::__throw_bad_variant_access[abi:ne180000]()
PUBLIC 32b7c 0 std::__ndk1::basic_stringstream<char, std::__ndk1::char_traits<char>, std::__ndk1::allocator<char> >::basic_stringstream[abi:ne180000]()
PUBLIC m 32ca8 0 std::__ndk1::basic_stringstream<char, std::__ndk1::char_traits<char>, std::__ndk1::allocator<char> >::~basic_stringstream()
PUBLIC 32d28 0 geode::UnwrapException::~UnwrapException()
PUBLIC 32d4c 0 std::__ndk1::__put_character_sequence[abi:ne180000]<char, std::__ndk1::char_traits<char> >(std::__ndk1::basic_ostream<char, std::__ndk1::char_traits<char> >, std::__ndk1::basic_ostream const*, unsigned long)
PUBLIC 32ef0 0 std::__ndk1::__pad_and_output[abi:ne180000]<char, std::__ndk1::char_traits<char> >(std::__ndk1::char_traits<char>, std::__ndk1::ostreambuf_iterator const*, std::__ndk1::ostreambuf_iterator const, std::__ndk1::ostreambuf_iterator const, std::__ndk1::ios_base&, std::__ndk1::ostreambuf_iterator)
PUBLIC 330cc 0 std::__ndk1::basic_stringbuf<char, std::__ndk1::char_traits<char>, std::__ndk1::allocator<char> >::str[abi:ne180000]() &&
PUBLIC 33244 0 std::__ndk1::basic_stringbuf<char, std::__ndk1::char_traits<char>, std::__ndk1::allocator<char> >::__init_buf_ptrs[abi:ne180000]()
PUBLIC 3338c 0 _ZN5geode15UnwrapExceptionC2IRNSt6__ndk112basic_stringIcNS2_11char_traitsIcEENS2_9allocatorIcEEEEQsr4implE18IsStringStreamableIT_EEENS_4impl6ErrTagEOSA_
PUBLIC 334f4 0 std::__ndk1::__function::__base<void (geode::ModStateEvent*)>::~__base()
PUBLIC 334f8 0 std::__ndk1::__function::__func<geode::modifier::ModifyBase<geode::modifier::ModifyDerive<DIBLevelBrowserLayer, LevelBrowserLayer> >::setHookPriorityBefore(std::__ndk1::basic_string_view<char, std::__ndk1::char_traits<char> >, geode::Mod*)::{lambda(geode::ModStateEvent*)#1}, std::__ndk1::allocator<geode::modifier::ModifyBase<geode::modifier::ModifyDerive<DIBLevelBrowserLayer, LevelBrowserLayer> >::setHookPriorityBefore(std::__ndk1::basic_string_view<char, std::__ndk1::char_traits<char> >, geode::Mod*)::{lambda(geode::ModStateEvent*)#1}>, void (geode::ModStateEvent*)>::~__func()
PUBLIC 334fc 0 std::__ndk1::__function::__func<geode::modifier::ModifyBase<geode::modifier::ModifyDerive<DIBLevelBrowserLayer, LevelBrowserLayer> >::setHookPriorityBefore(std::__ndk1::basic_string_view<char, std::__ndk1::char_traits<char> >, geode::Mod*)::{lambda(geode::ModStateEvent*)#1}, std::__ndk1::allocator<geode::modifier::ModifyBase<geode::modifier::ModifyDerive<DIBLevelBrowserLayer, LevelBrowserLayer> >::setHookPriorityBefore(std::__ndk1::basic_string_view<char, std::__ndk1::char_traits<char> >, geode::Mod*)::{lambda(geode::ModStateEvent*)#1}>, void (geode::ModStateEvent*)>::__clone() const
PUBLIC 33534 0 std::__ndk1::__function::__func<geode::modifier::ModifyBase<geode::modifier::ModifyDerive<DIBLevelBrowserLayer, LevelBrowserLayer> >::setHookPriorityBefore(std::__ndk1::basic_string_view<char, std::__ndk1::char_traits<char> >, geode::Mod*)::{lambda(geode::ModStateEvent*)#1}, std::__ndk1::allocator<geode::modifier::ModifyBase<geode::modifier::ModifyDerive<DIBLevelBrowserLayer, LevelBrowserLayer> >::setHookPriorityBefore(std::__ndk1::basic_string_view<char, std::__ndk1::char_traits<char> >, geode::Mod*)::{lambda(geode::ModStateEvent*)#1}>, void (geode::ModStateEvent*)>::__clone(std::__ndk1::__function::__base<void (geode::ModStateEvent*)>*) const
PUBLIC 3354c 0 std::__ndk1::__function::__func<geode::modifier::ModifyBase<geode::modifier::ModifyDerive<DIBLevelBrowserLayer, LevelBrowserLayer> >::setHookPriorityBefore(std::__ndk1::basic_string_view<char, std::__ndk1::char_traits<char> >, geode::Mod*)::{lambda(geode::ModStateEvent*)#1}, std::__ndk1::allocator<geode::modifier::ModifyBase<geode::modifier::ModifyDerive<DIBLevelBrowserLayer, LevelBrowserLayer> >::setHookPriorityBefore(std::__ndk1::basic_string_view<char, std::__ndk1::char_traits<char> >, geode::Mod*)::{lambda(geode::ModStateEvent*)#1}>, void (geode::ModStateEvent*)>::destroy()
PUBLIC 33550 0 std::__ndk1::__function::__func<geode::modifier::ModifyBase<geode::modifier::ModifyDerive<DIBLevelBrowserLayer, LevelBrowserLayer> >::setHookPriorityBefore(std::__ndk1::basic_string_view<char, std::__ndk1::char_traits<char> >, geode::Mod*)::{lambda(geode::ModStateEvent*)#1}, std::__ndk1::allocator<geode::modifier::ModifyBase<geode::modifier::ModifyDerive<DIBLevelBrowserLayer, LevelBrowserLayer> >::setHookPriorityBefore(std::__ndk1::basic_string_view<char, std::__ndk1::char_traits<char> >, geode::Mod*)::{lambda(geode::ModStateEvent*)#1}>, void (geode::ModStateEvent*)>::destroy_deallocate()
PUBLIC 33554 0 std::__ndk1::__function::__func<geode::modifier::ModifyBase<geode::modifier::ModifyDerive<DIBLevelBrowserLayer, LevelBrowserLayer> >::setHookPriorityBefore(std::__ndk1::basic_string_view<char, std::__ndk1::char_traits<char> >, geode::Mod*)::{lambda(geode::ModStateEvent*)#1}, std::__ndk1::allocator<geode::modifier::ModifyBase<geode::modifier::ModifyDerive<DIBLevelBrowserLayer, LevelBrowserLayer> >::setHookPriorityBefore(std::__ndk1::basic_string_view<char, std::__ndk1::char_traits<char> >, geode::Mod*)::{lambda(geode::ModStateEvent*)#1}>, void (geode::ModStateEvent*)>::operator()(geode::ModStateEvent*&&)
PUBLIC 3355c 0 std::__ndk1::__function::__func<geode::modifier::ModifyBase<geode::modifier::ModifyDerive<DIBLevelBrowserLayer, LevelBrowserLayer> >::setHookPriorityBefore(std::__ndk1::basic_string_view<char, std::__ndk1::char_traits<char> >, geode::Mod*)::{lambda(geode::ModStateEvent*)#1}, std::__ndk1::allocator<geode::modifier::ModifyBase<geode::modifier::ModifyDerive<DIBLevelBrowserLayer, LevelBrowserLayer> >::setHookPriorityBefore(std::__ndk1::basic_string_view<char, std::__ndk1::char_traits<char> >, geode::Mod*)::{lambda(geode::ModStateEvent*)#1}>, void (geode::ModStateEvent*)>::target(std::type_info const&) const
PUBLIC 33578 0 std::__ndk1::__function::__func<geode::modifier::ModifyBase<geode::modifier::ModifyDerive<DIBLevelBrowserLayer, LevelBrowserLayer> >::setHookPriorityBefore(std::__ndk1::basic_string_view<char, std::__ndk1::char_traits<char> >, geode::Mod*)::{lambda(geode::ModStateEvent*)#1}, std::__ndk1::allocator<geode::modifier::ModifyBase<geode::modifier::ModifyDerive<DIBLevelBrowserLayer, LevelBrowserLayer> >::setHookPriorityBefore(std::__ndk1::basic_string_view<char, std::__ndk1::char_traits<char> >, geode::Mod*)::{lambda(geode::ModStateEvent*)#1}>, void (geode::ModStateEvent*)>::target_type() const
PUBLIC 33584 0 geode::EventListener<geode::ModStateFilter>::getPool() const
PUBLIC 33588 0 geode::EventListener<geode::ModStateFilter>::handle(geode::Event*)
PUBLIC 336fc 0 geode::EventListener<geode::ModStateFilter>::~EventListener()
PUBLIC 33758 0 geode::EventListener<geode::ModStateFilter>::~EventListener()
PUBLIC 337bc 0 geode::cast::traverseTypeinfoFor(void*, geode::cast::ClassTypeinfoType const*, char const*)
PUBLIC 338c0 0 std::__ndk1::__variant_detail::__visitation::__base::__dispatcher<(unsigned long)0>::__dispatch[abi:ne180000]<std::__ndk1::__variant_detail::__dtor<std::__ndk1::__variant_detail::__traits<std::__ndk1::monostate, std::__ndk1::basic_string<char, std::__ndk1::char_traits<char>, std::__ndk1::allocator<char> > >, (std::__ndk1::__variant_detail::_Trait)1>::__destroy[abi:ne180000]()::{lambda(auto:1&)#1}, std::__ndk1::__variant_detail::__base<(std::__ndk1::__variant_detail::__traits<std::__ndk1::monostate, std::__ndk1::basic_string<char, std::__ndk1::char_traits<char>, std::__ndk1::allocator<char> > >)1, std::__ndk1::__variant_detail::__traits, std::__ndk1::allocator<char> >&>(std::__ndk1::__variant_detail::__dtor<std::__ndk1::__variant_detail::__traits<std::__ndk1::monostate, std::__ndk1::basic_string<char, std::__ndk1::char_traits<char>, std::__ndk1::allocator<char> > >, (std::__ndk1::__variant_detail::_Trait)1>, std::__ndk1::__variant_detail::__base<(std::__ndk1::__variant_detail::__traits<std::__ndk1::monostate, std::__ndk1::basic_string<char, std::__ndk1::char_traits<char>, std::__ndk1::allocator<char> > >)1, std::__ndk1::__variant_detail::__traits, std::__ndk1::allocator<char> >&)
PUBLIC 338c4 0 std::__ndk1::__variant_detail::__visitation::__base::__dispatcher<(unsigned long)1>::__dispatch[abi:ne180000]<std::__ndk1::__variant_detail::__dtor<std::__ndk1::__variant_detail::__traits<std::__ndk1::monostate, std::__ndk1::basic_string<char, std::__ndk1::char_traits<char>, std::__ndk1::allocator<char> > >, (std::__ndk1::__variant_detail::_Trait)1>::__destroy[abi:ne180000]()::{lambda(auto:1&)#1}, std::__ndk1::__variant_detail::__base<(std::__ndk1::__variant_detail::__traits<std::__ndk1::monostate, std::__ndk1::basic_string<char, std::__ndk1::char_traits<char>, std::__ndk1::allocator<char> > >)1, std::__ndk1::__variant_detail::__traits, std::__ndk1::allocator<char> >&>(std::__ndk1::__variant_detail::__dtor<std::__ndk1::__variant_detail::__traits<std::__ndk1::monostate, std::__ndk1::basic_string<char, std::__ndk1::char_traits<char>, std::__ndk1::allocator<char> > >, (std::__ndk1::__variant_detail::_Trait)1>, std::__ndk1::__variant_detail::__base<(std::__ndk1::__variant_detail::__traits<std::__ndk1::monostate, std::__ndk1::basic_string<char, std::__ndk1::char_traits<char>, std::__ndk1::allocator<char> > >)1, std::__ndk1::__variant_detail::__traits, std::__ndk1::allocator<char> >&)
PUBLIC 338d8 0 std::__ndk1::vector<std::__ndk1::basic_string<char, std::__ndk1::char_traits<char>, std::__ndk1::allocator<char> >, std::__ndk1::allocator<std::__ndk1::basic_string<char, std::__ndk1::char_traits<char>, std::__ndk1::allocator<char> > > >::__push_back_slow_path<std::__ndk1::basic_string<char, std::__ndk1::char_traits<char>, std::__ndk1::allocator<char> > const&>(std::__ndk1::basic_string<char, std::__ndk1::char_traits<char>, std::__ndk1::allocator<char> > const&)
PUBLIC 33b00 0 std::__ndk1::__split_buffer<std::__ndk1::basic_string<char, std::__ndk1::char_traits<char>, std::__ndk1::allocator<char> >, std::__ndk1::allocator<std::__ndk1::basic_string<char, std::__ndk1::char_traits<char>, std::__ndk1::allocator<char> > >&>::~__split_buffer()
PUBLIC 33b68 0 std::__ndk1::__variant_detail::__visitation::__base::__dispatcher<(unsigned long)0>::__dispatch[abi:ne180000]<std::__ndk1::__variant_detail::__dtor<std::__ndk1::__variant_detail::__traits<geode::Hook*, std::__ndk1::basic_string<char, std::__ndk1::char_traits<char>, std::__ndk1::allocator<char> > >, (std::__ndk1::__variant_detail::_Trait)1>::__destroy[abi:ne180000]()::{lambda(auto:1&)#1}, std::__ndk1::__variant_detail::__base<(std::__ndk1::__variant_detail::__traits<geode::Hook*, std::__ndk1::basic_string<char, std::__ndk1::char_traits<char>, std::__ndk1::allocator<char> > >)1, geode::Hook, std::__ndk1::allocator<char> >&>(std::__ndk1::__variant_detail::__dtor<std::__ndk1::__variant_detail::__traits<geode::Hook*, std::__ndk1::basic_string<char, std::__ndk1::char_traits<char>, std::__ndk1::allocator<char> > >, (std::__ndk1::__variant_detail::_Trait)1>, std::__ndk1::__variant_detail::__base<(std::__ndk1::__variant_detail::__traits<geode::Hook*, std::__ndk1::basic_string<char, std::__ndk1::char_traits<char>, std::__ndk1::allocator<char> > >)1, geode::Hook, std::__ndk1::allocator<char> >&)
PUBLIC 33b6c 0 std::__ndk1::__variant_detail::__visitation::__base::__dispatcher<(unsigned long)1>::__dispatch[abi:ne180000]<std::__ndk1::__variant_detail::__dtor<std::__ndk1::__variant_detail::__traits<geode::Hook*, std::__ndk1::basic_string<char, std::__ndk1::char_traits<char>, std::__ndk1::allocator<char> > >, (std::__ndk1::__variant_detail::_Trait)1>::__destroy[abi:ne180000]()::{lambda(auto:1&)#1}, std::__ndk1::__variant_detail::__base<(std::__ndk1::__variant_detail::__traits<geode::Hook*, std::__ndk1::basic_string<char, std::__ndk1::char_traits<char>, std::__ndk1::allocator<char> > >)1, geode::Hook, std::__ndk1::allocator<char> >&>(std::__ndk1::__variant_detail::__dtor<std::__ndk1::__variant_detail::__traits<geode::Hook*, std::__ndk1::basic_string<char, std::__ndk1::char_traits<char>, std::__ndk1::allocator<char> > >, (std::__ndk1::__variant_detail::_Trait)1>, std::__ndk1::__variant_detail::__base<(std::__ndk1::__variant_detail::__traits<geode::Hook*, std::__ndk1::basic_string<char, std::__ndk1::char_traits<char>, std::__ndk1::allocator<char> > >)1, geode::Hook, std::__ndk1::allocator<char> >&)
PUBLIC 33b80 0 std::__ndk1::__tree<std::__ndk1::__value_type<std::__ndk1::basic_string<char, std::__ndk1::char_traits<char>, std::__ndk1::allocator<char> >, std::__ndk1::shared_ptr<geode::Hook> >, std::__ndk1::__map_value_compare<std::__ndk1::basic_string<char, std::__ndk1::char_traits<char>, std::__ndk1::allocator<char> >, std::__ndk1::__value_type<std::__ndk1::basic_string<char, std::__ndk1::char_traits<char>, std::__ndk1::allocator<char> >, std::__ndk1::shared_ptr<geode::Hook> >, std::__ndk1::less<std::__ndk1::basic_string<char, std::__ndk1::char_traits<char>, std::__ndk1::allocator<char> > >, true>, std::__ndk1::allocator<std::__ndk1::__value_type<std::__ndk1::basic_string<char, std::__ndk1::char_traits<char>, std::__ndk1::allocator<char> >, std::__ndk1::shared_ptr<geode::Hook> > > >::erase(std::__ndk1::__tree_const_iterator<std::__ndk1::__value_type<std::__ndk1::basic_string<char, std::__ndk1::char_traits<char>, std::__ndk1::allocator<char> >, std::__ndk1::shared_ptr<geode::Hook> >, std::__ndk1::__tree_node<std::__ndk1::__value_type<std::__ndk1::basic_string<char, std::__ndk1::char_traits<char>, std::__ndk1::allocator<char> >, std::__ndk1::shared_ptr<geode::Hook> >, void*>*, long>)
PUBLIC 33c54 0 std::__ndk1::__tree_remove[abi:ne180000]<std::__ndk1::__tree_node_base<void*>*>(std::__ndk1::__tree_node_base<void*>*, std::__ndk1::__tree_node_base<void*>*)
PUBLIC 3401c 0 std::__ndk1::__tree<std::__ndk1::__value_type<std::__ndk1::basic_string<char, std::__ndk1::char_traits<char>, std::__ndk1::allocator<char> >, std::__ndk1::shared_ptr<geode::Hook> >, std::__ndk1::__map_value_compare<std::__ndk1::basic_string<char, std::__ndk1::char_traits<char>, std::__ndk1::allocator<char> >, std::__ndk1::__value_type<std::__ndk1::basic_string<char, std::__ndk1::char_traits<char>, std::__ndk1::allocator<char> >, std::__ndk1::shared_ptr<geode::Hook> >, std::__ndk1::less<std::__ndk1::basic_string<char, std::__ndk1::char_traits<char>, std::__ndk1::allocator<char> > >, true>, std::__ndk1::allocator<std::__ndk1::__value_type<std::__ndk1::basic_string<char, std::__ndk1::char_traits<char>, std::__ndk1::allocator<char> >, std::__ndk1::shared_ptr<geode::Hook> > > >::destroy(std::__ndk1::__tree_node<std::__ndk1::__value_type<std::__ndk1::basic_string<char, std::__ndk1::char_traits<char>, std::__ndk1::allocator<char> >, std::__ndk1::shared_ptr<geode::Hook> >, void*>*)
PUBLIC 340a8 0 geode::modifier::AsStaticFunction_loadLevelsFinished<DIBLevelBrowserLayer, void (DIBLevelBrowserLayer::*)(cocos2d::CCArray*, char const*, int)>::Impl<void (DIBLevelBrowserLayer::*)(cocos2d::CCArray*, char const*, int)>::function(DIBLevelBrowserLayer*, cocos2d::CCArray*, char const*, int)
PUBLIC 340e4 0 geode::modifier::AsStaticFunction_setupPageInfo<DIBLevelBrowserLayer, void (DIBLevelBrowserLayer::*)(gd::string, char const*)>::Impl<void (DIBLevelBrowserLayer::*)(gd::string, char const*)>::function(DIBLevelBrowserLayer*, gd::string, char const*)
PUBLIC 343d4 0 geode::Hook::create<void (*)(DIBLevelBrowserLayer*, cocos2d::CCObject*)>(void*, void (*)(DIBLevelBrowserLayer*, cocos2d::CCObject*), std::__ndk1::basic_string<char, std::__ndk1::char_traits<char>, std::__ndk1::allocator<char> > const&, tulip::hook::TulipConvention, tulip::hook::HookMetadata const&)
PUBLIC 34558 0 geode::modifier::AsStaticFunction_onBack<DIBLevelBrowserLayer, void (DIBLevelBrowserLayer::*)(cocos2d::CCObject*)>::Impl<void (DIBLevelBrowserLayer::*)(cocos2d::CCObject*)>::function(DIBLevelBrowserLayer*, cocos2d::CCObject*)
PUBLIC 34594 0 geode::modifier::AsStaticFunction_setIDPopupClosed<DIBLevelBrowserLayer, void (DIBLevelBrowserLayer::*)(SetIDPopup*, int)>::Impl<void (DIBLevelBrowserLayer::*)(SetIDPopup*, int)>::function(DIBLevelBrowserLayer*, SetIDPopup*, int)
PUBLIC 34638 0 geode::modifier::AsStaticFunction_init<DIBLevelBrowserLayer, bool (DIBLevelBrowserLayer::*)(GJSearchObject*)>::Impl<bool (DIBLevelBrowserLayer::*)(GJSearchObject*)>::function(DIBLevelBrowserLayer*, GJSearchObject*)
PUBLIC 34718 0 geode::modifier::AsStaticFunction_loadPage<DIBLevelBrowserLayer, void (DIBLevelBrowserLayer::*)(GJSearchObject*)>::Impl<void (DIBLevelBrowserLayer::*)(GJSearchObject*)>::function(DIBLevelBrowserLayer*, GJSearchObject*)
PUBLIC 34754 0 geode::modifier::AsStaticFunction_onGoToPage<DIBLevelBrowserLayer, void (DIBLevelBrowserLayer::*)(cocos2d::CCObject*)>::Impl<void (DIBLevelBrowserLayer::*)(cocos2d::CCObject*)>::function(DIBLevelBrowserLayer*, cocos2d::CCObject*)
PUBLIC 34850 0 geode::modifier::AsStaticFunction_onNextPage<DIBLevelBrowserLayer, void (DIBLevelBrowserLayer::*)(cocos2d::CCObject*)>::Impl<void (DIBLevelBrowserLayer::*)(cocos2d::CCObject*)>::function(DIBLevelBrowserLayer*, cocos2d::CCObject*)
PUBLIC 348bc 0 geode::modifier::AsStaticFunction_onPrevPage<DIBLevelBrowserLayer, void (DIBLevelBrowserLayer::*)(cocos2d::CCObject*)>::Impl<void (DIBLevelBrowserLayer::*)(cocos2d::CCObject*)>::function(DIBLevelBrowserLayer*, cocos2d::CCObject*)
PUBLIC 34928 0 geode::addresser::Addresser::addressOfVirtual<void, LevelBrowserLayer, cocos2d::CCArray*, char const*, int>(void (LevelBrowserLayer::*)(cocos2d::CCArray*, char const*, int))
PUBLIC 349d0 0 LevelBrowserLayer::LevelBrowserLayer(geode::ZeroConstructorType)
PUBLIC 34a80 0 std::__ndk1::shared_ptr<tulip::hook::CallingConvention>::~shared_ptr[abi:ne180000]()
PUBLIC 34ad0 0 tulip::hook::HandlerMetadata::~HandlerMetadata()
PUBLIC 34b34 0 std::__ndk1::vector<tulip::hook::AbstractType, std::__ndk1::allocator<tulip::hook::AbstractType> >::__throw_length_error[abi:ne180000]() const
PUBLIC 34b48 0 DIBLevelBrowserLayer::updatePageButtons()
PUBLIC 34ce4 0 geode::modifier::FieldIntermediate<DIBLevelBrowserLayer, LevelBrowserLayer>::self()
PUBLIC 34e6c 0 geode::modifier::FieldContainer::getField(unsigned long)
PUBLIC 35124 0 geode::modifier::FieldContainer::setField(unsigned long, unsigned long, std::__ndk1::function<void (void*)>)
PUBLIC 35238 0 geode::modifier::FieldIntermediate<DIBLevelBrowserLayer, LevelBrowserLayer>::fieldDestructor(void*)
PUBLIC 3523c 0 std::__ndk1::vector<void*, std::__ndk1::allocator<void*> >::__throw_length_error[abi:ne180000]() const
PUBLIC 35250 0 std::__ndk1::vector<std::__ndk1::function<void (void*)>, std::__ndk1::allocator<std::__ndk1::function<void (void*)> > >::__push_back_slow_path<std::__ndk1::function<void (void*)> >(std::__ndk1::function<void (void*)>&&)
PUBLIC 3547c 0 std::__ndk1::vector<std::__ndk1::function<void (void*)>, std::__ndk1::allocator<std::__ndk1::function<void (void*)> > >::__throw_length_error[abi:ne180000]() const
PUBLIC 35490 0 std::__ndk1::vector<void*, std::__ndk1::allocator<void*> >::__throw_out_of_range[abi:ne180000]() const
PUBLIC 354a4 0 std::__ndk1::__throw_out_of_range[abi:ne180000](char const*)
PUBLIC 354f4 0 std::out_of_range::out_of_range[abi:ne180000](char const*)
PUBLIC 35524 0 std::__ndk1::vector<std::__ndk1::function<void (void*)>, std::__ndk1::allocator<std::__ndk1::function<void (void*)> > >::__throw_out_of_range[abi:ne180000]() const
PUBLIC 35538 0 std::__ndk1::__function::__base<void (void*)>::~__base()
PUBLIC 3553c 0 std::__ndk1::__function::__func<void (*)(void*), std::__ndk1::allocator<void (*)(void*)>, void (void*)>::~__func()
PUBLIC 35540 0 std::__ndk1::__function::__func<void (*)(void*), std::__ndk1::allocator<void (*)(void*)>, void (void*)>::__clone() const
PUBLIC 35578 0 std::__ndk1::__function::__func<void (*)(void*), std::__ndk1::allocator<void (*)(void*)>, void (void*)>::__clone(std::__ndk1::__function::__base<void (void*)>*) const
PUBLIC 35590 0 std::__ndk1::__function::__func<void (*)(void*), std::__ndk1::allocator<void (*)(void*)>, void (void*)>::destroy()
PUBLIC 35594 0 std::__ndk1::__function::__func<void (*)(void*), std::__ndk1::allocator<void (*)(void*)>, void (void*)>::destroy_deallocate()
PUBLIC 35598 0 std::__ndk1::__function::__func<void (*)(void*), std::__ndk1::allocator<void (*)(void*)>, void (void*)>::operator()(void*&&)
PUBLIC 355a8 0 std::__ndk1::__function::__func<void (*)(void*), std::__ndk1::allocator<void (*)(void*)>, void (void*)>::target(std::type_info const&) const
PUBLIC 355c4 0 std::__ndk1::__function::__func<void (*)(void*), std::__ndk1::allocator<void (*)(void*)>, void (void*)>::target_type() const
PUBLIC 355d0 0 std::__ndk1::__tree<std::__ndk1::__value_type<std::__ndk1::basic_string<char, std::__ndk1::char_traits<char>, std::__ndk1::allocator<char> >, std::__ndk1::shared_ptr<geode::Hook> >, std::__ndk1::__map_value_compare<std::__ndk1::basic_string<char, std::__ndk1::char_traits<char>, std::__ndk1::allocator<char> >, std::__ndk1::__value_type<std::__ndk1::basic_string<char, std::__ndk1::char_traits<char>, std::__ndk1::allocator<char> >, std::__ndk1::shared_ptr<geode::Hook> >, std::__ndk1::less<std::__ndk1::basic_string<char, std::__ndk1::char_traits<char>, std::__ndk1::allocator<char> > >, true>, std::__ndk1::allocator<std::__ndk1::__value_type<std::__ndk1::basic_string<char, std::__ndk1::char_traits<char>, std::__ndk1::allocator<char> >, std::__ndk1::shared_ptr<geode::Hook> > > >::__emplace_unique_key_args<std::__ndk1::basic_string<char, std::__ndk1::char_traits<char>, std::__ndk1::allocator<char> >, std::__ndk1::piecewise_construct_t const&, std::__ndk1::tuple<std::__ndk1::basic_string<char, std::__ndk1::char_traits<char>, std::__ndk1::allocator<char> >&&>, std::__ndk1::tuple<> >(std::__ndk1::basic_string<char, std::__ndk1::char_traits<char>, std::__ndk1::allocator<char> > const&, std::__ndk1::piecewise_construct_t const&, std::__ndk1::tuple<std::__ndk1::basic_string<char, std::__ndk1::char_traits<char>, std::__ndk1::allocator<char> >&&>, std::__ndk1::tuple<>)
PUBLIC 35748 0 geode::addresser::Addresser::addressOfVirtual<void, LevelBrowserLayer, cocos2d::CCObject*>(void (LevelBrowserLayer::*)(cocos2d::CCObject*))
PUBLIC 357f0 0 geode::addresser::Addresser::addressOfVirtual<void, LevelBrowserLayer, SetIDPopup*, int>(void (LevelBrowserLayer::*)(SetIDPopup*, int))
PUBLIC 35898 0 DIBLevelBrowserLayer::onBetterInfoRandom(cocos2d::CCObject*)
PUBLIC 35ae0 0 DIBLevelBrowserLayer::onBetterInfoLast(cocos2d::CCObject*)
PUBLIC 35b54 0 DIBLevelBrowserLayer::onBetterInfoFirst(cocos2d::CCObject*)
PUBLIC 35bb4 0 std::__ndk1::random_device::random_device[abi:ne180000]()
PUBLIC 35c60 0 std::__ndk1::__independent_bits_engine<std::__ndk1::mersenne_twister_engine<unsigned long, (unsigned long)32, (unsigned long)624, (unsigned long)397, (unsigned long)31, (unsigned long)2567483615, (unsigned long)11, (unsigned long)4294967295, (unsigned long)7, (unsigned long)2636928640, (unsigned long)15, (unsigned long)4022730752, (unsigned long)18, (unsigned long)1812433253>, unsigned int>::__eval(std::__ndk1::integral_constant<bool, true>)
PUBLIC 35e60 0 __cxx_global_var_init.2
PUBLIC 36684 0 geode::modifier::ModifyBase<geode::modifier::ModifyDerive<DIBLevelCell, LevelCell> >::~ModifyBase()
PUBLIC 366a0 0 geode::modifier::ModifyDerive<DIBLevelCell, LevelCell>::apply()
PUBLIC 36a20 0 geode::modifier::ModifyBase<geode::modifier::ModifyDerive<DIBLevelCell, LevelCell> >::apply()
PUBLIC 36a24 0 geode::Mod::getSettingValue<bool>(std::__ndk1::basic_string_view<char, std::__ndk1::char_traits<char> >) const
PUBLIC 36b58 0 std::__ndk1::shared_ptr<geode::SettingV3>::~shared_ptr[abi:ne180000]()
PUBLIC 36ba8 0 std::__ndk1::shared_ptr<geode::BoolSettingV3>::~shared_ptr[abi:ne180000]()
PUBLIC 36bf8 0 geode::EventListener<geode::SettingChangedFilterV3>::EventListener(std::__ndk1::function<void (std::__ndk1::shared_ptr<geode::SettingV3>)>, geode::SettingChangedFilterV3)
PUBLIC 36cec 0 geode::SettingChangedFilterV3::~SettingChangedFilterV3()
PUBLIC 36d3c 0 std::__ndk1::__function::__base<void (std::__ndk1::shared_ptr<geode::SettingV3>)>::~__base()
PUBLIC 36d40 0 std::__ndk1::__function::__func<geode::listenForSettingChangesV3<bool, DIBLevelCell::onModify(geode::modifier::ModifyBase<geode::modifier::ModifyDerive<DIBLevelCell, LevelCell> >&)::{lambda(bool)#1}>(std::__ndk1::basic_string_view<char, std::__ndk1::char_traits<char> >, DIBLevelCell::onModify(geode::modifier::ModifyBase<geode::modifier::ModifyDerive<DIBLevelCell, LevelCell> >&)::{lambda(bool)#1}&&, geode::Mod*)::{lambda(std::__ndk1::shared_ptr<geode::SettingV3>)#1}, std::__ndk1::allocator<geode::listenForSettingChangesV3<bool, DIBLevelCell::onModify(geode::modifier::ModifyBase<geode::modifier::ModifyDerive<DIBLevelCell, LevelCell> >&)::{lambda(bool)#1}>(std::__ndk1::basic_string_view<char, std::__ndk1::char_traits<char> >, DIBLevelCell::onModify(geode::modifier::ModifyBase<geode::modifier::ModifyDerive<DIBLevelCell, LevelCell> >&)::{lambda(bool)#1}&&, geode::Mod*)::{lambda(std::__ndk1::shared_ptr<geode::SettingV3>)#1}>, void (std::__ndk1::shared_ptr<geode::SettingV3>)>::~__func()
PUBLIC 36d44 0 std::__ndk1::__function::__func<geode::listenForSettingChangesV3<bool, DIBLevelCell::onModify(geode::modifier::ModifyBase<geode::modifier::ModifyDerive<DIBLevelCell, LevelCell> >&)::{lambda(bool)#1}>(std::__ndk1::basic_string_view<char, std::__ndk1::char_traits<char> >, DIBLevelCell::onModify(geode::modifier::ModifyBase<geode::modifier::ModifyDerive<DIBLevelCell, LevelCell> >&)::{lambda(bool)#1}&&, geode::Mod*)::{lambda(std::__ndk1::shared_ptr<geode::SettingV3>)#1}, std::__ndk1::allocator<geode::listenForSettingChangesV3<bool, DIBLevelCell::onModify(geode::modifier::ModifyBase<geode::modifier::ModifyDerive<DIBLevelCell, LevelCell> >&)::{lambda(bool)#1}>(std::__ndk1::basic_string_view<char, std::__ndk1::char_traits<char> >, DIBLevelCell::onModify(geode::modifier::ModifyBase<geode::modifier::ModifyDerive<DIBLevelCell, LevelCell> >&)::{lambda(bool)#1}&&, geode::Mod*)::{lambda(std::__ndk1::shared_ptr<geode::SettingV3>)#1}>, void (std::__ndk1::shared_ptr<geode::SettingV3>)>::__clone() const
PUBLIC 36d78 0 std::__ndk1::__function::__func<geode::listenForSettingChangesV3<bool, DIBLevelCell::onModify(geode::modifier::ModifyBase<geode::modifier::ModifyDerive<DIBLevelCell, LevelCell> >&)::{lambda(bool)#1}>(std::__ndk1::basic_string_view<char, std::__ndk1::char_traits<char> >, DIBLevelCell::onModify(geode::modifier::ModifyBase<geode::modifier::ModifyDerive<DIBLevelCell, LevelCell> >&)::{lambda(bool)#1}&&, geode::Mod*)::{lambda(std::__ndk1::shared_ptr<geode::SettingV3>)#1}, std::__ndk1::allocator<geode::listenForSettingChangesV3<bool, DIBLevelCell::onModify(geode::modifier::ModifyBase<geode::modifier::ModifyDerive<DIBLevelCell, LevelCell> >&)::{lambda(bool)#1}>(std::__ndk1::basic_string_view<char, std::__ndk1::char_traits<char> >, DIBLevelCell::onModify(geode::modifier::ModifyBase<geode::modifier::ModifyDerive<DIBLevelCell, LevelCell> >&)::{lambda(bool)#1}&&, geode::Mod*)::{lambda(std::__ndk1::shared_ptr<geode::SettingV3>)#1}>, void (std::__ndk1::shared_ptr<geode::SettingV3>)>::__clone(std::__ndk1::__function::__base<void (std::__ndk1::shared_ptr<geode::SettingV3>)>*) const
PUBLIC 36d8c 0 std::__ndk1::__function::__func<geode::listenForSettingChangesV3<bool, DIBLevelCell::onModify(geode::modifier::ModifyBase<geode::modifier::ModifyDerive<DIBLevelCell, LevelCell> >&)::{lambda(bool)#1}>(std::__ndk1::basic_string_view<char, std::__ndk1::char_traits<char> >, DIBLevelCell::onModify(geode::modifier::ModifyBase<geode::modifier::ModifyDerive<DIBLevelCell, LevelCell> >&)::{lambda(bool)#1}&&, geode::Mod*)::{lambda(std::__ndk1::shared_ptr<geode::SettingV3>)#1}, std::__ndk1::allocator<geode::listenForSettingChangesV3<bool, DIBLevelCell::onModify(geode::modifier::ModifyBase<geode::modifier::ModifyDerive<DIBLevelCell, LevelCell> >&)::{lambda(bool)#1}>(std::__ndk1::basic_string_view<char, std::__ndk1::char_traits<char> >, DIBLevelCell::onModify(geode::modifier::ModifyBase<geode::modifier::ModifyDerive<DIBLevelCell, LevelCell> >&)::{lambda(bool)#1}&&, geode::Mod*)::{lambda(std::__ndk1::shared_ptr<geode::SettingV3>)#1}>, void (std::__ndk1::shared_ptr<geode::SettingV3>)>::destroy()
PUBLIC 36d90 0 std::__ndk1::__function::__func<geode::listenForSettingChangesV3<bool, DIBLevelCell::onModify(geode::modifier::ModifyBase<geode::modifier::ModifyDerive<DIBLevelCell, LevelCell> >&)::{lambda(bool)#1}>(std::__ndk1::basic_string_view<char, std::__ndk1::char_traits<char> >, DIBLevelCell::onModify(geode::modifier::ModifyBase<geode::modifier::ModifyDerive<DIBLevelCell, LevelCell> >&)::{lambda(bool)#1}&&, geode::Mod*)::{lambda(std::__ndk1::shared_ptr<geode::SettingV3>)#1}, std::__ndk1::allocator<geode::listenForSettingChangesV3<bool, DIBLevelCell::onModify(geode::modifier::ModifyBase<geode::modifier::ModifyDerive<DIBLevelCell, LevelCell> >&)::{lambda(bool)#1}>(std::__ndk1::basic_string_view<char, std::__ndk1::char_traits<char> >, DIBLevelCell::onModify(geode::modifier::ModifyBase<geode::modifier::ModifyDerive<DIBLevelCell, LevelCell> >&)::{lambda(bool)#1}&&, geode::Mod*)::{lambda(std::__ndk1::shared_ptr<geode::SettingV3>)#1}>, void (std::__ndk1::shared_ptr<geode::SettingV3>)>::destroy_deallocate()
PUBLIC 36d94 0 std::__ndk1::__function::__func<geode::listenForSettingChangesV3<bool, DIBLevelCell::onModify(geode::modifier::ModifyBase<geode::modifier::ModifyDerive<DIBLevelCell, LevelCell> >&)::{lambda(bool)#1}>(std::__ndk1::basic_string_view<char, std::__ndk1::char_traits<char> >, DIBLevelCell::onModify(geode::modifier::ModifyBase<geode::modifier::ModifyDerive<DIBLevelCell, LevelCell> >&)::{lambda(bool)#1}&&, geode::Mod*)::{lambda(std::__ndk1::shared_ptr<geode::SettingV3>)#1}, std::__ndk1::allocator<geode::listenForSettingChangesV3<bool, DIBLevelCell::onModify(geode::modifier::ModifyBase<geode::modifier::ModifyDerive<DIBLevelCell, LevelCell> >&)::{lambda(bool)#1}>(std::__ndk1::basic_string_view<char, std::__ndk1::char_traits<char> >, DIBLevelCell::onModify(geode::modifier::ModifyBase<geode::modifier::ModifyDerive<DIBLevelCell, LevelCell> >&)::{lambda(bool)#1}&&, geode::Mod*)::{lambda(std::__ndk1::shared_ptr<geode::SettingV3>)#1}>, void (std::__ndk1::shared_ptr<geode::SettingV3>)>::operator()(std::__ndk1::shared_ptr<geode::SettingV3>&&)
PUBLIC 36fdc 0 std::__ndk1::__function::__func<geode::listenForSettingChangesV3<bool, DIBLevelCell::onModify(geode::modifier::ModifyBase<geode::modifier::ModifyDerive<DIBLevelCell, LevelCell> >&)::{lambda(bool)#1}>(std::__ndk1::basic_string_view<char, std::__ndk1::char_traits<char> >, DIBLevelCell::onModify(geode::modifier::ModifyBase<geode::modifier::ModifyDerive<DIBLevelCell, LevelCell> >&)::{lambda(bool)#1}&&, geode::Mod*)::{lambda(std::__ndk1::shared_ptr<geode::SettingV3>)#1}, std::__ndk1::allocator<geode::listenForSettingChangesV3<bool, DIBLevelCell::onModify(geode::modifier::ModifyBase<geode::modifier::ModifyDerive<DIBLevelCell, LevelCell> >&)::{lambda(bool)#1}>(std::__ndk1::basic_string_view<char, std::__ndk1::char_traits<char> >, DIBLevelCell::onModify(geode::modifier::ModifyBase<geode::modifier::ModifyDerive<DIBLevelCell, LevelCell> >&)::{lambda(bool)#1}&&, geode::Mod*)::{lambda(std::__ndk1::shared_ptr<geode::SettingV3>)#1}>, void (std::__ndk1::shared_ptr<geode::SettingV3>)>::target(std::type_info const&) const
PUBLIC 36ff8 0 std::__ndk1::__function::__func<geode::listenForSettingChangesV3<bool, DIBLevelCell::onModify(geode::modifier::ModifyBase<geode::modifier::ModifyDerive<DIBLevelCell, LevelCell> >&)::{lambda(bool)#1}>(std::__ndk1::basic_string_view<char, std::__ndk1::char_traits<char> >, DIBLevelCell::onModify(geode::modifier::ModifyBase<geode::modifier::ModifyDerive<DIBLevelCell, LevelCell> >&)::{lambda(bool)#1}&&, geode::Mod*)::{lambda(std::__ndk1::shared_ptr<geode::SettingV3>)#1}, std::__ndk1::allocator<geode::listenForSettingChangesV3<bool, DIBLevelCell::onModify(geode::modifier::ModifyBase<geode::modifier::ModifyDerive<DIBLevelCell, LevelCell> >&)::{lambda(bool)#1}>(std::__ndk1::basic_string_view<char, std::__ndk1::char_traits<char> >, DIBLevelCell::onModify(geode::modifier::ModifyBase<geode::modifier::ModifyDerive<DIBLevelCell, LevelCell> >&)::{lambda(bool)#1}&&, geode::Mod*)::{lambda(std::__ndk1::shared_ptr<geode::SettingV3>)#1}>, void (std::__ndk1::shared_ptr<geode::SettingV3>)>::target_type() const
PUBLIC 37004 0 geode::impl::ResultData<void, std::__ndk1::basic_string<char, std::__ndk1::char_traits<char>, std::__ndk1::allocator<char> > >::~ResultData()
PUBLIC 37078 0 geode::EventListener<geode::SettingChangedFilterV3>::getPool() const
PUBLIC 3707c 0 geode::EventListener<geode::SettingChangedFilterV3>::handle(geode::Event*)
PUBLIC 371f0 0 geode::EventListener<geode::SettingChangedFilterV3>::~EventListener()
PUBLIC 3728c 0 geode::EventListener<geode::SettingChangedFilterV3>::~EventListener()
PUBLIC 37330 0 geode::modifier::AsStaticFunction_loadFromLevel<DIBLevelCell, void (DIBLevelCell::*)(GJGameLevel*)>::Impl<void (DIBLevelCell::*)(GJGameLevel*)>::function(DIBLevelCell*, GJGameLevel*)
PUBLIC 37520 0 __cxx_global_var_init.2
PUBLIC 37ddc 0 geode::modifier::ModifyBase<geode::modifier::ModifyDerive<DIBLevelInfoLayer, LevelInfoLayer> >::~ModifyBase()
PUBLIC 37df8 0 geode::modifier::ModifyDerive<DIBLevelInfoLayer, LevelInfoLayer>::apply()
PUBLIC 381a8 0 geode::modifier::ModifyBase<geode::modifier::ModifyDerive<DIBLevelInfoLayer, LevelInfoLayer> >::apply()
PUBLIC 381ac 0 geode::modifier::ModifyBase<geode::modifier::ModifyDerive<DIBLevelInfoLayer, LevelInfoLayer> >::setHookPriorityBefore(std::__ndk1::basic_string_view<char, std::__ndk1::char_traits<char> >, geode::Mod*)::{lambda(geode::ModStateEvent*)#1}::operator()(geode::ModStateEvent*) const
PUBLIC 382bc 0 std::__ndk1::__function::__func<geode::modifier::ModifyBase<geode::modifier::ModifyDerive<DIBLevelInfoLayer, LevelInfoLayer> >::setHookPriorityBefore(std::__ndk1::basic_string_view<char, std::__ndk1::char_traits<char> >, geode::Mod*)::{lambda(geode::ModStateEvent*)#1}, std::__ndk1::allocator<geode::modifier::ModifyBase<geode::modifier::ModifyDerive<DIBLevelInfoLayer, LevelInfoLayer> >::setHookPriorityBefore(std::__ndk1::basic_string_view<char, std::__ndk1::char_traits<char> >, geode::Mod*)::{lambda(geode::ModStateEvent*)#1}>, void (geode::ModStateEvent*)>::~__func()
PUBLIC 382c0 0 std::__ndk1::__function::__func<geode::modifier::ModifyBase<geode::modifier::ModifyDerive<DIBLevelInfoLayer, LevelInfoLayer> >::setHookPriorityBefore(std::__ndk1::basic_string_view<char, std::__ndk1::char_traits<char> >, geode::Mod*)::{lambda(geode::ModStateEvent*)#1}, std::__ndk1::allocator<geode::modifier::ModifyBase<geode::modifier::ModifyDerive<DIBLevelInfoLayer, LevelInfoLayer> >::setHookPriorityBefore(std::__ndk1::basic_string_view<char, std::__ndk1::char_traits<char> >, geode::Mod*)::{lambda(geode::ModStateEvent*)#1}>, void (geode::ModStateEvent*)>::__clone() const
PUBLIC 382f8 0 std::__ndk1::__function::__func<geode::modifier::ModifyBase<geode::modifier::ModifyDerive<DIBLevelInfoLayer, LevelInfoLayer> >::setHookPriorityBefore(std::__ndk1::basic_string_view<char, std::__ndk1::char_traits<char> >, geode::Mod*)::{lambda(geode::ModStateEvent*)#1}, std::__ndk1::allocator<geode::modifier::ModifyBase<geode::modifier::ModifyDerive<DIBLevelInfoLayer, LevelInfoLayer> >::setHookPriorityBefore(std::__ndk1::basic_string_view<char, std::__ndk1::char_traits<char> >, geode::Mod*)::{lambda(geode::ModStateEvent*)#1}>, void (geode::ModStateEvent*)>::__clone(std::__ndk1::__function::__base<void (geode::ModStateEvent*)>*) const
PUBLIC 38310 0 std::__ndk1::__function::__func<geode::modifier::ModifyBase<geode::modifier::ModifyDerive<DIBLevelInfoLayer, LevelInfoLayer> >::setHookPriorityBefore(std::__ndk1::basic_string_view<char, std::__ndk1::char_traits<char> >, geode::Mod*)::{lambda(geode::ModStateEvent*)#1}, std::__ndk1::allocator<geode::modifier::ModifyBase<geode::modifier::ModifyDerive<DIBLevelInfoLayer, LevelInfoLayer> >::setHookPriorityBefore(std::__ndk1::basic_string_view<char, std::__ndk1::char_traits<char> >, geode::Mod*)::{lambda(geode::ModStateEvent*)#1}>, void (geode::ModStateEvent*)>::destroy()
PUBLIC 38314 0 std::__ndk1::__function::__func<geode::modifier::ModifyBase<geode::modifier::ModifyDerive<DIBLevelInfoLayer, LevelInfoLayer> >::setHookPriorityBefore(std::__ndk1::basic_string_view<char, std::__ndk1::char_traits<char> >, geode::Mod*)::{lambda(geode::ModStateEvent*)#1}, std::__ndk1::allocator<geode::modifier::ModifyBase<geode::modifier::ModifyDerive<DIBLevelInfoLayer, LevelInfoLayer> >::setHookPriorityBefore(std::__ndk1::basic_string_view<char, std::__ndk1::char_traits<char> >, geode::Mod*)::{lambda(geode::ModStateEvent*)#1}>, void (geode::ModStateEvent*)>::destroy_deallocate()
PUBLIC 38318 0 std::__ndk1::__function::__func<geode::modifier::ModifyBase<geode::modifier::ModifyDerive<DIBLevelInfoLayer, LevelInfoLayer> >::setHookPriorityBefore(std::__ndk1::basic_string_view<char, std::__ndk1::char_traits<char> >, geode::Mod*)::{lambda(geode::ModStateEvent*)#1}, std::__ndk1::allocator<geode::modifier::ModifyBase<geode::modifier::ModifyDerive<DIBLevelInfoLayer, LevelInfoLayer> >::setHookPriorityBefore(std::__ndk1::basic_string_view<char, std::__ndk1::char_traits<char> >, geode::Mod*)::{lambda(geode::ModStateEvent*)#1}>, void (geode::ModStateEvent*)>::operator()(geode::ModStateEvent*&&)
PUBLIC 38320 0 std::__ndk1::__function::__func<geode::modifier::ModifyBase<geode::modifier::ModifyDerive<DIBLevelInfoLayer, LevelInfoLayer> >::setHookPriorityBefore(std::__ndk1::basic_string_view<char, std::__ndk1::char_traits<char> >, geode::Mod*)::{lambda(geode::ModStateEvent*)#1}, std::__ndk1::allocator<geode::modifier::ModifyBase<geode::modifier::ModifyDerive<DIBLevelInfoLayer, LevelInfoLayer> >::setHookPriorityBefore(std::__ndk1::basic_string_view<char, std::__ndk1::char_traits<char> >, geode::Mod*)::{lambda(geode::ModStateEvent*)#1}>, void (geode::ModStateEvent*)>::target(std::type_info const&) const
PUBLIC 3833c 0 std::__ndk1::__function::__func<geode::modifier::ModifyBase<geode::modifier::ModifyDerive<DIBLevelInfoLayer, LevelInfoLayer> >::setHookPriorityBefore(std::__ndk1::basic_string_view<char, std::__ndk1::char_traits<char> >, geode::Mod*)::{lambda(geode::ModStateEvent*)#1}, std::__ndk1::allocator<geode::modifier::ModifyBase<geode::modifier::ModifyDerive<DIBLevelInfoLayer, LevelInfoLayer> >::setHookPriorityBefore(std::__ndk1::basic_string_view<char, std::__ndk1::char_traits<char> >, geode::Mod*)::{lambda(geode::ModStateEvent*)#1}>, void (geode::ModStateEvent*)>::target_type() const
PUBLIC 38348 0 geode::modifier::AsStaticFunction_init<DIBLevelInfoLayer, bool (DIBLevelInfoLayer::*)(GJGameLevel*, bool)>::Impl<bool (DIBLevelInfoLayer::*)(GJGameLevel*, bool)>::function(DIBLevelInfoLayer*, GJGameLevel*, bool)
PUBLIC 3875c 0 DIBLevelInfoLayer::onDemonInfo(cocos2d::CCObject*)
PUBLIC 38e24 0 __cxx_global_var_init.2
PUBLIC 396ec 0 geode::modifier::ModifyBase<geode::modifier::ModifyDerive<DIBLevelPage, LevelPage> >::~ModifyBase()
PUBLIC 39708 0 geode::modifier::ModifyDerive<DIBLevelPage, LevelPage>::apply()
PUBLIC 39a90 0 geode::modifier::ModifyBase<geode::modifier::ModifyDerive<DIBLevelPage, LevelPage> >::apply()
PUBLIC 39a94 0 geode::modifier::ModifyBase<geode::modifier::ModifyDerive<DIBLevelPage, LevelPage> >::setHookPriorityBefore(std::__ndk1::basic_string_view<char, std::__ndk1::char_traits<char> >, geode::Mod*)::{lambda(geode::ModStateEvent*)#1}::operator()(geode::ModStateEvent*) const
PUBLIC 39ba4 0 std::__ndk1::__function::__func<geode::modifier::ModifyBase<geode::modifier::ModifyDerive<DIBLevelPage, LevelPage> >::setHookPriorityBefore(std::__ndk1::basic_string_view<char, std::__ndk1::char_traits<char> >, geode::Mod*)::{lambda(geode::ModStateEvent*)#1}, std::__ndk1::allocator<geode::modifier::ModifyBase<geode::modifier::ModifyDerive<DIBLevelPage, LevelPage> >::setHookPriorityBefore(std::__ndk1::basic_string_view<char, std::__ndk1::char_traits<char> >, geode::Mod*)::{lambda(geode::ModStateEvent*)#1}>, void (geode::ModStateEvent*)>::~__func()
PUBLIC 39ba8 0 std::__ndk1::__function::__func<geode::modifier::ModifyBase<geode::modifier::ModifyDerive<DIBLevelPage, LevelPage> >::setHookPriorityBefore(std::__ndk1::basic_string_view<char, std::__ndk1::char_traits<char> >, geode::Mod*)::{lambda(geode::ModStateEvent*)#1}, std::__ndk1::allocator<geode::modifier::ModifyBase<geode::modifier::ModifyDerive<DIBLevelPage, LevelPage> >::setHookPriorityBefore(std::__ndk1::basic_string_view<char, std::__ndk1::char_traits<char> >, geode::Mod*)::{lambda(geode::ModStateEvent*)#1}>, void (geode::ModStateEvent*)>::__clone() const
PUBLIC 39be0 0 std::__ndk1::__function::__func<geode::modifier::ModifyBase<geode::modifier::ModifyDerive<DIBLevelPage, LevelPage> >::setHookPriorityBefore(std::__ndk1::basic_string_view<char, std::__ndk1::char_traits<char> >, geode::Mod*)::{lambda(geode::ModStateEvent*)#1}, std::__ndk1::allocator<geode::modifier::ModifyBase<geode::modifier::ModifyDerive<DIBLevelPage, LevelPage> >::setHookPriorityBefore(std::__ndk1::basic_string_view<char, std::__ndk1::char_traits<char> >, geode::Mod*)::{lambda(geode::ModStateEvent*)#1}>, void (geode::ModStateEvent*)>::__clone(std::__ndk1::__function::__base<void (geode::ModStateEvent*)>*) const
PUBLIC 39bf8 0 std::__ndk1::__function::__func<geode::modifier::ModifyBase<geode::modifier::ModifyDerive<DIBLevelPage, LevelPage> >::setHookPriorityBefore(std::__ndk1::basic_string_view<char, std::__ndk1::char_traits<char> >, geode::Mod*)::{lambda(geode::ModStateEvent*)#1}, std::__ndk1::allocator<geode::modifier::ModifyBase<geode::modifier::ModifyDerive<DIBLevelPage, LevelPage> >::setHookPriorityBefore(std::__ndk1::basic_string_view<char, std::__ndk1::char_traits<char> >, geode::Mod*)::{lambda(geode::ModStateEvent*)#1}>, void (geode::ModStateEvent*)>::destroy()
PUBLIC 39bfc 0 std::__ndk1::__function::__func<geode::modifier::ModifyBase<geode::modifier::ModifyDerive<DIBLevelPage, LevelPage> >::setHookPriorityBefore(std::__ndk1::basic_string_view<char, std::__ndk1::char_traits<char> >, geode::Mod*)::{lambda(geode::ModStateEvent*)#1}, std::__ndk1::allocator<geode::modifier::ModifyBase<geode::modifier::ModifyDerive<DIBLevelPage, LevelPage> >::setHookPriorityBefore(std::__ndk1::basic_string_view<char, std::__ndk1::char_traits<char> >, geode::Mod*)::{lambda(geode::ModStateEvent*)#1}>, void (geode::ModStateEvent*)>::destroy_deallocate()
PUBLIC 39c00 0 std::__ndk1::__function::__func<geode::modifier::ModifyBase<geode::modifier::ModifyDerive<DIBLevelPage, LevelPage> >::setHookPriorityBefore(std::__ndk1::basic_string_view<char, std::__ndk1::char_traits<char> >, geode::Mod*)::{lambda(geode::ModStateEvent*)#1}, std::__ndk1::allocator<geode::modifier::ModifyBase<geode::modifier::ModifyDerive<DIBLevelPage, LevelPage> >::setHookPriorityBefore(std::__ndk1::basic_string_view<char, std::__ndk1::char_traits<char> >, geode::Mod*)::{lambda(geode::ModStateEvent*)#1}>, void (geode::ModStateEvent*)>::operator()(geode::ModStateEvent*&&)
PUBLIC 39c08 0 std::__ndk1::__function::__func<geode::modifier::ModifyBase<geode::modifier::ModifyDerive<DIBLevelPage, LevelPage> >::setHookPriorityBefore(std::__ndk1::basic_string_view<char, std::__ndk1::char_traits<char> >, geode::Mod*)::{lambda(geode::ModStateEvent*)#1}, std::__ndk1::allocator<geode::modifier::ModifyBase<geode::modifier::ModifyDerive<DIBLevelPage, LevelPage> >::setHookPriorityBefore(std::__ndk1::basic_string_view<char, std::__ndk1::char_traits<char> >, geode::Mod*)::{lambda(geode::ModStateEvent*)#1}>, void (geode::ModStateEvent*)>::target(std::type_info const&) const
PUBLIC 39c24 0 std::__ndk1::__function::__func<geode::modifier::ModifyBase<geode::modifier::ModifyDerive<DIBLevelPage, LevelPage> >::setHookPriorityBefore(std::__ndk1::basic_string_view<char, std::__ndk1::char_traits<char> >, geode::Mod*)::{lambda(geode::ModStateEvent*)#1}, std::__ndk1::allocator<geode::modifier::ModifyBase<geode::modifier::ModifyDerive<DIBLevelPage, LevelPage> >::setHookPriorityBefore(std::__ndk1::basic_string_view<char, std::__ndk1::char_traits<char> >, geode::Mod*)::{lambda(geode::ModStateEvent*)#1}>, void (geode::ModStateEvent*)>::target_type() const
PUBLIC 39c30 0 geode::modifier::AsStaticFunction_updateDynamicPage<DIBLevelPage, void (DIBLevelPage::*)(GJGameLevel*)>::Impl<void (DIBLevelPage::*)(GJGameLevel*)>::function(DIBLevelPage*, GJGameLevel*)
PUBLIC 3a060 0 __cxx_global_var_init.2
PUBLIC 3a4e0 0 geode::modifier::ModifyBase<geode::modifier::ModifyDerive<DIBLevelSearchLayer, LevelSearchLayer> >::~ModifyBase()
PUBLIC 3a4fc 0 geode::modifier::ModifyDerive<DIBLevelSearchLayer, LevelSearchLayer>::apply()
PUBLIC 3ab34 0 geode::modifier::ModifyBase<geode::modifier::ModifyDerive<DIBLevelSearchLayer, LevelSearchLayer> >::apply()
PUBLIC 3ab38 0 geode::modifier::AsStaticFunction_init<DIBLevelSearchLayer, bool (DIBLevelSearchLayer::*)(int)>::Impl<bool (DIBLevelSearchLayer::*)(int)>::function(DIBLevelSearchLayer*, int)
PUBLIC 3ad28 0 geode::modifier::AsStaticFunction_toggleDifficulty<DIBLevelSearchLayer, void (DIBLevelSearchLayer::*)(cocos2d::CCObject*)>::Impl<void (DIBLevelSearchLayer::*)(cocos2d::CCObject*)>::function(DIBLevelSearchLayer*, cocos2d::CCObject*)
PUBLIC 3ad78 0 geode::modifier::FieldIntermediate<DIBLevelSearchLayer, LevelSearchLayer>::self()
PUBLIC 3af04 0 DIBLevelSearchLayer::onQuickSearch(cocos2d::CCObject*)
PUBLIC 3af20 0 geode::modifier::FieldIntermediate<DIBLevelSearchLayer, LevelSearchLayer>::fieldDestructor(void*)
PUBLIC 3af24 0 __cxx_global_var_init.2
PUBLIC 3b3a4 0 geode::modifier::ModifyBase<geode::modifier::ModifyDerive<DIBMenuLayer, MenuLayer> >::~ModifyBase()
PUBLIC 3b3c0 0 geode::modifier::ModifyDerive<DIBMenuLayer, MenuLayer>::apply()
PUBLIC 3b6c8 0 geode::modifier::ModifyBase<geode::modifier::ModifyDerive<DIBMenuLayer, MenuLayer> >::apply()
PUBLIC 3b6cc 0 geode::modifier::AsStaticFunction_init<DIBMenuLayer, bool (DIBMenuLayer::*)()>::Impl<bool (DIBMenuLayer::*)()>::function(DIBMenuLayer*)
PUBLIC 3c0e0 0 geode::addresser::Addresser::addressOfVirtual<bool, MenuLayer, >(bool (MenuLayer::*)())
PUBLIC 3c188 0 MenuLayer::MenuLayer(geode::ZeroConstructorType)
PUBLIC 3c224 0 std::__ndk1::__optional_destruct_base<geode::Task<geode::utils::web::WebResponse, geode::utils::web::WebProgress>, false>::~__optional_destruct_base[abi:ne180000]()
PUBLIC 3c27c 0 geode::Task<geode::utils::web::WebResponse, geode::utils::web::WebProgress>::~Task()
PUBLIC 3c2cc 0 std::__ndk1::shared_ptr<geode::Task<geode::utils::web::WebResponse, geode::utils::web::WebProgress>::Handle>::~shared_ptr[abi:ne180000]()
PUBLIC 3c31c 0 geode::Task<geode::utils::web::WebResponse, geode::utils::web::WebProgress>::cancel(std::__ndk1::shared_ptr<geode::Task<geode::utils::web::WebResponse, geode::utils::web::WebProgress>::Handle>, bool)
PUBLIC 3c480 0 geode::Task<geode::utils::web::WebResponse, geode::utils::web::WebProgress>::finish(std::__ndk1::shared_ptr<geode::Task<geode::utils::web::WebResponse, geode::utils::web::WebProgress>::Handle>, geode::utils::web::WebResponse&&)
PUBLIC 3c624 0 DIBMenuLayer::init()::{lambda(geode::utils::web::WebResponse*)#1}::operator()(geode::utils::web::WebResponse*) const
PUBLIC 3d8a0 0 geode::utils::web::WebResponse::~WebResponse()
PUBLIC 3d8f0 0 std::__ndk1::__shared_ptr_emplace<geode::Task<geode::utils::web::WebResponse, geode::utils::web::WebProgress>::Handle, std::__ndk1::allocator<geode::Task<geode::utils::web::WebResponse, geode::utils::web::WebProgress>::Handle> >::~__shared_ptr_emplace()
PUBLIC 3d900 0 std::__ndk1::__shared_ptr_emplace<geode::Task<geode::utils::web::WebResponse, geode::utils::web::WebProgress>::Handle, std::__ndk1::allocator<geode::Task<geode::utils::web::WebResponse, geode::utils::web::WebProgress>::Handle> >::~__shared_ptr_emplace()
PUBLIC 3d930 0 std::__ndk1::__shared_ptr_emplace<geode::Task<geode::utils::web::WebResponse, geode::utils::web::WebProgress>::Handle, std::__ndk1::allocator<geode::Task<geode::utils::web::WebResponse, geode::utils::web::WebProgress>::Handle> >::__on_zero_shared()
PUBLIC 3da14 0 std::__ndk1::__shared_ptr_emplace<geode::Task<geode::utils::web::WebResponse, geode::utils::web::WebProgress>::Handle, std::__ndk1::allocator<geode::Task<geode::utils::web::WebResponse, geode::utils::web::WebProgress>::Handle> >::__on_zero_shared_weak()
PUBLIC 3da18 0 std::__ndk1::__optional_destruct_base<geode::utils::web::WebResponse, false>::~__optional_destruct_base[abi:ne180000]()
PUBLIC 3da70 0 geode::Task<geode::utils::web::WebResponse, geode::utils::web::WebProgress>::cancel(std::__ndk1::shared_ptr<geode::Task<geode::utils::web::WebResponse, geode::utils::web::WebProgress>::Handle>, bool)::{lambda()#1}::~{lambda()#1}()
PUBLIC 3dac0 0 std::__ndk1::__function::__func<geode::Task<geode::utils::web::WebResponse, geode::utils::web::WebProgress>::cancel(std::__ndk1::shared_ptr<geode::Task<geode::utils::web::WebResponse, geode::utils::web::WebProgress>::Handle>, bool)::{lambda()#1}, std::__ndk1::allocator<geode::Task<geode::utils::web::WebResponse, geode::utils::web::WebProgress>::cancel(std::__ndk1::shared_ptr<geode::Task<geode::utils::web::WebResponse, geode::utils::web::WebProgress>::Handle>, bool)::{lambda()#1}>, void ()>::~__func()
PUBLIC 3db1c 0 std::__ndk1::__function::__func<geode::Task<geode::utils::web::WebResponse, geode::utils::web::WebProgress>::cancel(std::__ndk1::shared_ptr<geode::Task<geode::utils::web::WebResponse, geode::utils::web::WebProgress>::Handle>, bool)::{lambda()#1}, std::__ndk1::allocator<geode::Task<geode::utils::web::WebResponse, geode::utils::web::WebProgress>::cancel(std::__ndk1::shared_ptr<geode::Task<geode::utils::web::WebResponse, geode::utils::web::WebProgress>::Handle>, bool)::{lambda()#1}>, void ()>::~__func()
PUBLIC 3db88 0 std::__ndk1::__function::__func<geode::Task<geode::utils::web::WebResponse, geode::utils::web::WebProgress>::cancel(std::__ndk1::shared_ptr<geode::Task<geode::utils::web::WebResponse, geode::utils::web::WebProgress>::Handle>, bool)::{lambda()#1}, std::__ndk1::allocator<geode::Task<geode::utils::web::WebResponse, geode::utils::web::WebProgress>::cancel(std::__ndk1::shared_ptr<geode::Task<geode::utils::web::WebResponse, geode::utils::web::WebProgress>::Handle>, bool)::{lambda()#1}>, void ()>::__clone() const
PUBLIC 3dbd8 0 std::__ndk1::__function::__func<geode::Task<geode::utils::web::WebResponse, geode::utils::web::WebProgress>::cancel(std::__ndk1::shared_ptr<geode::Task<geode::utils::web::WebResponse, geode::utils::web::WebProgress>::Handle>, bool)::{lambda()#1}, std::__ndk1::allocator<geode::Task<geode::utils::web::WebResponse, geode::utils::web::WebProgress>::cancel(std::__ndk1::shared_ptr<geode::Task<geode::utils::web::WebResponse, geode::utils::web::WebProgress>::Handle>, bool)::{lambda()#1}>, void ()>::__clone(std::__ndk1::__function::__base<void ()>*) const
PUBLIC 3dc0c 0 std::__ndk1::__function::__func<geode::Task<geode::utils::web::WebResponse, geode::utils::web::WebProgress>::cancel(std::__ndk1::shared_ptr<geode::Task<geode::utils::web::WebResponse, geode::utils::web::WebProgress>::Handle>, bool)::{lambda()#1}, std::__ndk1::allocator<geode::Task<geode::utils::web::WebResponse, geode::utils::web::WebProgress>::cancel(std::__ndk1::shared_ptr<geode::Task<geode::utils::web::WebResponse, geode::utils::web::WebProgress>::Handle>, bool)::{lambda()#1}>, void ()>::destroy()
PUBLIC 3dc5c 0 std::__ndk1::__function::__func<geode::Task<geode::utils::web::WebResponse, geode::utils::web::WebProgress>::cancel(std::__ndk1::shared_ptr<geode::Task<geode::utils::web::WebResponse, geode::utils::web::WebProgress>::Handle>, bool)::{lambda()#1}, std::__ndk1::allocator<geode::Task<geode::utils::web::WebResponse, geode::utils::web::WebProgress>::cancel(std::__ndk1::shared_ptr<geode::Task<geode::utils::web::WebResponse, geode::utils::web::WebProgress>::Handle>, bool)::{lambda()#1}>, void ()>::destroy_deallocate()
PUBLIC 3dcbc 0 std::__ndk1::__function::__func<geode::Task<geode::utils::web::WebResponse, geode::utils::web::WebProgress>::cancel(std::__ndk1::shared_ptr<geode::Task<geode::utils::web::WebResponse, geode::utils::web::WebProgress>::Handle>, bool)::{lambda()#1}, std::__ndk1::allocator<geode::Task<geode::utils::web::WebResponse, geode::utils::web::WebProgress>::cancel(std::__ndk1::shared_ptr<geode::Task<geode::utils::web::WebResponse, geode::utils::web::WebProgress>::Handle>, bool)::{lambda()#1}>, void ()>::operator()()
PUBLIC 3de78 0 std::__ndk1::__function::__func<geode::Task<geode::utils::web::WebResponse, geode::utils::web::WebProgress>::cancel(std::__ndk1::shared_ptr<geode::Task<geode::utils::web::WebResponse, geode::utils::web::WebProgress>::Handle>, bool)::{lambda()#1}, std::__ndk1::allocator<geode::Task<geode::utils::web::WebResponse, geode::utils::web::WebProgress>::cancel(std::__ndk1::shared_ptr<geode::Task<geode::utils::web::WebResponse, geode::utils::web::WebProgress>::Handle>, bool)::{lambda()#1}>, void ()>::target(std::type_info const&) const
PUBLIC 3de94 0 std::__ndk1::__function::__func<geode::Task<geode::utils::web::WebResponse, geode::utils::web::WebProgress>::cancel(std::__ndk1::shared_ptr<geode::Task<geode::utils::web::WebResponse, geode::utils::web::WebProgress>::Handle>, bool)::{lambda()#1}, std::__ndk1::allocator<geode::Task<geode::utils::web::WebResponse, geode::utils::web::WebProgress>::cancel(std::__ndk1::shared_ptr<geode::Task<geode::utils::web::WebResponse, geode::utils::web::WebProgress>::Handle>, bool)::{lambda()#1}>, void ()>::target_type() const
PUBLIC 3dea0 0 geode::Task<geode::utils::web::WebResponse, geode::utils::web::WebProgress>::Event::~Event()
PUBLIC 3df00 0 geode::Task<geode::utils::web::WebResponse, geode::utils::web::WebProgress>::Event::~Event()
PUBLIC 3df70 0 geode::Task<geode::utils::web::WebResponse, geode::utils::web::WebProgress>::finish(std::__ndk1::shared_ptr<geode::Task<geode::utils::web::WebResponse, geode::utils::web::WebProgress>::Handle>, geode::utils::web::WebResponse&&)::{lambda()#1}::~{lambda()#1}()
PUBLIC 3dfc0 0 std::__ndk1::__function::__func<geode::Task<geode::utils::web::WebResponse, geode::utils::web::WebProgress>::finish(std::__ndk1::shared_ptr<geode::Task<geode::utils::web::WebResponse, geode::utils::web::WebProgress>::Handle>, geode::utils::web::WebResponse&&)::{lambda()#1}, std::__ndk1::allocator<geode::Task<geode::utils::web::WebResponse, geode::utils::web::WebProgress>::finish(std::__ndk1::shared_ptr<geode::Task<geode::utils::web::WebResponse, geode::utils::web::WebProgress>::Handle>, geode::utils::web::WebResponse&&)::{lambda()#1}>, void ()>::~__func()
PUBLIC 3e01c 0 std::__ndk1::__function::__func<geode::Task<geode::utils::web::WebResponse, geode::utils::web::WebProgress>::finish(std::__ndk1::shared_ptr<geode::Task<geode::utils::web::WebResponse, geode::utils::web::WebProgress>::Handle>, geode::utils::web::WebResponse&&)::{lambda()#1}, std::__ndk1::allocator<geode::Task<geode::utils::web::WebResponse, geode::utils::web::WebProgress>::finish(std::__ndk1::shared_ptr<geode::Task<geode::utils::web::WebResponse, geode::utils::web::WebProgress>::Handle>, geode::utils::web::WebResponse&&)::{lambda()#1}>, void ()>::~__func()
PUBLIC 3e088 0 std::__ndk1::__function::__func<geode::Task<geode::utils::web::WebResponse, geode::utils::web::WebProgress>::finish(std::__ndk1::shared_ptr<geode::Task<geode::utils::web::WebResponse, geode::utils::web::WebProgress>::Handle>, geode::utils::web::WebResponse&&)::{lambda()#1}, std::__ndk1::allocator<geode::Task<geode::utils::web::WebResponse, geode::utils::web::WebProgress>::finish(std::__ndk1::shared_ptr<geode::Task<geode::utils::web::WebResponse, geode::utils::web::WebProgress>::Handle>, geode::utils::web::WebResponse&&)::{lambda()#1}>, void ()>::__clone() const
PUBLIC 3e0e0 0 std::__ndk1::__function::__func<geode::Task<geode::utils::web::WebResponse, geode::utils::web::WebProgress>::finish(std::__ndk1::shared_ptr<geode::Task<geode::utils::web::WebResponse, geode::utils::web::WebProgress>::Handle>, geode::utils::web::WebResponse&&)::{lambda()#1}, std::__ndk1::allocator<geode::Task<geode::utils::web::WebResponse, geode::utils::web::WebProgress>::finish(std::__ndk1::shared_ptr<geode::Task<geode::utils::web::WebResponse, geode::utils::web::WebProgress>::Handle>, geode::utils::web::WebResponse&&)::{lambda()#1}>, void ()>::__clone(std::__ndk1::__function::__base<void ()>*) const
PUBLIC 3e12c 0 std::__ndk1::__function::__func<geode::Task<geode::utils::web::WebResponse, geode::utils::web::WebProgress>::finish(std::__ndk1::shared_ptr<geode::Task<geode::utils::web::WebResponse, geode::utils::web::WebProgress>::Handle>, geode::utils::web::WebResponse&&)::{lambda()#1}, std::__ndk1::allocator<geode::Task<geode::utils::web::WebResponse, geode::utils::web::WebProgress>::finish(std::__ndk1::shared_ptr<geode::Task<geode::utils::web::WebResponse, geode::utils::web::WebProgress>::Handle>, geode::utils::web::WebResponse&&)::{lambda()#1}>, void ()>::destroy()
PUBLIC 3e17c 0 std::__ndk1::__function::__func<geode::Task<geode::utils::web::WebResponse, geode::utils::web::WebProgress>::finish(std::__ndk1::shared_ptr<geode::Task<geode::utils::web::WebResponse, geode::utils::web::WebProgress>::Handle>, geode::utils::web::WebResponse&&)::{lambda()#1}, std::__ndk1::allocator<geode::Task<geode::utils::web::WebResponse, geode::utils::web::WebProgress>::finish(std::__ndk1::shared_ptr<geode::Task<geode::utils::web::WebResponse, geode::utils::web::WebProgress>::Handle>, geode::utils::web::WebResponse&&)::{lambda()#1}>, void ()>::destroy_deallocate()
PUBLIC 3e1dc 0 std::__ndk1::__function::__func<geode::Task<geode::utils::web::WebResponse, geode::utils::web::WebProgress>::finish(std::__ndk1::shared_ptr<geode::Task<geode::utils::web::WebResponse, geode::utils::web::WebProgress>::Handle>, geode::utils::web::WebResponse&&)::{lambda()#1}, std::__ndk1::allocator<geode::Task<geode::utils::web::WebResponse, geode::utils::web::WebProgress>::finish(std::__ndk1::shared_ptr<geode::Task<geode::utils::web::WebResponse, geode::utils::web::WebProgress>::Handle>, geode::utils::web::WebResponse&&)::{lambda()#1}>, void ()>::operator()()
PUBLIC 3e3a8 0 std::__ndk1::__function::__func<geode::Task<geode::utils::web::WebResponse, geode::utils::web::WebProgress>::finish(std::__ndk1::shared_ptr<geode::Task<geode::utils::web::WebResponse, geode::utils::web::WebProgress>::Handle>, geode::utils::web::WebResponse&&)::{lambda()#1}, std::__ndk1::allocator<geode::Task<geode::utils::web::WebResponse, geode::utils::web::WebProgress>::finish(std::__ndk1::shared_ptr<geode::Task<geode::utils::web::WebResponse, geode::utils::web::WebProgress>::Handle>, geode::utils::web::WebResponse&&)::{lambda()#1}>, void ()>::target(std::type_info const&) const
PUBLIC 3e3c4 0 std::__ndk1::__function::__func<geode::Task<geode::utils::web::WebResponse, geode::utils::web::WebProgress>::finish(std::__ndk1::shared_ptr<geode::Task<geode::utils::web::WebResponse, geode::utils::web::WebProgress>::Handle>, geode::utils::web::WebResponse&&)::{lambda()#1}, std::__ndk1::allocator<geode::Task<geode::utils::web::WebResponse, geode::utils::web::WebProgress>::finish(std::__ndk1::shared_ptr<geode::Task<geode::utils::web::WebResponse, geode::utils::web::WebProgress>::Handle>, geode::utils::web::WebResponse&&)::{lambda()#1}>, void ()>::target_type() const
PUBLIC 3e3d0 0 std::__ndk1::__variant_detail::__visitation::__base::__dispatcher<(unsigned long)0>::__dispatch[abi:ne180000]<std::__ndk1::__variant_detail::__dtor<std::__ndk1::__variant_detail::__traits<std::__ndk1::basic_string<char, std::__ndk1::char_traits<char>, std::__ndk1::allocator<char> >, std::__ndk1::allocator<char> >, (std::__ndk1::__variant_detail::_Trait)1>::__destroy[abi:ne180000]()::{lambda(auto:1&)#1}, std::__ndk1::__variant_detail::__base<(std::__ndk1::__variant_detail::__traits<std::__ndk1::basic_string<char, std::__ndk1::char_traits<char>, std::__ndk1::allocator<char> >, std::__ndk1::allocator<char> >)1, std::__ndk1::allocator<char>, std::__ndk1::allocator<char> >&>(std::__ndk1::__variant_detail::__dtor<std::__ndk1::__variant_detail::__traits<std::__ndk1::basic_string<char, std::__ndk1::char_traits<char>, std::__ndk1::allocator<char> >, std::__ndk1::allocator<char> >, (std::__ndk1::__variant_detail::_Trait)1>, std::__ndk1::__variant_detail::__base<(std::__ndk1::__variant_detail::__traits<std::__ndk1::basic_string<char, std::__ndk1::char_traits<char>, std::__ndk1::allocator<char> >, std::__ndk1::allocator<char> >)1, std::__ndk1::allocator<char>, std::__ndk1::allocator<char> >&)
PUBLIC 3e3e4 0 std::__ndk1::__variant_detail::__visitation::__base::__dispatcher<(unsigned long)1>::__dispatch[abi:ne180000]<std::__ndk1::__variant_detail::__dtor<std::__ndk1::__variant_detail::__traits<std::__ndk1::basic_string<char, std::__ndk1::char_traits<char>, std::__ndk1::allocator<char> >, std::__ndk1::allocator<char> >, (std::__ndk1::__variant_detail::_Trait)1>::__destroy[abi:ne180000]()::{lambda(auto:1&)#1}, std::__ndk1::__variant_detail::__base<(std::__ndk1::__variant_detail::__traits<std::__ndk1::basic_string<char, std::__ndk1::char_traits<char>, std::__ndk1::allocator<char> >, std::__ndk1::allocator<char> >)1, std::__ndk1::allocator<char>, std::__ndk1::allocator<char> >&>(std::__ndk1::__variant_detail::__dtor<std::__ndk1::__variant_detail::__traits<std::__ndk1::basic_string<char, std::__ndk1::char_traits<char>, std::__ndk1::allocator<char> >, std::__ndk1::allocator<char> >, (std::__ndk1::__variant_detail::_Trait)1>, std::__ndk1::__variant_detail::__base<(std::__ndk1::__variant_detail::__traits<std::__ndk1::basic_string<char, std::__ndk1::char_traits<char>, std::__ndk1::allocator<char> >, std::__ndk1::allocator<char> >)1, std::__ndk1::allocator<char>, std::__ndk1::allocator<char> >&)
PUBLIC 3e3f8 0 std::__ndk1::basic_string<char, std::__ndk1::char_traits<char>, std::__ndk1::allocator<char> >::__throw_out_of_range[abi:ne180000]() const
PUBLIC 3e40c 0 std::__ndk1::__variant_detail::__visitation::__base::__dispatcher<(unsigned long)0>::__dispatch[abi:ne180000]<std::__ndk1::__variant_detail::__dtor<std::__ndk1::__variant_detail::__traits<int, std::__ndk1::basic_string<char, std::__ndk1::char_traits<char>, std::__ndk1::allocator<char> > >, (std::__ndk1::__variant_detail::_Trait)1>::__destroy[abi:ne180000]()::{lambda(auto:1&)#1}, std::__ndk1::__variant_detail::__base<(std::__ndk1::__variant_detail::__traits<int, std::__ndk1::basic_string<char, std::__ndk1::char_traits<char>, std::__ndk1::allocator<char> > >)1, int, std::__ndk1::allocator<char> >&>(std::__ndk1::__variant_detail::__dtor<std::__ndk1::__variant_detail::__traits<int, std::__ndk1::basic_string<char, std::__ndk1::char_traits<char>, std::__ndk1::allocator<char> > >, (std::__ndk1::__variant_detail::_Trait)1>, std::__ndk1::__variant_detail::__base<(std::__ndk1::__variant_detail::__traits<int, std::__ndk1::basic_string<char, std::__ndk1::char_traits<char>, std::__ndk1::allocator<char> > >)1, int, std::__ndk1::allocator<char> >&)
PUBLIC 3e410 0 std::__ndk1::__variant_detail::__visitation::__base::__dispatcher<(unsigned long)1>::__dispatch[abi:ne180000]<std::__ndk1::__variant_detail::__dtor<std::__ndk1::__variant_detail::__traits<int, std::__ndk1::basic_string<char, std::__ndk1::char_traits<char>, std::__ndk1::allocator<char> > >, (std::__ndk1::__variant_detail::_Trait)1>::__destroy[abi:ne180000]()::{lambda(auto:1&)#1}, std::__ndk1::__variant_detail::__base<(std::__ndk1::__variant_detail::__traits<int, std::__ndk1::basic_string<char, std::__ndk1::char_traits<char>, std::__ndk1::allocator<char> > >)1, int, std::__ndk1::allocator<char> >&>(std::__ndk1::__variant_detail::__dtor<std::__ndk1::__variant_detail::__traits<int, std::__ndk1::basic_string<char, std::__ndk1::char_traits<char>, std::__ndk1::allocator<char> > >, (std::__ndk1::__variant_detail::_Trait)1>, std::__ndk1::__variant_detail::__base<(std::__ndk1::__variant_detail::__traits<int, std::__ndk1::basic_string<char, std::__ndk1::char_traits<char>, std::__ndk1::allocator<char> > >)1, int, std::__ndk1::allocator<char> >&)
PUBLIC 3e424 0 std::__ndk1::__variant_detail::__visitation::__base::__dispatcher<(unsigned long)0>::__dispatch[abi:ne180000]<std::__ndk1::__variant_detail::__dtor<std::__ndk1::__variant_detail::__traits<double, std::__ndk1::basic_string<char, std::__ndk1::char_traits<char>, std::__ndk1::allocator<char> > >, (std::__ndk1::__variant_detail::_Trait)1>::__destroy[abi:ne180000]()::{lambda(auto:1&)#1}, std::__ndk1::__variant_detail::__base<(std::__ndk1::__variant_detail::__traits<double, std::__ndk1::basic_string<char, std::__ndk1::char_traits<char>, std::__ndk1::allocator<char> > >)1, double, std::__ndk1::allocator<char> >&>(std::__ndk1::__variant_detail::__dtor<std::__ndk1::__variant_detail::__traits<double, std::__ndk1::basic_string<char, std::__ndk1::char_traits<char>, std::__ndk1::allocator<char> > >, (std::__ndk1::__variant_detail::_Trait)1>, std::__ndk1::__variant_detail::__base<(std::__ndk1::__variant_detail::__traits<double, std::__ndk1::basic_string<char, std::__ndk1::char_traits<char>, std::__ndk1::allocator<char> > >)1, double, std::__ndk1::allocator<char> >&)
PUBLIC 3e428 0 std::__ndk1::__variant_detail::__visitation::__base::__dispatcher<(unsigned long)1>::__dispatch[abi:ne180000]<std::__ndk1::__variant_detail::__dtor<std::__ndk1::__variant_detail::__traits<double, std::__ndk1::basic_string<char, std::__ndk1::char_traits<char>, std::__ndk1::allocator<char> > >, (std::__ndk1::__variant_detail::_Trait)1>::__destroy[abi:ne180000]()::{lambda(auto:1&)#1}, std::__ndk1::__variant_detail::__base<(std::__ndk1::__variant_detail::__traits<double, std::__ndk1::basic_string<char, std::__ndk1::char_traits<char>, std::__ndk1::allocator<char> > >)1, double, std::__ndk1::allocator<char> >&>(std::__ndk1::__variant_detail::__dtor<std::__ndk1::__variant_detail::__traits<double, std::__ndk1::basic_string<char, std::__ndk1::char_traits<char>, std::__ndk1::allocator<char> > >, (std::__ndk1::__variant_detail::_Trait)1>, std::__ndk1::__variant_detail::__base<(std::__ndk1::__variant_detail::__traits<double, std::__ndk1::basic_string<char, std::__ndk1::char_traits<char>, std::__ndk1::allocator<char> > >)1, double, std::__ndk1::allocator<char> >&)
PUBLIC 3e43c 0 std::__ndk1::vector<LadderDemon, std::__ndk1::allocator<LadderDemon> >::__throw_length_error[abi:ne180000]() const
PUBLIC 3e450 0 std::__ndk1::__function::__func<geode::Task<geode::utils::web::WebResponse, geode::utils::web::WebProgress>::map<DIBMenuLayer::init()::{lambda(geode::utils::web::WebResponse*)#1}, geode::utils::web::WebProgress (*)(geode::utils::web::WebProgress*), void (*)()>(DIBMenuLayer::init()::{lambda(geode::utils::web::WebResponse*)#1}&&, geode::utils::web::WebProgress (*&&)(geode::utils::web::WebProgress*), void (*&&)(), std::__ndk1::basic_string_view<char, std::__ndk1::char_traits<char> >) const::{lambda(geode::Task<geode::utils::web::WebResponse, geode::utils::web::WebProgress>::Event*)#1}, std::__ndk1::allocator<geode::Task<geode::utils::web::WebResponse, geode::utils::web::WebProgress>::map<DIBMenuLayer::init()::{lambda(geode::utils::web::WebResponse*)#1}, geode::utils::web::WebProgress (*)(geode::utils::web::WebProgress*), void (*)()>(DIBMenuLayer::init()::{lambda(geode::utils::web::WebResponse*)#1}&&, geode::utils::web::WebProgress (*&&)(geode::utils::web::WebProgress*), void (*&&)(), std::__ndk1::basic_string_view<char, std::__ndk1::char_traits<char> >) const::{lambda(geode::Task<geode::utils::web::WebResponse, geode::utils::web::WebProgress>::Event*)#1}>, void (geode::Task<geode::utils::web::WebResponse, geode::utils::web::WebProgress>::Event*)>::~__func()
PUBLIC 3e470 0 std::__ndk1::__function::__func<geode::Task<geode::utils::web::WebResponse, geode::utils::web::WebProgress>::map<DIBMenuLayer::init()::{lambda(geode::utils::web::WebResponse*)#1}, geode::utils::web::WebProgress (*)(geode::utils::web::WebProgress*), void (*)()>(DIBMenuLayer::init()::{lambda(geode::utils::web::WebResponse*)#1}&&, geode::utils::web::WebProgress (*&&)(geode::utils::web::WebProgress*), void (*&&)(), std::__ndk1::basic_string_view<char, std::__ndk1::char_traits<char> >) const::{lambda(geode::Task<geode::utils::web::WebResponse, geode::utils::web::WebProgress>::Event*)#1}, std::__ndk1::allocator<geode::Task<geode::utils::web::WebResponse, geode::utils::web::WebProgress>::map<DIBMenuLayer::init()::{lambda(geode::utils::web::WebResponse*)#1}, geode::utils::web::WebProgress (*)(geode::utils::web::WebProgress*), void (*)()>(DIBMenuLayer::init()::{lambda(geode::utils::web::WebResponse*)#1}&&, geode::utils::web::WebProgress (*&&)(geode::utils::web::WebProgress*), void (*&&)(), std::__ndk1::basic_string_view<char, std::__ndk1::char_traits<char> >) const::{lambda(geode::Task<geode::utils::web::WebResponse, geode::utils::web::WebProgress>::Event*)#1}>, void (geode::Task<geode::utils::web::WebResponse, geode::utils::web::WebProgress>::Event*)>::~__func()
PUBLIC 3e4ac 0 std::__ndk1::__function::__func<geode::Task<geode::utils::web::WebResponse, geode::utils::web::WebProgress>::map<DIBMenuLayer::init()::{lambda(geode::utils::web::WebResponse*)#1}, geode::utils::web::WebProgress (*)(geode::utils::web::WebProgress*), void (*)()>(DIBMenuLayer::init()::{lambda(geode::utils::web::WebResponse*)#1}&&, geode::utils::web::WebProgress (*&&)(geode::utils::web::WebProgress*), void (*&&)(), std::__ndk1::basic_string_view<char, std::__ndk1::char_traits<char> >) const::{lambda(geode::Task<geode::utils::web::WebResponse, geode::utils::web::WebProgress>::Event*)#1}, std::__ndk1::allocator<geode::Task<geode::utils::web::WebResponse, geode::utils::web::WebProgress>::map<DIBMenuLayer::init()::{lambda(geode::utils::web::WebResponse*)#1}, geode::utils::web::WebProgress (*)(geode::utils::web::WebProgress*), void (*)()>(DIBMenuLayer::init()::{lambda(geode::utils::web::WebResponse*)#1}&&, geode::utils::web::WebProgress (*&&)(geode::utils::web::WebProgress*), void (*&&)(), std::__ndk1::basic_string_view<char, std::__ndk1::char_traits<char> >) const::{lambda(geode::Task<geode::utils::web::WebResponse, geode::utils::web::WebProgress>::Event*)#1}>, void (geode::Task<geode::utils::web::WebResponse, geode::utils::web::WebProgress>::Event*)>::__clone() const
PUBLIC 3e50c 0 std::__ndk1::__function::__func<geode::Task<geode::utils::web::WebResponse, geode::utils::web::WebProgress>::map<DIBMenuLayer::init()::{lambda(geode::utils::web::WebResponse*)#1}, geode::utils::web::WebProgress (*)(geode::utils::web::WebProgress*), void (*)()>(DIBMenuLayer::init()::{lambda(geode::utils::web::WebResponse*)#1}&&, geode::utils::web::WebProgress (*&&)(geode::utils::web::WebProgress*), void (*&&)(), std::__ndk1::basic_string_view<char, std::__ndk1::char_traits<char> >) const::{lambda(geode::Task<geode::utils::web::WebResponse, geode::utils::web::WebProgress>::Event*)#1}, std::__ndk1::allocator<geode::Task<geode::utils::web::WebResponse, geode::utils::web::WebProgress>::map<DIBMenuLayer::init()::{lambda(geode::utils::web::WebResponse*)#1}, geode::utils::web::WebProgress (*)(geode::utils::web::WebProgress*), void (*)()>(DIBMenuLayer::init()::{lambda(geode::utils::web::WebResponse*)#1}&&, geode::utils::web::WebProgress (*&&)(geode::utils::web::WebProgress*), void (*&&)(), std::__ndk1::basic_string_view<char, std::__ndk1::char_traits<char> >) const::{lambda(geode::Task<geode::utils::web::WebResponse, geode::utils::web::WebProgress>::Event*)#1}>, void (geode::Task<geode::utils::web::WebResponse, geode::utils::web::WebProgress>::Event*)>::__clone(std::__ndk1::__function::__base<void (geode::Task<geode::utils::web::WebResponse, geode::utils::web::WebProgress>::Event*)>*) const
PUBLIC 3e560 0 std::__ndk1::__function::__func<geode::Task<geode::utils::web::WebResponse, geode::utils::web::WebProgress>::map<DIBMenuLayer::init()::{lambda(geode::utils::web::WebResponse*)#1}, geode::utils::web::WebProgress (*)(geode::utils::web::WebProgress*), void (*)()>(DIBMenuLayer::init()::{lambda(geode::utils::web::WebResponse*)#1}&&, geode::utils::web::WebProgress (*&&)(geode::utils::web::WebProgress*), void (*&&)(), std::__ndk1::basic_string_view<char, std::__ndk1::char_traits<char> >) const::{lambda(geode::Task<geode::utils::web::WebResponse, geode::utils::web::WebProgress>::Event*)#1}, std::__ndk1::allocator<geode::Task<geode::utils::web::WebResponse, geode::utils::web::WebProgress>::map<DIBMenuLayer::init()::{lambda(geode::utils::web::WebResponse*)#1}, geode::utils::web::WebProgress (*)(geode::utils::web::WebProgress*), void (*)()>(DIBMenuLayer::init()::{lambda(geode::utils::web::WebResponse*)#1}&&, geode::utils::web::WebProgress (*&&)(geode::utils::web::WebProgress*), void (*&&)(), std::__ndk1::basic_string_view<char, std::__ndk1::char_traits<char> >) const::{lambda(geode::Task<geode::utils::web::WebResponse, geode::utils::web::WebProgress>::Event*)#1}>, void (geode::Task<geode::utils::web::WebResponse, geode::utils::web::WebProgress>::Event*)>::destroy()
PUBLIC 3e570 0 std::__ndk1::__function::__func<geode::Task<geode::utils::web::WebResponse, geode::utils::web::WebProgress>::map<DIBMenuLayer::init()::{lambda(geode::utils::web::WebResponse*)#1}, geode::utils::web::WebProgress (*)(geode::utils::web::WebProgress*), void (*)()>(DIBMenuLayer::init()::{lambda(geode::utils::web::WebResponse*)#1}&&, geode::utils::web::WebProgress (*&&)(geode::utils::web::WebProgress*), void (*&&)(), std::__ndk1::basic_string_view<char, std::__ndk1::char_traits<char> >) const::{lambda(geode::Task<geode::utils::web::WebResponse, geode::utils::web::WebProgress>::Event*)#1}, std::__ndk1::allocator<geode::Task<geode::utils::web::WebResponse, geode::utils::web::WebProgress>::map<DIBMenuLayer::init()::{lambda(geode::utils::web::WebResponse*)#1}, geode::utils::web::WebProgress (*)(geode::utils::web::WebProgress*), void (*)()>(DIBMenuLayer::init()::{lambda(geode::utils::web::WebResponse*)#1}&&, geode::utils::web::WebProgress (*&&)(geode::utils::web::WebProgress*), void (*&&)(), std::__ndk1::basic_string_view<char, std::__ndk1::char_traits<char> >) const::{lambda(geode::Task<geode::utils::web::WebResponse, geode::utils::web::WebProgress>::Event*)#1}>, void (geode::Task<geode::utils::web::WebResponse, geode::utils::web::WebProgress>::Event*)>::destroy_deallocate()
PUBLIC 3e5a0 0 std::__ndk1::__function::__func<geode::Task<geode::utils::web::WebResponse, geode::utils::web::WebProgress>::map<DIBMenuLayer::init()::{lambda(geode::utils::web::WebResponse*)#1}, geode::utils::web::WebProgress (*)(geode::utils::web::WebProgress*), void (*)()>(DIBMenuLayer::init()::{lambda(geode::utils::web::WebResponse*)#1}&&, geode::utils::web::WebProgress (*&&)(geode::utils::web::WebProgress*), void (*&&)(), std::__ndk1::basic_string_view<char, std::__ndk1::char_traits<char> >) const::{lambda(geode::Task<geode::utils::web::WebResponse, geode::utils::web::WebProgress>::Event*)#1}, std::__ndk1::allocator<geode::Task<geode::utils::web::WebResponse, geode::utils::web::WebProgress>::map<DIBMenuLayer::init()::{lambda(geode::utils::web::WebResponse*)#1}, geode::utils::web::WebProgress (*)(geode::utils::web::WebProgress*), void (*)()>(DIBMenuLayer::init()::{lambda(geode::utils::web::WebResponse*)#1}&&, geode::utils::web::WebProgress (*&&)(geode::utils::web::WebProgress*), void (*&&)(), std::__ndk1::basic_string_view<char, std::__ndk1::char_traits<char> >) const::{lambda(geode::Task<geode::utils::web::WebResponse, geode::utils::web::WebProgress>::Event*)#1}>, void (geode::Task<geode::utils::web::WebResponse, geode::utils::web::WebProgress>::Event*)>::operator()(geode::Task<geode::utils::web::WebResponse, geode::utils::web::WebProgress>::Event*&&)
PUBLIC 3e8bc 0 std::__ndk1::__function::__func<geode::Task<geode::utils::web::WebResponse, geode::utils::web::WebProgress>::map<DIBMenuLayer::init()::{lambda(geode::utils::web::WebResponse*)#1}, geode::utils::web::WebProgress (*)(geode::utils::web::WebProgress*), void (*)()>(DIBMenuLayer::init()::{lambda(geode::utils::web::WebResponse*)#1}&&, geode::utils::web::WebProgress (*&&)(geode::utils::web::WebProgress*), void (*&&)(), std::__ndk1::basic_string_view<char, std::__ndk1::char_traits<char> >) const::{lambda(geode::Task<geode::utils::web::WebResponse, geode::utils::web::WebProgress>::Event*)#1}, std::__ndk1::allocator<geode::Task<geode::utils::web::WebResponse, geode::utils::web::WebProgress>::map<DIBMenuLayer::init()::{lambda(geode::utils::web::WebResponse*)#1}, geode::utils::web::WebProgress (*)(geode::utils::web::WebProgress*), void (*)()>(DIBMenuLayer::init()::{lambda(geode::utils::web::WebResponse*)#1}&&, geode::utils::web::WebProgress (*&&)(geode::utils::web::WebProgress*), void (*&&)(), std::__ndk1::basic_string_view<char, std::__ndk1::char_traits<char> >) const::{lambda(geode::Task<geode::utils::web::WebResponse, geode::utils::web::WebProgress>::Event*)#1}>, void (geode::Task<geode::utils::web::WebResponse, geode::utils::web::WebProgress>::Event*)>::target(std::type_info const&) const
PUBLIC 3e8d8 0 std::__ndk1::__function::__func<geode::Task<geode::utils::web::WebResponse, geode::utils::web::WebProgress>::map<DIBMenuLayer::init()::{lambda(geode::utils::web::WebResponse*)#1}, geode::utils::web::WebProgress (*)(geode::utils::web::WebProgress*), void (*)()>(DIBMenuLayer::init()::{lambda(geode::utils::web::WebResponse*)#1}&&, geode::utils::web::WebProgress (*&&)(geode::utils::web::WebProgress*), void (*&&)(), std::__ndk1::basic_string_view<char, std::__ndk1::char_traits<char> >) const::{lambda(geode::Task<geode::utils::web::WebResponse, geode::utils::web::WebProgress>::Event*)#1}, std::__ndk1::allocator<geode::Task<geode::utils::web::WebResponse, geode::utils::web::WebProgress>::map<DIBMenuLayer::init()::{lambda(geode::utils::web::WebResponse*)#1}, geode::utils::web::WebProgress (*)(geode::utils::web::WebProgress*), void (*)()>(DIBMenuLayer::init()::{lambda(geode::utils::web::WebResponse*)#1}&&, geode::utils::web::WebProgress (*&&)(geode::utils::web::WebProgress*), void (*&&)(), std::__ndk1::basic_string_view<char, std::__ndk1::char_traits<char> >) const::{lambda(geode::Task<geode::utils::web::WebResponse, geode::utils::web::WebProgress>::Event*)#1}>, void (geode::Task<geode::utils::web::WebResponse, geode::utils::web::WebProgress>::Event*)>::target_type() const
PUBLIC 3e8e4 0 geode::utils::web::WebProgress::~WebProgress()
PUBLIC 3e934 0 geode::Task<geode::utils::web::WebResponse, geode::utils::web::WebProgress>::progress(std::__ndk1::shared_ptr<geode::Task<geode::utils::web::WebResponse, geode::utils::web::WebProgress>::Handle>, geode::utils::web::WebProgress&&)::{lambda()#1}::~{lambda()#1}()
PUBLIC 3e9c4 0 std::__ndk1::__function::__func<geode::Task<geode::utils::web::WebResponse, geode::utils::web::WebProgress>::progress(std::__ndk1::shared_ptr<geode::Task<geode::utils::web::WebResponse, geode::utils::web::WebProgress>::Handle>, geode::utils::web::WebProgress&&)::{lambda()#1}, std::__ndk1::allocator<geode::Task<geode::utils::web::WebResponse, geode::utils::web::WebProgress>::progress(std::__ndk1::shared_ptr<geode::Task<geode::utils::web::WebResponse, geode::utils::web::WebProgress>::Handle>, geode::utils::web::WebProgress&&)::{lambda()#1}>, void ()>::~__func()
PUBLIC 3ea60 0 std::__ndk1::__function::__func<geode::Task<geode::utils::web::WebResponse, geode::utils::web::WebProgress>::progress(std::__ndk1::shared_ptr<geode::Task<geode::utils::web::WebResponse, geode::utils::web::WebProgress>::Handle>, geode::utils::web::WebProgress&&)::{lambda()#1}, std::__ndk1::allocator<geode::Task<geode::utils::web::WebResponse, geode::utils::web::WebProgress>::progress(std::__ndk1::shared_ptr<geode::Task<geode::utils::web::WebResponse, geode::utils::web::WebProgress>::Handle>, geode::utils::web::WebProgress&&)::{lambda()#1}>, void ()>::~__func()
PUBLIC 3eafc 0 std::__ndk1::__function::__func<geode::Task<geode::utils::web::WebResponse, geode::utils::web::WebProgress>::progress(std::__ndk1::shared_ptr<geode::Task<geode::utils::web::WebResponse, geode::utils::web::WebProgress>::Handle>, geode::utils::web::WebProgress&&)::{lambda()#1}, std::__ndk1::allocator<geode::Task<geode::utils::web::WebResponse, geode::utils::web::WebProgress>::progress(std::__ndk1::shared_ptr<geode::Task<geode::utils::web::WebResponse, geode::utils::web::WebProgress>::Handle>, geode::utils::web::WebProgress&&)::{lambda()#1}>, void ()>::__clone() const
PUBLIC 3eb64 0 std::__ndk1::__function::__func<geode::Task<geode::utils::web::WebResponse, geode::utils::web::WebProgress>::progress(std::__ndk1::shared_ptr<geode::Task<geode::utils::web::WebResponse, geode::utils::web::WebProgress>::Handle>, geode::utils::web::WebProgress&&)::{lambda()#1}, std::__ndk1::allocator<geode::Task<geode::utils::web::WebResponse, geode::utils::web::WebProgress>::progress(std::__ndk1::shared_ptr<geode::Task<geode::utils::web::WebResponse, geode::utils::web::WebProgress>::Handle>, geode::utils::web::WebProgress&&)::{lambda()#1}>, void ()>::__clone(std::__ndk1::__function::__base<void ()>*) const
PUBLIC 3ebc0 0 std::__ndk1::__function::__func<geode::Task<geode::utils::web::WebResponse, geode::utils::web::WebProgress>::progress(std::__ndk1::shared_ptr<geode::Task<geode::utils::web::WebResponse, geode::utils::web::WebProgress>::Handle>, geode::utils::web::WebProgress&&)::{lambda()#1}, std::__ndk1::allocator<geode::Task<geode::utils::web::WebResponse, geode::utils::web::WebProgress>::progress(std::__ndk1::shared_ptr<geode::Task<geode::utils::web::WebResponse, geode::utils::web::WebProgress>::Handle>, geode::utils::web::WebProgress&&)::{lambda()#1}>, void ()>::destroy()
PUBLIC 3ec50 0 std::__ndk1::__function::__func<geode::Task<geode::utils::web::WebResponse, geode::utils::web::WebProgress>::progress(std::__ndk1::shared_ptr<geode::Task<geode::utils::web::WebResponse, geode::utils::web::WebProgress>::Handle>, geode::utils::web::WebProgress&&)::{lambda()#1}, std::__ndk1::allocator<geode::Task<geode::utils::web::WebResponse, geode::utils::web::WebProgress>::progress(std::__ndk1::shared_ptr<geode::Task<geode::utils::web::WebResponse, geode::utils::web::WebProgress>::Handle>, geode::utils::web::WebProgress&&)::{lambda()#1}>, void ()>::destroy_deallocate()
PUBLIC 3ece0 0 std::__ndk1::__function::__func<geode::Task<geode::utils::web::WebResponse, geode::utils::web::WebProgress>::progress(std::__ndk1::shared_ptr<geode::Task<geode::utils::web::WebResponse, geode::utils::web::WebProgress>::Handle>, geode::utils::web::WebProgress&&)::{lambda()#1}, std::__ndk1::allocator<geode::Task<geode::utils::web::WebResponse, geode::utils::web::WebProgress>::progress(std::__ndk1::shared_ptr<geode::Task<geode::utils::web::WebResponse, geode::utils::web::WebProgress>::Handle>, geode::utils::web::WebProgress&&)::{lambda()#1}>, void ()>::operator()()
PUBLIC 3ee94 0 std::__ndk1::__function::__func<geode::Task<geode::utils::web::WebResponse, geode::utils::web::WebProgress>::progress(std::__ndk1::shared_ptr<geode::Task<geode::utils::web::WebResponse, geode::utils::web::WebProgress>::Handle>, geode::utils::web::WebProgress&&)::{lambda()#1}, std::__ndk1::allocator<geode::Task<geode::utils::web::WebResponse, geode::utils::web::WebProgress>::progress(std::__ndk1::shared_ptr<geode::Task<geode::utils::web::WebResponse, geode::utils::web::WebProgress>::Handle>, geode::utils::web::WebProgress&&)::{lambda()#1}>, void ()>::target(std::type_info const&) const
PUBLIC 3eeb0 0 std::__ndk1::__function::__func<geode::Task<geode::utils::web::WebResponse, geode::utils::web::WebProgress>::progress(std::__ndk1::shared_ptr<geode::Task<geode::utils::web::WebResponse, geode::utils::web::WebProgress>::Handle>, geode::utils::web::WebProgress&&)::{lambda()#1}, std::__ndk1::allocator<geode::Task<geode::utils::web::WebResponse, geode::utils::web::WebProgress>::progress(std::__ndk1::shared_ptr<geode::Task<geode::utils::web::WebResponse, geode::utils::web::WebProgress>::Handle>, geode::utils::web::WebProgress&&)::{lambda()#1}>, void ()>::target_type() const
PUBLIC 3eebc 0 geode::EventListener<geode::Task<geode::utils::web::WebResponse, geode::utils::web::WebProgress> >::getPool() const
PUBLIC 3eec0 0 geode::EventListener<geode::Task<geode::utils::web::WebResponse, geode::utils::web::WebProgress> >::handle(geode::Event*)
PUBLIC 3f08c 0 geode::EventListener<geode::Task<geode::utils::web::WebResponse, geode::utils::web::WebProgress> >::~EventListener()
PUBLIC 3f128 0 geode::EventListener<geode::Task<geode::utils::web::WebResponse, geode::utils::web::WebProgress> >::~EventListener()
PUBLIC 3f1cc 0 geode::Task<geode::utils::web::WebResponse, geode::utils::web::WebProgress>::setListener(geode::EventListenerProtocol*)::{lambda()#1}::~{lambda()#1}()
PUBLIC 3f21c 0 std::__ndk1::__function::__func<geode::Task<geode::utils::web::WebResponse, geode::utils::web::WebProgress>::setListener(geode::EventListenerProtocol*)::{lambda()#1}, std::__ndk1::allocator<geode::Task<geode::utils::web::WebResponse, geode::utils::web::WebProgress>::setListener(geode::EventListenerProtocol*)::{lambda()#1}>, void ()>::~__func()
PUBLIC 3f278 0 std::__ndk1::__function::__func<geode::Task<geode::utils::web::WebResponse, geode::utils::web::WebProgress>::setListener(geode::EventListenerProtocol*)::{lambda()#1}, std::__ndk1::allocator<geode::Task<geode::utils::web::WebResponse, geode::utils::web::WebProgress>::setListener(geode::EventListenerProtocol*)::{lambda()#1}>, void ()>::~__func()
PUBLIC 3f2e4 0 std::__ndk1::__function::__func<geode::Task<geode::utils::web::WebResponse, geode::utils::web::WebProgress>::setListener(geode::EventListenerProtocol*)::{lambda()#1}, std::__ndk1::allocator<geode::Task<geode::utils::web::WebResponse, geode::utils::web::WebProgress>::setListener(geode::EventListenerProtocol*)::{lambda()#1}>, void ()>::__clone() const
PUBLIC 3f33c 0 std::__ndk1::__function::__func<geode::Task<geode::utils::web::WebResponse, geode::utils::web::WebProgress>::setListener(geode::EventListenerProtocol*)::{lambda()#1}, std::__ndk1::allocator<geode::Task<geode::utils::web::WebResponse, geode::utils::web::WebProgress>::setListener(geode::EventListenerProtocol*)::{lambda()#1}>, void ()>::__clone(std::__ndk1::__function::__base<void ()>*) const
PUBLIC 3f388 0 std::__ndk1::__function::__func<geode::Task<geode::utils::web::WebResponse, geode::utils::web::WebProgress>::setListener(geode::EventListenerProtocol*)::{lambda()#1}, std::__ndk1::allocator<geode::Task<geode::utils::web::WebResponse, geode::utils::web::WebProgress>::setListener(geode::EventListenerProtocol*)::{lambda()#1}>, void ()>::destroy()
PUBLIC 3f3d8 0 std::__ndk1::__function::__func<geode::Task<geode::utils::web::WebResponse, geode::utils::web::WebProgress>::setListener(geode::EventListenerProtocol*)::{lambda()#1}, std::__ndk1::allocator<geode::Task<geode::utils::web::WebResponse, geode::utils::web::WebProgress>::setListener(geode::EventListenerProtocol*)::{lambda()#1}>, void ()>::destroy_deallocate()
PUBLIC 3f438 0 std::__ndk1::__function::__func<geode::Task<geode::utils::web::WebResponse, geode::utils::web::WebProgress>::setListener(geode::EventListenerProtocol*)::{lambda()#1}, std::__ndk1::allocator<geode::Task<geode::utils::web::WebResponse, geode::utils::web::WebProgress>::setListener(geode::EventListenerProtocol*)::{lambda()#1}>, void ()>::operator()()
PUBLIC 3f608 0 std::__ndk1::__function::__func<geode::Task<geode::utils::web::WebResponse, geode::utils::web::WebProgress>::setListener(geode::EventListenerProtocol*)::{lambda()#1}, std::__ndk1::allocator<geode::Task<geode::utils::web::WebResponse, geode::utils::web::WebProgress>::setListener(geode::EventListenerProtocol*)::{lambda()#1}>, void ()>::target(std::type_info const&) const
PUBLIC 3f624 0 std::__ndk1::__function::__func<geode::Task<geode::utils::web::WebResponse, geode::utils::web::WebProgress>::setListener(geode::EventListenerProtocol*)::{lambda()#1}, std::__ndk1::allocator<geode::Task<geode::utils::web::WebResponse, geode::utils::web::WebProgress>::setListener(geode::EventListenerProtocol*)::{lambda()#1}>, void ()>::target_type() const
PUBLIC 3f630 0 std::__ndk1::__function::__func<geode::Task<geode::utils::web::WebResponse, geode::utils::web::WebProgress>::setListener(geode::EventListenerProtocol*)::{lambda()#2}, std::__ndk1::allocator<geode::Task<geode::utils::web::WebResponse, geode::utils::web::WebProgress>::setListener(geode::EventListenerProtocol*)::{lambda()#2}>, void ()>::~__func()
PUBLIC 3f68c 0 std::__ndk1::__function::__func<geode::Task<geode::utils::web::WebResponse, geode::utils::web::WebProgress>::setListener(geode::EventListenerProtocol*)::{lambda()#2}, std::__ndk1::allocator<geode::Task<geode::utils::web::WebResponse, geode::utils::web::WebProgress>::setListener(geode::EventListenerProtocol*)::{lambda()#2}>, void ()>::~__func()
PUBLIC 3f6f8 0 std::__ndk1::__function::__func<geode::Task<geode::utils::web::WebResponse, geode::utils::web::WebProgress>::setListener(geode::EventListenerProtocol*)::{lambda()#2}, std::__ndk1::allocator<geode::Task<geode::utils::web::WebResponse, geode::utils::web::WebProgress>::setListener(geode::EventListenerProtocol*)::{lambda()#2}>, void ()>::__clone() const
PUBLIC 3f750 0 std::__ndk1::__function::__func<geode::Task<geode::utils::web::WebResponse, geode::utils::web::WebProgress>::setListener(geode::EventListenerProtocol*)::{lambda()#2}, std::__ndk1::allocator<geode::Task<geode::utils::web::WebResponse, geode::utils::web::WebProgress>::setListener(geode::EventListenerProtocol*)::{lambda()#2}>, void ()>::__clone(std::__ndk1::__function::__base<void ()>*) const
PUBLIC 3f79c 0 std::__ndk1::__function::__func<geode::Task<geode::utils::web::WebResponse, geode::utils::web::WebProgress>::setListener(geode::EventListenerProtocol*)::{lambda()#2}, std::__ndk1::allocator<geode::Task<geode::utils::web::WebResponse, geode::utils::web::WebProgress>::setListener(geode::EventListenerProtocol*)::{lambda()#2}>, void ()>::destroy()
PUBLIC 3f7ec 0 std::__ndk1::__function::__func<geode::Task<geode::utils::web::WebResponse, geode::utils::web::WebProgress>::setListener(geode::EventListenerProtocol*)::{lambda()#2}, std::__ndk1::allocator<geode::Task<geode::utils::web::WebResponse, geode::utils::web::WebProgress>::setListener(geode::EventListenerProtocol*)::{lambda()#2}>, void ()>::destroy_deallocate()
PUBLIC 3f84c 0 std::__ndk1::__function::__func<geode::Task<geode::utils::web::WebResponse, geode::utils::web::WebProgress>::setListener(geode::EventListenerProtocol*)::{lambda()#2}, std::__ndk1::allocator<geode::Task<geode::utils::web::WebResponse, geode::utils::web::WebProgress>::setListener(geode::EventListenerProtocol*)::{lambda()#2}>, void ()>::operator()()
PUBLIC 3fa10 0 std::__ndk1::__function::__func<geode::Task<geode::utils::web::WebResponse, geode::utils::web::WebProgress>::setListener(geode::EventListenerProtocol*)::{lambda()#2}, std::__ndk1::allocator<geode::Task<geode::utils::web::WebResponse, geode::utils::web::WebProgress>::setListener(geode::EventListenerProtocol*)::{lambda()#2}>, void ()>::target(std::type_info const&) const
PUBLIC 3fa2c 0 std::__ndk1::__function::__func<geode::Task<geode::utils::web::WebResponse, geode::utils::web::WebProgress>::setListener(geode::EventListenerProtocol*)::{lambda()#2}, std::__ndk1::allocator<geode::Task<geode::utils::web::WebResponse, geode::utils::web::WebProgress>::setListener(geode::EventListenerProtocol*)::{lambda()#2}>, void ()>::target_type() const
PUBLIC 3fa38 0 geode::Task<geode::utils::web::WebResponse, geode::utils::web::WebProgress>::map<DIBMenuLayer::init()::{lambda(geode::utils::web::WebResponse*)#1}, geode::utils::web::WebProgress (*)(geode::utils::web::WebProgress*), void (*)()>(DIBMenuLayer::init()::{lambda(geode::utils::web::WebResponse*)#1}&&, geode::utils::web::WebProgress (*&&)(geode::utils::web::WebProgress*), void (*&&)(), std::__ndk1::basic_string_view<char, std::__ndk1::char_traits<char> >) const::{lambda(void*)#1}::__invoke(void*)
PUBLIC 3fa4c 0 geode::Task<geode::utils::web::WebResponse, geode::utils::web::WebProgress>::map<DIBMenuLayer::init()::{lambda(geode::utils::web::WebResponse*)#1}, geode::utils::web::WebProgress (*)(geode::utils::web::WebProgress*), void (*)()>(DIBMenuLayer::init()::{lambda(geode::utils::web::WebResponse*)#1}&&, geode::utils::web::WebProgress (*&&)(geode::utils::web::WebProgress*), void (*&&)(), std::__ndk1::basic_string_view<char, std::__ndk1::char_traits<char> >) const::{lambda(void*)#2}::__invoke(void*)
PUBLIC 3fb18 0 geode::Task<geode::utils::web::WebResponse, geode::utils::web::WebProgress>::map<DIBMenuLayer::init()::{lambda(geode::utils::web::WebResponse*)#1}, geode::utils::web::WebProgress (*)(geode::utils::web::WebProgress*)>(DIBMenuLayer::init()::{lambda(geode::utils::web::WebResponse*)#1}&&, geode::utils::web::WebProgress (*&&)(geode::utils::web::WebProgress*), std::__ndk1::basic_string_view<char, std::__ndk1::char_traits<char> >) const::{lambda()#1}::__invoke()
PUBLIC 3fb1c 0 _ZZNK5geode4TaskINS_5utils3web11WebResponseENS2_11WebProgressEE3mapIZN12DIBMenuLayer4initEvEUlPS3_E_Qsr3stdE18copy_constructibleIT0_EEEDaOT_NSt6__ndk117basic_string_viewIcNSD_11char_traitsIcEEEEENUlPS4_E_8__invokeESI_
PUBLIC 3fb44 0 __cxx_global_var_init
PUBLIC 40350 0 geode::modifier::ModifyBase<geode::modifier::ModifyDerive<DIBProfilePage, ProfilePage> >::~ModifyBase()
PUBLIC 4036c 0 geode::modifier::ModifyDerive<DIBProfilePage, ProfilePage>::apply()
PUBLIC 406ec 0 geode::modifier::ModifyBase<geode::modifier::ModifyDerive<DIBProfilePage, ProfilePage> >::apply()
PUBLIC 406f0 0 std::__ndk1::__function::__func<geode::listenForSettingChangesV3<bool, DIBProfilePage::onModify(geode::modifier::ModifyBase<geode::modifier::ModifyDerive<DIBProfilePage, ProfilePage> >&)::{lambda(bool)#1}>(std::__ndk1::basic_string_view<char, std::__ndk1::char_traits<char> >, DIBProfilePage::onModify(geode::modifier::ModifyBase<geode::modifier::ModifyDerive<DIBProfilePage, ProfilePage> >&)::{lambda(bool)#1}&&, geode::Mod*)::{lambda(std::__ndk1::shared_ptr<geode::SettingV3>)#1}, std::__ndk1::allocator<geode::listenForSettingChangesV3<bool, DIBProfilePage::onModify(geode::modifier::ModifyBase<geode::modifier::ModifyDerive<DIBProfilePage, ProfilePage> >&)::{lambda(bool)#1}>(std::__ndk1::basic_string_view<char, std::__ndk1::char_traits<char> >, DIBProfilePage::onModify(geode::modifier::ModifyBase<geode::modifier::ModifyDerive<DIBProfilePage, ProfilePage> >&)::{lambda(bool)#1}&&, geode::Mod*)::{lambda(std::__ndk1::shared_ptr<geode::SettingV3>)#1}>, void (std::__ndk1::shared_ptr<geode::SettingV3>)>::~__func()
PUBLIC 406f4 0 std::__ndk1::__function::__func<geode::listenForSettingChangesV3<bool, DIBProfilePage::onModify(geode::modifier::ModifyBase<geode::modifier::ModifyDerive<DIBProfilePage, ProfilePage> >&)::{lambda(bool)#1}>(std::__ndk1::basic_string_view<char, std::__ndk1::char_traits<char> >, DIBProfilePage::onModify(geode::modifier::ModifyBase<geode::modifier::ModifyDerive<DIBProfilePage, ProfilePage> >&)::{lambda(bool)#1}&&, geode::Mod*)::{lambda(std::__ndk1::shared_ptr<geode::SettingV3>)#1}, std::__ndk1::allocator<geode::listenForSettingChangesV3<bool, DIBProfilePage::onModify(geode::modifier::ModifyBase<geode::modifier::ModifyDerive<DIBProfilePage, ProfilePage> >&)::{lambda(bool)#1}>(std::__ndk1::basic_string_view<char, std::__ndk1::char_traits<char> >, DIBProfilePage::onModify(geode::modifier::ModifyBase<geode::modifier::ModifyDerive<DIBProfilePage, ProfilePage> >&)::{lambda(bool)#1}&&, geode::Mod*)::{lambda(std::__ndk1::shared_ptr<geode::SettingV3>)#1}>, void (std::__ndk1::shared_ptr<geode::SettingV3>)>::__clone() const
PUBLIC 40728 0 std::__ndk1::__function::__func<geode::listenForSettingChangesV3<bool, DIBProfilePage::onModify(geode::modifier::ModifyBase<geode::modifier::ModifyDerive<DIBProfilePage, ProfilePage> >&)::{lambda(bool)#1}>(std::__ndk1::basic_string_view<char, std::__ndk1::char_traits<char> >, DIBProfilePage::onModify(geode::modifier::ModifyBase<geode::modifier::ModifyDerive<DIBProfilePage, ProfilePage> >&)::{lambda(bool)#1}&&, geode::Mod*)::{lambda(std::__ndk1::shared_ptr<geode::SettingV3>)#1}, std::__ndk1::allocator<geode::listenForSettingChangesV3<bool, DIBProfilePage::onModify(geode::modifier::ModifyBase<geode::modifier::ModifyDerive<DIBProfilePage, ProfilePage> >&)::{lambda(bool)#1}>(std::__ndk1::basic_string_view<char, std::__ndk1::char_traits<char> >, DIBProfilePage::onModify(geode::modifier::ModifyBase<geode::modifier::ModifyDerive<DIBProfilePage, ProfilePage> >&)::{lambda(bool)#1}&&, geode::Mod*)::{lambda(std::__ndk1::shared_ptr<geode::SettingV3>)#1}>, void (std::__ndk1::shared_ptr<geode::SettingV3>)>::__clone(std::__ndk1::__function::__base<void (std::__ndk1::shared_ptr<geode::SettingV3>)>*) const
PUBLIC 4073c 0 std::__ndk1::__function::__func<geode::listenForSettingChangesV3<bool, DIBProfilePage::onModify(geode::modifier::ModifyBase<geode::modifier::ModifyDerive<DIBProfilePage, ProfilePage> >&)::{lambda(bool)#1}>(std::__ndk1::basic_string_view<char, std::__ndk1::char_traits<char> >, DIBProfilePage::onModify(geode::modifier::ModifyBase<geode::modifier::ModifyDerive<DIBProfilePage, ProfilePage> >&)::{lambda(bool)#1}&&, geode::Mod*)::{lambda(std::__ndk1::shared_ptr<geode::SettingV3>)#1}, std::__ndk1::allocator<geode::listenForSettingChangesV3<bool, DIBProfilePage::onModify(geode::modifier::ModifyBase<geode::modifier::ModifyDerive<DIBProfilePage, ProfilePage> >&)::{lambda(bool)#1}>(std::__ndk1::basic_string_view<char, std::__ndk1::char_traits<char> >, DIBProfilePage::onModify(geode::modifier::ModifyBase<geode::modifier::ModifyDerive<DIBProfilePage, ProfilePage> >&)::{lambda(bool)#1}&&, geode::Mod*)::{lambda(std::__ndk1::shared_ptr<geode::SettingV3>)#1}>, void (std::__ndk1::shared_ptr<geode::SettingV3>)>::destroy()
PUBLIC 40740 0 std::__ndk1::__function::__func<geode::listenForSettingChangesV3<bool, DIBProfilePage::onModify(geode::modifier::ModifyBase<geode::modifier::ModifyDerive<DIBProfilePage, ProfilePage> >&)::{lambda(bool)#1}>(std::__ndk1::basic_string_view<char, std::__ndk1::char_traits<char> >, DIBProfilePage::onModify(geode::modifier::ModifyBase<geode::modifier::ModifyDerive<DIBProfilePage, ProfilePage> >&)::{lambda(bool)#1}&&, geode::Mod*)::{lambda(std::__ndk1::shared_ptr<geode::SettingV3>)#1}, std::__ndk1::allocator<geode::listenForSettingChangesV3<bool, DIBProfilePage::onModify(geode::modifier::ModifyBase<geode::modifier::ModifyDerive<DIBProfilePage, ProfilePage> >&)::{lambda(bool)#1}>(std::__ndk1::basic_string_view<char, std::__ndk1::char_traits<char> >, DIBProfilePage::onModify(geode::modifier::ModifyBase<geode::modifier::ModifyDerive<DIBProfilePage, ProfilePage> >&)::{lambda(bool)#1}&&, geode::Mod*)::{lambda(std::__ndk1::shared_ptr<geode::SettingV3>)#1}>, void (std::__ndk1::shared_ptr<geode::SettingV3>)>::destroy_deallocate()
PUBLIC 40744 0 std::__ndk1::__function::__func<geode::listenForSettingChangesV3<bool, DIBProfilePage::onModify(geode::modifier::ModifyBase<geode::modifier::ModifyDerive<DIBProfilePage, ProfilePage> >&)::{lambda(bool)#1}>(std::__ndk1::basic_string_view<char, std::__ndk1::char_traits<char> >, DIBProfilePage::onModify(geode::modifier::ModifyBase<geode::modifier::ModifyDerive<DIBProfilePage, ProfilePage> >&)::{lambda(bool)#1}&&, geode::Mod*)::{lambda(std::__ndk1::shared_ptr<geode::SettingV3>)#1}, std::__ndk1::allocator<geode::listenForSettingChangesV3<bool, DIBProfilePage::onModify(geode::modifier::ModifyBase<geode::modifier::ModifyDerive<DIBProfilePage, ProfilePage> >&)::{lambda(bool)#1}>(std::__ndk1::basic_string_view<char, std::__ndk1::char_traits<char> >, DIBProfilePage::onModify(geode::modifier::ModifyBase<geode::modifier::ModifyDerive<DIBProfilePage, ProfilePage> >&)::{lambda(bool)#1}&&, geode::Mod*)::{lambda(std::__ndk1::shared_ptr<geode::SettingV3>)#1}>, void (std::__ndk1::shared_ptr<geode::SettingV3>)>::operator()(std::__ndk1::shared_ptr<geode::SettingV3>&&)
PUBLIC 4098c 0 std::__ndk1::__function::__func<geode::listenForSettingChangesV3<bool, DIBProfilePage::onModify(geode::modifier::ModifyBase<geode::modifier::ModifyDerive<DIBProfilePage, ProfilePage> >&)::{lambda(bool)#1}>(std::__ndk1::basic_string_view<char, std::__ndk1::char_traits<char> >, DIBProfilePage::onModify(geode::modifier::ModifyBase<geode::modifier::ModifyDerive<DIBProfilePage, ProfilePage> >&)::{lambda(bool)#1}&&, geode::Mod*)::{lambda(std::__ndk1::shared_ptr<geode::SettingV3>)#1}, std::__ndk1::allocator<geode::listenForSettingChangesV3<bool, DIBProfilePage::onModify(geode::modifier::ModifyBase<geode::modifier::ModifyDerive<DIBProfilePage, ProfilePage> >&)::{lambda(bool)#1}>(std::__ndk1::basic_string_view<char, std::__ndk1::char_traits<char> >, DIBProfilePage::onModify(geode::modifier::ModifyBase<geode::modifier::ModifyDerive<DIBProfilePage, ProfilePage> >&)::{lambda(bool)#1}&&, geode::Mod*)::{lambda(std::__ndk1::shared_ptr<geode::SettingV3>)#1}>, void (std::__ndk1::shared_ptr<geode::SettingV3>)>::target(std::type_info const&) const
PUBLIC 409a8 0 std::__ndk1::__function::__func<geode::listenForSettingChangesV3<bool, DIBProfilePage::onModify(geode::modifier::ModifyBase<geode::modifier::ModifyDerive<DIBProfilePage, ProfilePage> >&)::{lambda(bool)#1}>(std::__ndk1::basic_string_view<char, std::__ndk1::char_traits<char> >, DIBProfilePage::onModify(geode::modifier::ModifyBase<geode::modifier::ModifyDerive<DIBProfilePage, ProfilePage> >&)::{lambda(bool)#1}&&, geode::Mod*)::{lambda(std::__ndk1::shared_ptr<geode::SettingV3>)#1}, std::__ndk1::allocator<geode::listenForSettingChangesV3<bool, DIBProfilePage::onModify(geode::modifier::ModifyBase<geode::modifier::ModifyDerive<DIBProfilePage, ProfilePage> >&)::{lambda(bool)#1}>(std::__ndk1::basic_string_view<char, std::__ndk1::char_traits<char> >, DIBProfilePage::onModify(geode::modifier::ModifyBase<geode::modifier::ModifyDerive<DIBProfilePage, ProfilePage> >&)::{lambda(bool)#1}&&, geode::Mod*)::{lambda(std::__ndk1::shared_ptr<geode::SettingV3>)#1}>, void (std::__ndk1::shared_ptr<geode::SettingV3>)>::target_type() const
PUBLIC 409b4 0 geode::modifier::AsStaticFunction_onStatInfo<DIBProfilePage, void (DIBProfilePage::*)(cocos2d::CCObject*)>::Impl<void (DIBProfilePage::*)(cocos2d::CCObject*)>::function(DIBProfilePage*, cocos2d::CCObject*)
PUBLIC 40a18 0 DemonsInBetween::offsetForDifficulty(int, GJDifficultyName)
PUBLIC 40be0 0 DemonsInBetween::spriteForDifficulty(GJDifficultySprite*, int, GJDifficultyName, GJFeatureState)
PUBLIC 40e7c 0 DemonsInBetween::stateForLevel(GJGameLevel*)
PUBLIC 40f44 0 DemonsInBetween::searchObjectForPage(int)
PUBLIC m 412dc 0 geodeImplicitEntry
PUBLIC 41318 0 std::__ndk1::unordered_map<void*, bool, std::__ndk1::hash<void*>, std::__ndk1::equal_to<void*>, std::__ndk1::allocator<std::__ndk1::pair<void* const, bool> > >::~unordered_map[abi:ne180000]()
PUBLIC 41364 0 wrapFunction(unsigned long, tulip::hook::WrapperMetadata const&)
PUBLIC 41498 0 geode::impl::ResultData<void*, std::__ndk1::basic_string<char, std::__ndk1::char_traits<char>, std::__ndk1::allocator<char> > >::unwrapErr() &
PUBLIC 41510 0 geode::impl::ResultData<void*, std::__ndk1::basic_string<char, std::__ndk1::char_traits<char>, std::__ndk1::allocator<char> > >::~ResultData()
PUBLIC 41584 0 tulip::hook::WrapperMetadata::~WrapperMetadata()
PUBLIC 415e8 0 cocos2d::CCObject::CCObject()
PUBLIC 4180c 0 cocos2d::CCObject::~CCObject()
PUBLIC 41830 0 cocos2d::CCNode::CCNode()
PUBLIC 41a8c 0 cocos2d::CCNode::~CCNode()
PUBLIC 41ab0 0 {virtual override thunk({offset(-320)}, cocos2d::CCLayer::~CCLayer())}
PUBLIC 41ab8 0 cocos2d::CCLayer::~CCLayer()
PUBLIC 41adc 0 {virtual override thunk({offset(-320)}, cocos2d::CCLayer::~CCLayer())}
PUBLIC 41b04 0 cocos2d::CCLayerRGBA::~CCLayerRGBA()
PUBLIC 41e04 0 {virtual override thunk({offset(-320)}, cocos2d::CCLayerRGBA::~CCLayerRGBA())}
PUBLIC 41e0c 0 cocos2d::CCLayerRGBA::~CCLayerRGBA()
PUBLIC 41e30 0 {virtual override thunk({offset(-320)}, cocos2d::CCLayerRGBA::~CCLayerRGBA())}
PUBLIC 41e58 0 cocos2d::CCLayerColor::CCLayerColor()
PUBLIC 420bc 0 {virtual override thunk({offset(-320)}, cocos2d::CCLayerColor::~CCLayerColor())}
PUBLIC 420c4 0 cocos2d::CCLayerColor::~CCLayerColor()
PUBLIC 420e8 0 {virtual override thunk({offset(-320)}, cocos2d::CCLayerColor::~CCLayerColor())}
PUBLIC 42110 0 {virtual override thunk({offset(-320)}, FLAlertLayer::~FLAlertLayer())}
PUBLIC 42118 0 FLAlertLayer::~FLAlertLayer()
PUBLIC 4213c 0 {virtual override thunk({offset(-320)}, FLAlertLayer::~FLAlertLayer())}
PUBLIC 42164 0 FLAlertLayer::create(FLAlertLayerProtocol*, char const*, gd::string, char const*, char const*, float)
PUBLIC 4231c 0 tulip::hook::AbstractFunction::from<FLAlertLayer*, FLAlertLayerProtocol*, char const*, gd::string, char const*, char const*, float>(FLAlertLayer* (*)(FLAlertLayerProtocol*, char const*, gd::string, char const*, char const*, float))
PUBLIC 42800 0 LevelManagerDelegate::loadLevelsFinished(cocos2d::CCArray*, char const*)
PUBLIC 42804 0 LevelManagerDelegate::loadLevelsFailed(char const*)
PUBLIC 42808 0 GJSearchObject::create(SearchType, gd::string)
PUBLIC 42988 0 tulip::hook::AbstractFunction::from<GJSearchObject*, SearchType, gd::string>(GJSearchObject* (*)(SearchType, gd::string))
PUBLIC 42a2c 0 LevelBrowserLayer::~LevelBrowserLayer()
PUBLIC 42d70 0 {virtual override thunk({offset(-320)}, LevelBrowserLayer::~LevelBrowserLayer())}
PUBLIC 42d78 0 LevelBrowserLayer::~LevelBrowserLayer()
PUBLIC 42d9c 0 {virtual override thunk({offset(-320)}, LevelBrowserLayer::~LevelBrowserLayer())}
PUBLIC 42dc4 0 LevelBrowserLayer::ccTouchBegan(cocos2d::CCTouch*, cocos2d::CCEvent*)
PUBLIC 42dcc 0 {virtual override thunk({offset(-320)}, LevelBrowserLayer::ccTouchBegan(cocos2d::CCTouch*, cocos2d::CCEvent*))}
PUBLIC 42dd4 0 LevelBrowserLayer::ccTouchMoved(cocos2d::CCTouch*, cocos2d::CCEvent*)
PUBLIC 42dd8 0 {virtual override thunk({offset(-320)}, LevelBrowserLayer::ccTouchMoved(cocos2d::CCTouch*, cocos2d::CCEvent*))}
PUBLIC 42ddc 0 LevelBrowserLayer::ccTouchEnded(cocos2d::CCTouch*, cocos2d::CCEvent*)
PUBLIC 42de0 0 {virtual override thunk({offset(-320)}, LevelBrowserLayer::ccTouchEnded(cocos2d::CCTouch*, cocos2d::CCEvent*))}
PUBLIC 42de4 0 LevelBrowserLayer::ccTouchCancelled(cocos2d::CCTouch*, cocos2d::CCEvent*)
PUBLIC 42de8 0 {virtual override thunk({offset(-320)}, LevelBrowserLayer::ccTouchCancelled(cocos2d::CCTouch*, cocos2d::CCEvent*))}
PUBLIC 42dec 0 LevelBrowserLayer::setupPageInfo(gd::string, char const*)
PUBLIC 42f74 0 tulip::hook::AbstractFunction::from<void, LevelBrowserLayer*, gd::string, char const*>(void (*)(LevelBrowserLayer*, gd::string, char const*))
PUBLIC 43080 0 {virtual override thunk({offset(-544)}, LevelBrowserLayer::setupPageInfo(gd::string, char const*))}
PUBLIC 43088 0 LevelBrowserLayer::shareCommentClosed(gd::string, ShareCommentLayer*)
PUBLIC 431fc 0 tulip::hook::AbstractFunction::from<void, LevelBrowserLayer*, gd::string, ShareCommentLayer*>(void (*)(LevelBrowserLayer*, gd::string, ShareCommentLayer*))
PUBLIC 43308 0 {virtual override thunk({offset(-584)}, LevelBrowserLayer::shareCommentClosed(gd::string, ShareCommentLayer*))}
PUBLIC 43310 0 LevelBrowserLayer::setTextPopupClosed(SetTextPopup*, gd::string)
PUBLIC 43484 0 tulip::hook::AbstractFunction::from<void, LevelBrowserLayer*, SetTextPopup*, gd::string>(void (*)(LevelBrowserLayer*, SetTextPopup*, gd::string))
PUBLIC 43590 0 {virtual override thunk({offset(-568)}, LevelBrowserLayer::setTextPopupClosed(SetTextPopup*, gd::string))}
PUBLIC 43598 0 cocos2d::CCLayerColor::~CCLayerColor()
PUBLIC 4387c 0 FLAlertLayer::~FLAlertLayer()
PUBLIC 43b60 0 cocos2d::CCNode::~CCNode()
PUBLIC 43e00 0 cocos2d::CCLayer::~CCLayer()
PUBLIC 440f0 0 cocos2d::CCObject::~CCObject()
PUBLIC 445e4 0 _ZN5geode15UnwrapExceptionC2IRPvQsr4implE18IsStringStreamableIT_EEENS_4impl5OkTagEOS4_
PUBLIC 44738 0 std::__ndk1::__variant_detail::__visitation::__base::__dispatcher<(unsigned long)0>::__dispatch[abi:ne180000]<std::__ndk1::__variant_detail::__dtor<std::__ndk1::__variant_detail::__traits<void*, std::__ndk1::basic_string<char, std::__ndk1::char_traits<char>, std::__ndk1::allocator<char> > >, (std::__ndk1::__variant_detail::_Trait)1>::__destroy[abi:ne180000]()::{lambda(auto:1&)#1}, std::__ndk1::__variant_detail::__base<(std::__ndk1::__variant_detail::__traits<void*, std::__ndk1::basic_string<char, std::__ndk1::char_traits<char>, std::__ndk1::allocator<char> > >)1, std::__ndk1::__variant_detail::__traits, std::__ndk1::allocator<char> >&>(std::__ndk1::__variant_detail::__dtor<std::__ndk1::__variant_detail::__traits<void*, std::__ndk1::basic_string<char, std::__ndk1::char_traits<char>, std::__ndk1::allocator<char> > >, (std::__ndk1::__variant_detail::_Trait)1>, std::__ndk1::__variant_detail::__base<(std::__ndk1::__variant_detail::__traits<void*, std::__ndk1::basic_string<char, std::__ndk1::char_traits<char>, std::__ndk1::allocator<char> > >)1, std::__ndk1::__variant_detail::__traits, std::__ndk1::allocator<char> >&)
PUBLIC 4473c 0 std::__ndk1::__variant_detail::__visitation::__base::__dispatcher<(unsigned long)1>::__dispatch[abi:ne180000]<std::__ndk1::__variant_detail::__dtor<std::__ndk1::__variant_detail::__traits<void*, std::__ndk1::basic_string<char, std::__ndk1::char_traits<char>, std::__ndk1::allocator<char> > >, (std::__ndk1::__variant_detail::_Trait)1>::__destroy[abi:ne180000]()::{lambda(auto:1&)#1}, std::__ndk1::__variant_detail::__base<(std::__ndk1::__variant_detail::__traits<void*, std::__ndk1::basic_string<char, std::__ndk1::char_traits<char>, std::__ndk1::allocator<char> > >)1, std::__ndk1::__variant_detail::__traits, std::__ndk1::allocator<char> >&>(std::__ndk1::__variant_detail::__dtor<std::__ndk1::__variant_detail::__traits<void*, std::__ndk1::basic_string<char, std::__ndk1::char_traits<char>, std::__ndk1::allocator<char> > >, (std::__ndk1::__variant_detail::_Trait)1>, std::__ndk1::__variant_detail::__base<(std::__ndk1::__variant_detail::__traits<void*, std::__ndk1::basic_string<char, std::__ndk1::char_traits<char>, std::__ndk1::allocator<char> > >)1, std::__ndk1::__variant_detail::__traits, std::__ndk1::allocator<char> >&)
PUBLIC 44750 0 std::__ndk1::__hash_table<std::__ndk1::__hash_value_type<void*, bool>, std::__ndk1::__unordered_map_hasher<void*, std::__ndk1::__hash_value_type<void*, bool>, std::__ndk1::hash<void*>, std::__ndk1::equal_to<void*>, true>, std::__ndk1::__unordered_map_equal<void*, std::__ndk1::__hash_value_type<void*, bool>, std::__ndk1::equal_to<void*>, std::__ndk1::hash<void*>, true>, std::__ndk1::allocator<std::__ndk1::__hash_value_type<void*, bool> > >::__emplace_unique_key_args<void*, std::__ndk1::piecewise_construct_t const&, std::__ndk1::tuple<void* const&>, std::__ndk1::tuple<> >(void* const&, std::__ndk1::piecewise_construct_t const&, std::__ndk1::tuple<void* const&>, std::__ndk1::tuple<>)
PUBLIC 44c5c 0 __udivti3
PUBLIC 44c68 0 __udivmodti4
PUBLIC m 44eb4 0 __eqtf2
PUBLIC 44f54 0 __unordtf2
PUBLIC 44f8c 0 fmt::v11::detail::write_loc(fmt::v11::basic_appender<char>, fmt::v11::loc_value, fmt::v11::format_specs const&, fmt::v11::detail::locale_ref)
PUBLIC 45220 0 fmt::v11::format_facet<std::__ndk1::locale>::~format_facet()
PUBLIC 4529c 0 fmt::v11::report_error(char const*)
PUBLIC 452ec 0 fmt::v11::format_error::runtime_error(char const*)
PUBLIC 45318 0 fmt::v11::format_facet<std::__ndk1::locale>::do_put(fmt::v11::basic_appender<char>, fmt::v11::loc_value, fmt::v11::format_specs const&) const
PUBLIC 45ad8 0 fmt::v11::detail::loc_writer<char>::~loc_writer()
PUBLIC 45b3c 0 fmt::v11::detail::vformat_to<char>(fmt::v11::detail::buffer<char>&, fmt::v11::basic_string_view<char>, fmt::v11::detail::vformat_args<char>::type, fmt::v11::detail::locale_ref)
PUBLIC 460ac 0 fmt::v11::detail::is_printable(unsigned int)
PUBLIC 462d4 0 fmt::v11::detail::dragonbox::to_decimal<float>(float)
PUBLIC 465b0 0 fmt::v11::detail::dragonbox::to_decimal<double>(double)
PUBLIC 46aec 0 fmt::v11::basic_memory_buffer<char, (unsigned long)500, std::__ndk1::allocator<char> >::grow(fmt::v11::detail::buffer<char>&, unsigned long)
PUBLIC 46b64 0 fmt::v11::format_facet<std::__ndk1::locale>::~format_facet()
PUBLIC 46bf0 0 fmt::v11::format_error::~format_error()
PUBLIC 46c14 0 fmt::v11::detail::copy_noinline<char, char const*, fmt::v11::basic_appender<char> >(char const*, char const*, fmt::v11::basic_appender<char>)
PUBLIC 46d64 0 fmt::v11::detail::default_arg_formatter<char>::operator()<bool>(bool)
PUBLIC 46dcc 0 fmt::v11::detail::default_arg_formatter<char>::operator()<char>(char)
PUBLIC 46e5c 0 fmt::v11::detail::default_arg_formatter<char>::operator()<float>(float)
PUBLIC 46f48 0 fmt::v11::detail::default_arg_formatter<char>::operator()<double>(double)
PUBLIC 47034 0 fmt::v11::detail::default_arg_formatter<char>::operator()<char const*>(char const*)
PUBLIC 4707c 0 fmt::v11::detail::default_arg_formatter<char>::operator()<void const*>(void const*)
PUBLIC 47114 0 _ZN3fmt3v116detail5writeIcNS0_14basic_appenderIcEEiTnNSt6__ndk19enable_ifIXaaaasr11is_integralIT1_EE5valuentsr3std7is_sameIS7_bEE5valuentsr3std7is_sameIS7_T_EE5valueEiE4typeELi0EEET0_SB_S7_
PUBLIC 47374 0 fmt::v11::detail::copy_noinline<char, char*, fmt::v11::basic_appender<char> >(char*, char*, fmt::v11::basic_appender<char>)
PUBLIC 474c4 0 _ZN3fmt3v116detail5writeIcNS0_14basic_appenderIcEEjTnNSt6__ndk19enable_ifIXaaaasr11is_integralIT1_EE5valuentsr3std7is_sameIS7_bEE5valuentsr3std7is_sameIS7_T_EE5valueEiE4typeELi0EEET0_SB_S7_
PUBLIC 476a4 0 _ZN3fmt3v116detail5writeIcNS0_14basic_appenderIcEExTnNSt6__ndk19enable_ifIXaaaasr11is_integralIT1_EE5valuentsr3std7is_sameIS7_bEE5valuentsr3std7is_sameIS7_T_EE5valueEiE4typeELi0EEET0_SB_S7_
PUBLIC 47928 0 _ZN3fmt3v116detail5writeIcNS0_14basic_appenderIcEEyTnNSt6__ndk19enable_ifIXaaaasr11is_integralIT1_EE5valuentsr3std7is_sameIS7_bEE5valuentsr3std7is_sameIS7_T_EE5valueEiE4typeELi0EEET0_SB_S7_
PUBLIC 47b30 0 _ZN3fmt3v116detail5writeIcNS0_14basic_appenderIcEEnTnNSt6__ndk19enable_ifIXaaaasr11is_integralIT1_EE5valuentsr3std7is_sameIS7_bEE5valuentsr3std7is_sameIS7_T_EE5valueEiE4typeELi0EEET0_SB_S7_
PUBLIC 47e90 0 _ZN3fmt3v116detail5writeIcNS0_14basic_appenderIcEEoTnNSt6__ndk19enable_ifIXaaaasr11is_integralIT1_EE5valuentsr3std7is_sameIS7_bEE5valuentsr3std7is_sameIS7_T_EE5valueEiE4typeELi0EEET0_SB_S7_
PUBLIC 481a4 0 _ZN3fmt3v116detail5writeIcNS0_14basic_appenderIcEEbTnNSt6__ndk19enable_ifIXsr3std7is_sameIT1_bEE5valueEiE4typeELi0EEET0_SA_S7_RKNS0_12format_specsENS1_10locale_refE
PUBLIC 48434 0 fmt::v11::detail::write_int_noinline<char, fmt::v11::basic_appender<char>, unsigned int>(fmt::v11::basic_appender<char>, fmt::v11::detail::write_int_arg<unsigned int>, fmt::v11::format_specs const&, fmt::v11::detail::locale_ref)
PUBLIC 49210 0 fmt::v11::detail::fill<char, fmt::v11::basic_appender<char> >(fmt::v11::basic_appender<char>, unsigned long, fmt::v11::detail::fill_t const&)
PUBLIC 493e0 0 fmt::v11::detail::write_padded<char, (fmt::v11::align::type)1, fmt::v11::basic_appender<char>, fmt::v11::detail::write_char<char, fmt::v11::basic_appender<char> >(fmt::v11::basic_appender<char>, char, fmt::v11::format_specs const&)::{lambda(fmt::v11::basic_appender<char>&)#1}>(fmt::v11::basic_appender<char>, fmt::v11::format_specs const&, unsigned long, unsigned long, fmt::v11::detail::write_char<char, fmt::v11::basic_appender<char> >(fmt::v11::basic_appender<char>, char, fmt::v11::format_specs const&)::{lambda(fmt::v11::basic_appender<char>&)#1})
PUBLIC 4961c 0 fmt::v11::detail::write_escaped_cp<fmt::v11::basic_appender<char>, char>(fmt::v11::basic_appender<char>, fmt::v11::detail::find_escape_result<char> const&)
PUBLIC 49928 0 fmt::v11::detail::write_codepoint<(unsigned long)2, char, fmt::v11::basic_appender<char> >(fmt::v11::basic_appender<char>, char, unsigned int)
PUBLIC 49aa0 0 fmt::v11::detail::write_codepoint<(unsigned long)8, char, fmt::v11::basic_appender<char> >(fmt::v11::basic_appender<char>, char, unsigned int)
PUBLIC 49c18 0 fmt::v11::detail::write_padded<char, (fmt::v11::align::type)1, fmt::v11::basic_appender<char>, fmt::v11::detail::write_nonfinite<char, fmt::v11::basic_appender<char> >(fmt::v11::basic_appender<char>, bool, fmt::v11::format_specs, fmt::v11::sign::type)::{lambda(fmt::v11::basic_appender<char>&)#1}>(fmt::v11::basic_appender<char>, fmt::v11::format_specs const&, unsigned long, unsigned long, fmt::v11::detail::write_nonfinite<char, fmt::v11::basic_appender<char> >(fmt::v11::basic_appender<char>, bool, fmt::v11::format_specs, fmt::v11::sign::type)::{lambda(fmt::v11::basic_appender<char>&)#1})
PUBLIC 49e58 0 fmt::v11::detail::do_write_float<char, fmt::v11::basic_appender<char>, fmt::v11::detail::dragonbox::decimal_fp<float>, fmt::v11::detail::digit_grouping<char> >(fmt::v11::basic_appender<char>, fmt::v11::detail::dragonbox::decimal_fp<float> const&, fmt::v11::format_specs const&, fmt::v11::detail::float_specs, fmt::v11::detail::locale_ref)
PUBLIC 4aacc 0 fmt::v11::detail::do_write_float<char, fmt::v11::basic_appender<char>, fmt::v11::detail::dragonbox::decimal_fp<float>, fmt::v11::detail::digit_grouping<char> >(fmt::v11::basic_appender<char>, fmt::v11::detail::dragonbox::decimal_fp<float> const&, fmt::v11::format_specs const&, fmt::v11::detail::float_specs, fmt::v11::detail::locale_ref)::{lambda(fmt::v11::basic_appender<char>(fmt::v11::basic_appender<char>))#1}::operator() const
PUBLIC 4ac20 0 fmt::v11::detail::digit_grouping<char>::digit_grouping(fmt::v11::detail::locale_ref, bool)
PUBLIC 4ae8c 0 fmt::v11::detail::digit_grouping<char>::~digit_grouping()
PUBLIC 4aed0 0 fmt::v11::detail::write_exponent<char, fmt::v11::basic_appender<char> >(int, fmt::v11::basic_appender<char>)
PUBLIC 4b0a0 0 _ZN3fmt3v116detail17write_significandIcjTnNSt6__ndk19enable_ifIXsr3std11is_integralIT0_EE5valueEiE4typeELi0EEEPT_S9_S5_iiS8_
PUBLIC 4b21c 0 fmt::v11::detail::digit_grouping<char>::apply<fmt::v11::basic_appender<char>, char>(fmt::v11::basic_appender<char>, fmt::v11::basic_string_view<char>) const
PUBLIC 4b5d4 0 fmt::v11::basic_memory_buffer<int, (unsigned long)500, std::__ndk1::allocator<int> >::grow(fmt::v11::detail::buffer<int>&, unsigned long)
PUBLIC 4b674 0 fmt::v11::detail::do_write_float<char, fmt::v11::basic_appender<char>, fmt::v11::detail::dragonbox::decimal_fp<double>, fmt::v11::detail::digit_grouping<char> >(fmt::v11::basic_appender<char>, fmt::v11::detail::dragonbox::decimal_fp<double> const&, fmt::v11::format_specs const&, fmt::v11::detail::float_specs, fmt::v11::detail::locale_ref)
PUBLIC 4c328 0 fmt::v11::detail::do_write_float<char, fmt::v11::basic_appender<char>, fmt::v11::detail::dragonbox::decimal_fp<double>, fmt::v11::detail::digit_grouping<char> >(fmt::v11::basic_appender<char>, fmt::v11::detail::dragonbox::decimal_fp<double> const&, fmt::v11::format_specs const&, fmt::v11::detail::float_specs, fmt::v11::detail::locale_ref)::{lambda(fmt::v11::basic_appender<char>(fmt::v11::basic_appender<char>))#1}::operator() const
PUBLIC 4c480 0 _ZN3fmt3v116detail17write_significandIcmTnNSt6__ndk19enable_ifIXsr3std11is_integralIT0_EE5valueEiE4typeELi0EEEPT_S9_S5_iiS8_
PUBLIC 4c610 0 fmt::v11::detail::write_float<char, fmt::v11::basic_appender<char>, long double>(fmt::v11::basic_appender<char>, long double, fmt::v11::format_specs, fmt::v11::detail::locale_ref)
PUBLIC 4d10c 0 fmt::v11::detail::write_padded<char, (fmt::v11::align::type)2, fmt::v11::basic_appender<char>, fmt::v11::detail::write_bytes<char, (fmt::v11::align::type)2, fmt::v11::basic_appender<char> >(fmt::v11::basic_appender<char>, fmt::v11::basic_string_view<char>, fmt::v11::format_specs const&)::{lambda(fmt::v11::basic_appender<char>&)#1}>(fmt::v11::basic_appender<char>, fmt::v11::format_specs const&, unsigned long, unsigned long, fmt::v11::detail::write_bytes<char, (fmt::v11::align::type)2, fmt::v11::basic_appender<char> >(fmt::v11::basic_appender<char>, fmt::v11::basic_string_view<char>, fmt::v11::format_specs const&)::{lambda(fmt::v11::basic_appender<char>&)#1})
PUBLIC 4d2e8 0 fmt::v11::detail::format_dragon(fmt::v11::detail::basic_fp<unsigned __int128>, unsigned int, int, fmt::v11::detail::buffer<char>&, int&)
PUBLIC 4e718 0 fmt::v11::detail::bigint::operator<<=(int)
PUBLIC 4e83c 0 fmt::v11::detail::bigint::assign_pow10(int)
PUBLIC 4ef98 0 fmt::v11::detail::bigint::divmod_assign(fmt::v11::detail::bigint const&)
PUBLIC 4f2b8 0 fmt::v11::basic_memory_buffer<unsigned int, (unsigned long)32, std::__ndk1::allocator<unsigned int> >::grow(fmt::v11::detail::buffer<unsigned int>&, unsigned long)
PUBLIC 4f358 0 fmt::v11::detail::do_write_float<char, fmt::v11::basic_appender<char>, fmt::v11::detail::big_decimal_fp, fmt::v11::detail::digit_grouping<char> >(fmt::v11::basic_appender<char>, fmt::v11::detail::big_decimal_fp const&, fmt::v11::format_specs const&, fmt::v11::detail::float_specs, fmt::v11::detail::locale_ref)
PUBLIC 50208 0 fmt::v11::detail::do_write_float<char, fmt::v11::basic_appender<char>, fmt::v11::detail::big_decimal_fp, fmt::v11::detail::digit_grouping<char> >(fmt::v11::basic_appender<char>, fmt::v11::detail::big_decimal_fp const&, fmt::v11::format_specs const&, fmt::v11::detail::float_specs, fmt::v11::detail::locale_ref)::{lambda(fmt::v11::basic_appender<char>(fmt::v11::basic_appender<char>))#1}::operator() const
PUBLIC 50368 0 fmt::v11::detail::write_padded<char, (fmt::v11::align::type)2, fmt::v11::basic_appender<char>, fmt::v11::detail::write_ptr<char, fmt::v11::basic_appender<char>, unsigned long>(fmt::v11::basic_appender<char>, unsigned long, fmt::v11::format_specs const*)::{lambda(fmt::v11::basic_appender<char>&)#1}>(fmt::v11::basic_appender<char>, fmt::v11::format_specs const&, unsigned long, unsigned long, fmt::v11::detail::write_ptr<char, fmt::v11::basic_appender<char>, unsigned long>(fmt::v11::basic_appender<char>, unsigned long, fmt::v11::format_specs const*)::{lambda(fmt::v11::basic_appender<char>&)#1})
PUBLIC 5057c 0 fmt::v11::detail::parse_replacement_field<char, fmt::v11::detail::vformat_to<char>(fmt::v11::detail::buffer<char>&, fmt::v11::basic_string_view<char>, fmt::v11::detail::vformat_args<char>::type, fmt::v11::detail::locale_ref)::format_handler&>(char const*, char const*, fmt::v11::detail::vformat_to<char>(fmt::v11::detail::buffer<char>&, fmt::v11::basic_string_view<char>, fmt::v11::detail::vformat_args<char>::type, fmt::v11::detail::locale_ref)::format_handler&)
PUBLIC 52218 0 fmt::v11::detail::parse_dynamic_spec<char>(char const*, char const*, int&, fmt::v11::detail::arg_ref<char>&, fmt::v11::basic_format_parse_context<char>&)
PUBLIC 524a8 0 fmt::v11::basic_format_args<fmt::v11::context>::get<char>(fmt::v11::basic_string_view<char>) const
PUBLIC 52600 0 fmt::v11::detail::write_int_noinline<char, fmt::v11::basic_appender<char>, unsigned long>(fmt::v11::basic_appender<char>, fmt::v11::detail::write_int_arg<unsigned long>, fmt::v11::format_specs const&, fmt::v11::detail::locale_ref)
PUBLIC 53454 0 fmt::v11::detail::write_int_noinline<char, fmt::v11::basic_appender<char>, unsigned __int128>(fmt::v11::basic_appender<char>, fmt::v11::detail::write_int_arg<unsigned __int128>, fmt::v11::format_specs const&, fmt::v11::detail::locale_ref)
PUBLIC 544bc 0 _ZN3fmt3v116detail15format_hexfloatIdTnNSt6__ndk19enable_ifIXntsr16is_double_doubleIT_EE5valueEiE4typeELi0EEEvS5_NS0_12format_specsERNS1_6bufferIcEE
PUBLIC 549dc 0 fmt::v11::detail::format_float<double>(double, int, fmt::v11::detail::float_specs, fmt::v11::detail::buffer<char>&)
PUBLIC 5537c 0 fmt::v11::detail::write<char, fmt::v11::basic_appender<char> >(fmt::v11::basic_appender<char>, fmt::v11::basic_string_view<char>, fmt::v11::format_specs const&)
PUBLIC 566e8 0 fmt::v11::detail::for_each_codepoint<fmt::v11::detail::compute_width(fmt::v11::basic_string_view<char>)::count_code_points>(fmt::v11::basic_string_view<char>, fmt::v11::detail::compute_width(fmt::v11::basic_string_view<char>)::count_code_points)::{lambda(char const*, char const*)#1}::operator()(char const*, char const*) const
PUBLIC 568a0 0 fmt::v11::detail::write_int<fmt::v11::basic_appender<char>, unsigned long, char>(fmt::v11::basic_appender<char>, unsigned long, unsigned int, fmt::v11::format_specs const&, fmt::v11::detail::digit_grouping<char> const&)
PUBLIC 56e1c 0 fmt::v11::detail::write_int<fmt::v11::basic_appender<char>, unsigned __int128, char>(fmt::v11::basic_appender<char>, unsigned __int128, unsigned int, fmt::v11::format_specs const&, fmt::v11::detail::digit_grouping<char> const&)
PUBLIC 574a0 0 <.plt ELF section in hiimjustin000.demons_in_between.android64.so>
STACK CFI INIT 26210 10 .cfa: sp 0 +
STACK CFI INIT 26220 8 .cfa: sp 0 +
STACK CFI INIT 26228 8 .cfa: sp 0 +
STACK CFI INIT 26230 14 .cfa: sp 0 +
STACK CFI INIT 26244 1c .cfa: sp 0 +
STACK CFI INIT 26260 10 .cfa: sp 0 +
STACK CFI INIT 26270 134 .cfa: sp 0 +
STACK CFI INIT 263a4 84 .cfa: sp 0 +
STACK CFI INIT 26428 f4 .cfa: sp 0 +
STACK CFI INIT 2651c a8 .cfa: sp 0 +
STACK CFI INIT 265c4 7c .cfa: sp 0 +
STACK CFI INIT 26640 14 .cfa: sp 0 +
STACK CFI INIT 26654 40 .cfa: sp 0 +
STACK CFI INIT 26694 28 .cfa: sp 0 +
STACK CFI INIT 266bc 190 .cfa: sp 0 +
STACK CFI INIT 2684c 2c8 .cfa: sp 0 +
STACK CFI INIT 26b14 8 .cfa: sp 0 +
STACK CFI INIT 26b1c 8 .cfa: sp 0 +
STACK CFI INIT 26b24 44 .cfa: sp 0 +
STACK CFI INIT 26b68 e8 .cfa: sp 0 +
STACK CFI INIT 26c50 e8 .cfa: sp 0 +
STACK CFI INIT 26d38 14 .cfa: sp 0 +
STACK CFI INIT 26d4c 10 .cfa: sp 0 +
STACK CFI INIT 26d5c 10 .cfa: sp 0 +
STACK CFI INIT 26d6c f0 .cfa: sp 0 +
STACK CFI INIT 26e5c 44 .cfa: sp 0 +
STACK CFI INIT 26ea0 c .cfa: sp 0 +
STACK CFI INIT 26eac c .cfa: sp 0 +
STACK CFI INIT 26eb8 2c .cfa: sp 0 +
STACK CFI INIT 26ee4 280 .cfa: sp 0 +
STACK CFI INIT 27164 c .cfa: sp 0 +
STACK CFI INIT 27170 120 .cfa: sp 0 +
STACK CFI INIT 27290 488 .cfa: sp 0 +
STACK CFI INIT 27718 c48 .cfa: sp 0 +
STACK CFI INIT 28360 134 .cfa: sp 0 +
STACK CFI INIT 28494 210 .cfa: sp 0 +
STACK CFI INIT 286a4 38c .cfa: sp 0 +
STACK CFI INIT 28a30 1c8 .cfa: sp 0 +
STACK CFI INIT 28bf8 9bc .cfa: sp 0 +
STACK CFI INIT 295b4 2d4 .cfa: sp 0 +
STACK CFI INIT 29888 134 .cfa: sp 0 +
STACK CFI INIT 299bc 120 .cfa: sp 0 +
STACK CFI INIT 29adc 1c8 .cfa: sp 0 +
STACK CFI INIT 29ca4 168 .cfa: sp 0 +
STACK CFI INIT 29e0c fc .cfa: sp 0 +
STACK CFI INIT 29f08 30 .cfa: sp 0 +
STACK CFI INIT 2a070 30 .cfa: sp 0 +
STACK CFI INIT 2a0a0 98 .cfa: sp 0 +
STACK CFI INIT 2a138 59c .cfa: sp 0 +
STACK CFI INIT 2a6d4 8c .cfa: sp 0 +
STACK CFI INIT 2a760 5c .cfa: sp 0 +
STACK CFI 2a764 .cfa: sp 16 +
STACK CFI 2a768 .cfa: x29 16 + .ra: .cfa -8 + ^ x29: .cfa -16 + ^
STACK CFI 2a7ac .cfa: sp 16 +
STACK CFI 2a7b0 .cfa: sp 0 +
STACK CFI 2a7b4 .cfa: sp 16 +
STACK CFI 2a7b8 .cfa: sp 0 +
STACK CFI INIT 2a7bc 18 .cfa: sp 0 +
STACK CFI INIT 2aee4 7c .cfa: sp 0 +
STACK CFI 2aee8 .cfa: sp 48 +
STACK CFI 2aef4 .cfa: x29 48 + x19: .cfa -8 + ^ x20: .cfa -16 + ^ x21: .cfa -32 + ^ .ra: .cfa -40 + ^ x29: .cfa -48 + ^
STACK CFI 2af40 .cfa: sp 48 +
STACK CFI 2af4c .cfa: sp 0 +
STACK CFI 2af50 .cfa: sp 48 +
STACK CFI 2af5c .cfa: sp 0 +
STACK CFI INIT 2af60 7c .cfa: sp 0 +
STACK CFI 2af64 .cfa: sp 48 +
STACK CFI 2af70 .cfa: x29 48 + x19: .cfa -8 + ^ x20: .cfa -16 + ^ x21: .cfa -32 + ^ .ra: .cfa -40 + ^ x29: .cfa -48 + ^
STACK CFI 2afbc .cfa: sp 48 +
STACK CFI 2afc8 .cfa: sp 0 +
STACK CFI 2afcc .cfa: sp 48 +
STACK CFI 2afd8 .cfa: sp 0 +
STACK CFI INIT 2afdc 8 .cfa: sp 0 +
STACK CFI INIT 2d2cc 38 .cfa: sp 0 +
STACK CFI 2d2d0 .cfa: sp 32 +
STACK CFI 2d2d8 .cfa: x29 32 + x19: .cfa -8 + ^ x20: .cfa -16 + ^ .ra: .cfa -24 + ^ x29: .cfa -32 + ^
STACK CFI 2d2f8 .cfa: sp 32 +
STACK CFI 2d300 .cfa: sp 0 +
STACK CFI INIT 2d44c 68 .cfa: sp 0 +
STACK CFI INIT 2d4b4 28 .cfa: sp 0 +
STACK CFI INIT 2d4dc 70 .cfa: sp 0 +
STACK CFI INIT 2d63c 10 .cfa: sp 0 +
STACK CFI 2d640 .cfa: sp 16 +
STACK CFI 2d644 .cfa: x29 16 + .ra: .cfa -8 + ^ x29: .cfa -16 + ^
STACK CFI INIT 2d64c 8 .cfa: sp 0 +
STACK CFI INIT 2d654 24 .cfa: sp 0 +
STACK CFI 2d658 .cfa: sp 32 +
STACK CFI 2d660 .cfa: x29 32 + x19: .cfa -16 + ^ .ra: .cfa -24 + ^ x29: .cfa -32 + ^
STACK CFI 2d66c .cfa: sp 32 +
STACK CFI 2d674 .cfa: sp 0 +
STACK CFI INIT 2d678 28 .cfa: sp 0 +
STACK CFI 2d67c .cfa: sp 32 +
STACK CFI 2d684 .cfa: x29 32 + x19: .cfa -16 + ^ .ra: .cfa -24 + ^ x29: .cfa -32 + ^
STACK CFI 2d694 .cfa: sp 32 +
STACK CFI 2d69c .cfa: sp 0 +
STACK CFI INIT 2d6a0 8 .cfa: sp 0 +
STACK CFI INIT 2d6a8 2c .cfa: sp 0 +
STACK CFI 2d6ac .cfa: sp 32 +
STACK CFI 2d6b4 .cfa: x29 32 + x19: .cfa -16 + ^ .ra: .cfa -24 + ^ x29: .cfa -32 + ^
STACK CFI 2d6c8 .cfa: sp 32 +
STACK CFI 2d6d0 .cfa: sp 0 +
STACK CFI INIT 2d6d4 4 .cfa: sp 0 +
STACK CFI INIT 2d6d8 8 .cfa: sp 0 +
STACK CFI INIT 2d6e0 4 .cfa: sp 0 +
STACK CFI INIT 2d6e4 4 .cfa: sp 0 +
STACK CFI INIT 2d6e8 4 .cfa: sp 0 +
STACK CFI INIT 2d6ec 4 .cfa: sp 0 +
STACK CFI INIT 2d6f0 4 .cfa: sp 0 +
STACK CFI INIT 2d6f4 8 .cfa: sp 0 +
STACK CFI INIT 2d868 8c .cfa: sp 0 +
STACK CFI 2d86c .cfa: sp 48 +
STACK CFI 2d878 .cfa: x29 48 + x19: .cfa -8 + ^ x20: .cfa -16 + ^ x21: .cfa -24 + ^ x22: .cfa -32 + ^ .ra: .cfa -40 + ^ x29: .cfa -48 + ^
STACK CFI 2d880 .cfa: sp 48 +
STACK CFI 2d88c .cfa: sp 0 +
STACK CFI 2d890 .cfa: x29 48 +
STACK CFI 2d8e4 .cfa: sp 48 +
STACK CFI 2d8f0 .cfa: sp 0 +
STACK CFI INIT 2d8f4 14 .cfa: sp 0 +
STACK CFI 2d8f8 .cfa: sp 16 +
STACK CFI 2d8fc .cfa: x29 16 + .ra: .cfa -8 + ^ x29: .cfa -16 + ^
STACK CFI INIT 2d958 30 .cfa: sp 0 +
STACK CFI 2d95c .cfa: sp 32 +
STACK CFI 2d964 .cfa: x29 32 + x19: .cfa -16 + ^ .ra: .cfa -24 + ^ x29: .cfa -32 + ^
STACK CFI 2d97c .cfa: sp 32 +
STACK CFI 2d984 .cfa: sp 0 +
STACK CFI INIT 2d988 60 .cfa: sp 0 +
STACK CFI 2d998 .cfa: sp 32 +
STACK CFI 2d9a0 .cfa: x29 32 + x19: .cfa -8 + ^ x20: .cfa -16 + ^ .ra: .cfa -24 + ^ x29: .cfa -32 + ^
STACK CFI 2d9dc .cfa: sp 32 +
STACK CFI 2d9e4 .cfa: sp 0 +
STACK CFI INIT 2d9e8 80 .cfa: sp 0 +
STACK CFI 2d9ec .cfa: sp 48 +
STACK CFI 2d9f8 .cfa: x29 48 + x19: .cfa -8 + ^ x20: .cfa -16 + ^ x21: .cfa -24 + ^ x22: .cfa -32 + ^ .ra: .cfa -40 + ^ x29: .cfa -48 + ^
STACK CFI 2da10 .cfa: sp 48 +
STACK CFI 2da1c .cfa: sp 0 +
STACK CFI 2da20 .cfa: x29 48 +
STACK CFI 2da50 .cfa: sp 48 +
STACK CFI 2da5c .cfa: sp 0 +
STACK CFI 2da60 .cfa: x29 48 +
STACK CFI INIT 2da68 14 .cfa: sp 0 +
STACK CFI 2da6c .cfa: sp 16 +
STACK CFI 2da70 .cfa: x29 16 + .ra: .cfa -8 + ^ x29: .cfa -16 + ^
STACK CFI INIT 2dae8 4 .cfa: sp 0 +
STACK CFI INIT 2db58 4 .cfa: sp 0 +
STACK CFI INIT 2db5c 2c .cfa: sp 0 +
STACK CFI INIT 2dee4 70 .cfa: sp 0 +
STACK CFI 2dee8 .cfa: sp 48 +
STACK CFI 2def4 .cfa: x29 32 + x19: .cfa -16 + ^ .ra: .cfa -24 + ^ x29: .cfa -32 + ^
STACK CFI 2df2c .cfa: sp 48 +
STACK CFI 2df38 .cfa: sp 0 +
STACK CFI 2df3c .cfa: x29 32 +
STACK CFI INIT 2df54 5c .cfa: sp 0 +
STACK CFI 2df58 .cfa: sp 32 +
STACK CFI 2df60 .cfa: x29 32 + x19: .cfa -16 + ^ .ra: .cfa -24 + ^ x29: .cfa -32 + ^
STACK CFI 2dfa4 .cfa: sp 32 +
STACK CFI 2dfac .cfa: sp 0 +
STACK CFI INIT 2dfb0 64 .cfa: sp 0 +
STACK CFI 2dfb4 .cfa: sp 32 +
STACK CFI 2dfbc .cfa: x29 32 + x19: .cfa -16 + ^ .ra: .cfa -24 + ^ x29: .cfa -32 + ^
STACK CFI 2e008 .cfa: sp 32 +
STACK CFI 2e010 .cfa: sp 0 +
STACK CFI INIT 2e014 4 .cfa: sp 0 +
STACK CFI INIT 2e018 34 .cfa: sp 0 +
STACK CFI 2e01c .cfa: sp 16 +
STACK CFI 2e020 .cfa: x29 16 + .ra: .cfa -8 + ^ x29: .cfa -16 + ^
STACK CFI INIT 2e04c 24 .cfa: sp 0 +
STACK CFI 2e050 .cfa: sp 32 +
STACK CFI 2e058 .cfa: x29 32 + x19: .cfa -16 + ^ .ra: .cfa -24 + ^ x29: .cfa -32 + ^
STACK CFI 2e064 .cfa: sp 32 +
STACK CFI 2e06c .cfa: sp 0 +
STACK CFI INIT 2e1a8 1b0 .cfa: sp 0 +
STACK CFI INIT 2e358 94 .cfa: sp 0 +
STACK CFI 2e35c .cfa: sp 48 +
STACK CFI 2e368 .cfa: x29 48 + x19: .cfa -8 + ^ x20: .cfa -16 + ^ x21: .cfa -32 + ^ .ra: .cfa -40 + ^ x29: .cfa -48 + ^
STACK CFI 2e3bc .cfa: sp 48 +
STACK CFI 2e3c8 .cfa: sp 0 +
STACK CFI 2e3cc .cfa: x29 48 +
STACK CFI 2e3dc .cfa: sp 48 +
STACK CFI 2e3e8 .cfa: sp 0 +
STACK CFI INIT 2e3ec 1b0 .cfa: sp 0 +
STACK CFI INIT 2e59c 94 .cfa: sp 0 +
STACK CFI 2e5a4 .cfa: sp 48 +
STACK CFI 2e5b0 .cfa: x29 48 + x19: .cfa -8 + ^ x20: .cfa -16 + ^ x21: .cfa -32 + ^ .ra: .cfa -40 + ^ x29: .cfa -48 + ^
STACK CFI 2e60c .cfa: sp 0 + x19: x19 x20: x20 x21: x21 .ra: x30 x29: x29
STACK CFI 2e610 .cfa: x29 48 + x19: .cfa -8 + ^ x20: .cfa -16 + ^ x21: .cfa -32 + ^ .ra: .cfa -40 + ^ x29: .cfa -48 + ^
STACK CFI 2e620 .cfa: sp 48 +
STACK CFI 2e62c .cfa: sp 0 +
STACK CFI INIT 2e630 308 .cfa: sp 0 +
STACK CFI 2e634 .cfa: sp 128 +
STACK CFI 2e64c .cfa: x29 64 + x19: .cfa -8 + ^ x20: .cfa -16 + ^ x21: .cfa -24 + ^ x22: .cfa -32 + ^ x23: .cfa -48 + ^ .ra: .cfa -56 + ^ x29: .cfa -64 + ^ v8: .cfa -72 + ^ v9: .cfa -80 + ^
STACK CFI 2e880 .cfa: sp 128 +
STACK CFI 2e898 .cfa: sp 0 +
STACK CFI 2e89c .cfa: x29 64 +
STACK CFI INIT 2e938 4 .cfa: sp 0 +
STACK CFI INIT 2e93c 34 .cfa: sp 0 +
STACK CFI 2e940 .cfa: sp 32 +
STACK CFI 2e948 .cfa: x29 32 + x19: .cfa -16 + ^ .ra: .cfa -24 + ^ x29: .cfa -32 + ^
STACK CFI 2e964 .cfa: sp 32 +
STACK CFI 2e96c .cfa: sp 0 +
STACK CFI INIT 2e970 14 .cfa: sp 0 +
STACK CFI INIT 2e984 4 .cfa: sp 0 +
STACK CFI INIT 2e988 4 .cfa: sp 0 +
STACK CFI INIT 2e98c 10 .cfa: sp 0 +
STACK CFI INIT 2e99c 1c .cfa: sp 0 +
STACK CFI INIT 2e9b8 c .cfa: sp 0 +
STACK CFI INIT 2e9c4 4 .cfa: sp 0 +
STACK CFI INIT 2e9c8 4 .cfa: sp 0 +
STACK CFI INIT 2e9cc 34 .cfa: sp 0 +
STACK CFI 2e9d0 .cfa: sp 32 +
STACK CFI 2e9d8 .cfa: x29 32 + x19: .cfa -16 + ^ .ra: .cfa -24 + ^ x29: .cfa -32 + ^
STACK CFI 2e9f4 .cfa: sp 32 +
STACK CFI 2e9fc .cfa: sp 0 +
STACK CFI INIT 2ea00 14 .cfa: sp 0 +
STACK CFI INIT 2ea14 4 .cfa: sp 0 +
STACK CFI INIT 2ea18 4 .cfa: sp 0 +
STACK CFI INIT 2ea1c 10 .cfa: sp 0 +
STACK CFI INIT 2ea2c 1c .cfa: sp 0 +
STACK CFI INIT 2ea48 c .cfa: sp 0 +
STACK CFI INIT 2ea54 60 .cfa: sp 0 +
STACK CFI 2ea58 .cfa: sp 32 +
STACK CFI 2ea60 .cfa: x29 32 + x19: .cfa -8 + ^ x20: .cfa -16 + ^ .ra: .cfa -24 + ^ x29: .cfa -32 + ^
STACK CFI 2ea80 .cfa: sp 32 +
STACK CFI 2ea88 .cfa: sp 0 +
STACK CFI 2ea8c .cfa: x29 32 +
STACK CFI 2eaa8 .cfa: sp 32 +
STACK CFI 2eab0 .cfa: sp 0 +
STACK CFI INIT 2eab4 70 .cfa: sp 0 +
STACK CFI 2eab8 .cfa: sp 32 +
STACK CFI 2eac0 .cfa: x29 32 + x19: .cfa -8 + ^ x20: .cfa -16 + ^ .ra: .cfa -24 + ^ x29: .cfa -32 + ^
STACK CFI 2eae8 .cfa: sp 32 +
STACK CFI 2eaf0 .cfa: sp 0 +
STACK CFI 2eaf4 .cfa: x29 32 +
STACK CFI 2eb18 .cfa: sp 32 +
STACK CFI 2eb20 .cfa: sp 0 +
STACK CFI INIT 2eb24 10 .cfa: sp 0 +
STACK CFI INIT 2eb34 30 .cfa: sp 0 +
STACK CFI 2eb38 .cfa: sp 32 +
STACK CFI 2eb40 .cfa: x29 32 + x19: .cfa -16 + ^ .ra: .cfa -24 + ^ x29: .cfa -32 + ^
STACK CFI 2eb58 .cfa: sp 32 +
STACK CFI 2eb60 .cfa: sp 0 +
STACK CFI INIT 2eb64 4 .cfa: sp 0 +
STACK CFI INIT 2eb68 4 .cfa: sp 0 +
STACK CFI INIT 2f688 4 .cfa: sp 0 +
STACK CFI INIT 2f68c 38 .cfa: sp 0 +
STACK CFI 2f690 .cfa: sp 32 +
STACK CFI 2f698 .cfa: x29 32 + x19: .cfa -16 + ^ .ra: .cfa -24 + ^ x29: .cfa -32 + ^
STACK CFI 2f6b8 .cfa: sp 32 +
STACK CFI 2f6c0 .cfa: sp 0 +
STACK CFI INIT 2f6c4 18 .cfa: sp 0 +
STACK CFI INIT 2f6dc 4 .cfa: sp 0 +
STACK CFI INIT 2f6e0 4 .cfa: sp 0 +
STACK CFI INIT 2f6e4 54 .cfa: sp 0 +
STACK CFI 2f6e8 .cfa: sp 32 +
STACK CFI 2f6f0 .cfa: x29 32 + x19: .cfa -16 + ^ .ra: .cfa -24 + ^ x29: .cfa -32 + ^
STACK CFI 2f72c .cfa: sp 32 +
STACK CFI 2f734 .cfa: sp 0 +
STACK CFI INIT 2f738 1c .cfa: sp 0 +
STACK CFI INIT 2f754 c .cfa: sp 0 +
STACK CFI INIT 300d4 ac .cfa: sp 0 +
STACK CFI 300d8 .cfa: sp 64 +
STACK CFI 300e8 .cfa: x29 64 + x19: .cfa -8 + ^ x20: .cfa -16 + ^ x21: .cfa -24 + ^ x22: .cfa -32 + ^ x23: .cfa -48 + ^ .ra: .cfa -56 + ^ x29: .cfa -64 + ^
STACK CFI 30164 .cfa: sp 64 +
STACK CFI 30174 .cfa: sp 0 +
STACK CFI 30178 .cfa: x29 64 +
STACK CFI INIT 30180 110 .cfa: sp 0 +
STACK CFI 30184 .cfa: sp 64 +
STACK CFI 30194 .cfa: x29 64 + x19: .cfa -8 + ^ x20: .cfa -16 + ^ x21: .cfa -24 + ^ x22: .cfa -32 + ^ x23: .cfa -40 + ^ x24: .cfa -48 + ^ .ra: .cfa -56 + ^ x29: .cfa -64 + ^
STACK CFI 30274 .cfa: sp 64 +
STACK CFI 30284 .cfa: sp 0 +
STACK CFI 30288 .cfa: x29 64 +
STACK CFI INIT 30290 30 .cfa: sp 0 +
STACK CFI INIT 307f4 1c .cfa: sp 0 +
STACK CFI INIT 30810 34 .cfa: sp 0 +
STACK CFI 30814 .cfa: sp 32 +
STACK CFI 3081c .cfa: x29 32 + x19: .cfa -16 + ^ .ra: .cfa -24 + ^ x29: .cfa -32 + ^
STACK CFI INIT 31fd8 50 .cfa: sp 0 +
STACK CFI 31fdc .cfa: sp 32 +
STACK CFI 31fe4 .cfa: x29 32 + x19: .cfa -16 + ^ .ra: .cfa -24 + ^ x29: .cfa -32 + ^
STACK CFI 31ffc .cfa: sp 32 +
STACK CFI 32004 .cfa: sp 0 +
STACK CFI 32008 .cfa: x29 32 +
STACK CFI 3201c .cfa: sp 32 +
STACK CFI 32024 .cfa: sp 0 +
STACK CFI INIT 3209c 4 .cfa: sp 0 +
STACK CFI INIT 32664 120 .cfa: sp 0 +
STACK CFI 32668 .cfa: sp 64 +
STACK CFI 32678 .cfa: x29 64 + x19: .cfa -8 + ^ x20: .cfa -16 + ^ x21: .cfa -24 + ^ x22: .cfa -32 + ^ x23: .cfa -40 + ^ x24: .cfa -48 + ^ .ra: .cfa -56 + ^ x29: .cfa -64 + ^
STACK CFI 32770 .cfa: sp 64 +
STACK CFI 32780 .cfa: sp 0 +
STACK CFI INIT 32978 7c .cfa: sp 0 +
STACK CFI 3297c .cfa: sp 32 +
STACK CFI 32984 .cfa: x29 32 + x19: .cfa -8 + ^ x20: .cfa -16 + ^ .ra: .cfa -24 + ^ x29: .cfa -32 + ^
STACK CFI 329dc .cfa: sp 32 +
STACK CFI 329e4 .cfa: sp 0 +
STACK CFI 329e8 .cfa: sp 32 +
STACK CFI 329f0 .cfa: sp 0 +
STACK CFI INIT 32b48 34 .cfa: sp 0 +
STACK CFI 32b4c .cfa: sp 16 +
STACK CFI 32b50 .cfa: x29 16 + .ra: .cfa -8 + ^ x29: .cfa -16 + ^
STACK CFI INIT 32ca8 80 .cfa: sp 0 +
STACK CFI 32cac .cfa: sp 48 +
STACK CFI 32cb8 .cfa: x29 48 + x19: .cfa -8 + ^ x20: .cfa -16 + ^ x21: .cfa -32 + ^ .ra: .cfa -40 + ^ x29: .cfa -48 + ^
STACK CFI 32d18 .cfa: sp 48 +
STACK CFI 32d24 .cfa: sp 0 +
STACK CFI INIT 32d28 24 .cfa: sp 0 +
STACK CFI 32d2c .cfa: sp 32 +
STACK CFI 32d34 .cfa: x29 32 + x19: .cfa -16 + ^ .ra: .cfa -24 + ^ x29: .cfa -32 + ^
STACK CFI 32d40 .cfa: sp 32 +
STACK CFI 32d48 .cfa: sp 0 +
STACK CFI INIT 33244 148 .cfa: sp 0 +
STACK CFI 33248 .cfa: sp 48 +
STACK CFI 33254 .cfa: x29 48 + x19: .cfa -8 + ^ x20: .cfa -16 + ^ x21: .cfa -32 + ^ .ra: .cfa -40 + ^ x29: .cfa -48 + ^
STACK CFI 3337c .cfa: sp 48 +
STACK CFI 33388 .cfa: sp 0 +
STACK CFI INIT 334f4 4 .cfa: sp 0 +
STACK CFI INIT 334f8 4 .cfa: sp 0 +
STACK CFI INIT 334fc 38 .cfa: sp 0 +
STACK CFI 33500 .cfa: sp 32 +
STACK CFI 33508 .cfa: x29 32 + x19: .cfa -16 + ^ .ra: .cfa -24 + ^ x29: .cfa -32 + ^
STACK CFI 33528 .cfa: sp 32 +
STACK CFI 33530 .cfa: sp 0 +
STACK CFI INIT 33534 18 .cfa: sp 0 +
STACK CFI INIT 3354c 4 .cfa: sp 0 +
STACK CFI INIT 33550 4 .cfa: sp 0 +
STACK CFI INIT 33554 8 .cfa: sp 0 +
STACK CFI INIT 3355c 1c .cfa: sp 0 +
STACK CFI INIT 33578 c .cfa: sp 0 +
STACK CFI INIT 33584 4 .cfa: sp 0 +
STACK CFI INIT 336fc 5c .cfa: sp 0 +
STACK CFI 33700 .cfa: sp 32 +
STACK CFI 33708 .cfa: x29 32 + x19: .cfa -16 + ^ .ra: .cfa -24 + ^ x29: .cfa -32 + ^
STACK CFI 3374c .cfa: sp 32 +
STACK CFI 33754 .cfa: sp 0 +
STACK CFI INIT 33758 64 .cfa: sp 0 +
STACK CFI 3375c .cfa: sp 32 +
STACK CFI 33764 .cfa: x29 32 + x19: .cfa -16 + ^ .ra: .cfa -24 + ^ x29: .cfa -32 + ^
STACK CFI 337b0 .cfa: sp 32 +
STACK CFI 337b8 .cfa: sp 0 +
STACK CFI INIT 337bc 104 .cfa: sp 0 +
STACK CFI 337c0 .cfa: sp 64 +
STACK CFI 337d0 .cfa: x29 64 + x19: .cfa -8 + ^ x20: .cfa -16 + ^ x21: .cfa -24 + ^ x22: .cfa -32 + ^ x23: .cfa -48 + ^ .ra: .cfa -56 + ^ x29: .cfa -64 + ^
STACK CFI 3382c .cfa: sp 64 +
STACK CFI 3383c .cfa: sp 0 +
STACK CFI 33840 .cfa: x29 64 +
STACK CFI 3385c .cfa: sp 64 +
STACK CFI 3386c .cfa: sp 0 +
STACK CFI 33870 .cfa: x29 64 +
STACK CFI 338ac .cfa: sp 64 +
STACK CFI 338bc .cfa: sp 0 +
STACK CFI INIT 338c0 4 .cfa: sp 0 +
STACK CFI INIT 338c4 14 .cfa: sp 0 +
STACK CFI INIT 33b00 68 .cfa: sp 0 +
STACK CFI 33b04 .cfa: sp 32 +
STACK CFI 33b0c .cfa: x29 32 + x19: .cfa -8 + ^ x20: .cfa -16 + ^ .ra: .cfa -24 + ^ x29: .cfa -32 + ^
STACK CFI 33b24 .cfa: sp 32 +
STACK CFI 33b2c .cfa: sp 0 +
STACK CFI 33b30 .cfa: x29 32 +
STACK CFI 33b5c .cfa: sp 32 +
STACK CFI 33b64 .cfa: sp 0 +
STACK CFI INIT 33b68 4 .cfa: sp 0 +
STACK CFI INIT 33b6c 14 .cfa: sp 0 +
STACK CFI INIT 33b80 d4 .cfa: sp 0 +
STACK CFI 33b84 .cfa: sp 48 +
STACK CFI 33b90 .cfa: x29 48 + x19: .cfa -8 + ^ x20: .cfa -16 + ^ x21: .cfa -32 + ^ .ra: .cfa -40 + ^ x29: .cfa -48 + ^
STACK CFI 33c20 .cfa: sp 48 +
STACK CFI 33c2c .cfa: sp 0 +
STACK CFI 33c30 .cfa: x29 48 +
STACK CFI INIT 33c54 3c8 .cfa: sp 0 +
STACK CFI INIT 3401c 8c .cfa: sp 0 +
STACK CFI 34024 .cfa: sp 32 +
STACK CFI 3402c .cfa: x29 32 + x19: .cfa -8 + ^ x20: .cfa -16 + ^ .ra: .cfa -24 + ^ x29: .cfa -32 + ^
STACK CFI 34074 .cfa: sp 32 +
STACK CFI 3407c .cfa: sp 0 +
STACK CFI 34084 .cfa: x29 32 +
STACK CFI INIT 340a8 3c .cfa: sp 0 +
STACK CFI 340ac .cfa: sp 32 +
STACK CFI 340b4 .cfa: x29 32 + x19: .cfa -16 + ^ .ra: .cfa -24 + ^ x29: .cfa -32 + ^
STACK CFI 340cc .cfa: sp 32 +
STACK CFI 340d4 .cfa: sp 0 +
STACK CFI 340d8 .cfa: sp 32 +
STACK CFI 340e0 .cfa: sp 0 +
STACK CFI INIT 34558 3c .cfa: sp 0 +
STACK CFI 3455c .cfa: sp 16 +
STACK CFI 34560 .cfa: x29 16 + .ra: .cfa -8 + ^ x29: .cfa -16 + ^
STACK CFI 3458c .cfa: sp 16 +
STACK CFI 34590 .cfa: sp 0 +
STACK CFI INIT 34594 a4 .cfa: sp 0 +
STACK CFI 34598 .cfa: sp 48 +
STACK CFI 345a4 .cfa: x29 48 + x19: .cfa -8 + ^ x20: .cfa -16 + ^ x21: .cfa -24 + ^ x22: .cfa -32 + ^ .ra: .cfa -40 + ^ x29: .cfa -48 + ^
STACK CFI 34618 .cfa: sp 48 +
STACK CFI 34624 .cfa: sp 0 +
STACK CFI 34628 .cfa: sp 48 +
STACK CFI 34634 .cfa: sp 0 +
STACK CFI INIT 34638 e0 .cfa: sp 0 +
STACK CFI 3463c .cfa: sp 48 +
STACK CFI 34648 .cfa: x29 48 + x19: .cfa -8 + ^ x20: .cfa -16 + ^ x21: .cfa -32 + ^ .ra: .cfa -40 + ^ x29: .cfa -48 + ^
STACK CFI 34708 .cfa: sp 48 +
STACK CFI 34714 .cfa: sp 0 +
STACK CFI INIT 34718 3c .cfa: sp 0 +
STACK CFI 3471c .cfa: sp 32 +
STACK CFI 34724 .cfa: x29 32 + x19: .cfa -16 + ^ .ra: .cfa -24 + ^ x29: .cfa -32 + ^
STACK CFI 3473c .cfa: sp 32 +
STACK CFI 34744 .cfa: sp 0 +
STACK CFI 34748 .cfa: sp 32 +
STACK CFI 34750 .cfa: sp 0 +
STACK CFI INIT 34754 fc .cfa: sp 0 +
STACK CFI 34758 .cfa: sp 48 +
STACK CFI 34764 .cfa: x29 48 + x19: .cfa -8 + ^ x20: .cfa -16 + ^ x21: .cfa -24 + ^ x22: .cfa -32 + ^ .ra: .cfa -40 + ^ x29: .cfa -48 + ^
STACK CFI 34830 .cfa: sp 48 +
STACK CFI 3483c .cfa: sp 0 +
STACK CFI 34840 .cfa: sp 48 +
STACK CFI 3484c .cfa: sp 0 +
STACK CFI INIT 34850 6c .cfa: sp 0 +
STACK CFI 34854 .cfa: sp 32 +
STACK CFI 3485c .cfa: x29 32 + x19: .cfa -8 + ^ x20: .cfa -16 + ^ .ra: .cfa -24 + ^ x29: .cfa -32 + ^
STACK CFI 348a4 .cfa: sp 32 +
STACK CFI 348ac .cfa: sp 0 +
STACK CFI 348b0 .cfa: sp 32 +
STACK CFI 348b8 .cfa: sp 0 +
STACK CFI INIT 348bc 6c .cfa: sp 0 +
STACK CFI 348c0 .cfa: sp 32 +
STACK CFI 348c8 .cfa: x29 32 + x19: .cfa -8 + ^ x20: .cfa -16 + ^ .ra: .cfa -24 + ^ x29: .cfa -32 + ^
STACK CFI 34910 .cfa: sp 32 +
STACK CFI 34918 .cfa: sp 0 +
STACK CFI 3491c .cfa: sp 32 +
STACK CFI 34924 .cfa: sp 0 +
STACK CFI INIT 349d0 b0 .cfa: sp 0 +
STACK CFI 349d4 .cfa: sp 32 +
STACK CFI 349dc .cfa: x29 32 + x19: .cfa -16 + ^ .ra: .cfa -24 + ^ x29: .cfa -32 + ^
STACK CFI 34a74 .cfa: sp 32 +
STACK CFI 34a7c .cfa: sp 0 +
STACK CFI INIT 34a80 50 .cfa: sp 0 +
STACK CFI 34a84 .cfa: sp 32 +
STACK CFI 34a8c .cfa: x29 32 + x19: .cfa -16 + ^ .ra: .cfa -24 + ^ x29: .cfa -32 + ^
STACK CFI 34aa4 .cfa: sp 32 +
STACK CFI 34aac .cfa: sp 0 +
STACK CFI 34ab0 .cfa: x29 32 +
STACK CFI 34ac4 .cfa: sp 32 +
STACK CFI 34acc .cfa: sp 0 +
STACK CFI INIT 34ad0 64 .cfa: sp 0 +
STACK CFI 34ad4 .cfa: sp 32 +
STACK CFI 34adc .cfa: x29 32 + x19: .cfa -16 + ^ .ra: .cfa -24 + ^ x29: .cfa -32 + ^
STACK CFI 34b08 .cfa: sp 32 +
STACK CFI 34b10 .cfa: sp 0 +
STACK CFI 34b14 .cfa: x29 32 +
STACK CFI 34b28 .cfa: sp 32 +
STACK CFI 34b30 .cfa: sp 0 +
STACK CFI INIT 34b34 14 .cfa: sp 0 +
STACK CFI 34b38 .cfa: sp 16 +
STACK CFI 34b3c .cfa: x29 16 + .ra: .cfa -8 + ^ x29: .cfa -16 + ^
STACK CFI INIT 34b48 19c .cfa: sp 0 +
STACK CFI 34b4c .cfa: sp 64 +
STACK CFI 34b5c .cfa: x29 64 + x19: .cfa -8 + ^ x20: .cfa -16 + ^ x21: .cfa -24 + ^ x22: .cfa -32 + ^ x23: .cfa -48 + ^ .ra: .cfa -56 + ^ x29: .cfa -64 + ^
STACK CFI 34cbc .cfa: sp 64 +
STACK CFI 34ccc .cfa: sp 0 +
STACK CFI 34cd0 .cfa: sp 64 +
STACK CFI 34ce0 .cfa: sp 0 +
STACK CFI INIT 35238 4 .cfa: sp 0 +
STACK CFI INIT 3523c 14 .cfa: sp 0 +
STACK CFI 35240 .cfa: sp 16 +
STACK CFI 35244 .cfa: x29 16 + .ra: .cfa -8 + ^ x29: .cfa -16 + ^
STACK CFI INIT 3547c 14 .cfa: sp 0 +
STACK CFI 35480 .cfa: sp 16 +
STACK CFI 35484 .cfa: x29 16 + .ra: .cfa -8 + ^ x29: .cfa -16 + ^
STACK CFI INIT 35490 14 .cfa: sp 0 +
STACK CFI 35494 .cfa: sp 16 +
STACK CFI 35498 .cfa: x29 16 + .ra: .cfa -8 + ^ x29: .cfa -16 + ^
STACK CFI INIT 354f4 30 .cfa: sp 0 +
STACK CFI 354f8 .cfa: sp 32 +
STACK CFI 35500 .cfa: x29 32 + x19: .cfa -16 + ^ .ra: .cfa -24 + ^ x29: .cfa -32 + ^
STACK CFI 35518 .cfa: sp 32 +
STACK CFI 35520 .cfa: sp 0 +
STACK CFI INIT 35524 14 .cfa: sp 0 +
STACK CFI 35528 .cfa: sp 16 +
STACK CFI 3552c .cfa: x29 16 + .ra: .cfa -8 + ^ x29: .cfa -16 + ^
STACK CFI INIT 35538 4 .cfa: sp 0 +
STACK CFI INIT 3553c 4 .cfa: sp 0 +
STACK CFI INIT 35540 38 .cfa: sp 0 +
STACK CFI 35544 .cfa: sp 32 +
STACK CFI 3554c .cfa: x29 32 + x19: .cfa -16 + ^ .ra: .cfa -24 + ^ x29: .cfa -32 + ^
STACK CFI 3556c .cfa: sp 32 +
STACK CFI 35574 .cfa: sp 0 +
STACK CFI INIT 35578 18 .cfa: sp 0 +
STACK CFI INIT 35590 4 .cfa: sp 0 +
STACK CFI INIT 35594 4 .cfa: sp 0 +
STACK CFI INIT 35598 10 .cfa: sp 0 +
STACK CFI INIT 355a8 1c .cfa: sp 0 +
STACK CFI INIT 355c4 c .cfa: sp 0 +
STACK CFI INIT 355d0 178 .cfa: sp 0 +
STACK CFI 355d4 .cfa: sp 80 +
STACK CFI 355e8 .cfa: x29 80 + x19: .cfa -8 + ^ x20: .cfa -16 + ^ x21: .cfa -24 + ^ x22: .cfa -32 + ^ x23: .cfa -40 + ^ x24: .cfa -48 + ^ x25: .cfa -56 + ^ x26: .cfa -64 + ^ .ra: .cfa -72 + ^ x29: .cfa -80 + ^
STACK CFI 35730 .cfa: sp 80 +
STACK CFI 35744 .cfa: sp 0 +
STACK CFI INIT 35ae0 74 .cfa: sp 0 +
STACK CFI 35ae4 .cfa: sp 48 +
STACK CFI 35af0 .cfa: x29 48 + x19: .cfa -8 + ^ x20: .cfa -16 + ^ x21: .cfa -32 + ^ .ra: .cfa -40 + ^ x29: .cfa -48 + ^
STACK CFI 35b34 .cfa: sp 48 +
STACK CFI 35b40 .cfa: sp 0 +
STACK CFI 35b44 .cfa: sp 48 +
STACK CFI 35b50 .cfa: sp 0 +
STACK CFI INIT 35b54 60 .cfa: sp 0 +
STACK CFI 35b58 .cfa: sp 32 +
STACK CFI 35b60 .cfa: x29 32 + x19: .cfa -8 + ^ x20: .cfa -16 + ^ .ra: .cfa -24 + ^ x29: .cfa -32 + ^
STACK CFI 35b9c .cfa: sp 32 +
STACK CFI 35ba4 .cfa: sp 0 +
STACK CFI 35ba8 .cfa: sp 32 +
STACK CFI 35bb0 .cfa: sp 0 +
STACK CFI INIT 35c60 200 .cfa: sp 0 +
STACK CFI INIT 36684 1c .cfa: sp 0 +
STACK CFI INIT 36a20 4 .cfa: sp 0 +
STACK CFI INIT 36b58 50 .cfa: sp 0 +
STACK CFI 36b5c .cfa: sp 32 +
STACK CFI 36b64 .cfa: x29 32 + x19: .cfa -16 + ^ .ra: .cfa -24 + ^ x29: .cfa -32 + ^
STACK CFI 36b7c .cfa: sp 32 +
STACK CFI 36b84 .cfa: sp 0 +
STACK CFI 36b88 .cfa: x29 32 +
STACK CFI 36b9c .cfa: sp 32 +
STACK CFI 36ba4 .cfa: sp 0 +
STACK CFI INIT 36ba8 50 .cfa: sp 0 +
STACK CFI 36bac .cfa: sp 32 +
STACK CFI 36bb4 .cfa: x29 32 + x19: .cfa -16 + ^ .ra: .cfa -24 + ^ x29: .cfa -32 + ^
STACK CFI 36bcc .cfa: sp 32 +
STACK CFI 36bd4 .cfa: sp 0 +
STACK CFI 36bd8 .cfa: x29 32 +
STACK CFI 36bec .cfa: sp 32 +
STACK CFI 36bf4 .cfa: sp 0 +
STACK CFI INIT 36cec 50 .cfa: sp 0 +
STACK CFI 36cf0 .cfa: sp 32 +
STACK CFI 36cf8 .cfa: x29 32 + x19: .cfa -16 + ^ .ra: .cfa -24 + ^ x29: .cfa -32 + ^
STACK CFI 36d10 .cfa: sp 32 +
STACK CFI 36d18 .cfa: sp 0 +
STACK CFI 36d1c .cfa: x29 32 +
STACK CFI 36d30 .cfa: sp 32 +
STACK CFI 36d38 .cfa: sp 0 +
STACK CFI INIT 36d3c 4 .cfa: sp 0 +
STACK CFI INIT 36d40 4 .cfa: sp 0 +
STACK CFI INIT 36d44 34 .cfa: sp 0 +
STACK CFI 36d48 .cfa: sp 32 +
STACK CFI 36d50 .cfa: x29 32 + x19: .cfa -16 + ^ .ra: .cfa -24 + ^ x29: .cfa -32 + ^
STACK CFI 36d6c .cfa: sp 32 +
STACK CFI 36d74 .cfa: sp 0 +
STACK CFI INIT 36d78 14 .cfa: sp 0 +
STACK CFI INIT 36d8c 4 .cfa: sp 0 +
STACK CFI INIT 36d90 4 .cfa: sp 0 +
STACK CFI INIT 36fdc 1c .cfa: sp 0 +
STACK CFI INIT 36ff8 c .cfa: sp 0 +
STACK CFI INIT 37078 4 .cfa: sp 0 +
STACK CFI INIT 371f0 9c .cfa: sp 0 +
STACK CFI 371f4 .cfa: sp 32 +
STACK CFI 371fc .cfa: x29 32 + x19: .cfa -8 + ^ x20: .cfa -16 + ^ .ra: .cfa -24 + ^ x29: .cfa -32 + ^
STACK CFI 37280 .cfa: sp 32 +
STACK CFI 37288 .cfa: sp 0 +
STACK CFI INIT 3728c a4 .cfa: sp 0 +
STACK CFI 37290 .cfa: sp 32 +
STACK CFI 37298 .cfa: x29 32 + x19: .cfa -8 + ^ x20: .cfa -16 + ^ .ra: .cfa -24 + ^ x29: .cfa -32 + ^
STACK CFI 37324 .cfa: sp 32 +
STACK CFI 3732c .cfa: sp 0 +
STACK CFI INIT 37330 1f0 .cfa: sp 0 +
STACK CFI 37334 .cfa: sp 64 +
STACK CFI 37344 .cfa: x29 64 + x19: .cfa -8 + ^ x20: .cfa -16 + ^ x21: .cfa -24 + ^ x22: .cfa -32 + ^ x23: .cfa -40 + ^ x24: .cfa -48 + ^ .ra: .cfa -56 + ^ x29: .cfa -64 + ^
STACK CFI 374b4 .cfa: sp 64 +
STACK CFI 374c4 .cfa: sp 0 +
STACK CFI 374c8 .cfa: x29 64 +
STACK CFI 3750c .cfa: sp 64 +
STACK CFI 3751c .cfa: sp 0 +
STACK CFI INIT 37ddc 1c .cfa: sp 0 +
STACK CFI INIT 381a8 4 .cfa: sp 0 +
STACK CFI INIT 382bc 4 .cfa: sp 0 +
STACK CFI INIT 382c0 38 .cfa: sp 0 +
STACK CFI 382c4 .cfa: sp 32 +
STACK CFI 382cc .cfa: x29 32 + x19: .cfa -16 + ^ .ra: .cfa -24 + ^ x29: .cfa -32 + ^
STACK CFI 382ec .cfa: sp 32 +
STACK CFI 382f4 .cfa: sp 0 +
STACK CFI INIT 382f8 18 .cfa: sp 0 +
STACK CFI INIT 38310 4 .cfa: sp 0 +
STACK CFI INIT 38314 4 .cfa: sp 0 +
STACK CFI INIT 38318 8 .cfa: sp 0 +
STACK CFI INIT 38320 1c .cfa: sp 0 +
STACK CFI INIT 3833c c .cfa: sp 0 +
STACK CFI INIT 396ec 1c .cfa: sp 0 +
STACK CFI INIT 39a90 4 .cfa: sp 0 +
STACK CFI INIT 39ba4 4 .cfa: sp 0 +
STACK CFI INIT 39ba8 38 .cfa: sp 0 +
STACK CFI 39bac .cfa: sp 32 +
STACK CFI 39bb4 .cfa: x29 32 + x19: .cfa -16 + ^ .ra: .cfa -24 + ^ x29: .cfa -32 + ^
STACK CFI 39bd4 .cfa: sp 32 +
STACK CFI 39bdc .cfa: sp 0 +
STACK CFI INIT 39be0 18 .cfa: sp 0 +
STACK CFI INIT 39bf8 4 .cfa: sp 0 +
STACK CFI INIT 39bfc 4 .cfa: sp 0 +
STACK CFI INIT 39c00 8 .cfa: sp 0 +
STACK CFI INIT 39c08 1c .cfa: sp 0 +
STACK CFI INIT 39c24 c .cfa: sp 0 +
STACK CFI INIT 3a4e0 1c .cfa: sp 0 +
STACK CFI INIT 3ab34 4 .cfa: sp 0 +
STACK CFI INIT 3ad28 50 .cfa: sp 0 +
STACK CFI 3ad2c .cfa: sp 32 +
STACK CFI 3ad34 .cfa: x29 32 + x19: .cfa -16 + ^ .ra: .cfa -24 + ^ x29: .cfa -32 + ^
STACK CFI 3ad6c .cfa: sp 32 +
STACK CFI 3ad74 .cfa: sp 0 +
STACK CFI INIT 3af04 1c .cfa: sp 0 +
STACK CFI 3af08 .cfa: sp 16 +
STACK CFI 3af0c .cfa: x29 16 + .ra: .cfa -8 + ^ x29: .cfa -16 + ^
STACK CFI 3af18 .cfa: sp 16 +
STACK CFI 3af1c .cfa: sp 0 +
STACK CFI INIT 3af20 4 .cfa: sp 0 +
STACK CFI INIT 3b3a4 1c .cfa: sp 0 +
STACK CFI INIT 3b6c8 4 .cfa: sp 0 +
STACK CFI INIT 3c188 9c .cfa: sp 0 +
STACK CFI INIT 3c224 58 .cfa: sp 0 +
STACK CFI 3c228 .cfa: sp 32 +
STACK CFI 3c230 .cfa: x29 32 + x19: .cfa -16 + ^ .ra: .cfa -24 + ^ x29: .cfa -32 + ^
STACK CFI 3c250 .cfa: sp 32 +
STACK CFI 3c258 .cfa: sp 0 +
STACK CFI 3c25c .cfa: x29 32 +
STACK CFI 3c270 .cfa: sp 32 +
STACK CFI 3c278 .cfa: sp 0 +
STACK CFI INIT 3c27c 50 .cfa: sp 0 +
STACK CFI 3c280 .cfa: sp 32 +
STACK CFI 3c288 .cfa: x29 32 + x19: .cfa -16 + ^ .ra: .cfa -24 + ^ x29: .cfa -32 + ^
STACK CFI 3c2a0 .cfa: sp 32 +
STACK CFI 3c2a8 .cfa: sp 0 +
STACK CFI 3c2ac .cfa: x29 32 +
STACK CFI 3c2c0 .cfa: sp 32 +
STACK CFI 3c2c8 .cfa: sp 0 +
STACK CFI INIT 3c2cc 50 .cfa: sp 0 +
STACK CFI 3c2d0 .cfa: sp 32 +
STACK CFI 3c2d8 .cfa: x29 32 + x19: .cfa -16 + ^ .ra: .cfa -24 + ^ x29: .cfa -32 + ^
STACK CFI 3c2f0 .cfa: sp 32 +
STACK CFI 3c2f8 .cfa: sp 0 +
STACK CFI 3c2fc .cfa: x29 32 +
STACK CFI 3c310 .cfa: sp 32 +
STACK CFI 3c318 .cfa: sp 0 +
STACK CFI INIT 3d8a0 50 .cfa: sp 0 +
STACK CFI 3d8a4 .cfa: sp 32 +
STACK CFI 3d8ac .cfa: x29 32 + x19: .cfa -16 + ^ .ra: .cfa -24 + ^ x29: .cfa -32 + ^
STACK CFI 3d8c4 .cfa: sp 32 +
STACK CFI 3d8cc .cfa: sp 0 +
STACK CFI 3d8d0 .cfa: x29 32 +
STACK CFI 3d8e4 .cfa: sp 32 +
STACK CFI 3d8ec .cfa: sp 0 +
STACK CFI INIT 3d8f0 10 .cfa: sp 0 +
STACK CFI INIT 3d900 30 .cfa: sp 0 +
STACK CFI 3d904 .cfa: sp 32 +
STACK CFI 3d90c .cfa: x29 32 + x19: .cfa -16 + ^ .ra: .cfa -24 + ^ x29: .cfa -32 + ^
STACK CFI 3d924 .cfa: sp 32 +
STACK CFI 3d92c .cfa: sp 0 +
STACK CFI INIT 3da14 4 .cfa: sp 0 +
STACK CFI INIT 3da18 58 .cfa: sp 0 +
STACK CFI 3da1c .cfa: sp 32 +
STACK CFI 3da24 .cfa: x29 32 + x19: .cfa -16 + ^ .ra: .cfa -24 + ^ x29: .cfa -32 + ^
STACK CFI 3da44 .cfa: sp 32 +
STACK CFI 3da4c .cfa: sp 0 +
STACK CFI 3da50 .cfa: x29 32 +
STACK CFI 3da64 .cfa: sp 32 +
STACK CFI 3da6c .cfa: sp 0 +
STACK CFI INIT 3da70 50 .cfa: sp 0 +
STACK CFI 3da74 .cfa: sp 32 +
STACK CFI 3da7c .cfa: x29 32 + x19: .cfa -16 + ^ .ra: .cfa -24 + ^ x29: .cfa -32 + ^
STACK CFI 3da94 .cfa: sp 32 +
STACK CFI 3da9c .cfa: sp 0 +
STACK CFI 3daa0 .cfa: x29 32 +
STACK CFI 3dab4 .cfa: sp 32 +
STACK CFI 3dabc .cfa: sp 0 +
STACK CFI INIT 3dac0 5c .cfa: sp 0 +
STACK CFI 3dac4 .cfa: sp 32 +
STACK CFI 3dacc .cfa: x29 32 + x19: .cfa -16 + ^ .ra: .cfa -24 + ^ x29: .cfa -32 + ^
STACK CFI 3daf0 .cfa: sp 32 +
STACK CFI 3daf8 .cfa: sp 0 +
STACK CFI 3dafc .cfa: x29 32 +
STACK CFI 3db10 .cfa: sp 32 +
STACK CFI 3db18 .cfa: sp 0 +
STACK CFI INIT 3db1c 6c .cfa: sp 0 +
STACK CFI 3db20 .cfa: sp 32 +
STACK CFI 3db28 .cfa: x29 32 + x19: .cfa -8 + ^ x20: .cfa -16 + ^ .ra: .cfa -24 + ^ x29: .cfa -32 + ^
STACK CFI 3db54 .cfa: sp 32 +
STACK CFI 3db5c .cfa: sp 0 +
STACK CFI 3db60 .cfa: x29 32 +
STACK CFI 3db7c .cfa: sp 32 +
STACK CFI 3db84 .cfa: sp 0 +
STACK CFI INIT 3db88 50 .cfa: sp 0 +
STACK CFI 3db8c .cfa: sp 32 +
STACK CFI 3db94 .cfa: x29 32 + x19: .cfa -16 + ^ .ra: .cfa -24 + ^ x29: .cfa -32 + ^
STACK CFI 3dbcc .cfa: sp 32 +
STACK CFI 3dbd4 .cfa: sp 0 +
STACK CFI INIT 3dbd8 34 .cfa: sp 0 +
STACK CFI 3dbf4 .cfa: sp 16 +
STACK CFI 3dbf8 .cfa: x29 16 + .ra: .cfa -8 + ^ x29: .cfa -16 + ^
STACK CFI 3dc04 .cfa: sp 16 +
STACK CFI 3dc08 .cfa: sp 0 +
STACK CFI INIT 3dc0c 50 .cfa: sp 0 +
STACK CFI 3dc10 .cfa: sp 32 +
STACK CFI 3dc18 .cfa: x29 32 + x19: .cfa -16 + ^ .ra: .cfa -24 + ^ x29: .cfa -32 + ^
STACK CFI 3dc30 .cfa: sp 32 +
STACK CFI 3dc38 .cfa: sp 0 +
STACK CFI 3dc3c .cfa: x29 32 +
STACK CFI 3dc50 .cfa: sp 32 +
STACK CFI 3dc58 .cfa: sp 0 +
STACK CFI INIT 3dc5c 60 .cfa: sp 0 +
STACK CFI 3dc60 .cfa: sp 32 +
STACK CFI 3dc68 .cfa: x29 32 + x19: .cfa -8 + ^ x20: .cfa -16 + ^ .ra: .cfa -24 + ^ x29: .cfa -32 + ^
STACK CFI 3dc88 .cfa: sp 32 +
STACK CFI 3dc90 .cfa: sp 0 +
STACK CFI 3dc94 .cfa: x29 32 +
STACK CFI 3dcb0 .cfa: sp 32 +
STACK CFI 3dcb8 .cfa: sp 0 +
STACK CFI INIT 3de78 1c .cfa: sp 0 +
STACK CFI INIT 3de94 c .cfa: sp 0 +
STACK CFI INIT 3dea0 60 .cfa: sp 0 +
STACK CFI 3dea4 .cfa: sp 32 +
STACK CFI 3deac .cfa: x29 32 + x19: .cfa -8 + ^ x20: .cfa -16 + ^ .ra: .cfa -24 + ^ x29: .cfa -32 + ^
STACK CFI 3decc .cfa: sp 32 +
STACK CFI 3ded4 .cfa: sp 0 +
STACK CFI 3ded8 .cfa: x29 32 +
STACK CFI 3def4 .cfa: sp 32 +
STACK CFI 3defc .cfa: sp 0 +
STACK CFI INIT 3df00 70 .cfa: sp 0 +
STACK CFI 3df04 .cfa: sp 32 +
STACK CFI 3df0c .cfa: x29 32 + x19: .cfa -8 + ^ x20: .cfa -16 + ^ .ra: .cfa -24 + ^ x29: .cfa -32 + ^
STACK CFI 3df34 .cfa: sp 32 +
STACK CFI 3df3c .cfa: sp 0 +
STACK CFI 3df40 .cfa: x29 32 +
STACK CFI 3df64 .cfa: sp 32 +
STACK CFI 3df6c .cfa: sp 0 +
STACK CFI INIT 3df70 50 .cfa: sp 0 +
STACK CFI 3df74 .cfa: sp 32 +
STACK CFI 3df7c .cfa: x29 32 + x19: .cfa -16 + ^ .ra: .cfa -24 + ^ x29: .cfa -32 + ^
STACK CFI 3df94 .cfa: sp 32 +
STACK CFI 3df9c .cfa: sp 0 +
STACK CFI 3dfa0 .cfa: x29 32 +
STACK CFI 3dfb4 .cfa: sp 32 +
STACK CFI 3dfbc .cfa: sp 0 +
STACK CFI INIT 3dfc0 5c .cfa: sp 0 +
STACK CFI 3dfc4 .cfa: sp 32 +
STACK CFI 3dfcc .cfa: x29 32 + x19: .cfa -16 + ^ .ra: .cfa -24 + ^ x29: .cfa -32 + ^
STACK CFI 3dff0 .cfa: sp 32 +
STACK CFI 3dff8 .cfa: sp 0 +
STACK CFI 3dffc .cfa: x29 32 +
STACK CFI 3e010 .cfa: sp 32 +
STACK CFI 3e018 .cfa: sp 0 +
STACK CFI INIT 3e01c 6c .cfa: sp 0 +
STACK CFI 3e020 .cfa: sp 32 +
STACK CFI 3e028 .cfa: x29 32 + x19: .cfa -8 + ^ x20: .cfa -16 + ^ .ra: .cfa -24 + ^ x29: .cfa -32 + ^
STACK CFI 3e054 .cfa: sp 32 +
STACK CFI 3e05c .cfa: sp 0 +
STACK CFI 3e060 .cfa: x29 32 +
STACK CFI 3e07c .cfa: sp 32 +
STACK CFI 3e084 .cfa: sp 0 +
STACK CFI INIT 3e088 58 .cfa: sp 0 +
STACK CFI 3e08c .cfa: sp 32 +
STACK CFI 3e094 .cfa: x29 32 + x19: .cfa -8 + ^ x20: .cfa -16 + ^ .ra: .cfa -24 + ^ x29: .cfa -32 + ^
STACK CFI 3e0d4 .cfa: sp 32 +
STACK CFI 3e0dc .cfa: sp 0 +
STACK CFI INIT 3e0e0 4c .cfa: sp 0 +
STACK CFI 3e0e4 .cfa: sp 32 +
STACK CFI 3e0ec .cfa: x29 32 + x19: .cfa -8 + ^ x20: .cfa -16 + ^ .ra: .cfa -24 + ^ x29: .cfa -32 + ^
STACK CFI 3e120 .cfa: sp 32 +
STACK CFI 3e128 .cfa: sp 0 +
STACK CFI INIT 3e12c 50 .cfa: sp 0 +
STACK CFI 3e130 .cfa: sp 32 +
STACK CFI 3e138 .cfa: x29 32 + x19: .cfa -16 + ^ .ra: .cfa -24 + ^ x29: .cfa -32 + ^
STACK CFI 3e150 .cfa: sp 32 +
STACK CFI 3e158 .cfa: sp 0 +
STACK CFI 3e15c .cfa: x29 32 +
STACK CFI 3e170 .cfa: sp 32 +
STACK CFI 3e178 .cfa: sp 0 +
STACK CFI INIT 3e17c 60 .cfa: sp 0 +
STACK CFI 3e180 .cfa: sp 32 +
STACK CFI 3e188 .cfa: x29 32 + x19: .cfa -8 + ^ x20: .cfa -16 + ^ .ra: .cfa -24 + ^ x29: .cfa -32 + ^
STACK CFI 3e1a8 .cfa: sp 32 +
STACK CFI 3e1b0 .cfa: sp 0 +
STACK CFI 3e1b4 .cfa: x29 32 +
STACK CFI 3e1d0 .cfa: sp 32 +
STACK CFI 3e1d8 .cfa: sp 0 +
STACK CFI INIT 3e3a8 1c .cfa: sp 0 +
STACK CFI INIT 3e3c4 c .cfa: sp 0 +
STACK CFI INIT 3e3d0 14 .cfa: sp 0 +
STACK CFI INIT 3e3e4 14 .cfa: sp 0 +
STACK CFI INIT 3e3f8 14 .cfa: sp 0 +
STACK CFI 3e3fc .cfa: sp 16 +
STACK CFI 3e400 .cfa: x29 16 + .ra: .cfa -8 + ^ x29: .cfa -16 + ^
STACK CFI INIT 3e40c 4 .cfa: sp 0 +
STACK CFI INIT 3e410 14 .cfa: sp 0 +
STACK CFI INIT 3e424 4 .cfa: sp 0 +
STACK CFI INIT 3e428 14 .cfa: sp 0 +
STACK CFI INIT 3e43c 14 .cfa: sp 0 +
STACK CFI 3e440 .cfa: sp 16 +
STACK CFI 3e444 .cfa: x29 16 + .ra: .cfa -8 + ^ x29: .cfa -16 + ^
STACK CFI INIT 3e450 20 .cfa: sp 0 +
STACK CFI INIT 3e470 3c .cfa: sp 0 +
STACK CFI 3e488 .cfa: sp 32 +
STACK CFI 3e490 .cfa: x29 32 + x19: .cfa -16 + ^ .ra: .cfa -24 + ^ x29: .cfa -32 + ^
STACK CFI 3e4a0 .cfa: sp 32 +
STACK CFI 3e4a8 .cfa: sp 0 +
STACK CFI INIT 3e4ac 60 .cfa: sp 0 +
STACK CFI 3e4b0 .cfa: sp 32 +
STACK CFI 3e4b8 .cfa: x29 32 + x19: .cfa -8 + ^ x20: .cfa -16 + ^ .ra: .cfa -24 + ^ x29: .cfa -32 + ^
STACK CFI 3e500 .cfa: sp 32 +
STACK CFI 3e508 .cfa: sp 0 +
STACK CFI INIT 3e50c 54 .cfa: sp 0 +
STACK CFI 3e510 .cfa: sp 32 +
STACK CFI 3e518 .cfa: x29 32 + x19: .cfa -8 + ^ x20: .cfa -16 + ^ .ra: .cfa -24 + ^ x29: .cfa -32 + ^
STACK CFI 3e554 .cfa: sp 32 +
STACK CFI 3e55c .cfa: sp 0 +
STACK CFI INIT 3e560 10 .cfa: sp 0 +
STACK CFI INIT 3e570 30 .cfa: sp 0 +
STACK CFI 3e57c .cfa: sp 32 +
STACK CFI 3e584 .cfa: x29 32 + x19: .cfa -16 + ^ .ra: .cfa -24 + ^ x29: .cfa -32 + ^
STACK CFI 3e594 .cfa: sp 32 +
STACK CFI 3e59c .cfa: sp 0 +
STACK CFI INIT 3e8bc 1c .cfa: sp 0 +
STACK CFI INIT 3e8d8 c .cfa: sp 0 +
STACK CFI INIT 3e8e4 50 .cfa: sp 0 +
STACK CFI 3e8e8 .cfa: sp 32 +
STACK CFI 3e8f0 .cfa: x29 32 + x19: .cfa -16 + ^ .ra: .cfa -24 + ^ x29: .cfa -32 + ^
STACK CFI 3e908 .cfa: sp 32 +
STACK CFI 3e910 .cfa: sp 0 +
STACK CFI 3e914 .cfa: x29 32 +
STACK CFI 3e928 .cfa: sp 32 +
STACK CFI 3e930 .cfa: sp 0 +
STACK CFI INIT 3e934 90 .cfa: sp 0 +
STACK CFI 3e938 .cfa: sp 32 +
STACK CFI 3e940 .cfa: x29 32 + x19: .cfa -8 + ^ x20: .cfa -16 + ^ .ra: .cfa -24 + ^ x29: .cfa -32 + ^
STACK CFI 3e974 .cfa: sp 32 +
STACK CFI 3e97c .cfa: sp 0 +
STACK CFI 3e980 .cfa: x29 32 +
STACK CFI 3e9b8 .cfa: sp 32 +
STACK CFI 3e9c0 .cfa: sp 0 +
STACK CFI INIT 3e9c4 9c .cfa: sp 0 +
STACK CFI 3e9c8 .cfa: sp 32 +
STACK CFI 3e9d0 .cfa: x29 32 + x19: .cfa -8 + ^ x20: .cfa -16 + ^ .ra: .cfa -24 + ^ x29: .cfa -32 + ^
STACK CFI 3ea10 .cfa: sp 32 +
STACK CFI 3ea18 .cfa: sp 0 +
STACK CFI 3ea1c .cfa: x29 32 +
STACK CFI 3ea54 .cfa: sp 32 +
STACK CFI 3ea5c .cfa: sp 0 +
STACK CFI INIT 3ea60 9c .cfa: sp 0 +
STACK CFI 3ea64 .cfa: sp 32 +
STACK CFI 3ea6c .cfa: x29 32 + x19: .cfa -8 + ^ x20: .cfa -16 + ^ .ra: .cfa -24 + ^ x29: .cfa -32 + ^
STACK CFI 3eac8 .cfa: sp 32 +
STACK CFI 3ead0 .cfa: sp 0 +
STACK CFI 3ead4 .cfa: x29 32 +
STACK CFI 3eaf0 .cfa: sp 32 +
STACK CFI 3eaf8 .cfa: sp 0 +
STACK CFI INIT 3eafc 68 .cfa: sp 0 +
STACK CFI 3eb00 .cfa: sp 32 +
STACK CFI 3eb08 .cfa: x29 32 + x19: .cfa -8 + ^ x20: .cfa -16 + ^ .ra: .cfa -24 + ^ x29: .cfa -32 + ^
STACK CFI 3eb58 .cfa: sp 32 +
STACK CFI 3eb60 .cfa: sp 0 +
STACK CFI INIT 3eb64 5c .cfa: sp 0 +
STACK CFI 3eb68 .cfa: sp 32 +
STACK CFI 3eb70 .cfa: x29 32 + x19: .cfa -8 + ^ x20: .cfa -16 + ^ .ra: .cfa -24 + ^ x29: .cfa -32 + ^
STACK CFI 3ebb4 .cfa: sp 32 +
STACK CFI 3ebbc .cfa: sp 0 +
STACK CFI INIT 3ebc0 90 .cfa: sp 0 +
STACK CFI 3ebc4 .cfa: sp 32 +
STACK CFI 3ebcc .cfa: x29 32 + x19: .cfa -8 + ^ x20: .cfa -16 + ^ .ra: .cfa -24 + ^ x29: .cfa -32 + ^
STACK CFI 3ec00 .cfa: sp 32 +
STACK CFI 3ec08 .cfa: sp 0 +
STACK CFI 3ec0c .cfa: x29 32 +
STACK CFI 3ec44 .cfa: sp 32 +
STACK CFI 3ec4c .cfa: sp 0 +
STACK CFI INIT 3ec50 90 .cfa: sp 0 +
STACK CFI 3ec54 .cfa: sp 32 +
STACK CFI 3ec5c .cfa: x29 32 + x19: .cfa -8 + ^ x20: .cfa -16 + ^ .ra: .cfa -24 + ^ x29: .cfa -32 + ^
STACK CFI 3ecac .cfa: sp 32 +
STACK CFI 3ecb4 .cfa: sp 0 +
STACK CFI 3ecb8 .cfa: x29 32 +
STACK CFI 3ecd4 .cfa: sp 32 +
STACK CFI 3ecdc .cfa: sp 0 +
STACK CFI INIT 3ee94 1c .cfa: sp 0 +
STACK CFI INIT 3eeb0 c .cfa: sp 0 +
STACK CFI INIT 3eebc 4 .cfa: sp 0 +
STACK CFI INIT 3f08c 9c .cfa: sp 0 +
STACK CFI 3f090 .cfa: sp 32 +
STACK CFI 3f098 .cfa: x29 32 + x19: .cfa -8 + ^ x20: .cfa -16 + ^ .ra: .cfa -24 + ^ x29: .cfa -32 + ^
STACK CFI 3f11c .cfa: sp 32 +
STACK CFI 3f124 .cfa: sp 0 +
STACK CFI INIT 3f128 a4 .cfa: sp 0 +
STACK CFI 3f12c .cfa: sp 32 +
STACK CFI 3f134 .cfa: x29 32 + x19: .cfa -8 + ^ x20: .cfa -16 + ^ .ra: .cfa -24 + ^ x29: .cfa -32 + ^
STACK CFI 3f1c0 .cfa: sp 32 +
STACK CFI 3f1c8 .cfa: sp 0 +
STACK CFI INIT 3f1cc 50 .cfa: sp 0 +
STACK CFI 3f1d0 .cfa: sp 32 +
STACK CFI 3f1d8 .cfa: x29 32 + x19: .cfa -16 + ^ .ra: .cfa -24 + ^ x29: .cfa -32 + ^
STACK CFI 3f1f0 .cfa: sp 32 +
STACK CFI 3f1f8 .cfa: sp 0 +
STACK CFI 3f1fc .cfa: x29 32 +
STACK CFI 3f210 .cfa: sp 32 +
STACK CFI 3f218 .cfa: sp 0 +
STACK CFI INIT 3f21c 5c .cfa: sp 0 +
STACK CFI 3f220 .cfa: sp 32 +
STACK CFI 3f228 .cfa: x29 32 + x19: .cfa -16 + ^ .ra: .cfa -24 + ^ x29: .cfa -32 + ^
STACK CFI 3f24c .cfa: sp 32 +
STACK CFI 3f254 .cfa: sp 0 +
STACK CFI 3f258 .cfa: x29 32 +
STACK CFI 3f26c .cfa: sp 32 +
STACK CFI 3f274 .cfa: sp 0 +
STACK CFI INIT 3f278 6c .cfa: sp 0 +
STACK CFI 3f27c .cfa: sp 32 +
STACK CFI 3f284 .cfa: x29 32 + x19: .cfa -8 + ^ x20: .cfa -16 + ^ .ra: .cfa -24 + ^ x29: .cfa -32 + ^
STACK CFI 3f2b0 .cfa: sp 32 +
STACK CFI 3f2b8 .cfa: sp 0 +
STACK CFI 3f2bc .cfa: x29 32 +
STACK CFI 3f2d8 .cfa: sp 32 +
STACK CFI 3f2e0 .cfa: sp 0 +
STACK CFI INIT 3f2e4 58 .cfa: sp 0 +
STACK CFI 3f2e8 .cfa: sp 32 +
STACK CFI 3f2f0 .cfa: x29 32 + x19: .cfa -8 + ^ x20: .cfa -16 + ^ .ra: .cfa -24 + ^ x29: .cfa -32 + ^
STACK CFI 3f330 .cfa: sp 32 +
STACK CFI 3f338 .cfa: sp 0 +
STACK CFI INIT 3f33c 4c .cfa: sp 0 +
STACK CFI 3f340 .cfa: sp 32 +
STACK CFI 3f348 .cfa: x29 32 + x19: .cfa -8 + ^ x20: .cfa -16 + ^ .ra: .cfa -24 + ^ x29: .cfa -32 + ^
STACK CFI 3f37c .cfa: sp 32 +
STACK CFI 3f384 .cfa: sp 0 +
STACK CFI INIT 3f388 50 .cfa: sp 0 +
STACK CFI 3f38c .cfa: sp 32 +
STACK CFI 3f394 .cfa: x29 32 + x19: .cfa -16 + ^ .ra: .cfa -24 + ^ x29: .cfa -32 + ^
STACK CFI 3f3ac .cfa: sp 32 +
STACK CFI 3f3b4 .cfa: sp 0 +
STACK CFI 3f3b8 .cfa: x29 32 +
STACK CFI 3f3cc .cfa: sp 32 +
STACK CFI 3f3d4 .cfa: sp 0 +
STACK CFI INIT 3f3d8 60 .cfa: sp 0 +
STACK CFI 3f3dc .cfa: sp 32 +
STACK CFI 3f3e4 .cfa: x29 32 + x19: .cfa -8 + ^ x20: .cfa -16 + ^ .ra: .cfa -24 + ^ x29: .cfa -32 + ^
STACK CFI 3f404 .cfa: sp 32 +
STACK CFI 3f40c .cfa: sp 0 +
STACK CFI 3f410 .cfa: x29 32 +
STACK CFI 3f42c .cfa: sp 32 +
STACK CFI 3f434 .cfa: sp 0 +
STACK CFI INIT 3f608 1c .cfa: sp 0 +
STACK CFI INIT 3f624 c .cfa: sp 0 +
STACK CFI INIT 3f630 5c .cfa: sp 0 +
STACK CFI 3f634 .cfa: sp 32 +
STACK CFI 3f63c .cfa: x29 32 + x19: .cfa -16 + ^ .ra: .cfa -24 + ^ x29: .cfa -32 + ^
STACK CFI 3f660 .cfa: sp 32 +
STACK CFI 3f668 .cfa: sp 0 +
STACK CFI 3f66c .cfa: x29 32 +
STACK CFI 3f680 .cfa: sp 32 +
STACK CFI 3f688 .cfa: sp 0 +
STACK CFI INIT 3f68c 6c .cfa: sp 0 +
STACK CFI 3f690 .cfa: sp 32 +
STACK CFI 3f698 .cfa: x29 32 + x19: .cfa -8 + ^ x20: .cfa -16 + ^ .ra: .cfa -24 + ^ x29: .cfa -32 + ^
STACK CFI 3f6c4 .cfa: sp 32 +
STACK CFI 3f6cc .cfa: sp 0 +
STACK CFI 3f6d0 .cfa: x29 32 +
STACK CFI 3f6ec .cfa: sp 32 +
STACK CFI 3f6f4 .cfa: sp 0 +
STACK CFI INIT 3f6f8 58 .cfa: sp 0 +
STACK CFI 3f6fc .cfa: sp 32 +
STACK CFI 3f704 .cfa: x29 32 + x19: .cfa -8 + ^ x20: .cfa -16 + ^ .ra: .cfa -24 + ^ x29: .cfa -32 + ^
STACK CFI 3f744 .cfa: sp 32 +
STACK CFI 3f74c .cfa: sp 0 +
STACK CFI INIT 3f750 4c .cfa: sp 0 +
STACK CFI 3f754 .cfa: sp 32 +
STACK CFI 3f75c .cfa: x29 32 + x19: .cfa -8 + ^ x20: .cfa -16 + ^ .ra: .cfa -24 + ^ x29: .cfa -32 + ^
STACK CFI 3f790 .cfa: sp 32 +
STACK CFI 3f798 .cfa: sp 0 +
STACK CFI INIT 3f79c 50 .cfa: sp 0 +
STACK CFI 3f7a0 .cfa: sp 32 +
STACK CFI 3f7a8 .cfa: x29 32 + x19: .cfa -16 + ^ .ra: .cfa -24 + ^ x29: .cfa -32 + ^
STACK CFI 3f7c0 .cfa: sp 32 +
STACK CFI 3f7c8 .cfa: sp 0 +
STACK CFI 3f7cc .cfa: x29 32 +
STACK CFI 3f7e0 .cfa: sp 32 +
STACK CFI 3f7e8 .cfa: sp 0 +
STACK CFI INIT 3f7ec 60 .cfa: sp 0 +
STACK CFI 3f7f0 .cfa: sp 32 +
STACK CFI 3f7f8 .cfa: x29 32 + x19: .cfa -8 + ^ x20: .cfa -16 + ^ .ra: .cfa -24 + ^ x29: .cfa -32 + ^
STACK CFI 3f818 .cfa: sp 32 +
STACK CFI 3f820 .cfa: sp 0 +
STACK CFI 3f824 .cfa: x29 32 +
STACK CFI 3f840 .cfa: sp 32 +
STACK CFI 3f848 .cfa: sp 0 +
STACK CFI INIT 3fa10 1c .cfa: sp 0 +
STACK CFI INIT 3fa2c c .cfa: sp 0 +
STACK CFI INIT 3fa38 14 .cfa: sp 0 +
STACK CFI INIT 3fb18 4 .cfa: sp 0 +
STACK CFI INIT 3fb1c 28 .cfa: sp 0 +
STACK CFI 3fb2c .cfa: sp 16 +
STACK CFI 3fb30 .cfa: x29 16 + .ra: .cfa -8 + ^ x29: .cfa -16 + ^
STACK CFI 3fb3c .cfa: sp 16 +
STACK CFI 3fb40 .cfa: sp 0 +
STACK CFI INIT 40350 1c .cfa: sp 0 +
STACK CFI INIT 406ec 4 .cfa: sp 0 +
STACK CFI INIT 406f0 4 .cfa: sp 0 +
STACK CFI INIT 406f4 34 .cfa: sp 0 +
STACK CFI 406f8 .cfa: sp 32 +
STACK CFI 40700 .cfa: x29 32 + x19: .cfa -16 + ^ .ra: .cfa -24 + ^ x29: .cfa -32 + ^
STACK CFI 4071c .cfa: sp 32 +
STACK CFI 40724 .cfa: sp 0 +
STACK CFI INIT 40728 14 .cfa: sp 0 +
STACK CFI INIT 4073c 4 .cfa: sp 0 +
STACK CFI INIT 40740 4 .cfa: sp 0 +
STACK CFI INIT 4098c 1c .cfa: sp 0 +
STACK CFI INIT 409a8 c .cfa: sp 0 +
STACK CFI INIT 409b4 64 .cfa: sp 0 +
STACK CFI 409b8 .cfa: sp 32 +
STACK CFI 409c0 .cfa: x29 32 + x19: .cfa -8 + ^ x20: .cfa -16 + ^ .ra: .cfa -24 + ^ x29: .cfa -32 + ^
STACK CFI 40a00 .cfa: sp 32 +
STACK CFI 40a08 .cfa: sp 0 +
STACK CFI 40a0c .cfa: sp 32 +
STACK CFI 40a14 .cfa: sp 0 +
STACK CFI INIT 40a18 1c8 .cfa: sp 0 +
STACK CFI INIT 40e7c c8 .cfa: sp 0 +
STACK CFI 40e80 .cfa: sp 32 +
STACK CFI 40e88 .cfa: x29 32 + x19: .cfa -16 + ^ .ra: .cfa -24 + ^ x29: .cfa -32 + ^
STACK CFI 40ed8 .cfa: sp 32 +
STACK CFI 40ee0 .cfa: sp 0 +
STACK CFI 40ee4 .cfa: x29 32 +
STACK CFI 40ee8 .cfa: sp 32 +
STACK CFI 40ef0 .cfa: sp 0 +
STACK CFI 40ef4 .cfa: x29 32 +
STACK CFI 40f28 .cfa: sp 32 +
STACK CFI 40f30 .cfa: sp 0 +
STACK CFI 40f34 .cfa: x29 32 +
STACK CFI 40f38 .cfa: sp 32 +
STACK CFI 40f40 .cfa: sp 0 +
STACK CFI INIT 412dc 3c .cfa: sp 0 +
STACK CFI 412e0 .cfa: sp 32 +
STACK CFI 412e8 .cfa: x29 32 + x19: .cfa -16 + ^ .ra: .cfa -24 + ^ x29: .cfa -32 + ^
STACK CFI 412f4 .cfa: sp 32 +
STACK CFI 412fc .cfa: sp 0 +
STACK CFI 41300 .cfa: x29 32 +
STACK CFI 4130c .cfa: sp 32 +
STACK CFI 41314 .cfa: sp 0 +
STACK CFI INIT 41318 4c .cfa: sp 0 +
STACK CFI 4131c .cfa: sp 32 +
STACK CFI 41324 .cfa: x29 32 + x19: .cfa -8 + ^ x20: .cfa -16 + ^ .ra: .cfa -24 + ^ x29: .cfa -32 + ^
STACK CFI 4134c .cfa: sp 32 +
STACK CFI 41354 .cfa: sp 0 +
STACK CFI 41358 .cfa: sp 32 +
STACK CFI 41360 .cfa: sp 0 +
STACK CFI INIT 41584 64 .cfa: sp 0 +
STACK CFI 41588 .cfa: sp 32 +
STACK CFI 41590 .cfa: x29 32 + x19: .cfa -16 + ^ .ra: .cfa -24 + ^ x29: .cfa -32 + ^
STACK CFI 415bc .cfa: sp 32 +
STACK CFI 415c4 .cfa: sp 0 +
STACK CFI 415c8 .cfa: x29 32 +
STACK CFI 415dc .cfa: sp 32 +
STACK CFI 415e4 .cfa: sp 0 +
STACK CFI INIT 4180c 24 .cfa: sp 0 +
STACK CFI 41810 .cfa: sp 32 +
STACK CFI 41818 .cfa: x29 32 + x19: .cfa -16 + ^ .ra: .cfa -24 + ^ x29: .cfa -32 + ^
STACK CFI 41824 .cfa: sp 32 +
STACK CFI 4182c .cfa: sp 0 +
STACK CFI INIT 41a8c 24 .cfa: sp 0 +
STACK CFI 41a90 .cfa: sp 32 +
STACK CFI 41a98 .cfa: x29 32 + x19: .cfa -16 + ^ .ra: .cfa -24 + ^ x29: .cfa -32 + ^
STACK CFI 41aa4 .cfa: sp 32 +
STACK CFI 41aac .cfa: sp 0 +
STACK CFI INIT 41ab0 8 .cfa: sp 0 +
STACK CFI INIT 41ab8 24 .cfa: sp 0 +
STACK CFI 41abc .cfa: sp 32 +
STACK CFI 41ac4 .cfa: x29 32 + x19: .cfa -16 + ^ .ra: .cfa -24 + ^ x29: .cfa -32 + ^
STACK CFI 41ad0 .cfa: sp 32 +
STACK CFI 41ad8 .cfa: sp 0 +
STACK CFI INIT 41adc 28 .cfa: sp 0 +
STACK CFI 41ae0 .cfa: sp 32 +
STACK CFI 41ae8 .cfa: x29 32 + x19: .cfa -16 + ^ .ra: .cfa -24 + ^ x29: .cfa -32 + ^
STACK CFI 41af8 .cfa: sp 32 +
STACK CFI 41b00 .cfa: sp 0 +
STACK CFI INIT 41e04 8 .cfa: sp 0 +
STACK CFI INIT 41e0c 24 .cfa: sp 0 +
STACK CFI 41e10 .cfa: sp 32 +
STACK CFI 41e18 .cfa: x29 32 + x19: .cfa -16 + ^ .ra: .cfa -24 + ^ x29: .cfa -32 + ^
STACK CFI 41e24 .cfa: sp 32 +
STACK CFI 41e2c .cfa: sp 0 +
STACK CFI INIT 41e30 28 .cfa: sp 0 +
STACK CFI 41e34 .cfa: sp 32 +
STACK CFI 41e3c .cfa: x29 32 + x19: .cfa -16 + ^ .ra: .cfa -24 + ^ x29: .cfa -32 + ^
STACK CFI 41e4c .cfa: sp 32 +
STACK CFI 41e54 .cfa: sp 0 +
STACK CFI INIT 420bc 8 .cfa: sp 0 +
STACK CFI INIT 420c4 24 .cfa: sp 0 +
STACK CFI 420c8 .cfa: sp 32 +
STACK CFI 420d0 .cfa: x29 32 + x19: .cfa -16 + ^ .ra: .cfa -24 + ^ x29: .cfa -32 + ^
STACK CFI 420dc .cfa: sp 32 +
STACK CFI 420e4 .cfa: sp 0 +
STACK CFI INIT 420e8 28 .cfa: sp 0 +
STACK CFI 420ec .cfa: sp 32 +
STACK CFI 420f4 .cfa: x29 32 + x19: .cfa -16 + ^ .ra: .cfa -24 + ^ x29: .cfa -32 + ^
STACK CFI 42104 .cfa: sp 32 +
STACK CFI 4210c .cfa: sp 0 +
STACK CFI INIT 42110 8 .cfa: sp 0 +
STACK CFI INIT 42118 24 .cfa: sp 0 +
STACK CFI 4211c .cfa: sp 32 +
STACK CFI 42124 .cfa: x29 32 + x19: .cfa -16 + ^ .ra: .cfa -24 + ^ x29: .cfa -32 + ^
STACK CFI 42130 .cfa: sp 32 +
STACK CFI 42138 .cfa: sp 0 +
STACK CFI INIT 4213c 28 .cfa: sp 0 +
STACK CFI 42140 .cfa: sp 32 +
STACK CFI 42148 .cfa: x29 32 + x19: .cfa -16 + ^ .ra: .cfa -24 + ^ x29: .cfa -32 + ^
STACK CFI 42158 .cfa: sp 32 +
STACK CFI 42160 .cfa: sp 0 +
STACK CFI INIT 42800 4 .cfa: sp 0 +
STACK CFI INIT 42804 4 .cfa: sp 0 +
STACK CFI INIT 42d70 8 .cfa: sp 0 +
STACK CFI INIT 42d78 24 .cfa: sp 0 +
STACK CFI 42d7c .cfa: sp 32 +
STACK CFI 42d84 .cfa: x29 32 + x19: .cfa -16 + ^ .ra: .cfa -24 + ^ x29: .cfa -32 + ^
STACK CFI 42d90 .cfa: sp 32 +
STACK CFI 42d98 .cfa: sp 0 +
STACK CFI INIT 42d9c 28 .cfa: sp 0 +
STACK CFI 42da0 .cfa: sp 32 +
STACK CFI 42da8 .cfa: x29 32 + x19: .cfa -16 + ^ .ra: .cfa -24 + ^ x29: .cfa -32 + ^
STACK CFI 42db8 .cfa: sp 32 +
STACK CFI 42dc0 .cfa: sp 0 +
STACK CFI INIT 42dc4 8 .cfa: sp 0 +
STACK CFI INIT 42dcc 8 .cfa: sp 0 +
STACK CFI INIT 42dd4 4 .cfa: sp 0 +
STACK CFI INIT 42dd8 4 .cfa: sp 0 +
STACK CFI INIT 42ddc 4 .cfa: sp 0 +
STACK CFI INIT 42de0 4 .cfa: sp 0 +
STACK CFI INIT 42de4 4 .cfa: sp 0 +
STACK CFI INIT 42de8 4 .cfa: sp 0 +
STACK CFI INIT 43080 8 .cfa: sp 0 +
STACK CFI INIT 43308 8 .cfa: sp 0 +
STACK CFI INIT 43590 8 .cfa: sp 0 +
STACK CFI INIT 44738 4 .cfa: sp 0 +
STACK CFI INIT 4473c 14 .cfa: sp 0 +
STACK CFI INIT 44c5c c .cfa: sp 0 +
STACK CFI INIT 44c68 24c .cfa: sp 0 +
STACK CFI INIT 44eb4 a0 .cfa: sp 0 +
STACK CFI 44ec0 .cfa: sp 32 +
STACK CFI 44f18 .cfa: sp 0 +
STACK CFI 44f1c .cfa: sp 32 +
STACK CFI 44f24 .cfa: sp 0 +
STACK CFI 44f28 .cfa: sp 32 +
STACK CFI 44f3c .cfa: sp 0 +
STACK CFI 44f40 .cfa: sp 32 +
STACK CFI 44f50 .cfa: sp 0 +
STACK CFI INIT 44f54 38 .cfa: sp 0 +
STACK CFI 44f60 .cfa: sp 32 +
STACK CFI 44f88 .cfa: sp 0 +
STACK CFI INIT 45220 7c .cfa: sp 0 +
STACK CFI 45224 .cfa: sp 32 +
STACK CFI 4522c .cfa: x29 32 + x19: .cfa -16 + ^ .ra: .cfa -24 + ^ x29: .cfa -32 + ^
STACK CFI 45258 .cfa: sp 32 +
STACK CFI 45260 .cfa: sp 0 +
STACK CFI 45264 .cfa: x29 32 +
STACK CFI 45290 .cfa: sp 32 +
STACK CFI 45298 .cfa: sp 0 +
STACK CFI INIT 452ec 2c .cfa: sp 0 +
STACK CFI 452f0 .cfa: sp 32 +
STACK CFI 452f8 .cfa: x29 32 + x19: .cfa -16 + ^ .ra: .cfa -24 + ^ x29: .cfa -32 + ^
STACK CFI 4530c .cfa: sp 32 +
STACK CFI 45314 .cfa: sp 0 +
STACK CFI INIT 45ad8 64 .cfa: sp 0 +
STACK CFI 45adc .cfa: sp 32 +
STACK CFI 45ae4 .cfa: x29 32 + x19: .cfa -16 + ^ .ra: .cfa -24 + ^ x29: .cfa -32 + ^
STACK CFI 45b00 .cfa: sp 32 +
STACK CFI 45b08 .cfa: sp 0 +
STACK CFI 45b0c .cfa: x29 32 +
STACK CFI 45b30 .cfa: sp 32 +
STACK CFI 45b38 .cfa: sp 0 +
STACK CFI INIT 45b3c 570 .cfa: sp 0 +
STACK CFI 45b40 .cfa: sp 176 +
STACK CFI 45b54 .cfa: x29 64 + x19: .cfa -8 + ^ x20: .cfa -16 + ^ x21: .cfa -24 + ^ x22: .cfa -32 + ^ x23: .cfa -40 + ^ x24: .cfa -48 + ^ .ra: .cfa -56 + ^ x29: .cfa -64 + ^
STACK CFI 45d84 .cfa: sp 176 +
STACK CFI 45d98 .cfa: sp 0 +
STACK CFI 45d9c .cfa: x29 64 +
STACK CFI 45de8 .cfa: sp 176 +
STACK CFI 45dfc .cfa: sp 0 +
STACK CFI 45e00 .cfa: x29 64 +
STACK CFI 45e38 .cfa: sp 176 +
STACK CFI 45e4c .cfa: sp 0 +
STACK CFI 45e50 .cfa: x29 64 +
STACK CFI 45e68 .cfa: sp 176 +
STACK CFI 45e7c .cfa: sp 0 +
STACK CFI 45e80 .cfa: x29 64 +
STACK CFI 45ea0 .cfa: sp 176 +
STACK CFI 45eb4 .cfa: sp 0 +
STACK CFI 45eb8 .cfa: x29 64 +
STACK CFI 45ed0 .cfa: sp 176 +
STACK CFI 45ee4 .cfa: sp 0 +
STACK CFI 45ee8 .cfa: x29 64 +
STACK CFI 45efc .cfa: sp 176 +
STACK CFI 45f10 .cfa: sp 0 +
STACK CFI 45f14 .cfa: x29 64 +
STACK CFI 45f28 .cfa: sp 176 +
STACK CFI 45f3c .cfa: sp 0 +
STACK CFI 45f40 .cfa: x29 64 +
STACK CFI 45f50 .cfa: sp 176 +
STACK CFI 45f64 .cfa: sp 0 +
STACK CFI 45f68 .cfa: x29 64 +
STACK CFI 45f78 .cfa: sp 176 +
STACK CFI 45f8c .cfa: sp 0 +
STACK CFI 45f90 .cfa: x29 64 +
STACK CFI 45fa8 .cfa: sp 176 +
STACK CFI 45fbc .cfa: sp 0 +
STACK CFI 45fc0 .cfa: x29 64 +
STACK CFI 45fd4 .cfa: sp 176 +
STACK CFI 45fe8 .cfa: sp 0 +
STACK CFI 45fec .cfa: x29 64 +
STACK CFI 46004 .cfa: sp 176 +
STACK CFI 46018 .cfa: sp 0 +
STACK CFI 4601c .cfa: x29 64 +
STACK CFI 46048 .cfa: sp 176 +
STACK CFI 4605c .cfa: sp 0 +
STACK CFI 46060 .cfa: x29 64 +
STACK CFI 46074 .cfa: sp 176 +
STACK CFI 46088 .cfa: sp 0 +
STACK CFI 4608c .cfa: x29 64 +
STACK CFI INIT 460ac 228 .cfa: sp 0 +
STACK CFI INIT 462d4 2dc .cfa: sp 0 +
STACK CFI INIT 465b0 53c .cfa: sp 0 +
STACK CFI INIT 46aec 78 .cfa: sp 0 +
STACK CFI 46af0 .cfa: sp 48 +
STACK CFI 46afc .cfa: x29 48 + x19: .cfa -8 + ^ x20: .cfa -16 + ^ x21: .cfa -24 + ^ x22: .cfa -32 + ^ .ra: .cfa -40 + ^ x29: .cfa -48 + ^
STACK CFI 46b44 .cfa: sp 48 +
STACK CFI 46b50 .cfa: sp 0 +
STACK CFI 46b54 .cfa: sp 48 +
STACK CFI 46b60 .cfa: sp 0 +
STACK CFI INIT 46b64 8c .cfa: sp 0 +
STACK CFI 46b68 .cfa: sp 32 +
STACK CFI 46b70 .cfa: x29 32 + x19: .cfa -16 + ^ .ra: .cfa -24 + ^ x29: .cfa -32 + ^
STACK CFI 46ba4 .cfa: sp 32 +
STACK CFI 46bac .cfa: sp 0 +
STACK CFI 46bb0 .cfa: x29 32 +
STACK CFI 46be4 .cfa: sp 32 +
STACK CFI 46bec .cfa: sp 0 +
STACK CFI INIT 46bf0 24 .cfa: sp 0 +
STACK CFI 46bf4 .cfa: sp 32 +
STACK CFI 46bfc .cfa: x29 32 + x19: .cfa -16 + ^ .ra: .cfa -24 + ^ x29: .cfa -32 + ^
STACK CFI 46c08 .cfa: sp 32 +
STACK CFI 46c10 .cfa: sp 0 +
STACK CFI INIT 46c14 150 .cfa: sp 0 +
STACK CFI 46c18 .cfa: sp 48 +
STACK CFI 46c24 .cfa: x29 48 + x19: .cfa -8 + ^ x20: .cfa -16 + ^ x21: .cfa -24 + ^ x22: .cfa -32 + ^ .ra: .cfa -40 + ^ x29: .cfa -48 + ^
STACK CFI 46d54 .cfa: sp 48 +
STACK CFI 46d60 .cfa: sp 0 +
STACK CFI INIT 46d64 68 .cfa: sp 0 +
STACK CFI 46d68 .cfa: sp 64 +
STACK CFI 46d74 .cfa: x29 32 + x19: .cfa -16 + ^ .ra: .cfa -24 + ^ x29: .cfa -32 + ^
STACK CFI 46db8 .cfa: sp 64 +
STACK CFI 46dc4 .cfa: sp 0 +
STACK CFI 46dc8 .cfa: x29 32 +
STACK CFI INIT 46dcc 90 .cfa: sp 0 +
STACK CFI 46dd0 .cfa: sp 32 +
STACK CFI 46dd8 .cfa: x29 32 + x19: .cfa -8 + ^ x20: .cfa -16 + ^ .ra: .cfa -24 + ^ x29: .cfa -32 + ^
STACK CFI 46e04 .cfa: sp 32 +
STACK CFI 46e0c .cfa: sp 0 +
STACK CFI 46e10 .cfa: x29 32 +
STACK CFI 46e50 .cfa: sp 32 +
STACK CFI 46e58 .cfa: sp 0 +
STACK CFI INIT 46e5c ec .cfa: sp 0 +
STACK CFI 46e60 .cfa: sp 112 +
STACK CFI 46e70 .cfa: x29 48 + x19: .cfa -8 + ^ x20: .cfa -16 + ^ x21: .cfa -32 + ^ .ra: .cfa -40 + ^ x29: .cfa -48 + ^
STACK CFI 46f30 .cfa: sp 112 +
STACK CFI 46f40 .cfa: sp 0 +
STACK CFI 46f44 .cfa: x29 48 +
STACK CFI INIT 46f48 ec .cfa: sp 0 +
STACK CFI 46f4c .cfa: sp 112 +
STACK CFI 46f5c .cfa: x29 48 + x19: .cfa -8 + ^ x20: .cfa -16 + ^ x21: .cfa -32 + ^ .ra: .cfa -40 + ^ x29: .cfa -48 + ^
STACK CFI 4701c .cfa: sp 112 +
STACK CFI 4702c .cfa: sp 0 +
STACK CFI 47030 .cfa: x29 48 +
STACK CFI INIT 47034 48 .cfa: sp 0 +
STACK CFI 47038 .cfa: sp 32 +
STACK CFI 47040 .cfa: x29 32 + x19: .cfa -8 + ^ x20: .cfa -16 + ^ .ra: .cfa -24 + ^ x29: .cfa -32 + ^
STACK CFI 47064 .cfa: sp 32 +
STACK CFI 4706c .cfa: sp 0 +
STACK CFI 47070 .cfa: x29 32 +
STACK CFI INIT 4707c 98 .cfa: sp 0 +
STACK CFI 47080 .cfa: sp 80 +
STACK CFI 4708c .cfa: x29 32 + x19: .cfa -16 + ^ .ra: .cfa -24 + ^ x29: .cfa -32 + ^
STACK CFI 47100 .cfa: sp 80 +
STACK CFI 4710c .cfa: sp 0 +
STACK CFI 47110 .cfa: x29 32 +
STACK CFI INIT 47114 260 .cfa: sp 0 +
STACK CFI 47118 .cfa: sp 112 +
STACK CFI 47130 .cfa: x29 80 + x19: .cfa -8 + ^ x20: .cfa -16 + ^ x21: .cfa -24 + ^ x22: .cfa -32 + ^ x23: .cfa -40 + ^ x24: .cfa -48 + ^ x25: .cfa -64 + ^ .ra: .cfa -72 + ^ x29: .cfa -80 + ^
STACK CFI 47314 .cfa: sp 112 +
STACK CFI 4732c .cfa: sp 0 +
STACK CFI 47330 .cfa: x29 80 +
STACK CFI INIT 47374 150 .cfa: sp 0 +
STACK CFI 47378 .cfa: sp 48 +
STACK CFI 47384 .cfa: x29 48 + x19: .cfa -8 + ^ x20: .cfa -16 + ^ x21: .cfa -24 + ^ x22: .cfa -32 + ^ .ra: .cfa -40 + ^ x29: .cfa -48 + ^
STACK CFI 474b4 .cfa: sp 48 +
STACK CFI 474c0 .cfa: sp 0 +
STACK CFI INIT 474c4 1e0 .cfa: sp 0 +
STACK CFI 474c8 .cfa: sp 96 +
STACK CFI 474dc .cfa: x29 64 + x19: .cfa -8 + ^ x20: .cfa -16 + ^ x21: .cfa -24 + ^ x22: .cfa -32 + ^ x23: .cfa -40 + ^ x24: .cfa -48 + ^ .ra: .cfa -56 + ^ x29: .cfa -64 + ^
STACK CFI 4765c .cfa: sp 96 +
STACK CFI 47670 .cfa: sp 0 +
STACK CFI 47674 .cfa: x29 64 +
STACK CFI INIT 476a4 284 .cfa: sp 0 +
STACK CFI 476a8 .cfa: sp 112 +
STACK CFI 476c0 .cfa: x29 80 + x19: .cfa -8 + ^ x20: .cfa -16 + ^ x21: .cfa -24 + ^ x22: .cfa -32 + ^ x23: .cfa -40 + ^ x24: .cfa -48 + ^ x25: .cfa -64 + ^ .ra: .cfa -72 + ^ x29: .cfa -80 + ^
STACK CFI 478c8 .cfa: sp 112 +
STACK CFI 478e0 .cfa: sp 0 +
STACK CFI 478e4 .cfa: x29 80 +
STACK CFI INIT 47928 208 .cfa: sp 0 +
STACK CFI 4792c .cfa: sp 96 +
STACK CFI 47940 .cfa: x29 64 + x19: .cfa -8 + ^ x20: .cfa -16 + ^ x21: .cfa -24 + ^ x22: .cfa -32 + ^ x23: .cfa -40 + ^ x24: .cfa -48 + ^ .ra: .cfa -56 + ^ x29: .cfa -64 + ^
STACK CFI 47ae8 .cfa: sp 96 +
STACK CFI 47afc .cfa: sp 0 +
STACK CFI 47b00 .cfa: x29 64 +
STACK CFI INIT 47b30 360 .cfa: sp 0 +
STACK CFI 47b34 .cfa: sp 160 +
STACK CFI 47b50 .cfa: x29 96 + x19: .cfa -8 + ^ x20: .cfa -16 + ^ x21: .cfa -24 + ^ x22: .cfa -32 + ^ x23: .cfa -40 + ^ x24: .cfa -48 + ^ x25: .cfa -56 + ^ x26: .cfa -64 + ^ x27: .cfa -72 + ^ x28: .cfa -80 + ^ .ra: .cfa -88 + ^ x29: .cfa -96 + ^
STACK CFI 47e1c .cfa: sp 160 +
STACK CFI 47e38 .cfa: sp 0 +
STACK CFI 47e3c .cfa: x29 96 +
STACK CFI INIT 47e90 314 .cfa: sp 0 +
STACK CFI 47e94 .cfa: sp 144 +
STACK CFI 47eb0 .cfa: x29 96 + x19: .cfa -8 + ^ x20: .cfa -16 + ^ x21: .cfa -24 + ^ x22: .cfa -32 + ^ x23: .cfa -40 + ^ x24: .cfa -48 + ^ x25: .cfa -56 + ^ x26: .cfa -64 + ^ x27: .cfa -72 + ^ x28: .cfa -80 + ^ .ra: .cfa -88 + ^ x29: .cfa -96 + ^
STACK CFI 4812c .cfa: sp 144 +
STACK CFI 48148 .cfa: sp 0 +
STACK CFI 4814c .cfa: x29 96 +
STACK CFI INIT 481a4 290 .cfa: sp 0 +
STACK CFI 481a8 .cfa: sp 128 +
STACK CFI 481c0 .cfa: x29 80 + x19: .cfa -8 + ^ x20: .cfa -16 + ^ x21: .cfa -24 + ^ x22: .cfa -32 + ^ x23: .cfa -40 + ^ x24: .cfa -48 + ^ x25: .cfa -56 + ^ x26: .cfa -64 + ^ .ra: .cfa -72 + ^ x29: .cfa -80 + ^
STACK CFI 48414 .cfa: sp 128 +
STACK CFI 4842c .cfa: sp 0 +
STACK CFI 48430 .cfa: x29 80 +
STACK CFI INIT 48434 ddc .cfa: sp 0 +
STACK CFI 48438 .cfa: sp 144 +
STACK CFI 48454 .cfa: x29 96 + x19: .cfa -8 + ^ x20: .cfa -16 + ^ x21: .cfa -24 + ^ x22: .cfa -32 + ^ x23: .cfa -40 + ^ x24: .cfa -48 + ^ x25: .cfa -56 + ^ x26: .cfa -64 + ^ x27: .cfa -72 + ^ x28: .cfa -80 + ^ .ra: .cfa -88 + ^ x29: .cfa -96 + ^
STACK CFI 490e8 .cfa: sp 144 +
STACK CFI 49104 .cfa: sp 0 +
STACK CFI 49108 .cfa: x29 96 +
STACK CFI INIT 49210 1d0 .cfa: sp 0 +
STACK CFI 49214 .cfa: sp 80 +
STACK CFI 49228 .cfa: x29 80 + x19: .cfa -8 + ^ x20: .cfa -16 + ^ x21: .cfa -24 + ^ x22: .cfa -32 + ^ x23: .cfa -40 + ^ x24: .cfa -48 + ^ x25: .cfa -64 + ^ .ra: .cfa -72 + ^ x29: .cfa -80 + ^
STACK CFI 493c8 .cfa: sp 80 +
STACK CFI 493dc .cfa: sp 0 +
STACK CFI INIT 493e0 23c .cfa: sp 0 +
STACK CFI 493e4 .cfa: sp 112 +
STACK CFI 493f8 .cfa: x29 64 + x19: .cfa -8 + ^ x20: .cfa -16 + ^ x21: .cfa -24 + ^ x22: .cfa -32 + ^ x23: .cfa -40 + ^ x24: .cfa -48 + ^ .ra: .cfa -56 + ^ x29: .cfa -64 + ^
STACK CFI 495d4 .cfa: sp 112 +
STACK CFI 495e8 .cfa: sp 0 +
STACK CFI 495ec .cfa: x29 64 +
STACK CFI INIT 4961c 30c .cfa: sp 0 +
STACK CFI 49620 .cfa: sp 80 +
STACK CFI 49634 .cfa: x29 64 + x19: .cfa -8 + ^ x20: .cfa -16 + ^ x21: .cfa -24 + ^ x22: .cfa -32 + ^ x23: .cfa -40 + ^ x24: .cfa -48 + ^ .ra: .cfa -56 + ^ x29: .cfa -64 + ^
STACK CFI 497b0 .cfa: sp 80 +
STACK CFI 497c4 .cfa: sp 0 +
STACK CFI 497c8 .cfa: x29 64 +
STACK CFI INIT 49928 178 .cfa: sp 0 +
STACK CFI 4992c .cfa: sp 80 +
STACK CFI 49940 .cfa: x29 64 + x19: .cfa -8 + ^ x20: .cfa -16 + ^ x21: .cfa -24 + ^ x22: .cfa -32 + ^ x23: .cfa -40 + ^ x24: .cfa -48 + ^ .ra: .cfa -56 + ^ x29: .cfa -64 + ^
STACK CFI 49a84 .cfa: sp 80 +
STACK CFI 49a98 .cfa: sp 0 +
STACK CFI 49a9c .cfa: x29 64 +
STACK CFI INIT 49aa0 178 .cfa: sp 0 +
STACK CFI 49aa4 .cfa: sp 80 +
STACK CFI 49ab8 .cfa: x29 64 + x19: .cfa -8 + ^ x20: .cfa -16 + ^ x21: .cfa -24 + ^ x22: .cfa -32 + ^ x23: .cfa -40 + ^ x24: .cfa -48 + ^ .ra: .cfa -56 + ^ x29: .cfa -64 + ^
STACK CFI 49bfc .cfa: sp 80 +
STACK CFI 49c10 .cfa: sp 0 +
STACK CFI 49c14 .cfa: x29 64 +
STACK CFI INIT 49c18 240 .cfa: sp 0 +
STACK CFI 49c1c .cfa: sp 96 +
STACK CFI 49c34 .cfa: x29 96 + x19: .cfa -8 + ^ x20: .cfa -16 + ^ x21: .cfa -24 + ^ x22: .cfa -32 + ^ x23: .cfa -40 + ^ x24: .cfa -48 + ^ x25: .cfa -56 + ^ x26: .cfa -64 + ^ x27: .cfa -72 + ^ x28: .cfa -80 + ^ .ra: .cfa -88 + ^ x29: .cfa -96 + ^
STACK CFI 49e3c .cfa: sp 96 +
STACK CFI 49e54 .cfa: sp 0 +
STACK CFI INIT 4aacc 154 .cfa: sp 0 +
STACK CFI 4aad0 .cfa: sp 96 +
STACK CFI 4aae4 .cfa: x29 64 + x19: .cfa -8 + ^ x20: .cfa -16 + ^ x21: .cfa -24 + ^ x22: .cfa -32 + ^ x23: .cfa -48 + ^ .ra: .cfa -56 + ^ x29: .cfa -64 + ^
STACK CFI 4abc4 .cfa: sp 96 +
STACK CFI 4abd8 .cfa: sp 0 +
STACK CFI 4abdc .cfa: x29 64 +
STACK CFI INIT 4ae8c 44 .cfa: sp 0 +
STACK CFI 4ae90 .cfa: sp 32 +
STACK CFI 4ae98 .cfa: x29 32 + x19: .cfa -16 + ^ .ra: .cfa -24 + ^ x29: .cfa -32 + ^
STACK CFI 4aeb4 .cfa: sp 32 +
STACK CFI 4aebc .cfa: sp 0 +
STACK CFI 4aec0 .cfa: x29 32 +
STACK CFI 4aec4 .cfa: sp 32 +
STACK CFI 4aecc .cfa: sp 0 +
STACK CFI INIT 4aed0 1d0 .cfa: sp 0 +
STACK CFI 4aed4 .cfa: sp 64 +
STACK CFI 4aee4 .cfa: x29 64 + x19: .cfa -8 + ^ x20: .cfa -16 + ^ x21: .cfa -24 + ^ x22: .cfa -32 + ^ x23: .cfa -40 + ^ x24: .cfa -48 + ^ .ra: .cfa -56 + ^ x29: .cfa -64 + ^
STACK CFI 4afa4 .cfa: sp 64 +
STACK CFI 4afb4 .cfa: sp 0 +
STACK CFI 4afb8 .cfa: x29 64 +
STACK CFI INIT 4b0a0 17c .cfa: sp 0 +
STACK CFI INIT 4b5d4 a0 .cfa: sp 0 +
STACK CFI 4b5d8 .cfa: sp 48 +
STACK CFI 4b5e4 .cfa: x29 48 + x19: .cfa -8 + ^ x20: .cfa -16 + ^ x21: .cfa -24 + ^ x22: .cfa -32 + ^ .ra: .cfa -40 + ^ x29: .cfa -48 + ^
STACK CFI 4b650 .cfa: sp 48 +
STACK CFI 4b65c .cfa: sp 0 +
STACK CFI 4b660 .cfa: sp 48 +
STACK CFI 4b66c .cfa: sp 0 +
STACK CFI 4b670 .cfa: x29 48 +
STACK CFI INIT 4c328 158 .cfa: sp 0 +
STACK CFI 4c32c .cfa: sp 96 +
STACK CFI 4c340 .cfa: x29 64 + x19: .cfa -8 + ^ x20: .cfa -16 + ^ x21: .cfa -24 + ^ x22: .cfa -32 + ^ x23: .cfa -48 + ^ .ra: .cfa -56 + ^ x29: .cfa -64 + ^
STACK CFI 4c424 .cfa: sp 96 +
STACK CFI 4c438 .cfa: sp 0 +
STACK CFI 4c43c .cfa: x29 64 +
STACK CFI INIT 4c480 190 .cfa: sp 0 +
STACK CFI INIT 4d10c 1dc .cfa: sp 0 +
STACK CFI 4d110 .cfa: sp 80 +
STACK CFI 4d124 .cfa: x29 80 + x19: .cfa -8 + ^ x20: .cfa -16 + ^ x21: .cfa -24 + ^ x22: .cfa -32 + ^ x23: .cfa -40 + ^ x24: .cfa -48 + ^ x25: .cfa -64 + ^ .ra: .cfa -72 + ^ x29: .cfa -80 + ^
STACK CFI 4d2d0 .cfa: sp 80 +
STACK CFI 4d2e4 .cfa: sp 0 +
STACK CFI INIT 4e718 124 .cfa: sp 0 +
STACK CFI 4e748 .cfa: sp 32 +
STACK CFI 4e750 .cfa: x29 32 + x19: .cfa -8 + ^ x20: .cfa -16 + ^ .ra: .cfa -24 + ^ x29: .cfa -32 + ^
STACK CFI 4e830 .cfa: sp 32 +
STACK CFI 4e838 .cfa: sp 0 +
STACK CFI INIT 4ef98 320 .cfa: sp 0 +
STACK CFI 4ef9c .cfa: sp 64 +
STACK CFI 4efac .cfa: x29 64 + x19: .cfa -8 + ^ x20: .cfa -16 + ^ x21: .cfa -24 + ^ x22: .cfa -32 + ^ x23: .cfa -40 + ^ x24: .cfa -48 + ^ .ra: .cfa -56 + ^ x29: .cfa -64 + ^
STACK CFI 4f028 .cfa: sp 64 +
STACK CFI 4f038 .cfa: sp 0 +
STACK CFI 4f03c .cfa: x29 64 +
STACK CFI 4f210 .cfa: sp 64 +
STACK CFI 4f220 .cfa: sp 0 +
STACK CFI 4f224 .cfa: x29 64 +
STACK CFI 4f234 .cfa: sp 64 +
STACK CFI 4f244 .cfa: sp 0 +
STACK CFI 4f248 .cfa: x29 64 +
STACK CFI INIT 4f2b8 a0 .cfa: sp 0 +
STACK CFI 4f2bc .cfa: sp 48 +
STACK CFI 4f2c8 .cfa: x29 48 + x19: .cfa -8 + ^ x20: .cfa -16 + ^ x21: .cfa -24 + ^ x22: .cfa -32 + ^ .ra: .cfa -40 + ^ x29: .cfa -48 + ^
STACK CFI 4f334 .cfa: sp 48 +
STACK CFI 4f340 .cfa: sp 0 +
STACK CFI 4f344 .cfa: sp 48 +
STACK CFI 4f350 .cfa: sp 0 +
STACK CFI 4f354 .cfa: x29 48 +
STACK CFI INIT 50208 160 .cfa: sp 0 +
STACK CFI 5020c .cfa: sp 64 +
STACK CFI 5021c .cfa: x29 64 + x19: .cfa -8 + ^ x20: .cfa -16 + ^ x21: .cfa -24 + ^ x22: .cfa -32 + ^ x23: .cfa -48 + ^ .ra: .cfa -56 + ^ x29: .cfa -64 + ^
STACK CFI 50314 .cfa: sp 64 +
STACK CFI 50324 .cfa: sp 0 +
STACK CFI 50328 .cfa: x29 64 +
STACK CFI INIT 50368 214 .cfa: sp 0 +
STACK CFI 5036c .cfa: sp 128 +
STACK CFI 50388 .cfa: x29 96 + x19: .cfa -8 + ^ x20: .cfa -16 + ^ x21: .cfa -24 + ^ x22: .cfa -32 + ^ x23: .cfa -40 + ^ x24: .cfa -48 + ^ x25: .cfa -56 + ^ x26: .cfa -64 + ^ x27: .cfa -80 + ^ .ra: .cfa -88 + ^ x29: .cfa -96 + ^
STACK CFI 50504 .cfa: sp 128 +
STACK CFI 50520 .cfa: sp 0 +
STACK CFI 50524 .cfa: x29 96 +
STACK CFI INIT 52218 290 .cfa: sp 0 +
STACK CFI 5221c .cfa: sp 16 +
STACK CFI 52220 .cfa: x29 16 + .ra: .cfa -8 + ^ x29: .cfa -16 + ^
STACK CFI 522ac .cfa: sp 16 +
STACK CFI 522b0 .cfa: sp 0 +
STACK CFI 522b4 .cfa: x29 16 +
STACK CFI 52304 .cfa: sp 16 +
STACK CFI 52308 .cfa: sp 0 +
STACK CFI 5230c .cfa: x29 16 +
STACK CFI 52470 .cfa: sp 16 +
STACK CFI 52474 .cfa: sp 0 +
STACK CFI 52478 .cfa: x29 16 +
STACK CFI INIT 524a8 158 .cfa: sp 0 +
STACK CFI 524ac .cfa: sp 112 +
STACK CFI 524c8 .cfa: x29 96 + x19: .cfa -8 + ^ x20: .cfa -16 + ^ x21: .cfa -24 + ^ x22: .cfa -32 + ^ x23: .cfa -40 + ^ x24: .cfa -48 + ^ x25: .cfa -56 + ^ x26: .cfa -64 + ^ x27: .cfa -72 + ^ x28: .cfa -80 + ^ .ra: .cfa -88 + ^ x29: .cfa -96 + ^
STACK CFI 525b0 .cfa: sp 112 +
STACK CFI 525b4 .cfa: x29 96 +
STACK CFI 525bc .cfa: sp 112 +
STACK CFI 525d8 .cfa: sp 0 +
STACK CFI 525dc .cfa: x29 96 +
STACK CFI 525fc .cfa: sp 112 +
STACK CFI INIT 52600 e54 .cfa: sp 0 +
STACK CFI 52604 .cfa: sp 192 +
STACK CFI 52620 .cfa: x29 96 + x19: .cfa -8 + ^ x20: .cfa -16 + ^ x21: .cfa -24 + ^ x22: .cfa -32 + ^ x23: .cfa -40 + ^ x24: .cfa -48 + ^ x25: .cfa -56 + ^ x26: .cfa -64 + ^ x27: .cfa -72 + ^ x28: .cfa -80 + ^ .ra: .cfa -88 + ^ x29: .cfa -96 + ^
STACK CFI 5333c .cfa: sp 192 +
STACK CFI 53358 .cfa: sp 0 +
STACK CFI 5335c .cfa: x29 96 +
STACK CFI INIT 53454 1068 .cfa: sp 0 +
STACK CFI 53458 .cfa: sp 288 +
STACK CFI 53474 .cfa: x29 96 + x19: .cfa -8 + ^ x20: .cfa -16 + ^ x21: .cfa -24 + ^ x22: .cfa -32 + ^ x23: .cfa -40 + ^ x24: .cfa -48 + ^ x25: .cfa -56 + ^ x26: .cfa -64 + ^ x27: .cfa -72 + ^ x28: .cfa -80 + ^ .ra: .cfa -88 + ^ x29: .cfa -96 + ^
STACK CFI 54204 .cfa: sp 288 +
STACK CFI 54220 .cfa: sp 0 +
STACK CFI 54224 .cfa: x29 96 +
STACK CFI INIT 544bc 520 .cfa: sp 0 +
STACK CFI 544c0 .cfa: sp 144 +
STACK CFI 544dc .cfa: x29 96 + x19: .cfa -8 + ^ x20: .cfa -16 + ^ x21: .cfa -24 + ^ x22: .cfa -32 + ^ x23: .cfa -40 + ^ x24: .cfa -48 + ^ x25: .cfa -56 + ^ x26: .cfa -64 + ^ x27: .cfa -72 + ^ x28: .cfa -80 + ^ .ra: .cfa -88 + ^ x29: .cfa -96 + ^
STACK CFI 549b8 .cfa: sp 144 +
STACK CFI 549d4 .cfa: sp 0 +
STACK CFI 549d8 .cfa: x29 96 +
STACK CFI INIT 5537c 136c .cfa: sp 0 +
STACK CFI 55380 .cfa: sp 224 +
STACK CFI 5539c .cfa: x29 96 + x19: .cfa -8 + ^ x20: .cfa -16 + ^ x21: .cfa -24 + ^ x22: .cfa -32 + ^ x23: .cfa -40 + ^ x24: .cfa -48 + ^ x25: .cfa -56 + ^ x26: .cfa -64 + ^ x27: .cfa -72 + ^ x28: .cfa -80 + ^ .ra: .cfa -88 + ^ x29: .cfa -96 + ^
STACK CFI 566c4 .cfa: sp 224 +
STACK CFI 566e0 .cfa: sp 0 +
STACK CFI 566e4 .cfa: x29 96 +
STACK CFI INIT 566e8 1b8 .cfa: sp 0 +
STACK CFI INIT 2a7d4 710 .cfa: sp 0 +
STACK CFI 2a7d8 .cfa: sp 64 +
STACK CFI 2a7e8 .cfa: x29 64 + x19: .cfa -8 + ^ x20: .cfa -16 + ^ x21: .cfa -24 + ^ x22: .cfa -32 + ^ x23: .cfa -40 + ^ x28: .cfa -48 + ^ .ra: .cfa -56 + ^ x29: .cfa -64 + ^
STACK CFI 2ad44 .cfa: sp 64 +
STACK CFI 2ad54 .cfa: sp 0 +
STACK CFI 2ad58 .cfa: x29 64 +
STACK CFI INIT 2afe4 200 .cfa: sp 0 +
STACK CFI 2afe8 .cfa: sp 80 +
STACK CFI 2aff8 .cfa: x29 48 + x19: .cfa -8 + ^ x20: .cfa -16 + ^ x21: .cfa -24 + ^ x22: .cfa -32 + ^ .ra: .cfa -40 + ^ x29: .cfa -48 + ^
STACK CFI 2b184 .cfa: sp 80 +
STACK CFI 2b194 .cfa: sp 0 +
STACK CFI 2b198 .cfa: x29 48 +
STACK CFI INIT 2b1e4 19d0 .cfa: sp 0 +
STACK CFI 2b1e8 .cfa: sp 128 +
STACK CFI 2b208 .cfa: x29 96 + x19: .cfa -8 + ^ x20: .cfa -16 + ^ x21: .cfa -24 + ^ x22: .cfa -32 + ^ x23: .cfa -40 + ^ x24: .cfa -48 + ^ x25: .cfa -56 + ^ x26: .cfa -64 + ^ x27: .cfa -72 + ^ x28: .cfa -80 + ^ .ra: .cfa -88 + ^ x29: .cfa -96 + ^ v8: .cfa -104 + ^ v9: .cfa -112 + ^ v10: .cfa -128 + ^
STACK CFI 2c8d8 .cfa: sp 128 +
STACK CFI 2c8f8 .cfa: sp 0 +
STACK CFI 2c8fc .cfa: x29 96 +
STACK CFI INIT 2cbb4 1c .cfa: sp 0 +
STACK CFI 2cbb8 .cfa: sp 16 +
STACK CFI 2cbbc .cfa: x29 16 + .ra: .cfa -8 + ^ x29: .cfa -16 + ^
STACK CFI 2cbc4 .cfa: sp 16 +
STACK CFI 2cbc8 .cfa: sp 0 +
STACK CFI 2cbcc .cfa: x29 16 +
STACK CFI INIT 2cbd0 14c .cfa: sp 0 +
STACK CFI 2cbd4 .cfa: sp 112 +
STACK CFI 2cbe8 .cfa: x29 40 + x19: .cfa -8 + ^ x20: .cfa -16 + ^ x21: .cfa -24 + ^ .ra: .cfa -32 + ^ x29: .cfa -40 + ^ v8: .cfa -48 + ^
STACK CFI 2ccb0 .cfa: sp 112 +
STACK CFI 2ccc4 .cfa: sp 0 +
STACK CFI 2ccc8 .cfa: x29 40 +
STACK CFI INIT 2cd1c 13c .cfa: sp 0 +
STACK CFI 2cd20 .cfa: sp 112 +
STACK CFI 2cd30 .cfa: x29 48 + x19: .cfa -8 + ^ x20: .cfa -16 + ^ x21: .cfa -32 + ^ .ra: .cfa -40 + ^ x29: .cfa -48 + ^
STACK CFI 2cdf0 .cfa: sp 112 +
STACK CFI 2ce00 .cfa: sp 0 +
STACK CFI 2ce04 .cfa: x29 48 +
STACK CFI INIT 2ce58 474 .cfa: sp 0 +
STACK CFI 2ce5c .cfa: sp 96 +
STACK CFI 2ce74 .cfa: x29 96 + x19: .cfa -8 + ^ x20: .cfa -16 + ^ x21: .cfa -24 + ^ x22: .cfa -32 + ^ x23: .cfa -40 + ^ x24: .cfa -48 + ^ x25: .cfa -56 + ^ x26: .cfa -64 + ^ x27: .cfa -72 + ^ x28: .cfa -80 + ^ .ra: .cfa -88 + ^ x29: .cfa -96 + ^
STACK CFI 2d254 .cfa: sp 96 +
STACK CFI 2d26c .cfa: sp 0 +
STACK CFI 2d270 .cfa: x29 96 +
STACK CFI INIT 2d304 148 .cfa: sp 0 +
STACK CFI 2d308 .cfa: sp 96 +
STACK CFI 2d318 .cfa: x29 48 + x19: .cfa -8 + ^ x20: .cfa -16 + ^ x21: .cfa -32 + ^ .ra: .cfa -40 + ^ x29: .cfa -48 + ^
STACK CFI 2d400 .cfa: sp 96 +
STACK CFI 2d410 .cfa: sp 0 +
STACK CFI 2d414 .cfa: x29 48 +
STACK CFI INIT 2d54c f0 .cfa: sp 0 +
STACK CFI 2d550 .cfa: sp 32 +
STACK CFI 2d558 .cfa: x29 32 + x19: .cfa -16 + ^ .ra: .cfa -24 + ^ x29: .cfa -32 + ^
STACK CFI 2d628 .cfa: sp 32 +
STACK CFI 2d630 .cfa: sp 0 +
STACK CFI 2d634 .cfa: x29 32 +
STACK CFI INIT 2d6fc 16c .cfa: sp 0 +
STACK CFI 2d700 .cfa: sp 144 +
STACK CFI 2d714 .cfa: x29 64 + x19: .cfa -8 + ^ x20: .cfa -16 + ^ x21: .cfa -24 + ^ x22: .cfa -32 + ^ x23: .cfa -40 + ^ x24: .cfa -48 + ^ .ra: .cfa -56 + ^ x29: .cfa -64 + ^
STACK CFI 2d7fc .cfa: sp 144 +
STACK CFI 2d810 .cfa: sp 0 +
STACK CFI 2d814 .cfa: x29 64 +
STACK CFI INIT 2d908 50 .cfa: sp 0 +
STACK CFI 2d90c .cfa: sp 32 +
STACK CFI 2d914 .cfa: x29 32 + x19: .cfa -8 + ^ x20: .cfa -16 + ^ .ra: .cfa -24 + ^ x29: .cfa -32 + ^
STACK CFI INIT 2da7c 6c .cfa: sp 0 +
STACK CFI 2da80 .cfa: sp 32 +
STACK CFI 2da88 .cfa: x29 32 + x19: .cfa -16 + ^ .ra: .cfa -24 + ^ x29: .cfa -32 + ^
STACK CFI 2dad8 .cfa: sp 32 +
STACK CFI 2dae0 .cfa: sp 0 +
STACK CFI 2dae4 .cfa: x29 32 +
STACK CFI INIT 2daec 6c .cfa: sp 0 +
STACK CFI 2daf0 .cfa: sp 32 +
STACK CFI 2daf8 .cfa: x29 32 + x19: .cfa -16 + ^ .ra: .cfa -24 + ^ x29: .cfa -32 + ^
STACK CFI 2db48 .cfa: sp 32 +
STACK CFI 2db50 .cfa: sp 0 +
STACK CFI 2db54 .cfa: x29 32 +
STACK CFI INIT 2db88 194 .cfa: sp 0 +
STACK CFI 2db8c .cfa: sp 144 +
STACK CFI 2db9c .cfa: x29 48 + x19: .cfa -8 + ^ x20: .cfa -16 + ^ x21: .cfa -24 + ^ x22: .cfa -32 + ^ .ra: .cfa -40 + ^ x29: .cfa -48 + ^
STACK CFI 2dc9c .cfa: sp 144 +
STACK CFI 2dcac .cfa: sp 0 +
STACK CFI 2dcb0 .cfa: x29 48 +
STACK CFI INIT 2dd1c 1c8 .cfa: sp 0 +
STACK CFI 2dd20 .cfa: sp 112 +
STACK CFI 2dd30 .cfa: x29 48 + x19: .cfa -8 + ^ x20: .cfa -16 + ^ x21: .cfa -24 + ^ x22: .cfa -32 + ^ .ra: .cfa -40 + ^ x29: .cfa -48 + ^
STACK CFI 2de84 .cfa: sp 112 +
STACK CFI 2de94 .cfa: sp 0 +
STACK CFI 2de98 .cfa: x29 48 +
STACK CFI INIT 2e070 138 .cfa: sp 0 +
STACK CFI 2e074 .cfa: sp 112 +
STACK CFI 2e088 .cfa: x29 64 + x19: .cfa -8 + ^ x20: .cfa -16 + ^ x21: .cfa -24 + ^ x22: .cfa -32 + ^ x23: .cfa -40 + ^ x24: .cfa -48 + ^ .ra: .cfa -56 + ^ x29: .cfa -64 + ^
STACK CFI 2e168 .cfa: sp 112 +
STACK CFI 2e17c .cfa: sp 0 +
STACK CFI 2e180 .cfa: x29 64 +
STACK CFI INIT 2eb6c 164 .cfa: sp 0 +
STACK CFI 2eb70 .cfa: sp 64 +
STACK CFI 2eb7c .cfa: x29 32 + x19: .cfa -8 + ^ x20: .cfa -16 + ^ .ra: .cfa -24 + ^ x29: .cfa -32 + ^
STACK CFI 2ec98 .cfa: sp 64 +
STACK CFI 2eca4 .cfa: sp 0 +
STACK CFI 2eca8 .cfa: x29 32 +
STACK CFI INIT 2ecd0 864 .cfa: sp 0 +
STACK CFI 2ecd4 .cfa: sp 96 +
STACK CFI 2ecec .cfa: x29 96 + x19: .cfa -8 + ^ x20: .cfa -16 + ^ x21: .cfa -24 + ^ x22: .cfa -32 + ^ x23: .cfa -40 + ^ x24: .cfa -48 + ^ x25: .cfa -56 + ^ x26: .cfa -64 + ^ x27: .cfa -72 + ^ x28: .cfa -80 + ^ .ra: .cfa -88 + ^ x29: .cfa -96 + ^
STACK CFI 2f410 .cfa: sp 96 +
STACK CFI 2f428 .cfa: sp 0 +
STACK CFI 2f42c .cfa: x29 96 +
STACK CFI INIT 2f534 74 .cfa: sp 0 +
STACK CFI 2f538 .cfa: sp 32 +
STACK CFI 2f540 .cfa: x29 32 + x19: .cfa -16 + ^ .ra: .cfa -24 + ^ x29: .cfa -32 + ^
STACK CFI 2f598 .cfa: sp 32 +
STACK CFI 2f5a0 .cfa: sp 0 +
STACK CFI 2f5a4 .cfa: x29 32 +
STACK CFI INIT 2f5a8 6c .cfa: sp 0 +
STACK CFI 2f5ac .cfa: sp 32 +
STACK CFI 2f5b4 .cfa: x29 32 + x19: .cfa -16 + ^ .ra: .cfa -24 + ^ x29: .cfa -32 + ^
STACK CFI 2f604 .cfa: sp 32 +
STACK CFI 2f60c .cfa: sp 0 +
STACK CFI 2f610 .cfa: x29 32 +
STACK CFI INIT 2f614 74 .cfa: sp 0 +
STACK CFI 2f618 .cfa: sp 32 +
STACK CFI 2f620 .cfa: x29 32 + x19: .cfa -16 + ^ .ra: .cfa -24 + ^ x29: .cfa -32 + ^
STACK CFI 2f678 .cfa: sp 32 +
STACK CFI 2f680 .cfa: sp 0 +
STACK CFI 2f684 .cfa: x29 32 +
STACK CFI INIT 2f760 12c .cfa: sp 0 +
STACK CFI 2f764 .cfa: sp 64 +
STACK CFI 2f774 .cfa: x29 48 + x19: .cfa -8 + ^ x20: .cfa -16 + ^ x21: .cfa -24 + ^ x22: .cfa -32 + ^ .ra: .cfa -40 + ^ x29: .cfa -48 + ^
STACK CFI 2f850 .cfa: sp 64 +
STACK CFI 2f860 .cfa: sp 0 +
STACK CFI 2f864 .cfa: x29 48 +
STACK CFI INIT 2f88c dc .cfa: sp 0 +
STACK CFI 2f890 .cfa: sp 80 +
STACK CFI 2f8a4 .cfa: x29 64 + x19: .cfa -8 + ^ x20: .cfa -16 + ^ x21: .cfa -24 + ^ x22: .cfa -32 + ^ x23: .cfa -48 + ^ .ra: .cfa -56 + ^ x29: .cfa -64 + ^
STACK CFI 2f920 .cfa: sp 80 +
STACK CFI 2f934 .cfa: sp 0 +
STACK CFI 2f938 .cfa: x29 64 +
STACK CFI INIT 2f968 20 .cfa: sp 0 +
STACK CFI 2f96c .cfa: sp 16 +
STACK CFI 2f970 .cfa: x29 16 + .ra: .cfa -8 + ^ x29: .cfa -16 + ^
STACK CFI 2f97c .cfa: sp 16 +
STACK CFI 2f980 .cfa: sp 0 +
STACK CFI 2f984 .cfa: x29 16 +
STACK CFI INIT 2f988 f0 .cfa: sp 0 +
STACK CFI 2f98c .cfa: sp 96 +
STACK CFI 2f9a4 .cfa: x29 56 + x19: .cfa -8 + ^ x20: .cfa -16 + ^ x21: .cfa -24 + ^ x22: .cfa -32 + ^ x23: .cfa -40 + ^ .ra: .cfa -48 + ^ x29: .cfa -56 + ^ v8: .cfa -64 + ^
STACK CFI 2fa2c .cfa: sp 96 +
STACK CFI 2fa44 .cfa: sp 0 +
STACK CFI 2fa48 .cfa: x29 56 +
STACK CFI INIT 2fa78 268 .cfa: sp 0 +
STACK CFI 2fa7c .cfa: sp 96 +
STACK CFI 2fa94 .cfa: x29 96 + x19: .cfa -8 + ^ x20: .cfa -16 + ^ x21: .cfa -24 + ^ x22: .cfa -32 + ^ x23: .cfa -40 + ^ x24: .cfa -48 + ^ x25: .cfa -56 + ^ x26: .cfa -64 + ^ x27: .cfa -72 + ^ x28: .cfa -80 + ^ .ra: .cfa -88 + ^ x29: .cfa -96 + ^
STACK CFI 2fc78 .cfa: sp 96 +
STACK CFI 2fc90 .cfa: sp 0 +
STACK CFI 2fc94 .cfa: x29 96 +
STACK CFI INIT 2fce0 d8 .cfa: sp 0 +
STACK CFI 2fce4 .cfa: sp 80 +
STACK CFI 2fcf8 .cfa: x29 64 + x19: .cfa -8 + ^ x20: .cfa -16 + ^ x21: .cfa -24 + ^ x22: .cfa -32 + ^ x23: .cfa -48 + ^ .ra: .cfa -56 + ^ x29: .cfa -64 + ^
STACK CFI 2fd70 .cfa: sp 80 +
STACK CFI 2fd84 .cfa: sp 0 +
STACK CFI 2fd88 .cfa: x29 64 +
STACK CFI INIT 2fdb8 27c .cfa: sp 0 +
STACK CFI 2fdbc .cfa: sp 96 +
STACK CFI 2fdd4 .cfa: x29 96 + x19: .cfa -8 + ^ x20: .cfa -16 + ^ x21: .cfa -24 + ^ x22: .cfa -32 + ^ x23: .cfa -40 + ^ x24: .cfa -48 + ^ x25: .cfa -56 + ^ x26: .cfa -64 + ^ x27: .cfa -72 + ^ x28: .cfa -80 + ^ .ra: .cfa -88 + ^ x29: .cfa -96 + ^
STACK CFI 2ff8c .cfa: sp 96 +
STACK CFI 2ffa4 .cfa: sp 0 +
STACK CFI 2ffa8 .cfa: x29 96 +
STACK CFI INIT 30034 4c .cfa: sp 0 +
STACK CFI 30038 .cfa: sp 32 +
STACK CFI 30040 .cfa: x29 32 + x19: .cfa -16 + ^ .ra: .cfa -24 + ^ x29: .cfa -32 + ^
STACK CFI 30070 .cfa: sp 32 +
STACK CFI 30078 .cfa: sp 0 +
STACK CFI 3007c .cfa: x29 32 +
STACK CFI INIT 30080 54 .cfa: sp 0 +
STACK CFI 30084 .cfa: sp 32 +
STACK CFI 3008c .cfa: x29 32 + x19: .cfa -16 + ^ .ra: .cfa -24 + ^ x29: .cfa -32 + ^
STACK CFI 300c4 .cfa: sp 32 +
STACK CFI 300cc .cfa: sp 0 +
STACK CFI 300d0 .cfa: x29 32 +
STACK CFI INIT 302c0 534 .cfa: sp 0 +
STACK CFI 302c4 .cfa: sp 224 +
STACK CFI 302e0 .cfa: x29 96 + x19: .cfa -8 + ^ x20: .cfa -16 + ^ x21: .cfa -24 + ^ x22: .cfa -32 + ^ x23: .cfa -40 + ^ x24: .cfa -48 + ^ x25: .cfa -56 + ^ x26: .cfa -64 + ^ x27: .cfa -80 + ^ .ra: .cfa -88 + ^ x29: .cfa -96 + ^
STACK CFI 305f4 .cfa: sp 224 +
STACK CFI 30610 .cfa: sp 0 +
STACK CFI 30614 .cfa: x29 96 +
STACK CFI 306e0 .cfa: sp 224 +
STACK CFI 306fc .cfa: sp 0 +
STACK CFI 30700 .cfa: x29 96 +
STACK CFI INIT 30844 1794 .cfa: sp 0 +
STACK CFI 30848 .cfa: sp 304 +
STACK CFI 30864 .cfa: x29 96 + x19: .cfa -8 + ^ x20: .cfa -16 + ^ x21: .cfa -24 + ^ x22: .cfa -32 + ^ x23: .cfa -40 + ^ x24: .cfa -48 + ^ x25: .cfa -56 + ^ x26: .cfa -64 + ^ x27: .cfa -72 + ^ x28: .cfa -80 + ^ .ra: .cfa -88 + ^ x29: .cfa -96 + ^
STACK CFI 319dc .cfa: sp 304 +
STACK CFI 319f8 .cfa: sp 0 +
STACK CFI 319fc .cfa: x29 96 +
STACK CFI INIT 32028 74 .cfa: sp 0 +
STACK CFI 3202c .cfa: sp 48 +
STACK CFI 32038 .cfa: x29 32 + x19: .cfa -8 + ^ x20: .cfa -16 + ^ .ra: .cfa -24 + ^ x29: .cfa -32 + ^
STACK CFI 32084 .cfa: sp 48 +
STACK CFI 32090 .cfa: sp 0 +
STACK CFI 32094 .cfa: x29 32 +
STACK CFI INIT 320a0 4b4 .cfa: sp 0 +
STACK CFI 320a4 .cfa: sp 224 +
STACK CFI 320bc .cfa: x29 80 + x19: .cfa -8 + ^ x20: .cfa -16 + ^ x21: .cfa -24 + ^ x22: .cfa -32 + ^ x23: .cfa -40 + ^ x24: .cfa -48 + ^ x25: .cfa -64 + ^ .ra: .cfa -72 + ^ x29: .cfa -80 + ^
STACK CFI 323c8 .cfa: sp 224 +
STACK CFI 323e0 .cfa: sp 0 +
STACK CFI 323e4 .cfa: x29 80 +
STACK CFI INIT 32554 110 .cfa: sp 0 +
STACK CFI 32558 .cfa: sp 96 +
STACK CFI 3256c .cfa: x29 64 + x19: .cfa -8 + ^ x20: .cfa -16 + ^ x21: .cfa -24 + ^ x22: .cfa -32 + ^ x23: .cfa -40 + ^ x24: .cfa -48 + ^ .ra: .cfa -56 + ^ x29: .cfa -64 + ^
STACK CFI 325b4 .cfa: sp 96 +
STACK CFI 325c8 .cfa: sp 0 +
STACK CFI 325cc .cfa: x29 64 +
STACK CFI INIT 32784 1f4 .cfa: sp 0 +
STACK CFI 32788 .cfa: sp 128 +
STACK CFI 327a4 .cfa: x29 96 + x19: .cfa -8 + ^ x20: .cfa -16 + ^ x21: .cfa -24 + ^ x22: .cfa -32 + ^ x23: .cfa -40 + ^ x24: .cfa -48 + ^ x25: .cfa -56 + ^ x26: .cfa -64 + ^ x27: .cfa -72 + ^ x28: .cfa -80 + ^ .ra: .cfa -88 + ^ x29: .cfa -96 + ^
STACK CFI 32930 .cfa: sp 128 +
STACK CFI 3294c .cfa: sp 0 +
STACK CFI 32950 .cfa: x29 96 +
STACK CFI INIT 329f4 154 .cfa: sp 0 +
STACK CFI 329f8 .cfa: sp 384 +
STACK CFI 32a0c .cfa: x29 64 + x19: .cfa -8 + ^ x20: .cfa -16 + ^ x21: .cfa -24 + ^ x22: .cfa -32 + ^ x23: .cfa -40 + ^ x28: .cfa -48 + ^ .ra: .cfa -56 + ^ x29: .cfa -64 + ^
STACK CFI 32af0 .cfa: sp 384 +
STACK CFI 32b04 .cfa: sp 0 +
STACK CFI 32b08 .cfa: x29 64 +
STACK CFI INIT 32b7c 12c .cfa: sp 0 +
STACK CFI 32b80 .cfa: sp 80 +
STACK CFI 32b94 .cfa: x29 80 + x19: .cfa -8 + ^ x20: .cfa -16 + ^ x21: .cfa -24 + ^ x22: .cfa -32 + ^ x23: .cfa -40 + ^ x24: .cfa -48 + ^ x25: .cfa -56 + ^ x26: .cfa -64 + ^ .ra: .cfa -72 + ^ x29: .cfa -80 + ^
STACK CFI 32c5c .cfa: sp 80 +
STACK CFI 32c70 .cfa: sp 0 +
STACK CFI 32c74 .cfa: x29 80 +
STACK CFI INIT 32d4c 1a4 .cfa: sp 0 +
STACK CFI 32d50 .cfa: sp 112 +
STACK CFI 32d68 .cfa: x29 80 + x19: .cfa -8 + ^ x20: .cfa -16 + ^ x21: .cfa -24 + ^ x22: .cfa -32 + ^ x23: .cfa -40 + ^ x24: .cfa -48 + ^ x25: .cfa -56 + ^ x26: .cfa -64 + ^ .ra: .cfa -72 + ^ x29: .cfa -80 + ^
STACK CFI 32e58 .cfa: sp 112 +
STACK CFI 32e70 .cfa: sp 0 +
STACK CFI 32e74 .cfa: x29 80 +
STACK CFI INIT 32ef0 1dc .cfa: sp 0 +
STACK CFI 32ef4 .cfa: sp 128 +
STACK CFI 32f10 .cfa: x29 96 + x19: .cfa -8 + ^ x20: .cfa -16 + ^ x21: .cfa -24 + ^ x22: .cfa -32 + ^ x23: .cfa -40 + ^ x24: .cfa -48 + ^ x25: .cfa -56 + ^ x26: .cfa -64 + ^ x27: .cfa -80 + ^ .ra: .cfa -88 + ^ x29: .cfa -96 + ^
STACK CFI 3307c .cfa: sp 128 +
STACK CFI 33098 .cfa: sp 0 +
STACK CFI 3309c .cfa: x29 96 +
STACK CFI INIT 330cc 178 .cfa: sp 0 +
STACK CFI 330d0 .cfa: sp 80 +
STACK CFI 330e4 .cfa: x29 80 + x19: .cfa -8 + ^ x20: .cfa -16 + ^ x21: .cfa -24 + ^ x22: .cfa -32 + ^ x23: .cfa -40 + ^ x24: .cfa -48 + ^ x25: .cfa -64 + ^ .ra: .cfa -72 + ^ x29: .cfa -80 + ^
STACK CFI 33210 .cfa: sp 80 +
STACK CFI 33224 .cfa: sp 0 +
STACK CFI 33228 .cfa: x29 80 +
STACK CFI INIT 3338c 168 .cfa: sp 0 +
STACK CFI 33390 .cfa: sp 384 +
STACK CFI 333a4 .cfa: x29 64 + x19: .cfa -8 + ^ x20: .cfa -16 + ^ x21: .cfa -24 + ^ x22: .cfa -32 + ^ x23: .cfa -40 + ^ x28: .cfa -48 + ^ .ra: .cfa -56 + ^ x29: .cfa -64 + ^
STACK CFI 3349c .cfa: sp 384 +
STACK CFI 334b0 .cfa: sp 0 +
STACK CFI 334b4 .cfa: x29 64 +
STACK CFI INIT 33588 174 .cfa: sp 0 +
STACK CFI 3358c .cfa: sp 112 +
STACK CFI 3359c .cfa: x29 48 + x19: .cfa -8 + ^ x20: .cfa -16 + ^ x21: .cfa -32 + ^ .ra: .cfa -40 + ^ x29: .cfa -48 + ^
STACK CFI 33698 .cfa: sp 112 +
STACK CFI 336a8 .cfa: sp 0 +
STACK CFI 336ac .cfa: x29 48 +
STACK CFI INIT 338d8 228 .cfa: sp 0 +
STACK CFI 338dc .cfa: sp 128 +
STACK CFI 338f4 .cfa: x29 80 + x19: .cfa -8 + ^ x20: .cfa -16 + ^ x21: .cfa -24 + ^ x22: .cfa -32 + ^ x23: .cfa -40 + ^ x24: .cfa -48 + ^ x25: .cfa -64 + ^ .ra: .cfa -72 + ^ x29: .cfa -80 + ^
STACK CFI 33a90 .cfa: sp 128 +
STACK CFI 33aa8 .cfa: sp 0 +
STACK CFI 33aac .cfa: x29 80 +
STACK CFI INIT 340e4 2f0 .cfa: sp 0 +
STACK CFI 340e8 .cfa: sp 96 +
STACK CFI 34100 .cfa: x29 96 + x19: .cfa -8 + ^ x20: .cfa -16 + ^ x21: .cfa -24 + ^ x22: .cfa -32 + ^ x23: .cfa -40 + ^ x24: .cfa -48 + ^ x25: .cfa -56 + ^ x26: .cfa -64 + ^ x27: .cfa -72 + ^ x28: .cfa -80 + ^ .ra: .cfa -88 + ^ x29: .cfa -96 + ^
STACK CFI 342f0 .cfa: sp 96 +
STACK CFI 34308 .cfa: sp 0 +
STACK CFI 3430c .cfa: x29 96 +
STACK CFI INIT 343d4 184 .cfa: sp 0 +
STACK CFI 343d8 .cfa: sp 160 +
STACK CFI 343f0 .cfa: x29 80 + x19: .cfa -8 + ^ x20: .cfa -16 + ^ x21: .cfa -24 + ^ x22: .cfa -32 + ^ x23: .cfa -40 + ^ x24: .cfa -48 + ^ x25: .cfa -56 + ^ x26: .cfa -64 + ^ .ra: .cfa -72 + ^ x29: .cfa -80 + ^
STACK CFI 344f0 .cfa: sp 160 +
STACK CFI 34508 .cfa: sp 0 +
STACK CFI 3450c .cfa: x29 80 +
STACK CFI INIT 34928 a8 .cfa: sp 0 +
STACK CFI 3492c .cfa: sp 32 +
STACK CFI 34934 .cfa: x29 32 + x19: .cfa -16 + ^ .ra: .cfa -24 + ^ x29: .cfa -32 + ^
STACK CFI 34968 .cfa: sp 32 +
STACK CFI 34970 .cfa: sp 0 +
STACK CFI 34974 .cfa: x29 32 +
STACK CFI 34978 .cfa: sp 32 +
STACK CFI 34980 .cfa: sp 0 +
STACK CFI 34984 .cfa: x29 32 +
STACK CFI INIT 34ce4 188 .cfa: sp 0 +
STACK CFI 34ce8 .cfa: sp 112 +
STACK CFI 34cf8 .cfa: x29 48 + x19: .cfa -8 + ^ x20: .cfa -16 + ^ x21: .cfa -32 + ^ .ra: .cfa -40 + ^ x29: .cfa -48 + ^
STACK CFI 34dc0 .cfa: sp 112 +
STACK CFI 34dd0 .cfa: sp 0 +
STACK CFI 34dd4 .cfa: x29 48 +
STACK CFI INIT 34e6c 2b8 .cfa: sp 0 +
STACK CFI 34e70 .cfa: sp 160 +
STACK CFI 34e8c .cfa: x29 96 + x19: .cfa -8 + ^ x20: .cfa -16 + ^ x21: .cfa -24 + ^ x22: .cfa -32 + ^ x23: .cfa -40 + ^ x24: .cfa -48 + ^ x25: .cfa -56 + ^ x26: .cfa -64 + ^ x27: .cfa -72 + ^ x28: .cfa -80 + ^ .ra: .cfa -88 + ^ x29: .cfa -96 + ^
STACK CFI 34ec4 .cfa: sp 160 +
STACK CFI 34ee0 .cfa: sp 0 +
STACK CFI 34ee4 .cfa: x29 96 +
STACK CFI INIT 35124 114 .cfa: sp 0 +
STACK CFI 35128 .cfa: sp 64 +
STACK CFI 35138 .cfa: x29 64 + x19: .cfa -8 + ^ x20: .cfa -16 + ^ x21: .cfa -24 + ^ x22: .cfa -32 + ^ x23: .cfa -48 + ^ .ra: .cfa -56 + ^ x29: .cfa -64 + ^
STACK CFI 35214 .cfa: sp 64 +
STACK CFI 35224 .cfa: sp 0 +
STACK CFI 35228 .cfa: x29 64 +
STACK CFI INIT 35250 22c .cfa: sp 0 +
STACK CFI 35254 .cfa: sp 96 +
STACK CFI 3526c .cfa: x29 96 + x19: .cfa -8 + ^ x20: .cfa -16 + ^ x21: .cfa -24 + ^ x22: .cfa -32 + ^ x23: .cfa -40 + ^ x24: .cfa -48 + ^ x25: .cfa -56 + ^ x26: .cfa -64 + ^ x27: .cfa -80 + ^ .ra: .cfa -88 + ^ x29: .cfa -96 + ^
STACK CFI 35410 .cfa: sp 96 +
STACK CFI 35428 .cfa: sp 0 +
STACK CFI 3542c .cfa: x29 96 +
STACK CFI INIT 354a4 50 .cfa: sp 0 +
STACK CFI 354a8 .cfa: sp 32 +
STACK CFI 354b0 .cfa: x29 32 + x19: .cfa -8 + ^ x20: .cfa -16 + ^ .ra: .cfa -24 + ^ x29: .cfa -32 + ^
STACK CFI INIT 35748 a8 .cfa: sp 0 +
STACK CFI 3574c .cfa: sp 32 +
STACK CFI 35754 .cfa: x29 32 + x19: .cfa -16 + ^ .ra: .cfa -24 + ^ x29: .cfa -32 + ^
STACK CFI 35788 .cfa: sp 32 +
STACK CFI 35790 .cfa: sp 0 +
STACK CFI 35794 .cfa: x29 32 +
STACK CFI 35798 .cfa: sp 32 +
STACK CFI 357a0 .cfa: sp 0 +
STACK CFI 357a4 .cfa: x29 32 +
STACK CFI INIT 357f0 a8 .cfa: sp 0 +
STACK CFI 357f4 .cfa: sp 32 +
STACK CFI 357fc .cfa: x29 32 + x19: .cfa -16 + ^ .ra: .cfa -24 + ^ x29: .cfa -32 + ^
STACK CFI 35830 .cfa: sp 32 +
STACK CFI 35838 .cfa: sp 0 +
STACK CFI 3583c .cfa: x29 32 +
STACK CFI 35840 .cfa: sp 32 +
STACK CFI 35848 .cfa: sp 0 +
STACK CFI 3584c .cfa: x29 32 +
STACK CFI INIT 35898 248 .cfa: sp 0 +
STACK CFI 3589c .cfa: sp 128 +
STACK CFI 358ac .cfa: x29 48 + x19: .cfa -8 + ^ x20: .cfa -16 + ^ x21: .cfa -24 + ^ x22: .cfa -32 + ^ .ra: .cfa -40 + ^ x29: .cfa -48 + ^
STACK CFI 35a14 .cfa: sp 128 +
STACK CFI 35a24 .cfa: sp 0 +
STACK CFI 35a28 .cfa: x29 48 +
STACK CFI INIT 35bb4 ac .cfa: sp 0 +
STACK CFI 35bb8 .cfa: sp 64 +
STACK CFI 35bc4 .cfa: x29 32 + x19: .cfa -8 + ^ x20: .cfa -16 + ^ .ra: .cfa -24 + ^ x29: .cfa -32 + ^
STACK CFI 35c20 .cfa: sp 64 +
STACK CFI 35c2c .cfa: sp 0 +
STACK CFI 35c30 .cfa: x29 32 +
STACK CFI INIT 35e60 824 .cfa: sp 0 +
STACK CFI 35e64 .cfa: sp 256 +
STACK CFI 35e80 .cfa: x29 96 + x19: .cfa -8 + ^ x20: .cfa -16 + ^ x21: .cfa -24 + ^ x22: .cfa -32 + ^ x23: .cfa -40 + ^ x24: .cfa -48 + ^ x25: .cfa -56 + ^ x26: .cfa -64 + ^ x27: .cfa -80 + ^ .ra: .cfa -88 + ^ x29: .cfa -96 + ^
STACK CFI 35fe4 .cfa: sp 256 +
STACK CFI 36000 .cfa: sp 0 +
STACK CFI 36004 .cfa: x29 96 +
STACK CFI 36468 .cfa: sp 256 +
STACK CFI 36484 .cfa: sp 0 +
STACK CFI 36488 .cfa: x29 96 +
STACK CFI INIT 366a0 380 .cfa: sp 0 +
STACK CFI 366a4 .cfa: sp 240 +
STACK CFI 366b8 .cfa: x29 64 + x19: .cfa -8 + ^ x20: .cfa -16 + ^ x21: .cfa -24 + ^ x22: .cfa -32 + ^ x23: .cfa -40 + ^ x24: .cfa -48 + ^ .ra: .cfa -56 + ^ x29: .cfa -64 + ^
STACK CFI 368f4 .cfa: sp 240 +
STACK CFI 36908 .cfa: sp 0 +
STACK CFI 3690c .cfa: x29 64 +
STACK CFI INIT 36a24 134 .cfa: sp 0 +
STACK CFI 36a28 .cfa: sp 80 +
STACK CFI 36a38 .cfa: x29 48 + x19: .cfa -8 + ^ x20: .cfa -16 + ^ x21: .cfa -24 + ^ x22: .cfa -32 + ^ .ra: .cfa -40 + ^ x29: .cfa -48 + ^
STACK CFI 36b3c .cfa: sp 80 +
STACK CFI 36b4c .cfa: sp 0 +
STACK CFI 36b50 .cfa: x29 48 +
STACK CFI INIT 36bf8 f4 .cfa: sp 0 +
STACK CFI 36bfc .cfa: sp 48 +
STACK CFI 36c08 .cfa: x29 48 + x19: .cfa -8 + ^ x20: .cfa -16 + ^ x21: .cfa -32 + ^ .ra: .cfa -40 + ^ x29: .cfa -48 + ^
STACK CFI 36c74 .cfa: sp 48 +
STACK CFI 36c80 .cfa: sp 0 +
STACK CFI 36c84 .cfa: x29 48 +
STACK CFI INIT 36d94 248 .cfa: sp 0 +
STACK CFI 36d98 .cfa: sp 160 +
STACK CFI 36da8 .cfa: x29 48 + x19: .cfa -8 + ^ x20: .cfa -16 + ^ x21: .cfa -24 + ^ x22: .cfa -32 + ^ .ra: .cfa -40 + ^ x29: .cfa -48 + ^
STACK CFI 36f24 .cfa: sp 160 +
STACK CFI 36f34 .cfa: sp 0 +
STACK CFI 36f38 .cfa: x29 48 +
STACK CFI 36f80 .cfa: sp 160 +
STACK CFI 36f90 .cfa: sp 0 +
STACK CFI 36f94 .cfa: x29 48 +
STACK CFI INIT 37004 74 .cfa: sp 0 +
STACK CFI 37008 .cfa: sp 48 +
STACK CFI 37014 .cfa: x29 32 + x19: .cfa -8 + ^ x20: .cfa -16 + ^ .ra: .cfa -24 + ^ x29: .cfa -32 + ^
STACK CFI 37060 .cfa: sp 48 +
STACK CFI 3706c .cfa: sp 0 +
STACK CFI 37070 .cfa: x29 32 +
STACK CFI INIT 3707c 174 .cfa: sp 0 +
STACK CFI 37080 .cfa: sp 112 +
STACK CFI 37090 .cfa: x29 48 + x19: .cfa -8 + ^ x20: .cfa -16 + ^ x21: .cfa -32 + ^ .ra: .cfa -40 + ^ x29: .cfa -48 + ^
STACK CFI 3718c .cfa: sp 112 +
STACK CFI 3719c .cfa: sp 0 +
STACK CFI 371a0 .cfa: x29 48 +
STACK CFI INIT 37520 8bc .cfa: sp 0 +
STACK CFI 37524 .cfa: sp 272 +
STACK CFI 37540 .cfa: x29 96 + x19: .cfa -8 + ^ x20: .cfa -16 + ^ x21: .cfa -24 + ^ x22: .cfa -32 + ^ x23: .cfa -40 + ^ x24: .cfa -48 + ^ x25: .cfa -56 + ^ x26: .cfa -64 + ^ x27: .cfa -72 + ^ x28: .cfa -80 + ^ .ra: .cfa -88 + ^ x29: .cfa -96 + ^
STACK CFI 376dc .cfa: sp 272 +
STACK CFI 376f8 .cfa: sp 0 +
STACK CFI 376fc .cfa: x29 96 +
STACK CFI 37b84 .cfa: sp 272 +
STACK CFI 37ba0 .cfa: sp 0 +
STACK CFI 37ba4 .cfa: x29 96 +
STACK CFI INIT 37df8 3b0 .cfa: sp 0 +
STACK CFI 37dfc .cfa: sp 224 +
STACK CFI 37e10 .cfa: x29 64 + x19: .cfa -8 + ^ x20: .cfa -16 + ^ x21: .cfa -24 + ^ x22: .cfa -32 + ^ x23: .cfa -48 + ^ .ra: .cfa -56 + ^ x29: .cfa -64 + ^
STACK CFI 38078 .cfa: sp 224 +
STACK CFI 3808c .cfa: sp 0 +
STACK CFI 38090 .cfa: x29 64 +
STACK CFI INIT 381ac 110 .cfa: sp 0 +
STACK CFI 381b0 .cfa: sp 96 +
STACK CFI 381c4 .cfa: x29 64 + x19: .cfa -8 + ^ x20: .cfa -16 + ^ x21: .cfa -24 + ^ x22: .cfa -32 + ^ x23: .cfa -40 + ^ x24: .cfa -48 + ^ .ra: .cfa -56 + ^ x29: .cfa -64 + ^
STACK CFI 3820c .cfa: sp 96 +
STACK CFI 38220 .cfa: sp 0 +
STACK CFI 38224 .cfa: x29 64 +
STACK CFI INIT 38348 414 .cfa: sp 0 +
STACK CFI 3834c .cfa: sp 96 +
STACK CFI 38364 .cfa: x29 96 + x19: .cfa -8 + ^ x20: .cfa -16 + ^ x21: .cfa -24 + ^ x22: .cfa -32 + ^ x23: .cfa -40 + ^ x24: .cfa -48 + ^ x25: .cfa -56 + ^ x26: .cfa -64 + ^ x27: .cfa -72 + ^ x28: .cfa -80 + ^ .ra: .cfa -88 + ^ x29: .cfa -96 + ^
STACK CFI 386e4 .cfa: sp 96 +
STACK CFI 386fc .cfa: sp 0 +
STACK CFI 38700 .cfa: x29 96 +
STACK CFI INIT 3875c 6c8 .cfa: sp 0 +
STACK CFI 38760 .cfa: sp 96 +
STACK CFI 38778 .cfa: x29 96 + x19: .cfa -8 + ^ x20: .cfa -16 + ^ x21: .cfa -24 + ^ x22: .cfa -32 + ^ x23: .cfa -40 + ^ x24: .cfa -48 + ^ x25: .cfa -56 + ^ x26: .cfa -64 + ^ x27: .cfa -72 + ^ x28: .cfa -80 + ^ .ra: .cfa -88 + ^ x29: .cfa -96 + ^
STACK CFI 38ca4 .cfa: sp 96 +
STACK CFI 38cbc .cfa: sp 0 +
STACK CFI 38cc0 .cfa: x29 96 +
STACK CFI INIT 38e24 8c8 .cfa: sp 0 +
STACK CFI 38e28 .cfa: sp 288 +
STACK CFI 38e44 .cfa: x29 96 + x19: .cfa -8 + ^ x20: .cfa -16 + ^ x21: .cfa -24 + ^ x22: .cfa -32 + ^ x23: .cfa -40 + ^ x24: .cfa -48 + ^ x25: .cfa -56 + ^ x26: .cfa -64 + ^ x27: .cfa -72 + ^ x28: .cfa -80 + ^ .ra: .cfa -88 + ^ x29: .cfa -96 + ^
STACK CFI 38ff0 .cfa: sp 288 +
STACK CFI 3900c .cfa: sp 0 +
STACK CFI 39010 .cfa: x29 96 +
STACK CFI 39494 .cfa: sp 288 +
STACK CFI 394b0 .cfa: sp 0 +
STACK CFI 394b4 .cfa: x29 96 +
STACK CFI INIT 39708 388 .cfa: sp 0 +
STACK CFI 3970c .cfa: sp 256 +
STACK CFI 39720 .cfa: x29 64 + x19: .cfa -8 + ^ x20: .cfa -16 + ^ x21: .cfa -24 + ^ x22: .cfa -32 + ^ x23: .cfa -48 + ^ .ra: .cfa -56 + ^ x29: .cfa -64 + ^
STACK CFI 39964 .cfa: sp 256 +
STACK CFI 39978 .cfa: sp 0 +
STACK CFI 3997c .cfa: x29 64 +
STACK CFI INIT 39a94 110 .cfa: sp 0 +
STACK CFI 39a98 .cfa: sp 96 +
STACK CFI 39aac .cfa: x29 64 + x19: .cfa -8 + ^ x20: .cfa -16 + ^ x21: .cfa -24 + ^ x22: .cfa -32 + ^ x23: .cfa -40 + ^ x24: .cfa -48 + ^ .ra: .cfa -56 + ^ x29: .cfa -64 + ^
STACK CFI 39af4 .cfa: sp 96 +
STACK CFI 39b08 .cfa: sp 0 +
STACK CFI 39b0c .cfa: x29 64 +
STACK CFI INIT 39c30 430 .cfa: sp 0 +
STACK CFI 39c34 .cfa: sp 112 +
STACK CFI 39c50 .cfa: x29 96 + x19: .cfa -8 + ^ x20: .cfa -16 + ^ x21: .cfa -24 + ^ x22: .cfa -32 + ^ x23: .cfa -40 + ^ x24: .cfa -48 + ^ x25: .cfa -56 + ^ x26: .cfa -64 + ^ x27: .cfa -72 + ^ x28: .cfa -80 + ^ .ra: .cfa -88 + ^ x29: .cfa -96 + ^ v8: .cfa -112 + ^
STACK CFI 39fe0 .cfa: sp 112 +
STACK CFI 39ffc .cfa: sp 0 +
STACK CFI 3a000 .cfa: x29 96 +
STACK CFI INIT 3a060 480 .cfa: sp 0 +
STACK CFI 3a064 .cfa: sp 224 +
STACK CFI 3a080 .cfa: x29 96 + x19: .cfa -8 + ^ x20: .cfa -16 + ^ x21: .cfa -24 + ^ x22: .cfa -32 + ^ x23: .cfa -40 + ^ x24: .cfa -48 + ^ x25: .cfa -56 + ^ x26: .cfa -64 + ^ x27: .cfa -80 + ^ .ra: .cfa -88 + ^ x29: .cfa -96 + ^
STACK CFI 3a2ec .cfa: sp 224 +
STACK CFI 3a308 .cfa: sp 0 +
STACK CFI 3a30c .cfa: x29 96 +
STACK CFI 3a3d8 .cfa: sp 224 +
STACK CFI 3a3f4 .cfa: sp 0 +
STACK CFI 3a3f8 .cfa: x29 96 +
STACK CFI INIT 3a4fc 638 .cfa: sp 0 +
STACK CFI 3a500 .cfa: sp 288 +
STACK CFI 3a51c .cfa: x29 96 + x19: .cfa -8 + ^ x20: .cfa -16 + ^ x21: .cfa -24 + ^ x22: .cfa -32 + ^ x23: .cfa -40 + ^ x24: .cfa -48 + ^ x25: .cfa -56 + ^ x26: .cfa -64 + ^ x28: .cfa -80 + ^ .ra: .cfa -88 + ^ x29: .cfa -96 + ^
STACK CFI 3a960 .cfa: sp 288 +
STACK CFI 3a97c .cfa: sp 0 +
STACK CFI 3a980 .cfa: x29 96 +
STACK CFI INIT 3ab38 1f0 .cfa: sp 0 +
STACK CFI 3ab3c .cfa: sp 96 +
STACK CFI 3ab50 .cfa: x29 64 + x19: .cfa -8 + ^ x20: .cfa -16 + ^ x21: .cfa -24 + ^ x22: .cfa -32 + ^ x23: .cfa -48 + ^ .ra: .cfa -56 + ^ x29: .cfa -64 + ^
STACK CFI 3ace0 .cfa: sp 96 +
STACK CFI 3acf4 .cfa: sp 0 +
STACK CFI 3acf8 .cfa: x29 64 +
STACK CFI INIT 3ad78 18c .cfa: sp 0 +
STACK CFI 3ad7c .cfa: sp 112 +
STACK CFI 3ad8c .cfa: x29 48 + x19: .cfa -8 + ^ x20: .cfa -16 + ^ x21: .cfa -32 + ^ .ra: .cfa -40 + ^ x29: .cfa -48 + ^
STACK CFI 3ae5c .cfa: sp 112 +
STACK CFI 3ae6c .cfa: sp 0 +
STACK CFI 3ae70 .cfa: x29 48 +
STACK CFI INIT 3af24 480 .cfa: sp 0 +
STACK CFI 3af28 .cfa: sp 224 +
STACK CFI 3af44 .cfa: x29 96 + x19: .cfa -8 + ^ x20: .cfa -16 + ^ x21: .cfa -24 + ^ x22: .cfa -32 + ^ x23: .cfa -40 + ^ x24: .cfa -48 + ^ x25: .cfa -56 + ^ x26: .cfa -64 + ^ x27: .cfa -80 + ^ .ra: .cfa -88 + ^ x29: .cfa -96 + ^
STACK CFI 3b1b0 .cfa: sp 224 +
STACK CFI 3b1cc .cfa: sp 0 +
STACK CFI 3b1d0 .cfa: x29 96 +
STACK CFI 3b29c .cfa: sp 224 +
STACK CFI 3b2b8 .cfa: sp 0 +
STACK CFI 3b2bc .cfa: x29 96 +
STACK CFI INIT 3b3c0 308 .cfa: sp 0 +
STACK CFI 3b3c4 .cfa: sp 176 +
STACK CFI 3b3d8 .cfa: x29 64 + x19: .cfa -8 + ^ x20: .cfa -16 + ^ x21: .cfa -24 + ^ x22: .cfa -32 + ^ x23: .cfa -48 + ^ .ra: .cfa -56 + ^ x29: .cfa -64 + ^
STACK CFI 3b5c0 .cfa: sp 176 +
STACK CFI 3b5d4 .cfa: sp 0 +
STACK CFI 3b5d8 .cfa: x29 64 +
STACK CFI INIT 3b6cc a14 .cfa: sp 0 +
STACK CFI 3b6d0 .cfa: sp 96 +
STACK CFI 3b6e8 .cfa: x29 96 + x19: .cfa -8 + ^ x20: .cfa -16 + ^ x21: .cfa -24 + ^ x22: .cfa -32 + ^ x23: .cfa -40 + ^ x24: .cfa -48 + ^ x25: .cfa -56 + ^ x26: .cfa -64 + ^ x27: .cfa -72 + ^ x28: .cfa -80 + ^ .ra: .cfa -88 + ^ x29: .cfa -96 + ^
STACK CFI 3bdd4 .cfa: sp 96 +
STACK CFI 3bdec .cfa: sp 0 +
STACK CFI 3bdf0 .cfa: x29 96 +
STACK CFI INIT 3c0e0 a8 .cfa: sp 0 +
STACK CFI 3c0e4 .cfa: sp 32 +
STACK CFI 3c0ec .cfa: x29 32 + x19: .cfa -16 + ^ .ra: .cfa -24 + ^ x29: .cfa -32 + ^
STACK CFI 3c120 .cfa: sp 32 +
STACK CFI 3c128 .cfa: sp 0 +
STACK CFI 3c12c .cfa: x29 32 +
STACK CFI 3c130 .cfa: sp 32 +
STACK CFI 3c138 .cfa: sp 0 +
STACK CFI 3c13c .cfa: x29 32 +
STACK CFI INIT 3c31c 164 .cfa: sp 0 +
STACK CFI 3c320 .cfa: sp 128 +
STACK CFI 3c334 .cfa: x29 64 + x19: .cfa -8 + ^ x20: .cfa -16 + ^ x21: .cfa -24 + ^ x22: .cfa -32 + ^ x23: .cfa -48 + ^ .ra: .cfa -56 + ^ x29: .cfa -64 + ^
STACK CFI 3c400 .cfa: sp 128 +
STACK CFI 3c414 .cfa: sp 0 +
STACK CFI 3c418 .cfa: x29 64 +
STACK CFI INIT 3c480 1a4 .cfa: sp 0 +
STACK CFI 3c484 .cfa: sp 144 +
STACK CFI 3c49c .cfa: x29 80 + x19: .cfa -8 + ^ x20: .cfa -16 + ^ x21: .cfa -24 + ^ x22: .cfa -32 + ^ x23: .cfa -40 + ^ x24: .cfa -48 + ^ x25: .cfa -64 + ^ .ra: .cfa -72 + ^ x29: .cfa -80 + ^
STACK CFI 3c5a8 .cfa: sp 144 +
STACK CFI 3c5c0 .cfa: sp 0 +
STACK CFI 3c5c4 .cfa: x29 80 +
STACK CFI INIT 3c624 127c .cfa: sp 0 +
STACK CFI 3c628 .cfa: sp 112 +
STACK CFI 3c644 .cfa: x29 96 + x19: .cfa -8 + ^ x20: .cfa -16 + ^ x21: .cfa -24 + ^ x22: .cfa -32 + ^ x23: .cfa -40 + ^ x24: .cfa -48 + ^ x25: .cfa -56 + ^ x26: .cfa -64 + ^ x27: .cfa -72 + ^ x28: .cfa -80 + ^ .ra: .cfa -88 + ^ x29: .cfa -96 + ^ v8: .cfa -104 + ^ v9: .cfa -112 + ^
STACK CFI 3d634 .cfa: sp 112 +
STACK CFI 3d650 .cfa: sp 0 +
STACK CFI 3d654 .cfa: x29 96 +
STACK CFI INIT 3d930 e4 .cfa: sp 0 +
STACK CFI 3d934 .cfa: sp 32 +
STACK CFI 3d93c .cfa: x29 32 + x19: .cfa -8 + ^ x20: .cfa -16 + ^ .ra: .cfa -24 + ^ x29: .cfa -32 + ^
STACK CFI 3d998 .cfa: sp 32 +
STACK CFI 3d9a0 .cfa: sp 0 +
STACK CFI 3d9a4 .cfa: x29 32 +
STACK CFI 3da00 .cfa: sp 32 +
STACK CFI 3da08 .cfa: sp 0 +
STACK CFI 3da0c .cfa: x29 32 +
STACK CFI INIT 3dcbc 1bc .cfa: sp 0 +
STACK CFI 3dcc0 .cfa: sp 112 +
STACK CFI 3dcd0 .cfa: x29 48 + x19: .cfa -8 + ^ x20: .cfa -16 + ^ x21: .cfa -24 + ^ x22: .cfa -32 + ^ .ra: .cfa -40 + ^ x29: .cfa -48 + ^
STACK CFI 3de34 .cfa: sp 112 +
STACK CFI 3de44 .cfa: sp 0 +
STACK CFI 3de48 .cfa: x29 48 +
STACK CFI INIT 3e1dc 1cc .cfa: sp 0 +
STACK CFI 3e1e0 .cfa: sp 128 +
STACK CFI 3e1f4 .cfa: x29 64 + x19: .cfa -8 + ^ x20: .cfa -16 + ^ x21: .cfa -24 + ^ x22: .cfa -32 + ^ x23: .cfa -48 + ^ .ra: .cfa -56 + ^ x29: .cfa -64 + ^
STACK CFI 3e360 .cfa: sp 128 +
STACK CFI 3e374 .cfa: sp 0 +
STACK CFI 3e378 .cfa: x29 64 +
STACK CFI INIT 3e5a0 31c .cfa: sp 0 +
STACK CFI 3e5a4 .cfa: sp 176 +
STACK CFI 3e5b8 .cfa: x29 64 + x19: .cfa -8 + ^ x20: .cfa -16 + ^ x21: .cfa -24 + ^ x22: .cfa -32 + ^ x23: .cfa -48 + ^ .ra: .cfa -56 + ^ x29: .cfa -64 + ^
STACK CFI 3e7fc .cfa: sp 176 +
STACK CFI 3e810 .cfa: sp 0 +
STACK CFI 3e814 .cfa: x29 64 +
STACK CFI INIT 3ece0 1b4 .cfa: sp 0 +
STACK CFI 3ece4 .cfa: sp 128 +
STACK CFI 3ecf8 .cfa: x29 64 + x19: .cfa -8 + ^ x20: .cfa -16 + ^ x21: .cfa -24 + ^ x22: .cfa -32 + ^ x23: .cfa -48 + ^ .ra: .cfa -56 + ^ x29: .cfa -64 + ^
STACK CFI 3ee4c .cfa: sp 128 +
STACK CFI 3ee60 .cfa: sp 0 +
STACK CFI 3ee64 .cfa: x29 64 +
STACK CFI INIT 3eec0 1cc .cfa: sp 0 +
STACK CFI 3eec4 .cfa: sp 128 +
STACK CFI 3eed4 .cfa: x29 48 + x19: .cfa -8 + ^ x20: .cfa -16 + ^ x21: .cfa -32 + ^ .ra: .cfa -40 + ^ x29: .cfa -48 + ^
STACK CFI 3f010 .cfa: sp 128 +
STACK CFI 3f020 .cfa: sp 0 +
STACK CFI 3f024 .cfa: x29 48 +
STACK CFI INIT 3f438 1d0 .cfa: sp 0 +
STACK CFI 3f43c .cfa: sp 128 +
STACK CFI 3f450 .cfa: x29 64 + x19: .cfa -8 + ^ x20: .cfa -16 + ^ x21: .cfa -24 + ^ x22: .cfa -32 + ^ x23: .cfa -48 + ^ .ra: .cfa -56 + ^ x29: .cfa -64 + ^
STACK CFI 3f5c8 .cfa: sp 128 +
STACK CFI 3f5dc .cfa: sp 0 +
STACK CFI 3f5e0 .cfa: x29 64 +
STACK CFI INIT 3f84c 1c4 .cfa: sp 0 +
STACK CFI 3f850 .cfa: sp 112 +
STACK CFI 3f860 .cfa: x29 48 + x19: .cfa -8 + ^ x20: .cfa -16 + ^ x21: .cfa -24 + ^ x22: .cfa -32 + ^ .ra: .cfa -40 + ^ x29: .cfa -48 + ^
STACK CFI 3f9d4 .cfa: sp 112 +
STACK CFI 3f9e4 .cfa: sp 0 +
STACK CFI 3f9e8 .cfa: x29 48 +
STACK CFI INIT 3fa4c cc .cfa: sp 0 +
STACK CFI 3fa50 .cfa: sp 64 +
STACK CFI 3fa5c .cfa: x29 32 + x19: .cfa -8 + ^ x20: .cfa -16 + ^ .ra: .cfa -24 + ^ x29: .cfa -32 + ^
STACK CFI 3faac .cfa: sp 64 +
STACK CFI 3fab8 .cfa: sp 0 +
STACK CFI 3fabc .cfa: x29 32 +
STACK CFI 3fae0 .cfa: sp 64 +
STACK CFI 3faec .cfa: sp 0 +
STACK CFI 3faf0 .cfa: x29 32 +
STACK CFI INIT 3fb44 80c .cfa: sp 0 +
STACK CFI 3fb48 .cfa: sp 272 +
STACK CFI 3fb64 .cfa: x29 96 + x19: .cfa -8 + ^ x20: .cfa -16 + ^ x21: .cfa -24 + ^ x22: .cfa -32 + ^ x23: .cfa -40 + ^ x24: .cfa -48 + ^ x25: .cfa -56 + ^ x26: .cfa -64 + ^ x27: .cfa -72 + ^ x28: .cfa -80 + ^ .ra: .cfa -88 + ^ x29: .cfa -96 + ^
STACK CFI 3fccc .cfa: sp 272 +
STACK CFI 3fce8 .cfa: sp 0 +
STACK CFI 3fcec .cfa: x29 96 +
STACK CFI 40134 .cfa: sp 272 +
STACK CFI 40150 .cfa: sp 0 +
STACK CFI 40154 .cfa: x29 96 +
STACK CFI INIT 4036c 380 .cfa: sp 0 +
STACK CFI 40370 .cfa: sp 240 +
STACK CFI 40384 .cfa: x29 64 + x19: .cfa -8 + ^ x20: .cfa -16 + ^ x21: .cfa -24 + ^ x22: .cfa -32 + ^ x23: .cfa -40 + ^ x24: .cfa -48 + ^ .ra: .cfa -56 + ^ x29: .cfa -64 + ^
STACK CFI 405c0 .cfa: sp 240 +
STACK CFI 405d4 .cfa: sp 0 +
STACK CFI 405d8 .cfa: x29 64 +
STACK CFI INIT 40744 248 .cfa: sp 0 +
STACK CFI 40748 .cfa: sp 160 +
STACK CFI 40758 .cfa: x29 48 + x19: .cfa -8 + ^ x20: .cfa -16 + ^ x21: .cfa -24 + ^ x22: .cfa -32 + ^ .ra: .cfa -40 + ^ x29: .cfa -48 + ^
STACK CFI 408d4 .cfa: sp 160 +
STACK CFI 408e4 .cfa: sp 0 +
STACK CFI 408e8 .cfa: x29 48 +
STACK CFI 40930 .cfa: sp 160 +
STACK CFI 40940 .cfa: sp 0 +
STACK CFI 40944 .cfa: x29 48 +
STACK CFI INIT 40be0 29c .cfa: sp 0 +
STACK CFI 40be4 .cfa: sp 96 +
STACK CFI 40bfc .cfa: x29 96 + x19: .cfa -8 + ^ x20: .cfa -16 + ^ x21: .cfa -24 + ^ x22: .cfa -32 + ^ x23: .cfa -40 + ^ x24: .cfa -48 + ^ x25: .cfa -56 + ^ x26: .cfa -64 + ^ x27: .cfa -72 + ^ x28: .cfa -80 + ^ .ra: .cfa -88 + ^ x29: .cfa -96 + ^
STACK CFI 40dc0 .cfa: sp 96 +
STACK CFI 40dd8 .cfa: sp 0 +
STACK CFI 40ddc .cfa: x29 96 +
STACK CFI INIT 40f44 398 .cfa: sp 0 +
STACK CFI 40f48 .cfa: sp 208 +
STACK CFI 40f60 .cfa: x29 80 + x19: .cfa -8 + ^ x20: .cfa -16 + ^ x21: .cfa -24 + ^ x22: .cfa -32 + ^ x23: .cfa -40 + ^ x24: .cfa -48 + ^ x25: .cfa -64 + ^ .ra: .cfa -72 + ^ x29: .cfa -80 + ^
STACK CFI 41224 .cfa: sp 208 +
STACK CFI 4123c .cfa: sp 0 +
STACK CFI 41240 .cfa: x29 80 +
STACK CFI INIT 41364 134 .cfa: sp 0 +
STACK CFI 41368 .cfa: sp 80 +
STACK CFI 41374 .cfa: x29 32 + x19: .cfa -8 + ^ x20: .cfa -16 + ^ .ra: .cfa -24 + ^ x29: .cfa -32 + ^
STACK CFI 413a4 .cfa: sp 80 +
STACK CFI 413b0 .cfa: sp 0 +
STACK CFI 413b4 .cfa: x29 32 +
STACK CFI INIT 41498 78 .cfa: sp 0 +
STACK CFI 4149c .cfa: sp 32 +
STACK CFI 414a4 .cfa: x29 32 + x19: .cfa -8 + ^ x20: .cfa -16 + ^ .ra: .cfa -24 + ^ x29: .cfa -32 + ^
STACK CFI 414b0 .cfa: sp 32 +
STACK CFI 414b8 .cfa: sp 0 +
STACK CFI 414bc .cfa: x29 32 +
STACK CFI INIT 41510 74 .cfa: sp 0 +
STACK CFI 41514 .cfa: sp 48 +
STACK CFI 41520 .cfa: x29 32 + x19: .cfa -8 + ^ x20: .cfa -16 + ^ .ra: .cfa -24 + ^ x29: .cfa -32 + ^
STACK CFI 4156c .cfa: sp 48 +
STACK CFI 41578 .cfa: sp 0 +
STACK CFI 4157c .cfa: x29 32 +
STACK CFI INIT 415e8 224 .cfa: sp 0 +
STACK CFI 415ec .cfa: sp 128 +
STACK CFI 415fc .cfa: x29 48 + x19: .cfa -8 + ^ x20: .cfa -16 + ^ x21: .cfa -32 + ^ .ra: .cfa -40 + ^ x29: .cfa -48 + ^
STACK CFI 416ac .cfa: sp 128 +
STACK CFI 416bc .cfa: sp 0 +
STACK CFI 416c0 .cfa: x29 48 +
STACK CFI INIT 41830 25c .cfa: sp 0 +
STACK CFI 41834 .cfa: sp 128 +
STACK CFI 41844 .cfa: x29 48 + x19: .cfa -8 + ^ x20: .cfa -16 + ^ x21: .cfa -32 + ^ .ra: .cfa -40 + ^ x29: .cfa -48 + ^
STACK CFI 4192c .cfa: sp 128 +
STACK CFI 4193c .cfa: sp 0 +
STACK CFI 41940 .cfa: x29 48 +
STACK CFI INIT 41b04 300 .cfa: sp 0 +
STACK CFI 41b08 .cfa: sp 144 +
STACK CFI 41b1c .cfa: x29 64 + x19: .cfa -8 + ^ x20: .cfa -16 + ^ x21: .cfa -24 + ^ x22: .cfa -32 + ^ x23: .cfa -48 + ^ .ra: .cfa -56 + ^ x29: .cfa -64 + ^
STACK CFI 41cb0 .cfa: sp 144 +
STACK CFI 41cc4 .cfa: sp 0 +
STACK CFI 41cc8 .cfa: x29 64 +
STACK CFI INIT 41e58 264 .cfa: sp 0 +
STACK CFI 41e5c .cfa: sp 128 +
STACK CFI 41e6c .cfa: x29 48 + x19: .cfa -8 + ^ x20: .cfa -16 + ^ x21: .cfa -32 + ^ .ra: .cfa -40 + ^ x29: .cfa -48 + ^
STACK CFI 41f64 .cfa: sp 128 +
STACK CFI 41f74 .cfa: sp 0 +
STACK CFI 41f78 .cfa: x29 48 +
STACK CFI INIT 42164 1b8 .cfa: sp 0 +
STACK CFI 42168 .cfa: sp 160 +
STACK CFI 42184 .cfa: x29 72 + x19: .cfa -8 + ^ x20: .cfa -16 + ^ x21: .cfa -24 + ^ x22: .cfa -32 + ^ x23: .cfa -40 + ^ x24: .cfa -48 + ^ x25: .cfa -56 + ^ .ra: .cfa -64 + ^ x29: .cfa -72 + ^ v8: .cfa -80 + ^
STACK CFI 42208 .cfa: sp 160 +
STACK CFI 42224 .cfa: sp 0 +
STACK CFI 42228 .cfa: x29 72 +
STACK CFI INIT 4231c 4e4 .cfa: sp 0 +
STACK CFI 42320 .cfa: sp 96 +
STACK CFI 42338 .cfa: x29 80 + x19: .cfa -8 + ^ x20: .cfa -16 + ^ x21: .cfa -24 + ^ x22: .cfa -32 + ^ x23: .cfa -40 + ^ x24: .cfa -48 + ^ x25: .cfa -64 + ^ .ra: .cfa -72 + ^ x29: .cfa -80 + ^
STACK CFI 4277c .cfa: sp 96 +
STACK CFI 42794 .cfa: sp 0 +
STACK CFI 42798 .cfa: x29 80 +
STACK CFI INIT 42808 180 .cfa: sp 0 +
STACK CFI 4280c .cfa: sp 128 +
STACK CFI 4281c .cfa: x29 48 + x19: .cfa -8 + ^ x20: .cfa -16 + ^ x21: .cfa -24 + ^ x22: .cfa -32 + ^ .ra: .cfa -40 + ^ x29: .cfa -48 + ^
STACK CFI 42880 .cfa: sp 128 +
STACK CFI 42890 .cfa: sp 0 +
STACK CFI 42894 .cfa: x29 48 +
STACK CFI INIT 42988 a4 .cfa: sp 0 +
STACK CFI 4298c .cfa: sp 48 +
STACK CFI 42998 .cfa: x29 48 + x19: .cfa -8 + ^ x20: .cfa -16 + ^ x21: .cfa -32 + ^ .ra: .cfa -40 + ^ x29: .cfa -48 + ^
STACK CFI 42a04 .cfa: sp 48 +
STACK CFI 42a10 .cfa: sp 0 +
STACK CFI 42a14 .cfa: x29 48 +
STACK CFI INIT 42a2c 344 .cfa: sp 0 +
STACK CFI 42a30 .cfa: sp 144 +
STACK CFI 42a44 .cfa: x29 64 + x19: .cfa -8 + ^ x20: .cfa -16 + ^ x21: .cfa -24 + ^ x22: .cfa -32 + ^ x23: .cfa -48 + ^ .ra: .cfa -56 + ^ x29: .cfa -64 + ^
STACK CFI 42c1c .cfa: sp 144 +
STACK CFI 42c30 .cfa: sp 0 +
STACK CFI 42c34 .cfa: x29 64 +
STACK CFI INIT 42dec 188 .cfa: sp 0 +
STACK CFI 42df0 .cfa: sp 144 +
STACK CFI 42e04 .cfa: x29 64 + x19: .cfa -8 + ^ x20: .cfa -16 + ^ x21: .cfa -24 + ^ x22: .cfa -32 + ^ x23: .cfa -48 + ^ .ra: .cfa -56 + ^ x29: .cfa -64 + ^
STACK CFI 42e68 .cfa: sp 144 +
STACK CFI 42e7c .cfa: sp 0 +
STACK CFI 42e80 .cfa: x29 64 +
STACK CFI INIT 42f74 10c .cfa: sp 0 +
STACK CFI 42f78 .cfa: sp 64 +
STACK CFI 42f88 .cfa: x29 48 + x19: .cfa -8 + ^ x20: .cfa -16 + ^ x21: .cfa -24 + ^ x22: .cfa -32 + ^ .ra: .cfa -40 + ^ x29: .cfa -48 + ^
STACK CFI 43038 .cfa: sp 64 +
STACK CFI 43048 .cfa: sp 0 +
STACK CFI 4304c .cfa: x29 48 +
STACK CFI INIT 43088 174 .cfa: sp 0 +
STACK CFI 4308c .cfa: sp 144 +
STACK CFI 430a0 .cfa: x29 64 + x19: .cfa -8 + ^ x20: .cfa -16 + ^ x21: .cfa -24 + ^ x22: .cfa -32 + ^ x23: .cfa -48 + ^ .ra: .cfa -56 + ^ x29: .cfa -64 + ^
STACK CFI 43104 .cfa: sp 144 +
STACK CFI 43118 .cfa: sp 0 +
STACK CFI 4311c .cfa: x29 64 +
STACK CFI INIT 431fc 10c .cfa: sp 0 +
STACK CFI 43200 .cfa: sp 64 +
STACK CFI 43210 .cfa: x29 48 + x19: .cfa -8 + ^ x20: .cfa -16 + ^ x21: .cfa -24 + ^ x22: .cfa -32 + ^ .ra: .cfa -40 + ^ x29: .cfa -48 + ^
STACK CFI 432c0 .cfa: sp 64 +
STACK CFI 432d0 .cfa: sp 0 +
STACK CFI 432d4 .cfa: x29 48 +
STACK CFI INIT 43310 174 .cfa: sp 0 +
STACK CFI 43314 .cfa: sp 144 +
STACK CFI 43328 .cfa: x29 64 + x19: .cfa -8 + ^ x20: .cfa -16 + ^ x21: .cfa -24 + ^ x22: .cfa -32 + ^ x23: .cfa -48 + ^ .ra: .cfa -56 + ^ x29: .cfa -64 + ^
STACK CFI 4338c .cfa: sp 144 +
STACK CFI 433a0 .cfa: sp 0 +
STACK CFI 433a4 .cfa: x29 64 +
STACK CFI INIT 43484 10c .cfa: sp 0 +
STACK CFI 43488 .cfa: sp 64 +
STACK CFI 43498 .cfa: x29 48 + x19: .cfa -8 + ^ x20: .cfa -16 + ^ x21: .cfa -24 + ^ x22: .cfa -32 + ^ .ra: .cfa -40 + ^ x29: .cfa -48 + ^
STACK CFI 43548 .cfa: sp 64 +
STACK CFI 43558 .cfa: sp 0 +
STACK CFI 4355c .cfa: x29 48 +
STACK CFI INIT 43598 2e4 .cfa: sp 0 +
STACK CFI 4359c .cfa: sp 144 +
STACK CFI 435b0 .cfa: x29 64 + x19: .cfa -8 + ^ x20: .cfa -16 + ^ x21: .cfa -24 + ^ x22: .cfa -32 + ^ x23: .cfa -48 + ^ .ra: .cfa -56 + ^ x29: .cfa -64 + ^
STACK CFI 43728 .cfa: sp 144 +
STACK CFI 4373c .cfa: sp 0 +
STACK CFI 43740 .cfa: x29 64 +
STACK CFI INIT 4387c 2e4 .cfa: sp 0 +
STACK CFI 43880 .cfa: sp 144 +
STACK CFI 43894 .cfa: x29 64 + x19: .cfa -8 + ^ x20: .cfa -16 + ^ x21: .cfa -24 + ^ x22: .cfa -32 + ^ x23: .cfa -48 + ^ .ra: .cfa -56 + ^ x29: .cfa -64 + ^
STACK CFI 43a0c .cfa: sp 144 +
STACK CFI 43a20 .cfa: sp 0 +
STACK CFI 43a24 .cfa: x29 64 +
STACK CFI INIT 43b60 2a0 .cfa: sp 0 +
STACK CFI 43b64 .cfa: sp 144 +
STACK CFI 43b78 .cfa: x29 64 + x19: .cfa -8 + ^ x20: .cfa -16 + ^ x21: .cfa -24 + ^ x22: .cfa -32 + ^ x23: .cfa -48 + ^ .ra: .cfa -56 + ^ x29: .cfa -64 + ^
STACK CFI 43cac .cfa: sp 144 +
STACK CFI 43cc0 .cfa: sp 0 +
STACK CFI 43cc4 .cfa: x29 64 +
STACK CFI INIT 43e00 2f0 .cfa: sp 0 +
STACK CFI 43e04 .cfa: sp 144 +
STACK CFI 43e18 .cfa: x29 64 + x19: .cfa -8 + ^ x20: .cfa -16 + ^ x21: .cfa -24 + ^ x22: .cfa -32 + ^ x23: .cfa -48 + ^ .ra: .cfa -56 + ^ x29: .cfa -64 + ^
STACK CFI 43f9c .cfa: sp 144 +
STACK CFI 43fb0 .cfa: sp 0 +
STACK CFI 43fb4 .cfa: x29 64 +
STACK CFI INIT 440f0 4f4 .cfa: sp 0 +
STACK CFI 440f4 .cfa: sp 144 +
STACK CFI 44108 .cfa: x29 64 + x19: .cfa -8 + ^ x20: .cfa -16 + ^ x21: .cfa -24 + ^ x22: .cfa -32 + ^ x23: .cfa -48 + ^ .ra: .cfa -56 + ^ x29: .cfa -64 + ^
STACK CFI 4443c .cfa: sp 144 +
STACK CFI 44450 .cfa: sp 0 +
STACK CFI 44454 .cfa: x29 64 +
STACK CFI INIT 445e4 154 .cfa: sp 0 +
STACK CFI 445e8 .cfa: sp 384 +
STACK CFI 445fc .cfa: x29 64 + x19: .cfa -8 + ^ x20: .cfa -16 + ^ x21: .cfa -24 + ^ x22: .cfa -32 + ^ x23: .cfa -40 + ^ x28: .cfa -48 + ^ .ra: .cfa -56 + ^ x29: .cfa -64 + ^
STACK CFI 446e0 .cfa: sp 384 +
STACK CFI 446f4 .cfa: sp 0 +
STACK CFI 446f8 .cfa: x29 64 +
STACK CFI INIT 44750 50c .cfa: sp 0 +
STACK CFI 44754 .cfa: sp 64 +
STACK CFI 44764 .cfa: x29 64 + x19: .cfa -8 + ^ x20: .cfa -16 + ^ x21: .cfa -24 + ^ x22: .cfa -32 + ^ x23: .cfa -40 + ^ x24: .cfa -48 + ^ .ra: .cfa -56 + ^ x29: .cfa -64 + ^
STACK CFI 44884 .cfa: sp 64 +
STACK CFI 44894 .cfa: sp 0 +
STACK CFI 44898 .cfa: x29 64 +
STACK CFI 44c30 .cfa: sp 64 +
STACK CFI 44c40 .cfa: sp 0 +
STACK CFI 44c44 .cfa: x29 64 +
STACK CFI INIT 44f8c 294 .cfa: sp 0 +
STACK CFI 44f90 .cfa: sp 240 +
STACK CFI 44fa8 .cfa: x29 80 + x19: .cfa -8 + ^ x20: .cfa -16 + ^ x21: .cfa -24 + ^ x22: .cfa -32 + ^ x23: .cfa -40 + ^ x24: .cfa -48 + ^ x25: .cfa -64 + ^ .ra: .cfa -72 + ^ x29: .cfa -80 + ^
STACK CFI 45148 .cfa: sp 240 +
STACK CFI 45160 .cfa: sp 0 +
STACK CFI 45164 .cfa: x29 80 +
STACK CFI INIT 4529c 50 .cfa: sp 0 +
STACK CFI 452a0 .cfa: sp 32 +
STACK CFI 452a8 .cfa: x29 32 + x19: .cfa -8 + ^ x20: .cfa -16 + ^ .ra: .cfa -24 + ^ x29: .cfa -32 + ^
STACK CFI INIT 45318 7c0 .cfa: sp 0 +
STACK CFI 4531c .cfa: sp 320 +
STACK CFI 45338 .cfa: x29 96 + x19: .cfa -8 + ^ x20: .cfa -16 + ^ x21: .cfa -24 + ^ x22: .cfa -32 + ^ x23: .cfa -40 + ^ x24: .cfa -48 + ^ x25: .cfa -56 + ^ x26: .cfa -64 + ^ x27: .cfa -72 + ^ x28: .cfa -80 + ^ .ra: .cfa -88 + ^ x29: .cfa -96 + ^
STACK CFI 45988 .cfa: sp 320 +
STACK CFI 459a4 .cfa: sp 0 +
STACK CFI 459a8 .cfa: x29 96 +
STACK CFI INIT 49e58 c74 .cfa: sp 0 +
STACK CFI 49e5c .cfa: sp 96 +
STACK CFI 49e74 .cfa: x29 96 + x19: .cfa -8 + ^ x20: .cfa -16 + ^ x21: .cfa -24 + ^ x22: .cfa -32 + ^ x23: .cfa -40 + ^ x24: .cfa -48 + ^ x25: .cfa -56 + ^ x26: .cfa -64 + ^ x27: .cfa -72 + ^ x28: .cfa -80 + ^ .ra: .cfa -88 + ^ x29: .cfa -96 + ^
STACK CFI 4a8ec .cfa: sp 96 +
STACK CFI 4a904 .cfa: sp 0 +
STACK CFI 4a908 .cfa: x29 96 +
STACK CFI INIT 4ac20 26c .cfa: sp 0 +
STACK CFI 4ac24 .cfa: sp 128 +
STACK CFI 4ac34 .cfa: x29 48 + x19: .cfa -8 + ^ x20: .cfa -16 + ^ x21: .cfa -24 + ^ x22: .cfa -32 + ^ .ra: .cfa -40 + ^ x29: .cfa -48 + ^
STACK CFI 4add8 .cfa: sp 128 +
STACK CFI 4ade8 .cfa: sp 0 +
STACK CFI 4adec .cfa: x29 48 +
STACK CFI INIT 4b21c 3b8 .cfa: sp 0 +
STACK CFI 4b220 .cfa: sp 96 +
STACK CFI 4b238 .cfa: x29 96 + x19: .cfa -8 + ^ x20: .cfa -16 + ^ x21: .cfa -24 + ^ x22: .cfa -32 + ^ x23: .cfa -40 + ^ x24: .cfa -48 + ^ x25: .cfa -56 + ^ x26: .cfa -64 + ^ x27: .cfa -72 + ^ x28: .cfa -80 + ^ .ra: .cfa -88 + ^ x29: .cfa -96 + ^
STACK CFI 4b574 .cfa: sp 96 +
STACK CFI 4b58c .cfa: sp 0 +
STACK CFI 4b590 .cfa: x29 96 +
STACK CFI INIT 4b674 cb4 .cfa: sp 0 +
STACK CFI 4b678 .cfa: sp 96 +
STACK CFI 4b690 .cfa: x29 96 + x19: .cfa -8 + ^ x20: .cfa -16 + ^ x21: .cfa -24 + ^ x22: .cfa -32 + ^ x23: .cfa -40 + ^ x24: .cfa -48 + ^ x25: .cfa -56 + ^ x26: .cfa -64 + ^ x27: .cfa -72 + ^ x28: .cfa -80 + ^ .ra: .cfa -88 + ^ x29: .cfa -96 + ^
STACK CFI 4c138 .cfa: sp 96 +
STACK CFI 4c150 .cfa: sp 0 +
STACK CFI 4c154 .cfa: x29 96 +
STACK CFI INIT 4c610 afc .cfa: sp 0 +
STACK CFI 4c614 .cfa: sp 96 +
STACK CFI 4c62c .cfa: x29 96 + x19: .cfa -8 + ^ x20: .cfa -16 + ^ x21: .cfa -24 + ^ x22: .cfa -32 + ^ x23: .cfa -40 + ^ x24: .cfa -48 + ^ x25: .cfa -56 + ^ x26: .cfa -64 + ^ x27: .cfa -72 + ^ x28: .cfa -80 + ^ .ra: .cfa -88 + ^ x29: .cfa -96 + ^
STACK CFI 4d080 .cfa: sp 96 +
STACK CFI 4d098 .cfa: sp 0 +
STACK CFI 4d09c .cfa: x29 96 +
STACK CFI INIT 4d2e8 1430 .cfa: sp 0 +
STACK CFI 4d2ec .cfa: sp 96 +
STACK CFI 4d304 .cfa: x29 96 + x19: .cfa -8 + ^ x20: .cfa -16 + ^ x21: .cfa -24 + ^ x22: .cfa -32 + ^ x23: .cfa -40 + ^ x24: .cfa -48 + ^ x25: .cfa -56 + ^ x26: .cfa -64 + ^ x27: .cfa -72 + ^ x28: .cfa -80 + ^ .ra: .cfa -88 + ^ x29: .cfa -96 + ^
STACK CFI 4e5a0 .cfa: sp 96 +
STACK CFI 4e5b8 .cfa: sp 0 +
STACK CFI 4e5bc .cfa: x29 96 +
STACK CFI INIT 4e83c 75c .cfa: sp 0 +
STACK CFI 4e840 .cfa: sp 368 +
STACK CFI 4e85c .cfa: x29 96 + x19: .cfa -8 + ^ x20: .cfa -16 + ^ x21: .cfa -24 + ^ x22: .cfa -32 + ^ x23: .cfa -40 + ^ x24: .cfa -48 + ^ x25: .cfa -56 + ^ x26: .cfa -64 + ^ x27: .cfa -72 + ^ x28: .cfa -80 + ^ .ra: .cfa -88 + ^ x29: .cfa -96 + ^
STACK CFI 4e910 .cfa: sp 368 +
STACK CFI 4e92c .cfa: sp 0 +
STACK CFI 4e930 .cfa: x29 96 +
STACK CFI 4e984 .cfa: sp 368 +
STACK CFI 4e9a0 .cfa: sp 0 +
STACK CFI 4e9a4 .cfa: x29 96 +
STACK CFI INIT 4f358 eb0 .cfa: sp 0 +
STACK CFI 4f35c .cfa: sp 96 +
STACK CFI 4f374 .cfa: x29 96 + x19: .cfa -8 + ^ x20: .cfa -16 + ^ x21: .cfa -24 + ^ x22: .cfa -32 + ^ x23: .cfa -40 + ^ x24: .cfa -48 + ^ x25: .cfa -56 + ^ x26: .cfa -64 + ^ x27: .cfa -72 + ^ x28: .cfa -80 + ^ .ra: .cfa -88 + ^ x29: .cfa -96 + ^
STACK CFI 5001c .cfa: sp 96 +
STACK CFI 50034 .cfa: sp 0 +
STACK CFI 50038 .cfa: x29 96 +
STACK CFI INIT 5057c 1c9c .cfa: sp 0 +
STACK CFI 50580 .cfa: sp 112 +
STACK CFI 5059c .cfa: x29 96 + x19: .cfa -8 + ^ x20: .cfa -16 + ^ x21: .cfa -24 + ^ x22: .cfa -32 + ^ x23: .cfa -40 + ^ x24: .cfa -48 + ^ x25: .cfa -56 + ^ x26: .cfa -64 + ^ x27: .cfa -72 + ^ x28: .cfa -80 + ^ .ra: .cfa -88 + ^ x29: .cfa -96 + ^ v8: .cfa -112 + ^
STACK CFI 50984 .cfa: sp 112 +
STACK CFI 509a0 .cfa: sp 0 +
STACK CFI 509a4 .cfa: x29 96 +
STACK CFI INIT 549dc 9a0 .cfa: sp 0 +
STACK CFI 549e0 .cfa: sp 144 +
STACK CFI 549f8 .cfa: x29 80 + x19: .cfa -8 + ^ x20: .cfa -16 + ^ x21: .cfa -24 + ^ x22: .cfa -32 + ^ x23: .cfa -40 + ^ x24: .cfa -48 + ^ x25: .cfa -64 + ^ .ra: .cfa -72 + ^ x29: .cfa -80 + ^
STACK CFI 552f8 .cfa: sp 144 +
STACK CFI 55310 .cfa: sp 0 +
STACK CFI 55314 .cfa: x29 80 +
STACK CFI INIT 568a0 57c .cfa: sp 0 +
STACK CFI 568a4 .cfa: sp 96 +
STACK CFI 568bc .cfa: x29 96 + x19: .cfa -8 + ^ x20: .cfa -16 + ^ x21: .cfa -24 + ^ x22: .cfa -32 + ^ x23: .cfa -40 + ^ x24: .cfa -48 + ^ x25: .cfa -56 + ^ x26: .cfa -64 + ^ x27: .cfa -72 + ^ x28: .cfa -80 + ^ .ra: .cfa -88 + ^ x29: .cfa -96 + ^
STACK CFI 56d80 .cfa: sp 96 +
STACK CFI 56d98 .cfa: sp 0 +
STACK CFI 56d9c .cfa: x29 96 +
STACK CFI INIT 56e1c 67c .cfa: sp 0 +
STACK CFI 56e20 .cfa: sp 96 +
STACK CFI 56e38 .cfa: x29 96 + x19: .cfa -8 + ^ x20: .cfa -16 + ^ x21: .cfa -24 + ^ x22: .cfa -32 + ^ x23: .cfa -40 + ^ x24: .cfa -48 + ^ x25: .cfa -56 + ^ x26: .cfa -64 + ^ x27: .cfa -72 + ^ x28: .cfa -80 + ^ .ra: .cfa -88 + ^ x29: .cfa -96 + ^
STACK CFI 573fc .cfa: sp 96 +
STACK CFI 57414 .cfa: sp 0 +
STACK CFI 57418 .cfa: x29 96 +
