MODULE Linux arm64 95062F291A21B41500C78DEFAED5E1BC0 alphalaneous.vanilla_pages.android64.so
INFO CODE_ID 292F0695211A15B400C78DEFAED5E1BC60B44C44
INFO GENERATOR mozilla/dump_syms 2.3.4
PUBLIC 6f60 0 __on_dlclose
PUBLIC 6f70 0 __emutls_unregister_key
PUBLIC 6f78 0 __on_dlclose_late
PUBLIC 6f80 0 __atexit_handler_wrapper
PUBLIC 6f94 0 atexit
PUBLIC 6fb0 0 pthread_atfork
PUBLIC 6fc0 0 unwind_phase2
PUBLIC 70f4 0 _Unwind_Resume
PUBLIC 7178 0 unwind_phase2_forced
PUBLIC m 726c 0 __unw_init_local
PUBLIC m 7314 0 __unw_get_reg
PUBLIC 7390 0 __unw_step_stage2
PUBLIC m 73a4 0 __unw_get_proc_info
PUBLIC m 73e4 0 __unw_resume
PUBLIC 740c 0 libunwind::CFI_Parser<libunwind::LocalAddressSpace>::decodeFDE(libunwind::LocalAddressSpace&, unsigned long, libunwind::CFI_Parser<libunwind::LocalAddressSpace>::FDE_Info*, libunwind::CFI_Parser<libunwind::LocalAddressSpace>::CIE_Info*, bool)
PUBLIC 759c 0 libunwind::CFI_Parser<libunwind::LocalAddressSpace>::parseCIE(libunwind::LocalAddressSpace&, unsigned long, libunwind::CFI_Parser<libunwind::LocalAddressSpace>::CIE_Info*)
PUBLIC 7864 0 libunwind::AbstractUnwindCursor::~AbstractUnwindCursor()
PUBLIC 786c 0 libunwind::UnwindCursor<libunwind::LocalAddressSpace, libunwind::Registers_arm64>::~UnwindCursor()
PUBLIC 7874 0 libunwind::UnwindCursor<libunwind::LocalAddressSpace, libunwind::Registers_arm64>::validReg(int)
PUBLIC 78b8 0 libunwind::UnwindCursor<libunwind::LocalAddressSpace, libunwind::Registers_arm64>::getReg(int)
PUBLIC 79a0 0 libunwind::UnwindCursor<libunwind::LocalAddressSpace, libunwind::Registers_arm64>::setReg(int, unsigned long)
PUBLIC 7a88 0 libunwind::UnwindCursor<libunwind::LocalAddressSpace, libunwind::Registers_arm64>::validFloatReg(int)
PUBLIC 7a9c 0 libunwind::UnwindCursor<libunwind::LocalAddressSpace, libunwind::Registers_arm64>::getFloatReg(int)
PUBLIC 7aac 0 libunwind::UnwindCursor<libunwind::LocalAddressSpace, libunwind::Registers_arm64>::setFloatReg(int, double)
PUBLIC 7abc 0 libunwind::UnwindCursor<libunwind::LocalAddressSpace, libunwind::Registers_arm64>::step(bool)
PUBLIC 7bac 0 libunwind::UnwindCursor<libunwind::LocalAddressSpace, libunwind::Registers_arm64>::getInfo(unw_proc_info_t*)
PUBLIC 7bf0 0 libunwind::UnwindCursor<libunwind::LocalAddressSpace, libunwind::Registers_arm64>::jumpto()
PUBLIC 7bfc 0 libunwind::UnwindCursor<libunwind::LocalAddressSpace, libunwind::Registers_arm64>::isSignalFrame()
PUBLIC 7c08 0 libunwind::UnwindCursor<libunwind::LocalAddressSpace, libunwind::Registers_arm64>::getFunctionName(char*, unsigned long, unsigned long*)
PUBLIC 7c34 0 libunwind::UnwindCursor<libunwind::LocalAddressSpace, libunwind::Registers_arm64>::setInfoBasedOnIPRegister(bool)
PUBLIC 7e70 0 libunwind::UnwindCursor<libunwind::LocalAddressSpace, libunwind::Registers_arm64>::getRegisterName(int)
PUBLIC 7e7c 0 libunwind::UnwindCursor<libunwind::LocalAddressSpace, libunwind::Registers_arm64>::stepThroughSigReturn(libunwind::Registers_arm64&)
PUBLIC 7f9c 0 libunwind::DwarfInstructions<libunwind::LocalAddressSpace, libunwind::Registers_arm64>::stepWithDwarf(libunwind::LocalAddressSpace&, unsigned long, unsigned long, libunwind::Registers_arm64&, bool&, bool)
PUBLIC 8430 0 libunwind::CFI_Parser<libunwind::LocalAddressSpace>::parseFDEInstructions(libunwind::LocalAddressSpace&, libunwind::CFI_Parser<libunwind::LocalAddressSpace>::FDE_Info const&, libunwind::CFI_Parser<libunwind::LocalAddressSpace>::CIE_Info const&, unsigned long, int, libunwind::CFI_Parser<libunwind::LocalAddressSpace>::PrologInfo*)
PUBLIC 8fa8 0 libunwind::DwarfInstructions<libunwind::LocalAddressSpace, libunwind::Registers_arm64>::getCFA(libunwind::LocalAddressSpace&, libunwind::CFI_Parser<libunwind::LocalAddressSpace>::PrologInfo const&, libunwind::Registers_arm64 const&)
PUBLIC 90dc 0 libunwind::DwarfInstructions<libunwind::LocalAddressSpace, libunwind::Registers_arm64>::getSavedRegister(libunwind::LocalAddressSpace&, libunwind::Registers_arm64 const&, unsigned long, libunwind::CFI_Parser<libunwind::LocalAddressSpace>::RegisterLocation const&)
PUBLIC 92ec 0 libunwind::LocalAddressSpace::getEncodedP(unsigned long&, unsigned long, unsigned char, unsigned long)
PUBLIC 9678 0 libunwind::LocalAddressSpace::getULEB128(unsigned long&, unsigned long)
PUBLIC 9840 0 libunwind::DwarfInstructions<libunwind::LocalAddressSpace, libunwind::Registers_arm64>::evaluateExpression(unsigned long, libunwind::LocalAddressSpace&, libunwind::Registers_arm64 const&, unsigned long)
PUBLIC a204 0 libunwind::UnwindCursor<libunwind::LocalAddressSpace, libunwind::Registers_arm64>::getInfoFromDwarfSection(unsigned long, libunwind::UnwindInfoSections const&, unsigned int)
PUBLIC a4d8 0 libunwind::findUnwindSectionsByPhdr(dl_phdr_info*, unsigned long, void*)
PUBLIC a608 0 libunwind::EHHeaderParser<libunwind::LocalAddressSpace>::decodeEHHdr(libunwind::LocalAddressSpace&, unsigned long, unsigned long, libunwind::EHHeaderParser<libunwind::LocalAddressSpace>::EHHeaderInfo&)
PUBLIC a728 0 libunwind::CFI_Parser<libunwind::LocalAddressSpace>::findFDE(libunwind::LocalAddressSpace&, unsigned long, unsigned long, unsigned long, unsigned long, libunwind::CFI_Parser<libunwind::LocalAddressSpace>::FDE_Info*, libunwind::CFI_Parser<libunwind::LocalAddressSpace>::CIE_Info*)
PUBLIC a8f0 0 libunwind::EHHeaderParser<libunwind::LocalAddressSpace>::findFDE(libunwind::LocalAddressSpace&, unsigned long, unsigned long, unsigned int, libunwind::CFI_Parser<libunwind::LocalAddressSpace>::FDE_Info*, libunwind::CFI_Parser<libunwind::LocalAddressSpace>::CIE_Info*)
PUBLIC aa58 0 libunwind::EHHeaderParser<libunwind::LocalAddressSpace>::getTableEntrySize(unsigned char)
PUBLIC ab54 0 libunwind::Registers_arm64::getRegisterName(int)
PUBLIC ab84 0 __libunwind_Registers_arm64_jumpto
PUBLIC m ac14 0 __unw_getcontext
PUBLIC acb0 0 __aarch64_ldadd8_relax
PUBLIC ace0 0 init_have_lse_atomics
PUBLIC ad78 0 __init_cpu_features_constructor
PUBLIC b024 0 __init_cpu_features
PUBLIC b0b0 0 __aarch64_ldadd8_acq_rel
PUBLIC b0e0 0 __cxx_global_var_init
PUBLIC b12c 0 geode::modifier::ModifyBase<geode::modifier::ModifyDerive<PageMenu, cocos2d::CCMenu> >::~ModifyBase()
PUBLIC b144 0 __cxx_global_var_init.1
PUBLIC b6e8 0 geode::modifier::ModifyBase<geode::modifier::ModifyDerive<PageCreatorLayer, CreatorLayer> >::~ModifyBase()
PUBLIC b700 0 __cxx_global_var_init.2
PUBLIC bca4 0 geode::modifier::ModifyBase<geode::modifier::ModifyDerive<PageMenuLayer, MenuLayer> >::~ModifyBase()
PUBLIC bcbc 0 __cxx_global_var_init.3
PUBLIC c2a4 0 geode::modifier::ModifyBase<geode::modifier::ModifyDerive<PagePauseLayer, PauseLayer> >::~ModifyBase()
PUBLIC c2bc 0 __cxx_global_var_init.4
PUBLIC c864 0 geode::modifier::ModifyBase<geode::modifier::ModifyDerive<PageLevelInfoLayer, LevelInfoLayer> >::~ModifyBase()
PUBLIC c87c 0 __cxx_global_var_init.5
PUBLIC ce20 0 geode::modifier::ModifyBase<geode::modifier::ModifyDerive<PageEditorUI, EditorUI> >::~ModifyBase()
PUBLIC ce38 0 __cxx_global_var_init.6
PUBLIC d3e0 0 geode::modifier::ModifyBase<geode::modifier::ModifyDerive<PageGJGarageLayer, GJGarageLayer> >::~ModifyBase()
PUBLIC d3f8 0 geode::modifier::ModifyDerive<PageMenu, cocos2d::CCMenu>::apply()
PUBLIC d3fc 0 std::__ndk1::shared_ptr<geode::Hook>::~shared_ptr[abi:ne190000]()
PUBLIC d44c 0 geode::impl::ResultData<geode::Hook*, std::__ndk1::basic_string<char, std::__ndk1::char_traits<char>, std::__ndk1::allocator<char> > >::~ResultData()
PUBLIC d4c0 0 std::__ndk1::vector<std::__ndk1::basic_string<char, std::__ndk1::char_traits<char>, std::__ndk1::allocator<char> >, std::__ndk1::allocator<std::__ndk1::basic_string<char, std::__ndk1::char_traits<char>, std::__ndk1::allocator<char> > > >::~vector[abi:ne190000]()
PUBLIC d53c 0 geode::modifier::ModifyBase<geode::modifier::ModifyDerive<PageMenu, cocos2d::CCMenu> >::apply()
PUBLIC d540 0 __clang_call_terminate
PUBLIC d550 0 _ZN5geode15UnwrapExceptionC2IRPNS_4HookEQsr4implE18IsStringStreamableIT_EEENS_4impl5OkTagEOS5_
PUBLIC d6a4 0 std::__ndk1::__throw_bad_variant_access[abi:ne190000]()
PUBLIC d6d8 0 std::__ndk1::basic_stringstream<char, std::__ndk1::char_traits<char>, std::__ndk1::allocator<char> >::basic_stringstream[abi:ne190000]()
PUBLIC m d80c 0 std::__ndk1::basic_stringstream<char, std::__ndk1::char_traits<char>, std::__ndk1::allocator<char> >::~basic_stringstream()
PUBLIC d88c 0 geode::UnwrapException::~UnwrapException()
PUBLIC d8b0 0 std::__ndk1::__put_character_sequence[abi:ne190000]<char, std::__ndk1::char_traits<char> >(std::__ndk1::basic_ostream<char, std::__ndk1::char_traits<char> >, std::__ndk1::basic_ostream const*, unsigned long)
PUBLIC db94 0 std::__ndk1::basic_string<char, std::__ndk1::char_traits<char>, std::__ndk1::allocator<char> >::__throw_length_error[abi:ne190000]() const
PUBLIC dba8 0 std::__ndk1::__throw_length_error[abi:ne190000](char const*)
PUBLIC dbf8 0 std::length_error::length_error[abi:ne190000](char const*)
PUBLIC dc28 0 std::__throw_bad_array_new_length([abi:ne190000], void)
PUBLIC dc5c 0 std::__ndk1::basic_stringbuf<char, std::__ndk1::char_traits<char>, std::__ndk1::allocator<char> >::str[abi:ne190000]() &&
PUBLIC dee0 0 std::__ndk1::basic_string<char, std::__ndk1::char_traits<char>, std::__ndk1::allocator<char> >::__erase_external_with_move(unsigned long, unsigned long)
PUBLIC df64 0 std::__ndk1::vector<std::__ndk1::basic_string<char, std::__ndk1::char_traits<char>, std::__ndk1::allocator<char> >, std::__ndk1::allocator<std::__ndk1::basic_string<char, std::__ndk1::char_traits<char>, std::__ndk1::allocator<char> > > >::__push_back_slow_path<std::__ndk1::basic_string<char, std::__ndk1::char_traits<char>, std::__ndk1::allocator<char> > const&>(std::__ndk1::basic_string<char, std::__ndk1::char_traits<char>, std::__ndk1::allocator<char> > const&)
PUBLIC e110 0 std::__ndk1::basic_string<char, std::__ndk1::char_traits<char>, std::__ndk1::allocator<char> >::__init_copy_ctor_external(char const*, unsigned long)
PUBLIC e1a0 0 std::__ndk1::__split_buffer<std::__ndk1::basic_string<char, std::__ndk1::char_traits<char>, std::__ndk1::allocator<char> >, std::__ndk1::allocator<std::__ndk1::basic_string<char, std::__ndk1::char_traits<char>, std::__ndk1::allocator<char> > >&>::~__split_buffer()
PUBLIC e208 0 std::__ndk1::vector<std::__ndk1::basic_string<char, std::__ndk1::char_traits<char>, std::__ndk1::allocator<char> >, std::__ndk1::allocator<std::__ndk1::basic_string<char, std::__ndk1::char_traits<char>, std::__ndk1::allocator<char> > > >::__throw_length_error[abi:ne190000]() const
PUBLIC e21c 0 std::__ndk1::__variant_detail::__visitation::__base::__dispatcher<(unsigned long)0>::__dispatch[abi:ne190000]<std::__ndk1::__variant_detail::__dtor<std::__ndk1::__variant_detail::__traits<geode::Hook*, std::__ndk1::basic_string<char, std::__ndk1::char_traits<char>, std::__ndk1::allocator<char> > >, (std::__ndk1::__variant_detail::_Trait)1>::__destroy[abi:ne190000]()::{lambda(auto:1&)#1}, std::__ndk1::__variant_detail::__base<(std::__ndk1::__variant_detail::__traits<geode::Hook*, std::__ndk1::basic_string<char, std::__ndk1::char_traits<char>, std::__ndk1::allocator<char> > >)1, geode::Hook, std::__ndk1::allocator<char> >&>(std::__ndk1::__variant_detail::__dtor<std::__ndk1::__variant_detail::__traits<geode::Hook*, std::__ndk1::basic_string<char, std::__ndk1::char_traits<char>, std::__ndk1::allocator<char> > >, (std::__ndk1::__variant_detail::_Trait)1>, std::__ndk1::__variant_detail::__base<(std::__ndk1::__variant_detail::__traits<geode::Hook*, std::__ndk1::basic_string<char, std::__ndk1::char_traits<char>, std::__ndk1::allocator<char> > >)1, geode::Hook, std::__ndk1::allocator<char> >&)
PUBLIC e220 0 std::__ndk1::__variant_detail::__visitation::__base::__dispatcher<(unsigned long)1>::__dispatch[abi:ne190000]<std::__ndk1::__variant_detail::__dtor<std::__ndk1::__variant_detail::__traits<geode::Hook*, std::__ndk1::basic_string<char, std::__ndk1::char_traits<char>, std::__ndk1::allocator<char> > >, (std::__ndk1::__variant_detail::_Trait)1>::__destroy[abi:ne190000]()::{lambda(auto:1&)#1}, std::__ndk1::__variant_detail::__base<(std::__ndk1::__variant_detail::__traits<geode::Hook*, std::__ndk1::basic_string<char, std::__ndk1::char_traits<char>, std::__ndk1::allocator<char> > >)1, geode::Hook, std::__ndk1::allocator<char> >&>(std::__ndk1::__variant_detail::__dtor<std::__ndk1::__variant_detail::__traits<geode::Hook*, std::__ndk1::basic_string<char, std::__ndk1::char_traits<char>, std::__ndk1::allocator<char> > >, (std::__ndk1::__variant_detail::_Trait)1>, std::__ndk1::__variant_detail::__base<(std::__ndk1::__variant_detail::__traits<geode::Hook*, std::__ndk1::basic_string<char, std::__ndk1::char_traits<char>, std::__ndk1::allocator<char> > >)1, geode::Hook, std::__ndk1::allocator<char> >&)
PUBLIC e234 0 std::__ndk1::__tree<std::__ndk1::__value_type<std::__ndk1::basic_string<char, std::__ndk1::char_traits<char>, std::__ndk1::allocator<char> >, std::__ndk1::shared_ptr<geode::Hook> >, std::__ndk1::__map_value_compare<std::__ndk1::basic_string<char, std::__ndk1::char_traits<char>, std::__ndk1::allocator<char> >, std::__ndk1::__value_type<std::__ndk1::basic_string<char, std::__ndk1::char_traits<char>, std::__ndk1::allocator<char> >, std::__ndk1::shared_ptr<geode::Hook> >, std::__ndk1::less<std::__ndk1::basic_string<char, std::__ndk1::char_traits<char>, std::__ndk1::allocator<char> > >, true>, std::__ndk1::allocator<std::__ndk1::__value_type<std::__ndk1::basic_string<char, std::__ndk1::char_traits<char>, std::__ndk1::allocator<char> >, std::__ndk1::shared_ptr<geode::Hook> > > >::find<std::__ndk1::basic_string<char, std::__ndk1::char_traits<char>, std::__ndk1::allocator<char> > >(std::__ndk1::basic_string<char, std::__ndk1::char_traits<char>, std::__ndk1::allocator<char> > const&)
PUBLIC e35c 0 std::__ndk1::__tree<std::__ndk1::__value_type<std::__ndk1::basic_string<char, std::__ndk1::char_traits<char>, std::__ndk1::allocator<char> >, std::__ndk1::shared_ptr<geode::Hook> >, std::__ndk1::__map_value_compare<std::__ndk1::basic_string<char, std::__ndk1::char_traits<char>, std::__ndk1::allocator<char> >, std::__ndk1::__value_type<std::__ndk1::basic_string<char, std::__ndk1::char_traits<char>, std::__ndk1::allocator<char> >, std::__ndk1::shared_ptr<geode::Hook> >, std::__ndk1::less<std::__ndk1::basic_string<char, std::__ndk1::char_traits<char>, std::__ndk1::allocator<char> > >, true>, std::__ndk1::allocator<std::__ndk1::__value_type<std::__ndk1::basic_string<char, std::__ndk1::char_traits<char>, std::__ndk1::allocator<char> >, std::__ndk1::shared_ptr<geode::Hook> > > >::erase(std::__ndk1::__tree_const_iterator<std::__ndk1::__value_type<std::__ndk1::basic_string<char, std::__ndk1::char_traits<char>, std::__ndk1::allocator<char> >, std::__ndk1::shared_ptr<geode::Hook> >, std::__ndk1::__tree_node<std::__ndk1::__value_type<std::__ndk1::basic_string<char, std::__ndk1::char_traits<char>, std::__ndk1::allocator<char> >, std::__ndk1::shared_ptr<geode::Hook> >, void*>*, long>)
PUBLIC e800 0 std::__ndk1::__tree<std::__ndk1::__value_type<std::__ndk1::basic_string<char, std::__ndk1::char_traits<char>, std::__ndk1::allocator<char> >, std::__ndk1::shared_ptr<geode::Hook> >, std::__ndk1::__map_value_compare<std::__ndk1::basic_string<char, std::__ndk1::char_traits<char>, std::__ndk1::allocator<char> >, std::__ndk1::__value_type<std::__ndk1::basic_string<char, std::__ndk1::char_traits<char>, std::__ndk1::allocator<char> >, std::__ndk1::shared_ptr<geode::Hook> >, std::__ndk1::less<std::__ndk1::basic_string<char, std::__ndk1::char_traits<char>, std::__ndk1::allocator<char> > >, true>, std::__ndk1::allocator<std::__ndk1::__value_type<std::__ndk1::basic_string<char, std::__ndk1::char_traits<char>, std::__ndk1::allocator<char> >, std::__ndk1::shared_ptr<geode::Hook> > > >::destroy(std::__ndk1::__tree_node<std::__ndk1::__value_type<std::__ndk1::basic_string<char, std::__ndk1::char_traits<char>, std::__ndk1::allocator<char> >, std::__ndk1::shared_ptr<geode::Hook> >, void*>*)
PUBLIC e884 0 geode::modifier::ModifyDerive<PageCreatorLayer, CreatorLayer>::apply()
PUBLIC eb74 0 geode::modifier::ModifyBase<geode::modifier::ModifyDerive<PageCreatorLayer, CreatorLayer> >::apply()
PUBLIC eb78 0 std::__ndk1::__tree<std::__ndk1::__value_type<std::__ndk1::basic_string<char, std::__ndk1::char_traits<char>, std::__ndk1::allocator<char> >, std::__ndk1::shared_ptr<geode::Hook> >, std::__ndk1::__map_value_compare<std::__ndk1::basic_string<char, std::__ndk1::char_traits<char>, std::__ndk1::allocator<char> >, std::__ndk1::__value_type<std::__ndk1::basic_string<char, std::__ndk1::char_traits<char>, std::__ndk1::allocator<char> >, std::__ndk1::shared_ptr<geode::Hook> >, std::__ndk1::less<std::__ndk1::basic_string<char, std::__ndk1::char_traits<char>, std::__ndk1::allocator<char> > >, true>, std::__ndk1::allocator<std::__ndk1::__value_type<std::__ndk1::basic_string<char, std::__ndk1::char_traits<char>, std::__ndk1::allocator<char> >, std::__ndk1::shared_ptr<geode::Hook> > > >::__emplace_unique_key_args<std::__ndk1::basic_string<char, std::__ndk1::char_traits<char>, std::__ndk1::allocator<char> >, std::__ndk1::piecewise_construct_t const&, std::__ndk1::tuple<std::__ndk1::basic_string<char, std::__ndk1::char_traits<char>, std::__ndk1::allocator<char> > const&>, std::__ndk1::tuple<> >(std::__ndk1::basic_string<char, std::__ndk1::char_traits<char>, std::__ndk1::allocator<char> > const&, std::__ndk1::piecewise_construct_t const&, std::__ndk1::tuple<std::__ndk1::basic_string<char, std::__ndk1::char_traits<char>, std::__ndk1::allocator<char> > const&>, std::__ndk1::tuple<>)
PUBLIC ed4c 0 std::__ndk1::unique_ptr<std::__ndk1::__tree_node<std::__ndk1::__value_type<std::__ndk1::basic_string<char, std::__ndk1::char_traits<char>, std::__ndk1::allocator<char> >, std::__ndk1::shared_ptr<geode::Hook> >, void*>, std::__ndk1::__tree_node_destructor<std::__ndk1::allocator<std::__ndk1::__tree_node<std::__ndk1::__value_type<std::__ndk1::basic_string<char, std::__ndk1::char_traits<char>, std::__ndk1::allocator<char> >, std::__ndk1::shared_ptr<geode::Hook> >, void*> > > >::~unique_ptr[abi:ne190000]()
PUBLIC edc8 0 std::__ndk1::__tree_balance_after_insert[abi:ne190000]<std::__ndk1::__tree_node_base<void*>*>(std::__ndk1::__tree_node_base<void*>*, std::__ndk1::__tree_node_base<void*>*)
PUBLIC ef70 0 std::__ndk1::__variant_detail::__visitation::__base::__dispatcher<(unsigned long)0>::__dispatch[abi:ne190000]<std::__ndk1::__variant_detail::__dtor<std::__ndk1::__variant_detail::__traits<std::__ndk1::monostate, std::__ndk1::basic_string<char, std::__ndk1::char_traits<char>, std::__ndk1::allocator<char> > >, (std::__ndk1::__variant_detail::_Trait)1>::__destroy[abi:ne190000]()::{lambda(auto:1&)#1}, std::__ndk1::__variant_detail::__base<(std::__ndk1::__variant_detail::__traits<std::__ndk1::monostate, std::__ndk1::basic_string<char, std::__ndk1::char_traits<char>, std::__ndk1::allocator<char> > >)1, std::__ndk1::__variant_detail::__traits, std::__ndk1::allocator<char> >&>(std::__ndk1::__variant_detail::__dtor<std::__ndk1::__variant_detail::__traits<std::__ndk1::monostate, std::__ndk1::basic_string<char, std::__ndk1::char_traits<char>, std::__ndk1::allocator<char> > >, (std::__ndk1::__variant_detail::_Trait)1>, std::__ndk1::__variant_detail::__base<(std::__ndk1::__variant_detail::__traits<std::__ndk1::monostate, std::__ndk1::basic_string<char, std::__ndk1::char_traits<char>, std::__ndk1::allocator<char> > >)1, std::__ndk1::__variant_detail::__traits, std::__ndk1::allocator<char> >&)
PUBLIC ef74 0 std::__ndk1::__variant_detail::__visitation::__base::__dispatcher<(unsigned long)1>::__dispatch[abi:ne190000]<std::__ndk1::__variant_detail::__dtor<std::__ndk1::__variant_detail::__traits<std::__ndk1::monostate, std::__ndk1::basic_string<char, std::__ndk1::char_traits<char>, std::__ndk1::allocator<char> > >, (std::__ndk1::__variant_detail::_Trait)1>::__destroy[abi:ne190000]()::{lambda(auto:1&)#1}, std::__ndk1::__variant_detail::__base<(std::__ndk1::__variant_detail::__traits<std::__ndk1::monostate, std::__ndk1::basic_string<char, std::__ndk1::char_traits<char>, std::__ndk1::allocator<char> > >)1, std::__ndk1::__variant_detail::__traits, std::__ndk1::allocator<char> >&>(std::__ndk1::__variant_detail::__dtor<std::__ndk1::__variant_detail::__traits<std::__ndk1::monostate, std::__ndk1::basic_string<char, std::__ndk1::char_traits<char>, std::__ndk1::allocator<char> > >, (std::__ndk1::__variant_detail::_Trait)1>, std::__ndk1::__variant_detail::__base<(std::__ndk1::__variant_detail::__traits<std::__ndk1::monostate, std::__ndk1::basic_string<char, std::__ndk1::char_traits<char>, std::__ndk1::allocator<char> > >)1, std::__ndk1::__variant_detail::__traits, std::__ndk1::allocator<char> >&)
PUBLIC ef88 0 geode::modifier::AsStaticFunction_init<PageCreatorLayer, bool (PageCreatorLayer::*)()>::Impl<bool (PageCreatorLayer::*)()>::function(PageCreatorLayer*)
PUBLIC f070 0 geode::addresser::Addresser::addressOfVirtual<bool, CreatorLayer, >(bool (CreatorLayer::*)())
PUBLIC f118 0 CreatorLayer::CreatorLayer(geode::ZeroConstructorType)
PUBLIC f1b0 0 std::__ndk1::shared_ptr<tulip::hook::CallingConvention>::~shared_ptr[abi:ne190000]()
PUBLIC f200 0 tulip::hook::HandlerMetadata::~HandlerMetadata()
PUBLIC f264 0 geode::Mod::getSettingValue<bool>(std::__ndk1::basic_string_view<char, std::__ndk1::char_traits<char> >) const
PUBLIC f38c 0 geode::cast::traverseTypeinfoFor(void*, geode::cast::ClassTypeinfoType const*, char const*)
PUBLIC f484 0 std::__ndk1::__tree<std::__ndk1::__value_type<std::__ndk1::basic_string<char, std::__ndk1::char_traits<char>, std::__ndk1::allocator<char> >, std::__ndk1::shared_ptr<geode::Hook> >, std::__ndk1::__map_value_compare<std::__ndk1::basic_string<char, std::__ndk1::char_traits<char>, std::__ndk1::allocator<char> >, std::__ndk1::__value_type<std::__ndk1::basic_string<char, std::__ndk1::char_traits<char>, std::__ndk1::allocator<char> >, std::__ndk1::shared_ptr<geode::Hook> >, std::__ndk1::less<std::__ndk1::basic_string<char, std::__ndk1::char_traits<char>, std::__ndk1::allocator<char> > >, true>, std::__ndk1::allocator<std::__ndk1::__value_type<std::__ndk1::basic_string<char, std::__ndk1::char_traits<char>, std::__ndk1::allocator<char> >, std::__ndk1::shared_ptr<geode::Hook> > > >::__emplace_unique_key_args<std::__ndk1::basic_string<char, std::__ndk1::char_traits<char>, std::__ndk1::allocator<char> >, std::__ndk1::piecewise_construct_t const&, std::__ndk1::tuple<std::__ndk1::basic_string<char, std::__ndk1::char_traits<char>, std::__ndk1::allocator<char> >&&>, std::__ndk1::tuple<> >(std::__ndk1::basic_string<char, std::__ndk1::char_traits<char>, std::__ndk1::allocator<char> > const&, std::__ndk1::piecewise_construct_t const&, std::__ndk1::tuple<std::__ndk1::basic_string<char, std::__ndk1::char_traits<char>, std::__ndk1::allocator<char> >&&>, std::__ndk1::tuple<>)
PUBLIC f5ec 0 geode::modifier::ModifyDerive<PageMenuLayer, MenuLayer>::apply()
PUBLIC f8d0 0 geode::modifier::ModifyBase<geode::modifier::ModifyDerive<PageMenuLayer, MenuLayer> >::apply()
PUBLIC f8d4 0 geode::modifier::AsStaticFunction_init<PageMenuLayer, bool (PageMenuLayer::*)()>::Impl<bool (PageMenuLayer::*)()>::function(PageMenuLayer*)
PUBLIC fa44 0 geode::addresser::Addresser::addressOfVirtual<bool, MenuLayer, >(bool (MenuLayer::*)())
PUBLIC faec 0 MenuLayer::MenuLayer(geode::ZeroConstructorType)
PUBLIC fb88 0 geode::modifier::ModifyDerive<PagePauseLayer, PauseLayer>::apply()
PUBLIC fe94 0 geode::modifier::ModifyBase<geode::modifier::ModifyDerive<PagePauseLayer, PauseLayer> >::apply()
PUBLIC fe98 0 geode::modifier::AsStaticFunction_customSetup<PagePauseLayer, void (PagePauseLayer::*)()>::Impl<void (PagePauseLayer::*)()>::function(PagePauseLayer*)
PUBLIC 10248 0 geode::addresser::Addresser::addressOfVirtual<void, PauseLayer, >(void (PauseLayer::*)())
PUBLIC 102f0 0 PauseLayer::PauseLayer(geode::ZeroConstructorType)
PUBLIC 1037c 0 geode::modifier::ModifyDerive<PageLevelInfoLayer, LevelInfoLayer>::apply()
PUBLIC 109cc 0 geode::modifier::ModifyBase<geode::modifier::ModifyDerive<PageLevelInfoLayer, LevelInfoLayer> >::apply()
PUBLIC 109d0 0 geode::modifier::AsStaticFunction_levelDownloadFinished<PageLevelInfoLayer, void (PageLevelInfoLayer::*)(GJGameLevel*)>::Impl<void (PageLevelInfoLayer::*)(GJGameLevel*)>::function(PageLevelInfoLayer*, GJGameLevel*)
PUBLIC 10a6c 0 geode::modifier::AsStaticFunction_init<PageLevelInfoLayer, bool (PageLevelInfoLayer::*)(GJGameLevel*, bool)>::Impl<bool (PageLevelInfoLayer::*)(GJGameLevel*, bool)>::function(PageLevelInfoLayer*, GJGameLevel*, bool)
PUBLIC 10bec 0 geode::addresser::Addresser::addressOfVirtual<void, LevelInfoLayer, GJGameLevel*>(void (LevelInfoLayer::*)(GJGameLevel*))
PUBLIC 10c94 0 LevelInfoLayer::LevelInfoLayer(geode::ZeroConstructorType)
PUBLIC 10d48 0 geode::modifier::ModifyDerive<PageEditorUI, EditorUI>::apply()
PUBLIC 11080 0 geode::modifier::ModifyBase<geode::modifier::ModifyDerive<PageEditorUI, EditorUI> >::apply()
PUBLIC 11084 0 geode::modifier::AsStaticFunction_init<PageEditorUI, bool (PageEditorUI::*)(LevelEditorLayer*)>::Impl<bool (PageEditorUI::*)(LevelEditorLayer*)>::function(PageEditorUI*, LevelEditorLayer*)
PUBLIC 1123c 0 PageEditorUI::createPageForTabs(std::__ndk1::basic_string<char, std::__ndk1::char_traits<char>, std::__ndk1::allocator<char> >)
PUBLIC 11390 0 geode::modifier::ModifyDerive<PageGJGarageLayer, GJGarageLayer>::apply()
PUBLIC 11688 0 geode::modifier::ModifyBase<geode::modifier::ModifyDerive<PageGJGarageLayer, GJGarageLayer> >::apply()
PUBLIC 1168c 0 geode::modifier::AsStaticFunction_init<PageGJGarageLayer, bool (PageGJGarageLayer::*)()>::Impl<bool (PageGJGarageLayer::*)()>::function(PageGJGarageLayer*)
PUBLIC 11824 0 geode::addresser::Addresser::addressOfVirtual<bool, GJGarageLayer, >(bool (GJGarageLayer::*)())
PUBLIC 118cc 0 GJGarageLayer::GJGarageLayer(geode::ZeroConstructorType)
PUBLIC 11980 0 geode::getMod()
PUBLIC m 119bc 0 geodeImplicitEntry
PUBLIC 11a00 0 <.plt ELF section in alphalaneous.vanilla_pages.android64.so>
STACK CFI INIT 6f60 10 .cfa: sp 0 +
STACK CFI INIT 6f70 8 .cfa: sp 0 +
STACK CFI INIT 6f78 8 .cfa: sp 0 +
STACK CFI INIT 6f80 14 .cfa: sp 0 +
STACK CFI INIT 6f94 1c .cfa: sp 0 +
STACK CFI INIT 6fb0 10 .cfa: sp 0 +
STACK CFI INIT 6fc0 134 .cfa: sp 0 +
STACK CFI INIT 70f4 84 .cfa: sp 0 +
STACK CFI INIT 7178 f4 .cfa: sp 0 +
STACK CFI INIT 726c a8 .cfa: sp 0 +
STACK CFI INIT 7314 7c .cfa: sp 0 +
STACK CFI INIT 7390 14 .cfa: sp 0 +
STACK CFI INIT 73a4 40 .cfa: sp 0 +
STACK CFI INIT 73e4 28 .cfa: sp 0 +
STACK CFI INIT 740c 190 .cfa: sp 0 +
STACK CFI INIT 759c 2c8 .cfa: sp 0 +
STACK CFI INIT 7864 8 .cfa: sp 0 +
STACK CFI INIT 786c 8 .cfa: sp 0 +
STACK CFI INIT 7874 44 .cfa: sp 0 +
STACK CFI INIT 78b8 e8 .cfa: sp 0 +
STACK CFI INIT 79a0 e8 .cfa: sp 0 +
STACK CFI INIT 7a88 14 .cfa: sp 0 +
STACK CFI INIT 7a9c 10 .cfa: sp 0 +
STACK CFI INIT 7aac 10 .cfa: sp 0 +
STACK CFI INIT 7abc f0 .cfa: sp 0 +
STACK CFI INIT 7bac 44 .cfa: sp 0 +
STACK CFI INIT 7bf0 c .cfa: sp 0 +
STACK CFI INIT 7bfc c .cfa: sp 0 +
STACK CFI INIT 7c08 2c .cfa: sp 0 +
STACK CFI INIT 7c34 23c .cfa: sp 0 +
STACK CFI INIT 7e70 c .cfa: sp 0 +
STACK CFI INIT 7e7c 120 .cfa: sp 0 +
STACK CFI INIT 7f9c 494 .cfa: sp 0 +
STACK CFI INIT 8430 b78 .cfa: sp 0 +
STACK CFI INIT 8fa8 134 .cfa: sp 0 +
STACK CFI INIT 90dc 210 .cfa: sp 0 +
STACK CFI INIT 92ec 38c .cfa: sp 0 +
STACK CFI INIT 9678 1c8 .cfa: sp 0 +
STACK CFI INIT 9840 9c4 .cfa: sp 0 +
STACK CFI INIT a204 2d4 .cfa: sp 0 +
STACK CFI INIT a4d8 130 .cfa: sp 0 +
STACK CFI INIT a608 120 .cfa: sp 0 +
STACK CFI INIT a728 1c8 .cfa: sp 0 +
STACK CFI INIT a8f0 168 .cfa: sp 0 +
STACK CFI INIT aa58 fc .cfa: sp 0 +
STACK CFI INIT ab54 30 .cfa: sp 0 +
STACK CFI INIT acb0 30 .cfa: sp 0 +
STACK CFI INIT ace0 98 .cfa: sp 0 +
STACK CFI INIT ad78 2ac .cfa: sp 0 +
STACK CFI INIT b024 8c .cfa: sp 0 +
STACK CFI INIT b0b0 30 .cfa: sp 0 +
STACK CFI INIT b0e0 4c .cfa: sp 0 +
STACK CFI INIT b12c 18 .cfa: sp 0 +
STACK CFI INIT b6e8 18 .cfa: sp 0 +
STACK CFI INIT bca4 18 .cfa: sp 0 +
STACK CFI INIT c2a4 18 .cfa: sp 0 +
STACK CFI INIT c864 18 .cfa: sp 0 +
STACK CFI INIT ce20 18 .cfa: sp 0 +
STACK CFI INIT d3e0 18 .cfa: sp 0 +
STACK CFI INIT d3f8 4 .cfa: sp 0 +
STACK CFI INIT d3fc 50 .cfa: sp 0 +
STACK CFI d400 .cfa: sp 32 +
STACK CFI d408 .cfa: x29 32 + x19: .cfa -16 + ^ .ra: .cfa -24 + ^ x29: .cfa -32 + ^
STACK CFI d420 .cfa: sp 32 +
STACK CFI d428 .cfa: sp 0 +
STACK CFI d42c .cfa: x29 32 +
STACK CFI d440 .cfa: sp 32 +
STACK CFI d448 .cfa: sp 0 +
STACK CFI INIT d4c0 7c .cfa: sp 0 +
STACK CFI d4c4 .cfa: sp 48 +
STACK CFI d4d0 .cfa: x29 48 + x19: .cfa -8 + ^ x20: .cfa -16 + ^ x21: .cfa -32 + ^ .ra: .cfa -40 + ^ x29: .cfa -48 + ^
STACK CFI d51c .cfa: sp 48 +
STACK CFI d528 .cfa: sp 0 +
STACK CFI d52c .cfa: sp 48 +
STACK CFI d538 .cfa: sp 0 +
STACK CFI INIT d53c 4 .cfa: sp 0 +
STACK CFI INIT d540 10 .cfa: sp 0 +
STACK CFI d544 .cfa: sp 16 +
STACK CFI d548 .cfa: x29 16 + .ra: .cfa -8 + ^ x29: .cfa -16 + ^
STACK CFI INIT d6a4 34 .cfa: sp 0 +
STACK CFI d6a8 .cfa: sp 16 +
STACK CFI d6ac .cfa: x29 16 + .ra: .cfa -8 + ^ x29: .cfa -16 + ^
STACK CFI INIT d80c 80 .cfa: sp 0 +
STACK CFI d810 .cfa: sp 48 +
STACK CFI d81c .cfa: x29 48 + x19: .cfa -8 + ^ x20: .cfa -16 + ^ x21: .cfa -32 + ^ .ra: .cfa -40 + ^ x29: .cfa -48 + ^
STACK CFI d87c .cfa: sp 48 +
STACK CFI d888 .cfa: sp 0 +
STACK CFI INIT d88c 24 .cfa: sp 0 +
STACK CFI d890 .cfa: sp 32 +
STACK CFI d898 .cfa: x29 32 + x19: .cfa -16 + ^ .ra: .cfa -24 + ^ x29: .cfa -32 + ^
STACK CFI d8a4 .cfa: sp 32 +
STACK CFI d8ac .cfa: sp 0 +
STACK CFI INIT db94 14 .cfa: sp 0 +
STACK CFI db98 .cfa: sp 16 +
STACK CFI db9c .cfa: x29 16 + .ra: .cfa -8 + ^ x29: .cfa -16 + ^
STACK CFI INIT dbf8 30 .cfa: sp 0 +
STACK CFI dbfc .cfa: sp 32 +
STACK CFI dc04 .cfa: x29 32 + x19: .cfa -16 + ^ .ra: .cfa -24 + ^ x29: .cfa -32 + ^
STACK CFI dc1c .cfa: sp 32 +
STACK CFI dc24 .cfa: sp 0 +
STACK CFI INIT dc28 34 .cfa: sp 0 +
STACK CFI dc2c .cfa: sp 32 +
STACK CFI dc34 .cfa: x29 32 + x19: .cfa -16 + ^ .ra: .cfa -24 + ^ x29: .cfa -32 + ^
STACK CFI INIT dee0 84 .cfa: sp 0 +
STACK CFI dee8 .cfa: sp 48 +
STACK CFI def4 .cfa: x29 48 + x19: .cfa -8 + ^ x20: .cfa -16 + ^ x21: .cfa -32 + ^ .ra: .cfa -40 + ^ x29: .cfa -48 + ^
STACK CFI df54 .cfa: sp 48 +
STACK CFI df60 .cfa: sp 0 +
STACK CFI INIT e110 90 .cfa: sp 0 +
STACK CFI e114 .cfa: sp 48 +
STACK CFI e120 .cfa: x29 48 + x19: .cfa -8 + ^ x20: .cfa -16 + ^ x21: .cfa -24 + ^ x22: .cfa -32 + ^ .ra: .cfa -40 + ^ x29: .cfa -48 + ^
STACK CFI e138 .cfa: sp 48 +
STACK CFI e144 .cfa: sp 0 +
STACK CFI e148 .cfa: x29 48 +
STACK CFI e18c .cfa: sp 48 +
STACK CFI e198 .cfa: sp 0 +
STACK CFI e19c .cfa: x29 48 +
STACK CFI INIT e1a0 68 .cfa: sp 0 +
STACK CFI e1a4 .cfa: sp 32 +
STACK CFI e1ac .cfa: x29 32 + x19: .cfa -8 + ^ x20: .cfa -16 + ^ .ra: .cfa -24 + ^ x29: .cfa -32 + ^
STACK CFI e1c4 .cfa: sp 32 +
STACK CFI e1cc .cfa: sp 0 +
STACK CFI e1d0 .cfa: x29 32 +
STACK CFI e1fc .cfa: sp 32 +
STACK CFI e204 .cfa: sp 0 +
STACK CFI INIT e208 14 .cfa: sp 0 +
STACK CFI e20c .cfa: sp 16 +
STACK CFI e210 .cfa: x29 16 + .ra: .cfa -8 + ^ x29: .cfa -16 + ^
STACK CFI INIT e21c 4 .cfa: sp 0 +
STACK CFI INIT e220 14 .cfa: sp 0 +
STACK CFI INIT e234 128 .cfa: sp 0 +
STACK CFI e238 .cfa: sp 64 +
STACK CFI e248 .cfa: x29 64 + x19: .cfa -8 + ^ x20: .cfa -16 + ^ x21: .cfa -24 + ^ x22: .cfa -32 + ^ x23: .cfa -40 + ^ x24: .cfa -48 + ^ .ra: .cfa -56 + ^ x29: .cfa -64 + ^
STACK CFI e348 .cfa: sp 64 +
STACK CFI e358 .cfa: sp 0 +
STACK CFI INIT e35c 4a4 .cfa: sp 0 +
STACK CFI e360 .cfa: sp 32 +
STACK CFI e368 .cfa: x29 32 + x19: .cfa -8 + ^ x20: .cfa -16 + ^ .ra: .cfa -24 + ^ x29: .cfa -32 + ^
STACK CFI e748 .cfa: sp 32 +
STACK CFI e750 .cfa: sp 0 +
STACK CFI e754 .cfa: x29 32 +
STACK CFI INIT e800 84 .cfa: sp 0 +
STACK CFI e808 .cfa: sp 32 +
STACK CFI e810 .cfa: x29 32 + x19: .cfa -8 + ^ x20: .cfa -16 + ^ .ra: .cfa -24 + ^ x29: .cfa -32 + ^
STACK CFI e850 .cfa: sp 32 +
STACK CFI e858 .cfa: sp 0 +
STACK CFI e860 .cfa: x29 32 +
STACK CFI INIT eb74 4 .cfa: sp 0 +
STACK CFI INIT ed4c 7c .cfa: sp 0 +
STACK CFI ed50 .cfa: sp 32 +
STACK CFI ed58 .cfa: x29 32 + x19: .cfa -8 + ^ x20: .cfa -16 + ^ .ra: .cfa -24 + ^ x29: .cfa -32 + ^
STACK CFI edb0 .cfa: sp 32 +
STACK CFI edb8 .cfa: sp 0 +
STACK CFI edbc .cfa: sp 32 +
STACK CFI edc4 .cfa: sp 0 +
STACK CFI INIT edc8 1a8 .cfa: sp 0 +
STACK CFI INIT ef70 4 .cfa: sp 0 +
STACK CFI INIT ef74 14 .cfa: sp 0 +
STACK CFI INIT ef88 e8 .cfa: sp 0 +
STACK CFI ef8c .cfa: sp 64 +
STACK CFI ef9c .cfa: x29 48 + x19: .cfa -8 + ^ x20: .cfa -16 + ^ x21: .cfa -24 + ^ x22: .cfa -32 + ^ .ra: .cfa -40 + ^ x29: .cfa -48 + ^
STACK CFI f058 .cfa: sp 64 +
STACK CFI f068 .cfa: sp 0 +
STACK CFI f06c .cfa: x29 48 +
STACK CFI INIT f118 98 .cfa: sp 0 +
STACK CFI INIT f1b0 50 .cfa: sp 0 +
STACK CFI f1b4 .cfa: sp 32 +
STACK CFI f1bc .cfa: x29 32 + x19: .cfa -16 + ^ .ra: .cfa -24 + ^ x29: .cfa -32 + ^
STACK CFI f1d4 .cfa: sp 32 +
STACK CFI f1dc .cfa: sp 0 +
STACK CFI f1e0 .cfa: x29 32 +
STACK CFI f1f4 .cfa: sp 32 +
STACK CFI f1fc .cfa: sp 0 +
STACK CFI INIT f200 64 .cfa: sp 0 +
STACK CFI f204 .cfa: sp 32 +
STACK CFI f20c .cfa: x29 32 + x19: .cfa -16 + ^ .ra: .cfa -24 + ^ x29: .cfa -32 + ^
STACK CFI f238 .cfa: sp 32 +
STACK CFI f240 .cfa: sp 0 +
STACK CFI f244 .cfa: x29 32 +
STACK CFI f258 .cfa: sp 32 +
STACK CFI f260 .cfa: sp 0 +
STACK CFI INIT f264 128 .cfa: sp 0 +
STACK CFI f268 .cfa: sp 80 +
STACK CFI f278 .cfa: x29 48 + x19: .cfa -8 + ^ x20: .cfa -16 + ^ x21: .cfa -24 + ^ x22: .cfa -32 + ^ .ra: .cfa -40 + ^ x29: .cfa -48 + ^
STACK CFI f374 .cfa: sp 80 +
STACK CFI f384 .cfa: sp 0 +
STACK CFI f388 .cfa: x29 48 +
STACK CFI INIT f38c f8 .cfa: sp 0 +
STACK CFI f390 .cfa: sp 64 +
STACK CFI f3a0 .cfa: x29 64 + x19: .cfa -8 + ^ x20: .cfa -16 + ^ x21: .cfa -24 + ^ x22: .cfa -32 + ^ x23: .cfa -48 + ^ .ra: .cfa -56 + ^ x29: .cfa -64 + ^
STACK CFI f3fc .cfa: sp 64 +
STACK CFI f40c .cfa: sp 0 +
STACK CFI f410 .cfa: x29 64 +
STACK CFI f42c .cfa: sp 64 +
STACK CFI f43c .cfa: sp 0 +
STACK CFI f440 .cfa: x29 64 +
STACK CFI f470 .cfa: sp 64 +
STACK CFI f480 .cfa: sp 0 +
STACK CFI INIT f484 168 .cfa: sp 0 +
STACK CFI f488 .cfa: sp 80 +
STACK CFI f49c .cfa: x29 80 + x19: .cfa -8 + ^ x20: .cfa -16 + ^ x21: .cfa -24 + ^ x22: .cfa -32 + ^ x23: .cfa -40 + ^ x24: .cfa -48 + ^ x25: .cfa -56 + ^ x26: .cfa -64 + ^ .ra: .cfa -72 + ^ x29: .cfa -80 + ^
STACK CFI f5d4 .cfa: sp 80 +
STACK CFI f5e8 .cfa: sp 0 +
STACK CFI INIT f8d0 4 .cfa: sp 0 +
STACK CFI INIT f8d4 170 .cfa: sp 0 +
STACK CFI f8d8 .cfa: sp 80 +
STACK CFI f8ec .cfa: x29 64 + x19: .cfa -8 + ^ x20: .cfa -16 + ^ x21: .cfa -24 + ^ x22: .cfa -32 + ^ x23: .cfa -48 + ^ .ra: .cfa -56 + ^ x29: .cfa -64 + ^
STACK CFI fa28 .cfa: sp 80 +
STACK CFI fa3c .cfa: sp 0 +
STACK CFI fa40 .cfa: x29 64 +
STACK CFI INIT faec 9c .cfa: sp 0 +
STACK CFI INIT fe94 4 .cfa: sp 0 +
STACK CFI INIT 102f0 8c .cfa: sp 0 +
STACK CFI 102f4 .cfa: sp 32 +
STACK CFI 102fc .cfa: x29 32 + x19: .cfa -16 + ^ .ra: .cfa -24 + ^ x29: .cfa -32 + ^
STACK CFI 10370 .cfa: sp 32 +
STACK CFI 10378 .cfa: sp 0 +
STACK CFI INIT 109cc 4 .cfa: sp 0 +
STACK CFI INIT 109d0 9c .cfa: sp 0 +
STACK CFI 109d4 .cfa: sp 32 +
STACK CFI 109dc .cfa: x29 32 + x19: .cfa -8 + ^ x20: .cfa -16 + ^ .ra: .cfa -24 + ^ x29: .cfa -32 + ^
STACK CFI 10a54 .cfa: sp 32 +
STACK CFI 10a5c .cfa: sp 0 +
STACK CFI 10a60 .cfa: sp 32 +
STACK CFI 10a68 .cfa: sp 0 +
STACK CFI INIT 10a6c 180 .cfa: sp 0 +
STACK CFI 10a70 .cfa: sp 80 +
STACK CFI 10a88 .cfa: x29 56 + x19: .cfa -8 + ^ x20: .cfa -16 + ^ x21: .cfa -24 + ^ x22: .cfa -32 + ^ x23: .cfa -40 + ^ .ra: .cfa -48 + ^ x29: .cfa -56 + ^ v8: .cfa -64 + ^
STACK CFI 10bcc .cfa: sp 80 +
STACK CFI 10be4 .cfa: sp 0 +
STACK CFI 10be8 .cfa: x29 56 +
STACK CFI INIT 10c94 b4 .cfa: sp 0 +
STACK CFI 10c98 .cfa: sp 32 +
STACK CFI 10ca0 .cfa: x29 32 + x19: .cfa -16 + ^ .ra: .cfa -24 + ^ x29: .cfa -32 + ^
STACK CFI 10d3c .cfa: sp 32 +
STACK CFI 10d44 .cfa: sp 0 +
STACK CFI INIT 11080 4 .cfa: sp 0 +
STACK CFI INIT 1123c 154 .cfa: sp 0 +
STACK CFI 11240 .cfa: sp 80 +
STACK CFI 11254 .cfa: x29 40 + x19: .cfa -8 + ^ x20: .cfa -16 + ^ x21: .cfa -24 + ^ .ra: .cfa -32 + ^ x29: .cfa -40 + ^ v8: .cfa -48 + ^
STACK CFI 11374 .cfa: sp 80 +
STACK CFI 11388 .cfa: sp 0 +
STACK CFI 1138c .cfa: x29 40 +
STACK CFI INIT 11688 4 .cfa: sp 0 +
STACK CFI INIT 1168c 198 .cfa: sp 0 +
STACK CFI 11690 .cfa: sp 48 +
STACK CFI 1169c .cfa: x29 48 + x19: .cfa -8 + ^ x20: .cfa -16 + ^ x21: .cfa -32 + ^ .ra: .cfa -40 + ^ x29: .cfa -48 + ^
STACK CFI 116d0 .cfa: sp 48 +
STACK CFI 116dc .cfa: sp 0 +
STACK CFI 116e0 .cfa: x29 48 +
STACK CFI 11814 .cfa: sp 48 +
STACK CFI 11820 .cfa: sp 0 +
STACK CFI INIT 118cc b4 .cfa: sp 0 +
STACK CFI 118d0 .cfa: sp 32 +
STACK CFI 118d8 .cfa: x29 32 + x19: .cfa -16 + ^ .ra: .cfa -24 + ^ x29: .cfa -32 + ^
STACK CFI 11974 .cfa: sp 32 +
STACK CFI 1197c .cfa: sp 0 +
STACK CFI INIT 11980 3c .cfa: sp 0 +
STACK CFI 11984 .cfa: sp 32 +
STACK CFI 1198c .cfa: x29 32 + x19: .cfa -16 + ^ .ra: .cfa -24 + ^ x29: .cfa -32 + ^
STACK CFI 11998 .cfa: sp 32 +
STACK CFI 119a0 .cfa: sp 0 +
STACK CFI 119a4 .cfa: x29 32 +
STACK CFI 119b0 .cfa: sp 32 +
STACK CFI 119b8 .cfa: sp 0 +
STACK CFI INIT 119bc 3c .cfa: sp 0 +
STACK CFI 119c0 .cfa: sp 32 +
STACK CFI 119c8 .cfa: x29 32 + x19: .cfa -16 + ^ .ra: .cfa -24 + ^ x29: .cfa -32 + ^
STACK CFI 119d4 .cfa: sp 32 +
STACK CFI 119dc .cfa: sp 0 +
STACK CFI 119e0 .cfa: x29 32 +
STACK CFI 119ec .cfa: sp 32 +
STACK CFI 119f4 .cfa: sp 0 +
STACK CFI INIT b144 5a4 .cfa: sp 0 +
STACK CFI b148 .cfa: sp 224 +
STACK CFI b164 .cfa: x29 96 + x19: .cfa -8 + ^ x20: .cfa -16 + ^ x21: .cfa -24 + ^ x22: .cfa -32 + ^ x23: .cfa -40 + ^ x24: .cfa -48 + ^ x25: .cfa -56 + ^ x26: .cfa -64 + ^ x27: .cfa -72 + ^ x28: .cfa -80 + ^ .ra: .cfa -88 + ^ x29: .cfa -96 + ^
STACK CFI b244 .cfa: sp 224 +
STACK CFI b260 .cfa: sp 0 +
STACK CFI b264 .cfa: x29 96 +
STACK CFI b5c8 .cfa: sp 224 +
STACK CFI b5e4 .cfa: sp 0 +
STACK CFI b5e8 .cfa: x29 96 +
STACK CFI INIT b700 5a4 .cfa: sp 0 +
STACK CFI b704 .cfa: sp 224 +
STACK CFI b720 .cfa: x29 96 + x19: .cfa -8 + ^ x20: .cfa -16 + ^ x21: .cfa -24 + ^ x22: .cfa -32 + ^ x23: .cfa -40 + ^ x24: .cfa -48 + ^ x25: .cfa -56 + ^ x26: .cfa -64 + ^ x27: .cfa -72 + ^ x28: .cfa -80 + ^ .ra: .cfa -88 + ^ x29: .cfa -96 + ^
STACK CFI b800 .cfa: sp 224 +
STACK CFI b81c .cfa: sp 0 +
STACK CFI b820 .cfa: x29 96 +
STACK CFI bb84 .cfa: sp 224 +
STACK CFI bba0 .cfa: sp 0 +
STACK CFI bba4 .cfa: x29 96 +
STACK CFI INIT bcbc 5e8 .cfa: sp 0 +
STACK CFI bcc0 .cfa: sp 240 +
STACK CFI bcdc .cfa: x29 96 + x19: .cfa -8 + ^ x20: .cfa -16 + ^ x21: .cfa -24 + ^ x22: .cfa -32 + ^ x23: .cfa -40 + ^ x24: .cfa -48 + ^ x25: .cfa -56 + ^ x26: .cfa -64 + ^ x27: .cfa -72 + ^ x28: .cfa -80 + ^ .ra: .cfa -88 + ^ x29: .cfa -96 + ^
STACK CFI bde0 .cfa: sp 240 +
STACK CFI bdfc .cfa: sp 0 +
STACK CFI be00 .cfa: x29 96 +
STACK CFI c170 .cfa: sp 240 +
STACK CFI c18c .cfa: sp 0 +
STACK CFI c190 .cfa: x29 96 +
STACK CFI INIT c2bc 5a8 .cfa: sp 0 +
STACK CFI c2c0 .cfa: sp 224 +
STACK CFI c2dc .cfa: x29 96 + x19: .cfa -8 + ^ x20: .cfa -16 + ^ x21: .cfa -24 + ^ x22: .cfa -32 + ^ x23: .cfa -40 + ^ x24: .cfa -48 + ^ x25: .cfa -56 + ^ x26: .cfa -64 + ^ x27: .cfa -72 + ^ x28: .cfa -80 + ^ .ra: .cfa -88 + ^ x29: .cfa -96 + ^
STACK CFI c3c0 .cfa: sp 224 +
STACK CFI c3dc .cfa: sp 0 +
STACK CFI c3e0 .cfa: x29 96 +
STACK CFI c744 .cfa: sp 224 +
STACK CFI c760 .cfa: sp 0 +
STACK CFI c764 .cfa: x29 96 +
STACK CFI INIT c87c 5a4 .cfa: sp 0 +
STACK CFI c880 .cfa: sp 224 +
STACK CFI c89c .cfa: x29 96 + x19: .cfa -8 + ^ x20: .cfa -16 + ^ x21: .cfa -24 + ^ x22: .cfa -32 + ^ x23: .cfa -40 + ^ x24: .cfa -48 + ^ x25: .cfa -56 + ^ x26: .cfa -64 + ^ x27: .cfa -72 + ^ x28: .cfa -80 + ^ .ra: .cfa -88 + ^ x29: .cfa -96 + ^
STACK CFI c97c .cfa: sp 224 +
STACK CFI c998 .cfa: sp 0 +
STACK CFI c99c .cfa: x29 96 +
STACK CFI cd00 .cfa: sp 224 +
STACK CFI cd1c .cfa: sp 0 +
STACK CFI cd20 .cfa: x29 96 +
STACK CFI INIT ce38 5a8 .cfa: sp 0 +
STACK CFI ce3c .cfa: sp 224 +
STACK CFI ce58 .cfa: x29 96 + x19: .cfa -8 + ^ x20: .cfa -16 + ^ x21: .cfa -24 + ^ x22: .cfa -32 + ^ x23: .cfa -40 + ^ x24: .cfa -48 + ^ x25: .cfa -56 + ^ x26: .cfa -64 + ^ x27: .cfa -72 + ^ x28: .cfa -80 + ^ .ra: .cfa -88 + ^ x29: .cfa -96 + ^
STACK CFI cf3c .cfa: sp 224 +
STACK CFI cf58 .cfa: sp 0 +
STACK CFI cf5c .cfa: x29 96 +
STACK CFI d2c0 .cfa: sp 224 +
STACK CFI d2dc .cfa: sp 0 +
STACK CFI d2e0 .cfa: x29 96 +
STACK CFI INIT d44c 74 .cfa: sp 0 +
STACK CFI d450 .cfa: sp 48 +
STACK CFI d45c .cfa: x29 32 + x19: .cfa -8 + ^ x20: .cfa -16 + ^ .ra: .cfa -24 + ^ x29: .cfa -32 + ^
STACK CFI d4a8 .cfa: sp 48 +
STACK CFI d4b4 .cfa: sp 0 +
STACK CFI d4b8 .cfa: x29 32 +
STACK CFI INIT d550 154 .cfa: sp 0 +
STACK CFI d554 .cfa: sp 384 +
STACK CFI d568 .cfa: x29 64 + x19: .cfa -8 + ^ x20: .cfa -16 + ^ x21: .cfa -24 + ^ x22: .cfa -32 + ^ x23: .cfa -40 + ^ x28: .cfa -48 + ^ .ra: .cfa -56 + ^ x29: .cfa -64 + ^
STACK CFI d64c .cfa: sp 384 +
STACK CFI d660 .cfa: sp 0 +
STACK CFI d664 .cfa: x29 64 +
STACK CFI INIT d6d8 134 .cfa: sp 0 +
STACK CFI d6dc .cfa: sp 80 +
STACK CFI d6f0 .cfa: x29 80 + x19: .cfa -8 + ^ x20: .cfa -16 + ^ x21: .cfa -24 + ^ x22: .cfa -32 + ^ x23: .cfa -40 + ^ x24: .cfa -48 + ^ x25: .cfa -56 + ^ x26: .cfa -64 + ^ .ra: .cfa -72 + ^ x29: .cfa -80 + ^
STACK CFI d7c0 .cfa: sp 80 +
STACK CFI d7d4 .cfa: sp 0 +
STACK CFI d7d8 .cfa: x29 80 +
STACK CFI INIT d8b0 2e4 .cfa: sp 0 +
STACK CFI d8b4 .cfa: sp 144 +
STACK CFI d8d0 .cfa: x29 96 + x19: .cfa -8 + ^ x20: .cfa -16 + ^ x21: .cfa -24 + ^ x22: .cfa -32 + ^ x23: .cfa -40 + ^ x24: .cfa -48 + ^ x25: .cfa -56 + ^ x26: .cfa -64 + ^ x27: .cfa -72 + ^ x28: .cfa -80 + ^ .ra: .cfa -88 + ^ x29: .cfa -96 + ^
STACK CFI dae0 .cfa: sp 144 +
STACK CFI dafc .cfa: sp 0 +
STACK CFI db00 .cfa: x29 96 +
STACK CFI INIT dba8 50 .cfa: sp 0 +
STACK CFI dbac .cfa: sp 32 +
STACK CFI dbb4 .cfa: x29 32 + x19: .cfa -8 + ^ x20: .cfa -16 + ^ .ra: .cfa -24 + ^ x29: .cfa -32 + ^
STACK CFI INIT dc5c 284 .cfa: sp 0 +
STACK CFI dc60 .cfa: sp 48 +
STACK CFI dc6c .cfa: x29 48 + x19: .cfa -8 + ^ x20: .cfa -16 + ^ x21: .cfa -24 + ^ x22: .cfa -32 + ^ .ra: .cfa -40 + ^ x29: .cfa -48 + ^
STACK CFI deb4 .cfa: sp 48 +
STACK CFI dec0 .cfa: sp 0 +
STACK CFI dec4 .cfa: x29 48 +
STACK CFI INIT df64 1ac .cfa: sp 0 +
STACK CFI df68 .cfa: sp 128 +
STACK CFI df80 .cfa: x29 80 + x19: .cfa -8 + ^ x20: .cfa -16 + ^ x21: .cfa -24 + ^ x22: .cfa -32 + ^ x23: .cfa -40 + ^ x24: .cfa -48 + ^ x25: .cfa -64 + ^ .ra: .cfa -72 + ^ x29: .cfa -80 + ^
STACK CFI e0a4 .cfa: sp 128 +
STACK CFI e0bc .cfa: sp 0 +
STACK CFI e0c0 .cfa: x29 80 +
STACK CFI INIT e884 2f0 .cfa: sp 0 +
STACK CFI e888 .cfa: sp 192 +
STACK CFI e89c .cfa: x29 64 + x19: .cfa -8 + ^ x20: .cfa -16 + ^ x21: .cfa -24 + ^ x22: .cfa -32 + ^ x23: .cfa -48 + ^ .ra: .cfa -56 + ^ x29: .cfa -64 + ^
STACK CFI ea68 .cfa: sp 192 +
STACK CFI ea7c .cfa: sp 0 +
STACK CFI ea80 .cfa: x29 64 +
STACK CFI INIT eb78 1d4 .cfa: sp 0 +
STACK CFI eb7c .cfa: sp 128 +
STACK CFI eb98 .cfa: x29 96 + x19: .cfa -8 + ^ x20: .cfa -16 + ^ x21: .cfa -24 + ^ x22: .cfa -32 + ^ x23: .cfa -40 + ^ x24: .cfa -48 + ^ x25: .cfa -56 + ^ x26: .cfa -64 + ^ x27: .cfa -72 + ^ x28: .cfa -80 + ^ .ra: .cfa -88 + ^ x29: .cfa -96 + ^
STACK CFI ed04 .cfa: sp 128 +
STACK CFI ed20 .cfa: sp 0 +
STACK CFI ed24 .cfa: x29 96 +
STACK CFI INIT f070 a8 .cfa: sp 0 +
STACK CFI f074 .cfa: sp 32 +
STACK CFI f07c .cfa: x29 32 + x19: .cfa -16 + ^ .ra: .cfa -24 + ^ x29: .cfa -32 + ^
STACK CFI f0b0 .cfa: sp 32 +
STACK CFI f0b8 .cfa: sp 0 +
STACK CFI f0bc .cfa: x29 32 +
STACK CFI f0c0 .cfa: sp 32 +
STACK CFI f0c8 .cfa: sp 0 +
STACK CFI f0cc .cfa: x29 32 +
STACK CFI INIT f5ec 2e4 .cfa: sp 0 +
STACK CFI f5f0 .cfa: sp 176 +
STACK CFI f604 .cfa: x29 64 + x19: .cfa -8 + ^ x20: .cfa -16 + ^ x21: .cfa -24 + ^ x22: .cfa -32 + ^ x23: .cfa -48 + ^ .ra: .cfa -56 + ^ x29: .cfa -64 + ^
STACK CFI f7c4 .cfa: sp 176 +
STACK CFI f7d8 .cfa: sp 0 +
STACK CFI f7dc .cfa: x29 64 +
STACK CFI INIT fa44 a8 .cfa: sp 0 +
STACK CFI fa48 .cfa: sp 32 +
STACK CFI fa50 .cfa: x29 32 + x19: .cfa -16 + ^ .ra: .cfa -24 + ^ x29: .cfa -32 + ^
STACK CFI fa84 .cfa: sp 32 +
STACK CFI fa8c .cfa: sp 0 +
STACK CFI fa90 .cfa: x29 32 +
STACK CFI fa94 .cfa: sp 32 +
STACK CFI fa9c .cfa: sp 0 +
STACK CFI faa0 .cfa: x29 32 +
STACK CFI INIT fb88 30c .cfa: sp 0 +
STACK CFI fb8c .cfa: sp 224 +
STACK CFI fba0 .cfa: x29 64 + x19: .cfa -8 + ^ x20: .cfa -16 + ^ x21: .cfa -24 + ^ x22: .cfa -32 + ^ x23: .cfa -48 + ^ .ra: .cfa -56 + ^ x29: .cfa -64 + ^
STACK CFI fd80 .cfa: sp 224 +
STACK CFI fd94 .cfa: sp 0 +
STACK CFI fd98 .cfa: x29 64 +
STACK CFI INIT fe98 3b0 .cfa: sp 0 +
STACK CFI fe9c .cfa: sp 80 +
STACK CFI feac .cfa: x29 48 + x19: .cfa -8 + ^ x20: .cfa -16 + ^ x21: .cfa -24 + ^ x22: .cfa -32 + ^ .ra: .cfa -40 + ^ x29: .cfa -48 + ^
STACK CFI 1014c .cfa: sp 80 +
STACK CFI 1015c .cfa: sp 0 +
STACK CFI 10160 .cfa: x29 48 +
STACK CFI 10204 .cfa: sp 80 +
STACK CFI 10214 .cfa: sp 0 +
STACK CFI 10218 .cfa: x29 48 +
STACK CFI INIT 10248 a8 .cfa: sp 0 +
STACK CFI 1024c .cfa: sp 32 +
STACK CFI 10254 .cfa: x29 32 + x19: .cfa -16 + ^ .ra: .cfa -24 + ^ x29: .cfa -32 + ^
STACK CFI 10288 .cfa: sp 32 +
STACK CFI 10290 .cfa: sp 0 +
STACK CFI 10294 .cfa: x29 32 +
STACK CFI 10298 .cfa: sp 32 +
STACK CFI 102a0 .cfa: sp 0 +
STACK CFI 102a4 .cfa: x29 32 +
STACK CFI INIT 1037c 650 .cfa: sp 0 +
STACK CFI 10380 .cfa: sp 288 +
STACK CFI 1039c .cfa: x29 96 + x19: .cfa -8 + ^ x20: .cfa -16 + ^ x21: .cfa -24 + ^ x22: .cfa -32 + ^ x23: .cfa -40 + ^ x24: .cfa -48 + ^ x25: .cfa -56 + ^ x26: .cfa -64 + ^ x28: .cfa -80 + ^ .ra: .cfa -88 + ^ x29: .cfa -96 + ^
STACK CFI 107d8 .cfa: sp 288 +
STACK CFI 107f4 .cfa: sp 0 +
STACK CFI 107f8 .cfa: x29 96 +
STACK CFI INIT 10bec a8 .cfa: sp 0 +
STACK CFI 10bf0 .cfa: sp 32 +
STACK CFI 10bf8 .cfa: x29 32 + x19: .cfa -16 + ^ .ra: .cfa -24 + ^ x29: .cfa -32 + ^
STACK CFI 10c2c .cfa: sp 32 +
STACK CFI 10c34 .cfa: sp 0 +
STACK CFI 10c38 .cfa: x29 32 +
STACK CFI 10c3c .cfa: sp 32 +
STACK CFI 10c44 .cfa: sp 0 +
STACK CFI 10c48 .cfa: x29 32 +
STACK CFI INIT 10d48 338 .cfa: sp 0 +
STACK CFI 10d4c .cfa: sp 208 +
STACK CFI 10d64 .cfa: x29 80 + x19: .cfa -8 + ^ x20: .cfa -16 + ^ x21: .cfa -24 + ^ x22: .cfa -32 + ^ x23: .cfa -40 + ^ x24: .cfa -48 + ^ x25: .cfa -64 + ^ .ra: .cfa -72 + ^ x29: .cfa -80 + ^
STACK CFI 10f58 .cfa: sp 208 +
STACK CFI 10f70 .cfa: sp 0 +
STACK CFI 10f74 .cfa: x29 80 +
STACK CFI INIT 11084 1b8 .cfa: sp 0 +
STACK CFI 11088 .cfa: sp 128 +
STACK CFI 11098 .cfa: x29 48 + x19: .cfa -8 + ^ x20: .cfa -16 + ^ x21: .cfa -24 + ^ x22: .cfa -32 + ^ .ra: .cfa -40 + ^ x29: .cfa -48 + ^
STACK CFI 111cc .cfa: sp 128 +
STACK CFI 111dc .cfa: sp 0 +
STACK CFI 111e0 .cfa: x29 48 +
STACK CFI INIT 11390 2f8 .cfa: sp 0 +
STACK CFI 11394 .cfa: sp 192 +
STACK CFI 113a8 .cfa: x29 64 + x19: .cfa -8 + ^ x20: .cfa -16 + ^ x21: .cfa -24 + ^ x22: .cfa -32 + ^ x23: .cfa -48 + ^ .ra: .cfa -56 + ^ x29: .cfa -64 + ^
STACK CFI 1157c .cfa: sp 192 +
STACK CFI 11590 .cfa: sp 0 +
STACK CFI 11594 .cfa: x29 64 +
STACK CFI INIT 11824 a8 .cfa: sp 0 +
STACK CFI 11828 .cfa: sp 32 +
STACK CFI 11830 .cfa: x29 32 + x19: .cfa -16 + ^ .ra: .cfa -24 + ^ x29: .cfa -32 + ^
STACK CFI 11864 .cfa: sp 32 +
STACK CFI 1186c .cfa: sp 0 +
STACK CFI 11870 .cfa: x29 32 +
STACK CFI 11874 .cfa: sp 32 +
STACK CFI 1187c .cfa: sp 0 +
STACK CFI 11880 .cfa: x29 32 +
