MODULE Linux arm64 5AE64731BDFD428C884B392FBC2394F40 km7dev.betterquests.android64.so
INFO CODE_ID 3147E65AFDBD8C42884B392FBC2394F486D80B51
INFO GENERATOR mozilla/dump_syms 2.3.4
PUBLIC 2d7c0 0 __on_dlclose
PUBLIC 2d7d0 0 __emutls_unregister_key
PUBLIC 2d7d8 0 __on_dlclose_late
PUBLIC 2d7e0 0 __atexit_handler_wrapper
PUBLIC 2d7f4 0 atexit
PUBLIC 2d810 0 pthread_atfork
PUBLIC 2d820 0 unwind_phase2
PUBLIC 2d954 0 _Unwind_Resume
PUBLIC 2d9d8 0 unwind_phase2_forced
PUBLIC m 2dacc 0 __unw_init_local
PUBLIC m 2db74 0 __unw_get_reg
PUBLIC 2dbf0 0 __unw_step_stage2
PUBLIC m 2dc04 0 __unw_get_proc_info
PUBLIC m 2dc44 0 __unw_resume
PUBLIC 2dc6c 0 libunwind::CFI_Parser<libunwind::LocalAddressSpace>::decodeFDE(libunwind::LocalAddressSpace&, unsigned long, libunwind::CFI_Parser<libunwind::LocalAddressSpace>::FDE_Info*, libunwind::CFI_Parser<libunwind::LocalAddressSpace>::CIE_Info*, bool)
PUBLIC 2ddfc 0 libunwind::CFI_Parser<libunwind::LocalAddressSpace>::parseCIE(libunwind::LocalAddressSpace&, unsigned long, libunwind::CFI_Parser<libunwind::LocalAddressSpace>::CIE_Info*)
PUBLIC 2e0c4 0 libunwind::AbstractUnwindCursor::~AbstractUnwindCursor()
PUBLIC 2e0cc 0 libunwind::UnwindCursor<libunwind::LocalAddressSpace, libunwind::Registers_arm64>::~UnwindCursor()
PUBLIC 2e0d4 0 libunwind::UnwindCursor<libunwind::LocalAddressSpace, libunwind::Registers_arm64>::validReg(int)
PUBLIC 2e118 0 libunwind::UnwindCursor<libunwind::LocalAddressSpace, libunwind::Registers_arm64>::getReg(int)
PUBLIC 2e200 0 libunwind::UnwindCursor<libunwind::LocalAddressSpace, libunwind::Registers_arm64>::setReg(int, unsigned long)
PUBLIC 2e2e8 0 libunwind::UnwindCursor<libunwind::LocalAddressSpace, libunwind::Registers_arm64>::validFloatReg(int)
PUBLIC 2e2fc 0 libunwind::UnwindCursor<libunwind::LocalAddressSpace, libunwind::Registers_arm64>::getFloatReg(int)
PUBLIC 2e30c 0 libunwind::UnwindCursor<libunwind::LocalAddressSpace, libunwind::Registers_arm64>::setFloatReg(int, double)
PUBLIC 2e31c 0 libunwind::UnwindCursor<libunwind::LocalAddressSpace, libunwind::Registers_arm64>::step(bool)
PUBLIC 2e40c 0 libunwind::UnwindCursor<libunwind::LocalAddressSpace, libunwind::Registers_arm64>::getInfo(unw_proc_info_t*)
PUBLIC 2e450 0 libunwind::UnwindCursor<libunwind::LocalAddressSpace, libunwind::Registers_arm64>::jumpto()
PUBLIC 2e45c 0 libunwind::UnwindCursor<libunwind::LocalAddressSpace, libunwind::Registers_arm64>::isSignalFrame()
PUBLIC 2e468 0 libunwind::UnwindCursor<libunwind::LocalAddressSpace, libunwind::Registers_arm64>::getFunctionName(char*, unsigned long, unsigned long*)
PUBLIC 2e494 0 libunwind::UnwindCursor<libunwind::LocalAddressSpace, libunwind::Registers_arm64>::setInfoBasedOnIPRegister(bool)
PUBLIC 2e6d0 0 libunwind::UnwindCursor<libunwind::LocalAddressSpace, libunwind::Registers_arm64>::getRegisterName(int)
PUBLIC 2e6dc 0 libunwind::UnwindCursor<libunwind::LocalAddressSpace, libunwind::Registers_arm64>::stepThroughSigReturn(libunwind::Registers_arm64&)
PUBLIC 2e7fc 0 libunwind::DwarfInstructions<libunwind::LocalAddressSpace, libunwind::Registers_arm64>::stepWithDwarf(libunwind::LocalAddressSpace&, unsigned long, unsigned long, libunwind::Registers_arm64&, bool&, bool)
PUBLIC 2ec90 0 libunwind::CFI_Parser<libunwind::LocalAddressSpace>::parseFDEInstructions(libunwind::LocalAddressSpace&, libunwind::CFI_Parser<libunwind::LocalAddressSpace>::FDE_Info const&, libunwind::CFI_Parser<libunwind::LocalAddressSpace>::CIE_Info const&, unsigned long, int, libunwind::CFI_Parser<libunwind::LocalAddressSpace>::PrologInfo*)
PUBLIC 2f808 0 libunwind::DwarfInstructions<libunwind::LocalAddressSpace, libunwind::Registers_arm64>::getCFA(libunwind::LocalAddressSpace&, libunwind::CFI_Parser<libunwind::LocalAddressSpace>::PrologInfo const&, libunwind::Registers_arm64 const&)
PUBLIC 2f93c 0 libunwind::DwarfInstructions<libunwind::LocalAddressSpace, libunwind::Registers_arm64>::getSavedRegister(libunwind::LocalAddressSpace&, libunwind::Registers_arm64 const&, unsigned long, libunwind::CFI_Parser<libunwind::LocalAddressSpace>::RegisterLocation const&)
PUBLIC 2fb4c 0 libunwind::LocalAddressSpace::getEncodedP(unsigned long&, unsigned long, unsigned char, unsigned long)
PUBLIC 2fed8 0 libunwind::LocalAddressSpace::getULEB128(unsigned long&, unsigned long)
PUBLIC 300a0 0 libunwind::DwarfInstructions<libunwind::LocalAddressSpace, libunwind::Registers_arm64>::evaluateExpression(unsigned long, libunwind::LocalAddressSpace&, libunwind::Registers_arm64 const&, unsigned long)
PUBLIC 30a64 0 libunwind::UnwindCursor<libunwind::LocalAddressSpace, libunwind::Registers_arm64>::getInfoFromDwarfSection(unsigned long, libunwind::UnwindInfoSections const&, unsigned int)
PUBLIC 30d38 0 libunwind::findUnwindSectionsByPhdr(dl_phdr_info*, unsigned long, void*)
PUBLIC 30e68 0 libunwind::EHHeaderParser<libunwind::LocalAddressSpace>::decodeEHHdr(libunwind::LocalAddressSpace&, unsigned long, unsigned long, libunwind::EHHeaderParser<libunwind::LocalAddressSpace>::EHHeaderInfo&)
PUBLIC 30f88 0 libunwind::CFI_Parser<libunwind::LocalAddressSpace>::findFDE(libunwind::LocalAddressSpace&, unsigned long, unsigned long, unsigned long, unsigned long, libunwind::CFI_Parser<libunwind::LocalAddressSpace>::FDE_Info*, libunwind::CFI_Parser<libunwind::LocalAddressSpace>::CIE_Info*)
PUBLIC 31150 0 libunwind::EHHeaderParser<libunwind::LocalAddressSpace>::findFDE(libunwind::LocalAddressSpace&, unsigned long, unsigned long, unsigned int, libunwind::CFI_Parser<libunwind::LocalAddressSpace>::FDE_Info*, libunwind::CFI_Parser<libunwind::LocalAddressSpace>::CIE_Info*)
PUBLIC 312b8 0 libunwind::EHHeaderParser<libunwind::LocalAddressSpace>::getTableEntrySize(unsigned char)
PUBLIC 313b4 0 libunwind::Registers_arm64::getRegisterName(int)
PUBLIC 313e4 0 __libunwind_Registers_arm64_jumpto
PUBLIC m 31474 0 __unw_getcontext
PUBLIC 31510 0 __aarch64_ldadd8_relax
PUBLIC 31540 0 init_have_lse_atomics
PUBLIC 315d8 0 __init_cpu_features_constructor
PUBLIC 31884 0 __init_cpu_features
PUBLIC 31910 0 __aarch64_ldadd8_acq_rel
PUBLIC m 31940 0 getServer()
PUBLIC 31a1c 0 GetServerEvent::~GetServerEvent()
PUBLIC 31a5c 0 __cxx_global_var_init
PUBLIC 31ecc 0 geode::modifier::ModifyBase<geode::modifier::ModifyDerive<myChP, ChallengesPage> >::~ModifyBase()
PUBLIC 31ee8 0 GetServerEvent::~GetServerEvent()
PUBLIC 31f2c 0 std::__ndk1::basic_string<char, std::__ndk1::char_traits<char>, std::__ndk1::allocator<char> >::__throw_length_error[abi:ne190000]() const
PUBLIC 31f40 0 std::__ndk1::__throw_length_error[abi:ne190000](char const*)
PUBLIC 31f90 0 std::length_error::length_error[abi:ne190000](char const*)
PUBLIC 31fc0 0 std::__throw_bad_array_new_length([abi:ne190000], void)
PUBLIC 31ff4 0 __clang_call_terminate
PUBLIC m 32004 0 std::__ndk1::basic_string<char, std::__ndk1::char_traits<char>, std::__ndk1::allocator<char> >::__init_copy_ctor_external(char const*, unsigned long)
PUBLIC 32098 0 geode::modifier::ModifyDerive<myChP, ChallengesPage>::apply()
PUBLIC 323a0 0 std::__ndk1::shared_ptr<geode::Hook>::~shared_ptr[abi:ne190000]()
PUBLIC m 323f0 0 geode::impl::ResultData<geode::Hook*, std::__ndk1::basic_string<char, std::__ndk1::char_traits<char>, std::__ndk1::allocator<char> > >::~ResultData()
PUBLIC 32464 0 std::__ndk1::vector<std::__ndk1::basic_string<char, std::__ndk1::char_traits<char>, std::__ndk1::allocator<char> >, std::__ndk1::allocator<std::__ndk1::basic_string<char, std::__ndk1::char_traits<char>, std::__ndk1::allocator<char> > > >::~vector[abi:ne190000]()
PUBLIC 324e0 0 geode::modifier::ModifyBase<geode::modifier::ModifyDerive<myChP, ChallengesPage> >::apply()
PUBLIC m 324e4 0 _ZN5geode15UnwrapExceptionC2IRPNS_4HookEQsr4implE18IsStringStreamableIT_EEENS_4impl5OkTagEOS5_
PUBLIC 32638 0 std::__ndk1::__throw_bad_variant_access[abi:ne190000]()
PUBLIC 3266c 0 std::__ndk1::basic_stringstream<char, std::__ndk1::char_traits<char>, std::__ndk1::allocator<char> >::basic_stringstream[abi:ne190000]()
PUBLIC m 327a0 0 std::__ndk1::basic_stringstream<char, std::__ndk1::char_traits<char>, std::__ndk1::allocator<char> >::~basic_stringstream()
PUBLIC 32820 0 geode::UnwrapException::~UnwrapException()
PUBLIC 32844 0 std::__ndk1::__put_character_sequence[abi:ne190000]<char, std::__ndk1::char_traits<char> >(std::__ndk1::basic_ostream<char, std::__ndk1::char_traits<char> >, std::__ndk1::basic_ostream const*, unsigned long)
PUBLIC 329e8 0 std::__ndk1::__pad_and_output[abi:ne190000]<char, std::__ndk1::char_traits<char> >(std::__ndk1::char_traits<char>, std::__ndk1::ostreambuf_iterator const*, std::__ndk1::ostreambuf_iterator const, std::__ndk1::ostreambuf_iterator const, std::__ndk1::ios_base&, std::__ndk1::ostreambuf_iterator)
PUBLIC 32bd4 0 std::__ndk1::basic_stringbuf<char, std::__ndk1::char_traits<char>, std::__ndk1::allocator<char> >::str[abi:ne190000]() &&
PUBLIC 32d44 0 std::__ndk1::basic_stringbuf<char, std::__ndk1::char_traits<char>, std::__ndk1::allocator<char> >::__init_buf_ptrs[abi:ne190000]()
PUBLIC 32e8c 0 std::__ndk1::basic_string<char, std::__ndk1::char_traits<char>, std::__ndk1::allocator<char> >::__erase_external_with_move(unsigned long, unsigned long)
PUBLIC m 32f14 0 std::__ndk1::vector<std::__ndk1::basic_string<char, std::__ndk1::char_traits<char>, std::__ndk1::allocator<char> >, std::__ndk1::allocator<std::__ndk1::basic_string<char, std::__ndk1::char_traits<char>, std::__ndk1::allocator<char> > > >::__push_back_slow_path<std::__ndk1::basic_string<char, std::__ndk1::char_traits<char>, std::__ndk1::allocator<char> > const&>(std::__ndk1::basic_string<char, std::__ndk1::char_traits<char>, std::__ndk1::allocator<char> > const&)
PUBLIC 330c4 0 std::__ndk1::__split_buffer<std::__ndk1::basic_string<char, std::__ndk1::char_traits<char>, std::__ndk1::allocator<char> >, std::__ndk1::allocator<std::__ndk1::basic_string<char, std::__ndk1::char_traits<char>, std::__ndk1::allocator<char> > >&>::~__split_buffer()
PUBLIC 3312c 0 std::__ndk1::vector<std::__ndk1::basic_string<char, std::__ndk1::char_traits<char>, std::__ndk1::allocator<char> >, std::__ndk1::allocator<std::__ndk1::basic_string<char, std::__ndk1::char_traits<char>, std::__ndk1::allocator<char> > > >::__throw_length_error[abi:ne190000]() const
PUBLIC 33140 0 std::__ndk1::__variant_detail::__visitation::__base::__dispatcher<(unsigned long)0>::__dispatch[abi:ne190000]<std::__ndk1::__variant_detail::__dtor<std::__ndk1::__variant_detail::__traits<geode::Hook*, std::__ndk1::basic_string<char, std::__ndk1::char_traits<char>, std::__ndk1::allocator<char> > >, (std::__ndk1::__variant_detail::_Trait)1>::__destroy[abi:ne190000]()::{lambda(auto:1&)#1}, std::__ndk1::__variant_detail::__base<(std::__ndk1::__variant_detail::__traits<geode::Hook*, std::__ndk1::basic_string<char, std::__ndk1::char_traits<char>, std::__ndk1::allocator<char> > >)1, geode::Hook, std::__ndk1::allocator<char> >&>(std::__ndk1::__variant_detail::__dtor<std::__ndk1::__variant_detail::__traits<geode::Hook*, std::__ndk1::basic_string<char, std::__ndk1::char_traits<char>, std::__ndk1::allocator<char> > >, (std::__ndk1::__variant_detail::_Trait)1>, std::__ndk1::__variant_detail::__base<(std::__ndk1::__variant_detail::__traits<geode::Hook*, std::__ndk1::basic_string<char, std::__ndk1::char_traits<char>, std::__ndk1::allocator<char> > >)1, geode::Hook, std::__ndk1::allocator<char> >&)
PUBLIC 33144 0 std::__ndk1::__variant_detail::__visitation::__base::__dispatcher<(unsigned long)1>::__dispatch[abi:ne190000]<std::__ndk1::__variant_detail::__dtor<std::__ndk1::__variant_detail::__traits<geode::Hook*, std::__ndk1::basic_string<char, std::__ndk1::char_traits<char>, std::__ndk1::allocator<char> > >, (std::__ndk1::__variant_detail::_Trait)1>::__destroy[abi:ne190000]()::{lambda(auto:1&)#1}, std::__ndk1::__variant_detail::__base<(std::__ndk1::__variant_detail::__traits<geode::Hook*, std::__ndk1::basic_string<char, std::__ndk1::char_traits<char>, std::__ndk1::allocator<char> > >)1, geode::Hook, std::__ndk1::allocator<char> >&>(std::__ndk1::__variant_detail::__dtor<std::__ndk1::__variant_detail::__traits<geode::Hook*, std::__ndk1::basic_string<char, std::__ndk1::char_traits<char>, std::__ndk1::allocator<char> > >, (std::__ndk1::__variant_detail::_Trait)1>, std::__ndk1::__variant_detail::__base<(std::__ndk1::__variant_detail::__traits<geode::Hook*, std::__ndk1::basic_string<char, std::__ndk1::char_traits<char>, std::__ndk1::allocator<char> > >)1, geode::Hook, std::__ndk1::allocator<char> >&)
PUBLIC m 33158 0 std::__ndk1::__tree<std::__ndk1::__value_type<std::__ndk1::basic_string<char, std::__ndk1::char_traits<char>, std::__ndk1::allocator<char> >, std::__ndk1::shared_ptr<geode::Hook> >, std::__ndk1::__map_value_compare<std::__ndk1::basic_string<char, std::__ndk1::char_traits<char>, std::__ndk1::allocator<char> >, std::__ndk1::__value_type<std::__ndk1::basic_string<char, std::__ndk1::char_traits<char>, std::__ndk1::allocator<char> >, std::__ndk1::shared_ptr<geode::Hook> >, std::__ndk1::less<std::__ndk1::basic_string<char, std::__ndk1::char_traits<char>, std::__ndk1::allocator<char> > >, true>, std::__ndk1::allocator<std::__ndk1::__value_type<std::__ndk1::basic_string<char, std::__ndk1::char_traits<char>, std::__ndk1::allocator<char> >, std::__ndk1::shared_ptr<geode::Hook> > > >::find<std::__ndk1::basic_string<char, std::__ndk1::char_traits<char>, std::__ndk1::allocator<char> > >(std::__ndk1::basic_string<char, std::__ndk1::char_traits<char>, std::__ndk1::allocator<char> > const&)
PUBLIC 33280 0 std::__ndk1::__tree<std::__ndk1::__value_type<std::__ndk1::basic_string<char, std::__ndk1::char_traits<char>, std::__ndk1::allocator<char> >, std::__ndk1::shared_ptr<geode::Hook> >, std::__ndk1::__map_value_compare<std::__ndk1::basic_string<char, std::__ndk1::char_traits<char>, std::__ndk1::allocator<char> >, std::__ndk1::__value_type<std::__ndk1::basic_string<char, std::__ndk1::char_traits<char>, std::__ndk1::allocator<char> >, std::__ndk1::shared_ptr<geode::Hook> >, std::__ndk1::less<std::__ndk1::basic_string<char, std::__ndk1::char_traits<char>, std::__ndk1::allocator<char> > >, true>, std::__ndk1::allocator<std::__ndk1::__value_type<std::__ndk1::basic_string<char, std::__ndk1::char_traits<char>, std::__ndk1::allocator<char> >, std::__ndk1::shared_ptr<geode::Hook> > > >::erase(std::__ndk1::__tree_const_iterator<std::__ndk1::__value_type<std::__ndk1::basic_string<char, std::__ndk1::char_traits<char>, std::__ndk1::allocator<char> >, std::__ndk1::shared_ptr<geode::Hook> >, std::__ndk1::__tree_node<std::__ndk1::__value_type<std::__ndk1::basic_string<char, std::__ndk1::char_traits<char>, std::__ndk1::allocator<char> >, std::__ndk1::shared_ptr<geode::Hook> >, void*>*, long>)
PUBLIC 33354 0 std::__ndk1::__tree_remove[abi:ne190000]<std::__ndk1::__tree_node_base<void*>*>(std::__ndk1::__tree_node_base<void*>*, std::__ndk1::__tree_node_base<void*>*)
PUBLIC 3371c 0 std::__ndk1::__tree<std::__ndk1::__value_type<std::__ndk1::basic_string<char, std::__ndk1::char_traits<char>, std::__ndk1::allocator<char> >, std::__ndk1::shared_ptr<geode::Hook> >, std::__ndk1::__map_value_compare<std::__ndk1::basic_string<char, std::__ndk1::char_traits<char>, std::__ndk1::allocator<char> >, std::__ndk1::__value_type<std::__ndk1::basic_string<char, std::__ndk1::char_traits<char>, std::__ndk1::allocator<char> >, std::__ndk1::shared_ptr<geode::Hook> >, std::__ndk1::less<std::__ndk1::basic_string<char, std::__ndk1::char_traits<char>, std::__ndk1::allocator<char> > >, true>, std::__ndk1::allocator<std::__ndk1::__value_type<std::__ndk1::basic_string<char, std::__ndk1::char_traits<char>, std::__ndk1::allocator<char> >, std::__ndk1::shared_ptr<geode::Hook> > > >::destroy(std::__ndk1::__tree_node<std::__ndk1::__value_type<std::__ndk1::basic_string<char, std::__ndk1::char_traits<char>, std::__ndk1::allocator<char> >, std::__ndk1::shared_ptr<geode::Hook> >, void*>*)
PUBLIC 337a8 0 geode::modifier::AsStaticFunction_init<myChP, bool (myChP::*)()>::Impl<bool (myChP::*)()>::function(myChP*)
PUBLIC 3391c 0 geode::addresser::Addresser::addressOfVirtual<bool, ChallengesPage, >(bool (ChallengesPage::*)())
PUBLIC 339c8 0 ChallengesPage::ChallengesPage(geode::ZeroConstructorType)
PUBLIC 33a64 0 std::__ndk1::shared_ptr<tulip::hook::CallingConvention>::~shared_ptr[abi:ne190000]()
PUBLIC m 33ab4 0 tulip::hook::HandlerMetadata::~HandlerMetadata()
PUBLIC 33b18 0 myChP::onQuestsPlus(cocos2d::CCObject*)
PUBLIC m 33ccc 0 geode::Mod::getSavedValue<bool>(std::__ndk1::basic_string_view<char, std::__ndk1::char_traits<char> >, bool const&)
PUBLIC m 33ea8 0 geode::impl::ResultData<matjson::Value&, std::__ndk1::basic_string<char, std::__ndk1::char_traits<char>, std::__ndk1::allocator<char> > >::~ResultData()
PUBLIC 33f1c 0 std::__ndk1::__variant_detail::__visitation::__base::__dispatcher<(unsigned long)0>::__dispatch[abi:ne190000]<std::__ndk1::__variant_detail::__dtor<std::__ndk1::__variant_detail::__traits<std::__ndk1::reference_wrapper<matjson::Value>, std::__ndk1::basic_string<char, std::__ndk1::char_traits<char>, std::__ndk1::allocator<char> > >, (std::__ndk1::__variant_detail::_Trait)1>::__destroy[abi:ne190000]()::{lambda(auto:1&)#1}, std::__ndk1::__variant_detail::__base<(std::__ndk1::__variant_detail::__traits<std::__ndk1::reference_wrapper<matjson::Value>, std::__ndk1::basic_string<char, std::__ndk1::char_traits<char>, std::__ndk1::allocator<char> > >)1, matjson::Value, std::__ndk1::allocator<char> >&>(std::__ndk1::__variant_detail::__dtor<std::__ndk1::__variant_detail::__traits<std::__ndk1::reference_wrapper<matjson::Value>, std::__ndk1::basic_string<char, std::__ndk1::char_traits<char>, std::__ndk1::allocator<char> > >, (std::__ndk1::__variant_detail::_Trait)1>, std::__ndk1::__variant_detail::__base<(std::__ndk1::__variant_detail::__traits<std::__ndk1::reference_wrapper<matjson::Value>, std::__ndk1::basic_string<char, std::__ndk1::char_traits<char>, std::__ndk1::allocator<char> > >)1, matjson::Value, std::__ndk1::allocator<char> >&)
PUBLIC 33f20 0 std::__ndk1::__variant_detail::__visitation::__base::__dispatcher<(unsigned long)1>::__dispatch[abi:ne190000]<std::__ndk1::__variant_detail::__dtor<std::__ndk1::__variant_detail::__traits<std::__ndk1::reference_wrapper<matjson::Value>, std::__ndk1::basic_string<char, std::__ndk1::char_traits<char>, std::__ndk1::allocator<char> > >, (std::__ndk1::__variant_detail::_Trait)1>::__destroy[abi:ne190000]()::{lambda(auto:1&)#1}, std::__ndk1::__variant_detail::__base<(std::__ndk1::__variant_detail::__traits<std::__ndk1::reference_wrapper<matjson::Value>, std::__ndk1::basic_string<char, std::__ndk1::char_traits<char>, std::__ndk1::allocator<char> > >)1, matjson::Value, std::__ndk1::allocator<char> >&>(std::__ndk1::__variant_detail::__dtor<std::__ndk1::__variant_detail::__traits<std::__ndk1::reference_wrapper<matjson::Value>, std::__ndk1::basic_string<char, std::__ndk1::char_traits<char>, std::__ndk1::allocator<char> > >, (std::__ndk1::__variant_detail::_Trait)1>, std::__ndk1::__variant_detail::__base<(std::__ndk1::__variant_detail::__traits<std::__ndk1::reference_wrapper<matjson::Value>, std::__ndk1::basic_string<char, std::__ndk1::char_traits<char>, std::__ndk1::allocator<char> > >)1, matjson::Value, std::__ndk1::allocator<char> >&)
PUBLIC 33f34 0 std::__ndk1::__variant_detail::__visitation::__base::__dispatcher<(unsigned long)0>::__dispatch[abi:ne190000]<std::__ndk1::__variant_detail::__dtor<std::__ndk1::__variant_detail::__traits<bool, std::__ndk1::basic_string<char, std::__ndk1::char_traits<char>, std::__ndk1::allocator<char> > >, (std::__ndk1::__variant_detail::_Trait)1>::__destroy[abi:ne190000]()::{lambda(auto:1&)#1}, std::__ndk1::__variant_detail::__base<(std::__ndk1::__variant_detail::__traits<bool, std::__ndk1::basic_string<char, std::__ndk1::char_traits<char>, std::__ndk1::allocator<char> > >)1, bool, std::__ndk1::allocator<char> >&>(std::__ndk1::__variant_detail::__dtor<std::__ndk1::__variant_detail::__traits<bool, std::__ndk1::basic_string<char, std::__ndk1::char_traits<char>, std::__ndk1::allocator<char> > >, (std::__ndk1::__variant_detail::_Trait)1>, std::__ndk1::__variant_detail::__base<(std::__ndk1::__variant_detail::__traits<bool, std::__ndk1::basic_string<char, std::__ndk1::char_traits<char>, std::__ndk1::allocator<char> > >)1, bool, std::__ndk1::allocator<char> >&)
PUBLIC 33f38 0 std::__ndk1::__variant_detail::__visitation::__base::__dispatcher<(unsigned long)1>::__dispatch[abi:ne190000]<std::__ndk1::__variant_detail::__dtor<std::__ndk1::__variant_detail::__traits<bool, std::__ndk1::basic_string<char, std::__ndk1::char_traits<char>, std::__ndk1::allocator<char> > >, (std::__ndk1::__variant_detail::_Trait)1>::__destroy[abi:ne190000]()::{lambda(auto:1&)#1}, std::__ndk1::__variant_detail::__base<(std::__ndk1::__variant_detail::__traits<bool, std::__ndk1::basic_string<char, std::__ndk1::char_traits<char>, std::__ndk1::allocator<char> > >)1, bool, std::__ndk1::allocator<char> >&>(std::__ndk1::__variant_detail::__dtor<std::__ndk1::__variant_detail::__traits<bool, std::__ndk1::basic_string<char, std::__ndk1::char_traits<char>, std::__ndk1::allocator<char> > >, (std::__ndk1::__variant_detail::_Trait)1>, std::__ndk1::__variant_detail::__base<(std::__ndk1::__variant_detail::__traits<bool, std::__ndk1::basic_string<char, std::__ndk1::char_traits<char>, std::__ndk1::allocator<char> > >)1, bool, std::__ndk1::allocator<char> >&)
PUBLIC 33f4c 0 std::__ndk1::__function::__base<void (FLAlertLayer*, bool)>::~__base()
PUBLIC 33f50 0 std::__ndk1::__function::__func<myChP::onQuestsPlus(cocos2d::CCObject*)::{lambda(auto:1, bool)#1}, std::__ndk1::allocator<myChP::onQuestsPlus(cocos2d::CCObject*)::{lambda(auto:1, bool)#1}>, void (FLAlertLayer*, bool)>::~__func()
PUBLIC 33f54 0 std::__ndk1::__function::__func<myChP::onQuestsPlus(cocos2d::CCObject*)::{lambda(auto:1, bool)#1}, std::__ndk1::allocator<myChP::onQuestsPlus(cocos2d::CCObject*)::{lambda(auto:1, bool)#1}>, void (FLAlertLayer*, bool)>::__clone() const
PUBLIC 33f78 0 std::__ndk1::__function::__func<myChP::onQuestsPlus(cocos2d::CCObject*)::{lambda(auto:1, bool)#1}, std::__ndk1::allocator<myChP::onQuestsPlus(cocos2d::CCObject*)::{lambda(auto:1, bool)#1}>, void (FLAlertLayer*, bool)>::__clone(std::__ndk1::__function::__base<void (FLAlertLayer*, bool)>*) const
PUBLIC 33f88 0 std::__ndk1::__function::__func<myChP::onQuestsPlus(cocos2d::CCObject*)::{lambda(auto:1, bool)#1}, std::__ndk1::allocator<myChP::onQuestsPlus(cocos2d::CCObject*)::{lambda(auto:1, bool)#1}>, void (FLAlertLayer*, bool)>::destroy()
PUBLIC 33f8c 0 std::__ndk1::__function::__func<myChP::onQuestsPlus(cocos2d::CCObject*)::{lambda(auto:1, bool)#1}, std::__ndk1::allocator<myChP::onQuestsPlus(cocos2d::CCObject*)::{lambda(auto:1, bool)#1}>, void (FLAlertLayer*, bool)>::destroy_deallocate()
PUBLIC 33f90 0 std::__ndk1::__function::__func<myChP::onQuestsPlus(cocos2d::CCObject*)::{lambda(auto:1, bool)#1}, std::__ndk1::allocator<myChP::onQuestsPlus(cocos2d::CCObject*)::{lambda(auto:1, bool)#1}>, void (FLAlertLayer*, bool)>::operator()(FLAlertLayer*&&, bool&&)
PUBLIC 3406c 0 std::__ndk1::__function::__func<myChP::onQuestsPlus(cocos2d::CCObject*)::{lambda(auto:1, bool)#1}, std::__ndk1::allocator<myChP::onQuestsPlus(cocos2d::CCObject*)::{lambda(auto:1, bool)#1}>, void (FLAlertLayer*, bool)>::target(std::type_info const&) const
PUBLIC 34088 0 std::__ndk1::__function::__func<myChP::onQuestsPlus(cocos2d::CCObject*)::{lambda(auto:1, bool)#1}, std::__ndk1::allocator<myChP::onQuestsPlus(cocos2d::CCObject*)::{lambda(auto:1, bool)#1}>, void (FLAlertLayer*, bool)>::target_type() const
PUBLIC m 34094 0 geode::Mod::getSavedValue<bool>(std::__ndk1::basic_string_view<char, std::__ndk1::char_traits<char> >)
PUBLIC 3421c 0 std::__ndk1::__tree<std::__ndk1::__value_type<std::__ndk1::basic_string<char, std::__ndk1::char_traits<char>, std::__ndk1::allocator<char> >, std::__ndk1::shared_ptr<geode::Hook> >, std::__ndk1::__map_value_compare<std::__ndk1::basic_string<char, std::__ndk1::char_traits<char>, std::__ndk1::allocator<char> >, std::__ndk1::__value_type<std::__ndk1::basic_string<char, std::__ndk1::char_traits<char>, std::__ndk1::allocator<char> >, std::__ndk1::shared_ptr<geode::Hook> >, std::__ndk1::less<std::__ndk1::basic_string<char, std::__ndk1::char_traits<char>, std::__ndk1::allocator<char> > >, true>, std::__ndk1::allocator<std::__ndk1::__value_type<std::__ndk1::basic_string<char, std::__ndk1::char_traits<char>, std::__ndk1::allocator<char> >, std::__ndk1::shared_ptr<geode::Hook> > > >::__emplace_unique_key_args<std::__ndk1::basic_string<char, std::__ndk1::char_traits<char>, std::__ndk1::allocator<char> >, std::__ndk1::piecewise_construct_t const&, std::__ndk1::tuple<std::__ndk1::basic_string<char, std::__ndk1::char_traits<char>, std::__ndk1::allocator<char> >&&>, std::__ndk1::tuple<> >(std::__ndk1::basic_string<char, std::__ndk1::char_traits<char>, std::__ndk1::allocator<char> > const&, std::__ndk1::piecewise_construct_t const&, std::__ndk1::tuple<std::__ndk1::basic_string<char, std::__ndk1::char_traits<char>, std::__ndk1::allocator<char> >&&>, std::__ndk1::tuple<>)
PUBLIC 34394 0 std::__ndk1::__tree_balance_after_insert[abi:ne190000]<std::__ndk1::__tree_node_base<void*>*>(std::__ndk1::__tree_node_base<void*>*, std::__ndk1::__tree_node_base<void*>*)
PUBLIC 3453c 0 __cxx_global_var_init
PUBLIC 34b98 0 geode::modifier::ModifyBase<geode::modifier::ModifyDerive<BQGSM, GameStatsManager> >::~ModifyBase()
PUBLIC 34bb4 0 geode::modifier::ModifyDerive<BQGSM, GameStatsManager>::apply()
PUBLIC 34f70 0 geode::modifier::ModifyBase<geode::modifier::ModifyDerive<BQGSM, GameStatsManager> >::apply()
PUBLIC m 34f74 0 std::__ndk1::__tree<std::__ndk1::__value_type<std::__ndk1::basic_string<char, std::__ndk1::char_traits<char>, std::__ndk1::allocator<char> >, std::__ndk1::shared_ptr<geode::Hook> >, std::__ndk1::__map_value_compare<std::__ndk1::basic_string<char, std::__ndk1::char_traits<char>, std::__ndk1::allocator<char> >, std::__ndk1::__value_type<std::__ndk1::basic_string<char, std::__ndk1::char_traits<char>, std::__ndk1::allocator<char> >, std::__ndk1::shared_ptr<geode::Hook> >, std::__ndk1::less<std::__ndk1::basic_string<char, std::__ndk1::char_traits<char>, std::__ndk1::allocator<char> > >, true>, std::__ndk1::allocator<std::__ndk1::__value_type<std::__ndk1::basic_string<char, std::__ndk1::char_traits<char>, std::__ndk1::allocator<char> >, std::__ndk1::shared_ptr<geode::Hook> > > >::__emplace_unique_key_args<std::__ndk1::basic_string<char, std::__ndk1::char_traits<char>, std::__ndk1::allocator<char> >, std::__ndk1::piecewise_construct_t const&, std::__ndk1::tuple<std::__ndk1::basic_string<char, std::__ndk1::char_traits<char>, std::__ndk1::allocator<char> > const&>, std::__ndk1::tuple<> >(std::__ndk1::basic_string<char, std::__ndk1::char_traits<char>, std::__ndk1::allocator<char> > const&, std::__ndk1::piecewise_construct_t const&, std::__ndk1::tuple<std::__ndk1::basic_string<char, std::__ndk1::char_traits<char>, std::__ndk1::allocator<char> > const&>, std::__ndk1::tuple<>)
PUBLIC 35168 0 std::__ndk1::unique_ptr<std::__ndk1::__tree_node<std::__ndk1::__value_type<std::__ndk1::basic_string<char, std::__ndk1::char_traits<char>, std::__ndk1::allocator<char> >, std::__ndk1::shared_ptr<geode::Hook> >, void*>, std::__ndk1::__tree_node_destructor<std::__ndk1::allocator<std::__ndk1::__tree_node<std::__ndk1::__value_type<std::__ndk1::basic_string<char, std::__ndk1::char_traits<char>, std::__ndk1::allocator<char> >, std::__ndk1::shared_ptr<geode::Hook> >, void*> > > >::~unique_ptr[abi:ne190000]()
PUBLIC 351e4 0 _ZN5geode15UnwrapExceptionC2IRNSt6__ndk112basic_stringIcNS2_11char_traitsIcEENS2_9allocatorIcEEEEQsr4implE18IsStringStreamableIT_EEENS_4impl6ErrTagEOSA_
PUBLIC 3534c 0 std::__ndk1::__variant_detail::__visitation::__base::__dispatcher<(unsigned long)0>::__dispatch[abi:ne190000]<std::__ndk1::__variant_detail::__dtor<std::__ndk1::__variant_detail::__traits<std::__ndk1::monostate, std::__ndk1::basic_string<char, std::__ndk1::char_traits<char>, std::__ndk1::allocator<char> > >, (std::__ndk1::__variant_detail::_Trait)1>::__destroy[abi:ne190000]()::{lambda(auto:1&)#1}, std::__ndk1::__variant_detail::__base<(std::__ndk1::__variant_detail::__traits<std::__ndk1::monostate, std::__ndk1::basic_string<char, std::__ndk1::char_traits<char>, std::__ndk1::allocator<char> > >)1, std::__ndk1::__variant_detail::__traits, std::__ndk1::allocator<char> >&>(std::__ndk1::__variant_detail::__dtor<std::__ndk1::__variant_detail::__traits<std::__ndk1::monostate, std::__ndk1::basic_string<char, std::__ndk1::char_traits<char>, std::__ndk1::allocator<char> > >, (std::__ndk1::__variant_detail::_Trait)1>, std::__ndk1::__variant_detail::__base<(std::__ndk1::__variant_detail::__traits<std::__ndk1::monostate, std::__ndk1::basic_string<char, std::__ndk1::char_traits<char>, std::__ndk1::allocator<char> > >)1, std::__ndk1::__variant_detail::__traits, std::__ndk1::allocator<char> >&)
PUBLIC 35350 0 std::__ndk1::__variant_detail::__visitation::__base::__dispatcher<(unsigned long)1>::__dispatch[abi:ne190000]<std::__ndk1::__variant_detail::__dtor<std::__ndk1::__variant_detail::__traits<std::__ndk1::monostate, std::__ndk1::basic_string<char, std::__ndk1::char_traits<char>, std::__ndk1::allocator<char> > >, (std::__ndk1::__variant_detail::_Trait)1>::__destroy[abi:ne190000]()::{lambda(auto:1&)#1}, std::__ndk1::__variant_detail::__base<(std::__ndk1::__variant_detail::__traits<std::__ndk1::monostate, std::__ndk1::basic_string<char, std::__ndk1::char_traits<char>, std::__ndk1::allocator<char> > >)1, std::__ndk1::__variant_detail::__traits, std::__ndk1::allocator<char> >&>(std::__ndk1::__variant_detail::__dtor<std::__ndk1::__variant_detail::__traits<std::__ndk1::monostate, std::__ndk1::basic_string<char, std::__ndk1::char_traits<char>, std::__ndk1::allocator<char> > >, (std::__ndk1::__variant_detail::_Trait)1>, std::__ndk1::__variant_detail::__base<(std::__ndk1::__variant_detail::__traits<std::__ndk1::monostate, std::__ndk1::basic_string<char, std::__ndk1::char_traits<char>, std::__ndk1::allocator<char> > >)1, std::__ndk1::__variant_detail::__traits, std::__ndk1::allocator<char> >&)
PUBLIC 35364 0 geode::modifier::AsStaticFunction_incrementStat<BQGSM, void (BQGSM::*)(char const*, int)>::Impl<void (BQGSM::*)(char const*, int)>::function(BQGSM*, char const*, int)
PUBLIC 35830 0 std::__ndk1::vector<tulip::hook::AbstractType, std::__ndk1::allocator<tulip::hook::AbstractType> >::__throw_length_error[abi:ne190000]() const
PUBLIC 35844 0 Quest::Quest(Quest const&)
PUBLIC 35a00 0 Quest::~Quest()
PUBLIC 35a84 0 geode::Mod::setSavedValue<std::__ndk1::vector<Quest, std::__ndk1::allocator<Quest> > >(std::__ndk1::basic_string_view<char, std::__ndk1::char_traits<char> >, std::__ndk1::vector<Quest, std::__ndk1::allocator<Quest> > const&)
PUBLIC 35b80 0 std::__ndk1::vector<Quest, std::__ndk1::allocator<Quest> >::~vector[abi:ne190000]()
PUBLIC 35bb0 0 geode::Mod::getSavedValue<std::__ndk1::vector<Quest, std::__ndk1::allocator<Quest> > >(std::__ndk1::basic_string_view<char, std::__ndk1::char_traits<char> >)
PUBLIC 35d94 0 geode::impl::ResultData<std::__ndk1::vector<Quest, std::__ndk1::allocator<Quest> >, std::__ndk1::basic_string<char, std::__ndk1::char_traits<char>, std::__ndk1::allocator<char> > >::~ResultData()
PUBLIC 35e08 0 _ZN7matjson9SerializeINSt6__ndk16vectorI5QuestNS1_9allocatorIS3_EEEEE8fromJsonERKNS_5ValueEQrQSA__Xcldtfp_2asIT_EEE
PUBLIC 3625c 0 std::__ndk1::vector<Quest, std::__ndk1::allocator<Quest> >::reserve(unsigned long)
PUBLIC 36368 0 geode::impl::ResultData<Quest, std::__ndk1::basic_string<char, std::__ndk1::char_traits<char>, std::__ndk1::allocator<char> > >::~ResultData()
PUBLIC 363dc 0 std::__ndk1::vector<Quest, std::__ndk1::allocator<Quest> >::__throw_length_error[abi:ne190000]() const
PUBLIC 363f0 0 std::__ndk1::vector<Quest, std::__ndk1::allocator<Quest> >::__swap_out_circular_buffer(std::__ndk1::__split_buffer<Quest, std::__ndk1::allocator<Quest>&>&)
PUBLIC 365b0 0 std::__ndk1::__split_buffer<Quest, std::__ndk1::allocator<Quest>&>::~__split_buffer()
PUBLIC 365e8 0 std::__ndk1::__allocator_destroy[abi:ne190000]<std::__ndk1::allocator<Quest>, std::__ndk1::allocator*, std::__ndk1::allocator<Quest> >(std::__ndk1::allocator<Quest>&, std::__ndk1::allocator*, std::__ndk1::allocator<Quest>)
PUBLIC 36688 0 std::__ndk1::__exception_guard_exceptions<std::__ndk1::_AllocatorDestroyRangeReverse<std::__ndk1::allocator<Quest>, Quest*> >::~__exception_guard_exceptions[abi:ne190000]()
PUBLIC 366c0 0 std::__ndk1::__allocator_destroy[abi:ne190000]<std::__ndk1::allocator<Quest>, std::__ndk1::reverse_iterator<std::__ndk1::allocator*>, std::__ndk1::allocator*>(std::__ndk1::allocator<Quest>&, std::__ndk1::reverse_iterator<std::__ndk1::allocator*>, std::__ndk1::allocator*)
PUBLIC 36760 0 std::__ndk1::__split_buffer<Quest, std::__ndk1::allocator<Quest>&>::__destruct_at_end[abi:ne190000](Quest*)
PUBLIC 36814 0 matjson::Serialize<Quest>::fromJson(matjson::Value const&)
PUBLIC 36fa8 0 matjson::Value::as<int>() const
PUBLIC 370ac 0 matjson::Value::as<float>() const
PUBLIC m 371b4 0 geode::impl::ResultData<matjson::Value, matjson::ParseError>::~ResultData()
PUBLIC m 37228 0 geode::impl::ResultData<std::__ndk1::basic_string<char, std::__ndk1::char_traits<char>, std::__ndk1::allocator<char> >, std::__ndk1::basic_string<char, std::__ndk1::char_traits<char>, std::__ndk1::allocator<char> > >::~ResultData()
PUBLIC m 3729c 0 geode::impl::ResultData<int, std::__ndk1::basic_string<char, std::__ndk1::char_traits<char>, std::__ndk1::allocator<char> > >::~ResultData()
PUBLIC 37310 0 std::__ndk1::__variant_detail::__visitation::__base::__dispatcher<(unsigned long)0>::__dispatch[abi:ne190000]<std::__ndk1::__variant_detail::__dtor<std::__ndk1::__variant_detail::__traits<long, std::__ndk1::basic_string<char, std::__ndk1::char_traits<char>, std::__ndk1::allocator<char> > >, (std::__ndk1::__variant_detail::_Trait)1>::__destroy[abi:ne190000]()::{lambda(auto:1&)#1}, std::__ndk1::__variant_detail::__base<(std::__ndk1::__variant_detail::__traits<long, std::__ndk1::basic_string<char, std::__ndk1::char_traits<char>, std::__ndk1::allocator<char> > >)1, long, std::__ndk1::allocator<char> >&>(std::__ndk1::__variant_detail::__dtor<std::__ndk1::__variant_detail::__traits<long, std::__ndk1::basic_string<char, std::__ndk1::char_traits<char>, std::__ndk1::allocator<char> > >, (std::__ndk1::__variant_detail::_Trait)1>, std::__ndk1::__variant_detail::__base<(std::__ndk1::__variant_detail::__traits<long, std::__ndk1::basic_string<char, std::__ndk1::char_traits<char>, std::__ndk1::allocator<char> > >)1, long, std::__ndk1::allocator<char> >&)
PUBLIC 37314 0 std::__ndk1::__variant_detail::__visitation::__base::__dispatcher<(unsigned long)1>::__dispatch[abi:ne190000]<std::__ndk1::__variant_detail::__dtor<std::__ndk1::__variant_detail::__traits<long, std::__ndk1::basic_string<char, std::__ndk1::char_traits<char>, std::__ndk1::allocator<char> > >, (std::__ndk1::__variant_detail::_Trait)1>::__destroy[abi:ne190000]()::{lambda(auto:1&)#1}, std::__ndk1::__variant_detail::__base<(std::__ndk1::__variant_detail::__traits<long, std::__ndk1::basic_string<char, std::__ndk1::char_traits<char>, std::__ndk1::allocator<char> > >)1, long, std::__ndk1::allocator<char> >&>(std::__ndk1::__variant_detail::__dtor<std::__ndk1::__variant_detail::__traits<long, std::__ndk1::basic_string<char, std::__ndk1::char_traits<char>, std::__ndk1::allocator<char> > >, (std::__ndk1::__variant_detail::_Trait)1>, std::__ndk1::__variant_detail::__base<(std::__ndk1::__variant_detail::__traits<long, std::__ndk1::basic_string<char, std::__ndk1::char_traits<char>, std::__ndk1::allocator<char> > >)1, long, std::__ndk1::allocator<char> >&)
PUBLIC 37328 0 std::__ndk1::__variant_detail::__visitation::__base::__dispatcher<(unsigned long)0>::__dispatch[abi:ne190000]<std::__ndk1::__variant_detail::__dtor<std::__ndk1::__variant_detail::__traits<double, std::__ndk1::basic_string<char, std::__ndk1::char_traits<char>, std::__ndk1::allocator<char> > >, (std::__ndk1::__variant_detail::_Trait)1>::__destroy[abi:ne190000]()::{lambda(auto:1&)#1}, std::__ndk1::__variant_detail::__base<(std::__ndk1::__variant_detail::__traits<double, std::__ndk1::basic_string<char, std::__ndk1::char_traits<char>, std::__ndk1::allocator<char> > >)1, double, std::__ndk1::allocator<char> >&>(std::__ndk1::__variant_detail::__dtor<std::__ndk1::__variant_detail::__traits<double, std::__ndk1::basic_string<char, std::__ndk1::char_traits<char>, std::__ndk1::allocator<char> > >, (std::__ndk1::__variant_detail::_Trait)1>, std::__ndk1::__variant_detail::__base<(std::__ndk1::__variant_detail::__traits<double, std::__ndk1::basic_string<char, std::__ndk1::char_traits<char>, std::__ndk1::allocator<char> > >)1, double, std::__ndk1::allocator<char> >&)
PUBLIC 3732c 0 std::__ndk1::__variant_detail::__visitation::__base::__dispatcher<(unsigned long)1>::__dispatch[abi:ne190000]<std::__ndk1::__variant_detail::__dtor<std::__ndk1::__variant_detail::__traits<double, std::__ndk1::basic_string<char, std::__ndk1::char_traits<char>, std::__ndk1::allocator<char> > >, (std::__ndk1::__variant_detail::_Trait)1>::__destroy[abi:ne190000]()::{lambda(auto:1&)#1}, std::__ndk1::__variant_detail::__base<(std::__ndk1::__variant_detail::__traits<double, std::__ndk1::basic_string<char, std::__ndk1::char_traits<char>, std::__ndk1::allocator<char> > >)1, double, std::__ndk1::allocator<char> >&>(std::__ndk1::__variant_detail::__dtor<std::__ndk1::__variant_detail::__traits<double, std::__ndk1::basic_string<char, std::__ndk1::char_traits<char>, std::__ndk1::allocator<char> > >, (std::__ndk1::__variant_detail::_Trait)1>, std::__ndk1::__variant_detail::__base<(std::__ndk1::__variant_detail::__traits<double, std::__ndk1::basic_string<char, std::__ndk1::char_traits<char>, std::__ndk1::allocator<char> > >)1, double, std::__ndk1::allocator<char> >&)
PUBLIC 37340 0 std::__ndk1::__variant_detail::__visitation::__base::__dispatcher<(unsigned long)0>::__dispatch[abi:ne190000]<std::__ndk1::__variant_detail::__dtor<std::__ndk1::__variant_detail::__traits<float, std::__ndk1::basic_string<char, std::__ndk1::char_traits<char>, std::__ndk1::allocator<char> > >, (std::__ndk1::__variant_detail::_Trait)1>::__destroy[abi:ne190000]()::{lambda(auto:1&)#1}, std::__ndk1::__variant_detail::__base<(std::__ndk1::__variant_detail::__traits<float, std::__ndk1::basic_string<char, std::__ndk1::char_traits<char>, std::__ndk1::allocator<char> > >)1, float, std::__ndk1::allocator<char> >&>(std::__ndk1::__variant_detail::__dtor<std::__ndk1::__variant_detail::__traits<float, std::__ndk1::basic_string<char, std::__ndk1::char_traits<char>, std::__ndk1::allocator<char> > >, (std::__ndk1::__variant_detail::_Trait)1>, std::__ndk1::__variant_detail::__base<(std::__ndk1::__variant_detail::__traits<float, std::__ndk1::basic_string<char, std::__ndk1::char_traits<char>, std::__ndk1::allocator<char> > >)1, float, std::__ndk1::allocator<char> >&)
PUBLIC 37344 0 std::__ndk1::__variant_detail::__visitation::__base::__dispatcher<(unsigned long)1>::__dispatch[abi:ne190000]<std::__ndk1::__variant_detail::__dtor<std::__ndk1::__variant_detail::__traits<float, std::__ndk1::basic_string<char, std::__ndk1::char_traits<char>, std::__ndk1::allocator<char> > >, (std::__ndk1::__variant_detail::_Trait)1>::__destroy[abi:ne190000]()::{lambda(auto:1&)#1}, std::__ndk1::__variant_detail::__base<(std::__ndk1::__variant_detail::__traits<float, std::__ndk1::basic_string<char, std::__ndk1::char_traits<char>, std::__ndk1::allocator<char> > >)1, float, std::__ndk1::allocator<char> >&>(std::__ndk1::__variant_detail::__dtor<std::__ndk1::__variant_detail::__traits<float, std::__ndk1::basic_string<char, std::__ndk1::char_traits<char>, std::__ndk1::allocator<char> > >, (std::__ndk1::__variant_detail::_Trait)1>, std::__ndk1::__variant_detail::__base<(std::__ndk1::__variant_detail::__traits<float, std::__ndk1::basic_string<char, std::__ndk1::char_traits<char>, std::__ndk1::allocator<char> > >)1, float, std::__ndk1::allocator<char> >&)
PUBLIC 37358 0 std::__ndk1::__variant_detail::__visitation::__base::__dispatcher<(unsigned long)0>::__dispatch[abi:ne190000]<std::__ndk1::__variant_detail::__dtor<std::__ndk1::__variant_detail::__traits<matjson::Value, std::__ndk1::__variant_detail::__traits::ParseError>, (std::__ndk1::__variant_detail::_Trait)1>::__destroy[abi:ne190000]()::{lambda(auto:1&)#1}, std::__ndk1::__variant_detail::__base<(std::__ndk1::__variant_detail::__traits<matjson::Value, std::__ndk1::__variant_detail::__traits::ParseError>)1, matjson, matjson::Value>&>(std::__ndk1::__variant_detail::__dtor<std::__ndk1::__variant_detail::__traits<matjson::Value, std::__ndk1::__variant_detail::__traits::ParseError>, (std::__ndk1::__variant_detail::_Trait)1>, std::__ndk1::__variant_detail::__base<(std::__ndk1::__variant_detail::__traits<matjson::Value, std::__ndk1::__variant_detail::__traits::ParseError>)1, matjson, matjson::Value>&)
PUBLIC 37360 0 std::__ndk1::__variant_detail::__visitation::__base::__dispatcher<(unsigned long)1>::__dispatch[abi:ne190000]<std::__ndk1::__variant_detail::__dtor<std::__ndk1::__variant_detail::__traits<matjson::Value, std::__ndk1::__variant_detail::__traits::ParseError>, (std::__ndk1::__variant_detail::_Trait)1>::__destroy[abi:ne190000]()::{lambda(auto:1&)#1}, std::__ndk1::__variant_detail::__base<(std::__ndk1::__variant_detail::__traits<matjson::Value, std::__ndk1::__variant_detail::__traits::ParseError>)1, matjson, matjson::Value>&>(std::__ndk1::__variant_detail::__dtor<std::__ndk1::__variant_detail::__traits<matjson::Value, std::__ndk1::__variant_detail::__traits::ParseError>, (std::__ndk1::__variant_detail::_Trait)1>, std::__ndk1::__variant_detail::__base<(std::__ndk1::__variant_detail::__traits<matjson::Value, std::__ndk1::__variant_detail::__traits::ParseError>)1, matjson, matjson::Value>&)
PUBLIC 37374 0 std::__ndk1::__variant_detail::__visitation::__base::__dispatcher<(unsigned long)0>::__dispatch[abi:ne190000]<std::__ndk1::__variant_detail::__dtor<std::__ndk1::__variant_detail::__traits<std::__ndk1::basic_string<char, std::__ndk1::char_traits<char>, std::__ndk1::allocator<char> >, std::__ndk1::allocator<char> >, (std::__ndk1::__variant_detail::_Trait)1>::__destroy[abi:ne190000]()::{lambda(auto:1&)#1}, std::__ndk1::__variant_detail::__base<(std::__ndk1::__variant_detail::__traits<std::__ndk1::basic_string<char, std::__ndk1::char_traits<char>, std::__ndk1::allocator<char> >, std::__ndk1::allocator<char> >)1, std::__ndk1::allocator<char>, std::__ndk1::allocator<char> >&>(std::__ndk1::__variant_detail::__dtor<std::__ndk1::__variant_detail::__traits<std::__ndk1::basic_string<char, std::__ndk1::char_traits<char>, std::__ndk1::allocator<char> >, std::__ndk1::allocator<char> >, (std::__ndk1::__variant_detail::_Trait)1>, std::__ndk1::__variant_detail::__base<(std::__ndk1::__variant_detail::__traits<std::__ndk1::basic_string<char, std::__ndk1::char_traits<char>, std::__ndk1::allocator<char> >, std::__ndk1::allocator<char> >)1, std::__ndk1::allocator<char>, std::__ndk1::allocator<char> >&)
PUBLIC 37388 0 std::__ndk1::__variant_detail::__visitation::__base::__dispatcher<(unsigned long)1>::__dispatch[abi:ne190000]<std::__ndk1::__variant_detail::__dtor<std::__ndk1::__variant_detail::__traits<std::__ndk1::basic_string<char, std::__ndk1::char_traits<char>, std::__ndk1::allocator<char> >, std::__ndk1::allocator<char> >, (std::__ndk1::__variant_detail::_Trait)1>::__destroy[abi:ne190000]()::{lambda(auto:1&)#1}, std::__ndk1::__variant_detail::__base<(std::__ndk1::__variant_detail::__traits<std::__ndk1::basic_string<char, std::__ndk1::char_traits<char>, std::__ndk1::allocator<char> >, std::__ndk1::allocator<char> >)1, std::__ndk1::allocator<char>, std::__ndk1::allocator<char> >&>(std::__ndk1::__variant_detail::__dtor<std::__ndk1::__variant_detail::__traits<std::__ndk1::basic_string<char, std::__ndk1::char_traits<char>, std::__ndk1::allocator<char> >, std::__ndk1::allocator<char> >, (std::__ndk1::__variant_detail::_Trait)1>, std::__ndk1::__variant_detail::__base<(std::__ndk1::__variant_detail::__traits<std::__ndk1::basic_string<char, std::__ndk1::char_traits<char>, std::__ndk1::allocator<char> >, std::__ndk1::allocator<char> >)1, std::__ndk1::allocator<char>, std::__ndk1::allocator<char> >&)
PUBLIC 3739c 0 std::__ndk1::__variant_detail::__visitation::__base::__dispatcher<(unsigned long)0>::__dispatch[abi:ne190000]<std::__ndk1::__variant_detail::__dtor<std::__ndk1::__variant_detail::__traits<int, std::__ndk1::basic_string<char, std::__ndk1::char_traits<char>, std::__ndk1::allocator<char> > >, (std::__ndk1::__variant_detail::_Trait)1>::__destroy[abi:ne190000]()::{lambda(auto:1&)#1}, std::__ndk1::__variant_detail::__base<(std::__ndk1::__variant_detail::__traits<int, std::__ndk1::basic_string<char, std::__ndk1::char_traits<char>, std::__ndk1::allocator<char> > >)1, int, std::__ndk1::allocator<char> >&>(std::__ndk1::__variant_detail::__dtor<std::__ndk1::__variant_detail::__traits<int, std::__ndk1::basic_string<char, std::__ndk1::char_traits<char>, std::__ndk1::allocator<char> > >, (std::__ndk1::__variant_detail::_Trait)1>, std::__ndk1::__variant_detail::__base<(std::__ndk1::__variant_detail::__traits<int, std::__ndk1::basic_string<char, std::__ndk1::char_traits<char>, std::__ndk1::allocator<char> > >)1, int, std::__ndk1::allocator<char> >&)
PUBLIC 373a0 0 std::__ndk1::__variant_detail::__visitation::__base::__dispatcher<(unsigned long)1>::__dispatch[abi:ne190000]<std::__ndk1::__variant_detail::__dtor<std::__ndk1::__variant_detail::__traits<int, std::__ndk1::basic_string<char, std::__ndk1::char_traits<char>, std::__ndk1::allocator<char> > >, (std::__ndk1::__variant_detail::_Trait)1>::__destroy[abi:ne190000]()::{lambda(auto:1&)#1}, std::__ndk1::__variant_detail::__base<(std::__ndk1::__variant_detail::__traits<int, std::__ndk1::basic_string<char, std::__ndk1::char_traits<char>, std::__ndk1::allocator<char> > >)1, int, std::__ndk1::allocator<char> >&>(std::__ndk1::__variant_detail::__dtor<std::__ndk1::__variant_detail::__traits<int, std::__ndk1::basic_string<char, std::__ndk1::char_traits<char>, std::__ndk1::allocator<char> > >, (std::__ndk1::__variant_detail::_Trait)1>, std::__ndk1::__variant_detail::__base<(std::__ndk1::__variant_detail::__traits<int, std::__ndk1::basic_string<char, std::__ndk1::char_traits<char>, std::__ndk1::allocator<char> > >)1, int, std::__ndk1::allocator<char> >&)
PUBLIC 373b4 0 std::__ndk1::vector<Quest, std::__ndk1::allocator<Quest> >::__emplace_back_slow_path<Quest>(Quest&&)
PUBLIC 375b0 0 std::__ndk1::__variant_detail::__visitation::__base::__dispatcher<(unsigned long)0>::__dispatch[abi:ne190000]<std::__ndk1::__variant_detail::__dtor<std::__ndk1::__variant_detail::__traits<Quest, std::__ndk1::basic_string<char, std::__ndk1::char_traits<char>, std::__ndk1::allocator<char> > >, (std::__ndk1::__variant_detail::_Trait)1>::__destroy[abi:ne190000]()::{lambda(auto:1&)#1}, std::__ndk1::__variant_detail::__base<(std::__ndk1::__variant_detail::__traits<Quest, std::__ndk1::basic_string<char, std::__ndk1::char_traits<char>, std::__ndk1::allocator<char> > >)1, std::__ndk1::__variant_detail::__traits, std::__ndk1::allocator<char> >&>(std::__ndk1::__variant_detail::__dtor<std::__ndk1::__variant_detail::__traits<Quest, std::__ndk1::basic_string<char, std::__ndk1::char_traits<char>, std::__ndk1::allocator<char> > >, (std::__ndk1::__variant_detail::_Trait)1>, std::__ndk1::__variant_detail::__base<(std::__ndk1::__variant_detail::__traits<Quest, std::__ndk1::basic_string<char, std::__ndk1::char_traits<char>, std::__ndk1::allocator<char> > >)1, std::__ndk1::__variant_detail::__traits, std::__ndk1::allocator<char> >&)
PUBLIC 37634 0 std::__ndk1::__variant_detail::__visitation::__base::__dispatcher<(unsigned long)1>::__dispatch[abi:ne190000]<std::__ndk1::__variant_detail::__dtor<std::__ndk1::__variant_detail::__traits<Quest, std::__ndk1::basic_string<char, std::__ndk1::char_traits<char>, std::__ndk1::allocator<char> > >, (std::__ndk1::__variant_detail::_Trait)1>::__destroy[abi:ne190000]()::{lambda(auto:1&)#1}, std::__ndk1::__variant_detail::__base<(std::__ndk1::__variant_detail::__traits<Quest, std::__ndk1::basic_string<char, std::__ndk1::char_traits<char>, std::__ndk1::allocator<char> > >)1, std::__ndk1::__variant_detail::__traits, std::__ndk1::allocator<char> >&>(std::__ndk1::__variant_detail::__dtor<std::__ndk1::__variant_detail::__traits<Quest, std::__ndk1::basic_string<char, std::__ndk1::char_traits<char>, std::__ndk1::allocator<char> > >, (std::__ndk1::__variant_detail::_Trait)1>, std::__ndk1::__variant_detail::__base<(std::__ndk1::__variant_detail::__traits<Quest, std::__ndk1::basic_string<char, std::__ndk1::char_traits<char>, std::__ndk1::allocator<char> > >)1, std::__ndk1::__variant_detail::__traits, std::__ndk1::allocator<char> >&)
PUBLIC 37648 0 std::__ndk1::vector<Quest, std::__ndk1::allocator<Quest> >::__init_with_size[abi:ne190000]<Quest*, std::__ndk1::vector<Quest, std::__ndk1::allocator<Quest> >::__init_with_size[abi:ne190000]>(Quest*, std::__ndk1::vector<Quest, std::__ndk1::allocator<Quest> >::__init_with_size[abi:ne190000], unsigned long)
PUBLIC 37788 0 std::__ndk1::__exception_guard_exceptions<std::__ndk1::vector<Quest, std::__ndk1::allocator<Quest> >::__destroy_vector>::~__exception_guard_exceptions[abi:ne190000]()
PUBLIC 377cc 0 std::__ndk1::vector<Quest, std::__ndk1::allocator<Quest> >::__base_destruct_at_end[abi:ne190000](Quest*)
PUBLIC 37878 0 std::__ndk1::__variant_detail::__visitation::__base::__dispatcher<(unsigned long)0>::__dispatch[abi:ne190000]<std::__ndk1::__variant_detail::__dtor<std::__ndk1::__variant_detail::__traits<std::__ndk1::vector<Quest, std::__ndk1::allocator<std::__ndk1::vector> >, std::__ndk1::basic_string<char, std::__ndk1::char_traits<char>, Quest<char> > >, (std::__ndk1::__variant_detail::_Trait)1>::__destroy[abi:ne190000]()::{lambda(auto:1&)#1}, std::__ndk1::__variant_detail::__base<(std::__ndk1::__variant_detail::__traits<std::__ndk1::vector<Quest, std::__ndk1::allocator<std::__ndk1::vector> >, std::__ndk1::basic_string<char, std::__ndk1::char_traits<char>, Quest<char> > >)1, std::__ndk1::allocator<std::__ndk1::vector>, Quest<char> >&>(std::__ndk1::__variant_detail::__dtor<std::__ndk1::__variant_detail::__traits<std::__ndk1::vector<Quest, std::__ndk1::allocator<std::__ndk1::vector> >, std::__ndk1::basic_string<char, std::__ndk1::char_traits<char>, Quest<char> > >, (std::__ndk1::__variant_detail::_Trait)1>, std::__ndk1::__variant_detail::__base<(std::__ndk1::__variant_detail::__traits<std::__ndk1::vector<Quest, std::__ndk1::allocator<std::__ndk1::vector> >, std::__ndk1::basic_string<char, std::__ndk1::char_traits<char>, Quest<char> > >)1, std::__ndk1::allocator<std::__ndk1::vector>, Quest<char> >&)
PUBLIC 378b0 0 std::__ndk1::__variant_detail::__visitation::__base::__dispatcher<(unsigned long)1>::__dispatch[abi:ne190000]<std::__ndk1::__variant_detail::__dtor<std::__ndk1::__variant_detail::__traits<std::__ndk1::vector<Quest, std::__ndk1::allocator<std::__ndk1::vector> >, std::__ndk1::basic_string<char, std::__ndk1::char_traits<char>, Quest<char> > >, (std::__ndk1::__variant_detail::_Trait)1>::__destroy[abi:ne190000]()::{lambda(auto:1&)#1}, std::__ndk1::__variant_detail::__base<(std::__ndk1::__variant_detail::__traits<std::__ndk1::vector<Quest, std::__ndk1::allocator<std::__ndk1::vector> >, std::__ndk1::basic_string<char, std::__ndk1::char_traits<char>, Quest<char> > >)1, std::__ndk1::allocator<std::__ndk1::vector>, Quest<char> >&>(std::__ndk1::__variant_detail::__dtor<std::__ndk1::__variant_detail::__traits<std::__ndk1::vector<Quest, std::__ndk1::allocator<std::__ndk1::vector> >, std::__ndk1::basic_string<char, std::__ndk1::char_traits<char>, Quest<char> > >, (std::__ndk1::__variant_detail::_Trait)1>, std::__ndk1::__variant_detail::__base<(std::__ndk1::__variant_detail::__traits<std::__ndk1::vector<Quest, std::__ndk1::allocator<std::__ndk1::vector> >, std::__ndk1::basic_string<char, std::__ndk1::char_traits<char>, Quest<char> > >)1, std::__ndk1::allocator<std::__ndk1::vector>, Quest<char> >&)
PUBLIC 378c4 0 _ZN7matjson9SerializeINSt6__ndk16vectorI5QuestNS1_9allocatorIS3_EEEEE6toJsonERKS6_QrQRKT__XcvNS_5ValueEfp_E
PUBLIC 37a8c 0 std::__ndk1::vector<matjson::Value, std::__ndk1::allocator<matjson::Value> >::reserve(unsigned long)
PUBLIC 37b6c 0 std::__ndk1::vector<matjson::Value, std::__ndk1::allocator<matjson::Value> >::~vector[abi:ne190000]()
PUBLIC 37bd4 0 std::__ndk1::vector<matjson::Value, std::__ndk1::allocator<matjson::Value> >::__throw_length_error[abi:ne190000]() const
PUBLIC 37be8 0 std::__ndk1::__split_buffer<matjson::Value, std::__ndk1::allocator<matjson::Value>&>::~__split_buffer()
PUBLIC 37c3c 0 matjson::Serialize<Quest>::toJson(Quest const&)
PUBLIC m 3804c 0 matjson::makeObject(std::initializer_list<std::__ndk1::pair<std::__ndk1::basic_string<char, std::__ndk1::char_traits<char>, std::__ndk1::allocator<char> >, matjson::Value> >)
PUBLIC 38200 0 _ZNSt6__ndk14pairINS_12basic_stringIcNS_11char_traitsIcEENS_9allocatorIcEEEEN7matjson5ValueEEC2B8ne190000IRA3_KcRKiTnNS_9enable_ifIXclsr10_CheckArgsE23__is_pair_constructibleIT_T0_EEEiE4typeELi0EEEOSH_OSI_
PUBLIC 382d8 0 _ZNSt6__ndk14pairINS_12basic_stringIcNS_11char_traitsIcEENS_9allocatorIcEEEEN7matjson5ValueEEC2B8ne190000IRA5_KcRKS6_TnNS_9enable_ifIXclsr10_CheckArgsE23__is_pair_constructibleIT_T0_EEEiE4typeELi0EEEOSH_OSI_
PUBLIC 38478 0 _ZNSt6__ndk14pairINS_12basic_stringIcNS_11char_traitsIcEENS_9allocatorIcEEEEN7matjson5ValueEEC2B8ne190000IRA12_KcRKS6_TnNS_9enable_ifIXclsr10_CheckArgsE23__is_pair_constructibleIT_T0_EEEiE4typeELi0EEEOSH_OSI_
PUBLIC 38618 0 _ZNSt6__ndk14pairINS_12basic_stringIcNS_11char_traitsIcEENS_9allocatorIcEEEEN7matjson5ValueEEC2B8ne190000IRA7_KcRKiTnNS_9enable_ifIXclsr10_CheckArgsE23__is_pair_constructibleIT_T0_EEEiE4typeELi0EEEOSH_OSI_
PUBLIC 386f0 0 _ZNSt6__ndk14pairINS_12basic_stringIcNS_11char_traitsIcEENS_9allocatorIcEEEEN7matjson5ValueEEC2B8ne190000IRA11_KcRKS6_TnNS_9enable_ifIXclsr10_CheckArgsE23__is_pair_constructibleIT_T0_EEEiE4typeELi0EEEOSH_OSI_
PUBLIC 38890 0 _ZNSt6__ndk14pairINS_12basic_stringIcNS_11char_traitsIcEENS_9allocatorIcEEEEN7matjson5ValueEEC2B8ne190000IRA9_KcRKiTnNS_9enable_ifIXclsr10_CheckArgsE23__is_pair_constructibleIT_T0_EEEiE4typeELi0EEEOSH_OSI_
PUBLIC 38968 0 _ZNSt6__ndk14pairINS_12basic_stringIcNS_11char_traitsIcEENS_9allocatorIcEEEEN7matjson5ValueEEC2B8ne190000IRA15_KcS6_TnNS_9enable_ifIXclsr10_CheckArgsE23__is_pair_constructibleIT_T0_EEEiE4typeELi0EEEOSF_OSG_
PUBLIC 38ae0 0 _ZNSt6__ndk14pairINS_12basic_stringIcNS_11char_traitsIcEENS_9allocatorIcEEEEN7matjson5ValueEEC2B8ne190000IRA9_KcRKfTnNS_9enable_ifIXclsr10_CheckArgsE23__is_pair_constructibleIT_T0_EEEiE4typeELi0EEEOSH_OSI_
PUBLIC m 38bbc 0 std::__ndk1::pair<std::__ndk1::basic_string<char, std::__ndk1::char_traits<char>, std::__ndk1::allocator<char> >, matjson::Value>::~pair()
PUBLIC m 38bf8 0 std::__ndk1::vector<matjson::Value, std::__ndk1::allocator<matjson::Value> >::__emplace_back_slow_path<matjson::Value const&>(matjson::Value const&)
PUBLIC m 38d98 0 std::__ndk1::vector<matjson::Value, std::__ndk1::allocator<matjson::Value> >::__push_back_slow_path<matjson::Value>(matjson::Value&&)
PUBLIC 38eb4 0 __cxx_global_var_init
PUBLIC 39510 0 geode::modifier::ModifyBase<geode::modifier::ModifyDerive<BQLLL, LevelListLayer> >::~ModifyBase()
PUBLIC 3952c 0 geode::modifier::ModifyDerive<BQLLL, LevelListLayer>::apply()
PUBLIC 398a0 0 geode::modifier::ModifyBase<geode::modifier::ModifyDerive<BQLLL, LevelListLayer> >::apply()
PUBLIC 398a4 0 geode::modifier::AsStaticFunction_onClaimReward<BQLLL, void (BQLLL::*)(cocos2d::CCObject*)>::Impl<void (BQLLL::*)(cocos2d::CCObject*)>::function(BQLLL*, cocos2d::CCObject*)
PUBLIC m 39e54 0 diffToStr(LevelDifficulty)
PUBLIC 3a094 0 __cxx_global_var_init
PUBLIC 3a504 0 geode::modifier::ModifyBase<geode::modifier::ModifyDerive<BQBGL, GJBaseGameLayer> >::~ModifyBase()
PUBLIC 3a520 0 __cxx_global_var_init.13
PUBLIC 3ab7c 0 geode::modifier::ModifyBase<geode::modifier::ModifyDerive<BQPL, PlayLayer> >::~ModifyBase()
PUBLIC 3ab98 0 geode::modifier::ModifyDerive<BQBGL, GJBaseGameLayer>::apply()
PUBLIC 3af0c 0 geode::modifier::ModifyBase<geode::modifier::ModifyDerive<BQBGL, GJBaseGameLayer> >::apply()
PUBLIC 3af10 0 std::__ndk1::__throw_out_of_range[abi:ne190000](char const*)
PUBLIC 3af60 0 std::out_of_range::out_of_range[abi:ne190000](char const*)
PUBLIC 3af90 0 geode::modifier::AsStaticFunction_pickupItem<BQBGL, void (BQBGL::*)(EffectGameObject*)>::Impl<void (BQBGL::*)(EffectGameObject*)>::function(BQBGL*, EffectGameObject*)
PUBLIC 3afe0 0 geode::modifier::FieldIntermediate<BQBGL, GJBaseGameLayer>::self()
PUBLIC m 3b16c 0 geode::modifier::FieldContainer::getField(unsigned long)
PUBLIC m 3b398 0 geode::modifier::FieldContainer::setField(unsigned long, unsigned long, std::__ndk1::function<void (void*)>)
PUBLIC 3b4a4 0 geode::modifier::FieldIntermediate<BQBGL, GJBaseGameLayer>::fieldDestructor(void*)
PUBLIC 3b4a8 0 std::__ndk1::vector<void*, std::__ndk1::allocator<void*> >::__throw_length_error[abi:ne190000]() const
PUBLIC m 3b4bc 0 std::__ndk1::vector<std::__ndk1::function<void (void*)>, std::__ndk1::allocator<std::__ndk1::function<void (void*)> > >::__push_back_slow_path<std::__ndk1::function<void (void*)> >(std::__ndk1::function<void (void*)>&&)
PUBLIC 3b6d8 0 std::__ndk1::vector<std::__ndk1::function<void (void*)>, std::__ndk1::allocator<std::__ndk1::function<void (void*)> > >::__throw_length_error[abi:ne190000]() const
PUBLIC 3b6ec 0 std::__ndk1::vector<void*, std::__ndk1::allocator<void*> >::__throw_out_of_range[abi:ne190000]() const
PUBLIC 3b6f8 0 std::__ndk1::vector<std::__ndk1::function<void (void*)>, std::__ndk1::allocator<std::__ndk1::function<void (void*)> > >::__throw_out_of_range[abi:ne190000]() const
PUBLIC 3b704 0 std::__ndk1::__function::__base<void (void*)>::~__base()
PUBLIC m 3b708 0 std::__ndk1::__function::__func<void (*)(void*), std::__ndk1::allocator<void (*)(void*)>, void (void*)>::~__func()
PUBLIC 3b70c 0 std::__ndk1::__function::__func<void (*)(void*), std::__ndk1::allocator<void (*)(void*)>, void (void*)>::__clone() const
PUBLIC 3b744 0 std::__ndk1::__function::__func<void (*)(void*), std::__ndk1::allocator<void (*)(void*)>, void (void*)>::__clone(std::__ndk1::__function::__base<void (void*)>*) const
PUBLIC 3b75c 0 std::__ndk1::__function::__func<void (*)(void*), std::__ndk1::allocator<void (*)(void*)>, void (void*)>::destroy()
PUBLIC 3b760 0 std::__ndk1::__function::__func<void (*)(void*), std::__ndk1::allocator<void (*)(void*)>, void (void*)>::destroy_deallocate()
PUBLIC 3b764 0 std::__ndk1::__function::__func<void (*)(void*), std::__ndk1::allocator<void (*)(void*)>, void (void*)>::operator()(void*&&)
PUBLIC 3b774 0 std::__ndk1::__function::__func<void (*)(void*), std::__ndk1::allocator<void (*)(void*)>, void (void*)>::target(std::type_info const&) const
PUBLIC 3b790 0 std::__ndk1::__function::__func<void (*)(void*), std::__ndk1::allocator<void (*)(void*)>, void (void*)>::target_type() const
PUBLIC 3b79c 0 geode::modifier::ModifyDerive<BQPL, PlayLayer>::apply()
PUBLIC 3bac0 0 geode::modifier::ModifyBase<geode::modifier::ModifyDerive<BQPL, PlayLayer> >::apply()
PUBLIC 3bac4 0 geode::modifier::AsStaticFunction_levelComplete<BQPL, void (BQPL::*)()>::Impl<void (BQPL::*)()>::function(BQPL*)
PUBLIC 3db8c 0 _ZN7eclipse6config11getInternalITkNS0_13SupportedTypeEbEET_NSt6__ndk112basic_stringIcNS3_11char_traitsIcEENS3_9allocatorIcEEEES2_
PUBLIC 3dc88 0 _ZN3fmt3v119to_stringINS0_9join_viewINSt6__ndk111__wrap_iterIPNS3_12basic_stringIcNS3_11char_traitsIcEENS3_9allocatorIcEEEEEESC_cEETnNS3_9enable_ifIXaantsr3std11is_integralIT_EE5valuentsr6detail13has_format_asISF_EE5valueEiE4typeELi0EEESA_RKSF_
PUBLIC 3de14 0 eclipse::events::RequestConfigValueEvent<bool>::~RequestConfigValueEvent()
PUBLIC 3de54 0 eclipse::events::RequestConfigValueEvent<bool>::~RequestConfigValueEvent()
PUBLIC 3de98 0 std::__ndk1::vector<std::__ndk1::basic_string<char, std::__ndk1::char_traits<char>, std::__ndk1::allocator<char> >, std::__ndk1::allocator<std::__ndk1::basic_string<char, std::__ndk1::char_traits<char>, std::__ndk1::allocator<char> > > >::push_back[abi:ne190000](std::__ndk1::basic_string<char, std::__ndk1::char_traits<char>, std::__ndk1::allocator<char> >&&)
PUBLIC m 3dfec 0 fmt::v11::basic_memory_buffer<char, (unsigned long)500, std::__ndk1::allocator<char> >::grow(fmt::v11::detail::buffer<char>&, unsigned long)
PUBLIC m 3e064 0 fmt::v11::formatter<fmt::v11::join_view<std::__ndk1::__wrap_iter<std::__ndk1::basic_string<char, std::__ndk1::char_traits<char>, std::__ndk1::allocator<char> >*>, std::__ndk1::__wrap_iter<std::__ndk1::basic_string<char, std::__ndk1::char_traits<char>, std::__ndk1::allocator<char> >*>, char>, char, void>::format<fmt::v11::context>(fmt::v11::join_view<std::__ndk1::__wrap_iter<std::__ndk1::basic_string<char, std::__ndk1::char_traits<char>, std::__ndk1::allocator<char> >*>, std::__ndk1::__wrap_iter<std::__ndk1::basic_string<char, std::__ndk1::char_traits<char>, std::__ndk1::allocator<char> >*>, char> const&, fmt::v11::context&) const
PUBLIC m 3e3a8 0 fmt::v11::detail::handle_dynamic_spec<fmt::v11::detail::width_checker, fmt::v11::context>(int&, fmt::v11::detail::arg_ref<fmt::v11::context::char_type>, fmt::v11::context&)
PUBLIC m 3e4bc 0 fmt::v11::detail::handle_dynamic_spec<fmt::v11::detail::precision_checker, fmt::v11::context>(int&, fmt::v11::detail::arg_ref<fmt::v11::context::char_type>, fmt::v11::context&)
PUBLIC m 3e5d0 0 fmt::v11::detail::write<char, fmt::v11::basic_appender<char> >(fmt::v11::basic_appender<char>, fmt::v11::basic_string_view<char>, fmt::v11::format_specs const&)
PUBLIC m 3e84c 0 fmt::v11::detail::write_escaped_string<char, fmt::v11::detail::counting_iterator>(fmt::v11::detail::counting_iterator, fmt::v11::basic_string_view<char>)
PUBLIC m 3ed30 0 fmt::v11::detail::write_padded<char, (fmt::v11::align::type)1, fmt::v11::basic_appender<char>, fmt::v11::detail::write<char, fmt::v11::basic_appender<char> >(fmt::v11::basic_appender<char>, fmt::v11::basic_string_view<char>, fmt::v11::format_specs const&)::{lambda(fmt::v11::basic_appender<char>)#1}>(fmt::v11::basic_appender<char>, fmt::v11::format_specs const&, unsigned long, unsigned long, fmt::v11::detail::write<char, fmt::v11::basic_appender<char> >(fmt::v11::basic_appender<char>, fmt::v11::basic_string_view<char>, fmt::v11::format_specs const&)::{lambda(fmt::v11::basic_appender<char>&&)#1})
PUBLIC m 3ef3c 0 fmt::v11::detail::for_each_codepoint<fmt::v11::detail::code_point_index(fmt::v11::basic_string_view<char>, unsigned long)::{lambda(unsigned int, fmt::v11::basic_string_view<char>)#1}>(fmt::v11::basic_string_view<char>, fmt::v11::detail::code_point_index(fmt::v11::basic_string_view<char>, unsigned long)::{lambda(unsigned int, fmt::v11::basic_string_view<char>)#1})
PUBLIC m 3f330 0 fmt::v11::detail::write_escaped_cp<fmt::v11::detail::counting_iterator, char>(fmt::v11::detail::counting_iterator, fmt::v11::detail::find_escape_result<char> const&)
PUBLIC m 3f4c4 0 fmt::v11::detail::for_each_codepoint<fmt::v11::detail::compute_width(fmt::v11::basic_string_view<char>)::count_code_points>(fmt::v11::basic_string_view<char>, fmt::v11::detail::compute_width(fmt::v11::basic_string_view<char>)::count_code_points)::{lambda(char const*, char const*)#1}::operator()(char const*, char const*) const
PUBLIC m 3f67c 0 fmt::v11::detail::fill<char, fmt::v11::basic_appender<char> >(fmt::v11::basic_appender<char>, unsigned long, fmt::v11::detail::fill_t const&)
PUBLIC m 3f84c 0 fmt::v11::detail::write_escaped_string<char, fmt::v11::basic_appender<char> >(fmt::v11::basic_appender<char>, fmt::v11::basic_string_view<char>)
PUBLIC m 3fe94 0 fmt::v11::detail::write_escaped_cp<fmt::v11::basic_appender<char>, char>(fmt::v11::basic_appender<char>, fmt::v11::detail::find_escape_result<char> const&)
PUBLIC m 40078 0 fmt::v11::detail::write_codepoint<(unsigned long)2, char, fmt::v11::basic_appender<char> >(fmt::v11::basic_appender<char>, char, unsigned int)
PUBLIC m 401f0 0 fmt::v11::detail::write_codepoint<(unsigned long)4, char, fmt::v11::basic_appender<char> >(fmt::v11::basic_appender<char>, char, unsigned int)
PUBLIC m 40368 0 fmt::v11::detail::write_codepoint<(unsigned long)8, char, fmt::v11::basic_appender<char> >(fmt::v11::basic_appender<char>, char, unsigned int)
PUBLIC m 404e0 0 fmt::v11::detail::get_dynamic_spec<fmt::v11::detail::width_checker, fmt::v11::basic_format_arg<fmt::v11::context> >(fmt::v11::basic_format_arg<fmt::v11::context>)
PUBLIC m 40574 0 fmt::v11::basic_format_args<fmt::v11::context>::get<char>(fmt::v11::basic_string_view<char>) const
PUBLIC m 406a8 0 fmt::v11::detail::get_dynamic_spec<fmt::v11::detail::precision_checker, fmt::v11::basic_format_arg<fmt::v11::context> >(fmt::v11::basic_format_arg<fmt::v11::context>)
PUBLIC m 4073c 0 NotifNode::init(Quest, cocos2d::CCSize, bool)
PUBLIC 40f4c 0 Quest::operator=(Quest const&)
PUBLIC m 411a0 0 NotifNode::playAnim(int)
PUBLIC m 41324 0 NotifNode::create(Quest, cocos2d::CCSize, bool)
PUBLIC 41480 0 NotifNode::NotifNode()
PUBLIC m 41550 0 cocos2d::CCSequence::create(cocos2d::CCFiniteTimeAction*, ...)
PUBLIC m 415e8 0 std::__ndk1::basic_string<char, std::__ndk1::char_traits<char>, std::__ndk1::allocator<char> >::__assign_no_alias<true>(char const*, unsigned long)
PUBLIC m 41694 0 std::__ndk1::basic_string<char, std::__ndk1::char_traits<char>, std::__ndk1::allocator<char> >::__assign_no_alias<false>(char const*, unsigned long)
PUBLIC 417d0 0 cocos2d::CCCopying::copyWithZone(cocos2d::CCZone*)
PUBLIC 417d8 0 NotifNode::~NotifNode()
PUBLIC 41874 0 NotifNode::~NotifNode()
PUBLIC m 41920 0 QuestNode::init(QuestPopup*, Quest, cocos2d::CCSize)
PUBLIC m 42320 0 QuestNode::onClaim(cocos2d::CCObject*)
PUBLIC m 42800 0 QuestNode::create(QuestPopup*, Quest, cocos2d::CCSize)
PUBLIC 4295c 0 QuestNode::QuestNode()
PUBLIC m 42a2c 0 QuestNode::exit()
PUBLIC m 42b30 0 geode::impl::ResultData<long, std::__ndk1::basic_string<char, std::__ndk1::char_traits<char>, std::__ndk1::allocator<char> > >::~ResultData()
PUBLIC 42ba4 0 QuestNode::~QuestNode()
PUBLIC 42c40 0 QuestNode::~QuestNode()
PUBLIC 42cec 0 geode::Mod::setSavedValue<std::__ndk1::vector<int, std::__ndk1::allocator<int> > >(std::__ndk1::basic_string_view<char, std::__ndk1::char_traits<char> >, std::__ndk1::vector<int, std::__ndk1::allocator<int> > const&)
PUBLIC 42df0 0 geode::Mod::getSavedValue<int>(std::__ndk1::basic_string_view<char, std::__ndk1::char_traits<char> >)
PUBLIC 42f74 0 std::__ndk1::vector<int, std::__ndk1::allocator<int> >::__throw_length_error[abi:ne190000]() const
PUBLIC 42f88 0 geode::Mod::getSavedValue<std::__ndk1::vector<int, std::__ndk1::allocator<int> > >(std::__ndk1::basic_string_view<char, std::__ndk1::char_traits<char> >)
PUBLIC 4319c 0 geode::impl::ResultData<std::__ndk1::vector<int, std::__ndk1::allocator<int> >, std::__ndk1::basic_string<char, std::__ndk1::char_traits<char>, std::__ndk1::allocator<char> > >::~ResultData()
PUBLIC 43210 0 _ZN7matjson9SerializeINSt6__ndk16vectorIiNS1_9allocatorIiEEEEE8fromJsonERKNS_5ValueEQrQS9__Xcldtfp_2asIT_EEE
PUBLIC 43690 0 std::__ndk1::__variant_detail::__visitation::__base::__dispatcher<(unsigned long)0>::__dispatch[abi:ne190000]<std::__ndk1::__variant_detail::__dtor<std::__ndk1::__variant_detail::__traits<std::__ndk1::vector<int, std::__ndk1::allocator<int> >, std::__ndk1::basic_string<char, std::__ndk1::char_traits<char>, std::__ndk1::vector<char> > >, (std::__ndk1::__variant_detail::_Trait)1>::__destroy[abi:ne190000]()::{lambda(auto:1&)#1}, std::__ndk1::__variant_detail::__base<(std::__ndk1::__variant_detail::__traits<std::__ndk1::vector<int, std::__ndk1::allocator<int> >, std::__ndk1::basic_string<char, std::__ndk1::char_traits<char>, std::__ndk1::vector<char> > >)1, std::__ndk1::allocator<int>, std::__ndk1::vector<char> >&>(std::__ndk1::__variant_detail::__dtor<std::__ndk1::__variant_detail::__traits<std::__ndk1::vector<int, std::__ndk1::allocator<int> >, std::__ndk1::basic_string<char, std::__ndk1::char_traits<char>, std::__ndk1::vector<char> > >, (std::__ndk1::__variant_detail::_Trait)1>, std::__ndk1::__variant_detail::__base<(std::__ndk1::__variant_detail::__traits<std::__ndk1::vector<int, std::__ndk1::allocator<int> >, std::__ndk1::basic_string<char, std::__ndk1::char_traits<char>, std::__ndk1::vector<char> > >)1, std::__ndk1::allocator<int>, std::__ndk1::vector<char> >&)
PUBLIC 436a4 0 std::__ndk1::__variant_detail::__visitation::__base::__dispatcher<(unsigned long)1>::__dispatch[abi:ne190000]<std::__ndk1::__variant_detail::__dtor<std::__ndk1::__variant_detail::__traits<std::__ndk1::vector<int, std::__ndk1::allocator<int> >, std::__ndk1::basic_string<char, std::__ndk1::char_traits<char>, std::__ndk1::vector<char> > >, (std::__ndk1::__variant_detail::_Trait)1>::__destroy[abi:ne190000]()::{lambda(auto:1&)#1}, std::__ndk1::__variant_detail::__base<(std::__ndk1::__variant_detail::__traits<std::__ndk1::vector<int, std::__ndk1::allocator<int> >, std::__ndk1::basic_string<char, std::__ndk1::char_traits<char>, std::__ndk1::vector<char> > >)1, std::__ndk1::allocator<int>, std::__ndk1::vector<char> >&>(std::__ndk1::__variant_detail::__dtor<std::__ndk1::__variant_detail::__traits<std::__ndk1::vector<int, std::__ndk1::allocator<int> >, std::__ndk1::basic_string<char, std::__ndk1::char_traits<char>, std::__ndk1::vector<char> > >, (std::__ndk1::__variant_detail::_Trait)1>, std::__ndk1::__variant_detail::__base<(std::__ndk1::__variant_detail::__traits<std::__ndk1::vector<int, std::__ndk1::allocator<int> >, std::__ndk1::basic_string<char, std::__ndk1::char_traits<char>, std::__ndk1::vector<char> > >)1, std::__ndk1::allocator<int>, std::__ndk1::vector<char> >&)
PUBLIC 436b8 0 _ZN7matjson9SerializeINSt6__ndk16vectorIiNS1_9allocatorIiEEEEE6toJsonERKS5_QrQRKT__XcvNS_5ValueEfp_E
PUBLIC m 43860 0 QuestPopup::setup()
PUBLIC m 4441c 0 QuestPopup::onLeft(cocos2d::CCObject*)
PUBLIC m 445a8 0 QuestPopup::onRight(cocos2d::CCObject*)
PUBLIC m 4474c 0 QuestPopup::onReload(cocos2d::CCObject*)
PUBLIC m 44b30 0 QuestPopup::loadQuests()
PUBLIC m 45364 0 QuestPopup::updateTimer(float)
PUBLIC m 45570 0 geode::Task<geode::utils::web::WebResponse, geode::utils::web::WebProgress>::~Task()
PUBLIC m 455c0 0 QuestPopup::create()
PUBLIC 456a0 0 QuestPopup::QuestPopup()
PUBLIC 45874 0 QuestPopup::~QuestPopup()
PUBLIC 45984 0 QuestPopup::~QuestPopup()
PUBLIC 459a8 0 geode::Popup<>::registerWithTouchDispatcher()
PUBLIC 459d4 0 geode::Popup<>::keyDown(cocos2d::enumKeyCodes)
PUBLIC 459fc 0 cocos2d::CCLayerRGBA::setOpacityModifyRGB(bool)
PUBLIC 45a00 0 cocos2d::CCLayerRGBA::isOpacityModifyRGB()
PUBLIC 45a08 0 geode::Popup<>::onClose(cocos2d::CCObject*)
PUBLIC 45b3c 0 {virtual override thunk({offset(-320)}, QuestPopup::~QuestPopup())}
PUBLIC 45b44 0 {virtual override thunk({offset(-320)}, QuestPopup::~QuestPopup())}
PUBLIC 45b6c 0 {virtual override thunk({offset(-344)}, geode::Popup<>::keyDown(cocos2d::enumKeyCodes))}
PUBLIC 45b98 0 cocos2d::CCKeyboardDelegate::keyUp(cocos2d::enumKeyCodes)
PUBLIC 45b9c 0 cocos2d::CCMouseDelegate::rightKeyDown()
PUBLIC 45ba0 0 cocos2d::CCMouseDelegate::rightKeyUp()
PUBLIC 45ba4 0 cocos2d::CCMouseDelegate::scrollWheel(float, float)
PUBLIC 45ba8 0 {virtual override thunk({offset(-408)}, cocos2d::CCLayerRGBA::setOpacityModifyRGB(bool))}
PUBLIC 45bac 0 {virtual override thunk({offset(-408)}, cocos2d::CCLayerRGBA::isOpacityModifyRGB())}
PUBLIC 45bb4 0 geode::Popup<>::~Popup()
PUBLIC 45c20 0 geode::Popup<>::~Popup()
PUBLIC 45c24 0 {virtual override thunk({offset(-320)}, geode::Popup<>::~Popup())}
PUBLIC 45c90 0 {virtual override thunk({offset(-320)}, geode::Popup<>::~Popup())}
PUBLIC 45c94 0 std::__ndk1::__exception_guard_exceptions<std::__ndk1::vector<std::__ndk1::basic_string<char, std::__ndk1::char_traits<char>, std::__ndk1::allocator<char> >, std::__ndk1::allocator<std::__ndk1::basic_string<char, std::__ndk1::char_traits<char>, std::__ndk1::allocator<char> > > >::__destroy_vector>::~__exception_guard_exceptions[abi:ne190000]()
PUBLIC m 45d20 0 geode::cast::traverseTypeinfoFor(void*, geode::cast::ClassTypeinfoType const*, char const*)
PUBLIC 45e24 0 std::__ndk1::__function::__value_func<void (geode::Task<geode::utils::web::WebResponse, geode::utils::web::WebProgress>::Event*)>::swap[abi:ne190000](std::__ndk1::__function::__value_func<void (geode::Task<geode::utils::web::WebResponse, geode::utils::web::WebProgress>::Event*)>&)
PUBLIC 45fbc 0 std::__ndk1::__function::__func<QuestPopup::loadQuests()::$_0, std::__ndk1::allocator<QuestPopup::loadQuests()::$_0>, void (geode::Task<geode::utils::web::WebResponse, geode::utils::web::WebProgress>::Event*)>::~__func()
PUBLIC 45fc0 0 std::__ndk1::__function::__func<QuestPopup::loadQuests()::$_0, std::__ndk1::allocator<QuestPopup::loadQuests()::$_0>, void (geode::Task<geode::utils::web::WebResponse, geode::utils::web::WebProgress>::Event*)>::__clone() const
PUBLIC 45ff8 0 std::__ndk1::__function::__func<QuestPopup::loadQuests()::$_0, std::__ndk1::allocator<QuestPopup::loadQuests()::$_0>, void (geode::Task<geode::utils::web::WebResponse, geode::utils::web::WebProgress>::Event*)>::__clone(std::__ndk1::__function::__base<void (geode::Task<geode::utils::web::WebResponse, geode::utils::web::WebProgress>::Event*)>*) const
PUBLIC 46010 0 std::__ndk1::__function::__func<QuestPopup::loadQuests()::$_0, std::__ndk1::allocator<QuestPopup::loadQuests()::$_0>, void (geode::Task<geode::utils::web::WebResponse, geode::utils::web::WebProgress>::Event*)>::destroy()
PUBLIC 46014 0 std::__ndk1::__function::__func<QuestPopup::loadQuests()::$_0, std::__ndk1::allocator<QuestPopup::loadQuests()::$_0>, void (geode::Task<geode::utils::web::WebResponse, geode::utils::web::WebProgress>::Event*)>::destroy_deallocate()
PUBLIC 46018 0 std::__ndk1::__function::__func<QuestPopup::loadQuests()::$_0, std::__ndk1::allocator<QuestPopup::loadQuests()::$_0>, void (geode::Task<geode::utils::web::WebResponse, geode::utils::web::WebProgress>::Event*)>::operator()(geode::Task<geode::utils::web::WebResponse, geode::utils::web::WebProgress>::Event*&&)
PUBLIC 46cb0 0 std::__ndk1::__function::__func<QuestPopup::loadQuests()::$_0, std::__ndk1::allocator<QuestPopup::loadQuests()::$_0>, void (geode::Task<geode::utils::web::WebResponse, geode::utils::web::WebProgress>::Event*)>::target(std::type_info const&) const
PUBLIC 46ccc 0 std::__ndk1::__function::__func<QuestPopup::loadQuests()::$_0, std::__ndk1::allocator<QuestPopup::loadQuests()::$_0>, void (geode::Task<geode::utils::web::WebResponse, geode::utils::web::WebProgress>::Event*)>::target_type() const
PUBLIC m 46cd8 0 geode::impl::ResultData<matjson::Value, std::__ndk1::basic_string<char, std::__ndk1::char_traits<char>, std::__ndk1::allocator<char> > >::~ResultData()
PUBLIC m 46d4c 0 geode::impl::ResultData<double, std::__ndk1::basic_string<char, std::__ndk1::char_traits<char>, std::__ndk1::allocator<char> > >::~ResultData()
PUBLIC 46dc0 0 std::__ndk1::__variant_detail::__visitation::__base::__dispatcher<(unsigned long)0>::__dispatch[abi:ne190000]<std::__ndk1::__variant_detail::__dtor<std::__ndk1::__variant_detail::__traits<matjson::Value, std::__ndk1::basic_string<char, std::__ndk1::char_traits<char>, std::__ndk1::allocator<char> > >, (std::__ndk1::__variant_detail::_Trait)1>::__destroy[abi:ne190000]()::{lambda(auto:1&)#1}, std::__ndk1::__variant_detail::__base<(std::__ndk1::__variant_detail::__traits<matjson::Value, std::__ndk1::basic_string<char, std::__ndk1::char_traits<char>, std::__ndk1::allocator<char> > >)1, matjson, std::__ndk1::allocator<char> >&>(std::__ndk1::__variant_detail::__dtor<std::__ndk1::__variant_detail::__traits<matjson::Value, std::__ndk1::basic_string<char, std::__ndk1::char_traits<char>, std::__ndk1::allocator<char> > >, (std::__ndk1::__variant_detail::_Trait)1>, std::__ndk1::__variant_detail::__base<(std::__ndk1::__variant_detail::__traits<matjson::Value, std::__ndk1::basic_string<char, std::__ndk1::char_traits<char>, std::__ndk1::allocator<char> > >)1, matjson, std::__ndk1::allocator<char> >&)
PUBLIC 46dc8 0 std::__ndk1::__variant_detail::__visitation::__base::__dispatcher<(unsigned long)1>::__dispatch[abi:ne190000]<std::__ndk1::__variant_detail::__dtor<std::__ndk1::__variant_detail::__traits<matjson::Value, std::__ndk1::basic_string<char, std::__ndk1::char_traits<char>, std::__ndk1::allocator<char> > >, (std::__ndk1::__variant_detail::_Trait)1>::__destroy[abi:ne190000]()::{lambda(auto:1&)#1}, std::__ndk1::__variant_detail::__base<(std::__ndk1::__variant_detail::__traits<matjson::Value, std::__ndk1::basic_string<char, std::__ndk1::char_traits<char>, std::__ndk1::allocator<char> > >)1, matjson, std::__ndk1::allocator<char> >&>(std::__ndk1::__variant_detail::__dtor<std::__ndk1::__variant_detail::__traits<matjson::Value, std::__ndk1::basic_string<char, std::__ndk1::char_traits<char>, std::__ndk1::allocator<char> > >, (std::__ndk1::__variant_detail::_Trait)1>, std::__ndk1::__variant_detail::__base<(std::__ndk1::__variant_detail::__traits<matjson::Value, std::__ndk1::basic_string<char, std::__ndk1::char_traits<char>, std::__ndk1::allocator<char> > >)1, matjson, std::__ndk1::allocator<char> >&)
PUBLIC 46ddc 0 std::__ndk1::vector<Quest, std::__ndk1::allocator<Quest> >::__assign_with_size[abi:ne190000]<Quest*, std::__ndk1::vector<Quest, std::__ndk1::allocator<Quest> >::__assign_with_size[abi:ne190000]>(Quest*, std::__ndk1::vector<Quest, std::__ndk1::allocator<Quest> >::__assign_with_size[abi:ne190000], long)
PUBLIC m 47080 0 geode::Task<geode::utils::web::WebResponse, geode::utils::web::WebProgress>::setListener(geode::EventListenerProtocol*)
PUBLIC m 472a4 0 geode::Task<geode::utils::web::WebResponse, geode::utils::web::WebProgress>::setListener(geode::EventListenerProtocol*)::{lambda()#1}::~{lambda()#1}()
PUBLIC m 472f4 0 geode::Task<geode::utils::web::WebResponse, geode::utils::web::WebProgress>::setListener(geode::EventListenerProtocol*)::{lambda()#2}::~{lambda()#2}()
PUBLIC m 47344 0 std::__ndk1::__function::__func<geode::Task<geode::utils::web::WebResponse, geode::utils::web::WebProgress>::setListener(geode::EventListenerProtocol*)::{lambda()#1}, std::__ndk1::allocator<geode::Task<geode::utils::web::WebResponse, geode::utils::web::WebProgress>::setListener(geode::EventListenerProtocol*)::{lambda()#1}>, void ()>::~__func()
PUBLIC m 473a4 0 std::__ndk1::__function::__func<geode::Task<geode::utils::web::WebResponse, geode::utils::web::WebProgress>::setListener(geode::EventListenerProtocol*)::{lambda()#1}, std::__ndk1::allocator<geode::Task<geode::utils::web::WebResponse, geode::utils::web::WebProgress>::setListener(geode::EventListenerProtocol*)::{lambda()#1}>, void ()>::~__func()
PUBLIC 47414 0 std::__ndk1::__function::__func<geode::Task<geode::utils::web::WebResponse, geode::utils::web::WebProgress>::setListener(geode::EventListenerProtocol*)::{lambda()#1}, std::__ndk1::allocator<geode::Task<geode::utils::web::WebResponse, geode::utils::web::WebProgress>::setListener(geode::EventListenerProtocol*)::{lambda()#1}>, void ()>::__clone() const
PUBLIC 47470 0 std::__ndk1::__function::__func<geode::Task<geode::utils::web::WebResponse, geode::utils::web::WebProgress>::setListener(geode::EventListenerProtocol*)::{lambda()#1}, std::__ndk1::allocator<geode::Task<geode::utils::web::WebResponse, geode::utils::web::WebProgress>::setListener(geode::EventListenerProtocol*)::{lambda()#1}>, void ()>::__clone(std::__ndk1::__function::__base<void ()>*) const
PUBLIC 474c0 0 std::__ndk1::__function::__func<geode::Task<geode::utils::web::WebResponse, geode::utils::web::WebProgress>::setListener(geode::EventListenerProtocol*)::{lambda()#1}, std::__ndk1::allocator<geode::Task<geode::utils::web::WebResponse, geode::utils::web::WebProgress>::setListener(geode::EventListenerProtocol*)::{lambda()#1}>, void ()>::destroy()
PUBLIC 47510 0 std::__ndk1::__function::__func<geode::Task<geode::utils::web::WebResponse, geode::utils::web::WebProgress>::setListener(geode::EventListenerProtocol*)::{lambda()#1}, std::__ndk1::allocator<geode::Task<geode::utils::web::WebResponse, geode::utils::web::WebProgress>::setListener(geode::EventListenerProtocol*)::{lambda()#1}>, void ()>::destroy_deallocate()
PUBLIC 47570 0 std::__ndk1::__function::__func<geode::Task<geode::utils::web::WebResponse, geode::utils::web::WebProgress>::setListener(geode::EventListenerProtocol*)::{lambda()#1}, std::__ndk1::allocator<geode::Task<geode::utils::web::WebResponse, geode::utils::web::WebProgress>::setListener(geode::EventListenerProtocol*)::{lambda()#1}>, void ()>::operator()()
PUBLIC 47578 0 std::__ndk1::__function::__func<geode::Task<geode::utils::web::WebResponse, geode::utils::web::WebProgress>::setListener(geode::EventListenerProtocol*)::{lambda()#1}, std::__ndk1::allocator<geode::Task<geode::utils::web::WebResponse, geode::utils::web::WebProgress>::setListener(geode::EventListenerProtocol*)::{lambda()#1}>, void ()>::target(std::type_info const&) const
PUBLIC 47594 0 std::__ndk1::__function::__func<geode::Task<geode::utils::web::WebResponse, geode::utils::web::WebProgress>::setListener(geode::EventListenerProtocol*)::{lambda()#1}, std::__ndk1::allocator<geode::Task<geode::utils::web::WebResponse, geode::utils::web::WebProgress>::setListener(geode::EventListenerProtocol*)::{lambda()#1}>, void ()>::target_type() const
PUBLIC m 475a0 0 geode::Task<geode::utils::web::WebResponse, geode::utils::web::WebProgress>::setListener(geode::EventListenerProtocol*)::{lambda()#1}::operator()() const
PUBLIC m 47740 0 geode::Task<geode::utils::web::WebResponse, geode::utils::web::WebProgress>::Event::~Event()
PUBLIC m 477a0 0 geode::Task<geode::utils::web::WebResponse, geode::utils::web::WebProgress>::Event::~Event()
PUBLIC m 47810 0 std::__ndk1::__function::__func<geode::Task<geode::utils::web::WebResponse, geode::utils::web::WebProgress>::setListener(geode::EventListenerProtocol*)::{lambda()#2}, std::__ndk1::allocator<geode::Task<geode::utils::web::WebResponse, geode::utils::web::WebProgress>::setListener(geode::EventListenerProtocol*)::{lambda()#2}>, void ()>::~__func()
PUBLIC m 47870 0 std::__ndk1::__function::__func<geode::Task<geode::utils::web::WebResponse, geode::utils::web::WebProgress>::setListener(geode::EventListenerProtocol*)::{lambda()#2}, std::__ndk1::allocator<geode::Task<geode::utils::web::WebResponse, geode::utils::web::WebProgress>::setListener(geode::EventListenerProtocol*)::{lambda()#2}>, void ()>::~__func()
PUBLIC 478e0 0 std::__ndk1::__function::__func<geode::Task<geode::utils::web::WebResponse, geode::utils::web::WebProgress>::setListener(geode::EventListenerProtocol*)::{lambda()#2}, std::__ndk1::allocator<geode::Task<geode::utils::web::WebResponse, geode::utils::web::WebProgress>::setListener(geode::EventListenerProtocol*)::{lambda()#2}>, void ()>::__clone() const
PUBLIC 4793c 0 std::__ndk1::__function::__func<geode::Task<geode::utils::web::WebResponse, geode::utils::web::WebProgress>::setListener(geode::EventListenerProtocol*)::{lambda()#2}, std::__ndk1::allocator<geode::Task<geode::utils::web::WebResponse, geode::utils::web::WebProgress>::setListener(geode::EventListenerProtocol*)::{lambda()#2}>, void ()>::__clone(std::__ndk1::__function::__base<void ()>*) const
PUBLIC 4798c 0 std::__ndk1::__function::__func<geode::Task<geode::utils::web::WebResponse, geode::utils::web::WebProgress>::setListener(geode::EventListenerProtocol*)::{lambda()#2}, std::__ndk1::allocator<geode::Task<geode::utils::web::WebResponse, geode::utils::web::WebProgress>::setListener(geode::EventListenerProtocol*)::{lambda()#2}>, void ()>::destroy()
PUBLIC 479dc 0 std::__ndk1::__function::__func<geode::Task<geode::utils::web::WebResponse, geode::utils::web::WebProgress>::setListener(geode::EventListenerProtocol*)::{lambda()#2}, std::__ndk1::allocator<geode::Task<geode::utils::web::WebResponse, geode::utils::web::WebProgress>::setListener(geode::EventListenerProtocol*)::{lambda()#2}>, void ()>::destroy_deallocate()
PUBLIC 47a3c 0 std::__ndk1::__function::__func<geode::Task<geode::utils::web::WebResponse, geode::utils::web::WebProgress>::setListener(geode::EventListenerProtocol*)::{lambda()#2}, std::__ndk1::allocator<geode::Task<geode::utils::web::WebResponse, geode::utils::web::WebProgress>::setListener(geode::EventListenerProtocol*)::{lambda()#2}>, void ()>::operator()()
PUBLIC 47a44 0 std::__ndk1::__function::__func<geode::Task<geode::utils::web::WebResponse, geode::utils::web::WebProgress>::setListener(geode::EventListenerProtocol*)::{lambda()#2}, std::__ndk1::allocator<geode::Task<geode::utils::web::WebResponse, geode::utils::web::WebProgress>::setListener(geode::EventListenerProtocol*)::{lambda()#2}>, void ()>::target(std::type_info const&) const
PUBLIC 47a60 0 std::__ndk1::__function::__func<geode::Task<geode::utils::web::WebResponse, geode::utils::web::WebProgress>::setListener(geode::EventListenerProtocol*)::{lambda()#2}, std::__ndk1::allocator<geode::Task<geode::utils::web::WebResponse, geode::utils::web::WebProgress>::setListener(geode::EventListenerProtocol*)::{lambda()#2}>, void ()>::target_type() const
PUBLIC m 47a6c 0 geode::Task<geode::utils::web::WebResponse, geode::utils::web::WebProgress>::setListener(geode::EventListenerProtocol*)::{lambda()#2}::operator()() const
PUBLIC 47bfc 0 geode::Popup<>::initBase(float, float, char const*, cocos2d::CCRect, bool)
PUBLIC 47f00 0 std::__ndk1::__function::__base<void (geode::Task<geode::utils::web::WebResponse, geode::utils::web::WebProgress>::Event*)>::~__base()
PUBLIC 47f04 0 std::__ndk1::__function::__func<QuestPopup::onReload(cocos2d::CCObject*)::$_0, std::__ndk1::allocator<QuestPopup::onReload(cocos2d::CCObject*)::$_0>, void (geode::Task<geode::utils::web::WebResponse, geode::utils::web::WebProgress>::Event*)>::~__func()
PUBLIC 47f08 0 std::__ndk1::__function::__func<QuestPopup::onReload(cocos2d::CCObject*)::$_0, std::__ndk1::allocator<QuestPopup::onReload(cocos2d::CCObject*)::$_0>, void (geode::Task<geode::utils::web::WebResponse, geode::utils::web::WebProgress>::Event*)>::__clone() const
PUBLIC 47f40 0 std::__ndk1::__function::__func<QuestPopup::onReload(cocos2d::CCObject*)::$_0, std::__ndk1::allocator<QuestPopup::onReload(cocos2d::CCObject*)::$_0>, void (geode::Task<geode::utils::web::WebResponse, geode::utils::web::WebProgress>::Event*)>::__clone(std::__ndk1::__function::__base<void (geode::Task<geode::utils::web::WebResponse, geode::utils::web::WebProgress>::Event*)>*) const
PUBLIC 47f58 0 std::__ndk1::__function::__func<QuestPopup::onReload(cocos2d::CCObject*)::$_0, std::__ndk1::allocator<QuestPopup::onReload(cocos2d::CCObject*)::$_0>, void (geode::Task<geode::utils::web::WebResponse, geode::utils::web::WebProgress>::Event*)>::destroy()
PUBLIC 47f5c 0 std::__ndk1::__function::__func<QuestPopup::onReload(cocos2d::CCObject*)::$_0, std::__ndk1::allocator<QuestPopup::onReload(cocos2d::CCObject*)::$_0>, void (geode::Task<geode::utils::web::WebResponse, geode::utils::web::WebProgress>::Event*)>::destroy_deallocate()
PUBLIC 47f60 0 std::__ndk1::__function::__func<QuestPopup::onReload(cocos2d::CCObject*)::$_0, std::__ndk1::allocator<QuestPopup::onReload(cocos2d::CCObject*)::$_0>, void (geode::Task<geode::utils::web::WebResponse, geode::utils::web::WebProgress>::Event*)>::operator()(geode::Task<geode::utils::web::WebResponse, geode::utils::web::WebProgress>::Event*&&)
PUBLIC 4899c 0 std::__ndk1::__function::__func<QuestPopup::onReload(cocos2d::CCObject*)::$_0, std::__ndk1::allocator<QuestPopup::onReload(cocos2d::CCObject*)::$_0>, void (geode::Task<geode::utils::web::WebResponse, geode::utils::web::WebProgress>::Event*)>::target(std::type_info const&) const
PUBLIC 489b8 0 std::__ndk1::__function::__func<QuestPopup::onReload(cocos2d::CCObject*)::$_0, std::__ndk1::allocator<QuestPopup::onReload(cocos2d::CCObject*)::$_0>, void (geode::Task<geode::utils::web::WebResponse, geode::utils::web::WebProgress>::Event*)>::target_type() const
PUBLIC 489c4 0 geode::Popup<>::CloseEvent::~CloseEvent()
PUBLIC 48a24 0 geode::Popup<>::CloseEvent::~CloseEvent()
PUBLIC 48a94 0 std::__ndk1::__shared_ptr_emplace<geode::Popup<>::CloseEvent::Impl, std::__ndk1::allocator<geode::Popup<>::CloseEvent::Impl> >::~__shared_ptr_emplace()
PUBLIC 48aa4 0 std::__ndk1::__shared_ptr_emplace<geode::Popup<>::CloseEvent::Impl, std::__ndk1::allocator<geode::Popup<>::CloseEvent::Impl> >::~__shared_ptr_emplace()
PUBLIC 48ad4 0 std::__ndk1::__shared_ptr_emplace<geode::Popup<>::CloseEvent::Impl, std::__ndk1::allocator<geode::Popup<>::CloseEvent::Impl> >::__on_zero_shared()
PUBLIC 48ad8 0 std::__ndk1::__shared_ptr_emplace<geode::Popup<>::CloseEvent::Impl, std::__ndk1::allocator<geode::Popup<>::CloseEvent::Impl> >::__on_zero_shared_weak()
PUBLIC m 48adc 0 BetterQuests::get()
PUBLIC 48b3c 0 BetterQuests::BetterQuests()
PUBLIC m 48ce8 0 BetterQuests::getServerUrl()
PUBLIC m 48d10 0 BetterQuests::getScrolls()
PUBLIC m 48d18 0 BetterQuests::addScrolls(int)
PUBLIC 48e04 0 geodeExecFunction29<(anonymous namespace)::ExecFuncUnique29>(geode::ModStateEvent*)
PUBLIC m 492e8 0 geode::EventListener<geode::Task<geode::utils::web::WebResponse, geode::utils::web::WebProgress> >::~EventListener()
PUBLIC m 49388 0 geode::EventListener<geode::Task<geode::utils::web::WebResponse, geode::utils::web::WebProgress> >::getPool() const
PUBLIC m 4938c 0 geode::EventListener<geode::Task<geode::utils::web::WebResponse, geode::utils::web::WebProgress> >::handle(geode::Event*)
PUBLIC m 49558 0 geode::EventListener<geode::Task<geode::utils::web::WebResponse, geode::utils::web::WebProgress> >::~EventListener()
PUBLIC 49600 0 std::__ndk1::__throw_bad_function_call[abi:ne190000]()
PUBLIC 49634 0 std::__ndk1::bad_function_call::~bad_function_call()
PUBLIC 49658 0 std::__ndk1::__function::__func<geodeExecFunction29<(anonymous namespace)::ExecFuncUnique29>(geode::ModStateEvent*)::{lambda(geode::Task<geode::utils::web::WebResponse, geode::utils::web::WebProgress>::Event*)#1}, std::__ndk1::allocator<geodeExecFunction29<(anonymous namespace)::ExecFuncUnique29>(geode::ModStateEvent*)::{lambda(geode::Task<geode::utils::web::WebResponse, geode::utils::web::WebProgress>::Event*)#1}>, void (geode::Task<geode::utils::web::WebResponse, geode::utils::web::WebProgress>::Event*)>::~__func()
PUBLIC 4965c 0 std::__ndk1::__function::__func<geodeExecFunction29<(anonymous namespace)::ExecFuncUnique29>(geode::ModStateEvent*)::{lambda(geode::Task<geode::utils::web::WebResponse, geode::utils::web::WebProgress>::Event*)#1}, std::__ndk1::allocator<geodeExecFunction29<(anonymous namespace)::ExecFuncUnique29>(geode::ModStateEvent*)::{lambda(geode::Task<geode::utils::web::WebResponse, geode::utils::web::WebProgress>::Event*)#1}>, void (geode::Task<geode::utils::web::WebResponse, geode::utils::web::WebProgress>::Event*)>::__clone() const
PUBLIC 49680 0 std::__ndk1::__function::__func<geodeExecFunction29<(anonymous namespace)::ExecFuncUnique29>(geode::ModStateEvent*)::{lambda(geode::Task<geode::utils::web::WebResponse, geode::utils::web::WebProgress>::Event*)#1}, std::__ndk1::allocator<geodeExecFunction29<(anonymous namespace)::ExecFuncUnique29>(geode::ModStateEvent*)::{lambda(geode::Task<geode::utils::web::WebResponse, geode::utils::web::WebProgress>::Event*)#1}>, void (geode::Task<geode::utils::web::WebResponse, geode::utils::web::WebProgress>::Event*)>::__clone(std::__ndk1::__function::__base<void (geode::Task<geode::utils::web::WebResponse, geode::utils::web::WebProgress>::Event*)>*) const
PUBLIC 49690 0 std::__ndk1::__function::__func<geodeExecFunction29<(anonymous namespace)::ExecFuncUnique29>(geode::ModStateEvent*)::{lambda(geode::Task<geode::utils::web::WebResponse, geode::utils::web::WebProgress>::Event*)#1}, std::__ndk1::allocator<geodeExecFunction29<(anonymous namespace)::ExecFuncUnique29>(geode::ModStateEvent*)::{lambda(geode::Task<geode::utils::web::WebResponse, geode::utils::web::WebProgress>::Event*)#1}>, void (geode::Task<geode::utils::web::WebResponse, geode::utils::web::WebProgress>::Event*)>::destroy()
PUBLIC 49694 0 std::__ndk1::__function::__func<geodeExecFunction29<(anonymous namespace)::ExecFuncUnique29>(geode::ModStateEvent*)::{lambda(geode::Task<geode::utils::web::WebResponse, geode::utils::web::WebProgress>::Event*)#1}, std::__ndk1::allocator<geodeExecFunction29<(anonymous namespace)::ExecFuncUnique29>(geode::ModStateEvent*)::{lambda(geode::Task<geode::utils::web::WebResponse, geode::utils::web::WebProgress>::Event*)#1}>, void (geode::Task<geode::utils::web::WebResponse, geode::utils::web::WebProgress>::Event*)>::destroy_deallocate()
PUBLIC 49698 0 std::__ndk1::__function::__func<geodeExecFunction29<(anonymous namespace)::ExecFuncUnique29>(geode::ModStateEvent*)::{lambda(geode::Task<geode::utils::web::WebResponse, geode::utils::web::WebProgress>::Event*)#1}, std::__ndk1::allocator<geodeExecFunction29<(anonymous namespace)::ExecFuncUnique29>(geode::ModStateEvent*)::{lambda(geode::Task<geode::utils::web::WebResponse, geode::utils::web::WebProgress>::Event*)#1}>, void (geode::Task<geode::utils::web::WebResponse, geode::utils::web::WebProgress>::Event*)>::operator()(geode::Task<geode::utils::web::WebResponse, geode::utils::web::WebProgress>::Event*&&)
PUBLIC 4a00c 0 std::__ndk1::__function::__func<geodeExecFunction29<(anonymous namespace)::ExecFuncUnique29>(geode::ModStateEvent*)::{lambda(geode::Task<geode::utils::web::WebResponse, geode::utils::web::WebProgress>::Event*)#1}, std::__ndk1::allocator<geodeExecFunction29<(anonymous namespace)::ExecFuncUnique29>(geode::ModStateEvent*)::{lambda(geode::Task<geode::utils::web::WebResponse, geode::utils::web::WebProgress>::Event*)#1}>, void (geode::Task<geode::utils::web::WebResponse, geode::utils::web::WebProgress>::Event*)>::target(std::type_info const&) const
PUBLIC 4a028 0 std::__ndk1::__function::__func<geodeExecFunction29<(anonymous namespace)::ExecFuncUnique29>(geode::ModStateEvent*)::{lambda(geode::Task<geode::utils::web::WebResponse, geode::utils::web::WebProgress>::Event*)#1}, std::__ndk1::allocator<geodeExecFunction29<(anonymous namespace)::ExecFuncUnique29>(geode::ModStateEvent*)::{lambda(geode::Task<geode::utils::web::WebResponse, geode::utils::web::WebProgress>::Event*)#1}>, void (geode::Task<geode::utils::web::WebResponse, geode::utils::web::WebProgress>::Event*)>::target_type() const
PUBLIC m 4a034 0 geode::EventListener<geode::ModStateFilter>::getPool() const
PUBLIC m 4a038 0 geode::EventListener<geode::ModStateFilter>::handle(geode::Event*)
PUBLIC m 4a1ac 0 geode::EventListener<geode::ModStateFilter>::~EventListener()
PUBLIC m 4a20c 0 geode::EventListener<geode::ModStateFilter>::~EventListener()
PUBLIC 4a274 0 std::__ndk1::__function::__base<void (geode::ModStateEvent*)>::~__base()
PUBLIC m 4a278 0 std::__ndk1::__function::__func<void (*)(geode::ModStateEvent*), std::__ndk1::allocator<void (*)(geode::ModStateEvent*)>, void (geode::ModStateEvent*)>::~__func()
PUBLIC 4a27c 0 std::__ndk1::__function::__func<void (*)(geode::ModStateEvent*), std::__ndk1::allocator<void (*)(geode::ModStateEvent*)>, void (geode::ModStateEvent*)>::__clone() const
PUBLIC 4a2b4 0 std::__ndk1::__function::__func<void (*)(geode::ModStateEvent*), std::__ndk1::allocator<void (*)(geode::ModStateEvent*)>, void (geode::ModStateEvent*)>::__clone(std::__ndk1::__function::__base<void (geode::ModStateEvent*)>*) const
PUBLIC 4a2cc 0 std::__ndk1::__function::__func<void (*)(geode::ModStateEvent*), std::__ndk1::allocator<void (*)(geode::ModStateEvent*)>, void (geode::ModStateEvent*)>::destroy()
PUBLIC 4a2d0 0 std::__ndk1::__function::__func<void (*)(geode::ModStateEvent*), std::__ndk1::allocator<void (*)(geode::ModStateEvent*)>, void (geode::ModStateEvent*)>::destroy_deallocate()
PUBLIC 4a2d4 0 std::__ndk1::__function::__func<void (*)(geode::ModStateEvent*), std::__ndk1::allocator<void (*)(geode::ModStateEvent*)>, void (geode::ModStateEvent*)>::operator()(geode::ModStateEvent*&&)
PUBLIC 4a2e4 0 std::__ndk1::__function::__func<void (*)(geode::ModStateEvent*), std::__ndk1::allocator<void (*)(geode::ModStateEvent*)>, void (geode::ModStateEvent*)>::target(std::type_info const&) const
PUBLIC 4a300 0 std::__ndk1::__function::__func<void (*)(geode::ModStateEvent*), std::__ndk1::allocator<void (*)(geode::ModStateEvent*)>, void (geode::ModStateEvent*)>::target_type() const
PUBLIC 4a30c 0 _GLOBAL__sub_I_BetterQuests.cpp
PUBLIC m 4a42c 0 geode::getMod()
PUBLIC m 4a468 0 geodeImplicitEntry
PUBLIC 4a4a4 0 std::__ndk1::unordered_map<void*, bool, std::__ndk1::hash<void*>, std::__ndk1::equal_to<void*>, std::__ndk1::allocator<std::__ndk1::pair<void* const, bool> > >::~unordered_map[abi:ne190000]()
PUBLIC 4a4f0 0 wrapFunction(unsigned long, tulip::hook::WrapperMetadata const&)
PUBLIC 4a624 0 geode::impl::ResultData<void*, std::__ndk1::basic_string<char, std::__ndk1::char_traits<char>, std::__ndk1::allocator<char> > >::unwrapErr() &
PUBLIC 4a69c 0 geode::impl::ResultData<void*, std::__ndk1::basic_string<char, std::__ndk1::char_traits<char>, std::__ndk1::allocator<char> > >::~ResultData()
PUBLIC 4a710 0 tulip::hook::WrapperMetadata::~WrapperMetadata()
PUBLIC 4a774 0 cocos2d::CCObject::~CCObject()
PUBLIC 4a798 0 cocos2d::CCNode::CCNode()
PUBLIC 4a9f4 0 cocos2d::CCNode::~CCNode()
PUBLIC 4aa18 0 {virtual override thunk({offset(-320)}, cocos2d::CCLayer::~CCLayer())}
PUBLIC 4aa20 0 cocos2d::CCLayer::~CCLayer()
PUBLIC 4aa44 0 {virtual override thunk({offset(-320)}, cocos2d::CCLayer::~CCLayer())}
PUBLIC 4aa6c 0 cocos2d::CCLayerRGBA::~CCLayerRGBA()
PUBLIC 4ad6c 0 {virtual override thunk({offset(-320)}, cocos2d::CCLayerRGBA::~CCLayerRGBA())}
PUBLIC 4ad74 0 cocos2d::CCLayerRGBA::~CCLayerRGBA()
PUBLIC 4ad98 0 {virtual override thunk({offset(-320)}, cocos2d::CCLayerRGBA::~CCLayerRGBA())}
PUBLIC 4adc0 0 cocos2d::CCLayerColor::CCLayerColor()
PUBLIC 4b024 0 {virtual override thunk({offset(-320)}, cocos2d::CCLayerColor::~CCLayerColor())}
PUBLIC 4b02c 0 cocos2d::CCLayerColor::~CCLayerColor()
PUBLIC 4b050 0 {virtual override thunk({offset(-320)}, cocos2d::CCLayerColor::~CCLayerColor())}
PUBLIC 4b078 0 FLAlertLayer::FLAlertLayer()
PUBLIC 4b114 0 {virtual override thunk({offset(-320)}, FLAlertLayer::~FLAlertLayer())}
PUBLIC 4b11c 0 FLAlertLayer::~FLAlertLayer()
PUBLIC 4b140 0 {virtual override thunk({offset(-320)}, FLAlertLayer::~FLAlertLayer())}
PUBLIC 4b168 0 FLAlertLayer::create(FLAlertLayerProtocol*, char const*, gd::string, char const*, char const*, float)
PUBLIC 4b320 0 tulip::hook::AbstractFunction::from<FLAlertLayer*, FLAlertLayerProtocol*, char const*, gd::string, char const*, char const*, float>(FLAlertLayer* (*)(FLAlertLayerProtocol*, char const*, gd::string, char const*, char const*, float))
PUBLIC 4b6f0 0 FLAlertLayer::create(char const*, gd::string const&, char const*)
PUBLIC 4b79c 0 CCMenuItemSpriteExtra::create(cocos2d::CCNode*, cocos2d::CCObject*, void (cocos2d::CCObject::*)(cocos2d::CCObject*))
PUBLIC 4b7b0 0 CCSpriteGrayscale::createWithSpriteFrameName(gd::string const&)
PUBLIC 4b914 0 FMODAudioEngine::playEffect(gd::string)
PUBLIC 4ba8c 0 tulip::hook::AbstractFunction::from<void, FMODAudioEngine*, gd::string>(void (*)(FMODAudioEngine*, gd::string))
PUBLIC 4bb2c 0 GJSearchObject::create(SearchType, gd::string)
PUBLIC 4bcac 0 tulip::hook::AbstractFunction::from<GJSearchObject*, SearchType, gd::string>(GJSearchObject* (*)(SearchType, gd::string))
PUBLIC 4bd4c 0 cocos2d::CCObject::update(float)
PUBLIC 4bd50 0 cocos2d::CCLayerColor::~CCLayerColor()
PUBLIC 4c034 0 cocos2d::CCLayer::~CCLayer()
PUBLIC 4c324 0 cocos2d::CCNode::~CCNode()
PUBLIC 4c5c4 0 FLAlertLayer::~FLAlertLayer()
PUBLIC 4c8a8 0 cocos2d::CCObject::~CCObject()
PUBLIC 4cd8c 0 _ZN5geode15UnwrapExceptionC2IRPvQsr4implE18IsStringStreamableIT_EEENS_4impl5OkTagEOS4_
PUBLIC 4cee0 0 std::__ndk1::__variant_detail::__visitation::__base::__dispatcher<(unsigned long)0>::__dispatch[abi:ne190000]<std::__ndk1::__variant_detail::__dtor<std::__ndk1::__variant_detail::__traits<void*, std::__ndk1::basic_string<char, std::__ndk1::char_traits<char>, std::__ndk1::allocator<char> > >, (std::__ndk1::__variant_detail::_Trait)1>::__destroy[abi:ne190000]()::{lambda(auto:1&)#1}, std::__ndk1::__variant_detail::__base<(std::__ndk1::__variant_detail::__traits<void*, std::__ndk1::basic_string<char, std::__ndk1::char_traits<char>, std::__ndk1::allocator<char> > >)1, std::__ndk1::__variant_detail::__traits, std::__ndk1::allocator<char> >&>(std::__ndk1::__variant_detail::__dtor<std::__ndk1::__variant_detail::__traits<void*, std::__ndk1::basic_string<char, std::__ndk1::char_traits<char>, std::__ndk1::allocator<char> > >, (std::__ndk1::__variant_detail::_Trait)1>, std::__ndk1::__variant_detail::__base<(std::__ndk1::__variant_detail::__traits<void*, std::__ndk1::basic_string<char, std::__ndk1::char_traits<char>, std::__ndk1::allocator<char> > >)1, std::__ndk1::__variant_detail::__traits, std::__ndk1::allocator<char> >&)
PUBLIC 4cee4 0 std::__ndk1::__variant_detail::__visitation::__base::__dispatcher<(unsigned long)1>::__dispatch[abi:ne190000]<std::__ndk1::__variant_detail::__dtor<std::__ndk1::__variant_detail::__traits<void*, std::__ndk1::basic_string<char, std::__ndk1::char_traits<char>, std::__ndk1::allocator<char> > >, (std::__ndk1::__variant_detail::_Trait)1>::__destroy[abi:ne190000]()::{lambda(auto:1&)#1}, std::__ndk1::__variant_detail::__base<(std::__ndk1::__variant_detail::__traits<void*, std::__ndk1::basic_string<char, std::__ndk1::char_traits<char>, std::__ndk1::allocator<char> > >)1, std::__ndk1::__variant_detail::__traits, std::__ndk1::allocator<char> >&>(std::__ndk1::__variant_detail::__dtor<std::__ndk1::__variant_detail::__traits<void*, std::__ndk1::basic_string<char, std::__ndk1::char_traits<char>, std::__ndk1::allocator<char> > >, (std::__ndk1::__variant_detail::_Trait)1>, std::__ndk1::__variant_detail::__base<(std::__ndk1::__variant_detail::__traits<void*, std::__ndk1::basic_string<char, std::__ndk1::char_traits<char>, std::__ndk1::allocator<char> > >)1, std::__ndk1::__variant_detail::__traits, std::__ndk1::allocator<char> >&)
PUBLIC 4cef8 0 std::__ndk1::__hash_table<std::__ndk1::__hash_value_type<void*, bool>, std::__ndk1::__unordered_map_hasher<void*, std::__ndk1::__hash_value_type<void*, bool>, std::__ndk1::hash<void*>, std::__ndk1::equal_to<void*>, true>, std::__ndk1::__unordered_map_equal<void*, std::__ndk1::__hash_value_type<void*, bool>, std::__ndk1::equal_to<void*>, std::__ndk1::hash<void*>, true>, std::__ndk1::allocator<std::__ndk1::__hash_value_type<void*, bool> > >::__emplace_unique_key_args<void*, std::__ndk1::piecewise_construct_t const&, std::__ndk1::tuple<void* const&>, std::__ndk1::tuple<> >(void* const&, std::__ndk1::piecewise_construct_t const&, std::__ndk1::tuple<void* const&>, std::__ndk1::tuple<>)
PUBLIC 4d404 0 __udivti3
PUBLIC 4d410 0 __udivmodti4
PUBLIC m 4d65c 0 __eqtf2
PUBLIC 4d6fc 0 __unordtf2
PUBLIC m 4d734 0 fmt::v11::detail::assert_fail(char const*, int, char const*)
PUBLIC m 4d768 0 fmt::v11::detail::format_error_code(fmt::v11::detail::buffer<char>&, int, fmt::v11::basic_string_view<char>)
PUBLIC m 4d87c 0 fmt::v11::detail::report_error(void (*)(fmt::v11::detail::buffer<char>&, int, char const*), int, char const*)
PUBLIC m 4d930 0 fmt::v11::detail::write_loc(fmt::v11::basic_appender<char>, fmt::v11::loc_value, fmt::v11::format_specs const&, fmt::v11::detail::locale_ref)
PUBLIC m 4dac0 0 fmt::v11::detail::locale_ref::get<std::__ndk1::locale>() const
PUBLIC m 4dad4 0 fmt::v11::format_facet<std::__ndk1::locale>::format_facet(std::__ndk1::locale&)
PUBLIC m 4dc64 0 fmt::v11::format_facet<std::__ndk1::locale>::~format_facet()
PUBLIC m 4dce4 0 fmt::v11::report_error(char const*)
PUBLIC m 4dd34 0 fmt::v11::format_error::runtime_error(char const*)
PUBLIC m 4dd64 0 fmt::v11::format_facet<std::__ndk1::locale>::do_put(fmt::v11::basic_appender<char>, fmt::v11::loc_value, fmt::v11::format_specs const&) const
PUBLIC m 4df4c 0 fmt::v11::loc_value::visit<fmt::v11::detail::loc_writer<char> >(fmt::v11::detail::loc_writer<char>&&)
PUBLIC m 4dfe8 0 fmt::v11::detail::loc_writer<char>::~loc_writer()
PUBLIC m 4e04c 0 fmt::v11::vsystem_error(int, fmt::v11::basic_string_view<char>, fmt::v11::basic_format_args<fmt::v11::context>)
PUBLIC m 4e130 0 fmt::v11::vformat(fmt::v11::basic_string_view<char>, fmt::v11::basic_format_args<fmt::v11::context>)
PUBLIC m 4e27c 0 fmt::v11::detail::dragonbox::get_cached_power(int)
PUBLIC m 4e32c 0 fmt::v11::detail::utf8_to_utf16::utf8_to_utf16(fmt::v11::basic_string_view<char>)
PUBLIC m 4e53c 0 fmt::v11::format_system_error(fmt::v11::detail::buffer<char>&, int, char const*)
PUBLIC m 4e648 0 fmt::v11::report_system_error(int, char const*)
PUBLIC m 4e6fc 0 fmt::v11::detail::vformat_to<char>(fmt::v11::detail::buffer<char>&, fmt::v11::basic_string_view<char>, fmt::v11::detail::vformat_args<char>::type, fmt::v11::detail::locale_ref)
PUBLIC m 4e8f4 0 fmt::v11::detail::write_console(int, fmt::v11::basic_string_view<char>)
PUBLIC m 4e8fc 0 fmt::v11::detail::print(__sFILE*, fmt::v11::basic_string_view<char>)
PUBLIC m 4e984 0 fmt::v11::vprint_buffered(__sFILE*, fmt::v11::basic_string_view<char>, fmt::v11::basic_format_args<fmt::v11::context>)
PUBLIC m 4eac0 0 fmt::v11::vprint(__sFILE*, fmt::v11::basic_string_view<char>, fmt::v11::basic_format_args<fmt::v11::context>)
PUBLIC m 4ebfc 0 fmt::v11::vprintln(__sFILE*, fmt::v11::basic_string_view<char>, fmt::v11::basic_format_args<fmt::v11::context>)
PUBLIC m 4ed70 0 fmt::v11::vprint(fmt::v11::basic_string_view<char>, fmt::v11::basic_format_args<fmt::v11::context>)
PUBLIC m 4eec4 0 fmt::v11::detail::is_printable(unsigned int)
PUBLIC m 4f0ec 0 fmt::v11::detail::dragonbox::to_decimal<float>(float)
PUBLIC m 4f3c8 0 fmt::v11::detail::dragonbox::to_decimal<double>(double)
PUBLIC m 4f904 0 fmt::v11::detail::locale_ref::locale_ref<std::__ndk1::locale>()
PUBLIC m 4f90c 0 fmt::v11::detail::thousands_sep_impl<char>(fmt::v11::detail::locale_ref)
PUBLIC m 4fa24 0 fmt::v11::detail::decimal_point_impl<char>(fmt::v11::detail::locale_ref)
PUBLIC m 4fad0 0 fmt::v11::detail::buffer<char>::append<char>(char const*, char const*)
PUBLIC m 4fc1c 0 fmt::v11::detail::parse_format_string<false, char, fmt::v11::detail::vformat_to<char>(fmt::v11::detail::buffer<char>&, fmt::v11::basic_string_view<char>, fmt::v11::detail::vformat_args<char>::type, fmt::v11::detail::locale_ref)::format_handler>(fmt::v11::basic_string_view<char>, fmt::v11::detail::vformat_to<char>(fmt::v11::detail::buffer<char>&, fmt::v11::basic_string_view<char>, fmt::v11::detail::vformat_args<char>::type, fmt::v11::detail::locale_ref)::format_handler&&)
PUBLIC m 4fe2c 0 fmt::v11::detail::thousands_sep_impl<wchar_t>(fmt::v11::detail::locale_ref)
PUBLIC m 4ff44 0 fmt::v11::detail::decimal_point_impl<wchar_t>(fmt::v11::detail::locale_ref)
PUBLIC m 4fff0 0 fmt::v11::detail::buffer<wchar_t>::append<wchar_t>(wchar_t const*, wchar_t const*)
PUBLIC m 500f8 0 fmt::v11::format_facet<std::__ndk1::locale>::~format_facet()
PUBLIC m 50188 0 fmt::v11::format_error::~format_error()
PUBLIC m 501ac 0 fmt::v11::basic_memory_buffer<wchar_t, (unsigned long)500, std::__ndk1::allocator<wchar_t> >::grow(fmt::v11::detail::buffer<wchar_t>&, unsigned long)
PUBLIC 5024c 0 fmt::v11::detail::for_each_codepoint<fmt::v11::detail::utf8_to_utf16::utf8_to_utf16(fmt::v11::basic_string_view<char>)::$_0>(fmt::v11::basic_string_view<char>, fmt::v11::detail::utf8_to_utf16::utf8_to_utf16(fmt::v11::basic_string_view<char>)::$_0)::{lambda(char const*, char const*)#1}::operator()(char const*, char const*) const
PUBLIC m 50448 0 fmt::v11::detail::copy_noinline<char, char const*, fmt::v11::basic_appender<char> >(char const*, char const*, fmt::v11::basic_appender<char>)
PUBLIC m 50598 0 fmt::v11::system_error<>(int, fmt::v11::basic_format_string<char, fmt::v11::type_identity<>::type>, &&)
PUBLIC m 5066c 0 fmt::v11::detail::default_arg_formatter<char>::operator()<bool>(bool)
PUBLIC m 506dc 0 fmt::v11::detail::default_arg_formatter<char>::operator()<char>(char)
PUBLIC m 50754 0 fmt::v11::detail::default_arg_formatter<char>::operator()<float>(float)
PUBLIC m 50848 0 fmt::v11::detail::default_arg_formatter<char>::operator()<double>(double)
PUBLIC m 5093c 0 fmt::v11::detail::default_arg_formatter<char>::operator()<char const*>(char const*)
PUBLIC m 50984 0 fmt::v11::detail::default_arg_formatter<char>::operator()<void const*>(void const*)
PUBLIC m 50a20 0 _ZN3fmt3v116detail5writeIcNS0_14basic_appenderIcEEiTnNSt6__ndk19enable_ifIXaaaasr11is_integralIT1_EE5valuentsr3std7is_sameIS7_bEE5valuentsr3std7is_sameIS7_T_EE5valueEiE4typeELi0EEET0_SB_S7_
PUBLIC m 50c84 0 fmt::v11::detail::copy_noinline<char, char*, fmt::v11::basic_appender<char> >(char*, char*, fmt::v11::basic_appender<char>)
PUBLIC m 50dd4 0 _ZN3fmt3v116detail5writeIcNS0_14basic_appenderIcEEjTnNSt6__ndk19enable_ifIXaaaasr11is_integralIT1_EE5valuentsr3std7is_sameIS7_bEE5valuentsr3std7is_sameIS7_T_EE5valueEiE4typeELi0EEET0_SB_S7_
PUBLIC m 50fb8 0 _ZN3fmt3v116detail5writeIcNS0_14basic_appenderIcEExTnNSt6__ndk19enable_ifIXaaaasr11is_integralIT1_EE5valuentsr3std7is_sameIS7_bEE5valuentsr3std7is_sameIS7_T_EE5valueEiE4typeELi0EEET0_SB_S7_
PUBLIC m 51240 0 _ZN3fmt3v116detail5writeIcNS0_14basic_appenderIcEEyTnNSt6__ndk19enable_ifIXaaaasr11is_integralIT1_EE5valuentsr3std7is_sameIS7_bEE5valuentsr3std7is_sameIS7_T_EE5valueEiE4typeELi0EEET0_SB_S7_
PUBLIC m 5144c 0 _ZN3fmt3v116detail5writeIcNS0_14basic_appenderIcEEnTnNSt6__ndk19enable_ifIXaaaasr11is_integralIT1_EE5valuentsr3std7is_sameIS7_bEE5valuentsr3std7is_sameIS7_T_EE5valueEiE4typeELi0EEET0_SB_S7_
PUBLIC m 517b0 0 _ZN3fmt3v116detail5writeIcNS0_14basic_appenderIcEEoTnNSt6__ndk19enable_ifIXaaaasr11is_integralIT1_EE5valuentsr3std7is_sameIS7_bEE5valuentsr3std7is_sameIS7_T_EE5valueEiE4typeELi0EEET0_SB_S7_
PUBLIC m 51ac8 0 _ZN3fmt3v116detail5writeIcNS0_14basic_appenderIcEEbTnNSt6__ndk19enable_ifIXsr3std7is_sameIT1_bEE5valueEiE4typeELi0EEET0_SA_S7_RKNS0_12format_specsENS1_10locale_refE
PUBLIC m 51bd4 0 fmt::v11::detail::write_int_noinline<char, fmt::v11::basic_appender<char>, unsigned int>(fmt::v11::basic_appender<char>, fmt::v11::detail::write_int_arg<unsigned int>, fmt::v11::format_specs const&, fmt::v11::detail::locale_ref)
PUBLIC m 52564 0 fmt::v11::detail::write_int<char, fmt::v11::basic_appender<char>, fmt::v11::detail::write_int<char, fmt::v11::basic_appender<char>, unsigned int>(fmt::v11::basic_appender<char>, fmt::v11::detail::write_int_arg<unsigned int>, fmt::v11::format_specs const&, fmt::v11::detail::locale_ref)::{lambda(fmt::v11::basic_appender<char>)#1}>(fmt::v11::basic_appender<char>, int, unsigned int, fmt::v11::format_specs const&, fmt::v11::detail::write_int<char, fmt::v11::basic_appender<char>, unsigned int>(fmt::v11::basic_appender<char>, fmt::v11::detail::write_int_arg<unsigned int>, fmt::v11::format_specs const&, fmt::v11::detail::locale_ref)::{lambda(fmt::v11::basic_appender<char>)#1})::{lambda(fmt::v11::basic_appender<char>(fmt::v11::basic_appender<char>))#1}::operator() const
PUBLIC m 526f4 0 fmt::v11::detail::write_int<char, fmt::v11::basic_appender<char>, fmt::v11::detail::write_int<char, fmt::v11::basic_appender<char>, unsigned int>(fmt::v11::basic_appender<char>, fmt::v11::detail::write_int_arg<unsigned int>, fmt::v11::format_specs const&, fmt::v11::detail::locale_ref)::{lambda(fmt::v11::basic_appender<char>)#2}>(fmt::v11::basic_appender<char>, int, unsigned int, fmt::v11::format_specs const&, fmt::v11::detail::write_int<char, fmt::v11::basic_appender<char>, unsigned int>(fmt::v11::basic_appender<char>, fmt::v11::detail::write_int_arg<unsigned int>, fmt::v11::format_specs const&, fmt::v11::detail::locale_ref)::{lambda(fmt::v11::basic_appender<char>)#2})::{lambda(fmt::v11::basic_appender<char>(fmt::v11::basic_appender<char>))#1}::operator() const
PUBLIC m 528d8 0 fmt::v11::detail::write_int<char, fmt::v11::basic_appender<char>, fmt::v11::detail::write_int<char, fmt::v11::basic_appender<char>, unsigned int>(fmt::v11::basic_appender<char>, fmt::v11::detail::write_int_arg<unsigned int>, fmt::v11::format_specs const&, fmt::v11::detail::locale_ref)::{lambda(fmt::v11::basic_appender<char>)#3}>(fmt::v11::basic_appender<char>, int, unsigned int, fmt::v11::format_specs const&, fmt::v11::detail::write_int<char, fmt::v11::basic_appender<char>, unsigned int>(fmt::v11::basic_appender<char>, fmt::v11::detail::write_int_arg<unsigned int>, fmt::v11::format_specs const&, fmt::v11::detail::locale_ref)::{lambda(fmt::v11::basic_appender<char>)#3})::{lambda(fmt::v11::basic_appender<char>(fmt::v11::basic_appender<char>))#1}::operator() const
PUBLIC m 52a80 0 fmt::v11::detail::write_int<char, fmt::v11::basic_appender<char>, fmt::v11::detail::write_int<char, fmt::v11::basic_appender<char>, unsigned int>(fmt::v11::basic_appender<char>, fmt::v11::detail::write_int_arg<unsigned int>, fmt::v11::format_specs const&, fmt::v11::detail::locale_ref)::{lambda(fmt::v11::basic_appender<char>)#4}>(fmt::v11::basic_appender<char>, int, unsigned int, fmt::v11::format_specs const&, fmt::v11::detail::write_int<char, fmt::v11::basic_appender<char>, unsigned int>(fmt::v11::basic_appender<char>, fmt::v11::detail::write_int_arg<unsigned int>, fmt::v11::format_specs const&, fmt::v11::detail::locale_ref)::{lambda(fmt::v11::basic_appender<char>)#4})::{lambda(fmt::v11::basic_appender<char>(fmt::v11::basic_appender<char>))#1}::operator() const
PUBLIC m 52c2c 0 fmt::v11::detail::write_padded<char, (fmt::v11::align::type)1, fmt::v11::basic_appender<char>, fmt::v11::detail::write_char<char, fmt::v11::basic_appender<char> >(fmt::v11::basic_appender<char>, char, fmt::v11::format_specs const&)::{lambda(fmt::v11::basic_appender<char>&)#1}>(fmt::v11::basic_appender<char>, fmt::v11::format_specs const&, unsigned long, unsigned long, fmt::v11::detail::write_char<char, fmt::v11::basic_appender<char> >(fmt::v11::basic_appender<char>, char, fmt::v11::format_specs const&)::{lambda(fmt::v11::basic_appender<char>&)#1})
PUBLIC m 52d34 0 fmt::v11::detail::write_escaped_char<char, fmt::v11::basic_appender<char> >(fmt::v11::basic_appender<char>, char)
PUBLIC m 52eac 0 fmt::v11::detail::write_padded<char, (fmt::v11::align::type)1, fmt::v11::basic_appender<char>, fmt::v11::detail::write_bytes<char, (fmt::v11::align::type)1, fmt::v11::basic_appender<char> >(fmt::v11::basic_appender<char>, fmt::v11::basic_string_view<char>, fmt::v11::format_specs const&)::{lambda(fmt::v11::basic_appender<char>&)#1}>(fmt::v11::basic_appender<char>, fmt::v11::format_specs const&, unsigned long, unsigned long, fmt::v11::detail::write_bytes<char, (fmt::v11::align::type)1, fmt::v11::basic_appender<char> >(fmt::v11::basic_appender<char>, fmt::v11::basic_string_view<char>, fmt::v11::format_specs const&)::{lambda(fmt::v11::basic_appender<char>&)#1})
PUBLIC m 530a0 0 fmt::v11::detail::write_padded<char, (fmt::v11::align::type)1, fmt::v11::basic_appender<char>, fmt::v11::detail::write_nonfinite<char, fmt::v11::basic_appender<char> >(fmt::v11::basic_appender<char>, bool, fmt::v11::format_specs, fmt::v11::sign::type)::{lambda(fmt::v11::basic_appender<char>&)#1}>(fmt::v11::basic_appender<char>, fmt::v11::format_specs const&, unsigned long, unsigned long, fmt::v11::detail::write_nonfinite<char, fmt::v11::basic_appender<char> >(fmt::v11::basic_appender<char>, bool, fmt::v11::format_specs, fmt::v11::sign::type)::{lambda(fmt::v11::basic_appender<char>&)#1})
PUBLIC m 532f8 0 fmt::v11::detail::do_write_float<char, fmt::v11::basic_appender<char>, fmt::v11::detail::dragonbox::decimal_fp<float>, fmt::v11::detail::digit_grouping<char> >(fmt::v11::basic_appender<char>, fmt::v11::detail::dragonbox::decimal_fp<float> const&, fmt::v11::format_specs const&, fmt::v11::detail::float_specs, fmt::v11::detail::locale_ref)
PUBLIC m 539c8 0 fmt::v11::detail::do_write_float<char, fmt::v11::basic_appender<char>, fmt::v11::detail::dragonbox::decimal_fp<float>, fmt::v11::detail::digit_grouping<char> >(fmt::v11::basic_appender<char>, fmt::v11::detail::dragonbox::decimal_fp<float> const&, fmt::v11::format_specs const&, fmt::v11::detail::float_specs, fmt::v11::detail::locale_ref)::{lambda(fmt::v11::basic_appender<char>(fmt::v11::basic_appender<char>))#1}::operator() const
PUBLIC m 53b1c 0 fmt::v11::detail::digit_grouping<char>::digit_grouping(fmt::v11::detail::locale_ref, bool)
PUBLIC m 53cd0 0 fmt::v11::detail::digit_grouping<char>::~digit_grouping()
PUBLIC m 53d14 0 fmt::v11::detail::write_exponent<char, fmt::v11::basic_appender<char> >(int, fmt::v11::basic_appender<char>)
PUBLIC m 53ee4 0 _ZN3fmt3v116detail17write_significandIcjTnNSt6__ndk19enable_ifIXsr3std11is_integralIT0_EE5valueEiE4typeELi0EEEPT_S9_S5_iiS8_
PUBLIC m 54060 0 fmt::v11::detail::do_write_float<char, fmt::v11::basic_appender<char>, fmt::v11::detail::dragonbox::decimal_fp<float>, fmt::v11::detail::digit_grouping<char> >(fmt::v11::basic_appender<char>, fmt::v11::detail::dragonbox::decimal_fp<float> const&, fmt::v11::format_specs const&, fmt::v11::detail::float_specs, fmt::v11::detail::locale_ref)::{lambda(fmt::v11::basic_appender<char>(fmt::v11::basic_appender<char>))#2}::operator() const
PUBLIC m 54194 0 fmt::v11::detail::write_significand<char, fmt::v11::basic_appender<char>, unsigned int, fmt::v11::detail::digit_grouping<char> >(fmt::v11::basic_appender<char>, unsigned int, int, int, fmt::v11::detail::digit_grouping<char> const&)
PUBLIC m 54454 0 fmt::v11::detail::digit_grouping<char>::apply<fmt::v11::basic_appender<char>, char>(fmt::v11::basic_appender<char>, fmt::v11::basic_string_view<char>) const
PUBLIC m 5480c 0 fmt::v11::basic_memory_buffer<int, (unsigned long)500, std::__ndk1::allocator<int> >::grow(fmt::v11::detail::buffer<int>&, unsigned long)
PUBLIC m 548ac 0 fmt::v11::detail::write_padded<char, (fmt::v11::align::type)2, fmt::v11::basic_appender<char>, fmt::v11::detail::do_write_float<char, fmt::v11::basic_appender<char>, fmt::v11::detail::dragonbox::decimal_fp<float>, fmt::v11::detail::digit_grouping<char> >(fmt::v11::basic_appender<char>, fmt::v11::detail::dragonbox::decimal_fp<float> const&, fmt::v11::format_specs const&, fmt::v11::detail::float_specs, fmt::v11::detail::locale_ref)::{lambda(fmt::v11::basic_appender<char>&)#3}>(fmt::v11::basic_appender<char>, fmt::v11::format_specs const&, unsigned long, unsigned long, fmt::v11::detail::do_write_float<char, fmt::v11::basic_appender<char>, fmt::v11::detail::dragonbox::decimal_fp<float>, fmt::v11::detail::digit_grouping<char> >(fmt::v11::basic_appender<char>, fmt::v11::detail::dragonbox::decimal_fp<float> const&, fmt::v11::format_specs const&, fmt::v11::detail::float_specs, fmt::v11::detail::locale_ref)::{lambda(fmt::v11::basic_appender<char>&)#3})
PUBLIC m 54a3c 0 fmt::v11::detail::write_significand<fmt::v11::basic_appender<char>, char, unsigned int, fmt::v11::detail::digit_grouping<char> >(fmt::v11::basic_appender<char>, unsigned int, int, int, char, fmt::v11::detail::digit_grouping<char> const&)
PUBLIC m 54b84 0 fmt::v11::detail::do_write_float<char, fmt::v11::basic_appender<char>, fmt::v11::detail::dragonbox::decimal_fp<float>, fmt::v11::detail::digit_grouping<char> >(fmt::v11::basic_appender<char>, fmt::v11::detail::dragonbox::decimal_fp<float> const&, fmt::v11::format_specs const&, fmt::v11::detail::float_specs, fmt::v11::detail::locale_ref)::{lambda(fmt::v11::basic_appender<char>(fmt::v11::basic_appender<char>))#4}::operator() const
PUBLIC m 54da0 0 fmt::v11::detail::do_write_float<char, fmt::v11::basic_appender<char>, fmt::v11::detail::dragonbox::decimal_fp<double>, fmt::v11::detail::digit_grouping<char> >(fmt::v11::basic_appender<char>, fmt::v11::detail::dragonbox::decimal_fp<double> const&, fmt::v11::format_specs const&, fmt::v11::detail::float_specs, fmt::v11::detail::locale_ref)
PUBLIC m 55480 0 fmt::v11::detail::do_write_float<char, fmt::v11::basic_appender<char>, fmt::v11::detail::dragonbox::decimal_fp<double>, fmt::v11::detail::digit_grouping<char> >(fmt::v11::basic_appender<char>, fmt::v11::detail::dragonbox::decimal_fp<double> const&, fmt::v11::format_specs const&, fmt::v11::detail::float_specs, fmt::v11::detail::locale_ref)::{lambda(fmt::v11::basic_appender<char>(fmt::v11::basic_appender<char>))#1}::operator() const
PUBLIC m 555d8 0 _ZN3fmt3v116detail17write_significandIcmTnNSt6__ndk19enable_ifIXsr3std11is_integralIT0_EE5valueEiE4typeELi0EEEPT_S9_S5_iiS8_
PUBLIC m 55768 0 fmt::v11::detail::do_write_float<char, fmt::v11::basic_appender<char>, fmt::v11::detail::dragonbox::decimal_fp<double>, fmt::v11::detail::digit_grouping<char> >(fmt::v11::basic_appender<char>, fmt::v11::detail::dragonbox::decimal_fp<double> const&, fmt::v11::format_specs const&, fmt::v11::detail::float_specs, fmt::v11::detail::locale_ref)::{lambda(fmt::v11::basic_appender<char>(fmt::v11::basic_appender<char>))#2}::operator() const
PUBLIC m 5589c 0 fmt::v11::detail::write_significand<char, fmt::v11::basic_appender<char>, unsigned long, fmt::v11::detail::digit_grouping<char> >(fmt::v11::basic_appender<char>, unsigned long, int, int, fmt::v11::detail::digit_grouping<char> const&)
PUBLIC m 55b74 0 fmt::v11::detail::write_padded<char, (fmt::v11::align::type)2, fmt::v11::basic_appender<char>, fmt::v11::detail::do_write_float<char, fmt::v11::basic_appender<char>, fmt::v11::detail::dragonbox::decimal_fp<double>, fmt::v11::detail::digit_grouping<char> >(fmt::v11::basic_appender<char>, fmt::v11::detail::dragonbox::decimal_fp<double> const&, fmt::v11::format_specs const&, fmt::v11::detail::float_specs, fmt::v11::detail::locale_ref)::{lambda(fmt::v11::basic_appender<char>&)#3}>(fmt::v11::basic_appender<char>, fmt::v11::format_specs const&, unsigned long, unsigned long, fmt::v11::detail::do_write_float<char, fmt::v11::basic_appender<char>, fmt::v11::detail::dragonbox::decimal_fp<double>, fmt::v11::detail::digit_grouping<char> >(fmt::v11::basic_appender<char>, fmt::v11::detail::dragonbox::decimal_fp<double> const&, fmt::v11::format_specs const&, fmt::v11::detail::float_specs, fmt::v11::detail::locale_ref)::{lambda(fmt::v11::basic_appender<char>&)#3})
PUBLIC m 55d04 0 fmt::v11::detail::write_significand<fmt::v11::basic_appender<char>, char, unsigned long, fmt::v11::detail::digit_grouping<char> >(fmt::v11::basic_appender<char>, unsigned long, int, int, char, fmt::v11::detail::digit_grouping<char> const&)
PUBLIC m 55e4c 0 fmt::v11::detail::do_write_float<char, fmt::v11::basic_appender<char>, fmt::v11::detail::dragonbox::decimal_fp<double>, fmt::v11::detail::digit_grouping<char> >(fmt::v11::basic_appender<char>, fmt::v11::detail::dragonbox::decimal_fp<double> const&, fmt::v11::format_specs const&, fmt::v11::detail::float_specs, fmt::v11::detail::locale_ref)::{lambda(fmt::v11::basic_appender<char>(fmt::v11::basic_appender<char>))#4}::operator() const
PUBLIC m 56074 0 fmt::v11::detail::write_float<char, fmt::v11::basic_appender<char>, long double>(fmt::v11::basic_appender<char>, long double, fmt::v11::format_specs, fmt::v11::detail::locale_ref)
PUBLIC m 56448 0 _ZN3fmt3v116detail15format_hexfloatIeTnNSt6__ndk19enable_ifIXntsr16is_double_doubleIT_EE5valueEiE4typeELi0EEEvS5_NS0_12format_specsERNS1_6bufferIcEE
PUBLIC m 569b0 0 fmt::v11::detail::format_float<long double>(long double, int, fmt::v11::detail::float_specs, fmt::v11::detail::buffer<char>&)
PUBLIC m 56c74 0 fmt::v11::detail::write_padded<char, (fmt::v11::align::type)2, fmt::v11::basic_appender<char>, fmt::v11::detail::write_bytes<char, (fmt::v11::align::type)2, fmt::v11::basic_appender<char> >(fmt::v11::basic_appender<char>, fmt::v11::basic_string_view<char>, fmt::v11::format_specs const&)::{lambda(fmt::v11::basic_appender<char>&)#1}>(fmt::v11::basic_appender<char>, fmt::v11::format_specs const&, unsigned long, unsigned long, fmt::v11::detail::write_bytes<char, (fmt::v11::align::type)2, fmt::v11::basic_appender<char> >(fmt::v11::basic_appender<char>, fmt::v11::basic_string_view<char>, fmt::v11::format_specs const&)::{lambda(fmt::v11::basic_appender<char>&)#1})
PUBLIC m 56e68 0 fmt::v11::detail::format_dragon(fmt::v11::detail::basic_fp<unsigned __int128>, unsigned int, int, fmt::v11::detail::buffer<char>&, int&)
PUBLIC m 58290 0 fmt::v11::detail::bigint::operator<<=(int)
PUBLIC m 583b4 0 fmt::v11::detail::bigint::assign_pow10(int)
PUBLIC m 58548 0 fmt::v11::detail::bigint::divmod_assign(fmt::v11::detail::bigint const&)
PUBLIC m 5886c 0 fmt::v11::basic_memory_buffer<unsigned int, (unsigned long)32, std::__ndk1::allocator<unsigned int> >::grow(fmt::v11::detail::buffer<unsigned int>&, unsigned long)
PUBLIC m 5890c 0 fmt::v11::detail::bigint::square()
PUBLIC m 58ed8 0 fmt::v11::detail::do_write_float<char, fmt::v11::basic_appender<char>, fmt::v11::detail::big_decimal_fp, fmt::v11::detail::digit_grouping<char> >(fmt::v11::basic_appender<char>, fmt::v11::detail::big_decimal_fp const&, fmt::v11::format_specs const&, fmt::v11::detail::float_specs, fmt::v11::detail::locale_ref)
PUBLIC m 5958c 0 fmt::v11::detail::do_write_float<char, fmt::v11::basic_appender<char>, fmt::v11::detail::big_decimal_fp, fmt::v11::detail::digit_grouping<char> >(fmt::v11::basic_appender<char>, fmt::v11::detail::big_decimal_fp const&, fmt::v11::format_specs const&, fmt::v11::detail::float_specs, fmt::v11::detail::locale_ref)::{lambda(fmt::v11::basic_appender<char>(fmt::v11::basic_appender<char>))#1}::operator() const
PUBLIC m 596f4 0 fmt::v11::detail::do_write_float<char, fmt::v11::basic_appender<char>, fmt::v11::detail::big_decimal_fp, fmt::v11::detail::digit_grouping<char> >(fmt::v11::basic_appender<char>, fmt::v11::detail::big_decimal_fp const&, fmt::v11::format_specs const&, fmt::v11::detail::float_specs, fmt::v11::detail::locale_ref)::{lambda(fmt::v11::basic_appender<char>(fmt::v11::basic_appender<char>))#2}::operator() const
PUBLIC m 59828 0 fmt::v11::detail::write_significand<char, fmt::v11::basic_appender<char>, char const*, fmt::v11::detail::digit_grouping<char> >(fmt::v11::basic_appender<char>, char const*, int, int, fmt::v11::detail::digit_grouping<char> const&)
PUBLIC m 59c10 0 fmt::v11::detail::write_padded<char, (fmt::v11::align::type)2, fmt::v11::basic_appender<char>, fmt::v11::detail::do_write_float<char, fmt::v11::basic_appender<char>, fmt::v11::detail::big_decimal_fp, fmt::v11::detail::digit_grouping<char> >(fmt::v11::basic_appender<char>, fmt::v11::detail::big_decimal_fp const&, fmt::v11::format_specs const&, fmt::v11::detail::float_specs, fmt::v11::detail::locale_ref)::{lambda(fmt::v11::basic_appender<char>&)#3}>(fmt::v11::basic_appender<char>, fmt::v11::format_specs const&, unsigned long, unsigned long, fmt::v11::detail::do_write_float<char, fmt::v11::basic_appender<char>, fmt::v11::detail::big_decimal_fp, fmt::v11::detail::digit_grouping<char> >(fmt::v11::basic_appender<char>, fmt::v11::detail::big_decimal_fp const&, fmt::v11::format_specs const&, fmt::v11::detail::float_specs, fmt::v11::detail::locale_ref)::{lambda(fmt::v11::basic_appender<char>&)#3})
PUBLIC m 59da0 0 fmt::v11::detail::write_significand<fmt::v11::basic_appender<char>, char, char const*, fmt::v11::detail::digit_grouping<char> >(fmt::v11::basic_appender<char>, char const*, int, int, char, fmt::v11::detail::digit_grouping<char> const&)
PUBLIC m 59fb4 0 fmt::v11::detail::do_write_float<char, fmt::v11::basic_appender<char>, fmt::v11::detail::big_decimal_fp, fmt::v11::detail::digit_grouping<char> >(fmt::v11::basic_appender<char>, fmt::v11::detail::big_decimal_fp const&, fmt::v11::format_specs const&, fmt::v11::detail::float_specs, fmt::v11::detail::locale_ref)::{lambda(fmt::v11::basic_appender<char>(fmt::v11::basic_appender<char>))#4}::operator() const
PUBLIC m 5a234 0 fmt::v11::detail::write_padded<char, (fmt::v11::align::type)2, fmt::v11::basic_appender<char>, fmt::v11::detail::write_ptr<char, fmt::v11::basic_appender<char>, unsigned long>(fmt::v11::basic_appender<char>, unsigned long, fmt::v11::format_specs const*)::{lambda(fmt::v11::basic_appender<char>&)#1}>(fmt::v11::basic_appender<char>, fmt::v11::format_specs const&, unsigned long, unsigned long, fmt::v11::detail::write_ptr<char, fmt::v11::basic_appender<char>, unsigned long>(fmt::v11::basic_appender<char>, unsigned long, fmt::v11::format_specs const*)::{lambda(fmt::v11::basic_appender<char>&)#1})
PUBLIC m 5a454 0 fmt::v11::detail::parse_replacement_field<char, fmt::v11::detail::vformat_to<char>(fmt::v11::detail::buffer<char>&, fmt::v11::basic_string_view<char>, fmt::v11::detail::vformat_args<char>::type, fmt::v11::detail::locale_ref)::format_handler&>(char const*, char const*, fmt::v11::detail::vformat_to<char>(fmt::v11::detail::buffer<char>&, fmt::v11::basic_string_view<char>, fmt::v11::detail::vformat_args<char>::type, fmt::v11::detail::locale_ref)::format_handler&)
PUBLIC m 5ab2c 0 fmt::v11::detail::vformat_to<char>(fmt::v11::detail::buffer<char>&, fmt::v11::basic_string_view<char>, fmt::v11::detail::vformat_args<char>::type, fmt::v11::detail::locale_ref)::format_handler::on_format_specs(int, char const*, char const*)
PUBLIC m 5b150 0 fmt::v11::detail::do_parse_arg_id<char, fmt::v11::detail::parse_replacement_field<char, fmt::v11::detail::vformat_to<char>(fmt::v11::detail::buffer<char>&, fmt::v11::basic_string_view<char>, fmt::v11::detail::vformat_args<char>::type, fmt::v11::detail::locale_ref)::format_handler&>(char const*, char const*, fmt::v11::detail::vformat_to<char>(fmt::v11::detail::buffer<char>&, fmt::v11::basic_string_view<char>, fmt::v11::detail::vformat_args<char>::type, fmt::v11::detail::locale_ref)::format_handler&)::id_adapter&>(char const*, char const*, fmt::v11::detail::parse_replacement_field<char, fmt::v11::detail::vformat_to<char>(fmt::v11::detail::buffer<char>&, fmt::v11::basic_string_view<char>, fmt::v11::detail::vformat_args<char>::type, fmt::v11::detail::locale_ref)::format_handler&>(char const*, char const*, fmt::v11::detail::vformat_to<char>(fmt::v11::detail::buffer<char>&, fmt::v11::basic_string_view<char>, fmt::v11::detail::vformat_args<char>::type, fmt::v11::detail::locale_ref)::format_handler&)::id_adapter&)
PUBLIC m 5b388 0 fmt::v11::detail::parse_replacement_field<char, fmt::v11::detail::vformat_to<char>(fmt::v11::detail::buffer<char>&, fmt::v11::basic_string_view<char>, fmt::v11::detail::vformat_args<char>::type, fmt::v11::detail::locale_ref)::format_handler&>(char const*, char const*, fmt::v11::detail::vformat_to<char>(fmt::v11::detail::buffer<char>&, fmt::v11::basic_string_view<char>, fmt::v11::detail::vformat_args<char>::type, fmt::v11::detail::locale_ref)::format_handler&)::id_adapter::on_name(fmt::v11::basic_string_view<char>)
PUBLIC m 5b474 0 fmt::v11::detail::parse_format_specs<char>(char const*, char const*, fmt::v11::detail::dynamic_format_specs<char>&, fmt::v11::basic_format_parse_context<char>&, fmt::v11::detail::type)
PUBLIC m 5b928 0 fmt::v11::detail::parse_dynamic_spec<char>(char const*, char const*, int&, fmt::v11::detail::arg_ref<char>&, fmt::v11::basic_format_parse_context<char>&)
PUBLIC m 5bacc 0 fmt::v11::detail::do_parse_arg_id<char, fmt::v11::detail::dynamic_spec_id_handler<char>&>(char const*, char const*, fmt::v11::detail::dynamic_spec_id_handler<char>&)
PUBLIC m 5bc64 0 fmt::v11::detail::write_int_noinline<char, fmt::v11::basic_appender<char>, unsigned long>(fmt::v11::basic_appender<char>, fmt::v11::detail::write_int_arg<unsigned long>, fmt::v11::format_specs const&, fmt::v11::detail::locale_ref)
PUBLIC m 5c644 0 fmt::v11::detail::write_int<char, fmt::v11::basic_appender<char>, fmt::v11::detail::write_int<char, fmt::v11::basic_appender<char>, unsigned long>(fmt::v11::basic_appender<char>, fmt::v11::detail::write_int_arg<unsigned long>, fmt::v11::format_specs const&, fmt::v11::detail::locale_ref)::{lambda(fmt::v11::basic_appender<char>)#1}>(fmt::v11::basic_appender<char>, int, unsigned int, fmt::v11::format_specs const&, fmt::v11::detail::write_int<char, fmt::v11::basic_appender<char>, unsigned long>(fmt::v11::basic_appender<char>, fmt::v11::detail::write_int_arg<unsigned long>, fmt::v11::format_specs const&, fmt::v11::detail::locale_ref)::{lambda(fmt::v11::basic_appender<char>)#1})::{lambda(fmt::v11::basic_appender<char>(fmt::v11::basic_appender<char>))#1}::operator() const
PUBLIC m 5c7e0 0 fmt::v11::detail::write_int<char, fmt::v11::basic_appender<char>, fmt::v11::detail::write_int<char, fmt::v11::basic_appender<char>, unsigned long>(fmt::v11::basic_appender<char>, fmt::v11::detail::write_int_arg<unsigned long>, fmt::v11::format_specs const&, fmt::v11::detail::locale_ref)::{lambda(fmt::v11::basic_appender<char>)#2}>(fmt::v11::basic_appender<char>, int, unsigned int, fmt::v11::format_specs const&, fmt::v11::detail::write_int<char, fmt::v11::basic_appender<char>, unsigned long>(fmt::v11::basic_appender<char>, fmt::v11::detail::write_int_arg<unsigned long>, fmt::v11::format_specs const&, fmt::v11::detail::locale_ref)::{lambda(fmt::v11::basic_appender<char>)#2})::{lambda(fmt::v11::basic_appender<char>(fmt::v11::basic_appender<char>))#1}::operator() const
PUBLIC m 5c9c8 0 fmt::v11::detail::write_int<char, fmt::v11::basic_appender<char>, fmt::v11::detail::write_int<char, fmt::v11::basic_appender<char>, unsigned long>(fmt::v11::basic_appender<char>, fmt::v11::detail::write_int_arg<unsigned long>, fmt::v11::format_specs const&, fmt::v11::detail::locale_ref)::{lambda(fmt::v11::basic_appender<char>)#3}>(fmt::v11::basic_appender<char>, int, unsigned int, fmt::v11::format_specs const&, fmt::v11::detail::write_int<char, fmt::v11::basic_appender<char>, unsigned long>(fmt::v11::basic_appender<char>, fmt::v11::detail::write_int_arg<unsigned long>, fmt::v11::format_specs const&, fmt::v11::detail::locale_ref)::{lambda(fmt::v11::basic_appender<char>)#3})::{lambda(fmt::v11::basic_appender<char>(fmt::v11::basic_appender<char>))#1}::operator() const
PUBLIC m 5cb74 0 fmt::v11::detail::write_int<char, fmt::v11::basic_appender<char>, fmt::v11::detail::write_int<char, fmt::v11::basic_appender<char>, unsigned long>(fmt::v11::basic_appender<char>, fmt::v11::detail::write_int_arg<unsigned long>, fmt::v11::format_specs const&, fmt::v11::detail::locale_ref)::{lambda(fmt::v11::basic_appender<char>)#4}>(fmt::v11::basic_appender<char>, int, unsigned int, fmt::v11::format_specs const&, fmt::v11::detail::write_int<char, fmt::v11::basic_appender<char>, unsigned long>(fmt::v11::basic_appender<char>, fmt::v11::detail::write_int_arg<unsigned long>, fmt::v11::format_specs const&, fmt::v11::detail::locale_ref)::{lambda(fmt::v11::basic_appender<char>)#4})::{lambda(fmt::v11::basic_appender<char>(fmt::v11::basic_appender<char>))#1}::operator() const
PUBLIC m 5cd28 0 fmt::v11::detail::write_int_noinline<char, fmt::v11::basic_appender<char>, unsigned __int128>(fmt::v11::basic_appender<char>, fmt::v11::detail::write_int_arg<unsigned __int128>, fmt::v11::format_specs const&, fmt::v11::detail::locale_ref)
PUBLIC m 5d828 0 fmt::v11::detail::write_int<char, fmt::v11::basic_appender<char>, fmt::v11::detail::write_int<char, fmt::v11::basic_appender<char>, unsigned __int128>(fmt::v11::basic_appender<char>, fmt::v11::detail::write_int_arg<unsigned __int128>, fmt::v11::format_specs const&, fmt::v11::detail::locale_ref)::{lambda(fmt::v11::basic_appender<char>)#1}>(fmt::v11::basic_appender<char>, int, unsigned int, fmt::v11::format_specs const&, fmt::v11::detail::write_int<char, fmt::v11::basic_appender<char>, unsigned __int128>(fmt::v11::basic_appender<char>, fmt::v11::detail::write_int_arg<unsigned __int128>, fmt::v11::format_specs const&, fmt::v11::detail::locale_ref)::{lambda(fmt::v11::basic_appender<char>)#1})::{lambda(fmt::v11::basic_appender<char>(fmt::v11::basic_appender<char>))#1}::operator() const
PUBLIC m 5d9fc 0 fmt::v11::detail::write_int<char, fmt::v11::basic_appender<char>, fmt::v11::detail::write_int<char, fmt::v11::basic_appender<char>, unsigned __int128>(fmt::v11::basic_appender<char>, fmt::v11::detail::write_int_arg<unsigned __int128>, fmt::v11::format_specs const&, fmt::v11::detail::locale_ref)::{lambda(fmt::v11::basic_appender<char>)#2}>(fmt::v11::basic_appender<char>, int, unsigned int, fmt::v11::format_specs const&, fmt::v11::detail::write_int<char, fmt::v11::basic_appender<char>, unsigned __int128>(fmt::v11::basic_appender<char>, fmt::v11::detail::write_int_arg<unsigned __int128>, fmt::v11::format_specs const&, fmt::v11::detail::locale_ref)::{lambda(fmt::v11::basic_appender<char>)#2})::{lambda(fmt::v11::basic_appender<char>(fmt::v11::basic_appender<char>))#1}::operator() const
PUBLIC m 5dbfc 0 fmt::v11::detail::write_int<char, fmt::v11::basic_appender<char>, fmt::v11::detail::write_int<char, fmt::v11::basic_appender<char>, unsigned __int128>(fmt::v11::basic_appender<char>, fmt::v11::detail::write_int_arg<unsigned __int128>, fmt::v11::format_specs const&, fmt::v11::detail::locale_ref)::{lambda(fmt::v11::basic_appender<char>)#3}>(fmt::v11::basic_appender<char>, int, unsigned int, fmt::v11::format_specs const&, fmt::v11::detail::write_int<char, fmt::v11::basic_appender<char>, unsigned __int128>(fmt::v11::basic_appender<char>, fmt::v11::detail::write_int_arg<unsigned __int128>, fmt::v11::format_specs const&, fmt::v11::detail::locale_ref)::{lambda(fmt::v11::basic_appender<char>)#3})::{lambda(fmt::v11::basic_appender<char>(fmt::v11::basic_appender<char>))#1}::operator() const
PUBLIC m 5ddc8 0 fmt::v11::detail::write_int<char, fmt::v11::basic_appender<char>, fmt::v11::detail::write_int<char, fmt::v11::basic_appender<char>, unsigned __int128>(fmt::v11::basic_appender<char>, fmt::v11::detail::write_int_arg<unsigned __int128>, fmt::v11::format_specs const&, fmt::v11::detail::locale_ref)::{lambda(fmt::v11::basic_appender<char>)#4}>(fmt::v11::basic_appender<char>, int, unsigned int, fmt::v11::format_specs const&, fmt::v11::detail::write_int<char, fmt::v11::basic_appender<char>, unsigned __int128>(fmt::v11::basic_appender<char>, fmt::v11::detail::write_int_arg<unsigned __int128>, fmt::v11::format_specs const&, fmt::v11::detail::locale_ref)::{lambda(fmt::v11::basic_appender<char>)#4})::{lambda(fmt::v11::basic_appender<char>(fmt::v11::basic_appender<char>))#1}::operator() const
PUBLIC m 5dfa0 0 fmt::v11::detail::write<char, fmt::v11::basic_appender<char> >(fmt::v11::basic_appender<char>, char, fmt::v11::format_specs const&, fmt::v11::detail::locale_ref)
PUBLIC m 5e0d8 0 fmt::v11::detail::write_float<char, fmt::v11::basic_appender<char>, float>(fmt::v11::basic_appender<char>, float, fmt::v11::format_specs, fmt::v11::detail::locale_ref)
PUBLIC m 5e46c 0 _ZN3fmt3v116detail15format_hexfloatIdTnNSt6__ndk19enable_ifIXntsr16is_double_doubleIT_EE5valueEiE4typeELi0EEEvS5_NS0_12format_specsERNS1_6bufferIcEE
PUBLIC m 5e98c 0 fmt::v11::detail::format_float<double>(double, int, fmt::v11::detail::float_specs, fmt::v11::detail::buffer<char>&)
PUBLIC m 5f22c 0 _ZN3fmt3v116detail5writeIcNS0_14basic_appenderIcEEmTnNSt6__ndk19enable_ifIXaaaasr11is_integralIT1_EE5valuentsr3std7is_sameIS7_bEE5valuentsr3std7is_sameIS7_T_EE5valueEiE4typeELi0EEET0_SB_S7_
PUBLIC m 5f438 0 fmt::v11::detail::write_float<char, fmt::v11::basic_appender<char>, double>(fmt::v11::basic_appender<char>, double, fmt::v11::format_specs, fmt::v11::detail::locale_ref)
PUBLIC m 5f7c0 0 fmt::v11::detail::for_each_codepoint<fmt::v11::detail::find_escape(char const*, char const*)::{lambda(unsigned int, fmt::v11::basic_string_view<char>)#1}>(fmt::v11::basic_string_view<char>, fmt::v11::detail::find_escape(char const*, char const*)::{lambda(unsigned int, fmt::v11::basic_string_view<char>)#1})::{lambda(char const*, char const*)#1}::operator()(char const*, char const*) const
PUBLIC m 5f94c 0 _ZN3fmt3v116detail10loc_writerIcEclIiTnNSt6__ndk19enable_ifIXsr10is_integerIT_EE5valueEiE4typeELi0EEEbS7_
PUBLIC m 5fb64 0 _ZN3fmt3v116detail10loc_writerIcEclIjTnNSt6__ndk19enable_ifIXsr10is_integerIT_EE5valueEiE4typeELi0EEEbS7_
PUBLIC m 5fd58 0 _ZN3fmt3v116detail10loc_writerIcEclIxTnNSt6__ndk19enable_ifIXsr10is_integerIT_EE5valueEiE4typeELi0EEEbS7_
PUBLIC m 5ff70 0 _ZN3fmt3v116detail10loc_writerIcEclIyTnNSt6__ndk19enable_ifIXsr10is_integerIT_EE5valueEiE4typeELi0EEEbS7_
PUBLIC m 60164 0 _ZN3fmt3v116detail10loc_writerIcEclInTnNSt6__ndk19enable_ifIXsr10is_integerIT_EE5valueEiE4typeELi0EEEbS7_
PUBLIC m 60390 0 _ZN3fmt3v116detail10loc_writerIcEclIoTnNSt6__ndk19enable_ifIXsr10is_integerIT_EE5valueEiE4typeELi0EEEbS7_
PUBLIC m 60594 0 fmt::v11::detail::write_int<fmt::v11::basic_appender<char>, unsigned long, char>(fmt::v11::basic_appender<char>, unsigned long, unsigned int, fmt::v11::format_specs const&, fmt::v11::detail::digit_grouping<char> const&)
PUBLIC m 60a90 0 fmt::v11::detail::write_padded<char, (fmt::v11::align::type)2, fmt::v11::basic_appender<char>, fmt::v11::detail::write_int<fmt::v11::basic_appender<char>, unsigned long, char>(fmt::v11::basic_appender<char>, unsigned long, unsigned int, fmt::v11::format_specs const&, fmt::v11::detail::digit_grouping<char> const&)::{lambda(fmt::v11::basic_appender<char>)#1}>(fmt::v11::basic_appender<char>, fmt::v11::format_specs const&, unsigned long, unsigned long, fmt::v11::detail::write_int<fmt::v11::basic_appender<char>, unsigned long, char>(fmt::v11::basic_appender<char>, unsigned long, unsigned int, fmt::v11::format_specs const&, fmt::v11::detail::digit_grouping<char> const&)::{lambda(fmt::v11::basic_appender<char>&&)#1})
PUBLIC m 60bac 0 fmt::v11::detail::write_int<fmt::v11::basic_appender<char>, unsigned __int128, char>(fmt::v11::basic_appender<char>, unsigned __int128, unsigned int, fmt::v11::format_specs const&, fmt::v11::detail::digit_grouping<char> const&)
PUBLIC m 611d8 0 fmt::v11::detail::write_padded<char, (fmt::v11::align::type)2, fmt::v11::basic_appender<char>, fmt::v11::detail::write_int<fmt::v11::basic_appender<char>, unsigned __int128, char>(fmt::v11::basic_appender<char>, unsigned __int128, unsigned int, fmt::v11::format_specs const&, fmt::v11::detail::digit_grouping<char> const&)::{lambda(fmt::v11::basic_appender<char>)#1}>(fmt::v11::basic_appender<char>, fmt::v11::format_specs const&, unsigned long, unsigned long, fmt::v11::detail::write_int<fmt::v11::basic_appender<char>, unsigned __int128, char>(fmt::v11::basic_appender<char>, unsigned __int128, unsigned int, fmt::v11::format_specs const&, fmt::v11::detail::digit_grouping<char> const&)::{lambda(fmt::v11::basic_appender<char>&&)#1})
PUBLIC 61300 0 <.plt ELF section in km7dev.betterquests.android64.so>
STACK CFI INIT 2d7c0 10 .cfa: sp 0 +
STACK CFI INIT 2d7d0 8 .cfa: sp 0 +
STACK CFI INIT 2d7d8 8 .cfa: sp 0 +
STACK CFI INIT 2d7e0 14 .cfa: sp 0 +
STACK CFI INIT 2d7f4 1c .cfa: sp 0 +
STACK CFI INIT 2d810 10 .cfa: sp 0 +
STACK CFI INIT 2d820 134 .cfa: sp 0 +
STACK CFI INIT 2d954 84 .cfa: sp 0 +
STACK CFI INIT 2d9d8 f4 .cfa: sp 0 +
STACK CFI INIT 2dacc a8 .cfa: sp 0 +
STACK CFI INIT 2db74 7c .cfa: sp 0 +
STACK CFI INIT 2dbf0 14 .cfa: sp 0 +
STACK CFI INIT 2dc04 40 .cfa: sp 0 +
STACK CFI INIT 2dc44 28 .cfa: sp 0 +
STACK CFI INIT 2dc6c 190 .cfa: sp 0 +
STACK CFI INIT 2ddfc 2c8 .cfa: sp 0 +
STACK CFI INIT 2e0c4 8 .cfa: sp 0 +
STACK CFI INIT 2e0cc 8 .cfa: sp 0 +
STACK CFI INIT 2e0d4 44 .cfa: sp 0 +
STACK CFI INIT 2e118 e8 .cfa: sp 0 +
STACK CFI INIT 2e200 e8 .cfa: sp 0 +
STACK CFI INIT 2e2e8 14 .cfa: sp 0 +
STACK CFI INIT 2e2fc 10 .cfa: sp 0 +
STACK CFI INIT 2e30c 10 .cfa: sp 0 +
STACK CFI INIT 2e31c f0 .cfa: sp 0 +
STACK CFI INIT 2e40c 44 .cfa: sp 0 +
STACK CFI INIT 2e450 c .cfa: sp 0 +
STACK CFI INIT 2e45c c .cfa: sp 0 +
STACK CFI INIT 2e468 2c .cfa: sp 0 +
STACK CFI INIT 2e494 23c .cfa: sp 0 +
STACK CFI INIT 2e6d0 c .cfa: sp 0 +
STACK CFI INIT 2e6dc 120 .cfa: sp 0 +
STACK CFI INIT 2e7fc 494 .cfa: sp 0 +
STACK CFI INIT 2ec90 b78 .cfa: sp 0 +
STACK CFI INIT 2f808 134 .cfa: sp 0 +
STACK CFI INIT 2f93c 210 .cfa: sp 0 +
STACK CFI INIT 2fb4c 38c .cfa: sp 0 +
STACK CFI INIT 2fed8 1c8 .cfa: sp 0 +
STACK CFI INIT 300a0 9c4 .cfa: sp 0 +
STACK CFI INIT 30a64 2d4 .cfa: sp 0 +
STACK CFI INIT 30d38 130 .cfa: sp 0 +
STACK CFI INIT 30e68 120 .cfa: sp 0 +
STACK CFI INIT 30f88 1c8 .cfa: sp 0 +
STACK CFI INIT 31150 168 .cfa: sp 0 +
STACK CFI INIT 312b8 fc .cfa: sp 0 +
STACK CFI INIT 313b4 30 .cfa: sp 0 +
STACK CFI INIT 31510 30 .cfa: sp 0 +
STACK CFI INIT 31540 98 .cfa: sp 0 +
STACK CFI INIT 315d8 2ac .cfa: sp 0 +
STACK CFI INIT 31884 8c .cfa: sp 0 +
STACK CFI INIT 31910 30 .cfa: sp 0 +
STACK CFI INIT 31a1c 40 .cfa: sp 0 +
STACK CFI 31a34 .cfa: sp 32 +
STACK CFI 31a3c .cfa: x29 32 + x19: .cfa -16 + ^ .ra: .cfa -24 + ^ x29: .cfa -32 + ^
STACK CFI 31a50 .cfa: sp 32 +
STACK CFI 31a58 .cfa: sp 0 +
STACK CFI INIT 31ecc 1c .cfa: sp 0 +
STACK CFI INIT 31ee8 44 .cfa: sp 0 +
STACK CFI 31eec .cfa: sp 32 +
STACK CFI 31ef4 .cfa: x29 32 + x19: .cfa -16 + ^ .ra: .cfa -24 + ^ x29: .cfa -32 + ^
STACK CFI 31f20 .cfa: sp 32 +
STACK CFI 31f28 .cfa: sp 0 +
STACK CFI INIT 31f2c 14 .cfa: sp 0 +
STACK CFI 31f30 .cfa: sp 16 +
STACK CFI 31f34 .cfa: x29 16 + .ra: .cfa -8 + ^ x29: .cfa -16 + ^
STACK CFI INIT 31f90 30 .cfa: sp 0 +
STACK CFI 31f94 .cfa: sp 32 +
STACK CFI 31f9c .cfa: x29 32 + x19: .cfa -16 + ^ .ra: .cfa -24 + ^ x29: .cfa -32 + ^
STACK CFI 31fb4 .cfa: sp 32 +
STACK CFI 31fbc .cfa: sp 0 +
STACK CFI INIT 31fc0 34 .cfa: sp 0 +
STACK CFI 31fc4 .cfa: sp 32 +
STACK CFI 31fcc .cfa: x29 32 + x19: .cfa -16 + ^ .ra: .cfa -24 + ^ x29: .cfa -32 + ^
STACK CFI INIT 31ff4 10 .cfa: sp 0 +
STACK CFI 31ff8 .cfa: sp 16 +
STACK CFI 31ffc .cfa: x29 16 + .ra: .cfa -8 + ^ x29: .cfa -16 + ^
STACK CFI INIT 32004 94 .cfa: sp 0 +
STACK CFI 32008 .cfa: sp 48 +
STACK CFI 32014 .cfa: x29 48 + x19: .cfa -8 + ^ x20: .cfa -16 + ^ x21: .cfa -24 + ^ x22: .cfa -32 + ^ .ra: .cfa -40 + ^ x29: .cfa -48 + ^
STACK CFI 3202c .cfa: sp 48 +
STACK CFI 32038 .cfa: sp 0 +
STACK CFI 3203c .cfa: x29 48 +
STACK CFI 32080 .cfa: sp 48 +
STACK CFI 3208c .cfa: sp 0 +
STACK CFI 32090 .cfa: x29 48 +
STACK CFI INIT 323a0 50 .cfa: sp 0 +
STACK CFI 323a4 .cfa: sp 32 +
STACK CFI 323ac .cfa: x29 32 + x19: .cfa -16 + ^ .ra: .cfa -24 + ^ x29: .cfa -32 + ^
STACK CFI 323c4 .cfa: sp 32 +
STACK CFI 323cc .cfa: sp 0 +
STACK CFI 323d0 .cfa: x29 32 +
STACK CFI 323e4 .cfa: sp 32 +
STACK CFI 323ec .cfa: sp 0 +
STACK CFI INIT 32464 7c .cfa: sp 0 +
STACK CFI 32468 .cfa: sp 48 +
STACK CFI 32474 .cfa: x29 48 + x19: .cfa -8 + ^ x20: .cfa -16 + ^ x21: .cfa -32 + ^ .ra: .cfa -40 + ^ x29: .cfa -48 + ^
STACK CFI 324c0 .cfa: sp 48 +
STACK CFI 324cc .cfa: sp 0 +
STACK CFI 324d0 .cfa: sp 48 +
STACK CFI 324dc .cfa: sp 0 +
STACK CFI INIT 324e0 4 .cfa: sp 0 +
STACK CFI INIT 32638 34 .cfa: sp 0 +
STACK CFI 3263c .cfa: sp 16 +
STACK CFI 32640 .cfa: x29 16 + .ra: .cfa -8 + ^ x29: .cfa -16 + ^
STACK CFI INIT 327a0 80 .cfa: sp 0 +
STACK CFI 327a4 .cfa: sp 48 +
STACK CFI 327b0 .cfa: x29 48 + x19: .cfa -8 + ^ x20: .cfa -16 + ^ x21: .cfa -32 + ^ .ra: .cfa -40 + ^ x29: .cfa -48 + ^
STACK CFI 32810 .cfa: sp 48 +
STACK CFI 3281c .cfa: sp 0 +
STACK CFI INIT 32820 24 .cfa: sp 0 +
STACK CFI 32824 .cfa: sp 32 +
STACK CFI 3282c .cfa: x29 32 + x19: .cfa -16 + ^ .ra: .cfa -24 + ^ x29: .cfa -32 + ^
STACK CFI 32838 .cfa: sp 32 +
STACK CFI 32840 .cfa: sp 0 +
STACK CFI INIT 32d44 148 .cfa: sp 0 +
STACK CFI 32d48 .cfa: sp 48 +
STACK CFI 32d54 .cfa: x29 48 + x19: .cfa -8 + ^ x20: .cfa -16 + ^ x21: .cfa -32 + ^ .ra: .cfa -40 + ^ x29: .cfa -48 + ^
STACK CFI 32e7c .cfa: sp 48 +
STACK CFI 32e88 .cfa: sp 0 +
STACK CFI INIT 32e8c 88 .cfa: sp 0 +
STACK CFI 32e94 .cfa: sp 48 +
STACK CFI 32ea0 .cfa: x29 48 + x19: .cfa -8 + ^ x20: .cfa -16 + ^ x21: .cfa -24 + ^ x22: .cfa -32 + ^ .ra: .cfa -40 + ^ x29: .cfa -48 + ^
STACK CFI 32f04 .cfa: sp 48 +
STACK CFI 32f10 .cfa: sp 0 +
STACK CFI INIT 330c4 68 .cfa: sp 0 +
STACK CFI 330c8 .cfa: sp 32 +
STACK CFI 330d0 .cfa: x29 32 + x19: .cfa -8 + ^ x20: .cfa -16 + ^ .ra: .cfa -24 + ^ x29: .cfa -32 + ^
STACK CFI 330e8 .cfa: sp 32 +
STACK CFI 330f0 .cfa: sp 0 +
STACK CFI 330f4 .cfa: x29 32 +
STACK CFI 33120 .cfa: sp 32 +
STACK CFI 33128 .cfa: sp 0 +
STACK CFI INIT 3312c 14 .cfa: sp 0 +
STACK CFI 33130 .cfa: sp 16 +
STACK CFI 33134 .cfa: x29 16 + .ra: .cfa -8 + ^ x29: .cfa -16 + ^
STACK CFI INIT 33140 4 .cfa: sp 0 +
STACK CFI INIT 33144 14 .cfa: sp 0 +
STACK CFI INIT 33158 128 .cfa: sp 0 +
STACK CFI 3315c .cfa: sp 64 +
STACK CFI 3316c .cfa: x29 64 + x19: .cfa -8 + ^ x20: .cfa -16 + ^ x21: .cfa -24 + ^ x22: .cfa -32 + ^ x23: .cfa -40 + ^ x24: .cfa -48 + ^ .ra: .cfa -56 + ^ x29: .cfa -64 + ^
STACK CFI 3326c .cfa: sp 64 +
STACK CFI 3327c .cfa: sp 0 +
STACK CFI INIT 33280 d4 .cfa: sp 0 +
STACK CFI 33284 .cfa: sp 48 +
STACK CFI 33290 .cfa: x29 48 + x19: .cfa -8 + ^ x20: .cfa -16 + ^ x21: .cfa -32 + ^ .ra: .cfa -40 + ^ x29: .cfa -48 + ^
STACK CFI 33320 .cfa: sp 48 +
STACK CFI 3332c .cfa: sp 0 +
STACK CFI 33330 .cfa: x29 48 +
STACK CFI INIT 33354 3c8 .cfa: sp 0 +
STACK CFI INIT 3371c 8c .cfa: sp 0 +
STACK CFI 33724 .cfa: sp 32 +
STACK CFI 3372c .cfa: x29 32 + x19: .cfa -8 + ^ x20: .cfa -16 + ^ .ra: .cfa -24 + ^ x29: .cfa -32 + ^
STACK CFI 33774 .cfa: sp 32 +
STACK CFI 3377c .cfa: sp 0 +
STACK CFI 33784 .cfa: x29 32 +
STACK CFI INIT 339c8 9c .cfa: sp 0 +
STACK CFI 339cc .cfa: sp 32 +
STACK CFI 339d4 .cfa: x29 32 + x19: .cfa -16 + ^ .ra: .cfa -24 + ^ x29: .cfa -32 + ^
STACK CFI 33a58 .cfa: sp 32 +
STACK CFI 33a60 .cfa: sp 0 +
STACK CFI INIT 33a64 50 .cfa: sp 0 +
STACK CFI 33a68 .cfa: sp 32 +
STACK CFI 33a70 .cfa: x29 32 + x19: .cfa -16 + ^ .ra: .cfa -24 + ^ x29: .cfa -32 + ^
STACK CFI 33a88 .cfa: sp 32 +
STACK CFI 33a90 .cfa: sp 0 +
STACK CFI 33a94 .cfa: x29 32 +
STACK CFI 33aa8 .cfa: sp 32 +
STACK CFI 33ab0 .cfa: sp 0 +
STACK CFI INIT 33ab4 64 .cfa: sp 0 +
STACK CFI 33ab8 .cfa: sp 32 +
STACK CFI 33ac0 .cfa: x29 32 + x19: .cfa -16 + ^ .ra: .cfa -24 + ^ x29: .cfa -32 + ^
STACK CFI 33aec .cfa: sp 32 +
STACK CFI 33af4 .cfa: sp 0 +
STACK CFI 33af8 .cfa: x29 32 +
STACK CFI 33b0c .cfa: sp 32 +
STACK CFI 33b14 .cfa: sp 0 +
STACK CFI INIT 33f1c 4 .cfa: sp 0 +
STACK CFI INIT 33f20 14 .cfa: sp 0 +
STACK CFI INIT 33f34 4 .cfa: sp 0 +
STACK CFI INIT 33f38 14 .cfa: sp 0 +
STACK CFI INIT 33f4c 4 .cfa: sp 0 +
STACK CFI INIT 33f50 4 .cfa: sp 0 +
STACK CFI INIT 33f54 24 .cfa: sp 0 +
STACK CFI 33f58 .cfa: sp 16 +
STACK CFI 33f5c .cfa: x29 16 + .ra: .cfa -8 + ^ x29: .cfa -16 + ^
STACK CFI 33f70 .cfa: sp 16 +
STACK CFI 33f74 .cfa: sp 0 +
STACK CFI INIT 33f78 10 .cfa: sp 0 +
STACK CFI INIT 33f88 4 .cfa: sp 0 +
STACK CFI INIT 33f8c 4 .cfa: sp 0 +
STACK CFI INIT 3406c 1c .cfa: sp 0 +
STACK CFI INIT 34088 c .cfa: sp 0 +
STACK CFI INIT 3421c 178 .cfa: sp 0 +
STACK CFI 34220 .cfa: sp 80 +
STACK CFI 34234 .cfa: x29 80 + x19: .cfa -8 + ^ x20: .cfa -16 + ^ x21: .cfa -24 + ^ x22: .cfa -32 + ^ x23: .cfa -40 + ^ x24: .cfa -48 + ^ x25: .cfa -56 + ^ x26: .cfa -64 + ^ .ra: .cfa -72 + ^ x29: .cfa -80 + ^
STACK CFI 3437c .cfa: sp 80 +
STACK CFI 34390 .cfa: sp 0 +
STACK CFI INIT 34394 1a8 .cfa: sp 0 +
STACK CFI INIT 34b98 1c .cfa: sp 0 +
STACK CFI INIT 34f70 4 .cfa: sp 0 +
STACK CFI INIT 35168 7c .cfa: sp 0 +
STACK CFI 3516c .cfa: sp 32 +
STACK CFI 35174 .cfa: x29 32 + x19: .cfa -8 + ^ x20: .cfa -16 + ^ .ra: .cfa -24 + ^ x29: .cfa -32 + ^
STACK CFI 351cc .cfa: sp 32 +
STACK CFI 351d4 .cfa: sp 0 +
STACK CFI 351d8 .cfa: sp 32 +
STACK CFI 351e0 .cfa: sp 0 +
STACK CFI INIT 3534c 4 .cfa: sp 0 +
STACK CFI INIT 35350 14 .cfa: sp 0 +
STACK CFI INIT 35830 14 .cfa: sp 0 +
STACK CFI 35834 .cfa: sp 16 +
STACK CFI 35838 .cfa: x29 16 + .ra: .cfa -8 + ^ x29: .cfa -16 + ^
STACK CFI INIT 35a00 84 .cfa: sp 0 +
STACK CFI 35a04 .cfa: sp 32 +
STACK CFI 35a0c .cfa: x29 32 + x19: .cfa -16 + ^ .ra: .cfa -24 + ^ x29: .cfa -32 + ^
STACK CFI 35a38 .cfa: sp 32 +
STACK CFI 35a40 .cfa: sp 0 +
STACK CFI 35a44 .cfa: x29 32 +
STACK CFI 35a78 .cfa: sp 32 +
STACK CFI 35a80 .cfa: sp 0 +
STACK CFI INIT 35b80 30 .cfa: sp 0 +
STACK CFI 35b8c .cfa: sp 32 +
STACK CFI 35b94 .cfa: x29 32 + x19: .cfa -16 + ^ .ra: .cfa -24 + ^ x29: .cfa -32 + ^
STACK CFI 35ba0 .cfa: sp 32 +
STACK CFI 35ba8 .cfa: sp 0 +
STACK CFI INIT 363dc 14 .cfa: sp 0 +
STACK CFI 363e0 .cfa: sp 16 +
STACK CFI 363e4 .cfa: x29 16 + .ra: .cfa -8 + ^ x29: .cfa -16 + ^
STACK CFI INIT 365b0 38 .cfa: sp 0 +
STACK CFI 365b4 .cfa: sp 32 +
STACK CFI 365bc .cfa: x29 32 + x19: .cfa -16 + ^ .ra: .cfa -24 + ^ x29: .cfa -32 + ^
STACK CFI 365d0 .cfa: sp 32 +
STACK CFI 365d8 .cfa: sp 0 +
STACK CFI 365dc .cfa: sp 32 +
STACK CFI 365e4 .cfa: sp 0 +
STACK CFI INIT 365e8 a0 .cfa: sp 0 +
STACK CFI 365f4 .cfa: sp 32 +
STACK CFI 365fc .cfa: x29 32 + x19: .cfa -8 + ^ x20: .cfa -16 + ^ .ra: .cfa -24 + ^ x29: .cfa -32 + ^
STACK CFI 3667c .cfa: sp 32 +
STACK CFI 36684 .cfa: sp 0 +
STACK CFI INIT 366c0 a0 .cfa: sp 0 +
STACK CFI 366cc .cfa: sp 32 +
STACK CFI 366d4 .cfa: x29 32 + x19: .cfa -8 + ^ x20: .cfa -16 + ^ .ra: .cfa -24 + ^ x29: .cfa -32 + ^
STACK CFI 36754 .cfa: sp 32 +
STACK CFI 3675c .cfa: sp 0 +
STACK CFI INIT 36760 b4 .cfa: sp 0 +
STACK CFI 36764 .cfa: sp 48 +
STACK CFI 36770 .cfa: x29 48 + x19: .cfa -8 + ^ x20: .cfa -16 + ^ x21: .cfa -32 + ^ .ra: .cfa -40 + ^ x29: .cfa -48 + ^
STACK CFI 36804 .cfa: sp 48 +
STACK CFI 36810 .cfa: sp 0 +
STACK CFI INIT 37310 4 .cfa: sp 0 +
STACK CFI INIT 37314 14 .cfa: sp 0 +
STACK CFI INIT 37328 4 .cfa: sp 0 +
STACK CFI INIT 3732c 14 .cfa: sp 0 +
STACK CFI INIT 37340 4 .cfa: sp 0 +
STACK CFI INIT 37344 14 .cfa: sp 0 +
STACK CFI INIT 37358 8 .cfa: sp 0 +
STACK CFI INIT 37360 14 .cfa: sp 0 +
STACK CFI INIT 37374 14 .cfa: sp 0 +
STACK CFI INIT 37388 14 .cfa: sp 0 +
STACK CFI INIT 3739c 4 .cfa: sp 0 +
STACK CFI INIT 373a0 14 .cfa: sp 0 +
STACK CFI INIT 375b0 84 .cfa: sp 0 +
STACK CFI 375b4 .cfa: sp 32 +
STACK CFI 375bc .cfa: x29 32 + x19: .cfa -16 + ^ .ra: .cfa -24 + ^ x29: .cfa -32 + ^
STACK CFI 375e8 .cfa: sp 32 +
STACK CFI 375f0 .cfa: sp 0 +
STACK CFI 375f4 .cfa: x29 32 +
STACK CFI 37628 .cfa: sp 32 +
STACK CFI 37630 .cfa: sp 0 +
STACK CFI INIT 37634 14 .cfa: sp 0 +
STACK CFI INIT 37788 44 .cfa: sp 0 +
STACK CFI 377a4 .cfa: sp 32 +
STACK CFI 377ac .cfa: x29 32 + x19: .cfa -16 + ^ .ra: .cfa -24 + ^ x29: .cfa -32 + ^
STACK CFI 377c0 .cfa: sp 32 +
STACK CFI 377c8 .cfa: sp 0 +
STACK CFI INIT 377cc ac .cfa: sp 0 +
STACK CFI 377d0 .cfa: sp 48 +
STACK CFI 377dc .cfa: x29 48 + x19: .cfa -8 + ^ x20: .cfa -16 + ^ x21: .cfa -32 + ^ .ra: .cfa -40 + ^ x29: .cfa -48 + ^
STACK CFI 377f4 .cfa: sp 48 +
STACK CFI 37800 .cfa: sp 0 +
STACK CFI 37804 .cfa: x29 48 +
STACK CFI INIT 37878 38 .cfa: sp 0 +
STACK CFI 37884 .cfa: sp 32 +
STACK CFI 3788c .cfa: x29 32 + x19: .cfa -16 + ^ .ra: .cfa -24 + ^ x29: .cfa -32 + ^
STACK CFI 378a0 .cfa: sp 32 +
STACK CFI 378a8 .cfa: sp 0 +
STACK CFI INIT 378b0 14 .cfa: sp 0 +
STACK CFI INIT 37a8c e0 .cfa: sp 0 +
STACK CFI 37a90 .cfa: sp 80 +
STACK CFI 37aa4 .cfa: x29 80 + x19: .cfa -8 + ^ x20: .cfa -16 + ^ x21: .cfa -24 + ^ x22: .cfa -32 + ^ x23: .cfa -40 + ^ x24: .cfa -48 + ^ x25: .cfa -56 + ^ x26: .cfa -64 + ^ .ra: .cfa -72 + ^ x29: .cfa -80 + ^
STACK CFI 37b34 .cfa: sp 80 +
STACK CFI 37b48 .cfa: sp 0 +
STACK CFI 37b4c .cfa: sp 80 +
STACK CFI 37b60 .cfa: sp 0 +
STACK CFI 37b64 .cfa: x29 80 +
STACK CFI INIT 37b6c 68 .cfa: sp 0 +
STACK CFI 37b70 .cfa: sp 48 +
STACK CFI 37b7c .cfa: x29 48 + x19: .cfa -8 + ^ x20: .cfa -16 + ^ x21: .cfa -32 + ^ .ra: .cfa -40 + ^ x29: .cfa -48 + ^
STACK CFI 37bb4 .cfa: sp 48 +
STACK CFI 37bc0 .cfa: sp 0 +
STACK CFI 37bc4 .cfa: sp 48 +
STACK CFI 37bd0 .cfa: sp 0 +
STACK CFI INIT 37bd4 14 .cfa: sp 0 +
STACK CFI 37bd8 .cfa: sp 16 +
STACK CFI 37bdc .cfa: x29 16 + .ra: .cfa -8 + ^ x29: .cfa -16 + ^
STACK CFI INIT 37be8 54 .cfa: sp 0 +
STACK CFI 37bec .cfa: sp 32 +
STACK CFI 37bf4 .cfa: x29 32 + x19: .cfa -8 + ^ x20: .cfa -16 + ^ .ra: .cfa -24 + ^ x29: .cfa -32 + ^
STACK CFI 37c24 .cfa: sp 32 +
STACK CFI 37c2c .cfa: sp 0 +
STACK CFI 37c30 .cfa: sp 32 +
STACK CFI 37c38 .cfa: sp 0 +
STACK CFI INIT 38bbc 3c .cfa: sp 0 +
STACK CFI 38bc0 .cfa: sp 32 +
STACK CFI 38bc8 .cfa: x29 32 + x19: .cfa -16 + ^ .ra: .cfa -24 + ^ x29: .cfa -32 + ^
STACK CFI 38bdc .cfa: sp 32 +
STACK CFI 38be4 .cfa: sp 0 +
STACK CFI 38be8 .cfa: x29 32 +
STACK CFI 38bec .cfa: sp 32 +
STACK CFI 38bf4 .cfa: sp 0 +
STACK CFI INIT 38d98 11c .cfa: sp 0 +
STACK CFI 38d9c .cfa: sp 80 +
STACK CFI 38db0 .cfa: x29 80 + x19: .cfa -8 + ^ x20: .cfa -16 + ^ x21: .cfa -24 + ^ x22: .cfa -32 + ^ x23: .cfa -40 + ^ x24: .cfa -48 + ^ x25: .cfa -56 + ^ x26: .cfa -64 + ^ .ra: .cfa -72 + ^ x29: .cfa -80 + ^
STACK CFI 38e90 .cfa: sp 80 +
STACK CFI 38ea4 .cfa: sp 0 +
STACK CFI 38ea8 .cfa: x29 80 +
STACK CFI INIT 39510 1c .cfa: sp 0 +
STACK CFI INIT 398a0 4 .cfa: sp 0 +
STACK CFI INIT 39e54 240 .cfa: sp 0 +
STACK CFI INIT 3a504 1c .cfa: sp 0 +
STACK CFI INIT 3ab7c 1c .cfa: sp 0 +
STACK CFI INIT 3af0c 4 .cfa: sp 0 +
STACK CFI INIT 3af60 30 .cfa: sp 0 +
STACK CFI 3af64 .cfa: sp 32 +
STACK CFI 3af6c .cfa: x29 32 + x19: .cfa -16 + ^ .ra: .cfa -24 + ^ x29: .cfa -32 + ^
STACK CFI 3af84 .cfa: sp 32 +
STACK CFI 3af8c .cfa: sp 0 +
STACK CFI INIT 3af90 50 .cfa: sp 0 +
STACK CFI 3af94 .cfa: sp 32 +
STACK CFI 3af9c .cfa: x29 32 + x19: .cfa -8 + ^ x20: .cfa -16 + ^ .ra: .cfa -24 + ^ x29: .cfa -32 + ^
STACK CFI 3afd4 .cfa: sp 32 +
STACK CFI 3afdc .cfa: sp 0 +
STACK CFI INIT 3b4a4 4 .cfa: sp 0 +
STACK CFI INIT 3b4a8 14 .cfa: sp 0 +
STACK CFI 3b4ac .cfa: sp 16 +
STACK CFI 3b4b0 .cfa: x29 16 + .ra: .cfa -8 + ^ x29: .cfa -16 + ^
STACK CFI INIT 3b6d8 14 .cfa: sp 0 +
STACK CFI 3b6dc .cfa: sp 16 +
STACK CFI 3b6e0 .cfa: x29 16 + .ra: .cfa -8 + ^ x29: .cfa -16 + ^
STACK CFI INIT 3b6ec c .cfa: sp 0 +
STACK CFI 3b6f0 .cfa: sp 16 +
STACK CFI 3b6f4 .cfa: x29 16 + .ra: .cfa -8 + ^ x29: .cfa -16 + ^
STACK CFI INIT 3b6f8 c .cfa: sp 0 +
STACK CFI 3b6fc .cfa: sp 16 +
STACK CFI 3b700 .cfa: x29 16 + .ra: .cfa -8 + ^ x29: .cfa -16 + ^
STACK CFI INIT 3b704 4 .cfa: sp 0 +
STACK CFI INIT 3b708 4 .cfa: sp 0 +
STACK CFI INIT 3b70c 38 .cfa: sp 0 +
STACK CFI 3b710 .cfa: sp 32 +
STACK CFI 3b718 .cfa: x29 32 + x19: .cfa -16 + ^ .ra: .cfa -24 + ^ x29: .cfa -32 + ^
STACK CFI 3b738 .cfa: sp 32 +
STACK CFI 3b740 .cfa: sp 0 +
STACK CFI INIT 3b744 18 .cfa: sp 0 +
STACK CFI INIT 3b75c 4 .cfa: sp 0 +
STACK CFI INIT 3b760 4 .cfa: sp 0 +
STACK CFI INIT 3b764 10 .cfa: sp 0 +
STACK CFI INIT 3b774 1c .cfa: sp 0 +
STACK CFI INIT 3b790 c .cfa: sp 0 +
STACK CFI INIT 3bac0 4 .cfa: sp 0 +
STACK CFI INIT 3de14 40 .cfa: sp 0 +
STACK CFI 3de2c .cfa: sp 32 +
STACK CFI 3de34 .cfa: x29 32 + x19: .cfa -16 + ^ .ra: .cfa -24 + ^ x29: .cfa -32 + ^
STACK CFI 3de48 .cfa: sp 32 +
STACK CFI 3de50 .cfa: sp 0 +
STACK CFI INIT 3de54 44 .cfa: sp 0 +
STACK CFI 3de58 .cfa: sp 32 +
STACK CFI 3de60 .cfa: x29 32 + x19: .cfa -16 + ^ .ra: .cfa -24 + ^ x29: .cfa -32 + ^
STACK CFI 3de8c .cfa: sp 32 +
STACK CFI 3de94 .cfa: sp 0 +
STACK CFI INIT 3de98 154 .cfa: sp 0 +
STACK CFI 3de9c .cfa: sp 64 +
STACK CFI 3deac .cfa: x29 64 + x19: .cfa -8 + ^ x20: .cfa -16 + ^ x21: .cfa -24 + ^ x22: .cfa -32 + ^ x23: .cfa -48 + ^ .ra: .cfa -56 + ^ x29: .cfa -64 + ^
STACK CFI 3dedc .cfa: sp 64 +
STACK CFI 3deec .cfa: sp 0 +
STACK CFI 3def0 .cfa: x29 64 +
STACK CFI 3dfcc .cfa: sp 64 +
STACK CFI 3dfdc .cfa: sp 0 +
STACK CFI 3dfe0 .cfa: x29 64 +
STACK CFI INIT 3dfec 78 .cfa: sp 0 +
STACK CFI 3dff0 .cfa: sp 48 +
STACK CFI 3dffc .cfa: x29 48 + x19: .cfa -8 + ^ x20: .cfa -16 + ^ x21: .cfa -24 + ^ x22: .cfa -32 + ^ .ra: .cfa -40 + ^ x29: .cfa -48 + ^
STACK CFI 3e044 .cfa: sp 48 +
STACK CFI 3e050 .cfa: sp 0 +
STACK CFI 3e054 .cfa: sp 48 +
STACK CFI 3e060 .cfa: sp 0 +
STACK CFI INIT 3e064 344 .cfa: sp 0 +
STACK CFI 3e068 .cfa: sp 256 +
STACK CFI 3e084 .cfa: x29 96 + x19: .cfa -8 + ^ x20: .cfa -16 + ^ x21: .cfa -24 + ^ x22: .cfa -32 + ^ x23: .cfa -40 + ^ x24: .cfa -48 + ^ x25: .cfa -56 + ^ x26: .cfa -64 + ^ x27: .cfa -72 + ^ x28: .cfa -80 + ^ .ra: .cfa -88 + ^ x29: .cfa -96 + ^
STACK CFI 3e384 .cfa: sp 256 +
STACK CFI 3e3a0 .cfa: sp 0 +
STACK CFI 3e3a4 .cfa: x29 96 +
STACK CFI INIT 3e3a8 114 .cfa: sp 0 +
STACK CFI 3e3ac .cfa: sp 128 +
STACK CFI 3e3bc .cfa: x29 48 + x19: .cfa -8 + ^ x20: .cfa -16 + ^ x21: .cfa -32 + ^ .ra: .cfa -40 + ^ x29: .cfa -48 + ^
STACK CFI 3e488 .cfa: sp 128 +
STACK CFI 3e498 .cfa: sp 0 +
STACK CFI 3e49c .cfa: x29 48 +
STACK CFI INIT 3e4bc 114 .cfa: sp 0 +
STACK CFI 3e4c0 .cfa: sp 128 +
STACK CFI 3e4d0 .cfa: x29 48 + x19: .cfa -8 + ^ x20: .cfa -16 + ^ x21: .cfa -32 + ^ .ra: .cfa -40 + ^ x29: .cfa -48 + ^
STACK CFI 3e59c .cfa: sp 128 +
STACK CFI 3e5ac .cfa: sp 0 +
STACK CFI 3e5b0 .cfa: x29 48 +
STACK CFI INIT 3e5d0 27c .cfa: sp 0 +
STACK CFI 3e5d4 .cfa: sp 176 +
STACK CFI 3e5f0 .cfa: x29 96 + x19: .cfa -8 + ^ x20: .cfa -16 + ^ x21: .cfa -24 + ^ x22: .cfa -32 + ^ x23: .cfa -40 + ^ x24: .cfa -48 + ^ x25: .cfa -56 + ^ x26: .cfa -64 + ^ x27: .cfa -72 + ^ x28: .cfa -80 + ^ .ra: .cfa -88 + ^ x29: .cfa -96 + ^
STACK CFI 3e828 .cfa: sp 176 +
STACK CFI 3e844 .cfa: sp 0 +
STACK CFI 3e848 .cfa: x29 96 +
STACK CFI INIT 3e84c 4e4 .cfa: sp 0 +
STACK CFI 3e850 .cfa: sp 160 +
STACK CFI 3e86c .cfa: x29 96 + x19: .cfa -8 + ^ x20: .cfa -16 + ^ x21: .cfa -24 + ^ x22: .cfa -32 + ^ x23: .cfa -40 + ^ x24: .cfa -48 + ^ x25: .cfa -56 + ^ x26: .cfa -64 + ^ x27: .cfa -72 + ^ x28: .cfa -80 + ^ .ra: .cfa -88 + ^ x29: .cfa -96 + ^
STACK CFI 3ed0c .cfa: sp 160 +
STACK CFI 3ed28 .cfa: sp 0 +
STACK CFI 3ed2c .cfa: x29 96 +
STACK CFI INIT 3ed30 20c .cfa: sp 0 +
STACK CFI 3ed34 .cfa: sp 80 +
STACK CFI 3ed48 .cfa: x29 80 + x19: .cfa -8 + ^ x20: .cfa -16 + ^ x21: .cfa -24 + ^ x22: .cfa -32 + ^ x23: .cfa -40 + ^ x24: .cfa -48 + ^ x25: .cfa -64 + ^ .ra: .cfa -72 + ^ x29: .cfa -80 + ^
STACK CFI 3edd8 .cfa: sp 80 +
STACK CFI 3edec .cfa: sp 0 +
STACK CFI 3edf0 .cfa: x29 80 +
STACK CFI 3edfc .cfa: sp 80 +
STACK CFI 3ee10 .cfa: sp 0 +
STACK CFI 3ee14 .cfa: x29 80 +
STACK CFI INIT 3ef3c 3f4 .cfa: sp 0 +
STACK CFI 3ef40 .cfa: sp 128 +
STACK CFI 3ef5c .cfa: x29 96 + x19: .cfa -8 + ^ x20: .cfa -16 + ^ x21: .cfa -24 + ^ x22: .cfa -32 + ^ x23: .cfa -40 + ^ x24: .cfa -48 + ^ x25: .cfa -56 + ^ x26: .cfa -64 + ^ x27: .cfa -72 + ^ x28: .cfa -80 + ^ .ra: .cfa -88 + ^ x29: .cfa -96 + ^
STACK CFI 3f30c .cfa: sp 128 +
STACK CFI 3f328 .cfa: sp 0 +
STACK CFI 3f32c .cfa: x29 96 +
STACK CFI INIT 3f330 194 .cfa: sp 0 +
STACK CFI 3f334 .cfa: sp 32 +
STACK CFI 3f33c .cfa: x29 16 + .ra: .cfa -8 + ^ x29: .cfa -16 + ^
STACK CFI 3f380 .cfa: sp 32 +
STACK CFI 3f388 .cfa: sp 0 +
STACK CFI 3f38c .cfa: x29 16 +
STACK CFI INIT 3f4c4 1b8 .cfa: sp 0 +
STACK CFI INIT 3f67c 1d0 .cfa: sp 0 +
STACK CFI 3f680 .cfa: sp 80 +
STACK CFI 3f694 .cfa: x29 80 + x19: .cfa -8 + ^ x20: .cfa -16 + ^ x21: .cfa -24 + ^ x22: .cfa -32 + ^ x23: .cfa -40 + ^ x24: .cfa -48 + ^ x25: .cfa -64 + ^ .ra: .cfa -72 + ^ x29: .cfa -80 + ^
STACK CFI 3f834 .cfa: sp 80 +
STACK CFI 3f848 .cfa: sp 0 +
STACK CFI INIT 3f84c 648 .cfa: sp 0 +
STACK CFI 3f850 .cfa: sp 160 +
STACK CFI 3f86c .cfa: x29 96 + x19: .cfa -8 + ^ x20: .cfa -16 + ^ x21: .cfa -24 + ^ x22: .cfa -32 + ^ x23: .cfa -40 + ^ x24: .cfa -48 + ^ x25: .cfa -56 + ^ x26: .cfa -64 + ^ x27: .cfa -72 + ^ x28: .cfa -80 + ^ .ra: .cfa -88 + ^ x29: .cfa -96 + ^
STACK CFI 3fe70 .cfa: sp 160 +
STACK CFI 3fe8c .cfa: sp 0 +
STACK CFI 3fe90 .cfa: x29 96 +
STACK CFI INIT 3fe94 1e4 .cfa: sp 0 +
STACK CFI 3fe98 .cfa: sp 32 +
STACK CFI 3fea0 .cfa: x29 32 + x19: .cfa -8 + ^ x20: .cfa -16 + ^ .ra: .cfa -24 + ^ x29: .cfa -32 + ^
STACK CFI 3ff90 .cfa: sp 32 +
STACK CFI 3ff98 .cfa: sp 0 +
STACK CFI 3ff9c .cfa: x29 32 +
STACK CFI 40010 .cfa: sp 32 +
STACK CFI 40018 .cfa: sp 0 +
STACK CFI 4001c .cfa: x29 32 +
STACK CFI 4002c .cfa: sp 32 +
STACK CFI 40034 .cfa: sp 0 +
STACK CFI 40038 .cfa: x29 32 +
STACK CFI 40048 .cfa: sp 32 +
STACK CFI 40050 .cfa: sp 0 +
STACK CFI 40054 .cfa: x29 32 +
STACK CFI INIT 40078 178 .cfa: sp 0 +
STACK CFI 4007c .cfa: sp 80 +
STACK CFI 40090 .cfa: x29 64 + x19: .cfa -8 + ^ x20: .cfa -16 + ^ x21: .cfa -24 + ^ x22: .cfa -32 + ^ x23: .cfa -40 + ^ x24: .cfa -48 + ^ .ra: .cfa -56 + ^ x29: .cfa -64 + ^
STACK CFI 401d4 .cfa: sp 80 +
STACK CFI 401e8 .cfa: sp 0 +
STACK CFI 401ec .cfa: x29 64 +
STACK CFI INIT 401f0 178 .cfa: sp 0 +
STACK CFI 401f4 .cfa: sp 80 +
STACK CFI 40208 .cfa: x29 64 + x19: .cfa -8 + ^ x20: .cfa -16 + ^ x21: .cfa -24 + ^ x22: .cfa -32 + ^ x23: .cfa -40 + ^ x24: .cfa -48 + ^ .ra: .cfa -56 + ^ x29: .cfa -64 + ^
STACK CFI 4034c .cfa: sp 80 +
STACK CFI 40360 .cfa: sp 0 +
STACK CFI 40364 .cfa: x29 64 +
STACK CFI INIT 40368 178 .cfa: sp 0 +
STACK CFI 4036c .cfa: sp 80 +
STACK CFI 40380 .cfa: x29 64 + x19: .cfa -8 + ^ x20: .cfa -16 + ^ x21: .cfa -24 + ^ x22: .cfa -32 + ^ x23: .cfa -40 + ^ x24: .cfa -48 + ^ .ra: .cfa -56 + ^ x29: .cfa -64 + ^
STACK CFI 404c4 .cfa: sp 80 +
STACK CFI 404d8 .cfa: sp 0 +
STACK CFI 404dc .cfa: x29 64 +
STACK CFI INIT 404e0 94 .cfa: sp 0 +
STACK CFI 404e4 .cfa: sp 16 +
STACK CFI 404e8 .cfa: x29 16 + .ra: .cfa -8 + ^ x29: .cfa -16 + ^
STACK CFI 4053c .cfa: sp 16 +
STACK CFI 40540 .cfa: sp 0 +
STACK CFI 40544 .cfa: x29 16 +
STACK CFI INIT 40574 134 .cfa: sp 0 +
STACK CFI 40578 .cfa: sp 96 +
STACK CFI 40590 .cfa: x29 96 + x19: .cfa -8 + ^ x20: .cfa -16 + ^ x21: .cfa -24 + ^ x22: .cfa -32 + ^ x23: .cfa -40 + ^ x24: .cfa -48 + ^ x25: .cfa -56 + ^ x26: .cfa -64 + ^ x27: .cfa -72 + ^ x28: .cfa -80 + ^ .ra: .cfa -88 + ^ x29: .cfa -96 + ^
STACK CFI 40660 .cfa: sp 96 +
STACK CFI 40664 .cfa: x29 96 +
STACK CFI 40668 .cfa: sp 96 +
STACK CFI 40680 .cfa: sp 0 +
STACK CFI 40684 .cfa: x29 96 +
STACK CFI 406a4 .cfa: sp 96 +
STACK CFI INIT 406a8 94 .cfa: sp 0 +
STACK CFI 406ac .cfa: sp 16 +
STACK CFI 406b0 .cfa: x29 16 + .ra: .cfa -8 + ^ x29: .cfa -16 + ^
STACK CFI 40704 .cfa: sp 16 +
STACK CFI 40708 .cfa: sp 0 +
STACK CFI 4070c .cfa: x29 16 +
STACK CFI INIT 41550 98 .cfa: sp 0 +
STACK CFI 41554 .cfa: sp 304 +
STACK CFI 41560 .cfa: x29 32 + x19: .cfa -8 + ^ x28: .cfa -16 + ^ .ra: .cfa -24 + ^ x29: .cfa -32 + ^
STACK CFI 415d4 .cfa: sp 304 +
STACK CFI 415e0 .cfa: sp 0 +
STACK CFI 415e4 .cfa: x29 32 +
STACK CFI INIT 415e8 ac .cfa: sp 0 +
STACK CFI 415ec .cfa: sp 64 +
STACK CFI 415fc .cfa: x29 64 + x19: .cfa -8 + ^ x20: .cfa -16 + ^ x21: .cfa -24 + ^ x22: .cfa -32 + ^ x23: .cfa -48 + ^ .ra: .cfa -56 + ^ x29: .cfa -64 + ^
STACK CFI 41678 .cfa: sp 64 +
STACK CFI 41688 .cfa: sp 0 +
STACK CFI 4168c .cfa: x29 64 +
STACK CFI INIT 41694 13c .cfa: sp 0 +
STACK CFI 41698 .cfa: sp 64 +
STACK CFI 416a8 .cfa: x29 64 + x19: .cfa -8 + ^ x20: .cfa -16 + ^ x21: .cfa -24 + ^ x22: .cfa -32 + ^ x23: .cfa -40 + ^ x24: .cfa -48 + ^ .ra: .cfa -56 + ^ x29: .cfa -64 + ^
STACK CFI 41788 .cfa: sp 64 +
STACK CFI 41798 .cfa: sp 0 +
STACK CFI 4179c .cfa: x29 64 +
STACK CFI INIT 417d0 8 .cfa: sp 0 +
STACK CFI INIT 417d8 9c .cfa: sp 0 +
STACK CFI 417dc .cfa: sp 32 +
STACK CFI 417e4 .cfa: x29 32 + x19: .cfa -16 + ^ .ra: .cfa -24 + ^ x29: .cfa -32 + ^
STACK CFI 41820 .cfa: sp 32 +
STACK CFI 41828 .cfa: sp 0 +
STACK CFI 4182c .cfa: x29 32 +
STACK CFI 41868 .cfa: sp 32 +
STACK CFI 41870 .cfa: sp 0 +
STACK CFI INIT 41874 ac .cfa: sp 0 +
STACK CFI 41878 .cfa: sp 32 +
STACK CFI 41880 .cfa: x29 32 + x19: .cfa -16 + ^ .ra: .cfa -24 + ^ x29: .cfa -32 + ^
STACK CFI 418c4 .cfa: sp 32 +
STACK CFI 418cc .cfa: sp 0 +
STACK CFI 418d0 .cfa: x29 32 +
STACK CFI 41914 .cfa: sp 32 +
STACK CFI 4191c .cfa: sp 0 +
STACK CFI INIT 42a2c 104 .cfa: sp 0 +
STACK CFI 42a30 .cfa: sp 96 +
STACK CFI 42a44 .cfa: x29 48 + x19: .cfa -8 + ^ x20: .cfa -16 + ^ x21: .cfa -24 + ^ x22: .cfa -32 + ^ .ra: .cfa -40 + ^ x29: .cfa -48 + ^ v8: .cfa -64 + ^
STACK CFI 42b14 .cfa: sp 96 +
STACK CFI 42b28 .cfa: sp 0 +
STACK CFI 42b2c .cfa: x29 48 +
STACK CFI INIT 42ba4 9c .cfa: sp 0 +
STACK CFI 42ba8 .cfa: sp 32 +
STACK CFI 42bb0 .cfa: x29 32 + x19: .cfa -16 + ^ .ra: .cfa -24 + ^ x29: .cfa -32 + ^
STACK CFI 42bec .cfa: sp 32 +
STACK CFI 42bf4 .cfa: sp 0 +
STACK CFI 42bf8 .cfa: x29 32 +
STACK CFI 42c34 .cfa: sp 32 +
STACK CFI 42c3c .cfa: sp 0 +
STACK CFI INIT 42c40 ac .cfa: sp 0 +
STACK CFI 42c44 .cfa: sp 32 +
STACK CFI 42c4c .cfa: x29 32 + x19: .cfa -16 + ^ .ra: .cfa -24 + ^ x29: .cfa -32 + ^
STACK CFI 42c90 .cfa: sp 32 +
STACK CFI 42c98 .cfa: sp 0 +
STACK CFI 42c9c .cfa: x29 32 +
STACK CFI 42ce0 .cfa: sp 32 +
STACK CFI 42ce8 .cfa: sp 0 +
STACK CFI INIT 42f74 14 .cfa: sp 0 +
STACK CFI 42f78 .cfa: sp 16 +
STACK CFI 42f7c .cfa: x29 16 + .ra: .cfa -8 + ^ x29: .cfa -16 + ^
STACK CFI INIT 43690 14 .cfa: sp 0 +
STACK CFI INIT 436a4 14 .cfa: sp 0 +
STACK CFI INIT 4441c 18c .cfa: sp 0 +
STACK CFI 4442c .cfa: sp 80 +
STACK CFI 44440 .cfa: x29 80 + x19: .cfa -8 + ^ x20: .cfa -16 + ^ x21: .cfa -24 + ^ x22: .cfa -32 + ^ x23: .cfa -40 + ^ x24: .cfa -48 + ^ x25: .cfa -56 + ^ x26: .cfa -64 + ^ .ra: .cfa -72 + ^ x29: .cfa -80 + ^
STACK CFI 44590 .cfa: sp 80 +
STACK CFI 445a4 .cfa: sp 0 +
STACK CFI INIT 445a8 1a4 .cfa: sp 0 +
STACK CFI 445b8 .cfa: sp 80 +
STACK CFI 445cc .cfa: x29 80 + x19: .cfa -8 + ^ x20: .cfa -16 + ^ x21: .cfa -24 + ^ x22: .cfa -32 + ^ x23: .cfa -40 + ^ x24: .cfa -48 + ^ x25: .cfa -64 + ^ .ra: .cfa -72 + ^ x29: .cfa -80 + ^
STACK CFI 44734 .cfa: sp 80 +
STACK CFI 44748 .cfa: sp 0 +
STACK CFI INIT 45570 50 .cfa: sp 0 +
STACK CFI 45574 .cfa: sp 32 +
STACK CFI 4557c .cfa: x29 32 + x19: .cfa -16 + ^ .ra: .cfa -24 + ^ x29: .cfa -32 + ^
STACK CFI 45594 .cfa: sp 32 +
STACK CFI 4559c .cfa: sp 0 +
STACK CFI 455a0 .cfa: x29 32 +
STACK CFI 455b4 .cfa: sp 32 +
STACK CFI 455bc .cfa: sp 0 +
STACK CFI INIT 45984 24 .cfa: sp 0 +
STACK CFI 45988 .cfa: sp 32 +
STACK CFI 45990 .cfa: x29 32 + x19: .cfa -16 + ^ .ra: .cfa -24 + ^ x29: .cfa -32 + ^
STACK CFI 4599c .cfa: sp 32 +
STACK CFI 459a4 .cfa: sp 0 +
STACK CFI INIT 459a8 2c .cfa: sp 0 +
STACK CFI 459ac .cfa: sp 32 +
STACK CFI 459b4 .cfa: x29 32 + x19: .cfa -16 + ^ .ra: .cfa -24 + ^ x29: .cfa -32 + ^
STACK CFI 459c8 .cfa: sp 32 +
STACK CFI 459d0 .cfa: sp 0 +
STACK CFI INIT 459d4 28 .cfa: sp 0 +
STACK CFI INIT 459fc 4 .cfa: sp 0 +
STACK CFI INIT 45a00 8 .cfa: sp 0 +
STACK CFI INIT 45b3c 8 .cfa: sp 0 +
STACK CFI INIT 45b44 28 .cfa: sp 0 +
STACK CFI 45b48 .cfa: sp 32 +
STACK CFI 45b50 .cfa: x29 32 + x19: .cfa -16 + ^ .ra: .cfa -24 + ^ x29: .cfa -32 + ^
STACK CFI 45b60 .cfa: sp 32 +
STACK CFI 45b68 .cfa: sp 0 +
STACK CFI INIT 45b6c 2c .cfa: sp 0 +
STACK CFI INIT 45b98 4 .cfa: sp 0 +
STACK CFI INIT 45b9c 4 .cfa: sp 0 +
STACK CFI INIT 45ba0 4 .cfa: sp 0 +
STACK CFI INIT 45ba4 4 .cfa: sp 0 +
STACK CFI INIT 45ba8 4 .cfa: sp 0 +
STACK CFI INIT 45bac 8 .cfa: sp 0 +
STACK CFI INIT 45c20 4 .cfa: sp 0 +
STACK CFI INIT 45c90 4 .cfa: sp 0 +
STACK CFI INIT 45c94 8c .cfa: sp 0 +
STACK CFI 45c98 .cfa: sp 48 +
STACK CFI 45ca4 .cfa: x29 48 + x19: .cfa -8 + ^ x20: .cfa -16 + ^ x21: .cfa -24 + ^ x22: .cfa -32 + ^ .ra: .cfa -40 + ^ x29: .cfa -48 + ^
STACK CFI 45cac .cfa: sp 48 +
STACK CFI 45cb8 .cfa: sp 0 +
STACK CFI 45cbc .cfa: x29 48 +
STACK CFI 45d10 .cfa: sp 48 +
STACK CFI 45d1c .cfa: sp 0 +
STACK CFI INIT 45d20 104 .cfa: sp 0 +
STACK CFI 45d24 .cfa: sp 64 +
STACK CFI 45d34 .cfa: x29 64 + x19: .cfa -8 + ^ x20: .cfa -16 + ^ x21: .cfa -24 + ^ x22: .cfa -32 + ^ x23: .cfa -48 + ^ .ra: .cfa -56 + ^ x29: .cfa -64 + ^
STACK CFI 45d90 .cfa: sp 64 +
STACK CFI 45da0 .cfa: sp 0 +
STACK CFI 45da4 .cfa: x29 64 +
STACK CFI 45dc0 .cfa: sp 64 +
STACK CFI 45dd0 .cfa: sp 0 +
STACK CFI 45dd4 .cfa: x29 64 +
STACK CFI 45e10 .cfa: sp 64 +
STACK CFI 45e20 .cfa: sp 0 +
STACK CFI INIT 45fbc 4 .cfa: sp 0 +
STACK CFI INIT 45fc0 38 .cfa: sp 0 +
STACK CFI 45fc4 .cfa: sp 32 +
STACK CFI 45fcc .cfa: x29 32 + x19: .cfa -16 + ^ .ra: .cfa -24 + ^ x29: .cfa -32 + ^
STACK CFI 45fec .cfa: sp 32 +
STACK CFI 45ff4 .cfa: sp 0 +
STACK CFI INIT 45ff8 18 .cfa: sp 0 +
STACK CFI INIT 46010 4 .cfa: sp 0 +
STACK CFI INIT 46014 4 .cfa: sp 0 +
STACK CFI INIT 46cb0 1c .cfa: sp 0 +
STACK CFI INIT 46ccc c .cfa: sp 0 +
STACK CFI INIT 46dc0 8 .cfa: sp 0 +
STACK CFI INIT 46dc8 14 .cfa: sp 0 +
STACK CFI INIT 472a4 50 .cfa: sp 0 +
STACK CFI 472a8 .cfa: sp 32 +
STACK CFI 472b0 .cfa: x29 32 + x19: .cfa -16 + ^ .ra: .cfa -24 + ^ x29: .cfa -32 + ^
STACK CFI 472c8 .cfa: sp 32 +
STACK CFI 472d0 .cfa: sp 0 +
STACK CFI 472d4 .cfa: x29 32 +
STACK CFI 472e8 .cfa: sp 32 +
STACK CFI 472f0 .cfa: sp 0 +
STACK CFI INIT 472f4 50 .cfa: sp 0 +
STACK CFI 472f8 .cfa: sp 32 +
STACK CFI 47300 .cfa: x29 32 + x19: .cfa -16 + ^ .ra: .cfa -24 + ^ x29: .cfa -32 + ^
STACK CFI 47318 .cfa: sp 32 +
STACK CFI 47320 .cfa: sp 0 +
STACK CFI 47324 .cfa: x29 32 +
STACK CFI 47338 .cfa: sp 32 +
STACK CFI 47340 .cfa: sp 0 +
STACK CFI INIT 47344 60 .cfa: sp 0 +
STACK CFI 47348 .cfa: sp 32 +
STACK CFI 47350 .cfa: x29 32 + x19: .cfa -16 + ^ .ra: .cfa -24 + ^ x29: .cfa -32 + ^
STACK CFI 47378 .cfa: sp 32 +
STACK CFI 47380 .cfa: sp 0 +
STACK CFI 47384 .cfa: x29 32 +
STACK CFI 47398 .cfa: sp 32 +
STACK CFI 473a0 .cfa: sp 0 +
STACK CFI INIT 473a4 70 .cfa: sp 0 +
STACK CFI 473a8 .cfa: sp 32 +
STACK CFI 473b0 .cfa: x29 32 + x19: .cfa -8 + ^ x20: .cfa -16 + ^ .ra: .cfa -24 + ^ x29: .cfa -32 + ^
STACK CFI 473e0 .cfa: sp 32 +
STACK CFI 473e8 .cfa: sp 0 +
STACK CFI 473ec .cfa: x29 32 +
STACK CFI 47408 .cfa: sp 32 +
STACK CFI 47410 .cfa: sp 0 +
STACK CFI INIT 47414 5c .cfa: sp 0 +
STACK CFI 47418 .cfa: sp 32 +
STACK CFI 47420 .cfa: x29 32 + x19: .cfa -8 + ^ x20: .cfa -16 + ^ .ra: .cfa -24 + ^ x29: .cfa -32 + ^
STACK CFI 47464 .cfa: sp 32 +
STACK CFI 4746c .cfa: sp 0 +
STACK CFI INIT 47470 50 .cfa: sp 0 +
STACK CFI 47474 .cfa: sp 32 +
STACK CFI 4747c .cfa: x29 32 + x19: .cfa -8 + ^ x20: .cfa -16 + ^ .ra: .cfa -24 + ^ x29: .cfa -32 + ^
STACK CFI 474b4 .cfa: sp 32 +
STACK CFI 474bc .cfa: sp 0 +
STACK CFI INIT 474c0 50 .cfa: sp 0 +
STACK CFI 474c4 .cfa: sp 32 +
STACK CFI 474cc .cfa: x29 32 + x19: .cfa -16 + ^ .ra: .cfa -24 + ^ x29: .cfa -32 + ^
STACK CFI 474e4 .cfa: sp 32 +
STACK CFI 474ec .cfa: sp 0 +
STACK CFI 474f0 .cfa: x29 32 +
STACK CFI 47504 .cfa: sp 32 +
STACK CFI 4750c .cfa: sp 0 +
STACK CFI INIT 47510 60 .cfa: sp 0 +
STACK CFI 47514 .cfa: sp 32 +
STACK CFI 4751c .cfa: x29 32 + x19: .cfa -8 + ^ x20: .cfa -16 + ^ .ra: .cfa -24 + ^ x29: .cfa -32 + ^
STACK CFI 4753c .cfa: sp 32 +
STACK CFI 47544 .cfa: sp 0 +
STACK CFI 47548 .cfa: x29 32 +
STACK CFI 47564 .cfa: sp 32 +
STACK CFI 4756c .cfa: sp 0 +
STACK CFI INIT 47570 8 .cfa: sp 0 +
STACK CFI INIT 47578 1c .cfa: sp 0 +
STACK CFI INIT 47594 c .cfa: sp 0 +
STACK CFI INIT 47740 60 .cfa: sp 0 +
STACK CFI 47744 .cfa: sp 32 +
STACK CFI 4774c .cfa: x29 32 + x19: .cfa -8 + ^ x20: .cfa -16 + ^ .ra: .cfa -24 + ^ x29: .cfa -32 + ^
STACK CFI 4776c .cfa: sp 32 +
STACK CFI 47774 .cfa: sp 0 +
STACK CFI 47778 .cfa: x29 32 +
STACK CFI 47794 .cfa: sp 32 +
STACK CFI 4779c .cfa: sp 0 +
STACK CFI INIT 477a0 70 .cfa: sp 0 +
STACK CFI 477a4 .cfa: sp 32 +
STACK CFI 477ac .cfa: x29 32 + x19: .cfa -8 + ^ x20: .cfa -16 + ^ .ra: .cfa -24 + ^ x29: .cfa -32 + ^
STACK CFI 477d4 .cfa: sp 32 +
STACK CFI 477dc .cfa: sp 0 +
STACK CFI 477e0 .cfa: x29 32 +
STACK CFI 47804 .cfa: sp 32 +
STACK CFI 4780c .cfa: sp 0 +
STACK CFI INIT 47810 60 .cfa: sp 0 +
STACK CFI 47814 .cfa: sp 32 +
STACK CFI 4781c .cfa: x29 32 + x19: .cfa -16 + ^ .ra: .cfa -24 + ^ x29: .cfa -32 + ^
STACK CFI 47844 .cfa: sp 32 +
STACK CFI 4784c .cfa: sp 0 +
STACK CFI 47850 .cfa: x29 32 +
STACK CFI 47864 .cfa: sp 32 +
STACK CFI 4786c .cfa: sp 0 +
STACK CFI INIT 47870 70 .cfa: sp 0 +
STACK CFI 47874 .cfa: sp 32 +
STACK CFI 4787c .cfa: x29 32 + x19: .cfa -8 + ^ x20: .cfa -16 + ^ .ra: .cfa -24 + ^ x29: .cfa -32 + ^
STACK CFI 478ac .cfa: sp 32 +
STACK CFI 478b4 .cfa: sp 0 +
STACK CFI 478b8 .cfa: x29 32 +
STACK CFI 478d4 .cfa: sp 32 +
STACK CFI 478dc .cfa: sp 0 +
STACK CFI INIT 478e0 5c .cfa: sp 0 +
STACK CFI 478e4 .cfa: sp 32 +
STACK CFI 478ec .cfa: x29 32 + x19: .cfa -8 + ^ x20: .cfa -16 + ^ .ra: .cfa -24 + ^ x29: .cfa -32 + ^
STACK CFI 47930 .cfa: sp 32 +
STACK CFI 47938 .cfa: sp 0 +
STACK CFI INIT 4793c 50 .cfa: sp 0 +
STACK CFI 47940 .cfa: sp 32 +
STACK CFI 47948 .cfa: x29 32 + x19: .cfa -8 + ^ x20: .cfa -16 + ^ .ra: .cfa -24 + ^ x29: .cfa -32 + ^
STACK CFI 47980 .cfa: sp 32 +
STACK CFI 47988 .cfa: sp 0 +
STACK CFI INIT 4798c 50 .cfa: sp 0 +
STACK CFI 47990 .cfa: sp 32 +
STACK CFI 47998 .cfa: x29 32 + x19: .cfa -16 + ^ .ra: .cfa -24 + ^ x29: .cfa -32 + ^
STACK CFI 479b0 .cfa: sp 32 +
STACK CFI 479b8 .cfa: sp 0 +
STACK CFI 479bc .cfa: x29 32 +
STACK CFI 479d0 .cfa: sp 32 +
STACK CFI 479d8 .cfa: sp 0 +
STACK CFI INIT 479dc 60 .cfa: sp 0 +
STACK CFI 479e0 .cfa: sp 32 +
STACK CFI 479e8 .cfa: x29 32 + x19: .cfa -8 + ^ x20: .cfa -16 + ^ .ra: .cfa -24 + ^ x29: .cfa -32 + ^
STACK CFI 47a08 .cfa: sp 32 +
STACK CFI 47a10 .cfa: sp 0 +
STACK CFI 47a14 .cfa: x29 32 +
STACK CFI 47a30 .cfa: sp 32 +
STACK CFI 47a38 .cfa: sp 0 +
STACK CFI INIT 47a3c 8 .cfa: sp 0 +
STACK CFI INIT 47a44 1c .cfa: sp 0 +
STACK CFI INIT 47a60 c .cfa: sp 0 +
STACK CFI INIT 47bfc 304 .cfa: sp 0 +
STACK CFI 47c00 .cfa: sp 128 +
STACK CFI 47c18 .cfa: x29 64 + x19: .cfa -8 + ^ x20: .cfa -16 + ^ x21: .cfa -24 + ^ x22: .cfa -32 + ^ x23: .cfa -48 + ^ .ra: .cfa -56 + ^ x29: .cfa -64 + ^ v8: .cfa -72 + ^ v9: .cfa -80 + ^
STACK CFI 47e48 .cfa: sp 128 +
STACK CFI 47e60 .cfa: sp 0 +
STACK CFI 47e64 .cfa: x29 64 +
STACK CFI INIT 47f00 4 .cfa: sp 0 +
STACK CFI INIT 47f04 4 .cfa: sp 0 +
STACK CFI INIT 47f08 38 .cfa: sp 0 +
STACK CFI 47f0c .cfa: sp 32 +
STACK CFI 47f14 .cfa: x29 32 + x19: .cfa -16 + ^ .ra: .cfa -24 + ^ x29: .cfa -32 + ^
STACK CFI 47f34 .cfa: sp 32 +
STACK CFI 47f3c .cfa: sp 0 +
STACK CFI INIT 47f40 18 .cfa: sp 0 +
STACK CFI INIT 47f58 4 .cfa: sp 0 +
STACK CFI INIT 47f5c 4 .cfa: sp 0 +
STACK CFI INIT 4899c 1c .cfa: sp 0 +
STACK CFI INIT 489b8 c .cfa: sp 0 +
STACK CFI INIT 489c4 60 .cfa: sp 0 +
STACK CFI 489c8 .cfa: sp 32 +
STACK CFI 489d0 .cfa: x29 32 + x19: .cfa -8 + ^ x20: .cfa -16 + ^ .ra: .cfa -24 + ^ x29: .cfa -32 + ^
STACK CFI 489f0 .cfa: sp 32 +
STACK CFI 489f8 .cfa: sp 0 +
STACK CFI 489fc .cfa: x29 32 +
STACK CFI 48a18 .cfa: sp 32 +
STACK CFI 48a20 .cfa: sp 0 +
STACK CFI INIT 48a24 70 .cfa: sp 0 +
STACK CFI 48a28 .cfa: sp 32 +
STACK CFI 48a30 .cfa: x29 32 + x19: .cfa -8 + ^ x20: .cfa -16 + ^ .ra: .cfa -24 + ^ x29: .cfa -32 + ^
STACK CFI 48a58 .cfa: sp 32 +
STACK CFI 48a60 .cfa: sp 0 +
STACK CFI 48a64 .cfa: x29 32 +
STACK CFI 48a88 .cfa: sp 32 +
STACK CFI 48a90 .cfa: sp 0 +
STACK CFI INIT 48a94 10 .cfa: sp 0 +
STACK CFI INIT 48aa4 30 .cfa: sp 0 +
STACK CFI 48aa8 .cfa: sp 32 +
STACK CFI 48ab0 .cfa: x29 32 + x19: .cfa -16 + ^ .ra: .cfa -24 + ^ x29: .cfa -32 + ^
STACK CFI 48ac8 .cfa: sp 32 +
STACK CFI 48ad0 .cfa: sp 0 +
STACK CFI INIT 48ad4 4 .cfa: sp 0 +
STACK CFI INIT 48ad8 4 .cfa: sp 0 +
STACK CFI INIT 48ce8 28 .cfa: sp 0 +
STACK CFI INIT 48d10 8 .cfa: sp 0 +
STACK CFI INIT 492e8 a0 .cfa: sp 0 +
STACK CFI 492ec .cfa: sp 32 +
STACK CFI 492f4 .cfa: x29 32 + x19: .cfa -8 + ^ x20: .cfa -16 + ^ .ra: .cfa -24 + ^ x29: .cfa -32 + ^
STACK CFI 4937c .cfa: sp 32 +
STACK CFI 49384 .cfa: sp 0 +
STACK CFI INIT 49388 4 .cfa: sp 0 +
STACK CFI INIT 49558 a8 .cfa: sp 0 +
STACK CFI 4955c .cfa: sp 32 +
STACK CFI 49564 .cfa: x29 32 + x19: .cfa -8 + ^ x20: .cfa -16 + ^ .ra: .cfa -24 + ^ x29: .cfa -32 + ^
STACK CFI 495f4 .cfa: sp 32 +
STACK CFI 495fc .cfa: sp 0 +
STACK CFI INIT 49600 34 .cfa: sp 0 +
STACK CFI 49604 .cfa: sp 16 +
STACK CFI 49608 .cfa: x29 16 + .ra: .cfa -8 + ^ x29: .cfa -16 + ^
STACK CFI INIT 49634 24 .cfa: sp 0 +
STACK CFI 49638 .cfa: sp 32 +
STACK CFI 49640 .cfa: x29 32 + x19: .cfa -16 + ^ .ra: .cfa -24 + ^ x29: .cfa -32 + ^
STACK CFI 4964c .cfa: sp 32 +
STACK CFI 49654 .cfa: sp 0 +
STACK CFI INIT 49658 4 .cfa: sp 0 +
STACK CFI INIT 4965c 24 .cfa: sp 0 +
STACK CFI 49660 .cfa: sp 16 +
STACK CFI 49664 .cfa: x29 16 + .ra: .cfa -8 + ^ x29: .cfa -16 + ^
STACK CFI 49678 .cfa: sp 16 +
STACK CFI 4967c .cfa: sp 0 +
STACK CFI INIT 49680 10 .cfa: sp 0 +
STACK CFI INIT 49690 4 .cfa: sp 0 +
STACK CFI INIT 49694 4 .cfa: sp 0 +
STACK CFI INIT 4a00c 1c .cfa: sp 0 +
STACK CFI INIT 4a028 c .cfa: sp 0 +
STACK CFI INIT 4a034 4 .cfa: sp 0 +
STACK CFI INIT 4a1ac 60 .cfa: sp 0 +
STACK CFI 4a1b0 .cfa: sp 32 +
STACK CFI 4a1b8 .cfa: x29 32 + x19: .cfa -16 + ^ .ra: .cfa -24 + ^ x29: .cfa -32 + ^
STACK CFI 4a200 .cfa: sp 32 +
STACK CFI 4a208 .cfa: sp 0 +
STACK CFI INIT 4a20c 68 .cfa: sp 0 +
STACK CFI 4a210 .cfa: sp 32 +
STACK CFI 4a218 .cfa: x29 32 + x19: .cfa -16 + ^ .ra: .cfa -24 + ^ x29: .cfa -32 + ^
STACK CFI 4a268 .cfa: sp 32 +
STACK CFI 4a270 .cfa: sp 0 +
STACK CFI INIT 4a274 4 .cfa: sp 0 +
STACK CFI INIT 4a278 4 .cfa: sp 0 +
STACK CFI INIT 4a27c 38 .cfa: sp 0 +
STACK CFI 4a280 .cfa: sp 32 +
STACK CFI 4a288 .cfa: x29 32 + x19: .cfa -16 + ^ .ra: .cfa -24 + ^ x29: .cfa -32 + ^
STACK CFI 4a2a8 .cfa: sp 32 +
STACK CFI 4a2b0 .cfa: sp 0 +
STACK CFI INIT 4a2b4 18 .cfa: sp 0 +
STACK CFI INIT 4a2cc 4 .cfa: sp 0 +
STACK CFI INIT 4a2d0 4 .cfa: sp 0 +
STACK CFI INIT 4a2d4 10 .cfa: sp 0 +
STACK CFI INIT 4a2e4 1c .cfa: sp 0 +
STACK CFI INIT 4a300 c .cfa: sp 0 +
STACK CFI INIT 4a42c 3c .cfa: sp 0 +
STACK CFI 4a430 .cfa: sp 32 +
STACK CFI 4a438 .cfa: x29 32 + x19: .cfa -16 + ^ .ra: .cfa -24 + ^ x29: .cfa -32 + ^
STACK CFI 4a444 .cfa: sp 32 +
STACK CFI 4a44c .cfa: sp 0 +
STACK CFI 4a450 .cfa: x29 32 +
STACK CFI 4a45c .cfa: sp 32 +
STACK CFI 4a464 .cfa: sp 0 +
STACK CFI INIT 4a468 3c .cfa: sp 0 +
STACK CFI 4a46c .cfa: sp 32 +
STACK CFI 4a474 .cfa: x29 32 + x19: .cfa -16 + ^ .ra: .cfa -24 + ^ x29: .cfa -32 + ^
STACK CFI 4a480 .cfa: sp 32 +
STACK CFI 4a488 .cfa: sp 0 +
STACK CFI 4a48c .cfa: x29 32 +
STACK CFI 4a498 .cfa: sp 32 +
STACK CFI 4a4a0 .cfa: sp 0 +
STACK CFI INIT 4a4a4 4c .cfa: sp 0 +
STACK CFI 4a4a8 .cfa: sp 32 +
STACK CFI 4a4b0 .cfa: x29 32 + x19: .cfa -8 + ^ x20: .cfa -16 + ^ .ra: .cfa -24 + ^ x29: .cfa -32 + ^
STACK CFI 4a4d8 .cfa: sp 32 +
STACK CFI 4a4e0 .cfa: sp 0 +
STACK CFI 4a4e4 .cfa: sp 32 +
STACK CFI 4a4ec .cfa: sp 0 +
STACK CFI INIT 4a710 64 .cfa: sp 0 +
STACK CFI 4a714 .cfa: sp 32 +
STACK CFI 4a71c .cfa: x29 32 + x19: .cfa -16 + ^ .ra: .cfa -24 + ^ x29: .cfa -32 + ^
STACK CFI 4a748 .cfa: sp 32 +
STACK CFI 4a750 .cfa: sp 0 +
STACK CFI 4a754 .cfa: x29 32 +
STACK CFI 4a768 .cfa: sp 32 +
STACK CFI 4a770 .cfa: sp 0 +
STACK CFI INIT 4a774 24 .cfa: sp 0 +
STACK CFI 4a778 .cfa: sp 32 +
STACK CFI 4a780 .cfa: x29 32 + x19: .cfa -16 + ^ .ra: .cfa -24 + ^ x29: .cfa -32 + ^
STACK CFI 4a78c .cfa: sp 32 +
STACK CFI 4a794 .cfa: sp 0 +
STACK CFI INIT 4a9f4 24 .cfa: sp 0 +
STACK CFI 4a9f8 .cfa: sp 32 +
STACK CFI 4aa00 .cfa: x29 32 + x19: .cfa -16 + ^ .ra: .cfa -24 + ^ x29: .cfa -32 + ^
STACK CFI 4aa0c .cfa: sp 32 +
STACK CFI 4aa14 .cfa: sp 0 +
STACK CFI INIT 4aa18 8 .cfa: sp 0 +
STACK CFI INIT 4aa20 24 .cfa: sp 0 +
STACK CFI 4aa24 .cfa: sp 32 +
STACK CFI 4aa2c .cfa: x29 32 + x19: .cfa -16 + ^ .ra: .cfa -24 + ^ x29: .cfa -32 + ^
STACK CFI 4aa38 .cfa: sp 32 +
STACK CFI 4aa40 .cfa: sp 0 +
STACK CFI INIT 4aa44 28 .cfa: sp 0 +
STACK CFI 4aa48 .cfa: sp 32 +
STACK CFI 4aa50 .cfa: x29 32 + x19: .cfa -16 + ^ .ra: .cfa -24 + ^ x29: .cfa -32 + ^
STACK CFI 4aa60 .cfa: sp 32 +
STACK CFI 4aa68 .cfa: sp 0 +
STACK CFI INIT 4ad6c 8 .cfa: sp 0 +
STACK CFI INIT 4ad74 24 .cfa: sp 0 +
STACK CFI 4ad78 .cfa: sp 32 +
STACK CFI 4ad80 .cfa: x29 32 + x19: .cfa -16 + ^ .ra: .cfa -24 + ^ x29: .cfa -32 + ^
STACK CFI 4ad8c .cfa: sp 32 +
STACK CFI 4ad94 .cfa: sp 0 +
STACK CFI INIT 4ad98 28 .cfa: sp 0 +
STACK CFI 4ad9c .cfa: sp 32 +
STACK CFI 4ada4 .cfa: x29 32 + x19: .cfa -16 + ^ .ra: .cfa -24 + ^ x29: .cfa -32 + ^
STACK CFI 4adb4 .cfa: sp 32 +
STACK CFI 4adbc .cfa: sp 0 +
STACK CFI INIT 4b024 8 .cfa: sp 0 +
STACK CFI INIT 4b02c 24 .cfa: sp 0 +
STACK CFI 4b030 .cfa: sp 32 +
STACK CFI 4b038 .cfa: x29 32 + x19: .cfa -16 + ^ .ra: .cfa -24 + ^ x29: .cfa -32 + ^
STACK CFI 4b044 .cfa: sp 32 +
STACK CFI 4b04c .cfa: sp 0 +
STACK CFI INIT 4b050 28 .cfa: sp 0 +
STACK CFI 4b054 .cfa: sp 32 +
STACK CFI 4b05c .cfa: x29 32 + x19: .cfa -16 + ^ .ra: .cfa -24 + ^ x29: .cfa -32 + ^
STACK CFI 4b06c .cfa: sp 32 +
STACK CFI 4b074 .cfa: sp 0 +
STACK CFI INIT 4b078 9c .cfa: sp 0 +
STACK CFI 4b07c .cfa: sp 32 +
STACK CFI 4b084 .cfa: x29 32 + x19: .cfa -16 + ^ .ra: .cfa -24 + ^ x29: .cfa -32 + ^
STACK CFI 4b108 .cfa: sp 32 +
STACK CFI 4b110 .cfa: sp 0 +
STACK CFI INIT 4b114 8 .cfa: sp 0 +
STACK CFI INIT 4b11c 24 .cfa: sp 0 +
STACK CFI 4b120 .cfa: sp 32 +
STACK CFI 4b128 .cfa: x29 32 + x19: .cfa -16 + ^ .ra: .cfa -24 + ^ x29: .cfa -32 + ^
STACK CFI 4b134 .cfa: sp 32 +
STACK CFI 4b13c .cfa: sp 0 +
STACK CFI INIT 4b140 28 .cfa: sp 0 +
STACK CFI 4b144 .cfa: sp 32 +
STACK CFI 4b14c .cfa: x29 32 + x19: .cfa -16 + ^ .ra: .cfa -24 + ^ x29: .cfa -32 + ^
STACK CFI 4b15c .cfa: sp 32 +
STACK CFI 4b164 .cfa: sp 0 +
STACK CFI INIT 4b79c 14 .cfa: sp 0 +
STACK CFI INIT 4bd4c 4 .cfa: sp 0 +
STACK CFI INIT 4cee0 4 .cfa: sp 0 +
STACK CFI INIT 4cee4 14 .cfa: sp 0 +
STACK CFI INIT 4d404 c .cfa: sp 0 +
STACK CFI INIT 4d410 24c .cfa: sp 0 +
STACK CFI INIT 4d65c a0 .cfa: sp 0 +
STACK CFI 4d668 .cfa: sp 32 +
STACK CFI 4d6c0 .cfa: sp 0 +
STACK CFI 4d6c4 .cfa: sp 32 +
STACK CFI 4d6cc .cfa: sp 0 +
STACK CFI 4d6d0 .cfa: sp 32 +
STACK CFI 4d6e4 .cfa: sp 0 +
STACK CFI 4d6e8 .cfa: sp 32 +
STACK CFI 4d6f8 .cfa: sp 0 +
STACK CFI INIT 4d6fc 38 .cfa: sp 0 +
STACK CFI 4d708 .cfa: sp 32 +
STACK CFI 4d730 .cfa: sp 0 +
STACK CFI INIT 4d734 34 .cfa: sp 0 +
STACK CFI 4d738 .cfa: sp 16 +
STACK CFI 4d73c .cfa: x29 16 + .ra: .cfa -8 + ^ x29: .cfa -16 + ^
STACK CFI INIT 4dac0 14 .cfa: sp 0 +
STACK CFI INIT 4dc64 80 .cfa: sp 0 +
STACK CFI 4dc68 .cfa: sp 32 +
STACK CFI 4dc70 .cfa: x29 32 + x19: .cfa -16 + ^ .ra: .cfa -24 + ^ x29: .cfa -32 + ^
STACK CFI 4dca0 .cfa: sp 32 +
STACK CFI 4dca8 .cfa: sp 0 +
STACK CFI 4dcac .cfa: x29 32 +
STACK CFI 4dcd8 .cfa: sp 32 +
STACK CFI 4dce0 .cfa: sp 0 +
STACK CFI INIT 4dd34 30 .cfa: sp 0 +
STACK CFI 4dd38 .cfa: sp 32 +
STACK CFI 4dd40 .cfa: x29 32 + x19: .cfa -16 + ^ .ra: .cfa -24 + ^ x29: .cfa -32 + ^
STACK CFI 4dd58 .cfa: sp 32 +
STACK CFI 4dd60 .cfa: sp 0 +
STACK CFI INIT 4df4c 9c .cfa: sp 0 +
STACK CFI INIT 4dfe8 64 .cfa: sp 0 +
STACK CFI 4dfec .cfa: sp 32 +
STACK CFI 4dff4 .cfa: x29 32 + x19: .cfa -16 + ^ .ra: .cfa -24 + ^ x29: .cfa -32 + ^
STACK CFI 4e010 .cfa: sp 32 +
STACK CFI 4e018 .cfa: sp 0 +
STACK CFI 4e01c .cfa: x29 32 +
STACK CFI 4e040 .cfa: sp 32 +
STACK CFI 4e048 .cfa: sp 0 +
STACK CFI INIT 4e27c b0 .cfa: sp 0 +
STACK CFI INIT 4e648 b4 .cfa: sp 0 +
STACK CFI 4e64c .cfa: sp 48 +
STACK CFI 4e658 .cfa: x29 48 + x19: .cfa -8 + ^ x20: .cfa -16 + ^ x21: .cfa -24 + ^ x28: .cfa -32 + ^ .ra: .cfa -40 + ^ x29: .cfa -48 + ^
STACK CFI 4e6e8 .cfa: sp 48 +
STACK CFI 4e6f4 .cfa: sp 0 +
STACK CFI 4e6f8 .cfa: x29 48 +
STACK CFI INIT 4e6fc 1f8 .cfa: sp 0 +
STACK CFI 4e700 .cfa: sp 176 +
STACK CFI 4e70c .cfa: x29 32 + x19: .cfa -16 + ^ .ra: .cfa -24 + ^ x29: .cfa -32 + ^
STACK CFI 4e764 .cfa: sp 176 +
STACK CFI 4e770 .cfa: sp 0 +
STACK CFI 4e774 .cfa: x29 32 +
STACK CFI INIT 4e8f4 8 .cfa: sp 0 +
STACK CFI INIT 4eec4 228 .cfa: sp 0 +
STACK CFI INIT 4f0ec 2dc .cfa: sp 0 +
STACK CFI INIT 4f3c8 53c .cfa: sp 0 +
STACK CFI INIT 4f904 8 .cfa: sp 0 +
STACK CFI INIT 4fad0 14c .cfa: sp 0 +
STACK CFI 4fadc .cfa: sp 48 +
STACK CFI 4fae8 .cfa: x29 48 + x19: .cfa -8 + ^ x20: .cfa -16 + ^ x21: .cfa -24 + ^ x22: .cfa -32 + ^ .ra: .cfa -40 + ^ x29: .cfa -48 + ^
STACK CFI 4fc0c .cfa: sp 48 +
STACK CFI 4fc18 .cfa: sp 0 +
STACK CFI INIT 4fc1c 210 .cfa: sp 0 +
STACK CFI 4fc20 .cfa: sp 64 +
STACK CFI 4fc30 .cfa: x29 64 + x19: .cfa -8 + ^ x20: .cfa -16 + ^ x21: .cfa -24 + ^ x22: .cfa -32 + ^ x23: .cfa -40 + ^ x24: .cfa -48 + ^ .ra: .cfa -56 + ^ x29: .cfa -64 + ^
STACK CFI 4fde4 .cfa: sp 64 +
STACK CFI 4fdf4 .cfa: sp 0 +
STACK CFI 4fdf8 .cfa: sp 64 +
STACK CFI 4fe08 .cfa: sp 0 +
STACK CFI 4fe0c .cfa: x29 64 +
STACK CFI 4fe18 .cfa: sp 64 +
STACK CFI 4fe28 .cfa: sp 0 +
STACK CFI INIT 4fff0 108 .cfa: sp 0 +
STACK CFI 4fffc .cfa: sp 48 +
STACK CFI 50008 .cfa: x29 48 + x19: .cfa -8 + ^ x20: .cfa -16 + ^ x21: .cfa -24 + ^ x22: .cfa -32 + ^ .ra: .cfa -40 + ^ x29: .cfa -48 + ^
STACK CFI 500e8 .cfa: sp 48 +
STACK CFI 500f4 .cfa: sp 0 +
STACK CFI INIT 500f8 90 .cfa: sp 0 +
STACK CFI 500fc .cfa: sp 32 +
STACK CFI 50104 .cfa: x29 32 + x19: .cfa -16 + ^ .ra: .cfa -24 + ^ x29: .cfa -32 + ^
STACK CFI 5013c .cfa: sp 32 +
STACK CFI 50144 .cfa: sp 0 +
STACK CFI 50148 .cfa: x29 32 +
STACK CFI 5017c .cfa: sp 32 +
STACK CFI 50184 .cfa: sp 0 +
STACK CFI INIT 50188 24 .cfa: sp 0 +
STACK CFI 5018c .cfa: sp 32 +
STACK CFI 50194 .cfa: x29 32 + x19: .cfa -16 + ^ .ra: .cfa -24 + ^ x29: .cfa -32 + ^
STACK CFI 501a0 .cfa: sp 32 +
STACK CFI 501a8 .cfa: sp 0 +
STACK CFI INIT 501ac a0 .cfa: sp 0 +
STACK CFI 501b0 .cfa: sp 48 +
STACK CFI 501bc .cfa: x29 48 + x19: .cfa -8 + ^ x20: .cfa -16 + ^ x21: .cfa -24 + ^ x22: .cfa -32 + ^ .ra: .cfa -40 + ^ x29: .cfa -48 + ^
STACK CFI 50228 .cfa: sp 48 +
STACK CFI 50234 .cfa: sp 0 +
STACK CFI 50238 .cfa: sp 48 +
STACK CFI 50244 .cfa: sp 0 +
STACK CFI 50248 .cfa: x29 48 +
STACK CFI INIT 50448 150 .cfa: sp 0 +
STACK CFI 5044c .cfa: sp 48 +
STACK CFI 50458 .cfa: x29 48 + x19: .cfa -8 + ^ x20: .cfa -16 + ^ x21: .cfa -24 + ^ x22: .cfa -32 + ^ .ra: .cfa -40 + ^ x29: .cfa -48 + ^
STACK CFI 50588 .cfa: sp 48 +
STACK CFI 50594 .cfa: sp 0 +
STACK CFI INIT 5066c 70 .cfa: sp 0 +
STACK CFI 50670 .cfa: sp 64 +
STACK CFI 5067c .cfa: x29 32 + x19: .cfa -16 + ^ .ra: .cfa -24 + ^ x29: .cfa -32 + ^
STACK CFI 506c8 .cfa: sp 64 +
STACK CFI 506d4 .cfa: sp 0 +
STACK CFI 506d8 .cfa: x29 32 +
STACK CFI INIT 506dc 78 .cfa: sp 0 +
STACK CFI 506e0 .cfa: sp 32 +
STACK CFI 506e8 .cfa: x29 32 + x19: .cfa -8 + ^ x20: .cfa -16 + ^ .ra: .cfa -24 + ^ x29: .cfa -32 + ^
STACK CFI 50748 .cfa: sp 32 +
STACK CFI 50750 .cfa: sp 0 +
STACK CFI INIT 50754 f4 .cfa: sp 0 +
STACK CFI 50758 .cfa: sp 112 +
STACK CFI 50768 .cfa: x29 48 + x19: .cfa -8 + ^ x20: .cfa -16 + ^ x21: .cfa -32 + ^ .ra: .cfa -40 + ^ x29: .cfa -48 + ^
STACK CFI 50830 .cfa: sp 112 +
STACK CFI 50840 .cfa: sp 0 +
STACK CFI 50844 .cfa: x29 48 +
STACK CFI INIT 50848 f4 .cfa: sp 0 +
STACK CFI 5084c .cfa: sp 112 +
STACK CFI 5085c .cfa: x29 48 + x19: .cfa -8 + ^ x20: .cfa -16 + ^ x21: .cfa -32 + ^ .ra: .cfa -40 + ^ x29: .cfa -48 + ^
STACK CFI 50924 .cfa: sp 112 +
STACK CFI 50934 .cfa: sp 0 +
STACK CFI 50938 .cfa: x29 48 +
STACK CFI INIT 5093c 48 .cfa: sp 0 +
STACK CFI 50940 .cfa: sp 32 +
STACK CFI 50948 .cfa: x29 32 + x19: .cfa -8 + ^ x20: .cfa -16 + ^ .ra: .cfa -24 + ^ x29: .cfa -32 + ^
STACK CFI 5096c .cfa: sp 32 +
STACK CFI 50974 .cfa: sp 0 +
STACK CFI 50978 .cfa: x29 32 +
STACK CFI INIT 50984 9c .cfa: sp 0 +
STACK CFI 50988 .cfa: sp 80 +
STACK CFI 50994 .cfa: x29 32 + x19: .cfa -16 + ^ .ra: .cfa -24 + ^ x29: .cfa -32 + ^
STACK CFI 50a0c .cfa: sp 80 +
STACK CFI 50a18 .cfa: sp 0 +
STACK CFI 50a1c .cfa: x29 32 +
STACK CFI INIT 50a20 264 .cfa: sp 0 +
STACK CFI 50a24 .cfa: sp 112 +
STACK CFI 50a3c .cfa: x29 80 + x19: .cfa -8 + ^ x20: .cfa -16 + ^ x21: .cfa -24 + ^ x22: .cfa -32 + ^ x23: .cfa -40 + ^ x24: .cfa -48 + ^ x25: .cfa -64 + ^ .ra: .cfa -72 + ^ x29: .cfa -80 + ^
STACK CFI 50c24 .cfa: sp 112 +
STACK CFI 50c3c .cfa: sp 0 +
STACK CFI 50c40 .cfa: x29 80 +
STACK CFI INIT 50c84 150 .cfa: sp 0 +
STACK CFI 50c88 .cfa: sp 48 +
STACK CFI 50c94 .cfa: x29 48 + x19: .cfa -8 + ^ x20: .cfa -16 + ^ x21: .cfa -24 + ^ x22: .cfa -32 + ^ .ra: .cfa -40 + ^ x29: .cfa -48 + ^
STACK CFI 50dc4 .cfa: sp 48 +
STACK CFI 50dd0 .cfa: sp 0 +
STACK CFI INIT 50dd4 1e4 .cfa: sp 0 +
STACK CFI 50dd8 .cfa: sp 96 +
STACK CFI 50dec .cfa: x29 64 + x19: .cfa -8 + ^ x20: .cfa -16 + ^ x21: .cfa -24 + ^ x22: .cfa -32 + ^ x23: .cfa -40 + ^ x24: .cfa -48 + ^ .ra: .cfa -56 + ^ x29: .cfa -64 + ^
STACK CFI 50f70 .cfa: sp 96 +
STACK CFI 50f84 .cfa: sp 0 +
STACK CFI 50f88 .cfa: x29 64 +
STACK CFI INIT 50fb8 288 .cfa: sp 0 +
STACK CFI 50fbc .cfa: sp 112 +
STACK CFI 50fd4 .cfa: x29 80 + x19: .cfa -8 + ^ x20: .cfa -16 + ^ x21: .cfa -24 + ^ x22: .cfa -32 + ^ x23: .cfa -40 + ^ x24: .cfa -48 + ^ x25: .cfa -64 + ^ .ra: .cfa -72 + ^ x29: .cfa -80 + ^
STACK CFI 511e0 .cfa: sp 112 +
STACK CFI 511f8 .cfa: sp 0 +
STACK CFI 511fc .cfa: x29 80 +
STACK CFI INIT 51240 20c .cfa: sp 0 +
STACK CFI 51244 .cfa: sp 96 +
STACK CFI 51258 .cfa: x29 64 + x19: .cfa -8 + ^ x20: .cfa -16 + ^ x21: .cfa -24 + ^ x22: .cfa -32 + ^ x23: .cfa -40 + ^ x24: .cfa -48 + ^ .ra: .cfa -56 + ^ x29: .cfa -64 + ^
STACK CFI 51404 .cfa: sp 96 +
STACK CFI 51418 .cfa: sp 0 +
STACK CFI 5141c .cfa: x29 64 +
STACK CFI INIT 5144c 364 .cfa: sp 0 +
STACK CFI 51450 .cfa: sp 160 +
STACK CFI 5146c .cfa: x29 96 + x19: .cfa -8 + ^ x20: .cfa -16 + ^ x21: .cfa -24 + ^ x22: .cfa -32 + ^ x23: .cfa -40 + ^ x24: .cfa -48 + ^ x25: .cfa -56 + ^ x26: .cfa -64 + ^ x27: .cfa -72 + ^ x28: .cfa -80 + ^ .ra: .cfa -88 + ^ x29: .cfa -96 + ^
STACK CFI 5173c .cfa: sp 160 +
STACK CFI 51758 .cfa: sp 0 +
STACK CFI 5175c .cfa: x29 96 +
STACK CFI INIT 517b0 318 .cfa: sp 0 +
STACK CFI 517b4 .cfa: sp 144 +
STACK CFI 517d0 .cfa: x29 96 + x19: .cfa -8 + ^ x20: .cfa -16 + ^ x21: .cfa -24 + ^ x22: .cfa -32 + ^ x23: .cfa -40 + ^ x24: .cfa -48 + ^ x25: .cfa -56 + ^ x26: .cfa -64 + ^ x27: .cfa -72 + ^ x28: .cfa -80 + ^ .ra: .cfa -88 + ^ x29: .cfa -96 + ^
STACK CFI 51a50 .cfa: sp 144 +
STACK CFI 51a6c .cfa: sp 0 +
STACK CFI 51a70 .cfa: x29 96 +
STACK CFI INIT 51ac8 10c .cfa: sp 0 +
STACK CFI 51acc .cfa: sp 96 +
STACK CFI 51adc .cfa: x29 48 + x19: .cfa -8 + ^ x20: .cfa -16 + ^ x21: .cfa -24 + ^ x22: .cfa -32 + ^ .ra: .cfa -40 + ^ x29: .cfa -48 + ^
STACK CFI 51bbc .cfa: sp 96 +
STACK CFI 51bcc .cfa: sp 0 +
STACK CFI 51bd0 .cfa: x29 48 +
STACK CFI INIT 51bd4 990 .cfa: sp 0 +
STACK CFI 51bd8 .cfa: sp 144 +
STACK CFI 51bf0 .cfa: x29 80 + x19: .cfa -8 + ^ x20: .cfa -16 + ^ x21: .cfa -24 + ^ x22: .cfa -32 + ^ x23: .cfa -40 + ^ x24: .cfa -48 + ^ x25: .cfa -64 + ^ .ra: .cfa -72 + ^ x29: .cfa -80 + ^
STACK CFI 52544 .cfa: sp 144 +
STACK CFI 5255c .cfa: sp 0 +
STACK CFI 52560 .cfa: x29 80 +
STACK CFI INIT 52564 190 .cfa: sp 0 +
STACK CFI 52568 .cfa: sp 96 +
STACK CFI 5257c .cfa: x29 64 + x19: .cfa -8 + ^ x20: .cfa -16 + ^ x21: .cfa -24 + ^ x22: .cfa -32 + ^ x23: .cfa -48 + ^ .ra: .cfa -56 + ^ x29: .cfa -64 + ^
STACK CFI 526d8 .cfa: sp 96 +
STACK CFI 526ec .cfa: sp 0 +
STACK CFI 526f0 .cfa: x29 64 +
STACK CFI INIT 526f4 1e4 .cfa: sp 0 +
STACK CFI 526f8 .cfa: sp 112 +
STACK CFI 52710 .cfa: x29 80 + x19: .cfa -8 + ^ x20: .cfa -16 + ^ x21: .cfa -24 + ^ x22: .cfa -32 + ^ x23: .cfa -40 + ^ x24: .cfa -48 + ^ x25: .cfa -64 + ^ .ra: .cfa -72 + ^ x29: .cfa -80 + ^
STACK CFI 528b8 .cfa: sp 112 +
STACK CFI 528d0 .cfa: sp 0 +
STACK CFI 528d4 .cfa: x29 80 +
STACK CFI INIT 528d8 1a8 .cfa: sp 0 +
STACK CFI 528dc .cfa: sp 96 +
STACK CFI 528f0 .cfa: x29 64 + x19: .cfa -8 + ^ x20: .cfa -16 + ^ x21: .cfa -24 + ^ x22: .cfa -32 + ^ x23: .cfa -40 + ^ x24: .cfa -48 + ^ .ra: .cfa -56 + ^ x29: .cfa -64 + ^
STACK CFI 52a64 .cfa: sp 96 +
STACK CFI 52a78 .cfa: sp 0 +
STACK CFI 52a7c .cfa: x29 64 +
STACK CFI INIT 52a80 1ac .cfa: sp 0 +
STACK CFI 52a84 .cfa: sp 112 +
STACK CFI 52a98 .cfa: x29 64 + x19: .cfa -8 + ^ x20: .cfa -16 + ^ x21: .cfa -24 + ^ x22: .cfa -32 + ^ x23: .cfa -40 + ^ x24: .cfa -48 + ^ .ra: .cfa -56 + ^ x29: .cfa -64 + ^
STACK CFI 52c10 .cfa: sp 112 +
STACK CFI 52c24 .cfa: sp 0 +
STACK CFI 52c28 .cfa: x29 64 +
STACK CFI INIT 52c2c 108 .cfa: sp 0 +
STACK CFI 52c30 .cfa: sp 64 +
STACK CFI 52c40 .cfa: x29 64 + x19: .cfa -8 + ^ x20: .cfa -16 + ^ x21: .cfa -24 + ^ x22: .cfa -32 + ^ x23: .cfa -48 + ^ .ra: .cfa -56 + ^ x29: .cfa -64 + ^
STACK CFI 52cbc .cfa: sp 64 +
STACK CFI 52ccc .cfa: sp 0 +
STACK CFI 52cd0 .cfa: x29 64 +
STACK CFI 52d20 .cfa: sp 64 +
STACK CFI 52d30 .cfa: sp 0 +
STACK CFI INIT 52d34 178 .cfa: sp 0 +
STACK CFI 52d38 .cfa: sp 96 +
STACK CFI 52d48 .cfa: x29 48 + x19: .cfa -8 + ^ x20: .cfa -16 + ^ x21: .cfa -24 + ^ x22: .cfa -32 + ^ .ra: .cfa -40 + ^ x29: .cfa -48 + ^
STACK CFI 52e68 .cfa: sp 96 +
STACK CFI 52e78 .cfa: sp 0 +
STACK CFI 52e7c .cfa: x29 48 +
STACK CFI INIT 52eac 1f4 .cfa: sp 0 +
STACK CFI 52eb0 .cfa: sp 80 +
STACK CFI 52ec4 .cfa: x29 80 + x19: .cfa -8 + ^ x20: .cfa -16 + ^ x21: .cfa -24 + ^ x22: .cfa -32 + ^ x23: .cfa -40 + ^ x24: .cfa -48 + ^ x25: .cfa -64 + ^ .ra: .cfa -72 + ^ x29: .cfa -80 + ^
STACK CFI 53064 .cfa: sp 80 +
STACK CFI 53078 .cfa: sp 0 +
STACK CFI 5307c .cfa: x29 80 +
STACK CFI 53088 .cfa: sp 80 +
STACK CFI 5309c .cfa: sp 0 +
STACK CFI INIT 530a0 258 .cfa: sp 0 +
STACK CFI 530a4 .cfa: sp 96 +
STACK CFI 530bc .cfa: x29 96 + x19: .cfa -8 + ^ x20: .cfa -16 + ^ x21: .cfa -24 + ^ x22: .cfa -32 + ^ x23: .cfa -40 + ^ x24: .cfa -48 + ^ x25: .cfa -56 + ^ x26: .cfa -64 + ^ x27: .cfa -72 + ^ x28: .cfa -80 + ^ .ra: .cfa -88 + ^ x29: .cfa -96 + ^
STACK CFI 532b4 .cfa: sp 96 +
STACK CFI 532cc .cfa: sp 0 +
STACK CFI 532d0 .cfa: x29 96 +
STACK CFI 532dc .cfa: sp 96 +
STACK CFI 532f4 .cfa: sp 0 +
STACK CFI INIT 539c8 154 .cfa: sp 0 +
STACK CFI 539cc .cfa: sp 96 +
STACK CFI 539e0 .cfa: x29 64 + x19: .cfa -8 + ^ x20: .cfa -16 + ^ x21: .cfa -24 + ^ x22: .cfa -32 + ^ x23: .cfa -48 + ^ .ra: .cfa -56 + ^ x29: .cfa -64 + ^
STACK CFI 53ac0 .cfa: sp 96 +
STACK CFI 53ad4 .cfa: sp 0 +
STACK CFI 53ad8 .cfa: x29 64 +
STACK CFI INIT 53cd0 44 .cfa: sp 0 +
STACK CFI 53cd4 .cfa: sp 32 +
STACK CFI 53cdc .cfa: x29 32 + x19: .cfa -16 + ^ .ra: .cfa -24 + ^ x29: .cfa -32 + ^
STACK CFI 53cf8 .cfa: sp 32 +
STACK CFI 53d00 .cfa: sp 0 +
STACK CFI 53d04 .cfa: x29 32 +
STACK CFI 53d08 .cfa: sp 32 +
STACK CFI 53d10 .cfa: sp 0 +
STACK CFI INIT 53d14 1d0 .cfa: sp 0 +
STACK CFI 53d18 .cfa: sp 64 +
STACK CFI 53d28 .cfa: x29 64 + x19: .cfa -8 + ^ x20: .cfa -16 + ^ x21: .cfa -24 + ^ x22: .cfa -32 + ^ x23: .cfa -40 + ^ x24: .cfa -48 + ^ .ra: .cfa -56 + ^ x29: .cfa -64 + ^
STACK CFI 53de8 .cfa: sp 64 +
STACK CFI 53df8 .cfa: sp 0 +
STACK CFI 53dfc .cfa: x29 64 +
STACK CFI INIT 53ee4 17c .cfa: sp 0 +
STACK CFI INIT 54060 134 .cfa: sp 0 +
STACK CFI 54064 .cfa: sp 48 +
STACK CFI 54070 .cfa: x29 48 + x19: .cfa -8 + ^ x20: .cfa -16 + ^ x21: .cfa -24 + ^ x22: .cfa -32 + ^ .ra: .cfa -40 + ^ x29: .cfa -48 + ^
STACK CFI 54184 .cfa: sp 48 +
STACK CFI 54190 .cfa: sp 0 +
STACK CFI INIT 5480c a0 .cfa: sp 0 +
STACK CFI 54810 .cfa: sp 48 +
STACK CFI 5481c .cfa: x29 48 + x19: .cfa -8 + ^ x20: .cfa -16 + ^ x21: .cfa -24 + ^ x22: .cfa -32 + ^ .ra: .cfa -40 + ^ x29: .cfa -48 + ^
STACK CFI 54888 .cfa: sp 48 +
STACK CFI 54894 .cfa: sp 0 +
STACK CFI 54898 .cfa: sp 48 +
STACK CFI 548a4 .cfa: sp 0 +
STACK CFI 548a8 .cfa: x29 48 +
STACK CFI INIT 548ac 190 .cfa: sp 0 +
STACK CFI 548b0 .cfa: sp 80 +
STACK CFI 548c4 .cfa: x29 80 + x19: .cfa -8 + ^ x20: .cfa -16 + ^ x21: .cfa -24 + ^ x22: .cfa -32 + ^ x23: .cfa -40 + ^ x24: .cfa -48 + ^ x25: .cfa -64 + ^ .ra: .cfa -72 + ^ x29: .cfa -80 + ^
STACK CFI 54a00 .cfa: sp 80 +
STACK CFI 54a14 .cfa: sp 0 +
STACK CFI 54a18 .cfa: x29 80 +
STACK CFI 54a24 .cfa: sp 80 +
STACK CFI 54a38 .cfa: sp 0 +
STACK CFI INIT 54b84 21c .cfa: sp 0 +
STACK CFI 54b88 .cfa: sp 96 +
STACK CFI 54b9c .cfa: x29 64 + x19: .cfa -8 + ^ x20: .cfa -16 + ^ x21: .cfa -24 + ^ x22: .cfa -32 + ^ x23: .cfa -40 + ^ x24: .cfa -48 + ^ .ra: .cfa -56 + ^ x29: .cfa -64 + ^
STACK CFI 54d84 .cfa: sp 96 +
STACK CFI 54d98 .cfa: sp 0 +
STACK CFI 54d9c .cfa: x29 64 +
STACK CFI INIT 55480 158 .cfa: sp 0 +
STACK CFI 55484 .cfa: sp 96 +
STACK CFI 55498 .cfa: x29 64 + x19: .cfa -8 + ^ x20: .cfa -16 + ^ x21: .cfa -24 + ^ x22: .cfa -32 + ^ x23: .cfa -48 + ^ .ra: .cfa -56 + ^ x29: .cfa -64 + ^
STACK CFI 5557c .cfa: sp 96 +
STACK CFI 55590 .cfa: sp 0 +
STACK CFI 55594 .cfa: x29 64 +
STACK CFI INIT 555d8 190 .cfa: sp 0 +
STACK CFI INIT 55768 134 .cfa: sp 0 +
STACK CFI 5576c .cfa: sp 48 +
STACK CFI 55778 .cfa: x29 48 + x19: .cfa -8 + ^ x20: .cfa -16 + ^ x21: .cfa -24 + ^ x22: .cfa -32 + ^ .ra: .cfa -40 + ^ x29: .cfa -48 + ^
STACK CFI 5588c .cfa: sp 48 +
STACK CFI 55898 .cfa: sp 0 +
STACK CFI INIT 55b74 190 .cfa: sp 0 +
STACK CFI 55b78 .cfa: sp 80 +
STACK CFI 55b8c .cfa: x29 80 + x19: .cfa -8 + ^ x20: .cfa -16 + ^ x21: .cfa -24 + ^ x22: .cfa -32 + ^ x23: .cfa -40 + ^ x24: .cfa -48 + ^ x25: .cfa -64 + ^ .ra: .cfa -72 + ^ x29: .cfa -80 + ^
STACK CFI 55cc8 .cfa: sp 80 +
STACK CFI 55cdc .cfa: sp 0 +
STACK CFI 55ce0 .cfa: x29 80 +
STACK CFI 55cec .cfa: sp 80 +
STACK CFI 55d00 .cfa: sp 0 +
STACK CFI INIT 55e4c 228 .cfa: sp 0 +
STACK CFI 55e50 .cfa: sp 96 +
STACK CFI 55e64 .cfa: x29 64 + x19: .cfa -8 + ^ x20: .cfa -16 + ^ x21: .cfa -24 + ^ x22: .cfa -32 + ^ x23: .cfa -40 + ^ x24: .cfa -48 + ^ .ra: .cfa -56 + ^ x29: .cfa -64 + ^
STACK CFI 56058 .cfa: sp 96 +
STACK CFI 5606c .cfa: sp 0 +
STACK CFI 56070 .cfa: x29 64 +
STACK CFI INIT 56448 568 .cfa: sp 0 +
STACK CFI 5644c .cfa: sp 176 +
STACK CFI 56468 .cfa: x29 96 + x19: .cfa -8 + ^ x20: .cfa -16 + ^ x21: .cfa -24 + ^ x22: .cfa -32 + ^ x23: .cfa -40 + ^ x24: .cfa -48 + ^ x25: .cfa -56 + ^ x26: .cfa -64 + ^ x27: .cfa -72 + ^ x28: .cfa -80 + ^ .ra: .cfa -88 + ^ x29: .cfa -96 + ^
STACK CFI 5698c .cfa: sp 176 +
STACK CFI 569a8 .cfa: sp 0 +
STACK CFI 569ac .cfa: x29 96 +
STACK CFI INIT 569b0 2c4 .cfa: sp 0 +
STACK CFI 569b4 .cfa: sp 160 +
STACK CFI 569c8 .cfa: x29 64 + x19: .cfa -8 + ^ x20: .cfa -16 + ^ x21: .cfa -24 + ^ x22: .cfa -32 + ^ x23: .cfa -40 + ^ x24: .cfa -48 + ^ .ra: .cfa -56 + ^ x29: .cfa -64 + ^
STACK CFI 56c34 .cfa: sp 160 +
STACK CFI 56c48 .cfa: sp 0 +
STACK CFI 56c4c .cfa: x29 64 +
STACK CFI INIT 56c74 1f4 .cfa: sp 0 +
STACK CFI 56c78 .cfa: sp 80 +
STACK CFI 56c8c .cfa: x29 80 + x19: .cfa -8 + ^ x20: .cfa -16 + ^ x21: .cfa -24 + ^ x22: .cfa -32 + ^ x23: .cfa -40 + ^ x24: .cfa -48 + ^ x25: .cfa -64 + ^ .ra: .cfa -72 + ^ x29: .cfa -80 + ^
STACK CFI 56e2c .cfa: sp 80 +
STACK CFI 56e40 .cfa: sp 0 +
STACK CFI 56e44 .cfa: x29 80 +
STACK CFI 56e50 .cfa: sp 80 +
STACK CFI 56e64 .cfa: sp 0 +
STACK CFI INIT 58290 124 .cfa: sp 0 +
STACK CFI 582c0 .cfa: sp 32 +
STACK CFI 582c8 .cfa: x29 32 + x19: .cfa -8 + ^ x20: .cfa -16 + ^ .ra: .cfa -24 + ^ x29: .cfa -32 + ^
STACK CFI 583a8 .cfa: sp 32 +
STACK CFI 583b0 .cfa: sp 0 +
STACK CFI INIT 583b4 194 .cfa: sp 0 +
STACK CFI 583b8 .cfa: sp 48 +
STACK CFI 583c4 .cfa: x29 48 + x19: .cfa -8 + ^ x20: .cfa -16 + ^ x21: .cfa -24 + ^ x22: .cfa -32 + ^ .ra: .cfa -40 + ^ x29: .cfa -48 + ^
STACK CFI 5842c .cfa: sp 48 +
STACK CFI 58438 .cfa: sp 0 +
STACK CFI 5843c .cfa: x29 48 +
STACK CFI 58470 .cfa: sp 48 +
STACK CFI 5847c .cfa: sp 0 +
STACK CFI 58480 .cfa: x29 48 +
STACK CFI 58538 .cfa: sp 48 +
STACK CFI 58544 .cfa: sp 0 +
STACK CFI INIT 58548 324 .cfa: sp 0 +
STACK CFI 5854c .cfa: sp 64 +
STACK CFI 5855c .cfa: x29 64 + x19: .cfa -8 + ^ x20: .cfa -16 + ^ x21: .cfa -24 + ^ x22: .cfa -32 + ^ x23: .cfa -40 + ^ x24: .cfa -48 + ^ .ra: .cfa -56 + ^ x29: .cfa -64 + ^
STACK CFI 585d8 .cfa: sp 64 +
STACK CFI 585e8 .cfa: sp 0 +
STACK CFI 585ec .cfa: x29 64 +
STACK CFI 587c4 .cfa: sp 64 +
STACK CFI 587d4 .cfa: sp 0 +
STACK CFI 587d8 .cfa: x29 64 +
STACK CFI 587e8 .cfa: sp 64 +
STACK CFI 587f8 .cfa: sp 0 +
STACK CFI 587fc .cfa: x29 64 +
STACK CFI INIT 5886c a0 .cfa: sp 0 +
STACK CFI 58870 .cfa: sp 48 +
STACK CFI 5887c .cfa: x29 48 + x19: .cfa -8 + ^ x20: .cfa -16 + ^ x21: .cfa -24 + ^ x22: .cfa -32 + ^ .ra: .cfa -40 + ^ x29: .cfa -48 + ^
STACK CFI 588e8 .cfa: sp 48 +
STACK CFI 588f4 .cfa: sp 0 +
STACK CFI 588f8 .cfa: sp 48 +
STACK CFI 58904 .cfa: sp 0 +
STACK CFI 58908 .cfa: x29 48 +
STACK CFI INIT 5958c 168 .cfa: sp 0 +
STACK CFI 59590 .cfa: sp 64 +
STACK CFI 595a0 .cfa: x29 64 + x19: .cfa -8 + ^ x20: .cfa -16 + ^ x21: .cfa -24 + ^ x22: .cfa -32 + ^ x23: .cfa -48 + ^ .ra: .cfa -56 + ^ x29: .cfa -64 + ^
STACK CFI 596a0 .cfa: sp 64 +
STACK CFI 596b0 .cfa: sp 0 +
STACK CFI 596b4 .cfa: x29 64 +
STACK CFI INIT 596f4 134 .cfa: sp 0 +
STACK CFI 596f8 .cfa: sp 48 +
STACK CFI 59704 .cfa: x29 48 + x19: .cfa -8 + ^ x20: .cfa -16 + ^ x21: .cfa -24 + ^ x22: .cfa -32 + ^ .ra: .cfa -40 + ^ x29: .cfa -48 + ^
STACK CFI 59818 .cfa: sp 48 +
STACK CFI 59824 .cfa: sp 0 +
STACK CFI INIT 59c10 190 .cfa: sp 0 +
STACK CFI 59c14 .cfa: sp 80 +
STACK CFI 59c28 .cfa: x29 80 + x19: .cfa -8 + ^ x20: .cfa -16 + ^ x21: .cfa -24 + ^ x22: .cfa -32 + ^ x23: .cfa -40 + ^ x24: .cfa -48 + ^ x25: .cfa -64 + ^ .ra: .cfa -72 + ^ x29: .cfa -80 + ^
STACK CFI 59d64 .cfa: sp 80 +
STACK CFI 59d78 .cfa: sp 0 +
STACK CFI 59d7c .cfa: x29 80 +
STACK CFI 59d88 .cfa: sp 80 +
STACK CFI 59d9c .cfa: sp 0 +
STACK CFI INIT 59fb4 280 .cfa: sp 0 +
STACK CFI 59fb8 .cfa: sp 64 +
STACK CFI 59fc8 .cfa: x29 64 + x19: .cfa -8 + ^ x20: .cfa -16 + ^ x21: .cfa -24 + ^ x22: .cfa -32 + ^ x23: .cfa -48 + ^ .ra: .cfa -56 + ^ x29: .cfa -64 + ^
STACK CFI 5a220 .cfa: sp 64 +
STACK CFI 5a230 .cfa: sp 0 +
STACK CFI INIT 5a234 220 .cfa: sp 0 +
STACK CFI 5a238 .cfa: sp 128 +
STACK CFI 5a254 .cfa: x29 96 + x19: .cfa -8 + ^ x20: .cfa -16 + ^ x21: .cfa -24 + ^ x22: .cfa -32 + ^ x23: .cfa -40 + ^ x24: .cfa -48 + ^ x25: .cfa -56 + ^ x26: .cfa -64 + ^ x27: .cfa -80 + ^ .ra: .cfa -88 + ^ x29: .cfa -96 + ^
STACK CFI 5a3d8 .cfa: sp 128 +
STACK CFI 5a3f4 .cfa: sp 0 +
STACK CFI 5a3f8 .cfa: x29 96 +
STACK CFI INIT 5a454 6d8 .cfa: sp 0 +
STACK CFI 5a458 .cfa: sp 192 +
STACK CFI 5a468 .cfa: x29 48 + x19: .cfa -8 + ^ x20: .cfa -16 + ^ x21: .cfa -24 + ^ x22: .cfa -32 + ^ .ra: .cfa -40 + ^ x29: .cfa -48 + ^
STACK CFI 5a5c8 .cfa: sp 192 +
STACK CFI 5a5d8 .cfa: sp 0 +
STACK CFI 5a5dc .cfa: x29 48 +
STACK CFI INIT 5ab2c 624 .cfa: sp 0 +
STACK CFI 5ab30 .cfa: sp 336 +
STACK CFI 5ab4c .cfa: x29 96 + x19: .cfa -8 + ^ x20: .cfa -16 + ^ x21: .cfa -24 + ^ x22: .cfa -32 + ^ x23: .cfa -40 + ^ x24: .cfa -48 + ^ x25: .cfa -56 + ^ x26: .cfa -64 + ^ x27: .cfa -72 + ^ x28: .cfa -80 + ^ .ra: .cfa -88 + ^ x29: .cfa -96 + ^
STACK CFI 5abf0 .cfa: sp 336 +
STACK CFI 5ac0c .cfa: sp 0 +
STACK CFI 5ac10 .cfa: x29 96 +
STACK CFI INIT 5b150 238 .cfa: sp 0 +
STACK CFI 5b154 .cfa: sp 96 +
STACK CFI 5b16c .cfa: x29 96 + x19: .cfa -8 + ^ x20: .cfa -16 + ^ x21: .cfa -24 + ^ x22: .cfa -32 + ^ x23: .cfa -40 + ^ x24: .cfa -48 + ^ x25: .cfa -56 + ^ x26: .cfa -64 + ^ x27: .cfa -72 + ^ x28: .cfa -80 + ^ .ra: .cfa -88 + ^ x29: .cfa -96 + ^
STACK CFI 5b354 .cfa: sp 96 +
STACK CFI 5b36c .cfa: sp 0 +
STACK CFI 5b370 .cfa: x29 96 +
STACK CFI INIT 5b388 ec .cfa: sp 0 +
STACK CFI 5b38c .cfa: sp 96 +
STACK CFI 5b3a4 .cfa: x29 96 + x19: .cfa -8 + ^ x20: .cfa -16 + ^ x21: .cfa -24 + ^ x22: .cfa -32 + ^ x23: .cfa -40 + ^ x24: .cfa -48 + ^ x25: .cfa -56 + ^ x26: .cfa -64 + ^ x27: .cfa -80 + ^ .ra: .cfa -88 + ^ x29: .cfa -96 + ^
STACK CFI 5b44c .cfa: sp 96 +
STACK CFI 5b464 .cfa: sp 0 +
STACK CFI 5b468 .cfa: x29 96 +
STACK CFI INIT 5b474 4b4 .cfa: sp 0 +
STACK CFI 5b478 .cfa: sp 96 +
STACK CFI 5b490 .cfa: x29 96 + x19: .cfa -8 + ^ x20: .cfa -16 + ^ x21: .cfa -24 + ^ x22: .cfa -32 + ^ x23: .cfa -40 + ^ x24: .cfa -48 + ^ x25: .cfa -56 + ^ x26: .cfa -64 + ^ x27: .cfa -72 + ^ x28: .cfa -80 + ^ .ra: .cfa -88 + ^ x29: .cfa -96 + ^
STACK CFI 5b8d8 .cfa: sp 96 +
STACK CFI 5b8f0 .cfa: sp 0 +
STACK CFI 5b8f4 .cfa: x29 96 +
STACK CFI INIT 5b928 1a4 .cfa: sp 0 +
STACK CFI 5b92c .cfa: sp 64 +
STACK CFI 5b938 .cfa: x29 32 + x19: .cfa -8 + ^ x20: .cfa -16 + ^ .ra: .cfa -24 + ^ x29: .cfa -32 + ^
STACK CFI 5ba64 .cfa: sp 64 +
STACK CFI 5ba70 .cfa: sp 0 +
STACK CFI 5ba74 .cfa: x29 32 +
STACK CFI INIT 5bacc 198 .cfa: sp 0 +
STACK CFI 5bad0 .cfa: sp 16 +
STACK CFI 5bad4 .cfa: x29 16 + .ra: .cfa -8 + ^ x29: .cfa -16 + ^
STACK CFI 5bb70 .cfa: sp 16 +
STACK CFI 5bb74 .cfa: sp 0 +
STACK CFI 5bb78 .cfa: x29 16 +
STACK CFI 5bc44 .cfa: sp 16 +
STACK CFI 5bc48 .cfa: sp 0 +
STACK CFI 5bc4c .cfa: x29 16 +
STACK CFI INIT 5bc64 9e0 .cfa: sp 0 +
STACK CFI 5bc68 .cfa: sp 160 +
STACK CFI 5bc80 .cfa: x29 80 + x19: .cfa -8 + ^ x20: .cfa -16 + ^ x21: .cfa -24 + ^ x22: .cfa -32 + ^ x23: .cfa -40 + ^ x24: .cfa -48 + ^ x25: .cfa -64 + ^ .ra: .cfa -72 + ^ x29: .cfa -80 + ^
STACK CFI 5c624 .cfa: sp 160 +
STACK CFI 5c63c .cfa: sp 0 +
STACK CFI 5c640 .cfa: x29 80 +
STACK CFI INIT 5c644 19c .cfa: sp 0 +
STACK CFI 5c648 .cfa: sp 96 +
STACK CFI 5c65c .cfa: x29 64 + x19: .cfa -8 + ^ x20: .cfa -16 + ^ x21: .cfa -24 + ^ x22: .cfa -32 + ^ x23: .cfa -48 + ^ .ra: .cfa -56 + ^ x29: .cfa -64 + ^
STACK CFI 5c7c4 .cfa: sp 96 +
STACK CFI 5c7d8 .cfa: sp 0 +
STACK CFI 5c7dc .cfa: x29 64 +
STACK CFI INIT 5c7e0 1e8 .cfa: sp 0 +
STACK CFI 5c7e4 .cfa: sp 112 +
STACK CFI 5c7fc .cfa: x29 80 + x19: .cfa -8 + ^ x20: .cfa -16 + ^ x21: .cfa -24 + ^ x22: .cfa -32 + ^ x23: .cfa -40 + ^ x24: .cfa -48 + ^ x25: .cfa -64 + ^ .ra: .cfa -72 + ^ x29: .cfa -80 + ^
STACK CFI 5c9a8 .cfa: sp 112 +
STACK CFI 5c9c0 .cfa: sp 0 +
STACK CFI 5c9c4 .cfa: x29 80 +
STACK CFI INIT 5c9c8 1ac .cfa: sp 0 +
STACK CFI 5c9cc .cfa: sp 96 +
STACK CFI 5c9e0 .cfa: x29 64 + x19: .cfa -8 + ^ x20: .cfa -16 + ^ x21: .cfa -24 + ^ x22: .cfa -32 + ^ x23: .cfa -40 + ^ x24: .cfa -48 + ^ .ra: .cfa -56 + ^ x29: .cfa -64 + ^
STACK CFI 5cb58 .cfa: sp 96 +
STACK CFI 5cb6c .cfa: sp 0 +
STACK CFI 5cb70 .cfa: x29 64 +
STACK CFI INIT 5cb74 1b4 .cfa: sp 0 +
STACK CFI 5cb78 .cfa: sp 144 +
STACK CFI 5cb8c .cfa: x29 64 + x19: .cfa -8 + ^ x20: .cfa -16 + ^ x21: .cfa -24 + ^ x22: .cfa -32 + ^ x23: .cfa -40 + ^ x24: .cfa -48 + ^ .ra: .cfa -56 + ^ x29: .cfa -64 + ^
STACK CFI 5cd0c .cfa: sp 144 +
STACK CFI 5cd20 .cfa: sp 0 +
STACK CFI 5cd24 .cfa: x29 64 +
STACK CFI INIT 5cd28 b00 .cfa: sp 0 +
STACK CFI 5cd2c .cfa: sp 256 +
STACK CFI 5cd48 .cfa: x29 96 + x19: .cfa -8 + ^ x20: .cfa -16 + ^ x21: .cfa -24 + ^ x22: .cfa -32 + ^ x23: .cfa -40 + ^ x24: .cfa -48 + ^ x25: .cfa -56 + ^ x26: .cfa -64 + ^ x27: .cfa -72 + ^ x28: .cfa -80 + ^ .ra: .cfa -88 + ^ x29: .cfa -96 + ^
STACK CFI 5d804 .cfa: sp 256 +
STACK CFI 5d820 .cfa: sp 0 +
STACK CFI 5d824 .cfa: x29 96 +
STACK CFI INIT 5d828 1d4 .cfa: sp 0 +
STACK CFI 5d82c .cfa: sp 144 +
STACK CFI 5d848 .cfa: x29 96 + x19: .cfa -8 + ^ x20: .cfa -16 + ^ x21: .cfa -24 + ^ x22: .cfa -32 + ^ x23: .cfa -40 + ^ x24: .cfa -48 + ^ x25: .cfa -56 + ^ x26: .cfa -64 + ^ x27: .cfa -80 + ^ .ra: .cfa -88 + ^ x29: .cfa -96 + ^
STACK CFI 5d9d8 .cfa: sp 144 +
STACK CFI 5d9f4 .cfa: sp 0 +
STACK CFI 5d9f8 .cfa: x29 96 +
STACK CFI INIT 5d9fc 200 .cfa: sp 0 +
STACK CFI 5da00 .cfa: sp 128 +
STACK CFI 5da18 .cfa: x29 80 + x19: .cfa -8 + ^ x20: .cfa -16 + ^ x21: .cfa -24 + ^ x22: .cfa -32 + ^ x23: .cfa -40 + ^ x24: .cfa -48 + ^ x25: .cfa -56 + ^ x26: .cfa -64 + ^ .ra: .cfa -72 + ^ x29: .cfa -80 + ^
STACK CFI 5dbdc .cfa: sp 128 +
STACK CFI 5dbf4 .cfa: sp 0 +
STACK CFI 5dbf8 .cfa: x29 80 +
STACK CFI INIT 5dbfc 1cc .cfa: sp 0 +
STACK CFI 5dc00 .cfa: sp 144 +
STACK CFI 5dc18 .cfa: x29 80 + x19: .cfa -8 + ^ x20: .cfa -16 + ^ x21: .cfa -24 + ^ x22: .cfa -32 + ^ x23: .cfa -40 + ^ x24: .cfa -48 + ^ x25: .cfa -64 + ^ .ra: .cfa -72 + ^ x29: .cfa -80 + ^
STACK CFI 5dda8 .cfa: sp 144 +
STACK CFI 5ddc0 .cfa: sp 0 +
STACK CFI 5ddc4 .cfa: x29 80 +
STACK CFI INIT 5ddc8 1d8 .cfa: sp 0 +
STACK CFI 5ddcc .cfa: sp 224 +
STACK CFI 5dde4 .cfa: x29 80 + x19: .cfa -8 + ^ x20: .cfa -16 + ^ x21: .cfa -24 + ^ x22: .cfa -32 + ^ x23: .cfa -40 + ^ x24: .cfa -48 + ^ x25: .cfa -64 + ^ .ra: .cfa -72 + ^ x29: .cfa -80 + ^
STACK CFI 5df80 .cfa: sp 224 +
STACK CFI 5df98 .cfa: sp 0 +
STACK CFI 5df9c .cfa: x29 80 +
STACK CFI INIT 5dfa0 138 .cfa: sp 0 +
STACK CFI 5dfa4 .cfa: sp 112 +
STACK CFI 5dfb8 .cfa: x29 64 + x19: .cfa -8 + ^ x20: .cfa -16 + ^ x21: .cfa -24 + ^ x22: .cfa -32 + ^ x23: .cfa -48 + ^ .ra: .cfa -56 + ^ x29: .cfa -64 + ^
STACK CFI 5e0a0 .cfa: sp 112 +
STACK CFI 5e0b4 .cfa: sp 0 +
STACK CFI 5e0b8 .cfa: x29 64 +
STACK CFI INIT 5e46c 520 .cfa: sp 0 +
STACK CFI 5e470 .cfa: sp 144 +
STACK CFI 5e48c .cfa: x29 96 + x19: .cfa -8 + ^ x20: .cfa -16 + ^ x21: .cfa -24 + ^ x22: .cfa -32 + ^ x23: .cfa -40 + ^ x24: .cfa -48 + ^ x25: .cfa -56 + ^ x26: .cfa -64 + ^ x27: .cfa -72 + ^ x28: .cfa -80 + ^ .ra: .cfa -88 + ^ x29: .cfa -96 + ^
STACK CFI 5e968 .cfa: sp 144 +
STACK CFI 5e984 .cfa: sp 0 +
STACK CFI 5e988 .cfa: x29 96 +
STACK CFI INIT 5f22c 20c .cfa: sp 0 +
STACK CFI 5f230 .cfa: sp 96 +
STACK CFI 5f244 .cfa: x29 64 + x19: .cfa -8 + ^ x20: .cfa -16 + ^ x21: .cfa -24 + ^ x22: .cfa -32 + ^ x23: .cfa -40 + ^ x24: .cfa -48 + ^ .ra: .cfa -56 + ^ x29: .cfa -64 + ^
STACK CFI 5f3f0 .cfa: sp 96 +
STACK CFI 5f404 .cfa: sp 0 +
STACK CFI 5f408 .cfa: x29 64 +
STACK CFI INIT 5f7c0 18c .cfa: sp 0 +
STACK CFI 5f7c4 .cfa: sp 96 +
STACK CFI 5f7dc .cfa: x29 96 + x19: .cfa -8 + ^ x20: .cfa -16 + ^ x21: .cfa -24 + ^ x22: .cfa -32 + ^ x23: .cfa -40 + ^ x24: .cfa -48 + ^ x25: .cfa -56 + ^ x26: .cfa -64 + ^ x27: .cfa -80 + ^ .ra: .cfa -88 + ^ x29: .cfa -96 + ^
STACK CFI 5f8dc .cfa: sp 96 +
STACK CFI 5f8f4 .cfa: sp 0 +
STACK CFI 5f8f8 .cfa: x29 96 +
STACK CFI INIT 60a90 11c .cfa: sp 0 +
STACK CFI 60a94 .cfa: sp 64 +
STACK CFI 60aa4 .cfa: x29 64 + x19: .cfa -8 + ^ x20: .cfa -16 + ^ x21: .cfa -24 + ^ x22: .cfa -32 + ^ x23: .cfa -40 + ^ x24: .cfa -48 + ^ .ra: .cfa -56 + ^ x29: .cfa -64 + ^
STACK CFI 60b38 .cfa: sp 64 +
STACK CFI 60b48 .cfa: sp 0 +
STACK CFI 60b4c .cfa: x29 64 +
STACK CFI 60b98 .cfa: sp 64 +
STACK CFI 60ba8 .cfa: sp 0 +
STACK CFI INIT 611d8 11c .cfa: sp 0 +
STACK CFI 611dc .cfa: sp 64 +
STACK CFI 611ec .cfa: x29 64 + x19: .cfa -8 + ^ x20: .cfa -16 + ^ x21: .cfa -24 + ^ x22: .cfa -32 + ^ x23: .cfa -40 + ^ x24: .cfa -48 + ^ .ra: .cfa -56 + ^ x29: .cfa -64 + ^
STACK CFI 61280 .cfa: sp 64 +
STACK CFI 61290 .cfa: sp 0 +
STACK CFI 61294 .cfa: x29 64 +
STACK CFI 612e0 .cfa: sp 64 +
STACK CFI 612f0 .cfa: sp 0 +
STACK CFI INIT 31940 dc .cfa: sp 0 +
STACK CFI 31944 .cfa: sp 96 +
STACK CFI 31954 .cfa: x29 48 + x19: .cfa -8 + ^ x20: .cfa -16 + ^ x21: .cfa -32 + ^ .ra: .cfa -40 + ^ x29: .cfa -48 + ^
STACK CFI 319e0 .cfa: sp 96 +
STACK CFI 319f0 .cfa: sp 0 +
STACK CFI 319f4 .cfa: x29 48 +
STACK CFI INIT 31a5c 470 .cfa: sp 0 +
STACK CFI 31a60 .cfa: sp 224 +
STACK CFI 31a7c .cfa: x29 96 + x19: .cfa -8 + ^ x20: .cfa -16 + ^ x21: .cfa -24 + ^ x22: .cfa -32 + ^ x23: .cfa -40 + ^ x24: .cfa -48 + ^ x25: .cfa -56 + ^ x26: .cfa -64 + ^ x27: .cfa -80 + ^ .ra: .cfa -88 + ^ x29: .cfa -96 + ^
STACK CFI 31cd8 .cfa: sp 224 +
STACK CFI 31cf4 .cfa: sp 0 +
STACK CFI 31cf8 .cfa: x29 96 +
STACK CFI 31dc4 .cfa: sp 224 +
STACK CFI 31de0 .cfa: sp 0 +
STACK CFI 31de4 .cfa: x29 96 +
STACK CFI INIT 31f40 50 .cfa: sp 0 +
STACK CFI 31f44 .cfa: sp 32 +
STACK CFI 31f4c .cfa: x29 32 + x19: .cfa -8 + ^ x20: .cfa -16 + ^ .ra: .cfa -24 + ^ x29: .cfa -32 + ^
STACK CFI INIT 32098 308 .cfa: sp 0 +
STACK CFI 3209c .cfa: sp 192 +
STACK CFI 320b0 .cfa: x29 64 + x19: .cfa -8 + ^ x20: .cfa -16 + ^ x21: .cfa -24 + ^ x22: .cfa -32 + ^ x23: .cfa -48 + ^ .ra: .cfa -56 + ^ x29: .cfa -64 + ^
STACK CFI 32298 .cfa: sp 192 +
STACK CFI 322ac .cfa: sp 0 +
STACK CFI 322b0 .cfa: x29 64 +
STACK CFI INIT 323f0 74 .cfa: sp 0 +
STACK CFI 323f4 .cfa: sp 48 +
STACK CFI 32400 .cfa: x29 32 + x19: .cfa -8 + ^ x20: .cfa -16 + ^ .ra: .cfa -24 + ^ x29: .cfa -32 + ^
STACK CFI 3244c .cfa: sp 48 +
STACK CFI 32458 .cfa: sp 0 +
STACK CFI 3245c .cfa: x29 32 +
STACK CFI INIT 324e4 154 .cfa: sp 0 +
STACK CFI 324e8 .cfa: sp 384 +
STACK CFI 324fc .cfa: x29 64 + x19: .cfa -8 + ^ x20: .cfa -16 + ^ x21: .cfa -24 + ^ x22: .cfa -32 + ^ x23: .cfa -40 + ^ x28: .cfa -48 + ^ .ra: .cfa -56 + ^ x29: .cfa -64 + ^
STACK CFI 325e0 .cfa: sp 384 +
STACK CFI 325f4 .cfa: sp 0 +
STACK CFI 325f8 .cfa: x29 64 +
STACK CFI INIT 3266c 134 .cfa: sp 0 +
STACK CFI 32670 .cfa: sp 80 +
STACK CFI 32684 .cfa: x29 80 + x19: .cfa -8 + ^ x20: .cfa -16 + ^ x21: .cfa -24 + ^ x22: .cfa -32 + ^ x23: .cfa -40 + ^ x24: .cfa -48 + ^ x25: .cfa -56 + ^ x26: .cfa -64 + ^ .ra: .cfa -72 + ^ x29: .cfa -80 + ^
STACK CFI 32754 .cfa: sp 80 +
STACK CFI 32768 .cfa: sp 0 +
STACK CFI 3276c .cfa: x29 80 +
STACK CFI INIT 32844 1a4 .cfa: sp 0 +
STACK CFI 32848 .cfa: sp 112 +
STACK CFI 32860 .cfa: x29 80 + x19: .cfa -8 + ^ x20: .cfa -16 + ^ x21: .cfa -24 + ^ x22: .cfa -32 + ^ x23: .cfa -40 + ^ x24: .cfa -48 + ^ x25: .cfa -56 + ^ x26: .cfa -64 + ^ .ra: .cfa -72 + ^ x29: .cfa -80 + ^
STACK CFI 32950 .cfa: sp 112 +
STACK CFI 32968 .cfa: sp 0 +
STACK CFI 3296c .cfa: x29 80 +
STACK CFI INIT 329e8 1ec .cfa: sp 0 +
STACK CFI 329ec .cfa: sp 128 +
STACK CFI 32a08 .cfa: x29 96 + x19: .cfa -8 + ^ x20: .cfa -16 + ^ x21: .cfa -24 + ^ x22: .cfa -32 + ^ x23: .cfa -40 + ^ x24: .cfa -48 + ^ x25: .cfa -56 + ^ x26: .cfa -64 + ^ x27: .cfa -80 + ^ .ra: .cfa -88 + ^ x29: .cfa -96 + ^
STACK CFI 32b84 .cfa: sp 128 +
STACK CFI 32ba0 .cfa: sp 0 +
STACK CFI 32ba4 .cfa: x29 96 +
STACK CFI INIT 32bd4 170 .cfa: sp 0 +
STACK CFI 32bd8 .cfa: sp 48 +
STACK CFI 32be4 .cfa: x29 48 + x19: .cfa -8 + ^ x20: .cfa -16 + ^ x21: .cfa -32 + ^ .ra: .cfa -40 + ^ x29: .cfa -48 + ^
STACK CFI 32d18 .cfa: sp 48 +
STACK CFI 32d24 .cfa: sp 0 +
STACK CFI 32d28 .cfa: x29 48 +
STACK CFI INIT 32f14 1b0 .cfa: sp 0 +
STACK CFI 32f18 .cfa: sp 128 +
STACK CFI 32f30 .cfa: x29 80 + x19: .cfa -8 + ^ x20: .cfa -16 + ^ x21: .cfa -24 + ^ x22: .cfa -32 + ^ x23: .cfa -40 + ^ x24: .cfa -48 + ^ x25: .cfa -64 + ^ .ra: .cfa -72 + ^ x29: .cfa -80 + ^
STACK CFI 33054 .cfa: sp 128 +
STACK CFI 3306c .cfa: sp 0 +
STACK CFI 33070 .cfa: x29 80 +
STACK CFI INIT 337a8 174 .cfa: sp 0 +
STACK CFI 337ac .cfa: sp 96 +
STACK CFI 337c0 .cfa: x29 64 + x19: .cfa -8 + ^ x20: .cfa -16 + ^ x21: .cfa -24 + ^ x22: .cfa -32 + ^ x23: .cfa -48 + ^ .ra: .cfa -56 + ^ x29: .cfa -64 + ^
STACK CFI 338d4 .cfa: sp 96 +
STACK CFI 338e8 .cfa: sp 0 +
STACK CFI 338ec .cfa: x29 64 +
STACK CFI INIT 3391c ac .cfa: sp 0 +
STACK CFI 33920 .cfa: sp 32 +
STACK CFI 33928 .cfa: x29 32 + x19: .cfa -8 + ^ x20: .cfa -16 + ^ .ra: .cfa -24 + ^ x29: .cfa -32 + ^
STACK CFI 33960 .cfa: sp 32 +
STACK CFI 33968 .cfa: sp 0 +
STACK CFI 3396c .cfa: x29 32 +
STACK CFI 33970 .cfa: sp 32 +
STACK CFI 33978 .cfa: sp 0 +
STACK CFI 3397c .cfa: x29 32 +
STACK CFI INIT 33b18 1b4 .cfa: sp 0 +
STACK CFI 33b1c .cfa: sp 128 +
STACK CFI 33b28 .cfa: x29 32 + x19: .cfa -8 + ^ x20: .cfa -16 + ^ .ra: .cfa -24 + ^ x29: .cfa -32 + ^
STACK CFI 33c44 .cfa: sp 128 +
STACK CFI 33c50 .cfa: sp 0 +
STACK CFI 33c54 .cfa: x29 32 +
STACK CFI INIT 33ccc 1dc .cfa: sp 0 +
STACK CFI 33cd0 .cfa: sp 208 +
STACK CFI 33ce8 .cfa: x29 80 + x19: .cfa -8 + ^ x20: .cfa -16 + ^ x21: .cfa -24 + ^ x22: .cfa -32 + ^ x23: .cfa -40 + ^ x24: .cfa -48 + ^ x25: .cfa -64 + ^ .ra: .cfa -72 + ^ x29: .cfa -80 + ^
STACK CFI 33e34 .cfa: sp 208 +
STACK CFI 33e4c .cfa: sp 0 +
STACK CFI 33e50 .cfa: x29 80 +
STACK CFI INIT 33ea8 74 .cfa: sp 0 +
STACK CFI 33eac .cfa: sp 48 +
STACK CFI 33eb8 .cfa: x29 32 + x19: .cfa -8 + ^ x20: .cfa -16 + ^ .ra: .cfa -24 + ^ x29: .cfa -32 + ^
STACK CFI 33f04 .cfa: sp 48 +
STACK CFI 33f10 .cfa: sp 0 +
STACK CFI 33f14 .cfa: x29 32 +
STACK CFI INIT 33f90 dc .cfa: sp 0 +
STACK CFI 33f94 .cfa: sp 64 +
STACK CFI 33fa4 .cfa: x29 48 + x19: .cfa -8 + ^ x20: .cfa -16 + ^ x21: .cfa -24 + ^ x22: .cfa -32 + ^ .ra: .cfa -40 + ^ x29: .cfa -48 + ^
STACK CFI 34030 .cfa: sp 64 +
STACK CFI 34040 .cfa: sp 0 +
STACK CFI 34044 .cfa: x29 48 +
STACK CFI INIT 34094 188 .cfa: sp 0 +
STACK CFI 34098 .cfa: sp 160 +
STACK CFI 340a8 .cfa: x29 48 + x19: .cfa -8 + ^ x20: .cfa -16 + ^ x21: .cfa -32 + ^ .ra: .cfa -40 + ^ x29: .cfa -48 + ^
STACK CFI 341c0 .cfa: sp 160 +
STACK CFI 341d0 .cfa: sp 0 +
STACK CFI 341d4 .cfa: x29 48 +
STACK CFI INIT 3453c 65c .cfa: sp 0 +
STACK CFI 34540 .cfa: sp 224 +
STACK CFI 3455c .cfa: x29 96 + x19: .cfa -8 + ^ x20: .cfa -16 + ^ x21: .cfa -24 + ^ x22: .cfa -32 + ^ x23: .cfa -40 + ^ x24: .cfa -48 + ^ x25: .cfa -56 + ^ x26: .cfa -64 + ^ x27: .cfa -80 + ^ .ra: .cfa -88 + ^ x29: .cfa -96 + ^
STACK CFI 34694 .cfa: sp 224 +
STACK CFI 346b0 .cfa: sp 0 +
STACK CFI 346b4 .cfa: x29 96 +
STACK CFI 34a58 .cfa: sp 224 +
STACK CFI 34a74 .cfa: sp 0 +
STACK CFI 34a78 .cfa: x29 96 +
STACK CFI INIT 34bb4 3bc .cfa: sp 0 +
STACK CFI 34bb8 .cfa: sp 256 +
STACK CFI 34bcc .cfa: x29 64 + x19: .cfa -8 + ^ x20: .cfa -16 + ^ x21: .cfa -24 + ^ x22: .cfa -32 + ^ x23: .cfa -48 + ^ .ra: .cfa -56 + ^ x29: .cfa -64 + ^
STACK CFI 34e38 .cfa: sp 256 +
STACK CFI 34e4c .cfa: sp 0 +
STACK CFI 34e50 .cfa: x29 64 +
STACK CFI INIT 34f74 1f4 .cfa: sp 0 +
STACK CFI 34f78 .cfa: sp 128 +
STACK CFI 34f94 .cfa: x29 96 + x19: .cfa -8 + ^ x20: .cfa -16 + ^ x21: .cfa -24 + ^ x22: .cfa -32 + ^ x23: .cfa -40 + ^ x24: .cfa -48 + ^ x25: .cfa -56 + ^ x26: .cfa -64 + ^ x27: .cfa -72 + ^ x28: .cfa -80 + ^ .ra: .cfa -88 + ^ x29: .cfa -96 + ^
STACK CFI 35120 .cfa: sp 128 +
STACK CFI 3513c .cfa: sp 0 +
STACK CFI 35140 .cfa: x29 96 +
STACK CFI INIT 351e4 168 .cfa: sp 0 +
STACK CFI 351e8 .cfa: sp 384 +
STACK CFI 351fc .cfa: x29 64 + x19: .cfa -8 + ^ x20: .cfa -16 + ^ x21: .cfa -24 + ^ x22: .cfa -32 + ^ x23: .cfa -40 + ^ x28: .cfa -48 + ^ .ra: .cfa -56 + ^ x29: .cfa -64 + ^
STACK CFI 352f4 .cfa: sp 384 +
STACK CFI 35308 .cfa: sp 0 +
STACK CFI 3530c .cfa: x29 64 +
STACK CFI INIT 35364 4cc .cfa: sp 0 +
STACK CFI 35368 .cfa: sp 128 +
STACK CFI 35388 .cfa: x29 96 + x19: .cfa -8 + ^ x20: .cfa -16 + ^ x21: .cfa -24 + ^ x22: .cfa -32 + ^ x23: .cfa -40 + ^ x24: .cfa -48 + ^ x25: .cfa -56 + ^ x26: .cfa -64 + ^ x27: .cfa -72 + ^ x28: .cfa -80 + ^ .ra: .cfa -88 + ^ x29: .cfa -96 + ^ v8: .cfa -104 + ^ v9: .cfa -112 + ^ v10: .cfa -128 + ^
STACK CFI 35794 .cfa: sp 128 +
STACK CFI 357b4 .cfa: sp 0 +
STACK CFI 357b8 .cfa: x29 96 +
STACK CFI INIT 35844 1bc .cfa: sp 0 +
STACK CFI 35848 .cfa: sp 48 +
STACK CFI 35854 .cfa: x29 48 + x19: .cfa -8 + ^ x20: .cfa -16 + ^ x21: .cfa -32 + ^ .ra: .cfa -40 + ^ x29: .cfa -48 + ^
STACK CFI 35954 .cfa: sp 48 +
STACK CFI 35960 .cfa: sp 0 +
STACK CFI 35964 .cfa: x29 48 +
STACK CFI INIT 35a84 fc .cfa: sp 0 +
STACK CFI 35a88 .cfa: sp 112 +
STACK CFI 35aa0 .cfa: x29 80 + x19: .cfa -8 + ^ x20: .cfa -16 + ^ x21: .cfa -24 + ^ x22: .cfa -32 + ^ x23: .cfa -40 + ^ x24: .cfa -48 + ^ x25: .cfa -64 + ^ .ra: .cfa -72 + ^ x29: .cfa -80 + ^
STACK CFI 35b2c .cfa: sp 112 +
STACK CFI 35b44 .cfa: sp 0 +
STACK CFI 35b48 .cfa: x29 80 +
STACK CFI INIT 35bb0 1e4 .cfa: sp 0 +
STACK CFI 35bb4 .cfa: sp 160 +
STACK CFI 35bc4 .cfa: x29 48 + x19: .cfa -8 + ^ x20: .cfa -16 + ^ x21: .cfa -24 + ^ x22: .cfa -32 + ^ .ra: .cfa -40 + ^ x29: .cfa -48 + ^
STACK CFI 35d24 .cfa: sp 160 +
STACK CFI 35d34 .cfa: sp 0 +
STACK CFI 35d38 .cfa: x29 48 +
STACK CFI INIT 35d94 74 .cfa: sp 0 +
STACK CFI 35d98 .cfa: sp 48 +
STACK CFI 35da4 .cfa: x29 32 + x19: .cfa -8 + ^ x20: .cfa -16 + ^ .ra: .cfa -24 + ^ x29: .cfa -32 + ^
STACK CFI 35df0 .cfa: sp 48 +
STACK CFI 35dfc .cfa: sp 0 +
STACK CFI 35e00 .cfa: x29 32 +
STACK CFI INIT 35e08 454 .cfa: sp 0 +
STACK CFI 35e0c .cfa: sp 432 +
STACK CFI 35e28 .cfa: x29 96 + x19: .cfa -8 + ^ x20: .cfa -16 + ^ x21: .cfa -24 + ^ x22: .cfa -32 + ^ x23: .cfa -40 + ^ x24: .cfa -48 + ^ x25: .cfa -56 + ^ x26: .cfa -64 + ^ x27: .cfa -72 + ^ x28: .cfa -80 + ^ .ra: .cfa -88 + ^ x29: .cfa -96 + ^
STACK CFI 3612c .cfa: sp 432 +
STACK CFI 36148 .cfa: sp 0 +
STACK CFI 3614c .cfa: x29 96 +
STACK CFI INIT 3625c 10c .cfa: sp 0 +
STACK CFI 36260 .cfa: sp 96 +
STACK CFI 36270 .cfa: x29 48 + x19: .cfa -8 + ^ x20: .cfa -16 + ^ x21: .cfa -24 + ^ x22: .cfa -32 + ^ .ra: .cfa -40 + ^ x29: .cfa -48 + ^
STACK CFI 36318 .cfa: sp 96 +
STACK CFI 36328 .cfa: sp 0 +
STACK CFI 3632c .cfa: x29 48 +
STACK CFI INIT 36368 74 .cfa: sp 0 +
STACK CFI 3636c .cfa: sp 48 +
STACK CFI 36378 .cfa: x29 32 + x19: .cfa -8 + ^ x20: .cfa -16 + ^ .ra: .cfa -24 + ^ x29: .cfa -32 + ^
STACK CFI 363c4 .cfa: sp 48 +
STACK CFI 363d0 .cfa: sp 0 +
STACK CFI 363d4 .cfa: x29 32 +
STACK CFI INIT 363f0 1c0 .cfa: sp 0 +
STACK CFI 363f4 .cfa: sp 160 +
STACK CFI 36410 .cfa: x29 96 + x19: .cfa -8 + ^ x20: .cfa -16 + ^ x21: .cfa -24 + ^ x22: .cfa -32 + ^ x23: .cfa -40 + ^ x24: .cfa -48 + ^ x25: .cfa -56 + ^ x26: .cfa -64 + ^ x27: .cfa -80 + ^ .ra: .cfa -88 + ^ x29: .cfa -96 + ^
STACK CFI 36568 .cfa: sp 160 +
STACK CFI 36584 .cfa: sp 0 +
STACK CFI 36588 .cfa: x29 96 +
STACK CFI INIT 36688 38 .cfa: sp 0 +
STACK CFI 3668c .cfa: sp 16 +
STACK CFI 36690 .cfa: x29 16 + .ra: .cfa -8 + ^ x29: .cfa -16 + ^
STACK CFI 366b4 .cfa: sp 16 +
STACK CFI 366b8 .cfa: sp 0 +
STACK CFI 366bc .cfa: x29 16 +
STACK CFI INIT 36814 794 .cfa: sp 0 +
STACK CFI 36818 .cfa: sp 96 +
STACK CFI 36830 .cfa: x29 96 + x19: .cfa -8 + ^ x20: .cfa -16 + ^ x21: .cfa -24 + ^ x22: .cfa -32 + ^ x23: .cfa -40 + ^ x24: .cfa -48 + ^ x25: .cfa -56 + ^ x26: .cfa -64 + ^ x28: .cfa -80 + ^ .ra: .cfa -88 + ^ x29: .cfa -96 + ^
STACK CFI 36e28 .cfa: sp 96 +
STACK CFI 36e40 .cfa: sp 0 +
STACK CFI 36e44 .cfa: x29 96 +
STACK CFI INIT 36fa8 104 .cfa: sp 0 +
STACK CFI 36fac .cfa: sp 112 +
STACK CFI 36fb8 .cfa: x29 32 + x19: .cfa -8 + ^ x20: .cfa -16 + ^ .ra: .cfa -24 + ^ x29: .cfa -32 + ^
STACK CFI 3707c .cfa: sp 112 +
STACK CFI 37088 .cfa: sp 0 +
STACK CFI 3708c .cfa: x29 32 +
STACK CFI INIT 370ac 108 .cfa: sp 0 +
STACK CFI 370b0 .cfa: sp 112 +
STACK CFI 370bc .cfa: x29 32 + x19: .cfa -8 + ^ x20: .cfa -16 + ^ .ra: .cfa -24 + ^ x29: .cfa -32 + ^
STACK CFI 37184 .cfa: sp 112 +
STACK CFI 37190 .cfa: sp 0 +
STACK CFI 37194 .cfa: x29 32 +
STACK CFI INIT 371b4 74 .cfa: sp 0 +
STACK CFI 371b8 .cfa: sp 48 +
STACK CFI 371c4 .cfa: x29 32 + x19: .cfa -8 + ^ x20: .cfa -16 + ^ .ra: .cfa -24 + ^ x29: .cfa -32 + ^
STACK CFI 37210 .cfa: sp 48 +
STACK CFI 3721c .cfa: sp 0 +
STACK CFI 37220 .cfa: x29 32 +
STACK CFI INIT 37228 74 .cfa: sp 0 +
STACK CFI 3722c .cfa: sp 48 +
STACK CFI 37238 .cfa: x29 32 + x19: .cfa -8 + ^ x20: .cfa -16 + ^ .ra: .cfa -24 + ^ x29: .cfa -32 + ^
STACK CFI 37284 .cfa: sp 48 +
STACK CFI 37290 .cfa: sp 0 +
STACK CFI 37294 .cfa: x29 32 +
STACK CFI INIT 3729c 74 .cfa: sp 0 +
STACK CFI 372a0 .cfa: sp 48 +
STACK CFI 372ac .cfa: x29 32 + x19: .cfa -8 + ^ x20: .cfa -16 + ^ .ra: .cfa -24 + ^ x29: .cfa -32 + ^
STACK CFI 372f8 .cfa: sp 48 +
STACK CFI 37304 .cfa: sp 0 +
STACK CFI 37308 .cfa: x29 32 +
STACK CFI INIT 373b4 1fc .cfa: sp 0 +
STACK CFI 373b8 .cfa: sp 112 +
STACK CFI 373cc .cfa: x29 64 + x19: .cfa -8 + ^ x20: .cfa -16 + ^ x21: .cfa -24 + ^ x22: .cfa -32 + ^ x23: .cfa -48 + ^ .ra: .cfa -56 + ^ x29: .cfa -64 + ^
STACK CFI 37544 .cfa: sp 112 +
STACK CFI 37558 .cfa: sp 0 +
STACK CFI 3755c .cfa: x29 64 +
STACK CFI INIT 37648 140 .cfa: sp 0 +
STACK CFI 3764c .cfa: sp 144 +
STACK CFI 37660 .cfa: x29 64 + x19: .cfa -8 + ^ x20: .cfa -16 + ^ x21: .cfa -24 + ^ x22: .cfa -32 + ^ x23: .cfa -40 + ^ x24: .cfa -48 + ^ .ra: .cfa -56 + ^ x29: .cfa -64 + ^
STACK CFI 3771c .cfa: sp 144 +
STACK CFI 37730 .cfa: sp 0 +
STACK CFI 37734 .cfa: x29 64 +
STACK CFI INIT 378c4 1c8 .cfa: sp 0 +
STACK CFI 378c8 .cfa: sp 144 +
STACK CFI 378dc .cfa: x29 64 + x19: .cfa -8 + ^ x20: .cfa -16 + ^ x21: .cfa -24 + ^ x22: .cfa -32 + ^ x23: .cfa -48 + ^ .ra: .cfa -56 + ^ x29: .cfa -64 + ^
STACK CFI 37a28 .cfa: sp 144 +
STACK CFI 37a3c .cfa: sp 0 +
STACK CFI 37a40 .cfa: x29 64 +
STACK CFI INIT 37c3c 410 .cfa: sp 0 +
STACK CFI 37c40 .cfa: sp 432 +
STACK CFI 37c5c .cfa: x29 96 + x19: .cfa -8 + ^ x20: .cfa -16 + ^ x21: .cfa -24 + ^ x22: .cfa -32 + ^ x23: .cfa -40 + ^ x24: .cfa -48 + ^ x25: .cfa -56 + ^ x26: .cfa -64 + ^ x27: .cfa -72 + ^ x28: .cfa -80 + ^ .ra: .cfa -88 + ^ x29: .cfa -96 + ^
STACK CFI 37f54 .cfa: sp 432 +
STACK CFI 37f70 .cfa: sp 0 +
STACK CFI 37f74 .cfa: x29 96 +
STACK CFI INIT 3804c 1b4 .cfa: sp 0 +
STACK CFI 38050 .cfa: sp 128 +
STACK CFI 38064 .cfa: x29 64 + x19: .cfa -8 + ^ x20: .cfa -16 + ^ x21: .cfa -24 + ^ x22: .cfa -32 + ^ x23: .cfa -48 + ^ .ra: .cfa -56 + ^ x29: .cfa -64 + ^
STACK CFI 381a4 .cfa: sp 128 +
STACK CFI 381b8 .cfa: sp 0 +
STACK CFI 381bc .cfa: x29 64 +
STACK CFI INIT 38200 d8 .cfa: sp 0 +
STACK CFI 38204 .cfa: sp 64 +
STACK CFI 38214 .cfa: x29 64 + x19: .cfa -8 + ^ x20: .cfa -16 + ^ x21: .cfa -24 + ^ x22: .cfa -32 + ^ x23: .cfa -40 + ^ x24: .cfa -48 + ^ .ra: .cfa -56 + ^ x29: .cfa -64 + ^
STACK CFI 382a0 .cfa: sp 64 +
STACK CFI 382b0 .cfa: sp 0 +
STACK CFI 382b4 .cfa: x29 64 +
STACK CFI INIT 382d8 1a0 .cfa: sp 0 +
STACK CFI 382dc .cfa: sp 112 +
STACK CFI 382f4 .cfa: x29 80 + x19: .cfa -8 + ^ x20: .cfa -16 + ^ x21: .cfa -24 + ^ x22: .cfa -32 + ^ x23: .cfa -40 + ^ x24: .cfa -48 + ^ x25: .cfa -64 + ^ .ra: .cfa -72 + ^ x29: .cfa -80 + ^
STACK CFI 383dc .cfa: sp 112 +
STACK CFI 383f4 .cfa: sp 0 +
STACK CFI 383f8 .cfa: x29 80 +
STACK CFI INIT 38478 1a0 .cfa: sp 0 +
STACK CFI 3847c .cfa: sp 112 +
STACK CFI 38494 .cfa: x29 80 + x19: .cfa -8 + ^ x20: .cfa -16 + ^ x21: .cfa -24 + ^ x22: .cfa -32 + ^ x23: .cfa -40 + ^ x24: .cfa -48 + ^ x25: .cfa -64 + ^ .ra: .cfa -72 + ^ x29: .cfa -80 + ^
STACK CFI 3857c .cfa: sp 112 +
STACK CFI 38594 .cfa: sp 0 +
STACK CFI 38598 .cfa: x29 80 +
STACK CFI INIT 38618 d8 .cfa: sp 0 +
STACK CFI 3861c .cfa: sp 64 +
STACK CFI 3862c .cfa: x29 64 + x19: .cfa -8 + ^ x20: .cfa -16 + ^ x21: .cfa -24 + ^ x22: .cfa -32 + ^ x23: .cfa -40 + ^ x24: .cfa -48 + ^ .ra: .cfa -56 + ^ x29: .cfa -64 + ^
STACK CFI 386b8 .cfa: sp 64 +
STACK CFI 386c8 .cfa: sp 0 +
STACK CFI 386cc .cfa: x29 64 +
STACK CFI INIT 386f0 1a0 .cfa: sp 0 +
STACK CFI 386f4 .cfa: sp 112 +
STACK CFI 3870c .cfa: x29 80 + x19: .cfa -8 + ^ x20: .cfa -16 + ^ x21: .cfa -24 + ^ x22: .cfa -32 + ^ x23: .cfa -40 + ^ x24: .cfa -48 + ^ x25: .cfa -64 + ^ .ra: .cfa -72 + ^ x29: .cfa -80 + ^
STACK CFI 387f4 .cfa: sp 112 +
STACK CFI 3880c .cfa: sp 0 +
STACK CFI 38810 .cfa: x29 80 +
STACK CFI INIT 38890 d8 .cfa: sp 0 +
STACK CFI 38894 .cfa: sp 64 +
STACK CFI 388a4 .cfa: x29 64 + x19: .cfa -8 + ^ x20: .cfa -16 + ^ x21: .cfa -24 + ^ x22: .cfa -32 + ^ x23: .cfa -40 + ^ x24: .cfa -48 + ^ .ra: .cfa -56 + ^ x29: .cfa -64 + ^
STACK CFI 38930 .cfa: sp 64 +
STACK CFI 38940 .cfa: sp 0 +
STACK CFI 38944 .cfa: x29 64 +
STACK CFI INIT 38968 178 .cfa: sp 0 +
STACK CFI 3896c .cfa: sp 112 +
STACK CFI 38984 .cfa: x29 80 + x19: .cfa -8 + ^ x20: .cfa -16 + ^ x21: .cfa -24 + ^ x22: .cfa -32 + ^ x23: .cfa -40 + ^ x24: .cfa -48 + ^ x25: .cfa -64 + ^ .ra: .cfa -72 + ^ x29: .cfa -80 + ^
STACK CFI 38a54 .cfa: sp 112 +
STACK CFI 38a6c .cfa: sp 0 +
STACK CFI 38a70 .cfa: x29 80 +
STACK CFI INIT 38ae0 dc .cfa: sp 0 +
STACK CFI 38ae4 .cfa: sp 64 +
STACK CFI 38af4 .cfa: x29 64 + x19: .cfa -8 + ^ x20: .cfa -16 + ^ x21: .cfa -24 + ^ x22: .cfa -32 + ^ x23: .cfa -40 + ^ x24: .cfa -48 + ^ .ra: .cfa -56 + ^ x29: .cfa -64 + ^
STACK CFI 38b84 .cfa: sp 64 +
STACK CFI 38b94 .cfa: sp 0 +
STACK CFI 38b98 .cfa: x29 64 +
STACK CFI INIT 38bf8 1a0 .cfa: sp 0 +
STACK CFI 38bfc .cfa: sp 128 +
STACK CFI 38c14 .cfa: x29 80 + x19: .cfa -8 + ^ x20: .cfa -16 + ^ x21: .cfa -24 + ^ x22: .cfa -32 + ^ x23: .cfa -40 + ^ x24: .cfa -48 + ^ x25: .cfa -56 + ^ x26: .cfa -64 + ^ .ra: .cfa -72 + ^ x29: .cfa -80 + ^
STACK CFI 38d28 .cfa: sp 128 +
STACK CFI 38d40 .cfa: sp 0 +
STACK CFI 38d44 .cfa: x29 80 +
STACK CFI INIT 38eb4 65c .cfa: sp 0 +
STACK CFI 38eb8 .cfa: sp 224 +
STACK CFI 38ed4 .cfa: x29 96 + x19: .cfa -8 + ^ x20: .cfa -16 + ^ x21: .cfa -24 + ^ x22: .cfa -32 + ^ x23: .cfa -40 + ^ x24: .cfa -48 + ^ x25: .cfa -56 + ^ x26: .cfa -64 + ^ x27: .cfa -80 + ^ .ra: .cfa -88 + ^ x29: .cfa -96 + ^
STACK CFI 3900c .cfa: sp 224 +
STACK CFI 39028 .cfa: sp 0 +
STACK CFI 3902c .cfa: x29 96 +
STACK CFI 393d0 .cfa: sp 224 +
STACK CFI 393ec .cfa: sp 0 +
STACK CFI 393f0 .cfa: x29 96 +
STACK CFI INIT 3952c 374 .cfa: sp 0 +
STACK CFI 39530 .cfa: sp 256 +
STACK CFI 39544 .cfa: x29 64 + x19: .cfa -8 + ^ x20: .cfa -16 + ^ x21: .cfa -24 + ^ x22: .cfa -32 + ^ x23: .cfa -48 + ^ .ra: .cfa -56 + ^ x29: .cfa -64 + ^
STACK CFI 39774 .cfa: sp 256 +
STACK CFI 39788 .cfa: sp 0 +
STACK CFI 3978c .cfa: x29 64 +
STACK CFI INIT 398a4 5b0 .cfa: sp 0 +
STACK CFI 398a8 .cfa: sp 128 +
STACK CFI 398c8 .cfa: x29 96 + x19: .cfa -8 + ^ x20: .cfa -16 + ^ x21: .cfa -24 + ^ x22: .cfa -32 + ^ x23: .cfa -40 + ^ x24: .cfa -48 + ^ x25: .cfa -56 + ^ x26: .cfa -64 + ^ x27: .cfa -72 + ^ x28: .cfa -80 + ^ .ra: .cfa -88 + ^ x29: .cfa -96 + ^ v8: .cfa -104 + ^ v9: .cfa -112 + ^ v10: .cfa -128 + ^
STACK CFI 39d9c .cfa: sp 128 +
STACK CFI 39dbc .cfa: sp 0 +
STACK CFI 39dc0 .cfa: x29 96 +
STACK CFI INIT 3a094 470 .cfa: sp 0 +
STACK CFI 3a098 .cfa: sp 224 +
STACK CFI 3a0b4 .cfa: x29 96 + x19: .cfa -8 + ^ x20: .cfa -16 + ^ x21: .cfa -24 + ^ x22: .cfa -32 + ^ x23: .cfa -40 + ^ x24: .cfa -48 + ^ x25: .cfa -56 + ^ x26: .cfa -64 + ^ x27: .cfa -80 + ^ .ra: .cfa -88 + ^ x29: .cfa -96 + ^
STACK CFI 3a310 .cfa: sp 224 +
STACK CFI 3a32c .cfa: sp 0 +
STACK CFI 3a330 .cfa: x29 96 +
STACK CFI 3a3fc .cfa: sp 224 +
STACK CFI 3a418 .cfa: sp 0 +
STACK CFI 3a41c .cfa: x29 96 +
STACK CFI INIT 3a520 65c .cfa: sp 0 +
STACK CFI 3a524 .cfa: sp 224 +
STACK CFI 3a540 .cfa: x29 96 + x19: .cfa -8 + ^ x20: .cfa -16 + ^ x21: .cfa -24 + ^ x22: .cfa -32 + ^ x23: .cfa -40 + ^ x24: .cfa -48 + ^ x25: .cfa -56 + ^ x26: .cfa -64 + ^ x27: .cfa -80 + ^ .ra: .cfa -88 + ^ x29: .cfa -96 + ^
STACK CFI 3a678 .cfa: sp 224 +
STACK CFI 3a694 .cfa: sp 0 +
STACK CFI 3a698 .cfa: x29 96 +
STACK CFI 3aa3c .cfa: sp 224 +
STACK CFI 3aa58 .cfa: sp 0 +
STACK CFI 3aa5c .cfa: x29 96 +
STACK CFI INIT 3ab98 374 .cfa: sp 0 +
STACK CFI 3ab9c .cfa: sp 256 +
STACK CFI 3abb0 .cfa: x29 64 + x19: .cfa -8 + ^ x20: .cfa -16 + ^ x21: .cfa -24 + ^ x22: .cfa -32 + ^ x23: .cfa -48 + ^ .ra: .cfa -56 + ^ x29: .cfa -64 + ^
STACK CFI 3ade0 .cfa: sp 256 +
STACK CFI 3adf4 .cfa: sp 0 +
STACK CFI 3adf8 .cfa: x29 64 +
STACK CFI INIT 3af10 50 .cfa: sp 0 +
STACK CFI 3af14 .cfa: sp 32 +
STACK CFI 3af1c .cfa: x29 32 + x19: .cfa -8 + ^ x20: .cfa -16 + ^ .ra: .cfa -24 + ^ x29: .cfa -32 + ^
STACK CFI INIT 3afe0 18c .cfa: sp 0 +
STACK CFI 3afe4 .cfa: sp 112 +
STACK CFI 3aff4 .cfa: x29 48 + x19: .cfa -8 + ^ x20: .cfa -16 + ^ x21: .cfa -32 + ^ .ra: .cfa -40 + ^ x29: .cfa -48 + ^
STACK CFI 3b0c0 .cfa: sp 112 +
STACK CFI 3b0d0 .cfa: sp 0 +
STACK CFI 3b0d4 .cfa: x29 48 +
STACK CFI INIT 3b16c 22c .cfa: sp 0 +
STACK CFI 3b170 .cfa: sp 176 +
STACK CFI 3b18c .cfa: x29 96 + x19: .cfa -8 + ^ x20: .cfa -16 + ^ x21: .cfa -24 + ^ x22: .cfa -32 + ^ x23: .cfa -40 + ^ x24: .cfa -48 + ^ x25: .cfa -56 + ^ x26: .cfa -64 + ^ x27: .cfa -72 + ^ x28: .cfa -80 + ^ .ra: .cfa -88 + ^ x29: .cfa -96 + ^
STACK CFI 3b1cc .cfa: sp 176 +
STACK CFI 3b1e8 .cfa: sp 0 +
STACK CFI 3b1ec .cfa: x29 96 +
STACK CFI INIT 3b398 10c .cfa: sp 0 +
STACK CFI 3b39c .cfa: sp 64 +
STACK CFI 3b3ac .cfa: x29 64 + x19: .cfa -8 + ^ x20: .cfa -16 + ^ x21: .cfa -24 + ^ x22: .cfa -32 + ^ x23: .cfa -48 + ^ .ra: .cfa -56 + ^ x29: .cfa -64 + ^
STACK CFI 3b484 .cfa: sp 64 +
STACK CFI 3b494 .cfa: sp 0 +
STACK CFI 3b498 .cfa: x29 64 +
STACK CFI INIT 3b4bc 21c .cfa: sp 0 +
STACK CFI 3b4c0 .cfa: sp 96 +
STACK CFI 3b4d8 .cfa: x29 96 + x19: .cfa -8 + ^ x20: .cfa -16 + ^ x21: .cfa -24 + ^ x22: .cfa -32 + ^ x23: .cfa -40 + ^ x24: .cfa -48 + ^ x25: .cfa -56 + ^ x26: .cfa -64 + ^ x27: .cfa -72 + ^ x28: .cfa -80 + ^ .ra: .cfa -88 + ^ x29: .cfa -96 + ^
STACK CFI 3b6ac .cfa: sp 96 +
STACK CFI 3b6c4 .cfa: sp 0 +
STACK CFI 3b6c8 .cfa: x29 96 +
STACK CFI INIT 3b79c 324 .cfa: sp 0 +
STACK CFI 3b7a0 .cfa: sp 224 +
STACK CFI 3b7b4 .cfa: x29 64 + x19: .cfa -8 + ^ x20: .cfa -16 + ^ x21: .cfa -24 + ^ x22: .cfa -32 + ^ x23: .cfa -48 + ^ .ra: .cfa -56 + ^ x29: .cfa -64 + ^
STACK CFI 3b9a8 .cfa: sp 224 +
STACK CFI 3b9bc .cfa: sp 0 +
STACK CFI 3b9c0 .cfa: x29 64 +
STACK CFI INIT 3bac4 20c8 .cfa: sp 0 +
STACK CFI 3bac8 .cfa: sp 144 +
STACK CFI 3baec .cfa: x29 96 + x19: .cfa -8 + ^ x20: .cfa -16 + ^ x21: .cfa -24 + ^ x22: .cfa -32 + ^ x23: .cfa -40 + ^ x24: .cfa -48 + ^ x25: .cfa -56 + ^ x26: .cfa -64 + ^ x27: .cfa -72 + ^ x28: .cfa -80 + ^ .ra: .cfa -88 + ^ x29: .cfa -96 + ^ v8: .cfa -104 + ^ v9: .cfa -112 + ^ v10: .cfa -120 + ^ v11: .cfa -128 + ^ v12: .cfa -136 + ^ v13: .cfa -144 + ^
STACK CFI 3bb28 .cfa: sp 144 +
STACK CFI 3bb4c .cfa: sp 0 +
STACK CFI 3bb50 .cfa: x29 96 +
STACK CFI INIT 3db8c fc .cfa: sp 0 +
STACK CFI 3db90 .cfa: sp 128 +
STACK CFI 3dba0 .cfa: x29 48 + x19: .cfa -8 + ^ x20: .cfa -16 + ^ x21: .cfa -24 + ^ x22: .cfa -32 + ^ .ra: .cfa -40 + ^ x29: .cfa -48 + ^
STACK CFI 3dc4c .cfa: sp 128 +
STACK CFI 3dc5c .cfa: sp 0 +
STACK CFI 3dc60 .cfa: x29 48 +
STACK CFI INIT 3dc88 18c .cfa: sp 0 +
STACK CFI 3dc8c .cfa: sp 80 +
STACK CFI 3dca0 .cfa: x29 80 + x19: .cfa -8 + ^ x20: .cfa -16 + ^ x21: .cfa -24 + ^ x22: .cfa -32 + ^ x23: .cfa -40 + ^ x24: .cfa -48 + ^ x28: .cfa -64 + ^ .ra: .cfa -72 + ^ x29: .cfa -80 + ^
STACK CFI 3dd5c .cfa: sp 80 +
STACK CFI 3dd70 .cfa: sp 0 +
STACK CFI 3dd74 .cfa: x29 80 +
STACK CFI INIT 4073c 810 .cfa: sp 0 +
STACK CFI 40740 .cfa: sp 176 +
STACK CFI 4075c .cfa: x29 80 + x19: .cfa -8 + ^ x20: .cfa -16 + ^ x21: .cfa -24 + ^ x22: .cfa -32 + ^ x23: .cfa -40 + ^ x24: .cfa -48 + ^ x25: .cfa -64 + ^ .ra: .cfa -72 + ^ x29: .cfa -80 + ^ v8: .cfa -88 + ^ v9: .cfa -96 + ^
STACK CFI 40ec8 .cfa: sp 176 +
STACK CFI 40ee4 .cfa: sp 0 +
STACK CFI 40ee8 .cfa: x29 80 +
STACK CFI INIT 40f4c 254 .cfa: sp 0 +
STACK CFI 40f50 .cfa: sp 64 +
STACK CFI 40f60 .cfa: x29 48 + x19: .cfa -8 + ^ x20: .cfa -16 + ^ x21: .cfa -32 + ^ .ra: .cfa -40 + ^ x29: .cfa -48 + ^
STACK CFI 41164 .cfa: sp 64 +
STACK CFI 41174 .cfa: sp 0 +
STACK CFI 41178 .cfa: x29 48 +
STACK CFI INIT 411a0 184 .cfa: sp 0 +
STACK CFI 411a4 .cfa: sp 112 +
STACK CFI 411bc .cfa: x29 64 + x19: .cfa -8 + ^ x20: .cfa -16 + ^ x21: .cfa -24 + ^ x22: .cfa -32 + ^ x23: .cfa -40 + ^ x24: .cfa -48 + ^ .ra: .cfa -56 + ^ x29: .cfa -64 + ^ v8: .cfa -72 + ^ v9: .cfa -80 + ^
STACK CFI 412e0 .cfa: sp 112 +
STACK CFI 412f8 .cfa: sp 0 +
STACK CFI 412fc .cfa: x29 64 +
STACK CFI INIT 41324 15c .cfa: sp 0 +
STACK CFI 41328 .cfa: sp 224 +
STACK CFI 4133c .cfa: x29 64 + x19: .cfa -8 + ^ x20: .cfa -16 + ^ x21: .cfa -24 + ^ x22: .cfa -32 + ^ x23: .cfa -48 + ^ .ra: .cfa -56 + ^ x29: .cfa -64 + ^
STACK CFI 41430 .cfa: sp 224 +
STACK CFI 41444 .cfa: sp 0 +
STACK CFI 41448 .cfa: x29 64 +
STACK CFI INIT 41480 d0 .cfa: sp 0 +
STACK CFI 41484 .cfa: sp 48 +
STACK CFI 41490 .cfa: x29 48 + x19: .cfa -8 + ^ x20: .cfa -16 + ^ x21: .cfa -32 + ^ .ra: .cfa -40 + ^ x29: .cfa -48 + ^
STACK CFI 414c4 .cfa: sp 48 +
STACK CFI 414d0 .cfa: sp 0 +
STACK CFI 414d4 .cfa: x29 48 +
STACK CFI INIT 41920 a00 .cfa: sp 0 +
STACK CFI 41924 .cfa: sp 160 +
STACK CFI 4193c .cfa: x29 64 + x19: .cfa -8 + ^ x20: .cfa -16 + ^ x21: .cfa -24 + ^ x22: .cfa -32 + ^ x23: .cfa -40 + ^ x24: .cfa -48 + ^ .ra: .cfa -56 + ^ x29: .cfa -64 + ^ v8: .cfa -72 + ^ v9: .cfa -80 + ^
STACK CFI 4225c .cfa: sp 160 +
STACK CFI 42274 .cfa: sp 0 +
STACK CFI 42278 .cfa: x29 64 +
STACK CFI INIT 42320 4e0 .cfa: sp 0 +
STACK CFI 42324 .cfa: sp 352 +
STACK CFI 42340 .cfa: x29 96 + x19: .cfa -8 + ^ x20: .cfa -16 + ^ x21: .cfa -24 + ^ x22: .cfa -32 + ^ x23: .cfa -40 + ^ x24: .cfa -48 + ^ x25: .cfa -56 + ^ x26: .cfa -64 + ^ x27: .cfa -72 + ^ x28: .cfa -80 + ^ .ra: .cfa -88 + ^ x29: .cfa -96 + ^
STACK CFI 426e4 .cfa: sp 352 +
STACK CFI 42700 .cfa: sp 0 +
STACK CFI 42704 .cfa: x29 96 +
STACK CFI INIT 42800 15c .cfa: sp 0 +
STACK CFI 42804 .cfa: sp 224 +
STACK CFI 42818 .cfa: x29 64 + x19: .cfa -8 + ^ x20: .cfa -16 + ^ x21: .cfa -24 + ^ x22: .cfa -32 + ^ x23: .cfa -48 + ^ .ra: .cfa -56 + ^ x29: .cfa -64 + ^
STACK CFI 4290c .cfa: sp 224 +
STACK CFI 42920 .cfa: sp 0 +
STACK CFI 42924 .cfa: x29 64 +
STACK CFI INIT 4295c d0 .cfa: sp 0 +
STACK CFI 42960 .cfa: sp 48 +
STACK CFI 4296c .cfa: x29 48 + x19: .cfa -8 + ^ x20: .cfa -16 + ^ x21: .cfa -32 + ^ .ra: .cfa -40 + ^ x29: .cfa -48 + ^
STACK CFI 429a0 .cfa: sp 48 +
STACK CFI 429ac .cfa: sp 0 +
STACK CFI 429b0 .cfa: x29 48 +
STACK CFI INIT 42b30 74 .cfa: sp 0 +
STACK CFI 42b34 .cfa: sp 48 +
STACK CFI 42b40 .cfa: x29 32 + x19: .cfa -8 + ^ x20: .cfa -16 + ^ .ra: .cfa -24 + ^ x29: .cfa -32 + ^
STACK CFI 42b8c .cfa: sp 48 +
STACK CFI 42b98 .cfa: sp 0 +
STACK CFI 42b9c .cfa: x29 32 +
STACK CFI INIT 42cec 104 .cfa: sp 0 +
STACK CFI 42cf0 .cfa: sp 112 +
STACK CFI 42d08 .cfa: x29 80 + x19: .cfa -8 + ^ x20: .cfa -16 + ^ x21: .cfa -24 + ^ x22: .cfa -32 + ^ x23: .cfa -40 + ^ x24: .cfa -48 + ^ x25: .cfa -64 + ^ .ra: .cfa -72 + ^ x29: .cfa -80 + ^
STACK CFI 42d94 .cfa: sp 112 +
STACK CFI 42dac .cfa: sp 0 +
STACK CFI 42db0 .cfa: x29 80 +
STACK CFI INIT 42df0 184 .cfa: sp 0 +
STACK CFI 42df4 .cfa: sp 160 +
STACK CFI 42e04 .cfa: x29 48 + x19: .cfa -8 + ^ x20: .cfa -16 + ^ x21: .cfa -32 + ^ .ra: .cfa -40 + ^ x29: .cfa -48 + ^
STACK CFI 42f18 .cfa: sp 160 +
STACK CFI 42f28 .cfa: sp 0 +
STACK CFI 42f2c .cfa: x29 48 +
STACK CFI INIT 42f88 214 .cfa: sp 0 +
STACK CFI 42f8c .cfa: sp 176 +
STACK CFI 42fa0 .cfa: x29 64 + x19: .cfa -8 + ^ x20: .cfa -16 + ^ x21: .cfa -24 + ^ x22: .cfa -32 + ^ x23: .cfa -48 + ^ .ra: .cfa -56 + ^ x29: .cfa -64 + ^
STACK CFI 43100 .cfa: sp 176 +
STACK CFI 43114 .cfa: sp 0 +
STACK CFI 43118 .cfa: x29 64 +
STACK CFI INIT 4319c 74 .cfa: sp 0 +
STACK CFI 431a0 .cfa: sp 48 +
STACK CFI 431ac .cfa: x29 32 + x19: .cfa -8 + ^ x20: .cfa -16 + ^ .ra: .cfa -24 + ^ x29: .cfa -32 + ^
STACK CFI 431f8 .cfa: sp 48 +
STACK CFI 43204 .cfa: sp 0 +
STACK CFI 43208 .cfa: x29 32 +
STACK CFI INIT 43210 480 .cfa: sp 0 +
STACK CFI 43214 .cfa: sp 192 +
STACK CFI 43230 .cfa: x29 96 + x19: .cfa -8 + ^ x20: .cfa -16 + ^ x21: .cfa -24 + ^ x22: .cfa -32 + ^ x23: .cfa -40 + ^ x24: .cfa -48 + ^ x25: .cfa -56 + ^ x26: .cfa -64 + ^ x27: .cfa -72 + ^ x28: .cfa -80 + ^ .ra: .cfa -88 + ^ x29: .cfa -96 + ^
STACK CFI 434ec .cfa: sp 192 +
STACK CFI 43508 .cfa: sp 0 +
STACK CFI 4350c .cfa: x29 96 +
STACK CFI INIT 436b8 1a8 .cfa: sp 0 +
STACK CFI 436bc .cfa: sp 144 +
STACK CFI 436d0 .cfa: x29 64 + x19: .cfa -8 + ^ x20: .cfa -16 + ^ x21: .cfa -24 + ^ x22: .cfa -32 + ^ x23: .cfa -48 + ^ .ra: .cfa -56 + ^ x29: .cfa -64 + ^
STACK CFI 437fc .cfa: sp 144 +
STACK CFI 43810 .cfa: sp 0 +
STACK CFI 43814 .cfa: x29 64 +
STACK CFI INIT 43860 bbc .cfa: sp 0 +
STACK CFI 43864 .cfa: sp 160 +
STACK CFI 4387c .cfa: x29 64 + x19: .cfa -8 + ^ x20: .cfa -16 + ^ x21: .cfa -24 + ^ x22: .cfa -32 + ^ x23: .cfa -40 + ^ x24: .cfa -48 + ^ .ra: .cfa -56 + ^ x29: .cfa -64 + ^ v8: .cfa -80 + ^
STACK CFI 4438c .cfa: sp 160 +
STACK CFI 443a4 .cfa: sp 0 +
STACK CFI 443a8 .cfa: x29 64 +
STACK CFI INIT 4474c 3e4 .cfa: sp 0 +
STACK CFI 44750 .cfa: sp 272 +
STACK CFI 44764 .cfa: x29 64 + x19: .cfa -8 + ^ x20: .cfa -16 + ^ x21: .cfa -24 + ^ x22: .cfa -32 + ^ x23: .cfa -40 + ^ x28: .cfa -48 + ^ .ra: .cfa -56 + ^ x29: .cfa -64 + ^
STACK CFI 44a94 .cfa: sp 272 +
STACK CFI 44aa8 .cfa: sp 0 +
STACK CFI 44aac .cfa: x29 64 +
STACK CFI INIT 44b30 834 .cfa: sp 0 +
STACK CFI 44b34 .cfa: sp 112 +
STACK CFI 44b50 .cfa: x29 96 + x19: .cfa -8 + ^ x20: .cfa -16 + ^ x21: .cfa -24 + ^ x22: .cfa -32 + ^ x23: .cfa -40 + ^ x24: .cfa -48 + ^ x25: .cfa -56 + ^ x26: .cfa -64 + ^ x27: .cfa -72 + ^ x28: .cfa -80 + ^ .ra: .cfa -88 + ^ x29: .cfa -96 + ^ v8: .cfa -112 + ^
STACK CFI 45258 .cfa: sp 112 +
STACK CFI 45274 .cfa: sp 0 +
STACK CFI 45278 .cfa: x29 96 +
STACK CFI INIT 45364 20c .cfa: sp 0 +
STACK CFI 45368 .cfa: sp 192 +
STACK CFI 45384 .cfa: x29 96 + x19: .cfa -8 + ^ x20: .cfa -16 + ^ x21: .cfa -24 + ^ x22: .cfa -32 + ^ x23: .cfa -40 + ^ x24: .cfa -48 + ^ x25: .cfa -56 + ^ x26: .cfa -64 + ^ x27: .cfa -80 + ^ .ra: .cfa -88 + ^ x29: .cfa -96 + ^
STACK CFI 45520 .cfa: sp 192 +
STACK CFI 4553c .cfa: sp 0 +
STACK CFI 45540 .cfa: x29 96 +
STACK CFI INIT 455c0 e0 .cfa: sp 0 +
STACK CFI 455c4 .cfa: sp 64 +
STACK CFI 455d0 .cfa: x29 32 + x19: .cfa -8 + ^ x20: .cfa -16 + ^ .ra: .cfa -24 + ^ x29: .cfa -32 + ^
STACK CFI 45668 .cfa: sp 64 +
STACK CFI 45674 .cfa: sp 0 +
STACK CFI 45678 .cfa: x29 32 +
STACK CFI INIT 456a0 1d4 .cfa: sp 0 +
STACK CFI 456a4 .cfa: sp 80 +
STACK CFI 456b4 .cfa: x29 48 + x19: .cfa -8 + ^ x20: .cfa -16 + ^ x21: .cfa -24 + ^ x22: .cfa -32 + ^ .ra: .cfa -40 + ^ x29: .cfa -48 + ^
STACK CFI 45820 .cfa: sp 80 +
STACK CFI 45830 .cfa: sp 0 +
STACK CFI 45834 .cfa: x29 48 +
STACK CFI INIT 45874 110 .cfa: sp 0 +
STACK CFI 45878 .cfa: sp 48 +
STACK CFI 45884 .cfa: x29 48 + x19: .cfa -8 + ^ x20: .cfa -16 + ^ x21: .cfa -32 + ^ .ra: .cfa -40 + ^ x29: .cfa -48 + ^
STACK CFI 45970 .cfa: sp 48 +
STACK CFI 4597c .cfa: sp 0 +
STACK CFI 45980 .cfa: x29 48 +
STACK CFI INIT 45a08 134 .cfa: sp 0 +
STACK CFI 45a0c .cfa: sp 96 +
STACK CFI 45a1c .cfa: x29 48 + x19: .cfa -8 + ^ x20: .cfa -16 + ^ x21: .cfa -32 + ^ .ra: .cfa -40 + ^ x29: .cfa -48 + ^
STACK CFI 45af0 .cfa: sp 96 +
STACK CFI 45b00 .cfa: sp 0 +
STACK CFI 45b04 .cfa: x29 48 +
STACK CFI INIT 45bb4 6c .cfa: sp 0 +
STACK CFI 45bb8 .cfa: sp 32 +
STACK CFI 45bc0 .cfa: x29 32 + x19: .cfa -16 + ^ .ra: .cfa -24 + ^ x29: .cfa -32 + ^
STACK CFI 45c10 .cfa: sp 32 +
STACK CFI 45c18 .cfa: sp 0 +
STACK CFI 45c1c .cfa: x29 32 +
STACK CFI INIT 45c24 6c .cfa: sp 0 +
STACK CFI 45c28 .cfa: sp 32 +
STACK CFI 45c30 .cfa: x29 32 + x19: .cfa -16 + ^ .ra: .cfa -24 + ^ x29: .cfa -32 + ^
STACK CFI 45c80 .cfa: sp 32 +
STACK CFI 45c88 .cfa: sp 0 +
STACK CFI 45c8c .cfa: x29 32 +
STACK CFI INIT 45e24 198 .cfa: sp 0 +
STACK CFI 45e28 .cfa: sp 96 +
STACK CFI 45e38 .cfa: x29 48 + x19: .cfa -8 + ^ x20: .cfa -16 + ^ x21: .cfa -32 + ^ .ra: .cfa -40 + ^ x29: .cfa -48 + ^
STACK CFI 45f14 .cfa: sp 96 +
STACK CFI 45f24 .cfa: sp 0 +
STACK CFI 45f28 .cfa: x29 48 +
STACK CFI INIT 46018 c98 .cfa: sp 0 +
STACK CFI 4601c .cfa: sp 112 +
STACK CFI 46038 .cfa: x29 96 + x19: .cfa -8 + ^ x20: .cfa -16 + ^ x21: .cfa -24 + ^ x22: .cfa -32 + ^ x23: .cfa -40 + ^ x24: .cfa -48 + ^ x25: .cfa -56 + ^ x26: .cfa -64 + ^ x27: .cfa -72 + ^ x28: .cfa -80 + ^ .ra: .cfa -88 + ^ x29: .cfa -96 + ^ v8: .cfa -112 + ^
STACK CFI 460ec .cfa: sp 112 +
STACK CFI 46108 .cfa: sp 0 +
STACK CFI 4610c .cfa: x29 96 +
STACK CFI 46a9c .cfa: sp 112 +
STACK CFI 46ab8 .cfa: sp 0 +
STACK CFI 46abc .cfa: x29 96 +
STACK CFI INIT 46cd8 74 .cfa: sp 0 +
STACK CFI 46cdc .cfa: sp 48 +
STACK CFI 46ce8 .cfa: x29 32 + x19: .cfa -8 + ^ x20: .cfa -16 + ^ .ra: .cfa -24 + ^ x29: .cfa -32 + ^
STACK CFI 46d34 .cfa: sp 48 +
STACK CFI 46d40 .cfa: sp 0 +
STACK CFI 46d44 .cfa: x29 32 +
STACK CFI INIT 46d4c 74 .cfa: sp 0 +
STACK CFI 46d50 .cfa: sp 48 +
STACK CFI 46d5c .cfa: x29 32 + x19: .cfa -8 + ^ x20: .cfa -16 + ^ .ra: .cfa -24 + ^ x29: .cfa -32 + ^
STACK CFI 46da8 .cfa: sp 48 +
STACK CFI 46db4 .cfa: sp 0 +
STACK CFI 46db8 .cfa: x29 32 +
STACK CFI INIT 46ddc 2a4 .cfa: sp 0 +
STACK CFI 46de0 .cfa: sp 144 +
STACK CFI 46df8 .cfa: x29 80 + x19: .cfa -8 + ^ x20: .cfa -16 + ^ x21: .cfa -24 + ^ x22: .cfa -32 + ^ x23: .cfa -40 + ^ x24: .cfa -48 + ^ x25: .cfa -56 + ^ x26: .cfa -64 + ^ .ra: .cfa -72 + ^ x29: .cfa -80 + ^
STACK CFI 46fe8 .cfa: sp 144 +
STACK CFI 47000 .cfa: sp 0 +
STACK CFI 47004 .cfa: x29 80 +
STACK CFI 4701c .cfa: sp 144 +
STACK CFI 47034 .cfa: sp 0 +
STACK CFI 47038 .cfa: x29 80 +
STACK CFI INIT 47080 224 .cfa: sp 0 +
STACK CFI 47084 .cfa: sp 192 +
STACK CFI 47098 .cfa: x29 64 + x19: .cfa -8 + ^ x20: .cfa -16 + ^ x21: .cfa -24 + ^ x22: .cfa -32 + ^ x23: .cfa -48 + ^ .ra: .cfa -56 + ^ x29: .cfa -64 + ^
STACK CFI 471e0 .cfa: sp 192 +
STACK CFI 471f4 .cfa: sp 0 +
STACK CFI 471f8 .cfa: x29 64 +
STACK CFI INIT 475a0 1a0 .cfa: sp 0 +
STACK CFI 475a4 .cfa: sp 128 +
STACK CFI 475b8 .cfa: x29 64 + x19: .cfa -8 + ^ x20: .cfa -16 + ^ x21: .cfa -24 + ^ x22: .cfa -32 + ^ x23: .cfa -48 + ^ .ra: .cfa -56 + ^ x29: .cfa -64 + ^
STACK CFI 47700 .cfa: sp 128 +
STACK CFI 47714 .cfa: sp 0 +
STACK CFI 47718 .cfa: x29 64 +
STACK CFI INIT 47a6c 190 .cfa: sp 0 +
STACK CFI 47a70 .cfa: sp 112 +
STACK CFI 47a80 .cfa: x29 48 + x19: .cfa -8 + ^ x20: .cfa -16 + ^ x21: .cfa -24 + ^ x22: .cfa -32 + ^ .ra: .cfa -40 + ^ x29: .cfa -48 + ^
STACK CFI 47bc0 .cfa: sp 112 +
STACK CFI 47bd0 .cfa: sp 0 +
STACK CFI 47bd4 .cfa: x29 48 +
STACK CFI INIT 47f60 a3c .cfa: sp 0 +
STACK CFI 47f64 .cfa: sp 112 +
STACK CFI 47f80 .cfa: x29 96 + x19: .cfa -8 + ^ x20: .cfa -16 + ^ x21: .cfa -24 + ^ x22: .cfa -32 + ^ x23: .cfa -40 + ^ x24: .cfa -48 + ^ x25: .cfa -56 + ^ x26: .cfa -64 + ^ x27: .cfa -72 + ^ x28: .cfa -80 + ^ .ra: .cfa -88 + ^ x29: .cfa -96 + ^ v8: .cfa -112 + ^
STACK CFI 48828 .cfa: sp 112 +
STACK CFI 48844 .cfa: sp 0 +
STACK CFI 48848 .cfa: x29 96 +
STACK CFI INIT 48adc 60 .cfa: sp 0 +
STACK CFI 48ae0 .cfa: sp 32 +
STACK CFI 48ae8 .cfa: x29 32 + x19: .cfa -8 + ^ x20: .cfa -16 + ^ .ra: .cfa -24 + ^ x29: .cfa -32 + ^
STACK CFI 48af8 .cfa: sp 32 +
STACK CFI 48b00 .cfa: sp 0 +
STACK CFI 48b04 .cfa: x29 32 +
STACK CFI 48b1c .cfa: sp 32 +
STACK CFI 48b24 .cfa: sp 0 +
STACK CFI 48b28 .cfa: x29 32 +
STACK CFI INIT 48b3c 1ac .cfa: sp 0 +
STACK CFI 48b40 .cfa: sp 96 +
STACK CFI 48b54 .cfa: x29 64 + x19: .cfa -8 + ^ x20: .cfa -16 + ^ x21: .cfa -24 + ^ x22: .cfa -32 + ^ x23: .cfa -40 + ^ x24: .cfa -48 + ^ .ra: .cfa -56 + ^ x29: .cfa -64 + ^
STACK CFI 48c28 .cfa: sp 96 +
STACK CFI 48c3c .cfa: sp 0 +
STACK CFI 48c40 .cfa: x29 64 +
STACK CFI INIT 48d18 ec .cfa: sp 0 +
STACK CFI 48d1c .cfa: sp 80 +
STACK CFI 48d30 .cfa: x29 64 + x19: .cfa -8 + ^ x20: .cfa -16 + ^ x21: .cfa -24 + ^ x22: .cfa -32 + ^ x23: .cfa -48 + ^ .ra: .cfa -56 + ^ x29: .cfa -64 + ^
STACK CFI 48dc4 .cfa: sp 80 +
STACK CFI 48dd8 .cfa: sp 0 +
STACK CFI 48ddc .cfa: x29 64 +
STACK CFI INIT 48e04 4e4 .cfa: sp 0 +
STACK CFI 48e08 .cfa: sp 256 +
STACK CFI 48e1c .cfa: x29 64 + x19: .cfa -8 + ^ x20: .cfa -16 + ^ x21: .cfa -24 + ^ x22: .cfa -32 + ^ x23: .cfa -40 + ^ x24: .cfa -48 + ^ .ra: .cfa -56 + ^ x29: .cfa -64 + ^
STACK CFI 491d4 .cfa: sp 256 +
STACK CFI 491e8 .cfa: sp 0 +
STACK CFI 491ec .cfa: x29 64 +
STACK CFI INIT 4938c 1cc .cfa: sp 0 +
STACK CFI 49390 .cfa: sp 128 +
STACK CFI 493a0 .cfa: x29 48 + x19: .cfa -8 + ^ x20: .cfa -16 + ^ x21: .cfa -32 + ^ .ra: .cfa -40 + ^ x29: .cfa -48 + ^
STACK CFI 494dc .cfa: sp 128 +
STACK CFI 494ec .cfa: sp 0 +
STACK CFI 494f0 .cfa: x29 48 +
STACK CFI INIT 49698 974 .cfa: sp 0 +
STACK CFI 4969c .cfa: sp 256 +
STACK CFI 496b0 .cfa: x29 64 + x19: .cfa -8 + ^ x20: .cfa -16 + ^ x21: .cfa -24 + ^ x22: .cfa -32 + ^ x23: .cfa -40 + ^ x24: .cfa -48 + ^ .ra: .cfa -56 + ^ x29: .cfa -64 + ^
STACK CFI 49e38 .cfa: sp 256 +
STACK CFI 49e4c .cfa: sp 0 +
STACK CFI 49e50 .cfa: x29 64 +
STACK CFI INIT 4a038 174 .cfa: sp 0 +
STACK CFI 4a03c .cfa: sp 112 +
STACK CFI 4a04c .cfa: x29 48 + x19: .cfa -8 + ^ x20: .cfa -16 + ^ x21: .cfa -32 + ^ .ra: .cfa -40 + ^ x29: .cfa -48 + ^
STACK CFI 4a148 .cfa: sp 112 +
STACK CFI 4a158 .cfa: sp 0 +
STACK CFI 4a15c .cfa: x29 48 +
STACK CFI INIT 4a30c 120 .cfa: sp 0 +
STACK CFI 4a310 .cfa: sp 80 +
STACK CFI 4a320 .cfa: x29 48 + x19: .cfa -8 + ^ x20: .cfa -16 + ^ x21: .cfa -32 + ^ .ra: .cfa -40 + ^ x29: .cfa -48 + ^
STACK CFI 4a3ac .cfa: sp 80 +
STACK CFI 4a3bc .cfa: sp 0 +
STACK CFI 4a3c0 .cfa: x29 48 +
STACK CFI INIT 4a4f0 134 .cfa: sp 0 +
STACK CFI 4a4f4 .cfa: sp 80 +
STACK CFI 4a500 .cfa: x29 32 + x19: .cfa -8 + ^ x20: .cfa -16 + ^ .ra: .cfa -24 + ^ x29: .cfa -32 + ^
STACK CFI 4a530 .cfa: sp 80 +
STACK CFI 4a53c .cfa: sp 0 +
STACK CFI 4a540 .cfa: x29 32 +
STACK CFI INIT 4a624 78 .cfa: sp 0 +
STACK CFI 4a628 .cfa: sp 32 +
STACK CFI 4a630 .cfa: x29 32 + x19: .cfa -8 + ^ x20: .cfa -16 + ^ .ra: .cfa -24 + ^ x29: .cfa -32 + ^
STACK CFI 4a63c .cfa: sp 32 +
STACK CFI 4a644 .cfa: sp 0 +
STACK CFI 4a648 .cfa: x29 32 +
STACK CFI INIT 4a69c 74 .cfa: sp 0 +
STACK CFI 4a6a0 .cfa: sp 48 +
STACK CFI 4a6ac .cfa: x29 32 + x19: .cfa -8 + ^ x20: .cfa -16 + ^ .ra: .cfa -24 + ^ x29: .cfa -32 + ^
STACK CFI 4a6f8 .cfa: sp 48 +
STACK CFI 4a704 .cfa: sp 0 +
STACK CFI 4a708 .cfa: x29 32 +
STACK CFI INIT 4a798 25c .cfa: sp 0 +
STACK CFI 4a79c .cfa: sp 128 +
STACK CFI 4a7ac .cfa: x29 48 + x19: .cfa -8 + ^ x20: .cfa -16 + ^ x21: .cfa -32 + ^ .ra: .cfa -40 + ^ x29: .cfa -48 + ^
STACK CFI 4a894 .cfa: sp 128 +
STACK CFI 4a8a4 .cfa: sp 0 +
STACK CFI 4a8a8 .cfa: x29 48 +
STACK CFI INIT 4aa6c 300 .cfa: sp 0 +
STACK CFI 4aa70 .cfa: sp 144 +
STACK CFI 4aa84 .cfa: x29 64 + x19: .cfa -8 + ^ x20: .cfa -16 + ^ x21: .cfa -24 + ^ x22: .cfa -32 + ^ x23: .cfa -48 + ^ .ra: .cfa -56 + ^ x29: .cfa -64 + ^
STACK CFI 4ac18 .cfa: sp 144 +
STACK CFI 4ac2c .cfa: sp 0 +
STACK CFI 4ac30 .cfa: x29 64 +
STACK CFI INIT 4adc0 264 .cfa: sp 0 +
STACK CFI 4adc4 .cfa: sp 128 +
STACK CFI 4add4 .cfa: x29 48 + x19: .cfa -8 + ^ x20: .cfa -16 + ^ x21: .cfa -32 + ^ .ra: .cfa -40 + ^ x29: .cfa -48 + ^
STACK CFI 4aecc .cfa: sp 128 +
STACK CFI 4aedc .cfa: sp 0 +
STACK CFI 4aee0 .cfa: x29 48 +
STACK CFI INIT 4b168 1b8 .cfa: sp 0 +
STACK CFI 4b16c .cfa: sp 160 +
STACK CFI 4b188 .cfa: x29 72 + x19: .cfa -8 + ^ x20: .cfa -16 + ^ x21: .cfa -24 + ^ x22: .cfa -32 + ^ x23: .cfa -40 + ^ x24: .cfa -48 + ^ x25: .cfa -56 + ^ .ra: .cfa -64 + ^ x29: .cfa -72 + ^ v8: .cfa -80 + ^
STACK CFI 4b20c .cfa: sp 160 +
STACK CFI 4b228 .cfa: sp 0 +
STACK CFI 4b22c .cfa: x29 72 +
STACK CFI INIT 4b320 3d0 .cfa: sp 0 +
STACK CFI 4b324 .cfa: sp 96 +
STACK CFI 4b33c .cfa: x29 80 + x19: .cfa -8 + ^ x20: .cfa -16 + ^ x21: .cfa -24 + ^ x22: .cfa -32 + ^ x23: .cfa -40 + ^ x24: .cfa -48 + ^ x25: .cfa -64 + ^ .ra: .cfa -72 + ^ x29: .cfa -80 + ^
STACK CFI 4b66c .cfa: sp 96 +
STACK CFI 4b684 .cfa: sp 0 +
STACK CFI 4b688 .cfa: x29 80 +
STACK CFI INIT 4b6f0 ac .cfa: sp 0 +
STACK CFI 4b6f4 .cfa: sp 64 +
STACK CFI 4b704 .cfa: x29 48 + x19: .cfa -8 + ^ x20: .cfa -16 + ^ x21: .cfa -32 + ^ .ra: .cfa -40 + ^ x29: .cfa -48 + ^
STACK CFI 4b760 .cfa: sp 64 +
STACK CFI 4b770 .cfa: sp 0 +
STACK CFI 4b774 .cfa: x29 48 +
STACK CFI INIT 4b7b0 164 .cfa: sp 0 +
STACK CFI 4b7b4 .cfa: sp 128 +
STACK CFI 4b7c0 .cfa: x29 32 + x19: .cfa -8 + ^ x20: .cfa -16 + ^ .ra: .cfa -24 + ^ x29: .cfa -32 + ^
STACK CFI 4b800 .cfa: sp 128 +
STACK CFI 4b80c .cfa: sp 0 +
STACK CFI 4b810 .cfa: x29 32 +
STACK CFI INIT 4b914 178 .cfa: sp 0 +
STACK CFI 4b918 .cfa: sp 128 +
STACK CFI 4b928 .cfa: x29 48 + x19: .cfa -8 + ^ x20: .cfa -16 + ^ x21: .cfa -24 + ^ x22: .cfa -32 + ^ .ra: .cfa -40 + ^ x29: .cfa -48 + ^
STACK CFI 4b984 .cfa: sp 128 +
STACK CFI 4b994 .cfa: sp 0 +
STACK CFI 4b998 .cfa: x29 48 +
STACK CFI INIT 4ba8c a0 .cfa: sp 0 +
STACK CFI 4ba90 .cfa: sp 48 +
STACK CFI 4ba9c .cfa: x29 48 + x19: .cfa -8 + ^ x20: .cfa -16 + ^ x21: .cfa -32 + ^ .ra: .cfa -40 + ^ x29: .cfa -48 + ^
STACK CFI 4bb04 .cfa: sp 48 +
STACK CFI 4bb10 .cfa: sp 0 +
STACK CFI 4bb14 .cfa: x29 48 +
STACK CFI INIT 4bb2c 180 .cfa: sp 0 +
STACK CFI 4bb30 .cfa: sp 128 +
STACK CFI 4bb40 .cfa: x29 48 + x19: .cfa -8 + ^ x20: .cfa -16 + ^ x21: .cfa -24 + ^ x22: .cfa -32 + ^ .ra: .cfa -40 + ^ x29: .cfa -48 + ^
STACK CFI 4bba4 .cfa: sp 128 +
STACK CFI 4bbb4 .cfa: sp 0 +
STACK CFI 4bbb8 .cfa: x29 48 +
STACK CFI INIT 4bcac a0 .cfa: sp 0 +
STACK CFI 4bcb0 .cfa: sp 48 +
STACK CFI 4bcbc .cfa: x29 48 + x19: .cfa -8 + ^ x20: .cfa -16 + ^ x21: .cfa -32 + ^ .ra: .cfa -40 + ^ x29: .cfa -48 + ^
STACK CFI 4bd24 .cfa: sp 48 +
STACK CFI 4bd30 .cfa: sp 0 +
STACK CFI 4bd34 .cfa: x29 48 +
STACK CFI INIT 4bd50 2e4 .cfa: sp 0 +
STACK CFI 4bd54 .cfa: sp 144 +
STACK CFI 4bd68 .cfa: x29 64 + x19: .cfa -8 + ^ x20: .cfa -16 + ^ x21: .cfa -24 + ^ x22: .cfa -32 + ^ x23: .cfa -48 + ^ .ra: .cfa -56 + ^ x29: .cfa -64 + ^
STACK CFI 4bee0 .cfa: sp 144 +
STACK CFI 4bef4 .cfa: sp 0 +
STACK CFI 4bef8 .cfa: x29 64 +
STACK CFI INIT 4c034 2f0 .cfa: sp 0 +
STACK CFI 4c038 .cfa: sp 144 +
STACK CFI 4c04c .cfa: x29 64 + x19: .cfa -8 + ^ x20: .cfa -16 + ^ x21: .cfa -24 + ^ x22: .cfa -32 + ^ x23: .cfa -48 + ^ .ra: .cfa -56 + ^ x29: .cfa -64 + ^
STACK CFI 4c1d0 .cfa: sp 144 +
STACK CFI 4c1e4 .cfa: sp 0 +
STACK CFI 4c1e8 .cfa: x29 64 +
STACK CFI INIT 4c324 2a0 .cfa: sp 0 +
STACK CFI 4c328 .cfa: sp 144 +
STACK CFI 4c33c .cfa: x29 64 + x19: .cfa -8 + ^ x20: .cfa -16 + ^ x21: .cfa -24 + ^ x22: .cfa -32 + ^ x23: .cfa -48 + ^ .ra: .cfa -56 + ^ x29: .cfa -64 + ^
STACK CFI 4c470 .cfa: sp 144 +
STACK CFI 4c484 .cfa: sp 0 +
STACK CFI 4c488 .cfa: x29 64 +
STACK CFI INIT 4c5c4 2e4 .cfa: sp 0 +
STACK CFI 4c5c8 .cfa: sp 144 +
STACK CFI 4c5dc .cfa: x29 64 + x19: .cfa -8 + ^ x20: .cfa -16 + ^ x21: .cfa -24 + ^ x22: .cfa -32 + ^ x23: .cfa -48 + ^ .ra: .cfa -56 + ^ x29: .cfa -64 + ^
STACK CFI 4c754 .cfa: sp 144 +
STACK CFI 4c768 .cfa: sp 0 +
STACK CFI 4c76c .cfa: x29 64 +
STACK CFI INIT 4c8a8 4e4 .cfa: sp 0 +
STACK CFI 4c8ac .cfa: sp 144 +
STACK CFI 4c8c0 .cfa: x29 64 + x19: .cfa -8 + ^ x20: .cfa -16 + ^ x21: .cfa -24 + ^ x22: .cfa -32 + ^ x23: .cfa -48 + ^ .ra: .cfa -56 + ^ x29: .cfa -64 + ^
STACK CFI 4cbe4 .cfa: sp 144 +
STACK CFI 4cbf8 .cfa: sp 0 +
STACK CFI 4cbfc .cfa: x29 64 +
STACK CFI INIT 4cd8c 154 .cfa: sp 0 +
STACK CFI 4cd90 .cfa: sp 384 +
STACK CFI 4cda4 .cfa: x29 64 + x19: .cfa -8 + ^ x20: .cfa -16 + ^ x21: .cfa -24 + ^ x22: .cfa -32 + ^ x23: .cfa -40 + ^ x28: .cfa -48 + ^ .ra: .cfa -56 + ^ x29: .cfa -64 + ^
STACK CFI 4ce88 .cfa: sp 384 +
STACK CFI 4ce9c .cfa: sp 0 +
STACK CFI 4cea0 .cfa: x29 64 +
STACK CFI INIT 4cef8 50c .cfa: sp 0 +
STACK CFI 4cefc .cfa: sp 64 +
STACK CFI 4cf0c .cfa: x29 64 + x19: .cfa -8 + ^ x20: .cfa -16 + ^ x21: .cfa -24 + ^ x22: .cfa -32 + ^ x23: .cfa -40 + ^ x24: .cfa -48 + ^ .ra: .cfa -56 + ^ x29: .cfa -64 + ^
STACK CFI 4d02c .cfa: sp 64 +
STACK CFI 4d03c .cfa: sp 0 +
STACK CFI 4d040 .cfa: x29 64 +
STACK CFI 4d3d8 .cfa: sp 64 +
STACK CFI 4d3e8 .cfa: sp 0 +
STACK CFI 4d3ec .cfa: x29 64 +
STACK CFI INIT 4d768 114 .cfa: sp 0 +
STACK CFI 4d76c .cfa: sp 160 +
STACK CFI 4d77c .cfa: x29 48 + x19: .cfa -8 + ^ x20: .cfa -16 + ^ x21: .cfa -24 + ^ x22: .cfa -32 + ^ .ra: .cfa -40 + ^ x29: .cfa -48 + ^
STACK CFI 4d860 .cfa: sp 160 +
STACK CFI 4d870 .cfa: sp 0 +
STACK CFI 4d874 .cfa: x29 48 +
STACK CFI INIT 4d87c b4 .cfa: sp 0 +
STACK CFI 4d880 .cfa: sp 48 +
STACK CFI 4d88c .cfa: x29 48 + x19: .cfa -8 + ^ x20: .cfa -16 + ^ x21: .cfa -24 + ^ x28: .cfa -32 + ^ .ra: .cfa -40 + ^ x29: .cfa -48 + ^
STACK CFI 4d918 .cfa: sp 48 +
STACK CFI 4d924 .cfa: sp 0 +
STACK CFI 4d928 .cfa: x29 48 +
STACK CFI INIT 4d930 190 .cfa: sp 0 +
STACK CFI 4d934 .cfa: sp 208 +
STACK CFI 4d944 .cfa: x29 48 + x19: .cfa -8 + ^ x20: .cfa -16 + ^ x21: .cfa -24 + ^ x22: .cfa -32 + ^ .ra: .cfa -40 + ^ x29: .cfa -48 + ^
STACK CFI 4da48 .cfa: sp 208 +
STACK CFI 4da58 .cfa: sp 0 +
STACK CFI 4da5c .cfa: x29 48 +
STACK CFI INIT 4dad4 190 .cfa: sp 0 +
STACK CFI 4dad8 .cfa: sp 80 +
STACK CFI 4dae8 .cfa: x29 48 + x19: .cfa -8 + ^ x20: .cfa -16 + ^ x21: .cfa -24 + ^ x22: .cfa -32 + ^ .ra: .cfa -40 + ^ x29: .cfa -48 + ^
STACK CFI 4dbc8 .cfa: sp 80 +
STACK CFI 4dbd8 .cfa: sp 0 +
STACK CFI 4dbdc .cfa: x29 48 +
STACK CFI INIT 4dce4 50 .cfa: sp 0 +
STACK CFI 4dce8 .cfa: sp 32 +
STACK CFI 4dcf0 .cfa: x29 32 + x19: .cfa -8 + ^ x20: .cfa -16 + ^ .ra: .cfa -24 + ^ x29: .cfa -32 + ^
STACK CFI INIT 4dd64 1e8 .cfa: sp 0 +
STACK CFI 4dd68 .cfa: sp 144 +
STACK CFI 4dd78 .cfa: x29 48 + x19: .cfa -8 + ^ x20: .cfa -16 + ^ x21: .cfa -32 + ^ .ra: .cfa -40 + ^ x29: .cfa -48 + ^
STACK CFI 4deb0 .cfa: sp 144 +
STACK CFI 4dec0 .cfa: sp 0 +
STACK CFI 4dec4 .cfa: x29 48 +
STACK CFI INIT 4e04c e4 .cfa: sp 0 +
STACK CFI 4e050 .cfa: sp 112 +
STACK CFI 4e068 .cfa: x29 80 + x19: .cfa -8 + ^ x20: .cfa -16 + ^ x21: .cfa -24 + ^ x22: .cfa -32 + ^ x23: .cfa -40 + ^ x24: .cfa -48 + ^ x25: .cfa -56 + ^ x26: .cfa -64 + ^ .ra: .cfa -72 + ^ x29: .cfa -80 + ^
STACK CFI 4e0e4 .cfa: sp 112 +
STACK CFI 4e0fc .cfa: sp 0 +
STACK CFI 4e100 .cfa: x29 80 +
STACK CFI INIT 4e130 14c .cfa: sp 0 +
STACK CFI 4e134 .cfa: sp 80 +
STACK CFI 4e148 .cfa: x29 80 + x19: .cfa -8 + ^ x20: .cfa -16 + ^ x21: .cfa -24 + ^ x22: .cfa -32 + ^ x23: .cfa -40 + ^ x24: .cfa -48 + ^ x28: .cfa -64 + ^ .ra: .cfa -72 + ^ x29: .cfa -80 + ^
STACK CFI 4e1dc .cfa: sp 80 +
STACK CFI 4e1f0 .cfa: sp 0 +
STACK CFI 4e1f4 .cfa: x29 80 +
STACK CFI INIT 4e32c 210 .cfa: sp 0 +
STACK CFI 4e330 .cfa: sp 80 +
STACK CFI 4e344 .cfa: x29 64 + x19: .cfa -8 + ^ x20: .cfa -16 + ^ x21: .cfa -24 + ^ x22: .cfa -32 + ^ x23: .cfa -40 + ^ x24: .cfa -48 + ^ .ra: .cfa -56 + ^ x29: .cfa -64 + ^
STACK CFI 4e4ec .cfa: sp 80 +
STACK CFI 4e500 .cfa: sp 0 +
STACK CFI 4e504 .cfa: x29 64 +
STACK CFI INIT 4e53c 10c .cfa: sp 0 +
STACK CFI 4e540 .cfa: sp 112 +
STACK CFI 4e554 .cfa: x29 64 + x19: .cfa -8 + ^ x20: .cfa -16 + ^ x21: .cfa -24 + ^ x22: .cfa -32 + ^ x23: .cfa -48 + ^ .ra: .cfa -56 + ^ x29: .cfa -64 + ^
STACK CFI 4e5c0 .cfa: sp 112 +
STACK CFI 4e5d4 .cfa: sp 0 +
STACK CFI 4e5d8 .cfa: x29 64 +
STACK CFI INIT 4e8fc 88 .cfa: sp 0 +
STACK CFI 4e900 .cfa: sp 32 +
STACK CFI 4e908 .cfa: x29 32 + x19: .cfa -8 + ^ x20: .cfa -16 + ^ .ra: .cfa -24 + ^ x29: .cfa -32 + ^
STACK CFI 4e924 .cfa: sp 32 +
STACK CFI 4e92c .cfa: sp 0 +
STACK CFI 4e930 .cfa: x29 32 +
STACK CFI INIT 4e984 13c .cfa: sp 0 +
STACK CFI 4e988 .cfa: sp 64 +
STACK CFI 4e998 .cfa: x29 64 + x19: .cfa -8 + ^ x20: .cfa -16 + ^ x21: .cfa -24 + ^ x22: .cfa -32 + ^ x28: .cfa -48 + ^ .ra: .cfa -56 + ^ x29: .cfa -64 + ^
STACK CFI 4ea1c .cfa: sp 64 +
STACK CFI 4ea2c .cfa: sp 0 +
STACK CFI 4ea30 .cfa: x29 64 +
STACK CFI INIT 4eac0 13c .cfa: sp 0 +
STACK CFI 4eac4 .cfa: sp 64 +
STACK CFI 4ead4 .cfa: x29 64 + x19: .cfa -8 + ^ x20: .cfa -16 + ^ x21: .cfa -24 + ^ x22: .cfa -32 + ^ x28: .cfa -48 + ^ .ra: .cfa -56 + ^ x29: .cfa -64 + ^
STACK CFI 4eb58 .cfa: sp 64 +
STACK CFI 4eb68 .cfa: sp 0 +
STACK CFI 4eb6c .cfa: x29 64 +
STACK CFI INIT 4ebfc 174 .cfa: sp 0 +
STACK CFI 4ec00 .cfa: sp 64 +
STACK CFI 4ec10 .cfa: x29 64 + x19: .cfa -8 + ^ x20: .cfa -16 + ^ x21: .cfa -24 + ^ x22: .cfa -32 + ^ x28: .cfa -48 + ^ .ra: .cfa -56 + ^ x29: .cfa -64 + ^
STACK CFI 4ecc8 .cfa: sp 64 +
STACK CFI 4ecd8 .cfa: sp 0 +
STACK CFI 4ecdc .cfa: x29 64 +
STACK CFI INIT 4ed70 154 .cfa: sp 0 +
STACK CFI 4ed74 .cfa: sp 64 +
STACK CFI 4ed84 .cfa: x29 64 + x19: .cfa -8 + ^ x20: .cfa -16 + ^ x21: .cfa -24 + ^ x22: .cfa -32 + ^ x28: .cfa -48 + ^ .ra: .cfa -56 + ^ x29: .cfa -64 + ^
STACK CFI 4ee20 .cfa: sp 64 +
STACK CFI 4ee30 .cfa: sp 0 +
STACK CFI 4ee34 .cfa: x29 64 +
STACK CFI INIT 4f90c 118 .cfa: sp 0 +
STACK CFI 4f910 .cfa: sp 80 +
STACK CFI 4f920 .cfa: x29 48 + x19: .cfa -8 + ^ x20: .cfa -16 + ^ x21: .cfa -32 + ^ .ra: .cfa -40 + ^ x29: .cfa -48 + ^
STACK CFI 4f9d0 .cfa: sp 80 +
STACK CFI 4f9e0 .cfa: sp 0 +
STACK CFI 4f9e4 .cfa: x29 48 +
STACK CFI INIT 4fa24 ac .cfa: sp 0 +
STACK CFI 4fa28 .cfa: sp 48 +
STACK CFI 4fa34 .cfa: x29 32 + x19: .cfa -8 + ^ x20: .cfa -16 + ^ .ra: .cfa -24 + ^ x29: .cfa -32 + ^
STACK CFI 4fa98 .cfa: sp 48 +
STACK CFI 4faa4 .cfa: sp 0 +
STACK CFI 4faa8 .cfa: x29 32 +
STACK CFI INIT 4fe2c 118 .cfa: sp 0 +
STACK CFI 4fe30 .cfa: sp 80 +
STACK CFI 4fe40 .cfa: x29 48 + x19: .cfa -8 + ^ x20: .cfa -16 + ^ x21: .cfa -32 + ^ .ra: .cfa -40 + ^ x29: .cfa -48 + ^
STACK CFI 4fef0 .cfa: sp 80 +
STACK CFI 4ff00 .cfa: sp 0 +
STACK CFI 4ff04 .cfa: x29 48 +
STACK CFI INIT 4ff44 ac .cfa: sp 0 +
STACK CFI 4ff48 .cfa: sp 48 +
STACK CFI 4ff54 .cfa: x29 32 + x19: .cfa -8 + ^ x20: .cfa -16 + ^ .ra: .cfa -24 + ^ x29: .cfa -32 + ^
STACK CFI 4ffb8 .cfa: sp 48 +
STACK CFI 4ffc4 .cfa: sp 0 +
STACK CFI 4ffc8 .cfa: x29 32 +
STACK CFI INIT 5024c 1fc .cfa: sp 0 +
STACK CFI 50250 .cfa: sp 80 +
STACK CFI 50264 .cfa: x29 80 + x19: .cfa -8 + ^ x20: .cfa -16 + ^ x21: .cfa -24 + ^ x22: .cfa -32 + ^ x23: .cfa -40 + ^ x24: .cfa -48 + ^ x25: .cfa -64 + ^ .ra: .cfa -72 + ^ x29: .cfa -80 + ^
STACK CFI 503ec .cfa: sp 80 +
STACK CFI 50400 .cfa: sp 0 +
STACK CFI 50404 .cfa: x29 80 +
STACK CFI INIT 50598 d4 .cfa: sp 0 +
STACK CFI 5059c .cfa: sp 128 +
STACK CFI 505b0 .cfa: x29 64 + x19: .cfa -8 + ^ x20: .cfa -16 + ^ x21: .cfa -24 + ^ x22: .cfa -32 + ^ x23: .cfa -40 + ^ x24: .cfa -48 + ^ .ra: .cfa -56 + ^ x29: .cfa -64 + ^
STACK CFI 50624 .cfa: sp 128 +
STACK CFI 50638 .cfa: sp 0 +
STACK CFI 5063c .cfa: x29 64 +
STACK CFI INIT 532f8 6d0 .cfa: sp 0 +
STACK CFI 532fc .cfa: sp 272 +
STACK CFI 53318 .cfa: x29 96 + x19: .cfa -8 + ^ x20: .cfa -16 + ^ x21: .cfa -24 + ^ x22: .cfa -32 + ^ x23: .cfa -40 + ^ x24: .cfa -48 + ^ x25: .cfa -56 + ^ x26: .cfa -64 + ^ x27: .cfa -72 + ^ x28: .cfa -80 + ^ .ra: .cfa -88 + ^ x29: .cfa -96 + ^
STACK CFI 53870 .cfa: sp 272 +
STACK CFI 5388c .cfa: sp 0 +
STACK CFI 53890 .cfa: x29 96 +
STACK CFI INIT 53b1c 1b4 .cfa: sp 0 +
STACK CFI 53b20 .cfa: sp 128 +
STACK CFI 53b30 .cfa: x29 48 + x19: .cfa -8 + ^ x20: .cfa -16 + ^ x21: .cfa -32 + ^ .ra: .cfa -40 + ^ x29: .cfa -48 + ^
STACK CFI 53c38 .cfa: sp 128 +
STACK CFI 53c48 .cfa: sp 0 +
STACK CFI 53c4c .cfa: x29 48 +
STACK CFI INIT 54194 2c0 .cfa: sp 0 +
STACK CFI 54198 .cfa: sp 80 +
STACK CFI 541ac .cfa: x29 80 + x19: .cfa -8 + ^ x20: .cfa -16 + ^ x21: .cfa -24 + ^ x22: .cfa -32 + ^ x23: .cfa -40 + ^ x24: .cfa -48 + ^ x28: .cfa -64 + ^ .ra: .cfa -72 + ^ x29: .cfa -80 + ^
STACK CFI 54408 .cfa: sp 80 +
STACK CFI 5441c .cfa: sp 0 +
STACK CFI 54420 .cfa: x29 80 +
STACK CFI INIT 54454 3b8 .cfa: sp 0 +
STACK CFI 54458 .cfa: sp 96 +
STACK CFI 54470 .cfa: x29 96 + x19: .cfa -8 + ^ x20: .cfa -16 + ^ x21: .cfa -24 + ^ x22: .cfa -32 + ^ x23: .cfa -40 + ^ x24: .cfa -48 + ^ x25: .cfa -56 + ^ x26: .cfa -64 + ^ x27: .cfa -72 + ^ x28: .cfa -80 + ^ .ra: .cfa -88 + ^ x29: .cfa -96 + ^
STACK CFI 547ac .cfa: sp 96 +
STACK CFI 547c4 .cfa: sp 0 +
STACK CFI 547c8 .cfa: x29 96 +
STACK CFI INIT 54a3c 148 .cfa: sp 0 +
STACK CFI 54a40 .cfa: sp 64 +
STACK CFI 54a50 .cfa: x29 64 + x19: .cfa -8 + ^ x20: .cfa -16 + ^ x21: .cfa -24 + ^ x22: .cfa -32 + ^ x23: .cfa -40 + ^ x28: .cfa -48 + ^ .ra: .cfa -56 + ^ x29: .cfa -64 + ^
STACK CFI 54b3c .cfa: sp 64 +
STACK CFI 54b4c .cfa: sp 0 +
STACK CFI 54b50 .cfa: x29 64 +
STACK CFI INIT 54da0 6e0 .cfa: sp 0 +
STACK CFI 54da4 .cfa: sp 272 +
STACK CFI 54dc0 .cfa: x29 96 + x19: .cfa -8 + ^ x20: .cfa -16 + ^ x21: .cfa -24 + ^ x22: .cfa -32 + ^ x23: .cfa -40 + ^ x24: .cfa -48 + ^ x25: .cfa -56 + ^ x26: .cfa -64 + ^ x27: .cfa -72 + ^ x28: .cfa -80 + ^ .ra: .cfa -88 + ^ x29: .cfa -96 + ^
STACK CFI 55328 .cfa: sp 272 +
STACK CFI 55344 .cfa: sp 0 +
STACK CFI 55348 .cfa: x29 96 +
STACK CFI INIT 5589c 2d8 .cfa: sp 0 +
STACK CFI 558a0 .cfa: sp 80 +
STACK CFI 558b4 .cfa: x29 80 + x19: .cfa -8 + ^ x20: .cfa -16 + ^ x21: .cfa -24 + ^ x22: .cfa -32 + ^ x23: .cfa -40 + ^ x24: .cfa -48 + ^ x28: .cfa -64 + ^ .ra: .cfa -72 + ^ x29: .cfa -80 + ^
STACK CFI 55b28 .cfa: sp 80 +
STACK CFI 55b3c .cfa: sp 0 +
STACK CFI 55b40 .cfa: x29 80 +
STACK CFI INIT 55d04 148 .cfa: sp 0 +
STACK CFI 55d08 .cfa: sp 64 +
STACK CFI 55d18 .cfa: x29 64 + x19: .cfa -8 + ^ x20: .cfa -16 + ^ x21: .cfa -24 + ^ x22: .cfa -32 + ^ x23: .cfa -40 + ^ x28: .cfa -48 + ^ .ra: .cfa -56 + ^ x29: .cfa -64 + ^
STACK CFI 55e04 .cfa: sp 64 +
STACK CFI 55e14 .cfa: sp 0 +
STACK CFI 55e18 .cfa: x29 64 +
STACK CFI INIT 56074 3d4 .cfa: sp 0 +
STACK CFI 56078 .cfa: sp 96 +
STACK CFI 56090 .cfa: x29 96 + x19: .cfa -8 + ^ x20: .cfa -16 + ^ x21: .cfa -24 + ^ x22: .cfa -32 + ^ x23: .cfa -40 + ^ x24: .cfa -48 + ^ x25: .cfa -56 + ^ x26: .cfa -64 + ^ x28: .cfa -80 + ^ .ra: .cfa -88 + ^ x29: .cfa -96 + ^
STACK CFI 563d4 .cfa: sp 96 +
STACK CFI 563ec .cfa: sp 0 +
STACK CFI 563f0 .cfa: x29 96 +
STACK CFI INIT 56e68 1428 .cfa: sp 0 +
STACK CFI 56e6c .cfa: sp 96 +
STACK CFI 56e84 .cfa: x29 96 + x19: .cfa -8 + ^ x20: .cfa -16 + ^ x21: .cfa -24 + ^ x22: .cfa -32 + ^ x23: .cfa -40 + ^ x24: .cfa -48 + ^ x25: .cfa -56 + ^ x26: .cfa -64 + ^ x27: .cfa -72 + ^ x28: .cfa -80 + ^ .ra: .cfa -88 + ^ x29: .cfa -96 + ^
STACK CFI 5811c .cfa: sp 96 +
STACK CFI 58134 .cfa: sp 0 +
STACK CFI 58138 .cfa: x29 96 +
STACK CFI INIT 5890c 5cc .cfa: sp 0 +
STACK CFI 58910 .cfa: sp 304 +
STACK CFI 5892c .cfa: x29 96 + x19: .cfa -8 + ^ x20: .cfa -16 + ^ x21: .cfa -24 + ^ x22: .cfa -32 + ^ x23: .cfa -40 + ^ x24: .cfa -48 + ^ x25: .cfa -56 + ^ x26: .cfa -64 + ^ x27: .cfa -72 + ^ x28: .cfa -80 + ^ .ra: .cfa -88 + ^ x29: .cfa -96 + ^
STACK CFI 58e5c .cfa: sp 304 +
STACK CFI 58e78 .cfa: sp 0 +
STACK CFI 58e7c .cfa: x29 96 +
STACK CFI INIT 58ed8 6b4 .cfa: sp 0 +
STACK CFI 58edc .cfa: sp 272 +
STACK CFI 58ef8 .cfa: x29 96 + x19: .cfa -8 + ^ x20: .cfa -16 + ^ x21: .cfa -24 + ^ x22: .cfa -32 + ^ x23: .cfa -40 + ^ x24: .cfa -48 + ^ x25: .cfa -56 + ^ x26: .cfa -64 + ^ x27: .cfa -72 + ^ x28: .cfa -80 + ^ .ra: .cfa -88 + ^ x29: .cfa -96 + ^
STACK CFI 59434 .cfa: sp 272 +
STACK CFI 59450 .cfa: sp 0 +
STACK CFI 59454 .cfa: x29 96 +
STACK CFI INIT 59828 3e8 .cfa: sp 0 +
STACK CFI 5982c .cfa: sp 96 +
STACK CFI 59844 .cfa: x29 96 + x19: .cfa -8 + ^ x20: .cfa -16 + ^ x21: .cfa -24 + ^ x22: .cfa -32 + ^ x23: .cfa -40 + ^ x24: .cfa -48 + ^ x25: .cfa -56 + ^ x26: .cfa -64 + ^ x28: .cfa -80 + ^ .ra: .cfa -88 + ^ x29: .cfa -96 + ^
STACK CFI 59bbc .cfa: sp 96 +
STACK CFI 59bd4 .cfa: sp 0 +
STACK CFI 59bd8 .cfa: x29 96 +
STACK CFI INIT 59da0 214 .cfa: sp 0 +
STACK CFI 59da4 .cfa: sp 96 +
STACK CFI 59dbc .cfa: x29 96 + x19: .cfa -8 + ^ x20: .cfa -16 + ^ x21: .cfa -24 + ^ x22: .cfa -32 + ^ x23: .cfa -40 + ^ x24: .cfa -48 + ^ x25: .cfa -56 + ^ x26: .cfa -64 + ^ x27: .cfa -72 + ^ x28: .cfa -80 + ^ .ra: .cfa -88 + ^ x29: .cfa -96 + ^
STACK CFI 59f30 .cfa: sp 96 +
STACK CFI 59f48 .cfa: sp 0 +
STACK CFI 59f4c .cfa: x29 96 +
STACK CFI 59f64 .cfa: sp 96 +
STACK CFI 59f7c .cfa: sp 0 +
STACK CFI 59f80 .cfa: x29 96 +
STACK CFI INIT 5e0d8 394 .cfa: sp 0 +
STACK CFI 5e0dc .cfa: sp 96 +
STACK CFI 5e0f8 .cfa: x29 88 + x19: .cfa -8 + ^ x20: .cfa -16 + ^ x21: .cfa -24 + ^ x22: .cfa -32 + ^ x23: .cfa -40 + ^ x24: .cfa -48 + ^ x25: .cfa -56 + ^ x26: .cfa -64 + ^ x28: .cfa -72 + ^ .ra: .cfa -80 + ^ x29: .cfa -88 + ^ v8: .cfa -96 + ^
STACK CFI 5e3f4 .cfa: sp 96 +
STACK CFI 5e410 .cfa: sp 0 +
STACK CFI 5e414 .cfa: x29 88 +
STACK CFI INIT 5e98c 8a0 .cfa: sp 0 +
STACK CFI 5e990 .cfa: sp 128 +
STACK CFI 5e9a4 .cfa: x29 64 + x19: .cfa -8 + ^ x20: .cfa -16 + ^ x21: .cfa -24 + ^ x22: .cfa -32 + ^ x23: .cfa -40 + ^ x24: .cfa -48 + ^ .ra: .cfa -56 + ^ x29: .cfa -64 + ^
STACK CFI 5f164 .cfa: sp 128 +
STACK CFI 5f178 .cfa: sp 0 +
STACK CFI 5f17c .cfa: x29 64 +
STACK CFI INIT 5f438 388 .cfa: sp 0 +
STACK CFI 5f43c .cfa: sp 96 +
STACK CFI 5f458 .cfa: x29 88 + x19: .cfa -8 + ^ x20: .cfa -16 + ^ x21: .cfa -24 + ^ x22: .cfa -32 + ^ x23: .cfa -40 + ^ x24: .cfa -48 + ^ x25: .cfa -56 + ^ x26: .cfa -64 + ^ x28: .cfa -72 + ^ .ra: .cfa -80 + ^ x29: .cfa -88 + ^ v8: .cfa -96 + ^
STACK CFI 5f748 .cfa: sp 96 +
STACK CFI 5f764 .cfa: sp 0 +
STACK CFI 5f768 .cfa: x29 88 +
STACK CFI INIT 5f94c 218 .cfa: sp 0 +
STACK CFI 5f950 .cfa: sp 192 +
STACK CFI 5f964 .cfa: x29 64 + x19: .cfa -8 + ^ x20: .cfa -16 + ^ x21: .cfa -24 + ^ x22: .cfa -32 + ^ x23: .cfa -40 + ^ x24: .cfa -48 + ^ .ra: .cfa -56 + ^ x29: .cfa -64 + ^
STACK CFI 5fadc .cfa: sp 192 +
STACK CFI 5faf0 .cfa: sp 0 +
STACK CFI 5faf4 .cfa: x29 64 +
STACK CFI INIT 5fb64 1f4 .cfa: sp 0 +
STACK CFI 5fb68 .cfa: sp 192 +
STACK CFI 5fb7c .cfa: x29 64 + x19: .cfa -8 + ^ x20: .cfa -16 + ^ x21: .cfa -24 + ^ x22: .cfa -32 + ^ x23: .cfa -40 + ^ x24: .cfa -48 + ^ .ra: .cfa -56 + ^ x29: .cfa -64 + ^
STACK CFI 5fcd0 .cfa: sp 192 +
STACK CFI 5fce4 .cfa: sp 0 +
STACK CFI 5fce8 .cfa: x29 64 +
STACK CFI INIT 5fd58 218 .cfa: sp 0 +
STACK CFI 5fd5c .cfa: sp 192 +
STACK CFI 5fd70 .cfa: x29 64 + x19: .cfa -8 + ^ x20: .cfa -16 + ^ x21: .cfa -24 + ^ x22: .cfa -32 + ^ x23: .cfa -40 + ^ x24: .cfa -48 + ^ .ra: .cfa -56 + ^ x29: .cfa -64 + ^
STACK CFI 5fee8 .cfa: sp 192 +
STACK CFI 5fefc .cfa: sp 0 +
STACK CFI 5ff00 .cfa: x29 64 +
STACK CFI INIT 5ff70 1f4 .cfa: sp 0 +
STACK CFI 5ff74 .cfa: sp 192 +
STACK CFI 5ff88 .cfa: x29 64 + x19: .cfa -8 + ^ x20: .cfa -16 + ^ x21: .cfa -24 + ^ x22: .cfa -32 + ^ x23: .cfa -40 + ^ x24: .cfa -48 + ^ .ra: .cfa -56 + ^ x29: .cfa -64 + ^
STACK CFI 600dc .cfa: sp 192 +
STACK CFI 600f0 .cfa: sp 0 +
STACK CFI 600f4 .cfa: x29 64 +
STACK CFI INIT 60164 22c .cfa: sp 0 +
STACK CFI 60168 .cfa: sp 208 +
STACK CFI 60180 .cfa: x29 80 + x19: .cfa -8 + ^ x20: .cfa -16 + ^ x21: .cfa -24 + ^ x22: .cfa -32 + ^ x23: .cfa -40 + ^ x24: .cfa -48 + ^ x25: .cfa -64 + ^ .ra: .cfa -72 + ^ x29: .cfa -80 + ^
STACK CFI 60304 .cfa: sp 208 +
STACK CFI 6031c .cfa: sp 0 +
STACK CFI 60320 .cfa: x29 80 +
STACK CFI INIT 60390 204 .cfa: sp 0 +
STACK CFI 60394 .cfa: sp 208 +
STACK CFI 603ac .cfa: x29 80 + x19: .cfa -8 + ^ x20: .cfa -16 + ^ x21: .cfa -24 + ^ x22: .cfa -32 + ^ x23: .cfa -40 + ^ x24: .cfa -48 + ^ x25: .cfa -64 + ^ .ra: .cfa -72 + ^ x29: .cfa -80 + ^
STACK CFI 60508 .cfa: sp 208 +
STACK CFI 60520 .cfa: sp 0 +
STACK CFI 60524 .cfa: x29 80 +
STACK CFI INIT 60594 4fc .cfa: sp 0 +
STACK CFI 60598 .cfa: sp 96 +
STACK CFI 605b0 .cfa: x29 96 + x19: .cfa -8 + ^ x20: .cfa -16 + ^ x21: .cfa -24 + ^ x22: .cfa -32 + ^ x23: .cfa -40 + ^ x24: .cfa -48 + ^ x25: .cfa -56 + ^ x26: .cfa -64 + ^ x27: .cfa -72 + ^ x28: .cfa -80 + ^ .ra: .cfa -88 + ^ x29: .cfa -96 + ^
STACK CFI 60a3c .cfa: sp 96 +
STACK CFI 60a54 .cfa: sp 0 +
STACK CFI 60a58 .cfa: x29 96 +
STACK CFI INIT 60bac 62c .cfa: sp 0 +
STACK CFI 60bb0 .cfa: sp 96 +
STACK CFI 60bc8 .cfa: x29 96 + x19: .cfa -8 + ^ x20: .cfa -16 + ^ x21: .cfa -24 + ^ x22: .cfa -32 + ^ x23: .cfa -40 + ^ x24: .cfa -48 + ^ x25: .cfa -56 + ^ x26: .cfa -64 + ^ x27: .cfa -72 + ^ x28: .cfa -80 + ^ .ra: .cfa -88 + ^ x29: .cfa -96 + ^
STACK CFI 61188 .cfa: sp 96 +
STACK CFI 611a0 .cfa: sp 0 +
STACK CFI 611a4 .cfa: x29 96 +
