MODULE Linux arm64 8F4C74EDDE64A2FCE7A3464C67FA4F8E0 teamtcm.geometry-dash-odyssey.android64.so
INFO CODE_ID ED744C8F64DEFCA2E7A3464C67FA4F8E7B40B464
INFO GENERATOR mozilla/dump_syms 2.3.4
PUBLIC 4d180 0 __on_dlclose
PUBLIC 4d190 0 __emutls_unregister_key
PUBLIC 4d198 0 __on_dlclose_late
PUBLIC 4d1a0 0 __atexit_handler_wrapper
PUBLIC 4d1b4 0 atexit
PUBLIC 4d1d0 0 pthread_atfork
PUBLIC 4d1e0 0 unwind_phase2
PUBLIC 4d314 0 _Unwind_Resume
PUBLIC 4d398 0 unwind_phase2_forced
PUBLIC m 4d48c 0 __unw_init_local
PUBLIC m 4d534 0 __unw_get_reg
PUBLIC 4d5b0 0 __unw_step_stage2
PUBLIC m 4d5c4 0 __unw_get_proc_info
PUBLIC m 4d604 0 __unw_resume
PUBLIC 4d62c 0 libunwind::CFI_Parser<libunwind::LocalAddressSpace>::decodeFDE(libunwind::LocalAddressSpace&, unsigned long, libunwind::CFI_Parser<libunwind::LocalAddressSpace>::FDE_Info*, libunwind::CFI_Parser<libunwind::LocalAddressSpace>::CIE_Info*, bool)
PUBLIC 4d7bc 0 libunwind::CFI_Parser<libunwind::LocalAddressSpace>::parseCIE(libunwind::LocalAddressSpace&, unsigned long, libunwind::CFI_Parser<libunwind::LocalAddressSpace>::CIE_Info*)
PUBLIC 4da84 0 libunwind::AbstractUnwindCursor::~AbstractUnwindCursor()
PUBLIC 4da8c 0 libunwind::UnwindCursor<libunwind::LocalAddressSpace, libunwind::Registers_arm64>::~UnwindCursor()
PUBLIC 4da94 0 libunwind::UnwindCursor<libunwind::LocalAddressSpace, libunwind::Registers_arm64>::validReg(int)
PUBLIC 4dad8 0 libunwind::UnwindCursor<libunwind::LocalAddressSpace, libunwind::Registers_arm64>::getReg(int)
PUBLIC 4dbc0 0 libunwind::UnwindCursor<libunwind::LocalAddressSpace, libunwind::Registers_arm64>::setReg(int, unsigned long)
PUBLIC 4dca8 0 libunwind::UnwindCursor<libunwind::LocalAddressSpace, libunwind::Registers_arm64>::validFloatReg(int)
PUBLIC 4dcbc 0 libunwind::UnwindCursor<libunwind::LocalAddressSpace, libunwind::Registers_arm64>::getFloatReg(int)
PUBLIC 4dccc 0 libunwind::UnwindCursor<libunwind::LocalAddressSpace, libunwind::Registers_arm64>::setFloatReg(int, double)
PUBLIC 4dcdc 0 libunwind::UnwindCursor<libunwind::LocalAddressSpace, libunwind::Registers_arm64>::step(bool)
PUBLIC 4ddcc 0 libunwind::UnwindCursor<libunwind::LocalAddressSpace, libunwind::Registers_arm64>::getInfo(unw_proc_info_t*)
PUBLIC 4de10 0 libunwind::UnwindCursor<libunwind::LocalAddressSpace, libunwind::Registers_arm64>::jumpto()
PUBLIC 4de1c 0 libunwind::UnwindCursor<libunwind::LocalAddressSpace, libunwind::Registers_arm64>::isSignalFrame()
PUBLIC 4de28 0 libunwind::UnwindCursor<libunwind::LocalAddressSpace, libunwind::Registers_arm64>::getFunctionName(char*, unsigned long, unsigned long*)
PUBLIC 4de54 0 libunwind::UnwindCursor<libunwind::LocalAddressSpace, libunwind::Registers_arm64>::setInfoBasedOnIPRegister(bool)
PUBLIC 4e0d4 0 libunwind::UnwindCursor<libunwind::LocalAddressSpace, libunwind::Registers_arm64>::getRegisterName(int)
PUBLIC 4e0e0 0 libunwind::UnwindCursor<libunwind::LocalAddressSpace, libunwind::Registers_arm64>::stepThroughSigReturn(libunwind::Registers_arm64&)
PUBLIC 4e200 0 libunwind::DwarfInstructions<libunwind::LocalAddressSpace, libunwind::Registers_arm64>::stepWithDwarf(libunwind::LocalAddressSpace&, unsigned long, unsigned long, libunwind::Registers_arm64&, bool&, bool)
PUBLIC 4e688 0 libunwind::CFI_Parser<libunwind::LocalAddressSpace>::parseFDEInstructions(libunwind::LocalAddressSpace&, libunwind::CFI_Parser<libunwind::LocalAddressSpace>::FDE_Info const&, libunwind::CFI_Parser<libunwind::LocalAddressSpace>::CIE_Info const&, unsigned long, int, libunwind::CFI_Parser<libunwind::LocalAddressSpace>::PrologInfo*)
PUBLIC 4f2d0 0 libunwind::DwarfInstructions<libunwind::LocalAddressSpace, libunwind::Registers_arm64>::getCFA(libunwind::LocalAddressSpace&, libunwind::CFI_Parser<libunwind::LocalAddressSpace>::PrologInfo const&, libunwind::Registers_arm64 const&)
PUBLIC 4f404 0 libunwind::DwarfInstructions<libunwind::LocalAddressSpace, libunwind::Registers_arm64>::getSavedRegister(libunwind::LocalAddressSpace&, libunwind::Registers_arm64 const&, unsigned long, libunwind::CFI_Parser<libunwind::LocalAddressSpace>::RegisterLocation const&)
PUBLIC 4f614 0 libunwind::LocalAddressSpace::getEncodedP(unsigned long&, unsigned long, unsigned char, unsigned long)
PUBLIC 4f9a0 0 libunwind::LocalAddressSpace::getULEB128(unsigned long&, unsigned long)
PUBLIC 4fb68 0 libunwind::DwarfInstructions<libunwind::LocalAddressSpace, libunwind::Registers_arm64>::evaluateExpression(unsigned long, libunwind::LocalAddressSpace&, libunwind::Registers_arm64 const&, unsigned long)
PUBLIC 50524 0 libunwind::UnwindCursor<libunwind::LocalAddressSpace, libunwind::Registers_arm64>::getInfoFromDwarfSection(unsigned long, libunwind::UnwindInfoSections const&, unsigned int)
PUBLIC 507f8 0 libunwind::findUnwindSectionsByPhdr(dl_phdr_info*, unsigned long, void*)
PUBLIC 5092c 0 libunwind::EHHeaderParser<libunwind::LocalAddressSpace>::decodeEHHdr(libunwind::LocalAddressSpace&, unsigned long, unsigned long, libunwind::EHHeaderParser<libunwind::LocalAddressSpace>::EHHeaderInfo&)
PUBLIC 50a4c 0 libunwind::CFI_Parser<libunwind::LocalAddressSpace>::findFDE(libunwind::LocalAddressSpace&, unsigned long, unsigned long, unsigned long, unsigned long, libunwind::CFI_Parser<libunwind::LocalAddressSpace>::FDE_Info*, libunwind::CFI_Parser<libunwind::LocalAddressSpace>::CIE_Info*)
PUBLIC 50c14 0 libunwind::EHHeaderParser<libunwind::LocalAddressSpace>::findFDE(libunwind::LocalAddressSpace&, unsigned long, unsigned long, unsigned int, libunwind::CFI_Parser<libunwind::LocalAddressSpace>::FDE_Info*, libunwind::CFI_Parser<libunwind::LocalAddressSpace>::CIE_Info*)
PUBLIC 50d7c 0 libunwind::EHHeaderParser<libunwind::LocalAddressSpace>::getTableEntrySize(unsigned char)
PUBLIC 50e78 0 libunwind::Registers_arm64::getRegisterName(int)
PUBLIC 50ea8 0 __libunwind_Registers_arm64_jumpto
PUBLIC m 50f38 0 __unw_getcontext
PUBLIC 50fe0 0 __aarch64_ldadd8_relax
PUBLIC 51010 0 init_have_lse_atomics
PUBLIC 510a8 0 __init_cpu_features_constructor
PUBLIC 51644 0 __init_cpu_features
PUBLIC 516d0 0 __aarch64_ldadd8_acq_rel
PUBLIC 51700 0 __cxx_global_var_init
PUBLIC 51b80 0 geode::modifier::ModifyBase<geode::modifier::ModifyDerive<OdysseyAchievementManager, AchievementManager> >::~ModifyBase()
PUBLIC 51b9c 0 geode::modifier::ModifyDerive<OdysseyAchievementManager, AchievementManager>::apply()
PUBLIC 51ee0 0 std::__ndk1::shared_ptr<geode::Hook>::~shared_ptr[abi:ne180000]()
PUBLIC 51f30 0 geode::impl::ResultData<geode::Hook*, std::__ndk1::basic_string<char, std::__ndk1::char_traits<char>, std::__ndk1::allocator<char> > >::~ResultData()
PUBLIC 51fa4 0 std::__ndk1::vector<std::__ndk1::basic_string<char, std::__ndk1::char_traits<char>, std::__ndk1::allocator<char> >, std::__ndk1::allocator<std::__ndk1::basic_string<char, std::__ndk1::char_traits<char>, std::__ndk1::allocator<char> > > >::~vector[abi:ne180000]()
PUBLIC 52020 0 geode::modifier::ModifyBase<geode::modifier::ModifyDerive<OdysseyAchievementManager, AchievementManager> >::apply()
PUBLIC 52024 0 __clang_call_terminate
PUBLIC 52034 0 _ZN5geode15UnwrapExceptionC2IRPNS_4HookEQsr4implE18IsStringStreamableIT_EEENS_4impl5OkTagEOS5_
PUBLIC 52188 0 std::__ndk1::__throw_bad_variant_access[abi:ne180000]()
PUBLIC 521bc 0 std::__ndk1::basic_stringstream<char, std::__ndk1::char_traits<char>, std::__ndk1::allocator<char> >::basic_stringstream[abi:ne180000]()
PUBLIC m 522e8 0 std::__ndk1::basic_stringstream<char, std::__ndk1::char_traits<char>, std::__ndk1::allocator<char> >::~basic_stringstream()
PUBLIC 52368 0 geode::UnwrapException::~UnwrapException()
PUBLIC 5238c 0 std::__ndk1::__put_character_sequence[abi:ne180000]<char, std::__ndk1::char_traits<char> >(std::__ndk1::basic_ostream<char, std::__ndk1::char_traits<char> >, std::__ndk1::basic_ostream const*, unsigned long)
PUBLIC 52530 0 std::__ndk1::__pad_and_output[abi:ne180000]<char, std::__ndk1::char_traits<char> >(std::__ndk1::char_traits<char>, std::__ndk1::ostreambuf_iterator const*, std::__ndk1::ostreambuf_iterator const, std::__ndk1::ostreambuf_iterator const, std::__ndk1::ios_base&, std::__ndk1::ostreambuf_iterator)
PUBLIC 5270c 0 std::__ndk1::basic_string<char, std::__ndk1::char_traits<char>, std::__ndk1::allocator<char> >::__throw_length_error[abi:ne180000]() const
PUBLIC 52720 0 std::__ndk1::__throw_length_error[abi:ne180000](char const*)
PUBLIC 52770 0 std::length_error::length_error[abi:ne180000](char const*)
PUBLIC 527a0 0 std::__throw_bad_array_new_length([abi:ne180000], void)
PUBLIC 527d4 0 std::__ndk1::basic_stringbuf<char, std::__ndk1::char_traits<char>, std::__ndk1::allocator<char> >::str[abi:ne180000]() &&
PUBLIC 5294c 0 std::__ndk1::basic_stringbuf<char, std::__ndk1::char_traits<char>, std::__ndk1::allocator<char> >::__init_buf_ptrs[abi:ne180000]()
PUBLIC 52a94 0 std::__ndk1::vector<std::__ndk1::basic_string<char, std::__ndk1::char_traits<char>, std::__ndk1::allocator<char> >, std::__ndk1::allocator<std::__ndk1::basic_string<char, std::__ndk1::char_traits<char>, std::__ndk1::allocator<char> > > >::__push_back_slow_path<std::__ndk1::basic_string<char, std::__ndk1::char_traits<char>, std::__ndk1::allocator<char> > const&>(std::__ndk1::basic_string<char, std::__ndk1::char_traits<char>, std::__ndk1::allocator<char> > const&)
PUBLIC 52cbc 0 std::__ndk1::basic_string<char, std::__ndk1::char_traits<char>, std::__ndk1::allocator<char> >::__init_copy_ctor_external(char const*, unsigned long)
PUBLIC 52d3c 0 std::__ndk1::__split_buffer<std::__ndk1::basic_string<char, std::__ndk1::char_traits<char>, std::__ndk1::allocator<char> >, std::__ndk1::allocator<std::__ndk1::basic_string<char, std::__ndk1::char_traits<char>, std::__ndk1::allocator<char> > >&>::~__split_buffer()
PUBLIC 52da4 0 std::__ndk1::vector<std::__ndk1::basic_string<char, std::__ndk1::char_traits<char>, std::__ndk1::allocator<char> >, std::__ndk1::allocator<std::__ndk1::basic_string<char, std::__ndk1::char_traits<char>, std::__ndk1::allocator<char> > > >::__throw_length_error[abi:ne180000]() const
PUBLIC 52db8 0 std::__ndk1::__variant_detail::__visitation::__base::__dispatcher<(unsigned long)0>::__dispatch[abi:ne180000]<std::__ndk1::__variant_detail::__dtor<std::__ndk1::__variant_detail::__traits<geode::Hook*, std::__ndk1::basic_string<char, std::__ndk1::char_traits<char>, std::__ndk1::allocator<char> > >, (std::__ndk1::__variant_detail::_Trait)1>::__destroy[abi:ne180000]()::{lambda(auto:1&)#1}, std::__ndk1::__variant_detail::__base<(std::__ndk1::__variant_detail::__traits<geode::Hook*, std::__ndk1::basic_string<char, std::__ndk1::char_traits<char>, std::__ndk1::allocator<char> > >)1, geode::Hook, std::__ndk1::allocator<char> >&>(std::__ndk1::__variant_detail::__dtor<std::__ndk1::__variant_detail::__traits<geode::Hook*, std::__ndk1::basic_string<char, std::__ndk1::char_traits<char>, std::__ndk1::allocator<char> > >, (std::__ndk1::__variant_detail::_Trait)1>, std::__ndk1::__variant_detail::__base<(std::__ndk1::__variant_detail::__traits<geode::Hook*, std::__ndk1::basic_string<char, std::__ndk1::char_traits<char>, std::__ndk1::allocator<char> > >)1, geode::Hook, std::__ndk1::allocator<char> >&)
PUBLIC 52dbc 0 std::__ndk1::__variant_detail::__visitation::__base::__dispatcher<(unsigned long)1>::__dispatch[abi:ne180000]<std::__ndk1::__variant_detail::__dtor<std::__ndk1::__variant_detail::__traits<geode::Hook*, std::__ndk1::basic_string<char, std::__ndk1::char_traits<char>, std::__ndk1::allocator<char> > >, (std::__ndk1::__variant_detail::_Trait)1>::__destroy[abi:ne180000]()::{lambda(auto:1&)#1}, std::__ndk1::__variant_detail::__base<(std::__ndk1::__variant_detail::__traits<geode::Hook*, std::__ndk1::basic_string<char, std::__ndk1::char_traits<char>, std::__ndk1::allocator<char> > >)1, geode::Hook, std::__ndk1::allocator<char> >&>(std::__ndk1::__variant_detail::__dtor<std::__ndk1::__variant_detail::__traits<geode::Hook*, std::__ndk1::basic_string<char, std::__ndk1::char_traits<char>, std::__ndk1::allocator<char> > >, (std::__ndk1::__variant_detail::_Trait)1>, std::__ndk1::__variant_detail::__base<(std::__ndk1::__variant_detail::__traits<geode::Hook*, std::__ndk1::basic_string<char, std::__ndk1::char_traits<char>, std::__ndk1::allocator<char> > >)1, geode::Hook, std::__ndk1::allocator<char> >&)
PUBLIC 52dd0 0 std::__ndk1::__tree<std::__ndk1::__value_type<std::__ndk1::basic_string<char, std::__ndk1::char_traits<char>, std::__ndk1::allocator<char> >, std::__ndk1::shared_ptr<geode::Hook> >, std::__ndk1::__map_value_compare<std::__ndk1::basic_string<char, std::__ndk1::char_traits<char>, std::__ndk1::allocator<char> >, std::__ndk1::__value_type<std::__ndk1::basic_string<char, std::__ndk1::char_traits<char>, std::__ndk1::allocator<char> >, std::__ndk1::shared_ptr<geode::Hook> >, std::__ndk1::less<std::__ndk1::basic_string<char, std::__ndk1::char_traits<char>, std::__ndk1::allocator<char> > >, true>, std::__ndk1::allocator<std::__ndk1::__value_type<std::__ndk1::basic_string<char, std::__ndk1::char_traits<char>, std::__ndk1::allocator<char> >, std::__ndk1::shared_ptr<geode::Hook> > > >::find<std::__ndk1::basic_string<char, std::__ndk1::char_traits<char>, std::__ndk1::allocator<char> > >(std::__ndk1::basic_string<char, std::__ndk1::char_traits<char>, std::__ndk1::allocator<char> > const&)
PUBLIC 52ef0 0 std::__ndk1::__tree<std::__ndk1::__value_type<std::__ndk1::basic_string<char, std::__ndk1::char_traits<char>, std::__ndk1::allocator<char> >, std::__ndk1::shared_ptr<geode::Hook> >, std::__ndk1::__map_value_compare<std::__ndk1::basic_string<char, std::__ndk1::char_traits<char>, std::__ndk1::allocator<char> >, std::__ndk1::__value_type<std::__ndk1::basic_string<char, std::__ndk1::char_traits<char>, std::__ndk1::allocator<char> >, std::__ndk1::shared_ptr<geode::Hook> >, std::__ndk1::less<std::__ndk1::basic_string<char, std::__ndk1::char_traits<char>, std::__ndk1::allocator<char> > >, true>, std::__ndk1::allocator<std::__ndk1::__value_type<std::__ndk1::basic_string<char, std::__ndk1::char_traits<char>, std::__ndk1::allocator<char> >, std::__ndk1::shared_ptr<geode::Hook> > > >::erase(std::__ndk1::__tree_const_iterator<std::__ndk1::__value_type<std::__ndk1::basic_string<char, std::__ndk1::char_traits<char>, std::__ndk1::allocator<char> >, std::__ndk1::shared_ptr<geode::Hook> >, std::__ndk1::__tree_node<std::__ndk1::__value_type<std::__ndk1::basic_string<char, std::__ndk1::char_traits<char>, std::__ndk1::allocator<char> >, std::__ndk1::shared_ptr<geode::Hook> >, void*>*, long>)
PUBLIC 52fc4 0 std::__ndk1::__tree_remove[abi:ne180000]<std::__ndk1::__tree_node_base<void*>*>(std::__ndk1::__tree_node_base<void*>*, std::__ndk1::__tree_node_base<void*>*)
PUBLIC 5338c 0 std::__ndk1::__tree<std::__ndk1::__value_type<std::__ndk1::basic_string<char, std::__ndk1::char_traits<char>, std::__ndk1::allocator<char> >, std::__ndk1::shared_ptr<geode::Hook> >, std::__ndk1::__map_value_compare<std::__ndk1::basic_string<char, std::__ndk1::char_traits<char>, std::__ndk1::allocator<char> >, std::__ndk1::__value_type<std::__ndk1::basic_string<char, std::__ndk1::char_traits<char>, std::__ndk1::allocator<char> >, std::__ndk1::shared_ptr<geode::Hook> >, std::__ndk1::less<std::__ndk1::basic_string<char, std::__ndk1::char_traits<char>, std::__ndk1::allocator<char> > >, true>, std::__ndk1::allocator<std::__ndk1::__value_type<std::__ndk1::basic_string<char, std::__ndk1::char_traits<char>, std::__ndk1::allocator<char> >, std::__ndk1::shared_ptr<geode::Hook> > > >::destroy(std::__ndk1::__tree_node<std::__ndk1::__value_type<std::__ndk1::basic_string<char, std::__ndk1::char_traits<char>, std::__ndk1::allocator<char> >, std::__ndk1::shared_ptr<geode::Hook> >, void*>*)
PUBLIC 53418 0 geode::modifier::AsStaticFunction_addManualAchievements<OdysseyAchievementManager, void (OdysseyAchievementManager::*)()>::Impl<void (OdysseyAchievementManager::*)()>::function(OdysseyAchievementManager*)
PUBLIC 5341c 0 std::__ndk1::shared_ptr<tulip::hook::CallingConvention>::~shared_ptr[abi:ne180000]()
PUBLIC 5346c 0 tulip::hook::HandlerMetadata::~HandlerMetadata()
PUBLIC 534d0 0 OdysseyAchievementManager::addManualAchievements()
PUBLIC 55df4 0 std::__ndk1::__tree<std::__ndk1::__value_type<std::__ndk1::basic_string<char, std::__ndk1::char_traits<char>, std::__ndk1::allocator<char> >, std::__ndk1::shared_ptr<geode::Hook> >, std::__ndk1::__map_value_compare<std::__ndk1::basic_string<char, std::__ndk1::char_traits<char>, std::__ndk1::allocator<char> >, std::__ndk1::__value_type<std::__ndk1::basic_string<char, std::__ndk1::char_traits<char>, std::__ndk1::allocator<char> >, std::__ndk1::shared_ptr<geode::Hook> >, std::__ndk1::less<std::__ndk1::basic_string<char, std::__ndk1::char_traits<char>, std::__ndk1::allocator<char> > >, true>, std::__ndk1::allocator<std::__ndk1::__value_type<std::__ndk1::basic_string<char, std::__ndk1::char_traits<char>, std::__ndk1::allocator<char> >, std::__ndk1::shared_ptr<geode::Hook> > > >::__emplace_unique_key_args<std::__ndk1::basic_string<char, std::__ndk1::char_traits<char>, std::__ndk1::allocator<char> >, std::__ndk1::piecewise_construct_t const&, std::__ndk1::tuple<std::__ndk1::basic_string<char, std::__ndk1::char_traits<char>, std::__ndk1::allocator<char> >&&>, std::__ndk1::tuple<> >(std::__ndk1::basic_string<char, std::__ndk1::char_traits<char>, std::__ndk1::allocator<char> > const&, std::__ndk1::piecewise_construct_t const&, std::__ndk1::tuple<std::__ndk1::basic_string<char, std::__ndk1::char_traits<char>, std::__ndk1::allocator<char> >&&>, std::__ndk1::tuple<>)
PUBLIC 55f6c 0 std::__ndk1::__tree_balance_after_insert[abi:ne180000]<std::__ndk1::__tree_node_base<void*>*>(std::__ndk1::__tree_node_base<void*>*, std::__ndk1::__tree_node_base<void*>*)
PUBLIC 5611c 0 __cxx_global_var_init
PUBLIC 5659c 0 geode::modifier::ModifyBase<geode::modifier::ModifyDerive<OdysseyDialogLayer, DialogLayer> >::~ModifyBase()
PUBLIC 565b8 0 geode::modifier::ModifyDerive<OdysseyDialogLayer, DialogLayer>::apply()
PUBLIC 568dc 0 geode::modifier::ModifyBase<geode::modifier::ModifyDerive<OdysseyDialogLayer, DialogLayer> >::apply()
PUBLIC 568e0 0 geode::modifier::AsStaticFunction_onClose<OdysseyDialogLayer, void (OdysseyDialogLayer::*)()>::Impl<void (OdysseyDialogLayer::*)()>::function(OdysseyDialogLayer*)
PUBLIC 569f4 0 std::__ndk1::vector<geode::Mod*, std::__ndk1::allocator<geode::Mod*> >::~vector[abi:ne180000]()
PUBLIC 56a0c 0 __cxx_global_var_init.1
PUBLIC 56e8c 0 geode::modifier::ModifyBase<geode::modifier::ModifyDerive<GDO_EndLevelLayer, EndLevelLayer> >::~ModifyBase()
PUBLIC 56ea8 0 geode::modifier::ModifyDerive<GDO_EndLevelLayer, EndLevelLayer>::apply()
PUBLIC 57208 0 geode::modifier::ModifyBase<geode::modifier::ModifyDerive<GDO_EndLevelLayer, EndLevelLayer> >::apply()
PUBLIC 5720c 0 geode::modifier::AsStaticFunction_onMenu<GDO_EndLevelLayer, void (GDO_EndLevelLayer::*)(cocos2d::CCObject*)>::Impl<void (GDO_EndLevelLayer::*)(cocos2d::CCObject*)>::function(GDO_EndLevelLayer*, cocos2d::CCObject*)
PUBLIC 575bc 0 _GLOBAL__sub_I_EndLevelLayer.cpp
PUBLIC 575d8 0 __cxx_global_var_init.1
PUBLIC 57a58 0 geode::modifier::ModifyBase<geode::modifier::ModifyDerive<OdysseyShopLayer, GJShopLayer> >::~ModifyBase()
PUBLIC 57a74 0 geode::modifier::ModifyDerive<OdysseyShopLayer, GJShopLayer>::apply()
PUBLIC 5809c 0 geode::modifier::ModifyBase<geode::modifier::ModifyDerive<OdysseyShopLayer, GJShopLayer> >::apply()
PUBLIC 580a0 0 geode::modifier::AsStaticFunction_init<OdysseyShopLayer, bool (OdysseyShopLayer::*)(ShopType)>::Impl<bool (OdysseyShopLayer::*)(ShopType)>::function(OdysseyShopLayer*, ShopType)
PUBLIC 58770 0 geode::modifier::AsStaticFunction_onBack<OdysseyShopLayer, void (OdysseyShopLayer::*)(cocos2d::CCObject*)>::Impl<void (OdysseyShopLayer::*)(cocos2d::CCObject*)>::function(OdysseyShopLayer*, cocos2d::CCObject*)
PUBLIC 588b0 0 OdysseyShopLayer::onPlayVideo(cocos2d::CCObject*)
PUBLIC 58b04 0 cocos2d::CCSequence::create(cocos2d::CCFiniteTimeAction*, ...)
PUBLIC 58b9c 0 OdysseyShopLayer::getCarpDialog()
PUBLIC 58bf0 0 std::__ndk1::vector<gd::string, std::__ndk1::allocator<gd::string> >::~vector[abi:ne180000]()
PUBLIC 58c58 0 std::__ndk1::__exception_guard_exceptions<std::__ndk1::vector<gd::string, std::__ndk1::allocator<gd::string> >::__destroy_vector>::~__exception_guard_exceptions[abi:ne180000]()
PUBLIC 58cd4 0 _GLOBAL__sub_I_GJShopLayer.cpp
PUBLIC 58cf0 0 __cxx_global_var_init
PUBLIC 59170 0 geode::modifier::ModifyBase<geode::modifier::ModifyDerive<GDO_GManager, GManager> >::~ModifyBase()
PUBLIC 5918c 0 geode::modifier::ModifyDerive<GDO_GManager, GManager>::apply()
PUBLIC 59494 0 geode::modifier::ModifyBase<geode::modifier::ModifyDerive<GDO_GManager, GManager> >::apply()
PUBLIC 59498 0 geode::modifier::AsStaticFunction_setup<GDO_GManager, void (GDO_GManager::*)()>::Impl<void (GDO_GManager::*)()>::function(GDO_GManager*)
PUBLIC 59648 0 geode::addresser::Addresser::addressOfVirtual<void, GManager, >(void (GManager::*)())
PUBLIC 59710 0 GManager::GManager(geode::ZeroConstructorType)
PUBLIC 597a4 0 std::__ndk1::__throw_out_of_range[abi:ne180000](char const*)
PUBLIC 597f4 0 std::out_of_range::out_of_range[abi:ne180000](char const*)
PUBLIC 59824 0 __cxx_global_var_init
PUBLIC 59ca4 0 geode::modifier::ModifyBase<geode::modifier::ModifyDerive<GDO_GameLevelManager, GameLevelManager> >::~ModifyBase()
PUBLIC 59cc0 0 geode::modifier::ModifyDerive<GDO_GameLevelManager, GameLevelManager>::apply()
PUBLIC 5a08c 0 geode::modifier::ModifyBase<geode::modifier::ModifyDerive<GDO_GameLevelManager, GameLevelManager> >::apply()
PUBLIC 5a090 0 geode::modifier::AsStaticFunction_getMainLevel<GDO_GameLevelManager, GJGameLevel* (GDO_GameLevelManager::*)(int, bool)>::Impl<GJGameLevel* (GDO_GameLevelManager::*)(int, bool)>::function(GDO_GameLevelManager*, int, bool)
PUBLIC 5a1ac 0 std::__ndk1::vector<tulip::hook::AbstractType, std::__ndk1::allocator<tulip::hook::AbstractType> >::__throw_length_error[abi:ne180000]() const
PUBLIC 5a1c0 0 __cxx_global_var_init.1
PUBLIC 5a640 0 geode::modifier::ModifyBase<geode::modifier::ModifyDerive<OdysseyGameManager, GameManager> >::~ModifyBase()
PUBLIC 5a65c 0 geode::modifier::ModifyDerive<OdysseyGameManager, GameManager>::apply()
PUBLIC 5bae0 0 geode::modifier::ModifyBase<geode::modifier::ModifyDerive<OdysseyGameManager, GameManager> >::apply()
PUBLIC 5bae4 0 geode::modifier::AsStaticFunction_dataLoaded<OdysseyGameManager, void (OdysseyGameManager::*)(DS_Dictionary*)>::Impl<void (OdysseyGameManager::*)(DS_Dictionary*)>::function(OdysseyGameManager*, DS_Dictionary*)
PUBLIC 5bae8 0 geode::modifier::AsStaticFunction_firstLoad<OdysseyGameManager, void (OdysseyGameManager::*)()>::Impl<void (OdysseyGameManager::*)()>::function(OdysseyGameManager*)
PUBLIC 5bbc0 0 geode::modifier::AsStaticFunction_countForType<OdysseyGameManager, int (OdysseyGameManager::*)(IconType)>::Impl<int (OdysseyGameManager::*)(IconType)>::function(OdysseyGameManager*, IconType)
PUBLIC 5bc54 0 geode::modifier::AsStaticFunction_isColorUnlocked<OdysseyGameManager, bool (OdysseyGameManager::*)(int, UnlockType)>::Impl<bool (OdysseyGameManager::*)(int, UnlockType)>::function(OdysseyGameManager*, int, UnlockType)
PUBLIC 5bc5c 0 geode::modifier::AsStaticFunction_isIconUnlocked<OdysseyGameManager, bool (OdysseyGameManager::*)(int, IconType)>::Impl<bool (OdysseyGameManager::*)(int, IconType)>::function(OdysseyGameManager*, int, IconType)
PUBLIC 5bd04 0 geode::modifier::AsStaticFunction_reportPercentageForLevel<OdysseyGameManager, void (OdysseyGameManager::*)(int, int, bool)>::Impl<void (OdysseyGameManager::*)(int, int, bool)>::function(OdysseyGameManager*, int, int, bool)
PUBLIC 5bf1c 0 geode::modifier::AsStaticFunction_returnToLastScene<OdysseyGameManager, void (OdysseyGameManager::*)(GJGameLevel*)>::Impl<void (OdysseyGameManager::*)(GJGameLevel*)>::function(OdysseyGameManager*, GJGameLevel*)
PUBLIC 5c14c 0 geode::addresser::Addresser::addressOfVirtual<void, GameManager, DS_Dictionary*>(void (GameManager::*)(DS_Dictionary*))
PUBLIC 5c214 0 GameManager::GameManager(geode::ZeroConstructorType)
PUBLIC 5c4ac 0 gd::map<int, gd::vector<cocos2d::CCObject*> >::~map()
PUBLIC 5c4c8 0 gd::map<int, bool>::~map()
PUBLIC 5c4e4 0 gd::map<int, gd::map<int, int> >::~map()
PUBLIC 5c500 0 gd::map<int, int>::~map()
PUBLIC 5c51c 0 gd::map<int, int>::insert_pair(std::__ndk1::pair<int, int> const&)
PUBLIC 5c6bc 0 geode::stl::_rb_insert_rebalance(bool, geode::stl::_rb_tree_base*, geode::stl::_rb_tree_base*, geode::stl::_rb_tree_base&)
PUBLIC 5c974 0 std::__ndk1::__tree<std::__ndk1::__value_type<int, int>, std::__ndk1::__map_value_compare<int, std::__ndk1::__value_type<int, int>, std::__ndk1::less<int>, true>, std::__ndk1::allocator<std::__ndk1::__value_type<int, int> > >::destroy(std::__ndk1::__tree_node<std::__ndk1::__value_type<int, int>, void*>*)
PUBLIC 5c9b8 0 gd::map<int, gd::map<int, int> >::map(std::__ndk1::map<int, gd::map<int, int>, std::__ndk1::less<int>, std::__ndk1::allocator<std::__ndk1::pair<int const, gd::map<int, int> > > >)
PUBLIC 5cafc 0 gd::map<int, gd::map<int, int> >::insert_pair(std::__ndk1::pair<int, gd::map<int, int> > const&)
PUBLIC 5cccc 0 std::__ndk1::pair<int, gd::map<int, int> >::~pair()
PUBLIC 5ccec 0 std::__ndk1::pair<int const, gd::map<int, int> >::~pair()
PUBLIC 5cd0c 0 gd::map<int, int>::map(gd::map<int, int> const&)
PUBLIC 5ce0c 0 gd::map<int, int>::operator std::__ndk1::map<int, int, std::__ndk1::less<int>, std::__ndk1::allocator<std::__ndk1::pair<int const, int> > >() const
PUBLIC 5cf8c 0 std::__ndk1::__tree<std::__ndk1::__value_type<int, gd::map<int, int> >, std::__ndk1::__map_value_compare<int, std::__ndk1::__value_type<int, gd::map<int, int> >, std::__ndk1::less<int>, true>, std::__ndk1::allocator<std::__ndk1::__value_type<int, gd::map<int, int> > > >::destroy(std::__ndk1::__tree_node<std::__ndk1::__value_type<int, gd::map<int, int> >, void*>*)
PUBLIC 5cfe4 0 gd::map<int, gd::vector<cocos2d::CCObject*> >::map(std::__ndk1::map<int, gd::vector<cocos2d::CCObject*>, std::__ndk1::less<int>, std::__ndk1::allocator<std::__ndk1::pair<int const, gd::vector<cocos2d::CCObject*> > > >)
PUBLIC 5d1e4 0 gd::map<int, gd::vector<cocos2d::CCObject*> >::insert_pair(std::__ndk1::pair<int, gd::vector<cocos2d::CCObject*> > const&)
PUBLIC 5d464 0 std::__ndk1::__tree<std::__ndk1::__value_type<int, gd::vector<cocos2d::CCObject*> >, std::__ndk1::__map_value_compare<int, std::__ndk1::__value_type<int, gd::vector<cocos2d::CCObject*> >, std::__ndk1::less<int>, true>, std::__ndk1::allocator<std::__ndk1::__value_type<int, gd::vector<cocos2d::CCObject*> > > >::destroy(std::__ndk1::__tree_node<std::__ndk1::__value_type<int, gd::vector<cocos2d::CCObject*> >, void*>*)
PUBLIC 5d4b0 0 gd::map<int, gd::vector<cocos2d::CCObject*> >::erase(geode::stl::_rb_tree_node<std::__ndk1::pair<int, gd::vector<cocos2d::CCObject*> > >*)
PUBLIC 5d50c 0 gd::map<int, bool>::erase(geode::stl::_rb_tree_node<std::__ndk1::pair<int, bool> >*)
PUBLIC 5d560 0 gd::map<int, gd::map<int, int> >::erase(geode::stl::_rb_tree_node<std::__ndk1::pair<int, gd::map<int, int> > >*)
PUBLIC 5d5c4 0 gd::map<int, int>::erase(geode::stl::_rb_tree_node<std::__ndk1::pair<int, int> >*)
PUBLIC 5d618 0 geode::addresser::Addresser::addressOfVirtual<void, GameManager, >(void (GameManager::*)())
PUBLIC 5d6e0 0 geode::Mod::getSavedValue<int>(std::__ndk1::basic_string_view<char, std::__ndk1::char_traits<char> >)
PUBLIC 5d864 0 geode::impl::ResultData<matjson::Value&, std::__ndk1::basic_string<char, std::__ndk1::char_traits<char>, std::__ndk1::allocator<char> > >::~ResultData()
PUBLIC 5d8d8 0 matjson::Value::as<int>() const
PUBLIC 5d9dc 0 std::__ndk1::__variant_detail::__visitation::__base::__dispatcher<(unsigned long)0>::__dispatch[abi:ne180000]<std::__ndk1::__variant_detail::__dtor<std::__ndk1::__variant_detail::__traits<long, std::__ndk1::basic_string<char, std::__ndk1::char_traits<char>, std::__ndk1::allocator<char> > >, (std::__ndk1::__variant_detail::_Trait)1>::__destroy[abi:ne180000]()::{lambda(auto:1&)#1}, std::__ndk1::__variant_detail::__base<(std::__ndk1::__variant_detail::__traits<long, std::__ndk1::basic_string<char, std::__ndk1::char_traits<char>, std::__ndk1::allocator<char> > >)1, long, std::__ndk1::allocator<char> >&>(std::__ndk1::__variant_detail::__dtor<std::__ndk1::__variant_detail::__traits<long, std::__ndk1::basic_string<char, std::__ndk1::char_traits<char>, std::__ndk1::allocator<char> > >, (std::__ndk1::__variant_detail::_Trait)1>, std::__ndk1::__variant_detail::__base<(std::__ndk1::__variant_detail::__traits<long, std::__ndk1::basic_string<char, std::__ndk1::char_traits<char>, std::__ndk1::allocator<char> > >)1, long, std::__ndk1::allocator<char> >&)
PUBLIC 5d9e0 0 std::__ndk1::__variant_detail::__visitation::__base::__dispatcher<(unsigned long)1>::__dispatch[abi:ne180000]<std::__ndk1::__variant_detail::__dtor<std::__ndk1::__variant_detail::__traits<long, std::__ndk1::basic_string<char, std::__ndk1::char_traits<char>, std::__ndk1::allocator<char> > >, (std::__ndk1::__variant_detail::_Trait)1>::__destroy[abi:ne180000]()::{lambda(auto:1&)#1}, std::__ndk1::__variant_detail::__base<(std::__ndk1::__variant_detail::__traits<long, std::__ndk1::basic_string<char, std::__ndk1::char_traits<char>, std::__ndk1::allocator<char> > >)1, long, std::__ndk1::allocator<char> >&>(std::__ndk1::__variant_detail::__dtor<std::__ndk1::__variant_detail::__traits<long, std::__ndk1::basic_string<char, std::__ndk1::char_traits<char>, std::__ndk1::allocator<char> > >, (std::__ndk1::__variant_detail::_Trait)1>, std::__ndk1::__variant_detail::__base<(std::__ndk1::__variant_detail::__traits<long, std::__ndk1::basic_string<char, std::__ndk1::char_traits<char>, std::__ndk1::allocator<char> > >)1, long, std::__ndk1::allocator<char> >&)
PUBLIC 5d9f4 0 std::__ndk1::__variant_detail::__visitation::__base::__dispatcher<(unsigned long)0>::__dispatch[abi:ne180000]<std::__ndk1::__variant_detail::__dtor<std::__ndk1::__variant_detail::__traits<std::__ndk1::reference_wrapper<matjson::Value>, std::__ndk1::basic_string<char, std::__ndk1::char_traits<char>, std::__ndk1::allocator<char> > >, (std::__ndk1::__variant_detail::_Trait)1>::__destroy[abi:ne180000]()::{lambda(auto:1&)#1}, std::__ndk1::__variant_detail::__base<(std::__ndk1::__variant_detail::__traits<std::__ndk1::reference_wrapper<matjson::Value>, std::__ndk1::basic_string<char, std::__ndk1::char_traits<char>, std::__ndk1::allocator<char> > >)1, matjson::Value, std::__ndk1::allocator<char> >&>(std::__ndk1::__variant_detail::__dtor<std::__ndk1::__variant_detail::__traits<std::__ndk1::reference_wrapper<matjson::Value>, std::__ndk1::basic_string<char, std::__ndk1::char_traits<char>, std::__ndk1::allocator<char> > >, (std::__ndk1::__variant_detail::_Trait)1>, std::__ndk1::__variant_detail::__base<(std::__ndk1::__variant_detail::__traits<std::__ndk1::reference_wrapper<matjson::Value>, std::__ndk1::basic_string<char, std::__ndk1::char_traits<char>, std::__ndk1::allocator<char> > >)1, matjson::Value, std::__ndk1::allocator<char> >&)
PUBLIC 5d9f8 0 std::__ndk1::__variant_detail::__visitation::__base::__dispatcher<(unsigned long)1>::__dispatch[abi:ne180000]<std::__ndk1::__variant_detail::__dtor<std::__ndk1::__variant_detail::__traits<std::__ndk1::reference_wrapper<matjson::Value>, std::__ndk1::basic_string<char, std::__ndk1::char_traits<char>, std::__ndk1::allocator<char> > >, (std::__ndk1::__variant_detail::_Trait)1>::__destroy[abi:ne180000]()::{lambda(auto:1&)#1}, std::__ndk1::__variant_detail::__base<(std::__ndk1::__variant_detail::__traits<std::__ndk1::reference_wrapper<matjson::Value>, std::__ndk1::basic_string<char, std::__ndk1::char_traits<char>, std::__ndk1::allocator<char> > >)1, matjson::Value, std::__ndk1::allocator<char> >&>(std::__ndk1::__variant_detail::__dtor<std::__ndk1::__variant_detail::__traits<std::__ndk1::reference_wrapper<matjson::Value>, std::__ndk1::basic_string<char, std::__ndk1::char_traits<char>, std::__ndk1::allocator<char> > >, (std::__ndk1::__variant_detail::_Trait)1>, std::__ndk1::__variant_detail::__base<(std::__ndk1::__variant_detail::__traits<std::__ndk1::reference_wrapper<matjson::Value>, std::__ndk1::basic_string<char, std::__ndk1::char_traits<char>, std::__ndk1::allocator<char> > >)1, matjson::Value, std::__ndk1::allocator<char> >&)
PUBLIC 5da0c 0 std::__ndk1::__variant_detail::__visitation::__base::__dispatcher<(unsigned long)0>::__dispatch[abi:ne180000]<std::__ndk1::__variant_detail::__dtor<std::__ndk1::__variant_detail::__traits<int, std::__ndk1::basic_string<char, std::__ndk1::char_traits<char>, std::__ndk1::allocator<char> > >, (std::__ndk1::__variant_detail::_Trait)1>::__destroy[abi:ne180000]()::{lambda(auto:1&)#1}, std::__ndk1::__variant_detail::__base<(std::__ndk1::__variant_detail::__traits<int, std::__ndk1::basic_string<char, std::__ndk1::char_traits<char>, std::__ndk1::allocator<char> > >)1, int, std::__ndk1::allocator<char> >&>(std::__ndk1::__variant_detail::__dtor<std::__ndk1::__variant_detail::__traits<int, std::__ndk1::basic_string<char, std::__ndk1::char_traits<char>, std::__ndk1::allocator<char> > >, (std::__ndk1::__variant_detail::_Trait)1>, std::__ndk1::__variant_detail::__base<(std::__ndk1::__variant_detail::__traits<int, std::__ndk1::basic_string<char, std::__ndk1::char_traits<char>, std::__ndk1::allocator<char> > >)1, int, std::__ndk1::allocator<char> >&)
PUBLIC 5da10 0 std::__ndk1::__variant_detail::__visitation::__base::__dispatcher<(unsigned long)1>::__dispatch[abi:ne180000]<std::__ndk1::__variant_detail::__dtor<std::__ndk1::__variant_detail::__traits<int, std::__ndk1::basic_string<char, std::__ndk1::char_traits<char>, std::__ndk1::allocator<char> > >, (std::__ndk1::__variant_detail::_Trait)1>::__destroy[abi:ne180000]()::{lambda(auto:1&)#1}, std::__ndk1::__variant_detail::__base<(std::__ndk1::__variant_detail::__traits<int, std::__ndk1::basic_string<char, std::__ndk1::char_traits<char>, std::__ndk1::allocator<char> > >)1, int, std::__ndk1::allocator<char> >&>(std::__ndk1::__variant_detail::__dtor<std::__ndk1::__variant_detail::__traits<int, std::__ndk1::basic_string<char, std::__ndk1::char_traits<char>, std::__ndk1::allocator<char> > >, (std::__ndk1::__variant_detail::_Trait)1>, std::__ndk1::__variant_detail::__base<(std::__ndk1::__variant_detail::__traits<int, std::__ndk1::basic_string<char, std::__ndk1::char_traits<char>, std::__ndk1::allocator<char> > >)1, int, std::__ndk1::allocator<char> >&)
PUBLIC 5da24 0 _GLOBAL__sub_I_GameManager.cpp
PUBLIC 5da40 0 __cxx_global_var_init.1
PUBLIC 5dec0 0 geode::modifier::ModifyBase<geode::modifier::ModifyDerive<OdysseyGameStatsManager, GameStatsManager> >::~ModifyBase()
PUBLIC 5dedc 0 geode::modifier::ModifyDerive<OdysseyGameStatsManager, GameStatsManager>::apply()
PUBLIC 5f0f0 0 geode::modifier::ModifyBase<geode::modifier::ModifyDerive<OdysseyGameStatsManager, GameStatsManager> >::apply()
PUBLIC 5f0f4 0 geode::modifier::AsStaticFunction_checkCoinAchievement<OdysseyGameStatsManager, void (OdysseyGameStatsManager::*)(GJGameLevel*)>::Impl<void (OdysseyGameStatsManager::*)(GJGameLevel*)>::function(OdysseyGameStatsManager*, GJGameLevel*)
PUBLIC 5f348 0 geode::modifier::AsStaticFunction_createStoreItems<OdysseyGameStatsManager, void (OdysseyGameStatsManager::*)()>::Impl<void (OdysseyGameStatsManager::*)()>::function(OdysseyGameStatsManager*)
PUBLIC 5f5a4 0 geode::modifier::AsStaticFunction_getBaseCurrencyForLevel<OdysseyGameStatsManager, int (OdysseyGameStatsManager::*)(GJGameLevel*)>::Impl<int (OdysseyGameStatsManager::*)(GJGameLevel*)>::function(OdysseyGameStatsManager*, GJGameLevel*)
PUBLIC 5f5d4 0 geode::modifier::AsStaticFunction_getItemUnlockState<OdysseyGameStatsManager, int (OdysseyGameStatsManager::*)(int, UnlockType)>::Impl<int (OdysseyGameStatsManager::*)(int, UnlockType)>::function(OdysseyGameStatsManager*, int, UnlockType)
PUBLIC 5f764 0 geode::modifier::AsStaticFunction_incrementStat<OdysseyGameStatsManager, void (OdysseyGameStatsManager::*)(char const*, int)>::Impl<void (OdysseyGameStatsManager::*)(char const*, int)>::function(OdysseyGameStatsManager*, char const*, int)
PUBLIC 5f8b8 0 geode::modifier::AsStaticFunction_isItemUnlocked<OdysseyGameStatsManager, bool (OdysseyGameStatsManager::*)(UnlockType, int)>::Impl<bool (OdysseyGameStatsManager::*)(UnlockType, int)>::function(OdysseyGameStatsManager*, UnlockType, int)
PUBLIC 5f8d4 0 _GLOBAL__sub_I_GameStatsManager.cpp
PUBLIC 5f8f0 0 __cxx_global_var_init.1
PUBLIC 5fd70 0 geode::modifier::ModifyBase<geode::modifier::ModifyDerive<GDOGarageLayer, GJGarageLayer> >::~ModifyBase()
PUBLIC 5fd8c 0 geode::modifier::ModifyDerive<GDOGarageLayer, GJGarageLayer>::apply()
PUBLIC 604ac 0 geode::modifier::ModifyBase<geode::modifier::ModifyDerive<GDOGarageLayer, GJGarageLayer> >::apply()
PUBLIC 604b0 0 geode::modifier::AsStaticFunction_init<GDOGarageLayer, bool (GDOGarageLayer::*)()>::Impl<bool (GDOGarageLayer::*)()>::function(GDOGarageLayer*)
PUBLIC 60a8c 0 geode::Hook::create<void (*)(GDOGarageLayer*, cocos2d::CCObject*)>(void*, void (*)(GDOGarageLayer*, cocos2d::CCObject*), std::__ndk1::basic_string<char, std::__ndk1::char_traits<char>, std::__ndk1::allocator<char> > const&, tulip::hook::TulipConvention, tulip::hook::HookMetadata const&)
PUBLIC 60c10 0 geode::modifier::AsStaticFunction_onBack<GDOGarageLayer, void (GDOGarageLayer::*)(cocos2d::CCObject*)>::Impl<void (GDOGarageLayer::*)(cocos2d::CCObject*)>::function(GDOGarageLayer*, cocos2d::CCObject*)
PUBLIC 60d98 0 geode::modifier::AsStaticFunction_onSelectTab<GDOGarageLayer, void (GDOGarageLayer::*)(cocos2d::CCObject*)>::Impl<void (GDOGarageLayer::*)(cocos2d::CCObject*)>::function(GDOGarageLayer*, cocos2d::CCObject*)
PUBLIC 61128 0 geode::addresser::Addresser::addressOfVirtual<bool, GJGarageLayer, >(bool (GJGarageLayer::*)())
PUBLIC 611d0 0 GJGarageLayer::GJGarageLayer(geode::ZeroConstructorType)
PUBLIC 61284 0 GDOGarageLayer::onCustomSelect(cocos2d::CCObject*)
PUBLIC 612fc 0 _GLOBAL__sub_I_GarageLayer.cpp
PUBLIC 61318 0 __cxx_global_var_init.1
PUBLIC 61798 0 geode::modifier::ModifyBase<geode::modifier::ModifyDerive<GDOItemInfoPopup, ItemInfoPopup> >::~ModifyBase()
PUBLIC 617b4 0 geode::modifier::ModifyDerive<GDOItemInfoPopup, ItemInfoPopup>::apply()
PUBLIC 61e4c 0 geode::modifier::ModifyBase<geode::modifier::ModifyDerive<GDOItemInfoPopup, ItemInfoPopup> >::apply()
PUBLIC 61e50 0 geode::modifier::AsStaticFunction_nameForUnlockType<GDOItemInfoPopup, gd::string (*)(int, UnlockType)>::Impl<gd::string (*)(int, UnlockType)>::function(int, UnlockType)
PUBLIC 61ebc 0 geode::modifier::AsStaticFunction_init<GDOItemInfoPopup, bool (GDOItemInfoPopup::*)(int, UnlockType)>::Impl<bool (GDOItemInfoPopup::*)(int, UnlockType)>::function(GDOItemInfoPopup*, int, UnlockType)
PUBLIC 62960 0 _GLOBAL__sub_I_ItemInfoPopup.cpp
PUBLIC 6297c 0 __cxx_global_var_init
PUBLIC 62dfc 0 geode::modifier::ModifyBase<geode::modifier::ModifyDerive<OdysseyLevelTools, LevelTools> >::~ModifyBase()
PUBLIC 62e18 0 geode::modifier::ModifyDerive<OdysseyLevelTools, LevelTools>::apply()
PUBLIC 64044 0 geode::modifier::ModifyBase<geode::modifier::ModifyDerive<OdysseyLevelTools, LevelTools> >::apply()
PUBLIC 64048 0 geode::modifier::AsStaticFunction_artistForAudio<OdysseyLevelTools, int (*)(int)>::Impl<int (*)(int)>::function(int)
PUBLIC 64104 0 geode::Hook::create<gd::string (*)(int)>(void*, gd::string (*)(int), std::__ndk1::basic_string<char, std::__ndk1::char_traits<char>, std::__ndk1::allocator<char> > const&, tulip::hook::TulipConvention, tulip::hook::HookMetadata const&)
PUBLIC 64238 0 geode::modifier::AsStaticFunction_getAudioFileName<OdysseyLevelTools, gd::string (*)(int)>::Impl<gd::string (*)(int)>::function(int)
PUBLIC 64374 0 geode::modifier::AsStaticFunction_getAudioString<OdysseyLevelTools, gd::string (*)(int)>::Impl<gd::string (*)(int)>::function(int)
PUBLIC 64388 0 geode::modifier::AsStaticFunction_getAudioTitle<OdysseyLevelTools, gd::string (*)(int)>::Impl<gd::string (*)(int)>::function(int)
PUBLIC 644c4 0 geode::modifier::AsStaticFunction_getLevel<OdysseyLevelTools, GJGameLevel* (*)(int, bool)>::Impl<GJGameLevel* (*)(int, bool)>::function(int, bool)
PUBLIC 6495c 0 geode::modifier::AsStaticFunction_nameForArtist<OdysseyLevelTools, gd::string (*)(int)>::Impl<gd::string (*)(int)>::function(int)
PUBLIC 64978 0 geode::modifier::AsStaticFunction_ngURLForArtist<OdysseyLevelTools, gd::string (*)(int)>::Impl<gd::string (*)(int)>::function(int)
PUBLIC 64994 0 geode::modifier::AsStaticFunction_urlForAudio<OdysseyLevelTools, gd::string (*)(int)>::Impl<gd::string (*)(int)>::function(int)
PUBLIC 64af0 0 __cxx_global_var_init.1
PUBLIC 64f70 0 geode::modifier::ModifyBase<geode::modifier::ModifyDerive<OdysseyLoadingLayer, LoadingLayer> >::~ModifyBase()
PUBLIC 64f8c 0 geode::modifier::ModifyDerive<OdysseyLoadingLayer, LoadingLayer>::apply()
PUBLIC 65594 0 geode::modifier::ModifyBase<geode::modifier::ModifyDerive<OdysseyLoadingLayer, LoadingLayer> >::apply()
PUBLIC 65598 0 geode::modifier::AsStaticFunction_getLoadingString<OdysseyLoadingLayer, char const* (OdysseyLoadingLayer::*)()>::Impl<char const* (OdysseyLoadingLayer::*)()>::function(OdysseyLoadingLayer*)
PUBLIC 65b98 0 geode::modifier::AsStaticFunction_init<OdysseyLoadingLayer, bool (OdysseyLoadingLayer::*)(bool)>::Impl<bool (OdysseyLoadingLayer::*)(bool)>::function(OdysseyLoadingLayer*, bool)
PUBLIC 65b9c 0 std::__ndk1::vector<std::__ndk1::basic_string<char, std::__ndk1::char_traits<char>, std::__ndk1::allocator<char> >, std::__ndk1::allocator<std::__ndk1::basic_string<char, std::__ndk1::char_traits<char>, std::__ndk1::allocator<char> > > >::vector[abi:ne180000](std::initializer_list<std::__ndk1::basic_string<char, std::__ndk1::char_traits<char>, std::__ndk1::allocator<char> > >)
PUBLIC 65cf4 0 std::__ndk1::__exception_guard_exceptions<std::__ndk1::vector<std::__ndk1::basic_string<char, std::__ndk1::char_traits<char>, std::__ndk1::allocator<char> >, std::__ndk1::allocator<std::__ndk1::basic_string<char, std::__ndk1::char_traits<char>, std::__ndk1::allocator<char> > > >::__destroy_vector>::~__exception_guard_exceptions[abi:ne180000]()
PUBLIC 65d80 0 std::__ndk1::__exception_guard_exceptions<std::__ndk1::_AllocatorDestroyRangeReverse<std::__ndk1::allocator<std::__ndk1::basic_string<char, std::__ndk1::char_traits<char>, std::__ndk1::allocator<char> > >, std::__ndk1::basic_string<char, std::__ndk1::char_traits<char>, std::__ndk1::allocator<char> >*> >::~__exception_guard_exceptions[abi:ne180000]()
PUBLIC 65de0 0 std::__ndk1::vector<std::__ndk1::basic_string<char, std::__ndk1::char_traits<char>, std::__ndk1::allocator<char> >, std::__ndk1::allocator<std::__ndk1::basic_string<char, std::__ndk1::char_traits<char>, std::__ndk1::allocator<char> > > >::__throw_out_of_range[abi:ne180000]() const
PUBLIC 65df4 0 OdysseyLoadingLayer::init(bool)
PUBLIC 67a64 0 std::__ndk1::__variant_detail::__visitation::__base::__dispatcher<(unsigned long)0>::__dispatch[abi:ne180000]<std::__ndk1::__variant_detail::__dtor<std::__ndk1::__variant_detail::__traits<bool, std::__ndk1::basic_string<char, std::__ndk1::char_traits<char>, std::__ndk1::allocator<char> > >, (std::__ndk1::__variant_detail::_Trait)1>::__destroy[abi:ne180000]()::{lambda(auto:1&)#1}, std::__ndk1::__variant_detail::__base<(std::__ndk1::__variant_detail::__traits<bool, std::__ndk1::basic_string<char, std::__ndk1::char_traits<char>, std::__ndk1::allocator<char> > >)1, bool, std::__ndk1::allocator<char> >&>(std::__ndk1::__variant_detail::__dtor<std::__ndk1::__variant_detail::__traits<bool, std::__ndk1::basic_string<char, std::__ndk1::char_traits<char>, std::__ndk1::allocator<char> > >, (std::__ndk1::__variant_detail::_Trait)1>, std::__ndk1::__variant_detail::__base<(std::__ndk1::__variant_detail::__traits<bool, std::__ndk1::basic_string<char, std::__ndk1::char_traits<char>, std::__ndk1::allocator<char> > >)1, bool, std::__ndk1::allocator<char> >&)
PUBLIC 67a68 0 std::__ndk1::__variant_detail::__visitation::__base::__dispatcher<(unsigned long)1>::__dispatch[abi:ne180000]<std::__ndk1::__variant_detail::__dtor<std::__ndk1::__variant_detail::__traits<bool, std::__ndk1::basic_string<char, std::__ndk1::char_traits<char>, std::__ndk1::allocator<char> > >, (std::__ndk1::__variant_detail::_Trait)1>::__destroy[abi:ne180000]()::{lambda(auto:1&)#1}, std::__ndk1::__variant_detail::__base<(std::__ndk1::__variant_detail::__traits<bool, std::__ndk1::basic_string<char, std::__ndk1::char_traits<char>, std::__ndk1::allocator<char> > >)1, bool, std::__ndk1::allocator<char> >&>(std::__ndk1::__variant_detail::__dtor<std::__ndk1::__variant_detail::__traits<bool, std::__ndk1::basic_string<char, std::__ndk1::char_traits<char>, std::__ndk1::allocator<char> > >, (std::__ndk1::__variant_detail::_Trait)1>, std::__ndk1::__variant_detail::__base<(std::__ndk1::__variant_detail::__traits<bool, std::__ndk1::basic_string<char, std::__ndk1::char_traits<char>, std::__ndk1::allocator<char> > >)1, bool, std::__ndk1::allocator<char> >&)
PUBLIC 67a7c 0 std::__ndk1::__fs::filesystem::path::operator/=[abi:ne180000](std::__ndk1::__fs::filesystem::path const&)
PUBLIC 67b64 0 std::__ndk1::basic_string<char, std::__ndk1::char_traits<char>, std::__ndk1::allocator<char> >::__assign_no_alias<true>(char const*, unsigned long)
PUBLIC 67c10 0 std::__ndk1::basic_string<char, std::__ndk1::char_traits<char>, std::__ndk1::allocator<char> >::__assign_no_alias<false>(char const*, unsigned long)
PUBLIC 67d20 0 _ZNSt6__ndk112basic_stringIcNS_11char_traitsIcEENS_9allocatorIcEEE6appendB8ne180000IPKcTnNS_9enable_ifIXsr31__has_forward_iterator_categoryIT_EE5valueEiE4typeELi0EEERS5_SA_SA_
PUBLIC 68024 0 gd::map<int, gd::string>::insert_pair(std::__ndk1::pair<int, gd::string> const&)
PUBLIC 68224 0 cocos2d::CCTexturePack::~CCTexturePack()
PUBLIC 682b0 0 geode::impl::ResultData<void, std::__ndk1::basic_string<char, std::__ndk1::char_traits<char>, std::__ndk1::allocator<char> > >::~ResultData()
PUBLIC 68324 0 std::__ndk1::__variant_detail::__visitation::__base::__dispatcher<(unsigned long)0>::__dispatch[abi:ne180000]<std::__ndk1::__variant_detail::__dtor<std::__ndk1::__variant_detail::__traits<std::__ndk1::monostate, std::__ndk1::basic_string<char, std::__ndk1::char_traits<char>, std::__ndk1::allocator<char> > >, (std::__ndk1::__variant_detail::_Trait)1>::__destroy[abi:ne180000]()::{lambda(auto:1&)#1}, std::__ndk1::__variant_detail::__base<(std::__ndk1::__variant_detail::__traits<std::__ndk1::monostate, std::__ndk1::basic_string<char, std::__ndk1::char_traits<char>, std::__ndk1::allocator<char> > >)1, std::__ndk1::__variant_detail::__traits, std::__ndk1::allocator<char> >&>(std::__ndk1::__variant_detail::__dtor<std::__ndk1::__variant_detail::__traits<std::__ndk1::monostate, std::__ndk1::basic_string<char, std::__ndk1::char_traits<char>, std::__ndk1::allocator<char> > >, (std::__ndk1::__variant_detail::_Trait)1>, std::__ndk1::__variant_detail::__base<(std::__ndk1::__variant_detail::__traits<std::__ndk1::monostate, std::__ndk1::basic_string<char, std::__ndk1::char_traits<char>, std::__ndk1::allocator<char> > >)1, std::__ndk1::__variant_detail::__traits, std::__ndk1::allocator<char> >&)
PUBLIC 68328 0 std::__ndk1::__variant_detail::__visitation::__base::__dispatcher<(unsigned long)1>::__dispatch[abi:ne180000]<std::__ndk1::__variant_detail::__dtor<std::__ndk1::__variant_detail::__traits<std::__ndk1::monostate, std::__ndk1::basic_string<char, std::__ndk1::char_traits<char>, std::__ndk1::allocator<char> > >, (std::__ndk1::__variant_detail::_Trait)1>::__destroy[abi:ne180000]()::{lambda(auto:1&)#1}, std::__ndk1::__variant_detail::__base<(std::__ndk1::__variant_detail::__traits<std::__ndk1::monostate, std::__ndk1::basic_string<char, std::__ndk1::char_traits<char>, std::__ndk1::allocator<char> > >)1, std::__ndk1::__variant_detail::__traits, std::__ndk1::allocator<char> >&>(std::__ndk1::__variant_detail::__dtor<std::__ndk1::__variant_detail::__traits<std::__ndk1::monostate, std::__ndk1::basic_string<char, std::__ndk1::char_traits<char>, std::__ndk1::allocator<char> > >, (std::__ndk1::__variant_detail::_Trait)1>, std::__ndk1::__variant_detail::__base<(std::__ndk1::__variant_detail::__traits<std::__ndk1::monostate, std::__ndk1::basic_string<char, std::__ndk1::char_traits<char>, std::__ndk1::allocator<char> > >)1, std::__ndk1::__variant_detail::__traits, std::__ndk1::allocator<char> >&)
PUBLIC 6833c 0 _GLOBAL__sub_I_LoadingLayer.cpp
PUBLIC 68358 0 __cxx_global_var_init.1
PUBLIC 687d8 0 geode::modifier::ModifyBase<geode::modifier::ModifyDerive<OdysseyMenuLayer, MenuLayer> >::~ModifyBase()
PUBLIC 687f4 0 geode::modifier::ModifyDerive<OdysseyMenuLayer, MenuLayer>::apply()
PUBLIC 690b0 0 geode::modifier::ModifyBase<geode::modifier::ModifyDerive<OdysseyMenuLayer, MenuLayer> >::apply()
PUBLIC 690b4 0 geode::modifier::AsStaticFunction_init<OdysseyMenuLayer, bool (OdysseyMenuLayer::*)()>::Impl<bool (OdysseyMenuLayer::*)()>::function(OdysseyMenuLayer*)
PUBLIC 69cfc 0 geode::Hook::create<void (*)(OdysseyMenuLayer*, cocos2d::CCObject*)>(void*, void (*)(OdysseyMenuLayer*, cocos2d::CCObject*), std::__ndk1::basic_string<char, std::__ndk1::char_traits<char>, std::__ndk1::allocator<char> > const&, tulip::hook::TulipConvention, tulip::hook::HookMetadata const&)
PUBLIC 69e80 0 geode::modifier::AsStaticFunction_onCreator<OdysseyMenuLayer, void (OdysseyMenuLayer::*)(cocos2d::CCObject*)>::Impl<void (OdysseyMenuLayer::*)(cocos2d::CCObject*)>::function(OdysseyMenuLayer*, cocos2d::CCObject*)
PUBLIC 69fe8 0 geode::modifier::AsStaticFunction_onMoreGames<OdysseyMenuLayer, void (OdysseyMenuLayer::*)(cocos2d::CCObject*)>::Impl<void (OdysseyMenuLayer::*)(cocos2d::CCObject*)>::function(OdysseyMenuLayer*, cocos2d::CCObject*)
PUBLIC 6a004 0 geode::modifier::AsStaticFunction_onPlay<OdysseyMenuLayer, void (OdysseyMenuLayer::*)(cocos2d::CCObject*)>::Impl<void (OdysseyMenuLayer::*)(cocos2d::CCObject*)>::function(OdysseyMenuLayer*, cocos2d::CCObject*)
PUBLIC 6a3e0 0 geode::addresser::Addresser::addressOfVirtual<bool, MenuLayer, >(bool (MenuLayer::*)())
PUBLIC 6a488 0 MenuLayer::MenuLayer(geode::ZeroConstructorType)
PUBLIC 6a524 0 geode::Mod::getSettingValue<bool>(std::__ndk1::basic_string_view<char, std::__ndk1::char_traits<char> >) const
PUBLIC 6a658 0 OdysseyMenuLayer::onComics(cocos2d::CCObject*)
PUBLIC 6a674 0 OdysseyMenuLayer::onDev(cocos2d::CCObject*)
PUBLIC 6a77c 0 std::__ndk1::shared_ptr<geode::BoolSettingV3>::~shared_ptr[abi:ne180000]()
PUBLIC 6a7cc 0 geode::cast::traverseTypeinfoFor(void*, geode::cast::ClassTypeinfoType const*, char const*)
PUBLIC 6a8d0 0 geode::Mod::setSettingValue<bool>(std::__ndk1::basic_string_view<char, std::__ndk1::char_traits<char> >, bool const&)
PUBLIC 6aaa4 0 _GLOBAL__sub_I_MainLayer.cpp
PUBLIC 6aac0 0 __cxx_global_var_init
PUBLIC 6af40 0 geode::modifier::ModifyBase<geode::modifier::ModifyDerive<GDO_OptionsLayer, OptionsLayer> >::~ModifyBase()
PUBLIC 6af5c 0 __cxx_global_var_init.1
PUBLIC 6b3dc 0 geode::modifier::ModifyBase<geode::modifier::ModifyDerive<GDO_MoreOptionsLayer, MoreOptionsLayer> >::~ModifyBase()
PUBLIC 6b3f8 0 geode::modifier::ModifyDerive<GDO_OptionsLayer, OptionsLayer>::apply()
PUBLIC 6ba00 0 geode::modifier::ModifyBase<geode::modifier::ModifyDerive<GDO_OptionsLayer, OptionsLayer> >::apply()
PUBLIC 6ba04 0 geode::modifier::AsStaticFunction_customSetup<GDO_OptionsLayer, void (GDO_OptionsLayer::*)()>::Impl<void (GDO_OptionsLayer::*)()>::function(GDO_OptionsLayer*)
PUBLIC 6ba54 0 geode::modifier::AsStaticFunction_onAccount<GDO_OptionsLayer, void (GDO_OptionsLayer::*)(cocos2d::CCObject*)>::Impl<void (GDO_OptionsLayer::*)(cocos2d::CCObject*)>::function(GDO_OptionsLayer*, cocos2d::CCObject*)
PUBLIC 6bb50 0 geode::addresser::Addresser::addressOfVirtual<void, OptionsLayer, >(void (OptionsLayer::*)())
PUBLIC 6bbf8 0 OptionsLayer::OptionsLayer(geode::ZeroConstructorType)
PUBLIC 6bc88 0 geode::modifier::ModifyDerive<GDO_MoreOptionsLayer, MoreOptionsLayer>::apply()
PUBLIC 6c544 0 geode::modifier::ModifyBase<geode::modifier::ModifyDerive<GDO_MoreOptionsLayer, MoreOptionsLayer> >::apply()
PUBLIC 6c548 0 geode::modifier::AsStaticFunction_init<GDO_MoreOptionsLayer, bool (GDO_MoreOptionsLayer::*)()>::Impl<bool (GDO_MoreOptionsLayer::*)()>::function(GDO_MoreOptionsLayer*)
PUBLIC 6c628 0 geode::modifier::AsStaticFunction_goToPage<GDO_MoreOptionsLayer, void (GDO_MoreOptionsLayer::*)(int)>::Impl<void (GDO_MoreOptionsLayer::*)(int)>::function(GDO_MoreOptionsLayer*, int)
PUBLIC 6c674 0 geode::modifier::AsStaticFunction_onToggle<GDO_MoreOptionsLayer, void (GDO_MoreOptionsLayer::*)(cocos2d::CCObject*)>::Impl<void (GDO_MoreOptionsLayer::*)(cocos2d::CCObject*)>::function(GDO_MoreOptionsLayer*, cocos2d::CCObject*)
PUBLIC 6c800 0 geode::addresser::Addresser::addressOfVirtual<bool, MoreOptionsLayer, >(bool (MoreOptionsLayer::*)())
PUBLIC 6c8a8 0 MoreOptionsLayer::MoreOptionsLayer(geode::ZeroConstructorType)
PUBLIC 6c944 0 __cxx_global_var_init.1
PUBLIC 6cdc4 0 geode::modifier::ModifyBase<geode::modifier::ModifyDerive<OdysseyPlayerObject, PlayerObject> >::~ModifyBase()
PUBLIC 6cde0 0 geode::modifier::ModifyDerive<OdysseyPlayerObject, PlayerObject>::apply()
PUBLIC 6e2e4 0 geode::modifier::ModifyBase<geode::modifier::ModifyDerive<OdysseyPlayerObject, PlayerObject> >::apply()
PUBLIC 6e2e8 0 geode::modifier::AsStaticFunction_init<OdysseyPlayerObject, bool (OdysseyPlayerObject::*)(int, int, GJBaseGameLayer*, cocos2d::CCLayer*, bool)>::Impl<bool (OdysseyPlayerObject::*)(int, int, GJBaseGameLayer*, cocos2d::CCLayer*, bool)>::function(OdysseyPlayerObject*, int, int, GJBaseGameLayer*, cocos2d::CCLayer*, bool)
PUBLIC 6e340 0 geode::modifier::AsStaticFunction_resetPlayerIcon<OdysseyPlayerObject, void (OdysseyPlayerObject::*)()>::Impl<void (OdysseyPlayerObject::*)()>::function(OdysseyPlayerObject*)
PUBLIC 6e398 0 geode::Hook::create<void (*)(OdysseyPlayerObject*, int)>(void*, void (*)(OdysseyPlayerObject*, int), std::__ndk1::basic_string<char, std::__ndk1::char_traits<char>, std::__ndk1::allocator<char> > const&, tulip::hook::TulipConvention, tulip::hook::HookMetadata const&)
PUBLIC 6e51c 0 geode::modifier::AsStaticFunction_updatePlayerBirdFrame<OdysseyPlayerObject, void (OdysseyPlayerObject::*)(int)>::Impl<void (OdysseyPlayerObject::*)(int)>::function(OdysseyPlayerObject*, int)
PUBLIC 6e550 0 geode::modifier::AsStaticFunction_updatePlayerDartFrame<OdysseyPlayerObject, void (OdysseyPlayerObject::*)(int)>::Impl<void (OdysseyPlayerObject::*)(int)>::function(OdysseyPlayerObject*, int)
PUBLIC 6e584 0 geode::modifier::AsStaticFunction_updatePlayerFrame<OdysseyPlayerObject, void (OdysseyPlayerObject::*)(int)>::Impl<void (OdysseyPlayerObject::*)(int)>::function(OdysseyPlayerObject*, int)
PUBLIC 6e5c0 0 geode::modifier::AsStaticFunction_updatePlayerJetpackFrame<OdysseyPlayerObject, void (OdysseyPlayerObject::*)(int)>::Impl<void (OdysseyPlayerObject::*)(int)>::function(OdysseyPlayerObject*, int)
PUBLIC 6e614 0 geode::modifier::AsStaticFunction_updatePlayerRollFrame<OdysseyPlayerObject, void (OdysseyPlayerObject::*)(int)>::Impl<void (OdysseyPlayerObject::*)(int)>::function(OdysseyPlayerObject*, int)
PUBLIC 6e648 0 geode::modifier::AsStaticFunction_updatePlayerShipFrame<OdysseyPlayerObject, void (OdysseyPlayerObject::*)(int)>::Impl<void (OdysseyPlayerObject::*)(int)>::function(OdysseyPlayerObject*, int)
PUBLIC 6e6a8 0 geode::modifier::AsStaticFunction_updatePlayerSwingFrame<OdysseyPlayerObject, void (OdysseyPlayerObject::*)(int)>::Impl<void (OdysseyPlayerObject::*)(int)>::function(OdysseyPlayerObject*, int)
PUBLIC 6e6dc 0 geode::modifier::FieldIntermediate<OdysseyPlayerObject, PlayerObject>::self()
PUBLIC 6ed20 0 geode::modifier::FieldIntermediate<OdysseyPlayerObject, PlayerObject>::fieldDestructor(void*)
PUBLIC 6ed24 0 std::__ndk1::vector<void*, std::__ndk1::allocator<void*> >::__throw_length_error[abi:ne180000]() const
PUBLIC 6ed38 0 std::__ndk1::vector<std::__ndk1::function<void (void*)>, std::__ndk1::allocator<std::__ndk1::function<void (void*)> > >::__throw_length_error[abi:ne180000]() const
PUBLIC 6ed4c 0 std::__ndk1::vector<void*, std::__ndk1::allocator<void*> >::__throw_out_of_range[abi:ne180000]() const
PUBLIC 6ed60 0 std::__ndk1::vector<std::__ndk1::function<void (void*)>, std::__ndk1::allocator<std::__ndk1::function<void (void*)> > >::__throw_out_of_range[abi:ne180000]() const
PUBLIC 6ed74 0 std::__ndk1::__function::__base<void (void*)>::~__base()
PUBLIC 6ed78 0 std::__ndk1::__function::__func<void (*)(void*), std::__ndk1::allocator<void (*)(void*)>, void (void*)>::~__func()
PUBLIC 6ed7c 0 std::__ndk1::__function::__func<void (*)(void*), std::__ndk1::allocator<void (*)(void*)>, void (void*)>::__clone() const
PUBLIC 6edb4 0 std::__ndk1::__function::__func<void (*)(void*), std::__ndk1::allocator<void (*)(void*)>, void (void*)>::__clone(std::__ndk1::__function::__base<void (void*)>*) const
PUBLIC 6edcc 0 std::__ndk1::__function::__func<void (*)(void*), std::__ndk1::allocator<void (*)(void*)>, void (void*)>::destroy()
PUBLIC 6edd0 0 std::__ndk1::__function::__func<void (*)(void*), std::__ndk1::allocator<void (*)(void*)>, void (void*)>::destroy_deallocate()
PUBLIC 6edd4 0 std::__ndk1::__function::__func<void (*)(void*), std::__ndk1::allocator<void (*)(void*)>, void (void*)>::operator()(void*&&)
PUBLIC 6ede4 0 std::__ndk1::__function::__func<void (*)(void*), std::__ndk1::allocator<void (*)(void*)>, void (void*)>::target(std::type_info const&) const
PUBLIC 6ee00 0 std::__ndk1::__function::__func<void (*)(void*), std::__ndk1::allocator<void (*)(void*)>, void (void*)>::target_type() const
PUBLIC 6ee0c 0 _GLOBAL__sub_I_PlayerObject.cpp
PUBLIC 6ee28 0 __cxx_global_var_init
PUBLIC 6f2a8 0 geode::modifier::ModifyBase<geode::modifier::ModifyDerive<GDOProfilePage, ProfilePage> >::~ModifyBase()
PUBLIC 6f2c4 0 geode::modifier::ModifyDerive<GDOProfilePage, ProfilePage>::apply()
PUBLIC 6f648 0 geode::modifier::ModifyBase<geode::modifier::ModifyDerive<GDOProfilePage, ProfilePage> >::apply()
PUBLIC 6f64c 0 geode::modifier::AsStaticFunction_loadPageFromUserInfo<GDOProfilePage, void (GDOProfilePage::*)(GJUserScore*)>::Impl<void (GDOProfilePage::*)(GJUserScore*)>::function(GDOProfilePage*, GJUserScore*)
PUBLIC 6f868 0 GDOProfilePage::onSecret(cocos2d::CCObject*)
PUBLIC 6faa8 0 __cxx_global_var_init.1
PUBLIC 6ff28 0 geode::modifier::ModifyBase<geode::modifier::ModifyDerive<CustomSimplePlayer, SimplePlayer> >::~ModifyBase()
PUBLIC 6ff44 0 geode::modifier::ModifyDerive<CustomSimplePlayer, SimplePlayer>::apply()
PUBLIC 70310 0 geode::modifier::ModifyBase<geode::modifier::ModifyDerive<CustomSimplePlayer, SimplePlayer> >::apply()
PUBLIC 70314 0 geode::modifier::AsStaticFunction_updatePlayerFrame<CustomSimplePlayer, void (CustomSimplePlayer::*)(int, IconType)>::Impl<void (CustomSimplePlayer::*)(int, IconType)>::function(CustomSimplePlayer*, int, IconType)
PUBLIC 70354 0 _GLOBAL__sub_I_SimplePlayer.cpp
PUBLIC 70370 0 FanmadeGamesCell::init(char const*, cocos2d::CCObject*, void (cocos2d::CCObject::*)(cocos2d::CCObject*))
PUBLIC 70504 0 cocos2d::CCCopying::copyWithZone(cocos2d::CCZone*)
PUBLIC 7050c 0 FanmadeGamesCell::~FanmadeGamesCell()
PUBLIC 70530 0 {virtual override thunk({offset(-320)}, FanmadeGamesCell::~FanmadeGamesCell())}
PUBLIC 70538 0 {virtual override thunk({offset(-320)}, FanmadeGamesCell::~FanmadeGamesCell())}
PUBLIC 70560 0 cocos2d::CCKeyboardDelegate::keyUp(cocos2d::enumKeyCodes)
PUBLIC 70564 0 cocos2d::CCMouseDelegate::rightKeyDown()
PUBLIC 70568 0 cocos2d::CCMouseDelegate::rightKeyUp()
PUBLIC 7056c 0 cocos2d::CCMouseDelegate::scrollWheel(float, float)
PUBLIC 70570 0 FanmadeGamesLayer::customSetup()
PUBLIC 70af0 0 FanmadeGamesLayer::onNexitron(cocos2d::CCObject*)
PUBLIC 70b74 0 FanmadeGamesLayer::onTimeReborn(cocos2d::CCObject*)
PUBLIC 70bf8 0 FanmadeGamesLayer::onMegaWorld(cocos2d::CCObject*)
PUBLIC 70c7c 0 FanmadeGamesLayer::onUnnamed(cocos2d::CCObject*)
PUBLIC 70d00 0 FanmadeGamesLayer::onLight(cocos2d::CCObject*)
PUBLIC 70d84 0 FanmadeGamesLayer::onAdventure(cocos2d::CCObject*)
PUBLIC 70e08 0 FanmadeGamesLayer::~FanmadeGamesLayer()
PUBLIC 70e2c 0 cocos2d::CCLayerRGBA::setOpacityModifyRGB(bool)
PUBLIC 70e30 0 cocos2d::CCLayerRGBA::isOpacityModifyRGB()
PUBLIC 70e38 0 {virtual override thunk({offset(-320)}, FanmadeGamesLayer::~FanmadeGamesLayer())}
PUBLIC 70e40 0 {virtual override thunk({offset(-320)}, FanmadeGamesLayer::~FanmadeGamesLayer())}
PUBLIC 70e68 0 {virtual override thunk({offset(-408)}, cocos2d::CCLayerRGBA::setOpacityModifyRGB(bool))}
PUBLIC 70e6c 0 {virtual override thunk({offset(-408)}, cocos2d::CCLayerRGBA::isOpacityModifyRGB())}
PUBLIC 70e74 0 OdysseyComicLayer::init(int, bool)
PUBLIC 71d9c 0 OdysseyComicLayer::onBack(cocos2d::CCObject*)
PUBLIC 71da8 0 OdysseyComicLayer::onHollow(cocos2d::CCObject*)
PUBLIC 72070 0 OdysseyComicLayer::onPrev(cocos2d::CCObject*)
PUBLIC 720f4 0 OdysseyComicLayer::onNext(cocos2d::CCObject*)
PUBLIC 7217c 0 OdysseyComicLayer::verifySecretAchievement()
PUBLIC 72664 0 OdysseyComicLayer::onCredits(cocos2d::CCObject*)
PUBLIC 72748 0 OdysseyComicLayer::scrollLayerMoved(cocos2d::CCPoint)
PUBLIC 72820 0 {virtual override thunk({offset(-408)}, OdysseyComicLayer::scrollLayerMoved(cocos2d::CCPoint))}
PUBLIC 728f4 0 OdysseyComicLayer::keyBackClicked()
PUBLIC 72b0c 0 {virtual override thunk({offset(-336)}, OdysseyComicLayer::keyBackClicked())}
PUBLIC 72b14 0 OdysseyComicLayer::create(int, bool)
PUBLIC 72c5c 0 OdysseyComicLayer::~OdysseyComicLayer()
PUBLIC 72c80 0 {virtual override thunk({offset(-320)}, OdysseyComicLayer::~OdysseyComicLayer())}
PUBLIC 72c88 0 {virtual override thunk({offset(-320)}, OdysseyComicLayer::~OdysseyComicLayer())}
PUBLIC 72cb0 0 _GLOBAL__sub_I_OdysseyComicLayer.cpp
PUBLIC 72ccc 0 OdysseyCreditsLayer::setup()
PUBLIC 76c98 0 OdysseyCreditsLayer::onNext(cocos2d::CCObject*)
PUBLIC 76ca8 0 OdysseyCreditsLayer::onPrev(cocos2d::CCObject*)
PUBLIC 76cb8 0 OdysseyCreditsLayer::changeTab()
PUBLIC 76f78 0 OdysseyCreditsLayer::create()
PUBLIC 770f8 0 geode::Popup<>::~Popup()
PUBLIC 77164 0 OdysseyCreditsLayer::~OdysseyCreditsLayer()
PUBLIC 771d8 0 geode::Popup<>::registerWithTouchDispatcher()
PUBLIC 77204 0 geode::Popup<>::keyDown(cocos2d::enumKeyCodes)
PUBLIC 7722c 0 geode::Popup<>::onClose(cocos2d::CCObject*)
PUBLIC 77374 0 {virtual override thunk({offset(-320)}, OdysseyCreditsLayer::~OdysseyCreditsLayer())}
PUBLIC 773e0 0 {virtual override thunk({offset(-320)}, OdysseyCreditsLayer::~OdysseyCreditsLayer())}
PUBLIC 77454 0 {virtual override thunk({offset(-344)}, geode::Popup<>::keyDown(cocos2d::enumKeyCodes))}
PUBLIC 77480 0 OdysseyCreditNode::init(char const*, int, int, int, int, bool, int)
PUBLIC 77a8c 0 OdysseyCreditNode::~OdysseyCreditNode()
PUBLIC 77ab0 0 OdysseyCreditNode::onUser(cocos2d::CCObject*)
PUBLIC 77ad4 0 geode::Popup<>::~Popup()
PUBLIC 77ad8 0 {virtual override thunk({offset(-320)}, geode::Popup<>::~Popup())}
PUBLIC 77b44 0 {virtual override thunk({offset(-320)}, geode::Popup<>::~Popup())}
PUBLIC 77b48 0 geode::Popup<>::initBase(float, float, char const*, cocos2d::CCRect, bool)
PUBLIC 77e50 0 geode::Popup<>::CloseEvent::~CloseEvent()
PUBLIC 77eb0 0 geode::Popup<>::CloseEvent::~CloseEvent()
PUBLIC 77f20 0 std::__ndk1::__shared_ptr_emplace<geode::Popup<>::CloseEvent::Impl, std::__ndk1::allocator<geode::Popup<>::CloseEvent::Impl> >::~__shared_ptr_emplace()
PUBLIC 77f30 0 std::__ndk1::__shared_ptr_emplace<geode::Popup<>::CloseEvent::Impl, std::__ndk1::allocator<geode::Popup<>::CloseEvent::Impl> >::~__shared_ptr_emplace()
PUBLIC 77f60 0 std::__ndk1::__shared_ptr_emplace<geode::Popup<>::CloseEvent::Impl, std::__ndk1::allocator<geode::Popup<>::CloseEvent::Impl> >::__on_zero_shared()
PUBLIC 77f64 0 std::__ndk1::__shared_ptr_emplace<geode::Popup<>::CloseEvent::Impl, std::__ndk1::allocator<geode::Popup<>::CloseEvent::Impl> >::__on_zero_shared_weak()
PUBLIC 77f68 0 OdysseyDevLayer::init()
PUBLIC 78e08 0 OdysseyDevLayer::onBack(cocos2d::CCObject*)
PUBLIC 78e14 0 OdysseyDevLayer::onStoryDialog(cocos2d::CCObject*)
PUBLIC 78ea8 0 OdysseyDevLayer::onCarp02(cocos2d::CCObject*)
PUBLIC 78f50 0 OdysseyDevLayer::onCarp03(cocos2d::CCObject*)
PUBLIC 79058 0 OdysseyDevLayer::onCarp04(cocos2d::CCObject*)
PUBLIC 79100 0 OdysseyDevLayer::onPopup(cocos2d::CCObject*)
PUBLIC 79360 0 OdysseyDevLayer::onComic(cocos2d::CCObject*)
PUBLIC 79768 0 OdysseyDevLayer::keyBackClicked()
PUBLIC 79784 0 {virtual override thunk({offset(-336)}, OdysseyDevLayer::keyBackClicked())}
PUBLIC 797a0 0 OdysseyDevLayer::~OdysseyDevLayer()
PUBLIC 797c4 0 {virtual override thunk({offset(-320)}, OdysseyDevLayer::~OdysseyDevLayer())}
PUBLIC 797cc 0 {virtual override thunk({offset(-320)}, OdysseyDevLayer::~OdysseyDevLayer())}
PUBLIC 797f4 0 _GLOBAL__sub_I_OdysseyDevLayer.cpp
PUBLIC 79810 0 OdysseyEndCreditsLayer::init()
PUBLIC 79cd8 0 OdysseyEndCreditsLayer::onBack(cocos2d::CCObject*)
PUBLIC 79ce4 0 OdysseyEndCreditsLayer::keyBackClicked()
PUBLIC 79d24 0 {virtual override thunk({offset(-336)}, OdysseyEndCreditsLayer::keyBackClicked())}
PUBLIC 79d64 0 OdysseyEndCreditsLayer::backMenuLayer()
PUBLIC 79da4 0 OdysseyEndCreditsLayer::createEndCredits()
PUBLIC 7d8e8 0 OdysseyEndCreditsLayer::~OdysseyEndCreditsLayer()
PUBLIC 7d90c 0 {virtual override thunk({offset(-320)}, OdysseyEndCreditsLayer::~OdysseyEndCreditsLayer())}
PUBLIC 7d914 0 {virtual override thunk({offset(-320)}, OdysseyEndCreditsLayer::~OdysseyEndCreditsLayer())}
PUBLIC 7d93c 0 OdysseyEndCreditNode::init(char const*, int, int, int, int, bool)
PUBLIC 7df44 0 OdysseyEndCreditNode::~OdysseyEndCreditNode()
PUBLIC 7df68 0 _GLOBAL__sub_I_OdysseyEndCreditsLayer.cpp
PUBLIC 7df84 0 OdysseySelectLayer::init(int)
PUBLIC 801e8 0 OdysseySelectLayer::isLevelComplete(int)
PUBLIC 8039c 0 OdysseySelectLayer::onBack(cocos2d::CCObject*)
PUBLIC 803a8 0 OdysseySelectLayer::onRope(cocos2d::CCObject*)
PUBLIC 803ec 0 OdysseySelectLayer::onSongs(cocos2d::CCObject*)
PUBLIC 8043c 0 OdysseySelectLayer::onOgre(cocos2d::CCObject*)
PUBLIC 80674 0 OdysseySelectLayer::onExtraLevel(cocos2d::CCObject*)
PUBLIC 80804 0 OdysseySelectLayer::onBackPage(cocos2d::CCObject*)
PUBLIC 80848 0 OdysseySelectLayer::onNextPage(cocos2d::CCObject*)
PUBLIC 8088c 0 OdysseySelectLayer::getWizardDialog01()
PUBLIC 808e0 0 OdysseySelectLayer::getWizardDialog02()
PUBLIC 80934 0 OdysseySelectLayer::getWizardDialog03()
PUBLIC 80988 0 OdysseySelectLayer::keyBackClicked()
PUBLIC 809dc 0 {virtual override thunk({offset(-336)}, OdysseySelectLayer::keyBackClicked())}
PUBLIC 80a30 0 OdysseySelectLayer::getPositionForDots()
PUBLIC 80c08 0 OdysseySelectLayer::onLevel(cocos2d::CCObject*)
PUBLIC 80d34 0 OdysseySelectLayer::onShop(cocos2d::CCObject*)
PUBLIC 80d7c 0 OdysseySelectLayer::enableLevelAnimation(cocos2d::CCObject*)
PUBLIC 8109c 0 OdysseySelectLayer::animateShopUnlock()
PUBLIC 8113c 0 OdysseySelectLayer::enableButtonTouch()
PUBLIC 81144 0 OdysseySelectLayer::scene(int)
PUBLIC 81270 0 OdysseySelectLayer::~OdysseySelectLayer()
PUBLIC 81294 0 {virtual override thunk({offset(-320)}, OdysseySelectLayer::~OdysseySelectLayer())}
PUBLIC 8129c 0 {virtual override thunk({offset(-320)}, OdysseySelectLayer::~OdysseySelectLayer())}
PUBLIC 812c4 0 _GLOBAL__sub_I_OdysseySelectLayer.cpp
PUBLIC 812e0 0 SecretVaultLayer::init()
PUBLIC 822a0 0 SecretVaultLayer::onBack(cocos2d::CCObject*)
PUBLIC 822ac 0 SecretVaultLayer::onSecret(cocos2d::CCObject*)
PUBLIC 8251c 0 SecretVaultLayer::onSubmit(cocos2d::CCObject*)
PUBLIC 85030 0 SecretVaultLayer::updateMessage(std::__ndk1::basic_string<char, std::__ndk1::char_traits<char>, std::__ndk1::allocator<char> >, MessageType)
PUBLIC 85608 0 SecretVaultLayer::executeJumpscare()
PUBLIC 857d0 0 SecretVaultLayer::scareText01()
PUBLIC 859d4 0 SecretVaultLayer::scareText02()
PUBLIC 85a14 0 SecretVaultLayer::scareText03()
PUBLIC 85a2c 0 SecretVaultLayer::scareText04()
PUBLIC 85a44 0 SecretVaultLayer::scareText05()
PUBLIC 85a5c 0 SecretVaultLayer::scareEnding()
PUBLIC 85b28 0 SecretVaultLayer::scareKick()
PUBLIC 85b58 0 SecretVaultLayer::getThreadMessage(int, int)
PUBLIC 87b7c 0 SecretVaultLayer::getBasicMessage()
PUBLIC 88170 0 SecretVaultLayer::disableKeeper()
PUBLIC 88214 0 SecretVaultLayer::enableKeeper()
PUBLIC 882f4 0 SecretVaultLayer::keyBackClicked()
PUBLIC 8839c 0 {virtual override thunk({offset(-336)}, SecretVaultLayer::keyBackClicked())}
PUBLIC 883a0 0 SecretVaultLayer::create()
PUBLIC 884b4 0 SecretVaultLayer::~SecretVaultLayer()
PUBLIC 88508 0 SecretVaultLayer::~SecretVaultLayer()
PUBLIC 88564 0 {virtual override thunk({offset(-320)}, SecretVaultLayer::~SecretVaultLayer())}
PUBLIC 885b8 0 {virtual override thunk({offset(-320)}, SecretVaultLayer::~SecretVaultLayer())}
PUBLIC 88614 0 std::__ndk1::vector<gd::string, std::__ndk1::allocator<gd::string> >::__assign_with_size[abi:ne180000]<gd::string const*, gd::string const>(gd::string const*, gd::string const, long)
PUBLIC 88860 0 std::__ndk1::vector<gd::string, std::__ndk1::allocator<gd::string> >::__throw_length_error[abi:ne180000]() const
PUBLIC 88874 0 std::__ndk1::basic_string<char, std::__ndk1::char_traits<char>, std::__ndk1::allocator<char> >::__assign_external(char const*, unsigned long)
PUBLIC 8899c 0 std::__ndk1::basic_string<char, std::__ndk1::char_traits<char>, std::__ndk1::allocator<char> >::__assign_external(char const*)
PUBLIC 889d0 0 std::__ndk1::vector<std::__ndk1::basic_string<char, std::__ndk1::char_traits<char>, std::__ndk1::allocator<char> >, std::__ndk1::allocator<std::__ndk1::basic_string<char, std::__ndk1::char_traits<char>, std::__ndk1::allocator<char> > > >::__assign_with_size[abi:ne180000]<std::__ndk1::basic_string<char, std::__ndk1::char_traits<char>, std::__ndk1::allocator<char> > const*, std::__ndk1::basic_string<char, std::__ndk1::char_traits<char>, std::__ndk1::allocator<char> > const>(std::__ndk1::basic_string<char, std::__ndk1::char_traits<char>, std::__ndk1::allocator<char> > const*, std::__ndk1::basic_string<char, std::__ndk1::char_traits<char>, std::__ndk1::allocator<char> > const, long)
PUBLIC 88dbc 0 _GLOBAL__sub_I_SecretVaultLayer.cpp
PUBLIC 88dd8 0 std::__ndk1::vector<std::__ndk1::vector<gd::string, std::__ndk1::allocator<gd::string> >, std::__ndk1::allocator<std::__ndk1::vector<gd::string, std::__ndk1::allocator<gd::string> > > >::vector[abi:ne180000](std::initializer_list<std::__ndk1::vector<gd::string, std::__ndk1::allocator<gd::string> > >)
PUBLIC 88f1c 0 std::__ndk1::vector<std::__ndk1::vector<gd::string, std::__ndk1::allocator<gd::string> >, std::__ndk1::allocator<std::__ndk1::vector<gd::string, std::__ndk1::allocator<gd::string> > > >::~vector[abi:ne180000]()
PUBLIC 88fcc 0 SecretVaultLayer2::init()
PUBLIC 89b7c 0 SecretVaultLayer2::onBack(cocos2d::CCObject*)
PUBLIC 89b88 0 SecretVaultLayer2::updateMessage(std::__ndk1::basic_string<char, std::__ndk1::char_traits<char>, std::__ndk1::allocator<char> >, MessageType)
PUBLIC 89ca8 0 SecretVaultLayer2::onSubmit(cocos2d::CCObject*)
PUBLIC 8c2ac 0 SecretVaultLayer2::getThreadMessage(int, int)
PUBLIC 90d14 0 SecretVaultLayer2::getBasicMessage()
PUBLIC 92950 0 geode::log::debug<std::__ndk1::basic_string<char, std::__ndk1::char_traits<char>, std::__ndk1::allocator<char> >&>(fmt::v11::basic_format_string<char, fmt::v11::type_identity<std::__ndk1::conditional<IsWrappedCocos<std::__ndk1::basic_string<char, std::__ndk1::char_traits<char>, std::__ndk1::allocator<char> >&>, decltype ((wrapCocosObj<std::__ndk1::basic_string<char, std::__ndk1::char_traits<char>, std::__ndk1::allocator<char> >&>)((std::declval<std::__ndk1::basic_string<char, std::__ndk1::char_traits<char>, std::__ndk1::allocator<char> >&>)())), std::__ndk1::basic_string<char, std::__ndk1::char_traits<char>, std::__ndk1::allocator<char> >&>::type>::type>, std::__ndk1::basic_string<char, std::__ndk1::char_traits<char>, std::__ndk1::allocator<char> >&)
PUBLIC 929f0 0 geode::log::debug<int&, unsigned long>(fmt::v11::basic_format_string<char, fmt::v11::type_identity<std::__ndk1::conditional<IsWrappedCocos<int&, unsigned long>, decltype ((wrapCocosObj<int&, unsigned long>)((std::declval<int&, unsigned long>)())), int&, unsigned long>::type>::type>, int&, unsigned long)
PUBLIC 92a88 0 SecretVaultLayer2::keyBackClicked()
PUBLIC 92b28 0 {virtual override thunk({offset(-336)}, SecretVaultLayer2::keyBackClicked())}
PUBLIC 92bc8 0 SecretVaultLayer2::~SecretVaultLayer2()
PUBLIC 92bec 0 {virtual override thunk({offset(-320)}, SecretVaultLayer2::~SecretVaultLayer2())}
PUBLIC 92bf4 0 {virtual override thunk({offset(-320)}, SecretVaultLayer2::~SecretVaultLayer2())}
PUBLIC 92c1c 0 std::__ndk1::__exception_guard_exceptions<std::__ndk1::vector<std::__ndk1::vector<gd::string, std::__ndk1::allocator<gd::string> >, std::__ndk1::allocator<std::__ndk1::vector<gd::string, std::__ndk1::allocator<gd::string> > > >::__destroy_vector>::~__exception_guard_exceptions[abi:ne180000]()
PUBLIC 92ce8 0 std::__ndk1::vector<std::__ndk1::vector<gd::string, std::__ndk1::allocator<gd::string> >, std::__ndk1::allocator<std::__ndk1::vector<gd::string, std::__ndk1::allocator<gd::string> > > >::__throw_length_error[abi:ne180000]() const
PUBLIC 92cfc 0 std::__ndk1::__exception_guard_exceptions<std::__ndk1::_AllocatorDestroyRangeReverse<std::__ndk1::allocator<std::__ndk1::vector<gd::string, std::__ndk1::allocator<gd::string> > >, std::__ndk1::vector<gd::string, std::__ndk1::allocator<gd::string> >*> >::~__exception_guard_exceptions[abi:ne180000]()
PUBLIC 92d94 0 std::__ndk1::vector<gd::string, std::__ndk1::allocator<gd::string> >::__init_with_size[abi:ne180000]<gd::string*, std::__ndk1::vector<gd::string, std::__ndk1::allocator<gd::string> >::__init_with_size[abi:ne180000]>(gd::string*, std::__ndk1::vector<gd::string, std::__ndk1::allocator<gd::string> >::__init_with_size[abi:ne180000], unsigned long)
PUBLIC 92eb0 0 std::__ndk1::vector<gd::string, std::__ndk1::allocator<gd::string> >::__throw_out_of_range[abi:ne180000]() const
PUBLIC 92ec4 0 _GLOBAL__sub_I_SecretVaultLayer2.cpp
PUBLIC 9959c 0 geodeExecFunction16<(anonymous namespace)::ExecFuncUnique16>(geode::ModStateEvent*)
PUBLIC 997e0 0 __cxx_global_var_init.2
PUBLIC 99c1c 0 __cxx_global_var_init.5
PUBLIC 9a058 0 __cxx_global_var_init.6
PUBLIC 9a494 0 _GLOBAL__sub_I_main.cpp
PUBLIC 9a5dc 0 geode::modifier::ModifyBase<geode::modifier::ModifyDerive<hook37<(anonymous namespace)::hook37Parent>, PauseLayer> >::~ModifyBase()
PUBLIC 9a5f8 0 __cxx_global_var_init.3
PUBLIC 9aa78 0 geode::modifier::ModifyBase<geode::modifier::ModifyDerive<GDO_LocalLevelManager, LocalLevelManager> >::~ModifyBase()
PUBLIC 9aa94 0 __cxx_global_var_init.4
PUBLIC 9af14 0 geode::modifier::ModifyBase<geode::modifier::ModifyDerive<GDO_MusicDownloadManager, MusicDownloadManager> >::~ModifyBase()
PUBLIC 9af30 0 geode::modifier::ModifyBase<geode::modifier::ModifyDerive<hook134<(anonymous namespace)::hook134Parent>, SongsLayer> >::~ModifyBase()
PUBLIC 9af4c 0 geode::modifier::ModifyBase<geode::modifier::ModifyDerive<hook157<(anonymous namespace)::hook157Parent>, PurchaseItemPopup> >::~ModifyBase()
PUBLIC 9af68 0 geode::EventListener<geode::ModStateFilter>::getPool() const
PUBLIC 9af6c 0 geode::EventListener<geode::ModStateFilter>::handle(geode::Event*)
PUBLIC 9b0e0 0 geode::EventListener<geode::ModStateFilter>::~EventListener()
PUBLIC 9b13c 0 geode::EventListener<geode::ModStateFilter>::~EventListener()
PUBLIC 9b1a0 0 std::__ndk1::__function::__base<void (geode::ModStateEvent*)>::~__base()
PUBLIC 9b1a4 0 std::__ndk1::__function::__func<void (*)(geode::ModStateEvent*), std::__ndk1::allocator<void (*)(geode::ModStateEvent*)>, void (geode::ModStateEvent*)>::~__func()
PUBLIC 9b1a8 0 std::__ndk1::__function::__func<void (*)(geode::ModStateEvent*), std::__ndk1::allocator<void (*)(geode::ModStateEvent*)>, void (geode::ModStateEvent*)>::__clone() const
PUBLIC 9b1dc 0 std::__ndk1::__function::__func<void (*)(geode::ModStateEvent*), std::__ndk1::allocator<void (*)(geode::ModStateEvent*)>, void (geode::ModStateEvent*)>::__clone(std::__ndk1::__function::__base<void (geode::ModStateEvent*)>*) const
PUBLIC 9b1f0 0 std::__ndk1::__function::__func<void (*)(geode::ModStateEvent*), std::__ndk1::allocator<void (*)(geode::ModStateEvent*)>, void (geode::ModStateEvent*)>::destroy()
PUBLIC 9b1f4 0 std::__ndk1::__function::__func<void (*)(geode::ModStateEvent*), std::__ndk1::allocator<void (*)(geode::ModStateEvent*)>, void (geode::ModStateEvent*)>::destroy_deallocate()
PUBLIC 9b1f8 0 std::__ndk1::__function::__func<void (*)(geode::ModStateEvent*), std::__ndk1::allocator<void (*)(geode::ModStateEvent*)>, void (geode::ModStateEvent*)>::operator()(geode::ModStateEvent*&&)
PUBLIC 9b208 0 std::__ndk1::__function::__func<void (*)(geode::ModStateEvent*), std::__ndk1::allocator<void (*)(geode::ModStateEvent*)>, void (geode::ModStateEvent*)>::target(std::type_info const&) const
PUBLIC 9b224 0 std::__ndk1::__function::__func<void (*)(geode::ModStateEvent*), std::__ndk1::allocator<void (*)(geode::ModStateEvent*)>, void (geode::ModStateEvent*)>::target_type() const
PUBLIC 9b230 0 geode::modifier::ModifyDerive<hook37<(anonymous namespace)::hook37Parent>, PauseLayer>::apply()
PUBLIC 9b594 0 geode::modifier::ModifyBase<geode::modifier::ModifyDerive<hook37<(anonymous namespace)::hook37Parent>, PauseLayer> >::apply()
PUBLIC 9b598 0 geode::modifier::AsStaticFunction_onQuit<hook37<(anonymous namespace)::hook37Parent>, void (hook37<(anonymous namespace)::hook37Parent>::*)(cocos2d::CCObject*)>::Impl<void (hook37<(anonymous namespace)::hook37Parent>::*)(cocos2d::CCObject*)>::function(hook37<(anonymous namespace)::hook37Parent>*, cocos2d::CCObject*)
PUBLIC 9b778 0 geode::modifier::ModifyDerive<GDO_LocalLevelManager, LocalLevelManager>::apply()
PUBLIC 9bb00 0 geode::modifier::ModifyBase<geode::modifier::ModifyDerive<GDO_LocalLevelManager, LocalLevelManager> >::apply()
PUBLIC 9bb04 0 geode::modifier::AsStaticFunction_getMainLevelString<GDO_LocalLevelManager, gd::string (GDO_LocalLevelManager::*)(int)>::Impl<gd::string (GDO_LocalLevelManager::*)(int)>::function(GDO_LocalLevelManager*, int)
PUBLIC 9bc3c 0 cocos2d::CCString::createWithFormat(char const*, ...)
PUBLIC 9bd7c 0 geode::modifier::ModifyDerive<GDO_MusicDownloadManager, MusicDownloadManager>::apply()
PUBLIC 9c218 0 geode::modifier::ModifyBase<geode::modifier::ModifyDerive<GDO_MusicDownloadManager, MusicDownloadManager> >::apply()
PUBLIC 9c21c 0 geode::Hook::create<gd::string (*)(GDO_MusicDownloadManager*, int)>(void*, gd::string (*)(GDO_MusicDownloadManager*, int), std::__ndk1::basic_string<char, std::__ndk1::char_traits<char>, std::__ndk1::allocator<char> > const&, tulip::hook::TulipConvention, tulip::hook::HookMetadata const&)
PUBLIC 9c3a0 0 geode::modifier::AsStaticFunction_pathForSFXFolder<GDO_MusicDownloadManager, gd::string (GDO_MusicDownloadManager::*)(int)>::Impl<gd::string (GDO_MusicDownloadManager::*)(int)>::function(GDO_MusicDownloadManager*, int)
PUBLIC 9c4b0 0 geode::modifier::AsStaticFunction_pathForSongFolder<GDO_MusicDownloadManager, gd::string (GDO_MusicDownloadManager::*)(int)>::Impl<gd::string (GDO_MusicDownloadManager::*)(int)>::function(GDO_MusicDownloadManager*, int)
PUBLIC 9c5cc 0 geode::modifier::ModifyDerive<hook134<(anonymous namespace)::hook134Parent>, SongsLayer>::apply()
PUBLIC 9c8fc 0 geode::modifier::ModifyBase<geode::modifier::ModifyDerive<hook134<(anonymous namespace)::hook134Parent>, SongsLayer> >::apply()
PUBLIC 9c900 0 geode::modifier::AsStaticFunction_customSetup<hook134<(anonymous namespace)::hook134Parent>, void (hook134<(anonymous namespace)::hook134Parent>::*)()>::Impl<void (hook134<(anonymous namespace)::hook134Parent>::*)()>::function(hook134<(anonymous namespace)::hook134Parent>*)
PUBLIC 9ca50 0 geode::addresser::Addresser::addressOfVirtual<void, SongsLayer, >(void (SongsLayer::*)())
PUBLIC 9caf8 0 SongsLayer::SongsLayer(geode::ZeroConstructorType)
PUBLIC 9cb80 0 geode::modifier::ModifyDerive<hook157<(anonymous namespace)::hook157Parent>, PurchaseItemPopup>::apply()
PUBLIC 9cf08 0 geode::modifier::ModifyBase<geode::modifier::ModifyDerive<hook157<(anonymous namespace)::hook157Parent>, PurchaseItemPopup> >::apply()
PUBLIC 9cf0c 0 geode::modifier::AsStaticFunction_onPurchase<hook157<(anonymous namespace)::hook157Parent>, void (hook157<(anonymous namespace)::hook157Parent>::*)(cocos2d::CCObject*)>::Impl<void (hook157<(anonymous namespace)::hook157Parent>::*)(cocos2d::CCObject*)>::function(hook157<(anonymous namespace)::hook157Parent>*, cocos2d::CCObject*)
PUBLIC 9cfc8 0 OdysseyComicPopup::setup()
PUBLIC 9d6e8 0 OdysseyComicPopup::onComic(cocos2d::CCObject*)
PUBLIC 9daec 0 OdysseyComicPopup::create()
PUBLIC 9dc50 0 OdysseyComicPopup::~OdysseyComicPopup()
PUBLIC 9dcc4 0 {virtual override thunk({offset(-320)}, OdysseyComicPopup::~OdysseyComicPopup())}
PUBLIC 9dd30 0 {virtual override thunk({offset(-320)}, OdysseyComicPopup::~OdysseyComicPopup())}
PUBLIC 9dda4 0 OdysseyFangamePopup::setup(char const*, char const*)
PUBLIC 9e0b8 0 OdysseyFangamePopup::onLink(cocos2d::CCObject*)
PUBLIC 9e0e4 0 OdysseyFangamePopup::create(char const*, char const*)
PUBLIC 9e274 0 geode::Popup<char const*, char const*>::~Popup()
PUBLIC 9e2e0 0 OdysseyFangamePopup::~OdysseyFangamePopup()
PUBLIC 9e354 0 geode::Popup<char const*, char const*>::registerWithTouchDispatcher()
PUBLIC 9e380 0 geode::Popup<char const*, char const*>::keyDown(cocos2d::enumKeyCodes)
PUBLIC 9e3a8 0 geode::Popup<char const*, char const*>::onClose(cocos2d::CCObject*)
PUBLIC 9e4f0 0 {virtual override thunk({offset(-320)}, OdysseyFangamePopup::~OdysseyFangamePopup())}
PUBLIC 9e55c 0 {virtual override thunk({offset(-320)}, OdysseyFangamePopup::~OdysseyFangamePopup())}
PUBLIC 9e5d0 0 {virtual override thunk({offset(-344)}, geode::Popup<char const*, char const*>::keyDown(cocos2d::enumKeyCodes))}
PUBLIC 9e5fc 0 geode::Popup<char const*, char const*>::~Popup()
PUBLIC 9e600 0 {virtual override thunk({offset(-320)}, geode::Popup<char const*, char const*>::~Popup())}
PUBLIC 9e66c 0 {virtual override thunk({offset(-320)}, geode::Popup<char const*, char const*>::~Popup())}
PUBLIC 9e670 0 geode::Popup<char const*, char const*>::initBase(float, float, char const*, char const*, char const*, cocos2d::CCRect, bool)
PUBLIC 9e974 0 geode::Popup<char const*, char const*>::CloseEvent::~CloseEvent()
PUBLIC 9e9d4 0 geode::Popup<char const*, char const*>::CloseEvent::~CloseEvent()
PUBLIC 9ea44 0 std::__ndk1::__shared_ptr_emplace<geode::Popup<char const*, char const*>::CloseEvent::Impl, std::__ndk1::allocator<geode::Popup<char const*, char const*>::CloseEvent::Impl> >::~__shared_ptr_emplace()
PUBLIC 9ea54 0 std::__ndk1::__shared_ptr_emplace<geode::Popup<char const*, char const*>::CloseEvent::Impl, std::__ndk1::allocator<geode::Popup<char const*, char const*>::CloseEvent::Impl> >::~__shared_ptr_emplace()
PUBLIC 9ea84 0 std::__ndk1::__shared_ptr_emplace<geode::Popup<char const*, char const*>::CloseEvent::Impl, std::__ndk1::allocator<geode::Popup<char const*, char const*>::CloseEvent::Impl> >::__on_zero_shared()
PUBLIC 9ea88 0 std::__ndk1::__shared_ptr_emplace<geode::Popup<char const*, char const*>::CloseEvent::Impl, std::__ndk1::allocator<geode::Popup<char const*, char const*>::CloseEvent::Impl> >::__on_zero_shared_weak()
PUBLIC 9ea8c 0 OdysseyLevelPopup::setup(std::__ndk1::basic_string<char, std::__ndk1::char_traits<char>, std::__ndk1::allocator<char> > const&)
PUBLIC 9fee8 0 OdysseyLevelPopup::onPlay(cocos2d::CCObject*)
PUBLIC a004c 0 OdysseyLevelPopup::onSettings(cocos2d::CCObject*)
PUBLIC a006c 0 OdysseyLevelPopup::onComic(cocos2d::CCObject*)
PUBLIC a0368 0 OdysseyLevelPopup::onLore(cocos2d::CCObject*)
PUBLIC a0514 0 OdysseyLevelPopup::create(int)
PUBLIC a06b8 0 geode::Popup<std::__ndk1::basic_string<char, std::__ndk1::char_traits<char>, std::__ndk1::allocator<char> > const&>::~Popup()
PUBLIC a0724 0 OdysseyLevelPopup::~OdysseyLevelPopup()
PUBLIC a0798 0 geode::Popup<std::__ndk1::basic_string<char, std::__ndk1::char_traits<char>, std::__ndk1::allocator<char> > const&>::registerWithTouchDispatcher()
PUBLIC a07c4 0 geode::Popup<std::__ndk1::basic_string<char, std::__ndk1::char_traits<char>, std::__ndk1::allocator<char> > const&>::keyDown(cocos2d::enumKeyCodes)
PUBLIC a07ec 0 geode::Popup<std::__ndk1::basic_string<char, std::__ndk1::char_traits<char>, std::__ndk1::allocator<char> > const&>::onClose(cocos2d::CCObject*)
PUBLIC a0934 0 {virtual override thunk({offset(-320)}, OdysseyLevelPopup::~OdysseyLevelPopup())}
PUBLIC a09a0 0 {virtual override thunk({offset(-320)}, OdysseyLevelPopup::~OdysseyLevelPopup())}
PUBLIC a0a14 0 {virtual override thunk({offset(-344)}, geode::Popup<std::__ndk1::basic_string<char, std::__ndk1::char_traits<char>, std::__ndk1::allocator<char> > const&>::keyDown(cocos2d::enumKeyCodes))}
PUBLIC a0a40 0 geode::Popup<std::__ndk1::basic_string<char, std::__ndk1::char_traits<char>, std::__ndk1::allocator<char> > const&>::~Popup()
PUBLIC a0a44 0 {virtual override thunk({offset(-320)}, geode::Popup<std::__ndk1::basic_string<char, std::__ndk1::char_traits<char>, std::__ndk1::allocator<char> > const&>::~Popup())}
PUBLIC a0ab0 0 {virtual override thunk({offset(-320)}, geode::Popup<std::__ndk1::basic_string<char, std::__ndk1::char_traits<char>, std::__ndk1::allocator<char> > const&>::~Popup())}
PUBLIC a0ab4 0 geode::Popup<std::__ndk1::basic_string<char, std::__ndk1::char_traits<char>, std::__ndk1::allocator<char> > const&>::initBase(float, float, std::__ndk1::basic_string<char, std::__ndk1::char_traits<char>, std::__ndk1::allocator<char> > const&, char const*, cocos2d::CCRect, bool)
PUBLIC a0dc8 0 geode::Popup<std::__ndk1::basic_string<char, std::__ndk1::char_traits<char>, std::__ndk1::allocator<char> > const&>::CloseEvent::~CloseEvent()
PUBLIC a0e28 0 geode::Popup<std::__ndk1::basic_string<char, std::__ndk1::char_traits<char>, std::__ndk1::allocator<char> > const&>::CloseEvent::~CloseEvent()
PUBLIC a0e98 0 std::__ndk1::__shared_ptr_emplace<geode::Popup<std::__ndk1::basic_string<char, std::__ndk1::char_traits<char>, std::__ndk1::allocator<char> > const&>::CloseEvent::Impl, std::__ndk1::allocator<geode::Popup<std::__ndk1::basic_string<char, std::__ndk1::char_traits<char>, std::__ndk1::allocator<char> > const&>::CloseEvent::Impl> >::~__shared_ptr_emplace()
PUBLIC a0ea8 0 std::__ndk1::__shared_ptr_emplace<geode::Popup<std::__ndk1::basic_string<char, std::__ndk1::char_traits<char>, std::__ndk1::allocator<char> > const&>::CloseEvent::Impl, std::__ndk1::allocator<geode::Popup<std::__ndk1::basic_string<char, std::__ndk1::char_traits<char>, std::__ndk1::allocator<char> > const&>::CloseEvent::Impl> >::~__shared_ptr_emplace()
PUBLIC a0ed8 0 std::__ndk1::__shared_ptr_emplace<geode::Popup<std::__ndk1::basic_string<char, std::__ndk1::char_traits<char>, std::__ndk1::allocator<char> > const&>::CloseEvent::Impl, std::__ndk1::allocator<geode::Popup<std::__ndk1::basic_string<char, std::__ndk1::char_traits<char>, std::__ndk1::allocator<char> > const&>::CloseEvent::Impl> >::__on_zero_shared()
PUBLIC a0edc 0 std::__ndk1::__shared_ptr_emplace<geode::Popup<std::__ndk1::basic_string<char, std::__ndk1::char_traits<char>, std::__ndk1::allocator<char> > const&>::CloseEvent::Impl, std::__ndk1::allocator<geode::Popup<std::__ndk1::basic_string<char, std::__ndk1::char_traits<char>, std::__ndk1::allocator<char> > const&>::CloseEvent::Impl> >::__on_zero_shared_weak()
PUBLIC a0ee0 0 _GLOBAL__sub_I_OdysseyLevelPopup.cpp
PUBLIC a0efc 0 OdysseyPopup::setup(std::__ndk1::basic_string<char, std::__ndk1::char_traits<char>, std::__ndk1::allocator<char> > const&, std::__ndk1::basic_string<char, std::__ndk1::char_traits<char>, std::__ndk1::allocator<char> > const&)
PUBLIC a1254 0 OdysseyPopup::onClose(cocos2d::CCObject*)
PUBLIC a12b8 0 OdysseyPopup::create(std::__ndk1::basic_string<char, std::__ndk1::char_traits<char>, std::__ndk1::allocator<char> >, std::__ndk1::basic_string<char, std::__ndk1::char_traits<char>, std::__ndk1::allocator<char> >)
PUBLIC a143c 0 geode::Popup<std::__ndk1::basic_string<char, std::__ndk1::char_traits<char>, std::__ndk1::allocator<char> > const&, std::__ndk1::basic_string<char, std::__ndk1::char_traits<char>, std::__ndk1::allocator<char> > const&>::~Popup()
PUBLIC a14a8 0 OdysseyPopup::~OdysseyPopup()
PUBLIC a151c 0 geode::Popup<std::__ndk1::basic_string<char, std::__ndk1::char_traits<char>, std::__ndk1::allocator<char> > const&, std::__ndk1::basic_string<char, std::__ndk1::char_traits<char>, std::__ndk1::allocator<char> > const&>::registerWithTouchDispatcher()
PUBLIC a1548 0 geode::Popup<std::__ndk1::basic_string<char, std::__ndk1::char_traits<char>, std::__ndk1::allocator<char> > const&, std::__ndk1::basic_string<char, std::__ndk1::char_traits<char>, std::__ndk1::allocator<char> > const&>::keyDown(cocos2d::enumKeyCodes)
PUBLIC a1570 0 {virtual override thunk({offset(-320)}, OdysseyPopup::~OdysseyPopup())}
PUBLIC a15dc 0 {virtual override thunk({offset(-320)}, OdysseyPopup::~OdysseyPopup())}
PUBLIC a1650 0 {virtual override thunk({offset(-344)}, geode::Popup<std::__ndk1::basic_string<char, std::__ndk1::char_traits<char>, std::__ndk1::allocator<char> > const&, std::__ndk1::basic_string<char, std::__ndk1::char_traits<char>, std::__ndk1::allocator<char> > const&>::keyDown(cocos2d::enumKeyCodes))}
PUBLIC a167c 0 geode::Popup<std::__ndk1::basic_string<char, std::__ndk1::char_traits<char>, std::__ndk1::allocator<char> > const&, std::__ndk1::basic_string<char, std::__ndk1::char_traits<char>, std::__ndk1::allocator<char> > const&>::~Popup()
PUBLIC a1680 0 geode::Popup<std::__ndk1::basic_string<char, std::__ndk1::char_traits<char>, std::__ndk1::allocator<char> > const&, std::__ndk1::basic_string<char, std::__ndk1::char_traits<char>, std::__ndk1::allocator<char> > const&>::onClose(cocos2d::CCObject*)
PUBLIC a17c8 0 {virtual override thunk({offset(-320)}, geode::Popup<std::__ndk1::basic_string<char, std::__ndk1::char_traits<char>, std::__ndk1::allocator<char> > const&, std::__ndk1::basic_string<char, std::__ndk1::char_traits<char>, std::__ndk1::allocator<char> > const&>::~Popup())}
PUBLIC a1834 0 {virtual override thunk({offset(-320)}, geode::Popup<std::__ndk1::basic_string<char, std::__ndk1::char_traits<char>, std::__ndk1::allocator<char> > const&, std::__ndk1::basic_string<char, std::__ndk1::char_traits<char>, std::__ndk1::allocator<char> > const&>::~Popup())}
PUBLIC a1838 0 geode::Popup<std::__ndk1::basic_string<char, std::__ndk1::char_traits<char>, std::__ndk1::allocator<char> > const&, std::__ndk1::basic_string<char, std::__ndk1::char_traits<char>, std::__ndk1::allocator<char> > const&>::CloseEvent::~CloseEvent()
PUBLIC a1898 0 geode::Popup<std::__ndk1::basic_string<char, std::__ndk1::char_traits<char>, std::__ndk1::allocator<char> > const&, std::__ndk1::basic_string<char, std::__ndk1::char_traits<char>, std::__ndk1::allocator<char> > const&>::CloseEvent::~CloseEvent()
PUBLIC a1908 0 std::__ndk1::__shared_ptr_emplace<geode::Popup<std::__ndk1::basic_string<char, std::__ndk1::char_traits<char>, std::__ndk1::allocator<char> > const&, std::__ndk1::basic_string<char, std::__ndk1::char_traits<char>, std::__ndk1::allocator<char> > const&>::CloseEvent::Impl, std::__ndk1::allocator<geode::Popup<std::__ndk1::basic_string<char, std::__ndk1::char_traits<char>, std::__ndk1::allocator<char> > const&, std::__ndk1::basic_string<char, std::__ndk1::char_traits<char>, std::__ndk1::allocator<char> > const&>::CloseEvent::Impl> >::~__shared_ptr_emplace()
PUBLIC a1918 0 std::__ndk1::__shared_ptr_emplace<geode::Popup<std::__ndk1::basic_string<char, std::__ndk1::char_traits<char>, std::__ndk1::allocator<char> > const&, std::__ndk1::basic_string<char, std::__ndk1::char_traits<char>, std::__ndk1::allocator<char> > const&>::CloseEvent::Impl, std::__ndk1::allocator<geode::Popup<std::__ndk1::basic_string<char, std::__ndk1::char_traits<char>, std::__ndk1::allocator<char> > const&, std::__ndk1::basic_string<char, std::__ndk1::char_traits<char>, std::__ndk1::allocator<char> > const&>::CloseEvent::Impl> >::~__shared_ptr_emplace()
PUBLIC a1948 0 std::__ndk1::__shared_ptr_emplace<geode::Popup<std::__ndk1::basic_string<char, std::__ndk1::char_traits<char>, std::__ndk1::allocator<char> > const&, std::__ndk1::basic_string<char, std::__ndk1::char_traits<char>, std::__ndk1::allocator<char> > const&>::CloseEvent::Impl, std::__ndk1::allocator<geode::Popup<std::__ndk1::basic_string<char, std::__ndk1::char_traits<char>, std::__ndk1::allocator<char> > const&, std::__ndk1::basic_string<char, std::__ndk1::char_traits<char>, std::__ndk1::allocator<char> > const&>::CloseEvent::Impl> >::__on_zero_shared()
PUBLIC a194c 0 std::__ndk1::__shared_ptr_emplace<geode::Popup<std::__ndk1::basic_string<char, std::__ndk1::char_traits<char>, std::__ndk1::allocator<char> > const&, std::__ndk1::basic_string<char, std::__ndk1::char_traits<char>, std::__ndk1::allocator<char> > const&>::CloseEvent::Impl, std::__ndk1::allocator<geode::Popup<std::__ndk1::basic_string<char, std::__ndk1::char_traits<char>, std::__ndk1::allocator<char> > const&, std::__ndk1::basic_string<char, std::__ndk1::char_traits<char>, std::__ndk1::allocator<char> > const&>::CloseEvent::Impl> >::__on_zero_shared_weak()
PUBLIC a1950 0 geode::Popup<std::__ndk1::basic_string<char, std::__ndk1::char_traits<char>, std::__ndk1::allocator<char> > const&, std::__ndk1::basic_string<char, std::__ndk1::char_traits<char>, std::__ndk1::allocator<char> > const&>::initBase(float, float, std::__ndk1::basic_string<char, std::__ndk1::char_traits<char>, std::__ndk1::allocator<char> > const&, std::__ndk1::basic_string<char, std::__ndk1::char_traits<char>, std::__ndk1::allocator<char> > const&, char const*, cocos2d::CCRect, bool)
PUBLIC a1c54 0 Odyssey::addCorners(cocos2d::CCLayer*, char const*, float)
PUBLIC a1fd8 0 Odyssey::createProgressBar(int, bool)
PUBLIC a2430 0 Odyssey::createDifficultyNode(GJDifficulty, int)
PUBLIC a277c 0 Odyssey::createDialog(char const*)
PUBLIC a2dd8 0 Odyssey::createDialogResponse(char const*, int)
PUBLIC a3394 0 Odyssey::currentVehicleID()
PUBLIC a34f8 0 Odyssey::insertAssetsToMap(bool, std::__ndk1::vector<int, std::__ndk1::allocator<int> >)
PUBLIC a3874 0 geode::stl::unordered_set<int, geode::stl::hash<int>, geode::stl::equal_to<int>, std::__ndk1::allocator<int> >::~unordered_set()
PUBLIC a38ec 0 Odyssey::updateIcon(cocos2d::CCNode*, int, IconType, bool)
PUBLIC a4994 0 Odyssey::unlockObject(int, int)
PUBLIC a4da0 0 Odyssey::hasAllVaultRewards()
PUBLIC a52f8 0 Odyssey::getEarlyLoadBreakingMods()
PUBLIC a56a4 0 Odyssey::getBreakingMods()
PUBLIC a5d98 0 std::__ndk1::vector<std::__ndk1::vector<gd::string, std::__ndk1::allocator<gd::string> >, std::__ndk1::allocator<std::__ndk1::vector<gd::string, std::__ndk1::allocator<gd::string> > > >::__assign_with_size[abi:ne180000]<std::__ndk1::vector<gd::string, std::__ndk1::allocator<gd::string> >*, std::__ndk1::vector<std::__ndk1::vector<gd::string, std::__ndk1::allocator<gd::string> >, std::__ndk1::allocator<std::__ndk1::vector<gd::string, std::__ndk1::allocator<gd::string> > > >::__assign_with_size[abi:ne180000]>(std::__ndk1::vector<gd::string, std::__ndk1::allocator<gd::string> >*, std::__ndk1::vector<std::__ndk1::vector<gd::string, std::__ndk1::allocator<gd::string> >, std::__ndk1::allocator<std::__ndk1::vector<gd::string, std::__ndk1::allocator<gd::string> > > >::__assign_with_size[abi:ne180000], long)
PUBLIC a6130 0 std::__ndk1::vector<gd::string, std::__ndk1::allocator<gd::string> >::__assign_with_size[abi:ne180000]<gd::string*, std::__ndk1::vector<gd::string, std::__ndk1::allocator<gd::string> >::__assign_with_size[abi:ne180000]>(gd::string*, std::__ndk1::vector<gd::string, std::__ndk1::allocator<gd::string> >::__assign_with_size[abi:ne180000], long)
PUBLIC a637c 0 std::__ndk1::vector<std::__ndk1::vector<gd::string, std::__ndk1::allocator<gd::string> >, std::__ndk1::allocator<std::__ndk1::vector<gd::string, std::__ndk1::allocator<gd::string> > > >::__throw_out_of_range[abi:ne180000]() const
PUBLIC a6390 0 std::__ndk1::vector<geode::Mod*, std::__ndk1::allocator<geode::Mod*> >::__throw_length_error[abi:ne180000]() const
PUBLIC a63a4 0 _ZN5geode15UnwrapExceptionC2IRNSt6__ndk112basic_stringIcNS2_11char_traitsIcEENS2_9allocatorIcEEEEQsr4implE18IsStringStreamableIT_EEENS_4impl6ErrTagEOSA_
PUBLIC a650c 0 geode::stl::_Hashtable<int, int, std::__ndk1::allocator<int>, geode::stl::__detail::_Identity, geode::stl::equal_to<int>, geode::stl::hash<int>, geode::stl::__detail::_Mod_range_hashing, geode::stl::__detail::_Default_ranged_hash, geode::stl::__detail::_Prime_rehash_policy, geode::stl::__detail::_Hashtable_traits<false, true, true> >::_M_insert_unique_node(unsigned long, unsigned long, geode::stl::__detail::_Hash_node<int, false>*)
PUBLIC a67e8 0 gd::map<std::__ndk1::pair<int, UnlockType>, int>::insert_pair(std::__ndk1::pair<std::__ndk1::pair<int, UnlockType>, int> const&)
PUBLIC a6a7c 0 _GLOBAL__sub_I_Utils.cpp
PUBLIC ad158 0 geode::getMod()
PUBLIC m ad194 0 geodeImplicitEntry
PUBLIC ad1d0 0 std::__ndk1::unordered_map<void*, bool, std::__ndk1::hash<void*>, std::__ndk1::equal_to<void*>, std::__ndk1::allocator<std::__ndk1::pair<void* const, bool> > >::~unordered_map[abi:ne180000]()
PUBLIC ad21c 0 wrapFunction(unsigned long, tulip::hook::WrapperMetadata const&)
PUBLIC ad350 0 geode::impl::ResultData<void*, std::__ndk1::basic_string<char, std::__ndk1::char_traits<char>, std::__ndk1::allocator<char> > >::unwrapErr() &
PUBLIC ad3c8 0 geode::impl::ResultData<void*, std::__ndk1::basic_string<char, std::__ndk1::char_traits<char>, std::__ndk1::allocator<char> > >::~ResultData()
PUBLIC ad43c 0 tulip::hook::WrapperMetadata::~WrapperMetadata()
PUBLIC ad4a0 0 cocos2d::CCObject::~CCObject()
PUBLIC ad4c4 0 cocos2d::CCNode::CCNode()
PUBLIC ad720 0 cocos2d::CCNode::~CCNode()
PUBLIC ad744 0 cocos2d::CCLayer::CCLayer()
PUBLIC ad9c8 0 {virtual override thunk({offset(-320)}, cocos2d::CCLayer::~CCLayer())}
PUBLIC ad9d0 0 cocos2d::CCLayer::~CCLayer()
PUBLIC ad9f4 0 {virtual override thunk({offset(-320)}, cocos2d::CCLayer::~CCLayer())}
PUBLIC ada1c 0 cocos2d::CCLayerRGBA::~CCLayerRGBA()
PUBLIC add1c 0 {virtual override thunk({offset(-320)}, cocos2d::CCLayerRGBA::~CCLayerRGBA())}
PUBLIC add24 0 cocos2d::CCLayerRGBA::~CCLayerRGBA()
PUBLIC add48 0 {virtual override thunk({offset(-320)}, cocos2d::CCLayerRGBA::~CCLayerRGBA())}
PUBLIC add70 0 cocos2d::CCLayerColor::CCLayerColor()
PUBLIC adfd4 0 {virtual override thunk({offset(-320)}, cocos2d::CCLayerColor::~CCLayerColor())}
PUBLIC adfdc 0 cocos2d::CCLayerColor::~CCLayerColor()
PUBLIC ae000 0 {virtual override thunk({offset(-320)}, cocos2d::CCLayerColor::~CCLayerColor())}
PUBLIC ae028 0 cocos2d::CCDictionary::setObject(cocos2d::CCObject*, gd::string const&)
PUBLIC ae188 0 tulip::hook::AbstractFunction::from<void, cocos2d::CCDictionary*, cocos2d::CCObject*, gd::string const&>(void (*)(cocos2d::CCDictionary*, cocos2d::CCObject*, gd::string const&))
PUBLIC ae290 0 cocos2d::CCDictionary::objectForKey(gd::string const&)
PUBLIC ae3e0 0 tulip::hook::AbstractFunction::from<cocos2d::CCObject*, cocos2d::CCDictionary*, gd::string const&>(cocos2d::CCObject* (*)(cocos2d::CCDictionary*, gd::string const&))
PUBLIC ae488 0 GJDropDownLayer::ccTouchBegan(cocos2d::CCTouch*, cocos2d::CCEvent*)
PUBLIC ae490 0 {virtual override thunk({offset(-320)}, GJDropDownLayer::ccTouchBegan(cocos2d::CCTouch*, cocos2d::CCEvent*))}
PUBLIC ae498 0 GJDropDownLayer::ccTouchMoved(cocos2d::CCTouch*, cocos2d::CCEvent*)
PUBLIC ae49c 0 {virtual override thunk({offset(-320)}, GJDropDownLayer::ccTouchMoved(cocos2d::CCTouch*, cocos2d::CCEvent*))}
PUBLIC ae4a0 0 GJDropDownLayer::ccTouchEnded(cocos2d::CCTouch*, cocos2d::CCEvent*)
PUBLIC ae4a4 0 {virtual override thunk({offset(-320)}, GJDropDownLayer::ccTouchEnded(cocos2d::CCTouch*, cocos2d::CCEvent*))}
PUBLIC ae4a8 0 GJDropDownLayer::ccTouchCancelled(cocos2d::CCTouch*, cocos2d::CCEvent*)
PUBLIC ae4ac 0 {virtual override thunk({offset(-320)}, GJDropDownLayer::ccTouchCancelled(cocos2d::CCTouch*, cocos2d::CCEvent*))}
PUBLIC ae4b0 0 GJDropDownLayer::enterAnimFinished()
PUBLIC ae4b4 0 {virtual override thunk({offset(-320)}, FLAlertLayer::~FLAlertLayer())}
PUBLIC ae4bc 0 FLAlertLayer::~FLAlertLayer()
PUBLIC ae4e0 0 {virtual override thunk({offset(-320)}, FLAlertLayer::~FLAlertLayer())}
PUBLIC ae508 0 FLAlertLayer::create(FLAlertLayerProtocol*, char const*, gd::string, char const*, char const*, float)
PUBLIC ae6c0 0 tulip::hook::AbstractFunction::from<FLAlertLayer*, FLAlertLayerProtocol*, char const*, gd::string, char const*, char const*, float>(FLAlertLayer* (*)(FLAlertLayerProtocol*, char const*, gd::string, char const*, char const*, float))
PUBLIC aeba4 0 AchievementManager::addAchievement(gd::string, gd::string, gd::string, gd::string, gd::string, int)
PUBLIC aedd4 0 tulip::hook::AbstractFunction::from<void, AchievementManager*, gd::string, gd::string, gd::string, gd::string, gd::string, int>(void (*)(AchievementManager*, gd::string, gd::string, gd::string, gd::string, gd::string, int))
PUBLIC af3dc 0 CCSpriteGrayscale::createWithSpriteFrameName(gd::string const&)
PUBLIC af540 0 GJDropDownLayerDelegate::dropDownLayerWillClose(GJDropDownLayer*)
PUBLIC af544 0 DialogObject::create(gd::string, gd::string, int, float, bool, cocos2d::_ccColor3B)
PUBLIC af718 0 tulip::hook::AbstractFunction::from<DialogObject*, gd::string, gd::string, int, float, bool, cocos2d::_ccColor3B>(DialogObject* (*)(gd::string, gd::string, int, float, bool, cocos2d::_ccColor3B))
PUBLIC afbd8 0 DynamicScrollDelegate::updatePageWithObject(cocos2d::CCObject*, cocos2d::CCObject*)
PUBLIC afbdc 0 FMODAudioEngine::playEffect(gd::string)
PUBLIC afd54 0 tulip::hook::AbstractFunction::from<void, FMODAudioEngine*, gd::string>(void (*)(FMODAudioEngine*, gd::string))
PUBLIC afdf8 0 FMODAudioEngine::playMusic(gd::string, bool, float, int)
PUBLIC aff98 0 tulip::hook::AbstractFunction::from<void, FMODAudioEngine*, gd::string, bool, float, int>(void (*)(FMODAudioEngine*, gd::string, bool, float, int))
PUBLIC b0354 0 GameManager::~GameManager()
PUBLIC b0890 0 GameManager::~GameManager()
PUBLIC b08b4 0 tulip::hook::AbstractFunction::from<void, GameManager*, gd::string>(void (*)(GameManager*, gd::string))
PUBLIC b0958 0 GameManager::fadeInMusic(gd::string)
PUBLIC b0ad0 0 GameToolbox::particleFromString(gd::string const&, cocos2d::CCParticleSystemQuad*, bool)
PUBLIC b0c30 0 tulip::hook::AbstractFunction::from<cocos2d::CCParticleSystemQuad*, gd::string const&, cocos2d::CCParticleSystemQuad*, bool>(cocos2d::CCParticleSystemQuad* (*)(gd::string const&, cocos2d::CCParticleSystemQuad*, bool))
PUBLIC b0d38 0 InfoAlertButton::create(gd::string, gd::string, float)
PUBLIC b0ee4 0 tulip::hook::AbstractFunction::from<InfoAlertButton*, gd::string, gd::string, float>(InfoAlertButton* (*)(gd::string, gd::string, float))
PUBLIC b0ff0 0 TextArea::create(gd::string, char const*, float, float, cocos2d::CCPoint, float, bool)
PUBLIC b11b8 0 tulip::hook::AbstractFunction::from<TextArea*, gd::string, char const*, float, float, cocos2d::CCPoint, float, bool>(TextArea* (*)(gd::string, char const*, float, float, cocos2d::CCPoint, float, bool))
PUBLIC b1774 0 TextArea::setString(gd::string)
PUBLIC b18ec 0 tulip::hook::AbstractFunction::from<void, TextArea*, gd::string>(void (*)(TextArea*, gd::string))
PUBLIC b1990 0 cocos2d::CCObject::update(float)
PUBLIC b1994 0 cocos2d::CCLayerColor::~CCLayerColor()
PUBLIC b1c78 0 FLAlertLayer::~FLAlertLayer()
PUBLIC b1f5c 0 cocos2d::CCNode::~CCNode()
PUBLIC b21fc 0 cocos2d::CCLayer::~CCLayer()
PUBLIC b24ec 0 cocos2d::CCObject::~CCObject()
PUBLIC b29e0 0 _ZN5geode15UnwrapExceptionC2IRPvQsr4implE18IsStringStreamableIT_EEENS_4impl5OkTagEOS4_
PUBLIC b2b34 0 std::__ndk1::__variant_detail::__visitation::__base::__dispatcher<(unsigned long)0>::__dispatch[abi:ne180000]<std::__ndk1::__variant_detail::__dtor<std::__ndk1::__variant_detail::__traits<void*, std::__ndk1::basic_string<char, std::__ndk1::char_traits<char>, std::__ndk1::allocator<char> > >, (std::__ndk1::__variant_detail::_Trait)1>::__destroy[abi:ne180000]()::{lambda(auto:1&)#1}, std::__ndk1::__variant_detail::__base<(std::__ndk1::__variant_detail::__traits<void*, std::__ndk1::basic_string<char, std::__ndk1::char_traits<char>, std::__ndk1::allocator<char> > >)1, std::__ndk1::__variant_detail::__traits, std::__ndk1::allocator<char> >&>(std::__ndk1::__variant_detail::__dtor<std::__ndk1::__variant_detail::__traits<void*, std::__ndk1::basic_string<char, std::__ndk1::char_traits<char>, std::__ndk1::allocator<char> > >, (std::__ndk1::__variant_detail::_Trait)1>, std::__ndk1::__variant_detail::__base<(std::__ndk1::__variant_detail::__traits<void*, std::__ndk1::basic_string<char, std::__ndk1::char_traits<char>, std::__ndk1::allocator<char> > >)1, std::__ndk1::__variant_detail::__traits, std::__ndk1::allocator<char> >&)
PUBLIC b2b38 0 std::__ndk1::__variant_detail::__visitation::__base::__dispatcher<(unsigned long)1>::__dispatch[abi:ne180000]<std::__ndk1::__variant_detail::__dtor<std::__ndk1::__variant_detail::__traits<void*, std::__ndk1::basic_string<char, std::__ndk1::char_traits<char>, std::__ndk1::allocator<char> > >, (std::__ndk1::__variant_detail::_Trait)1>::__destroy[abi:ne180000]()::{lambda(auto:1&)#1}, std::__ndk1::__variant_detail::__base<(std::__ndk1::__variant_detail::__traits<void*, std::__ndk1::basic_string<char, std::__ndk1::char_traits<char>, std::__ndk1::allocator<char> > >)1, std::__ndk1::__variant_detail::__traits, std::__ndk1::allocator<char> >&>(std::__ndk1::__variant_detail::__dtor<std::__ndk1::__variant_detail::__traits<void*, std::__ndk1::basic_string<char, std::__ndk1::char_traits<char>, std::__ndk1::allocator<char> > >, (std::__ndk1::__variant_detail::_Trait)1>, std::__ndk1::__variant_detail::__base<(std::__ndk1::__variant_detail::__traits<void*, std::__ndk1::basic_string<char, std::__ndk1::char_traits<char>, std::__ndk1::allocator<char> > >)1, std::__ndk1::__variant_detail::__traits, std::__ndk1::allocator<char> >&)
PUBLIC b2b4c 0 std::__ndk1::__hash_table<std::__ndk1::__hash_value_type<void*, bool>, std::__ndk1::__unordered_map_hasher<void*, std::__ndk1::__hash_value_type<void*, bool>, std::__ndk1::hash<void*>, std::__ndk1::equal_to<void*>, true>, std::__ndk1::__unordered_map_equal<void*, std::__ndk1::__hash_value_type<void*, bool>, std::__ndk1::equal_to<void*>, std::__ndk1::hash<void*>, true>, std::__ndk1::allocator<std::__ndk1::__hash_value_type<void*, bool> > >::__emplace_unique_key_args<void*, std::__ndk1::piecewise_construct_t const&, std::__ndk1::tuple<void* const&>, std::__ndk1::tuple<> >(void* const&, std::__ndk1::piecewise_construct_t const&, std::__ndk1::tuple<void* const&>, std::__ndk1::tuple<>)
PUBLIC b3058 0 __udivti3
PUBLIC b3064 0 __udivmodti4
PUBLIC m b32b0 0 __eqtf2
PUBLIC b3350 0 __unordtf2
PUBLIC b3388 0 fmt::v11::detail::write_loc(fmt::v11::basic_appender<char>, fmt::v11::loc_value, fmt::v11::format_specs const&, fmt::v11::detail::locale_ref)
PUBLIC b361c 0 fmt::v11::format_facet<std::__ndk1::locale>::~format_facet()
PUBLIC b3698 0 fmt::v11::report_error(char const*)
PUBLIC b36e8 0 fmt::v11::format_error::runtime_error(char const*)
PUBLIC b3714 0 fmt::v11::format_facet<std::__ndk1::locale>::do_put(fmt::v11::basic_appender<char>, fmt::v11::loc_value, fmt::v11::format_specs const&) const
PUBLIC b3ed4 0 fmt::v11::detail::loc_writer<char>::~loc_writer()
PUBLIC b3f38 0 fmt::v11::detail::vformat_to<char>(fmt::v11::detail::buffer<char>&, fmt::v11::basic_string_view<char>, fmt::v11::detail::vformat_args<char>::type, fmt::v11::detail::locale_ref)
PUBLIC b44a8 0 fmt::v11::detail::is_printable(unsigned int)
PUBLIC b46d0 0 fmt::v11::detail::dragonbox::to_decimal<float>(float)
PUBLIC b49ac 0 fmt::v11::detail::dragonbox::to_decimal<double>(double)
PUBLIC b4ee8 0 fmt::v11::basic_memory_buffer<char, (unsigned long)500, std::__ndk1::allocator<char> >::grow(fmt::v11::detail::buffer<char>&, unsigned long)
PUBLIC b4f60 0 fmt::v11::format_facet<std::__ndk1::locale>::~format_facet()
PUBLIC b4fec 0 fmt::v11::format_error::~format_error()
PUBLIC b5010 0 fmt::v11::detail::copy_noinline<char, char const*, fmt::v11::basic_appender<char> >(char const*, char const*, fmt::v11::basic_appender<char>)
PUBLIC b5160 0 fmt::v11::detail::default_arg_formatter<char>::operator()<bool>(bool)
PUBLIC b51c8 0 fmt::v11::detail::default_arg_formatter<char>::operator()<char>(char)
PUBLIC b5258 0 fmt::v11::detail::default_arg_formatter<char>::operator()<float>(float)
PUBLIC b5344 0 fmt::v11::detail::default_arg_formatter<char>::operator()<double>(double)
PUBLIC b5430 0 fmt::v11::detail::default_arg_formatter<char>::operator()<char const*>(char const*)
PUBLIC b5478 0 fmt::v11::detail::default_arg_formatter<char>::operator()<void const*>(void const*)
PUBLIC b5510 0 _ZN3fmt3v116detail5writeIcNS0_14basic_appenderIcEEiTnNSt6__ndk19enable_ifIXaaaasr11is_integralIT1_EE5valuentsr3std7is_sameIS7_bEE5valuentsr3std7is_sameIS7_T_EE5valueEiE4typeELi0EEET0_SB_S7_
PUBLIC b5770 0 fmt::v11::detail::copy_noinline<char, char*, fmt::v11::basic_appender<char> >(char*, char*, fmt::v11::basic_appender<char>)
PUBLIC b58c0 0 _ZN3fmt3v116detail5writeIcNS0_14basic_appenderIcEEjTnNSt6__ndk19enable_ifIXaaaasr11is_integralIT1_EE5valuentsr3std7is_sameIS7_bEE5valuentsr3std7is_sameIS7_T_EE5valueEiE4typeELi0EEET0_SB_S7_
PUBLIC b5aa0 0 _ZN3fmt3v116detail5writeIcNS0_14basic_appenderIcEExTnNSt6__ndk19enable_ifIXaaaasr11is_integralIT1_EE5valuentsr3std7is_sameIS7_bEE5valuentsr3std7is_sameIS7_T_EE5valueEiE4typeELi0EEET0_SB_S7_
PUBLIC b5d24 0 _ZN3fmt3v116detail5writeIcNS0_14basic_appenderIcEEyTnNSt6__ndk19enable_ifIXaaaasr11is_integralIT1_EE5valuentsr3std7is_sameIS7_bEE5valuentsr3std7is_sameIS7_T_EE5valueEiE4typeELi0EEET0_SB_S7_
PUBLIC b5f2c 0 _ZN3fmt3v116detail5writeIcNS0_14basic_appenderIcEEnTnNSt6__ndk19enable_ifIXaaaasr11is_integralIT1_EE5valuentsr3std7is_sameIS7_bEE5valuentsr3std7is_sameIS7_T_EE5valueEiE4typeELi0EEET0_SB_S7_
PUBLIC b628c 0 _ZN3fmt3v116detail5writeIcNS0_14basic_appenderIcEEoTnNSt6__ndk19enable_ifIXaaaasr11is_integralIT1_EE5valuentsr3std7is_sameIS7_bEE5valuentsr3std7is_sameIS7_T_EE5valueEiE4typeELi0EEET0_SB_S7_
PUBLIC b65a0 0 _ZN3fmt3v116detail5writeIcNS0_14basic_appenderIcEEbTnNSt6__ndk19enable_ifIXsr3std7is_sameIT1_bEE5valueEiE4typeELi0EEET0_SA_S7_RKNS0_12format_specsENS1_10locale_refE
PUBLIC b6830 0 fmt::v11::detail::write_int_noinline<char, fmt::v11::basic_appender<char>, unsigned int>(fmt::v11::basic_appender<char>, fmt::v11::detail::write_int_arg<unsigned int>, fmt::v11::format_specs const&, fmt::v11::detail::locale_ref)
PUBLIC b760c 0 fmt::v11::detail::fill<char, fmt::v11::basic_appender<char> >(fmt::v11::basic_appender<char>, unsigned long, fmt::v11::detail::fill_t const&)
PUBLIC b77dc 0 fmt::v11::detail::write_padded<char, (fmt::v11::align::type)1, fmt::v11::basic_appender<char>, fmt::v11::detail::write_char<char, fmt::v11::basic_appender<char> >(fmt::v11::basic_appender<char>, char, fmt::v11::format_specs const&)::{lambda(fmt::v11::basic_appender<char>&)#1}>(fmt::v11::basic_appender<char>, fmt::v11::format_specs const&, unsigned long, unsigned long, fmt::v11::detail::write_char<char, fmt::v11::basic_appender<char> >(fmt::v11::basic_appender<char>, char, fmt::v11::format_specs const&)::{lambda(fmt::v11::basic_appender<char>&)#1})
PUBLIC b7a18 0 fmt::v11::detail::write_escaped_cp<fmt::v11::basic_appender<char>, char>(fmt::v11::basic_appender<char>, fmt::v11::detail::find_escape_result<char> const&)
PUBLIC b7d24 0 fmt::v11::detail::write_codepoint<(unsigned long)2, char, fmt::v11::basic_appender<char> >(fmt::v11::basic_appender<char>, char, unsigned int)
PUBLIC b7e9c 0 fmt::v11::detail::write_codepoint<(unsigned long)8, char, fmt::v11::basic_appender<char> >(fmt::v11::basic_appender<char>, char, unsigned int)
PUBLIC b8014 0 fmt::v11::detail::write_padded<char, (fmt::v11::align::type)1, fmt::v11::basic_appender<char>, fmt::v11::detail::write_nonfinite<char, fmt::v11::basic_appender<char> >(fmt::v11::basic_appender<char>, bool, fmt::v11::format_specs, fmt::v11::sign::type)::{lambda(fmt::v11::basic_appender<char>&)#1}>(fmt::v11::basic_appender<char>, fmt::v11::format_specs const&, unsigned long, unsigned long, fmt::v11::detail::write_nonfinite<char, fmt::v11::basic_appender<char> >(fmt::v11::basic_appender<char>, bool, fmt::v11::format_specs, fmt::v11::sign::type)::{lambda(fmt::v11::basic_appender<char>&)#1})
PUBLIC b8254 0 fmt::v11::detail::do_write_float<char, fmt::v11::basic_appender<char>, fmt::v11::detail::dragonbox::decimal_fp<float>, fmt::v11::detail::digit_grouping<char> >(fmt::v11::basic_appender<char>, fmt::v11::detail::dragonbox::decimal_fp<float> const&, fmt::v11::format_specs const&, fmt::v11::detail::float_specs, fmt::v11::detail::locale_ref)
PUBLIC b8ec8 0 fmt::v11::detail::do_write_float<char, fmt::v11::basic_appender<char>, fmt::v11::detail::dragonbox::decimal_fp<float>, fmt::v11::detail::digit_grouping<char> >(fmt::v11::basic_appender<char>, fmt::v11::detail::dragonbox::decimal_fp<float> const&, fmt::v11::format_specs const&, fmt::v11::detail::float_specs, fmt::v11::detail::locale_ref)::{lambda(fmt::v11::basic_appender<char>(fmt::v11::basic_appender<char>))#1}::operator() const
PUBLIC b901c 0 fmt::v11::detail::digit_grouping<char>::digit_grouping(fmt::v11::detail::locale_ref, bool)
PUBLIC b9288 0 fmt::v11::detail::digit_grouping<char>::~digit_grouping()
PUBLIC b92cc 0 fmt::v11::detail::write_exponent<char, fmt::v11::basic_appender<char> >(int, fmt::v11::basic_appender<char>)
PUBLIC b949c 0 _ZN3fmt3v116detail17write_significandIcjTnNSt6__ndk19enable_ifIXsr3std11is_integralIT0_EE5valueEiE4typeELi0EEEPT_S9_S5_iiS8_
PUBLIC b9618 0 fmt::v11::detail::digit_grouping<char>::apply<fmt::v11::basic_appender<char>, char>(fmt::v11::basic_appender<char>, fmt::v11::basic_string_view<char>) const
PUBLIC b99d0 0 fmt::v11::basic_memory_buffer<int, (unsigned long)500, std::__ndk1::allocator<int> >::grow(fmt::v11::detail::buffer<int>&, unsigned long)
PUBLIC b9a70 0 fmt::v11::detail::do_write_float<char, fmt::v11::basic_appender<char>, fmt::v11::detail::dragonbox::decimal_fp<double>, fmt::v11::detail::digit_grouping<char> >(fmt::v11::basic_appender<char>, fmt::v11::detail::dragonbox::decimal_fp<double> const&, fmt::v11::format_specs const&, fmt::v11::detail::float_specs, fmt::v11::detail::locale_ref)
PUBLIC ba724 0 fmt::v11::detail::do_write_float<char, fmt::v11::basic_appender<char>, fmt::v11::detail::dragonbox::decimal_fp<double>, fmt::v11::detail::digit_grouping<char> >(fmt::v11::basic_appender<char>, fmt::v11::detail::dragonbox::decimal_fp<double> const&, fmt::v11::format_specs const&, fmt::v11::detail::float_specs, fmt::v11::detail::locale_ref)::{lambda(fmt::v11::basic_appender<char>(fmt::v11::basic_appender<char>))#1}::operator() const
PUBLIC ba87c 0 _ZN3fmt3v116detail17write_significandIcmTnNSt6__ndk19enable_ifIXsr3std11is_integralIT0_EE5valueEiE4typeELi0EEEPT_S9_S5_iiS8_
PUBLIC baa0c 0 fmt::v11::detail::write_float<char, fmt::v11::basic_appender<char>, long double>(fmt::v11::basic_appender<char>, long double, fmt::v11::format_specs, fmt::v11::detail::locale_ref)
PUBLIC bb508 0 fmt::v11::detail::write_padded<char, (fmt::v11::align::type)2, fmt::v11::basic_appender<char>, fmt::v11::detail::write_bytes<char, (fmt::v11::align::type)2, fmt::v11::basic_appender<char> >(fmt::v11::basic_appender<char>, fmt::v11::basic_string_view<char>, fmt::v11::format_specs const&)::{lambda(fmt::v11::basic_appender<char>&)#1}>(fmt::v11::basic_appender<char>, fmt::v11::format_specs const&, unsigned long, unsigned long, fmt::v11::detail::write_bytes<char, (fmt::v11::align::type)2, fmt::v11::basic_appender<char> >(fmt::v11::basic_appender<char>, fmt::v11::basic_string_view<char>, fmt::v11::format_specs const&)::{lambda(fmt::v11::basic_appender<char>&)#1})
PUBLIC bb6e4 0 fmt::v11::detail::format_dragon(fmt::v11::detail::basic_fp<unsigned __int128>, unsigned int, int, fmt::v11::detail::buffer<char>&, int&)
PUBLIC bcb14 0 fmt::v11::detail::bigint::operator<<=(int)
PUBLIC bcc38 0 fmt::v11::detail::bigint::assign_pow10(int)
PUBLIC bd394 0 fmt::v11::detail::bigint::divmod_assign(fmt::v11::detail::bigint const&)
PUBLIC bd6b4 0 fmt::v11::basic_memory_buffer<unsigned int, (unsigned long)32, std::__ndk1::allocator<unsigned int> >::grow(fmt::v11::detail::buffer<unsigned int>&, unsigned long)
PUBLIC bd754 0 fmt::v11::detail::do_write_float<char, fmt::v11::basic_appender<char>, fmt::v11::detail::big_decimal_fp, fmt::v11::detail::digit_grouping<char> >(fmt::v11::basic_appender<char>, fmt::v11::detail::big_decimal_fp const&, fmt::v11::format_specs const&, fmt::v11::detail::float_specs, fmt::v11::detail::locale_ref)
PUBLIC be604 0 fmt::v11::detail::do_write_float<char, fmt::v11::basic_appender<char>, fmt::v11::detail::big_decimal_fp, fmt::v11::detail::digit_grouping<char> >(fmt::v11::basic_appender<char>, fmt::v11::detail::big_decimal_fp const&, fmt::v11::format_specs const&, fmt::v11::detail::float_specs, fmt::v11::detail::locale_ref)::{lambda(fmt::v11::basic_appender<char>(fmt::v11::basic_appender<char>))#1}::operator() const
PUBLIC be764 0 fmt::v11::detail::write_padded<char, (fmt::v11::align::type)2, fmt::v11::basic_appender<char>, fmt::v11::detail::write_ptr<char, fmt::v11::basic_appender<char>, unsigned long>(fmt::v11::basic_appender<char>, unsigned long, fmt::v11::format_specs const*)::{lambda(fmt::v11::basic_appender<char>&)#1}>(fmt::v11::basic_appender<char>, fmt::v11::format_specs const&, unsigned long, unsigned long, fmt::v11::detail::write_ptr<char, fmt::v11::basic_appender<char>, unsigned long>(fmt::v11::basic_appender<char>, unsigned long, fmt::v11::format_specs const*)::{lambda(fmt::v11::basic_appender<char>&)#1})
PUBLIC be978 0 fmt::v11::detail::parse_replacement_field<char, fmt::v11::detail::vformat_to<char>(fmt::v11::detail::buffer<char>&, fmt::v11::basic_string_view<char>, fmt::v11::detail::vformat_args<char>::type, fmt::v11::detail::locale_ref)::format_handler&>(char const*, char const*, fmt::v11::detail::vformat_to<char>(fmt::v11::detail::buffer<char>&, fmt::v11::basic_string_view<char>, fmt::v11::detail::vformat_args<char>::type, fmt::v11::detail::locale_ref)::format_handler&)
PUBLIC c0614 0 fmt::v11::detail::parse_dynamic_spec<char>(char const*, char const*, int&, fmt::v11::detail::arg_ref<char>&, fmt::v11::basic_format_parse_context<char>&)
PUBLIC c08a4 0 fmt::v11::basic_format_args<fmt::v11::context>::get<char>(fmt::v11::basic_string_view<char>) const
PUBLIC c09fc 0 fmt::v11::detail::write_int_noinline<char, fmt::v11::basic_appender<char>, unsigned long>(fmt::v11::basic_appender<char>, fmt::v11::detail::write_int_arg<unsigned long>, fmt::v11::format_specs const&, fmt::v11::detail::locale_ref)
PUBLIC c1850 0 fmt::v11::detail::write_int_noinline<char, fmt::v11::basic_appender<char>, unsigned __int128>(fmt::v11::basic_appender<char>, fmt::v11::detail::write_int_arg<unsigned __int128>, fmt::v11::format_specs const&, fmt::v11::detail::locale_ref)
PUBLIC c28b8 0 _ZN3fmt3v116detail15format_hexfloatIdTnNSt6__ndk19enable_ifIXntsr16is_double_doubleIT_EE5valueEiE4typeELi0EEEvS5_NS0_12format_specsERNS1_6bufferIcEE
PUBLIC c2dd8 0 fmt::v11::detail::format_float<double>(double, int, fmt::v11::detail::float_specs, fmt::v11::detail::buffer<char>&)
PUBLIC c3778 0 fmt::v11::detail::write<char, fmt::v11::basic_appender<char> >(fmt::v11::basic_appender<char>, fmt::v11::basic_string_view<char>, fmt::v11::format_specs const&)
PUBLIC c4ae4 0 fmt::v11::detail::for_each_codepoint<fmt::v11::detail::compute_width(fmt::v11::basic_string_view<char>)::count_code_points>(fmt::v11::basic_string_view<char>, fmt::v11::detail::compute_width(fmt::v11::basic_string_view<char>)::count_code_points)::{lambda(char const*, char const*)#1}::operator()(char const*, char const*) const
PUBLIC c4c9c 0 fmt::v11::detail::write_int<fmt::v11::basic_appender<char>, unsigned long, char>(fmt::v11::basic_appender<char>, unsigned long, unsigned int, fmt::v11::format_specs const&, fmt::v11::detail::digit_grouping<char> const&)
PUBLIC c5218 0 fmt::v11::detail::write_int<fmt::v11::basic_appender<char>, unsigned __int128, char>(fmt::v11::basic_appender<char>, unsigned __int128, unsigned int, fmt::v11::format_specs const&, fmt::v11::detail::digit_grouping<char> const&)
PUBLIC c58a0 0 <.plt ELF section in teamtcm.geometry-dash-odyssey.android64.so>
STACK CFI INIT 4d180 10 .cfa: sp 0 +
STACK CFI INIT 4d190 8 .cfa: sp 0 +
STACK CFI INIT 4d198 8 .cfa: sp 0 +
STACK CFI INIT 4d1a0 14 .cfa: sp 0 +
STACK CFI INIT 4d1b4 1c .cfa: sp 0 +
STACK CFI INIT 4d1d0 10 .cfa: sp 0 +
STACK CFI INIT 4d1e0 134 .cfa: sp 0 +
STACK CFI INIT 4d314 84 .cfa: sp 0 +
STACK CFI INIT 4d398 f4 .cfa: sp 0 +
STACK CFI INIT 4d48c a8 .cfa: sp 0 +
STACK CFI INIT 4d534 7c .cfa: sp 0 +
STACK CFI INIT 4d5b0 14 .cfa: sp 0 +
STACK CFI INIT 4d5c4 40 .cfa: sp 0 +
STACK CFI INIT 4d604 28 .cfa: sp 0 +
STACK CFI INIT 4d62c 190 .cfa: sp 0 +
STACK CFI INIT 4d7bc 2c8 .cfa: sp 0 +
STACK CFI INIT 4da84 8 .cfa: sp 0 +
STACK CFI INIT 4da8c 8 .cfa: sp 0 +
STACK CFI INIT 4da94 44 .cfa: sp 0 +
STACK CFI INIT 4dad8 e8 .cfa: sp 0 +
STACK CFI INIT 4dbc0 e8 .cfa: sp 0 +
STACK CFI INIT 4dca8 14 .cfa: sp 0 +
STACK CFI INIT 4dcbc 10 .cfa: sp 0 +
STACK CFI INIT 4dccc 10 .cfa: sp 0 +
STACK CFI INIT 4dcdc f0 .cfa: sp 0 +
STACK CFI INIT 4ddcc 44 .cfa: sp 0 +
STACK CFI INIT 4de10 c .cfa: sp 0 +
STACK CFI INIT 4de1c c .cfa: sp 0 +
STACK CFI INIT 4de28 2c .cfa: sp 0 +
STACK CFI INIT 4de54 280 .cfa: sp 0 +
STACK CFI INIT 4e0d4 c .cfa: sp 0 +
STACK CFI INIT 4e0e0 120 .cfa: sp 0 +
STACK CFI INIT 4e200 488 .cfa: sp 0 +
STACK CFI INIT 4e688 c48 .cfa: sp 0 +
STACK CFI INIT 4f2d0 134 .cfa: sp 0 +
STACK CFI INIT 4f404 210 .cfa: sp 0 +
STACK CFI INIT 4f614 38c .cfa: sp 0 +
STACK CFI INIT 4f9a0 1c8 .cfa: sp 0 +
STACK CFI INIT 4fb68 9bc .cfa: sp 0 +
STACK CFI INIT 50524 2d4 .cfa: sp 0 +
STACK CFI INIT 507f8 134 .cfa: sp 0 +
STACK CFI INIT 5092c 120 .cfa: sp 0 +
STACK CFI INIT 50a4c 1c8 .cfa: sp 0 +
STACK CFI INIT 50c14 168 .cfa: sp 0 +
STACK CFI INIT 50d7c fc .cfa: sp 0 +
STACK CFI INIT 50e78 30 .cfa: sp 0 +
STACK CFI INIT 50fe0 30 .cfa: sp 0 +
STACK CFI INIT 51010 98 .cfa: sp 0 +
STACK CFI INIT 510a8 59c .cfa: sp 0 +
STACK CFI INIT 51644 8c .cfa: sp 0 +
STACK CFI INIT 516d0 30 .cfa: sp 0 +
STACK CFI INIT 51b80 1c .cfa: sp 0 +
STACK CFI INIT 51ee0 50 .cfa: sp 0 +
STACK CFI 51ee4 .cfa: sp 32 +
STACK CFI 51eec .cfa: x29 32 + x19: .cfa -16 + ^ .ra: .cfa -24 + ^ x29: .cfa -32 + ^
STACK CFI 51f04 .cfa: sp 32 +
STACK CFI 51f0c .cfa: sp 0 +
STACK CFI 51f10 .cfa: x29 32 +
STACK CFI 51f24 .cfa: sp 32 +
STACK CFI 51f2c .cfa: sp 0 +
STACK CFI INIT 51fa4 7c .cfa: sp 0 +
STACK CFI 51fa8 .cfa: sp 48 +
STACK CFI 51fb4 .cfa: x29 48 + x19: .cfa -8 + ^ x20: .cfa -16 + ^ x21: .cfa -32 + ^ .ra: .cfa -40 + ^ x29: .cfa -48 + ^
STACK CFI 52000 .cfa: sp 48 +
STACK CFI 5200c .cfa: sp 0 +
STACK CFI 52010 .cfa: sp 48 +
STACK CFI 5201c .cfa: sp 0 +
STACK CFI INIT 52020 4 .cfa: sp 0 +
STACK CFI INIT 52024 10 .cfa: sp 0 +
STACK CFI 52028 .cfa: sp 16 +
STACK CFI 5202c .cfa: x29 16 + .ra: .cfa -8 + ^ x29: .cfa -16 + ^
STACK CFI INIT 52188 34 .cfa: sp 0 +
STACK CFI 5218c .cfa: sp 16 +
STACK CFI 52190 .cfa: x29 16 + .ra: .cfa -8 + ^ x29: .cfa -16 + ^
STACK CFI INIT 522e8 80 .cfa: sp 0 +
STACK CFI 522ec .cfa: sp 48 +
STACK CFI 522f8 .cfa: x29 48 + x19: .cfa -8 + ^ x20: .cfa -16 + ^ x21: .cfa -32 + ^ .ra: .cfa -40 + ^ x29: .cfa -48 + ^
STACK CFI 52358 .cfa: sp 48 +
STACK CFI 52364 .cfa: sp 0 +
STACK CFI INIT 52368 24 .cfa: sp 0 +
STACK CFI 5236c .cfa: sp 32 +
STACK CFI 52374 .cfa: x29 32 + x19: .cfa -16 + ^ .ra: .cfa -24 + ^ x29: .cfa -32 + ^
STACK CFI 52380 .cfa: sp 32 +
STACK CFI 52388 .cfa: sp 0 +
STACK CFI INIT 5270c 14 .cfa: sp 0 +
STACK CFI 52710 .cfa: sp 16 +
STACK CFI 52714 .cfa: x29 16 + .ra: .cfa -8 + ^ x29: .cfa -16 + ^
STACK CFI INIT 52770 30 .cfa: sp 0 +
STACK CFI 52774 .cfa: sp 32 +
STACK CFI 5277c .cfa: x29 32 + x19: .cfa -16 + ^ .ra: .cfa -24 + ^ x29: .cfa -32 + ^
STACK CFI 52794 .cfa: sp 32 +
STACK CFI 5279c .cfa: sp 0 +
STACK CFI INIT 527a0 34 .cfa: sp 0 +
STACK CFI 527a4 .cfa: sp 32 +
STACK CFI 527ac .cfa: x29 32 + x19: .cfa -16 + ^ .ra: .cfa -24 + ^ x29: .cfa -32 + ^
STACK CFI INIT 5294c 148 .cfa: sp 0 +
STACK CFI 52950 .cfa: sp 48 +
STACK CFI 5295c .cfa: x29 48 + x19: .cfa -8 + ^ x20: .cfa -16 + ^ x21: .cfa -32 + ^ .ra: .cfa -40 + ^ x29: .cfa -48 + ^
STACK CFI 52a84 .cfa: sp 48 +
STACK CFI 52a90 .cfa: sp 0 +
STACK CFI INIT 52cbc 80 .cfa: sp 0 +
STACK CFI 52cc0 .cfa: sp 48 +
STACK CFI 52ccc .cfa: x29 48 + x19: .cfa -8 + ^ x20: .cfa -16 + ^ x21: .cfa -24 + ^ x22: .cfa -32 + ^ .ra: .cfa -40 + ^ x29: .cfa -48 + ^
STACK CFI 52ce4 .cfa: sp 48 +
STACK CFI 52cf0 .cfa: sp 0 +
STACK CFI 52cf4 .cfa: x29 48 +
STACK CFI 52d24 .cfa: sp 48 +
STACK CFI 52d30 .cfa: sp 0 +
STACK CFI 52d34 .cfa: x29 48 +
STACK CFI INIT 52d3c 68 .cfa: sp 0 +
STACK CFI 52d40 .cfa: sp 32 +
STACK CFI 52d48 .cfa: x29 32 + x19: .cfa -8 + ^ x20: .cfa -16 + ^ .ra: .cfa -24 + ^ x29: .cfa -32 + ^
STACK CFI 52d60 .cfa: sp 32 +
STACK CFI 52d68 .cfa: sp 0 +
STACK CFI 52d6c .cfa: x29 32 +
STACK CFI 52d98 .cfa: sp 32 +
STACK CFI 52da0 .cfa: sp 0 +
STACK CFI INIT 52da4 14 .cfa: sp 0 +
STACK CFI 52da8 .cfa: sp 16 +
STACK CFI 52dac .cfa: x29 16 + .ra: .cfa -8 + ^ x29: .cfa -16 + ^
STACK CFI INIT 52db8 4 .cfa: sp 0 +
STACK CFI INIT 52dbc 14 .cfa: sp 0 +
STACK CFI INIT 52dd0 120 .cfa: sp 0 +
STACK CFI 52dd4 .cfa: sp 64 +
STACK CFI 52de4 .cfa: x29 64 + x19: .cfa -8 + ^ x20: .cfa -16 + ^ x21: .cfa -24 + ^ x22: .cfa -32 + ^ x23: .cfa -40 + ^ x24: .cfa -48 + ^ .ra: .cfa -56 + ^ x29: .cfa -64 + ^
STACK CFI 52edc .cfa: sp 64 +
STACK CFI 52eec .cfa: sp 0 +
STACK CFI INIT 52ef0 d4 .cfa: sp 0 +
STACK CFI 52ef4 .cfa: sp 48 +
STACK CFI 52f00 .cfa: x29 48 + x19: .cfa -8 + ^ x20: .cfa -16 + ^ x21: .cfa -32 + ^ .ra: .cfa -40 + ^ x29: .cfa -48 + ^
STACK CFI 52f90 .cfa: sp 48 +
STACK CFI 52f9c .cfa: sp 0 +
STACK CFI 52fa0 .cfa: x29 48 +
STACK CFI INIT 52fc4 3c8 .cfa: sp 0 +
STACK CFI INIT 5338c 8c .cfa: sp 0 +
STACK CFI 53394 .cfa: sp 32 +
STACK CFI 5339c .cfa: x29 32 + x19: .cfa -8 + ^ x20: .cfa -16 + ^ .ra: .cfa -24 + ^ x29: .cfa -32 + ^
STACK CFI 533e4 .cfa: sp 32 +
STACK CFI 533ec .cfa: sp 0 +
STACK CFI 533f4 .cfa: x29 32 +
STACK CFI INIT 53418 4 .cfa: sp 0 +
STACK CFI INIT 5341c 50 .cfa: sp 0 +
STACK CFI 53420 .cfa: sp 32 +
STACK CFI 53428 .cfa: x29 32 + x19: .cfa -16 + ^ .ra: .cfa -24 + ^ x29: .cfa -32 + ^
STACK CFI 53440 .cfa: sp 32 +
STACK CFI 53448 .cfa: sp 0 +
STACK CFI 5344c .cfa: x29 32 +
STACK CFI 53460 .cfa: sp 32 +
STACK CFI 53468 .cfa: sp 0 +
STACK CFI INIT 5346c 64 .cfa: sp 0 +
STACK CFI 53470 .cfa: sp 32 +
STACK CFI 53478 .cfa: x29 32 + x19: .cfa -16 + ^ .ra: .cfa -24 + ^ x29: .cfa -32 + ^
STACK CFI 534a4 .cfa: sp 32 +
STACK CFI 534ac .cfa: sp 0 +
STACK CFI 534b0 .cfa: x29 32 +
STACK CFI 534c4 .cfa: sp 32 +
STACK CFI 534cc .cfa: sp 0 +
STACK CFI INIT 55df4 178 .cfa: sp 0 +
STACK CFI 55df8 .cfa: sp 80 +
STACK CFI 55e0c .cfa: x29 80 + x19: .cfa -8 + ^ x20: .cfa -16 + ^ x21: .cfa -24 + ^ x22: .cfa -32 + ^ x23: .cfa -40 + ^ x24: .cfa -48 + ^ x25: .cfa -56 + ^ x26: .cfa -64 + ^ .ra: .cfa -72 + ^ x29: .cfa -80 + ^
STACK CFI 55f54 .cfa: sp 80 +
STACK CFI 55f68 .cfa: sp 0 +
STACK CFI INIT 55f6c 1b0 .cfa: sp 0 +
STACK CFI INIT 5659c 1c .cfa: sp 0 +
STACK CFI INIT 568dc 4 .cfa: sp 0 +
STACK CFI INIT 569f4 18 .cfa: sp 0 +
STACK CFI INIT 56e8c 1c .cfa: sp 0 +
STACK CFI INIT 57208 4 .cfa: sp 0 +
STACK CFI INIT 575bc 1c .cfa: sp 0 +
STACK CFI INIT 57a58 1c .cfa: sp 0 +
STACK CFI INIT 5809c 4 .cfa: sp 0 +
STACK CFI INIT 58770 140 .cfa: sp 0 +
STACK CFI 58774 .cfa: sp 80 +
STACK CFI 58784 .cfa: x29 48 + x19: .cfa -8 + ^ x20: .cfa -16 + ^ x21: .cfa -24 + ^ x22: .cfa -32 + ^ .ra: .cfa -40 + ^ x29: .cfa -48 + ^
STACK CFI 58898 .cfa: sp 80 +
STACK CFI 588a8 .cfa: sp 0 +
STACK CFI 588ac .cfa: x29 48 +
STACK CFI INIT 58b04 98 .cfa: sp 0 +
STACK CFI 58b08 .cfa: sp 304 +
STACK CFI 58b14 .cfa: x29 32 + x19: .cfa -8 + ^ x28: .cfa -16 + ^ .ra: .cfa -24 + ^ x29: .cfa -32 + ^
STACK CFI 58b88 .cfa: sp 304 +
STACK CFI 58b94 .cfa: sp 0 +
STACK CFI 58b98 .cfa: x29 32 +
STACK CFI INIT 58b9c 54 .cfa: sp 0 +
STACK CFI 58ba0 .cfa: sp 32 +
STACK CFI 58ba8 .cfa: x29 32 + x19: .cfa -8 + ^ x20: .cfa -16 + ^ .ra: .cfa -24 + ^ x29: .cfa -32 + ^
STACK CFI 58be4 .cfa: sp 32 +
STACK CFI 58bec .cfa: sp 0 +
STACK CFI INIT 58bf0 68 .cfa: sp 0 +
STACK CFI 58bf4 .cfa: sp 48 +
STACK CFI 58c00 .cfa: x29 48 + x19: .cfa -8 + ^ x20: .cfa -16 + ^ x21: .cfa -32 + ^ .ra: .cfa -40 + ^ x29: .cfa -48 + ^
STACK CFI 58c38 .cfa: sp 48 +
STACK CFI 58c44 .cfa: sp 0 +
STACK CFI 58c48 .cfa: sp 48 +
STACK CFI 58c54 .cfa: sp 0 +
STACK CFI INIT 58c58 7c .cfa: sp 0 +
STACK CFI 58c5c .cfa: sp 48 +
STACK CFI 58c68 .cfa: x29 48 + x19: .cfa -8 + ^ x20: .cfa -16 + ^ x21: .cfa -24 + ^ x22: .cfa -32 + ^ .ra: .cfa -40 + ^ x29: .cfa -48 + ^
STACK CFI 58c70 .cfa: sp 48 +
STACK CFI 58c7c .cfa: sp 0 +
STACK CFI 58c80 .cfa: x29 48 +
STACK CFI 58cc4 .cfa: sp 48 +
STACK CFI 58cd0 .cfa: sp 0 +
STACK CFI INIT 58cd4 1c .cfa: sp 0 +
STACK CFI INIT 59170 1c .cfa: sp 0 +
STACK CFI INIT 59494 4 .cfa: sp 0 +
STACK CFI INIT 597f4 30 .cfa: sp 0 +
STACK CFI 597f8 .cfa: sp 32 +
STACK CFI 59800 .cfa: x29 32 + x19: .cfa -16 + ^ .ra: .cfa -24 + ^ x29: .cfa -32 + ^
STACK CFI 59818 .cfa: sp 32 +
STACK CFI 59820 .cfa: sp 0 +
STACK CFI INIT 59ca4 1c .cfa: sp 0 +
STACK CFI INIT 5a08c 4 .cfa: sp 0 +
STACK CFI INIT 5a090 11c .cfa: sp 0 +
STACK CFI 5a094 .cfa: sp 32 +
STACK CFI 5a09c .cfa: x29 32 + x19: .cfa -8 + ^ x20: .cfa -16 + ^ .ra: .cfa -24 + ^ x29: .cfa -32 + ^
STACK CFI 5a1a0 .cfa: sp 32 +
STACK CFI 5a1a8 .cfa: sp 0 +
STACK CFI INIT 5a1ac 14 .cfa: sp 0 +
STACK CFI 5a1b0 .cfa: sp 16 +
STACK CFI 5a1b4 .cfa: x29 16 + .ra: .cfa -8 + ^ x29: .cfa -16 + ^
STACK CFI INIT 5a640 1c .cfa: sp 0 +
STACK CFI INIT 5bae0 4 .cfa: sp 0 +
STACK CFI INIT 5bae4 4 .cfa: sp 0 +
STACK CFI INIT 5bbc0 94 .cfa: sp 0 +
STACK CFI INIT 5bc54 8 .cfa: sp 0 +
STACK CFI INIT 5bc5c a8 .cfa: sp 0 +
STACK CFI INIT 5c51c 1a0 .cfa: sp 0 +
STACK CFI 5c520 .cfa: sp 64 +
STACK CFI 5c530 .cfa: x29 64 + x19: .cfa -8 + ^ x20: .cfa -16 + ^ x21: .cfa -24 + ^ x22: .cfa -32 + ^ x23: .cfa -40 + ^ x24: .cfa -48 + ^ .ra: .cfa -56 + ^ x29: .cfa -64 + ^
STACK CFI 5c690 .cfa: sp 64 +
STACK CFI 5c6a0 .cfa: sp 0 +
STACK CFI 5c6a4 .cfa: x29 64 +
STACK CFI INIT 5c6bc 2b8 .cfa: sp 0 +
STACK CFI INIT 5c974 44 .cfa: sp 0 +
STACK CFI 5c97c .cfa: sp 32 +
STACK CFI 5c984 .cfa: x29 32 + x19: .cfa -8 + ^ x20: .cfa -16 + ^ .ra: .cfa -24 + ^ x29: .cfa -32 + ^
STACK CFI 5c9a8 .cfa: sp 32 +
STACK CFI 5c9b0 .cfa: sp 0 +
STACK CFI INIT 5cafc 1d0 .cfa: sp 0 +
STACK CFI 5cb00 .cfa: sp 64 +
STACK CFI 5cb10 .cfa: x29 64 + x19: .cfa -8 + ^ x20: .cfa -16 + ^ x21: .cfa -24 + ^ x22: .cfa -32 + ^ x23: .cfa -40 + ^ x24: .cfa -48 + ^ .ra: .cfa -56 + ^ x29: .cfa -64 + ^
STACK CFI 5cca0 .cfa: sp 64 +
STACK CFI 5ccb0 .cfa: sp 0 +
STACK CFI 5ccb4 .cfa: x29 64 +
STACK CFI INIT 5d1e4 280 .cfa: sp 0 +
STACK CFI 5d1e8 .cfa: sp 80 +
STACK CFI 5d1fc .cfa: x29 80 + x19: .cfa -8 + ^ x20: .cfa -16 + ^ x21: .cfa -24 + ^ x22: .cfa -32 + ^ x23: .cfa -40 + ^ x24: .cfa -48 + ^ x25: .cfa -64 + ^ .ra: .cfa -72 + ^ x29: .cfa -80 + ^
STACK CFI 5d434 .cfa: sp 80 +
STACK CFI 5d448 .cfa: sp 0 +
STACK CFI 5d44c .cfa: x29 80 +
STACK CFI INIT 5d464 4c .cfa: sp 0 +
STACK CFI 5d46c .cfa: sp 32 +
STACK CFI 5d474 .cfa: x29 32 + x19: .cfa -8 + ^ x20: .cfa -16 + ^ .ra: .cfa -24 + ^ x29: .cfa -32 + ^
STACK CFI 5d4a0 .cfa: sp 32 +
STACK CFI 5d4a8 .cfa: sp 0 +
STACK CFI INIT 5d4b0 5c .cfa: sp 0 +
STACK CFI 5d4b8 .cfa: sp 32 +
STACK CFI 5d4c0 .cfa: x29 32 + x19: .cfa -8 + ^ x20: .cfa -16 + ^ .ra: .cfa -24 + ^ x29: .cfa -32 + ^
STACK CFI 5d500 .cfa: sp 32 +
STACK CFI 5d508 .cfa: sp 0 +
STACK CFI INIT 5d50c 54 .cfa: sp 0 +
STACK CFI 5d514 .cfa: sp 32 +
STACK CFI 5d51c .cfa: x29 32 + x19: .cfa -8 + ^ x20: .cfa -16 + ^ .ra: .cfa -24 + ^ x29: .cfa -32 + ^
STACK CFI 5d554 .cfa: sp 32 +
STACK CFI 5d55c .cfa: sp 0 +
STACK CFI INIT 5d5c4 54 .cfa: sp 0 +
STACK CFI 5d5cc .cfa: sp 32 +
STACK CFI 5d5d4 .cfa: x29 32 + x19: .cfa -8 + ^ x20: .cfa -16 + ^ .ra: .cfa -24 + ^ x29: .cfa -32 + ^
STACK CFI 5d60c .cfa: sp 32 +
STACK CFI 5d614 .cfa: sp 0 +
STACK CFI INIT 5d9dc 4 .cfa: sp 0 +
STACK CFI INIT 5d9e0 14 .cfa: sp 0 +
STACK CFI INIT 5d9f4 4 .cfa: sp 0 +
STACK CFI INIT 5d9f8 14 .cfa: sp 0 +
STACK CFI INIT 5da0c 4 .cfa: sp 0 +
STACK CFI INIT 5da10 14 .cfa: sp 0 +
STACK CFI INIT 5da24 1c .cfa: sp 0 +
STACK CFI INIT 5dec0 1c .cfa: sp 0 +
STACK CFI INIT 5f0f0 4 .cfa: sp 0 +
STACK CFI INIT 5f348 25c .cfa: sp 0 +
STACK CFI 5f358 .cfa: sp 32 +
STACK CFI 5f360 .cfa: x29 32 + x19: .cfa -16 + ^ .ra: .cfa -24 + ^ x29: .cfa -32 + ^
STACK CFI 5f598 .cfa: sp 32 +
STACK CFI 5f5a0 .cfa: sp 0 +
STACK CFI INIT 5f5a4 30 .cfa: sp 0 +
STACK CFI INIT 5f8b8 1c .cfa: sp 0 +
STACK CFI INIT 5f8d4 1c .cfa: sp 0 +
STACK CFI INIT 5fd70 1c .cfa: sp 0 +
STACK CFI INIT 604ac 4 .cfa: sp 0 +
STACK CFI INIT 60c10 188 .cfa: sp 0 +
STACK CFI 60c14 .cfa: sp 80 +
STACK CFI 60c24 .cfa: x29 48 + x19: .cfa -8 + ^ x20: .cfa -16 + ^ x21: .cfa -24 + ^ x22: .cfa -32 + ^ .ra: .cfa -40 + ^ x29: .cfa -48 + ^
STACK CFI 60d54 .cfa: sp 80 +
STACK CFI 60d64 .cfa: sp 0 +
STACK CFI 60d68 .cfa: x29 48 +
STACK CFI 60d80 .cfa: sp 80 +
STACK CFI 60d90 .cfa: sp 0 +
STACK CFI 60d94 .cfa: x29 48 +
STACK CFI INIT 611d0 b4 .cfa: sp 0 +
STACK CFI 611d4 .cfa: sp 32 +
STACK CFI 611dc .cfa: x29 32 + x19: .cfa -16 + ^ .ra: .cfa -24 + ^ x29: .cfa -32 + ^
STACK CFI 61278 .cfa: sp 32 +
STACK CFI 61280 .cfa: sp 0 +
STACK CFI INIT 61284 78 .cfa: sp 0 +
STACK CFI 61288 .cfa: sp 48 +
STACK CFI 61294 .cfa: x29 48 + x19: .cfa -8 + ^ x20: .cfa -16 + ^ x21: .cfa -32 + ^ .ra: .cfa -40 + ^ x29: .cfa -48 + ^
STACK CFI 612ec .cfa: sp 48 +
STACK CFI 612f8 .cfa: sp 0 +
STACK CFI INIT 612fc 1c .cfa: sp 0 +
STACK CFI INIT 61798 1c .cfa: sp 0 +
STACK CFI INIT 61e4c 4 .cfa: sp 0 +
STACK CFI INIT 61e50 6c .cfa: sp 0 +
STACK CFI INIT 62960 1c .cfa: sp 0 +
STACK CFI INIT 62dfc 1c .cfa: sp 0 +
STACK CFI INIT 64044 4 .cfa: sp 0 +
STACK CFI INIT 64048 bc .cfa: sp 0 +
STACK CFI INIT 64238 13c .cfa: sp 0 +
STACK CFI INIT 64374 14 .cfa: sp 0 +
STACK CFI INIT 64388 13c .cfa: sp 0 +
STACK CFI INIT 6495c 1c .cfa: sp 0 +
STACK CFI INIT 64978 1c .cfa: sp 0 +
STACK CFI INIT 64994 15c .cfa: sp 0 +
STACK CFI INIT 64f70 1c .cfa: sp 0 +
STACK CFI INIT 65594 4 .cfa: sp 0 +
STACK CFI INIT 65b98 4 .cfa: sp 0 +
STACK CFI INIT 65cf4 8c .cfa: sp 0 +
STACK CFI 65cf8 .cfa: sp 48 +
STACK CFI 65d04 .cfa: x29 48 + x19: .cfa -8 + ^ x20: .cfa -16 + ^ x21: .cfa -24 + ^ x22: .cfa -32 + ^ .ra: .cfa -40 + ^ x29: .cfa -48 + ^
STACK CFI 65d0c .cfa: sp 48 +
STACK CFI 65d18 .cfa: sp 0 +
STACK CFI 65d1c .cfa: x29 48 +
STACK CFI 65d70 .cfa: sp 48 +
STACK CFI 65d7c .cfa: sp 0 +
STACK CFI INIT 65d80 60 .cfa: sp 0 +
STACK CFI 65d90 .cfa: sp 32 +
STACK CFI 65d98 .cfa: x29 32 + x19: .cfa -8 + ^ x20: .cfa -16 + ^ .ra: .cfa -24 + ^ x29: .cfa -32 + ^
STACK CFI 65dd4 .cfa: sp 32 +
STACK CFI 65ddc .cfa: sp 0 +
STACK CFI INIT 65de0 14 .cfa: sp 0 +
STACK CFI 65de4 .cfa: sp 16 +
STACK CFI 65de8 .cfa: x29 16 + .ra: .cfa -8 + ^ x29: .cfa -16 + ^
STACK CFI INIT 67a64 4 .cfa: sp 0 +
STACK CFI INIT 67a68 14 .cfa: sp 0 +
STACK CFI INIT 67a7c e8 .cfa: sp 0 +
STACK CFI 67a80 .cfa: sp 32 +
STACK CFI 67a88 .cfa: x29 32 + x19: .cfa -8 + ^ x20: .cfa -16 + ^ .ra: .cfa -24 + ^ x29: .cfa -32 + ^
STACK CFI 67ac8 .cfa: sp 32 +
STACK CFI 67ad0 .cfa: sp 0 +
STACK CFI 67ad4 .cfa: x29 32 +
STACK CFI 67b10 .cfa: sp 32 +
STACK CFI 67b18 .cfa: sp 0 +
STACK CFI 67b1c .cfa: x29 32 +
STACK CFI 67b3c .cfa: sp 32 +
STACK CFI 67b44 .cfa: sp 0 +
STACK CFI 67b48 .cfa: x29 32 +
STACK CFI 67b58 .cfa: sp 32 +
STACK CFI 67b60 .cfa: sp 0 +
STACK CFI INIT 67b64 ac .cfa: sp 0 +
STACK CFI 67b68 .cfa: sp 64 +
STACK CFI 67b78 .cfa: x29 64 + x19: .cfa -8 + ^ x20: .cfa -16 + ^ x21: .cfa -24 + ^ x22: .cfa -32 + ^ x23: .cfa -48 + ^ .ra: .cfa -56 + ^ x29: .cfa -64 + ^
STACK CFI 67bf4 .cfa: sp 64 +
STACK CFI 67c04 .cfa: sp 0 +
STACK CFI 67c08 .cfa: x29 64 +
STACK CFI INIT 67c10 110 .cfa: sp 0 +
STACK CFI 67c14 .cfa: sp 64 +
STACK CFI 67c24 .cfa: x29 64 + x19: .cfa -8 + ^ x20: .cfa -16 + ^ x21: .cfa -24 + ^ x22: .cfa -32 + ^ x23: .cfa -40 + ^ x24: .cfa -48 + ^ .ra: .cfa -56 + ^ x29: .cfa -64 + ^
STACK CFI 67d04 .cfa: sp 64 +
STACK CFI 67d14 .cfa: sp 0 +
STACK CFI 67d18 .cfa: x29 64 +
STACK CFI INIT 68224 8c .cfa: sp 0 +
STACK CFI 68228 .cfa: sp 48 +
STACK CFI 68234 .cfa: x29 48 + x19: .cfa -8 + ^ x20: .cfa -16 + ^ x21: .cfa -32 + ^ .ra: .cfa -40 + ^ x29: .cfa -48 + ^
STACK CFI 6828c .cfa: sp 48 +
STACK CFI 68298 .cfa: sp 0 +
STACK CFI 6829c .cfa: x29 48 +
STACK CFI 682a0 .cfa: sp 48 +
STACK CFI 682ac .cfa: sp 0 +
STACK CFI INIT 68324 4 .cfa: sp 0 +
STACK CFI INIT 68328 14 .cfa: sp 0 +
STACK CFI INIT 6833c 1c .cfa: sp 0 +
STACK CFI INIT 687d8 1c .cfa: sp 0 +
STACK CFI INIT 690b0 4 .cfa: sp 0 +
STACK CFI INIT 69fe8 1c .cfa: sp 0 +
STACK CFI 69fec .cfa: sp 16 +
STACK CFI 69ff0 .cfa: x29 16 + .ra: .cfa -8 + ^ x29: .cfa -16 + ^
STACK CFI 69ffc .cfa: sp 16 +
STACK CFI 6a000 .cfa: sp 0 +
STACK CFI INIT 6a488 9c .cfa: sp 0 +
STACK CFI INIT 6a658 1c .cfa: sp 0 +
STACK CFI 6a65c .cfa: sp 16 +
STACK CFI 6a660 .cfa: x29 16 + .ra: .cfa -8 + ^ x29: .cfa -16 + ^
STACK CFI 6a66c .cfa: sp 16 +
STACK CFI 6a670 .cfa: sp 0 +
STACK CFI INIT 6a77c 50 .cfa: sp 0 +
STACK CFI 6a780 .cfa: sp 32 +
STACK CFI 6a788 .cfa: x29 32 + x19: .cfa -16 + ^ .ra: .cfa -24 + ^ x29: .cfa -32 + ^
STACK CFI 6a7a0 .cfa: sp 32 +
STACK CFI 6a7a8 .cfa: sp 0 +
STACK CFI 6a7ac .cfa: x29 32 +
STACK CFI 6a7c0 .cfa: sp 32 +
STACK CFI 6a7c8 .cfa: sp 0 +
STACK CFI INIT 6a7cc 104 .cfa: sp 0 +
STACK CFI 6a7d0 .cfa: sp 64 +
STACK CFI 6a7e0 .cfa: x29 64 + x19: .cfa -8 + ^ x20: .cfa -16 + ^ x21: .cfa -24 + ^ x22: .cfa -32 + ^ x23: .cfa -48 + ^ .ra: .cfa -56 + ^ x29: .cfa -64 + ^
STACK CFI 6a83c .cfa: sp 64 +
STACK CFI 6a84c .cfa: sp 0 +
STACK CFI 6a850 .cfa: x29 64 +
STACK CFI 6a86c .cfa: sp 64 +
STACK CFI 6a87c .cfa: sp 0 +
STACK CFI 6a880 .cfa: x29 64 +
STACK CFI 6a8bc .cfa: sp 64 +
STACK CFI 6a8cc .cfa: sp 0 +
STACK CFI INIT 6aaa4 1c .cfa: sp 0 +
STACK CFI INIT 6af40 1c .cfa: sp 0 +
STACK CFI INIT 6b3dc 1c .cfa: sp 0 +
STACK CFI INIT 6ba00 4 .cfa: sp 0 +
STACK CFI INIT 6ba04 50 .cfa: sp 0 +
STACK CFI 6ba08 .cfa: sp 32 +
STACK CFI 6ba10 .cfa: x29 32 + x19: .cfa -16 + ^ .ra: .cfa -24 + ^ x29: .cfa -32 + ^
STACK CFI 6ba3c .cfa: sp 32 +
STACK CFI 6ba44 .cfa: sp 0 +
STACK CFI 6ba48 .cfa: sp 32 +
STACK CFI 6ba50 .cfa: sp 0 +
STACK CFI INIT 6bbf8 90 .cfa: sp 0 +
STACK CFI 6bbfc .cfa: sp 32 +
STACK CFI 6bc04 .cfa: x29 32 + x19: .cfa -16 + ^ .ra: .cfa -24 + ^ x29: .cfa -32 + ^
STACK CFI 6bc7c .cfa: sp 32 +
STACK CFI 6bc84 .cfa: sp 0 +
STACK CFI INIT 6c544 4 .cfa: sp 0 +
STACK CFI INIT 6c548 e0 .cfa: sp 0 +
STACK CFI 6c54c .cfa: sp 48 +
STACK CFI 6c558 .cfa: x29 48 + x19: .cfa -8 + ^ x20: .cfa -16 + ^ x21: .cfa -24 + ^ x22: .cfa -32 + ^ .ra: .cfa -40 + ^ x29: .cfa -48 + ^
STACK CFI 6c618 .cfa: sp 48 +
STACK CFI 6c624 .cfa: sp 0 +
STACK CFI INIT 6c628 4c .cfa: sp 0 +
STACK CFI 6c62c .cfa: sp 32 +
STACK CFI 6c634 .cfa: x29 32 + x19: .cfa -16 + ^ .ra: .cfa -24 + ^ x29: .cfa -32 + ^
STACK CFI 6c65c .cfa: sp 32 +
STACK CFI 6c664 .cfa: sp 0 +
STACK CFI 6c668 .cfa: sp 32 +
STACK CFI 6c670 .cfa: sp 0 +
STACK CFI INIT 6c674 18c .cfa: sp 0 +
STACK CFI 6c678 .cfa: sp 80 +
STACK CFI 6c688 .cfa: x29 48 + x19: .cfa -8 + ^ x20: .cfa -16 + ^ x21: .cfa -24 + ^ x22: .cfa -32 + ^ .ra: .cfa -40 + ^ x29: .cfa -48 + ^
STACK CFI 6c730 .cfa: sp 80 +
STACK CFI 6c740 .cfa: sp 0 +
STACK CFI 6c744 .cfa: x29 48 +
STACK CFI INIT 6c8a8 9c .cfa: sp 0 +
STACK CFI 6c8ac .cfa: sp 32 +
STACK CFI 6c8b4 .cfa: x29 32 + x19: .cfa -16 + ^ .ra: .cfa -24 + ^ x29: .cfa -32 + ^
STACK CFI 6c938 .cfa: sp 32 +
STACK CFI 6c940 .cfa: sp 0 +
STACK CFI INIT 6cdc4 1c .cfa: sp 0 +
STACK CFI INIT 6e2e4 4 .cfa: sp 0 +
STACK CFI INIT 6e2e8 58 .cfa: sp 0 +
STACK CFI 6e2ec .cfa: sp 48 +
STACK CFI 6e2f8 .cfa: x29 48 + x19: .cfa -8 + ^ x20: .cfa -16 + ^ x21: .cfa -32 + ^ .ra: .cfa -40 + ^ x29: .cfa -48 + ^
STACK CFI 6e330 .cfa: sp 48 +
STACK CFI 6e33c .cfa: sp 0 +
STACK CFI INIT 6e340 58 .cfa: sp 0 +
STACK CFI 6e344 .cfa: sp 32 +
STACK CFI 6e34c .cfa: x29 32 + x19: .cfa -16 + ^ .ra: .cfa -24 + ^ x29: .cfa -32 + ^
STACK CFI 6e38c .cfa: sp 32 +
STACK CFI 6e394 .cfa: sp 0 +
STACK CFI INIT 6e51c 34 .cfa: sp 0 +
STACK CFI 6e520 .cfa: sp 32 +
STACK CFI 6e528 .cfa: x29 32 + x19: .cfa -8 + ^ x20: .cfa -16 + ^ .ra: .cfa -24 + ^ x29: .cfa -32 + ^
STACK CFI 6e544 .cfa: sp 32 +
STACK CFI 6e54c .cfa: sp 0 +
STACK CFI INIT 6e550 34 .cfa: sp 0 +
STACK CFI 6e554 .cfa: sp 32 +
STACK CFI 6e55c .cfa: x29 32 + x19: .cfa -8 + ^ x20: .cfa -16 + ^ .ra: .cfa -24 + ^ x29: .cfa -32 + ^
STACK CFI 6e578 .cfa: sp 32 +
STACK CFI 6e580 .cfa: sp 0 +
STACK CFI INIT 6e584 3c .cfa: sp 0 +
STACK CFI 6e588 .cfa: sp 32 +
STACK CFI 6e590 .cfa: x29 32 + x19: .cfa -16 + ^ .ra: .cfa -24 + ^ x29: .cfa -32 + ^
STACK CFI 6e5b4 .cfa: sp 32 +
STACK CFI 6e5bc .cfa: sp 0 +
STACK CFI INIT 6e5c0 54 .cfa: sp 0 +
STACK CFI 6e5c4 .cfa: sp 32 +
STACK CFI 6e5cc .cfa: x29 32 + x19: .cfa -8 + ^ x20: .cfa -16 + ^ .ra: .cfa -24 + ^ x29: .cfa -32 + ^
STACK CFI 6e608 .cfa: sp 32 +
STACK CFI 6e610 .cfa: sp 0 +
STACK CFI INIT 6e614 34 .cfa: sp 0 +
STACK CFI 6e618 .cfa: sp 32 +
STACK CFI 6e620 .cfa: x29 32 + x19: .cfa -8 + ^ x20: .cfa -16 + ^ .ra: .cfa -24 + ^ x29: .cfa -32 + ^
STACK CFI 6e63c .cfa: sp 32 +
STACK CFI 6e644 .cfa: sp 0 +
STACK CFI INIT 6e648 60 .cfa: sp 0 +
STACK CFI 6e64c .cfa: sp 32 +
STACK CFI 6e654 .cfa: x29 32 + x19: .cfa -8 + ^ x20: .cfa -16 + ^ .ra: .cfa -24 + ^ x29: .cfa -32 + ^
STACK CFI 6e69c .cfa: sp 32 +
STACK CFI 6e6a4 .cfa: sp 0 +
STACK CFI INIT 6e6a8 34 .cfa: sp 0 +
STACK CFI 6e6ac .cfa: sp 32 +
STACK CFI 6e6b4 .cfa: x29 32 + x19: .cfa -8 + ^ x20: .cfa -16 + ^ .ra: .cfa -24 + ^ x29: .cfa -32 + ^
STACK CFI 6e6d0 .cfa: sp 32 +
STACK CFI 6e6d8 .cfa: sp 0 +
STACK CFI INIT 6ed20 4 .cfa: sp 0 +
STACK CFI INIT 6ed24 14 .cfa: sp 0 +
STACK CFI 6ed28 .cfa: sp 16 +
STACK CFI 6ed2c .cfa: x29 16 + .ra: .cfa -8 + ^ x29: .cfa -16 + ^
STACK CFI INIT 6ed38 14 .cfa: sp 0 +
STACK CFI 6ed3c .cfa: sp 16 +
STACK CFI 6ed40 .cfa: x29 16 + .ra: .cfa -8 + ^ x29: .cfa -16 + ^
STACK CFI INIT 6ed4c 14 .cfa: sp 0 +
STACK CFI 6ed50 .cfa: sp 16 +
STACK CFI 6ed54 .cfa: x29 16 + .ra: .cfa -8 + ^ x29: .cfa -16 + ^
STACK CFI INIT 6ed60 14 .cfa: sp 0 +
STACK CFI 6ed64 .cfa: sp 16 +
STACK CFI 6ed68 .cfa: x29 16 + .ra: .cfa -8 + ^ x29: .cfa -16 + ^
STACK CFI INIT 6ed74 4 .cfa: sp 0 +
STACK CFI INIT 6ed78 4 .cfa: sp 0 +
STACK CFI INIT 6ed7c 38 .cfa: sp 0 +
STACK CFI 6ed80 .cfa: sp 32 +
STACK CFI 6ed88 .cfa: x29 32 + x19: .cfa -16 + ^ .ra: .cfa -24 + ^ x29: .cfa -32 + ^
STACK CFI 6eda8 .cfa: sp 32 +
STACK CFI 6edb0 .cfa: sp 0 +
STACK CFI INIT 6edb4 18 .cfa: sp 0 +
STACK CFI INIT 6edcc 4 .cfa: sp 0 +
STACK CFI INIT 6edd0 4 .cfa: sp 0 +
STACK CFI INIT 6edd4 10 .cfa: sp 0 +
STACK CFI INIT 6ede4 1c .cfa: sp 0 +
STACK CFI INIT 6ee00 c .cfa: sp 0 +
STACK CFI INIT 6ee0c 1c .cfa: sp 0 +
STACK CFI INIT 6f2a8 1c .cfa: sp 0 +
STACK CFI INIT 6f648 4 .cfa: sp 0 +
STACK CFI INIT 6f64c 21c .cfa: sp 0 +
STACK CFI 6f650 .cfa: sp 48 +
STACK CFI 6f65c .cfa: x29 48 + x19: .cfa -8 + ^ x20: .cfa -16 + ^ x21: .cfa -32 + ^ .ra: .cfa -40 + ^ x29: .cfa -48 + ^
STACK CFI 6f78c .cfa: sp 48 +
STACK CFI 6f798 .cfa: sp 0 +
STACK CFI 6f79c .cfa: x29 48 +
STACK CFI 6f858 .cfa: sp 48 +
STACK CFI 6f864 .cfa: sp 0 +
STACK CFI INIT 6f868 240 .cfa: sp 0 +
STACK CFI 6f86c .cfa: sp 96 +
STACK CFI 6f884 .cfa: x29 56 + x19: .cfa -8 + ^ x20: .cfa -16 + ^ x21: .cfa -24 + ^ x22: .cfa -32 + ^ x23: .cfa -40 + ^ .ra: .cfa -48 + ^ x29: .cfa -56 + ^ v8: .cfa -64 + ^
STACK CFI 6fa88 .cfa: sp 96 +
STACK CFI 6faa0 .cfa: sp 0 +
STACK CFI 6faa4 .cfa: x29 56 +
STACK CFI INIT 6ff28 1c .cfa: sp 0 +
STACK CFI INIT 70310 4 .cfa: sp 0 +
STACK CFI INIT 70314 40 .cfa: sp 0 +
STACK CFI 70318 .cfa: sp 48 +
STACK CFI 70324 .cfa: x29 48 + x19: .cfa -8 + ^ x20: .cfa -16 + ^ x21: .cfa -32 + ^ .ra: .cfa -40 + ^ x29: .cfa -48 + ^
STACK CFI 70344 .cfa: sp 48 +
STACK CFI 70350 .cfa: sp 0 +
STACK CFI INIT 70354 1c .cfa: sp 0 +
STACK CFI INIT 70370 194 .cfa: sp 0 +
STACK CFI 70374 .cfa: sp 96 +
STACK CFI 7038c .cfa: x29 80 + x19: .cfa -8 + ^ x20: .cfa -16 + ^ x21: .cfa -24 + ^ x22: .cfa -32 + ^ x23: .cfa -40 + ^ x24: .cfa -48 + ^ x25: .cfa -56 + ^ x26: .cfa -64 + ^ .ra: .cfa -72 + ^ x29: .cfa -80 + ^
STACK CFI 704e4 .cfa: sp 96 +
STACK CFI 704fc .cfa: sp 0 +
STACK CFI 70500 .cfa: x29 80 +
STACK CFI INIT 70504 8 .cfa: sp 0 +
STACK CFI INIT 7050c 24 .cfa: sp 0 +
STACK CFI 70510 .cfa: sp 32 +
STACK CFI 70518 .cfa: x29 32 + x19: .cfa -16 + ^ .ra: .cfa -24 + ^ x29: .cfa -32 + ^
STACK CFI 70524 .cfa: sp 32 +
STACK CFI 7052c .cfa: sp 0 +
STACK CFI INIT 70530 8 .cfa: sp 0 +
STACK CFI INIT 70538 28 .cfa: sp 0 +
STACK CFI 7053c .cfa: sp 32 +
STACK CFI 70544 .cfa: x29 32 + x19: .cfa -16 + ^ .ra: .cfa -24 + ^ x29: .cfa -32 + ^
STACK CFI 70554 .cfa: sp 32 +
STACK CFI 7055c .cfa: sp 0 +
STACK CFI INIT 70560 4 .cfa: sp 0 +
STACK CFI INIT 70564 4 .cfa: sp 0 +
STACK CFI INIT 70568 4 .cfa: sp 0 +
STACK CFI INIT 7056c 4 .cfa: sp 0 +
STACK CFI INIT 70af0 84 .cfa: sp 0 +
STACK CFI 70af4 .cfa: sp 32 +
STACK CFI 70afc .cfa: x29 32 + x19: .cfa -8 + ^ x20: .cfa -16 + ^ .ra: .cfa -24 + ^ x29: .cfa -32 + ^
STACK CFI 70b68 .cfa: sp 32 +
STACK CFI 70b70 .cfa: sp 0 +
STACK CFI INIT 70b74 84 .cfa: sp 0 +
STACK CFI 70b78 .cfa: sp 32 +
STACK CFI 70b80 .cfa: x29 32 + x19: .cfa -8 + ^ x20: .cfa -16 + ^ .ra: .cfa -24 + ^ x29: .cfa -32 + ^
STACK CFI 70bec .cfa: sp 32 +
STACK CFI 70bf4 .cfa: sp 0 +
STACK CFI INIT 70bf8 84 .cfa: sp 0 +
STACK CFI 70bfc .cfa: sp 32 +
STACK CFI 70c04 .cfa: x29 32 + x19: .cfa -8 + ^ x20: .cfa -16 + ^ .ra: .cfa -24 + ^ x29: .cfa -32 + ^
STACK CFI 70c70 .cfa: sp 32 +
STACK CFI 70c78 .cfa: sp 0 +
STACK CFI INIT 70c7c 84 .cfa: sp 0 +
STACK CFI 70c80 .cfa: sp 32 +
STACK CFI 70c88 .cfa: x29 32 + x19: .cfa -8 + ^ x20: .cfa -16 + ^ .ra: .cfa -24 + ^ x29: .cfa -32 + ^
STACK CFI 70cf4 .cfa: sp 32 +
STACK CFI 70cfc .cfa: sp 0 +
STACK CFI INIT 70d00 84 .cfa: sp 0 +
STACK CFI 70d04 .cfa: sp 32 +
STACK CFI 70d0c .cfa: x29 32 + x19: .cfa -8 + ^ x20: .cfa -16 + ^ .ra: .cfa -24 + ^ x29: .cfa -32 + ^
STACK CFI 70d78 .cfa: sp 32 +
STACK CFI 70d80 .cfa: sp 0 +
STACK CFI INIT 70d84 84 .cfa: sp 0 +
STACK CFI 70d88 .cfa: sp 32 +
STACK CFI 70d90 .cfa: x29 32 + x19: .cfa -8 + ^ x20: .cfa -16 + ^ .ra: .cfa -24 + ^ x29: .cfa -32 + ^
STACK CFI 70dfc .cfa: sp 32 +
STACK CFI 70e04 .cfa: sp 0 +
STACK CFI INIT 70e08 24 .cfa: sp 0 +
STACK CFI 70e0c .cfa: sp 32 +
STACK CFI 70e14 .cfa: x29 32 + x19: .cfa -16 + ^ .ra: .cfa -24 + ^ x29: .cfa -32 + ^
STACK CFI 70e20 .cfa: sp 32 +
STACK CFI 70e28 .cfa: sp 0 +
STACK CFI INIT 70e2c 4 .cfa: sp 0 +
STACK CFI INIT 70e30 8 .cfa: sp 0 +
STACK CFI INIT 70e38 8 .cfa: sp 0 +
STACK CFI INIT 70e40 28 .cfa: sp 0 +
STACK CFI 70e44 .cfa: sp 32 +
STACK CFI 70e4c .cfa: x29 32 + x19: .cfa -16 + ^ .ra: .cfa -24 + ^ x29: .cfa -32 + ^
STACK CFI 70e5c .cfa: sp 32 +
STACK CFI 70e64 .cfa: sp 0 +
STACK CFI INIT 70e68 4 .cfa: sp 0 +
STACK CFI INIT 70e6c 8 .cfa: sp 0 +
STACK CFI INIT 71d9c c .cfa: sp 0 +
STACK CFI INIT 71da8 2c8 .cfa: sp 0 +
STACK CFI 71dac .cfa: sp 96 +
STACK CFI 71dc0 .cfa: x29 64 + x19: .cfa -8 + ^ x20: .cfa -16 + ^ x21: .cfa -24 + ^ x22: .cfa -32 + ^ x23: .cfa -48 + ^ .ra: .cfa -56 + ^ x29: .cfa -64 + ^
STACK CFI 71f60 .cfa: sp 96 +
STACK CFI 71f74 .cfa: sp 0 +
STACK CFI 71f78 .cfa: x29 64 +
STACK CFI 71ff0 .cfa: sp 96 +
STACK CFI 72004 .cfa: sp 0 +
STACK CFI 72008 .cfa: x29 64 +
STACK CFI INIT 72070 84 .cfa: sp 0 +
STACK CFI 72074 .cfa: sp 32 +
STACK CFI 7207c .cfa: x29 32 + x19: .cfa -16 + ^ .ra: .cfa -24 + ^ x29: .cfa -32 + ^
STACK CFI 720dc .cfa: sp 32 +
STACK CFI 720e4 .cfa: sp 0 +
STACK CFI 720e8 .cfa: sp 32 +
STACK CFI 720f0 .cfa: sp 0 +
STACK CFI INIT 720f4 88 .cfa: sp 0 +
STACK CFI 720f8 .cfa: sp 32 +
STACK CFI 72100 .cfa: x29 32 + x19: .cfa -16 + ^ .ra: .cfa -24 + ^ x29: .cfa -32 + ^
STACK CFI 72164 .cfa: sp 32 +
STACK CFI 7216c .cfa: sp 0 +
STACK CFI 72170 .cfa: sp 32 +
STACK CFI 72178 .cfa: sp 0 +
STACK CFI INIT 72748 d8 .cfa: sp 0 +
STACK CFI 7274c .cfa: sp 64 +
STACK CFI 7275c .cfa: x29 32 + x19: .cfa -8 + ^ x20: .cfa -16 + ^ .ra: .cfa -24 + ^ x29: .cfa -32 + ^ v8: .cfa -48 + ^
STACK CFI 72808 .cfa: sp 64 +
STACK CFI 72818 .cfa: sp 0 +
STACK CFI 7281c .cfa: x29 32 +
STACK CFI INIT 72820 d4 .cfa: sp 0 +
STACK CFI 72824 .cfa: sp 64 +
STACK CFI 72834 .cfa: x29 32 + x19: .cfa -8 + ^ x20: .cfa -16 + ^ .ra: .cfa -24 + ^ x29: .cfa -32 + ^ v8: .cfa -48 + ^
STACK CFI 728dc .cfa: sp 64 +
STACK CFI 728ec .cfa: sp 0 +
STACK CFI 728f0 .cfa: x29 32 +
STACK CFI INIT 72b0c 8 .cfa: sp 0 +
STACK CFI INIT 72c5c 24 .cfa: sp 0 +
STACK CFI 72c60 .cfa: sp 32 +
STACK CFI 72c68 .cfa: x29 32 + x19: .cfa -16 + ^ .ra: .cfa -24 + ^ x29: .cfa -32 + ^
STACK CFI 72c74 .cfa: sp 32 +
STACK CFI 72c7c .cfa: sp 0 +
STACK CFI INIT 72c80 8 .cfa: sp 0 +
STACK CFI INIT 72c88 28 .cfa: sp 0 +
STACK CFI 72c8c .cfa: sp 32 +
STACK CFI 72c94 .cfa: x29 32 + x19: .cfa -16 + ^ .ra: .cfa -24 + ^ x29: .cfa -32 + ^
STACK CFI 72ca4 .cfa: sp 32 +
STACK CFI 72cac .cfa: sp 0 +
STACK CFI INIT 72cb0 1c .cfa: sp 0 +
STACK CFI INIT 76c98 10 .cfa: sp 0 +
STACK CFI INIT 76ca8 10 .cfa: sp 0 +
STACK CFI INIT 76cb8 2c0 .cfa: sp 0 +
STACK CFI 76cbc .cfa: sp 64 +
STACK CFI 76ccc .cfa: x29 48 + x19: .cfa -8 + ^ x20: .cfa -16 + ^ x21: .cfa -24 + ^ x22: .cfa -32 + ^ .ra: .cfa -40 + ^ x29: .cfa -48 + ^
STACK CFI 76e68 .cfa: sp 64 +
STACK CFI 76e78 .cfa: sp 0 +
STACK CFI 76e7c .cfa: x29 48 +
STACK CFI INIT 771d8 2c .cfa: sp 0 +
STACK CFI 771dc .cfa: sp 32 +
STACK CFI 771e4 .cfa: x29 32 + x19: .cfa -16 + ^ .ra: .cfa -24 + ^ x29: .cfa -32 + ^
STACK CFI 771f8 .cfa: sp 32 +
STACK CFI 77200 .cfa: sp 0 +
STACK CFI INIT 77204 28 .cfa: sp 0 +
STACK CFI INIT 77454 2c .cfa: sp 0 +
STACK CFI INIT 77a8c 24 .cfa: sp 0 +
STACK CFI 77a90 .cfa: sp 32 +
STACK CFI 77a98 .cfa: x29 32 + x19: .cfa -16 + ^ .ra: .cfa -24 + ^ x29: .cfa -32 + ^
STACK CFI 77aa4 .cfa: sp 32 +
STACK CFI 77aac .cfa: sp 0 +
STACK CFI INIT 77ab0 24 .cfa: sp 0 +
STACK CFI 77ab4 .cfa: sp 16 +
STACK CFI 77ab8 .cfa: x29 16 + .ra: .cfa -8 + ^ x29: .cfa -16 + ^
STACK CFI 77acc .cfa: sp 16 +
STACK CFI 77ad0 .cfa: sp 0 +
STACK CFI INIT 77ad4 4 .cfa: sp 0 +
STACK CFI INIT 77b44 4 .cfa: sp 0 +
STACK CFI INIT 77b48 308 .cfa: sp 0 +
STACK CFI 77b4c .cfa: sp 128 +
STACK CFI 77b64 .cfa: x29 64 + x19: .cfa -8 + ^ x20: .cfa -16 + ^ x21: .cfa -24 + ^ x22: .cfa -32 + ^ x23: .cfa -48 + ^ .ra: .cfa -56 + ^ x29: .cfa -64 + ^ v8: .cfa -72 + ^ v9: .cfa -80 + ^
STACK CFI 77d98 .cfa: sp 128 +
STACK CFI 77db0 .cfa: sp 0 +
STACK CFI 77db4 .cfa: x29 64 +
STACK CFI INIT 77e50 60 .cfa: sp 0 +
STACK CFI 77e54 .cfa: sp 32 +
STACK CFI 77e5c .cfa: x29 32 + x19: .cfa -8 + ^ x20: .cfa -16 + ^ .ra: .cfa -24 + ^ x29: .cfa -32 + ^
STACK CFI 77e7c .cfa: sp 32 +
STACK CFI 77e84 .cfa: sp 0 +
STACK CFI 77e88 .cfa: x29 32 +
STACK CFI 77ea4 .cfa: sp 32 +
STACK CFI 77eac .cfa: sp 0 +
STACK CFI INIT 77eb0 70 .cfa: sp 0 +
STACK CFI 77eb4 .cfa: sp 32 +
STACK CFI 77ebc .cfa: x29 32 + x19: .cfa -8 + ^ x20: .cfa -16 + ^ .ra: .cfa -24 + ^ x29: .cfa -32 + ^
STACK CFI 77ee4 .cfa: sp 32 +
STACK CFI 77eec .cfa: sp 0 +
STACK CFI 77ef0 .cfa: x29 32 +
STACK CFI 77f14 .cfa: sp 32 +
STACK CFI 77f1c .cfa: sp 0 +
STACK CFI INIT 77f20 10 .cfa: sp 0 +
STACK CFI INIT 77f30 30 .cfa: sp 0 +
STACK CFI 77f34 .cfa: sp 32 +
STACK CFI 77f3c .cfa: x29 32 + x19: .cfa -16 + ^ .ra: .cfa -24 + ^ x29: .cfa -32 + ^
STACK CFI 77f54 .cfa: sp 32 +
STACK CFI 77f5c .cfa: sp 0 +
STACK CFI INIT 77f60 4 .cfa: sp 0 +
STACK CFI INIT 77f64 4 .cfa: sp 0 +
STACK CFI INIT 78e08 c .cfa: sp 0 +
STACK CFI INIT 78ea8 a8 .cfa: sp 0 +
STACK CFI 78eac .cfa: sp 48 +
STACK CFI 78eb8 .cfa: x29 48 + x19: .cfa -8 + ^ x20: .cfa -16 + ^ x21: .cfa -32 + ^ .ra: .cfa -40 + ^ x29: .cfa -48 + ^
STACK CFI 78f40 .cfa: sp 48 +
STACK CFI 78f4c .cfa: sp 0 +
STACK CFI INIT 78f50 108 .cfa: sp 0 +
STACK CFI 78f54 .cfa: sp 48 +
STACK CFI 78f60 .cfa: x29 48 + x19: .cfa -8 + ^ x20: .cfa -16 + ^ x21: .cfa -32 + ^ .ra: .cfa -40 + ^ x29: .cfa -48 + ^
STACK CFI 79048 .cfa: sp 48 +
STACK CFI 79054 .cfa: sp 0 +
STACK CFI INIT 79058 a8 .cfa: sp 0 +
STACK CFI 7905c .cfa: sp 48 +
STACK CFI 79068 .cfa: x29 48 + x19: .cfa -8 + ^ x20: .cfa -16 + ^ x21: .cfa -32 + ^ .ra: .cfa -40 + ^ x29: .cfa -48 + ^
STACK CFI 790f0 .cfa: sp 48 +
STACK CFI 790fc .cfa: sp 0 +
STACK CFI INIT 79768 1c .cfa: sp 0 +
STACK CFI 7976c .cfa: sp 16 +
STACK CFI 79770 .cfa: x29 16 + .ra: .cfa -8 + ^ x29: .cfa -16 + ^
STACK CFI 7977c .cfa: sp 16 +
STACK CFI 79780 .cfa: sp 0 +
STACK CFI INIT 79784 1c .cfa: sp 0 +
STACK CFI 79788 .cfa: sp 16 +
STACK CFI 7978c .cfa: x29 16 + .ra: .cfa -8 + ^ x29: .cfa -16 + ^
STACK CFI 79798 .cfa: sp 16 +
STACK CFI 7979c .cfa: sp 0 +
STACK CFI INIT 797a0 24 .cfa: sp 0 +
STACK CFI 797a4 .cfa: sp 32 +
STACK CFI 797ac .cfa: x29 32 + x19: .cfa -16 + ^ .ra: .cfa -24 + ^ x29: .cfa -32 + ^
STACK CFI 797b8 .cfa: sp 32 +
STACK CFI 797c0 .cfa: sp 0 +
STACK CFI INIT 797c4 8 .cfa: sp 0 +
STACK CFI INIT 797cc 28 .cfa: sp 0 +
STACK CFI 797d0 .cfa: sp 32 +
STACK CFI 797d8 .cfa: x29 32 + x19: .cfa -16 + ^ .ra: .cfa -24 + ^ x29: .cfa -32 + ^
STACK CFI 797e8 .cfa: sp 32 +
STACK CFI 797f0 .cfa: sp 0 +
STACK CFI INIT 797f4 1c .cfa: sp 0 +
STACK CFI INIT 79cd8 c .cfa: sp 0 +
STACK CFI INIT 79ce4 40 .cfa: sp 0 +
STACK CFI 79ce8 .cfa: sp 32 +
STACK CFI 79cf0 .cfa: x29 32 + x19: .cfa -16 + ^ .ra: .cfa -24 + ^ x29: .cfa -32 + ^
STACK CFI 79d18 .cfa: sp 32 +
STACK CFI 79d20 .cfa: sp 0 +
STACK CFI INIT 79d24 40 .cfa: sp 0 +
STACK CFI 79d28 .cfa: sp 32 +
STACK CFI 79d30 .cfa: x29 32 + x19: .cfa -16 + ^ .ra: .cfa -24 + ^ x29: .cfa -32 + ^
STACK CFI 79d58 .cfa: sp 32 +
STACK CFI 79d60 .cfa: sp 0 +
STACK CFI INIT 79d64 40 .cfa: sp 0 +
STACK CFI 79d68 .cfa: sp 32 +
STACK CFI 79d70 .cfa: x29 32 + x19: .cfa -16 + ^ .ra: .cfa -24 + ^ x29: .cfa -32 + ^
STACK CFI 79d98 .cfa: sp 32 +
STACK CFI 79da0 .cfa: sp 0 +
STACK CFI INIT 7d8e8 24 .cfa: sp 0 +
STACK CFI 7d8ec .cfa: sp 32 +
STACK CFI 7d8f4 .cfa: x29 32 + x19: .cfa -16 + ^ .ra: .cfa -24 + ^ x29: .cfa -32 + ^
STACK CFI 7d900 .cfa: sp 32 +
STACK CFI 7d908 .cfa: sp 0 +
STACK CFI INIT 7d90c 8 .cfa: sp 0 +
STACK CFI INIT 7d914 28 .cfa: sp 0 +
STACK CFI 7d918 .cfa: sp 32 +
STACK CFI 7d920 .cfa: x29 32 + x19: .cfa -16 + ^ .ra: .cfa -24 + ^ x29: .cfa -32 + ^
STACK CFI 7d930 .cfa: sp 32 +
STACK CFI 7d938 .cfa: sp 0 +
STACK CFI INIT 7df44 24 .cfa: sp 0 +
STACK CFI 7df48 .cfa: sp 32 +
STACK CFI 7df50 .cfa: x29 32 + x19: .cfa -16 + ^ .ra: .cfa -24 + ^ x29: .cfa -32 + ^
STACK CFI 7df5c .cfa: sp 32 +
STACK CFI 7df64 .cfa: sp 0 +
STACK CFI INIT 7df68 1c .cfa: sp 0 +
STACK CFI INIT 8039c c .cfa: sp 0 +
STACK CFI INIT 803a8 44 .cfa: sp 0 +
STACK CFI 803ac .cfa: sp 32 +
STACK CFI 803b4 .cfa: x29 32 + x19: .cfa -8 + ^ x20: .cfa -16 + ^ .ra: .cfa -24 + ^ x29: .cfa -32 + ^
STACK CFI 803e0 .cfa: sp 32 +
STACK CFI 803e8 .cfa: sp 0 +
STACK CFI INIT 803ec 50 .cfa: sp 0 +
STACK CFI 803f0 .cfa: sp 32 +
STACK CFI 803f8 .cfa: x29 32 + x19: .cfa -8 + ^ x20: .cfa -16 + ^ .ra: .cfa -24 + ^ x29: .cfa -32 + ^
STACK CFI 80430 .cfa: sp 32 +
STACK CFI 80438 .cfa: sp 0 +
STACK CFI INIT 80674 190 .cfa: sp 0 +
STACK CFI 80678 .cfa: sp 64 +
STACK CFI 80688 .cfa: x29 64 + x19: .cfa -8 + ^ x20: .cfa -16 + ^ x21: .cfa -24 + ^ x22: .cfa -32 + ^ x23: .cfa -48 + ^ .ra: .cfa -56 + ^ x29: .cfa -64 + ^
STACK CFI 80778 .cfa: sp 64 +
STACK CFI 80788 .cfa: sp 0 +
STACK CFI 8078c .cfa: x29 64 +
STACK CFI 807f0 .cfa: sp 64 +
STACK CFI 80800 .cfa: sp 0 +
STACK CFI INIT 80804 44 .cfa: sp 0 +
STACK CFI 80808 .cfa: sp 32 +
STACK CFI 80810 .cfa: x29 32 + x19: .cfa -8 + ^ x20: .cfa -16 + ^ .ra: .cfa -24 + ^ x29: .cfa -32 + ^
STACK CFI 8083c .cfa: sp 32 +
STACK CFI 80844 .cfa: sp 0 +
STACK CFI INIT 80848 44 .cfa: sp 0 +
STACK CFI 8084c .cfa: sp 32 +
STACK CFI 80854 .cfa: x29 32 + x19: .cfa -8 + ^ x20: .cfa -16 + ^ .ra: .cfa -24 + ^ x29: .cfa -32 + ^
STACK CFI 80880 .cfa: sp 32 +
STACK CFI 80888 .cfa: sp 0 +
STACK CFI INIT 8088c 54 .cfa: sp 0 +
STACK CFI 80890 .cfa: sp 32 +
STACK CFI 80898 .cfa: x29 32 + x19: .cfa -8 + ^ x20: .cfa -16 + ^ .ra: .cfa -24 + ^ x29: .cfa -32 + ^
STACK CFI 808d4 .cfa: sp 32 +
STACK CFI 808dc .cfa: sp 0 +
STACK CFI INIT 808e0 54 .cfa: sp 0 +
STACK CFI 808e4 .cfa: sp 32 +
STACK CFI 808ec .cfa: x29 32 + x19: .cfa -8 + ^ x20: .cfa -16 + ^ .ra: .cfa -24 + ^ x29: .cfa -32 + ^
STACK CFI 80928 .cfa: sp 32 +
STACK CFI 80930 .cfa: sp 0 +
STACK CFI INIT 80934 54 .cfa: sp 0 +
STACK CFI 80938 .cfa: sp 32 +
STACK CFI 80940 .cfa: x29 32 + x19: .cfa -8 + ^ x20: .cfa -16 + ^ .ra: .cfa -24 + ^ x29: .cfa -32 + ^
STACK CFI 8097c .cfa: sp 32 +
STACK CFI 80984 .cfa: sp 0 +
STACK CFI INIT 80988 54 .cfa: sp 0 +
STACK CFI 8098c .cfa: sp 32 +
STACK CFI 80994 .cfa: x29 32 + x19: .cfa -16 + ^ .ra: .cfa -24 + ^ x29: .cfa -32 + ^
STACK CFI 809d0 .cfa: sp 32 +
STACK CFI 809d8 .cfa: sp 0 +
STACK CFI INIT 809dc 54 .cfa: sp 0 +
STACK CFI 809e0 .cfa: sp 32 +
STACK CFI 809e8 .cfa: x29 32 + x19: .cfa -16 + ^ .ra: .cfa -24 + ^ x29: .cfa -32 + ^
STACK CFI 80a24 .cfa: sp 32 +
STACK CFI 80a2c .cfa: sp 0 +
STACK CFI INIT 80a30 1d8 .cfa: sp 0 +
STACK CFI 80a34 .cfa: sp 32 +
STACK CFI 80a3c .cfa: x29 32 + x19: .cfa -16 + ^ .ra: .cfa -24 + ^ x29: .cfa -32 + ^
STACK CFI 80b28 .cfa: sp 32 +
STACK CFI 80b30 .cfa: sp 0 +
STACK CFI 80b34 .cfa: x29 32 +
STACK CFI 80bfc .cfa: sp 32 +
STACK CFI 80c04 .cfa: sp 0 +
STACK CFI INIT 80c08 12c .cfa: sp 0 +
STACK CFI 80c0c .cfa: sp 80 +
STACK CFI 80c1c .cfa: x29 48 + x19: .cfa -8 + ^ x20: .cfa -16 + ^ x21: .cfa -24 + ^ x22: .cfa -32 + ^ .ra: .cfa -40 + ^ x29: .cfa -48 + ^
STACK CFI 80d1c .cfa: sp 80 +
STACK CFI 80d2c .cfa: sp 0 +
STACK CFI 80d30 .cfa: x29 48 +
STACK CFI INIT 80d34 48 .cfa: sp 0 +
STACK CFI 80d38 .cfa: sp 32 +
STACK CFI 80d40 .cfa: x29 32 + x19: .cfa -8 + ^ x20: .cfa -16 + ^ .ra: .cfa -24 + ^ x29: .cfa -32 + ^
STACK CFI 80d70 .cfa: sp 32 +
STACK CFI 80d78 .cfa: sp 0 +
STACK CFI INIT 80d7c 320 .cfa: sp 0 +
STACK CFI 80d80 .cfa: sp 96 +
STACK CFI 80d98 .cfa: x29 64 + x19: .cfa -8 + ^ x20: .cfa -16 + ^ x21: .cfa -24 + ^ x22: .cfa -32 + ^ x23: .cfa -48 + ^ .ra: .cfa -56 + ^ x29: .cfa -64 + ^ v8: .cfa -72 + ^ v9: .cfa -80 + ^
STACK CFI 8107c .cfa: sp 96 +
STACK CFI 81094 .cfa: sp 0 +
STACK CFI 81098 .cfa: x29 64 +
STACK CFI INIT 8109c a0 .cfa: sp 0 +
STACK CFI 810a0 .cfa: sp 48 +
STACK CFI 810ac .cfa: x29 48 + x19: .cfa -8 + ^ x20: .cfa -16 + ^ x21: .cfa -32 + ^ .ra: .cfa -40 + ^ x29: .cfa -48 + ^
STACK CFI 8112c .cfa: sp 48 +
STACK CFI 81138 .cfa: sp 0 +
STACK CFI INIT 8113c 8 .cfa: sp 0 +
STACK CFI INIT 81270 24 .cfa: sp 0 +
STACK CFI 81274 .cfa: sp 32 +
STACK CFI 8127c .cfa: x29 32 + x19: .cfa -16 + ^ .ra: .cfa -24 + ^ x29: .cfa -32 + ^
STACK CFI 81288 .cfa: sp 32 +
STACK CFI 81290 .cfa: sp 0 +
STACK CFI INIT 81294 8 .cfa: sp 0 +
STACK CFI INIT 8129c 28 .cfa: sp 0 +
STACK CFI 812a0 .cfa: sp 32 +
STACK CFI 812a8 .cfa: x29 32 + x19: .cfa -16 + ^ .ra: .cfa -24 + ^ x29: .cfa -32 + ^
STACK CFI 812b8 .cfa: sp 32 +
STACK CFI 812c0 .cfa: sp 0 +
STACK CFI INIT 812c4 1c .cfa: sp 0 +
STACK CFI INIT 822a0 c .cfa: sp 0 +
STACK CFI INIT 822ac 270 .cfa: sp 0 +
STACK CFI 822b0 .cfa: sp 96 +
STACK CFI 822c8 .cfa: x29 56 + x19: .cfa -8 + ^ x20: .cfa -16 + ^ x21: .cfa -24 + ^ x22: .cfa -32 + ^ x23: .cfa -40 + ^ .ra: .cfa -48 + ^ x29: .cfa -56 + ^ v8: .cfa -64 + ^
STACK CFI 824fc .cfa: sp 96 +
STACK CFI 82514 .cfa: sp 0 +
STACK CFI 82518 .cfa: x29 56 +
STACK CFI INIT 85030 5d8 .cfa: sp 0 +
STACK CFI 85034 .cfa: sp 176 +
STACK CFI 8505c .cfa: x29 96 + x19: .cfa -8 + ^ x20: .cfa -16 + ^ x21: .cfa -24 + ^ x22: .cfa -32 + ^ x23: .cfa -40 + ^ x24: .cfa -48 + ^ x25: .cfa -56 + ^ x26: .cfa -64 + ^ x27: .cfa -72 + ^ x28: .cfa -80 + ^ .ra: .cfa -88 + ^ x29: .cfa -96 + ^ v8: .cfa -104 + ^ v9: .cfa -112 + ^ v10: .cfa -120 + ^ v11: .cfa -128 + ^ v12: .cfa -136 + ^ v13: .cfa -144 + ^
STACK CFI 855d8 .cfa: sp 176 +
STACK CFI 85600 .cfa: sp 0 +
STACK CFI 85604 .cfa: x29 96 +
STACK CFI INIT 85608 1c8 .cfa: sp 0 +
STACK CFI 8560c .cfa: sp 208 +
STACK CFI 8562c .cfa: x29 96 + x19: .cfa -8 + ^ x20: .cfa -16 + ^ x21: .cfa -24 + ^ x22: .cfa -32 + ^ x23: .cfa -40 + ^ x24: .cfa -48 + ^ x25: .cfa -56 + ^ x26: .cfa -64 + ^ x27: .cfa -72 + ^ x28: .cfa -80 + ^ .ra: .cfa -88 + ^ x29: .cfa -96 + ^ v8: .cfa -112 + ^
STACK CFI 857ac .cfa: sp 208 +
STACK CFI 857cc .cfa: sp 0 +
STACK CFI INIT 859d4 40 .cfa: sp 0 +
STACK CFI 859d8 .cfa: sp 32 +
STACK CFI 859e0 .cfa: x29 32 + x19: .cfa -16 + ^ .ra: .cfa -24 + ^ x29: .cfa -32 + ^
STACK CFI 85a08 .cfa: sp 32 +
STACK CFI 85a10 .cfa: sp 0 +
STACK CFI INIT 85a14 18 .cfa: sp 0 +
STACK CFI INIT 85a2c 18 .cfa: sp 0 +
STACK CFI INIT 85a44 18 .cfa: sp 0 +
STACK CFI INIT 85b28 30 .cfa: sp 0 +
STACK CFI 85b2c .cfa: sp 16 +
STACK CFI 85b30 .cfa: x29 16 + .ra: .cfa -8 + ^ x29: .cfa -16 + ^
STACK CFI 85b50 .cfa: sp 16 +
STACK CFI 85b54 .cfa: sp 0 +
STACK CFI INIT 88170 a4 .cfa: sp 0 +
STACK CFI 88174 .cfa: sp 80 +
STACK CFI 88184 .cfa: x29 48 + x19: .cfa -8 + ^ x20: .cfa -16 + ^ x21: .cfa -32 + ^ .ra: .cfa -40 + ^ x29: .cfa -48 + ^
STACK CFI 881fc .cfa: sp 80 +
STACK CFI 8820c .cfa: sp 0 +
STACK CFI 88210 .cfa: x29 48 +
STACK CFI INIT 88214 e0 .cfa: sp 0 +
STACK CFI 88218 .cfa: sp 80 +
STACK CFI 88228 .cfa: x29 48 + x19: .cfa -8 + ^ x20: .cfa -16 + ^ x21: .cfa -32 + ^ .ra: .cfa -40 + ^ x29: .cfa -48 + ^
STACK CFI 882dc .cfa: sp 80 +
STACK CFI 882ec .cfa: sp 0 +
STACK CFI 882f0 .cfa: x29 48 +
STACK CFI INIT 8839c 4 .cfa: sp 0 +
STACK CFI INIT 884b4 54 .cfa: sp 0 +
STACK CFI 884b8 .cfa: sp 32 +
STACK CFI 884c0 .cfa: x29 32 + x19: .cfa -16 + ^ .ra: .cfa -24 + ^ x29: .cfa -32 + ^
STACK CFI 884fc .cfa: sp 32 +
STACK CFI 88504 .cfa: sp 0 +
STACK CFI INIT 88508 5c .cfa: sp 0 +
STACK CFI 8850c .cfa: sp 32 +
STACK CFI 88514 .cfa: x29 32 + x19: .cfa -16 + ^ .ra: .cfa -24 + ^ x29: .cfa -32 + ^
STACK CFI 88558 .cfa: sp 32 +
STACK CFI 88560 .cfa: sp 0 +
STACK CFI INIT 88564 54 .cfa: sp 0 +
STACK CFI 88568 .cfa: sp 32 +
STACK CFI 88570 .cfa: x29 32 + x19: .cfa -16 + ^ .ra: .cfa -24 + ^ x29: .cfa -32 + ^
STACK CFI 885ac .cfa: sp 32 +
STACK CFI 885b4 .cfa: sp 0 +
STACK CFI INIT 885b8 5c .cfa: sp 0 +
STACK CFI 885bc .cfa: sp 32 +
STACK CFI 885c4 .cfa: x29 32 + x19: .cfa -16 + ^ .ra: .cfa -24 + ^ x29: .cfa -32 + ^
STACK CFI 88608 .cfa: sp 32 +
STACK CFI 88610 .cfa: sp 0 +
STACK CFI INIT 88860 14 .cfa: sp 0 +
STACK CFI 88864 .cfa: sp 16 +
STACK CFI 88868 .cfa: x29 16 + .ra: .cfa -8 + ^ x29: .cfa -16 + ^
STACK CFI INIT 88874 128 .cfa: sp 0 +
STACK CFI 88878 .cfa: sp 80 +
STACK CFI 8888c .cfa: x29 80 + x19: .cfa -8 + ^ x20: .cfa -16 + ^ x21: .cfa -24 + ^ x22: .cfa -32 + ^ x23: .cfa -40 + ^ x24: .cfa -48 + ^ x25: .cfa -64 + ^ .ra: .cfa -72 + ^ x29: .cfa -80 + ^
STACK CFI 8897c .cfa: sp 80 +
STACK CFI 88990 .cfa: sp 0 +
STACK CFI 88994 .cfa: x29 80 +
STACK CFI INIT 8899c 34 .cfa: sp 0 +
STACK CFI 889a0 .cfa: sp 32 +
STACK CFI 889a8 .cfa: x29 32 + x19: .cfa -8 + ^ x20: .cfa -16 + ^ .ra: .cfa -24 + ^ x29: .cfa -32 + ^
STACK CFI 889c4 .cfa: sp 32 +
STACK CFI 889cc .cfa: sp 0 +
STACK CFI INIT 88dbc 1c .cfa: sp 0 +
STACK CFI INIT 88f1c b0 .cfa: sp 0 +
STACK CFI 88f20 .cfa: sp 64 +
STACK CFI 88f30 .cfa: x29 64 + x19: .cfa -8 + ^ x20: .cfa -16 + ^ x21: .cfa -24 + ^ x22: .cfa -32 + ^ x23: .cfa -40 + ^ x24: .cfa -48 + ^ .ra: .cfa -56 + ^ x29: .cfa -64 + ^
STACK CFI 88fa4 .cfa: sp 64 +
STACK CFI 88fb4 .cfa: sp 0 +
STACK CFI 88fb8 .cfa: sp 64 +
STACK CFI 88fc8 .cfa: sp 0 +
STACK CFI INIT 89b7c c .cfa: sp 0 +
STACK CFI INIT 89b88 120 .cfa: sp 0 +
STACK CFI 89b8c .cfa: sp 64 +
STACK CFI 89b9c .cfa: x29 48 + x19: .cfa -8 + ^ x20: .cfa -16 + ^ x21: .cfa -32 + ^ .ra: .cfa -40 + ^ x29: .cfa -48 + ^
STACK CFI 89c90 .cfa: sp 64 +
STACK CFI 89ca0 .cfa: sp 0 +
STACK CFI 89ca4 .cfa: x29 48 +
STACK CFI INIT 92950 a0 .cfa: sp 0 +
STACK CFI 92954 .cfa: sp 80 +
STACK CFI 92964 .cfa: x29 48 + x19: .cfa -8 + ^ x20: .cfa -16 + ^ x21: .cfa -32 + ^ .ra: .cfa -40 + ^ x29: .cfa -48 + ^
STACK CFI 929d8 .cfa: sp 80 +
STACK CFI 929e8 .cfa: sp 0 +
STACK CFI 929ec .cfa: x29 48 +
STACK CFI INIT 929f0 98 .cfa: sp 0 +
STACK CFI 929f4 .cfa: sp 96 +
STACK CFI 92a04 .cfa: x29 48 + x19: .cfa -8 + ^ x20: .cfa -16 + ^ x21: .cfa -24 + ^ x22: .cfa -32 + ^ .ra: .cfa -40 + ^ x29: .cfa -48 + ^
STACK CFI 92a70 .cfa: sp 96 +
STACK CFI 92a80 .cfa: sp 0 +
STACK CFI 92a84 .cfa: x29 48 +
STACK CFI INIT 92bc8 24 .cfa: sp 0 +
STACK CFI 92bcc .cfa: sp 32 +
STACK CFI 92bd4 .cfa: x29 32 + x19: .cfa -16 + ^ .ra: .cfa -24 + ^ x29: .cfa -32 + ^
STACK CFI 92be0 .cfa: sp 32 +
STACK CFI 92be8 .cfa: sp 0 +
STACK CFI INIT 92bec 8 .cfa: sp 0 +
STACK CFI INIT 92bf4 28 .cfa: sp 0 +
STACK CFI 92bf8 .cfa: sp 32 +
STACK CFI 92c00 .cfa: x29 32 + x19: .cfa -16 + ^ .ra: .cfa -24 + ^ x29: .cfa -32 + ^
STACK CFI 92c10 .cfa: sp 32 +
STACK CFI 92c18 .cfa: sp 0 +
STACK CFI INIT 92c1c cc .cfa: sp 0 +
STACK CFI 92c20 .cfa: sp 80 +
STACK CFI 92c34 .cfa: x29 80 + x19: .cfa -8 + ^ x20: .cfa -16 + ^ x21: .cfa -24 + ^ x22: .cfa -32 + ^ x23: .cfa -40 + ^ x24: .cfa -48 + ^ x25: .cfa -64 + ^ .ra: .cfa -72 + ^ x29: .cfa -80 + ^
STACK CFI 92c3c .cfa: sp 80 +
STACK CFI 92c50 .cfa: sp 0 +
STACK CFI 92c54 .cfa: x29 80 +
STACK CFI 92cd0 .cfa: sp 80 +
STACK CFI 92ce4 .cfa: sp 0 +
STACK CFI INIT 92ce8 14 .cfa: sp 0 +
STACK CFI 92cec .cfa: sp 16 +
STACK CFI 92cf0 .cfa: x29 16 + .ra: .cfa -8 + ^ x29: .cfa -16 + ^
STACK CFI INIT 92cfc 98 .cfa: sp 0 +
STACK CFI 92d0c .cfa: sp 64 +
STACK CFI 92d1c .cfa: x29 64 + x19: .cfa -8 + ^ x20: .cfa -16 + ^ x21: .cfa -24 + ^ x22: .cfa -32 + ^ x23: .cfa -48 + ^ .ra: .cfa -56 + ^ x29: .cfa -64 + ^
STACK CFI 92d80 .cfa: sp 64 +
STACK CFI 92d90 .cfa: sp 0 +
STACK CFI INIT 92eb0 14 .cfa: sp 0 +
STACK CFI 92eb4 .cfa: sp 16 +
STACK CFI 92eb8 .cfa: x29 16 + .ra: .cfa -8 + ^ x29: .cfa -16 + ^
STACK CFI INIT 9a5dc 1c .cfa: sp 0 +
STACK CFI INIT 9aa78 1c .cfa: sp 0 +
STACK CFI INIT 9af14 1c .cfa: sp 0 +
STACK CFI INIT 9af30 1c .cfa: sp 0 +
STACK CFI INIT 9af4c 1c .cfa: sp 0 +
STACK CFI INIT 9af68 4 .cfa: sp 0 +
STACK CFI INIT 9b0e0 5c .cfa: sp 0 +
STACK CFI 9b0e4 .cfa: sp 32 +
STACK CFI 9b0ec .cfa: x29 32 + x19: .cfa -16 + ^ .ra: .cfa -24 + ^ x29: .cfa -32 + ^
STACK CFI 9b130 .cfa: sp 32 +
STACK CFI 9b138 .cfa: sp 0 +
STACK CFI INIT 9b13c 64 .cfa: sp 0 +
STACK CFI 9b140 .cfa: sp 32 +
STACK CFI 9b148 .cfa: x29 32 + x19: .cfa -16 + ^ .ra: .cfa -24 + ^ x29: .cfa -32 + ^
STACK CFI 9b194 .cfa: sp 32 +
STACK CFI 9b19c .cfa: sp 0 +
STACK CFI INIT 9b1a0 4 .cfa: sp 0 +
STACK CFI INIT 9b1a4 4 .cfa: sp 0 +
STACK CFI INIT 9b1a8 34 .cfa: sp 0 +
STACK CFI 9b1ac .cfa: sp 32 +
STACK CFI 9b1b4 .cfa: x29 32 + x19: .cfa -16 + ^ .ra: .cfa -24 + ^ x29: .cfa -32 + ^
STACK CFI 9b1d0 .cfa: sp 32 +
STACK CFI 9b1d8 .cfa: sp 0 +
STACK CFI INIT 9b1dc 14 .cfa: sp 0 +
STACK CFI INIT 9b1f0 4 .cfa: sp 0 +
STACK CFI INIT 9b1f4 4 .cfa: sp 0 +
STACK CFI INIT 9b1f8 10 .cfa: sp 0 +
STACK CFI INIT 9b208 1c .cfa: sp 0 +
STACK CFI INIT 9b224 c .cfa: sp 0 +
STACK CFI INIT 9b594 4 .cfa: sp 0 +
STACK CFI INIT 9bb00 4 .cfa: sp 0 +
STACK CFI INIT 9c218 4 .cfa: sp 0 +
STACK CFI INIT 9c8fc 4 .cfa: sp 0 +
STACK CFI INIT 9c900 150 .cfa: sp 0 +
STACK CFI 9c904 .cfa: sp 32 +
STACK CFI 9c90c .cfa: x29 32 + x19: .cfa -8 + ^ x20: .cfa -16 + ^ .ra: .cfa -24 + ^ x29: .cfa -32 + ^
STACK CFI 9ca44 .cfa: sp 32 +
STACK CFI 9ca4c .cfa: sp 0 +
STACK CFI INIT 9caf8 88 .cfa: sp 0 +
STACK CFI 9cafc .cfa: sp 32 +
STACK CFI 9cb04 .cfa: x29 32 + x19: .cfa -16 + ^ .ra: .cfa -24 + ^ x29: .cfa -32 + ^
STACK CFI 9cb74 .cfa: sp 32 +
STACK CFI 9cb7c .cfa: sp 0 +
STACK CFI INIT 9cf08 4 .cfa: sp 0 +
STACK CFI INIT 9cf0c bc .cfa: sp 0 +
STACK CFI 9cf10 .cfa: sp 32 +
STACK CFI 9cf18 .cfa: x29 32 + x19: .cfa -16 + ^ .ra: .cfa -24 + ^ x29: .cfa -32 + ^
STACK CFI 9cfbc .cfa: sp 32 +
STACK CFI 9cfc4 .cfa: sp 0 +
STACK CFI INIT 9e0b8 2c .cfa: sp 0 +
STACK CFI 9e0bc .cfa: sp 32 +
STACK CFI 9e0c4 .cfa: x29 32 + x19: .cfa -16 + ^ .ra: .cfa -24 + ^ x29: .cfa -32 + ^
STACK CFI 9e0d8 .cfa: sp 32 +
STACK CFI 9e0e0 .cfa: sp 0 +
STACK CFI INIT 9e354 2c .cfa: sp 0 +
STACK CFI 9e358 .cfa: sp 32 +
STACK CFI 9e360 .cfa: x29 32 + x19: .cfa -16 + ^ .ra: .cfa -24 + ^ x29: .cfa -32 + ^
STACK CFI 9e374 .cfa: sp 32 +
STACK CFI 9e37c .cfa: sp 0 +
STACK CFI INIT 9e380 28 .cfa: sp 0 +
STACK CFI INIT 9e5d0 2c .cfa: sp 0 +
STACK CFI INIT 9e5fc 4 .cfa: sp 0 +
STACK CFI INIT 9e66c 4 .cfa: sp 0 +
STACK CFI INIT 9e670 304 .cfa: sp 0 +
STACK CFI 9e674 .cfa: sp 144 +
STACK CFI 9e690 .cfa: x29 80 + x19: .cfa -8 + ^ x20: .cfa -16 + ^ x21: .cfa -24 + ^ x22: .cfa -32 + ^ x23: .cfa -40 + ^ x24: .cfa -48 + ^ x25: .cfa -64 + ^ .ra: .cfa -72 + ^ x29: .cfa -80 + ^ v8: .cfa -88 + ^ v9: .cfa -96 + ^
STACK CFI 9e950 .cfa: sp 144 +
STACK CFI 9e96c .cfa: sp 0 +
STACK CFI 9e970 .cfa: x29 80 +
STACK CFI INIT 9e974 60 .cfa: sp 0 +
STACK CFI 9e978 .cfa: sp 32 +
STACK CFI 9e980 .cfa: x29 32 + x19: .cfa -8 + ^ x20: .cfa -16 + ^ .ra: .cfa -24 + ^ x29: .cfa -32 + ^
STACK CFI 9e9a0 .cfa: sp 32 +
STACK CFI 9e9a8 .cfa: sp 0 +
STACK CFI 9e9ac .cfa: x29 32 +
STACK CFI 9e9c8 .cfa: sp 32 +
STACK CFI 9e9d0 .cfa: sp 0 +
STACK CFI INIT 9e9d4 70 .cfa: sp 0 +
STACK CFI 9e9d8 .cfa: sp 32 +
STACK CFI 9e9e0 .cfa: x29 32 + x19: .cfa -8 + ^ x20: .cfa -16 + ^ .ra: .cfa -24 + ^ x29: .cfa -32 + ^
STACK CFI 9ea08 .cfa: sp 32 +
STACK CFI 9ea10 .cfa: sp 0 +
STACK CFI 9ea14 .cfa: x29 32 +
STACK CFI 9ea38 .cfa: sp 32 +
STACK CFI 9ea40 .cfa: sp 0 +
STACK CFI INIT 9ea44 10 .cfa: sp 0 +
STACK CFI INIT 9ea54 30 .cfa: sp 0 +
STACK CFI 9ea58 .cfa: sp 32 +
STACK CFI 9ea60 .cfa: x29 32 + x19: .cfa -16 + ^ .ra: .cfa -24 + ^ x29: .cfa -32 + ^
STACK CFI 9ea78 .cfa: sp 32 +
STACK CFI 9ea80 .cfa: sp 0 +
STACK CFI INIT 9ea84 4 .cfa: sp 0 +
STACK CFI INIT 9ea88 4 .cfa: sp 0 +
STACK CFI INIT a004c 20 .cfa: sp 0 +
STACK CFI a0050 .cfa: sp 16 +
STACK CFI a0054 .cfa: x29 16 + .ra: .cfa -8 + ^ x29: .cfa -16 + ^
STACK CFI a0064 .cfa: sp 16 +
STACK CFI a0068 .cfa: sp 0 +
STACK CFI INIT a0798 2c .cfa: sp 0 +
STACK CFI a079c .cfa: sp 32 +
STACK CFI a07a4 .cfa: x29 32 + x19: .cfa -16 + ^ .ra: .cfa -24 + ^ x29: .cfa -32 + ^
STACK CFI a07b8 .cfa: sp 32 +
STACK CFI a07c0 .cfa: sp 0 +
STACK CFI INIT a07c4 28 .cfa: sp 0 +
STACK CFI INIT a0a14 2c .cfa: sp 0 +
STACK CFI INIT a0a40 4 .cfa: sp 0 +
STACK CFI INIT a0ab0 4 .cfa: sp 0 +
STACK CFI INIT a0ab4 314 .cfa: sp 0 +
STACK CFI a0ab8 .cfa: sp 128 +
STACK CFI a0ad0 .cfa: x29 64 + x19: .cfa -8 + ^ x20: .cfa -16 + ^ x21: .cfa -24 + ^ x22: .cfa -32 + ^ x23: .cfa -40 + ^ x24: .cfa -48 + ^ .ra: .cfa -56 + ^ x29: .cfa -64 + ^ v8: .cfa -72 + ^ v9: .cfa -80 + ^
STACK CFI a0d0c .cfa: sp 128 +
STACK CFI a0d24 .cfa: sp 0 +
STACK CFI a0d28 .cfa: x29 64 +
STACK CFI INIT a0dc8 60 .cfa: sp 0 +
STACK CFI a0dcc .cfa: sp 32 +
STACK CFI a0dd4 .cfa: x29 32 + x19: .cfa -8 + ^ x20: .cfa -16 + ^ .ra: .cfa -24 + ^ x29: .cfa -32 + ^
STACK CFI a0df4 .cfa: sp 32 +
STACK CFI a0dfc .cfa: sp 0 +
STACK CFI a0e00 .cfa: x29 32 +
STACK CFI a0e1c .cfa: sp 32 +
STACK CFI a0e24 .cfa: sp 0 +
STACK CFI INIT a0e28 70 .cfa: sp 0 +
STACK CFI a0e2c .cfa: sp 32 +
STACK CFI a0e34 .cfa: x29 32 + x19: .cfa -8 + ^ x20: .cfa -16 + ^ .ra: .cfa -24 + ^ x29: .cfa -32 + ^
STACK CFI a0e5c .cfa: sp 32 +
STACK CFI a0e64 .cfa: sp 0 +
STACK CFI a0e68 .cfa: x29 32 +
STACK CFI a0e8c .cfa: sp 32 +
STACK CFI a0e94 .cfa: sp 0 +
STACK CFI INIT a0e98 10 .cfa: sp 0 +
STACK CFI INIT a0ea8 30 .cfa: sp 0 +
STACK CFI a0eac .cfa: sp 32 +
STACK CFI a0eb4 .cfa: x29 32 + x19: .cfa -16 + ^ .ra: .cfa -24 + ^ x29: .cfa -32 + ^
STACK CFI a0ecc .cfa: sp 32 +
STACK CFI a0ed4 .cfa: sp 0 +
STACK CFI INIT a0ed8 4 .cfa: sp 0 +
STACK CFI INIT a0edc 4 .cfa: sp 0 +
STACK CFI INIT a0ee0 1c .cfa: sp 0 +
STACK CFI INIT a1254 64 .cfa: sp 0 +
STACK CFI a1258 .cfa: sp 32 +
STACK CFI a1260 .cfa: x29 32 + x19: .cfa -16 + ^ .ra: .cfa -24 + ^ x29: .cfa -32 + ^
STACK CFI a12ac .cfa: sp 32 +
STACK CFI a12b4 .cfa: sp 0 +
STACK CFI INIT a151c 2c .cfa: sp 0 +
STACK CFI a1520 .cfa: sp 32 +
STACK CFI a1528 .cfa: x29 32 + x19: .cfa -16 + ^ .ra: .cfa -24 + ^ x29: .cfa -32 + ^
STACK CFI a153c .cfa: sp 32 +
STACK CFI a1544 .cfa: sp 0 +
STACK CFI INIT a1548 28 .cfa: sp 0 +
STACK CFI INIT a1650 2c .cfa: sp 0 +
STACK CFI INIT a167c 4 .cfa: sp 0 +
STACK CFI INIT a1834 4 .cfa: sp 0 +
STACK CFI INIT a1838 60 .cfa: sp 0 +
STACK CFI a183c .cfa: sp 32 +
STACK CFI a1844 .cfa: x29 32 + x19: .cfa -8 + ^ x20: .cfa -16 + ^ .ra: .cfa -24 + ^ x29: .cfa -32 + ^
STACK CFI a1864 .cfa: sp 32 +
STACK CFI a186c .cfa: sp 0 +
STACK CFI a1870 .cfa: x29 32 +
STACK CFI a188c .cfa: sp 32 +
STACK CFI a1894 .cfa: sp 0 +
STACK CFI INIT a1898 70 .cfa: sp 0 +
STACK CFI a189c .cfa: sp 32 +
STACK CFI a18a4 .cfa: x29 32 + x19: .cfa -8 + ^ x20: .cfa -16 + ^ .ra: .cfa -24 + ^ x29: .cfa -32 + ^
STACK CFI a18cc .cfa: sp 32 +
STACK CFI a18d4 .cfa: sp 0 +
STACK CFI a18d8 .cfa: x29 32 +
STACK CFI a18fc .cfa: sp 32 +
STACK CFI a1904 .cfa: sp 0 +
STACK CFI INIT a1908 10 .cfa: sp 0 +
STACK CFI INIT a1918 30 .cfa: sp 0 +
STACK CFI a191c .cfa: sp 32 +
STACK CFI a1924 .cfa: x29 32 + x19: .cfa -16 + ^ .ra: .cfa -24 + ^ x29: .cfa -32 + ^
STACK CFI a193c .cfa: sp 32 +
STACK CFI a1944 .cfa: sp 0 +
STACK CFI INIT a1948 4 .cfa: sp 0 +
STACK CFI INIT a194c 4 .cfa: sp 0 +
STACK CFI INIT a1950 304 .cfa: sp 0 +
STACK CFI a1954 .cfa: sp 144 +
STACK CFI a1970 .cfa: x29 80 + x19: .cfa -8 + ^ x20: .cfa -16 + ^ x21: .cfa -24 + ^ x22: .cfa -32 + ^ x23: .cfa -40 + ^ x24: .cfa -48 + ^ x25: .cfa -64 + ^ .ra: .cfa -72 + ^ x29: .cfa -80 + ^ v8: .cfa -88 + ^ v9: .cfa -96 + ^
STACK CFI a1c30 .cfa: sp 144 +
STACK CFI a1c4c .cfa: sp 0 +
STACK CFI a1c50 .cfa: x29 80 +
STACK CFI INIT a3394 164 .cfa: sp 0 +
STACK CFI a3398 .cfa: sp 16 +
STACK CFI a339c .cfa: x29 16 + .ra: .cfa -8 + ^ x29: .cfa -16 + ^
STACK CFI a33d8 .cfa: sp 16 +
STACK CFI a33dc .cfa: sp 0 +
STACK CFI a33e0 .cfa: x29 16 +
STACK CFI a340c .cfa: sp 16 +
STACK CFI a3410 .cfa: sp 0 +
STACK CFI a3414 .cfa: x29 16 +
STACK CFI a3438 .cfa: sp 16 +
STACK CFI a343c .cfa: sp 0 +
STACK CFI a3440 .cfa: x29 16 +
STACK CFI a3464 .cfa: sp 16 +
STACK CFI a3468 .cfa: sp 0 +
STACK CFI a346c .cfa: x29 16 +
STACK CFI a3480 .cfa: sp 16 +
STACK CFI a3484 .cfa: sp 0 +
STACK CFI a3488 .cfa: x29 16 +
STACK CFI a349c .cfa: sp 16 +
STACK CFI a34a0 .cfa: sp 0 +
STACK CFI a34a4 .cfa: x29 16 +
STACK CFI a34b8 .cfa: sp 16 +
STACK CFI a34bc .cfa: sp 0 +
STACK CFI a34c0 .cfa: x29 16 +
STACK CFI a34d4 .cfa: sp 16 +
STACK CFI a34d8 .cfa: sp 0 +
STACK CFI a34dc .cfa: x29 16 +
STACK CFI a34f0 .cfa: sp 16 +
STACK CFI a34f4 .cfa: sp 0 +
STACK CFI INIT a3874 78 .cfa: sp 0 +
STACK CFI a3878 .cfa: sp 48 +
STACK CFI a3884 .cfa: x29 48 + x19: .cfa -8 + ^ x20: .cfa -16 + ^ x21: .cfa -32 + ^ .ra: .cfa -40 + ^ x29: .cfa -48 + ^
STACK CFI a38cc .cfa: sp 48 +
STACK CFI a38d8 .cfa: sp 0 +
STACK CFI a38dc .cfa: sp 48 +
STACK CFI a38e8 .cfa: sp 0 +
STACK CFI INIT a637c 14 .cfa: sp 0 +
STACK CFI a6380 .cfa: sp 16 +
STACK CFI a6384 .cfa: x29 16 + .ra: .cfa -8 + ^ x29: .cfa -16 + ^
STACK CFI INIT a6390 14 .cfa: sp 0 +
STACK CFI a6394 .cfa: sp 16 +
STACK CFI a6398 .cfa: x29 16 + .ra: .cfa -8 + ^ x29: .cfa -16 + ^
STACK CFI INIT a67e8 294 .cfa: sp 0 +
STACK CFI a67ec .cfa: sp 64 +
STACK CFI a67fc .cfa: x29 64 + x19: .cfa -8 + ^ x20: .cfa -16 + ^ x21: .cfa -24 + ^ x22: .cfa -32 + ^ x23: .cfa -40 + ^ x24: .cfa -48 + ^ .ra: .cfa -56 + ^ x29: .cfa -64 + ^
STACK CFI a699c .cfa: sp 64 +
STACK CFI a69ac .cfa: sp 0 +
STACK CFI a69b0 .cfa: x29 64 +
STACK CFI a6a68 .cfa: sp 64 +
STACK CFI a6a78 .cfa: sp 0 +
STACK CFI INIT ad158 3c .cfa: sp 0 +
STACK CFI ad15c .cfa: sp 32 +
STACK CFI ad164 .cfa: x29 32 + x19: .cfa -16 + ^ .ra: .cfa -24 + ^ x29: .cfa -32 + ^
STACK CFI ad170 .cfa: sp 32 +
STACK CFI ad178 .cfa: sp 0 +
STACK CFI ad17c .cfa: x29 32 +
STACK CFI ad188 .cfa: sp 32 +
STACK CFI ad190 .cfa: sp 0 +
STACK CFI INIT ad194 3c .cfa: sp 0 +
STACK CFI ad198 .cfa: sp 32 +
STACK CFI ad1a0 .cfa: x29 32 + x19: .cfa -16 + ^ .ra: .cfa -24 + ^ x29: .cfa -32 + ^
STACK CFI ad1ac .cfa: sp 32 +
STACK CFI ad1b4 .cfa: sp 0 +
STACK CFI ad1b8 .cfa: x29 32 +
STACK CFI ad1c4 .cfa: sp 32 +
STACK CFI ad1cc .cfa: sp 0 +
STACK CFI INIT ad1d0 4c .cfa: sp 0 +
STACK CFI ad1d4 .cfa: sp 32 +
STACK CFI ad1dc .cfa: x29 32 + x19: .cfa -8 + ^ x20: .cfa -16 + ^ .ra: .cfa -24 + ^ x29: .cfa -32 + ^
STACK CFI ad204 .cfa: sp 32 +
STACK CFI ad20c .cfa: sp 0 +
STACK CFI ad210 .cfa: sp 32 +
STACK CFI ad218 .cfa: sp 0 +
STACK CFI INIT ad43c 64 .cfa: sp 0 +
STACK CFI ad440 .cfa: sp 32 +
STACK CFI ad448 .cfa: x29 32 + x19: .cfa -16 + ^ .ra: .cfa -24 + ^ x29: .cfa -32 + ^
STACK CFI ad474 .cfa: sp 32 +
STACK CFI ad47c .cfa: sp 0 +
STACK CFI ad480 .cfa: x29 32 +
STACK CFI ad494 .cfa: sp 32 +
STACK CFI ad49c .cfa: sp 0 +
STACK CFI INIT ad4a0 24 .cfa: sp 0 +
STACK CFI ad4a4 .cfa: sp 32 +
STACK CFI ad4ac .cfa: x29 32 + x19: .cfa -16 + ^ .ra: .cfa -24 + ^ x29: .cfa -32 + ^
STACK CFI ad4b8 .cfa: sp 32 +
STACK CFI ad4c0 .cfa: sp 0 +
STACK CFI INIT ad720 24 .cfa: sp 0 +
STACK CFI ad724 .cfa: sp 32 +
STACK CFI ad72c .cfa: x29 32 + x19: .cfa -16 + ^ .ra: .cfa -24 + ^ x29: .cfa -32 + ^
STACK CFI ad738 .cfa: sp 32 +
STACK CFI ad740 .cfa: sp 0 +
STACK CFI INIT ad9c8 8 .cfa: sp 0 +
STACK CFI INIT ad9d0 24 .cfa: sp 0 +
STACK CFI ad9d4 .cfa: sp 32 +
STACK CFI ad9dc .cfa: x29 32 + x19: .cfa -16 + ^ .ra: .cfa -24 + ^ x29: .cfa -32 + ^
STACK CFI ad9e8 .cfa: sp 32 +
STACK CFI ad9f0 .cfa: sp 0 +
STACK CFI INIT ad9f4 28 .cfa: sp 0 +
STACK CFI ad9f8 .cfa: sp 32 +
STACK CFI ada00 .cfa: x29 32 + x19: .cfa -16 + ^ .ra: .cfa -24 + ^ x29: .cfa -32 + ^
STACK CFI ada10 .cfa: sp 32 +
STACK CFI ada18 .cfa: sp 0 +
STACK CFI INIT add1c 8 .cfa: sp 0 +
STACK CFI INIT add24 24 .cfa: sp 0 +
STACK CFI add28 .cfa: sp 32 +
STACK CFI add30 .cfa: x29 32 + x19: .cfa -16 + ^ .ra: .cfa -24 + ^ x29: .cfa -32 + ^
STACK CFI add3c .cfa: sp 32 +
STACK CFI add44 .cfa: sp 0 +
STACK CFI INIT add48 28 .cfa: sp 0 +
STACK CFI add4c .cfa: sp 32 +
STACK CFI add54 .cfa: x29 32 + x19: .cfa -16 + ^ .ra: .cfa -24 + ^ x29: .cfa -32 + ^
STACK CFI add64 .cfa: sp 32 +
STACK CFI add6c .cfa: sp 0 +
STACK CFI INIT adfd4 8 .cfa: sp 0 +
STACK CFI INIT adfdc 24 .cfa: sp 0 +
STACK CFI adfe0 .cfa: sp 32 +
STACK CFI adfe8 .cfa: x29 32 + x19: .cfa -16 + ^ .ra: .cfa -24 + ^ x29: .cfa -32 + ^
STACK CFI adff4 .cfa: sp 32 +
STACK CFI adffc .cfa: sp 0 +
STACK CFI INIT ae000 28 .cfa: sp 0 +
STACK CFI ae004 .cfa: sp 32 +
STACK CFI ae00c .cfa: x29 32 + x19: .cfa -16 + ^ .ra: .cfa -24 + ^ x29: .cfa -32 + ^
STACK CFI ae01c .cfa: sp 32 +
STACK CFI ae024 .cfa: sp 0 +
STACK CFI INIT ae488 8 .cfa: sp 0 +
STACK CFI INIT ae490 8 .cfa: sp 0 +
STACK CFI INIT ae498 4 .cfa: sp 0 +
STACK CFI INIT ae49c 4 .cfa: sp 0 +
STACK CFI INIT ae4a0 4 .cfa: sp 0 +
STACK CFI INIT ae4a4 4 .cfa: sp 0 +
STACK CFI INIT ae4a8 4 .cfa: sp 0 +
STACK CFI INIT ae4ac 4 .cfa: sp 0 +
STACK CFI INIT ae4b0 4 .cfa: sp 0 +
STACK CFI INIT ae4b4 8 .cfa: sp 0 +
STACK CFI INIT ae4bc 24 .cfa: sp 0 +
STACK CFI ae4c0 .cfa: sp 32 +
STACK CFI ae4c8 .cfa: x29 32 + x19: .cfa -16 + ^ .ra: .cfa -24 + ^ x29: .cfa -32 + ^
STACK CFI ae4d4 .cfa: sp 32 +
STACK CFI ae4dc .cfa: sp 0 +
STACK CFI INIT ae4e0 28 .cfa: sp 0 +
STACK CFI ae4e4 .cfa: sp 32 +
STACK CFI ae4ec .cfa: x29 32 + x19: .cfa -16 + ^ .ra: .cfa -24 + ^ x29: .cfa -32 + ^
STACK CFI ae4fc .cfa: sp 32 +
STACK CFI ae504 .cfa: sp 0 +
STACK CFI INIT af540 4 .cfa: sp 0 +
STACK CFI INIT afbd8 4 .cfa: sp 0 +
STACK CFI INIT b0890 24 .cfa: sp 0 +
STACK CFI b0894 .cfa: sp 32 +
STACK CFI b089c .cfa: x29 32 + x19: .cfa -16 + ^ .ra: .cfa -24 + ^ x29: .cfa -32 + ^
STACK CFI b08a8 .cfa: sp 32 +
STACK CFI b08b0 .cfa: sp 0 +
STACK CFI INIT b1990 4 .cfa: sp 0 +
STACK CFI INIT b2b34 4 .cfa: sp 0 +
STACK CFI INIT b2b38 14 .cfa: sp 0 +
STACK CFI INIT b3058 c .cfa: sp 0 +
STACK CFI INIT b3064 24c .cfa: sp 0 +
STACK CFI INIT b32b0 a0 .cfa: sp 0 +
STACK CFI b32bc .cfa: sp 32 +
STACK CFI b3314 .cfa: sp 0 +
STACK CFI b3318 .cfa: sp 32 +
STACK CFI b3320 .cfa: sp 0 +
STACK CFI b3324 .cfa: sp 32 +
STACK CFI b3338 .cfa: sp 0 +
STACK CFI b333c .cfa: sp 32 +
STACK CFI b334c .cfa: sp 0 +
STACK CFI INIT b3350 38 .cfa: sp 0 +
STACK CFI b335c .cfa: sp 32 +
STACK CFI b3384 .cfa: sp 0 +
STACK CFI INIT b361c 7c .cfa: sp 0 +
STACK CFI b3620 .cfa: sp 32 +
STACK CFI b3628 .cfa: x29 32 + x19: .cfa -16 + ^ .ra: .cfa -24 + ^ x29: .cfa -32 + ^
STACK CFI b3654 .cfa: sp 32 +
STACK CFI b365c .cfa: sp 0 +
STACK CFI b3660 .cfa: x29 32 +
STACK CFI b368c .cfa: sp 32 +
STACK CFI b3694 .cfa: sp 0 +
STACK CFI INIT b36e8 2c .cfa: sp 0 +
STACK CFI b36ec .cfa: sp 32 +
STACK CFI b36f4 .cfa: x29 32 + x19: .cfa -16 + ^ .ra: .cfa -24 + ^ x29: .cfa -32 + ^
STACK CFI b3708 .cfa: sp 32 +
STACK CFI b3710 .cfa: sp 0 +
STACK CFI INIT b3ed4 64 .cfa: sp 0 +
STACK CFI b3ed8 .cfa: sp 32 +
STACK CFI b3ee0 .cfa: x29 32 + x19: .cfa -16 + ^ .ra: .cfa -24 + ^ x29: .cfa -32 + ^
STACK CFI b3efc .cfa: sp 32 +
STACK CFI b3f04 .cfa: sp 0 +
STACK CFI b3f08 .cfa: x29 32 +
STACK CFI b3f2c .cfa: sp 32 +
STACK CFI b3f34 .cfa: sp 0 +
STACK CFI INIT b3f38 570 .cfa: sp 0 +
STACK CFI b3f3c .cfa: sp 176 +
STACK CFI b3f50 .cfa: x29 64 + x19: .cfa -8 + ^ x20: .cfa -16 + ^ x21: .cfa -24 + ^ x22: .cfa -32 + ^ x23: .cfa -40 + ^ x24: .cfa -48 + ^ .ra: .cfa -56 + ^ x29: .cfa -64 + ^
STACK CFI b4180 .cfa: sp 176 +
STACK CFI b4194 .cfa: sp 0 +
STACK CFI b4198 .cfa: x29 64 +
STACK CFI b41e4 .cfa: sp 176 +
STACK CFI b41f8 .cfa: sp 0 +
STACK CFI b41fc .cfa: x29 64 +
STACK CFI b4234 .cfa: sp 176 +
STACK CFI b4248 .cfa: sp 0 +
STACK CFI b424c .cfa: x29 64 +
STACK CFI b4264 .cfa: sp 176 +
STACK CFI b4278 .cfa: sp 0 +
STACK CFI b427c .cfa: x29 64 +
STACK CFI b429c .cfa: sp 176 +
STACK CFI b42b0 .cfa: sp 0 +
STACK CFI b42b4 .cfa: x29 64 +
STACK CFI b42cc .cfa: sp 176 +
STACK CFI b42e0 .cfa: sp 0 +
STACK CFI b42e4 .cfa: x29 64 +
STACK CFI b42f8 .cfa: sp 176 +
STACK CFI b430c .cfa: sp 0 +
STACK CFI b4310 .cfa: x29 64 +
STACK CFI b4324 .cfa: sp 176 +
STACK CFI b4338 .cfa: sp 0 +
STACK CFI b433c .cfa: x29 64 +
STACK CFI b434c .cfa: sp 176 +
STACK CFI b4360 .cfa: sp 0 +
STACK CFI b4364 .cfa: x29 64 +
STACK CFI b4374 .cfa: sp 176 +
STACK CFI b4388 .cfa: sp 0 +
STACK CFI b438c .cfa: x29 64 +
STACK CFI b43a4 .cfa: sp 176 +
STACK CFI b43b8 .cfa: sp 0 +
STACK CFI b43bc .cfa: x29 64 +
STACK CFI b43d0 .cfa: sp 176 +
STACK CFI b43e4 .cfa: sp 0 +
STACK CFI b43e8 .cfa: x29 64 +
STACK CFI b4400 .cfa: sp 176 +
STACK CFI b4414 .cfa: sp 0 +
STACK CFI b4418 .cfa: x29 64 +
STACK CFI b4444 .cfa: sp 176 +
STACK CFI b4458 .cfa: sp 0 +
STACK CFI b445c .cfa: x29 64 +
STACK CFI b4470 .cfa: sp 176 +
STACK CFI b4484 .cfa: sp 0 +
STACK CFI b4488 .cfa: x29 64 +
STACK CFI INIT b44a8 228 .cfa: sp 0 +
STACK CFI INIT b46d0 2dc .cfa: sp 0 +
STACK CFI INIT b49ac 53c .cfa: sp 0 +
STACK CFI INIT b4ee8 78 .cfa: sp 0 +
STACK CFI b4eec .cfa: sp 48 +
STACK CFI b4ef8 .cfa: x29 48 + x19: .cfa -8 + ^ x20: .cfa -16 + ^ x21: .cfa -24 + ^ x22: .cfa -32 + ^ .ra: .cfa -40 + ^ x29: .cfa -48 + ^
STACK CFI b4f40 .cfa: sp 48 +
STACK CFI b4f4c .cfa: sp 0 +
STACK CFI b4f50 .cfa: sp 48 +
STACK CFI b4f5c .cfa: sp 0 +
STACK CFI INIT b4f60 8c .cfa: sp 0 +
STACK CFI b4f64 .cfa: sp 32 +
STACK CFI b4f6c .cfa: x29 32 + x19: .cfa -16 + ^ .ra: .cfa -24 + ^ x29: .cfa -32 + ^
STACK CFI b4fa0 .cfa: sp 32 +
STACK CFI b4fa8 .cfa: sp 0 +
STACK CFI b4fac .cfa: x29 32 +
STACK CFI b4fe0 .cfa: sp 32 +
STACK CFI b4fe8 .cfa: sp 0 +
STACK CFI INIT b4fec 24 .cfa: sp 0 +
STACK CFI b4ff0 .cfa: sp 32 +
STACK CFI b4ff8 .cfa: x29 32 + x19: .cfa -16 + ^ .ra: .cfa -24 + ^ x29: .cfa -32 + ^
STACK CFI b5004 .cfa: sp 32 +
STACK CFI b500c .cfa: sp 0 +
STACK CFI INIT b5010 150 .cfa: sp 0 +
STACK CFI b5014 .cfa: sp 48 +
STACK CFI b5020 .cfa: x29 48 + x19: .cfa -8 + ^ x20: .cfa -16 + ^ x21: .cfa -24 + ^ x22: .cfa -32 + ^ .ra: .cfa -40 + ^ x29: .cfa -48 + ^
STACK CFI b5150 .cfa: sp 48 +
STACK CFI b515c .cfa: sp 0 +
STACK CFI INIT b5160 68 .cfa: sp 0 +
STACK CFI b5164 .cfa: sp 64 +
STACK CFI b5170 .cfa: x29 32 + x19: .cfa -16 + ^ .ra: .cfa -24 + ^ x29: .cfa -32 + ^
STACK CFI b51b4 .cfa: sp 64 +
STACK CFI b51c0 .cfa: sp 0 +
STACK CFI b51c4 .cfa: x29 32 +
STACK CFI INIT b51c8 90 .cfa: sp 0 +
STACK CFI b51cc .cfa: sp 32 +
STACK CFI b51d4 .cfa: x29 32 + x19: .cfa -8 + ^ x20: .cfa -16 + ^ .ra: .cfa -24 + ^ x29: .cfa -32 + ^
STACK CFI b5200 .cfa: sp 32 +
STACK CFI b5208 .cfa: sp 0 +
STACK CFI b520c .cfa: x29 32 +
STACK CFI b524c .cfa: sp 32 +
STACK CFI b5254 .cfa: sp 0 +
STACK CFI INIT b5258 ec .cfa: sp 0 +
STACK CFI b525c .cfa: sp 112 +
STACK CFI b526c .cfa: x29 48 + x19: .cfa -8 + ^ x20: .cfa -16 + ^ x21: .cfa -32 + ^ .ra: .cfa -40 + ^ x29: .cfa -48 + ^
STACK CFI b532c .cfa: sp 112 +
STACK CFI b533c .cfa: sp 0 +
STACK CFI b5340 .cfa: x29 48 +
STACK CFI INIT b5344 ec .cfa: sp 0 +
STACK CFI b5348 .cfa: sp 112 +
STACK CFI b5358 .cfa: x29 48 + x19: .cfa -8 + ^ x20: .cfa -16 + ^ x21: .cfa -32 + ^ .ra: .cfa -40 + ^ x29: .cfa -48 + ^
STACK CFI b5418 .cfa: sp 112 +
STACK CFI b5428 .cfa: sp 0 +
STACK CFI b542c .cfa: x29 48 +
STACK CFI INIT b5430 48 .cfa: sp 0 +
STACK CFI b5434 .cfa: sp 32 +
STACK CFI b543c .cfa: x29 32 + x19: .cfa -8 + ^ x20: .cfa -16 + ^ .ra: .cfa -24 + ^ x29: .cfa -32 + ^
STACK CFI b5460 .cfa: sp 32 +
STACK CFI b5468 .cfa: sp 0 +
STACK CFI b546c .cfa: x29 32 +
STACK CFI INIT b5478 98 .cfa: sp 0 +
STACK CFI b547c .cfa: sp 80 +
STACK CFI b5488 .cfa: x29 32 + x19: .cfa -16 + ^ .ra: .cfa -24 + ^ x29: .cfa -32 + ^
STACK CFI b54fc .cfa: sp 80 +
STACK CFI b5508 .cfa: sp 0 +
STACK CFI b550c .cfa: x29 32 +
STACK CFI INIT b5510 260 .cfa: sp 0 +
STACK CFI b5514 .cfa: sp 112 +
STACK CFI b552c .cfa: x29 80 + x19: .cfa -8 + ^ x20: .cfa -16 + ^ x21: .cfa -24 + ^ x22: .cfa -32 + ^ x23: .cfa -40 + ^ x24: .cfa -48 + ^ x25: .cfa -64 + ^ .ra: .cfa -72 + ^ x29: .cfa -80 + ^
STACK CFI b5710 .cfa: sp 112 +
STACK CFI b5728 .cfa: sp 0 +
STACK CFI b572c .cfa: x29 80 +
STACK CFI INIT b5770 150 .cfa: sp 0 +
STACK CFI b5774 .cfa: sp 48 +
STACK CFI b5780 .cfa: x29 48 + x19: .cfa -8 + ^ x20: .cfa -16 + ^ x21: .cfa -24 + ^ x22: .cfa -32 + ^ .ra: .cfa -40 + ^ x29: .cfa -48 + ^
STACK CFI b58b0 .cfa: sp 48 +
STACK CFI b58bc .cfa: sp 0 +
STACK CFI INIT b58c0 1e0 .cfa: sp 0 +
STACK CFI b58c4 .cfa: sp 96 +
STACK CFI b58d8 .cfa: x29 64 + x19: .cfa -8 + ^ x20: .cfa -16 + ^ x21: .cfa -24 + ^ x22: .cfa -32 + ^ x23: .cfa -40 + ^ x24: .cfa -48 + ^ .ra: .cfa -56 + ^ x29: .cfa -64 + ^
STACK CFI b5a58 .cfa: sp 96 +
STACK CFI b5a6c .cfa: sp 0 +
STACK CFI b5a70 .cfa: x29 64 +
STACK CFI INIT b5aa0 284 .cfa: sp 0 +
STACK CFI b5aa4 .cfa: sp 112 +
STACK CFI b5abc .cfa: x29 80 + x19: .cfa -8 + ^ x20: .cfa -16 + ^ x21: .cfa -24 + ^ x22: .cfa -32 + ^ x23: .cfa -40 + ^ x24: .cfa -48 + ^ x25: .cfa -64 + ^ .ra: .cfa -72 + ^ x29: .cfa -80 + ^
STACK CFI b5cc4 .cfa: sp 112 +
STACK CFI b5cdc .cfa: sp 0 +
STACK CFI b5ce0 .cfa: x29 80 +
STACK CFI INIT b5d24 208 .cfa: sp 0 +
STACK CFI b5d28 .cfa: sp 96 +
STACK CFI b5d3c .cfa: x29 64 + x19: .cfa -8 + ^ x20: .cfa -16 + ^ x21: .cfa -24 + ^ x22: .cfa -32 + ^ x23: .cfa -40 + ^ x24: .cfa -48 + ^ .ra: .cfa -56 + ^ x29: .cfa -64 + ^
STACK CFI b5ee4 .cfa: sp 96 +
STACK CFI b5ef8 .cfa: sp 0 +
STACK CFI b5efc .cfa: x29 64 +
STACK CFI INIT b5f2c 360 .cfa: sp 0 +
STACK CFI b5f30 .cfa: sp 160 +
STACK CFI b5f4c .cfa: x29 96 + x19: .cfa -8 + ^ x20: .cfa -16 + ^ x21: .cfa -24 + ^ x22: .cfa -32 + ^ x23: .cfa -40 + ^ x24: .cfa -48 + ^ x25: .cfa -56 + ^ x26: .cfa -64 + ^ x27: .cfa -72 + ^ x28: .cfa -80 + ^ .ra: .cfa -88 + ^ x29: .cfa -96 + ^
STACK CFI b6218 .cfa: sp 160 +
STACK CFI b6234 .cfa: sp 0 +
STACK CFI b6238 .cfa: x29 96 +
STACK CFI INIT b628c 314 .cfa: sp 0 +
STACK CFI b6290 .cfa: sp 144 +
STACK CFI b62ac .cfa: x29 96 + x19: .cfa -8 + ^ x20: .cfa -16 + ^ x21: .cfa -24 + ^ x22: .cfa -32 + ^ x23: .cfa -40 + ^ x24: .cfa -48 + ^ x25: .cfa -56 + ^ x26: .cfa -64 + ^ x27: .cfa -72 + ^ x28: .cfa -80 + ^ .ra: .cfa -88 + ^ x29: .cfa -96 + ^
STACK CFI b6528 .cfa: sp 144 +
STACK CFI b6544 .cfa: sp 0 +
STACK CFI b6548 .cfa: x29 96 +
STACK CFI INIT b65a0 290 .cfa: sp 0 +
STACK CFI b65a4 .cfa: sp 128 +
STACK CFI b65bc .cfa: x29 80 + x19: .cfa -8 + ^ x20: .cfa -16 + ^ x21: .cfa -24 + ^ x22: .cfa -32 + ^ x23: .cfa -40 + ^ x24: .cfa -48 + ^ x25: .cfa -56 + ^ x26: .cfa -64 + ^ .ra: .cfa -72 + ^ x29: .cfa -80 + ^
STACK CFI b6810 .cfa: sp 128 +
STACK CFI b6828 .cfa: sp 0 +
STACK CFI b682c .cfa: x29 80 +
STACK CFI INIT b6830 ddc .cfa: sp 0 +
STACK CFI b6834 .cfa: sp 144 +
STACK CFI b6850 .cfa: x29 96 + x19: .cfa -8 + ^ x20: .cfa -16 + ^ x21: .cfa -24 + ^ x22: .cfa -32 + ^ x23: .cfa -40 + ^ x24: .cfa -48 + ^ x25: .cfa -56 + ^ x26: .cfa -64 + ^ x27: .cfa -72 + ^ x28: .cfa -80 + ^ .ra: .cfa -88 + ^ x29: .cfa -96 + ^
STACK CFI b74e4 .cfa: sp 144 +
STACK CFI b7500 .cfa: sp 0 +
STACK CFI b7504 .cfa: x29 96 +
STACK CFI INIT b760c 1d0 .cfa: sp 0 +
STACK CFI b7610 .cfa: sp 80 +
STACK CFI b7624 .cfa: x29 80 + x19: .cfa -8 + ^ x20: .cfa -16 + ^ x21: .cfa -24 + ^ x22: .cfa -32 + ^ x23: .cfa -40 + ^ x24: .cfa -48 + ^ x25: .cfa -64 + ^ .ra: .cfa -72 + ^ x29: .cfa -80 + ^
STACK CFI b77c4 .cfa: sp 80 +
STACK CFI b77d8 .cfa: sp 0 +
STACK CFI INIT b77dc 23c .cfa: sp 0 +
STACK CFI b77e0 .cfa: sp 112 +
STACK CFI b77f4 .cfa: x29 64 + x19: .cfa -8 + ^ x20: .cfa -16 + ^ x21: .cfa -24 + ^ x22: .cfa -32 + ^ x23: .cfa -40 + ^ x24: .cfa -48 + ^ .ra: .cfa -56 + ^ x29: .cfa -64 + ^
STACK CFI b79d0 .cfa: sp 112 +
STACK CFI b79e4 .cfa: sp 0 +
STACK CFI b79e8 .cfa: x29 64 +
STACK CFI INIT b7a18 30c .cfa: sp 0 +
STACK CFI b7a1c .cfa: sp 80 +
STACK CFI b7a30 .cfa: x29 64 + x19: .cfa -8 + ^ x20: .cfa -16 + ^ x21: .cfa -24 + ^ x22: .cfa -32 + ^ x23: .cfa -40 + ^ x24: .cfa -48 + ^ .ra: .cfa -56 + ^ x29: .cfa -64 + ^
STACK CFI b7bac .cfa: sp 80 +
STACK CFI b7bc0 .cfa: sp 0 +
STACK CFI b7bc4 .cfa: x29 64 +
STACK CFI INIT b7d24 178 .cfa: sp 0 +
STACK CFI b7d28 .cfa: sp 80 +
STACK CFI b7d3c .cfa: x29 64 + x19: .cfa -8 + ^ x20: .cfa -16 + ^ x21: .cfa -24 + ^ x22: .cfa -32 + ^ x23: .cfa -40 + ^ x24: .cfa -48 + ^ .ra: .cfa -56 + ^ x29: .cfa -64 + ^
STACK CFI b7e80 .cfa: sp 80 +
STACK CFI b7e94 .cfa: sp 0 +
STACK CFI b7e98 .cfa: x29 64 +
STACK CFI INIT b7e9c 178 .cfa: sp 0 +
STACK CFI b7ea0 .cfa: sp 80 +
STACK CFI b7eb4 .cfa: x29 64 + x19: .cfa -8 + ^ x20: .cfa -16 + ^ x21: .cfa -24 + ^ x22: .cfa -32 + ^ x23: .cfa -40 + ^ x24: .cfa -48 + ^ .ra: .cfa -56 + ^ x29: .cfa -64 + ^
STACK CFI b7ff8 .cfa: sp 80 +
STACK CFI b800c .cfa: sp 0 +
STACK CFI b8010 .cfa: x29 64 +
STACK CFI INIT b8014 240 .cfa: sp 0 +
STACK CFI b8018 .cfa: sp 96 +
STACK CFI b8030 .cfa: x29 96 + x19: .cfa -8 + ^ x20: .cfa -16 + ^ x21: .cfa -24 + ^ x22: .cfa -32 + ^ x23: .cfa -40 + ^ x24: .cfa -48 + ^ x25: .cfa -56 + ^ x26: .cfa -64 + ^ x27: .cfa -72 + ^ x28: .cfa -80 + ^ .ra: .cfa -88 + ^ x29: .cfa -96 + ^
STACK CFI b8238 .cfa: sp 96 +
STACK CFI b8250 .cfa: sp 0 +
STACK CFI INIT b8ec8 154 .cfa: sp 0 +
STACK CFI b8ecc .cfa: sp 96 +
STACK CFI b8ee0 .cfa: x29 64 + x19: .cfa -8 + ^ x20: .cfa -16 + ^ x21: .cfa -24 + ^ x22: .cfa -32 + ^ x23: .cfa -48 + ^ .ra: .cfa -56 + ^ x29: .cfa -64 + ^
STACK CFI b8fc0 .cfa: sp 96 +
STACK CFI b8fd4 .cfa: sp 0 +
STACK CFI b8fd8 .cfa: x29 64 +
STACK CFI INIT b9288 44 .cfa: sp 0 +
STACK CFI b928c .cfa: sp 32 +
STACK CFI b9294 .cfa: x29 32 + x19: .cfa -16 + ^ .ra: .cfa -24 + ^ x29: .cfa -32 + ^
STACK CFI b92b0 .cfa: sp 32 +
STACK CFI b92b8 .cfa: sp 0 +
STACK CFI b92bc .cfa: x29 32 +
STACK CFI b92c0 .cfa: sp 32 +
STACK CFI b92c8 .cfa: sp 0 +
STACK CFI INIT b92cc 1d0 .cfa: sp 0 +
STACK CFI b92d0 .cfa: sp 64 +
STACK CFI b92e0 .cfa: x29 64 + x19: .cfa -8 + ^ x20: .cfa -16 + ^ x21: .cfa -24 + ^ x22: .cfa -32 + ^ x23: .cfa -40 + ^ x24: .cfa -48 + ^ .ra: .cfa -56 + ^ x29: .cfa -64 + ^
STACK CFI b93a0 .cfa: sp 64 +
STACK CFI b93b0 .cfa: sp 0 +
STACK CFI b93b4 .cfa: x29 64 +
STACK CFI INIT b949c 17c .cfa: sp 0 +
STACK CFI INIT b99d0 a0 .cfa: sp 0 +
STACK CFI b99d4 .cfa: sp 48 +
STACK CFI b99e0 .cfa: x29 48 + x19: .cfa -8 + ^ x20: .cfa -16 + ^ x21: .cfa -24 + ^ x22: .cfa -32 + ^ .ra: .cfa -40 + ^ x29: .cfa -48 + ^
STACK CFI b9a4c .cfa: sp 48 +
STACK CFI b9a58 .cfa: sp 0 +
STACK CFI b9a5c .cfa: sp 48 +
STACK CFI b9a68 .cfa: sp 0 +
STACK CFI b9a6c .cfa: x29 48 +
STACK CFI INIT ba724 158 .cfa: sp 0 +
STACK CFI ba728 .cfa: sp 96 +
STACK CFI ba73c .cfa: x29 64 + x19: .cfa -8 + ^ x20: .cfa -16 + ^ x21: .cfa -24 + ^ x22: .cfa -32 + ^ x23: .cfa -48 + ^ .ra: .cfa -56 + ^ x29: .cfa -64 + ^
STACK CFI ba820 .cfa: sp 96 +
STACK CFI ba834 .cfa: sp 0 +
STACK CFI ba838 .cfa: x29 64 +
STACK CFI INIT ba87c 190 .cfa: sp 0 +
STACK CFI INIT bb508 1dc .cfa: sp 0 +
STACK CFI bb50c .cfa: sp 80 +
STACK CFI bb520 .cfa: x29 80 + x19: .cfa -8 + ^ x20: .cfa -16 + ^ x21: .cfa -24 + ^ x22: .cfa -32 + ^ x23: .cfa -40 + ^ x24: .cfa -48 + ^ x25: .cfa -64 + ^ .ra: .cfa -72 + ^ x29: .cfa -80 + ^
STACK CFI bb6cc .cfa: sp 80 +
STACK CFI bb6e0 .cfa: sp 0 +
STACK CFI INIT bcb14 124 .cfa: sp 0 +
STACK CFI bcb44 .cfa: sp 32 +
STACK CFI bcb4c .cfa: x29 32 + x19: .cfa -8 + ^ x20: .cfa -16 + ^ .ra: .cfa -24 + ^ x29: .cfa -32 + ^
STACK CFI bcc2c .cfa: sp 32 +
STACK CFI bcc34 .cfa: sp 0 +
STACK CFI INIT bd394 320 .cfa: sp 0 +
STACK CFI bd398 .cfa: sp 64 +
STACK CFI bd3a8 .cfa: x29 64 + x19: .cfa -8 + ^ x20: .cfa -16 + ^ x21: .cfa -24 + ^ x22: .cfa -32 + ^ x23: .cfa -40 + ^ x24: .cfa -48 + ^ .ra: .cfa -56 + ^ x29: .cfa -64 + ^
STACK CFI bd424 .cfa: sp 64 +
STACK CFI bd434 .cfa: sp 0 +
STACK CFI bd438 .cfa: x29 64 +
STACK CFI bd60c .cfa: sp 64 +
STACK CFI bd61c .cfa: sp 0 +
STACK CFI bd620 .cfa: x29 64 +
STACK CFI bd630 .cfa: sp 64 +
STACK CFI bd640 .cfa: sp 0 +
STACK CFI bd644 .cfa: x29 64 +
STACK CFI INIT bd6b4 a0 .cfa: sp 0 +
STACK CFI bd6b8 .cfa: sp 48 +
STACK CFI bd6c4 .cfa: x29 48 + x19: .cfa -8 + ^ x20: .cfa -16 + ^ x21: .cfa -24 + ^ x22: .cfa -32 + ^ .ra: .cfa -40 + ^ x29: .cfa -48 + ^
STACK CFI bd730 .cfa: sp 48 +
STACK CFI bd73c .cfa: sp 0 +
STACK CFI bd740 .cfa: sp 48 +
STACK CFI bd74c .cfa: sp 0 +
STACK CFI bd750 .cfa: x29 48 +
STACK CFI INIT be604 160 .cfa: sp 0 +
STACK CFI be608 .cfa: sp 64 +
STACK CFI be618 .cfa: x29 64 + x19: .cfa -8 + ^ x20: .cfa -16 + ^ x21: .cfa -24 + ^ x22: .cfa -32 + ^ x23: .cfa -48 + ^ .ra: .cfa -56 + ^ x29: .cfa -64 + ^
STACK CFI be710 .cfa: sp 64 +
STACK CFI be720 .cfa: sp 0 +
STACK CFI be724 .cfa: x29 64 +
STACK CFI INIT be764 214 .cfa: sp 0 +
STACK CFI be768 .cfa: sp 128 +
STACK CFI be784 .cfa: x29 96 + x19: .cfa -8 + ^ x20: .cfa -16 + ^ x21: .cfa -24 + ^ x22: .cfa -32 + ^ x23: .cfa -40 + ^ x24: .cfa -48 + ^ x25: .cfa -56 + ^ x26: .cfa -64 + ^ x27: .cfa -80 + ^ .ra: .cfa -88 + ^ x29: .cfa -96 + ^
STACK CFI be900 .cfa: sp 128 +
STACK CFI be91c .cfa: sp 0 +
STACK CFI be920 .cfa: x29 96 +
STACK CFI INIT c0614 290 .cfa: sp 0 +
STACK CFI c0618 .cfa: sp 16 +
STACK CFI c061c .cfa: x29 16 + .ra: .cfa -8 + ^ x29: .cfa -16 + ^
STACK CFI c06a8 .cfa: sp 16 +
STACK CFI c06ac .cfa: sp 0 +
STACK CFI c06b0 .cfa: x29 16 +
STACK CFI c0700 .cfa: sp 16 +
STACK CFI c0704 .cfa: sp 0 +
STACK CFI c0708 .cfa: x29 16 +
STACK CFI c086c .cfa: sp 16 +
STACK CFI c0870 .cfa: sp 0 +
STACK CFI c0874 .cfa: x29 16 +
STACK CFI INIT c08a4 158 .cfa: sp 0 +
STACK CFI c08a8 .cfa: sp 112 +
STACK CFI c08c4 .cfa: x29 96 + x19: .cfa -8 + ^ x20: .cfa -16 + ^ x21: .cfa -24 + ^ x22: .cfa -32 + ^ x23: .cfa -40 + ^ x24: .cfa -48 + ^ x25: .cfa -56 + ^ x26: .cfa -64 + ^ x27: .cfa -72 + ^ x28: .cfa -80 + ^ .ra: .cfa -88 + ^ x29: .cfa -96 + ^
STACK CFI c09ac .cfa: sp 112 +
STACK CFI c09b0 .cfa: x29 96 +
STACK CFI c09b8 .cfa: sp 112 +
STACK CFI c09d4 .cfa: sp 0 +
STACK CFI c09d8 .cfa: x29 96 +
STACK CFI c09f8 .cfa: sp 112 +
STACK CFI INIT c09fc e54 .cfa: sp 0 +
STACK CFI c0a00 .cfa: sp 192 +
STACK CFI c0a1c .cfa: x29 96 + x19: .cfa -8 + ^ x20: .cfa -16 + ^ x21: .cfa -24 + ^ x22: .cfa -32 + ^ x23: .cfa -40 + ^ x24: .cfa -48 + ^ x25: .cfa -56 + ^ x26: .cfa -64 + ^ x27: .cfa -72 + ^ x28: .cfa -80 + ^ .ra: .cfa -88 + ^ x29: .cfa -96 + ^
STACK CFI c1738 .cfa: sp 192 +
STACK CFI c1754 .cfa: sp 0 +
STACK CFI c1758 .cfa: x29 96 +
STACK CFI INIT c1850 1068 .cfa: sp 0 +
STACK CFI c1854 .cfa: sp 288 +
STACK CFI c1870 .cfa: x29 96 + x19: .cfa -8 + ^ x20: .cfa -16 + ^ x21: .cfa -24 + ^ x22: .cfa -32 + ^ x23: .cfa -40 + ^ x24: .cfa -48 + ^ x25: .cfa -56 + ^ x26: .cfa -64 + ^ x27: .cfa -72 + ^ x28: .cfa -80 + ^ .ra: .cfa -88 + ^ x29: .cfa -96 + ^
STACK CFI c2600 .cfa: sp 288 +
STACK CFI c261c .cfa: sp 0 +
STACK CFI c2620 .cfa: x29 96 +
STACK CFI INIT c28b8 520 .cfa: sp 0 +
STACK CFI c28bc .cfa: sp 144 +
STACK CFI c28d8 .cfa: x29 96 + x19: .cfa -8 + ^ x20: .cfa -16 + ^ x21: .cfa -24 + ^ x22: .cfa -32 + ^ x23: .cfa -40 + ^ x24: .cfa -48 + ^ x25: .cfa -56 + ^ x26: .cfa -64 + ^ x27: .cfa -72 + ^ x28: .cfa -80 + ^ .ra: .cfa -88 + ^ x29: .cfa -96 + ^
STACK CFI c2db4 .cfa: sp 144 +
STACK CFI c2dd0 .cfa: sp 0 +
STACK CFI c2dd4 .cfa: x29 96 +
STACK CFI INIT c3778 136c .cfa: sp 0 +
STACK CFI c377c .cfa: sp 224 +
STACK CFI c3798 .cfa: x29 96 + x19: .cfa -8 + ^ x20: .cfa -16 + ^ x21: .cfa -24 + ^ x22: .cfa -32 + ^ x23: .cfa -40 + ^ x24: .cfa -48 + ^ x25: .cfa -56 + ^ x26: .cfa -64 + ^ x27: .cfa -72 + ^ x28: .cfa -80 + ^ .ra: .cfa -88 + ^ x29: .cfa -96 + ^
STACK CFI c4ac0 .cfa: sp 224 +
STACK CFI c4adc .cfa: sp 0 +
STACK CFI c4ae0 .cfa: x29 96 +
STACK CFI INIT c4ae4 1b8 .cfa: sp 0 +
STACK CFI INIT 51700 480 .cfa: sp 0 +
STACK CFI 51704 .cfa: sp 224 +
STACK CFI 51720 .cfa: x29 96 + x19: .cfa -8 + ^ x20: .cfa -16 + ^ x21: .cfa -24 + ^ x22: .cfa -32 + ^ x23: .cfa -40 + ^ x24: .cfa -48 + ^ x25: .cfa -56 + ^ x26: .cfa -64 + ^ x27: .cfa -80 + ^ .ra: .cfa -88 + ^ x29: .cfa -96 + ^
STACK CFI 5198c .cfa: sp 224 +
STACK CFI 519a8 .cfa: sp 0 +
STACK CFI 519ac .cfa: x29 96 +
STACK CFI 51a78 .cfa: sp 224 +
STACK CFI 51a94 .cfa: sp 0 +
STACK CFI 51a98 .cfa: x29 96 +
STACK CFI INIT 51b9c 344 .cfa: sp 0 +
STACK CFI 51ba0 .cfa: sp 256 +
STACK CFI 51bb4 .cfa: x29 64 + x19: .cfa -8 + ^ x20: .cfa -16 + ^ x21: .cfa -24 + ^ x22: .cfa -32 + ^ x23: .cfa -48 + ^ .ra: .cfa -56 + ^ x29: .cfa -64 + ^
STACK CFI 51dc8 .cfa: sp 256 +
STACK CFI 51ddc .cfa: sp 0 +
STACK CFI 51de0 .cfa: x29 64 +
STACK CFI INIT 51f30 74 .cfa: sp 0 +
STACK CFI 51f34 .cfa: sp 48 +
STACK CFI 51f40 .cfa: x29 32 + x19: .cfa -8 + ^ x20: .cfa -16 + ^ .ra: .cfa -24 + ^ x29: .cfa -32 + ^
STACK CFI 51f8c .cfa: sp 48 +
STACK CFI 51f98 .cfa: sp 0 +
STACK CFI 51f9c .cfa: x29 32 +
STACK CFI INIT 52034 154 .cfa: sp 0 +
STACK CFI 52038 .cfa: sp 384 +
STACK CFI 5204c .cfa: x29 64 + x19: .cfa -8 + ^ x20: .cfa -16 + ^ x21: .cfa -24 + ^ x22: .cfa -32 + ^ x23: .cfa -40 + ^ x28: .cfa -48 + ^ .ra: .cfa -56 + ^ x29: .cfa -64 + ^
STACK CFI 52130 .cfa: sp 384 +
STACK CFI 52144 .cfa: sp 0 +
STACK CFI 52148 .cfa: x29 64 +
STACK CFI INIT 521bc 12c .cfa: sp 0 +
STACK CFI 521c0 .cfa: sp 80 +
STACK CFI 521d4 .cfa: x29 80 + x19: .cfa -8 + ^ x20: .cfa -16 + ^ x21: .cfa -24 + ^ x22: .cfa -32 + ^ x23: .cfa -40 + ^ x24: .cfa -48 + ^ x25: .cfa -56 + ^ x26: .cfa -64 + ^ .ra: .cfa -72 + ^ x29: .cfa -80 + ^
STACK CFI 5229c .cfa: sp 80 +
STACK CFI 522b0 .cfa: sp 0 +
STACK CFI 522b4 .cfa: x29 80 +
STACK CFI INIT 5238c 1a4 .cfa: sp 0 +
STACK CFI 52390 .cfa: sp 112 +
STACK CFI 523a8 .cfa: x29 80 + x19: .cfa -8 + ^ x20: .cfa -16 + ^ x21: .cfa -24 + ^ x22: .cfa -32 + ^ x23: .cfa -40 + ^ x24: .cfa -48 + ^ x25: .cfa -56 + ^ x26: .cfa -64 + ^ .ra: .cfa -72 + ^ x29: .cfa -80 + ^
STACK CFI 52498 .cfa: sp 112 +
STACK CFI 524b0 .cfa: sp 0 +
STACK CFI 524b4 .cfa: x29 80 +
STACK CFI INIT 52530 1dc .cfa: sp 0 +
STACK CFI 52534 .cfa: sp 128 +
STACK CFI 52550 .cfa: x29 96 + x19: .cfa -8 + ^ x20: .cfa -16 + ^ x21: .cfa -24 + ^ x22: .cfa -32 + ^ x23: .cfa -40 + ^ x24: .cfa -48 + ^ x25: .cfa -56 + ^ x26: .cfa -64 + ^ x27: .cfa -80 + ^ .ra: .cfa -88 + ^ x29: .cfa -96 + ^
STACK CFI 526bc .cfa: sp 128 +
STACK CFI 526d8 .cfa: sp 0 +
STACK CFI 526dc .cfa: x29 96 +
STACK CFI INIT 52720 50 .cfa: sp 0 +
STACK CFI 52724 .cfa: sp 32 +
STACK CFI 5272c .cfa: x29 32 + x19: .cfa -8 + ^ x20: .cfa -16 + ^ .ra: .cfa -24 + ^ x29: .cfa -32 + ^
STACK CFI INIT 527d4 178 .cfa: sp 0 +
STACK CFI 527d8 .cfa: sp 80 +
STACK CFI 527ec .cfa: x29 80 + x19: .cfa -8 + ^ x20: .cfa -16 + ^ x21: .cfa -24 + ^ x22: .cfa -32 + ^ x23: .cfa -40 + ^ x24: .cfa -48 + ^ x25: .cfa -64 + ^ .ra: .cfa -72 + ^ x29: .cfa -80 + ^
STACK CFI 52918 .cfa: sp 80 +
STACK CFI 5292c .cfa: sp 0 +
STACK CFI 52930 .cfa: x29 80 +
STACK CFI INIT 52a94 228 .cfa: sp 0 +
STACK CFI 52a98 .cfa: sp 128 +
STACK CFI 52ab0 .cfa: x29 80 + x19: .cfa -8 + ^ x20: .cfa -16 + ^ x21: .cfa -24 + ^ x22: .cfa -32 + ^ x23: .cfa -40 + ^ x24: .cfa -48 + ^ x25: .cfa -64 + ^ .ra: .cfa -72 + ^ x29: .cfa -80 + ^
STACK CFI 52c4c .cfa: sp 128 +
STACK CFI 52c64 .cfa: sp 0 +
STACK CFI 52c68 .cfa: x29 80 +
STACK CFI INIT 534d0 2924 .cfa: sp 0 +
STACK CFI 534d4 .cfa: sp 48 +
STACK CFI 534e0 .cfa: x29 48 + x19: .cfa -8 + ^ x20: .cfa -16 + ^ x28: .cfa -32 + ^ .ra: .cfa -40 + ^ x29: .cfa -48 + ^
STACK CFI 54fc0 .cfa: sp 48 +
STACK CFI 54fcc .cfa: sp 0 +
STACK CFI 54fd0 .cfa: x29 48 +
STACK CFI INIT 5611c 480 .cfa: sp 0 +
STACK CFI 56120 .cfa: sp 224 +
STACK CFI 5613c .cfa: x29 96 + x19: .cfa -8 + ^ x20: .cfa -16 + ^ x21: .cfa -24 + ^ x22: .cfa -32 + ^ x23: .cfa -40 + ^ x24: .cfa -48 + ^ x25: .cfa -56 + ^ x26: .cfa -64 + ^ x27: .cfa -80 + ^ .ra: .cfa -88 + ^ x29: .cfa -96 + ^
STACK CFI 563a8 .cfa: sp 224 +
STACK CFI 563c4 .cfa: sp 0 +
STACK CFI 563c8 .cfa: x29 96 +
STACK CFI 56494 .cfa: sp 224 +
STACK CFI 564b0 .cfa: sp 0 +
STACK CFI 564b4 .cfa: x29 96 +
STACK CFI INIT 565b8 324 .cfa: sp 0 +
STACK CFI 565bc .cfa: sp 192 +
STACK CFI 565d0 .cfa: x29 64 + x19: .cfa -8 + ^ x20: .cfa -16 + ^ x21: .cfa -24 + ^ x22: .cfa -32 + ^ x23: .cfa -48 + ^ .ra: .cfa -56 + ^ x29: .cfa -64 + ^
STACK CFI 567cc .cfa: sp 192 +
STACK CFI 567e0 .cfa: sp 0 +
STACK CFI 567e4 .cfa: x29 64 +
STACK CFI INIT 568e0 114 .cfa: sp 0 +
STACK CFI 568e4 .cfa: sp 64 +
STACK CFI 568f4 .cfa: x29 48 + x19: .cfa -8 + ^ x20: .cfa -16 + ^ x21: .cfa -24 + ^ x22: .cfa -32 + ^ .ra: .cfa -40 + ^ x29: .cfa -48 + ^
STACK CFI 569b8 .cfa: sp 64 +
STACK CFI 569c8 .cfa: sp 0 +
STACK CFI 569cc .cfa: x29 48 +
STACK CFI INIT 56a0c 480 .cfa: sp 0 +
STACK CFI 56a10 .cfa: sp 224 +
STACK CFI 56a2c .cfa: x29 96 + x19: .cfa -8 + ^ x20: .cfa -16 + ^ x21: .cfa -24 + ^ x22: .cfa -32 + ^ x23: .cfa -40 + ^ x24: .cfa -48 + ^ x25: .cfa -56 + ^ x26: .cfa -64 + ^ x27: .cfa -80 + ^ .ra: .cfa -88 + ^ x29: .cfa -96 + ^
STACK CFI 56c98 .cfa: sp 224 +
STACK CFI 56cb4 .cfa: sp 0 +
STACK CFI 56cb8 .cfa: x29 96 +
STACK CFI 56d84 .cfa: sp 224 +
STACK CFI 56da0 .cfa: sp 0 +
STACK CFI 56da4 .cfa: x29 96 +
STACK CFI INIT 56ea8 360 .cfa: sp 0 +
STACK CFI 56eac .cfa: sp 208 +
STACK CFI 56ec0 .cfa: x29 64 + x19: .cfa -8 + ^ x20: .cfa -16 + ^ x21: .cfa -24 + ^ x22: .cfa -32 + ^ x23: .cfa -40 + ^ x24: .cfa -48 + ^ .ra: .cfa -56 + ^ x29: .cfa -64 + ^
STACK CFI 570e4 .cfa: sp 208 +
STACK CFI 570f8 .cfa: sp 0 +
STACK CFI 570fc .cfa: x29 64 +
STACK CFI INIT 5720c 3b0 .cfa: sp 0 +
STACK CFI 57210 .cfa: sp 80 +
STACK CFI 57224 .cfa: x29 80 + x19: .cfa -8 + ^ x20: .cfa -16 + ^ x21: .cfa -24 + ^ x22: .cfa -32 + ^ x23: .cfa -40 + ^ x24: .cfa -48 + ^ x25: .cfa -56 + ^ x28: .cfa -64 + ^ .ra: .cfa -72 + ^ x29: .cfa -80 + ^
STACK CFI 57464 .cfa: sp 80 +
STACK CFI 57478 .cfa: sp 0 +
STACK CFI 5747c .cfa: x29 80 +
STACK CFI INIT 575d8 480 .cfa: sp 0 +
STACK CFI 575dc .cfa: sp 224 +
STACK CFI 575f8 .cfa: x29 96 + x19: .cfa -8 + ^ x20: .cfa -16 + ^ x21: .cfa -24 + ^ x22: .cfa -32 + ^ x23: .cfa -40 + ^ x24: .cfa -48 + ^ x25: .cfa -56 + ^ x26: .cfa -64 + ^ x27: .cfa -80 + ^ .ra: .cfa -88 + ^ x29: .cfa -96 + ^
STACK CFI 57864 .cfa: sp 224 +
STACK CFI 57880 .cfa: sp 0 +
STACK CFI 57884 .cfa: x29 96 +
STACK CFI 57950 .cfa: sp 224 +
STACK CFI 5796c .cfa: sp 0 +
STACK CFI 57970 .cfa: x29 96 +
STACK CFI INIT 57a74 628 .cfa: sp 0 +
STACK CFI 57a78 .cfa: sp 224 +
STACK CFI 57a90 .cfa: x29 80 + x19: .cfa -8 + ^ x20: .cfa -16 + ^ x21: .cfa -24 + ^ x22: .cfa -32 + ^ x23: .cfa -40 + ^ x24: .cfa -48 + ^ x25: .cfa -56 + ^ x26: .cfa -64 + ^ .ra: .cfa -72 + ^ x29: .cfa -80 + ^
STACK CFI 57eb8 .cfa: sp 224 +
STACK CFI 57ed0 .cfa: sp 0 +
STACK CFI 57ed4 .cfa: x29 80 +
STACK CFI INIT 580a0 6d0 .cfa: sp 0 +
STACK CFI 580a4 .cfa: sp 96 +
STACK CFI 580bc .cfa: x29 96 + x19: .cfa -8 + ^ x20: .cfa -16 + ^ x21: .cfa -24 + ^ x22: .cfa -32 + ^ x23: .cfa -40 + ^ x24: .cfa -48 + ^ x25: .cfa -56 + ^ x26: .cfa -64 + ^ x28: .cfa -80 + ^ .ra: .cfa -88 + ^ x29: .cfa -96 + ^
STACK CFI 5861c .cfa: sp 96 +
STACK CFI 58634 .cfa: sp 0 +
STACK CFI 58638 .cfa: x29 96 +
STACK CFI INIT 588b0 254 .cfa: sp 0 +
STACK CFI 588b4 .cfa: sp 160 +
STACK CFI 588cc .cfa: x29 80 + x19: .cfa -8 + ^ x20: .cfa -16 + ^ x21: .cfa -24 + ^ x22: .cfa -32 + ^ x23: .cfa -40 + ^ x24: .cfa -48 + ^ x25: .cfa -64 + ^ .ra: .cfa -72 + ^ x29: .cfa -80 + ^
STACK CFI 58a40 .cfa: sp 160 +
STACK CFI 58a58 .cfa: sp 0 +
STACK CFI 58a5c .cfa: x29 80 +
STACK CFI INIT 58cf0 480 .cfa: sp 0 +
STACK CFI 58cf4 .cfa: sp 224 +
STACK CFI 58d10 .cfa: x29 96 + x19: .cfa -8 + ^ x20: .cfa -16 + ^ x21: .cfa -24 + ^ x22: .cfa -32 + ^ x23: .cfa -40 + ^ x24: .cfa -48 + ^ x25: .cfa -56 + ^ x26: .cfa -64 + ^ x27: .cfa -80 + ^ .ra: .cfa -88 + ^ x29: .cfa -96 + ^
STACK CFI 58f7c .cfa: sp 224 +
STACK CFI 58f98 .cfa: sp 0 +
STACK CFI 58f9c .cfa: x29 96 +
STACK CFI 59068 .cfa: sp 224 +
STACK CFI 59084 .cfa: sp 0 +
STACK CFI 59088 .cfa: x29 96 +
STACK CFI INIT 5918c 308 .cfa: sp 0 +
STACK CFI 59190 .cfa: sp 176 +
STACK CFI 591a4 .cfa: x29 64 + x19: .cfa -8 + ^ x20: .cfa -16 + ^ x21: .cfa -24 + ^ x22: .cfa -32 + ^ x23: .cfa -48 + ^ .ra: .cfa -56 + ^ x29: .cfa -64 + ^
STACK CFI 5938c .cfa: sp 176 +
STACK CFI 593a0 .cfa: sp 0 +
STACK CFI 593a4 .cfa: x29 64 +
STACK CFI INIT 59498 1b0 .cfa: sp 0 +
STACK CFI 5949c .cfa: sp 96 +
STACK CFI 594b0 .cfa: x29 64 + x19: .cfa -8 + ^ x20: .cfa -16 + ^ x21: .cfa -24 + ^ x22: .cfa -32 + ^ x23: .cfa -40 + ^ x24: .cfa -48 + ^ .ra: .cfa -56 + ^ x29: .cfa -64 + ^
STACK CFI 595e4 .cfa: sp 96 +
STACK CFI 595f8 .cfa: sp 0 +
STACK CFI 595fc .cfa: x29 64 +
STACK CFI INIT 59648 c8 .cfa: sp 0 +
STACK CFI 5964c .cfa: sp 32 +
STACK CFI 59654 .cfa: x29 32 + x19: .cfa -8 + ^ x20: .cfa -16 + ^ .ra: .cfa -24 + ^ x29: .cfa -32 + ^
STACK CFI 59688 .cfa: sp 32 +
STACK CFI 59690 .cfa: sp 0 +
STACK CFI 59694 .cfa: x29 32 +
STACK CFI 59698 .cfa: sp 32 +
STACK CFI 596a0 .cfa: sp 0 +
STACK CFI 596a4 .cfa: x29 32 +
STACK CFI INIT 59710 94 .cfa: sp 0 +
STACK CFI 59714 .cfa: sp 32 +
STACK CFI 5971c .cfa: x29 32 + x19: .cfa -8 + ^ x20: .cfa -16 + ^ .ra: .cfa -24 + ^ x29: .cfa -32 + ^
STACK CFI 59784 .cfa: sp 32 +
STACK CFI 5978c .cfa: sp 0 +
STACK CFI 59790 .cfa: x29 32 +
STACK CFI INIT 597a4 50 .cfa: sp 0 +
STACK CFI 597a8 .cfa: sp 32 +
STACK CFI 597b0 .cfa: x29 32 + x19: .cfa -8 + ^ x20: .cfa -16 + ^ .ra: .cfa -24 + ^ x29: .cfa -32 + ^
STACK CFI INIT 59824 480 .cfa: sp 0 +
STACK CFI 59828 .cfa: sp 224 +
STACK CFI 59844 .cfa: x29 96 + x19: .cfa -8 + ^ x20: .cfa -16 + ^ x21: .cfa -24 + ^ x22: .cfa -32 + ^ x23: .cfa -40 + ^ x24: .cfa -48 + ^ x25: .cfa -56 + ^ x26: .cfa -64 + ^ x27: .cfa -80 + ^ .ra: .cfa -88 + ^ x29: .cfa -96 + ^
STACK CFI 59ab0 .cfa: sp 224 +
STACK CFI 59acc .cfa: sp 0 +
STACK CFI 59ad0 .cfa: x29 96 +
STACK CFI 59b9c .cfa: sp 224 +
STACK CFI 59bb8 .cfa: sp 0 +
STACK CFI 59bbc .cfa: x29 96 +
STACK CFI INIT 59cc0 3cc .cfa: sp 0 +
STACK CFI 59cc4 .cfa: sp 256 +
STACK CFI 59cd8 .cfa: x29 64 + x19: .cfa -8 + ^ x20: .cfa -16 + ^ x21: .cfa -24 + ^ x22: .cfa -32 + ^ x23: .cfa -48 + ^ .ra: .cfa -56 + ^ x29: .cfa -64 + ^
STACK CFI 59f54 .cfa: sp 256 +
STACK CFI 59f68 .cfa: sp 0 +
STACK CFI 59f6c .cfa: x29 64 +
STACK CFI INIT 5a1c0 480 .cfa: sp 0 +
STACK CFI 5a1c4 .cfa: sp 224 +
STACK CFI 5a1e0 .cfa: x29 96 + x19: .cfa -8 + ^ x20: .cfa -16 + ^ x21: .cfa -24 + ^ x22: .cfa -32 + ^ x23: .cfa -40 + ^ x24: .cfa -48 + ^ x25: .cfa -56 + ^ x26: .cfa -64 + ^ x27: .cfa -80 + ^ .ra: .cfa -88 + ^ x29: .cfa -96 + ^
STACK CFI 5a44c .cfa: sp 224 +
STACK CFI 5a468 .cfa: sp 0 +
STACK CFI 5a46c .cfa: x29 96 +
STACK CFI 5a538 .cfa: sp 224 +
STACK CFI 5a554 .cfa: sp 0 +
STACK CFI 5a558 .cfa: x29 96 +
STACK CFI INIT 5a65c 1484 .cfa: sp 0 +
STACK CFI 5a660 .cfa: sp 304 +
STACK CFI 5a67c .cfa: x29 96 + x19: .cfa -8 + ^ x20: .cfa -16 + ^ x21: .cfa -24 + ^ x22: .cfa -32 + ^ x23: .cfa -40 + ^ x24: .cfa -48 + ^ x25: .cfa -56 + ^ x26: .cfa -64 + ^ x27: .cfa -72 + ^ x28: .cfa -80 + ^ .ra: .cfa -88 + ^ x29: .cfa -96 + ^
STACK CFI 5b5c8 .cfa: sp 304 +
STACK CFI 5b5e4 .cfa: sp 0 +
STACK CFI 5b5e8 .cfa: x29 96 +
STACK CFI INIT 5bae8 d8 .cfa: sp 0 +
STACK CFI 5baec .cfa: sp 64 +
STACK CFI 5bafc .cfa: x29 48 + x19: .cfa -8 + ^ x20: .cfa -16 + ^ x21: .cfa -24 + ^ x22: .cfa -32 + ^ .ra: .cfa -40 + ^ x29: .cfa -48 + ^
STACK CFI 5bb84 .cfa: sp 64 +
STACK CFI 5bb94 .cfa: sp 0 +
STACK CFI 5bb98 .cfa: x29 48 +
STACK CFI INIT 5bd04 218 .cfa: sp 0 +
STACK CFI 5bd08 .cfa: sp 80 +
STACK CFI 5bd1c .cfa: x29 80 + x19: .cfa -8 + ^ x20: .cfa -16 + ^ x21: .cfa -24 + ^ x22: .cfa -32 + ^ x23: .cfa -40 + ^ x24: .cfa -48 + ^ x25: .cfa -56 + ^ x28: .cfa -64 + ^ .ra: .cfa -72 + ^ x29: .cfa -80 + ^
STACK CFI 5be78 .cfa: sp 80 +
STACK CFI 5be8c .cfa: sp 0 +
STACK CFI 5be90 .cfa: x29 80 +
STACK CFI INIT 5bf1c 230 .cfa: sp 0 +
STACK CFI 5bf20 .cfa: sp 80 +
STACK CFI 5bf34 .cfa: x29 80 + x19: .cfa -8 + ^ x20: .cfa -16 + ^ x21: .cfa -24 + ^ x22: .cfa -32 + ^ x23: .cfa -40 + ^ x24: .cfa -48 + ^ x25: .cfa -56 + ^ x28: .cfa -64 + ^ .ra: .cfa -72 + ^ x29: .cfa -80 + ^
STACK CFI 5c06c .cfa: sp 80 +
STACK CFI 5c080 .cfa: sp 0 +
STACK CFI 5c084 .cfa: x29 80 +
STACK CFI 5c098 .cfa: sp 80 +
STACK CFI 5c0ac .cfa: sp 0 +
STACK CFI 5c0b0 .cfa: x29 80 +
STACK CFI INIT 5c14c c8 .cfa: sp 0 +
STACK CFI 5c150 .cfa: sp 32 +
STACK CFI 5c158 .cfa: x29 32 + x19: .cfa -8 + ^ x20: .cfa -16 + ^ .ra: .cfa -24 + ^ x29: .cfa -32 + ^
STACK CFI 5c18c .cfa: sp 32 +
STACK CFI 5c194 .cfa: sp 0 +
STACK CFI 5c198 .cfa: x29 32 +
STACK CFI 5c19c .cfa: sp 32 +
STACK CFI 5c1a4 .cfa: sp 0 +
STACK CFI 5c1a8 .cfa: x29 32 +
STACK CFI INIT 5c214 298 .cfa: sp 0 +
STACK CFI 5c218 .cfa: sp 80 +
STACK CFI 5c228 .cfa: x29 48 + x19: .cfa -8 + ^ x20: .cfa -16 + ^ x21: .cfa -24 + ^ x22: .cfa -32 + ^ .ra: .cfa -40 + ^ x29: .cfa -48 + ^
STACK CFI 5c360 .cfa: sp 80 +
STACK CFI 5c370 .cfa: sp 0 +
STACK CFI 5c374 .cfa: x29 48 +
STACK CFI INIT 5c4ac 1c .cfa: sp 0 +
STACK CFI 5c4b0 .cfa: sp 16 +
STACK CFI 5c4b4 .cfa: x29 16 + .ra: .cfa -8 + ^ x29: .cfa -16 + ^
STACK CFI 5c4bc .cfa: sp 16 +
STACK CFI 5c4c0 .cfa: sp 0 +
STACK CFI 5c4c4 .cfa: x29 16 +
STACK CFI INIT 5c4c8 1c .cfa: sp 0 +
STACK CFI 5c4cc .cfa: sp 16 +
STACK CFI 5c4d0 .cfa: x29 16 + .ra: .cfa -8 + ^ x29: .cfa -16 + ^
STACK CFI 5c4d8 .cfa: sp 16 +
STACK CFI 5c4dc .cfa: sp 0 +
STACK CFI 5c4e0 .cfa: x29 16 +
STACK CFI INIT 5c4e4 1c .cfa: sp 0 +
STACK CFI 5c4e8 .cfa: sp 16 +
STACK CFI 5c4ec .cfa: x29 16 + .ra: .cfa -8 + ^ x29: .cfa -16 + ^
STACK CFI 5c4f4 .cfa: sp 16 +
STACK CFI 5c4f8 .cfa: sp 0 +
STACK CFI 5c4fc .cfa: x29 16 +
STACK CFI INIT 5c500 1c .cfa: sp 0 +
STACK CFI 5c504 .cfa: sp 16 +
STACK CFI 5c508 .cfa: x29 16 + .ra: .cfa -8 + ^ x29: .cfa -16 + ^
STACK CFI 5c510 .cfa: sp 16 +
STACK CFI 5c514 .cfa: sp 0 +
STACK CFI 5c518 .cfa: x29 16 +
STACK CFI INIT 5c9b8 144 .cfa: sp 0 +
STACK CFI 5c9bc .cfa: sp 192 +
STACK CFI 5c9d0 .cfa: x29 64 + x19: .cfa -8 + ^ x20: .cfa -16 + ^ x21: .cfa -24 + ^ x22: .cfa -32 + ^ x23: .cfa -40 + ^ x24: .cfa -48 + ^ .ra: .cfa -56 + ^ x29: .cfa -64 + ^
STACK CFI 5caa4 .cfa: sp 192 +
STACK CFI 5cab8 .cfa: sp 0 +
STACK CFI 5cabc .cfa: x29 64 +
STACK CFI INIT 5cccc 20 .cfa: sp 0 +
STACK CFI 5ccd0 .cfa: sp 16 +
STACK CFI 5ccd4 .cfa: x29 16 + .ra: .cfa -8 + ^ x29: .cfa -16 + ^
STACK CFI 5cce0 .cfa: sp 16 +
STACK CFI 5cce4 .cfa: sp 0 +
STACK CFI 5cce8 .cfa: x29 16 +
STACK CFI INIT 5ccec 20 .cfa: sp 0 +
STACK CFI 5ccf0 .cfa: sp 16 +
STACK CFI 5ccf4 .cfa: x29 16 + .ra: .cfa -8 + ^ x29: .cfa -16 + ^
STACK CFI 5cd00 .cfa: sp 16 +
STACK CFI 5cd04 .cfa: sp 0 +
STACK CFI 5cd08 .cfa: x29 16 +
STACK CFI INIT 5cd0c 100 .cfa: sp 0 +
STACK CFI 5cd10 .cfa: sp 96 +
STACK CFI 5cd20 .cfa: x29 48 + x19: .cfa -8 + ^ x20: .cfa -16 + ^ x21: .cfa -24 + ^ x22: .cfa -32 + ^ .ra: .cfa -40 + ^ x29: .cfa -48 + ^
STACK CFI 5cd7c .cfa: sp 96 +
STACK CFI 5cd8c .cfa: sp 0 +
STACK CFI 5cd90 .cfa: x29 48 +
STACK CFI INIT 5ce0c 180 .cfa: sp 0 +
STACK CFI 5ce10 .cfa: sp 96 +
STACK CFI 5ce28 .cfa: x29 96 + x19: .cfa -8 + ^ x20: .cfa -16 + ^ x21: .cfa -24 + ^ x22: .cfa -32 + ^ x23: .cfa -40 + ^ x24: .cfa -48 + ^ x25: .cfa -56 + ^ x26: .cfa -64 + ^ x27: .cfa -72 + ^ x28: .cfa -80 + ^ .ra: .cfa -88 + ^ x29: .cfa -96 + ^
STACK CFI 5cf58 .cfa: sp 96 +
STACK CFI 5cf70 .cfa: sp 0 +
STACK CFI 5cf74 .cfa: x29 96 +
STACK CFI INIT 5cf8c 58 .cfa: sp 0 +
STACK CFI 5cf90 .cfa: sp 32 +
STACK CFI 5cf98 .cfa: x29 32 + x19: .cfa -8 + ^ x20: .cfa -16 + ^ .ra: .cfa -24 + ^ x29: .cfa -32 + ^
STACK CFI 5cfc8 .cfa: sp 32 +
STACK CFI 5cfd0 .cfa: sp 0 +
STACK CFI 5cfd4 .cfa: sp 32 +
STACK CFI 5cfdc .cfa: sp 0 +
STACK CFI 5cfe0 .cfa: x29 32 +
STACK CFI INIT 5cfe4 200 .cfa: sp 0 +
STACK CFI 5cfe8 .cfa: sp 128 +
STACK CFI 5d000 .cfa: x29 80 + x19: .cfa -8 + ^ x20: .cfa -16 + ^ x21: .cfa -24 + ^ x22: .cfa -32 + ^ x23: .cfa -40 + ^ x24: .cfa -48 + ^ x25: .cfa -56 + ^ x26: .cfa -64 + ^ .ra: .cfa -72 + ^ x29: .cfa -80 + ^
STACK CFI 5d174 .cfa: sp 128 +
STACK CFI 5d18c .cfa: sp 0 +
STACK CFI 5d190 .cfa: x29 80 +
STACK CFI INIT 5d560 64 .cfa: sp 0 +
STACK CFI 5d564 .cfa: sp 32 +
STACK CFI 5d56c .cfa: x29 32 + x19: .cfa -8 + ^ x20: .cfa -16 + ^ .ra: .cfa -24 + ^ x29: .cfa -32 + ^
STACK CFI 5d5b4 .cfa: sp 32 +
STACK CFI 5d5bc .cfa: sp 0 +
STACK CFI 5d5c0 .cfa: x29 32 +
STACK CFI INIT 5d618 c8 .cfa: sp 0 +
STACK CFI 5d61c .cfa: sp 32 +
STACK CFI 5d624 .cfa: x29 32 + x19: .cfa -8 + ^ x20: .cfa -16 + ^ .ra: .cfa -24 + ^ x29: .cfa -32 + ^
STACK CFI 5d658 .cfa: sp 32 +
STACK CFI 5d660 .cfa: sp 0 +
STACK CFI 5d664 .cfa: x29 32 +
STACK CFI 5d668 .cfa: sp 32 +
STACK CFI 5d670 .cfa: sp 0 +
STACK CFI 5d674 .cfa: x29 32 +
STACK CFI INIT 5d6e0 184 .cfa: sp 0 +
STACK CFI 5d6e4 .cfa: sp 160 +
STACK CFI 5d6f4 .cfa: x29 48 + x19: .cfa -8 + ^ x20: .cfa -16 + ^ x21: .cfa -32 + ^ .ra: .cfa -40 + ^ x29: .cfa -48 + ^
STACK CFI 5d808 .cfa: sp 160 +
STACK CFI 5d818 .cfa: sp 0 +
STACK CFI 5d81c .cfa: x29 48 +
STACK CFI INIT 5d864 74 .cfa: sp 0 +
STACK CFI 5d868 .cfa: sp 48 +
STACK CFI 5d874 .cfa: x29 32 + x19: .cfa -8 + ^ x20: .cfa -16 + ^ .ra: .cfa -24 + ^ x29: .cfa -32 + ^
STACK CFI 5d8c0 .cfa: sp 48 +
STACK CFI 5d8cc .cfa: sp 0 +
STACK CFI 5d8d0 .cfa: x29 32 +
STACK CFI INIT 5d8d8 104 .cfa: sp 0 +
STACK CFI 5d8dc .cfa: sp 112 +
STACK CFI 5d8e8 .cfa: x29 32 + x19: .cfa -8 + ^ x20: .cfa -16 + ^ .ra: .cfa -24 + ^ x29: .cfa -32 + ^
STACK CFI 5d9ac .cfa: sp 112 +
STACK CFI 5d9b8 .cfa: sp 0 +
STACK CFI 5d9bc .cfa: x29 32 +
STACK CFI INIT 5da40 480 .cfa: sp 0 +
STACK CFI 5da44 .cfa: sp 224 +
STACK CFI 5da60 .cfa: x29 96 + x19: .cfa -8 + ^ x20: .cfa -16 + ^ x21: .cfa -24 + ^ x22: .cfa -32 + ^ x23: .cfa -40 + ^ x24: .cfa -48 + ^ x25: .cfa -56 + ^ x26: .cfa -64 + ^ x27: .cfa -80 + ^ .ra: .cfa -88 + ^ x29: .cfa -96 + ^
STACK CFI 5dccc .cfa: sp 224 +
STACK CFI 5dce8 .cfa: sp 0 +
STACK CFI 5dcec .cfa: x29 96 +
STACK CFI 5ddb8 .cfa: sp 224 +
STACK CFI 5ddd4 .cfa: sp 0 +
STACK CFI 5ddd8 .cfa: x29 96 +
STACK CFI INIT 5dedc 1214 .cfa: sp 0 +
STACK CFI 5dee0 .cfa: sp 304 +
STACK CFI 5defc .cfa: x29 96 + x19: .cfa -8 + ^ x20: .cfa -16 + ^ x21: .cfa -24 + ^ x22: .cfa -32 + ^ x23: .cfa -40 + ^ x24: .cfa -48 + ^ x25: .cfa -56 + ^ x26: .cfa -64 + ^ x27: .cfa -72 + ^ x28: .cfa -80 + ^ .ra: .cfa -88 + ^ x29: .cfa -96 + ^
STACK CFI 5ec68 .cfa: sp 304 +
STACK CFI 5ec84 .cfa: sp 0 +
STACK CFI 5ec88 .cfa: x29 96 +
STACK CFI INIT 5f0f4 254 .cfa: sp 0 +
STACK CFI 5f0f8 .cfa: sp 96 +
STACK CFI 5f110 .cfa: x29 96 + x19: .cfa -8 + ^ x20: .cfa -16 + ^ x21: .cfa -24 + ^ x22: .cfa -32 + ^ x23: .cfa -40 + ^ x24: .cfa -48 + ^ x25: .cfa -56 + ^ x26: .cfa -64 + ^ x27: .cfa -72 + ^ x28: .cfa -80 + ^ .ra: .cfa -88 + ^ x29: .cfa -96 + ^
STACK CFI 5f2a0 .cfa: sp 96 +
STACK CFI 5f2b8 .cfa: sp 0 +
STACK CFI 5f2bc .cfa: x29 96 +
STACK CFI INIT 5f5d4 190 .cfa: sp 0 +
STACK CFI 5f5d8 .cfa: sp 64 +
STACK CFI 5f5e8 .cfa: x29 48 + x19: .cfa -8 + ^ x20: .cfa -16 + ^ x21: .cfa -32 + ^ .ra: .cfa -40 + ^ x29: .cfa -48 + ^
STACK CFI 5f6f8 .cfa: sp 64 +
STACK CFI 5f708 .cfa: sp 0 +
STACK CFI 5f70c .cfa: x29 48 +
STACK CFI INIT 5f764 154 .cfa: sp 0 +
STACK CFI 5f768 .cfa: sp 96 +
STACK CFI 5f77c .cfa: x29 64 + x19: .cfa -8 + ^ x20: .cfa -16 + ^ x21: .cfa -24 + ^ x22: .cfa -32 + ^ x23: .cfa -40 + ^ x24: .cfa -48 + ^ .ra: .cfa -56 + ^ x29: .cfa -64 + ^
STACK CFI 5f878 .cfa: sp 96 +
STACK CFI 5f88c .cfa: sp 0 +
STACK CFI 5f890 .cfa: x29 64 +
STACK CFI INIT 5f8f0 480 .cfa: sp 0 +
STACK CFI 5f8f4 .cfa: sp 224 +
STACK CFI 5f910 .cfa: x29 96 + x19: .cfa -8 + ^ x20: .cfa -16 + ^ x21: .cfa -24 + ^ x22: .cfa -32 + ^ x23: .cfa -40 + ^ x24: .cfa -48 + ^ x25: .cfa -56 + ^ x26: .cfa -64 + ^ x27: .cfa -80 + ^ .ra: .cfa -88 + ^ x29: .cfa -96 + ^
STACK CFI 5fb7c .cfa: sp 224 +
STACK CFI 5fb98 .cfa: sp 0 +
STACK CFI 5fb9c .cfa: x29 96 +
STACK CFI 5fc68 .cfa: sp 224 +
STACK CFI 5fc84 .cfa: sp 0 +
STACK CFI 5fc88 .cfa: x29 96 +
STACK CFI INIT 5fd8c 720 .cfa: sp 0 +
STACK CFI 5fd90 .cfa: sp 224 +
STACK CFI 5fda4 .cfa: x29 64 + x19: .cfa -8 + ^ x20: .cfa -16 + ^ x21: .cfa -24 + ^ x22: .cfa -32 + ^ x23: .cfa -40 + ^ x24: .cfa -48 + ^ .ra: .cfa -56 + ^ x29: .cfa -64 + ^
STACK CFI 6028c .cfa: sp 224 +
STACK CFI 602a0 .cfa: sp 0 +
STACK CFI 602a4 .cfa: x29 64 +
STACK CFI INIT 604b0 5dc .cfa: sp 0 +
STACK CFI 604b4 .cfa: sp 96 +
STACK CFI 604cc .cfa: x29 96 + x19: .cfa -8 + ^ x20: .cfa -16 + ^ x21: .cfa -24 + ^ x22: .cfa -32 + ^ x23: .cfa -40 + ^ x24: .cfa -48 + ^ x25: .cfa -56 + ^ x26: .cfa -64 + ^ x27: .cfa -72 + ^ x28: .cfa -80 + ^ .ra: .cfa -88 + ^ x29: .cfa -96 + ^
STACK CFI 60a14 .cfa: sp 96 +
STACK CFI 60a2c .cfa: sp 0 +
STACK CFI 60a30 .cfa: x29 96 +
STACK CFI INIT 60a8c 184 .cfa: sp 0 +
STACK CFI 60a90 .cfa: sp 160 +
STACK CFI 60aa8 .cfa: x29 80 + x19: .cfa -8 + ^ x20: .cfa -16 + ^ x21: .cfa -24 + ^ x22: .cfa -32 + ^ x23: .cfa -40 + ^ x24: .cfa -48 + ^ x25: .cfa -56 + ^ x26: .cfa -64 + ^ .ra: .cfa -72 + ^ x29: .cfa -80 + ^
STACK CFI 60ba8 .cfa: sp 160 +
STACK CFI 60bc0 .cfa: sp 0 +
STACK CFI 60bc4 .cfa: x29 80 +
STACK CFI INIT 60d98 390 .cfa: sp 0 +
STACK CFI 60d9c .cfa: sp 128 +
STACK CFI 60db8 .cfa: x29 80 + x19: .cfa -8 + ^ x20: .cfa -16 + ^ x21: .cfa -24 + ^ x22: .cfa -32 + ^ x23: .cfa -40 + ^ x24: .cfa -48 + ^ x25: .cfa -56 + ^ x26: .cfa -64 + ^ .ra: .cfa -72 + ^ x29: .cfa -80 + ^ v8: .cfa -96 + ^
STACK CFI 610d4 .cfa: sp 128 +
STACK CFI 610f0 .cfa: sp 0 +
STACK CFI 610f4 .cfa: x29 80 +
STACK CFI INIT 61128 a8 .cfa: sp 0 +
STACK CFI 6112c .cfa: sp 32 +
STACK CFI 61134 .cfa: x29 32 + x19: .cfa -16 + ^ .ra: .cfa -24 + ^ x29: .cfa -32 + ^
STACK CFI 61168 .cfa: sp 32 +
STACK CFI 61170 .cfa: sp 0 +
STACK CFI 61174 .cfa: x29 32 +
STACK CFI 61178 .cfa: sp 32 +
STACK CFI 61180 .cfa: sp 0 +
STACK CFI 61184 .cfa: x29 32 +
STACK CFI INIT 61318 480 .cfa: sp 0 +
STACK CFI 6131c .cfa: sp 224 +
STACK CFI 61338 .cfa: x29 96 + x19: .cfa -8 + ^ x20: .cfa -16 + ^ x21: .cfa -24 + ^ x22: .cfa -32 + ^ x23: .cfa -40 + ^ x24: .cfa -48 + ^ x25: .cfa -56 + ^ x26: .cfa -64 + ^ x27: .cfa -80 + ^ .ra: .cfa -88 + ^ x29: .cfa -96 + ^
STACK CFI 615a4 .cfa: sp 224 +
STACK CFI 615c0 .cfa: sp 0 +
STACK CFI 615c4 .cfa: x29 96 +
STACK CFI 61690 .cfa: sp 224 +
STACK CFI 616ac .cfa: sp 0 +
STACK CFI 616b0 .cfa: x29 96 +
STACK CFI INIT 617b4 698 .cfa: sp 0 +
STACK CFI 617b8 .cfa: sp 272 +
STACK CFI 617d0 .cfa: x29 80 + x19: .cfa -8 + ^ x20: .cfa -16 + ^ x21: .cfa -24 + ^ x22: .cfa -32 + ^ x23: .cfa -40 + ^ x24: .cfa -48 + ^ x25: .cfa -56 + ^ x28: .cfa -64 + ^ .ra: .cfa -72 + ^ x29: .cfa -80 + ^
STACK CFI 61c54 .cfa: sp 272 +
STACK CFI 61c6c .cfa: sp 0 +
STACK CFI 61c70 .cfa: x29 80 +
STACK CFI INIT 61ebc aa4 .cfa: sp 0 +
STACK CFI 61ec0 .cfa: sp 96 +
STACK CFI 61ed8 .cfa: x29 96 + x19: .cfa -8 + ^ x20: .cfa -16 + ^ x21: .cfa -24 + ^ x22: .cfa -32 + ^ x23: .cfa -40 + ^ x24: .cfa -48 + ^ x25: .cfa -56 + ^ x26: .cfa -64 + ^ x27: .cfa -72 + ^ x28: .cfa -80 + ^ .ra: .cfa -88 + ^ x29: .cfa -96 + ^
STACK CFI 626f8 .cfa: sp 96 +
STACK CFI 62710 .cfa: sp 0 +
STACK CFI 62714 .cfa: x29 96 +
STACK CFI INIT 6297c 480 .cfa: sp 0 +
STACK CFI 62980 .cfa: sp 224 +
STACK CFI 6299c .cfa: x29 96 + x19: .cfa -8 + ^ x20: .cfa -16 + ^ x21: .cfa -24 + ^ x22: .cfa -32 + ^ x23: .cfa -40 + ^ x24: .cfa -48 + ^ x25: .cfa -56 + ^ x26: .cfa -64 + ^ x27: .cfa -80 + ^ .ra: .cfa -88 + ^ x29: .cfa -96 + ^
STACK CFI 62c08 .cfa: sp 224 +
STACK CFI 62c24 .cfa: sp 0 +
STACK CFI 62c28 .cfa: x29 96 +
STACK CFI 62cf4 .cfa: sp 224 +
STACK CFI 62d10 .cfa: sp 0 +
STACK CFI 62d14 .cfa: x29 96 +
STACK CFI INIT 62e18 122c .cfa: sp 0 +
STACK CFI 62e1c .cfa: sp 288 +
STACK CFI 62e38 .cfa: x29 96 + x19: .cfa -8 + ^ x20: .cfa -16 + ^ x21: .cfa -24 + ^ x22: .cfa -32 + ^ x23: .cfa -40 + ^ x24: .cfa -48 + ^ x25: .cfa -56 + ^ x26: .cfa -64 + ^ x27: .cfa -72 + ^ x28: .cfa -80 + ^ .ra: .cfa -88 + ^ x29: .cfa -96 + ^
STACK CFI 63b70 .cfa: sp 288 +
STACK CFI 63b8c .cfa: sp 0 +
STACK CFI 63b90 .cfa: x29 96 +
STACK CFI INIT 64104 134 .cfa: sp 0 +
STACK CFI 64108 .cfa: sp 128 +
STACK CFI 6411c .cfa: x29 64 + x19: .cfa -8 + ^ x20: .cfa -16 + ^ x21: .cfa -24 + ^ x22: .cfa -32 + ^ x23: .cfa -40 + ^ x24: .cfa -48 + ^ .ra: .cfa -56 + ^ x29: .cfa -64 + ^
STACK CFI 641e8 .cfa: sp 128 +
STACK CFI 641fc .cfa: sp 0 +
STACK CFI 64200 .cfa: x29 64 +
STACK CFI INIT 644c4 498 .cfa: sp 0 +
STACK CFI 644c8 .cfa: sp 64 +
STACK CFI 644d8 .cfa: x29 48 + x19: .cfa -8 + ^ x20: .cfa -16 + ^ x21: .cfa -24 + ^ x22: .cfa -32 + ^ .ra: .cfa -40 + ^ x29: .cfa -48 + ^
STACK CFI 64894 .cfa: sp 64 +
STACK CFI 648a4 .cfa: sp 0 +
STACK CFI 648a8 .cfa: x29 48 +
STACK CFI INIT 64af0 480 .cfa: sp 0 +
STACK CFI 64af4 .cfa: sp 224 +
STACK CFI 64b10 .cfa: x29 96 + x19: .cfa -8 + ^ x20: .cfa -16 + ^ x21: .cfa -24 + ^ x22: .cfa -32 + ^ x23: .cfa -40 + ^ x24: .cfa -48 + ^ x25: .cfa -56 + ^ x26: .cfa -64 + ^ x27: .cfa -80 + ^ .ra: .cfa -88 + ^ x29: .cfa -96 + ^
STACK CFI 64d7c .cfa: sp 224 +
STACK CFI 64d98 .cfa: sp 0 +
STACK CFI 64d9c .cfa: x29 96 +
STACK CFI 64e68 .cfa: sp 224 +
STACK CFI 64e84 .cfa: sp 0 +
STACK CFI 64e88 .cfa: x29 96 +
STACK CFI INIT 64f8c 608 .cfa: sp 0 +
STACK CFI 64f90 .cfa: sp 272 +
STACK CFI 64fa8 .cfa: x29 80 + x19: .cfa -8 + ^ x20: .cfa -16 + ^ x21: .cfa -24 + ^ x22: .cfa -32 + ^ x23: .cfa -40 + ^ x24: .cfa -48 + ^ x25: .cfa -56 + ^ x28: .cfa -64 + ^ .ra: .cfa -72 + ^ x29: .cfa -80 + ^
STACK CFI 653bc .cfa: sp 272 +
STACK CFI 653d4 .cfa: sp 0 +
STACK CFI 653d8 .cfa: x29 80 +
STACK CFI INIT 65598 600 .cfa: sp 0 +
STACK CFI 6559c .cfa: sp 384 +
STACK CFI 655b0 .cfa: x29 64 + x19: .cfa -8 + ^ x20: .cfa -16 + ^ x21: .cfa -24 + ^ x22: .cfa -32 + ^ x23: .cfa -40 + ^ x28: .cfa -48 + ^ .ra: .cfa -56 + ^ x29: .cfa -64 + ^
STACK CFI 655d4 .cfa: sp 384 +
STACK CFI 655e8 .cfa: sp 0 +
STACK CFI 655ec .cfa: x29 64 +
STACK CFI 65960 .cfa: sp 384 +
STACK CFI 65974 .cfa: sp 0 +
STACK CFI 65978 .cfa: x29 64 +
STACK CFI INIT 65b9c 158 .cfa: sp 0 +
STACK CFI 65ba0 .cfa: sp 144 +
STACK CFI 65bb4 .cfa: x29 64 + x19: .cfa -8 + ^ x20: .cfa -16 + ^ x21: .cfa -24 + ^ x22: .cfa -32 + ^ x23: .cfa -40 + ^ x24: .cfa -48 + ^ .ra: .cfa -56 + ^ x29: .cfa -64 + ^
STACK CFI 65c88 .cfa: sp 144 +
STACK CFI 65c9c .cfa: sp 0 +
STACK CFI 65ca0 .cfa: x29 64 +
STACK CFI INIT 65df4 1c70 .cfa: sp 0 +
STACK CFI 65df8 .cfa: sp 96 +
STACK CFI 65e10 .cfa: x29 96 + x19: .cfa -8 + ^ x20: .cfa -16 + ^ x21: .cfa -24 + ^ x22: .cfa -32 + ^ x23: .cfa -40 + ^ x24: .cfa -48 + ^ x25: .cfa -56 + ^ x26: .cfa -64 + ^ x27: .cfa -72 + ^ x28: .cfa -80 + ^ .ra: .cfa -88 + ^ x29: .cfa -96 + ^
STACK CFI 675b8 .cfa: sp 96 +
STACK CFI 675d0 .cfa: sp 0 +
STACK CFI 675d4 .cfa: x29 96 +
STACK CFI INIT 67d20 304 .cfa: sp 0 +
STACK CFI 67d24 .cfa: sp 128 +
STACK CFI 67d40 .cfa: x29 96 + x19: .cfa -8 + ^ x20: .cfa -16 + ^ x21: .cfa -24 + ^ x22: .cfa -32 + ^ x23: .cfa -40 + ^ x24: .cfa -48 + ^ x25: .cfa -56 + ^ x26: .cfa -64 + ^ x27: .cfa -72 + ^ x28: .cfa -80 + ^ .ra: .cfa -88 + ^ x29: .cfa -96 + ^
STACK CFI 67fa4 .cfa: sp 128 +
STACK CFI 67fc0 .cfa: sp 0 +
STACK CFI 67fc4 .cfa: x29 96 +
STACK CFI INIT 68024 200 .cfa: sp 0 +
STACK CFI 68028 .cfa: sp 64 +
STACK CFI 68038 .cfa: x29 64 + x19: .cfa -8 + ^ x20: .cfa -16 + ^ x21: .cfa -24 + ^ x22: .cfa -32 + ^ x23: .cfa -40 + ^ x24: .cfa -48 + ^ .ra: .cfa -56 + ^ x29: .cfa -64 + ^
STACK CFI 681d0 .cfa: sp 64 +
STACK CFI 681e0 .cfa: sp 0 +
STACK CFI 681e4 .cfa: x29 64 +
STACK CFI INIT 682b0 74 .cfa: sp 0 +
STACK CFI 682b4 .cfa: sp 48 +
STACK CFI 682c0 .cfa: x29 32 + x19: .cfa -8 + ^ x20: .cfa -16 + ^ .ra: .cfa -24 + ^ x29: .cfa -32 + ^
STACK CFI 6830c .cfa: sp 48 +
STACK CFI 68318 .cfa: sp 0 +
STACK CFI 6831c .cfa: x29 32 +
STACK CFI INIT 68358 480 .cfa: sp 0 +
STACK CFI 6835c .cfa: sp 224 +
STACK CFI 68378 .cfa: x29 96 + x19: .cfa -8 + ^ x20: .cfa -16 + ^ x21: .cfa -24 + ^ x22: .cfa -32 + ^ x23: .cfa -40 + ^ x24: .cfa -48 + ^ x25: .cfa -56 + ^ x26: .cfa -64 + ^ x27: .cfa -80 + ^ .ra: .cfa -88 + ^ x29: .cfa -96 + ^
STACK CFI 685e4 .cfa: sp 224 +
STACK CFI 68600 .cfa: sp 0 +
STACK CFI 68604 .cfa: x29 96 +
STACK CFI 686d0 .cfa: sp 224 +
STACK CFI 686ec .cfa: sp 0 +
STACK CFI 686f0 .cfa: x29 96 +
STACK CFI INIT 687f4 8bc .cfa: sp 0 +
STACK CFI 687f8 .cfa: sp 192 +
STACK CFI 6880c .cfa: x29 64 + x19: .cfa -8 + ^ x20: .cfa -16 + ^ x21: .cfa -24 + ^ x22: .cfa -32 + ^ x23: .cfa -40 + ^ x24: .cfa -48 + ^ .ra: .cfa -56 + ^ x29: .cfa -64 + ^
STACK CFI 68e24 .cfa: sp 192 +
STACK CFI 68e38 .cfa: sp 0 +
STACK CFI 68e3c .cfa: x29 64 +
STACK CFI INIT 690b4 c48 .cfa: sp 0 +
STACK CFI 690b8 .cfa: sp 96 +
STACK CFI 690d0 .cfa: x29 96 + x19: .cfa -8 + ^ x20: .cfa -16 + ^ x21: .cfa -24 + ^ x22: .cfa -32 + ^ x23: .cfa -40 + ^ x24: .cfa -48 + ^ x25: .cfa -56 + ^ x26: .cfa -64 + ^ x27: .cfa -72 + ^ x28: .cfa -80 + ^ .ra: .cfa -88 + ^ x29: .cfa -96 + ^
STACK CFI 69a90 .cfa: sp 96 +
STACK CFI 69aa8 .cfa: sp 0 +
STACK CFI 69aac .cfa: x29 96 +
STACK CFI INIT 69cfc 184 .cfa: sp 0 +
STACK CFI 69d00 .cfa: sp 160 +
STACK CFI 69d18 .cfa: x29 80 + x19: .cfa -8 + ^ x20: .cfa -16 + ^ x21: .cfa -24 + ^ x22: .cfa -32 + ^ x23: .cfa -40 + ^ x24: .cfa -48 + ^ x25: .cfa -56 + ^ x26: .cfa -64 + ^ .ra: .cfa -72 + ^ x29: .cfa -80 + ^
STACK CFI 69e18 .cfa: sp 160 +
STACK CFI 69e30 .cfa: sp 0 +
STACK CFI 69e34 .cfa: x29 80 +
STACK CFI INIT 69e80 168 .cfa: sp 0 +
STACK CFI 69e84 .cfa: sp 48 +
STACK CFI 69e90 .cfa: x29 48 + x19: .cfa -8 + ^ x20: .cfa -16 + ^ x21: .cfa -32 + ^ .ra: .cfa -40 + ^ x29: .cfa -48 + ^
STACK CFI 69ec4 .cfa: sp 48 +
STACK CFI 69ed0 .cfa: sp 0 +
STACK CFI 69ed4 .cfa: x29 48 +
STACK CFI 69fc4 .cfa: sp 48 +
STACK CFI 69fd0 .cfa: sp 0 +
STACK CFI 69fd4 .cfa: x29 48 +
STACK CFI INIT 6a004 3dc .cfa: sp 0 +
STACK CFI 6a008 .cfa: sp 240 +
STACK CFI 6a024 .cfa: x29 96 + x19: .cfa -8 + ^ x20: .cfa -16 + ^ x21: .cfa -24 + ^ x22: .cfa -32 + ^ x23: .cfa -40 + ^ x24: .cfa -48 + ^ x25: .cfa -56 + ^ x26: .cfa -64 + ^ x27: .cfa -80 + ^ .ra: .cfa -88 + ^ x29: .cfa -96 + ^
STACK CFI 6a2a8 .cfa: sp 240 +
STACK CFI 6a2c4 .cfa: sp 0 +
STACK CFI 6a2c8 .cfa: x29 96 +
STACK CFI INIT 6a3e0 a8 .cfa: sp 0 +
STACK CFI 6a3e4 .cfa: sp 32 +
STACK CFI 6a3ec .cfa: x29 32 + x19: .cfa -16 + ^ .ra: .cfa -24 + ^ x29: .cfa -32 + ^
STACK CFI 6a420 .cfa: sp 32 +
STACK CFI 6a428 .cfa: sp 0 +
STACK CFI 6a42c .cfa: x29 32 +
STACK CFI 6a430 .cfa: sp 32 +
STACK CFI 6a438 .cfa: sp 0 +
STACK CFI 6a43c .cfa: x29 32 +
STACK CFI INIT 6a524 134 .cfa: sp 0 +
STACK CFI 6a528 .cfa: sp 80 +
STACK CFI 6a538 .cfa: x29 48 + x19: .cfa -8 + ^ x20: .cfa -16 + ^ x21: .cfa -24 + ^ x22: .cfa -32 + ^ .ra: .cfa -40 + ^ x29: .cfa -48 + ^
STACK CFI 6a63c .cfa: sp 80 +
STACK CFI 6a64c .cfa: sp 0 +
STACK CFI 6a650 .cfa: x29 48 +
STACK CFI INIT 6a674 108 .cfa: sp 0 +
STACK CFI 6a678 .cfa: sp 32 +
STACK CFI 6a680 .cfa: x29 32 + x19: .cfa -8 + ^ x20: .cfa -16 + ^ .ra: .cfa -24 + ^ x29: .cfa -32 + ^
STACK CFI 6a75c .cfa: sp 32 +
STACK CFI 6a764 .cfa: sp 0 +
STACK CFI 6a768 .cfa: x29 32 +
STACK CFI INIT 6a8d0 1d4 .cfa: sp 0 +
STACK CFI 6a8d4 .cfa: sp 112 +
STACK CFI 6a8e4 .cfa: x29 48 + x19: .cfa -8 + ^ x20: .cfa -16 + ^ x21: .cfa -24 + ^ x22: .cfa -32 + ^ .ra: .cfa -40 + ^ x29: .cfa -48 + ^
STACK CFI 6aa60 .cfa: sp 112 +
STACK CFI 6aa70 .cfa: sp 0 +
STACK CFI 6aa74 .cfa: x29 48 +
STACK CFI INIT 6aac0 480 .cfa: sp 0 +
STACK CFI 6aac4 .cfa: sp 224 +
STACK CFI 6aae0 .cfa: x29 96 + x19: .cfa -8 + ^ x20: .cfa -16 + ^ x21: .cfa -24 + ^ x22: .cfa -32 + ^ x23: .cfa -40 + ^ x24: .cfa -48 + ^ x25: .cfa -56 + ^ x26: .cfa -64 + ^ x27: .cfa -80 + ^ .ra: .cfa -88 + ^ x29: .cfa -96 + ^
STACK CFI 6ad4c .cfa: sp 224 +
STACK CFI 6ad68 .cfa: sp 0 +
STACK CFI 6ad6c .cfa: x29 96 +
STACK CFI 6ae38 .cfa: sp 224 +
STACK CFI 6ae54 .cfa: sp 0 +
STACK CFI 6ae58 .cfa: x29 96 +
STACK CFI INIT 6af5c 480 .cfa: sp 0 +
STACK CFI 6af60 .cfa: sp 224 +
STACK CFI 6af7c .cfa: x29 96 + x19: .cfa -8 + ^ x20: .cfa -16 + ^ x21: .cfa -24 + ^ x22: .cfa -32 + ^ x23: .cfa -40 + ^ x24: .cfa -48 + ^ x25: .cfa -56 + ^ x26: .cfa -64 + ^ x27: .cfa -80 + ^ .ra: .cfa -88 + ^ x29: .cfa -96 + ^
STACK CFI 6b1e8 .cfa: sp 224 +
STACK CFI 6b204 .cfa: sp 0 +
STACK CFI 6b208 .cfa: x29 96 +
STACK CFI 6b2d4 .cfa: sp 224 +
STACK CFI 6b2f0 .cfa: sp 0 +
STACK CFI 6b2f4 .cfa: x29 96 +
STACK CFI INIT 6b3f8 608 .cfa: sp 0 +
STACK CFI 6b3fc .cfa: sp 256 +
STACK CFI 6b414 .cfa: x29 80 + x19: .cfa -8 + ^ x20: .cfa -16 + ^ x21: .cfa -24 + ^ x22: .cfa -32 + ^ x23: .cfa -40 + ^ x24: .cfa -48 + ^ x25: .cfa -56 + ^ x26: .cfa -64 + ^ .ra: .cfa -72 + ^ x29: .cfa -80 + ^
STACK CFI 6b838 .cfa: sp 256 +
STACK CFI 6b850 .cfa: sp 0 +
STACK CFI 6b854 .cfa: x29 80 +
STACK CFI INIT 6ba54 fc .cfa: sp 0 +
STACK CFI 6ba58 .cfa: sp 64 +
STACK CFI 6ba64 .cfa: x29 32 + x19: .cfa -8 + ^ x20: .cfa -16 + ^ .ra: .cfa -24 + ^ x29: .cfa -32 + ^
STACK CFI 6bb08 .cfa: sp 64 +
STACK CFI 6bb14 .cfa: sp 0 +
STACK CFI 6bb18 .cfa: x29 32 +
STACK CFI INIT 6bb50 a8 .cfa: sp 0 +
STACK CFI 6bb54 .cfa: sp 32 +
STACK CFI 6bb5c .cfa: x29 32 + x19: .cfa -16 + ^ .ra: .cfa -24 + ^ x29: .cfa -32 + ^
STACK CFI 6bb90 .cfa: sp 32 +
STACK CFI 6bb98 .cfa: sp 0 +
STACK CFI 6bb9c .cfa: x29 32 +
STACK CFI 6bba0 .cfa: sp 32 +
STACK CFI 6bba8 .cfa: sp 0 +
STACK CFI 6bbac .cfa: x29 32 +
STACK CFI INIT 6bc88 8bc .cfa: sp 0 +
STACK CFI 6bc8c .cfa: sp 288 +
STACK CFI 6bca8 .cfa: x29 96 + x19: .cfa -8 + ^ x20: .cfa -16 + ^ x21: .cfa -24 + ^ x22: .cfa -32 + ^ x23: .cfa -40 + ^ x24: .cfa -48 + ^ x25: .cfa -56 + ^ x26: .cfa -64 + ^ x27: .cfa -72 + ^ x28: .cfa -80 + ^ .ra: .cfa -88 + ^ x29: .cfa -96 + ^
STACK CFI 6c2d4 .cfa: sp 288 +
STACK CFI 6c2f0 .cfa: sp 0 +
STACK CFI 6c2f4 .cfa: x29 96 +
STACK CFI INIT 6c800 a8 .cfa: sp 0 +
STACK CFI 6c804 .cfa: sp 32 +
STACK CFI 6c80c .cfa: x29 32 + x19: .cfa -16 + ^ .ra: .cfa -24 + ^ x29: .cfa -32 + ^
STACK CFI 6c840 .cfa: sp 32 +
STACK CFI 6c848 .cfa: sp 0 +
STACK CFI 6c84c .cfa: x29 32 +
STACK CFI 6c850 .cfa: sp 32 +
STACK CFI 6c858 .cfa: sp 0 +
STACK CFI 6c85c .cfa: x29 32 +
STACK CFI INIT 6c944 480 .cfa: sp 0 +
STACK CFI 6c948 .cfa: sp 224 +
STACK CFI 6c964 .cfa: x29 96 + x19: .cfa -8 + ^ x20: .cfa -16 + ^ x21: .cfa -24 + ^ x22: .cfa -32 + ^ x23: .cfa -40 + ^ x24: .cfa -48 + ^ x25: .cfa -56 + ^ x26: .cfa -64 + ^ x27: .cfa -80 + ^ .ra: .cfa -88 + ^ x29: .cfa -96 + ^
STACK CFI 6cbd0 .cfa: sp 224 +
STACK CFI 6cbec .cfa: sp 0 +
STACK CFI 6cbf0 .cfa: x29 96 +
STACK CFI 6ccbc .cfa: sp 224 +
STACK CFI 6ccd8 .cfa: sp 0 +
STACK CFI 6ccdc .cfa: x29 96 +
STACK CFI INIT 6cde0 1504 .cfa: sp 0 +
STACK CFI 6cde4 .cfa: sp 288 +
STACK CFI 6ce00 .cfa: x29 96 + x19: .cfa -8 + ^ x20: .cfa -16 + ^ x21: .cfa -24 + ^ x22: .cfa -32 + ^ x23: .cfa -40 + ^ x24: .cfa -48 + ^ x25: .cfa -56 + ^ x26: .cfa -64 + ^ x28: .cfa -80 + ^ .ra: .cfa -88 + ^ x29: .cfa -96 + ^
STACK CFI 6dd88 .cfa: sp 288 +
STACK CFI 6dda4 .cfa: sp 0 +
STACK CFI 6dda8 .cfa: x29 96 +
STACK CFI INIT 6e398 184 .cfa: sp 0 +
STACK CFI 6e39c .cfa: sp 144 +
STACK CFI 6e3b4 .cfa: x29 80 + x19: .cfa -8 + ^ x20: .cfa -16 + ^ x21: .cfa -24 + ^ x22: .cfa -32 + ^ x23: .cfa -40 + ^ x24: .cfa -48 + ^ x25: .cfa -56 + ^ x26: .cfa -64 + ^ .ra: .cfa -72 + ^ x29: .cfa -80 + ^
STACK CFI 6e4b4 .cfa: sp 144 +
STACK CFI 6e4cc .cfa: sp 0 +
STACK CFI 6e4d0 .cfa: x29 80 +
STACK CFI INIT 6e6dc 644 .cfa: sp 0 +
STACK CFI 6e6e0 .cfa: sp 224 +
STACK CFI 6e6fc .cfa: x29 96 + x19: .cfa -8 + ^ x20: .cfa -16 + ^ x21: .cfa -24 + ^ x22: .cfa -32 + ^ x23: .cfa -40 + ^ x24: .cfa -48 + ^ x25: .cfa -56 + ^ x26: .cfa -64 + ^ x27: .cfa -72 + ^ x28: .cfa -80 + ^ .ra: .cfa -88 + ^ x29: .cfa -96 + ^
STACK CFI 6ebb0 .cfa: sp 224 +
STACK CFI 6ebcc .cfa: sp 0 +
STACK CFI 6ebd0 .cfa: x29 96 +
STACK CFI INIT 6ee28 480 .cfa: sp 0 +
STACK CFI 6ee2c .cfa: sp 224 +
STACK CFI 6ee48 .cfa: x29 96 + x19: .cfa -8 + ^ x20: .cfa -16 + ^ x21: .cfa -24 + ^ x22: .cfa -32 + ^ x23: .cfa -40 + ^ x24: .cfa -48 + ^ x25: .cfa -56 + ^ x26: .cfa -64 + ^ x27: .cfa -80 + ^ .ra: .cfa -88 + ^ x29: .cfa -96 + ^
STACK CFI 6f0b4 .cfa: sp 224 +
STACK CFI 6f0d0 .cfa: sp 0 +
STACK CFI 6f0d4 .cfa: x29 96 +
STACK CFI 6f1a0 .cfa: sp 224 +
STACK CFI 6f1bc .cfa: sp 0 +
STACK CFI 6f1c0 .cfa: x29 96 +
STACK CFI INIT 6f2c4 384 .cfa: sp 0 +
STACK CFI 6f2c8 .cfa: sp 256 +
STACK CFI 6f2dc .cfa: x29 64 + x19: .cfa -8 + ^ x20: .cfa -16 + ^ x21: .cfa -24 + ^ x22: .cfa -32 + ^ x23: .cfa -48 + ^ .ra: .cfa -56 + ^ x29: .cfa -64 + ^
STACK CFI 6f51c .cfa: sp 256 +
STACK CFI 6f530 .cfa: sp 0 +
STACK CFI 6f534 .cfa: x29 64 +
STACK CFI INIT 6faa8 480 .cfa: sp 0 +
STACK CFI 6faac .cfa: sp 224 +
STACK CFI 6fac8 .cfa: x29 96 + x19: .cfa -8 + ^ x20: .cfa -16 + ^ x21: .cfa -24 + ^ x22: .cfa -32 + ^ x23: .cfa -40 + ^ x24: .cfa -48 + ^ x25: .cfa -56 + ^ x26: .cfa -64 + ^ x27: .cfa -80 + ^ .ra: .cfa -88 + ^ x29: .cfa -96 + ^
STACK CFI 6fd34 .cfa: sp 224 +
STACK CFI 6fd50 .cfa: sp 0 +
STACK CFI 6fd54 .cfa: x29 96 +
STACK CFI 6fe20 .cfa: sp 224 +
STACK CFI 6fe3c .cfa: sp 0 +
STACK CFI 6fe40 .cfa: x29 96 +
STACK CFI INIT 6ff44 3cc .cfa: sp 0 +
STACK CFI 6ff48 .cfa: sp 256 +
STACK CFI 6ff5c .cfa: x29 64 + x19: .cfa -8 + ^ x20: .cfa -16 + ^ x21: .cfa -24 + ^ x22: .cfa -32 + ^ x23: .cfa -48 + ^ .ra: .cfa -56 + ^ x29: .cfa -64 + ^
STACK CFI 701d8 .cfa: sp 256 +
STACK CFI 701ec .cfa: sp 0 +
STACK CFI 701f0 .cfa: x29 64 +
STACK CFI INIT 70570 580 .cfa: sp 0 +
STACK CFI 70574 .cfa: sp 80 +
STACK CFI 70588 .cfa: x29 80 + x19: .cfa -8 + ^ x20: .cfa -16 + ^ x21: .cfa -24 + ^ x22: .cfa -32 + ^ x23: .cfa -40 + ^ x24: .cfa -48 + ^ x25: .cfa -56 + ^ x26: .cfa -64 + ^ .ra: .cfa -72 + ^ x29: .cfa -80 + ^
STACK CFI 70a4c .cfa: sp 80 +
STACK CFI 70a60 .cfa: sp 0 +
STACK CFI 70a64 .cfa: x29 80 +
STACK CFI INIT 70e74 f28 .cfa: sp 0 +
STACK CFI 70e78 .cfa: sp 112 +
STACK CFI 70e94 .cfa: x29 96 + x19: .cfa -8 + ^ x20: .cfa -16 + ^ x21: .cfa -24 + ^ x22: .cfa -32 + ^ x23: .cfa -40 + ^ x24: .cfa -48 + ^ x25: .cfa -56 + ^ x26: .cfa -64 + ^ x27: .cfa -72 + ^ x28: .cfa -80 + ^ .ra: .cfa -88 + ^ x29: .cfa -96 + ^ v8: .cfa -112 + ^
STACK CFI 71c0c .cfa: sp 112 +
STACK CFI 71c28 .cfa: sp 0 +
STACK CFI 71c2c .cfa: x29 96 +
STACK CFI INIT 7217c 4e8 .cfa: sp 0 +
STACK CFI 72180 .cfa: sp 96 +
STACK CFI 72198 .cfa: x29 96 + x19: .cfa -8 + ^ x20: .cfa -16 + ^ x21: .cfa -24 + ^ x22: .cfa -32 + ^ x23: .cfa -40 + ^ x24: .cfa -48 + ^ x25: .cfa -56 + ^ x26: .cfa -64 + ^ x27: .cfa -72 + ^ x28: .cfa -80 + ^ .ra: .cfa -88 + ^ x29: .cfa -96 + ^
STACK CFI 725ac .cfa: sp 96 +
STACK CFI 725c4 .cfa: sp 0 +
STACK CFI 725c8 .cfa: x29 96 +
STACK CFI INIT 72664 e4 .cfa: sp 0 +
STACK CFI 72668 .cfa: sp 32 +
STACK CFI 72670 .cfa: x29 32 + x19: .cfa -8 + ^ x20: .cfa -16 + ^ .ra: .cfa -24 + ^ x29: .cfa -32 + ^
STACK CFI 72728 .cfa: sp 32 +
STACK CFI 72730 .cfa: sp 0 +
STACK CFI 72734 .cfa: x29 32 +
STACK CFI INIT 728f4 218 .cfa: sp 0 +
STACK CFI 728f8 .cfa: sp 64 +
STACK CFI 72908 .cfa: x29 48 + x19: .cfa -8 + ^ x20: .cfa -16 + ^ x21: .cfa -32 + ^ .ra: .cfa -40 + ^ x29: .cfa -48 + ^
STACK CFI 72a48 .cfa: sp 64 +
STACK CFI 72a58 .cfa: sp 0 +
STACK CFI 72a5c .cfa: x29 48 +
STACK CFI 72ac0 .cfa: sp 64 +
STACK CFI 72ad0 .cfa: sp 0 +
STACK CFI 72ad4 .cfa: x29 48 +
STACK CFI INIT 72b14 148 .cfa: sp 0 +
STACK CFI 72b18 .cfa: sp 48 +
STACK CFI 72b24 .cfa: x29 48 + x19: .cfa -8 + ^ x20: .cfa -16 + ^ x21: .cfa -32 + ^ .ra: .cfa -40 + ^ x29: .cfa -48 + ^
STACK CFI 72c10 .cfa: sp 48 +
STACK CFI 72c1c .cfa: sp 0 +
STACK CFI 72c20 .cfa: x29 48 +
STACK CFI 72c38 .cfa: sp 48 +
STACK CFI 72c44 .cfa: sp 0 +
STACK CFI 72c48 .cfa: x29 48 +
STACK CFI INIT 72ccc 3fcc .cfa: sp 0 +
STACK CFI 72cd0 .cfa: sp 368 +
STACK CFI 72cf4 .cfa: x29 96 + x19: .cfa -8 + ^ x20: .cfa -16 + ^ x21: .cfa -24 + ^ x22: .cfa -32 + ^ x23: .cfa -40 + ^ x24: .cfa -48 + ^ x25: .cfa -56 + ^ x26: .cfa -64 + ^ x27: .cfa -72 + ^ x28: .cfa -80 + ^ .ra: .cfa -88 + ^ x29: .cfa -96 + ^ v8: .cfa -104 + ^ v9: .cfa -112 + ^ v10: .cfa -128 + ^
STACK CFI 76aa4 .cfa: sp 368 +
STACK CFI 76ac8 .cfa: sp 0 +
STACK CFI 76acc .cfa: x29 96 +
STACK CFI INIT 76f78 180 .cfa: sp 0 +
STACK CFI 76f7c .cfa: sp 64 +
STACK CFI 76f88 .cfa: x29 32 + x19: .cfa -8 + ^ x20: .cfa -16 + ^ .ra: .cfa -24 + ^ x29: .cfa -32 + ^
STACK CFI 770c0 .cfa: sp 64 +
STACK CFI 770cc .cfa: sp 0 +
STACK CFI 770d0 .cfa: x29 32 +
STACK CFI INIT 770f8 6c .cfa: sp 0 +
STACK CFI 770fc .cfa: sp 32 +
STACK CFI 77104 .cfa: x29 32 + x19: .cfa -16 + ^ .ra: .cfa -24 + ^ x29: .cfa -32 + ^
STACK CFI 77154 .cfa: sp 32 +
STACK CFI 7715c .cfa: sp 0 +
STACK CFI 77160 .cfa: x29 32 +
STACK CFI INIT 77164 74 .cfa: sp 0 +
STACK CFI 77168 .cfa: sp 32 +
STACK CFI 77170 .cfa: x29 32 + x19: .cfa -16 + ^ .ra: .cfa -24 + ^ x29: .cfa -32 + ^
STACK CFI 771c8 .cfa: sp 32 +
STACK CFI 771d0 .cfa: sp 0 +
STACK CFI 771d4 .cfa: x29 32 +
STACK CFI INIT 7722c 148 .cfa: sp 0 +
STACK CFI 77230 .cfa: sp 96 +
STACK CFI 77240 .cfa: x29 48 + x19: .cfa -8 + ^ x20: .cfa -16 + ^ x21: .cfa -32 + ^ .ra: .cfa -40 + ^ x29: .cfa -48 + ^
STACK CFI 77328 .cfa: sp 96 +
STACK CFI 77338 .cfa: sp 0 +
STACK CFI 7733c .cfa: x29 48 +
STACK CFI INIT 77374 6c .cfa: sp 0 +
STACK CFI 77378 .cfa: sp 32 +
STACK CFI 77380 .cfa: x29 32 + x19: .cfa -16 + ^ .ra: .cfa -24 + ^ x29: .cfa -32 + ^
STACK CFI 773d0 .cfa: sp 32 +
STACK CFI 773d8 .cfa: sp 0 +
STACK CFI 773dc .cfa: x29 32 +
STACK CFI INIT 773e0 74 .cfa: sp 0 +
STACK CFI 773e4 .cfa: sp 32 +
STACK CFI 773ec .cfa: x29 32 + x19: .cfa -16 + ^ .ra: .cfa -24 + ^ x29: .cfa -32 + ^
STACK CFI 77444 .cfa: sp 32 +
STACK CFI 7744c .cfa: sp 0 +
STACK CFI 77450 .cfa: x29 32 +
STACK CFI INIT 77480 60c .cfa: sp 0 +
STACK CFI 77484 .cfa: sp 224 +
STACK CFI 774a4 .cfa: x29 96 + x19: .cfa -8 + ^ x20: .cfa -16 + ^ x21: .cfa -24 + ^ x22: .cfa -32 + ^ x23: .cfa -40 + ^ x24: .cfa -48 + ^ x25: .cfa -56 + ^ x26: .cfa -64 + ^ x27: .cfa -72 + ^ x28: .cfa -80 + ^ .ra: .cfa -88 + ^ x29: .cfa -96 + ^ v8: .cfa -112 + ^
STACK CFI 77958 .cfa: sp 224 +
STACK CFI 77978 .cfa: sp 0 +
STACK CFI 7797c .cfa: x29 96 +
STACK CFI INIT 77ad8 6c .cfa: sp 0 +
STACK CFI 77adc .cfa: sp 32 +
STACK CFI 77ae4 .cfa: x29 32 + x19: .cfa -16 + ^ .ra: .cfa -24 + ^ x29: .cfa -32 + ^
STACK CFI 77b34 .cfa: sp 32 +
STACK CFI 77b3c .cfa: sp 0 +
STACK CFI 77b40 .cfa: x29 32 +
STACK CFI INIT 77f68 ea0 .cfa: sp 0 +
STACK CFI 77f6c .cfa: sp 128 +
STACK CFI 77f8c .cfa: x29 96 + x19: .cfa -8 + ^ x20: .cfa -16 + ^ x21: .cfa -24 + ^ x22: .cfa -32 + ^ x23: .cfa -40 + ^ x24: .cfa -48 + ^ x25: .cfa -56 + ^ x26: .cfa -64 + ^ x27: .cfa -72 + ^ x28: .cfa -80 + ^ .ra: .cfa -88 + ^ x29: .cfa -96 + ^ v8: .cfa -104 + ^ v9: .cfa -112 + ^ v10: .cfa -128 + ^
STACK CFI 78d68 .cfa: sp 128 +
STACK CFI 78d88 .cfa: sp 0 +
STACK CFI 78d8c .cfa: x29 96 +
STACK CFI INIT 78e14 94 .cfa: sp 0 +
STACK CFI 78e18 .cfa: sp 48 +
STACK CFI 78e24 .cfa: x29 48 + x19: .cfa -8 + ^ x20: .cfa -16 + ^ x21: .cfa -32 + ^ .ra: .cfa -40 + ^ x29: .cfa -48 + ^
STACK CFI 78e84 .cfa: sp 48 +
STACK CFI 78e90 .cfa: sp 0 +
STACK CFI 78e94 .cfa: x29 48 +
STACK CFI INIT 79100 260 .cfa: sp 0 +
STACK CFI 79104 .cfa: sp 160 +
STACK CFI 79114 .cfa: x29 48 + x19: .cfa -8 + ^ x20: .cfa -16 + ^ x21: .cfa -32 + ^ .ra: .cfa -40 + ^ x29: .cfa -48 + ^
STACK CFI 792d4 .cfa: sp 160 +
STACK CFI 792e4 .cfa: sp 0 +
STACK CFI 792e8 .cfa: x29 48 +
STACK CFI INIT 79360 408 .cfa: sp 0 +
STACK CFI 79364 .cfa: sp 112 +
STACK CFI 79380 .cfa: x29 96 + x19: .cfa -8 + ^ x20: .cfa -16 + ^ x21: .cfa -24 + ^ x22: .cfa -32 + ^ x23: .cfa -40 + ^ x24: .cfa -48 + ^ x25: .cfa -56 + ^ x26: .cfa -64 + ^ x27: .cfa -72 + ^ x28: .cfa -80 + ^ .ra: .cfa -88 + ^ x29: .cfa -96 + ^ v8: .cfa -112 + ^
STACK CFI 7964c .cfa: sp 112 +
STACK CFI 79668 .cfa: sp 0 +
STACK CFI 7966c .cfa: x29 96 +
STACK CFI INIT 79810 4c8 .cfa: sp 0 +
STACK CFI 79814 .cfa: sp 176 +
STACK CFI 79834 .cfa: x29 96 + x19: .cfa -8 + ^ x20: .cfa -16 + ^ x21: .cfa -24 + ^ x22: .cfa -32 + ^ x23: .cfa -40 + ^ x24: .cfa -48 + ^ x25: .cfa -56 + ^ x26: .cfa -64 + ^ x27: .cfa -72 + ^ x28: .cfa -80 + ^ .ra: .cfa -88 + ^ x29: .cfa -96 + ^ v8: .cfa -112 + ^
STACK CFI 79c6c .cfa: sp 176 +
STACK CFI 79c8c .cfa: sp 0 +
STACK CFI 79c90 .cfa: x29 96 +
STACK CFI INIT 79da4 3b44 .cfa: sp 0 +
STACK CFI 79da8 .cfa: sp 128 +
STACK CFI 79dc8 .cfa: x29 96 + x19: .cfa -8 + ^ x20: .cfa -16 + ^ x21: .cfa -24 + ^ x22: .cfa -32 + ^ x23: .cfa -40 + ^ x24: .cfa -48 + ^ x25: .cfa -56 + ^ x26: .cfa -64 + ^ x27: .cfa -72 + ^ x28: .cfa -80 + ^ .ra: .cfa -88 + ^ x29: .cfa -96 + ^ v8: .cfa -104 + ^ v9: .cfa -112 + ^ v10: .cfa -128 + ^
STACK CFI 7d734 .cfa: sp 128 +
STACK CFI 7d754 .cfa: sp 0 +
STACK CFI 7d758 .cfa: x29 96 +
STACK CFI INIT 7d93c 608 .cfa: sp 0 +
STACK CFI 7d940 .cfa: sp 224 +
STACK CFI 7d960 .cfa: x29 96 + x19: .cfa -8 + ^ x20: .cfa -16 + ^ x21: .cfa -24 + ^ x22: .cfa -32 + ^ x23: .cfa -40 + ^ x24: .cfa -48 + ^ x25: .cfa -56 + ^ x26: .cfa -64 + ^ x27: .cfa -72 + ^ x28: .cfa -80 + ^ .ra: .cfa -88 + ^ x29: .cfa -96 + ^ v8: .cfa -112 + ^
STACK CFI 7ddc4 .cfa: sp 224 +
STACK CFI 7dde4 .cfa: sp 0 +
STACK CFI 7dde8 .cfa: x29 96 +
STACK CFI INIT 7df84 2264 .cfa: sp 0 +
STACK CFI 7df88 .cfa: sp 112 +
STACK CFI 7dfa4 .cfa: x29 96 + x19: .cfa -8 + ^ x20: .cfa -16 + ^ x21: .cfa -24 + ^ x22: .cfa -32 + ^ x23: .cfa -40 + ^ x24: .cfa -48 + ^ x25: .cfa -56 + ^ x26: .cfa -64 + ^ x27: .cfa -72 + ^ x28: .cfa -80 + ^ .ra: .cfa -88 + ^ x29: .cfa -96 + ^ v8: .cfa -104 + ^ v9: .cfa -112 + ^
STACK CFI 7ff80 .cfa: sp 112 +
STACK CFI 7ff9c .cfa: sp 0 +
STACK CFI 7ffa0 .cfa: x29 96 +
STACK CFI INIT 801e8 1b4 .cfa: sp 0 +
STACK CFI 801ec .cfa: sp 80 +
STACK CFI 80200 .cfa: x29 80 + x19: .cfa -8 + ^ x20: .cfa -16 + ^ x21: .cfa -24 + ^ x22: .cfa -32 + ^ x23: .cfa -40 + ^ x24: .cfa -48 + ^ x25: .cfa -56 + ^ x28: .cfa -64 + ^ .ra: .cfa -72 + ^ x29: .cfa -80 + ^
STACK CFI 802f8 .cfa: sp 80 +
STACK CFI 8030c .cfa: sp 0 +
STACK CFI 80310 .cfa: x29 80 +
STACK CFI INIT 8043c 238 .cfa: sp 0 +
STACK CFI 80440 .cfa: sp 80 +
STACK CFI 80450 .cfa: x29 48 + x19: .cfa -8 + ^ x20: .cfa -16 + ^ x21: .cfa -32 + ^ .ra: .cfa -40 + ^ x29: .cfa -48 + ^
STACK CFI 8059c .cfa: sp 80 +
STACK CFI 805ac .cfa: sp 0 +
STACK CFI 805b0 .cfa: x29 48 +
STACK CFI 80638 .cfa: sp 80 +
STACK CFI 80648 .cfa: sp 0 +
STACK CFI 8064c .cfa: x29 48 +
STACK CFI INIT 81144 12c .cfa: sp 0 +
STACK CFI 81148 .cfa: sp 48 +
STACK CFI 81154 .cfa: x29 48 + x19: .cfa -8 + ^ x20: .cfa -16 + ^ x21: .cfa -32 + ^ .ra: .cfa -40 + ^ x29: .cfa -48 + ^
STACK CFI 8124c .cfa: sp 48 +
STACK CFI 81258 .cfa: sp 0 +
STACK CFI 8125c .cfa: x29 48 +
STACK CFI INIT 812e0 fc0 .cfa: sp 0 +
STACK CFI 812e4 .cfa: sp 208 +
STACK CFI 812fc .cfa: x29 64 + x19: .cfa -8 + ^ x20: .cfa -16 + ^ x21: .cfa -24 + ^ x22: .cfa -32 + ^ x23: .cfa -48 + ^ .ra: .cfa -56 + ^ x29: .cfa -64 + ^ v8: .cfa -72 + ^ v9: .cfa -80 + ^
STACK CFI 821e4 .cfa: sp 208 +
STACK CFI 821fc .cfa: sp 0 +
STACK CFI 82200 .cfa: x29 64 +
STACK CFI INIT 8251c 2b14 .cfa: sp 0 +
STACK CFI 82520 .cfa: sp 96 +
STACK CFI 82538 .cfa: x29 96 + x19: .cfa -8 + ^ x20: .cfa -16 + ^ x21: .cfa -24 + ^ x22: .cfa -32 + ^ x23: .cfa -40 + ^ x24: .cfa -48 + ^ x25: .cfa -56 + ^ x26: .cfa -64 + ^ x27: .cfa -72 + ^ x28: .cfa -80 + ^ .ra: .cfa -88 + ^ x29: .cfa -96 + ^
STACK CFI 84878 .cfa: sp 96 +
STACK CFI 84890 .cfa: sp 0 +
STACK CFI 84894 .cfa: x29 96 +
STACK CFI INIT 857d0 204 .cfa: sp 0 +
STACK CFI 857d4 .cfa: sp 96 +
STACK CFI 857e8 .cfa: x29 40 + x19: .cfa -8 + ^ x20: .cfa -16 + ^ x21: .cfa -24 + ^ .ra: .cfa -32 + ^ x29: .cfa -40 + ^ v8: .cfa -48 + ^
STACK CFI 8598c .cfa: sp 96 +
STACK CFI 859a0 .cfa: sp 0 +
STACK CFI 859a4 .cfa: x29 40 +
STACK CFI INIT 85a5c cc .cfa: sp 0 +
STACK CFI 85a60 .cfa: sp 48 +
STACK CFI 85a6c .cfa: x29 32 + x19: .cfa -8 + ^ x20: .cfa -16 + ^ .ra: .cfa -24 + ^ x29: .cfa -32 + ^
STACK CFI 85af0 .cfa: sp 48 +
STACK CFI 85afc .cfa: sp 0 +
STACK CFI 85b00 .cfa: x29 32 +
STACK CFI INIT 85b58 2024 .cfa: sp 0 +
STACK CFI 85b5c .cfa: sp 320 +
STACK CFI 85b78 .cfa: x29 96 + x19: .cfa -8 + ^ x20: .cfa -16 + ^ x21: .cfa -24 + ^ x22: .cfa -32 + ^ x23: .cfa -40 + ^ x24: .cfa -48 + ^ x25: .cfa -56 + ^ x26: .cfa -64 + ^ x28: .cfa -80 + ^ .ra: .cfa -88 + ^ x29: .cfa -96 + ^
STACK CFI 874b0 .cfa: sp 320 +
STACK CFI 874cc .cfa: sp 0 +
STACK CFI 874d0 .cfa: x29 96 +
STACK CFI INIT 87b7c 5f4 .cfa: sp 0 +
STACK CFI 87b80 .cfa: sp 400 +
STACK CFI 87b94 .cfa: x29 64 + x19: .cfa -8 + ^ x20: .cfa -16 + ^ x21: .cfa -24 + ^ x22: .cfa -32 + ^ x23: .cfa -40 + ^ x28: .cfa -48 + ^ .ra: .cfa -56 + ^ x29: .cfa -64 + ^
STACK CFI 87fe0 .cfa: sp 400 +
STACK CFI 87ff4 .cfa: sp 0 +
STACK CFI 87ff8 .cfa: x29 64 +
STACK CFI INIT 882f4 a8 .cfa: sp 0 +
STACK CFI 882f8 .cfa: sp 48 +
STACK CFI 88304 .cfa: x29 32 + x19: .cfa -8 + ^ x20: .cfa -16 + ^ .ra: .cfa -24 + ^ x29: .cfa -32 + ^
STACK CFI 88364 .cfa: sp 48 +
STACK CFI 88370 .cfa: sp 0 +
STACK CFI 88374 .cfa: x29 32 +
STACK CFI INIT 883a0 114 .cfa: sp 0 +
STACK CFI 883a4 .cfa: sp 32 +
STACK CFI 883ac .cfa: x29 32 + x19: .cfa -8 + ^ x20: .cfa -16 + ^ .ra: .cfa -24 + ^ x29: .cfa -32 + ^
STACK CFI 88454 .cfa: sp 32 +
STACK CFI 8845c .cfa: sp 0 +
STACK CFI 88460 .cfa: x29 32 +
STACK CFI 88478 .cfa: sp 32 +
STACK CFI 88480 .cfa: sp 0 +
STACK CFI 88484 .cfa: x29 32 +
STACK CFI INIT 88614 24c .cfa: sp 0 +
STACK CFI 88618 .cfa: sp 64 +
STACK CFI 88628 .cfa: x29 64 + x19: .cfa -8 + ^ x20: .cfa -16 + ^ x21: .cfa -24 + ^ x22: .cfa -32 + ^ x23: .cfa -40 + ^ x24: .cfa -48 + ^ .ra: .cfa -56 + ^ x29: .cfa -64 + ^
STACK CFI 88708 .cfa: sp 64 +
STACK CFI 88718 .cfa: sp 0 +
STACK CFI 8871c .cfa: x29 64 +
STACK CFI 88794 .cfa: sp 64 +
STACK CFI 887a4 .cfa: sp 0 +
STACK CFI 887a8 .cfa: x29 64 +
STACK CFI 887fc .cfa: sp 64 +
STACK CFI 8880c .cfa: sp 0 +
STACK CFI 88810 .cfa: x29 64 +
STACK CFI INIT 889d0 3ec .cfa: sp 0 +
STACK CFI 889d4 .cfa: sp 160 +
STACK CFI 889f0 .cfa: x29 96 + x19: .cfa -8 + ^ x20: .cfa -16 + ^ x21: .cfa -24 + ^ x22: .cfa -32 + ^ x23: .cfa -40 + ^ x24: .cfa -48 + ^ x25: .cfa -56 + ^ x26: .cfa -64 + ^ x27: .cfa -80 + ^ .ra: .cfa -88 + ^ x29: .cfa -96 + ^
STACK CFI 88d54 .cfa: sp 160 +
STACK CFI 88d70 .cfa: sp 0 +
STACK CFI 88d74 .cfa: x29 96 +
STACK CFI INIT 88dd8 144 .cfa: sp 0 +
STACK CFI 88ddc .cfa: sp 144 +
STACK CFI 88df0 .cfa: x29 64 + x19: .cfa -8 + ^ x20: .cfa -16 + ^ x21: .cfa -24 + ^ x22: .cfa -32 + ^ x23: .cfa -40 + ^ x24: .cfa -48 + ^ .ra: .cfa -56 + ^ x29: .cfa -64 + ^
STACK CFI 88eb0 .cfa: sp 144 +
STACK CFI 88ec4 .cfa: sp 0 +
STACK CFI 88ec8 .cfa: x29 64 +
STACK CFI INIT 88fcc bb0 .cfa: sp 0 +
STACK CFI 88fd0 .cfa: sp 192 +
STACK CFI 88fec .cfa: x29 72 + x19: .cfa -8 + ^ x20: .cfa -16 + ^ x21: .cfa -24 + ^ x22: .cfa -32 + ^ x23: .cfa -40 + ^ x24: .cfa -48 + ^ x25: .cfa -56 + ^ .ra: .cfa -64 + ^ x29: .cfa -72 + ^ v8: .cfa -80 + ^
STACK CFI 89ad0 .cfa: sp 192 +
STACK CFI 89aec .cfa: sp 0 +
STACK CFI 89af0 .cfa: x29 72 +
STACK CFI INIT 89ca8 2604 .cfa: sp 0 +
STACK CFI 89cac .cfa: sp 96 +
STACK CFI 89cc4 .cfa: x29 96 + x19: .cfa -8 + ^ x20: .cfa -16 + ^ x21: .cfa -24 + ^ x22: .cfa -32 + ^ x23: .cfa -40 + ^ x24: .cfa -48 + ^ x25: .cfa -56 + ^ x26: .cfa -64 + ^ x27: .cfa -72 + ^ x28: .cfa -80 + ^ .ra: .cfa -88 + ^ x29: .cfa -96 + ^
STACK CFI 8bd38 .cfa: sp 96 +
STACK CFI 8bd50 .cfa: sp 0 +
STACK CFI 8bd54 .cfa: x29 96 +
STACK CFI INIT 8c2ac 4a68 .cfa: sp 0 +
STACK CFI 8c2b0 .cfa: sp 480 +
STACK CFI 8c2cc .cfa: x29 96 + x19: .cfa -8 + ^ x20: .cfa -16 + ^ x21: .cfa -24 + ^ x22: .cfa -32 + ^ x23: .cfa -40 + ^ x24: .cfa -48 + ^ x25: .cfa -56 + ^ x26: .cfa -64 + ^ x27: .cfa -72 + ^ x28: .cfa -80 + ^ .ra: .cfa -88 + ^ x29: .cfa -96 + ^
STACK CFI 905fc .cfa: sp 480 +
STACK CFI 90618 .cfa: sp 0 +
STACK CFI 9061c .cfa: x29 96 +
STACK CFI INIT 90d14 1c3c .cfa: sp 0 +
STACK CFI 90d18 .cfa: sp 80 +
STACK CFI 90d2c .cfa: x29 80 + x19: .cfa -8 + ^ x20: .cfa -16 + ^ x21: .cfa -24 + ^ x22: .cfa -32 + ^ x23: .cfa -40 + ^ x24: .cfa -48 + ^ x25: .cfa -56 + ^ x28: .cfa -64 + ^ .ra: .cfa -72 + ^ x29: .cfa -80 + ^
STACK CFI 91fcc .cfa: sp 80 +
STACK CFI 91fe0 .cfa: sp 0 +
STACK CFI 91fe4 .cfa: x29 80 +
STACK CFI INIT 92a88 a0 .cfa: sp 0 +
STACK CFI 92a8c .cfa: sp 48 +
STACK CFI 92a98 .cfa: x29 32 + x19: .cfa -8 + ^ x20: .cfa -16 + ^ .ra: .cfa -24 + ^ x29: .cfa -32 + ^
STACK CFI 92af0 .cfa: sp 48 +
STACK CFI 92afc .cfa: sp 0 +
STACK CFI 92b00 .cfa: x29 32 +
STACK CFI INIT 92b28 a0 .cfa: sp 0 +
STACK CFI 92b2c .cfa: sp 48 +
STACK CFI 92b38 .cfa: x29 32 + x19: .cfa -8 + ^ x20: .cfa -16 + ^ .ra: .cfa -24 + ^ x29: .cfa -32 + ^
STACK CFI 92b90 .cfa: sp 48 +
STACK CFI 92b9c .cfa: sp 0 +
STACK CFI 92ba0 .cfa: x29 32 +
STACK CFI INIT 92d94 11c .cfa: sp 0 +
STACK CFI 92d98 .cfa: sp 96 +
STACK CFI 92dac .cfa: x29 64 + x19: .cfa -8 + ^ x20: .cfa -16 + ^ x21: .cfa -24 + ^ x22: .cfa -32 + ^ x23: .cfa -40 + ^ x24: .cfa -48 + ^ .ra: .cfa -56 + ^ x29: .cfa -64 + ^
STACK CFI 92e34 .cfa: sp 96 +
STACK CFI 92e48 .cfa: sp 0 +
STACK CFI 92e4c .cfa: x29 64 +
STACK CFI INIT 92ec4 66d8 .cfa: sp 0 +
STACK CFI 92ec8 .cfa: sp 96 +
STACK CFI 92ee0 .cfa: x29 96 + x19: .cfa -8 + ^ x20: .cfa -16 + ^ x21: .cfa -24 + ^ x22: .cfa -32 + ^ x23: .cfa -40 + ^ x24: .cfa -48 + ^ x25: .cfa -56 + ^ x26: .cfa -64 + ^ x27: .cfa -72 + ^ x28: .cfa -80 + ^ .ra: .cfa -88 + ^ x29: .cfa -96 + ^
STACK CFI 971d4 .cfa: sp 96 +
STACK CFI 971ec .cfa: sp 0 +
STACK CFI 971f0 .cfa: x29 96 +
STACK CFI INIT 9959c 244 .cfa: sp 0 +
STACK CFI 995a0 .cfa: sp 192 +
STACK CFI 995bc .cfa: x29 96 + x19: .cfa -8 + ^ x20: .cfa -16 + ^ x21: .cfa -24 + ^ x22: .cfa -32 + ^ x23: .cfa -40 + ^ x24: .cfa -48 + ^ x25: .cfa -56 + ^ x26: .cfa -64 + ^ x27: .cfa -72 + ^ x28: .cfa -80 + ^ .ra: .cfa -88 + ^ x29: .cfa -96 + ^
STACK CFI 9976c .cfa: sp 192 +
STACK CFI 99788 .cfa: sp 0 +
STACK CFI 9978c .cfa: x29 96 +
STACK CFI INIT 997e0 43c .cfa: sp 0 +
STACK CFI 997e4 .cfa: sp 224 +
STACK CFI 99800 .cfa: x29 96 + x19: .cfa -8 + ^ x20: .cfa -16 + ^ x21: .cfa -24 + ^ x22: .cfa -32 + ^ x23: .cfa -40 + ^ x24: .cfa -48 + ^ x25: .cfa -56 + ^ x26: .cfa -64 + ^ x27: .cfa -72 + ^ x28: .cfa -80 + ^ .ra: .cfa -88 + ^ x29: .cfa -96 + ^
STACK CFI 99b14 .cfa: sp 224 +
STACK CFI 99b30 .cfa: sp 0 +
STACK CFI 99b34 .cfa: x29 96 +
STACK CFI INIT 9a5f8 480 .cfa: sp 0 +
STACK CFI 9a5fc .cfa: sp 224 +
STACK CFI 9a618 .cfa: x29 96 + x19: .cfa -8 + ^ x20: .cfa -16 + ^ x21: .cfa -24 + ^ x22: .cfa -32 + ^ x23: .cfa -40 + ^ x24: .cfa -48 + ^ x25: .cfa -56 + ^ x26: .cfa -64 + ^ x27: .cfa -80 + ^ .ra: .cfa -88 + ^ x29: .cfa -96 + ^
STACK CFI 9a884 .cfa: sp 224 +
STACK CFI 9a8a0 .cfa: sp 0 +
STACK CFI 9a8a4 .cfa: x29 96 +
STACK CFI 9a970 .cfa: sp 224 +
STACK CFI 9a98c .cfa: sp 0 +
STACK CFI 9a990 .cfa: x29 96 +
STACK CFI INIT 9aa94 480 .cfa: sp 0 +
STACK CFI 9aa98 .cfa: sp 224 +
STACK CFI 9aab4 .cfa: x29 96 + x19: .cfa -8 + ^ x20: .cfa -16 + ^ x21: .cfa -24 + ^ x22: .cfa -32 + ^ x23: .cfa -40 + ^ x24: .cfa -48 + ^ x25: .cfa -56 + ^ x26: .cfa -64 + ^ x27: .cfa -80 + ^ .ra: .cfa -88 + ^ x29: .cfa -96 + ^
STACK CFI 9ad20 .cfa: sp 224 +
STACK CFI 9ad3c .cfa: sp 0 +
STACK CFI 9ad40 .cfa: x29 96 +
STACK CFI 9ae0c .cfa: sp 224 +
STACK CFI 9ae28 .cfa: sp 0 +
STACK CFI 9ae2c .cfa: x29 96 +
STACK CFI INIT 99c1c 43c .cfa: sp 0 +
STACK CFI 99c20 .cfa: sp 224 +
STACK CFI 99c3c .cfa: x29 96 + x19: .cfa -8 + ^ x20: .cfa -16 + ^ x21: .cfa -24 + ^ x22: .cfa -32 + ^ x23: .cfa -40 + ^ x24: .cfa -48 + ^ x25: .cfa -56 + ^ x26: .cfa -64 + ^ x27: .cfa -72 + ^ x28: .cfa -80 + ^ .ra: .cfa -88 + ^ x29: .cfa -96 + ^
STACK CFI 99f50 .cfa: sp 224 +
STACK CFI 99f6c .cfa: sp 0 +
STACK CFI 99f70 .cfa: x29 96 +
STACK CFI INIT 9a058 43c .cfa: sp 0 +
STACK CFI 9a05c .cfa: sp 224 +
STACK CFI 9a078 .cfa: x29 96 + x19: .cfa -8 + ^ x20: .cfa -16 + ^ x21: .cfa -24 + ^ x22: .cfa -32 + ^ x23: .cfa -40 + ^ x24: .cfa -48 + ^ x25: .cfa -56 + ^ x26: .cfa -64 + ^ x27: .cfa -72 + ^ x28: .cfa -80 + ^ .ra: .cfa -88 + ^ x29: .cfa -96 + ^
STACK CFI 9a38c .cfa: sp 224 +
STACK CFI 9a3a8 .cfa: sp 0 +
STACK CFI 9a3ac .cfa: x29 96 +
STACK CFI INIT 9af6c 174 .cfa: sp 0 +
STACK CFI 9af70 .cfa: sp 112 +
STACK CFI 9af80 .cfa: x29 48 + x19: .cfa -8 + ^ x20: .cfa -16 + ^ x21: .cfa -32 + ^ .ra: .cfa -40 + ^ x29: .cfa -48 + ^
STACK CFI 9b07c .cfa: sp 112 +
STACK CFI 9b08c .cfa: sp 0 +
STACK CFI 9b090 .cfa: x29 48 +
STACK CFI INIT 9b230 364 .cfa: sp 0 +
STACK CFI 9b234 .cfa: sp 208 +
STACK CFI 9b248 .cfa: x29 64 + x19: .cfa -8 + ^ x20: .cfa -16 + ^ x21: .cfa -24 + ^ x22: .cfa -32 + ^ x23: .cfa -48 + ^ .ra: .cfa -56 + ^ x29: .cfa -64 + ^
STACK CFI 9b470 .cfa: sp 208 +
STACK CFI 9b484 .cfa: sp 0 +
STACK CFI 9b488 .cfa: x29 64 +
STACK CFI INIT 9b598 1e0 .cfa: sp 0 +
STACK CFI 9b59c .cfa: sp 80 +
STACK CFI 9b5b0 .cfa: x29 80 + x19: .cfa -8 + ^ x20: .cfa -16 + ^ x21: .cfa -24 + ^ x22: .cfa -32 + ^ x23: .cfa -40 + ^ x24: .cfa -48 + ^ x25: .cfa -56 + ^ x28: .cfa -64 + ^ .ra: .cfa -72 + ^ x29: .cfa -80 + ^
STACK CFI 9b6c4 .cfa: sp 80 +
STACK CFI 9b6d8 .cfa: sp 0 +
STACK CFI 9b6dc .cfa: x29 80 +
STACK CFI INIT 9b778 388 .cfa: sp 0 +
STACK CFI 9b77c .cfa: sp 240 +
STACK CFI 9b790 .cfa: x29 64 + x19: .cfa -8 + ^ x20: .cfa -16 + ^ x21: .cfa -24 + ^ x22: .cfa -32 + ^ x23: .cfa -40 + ^ x24: .cfa -48 + ^ .ra: .cfa -56 + ^ x29: .cfa -64 + ^
STACK CFI 9b9d4 .cfa: sp 240 +
STACK CFI 9b9e8 .cfa: sp 0 +
STACK CFI 9b9ec .cfa: x29 64 +
STACK CFI INIT 9bb04 138 .cfa: sp 0 +
STACK CFI 9bb08 .cfa: sp 64 +
STACK CFI 9bb18 .cfa: x29 48 + x19: .cfa -8 + ^ x20: .cfa -16 + ^ x21: .cfa -24 + ^ x22: .cfa -32 + ^ .ra: .cfa -40 + ^ x29: .cfa -48 + ^
STACK CFI 9bc00 .cfa: sp 64 +
STACK CFI 9bc10 .cfa: sp 0 +
STACK CFI 9bc14 .cfa: x29 48 +
STACK CFI INIT 9bc3c 140 .cfa: sp 0 +
STACK CFI 9bc40 .cfa: sp 336 +
STACK CFI 9bc54 .cfa: x29 64 + x19: .cfa -8 + ^ x20: .cfa -16 + ^ x21: .cfa -24 + ^ x22: .cfa -32 + ^ x28: .cfa -48 + ^ .ra: .cfa -56 + ^ x29: .cfa -64 + ^
STACK CFI 9bd3c .cfa: sp 336 +
STACK CFI 9bd50 .cfa: sp 0 +
STACK CFI 9bd54 .cfa: x29 64 +
STACK CFI INIT 9bd7c 49c .cfa: sp 0 +
STACK CFI 9bd80 .cfa: sp 176 +
STACK CFI 9bd94 .cfa: x29 64 + x19: .cfa -8 + ^ x20: .cfa -16 + ^ x21: .cfa -24 + ^ x22: .cfa -32 + ^ x23: .cfa -40 + ^ x24: .cfa -48 + ^ .ra: .cfa -56 + ^ x29: .cfa -64 + ^
STACK CFI 9c0c4 .cfa: sp 176 +
STACK CFI 9c0d8 .cfa: sp 0 +
STACK CFI 9c0dc .cfa: x29 64 +
STACK CFI INIT 9c21c 184 .cfa: sp 0 +
STACK CFI 9c220 .cfa: sp 144 +
STACK CFI 9c238 .cfa: x29 80 + x19: .cfa -8 + ^ x20: .cfa -16 + ^ x21: .cfa -24 + ^ x22: .cfa -32 + ^ x23: .cfa -40 + ^ x24: .cfa -48 + ^ x25: .cfa -56 + ^ x26: .cfa -64 + ^ .ra: .cfa -72 + ^ x29: .cfa -80 + ^
STACK CFI 9c338 .cfa: sp 144 +
STACK CFI 9c350 .cfa: sp 0 +
STACK CFI 9c354 .cfa: x29 80 +
STACK CFI INIT 9c3a0 110 .cfa: sp 0 +
STACK CFI 9c3a4 .cfa: sp 80 +
STACK CFI 9c3b0 .cfa: x29 32 + x19: .cfa -8 + ^ x20: .cfa -16 + ^ .ra: .cfa -24 + ^ x29: .cfa -32 + ^
STACK CFI 9c460 .cfa: sp 80 +
STACK CFI 9c46c .cfa: sp 0 +
STACK CFI 9c470 .cfa: x29 32 +
STACK CFI INIT 9c4b0 11c .cfa: sp 0 +
STACK CFI 9c4b4 .cfa: sp 80 +
STACK CFI 9c4c0 .cfa: x29 32 + x19: .cfa -8 + ^ x20: .cfa -16 + ^ .ra: .cfa -24 + ^ x29: .cfa -32 + ^
STACK CFI 9c57c .cfa: sp 80 +
STACK CFI 9c588 .cfa: sp 0 +
STACK CFI 9c58c .cfa: x29 32 +
STACK CFI INIT 9c5cc 330 .cfa: sp 0 +
STACK CFI 9c5d0 .cfa: sp 224 +
STACK CFI 9c5e4 .cfa: x29 64 + x19: .cfa -8 + ^ x20: .cfa -16 + ^ x21: .cfa -24 + ^ x22: .cfa -32 + ^ x23: .cfa -48 + ^ .ra: .cfa -56 + ^ x29: .cfa -64 + ^
STACK CFI 9c7ec .cfa: sp 224 +
STACK CFI 9c800 .cfa: sp 0 +
STACK CFI 9c804 .cfa: x29 64 +
STACK CFI INIT 9ca50 a8 .cfa: sp 0 +
STACK CFI 9ca54 .cfa: sp 32 +
STACK CFI 9ca5c .cfa: x29 32 + x19: .cfa -16 + ^ .ra: .cfa -24 + ^ x29: .cfa -32 + ^
STACK CFI 9ca90 .cfa: sp 32 +
STACK CFI 9ca98 .cfa: sp 0 +
STACK CFI 9ca9c .cfa: x29 32 +
STACK CFI 9caa0 .cfa: sp 32 +
STACK CFI 9caa8 .cfa: sp 0 +
STACK CFI 9caac .cfa: x29 32 +
STACK CFI INIT 9cb80 388 .cfa: sp 0 +
STACK CFI 9cb84 .cfa: sp 256 +
STACK CFI 9cb98 .cfa: x29 64 + x19: .cfa -8 + ^ x20: .cfa -16 + ^ x21: .cfa -24 + ^ x22: .cfa -32 + ^ x23: .cfa -48 + ^ .ra: .cfa -56 + ^ x29: .cfa -64 + ^
STACK CFI 9cddc .cfa: sp 256 +
STACK CFI 9cdf0 .cfa: sp 0 +
STACK CFI 9cdf4 .cfa: x29 64 +
STACK CFI INIT 9a494 148 .cfa: sp 0 +
STACK CFI 9a498 .cfa: sp 80 +
STACK CFI 9a4a8 .cfa: x29 48 + x19: .cfa -8 + ^ x20: .cfa -16 + ^ x21: .cfa -32 + ^ .ra: .cfa -40 + ^ x29: .cfa -48 + ^
STACK CFI 9a55c .cfa: sp 80 +
STACK CFI 9a56c .cfa: sp 0 +
STACK CFI 9a570 .cfa: x29 48 +
STACK CFI INIT 9cfc8 720 .cfa: sp 0 +
STACK CFI 9cfcc .cfa: sp 112 +
STACK CFI 9cfe8 .cfa: x29 96 + x19: .cfa -8 + ^ x20: .cfa -16 + ^ x21: .cfa -24 + ^ x22: .cfa -32 + ^ x23: .cfa -40 + ^ x24: .cfa -48 + ^ x25: .cfa -56 + ^ x26: .cfa -64 + ^ x27: .cfa -72 + ^ x28: .cfa -80 + ^ .ra: .cfa -88 + ^ x29: .cfa -96 + ^ v8: .cfa -112 + ^
STACK CFI 9d658 .cfa: sp 112 +
STACK CFI 9d674 .cfa: sp 0 +
STACK CFI 9d678 .cfa: x29 96 +
STACK CFI INIT 9d6e8 404 .cfa: sp 0 +
STACK CFI 9d6ec .cfa: sp 112 +
STACK CFI 9d708 .cfa: x29 96 + x19: .cfa -8 + ^ x20: .cfa -16 + ^ x21: .cfa -24 + ^ x22: .cfa -32 + ^ x23: .cfa -40 + ^ x24: .cfa -48 + ^ x25: .cfa -56 + ^ x26: .cfa -64 + ^ x27: .cfa -72 + ^ x28: .cfa -80 + ^ .ra: .cfa -88 + ^ x29: .cfa -96 + ^ v8: .cfa -112 + ^
STACK CFI 9d9d0 .cfa: sp 112 +
STACK CFI 9d9ec .cfa: sp 0 +
STACK CFI 9d9f0 .cfa: x29 96 +
STACK CFI INIT 9daec 164 .cfa: sp 0 +
STACK CFI 9daf0 .cfa: sp 64 +
STACK CFI 9dafc .cfa: x29 32 + x19: .cfa -8 + ^ x20: .cfa -16 + ^ .ra: .cfa -24 + ^ x29: .cfa -32 + ^
STACK CFI 9dc18 .cfa: sp 64 +
STACK CFI 9dc24 .cfa: sp 0 +
STACK CFI 9dc28 .cfa: x29 32 +
STACK CFI INIT 9dc50 74 .cfa: sp 0 +
STACK CFI 9dc54 .cfa: sp 32 +
STACK CFI 9dc5c .cfa: x29 32 + x19: .cfa -16 + ^ .ra: .cfa -24 + ^ x29: .cfa -32 + ^
STACK CFI 9dcb4 .cfa: sp 32 +
STACK CFI 9dcbc .cfa: sp 0 +
STACK CFI 9dcc0 .cfa: x29 32 +
STACK CFI INIT 9dcc4 6c .cfa: sp 0 +
STACK CFI 9dcc8 .cfa: sp 32 +
STACK CFI 9dcd0 .cfa: x29 32 + x19: .cfa -16 + ^ .ra: .cfa -24 + ^ x29: .cfa -32 + ^
STACK CFI 9dd20 .cfa: sp 32 +
STACK CFI 9dd28 .cfa: sp 0 +
STACK CFI 9dd2c .cfa: x29 32 +
STACK CFI INIT 9dd30 74 .cfa: sp 0 +
STACK CFI 9dd34 .cfa: sp 32 +
STACK CFI 9dd3c .cfa: x29 32 + x19: .cfa -16 + ^ .ra: .cfa -24 + ^ x29: .cfa -32 + ^
STACK CFI 9dd94 .cfa: sp 32 +
STACK CFI 9dd9c .cfa: sp 0 +
STACK CFI 9dda0 .cfa: x29 32 +
STACK CFI INIT 9dda4 314 .cfa: sp 0 +
STACK CFI 9dda8 .cfa: sp 128 +
STACK CFI 9ddb8 .cfa: x29 48 + x19: .cfa -8 + ^ x20: .cfa -16 + ^ x21: .cfa -24 + ^ x22: .cfa -32 + ^ .ra: .cfa -40 + ^ x29: .cfa -48 + ^
STACK CFI 9e074 .cfa: sp 128 +
STACK CFI 9e084 .cfa: sp 0 +
STACK CFI 9e088 .cfa: x29 48 +
STACK CFI INIT 9e0e4 190 .cfa: sp 0 +
STACK CFI 9e0e8 .cfa: sp 80 +
STACK CFI 9e0f8 .cfa: x29 48 + x19: .cfa -8 + ^ x20: .cfa -16 + ^ x21: .cfa -24 + ^ x22: .cfa -32 + ^ .ra: .cfa -40 + ^ x29: .cfa -48 + ^
STACK CFI 9e238 .cfa: sp 80 +
STACK CFI 9e248 .cfa: sp 0 +
STACK CFI 9e24c .cfa: x29 48 +
STACK CFI INIT 9e274 6c .cfa: sp 0 +
STACK CFI 9e278 .cfa: sp 32 +
STACK CFI 9e280 .cfa: x29 32 + x19: .cfa -16 + ^ .ra: .cfa -24 + ^ x29: .cfa -32 + ^
STACK CFI 9e2d0 .cfa: sp 32 +
STACK CFI 9e2d8 .cfa: sp 0 +
STACK CFI 9e2dc .cfa: x29 32 +
STACK CFI INIT 9e2e0 74 .cfa: sp 0 +
STACK CFI 9e2e4 .cfa: sp 32 +
STACK CFI 9e2ec .cfa: x29 32 + x19: .cfa -16 + ^ .ra: .cfa -24 + ^ x29: .cfa -32 + ^
STACK CFI 9e344 .cfa: sp 32 +
STACK CFI 9e34c .cfa: sp 0 +
STACK CFI 9e350 .cfa: x29 32 +
STACK CFI INIT 9e3a8 148 .cfa: sp 0 +
STACK CFI 9e3ac .cfa: sp 96 +
STACK CFI 9e3bc .cfa: x29 48 + x19: .cfa -8 + ^ x20: .cfa -16 + ^ x21: .cfa -32 + ^ .ra: .cfa -40 + ^ x29: .cfa -48 + ^
STACK CFI 9e4a4 .cfa: sp 96 +
STACK CFI 9e4b4 .cfa: sp 0 +
STACK CFI 9e4b8 .cfa: x29 48 +
STACK CFI INIT 9e4f0 6c .cfa: sp 0 +
STACK CFI 9e4f4 .cfa: sp 32 +
STACK CFI 9e4fc .cfa: x29 32 + x19: .cfa -16 + ^ .ra: .cfa -24 + ^ x29: .cfa -32 + ^
STACK CFI 9e54c .cfa: sp 32 +
STACK CFI 9e554 .cfa: sp 0 +
STACK CFI 9e558 .cfa: x29 32 +
STACK CFI INIT 9e55c 74 .cfa: sp 0 +
STACK CFI 9e560 .cfa: sp 32 +
STACK CFI 9e568 .cfa: x29 32 + x19: .cfa -16 + ^ .ra: .cfa -24 + ^ x29: .cfa -32 + ^
STACK CFI 9e5c0 .cfa: sp 32 +
STACK CFI 9e5c8 .cfa: sp 0 +
STACK CFI 9e5cc .cfa: x29 32 +
STACK CFI INIT 9e600 6c .cfa: sp 0 +
STACK CFI 9e604 .cfa: sp 32 +
STACK CFI 9e60c .cfa: x29 32 + x19: .cfa -16 + ^ .ra: .cfa -24 + ^ x29: .cfa -32 + ^
STACK CFI 9e65c .cfa: sp 32 +
STACK CFI 9e664 .cfa: sp 0 +
STACK CFI 9e668 .cfa: x29 32 +
STACK CFI INIT 9ea8c 145c .cfa: sp 0 +
STACK CFI 9ea90 .cfa: sp 144 +
STACK CFI 9eab4 .cfa: x29 96 + x19: .cfa -8 + ^ x20: .cfa -16 + ^ x21: .cfa -24 + ^ x22: .cfa -32 + ^ x23: .cfa -40 + ^ x24: .cfa -48 + ^ x25: .cfa -56 + ^ x26: .cfa -64 + ^ x27: .cfa -72 + ^ x28: .cfa -80 + ^ .ra: .cfa -88 + ^ x29: .cfa -96 + ^ v8: .cfa -104 + ^ v9: .cfa -112 + ^ v10: .cfa -120 + ^ v11: .cfa -128 + ^ v12: .cfa -144 + ^
STACK CFI 9fb28 .cfa: sp 144 +
STACK CFI 9fb4c .cfa: sp 0 +
STACK CFI 9fb50 .cfa: x29 96 +
STACK CFI INIT 9fee8 164 .cfa: sp 0 +
STACK CFI 9feec .cfa: sp 96 +
STACK CFI 9fefc .cfa: x29 48 + x19: .cfa -8 + ^ x20: .cfa -16 + ^ x21: .cfa -24 + ^ x22: .cfa -32 + ^ .ra: .cfa -40 + ^ x29: .cfa -48 + ^
STACK CFI a0004 .cfa: sp 96 +
STACK CFI a0014 .cfa: sp 0 +
STACK CFI a0018 .cfa: x29 48 +
STACK CFI INIT a006c 2fc .cfa: sp 0 +
STACK CFI a0070 .cfa: sp 112 +
STACK CFI a008c .cfa: x29 96 + x19: .cfa -8 + ^ x20: .cfa -16 + ^ x21: .cfa -24 + ^ x22: .cfa -32 + ^ x23: .cfa -40 + ^ x24: .cfa -48 + ^ x25: .cfa -56 + ^ x26: .cfa -64 + ^ x27: .cfa -72 + ^ x28: .cfa -80 + ^ .ra: .cfa -88 + ^ x29: .cfa -96 + ^ v8: .cfa -112 + ^
STACK CFI a02ac .cfa: sp 112 +
STACK CFI a02c8 .cfa: sp 0 +
STACK CFI a02cc .cfa: x29 96 +
STACK CFI INIT a0368 1ac .cfa: sp 0 +
STACK CFI a036c .cfa: sp 80 +
STACK CFI a037c .cfa: x29 48 + x19: .cfa -8 + ^ x20: .cfa -16 + ^ x21: .cfa -24 + ^ x22: .cfa -32 + ^ .ra: .cfa -40 + ^ x29: .cfa -48 + ^
STACK CFI a04c0 .cfa: sp 80 +
STACK CFI a04d0 .cfa: sp 0 +
STACK CFI a04d4 .cfa: x29 48 +
STACK CFI INIT a0514 1a4 .cfa: sp 0 +
STACK CFI a0518 .cfa: sp 112 +
STACK CFI a0528 .cfa: x29 48 + x19: .cfa -8 + ^ x20: .cfa -16 + ^ x21: .cfa -32 + ^ .ra: .cfa -40 + ^ x29: .cfa -48 + ^
STACK CFI a0668 .cfa: sp 112 +
STACK CFI a0678 .cfa: sp 0 +
STACK CFI a067c .cfa: x29 48 +
STACK CFI INIT a06b8 6c .cfa: sp 0 +
STACK CFI a06bc .cfa: sp 32 +
STACK CFI a06c4 .cfa: x29 32 + x19: .cfa -16 + ^ .ra: .cfa -24 + ^ x29: .cfa -32 + ^
STACK CFI a0714 .cfa: sp 32 +
STACK CFI a071c .cfa: sp 0 +
STACK CFI a0720 .cfa: x29 32 +
STACK CFI INIT a0724 74 .cfa: sp 0 +
STACK CFI a0728 .cfa: sp 32 +
STACK CFI a0730 .cfa: x29 32 + x19: .cfa -16 + ^ .ra: .cfa -24 + ^ x29: .cfa -32 + ^
STACK CFI a0788 .cfa: sp 32 +
STACK CFI a0790 .cfa: sp 0 +
STACK CFI a0794 .cfa: x29 32 +
STACK CFI INIT a07ec 148 .cfa: sp 0 +
STACK CFI a07f0 .cfa: sp 96 +
STACK CFI a0800 .cfa: x29 48 + x19: .cfa -8 + ^ x20: .cfa -16 + ^ x21: .cfa -32 + ^ .ra: .cfa -40 + ^ x29: .cfa -48 + ^
STACK CFI a08e8 .cfa: sp 96 +
STACK CFI a08f8 .cfa: sp 0 +
STACK CFI a08fc .cfa: x29 48 +
STACK CFI INIT a0934 6c .cfa: sp 0 +
STACK CFI a0938 .cfa: sp 32 +
STACK CFI a0940 .cfa: x29 32 + x19: .cfa -16 + ^ .ra: .cfa -24 + ^ x29: .cfa -32 + ^
STACK CFI a0990 .cfa: sp 32 +
STACK CFI a0998 .cfa: sp 0 +
STACK CFI a099c .cfa: x29 32 +
STACK CFI INIT a09a0 74 .cfa: sp 0 +
STACK CFI a09a4 .cfa: sp 32 +
STACK CFI a09ac .cfa: x29 32 + x19: .cfa -16 + ^ .ra: .cfa -24 + ^ x29: .cfa -32 + ^
STACK CFI a0a04 .cfa: sp 32 +
STACK CFI a0a0c .cfa: sp 0 +
STACK CFI a0a10 .cfa: x29 32 +
STACK CFI INIT a0a44 6c .cfa: sp 0 +
STACK CFI a0a48 .cfa: sp 32 +
STACK CFI a0a50 .cfa: x29 32 + x19: .cfa -16 + ^ .ra: .cfa -24 + ^ x29: .cfa -32 + ^
STACK CFI a0aa0 .cfa: sp 32 +
STACK CFI a0aa8 .cfa: sp 0 +
STACK CFI a0aac .cfa: x29 32 +
STACK CFI INIT a0efc 358 .cfa: sp 0 +
STACK CFI a0f00 .cfa: sp 160 +
STACK CFI a0f18 .cfa: x29 64 + x19: .cfa -8 + ^ x20: .cfa -16 + ^ x21: .cfa -24 + ^ x22: .cfa -32 + ^ x23: .cfa -48 + ^ .ra: .cfa -56 + ^ x29: .cfa -64 + ^ v8: .cfa -72 + ^ v9: .cfa -80 + ^
STACK CFI a11ac .cfa: sp 160 +
STACK CFI a11c4 .cfa: sp 0 +
STACK CFI a11c8 .cfa: x29 64 +
STACK CFI INIT a12b8 184 .cfa: sp 0 +
STACK CFI a12bc .cfa: sp 80 +
STACK CFI a12cc .cfa: x29 48 + x19: .cfa -8 + ^ x20: .cfa -16 + ^ x21: .cfa -24 + ^ x22: .cfa -32 + ^ .ra: .cfa -40 + ^ x29: .cfa -48 + ^
STACK CFI a1400 .cfa: sp 80 +
STACK CFI a1410 .cfa: sp 0 +
STACK CFI a1414 .cfa: x29 48 +
STACK CFI INIT a143c 6c .cfa: sp 0 +
STACK CFI a1440 .cfa: sp 32 +
STACK CFI a1448 .cfa: x29 32 + x19: .cfa -16 + ^ .ra: .cfa -24 + ^ x29: .cfa -32 + ^
STACK CFI a1498 .cfa: sp 32 +
STACK CFI a14a0 .cfa: sp 0 +
STACK CFI a14a4 .cfa: x29 32 +
STACK CFI INIT a14a8 74 .cfa: sp 0 +
STACK CFI a14ac .cfa: sp 32 +
STACK CFI a14b4 .cfa: x29 32 + x19: .cfa -16 + ^ .ra: .cfa -24 + ^ x29: .cfa -32 + ^
STACK CFI a150c .cfa: sp 32 +
STACK CFI a1514 .cfa: sp 0 +
STACK CFI a1518 .cfa: x29 32 +
STACK CFI INIT a1570 6c .cfa: sp 0 +
STACK CFI a1574 .cfa: sp 32 +
STACK CFI a157c .cfa: x29 32 + x19: .cfa -16 + ^ .ra: .cfa -24 + ^ x29: .cfa -32 + ^
STACK CFI a15cc .cfa: sp 32 +
STACK CFI a15d4 .cfa: sp 0 +
STACK CFI a15d8 .cfa: x29 32 +
STACK CFI INIT a15dc 74 .cfa: sp 0 +
STACK CFI a15e0 .cfa: sp 32 +
STACK CFI a15e8 .cfa: x29 32 + x19: .cfa -16 + ^ .ra: .cfa -24 + ^ x29: .cfa -32 + ^
STACK CFI a1640 .cfa: sp 32 +
STACK CFI a1648 .cfa: sp 0 +
STACK CFI a164c .cfa: x29 32 +
STACK CFI INIT a1680 148 .cfa: sp 0 +
STACK CFI a1684 .cfa: sp 96 +
STACK CFI a1694 .cfa: x29 48 + x19: .cfa -8 + ^ x20: .cfa -16 + ^ x21: .cfa -32 + ^ .ra: .cfa -40 + ^ x29: .cfa -48 + ^
STACK CFI a177c .cfa: sp 96 +
STACK CFI a178c .cfa: sp 0 +
STACK CFI a1790 .cfa: x29 48 +
STACK CFI INIT a17c8 6c .cfa: sp 0 +
STACK CFI a17cc .cfa: sp 32 +
STACK CFI a17d4 .cfa: x29 32 + x19: .cfa -16 + ^ .ra: .cfa -24 + ^ x29: .cfa -32 + ^
STACK CFI a1824 .cfa: sp 32 +
STACK CFI a182c .cfa: sp 0 +
STACK CFI a1830 .cfa: x29 32 +
STACK CFI INIT a1c54 384 .cfa: sp 0 +
STACK CFI a1c58 .cfa: sp 128 +
STACK CFI a1c70 .cfa: x29 64 + x19: .cfa -8 + ^ x20: .cfa -16 + ^ x21: .cfa -24 + ^ x22: .cfa -32 + ^ x23: .cfa -40 + ^ x24: .cfa -48 + ^ .ra: .cfa -56 + ^ x29: .cfa -64 + ^ v8: .cfa -72 + ^ v9: .cfa -80 + ^
STACK CFI a1f80 .cfa: sp 128 +
STACK CFI a1f98 .cfa: sp 0 +
STACK CFI a1f9c .cfa: x29 64 +
STACK CFI INIT a1fd8 458 .cfa: sp 0 +
STACK CFI a1fdc .cfa: sp 112 +
STACK CFI a1ff8 .cfa: x29 96 + x19: .cfa -8 + ^ x20: .cfa -16 + ^ x21: .cfa -24 + ^ x22: .cfa -32 + ^ x23: .cfa -40 + ^ x24: .cfa -48 + ^ x25: .cfa -56 + ^ x26: .cfa -64 + ^ x28: .cfa -80 + ^ .ra: .cfa -88 + ^ x29: .cfa -96 + ^ v8: .cfa -104 + ^ v9: .cfa -112 + ^
STACK CFI a2364 .cfa: sp 112 +
STACK CFI a2380 .cfa: sp 0 +
STACK CFI a2384 .cfa: x29 96 +
STACK CFI INIT a2430 34c .cfa: sp 0 +
STACK CFI a2434 .cfa: sp 96 +
STACK CFI a2450 .cfa: x29 88 + x19: .cfa -8 + ^ x20: .cfa -16 + ^ x21: .cfa -24 + ^ x22: .cfa -32 + ^ x23: .cfa -40 + ^ x24: .cfa -48 + ^ x25: .cfa -56 + ^ x26: .cfa -64 + ^ x28: .cfa -72 + ^ .ra: .cfa -80 + ^ x29: .cfa -88 + ^ v8: .cfa -96 + ^
STACK CFI a26a0 .cfa: sp 96 +
STACK CFI a26bc .cfa: sp 0 +
STACK CFI a26c0 .cfa: x29 88 +
STACK CFI INIT a277c 65c .cfa: sp 0 +
STACK CFI a2780 .cfa: sp 160 +
STACK CFI a2798 .cfa: x29 80 + x19: .cfa -8 + ^ x20: .cfa -16 + ^ x21: .cfa -24 + ^ x22: .cfa -32 + ^ x23: .cfa -40 + ^ x24: .cfa -48 + ^ x25: .cfa -64 + ^ .ra: .cfa -72 + ^ x29: .cfa -80 + ^
STACK CFI a2cb0 .cfa: sp 160 +
STACK CFI a2cc8 .cfa: sp 0 +
STACK CFI a2ccc .cfa: x29 80 +
STACK CFI INIT a2dd8 5bc .cfa: sp 0 +
STACK CFI a2ddc .cfa: sp 208 +
STACK CFI a2df4 .cfa: x29 80 + x19: .cfa -8 + ^ x20: .cfa -16 + ^ x21: .cfa -24 + ^ x22: .cfa -32 + ^ x23: .cfa -40 + ^ x24: .cfa -48 + ^ x25: .cfa -56 + ^ x26: .cfa -64 + ^ .ra: .cfa -72 + ^ x29: .cfa -80 + ^
STACK CFI a3264 .cfa: sp 208 +
STACK CFI a327c .cfa: sp 0 +
STACK CFI a3280 .cfa: x29 80 +
STACK CFI INIT a34f8 37c .cfa: sp 0 +
STACK CFI a34fc .cfa: sp 144 +
STACK CFI a3514 .cfa: x29 80 + x19: .cfa -8 + ^ x20: .cfa -16 + ^ x21: .cfa -24 + ^ x22: .cfa -32 + ^ x23: .cfa -40 + ^ x24: .cfa -48 + ^ x25: .cfa -56 + ^ x26: .cfa -64 + ^ .ra: .cfa -72 + ^ x29: .cfa -80 + ^
STACK CFI a3790 .cfa: sp 144 +
STACK CFI a37a8 .cfa: sp 0 +
STACK CFI a37ac .cfa: x29 80 +
STACK CFI INIT a38ec 10a8 .cfa: sp 0 +
STACK CFI a38f0 .cfa: sp 96 +
STACK CFI a3908 .cfa: x29 96 + x19: .cfa -8 + ^ x20: .cfa -16 + ^ x21: .cfa -24 + ^ x22: .cfa -32 + ^ x23: .cfa -40 + ^ x24: .cfa -48 + ^ x25: .cfa -56 + ^ x26: .cfa -64 + ^ x27: .cfa -72 + ^ x28: .cfa -80 + ^ .ra: .cfa -88 + ^ x29: .cfa -96 + ^
STACK CFI a46e0 .cfa: sp 96 +
STACK CFI a46f8 .cfa: sp 0 +
STACK CFI a46fc .cfa: x29 96 +
STACK CFI INIT a4994 40c .cfa: sp 0 +
STACK CFI a4998 .cfa: sp 96 +
STACK CFI a49b0 .cfa: x29 96 + x19: .cfa -8 + ^ x20: .cfa -16 + ^ x21: .cfa -24 + ^ x22: .cfa -32 + ^ x23: .cfa -40 + ^ x24: .cfa -48 + ^ x25: .cfa -56 + ^ x26: .cfa -64 + ^ x28: .cfa -80 + ^ .ra: .cfa -88 + ^ x29: .cfa -96 + ^
STACK CFI a4d18 .cfa: sp 96 +
STACK CFI a4d30 .cfa: sp 0 +
STACK CFI a4d34 .cfa: x29 96 +
STACK CFI INIT a4da0 558 .cfa: sp 0 +
STACK CFI a4da4 .cfa: sp 96 +
STACK CFI a4dbc .cfa: x29 96 + x19: .cfa -8 + ^ x20: .cfa -16 + ^ x21: .cfa -24 + ^ x22: .cfa -32 + ^ x23: .cfa -40 + ^ x24: .cfa -48 + ^ x25: .cfa -56 + ^ x26: .cfa -64 + ^ x27: .cfa -72 + ^ x28: .cfa -80 + ^ .ra: .cfa -88 + ^ x29: .cfa -96 + ^
STACK CFI a5278 .cfa: sp 96 +
STACK CFI a5290 .cfa: sp 0 +
STACK CFI a5294 .cfa: x29 96 +
STACK CFI INIT a52f8 3ac .cfa: sp 0 +
STACK CFI a52fc .cfa: sp 160 +
STACK CFI a5318 .cfa: x29 96 + x19: .cfa -8 + ^ x20: .cfa -16 + ^ x21: .cfa -24 + ^ x22: .cfa -32 + ^ x23: .cfa -40 + ^ x24: .cfa -48 + ^ x25: .cfa -56 + ^ x26: .cfa -64 + ^ x27: .cfa -72 + ^ x28: .cfa -80 + ^ .ra: .cfa -88 + ^ x29: .cfa -96 + ^
STACK CFI a55d8 .cfa: sp 160 +
STACK CFI a55f4 .cfa: sp 0 +
STACK CFI a55f8 .cfa: x29 96 +
STACK CFI INIT a56a4 6f4 .cfa: sp 0 +
STACK CFI a56a8 .cfa: sp 272 +
STACK CFI a56c4 .cfa: x29 96 + x19: .cfa -8 + ^ x20: .cfa -16 + ^ x21: .cfa -24 + ^ x22: .cfa -32 + ^ x23: .cfa -40 + ^ x24: .cfa -48 + ^ x25: .cfa -56 + ^ x26: .cfa -64 + ^ x27: .cfa -72 + ^ x28: .cfa -80 + ^ .ra: .cfa -88 + ^ x29: .cfa -96 + ^
STACK CFI a5c00 .cfa: sp 272 +
STACK CFI a5c1c .cfa: sp 0 +
STACK CFI a5c20 .cfa: x29 96 +
STACK CFI INIT a5d98 398 .cfa: sp 0 +
STACK CFI a5d9c .cfa: sp 160 +
STACK CFI a5db8 .cfa: x29 96 + x19: .cfa -8 + ^ x20: .cfa -16 + ^ x21: .cfa -24 + ^ x22: .cfa -32 + ^ x23: .cfa -40 + ^ x24: .cfa -48 + ^ x25: .cfa -56 + ^ x26: .cfa -64 + ^ x27: .cfa -72 + ^ x28: .cfa -80 + ^ .ra: .cfa -88 + ^ x29: .cfa -96 + ^
STACK CFI a60c8 .cfa: sp 160 +
STACK CFI a60e4 .cfa: sp 0 +
STACK CFI a60e8 .cfa: x29 96 +
STACK CFI INIT a6130 24c .cfa: sp 0 +
STACK CFI a6134 .cfa: sp 64 +
STACK CFI a6144 .cfa: x29 64 + x19: .cfa -8 + ^ x20: .cfa -16 + ^ x21: .cfa -24 + ^ x22: .cfa -32 + ^ x23: .cfa -40 + ^ x24: .cfa -48 + ^ .ra: .cfa -56 + ^ x29: .cfa -64 + ^
STACK CFI a6224 .cfa: sp 64 +
STACK CFI a6234 .cfa: sp 0 +
STACK CFI a6238 .cfa: x29 64 +
STACK CFI a62b0 .cfa: sp 64 +
STACK CFI a62c0 .cfa: sp 0 +
STACK CFI a62c4 .cfa: x29 64 +
STACK CFI a6318 .cfa: sp 64 +
STACK CFI a6328 .cfa: sp 0 +
STACK CFI a632c .cfa: x29 64 +
STACK CFI INIT a63a4 168 .cfa: sp 0 +
STACK CFI a63a8 .cfa: sp 384 +
STACK CFI a63bc .cfa: x29 64 + x19: .cfa -8 + ^ x20: .cfa -16 + ^ x21: .cfa -24 + ^ x22: .cfa -32 + ^ x23: .cfa -40 + ^ x28: .cfa -48 + ^ .ra: .cfa -56 + ^ x29: .cfa -64 + ^
STACK CFI a64b4 .cfa: sp 384 +
STACK CFI a64c8 .cfa: sp 0 +
STACK CFI a64cc .cfa: x29 64 +
STACK CFI INIT a650c 2dc .cfa: sp 0 +
STACK CFI a6510 .cfa: sp 80 +
STACK CFI a6524 .cfa: x29 80 + x19: .cfa -8 + ^ x20: .cfa -16 + ^ x21: .cfa -24 + ^ x22: .cfa -32 + ^ x23: .cfa -40 + ^ x24: .cfa -48 + ^ x25: .cfa -64 + ^ .ra: .cfa -72 + ^ x29: .cfa -80 + ^
STACK CFI a678c .cfa: sp 80 +
STACK CFI a67a0 .cfa: sp 0 +
STACK CFI a67a4 .cfa: x29 80 +
STACK CFI INIT a6a7c 66dc .cfa: sp 0 +
STACK CFI a6a80 .cfa: sp 96 +
STACK CFI a6a98 .cfa: x29 96 + x19: .cfa -8 + ^ x20: .cfa -16 + ^ x21: .cfa -24 + ^ x22: .cfa -32 + ^ x23: .cfa -40 + ^ x24: .cfa -48 + ^ x25: .cfa -56 + ^ x26: .cfa -64 + ^ x27: .cfa -72 + ^ x28: .cfa -80 + ^ .ra: .cfa -88 + ^ x29: .cfa -96 + ^
STACK CFI aad90 .cfa: sp 96 +
STACK CFI aada8 .cfa: sp 0 +
STACK CFI aadac .cfa: x29 96 +
STACK CFI INIT ad21c 134 .cfa: sp 0 +
STACK CFI ad220 .cfa: sp 80 +
STACK CFI ad22c .cfa: x29 32 + x19: .cfa -8 + ^ x20: .cfa -16 + ^ .ra: .cfa -24 + ^ x29: .cfa -32 + ^
STACK CFI ad25c .cfa: sp 80 +
STACK CFI ad268 .cfa: sp 0 +
STACK CFI ad26c .cfa: x29 32 +
STACK CFI INIT ad350 78 .cfa: sp 0 +
STACK CFI ad354 .cfa: sp 32 +
STACK CFI ad35c .cfa: x29 32 + x19: .cfa -8 + ^ x20: .cfa -16 + ^ .ra: .cfa -24 + ^ x29: .cfa -32 + ^
STACK CFI ad368 .cfa: sp 32 +
STACK CFI ad370 .cfa: sp 0 +
STACK CFI ad374 .cfa: x29 32 +
STACK CFI INIT ad3c8 74 .cfa: sp 0 +
STACK CFI ad3cc .cfa: sp 48 +
STACK CFI ad3d8 .cfa: x29 32 + x19: .cfa -8 + ^ x20: .cfa -16 + ^ .ra: .cfa -24 + ^ x29: .cfa -32 + ^
STACK CFI ad424 .cfa: sp 48 +
STACK CFI ad430 .cfa: sp 0 +
STACK CFI ad434 .cfa: x29 32 +
STACK CFI INIT ad4c4 25c .cfa: sp 0 +
STACK CFI ad4c8 .cfa: sp 128 +
STACK CFI ad4d8 .cfa: x29 48 + x19: .cfa -8 + ^ x20: .cfa -16 + ^ x21: .cfa -32 + ^ .ra: .cfa -40 + ^ x29: .cfa -48 + ^
STACK CFI ad5c0 .cfa: sp 128 +
STACK CFI ad5d0 .cfa: sp 0 +
STACK CFI ad5d4 .cfa: x29 48 +
STACK CFI INIT ad744 284 .cfa: sp 0 +
STACK CFI ad748 .cfa: sp 128 +
STACK CFI ad758 .cfa: x29 48 + x19: .cfa -8 + ^ x20: .cfa -16 + ^ x21: .cfa -32 + ^ .ra: .cfa -40 + ^ x29: .cfa -48 + ^
STACK CFI ad870 .cfa: sp 128 +
STACK CFI ad880 .cfa: sp 0 +
STACK CFI ad884 .cfa: x29 48 +
STACK CFI INIT ada1c 300 .cfa: sp 0 +
STACK CFI ada20 .cfa: sp 144 +
STACK CFI ada34 .cfa: x29 64 + x19: .cfa -8 + ^ x20: .cfa -16 + ^ x21: .cfa -24 + ^ x22: .cfa -32 + ^ x23: .cfa -48 + ^ .ra: .cfa -56 + ^ x29: .cfa -64 + ^
STACK CFI adbc8 .cfa: sp 144 +
STACK CFI adbdc .cfa: sp 0 +
STACK CFI adbe0 .cfa: x29 64 +
STACK CFI INIT add70 264 .cfa: sp 0 +
STACK CFI add74 .cfa: sp 128 +
STACK CFI add84 .cfa: x29 48 + x19: .cfa -8 + ^ x20: .cfa -16 + ^ x21: .cfa -32 + ^ .ra: .cfa -40 + ^ x29: .cfa -48 + ^
STACK CFI ade7c .cfa: sp 128 +
STACK CFI ade8c .cfa: sp 0 +
STACK CFI ade90 .cfa: x29 48 +
STACK CFI INIT ae028 160 .cfa: sp 0 +
STACK CFI ae02c .cfa: sp 144 +
STACK CFI ae040 .cfa: x29 64 + x19: .cfa -8 + ^ x20: .cfa -16 + ^ x21: .cfa -24 + ^ x22: .cfa -32 + ^ x23: .cfa -48 + ^ .ra: .cfa -56 + ^ x29: .cfa -64 + ^
STACK CFI ae090 .cfa: sp 144 +
STACK CFI ae0a4 .cfa: sp 0 +
STACK CFI ae0a8 .cfa: x29 64 +
STACK CFI INIT ae188 108 .cfa: sp 0 +
STACK CFI ae18c .cfa: sp 64 +
STACK CFI ae19c .cfa: x29 48 + x19: .cfa -8 + ^ x20: .cfa -16 + ^ x21: .cfa -24 + ^ x22: .cfa -32 + ^ .ra: .cfa -40 + ^ x29: .cfa -48 + ^
STACK CFI ae248 .cfa: sp 64 +
STACK CFI ae258 .cfa: sp 0 +
STACK CFI ae25c .cfa: x29 48 +
STACK CFI INIT ae290 150 .cfa: sp 0 +
STACK CFI ae294 .cfa: sp 128 +
STACK CFI ae2a4 .cfa: x29 48 + x19: .cfa -8 + ^ x20: .cfa -16 + ^ x21: .cfa -24 + ^ x22: .cfa -32 + ^ .ra: .cfa -40 + ^ x29: .cfa -48 + ^
STACK CFI ae2ec .cfa: sp 128 +
STACK CFI ae2fc .cfa: sp 0 +
STACK CFI ae300 .cfa: x29 48 +
STACK CFI INIT ae3e0 a8 .cfa: sp 0 +
STACK CFI ae3e4 .cfa: sp 64 +
STACK CFI ae3f4 .cfa: x29 48 + x19: .cfa -8 + ^ x20: .cfa -16 + ^ x21: .cfa -32 + ^ .ra: .cfa -40 + ^ x29: .cfa -48 + ^
STACK CFI ae45c .cfa: sp 64 +
STACK CFI ae46c .cfa: sp 0 +
STACK CFI ae470 .cfa: x29 48 +
STACK CFI INIT ae508 1b8 .cfa: sp 0 +
STACK CFI ae50c .cfa: sp 160 +
STACK CFI ae528 .cfa: x29 72 + x19: .cfa -8 + ^ x20: .cfa -16 + ^ x21: .cfa -24 + ^ x22: .cfa -32 + ^ x23: .cfa -40 + ^ x24: .cfa -48 + ^ x25: .cfa -56 + ^ .ra: .cfa -64 + ^ x29: .cfa -72 + ^ v8: .cfa -80 + ^
STACK CFI ae5ac .cfa: sp 160 +
STACK CFI ae5c8 .cfa: sp 0 +
STACK CFI ae5cc .cfa: x29 72 +
STACK CFI INIT ae6c0 4e4 .cfa: sp 0 +
STACK CFI ae6c4 .cfa: sp 96 +
STACK CFI ae6dc .cfa: x29 80 + x19: .cfa -8 + ^ x20: .cfa -16 + ^ x21: .cfa -24 + ^ x22: .cfa -32 + ^ x23: .cfa -40 + ^ x24: .cfa -48 + ^ x25: .cfa -64 + ^ .ra: .cfa -72 + ^ x29: .cfa -80 + ^
STACK CFI aeb20 .cfa: sp 96 +
STACK CFI aeb38 .cfa: sp 0 +
STACK CFI aeb3c .cfa: x29 80 +
STACK CFI INIT aeba4 230 .cfa: sp 0 +
STACK CFI aeba8 .cfa: sp 208 +
STACK CFI aebc4 .cfa: x29 96 + x19: .cfa -8 + ^ x20: .cfa -16 + ^ x21: .cfa -24 + ^ x22: .cfa -32 + ^ x23: .cfa -40 + ^ x24: .cfa -48 + ^ x25: .cfa -56 + ^ x26: .cfa -64 + ^ x27: .cfa -72 + ^ x28: .cfa -80 + ^ .ra: .cfa -88 + ^ x29: .cfa -96 + ^
STACK CFI aec98 .cfa: sp 208 +
STACK CFI aecb4 .cfa: sp 0 +
STACK CFI aecb8 .cfa: x29 96 +
STACK CFI INIT aedd4 608 .cfa: sp 0 +
STACK CFI aedd8 .cfa: sp 96 +
STACK CFI aedf0 .cfa: x29 80 + x19: .cfa -8 + ^ x20: .cfa -16 + ^ x21: .cfa -24 + ^ x22: .cfa -32 + ^ x23: .cfa -40 + ^ x24: .cfa -48 + ^ x25: .cfa -64 + ^ .ra: .cfa -72 + ^ x29: .cfa -80 + ^
STACK CFI af348 .cfa: sp 96 +
STACK CFI af360 .cfa: sp 0 +
STACK CFI af364 .cfa: x29 80 +
STACK CFI INIT af3dc 164 .cfa: sp 0 +
STACK CFI af3e0 .cfa: sp 128 +
STACK CFI af3ec .cfa: x29 32 + x19: .cfa -8 + ^ x20: .cfa -16 + ^ .ra: .cfa -24 + ^ x29: .cfa -32 + ^
STACK CFI af42c .cfa: sp 128 +
STACK CFI af438 .cfa: sp 0 +
STACK CFI af43c .cfa: x29 32 +
STACK CFI INIT af544 1d4 .cfa: sp 0 +
STACK CFI af548 .cfa: sp 176 +
STACK CFI af564 .cfa: x29 72 + x19: .cfa -8 + ^ x20: .cfa -16 + ^ x21: .cfa -24 + ^ x22: .cfa -32 + ^ x23: .cfa -40 + ^ x24: .cfa -48 + ^ x25: .cfa -56 + ^ .ra: .cfa -64 + ^ x29: .cfa -72 + ^ v8: .cfa -80 + ^
STACK CFI af5fc .cfa: sp 176 +
STACK CFI af618 .cfa: sp 0 +
STACK CFI af61c .cfa: x29 72 +
STACK CFI INIT af718 4c0 .cfa: sp 0 +
STACK CFI af71c .cfa: sp 96 +
STACK CFI af734 .cfa: x29 80 + x19: .cfa -8 + ^ x20: .cfa -16 + ^ x21: .cfa -24 + ^ x22: .cfa -32 + ^ x23: .cfa -40 + ^ x24: .cfa -48 + ^ x25: .cfa -64 + ^ .ra: .cfa -72 + ^ x29: .cfa -80 + ^
STACK CFI afb54 .cfa: sp 96 +
STACK CFI afb6c .cfa: sp 0 +
STACK CFI afb70 .cfa: x29 80 +
STACK CFI INIT afbdc 178 .cfa: sp 0 +
STACK CFI afbe0 .cfa: sp 128 +
STACK CFI afbf0 .cfa: x29 48 + x19: .cfa -8 + ^ x20: .cfa -16 + ^ x21: .cfa -24 + ^ x22: .cfa -32 + ^ .ra: .cfa -40 + ^ x29: .cfa -48 + ^
STACK CFI afc4c .cfa: sp 128 +
STACK CFI afc5c .cfa: sp 0 +
STACK CFI afc60 .cfa: x29 48 +
STACK CFI INIT afd54 a4 .cfa: sp 0 +
STACK CFI afd58 .cfa: sp 48 +
STACK CFI afd64 .cfa: x29 48 + x19: .cfa -8 + ^ x20: .cfa -16 + ^ x21: .cfa -32 + ^ .ra: .cfa -40 + ^ x29: .cfa -48 + ^
STACK CFI afdd0 .cfa: sp 48 +
STACK CFI afddc .cfa: sp 0 +
STACK CFI afde0 .cfa: x29 48 +
STACK CFI INIT afdf8 1a0 .cfa: sp 0 +
STACK CFI afdfc .cfa: sp 160 +
STACK CFI afe14 .cfa: x29 64 + x19: .cfa -8 + ^ x20: .cfa -16 + ^ x21: .cfa -24 + ^ x22: .cfa -32 + ^ x23: .cfa -40 + ^ x24: .cfa -48 + ^ .ra: .cfa -56 + ^ x29: .cfa -64 + ^ v8: .cfa -80 + ^
STACK CFI afe88 .cfa: sp 160 +
STACK CFI afea0 .cfa: sp 0 +
STACK CFI afea4 .cfa: x29 64 +
STACK CFI INIT aff98 3bc .cfa: sp 0 +
STACK CFI aff9c .cfa: sp 96 +
STACK CFI affb4 .cfa: x29 80 + x19: .cfa -8 + ^ x20: .cfa -16 + ^ x21: .cfa -24 + ^ x22: .cfa -32 + ^ x23: .cfa -40 + ^ x24: .cfa -48 + ^ x25: .cfa -64 + ^ .ra: .cfa -72 + ^ x29: .cfa -80 + ^
STACK CFI b02e0 .cfa: sp 96 +
STACK CFI b02f8 .cfa: sp 0 +
STACK CFI b02fc .cfa: x29 80 +
STACK CFI INIT b0354 53c .cfa: sp 0 +
STACK CFI b0358 .cfa: sp 144 +
STACK CFI b036c .cfa: x29 64 + x19: .cfa -8 + ^ x20: .cfa -16 + ^ x21: .cfa -24 + ^ x22: .cfa -32 + ^ x23: .cfa -40 + ^ x24: .cfa -48 + ^ .ra: .cfa -56 + ^ x29: .cfa -64 + ^
STACK CFI b05fc .cfa: sp 144 +
STACK CFI b0610 .cfa: sp 0 +
STACK CFI b0614 .cfa: x29 64 +
STACK CFI INIT b08b4 a4 .cfa: sp 0 +
STACK CFI b08b8 .cfa: sp 48 +
STACK CFI b08c4 .cfa: x29 48 + x19: .cfa -8 + ^ x20: .cfa -16 + ^ x21: .cfa -32 + ^ .ra: .cfa -40 + ^ x29: .cfa -48 + ^
STACK CFI b0930 .cfa: sp 48 +
STACK CFI b093c .cfa: sp 0 +
STACK CFI b0940 .cfa: x29 48 +
STACK CFI INIT b0958 178 .cfa: sp 0 +
STACK CFI b095c .cfa: sp 128 +
STACK CFI b096c .cfa: x29 48 + x19: .cfa -8 + ^ x20: .cfa -16 + ^ x21: .cfa -24 + ^ x22: .cfa -32 + ^ .ra: .cfa -40 + ^ x29: .cfa -48 + ^
STACK CFI b09c8 .cfa: sp 128 +
STACK CFI b09d8 .cfa: sp 0 +
STACK CFI b09dc .cfa: x29 48 +
STACK CFI INIT b0ad0 160 .cfa: sp 0 +
STACK CFI b0ad4 .cfa: sp 144 +
STACK CFI b0ae8 .cfa: x29 64 + x19: .cfa -8 + ^ x20: .cfa -16 + ^ x21: .cfa -24 + ^ x22: .cfa -32 + ^ x23: .cfa -48 + ^ .ra: .cfa -56 + ^ x29: .cfa -64 + ^
STACK CFI b0b38 .cfa: sp 144 +
STACK CFI b0b4c .cfa: sp 0 +
STACK CFI b0b50 .cfa: x29 64 +
STACK CFI INIT b0c30 108 .cfa: sp 0 +
STACK CFI b0c34 .cfa: sp 64 +
STACK CFI b0c44 .cfa: x29 48 + x19: .cfa -8 + ^ x20: .cfa -16 + ^ x21: .cfa -24 + ^ x22: .cfa -32 + ^ .ra: .cfa -40 + ^ x29: .cfa -48 + ^
STACK CFI b0cf0 .cfa: sp 64 +
STACK CFI b0d00 .cfa: sp 0 +
STACK CFI b0d04 .cfa: x29 48 +
STACK CFI INIT b0d38 1ac .cfa: sp 0 +
STACK CFI b0d3c .cfa: sp 160 +
STACK CFI b0d50 .cfa: x29 48 + x19: .cfa -8 + ^ x20: .cfa -16 + ^ x21: .cfa -24 + ^ x22: .cfa -32 + ^ .ra: .cfa -40 + ^ x29: .cfa -48 + ^ v8: .cfa -64 + ^
STACK CFI b0dd0 .cfa: sp 160 +
STACK CFI b0de4 .cfa: sp 0 +
STACK CFI b0de8 .cfa: x29 48 +
STACK CFI INIT b0ee4 10c .cfa: sp 0 +
STACK CFI b0ee8 .cfa: sp 64 +
STACK CFI b0ef8 .cfa: x29 48 + x19: .cfa -8 + ^ x20: .cfa -16 + ^ x21: .cfa -24 + ^ x22: .cfa -32 + ^ .ra: .cfa -40 + ^ x29: .cfa -48 + ^
STACK CFI b0fa8 .cfa: sp 64 +
STACK CFI b0fb8 .cfa: sp 0 +
STACK CFI b0fbc .cfa: x29 48 +
STACK CFI INIT b0ff0 1c8 .cfa: sp 0 +
STACK CFI b0ff4 .cfa: sp 192 +
STACK CFI b1010 .cfa: x29 64 + x19: .cfa -8 + ^ x20: .cfa -16 + ^ x21: .cfa -24 + ^ x22: .cfa -32 + ^ x23: .cfa -40 + ^ x24: .cfa -48 + ^ .ra: .cfa -56 + ^ x29: .cfa -64 + ^ v8: .cfa -72 + ^ v9: .cfa -80 + ^ v10: .cfa -96 + ^
STACK CFI b10a4 .cfa: sp 192 +
STACK CFI b10c0 .cfa: sp 0 +
STACK CFI b10c4 .cfa: x29 64 +
STACK CFI INIT b11b8 5bc .cfa: sp 0 +
STACK CFI b11bc .cfa: sp 112 +
STACK CFI b11d4 .cfa: x29 80 + x19: .cfa -8 + ^ x20: .cfa -16 + ^ x21: .cfa -24 + ^ x22: .cfa -32 + ^ x23: .cfa -40 + ^ x24: .cfa -48 + ^ x25: .cfa -64 + ^ .ra: .cfa -72 + ^ x29: .cfa -80 + ^
STACK CFI b16e0 .cfa: sp 112 +
STACK CFI b16f8 .cfa: sp 0 +
STACK CFI b16fc .cfa: x29 80 +
STACK CFI INIT b1774 178 .cfa: sp 0 +
STACK CFI b1778 .cfa: sp 128 +
STACK CFI b1788 .cfa: x29 48 + x19: .cfa -8 + ^ x20: .cfa -16 + ^ x21: .cfa -24 + ^ x22: .cfa -32 + ^ .ra: .cfa -40 + ^ x29: .cfa -48 + ^
STACK CFI b17e4 .cfa: sp 128 +
STACK CFI b17f4 .cfa: sp 0 +
STACK CFI b17f8 .cfa: x29 48 +
STACK CFI INIT b18ec a4 .cfa: sp 0 +
STACK CFI b18f0 .cfa: sp 48 +
STACK CFI b18fc .cfa: x29 48 + x19: .cfa -8 + ^ x20: .cfa -16 + ^ x21: .cfa -32 + ^ .ra: .cfa -40 + ^ x29: .cfa -48 + ^
STACK CFI b1968 .cfa: sp 48 +
STACK CFI b1974 .cfa: sp 0 +
STACK CFI b1978 .cfa: x29 48 +
STACK CFI INIT b1994 2e4 .cfa: sp 0 +
STACK CFI b1998 .cfa: sp 144 +
STACK CFI b19ac .cfa: x29 64 + x19: .cfa -8 + ^ x20: .cfa -16 + ^ x21: .cfa -24 + ^ x22: .cfa -32 + ^ x23: .cfa -48 + ^ .ra: .cfa -56 + ^ x29: .cfa -64 + ^
STACK CFI b1b24 .cfa: sp 144 +
STACK CFI b1b38 .cfa: sp 0 +
STACK CFI b1b3c .cfa: x29 64 +
STACK CFI INIT b1c78 2e4 .cfa: sp 0 +
STACK CFI b1c7c .cfa: sp 144 +
STACK CFI b1c90 .cfa: x29 64 + x19: .cfa -8 + ^ x20: .cfa -16 + ^ x21: .cfa -24 + ^ x22: .cfa -32 + ^ x23: .cfa -48 + ^ .ra: .cfa -56 + ^ x29: .cfa -64 + ^
STACK CFI b1e08 .cfa: sp 144 +
STACK CFI b1e1c .cfa: sp 0 +
STACK CFI b1e20 .cfa: x29 64 +
STACK CFI INIT b1f5c 2a0 .cfa: sp 0 +
STACK CFI b1f60 .cfa: sp 144 +
STACK CFI b1f74 .cfa: x29 64 + x19: .cfa -8 + ^ x20: .cfa -16 + ^ x21: .cfa -24 + ^ x22: .cfa -32 + ^ x23: .cfa -48 + ^ .ra: .cfa -56 + ^ x29: .cfa -64 + ^
STACK CFI b20a8 .cfa: sp 144 +
STACK CFI b20bc .cfa: sp 0 +
STACK CFI b20c0 .cfa: x29 64 +
STACK CFI INIT b21fc 2f0 .cfa: sp 0 +
STACK CFI b2200 .cfa: sp 144 +
STACK CFI b2214 .cfa: x29 64 + x19: .cfa -8 + ^ x20: .cfa -16 + ^ x21: .cfa -24 + ^ x22: .cfa -32 + ^ x23: .cfa -48 + ^ .ra: .cfa -56 + ^ x29: .cfa -64 + ^
STACK CFI b2398 .cfa: sp 144 +
STACK CFI b23ac .cfa: sp 0 +
STACK CFI b23b0 .cfa: x29 64 +
STACK CFI INIT b24ec 4f4 .cfa: sp 0 +
STACK CFI b24f0 .cfa: sp 144 +
STACK CFI b2504 .cfa: x29 64 + x19: .cfa -8 + ^ x20: .cfa -16 + ^ x21: .cfa -24 + ^ x22: .cfa -32 + ^ x23: .cfa -48 + ^ .ra: .cfa -56 + ^ x29: .cfa -64 + ^
STACK CFI b2838 .cfa: sp 144 +
STACK CFI b284c .cfa: sp 0 +
STACK CFI b2850 .cfa: x29 64 +
STACK CFI INIT b29e0 154 .cfa: sp 0 +
STACK CFI b29e4 .cfa: sp 384 +
STACK CFI b29f8 .cfa: x29 64 + x19: .cfa -8 + ^ x20: .cfa -16 + ^ x21: .cfa -24 + ^ x22: .cfa -32 + ^ x23: .cfa -40 + ^ x28: .cfa -48 + ^ .ra: .cfa -56 + ^ x29: .cfa -64 + ^
STACK CFI b2adc .cfa: sp 384 +
STACK CFI b2af0 .cfa: sp 0 +
STACK CFI b2af4 .cfa: x29 64 +
STACK CFI INIT b2b4c 50c .cfa: sp 0 +
STACK CFI b2b50 .cfa: sp 64 +
STACK CFI b2b60 .cfa: x29 64 + x19: .cfa -8 + ^ x20: .cfa -16 + ^ x21: .cfa -24 + ^ x22: .cfa -32 + ^ x23: .cfa -40 + ^ x24: .cfa -48 + ^ .ra: .cfa -56 + ^ x29: .cfa -64 + ^
STACK CFI b2c80 .cfa: sp 64 +
STACK CFI b2c90 .cfa: sp 0 +
STACK CFI b2c94 .cfa: x29 64 +
STACK CFI b302c .cfa: sp 64 +
STACK CFI b303c .cfa: sp 0 +
STACK CFI b3040 .cfa: x29 64 +
STACK CFI INIT b3388 294 .cfa: sp 0 +
STACK CFI b338c .cfa: sp 240 +
STACK CFI b33a4 .cfa: x29 80 + x19: .cfa -8 + ^ x20: .cfa -16 + ^ x21: .cfa -24 + ^ x22: .cfa -32 + ^ x23: .cfa -40 + ^ x24: .cfa -48 + ^ x25: .cfa -64 + ^ .ra: .cfa -72 + ^ x29: .cfa -80 + ^
STACK CFI b3544 .cfa: sp 240 +
STACK CFI b355c .cfa: sp 0 +
STACK CFI b3560 .cfa: x29 80 +
STACK CFI INIT b3698 50 .cfa: sp 0 +
STACK CFI b369c .cfa: sp 32 +
STACK CFI b36a4 .cfa: x29 32 + x19: .cfa -8 + ^ x20: .cfa -16 + ^ .ra: .cfa -24 + ^ x29: .cfa -32 + ^
STACK CFI INIT b3714 7c0 .cfa: sp 0 +
STACK CFI b3718 .cfa: sp 320 +
STACK CFI b3734 .cfa: x29 96 + x19: .cfa -8 + ^ x20: .cfa -16 + ^ x21: .cfa -24 + ^ x22: .cfa -32 + ^ x23: .cfa -40 + ^ x24: .cfa -48 + ^ x25: .cfa -56 + ^ x26: .cfa -64 + ^ x27: .cfa -72 + ^ x28: .cfa -80 + ^ .ra: .cfa -88 + ^ x29: .cfa -96 + ^
STACK CFI b3d84 .cfa: sp 320 +
STACK CFI b3da0 .cfa: sp 0 +
STACK CFI b3da4 .cfa: x29 96 +
STACK CFI INIT b8254 c74 .cfa: sp 0 +
STACK CFI b8258 .cfa: sp 96 +
STACK CFI b8270 .cfa: x29 96 + x19: .cfa -8 + ^ x20: .cfa -16 + ^ x21: .cfa -24 + ^ x22: .cfa -32 + ^ x23: .cfa -40 + ^ x24: .cfa -48 + ^ x25: .cfa -56 + ^ x26: .cfa -64 + ^ x27: .cfa -72 + ^ x28: .cfa -80 + ^ .ra: .cfa -88 + ^ x29: .cfa -96 + ^
STACK CFI b8ce8 .cfa: sp 96 +
STACK CFI b8d00 .cfa: sp 0 +
STACK CFI b8d04 .cfa: x29 96 +
STACK CFI INIT b901c 26c .cfa: sp 0 +
STACK CFI b9020 .cfa: sp 128 +
STACK CFI b9030 .cfa: x29 48 + x19: .cfa -8 + ^ x20: .cfa -16 + ^ x21: .cfa -24 + ^ x22: .cfa -32 + ^ .ra: .cfa -40 + ^ x29: .cfa -48 + ^
STACK CFI b91d4 .cfa: sp 128 +
STACK CFI b91e4 .cfa: sp 0 +
STACK CFI b91e8 .cfa: x29 48 +
STACK CFI INIT b9618 3b8 .cfa: sp 0 +
STACK CFI b961c .cfa: sp 96 +
STACK CFI b9634 .cfa: x29 96 + x19: .cfa -8 + ^ x20: .cfa -16 + ^ x21: .cfa -24 + ^ x22: .cfa -32 + ^ x23: .cfa -40 + ^ x24: .cfa -48 + ^ x25: .cfa -56 + ^ x26: .cfa -64 + ^ x27: .cfa -72 + ^ x28: .cfa -80 + ^ .ra: .cfa -88 + ^ x29: .cfa -96 + ^
STACK CFI b9970 .cfa: sp 96 +
STACK CFI b9988 .cfa: sp 0 +
STACK CFI b998c .cfa: x29 96 +
STACK CFI INIT b9a70 cb4 .cfa: sp 0 +
STACK CFI b9a74 .cfa: sp 96 +
STACK CFI b9a8c .cfa: x29 96 + x19: .cfa -8 + ^ x20: .cfa -16 + ^ x21: .cfa -24 + ^ x22: .cfa -32 + ^ x23: .cfa -40 + ^ x24: .cfa -48 + ^ x25: .cfa -56 + ^ x26: .cfa -64 + ^ x27: .cfa -72 + ^ x28: .cfa -80 + ^ .ra: .cfa -88 + ^ x29: .cfa -96 + ^
STACK CFI ba534 .cfa: sp 96 +
STACK CFI ba54c .cfa: sp 0 +
STACK CFI ba550 .cfa: x29 96 +
STACK CFI INIT baa0c afc .cfa: sp 0 +
STACK CFI baa10 .cfa: sp 96 +
STACK CFI baa28 .cfa: x29 96 + x19: .cfa -8 + ^ x20: .cfa -16 + ^ x21: .cfa -24 + ^ x22: .cfa -32 + ^ x23: .cfa -40 + ^ x24: .cfa -48 + ^ x25: .cfa -56 + ^ x26: .cfa -64 + ^ x27: .cfa -72 + ^ x28: .cfa -80 + ^ .ra: .cfa -88 + ^ x29: .cfa -96 + ^
STACK CFI bb47c .cfa: sp 96 +
STACK CFI bb494 .cfa: sp 0 +
STACK CFI bb498 .cfa: x29 96 +
STACK CFI INIT bb6e4 1430 .cfa: sp 0 +
STACK CFI bb6e8 .cfa: sp 96 +
STACK CFI bb700 .cfa: x29 96 + x19: .cfa -8 + ^ x20: .cfa -16 + ^ x21: .cfa -24 + ^ x22: .cfa -32 + ^ x23: .cfa -40 + ^ x24: .cfa -48 + ^ x25: .cfa -56 + ^ x26: .cfa -64 + ^ x27: .cfa -72 + ^ x28: .cfa -80 + ^ .ra: .cfa -88 + ^ x29: .cfa -96 + ^
STACK CFI bc99c .cfa: sp 96 +
STACK CFI bc9b4 .cfa: sp 0 +
STACK CFI bc9b8 .cfa: x29 96 +
STACK CFI INIT bcc38 75c .cfa: sp 0 +
STACK CFI bcc3c .cfa: sp 368 +
STACK CFI bcc58 .cfa: x29 96 + x19: .cfa -8 + ^ x20: .cfa -16 + ^ x21: .cfa -24 + ^ x22: .cfa -32 + ^ x23: .cfa -40 + ^ x24: .cfa -48 + ^ x25: .cfa -56 + ^ x26: .cfa -64 + ^ x27: .cfa -72 + ^ x28: .cfa -80 + ^ .ra: .cfa -88 + ^ x29: .cfa -96 + ^
STACK CFI bcd0c .cfa: sp 368 +
STACK CFI bcd28 .cfa: sp 0 +
STACK CFI bcd2c .cfa: x29 96 +
STACK CFI bcd80 .cfa: sp 368 +
STACK CFI bcd9c .cfa: sp 0 +
STACK CFI bcda0 .cfa: x29 96 +
STACK CFI INIT bd754 eb0 .cfa: sp 0 +
STACK CFI bd758 .cfa: sp 96 +
STACK CFI bd770 .cfa: x29 96 + x19: .cfa -8 + ^ x20: .cfa -16 + ^ x21: .cfa -24 + ^ x22: .cfa -32 + ^ x23: .cfa -40 + ^ x24: .cfa -48 + ^ x25: .cfa -56 + ^ x26: .cfa -64 + ^ x27: .cfa -72 + ^ x28: .cfa -80 + ^ .ra: .cfa -88 + ^ x29: .cfa -96 + ^
STACK CFI be418 .cfa: sp 96 +
STACK CFI be430 .cfa: sp 0 +
STACK CFI be434 .cfa: x29 96 +
STACK CFI INIT be978 1c9c .cfa: sp 0 +
STACK CFI be97c .cfa: sp 112 +
STACK CFI be998 .cfa: x29 96 + x19: .cfa -8 + ^ x20: .cfa -16 + ^ x21: .cfa -24 + ^ x22: .cfa -32 + ^ x23: .cfa -40 + ^ x24: .cfa -48 + ^ x25: .cfa -56 + ^ x26: .cfa -64 + ^ x27: .cfa -72 + ^ x28: .cfa -80 + ^ .ra: .cfa -88 + ^ x29: .cfa -96 + ^ v8: .cfa -112 + ^
STACK CFI bed80 .cfa: sp 112 +
STACK CFI bed9c .cfa: sp 0 +
STACK CFI beda0 .cfa: x29 96 +
STACK CFI INIT c2dd8 9a0 .cfa: sp 0 +
STACK CFI c2ddc .cfa: sp 144 +
STACK CFI c2df4 .cfa: x29 80 + x19: .cfa -8 + ^ x20: .cfa -16 + ^ x21: .cfa -24 + ^ x22: .cfa -32 + ^ x23: .cfa -40 + ^ x24: .cfa -48 + ^ x25: .cfa -64 + ^ .ra: .cfa -72 + ^ x29: .cfa -80 + ^
STACK CFI c36f4 .cfa: sp 144 +
STACK CFI c370c .cfa: sp 0 +
STACK CFI c3710 .cfa: x29 80 +
STACK CFI INIT c4c9c 57c .cfa: sp 0 +
STACK CFI c4ca0 .cfa: sp 96 +
STACK CFI c4cb8 .cfa: x29 96 + x19: .cfa -8 + ^ x20: .cfa -16 + ^ x21: .cfa -24 + ^ x22: .cfa -32 + ^ x23: .cfa -40 + ^ x24: .cfa -48 + ^ x25: .cfa -56 + ^ x26: .cfa -64 + ^ x27: .cfa -72 + ^ x28: .cfa -80 + ^ .ra: .cfa -88 + ^ x29: .cfa -96 + ^
STACK CFI c517c .cfa: sp 96 +
STACK CFI c5194 .cfa: sp 0 +
STACK CFI c5198 .cfa: x29 96 +
STACK CFI INIT c5218 67c .cfa: sp 0 +
STACK CFI c521c .cfa: sp 96 +
STACK CFI c5234 .cfa: x29 96 + x19: .cfa -8 + ^ x20: .cfa -16 + ^ x21: .cfa -24 + ^ x22: .cfa -32 + ^ x23: .cfa -40 + ^ x24: .cfa -48 + ^ x25: .cfa -56 + ^ x26: .cfa -64 + ^ x27: .cfa -72 + ^ x28: .cfa -80 + ^ .ra: .cfa -88 + ^ x29: .cfa -96 + ^
STACK CFI c57f8 .cfa: sp 96 +
STACK CFI c5810 .cfa: sp 0 +
STACK CFI c5814 .cfa: x29 96 +
