MODULE Linux arm64 D6526B2EEE581591A62BDE701BC2F0690 dogotrigger.deathreplay.android64.so
INFO CODE_ID 2E6B52D658EE9115A62BDE701BC2F069F8D52C57
INFO GENERATOR mozilla/dump_syms 2.3.4
PUBLIC 22490 0 __on_dlclose
PUBLIC 224a0 0 __emutls_unregister_key
PUBLIC 224a8 0 __on_dlclose_late
PUBLIC 224b0 0 __atexit_handler_wrapper
PUBLIC 224c4 0 atexit
PUBLIC 224e0 0 pthread_atfork
PUBLIC 224f0 0 unwind_phase2
PUBLIC 22624 0 _Unwind_Resume
PUBLIC 226a8 0 unwind_phase2_forced
PUBLIC m 2279c 0 __unw_init_local
PUBLIC m 22844 0 __unw_get_reg
PUBLIC 228c0 0 __unw_step_stage2
PUBLIC m 228d4 0 __unw_get_proc_info
PUBLIC m 22914 0 __unw_resume
PUBLIC 2293c 0 libunwind::CFI_Parser<libunwind::LocalAddressSpace>::decodeFDE(libunwind::LocalAddressSpace&, unsigned long, libunwind::CFI_Parser<libunwind::LocalAddressSpace>::FDE_Info*, libunwind::CFI_Parser<libunwind::LocalAddressSpace>::CIE_Info*, bool)
PUBLIC 22acc 0 libunwind::CFI_Parser<libunwind::LocalAddressSpace>::parseCIE(libunwind::LocalAddressSpace&, unsigned long, libunwind::CFI_Parser<libunwind::LocalAddressSpace>::CIE_Info*)
PUBLIC 22d94 0 libunwind::AbstractUnwindCursor::~AbstractUnwindCursor()
PUBLIC 22d9c 0 libunwind::UnwindCursor<libunwind::LocalAddressSpace, libunwind::Registers_arm64>::~UnwindCursor()
PUBLIC 22da4 0 libunwind::UnwindCursor<libunwind::LocalAddressSpace, libunwind::Registers_arm64>::validReg(int)
PUBLIC 22de8 0 libunwind::UnwindCursor<libunwind::LocalAddressSpace, libunwind::Registers_arm64>::getReg(int)
PUBLIC 22ed0 0 libunwind::UnwindCursor<libunwind::LocalAddressSpace, libunwind::Registers_arm64>::setReg(int, unsigned long)
PUBLIC 22fb8 0 libunwind::UnwindCursor<libunwind::LocalAddressSpace, libunwind::Registers_arm64>::validFloatReg(int)
PUBLIC 22fcc 0 libunwind::UnwindCursor<libunwind::LocalAddressSpace, libunwind::Registers_arm64>::getFloatReg(int)
PUBLIC 22fdc 0 libunwind::UnwindCursor<libunwind::LocalAddressSpace, libunwind::Registers_arm64>::setFloatReg(int, double)
PUBLIC 22fec 0 libunwind::UnwindCursor<libunwind::LocalAddressSpace, libunwind::Registers_arm64>::step(bool)
PUBLIC 230dc 0 libunwind::UnwindCursor<libunwind::LocalAddressSpace, libunwind::Registers_arm64>::getInfo(unw_proc_info_t*)
PUBLIC 23120 0 libunwind::UnwindCursor<libunwind::LocalAddressSpace, libunwind::Registers_arm64>::jumpto()
PUBLIC 2312c 0 libunwind::UnwindCursor<libunwind::LocalAddressSpace, libunwind::Registers_arm64>::isSignalFrame()
PUBLIC 23138 0 libunwind::UnwindCursor<libunwind::LocalAddressSpace, libunwind::Registers_arm64>::getFunctionName(char*, unsigned long, unsigned long*)
PUBLIC 23164 0 libunwind::UnwindCursor<libunwind::LocalAddressSpace, libunwind::Registers_arm64>::setInfoBasedOnIPRegister(bool)
PUBLIC 233e4 0 libunwind::UnwindCursor<libunwind::LocalAddressSpace, libunwind::Registers_arm64>::getRegisterName(int)
PUBLIC 233f0 0 libunwind::UnwindCursor<libunwind::LocalAddressSpace, libunwind::Registers_arm64>::stepThroughSigReturn(libunwind::Registers_arm64&)
PUBLIC 23510 0 libunwind::DwarfInstructions<libunwind::LocalAddressSpace, libunwind::Registers_arm64>::stepWithDwarf(libunwind::LocalAddressSpace&, unsigned long, unsigned long, libunwind::Registers_arm64&, bool&, bool)
PUBLIC 23998 0 libunwind::CFI_Parser<libunwind::LocalAddressSpace>::parseFDEInstructions(libunwind::LocalAddressSpace&, libunwind::CFI_Parser<libunwind::LocalAddressSpace>::FDE_Info const&, libunwind::CFI_Parser<libunwind::LocalAddressSpace>::CIE_Info const&, unsigned long, int, libunwind::CFI_Parser<libunwind::LocalAddressSpace>::PrologInfo*)
PUBLIC 245e0 0 libunwind::DwarfInstructions<libunwind::LocalAddressSpace, libunwind::Registers_arm64>::getCFA(libunwind::LocalAddressSpace&, libunwind::CFI_Parser<libunwind::LocalAddressSpace>::PrologInfo const&, libunwind::Registers_arm64 const&)
PUBLIC 24714 0 libunwind::DwarfInstructions<libunwind::LocalAddressSpace, libunwind::Registers_arm64>::getSavedRegister(libunwind::LocalAddressSpace&, libunwind::Registers_arm64 const&, unsigned long, libunwind::CFI_Parser<libunwind::LocalAddressSpace>::RegisterLocation const&)
PUBLIC 24924 0 libunwind::LocalAddressSpace::getEncodedP(unsigned long&, unsigned long, unsigned char, unsigned long)
PUBLIC 24cb0 0 libunwind::LocalAddressSpace::getULEB128(unsigned long&, unsigned long)
PUBLIC 24e78 0 libunwind::DwarfInstructions<libunwind::LocalAddressSpace, libunwind::Registers_arm64>::evaluateExpression(unsigned long, libunwind::LocalAddressSpace&, libunwind::Registers_arm64 const&, unsigned long)
PUBLIC 25834 0 libunwind::UnwindCursor<libunwind::LocalAddressSpace, libunwind::Registers_arm64>::getInfoFromDwarfSection(unsigned long, libunwind::UnwindInfoSections const&, unsigned int)
PUBLIC 25b08 0 libunwind::findUnwindSectionsByPhdr(dl_phdr_info*, unsigned long, void*)
PUBLIC 25c3c 0 libunwind::EHHeaderParser<libunwind::LocalAddressSpace>::decodeEHHdr(libunwind::LocalAddressSpace&, unsigned long, unsigned long, libunwind::EHHeaderParser<libunwind::LocalAddressSpace>::EHHeaderInfo&)
PUBLIC 25d5c 0 libunwind::CFI_Parser<libunwind::LocalAddressSpace>::findFDE(libunwind::LocalAddressSpace&, unsigned long, unsigned long, unsigned long, unsigned long, libunwind::CFI_Parser<libunwind::LocalAddressSpace>::FDE_Info*, libunwind::CFI_Parser<libunwind::LocalAddressSpace>::CIE_Info*)
PUBLIC 25f24 0 libunwind::EHHeaderParser<libunwind::LocalAddressSpace>::findFDE(libunwind::LocalAddressSpace&, unsigned long, unsigned long, unsigned int, libunwind::CFI_Parser<libunwind::LocalAddressSpace>::FDE_Info*, libunwind::CFI_Parser<libunwind::LocalAddressSpace>::CIE_Info*)
PUBLIC 2608c 0 libunwind::EHHeaderParser<libunwind::LocalAddressSpace>::getTableEntrySize(unsigned char)
PUBLIC 26188 0 libunwind::Registers_arm64::getRegisterName(int)
PUBLIC 261b8 0 __libunwind_Registers_arm64_jumpto
PUBLIC m 26248 0 __unw_getcontext
PUBLIC 262f0 0 __aarch64_ldadd8_relax
PUBLIC 26320 0 init_have_lse_atomics
PUBLIC 263b8 0 __init_cpu_features_constructor
PUBLIC 26954 0 __init_cpu_features
PUBLIC 269e0 0 __aarch64_ldadd8_acq_rel
FUNC 26a10 1c 0 nlohmann::json_abi_v3_11_2::basic_json<std::__ndk1::map, std::__ndk1::vector, std::__ndk1::basic_string<char, std::__ndk1::char_traits<char>, std::__ndk1::allocator<char> >, bool, long, unsigned long, double, std::__ndk1::allocator, nlohmann::json_abi_v3_11_2::adl_serializer, std::__ndk1::vector<unsigned char, std::__ndk1::allocator<unsigned char> >, void>::~basic_json()
FUNC 26a2c 7d8 0 generateFilename(GJGameLevel*)
FUNC 27204 5f4 0 __cxx_global_var_init.25
FUNC 277f8 18 0 geode::modifier::ModifyBase<geode::modifier::ModifyDerive<XLevelInfoLayer, LevelInfoLayer> >::~ModifyBase()
FUNC 27810 444 0 __cxx_global_var_init.26
FUNC 27c54 18 0 geode::modifier::ModifyBase<geode::modifier::ModifyDerive<XLevelSelectLayer, LevelSelectLayer> >::~ModifyBase()
FUNC 27c6c 444 0 __cxx_global_var_init.27
FUNC 280b0 18 0 geode::modifier::ModifyBase<geode::modifier::ModifyDerive<XEditLevelLayer, EditLevelLayer> >::~ModifyBase()
FUNC 280c8 444 0 __cxx_global_var_init.28
FUNC 2850c 18 0 geode::modifier::ModifyBase<geode::modifier::ModifyDerive<XPlayLayer, PlayLayer> >::~ModifyBase()
FUNC 28524 41c 0 __cxx_global_var_init.29
FUNC 28940 24 0 _GLOBAL__sub_I_main.cpp
FUNC 28964 18 0 geode::modifier::ModifyBase<geode::modifier::ModifyDerive<hook1311<(anonymous namespace)::hook1311Parent>, PlayerObject> >::~ModifyBase()
FUNC 2897c 184 0 DRDelegate::FLAlert_Clicked(FLAlertLayer*, bool)
FUNC 28b00 70 0 std::__ndk1::basic_string<char, std::__ndk1::char_traits<char>, std::__ndk1::allocator<char> >::__init_copy_ctor_external(char const*, unsigned long)
FUNC 28b70 14 0 std::__ndk1::basic_string<char, std::__ndk1::char_traits<char>, std::__ndk1::allocator<char> >::__throw_length_error[abi:ne180000]() const
FUNC 28b84 50 0 std::__ndk1::__throw_length_error[abi:ne180000](char const*)
FUNC 28bd4 30 0 std::length_error::length_error[abi:ne180000](char const*)
FUNC 28c04 34 0 std::__throw_bad_array_new_length([abi:ne180000], void)
PUBLIC 28c38 0 __clang_call_terminate
FUNC 28c48 8c 0 std::__ndk1::basic_string<char, std::__ndk1::char_traits<char>, std::__ndk1::allocator<char> >::basic_string[abi:ne180000]<0>()
FUNC 28cd4 1c 0 nlohmann::json_abi_v3_11_2::basic_json<std::__ndk1::map, std::__ndk1::vector, std::__ndk1::basic_string<char, std::__ndk1::char_traits<char>, std::__ndk1::allocator<char> >, bool, long, unsigned long, double, std::__ndk1::allocator, nlohmann::json_abi_v3_11_2::adl_serializer, std::__ndk1::vector<unsigned char, std::__ndk1::allocator<unsigned char> >, void>::data::~data()
FUNC 28cf0 47c 0 nlohmann::json_abi_v3_11_2::basic_json<std::__ndk1::map, std::__ndk1::vector, std::__ndk1::basic_string<char, std::__ndk1::char_traits<char>, std::__ndk1::allocator<char> >, bool, long, unsigned long, double, std::__ndk1::allocator, nlohmann::json_abi_v3_11_2::adl_serializer, std::__ndk1::vector<unsigned char, std::__ndk1::allocator<unsigned char> >, void>::json_value::destroy(nlohmann::json_abi_v3_11_2::detail::value_t)
FUNC 2916c d8 0 std::__ndk1::vector<nlohmann::json_abi_v3_11_2::basic_json<std::__ndk1::map, std::__ndk1::vector, std::__ndk1::basic_string<char, std::__ndk1::char_traits<char>, std::__ndk1::allocator<char> >, bool, long, unsigned long, double, std::__ndk1::allocator, nlohmann::json_abi_v3_11_2::adl_serializer, std::__ndk1::vector<unsigned char, std::__ndk1::allocator<unsigned char> >, void>, std::__ndk1::allocator<nlohmann::json_abi_v3_11_2::basic_json<std::__ndk1::map, std::__ndk1::vector, std::__ndk1::basic_string<char, std::__ndk1::char_traits<char>, std::__ndk1::allocator<char> >, bool, long, unsigned long, double, std::__ndk1::allocator, nlohmann::json_abi_v3_11_2::adl_serializer, std::__ndk1::vector<unsigned char, std::__ndk1::allocator<unsigned char> >, void> > >::reserve(unsigned long)
FUNC 29244 64 0 std::__ndk1::vector<nlohmann::json_abi_v3_11_2::basic_json<std::__ndk1::map, std::__ndk1::vector, std::__ndk1::basic_string<char, std::__ndk1::char_traits<char>, std::__ndk1::allocator<char> >, bool, long, unsigned long, double, std::__ndk1::allocator, nlohmann::json_abi_v3_11_2::adl_serializer, std::__ndk1::vector<unsigned char, std::__ndk1::allocator<unsigned char> >, void>, std::__ndk1::allocator<nlohmann::json_abi_v3_11_2::basic_json<std::__ndk1::map, std::__ndk1::vector, std::__ndk1::basic_string<char, std::__ndk1::char_traits<char>, std::__ndk1::allocator<char> >, bool, long, unsigned long, double, std::__ndk1::allocator, nlohmann::json_abi_v3_11_2::adl_serializer, std::__ndk1::vector<unsigned char, std::__ndk1::allocator<unsigned char> >, void> > >::~vector[abi:ne180000]()
FUNC 292a8 14 0 std::__ndk1::vector<nlohmann::json_abi_v3_11_2::basic_json<std::__ndk1::map, std::__ndk1::vector, std::__ndk1::basic_string<char, std::__ndk1::char_traits<char>, std::__ndk1::allocator<char> >, bool, long, unsigned long, double, std::__ndk1::allocator, nlohmann::json_abi_v3_11_2::adl_serializer, std::__ndk1::vector<unsigned char, std::__ndk1::allocator<unsigned char> >, void>, std::__ndk1::allocator<nlohmann::json_abi_v3_11_2::basic_json<std::__ndk1::map, std::__ndk1::vector, std::__ndk1::basic_string<char, std::__ndk1::char_traits<char>, std::__ndk1::allocator<char> >, bool, long, unsigned long, double, std::__ndk1::allocator, nlohmann::json_abi_v3_11_2::adl_serializer, std::__ndk1::vector<unsigned char, std::__ndk1::allocator<unsigned char> >, void> > >::__throw_length_error[abi:ne180000]() const
FUNC 292bc 58 0 std::__ndk1::__split_buffer<nlohmann::json_abi_v3_11_2::basic_json<std::__ndk1::map, std::__ndk1::vector, std::__ndk1::basic_string<char, std::__ndk1::char_traits<char>, std::__ndk1::allocator<char> >, bool, long, unsigned long, double, std::__ndk1::allocator, nlohmann::json_abi_v3_11_2::adl_serializer, std::__ndk1::vector<unsigned char, std::__ndk1::allocator<unsigned char> >, void>, std::__ndk1::allocator<nlohmann::json_abi_v3_11_2::basic_json<std::__ndk1::map, std::__ndk1::vector, std::__ndk1::basic_string<char, std::__ndk1::char_traits<char>, std::__ndk1::allocator<char> >, bool, long, unsigned long, double, std::__ndk1::allocator, nlohmann::json_abi_v3_11_2::adl_serializer, std::__ndk1::vector<unsigned char, std::__ndk1::allocator<unsigned char> >, void> >&>::~__split_buffer()
FUNC 29314 11c 0 std::__ndk1::vector<nlohmann::json_abi_v3_11_2::basic_json<std::__ndk1::map, std::__ndk1::vector, std::__ndk1::basic_string<char, std::__ndk1::char_traits<char>, std::__ndk1::allocator<char> >, bool, long, unsigned long, double, std::__ndk1::allocator, nlohmann::json_abi_v3_11_2::adl_serializer, std::__ndk1::vector<unsigned char, std::__ndk1::allocator<unsigned char> >, void>, std::__ndk1::allocator<nlohmann::json_abi_v3_11_2::basic_json<std::__ndk1::map, std::__ndk1::vector, std::__ndk1::basic_string<char, std::__ndk1::char_traits<char>, std::__ndk1::allocator<char> >, bool, long, unsigned long, double, std::__ndk1::allocator, nlohmann::json_abi_v3_11_2::adl_serializer, std::__ndk1::vector<unsigned char, std::__ndk1::allocator<unsigned char> >, void> > >::__push_back_slow_path<nlohmann::json_abi_v3_11_2::basic_json<std::__ndk1::map, std::__ndk1::vector, std::__ndk1::basic_string<char, std::__ndk1::char_traits<char>, std::__ndk1::allocator<char> >, bool, long, unsigned long, double, std::__ndk1::allocator, nlohmann::json_abi_v3_11_2::adl_serializer, std::__ndk1::vector<unsigned char, std::__ndk1::allocator<unsigned char> >, void> >(nlohmann::json_abi_v3_11_2::basic_json<std::__ndk1::map, std::__ndk1::vector, std::__ndk1::basic_string<char, std::__ndk1::char_traits<char>, std::__ndk1::allocator<char> >, bool, long, unsigned long, double, std::__ndk1::allocator, nlohmann::json_abi_v3_11_2::adl_serializer, std::__ndk1::vector<unsigned char, std::__ndk1::allocator<unsigned char> >, void>&&)
FUNC 29430 60 0 std::__ndk1::__tree<std::__ndk1::__value_type<std::__ndk1::basic_string<char, std::__ndk1::char_traits<char>, std::__ndk1::allocator<char> >, nlohmann::json_abi_v3_11_2::basic_json<std::__ndk1::map, std::__ndk1::vector, std::__ndk1::basic_string<char, std::__ndk1::char_traits<char>, std::__ndk1::allocator<char> >, bool, long, unsigned long, double, std::__ndk1::allocator, nlohmann::json_abi_v3_11_2::adl_serializer, std::__ndk1::vector<unsigned char, std::__ndk1::allocator<unsigned char> >, void> >, std::__ndk1::__map_value_compare<std::__ndk1::basic_string<char, std::__ndk1::char_traits<char>, std::__ndk1::allocator<char> >, std::__ndk1::__value_type<std::__ndk1::basic_string<char, std::__ndk1::char_traits<char>, std::__ndk1::allocator<char> >, nlohmann::json_abi_v3_11_2::basic_json<std::__ndk1::map, std::__ndk1::vector, std::__ndk1::basic_string<char, std::__ndk1::char_traits<char>, std::__ndk1::allocator<char> >, bool, long, unsigned long, double, std::__ndk1::allocator, nlohmann::json_abi_v3_11_2::adl_serializer, std::__ndk1::vector<unsigned char, std::__ndk1::allocator<unsigned char> >, void> >, std::__ndk1::less<void>, true>, std::__ndk1::allocator<std::__ndk1::__value_type<std::__ndk1::basic_string<char, std::__ndk1::char_traits<char>, std::__ndk1::allocator<char> >, nlohmann::json_abi_v3_11_2::basic_json<std::__ndk1::map, std::__ndk1::vector, std::__ndk1::basic_string<char, std::__ndk1::char_traits<char>, std::__ndk1::allocator<char> >, bool, long, unsigned long, double, std::__ndk1::allocator, nlohmann::json_abi_v3_11_2::adl_serializer, std::__ndk1::vector<unsigned char, std::__ndk1::allocator<unsigned char> >, void> > > >::destroy(std::__ndk1::__tree_node<std::__ndk1::__value_type<std::__ndk1::basic_string<char, std::__ndk1::char_traits<char>, std::__ndk1::allocator<char> >, nlohmann::json_abi_v3_11_2::basic_json<std::__ndk1::map, std::__ndk1::vector, std::__ndk1::basic_string<char, std::__ndk1::char_traits<char>, std::__ndk1::allocator<char> >, bool, long, unsigned long, double, std::__ndk1::allocator, nlohmann::json_abi_v3_11_2::adl_serializer, std::__ndk1::vector<unsigned char, std::__ndk1::allocator<unsigned char> >, void> >, void*>*)
FUNC 29490 ec 0 nlohmann::json_abi_v3_11_2::basic_json<std::__ndk1::map, std::__ndk1::vector, std::__ndk1::basic_string<char, std::__ndk1::char_traits<char>, std::__ndk1::allocator<char> >, bool, long, unsigned long, double, std::__ndk1::allocator, nlohmann::json_abi_v3_11_2::adl_serializer, std::__ndk1::vector<unsigned char, std::__ndk1::allocator<unsigned char> >, void>::json_value::json_value(nlohmann::json_abi_v3_11_2::detail::value_t)
FUNC 2957c 100 0 nlohmann::json_abi_v3_11_2::detail::concat<std::__ndk1::basic_string<char, std::__ndk1::char_traits<char>, std::__ndk1::allocator<char> >, std::__ndk1::basic_string<char, std::__ndk1::char_traits<char>, std::__ndk1::allocator<char> >, std::__ndk1::basic_string<char, std::__ndk1::char_traits<char>, std::__ndk1::allocator<char> >, std::__ndk1::basic_string<char, std::__ndk1::char_traits<char>, std::__ndk1::allocator<char> > const&>(std::__ndk1::basic_string<char, std::__ndk1::char_traits<char>, std::__ndk1::allocator<char> >&&, std::__ndk1::basic_string<char, std::__ndk1::char_traits<char>, std::__ndk1::allocator<char> >, std::__ndk1::basic_string<char, std::__ndk1::char_traits<char>, std::__ndk1::allocator<char> > const&)
FUNC 2967c 144 0 nlohmann::json_abi_v3_11_2::detail::concat<std::__ndk1::basic_string<char, std::__ndk1::char_traits<char>, std::__ndk1::allocator<char> >, char const (&) [17], std::__ndk1::basic_string<char, std::__ndk1::char_traits<char>, std::__ndk1::allocator<char> > const&, char, std::__ndk1::basic_string<char, std::__ndk1::char_traits<char>, std::__ndk1::allocator<char> >, char const (&) [3]>(char const (&) [17], std::__ndk1::basic_string<char, std::__ndk1::char_traits<char>, std::__ndk1::allocator<char> > const&, char, std::__ndk1::basic_string<char, std::__ndk1::char_traits<char>, std::__ndk1::allocator<char> >, char const (&) [3])
FUNC 297c0 8 0 nlohmann::json_abi_v3_11_2::detail::exception::what() const
FUNC 297c8 38 0 nlohmann::json_abi_v3_11_2::detail::exception::~exception()
FUNC 29800 35c 0 std::__ndk1::__tree<std::__ndk1::__value_type<std::__ndk1::basic_string<char, std::__ndk1::char_traits<char>, std::__ndk1::allocator<char> >, int>, std::__ndk1::__map_value_compare<std::__ndk1::basic_string<char, std::__ndk1::char_traits<char>, std::__ndk1::allocator<char> >, std::__ndk1::__value_type<std::__ndk1::basic_string<char, std::__ndk1::char_traits<char>, std::__ndk1::allocator<char> >, int>, std::__ndk1::less<std::__ndk1::basic_string<char, std::__ndk1::char_traits<char>, std::__ndk1::allocator<char> > >, true>, std::__ndk1::allocator<std::__ndk1::__value_type<std::__ndk1::basic_string<char, std::__ndk1::char_traits<char>, std::__ndk1::allocator<char> >, int> > >::__emplace_hint_unique_key_args<std::__ndk1::basic_string<char, std::__ndk1::char_traits<char>, std::__ndk1::allocator<char> >, std::__ndk1::pair<std::__ndk1::basic_string<char, std::__ndk1::char_traits<char>, std::__ndk1::allocator<char> > const, int> const&>(std::__ndk1::__tree_const_iterator<std::__ndk1::__value_type<std::__ndk1::basic_string<char, std::__ndk1::char_traits<char>, std::__ndk1::allocator<char> >, int>, std::__ndk1::__tree_node<std::__ndk1::__value_type<std::__ndk1::basic_string<char, std::__ndk1::char_traits<char>, std::__ndk1::allocator<char> >, int>, void*>*, long>, std::__ndk1::basic_string<char, std::__ndk1::char_traits<char>, std::__ndk1::allocator<char> > const&, std::__ndk1::pair<std::__ndk1::basic_string<char, std::__ndk1::char_traits<char>, std::__ndk1::allocator<char> > const, int> const&)
FUNC 29b5c 50 0 std::__ndk1::unique_ptr<std::__ndk1::__tree_node<std::__ndk1::__value_type<std::__ndk1::basic_string<char, std::__ndk1::char_traits<char>, std::__ndk1::allocator<char> >, int>, void*>, std::__ndk1::__tree_node_destructor<std::__ndk1::allocator<std::__ndk1::__tree_node<std::__ndk1::__value_type<std::__ndk1::basic_string<char, std::__ndk1::char_traits<char>, std::__ndk1::allocator<char> >, int>, void*> > > >::~unique_ptr[abi:ne180000]()
FUNC 29bac 104 0 std::__ndk1::__tree<std::__ndk1::__value_type<std::__ndk1::basic_string<char, std::__ndk1::char_traits<char>, std::__ndk1::allocator<char> >, int>, std::__ndk1::__map_value_compare<std::__ndk1::basic_string<char, std::__ndk1::char_traits<char>, std::__ndk1::allocator<char> >, std::__ndk1::__value_type<std::__ndk1::basic_string<char, std::__ndk1::char_traits<char>, std::__ndk1::allocator<char> >, int>, std::__ndk1::less<std::__ndk1::basic_string<char, std::__ndk1::char_traits<char>, std::__ndk1::allocator<char> > >, true>, std::__ndk1::allocator<std::__ndk1::__value_type<std::__ndk1::basic_string<char, std::__ndk1::char_traits<char>, std::__ndk1::allocator<char> >, int> > >::__find_equal<std::__ndk1::basic_string<char, std::__ndk1::char_traits<char>, std::__ndk1::allocator<char> > >(std::__ndk1::__tree_end_node<std::__ndk1::__tree_node_base<void*>*>*&, std::__ndk1::basic_string<char, std::__ndk1::char_traits<char>, std::__ndk1::allocator<char> > const&)
FUNC 29cb0 19c 0 std::__ndk1::__tree_balance_after_insert[abi:ne180000]<std::__ndk1::__tree_node_base<void*>*>(std::__ndk1::__tree_node_base<void*>*, std::__ndk1::__tree_node_base<void*>*)
FUNC 29e4c 48 0 std::__ndk1::__tree<std::__ndk1::__value_type<std::__ndk1::basic_string<char, std::__ndk1::char_traits<char>, std::__ndk1::allocator<char> >, int>, std::__ndk1::__map_value_compare<std::__ndk1::basic_string<char, std::__ndk1::char_traits<char>, std::__ndk1::allocator<char> >, std::__ndk1::__value_type<std::__ndk1::basic_string<char, std::__ndk1::char_traits<char>, std::__ndk1::allocator<char> >, int>, std::__ndk1::less<std::__ndk1::basic_string<char, std::__ndk1::char_traits<char>, std::__ndk1::allocator<char> > >, true>, std::__ndk1::allocator<std::__ndk1::__value_type<std::__ndk1::basic_string<char, std::__ndk1::char_traits<char>, std::__ndk1::allocator<char> >, int> > >::destroy(std::__ndk1::__tree_node<std::__ndk1::__value_type<std::__ndk1::basic_string<char, std::__ndk1::char_traits<char>, std::__ndk1::allocator<char> >, int>, void*>*)
FUNC 29e94 3f4 0 geode::modifier::ModifyDerive<XLevelInfoLayer, LevelInfoLayer>::apply()
FUNC 2a288 50 0 std::__ndk1::shared_ptr<geode::Hook>::~shared_ptr[abi:ne180000]()
FUNC 2a2d8 74 0 geode::impl::ResultData<geode::Hook*, std::__ndk1::basic_string<char, std::__ndk1::char_traits<char>, std::__ndk1::allocator<char> > >::~ResultData()
FUNC 2a34c 7c 0 std::__ndk1::vector<std::__ndk1::basic_string<char, std::__ndk1::char_traits<char>, std::__ndk1::allocator<char> >, std::__ndk1::allocator<std::__ndk1::basic_string<char, std::__ndk1::char_traits<char>, std::__ndk1::allocator<char> > > >::~vector[abi:ne180000]()
FUNC 2a3c8 4 0 geode::modifier::ModifyBase<geode::modifier::ModifyDerive<XLevelInfoLayer, LevelInfoLayer> >::apply()
FUNC 2a3cc fc 0 std::__ndk1::__tree<std::__ndk1::__value_type<std::__ndk1::basic_string<char, std::__ndk1::char_traits<char>, std::__ndk1::allocator<char> >, std::__ndk1::shared_ptr<geode::Hook> >, std::__ndk1::__map_value_compare<std::__ndk1::basic_string<char, std::__ndk1::char_traits<char>, std::__ndk1::allocator<char> >, std::__ndk1::__value_type<std::__ndk1::basic_string<char, std::__ndk1::char_traits<char>, std::__ndk1::allocator<char> >, std::__ndk1::shared_ptr<geode::Hook> >, std::__ndk1::less<std::__ndk1::basic_string<char, std::__ndk1::char_traits<char>, std::__ndk1::allocator<char> > >, true>, std::__ndk1::allocator<std::__ndk1::__value_type<std::__ndk1::basic_string<char, std::__ndk1::char_traits<char>, std::__ndk1::allocator<char> >, std::__ndk1::shared_ptr<geode::Hook> > > >::find<std::__ndk1::basic_string<char, std::__ndk1::char_traits<char>, std::__ndk1::allocator<char> > >(std::__ndk1::basic_string<char, std::__ndk1::char_traits<char>, std::__ndk1::allocator<char> > const&)
FUNC 2a4c8 104 0 std::__ndk1::__tree<std::__ndk1::__value_type<std::__ndk1::basic_string<char, std::__ndk1::char_traits<char>, std::__ndk1::allocator<char> >, std::__ndk1::shared_ptr<geode::Hook> >, std::__ndk1::__map_value_compare<std::__ndk1::basic_string<char, std::__ndk1::char_traits<char>, std::__ndk1::allocator<char> >, std::__ndk1::__value_type<std::__ndk1::basic_string<char, std::__ndk1::char_traits<char>, std::__ndk1::allocator<char> >, std::__ndk1::shared_ptr<geode::Hook> >, std::__ndk1::less<std::__ndk1::basic_string<char, std::__ndk1::char_traits<char>, std::__ndk1::allocator<char> > >, true>, std::__ndk1::allocator<std::__ndk1::__value_type<std::__ndk1::basic_string<char, std::__ndk1::char_traits<char>, std::__ndk1::allocator<char> >, std::__ndk1::shared_ptr<geode::Hook> > > >::__find_equal<std::__ndk1::basic_string<char, std::__ndk1::char_traits<char>, std::__ndk1::allocator<char> > >(std::__ndk1::__tree_end_node<std::__ndk1::__tree_node_base<void*>*>*&, std::__ndk1::basic_string<char, std::__ndk1::char_traits<char>, std::__ndk1::allocator<char> > const&)
FUNC 2a5cc 154 0 _ZN5geode15UnwrapExceptionC2IRPNS_4HookEQsr4implE18IsStringStreamableIT_EEENS_4impl5OkTagEOS5_
FUNC 2a720 34 0 std::__ndk1::__throw_bad_variant_access[abi:ne180000]()
FUNC 2a754 124 0 std::__ndk1::basic_stringstream<char, std::__ndk1::char_traits<char>, std::__ndk1::allocator<char> >::basic_stringstream[abi:ne180000]()
FUNC 2a878 80 0 std::__ndk1::basic_stringstream<char, std::__ndk1::char_traits<char>, std::__ndk1::allocator<char> >::~basic_stringstream()
FUNC 2a8f8 24 0 geode::UnwrapException::~UnwrapException()
FUNC 2a91c 198 0 std::__ndk1::__put_character_sequence[abi:ne180000]<char, std::__ndk1::char_traits<char> >(std::__ndk1::basic_ostream<char, std::__ndk1::char_traits<char> >, std::__ndk1::basic_ostream const*, unsigned long)
FUNC 2aab4 1b4 0 std::__ndk1::__pad_and_output[abi:ne180000]<char, std::__ndk1::char_traits<char> >(std::__ndk1::char_traits<char>, std::__ndk1::ostreambuf_iterator const*, std::__ndk1::ostreambuf_iterator const, std::__ndk1::ostreambuf_iterator const, std::__ndk1::ios_base&, std::__ndk1::ostreambuf_iterator)
FUNC 2ac68 15c 0 std::__ndk1::basic_stringbuf<char, std::__ndk1::char_traits<char>, std::__ndk1::allocator<char> >::str[abi:ne180000]() &&
FUNC 2adc4 148 0 std::__ndk1::basic_stringbuf<char, std::__ndk1::char_traits<char>, std::__ndk1::allocator<char> >::__init_buf_ptrs[abi:ne180000]()
FUNC 2af0c 168 0 _ZN5geode15UnwrapExceptionC2IRNSt6__ndk112basic_stringIcNS2_11char_traitsIcEENS2_9allocatorIcEEEEQsr4implE18IsStringStreamableIT_EEENS_4impl6ErrTagEOSA_
FUNC 2b074 4 0 std::__ndk1::__variant_detail::__visitation::__base::__dispatcher<(unsigned long)0>::__dispatch[abi:ne180000]<std::__ndk1::__variant_detail::__dtor<std::__ndk1::__variant_detail::__traits<std::__ndk1::monostate, std::__ndk1::basic_string<char, std::__ndk1::char_traits<char>, std::__ndk1::allocator<char> > >, (std::__ndk1::__variant_detail::_Trait)1>::__destroy[abi:ne180000]()::{lambda(auto:1&)#1}, std::__ndk1::__variant_detail::__base<(std::__ndk1::__variant_detail::__traits<std::__ndk1::monostate, std::__ndk1::basic_string<char, std::__ndk1::char_traits<char>, std::__ndk1::allocator<char> > >)1, std::__ndk1::__variant_detail::__traits, std::__ndk1::allocator<char> >&>(std::__ndk1::__variant_detail::__dtor<std::__ndk1::__variant_detail::__traits<std::__ndk1::monostate, std::__ndk1::basic_string<char, std::__ndk1::char_traits<char>, std::__ndk1::allocator<char> > >, (std::__ndk1::__variant_detail::_Trait)1>, std::__ndk1::__variant_detail::__base<(std::__ndk1::__variant_detail::__traits<std::__ndk1::monostate, std::__ndk1::basic_string<char, std::__ndk1::char_traits<char>, std::__ndk1::allocator<char> > >)1, std::__ndk1::__variant_detail::__traits, std::__ndk1::allocator<char> >&)
FUNC 2b078 14 0 std::__ndk1::__variant_detail::__visitation::__base::__dispatcher<(unsigned long)1>::__dispatch[abi:ne180000]<std::__ndk1::__variant_detail::__dtor<std::__ndk1::__variant_detail::__traits<std::__ndk1::monostate, std::__ndk1::basic_string<char, std::__ndk1::char_traits<char>, std::__ndk1::allocator<char> > >, (std::__ndk1::__variant_detail::_Trait)1>::__destroy[abi:ne180000]()::{lambda(auto:1&)#1}, std::__ndk1::__variant_detail::__base<(std::__ndk1::__variant_detail::__traits<std::__ndk1::monostate, std::__ndk1::basic_string<char, std::__ndk1::char_traits<char>, std::__ndk1::allocator<char> > >)1, std::__ndk1::__variant_detail::__traits, std::__ndk1::allocator<char> >&>(std::__ndk1::__variant_detail::__dtor<std::__ndk1::__variant_detail::__traits<std::__ndk1::monostate, std::__ndk1::basic_string<char, std::__ndk1::char_traits<char>, std::__ndk1::allocator<char> > >, (std::__ndk1::__variant_detail::_Trait)1>, std::__ndk1::__variant_detail::__base<(std::__ndk1::__variant_detail::__traits<std::__ndk1::monostate, std::__ndk1::basic_string<char, std::__ndk1::char_traits<char>, std::__ndk1::allocator<char> > >)1, std::__ndk1::__variant_detail::__traits, std::__ndk1::allocator<char> >&)
FUNC 2b08c 218 0 std::__ndk1::vector<std::__ndk1::basic_string<char, std::__ndk1::char_traits<char>, std::__ndk1::allocator<char> >, std::__ndk1::allocator<std::__ndk1::basic_string<char, std::__ndk1::char_traits<char>, std::__ndk1::allocator<char> > > >::__push_back_slow_path<std::__ndk1::basic_string<char, std::__ndk1::char_traits<char>, std::__ndk1::allocator<char> > const&>(std::__ndk1::basic_string<char, std::__ndk1::char_traits<char>, std::__ndk1::allocator<char> > const&)
FUNC 2b2a4 68 0 std::__ndk1::__split_buffer<std::__ndk1::basic_string<char, std::__ndk1::char_traits<char>, std::__ndk1::allocator<char> >, std::__ndk1::allocator<std::__ndk1::basic_string<char, std::__ndk1::char_traits<char>, std::__ndk1::allocator<char> > >&>::~__split_buffer()
FUNC 2b30c 14 0 std::__ndk1::vector<std::__ndk1::basic_string<char, std::__ndk1::char_traits<char>, std::__ndk1::allocator<char> >, std::__ndk1::allocator<std::__ndk1::basic_string<char, std::__ndk1::char_traits<char>, std::__ndk1::allocator<char> > > >::__throw_length_error[abi:ne180000]() const
FUNC 2b320 4 0 std::__ndk1::__variant_detail::__visitation::__base::__dispatcher<(unsigned long)0>::__dispatch[abi:ne180000]<std::__ndk1::__variant_detail::__dtor<std::__ndk1::__variant_detail::__traits<geode::Hook*, std::__ndk1::basic_string<char, std::__ndk1::char_traits<char>, std::__ndk1::allocator<char> > >, (std::__ndk1::__variant_detail::_Trait)1>::__destroy[abi:ne180000]()::{lambda(auto:1&)#1}, std::__ndk1::__variant_detail::__base<(std::__ndk1::__variant_detail::__traits<geode::Hook*, std::__ndk1::basic_string<char, std::__ndk1::char_traits<char>, std::__ndk1::allocator<char> > >)1, geode::Hook, std::__ndk1::allocator<char> >&>(std::__ndk1::__variant_detail::__dtor<std::__ndk1::__variant_detail::__traits<geode::Hook*, std::__ndk1::basic_string<char, std::__ndk1::char_traits<char>, std::__ndk1::allocator<char> > >, (std::__ndk1::__variant_detail::_Trait)1>, std::__ndk1::__variant_detail::__base<(std::__ndk1::__variant_detail::__traits<geode::Hook*, std::__ndk1::basic_string<char, std::__ndk1::char_traits<char>, std::__ndk1::allocator<char> > >)1, geode::Hook, std::__ndk1::allocator<char> >&)
FUNC 2b324 14 0 std::__ndk1::__variant_detail::__visitation::__base::__dispatcher<(unsigned long)1>::__dispatch[abi:ne180000]<std::__ndk1::__variant_detail::__dtor<std::__ndk1::__variant_detail::__traits<geode::Hook*, std::__ndk1::basic_string<char, std::__ndk1::char_traits<char>, std::__ndk1::allocator<char> > >, (std::__ndk1::__variant_detail::_Trait)1>::__destroy[abi:ne180000]()::{lambda(auto:1&)#1}, std::__ndk1::__variant_detail::__base<(std::__ndk1::__variant_detail::__traits<geode::Hook*, std::__ndk1::basic_string<char, std::__ndk1::char_traits<char>, std::__ndk1::allocator<char> > >)1, geode::Hook, std::__ndk1::allocator<char> >&>(std::__ndk1::__variant_detail::__dtor<std::__ndk1::__variant_detail::__traits<geode::Hook*, std::__ndk1::basic_string<char, std::__ndk1::char_traits<char>, std::__ndk1::allocator<char> > >, (std::__ndk1::__variant_detail::_Trait)1>, std::__ndk1::__variant_detail::__base<(std::__ndk1::__variant_detail::__traits<geode::Hook*, std::__ndk1::basic_string<char, std::__ndk1::char_traits<char>, std::__ndk1::allocator<char> > >)1, geode::Hook, std::__ndk1::allocator<char> >&)
FUNC 2b338 c4 0 std::__ndk1::__tree<std::__ndk1::__value_type<std::__ndk1::basic_string<char, std::__ndk1::char_traits<char>, std::__ndk1::allocator<char> >, std::__ndk1::shared_ptr<geode::Hook> >, std::__ndk1::__map_value_compare<std::__ndk1::basic_string<char, std::__ndk1::char_traits<char>, std::__ndk1::allocator<char> >, std::__ndk1::__value_type<std::__ndk1::basic_string<char, std::__ndk1::char_traits<char>, std::__ndk1::allocator<char> >, std::__ndk1::shared_ptr<geode::Hook> >, std::__ndk1::less<std::__ndk1::basic_string<char, std::__ndk1::char_traits<char>, std::__ndk1::allocator<char> > >, true>, std::__ndk1::allocator<std::__ndk1::__value_type<std::__ndk1::basic_string<char, std::__ndk1::char_traits<char>, std::__ndk1::allocator<char> >, std::__ndk1::shared_ptr<geode::Hook> > > >::erase(std::__ndk1::__tree_const_iterator<std::__ndk1::__value_type<std::__ndk1::basic_string<char, std::__ndk1::char_traits<char>, std::__ndk1::allocator<char> >, std::__ndk1::shared_ptr<geode::Hook> >, std::__ndk1::__tree_node<std::__ndk1::__value_type<std::__ndk1::basic_string<char, std::__ndk1::char_traits<char>, std::__ndk1::allocator<char> >, std::__ndk1::shared_ptr<geode::Hook> >, void*>*, long>)
FUNC 2b3fc 388 0 std::__ndk1::__tree_remove[abi:ne180000]<std::__ndk1::__tree_node_base<void*>*>(std::__ndk1::__tree_node_base<void*>*, std::__ndk1::__tree_node_base<void*>*)
FUNC 2b784 84 0 std::__ndk1::__tree<std::__ndk1::__value_type<std::__ndk1::basic_string<char, std::__ndk1::char_traits<char>, std::__ndk1::allocator<char> >, std::__ndk1::shared_ptr<geode::Hook> >, std::__ndk1::__map_value_compare<std::__ndk1::basic_string<char, std::__ndk1::char_traits<char>, std::__ndk1::allocator<char> >, std::__ndk1::__value_type<std::__ndk1::basic_string<char, std::__ndk1::char_traits<char>, std::__ndk1::allocator<char> >, std::__ndk1::shared_ptr<geode::Hook> >, std::__ndk1::less<std::__ndk1::basic_string<char, std::__ndk1::char_traits<char>, std::__ndk1::allocator<char> > >, true>, std::__ndk1::allocator<std::__ndk1::__value_type<std::__ndk1::basic_string<char, std::__ndk1::char_traits<char>, std::__ndk1::allocator<char> >, std::__ndk1::shared_ptr<geode::Hook> > > >::destroy(std::__ndk1::__tree_node<std::__ndk1::__value_type<std::__ndk1::basic_string<char, std::__ndk1::char_traits<char>, std::__ndk1::allocator<char> >, std::__ndk1::shared_ptr<geode::Hook> >, void*>*)
FUNC 2b808 2cc 0 geode::modifier::AsStaticFunction_init<XLevelInfoLayer, bool (XLevelInfoLayer::*)(GJGameLevel*, bool)>::Impl<bool (XLevelInfoLayer::*)(GJGameLevel*, bool)>::function(XLevelInfoLayer*, GJGameLevel*, bool)
FUNC 2bad4 50 0 std::__ndk1::shared_ptr<tulip::hook::CallingConvention>::~shared_ptr[abi:ne180000]()
FUNC 2bb24 64 0 tulip::hook::HandlerMetadata::~HandlerMetadata()
FUNC 2bb88 14 0 std::__ndk1::vector<tulip::hook::AbstractType, std::__ndk1::allocator<tulip::hook::AbstractType> >::__throw_length_error[abi:ne180000]() const
FUNC 2bb9c ba4 0 XLevelInfoLayer::onDeathReplay(cocos2d::CCObject*)
FUNC 2c740 110 0 std::__ndk1::basic_ifstream<char, std::__ndk1::char_traits<char> >::basic_ifstream(std::__ndk1::basic_string<char, std::__ndk1::char_traits<char>, std::__ndk1::allocator<char> > const&, unsigned int)
FUNC 2c850 398 0 nlohmann::json_abi_v3_11_2::basic_json<std::__ndk1::map, std::__ndk1::vector, std::__ndk1::basic_string<char, std::__ndk1::char_traits<char>, std::__ndk1::allocator<char> >, bool, long, unsigned long, double, std::__ndk1::allocator, nlohmann::json_abi_v3_11_2::adl_serializer, std::__ndk1::vector<unsigned char, std::__ndk1::allocator<unsigned char> >, void>::parse<std::__ndk1::basic_ifstream<char, std::__ndk1::char_traits<char> >&>(std::__ndk1::basic_ifstream<char, std::__ndk1::char_traits<char> >&, std::__ndk1::function<bool (int, nlohmann::json_abi_v3_11_2::detail::parse_event_t, nlohmann::json_abi_v3_11_2::basic_json<std::__ndk1::map, std::__ndk1::vector, std::__ndk1::basic_string<char, std::__ndk1::char_traits<char>, std::__ndk1::allocator<char> >, bool, long, unsigned long, double, std::__ndk1::allocator, nlohmann::json_abi_v3_11_2::adl_serializer, std::__ndk1::vector<unsigned char, std::__ndk1::allocator<unsigned char> >, void>&)>, bool, bool)
FUNC 2cbe8 50 0 std::__ndk1::basic_ifstream<char, std::__ndk1::char_traits<char> >::~basic_ifstream()
FUNC 2cc38 2ec 0 _ZNSt6__ndk112basic_stringIcNS_11char_traitsIcEENS_9allocatorIcEEE6appendB8ne180000IPKcTnNS_9enable_ifIXsr31__has_forward_iterator_categoryIT_EE5valueEiE4typeELi0EEERS5_SA_SA_
FUNC 2cf24 34ac 0 nlohmann::json_abi_v3_11_2::detail::parser<nlohmann::json_abi_v3_11_2::basic_json<std::__ndk1::map, std::__ndk1::vector, std::__ndk1::basic_string<char, std::__ndk1::char_traits<char>, std::__ndk1::allocator<char> >, bool, long, unsigned long, double, std::__ndk1::allocator, nlohmann::json_abi_v3_11_2::adl_serializer, std::__ndk1::vector<unsigned char, std::__ndk1::allocator<unsigned char> >, void>, nlohmann::json_abi_v3_11_2::detail::input_stream_adapter>::parse(bool, nlohmann::json_abi_v3_11_2::basic_json<std::__ndk1::map, std::__ndk1::vector, std::__ndk1::basic_string<char, std::__ndk1::char_traits<char>, std::__ndk1::allocator<char> >, bool, long, unsigned long, double, std::__ndk1::allocator, nlohmann::json_abi_v3_11_2::adl_serializer, std::__ndk1::vector<unsigned char, std::__ndk1::allocator<unsigned char> >, void>&)
FUNC 303d0 98 0 nlohmann::json_abi_v3_11_2::detail::parser<nlohmann::json_abi_v3_11_2::basic_json<std::__ndk1::map, std::__ndk1::vector, std::__ndk1::basic_string<char, std::__ndk1::char_traits<char>, std::__ndk1::allocator<char> >, bool, long, unsigned long, double, std::__ndk1::allocator, nlohmann::json_abi_v3_11_2::adl_serializer, std::__ndk1::vector<unsigned char, std::__ndk1::allocator<unsigned char> >, void>, nlohmann::json_abi_v3_11_2::detail::input_stream_adapter>::~parser()
FUNC 30468 34 0 nlohmann::json_abi_v3_11_2::detail::input_stream_adapter::~input_stream_adapter()
FUNC 3049c 60 0 nlohmann::json_abi_v3_11_2::detail::lexer<nlohmann::json_abi_v3_11_2::basic_json<std::__ndk1::map, std::__ndk1::vector, std::__ndk1::basic_string<char, std::__ndk1::char_traits<char>, std::__ndk1::allocator<char> >, bool, long, unsigned long, double, std::__ndk1::allocator, nlohmann::json_abi_v3_11_2::adl_serializer, std::__ndk1::vector<unsigned char, std::__ndk1::allocator<unsigned char> >, void>, nlohmann::json_abi_v3_11_2::detail::input_stream_adapter>::~lexer()
FUNC 304fc c08 0 nlohmann::json_abi_v3_11_2::detail::lexer<nlohmann::json_abi_v3_11_2::basic_json<std::__ndk1::map, std::__ndk1::vector, std::__ndk1::basic_string<char, std::__ndk1::char_traits<char>, std::__ndk1::allocator<char> >, bool, long, unsigned long, double, std::__ndk1::allocator, nlohmann::json_abi_v3_11_2::adl_serializer, std::__ndk1::vector<unsigned char, std::__ndk1::allocator<unsigned char> >, void>, nlohmann::json_abi_v3_11_2::detail::input_stream_adapter>::scan()
FUNC 31104 238 0 nlohmann::json_abi_v3_11_2::detail::lexer<nlohmann::json_abi_v3_11_2::basic_json<std::__ndk1::map, std::__ndk1::vector, std::__ndk1::basic_string<char, std::__ndk1::char_traits<char>, std::__ndk1::allocator<char> >, bool, long, unsigned long, double, std::__ndk1::allocator, nlohmann::json_abi_v3_11_2::adl_serializer, std::__ndk1::vector<unsigned char, std::__ndk1::allocator<unsigned char> >, void>, nlohmann::json_abi_v3_11_2::detail::input_stream_adapter>::get()
FUNC 3133c 14 0 std::__ndk1::vector<char, std::__ndk1::allocator<char> >::__throw_length_error[abi:ne180000]() const
FUNC 31350 128 0 nlohmann::json_abi_v3_11_2::detail::lexer<nlohmann::json_abi_v3_11_2::basic_json<std::__ndk1::map, std::__ndk1::vector, std::__ndk1::basic_string<char, std::__ndk1::char_traits<char>, std::__ndk1::allocator<char> >, bool, long, unsigned long, double, std::__ndk1::allocator, nlohmann::json_abi_v3_11_2::adl_serializer, std::__ndk1::vector<unsigned char, std::__ndk1::allocator<unsigned char> >, void>, nlohmann::json_abi_v3_11_2::detail::input_stream_adapter>::get_codepoint()
FUNC 31478 50 0 nlohmann::json_abi_v3_11_2::detail::json_sax_dom_callback_parser<nlohmann::json_abi_v3_11_2::basic_json<std::__ndk1::map, std::__ndk1::vector, std::__ndk1::basic_string<char, std::__ndk1::char_traits<char>, std::__ndk1::allocator<char> >, bool, long, unsigned long, double, std::__ndk1::allocator, nlohmann::json_abi_v3_11_2::adl_serializer, std::__ndk1::vector<unsigned char, std::__ndk1::allocator<unsigned char> >, void> >::parse_error<nlohmann::json_abi_v3_11_2::detail::parse_error>(unsigned long, std::__ndk1::basic_string<char, std::__ndk1::char_traits<char>, std::__ndk1::allocator<char> > const&, nlohmann::json_abi_v3_11_2::detail::parse_error const&)
FUNC 314c8 100 0 nlohmann::json_abi_v3_11_2::detail::lexer<nlohmann::json_abi_v3_11_2::basic_json<std::__ndk1::map, std::__ndk1::vector, std::__ndk1::basic_string<char, std::__ndk1::char_traits<char>, std::__ndk1::allocator<char> >, bool, long, unsigned long, double, std::__ndk1::allocator, nlohmann::json_abi_v3_11_2::adl_serializer, std::__ndk1::vector<unsigned char, std::__ndk1::allocator<unsigned char> >, void>, nlohmann::json_abi_v3_11_2::detail::input_stream_adapter>::get_token_string() const
FUNC 315c8 4dc 0 _ZN8nlohmann16json_abi_v3_11_26detail11parse_error6createIDnTnNSt6__ndk19enable_ifIXsr21is_basic_json_contextIT_EE5valueEiE4typeELi0EEES2_iRKNS1_10position_tERKNS4_12basic_stringIcNS4_11char_traitsIcEENS4_9allocatorIcEEEES6_
FUNC 31aa4 46c 0 nlohmann::json_abi_v3_11_2::detail::parser<nlohmann::json_abi_v3_11_2::basic_json<std::__ndk1::map, std::__ndk1::vector, std::__ndk1::basic_string<char, std::__ndk1::char_traits<char>, std::__ndk1::allocator<char> >, bool, long, unsigned long, double, std::__ndk1::allocator, nlohmann::json_abi_v3_11_2::adl_serializer, std::__ndk1::vector<unsigned char, std::__ndk1::allocator<unsigned char> >, void>, nlohmann::json_abi_v3_11_2::detail::input_stream_adapter>::exception_message(nlohmann::json_abi_v3_11_2::detail::lexer_base<nlohmann::json_abi_v3_11_2::basic_json<std::__ndk1::map, std::__ndk1::vector, std::__ndk1::basic_string<char, std::__ndk1::char_traits<char>, std::__ndk1::allocator<char> >, bool, long, unsigned long, double, std::__ndk1::allocator, nlohmann::json_abi_v3_11_2::adl_serializer, std::__ndk1::vector<unsigned char, std::__ndk1::allocator<unsigned char> >, void> >::token_type, std::__ndk1::basic_string<char, std::__ndk1::char_traits<char>, std::__ndk1::allocator<char> > const&)
FUNC 31f10 30 0 nlohmann::json_abi_v3_11_2::detail::exception::~exception()
FUNC 31f40 8c 0 nlohmann::json_abi_v3_11_2::detail::json_sax_dom_callback_parser<nlohmann::json_abi_v3_11_2::basic_json<std::__ndk1::map, std::__ndk1::vector, std::__ndk1::basic_string<char, std::__ndk1::char_traits<char>, std::__ndk1::allocator<char> >, bool, long, unsigned long, double, std::__ndk1::allocator, nlohmann::json_abi_v3_11_2::adl_serializer, std::__ndk1::vector<unsigned char, std::__ndk1::allocator<unsigned char> >, void> >::~json_sax_dom_callback_parser()
FUNC 31fcc 50 0 nlohmann::json_abi_v3_11_2::detail::json_sax_dom_parser<nlohmann::json_abi_v3_11_2::basic_json<std::__ndk1::map, std::__ndk1::vector, std::__ndk1::basic_string<char, std::__ndk1::char_traits<char>, std::__ndk1::allocator<char> >, bool, long, unsigned long, double, std::__ndk1::allocator, nlohmann::json_abi_v3_11_2::adl_serializer, std::__ndk1::vector<unsigned char, std::__ndk1::allocator<unsigned char> >, void> >::parse_error<nlohmann::json_abi_v3_11_2::detail::parse_error>(unsigned long, std::__ndk1::basic_string<char, std::__ndk1::char_traits<char>, std::__ndk1::allocator<char> > const&, nlohmann::json_abi_v3_11_2::detail::parse_error const&)
FUNC 3201c 100 0 std::__ndk1::vector<bool, std::__ndk1::allocator<bool> >::reserve(unsigned long)
FUNC 3211c 14 0 std::__ndk1::vector<bool, std::__ndk1::allocator<bool> >::__throw_length_error[abi:ne180000]() const
FUNC 32130 528 0 nlohmann::json_abi_v3_11_2::detail::json_sax_dom_callback_parser<nlohmann::json_abi_v3_11_2::basic_json<std::__ndk1::map, std::__ndk1::vector, std::__ndk1::basic_string<char, std::__ndk1::char_traits<char>, std::__ndk1::allocator<char> >, bool, long, unsigned long, double, std::__ndk1::allocator, nlohmann::json_abi_v3_11_2::adl_serializer, std::__ndk1::vector<unsigned char, std::__ndk1::allocator<unsigned char> >, void> >::end_object()
FUNC 32658 24c 0 nlohmann::json_abi_v3_11_2::detail::json_sax_dom_callback_parser<nlohmann::json_abi_v3_11_2::basic_json<std::__ndk1::map, std::__ndk1::vector, std::__ndk1::basic_string<char, std::__ndk1::char_traits<char>, std::__ndk1::allocator<char> >, bool, long, unsigned long, double, std::__ndk1::allocator, nlohmann::json_abi_v3_11_2::adl_serializer, std::__ndk1::vector<unsigned char, std::__ndk1::allocator<unsigned char> >, void> >::key(std::__ndk1::basic_string<char, std::__ndk1::char_traits<char>, std::__ndk1::allocator<char> >&)
FUNC 328a4 18c 0 nlohmann::json_abi_v3_11_2::detail::json_sax_dom_callback_parser<nlohmann::json_abi_v3_11_2::basic_json<std::__ndk1::map, std::__ndk1::vector, std::__ndk1::basic_string<char, std::__ndk1::char_traits<char>, std::__ndk1::allocator<char> >, bool, long, unsigned long, double, std::__ndk1::allocator, nlohmann::json_abi_v3_11_2::adl_serializer, std::__ndk1::vector<unsigned char, std::__ndk1::allocator<unsigned char> >, void> >::end_array()
FUNC 32a30 50 0 nlohmann::json_abi_v3_11_2::detail::json_sax_dom_callback_parser<nlohmann::json_abi_v3_11_2::basic_json<std::__ndk1::map, std::__ndk1::vector, std::__ndk1::basic_string<char, std::__ndk1::char_traits<char>, std::__ndk1::allocator<char> >, bool, long, unsigned long, double, std::__ndk1::allocator, nlohmann::json_abi_v3_11_2::adl_serializer, std::__ndk1::vector<unsigned char, std::__ndk1::allocator<unsigned char> >, void> >::parse_error<nlohmann::json_abi_v3_11_2::detail::out_of_range>(unsigned long, std::__ndk1::basic_string<char, std::__ndk1::char_traits<char>, std::__ndk1::allocator<char> > const&, nlohmann::json_abi_v3_11_2::detail::out_of_range const&)
FUNC 32a80 1e0 0 _ZN8nlohmann16json_abi_v3_11_26detail12out_of_range6createIDnTnNSt6__ndk19enable_ifIXsr21is_basic_json_contextIT_EE5valueEiE4typeELi0EEES2_iRKNS4_12basic_stringIcNS4_11char_traitsIcEENS4_9allocatorIcEEEES6_
FUNC 32c60 c4 0 nlohmann::json_abi_v3_11_2::detail::concat<std::__ndk1::basic_string<char, std::__ndk1::char_traits<char>, std::__ndk1::allocator<char> >, char const (&) [26], std::__ndk1::basic_string<char, std::__ndk1::char_traits<char>, std::__ndk1::allocator<char> >, char>(char const (&) [26], std::__ndk1::basic_string<char, std::__ndk1::char_traits<char>, std::__ndk1::allocator<char> >, char)
FUNC 32d24 1e8 0 nlohmann::json_abi_v3_11_2::detail::json_sax_dom_callback_parser<nlohmann::json_abi_v3_11_2::basic_json<std::__ndk1::map, std::__ndk1::vector, std::__ndk1::basic_string<char, std::__ndk1::char_traits<char>, std::__ndk1::allocator<char> >, bool, long, unsigned long, double, std::__ndk1::allocator, nlohmann::json_abi_v3_11_2::adl_serializer, std::__ndk1::vector<unsigned char, std::__ndk1::allocator<unsigned char> >, void> >::handle_value<nlohmann::json_abi_v3_11_2::detail::value_t>(nlohmann::json_abi_v3_11_2::detail::value_t&&, bool)
FUNC 32f0c 34 0 std::__ndk1::__throw_bad_function_call[abi:ne180000]()
FUNC 32f40 24 0 std::__ndk1::bad_function_call::~bad_function_call()
FUNC 32f64 11c 0 std::__ndk1::vector<nlohmann::json_abi_v3_11_2::basic_json<std::__ndk1::map, std::__ndk1::vector, std::__ndk1::basic_string<char, std::__ndk1::char_traits<char>, std::__ndk1::allocator<char> >, bool, long, unsigned long, double, std::__ndk1::allocator, nlohmann::json_abi_v3_11_2::adl_serializer, std::__ndk1::vector<unsigned char, std::__ndk1::allocator<unsigned char> >, void>, std::__ndk1::allocator<nlohmann::json_abi_v3_11_2::basic_json<std::__ndk1::map, std::__ndk1::vector, std::__ndk1::basic_string<char, std::__ndk1::char_traits<char>, std::__ndk1::allocator<char> >, bool, long, unsigned long, double, std::__ndk1::allocator, nlohmann::json_abi_v3_11_2::adl_serializer, std::__ndk1::vector<unsigned char, std::__ndk1::allocator<unsigned char> >, void> > >::__emplace_back_slow_path<nlohmann::json_abi_v3_11_2::basic_json<std::__ndk1::map, std::__ndk1::vector, std::__ndk1::basic_string<char, std::__ndk1::char_traits<char>, std::__ndk1::allocator<char> >, bool, long, unsigned long, double, std::__ndk1::allocator, nlohmann::json_abi_v3_11_2::adl_serializer, std::__ndk1::vector<unsigned char, std::__ndk1::allocator<unsigned char> >, void> >(nlohmann::json_abi_v3_11_2::basic_json<std::__ndk1::map, std::__ndk1::vector, std::__ndk1::basic_string<char, std::__ndk1::char_traits<char>, std::__ndk1::allocator<char> >, bool, long, unsigned long, double, std::__ndk1::allocator, nlohmann::json_abi_v3_11_2::adl_serializer, std::__ndk1::vector<unsigned char, std::__ndk1::allocator<unsigned char> >, void>&&)
FUNC 33080 14 0 std::__ndk1::vector<nlohmann::json_abi_v3_11_2::basic_json<std::__ndk1::map, std::__ndk1::vector, std::__ndk1::basic_string<char, std::__ndk1::char_traits<char>, std::__ndk1::allocator<char> >, bool, long, unsigned long, double, std::__ndk1::allocator, nlohmann::json_abi_v3_11_2::adl_serializer, std::__ndk1::vector<unsigned char, std::__ndk1::allocator<unsigned char> >, void>*, std::__ndk1::allocator<nlohmann::json_abi_v3_11_2::basic_json<std::__ndk1::map, std::__ndk1::vector, std::__ndk1::basic_string<char, std::__ndk1::char_traits<char>, std::__ndk1::allocator<char> >, bool, long, unsigned long, double, std::__ndk1::allocator, nlohmann::json_abi_v3_11_2::adl_serializer, std::__ndk1::vector<unsigned char, std::__ndk1::allocator<unsigned char> >, void>*> >::__throw_length_error[abi:ne180000]() const
FUNC 33094 38 0 nlohmann::json_abi_v3_11_2::detail::out_of_range::~out_of_range()
FUNC 330cc 4ac 0 nlohmann::json_abi_v3_11_2::basic_json<std::__ndk1::map, std::__ndk1::vector, std::__ndk1::basic_string<char, std::__ndk1::char_traits<char>, std::__ndk1::allocator<char> >, bool, long, unsigned long, double, std::__ndk1::allocator, nlohmann::json_abi_v3_11_2::adl_serializer, std::__ndk1::vector<unsigned char, std::__ndk1::allocator<unsigned char> >, void>::basic_json(nlohmann::json_abi_v3_11_2::basic_json<std::__ndk1::map, std::__ndk1::vector, std::__ndk1::basic_string<char, std::__ndk1::char_traits<char>, std::__ndk1::allocator<char> >, bool, long, unsigned long, double, std::__ndk1::allocator, nlohmann::json_abi_v3_11_2::adl_serializer, std::__ndk1::vector<unsigned char, std::__ndk1::allocator<unsigned char> >, void> const&)
FUNC 33578 5c 0 std::__ndk1::unique_ptr<std::__ndk1::__tree_node<std::__ndk1::__value_type<std::__ndk1::basic_string<char, std::__ndk1::char_traits<char>, std::__ndk1::allocator<char> >, nlohmann::json_abi_v3_11_2::basic_json<std::__ndk1::map, std::__ndk1::vector, std::__ndk1::basic_string<char, std::__ndk1::char_traits<char>, std::__ndk1::allocator<char> >, bool, long, unsigned long, double, std::__ndk1::allocator, nlohmann::json_abi_v3_11_2::adl_serializer, std::__ndk1::vector<unsigned char, std::__ndk1::allocator<unsigned char> >, void> >, void*>, std::__ndk1::__tree_node_destructor<std::__ndk1::allocator<std::__ndk1::__tree_node<std::__ndk1::__value_type<std::__ndk1::basic_string<char, std::__ndk1::char_traits<char>, std::__ndk1::allocator<char> >, nlohmann::json_abi_v3_11_2::basic_json<std::__ndk1::map, std::__ndk1::vector, std::__ndk1::basic_string<char, std::__ndk1::char_traits<char>, std::__ndk1::allocator<char> >, bool, long, unsigned long, double, std::__ndk1::allocator, nlohmann::json_abi_v3_11_2::adl_serializer, std::__ndk1::vector<unsigned char, std::__ndk1::allocator<unsigned char> >, void> >, void*> > > >::~unique_ptr[abi:ne180000]()
FUNC 335d4 104 0 std::__ndk1::__tree<std::__ndk1::__value_type<std::__ndk1::basic_string<char, std::__ndk1::char_traits<char>, std::__ndk1::allocator<char> >, nlohmann::json_abi_v3_11_2::basic_json<std::__ndk1::map, std::__ndk1::vector, std::__ndk1::basic_string<char, std::__ndk1::char_traits<char>, std::__ndk1::allocator<char> >, bool, long, unsigned long, double, std::__ndk1::allocator, nlohmann::json_abi_v3_11_2::adl_serializer, std::__ndk1::vector<unsigned char, std::__ndk1::allocator<unsigned char> >, void> >, std::__ndk1::__map_value_compare<std::__ndk1::basic_string<char, std::__ndk1::char_traits<char>, std::__ndk1::allocator<char> >, std::__ndk1::__value_type<std::__ndk1::basic_string<char, std::__ndk1::char_traits<char>, std::__ndk1::allocator<char> >, nlohmann::json_abi_v3_11_2::basic_json<std::__ndk1::map, std::__ndk1::vector, std::__ndk1::basic_string<char, std::__ndk1::char_traits<char>, std::__ndk1::allocator<char> >, bool, long, unsigned long, double, std::__ndk1::allocator, nlohmann::json_abi_v3_11_2::adl_serializer, std::__ndk1::vector<unsigned char, std::__ndk1::allocator<unsigned char> >, void> >, std::__ndk1::less<void>, true>, std::__ndk1::allocator<std::__ndk1::__value_type<std::__ndk1::basic_string<char, std::__ndk1::char_traits<char>, std::__ndk1::allocator<char> >, nlohmann::json_abi_v3_11_2::basic_json<std::__ndk1::map, std::__ndk1::vector, std::__ndk1::basic_string<char, std::__ndk1::char_traits<char>, std::__ndk1::allocator<char> >, bool, long, unsigned long, double, std::__ndk1::allocator, nlohmann::json_abi_v3_11_2::adl_serializer, std::__ndk1::vector<unsigned char, std::__ndk1::allocator<unsigned char> >, void> > > >::__find_equal<std::__ndk1::basic_string<char, std::__ndk1::char_traits<char>, std::__ndk1::allocator<char> > >(std::__ndk1::__tree_end_node<std::__ndk1::__tree_node_base<void*>*>*&, std::__ndk1::basic_string<char, std::__ndk1::char_traits<char>, std::__ndk1::allocator<char> > const&)
FUNC 336d8 74 0 std::__ndk1::__exception_guard_exceptions<std::__ndk1::vector<nlohmann::json_abi_v3_11_2::basic_json<std::__ndk1::map, std::__ndk1::vector, std::__ndk1::basic_string<char, std::__ndk1::char_traits<char>, std::__ndk1::allocator<char> >, bool, long, unsigned long, double, std::__ndk1::allocator, nlohmann::json_abi_v3_11_2::adl_serializer, std::__ndk1::vector<unsigned char, std::__ndk1::allocator<unsigned char> >, void>, std::__ndk1::allocator<nlohmann::json_abi_v3_11_2::basic_json<std::__ndk1::map, std::__ndk1::vector, std::__ndk1::basic_string<char, std::__ndk1::char_traits<char>, std::__ndk1::allocator<char> >, bool, long, unsigned long, double, std::__ndk1::allocator, nlohmann::json_abi_v3_11_2::adl_serializer, std::__ndk1::vector<unsigned char, std::__ndk1::allocator<unsigned char> >, void> > >::__destroy_vector>::~__exception_guard_exceptions[abi:ne180000]()
FUNC 3374c 48 0 std::__ndk1::__exception_guard_exceptions<std::__ndk1::_AllocatorDestroyRangeReverse<std::__ndk1::allocator<nlohmann::json_abi_v3_11_2::basic_json<std::__ndk1::map, std::__ndk1::vector, std::__ndk1::basic_string<char, std::__ndk1::char_traits<char>, std::__ndk1::allocator<char> >, bool, long, unsigned long, double, std::__ndk1::allocator, nlohmann::json_abi_v3_11_2::adl_serializer, std::__ndk1::vector<unsigned char, std::__ndk1::allocator<unsigned char> >, void> >, nlohmann::json_abi_v3_11_2::basic_json<std::__ndk1::map, std::__ndk1::vector, std::__ndk1::basic_string<char, std::__ndk1::char_traits<char>, std::__ndk1::allocator<char> >, bool, long, unsigned long, double, std::__ndk1::allocator, nlohmann::json_abi_v3_11_2::adl_serializer, std::__ndk1::vector<unsigned char, std::__ndk1::allocator<unsigned char> >, void>*> >::~__exception_guard_exceptions[abi:ne180000]()
FUNC 33794 14 0 std::__ndk1::vector<unsigned char, std::__ndk1::allocator<unsigned char> >::__throw_length_error[abi:ne180000]() const
FUNC 337a8 1d0 0 _ZN8nlohmann16json_abi_v3_11_26detail16invalid_iterator6createIPNS0_10basic_jsonINSt6__ndk13mapENS5_6vectorENS5_12basic_stringIcNS5_11char_traitsIcEENS5_9allocatorIcEEEEblmdSB_NS0_14adl_serializerENS7_IhNSB_IhEEEEvEETnNS5_9enable_ifIXsr21is_basic_json_contextIT_EE5valueEiE4typeELi0EEES2_iRKSD_SK_
FUNC 33978 38 0 nlohmann::json_abi_v3_11_2::detail::invalid_iterator::~invalid_iterator()
FUNC 339b0 1d8 0 _ZN8nlohmann16json_abi_v3_11_26detail10type_error6createIPNS0_10basic_jsonINSt6__ndk13mapENS5_6vectorENS5_12basic_stringIcNS5_11char_traitsIcEENS5_9allocatorIcEEEEblmdSB_NS0_14adl_serializerENS7_IhNSB_IhEEEEvEETnNS5_9enable_ifIXsr21is_basic_json_contextIT_EE5valueEiE4typeELi0EEES2_iRKSD_SK_
FUNC 33b88 a8 0 nlohmann::json_abi_v3_11_2::detail::concat<std::__ndk1::basic_string<char, std::__ndk1::char_traits<char>, std::__ndk1::allocator<char> >, char const (&) [25], char const*>(char const (&) [25], char const*)
FUNC 33c30 2c 0 nlohmann::json_abi_v3_11_2::basic_json<std::__ndk1::map, std::__ndk1::vector, std::__ndk1::basic_string<char, std::__ndk1::char_traits<char>, std::__ndk1::allocator<char> >, bool, long, unsigned long, double, std::__ndk1::allocator, nlohmann::json_abi_v3_11_2::adl_serializer, std::__ndk1::vector<unsigned char, std::__ndk1::allocator<unsigned char> >, void>::type_name() const
FUNC 33c5c 38 0 nlohmann::json_abi_v3_11_2::detail::type_error::~type_error()
FUNC 33c94 120 0 std::__ndk1::__tree<std::__ndk1::__value_type<std::__ndk1::basic_string<char, std::__ndk1::char_traits<char>, std::__ndk1::allocator<char> >, nlohmann::json_abi_v3_11_2::basic_json<std::__ndk1::map, std::__ndk1::vector, std::__ndk1::basic_string<char, std::__ndk1::char_traits<char>, std::__ndk1::allocator<char> >, bool, long, unsigned long, double, std::__ndk1::allocator, nlohmann::json_abi_v3_11_2::adl_serializer, std::__ndk1::vector<unsigned char, std::__ndk1::allocator<unsigned char> >, void> >, std::__ndk1::__map_value_compare<std::__ndk1::basic_string<char, std::__ndk1::char_traits<char>, std::__ndk1::allocator<char> >, std::__ndk1::__value_type<std::__ndk1::basic_string<char, std::__ndk1::char_traits<char>, std::__ndk1::allocator<char> >, nlohmann::json_abi_v3_11_2::basic_json<std::__ndk1::map, std::__ndk1::vector, std::__ndk1::basic_string<char, std::__ndk1::char_traits<char>, std::__ndk1::allocator<char> >, bool, long, unsigned long, double, std::__ndk1::allocator, nlohmann::json_abi_v3_11_2::adl_serializer, std::__ndk1::vector<unsigned char, std::__ndk1::allocator<unsigned char> >, void> >, std::__ndk1::less<void>, true>, std::__ndk1::allocator<std::__ndk1::__value_type<std::__ndk1::basic_string<char, std::__ndk1::char_traits<char>, std::__ndk1::allocator<char> >, nlohmann::json_abi_v3_11_2::basic_json<std::__ndk1::map, std::__ndk1::vector, std::__ndk1::basic_string<char, std::__ndk1::char_traits<char>, std::__ndk1::allocator<char> >, bool, long, unsigned long, double, std::__ndk1::allocator, nlohmann::json_abi_v3_11_2::adl_serializer, std::__ndk1::vector<unsigned char, std::__ndk1::allocator<unsigned char> >, void> > > >::__emplace_unique_key_args<std::__ndk1::basic_string<char, std::__ndk1::char_traits<char>, std::__ndk1::allocator<char> >, std::__ndk1::piecewise_construct_t const&, std::__ndk1::tuple<std::__ndk1::basic_string<char, std::__ndk1::char_traits<char>, std::__ndk1::allocator<char> > const&>, std::__ndk1::tuple<> >(std::__ndk1::basic_string<char, std::__ndk1::char_traits<char>, std::__ndk1::allocator<char> > const&, std::__ndk1::piecewise_construct_t const&, std::__ndk1::tuple<std::__ndk1::basic_string<char, std::__ndk1::char_traits<char>, std::__ndk1::allocator<char> > const&>, std::__ndk1::tuple<>)
FUNC 33db4 48 0 nlohmann::json_abi_v3_11_2::detail::out_of_range::out_of_range(nlohmann::json_abi_v3_11_2::detail::out_of_range const&)
FUNC 33dfc 1fc 0 nlohmann::json_abi_v3_11_2::detail::json_sax_dom_callback_parser<nlohmann::json_abi_v3_11_2::basic_json<std::__ndk1::map, std::__ndk1::vector, std::__ndk1::basic_string<char, std::__ndk1::char_traits<char>, std::__ndk1::allocator<char> >, bool, long, unsigned long, double, std::__ndk1::allocator, nlohmann::json_abi_v3_11_2::adl_serializer, std::__ndk1::vector<unsigned char, std::__ndk1::allocator<unsigned char> >, void> >::handle_value<bool&>(bool&, bool)
FUNC 33ff8 54 0 nlohmann::json_abi_v3_11_2::detail::parse_error::parse_error(nlohmann::json_abi_v3_11_2::detail::parse_error const&)
FUNC 3404c 38 0 nlohmann::json_abi_v3_11_2::detail::parse_error::~parse_error()
FUNC 34084 a4 0 snprintf(char*, unsigned long pass_object_size1, char const*, ...)
FUNC 34128 50 0 nlohmann::json_abi_v3_11_2::detail::json_sax_dom_parser<nlohmann::json_abi_v3_11_2::basic_json<std::__ndk1::map, std::__ndk1::vector, std::__ndk1::basic_string<char, std::__ndk1::char_traits<char>, std::__ndk1::allocator<char> >, bool, long, unsigned long, double, std::__ndk1::allocator, nlohmann::json_abi_v3_11_2::adl_serializer, std::__ndk1::vector<unsigned char, std::__ndk1::allocator<unsigned char> >, void> >::parse_error<nlohmann::json_abi_v3_11_2::detail::out_of_range>(unsigned long, std::__ndk1::basic_string<char, std::__ndk1::char_traits<char>, std::__ndk1::allocator<char> > const&, nlohmann::json_abi_v3_11_2::detail::out_of_range const&)
FUNC 34178 2b4 0 nlohmann::json_abi_v3_11_2::detail::json_sax_dom_parser<nlohmann::json_abi_v3_11_2::basic_json<std::__ndk1::map, std::__ndk1::vector, std::__ndk1::basic_string<char, std::__ndk1::char_traits<char>, std::__ndk1::allocator<char> >, bool, long, unsigned long, double, std::__ndk1::allocator, nlohmann::json_abi_v3_11_2::adl_serializer, std::__ndk1::vector<unsigned char, std::__ndk1::allocator<unsigned char> >, void> >::handle_value<nlohmann::json_abi_v3_11_2::detail::value_t>(nlohmann::json_abi_v3_11_2::detail::value_t&&)
FUNC 3442c 218 0 nlohmann::json_abi_v3_11_2::detail::json_sax_dom_parser<nlohmann::json_abi_v3_11_2::basic_json<std::__ndk1::map, std::__ndk1::vector, std::__ndk1::basic_string<char, std::__ndk1::char_traits<char>, std::__ndk1::allocator<char> >, bool, long, unsigned long, double, std::__ndk1::allocator, nlohmann::json_abi_v3_11_2::adl_serializer, std::__ndk1::vector<unsigned char, std::__ndk1::allocator<unsigned char> >, void> >::handle_value<bool&>(bool&)
FUNC 34644 8 0 cocos2d::CCCopying::copyWithZone(cocos2d::CCZone*)
FUNC 3464c 24 0 DrInfoPopup::~DrInfoPopup()
FUNC 34670 4 0 DrInfoPopup::update(float)
FUNC 34674 790 0 DrInfoPopup::init()
FUNC 34e04 38 0 DrInfoPopup::registerWithTouchDispatcher()
FUNC 34e3c 4 0 cocos2d::CCLayerRGBA::setOpacityModifyRGB(bool)
FUNC 34e40 8 0 cocos2d::CCLayerRGBA::isOpacityModifyRGB()
FUNC 34e48 8 0 {virtual override thunk({offset(-320)}, DrInfoPopup::~DrInfoPopup())}
FUNC 34e50 28 0 {virtual override thunk({offset(-320)}, DrInfoPopup::~DrInfoPopup())}
FUNC 34e78 4 0 cocos2d::CCKeyboardDelegate::keyUp(cocos2d::enumKeyCodes)
FUNC 34e7c 4 0 cocos2d::CCMouseDelegate::rightKeyDown()
FUNC 34e80 4 0 cocos2d::CCMouseDelegate::rightKeyUp()
FUNC 34e84 4 0 cocos2d::CCMouseDelegate::scrollWheel(float, float)
FUNC 34e88 4 0 {virtual override thunk({offset(-408)}, cocos2d::CCLayerRGBA::setOpacityModifyRGB(bool))}
FUNC 34e8c 8 0 {virtual override thunk({offset(-408)}, cocos2d::CCLayerRGBA::isOpacityModifyRGB())}
FUNC 34e94 c 0 DrInfoPopup::onExitButton(cocos2d::CCObject*)
FUNC 34ea0 24 0 DrPercentageBar::~DrPercentageBar()
FUNC 34ec4 4 0 DrPercentageBar::update(float)
FUNC 34ec8 3a4 0 geode::modifier::ModifyDerive<XLevelSelectLayer, LevelSelectLayer>::apply()
FUNC 3526c 4 0 geode::modifier::ModifyBase<geode::modifier::ModifyDerive<XLevelSelectLayer, LevelSelectLayer> >::apply()
FUNC 35270 1dc 0 geode::modifier::AsStaticFunction_init<XLevelSelectLayer, bool (XLevelSelectLayer::*)(int)>::Impl<bool (XLevelSelectLayer::*)(int)>::function(XLevelSelectLayer*, int)
FUNC 3544c 2a0 0 XLevelSelectLayer::onDeathReplay(cocos2d::CCObject*)
FUNC 356ec 764 0 XLevelSelectLayer::checkPossibilityS(float)
FUNC 35e50 e8 0 XLevelSelectLayer::detectLevelID()
FUNC 35f38 d8 0 geode::cast::traverseTypeinfoFor(void*, geode::cast::ClassTypeinfoType const*, char const*)
FUNC 36010 3b0 0 geode::modifier::ModifyDerive<XEditLevelLayer, EditLevelLayer>::apply()
FUNC 363c0 4 0 geode::modifier::ModifyBase<geode::modifier::ModifyDerive<XEditLevelLayer, EditLevelLayer> >::apply()
FUNC 363c4 13c 0 geode::modifier::AsStaticFunction_init<XEditLevelLayer, bool (XEditLevelLayer::*)(GJGameLevel*)>::Impl<bool (XEditLevelLayer::*)(GJGameLevel*)>::function(XEditLevelLayer*, GJGameLevel*)
FUNC 36500 f4 0 XEditLevelLayer::onDeathReplay(cocos2d::CCObject*)
FUNC 365f4 ba0 0 geode::modifier::ModifyDerive<XPlayLayer, PlayLayer>::apply()
FUNC 37194 4 0 geode::modifier::ModifyBase<geode::modifier::ModifyDerive<XPlayLayer, PlayLayer> >::apply()
FUNC 37198 b8 0 geode::addresser::getVirtual<void (PlayLayer::*)(float)>(void (PlayLayer::*)(float))
FUNC 37250 13c8 0 geode::modifier::AsStaticFunction_updateVisibility<XPlayLayer, void (XPlayLayer::*)(float)>::Impl<void (XPlayLayer::*)(float)>::function(XPlayLayer*, float)
FUNC 38618 e8c 0 geode::modifier::AsStaticFunction_init<XPlayLayer, bool (XPlayLayer::*)(GJGameLevel*, bool, bool)>::Impl<bool (XPlayLayer::*)(GJGameLevel*, bool, bool)>::function(XPlayLayer*, GJGameLevel*, bool, bool)
FUNC 394a4 134 0 geode::Hook::create<void (*)(XPlayLayer*)>(void*, void (*)(XPlayLayer*), std::__ndk1::basic_string<char, std::__ndk1::char_traits<char>, std::__ndk1::allocator<char> > const&, tulip::hook::TulipConvention, tulip::hook::HookMetadata const&)
FUNC 395d8 b2c 0 geode::modifier::AsStaticFunction_resetLevel<XPlayLayer, void (XPlayLayer::*)()>::Impl<void (XPlayLayer::*)()>::function(XPlayLayer*)
FUNC 3a104 1d4 0 geode::modifier::AsStaticFunction_startGame<XPlayLayer, void (XPlayLayer::*)()>::Impl<void (XPlayLayer::*)()>::function(XPlayLayer*)
FUNC 3a2d8 788 0 PlayLayer::PlayLayer(geode::ZeroConstructorType)
FUNC 3aa60 550 0 GJGameState::GJGameState()
FUNC 3afb0 78 0 geode::stl::unordered_map<int, int, geode::stl::hash<int>, geode::stl::equal_to<int>, std::__ndk1::allocator<std::__ndk1::pair<int const, int> > >::~unordered_map()
FUNC 3b028 78 0 geode::stl::unordered_set<int, geode::stl::hash<int>, geode::stl::equal_to<int>, std::__ndk1::allocator<int> >::~unordered_set()
FUNC 3b0a0 84 0 geode::stl::unordered_map<int, gd::string, geode::stl::hash<int>, geode::stl::equal_to<int>, std::__ndk1::allocator<std::__ndk1::pair<int const, gd::string> > >::~unordered_map()
FUNC 3b124 1c 0 gd::map<std::__ndk1::pair<int, int>, int>::~map()
FUNC 3b140 8c 0 geode::stl::unordered_map<int, gd::vector<LabelGameObject*>, geode::stl::hash<int>, geode::stl::equal_to<int>, std::__ndk1::allocator<std::__ndk1::pair<int const, gd::vector<LabelGameObject*> > > >::~unordered_map()
FUNC 3b1cc 78 0 geode::stl::unordered_map<int, std::__ndk1::pair<int, int>, geode::stl::hash<int>, geode::stl::equal_to<int>, std::__ndk1::allocator<std::__ndk1::pair<int const, std::__ndk1::pair<int, int> > > >::~unordered_map()
FUNC 3b244 8c 0 geode::stl::unordered_map<int, gd::vector<GameObject*>, geode::stl::hash<int>, geode::stl::equal_to<int>, std::__ndk1::allocator<std::__ndk1::pair<int const, gd::vector<GameObject*> > > >::~unordered_map()
FUNC 3b2d0 78 0 geode::stl::unordered_map<int, cocos2d::CCPoint, geode::stl::hash<int>, geode::stl::equal_to<int>, std::__ndk1::allocator<std::__ndk1::pair<int const, cocos2d::CCPoint> > >::~unordered_map()
FUNC 3b348 104 0 gd::vector<geode::stl::unordered_map<int, int, geode::stl::hash<int>, geode::stl::equal_to<int>, std::__ndk1::allocator<std::__ndk1::pair<int const, int> > > >::~vector()
FUNC 3b44c 440 0 GJGameState::~GJGameState()
FUNC 3b88c 78 0 geode::stl::unordered_map<int, SongChannelState, geode::stl::hash<int>, geode::stl::equal_to<int>, std::__ndk1::allocator<std::__ndk1::pair<int const, SongChannelState> > >::~unordered_map()
FUNC 3b904 1c 0 gd::map<std::__ndk1::pair<int, int>, SFXTriggerInstance>::~map()
FUNC 3b920 90 0 geode::stl::unordered_map<int, std::__ndk1::vector<int, std::__ndk1::allocator<int> >, geode::stl::hash<int>, geode::stl::equal_to<int>, std::__ndk1::allocator<std::__ndk1::pair<int const, std::__ndk1::vector<int, std::__ndk1::allocator<int> > > > >::~unordered_map()
FUNC 3b9b0 98 0 gd::vector<EnterEffectInstance>::~vector()
FUNC 3ba48 60 0 geode::stl::unordered_map<int, std::__ndk1::vector<EnterEffectInstance, std::__ndk1::allocator<EnterEffectInstance> >, geode::stl::hash<int>, geode::stl::equal_to<int>, std::__ndk1::allocator<std::__ndk1::pair<int const, std::__ndk1::vector<EnterEffectInstance, std::__ndk1::allocator<EnterEffectInstance> > > > >::~unordered_map()
FUNC 3baa8 1c 0 gd::map<std::__ndk1::pair<GJGameEvent, int>, int>::~map()
FUNC 3bac4 1c 0 gd::map<std::__ndk1::pair<GJGameEvent, int>, gd::vector<EventTriggerInstance> >::~map()
FUNC 3bae0 78 0 geode::stl::unordered_map<int, EnhancedGameObject*, geode::stl::hash<int>, geode::stl::equal_to<int>, std::__ndk1::allocator<std::__ndk1::pair<int const, EnhancedGameObject*> > >::~unordered_map()
FUNC 3bb58 78 0 geode::stl::unordered_map<int, GameObjectPhysics, geode::stl::hash<int>, geode::stl::equal_to<int>, std::__ndk1::allocator<std::__ndk1::pair<int const, GameObjectPhysics> > >::~unordered_map()
FUNC 3bbd0 78 0 geode::stl::unordered_map<int, GJValueTween, geode::stl::hash<int>, geode::stl::equal_to<int>, std::__ndk1::allocator<std::__ndk1::pair<int const, GJValueTween> > >::~unordered_map()
FUNC 3bc48 78 0 geode::stl::unordered_map<int, bool, geode::stl::hash<int>, geode::stl::equal_to<int>, std::__ndk1::allocator<std::__ndk1::pair<int const, bool> > >::~unordered_map()
FUNC 3bcc0 1cc 0 gd::map<std::__ndk1::pair<GJGameEvent, int>, gd::vector<EventTriggerInstance> >::map(std::__ndk1::map<std::__ndk1::pair<GJGameEvent, int>, gd::vector<EventTriggerInstance>, std::__ndk1::less<std::__ndk1::pair<GJGameEvent, int> >, std::__ndk1::allocator<std::__ndk1::pair<std::__ndk1::pair<GJGameEvent, int> const, gd::vector<EventTriggerInstance> > > >)
FUNC 3be8c 250 0 gd::map<std::__ndk1::pair<GJGameEvent, int>, gd::vector<EventTriggerInstance> >::insert_pair(std::__ndk1::pair<std::__ndk1::pair<GJGameEvent, int>, gd::vector<EventTriggerInstance> > const&)
FUNC 3c0dc 80 0 std::__ndk1::pair<std::__ndk1::pair<GJGameEvent, int>, gd::vector<EventTriggerInstance> >::~pair()
FUNC 3c15c 80 0 std::__ndk1::pair<std::__ndk1::pair<GJGameEvent, int> const, gd::vector<EventTriggerInstance> >::~pair()
FUNC 3c1dc 194 0 gd::vector<EventTriggerInstance>::vector(gd::vector<EventTriggerInstance> const&)
FUNC 3c370 250 0 geode::stl::_rb_insert_rebalance(bool, geode::stl::_rb_tree_base*, geode::stl::_rb_tree_base*, geode::stl::_rb_tree_base&)
FUNC 3c5c0 1c8 0 gd::vector<EventTriggerInstance>::operator=(gd::vector<EventTriggerInstance> const&)
FUNC 3c788 80 0 gd::vector<EventTriggerInstance>::~vector()
FUNC 3c808 98 0 std::__ndk1::__tree<std::__ndk1::__value_type<std::__ndk1::pair<GJGameEvent, int>, gd::vector<EventTriggerInstance> >, std::__ndk1::__map_value_compare<std::__ndk1::pair<GJGameEvent, int>, std::__ndk1::__value_type<std::__ndk1::pair<GJGameEvent, int>, gd::vector<EventTriggerInstance> >, std::__ndk1::less<std::__ndk1::pair<GJGameEvent, int> >, true>, std::__ndk1::allocator<std::__ndk1::__value_type<std::__ndk1::pair<GJGameEvent, int>, gd::vector<EventTriggerInstance> > > >::destroy(std::__ndk1::__tree_node<std::__ndk1::__value_type<std::__ndk1::pair<GJGameEvent, int>, gd::vector<EventTriggerInstance> >, void*>*)
FUNC 3c8a0 4c 0 gd::map<std::__ndk1::pair<int, int>, SFXTriggerInstance>::erase(geode::stl::_rb_tree_node<std::__ndk1::pair<std::__ndk1::pair<int, int>, SFXTriggerInstance> >*)
FUNC 3c8ec 4c 0 gd::map<int, EnterEffectAnimValue>::erase(geode::stl::_rb_tree_node<std::__ndk1::pair<int, EnterEffectAnimValue> >*)
FUNC 3c938 88 0 geode::stl::__detail::_Hashtable_alloc<std::__ndk1::allocator<geode::stl::__detail::_Hash_node<std::__ndk1::pair<int const, std::__ndk1::vector<EnterEffectInstance, std::__ndk1::allocator<EnterEffectInstance> > >, false> > >::_M_deallocate_nodes(geode::stl::__detail::_Hash_node<std::__ndk1::pair<int const, std::__ndk1::vector<EnterEffectInstance, std::__ndk1::allocator<EnterEffectInstance> > >, false>*)
FUNC 3c9c0 4c 0 gd::map<std::__ndk1::pair<GJGameEvent, int>, int>::erase(geode::stl::_rb_tree_node<std::__ndk1::pair<std::__ndk1::pair<GJGameEvent, int>, int> >*)
FUNC 3ca0c a8 0 gd::map<std::__ndk1::pair<GJGameEvent, int>, gd::vector<EventTriggerInstance> >::erase(geode::stl::_rb_tree_node<std::__ndk1::pair<std::__ndk1::pair<GJGameEvent, int>, gd::vector<EventTriggerInstance> > >*)
FUNC 3cab4 4c 0 gd::map<std::__ndk1::pair<int, int>, int>::erase(geode::stl::_rb_tree_node<std::__ndk1::pair<std::__ndk1::pair<int, int>, int> >*)
FUNC 3cb00 1e8 0 nlohmann::json_abi_v3_11_2::basic_json<std::__ndk1::map, std::__ndk1::vector, std::__ndk1::basic_string<char, std::__ndk1::char_traits<char>, std::__ndk1::allocator<char> >, bool, long, unsigned long, double, std::__ndk1::allocator, nlohmann::json_abi_v3_11_2::adl_serializer, std::__ndk1::vector<unsigned char, std::__ndk1::allocator<unsigned char> >, void>::operator[]<char const>(char const*)
FUNC 3cce8 2c8 0 nlohmann::json_abi_v3_11_2::basic_json<std::__ndk1::map, std::__ndk1::vector, std::__ndk1::basic_string<char, std::__ndk1::char_traits<char>, std::__ndk1::allocator<char> >, bool, long, unsigned long, double, std::__ndk1::allocator, nlohmann::json_abi_v3_11_2::adl_serializer, std::__ndk1::vector<unsigned char, std::__ndk1::allocator<unsigned char> >, void>::operator[](unsigned long)
FUNC 3cfb0 660 0 geode::modifier::FieldIntermediate<XPlayLayer, PlayLayer>::self()
FUNC 3d610 184 0 geode::modifier::FieldIntermediate<XPlayLayer, PlayLayer>::fieldDestructor(void*)
FUNC 3d794 14 0 std::__ndk1::vector<void*, std::__ndk1::allocator<void*> >::__throw_length_error[abi:ne180000]() const
FUNC 3d7a8 14 0 std::__ndk1::vector<std::__ndk1::function<void (void*)>, std::__ndk1::allocator<std::__ndk1::function<void (void*)> > >::__throw_length_error[abi:ne180000]() const
FUNC 3d7bc 14 0 std::__ndk1::vector<void*, std::__ndk1::allocator<void*> >::__throw_out_of_range[abi:ne180000]() const
FUNC 3d7d0 50 0 std::__ndk1::__throw_out_of_range[abi:ne180000](char const*)
FUNC 3d820 30 0 std::out_of_range::out_of_range[abi:ne180000](char const*)
FUNC 3d850 14 0 std::__ndk1::vector<std::__ndk1::function<void (void*)>, std::__ndk1::allocator<std::__ndk1::function<void (void*)> > >::__throw_out_of_range[abi:ne180000]() const
FUNC 3d864 48 0 std::__ndk1::__tree<std::__ndk1::__value_type<int, std::__ndk1::vector<PlayerEvent, std::__ndk1::allocator<PlayerEvent> > >, std::__ndk1::__map_value_compare<int, std::__ndk1::__value_type<int, std::__ndk1::vector<PlayerEvent, std::__ndk1::allocator<PlayerEvent> > >, std::__ndk1::less<int>, true>, std::__ndk1::allocator<std::__ndk1::__value_type<int, std::__ndk1::vector<PlayerEvent, std::__ndk1::allocator<PlayerEvent> > > > >::destroy(std::__ndk1::__tree_node<std::__ndk1::__value_type<int, std::__ndk1::vector<PlayerEvent, std::__ndk1::allocator<PlayerEvent> > >, void*>*)
FUNC 3d8ac 78 0 GhostPosition::~GhostPosition()
FUNC 3d924 4 0 std::__ndk1::__function::__base<void (void*)>::~__base()
FUNC 3d928 4 0 std::__ndk1::__function::__func<void (*)(void*), std::__ndk1::allocator<void (*)(void*)>, void (void*)>::~__func()
FUNC 3d92c 38 0 std::__ndk1::__function::__func<void (*)(void*), std::__ndk1::allocator<void (*)(void*)>, void (void*)>::__clone() const
FUNC 3d964 18 0 std::__ndk1::__function::__func<void (*)(void*), std::__ndk1::allocator<void (*)(void*)>, void (void*)>::__clone(std::__ndk1::__function::__base<void (void*)>*) const
FUNC 3d97c 4 0 std::__ndk1::__function::__func<void (*)(void*), std::__ndk1::allocator<void (*)(void*)>, void (void*)>::destroy()
FUNC 3d980 4 0 std::__ndk1::__function::__func<void (*)(void*), std::__ndk1::allocator<void (*)(void*)>, void (void*)>::destroy_deallocate()
FUNC 3d984 10 0 std::__ndk1::__function::__func<void (*)(void*), std::__ndk1::allocator<void (*)(void*)>, void (void*)>::operator()(void*&&)
FUNC 3d994 1c 0 std::__ndk1::__function::__func<void (*)(void*), std::__ndk1::allocator<void (*)(void*)>, void (void*)>::target(std::type_info const&) const
FUNC 3d9b0 c 0 std::__ndk1::__function::__func<void (*)(void*), std::__ndk1::allocator<void (*)(void*)>, void (void*)>::target_type() const
FUNC 3d9bc 160 0 std::__ndk1::vector<GhostPlayerFrame, std::__ndk1::allocator<GhostPlayerFrame> >::__init_with_size[abi:ne180000]<GhostPlayerFrame*, std::__ndk1::vector<GhostPlayerFrame, std::__ndk1::allocator<GhostPlayerFrame> >::__init_with_size[abi:ne180000]>(GhostPlayerFrame*, std::__ndk1::vector<GhostPlayerFrame, std::__ndk1::allocator<GhostPlayerFrame> >::__init_with_size[abi:ne180000], unsigned long)
FUNC 3db1c 88 0 std::__ndk1::__exception_guard_exceptions<std::__ndk1::vector<GhostPlayerFrame, std::__ndk1::allocator<GhostPlayerFrame> >::__destroy_vector>::~__exception_guard_exceptions[abi:ne180000]()
FUNC 3dba4 14 0 std::__ndk1::vector<GhostPlayerFrame, std::__ndk1::allocator<GhostPlayerFrame> >::__throw_length_error[abi:ne180000]() const
FUNC 3dbb8 54 0 std::__ndk1::__exception_guard_exceptions<std::__ndk1::_AllocatorDestroyRangeReverse<std::__ndk1::allocator<GhostPlayerFrame>, GhostPlayerFrame*> >::~__exception_guard_exceptions[abi:ne180000]()
FUNC 3dc0c 1a0 0 std::__ndk1::vector<PlayerEvent, std::__ndk1::allocator<PlayerEvent> >::__init_with_size[abi:ne180000]<PlayerEvent*, std::__ndk1::vector<PlayerEvent, std::__ndk1::allocator<PlayerEvent> >::__init_with_size[abi:ne180000]>(PlayerEvent*, std::__ndk1::vector<PlayerEvent, std::__ndk1::allocator<PlayerEvent> >::__init_with_size[abi:ne180000], unsigned long)
FUNC 3ddac 14 0 std::__ndk1::vector<PlayerEvent, std::__ndk1::allocator<PlayerEvent> >::__throw_length_error[abi:ne180000]() const
FUNC 3ddc0 c 0 std::__ndk1::__variant_detail::__visitation::__base::__dispatcher<(unsigned long)0, (unsigned long)0>::__dispatch[abi:ne180000]<std::__ndk1::__variant_detail::__ctor<std::__ndk1::__variant_detail::__traits<unsigned char, DashRingObject*, cocos2d::CCPoint> >::__generic_construct[abi:ne180000]<std::__ndk1::__variant_detail::__copy_constructor<cocos2d::CCPoint, (std::__ndk1::__variant_detail::_Trait)1> const&>(std::__ndk1::__variant_detail::__traits<unsigned char, DashRingObject*, cocos2d::CCPoint>&, std::__ndk1::__variant_detail::__copy_constructor<cocos2d::CCPoint, (std::__ndk1::__variant_detail::_Trait)1> const&)::{lambda(std::__ndk1::__variant_detail::__copy_constructor<cocos2d::CCPoint, (std::__ndk1::__variant_detail::_Trait)1> const&, auto:2&&)#1}, std::__ndk1::__variant_detail::__base<(std::__ndk1::__variant_detail::__ctor<std::__ndk1::__variant_detail::__traits<unsigned char, DashRingObject*, cocos2d::CCPoint> >::__generic_construct[abi:ne180000])0, unsigned char, DashRingObject, cocos2d>&, std::__ndk1::__variant_detail::__ctor<std::__ndk1::__variant_detail::__traits<unsigned char, DashRingObject*, cocos2d::CCPoint> >::__generic_construct[abi:ne180000]<std::__ndk1::__variant_detail::__copy_constructor<cocos2d::CCPoint, (std::__ndk1::__variant_detail::_Trait)1> const&>(std::__ndk1::__variant_detail::__traits<unsigned char, DashRingObject*, cocos2d::CCPoint>&, std::__ndk1::__variant_detail::__copy_constructor<cocos2d::CCPoint, (std::__ndk1::__variant_detail::_Trait)1> const&)::{lambda(std::__ndk1::__variant_detail::__copy_constructor<cocos2d::CCPoint, (std::__ndk1::__variant_detail::_Trait)1> const&, auto:2&&)#1} const&>(std::__ndk1::__variant_detail::__copy_constructor<cocos2d::CCPoint, (std::__ndk1::__variant_detail::_Trait)1> const&, std::__ndk1::__variant_detail::__base<(std::__ndk1::__variant_detail::__ctor<std::__ndk1::__variant_detail::__traits<unsigned char, DashRingObject*, cocos2d::CCPoint> >::__generic_construct[abi:ne180000])0, unsigned char, DashRingObject, cocos2d>&, std::__ndk1::__variant_detail::__ctor<std::__ndk1::__variant_detail::__traits<unsigned char, DashRingObject*, cocos2d::CCPoint> >::__generic_construct[abi:ne180000]<std::__ndk1::__variant_detail::__copy_constructor<cocos2d::CCPoint, (std::__ndk1::__variant_detail::_Trait)1> const&>(std::__ndk1::__variant_detail::__traits<unsigned char, DashRingObject*, cocos2d::CCPoint>&, std::__ndk1::__variant_detail::__copy_constructor<cocos2d::CCPoint, (std::__ndk1::__variant_detail::_Trait)1> const&)::{lambda(std::__ndk1::__variant_detail::__copy_constructor<cocos2d::CCPoint, (std::__ndk1::__variant_detail::_Trait)1> const&, auto:2&&)#1} const&)
FUNC 3ddcc c 0 std::__ndk1::__variant_detail::__visitation::__base::__dispatcher<(unsigned long)1, (unsigned long)1>::__dispatch[abi:ne180000]<std::__ndk1::__variant_detail::__ctor<std::__ndk1::__variant_detail::__traits<unsigned char, DashRingObject*, cocos2d::CCPoint> >::__generic_construct[abi:ne180000]<std::__ndk1::__variant_detail::__copy_constructor<cocos2d::CCPoint, (std::__ndk1::__variant_detail::_Trait)1> const&>(std::__ndk1::__variant_detail::__traits<unsigned char, DashRingObject*, cocos2d::CCPoint>&, std::__ndk1::__variant_detail::__copy_constructor<cocos2d::CCPoint, (std::__ndk1::__variant_detail::_Trait)1> const&)::{lambda(std::__ndk1::__variant_detail::__copy_constructor<cocos2d::CCPoint, (std::__ndk1::__variant_detail::_Trait)1> const&, auto:2&&)#1}, std::__ndk1::__variant_detail::__base<(std::__ndk1::__variant_detail::__ctor<std::__ndk1::__variant_detail::__traits<unsigned char, DashRingObject*, cocos2d::CCPoint> >::__generic_construct[abi:ne180000])0, unsigned char, DashRingObject, cocos2d>&, std::__ndk1::__variant_detail::__ctor<std::__ndk1::__variant_detail::__traits<unsigned char, DashRingObject*, cocos2d::CCPoint> >::__generic_construct[abi:ne180000]<std::__ndk1::__variant_detail::__copy_constructor<cocos2d::CCPoint, (std::__ndk1::__variant_detail::_Trait)1> const&>(std::__ndk1::__variant_detail::__traits<unsigned char, DashRingObject*, cocos2d::CCPoint>&, std::__ndk1::__variant_detail::__copy_constructor<cocos2d::CCPoint, (std::__ndk1::__variant_detail::_Trait)1> const&)::{lambda(std::__ndk1::__variant_detail::__copy_constructor<cocos2d::CCPoint, (std::__ndk1::__variant_detail::_Trait)1> const&, auto:2&&)#1} const&>(std::__ndk1::__variant_detail::__copy_constructor<cocos2d::CCPoint, (std::__ndk1::__variant_detail::_Trait)1> const&, std::__ndk1::__variant_detail::__base<(std::__ndk1::__variant_detail::__ctor<std::__ndk1::__variant_detail::__traits<unsigned char, DashRingObject*, cocos2d::CCPoint> >::__generic_construct[abi:ne180000])0, unsigned char, DashRingObject, cocos2d>&, std::__ndk1::__variant_detail::__ctor<std::__ndk1::__variant_detail::__traits<unsigned char, DashRingObject*, cocos2d::CCPoint> >::__generic_construct[abi:ne180000]<std::__ndk1::__variant_detail::__copy_constructor<cocos2d::CCPoint, (std::__ndk1::__variant_detail::_Trait)1> const&>(std::__ndk1::__variant_detail::__traits<unsigned char, DashRingObject*, cocos2d::CCPoint>&, std::__ndk1::__variant_detail::__copy_constructor<cocos2d::CCPoint, (std::__ndk1::__variant_detail::_Trait)1> const&)::{lambda(std::__ndk1::__variant_detail::__copy_constructor<cocos2d::CCPoint, (std::__ndk1::__variant_detail::_Trait)1> const&, auto:2&&)#1} const&)
FUNC 3ddd8 c 0 std::__ndk1::__variant_detail::__visitation::__base::__dispatcher<(unsigned long)2, (unsigned long)2>::__dispatch[abi:ne180000]<std::__ndk1::__variant_detail::__ctor<std::__ndk1::__variant_detail::__traits<unsigned char, DashRingObject*, cocos2d::CCPoint> >::__generic_construct[abi:ne180000]<std::__ndk1::__variant_detail::__copy_constructor<cocos2d::CCPoint, (std::__ndk1::__variant_detail::_Trait)1> const&>(std::__ndk1::__variant_detail::__traits<unsigned char, DashRingObject*, cocos2d::CCPoint>&, std::__ndk1::__variant_detail::__copy_constructor<cocos2d::CCPoint, (std::__ndk1::__variant_detail::_Trait)1> const&)::{lambda(std::__ndk1::__variant_detail::__copy_constructor<cocos2d::CCPoint, (std::__ndk1::__variant_detail::_Trait)1> const&, auto:2&&)#1}, std::__ndk1::__variant_detail::__base<(std::__ndk1::__variant_detail::__ctor<std::__ndk1::__variant_detail::__traits<unsigned char, DashRingObject*, cocos2d::CCPoint> >::__generic_construct[abi:ne180000])0, unsigned char, DashRingObject, cocos2d>&, std::__ndk1::__variant_detail::__ctor<std::__ndk1::__variant_detail::__traits<unsigned char, DashRingObject*, cocos2d::CCPoint> >::__generic_construct[abi:ne180000]<std::__ndk1::__variant_detail::__copy_constructor<cocos2d::CCPoint, (std::__ndk1::__variant_detail::_Trait)1> const&>(std::__ndk1::__variant_detail::__traits<unsigned char, DashRingObject*, cocos2d::CCPoint>&, std::__ndk1::__variant_detail::__copy_constructor<cocos2d::CCPoint, (std::__ndk1::__variant_detail::_Trait)1> const&)::{lambda(std::__ndk1::__variant_detail::__copy_constructor<cocos2d::CCPoint, (std::__ndk1::__variant_detail::_Trait)1> const&, auto:2&&)#1} const&>(std::__ndk1::__variant_detail::__copy_constructor<cocos2d::CCPoint, (std::__ndk1::__variant_detail::_Trait)1> const&, std::__ndk1::__variant_detail::__base<(std::__ndk1::__variant_detail::__ctor<std::__ndk1::__variant_detail::__traits<unsigned char, DashRingObject*, cocos2d::CCPoint> >::__generic_construct[abi:ne180000])0, unsigned char, DashRingObject, cocos2d>&, std::__ndk1::__variant_detail::__ctor<std::__ndk1::__variant_detail::__traits<unsigned char, DashRingObject*, cocos2d::CCPoint> >::__generic_construct[abi:ne180000]<std::__ndk1::__variant_detail::__copy_constructor<cocos2d::CCPoint, (std::__ndk1::__variant_detail::_Trait)1> const&>(std::__ndk1::__variant_detail::__traits<unsigned char, DashRingObject*, cocos2d::CCPoint>&, std::__ndk1::__variant_detail::__copy_constructor<cocos2d::CCPoint, (std::__ndk1::__variant_detail::_Trait)1> const&)::{lambda(std::__ndk1::__variant_detail::__copy_constructor<cocos2d::CCPoint, (std::__ndk1::__variant_detail::_Trait)1> const&, auto:2&&)#1} const&)
FUNC 3dde4 36c 0 GhostPlayerFrame::processEventOnPlayer(PlayerEvent const&, PlayerObject*)
FUNC 3e150 2e0 0 XPlayLayer::setupPlayerInfoInFrame()
FUNC 3e430 6bc 0 XPlayLayer::pushEvent(PlayerObject*, PlayerEvent)
FUNC 3eaec 30 0 std::__ndk1::__variant_detail::__visitation::__base::__dispatcher<(unsigned long)0, (unsigned long)0>::__dispatch[abi:ne180000]<std::__ndk1::__variant_detail::__assignment<std::__ndk1::__variant_detail::__traits<unsigned char, DashRingObject*, cocos2d::CCPoint> >::__generic_assign[abi:ne180000]<std::__ndk1::__variant_detail::__copy_assignment<cocos2d::CCPoint, (std::__ndk1::__variant_detail::_Trait)1> const&>(std::__ndk1::__variant_detail::__copy_assignment<cocos2d::CCPoint, (std::__ndk1::__variant_detail::_Trait)1> const&)::{lambda(std::__ndk1::__variant_detail::__copy_assignment<cocos2d::CCPoint, (std::__ndk1::__variant_detail::_Trait)1> const&, auto:2&&)#1}, std::__ndk1::__variant_detail::__base<(std::__ndk1::__variant_detail::__assignment<std::__ndk1::__variant_detail::__traits<unsigned char, DashRingObject*, cocos2d::CCPoint> >::__generic_assign[abi:ne180000])0, unsigned char, DashRingObject, cocos2d>&, std::__ndk1::__variant_detail::__assignment<std::__ndk1::__variant_detail::__traits<unsigned char, DashRingObject*, cocos2d::CCPoint> >::__generic_assign[abi:ne180000]<std::__ndk1::__variant_detail::__copy_assignment<cocos2d::CCPoint, (std::__ndk1::__variant_detail::_Trait)1> const&>(std::__ndk1::__variant_detail::__copy_assignment<cocos2d::CCPoint, (std::__ndk1::__variant_detail::_Trait)1> const&)::{lambda(std::__ndk1::__variant_detail::__copy_assignment<cocos2d::CCPoint, (std::__ndk1::__variant_detail::_Trait)1> const&, auto:2&&)#1} const&>(std::__ndk1::__variant_detail::__copy_assignment<cocos2d::CCPoint, (std::__ndk1::__variant_detail::_Trait)1> const, std::__ndk1::__variant_detail::__base<(std::__ndk1::__variant_detail::__assignment<std::__ndk1::__variant_detail::__traits<unsigned char, DashRingObject*, cocos2d::CCPoint> >::__generic_assign[abi:ne180000])0, unsigned char, DashRingObject, cocos2d>&, std::__ndk1::__variant_detail::__assignment<std::__ndk1::__variant_detail::__traits<unsigned char, DashRingObject*, cocos2d::CCPoint> >::__generic_assign[abi:ne180000]<std::__ndk1::__variant_detail::__copy_assignment<cocos2d::CCPoint, (std::__ndk1::__variant_detail::_Trait)1> const&>(std::__ndk1::__variant_detail::__copy_assignment<cocos2d::CCPoint, (std::__ndk1::__variant_detail::_Trait)1> const&)::{lambda(std::__ndk1::__variant_detail::__copy_assignment<cocos2d::CCPoint, (std::__ndk1::__variant_detail::_Trait)1> const&, auto:2&&)#1} const&)
FUNC 3eb1c 2c 0 std::__ndk1::__variant_detail::__visitation::__base::__dispatcher<(unsigned long)1, (unsigned long)1>::__dispatch[abi:ne180000]<std::__ndk1::__variant_detail::__assignment<std::__ndk1::__variant_detail::__traits<unsigned char, DashRingObject*, cocos2d::CCPoint> >::__generic_assign[abi:ne180000]<std::__ndk1::__variant_detail::__copy_assignment<cocos2d::CCPoint, (std::__ndk1::__variant_detail::_Trait)1> const&>(std::__ndk1::__variant_detail::__copy_assignment<cocos2d::CCPoint, (std::__ndk1::__variant_detail::_Trait)1> const&)::{lambda(std::__ndk1::__variant_detail::__copy_assignment<cocos2d::CCPoint, (std::__ndk1::__variant_detail::_Trait)1> const&, auto:2&&)#1}, std::__ndk1::__variant_detail::__base<(std::__ndk1::__variant_detail::__assignment<std::__ndk1::__variant_detail::__traits<unsigned char, DashRingObject*, cocos2d::CCPoint> >::__generic_assign[abi:ne180000])0, unsigned char, DashRingObject, cocos2d>&, std::__ndk1::__variant_detail::__assignment<std::__ndk1::__variant_detail::__traits<unsigned char, DashRingObject*, cocos2d::CCPoint> >::__generic_assign[abi:ne180000]<std::__ndk1::__variant_detail::__copy_assignment<cocos2d::CCPoint, (std::__ndk1::__variant_detail::_Trait)1> const&>(std::__ndk1::__variant_detail::__copy_assignment<cocos2d::CCPoint, (std::__ndk1::__variant_detail::_Trait)1> const&)::{lambda(std::__ndk1::__variant_detail::__copy_assignment<cocos2d::CCPoint, (std::__ndk1::__variant_detail::_Trait)1> const&, auto:2&&)#1} const&>(std::__ndk1::__variant_detail::__copy_assignment<cocos2d::CCPoint, (std::__ndk1::__variant_detail::_Trait)1> const, std::__ndk1::__variant_detail::__base<(std::__ndk1::__variant_detail::__assignment<std::__ndk1::__variant_detail::__traits<unsigned char, DashRingObject*, cocos2d::CCPoint> >::__generic_assign[abi:ne180000])0, unsigned char, DashRingObject, cocos2d>&, std::__ndk1::__variant_detail::__assignment<std::__ndk1::__variant_detail::__traits<unsigned char, DashRingObject*, cocos2d::CCPoint> >::__generic_assign[abi:ne180000]<std::__ndk1::__variant_detail::__copy_assignment<cocos2d::CCPoint, (std::__ndk1::__variant_detail::_Trait)1> const&>(std::__ndk1::__variant_detail::__copy_assignment<cocos2d::CCPoint, (std::__ndk1::__variant_detail::_Trait)1> const&)::{lambda(std::__ndk1::__variant_detail::__copy_assignment<cocos2d::CCPoint, (std::__ndk1::__variant_detail::_Trait)1> const&, auto:2&&)#1} const&)
FUNC 3eb48 34 0 std::__ndk1::__variant_detail::__visitation::__base::__dispatcher<(unsigned long)2, (unsigned long)2>::__dispatch[abi:ne180000]<std::__ndk1::__variant_detail::__assignment<std::__ndk1::__variant_detail::__traits<unsigned char, DashRingObject*, cocos2d::CCPoint> >::__generic_assign[abi:ne180000]<std::__ndk1::__variant_detail::__copy_assignment<cocos2d::CCPoint, (std::__ndk1::__variant_detail::_Trait)1> const&>(std::__ndk1::__variant_detail::__copy_assignment<cocos2d::CCPoint, (std::__ndk1::__variant_detail::_Trait)1> const&)::{lambda(std::__ndk1::__variant_detail::__copy_assignment<cocos2d::CCPoint, (std::__ndk1::__variant_detail::_Trait)1> const&, auto:2&&)#1}, std::__ndk1::__variant_detail::__base<(std::__ndk1::__variant_detail::__assignment<std::__ndk1::__variant_detail::__traits<unsigned char, DashRingObject*, cocos2d::CCPoint> >::__generic_assign[abi:ne180000])0, unsigned char, DashRingObject, cocos2d>&, std::__ndk1::__variant_detail::__assignment<std::__ndk1::__variant_detail::__traits<unsigned char, DashRingObject*, cocos2d::CCPoint> >::__generic_assign[abi:ne180000]<std::__ndk1::__variant_detail::__copy_assignment<cocos2d::CCPoint, (std::__ndk1::__variant_detail::_Trait)1> const&>(std::__ndk1::__variant_detail::__copy_assignment<cocos2d::CCPoint, (std::__ndk1::__variant_detail::_Trait)1> const&)::{lambda(std::__ndk1::__variant_detail::__copy_assignment<cocos2d::CCPoint, (std::__ndk1::__variant_detail::_Trait)1> const&, auto:2&&)#1} const&>(std::__ndk1::__variant_detail::__copy_assignment<cocos2d::CCPoint, (std::__ndk1::__variant_detail::_Trait)1> const, std::__ndk1::__variant_detail::__base<(std::__ndk1::__variant_detail::__assignment<std::__ndk1::__variant_detail::__traits<unsigned char, DashRingObject*, cocos2d::CCPoint> >::__generic_assign[abi:ne180000])0, unsigned char, DashRingObject, cocos2d>&, std::__ndk1::__variant_detail::__assignment<std::__ndk1::__variant_detail::__traits<unsigned char, DashRingObject*, cocos2d::CCPoint> >::__generic_assign[abi:ne180000]<std::__ndk1::__variant_detail::__copy_assignment<cocos2d::CCPoint, (std::__ndk1::__variant_detail::_Trait)1> const&>(std::__ndk1::__variant_detail::__copy_assignment<cocos2d::CCPoint, (std::__ndk1::__variant_detail::_Trait)1> const&)::{lambda(std::__ndk1::__variant_detail::__copy_assignment<cocos2d::CCPoint, (std::__ndk1::__variant_detail::_Trait)1> const&, auto:2&&)#1} const&)
FUNC 3eb7c 2ac 0 std::__ndk1::vector<PlayerEvent, std::__ndk1::allocator<PlayerEvent> >::__push_back_slow_path<PlayerEvent const&>(PlayerEvent const&)
FUNC 3ee28 3c 0 std::__ndk1::__tree<std::__ndk1::__value_type<PlayerObject*, int>, std::__ndk1::__map_value_compare<PlayerObject*, std::__ndk1::__value_type<PlayerObject*, int>, std::__ndk1::less<PlayerObject*>, true>, std::__ndk1::allocator<std::__ndk1::__value_type<PlayerObject*, int> > >::destroy(std::__ndk1::__tree_node<std::__ndk1::__value_type<PlayerObject*, int>, void*>*)
FUNC 3ee64 14 0 std::__ndk1::vector<PlayerObject*, std::__ndk1::allocator<PlayerObject*> >::__throw_length_error[abi:ne180000]() const
FUNC 3ee78 454 0 std::__ndk1::vector<PlayerEvent, std::__ndk1::allocator<PlayerEvent> >::__assign_with_size[abi:ne180000]<PlayerEvent*, std::__ndk1::vector<PlayerEvent, std::__ndk1::allocator<PlayerEvent> >::__assign_with_size[abi:ne180000]>(PlayerEvent*, std::__ndk1::vector<PlayerEvent, std::__ndk1::allocator<PlayerEvent> >::__assign_with_size[abi:ne180000], long)
FUNC 3f2cc 70 0 std::__ndk1::__split_buffer<GhostPlayerFrame, std::__ndk1::allocator<GhostPlayerFrame>&>::~__split_buffer()
FUNC 3f33c 54 0 std::__ndk1::__exception_guard_exceptions<std::__ndk1::_AllocatorDestroyRangeReverse<std::__ndk1::allocator<GhostPlayerFrame>, std::__ndk1::reverse_iterator<GhostPlayerFrame*> > >::~__exception_guard_exceptions[abi:ne180000]()
FUNC 3f390 b8 0 std::__ndk1::__split_buffer<GhostPosition, std::__ndk1::allocator<GhostPosition>&>::~__split_buffer()
FUNC 3f448 14 0 std::__ndk1::vector<GhostPosition, std::__ndk1::allocator<GhostPosition> >::__throw_length_error[abi:ne180000]() const
FUNC 3f45c a8 0 nlohmann::json_abi_v3_11_2::detail::concat<std::__ndk1::basic_string<char, std::__ndk1::char_traits<char>, std::__ndk1::allocator<char> >, char const (&) [51], char const*>(char const (&) [51], char const*)
FUNC 3f504 a8 0 nlohmann::json_abi_v3_11_2::detail::concat<std::__ndk1::basic_string<char, std::__ndk1::char_traits<char>, std::__ndk1::allocator<char> >, char const (&) [52], char const*>(char const (&) [52], char const*)
FUNC 3f5ac 174 0 _ZN8nlohmann16json_abi_v3_11_26detail9from_jsonINS0_10basic_jsonINSt6__ndk13mapENS4_6vectorENS4_12basic_stringIcNS4_11char_traitsIcEENS4_9allocatorIcEEEEblmdSA_NS0_14adl_serializerENS6_IhNSA_IhEEEEvEEfTnNS4_9enable_ifIXaaaaaaaasr3std13is_arithmeticIT0_EE5valuentsr3std7is_sameISI_NT_17number_unsigned_tEEE5valuentsr3std7is_sameISI_NSJ_16number_integer_tEEE5valuentsr3std7is_sameISI_NSJ_14number_float_tEEE5valuentsr3std7is_sameISI_NSJ_9boolean_tEEE5valueEiE4typeELi0EEEvRKSJ_RSI_
FUNC 3f720 1d8 0 _ZN8nlohmann16json_abi_v3_11_26detail10type_error6createIPKNS0_10basic_jsonINSt6__ndk13mapENS5_6vectorENS5_12basic_stringIcNS5_11char_traitsIcEENS5_9allocatorIcEEEEblmdSB_NS0_14adl_serializerENS7_IhNSB_IhEEEEvEETnNS5_9enable_ifIXsr21is_basic_json_contextIT_EE5valueEiE4typeELi0EEES2_iRKSD_SL_
FUNC 3f8f8 a8 0 nlohmann::json_abi_v3_11_2::detail::concat<std::__ndk1::basic_string<char, std::__ndk1::char_traits<char>, std::__ndk1::allocator<char> >, char const (&) [29], char const*>(char const (&) [29], char const*)
FUNC 3f9a0 154 0 _ZN8nlohmann16json_abi_v3_11_26detail9from_jsonINS0_10basic_jsonINSt6__ndk13mapENS4_6vectorENS4_12basic_stringIcNS4_11char_traitsIcEENS4_9allocatorIcEEEEblmdSA_NS0_14adl_serializerENS6_IhNSA_IhEEEEvEEiTnNS4_9enable_ifIXaaaaaaaasr3std13is_arithmeticIT0_EE5valuentsr3std7is_sameISI_NT_17number_unsigned_tEEE5valuentsr3std7is_sameISI_NSJ_16number_integer_tEEE5valuentsr3std7is_sameISI_NSJ_14number_float_tEEE5valuentsr3std7is_sameISI_NSJ_9boolean_tEEE5valueEiE4typeELi0EEEvRKSJ_RSI_
FUNC 3faf4 14 0 std::__ndk1::vector<cocos2d::CCSprite*, std::__ndk1::allocator<cocos2d::CCSprite*> >::__throw_length_error[abi:ne180000]() const
FUNC 3fb08 14 0 std::__ndk1::vector<cocos2d::CCNode*, std::__ndk1::allocator<cocos2d::CCNode*> >::__throw_length_error[abi:ne180000]() const
FUNC 3fb1c 130 0 geode::Mod::getSettingValue<bool>(std::__ndk1::basic_string_view<char, std::__ndk1::char_traits<char> >) const
FUNC 3fc4c 12c 0 geode::Mod::getSettingValue<double>(std::__ndk1::basic_string_view<char, std::__ndk1::char_traits<char> >) const
FUNC 3fd78 874 0 XPlayLayer::setupGhostPlayers()
FUNC 405ec 1dc 0 _ZN8nlohmann16json_abi_v3_11_26detail10type_error6createIDnTnNSt6__ndk19enable_ifIXsr21is_basic_json_contextIT_EE5valueEiE4typeELi0EEES2_iRKNS4_12basic_stringIcNS4_11char_traitsIcEENS4_9allocatorIcEEEES6_
FUNC 407c8 14 0 std::__ndk1::vector<ShaderLayer*, std::__ndk1::allocator<ShaderLayer*> >::__throw_length_error[abi:ne180000]() const
FUNC 407dc d0 0 XPlayLayer::addPlayerPositionWait(float)
FUNC 408ac a4 0 std::__ndk1::__exception_guard_exceptions<std::__ndk1::_AllocatorDestroyRangeReverse<std::__ndk1::allocator<GhostPosition>, GhostPosition*> >::~__exception_guard_exceptions[abi:ne180000]()
FUNC 40950 3c0 0 std::__ndk1::vector<GhostPlayerFrame, std::__ndk1::allocator<GhostPlayerFrame> >::__assign_with_size[abi:ne180000]<GhostPlayerFrame*, std::__ndk1::vector<GhostPlayerFrame, std::__ndk1::allocator<GhostPlayerFrame> >::__assign_with_size[abi:ne180000]>(GhostPlayerFrame*, std::__ndk1::vector<GhostPlayerFrame, std::__ndk1::allocator<GhostPlayerFrame> >::__assign_with_size[abi:ne180000], long)
FUNC 40d10 2880 0 geode::modifier::ModifyDerive<hook1311<(anonymous namespace)::hook1311Parent>, PlayerObject>::apply()
FUNC 43590 4 0 geode::modifier::ModifyBase<geode::modifier::ModifyDerive<hook1311<(anonymous namespace)::hook1311Parent>, PlayerObject> >::apply()
FUNC 43594 134 0 geode::Hook::create<void (*)(hook1311<(anonymous namespace)::hook1311Parent>*)>(void*, void (*)(hook1311<(anonymous namespace)::hook1311Parent>*), std::__ndk1::basic_string<char, std::__ndk1::char_traits<char>, std::__ndk1::allocator<char> > const&, tulip::hook::TulipConvention, tulip::hook::HookMetadata const&)
FUNC 436c8 130 0 geode::modifier::AsStaticFunction_playDeathEffect<hook1311<(anonymous namespace)::hook1311Parent>, void (hook1311<(anonymous namespace)::hook1311Parent>::*)()>::Impl<void (hook1311<(anonymous namespace)::hook1311Parent>::*)()>::function(hook1311<(anonymous namespace)::hook1311Parent>*)
FUNC 437f8 138 0 geode::modifier::AsStaticFunction_playDynamicSpiderRun<hook1311<(anonymous namespace)::hook1311Parent>, void (hook1311<(anonymous namespace)::hook1311Parent>::*)()>::Impl<void (hook1311<(anonymous namespace)::hook1311Parent>::*)()>::function(hook1311<(anonymous namespace)::hook1311Parent>*)
FUNC 43930 184 0 geode::Hook::create<void (*)(hook1311<(anonymous namespace)::hook1311Parent>*, bool)>(void*, void (*)(hook1311<(anonymous namespace)::hook1311Parent>*, bool), std::__ndk1::basic_string<char, std::__ndk1::char_traits<char>, std::__ndk1::allocator<char> > const&, tulip::hook::TulipConvention, tulip::hook::HookMetadata const&)
FUNC 43ab4 a2c 0 geode::modifier::AsStaticFunction_playerDestroyed<hook1311<(anonymous namespace)::hook1311Parent>, void (hook1311<(anonymous namespace)::hook1311Parent>::*)(bool)>::Impl<void (hook1311<(anonymous namespace)::hook1311Parent>::*)(bool)>::function(hook1311<(anonymous namespace)::hook1311Parent>*, bool)
FUNC 444e0 12c 0 geode::modifier::AsStaticFunction_playSpawnEffect<hook1311<(anonymous namespace)::hook1311Parent>, void (hook1311<(anonymous namespace)::hook1311Parent>::*)()>::Impl<void (hook1311<(anonymous namespace)::hook1311Parent>::*)()>::function(hook1311<(anonymous namespace)::hook1311Parent>*)
FUNC 4460c 164 0 geode::modifier::AsStaticFunction_playSpiderDashEffect<hook1311<(anonymous namespace)::hook1311Parent>, void (hook1311<(anonymous namespace)::hook1311Parent>::*)(cocos2d::CCPoint, cocos2d::CCPoint)>::Impl<void (hook1311<(anonymous namespace)::hook1311Parent>::*)(cocos2d::CCPoint, cocos2d::CCPoint)>::function(hook1311<(anonymous namespace)::hook1311Parent>*, cocos2d::CCPoint, cocos2d::CCPoint)
FUNC 44770 144 0 geode::modifier::AsStaticFunction_startDashing<hook1311<(anonymous namespace)::hook1311Parent>, void (hook1311<(anonymous namespace)::hook1311Parent>::*)(DashRingObject*)>::Impl<void (hook1311<(anonymous namespace)::hook1311Parent>::*)(DashRingObject*)>::function(hook1311<(anonymous namespace)::hook1311Parent>*, DashRingObject*)
FUNC 448b4 13c 0 geode::modifier::AsStaticFunction_stopDashing<hook1311<(anonymous namespace)::hook1311Parent>, void (hook1311<(anonymous namespace)::hook1311Parent>::*)()>::Impl<void (hook1311<(anonymous namespace)::hook1311Parent>::*)()>::function(hook1311<(anonymous namespace)::hook1311Parent>*)
FUNC 449f0 1c4 0 geode::Hook::create<void (*)(hook1311<(anonymous namespace)::hook1311Parent>*, bool, bool)>(void*, void (*)(hook1311<(anonymous namespace)::hook1311Parent>*, bool, bool), std::__ndk1::basic_string<char, std::__ndk1::char_traits<char>, std::__ndk1::allocator<char> > const&, tulip::hook::TulipConvention, tulip::hook::HookMetadata const&)
FUNC 44bb4 148 0 geode::modifier::AsStaticFunction_toggleBirdMode<hook1311<(anonymous namespace)::hook1311Parent>, void (hook1311<(anonymous namespace)::hook1311Parent>::*)(bool, bool)>::Impl<void (hook1311<(anonymous namespace)::hook1311Parent>::*)(bool, bool)>::function(hook1311<(anonymous namespace)::hook1311Parent>*, bool, bool)
FUNC 44cfc 150 0 geode::modifier::AsStaticFunction_toggleDartMode<hook1311<(anonymous namespace)::hook1311Parent>, void (hook1311<(anonymous namespace)::hook1311Parent>::*)(bool, bool)>::Impl<void (hook1311<(anonymous namespace)::hook1311Parent>::*)(bool, bool)>::function(hook1311<(anonymous namespace)::hook1311Parent>*, bool, bool)
FUNC 44e4c 14c 0 geode::modifier::AsStaticFunction_toggleFlyMode<hook1311<(anonymous namespace)::hook1311Parent>, void (hook1311<(anonymous namespace)::hook1311Parent>::*)(bool, bool)>::Impl<void (hook1311<(anonymous namespace)::hook1311Parent>::*)(bool, bool)>::function(hook1311<(anonymous namespace)::hook1311Parent>*, bool, bool)
FUNC 44f98 154 0 geode::modifier::AsStaticFunction_togglePlayerScale<hook1311<(anonymous namespace)::hook1311Parent>, void (hook1311<(anonymous namespace)::hook1311Parent>::*)(bool, bool)>::Impl<void (hook1311<(anonymous namespace)::hook1311Parent>::*)(bool, bool)>::function(hook1311<(anonymous namespace)::hook1311Parent>*, bool, bool)
FUNC 450ec 154 0 geode::modifier::AsStaticFunction_toggleRobotMode<hook1311<(anonymous namespace)::hook1311Parent>, void (hook1311<(anonymous namespace)::hook1311Parent>::*)(bool, bool)>::Impl<void (hook1311<(anonymous namespace)::hook1311Parent>::*)(bool, bool)>::function(hook1311<(anonymous namespace)::hook1311Parent>*, bool, bool)
FUNC 45240 150 0 geode::modifier::AsStaticFunction_toggleRollMode<hook1311<(anonymous namespace)::hook1311Parent>, void (hook1311<(anonymous namespace)::hook1311Parent>::*)(bool, bool)>::Impl<void (hook1311<(anonymous namespace)::hook1311Parent>::*)(bool, bool)>::function(hook1311<(anonymous namespace)::hook1311Parent>*, bool, bool)
FUNC 45390 158 0 geode::modifier::AsStaticFunction_toggleSpiderMode<hook1311<(anonymous namespace)::hook1311Parent>, void (hook1311<(anonymous namespace)::hook1311Parent>::*)(bool, bool)>::Impl<void (hook1311<(anonymous namespace)::hook1311Parent>::*)(bool, bool)>::function(hook1311<(anonymous namespace)::hook1311Parent>*, bool, bool)
FUNC 454e8 154 0 geode::modifier::AsStaticFunction_toggleSwingMode<hook1311<(anonymous namespace)::hook1311Parent>, void (hook1311<(anonymous namespace)::hook1311Parent>::*)(bool, bool)>::Impl<void (hook1311<(anonymous namespace)::hook1311Parent>::*)(bool, bool)>::function(hook1311<(anonymous namespace)::hook1311Parent>*, bool, bool)
FUNC 4563c 148 0 geode::modifier::AsStaticFunction_toggleVisibility<hook1311<(anonymous namespace)::hook1311Parent>, void (hook1311<(anonymous namespace)::hook1311Parent>::*)(bool)>::Impl<void (hook1311<(anonymous namespace)::hook1311Parent>::*)(bool)>::function(hook1311<(anonymous namespace)::hook1311Parent>*, bool)
FUNC 45784 6c8 0 hook1311<(anonymous namespace)::hook1311Parent>::pushEvent(PlayerEvent)
FUNC 45e4c 174 0 nlohmann::json_abi_v3_11_2::basic_json<std::__ndk1::map, std::__ndk1::vector, std::__ndk1::basic_string<char, std::__ndk1::char_traits<char>, std::__ndk1::allocator<char> >, bool, long, unsigned long, double, std::__ndk1::allocator, nlohmann::json_abi_v3_11_2::adl_serializer, std::__ndk1::vector<unsigned char, std::__ndk1::allocator<unsigned char> >, void>::push_back(nlohmann::json_abi_v3_11_2::basic_json<std::__ndk1::map, std::__ndk1::vector, std::__ndk1::basic_string<char, std::__ndk1::char_traits<char>, std::__ndk1::allocator<char> >, bool, long, unsigned long, double, std::__ndk1::allocator, nlohmann::json_abi_v3_11_2::adl_serializer, std::__ndk1::vector<unsigned char, std::__ndk1::allocator<unsigned char> >, void>&&)
FUNC 45fc0 50 0 std::__ndk1::basic_ofstream<char, std::__ndk1::char_traits<char> >::~basic_ofstream()
FUNC 46010 50 0 std::__ndk1::shared_ptr<nlohmann::json_abi_v3_11_2::detail::output_adapter_protocol<char> >::~shared_ptr[abi:ne180000]()
FUNC 46060 50 0 nlohmann::json_abi_v3_11_2::detail::output_adapter<char, std::__ndk1::basic_string<char, std::__ndk1::char_traits<char>, std::__ndk1::allocator<char> > >::~output_adapter()
FUNC 460b0 1804 0 nlohmann::json_abi_v3_11_2::detail::serializer<nlohmann::json_abi_v3_11_2::basic_json<std::__ndk1::map, std::__ndk1::vector, std::__ndk1::basic_string<char, std::__ndk1::char_traits<char>, std::__ndk1::allocator<char> >, bool, long, unsigned long, double, std::__ndk1::allocator, nlohmann::json_abi_v3_11_2::adl_serializer, std::__ndk1::vector<unsigned char, std::__ndk1::allocator<unsigned char> >, void> >::dump(nlohmann::json_abi_v3_11_2::basic_json<std::__ndk1::map, std::__ndk1::vector, std::__ndk1::basic_string<char, std::__ndk1::char_traits<char>, std::__ndk1::allocator<char> >, bool, long, unsigned long, double, std::__ndk1::allocator, nlohmann::json_abi_v3_11_2::adl_serializer, std::__ndk1::vector<unsigned char, std::__ndk1::allocator<unsigned char> >, void> const&, bool, bool, unsigned int, unsigned int)
FUNC 478b4 64 0 nlohmann::json_abi_v3_11_2::detail::serializer<nlohmann::json_abi_v3_11_2::basic_json<std::__ndk1::map, std::__ndk1::vector, std::__ndk1::basic_string<char, std::__ndk1::char_traits<char>, std::__ndk1::allocator<char> >, bool, long, unsigned long, double, std::__ndk1::allocator, nlohmann::json_abi_v3_11_2::adl_serializer, std::__ndk1::vector<unsigned char, std::__ndk1::allocator<unsigned char> >, void> >::~serializer()
FUNC 47918 10 0 std::__ndk1::__shared_ptr_emplace<nlohmann::json_abi_v3_11_2::detail::output_stream_adapter<char>, std::__ndk1::allocator<nlohmann::json_abi_v3_11_2::detail::output_stream_adapter<char> > >::~__shared_ptr_emplace()
FUNC 47928 30 0 std::__ndk1::__shared_ptr_emplace<nlohmann::json_abi_v3_11_2::detail::output_stream_adapter<char>, std::__ndk1::allocator<nlohmann::json_abi_v3_11_2::detail::output_stream_adapter<char> > >::~__shared_ptr_emplace()
FUNC 47958 c 0 std::__ndk1::__shared_ptr_emplace<nlohmann::json_abi_v3_11_2::detail::output_stream_adapter<char>, std::__ndk1::allocator<nlohmann::json_abi_v3_11_2::detail::output_stream_adapter<char> > >::__on_zero_shared()
FUNC 47964 4 0 std::__ndk1::__shared_ptr_emplace<nlohmann::json_abi_v3_11_2::detail::output_stream_adapter<char>, std::__ndk1::allocator<nlohmann::json_abi_v3_11_2::detail::output_stream_adapter<char> > >::__on_zero_shared_weak()
FUNC 47968 8 0 nlohmann::json_abi_v3_11_2::detail::output_stream_adapter<char>::write_character(char)
FUNC 47970 8 0 nlohmann::json_abi_v3_11_2::detail::output_stream_adapter<char>::write_characters(char const*, unsigned long)
FUNC 47978 4 0 nlohmann::json_abi_v3_11_2::detail::output_adapter_protocol<char>::~output_adapter_protocol()
FUNC 4797c 4 0 nlohmann::json_abi_v3_11_2::detail::output_stream_adapter<char>::~output_stream_adapter()
FUNC 47980 584 0 nlohmann::json_abi_v3_11_2::detail::serializer<nlohmann::json_abi_v3_11_2::basic_json<std::__ndk1::map, std::__ndk1::vector, std::__ndk1::basic_string<char, std::__ndk1::char_traits<char>, std::__ndk1::allocator<char> >, bool, long, unsigned long, double, std::__ndk1::allocator, nlohmann::json_abi_v3_11_2::adl_serializer, std::__ndk1::vector<unsigned char, std::__ndk1::allocator<unsigned char> >, void> >::dump_escaped(std::__ndk1::basic_string<char, std::__ndk1::char_traits<char>, std::__ndk1::allocator<char> > const&, bool)
FUNC 47f04 120 0 nlohmann::json_abi_v3_11_2::detail::concat<std::__ndk1::basic_string<char, std::__ndk1::char_traits<char>, std::__ndk1::allocator<char> >, char const (&) [29], std::__ndk1::basic_string<char, std::__ndk1::char_traits<char>, std::__ndk1::allocator<char> >, char const (&) [5], std::__ndk1::basic_string<char, std::__ndk1::char_traits<char>, std::__ndk1::allocator<char> > >(char const (&) [29], std::__ndk1::basic_string<char, std::__ndk1::char_traits<char>, std::__ndk1::allocator<char> >, char const (&) [5], std::__ndk1::basic_string<char, std::__ndk1::char_traits<char>, std::__ndk1::allocator<char> >)
FUNC 48024 a8 0 nlohmann::json_abi_v3_11_2::detail::concat<std::__ndk1::basic_string<char, std::__ndk1::char_traits<char>, std::__ndk1::allocator<char> >, char const (&) [39], std::__ndk1::basic_string<char, std::__ndk1::char_traits<char>, std::__ndk1::allocator<char> > >(char const (&) [39], std::__ndk1::basic_string<char, std::__ndk1::char_traits<char>, std::__ndk1::allocator<char> >)
FUNC 480cc 30 0 geodeImplicitEntry
FUNC 480fc 4c 0 std::__ndk1::unordered_map<void*, bool, std::__ndk1::hash<void*>, std::__ndk1::equal_to<void*>, std::__ndk1::allocator<std::__ndk1::pair<void* const, bool> > >::~unordered_map[abi:ne180000]()
FUNC 48148 134 0 wrapFunction(unsigned long, tulip::hook::WrapperMetadata const&)
FUNC 4827c 78 0 geode::impl::ResultData<void*, std::__ndk1::basic_string<char, std::__ndk1::char_traits<char>, std::__ndk1::allocator<char> > >::unwrapErr() &
FUNC 482f4 74 0 geode::impl::ResultData<void*, std::__ndk1::basic_string<char, std::__ndk1::char_traits<char>, std::__ndk1::allocator<char> > >::~ResultData()
FUNC 48368 64 0 tulip::hook::WrapperMetadata::~WrapperMetadata()
FUNC 483cc 24 0 cocos2d::CCObject::~CCObject()
FUNC 483f0 25c 0 cocos2d::CCNode::CCNode()
FUNC 4864c 24 0 cocos2d::CCNode::~CCNode()
FUNC 48670 8 0 {virtual override thunk({offset(-320)}, cocos2d::CCLayer::~CCLayer())}
FUNC 48678 24 0 cocos2d::CCLayer::~CCLayer()
FUNC 4869c 28 0 {virtual override thunk({offset(-320)}, cocos2d::CCLayer::~CCLayer())}
FUNC 486c4 308 0 cocos2d::CCLayerRGBA::~CCLayerRGBA()
FUNC 489cc 8 0 {virtual override thunk({offset(-320)}, cocos2d::CCLayerRGBA::~CCLayerRGBA())}
FUNC 489d4 24 0 cocos2d::CCLayerRGBA::~CCLayerRGBA()
FUNC 489f8 28 0 {virtual override thunk({offset(-320)}, cocos2d::CCLayerRGBA::~CCLayerRGBA())}
FUNC 48a20 26c 0 cocos2d::CCLayerColor::CCLayerColor()
FUNC 48c8c 8 0 {virtual override thunk({offset(-320)}, cocos2d::CCLayerColor::~CCLayerColor())}
FUNC 48c94 24 0 cocos2d::CCLayerColor::~CCLayerColor()
FUNC 48cb8 28 0 {virtual override thunk({offset(-320)}, cocos2d::CCLayerColor::~CCLayerColor())}
FUNC 48ce0 8 0 {virtual override thunk({offset(-320)}, FLAlertLayer::~FLAlertLayer())}
FUNC 48ce8 24 0 FLAlertLayer::~FLAlertLayer()
FUNC 48d0c 28 0 {virtual override thunk({offset(-320)}, FLAlertLayer::~FLAlertLayer())}
FUNC 48d34 1b8 0 FLAlertLayer::create(FLAlertLayerProtocol*, char const*, gd::string, char const*, char const*, float)
FUNC 48eec 460 0 tulip::hook::AbstractFunction::from<FLAlertLayer*, FLAlertLayerProtocol*, char const*, gd::string, char const*, char const*, float>(FLAlertLayer* (*)(FLAlertLayerProtocol*, char const*, gd::string, char const*, char const*, float))
FUNC 4934c 1a0 0 FMODAudioEngine::playEffect(gd::string, float, float, float)
FUNC 494ec 388 0 tulip::hook::AbstractFunction::from<void, FMODAudioEngine*, gd::string, float, float, float>(void (*)(FMODAudioEngine*, gd::string, float, float, float))
FUNC 49874 844 0 GJBaseGameLayer::~GJBaseGameLayer()
FUNC 4a0b8 71c 0 GJBaseGameLayer::GJBaseGameLayer(geode::CutoffConstructorType, unsigned long)
FUNC 4a7d4 8 0 {virtual override thunk({offset(-320)}, GJBaseGameLayer::~GJBaseGameLayer())}
FUNC 4a7dc 24 0 GJBaseGameLayer::~GJBaseGameLayer()
FUNC 4a800 28 0 {virtual override thunk({offset(-320)}, GJBaseGameLayer::~GJBaseGameLayer())}
FUNC 4a828 17c 0 GJBaseGameLayer::toggleGroupTriggered(int, bool, gd::vector<int> const&, int, int)
FUNC 4a9a4 460 0 tulip::hook::AbstractFunction::from<void, GJBaseGameLayer*, int, bool, gd::vector<int> const&, int, int>(void (*)(GJBaseGameLayer*, int, bool, gd::vector<int> const&, int, int))
FUNC 4ae04 8 0 {virtual override thunk({offset(-408)}, GJBaseGameLayer::toggleGroupTriggered(int, bool, gd::vector<int> const&, int, int))}
FUNC 4ae0c 18c 0 GJBaseGameLayer::spawnGroup(int, bool, double, gd::vector<int> const&, int, int)
FUNC 4af98 544 0 tulip::hook::AbstractFunction::from<void, GJBaseGameLayer*, int, bool, double, gd::vector<int> const&, int, int>(void (*)(GJBaseGameLayer*, int, bool, double, gd::vector<int> const&, int, int))
FUNC 4b4dc 8 0 {virtual override thunk({offset(-408)}, GJBaseGameLayer::spawnGroup(int, bool, double, gd::vector<int> const&, int, int))}
FUNC 4b4e4 16c 0 GJBaseGameLayer::spawnObject(GameObject*, double, gd::vector<int> const&)
FUNC 4b650 2a4 0 tulip::hook::AbstractFunction::from<void, GJBaseGameLayer*, GameObject*, double, gd::vector<int> const&>(void (*)(GJBaseGameLayer*, GameObject*, double, gd::vector<int> const&))
FUNC 4b8f4 8 0 {virtual override thunk({offset(-408)}, GJBaseGameLayer::spawnObject(GameObject*, double, gd::vector<int> const&))}
FUNC 4b8fc 15c 0 GJBaseGameLayer::activatePlatformerEndTrigger(EndTriggerGameObject*, gd::vector<int> const&)
FUNC 4ba58 f8 0 tulip::hook::AbstractFunction::from<void, GJBaseGameLayer*, EndTriggerGameObject*, gd::vector<int> const&>(void (*)(GJBaseGameLayer*, EndTriggerGameObject*, gd::vector<int> const&))
FUNC 4bb50 4 0 GJBaseGameLayer::toggleGlitter(bool)
FUNC 4bb54 8 0 GJBaseGameLayer::timeForPos(cocos2d::CCPoint, int, int, bool, int)
FUNC 4bb5c 8 0 GJBaseGameLayer::posForTime(float)
FUNC 4bb64 4 0 GJBaseGameLayer::resetSPTriggered()
FUNC 4bb68 174 0 GJBaseGameLayer::createCustomParticle(gd::string const&, cocos2d::ParticleStruct const&, int, bool)
FUNC 4bcdc 38c 0 tulip::hook::AbstractFunction::from<TodoReturnPlaceholder, GJBaseGameLayer*, gd::string const&, cocos2d::ParticleStruct const&, int, bool>(TodoReturnPlaceholder (*)(GJBaseGameLayer*, gd::string const&, cocos2d::ParticleStruct const&, int, bool))
FUNC 4c068 18c 0 GJBaseGameLayer::claimCustomParticle(gd::string const&, cocos2d::ParticleStruct const&, int, int, int, bool)
FUNC 4c1f4 554 0 tulip::hook::AbstractFunction::from<TodoReturnPlaceholder, GJBaseGameLayer*, gd::string const&, cocos2d::ParticleStruct const&, int, int, int, bool>(TodoReturnPlaceholder (*)(GJBaseGameLayer*, gd::string const&, cocos2d::ParticleStruct const&, int, int, int, bool))
FUNC 4c748 15c 0 GJBaseGameLayer::unclaimCustomParticle(gd::string const&, cocos2d::CCParticleSystemQuad*)
FUNC 4c8a4 f8 0 tulip::hook::AbstractFunction::from<TodoReturnPlaceholder, GJBaseGameLayer*, gd::string const&, cocos2d::CCParticleSystemQuad*>(TodoReturnPlaceholder (*)(GJBaseGameLayer*, gd::string const&, cocos2d::CCParticleSystemQuad*))
FUNC 4c99c 334 0 PlayLayer::~PlayLayer()
FUNC 4ccd0 8 0 {virtual override thunk({offset(-320)}, PlayLayer::~PlayLayer())}
FUNC 4ccd8 24 0 PlayLayer::~PlayLayer()
FUNC 4ccfc 28 0 {virtual override thunk({offset(-320)}, PlayLayer::~PlayLayer())}
FUNC 4cd24 15c 0 PlayLayer::activatePlatformerEndTrigger(EndTriggerGameObject*, gd::vector<int> const&)
FUNC 4ce80 f8 0 tulip::hook::AbstractFunction::from<void, PlayLayer*, EndTriggerGameObject*, gd::vector<int> const&>(void (*)(PlayLayer*, EndTriggerGameObject*, gd::vector<int> const&))
FUNC 4cf78 4 0 cocos2d::CCObject::update(float)
FUNC 4cf7c 2ec 0 cocos2d::CCLayerColor::~CCLayerColor()
FUNC 4d268 2ec 0 FLAlertLayer::~FLAlertLayer()
FUNC 4d554 2a8 0 cocos2d::CCNode::~CCNode()
FUNC 4d7fc 2f8 0 cocos2d::CCLayer::~CCLayer()
FUNC 4daf4 4c4 0 cocos2d::CCObject::~CCObject()
FUNC 4dfb8 154 0 _ZN5geode15UnwrapExceptionC2IRPvQsr4implE18IsStringStreamableIT_EEENS_4impl5OkTagEOS4_
FUNC 4e10c 4 0 std::__ndk1::__variant_detail::__visitation::__base::__dispatcher<(unsigned long)0>::__dispatch[abi:ne180000]<std::__ndk1::__variant_detail::__dtor<std::__ndk1::__variant_detail::__traits<void*, std::__ndk1::basic_string<char, std::__ndk1::char_traits<char>, std::__ndk1::allocator<char> > >, (std::__ndk1::__variant_detail::_Trait)1>::__destroy[abi:ne180000]()::{lambda(auto:1&)#1}, std::__ndk1::__variant_detail::__base<(std::__ndk1::__variant_detail::__traits<void*, std::__ndk1::basic_string<char, std::__ndk1::char_traits<char>, std::__ndk1::allocator<char> > >)1, std::__ndk1::__variant_detail::__traits, std::__ndk1::allocator<char> >&>(std::__ndk1::__variant_detail::__dtor<std::__ndk1::__variant_detail::__traits<void*, std::__ndk1::basic_string<char, std::__ndk1::char_traits<char>, std::__ndk1::allocator<char> > >, (std::__ndk1::__variant_detail::_Trait)1>, std::__ndk1::__variant_detail::__base<(std::__ndk1::__variant_detail::__traits<void*, std::__ndk1::basic_string<char, std::__ndk1::char_traits<char>, std::__ndk1::allocator<char> > >)1, std::__ndk1::__variant_detail::__traits, std::__ndk1::allocator<char> >&)
FUNC 4e110 14 0 std::__ndk1::__variant_detail::__visitation::__base::__dispatcher<(unsigned long)1>::__dispatch[abi:ne180000]<std::__ndk1::__variant_detail::__dtor<std::__ndk1::__variant_detail::__traits<void*, std::__ndk1::basic_string<char, std::__ndk1::char_traits<char>, std::__ndk1::allocator<char> > >, (std::__ndk1::__variant_detail::_Trait)1>::__destroy[abi:ne180000]()::{lambda(auto:1&)#1}, std::__ndk1::__variant_detail::__base<(std::__ndk1::__variant_detail::__traits<void*, std::__ndk1::basic_string<char, std::__ndk1::char_traits<char>, std::__ndk1::allocator<char> > >)1, std::__ndk1::__variant_detail::__traits, std::__ndk1::allocator<char> >&>(std::__ndk1::__variant_detail::__dtor<std::__ndk1::__variant_detail::__traits<void*, std::__ndk1::basic_string<char, std::__ndk1::char_traits<char>, std::__ndk1::allocator<char> > >, (std::__ndk1::__variant_detail::_Trait)1>, std::__ndk1::__variant_detail::__base<(std::__ndk1::__variant_detail::__traits<void*, std::__ndk1::basic_string<char, std::__ndk1::char_traits<char>, std::__ndk1::allocator<char> > >)1, std::__ndk1::__variant_detail::__traits, std::__ndk1::allocator<char> >&)
FUNC 4e124 43c 0 std::__ndk1::__hash_table<std::__ndk1::__hash_value_type<void*, bool>, std::__ndk1::__unordered_map_hasher<void*, std::__ndk1::__hash_value_type<void*, bool>, std::__ndk1::hash<void*>, std::__ndk1::equal_to<void*>, true>, std::__ndk1::__unordered_map_equal<void*, std::__ndk1::__hash_value_type<void*, bool>, std::__ndk1::equal_to<void*>, std::__ndk1::hash<void*>, true>, std::__ndk1::allocator<std::__ndk1::__hash_value_type<void*, bool> > >::__emplace_unique_key_args<void*, std::__ndk1::piecewise_construct_t const&, std::__ndk1::tuple<void* const&>, std::__ndk1::tuple<> >(void* const&, std::__ndk1::piecewise_construct_t const&, std::__ndk1::tuple<void* const&>, std::__ndk1::tuple<>)
PUBLIC 4e560 0 <.plt ELF section in dogotrigger.deathreplay.android64.so>
STACK CFI INIT 22490 10 .cfa: sp 0 +
STACK CFI INIT 224a0 8 .cfa: sp 0 +
STACK CFI INIT 224a8 8 .cfa: sp 0 +
STACK CFI INIT 224b0 14 .cfa: sp 0 +
STACK CFI INIT 224c4 1c .cfa: sp 0 +
STACK CFI INIT 224e0 10 .cfa: sp 0 +
STACK CFI INIT 224f0 134 .cfa: sp 0 +
STACK CFI INIT 22624 84 .cfa: sp 0 +
STACK CFI INIT 226a8 f4 .cfa: sp 0 +
STACK CFI INIT 2279c a8 .cfa: sp 0 +
STACK CFI INIT 22844 7c .cfa: sp 0 +
STACK CFI INIT 228c0 14 .cfa: sp 0 +
STACK CFI INIT 228d4 40 .cfa: sp 0 +
STACK CFI INIT 22914 28 .cfa: sp 0 +
STACK CFI INIT 2293c 190 .cfa: sp 0 +
STACK CFI INIT 22acc 2c8 .cfa: sp 0 +
STACK CFI INIT 22d94 8 .cfa: sp 0 +
STACK CFI INIT 22d9c 8 .cfa: sp 0 +
STACK CFI INIT 22da4 44 .cfa: sp 0 +
STACK CFI INIT 22de8 e8 .cfa: sp 0 +
STACK CFI INIT 22ed0 e8 .cfa: sp 0 +
STACK CFI INIT 22fb8 14 .cfa: sp 0 +
STACK CFI INIT 22fcc 10 .cfa: sp 0 +
STACK CFI INIT 22fdc 10 .cfa: sp 0 +
STACK CFI INIT 22fec f0 .cfa: sp 0 +
STACK CFI INIT 230dc 44 .cfa: sp 0 +
STACK CFI INIT 23120 c .cfa: sp 0 +
STACK CFI INIT 2312c c .cfa: sp 0 +
STACK CFI INIT 23138 2c .cfa: sp 0 +
STACK CFI INIT 23164 280 .cfa: sp 0 +
STACK CFI INIT 233e4 c .cfa: sp 0 +
STACK CFI INIT 233f0 120 .cfa: sp 0 +
STACK CFI INIT 23510 488 .cfa: sp 0 +
STACK CFI INIT 23998 c48 .cfa: sp 0 +
STACK CFI INIT 245e0 134 .cfa: sp 0 +
STACK CFI INIT 24714 210 .cfa: sp 0 +
STACK CFI INIT 24924 38c .cfa: sp 0 +
STACK CFI INIT 24cb0 1c8 .cfa: sp 0 +
STACK CFI INIT 24e78 9bc .cfa: sp 0 +
STACK CFI INIT 25834 2d4 .cfa: sp 0 +
STACK CFI INIT 25b08 134 .cfa: sp 0 +
STACK CFI INIT 25c3c 120 .cfa: sp 0 +
STACK CFI INIT 25d5c 1c8 .cfa: sp 0 +
STACK CFI INIT 25f24 168 .cfa: sp 0 +
STACK CFI INIT 2608c fc .cfa: sp 0 +
STACK CFI INIT 26188 30 .cfa: sp 0 +
STACK CFI INIT 262f0 30 .cfa: sp 0 +
STACK CFI INIT 26320 98 .cfa: sp 0 +
STACK CFI INIT 263b8 59c .cfa: sp 0 +
STACK CFI INIT 26954 8c .cfa: sp 0 +
STACK CFI INIT 269e0 30 .cfa: sp 0 +
STACK CFI INIT 277f8 18 .cfa: sp 0 +
STACK CFI INIT 27c54 18 .cfa: sp 0 +
STACK CFI INIT 280b0 18 .cfa: sp 0 +
STACK CFI INIT 2850c 18 .cfa: sp 0 +
STACK CFI INIT 28964 18 .cfa: sp 0 +
STACK CFI INIT 28b00 70 .cfa: sp 0 +
STACK CFI 28b04 .cfa: sp 48 +
STACK CFI 28b10 .cfa: x29 48 + x19: .cfa -8 + ^ x20: .cfa -16 + ^ x21: .cfa -24 + ^ x22: .cfa -32 + ^ .ra: .cfa -40 + ^ x29: .cfa -48 + ^
STACK CFI 28b58 .cfa: sp 48 +
STACK CFI 28b64 .cfa: sp 0 +
STACK CFI 28b68 .cfa: x29 48 +
STACK CFI INIT 28b70 14 .cfa: sp 0 +
STACK CFI 28b74 .cfa: sp 16 +
STACK CFI 28b78 .cfa: x29 16 + .ra: .cfa -8 + ^ x29: .cfa -16 + ^
STACK CFI INIT 28bd4 30 .cfa: sp 0 +
STACK CFI 28bd8 .cfa: sp 32 +
STACK CFI 28be0 .cfa: x29 32 + x19: .cfa -16 + ^ .ra: .cfa -24 + ^ x29: .cfa -32 + ^
STACK CFI 28bf8 .cfa: sp 32 +
STACK CFI 28c00 .cfa: sp 0 +
STACK CFI INIT 28c04 34 .cfa: sp 0 +
STACK CFI 28c08 .cfa: sp 32 +
STACK CFI 28c10 .cfa: x29 32 + x19: .cfa -16 + ^ .ra: .cfa -24 + ^ x29: .cfa -32 + ^
STACK CFI INIT 28c38 10 .cfa: sp 0 +
STACK CFI 28c3c .cfa: sp 16 +
STACK CFI 28c40 .cfa: x29 16 + .ra: .cfa -8 + ^ x29: .cfa -16 + ^
STACK CFI INIT 28c48 8c .cfa: sp 0 +
STACK CFI 28c4c .cfa: sp 48 +
STACK CFI 28c58 .cfa: x29 48 + x19: .cfa -8 + ^ x20: .cfa -16 + ^ x21: .cfa -24 + ^ x22: .cfa -32 + ^ .ra: .cfa -40 + ^ x29: .cfa -48 + ^
STACK CFI 28cbc .cfa: sp 48 +
STACK CFI 28cc8 .cfa: sp 0 +
STACK CFI 28ccc .cfa: x29 48 +
STACK CFI INIT 292a8 14 .cfa: sp 0 +
STACK CFI 292ac .cfa: sp 16 +
STACK CFI 292b0 .cfa: x29 16 + .ra: .cfa -8 + ^ x29: .cfa -16 + ^
STACK CFI INIT 29490 ec .cfa: sp 0 +
STACK CFI 29494 .cfa: sp 32 +
STACK CFI 2949c .cfa: x29 32 + x19: .cfa -16 + ^ .ra: .cfa -24 + ^ x29: .cfa -32 + ^
STACK CFI 29550 .cfa: sp 32 +
STACK CFI 29558 .cfa: sp 0 +
STACK CFI 2955c .cfa: x29 32 +
STACK CFI INIT 297c0 8 .cfa: sp 0 +
STACK CFI INIT 297c8 38 .cfa: sp 0 +
STACK CFI 297cc .cfa: sp 32 +
STACK CFI 297d4 .cfa: x29 32 + x19: .cfa -16 + ^ .ra: .cfa -24 + ^ x29: .cfa -32 + ^
STACK CFI 297f4 .cfa: sp 32 +
STACK CFI 297fc .cfa: sp 0 +
STACK CFI INIT 29b5c 50 .cfa: sp 0 +
STACK CFI 29b80 .cfa: sp 32 +
STACK CFI 29b88 .cfa: x29 32 + x19: .cfa -16 + ^ .ra: .cfa -24 + ^ x29: .cfa -32 + ^
STACK CFI 29b9c .cfa: sp 32 +
STACK CFI 29ba4 .cfa: sp 0 +
STACK CFI INIT 29bac 104 .cfa: sp 0 +
STACK CFI 29bb0 .cfa: sp 80 +
STACK CFI 29bc4 .cfa: x29 80 + x19: .cfa -8 + ^ x20: .cfa -16 + ^ x21: .cfa -24 + ^ x22: .cfa -32 + ^ x23: .cfa -40 + ^ x24: .cfa -48 + ^ x25: .cfa -56 + ^ x26: .cfa -64 + ^ .ra: .cfa -72 + ^ x29: .cfa -80 + ^
STACK CFI 29c98 .cfa: sp 80 +
STACK CFI 29cac .cfa: sp 0 +
STACK CFI INIT 29cb0 19c .cfa: sp 0 +
STACK CFI INIT 29e4c 48 .cfa: sp 0 +
STACK CFI 29e54 .cfa: sp 32 +
STACK CFI 29e5c .cfa: x29 32 + x19: .cfa -16 + ^ .ra: .cfa -24 + ^ x29: .cfa -32 + ^
STACK CFI 29e84 .cfa: sp 32 +
STACK CFI 29e8c .cfa: sp 0 +
STACK CFI INIT 2a288 50 .cfa: sp 0 +
STACK CFI 2a28c .cfa: sp 32 +
STACK CFI 2a294 .cfa: x29 32 + x19: .cfa -16 + ^ .ra: .cfa -24 + ^ x29: .cfa -32 + ^
STACK CFI 2a2ac .cfa: sp 32 +
STACK CFI 2a2b4 .cfa: sp 0 +
STACK CFI 2a2b8 .cfa: x29 32 +
STACK CFI 2a2cc .cfa: sp 32 +
STACK CFI 2a2d4 .cfa: sp 0 +
STACK CFI INIT 2a34c 7c .cfa: sp 0 +
STACK CFI 2a350 .cfa: sp 48 +
STACK CFI 2a35c .cfa: x29 48 + x19: .cfa -8 + ^ x20: .cfa -16 + ^ x21: .cfa -32 + ^ .ra: .cfa -40 + ^ x29: .cfa -48 + ^
STACK CFI 2a3a8 .cfa: sp 48 +
STACK CFI 2a3b4 .cfa: sp 0 +
STACK CFI 2a3b8 .cfa: sp 48 +
STACK CFI 2a3c4 .cfa: sp 0 +
STACK CFI INIT 2a3c8 4 .cfa: sp 0 +
STACK CFI INIT 2a3cc fc .cfa: sp 0 +
STACK CFI 2a3d0 .cfa: sp 64 +
STACK CFI 2a3e0 .cfa: x29 64 + x19: .cfa -8 + ^ x20: .cfa -16 + ^ x21: .cfa -24 + ^ x22: .cfa -32 + ^ x23: .cfa -40 + ^ x24: .cfa -48 + ^ .ra: .cfa -56 + ^ x29: .cfa -64 + ^
STACK CFI 2a4b4 .cfa: sp 64 +
STACK CFI 2a4c4 .cfa: sp 0 +
STACK CFI INIT 2a4c8 104 .cfa: sp 0 +
STACK CFI 2a4cc .cfa: sp 80 +
STACK CFI 2a4e0 .cfa: x29 80 + x19: .cfa -8 + ^ x20: .cfa -16 + ^ x21: .cfa -24 + ^ x22: .cfa -32 + ^ x23: .cfa -40 + ^ x24: .cfa -48 + ^ x25: .cfa -56 + ^ x26: .cfa -64 + ^ .ra: .cfa -72 + ^ x29: .cfa -80 + ^
STACK CFI 2a5b4 .cfa: sp 80 +
STACK CFI 2a5c8 .cfa: sp 0 +
STACK CFI INIT 2a720 34 .cfa: sp 0 +
STACK CFI 2a724 .cfa: sp 16 +
STACK CFI 2a728 .cfa: x29 16 + .ra: .cfa -8 + ^ x29: .cfa -16 + ^
STACK CFI INIT 2a878 80 .cfa: sp 0 +
STACK CFI 2a87c .cfa: sp 48 +
STACK CFI 2a888 .cfa: x29 48 + x19: .cfa -8 + ^ x20: .cfa -16 + ^ x21: .cfa -32 + ^ .ra: .cfa -40 + ^ x29: .cfa -48 + ^
STACK CFI 2a8e8 .cfa: sp 48 +
STACK CFI 2a8f4 .cfa: sp 0 +
STACK CFI INIT 2a8f8 24 .cfa: sp 0 +
STACK CFI 2a8fc .cfa: sp 32 +
STACK CFI 2a904 .cfa: x29 32 + x19: .cfa -16 + ^ .ra: .cfa -24 + ^ x29: .cfa -32 + ^
STACK CFI 2a910 .cfa: sp 32 +
STACK CFI 2a918 .cfa: sp 0 +
STACK CFI INIT 2adc4 148 .cfa: sp 0 +
STACK CFI 2adc8 .cfa: sp 48 +
STACK CFI 2add4 .cfa: x29 48 + x19: .cfa -8 + ^ x20: .cfa -16 + ^ x21: .cfa -32 + ^ .ra: .cfa -40 + ^ x29: .cfa -48 + ^
STACK CFI 2aefc .cfa: sp 48 +
STACK CFI 2af08 .cfa: sp 0 +
STACK CFI INIT 2b074 4 .cfa: sp 0 +
STACK CFI INIT 2b078 14 .cfa: sp 0 +
STACK CFI INIT 2b2a4 68 .cfa: sp 0 +
STACK CFI 2b2a8 .cfa: sp 32 +
STACK CFI 2b2b0 .cfa: x29 32 + x19: .cfa -8 + ^ x20: .cfa -16 + ^ .ra: .cfa -24 + ^ x29: .cfa -32 + ^
STACK CFI 2b2c8 .cfa: sp 32 +
STACK CFI 2b2d0 .cfa: sp 0 +
STACK CFI 2b2d4 .cfa: x29 32 +
STACK CFI 2b300 .cfa: sp 32 +
STACK CFI 2b308 .cfa: sp 0 +
STACK CFI INIT 2b30c 14 .cfa: sp 0 +
STACK CFI 2b310 .cfa: sp 16 +
STACK CFI 2b314 .cfa: x29 16 + .ra: .cfa -8 + ^ x29: .cfa -16 + ^
STACK CFI INIT 2b320 4 .cfa: sp 0 +
STACK CFI INIT 2b324 14 .cfa: sp 0 +
STACK CFI INIT 2b338 c4 .cfa: sp 0 +
STACK CFI 2b33c .cfa: sp 32 +
STACK CFI 2b344 .cfa: x29 32 + x19: .cfa -8 + ^ x20: .cfa -16 + ^ .ra: .cfa -24 + ^ x29: .cfa -32 + ^
STACK CFI 2b3cc .cfa: sp 32 +
STACK CFI 2b3d4 .cfa: sp 0 +
STACK CFI 2b3d8 .cfa: x29 32 +
STACK CFI INIT 2b3fc 388 .cfa: sp 0 +
STACK CFI INIT 2b784 84 .cfa: sp 0 +
STACK CFI 2b78c .cfa: sp 32 +
STACK CFI 2b794 .cfa: x29 32 + x19: .cfa -8 + ^ x20: .cfa -16 + ^ .ra: .cfa -24 + ^ x29: .cfa -32 + ^
STACK CFI 2b7d4 .cfa: sp 32 +
STACK CFI 2b7dc .cfa: sp 0 +
STACK CFI 2b7e4 .cfa: x29 32 +
STACK CFI INIT 2bad4 50 .cfa: sp 0 +
STACK CFI 2bad8 .cfa: sp 32 +
STACK CFI 2bae0 .cfa: x29 32 + x19: .cfa -16 + ^ .ra: .cfa -24 + ^ x29: .cfa -32 + ^
STACK CFI 2baf8 .cfa: sp 32 +
STACK CFI 2bb00 .cfa: sp 0 +
STACK CFI 2bb04 .cfa: x29 32 +
STACK CFI 2bb18 .cfa: sp 32 +
STACK CFI 2bb20 .cfa: sp 0 +
STACK CFI INIT 2bb24 64 .cfa: sp 0 +
STACK CFI 2bb28 .cfa: sp 32 +
STACK CFI 2bb30 .cfa: x29 32 + x19: .cfa -16 + ^ .ra: .cfa -24 + ^ x29: .cfa -32 + ^
STACK CFI 2bb5c .cfa: sp 32 +
STACK CFI 2bb64 .cfa: sp 0 +
STACK CFI 2bb68 .cfa: x29 32 +
STACK CFI 2bb7c .cfa: sp 32 +
STACK CFI 2bb84 .cfa: sp 0 +
STACK CFI INIT 2bb88 14 .cfa: sp 0 +
STACK CFI 2bb8c .cfa: sp 16 +
STACK CFI 2bb90 .cfa: x29 16 + .ra: .cfa -8 + ^ x29: .cfa -16 + ^
STACK CFI INIT 2cbe8 50 .cfa: sp 0 +
STACK CFI 2cbec .cfa: sp 32 +
STACK CFI 2cbf4 .cfa: x29 32 + x19: .cfa -8 + ^ x20: .cfa -16 + ^ .ra: .cfa -24 + ^ x29: .cfa -32 + ^
STACK CFI 2cc2c .cfa: sp 32 +
STACK CFI 2cc34 .cfa: sp 0 +
STACK CFI INIT 31104 238 .cfa: sp 0 +
STACK CFI 31108 .cfa: sp 80 +
STACK CFI 3111c .cfa: x29 80 + x19: .cfa -8 + ^ x20: .cfa -16 + ^ x21: .cfa -24 + ^ x22: .cfa -32 + ^ x23: .cfa -40 + ^ x24: .cfa -48 + ^ x25: .cfa -64 + ^ .ra: .cfa -72 + ^ x29: .cfa -80 + ^
STACK CFI 31300 .cfa: sp 80 +
STACK CFI 31314 .cfa: sp 0 +
STACK CFI 31318 .cfa: x29 80 +
STACK CFI INIT 3133c 14 .cfa: sp 0 +
STACK CFI 31340 .cfa: sp 16 +
STACK CFI 31344 .cfa: x29 16 + .ra: .cfa -8 + ^ x29: .cfa -16 + ^
STACK CFI INIT 31350 128 .cfa: sp 0 +
STACK CFI 31354 .cfa: sp 48 +
STACK CFI 31360 .cfa: x29 48 + x19: .cfa -8 + ^ x20: .cfa -16 + ^ x21: .cfa -24 + ^ x22: .cfa -32 + ^ .ra: .cfa -40 + ^ x29: .cfa -48 + ^
STACK CFI 31468 .cfa: sp 48 +
STACK CFI 31474 .cfa: sp 0 +
STACK CFI INIT 31478 50 .cfa: sp 0 +
STACK CFI 31490 .cfa: sp 32 +
STACK CFI 31498 .cfa: x29 32 + x19: .cfa -8 + ^ x20: .cfa -16 + ^ .ra: .cfa -24 + ^ x29: .cfa -32 + ^
STACK CFI INIT 31f10 30 .cfa: sp 0 +
STACK CFI 31f14 .cfa: sp 32 +
STACK CFI 31f1c .cfa: x29 32 + x19: .cfa -16 + ^ .ra: .cfa -24 + ^ x29: .cfa -32 + ^
STACK CFI 31f34 .cfa: sp 32 +
STACK CFI 31f3c .cfa: sp 0 +
STACK CFI INIT 31fcc 50 .cfa: sp 0 +
STACK CFI 31fe4 .cfa: sp 32 +
STACK CFI 31fec .cfa: x29 32 + x19: .cfa -8 + ^ x20: .cfa -16 + ^ .ra: .cfa -24 + ^ x29: .cfa -32 + ^
STACK CFI INIT 3201c 100 .cfa: sp 0 +
STACK CFI 32020 .cfa: sp 32 +
STACK CFI 32028 .cfa: x29 32 + x19: .cfa -8 + ^ x20: .cfa -16 + ^ .ra: .cfa -24 + ^ x29: .cfa -32 + ^
STACK CFI 32100 .cfa: sp 32 +
STACK CFI 32108 .cfa: sp 0 +
STACK CFI 3210c .cfa: sp 32 +
STACK CFI 32114 .cfa: sp 0 +
STACK CFI 32118 .cfa: x29 32 +
STACK CFI INIT 3211c 14 .cfa: sp 0 +
STACK CFI 32120 .cfa: sp 16 +
STACK CFI 32124 .cfa: x29 16 + .ra: .cfa -8 + ^ x29: .cfa -16 + ^
STACK CFI INIT 32a30 50 .cfa: sp 0 +
STACK CFI 32a48 .cfa: sp 32 +
STACK CFI 32a50 .cfa: x29 32 + x19: .cfa -8 + ^ x20: .cfa -16 + ^ .ra: .cfa -24 + ^ x29: .cfa -32 + ^
STACK CFI INIT 32f0c 34 .cfa: sp 0 +
STACK CFI 32f10 .cfa: sp 16 +
STACK CFI 32f14 .cfa: x29 16 + .ra: .cfa -8 + ^ x29: .cfa -16 + ^
STACK CFI INIT 32f40 24 .cfa: sp 0 +
STACK CFI 32f44 .cfa: sp 32 +
STACK CFI 32f4c .cfa: x29 32 + x19: .cfa -16 + ^ .ra: .cfa -24 + ^ x29: .cfa -32 + ^
STACK CFI 32f58 .cfa: sp 32 +
STACK CFI 32f60 .cfa: sp 0 +
STACK CFI INIT 33080 14 .cfa: sp 0 +
STACK CFI 33084 .cfa: sp 16 +
STACK CFI 33088 .cfa: x29 16 + .ra: .cfa -8 + ^ x29: .cfa -16 + ^
STACK CFI INIT 33094 38 .cfa: sp 0 +
STACK CFI 33098 .cfa: sp 32 +
STACK CFI 330a0 .cfa: x29 32 + x19: .cfa -16 + ^ .ra: .cfa -24 + ^ x29: .cfa -32 + ^
STACK CFI 330c0 .cfa: sp 32 +
STACK CFI 330c8 .cfa: sp 0 +
STACK CFI INIT 335d4 104 .cfa: sp 0 +
STACK CFI 335d8 .cfa: sp 80 +
STACK CFI 335ec .cfa: x29 80 + x19: .cfa -8 + ^ x20: .cfa -16 + ^ x21: .cfa -24 + ^ x22: .cfa -32 + ^ x23: .cfa -40 + ^ x24: .cfa -48 + ^ x25: .cfa -56 + ^ x26: .cfa -64 + ^ .ra: .cfa -72 + ^ x29: .cfa -80 + ^
STACK CFI 336c0 .cfa: sp 80 +
STACK CFI 336d4 .cfa: sp 0 +
STACK CFI INIT 33794 14 .cfa: sp 0 +
STACK CFI 33798 .cfa: sp 16 +
STACK CFI 3379c .cfa: x29 16 + .ra: .cfa -8 + ^ x29: .cfa -16 + ^
STACK CFI INIT 33978 38 .cfa: sp 0 +
STACK CFI 3397c .cfa: sp 32 +
STACK CFI 33984 .cfa: x29 32 + x19: .cfa -16 + ^ .ra: .cfa -24 + ^ x29: .cfa -32 + ^
STACK CFI 339a4 .cfa: sp 32 +
STACK CFI 339ac .cfa: sp 0 +
STACK CFI INIT 33c30 2c .cfa: sp 0 +
STACK CFI INIT 33c5c 38 .cfa: sp 0 +
STACK CFI 33c60 .cfa: sp 32 +
STACK CFI 33c68 .cfa: x29 32 + x19: .cfa -16 + ^ .ra: .cfa -24 + ^ x29: .cfa -32 + ^
STACK CFI 33c88 .cfa: sp 32 +
STACK CFI 33c90 .cfa: sp 0 +
STACK CFI INIT 33db4 48 .cfa: sp 0 +
STACK CFI 33db8 .cfa: sp 32 +
STACK CFI 33dc0 .cfa: x29 32 + x19: .cfa -16 + ^ .ra: .cfa -24 + ^ x29: .cfa -32 + ^
STACK CFI 33df0 .cfa: sp 32 +
STACK CFI 33df8 .cfa: sp 0 +
STACK CFI INIT 33ff8 54 .cfa: sp 0 +
STACK CFI 33ffc .cfa: sp 32 +
STACK CFI 34004 .cfa: x29 32 + x19: .cfa -8 + ^ x20: .cfa -16 + ^ .ra: .cfa -24 + ^ x29: .cfa -32 + ^
STACK CFI 34040 .cfa: sp 32 +
STACK CFI 34048 .cfa: sp 0 +
STACK CFI INIT 3404c 38 .cfa: sp 0 +
STACK CFI 34050 .cfa: sp 32 +
STACK CFI 34058 .cfa: x29 32 + x19: .cfa -16 + ^ .ra: .cfa -24 + ^ x29: .cfa -32 + ^
STACK CFI 34078 .cfa: sp 32 +
STACK CFI 34080 .cfa: sp 0 +
STACK CFI INIT 34084 a4 .cfa: sp 0 +
STACK CFI 34088 .cfa: sp 272 +
STACK CFI 34094 .cfa: x29 32 + x19: .cfa -8 + ^ x28: .cfa -16 + ^ .ra: .cfa -24 + ^ x29: .cfa -32 + ^
STACK CFI 34114 .cfa: sp 272 +
STACK CFI 34120 .cfa: sp 0 +
STACK CFI 34124 .cfa: x29 32 +
STACK CFI INIT 34128 50 .cfa: sp 0 +
STACK CFI 34140 .cfa: sp 32 +
STACK CFI 34148 .cfa: x29 32 + x19: .cfa -8 + ^ x20: .cfa -16 + ^ .ra: .cfa -24 + ^ x29: .cfa -32 + ^
STACK CFI INIT 34644 8 .cfa: sp 0 +
STACK CFI INIT 3464c 24 .cfa: sp 0 +
STACK CFI 34650 .cfa: sp 32 +
STACK CFI 34658 .cfa: x29 32 + x19: .cfa -16 + ^ .ra: .cfa -24 + ^ x29: .cfa -32 + ^
STACK CFI 34664 .cfa: sp 32 +
STACK CFI 3466c .cfa: sp 0 +
STACK CFI INIT 34670 4 .cfa: sp 0 +
STACK CFI INIT 34e04 38 .cfa: sp 0 +
STACK CFI 34e08 .cfa: sp 32 +
STACK CFI 34e10 .cfa: x29 32 + x19: .cfa -16 + ^ .ra: .cfa -24 + ^ x29: .cfa -32 + ^
STACK CFI 34e30 .cfa: sp 32 +
STACK CFI 34e38 .cfa: sp 0 +
STACK CFI INIT 34e3c 4 .cfa: sp 0 +
STACK CFI INIT 34e40 8 .cfa: sp 0 +
STACK CFI INIT 34e48 8 .cfa: sp 0 +
STACK CFI INIT 34e50 28 .cfa: sp 0 +
STACK CFI 34e54 .cfa: sp 32 +
STACK CFI 34e5c .cfa: x29 32 + x19: .cfa -16 + ^ .ra: .cfa -24 + ^ x29: .cfa -32 + ^
STACK CFI 34e6c .cfa: sp 32 +
STACK CFI 34e74 .cfa: sp 0 +
STACK CFI INIT 34e78 4 .cfa: sp 0 +
STACK CFI INIT 34e7c 4 .cfa: sp 0 +
STACK CFI INIT 34e80 4 .cfa: sp 0 +
STACK CFI INIT 34e84 4 .cfa: sp 0 +
STACK CFI INIT 34e88 4 .cfa: sp 0 +
STACK CFI INIT 34e8c 8 .cfa: sp 0 +
STACK CFI INIT 34e94 c .cfa: sp 0 +
STACK CFI INIT 34ea0 24 .cfa: sp 0 +
STACK CFI 34ea4 .cfa: sp 32 +
STACK CFI 34eac .cfa: x29 32 + x19: .cfa -16 + ^ .ra: .cfa -24 + ^ x29: .cfa -32 + ^
STACK CFI 34eb8 .cfa: sp 32 +
STACK CFI 34ec0 .cfa: sp 0 +
STACK CFI INIT 34ec4 4 .cfa: sp 0 +
STACK CFI INIT 3526c 4 .cfa: sp 0 +
STACK CFI INIT 35e50 e8 .cfa: sp 0 +
STACK CFI 35e54 .cfa: sp 48 +
STACK CFI 35e60 .cfa: x29 48 + x19: .cfa -8 + ^ x20: .cfa -16 + ^ x21: .cfa -32 + ^ .ra: .cfa -40 + ^ x29: .cfa -48 + ^
STACK CFI 35f28 .cfa: sp 48 +
STACK CFI 35f34 .cfa: sp 0 +
STACK CFI INIT 35f38 d8 .cfa: sp 0 +
STACK CFI 35f3c .cfa: sp 64 +
STACK CFI 35f4c .cfa: x29 64 + x19: .cfa -8 + ^ x20: .cfa -16 + ^ x21: .cfa -24 + ^ x22: .cfa -32 + ^ x23: .cfa -48 + ^ .ra: .cfa -56 + ^ x29: .cfa -64 + ^
STACK CFI 35fc4 .cfa: sp 64 +
STACK CFI 35fd4 .cfa: sp 0 +
STACK CFI 35fd8 .cfa: x29 64 +
STACK CFI INIT 363c0 4 .cfa: sp 0 +
STACK CFI INIT 363c4 13c .cfa: sp 0 +
STACK CFI 363c8 .cfa: sp 96 +
STACK CFI 363e0 .cfa: x29 64 + x19: .cfa -8 + ^ x20: .cfa -16 + ^ x21: .cfa -24 + ^ x22: .cfa -32 + ^ x23: .cfa -40 + ^ x24: .cfa -48 + ^ .ra: .cfa -56 + ^ x29: .cfa -64 + ^ v8: .cfa -80 + ^
STACK CFI 364e0 .cfa: sp 96 +
STACK CFI 364f8 .cfa: sp 0 +
STACK CFI 364fc .cfa: x29 64 +
STACK CFI INIT 37194 4 .cfa: sp 0 +
STACK CFI INIT 3a104 1d4 .cfa: sp 0 +
STACK CFI 3a108 .cfa: sp 96 +
STACK CFI 3a120 .cfa: x29 56 + x19: .cfa -8 + ^ x20: .cfa -16 + ^ x21: .cfa -24 + ^ x22: .cfa -32 + ^ x23: .cfa -40 + ^ .ra: .cfa -48 + ^ x29: .cfa -56 + ^ v8: .cfa -64 + ^
STACK CFI 3a2b8 .cfa: sp 96 +
STACK CFI 3a2d0 .cfa: sp 0 +
STACK CFI 3a2d4 .cfa: x29 56 +
STACK CFI INIT 3afb0 78 .cfa: sp 0 +
STACK CFI 3afb4 .cfa: sp 48 +
STACK CFI 3afc0 .cfa: x29 48 + x19: .cfa -8 + ^ x20: .cfa -16 + ^ x21: .cfa -32 + ^ .ra: .cfa -40 + ^ x29: .cfa -48 + ^
STACK CFI 3b008 .cfa: sp 48 +
STACK CFI 3b014 .cfa: sp 0 +
STACK CFI 3b018 .cfa: sp 48 +
STACK CFI 3b024 .cfa: sp 0 +
STACK CFI INIT 3b028 78 .cfa: sp 0 +
STACK CFI 3b02c .cfa: sp 48 +
STACK CFI 3b038 .cfa: x29 48 + x19: .cfa -8 + ^ x20: .cfa -16 + ^ x21: .cfa -32 + ^ .ra: .cfa -40 + ^ x29: .cfa -48 + ^
STACK CFI 3b080 .cfa: sp 48 +
STACK CFI 3b08c .cfa: sp 0 +
STACK CFI 3b090 .cfa: sp 48 +
STACK CFI 3b09c .cfa: sp 0 +
STACK CFI INIT 3b0a0 84 .cfa: sp 0 +
STACK CFI 3b0a4 .cfa: sp 48 +
STACK CFI 3b0b0 .cfa: x29 48 + x19: .cfa -8 + ^ x20: .cfa -16 + ^ x21: .cfa -24 + ^ x22: .cfa -32 + ^ .ra: .cfa -40 + ^ x29: .cfa -48 + ^
STACK CFI 3b104 .cfa: sp 48 +
STACK CFI 3b110 .cfa: sp 0 +
STACK CFI 3b114 .cfa: sp 48 +
STACK CFI 3b120 .cfa: sp 0 +
STACK CFI INIT 3b140 8c .cfa: sp 0 +
STACK CFI 3b144 .cfa: sp 48 +
STACK CFI 3b150 .cfa: x29 48 + x19: .cfa -8 + ^ x20: .cfa -16 + ^ x21: .cfa -24 + ^ x22: .cfa -32 + ^ .ra: .cfa -40 + ^ x29: .cfa -48 + ^
STACK CFI 3b188 .cfa: sp 48 +
STACK CFI 3b194 .cfa: sp 0 +
STACK CFI 3b198 .cfa: x29 48 +
STACK CFI 3b1bc .cfa: sp 48 +
STACK CFI 3b1c8 .cfa: sp 0 +
STACK CFI INIT 3b1cc 78 .cfa: sp 0 +
STACK CFI 3b1d0 .cfa: sp 48 +
STACK CFI 3b1dc .cfa: x29 48 + x19: .cfa -8 + ^ x20: .cfa -16 + ^ x21: .cfa -32 + ^ .ra: .cfa -40 + ^ x29: .cfa -48 + ^
STACK CFI 3b224 .cfa: sp 48 +
STACK CFI 3b230 .cfa: sp 0 +
STACK CFI 3b234 .cfa: sp 48 +
STACK CFI 3b240 .cfa: sp 0 +
STACK CFI INIT 3b244 8c .cfa: sp 0 +
STACK CFI 3b248 .cfa: sp 48 +
STACK CFI 3b254 .cfa: x29 48 + x19: .cfa -8 + ^ x20: .cfa -16 + ^ x21: .cfa -24 + ^ x22: .cfa -32 + ^ .ra: .cfa -40 + ^ x29: .cfa -48 + ^
STACK CFI 3b28c .cfa: sp 48 +
STACK CFI 3b298 .cfa: sp 0 +
STACK CFI 3b29c .cfa: x29 48 +
STACK CFI 3b2c0 .cfa: sp 48 +
STACK CFI 3b2cc .cfa: sp 0 +
STACK CFI INIT 3b2d0 78 .cfa: sp 0 +
STACK CFI 3b2d4 .cfa: sp 48 +
STACK CFI 3b2e0 .cfa: x29 48 + x19: .cfa -8 + ^ x20: .cfa -16 + ^ x21: .cfa -32 + ^ .ra: .cfa -40 + ^ x29: .cfa -48 + ^
STACK CFI 3b328 .cfa: sp 48 +
STACK CFI 3b334 .cfa: sp 0 +
STACK CFI 3b338 .cfa: sp 48 +
STACK CFI 3b344 .cfa: sp 0 +
STACK CFI INIT 3b348 104 .cfa: sp 0 +
STACK CFI 3b34c .cfa: sp 64 +
STACK CFI 3b35c .cfa: x29 64 + x19: .cfa -8 + ^ x20: .cfa -16 + ^ x21: .cfa -24 + ^ x22: .cfa -32 + ^ x23: .cfa -48 + ^ .ra: .cfa -56 + ^ x29: .cfa -64 + ^
STACK CFI 3b424 .cfa: sp 64 +
STACK CFI 3b434 .cfa: sp 0 +
STACK CFI 3b438 .cfa: sp 64 +
STACK CFI 3b448 .cfa: sp 0 +
STACK CFI INIT 3b88c 78 .cfa: sp 0 +
STACK CFI 3b890 .cfa: sp 48 +
STACK CFI 3b89c .cfa: x29 48 + x19: .cfa -8 + ^ x20: .cfa -16 + ^ x21: .cfa -32 + ^ .ra: .cfa -40 + ^ x29: .cfa -48 + ^
STACK CFI 3b8e4 .cfa: sp 48 +
STACK CFI 3b8f0 .cfa: sp 0 +
STACK CFI 3b8f4 .cfa: sp 48 +
STACK CFI 3b900 .cfa: sp 0 +
STACK CFI INIT 3b920 90 .cfa: sp 0 +
STACK CFI 3b924 .cfa: sp 48 +
STACK CFI 3b930 .cfa: x29 48 + x19: .cfa -8 + ^ x20: .cfa -16 + ^ x21: .cfa -24 + ^ x22: .cfa -32 + ^ .ra: .cfa -40 + ^ x29: .cfa -48 + ^
STACK CFI 3b968 .cfa: sp 48 +
STACK CFI 3b974 .cfa: sp 0 +
STACK CFI 3b978 .cfa: x29 48 +
STACK CFI 3b9a0 .cfa: sp 48 +
STACK CFI 3b9ac .cfa: sp 0 +
STACK CFI INIT 3bae0 78 .cfa: sp 0 +
STACK CFI 3bae4 .cfa: sp 48 +
STACK CFI 3baf0 .cfa: x29 48 + x19: .cfa -8 + ^ x20: .cfa -16 + ^ x21: .cfa -32 + ^ .ra: .cfa -40 + ^ x29: .cfa -48 + ^
STACK CFI 3bb38 .cfa: sp 48 +
STACK CFI 3bb44 .cfa: sp 0 +
STACK CFI 3bb48 .cfa: sp 48 +
STACK CFI 3bb54 .cfa: sp 0 +
STACK CFI INIT 3bb58 78 .cfa: sp 0 +
STACK CFI 3bb5c .cfa: sp 48 +
STACK CFI 3bb68 .cfa: x29 48 + x19: .cfa -8 + ^ x20: .cfa -16 + ^ x21: .cfa -32 + ^ .ra: .cfa -40 + ^ x29: .cfa -48 + ^
STACK CFI 3bbb0 .cfa: sp 48 +
STACK CFI 3bbbc .cfa: sp 0 +
STACK CFI 3bbc0 .cfa: sp 48 +
STACK CFI 3bbcc .cfa: sp 0 +
STACK CFI INIT 3bbd0 78 .cfa: sp 0 +
STACK CFI 3bbd4 .cfa: sp 48 +
STACK CFI 3bbe0 .cfa: x29 48 + x19: .cfa -8 + ^ x20: .cfa -16 + ^ x21: .cfa -32 + ^ .ra: .cfa -40 + ^ x29: .cfa -48 + ^
STACK CFI 3bc28 .cfa: sp 48 +
STACK CFI 3bc34 .cfa: sp 0 +
STACK CFI 3bc38 .cfa: sp 48 +
STACK CFI 3bc44 .cfa: sp 0 +
STACK CFI INIT 3bc48 78 .cfa: sp 0 +
STACK CFI 3bc4c .cfa: sp 48 +
STACK CFI 3bc58 .cfa: x29 48 + x19: .cfa -8 + ^ x20: .cfa -16 + ^ x21: .cfa -32 + ^ .ra: .cfa -40 + ^ x29: .cfa -48 + ^
STACK CFI 3bca0 .cfa: sp 48 +
STACK CFI 3bcac .cfa: sp 0 +
STACK CFI 3bcb0 .cfa: sp 48 +
STACK CFI 3bcbc .cfa: sp 0 +
STACK CFI INIT 3be8c 250 .cfa: sp 0 +
STACK CFI 3be90 .cfa: sp 80 +
STACK CFI 3bea4 .cfa: x29 80 + x19: .cfa -8 + ^ x20: .cfa -16 + ^ x21: .cfa -24 + ^ x22: .cfa -32 + ^ x23: .cfa -40 + ^ x24: .cfa -48 + ^ x25: .cfa -64 + ^ .ra: .cfa -72 + ^ x29: .cfa -80 + ^
STACK CFI 3c0bc .cfa: sp 80 +
STACK CFI 3c0d0 .cfa: sp 0 +
STACK CFI 3c0d4 .cfa: x29 80 +
STACK CFI INIT 3c0dc 80 .cfa: sp 0 +
STACK CFI 3c0e0 .cfa: sp 48 +
STACK CFI 3c0ec .cfa: x29 48 + x19: .cfa -8 + ^ x20: .cfa -16 + ^ x21: .cfa -32 + ^ .ra: .cfa -40 + ^ x29: .cfa -48 + ^
STACK CFI 3c13c .cfa: sp 48 +
STACK CFI 3c148 .cfa: sp 0 +
STACK CFI 3c14c .cfa: sp 48 +
STACK CFI 3c158 .cfa: sp 0 +
STACK CFI INIT 3c15c 80 .cfa: sp 0 +
STACK CFI 3c160 .cfa: sp 48 +
STACK CFI 3c16c .cfa: x29 48 + x19: .cfa -8 + ^ x20: .cfa -16 + ^ x21: .cfa -32 + ^ .ra: .cfa -40 + ^ x29: .cfa -48 + ^
STACK CFI 3c1bc .cfa: sp 48 +
STACK CFI 3c1c8 .cfa: sp 0 +
STACK CFI 3c1cc .cfa: sp 48 +
STACK CFI 3c1d8 .cfa: sp 0 +
STACK CFI INIT 3c370 250 .cfa: sp 0 +
STACK CFI INIT 3c5c0 1c8 .cfa: sp 0 +
STACK CFI 3c5c4 .cfa: sp 64 +
STACK CFI 3c5d4 .cfa: x29 64 + x19: .cfa -8 + ^ x20: .cfa -16 + ^ x21: .cfa -24 + ^ x22: .cfa -32 + ^ x23: .cfa -48 + ^ .ra: .cfa -56 + ^ x29: .cfa -64 + ^
STACK CFI 3c6dc .cfa: sp 64 +
STACK CFI 3c6ec .cfa: sp 0 +
STACK CFI 3c6f0 .cfa: x29 64 +
STACK CFI INIT 3c788 80 .cfa: sp 0 +
STACK CFI 3c78c .cfa: sp 48 +
STACK CFI 3c798 .cfa: x29 48 + x19: .cfa -8 + ^ x20: .cfa -16 + ^ x21: .cfa -32 + ^ .ra: .cfa -40 + ^ x29: .cfa -48 + ^
STACK CFI 3c7e8 .cfa: sp 48 +
STACK CFI 3c7f4 .cfa: sp 0 +
STACK CFI 3c7f8 .cfa: sp 48 +
STACK CFI 3c804 .cfa: sp 0 +
STACK CFI INIT 3c808 98 .cfa: sp 0 +
STACK CFI 3c810 .cfa: sp 48 +
STACK CFI 3c81c .cfa: x29 48 + x19: .cfa -8 + ^ x20: .cfa -16 + ^ x21: .cfa -32 + ^ .ra: .cfa -40 + ^ x29: .cfa -48 + ^
STACK CFI 3c86c .cfa: sp 0 + x19: x19 x20: x20 x21: x21 .ra: x30 x29: x29
STACK CFI 3c870 .cfa: x29 48 + x19: .cfa -8 + ^ x20: .cfa -16 + ^ x21: .cfa -32 + ^ .ra: .cfa -40 + ^ x29: .cfa -48 + ^
STACK CFI 3c890 .cfa: sp 48 +
STACK CFI 3c89c .cfa: sp 0 +
STACK CFI INIT 3c8a0 4c .cfa: sp 0 +
STACK CFI 3c8a8 .cfa: sp 32 +
STACK CFI 3c8b0 .cfa: x29 32 + x19: .cfa -8 + ^ x20: .cfa -16 + ^ .ra: .cfa -24 + ^ x29: .cfa -32 + ^
STACK CFI 3c8e0 .cfa: sp 32 +
STACK CFI 3c8e8 .cfa: sp 0 +
STACK CFI INIT 3c8ec 4c .cfa: sp 0 +
STACK CFI 3c8f4 .cfa: sp 32 +
STACK CFI 3c8fc .cfa: x29 32 + x19: .cfa -8 + ^ x20: .cfa -16 + ^ .ra: .cfa -24 + ^ x29: .cfa -32 + ^
STACK CFI 3c92c .cfa: sp 32 +
STACK CFI 3c934 .cfa: sp 0 +
STACK CFI INIT 3c9c0 4c .cfa: sp 0 +
STACK CFI 3c9c8 .cfa: sp 32 +
STACK CFI 3c9d0 .cfa: x29 32 + x19: .cfa -8 + ^ x20: .cfa -16 + ^ .ra: .cfa -24 + ^ x29: .cfa -32 + ^
STACK CFI 3ca00 .cfa: sp 32 +
STACK CFI 3ca08 .cfa: sp 0 +
STACK CFI INIT 3ca0c a8 .cfa: sp 0 +
STACK CFI 3ca14 .cfa: sp 48 +
STACK CFI 3ca20 .cfa: x29 48 + x19: .cfa -8 + ^ x20: .cfa -16 + ^ x21: .cfa -24 + ^ x22: .cfa -32 + ^ .ra: .cfa -40 + ^ x29: .cfa -48 + ^
STACK CFI 3caa4 .cfa: sp 48 +
STACK CFI 3cab0 .cfa: sp 0 +
STACK CFI INIT 3cab4 4c .cfa: sp 0 +
STACK CFI 3cabc .cfa: sp 32 +
STACK CFI 3cac4 .cfa: x29 32 + x19: .cfa -8 + ^ x20: .cfa -16 + ^ .ra: .cfa -24 + ^ x29: .cfa -32 + ^
STACK CFI 3caf4 .cfa: sp 32 +
STACK CFI 3cafc .cfa: sp 0 +
STACK CFI INIT 3d610 184 .cfa: sp 0 +
STACK CFI 3d614 .cfa: sp 64 +
STACK CFI 3d624 .cfa: x29 64 + x19: .cfa -8 + ^ x20: .cfa -16 + ^ x21: .cfa -24 + ^ x22: .cfa -32 + ^ x23: .cfa -40 + ^ x24: .cfa -48 + ^ .ra: .cfa -56 + ^ x29: .cfa -64 + ^
STACK CFI 3d76c .cfa: sp 64 +
STACK CFI 3d77c .cfa: sp 0 +
STACK CFI 3d780 .cfa: sp 64 +
STACK CFI 3d790 .cfa: sp 0 +
STACK CFI INIT 3d794 14 .cfa: sp 0 +
STACK CFI 3d798 .cfa: sp 16 +
STACK CFI 3d79c .cfa: x29 16 + .ra: .cfa -8 + ^ x29: .cfa -16 + ^
STACK CFI INIT 3d7a8 14 .cfa: sp 0 +
STACK CFI 3d7ac .cfa: sp 16 +
STACK CFI 3d7b0 .cfa: x29 16 + .ra: .cfa -8 + ^ x29: .cfa -16 + ^
STACK CFI INIT 3d7bc 14 .cfa: sp 0 +
STACK CFI 3d7c0 .cfa: sp 16 +
STACK CFI 3d7c4 .cfa: x29 16 + .ra: .cfa -8 + ^ x29: .cfa -16 + ^
STACK CFI INIT 3d820 30 .cfa: sp 0 +
STACK CFI 3d824 .cfa: sp 32 +
STACK CFI 3d82c .cfa: x29 32 + x19: .cfa -16 + ^ .ra: .cfa -24 + ^ x29: .cfa -32 + ^
STACK CFI 3d844 .cfa: sp 32 +
STACK CFI 3d84c .cfa: sp 0 +
STACK CFI INIT 3d850 14 .cfa: sp 0 +
STACK CFI 3d854 .cfa: sp 16 +
STACK CFI 3d858 .cfa: x29 16 + .ra: .cfa -8 + ^ x29: .cfa -16 + ^
STACK CFI INIT 3d864 48 .cfa: sp 0 +
STACK CFI 3d86c .cfa: sp 32 +
STACK CFI 3d874 .cfa: x29 32 + x19: .cfa -16 + ^ .ra: .cfa -24 + ^ x29: .cfa -32 + ^
STACK CFI 3d89c .cfa: sp 32 +
STACK CFI 3d8a4 .cfa: sp 0 +
STACK CFI INIT 3d8ac 78 .cfa: sp 0 +
STACK CFI 3d8b0 .cfa: sp 48 +
STACK CFI 3d8bc .cfa: x29 48 + x19: .cfa -8 + ^ x20: .cfa -16 + ^ x21: .cfa -32 + ^ .ra: .cfa -40 + ^ x29: .cfa -48 + ^
STACK CFI 3d904 .cfa: sp 48 +
STACK CFI 3d910 .cfa: sp 0 +
STACK CFI 3d914 .cfa: sp 48 +
STACK CFI 3d920 .cfa: sp 0 +
STACK CFI INIT 3d924 4 .cfa: sp 0 +
STACK CFI INIT 3d928 4 .cfa: sp 0 +
STACK CFI INIT 3d92c 38 .cfa: sp 0 +
STACK CFI 3d930 .cfa: sp 32 +
STACK CFI 3d938 .cfa: x29 32 + x19: .cfa -16 + ^ .ra: .cfa -24 + ^ x29: .cfa -32 + ^
STACK CFI 3d958 .cfa: sp 32 +
STACK CFI 3d960 .cfa: sp 0 +
STACK CFI INIT 3d964 18 .cfa: sp 0 +
STACK CFI INIT 3d97c 4 .cfa: sp 0 +
STACK CFI INIT 3d980 4 .cfa: sp 0 +
STACK CFI INIT 3d984 10 .cfa: sp 0 +
STACK CFI INIT 3d994 1c .cfa: sp 0 +
STACK CFI INIT 3d9b0 c .cfa: sp 0 +
STACK CFI INIT 3db1c 88 .cfa: sp 0 +
STACK CFI 3db20 .cfa: sp 48 +
STACK CFI 3db2c .cfa: x29 48 + x19: .cfa -8 + ^ x20: .cfa -16 + ^ x21: .cfa -24 + ^ x22: .cfa -32 + ^ .ra: .cfa -40 + ^ x29: .cfa -48 + ^
STACK CFI 3db34 .cfa: sp 48 +
STACK CFI 3db40 .cfa: sp 0 +
STACK CFI 3db44 .cfa: x29 48 +
STACK CFI 3db94 .cfa: sp 48 +
STACK CFI 3dba0 .cfa: sp 0 +
STACK CFI INIT 3dba4 14 .cfa: sp 0 +
STACK CFI 3dba8 .cfa: sp 16 +
STACK CFI 3dbac .cfa: x29 16 + .ra: .cfa -8 + ^ x29: .cfa -16 + ^
STACK CFI INIT 3dbb8 54 .cfa: sp 0 +
STACK CFI 3dbc8 .cfa: sp 32 +
STACK CFI 3dbd0 .cfa: x29 32 + x19: .cfa -8 + ^ x20: .cfa -16 + ^ .ra: .cfa -24 + ^ x29: .cfa -32 + ^
STACK CFI 3dc00 .cfa: sp 32 +
STACK CFI 3dc08 .cfa: sp 0 +
STACK CFI INIT 3ddac 14 .cfa: sp 0 +
STACK CFI 3ddb0 .cfa: sp 16 +
STACK CFI 3ddb4 .cfa: x29 16 + .ra: .cfa -8 + ^ x29: .cfa -16 + ^
STACK CFI INIT 3ddc0 c .cfa: sp 0 +
STACK CFI INIT 3ddcc c .cfa: sp 0 +
STACK CFI INIT 3ddd8 c .cfa: sp 0 +
STACK CFI INIT 3dde4 36c .cfa: sp 0 +
STACK CFI 3dde8 .cfa: sp 112 +
STACK CFI 3de00 .cfa: x29 56 + x19: .cfa -8 + ^ x20: .cfa -16 + ^ x21: .cfa -24 + ^ x22: .cfa -32 + ^ x23: .cfa -40 + ^ .ra: .cfa -48 + ^ x29: .cfa -56 + ^ v8: .cfa -64 + ^
STACK CFI 3e11c .cfa: sp 112 +
STACK CFI 3e134 .cfa: sp 0 +
STACK CFI 3e138 .cfa: x29 56 +
STACK CFI INIT 3eaec 30 .cfa: sp 0 +
STACK CFI INIT 3eb1c 2c .cfa: sp 0 +
STACK CFI INIT 3eb48 34 .cfa: sp 0 +
STACK CFI INIT 3ee28 3c .cfa: sp 0 +
STACK CFI 3ee30 .cfa: sp 32 +
STACK CFI 3ee38 .cfa: x29 32 + x19: .cfa -16 + ^ .ra: .cfa -24 + ^ x29: .cfa -32 + ^
STACK CFI 3ee54 .cfa: sp 32 +
STACK CFI 3ee5c .cfa: sp 0 +
STACK CFI INIT 3ee64 14 .cfa: sp 0 +
STACK CFI 3ee68 .cfa: sp 16 +
STACK CFI 3ee6c .cfa: x29 16 + .ra: .cfa -8 + ^ x29: .cfa -16 + ^
STACK CFI INIT 3f2cc 70 .cfa: sp 0 +
STACK CFI 3f2d0 .cfa: sp 32 +
STACK CFI 3f2d8 .cfa: x29 32 + x19: .cfa -8 + ^ x20: .cfa -16 + ^ .ra: .cfa -24 + ^ x29: .cfa -32 + ^
STACK CFI 3f324 .cfa: sp 32 +
STACK CFI 3f32c .cfa: sp 0 +
STACK CFI 3f330 .cfa: sp 32 +
STACK CFI 3f338 .cfa: sp 0 +
STACK CFI INIT 3f33c 54 .cfa: sp 0 +
STACK CFI 3f34c .cfa: sp 32 +
STACK CFI 3f354 .cfa: x29 32 + x19: .cfa -8 + ^ x20: .cfa -16 + ^ .ra: .cfa -24 + ^ x29: .cfa -32 + ^
STACK CFI 3f384 .cfa: sp 32 +
STACK CFI 3f38c .cfa: sp 0 +
STACK CFI INIT 3f390 b8 .cfa: sp 0 +
STACK CFI 3f394 .cfa: sp 64 +
STACK CFI 3f3a4 .cfa: x29 64 + x19: .cfa -8 + ^ x20: .cfa -16 + ^ x21: .cfa -24 + ^ x22: .cfa -32 + ^ x23: .cfa -40 + ^ x24: .cfa -48 + ^ .ra: .cfa -56 + ^ x29: .cfa -64 + ^
STACK CFI 3f420 .cfa: sp 64 +
STACK CFI 3f430 .cfa: sp 0 +
STACK CFI 3f434 .cfa: sp 64 +
STACK CFI 3f444 .cfa: sp 0 +
STACK CFI INIT 3f448 14 .cfa: sp 0 +
STACK CFI 3f44c .cfa: sp 16 +
STACK CFI 3f450 .cfa: x29 16 + .ra: .cfa -8 + ^ x29: .cfa -16 + ^
STACK CFI INIT 3faf4 14 .cfa: sp 0 +
STACK CFI 3faf8 .cfa: sp 16 +
STACK CFI 3fafc .cfa: x29 16 + .ra: .cfa -8 + ^ x29: .cfa -16 + ^
STACK CFI INIT 3fb08 14 .cfa: sp 0 +
STACK CFI 3fb0c .cfa: sp 16 +
STACK CFI 3fb10 .cfa: x29 16 + .ra: .cfa -8 + ^ x29: .cfa -16 + ^
STACK CFI INIT 3fb1c 130 .cfa: sp 0 +
STACK CFI 3fb20 .cfa: sp 80 +
STACK CFI 3fb30 .cfa: x29 48 + x19: .cfa -8 + ^ x20: .cfa -16 + ^ x21: .cfa -24 + ^ x22: .cfa -32 + ^ .ra: .cfa -40 + ^ x29: .cfa -48 + ^
STACK CFI 3fc34 .cfa: sp 80 +
STACK CFI 3fc44 .cfa: sp 0 +
STACK CFI 3fc48 .cfa: x29 48 +
STACK CFI INIT 3fc4c 12c .cfa: sp 0 +
STACK CFI 3fc50 .cfa: sp 96 +
STACK CFI 3fc64 .cfa: x29 48 + x19: .cfa -8 + ^ x20: .cfa -16 + ^ x21: .cfa -24 + ^ x22: .cfa -32 + ^ .ra: .cfa -40 + ^ x29: .cfa -48 + ^ v8: .cfa -64 + ^
STACK CFI 3fd5c .cfa: sp 96 +
STACK CFI 3fd70 .cfa: sp 0 +
STACK CFI 3fd74 .cfa: x29 48 +
STACK CFI INIT 407c8 14 .cfa: sp 0 +
STACK CFI 407cc .cfa: sp 16 +
STACK CFI 407d0 .cfa: x29 16 + .ra: .cfa -8 + ^ x29: .cfa -16 + ^
STACK CFI INIT 407dc d0 .cfa: sp 0 +
STACK CFI 407e0 .cfa: sp 80 +
STACK CFI 407f4 .cfa: x29 40 + x19: .cfa -8 + ^ x20: .cfa -16 + ^ x21: .cfa -24 + ^ .ra: .cfa -32 + ^ x29: .cfa -40 + ^ v8: .cfa -48 + ^
STACK CFI 40890 .cfa: sp 80 +
STACK CFI 408a4 .cfa: sp 0 +
STACK CFI 408a8 .cfa: x29 40 +
STACK CFI INIT 408ac a4 .cfa: sp 0 +
STACK CFI 408bc .cfa: sp 64 +
STACK CFI 408cc .cfa: x29 64 + x19: .cfa -8 + ^ x20: .cfa -16 + ^ x21: .cfa -24 + ^ x22: .cfa -32 + ^ x23: .cfa -48 + ^ .ra: .cfa -56 + ^ x29: .cfa -64 + ^
STACK CFI 4093c .cfa: sp 64 +
STACK CFI 4094c .cfa: sp 0 +
STACK CFI INIT 43590 4 .cfa: sp 0 +
STACK CFI INIT 45fc0 50 .cfa: sp 0 +
STACK CFI 45fc4 .cfa: sp 32 +
STACK CFI 45fcc .cfa: x29 32 + x19: .cfa -8 + ^ x20: .cfa -16 + ^ .ra: .cfa -24 + ^ x29: .cfa -32 + ^
STACK CFI 46004 .cfa: sp 32 +
STACK CFI 4600c .cfa: sp 0 +
STACK CFI INIT 46010 50 .cfa: sp 0 +
STACK CFI 46014 .cfa: sp 32 +
STACK CFI 4601c .cfa: x29 32 + x19: .cfa -16 + ^ .ra: .cfa -24 + ^ x29: .cfa -32 + ^
STACK CFI 46034 .cfa: sp 32 +
STACK CFI 4603c .cfa: sp 0 +
STACK CFI 46040 .cfa: x29 32 +
STACK CFI 46054 .cfa: sp 32 +
STACK CFI 4605c .cfa: sp 0 +
STACK CFI INIT 46060 50 .cfa: sp 0 +
STACK CFI 46064 .cfa: sp 32 +
STACK CFI 4606c .cfa: x29 32 + x19: .cfa -16 + ^ .ra: .cfa -24 + ^ x29: .cfa -32 + ^
STACK CFI 46084 .cfa: sp 32 +
STACK CFI 4608c .cfa: sp 0 +
STACK CFI 46090 .cfa: x29 32 +
STACK CFI 460a4 .cfa: sp 32 +
STACK CFI 460ac .cfa: sp 0 +
STACK CFI INIT 460b0 1804 .cfa: sp 0 +
STACK CFI 460b4 .cfa: sp 144 +
STACK CFI 460d0 .cfa: x29 96 + x19: .cfa -8 + ^ x20: .cfa -16 + ^ x21: .cfa -24 + ^ x22: .cfa -32 + ^ x23: .cfa -40 + ^ x24: .cfa -48 + ^ x25: .cfa -56 + ^ x26: .cfa -64 + ^ x27: .cfa -72 + ^ x28: .cfa -80 + ^ .ra: .cfa -88 + ^ x29: .cfa -96 + ^
STACK CFI 4612c .cfa: sp 144 +
STACK CFI 46130 .cfa: x29 96 +
STACK CFI 46168 .cfa: sp 144 +
STACK CFI 4616c .cfa: x29 96 +
STACK CFI 464c8 .cfa: sp 144 +
STACK CFI 464cc .cfa: x29 96 +
STACK CFI 464fc .cfa: sp 144 +
STACK CFI 46500 .cfa: x29 96 +
STACK CFI 46678 .cfa: sp 144 +
STACK CFI 46694 .cfa: sp 0 +
STACK CFI 46698 .cfa: x29 96 +
STACK CFI 466a8 .cfa: sp 144 +
STACK CFI 466ac .cfa: x29 96 +
STACK CFI 467fc .cfa: sp 144 +
STACK CFI 46800 .cfa: x29 96 +
STACK CFI 4680c .cfa: sp 144 +
STACK CFI 46810 .cfa: x29 96 +
STACK CFI 46910 .cfa: sp 144 +
STACK CFI 46914 .cfa: x29 96 +
STACK CFI 47148 .cfa: sp 144 +
STACK CFI 4714c .cfa: x29 96 +
STACK CFI 47250 .cfa: sp 144 +
STACK CFI 47254 .cfa: x29 96 +
STACK CFI 473f8 .cfa: sp 144 +
STACK CFI 47414 .cfa: sp 0 +
STACK CFI 47418 .cfa: x29 96 +
STACK CFI 47850 .cfa: sp 144 +
STACK CFI 4786c .cfa: sp 0 +
STACK CFI 47870 .cfa: x29 96 +
STACK CFI INIT 478b4 64 .cfa: sp 0 +
STACK CFI 478b8 .cfa: sp 32 +
STACK CFI 478c0 .cfa: x29 32 + x19: .cfa -16 + ^ .ra: .cfa -24 + ^ x29: .cfa -32 + ^
STACK CFI 478ec .cfa: sp 32 +
STACK CFI 478f4 .cfa: sp 0 +
STACK CFI 478f8 .cfa: x29 32 +
STACK CFI 4790c .cfa: sp 32 +
STACK CFI 47914 .cfa: sp 0 +
STACK CFI INIT 47918 10 .cfa: sp 0 +
STACK CFI INIT 47928 30 .cfa: sp 0 +
STACK CFI 4792c .cfa: sp 32 +
STACK CFI 47934 .cfa: x29 32 + x19: .cfa -16 + ^ .ra: .cfa -24 + ^ x29: .cfa -32 + ^
STACK CFI 4794c .cfa: sp 32 +
STACK CFI 47954 .cfa: sp 0 +
STACK CFI INIT 47958 c .cfa: sp 0 +
STACK CFI INIT 47964 4 .cfa: sp 0 +
STACK CFI INIT 47968 8 .cfa: sp 0 +
STACK CFI INIT 47970 8 .cfa: sp 0 +
STACK CFI INIT 47978 4 .cfa: sp 0 +
STACK CFI INIT 4797c 4 .cfa: sp 0 +
STACK CFI INIT 28940 24 .cfa: sp 0 +
STACK CFI INIT 480cc 30 .cfa: sp 0 +
STACK CFI 480d0 .cfa: sp 32 +
STACK CFI 480d8 .cfa: x29 32 + x19: .cfa -16 + ^ .ra: .cfa -24 + ^ x29: .cfa -32 + ^
STACK CFI 480f0 .cfa: sp 32 +
STACK CFI 480f8 .cfa: sp 0 +
STACK CFI INIT 480fc 4c .cfa: sp 0 +
STACK CFI 48100 .cfa: sp 32 +
STACK CFI 48108 .cfa: x29 32 + x19: .cfa -8 + ^ x20: .cfa -16 + ^ .ra: .cfa -24 + ^ x29: .cfa -32 + ^
STACK CFI 48130 .cfa: sp 32 +
STACK CFI 48138 .cfa: sp 0 +
STACK CFI 4813c .cfa: sp 32 +
STACK CFI 48144 .cfa: sp 0 +
STACK CFI INIT 48368 64 .cfa: sp 0 +
STACK CFI 4836c .cfa: sp 32 +
STACK CFI 48374 .cfa: x29 32 + x19: .cfa -16 + ^ .ra: .cfa -24 + ^ x29: .cfa -32 + ^
STACK CFI 483a0 .cfa: sp 32 +
STACK CFI 483a8 .cfa: sp 0 +
STACK CFI 483ac .cfa: x29 32 +
STACK CFI 483c0 .cfa: sp 32 +
STACK CFI 483c8 .cfa: sp 0 +
STACK CFI INIT 483cc 24 .cfa: sp 0 +
STACK CFI 483d0 .cfa: sp 32 +
STACK CFI 483d8 .cfa: x29 32 + x19: .cfa -16 + ^ .ra: .cfa -24 + ^ x29: .cfa -32 + ^
STACK CFI 483e4 .cfa: sp 32 +
STACK CFI 483ec .cfa: sp 0 +
STACK CFI INIT 4864c 24 .cfa: sp 0 +
STACK CFI 48650 .cfa: sp 32 +
STACK CFI 48658 .cfa: x29 32 + x19: .cfa -16 + ^ .ra: .cfa -24 + ^ x29: .cfa -32 + ^
STACK CFI 48664 .cfa: sp 32 +
STACK CFI 4866c .cfa: sp 0 +
STACK CFI INIT 48670 8 .cfa: sp 0 +
STACK CFI INIT 48678 24 .cfa: sp 0 +
STACK CFI 4867c .cfa: sp 32 +
STACK CFI 48684 .cfa: x29 32 + x19: .cfa -16 + ^ .ra: .cfa -24 + ^ x29: .cfa -32 + ^
STACK CFI 48690 .cfa: sp 32 +
STACK CFI 48698 .cfa: sp 0 +
STACK CFI INIT 4869c 28 .cfa: sp 0 +
STACK CFI 486a0 .cfa: sp 32 +
STACK CFI 486a8 .cfa: x29 32 + x19: .cfa -16 + ^ .ra: .cfa -24 + ^ x29: .cfa -32 + ^
STACK CFI 486b8 .cfa: sp 32 +
STACK CFI 486c0 .cfa: sp 0 +
STACK CFI INIT 489cc 8 .cfa: sp 0 +
STACK CFI INIT 489d4 24 .cfa: sp 0 +
STACK CFI 489d8 .cfa: sp 32 +
STACK CFI 489e0 .cfa: x29 32 + x19: .cfa -16 + ^ .ra: .cfa -24 + ^ x29: .cfa -32 + ^
STACK CFI 489ec .cfa: sp 32 +
STACK CFI 489f4 .cfa: sp 0 +
STACK CFI INIT 489f8 28 .cfa: sp 0 +
STACK CFI 489fc .cfa: sp 32 +
STACK CFI 48a04 .cfa: x29 32 + x19: .cfa -16 + ^ .ra: .cfa -24 + ^ x29: .cfa -32 + ^
STACK CFI 48a14 .cfa: sp 32 +
STACK CFI 48a1c .cfa: sp 0 +
STACK CFI INIT 48c8c 8 .cfa: sp 0 +
STACK CFI INIT 48c94 24 .cfa: sp 0 +
STACK CFI 48c98 .cfa: sp 32 +
STACK CFI 48ca0 .cfa: x29 32 + x19: .cfa -16 + ^ .ra: .cfa -24 + ^ x29: .cfa -32 + ^
STACK CFI 48cac .cfa: sp 32 +
STACK CFI 48cb4 .cfa: sp 0 +
STACK CFI INIT 48cb8 28 .cfa: sp 0 +
STACK CFI 48cbc .cfa: sp 32 +
STACK CFI 48cc4 .cfa: x29 32 + x19: .cfa -16 + ^ .ra: .cfa -24 + ^ x29: .cfa -32 + ^
STACK CFI 48cd4 .cfa: sp 32 +
STACK CFI 48cdc .cfa: sp 0 +
STACK CFI INIT 48ce0 8 .cfa: sp 0 +
STACK CFI INIT 48ce8 24 .cfa: sp 0 +
STACK CFI 48cec .cfa: sp 32 +
STACK CFI 48cf4 .cfa: x29 32 + x19: .cfa -16 + ^ .ra: .cfa -24 + ^ x29: .cfa -32 + ^
STACK CFI 48d00 .cfa: sp 32 +
STACK CFI 48d08 .cfa: sp 0 +
STACK CFI INIT 48d0c 28 .cfa: sp 0 +
STACK CFI 48d10 .cfa: sp 32 +
STACK CFI 48d18 .cfa: x29 32 + x19: .cfa -16 + ^ .ra: .cfa -24 + ^ x29: .cfa -32 + ^
STACK CFI 48d28 .cfa: sp 32 +
STACK CFI 48d30 .cfa: sp 0 +
STACK CFI INIT 4a7d4 8 .cfa: sp 0 +
STACK CFI INIT 4a7dc 24 .cfa: sp 0 +
STACK CFI 4a7e0 .cfa: sp 32 +
STACK CFI 4a7e8 .cfa: x29 32 + x19: .cfa -16 + ^ .ra: .cfa -24 + ^ x29: .cfa -32 + ^
STACK CFI 4a7f4 .cfa: sp 32 +
STACK CFI 4a7fc .cfa: sp 0 +
STACK CFI INIT 4a800 28 .cfa: sp 0 +
STACK CFI 4a804 .cfa: sp 32 +
STACK CFI 4a80c .cfa: x29 32 + x19: .cfa -16 + ^ .ra: .cfa -24 + ^ x29: .cfa -32 + ^
STACK CFI 4a81c .cfa: sp 32 +
STACK CFI 4a824 .cfa: sp 0 +
STACK CFI INIT 4ae04 8 .cfa: sp 0 +
STACK CFI INIT 4b4dc 8 .cfa: sp 0 +
STACK CFI INIT 4b8f4 8 .cfa: sp 0 +
STACK CFI INIT 4bb50 4 .cfa: sp 0 +
STACK CFI INIT 4bb54 8 .cfa: sp 0 +
STACK CFI INIT 4bb5c 8 .cfa: sp 0 +
STACK CFI INIT 4bb64 4 .cfa: sp 0 +
STACK CFI INIT 4ccd0 8 .cfa: sp 0 +
STACK CFI INIT 4ccd8 24 .cfa: sp 0 +
STACK CFI 4ccdc .cfa: sp 32 +
STACK CFI 4cce4 .cfa: x29 32 + x19: .cfa -16 + ^ .ra: .cfa -24 + ^ x29: .cfa -32 + ^
STACK CFI 4ccf0 .cfa: sp 32 +
STACK CFI 4ccf8 .cfa: sp 0 +
STACK CFI INIT 4ccfc 28 .cfa: sp 0 +
STACK CFI 4cd00 .cfa: sp 32 +
STACK CFI 4cd08 .cfa: x29 32 + x19: .cfa -16 + ^ .ra: .cfa -24 + ^ x29: .cfa -32 + ^
STACK CFI 4cd18 .cfa: sp 32 +
STACK CFI 4cd20 .cfa: sp 0 +
STACK CFI INIT 4cf78 4 .cfa: sp 0 +
STACK CFI INIT 4e10c 4 .cfa: sp 0 +
STACK CFI INIT 4e110 14 .cfa: sp 0 +
STACK CFI INIT 26a10 1c .cfa: sp 0 +
STACK CFI 26a14 .cfa: sp 16 +
STACK CFI 26a18 .cfa: x29 16 + .ra: .cfa -8 + ^ x29: .cfa -16 + ^
STACK CFI 26a20 .cfa: sp 16 +
STACK CFI 26a24 .cfa: sp 0 +
STACK CFI 26a28 .cfa: x29 16 +
STACK CFI INIT 26a2c 7d8 .cfa: sp 0 +
STACK CFI 26a30 .cfa: sp 432 +
STACK CFI 26a4c .cfa: x29 96 + x19: .cfa -8 + ^ x20: .cfa -16 + ^ x21: .cfa -24 + ^ x22: .cfa -32 + ^ x23: .cfa -40 + ^ x24: .cfa -48 + ^ x25: .cfa -56 + ^ x26: .cfa -64 + ^ x27: .cfa -72 + ^ x28: .cfa -80 + ^ .ra: .cfa -88 + ^ x29: .cfa -96 + ^
STACK CFI 26ef4 .cfa: sp 432 +
STACK CFI 26f10 .cfa: sp 0 +
STACK CFI 26f14 .cfa: x29 96 +
STACK CFI INIT 27204 5f4 .cfa: sp 0 +
STACK CFI 27208 .cfa: sp 224 +
STACK CFI 27224 .cfa: x29 96 + x19: .cfa -8 + ^ x20: .cfa -16 + ^ x21: .cfa -24 + ^ x22: .cfa -32 + ^ x23: .cfa -40 + ^ x24: .cfa -48 + ^ x25: .cfa -56 + ^ x26: .cfa -64 + ^ x27: .cfa -72 + ^ x28: .cfa -80 + ^ .ra: .cfa -88 + ^ x29: .cfa -96 + ^
STACK CFI 2737c .cfa: sp 224 +
STACK CFI 27398 .cfa: sp 0 +
STACK CFI 2739c .cfa: x29 96 +
STACK CFI 276dc .cfa: sp 224 +
STACK CFI 276f8 .cfa: sp 0 +
STACK CFI 276fc .cfa: x29 96 +
STACK CFI INIT 27810 444 .cfa: sp 0 +
STACK CFI 27814 .cfa: sp 224 +
STACK CFI 27830 .cfa: x29 96 + x19: .cfa -8 + ^ x20: .cfa -16 + ^ x21: .cfa -24 + ^ x22: .cfa -32 + ^ x23: .cfa -40 + ^ x24: .cfa -48 + ^ x25: .cfa -56 + ^ x26: .cfa -64 + ^ x27: .cfa -72 + ^ x28: .cfa -80 + ^ .ra: .cfa -88 + ^ x29: .cfa -96 + ^
STACK CFI 27a64 .cfa: sp 224 +
STACK CFI 27a80 .cfa: sp 0 +
STACK CFI 27a84 .cfa: x29 96 +
STACK CFI 27b50 .cfa: sp 224 +
STACK CFI 27b6c .cfa: sp 0 +
STACK CFI 27b70 .cfa: x29 96 +
STACK CFI INIT 27c6c 444 .cfa: sp 0 +
STACK CFI 27c70 .cfa: sp 224 +
STACK CFI 27c8c .cfa: x29 96 + x19: .cfa -8 + ^ x20: .cfa -16 + ^ x21: .cfa -24 + ^ x22: .cfa -32 + ^ x23: .cfa -40 + ^ x24: .cfa -48 + ^ x25: .cfa -56 + ^ x26: .cfa -64 + ^ x27: .cfa -72 + ^ x28: .cfa -80 + ^ .ra: .cfa -88 + ^ x29: .cfa -96 + ^
STACK CFI 27ec0 .cfa: sp 224 +
STACK CFI 27edc .cfa: sp 0 +
STACK CFI 27ee0 .cfa: x29 96 +
STACK CFI 27fac .cfa: sp 224 +
STACK CFI 27fc8 .cfa: sp 0 +
STACK CFI 27fcc .cfa: x29 96 +
STACK CFI INIT 280c8 444 .cfa: sp 0 +
STACK CFI 280cc .cfa: sp 224 +
STACK CFI 280e8 .cfa: x29 96 + x19: .cfa -8 + ^ x20: .cfa -16 + ^ x21: .cfa -24 + ^ x22: .cfa -32 + ^ x23: .cfa -40 + ^ x24: .cfa -48 + ^ x25: .cfa -56 + ^ x26: .cfa -64 + ^ x27: .cfa -72 + ^ x28: .cfa -80 + ^ .ra: .cfa -88 + ^ x29: .cfa -96 + ^
STACK CFI 2831c .cfa: sp 224 +
STACK CFI 28338 .cfa: sp 0 +
STACK CFI 2833c .cfa: x29 96 +
STACK CFI 28408 .cfa: sp 224 +
STACK CFI 28424 .cfa: sp 0 +
STACK CFI 28428 .cfa: x29 96 +
STACK CFI INIT 28524 41c .cfa: sp 0 +
STACK CFI 28528 .cfa: sp 224 +
STACK CFI 28544 .cfa: x29 96 + x19: .cfa -8 + ^ x20: .cfa -16 + ^ x21: .cfa -24 + ^ x22: .cfa -32 + ^ x23: .cfa -40 + ^ x24: .cfa -48 + ^ x25: .cfa -56 + ^ x26: .cfa -64 + ^ x27: .cfa -72 + ^ x28: .cfa -80 + ^ .ra: .cfa -88 + ^ x29: .cfa -96 + ^
STACK CFI 2882c .cfa: sp 224 +
STACK CFI 28848 .cfa: sp 0 +
STACK CFI 2884c .cfa: x29 96 +
STACK CFI INIT 2897c 184 .cfa: sp 0 +
STACK CFI 28980 .cfa: sp 96 +
STACK CFI 2898c .cfa: x29 32 + x19: .cfa -8 + ^ x20: .cfa -16 + ^ .ra: .cfa -24 + ^ x29: .cfa -32 + ^
STACK CFI 28a80 .cfa: sp 96 +
STACK CFI 28a8c .cfa: sp 0 +
STACK CFI 28a90 .cfa: x29 32 +
STACK CFI INIT 28b84 50 .cfa: sp 0 +
STACK CFI 28b88 .cfa: sp 32 +
STACK CFI 28b90 .cfa: x29 32 + x19: .cfa -8 + ^ x20: .cfa -16 + ^ .ra: .cfa -24 + ^ x29: .cfa -32 + ^
STACK CFI INIT 28cd4 1c .cfa: sp 0 +
STACK CFI 28cd8 .cfa: sp 16 +
STACK CFI 28cdc .cfa: x29 16 + .ra: .cfa -8 + ^ x29: .cfa -16 + ^
STACK CFI 28ce4 .cfa: sp 16 +
STACK CFI 28ce8 .cfa: sp 0 +
STACK CFI 28cec .cfa: x29 16 +
STACK CFI INIT 28cf0 47c .cfa: sp 0 +
STACK CFI 28cf4 .cfa: sp 144 +
STACK CFI 28d10 .cfa: x29 96 + x19: .cfa -8 + ^ x20: .cfa -16 + ^ x21: .cfa -24 + ^ x22: .cfa -32 + ^ x23: .cfa -40 + ^ x24: .cfa -48 + ^ x25: .cfa -56 + ^ x26: .cfa -64 + ^ x27: .cfa -80 + ^ .ra: .cfa -88 + ^ x29: .cfa -96 + ^
STACK CFI 28d58 .cfa: sp 144 +
STACK CFI 28d74 .cfa: sp 0 +
STACK CFI 28d78 .cfa: x29 96 +
STACK CFI 290f8 .cfa: sp 144 +
STACK CFI 29114 .cfa: sp 0 +
STACK CFI 29118 .cfa: x29 96 +
STACK CFI INIT 2916c d8 .cfa: sp 0 +
STACK CFI 29170 .cfa: sp 48 +
STACK CFI 2917c .cfa: x29 48 + x19: .cfa -8 + ^ x20: .cfa -16 + ^ x21: .cfa -24 + ^ x22: .cfa -32 + ^ .ra: .cfa -40 + ^ x29: .cfa -48 + ^
STACK CFI 2921c .cfa: sp 48 +
STACK CFI 29228 .cfa: sp 0 +
STACK CFI 2922c .cfa: sp 48 +
STACK CFI 29238 .cfa: sp 0 +
STACK CFI 2923c .cfa: x29 48 +
STACK CFI INIT 29244 64 .cfa: sp 0 +
STACK CFI 29248 .cfa: sp 48 +
STACK CFI 29254 .cfa: x29 48 + x19: .cfa -8 + ^ x20: .cfa -16 + ^ x21: .cfa -32 + ^ .ra: .cfa -40 + ^ x29: .cfa -48 + ^
STACK CFI 29284 .cfa: sp 48 +
STACK CFI 29290 .cfa: sp 0 +
STACK CFI 29294 .cfa: sp 48 +
STACK CFI 292a0 .cfa: sp 0 +
STACK CFI 292a4 .cfa: x29 48 +
STACK CFI INIT 292bc 58 .cfa: sp 0 +
STACK CFI 292c0 .cfa: sp 32 +
STACK CFI 292c8 .cfa: x29 32 + x19: .cfa -8 + ^ x20: .cfa -16 + ^ .ra: .cfa -24 + ^ x29: .cfa -32 + ^
STACK CFI 292f8 .cfa: sp 32 +
STACK CFI 29300 .cfa: sp 0 +
STACK CFI 29304 .cfa: sp 32 +
STACK CFI 2930c .cfa: sp 0 +
STACK CFI 29310 .cfa: x29 32 +
STACK CFI INIT 29314 11c .cfa: sp 0 +
STACK CFI 29318 .cfa: sp 64 +
STACK CFI 29328 .cfa: x29 64 + x19: .cfa -8 + ^ x20: .cfa -16 + ^ x21: .cfa -24 + ^ x22: .cfa -32 + ^ x23: .cfa -48 + ^ .ra: .cfa -56 + ^ x29: .cfa -64 + ^
STACK CFI 29410 .cfa: sp 64 +
STACK CFI 29420 .cfa: sp 0 +
STACK CFI 29424 .cfa: x29 64 +
STACK CFI INIT 29430 60 .cfa: sp 0 +
STACK CFI 29434 .cfa: sp 32 +
STACK CFI 2943c .cfa: x29 32 + x19: .cfa -16 + ^ .ra: .cfa -24 + ^ x29: .cfa -32 + ^
STACK CFI 29474 .cfa: sp 32 +
STACK CFI 2947c .cfa: sp 0 +
STACK CFI 29480 .cfa: sp 32 +
STACK CFI 29488 .cfa: sp 0 +
STACK CFI 2948c .cfa: x29 32 +
STACK CFI INIT 2957c 100 .cfa: sp 0 +
STACK CFI 29580 .cfa: sp 48 +
STACK CFI 2958c .cfa: x29 48 + x19: .cfa -8 + ^ x20: .cfa -16 + ^ x21: .cfa -24 + ^ x22: .cfa -32 + ^ .ra: .cfa -40 + ^ x29: .cfa -48 + ^
STACK CFI 29650 .cfa: sp 48 +
STACK CFI 2965c .cfa: sp 0 +
STACK CFI 29660 .cfa: x29 48 +
STACK CFI INIT 2967c 144 .cfa: sp 0 +
STACK CFI 29680 .cfa: sp 96 +
STACK CFI 29698 .cfa: x29 96 + x19: .cfa -8 + ^ x20: .cfa -16 + ^ x21: .cfa -24 + ^ x22: .cfa -32 + ^ x23: .cfa -40 + ^ x24: .cfa -48 + ^ x25: .cfa -56 + ^ x26: .cfa -64 + ^ x27: .cfa -80 + ^ .ra: .cfa -88 + ^ x29: .cfa -96 + ^
STACK CFI 29788 .cfa: sp 96 +
STACK CFI 297a0 .cfa: sp 0 +
STACK CFI 297a4 .cfa: x29 96 +
STACK CFI INIT 29800 35c .cfa: sp 0 +
STACK CFI 29804 .cfa: sp 160 +
STACK CFI 29820 .cfa: x29 96 + x19: .cfa -8 + ^ x20: .cfa -16 + ^ x21: .cfa -24 + ^ x22: .cfa -32 + ^ x23: .cfa -40 + ^ x24: .cfa -48 + ^ x25: .cfa -56 + ^ x26: .cfa -64 + ^ x27: .cfa -72 + ^ x28: .cfa -80 + ^ .ra: .cfa -88 + ^ x29: .cfa -96 + ^
STACK CFI 29b00 .cfa: sp 160 +
STACK CFI 29b1c .cfa: sp 0 +
STACK CFI 29b20 .cfa: x29 96 +
STACK CFI INIT 29e94 3f4 .cfa: sp 0 +
STACK CFI 29e98 .cfa: sp 224 +
STACK CFI 29eac .cfa: x29 64 + x19: .cfa -8 + ^ x20: .cfa -16 + ^ x21: .cfa -24 + ^ x22: .cfa -32 + ^ x23: .cfa -48 + ^ .ra: .cfa -56 + ^ x29: .cfa -64 + ^
STACK CFI 2a16c .cfa: sp 224 +
STACK CFI 2a180 .cfa: sp 0 +
STACK CFI 2a184 .cfa: x29 64 +
STACK CFI INIT 2a2d8 74 .cfa: sp 0 +
STACK CFI 2a2dc .cfa: sp 48 +
STACK CFI 2a2e8 .cfa: x29 32 + x19: .cfa -8 + ^ x20: .cfa -16 + ^ .ra: .cfa -24 + ^ x29: .cfa -32 + ^
STACK CFI 2a334 .cfa: sp 48 +
STACK CFI 2a340 .cfa: sp 0 +
STACK CFI 2a344 .cfa: x29 32 +
STACK CFI INIT 2a5cc 154 .cfa: sp 0 +
STACK CFI 2a5d0 .cfa: sp 384 +
STACK CFI 2a5e4 .cfa: x29 64 + x19: .cfa -8 + ^ x20: .cfa -16 + ^ x21: .cfa -24 + ^ x22: .cfa -32 + ^ x23: .cfa -40 + ^ x28: .cfa -48 + ^ .ra: .cfa -56 + ^ x29: .cfa -64 + ^
STACK CFI 2a6c8 .cfa: sp 384 +
STACK CFI 2a6dc .cfa: sp 0 +
STACK CFI 2a6e0 .cfa: x29 64 +
STACK CFI INIT 2a754 124 .cfa: sp 0 +
STACK CFI 2a758 .cfa: sp 80 +
STACK CFI 2a76c .cfa: x29 80 + x19: .cfa -8 + ^ x20: .cfa -16 + ^ x21: .cfa -24 + ^ x22: .cfa -32 + ^ x23: .cfa -40 + ^ x24: .cfa -48 + ^ x25: .cfa -56 + ^ x26: .cfa -64 + ^ .ra: .cfa -72 + ^ x29: .cfa -80 + ^
STACK CFI 2a838 .cfa: sp 80 +
STACK CFI 2a84c .cfa: sp 0 +
STACK CFI 2a850 .cfa: x29 80 +
STACK CFI INIT 2a91c 198 .cfa: sp 0 +
STACK CFI 2a920 .cfa: sp 112 +
STACK CFI 2a938 .cfa: x29 80 + x19: .cfa -8 + ^ x20: .cfa -16 + ^ x21: .cfa -24 + ^ x22: .cfa -32 + ^ x23: .cfa -40 + ^ x24: .cfa -48 + ^ x25: .cfa -56 + ^ x26: .cfa -64 + ^ .ra: .cfa -72 + ^ x29: .cfa -80 + ^
STACK CFI 2aa28 .cfa: sp 112 +
STACK CFI 2aa40 .cfa: sp 0 +
STACK CFI 2aa44 .cfa: x29 80 +
STACK CFI INIT 2aab4 1b4 .cfa: sp 0 +
STACK CFI 2aab8 .cfa: sp 128 +
STACK CFI 2aad4 .cfa: x29 96 + x19: .cfa -8 + ^ x20: .cfa -16 + ^ x21: .cfa -24 + ^ x22: .cfa -32 + ^ x23: .cfa -40 + ^ x24: .cfa -48 + ^ x25: .cfa -56 + ^ x26: .cfa -64 + ^ x27: .cfa -80 + ^ .ra: .cfa -88 + ^ x29: .cfa -96 + ^
STACK CFI 2ac18 .cfa: sp 128 +
STACK CFI 2ac34 .cfa: sp 0 +
STACK CFI 2ac38 .cfa: x29 96 +
STACK CFI INIT 2ac68 15c .cfa: sp 0 +
STACK CFI 2ac6c .cfa: sp 80 +
STACK CFI 2ac80 .cfa: x29 80 + x19: .cfa -8 + ^ x20: .cfa -16 + ^ x21: .cfa -24 + ^ x22: .cfa -32 + ^ x23: .cfa -40 + ^ x24: .cfa -48 + ^ x25: .cfa -64 + ^ .ra: .cfa -72 + ^ x29: .cfa -80 + ^
STACK CFI 2ad90 .cfa: sp 80 +
STACK CFI 2ada4 .cfa: sp 0 +
STACK CFI 2ada8 .cfa: x29 80 +
STACK CFI INIT 2af0c 168 .cfa: sp 0 +
STACK CFI 2af10 .cfa: sp 384 +
STACK CFI 2af24 .cfa: x29 64 + x19: .cfa -8 + ^ x20: .cfa -16 + ^ x21: .cfa -24 + ^ x22: .cfa -32 + ^ x23: .cfa -40 + ^ x28: .cfa -48 + ^ .ra: .cfa -56 + ^ x29: .cfa -64 + ^
STACK CFI 2b01c .cfa: sp 384 +
STACK CFI 2b030 .cfa: sp 0 +
STACK CFI 2b034 .cfa: x29 64 +
STACK CFI INIT 2b08c 218 .cfa: sp 0 +
STACK CFI 2b090 .cfa: sp 128 +
STACK CFI 2b0a8 .cfa: x29 80 + x19: .cfa -8 + ^ x20: .cfa -16 + ^ x21: .cfa -24 + ^ x22: .cfa -32 + ^ x23: .cfa -40 + ^ x24: .cfa -48 + ^ x25: .cfa -64 + ^ .ra: .cfa -72 + ^ x29: .cfa -80 + ^
STACK CFI 2b238 .cfa: sp 128 +
STACK CFI 2b250 .cfa: sp 0 +
STACK CFI 2b254 .cfa: x29 80 +
STACK CFI INIT 2b808 2cc .cfa: sp 0 +
STACK CFI 2b80c .cfa: sp 128 +
STACK CFI 2b82c .cfa: x29 72 + x19: .cfa -8 + ^ x20: .cfa -16 + ^ x21: .cfa -24 + ^ x22: .cfa -32 + ^ x23: .cfa -40 + ^ x24: .cfa -48 + ^ x25: .cfa -56 + ^ .ra: .cfa -64 + ^ x29: .cfa -72 + ^ v8: .cfa -80 + ^ v9: .cfa -88 + ^ v10: .cfa -96 + ^
STACK CFI 2ba7c .cfa: sp 128 +
STACK CFI 2ba9c .cfa: sp 0 +
STACK CFI 2baa0 .cfa: x29 72 +
STACK CFI INIT 2bb9c ba4 .cfa: sp 0 +
STACK CFI 2bba0 .cfa: sp 96 +
STACK CFI 2bbb8 .cfa: x29 96 + x19: .cfa -8 + ^ x20: .cfa -16 + ^ x21: .cfa -24 + ^ x22: .cfa -32 + ^ x23: .cfa -40 + ^ x24: .cfa -48 + ^ x25: .cfa -56 + ^ x26: .cfa -64 + ^ x27: .cfa -72 + ^ x28: .cfa -80 + ^ .ra: .cfa -88 + ^ x29: .cfa -96 + ^
STACK CFI 2c1c8 .cfa: sp 96 +
STACK CFI 2c1e0 .cfa: sp 0 +
STACK CFI 2c1e4 .cfa: x29 96 +
STACK CFI INIT 2c740 110 .cfa: sp 0 +
STACK CFI 2c744 .cfa: sp 80 +
STACK CFI 2c758 .cfa: x29 80 + x19: .cfa -8 + ^ x20: .cfa -16 + ^ x21: .cfa -24 + ^ x22: .cfa -32 + ^ x23: .cfa -40 + ^ x24: .cfa -48 + ^ x25: .cfa -64 + ^ .ra: .cfa -72 + ^ x29: .cfa -80 + ^
STACK CFI 2c800 .cfa: sp 80 +
STACK CFI 2c814 .cfa: sp 0 +
STACK CFI 2c818 .cfa: x29 80 +
STACK CFI INIT 2c850 398 .cfa: sp 0 +
STACK CFI 2c854 .cfa: sp 400 +
STACK CFI 2c868 .cfa: x29 64 + x19: .cfa -8 + ^ x20: .cfa -16 + ^ x21: .cfa -24 + ^ x22: .cfa -32 + ^ x28: .cfa -48 + ^ .ra: .cfa -56 + ^ x29: .cfa -64 + ^
STACK CFI 2cabc .cfa: sp 400 +
STACK CFI 2cad0 .cfa: sp 0 +
STACK CFI 2cad4 .cfa: x29 64 +
STACK CFI INIT 2cc38 2ec .cfa: sp 0 +
STACK CFI 2cc3c .cfa: sp 128 +
STACK CFI 2cc58 .cfa: x29 96 + x19: .cfa -8 + ^ x20: .cfa -16 + ^ x21: .cfa -24 + ^ x22: .cfa -32 + ^ x23: .cfa -40 + ^ x24: .cfa -48 + ^ x25: .cfa -56 + ^ x26: .cfa -64 + ^ x27: .cfa -72 + ^ x28: .cfa -80 + ^ .ra: .cfa -88 + ^ x29: .cfa -96 + ^
STACK CFI 2cea4 .cfa: sp 128 +
STACK CFI 2cec0 .cfa: sp 0 +
STACK CFI 2cec4 .cfa: x29 96 +
STACK CFI INIT 2cf24 34ac .cfa: sp 0 +
STACK CFI 2cf28 .cfa: sp 112 +
STACK CFI 2cf44 .cfa: x29 96 + x19: .cfa -8 + ^ x20: .cfa -16 + ^ x21: .cfa -24 + ^ x22: .cfa -32 + ^ x23: .cfa -40 + ^ x24: .cfa -48 + ^ x25: .cfa -56 + ^ x26: .cfa -64 + ^ x27: .cfa -72 + ^ x28: .cfa -80 + ^ .ra: .cfa -88 + ^ x29: .cfa -96 + ^ v8: .cfa -112 + ^
STACK CFI 2f1e0 .cfa: sp 112 +
STACK CFI 2f1fc .cfa: sp 0 +
STACK CFI 2f200 .cfa: x29 96 +
STACK CFI INIT 303d0 98 .cfa: sp 0 +
STACK CFI 303d4 .cfa: sp 32 +
STACK CFI 303dc .cfa: x29 32 + x19: .cfa -16 + ^ .ra: .cfa -24 + ^ x29: .cfa -32 + ^
STACK CFI 3044c .cfa: sp 32 +
STACK CFI 30454 .cfa: sp 0 +
STACK CFI 30458 .cfa: sp 32 +
STACK CFI 30460 .cfa: sp 0 +
STACK CFI 30464 .cfa: x29 32 +
STACK CFI INIT 30468 34 .cfa: sp 0 +
STACK CFI 3046c .cfa: sp 16 +
STACK CFI 30470 .cfa: x29 16 + .ra: .cfa -8 + ^ x29: .cfa -16 + ^
STACK CFI 30490 .cfa: sp 16 +
STACK CFI 30494 .cfa: sp 0 +
STACK CFI 30498 .cfa: x29 16 +
STACK CFI INIT 3049c 60 .cfa: sp 0 +
STACK CFI 304a0 .cfa: sp 32 +
STACK CFI 304a8 .cfa: x29 32 + x19: .cfa -16 + ^ .ra: .cfa -24 + ^ x29: .cfa -32 + ^
STACK CFI 304ec .cfa: sp 32 +
STACK CFI 304f4 .cfa: sp 0 +
STACK CFI 304f8 .cfa: x29 32 +
STACK CFI INIT 304fc c08 .cfa: sp 0 +
STACK CFI 30500 .cfa: sp 96 +
STACK CFI 30518 .cfa: x29 80 + x19: .cfa -8 + ^ x20: .cfa -16 + ^ x21: .cfa -24 + ^ x22: .cfa -32 + ^ x23: .cfa -40 + ^ x24: .cfa -48 + ^ x25: .cfa -56 + ^ x26: .cfa -64 + ^ .ra: .cfa -72 + ^ x29: .cfa -80 + ^
STACK CFI 30710 .cfa: sp 96 +
STACK CFI 30728 .cfa: sp 0 +
STACK CFI 3072c .cfa: x29 80 +
STACK CFI INIT 314c8 100 .cfa: sp 0 +
STACK CFI 314cc .cfa: sp 96 +
STACK CFI 314e0 .cfa: x29 64 + x19: .cfa -8 + ^ x20: .cfa -16 + ^ x21: .cfa -24 + ^ x22: .cfa -32 + ^ x23: .cfa -48 + ^ .ra: .cfa -56 + ^ x29: .cfa -64 + ^
STACK CFI 3157c .cfa: sp 96 +
STACK CFI 31590 .cfa: sp 0 +
STACK CFI 31594 .cfa: x29 64 +
STACK CFI INIT 315c8 4dc .cfa: sp 0 +
STACK CFI 315cc .cfa: sp 240 +
STACK CFI 315e4 .cfa: x29 80 + x19: .cfa -8 + ^ x20: .cfa -16 + ^ x21: .cfa -24 + ^ x22: .cfa -32 + ^ x23: .cfa -40 + ^ x24: .cfa -48 + ^ x25: .cfa -56 + ^ x26: .cfa -64 + ^ .ra: .cfa -72 + ^ x29: .cfa -80 + ^
STACK CFI 31938 .cfa: sp 240 +
STACK CFI 31950 .cfa: sp 0 +
STACK CFI 31954 .cfa: x29 80 +
STACK CFI INIT 31aa4 46c .cfa: sp 0 +
STACK CFI 31aa8 .cfa: sp 128 +
STACK CFI 31abc .cfa: x29 64 + x19: .cfa -8 + ^ x20: .cfa -16 + ^ x21: .cfa -24 + ^ x22: .cfa -32 + ^ x23: .cfa -48 + ^ .ra: .cfa -56 + ^ x29: .cfa -64 + ^
STACK CFI 31e70 .cfa: sp 128 +
STACK CFI 31e84 .cfa: sp 0 +
STACK CFI 31e88 .cfa: x29 64 +
STACK CFI INIT 31f40 8c .cfa: sp 0 +
STACK CFI 31f44 .cfa: sp 32 +
STACK CFI 31f4c .cfa: x29 32 + x19: .cfa -16 + ^ .ra: .cfa -24 + ^ x29: .cfa -32 + ^
STACK CFI 31fb0 .cfa: sp 32 +
STACK CFI 31fb8 .cfa: sp 0 +
STACK CFI 31fbc .cfa: sp 32 +
STACK CFI 31fc4 .cfa: sp 0 +
STACK CFI 31fc8 .cfa: x29 32 +
STACK CFI INIT 32130 528 .cfa: sp 0 +
STACK CFI 32134 .cfa: sp 128 +
STACK CFI 32148 .cfa: x29 64 + x19: .cfa -8 + ^ x20: .cfa -16 + ^ x21: .cfa -24 + ^ x22: .cfa -32 + ^ x23: .cfa -48 + ^ .ra: .cfa -56 + ^ x29: .cfa -64 + ^
STACK CFI 3248c .cfa: sp 128 +
STACK CFI 324a0 .cfa: sp 0 +
STACK CFI 324a4 .cfa: x29 64 +
STACK CFI INIT 32658 24c .cfa: sp 0 +
STACK CFI 3265c .cfa: sp 112 +
STACK CFI 3266c .cfa: x29 48 + x19: .cfa -8 + ^ x20: .cfa -16 + ^ x21: .cfa -24 + ^ x22: .cfa -32 + ^ .ra: .cfa -40 + ^ x29: .cfa -48 + ^
STACK CFI 32808 .cfa: sp 112 +
STACK CFI 32818 .cfa: sp 0 +
STACK CFI 3281c .cfa: x29 48 +
STACK CFI INIT 328a4 18c .cfa: sp 0 +
STACK CFI 328a8 .cfa: sp 80 +
STACK CFI 328b8 .cfa: x29 48 + x19: .cfa -8 + ^ x20: .cfa -16 + ^ x21: .cfa -24 + ^ x22: .cfa -32 + ^ .ra: .cfa -40 + ^ x29: .cfa -48 + ^
STACK CFI 329fc .cfa: sp 80 +
STACK CFI 32a0c .cfa: sp 0 +
STACK CFI 32a10 .cfa: x29 48 +
STACK CFI INIT 32a80 1e0 .cfa: sp 0 +
STACK CFI 32a84 .cfa: sp 160 +
STACK CFI 32a94 .cfa: x29 48 + x19: .cfa -8 + ^ x20: .cfa -16 + ^ x21: .cfa -32 + ^ .ra: .cfa -40 + ^ x29: .cfa -48 + ^
STACK CFI 32ba0 .cfa: sp 160 +
STACK CFI 32bb0 .cfa: sp 0 +
STACK CFI 32bb4 .cfa: x29 48 +
STACK CFI INIT 32c60 c4 .cfa: sp 0 +
STACK CFI 32c64 .cfa: sp 48 +
STACK CFI 32c70 .cfa: x29 48 + x19: .cfa -8 + ^ x20: .cfa -16 + ^ x21: .cfa -32 + ^ .ra: .cfa -40 + ^ x29: .cfa -48 + ^
STACK CFI 32cf8 .cfa: sp 48 +
STACK CFI 32d04 .cfa: sp 0 +
STACK CFI 32d08 .cfa: x29 48 +
STACK CFI INIT 32d24 1e8 .cfa: sp 0 +
STACK CFI 32d28 .cfa: sp 112 +
STACK CFI 32d38 .cfa: x29 48 + x19: .cfa -8 + ^ x20: .cfa -16 + ^ x21: .cfa -24 + ^ x22: .cfa -32 + ^ .ra: .cfa -40 + ^ x29: .cfa -48 + ^
STACK CFI 32ec4 .cfa: sp 112 +
STACK CFI 32ed4 .cfa: sp 0 +
STACK CFI 32ed8 .cfa: x29 48 +
STACK CFI INIT 32f64 11c .cfa: sp 0 +
STACK CFI 32f68 .cfa: sp 64 +
STACK CFI 32f78 .cfa: x29 64 + x19: .cfa -8 + ^ x20: .cfa -16 + ^ x21: .cfa -24 + ^ x22: .cfa -32 + ^ x23: .cfa -48 + ^ .ra: .cfa -56 + ^ x29: .cfa -64 + ^
STACK CFI 33060 .cfa: sp 64 +
STACK CFI 33070 .cfa: sp 0 +
STACK CFI 33074 .cfa: x29 64 +
STACK CFI INIT 330cc 4ac .cfa: sp 0 +
STACK CFI 330d0 .cfa: sp 176 +
STACK CFI 330ec .cfa: x29 96 + x19: .cfa -8 + ^ x20: .cfa -16 + ^ x21: .cfa -24 + ^ x22: .cfa -32 + ^ x23: .cfa -40 + ^ x24: .cfa -48 + ^ x25: .cfa -56 + ^ x26: .cfa -64 + ^ x27: .cfa -72 + ^ x28: .cfa -80 + ^ .ra: .cfa -88 + ^ x29: .cfa -96 + ^
STACK CFI 33270 .cfa: sp 176 +
STACK CFI 3328c .cfa: sp 0 +
STACK CFI 33290 .cfa: x29 96 +
STACK CFI INIT 33578 5c .cfa: sp 0 +
STACK CFI 3357c .cfa: sp 32 +
STACK CFI 33584 .cfa: x29 32 + x19: .cfa -16 + ^ .ra: .cfa -24 + ^ x29: .cfa -32 + ^
STACK CFI 335b8 .cfa: sp 32 +
STACK CFI 335c0 .cfa: sp 0 +
STACK CFI 335c4 .cfa: sp 32 +
STACK CFI 335cc .cfa: sp 0 +
STACK CFI 335d0 .cfa: x29 32 +
STACK CFI INIT 336d8 74 .cfa: sp 0 +
STACK CFI 336dc .cfa: sp 48 +
STACK CFI 336e8 .cfa: x29 48 + x19: .cfa -8 + ^ x20: .cfa -16 + ^ x21: .cfa -24 + ^ x22: .cfa -32 + ^ .ra: .cfa -40 + ^ x29: .cfa -48 + ^
STACK CFI 336f0 .cfa: sp 48 +
STACK CFI 336fc .cfa: sp 0 +
STACK CFI 33700 .cfa: x29 48 +
STACK CFI 33738 .cfa: sp 48 +
STACK CFI 33744 .cfa: sp 0 +
STACK CFI 33748 .cfa: x29 48 +
STACK CFI INIT 3374c 48 .cfa: sp 0 +
STACK CFI 33750 .cfa: sp 32 +
STACK CFI 33758 .cfa: x29 32 + x19: .cfa -8 + ^ x20: .cfa -16 + ^ .ra: .cfa -24 + ^ x29: .cfa -32 + ^
STACK CFI 33760 .cfa: sp 32 +
STACK CFI 33768 .cfa: sp 0 +
STACK CFI 3376c .cfa: x29 32 +
STACK CFI INIT 337a8 1d0 .cfa: sp 0 +
STACK CFI 337ac .cfa: sp 160 +
STACK CFI 337bc .cfa: x29 48 + x19: .cfa -8 + ^ x20: .cfa -16 + ^ x21: .cfa -24 + ^ x22: .cfa -32 + ^ .ra: .cfa -40 + ^ x29: .cfa -48 + ^
STACK CFI 338b8 .cfa: sp 160 +
STACK CFI 338c8 .cfa: sp 0 +
STACK CFI 338cc .cfa: x29 48 +
STACK CFI INIT 339b0 1d8 .cfa: sp 0 +
STACK CFI 339b4 .cfa: sp 160 +
STACK CFI 339c4 .cfa: x29 48 + x19: .cfa -8 + ^ x20: .cfa -16 + ^ x21: .cfa -24 + ^ x22: .cfa -32 + ^ .ra: .cfa -40 + ^ x29: .cfa -48 + ^
STACK CFI 33ac8 .cfa: sp 160 +
STACK CFI 33ad8 .cfa: sp 0 +
STACK CFI 33adc .cfa: x29 48 +
STACK CFI INIT 33b88 a8 .cfa: sp 0 +
STACK CFI 33b8c .cfa: sp 48 +
STACK CFI 33b98 .cfa: x29 48 + x19: .cfa -8 + ^ x20: .cfa -16 + ^ x21: .cfa -32 + ^ .ra: .cfa -40 + ^ x29: .cfa -48 + ^
STACK CFI 33c04 .cfa: sp 48 +
STACK CFI 33c10 .cfa: sp 0 +
STACK CFI 33c14 .cfa: x29 48 +
STACK CFI INIT 33c94 120 .cfa: sp 0 +
STACK CFI 33c98 .cfa: sp 112 +
STACK CFI 33cac .cfa: x29 64 + x19: .cfa -8 + ^ x20: .cfa -16 + ^ x21: .cfa -24 + ^ x22: .cfa -32 + ^ x23: .cfa -40 + ^ x24: .cfa -48 + ^ .ra: .cfa -56 + ^ x29: .cfa -64 + ^
STACK CFI 33d74 .cfa: sp 112 +
STACK CFI 33d88 .cfa: sp 0 +
STACK CFI 33d8c .cfa: x29 64 +
STACK CFI INIT 33dfc 1fc .cfa: sp 0 +
STACK CFI 33e00 .cfa: sp 96 +
STACK CFI 33e0c .cfa: x29 32 + x19: .cfa -8 + ^ x20: .cfa -16 + ^ .ra: .cfa -24 + ^ x29: .cfa -32 + ^
STACK CFI 33fa0 .cfa: sp 96 +
STACK CFI 33fac .cfa: sp 0 +
STACK CFI 33fb0 .cfa: x29 32 +
STACK CFI INIT 34178 2b4 .cfa: sp 0 +
STACK CFI 3417c .cfa: sp 144 +
STACK CFI 34190 .cfa: x29 64 + x19: .cfa -8 + ^ x20: .cfa -16 + ^ x21: .cfa -24 + ^ x22: .cfa -32 + ^ x23: .cfa -40 + ^ x24: .cfa -48 + ^ .ra: .cfa -56 + ^ x29: .cfa -64 + ^
STACK CFI 343ac .cfa: sp 144 +
STACK CFI 343c0 .cfa: sp 0 +
STACK CFI 343c4 .cfa: x29 64 +
STACK CFI INIT 3442c 218 .cfa: sp 0 +
STACK CFI 34430 .cfa: sp 128 +
STACK CFI 34448 .cfa: x29 80 + x19: .cfa -8 + ^ x20: .cfa -16 + ^ x21: .cfa -24 + ^ x22: .cfa -32 + ^ x23: .cfa -40 + ^ x24: .cfa -48 + ^ x25: .cfa -64 + ^ .ra: .cfa -72 + ^ x29: .cfa -80 + ^
STACK CFI 345f0 .cfa: sp 128 +
STACK CFI 34608 .cfa: sp 0 +
STACK CFI 3460c .cfa: x29 80 +
STACK CFI INIT 34674 790 .cfa: sp 0 +
STACK CFI 34678 .cfa: sp 272 +
STACK CFI 34698 .cfa: x29 96 + x19: .cfa -8 + ^ x20: .cfa -16 + ^ x21: .cfa -24 + ^ x22: .cfa -32 + ^ x23: .cfa -40 + ^ x24: .cfa -48 + ^ x25: .cfa -56 + ^ x26: .cfa -64 + ^ x27: .cfa -72 + ^ x28: .cfa -80 + ^ .ra: .cfa -88 + ^ x29: .cfa -96 + ^ v8: .cfa -104 + ^ v9: .cfa -112 + ^
STACK CFI 34d4c .cfa: sp 272 +
STACK CFI 34d6c .cfa: sp 0 +
STACK CFI 34d70 .cfa: x29 96 +
STACK CFI INIT 34ec8 3a4 .cfa: sp 0 +
STACK CFI 34ecc .cfa: sp 192 +
STACK CFI 34ee0 .cfa: x29 64 + x19: .cfa -8 + ^ x20: .cfa -16 + ^ x21: .cfa -24 + ^ x22: .cfa -32 + ^ x23: .cfa -40 + ^ x24: .cfa -48 + ^ .ra: .cfa -56 + ^ x29: .cfa -64 + ^
STACK CFI 3515c .cfa: sp 192 +
STACK CFI 35170 .cfa: sp 0 +
STACK CFI 35174 .cfa: x29 64 +
STACK CFI INIT 35270 1dc .cfa: sp 0 +
STACK CFI 35274 .cfa: sp 128 +
STACK CFI 3528c .cfa: x29 64 + x19: .cfa -8 + ^ x20: .cfa -16 + ^ x21: .cfa -24 + ^ x22: .cfa -32 + ^ x23: .cfa -40 + ^ x24: .cfa -48 + ^ .ra: .cfa -56 + ^ x29: .cfa -64 + ^ v8: .cfa -80 + ^
STACK CFI 35400 .cfa: sp 128 +
STACK CFI 35418 .cfa: sp 0 +
STACK CFI 3541c .cfa: x29 64 +
STACK CFI INIT 3544c 2a0 .cfa: sp 0 +
STACK CFI 35450 .cfa: sp 160 +
STACK CFI 35464 .cfa: x29 64 + x19: .cfa -8 + ^ x20: .cfa -16 + ^ x21: .cfa -24 + ^ x22: .cfa -32 + ^ x23: .cfa -48 + ^ .ra: .cfa -56 + ^ x29: .cfa -64 + ^
STACK CFI 35640 .cfa: sp 160 +
STACK CFI 35654 .cfa: sp 0 +
STACK CFI 35658 .cfa: x29 64 +
STACK CFI INIT 356ec 764 .cfa: sp 0 +
STACK CFI 356f0 .cfa: sp 80 +
STACK CFI 35704 .cfa: x29 80 + x19: .cfa -8 + ^ x20: .cfa -16 + ^ x21: .cfa -24 + ^ x22: .cfa -32 + ^ x23: .cfa -40 + ^ x24: .cfa -48 + ^ x25: .cfa -56 + ^ x28: .cfa -64 + ^ .ra: .cfa -72 + ^ x29: .cfa -80 + ^
STACK CFI 35dd4 .cfa: sp 80 +
STACK CFI 35de8 .cfa: sp 0 +
STACK CFI 35dec .cfa: x29 80 +
STACK CFI INIT 36010 3b0 .cfa: sp 0 +
STACK CFI 36014 .cfa: sp 208 +
STACK CFI 36028 .cfa: x29 64 + x19: .cfa -8 + ^ x20: .cfa -16 + ^ x21: .cfa -24 + ^ x22: .cfa -32 + ^ x23: .cfa -48 + ^ .ra: .cfa -56 + ^ x29: .cfa -64 + ^
STACK CFI 362b0 .cfa: sp 208 +
STACK CFI 362c4 .cfa: sp 0 +
STACK CFI 362c8 .cfa: x29 64 +
STACK CFI INIT 36500 f4 .cfa: sp 0 +
STACK CFI 36504 .cfa: sp 64 +
STACK CFI 36510 .cfa: x29 32 + x19: .cfa -8 + ^ x20: .cfa -16 + ^ .ra: .cfa -24 + ^ x29: .cfa -32 + ^
STACK CFI 365ac .cfa: sp 64 +
STACK CFI 365b8 .cfa: sp 0 +
STACK CFI 365bc .cfa: x29 32 +
STACK CFI INIT 365f4 ba0 .cfa: sp 0 +
STACK CFI 365f8 .cfa: sp 272 +
STACK CFI 36614 .cfa: x29 96 + x19: .cfa -8 + ^ x20: .cfa -16 + ^ x21: .cfa -24 + ^ x22: .cfa -32 + ^ x23: .cfa -40 + ^ x24: .cfa -48 + ^ x25: .cfa -56 + ^ x26: .cfa -64 + ^ x27: .cfa -72 + ^ x28: .cfa -80 + ^ .ra: .cfa -88 + ^ x29: .cfa -96 + ^
STACK CFI 36ec4 .cfa: sp 272 +
STACK CFI 36ee0 .cfa: sp 0 +
STACK CFI 36ee4 .cfa: x29 96 +
STACK CFI INIT 37198 b8 .cfa: sp 0 +
STACK CFI 3719c .cfa: sp 32 +
STACK CFI 371a4 .cfa: x29 32 + x19: .cfa -8 + ^ x20: .cfa -16 + ^ .ra: .cfa -24 + ^ x29: .cfa -32 + ^
STACK CFI 371d8 .cfa: sp 32 +
STACK CFI 371e0 .cfa: sp 0 +
STACK CFI 371e4 .cfa: x29 32 +
STACK CFI 371e8 .cfa: sp 32 +
STACK CFI 371f0 .cfa: sp 0 +
STACK CFI 371f4 .cfa: x29 32 +
STACK CFI INIT 37250 13c8 .cfa: sp 0 +
STACK CFI 37254 .cfa: sp 368 +
STACK CFI 3727c .cfa: x29 96 + x19: .cfa -8 + ^ x20: .cfa -16 + ^ x21: .cfa -24 + ^ x22: .cfa -32 + ^ x23: .cfa -40 + ^ x24: .cfa -48 + ^ x25: .cfa -56 + ^ x26: .cfa -64 + ^ x27: .cfa -72 + ^ x28: .cfa -80 + ^ .ra: .cfa -88 + ^ x29: .cfa -96 + ^ v8: .cfa -104 + ^ v9: .cfa -112 + ^ v10: .cfa -120 + ^ v11: .cfa -128 + ^ v12: .cfa -144 + ^
STACK CFI 37bfc .cfa: sp 368 +
STACK CFI 37c24 .cfa: sp 0 +
STACK CFI 37c28 .cfa: x29 96 +
STACK CFI 382ec .cfa: sp 368 +
STACK CFI 38314 .cfa: sp 0 +
STACK CFI 38318 .cfa: x29 96 +
STACK CFI INIT 38618 e8c .cfa: sp 0 +
STACK CFI 3861c .cfa: sp 96 +
STACK CFI 38634 .cfa: x29 96 + x19: .cfa -8 + ^ x20: .cfa -16 + ^ x21: .cfa -24 + ^ x22: .cfa -32 + ^ x23: .cfa -40 + ^ x24: .cfa -48 + ^ x25: .cfa -56 + ^ x26: .cfa -64 + ^ x27: .cfa -72 + ^ x28: .cfa -80 + ^ .ra: .cfa -88 + ^ x29: .cfa -96 + ^
STACK CFI 39194 .cfa: sp 96 +
STACK CFI 391ac .cfa: sp 0 +
STACK CFI 391b0 .cfa: x29 96 +
STACK CFI INIT 394a4 134 .cfa: sp 0 +
STACK CFI 394a8 .cfa: sp 128 +
STACK CFI 394bc .cfa: x29 64 + x19: .cfa -8 + ^ x20: .cfa -16 + ^ x21: .cfa -24 + ^ x22: .cfa -32 + ^ x23: .cfa -40 + ^ x24: .cfa -48 + ^ .ra: .cfa -56 + ^ x29: .cfa -64 + ^
STACK CFI 39588 .cfa: sp 128 +
STACK CFI 3959c .cfa: sp 0 +
STACK CFI 395a0 .cfa: x29 64 +
STACK CFI INIT 395d8 b2c .cfa: sp 0 +
STACK CFI 395dc .cfa: sp 320 +
STACK CFI 39604 .cfa: x29 96 + x19: .cfa -8 + ^ x20: .cfa -16 + ^ x21: .cfa -24 + ^ x22: .cfa -32 + ^ x23: .cfa -40 + ^ x24: .cfa -48 + ^ x25: .cfa -56 + ^ x26: .cfa -64 + ^ x27: .cfa -72 + ^ x28: .cfa -80 + ^ .ra: .cfa -88 + ^ x29: .cfa -96 + ^ v8: .cfa -104 + ^ v9: .cfa -112 + ^ v10: .cfa -120 + ^ v11: .cfa -128 + ^ v12: .cfa -136 + ^ v13: .cfa -144 + ^
STACK CFI 39f74 .cfa: sp 320 +
STACK CFI 39f9c .cfa: sp 0 +
STACK CFI 39fa0 .cfa: x29 96 +
STACK CFI INIT 3a2d8 788 .cfa: sp 0 +
STACK CFI 3a2dc .cfa: sp 80 +
STACK CFI 3a2f0 .cfa: x29 80 + x19: .cfa -8 + ^ x20: .cfa -16 + ^ x21: .cfa -24 + ^ x22: .cfa -32 + ^ x23: .cfa -40 + ^ x24: .cfa -48 + ^ x25: .cfa -56 + ^ x26: .cfa -64 + ^ .ra: .cfa -72 + ^ x29: .cfa -80 + ^
STACK CFI 3a778 .cfa: sp 80 +
STACK CFI 3a78c .cfa: sp 0 +
STACK CFI 3a790 .cfa: x29 80 +
STACK CFI INIT 3aa60 550 .cfa: sp 0 +
STACK CFI 3aa64 .cfa: sp 96 +
STACK CFI 3aa78 .cfa: x29 64 + x19: .cfa -8 + ^ x20: .cfa -16 + ^ x21: .cfa -24 + ^ x22: .cfa -32 + ^ x23: .cfa -48 + ^ .ra: .cfa -56 + ^ x29: .cfa -64 + ^
STACK CFI 3ae18 .cfa: sp 96 +
STACK CFI 3ae2c .cfa: sp 0 +
STACK CFI 3ae30 .cfa: x29 64 +
STACK CFI INIT 3b124 1c .cfa: sp 0 +
STACK CFI 3b128 .cfa: sp 16 +
STACK CFI 3b12c .cfa: x29 16 + .ra: .cfa -8 + ^ x29: .cfa -16 + ^
STACK CFI 3b134 .cfa: sp 16 +
STACK CFI 3b138 .cfa: sp 0 +
STACK CFI 3b13c .cfa: x29 16 +
STACK CFI INIT 3b44c 440 .cfa: sp 0 +
STACK CFI 3b450 .cfa: sp 48 +
STACK CFI 3b45c .cfa: x29 48 + x19: .cfa -8 + ^ x20: .cfa -16 + ^ x21: .cfa -24 + ^ x22: .cfa -32 + ^ .ra: .cfa -40 + ^ x29: .cfa -48 + ^
STACK CFI 3b804 .cfa: sp 48 +
STACK CFI 3b810 .cfa: sp 0 +
STACK CFI 3b814 .cfa: x29 48 +
STACK CFI 3b864 .cfa: sp 48 +
STACK CFI 3b870 .cfa: sp 0 +
STACK CFI 3b874 .cfa: x29 48 +
STACK CFI INIT 3b904 1c .cfa: sp 0 +
STACK CFI 3b908 .cfa: sp 16 +
STACK CFI 3b90c .cfa: x29 16 + .ra: .cfa -8 + ^ x29: .cfa -16 + ^
STACK CFI 3b914 .cfa: sp 16 +
STACK CFI 3b918 .cfa: sp 0 +
STACK CFI 3b91c .cfa: x29 16 +
STACK CFI INIT 3b9b0 98 .cfa: sp 0 +
STACK CFI 3b9b4 .cfa: sp 48 +
STACK CFI 3b9c0 .cfa: x29 48 + x19: .cfa -8 + ^ x20: .cfa -16 + ^ x21: .cfa -32 + ^ .ra: .cfa -40 + ^ x29: .cfa -48 + ^
STACK CFI 3ba20 .cfa: sp 48 +
STACK CFI 3ba2c .cfa: sp 0 +
STACK CFI 3ba30 .cfa: sp 48 +
STACK CFI 3ba3c .cfa: sp 0 +
STACK CFI 3ba40 .cfa: x29 48 +
STACK CFI INIT 3ba48 60 .cfa: sp 0 +
STACK CFI 3ba4c .cfa: sp 32 +
STACK CFI 3ba54 .cfa: x29 32 + x19: .cfa -8 + ^ x20: .cfa -16 + ^ .ra: .cfa -24 + ^ x29: .cfa -32 + ^
STACK CFI 3ba8c .cfa: sp 32 +
STACK CFI 3ba94 .cfa: sp 0 +
STACK CFI 3ba98 .cfa: sp 32 +
STACK CFI 3baa0 .cfa: sp 0 +
STACK CFI 3baa4 .cfa: x29 32 +
STACK CFI INIT 3baa8 1c .cfa: sp 0 +
STACK CFI 3baac .cfa: sp 16 +
STACK CFI 3bab0 .cfa: x29 16 + .ra: .cfa -8 + ^ x29: .cfa -16 + ^
STACK CFI 3bab8 .cfa: sp 16 +
STACK CFI 3babc .cfa: sp 0 +
STACK CFI 3bac0 .cfa: x29 16 +
STACK CFI INIT 3bac4 1c .cfa: sp 0 +
STACK CFI 3bac8 .cfa: sp 16 +
STACK CFI 3bacc .cfa: x29 16 + .ra: .cfa -8 + ^ x29: .cfa -16 + ^
STACK CFI 3bad4 .cfa: sp 16 +
STACK CFI 3bad8 .cfa: sp 0 +
STACK CFI 3badc .cfa: x29 16 +
STACK CFI INIT 3bcc0 1cc .cfa: sp 0 +
STACK CFI 3bcc4 .cfa: sp 160 +
STACK CFI 3bcdc .cfa: x29 80 + x19: .cfa -8 + ^ x20: .cfa -16 + ^ x21: .cfa -24 + ^ x22: .cfa -32 + ^ x23: .cfa -40 + ^ x24: .cfa -48 + ^ x25: .cfa -56 + ^ x26: .cfa -64 + ^ .ra: .cfa -72 + ^ x29: .cfa -80 + ^
STACK CFI 3be38 .cfa: sp 160 +
STACK CFI 3be50 .cfa: sp 0 +
STACK CFI 3be54 .cfa: x29 80 +
STACK CFI INIT 3c1dc 194 .cfa: sp 0 +
STACK CFI 3c1e0 .cfa: sp 64 +
STACK CFI 3c1f0 .cfa: x29 64 + x19: .cfa -8 + ^ x20: .cfa -16 + ^ x21: .cfa -24 + ^ x22: .cfa -32 + ^ x23: .cfa -48 + ^ .ra: .cfa -56 + ^ x29: .cfa -64 + ^
STACK CFI 3c2b4 .cfa: sp 64 +
STACK CFI 3c2c4 .cfa: sp 0 +
STACK CFI 3c2c8 .cfa: x29 64 +
STACK CFI INIT 3c938 88 .cfa: sp 0 +
STACK CFI 3c93c .cfa: sp 48 +
STACK CFI 3c948 .cfa: x29 48 + x19: .cfa -8 + ^ x20: .cfa -16 + ^ x21: .cfa -24 + ^ x22: .cfa -32 + ^ .ra: .cfa -40 + ^ x29: .cfa -48 + ^
STACK CFI 3c9ac .cfa: sp 48 +
STACK CFI 3c9b8 .cfa: sp 0 +
STACK CFI 3c9bc .cfa: x29 48 +
STACK CFI INIT 3cb00 1e8 .cfa: sp 0 +
STACK CFI 3cb04 .cfa: sp 112 +
STACK CFI 3cb14 .cfa: x29 48 + x19: .cfa -8 + ^ x20: .cfa -16 + ^ x21: .cfa -24 + ^ x22: .cfa -32 + ^ .ra: .cfa -40 + ^ x29: .cfa -48 + ^
STACK CFI 3cc20 .cfa: sp 112 +
STACK CFI 3cc30 .cfa: sp 0 +
STACK CFI 3cc34 .cfa: x29 48 +
STACK CFI INIT 3cce8 2c8 .cfa: sp 0 +
STACK CFI 3ccec .cfa: sp 128 +
STACK CFI 3cd04 .cfa: x29 80 + x19: .cfa -8 + ^ x20: .cfa -16 + ^ x21: .cfa -24 + ^ x22: .cfa -32 + ^ x23: .cfa -40 + ^ x24: .cfa -48 + ^ x25: .cfa -64 + ^ .ra: .cfa -72 + ^ x29: .cfa -80 + ^
STACK CFI 3cd88 .cfa: sp 128 +
STACK CFI 3cda0 .cfa: sp 0 +
STACK CFI 3cda4 .cfa: x29 80 +
STACK CFI INIT 3cfb0 660 .cfa: sp 0 +
STACK CFI 3cfb4 .cfa: sp 224 +
STACK CFI 3cfd0 .cfa: x29 96 + x19: .cfa -8 + ^ x20: .cfa -16 + ^ x21: .cfa -24 + ^ x22: .cfa -32 + ^ x23: .cfa -40 + ^ x24: .cfa -48 + ^ x25: .cfa -56 + ^ x26: .cfa -64 + ^ x27: .cfa -72 + ^ x28: .cfa -80 + ^ .ra: .cfa -88 + ^ x29: .cfa -96 + ^
STACK CFI 3d4a0 .cfa: sp 224 +
STACK CFI 3d4bc .cfa: sp 0 +
STACK CFI 3d4c0 .cfa: x29 96 +
STACK CFI INIT 3d7d0 50 .cfa: sp 0 +
STACK CFI 3d7d4 .cfa: sp 32 +
STACK CFI 3d7dc .cfa: x29 32 + x19: .cfa -8 + ^ x20: .cfa -16 + ^ .ra: .cfa -24 + ^ x29: .cfa -32 + ^
STACK CFI INIT 3d9bc 160 .cfa: sp 0 +
STACK CFI 3d9c0 .cfa: sp 144 +
STACK CFI 3d9d4 .cfa: x29 64 + x19: .cfa -8 + ^ x20: .cfa -16 + ^ x21: .cfa -24 + ^ x22: .cfa -32 + ^ x23: .cfa -40 + ^ x24: .cfa -48 + ^ .ra: .cfa -56 + ^ x29: .cfa -64 + ^
STACK CFI 3dab4 .cfa: sp 144 +
STACK CFI 3dac8 .cfa: sp 0 +
STACK CFI 3dacc .cfa: x29 64 +
STACK CFI INIT 3dc0c 1a0 .cfa: sp 0 +
STACK CFI 3dc10 .cfa: sp 112 +
STACK CFI 3dc2c .cfa: x29 96 + x19: .cfa -8 + ^ x20: .cfa -16 + ^ x21: .cfa -24 + ^ x22: .cfa -32 + ^ x23: .cfa -40 + ^ x24: .cfa -48 + ^ x25: .cfa -56 + ^ x26: .cfa -64 + ^ x27: .cfa -72 + ^ x28: .cfa -80 + ^ .ra: .cfa -88 + ^ x29: .cfa -96 + ^
STACK CFI 3dd3c .cfa: sp 112 +
STACK CFI 3dd58 .cfa: sp 0 +
STACK CFI 3dd5c .cfa: x29 96 +
STACK CFI INIT 3e150 2e0 .cfa: sp 0 +
STACK CFI 3e154 .cfa: sp 400 +
STACK CFI 3e164 .cfa: x29 48 + x19: .cfa -8 + ^ x20: .cfa -16 + ^ x21: .cfa -24 + ^ x28: .cfa -32 + ^ .ra: .cfa -40 + ^ x29: .cfa -48 + ^
STACK CFI 3e3f4 .cfa: sp 400 +
STACK CFI 3e404 .cfa: sp 0 +
STACK CFI 3e408 .cfa: x29 48 +
STACK CFI INIT 3e430 6bc .cfa: sp 0 +
STACK CFI 3e434 .cfa: sp 144 +
STACK CFI 3e450 .cfa: x29 96 + x19: .cfa -8 + ^ x20: .cfa -16 + ^ x21: .cfa -24 + ^ x22: .cfa -32 + ^ x23: .cfa -40 + ^ x24: .cfa -48 + ^ x25: .cfa -56 + ^ x26: .cfa -64 + ^ x27: .cfa -72 + ^ x28: .cfa -80 + ^ .ra: .cfa -88 + ^ x29: .cfa -96 + ^
STACK CFI 3ea7c .cfa: sp 144 +
STACK CFI 3ea98 .cfa: sp 0 +
STACK CFI 3ea9c .cfa: x29 96 +
STACK CFI INIT 3eb7c 2ac .cfa: sp 0 +
STACK CFI 3eb80 .cfa: sp 128 +
STACK CFI 3eb9c .cfa: x29 96 + x19: .cfa -8 + ^ x20: .cfa -16 + ^ x21: .cfa -24 + ^ x22: .cfa -32 + ^ x23: .cfa -40 + ^ x24: .cfa -48 + ^ x25: .cfa -56 + ^ x26: .cfa -64 + ^ x27: .cfa -72 + ^ x28: .cfa -80 + ^ .ra: .cfa -88 + ^ x29: .cfa -96 + ^
STACK CFI 3eda0 .cfa: sp 128 +
STACK CFI 3edbc .cfa: sp 0 +
STACK CFI 3edc0 .cfa: x29 96 +
STACK CFI INIT 3ee78 454 .cfa: sp 0 +
STACK CFI 3ee7c .cfa: sp 112 +
STACK CFI 3ee98 .cfa: x29 96 + x19: .cfa -8 + ^ x20: .cfa -16 + ^ x21: .cfa -24 + ^ x22: .cfa -32 + ^ x23: .cfa -40 + ^ x24: .cfa -48 + ^ x25: .cfa -56 + ^ x26: .cfa -64 + ^ x27: .cfa -72 + ^ x28: .cfa -80 + ^ .ra: .cfa -88 + ^ x29: .cfa -96 + ^
STACK CFI 3f278 .cfa: sp 112 +
STACK CFI 3f294 .cfa: sp 0 +
STACK CFI 3f298 .cfa: x29 96 +
STACK CFI INIT 3f45c a8 .cfa: sp 0 +
STACK CFI 3f460 .cfa: sp 48 +
STACK CFI 3f46c .cfa: x29 48 + x19: .cfa -8 + ^ x20: .cfa -16 + ^ x21: .cfa -32 + ^ .ra: .cfa -40 + ^ x29: .cfa -48 + ^
STACK CFI 3f4d8 .cfa: sp 48 +
STACK CFI 3f4e4 .cfa: sp 0 +
STACK CFI 3f4e8 .cfa: x29 48 +
STACK CFI INIT 3f504 a8 .cfa: sp 0 +
STACK CFI 3f508 .cfa: sp 48 +
STACK CFI 3f514 .cfa: x29 48 + x19: .cfa -8 + ^ x20: .cfa -16 + ^ x21: .cfa -32 + ^ .ra: .cfa -40 + ^ x29: .cfa -48 + ^
STACK CFI 3f580 .cfa: sp 48 +
STACK CFI 3f58c .cfa: sp 0 +
STACK CFI 3f590 .cfa: x29 48 +
STACK CFI INIT 3f5ac 174 .cfa: sp 0 +
STACK CFI 3f5b0 .cfa: sp 96 +
STACK CFI 3f5c0 .cfa: x29 48 + x19: .cfa -8 + ^ x20: .cfa -16 + ^ x21: .cfa -32 + ^ .ra: .cfa -40 + ^ x29: .cfa -48 + ^
STACK CFI 3f644 .cfa: sp 96 +
STACK CFI 3f654 .cfa: sp 0 +
STACK CFI 3f658 .cfa: x29 48 +
STACK CFI INIT 3f720 1d8 .cfa: sp 0 +
STACK CFI 3f724 .cfa: sp 160 +
STACK CFI 3f734 .cfa: x29 48 + x19: .cfa -8 + ^ x20: .cfa -16 + ^ x21: .cfa -24 + ^ x22: .cfa -32 + ^ .ra: .cfa -40 + ^ x29: .cfa -48 + ^
STACK CFI 3f838 .cfa: sp 160 +
STACK CFI 3f848 .cfa: sp 0 +
STACK CFI 3f84c .cfa: x29 48 +
STACK CFI INIT 3f8f8 a8 .cfa: sp 0 +
STACK CFI 3f8fc .cfa: sp 48 +
STACK CFI 3f908 .cfa: x29 48 + x19: .cfa -8 + ^ x20: .cfa -16 + ^ x21: .cfa -24 + ^ x22: .cfa -32 + ^ .ra: .cfa -40 + ^ x29: .cfa -48 + ^
STACK CFI 3f974 .cfa: sp 48 +
STACK CFI 3f980 .cfa: sp 0 +
STACK CFI 3f984 .cfa: x29 48 +
STACK CFI INIT 3f9a0 154 .cfa: sp 0 +
STACK CFI 3f9a4 .cfa: sp 96 +
STACK CFI 3f9b4 .cfa: x29 48 + x19: .cfa -8 + ^ x20: .cfa -16 + ^ x21: .cfa -32 + ^ .ra: .cfa -40 + ^ x29: .cfa -48 + ^
STACK CFI 3fa90 .cfa: sp 96 +
STACK CFI 3faa0 .cfa: sp 0 +
STACK CFI 3faa4 .cfa: x29 48 +
STACK CFI INIT 3fd78 874 .cfa: sp 0 +
STACK CFI 3fd7c .cfa: sp 208 +
STACK CFI 3fd98 .cfa: x29 96 + x19: .cfa -8 + ^ x20: .cfa -16 + ^ x21: .cfa -24 + ^ x22: .cfa -32 + ^ x23: .cfa -40 + ^ x24: .cfa -48 + ^ x25: .cfa -56 + ^ x26: .cfa -64 + ^ x27: .cfa -72 + ^ x28: .cfa -80 + ^ .ra: .cfa -88 + ^ x29: .cfa -96 + ^
STACK CFI 404c4 .cfa: sp 208 +
STACK CFI 404e0 .cfa: sp 0 +
STACK CFI 404e4 .cfa: x29 96 +
STACK CFI INIT 405ec 1dc .cfa: sp 0 +
STACK CFI 405f0 .cfa: sp 160 +
STACK CFI 40600 .cfa: x29 48 + x19: .cfa -8 + ^ x20: .cfa -16 + ^ x21: .cfa -32 + ^ .ra: .cfa -40 + ^ x29: .cfa -48 + ^
STACK CFI 40708 .cfa: sp 160 +
STACK CFI 40718 .cfa: sp 0 +
STACK CFI 4071c .cfa: x29 48 +
STACK CFI INIT 40950 3c0 .cfa: sp 0 +
STACK CFI 40954 .cfa: sp 160 +
STACK CFI 40970 .cfa: x29 96 + x19: .cfa -8 + ^ x20: .cfa -16 + ^ x21: .cfa -24 + ^ x22: .cfa -32 + ^ x23: .cfa -40 + ^ x24: .cfa -48 + ^ x25: .cfa -56 + ^ x26: .cfa -64 + ^ x27: .cfa -80 + ^ .ra: .cfa -88 + ^ x29: .cfa -96 + ^
STACK CFI 40c9c .cfa: sp 160 +
STACK CFI 40cb8 .cfa: sp 0 +
STACK CFI 40cbc .cfa: x29 96 +
STACK CFI INIT 40d10 2880 .cfa: sp 0 +
STACK CFI 40d14 .cfa: sp 288 +
STACK CFI 40d30 .cfa: x29 96 + x19: .cfa -8 + ^ x20: .cfa -16 + ^ x21: .cfa -24 + ^ x22: .cfa -32 + ^ x23: .cfa -40 + ^ x24: .cfa -48 + ^ x25: .cfa -56 + ^ x26: .cfa -64 + ^ x27: .cfa -72 + ^ x28: .cfa -80 + ^ .ra: .cfa -88 + ^ x29: .cfa -96 + ^
STACK CFI 42cf8 .cfa: sp 288 +
STACK CFI 42d14 .cfa: sp 0 +
STACK CFI 42d18 .cfa: x29 96 +
STACK CFI INIT 43594 134 .cfa: sp 0 +
STACK CFI 43598 .cfa: sp 128 +
STACK CFI 435ac .cfa: x29 64 + x19: .cfa -8 + ^ x20: .cfa -16 + ^ x21: .cfa -24 + ^ x22: .cfa -32 + ^ x23: .cfa -40 + ^ x24: .cfa -48 + ^ .ra: .cfa -56 + ^ x29: .cfa -64 + ^
STACK CFI 43678 .cfa: sp 128 +
STACK CFI 4368c .cfa: sp 0 +
STACK CFI 43690 .cfa: x29 64 +
STACK CFI INIT 436c8 130 .cfa: sp 0 +
STACK CFI 436cc .cfa: sp 144 +
STACK CFI 436dc .cfa: x29 48 + x19: .cfa -8 + ^ x20: .cfa -16 + ^ x21: .cfa -32 + ^ .ra: .cfa -40 + ^ x29: .cfa -48 + ^
STACK CFI 437b4 .cfa: sp 144 +
STACK CFI 437c4 .cfa: sp 0 +
STACK CFI 437c8 .cfa: x29 48 +
STACK CFI INIT 437f8 138 .cfa: sp 0 +
STACK CFI 437fc .cfa: sp 144 +
STACK CFI 4380c .cfa: x29 48 + x19: .cfa -8 + ^ x20: .cfa -16 + ^ x21: .cfa -32 + ^ .ra: .cfa -40 + ^ x29: .cfa -48 + ^
STACK CFI 438ec .cfa: sp 144 +
STACK CFI 438fc .cfa: sp 0 +
STACK CFI 43900 .cfa: x29 48 +
STACK CFI INIT 43930 184 .cfa: sp 0 +
STACK CFI 43934 .cfa: sp 160 +
STACK CFI 4394c .cfa: x29 80 + x19: .cfa -8 + ^ x20: .cfa -16 + ^ x21: .cfa -24 + ^ x22: .cfa -32 + ^ x23: .cfa -40 + ^ x24: .cfa -48 + ^ x25: .cfa -56 + ^ x26: .cfa -64 + ^ .ra: .cfa -72 + ^ x29: .cfa -80 + ^
STACK CFI 43a4c .cfa: sp 160 +
STACK CFI 43a64 .cfa: sp 0 +
STACK CFI 43a68 .cfa: x29 80 +
STACK CFI INIT 43ab4 a2c .cfa: sp 0 +
STACK CFI 43ab8 .cfa: sp 96 +
STACK CFI 43ad0 .cfa: x29 96 + x19: .cfa -8 + ^ x20: .cfa -16 + ^ x21: .cfa -24 + ^ x22: .cfa -32 + ^ x23: .cfa -40 + ^ x24: .cfa -48 + ^ x25: .cfa -56 + ^ x26: .cfa -64 + ^ x27: .cfa -72 + ^ x28: .cfa -80 + ^ .ra: .cfa -88 + ^ x29: .cfa -96 + ^
STACK CFI 43b28 .cfa: sp 96 +
STACK CFI 43b40 .cfa: sp 0 +
STACK CFI 43b44 .cfa: x29 96 +
STACK CFI 44298 .cfa: sp 96 +
STACK CFI 442b0 .cfa: sp 0 +
STACK CFI 442b4 .cfa: x29 96 +
STACK CFI INIT 444e0 12c .cfa: sp 0 +
STACK CFI 444e4 .cfa: sp 144 +
STACK CFI 444f4 .cfa: x29 48 + x19: .cfa -8 + ^ x20: .cfa -16 + ^ x21: .cfa -24 + ^ x22: .cfa -32 + ^ .ra: .cfa -40 + ^ x29: .cfa -48 + ^
STACK CFI 445c8 .cfa: sp 144 +
STACK CFI 445d8 .cfa: sp 0 +
STACK CFI 445dc .cfa: x29 48 +
STACK CFI INIT 4460c 164 .cfa: sp 0 +
STACK CFI 44610 .cfa: sp 192 +
STACK CFI 44628 .cfa: x29 48 + x19: .cfa -8 + ^ x20: .cfa -16 + ^ x21: .cfa -32 + ^ .ra: .cfa -40 + ^ x29: .cfa -48 + ^ v8: .cfa -56 + ^ v9: .cfa -64 + ^ v10: .cfa -72 + ^ v11: .cfa -80 + ^
STACK CFI 44724 .cfa: sp 192 +
STACK CFI 4473c .cfa: sp 0 +
STACK CFI 44740 .cfa: x29 48 +
STACK CFI INIT 44770 144 .cfa: sp 0 +
STACK CFI 44774 .cfa: sp 144 +
STACK CFI 44784 .cfa: x29 48 + x19: .cfa -8 + ^ x20: .cfa -16 + ^ x21: .cfa -24 + ^ x22: .cfa -32 + ^ .ra: .cfa -40 + ^ x29: .cfa -48 + ^
STACK CFI 44870 .cfa: sp 144 +
STACK CFI 44880 .cfa: sp 0 +
STACK CFI 44884 .cfa: x29 48 +
STACK CFI INIT 448b4 13c .cfa: sp 0 +
STACK CFI 448b8 .cfa: sp 144 +
STACK CFI 448c8 .cfa: x29 48 + x19: .cfa -8 + ^ x20: .cfa -16 + ^ x21: .cfa -32 + ^ .ra: .cfa -40 + ^ x29: .cfa -48 + ^
STACK CFI 449ac .cfa: sp 144 +
STACK CFI 449bc .cfa: sp 0 +
STACK CFI 449c0 .cfa: x29 48 +
STACK CFI INIT 449f0 1c4 .cfa: sp 0 +
STACK CFI 449f4 .cfa: sp 160 +
STACK CFI 44a0c .cfa: x29 80 + x19: .cfa -8 + ^ x20: .cfa -16 + ^ x21: .cfa -24 + ^ x22: .cfa -32 + ^ x23: .cfa -40 + ^ x24: .cfa -48 + ^ x25: .cfa -56 + ^ x26: .cfa -64 + ^ .ra: .cfa -72 + ^ x29: .cfa -80 + ^
STACK CFI 44b40 .cfa: sp 160 +
STACK CFI 44b58 .cfa: sp 0 +
STACK CFI 44b5c .cfa: x29 80 +
STACK CFI INIT 44bb4 148 .cfa: sp 0 +
STACK CFI 44bb8 .cfa: sp 160 +
STACK CFI 44bcc .cfa: x29 64 + x19: .cfa -8 + ^ x20: .cfa -16 + ^ x21: .cfa -24 + ^ x22: .cfa -32 + ^ x23: .cfa -48 + ^ .ra: .cfa -56 + ^ x29: .cfa -64 + ^
STACK CFI 44cb4 .cfa: sp 160 +
STACK CFI 44cc8 .cfa: sp 0 +
STACK CFI 44ccc .cfa: x29 64 +
STACK CFI INIT 44cfc 150 .cfa: sp 0 +
STACK CFI 44d00 .cfa: sp 160 +
STACK CFI 44d14 .cfa: x29 64 + x19: .cfa -8 + ^ x20: .cfa -16 + ^ x21: .cfa -24 + ^ x22: .cfa -32 + ^ x23: .cfa -48 + ^ .ra: .cfa -56 + ^ x29: .cfa -64 + ^
STACK CFI 44e04 .cfa: sp 160 +
STACK CFI 44e18 .cfa: sp 0 +
STACK CFI 44e1c .cfa: x29 64 +
STACK CFI INIT 44e4c 14c .cfa: sp 0 +
STACK CFI 44e50 .cfa: sp 160 +
STACK CFI 44e64 .cfa: x29 64 + x19: .cfa -8 + ^ x20: .cfa -16 + ^ x21: .cfa -24 + ^ x22: .cfa -32 + ^ x23: .cfa -48 + ^ .ra: .cfa -56 + ^ x29: .cfa -64 + ^
STACK CFI 44f50 .cfa: sp 160 +
STACK CFI 44f64 .cfa: sp 0 +
STACK CFI 44f68 .cfa: x29 64 +
STACK CFI INIT 44f98 154 .cfa: sp 0 +
STACK CFI 44f9c .cfa: sp 160 +
STACK CFI 44fb0 .cfa: x29 64 + x19: .cfa -8 + ^ x20: .cfa -16 + ^ x21: .cfa -24 + ^ x22: .cfa -32 + ^ x23: .cfa -48 + ^ .ra: .cfa -56 + ^ x29: .cfa -64 + ^
STACK CFI 450a4 .cfa: sp 160 +
STACK CFI 450b8 .cfa: sp 0 +
STACK CFI 450bc .cfa: x29 64 +
STACK CFI INIT 450ec 154 .cfa: sp 0 +
STACK CFI 450f0 .cfa: sp 160 +
STACK CFI 45104 .cfa: x29 64 + x19: .cfa -8 + ^ x20: .cfa -16 + ^ x21: .cfa -24 + ^ x22: .cfa -32 + ^ x23: .cfa -48 + ^ .ra: .cfa -56 + ^ x29: .cfa -64 + ^
STACK CFI 451f8 .cfa: sp 160 +
STACK CFI 4520c .cfa: sp 0 +
STACK CFI 45210 .cfa: x29 64 +
STACK CFI INIT 45240 150 .cfa: sp 0 +
STACK CFI 45244 .cfa: sp 160 +
STACK CFI 45258 .cfa: x29 64 + x19: .cfa -8 + ^ x20: .cfa -16 + ^ x21: .cfa -24 + ^ x22: .cfa -32 + ^ x23: .cfa -48 + ^ .ra: .cfa -56 + ^ x29: .cfa -64 + ^
STACK CFI 45348 .cfa: sp 160 +
STACK CFI 4535c .cfa: sp 0 +
STACK CFI 45360 .cfa: x29 64 +
STACK CFI INIT 45390 158 .cfa: sp 0 +
STACK CFI 45394 .cfa: sp 160 +
STACK CFI 453a8 .cfa: x29 64 + x19: .cfa -8 + ^ x20: .cfa -16 + ^ x21: .cfa -24 + ^ x22: .cfa -32 + ^ x23: .cfa -48 + ^ .ra: .cfa -56 + ^ x29: .cfa -64 + ^
STACK CFI 454a0 .cfa: sp 160 +
STACK CFI 454b4 .cfa: sp 0 +
STACK CFI 454b8 .cfa: x29 64 +
STACK CFI INIT 454e8 154 .cfa: sp 0 +
STACK CFI 454ec .cfa: sp 160 +
STACK CFI 45500 .cfa: x29 64 + x19: .cfa -8 + ^ x20: .cfa -16 + ^ x21: .cfa -24 + ^ x22: .cfa -32 + ^ x23: .cfa -48 + ^ .ra: .cfa -56 + ^ x29: .cfa -64 + ^
STACK CFI 455f4 .cfa: sp 160 +
STACK CFI 45608 .cfa: sp 0 +
STACK CFI 4560c .cfa: x29 64 +
STACK CFI INIT 4563c 148 .cfa: sp 0 +
STACK CFI 45640 .cfa: sp 144 +
STACK CFI 45650 .cfa: x29 48 + x19: .cfa -8 + ^ x20: .cfa -16 + ^ x21: .cfa -24 + ^ x22: .cfa -32 + ^ .ra: .cfa -40 + ^ x29: .cfa -48 + ^
STACK CFI 45740 .cfa: sp 144 +
STACK CFI 45750 .cfa: sp 0 +
STACK CFI 45754 .cfa: x29 48 +
STACK CFI INIT 45784 6c8 .cfa: sp 0 +
STACK CFI 45788 .cfa: sp 144 +
STACK CFI 457a4 .cfa: x29 96 + x19: .cfa -8 + ^ x20: .cfa -16 + ^ x21: .cfa -24 + ^ x22: .cfa -32 + ^ x23: .cfa -40 + ^ x24: .cfa -48 + ^ x25: .cfa -56 + ^ x26: .cfa -64 + ^ x27: .cfa -72 + ^ x28: .cfa -80 + ^ .ra: .cfa -88 + ^ x29: .cfa -96 + ^
STACK CFI 45dd0 .cfa: sp 144 +
STACK CFI 45dec .cfa: sp 0 +
STACK CFI 45df0 .cfa: x29 96 +
STACK CFI INIT 45e4c 174 .cfa: sp 0 +
STACK CFI 45e50 .cfa: sp 96 +
STACK CFI 45e60 .cfa: x29 48 + x19: .cfa -8 + ^ x20: .cfa -16 + ^ x21: .cfa -24 + ^ x22: .cfa -32 + ^ .ra: .cfa -40 + ^ x29: .cfa -48 + ^
STACK CFI 45ef0 .cfa: sp 96 +
STACK CFI 45f00 .cfa: sp 0 +
STACK CFI 45f04 .cfa: x29 48 +
STACK CFI INIT 47980 584 .cfa: sp 0 +
STACK CFI 47984 .cfa: sp 192 +
STACK CFI 479a0 .cfa: x29 96 + x19: .cfa -8 + ^ x20: .cfa -16 + ^ x21: .cfa -24 + ^ x22: .cfa -32 + ^ x23: .cfa -40 + ^ x24: .cfa -48 + ^ x25: .cfa -56 + ^ x26: .cfa -64 + ^ x27: .cfa -72 + ^ x28: .cfa -80 + ^ .ra: .cfa -88 + ^ x29: .cfa -96 + ^
STACK CFI 47c28 .cfa: sp 192 +
STACK CFI 47c44 .cfa: sp 0 +
STACK CFI 47c48 .cfa: x29 96 +
STACK CFI 47c74 .cfa: sp 192 +
STACK CFI 47c90 .cfa: sp 0 +
STACK CFI 47c94 .cfa: x29 96 +
STACK CFI 47cb8 .cfa: sp 192 +
STACK CFI 47cbc .cfa: x29 96 +
STACK CFI 47cfc .cfa: sp 192 +
STACK CFI 47d00 .cfa: x29 96 +
STACK CFI INIT 47f04 120 .cfa: sp 0 +
STACK CFI 47f08 .cfa: sp 64 +
STACK CFI 47f18 .cfa: x29 64 + x19: .cfa -8 + ^ x20: .cfa -16 + ^ x21: .cfa -24 + ^ x22: .cfa -32 + ^ x23: .cfa -40 + ^ x24: .cfa -48 + ^ .ra: .cfa -56 + ^ x29: .cfa -64 + ^
STACK CFI 47ff4 .cfa: sp 64 +
STACK CFI 48004 .cfa: sp 0 +
STACK CFI 48008 .cfa: x29 64 +
STACK CFI INIT 48024 a8 .cfa: sp 0 +
STACK CFI 48028 .cfa: sp 32 +
STACK CFI 48030 .cfa: x29 32 + x19: .cfa -8 + ^ x20: .cfa -16 + ^ .ra: .cfa -24 + ^ x29: .cfa -32 + ^
STACK CFI 480a4 .cfa: sp 32 +
STACK CFI 480ac .cfa: sp 0 +
STACK CFI 480b0 .cfa: x29 32 +
STACK CFI INIT 48148 134 .cfa: sp 0 +
STACK CFI 4814c .cfa: sp 80 +
STACK CFI 48158 .cfa: x29 32 + x19: .cfa -8 + ^ x20: .cfa -16 + ^ .ra: .cfa -24 + ^ x29: .cfa -32 + ^
STACK CFI 48188 .cfa: sp 80 +
STACK CFI 48194 .cfa: sp 0 +
STACK CFI 48198 .cfa: x29 32 +
STACK CFI INIT 4827c 78 .cfa: sp 0 +
STACK CFI 48280 .cfa: sp 32 +
STACK CFI 48288 .cfa: x29 32 + x19: .cfa -8 + ^ x20: .cfa -16 + ^ .ra: .cfa -24 + ^ x29: .cfa -32 + ^
STACK CFI 48294 .cfa: sp 32 +
STACK CFI 4829c .cfa: sp 0 +
STACK CFI 482a0 .cfa: x29 32 +
STACK CFI INIT 482f4 74 .cfa: sp 0 +
STACK CFI 482f8 .cfa: sp 48 +
STACK CFI 48304 .cfa: x29 32 + x19: .cfa -8 + ^ x20: .cfa -16 + ^ .ra: .cfa -24 + ^ x29: .cfa -32 + ^
STACK CFI 48350 .cfa: sp 48 +
STACK CFI 4835c .cfa: sp 0 +
STACK CFI 48360 .cfa: x29 32 +
STACK CFI INIT 483f0 25c .cfa: sp 0 +
STACK CFI 483f4 .cfa: sp 128 +
STACK CFI 48404 .cfa: x29 48 + x19: .cfa -8 + ^ x20: .cfa -16 + ^ x21: .cfa -32 + ^ .ra: .cfa -40 + ^ x29: .cfa -48 + ^
STACK CFI 484ec .cfa: sp 128 +
STACK CFI 484fc .cfa: sp 0 +
STACK CFI 48500 .cfa: x29 48 +
STACK CFI INIT 486c4 308 .cfa: sp 0 +
STACK CFI 486c8 .cfa: sp 144 +
STACK CFI 486dc .cfa: x29 64 + x19: .cfa -8 + ^ x20: .cfa -16 + ^ x21: .cfa -24 + ^ x22: .cfa -32 + ^ x23: .cfa -48 + ^ .ra: .cfa -56 + ^ x29: .cfa -64 + ^
STACK CFI 48870 .cfa: sp 144 +
STACK CFI 48884 .cfa: sp 0 +
STACK CFI 48888 .cfa: x29 64 +
STACK CFI INIT 48a20 26c .cfa: sp 0 +
STACK CFI 48a24 .cfa: sp 128 +
STACK CFI 48a34 .cfa: x29 48 + x19: .cfa -8 + ^ x20: .cfa -16 + ^ x21: .cfa -32 + ^ .ra: .cfa -40 + ^ x29: .cfa -48 + ^
STACK CFI 48b2c .cfa: sp 128 +
STACK CFI 48b3c .cfa: sp 0 +
STACK CFI 48b40 .cfa: x29 48 +
STACK CFI INIT 48d34 1b8 .cfa: sp 0 +
STACK CFI 48d38 .cfa: sp 160 +
STACK CFI 48d54 .cfa: x29 72 + x19: .cfa -8 + ^ x20: .cfa -16 + ^ x21: .cfa -24 + ^ x22: .cfa -32 + ^ x23: .cfa -40 + ^ x24: .cfa -48 + ^ x25: .cfa -56 + ^ .ra: .cfa -64 + ^ x29: .cfa -72 + ^ v8: .cfa -80 + ^
STACK CFI 48dd8 .cfa: sp 160 +
STACK CFI 48df4 .cfa: sp 0 +
STACK CFI 48df8 .cfa: x29 72 +
STACK CFI INIT 48eec 460 .cfa: sp 0 +
STACK CFI 48ef0 .cfa: sp 96 +
STACK CFI 48f08 .cfa: x29 80 + x19: .cfa -8 + ^ x20: .cfa -16 + ^ x21: .cfa -24 + ^ x22: .cfa -32 + ^ x23: .cfa -40 + ^ x24: .cfa -48 + ^ x25: .cfa -64 + ^ .ra: .cfa -72 + ^ x29: .cfa -80 + ^
STACK CFI 492c8 .cfa: sp 96 +
STACK CFI 492e0 .cfa: sp 0 +
STACK CFI 492e4 .cfa: x29 80 +
STACK CFI INIT 4934c 1a0 .cfa: sp 0 +
STACK CFI 49350 .cfa: sp 160 +
STACK CFI 49368 .cfa: x29 48 + x19: .cfa -8 + ^ x20: .cfa -16 + ^ x21: .cfa -24 + ^ x22: .cfa -32 + ^ .ra: .cfa -40 + ^ x29: .cfa -48 + ^ v8: .cfa -56 + ^ v9: .cfa -64 + ^ v10: .cfa -80 + ^
STACK CFI 493dc .cfa: sp 160 +
STACK CFI 493f4 .cfa: sp 0 +
STACK CFI 493f8 .cfa: x29 48 +
STACK CFI INIT 494ec 388 .cfa: sp 0 +
STACK CFI 494f0 .cfa: sp 80 +
STACK CFI 49504 .cfa: x29 80 + x19: .cfa -8 + ^ x20: .cfa -16 + ^ x21: .cfa -24 + ^ x22: .cfa -32 + ^ x23: .cfa -40 + ^ x24: .cfa -48 + ^ x25: .cfa -64 + ^ .ra: .cfa -72 + ^ x29: .cfa -80 + ^
STACK CFI 49804 .cfa: sp 80 +
STACK CFI 49818 .cfa: sp 0 +
STACK CFI 4981c .cfa: x29 80 +
STACK CFI INIT 49874 844 .cfa: sp 0 +
STACK CFI 49878 .cfa: sp 144 +
STACK CFI 4988c .cfa: x29 64 + x19: .cfa -8 + ^ x20: .cfa -16 + ^ x21: .cfa -24 + ^ x22: .cfa -32 + ^ x23: .cfa -48 + ^ .ra: .cfa -56 + ^ x29: .cfa -64 + ^
STACK CFI 49ee8 .cfa: sp 144 +
STACK CFI 49efc .cfa: sp 0 +
STACK CFI 49f00 .cfa: x29 64 +
STACK CFI INIT 4a0b8 71c .cfa: sp 0 +
STACK CFI 4a0bc .cfa: sp 80 +
STACK CFI 4a0d0 .cfa: x29 80 + x19: .cfa -8 + ^ x20: .cfa -16 + ^ x21: .cfa -24 + ^ x22: .cfa -32 + ^ x23: .cfa -40 + ^ x24: .cfa -48 + ^ x25: .cfa -56 + ^ x26: .cfa -64 + ^ .ra: .cfa -72 + ^ x29: .cfa -80 + ^
STACK CFI 4a4ec .cfa: sp 80 +
STACK CFI 4a500 .cfa: sp 0 +
STACK CFI 4a504 .cfa: x29 80 +
STACK CFI INIT 4a828 17c .cfa: sp 0 +
STACK CFI 4a82c .cfa: sp 160 +
STACK CFI 4a844 .cfa: x29 80 + x19: .cfa -8 + ^ x20: .cfa -16 + ^ x21: .cfa -24 + ^ x22: .cfa -32 + ^ x23: .cfa -40 + ^ x24: .cfa -48 + ^ x25: .cfa -56 + ^ x26: .cfa -64 + ^ .ra: .cfa -72 + ^ x29: .cfa -80 + ^
STACK CFI 4a8ac .cfa: sp 160 +
STACK CFI 4a8c4 .cfa: sp 0 +
STACK CFI 4a8c8 .cfa: x29 80 +
STACK CFI INIT 4a9a4 460 .cfa: sp 0 +
STACK CFI 4a9a8 .cfa: sp 128 +
STACK CFI 4a9c0 .cfa: x29 80 + x19: .cfa -8 + ^ x20: .cfa -16 + ^ x21: .cfa -24 + ^ x22: .cfa -32 + ^ x23: .cfa -40 + ^ x24: .cfa -48 + ^ x25: .cfa -64 + ^ .ra: .cfa -72 + ^ x29: .cfa -80 + ^
STACK CFI 4ad80 .cfa: sp 128 +
STACK CFI 4ad98 .cfa: sp 0 +
STACK CFI 4ad9c .cfa: x29 80 +
STACK CFI INIT 4ae0c 18c .cfa: sp 0 +
STACK CFI 4ae10 .cfa: sp 176 +
STACK CFI 4ae2c .cfa: x29 80 + x19: .cfa -8 + ^ x20: .cfa -16 + ^ x21: .cfa -24 + ^ x22: .cfa -32 + ^ x23: .cfa -40 + ^ x24: .cfa -48 + ^ x25: .cfa -56 + ^ x26: .cfa -64 + ^ .ra: .cfa -72 + ^ x29: .cfa -80 + ^ v8: .cfa -96 + ^
STACK CFI 4ae9c .cfa: sp 176 +
STACK CFI 4aeb8 .cfa: sp 0 +
STACK CFI 4aebc .cfa: x29 80 +
STACK CFI INIT 4af98 544 .cfa: sp 0 +
STACK CFI 4af9c .cfa: sp 128 +
STACK CFI 4afb4 .cfa: x29 80 + x19: .cfa -8 + ^ x20: .cfa -16 + ^ x21: .cfa -24 + ^ x22: .cfa -32 + ^ x23: .cfa -40 + ^ x24: .cfa -48 + ^ x25: .cfa -64 + ^ .ra: .cfa -72 + ^ x29: .cfa -80 + ^
STACK CFI 4b448 .cfa: sp 128 +
STACK CFI 4b460 .cfa: sp 0 +
STACK CFI 4b464 .cfa: x29 80 +
STACK CFI INIT 4b4e4 16c .cfa: sp 0 +
STACK CFI 4b4e8 .cfa: sp 144 +
STACK CFI 4b500 .cfa: x29 56 + x19: .cfa -8 + ^ x20: .cfa -16 + ^ x21: .cfa -24 + ^ x22: .cfa -32 + ^ x23: .cfa -40 + ^ .ra: .cfa -48 + ^ x29: .cfa -56 + ^ v8: .cfa -64 + ^
STACK CFI 4b558 .cfa: sp 144 +
STACK CFI 4b570 .cfa: sp 0 +
STACK CFI 4b574 .cfa: x29 56 +
STACK CFI INIT 4b650 2a4 .cfa: sp 0 +
STACK CFI 4b654 .cfa: sp 96 +
STACK CFI 4b66c .cfa: x29 80 + x19: .cfa -8 + ^ x20: .cfa -16 + ^ x21: .cfa -24 + ^ x22: .cfa -32 + ^ x23: .cfa -40 + ^ x24: .cfa -48 + ^ x25: .cfa -64 + ^ .ra: .cfa -72 + ^ x29: .cfa -80 + ^
STACK CFI 4b890 .cfa: sp 96 +
STACK CFI 4b8a8 .cfa: sp 0 +
STACK CFI 4b8ac .cfa: x29 80 +
STACK CFI INIT 4b8fc 15c .cfa: sp 0 +
STACK CFI 4b900 .cfa: sp 144 +
STACK CFI 4b914 .cfa: x29 64 + x19: .cfa -8 + ^ x20: .cfa -16 + ^ x21: .cfa -24 + ^ x22: .cfa -32 + ^ x23: .cfa -48 + ^ .ra: .cfa -56 + ^ x29: .cfa -64 + ^
STACK CFI 4b964 .cfa: sp 144 +
STACK CFI 4b978 .cfa: sp 0 +
STACK CFI 4b97c .cfa: x29 64 +
STACK CFI INIT 4ba58 f8 .cfa: sp 0 +
STACK CFI 4ba5c .cfa: sp 64 +
STACK CFI 4ba6c .cfa: x29 48 + x19: .cfa -8 + ^ x20: .cfa -16 + ^ x21: .cfa -24 + ^ x22: .cfa -32 + ^ .ra: .cfa -40 + ^ x29: .cfa -48 + ^
STACK CFI 4bb18 .cfa: sp 64 +
STACK CFI 4bb28 .cfa: sp 0 +
STACK CFI 4bb2c .cfa: x29 48 +
STACK CFI INIT 4bb68 174 .cfa: sp 0 +
STACK CFI 4bb6c .cfa: sp 160 +
STACK CFI 4bb84 .cfa: x29 80 + x19: .cfa -8 + ^ x20: .cfa -16 + ^ x21: .cfa -24 + ^ x22: .cfa -32 + ^ x23: .cfa -40 + ^ x24: .cfa -48 + ^ x25: .cfa -64 + ^ .ra: .cfa -72 + ^ x29: .cfa -80 + ^
STACK CFI 4bbe4 .cfa: sp 160 +
STACK CFI 4bbfc .cfa: sp 0 +
STACK CFI 4bc00 .cfa: x29 80 +
STACK CFI INIT 4bcdc 38c .cfa: sp 0 +
STACK CFI 4bce0 .cfa: sp 96 +
STACK CFI 4bcf8 .cfa: x29 80 + x19: .cfa -8 + ^ x20: .cfa -16 + ^ x21: .cfa -24 + ^ x22: .cfa -32 + ^ x23: .cfa -40 + ^ x24: .cfa -48 + ^ x25: .cfa -64 + ^ .ra: .cfa -72 + ^ x29: .cfa -80 + ^
STACK CFI 4bff4 .cfa: sp 96 +
STACK CFI 4c00c .cfa: sp 0 +
STACK CFI 4c010 .cfa: x29 80 +
STACK CFI INIT 4c068 18c .cfa: sp 0 +
STACK CFI 4c06c .cfa: sp 176 +
STACK CFI 4c088 .cfa: x29 96 + x19: .cfa -8 + ^ x20: .cfa -16 + ^ x21: .cfa -24 + ^ x22: .cfa -32 + ^ x23: .cfa -40 + ^ x24: .cfa -48 + ^ x25: .cfa -56 + ^ x26: .cfa -64 + ^ x27: .cfa -80 + ^ .ra: .cfa -88 + ^ x29: .cfa -96 + ^
STACK CFI 4c0f8 .cfa: sp 176 +
STACK CFI 4c114 .cfa: sp 0 +
STACK CFI 4c118 .cfa: x29 96 +
STACK CFI INIT 4c1f4 554 .cfa: sp 0 +
STACK CFI 4c1f8 .cfa: sp 96 +
STACK CFI 4c210 .cfa: x29 80 + x19: .cfa -8 + ^ x20: .cfa -16 + ^ x21: .cfa -24 + ^ x22: .cfa -32 + ^ x23: .cfa -40 + ^ x24: .cfa -48 + ^ x25: .cfa -64 + ^ .ra: .cfa -72 + ^ x29: .cfa -80 + ^
STACK CFI 4c6b4 .cfa: sp 96 +
STACK CFI 4c6cc .cfa: sp 0 +
STACK CFI 4c6d0 .cfa: x29 80 +
STACK CFI INIT 4c748 15c .cfa: sp 0 +
STACK CFI 4c74c .cfa: sp 144 +
STACK CFI 4c760 .cfa: x29 64 + x19: .cfa -8 + ^ x20: .cfa -16 + ^ x21: .cfa -24 + ^ x22: .cfa -32 + ^ x23: .cfa -48 + ^ .ra: .cfa -56 + ^ x29: .cfa -64 + ^
STACK CFI 4c7b0 .cfa: sp 144 +
STACK CFI 4c7c4 .cfa: sp 0 +
STACK CFI 4c7c8 .cfa: x29 64 +
STACK CFI INIT 4c8a4 f8 .cfa: sp 0 +
STACK CFI 4c8a8 .cfa: sp 64 +
STACK CFI 4c8b8 .cfa: x29 48 + x19: .cfa -8 + ^ x20: .cfa -16 + ^ x21: .cfa -24 + ^ x22: .cfa -32 + ^ .ra: .cfa -40 + ^ x29: .cfa -48 + ^
STACK CFI 4c964 .cfa: sp 64 +
STACK CFI 4c974 .cfa: sp 0 +
STACK CFI 4c978 .cfa: x29 48 +
STACK CFI INIT 4c99c 334 .cfa: sp 0 +
STACK CFI 4c9a0 .cfa: sp 144 +
STACK CFI 4c9b4 .cfa: x29 64 + x19: .cfa -8 + ^ x20: .cfa -16 + ^ x21: .cfa -24 + ^ x22: .cfa -32 + ^ x23: .cfa -48 + ^ .ra: .cfa -56 + ^ x29: .cfa -64 + ^
STACK CFI 4cb74 .cfa: sp 144 +
STACK CFI 4cb88 .cfa: sp 0 +
STACK CFI 4cb8c .cfa: x29 64 +
STACK CFI INIT 4cd24 15c .cfa: sp 0 +
STACK CFI 4cd28 .cfa: sp 144 +
STACK CFI 4cd3c .cfa: x29 64 + x19: .cfa -8 + ^ x20: .cfa -16 + ^ x21: .cfa -24 + ^ x22: .cfa -32 + ^ x23: .cfa -48 + ^ .ra: .cfa -56 + ^ x29: .cfa -64 + ^
STACK CFI 4cd8c .cfa: sp 144 +
STACK CFI 4cda0 .cfa: sp 0 +
STACK CFI 4cda4 .cfa: x29 64 +
STACK CFI INIT 4ce80 f8 .cfa: sp 0 +
STACK CFI 4ce84 .cfa: sp 64 +
STACK CFI 4ce94 .cfa: x29 48 + x19: .cfa -8 + ^ x20: .cfa -16 + ^ x21: .cfa -24 + ^ x22: .cfa -32 + ^ .ra: .cfa -40 + ^ x29: .cfa -48 + ^
STACK CFI 4cf40 .cfa: sp 64 +
STACK CFI 4cf50 .cfa: sp 0 +
STACK CFI 4cf54 .cfa: x29 48 +
STACK CFI INIT 4cf7c 2ec .cfa: sp 0 +
STACK CFI 4cf80 .cfa: sp 144 +
STACK CFI 4cf94 .cfa: x29 64 + x19: .cfa -8 + ^ x20: .cfa -16 + ^ x21: .cfa -24 + ^ x22: .cfa -32 + ^ x23: .cfa -48 + ^ .ra: .cfa -56 + ^ x29: .cfa -64 + ^
STACK CFI 4d10c .cfa: sp 144 +
STACK CFI 4d120 .cfa: sp 0 +
STACK CFI 4d124 .cfa: x29 64 +
STACK CFI INIT 4d268 2ec .cfa: sp 0 +
STACK CFI 4d26c .cfa: sp 144 +
STACK CFI 4d280 .cfa: x29 64 + x19: .cfa -8 + ^ x20: .cfa -16 + ^ x21: .cfa -24 + ^ x22: .cfa -32 + ^ x23: .cfa -48 + ^ .ra: .cfa -56 + ^ x29: .cfa -64 + ^
STACK CFI 4d3f8 .cfa: sp 144 +
STACK CFI 4d40c .cfa: sp 0 +
STACK CFI 4d410 .cfa: x29 64 +
STACK CFI INIT 4d554 2a8 .cfa: sp 0 +
STACK CFI 4d558 .cfa: sp 144 +
STACK CFI 4d56c .cfa: x29 64 + x19: .cfa -8 + ^ x20: .cfa -16 + ^ x21: .cfa -24 + ^ x22: .cfa -32 + ^ x23: .cfa -48 + ^ .ra: .cfa -56 + ^ x29: .cfa -64 + ^
STACK CFI 4d6a0 .cfa: sp 144 +
STACK CFI 4d6b4 .cfa: sp 0 +
STACK CFI 4d6b8 .cfa: x29 64 +
STACK CFI INIT 4d7fc 2f8 .cfa: sp 0 +
STACK CFI 4d800 .cfa: sp 144 +
STACK CFI 4d814 .cfa: x29 64 + x19: .cfa -8 + ^ x20: .cfa -16 + ^ x21: .cfa -24 + ^ x22: .cfa -32 + ^ x23: .cfa -48 + ^ .ra: .cfa -56 + ^ x29: .cfa -64 + ^
STACK CFI 4d998 .cfa: sp 144 +
STACK CFI 4d9ac .cfa: sp 0 +
STACK CFI 4d9b0 .cfa: x29 64 +
STACK CFI INIT 4daf4 4c4 .cfa: sp 0 +
STACK CFI 4daf8 .cfa: sp 144 +
STACK CFI 4db0c .cfa: x29 64 + x19: .cfa -8 + ^ x20: .cfa -16 + ^ x21: .cfa -24 + ^ x22: .cfa -32 + ^ x23: .cfa -48 + ^ .ra: .cfa -56 + ^ x29: .cfa -64 + ^
STACK CFI 4de08 .cfa: sp 144 +
STACK CFI 4de1c .cfa: sp 0 +
STACK CFI 4de20 .cfa: x29 64 +
STACK CFI INIT 4dfb8 154 .cfa: sp 0 +
STACK CFI 4dfbc .cfa: sp 384 +
STACK CFI 4dfd0 .cfa: x29 64 + x19: .cfa -8 + ^ x20: .cfa -16 + ^ x21: .cfa -24 + ^ x22: .cfa -32 + ^ x23: .cfa -40 + ^ x28: .cfa -48 + ^ .ra: .cfa -56 + ^ x29: .cfa -64 + ^
STACK CFI 4e0b4 .cfa: sp 384 +
STACK CFI 4e0c8 .cfa: sp 0 +
STACK CFI 4e0cc .cfa: x29 64 +
STACK CFI INIT 4e124 43c .cfa: sp 0 +
STACK CFI 4e128 .cfa: sp 64 +
STACK CFI 4e138 .cfa: x29 64 + x19: .cfa -8 + ^ x20: .cfa -16 + ^ x21: .cfa -24 + ^ x22: .cfa -32 + ^ x23: .cfa -40 + ^ x24: .cfa -48 + ^ .ra: .cfa -56 + ^ x29: .cfa -64 + ^
STACK CFI 4e4f0 .cfa: sp 64 +
STACK CFI 4e500 .cfa: sp 0 +
STACK CFI 4e504 .cfa: x29 64 +
