MODULE Linux arm64 5CCFDE35934E40B48FCF5221B6B6D8B30 raydeeux.loadingscreentweaks.android64.so
INFO CODE_ID 35DECF5C4E93B4408FCF5221B6B6D8B39FACADFA
INFO GENERATOR mozilla/dump_syms 2.3.4
PUBLIC d400 0 __on_dlclose
PUBLIC d410 0 __emutls_unregister_key
PUBLIC d418 0 __on_dlclose_late
PUBLIC d420 0 __atexit_handler_wrapper
PUBLIC d434 0 atexit
PUBLIC d450 0 pthread_atfork
PUBLIC d460 0 __aarch64_ldadd8_relax
PUBLIC d490 0 init_have_lse_atomics
PUBLIC d528 0 __init_cpu_features_constructor
PUBLIC dac4 0 __init_cpu_features
PUBLIC db50 0 __aarch64_ldadd8_acq_rel
PUBLIC db80 0 std::__ndk1::vector<std::__ndk1::basic_string<char, std::__ndk1::char_traits<char>, std::__ndk1::allocator<char> >, std::__ndk1::allocator<std::__ndk1::basic_string<char, std::__ndk1::char_traits<char>, std::__ndk1::allocator<char> > > >::~vector[abi:ne180000]()
PUBLIC dbfc 0 addSettingToQuotes(std::__ndk1::basic_string<char, std::__ndk1::char_traits<char>, std::__ndk1::allocator<char> >, bool)
PUBLIC e40c 0 geode::Mod::get<void>()
PUBLIC e448 0 geode::Mod::getSettingValue<bool>(std::__ndk1::basic_string_view<char, std::__ndk1::char_traits<char> >) const
PUBLIC e578 0 std::__ndk1::basic_ifstream<char, std::__ndk1::char_traits<char> >::basic_ifstream(std::__ndk1::basic_string<char, std::__ndk1::char_traits<char>, std::__ndk1::allocator<char> > const&, unsigned int)
PUBLIC m e694 0 std::__ndk1::basic_ifstream<char, std::__ndk1::char_traits<char> >::~basic_ifstream()
PUBLIC e6e4 0 geodeExecFunction31<(anonymous namespace)::ExecFuncUnique31>(geode::ModStateEvent*)
PUBLIC f71c 0 grabRandomQuote(std::__ndk1::vector<std::__ndk1::basic_string<char, std::__ndk1::char_traits<char>, std::__ndk1::allocator<char> >, std::__ndk1::allocator<std::__ndk1::basic_string<char, std::__ndk1::char_traits<char>, std::__ndk1::allocator<char> > > >)
PUBLIC fa6c 0 __cxx_global_var_init.8
PUBLIC 10490 0 geode::modifier::ModifyBase<geode::modifier::ModifyDerive<MyLoadingLayer, LoadingLayer> >::~ModifyBase()
PUBLIC 104a8 0 __clang_call_terminate
PUBLIC 104b8 0 std::__ndk1::__fs::filesystem::path::operator/=[abi:ne180000](std::__ndk1::__fs::filesystem::path const&)
PUBLIC 105a0 0 std::__ndk1::basic_string<char, std::__ndk1::char_traits<char>, std::__ndk1::allocator<char> >::__assign_no_alias<true>(char const*, unsigned long)
PUBLIC 1064c 0 std::__ndk1::basic_string<char, std::__ndk1::char_traits<char>, std::__ndk1::allocator<char> >::__assign_no_alias<false>(char const*, unsigned long)
PUBLIC 1075c 0 std::__ndk1::basic_string<char, std::__ndk1::char_traits<char>, std::__ndk1::allocator<char> >::__throw_length_error[abi:ne180000]() const
PUBLIC 10770 0 std::__ndk1::__throw_length_error[abi:ne180000](char const*)
PUBLIC 107c0 0 std::length_error::length_error[abi:ne180000](char const*)
PUBLIC 107f0 0 std::__throw_bad_array_new_length([abi:ne180000], void)
PUBLIC 10824 0 _ZNSt6__ndk112basic_stringIcNS_11char_traitsIcEENS_9allocatorIcEEE6appendB8ne180000IPKcTnNS_9enable_ifIXsr31__has_forward_iterator_categoryIT_EE5valueEiE4typeELi0EEERS5_SA_SA_
PUBLIC 10b28 0 std::__ndk1::basic_string<char, std::__ndk1::char_traits<char>, std::__ndk1::allocator<char> >::__init_copy_ctor_external(char const*, unsigned long)
PUBLIC 10ba8 0 std::__ndk1::vector<std::__ndk1::basic_string<char, std::__ndk1::char_traits<char>, std::__ndk1::allocator<char> >, std::__ndk1::allocator<std::__ndk1::basic_string<char, std::__ndk1::char_traits<char>, std::__ndk1::allocator<char> > > >::__push_back_slow_path<std::__ndk1::basic_string<char, std::__ndk1::char_traits<char>, std::__ndk1::allocator<char> > const&>(std::__ndk1::basic_string<char, std::__ndk1::char_traits<char>, std::__ndk1::allocator<char> > const&)
PUBLIC 10dcc 0 std::__ndk1::__split_buffer<std::__ndk1::basic_string<char, std::__ndk1::char_traits<char>, std::__ndk1::allocator<char> >, std::__ndk1::allocator<std::__ndk1::basic_string<char, std::__ndk1::char_traits<char>, std::__ndk1::allocator<char> > >&>::~__split_buffer()
PUBLIC 10e34 0 std::__ndk1::vector<std::__ndk1::basic_string<char, std::__ndk1::char_traits<char>, std::__ndk1::allocator<char> >, std::__ndk1::allocator<std::__ndk1::basic_string<char, std::__ndk1::char_traits<char>, std::__ndk1::allocator<char> > > >::__throw_length_error[abi:ne180000]() const
PUBLIC 10e48 0 std::__ndk1::shared_ptr<geode::SettingV3>::~shared_ptr[abi:ne180000]()
PUBLIC 10e98 0 geode::cast::traverseTypeinfoFor(void*, geode::cast::ClassTypeinfoType const*, char const*)
PUBLIC 10f90 0 std::__ndk1::getline[abi:ne180000]<char, std::__ndk1::char_traits<char>, std::__ndk1::allocator<char> >(std::__ndk1::basic_istream<char, std::__ndk1::char_traits<char> >, std::__ndk1::basic_string<std::__ndk1::basic_istream, char, std::__ndk1::allocator<char> >&, std::__ndk1::basic_istream)
PUBLIC 11144 0 MyButtonSettingV3::parse(std::__ndk1::basic_string<char, std::__ndk1::char_traits<char>, std::__ndk1::allocator<char> > const&, std::__ndk1::basic_string<char, std::__ndk1::char_traits<char>, std::__ndk1::allocator<char> > const&, matjson::Value const&)
PUBLIC 114c8 0 geode::impl::ResultData<void, std::__ndk1::basic_string<char, std::__ndk1::char_traits<char>, std::__ndk1::allocator<char> > >::~ResultData()
PUBLIC 1153c 0 std::__ndk1::shared_ptr<MyButtonSettingV3>::~shared_ptr[abi:ne180000]()
PUBLIC 1158c 0 std::__ndk1::__shared_ptr_emplace<MyButtonSettingV3, std::__ndk1::allocator<MyButtonSettingV3> >::~__shared_ptr_emplace()
PUBLIC 1159c 0 std::__ndk1::__shared_ptr_emplace<MyButtonSettingV3, std::__ndk1::allocator<MyButtonSettingV3> >::~__shared_ptr_emplace()
PUBLIC 115cc 0 std::__ndk1::__shared_ptr_emplace<MyButtonSettingV3, std::__ndk1::allocator<MyButtonSettingV3> >::__on_zero_shared()
PUBLIC 115d8 0 std::__ndk1::__shared_ptr_emplace<MyButtonSettingV3, std::__ndk1::allocator<MyButtonSettingV3> >::__on_zero_shared_weak()
PUBLIC 115dc 0 std::__ndk1::__throw_bad_variant_access[abi:ne180000]()
PUBLIC 11610 0 geode::UnwrapException::~UnwrapException()
PUBLIC 11634 0 std::__ndk1::__function::__base<geode::Result<std::__ndk1::shared_ptr<geode::SettingV3>, std::__ndk1::basic_string<char, std::__ndk1::char_traits<char>, std::__ndk1::allocator<char> > >(std::__ndk1::basic_string<char, std::__ndk1::char_traits<char>, std::__ndk1::allocator<char> > const&, std::__ndk1::basic_string<char, std::__ndk1::char_traits<char>, std::__ndk1::allocator<char> > const&, matjson::Value const&)>::~__base()
PUBLIC 11638 0 std::__ndk1::__function::__func<geode::Result<std::__ndk1::shared_ptr<geode::SettingV3>, std::__ndk1::basic_string<char, std::__ndk1::char_traits<char>, std::__ndk1::allocator<char> > > (*)(std::__ndk1::basic_string<char, std::__ndk1::char_traits<char>, std::__ndk1::allocator<char> > const&, std::__ndk1::basic_string<char, std::__ndk1::char_traits<char>, std::__ndk1::allocator<char> > const&, matjson::Value const&), std::__ndk1::allocator<geode::Result<std::__ndk1::shared_ptr<geode::SettingV3>, std::__ndk1::basic_string<char, std::__ndk1::char_traits<char>, std::__ndk1::allocator<char> > > (*)(std::__ndk1::basic_string<char, std::__ndk1::char_traits<char>, std::__ndk1::allocator<char> > const&, std::__ndk1::basic_string<char, std::__ndk1::char_traits<char>, std::__ndk1::allocator<char> > const&, matjson::Value const&)>, geode::Result<std::__ndk1::shared_ptr<geode::SettingV3>, std::__ndk1::basic_string<char, std::__ndk1::char_traits<char>, std::__ndk1::allocator<char> > >(std::__ndk1::basic_string<char, std::__ndk1::char_traits<char>, std::__ndk1::allocator<char> > const&, std::__ndk1::basic_string<char, std::__ndk1::char_traits<char>, std::__ndk1::allocator<char> > const&, matjson::Value const&)>::~__func()
PUBLIC 1163c 0 std::__ndk1::__function::__func<geode::Result<std::__ndk1::shared_ptr<geode::SettingV3>, std::__ndk1::basic_string<char, std::__ndk1::char_traits<char>, std::__ndk1::allocator<char> > > (*)(std::__ndk1::basic_string<char, std::__ndk1::char_traits<char>, std::__ndk1::allocator<char> > const&, std::__ndk1::basic_string<char, std::__ndk1::char_traits<char>, std::__ndk1::allocator<char> > const&, matjson::Value const&), std::__ndk1::allocator<geode::Result<std::__ndk1::shared_ptr<geode::SettingV3>, std::__ndk1::basic_string<char, std::__ndk1::char_traits<char>, std::__ndk1::allocator<char> > > (*)(std::__ndk1::basic_string<char, std::__ndk1::char_traits<char>, std::__ndk1::allocator<char> > const&, std::__ndk1::basic_string<char, std::__ndk1::char_traits<char>, std::__ndk1::allocator<char> > const&, matjson::Value const&)>, geode::Result<std::__ndk1::shared_ptr<geode::SettingV3>, std::__ndk1::basic_string<char, std::__ndk1::char_traits<char>, std::__ndk1::allocator<char> > >(std::__ndk1::basic_string<char, std::__ndk1::char_traits<char>, std::__ndk1::allocator<char> > const&, std::__ndk1::basic_string<char, std::__ndk1::char_traits<char>, std::__ndk1::allocator<char> > const&, matjson::Value const&)>::__clone() const
PUBLIC 11670 0 std::__ndk1::__function::__func<geode::Result<std::__ndk1::shared_ptr<geode::SettingV3>, std::__ndk1::basic_string<char, std::__ndk1::char_traits<char>, std::__ndk1::allocator<char> > > (*)(std::__ndk1::basic_string<char, std::__ndk1::char_traits<char>, std::__ndk1::allocator<char> > const&, std::__ndk1::basic_string<char, std::__ndk1::char_traits<char>, std::__ndk1::allocator<char> > const&, matjson::Value const&), std::__ndk1::allocator<geode::Result<std::__ndk1::shared_ptr<geode::SettingV3>, std::__ndk1::basic_string<char, std::__ndk1::char_traits<char>, std::__ndk1::allocator<char> > > (*)(std::__ndk1::basic_string<char, std::__ndk1::char_traits<char>, std::__ndk1::allocator<char> > const&, std::__ndk1::basic_string<char, std::__ndk1::char_traits<char>, std::__ndk1::allocator<char> > const&, matjson::Value const&)>, geode::Result<std::__ndk1::shared_ptr<geode::SettingV3>, std::__ndk1::basic_string<char, std::__ndk1::char_traits<char>, std::__ndk1::allocator<char> > >(std::__ndk1::basic_string<char, std::__ndk1::char_traits<char>, std::__ndk1::allocator<char> > const&, std::__ndk1::basic_string<char, std::__ndk1::char_traits<char>, std::__ndk1::allocator<char> > const&, matjson::Value const&)>::__clone(std::__ndk1::__function::__base<geode::Result<std::__ndk1::shared_ptr<geode::SettingV3>, std::__ndk1::basic_string<char, std::__ndk1::char_traits<char>, std::__ndk1::allocator<char> > >(std::__ndk1::basic_string<char, std::__ndk1::char_traits<char>, std::__ndk1::allocator<char> > const&, std::__ndk1::basic_string<char, std::__ndk1::char_traits<char>, std::__ndk1::allocator<char> > const&, matjson::Value const&)>*) const
PUBLIC 11684 0 std::__ndk1::__function::__func<geode::Result<std::__ndk1::shared_ptr<geode::SettingV3>, std::__ndk1::basic_string<char, std::__ndk1::char_traits<char>, std::__ndk1::allocator<char> > > (*)(std::__ndk1::basic_string<char, std::__ndk1::char_traits<char>, std::__ndk1::allocator<char> > const&, std::__ndk1::basic_string<char, std::__ndk1::char_traits<char>, std::__ndk1::allocator<char> > const&, matjson::Value const&), std::__ndk1::allocator<geode::Result<std::__ndk1::shared_ptr<geode::SettingV3>, std::__ndk1::basic_string<char, std::__ndk1::char_traits<char>, std::__ndk1::allocator<char> > > (*)(std::__ndk1::basic_string<char, std::__ndk1::char_traits<char>, std::__ndk1::allocator<char> > const&, std::__ndk1::basic_string<char, std::__ndk1::char_traits<char>, std::__ndk1::allocator<char> > const&, matjson::Value const&)>, geode::Result<std::__ndk1::shared_ptr<geode::SettingV3>, std::__ndk1::basic_string<char, std::__ndk1::char_traits<char>, std::__ndk1::allocator<char> > >(std::__ndk1::basic_string<char, std::__ndk1::char_traits<char>, std::__ndk1::allocator<char> > const&, std::__ndk1::basic_string<char, std::__ndk1::char_traits<char>, std::__ndk1::allocator<char> > const&, matjson::Value const&)>::destroy()
PUBLIC 11688 0 std::__ndk1::__function::__func<geode::Result<std::__ndk1::shared_ptr<geode::SettingV3>, std::__ndk1::basic_string<char, std::__ndk1::char_traits<char>, std::__ndk1::allocator<char> > > (*)(std::__ndk1::basic_string<char, std::__ndk1::char_traits<char>, std::__ndk1::allocator<char> > const&, std::__ndk1::basic_string<char, std::__ndk1::char_traits<char>, std::__ndk1::allocator<char> > const&, matjson::Value const&), std::__ndk1::allocator<geode::Result<std::__ndk1::shared_ptr<geode::SettingV3>, std::__ndk1::basic_string<char, std::__ndk1::char_traits<char>, std::__ndk1::allocator<char> > > (*)(std::__ndk1::basic_string<char, std::__ndk1::char_traits<char>, std::__ndk1::allocator<char> > const&, std::__ndk1::basic_string<char, std::__ndk1::char_traits<char>, std::__ndk1::allocator<char> > const&, matjson::Value const&)>, geode::Result<std::__ndk1::shared_ptr<geode::SettingV3>, std::__ndk1::basic_string<char, std::__ndk1::char_traits<char>, std::__ndk1::allocator<char> > >(std::__ndk1::basic_string<char, std::__ndk1::char_traits<char>, std::__ndk1::allocator<char> > const&, std::__ndk1::basic_string<char, std::__ndk1::char_traits<char>, std::__ndk1::allocator<char> > const&, matjson::Value const&)>::destroy_deallocate()
PUBLIC 1168c 0 std::__ndk1::__function::__func<geode::Result<std::__ndk1::shared_ptr<geode::SettingV3>, std::__ndk1::basic_string<char, std::__ndk1::char_traits<char>, std::__ndk1::allocator<char> > > (*)(std::__ndk1::basic_string<char, std::__ndk1::char_traits<char>, std::__ndk1::allocator<char> > const&, std::__ndk1::basic_string<char, std::__ndk1::char_traits<char>, std::__ndk1::allocator<char> > const&, matjson::Value const&), std::__ndk1::allocator<geode::Result<std::__ndk1::shared_ptr<geode::SettingV3>, std::__ndk1::basic_string<char, std::__ndk1::char_traits<char>, std::__ndk1::allocator<char> > > (*)(std::__ndk1::basic_string<char, std::__ndk1::char_traits<char>, std::__ndk1::allocator<char> > const&, std::__ndk1::basic_string<char, std::__ndk1::char_traits<char>, std::__ndk1::allocator<char> > const&, matjson::Value const&)>, geode::Result<std::__ndk1::shared_ptr<geode::SettingV3>, std::__ndk1::basic_string<char, std::__ndk1::char_traits<char>, std::__ndk1::allocator<char> > >(std::__ndk1::basic_string<char, std::__ndk1::char_traits<char>, std::__ndk1::allocator<char> > const&, std::__ndk1::basic_string<char, std::__ndk1::char_traits<char>, std::__ndk1::allocator<char> > const&, matjson::Value const&)>::operator()(std::__ndk1::basic_string<char, std::__ndk1::char_traits<char>, std::__ndk1::allocator<char> > const&, std::__ndk1::basic_string<char, std::__ndk1::char_traits<char>, std::__ndk1::allocator<char> > const&, matjson::Value const&)
PUBLIC 116a0 0 std::__ndk1::__function::__func<geode::Result<std::__ndk1::shared_ptr<geode::SettingV3>, std::__ndk1::basic_string<char, std::__ndk1::char_traits<char>, std::__ndk1::allocator<char> > > (*)(std::__ndk1::basic_string<char, std::__ndk1::char_traits<char>, std::__ndk1::allocator<char> > const&, std::__ndk1::basic_string<char, std::__ndk1::char_traits<char>, std::__ndk1::allocator<char> > const&, matjson::Value const&), std::__ndk1::allocator<geode::Result<std::__ndk1::shared_ptr<geode::SettingV3>, std::__ndk1::basic_string<char, std::__ndk1::char_traits<char>, std::__ndk1::allocator<char> > > (*)(std::__ndk1::basic_string<char, std::__ndk1::char_traits<char>, std::__ndk1::allocator<char> > const&, std::__ndk1::basic_string<char, std::__ndk1::char_traits<char>, std::__ndk1::allocator<char> > const&, matjson::Value const&)>, geode::Result<std::__ndk1::shared_ptr<geode::SettingV3>, std::__ndk1::basic_string<char, std::__ndk1::char_traits<char>, std::__ndk1::allocator<char> > >(std::__ndk1::basic_string<char, std::__ndk1::char_traits<char>, std::__ndk1::allocator<char> > const&, std::__ndk1::basic_string<char, std::__ndk1::char_traits<char>, std::__ndk1::allocator<char> > const&, matjson::Value const&)>::target(std::type_info const&) const
PUBLIC 116bc 0 std::__ndk1::__function::__func<geode::Result<std::__ndk1::shared_ptr<geode::SettingV3>, std::__ndk1::basic_string<char, std::__ndk1::char_traits<char>, std::__ndk1::allocator<char> > > (*)(std::__ndk1::basic_string<char, std::__ndk1::char_traits<char>, std::__ndk1::allocator<char> > const&, std::__ndk1::basic_string<char, std::__ndk1::char_traits<char>, std::__ndk1::allocator<char> > const&, matjson::Value const&), std::__ndk1::allocator<geode::Result<std::__ndk1::shared_ptr<geode::SettingV3>, std::__ndk1::basic_string<char, std::__ndk1::char_traits<char>, std::__ndk1::allocator<char> > > (*)(std::__ndk1::basic_string<char, std::__ndk1::char_traits<char>, std::__ndk1::allocator<char> > const&, std::__ndk1::basic_string<char, std::__ndk1::char_traits<char>, std::__ndk1::allocator<char> > const&, matjson::Value const&)>, geode::Result<std::__ndk1::shared_ptr<geode::SettingV3>, std::__ndk1::basic_string<char, std::__ndk1::char_traits<char>, std::__ndk1::allocator<char> > >(std::__ndk1::basic_string<char, std::__ndk1::char_traits<char>, std::__ndk1::allocator<char> > const&, std::__ndk1::basic_string<char, std::__ndk1::char_traits<char>, std::__ndk1::allocator<char> > const&, matjson::Value const&)>::target_type() const
PUBLIC 116c8 0 std::__ndk1::__variant_detail::__visitation::__base::__dispatcher<(unsigned long)0>::__dispatch[abi:ne180000]<std::__ndk1::__variant_detail::__dtor<std::__ndk1::__variant_detail::__traits<std::__ndk1::monostate, std::__ndk1::basic_string<char, std::__ndk1::char_traits<char>, std::__ndk1::allocator<char> > >, (std::__ndk1::__variant_detail::_Trait)1>::__destroy[abi:ne180000]()::{lambda(auto:1&)#1}, std::__ndk1::__variant_detail::__base<(std::__ndk1::__variant_detail::__traits<std::__ndk1::monostate, std::__ndk1::basic_string<char, std::__ndk1::char_traits<char>, std::__ndk1::allocator<char> > >)1, std::__ndk1::__variant_detail::__traits, std::__ndk1::allocator<char> >&>(std::__ndk1::__variant_detail::__dtor<std::__ndk1::__variant_detail::__traits<std::__ndk1::monostate, std::__ndk1::basic_string<char, std::__ndk1::char_traits<char>, std::__ndk1::allocator<char> > >, (std::__ndk1::__variant_detail::_Trait)1>, std::__ndk1::__variant_detail::__base<(std::__ndk1::__variant_detail::__traits<std::__ndk1::monostate, std::__ndk1::basic_string<char, std::__ndk1::char_traits<char>, std::__ndk1::allocator<char> > >)1, std::__ndk1::__variant_detail::__traits, std::__ndk1::allocator<char> >&)
PUBLIC 116cc 0 std::__ndk1::__variant_detail::__visitation::__base::__dispatcher<(unsigned long)1>::__dispatch[abi:ne180000]<std::__ndk1::__variant_detail::__dtor<std::__ndk1::__variant_detail::__traits<std::__ndk1::monostate, std::__ndk1::basic_string<char, std::__ndk1::char_traits<char>, std::__ndk1::allocator<char> > >, (std::__ndk1::__variant_detail::_Trait)1>::__destroy[abi:ne180000]()::{lambda(auto:1&)#1}, std::__ndk1::__variant_detail::__base<(std::__ndk1::__variant_detail::__traits<std::__ndk1::monostate, std::__ndk1::basic_string<char, std::__ndk1::char_traits<char>, std::__ndk1::allocator<char> > >)1, std::__ndk1::__variant_detail::__traits, std::__ndk1::allocator<char> >&>(std::__ndk1::__variant_detail::__dtor<std::__ndk1::__variant_detail::__traits<std::__ndk1::monostate, std::__ndk1::basic_string<char, std::__ndk1::char_traits<char>, std::__ndk1::allocator<char> > >, (std::__ndk1::__variant_detail::_Trait)1>, std::__ndk1::__variant_detail::__base<(std::__ndk1::__variant_detail::__traits<std::__ndk1::monostate, std::__ndk1::basic_string<char, std::__ndk1::char_traits<char>, std::__ndk1::allocator<char> > >)1, std::__ndk1::__variant_detail::__traits, std::__ndk1::allocator<char> >&)
PUBLIC 116e0 0 geode::impl::ResultData<matjson::Value&, std::__ndk1::basic_string<char, std::__ndk1::char_traits<char>, std::__ndk1::allocator<char> > >::~ResultData()
PUBLIC 11754 0 std::__ndk1::basic_stringstream<char, std::__ndk1::char_traits<char>, std::__ndk1::allocator<char> >::basic_stringstream[abi:ne180000]()
PUBLIC m 11880 0 std::__ndk1::basic_stringstream<char, std::__ndk1::char_traits<char>, std::__ndk1::allocator<char> >::~basic_stringstream()
PUBLIC 11900 0 std::__ndk1::__put_character_sequence[abi:ne180000]<char, std::__ndk1::char_traits<char> >(std::__ndk1::basic_ostream<char, std::__ndk1::char_traits<char> >, std::__ndk1::basic_ostream const*, unsigned long)
PUBLIC 11aa4 0 std::__ndk1::__pad_and_output[abi:ne180000]<char, std::__ndk1::char_traits<char> >(std::__ndk1::char_traits<char>, std::__ndk1::ostreambuf_iterator const*, std::__ndk1::ostreambuf_iterator const, std::__ndk1::ostreambuf_iterator const, std::__ndk1::ios_base&, std::__ndk1::ostreambuf_iterator)
PUBLIC 11c80 0 std::__ndk1::basic_stringbuf<char, std::__ndk1::char_traits<char>, std::__ndk1::allocator<char> >::str[abi:ne180000]() &&
PUBLIC 11df8 0 std::__ndk1::basic_stringbuf<char, std::__ndk1::char_traits<char>, std::__ndk1::allocator<char> >::__init_buf_ptrs[abi:ne180000]()
PUBLIC 11f40 0 std::__ndk1::__variant_detail::__visitation::__base::__dispatcher<(unsigned long)0>::__dispatch[abi:ne180000]<std::__ndk1::__variant_detail::__dtor<std::__ndk1::__variant_detail::__traits<std::__ndk1::reference_wrapper<matjson::Value>, std::__ndk1::basic_string<char, std::__ndk1::char_traits<char>, std::__ndk1::allocator<char> > >, (std::__ndk1::__variant_detail::_Trait)1>::__destroy[abi:ne180000]()::{lambda(auto:1&)#1}, std::__ndk1::__variant_detail::__base<(std::__ndk1::__variant_detail::__traits<std::__ndk1::reference_wrapper<matjson::Value>, std::__ndk1::basic_string<char, std::__ndk1::char_traits<char>, std::__ndk1::allocator<char> > >)1, matjson::Value, std::__ndk1::allocator<char> >&>(std::__ndk1::__variant_detail::__dtor<std::__ndk1::__variant_detail::__traits<std::__ndk1::reference_wrapper<matjson::Value>, std::__ndk1::basic_string<char, std::__ndk1::char_traits<char>, std::__ndk1::allocator<char> > >, (std::__ndk1::__variant_detail::_Trait)1>, std::__ndk1::__variant_detail::__base<(std::__ndk1::__variant_detail::__traits<std::__ndk1::reference_wrapper<matjson::Value>, std::__ndk1::basic_string<char, std::__ndk1::char_traits<char>, std::__ndk1::allocator<char> > >)1, matjson::Value, std::__ndk1::allocator<char> >&)
PUBLIC 11f44 0 std::__ndk1::__variant_detail::__visitation::__base::__dispatcher<(unsigned long)1>::__dispatch[abi:ne180000]<std::__ndk1::__variant_detail::__dtor<std::__ndk1::__variant_detail::__traits<std::__ndk1::reference_wrapper<matjson::Value>, std::__ndk1::basic_string<char, std::__ndk1::char_traits<char>, std::__ndk1::allocator<char> > >, (std::__ndk1::__variant_detail::_Trait)1>::__destroy[abi:ne180000]()::{lambda(auto:1&)#1}, std::__ndk1::__variant_detail::__base<(std::__ndk1::__variant_detail::__traits<std::__ndk1::reference_wrapper<matjson::Value>, std::__ndk1::basic_string<char, std::__ndk1::char_traits<char>, std::__ndk1::allocator<char> > >)1, matjson::Value, std::__ndk1::allocator<char> >&>(std::__ndk1::__variant_detail::__dtor<std::__ndk1::__variant_detail::__traits<std::__ndk1::reference_wrapper<matjson::Value>, std::__ndk1::basic_string<char, std::__ndk1::char_traits<char>, std::__ndk1::allocator<char> > >, (std::__ndk1::__variant_detail::_Trait)1>, std::__ndk1::__variant_detail::__base<(std::__ndk1::__variant_detail::__traits<std::__ndk1::reference_wrapper<matjson::Value>, std::__ndk1::basic_string<char, std::__ndk1::char_traits<char>, std::__ndk1::allocator<char> > >)1, matjson::Value, std::__ndk1::allocator<char> >&)
PUBLIC 11f58 0 std::__ndk1::__variant_detail::__visitation::__base::__dispatcher<(unsigned long)0>::__dispatch[abi:ne180000]<std::__ndk1::__variant_detail::__dtor<std::__ndk1::__variant_detail::__traits<bool, std::__ndk1::basic_string<char, std::__ndk1::char_traits<char>, std::__ndk1::allocator<char> > >, (std::__ndk1::__variant_detail::_Trait)1>::__destroy[abi:ne180000]()::{lambda(auto:1&)#1}, std::__ndk1::__variant_detail::__base<(std::__ndk1::__variant_detail::__traits<bool, std::__ndk1::basic_string<char, std::__ndk1::char_traits<char>, std::__ndk1::allocator<char> > >)1, bool, std::__ndk1::allocator<char> >&>(std::__ndk1::__variant_detail::__dtor<std::__ndk1::__variant_detail::__traits<bool, std::__ndk1::basic_string<char, std::__ndk1::char_traits<char>, std::__ndk1::allocator<char> > >, (std::__ndk1::__variant_detail::_Trait)1>, std::__ndk1::__variant_detail::__base<(std::__ndk1::__variant_detail::__traits<bool, std::__ndk1::basic_string<char, std::__ndk1::char_traits<char>, std::__ndk1::allocator<char> > >)1, bool, std::__ndk1::allocator<char> >&)
PUBLIC 11f5c 0 std::__ndk1::__variant_detail::__visitation::__base::__dispatcher<(unsigned long)1>::__dispatch[abi:ne180000]<std::__ndk1::__variant_detail::__dtor<std::__ndk1::__variant_detail::__traits<bool, std::__ndk1::basic_string<char, std::__ndk1::char_traits<char>, std::__ndk1::allocator<char> > >, (std::__ndk1::__variant_detail::_Trait)1>::__destroy[abi:ne180000]()::{lambda(auto:1&)#1}, std::__ndk1::__variant_detail::__base<(std::__ndk1::__variant_detail::__traits<bool, std::__ndk1::basic_string<char, std::__ndk1::char_traits<char>, std::__ndk1::allocator<char> > >)1, bool, std::__ndk1::allocator<char> >&>(std::__ndk1::__variant_detail::__dtor<std::__ndk1::__variant_detail::__traits<bool, std::__ndk1::basic_string<char, std::__ndk1::char_traits<char>, std::__ndk1::allocator<char> > >, (std::__ndk1::__variant_detail::_Trait)1>, std::__ndk1::__variant_detail::__base<(std::__ndk1::__variant_detail::__traits<bool, std::__ndk1::basic_string<char, std::__ndk1::char_traits<char>, std::__ndk1::allocator<char> > >)1, bool, std::__ndk1::allocator<char> >&)
PUBLIC 11f70 0 geode::EventListener<geode::ModStateFilter>::getPool() const
PUBLIC 11f74 0 geode::EventListener<geode::ModStateFilter>::handle(geode::Event*)
PUBLIC 120d8 0 geode::EventListener<geode::ModStateFilter>::~EventListener()
PUBLIC 12134 0 geode::EventListener<geode::ModStateFilter>::~EventListener()
PUBLIC 12198 0 std::__ndk1::__function::__base<void (geode::ModStateEvent*)>::~__base()
PUBLIC 1219c 0 std::__ndk1::__function::__func<void (*)(geode::ModStateEvent*), std::__ndk1::allocator<void (*)(geode::ModStateEvent*)>, void (geode::ModStateEvent*)>::~__func()
PUBLIC 121a0 0 std::__ndk1::__function::__func<void (*)(geode::ModStateEvent*), std::__ndk1::allocator<void (*)(geode::ModStateEvent*)>, void (geode::ModStateEvent*)>::__clone() const
PUBLIC 121d4 0 std::__ndk1::__function::__func<void (*)(geode::ModStateEvent*), std::__ndk1::allocator<void (*)(geode::ModStateEvent*)>, void (geode::ModStateEvent*)>::__clone(std::__ndk1::__function::__base<void (geode::ModStateEvent*)>*) const
PUBLIC 121e8 0 std::__ndk1::__function::__func<void (*)(geode::ModStateEvent*), std::__ndk1::allocator<void (*)(geode::ModStateEvent*)>, void (geode::ModStateEvent*)>::destroy()
PUBLIC 121ec 0 std::__ndk1::__function::__func<void (*)(geode::ModStateEvent*), std::__ndk1::allocator<void (*)(geode::ModStateEvent*)>, void (geode::ModStateEvent*)>::destroy_deallocate()
PUBLIC 121f0 0 std::__ndk1::__function::__func<void (*)(geode::ModStateEvent*), std::__ndk1::allocator<void (*)(geode::ModStateEvent*)>, void (geode::ModStateEvent*)>::operator()(geode::ModStateEvent*&&)
PUBLIC 12200 0 std::__ndk1::__function::__func<void (*)(geode::ModStateEvent*), std::__ndk1::allocator<void (*)(geode::ModStateEvent*)>, void (geode::ModStateEvent*)>::target(std::type_info const&) const
PUBLIC 1221c 0 std::__ndk1::__function::__func<void (*)(geode::ModStateEvent*), std::__ndk1::allocator<void (*)(geode::ModStateEvent*)>, void (geode::ModStateEvent*)>::target_type() const
PUBLIC 12228 0 std::__ndk1::__independent_bits_engine<std::__ndk1::mersenne_twister_engine<unsigned long, (unsigned long)32, (unsigned long)624, (unsigned long)397, (unsigned long)31, (unsigned long)2567483615, (unsigned long)11, (unsigned long)4294967295, (unsigned long)7, (unsigned long)2636928640, (unsigned long)15, (unsigned long)4022730752, (unsigned long)18, (unsigned long)1812433253>, unsigned long>::__eval(std::__ndk1::integral_constant<bool, true>)
PUBLIC 12428 0 geode::modifier::ModifyDerive<MyLoadingLayer, LoadingLayer>::apply()
PUBLIC 1288c 0 std::__ndk1::shared_ptr<geode::Hook>::~shared_ptr[abi:ne180000]()
PUBLIC 128dc 0 geode::impl::ResultData<geode::Hook*, std::__ndk1::basic_string<char, std::__ndk1::char_traits<char>, std::__ndk1::allocator<char> > >::~ResultData()
PUBLIC 12950 0 geode::modifier::ModifyBase<geode::modifier::ModifyDerive<MyLoadingLayer, LoadingLayer> >::apply()
PUBLIC 12954 0 _ZN5geode15UnwrapExceptionC2IRPNS_4HookEQsr4implE18IsStringStreamableIT_EEENS_4impl5OkTagEOS5_
PUBLIC 12aa8 0 std::__ndk1::__variant_detail::__visitation::__base::__dispatcher<(unsigned long)0>::__dispatch[abi:ne180000]<std::__ndk1::__variant_detail::__dtor<std::__ndk1::__variant_detail::__traits<geode::Hook*, std::__ndk1::basic_string<char, std::__ndk1::char_traits<char>, std::__ndk1::allocator<char> > >, (std::__ndk1::__variant_detail::_Trait)1>::__destroy[abi:ne180000]()::{lambda(auto:1&)#1}, std::__ndk1::__variant_detail::__base<(std::__ndk1::__variant_detail::__traits<geode::Hook*, std::__ndk1::basic_string<char, std::__ndk1::char_traits<char>, std::__ndk1::allocator<char> > >)1, geode::Hook, std::__ndk1::allocator<char> >&>(std::__ndk1::__variant_detail::__dtor<std::__ndk1::__variant_detail::__traits<geode::Hook*, std::__ndk1::basic_string<char, std::__ndk1::char_traits<char>, std::__ndk1::allocator<char> > >, (std::__ndk1::__variant_detail::_Trait)1>, std::__ndk1::__variant_detail::__base<(std::__ndk1::__variant_detail::__traits<geode::Hook*, std::__ndk1::basic_string<char, std::__ndk1::char_traits<char>, std::__ndk1::allocator<char> > >)1, geode::Hook, std::__ndk1::allocator<char> >&)
PUBLIC 12aac 0 std::__ndk1::__variant_detail::__visitation::__base::__dispatcher<(unsigned long)1>::__dispatch[abi:ne180000]<std::__ndk1::__variant_detail::__dtor<std::__ndk1::__variant_detail::__traits<geode::Hook*, std::__ndk1::basic_string<char, std::__ndk1::char_traits<char>, std::__ndk1::allocator<char> > >, (std::__ndk1::__variant_detail::_Trait)1>::__destroy[abi:ne180000]()::{lambda(auto:1&)#1}, std::__ndk1::__variant_detail::__base<(std::__ndk1::__variant_detail::__traits<geode::Hook*, std::__ndk1::basic_string<char, std::__ndk1::char_traits<char>, std::__ndk1::allocator<char> > >)1, geode::Hook, std::__ndk1::allocator<char> >&>(std::__ndk1::__variant_detail::__dtor<std::__ndk1::__variant_detail::__traits<geode::Hook*, std::__ndk1::basic_string<char, std::__ndk1::char_traits<char>, std::__ndk1::allocator<char> > >, (std::__ndk1::__variant_detail::_Trait)1>, std::__ndk1::__variant_detail::__base<(std::__ndk1::__variant_detail::__traits<geode::Hook*, std::__ndk1::basic_string<char, std::__ndk1::char_traits<char>, std::__ndk1::allocator<char> > >)1, geode::Hook, std::__ndk1::allocator<char> >&)
PUBLIC 12ac0 0 std::__ndk1::__tree<std::__ndk1::__value_type<std::__ndk1::basic_string<char, std::__ndk1::char_traits<char>, std::__ndk1::allocator<char> >, std::__ndk1::shared_ptr<geode::Hook> >, std::__ndk1::__map_value_compare<std::__ndk1::basic_string<char, std::__ndk1::char_traits<char>, std::__ndk1::allocator<char> >, std::__ndk1::__value_type<std::__ndk1::basic_string<char, std::__ndk1::char_traits<char>, std::__ndk1::allocator<char> >, std::__ndk1::shared_ptr<geode::Hook> >, std::__ndk1::less<std::__ndk1::basic_string<char, std::__ndk1::char_traits<char>, std::__ndk1::allocator<char> > >, true>, std::__ndk1::allocator<std::__ndk1::__value_type<std::__ndk1::basic_string<char, std::__ndk1::char_traits<char>, std::__ndk1::allocator<char> >, std::__ndk1::shared_ptr<geode::Hook> > > >::destroy(std::__ndk1::__tree_node<std::__ndk1::__value_type<std::__ndk1::basic_string<char, std::__ndk1::char_traits<char>, std::__ndk1::allocator<char> >, std::__ndk1::shared_ptr<geode::Hook> >, void*>*)
PUBLIC 12b44 0 geode::modifier::AsStaticFunction_init<MyLoadingLayer, bool (MyLoadingLayer::*)(bool)>::Impl<bool (MyLoadingLayer::*)(bool)>::function(MyLoadingLayer*, bool)
PUBLIC 133a8 0 std::__ndk1::shared_ptr<tulip::hook::CallingConvention>::~shared_ptr[abi:ne180000]()
PUBLIC 133f8 0 tulip::hook::HandlerMetadata::~HandlerMetadata()
PUBLIC 1345c 0 std::__ndk1::vector<std::__ndk1::basic_string<char, std::__ndk1::char_traits<char>, std::__ndk1::allocator<char> >, std::__ndk1::allocator<std::__ndk1::basic_string<char, std::__ndk1::char_traits<char>, std::__ndk1::allocator<char> > > >::__init_with_size[abi:ne180000]<std::__ndk1::basic_string<char, std::__ndk1::char_traits<char>, std::__ndk1::allocator<char> >*, std::__ndk1::vector<std::__ndk1::basic_string<char, std::__ndk1::char_traits<char>, std::__ndk1::allocator<char> >, std::__ndk1::allocator<std::__ndk1::basic_string<char, std::__ndk1::char_traits<char>, std::__ndk1::allocator<char> > > >::__init_with_size[abi:ne180000]>(std::__ndk1::basic_string<char, std::__ndk1::char_traits<char>, std::__ndk1::allocator<char> >*, std::__ndk1::vector<std::__ndk1::basic_string<char, std::__ndk1::char_traits<char>, std::__ndk1::allocator<char> >, std::__ndk1::allocator<std::__ndk1::basic_string<char, std::__ndk1::char_traits<char>, std::__ndk1::allocator<char> > > >::__init_with_size[abi:ne180000], unsigned long)
PUBLIC 135c4 0 std::__ndk1::__exception_guard_exceptions<std::__ndk1::vector<std::__ndk1::basic_string<char, std::__ndk1::char_traits<char>, std::__ndk1::allocator<char> >, std::__ndk1::allocator<std::__ndk1::basic_string<char, std::__ndk1::char_traits<char>, std::__ndk1::allocator<char> > > >::__destroy_vector>::~__exception_guard_exceptions[abi:ne180000]()
PUBLIC 13650 0 std::__ndk1::__exception_guard_exceptions<std::__ndk1::_AllocatorDestroyRangeReverse<std::__ndk1::allocator<std::__ndk1::basic_string<char, std::__ndk1::char_traits<char>, std::__ndk1::allocator<char> > >, std::__ndk1::basic_string<char, std::__ndk1::char_traits<char>, std::__ndk1::allocator<char> >*> >::~__exception_guard_exceptions[abi:ne180000]()
PUBLIC 136b0 0 std::__ndk1::__tree_balance_after_insert[abi:ne180000]<std::__ndk1::__tree_node_base<void*>*>(std::__ndk1::__tree_node_base<void*>*, std::__ndk1::__tree_node_base<void*>*)
PUBLIC 13860 0 _GLOBAL__sub_I_main.cpp
PUBLIC 139c4 0 MyButtonSettingV3::createNode(float)
PUBLIC 1403c 0 MyButtonSettingV3::~MyButtonSettingV3()
PUBLIC 14060 0 MyButtonSettingV3::load(matjson::Value const&)
PUBLIC 14068 0 MyButtonSettingV3::save(matjson::Value&) const
PUBLIC 14070 0 MyButtonSettingV3::isDefaultValue() const
PUBLIC 14078 0 MyButtonSettingV3::reset()
PUBLIC 1407c 0 cocos2d::CCCopying::copyWithZone(cocos2d::CCZone*)
PUBLIC 14084 0 MyButtonSettingNodeV3::~MyButtonSettingNodeV3()
PUBLIC 14110 0 MyButtonSettingNodeV3::~MyButtonSettingNodeV3()
PUBLIC 141ac 0 MyButtonSettingNodeV3::onCommit()
PUBLIC 141b0 0 MyButtonSettingNodeV3::onResetToDefault()
PUBLIC 141b4 0 MyButtonSettingNodeV3::hasUncommittedChanges() const
PUBLIC 141bc 0 MyButtonSettingNodeV3::hasNonDefaultValue() const
PUBLIC 141c4 0 MyButtonSettingNodeV3::onConfigDirButton(cocos2d::CCObject*)
PUBLIC 1426c 0 std::__ndk1::__throw_bad_optional_access[abi:ne180000]()
PUBLIC 142a0 0 std::__ndk1::__throw_bad_weak_ptr[abi:ne180000]()
PUBLIC m 142d4 0 geodeImplicitEntry
PUBLIC 14310 0 std::__ndk1::unordered_map<void*, bool, std::__ndk1::hash<void*>, std::__ndk1::equal_to<void*>, std::__ndk1::allocator<std::__ndk1::pair<void* const, bool> > >::~unordered_map[abi:ne180000]()
PUBLIC 1435c 0 wrapFunction(unsigned long, tulip::hook::WrapperMetadata const&)
PUBLIC 14490 0 geode::impl::ResultData<void*, std::__ndk1::basic_string<char, std::__ndk1::char_traits<char>, std::__ndk1::allocator<char> > >::unwrapErr() &
PUBLIC 14508 0 geode::impl::ResultData<void*, std::__ndk1::basic_string<char, std::__ndk1::char_traits<char>, std::__ndk1::allocator<char> > >::~ResultData()
PUBLIC 1457c 0 tulip::hook::WrapperMetadata::~WrapperMetadata()
PUBLIC 145e0 0 cocos2d::CCObject::~CCObject()
PUBLIC 14604 0 cocos2d::CCNode::CCNode()
PUBLIC 14860 0 cocos2d::CCNode::~CCNode()
PUBLIC 14884 0 cocos2d::CCObject::update(float)
PUBLIC 14888 0 cocos2d::CCNode::~CCNode()
PUBLIC 14b28 0 cocos2d::CCObject::~CCObject()
PUBLIC 1501c 0 _ZN5geode15UnwrapExceptionC2IRPvQsr4implE18IsStringStreamableIT_EEENS_4impl5OkTagEOS4_
PUBLIC 15170 0 _ZN5geode15UnwrapExceptionC2IRNSt6__ndk112basic_stringIcNS2_11char_traitsIcEENS2_9allocatorIcEEEEQsr4implE18IsStringStreamableIT_EEENS_4impl6ErrTagEOSA_
PUBLIC 152d8 0 std::__ndk1::__variant_detail::__visitation::__base::__dispatcher<(unsigned long)0>::__dispatch[abi:ne180000]<std::__ndk1::__variant_detail::__dtor<std::__ndk1::__variant_detail::__traits<void*, std::__ndk1::basic_string<char, std::__ndk1::char_traits<char>, std::__ndk1::allocator<char> > >, (std::__ndk1::__variant_detail::_Trait)1>::__destroy[abi:ne180000]()::{lambda(auto:1&)#1}, std::__ndk1::__variant_detail::__base<(std::__ndk1::__variant_detail::__traits<void*, std::__ndk1::basic_string<char, std::__ndk1::char_traits<char>, std::__ndk1::allocator<char> > >)1, std::__ndk1::__variant_detail::__traits, std::__ndk1::allocator<char> >&>(std::__ndk1::__variant_detail::__dtor<std::__ndk1::__variant_detail::__traits<void*, std::__ndk1::basic_string<char, std::__ndk1::char_traits<char>, std::__ndk1::allocator<char> > >, (std::__ndk1::__variant_detail::_Trait)1>, std::__ndk1::__variant_detail::__base<(std::__ndk1::__variant_detail::__traits<void*, std::__ndk1::basic_string<char, std::__ndk1::char_traits<char>, std::__ndk1::allocator<char> > >)1, std::__ndk1::__variant_detail::__traits, std::__ndk1::allocator<char> >&)
PUBLIC 152dc 0 std::__ndk1::__variant_detail::__visitation::__base::__dispatcher<(unsigned long)1>::__dispatch[abi:ne180000]<std::__ndk1::__variant_detail::__dtor<std::__ndk1::__variant_detail::__traits<void*, std::__ndk1::basic_string<char, std::__ndk1::char_traits<char>, std::__ndk1::allocator<char> > >, (std::__ndk1::__variant_detail::_Trait)1>::__destroy[abi:ne180000]()::{lambda(auto:1&)#1}, std::__ndk1::__variant_detail::__base<(std::__ndk1::__variant_detail::__traits<void*, std::__ndk1::basic_string<char, std::__ndk1::char_traits<char>, std::__ndk1::allocator<char> > >)1, std::__ndk1::__variant_detail::__traits, std::__ndk1::allocator<char> >&>(std::__ndk1::__variant_detail::__dtor<std::__ndk1::__variant_detail::__traits<void*, std::__ndk1::basic_string<char, std::__ndk1::char_traits<char>, std::__ndk1::allocator<char> > >, (std::__ndk1::__variant_detail::_Trait)1>, std::__ndk1::__variant_detail::__base<(std::__ndk1::__variant_detail::__traits<void*, std::__ndk1::basic_string<char, std::__ndk1::char_traits<char>, std::__ndk1::allocator<char> > >)1, std::__ndk1::__variant_detail::__traits, std::__ndk1::allocator<char> >&)
PUBLIC 152f0 0 std::__ndk1::__hash_table<std::__ndk1::__hash_value_type<void*, bool>, std::__ndk1::__unordered_map_hasher<void*, std::__ndk1::__hash_value_type<void*, bool>, std::__ndk1::hash<void*>, std::__ndk1::equal_to<void*>, true>, std::__ndk1::__unordered_map_equal<void*, std::__ndk1::__hash_value_type<void*, bool>, std::__ndk1::equal_to<void*>, std::__ndk1::hash<void*>, true>, std::__ndk1::allocator<std::__ndk1::__hash_value_type<void*, bool> > >::__emplace_unique_key_args<void*, std::__ndk1::piecewise_construct_t const&, std::__ndk1::tuple<void* const&>, std::__ndk1::tuple<> >(void* const&, std::__ndk1::piecewise_construct_t const&, std::__ndk1::tuple<void* const&>, std::__ndk1::tuple<>)
PUBLIC 157fc 0 __udivti3
PUBLIC 15808 0 __udivmodti4
PUBLIC m 15a54 0 __eqtf2
PUBLIC 15af4 0 __unordtf2
PUBLIC 15b2c 0 fmt::v11::detail::write_loc(fmt::v11::basic_appender<char>, fmt::v11::loc_value, fmt::v11::format_specs const&, fmt::v11::detail::locale_ref)
PUBLIC 15dc0 0 fmt::v11::format_facet<std::__ndk1::locale>::~format_facet()
PUBLIC 15e3c 0 fmt::v11::report_error(char const*)
PUBLIC 15e8c 0 fmt::v11::format_error::runtime_error(char const*)
PUBLIC 15eb8 0 fmt::v11::format_facet<std::__ndk1::locale>::do_put(fmt::v11::basic_appender<char>, fmt::v11::loc_value, fmt::v11::format_specs const&) const
PUBLIC 16678 0 fmt::v11::detail::loc_writer<char>::~loc_writer()
PUBLIC 166dc 0 fmt::v11::vformat(fmt::v11::basic_string_view<char>, fmt::v11::basic_format_args<fmt::v11::context>)
PUBLIC 16818 0 fmt::v11::detail::vformat_to<char>(fmt::v11::detail::buffer<char>&, fmt::v11::basic_string_view<char>, fmt::v11::detail::vformat_args<char>::type, fmt::v11::detail::locale_ref)
PUBLIC 16d88 0 fmt::v11::detail::is_printable(unsigned int)
PUBLIC 16fb0 0 fmt::v11::detail::dragonbox::to_decimal<float>(float)
PUBLIC 1728c 0 fmt::v11::detail::dragonbox::to_decimal<double>(double)
PUBLIC 177c8 0 fmt::v11::basic_memory_buffer<char, (unsigned long)500, std::__ndk1::allocator<char> >::grow(fmt::v11::detail::buffer<char>&, unsigned long)
PUBLIC 17840 0 fmt::v11::format_facet<std::__ndk1::locale>::~format_facet()
PUBLIC 178cc 0 fmt::v11::format_error::~format_error()
PUBLIC 178f0 0 fmt::v11::detail::copy_noinline<char, char const*, fmt::v11::basic_appender<char> >(char const*, char const*, fmt::v11::basic_appender<char>)
PUBLIC 17a40 0 fmt::v11::detail::default_arg_formatter<char>::operator()<bool>(bool)
PUBLIC 17aa8 0 fmt::v11::detail::default_arg_formatter<char>::operator()<char>(char)
PUBLIC 17b38 0 fmt::v11::detail::default_arg_formatter<char>::operator()<float>(float)
PUBLIC 17c24 0 fmt::v11::detail::default_arg_formatter<char>::operator()<double>(double)
PUBLIC 17d10 0 fmt::v11::detail::default_arg_formatter<char>::operator()<char const*>(char const*)
PUBLIC 17d58 0 fmt::v11::detail::default_arg_formatter<char>::operator()<void const*>(void const*)
PUBLIC 17df0 0 _ZN3fmt3v116detail5writeIcNS0_14basic_appenderIcEEiTnNSt6__ndk19enable_ifIXaaaasr11is_integralIT1_EE5valuentsr3std7is_sameIS7_bEE5valuentsr3std7is_sameIS7_T_EE5valueEiE4typeELi0EEET0_SB_S7_
PUBLIC 18050 0 fmt::v11::detail::copy_noinline<char, char*, fmt::v11::basic_appender<char> >(char*, char*, fmt::v11::basic_appender<char>)
PUBLIC 181a0 0 _ZN3fmt3v116detail5writeIcNS0_14basic_appenderIcEEjTnNSt6__ndk19enable_ifIXaaaasr11is_integralIT1_EE5valuentsr3std7is_sameIS7_bEE5valuentsr3std7is_sameIS7_T_EE5valueEiE4typeELi0EEET0_SB_S7_
PUBLIC 18380 0 _ZN3fmt3v116detail5writeIcNS0_14basic_appenderIcEExTnNSt6__ndk19enable_ifIXaaaasr11is_integralIT1_EE5valuentsr3std7is_sameIS7_bEE5valuentsr3std7is_sameIS7_T_EE5valueEiE4typeELi0EEET0_SB_S7_
PUBLIC 18604 0 _ZN3fmt3v116detail5writeIcNS0_14basic_appenderIcEEyTnNSt6__ndk19enable_ifIXaaaasr11is_integralIT1_EE5valuentsr3std7is_sameIS7_bEE5valuentsr3std7is_sameIS7_T_EE5valueEiE4typeELi0EEET0_SB_S7_
PUBLIC 1880c 0 _ZN3fmt3v116detail5writeIcNS0_14basic_appenderIcEEnTnNSt6__ndk19enable_ifIXaaaasr11is_integralIT1_EE5valuentsr3std7is_sameIS7_bEE5valuentsr3std7is_sameIS7_T_EE5valueEiE4typeELi0EEET0_SB_S7_
PUBLIC 18b6c 0 _ZN3fmt3v116detail5writeIcNS0_14basic_appenderIcEEoTnNSt6__ndk19enable_ifIXaaaasr11is_integralIT1_EE5valuentsr3std7is_sameIS7_bEE5valuentsr3std7is_sameIS7_T_EE5valueEiE4typeELi0EEET0_SB_S7_
PUBLIC 18e80 0 _ZN3fmt3v116detail5writeIcNS0_14basic_appenderIcEEbTnNSt6__ndk19enable_ifIXsr3std7is_sameIT1_bEE5valueEiE4typeELi0EEET0_SA_S7_RKNS0_12format_specsENS1_10locale_refE
PUBLIC 19110 0 fmt::v11::detail::write_int_noinline<char, fmt::v11::basic_appender<char>, unsigned int>(fmt::v11::basic_appender<char>, fmt::v11::detail::write_int_arg<unsigned int>, fmt::v11::format_specs const&, fmt::v11::detail::locale_ref)
PUBLIC 19eec 0 fmt::v11::detail::fill<char, fmt::v11::basic_appender<char> >(fmt::v11::basic_appender<char>, unsigned long, fmt::v11::detail::fill_t const&)
PUBLIC 1a0bc 0 fmt::v11::detail::write_padded<char, (fmt::v11::align::type)1, fmt::v11::basic_appender<char>, fmt::v11::detail::write_char<char, fmt::v11::basic_appender<char> >(fmt::v11::basic_appender<char>, char, fmt::v11::format_specs const&)::{lambda(fmt::v11::basic_appender<char>&)#1}>(fmt::v11::basic_appender<char>, fmt::v11::format_specs const&, unsigned long, unsigned long, fmt::v11::detail::write_char<char, fmt::v11::basic_appender<char> >(fmt::v11::basic_appender<char>, char, fmt::v11::format_specs const&)::{lambda(fmt::v11::basic_appender<char>&)#1})
PUBLIC 1a2f8 0 fmt::v11::detail::write_escaped_cp<fmt::v11::basic_appender<char>, char>(fmt::v11::basic_appender<char>, fmt::v11::detail::find_escape_result<char> const&)
PUBLIC 1a604 0 fmt::v11::detail::write_codepoint<(unsigned long)2, char, fmt::v11::basic_appender<char> >(fmt::v11::basic_appender<char>, char, unsigned int)
PUBLIC 1a77c 0 fmt::v11::detail::write_codepoint<(unsigned long)8, char, fmt::v11::basic_appender<char> >(fmt::v11::basic_appender<char>, char, unsigned int)
PUBLIC 1a8f4 0 fmt::v11::detail::write_padded<char, (fmt::v11::align::type)1, fmt::v11::basic_appender<char>, fmt::v11::detail::write_nonfinite<char, fmt::v11::basic_appender<char> >(fmt::v11::basic_appender<char>, bool, fmt::v11::format_specs, fmt::v11::sign::type)::{lambda(fmt::v11::basic_appender<char>&)#1}>(fmt::v11::basic_appender<char>, fmt::v11::format_specs const&, unsigned long, unsigned long, fmt::v11::detail::write_nonfinite<char, fmt::v11::basic_appender<char> >(fmt::v11::basic_appender<char>, bool, fmt::v11::format_specs, fmt::v11::sign::type)::{lambda(fmt::v11::basic_appender<char>&)#1})
PUBLIC 1ab34 0 fmt::v11::detail::do_write_float<char, fmt::v11::basic_appender<char>, fmt::v11::detail::dragonbox::decimal_fp<float>, fmt::v11::detail::digit_grouping<char> >(fmt::v11::basic_appender<char>, fmt::v11::detail::dragonbox::decimal_fp<float> const&, fmt::v11::format_specs const&, fmt::v11::detail::float_specs, fmt::v11::detail::locale_ref)
PUBLIC 1b7a8 0 fmt::v11::detail::do_write_float<char, fmt::v11::basic_appender<char>, fmt::v11::detail::dragonbox::decimal_fp<float>, fmt::v11::detail::digit_grouping<char> >(fmt::v11::basic_appender<char>, fmt::v11::detail::dragonbox::decimal_fp<float> const&, fmt::v11::format_specs const&, fmt::v11::detail::float_specs, fmt::v11::detail::locale_ref)::{lambda(fmt::v11::basic_appender<char>(fmt::v11::basic_appender<char>))#1}::operator() const
PUBLIC 1b8fc 0 fmt::v11::detail::digit_grouping<char>::digit_grouping(fmt::v11::detail::locale_ref, bool)
PUBLIC 1bb68 0 fmt::v11::detail::digit_grouping<char>::~digit_grouping()
PUBLIC 1bbac 0 fmt::v11::detail::write_exponent<char, fmt::v11::basic_appender<char> >(int, fmt::v11::basic_appender<char>)
PUBLIC 1bd7c 0 _ZN3fmt3v116detail17write_significandIcjTnNSt6__ndk19enable_ifIXsr3std11is_integralIT0_EE5valueEiE4typeELi0EEEPT_S9_S5_iiS8_
PUBLIC 1bef8 0 fmt::v11::detail::digit_grouping<char>::apply<fmt::v11::basic_appender<char>, char>(fmt::v11::basic_appender<char>, fmt::v11::basic_string_view<char>) const
PUBLIC 1c2b0 0 fmt::v11::basic_memory_buffer<int, (unsigned long)500, std::__ndk1::allocator<int> >::grow(fmt::v11::detail::buffer<int>&, unsigned long)
PUBLIC 1c350 0 fmt::v11::detail::do_write_float<char, fmt::v11::basic_appender<char>, fmt::v11::detail::dragonbox::decimal_fp<double>, fmt::v11::detail::digit_grouping<char> >(fmt::v11::basic_appender<char>, fmt::v11::detail::dragonbox::decimal_fp<double> const&, fmt::v11::format_specs const&, fmt::v11::detail::float_specs, fmt::v11::detail::locale_ref)
PUBLIC 1d004 0 fmt::v11::detail::do_write_float<char, fmt::v11::basic_appender<char>, fmt::v11::detail::dragonbox::decimal_fp<double>, fmt::v11::detail::digit_grouping<char> >(fmt::v11::basic_appender<char>, fmt::v11::detail::dragonbox::decimal_fp<double> const&, fmt::v11::format_specs const&, fmt::v11::detail::float_specs, fmt::v11::detail::locale_ref)::{lambda(fmt::v11::basic_appender<char>(fmt::v11::basic_appender<char>))#1}::operator() const
PUBLIC 1d15c 0 _ZN3fmt3v116detail17write_significandIcmTnNSt6__ndk19enable_ifIXsr3std11is_integralIT0_EE5valueEiE4typeELi0EEEPT_S9_S5_iiS8_
PUBLIC 1d2ec 0 fmt::v11::detail::write_float<char, fmt::v11::basic_appender<char>, long double>(fmt::v11::basic_appender<char>, long double, fmt::v11::format_specs, fmt::v11::detail::locale_ref)
PUBLIC 1dde8 0 fmt::v11::detail::write_padded<char, (fmt::v11::align::type)2, fmt::v11::basic_appender<char>, fmt::v11::detail::write_bytes<char, (fmt::v11::align::type)2, fmt::v11::basic_appender<char> >(fmt::v11::basic_appender<char>, fmt::v11::basic_string_view<char>, fmt::v11::format_specs const&)::{lambda(fmt::v11::basic_appender<char>&)#1}>(fmt::v11::basic_appender<char>, fmt::v11::format_specs const&, unsigned long, unsigned long, fmt::v11::detail::write_bytes<char, (fmt::v11::align::type)2, fmt::v11::basic_appender<char> >(fmt::v11::basic_appender<char>, fmt::v11::basic_string_view<char>, fmt::v11::format_specs const&)::{lambda(fmt::v11::basic_appender<char>&)#1})
PUBLIC 1dfc4 0 fmt::v11::detail::format_dragon(fmt::v11::detail::basic_fp<unsigned __int128>, unsigned int, int, fmt::v11::detail::buffer<char>&, int&)
PUBLIC 1f3f4 0 fmt::v11::detail::bigint::operator<<=(int)
PUBLIC 1f518 0 fmt::v11::detail::bigint::assign_pow10(int)
PUBLIC 1fc74 0 fmt::v11::detail::bigint::divmod_assign(fmt::v11::detail::bigint const&)
PUBLIC 1ff94 0 fmt::v11::basic_memory_buffer<unsigned int, (unsigned long)32, std::__ndk1::allocator<unsigned int> >::grow(fmt::v11::detail::buffer<unsigned int>&, unsigned long)
PUBLIC 20034 0 fmt::v11::detail::do_write_float<char, fmt::v11::basic_appender<char>, fmt::v11::detail::big_decimal_fp, fmt::v11::detail::digit_grouping<char> >(fmt::v11::basic_appender<char>, fmt::v11::detail::big_decimal_fp const&, fmt::v11::format_specs const&, fmt::v11::detail::float_specs, fmt::v11::detail::locale_ref)
PUBLIC 20ee4 0 fmt::v11::detail::do_write_float<char, fmt::v11::basic_appender<char>, fmt::v11::detail::big_decimal_fp, fmt::v11::detail::digit_grouping<char> >(fmt::v11::basic_appender<char>, fmt::v11::detail::big_decimal_fp const&, fmt::v11::format_specs const&, fmt::v11::detail::float_specs, fmt::v11::detail::locale_ref)::{lambda(fmt::v11::basic_appender<char>(fmt::v11::basic_appender<char>))#1}::operator() const
PUBLIC 21044 0 fmt::v11::detail::write_padded<char, (fmt::v11::align::type)2, fmt::v11::basic_appender<char>, fmt::v11::detail::write_ptr<char, fmt::v11::basic_appender<char>, unsigned long>(fmt::v11::basic_appender<char>, unsigned long, fmt::v11::format_specs const*)::{lambda(fmt::v11::basic_appender<char>&)#1}>(fmt::v11::basic_appender<char>, fmt::v11::format_specs const&, unsigned long, unsigned long, fmt::v11::detail::write_ptr<char, fmt::v11::basic_appender<char>, unsigned long>(fmt::v11::basic_appender<char>, unsigned long, fmt::v11::format_specs const*)::{lambda(fmt::v11::basic_appender<char>&)#1})
PUBLIC 21258 0 fmt::v11::detail::parse_replacement_field<char, fmt::v11::detail::vformat_to<char>(fmt::v11::detail::buffer<char>&, fmt::v11::basic_string_view<char>, fmt::v11::detail::vformat_args<char>::type, fmt::v11::detail::locale_ref)::format_handler&>(char const*, char const*, fmt::v11::detail::vformat_to<char>(fmt::v11::detail::buffer<char>&, fmt::v11::basic_string_view<char>, fmt::v11::detail::vformat_args<char>::type, fmt::v11::detail::locale_ref)::format_handler&)
PUBLIC 22ef4 0 fmt::v11::detail::parse_dynamic_spec<char>(char const*, char const*, int&, fmt::v11::detail::arg_ref<char>&, fmt::v11::basic_format_parse_context<char>&)
PUBLIC 23184 0 fmt::v11::basic_format_args<fmt::v11::context>::get<char>(fmt::v11::basic_string_view<char>) const
PUBLIC 232dc 0 fmt::v11::detail::write_int_noinline<char, fmt::v11::basic_appender<char>, unsigned long>(fmt::v11::basic_appender<char>, fmt::v11::detail::write_int_arg<unsigned long>, fmt::v11::format_specs const&, fmt::v11::detail::locale_ref)
PUBLIC 24130 0 fmt::v11::detail::write_int_noinline<char, fmt::v11::basic_appender<char>, unsigned __int128>(fmt::v11::basic_appender<char>, fmt::v11::detail::write_int_arg<unsigned __int128>, fmt::v11::format_specs const&, fmt::v11::detail::locale_ref)
PUBLIC 25198 0 _ZN3fmt3v116detail15format_hexfloatIdTnNSt6__ndk19enable_ifIXntsr16is_double_doubleIT_EE5valueEiE4typeELi0EEEvS5_NS0_12format_specsERNS1_6bufferIcEE
PUBLIC 256b8 0 fmt::v11::detail::format_float<double>(double, int, fmt::v11::detail::float_specs, fmt::v11::detail::buffer<char>&)
PUBLIC 26058 0 fmt::v11::detail::write<char, fmt::v11::basic_appender<char> >(fmt::v11::basic_appender<char>, fmt::v11::basic_string_view<char>, fmt::v11::format_specs const&)
PUBLIC 273c4 0 fmt::v11::detail::for_each_codepoint<fmt::v11::detail::compute_width(fmt::v11::basic_string_view<char>)::count_code_points>(fmt::v11::basic_string_view<char>, fmt::v11::detail::compute_width(fmt::v11::basic_string_view<char>)::count_code_points)::{lambda(char const*, char const*)#1}::operator()(char const*, char const*) const
PUBLIC 2757c 0 fmt::v11::detail::write_int<fmt::v11::basic_appender<char>, unsigned long, char>(fmt::v11::basic_appender<char>, unsigned long, unsigned int, fmt::v11::format_specs const&, fmt::v11::detail::digit_grouping<char> const&)
PUBLIC 27af8 0 fmt::v11::detail::write_int<fmt::v11::basic_appender<char>, unsigned __int128, char>(fmt::v11::basic_appender<char>, unsigned __int128, unsigned int, fmt::v11::format_specs const&, fmt::v11::detail::digit_grouping<char> const&)
PUBLIC 28180 0 <.plt ELF section in raydeeux.loadingscreentweaks.android64.so>
STACK CFI INIT d400 10 .cfa: sp 0 +
STACK CFI INIT d410 8 .cfa: sp 0 +
STACK CFI INIT d418 8 .cfa: sp 0 +
STACK CFI INIT d420 14 .cfa: sp 0 +
STACK CFI INIT d434 1c .cfa: sp 0 +
STACK CFI INIT d450 10 .cfa: sp 0 +
STACK CFI INIT d460 30 .cfa: sp 0 +
STACK CFI INIT d490 98 .cfa: sp 0 +
STACK CFI INIT d528 59c .cfa: sp 0 +
STACK CFI INIT dac4 8c .cfa: sp 0 +
STACK CFI INIT db50 30 .cfa: sp 0 +
STACK CFI INIT db80 7c .cfa: sp 0 +
STACK CFI db84 .cfa: sp 48 +
STACK CFI db90 .cfa: x29 48 + x19: .cfa -8 + ^ x20: .cfa -16 + ^ x21: .cfa -32 + ^ .ra: .cfa -40 + ^ x29: .cfa -48 + ^
STACK CFI dbdc .cfa: sp 48 +
STACK CFI dbe8 .cfa: sp 0 +
STACK CFI dbec .cfa: sp 48 +
STACK CFI dbf8 .cfa: sp 0 +
STACK CFI INIT e40c 3c .cfa: sp 0 +
STACK CFI e410 .cfa: sp 32 +
STACK CFI e418 .cfa: x29 32 + x19: .cfa -16 + ^ .ra: .cfa -24 + ^ x29: .cfa -32 + ^
STACK CFI e424 .cfa: sp 32 +
STACK CFI e42c .cfa: sp 0 +
STACK CFI e430 .cfa: x29 32 +
STACK CFI e43c .cfa: sp 32 +
STACK CFI e444 .cfa: sp 0 +
STACK CFI INIT e448 130 .cfa: sp 0 +
STACK CFI e44c .cfa: sp 80 +
STACK CFI e45c .cfa: x29 48 + x19: .cfa -8 + ^ x20: .cfa -16 + ^ x21: .cfa -24 + ^ x22: .cfa -32 + ^ .ra: .cfa -40 + ^ x29: .cfa -48 + ^
STACK CFI e560 .cfa: sp 80 +
STACK CFI e570 .cfa: sp 0 +
STACK CFI e574 .cfa: x29 48 +
STACK CFI INIT e694 50 .cfa: sp 0 +
STACK CFI e698 .cfa: sp 32 +
STACK CFI e6a0 .cfa: x29 32 + x19: .cfa -8 + ^ x20: .cfa -16 + ^ .ra: .cfa -24 + ^ x29: .cfa -32 + ^
STACK CFI e6d8 .cfa: sp 32 +
STACK CFI e6e0 .cfa: sp 0 +
STACK CFI INIT 10490 18 .cfa: sp 0 +
STACK CFI INIT 104a8 10 .cfa: sp 0 +
STACK CFI 104ac .cfa: sp 16 +
STACK CFI 104b0 .cfa: x29 16 + .ra: .cfa -8 + ^ x29: .cfa -16 + ^
STACK CFI INIT 104b8 e8 .cfa: sp 0 +
STACK CFI 104bc .cfa: sp 32 +
STACK CFI 104c4 .cfa: x29 32 + x19: .cfa -8 + ^ x20: .cfa -16 + ^ .ra: .cfa -24 + ^ x29: .cfa -32 + ^
STACK CFI 10504 .cfa: sp 32 +
STACK CFI 1050c .cfa: sp 0 +
STACK CFI 10510 .cfa: x29 32 +
STACK CFI 1054c .cfa: sp 32 +
STACK CFI 10554 .cfa: sp 0 +
STACK CFI 10558 .cfa: x29 32 +
STACK CFI 10578 .cfa: sp 32 +
STACK CFI 10580 .cfa: sp 0 +
STACK CFI 10584 .cfa: x29 32 +
STACK CFI 10594 .cfa: sp 32 +
STACK CFI 1059c .cfa: sp 0 +
STACK CFI INIT 105a0 ac .cfa: sp 0 +
STACK CFI 105a4 .cfa: sp 64 +
STACK CFI 105b4 .cfa: x29 64 + x19: .cfa -8 + ^ x20: .cfa -16 + ^ x21: .cfa -24 + ^ x22: .cfa -32 + ^ x23: .cfa -48 + ^ .ra: .cfa -56 + ^ x29: .cfa -64 + ^
STACK CFI 10630 .cfa: sp 64 +
STACK CFI 10640 .cfa: sp 0 +
STACK CFI 10644 .cfa: x29 64 +
STACK CFI INIT 1064c 110 .cfa: sp 0 +
STACK CFI 10650 .cfa: sp 64 +
STACK CFI 10660 .cfa: x29 64 + x19: .cfa -8 + ^ x20: .cfa -16 + ^ x21: .cfa -24 + ^ x22: .cfa -32 + ^ x23: .cfa -40 + ^ x24: .cfa -48 + ^ .ra: .cfa -56 + ^ x29: .cfa -64 + ^
STACK CFI 10740 .cfa: sp 64 +
STACK CFI 10750 .cfa: sp 0 +
STACK CFI 10754 .cfa: x29 64 +
STACK CFI INIT 1075c 14 .cfa: sp 0 +
STACK CFI 10760 .cfa: sp 16 +
STACK CFI 10764 .cfa: x29 16 + .ra: .cfa -8 + ^ x29: .cfa -16 + ^
STACK CFI INIT 107c0 30 .cfa: sp 0 +
STACK CFI 107c4 .cfa: sp 32 +
STACK CFI 107cc .cfa: x29 32 + x19: .cfa -16 + ^ .ra: .cfa -24 + ^ x29: .cfa -32 + ^
STACK CFI 107e4 .cfa: sp 32 +
STACK CFI 107ec .cfa: sp 0 +
STACK CFI INIT 107f0 34 .cfa: sp 0 +
STACK CFI 107f4 .cfa: sp 32 +
STACK CFI 107fc .cfa: x29 32 + x19: .cfa -16 + ^ .ra: .cfa -24 + ^ x29: .cfa -32 + ^
STACK CFI INIT 10b28 80 .cfa: sp 0 +
STACK CFI 10b2c .cfa: sp 48 +
STACK CFI 10b38 .cfa: x29 48 + x19: .cfa -8 + ^ x20: .cfa -16 + ^ x21: .cfa -24 + ^ x22: .cfa -32 + ^ .ra: .cfa -40 + ^ x29: .cfa -48 + ^
STACK CFI 10b50 .cfa: sp 48 +
STACK CFI 10b5c .cfa: sp 0 +
STACK CFI 10b60 .cfa: x29 48 +
STACK CFI 10b90 .cfa: sp 48 +
STACK CFI 10b9c .cfa: sp 0 +
STACK CFI 10ba0 .cfa: x29 48 +
STACK CFI INIT 10dcc 68 .cfa: sp 0 +
STACK CFI 10dd0 .cfa: sp 32 +
STACK CFI 10dd8 .cfa: x29 32 + x19: .cfa -8 + ^ x20: .cfa -16 + ^ .ra: .cfa -24 + ^ x29: .cfa -32 + ^
STACK CFI 10df0 .cfa: sp 32 +
STACK CFI 10df8 .cfa: sp 0 +
STACK CFI 10dfc .cfa: x29 32 +
STACK CFI 10e28 .cfa: sp 32 +
STACK CFI 10e30 .cfa: sp 0 +
STACK CFI INIT 10e34 14 .cfa: sp 0 +
STACK CFI 10e38 .cfa: sp 16 +
STACK CFI 10e3c .cfa: x29 16 + .ra: .cfa -8 + ^ x29: .cfa -16 + ^
STACK CFI INIT 10e48 50 .cfa: sp 0 +
STACK CFI 10e4c .cfa: sp 32 +
STACK CFI 10e54 .cfa: x29 32 + x19: .cfa -16 + ^ .ra: .cfa -24 + ^ x29: .cfa -32 + ^
STACK CFI 10e6c .cfa: sp 32 +
STACK CFI 10e74 .cfa: sp 0 +
STACK CFI 10e78 .cfa: x29 32 +
STACK CFI 10e8c .cfa: sp 32 +
STACK CFI 10e94 .cfa: sp 0 +
STACK CFI INIT 10e98 f8 .cfa: sp 0 +
STACK CFI 10e9c .cfa: sp 64 +
STACK CFI 10eac .cfa: x29 64 + x19: .cfa -8 + ^ x20: .cfa -16 + ^ x21: .cfa -24 + ^ x22: .cfa -32 + ^ x23: .cfa -48 + ^ .ra: .cfa -56 + ^ x29: .cfa -64 + ^
STACK CFI 10f08 .cfa: sp 64 +
STACK CFI 10f18 .cfa: sp 0 +
STACK CFI 10f1c .cfa: x29 64 +
STACK CFI 10f38 .cfa: sp 64 +
STACK CFI 10f48 .cfa: sp 0 +
STACK CFI 10f4c .cfa: x29 64 +
STACK CFI 10f7c .cfa: sp 64 +
STACK CFI 10f8c .cfa: sp 0 +
STACK CFI INIT 1153c 50 .cfa: sp 0 +
STACK CFI 11540 .cfa: sp 32 +
STACK CFI 11548 .cfa: x29 32 + x19: .cfa -16 + ^ .ra: .cfa -24 + ^ x29: .cfa -32 + ^
STACK CFI 11560 .cfa: sp 32 +
STACK CFI 11568 .cfa: sp 0 +
STACK CFI 1156c .cfa: x29 32 +
STACK CFI 11580 .cfa: sp 32 +
STACK CFI 11588 .cfa: sp 0 +
STACK CFI INIT 1158c 10 .cfa: sp 0 +
STACK CFI INIT 1159c 30 .cfa: sp 0 +
STACK CFI 115a0 .cfa: sp 32 +
STACK CFI 115a8 .cfa: x29 32 + x19: .cfa -16 + ^ .ra: .cfa -24 + ^ x29: .cfa -32 + ^
STACK CFI 115c0 .cfa: sp 32 +
STACK CFI 115c8 .cfa: sp 0 +
STACK CFI INIT 115cc c .cfa: sp 0 +
STACK CFI INIT 115d8 4 .cfa: sp 0 +
STACK CFI INIT 115dc 34 .cfa: sp 0 +
STACK CFI 115e0 .cfa: sp 16 +
STACK CFI 115e4 .cfa: x29 16 + .ra: .cfa -8 + ^ x29: .cfa -16 + ^
STACK CFI INIT 11610 24 .cfa: sp 0 +
STACK CFI 11614 .cfa: sp 32 +
STACK CFI 1161c .cfa: x29 32 + x19: .cfa -16 + ^ .ra: .cfa -24 + ^ x29: .cfa -32 + ^
STACK CFI 11628 .cfa: sp 32 +
STACK CFI 11630 .cfa: sp 0 +
STACK CFI INIT 11634 4 .cfa: sp 0 +
STACK CFI INIT 11638 4 .cfa: sp 0 +
STACK CFI INIT 1163c 34 .cfa: sp 0 +
STACK CFI 11640 .cfa: sp 32 +
STACK CFI 11648 .cfa: x29 32 + x19: .cfa -16 + ^ .ra: .cfa -24 + ^ x29: .cfa -32 + ^
STACK CFI 11664 .cfa: sp 32 +
STACK CFI 1166c .cfa: sp 0 +
STACK CFI INIT 11670 14 .cfa: sp 0 +
STACK CFI INIT 11684 4 .cfa: sp 0 +
STACK CFI INIT 11688 4 .cfa: sp 0 +
STACK CFI INIT 1168c 14 .cfa: sp 0 +
STACK CFI INIT 116a0 1c .cfa: sp 0 +
STACK CFI INIT 116bc c .cfa: sp 0 +
STACK CFI INIT 116c8 4 .cfa: sp 0 +
STACK CFI INIT 116cc 14 .cfa: sp 0 +
STACK CFI INIT 11880 80 .cfa: sp 0 +
STACK CFI 11884 .cfa: sp 48 +
STACK CFI 11890 .cfa: x29 48 + x19: .cfa -8 + ^ x20: .cfa -16 + ^ x21: .cfa -32 + ^ .ra: .cfa -40 + ^ x29: .cfa -48 + ^
STACK CFI 118f0 .cfa: sp 48 +
STACK CFI 118fc .cfa: sp 0 +
STACK CFI INIT 11df8 148 .cfa: sp 0 +
STACK CFI 11dfc .cfa: sp 48 +
STACK CFI 11e08 .cfa: x29 48 + x19: .cfa -8 + ^ x20: .cfa -16 + ^ x21: .cfa -32 + ^ .ra: .cfa -40 + ^ x29: .cfa -48 + ^
STACK CFI 11f30 .cfa: sp 48 +
STACK CFI 11f3c .cfa: sp 0 +
STACK CFI INIT 11f40 4 .cfa: sp 0 +
STACK CFI INIT 11f44 14 .cfa: sp 0 +
STACK CFI INIT 11f58 4 .cfa: sp 0 +
STACK CFI INIT 11f5c 14 .cfa: sp 0 +
STACK CFI INIT 11f70 4 .cfa: sp 0 +
STACK CFI INIT 120d8 5c .cfa: sp 0 +
STACK CFI 120dc .cfa: sp 32 +
STACK CFI 120e4 .cfa: x29 32 + x19: .cfa -16 + ^ .ra: .cfa -24 + ^ x29: .cfa -32 + ^
STACK CFI 12128 .cfa: sp 32 +
STACK CFI 12130 .cfa: sp 0 +
STACK CFI INIT 12134 64 .cfa: sp 0 +
STACK CFI 12138 .cfa: sp 32 +
STACK CFI 12140 .cfa: x29 32 + x19: .cfa -16 + ^ .ra: .cfa -24 + ^ x29: .cfa -32 + ^
STACK CFI 1218c .cfa: sp 32 +
STACK CFI 12194 .cfa: sp 0 +
STACK CFI INIT 12198 4 .cfa: sp 0 +
STACK CFI INIT 1219c 4 .cfa: sp 0 +
STACK CFI INIT 121a0 34 .cfa: sp 0 +
STACK CFI 121a4 .cfa: sp 32 +
STACK CFI 121ac .cfa: x29 32 + x19: .cfa -16 + ^ .ra: .cfa -24 + ^ x29: .cfa -32 + ^
STACK CFI 121c8 .cfa: sp 32 +
STACK CFI 121d0 .cfa: sp 0 +
STACK CFI INIT 121d4 14 .cfa: sp 0 +
STACK CFI INIT 121e8 4 .cfa: sp 0 +
STACK CFI INIT 121ec 4 .cfa: sp 0 +
STACK CFI INIT 121f0 10 .cfa: sp 0 +
STACK CFI INIT 12200 1c .cfa: sp 0 +
STACK CFI INIT 1221c c .cfa: sp 0 +
STACK CFI INIT 12228 200 .cfa: sp 0 +
STACK CFI INIT 1288c 50 .cfa: sp 0 +
STACK CFI 12890 .cfa: sp 32 +
STACK CFI 12898 .cfa: x29 32 + x19: .cfa -16 + ^ .ra: .cfa -24 + ^ x29: .cfa -32 + ^
STACK CFI 128b0 .cfa: sp 32 +
STACK CFI 128b8 .cfa: sp 0 +
STACK CFI 128bc .cfa: x29 32 +
STACK CFI 128d0 .cfa: sp 32 +
STACK CFI 128d8 .cfa: sp 0 +
STACK CFI INIT 12950 4 .cfa: sp 0 +
STACK CFI INIT 12aa8 4 .cfa: sp 0 +
STACK CFI INIT 12aac 14 .cfa: sp 0 +
STACK CFI INIT 12ac0 84 .cfa: sp 0 +
STACK CFI 12ac8 .cfa: sp 32 +
STACK CFI 12ad0 .cfa: x29 32 + x19: .cfa -8 + ^ x20: .cfa -16 + ^ .ra: .cfa -24 + ^ x29: .cfa -32 + ^
STACK CFI 12b10 .cfa: sp 32 +
STACK CFI 12b18 .cfa: sp 0 +
STACK CFI 12b20 .cfa: x29 32 +
STACK CFI INIT 133a8 50 .cfa: sp 0 +
STACK CFI 133ac .cfa: sp 32 +
STACK CFI 133b4 .cfa: x29 32 + x19: .cfa -16 + ^ .ra: .cfa -24 + ^ x29: .cfa -32 + ^
STACK CFI 133cc .cfa: sp 32 +
STACK CFI 133d4 .cfa: sp 0 +
STACK CFI 133d8 .cfa: x29 32 +
STACK CFI 133ec .cfa: sp 32 +
STACK CFI 133f4 .cfa: sp 0 +
STACK CFI INIT 133f8 64 .cfa: sp 0 +
STACK CFI 133fc .cfa: sp 32 +
STACK CFI 13404 .cfa: x29 32 + x19: .cfa -16 + ^ .ra: .cfa -24 + ^ x29: .cfa -32 + ^
STACK CFI 13430 .cfa: sp 32 +
STACK CFI 13438 .cfa: sp 0 +
STACK CFI 1343c .cfa: x29 32 +
STACK CFI 13450 .cfa: sp 32 +
STACK CFI 13458 .cfa: sp 0 +
STACK CFI INIT 135c4 8c .cfa: sp 0 +
STACK CFI 135c8 .cfa: sp 48 +
STACK CFI 135d4 .cfa: x29 48 + x19: .cfa -8 + ^ x20: .cfa -16 + ^ x21: .cfa -24 + ^ x22: .cfa -32 + ^ .ra: .cfa -40 + ^ x29: .cfa -48 + ^
STACK CFI 135dc .cfa: sp 48 +
STACK CFI 135e8 .cfa: sp 0 +
STACK CFI 135ec .cfa: x29 48 +
STACK CFI 13640 .cfa: sp 48 +
STACK CFI 1364c .cfa: sp 0 +
STACK CFI INIT 13650 60 .cfa: sp 0 +
STACK CFI 13660 .cfa: sp 32 +
STACK CFI 13668 .cfa: x29 32 + x19: .cfa -8 + ^ x20: .cfa -16 + ^ .ra: .cfa -24 + ^ x29: .cfa -32 + ^
STACK CFI 136a4 .cfa: sp 32 +
STACK CFI 136ac .cfa: sp 0 +
STACK CFI INIT 136b0 1b0 .cfa: sp 0 +
STACK CFI INIT 1403c 24 .cfa: sp 0 +
STACK CFI 14040 .cfa: sp 32 +
STACK CFI 14048 .cfa: x29 32 + x19: .cfa -16 + ^ .ra: .cfa -24 + ^ x29: .cfa -32 + ^
STACK CFI 14054 .cfa: sp 32 +
STACK CFI 1405c .cfa: sp 0 +
STACK CFI INIT 14060 8 .cfa: sp 0 +
STACK CFI INIT 14068 8 .cfa: sp 0 +
STACK CFI INIT 14070 8 .cfa: sp 0 +
STACK CFI INIT 14078 4 .cfa: sp 0 +
STACK CFI INIT 1407c 8 .cfa: sp 0 +
STACK CFI INIT 14084 8c .cfa: sp 0 +
STACK CFI 14088 .cfa: sp 32 +
STACK CFI 14090 .cfa: x29 32 + x19: .cfa -8 + ^ x20: .cfa -16 + ^ .ra: .cfa -24 + ^ x29: .cfa -32 + ^
STACK CFI 140dc .cfa: sp 32 +
STACK CFI 140e4 .cfa: sp 0 +
STACK CFI 140e8 .cfa: x29 32 +
STACK CFI 14104 .cfa: sp 32 +
STACK CFI 1410c .cfa: sp 0 +
STACK CFI INIT 14110 9c .cfa: sp 0 +
STACK CFI 14114 .cfa: sp 32 +
STACK CFI 1411c .cfa: x29 32 + x19: .cfa -8 + ^ x20: .cfa -16 + ^ .ra: .cfa -24 + ^ x29: .cfa -32 + ^
STACK CFI 14170 .cfa: sp 32 +
STACK CFI 14178 .cfa: sp 0 +
STACK CFI 1417c .cfa: x29 32 +
STACK CFI 141a0 .cfa: sp 32 +
STACK CFI 141a8 .cfa: sp 0 +
STACK CFI INIT 141ac 4 .cfa: sp 0 +
STACK CFI INIT 141b0 4 .cfa: sp 0 +
STACK CFI INIT 141b4 8 .cfa: sp 0 +
STACK CFI INIT 141bc 8 .cfa: sp 0 +
STACK CFI INIT 1426c 34 .cfa: sp 0 +
STACK CFI 14270 .cfa: sp 16 +
STACK CFI 14274 .cfa: x29 16 + .ra: .cfa -8 + ^ x29: .cfa -16 + ^
STACK CFI INIT 142a0 34 .cfa: sp 0 +
STACK CFI 142a4 .cfa: sp 16 +
STACK CFI 142a8 .cfa: x29 16 + .ra: .cfa -8 + ^ x29: .cfa -16 + ^
STACK CFI INIT 142d4 3c .cfa: sp 0 +
STACK CFI 142d8 .cfa: sp 32 +
STACK CFI 142e0 .cfa: x29 32 + x19: .cfa -16 + ^ .ra: .cfa -24 + ^ x29: .cfa -32 + ^
STACK CFI 142ec .cfa: sp 32 +
STACK CFI 142f4 .cfa: sp 0 +
STACK CFI 142f8 .cfa: x29 32 +
STACK CFI 14304 .cfa: sp 32 +
STACK CFI 1430c .cfa: sp 0 +
STACK CFI INIT 14310 4c .cfa: sp 0 +
STACK CFI 14314 .cfa: sp 32 +
STACK CFI 1431c .cfa: x29 32 + x19: .cfa -8 + ^ x20: .cfa -16 + ^ .ra: .cfa -24 + ^ x29: .cfa -32 + ^
STACK CFI 14344 .cfa: sp 32 +
STACK CFI 1434c .cfa: sp 0 +
STACK CFI 14350 .cfa: sp 32 +
STACK CFI 14358 .cfa: sp 0 +
STACK CFI INIT 1457c 64 .cfa: sp 0 +
STACK CFI 14580 .cfa: sp 32 +
STACK CFI 14588 .cfa: x29 32 + x19: .cfa -16 + ^ .ra: .cfa -24 + ^ x29: .cfa -32 + ^
STACK CFI 145b4 .cfa: sp 32 +
STACK CFI 145bc .cfa: sp 0 +
STACK CFI 145c0 .cfa: x29 32 +
STACK CFI 145d4 .cfa: sp 32 +
STACK CFI 145dc .cfa: sp 0 +
STACK CFI INIT 145e0 24 .cfa: sp 0 +
STACK CFI 145e4 .cfa: sp 32 +
STACK CFI 145ec .cfa: x29 32 + x19: .cfa -16 + ^ .ra: .cfa -24 + ^ x29: .cfa -32 + ^
STACK CFI 145f8 .cfa: sp 32 +
STACK CFI 14600 .cfa: sp 0 +
STACK CFI INIT 14860 24 .cfa: sp 0 +
STACK CFI 14864 .cfa: sp 32 +
STACK CFI 1486c .cfa: x29 32 + x19: .cfa -16 + ^ .ra: .cfa -24 + ^ x29: .cfa -32 + ^
STACK CFI 14878 .cfa: sp 32 +
STACK CFI 14880 .cfa: sp 0 +
STACK CFI INIT 14884 4 .cfa: sp 0 +
STACK CFI INIT 152d8 4 .cfa: sp 0 +
STACK CFI INIT 152dc 14 .cfa: sp 0 +
STACK CFI INIT 157fc c .cfa: sp 0 +
STACK CFI INIT 15808 24c .cfa: sp 0 +
STACK CFI INIT 15a54 a0 .cfa: sp 0 +
STACK CFI 15a60 .cfa: sp 32 +
STACK CFI 15ab8 .cfa: sp 0 +
STACK CFI 15abc .cfa: sp 32 +
STACK CFI 15ac4 .cfa: sp 0 +
STACK CFI 15ac8 .cfa: sp 32 +
STACK CFI 15adc .cfa: sp 0 +
STACK CFI 15ae0 .cfa: sp 32 +
STACK CFI 15af0 .cfa: sp 0 +
STACK CFI INIT 15af4 38 .cfa: sp 0 +
STACK CFI 15b00 .cfa: sp 32 +
STACK CFI 15b28 .cfa: sp 0 +
STACK CFI INIT 15dc0 7c .cfa: sp 0 +
STACK CFI 15dc4 .cfa: sp 32 +
STACK CFI 15dcc .cfa: x29 32 + x19: .cfa -16 + ^ .ra: .cfa -24 + ^ x29: .cfa -32 + ^
STACK CFI 15df8 .cfa: sp 32 +
STACK CFI 15e00 .cfa: sp 0 +
STACK CFI 15e04 .cfa: x29 32 +
STACK CFI 15e30 .cfa: sp 32 +
STACK CFI 15e38 .cfa: sp 0 +
STACK CFI INIT 15e8c 2c .cfa: sp 0 +
STACK CFI 15e90 .cfa: sp 32 +
STACK CFI 15e98 .cfa: x29 32 + x19: .cfa -16 + ^ .ra: .cfa -24 + ^ x29: .cfa -32 + ^
STACK CFI 15eac .cfa: sp 32 +
STACK CFI 15eb4 .cfa: sp 0 +
STACK CFI INIT 16678 64 .cfa: sp 0 +
STACK CFI 1667c .cfa: sp 32 +
STACK CFI 16684 .cfa: x29 32 + x19: .cfa -16 + ^ .ra: .cfa -24 + ^ x29: .cfa -32 + ^
STACK CFI 166a0 .cfa: sp 32 +
STACK CFI 166a8 .cfa: sp 0 +
STACK CFI 166ac .cfa: x29 32 +
STACK CFI 166d0 .cfa: sp 32 +
STACK CFI 166d8 .cfa: sp 0 +
STACK CFI INIT 16818 570 .cfa: sp 0 +
STACK CFI 1681c .cfa: sp 176 +
STACK CFI 16830 .cfa: x29 64 + x19: .cfa -8 + ^ x20: .cfa -16 + ^ x21: .cfa -24 + ^ x22: .cfa -32 + ^ x23: .cfa -40 + ^ x24: .cfa -48 + ^ .ra: .cfa -56 + ^ x29: .cfa -64 + ^
STACK CFI 16a60 .cfa: sp 176 +
STACK CFI 16a74 .cfa: sp 0 +
STACK CFI 16a78 .cfa: x29 64 +
STACK CFI 16ac4 .cfa: sp 176 +
STACK CFI 16ad8 .cfa: sp 0 +
STACK CFI 16adc .cfa: x29 64 +
STACK CFI 16b14 .cfa: sp 176 +
STACK CFI 16b28 .cfa: sp 0 +
STACK CFI 16b2c .cfa: x29 64 +
STACK CFI 16b44 .cfa: sp 176 +
STACK CFI 16b58 .cfa: sp 0 +
STACK CFI 16b5c .cfa: x29 64 +
STACK CFI 16b7c .cfa: sp 176 +
STACK CFI 16b90 .cfa: sp 0 +
STACK CFI 16b94 .cfa: x29 64 +
STACK CFI 16bac .cfa: sp 176 +
STACK CFI 16bc0 .cfa: sp 0 +
STACK CFI 16bc4 .cfa: x29 64 +
STACK CFI 16bd8 .cfa: sp 176 +
STACK CFI 16bec .cfa: sp 0 +
STACK CFI 16bf0 .cfa: x29 64 +
STACK CFI 16c04 .cfa: sp 176 +
STACK CFI 16c18 .cfa: sp 0 +
STACK CFI 16c1c .cfa: x29 64 +
STACK CFI 16c2c .cfa: sp 176 +
STACK CFI 16c40 .cfa: sp 0 +
STACK CFI 16c44 .cfa: x29 64 +
STACK CFI 16c54 .cfa: sp 176 +
STACK CFI 16c68 .cfa: sp 0 +
STACK CFI 16c6c .cfa: x29 64 +
STACK CFI 16c84 .cfa: sp 176 +
STACK CFI 16c98 .cfa: sp 0 +
STACK CFI 16c9c .cfa: x29 64 +
STACK CFI 16cb0 .cfa: sp 176 +
STACK CFI 16cc4 .cfa: sp 0 +
STACK CFI 16cc8 .cfa: x29 64 +
STACK CFI 16ce0 .cfa: sp 176 +
STACK CFI 16cf4 .cfa: sp 0 +
STACK CFI 16cf8 .cfa: x29 64 +
STACK CFI 16d24 .cfa: sp 176 +
STACK CFI 16d38 .cfa: sp 0 +
STACK CFI 16d3c .cfa: x29 64 +
STACK CFI 16d50 .cfa: sp 176 +
STACK CFI 16d64 .cfa: sp 0 +
STACK CFI 16d68 .cfa: x29 64 +
STACK CFI INIT 16d88 228 .cfa: sp 0 +
STACK CFI INIT 16fb0 2dc .cfa: sp 0 +
STACK CFI INIT 1728c 53c .cfa: sp 0 +
STACK CFI INIT 177c8 78 .cfa: sp 0 +
STACK CFI 177cc .cfa: sp 48 +
STACK CFI 177d8 .cfa: x29 48 + x19: .cfa -8 + ^ x20: .cfa -16 + ^ x21: .cfa -24 + ^ x22: .cfa -32 + ^ .ra: .cfa -40 + ^ x29: .cfa -48 + ^
STACK CFI 17820 .cfa: sp 48 +
STACK CFI 1782c .cfa: sp 0 +
STACK CFI 17830 .cfa: sp 48 +
STACK CFI 1783c .cfa: sp 0 +
STACK CFI INIT 17840 8c .cfa: sp 0 +
STACK CFI 17844 .cfa: sp 32 +
STACK CFI 1784c .cfa: x29 32 + x19: .cfa -16 + ^ .ra: .cfa -24 + ^ x29: .cfa -32 + ^
STACK CFI 17880 .cfa: sp 32 +
STACK CFI 17888 .cfa: sp 0 +
STACK CFI 1788c .cfa: x29 32 +
STACK CFI 178c0 .cfa: sp 32 +
STACK CFI 178c8 .cfa: sp 0 +
STACK CFI INIT 178cc 24 .cfa: sp 0 +
STACK CFI 178d0 .cfa: sp 32 +
STACK CFI 178d8 .cfa: x29 32 + x19: .cfa -16 + ^ .ra: .cfa -24 + ^ x29: .cfa -32 + ^
STACK CFI 178e4 .cfa: sp 32 +
STACK CFI 178ec .cfa: sp 0 +
STACK CFI INIT 178f0 150 .cfa: sp 0 +
STACK CFI 178f4 .cfa: sp 48 +
STACK CFI 17900 .cfa: x29 48 + x19: .cfa -8 + ^ x20: .cfa -16 + ^ x21: .cfa -24 + ^ x22: .cfa -32 + ^ .ra: .cfa -40 + ^ x29: .cfa -48 + ^
STACK CFI 17a30 .cfa: sp 48 +
STACK CFI 17a3c .cfa: sp 0 +
STACK CFI INIT 17a40 68 .cfa: sp 0 +
STACK CFI 17a44 .cfa: sp 64 +
STACK CFI 17a50 .cfa: x29 32 + x19: .cfa -16 + ^ .ra: .cfa -24 + ^ x29: .cfa -32 + ^
STACK CFI 17a94 .cfa: sp 64 +
STACK CFI 17aa0 .cfa: sp 0 +
STACK CFI 17aa4 .cfa: x29 32 +
STACK CFI INIT 17aa8 90 .cfa: sp 0 +
STACK CFI 17aac .cfa: sp 32 +
STACK CFI 17ab4 .cfa: x29 32 + x19: .cfa -8 + ^ x20: .cfa -16 + ^ .ra: .cfa -24 + ^ x29: .cfa -32 + ^
STACK CFI 17ae0 .cfa: sp 32 +
STACK CFI 17ae8 .cfa: sp 0 +
STACK CFI 17aec .cfa: x29 32 +
STACK CFI 17b2c .cfa: sp 32 +
STACK CFI 17b34 .cfa: sp 0 +
STACK CFI INIT 17b38 ec .cfa: sp 0 +
STACK CFI 17b3c .cfa: sp 112 +
STACK CFI 17b4c .cfa: x29 48 + x19: .cfa -8 + ^ x20: .cfa -16 + ^ x21: .cfa -32 + ^ .ra: .cfa -40 + ^ x29: .cfa -48 + ^
STACK CFI 17c0c .cfa: sp 112 +
STACK CFI 17c1c .cfa: sp 0 +
STACK CFI 17c20 .cfa: x29 48 +
STACK CFI INIT 17c24 ec .cfa: sp 0 +
STACK CFI 17c28 .cfa: sp 112 +
STACK CFI 17c38 .cfa: x29 48 + x19: .cfa -8 + ^ x20: .cfa -16 + ^ x21: .cfa -32 + ^ .ra: .cfa -40 + ^ x29: .cfa -48 + ^
STACK CFI 17cf8 .cfa: sp 112 +
STACK CFI 17d08 .cfa: sp 0 +
STACK CFI 17d0c .cfa: x29 48 +
STACK CFI INIT 17d10 48 .cfa: sp 0 +
STACK CFI 17d14 .cfa: sp 32 +
STACK CFI 17d1c .cfa: x29 32 + x19: .cfa -8 + ^ x20: .cfa -16 + ^ .ra: .cfa -24 + ^ x29: .cfa -32 + ^
STACK CFI 17d40 .cfa: sp 32 +
STACK CFI 17d48 .cfa: sp 0 +
STACK CFI 17d4c .cfa: x29 32 +
STACK CFI INIT 17d58 98 .cfa: sp 0 +
STACK CFI 17d5c .cfa: sp 80 +
STACK CFI 17d68 .cfa: x29 32 + x19: .cfa -16 + ^ .ra: .cfa -24 + ^ x29: .cfa -32 + ^
STACK CFI 17ddc .cfa: sp 80 +
STACK CFI 17de8 .cfa: sp 0 +
STACK CFI 17dec .cfa: x29 32 +
STACK CFI INIT 17df0 260 .cfa: sp 0 +
STACK CFI 17df4 .cfa: sp 112 +
STACK CFI 17e0c .cfa: x29 80 + x19: .cfa -8 + ^ x20: .cfa -16 + ^ x21: .cfa -24 + ^ x22: .cfa -32 + ^ x23: .cfa -40 + ^ x24: .cfa -48 + ^ x25: .cfa -64 + ^ .ra: .cfa -72 + ^ x29: .cfa -80 + ^
STACK CFI 17ff0 .cfa: sp 112 +
STACK CFI 18008 .cfa: sp 0 +
STACK CFI 1800c .cfa: x29 80 +
STACK CFI INIT 18050 150 .cfa: sp 0 +
STACK CFI 18054 .cfa: sp 48 +
STACK CFI 18060 .cfa: x29 48 + x19: .cfa -8 + ^ x20: .cfa -16 + ^ x21: .cfa -24 + ^ x22: .cfa -32 + ^ .ra: .cfa -40 + ^ x29: .cfa -48 + ^
STACK CFI 18190 .cfa: sp 48 +
STACK CFI 1819c .cfa: sp 0 +
STACK CFI INIT 181a0 1e0 .cfa: sp 0 +
STACK CFI 181a4 .cfa: sp 96 +
STACK CFI 181b8 .cfa: x29 64 + x19: .cfa -8 + ^ x20: .cfa -16 + ^ x21: .cfa -24 + ^ x22: .cfa -32 + ^ x23: .cfa -40 + ^ x24: .cfa -48 + ^ .ra: .cfa -56 + ^ x29: .cfa -64 + ^
STACK CFI 18338 .cfa: sp 96 +
STACK CFI 1834c .cfa: sp 0 +
STACK CFI 18350 .cfa: x29 64 +
STACK CFI INIT 18380 284 .cfa: sp 0 +
STACK CFI 18384 .cfa: sp 112 +
STACK CFI 1839c .cfa: x29 80 + x19: .cfa -8 + ^ x20: .cfa -16 + ^ x21: .cfa -24 + ^ x22: .cfa -32 + ^ x23: .cfa -40 + ^ x24: .cfa -48 + ^ x25: .cfa -64 + ^ .ra: .cfa -72 + ^ x29: .cfa -80 + ^
STACK CFI 185a4 .cfa: sp 112 +
STACK CFI 185bc .cfa: sp 0 +
STACK CFI 185c0 .cfa: x29 80 +
STACK CFI INIT 18604 208 .cfa: sp 0 +
STACK CFI 18608 .cfa: sp 96 +
STACK CFI 1861c .cfa: x29 64 + x19: .cfa -8 + ^ x20: .cfa -16 + ^ x21: .cfa -24 + ^ x22: .cfa -32 + ^ x23: .cfa -40 + ^ x24: .cfa -48 + ^ .ra: .cfa -56 + ^ x29: .cfa -64 + ^
STACK CFI 187c4 .cfa: sp 96 +
STACK CFI 187d8 .cfa: sp 0 +
STACK CFI 187dc .cfa: x29 64 +
STACK CFI INIT 1880c 360 .cfa: sp 0 +
STACK CFI 18810 .cfa: sp 160 +
STACK CFI 1882c .cfa: x29 96 + x19: .cfa -8 + ^ x20: .cfa -16 + ^ x21: .cfa -24 + ^ x22: .cfa -32 + ^ x23: .cfa -40 + ^ x24: .cfa -48 + ^ x25: .cfa -56 + ^ x26: .cfa -64 + ^ x27: .cfa -72 + ^ x28: .cfa -80 + ^ .ra: .cfa -88 + ^ x29: .cfa -96 + ^
STACK CFI 18af8 .cfa: sp 160 +
STACK CFI 18b14 .cfa: sp 0 +
STACK CFI 18b18 .cfa: x29 96 +
STACK CFI INIT 18b6c 314 .cfa: sp 0 +
STACK CFI 18b70 .cfa: sp 144 +
STACK CFI 18b8c .cfa: x29 96 + x19: .cfa -8 + ^ x20: .cfa -16 + ^ x21: .cfa -24 + ^ x22: .cfa -32 + ^ x23: .cfa -40 + ^ x24: .cfa -48 + ^ x25: .cfa -56 + ^ x26: .cfa -64 + ^ x27: .cfa -72 + ^ x28: .cfa -80 + ^ .ra: .cfa -88 + ^ x29: .cfa -96 + ^
STACK CFI 18e08 .cfa: sp 144 +
STACK CFI 18e24 .cfa: sp 0 +
STACK CFI 18e28 .cfa: x29 96 +
STACK CFI INIT 18e80 290 .cfa: sp 0 +
STACK CFI 18e84 .cfa: sp 128 +
STACK CFI 18e9c .cfa: x29 80 + x19: .cfa -8 + ^ x20: .cfa -16 + ^ x21: .cfa -24 + ^ x22: .cfa -32 + ^ x23: .cfa -40 + ^ x24: .cfa -48 + ^ x25: .cfa -56 + ^ x26: .cfa -64 + ^ .ra: .cfa -72 + ^ x29: .cfa -80 + ^
STACK CFI 190f0 .cfa: sp 128 +
STACK CFI 19108 .cfa: sp 0 +
STACK CFI 1910c .cfa: x29 80 +
STACK CFI INIT 19110 ddc .cfa: sp 0 +
STACK CFI 19114 .cfa: sp 144 +
STACK CFI 19130 .cfa: x29 96 + x19: .cfa -8 + ^ x20: .cfa -16 + ^ x21: .cfa -24 + ^ x22: .cfa -32 + ^ x23: .cfa -40 + ^ x24: .cfa -48 + ^ x25: .cfa -56 + ^ x26: .cfa -64 + ^ x27: .cfa -72 + ^ x28: .cfa -80 + ^ .ra: .cfa -88 + ^ x29: .cfa -96 + ^
STACK CFI 19dc4 .cfa: sp 144 +
STACK CFI 19de0 .cfa: sp 0 +
STACK CFI 19de4 .cfa: x29 96 +
STACK CFI INIT 19eec 1d0 .cfa: sp 0 +
STACK CFI 19ef0 .cfa: sp 80 +
STACK CFI 19f04 .cfa: x29 80 + x19: .cfa -8 + ^ x20: .cfa -16 + ^ x21: .cfa -24 + ^ x22: .cfa -32 + ^ x23: .cfa -40 + ^ x24: .cfa -48 + ^ x25: .cfa -64 + ^ .ra: .cfa -72 + ^ x29: .cfa -80 + ^
STACK CFI 1a0a4 .cfa: sp 80 +
STACK CFI 1a0b8 .cfa: sp 0 +
STACK CFI INIT 1a0bc 23c .cfa: sp 0 +
STACK CFI 1a0c0 .cfa: sp 112 +
STACK CFI 1a0d4 .cfa: x29 64 + x19: .cfa -8 + ^ x20: .cfa -16 + ^ x21: .cfa -24 + ^ x22: .cfa -32 + ^ x23: .cfa -40 + ^ x24: .cfa -48 + ^ .ra: .cfa -56 + ^ x29: .cfa -64 + ^
STACK CFI 1a2b0 .cfa: sp 112 +
STACK CFI 1a2c4 .cfa: sp 0 +
STACK CFI 1a2c8 .cfa: x29 64 +
STACK CFI INIT 1a2f8 30c .cfa: sp 0 +
STACK CFI 1a2fc .cfa: sp 80 +
STACK CFI 1a310 .cfa: x29 64 + x19: .cfa -8 + ^ x20: .cfa -16 + ^ x21: .cfa -24 + ^ x22: .cfa -32 + ^ x23: .cfa -40 + ^ x24: .cfa -48 + ^ .ra: .cfa -56 + ^ x29: .cfa -64 + ^
STACK CFI 1a48c .cfa: sp 80 +
STACK CFI 1a4a0 .cfa: sp 0 +
STACK CFI 1a4a4 .cfa: x29 64 +
STACK CFI INIT 1a604 178 .cfa: sp 0 +
STACK CFI 1a608 .cfa: sp 80 +
STACK CFI 1a61c .cfa: x29 64 + x19: .cfa -8 + ^ x20: .cfa -16 + ^ x21: .cfa -24 + ^ x22: .cfa -32 + ^ x23: .cfa -40 + ^ x24: .cfa -48 + ^ .ra: .cfa -56 + ^ x29: .cfa -64 + ^
STACK CFI 1a760 .cfa: sp 80 +
STACK CFI 1a774 .cfa: sp 0 +
STACK CFI 1a778 .cfa: x29 64 +
STACK CFI INIT 1a77c 178 .cfa: sp 0 +
STACK CFI 1a780 .cfa: sp 80 +
STACK CFI 1a794 .cfa: x29 64 + x19: .cfa -8 + ^ x20: .cfa -16 + ^ x21: .cfa -24 + ^ x22: .cfa -32 + ^ x23: .cfa -40 + ^ x24: .cfa -48 + ^ .ra: .cfa -56 + ^ x29: .cfa -64 + ^
STACK CFI 1a8d8 .cfa: sp 80 +
STACK CFI 1a8ec .cfa: sp 0 +
STACK CFI 1a8f0 .cfa: x29 64 +
STACK CFI INIT 1a8f4 240 .cfa: sp 0 +
STACK CFI 1a8f8 .cfa: sp 96 +
STACK CFI 1a910 .cfa: x29 96 + x19: .cfa -8 + ^ x20: .cfa -16 + ^ x21: .cfa -24 + ^ x22: .cfa -32 + ^ x23: .cfa -40 + ^ x24: .cfa -48 + ^ x25: .cfa -56 + ^ x26: .cfa -64 + ^ x27: .cfa -72 + ^ x28: .cfa -80 + ^ .ra: .cfa -88 + ^ x29: .cfa -96 + ^
STACK CFI 1ab18 .cfa: sp 96 +
STACK CFI 1ab30 .cfa: sp 0 +
STACK CFI INIT 1b7a8 154 .cfa: sp 0 +
STACK CFI 1b7ac .cfa: sp 96 +
STACK CFI 1b7c0 .cfa: x29 64 + x19: .cfa -8 + ^ x20: .cfa -16 + ^ x21: .cfa -24 + ^ x22: .cfa -32 + ^ x23: .cfa -48 + ^ .ra: .cfa -56 + ^ x29: .cfa -64 + ^
STACK CFI 1b8a0 .cfa: sp 96 +
STACK CFI 1b8b4 .cfa: sp 0 +
STACK CFI 1b8b8 .cfa: x29 64 +
STACK CFI INIT 1bb68 44 .cfa: sp 0 +
STACK CFI 1bb6c .cfa: sp 32 +
STACK CFI 1bb74 .cfa: x29 32 + x19: .cfa -16 + ^ .ra: .cfa -24 + ^ x29: .cfa -32 + ^
STACK CFI 1bb90 .cfa: sp 32 +
STACK CFI 1bb98 .cfa: sp 0 +
STACK CFI 1bb9c .cfa: x29 32 +
STACK CFI 1bba0 .cfa: sp 32 +
STACK CFI 1bba8 .cfa: sp 0 +
STACK CFI INIT 1bbac 1d0 .cfa: sp 0 +
STACK CFI 1bbb0 .cfa: sp 64 +
STACK CFI 1bbc0 .cfa: x29 64 + x19: .cfa -8 + ^ x20: .cfa -16 + ^ x21: .cfa -24 + ^ x22: .cfa -32 + ^ x23: .cfa -40 + ^ x24: .cfa -48 + ^ .ra: .cfa -56 + ^ x29: .cfa -64 + ^
STACK CFI 1bc80 .cfa: sp 64 +
STACK CFI 1bc90 .cfa: sp 0 +
STACK CFI 1bc94 .cfa: x29 64 +
STACK CFI INIT 1bd7c 17c .cfa: sp 0 +
STACK CFI INIT 1c2b0 a0 .cfa: sp 0 +
STACK CFI 1c2b4 .cfa: sp 48 +
STACK CFI 1c2c0 .cfa: x29 48 + x19: .cfa -8 + ^ x20: .cfa -16 + ^ x21: .cfa -24 + ^ x22: .cfa -32 + ^ .ra: .cfa -40 + ^ x29: .cfa -48 + ^
STACK CFI 1c32c .cfa: sp 48 +
STACK CFI 1c338 .cfa: sp 0 +
STACK CFI 1c33c .cfa: sp 48 +
STACK CFI 1c348 .cfa: sp 0 +
STACK CFI 1c34c .cfa: x29 48 +
STACK CFI INIT 1d004 158 .cfa: sp 0 +
STACK CFI 1d008 .cfa: sp 96 +
STACK CFI 1d01c .cfa: x29 64 + x19: .cfa -8 + ^ x20: .cfa -16 + ^ x21: .cfa -24 + ^ x22: .cfa -32 + ^ x23: .cfa -48 + ^ .ra: .cfa -56 + ^ x29: .cfa -64 + ^
STACK CFI 1d100 .cfa: sp 96 +
STACK CFI 1d114 .cfa: sp 0 +
STACK CFI 1d118 .cfa: x29 64 +
STACK CFI INIT 1d15c 190 .cfa: sp 0 +
STACK CFI INIT 1dde8 1dc .cfa: sp 0 +
STACK CFI 1ddec .cfa: sp 80 +
STACK CFI 1de00 .cfa: x29 80 + x19: .cfa -8 + ^ x20: .cfa -16 + ^ x21: .cfa -24 + ^ x22: .cfa -32 + ^ x23: .cfa -40 + ^ x24: .cfa -48 + ^ x25: .cfa -64 + ^ .ra: .cfa -72 + ^ x29: .cfa -80 + ^
STACK CFI 1dfac .cfa: sp 80 +
STACK CFI 1dfc0 .cfa: sp 0 +
STACK CFI INIT 1f3f4 124 .cfa: sp 0 +
STACK CFI 1f424 .cfa: sp 32 +
STACK CFI 1f42c .cfa: x29 32 + x19: .cfa -8 + ^ x20: .cfa -16 + ^ .ra: .cfa -24 + ^ x29: .cfa -32 + ^
STACK CFI 1f50c .cfa: sp 32 +
STACK CFI 1f514 .cfa: sp 0 +
STACK CFI INIT 1fc74 320 .cfa: sp 0 +
STACK CFI 1fc78 .cfa: sp 64 +
STACK CFI 1fc88 .cfa: x29 64 + x19: .cfa -8 + ^ x20: .cfa -16 + ^ x21: .cfa -24 + ^ x22: .cfa -32 + ^ x23: .cfa -40 + ^ x24: .cfa -48 + ^ .ra: .cfa -56 + ^ x29: .cfa -64 + ^
STACK CFI 1fd04 .cfa: sp 64 +
STACK CFI 1fd14 .cfa: sp 0 +
STACK CFI 1fd18 .cfa: x29 64 +
STACK CFI 1feec .cfa: sp 64 +
STACK CFI 1fefc .cfa: sp 0 +
STACK CFI 1ff00 .cfa: x29 64 +
STACK CFI 1ff10 .cfa: sp 64 +
STACK CFI 1ff20 .cfa: sp 0 +
STACK CFI 1ff24 .cfa: x29 64 +
STACK CFI INIT 1ff94 a0 .cfa: sp 0 +
STACK CFI 1ff98 .cfa: sp 48 +
STACK CFI 1ffa4 .cfa: x29 48 + x19: .cfa -8 + ^ x20: .cfa -16 + ^ x21: .cfa -24 + ^ x22: .cfa -32 + ^ .ra: .cfa -40 + ^ x29: .cfa -48 + ^
STACK CFI 20010 .cfa: sp 48 +
STACK CFI 2001c .cfa: sp 0 +
STACK CFI 20020 .cfa: sp 48 +
STACK CFI 2002c .cfa: sp 0 +
STACK CFI 20030 .cfa: x29 48 +
STACK CFI INIT 20ee4 160 .cfa: sp 0 +
STACK CFI 20ee8 .cfa: sp 64 +
STACK CFI 20ef8 .cfa: x29 64 + x19: .cfa -8 + ^ x20: .cfa -16 + ^ x21: .cfa -24 + ^ x22: .cfa -32 + ^ x23: .cfa -48 + ^ .ra: .cfa -56 + ^ x29: .cfa -64 + ^
STACK CFI 20ff0 .cfa: sp 64 +
STACK CFI 21000 .cfa: sp 0 +
STACK CFI 21004 .cfa: x29 64 +
STACK CFI INIT 21044 214 .cfa: sp 0 +
STACK CFI 21048 .cfa: sp 128 +
STACK CFI 21064 .cfa: x29 96 + x19: .cfa -8 + ^ x20: .cfa -16 + ^ x21: .cfa -24 + ^ x22: .cfa -32 + ^ x23: .cfa -40 + ^ x24: .cfa -48 + ^ x25: .cfa -56 + ^ x26: .cfa -64 + ^ x27: .cfa -80 + ^ .ra: .cfa -88 + ^ x29: .cfa -96 + ^
STACK CFI 211e0 .cfa: sp 128 +
STACK CFI 211fc .cfa: sp 0 +
STACK CFI 21200 .cfa: x29 96 +
STACK CFI INIT 22ef4 290 .cfa: sp 0 +
STACK CFI 22ef8 .cfa: sp 16 +
STACK CFI 22efc .cfa: x29 16 + .ra: .cfa -8 + ^ x29: .cfa -16 + ^
STACK CFI 22f88 .cfa: sp 16 +
STACK CFI 22f8c .cfa: sp 0 +
STACK CFI 22f90 .cfa: x29 16 +
STACK CFI 22fe0 .cfa: sp 16 +
STACK CFI 22fe4 .cfa: sp 0 +
STACK CFI 22fe8 .cfa: x29 16 +
STACK CFI 2314c .cfa: sp 16 +
STACK CFI 23150 .cfa: sp 0 +
STACK CFI 23154 .cfa: x29 16 +
STACK CFI INIT 23184 158 .cfa: sp 0 +
STACK CFI 23188 .cfa: sp 112 +
STACK CFI 231a4 .cfa: x29 96 + x19: .cfa -8 + ^ x20: .cfa -16 + ^ x21: .cfa -24 + ^ x22: .cfa -32 + ^ x23: .cfa -40 + ^ x24: .cfa -48 + ^ x25: .cfa -56 + ^ x26: .cfa -64 + ^ x27: .cfa -72 + ^ x28: .cfa -80 + ^ .ra: .cfa -88 + ^ x29: .cfa -96 + ^
STACK CFI 2328c .cfa: sp 112 +
STACK CFI 23290 .cfa: x29 96 +
STACK CFI 23298 .cfa: sp 112 +
STACK CFI 232b4 .cfa: sp 0 +
STACK CFI 232b8 .cfa: x29 96 +
STACK CFI 232d8 .cfa: sp 112 +
STACK CFI INIT 232dc e54 .cfa: sp 0 +
STACK CFI 232e0 .cfa: sp 192 +
STACK CFI 232fc .cfa: x29 96 + x19: .cfa -8 + ^ x20: .cfa -16 + ^ x21: .cfa -24 + ^ x22: .cfa -32 + ^ x23: .cfa -40 + ^ x24: .cfa -48 + ^ x25: .cfa -56 + ^ x26: .cfa -64 + ^ x27: .cfa -72 + ^ x28: .cfa -80 + ^ .ra: .cfa -88 + ^ x29: .cfa -96 + ^
STACK CFI 24018 .cfa: sp 192 +
STACK CFI 24034 .cfa: sp 0 +
STACK CFI 24038 .cfa: x29 96 +
STACK CFI INIT 24130 1068 .cfa: sp 0 +
STACK CFI 24134 .cfa: sp 288 +
STACK CFI 24150 .cfa: x29 96 + x19: .cfa -8 + ^ x20: .cfa -16 + ^ x21: .cfa -24 + ^ x22: .cfa -32 + ^ x23: .cfa -40 + ^ x24: .cfa -48 + ^ x25: .cfa -56 + ^ x26: .cfa -64 + ^ x27: .cfa -72 + ^ x28: .cfa -80 + ^ .ra: .cfa -88 + ^ x29: .cfa -96 + ^
STACK CFI 24ee0 .cfa: sp 288 +
STACK CFI 24efc .cfa: sp 0 +
STACK CFI 24f00 .cfa: x29 96 +
STACK CFI INIT 25198 520 .cfa: sp 0 +
STACK CFI 2519c .cfa: sp 144 +
STACK CFI 251b8 .cfa: x29 96 + x19: .cfa -8 + ^ x20: .cfa -16 + ^ x21: .cfa -24 + ^ x22: .cfa -32 + ^ x23: .cfa -40 + ^ x24: .cfa -48 + ^ x25: .cfa -56 + ^ x26: .cfa -64 + ^ x27: .cfa -72 + ^ x28: .cfa -80 + ^ .ra: .cfa -88 + ^ x29: .cfa -96 + ^
STACK CFI 25694 .cfa: sp 144 +
STACK CFI 256b0 .cfa: sp 0 +
STACK CFI 256b4 .cfa: x29 96 +
STACK CFI INIT 26058 136c .cfa: sp 0 +
STACK CFI 2605c .cfa: sp 224 +
STACK CFI 26078 .cfa: x29 96 + x19: .cfa -8 + ^ x20: .cfa -16 + ^ x21: .cfa -24 + ^ x22: .cfa -32 + ^ x23: .cfa -40 + ^ x24: .cfa -48 + ^ x25: .cfa -56 + ^ x26: .cfa -64 + ^ x27: .cfa -72 + ^ x28: .cfa -80 + ^ .ra: .cfa -88 + ^ x29: .cfa -96 + ^
STACK CFI 273a0 .cfa: sp 224 +
STACK CFI 273bc .cfa: sp 0 +
STACK CFI 273c0 .cfa: x29 96 +
STACK CFI INIT 273c4 1b8 .cfa: sp 0 +
STACK CFI INIT dbfc 810 .cfa: sp 0 +
STACK CFI dc00 .cfa: sp 96 +
STACK CFI dc18 .cfa: x29 96 + x19: .cfa -8 + ^ x20: .cfa -16 + ^ x21: .cfa -24 + ^ x22: .cfa -32 + ^ x23: .cfa -40 + ^ x24: .cfa -48 + ^ x25: .cfa -56 + ^ x26: .cfa -64 + ^ x27: .cfa -72 + ^ x28: .cfa -80 + ^ .ra: .cfa -88 + ^ x29: .cfa -96 + ^
STACK CFI e264 .cfa: sp 96 +
STACK CFI e27c .cfa: sp 0 +
STACK CFI e280 .cfa: x29 96 +
STACK CFI INIT e578 11c .cfa: sp 0 +
STACK CFI e57c .cfa: sp 80 +
STACK CFI e590 .cfa: x29 80 + x19: .cfa -8 + ^ x20: .cfa -16 + ^ x21: .cfa -24 + ^ x22: .cfa -32 + ^ x23: .cfa -40 + ^ x24: .cfa -48 + ^ x25: .cfa -64 + ^ .ra: .cfa -72 + ^ x29: .cfa -80 + ^
STACK CFI e638 .cfa: sp 80 +
STACK CFI e64c .cfa: sp 0 +
STACK CFI e650 .cfa: x29 80 +
STACK CFI INIT e6e4 1038 .cfa: sp 0 +
STACK CFI e6e8 .cfa: sp 96 +
STACK CFI e700 .cfa: x29 96 + x19: .cfa -8 + ^ x20: .cfa -16 + ^ x21: .cfa -24 + ^ x22: .cfa -32 + ^ x23: .cfa -40 + ^ x24: .cfa -48 + ^ x25: .cfa -56 + ^ x26: .cfa -64 + ^ x27: .cfa -72 + ^ x28: .cfa -80 + ^ .ra: .cfa -88 + ^ x29: .cfa -96 + ^
STACK CFI f3bc .cfa: sp 96 +
STACK CFI f3d4 .cfa: sp 0 +
STACK CFI f3d8 .cfa: x29 96 +
STACK CFI INIT f71c 350 .cfa: sp 0 +
STACK CFI f720 .cfa: sp 96 +
STACK CFI f738 .cfa: x29 96 + x19: .cfa -8 + ^ x20: .cfa -16 + ^ x21: .cfa -24 + ^ x22: .cfa -32 + ^ x23: .cfa -40 + ^ x24: .cfa -48 + ^ x25: .cfa -56 + ^ x26: .cfa -64 + ^ x27: .cfa -72 + ^ x28: .cfa -80 + ^ .ra: .cfa -88 + ^ x29: .cfa -96 + ^
STACK CFI fa10 .cfa: sp 96 +
STACK CFI fa28 .cfa: sp 0 +
STACK CFI fa2c .cfa: x29 96 +
STACK CFI INIT fa6c a24 .cfa: sp 0 +
STACK CFI fa70 .cfa: sp 224 +
STACK CFI fa8c .cfa: x29 96 + x19: .cfa -8 + ^ x20: .cfa -16 + ^ x21: .cfa -24 + ^ x22: .cfa -32 + ^ x23: .cfa -40 + ^ x24: .cfa -48 + ^ x25: .cfa -56 + ^ x26: .cfa -64 + ^ x27: .cfa -72 + ^ x28: .cfa -80 + ^ .ra: .cfa -88 + ^ x29: .cfa -96 + ^
STACK CFI fcfc .cfa: sp 224 +
STACK CFI fd18 .cfa: sp 0 +
STACK CFI fd1c .cfa: x29 96 +
STACK CFI 1037c .cfa: sp 224 +
STACK CFI 10398 .cfa: sp 0 +
STACK CFI 1039c .cfa: x29 96 +
STACK CFI INIT 10770 50 .cfa: sp 0 +
STACK CFI 10774 .cfa: sp 32 +
STACK CFI 1077c .cfa: x29 32 + x19: .cfa -8 + ^ x20: .cfa -16 + ^ .ra: .cfa -24 + ^ x29: .cfa -32 + ^
STACK CFI INIT 10824 304 .cfa: sp 0 +
STACK CFI 10828 .cfa: sp 128 +
STACK CFI 10844 .cfa: x29 96 + x19: .cfa -8 + ^ x20: .cfa -16 + ^ x21: .cfa -24 + ^ x22: .cfa -32 + ^ x23: .cfa -40 + ^ x24: .cfa -48 + ^ x25: .cfa -56 + ^ x26: .cfa -64 + ^ x27: .cfa -72 + ^ x28: .cfa -80 + ^ .ra: .cfa -88 + ^ x29: .cfa -96 + ^
STACK CFI 10aa8 .cfa: sp 128 +
STACK CFI 10ac4 .cfa: sp 0 +
STACK CFI 10ac8 .cfa: x29 96 +
STACK CFI INIT 10ba8 224 .cfa: sp 0 +
STACK CFI 10bac .cfa: sp 128 +
STACK CFI 10bc4 .cfa: x29 80 + x19: .cfa -8 + ^ x20: .cfa -16 + ^ x21: .cfa -24 + ^ x22: .cfa -32 + ^ x23: .cfa -40 + ^ x24: .cfa -48 + ^ x25: .cfa -64 + ^ .ra: .cfa -72 + ^ x29: .cfa -80 + ^
STACK CFI 10d60 .cfa: sp 128 +
STACK CFI 10d78 .cfa: sp 0 +
STACK CFI 10d7c .cfa: x29 80 +
STACK CFI INIT 10f90 1b4 .cfa: sp 0 +
STACK CFI 10f94 .cfa: sp 80 +
STACK CFI 10fa8 .cfa: x29 64 + x19: .cfa -8 + ^ x20: .cfa -16 + ^ x21: .cfa -24 + ^ x22: .cfa -32 + ^ x23: .cfa -40 + ^ x24: .cfa -48 + ^ .ra: .cfa -56 + ^ x29: .cfa -64 + ^
STACK CFI 110b4 .cfa: sp 80 +
STACK CFI 110c8 .cfa: sp 0 +
STACK CFI 110cc .cfa: x29 64 +
STACK CFI INIT 11144 384 .cfa: sp 0 +
STACK CFI 11148 .cfa: sp 192 +
STACK CFI 11164 .cfa: x29 96 + x19: .cfa -8 + ^ x20: .cfa -16 + ^ x21: .cfa -24 + ^ x22: .cfa -32 + ^ x23: .cfa -40 + ^ x24: .cfa -48 + ^ x25: .cfa -56 + ^ x26: .cfa -64 + ^ x27: .cfa -80 + ^ .ra: .cfa -88 + ^ x29: .cfa -96 + ^
STACK CFI 11394 .cfa: sp 192 +
STACK CFI 113b0 .cfa: sp 0 +
STACK CFI 113b4 .cfa: x29 96 +
STACK CFI INIT 114c8 74 .cfa: sp 0 +
STACK CFI 114cc .cfa: sp 48 +
STACK CFI 114d8 .cfa: x29 32 + x19: .cfa -8 + ^ x20: .cfa -16 + ^ .ra: .cfa -24 + ^ x29: .cfa -32 + ^
STACK CFI 11524 .cfa: sp 48 +
STACK CFI 11530 .cfa: sp 0 +
STACK CFI 11534 .cfa: x29 32 +
STACK CFI INIT 116e0 74 .cfa: sp 0 +
STACK CFI 116e4 .cfa: sp 48 +
STACK CFI 116f0 .cfa: x29 32 + x19: .cfa -8 + ^ x20: .cfa -16 + ^ .ra: .cfa -24 + ^ x29: .cfa -32 + ^
STACK CFI 1173c .cfa: sp 48 +
STACK CFI 11748 .cfa: sp 0 +
STACK CFI 1174c .cfa: x29 32 +
STACK CFI INIT 11754 12c .cfa: sp 0 +
STACK CFI 11758 .cfa: sp 80 +
STACK CFI 1176c .cfa: x29 80 + x19: .cfa -8 + ^ x20: .cfa -16 + ^ x21: .cfa -24 + ^ x22: .cfa -32 + ^ x23: .cfa -40 + ^ x24: .cfa -48 + ^ x25: .cfa -56 + ^ x26: .cfa -64 + ^ .ra: .cfa -72 + ^ x29: .cfa -80 + ^
STACK CFI 11834 .cfa: sp 80 +
STACK CFI 11848 .cfa: sp 0 +
STACK CFI 1184c .cfa: x29 80 +
STACK CFI INIT 11900 1a4 .cfa: sp 0 +
STACK CFI 11904 .cfa: sp 112 +
STACK CFI 1191c .cfa: x29 80 + x19: .cfa -8 + ^ x20: .cfa -16 + ^ x21: .cfa -24 + ^ x22: .cfa -32 + ^ x23: .cfa -40 + ^ x24: .cfa -48 + ^ x25: .cfa -56 + ^ x26: .cfa -64 + ^ .ra: .cfa -72 + ^ x29: .cfa -80 + ^
STACK CFI 11a0c .cfa: sp 112 +
STACK CFI 11a24 .cfa: sp 0 +
STACK CFI 11a28 .cfa: x29 80 +
STACK CFI INIT 11aa4 1dc .cfa: sp 0 +
STACK CFI 11aa8 .cfa: sp 128 +
STACK CFI 11ac4 .cfa: x29 96 + x19: .cfa -8 + ^ x20: .cfa -16 + ^ x21: .cfa -24 + ^ x22: .cfa -32 + ^ x23: .cfa -40 + ^ x24: .cfa -48 + ^ x25: .cfa -56 + ^ x26: .cfa -64 + ^ x27: .cfa -80 + ^ .ra: .cfa -88 + ^ x29: .cfa -96 + ^
STACK CFI 11c30 .cfa: sp 128 +
STACK CFI 11c4c .cfa: sp 0 +
STACK CFI 11c50 .cfa: x29 96 +
STACK CFI INIT 11c80 178 .cfa: sp 0 +
STACK CFI 11c84 .cfa: sp 80 +
STACK CFI 11c98 .cfa: x29 80 + x19: .cfa -8 + ^ x20: .cfa -16 + ^ x21: .cfa -24 + ^ x22: .cfa -32 + ^ x23: .cfa -40 + ^ x24: .cfa -48 + ^ x25: .cfa -64 + ^ .ra: .cfa -72 + ^ x29: .cfa -80 + ^
STACK CFI 11dc4 .cfa: sp 80 +
STACK CFI 11dd8 .cfa: sp 0 +
STACK CFI 11ddc .cfa: x29 80 +
STACK CFI INIT 11f74 164 .cfa: sp 0 +
STACK CFI 11f78 .cfa: sp 112 +
STACK CFI 11f88 .cfa: x29 48 + x19: .cfa -8 + ^ x20: .cfa -16 + ^ x21: .cfa -24 + ^ x22: .cfa -32 + ^ .ra: .cfa -40 + ^ x29: .cfa -48 + ^
STACK CFI 12074 .cfa: sp 112 +
STACK CFI 12084 .cfa: sp 0 +
STACK CFI 12088 .cfa: x29 48 +
STACK CFI INIT 12428 464 .cfa: sp 0 +
STACK CFI 1242c .cfa: sp 240 +
STACK CFI 12448 .cfa: x29 96 + x19: .cfa -8 + ^ x20: .cfa -16 + ^ x21: .cfa -24 + ^ x22: .cfa -32 + ^ x23: .cfa -40 + ^ x24: .cfa -48 + ^ x25: .cfa -56 + ^ x26: .cfa -64 + ^ x27: .cfa -80 + ^ .ra: .cfa -88 + ^ x29: .cfa -96 + ^
STACK CFI 1275c .cfa: sp 240 +
STACK CFI 12778 .cfa: sp 0 +
STACK CFI 1277c .cfa: x29 96 +
STACK CFI INIT 128dc 74 .cfa: sp 0 +
STACK CFI 128e0 .cfa: sp 48 +
STACK CFI 128ec .cfa: x29 32 + x19: .cfa -8 + ^ x20: .cfa -16 + ^ .ra: .cfa -24 + ^ x29: .cfa -32 + ^
STACK CFI 12938 .cfa: sp 48 +
STACK CFI 12944 .cfa: sp 0 +
STACK CFI 12948 .cfa: x29 32 +
STACK CFI INIT 12954 154 .cfa: sp 0 +
STACK CFI 12958 .cfa: sp 384 +
STACK CFI 1296c .cfa: x29 64 + x19: .cfa -8 + ^ x20: .cfa -16 + ^ x21: .cfa -24 + ^ x22: .cfa -32 + ^ x23: .cfa -40 + ^ x28: .cfa -48 + ^ .ra: .cfa -56 + ^ x29: .cfa -64 + ^
STACK CFI 12a50 .cfa: sp 384 +
STACK CFI 12a64 .cfa: sp 0 +
STACK CFI 12a68 .cfa: x29 64 +
STACK CFI INIT 12b44 864 .cfa: sp 0 +
STACK CFI 12b48 .cfa: sp 240 +
STACK CFI 12b64 .cfa: x29 80 + x19: .cfa -8 + ^ x20: .cfa -16 + ^ x21: .cfa -24 + ^ x22: .cfa -32 + ^ x23: .cfa -40 + ^ x24: .cfa -48 + ^ x25: .cfa -56 + ^ x26: .cfa -64 + ^ .ra: .cfa -72 + ^ x29: .cfa -80 + ^ v8: .cfa -96 + ^
STACK CFI 1326c .cfa: sp 240 +
STACK CFI 13288 .cfa: sp 0 +
STACK CFI 1328c .cfa: x29 80 +
STACK CFI INIT 1345c 168 .cfa: sp 0 +
STACK CFI 13460 .cfa: sp 144 +
STACK CFI 13474 .cfa: x29 64 + x19: .cfa -8 + ^ x20: .cfa -16 + ^ x21: .cfa -24 + ^ x22: .cfa -32 + ^ x23: .cfa -40 + ^ x24: .cfa -48 + ^ .ra: .cfa -56 + ^ x29: .cfa -64 + ^
STACK CFI 1355c .cfa: sp 144 +
STACK CFI 13570 .cfa: sp 0 +
STACK CFI 13574 .cfa: x29 64 +
STACK CFI INIT 13860 164 .cfa: sp 0 +
STACK CFI 13864 .cfa: sp 80 +
STACK CFI 13874 .cfa: x29 48 + x19: .cfa -8 + ^ x20: .cfa -16 + ^ x21: .cfa -24 + ^ x22: .cfa -32 + ^ .ra: .cfa -40 + ^ x29: .cfa -48 + ^
STACK CFI 13944 .cfa: sp 80 +
STACK CFI 13954 .cfa: sp 0 +
STACK CFI 13958 .cfa: x29 48 +
STACK CFI INIT 139c4 678 .cfa: sp 0 +
STACK CFI 139c8 .cfa: sp 256 +
STACK CFI 139e8 .cfa: x29 96 + x19: .cfa -8 + ^ x20: .cfa -16 + ^ x21: .cfa -24 + ^ x22: .cfa -32 + ^ x23: .cfa -40 + ^ x24: .cfa -48 + ^ x25: .cfa -56 + ^ x26: .cfa -64 + ^ x27: .cfa -72 + ^ x28: .cfa -80 + ^ .ra: .cfa -88 + ^ x29: .cfa -96 + ^ v8: .cfa -112 + ^
STACK CFI 13eb8 .cfa: sp 256 +
STACK CFI 13ed8 .cfa: sp 0 +
STACK CFI 13edc .cfa: x29 96 +
STACK CFI INIT 141c4 a8 .cfa: sp 0 +
STACK CFI 141c8 .cfa: sp 64 +
STACK CFI 141d4 .cfa: x29 32 + x19: .cfa -8 + ^ x20: .cfa -16 + ^ .ra: .cfa -24 + ^ x29: .cfa -32 + ^
STACK CFI 1422c .cfa: sp 64 +
STACK CFI 14238 .cfa: sp 0 +
STACK CFI 1423c .cfa: x29 32 +
STACK CFI INIT 1435c 134 .cfa: sp 0 +
STACK CFI 14360 .cfa: sp 80 +
STACK CFI 1436c .cfa: x29 32 + x19: .cfa -8 + ^ x20: .cfa -16 + ^ .ra: .cfa -24 + ^ x29: .cfa -32 + ^
STACK CFI 1439c .cfa: sp 80 +
STACK CFI 143a8 .cfa: sp 0 +
STACK CFI 143ac .cfa: x29 32 +
STACK CFI INIT 14490 78 .cfa: sp 0 +
STACK CFI 14494 .cfa: sp 32 +
STACK CFI 1449c .cfa: x29 32 + x19: .cfa -8 + ^ x20: .cfa -16 + ^ .ra: .cfa -24 + ^ x29: .cfa -32 + ^
STACK CFI 144a8 .cfa: sp 32 +
STACK CFI 144b0 .cfa: sp 0 +
STACK CFI 144b4 .cfa: x29 32 +
STACK CFI INIT 14508 74 .cfa: sp 0 +
STACK CFI 1450c .cfa: sp 48 +
STACK CFI 14518 .cfa: x29 32 + x19: .cfa -8 + ^ x20: .cfa -16 + ^ .ra: .cfa -24 + ^ x29: .cfa -32 + ^
STACK CFI 14564 .cfa: sp 48 +
STACK CFI 14570 .cfa: sp 0 +
STACK CFI 14574 .cfa: x29 32 +
STACK CFI INIT 14604 25c .cfa: sp 0 +
STACK CFI 14608 .cfa: sp 128 +
STACK CFI 14618 .cfa: x29 48 + x19: .cfa -8 + ^ x20: .cfa -16 + ^ x21: .cfa -32 + ^ .ra: .cfa -40 + ^ x29: .cfa -48 + ^
STACK CFI 14700 .cfa: sp 128 +
STACK CFI 14710 .cfa: sp 0 +
STACK CFI 14714 .cfa: x29 48 +
STACK CFI INIT 14888 2a0 .cfa: sp 0 +
STACK CFI 1488c .cfa: sp 144 +
STACK CFI 148a0 .cfa: x29 64 + x19: .cfa -8 + ^ x20: .cfa -16 + ^ x21: .cfa -24 + ^ x22: .cfa -32 + ^ x23: .cfa -48 + ^ .ra: .cfa -56 + ^ x29: .cfa -64 + ^
STACK CFI 149d4 .cfa: sp 144 +
STACK CFI 149e8 .cfa: sp 0 +
STACK CFI 149ec .cfa: x29 64 +
STACK CFI INIT 14b28 4f4 .cfa: sp 0 +
STACK CFI 14b2c .cfa: sp 144 +
STACK CFI 14b40 .cfa: x29 64 + x19: .cfa -8 + ^ x20: .cfa -16 + ^ x21: .cfa -24 + ^ x22: .cfa -32 + ^ x23: .cfa -48 + ^ .ra: .cfa -56 + ^ x29: .cfa -64 + ^
STACK CFI 14e74 .cfa: sp 144 +
STACK CFI 14e88 .cfa: sp 0 +
STACK CFI 14e8c .cfa: x29 64 +
STACK CFI INIT 1501c 154 .cfa: sp 0 +
STACK CFI 15020 .cfa: sp 384 +
STACK CFI 15034 .cfa: x29 64 + x19: .cfa -8 + ^ x20: .cfa -16 + ^ x21: .cfa -24 + ^ x22: .cfa -32 + ^ x23: .cfa -40 + ^ x28: .cfa -48 + ^ .ra: .cfa -56 + ^ x29: .cfa -64 + ^
STACK CFI 15118 .cfa: sp 384 +
STACK CFI 1512c .cfa: sp 0 +
STACK CFI 15130 .cfa: x29 64 +
STACK CFI INIT 15170 168 .cfa: sp 0 +
STACK CFI 15174 .cfa: sp 384 +
STACK CFI 15188 .cfa: x29 64 + x19: .cfa -8 + ^ x20: .cfa -16 + ^ x21: .cfa -24 + ^ x22: .cfa -32 + ^ x23: .cfa -40 + ^ x28: .cfa -48 + ^ .ra: .cfa -56 + ^ x29: .cfa -64 + ^
STACK CFI 15280 .cfa: sp 384 +
STACK CFI 15294 .cfa: sp 0 +
STACK CFI 15298 .cfa: x29 64 +
STACK CFI INIT 152f0 50c .cfa: sp 0 +
STACK CFI 152f4 .cfa: sp 64 +
STACK CFI 15304 .cfa: x29 64 + x19: .cfa -8 + ^ x20: .cfa -16 + ^ x21: .cfa -24 + ^ x22: .cfa -32 + ^ x23: .cfa -40 + ^ x24: .cfa -48 + ^ .ra: .cfa -56 + ^ x29: .cfa -64 + ^
STACK CFI 15424 .cfa: sp 64 +
STACK CFI 15434 .cfa: sp 0 +
STACK CFI 15438 .cfa: x29 64 +
STACK CFI 157d0 .cfa: sp 64 +
STACK CFI 157e0 .cfa: sp 0 +
STACK CFI 157e4 .cfa: x29 64 +
STACK CFI INIT 15b2c 294 .cfa: sp 0 +
STACK CFI 15b30 .cfa: sp 240 +
STACK CFI 15b48 .cfa: x29 80 + x19: .cfa -8 + ^ x20: .cfa -16 + ^ x21: .cfa -24 + ^ x22: .cfa -32 + ^ x23: .cfa -40 + ^ x24: .cfa -48 + ^ x25: .cfa -64 + ^ .ra: .cfa -72 + ^ x29: .cfa -80 + ^
STACK CFI 15ce8 .cfa: sp 240 +
STACK CFI 15d00 .cfa: sp 0 +
STACK CFI 15d04 .cfa: x29 80 +
STACK CFI INIT 15e3c 50 .cfa: sp 0 +
STACK CFI 15e40 .cfa: sp 32 +
STACK CFI 15e48 .cfa: x29 32 + x19: .cfa -8 + ^ x20: .cfa -16 + ^ .ra: .cfa -24 + ^ x29: .cfa -32 + ^
STACK CFI INIT 15eb8 7c0 .cfa: sp 0 +
STACK CFI 15ebc .cfa: sp 320 +
STACK CFI 15ed8 .cfa: x29 96 + x19: .cfa -8 + ^ x20: .cfa -16 + ^ x21: .cfa -24 + ^ x22: .cfa -32 + ^ x23: .cfa -40 + ^ x24: .cfa -48 + ^ x25: .cfa -56 + ^ x26: .cfa -64 + ^ x27: .cfa -72 + ^ x28: .cfa -80 + ^ .ra: .cfa -88 + ^ x29: .cfa -96 + ^
STACK CFI 16528 .cfa: sp 320 +
STACK CFI 16544 .cfa: sp 0 +
STACK CFI 16548 .cfa: x29 96 +
STACK CFI INIT 166dc 13c .cfa: sp 0 +
STACK CFI 166e0 .cfa: sp 80 +
STACK CFI 166f4 .cfa: x29 80 + x19: .cfa -8 + ^ x20: .cfa -16 + ^ x21: .cfa -24 + ^ x22: .cfa -32 + ^ x23: .cfa -40 + ^ x24: .cfa -48 + ^ x28: .cfa -64 + ^ .ra: .cfa -72 + ^ x29: .cfa -80 + ^
STACK CFI 16788 .cfa: sp 80 +
STACK CFI 1679c .cfa: sp 0 +
STACK CFI 167a0 .cfa: x29 80 +
STACK CFI INIT 1ab34 c74 .cfa: sp 0 +
STACK CFI 1ab38 .cfa: sp 96 +
STACK CFI 1ab50 .cfa: x29 96 + x19: .cfa -8 + ^ x20: .cfa -16 + ^ x21: .cfa -24 + ^ x22: .cfa -32 + ^ x23: .cfa -40 + ^ x24: .cfa -48 + ^ x25: .cfa -56 + ^ x26: .cfa -64 + ^ x27: .cfa -72 + ^ x28: .cfa -80 + ^ .ra: .cfa -88 + ^ x29: .cfa -96 + ^
STACK CFI 1b5c8 .cfa: sp 96 +
STACK CFI 1b5e0 .cfa: sp 0 +
STACK CFI 1b5e4 .cfa: x29 96 +
STACK CFI INIT 1b8fc 26c .cfa: sp 0 +
STACK CFI 1b900 .cfa: sp 128 +
STACK CFI 1b910 .cfa: x29 48 + x19: .cfa -8 + ^ x20: .cfa -16 + ^ x21: .cfa -24 + ^ x22: .cfa -32 + ^ .ra: .cfa -40 + ^ x29: .cfa -48 + ^
STACK CFI 1bab4 .cfa: sp 128 +
STACK CFI 1bac4 .cfa: sp 0 +
STACK CFI 1bac8 .cfa: x29 48 +
STACK CFI INIT 1bef8 3b8 .cfa: sp 0 +
STACK CFI 1befc .cfa: sp 96 +
STACK CFI 1bf14 .cfa: x29 96 + x19: .cfa -8 + ^ x20: .cfa -16 + ^ x21: .cfa -24 + ^ x22: .cfa -32 + ^ x23: .cfa -40 + ^ x24: .cfa -48 + ^ x25: .cfa -56 + ^ x26: .cfa -64 + ^ x27: .cfa -72 + ^ x28: .cfa -80 + ^ .ra: .cfa -88 + ^ x29: .cfa -96 + ^
STACK CFI 1c250 .cfa: sp 96 +
STACK CFI 1c268 .cfa: sp 0 +
STACK CFI 1c26c .cfa: x29 96 +
STACK CFI INIT 1c350 cb4 .cfa: sp 0 +
STACK CFI 1c354 .cfa: sp 96 +
STACK CFI 1c36c .cfa: x29 96 + x19: .cfa -8 + ^ x20: .cfa -16 + ^ x21: .cfa -24 + ^ x22: .cfa -32 + ^ x23: .cfa -40 + ^ x24: .cfa -48 + ^ x25: .cfa -56 + ^ x26: .cfa -64 + ^ x27: .cfa -72 + ^ x28: .cfa -80 + ^ .ra: .cfa -88 + ^ x29: .cfa -96 + ^
STACK CFI 1ce14 .cfa: sp 96 +
STACK CFI 1ce2c .cfa: sp 0 +
STACK CFI 1ce30 .cfa: x29 96 +
STACK CFI INIT 1d2ec afc .cfa: sp 0 +
STACK CFI 1d2f0 .cfa: sp 96 +
STACK CFI 1d308 .cfa: x29 96 + x19: .cfa -8 + ^ x20: .cfa -16 + ^ x21: .cfa -24 + ^ x22: .cfa -32 + ^ x23: .cfa -40 + ^ x24: .cfa -48 + ^ x25: .cfa -56 + ^ x26: .cfa -64 + ^ x27: .cfa -72 + ^ x28: .cfa -80 + ^ .ra: .cfa -88 + ^ x29: .cfa -96 + ^
STACK CFI 1dd5c .cfa: sp 96 +
STACK CFI 1dd74 .cfa: sp 0 +
STACK CFI 1dd78 .cfa: x29 96 +
STACK CFI INIT 1dfc4 1430 .cfa: sp 0 +
STACK CFI 1dfc8 .cfa: sp 96 +
STACK CFI 1dfe0 .cfa: x29 96 + x19: .cfa -8 + ^ x20: .cfa -16 + ^ x21: .cfa -24 + ^ x22: .cfa -32 + ^ x23: .cfa -40 + ^ x24: .cfa -48 + ^ x25: .cfa -56 + ^ x26: .cfa -64 + ^ x27: .cfa -72 + ^ x28: .cfa -80 + ^ .ra: .cfa -88 + ^ x29: .cfa -96 + ^
STACK CFI 1f27c .cfa: sp 96 +
STACK CFI 1f294 .cfa: sp 0 +
STACK CFI 1f298 .cfa: x29 96 +
STACK CFI INIT 1f518 75c .cfa: sp 0 +
STACK CFI 1f51c .cfa: sp 368 +
STACK CFI 1f538 .cfa: x29 96 + x19: .cfa -8 + ^ x20: .cfa -16 + ^ x21: .cfa -24 + ^ x22: .cfa -32 + ^ x23: .cfa -40 + ^ x24: .cfa -48 + ^ x25: .cfa -56 + ^ x26: .cfa -64 + ^ x27: .cfa -72 + ^ x28: .cfa -80 + ^ .ra: .cfa -88 + ^ x29: .cfa -96 + ^
STACK CFI 1f5ec .cfa: sp 368 +
STACK CFI 1f608 .cfa: sp 0 +
STACK CFI 1f60c .cfa: x29 96 +
STACK CFI 1f660 .cfa: sp 368 +
STACK CFI 1f67c .cfa: sp 0 +
STACK CFI 1f680 .cfa: x29 96 +
STACK CFI INIT 20034 eb0 .cfa: sp 0 +
STACK CFI 20038 .cfa: sp 96 +
STACK CFI 20050 .cfa: x29 96 + x19: .cfa -8 + ^ x20: .cfa -16 + ^ x21: .cfa -24 + ^ x22: .cfa -32 + ^ x23: .cfa -40 + ^ x24: .cfa -48 + ^ x25: .cfa -56 + ^ x26: .cfa -64 + ^ x27: .cfa -72 + ^ x28: .cfa -80 + ^ .ra: .cfa -88 + ^ x29: .cfa -96 + ^
STACK CFI 20cf8 .cfa: sp 96 +
STACK CFI 20d10 .cfa: sp 0 +
STACK CFI 20d14 .cfa: x29 96 +
STACK CFI INIT 21258 1c9c .cfa: sp 0 +
STACK CFI 2125c .cfa: sp 112 +
STACK CFI 21278 .cfa: x29 96 + x19: .cfa -8 + ^ x20: .cfa -16 + ^ x21: .cfa -24 + ^ x22: .cfa -32 + ^ x23: .cfa -40 + ^ x24: .cfa -48 + ^ x25: .cfa -56 + ^ x26: .cfa -64 + ^ x27: .cfa -72 + ^ x28: .cfa -80 + ^ .ra: .cfa -88 + ^ x29: .cfa -96 + ^ v8: .cfa -112 + ^
STACK CFI 21660 .cfa: sp 112 +
STACK CFI 2167c .cfa: sp 0 +
STACK CFI 21680 .cfa: x29 96 +
STACK CFI INIT 256b8 9a0 .cfa: sp 0 +
STACK CFI 256bc .cfa: sp 144 +
STACK CFI 256d4 .cfa: x29 80 + x19: .cfa -8 + ^ x20: .cfa -16 + ^ x21: .cfa -24 + ^ x22: .cfa -32 + ^ x23: .cfa -40 + ^ x24: .cfa -48 + ^ x25: .cfa -64 + ^ .ra: .cfa -72 + ^ x29: .cfa -80 + ^
STACK CFI 25fd4 .cfa: sp 144 +
STACK CFI 25fec .cfa: sp 0 +
STACK CFI 25ff0 .cfa: x29 80 +
STACK CFI INIT 2757c 57c .cfa: sp 0 +
STACK CFI 27580 .cfa: sp 96 +
STACK CFI 27598 .cfa: x29 96 + x19: .cfa -8 + ^ x20: .cfa -16 + ^ x21: .cfa -24 + ^ x22: .cfa -32 + ^ x23: .cfa -40 + ^ x24: .cfa -48 + ^ x25: .cfa -56 + ^ x26: .cfa -64 + ^ x27: .cfa -72 + ^ x28: .cfa -80 + ^ .ra: .cfa -88 + ^ x29: .cfa -96 + ^
STACK CFI 27a5c .cfa: sp 96 +
STACK CFI 27a74 .cfa: sp 0 +
STACK CFI 27a78 .cfa: x29 96 +
STACK CFI INIT 27af8 67c .cfa: sp 0 +
STACK CFI 27afc .cfa: sp 96 +
STACK CFI 27b14 .cfa: x29 96 + x19: .cfa -8 + ^ x20: .cfa -16 + ^ x21: .cfa -24 + ^ x22: .cfa -32 + ^ x23: .cfa -40 + ^ x24: .cfa -48 + ^ x25: .cfa -56 + ^ x26: .cfa -64 + ^ x27: .cfa -72 + ^ x28: .cfa -80 + ^ .ra: .cfa -88 + ^ x29: .cfa -96 + ^
STACK CFI 280d8 .cfa: sp 96 +
STACK CFI 280f0 .cfa: sp 0 +
STACK CFI 280f4 .cfa: x29 96 +
