MODULE Linux arm D62704B7C189211F6470146D458044430 dogotrigger.deathreplay.android32.so
INFO CODE_ID B70427D689C11F216470146D458044438E79EF62
INFO GENERATOR mozilla/dump_syms 2.3.4
PUBLIC 12cf0 0 __on_dlclose
PUBLIC 12d00 0 __emutls_unregister_key
PUBLIC 12d04 0 __on_dlclose_late
PUBLIC 12d08 0 __atexit_handler_wrapper
PUBLIC 12d14 0 atexit
PUBLIC 12d34 0 pthread_atfork
FUNC 12d44 16 0 nlohmann::json_abi_v3_11_2::basic_json<std::__ndk1::map, std::__ndk1::vector, std::__ndk1::basic_string<char, std::__ndk1::char_traits<char>, std::__ndk1::allocator<char> >, bool, long long, unsigned long long, double, std::__ndk1::allocator, nlohmann::json_abi_v3_11_2::adl_serializer, std::__ndk1::vector<unsigned char, std::__ndk1::allocator<unsigned char> >, void>::~basic_json()
FUNC 12d5c 4ec 0 generateFilename(GJGameLevel*)
FUNC 13248 484 0 __cxx_global_var_init.25
FUNC 136cc 1c 0 geode::modifier::ModifyBase<geode::modifier::ModifyDerive<XLevelInfoLayer, LevelInfoLayer> >::~ModifyBase()
FUNC 136e8 2f4 0 __cxx_global_var_init.26
FUNC 139dc 1c 0 geode::modifier::ModifyBase<geode::modifier::ModifyDerive<XLevelSelectLayer, LevelSelectLayer> >::~ModifyBase()
FUNC 139f8 2f4 0 __cxx_global_var_init.27
FUNC 13cec 1c 0 geode::modifier::ModifyBase<geode::modifier::ModifyDerive<XEditLevelLayer, EditLevelLayer> >::~ModifyBase()
FUNC 13d08 2f4 0 __cxx_global_var_init.28
FUNC 13ffc 1c 0 geode::modifier::ModifyBase<geode::modifier::ModifyDerive<XPlayLayer, PlayLayer> >::~ModifyBase()
FUNC 14018 2c4 0 __cxx_global_var_init.29
FUNC 142dc 24 0 _GLOBAL__sub_I_main.cpp
FUNC 14300 1c 0 geode::modifier::ModifyBase<geode::modifier::ModifyDerive<hook1311<(anonymous namespace)::hook1311Parent>, PlayerObject> >::~ModifyBase()
FUNC 1431c 10c 0 DRDelegate::FLAlert_Clicked(FLAlertLayer*, bool)
FUNC 14428 46 0 std::__ndk1::basic_string<char, std::__ndk1::char_traits<char>, std::__ndk1::allocator<char> >::__init_copy_ctor_external(char const*, unsigned int)
FUNC 14470 10 0 std::__ndk1::basic_string<char, std::__ndk1::char_traits<char>, std::__ndk1::allocator<char> >::__throw_length_error[abi:ne180000]() const
FUNC 14480 38 0 std::__ndk1::__throw_length_error[abi:ne180000](char const*)
FUNC 144b8 18 0 std::length_error::length_error[abi:ne180000](char const*)
FUNC 144d0 28 0 std::__throw_bad_array_new_length([abi:ne180000], void)
PUBLIC 144f9 0 __clang_call_terminate
FUNC 14504 5e 0 std::__ndk1::basic_string<char, std::__ndk1::char_traits<char>, std::__ndk1::allocator<char> >::basic_string[abi:ne180000]<0>()
FUNC 14562 16 0 nlohmann::json_abi_v3_11_2::basic_json<std::__ndk1::map, std::__ndk1::vector, std::__ndk1::basic_string<char, std::__ndk1::char_traits<char>, std::__ndk1::allocator<char> >, bool, long long, unsigned long long, double, std::__ndk1::allocator, nlohmann::json_abi_v3_11_2::adl_serializer, std::__ndk1::vector<unsigned char, std::__ndk1::allocator<unsigned char> >, void>::data::~data()
FUNC 14578 334 0 nlohmann::json_abi_v3_11_2::basic_json<std::__ndk1::map, std::__ndk1::vector, std::__ndk1::basic_string<char, std::__ndk1::char_traits<char>, std::__ndk1::allocator<char> >, bool, long long, unsigned long long, double, std::__ndk1::allocator, nlohmann::json_abi_v3_11_2::adl_serializer, std::__ndk1::vector<unsigned char, std::__ndk1::allocator<unsigned char> >, void>::json_value::destroy(nlohmann::json_abi_v3_11_2::detail::value_t)
FUNC 148ac 9a 0 std::__ndk1::vector<nlohmann::json_abi_v3_11_2::basic_json<std::__ndk1::map, std::__ndk1::vector, std::__ndk1::basic_string<char, std::__ndk1::char_traits<char>, std::__ndk1::allocator<char> >, bool, long long, unsigned long long, double, std::__ndk1::allocator, nlohmann::json_abi_v3_11_2::adl_serializer, std::__ndk1::vector<unsigned char, std::__ndk1::allocator<unsigned char> >, void>, std::__ndk1::allocator<nlohmann::json_abi_v3_11_2::basic_json<std::__ndk1::map, std::__ndk1::vector, std::__ndk1::basic_string<char, std::__ndk1::char_traits<char>, std::__ndk1::allocator<char> >, bool, long long, unsigned long long, double, std::__ndk1::allocator, nlohmann::json_abi_v3_11_2::adl_serializer, std::__ndk1::vector<unsigned char, std::__ndk1::allocator<unsigned char> >, void> > >::reserve(unsigned int)
FUNC 14946 36 0 std::__ndk1::vector<nlohmann::json_abi_v3_11_2::basic_json<std::__ndk1::map, std::__ndk1::vector, std::__ndk1::basic_string<char, std::__ndk1::char_traits<char>, std::__ndk1::allocator<char> >, bool, long long, unsigned long long, double, std::__ndk1::allocator, nlohmann::json_abi_v3_11_2::adl_serializer, std::__ndk1::vector<unsigned char, std::__ndk1::allocator<unsigned char> >, void>, std::__ndk1::allocator<nlohmann::json_abi_v3_11_2::basic_json<std::__ndk1::map, std::__ndk1::vector, std::__ndk1::basic_string<char, std::__ndk1::char_traits<char>, std::__ndk1::allocator<char> >, bool, long long, unsigned long long, double, std::__ndk1::allocator, nlohmann::json_abi_v3_11_2::adl_serializer, std::__ndk1::vector<unsigned char, std::__ndk1::allocator<unsigned char> >, void> > >::~vector[abi:ne180000]()
FUNC 1497c 10 0 std::__ndk1::vector<nlohmann::json_abi_v3_11_2::basic_json<std::__ndk1::map, std::__ndk1::vector, std::__ndk1::basic_string<char, std::__ndk1::char_traits<char>, std::__ndk1::allocator<char> >, bool, long long, unsigned long long, double, std::__ndk1::allocator, nlohmann::json_abi_v3_11_2::adl_serializer, std::__ndk1::vector<unsigned char, std::__ndk1::allocator<unsigned char> >, void>, std::__ndk1::allocator<nlohmann::json_abi_v3_11_2::basic_json<std::__ndk1::map, std::__ndk1::vector, std::__ndk1::basic_string<char, std::__ndk1::char_traits<char>, std::__ndk1::allocator<char> >, bool, long long, unsigned long long, double, std::__ndk1::allocator, nlohmann::json_abi_v3_11_2::adl_serializer, std::__ndk1::vector<unsigned char, std::__ndk1::allocator<unsigned char> >, void> > >::__throw_length_error[abi:ne180000]() const
FUNC 1498c 2e 0 std::__ndk1::__split_buffer<nlohmann::json_abi_v3_11_2::basic_json<std::__ndk1::map, std::__ndk1::vector, std::__ndk1::basic_string<char, std::__ndk1::char_traits<char>, std::__ndk1::allocator<char> >, bool, long long, unsigned long long, double, std::__ndk1::allocator, nlohmann::json_abi_v3_11_2::adl_serializer, std::__ndk1::vector<unsigned char, std::__ndk1::allocator<unsigned char> >, void>, std::__ndk1::allocator<nlohmann::json_abi_v3_11_2::basic_json<std::__ndk1::map, std::__ndk1::vector, std::__ndk1::basic_string<char, std::__ndk1::char_traits<char>, std::__ndk1::allocator<char> >, bool, long long, unsigned long long, double, std::__ndk1::allocator, nlohmann::json_abi_v3_11_2::adl_serializer, std::__ndk1::vector<unsigned char, std::__ndk1::allocator<unsigned char> >, void> >&>::~__split_buffer()
FUNC 149ba d6 0 std::__ndk1::vector<nlohmann::json_abi_v3_11_2::basic_json<std::__ndk1::map, std::__ndk1::vector, std::__ndk1::basic_string<char, std::__ndk1::char_traits<char>, std::__ndk1::allocator<char> >, bool, long long, unsigned long long, double, std::__ndk1::allocator, nlohmann::json_abi_v3_11_2::adl_serializer, std::__ndk1::vector<unsigned char, std::__ndk1::allocator<unsigned char> >, void>, std::__ndk1::allocator<nlohmann::json_abi_v3_11_2::basic_json<std::__ndk1::map, std::__ndk1::vector, std::__ndk1::basic_string<char, std::__ndk1::char_traits<char>, std::__ndk1::allocator<char> >, bool, long long, unsigned long long, double, std::__ndk1::allocator, nlohmann::json_abi_v3_11_2::adl_serializer, std::__ndk1::vector<unsigned char, std::__ndk1::allocator<unsigned char> >, void> > >::__push_back_slow_path<nlohmann::json_abi_v3_11_2::basic_json<std::__ndk1::map, std::__ndk1::vector, std::__ndk1::basic_string<char, std::__ndk1::char_traits<char>, std::__ndk1::allocator<char> >, bool, long long, unsigned long long, double, std::__ndk1::allocator, nlohmann::json_abi_v3_11_2::adl_serializer, std::__ndk1::vector<unsigned char, std::__ndk1::allocator<unsigned char> >, void> >(nlohmann::json_abi_v3_11_2::basic_json<std::__ndk1::map, std::__ndk1::vector, std::__ndk1::basic_string<char, std::__ndk1::char_traits<char>, std::__ndk1::allocator<char> >, bool, long long, unsigned long long, double, std::__ndk1::allocator, nlohmann::json_abi_v3_11_2::adl_serializer, std::__ndk1::vector<unsigned char, std::__ndk1::allocator<unsigned char> >, void>&&)
FUNC 14a90 3c 0 std::__ndk1::__tree<std::__ndk1::__value_type<std::__ndk1::basic_string<char, std::__ndk1::char_traits<char>, std::__ndk1::allocator<char> >, nlohmann::json_abi_v3_11_2::basic_json<std::__ndk1::map, std::__ndk1::vector, std::__ndk1::basic_string<char, std::__ndk1::char_traits<char>, std::__ndk1::allocator<char> >, bool, long long, unsigned long long, double, std::__ndk1::allocator, nlohmann::json_abi_v3_11_2::adl_serializer, std::__ndk1::vector<unsigned char, std::__ndk1::allocator<unsigned char> >, void> >, std::__ndk1::__map_value_compare<std::__ndk1::basic_string<char, std::__ndk1::char_traits<char>, std::__ndk1::allocator<char> >, std::__ndk1::__value_type<std::__ndk1::basic_string<char, std::__ndk1::char_traits<char>, std::__ndk1::allocator<char> >, nlohmann::json_abi_v3_11_2::basic_json<std::__ndk1::map, std::__ndk1::vector, std::__ndk1::basic_string<char, std::__ndk1::char_traits<char>, std::__ndk1::allocator<char> >, bool, long long, unsigned long long, double, std::__ndk1::allocator, nlohmann::json_abi_v3_11_2::adl_serializer, std::__ndk1::vector<unsigned char, std::__ndk1::allocator<unsigned char> >, void> >, std::__ndk1::less<void>, true>, std::__ndk1::allocator<std::__ndk1::__value_type<std::__ndk1::basic_string<char, std::__ndk1::char_traits<char>, std::__ndk1::allocator<char> >, nlohmann::json_abi_v3_11_2::basic_json<std::__ndk1::map, std::__ndk1::vector, std::__ndk1::basic_string<char, std::__ndk1::char_traits<char>, std::__ndk1::allocator<char> >, bool, long long, unsigned long long, double, std::__ndk1::allocator, nlohmann::json_abi_v3_11_2::adl_serializer, std::__ndk1::vector<unsigned char, std::__ndk1::allocator<unsigned char> >, void> > > >::destroy(std::__ndk1::__tree_node<std::__ndk1::__value_type<std::__ndk1::basic_string<char, std::__ndk1::char_traits<char>, std::__ndk1::allocator<char> >, nlohmann::json_abi_v3_11_2::basic_json<std::__ndk1::map, std::__ndk1::vector, std::__ndk1::basic_string<char, std::__ndk1::char_traits<char>, std::__ndk1::allocator<char> >, bool, long long, unsigned long long, double, std::__ndk1::allocator, nlohmann::json_abi_v3_11_2::adl_serializer, std::__ndk1::vector<unsigned char, std::__ndk1::allocator<unsigned char> >, void> >, void*>*)
FUNC 14acc 88 0 nlohmann::json_abi_v3_11_2::basic_json<std::__ndk1::map, std::__ndk1::vector, std::__ndk1::basic_string<char, std::__ndk1::char_traits<char>, std::__ndk1::allocator<char> >, bool, long long, unsigned long long, double, std::__ndk1::allocator, nlohmann::json_abi_v3_11_2::adl_serializer, std::__ndk1::vector<unsigned char, std::__ndk1::allocator<unsigned char> >, void>::json_value::json_value(nlohmann::json_abi_v3_11_2::detail::value_t)
FUNC 14b54 b2 0 nlohmann::json_abi_v3_11_2::detail::concat<std::__ndk1::basic_string<char, std::__ndk1::char_traits<char>, std::__ndk1::allocator<char> >, std::__ndk1::basic_string<char, std::__ndk1::char_traits<char>, std::__ndk1::allocator<char> >, std::__ndk1::basic_string<char, std::__ndk1::char_traits<char>, std::__ndk1::allocator<char> >, std::__ndk1::basic_string<char, std::__ndk1::char_traits<char>, std::__ndk1::allocator<char> > const&>(std::__ndk1::basic_string<char, std::__ndk1::char_traits<char>, std::__ndk1::allocator<char> >&&, std::__ndk1::basic_string<char, std::__ndk1::char_traits<char>, std::__ndk1::allocator<char> >, std::__ndk1::basic_string<char, std::__ndk1::char_traits<char>, std::__ndk1::allocator<char> > const&)
FUNC 14c08 e4 0 nlohmann::json_abi_v3_11_2::detail::concat<std::__ndk1::basic_string<char, std::__ndk1::char_traits<char>, std::__ndk1::allocator<char> >, char const (&) [17], std::__ndk1::basic_string<char, std::__ndk1::char_traits<char>, std::__ndk1::allocator<char> > const&, char, std::__ndk1::basic_string<char, std::__ndk1::char_traits<char>, std::__ndk1::allocator<char> >, char const (&) [3]>(char const (&) [17], std::__ndk1::basic_string<char, std::__ndk1::char_traits<char>, std::__ndk1::allocator<char> > const&, char, std::__ndk1::basic_string<char, std::__ndk1::char_traits<char>, std::__ndk1::allocator<char> >, char const (&) [3])
FUNC 14cec 6 0 nlohmann::json_abi_v3_11_2::detail::exception::what() const
FUNC 14cf4 2c 0 nlohmann::json_abi_v3_11_2::detail::exception::~exception()
FUNC 14d20 3a 0 std::__ndk1::unique_ptr<std::__ndk1::__tree_node<std::__ndk1::__value_type<std::__ndk1::basic_string<char, std::__ndk1::char_traits<char>, std::__ndk1::allocator<char> >, int>, void*>, std::__ndk1::__tree_node_destructor<std::__ndk1::allocator<std::__ndk1::__tree_node<std::__ndk1::__value_type<std::__ndk1::basic_string<char, std::__ndk1::char_traits<char>, std::__ndk1::allocator<char> >, int>, void*> > > >::~unique_ptr[abi:ne180000]()
FUNC 14d5a 14a 0 std::__ndk1::__tree_balance_after_insert[abi:ne180000]<std::__ndk1::__tree_node_base<void*>*>(std::__ndk1::__tree_node_base<void*>*, std::__ndk1::__tree_node_base<void*>*)
FUNC 14ea4 2e 0 std::__ndk1::__tree<std::__ndk1::__value_type<std::__ndk1::basic_string<char, std::__ndk1::char_traits<char>, std::__ndk1::allocator<char> >, int>, std::__ndk1::__map_value_compare<std::__ndk1::basic_string<char, std::__ndk1::char_traits<char>, std::__ndk1::allocator<char> >, std::__ndk1::__value_type<std::__ndk1::basic_string<char, std::__ndk1::char_traits<char>, std::__ndk1::allocator<char> >, int>, std::__ndk1::less<std::__ndk1::basic_string<char, std::__ndk1::char_traits<char>, std::__ndk1::allocator<char> > >, true>, std::__ndk1::allocator<std::__ndk1::__value_type<std::__ndk1::basic_string<char, std::__ndk1::char_traits<char>, std::__ndk1::allocator<char> >, int> > >::destroy(std::__ndk1::__tree_node<std::__ndk1::__value_type<std::__ndk1::basic_string<char, std::__ndk1::char_traits<char>, std::__ndk1::allocator<char> >, int>, void*>*)
FUNC 14ee0 340 0 geode::modifier::ModifyDerive<XLevelInfoLayer, LevelInfoLayer>::apply()
FUNC 15220 3a 0 std::__ndk1::shared_ptr<geode::Hook>::~shared_ptr[abi:ne180000]()
FUNC 1525c 60 0 geode::impl::ResultData<geode::Hook*, std::__ndk1::basic_string<char, std::__ndk1::char_traits<char>, std::__ndk1::allocator<char> > >::~ResultData()
FUNC 152bc 3e 0 std::__ndk1::vector<std::__ndk1::basic_string<char, std::__ndk1::char_traits<char>, std::__ndk1::allocator<char> >, std::__ndk1::allocator<std::__ndk1::basic_string<char, std::__ndk1::char_traits<char>, std::__ndk1::allocator<char> > > >::~vector[abi:ne180000]()
FUNC 152fa 2 0 geode::modifier::ModifyBase<geode::modifier::ModifyDerive<XLevelInfoLayer, LevelInfoLayer> >::apply()
FUNC 152fc c0 0 std::__ndk1::__tree<std::__ndk1::__value_type<std::__ndk1::basic_string<char, std::__ndk1::char_traits<char>, std::__ndk1::allocator<char> >, std::__ndk1::shared_ptr<geode::Hook> >, std::__ndk1::__map_value_compare<std::__ndk1::basic_string<char, std::__ndk1::char_traits<char>, std::__ndk1::allocator<char> >, std::__ndk1::__value_type<std::__ndk1::basic_string<char, std::__ndk1::char_traits<char>, std::__ndk1::allocator<char> >, std::__ndk1::shared_ptr<geode::Hook> >, std::__ndk1::less<std::__ndk1::basic_string<char, std::__ndk1::char_traits<char>, std::__ndk1::allocator<char> > >, true>, std::__ndk1::allocator<std::__ndk1::__value_type<std::__ndk1::basic_string<char, std::__ndk1::char_traits<char>, std::__ndk1::allocator<char> >, std::__ndk1::shared_ptr<geode::Hook> > > >::find<std::__ndk1::basic_string<char, std::__ndk1::char_traits<char>, std::__ndk1::allocator<char> > >(std::__ndk1::basic_string<char, std::__ndk1::char_traits<char>, std::__ndk1::allocator<char> > const&)
FUNC 153bc ba 0 std::__ndk1::__tree<std::__ndk1::__value_type<std::__ndk1::basic_string<char, std::__ndk1::char_traits<char>, std::__ndk1::allocator<char> >, std::__ndk1::shared_ptr<geode::Hook> >, std::__ndk1::__map_value_compare<std::__ndk1::basic_string<char, std::__ndk1::char_traits<char>, std::__ndk1::allocator<char> >, std::__ndk1::__value_type<std::__ndk1::basic_string<char, std::__ndk1::char_traits<char>, std::__ndk1::allocator<char> >, std::__ndk1::shared_ptr<geode::Hook> >, std::__ndk1::less<std::__ndk1::basic_string<char, std::__ndk1::char_traits<char>, std::__ndk1::allocator<char> > >, true>, std::__ndk1::allocator<std::__ndk1::__value_type<std::__ndk1::basic_string<char, std::__ndk1::char_traits<char>, std::__ndk1::allocator<char> >, std::__ndk1::shared_ptr<geode::Hook> > > >::__find_equal<std::__ndk1::basic_string<char, std::__ndk1::char_traits<char>, std::__ndk1::allocator<char> > >(std::__ndk1::__tree_end_node<std::__ndk1::__tree_node_base<void*>*>*&, std::__ndk1::basic_string<char, std::__ndk1::char_traits<char>, std::__ndk1::allocator<char> > const&)
FUNC 15476 5c 0 std::__ndk1::unique_ptr<std::__ndk1::__tree_node<std::__ndk1::__value_type<std::__ndk1::basic_string<char, std::__ndk1::char_traits<char>, std::__ndk1::allocator<char> >, std::__ndk1::shared_ptr<geode::Hook> >, void*>, std::__ndk1::__tree_node_destructor<std::__ndk1::allocator<std::__ndk1::__tree_node<std::__ndk1::__value_type<std::__ndk1::basic_string<char, std::__ndk1::char_traits<char>, std::__ndk1::allocator<char> >, std::__ndk1::shared_ptr<geode::Hook> >, void*> > > >::~unique_ptr[abi:ne180000]()
FUNC 154d4 f8 0 _ZN5geode15UnwrapExceptionC2IRPNS_4HookEQsr4implE18IsStringStreamableIT_EEENS_4impl5OkTagEOS5_
FUNC 155cc 34 0 std::__ndk1::__throw_bad_variant_access[abi:ne180000]()
FUNC 15600 d8 0 std::__ndk1::basic_stringstream<char, std::__ndk1::char_traits<char>, std::__ndk1::allocator<char> >::basic_stringstream[abi:ne180000]()
FUNC 156d8 68 0 std::__ndk1::basic_stringstream<char, std::__ndk1::char_traits<char>, std::__ndk1::allocator<char> >::~basic_stringstream()
FUNC 15740 10 0 geode::UnwrapException::~UnwrapException()
FUNC 15750 108 0 std::__ndk1::__put_character_sequence[abi:ne180000]<char, std::__ndk1::char_traits<char> >(std::__ndk1::basic_ostream<char, std::__ndk1::char_traits<char> >, std::__ndk1::basic_ostream const*, unsigned int)
FUNC 15858 110 0 std::__ndk1::__pad_and_output[abi:ne180000]<char, std::__ndk1::char_traits<char> >(std::__ndk1::char_traits<char>, std::__ndk1::ostreambuf_iterator const*, std::__ndk1::ostreambuf_iterator const, std::__ndk1::ostreambuf_iterator const, std::__ndk1::ios_base&, std::__ndk1::ostreambuf_iterator)
FUNC 15968 ce 0 std::__ndk1::basic_stringbuf<char, std::__ndk1::char_traits<char>, std::__ndk1::allocator<char> >::str[abi:ne180000]() &&
FUNC 15a36 e0 0 std::__ndk1::basic_stringbuf<char, std::__ndk1::char_traits<char>, std::__ndk1::allocator<char> >::__init_buf_ptrs[abi:ne180000]()
FUNC 15b18 104 0 _ZN5geode15UnwrapExceptionC2IRNSt6__ndk112basic_stringIcNS2_11char_traitsIcEENS2_9allocatorIcEEEEQsr4implE18IsStringStreamableIT_EEENS_4impl6ErrTagEOSA_
FUNC 15c1c 2 0 std::__ndk1::__variant_detail::__visitation::__base::__dispatcher<(unsigned int)0>::__dispatch[abi:ne180000]<std::__ndk1::__variant_detail::__dtor<std::__ndk1::__variant_detail::__traits<std::__ndk1::monostate, std::__ndk1::basic_string<char, std::__ndk1::char_traits<char>, std::__ndk1::allocator<char> > >, (std::__ndk1::__variant_detail::_Trait)1>::__destroy[abi:ne180000]()::{lambda(auto:1&)#1}, std::__ndk1::__variant_detail::__base<(std::__ndk1::__variant_detail::__traits<std::__ndk1::monostate, std::__ndk1::basic_string<char, std::__ndk1::char_traits<char>, std::__ndk1::allocator<char> > >)1, std::__ndk1::__variant_detail::__traits, std::__ndk1::allocator<char> >&>(std::__ndk1::__variant_detail::__dtor<std::__ndk1::__variant_detail::__traits<std::__ndk1::monostate, std::__ndk1::basic_string<char, std::__ndk1::char_traits<char>, std::__ndk1::allocator<char> > >, (std::__ndk1::__variant_detail::_Trait)1>, std::__ndk1::__variant_detail::__base<(std::__ndk1::__variant_detail::__traits<std::__ndk1::monostate, std::__ndk1::basic_string<char, std::__ndk1::char_traits<char>, std::__ndk1::allocator<char> > >)1, std::__ndk1::__variant_detail::__traits, std::__ndk1::allocator<char> >&)
FUNC 15c1e e 0 std::__ndk1::__variant_detail::__visitation::__base::__dispatcher<(unsigned int)1>::__dispatch[abi:ne180000]<std::__ndk1::__variant_detail::__dtor<std::__ndk1::__variant_detail::__traits<std::__ndk1::monostate, std::__ndk1::basic_string<char, std::__ndk1::char_traits<char>, std::__ndk1::allocator<char> > >, (std::__ndk1::__variant_detail::_Trait)1>::__destroy[abi:ne180000]()::{lambda(auto:1&)#1}, std::__ndk1::__variant_detail::__base<(std::__ndk1::__variant_detail::__traits<std::__ndk1::monostate, std::__ndk1::basic_string<char, std::__ndk1::char_traits<char>, std::__ndk1::allocator<char> > >)1, std::__ndk1::__variant_detail::__traits, std::__ndk1::allocator<char> >&>(std::__ndk1::__variant_detail::__dtor<std::__ndk1::__variant_detail::__traits<std::__ndk1::monostate, std::__ndk1::basic_string<char, std::__ndk1::char_traits<char>, std::__ndk1::allocator<char> > >, (std::__ndk1::__variant_detail::_Trait)1>, std::__ndk1::__variant_detail::__base<(std::__ndk1::__variant_detail::__traits<std::__ndk1::monostate, std::__ndk1::basic_string<char, std::__ndk1::char_traits<char>, std::__ndk1::allocator<char> > >)1, std::__ndk1::__variant_detail::__traits, std::__ndk1::allocator<char> >&)
FUNC 15c2c 160 0 std::__ndk1::vector<std::__ndk1::basic_string<char, std::__ndk1::char_traits<char>, std::__ndk1::allocator<char> >, std::__ndk1::allocator<std::__ndk1::basic_string<char, std::__ndk1::char_traits<char>, std::__ndk1::allocator<char> > > >::__push_back_slow_path<std::__ndk1::basic_string<char, std::__ndk1::char_traits<char>, std::__ndk1::allocator<char> > const&>(std::__ndk1::basic_string<char, std::__ndk1::char_traits<char>, std::__ndk1::allocator<char> > const&)
FUNC 15d8c 3c 0 std::__ndk1::__split_buffer<std::__ndk1::basic_string<char, std::__ndk1::char_traits<char>, std::__ndk1::allocator<char> >, std::__ndk1::allocator<std::__ndk1::basic_string<char, std::__ndk1::char_traits<char>, std::__ndk1::allocator<char> > >&>::~__split_buffer()
FUNC 15dc8 10 0 std::__ndk1::vector<std::__ndk1::basic_string<char, std::__ndk1::char_traits<char>, std::__ndk1::allocator<char> >, std::__ndk1::allocator<std::__ndk1::basic_string<char, std::__ndk1::char_traits<char>, std::__ndk1::allocator<char> > > >::__throw_length_error[abi:ne180000]() const
FUNC 15dd8 2 0 std::__ndk1::__variant_detail::__visitation::__base::__dispatcher<(unsigned int)0>::__dispatch[abi:ne180000]<std::__ndk1::__variant_detail::__dtor<std::__ndk1::__variant_detail::__traits<geode::Hook*, std::__ndk1::basic_string<char, std::__ndk1::char_traits<char>, std::__ndk1::allocator<char> > >, (std::__ndk1::__variant_detail::_Trait)1>::__destroy[abi:ne180000]()::{lambda(auto:1&)#1}, std::__ndk1::__variant_detail::__base<(std::__ndk1::__variant_detail::__traits<geode::Hook*, std::__ndk1::basic_string<char, std::__ndk1::char_traits<char>, std::__ndk1::allocator<char> > >)1, geode::Hook, std::__ndk1::allocator<char> >&>(std::__ndk1::__variant_detail::__dtor<std::__ndk1::__variant_detail::__traits<geode::Hook*, std::__ndk1::basic_string<char, std::__ndk1::char_traits<char>, std::__ndk1::allocator<char> > >, (std::__ndk1::__variant_detail::_Trait)1>, std::__ndk1::__variant_detail::__base<(std::__ndk1::__variant_detail::__traits<geode::Hook*, std::__ndk1::basic_string<char, std::__ndk1::char_traits<char>, std::__ndk1::allocator<char> > >)1, geode::Hook, std::__ndk1::allocator<char> >&)
FUNC 15dda e 0 std::__ndk1::__variant_detail::__visitation::__base::__dispatcher<(unsigned int)1>::__dispatch[abi:ne180000]<std::__ndk1::__variant_detail::__dtor<std::__ndk1::__variant_detail::__traits<geode::Hook*, std::__ndk1::basic_string<char, std::__ndk1::char_traits<char>, std::__ndk1::allocator<char> > >, (std::__ndk1::__variant_detail::_Trait)1>::__destroy[abi:ne180000]()::{lambda(auto:1&)#1}, std::__ndk1::__variant_detail::__base<(std::__ndk1::__variant_detail::__traits<geode::Hook*, std::__ndk1::basic_string<char, std::__ndk1::char_traits<char>, std::__ndk1::allocator<char> > >)1, geode::Hook, std::__ndk1::allocator<char> >&>(std::__ndk1::__variant_detail::__dtor<std::__ndk1::__variant_detail::__traits<geode::Hook*, std::__ndk1::basic_string<char, std::__ndk1::char_traits<char>, std::__ndk1::allocator<char> > >, (std::__ndk1::__variant_detail::_Trait)1>, std::__ndk1::__variant_detail::__base<(std::__ndk1::__variant_detail::__traits<geode::Hook*, std::__ndk1::basic_string<char, std::__ndk1::char_traits<char>, std::__ndk1::allocator<char> > >)1, geode::Hook, std::__ndk1::allocator<char> >&)
FUNC 15de8 7a 0 std::__ndk1::__tree<std::__ndk1::__value_type<std::__ndk1::basic_string<char, std::__ndk1::char_traits<char>, std::__ndk1::allocator<char> >, std::__ndk1::shared_ptr<geode::Hook> >, std::__ndk1::__map_value_compare<std::__ndk1::basic_string<char, std::__ndk1::char_traits<char>, std::__ndk1::allocator<char> >, std::__ndk1::__value_type<std::__ndk1::basic_string<char, std::__ndk1::char_traits<char>, std::__ndk1::allocator<char> >, std::__ndk1::shared_ptr<geode::Hook> >, std::__ndk1::less<std::__ndk1::basic_string<char, std::__ndk1::char_traits<char>, std::__ndk1::allocator<char> > >, true>, std::__ndk1::allocator<std::__ndk1::__value_type<std::__ndk1::basic_string<char, std::__ndk1::char_traits<char>, std::__ndk1::allocator<char> >, std::__ndk1::shared_ptr<geode::Hook> > > >::erase(std::__ndk1::__tree_const_iterator<std::__ndk1::__value_type<std::__ndk1::basic_string<char, std::__ndk1::char_traits<char>, std::__ndk1::allocator<char> >, std::__ndk1::shared_ptr<geode::Hook> >, std::__ndk1::__tree_node<std::__ndk1::__value_type<std::__ndk1::basic_string<char, std::__ndk1::char_traits<char>, std::__ndk1::allocator<char> >, std::__ndk1::shared_ptr<geode::Hook> >, void*>*, int>)
FUNC 15e62 274 0 std::__ndk1::__tree_remove[abi:ne180000]<std::__ndk1::__tree_node_base<void*>*>(std::__ndk1::__tree_node_base<void*>*, std::__ndk1::__tree_node_base<void*>*)
FUNC 160d6 5a 0 std::__ndk1::__tree<std::__ndk1::__value_type<std::__ndk1::basic_string<char, std::__ndk1::char_traits<char>, std::__ndk1::allocator<char> >, std::__ndk1::shared_ptr<geode::Hook> >, std::__ndk1::__map_value_compare<std::__ndk1::basic_string<char, std::__ndk1::char_traits<char>, std::__ndk1::allocator<char> >, std::__ndk1::__value_type<std::__ndk1::basic_string<char, std::__ndk1::char_traits<char>, std::__ndk1::allocator<char> >, std::__ndk1::shared_ptr<geode::Hook> >, std::__ndk1::less<std::__ndk1::basic_string<char, std::__ndk1::char_traits<char>, std::__ndk1::allocator<char> > >, true>, std::__ndk1::allocator<std::__ndk1::__value_type<std::__ndk1::basic_string<char, std::__ndk1::char_traits<char>, std::__ndk1::allocator<char> >, std::__ndk1::shared_ptr<geode::Hook> > > >::destroy(std::__ndk1::__tree_node<std::__ndk1::__value_type<std::__ndk1::basic_string<char, std::__ndk1::char_traits<char>, std::__ndk1::allocator<char> >, std::__ndk1::shared_ptr<geode::Hook> >, void*>*)
FUNC 16130 248 0 geode::modifier::AsStaticFunction_init<XLevelInfoLayer, bool (XLevelInfoLayer::*)(GJGameLevel*, bool)>::Impl<bool (XLevelInfoLayer::*)(GJGameLevel*, bool)>::function(XLevelInfoLayer*, GJGameLevel*, bool)
FUNC 16378 3a 0 std::__ndk1::shared_ptr<tulip::hook::CallingConvention>::~shared_ptr[abi:ne180000]()
FUNC 163b2 46 0 tulip::hook::HandlerMetadata::~HandlerMetadata()
FUNC 163f8 10 0 std::__ndk1::vector<tulip::hook::AbstractType, std::__ndk1::allocator<tulip::hook::AbstractType> >::__throw_length_error[abi:ne180000]() const
FUNC 16408 7c0 0 XLevelInfoLayer::onDeathReplay(cocos2d::CCObject*)
FUNC 16bc8 c4 0 std::__ndk1::basic_ifstream<char, std::__ndk1::char_traits<char> >::basic_ifstream(std::__ndk1::basic_string<char, std::__ndk1::char_traits<char>, std::__ndk1::allocator<char> > const&, unsigned int)
FUNC 16c8c 238 0 nlohmann::json_abi_v3_11_2::basic_json<std::__ndk1::map, std::__ndk1::vector, std::__ndk1::basic_string<char, std::__ndk1::char_traits<char>, std::__ndk1::allocator<char> >, bool, long long, unsigned long long, double, std::__ndk1::allocator, nlohmann::json_abi_v3_11_2::adl_serializer, std::__ndk1::vector<unsigned char, std::__ndk1::allocator<unsigned char> >, void>::parse<std::__ndk1::basic_ifstream<char, std::__ndk1::char_traits<char> >&>(std::__ndk1::basic_ifstream<char, std::__ndk1::char_traits<char> >&, std::__ndk1::function<bool (int, nlohmann::json_abi_v3_11_2::detail::parse_event_t, nlohmann::json_abi_v3_11_2::basic_json<std::__ndk1::map, std::__ndk1::vector, std::__ndk1::basic_string<char, std::__ndk1::char_traits<char>, std::__ndk1::allocator<char> >, bool, long long, unsigned long long, double, std::__ndk1::allocator, nlohmann::json_abi_v3_11_2::adl_serializer, std::__ndk1::vector<unsigned char, std::__ndk1::allocator<unsigned char> >, void>&)>, bool, bool)
FUNC 16ec4 38 0 std::__ndk1::basic_ifstream<char, std::__ndk1::char_traits<char> >::~basic_ifstream()
FUNC 16efc 1e0 0 _ZNSt6__ndk112basic_stringIcNS_11char_traitsIcEENS_9allocatorIcEEE6appendB8ne180000IPKcTnNS_9enable_ifIXsr31__has_forward_iterator_categoryIT_EE5valueEiE4typeELi0EEERS5_SA_SA_
FUNC 170e0 2754 0 nlohmann::json_abi_v3_11_2::detail::parser<nlohmann::json_abi_v3_11_2::basic_json<std::__ndk1::map, std::__ndk1::vector, std::__ndk1::basic_string<char, std::__ndk1::char_traits<char>, std::__ndk1::allocator<char> >, bool, long long, unsigned long long, double, std::__ndk1::allocator, nlohmann::json_abi_v3_11_2::adl_serializer, std::__ndk1::vector<unsigned char, std::__ndk1::allocator<unsigned char> >, void>, nlohmann::json_abi_v3_11_2::detail::input_stream_adapter>::parse(bool, nlohmann::json_abi_v3_11_2::basic_json<std::__ndk1::map, std::__ndk1::vector, std::__ndk1::basic_string<char, std::__ndk1::char_traits<char>, std::__ndk1::allocator<char> >, bool, long long, unsigned long long, double, std::__ndk1::allocator, nlohmann::json_abi_v3_11_2::adl_serializer, std::__ndk1::vector<unsigned char, std::__ndk1::allocator<unsigned char> >, void>&)
FUNC 19834 56 0 nlohmann::json_abi_v3_11_2::detail::parser<nlohmann::json_abi_v3_11_2::basic_json<std::__ndk1::map, std::__ndk1::vector, std::__ndk1::basic_string<char, std::__ndk1::char_traits<char>, std::__ndk1::allocator<char> >, bool, long long, unsigned long long, double, std::__ndk1::allocator, nlohmann::json_abi_v3_11_2::adl_serializer, std::__ndk1::vector<unsigned char, std::__ndk1::allocator<unsigned char> >, void>, nlohmann::json_abi_v3_11_2::detail::input_stream_adapter>::~parser()
FUNC 1988a 26 0 nlohmann::json_abi_v3_11_2::detail::input_stream_adapter::~input_stream_adapter()
FUNC 198b0 3e 0 nlohmann::json_abi_v3_11_2::detail::lexer<nlohmann::json_abi_v3_11_2::basic_json<std::__ndk1::map, std::__ndk1::vector, std::__ndk1::basic_string<char, std::__ndk1::char_traits<char>, std::__ndk1::allocator<char> >, bool, long long, unsigned long long, double, std::__ndk1::allocator, nlohmann::json_abi_v3_11_2::adl_serializer, std::__ndk1::vector<unsigned char, std::__ndk1::allocator<unsigned char> >, void>, nlohmann::json_abi_v3_11_2::detail::input_stream_adapter>::~lexer()
FUNC 198f0 1018 0 nlohmann::json_abi_v3_11_2::detail::lexer<nlohmann::json_abi_v3_11_2::basic_json<std::__ndk1::map, std::__ndk1::vector, std::__ndk1::basic_string<char, std::__ndk1::char_traits<char>, std::__ndk1::allocator<char> >, bool, long long, unsigned long long, double, std::__ndk1::allocator, nlohmann::json_abi_v3_11_2::adl_serializer, std::__ndk1::vector<unsigned char, std::__ndk1::allocator<unsigned char> >, void>, nlohmann::json_abi_v3_11_2::detail::input_stream_adapter>::scan()
FUNC 1a908 160 0 nlohmann::json_abi_v3_11_2::detail::lexer<nlohmann::json_abi_v3_11_2::basic_json<std::__ndk1::map, std::__ndk1::vector, std::__ndk1::basic_string<char, std::__ndk1::char_traits<char>, std::__ndk1::allocator<char> >, bool, long long, unsigned long long, double, std::__ndk1::allocator, nlohmann::json_abi_v3_11_2::adl_serializer, std::__ndk1::vector<unsigned char, std::__ndk1::allocator<unsigned char> >, void>, nlohmann::json_abi_v3_11_2::detail::input_stream_adapter>::get()
FUNC 1aa68 10 0 std::__ndk1::vector<char, std::__ndk1::allocator<char> >::__throw_length_error[abi:ne180000]() const
FUNC 1aa78 d0 0 nlohmann::json_abi_v3_11_2::detail::lexer<nlohmann::json_abi_v3_11_2::basic_json<std::__ndk1::map, std::__ndk1::vector, std::__ndk1::basic_string<char, std::__ndk1::char_traits<char>, std::__ndk1::allocator<char> >, bool, long long, unsigned long long, double, std::__ndk1::allocator, nlohmann::json_abi_v3_11_2::adl_serializer, std::__ndk1::vector<unsigned char, std::__ndk1::allocator<unsigned char> >, void>, nlohmann::json_abi_v3_11_2::detail::input_stream_adapter>::get_codepoint()
FUNC 1ab48 38 0 nlohmann::json_abi_v3_11_2::detail::json_sax_dom_callback_parser<nlohmann::json_abi_v3_11_2::basic_json<std::__ndk1::map, std::__ndk1::vector, std::__ndk1::basic_string<char, std::__ndk1::char_traits<char>, std::__ndk1::allocator<char> >, bool, long long, unsigned long long, double, std::__ndk1::allocator, nlohmann::json_abi_v3_11_2::adl_serializer, std::__ndk1::vector<unsigned char, std::__ndk1::allocator<unsigned char> >, void> >::parse_error<nlohmann::json_abi_v3_11_2::detail::parse_error>(unsigned int, std::__ndk1::basic_string<char, std::__ndk1::char_traits<char>, std::__ndk1::allocator<char> > const&, nlohmann::json_abi_v3_11_2::detail::parse_error const&)
FUNC 1ab80 a8 0 nlohmann::json_abi_v3_11_2::detail::lexer<nlohmann::json_abi_v3_11_2::basic_json<std::__ndk1::map, std::__ndk1::vector, std::__ndk1::basic_string<char, std::__ndk1::char_traits<char>, std::__ndk1::allocator<char> >, bool, long long, unsigned long long, double, std::__ndk1::allocator, nlohmann::json_abi_v3_11_2::adl_serializer, std::__ndk1::vector<unsigned char, std::__ndk1::allocator<unsigned char> >, void>, nlohmann::json_abi_v3_11_2::detail::input_stream_adapter>::get_token_string() const
FUNC 1ac28 36c 0 _ZN8nlohmann16json_abi_v3_11_26detail11parse_error6createIDnTnNSt6__ndk19enable_ifIXsr21is_basic_json_contextIT_EE5valueEiE4typeELi0EEES2_iRKNS1_10position_tERKNS4_12basic_stringIcNS4_11char_traitsIcEENS4_9allocatorIcEEEES6_
FUNC 1af94 328 0 nlohmann::json_abi_v3_11_2::detail::parser<nlohmann::json_abi_v3_11_2::basic_json<std::__ndk1::map, std::__ndk1::vector, std::__ndk1::basic_string<char, std::__ndk1::char_traits<char>, std::__ndk1::allocator<char> >, bool, long long, unsigned long long, double, std::__ndk1::allocator, nlohmann::json_abi_v3_11_2::adl_serializer, std::__ndk1::vector<unsigned char, std::__ndk1::allocator<unsigned char> >, void>, nlohmann::json_abi_v3_11_2::detail::input_stream_adapter>::exception_message(nlohmann::json_abi_v3_11_2::detail::lexer_base<nlohmann::json_abi_v3_11_2::basic_json<std::__ndk1::map, std::__ndk1::vector, std::__ndk1::basic_string<char, std::__ndk1::char_traits<char>, std::__ndk1::allocator<char> >, bool, long long, unsigned long long, double, std::__ndk1::allocator, nlohmann::json_abi_v3_11_2::adl_serializer, std::__ndk1::vector<unsigned char, std::__ndk1::allocator<unsigned char> >, void> >::token_type, std::__ndk1::basic_string<char, std::__ndk1::char_traits<char>, std::__ndk1::allocator<char> > const&)
FUNC 1b2bc 28 0 nlohmann::json_abi_v3_11_2::detail::exception::~exception()
FUNC 1b2e4 54 0 nlohmann::json_abi_v3_11_2::detail::json_sax_dom_callback_parser<nlohmann::json_abi_v3_11_2::basic_json<std::__ndk1::map, std::__ndk1::vector, std::__ndk1::basic_string<char, std::__ndk1::char_traits<char>, std::__ndk1::allocator<char> >, bool, long long, unsigned long long, double, std::__ndk1::allocator, nlohmann::json_abi_v3_11_2::adl_serializer, std::__ndk1::vector<unsigned char, std::__ndk1::allocator<unsigned char> >, void> >::~json_sax_dom_callback_parser()
FUNC 1b338 34 0 nlohmann::json_abi_v3_11_2::detail::json_sax_dom_parser<nlohmann::json_abi_v3_11_2::basic_json<std::__ndk1::map, std::__ndk1::vector, std::__ndk1::basic_string<char, std::__ndk1::char_traits<char>, std::__ndk1::allocator<char> >, bool, long long, unsigned long long, double, std::__ndk1::allocator, nlohmann::json_abi_v3_11_2::adl_serializer, std::__ndk1::vector<unsigned char, std::__ndk1::allocator<unsigned char> >, void> >::parse_error<nlohmann::json_abi_v3_11_2::detail::parse_error>(unsigned int, std::__ndk1::basic_string<char, std::__ndk1::char_traits<char>, std::__ndk1::allocator<char> > const&, nlohmann::json_abi_v3_11_2::detail::parse_error const&)
FUNC 1b36c ce 0 std::__ndk1::vector<bool, std::__ndk1::allocator<bool> >::reserve(unsigned int)
FUNC 1b43c 10 0 std::__ndk1::vector<bool, std::__ndk1::allocator<bool> >::__throw_length_error[abi:ne180000]() const
FUNC 1b44c 358 0 nlohmann::json_abi_v3_11_2::detail::json_sax_dom_callback_parser<nlohmann::json_abi_v3_11_2::basic_json<std::__ndk1::map, std::__ndk1::vector, std::__ndk1::basic_string<char, std::__ndk1::char_traits<char>, std::__ndk1::allocator<char> >, bool, long long, unsigned long long, double, std::__ndk1::allocator, nlohmann::json_abi_v3_11_2::adl_serializer, std::__ndk1::vector<unsigned char, std::__ndk1::allocator<unsigned char> >, void> >::end_object()
FUNC 1b7a4 198 0 nlohmann::json_abi_v3_11_2::detail::json_sax_dom_callback_parser<nlohmann::json_abi_v3_11_2::basic_json<std::__ndk1::map, std::__ndk1::vector, std::__ndk1::basic_string<char, std::__ndk1::char_traits<char>, std::__ndk1::allocator<char> >, bool, long long, unsigned long long, double, std::__ndk1::allocator, nlohmann::json_abi_v3_11_2::adl_serializer, std::__ndk1::vector<unsigned char, std::__ndk1::allocator<unsigned char> >, void> >::key(std::__ndk1::basic_string<char, std::__ndk1::char_traits<char>, std::__ndk1::allocator<char> >&)
FUNC 1b93c fc 0 nlohmann::json_abi_v3_11_2::detail::json_sax_dom_callback_parser<nlohmann::json_abi_v3_11_2::basic_json<std::__ndk1::map, std::__ndk1::vector, std::__ndk1::basic_string<char, std::__ndk1::char_traits<char>, std::__ndk1::allocator<char> >, bool, long long, unsigned long long, double, std::__ndk1::allocator, nlohmann::json_abi_v3_11_2::adl_serializer, std::__ndk1::vector<unsigned char, std::__ndk1::allocator<unsigned char> >, void> >::end_array()
FUNC 1ba38 38 0 nlohmann::json_abi_v3_11_2::detail::json_sax_dom_callback_parser<nlohmann::json_abi_v3_11_2::basic_json<std::__ndk1::map, std::__ndk1::vector, std::__ndk1::basic_string<char, std::__ndk1::char_traits<char>, std::__ndk1::allocator<char> >, bool, long long, unsigned long long, double, std::__ndk1::allocator, nlohmann::json_abi_v3_11_2::adl_serializer, std::__ndk1::vector<unsigned char, std::__ndk1::allocator<unsigned char> >, void> >::parse_error<nlohmann::json_abi_v3_11_2::detail::out_of_range>(unsigned int, std::__ndk1::basic_string<char, std::__ndk1::char_traits<char>, std::__ndk1::allocator<char> > const&, nlohmann::json_abi_v3_11_2::detail::out_of_range const&)
FUNC 1ba70 160 0 _ZN8nlohmann16json_abi_v3_11_26detail12out_of_range6createIDnTnNSt6__ndk19enable_ifIXsr21is_basic_json_contextIT_EE5valueEiE4typeELi0EEES2_iRKNS4_12basic_stringIcNS4_11char_traitsIcEENS4_9allocatorIcEEEES6_
FUNC 1bbd0 7c 0 nlohmann::json_abi_v3_11_2::detail::concat<std::__ndk1::basic_string<char, std::__ndk1::char_traits<char>, std::__ndk1::allocator<char> >, char const (&) [26], std::__ndk1::basic_string<char, std::__ndk1::char_traits<char>, std::__ndk1::allocator<char> >, char>(char const (&) [26], std::__ndk1::basic_string<char, std::__ndk1::char_traits<char>, std::__ndk1::allocator<char> >, char)
FUNC 1bc4c 190 0 nlohmann::json_abi_v3_11_2::detail::json_sax_dom_callback_parser<nlohmann::json_abi_v3_11_2::basic_json<std::__ndk1::map, std::__ndk1::vector, std::__ndk1::basic_string<char, std::__ndk1::char_traits<char>, std::__ndk1::allocator<char> >, bool, long long, unsigned long long, double, std::__ndk1::allocator, nlohmann::json_abi_v3_11_2::adl_serializer, std::__ndk1::vector<unsigned char, std::__ndk1::allocator<unsigned char> >, void> >::handle_value<nlohmann::json_abi_v3_11_2::detail::value_t>(nlohmann::json_abi_v3_11_2::detail::value_t&&, bool)
FUNC 1bddc 34 0 std::__ndk1::__throw_bad_function_call[abi:ne180000]()
FUNC 1be10 10 0 std::__ndk1::bad_function_call::~bad_function_call()
FUNC 1be20 d6 0 std::__ndk1::vector<nlohmann::json_abi_v3_11_2::basic_json<std::__ndk1::map, std::__ndk1::vector, std::__ndk1::basic_string<char, std::__ndk1::char_traits<char>, std::__ndk1::allocator<char> >, bool, long long, unsigned long long, double, std::__ndk1::allocator, nlohmann::json_abi_v3_11_2::adl_serializer, std::__ndk1::vector<unsigned char, std::__ndk1::allocator<unsigned char> >, void>, std::__ndk1::allocator<nlohmann::json_abi_v3_11_2::basic_json<std::__ndk1::map, std::__ndk1::vector, std::__ndk1::basic_string<char, std::__ndk1::char_traits<char>, std::__ndk1::allocator<char> >, bool, long long, unsigned long long, double, std::__ndk1::allocator, nlohmann::json_abi_v3_11_2::adl_serializer, std::__ndk1::vector<unsigned char, std::__ndk1::allocator<unsigned char> >, void> > >::__emplace_back_slow_path<nlohmann::json_abi_v3_11_2::basic_json<std::__ndk1::map, std::__ndk1::vector, std::__ndk1::basic_string<char, std::__ndk1::char_traits<char>, std::__ndk1::allocator<char> >, bool, long long, unsigned long long, double, std::__ndk1::allocator, nlohmann::json_abi_v3_11_2::adl_serializer, std::__ndk1::vector<unsigned char, std::__ndk1::allocator<unsigned char> >, void> >(nlohmann::json_abi_v3_11_2::basic_json<std::__ndk1::map, std::__ndk1::vector, std::__ndk1::basic_string<char, std::__ndk1::char_traits<char>, std::__ndk1::allocator<char> >, bool, long long, unsigned long long, double, std::__ndk1::allocator, nlohmann::json_abi_v3_11_2::adl_serializer, std::__ndk1::vector<unsigned char, std::__ndk1::allocator<unsigned char> >, void>&&)
FUNC 1bef8 10 0 std::__ndk1::vector<nlohmann::json_abi_v3_11_2::basic_json<std::__ndk1::map, std::__ndk1::vector, std::__ndk1::basic_string<char, std::__ndk1::char_traits<char>, std::__ndk1::allocator<char> >, bool, long long, unsigned long long, double, std::__ndk1::allocator, nlohmann::json_abi_v3_11_2::adl_serializer, std::__ndk1::vector<unsigned char, std::__ndk1::allocator<unsigned char> >, void>*, std::__ndk1::allocator<nlohmann::json_abi_v3_11_2::basic_json<std::__ndk1::map, std::__ndk1::vector, std::__ndk1::basic_string<char, std::__ndk1::char_traits<char>, std::__ndk1::allocator<char> >, bool, long long, unsigned long long, double, std::__ndk1::allocator, nlohmann::json_abi_v3_11_2::adl_serializer, std::__ndk1::vector<unsigned char, std::__ndk1::allocator<unsigned char> >, void>*> >::__throw_length_error[abi:ne180000]() const
FUNC 1bf08 2c 0 nlohmann::json_abi_v3_11_2::detail::out_of_range::~out_of_range()
FUNC 1bf34 35c 0 nlohmann::json_abi_v3_11_2::basic_json<std::__ndk1::map, std::__ndk1::vector, std::__ndk1::basic_string<char, std::__ndk1::char_traits<char>, std::__ndk1::allocator<char> >, bool, long long, unsigned long long, double, std::__ndk1::allocator, nlohmann::json_abi_v3_11_2::adl_serializer, std::__ndk1::vector<unsigned char, std::__ndk1::allocator<unsigned char> >, void>::basic_json(nlohmann::json_abi_v3_11_2::basic_json<std::__ndk1::map, std::__ndk1::vector, std::__ndk1::basic_string<char, std::__ndk1::char_traits<char>, std::__ndk1::allocator<char> >, bool, long long, unsigned long long, double, std::__ndk1::allocator, nlohmann::json_abi_v3_11_2::adl_serializer, std::__ndk1::vector<unsigned char, std::__ndk1::allocator<unsigned char> >, void> const&)
FUNC 1c290 38 0 std::__ndk1::unique_ptr<std::__ndk1::__tree_node<std::__ndk1::__value_type<std::__ndk1::basic_string<char, std::__ndk1::char_traits<char>, std::__ndk1::allocator<char> >, nlohmann::json_abi_v3_11_2::basic_json<std::__ndk1::map, std::__ndk1::vector, std::__ndk1::basic_string<char, std::__ndk1::char_traits<char>, std::__ndk1::allocator<char> >, bool, long long, unsigned long long, double, std::__ndk1::allocator, nlohmann::json_abi_v3_11_2::adl_serializer, std::__ndk1::vector<unsigned char, std::__ndk1::allocator<unsigned char> >, void> >, void*>, std::__ndk1::__tree_node_destructor<std::__ndk1::allocator<std::__ndk1::__tree_node<std::__ndk1::__value_type<std::__ndk1::basic_string<char, std::__ndk1::char_traits<char>, std::__ndk1::allocator<char> >, nlohmann::json_abi_v3_11_2::basic_json<std::__ndk1::map, std::__ndk1::vector, std::__ndk1::basic_string<char, std::__ndk1::char_traits<char>, std::__ndk1::allocator<char> >, bool, long long, unsigned long long, double, std::__ndk1::allocator, nlohmann::json_abi_v3_11_2::adl_serializer, std::__ndk1::vector<unsigned char, std::__ndk1::allocator<unsigned char> >, void> >, void*> > > >::~unique_ptr[abi:ne180000]()
FUNC 1c2c8 ba 0 std::__ndk1::__tree<std::__ndk1::__value_type<std::__ndk1::basic_string<char, std::__ndk1::char_traits<char>, std::__ndk1::allocator<char> >, nlohmann::json_abi_v3_11_2::basic_json<std::__ndk1::map, std::__ndk1::vector, std::__ndk1::basic_string<char, std::__ndk1::char_traits<char>, std::__ndk1::allocator<char> >, bool, long long, unsigned long long, double, std::__ndk1::allocator, nlohmann::json_abi_v3_11_2::adl_serializer, std::__ndk1::vector<unsigned char, std::__ndk1::allocator<unsigned char> >, void> >, std::__ndk1::__map_value_compare<std::__ndk1::basic_string<char, std::__ndk1::char_traits<char>, std::__ndk1::allocator<char> >, std::__ndk1::__value_type<std::__ndk1::basic_string<char, std::__ndk1::char_traits<char>, std::__ndk1::allocator<char> >, nlohmann::json_abi_v3_11_2::basic_json<std::__ndk1::map, std::__ndk1::vector, std::__ndk1::basic_string<char, std::__ndk1::char_traits<char>, std::__ndk1::allocator<char> >, bool, long long, unsigned long long, double, std::__ndk1::allocator, nlohmann::json_abi_v3_11_2::adl_serializer, std::__ndk1::vector<unsigned char, std::__ndk1::allocator<unsigned char> >, void> >, std::__ndk1::less<void>, true>, std::__ndk1::allocator<std::__ndk1::__value_type<std::__ndk1::basic_string<char, std::__ndk1::char_traits<char>, std::__ndk1::allocator<char> >, nlohmann::json_abi_v3_11_2::basic_json<std::__ndk1::map, std::__ndk1::vector, std::__ndk1::basic_string<char, std::__ndk1::char_traits<char>, std::__ndk1::allocator<char> >, bool, long long, unsigned long long, double, std::__ndk1::allocator, nlohmann::json_abi_v3_11_2::adl_serializer, std::__ndk1::vector<unsigned char, std::__ndk1::allocator<unsigned char> >, void> > > >::__find_equal<std::__ndk1::basic_string<char, std::__ndk1::char_traits<char>, std::__ndk1::allocator<char> > >(std::__ndk1::__tree_end_node<std::__ndk1::__tree_node_base<void*>*>*&, std::__ndk1::basic_string<char, std::__ndk1::char_traits<char>, std::__ndk1::allocator<char> > const&)
FUNC 1c382 46 0 std::__ndk1::__exception_guard_exceptions<std::__ndk1::vector<nlohmann::json_abi_v3_11_2::basic_json<std::__ndk1::map, std::__ndk1::vector, std::__ndk1::basic_string<char, std::__ndk1::char_traits<char>, std::__ndk1::allocator<char> >, bool, long long, unsigned long long, double, std::__ndk1::allocator, nlohmann::json_abi_v3_11_2::adl_serializer, std::__ndk1::vector<unsigned char, std::__ndk1::allocator<unsigned char> >, void>, std::__ndk1::allocator<nlohmann::json_abi_v3_11_2::basic_json<std::__ndk1::map, std::__ndk1::vector, std::__ndk1::basic_string<char, std::__ndk1::char_traits<char>, std::__ndk1::allocator<char> >, bool, long long, unsigned long long, double, std::__ndk1::allocator, nlohmann::json_abi_v3_11_2::adl_serializer, std::__ndk1::vector<unsigned char, std::__ndk1::allocator<unsigned char> >, void> > >::__destroy_vector>::~__exception_guard_exceptions[abi:ne180000]()
FUNC 1c3c8 34 0 std::__ndk1::__exception_guard_exceptions<std::__ndk1::_AllocatorDestroyRangeReverse<std::__ndk1::allocator<nlohmann::json_abi_v3_11_2::basic_json<std::__ndk1::map, std::__ndk1::vector, std::__ndk1::basic_string<char, std::__ndk1::char_traits<char>, std::__ndk1::allocator<char> >, bool, long long, unsigned long long, double, std::__ndk1::allocator, nlohmann::json_abi_v3_11_2::adl_serializer, std::__ndk1::vector<unsigned char, std::__ndk1::allocator<unsigned char> >, void> >, nlohmann::json_abi_v3_11_2::basic_json<std::__ndk1::map, std::__ndk1::vector, std::__ndk1::basic_string<char, std::__ndk1::char_traits<char>, std::__ndk1::allocator<char> >, bool, long long, unsigned long long, double, std::__ndk1::allocator, nlohmann::json_abi_v3_11_2::adl_serializer, std::__ndk1::vector<unsigned char, std::__ndk1::allocator<unsigned char> >, void>*> >::~__exception_guard_exceptions[abi:ne180000]()
FUNC 1c3fc 10 0 std::__ndk1::vector<unsigned char, std::__ndk1::allocator<unsigned char> >::__throw_length_error[abi:ne180000]() const
FUNC 1c40c 158 0 _ZN8nlohmann16json_abi_v3_11_26detail16invalid_iterator6createIPNS0_10basic_jsonINSt6__ndk13mapENS5_6vectorENS5_12basic_stringIcNS5_11char_traitsIcEENS5_9allocatorIcEEEEbxydSB_NS0_14adl_serializerENS7_IhNSB_IhEEEEvEETnNS5_9enable_ifIXsr21is_basic_json_contextIT_EE5valueEiE4typeELi0EEES2_iRKSD_SK_
FUNC 1c564 2c 0 nlohmann::json_abi_v3_11_2::detail::invalid_iterator::~invalid_iterator()
FUNC 1c590 15c 0 _ZN8nlohmann16json_abi_v3_11_26detail10type_error6createIPNS0_10basic_jsonINSt6__ndk13mapENS5_6vectorENS5_12basic_stringIcNS5_11char_traitsIcEENS5_9allocatorIcEEEEbxydSB_NS0_14adl_serializerENS7_IhNSB_IhEEEEvEETnNS5_9enable_ifIXsr21is_basic_json_contextIT_EE5valueEiE4typeELi0EEES2_iRKSD_SK_
FUNC 1c6ec 70 0 nlohmann::json_abi_v3_11_2::detail::concat<std::__ndk1::basic_string<char, std::__ndk1::char_traits<char>, std::__ndk1::allocator<char> >, char const (&) [25], char const*>(char const (&) [25], char const*)
FUNC 1c75c 20 0 nlohmann::json_abi_v3_11_2::basic_json<std::__ndk1::map, std::__ndk1::vector, std::__ndk1::basic_string<char, std::__ndk1::char_traits<char>, std::__ndk1::allocator<char> >, bool, long long, unsigned long long, double, std::__ndk1::allocator, nlohmann::json_abi_v3_11_2::adl_serializer, std::__ndk1::vector<unsigned char, std::__ndk1::allocator<unsigned char> >, void>::type_name() const
FUNC 1c77c 2c 0 nlohmann::json_abi_v3_11_2::detail::type_error::~type_error()
FUNC 1c7a8 c8 0 std::__ndk1::__tree<std::__ndk1::__value_type<std::__ndk1::basic_string<char, std::__ndk1::char_traits<char>, std::__ndk1::allocator<char> >, nlohmann::json_abi_v3_11_2::basic_json<std::__ndk1::map, std::__ndk1::vector, std::__ndk1::basic_string<char, std::__ndk1::char_traits<char>, std::__ndk1::allocator<char> >, bool, long long, unsigned long long, double, std::__ndk1::allocator, nlohmann::json_abi_v3_11_2::adl_serializer, std::__ndk1::vector<unsigned char, std::__ndk1::allocator<unsigned char> >, void> >, std::__ndk1::__map_value_compare<std::__ndk1::basic_string<char, std::__ndk1::char_traits<char>, std::__ndk1::allocator<char> >, std::__ndk1::__value_type<std::__ndk1::basic_string<char, std::__ndk1::char_traits<char>, std::__ndk1::allocator<char> >, nlohmann::json_abi_v3_11_2::basic_json<std::__ndk1::map, std::__ndk1::vector, std::__ndk1::basic_string<char, std::__ndk1::char_traits<char>, std::__ndk1::allocator<char> >, bool, long long, unsigned long long, double, std::__ndk1::allocator, nlohmann::json_abi_v3_11_2::adl_serializer, std::__ndk1::vector<unsigned char, std::__ndk1::allocator<unsigned char> >, void> >, std::__ndk1::less<void>, true>, std::__ndk1::allocator<std::__ndk1::__value_type<std::__ndk1::basic_string<char, std::__ndk1::char_traits<char>, std::__ndk1::allocator<char> >, nlohmann::json_abi_v3_11_2::basic_json<std::__ndk1::map, std::__ndk1::vector, std::__ndk1::basic_string<char, std::__ndk1::char_traits<char>, std::__ndk1::allocator<char> >, bool, long long, unsigned long long, double, std::__ndk1::allocator, nlohmann::json_abi_v3_11_2::adl_serializer, std::__ndk1::vector<unsigned char, std::__ndk1::allocator<unsigned char> >, void> > > >::__emplace_unique_key_args<std::__ndk1::basic_string<char, std::__ndk1::char_traits<char>, std::__ndk1::allocator<char> >, std::__ndk1::piecewise_construct_t const&, std::__ndk1::tuple<std::__ndk1::basic_string<char, std::__ndk1::char_traits<char>, std::__ndk1::allocator<char> > const&>, std::__ndk1::tuple<> >(std::__ndk1::basic_string<char, std::__ndk1::char_traits<char>, std::__ndk1::allocator<char> > const&, std::__ndk1::piecewise_construct_t const&, std::__ndk1::tuple<std::__ndk1::basic_string<char, std::__ndk1::char_traits<char>, std::__ndk1::allocator<char> > const&>, std::__ndk1::tuple<>)
FUNC 1c870 30 0 nlohmann::json_abi_v3_11_2::detail::out_of_range::out_of_range(nlohmann::json_abi_v3_11_2::detail::out_of_range const&)
FUNC 1c8a0 1c0 0 nlohmann::json_abi_v3_11_2::detail::json_sax_dom_callback_parser<nlohmann::json_abi_v3_11_2::basic_json<std::__ndk1::map, std::__ndk1::vector, std::__ndk1::basic_string<char, std::__ndk1::char_traits<char>, std::__ndk1::allocator<char> >, bool, long long, unsigned long long, double, std::__ndk1::allocator, nlohmann::json_abi_v3_11_2::adl_serializer, std::__ndk1::vector<unsigned char, std::__ndk1::allocator<unsigned char> >, void> >::handle_value<bool&>(bool&, bool)
FUNC 1ca60 38 0 nlohmann::json_abi_v3_11_2::detail::parse_error::parse_error(nlohmann::json_abi_v3_11_2::detail::parse_error const&)
FUNC 1ca98 2c 0 nlohmann::json_abi_v3_11_2::detail::parse_error::~parse_error()
FUNC 1cac4 44 0 snprintf(char*, unsigned int pass_object_size1, char const*, ...)
FUNC 1cb08 34 0 nlohmann::json_abi_v3_11_2::detail::json_sax_dom_parser<nlohmann::json_abi_v3_11_2::basic_json<std::__ndk1::map, std::__ndk1::vector, std::__ndk1::basic_string<char, std::__ndk1::char_traits<char>, std::__ndk1::allocator<char> >, bool, long long, unsigned long long, double, std::__ndk1::allocator, nlohmann::json_abi_v3_11_2::adl_serializer, std::__ndk1::vector<unsigned char, std::__ndk1::allocator<unsigned char> >, void> >::parse_error<nlohmann::json_abi_v3_11_2::detail::out_of_range>(unsigned int, std::__ndk1::basic_string<char, std::__ndk1::char_traits<char>, std::__ndk1::allocator<char> > const&, nlohmann::json_abi_v3_11_2::detail::out_of_range const&)
FUNC 1cb3c 1ec 0 nlohmann::json_abi_v3_11_2::detail::json_sax_dom_parser<nlohmann::json_abi_v3_11_2::basic_json<std::__ndk1::map, std::__ndk1::vector, std::__ndk1::basic_string<char, std::__ndk1::char_traits<char>, std::__ndk1::allocator<char> >, bool, long long, unsigned long long, double, std::__ndk1::allocator, nlohmann::json_abi_v3_11_2::adl_serializer, std::__ndk1::vector<unsigned char, std::__ndk1::allocator<unsigned char> >, void> >::handle_value<nlohmann::json_abi_v3_11_2::detail::value_t>(nlohmann::json_abi_v3_11_2::detail::value_t&&)
FUNC 1cd28 194 0 nlohmann::json_abi_v3_11_2::detail::json_sax_dom_parser<nlohmann::json_abi_v3_11_2::basic_json<std::__ndk1::map, std::__ndk1::vector, std::__ndk1::basic_string<char, std::__ndk1::char_traits<char>, std::__ndk1::allocator<char> >, bool, long long, unsigned long long, double, std::__ndk1::allocator, nlohmann::json_abi_v3_11_2::adl_serializer, std::__ndk1::vector<unsigned char, std::__ndk1::allocator<unsigned char> >, void> >::handle_value<bool&>(bool&)
FUNC 1cebc 4 0 cocos2d::CCCopying::copyWithZone(cocos2d::CCZone*)
FUNC 1cec0 10 0 DrInfoPopup::~DrInfoPopup()
FUNC 1ced0 2 0 DrInfoPopup::update(float)
FUNC 1cee0 5a4 0 DrInfoPopup::init()
FUNC 1d484 26 0 DrInfoPopup::registerWithTouchDispatcher()
FUNC 1d4aa 2 0 cocos2d::CCLayerRGBA::setOpacityModifyRGB(bool)
FUNC 1d4ac 4 0 cocos2d::CCLayerRGBA::isOpacityModifyRGB()
FUNC 1d4b0 8 0 {virtual override thunk({offset(-264)}, DrInfoPopup::~DrInfoPopup())}
FUNC 1d4b8 14 0 {virtual override thunk({offset(-264)}, DrInfoPopup::~DrInfoPopup())}
FUNC 1d4cc 2 0 cocos2d::CCKeyboardDelegate::keyUp(cocos2d::enumKeyCodes)
FUNC 1d4ce 2 0 cocos2d::CCMouseDelegate::rightKeyDown()
FUNC 1d4d0 2 0 cocos2d::CCMouseDelegate::rightKeyUp()
FUNC 1d4d2 2 0 cocos2d::CCMouseDelegate::scrollWheel(float, float)
FUNC 1d4d4 2 0 {virtual override thunk({offset(-316)}, cocos2d::CCLayerRGBA::setOpacityModifyRGB(bool))}
FUNC 1d4d6 4 0 {virtual override thunk({offset(-316)}, cocos2d::CCLayerRGBA::isOpacityModifyRGB())}
FUNC 1d4da 8 0 DrInfoPopup::onExitButton(cocos2d::CCObject*)
FUNC 1d4e2 10 0 DrPercentageBar::~DrPercentageBar()
FUNC 1d4f2 2 0 DrPercentageBar::update(float)
FUNC 1d500 320 0 geode::modifier::ModifyDerive<XLevelSelectLayer, LevelSelectLayer>::apply()
FUNC 1d820 2 0 geode::modifier::ModifyBase<geode::modifier::ModifyDerive<XLevelSelectLayer, LevelSelectLayer> >::apply()
FUNC 1d824 16c 0 geode::modifier::AsStaticFunction_init<XLevelSelectLayer, bool (XLevelSelectLayer::*)(int)>::Impl<bool (XLevelSelectLayer::*)(int)>::function(XLevelSelectLayer*, int)
FUNC 1d990 150 0 XLevelSelectLayer::onDeathReplay(cocos2d::CCObject*)
FUNC 1dae0 74c 0 XLevelSelectLayer::checkPossibilityS(float)
FUNC 1e22c 90 0 XLevelSelectLayer::detectLevelID()
FUNC 1e2bc 88 0 geode::cast::traverseTypeinfoFor(void*, geode::cast::ClassTypeinfoType const*, char const*)
FUNC 1e350 310 0 geode::modifier::ModifyDerive<XEditLevelLayer, EditLevelLayer>::apply()
FUNC 1e660 2 0 geode::modifier::ModifyBase<geode::modifier::ModifyDerive<XEditLevelLayer, EditLevelLayer> >::apply()
FUNC 1e664 f8 0 geode::modifier::AsStaticFunction_init<XEditLevelLayer, bool (XEditLevelLayer::*)(GJGameLevel*)>::Impl<bool (XEditLevelLayer::*)(GJGameLevel*)>::function(XEditLevelLayer*, GJGameLevel*)
FUNC 1e75c b4 0 XEditLevelLayer::onDeathReplay(cocos2d::CCObject*)
FUNC 1e810 a2c 0 geode::modifier::ModifyDerive<XPlayLayer, PlayLayer>::apply()
FUNC 1f23c 2 0 geode::modifier::ModifyBase<geode::modifier::ModifyDerive<XPlayLayer, PlayLayer> >::apply()
FUNC 1f240 84 0 geode::addresser::getVirtual<void (PlayLayer::*)(float)>(void (PlayLayer::*)(float))
FUNC 1f2d0 ec8 0 geode::modifier::AsStaticFunction_updateVisibility<XPlayLayer, void (XPlayLayer::*)(float)>::Impl<void (XPlayLayer::*)(float)>::function(XPlayLayer*, float)
FUNC 201a0 a20 0 geode::modifier::AsStaticFunction_init<XPlayLayer, bool (XPlayLayer::*)(GJGameLevel*, bool, bool)>::Impl<bool (XPlayLayer::*)(GJGameLevel*, bool, bool)>::function(XPlayLayer*, GJGameLevel*, bool, bool)
FUNC 20bc0 cc 0 geode::Hook::create<void (*)(XPlayLayer*)>(void*, void (*)(XPlayLayer*), std::__ndk1::basic_string<char, std::__ndk1::char_traits<char>, std::__ndk1::allocator<char> > const&, tulip::hook::TulipConvention, tulip::hook::HookMetadata const&)
FUNC 20c90 888 0 geode::modifier::AsStaticFunction_resetLevel<XPlayLayer, void (XPlayLayer::*)()>::Impl<void (XPlayLayer::*)()>::function(XPlayLayer*)
FUNC 21518 188 0 geode::modifier::AsStaticFunction_startGame<XPlayLayer, void (XPlayLayer::*)()>::Impl<void (XPlayLayer::*)()>::function(XPlayLayer*)
FUNC 216a0 690 0 PlayLayer::PlayLayer(geode::ZeroConstructorType)
FUNC 21d30 3e0 0 GJGameState::GJGameState()
FUNC 22110 3a 0 geode::stl::unordered_map<int, int, geode::stl::hash<int>, geode::stl::equal_to<int>, std::__ndk1::allocator<std::__ndk1::pair<int const, int> > >::~unordered_map()
FUNC 2214a 3a 0 geode::stl::unordered_set<int, geode::stl::hash<int>, geode::stl::equal_to<int>, std::__ndk1::allocator<int> >::~unordered_set()
FUNC 22184 4c 0 geode::stl::unordered_map<int, gd::string, geode::stl::hash<int>, geode::stl::equal_to<int>, std::__ndk1::allocator<std::__ndk1::pair<int const, gd::string> > >::~unordered_map()
FUNC 221d0 14 0 gd::map<std::__ndk1::pair<int, int>, int>::~map()
FUNC 221e4 4e 0 geode::stl::unordered_map<int, gd::vector<LabelGameObject*>, geode::stl::hash<int>, geode::stl::equal_to<int>, std::__ndk1::allocator<std::__ndk1::pair<int const, gd::vector<LabelGameObject*> > > >::~unordered_map()
FUNC 22232 3a 0 geode::stl::unordered_map<int, std::__ndk1::pair<int, int>, geode::stl::hash<int>, geode::stl::equal_to<int>, std::__ndk1::allocator<std::__ndk1::pair<int const, std::__ndk1::pair<int, int> > > >::~unordered_map()
FUNC 2226c 4e 0 geode::stl::unordered_map<int, gd::vector<GameObject*>, geode::stl::hash<int>, geode::stl::equal_to<int>, std::__ndk1::allocator<std::__ndk1::pair<int const, gd::vector<GameObject*> > > >::~unordered_map()
FUNC 222ba 3a 0 geode::stl::unordered_map<int, cocos2d::CCPoint, geode::stl::hash<int>, geode::stl::equal_to<int>, std::__ndk1::allocator<std::__ndk1::pair<int const, cocos2d::CCPoint> > >::~unordered_map()
FUNC 222f4 9a 0 gd::vector<geode::stl::unordered_map<int, int, geode::stl::hash<int>, geode::stl::equal_to<int>, std::__ndk1::allocator<std::__ndk1::pair<int const, int> > > >::~vector()
FUNC 2238e 33a 0 GJGameState::~GJGameState()
FUNC 226c8 3a 0 geode::stl::unordered_map<int, SongChannelState, geode::stl::hash<int>, geode::stl::equal_to<int>, std::__ndk1::allocator<std::__ndk1::pair<int const, SongChannelState> > >::~unordered_map()
FUNC 22702 14 0 gd::map<std::__ndk1::pair<int, int>, SFXTriggerInstance>::~map()
FUNC 22716 50 0 geode::stl::unordered_map<int, std::__ndk1::vector<int, std::__ndk1::allocator<int> >, geode::stl::hash<int>, geode::stl::equal_to<int>, std::__ndk1::allocator<std::__ndk1::pair<int const, std::__ndk1::vector<int, std::__ndk1::allocator<int> > > > >::~unordered_map()
FUNC 22766 58 0 gd::vector<EnterEffectInstance>::~vector()
FUNC 227be 34 0 geode::stl::unordered_map<int, std::__ndk1::vector<EnterEffectInstance, std::__ndk1::allocator<EnterEffectInstance> >, geode::stl::hash<int>, geode::stl::equal_to<int>, std::__ndk1::allocator<std::__ndk1::pair<int const, std::__ndk1::vector<EnterEffectInstance, std::__ndk1::allocator<EnterEffectInstance> > > > >::~unordered_map()
FUNC 227f2 14 0 gd::map<std::__ndk1::pair<GJGameEvent, int>, int>::~map()
FUNC 22806 14 0 gd::map<std::__ndk1::pair<GJGameEvent, int>, gd::vector<EventTriggerInstance> >::~map()
FUNC 2281a 3a 0 geode::stl::unordered_map<int, EnhancedGameObject*, geode::stl::hash<int>, geode::stl::equal_to<int>, std::__ndk1::allocator<std::__ndk1::pair<int const, EnhancedGameObject*> > >::~unordered_map()
FUNC 22854 3a 0 geode::stl::unordered_map<int, GameObjectPhysics, geode::stl::hash<int>, geode::stl::equal_to<int>, std::__ndk1::allocator<std::__ndk1::pair<int const, GameObjectPhysics> > >::~unordered_map()
FUNC 2288e 3a 0 geode::stl::unordered_map<int, GJValueTween, geode::stl::hash<int>, geode::stl::equal_to<int>, std::__ndk1::allocator<std::__ndk1::pair<int const, GJValueTween> > >::~unordered_map()
FUNC 228c8 3a 0 geode::stl::unordered_map<int, bool, geode::stl::hash<int>, geode::stl::equal_to<int>, std::__ndk1::allocator<std::__ndk1::pair<int const, bool> > >::~unordered_map()
FUNC 22904 11c 0 gd::map<std::__ndk1::pair<GJGameEvent, int>, gd::vector<EventTriggerInstance> >::map(std::__ndk1::map<std::__ndk1::pair<GJGameEvent, int>, gd::vector<EventTriggerInstance>, std::__ndk1::less<std::__ndk1::pair<GJGameEvent, int> >, std::__ndk1::allocator<std::__ndk1::pair<std::__ndk1::pair<GJGameEvent, int> const, gd::vector<EventTriggerInstance> > > >)
FUNC 22a20 19e 0 gd::map<std::__ndk1::pair<GJGameEvent, int>, gd::vector<EventTriggerInstance> >::insert_pair(std::__ndk1::pair<std::__ndk1::pair<GJGameEvent, int>, gd::vector<EventTriggerInstance> > const&)
FUNC 22bbe 40 0 std::__ndk1::pair<std::__ndk1::pair<GJGameEvent, int>, gd::vector<EventTriggerInstance> >::~pair()
FUNC 22bfe 40 0 std::__ndk1::pair<std::__ndk1::pair<GJGameEvent, int> const, gd::vector<EventTriggerInstance> >::~pair()
FUNC 22c3e 10a 0 gd::vector<EventTriggerInstance>::vector(gd::vector<EventTriggerInstance> const&)
FUNC 22d48 17c 0 geode::stl::_rb_insert_rebalance(bool, geode::stl::_rb_tree_base*, geode::stl::_rb_tree_base*, geode::stl::_rb_tree_base&)
FUNC 22ec4 12e 0 gd::vector<EventTriggerInstance>::operator=(gd::vector<EventTriggerInstance> const&)
FUNC 22ff2 40 0 gd::vector<EventTriggerInstance>::~vector()
FUNC 23032 5c 0 std::__ndk1::__tree<std::__ndk1::__value_type<std::__ndk1::pair<GJGameEvent, int>, gd::vector<EventTriggerInstance> >, std::__ndk1::__map_value_compare<std::__ndk1::pair<GJGameEvent, int>, std::__ndk1::__value_type<std::__ndk1::pair<GJGameEvent, int>, gd::vector<EventTriggerInstance> >, std::__ndk1::less<std::__ndk1::pair<GJGameEvent, int> >, true>, std::__ndk1::allocator<std::__ndk1::__value_type<std::__ndk1::pair<GJGameEvent, int>, gd::vector<EventTriggerInstance> > > >::destroy(std::__ndk1::__tree_node<std::__ndk1::__value_type<std::__ndk1::pair<GJGameEvent, int>, gd::vector<EventTriggerInstance> >, void*>*)
FUNC 2308e 2c 0 gd::map<std::__ndk1::pair<int, int>, SFXTriggerInstance>::erase(geode::stl::_rb_tree_node<std::__ndk1::pair<std::__ndk1::pair<int, int>, SFXTriggerInstance> >*)
FUNC 230ba 2c 0 gd::map<int, EnterEffectAnimValue>::erase(geode::stl::_rb_tree_node<std::__ndk1::pair<int, EnterEffectAnimValue> >*)
FUNC 230e6 64 0 geode::stl::__detail::_Hashtable_alloc<std::__ndk1::allocator<geode::stl::__detail::_Hash_node<std::__ndk1::pair<int const, std::__ndk1::vector<EnterEffectInstance, std::__ndk1::allocator<EnterEffectInstance> > >, false> > >::_M_deallocate_nodes(geode::stl::__detail::_Hash_node<std::__ndk1::pair<int const, std::__ndk1::vector<EnterEffectInstance, std::__ndk1::allocator<EnterEffectInstance> > >, false>*)
FUNC 2314a 2c 0 gd::map<std::__ndk1::pair<GJGameEvent, int>, int>::erase(geode::stl::_rb_tree_node<std::__ndk1::pair<std::__ndk1::pair<GJGameEvent, int>, int> >*)
FUNC 23176 6e 0 gd::map<std::__ndk1::pair<GJGameEvent, int>, gd::vector<EventTriggerInstance> >::erase(geode::stl::_rb_tree_node<std::__ndk1::pair<std::__ndk1::pair<GJGameEvent, int>, gd::vector<EventTriggerInstance> > >*)
FUNC 231e4 2c 0 gd::map<std::__ndk1::pair<int, int>, int>::erase(geode::stl::_rb_tree_node<std::__ndk1::pair<std::__ndk1::pair<int, int>, int> >*)
FUNC 23210 138 0 nlohmann::json_abi_v3_11_2::basic_json<std::__ndk1::map, std::__ndk1::vector, std::__ndk1::basic_string<char, std::__ndk1::char_traits<char>, std::__ndk1::allocator<char> >, bool, long long, unsigned long long, double, std::__ndk1::allocator, nlohmann::json_abi_v3_11_2::adl_serializer, std::__ndk1::vector<unsigned char, std::__ndk1::allocator<unsigned char> >, void>::operator[]<char const>(char const*)
FUNC 23348 1dc 0 nlohmann::json_abi_v3_11_2::basic_json<std::__ndk1::map, std::__ndk1::vector, std::__ndk1::basic_string<char, std::__ndk1::char_traits<char>, std::__ndk1::allocator<char> >, bool, long long, unsigned long long, double, std::__ndk1::allocator, nlohmann::json_abi_v3_11_2::adl_serializer, std::__ndk1::vector<unsigned char, std::__ndk1::allocator<unsigned char> >, void>::operator[](unsigned int)
FUNC 23524 50c 0 geode::modifier::FieldIntermediate<XPlayLayer, PlayLayer>::self()
FUNC 23a30 118 0 geode::modifier::FieldIntermediate<XPlayLayer, PlayLayer>::fieldDestructor(void*)
FUNC 23b48 10 0 std::__ndk1::vector<void*, std::__ndk1::allocator<void*> >::__throw_length_error[abi:ne180000]() const
FUNC 23b58 10 0 std::__ndk1::vector<std::__ndk1::function<void (void*)>, std::__ndk1::allocator<std::__ndk1::function<void (void*)> > >::__throw_length_error[abi:ne180000]() const
FUNC 23b68 10 0 std::__ndk1::vector<void*, std::__ndk1::allocator<void*> >::__throw_out_of_range[abi:ne180000]() const
FUNC 23b78 38 0 std::__ndk1::__throw_out_of_range[abi:ne180000](char const*)
FUNC 23bb0 18 0 std::out_of_range::out_of_range[abi:ne180000](char const*)
FUNC 23bc8 10 0 std::__ndk1::vector<std::__ndk1::function<void (void*)>, std::__ndk1::allocator<std::__ndk1::function<void (void*)> > >::__throw_out_of_range[abi:ne180000]() const
FUNC 23bd8 2e 0 std::__ndk1::__tree<std::__ndk1::__value_type<int, std::__ndk1::vector<PlayerEvent, std::__ndk1::allocator<PlayerEvent> > >, std::__ndk1::__map_value_compare<int, std::__ndk1::__value_type<int, std::__ndk1::vector<PlayerEvent, std::__ndk1::allocator<PlayerEvent> > >, std::__ndk1::less<int>, true>, std::__ndk1::allocator<std::__ndk1::__value_type<int, std::__ndk1::vector<PlayerEvent, std::__ndk1::allocator<PlayerEvent> > > > >::destroy(std::__ndk1::__tree_node<std::__ndk1::__value_type<int, std::__ndk1::vector<PlayerEvent, std::__ndk1::allocator<PlayerEvent> > >, void*>*)
FUNC 23c06 3c 0 GhostPosition::~GhostPosition()
FUNC 23c42 2 0 std::__ndk1::__function::__base<void (void*)>::~__base()
FUNC 23c44 4 0 std::__ndk1::__function::__func<void (*)(void*), std::__ndk1::allocator<void (*)(void*)>, void (void*)>::~__func()
FUNC 23c48 20 0 std::__ndk1::__function::__func<void (*)(void*), std::__ndk1::allocator<void (*)(void*)>, void (void*)>::__clone() const
FUNC 23c68 14 0 std::__ndk1::__function::__func<void (*)(void*), std::__ndk1::allocator<void (*)(void*)>, void (void*)>::__clone(std::__ndk1::__function::__base<void (void*)>*) const
FUNC 23c7c 2 0 std::__ndk1::__function::__func<void (*)(void*), std::__ndk1::allocator<void (*)(void*)>, void (void*)>::destroy()
FUNC 23c7e 4 0 std::__ndk1::__function::__func<void (*)(void*), std::__ndk1::allocator<void (*)(void*)>, void (void*)>::destroy_deallocate()
FUNC 23c82 8 0 std::__ndk1::__function::__func<void (*)(void*), std::__ndk1::allocator<void (*)(void*)>, void (void*)>::operator()(void*&&)
FUNC 23c8c 18 0 std::__ndk1::__function::__func<void (*)(void*), std::__ndk1::allocator<void (*)(void*)>, void (void*)>::target(std::type_info const&) const
FUNC 23ca4 c 0 std::__ndk1::__function::__func<void (*)(void*), std::__ndk1::allocator<void (*)(void*)>, void (void*)>::target_type() const
FUNC 23cb0 e8 0 std::__ndk1::vector<GhostPlayerFrame, std::__ndk1::allocator<GhostPlayerFrame> >::__init_with_size[abi:ne180000]<GhostPlayerFrame*, std::__ndk1::vector<GhostPlayerFrame, std::__ndk1::allocator<GhostPlayerFrame> >::__init_with_size[abi:ne180000]>(GhostPlayerFrame*, std::__ndk1::vector<GhostPlayerFrame, std::__ndk1::allocator<GhostPlayerFrame> >::__init_with_size[abi:ne180000], unsigned int)
FUNC 23d98 4c 0 std::__ndk1::__exception_guard_exceptions<std::__ndk1::vector<GhostPlayerFrame, std::__ndk1::allocator<GhostPlayerFrame> >::__destroy_vector>::~__exception_guard_exceptions[abi:ne180000]()
FUNC 23de4 10 0 std::__ndk1::vector<GhostPlayerFrame, std::__ndk1::allocator<GhostPlayerFrame> >::__throw_length_error[abi:ne180000]() const
FUNC 23df4 3a 0 std::__ndk1::__exception_guard_exceptions<std::__ndk1::_AllocatorDestroyRangeReverse<std::__ndk1::allocator<GhostPlayerFrame>, GhostPlayerFrame*> >::~__exception_guard_exceptions[abi:ne180000]()
FUNC 23e30 118 0 std::__ndk1::vector<PlayerEvent, std::__ndk1::allocator<PlayerEvent> >::__init_with_size[abi:ne180000]<PlayerEvent*, std::__ndk1::vector<PlayerEvent, std::__ndk1::allocator<PlayerEvent> >::__init_with_size[abi:ne180000]>(PlayerEvent*, std::__ndk1::vector<PlayerEvent, std::__ndk1::allocator<PlayerEvent> >::__init_with_size[abi:ne180000], unsigned int)
FUNC 23f48 10 0 std::__ndk1::vector<PlayerEvent, std::__ndk1::allocator<PlayerEvent> >::__throw_length_error[abi:ne180000]() const
FUNC 23f58 6 0 std::__ndk1::__variant_detail::__visitation::__base::__dispatcher<(unsigned int)0, (unsigned int)0>::__dispatch[abi:ne180000]<std::__ndk1::__variant_detail::__ctor<std::__ndk1::__variant_detail::__traits<unsigned char, DashRingObject*, cocos2d::CCPoint> >::__generic_construct[abi:ne180000]<std::__ndk1::__variant_detail::__copy_constructor<cocos2d::CCPoint, (std::__ndk1::__variant_detail::_Trait)1> const&>(std::__ndk1::__variant_detail::__traits<unsigned char, DashRingObject*, cocos2d::CCPoint>&, std::__ndk1::__variant_detail::__copy_constructor<cocos2d::CCPoint, (std::__ndk1::__variant_detail::_Trait)1> const&)::{lambda(std::__ndk1::__variant_detail::__copy_constructor<cocos2d::CCPoint, (std::__ndk1::__variant_detail::_Trait)1> const&, auto:2&&)#1}, std::__ndk1::__variant_detail::__base<(std::__ndk1::__variant_detail::__ctor<std::__ndk1::__variant_detail::__traits<unsigned char, DashRingObject*, cocos2d::CCPoint> >::__generic_construct[abi:ne180000])0, unsigned char, DashRingObject, cocos2d>&, std::__ndk1::__variant_detail::__ctor<std::__ndk1::__variant_detail::__traits<unsigned char, DashRingObject*, cocos2d::CCPoint> >::__generic_construct[abi:ne180000]<std::__ndk1::__variant_detail::__copy_constructor<cocos2d::CCPoint, (std::__ndk1::__variant_detail::_Trait)1> const&>(std::__ndk1::__variant_detail::__traits<unsigned char, DashRingObject*, cocos2d::CCPoint>&, std::__ndk1::__variant_detail::__copy_constructor<cocos2d::CCPoint, (std::__ndk1::__variant_detail::_Trait)1> const&)::{lambda(std::__ndk1::__variant_detail::__copy_constructor<cocos2d::CCPoint, (std::__ndk1::__variant_detail::_Trait)1> const&, auto:2&&)#1} const&>(std::__ndk1::__variant_detail::__copy_constructor<cocos2d::CCPoint, (std::__ndk1::__variant_detail::_Trait)1> const&, std::__ndk1::__variant_detail::__base<(std::__ndk1::__variant_detail::__ctor<std::__ndk1::__variant_detail::__traits<unsigned char, DashRingObject*, cocos2d::CCPoint> >::__generic_construct[abi:ne180000])0, unsigned char, DashRingObject, cocos2d>&, std::__ndk1::__variant_detail::__ctor<std::__ndk1::__variant_detail::__traits<unsigned char, DashRingObject*, cocos2d::CCPoint> >::__generic_construct[abi:ne180000]<std::__ndk1::__variant_detail::__copy_constructor<cocos2d::CCPoint, (std::__ndk1::__variant_detail::_Trait)1> const&>(std::__ndk1::__variant_detail::__traits<unsigned char, DashRingObject*, cocos2d::CCPoint>&, std::__ndk1::__variant_detail::__copy_constructor<cocos2d::CCPoint, (std::__ndk1::__variant_detail::_Trait)1> const&)::{lambda(std::__ndk1::__variant_detail::__copy_constructor<cocos2d::CCPoint, (std::__ndk1::__variant_detail::_Trait)1> const&, auto:2&&)#1} const&)
FUNC 23f5e 6 0 std::__ndk1::__variant_detail::__visitation::__base::__dispatcher<(unsigned int)1, (unsigned int)1>::__dispatch[abi:ne180000]<std::__ndk1::__variant_detail::__ctor<std::__ndk1::__variant_detail::__traits<unsigned char, DashRingObject*, cocos2d::CCPoint> >::__generic_construct[abi:ne180000]<std::__ndk1::__variant_detail::__copy_constructor<cocos2d::CCPoint, (std::__ndk1::__variant_detail::_Trait)1> const&>(std::__ndk1::__variant_detail::__traits<unsigned char, DashRingObject*, cocos2d::CCPoint>&, std::__ndk1::__variant_detail::__copy_constructor<cocos2d::CCPoint, (std::__ndk1::__variant_detail::_Trait)1> const&)::{lambda(std::__ndk1::__variant_detail::__copy_constructor<cocos2d::CCPoint, (std::__ndk1::__variant_detail::_Trait)1> const&, auto:2&&)#1}, std::__ndk1::__variant_detail::__base<(std::__ndk1::__variant_detail::__ctor<std::__ndk1::__variant_detail::__traits<unsigned char, DashRingObject*, cocos2d::CCPoint> >::__generic_construct[abi:ne180000])0, unsigned char, DashRingObject, cocos2d>&, std::__ndk1::__variant_detail::__ctor<std::__ndk1::__variant_detail::__traits<unsigned char, DashRingObject*, cocos2d::CCPoint> >::__generic_construct[abi:ne180000]<std::__ndk1::__variant_detail::__copy_constructor<cocos2d::CCPoint, (std::__ndk1::__variant_detail::_Trait)1> const&>(std::__ndk1::__variant_detail::__traits<unsigned char, DashRingObject*, cocos2d::CCPoint>&, std::__ndk1::__variant_detail::__copy_constructor<cocos2d::CCPoint, (std::__ndk1::__variant_detail::_Trait)1> const&)::{lambda(std::__ndk1::__variant_detail::__copy_constructor<cocos2d::CCPoint, (std::__ndk1::__variant_detail::_Trait)1> const&, auto:2&&)#1} const&>(std::__ndk1::__variant_detail::__copy_constructor<cocos2d::CCPoint, (std::__ndk1::__variant_detail::_Trait)1> const&, std::__ndk1::__variant_detail::__base<(std::__ndk1::__variant_detail::__ctor<std::__ndk1::__variant_detail::__traits<unsigned char, DashRingObject*, cocos2d::CCPoint> >::__generic_construct[abi:ne180000])0, unsigned char, DashRingObject, cocos2d>&, std::__ndk1::__variant_detail::__ctor<std::__ndk1::__variant_detail::__traits<unsigned char, DashRingObject*, cocos2d::CCPoint> >::__generic_construct[abi:ne180000]<std::__ndk1::__variant_detail::__copy_constructor<cocos2d::CCPoint, (std::__ndk1::__variant_detail::_Trait)1> const&>(std::__ndk1::__variant_detail::__traits<unsigned char, DashRingObject*, cocos2d::CCPoint>&, std::__ndk1::__variant_detail::__copy_constructor<cocos2d::CCPoint, (std::__ndk1::__variant_detail::_Trait)1> const&)::{lambda(std::__ndk1::__variant_detail::__copy_constructor<cocos2d::CCPoint, (std::__ndk1::__variant_detail::_Trait)1> const&, auto:2&&)#1} const&)
FUNC 23f64 a 0 std::__ndk1::__variant_detail::__visitation::__base::__dispatcher<(unsigned int)2, (unsigned int)2>::__dispatch[abi:ne180000]<std::__ndk1::__variant_detail::__ctor<std::__ndk1::__variant_detail::__traits<unsigned char, DashRingObject*, cocos2d::CCPoint> >::__generic_construct[abi:ne180000]<std::__ndk1::__variant_detail::__copy_constructor<cocos2d::CCPoint, (std::__ndk1::__variant_detail::_Trait)1> const&>(std::__ndk1::__variant_detail::__traits<unsigned char, DashRingObject*, cocos2d::CCPoint>&, std::__ndk1::__variant_detail::__copy_constructor<cocos2d::CCPoint, (std::__ndk1::__variant_detail::_Trait)1> const&)::{lambda(std::__ndk1::__variant_detail::__copy_constructor<cocos2d::CCPoint, (std::__ndk1::__variant_detail::_Trait)1> const&, auto:2&&)#1}, std::__ndk1::__variant_detail::__base<(std::__ndk1::__variant_detail::__ctor<std::__ndk1::__variant_detail::__traits<unsigned char, DashRingObject*, cocos2d::CCPoint> >::__generic_construct[abi:ne180000])0, unsigned char, DashRingObject, cocos2d>&, std::__ndk1::__variant_detail::__ctor<std::__ndk1::__variant_detail::__traits<unsigned char, DashRingObject*, cocos2d::CCPoint> >::__generic_construct[abi:ne180000]<std::__ndk1::__variant_detail::__copy_constructor<cocos2d::CCPoint, (std::__ndk1::__variant_detail::_Trait)1> const&>(std::__ndk1::__variant_detail::__traits<unsigned char, DashRingObject*, cocos2d::CCPoint>&, std::__ndk1::__variant_detail::__copy_constructor<cocos2d::CCPoint, (std::__ndk1::__variant_detail::_Trait)1> const&)::{lambda(std::__ndk1::__variant_detail::__copy_constructor<cocos2d::CCPoint, (std::__ndk1::__variant_detail::_Trait)1> const&, auto:2&&)#1} const&>(std::__ndk1::__variant_detail::__copy_constructor<cocos2d::CCPoint, (std::__ndk1::__variant_detail::_Trait)1> const&, std::__ndk1::__variant_detail::__base<(std::__ndk1::__variant_detail::__ctor<std::__ndk1::__variant_detail::__traits<unsigned char, DashRingObject*, cocos2d::CCPoint> >::__generic_construct[abi:ne180000])0, unsigned char, DashRingObject, cocos2d>&, std::__ndk1::__variant_detail::__ctor<std::__ndk1::__variant_detail::__traits<unsigned char, DashRingObject*, cocos2d::CCPoint> >::__generic_construct[abi:ne180000]<std::__ndk1::__variant_detail::__copy_constructor<cocos2d::CCPoint, (std::__ndk1::__variant_detail::_Trait)1> const&>(std::__ndk1::__variant_detail::__traits<unsigned char, DashRingObject*, cocos2d::CCPoint>&, std::__ndk1::__variant_detail::__copy_constructor<cocos2d::CCPoint, (std::__ndk1::__variant_detail::_Trait)1> const&)::{lambda(std::__ndk1::__variant_detail::__copy_constructor<cocos2d::CCPoint, (std::__ndk1::__variant_detail::_Trait)1> const&, auto:2&&)#1} const&)
FUNC 23f70 264 0 GhostPlayerFrame::processEventOnPlayer(PlayerEvent const&, PlayerObject*)
FUNC 241d4 1ec 0 XPlayLayer::setupPlayerInfoInFrame()
FUNC 243c0 474 0 XPlayLayer::pushEvent(PlayerObject*, PlayerEvent)
FUNC 24834 1e 0 std::__ndk1::__variant_detail::__visitation::__base::__dispatcher<(unsigned int)0, (unsigned int)0>::__dispatch[abi:ne180000]<std::__ndk1::__variant_detail::__assignment<std::__ndk1::__variant_detail::__traits<unsigned char, DashRingObject*, cocos2d::CCPoint> >::__generic_assign[abi:ne180000]<std::__ndk1::__variant_detail::__copy_assignment<cocos2d::CCPoint, (std::__ndk1::__variant_detail::_Trait)1> const&>(std::__ndk1::__variant_detail::__copy_assignment<cocos2d::CCPoint, (std::__ndk1::__variant_detail::_Trait)1> const&)::{lambda(std::__ndk1::__variant_detail::__copy_assignment<cocos2d::CCPoint, (std::__ndk1::__variant_detail::_Trait)1> const&, auto:2&&)#1}, std::__ndk1::__variant_detail::__base<(std::__ndk1::__variant_detail::__assignment<std::__ndk1::__variant_detail::__traits<unsigned char, DashRingObject*, cocos2d::CCPoint> >::__generic_assign[abi:ne180000])0, unsigned char, DashRingObject, cocos2d>&, std::__ndk1::__variant_detail::__assignment<std::__ndk1::__variant_detail::__traits<unsigned char, DashRingObject*, cocos2d::CCPoint> >::__generic_assign[abi:ne180000]<std::__ndk1::__variant_detail::__copy_assignment<cocos2d::CCPoint, (std::__ndk1::__variant_detail::_Trait)1> const&>(std::__ndk1::__variant_detail::__copy_assignment<cocos2d::CCPoint, (std::__ndk1::__variant_detail::_Trait)1> const&)::{lambda(std::__ndk1::__variant_detail::__copy_assignment<cocos2d::CCPoint, (std::__ndk1::__variant_detail::_Trait)1> const&, auto:2&&)#1} const&>(std::__ndk1::__variant_detail::__copy_assignment<cocos2d::CCPoint, (std::__ndk1::__variant_detail::_Trait)1> const, std::__ndk1::__variant_detail::__base<(std::__ndk1::__variant_detail::__assignment<std::__ndk1::__variant_detail::__traits<unsigned char, DashRingObject*, cocos2d::CCPoint> >::__generic_assign[abi:ne180000])0, unsigned char, DashRingObject, cocos2d>&, std::__ndk1::__variant_detail::__assignment<std::__ndk1::__variant_detail::__traits<unsigned char, DashRingObject*, cocos2d::CCPoint> >::__generic_assign[abi:ne180000]<std::__ndk1::__variant_detail::__copy_assignment<cocos2d::CCPoint, (std::__ndk1::__variant_detail::_Trait)1> const&>(std::__ndk1::__variant_detail::__copy_assignment<cocos2d::CCPoint, (std::__ndk1::__variant_detail::_Trait)1> const&)::{lambda(std::__ndk1::__variant_detail::__copy_assignment<cocos2d::CCPoint, (std::__ndk1::__variant_detail::_Trait)1> const&, auto:2&&)#1} const&)
FUNC 24852 14 0 std::__ndk1::__variant_detail::__visitation::__base::__dispatcher<(unsigned int)1, (unsigned int)1>::__dispatch[abi:ne180000]<std::__ndk1::__variant_detail::__assignment<std::__ndk1::__variant_detail::__traits<unsigned char, DashRingObject*, cocos2d::CCPoint> >::__generic_assign[abi:ne180000]<std::__ndk1::__variant_detail::__copy_assignment<cocos2d::CCPoint, (std::__ndk1::__variant_detail::_Trait)1> const&>(std::__ndk1::__variant_detail::__copy_assignment<cocos2d::CCPoint, (std::__ndk1::__variant_detail::_Trait)1> const&)::{lambda(std::__ndk1::__variant_detail::__copy_assignment<cocos2d::CCPoint, (std::__ndk1::__variant_detail::_Trait)1> const&, auto:2&&)#1}, std::__ndk1::__variant_detail::__base<(std::__ndk1::__variant_detail::__assignment<std::__ndk1::__variant_detail::__traits<unsigned char, DashRingObject*, cocos2d::CCPoint> >::__generic_assign[abi:ne180000])0, unsigned char, DashRingObject, cocos2d>&, std::__ndk1::__variant_detail::__assignment<std::__ndk1::__variant_detail::__traits<unsigned char, DashRingObject*, cocos2d::CCPoint> >::__generic_assign[abi:ne180000]<std::__ndk1::__variant_detail::__copy_assignment<cocos2d::CCPoint, (std::__ndk1::__variant_detail::_Trait)1> const&>(std::__ndk1::__variant_detail::__copy_assignment<cocos2d::CCPoint, (std::__ndk1::__variant_detail::_Trait)1> const&)::{lambda(std::__ndk1::__variant_detail::__copy_assignment<cocos2d::CCPoint, (std::__ndk1::__variant_detail::_Trait)1> const&, auto:2&&)#1} const&>(std::__ndk1::__variant_detail::__copy_assignment<cocos2d::CCPoint, (std::__ndk1::__variant_detail::_Trait)1> const, std::__ndk1::__variant_detail::__base<(std::__ndk1::__variant_detail::__assignment<std::__ndk1::__variant_detail::__traits<unsigned char, DashRingObject*, cocos2d::CCPoint> >::__generic_assign[abi:ne180000])0, unsigned char, DashRingObject, cocos2d>&, std::__ndk1::__variant_detail::__assignment<std::__ndk1::__variant_detail::__traits<unsigned char, DashRingObject*, cocos2d::CCPoint> >::__generic_assign[abi:ne180000]<std::__ndk1::__variant_detail::__copy_assignment<cocos2d::CCPoint, (std::__ndk1::__variant_detail::_Trait)1> const&>(std::__ndk1::__variant_detail::__copy_assignment<cocos2d::CCPoint, (std::__ndk1::__variant_detail::_Trait)1> const&)::{lambda(std::__ndk1::__variant_detail::__copy_assignment<cocos2d::CCPoint, (std::__ndk1::__variant_detail::_Trait)1> const&, auto:2&&)#1} const&)
FUNC 24866 24 0 std::__ndk1::__variant_detail::__visitation::__base::__dispatcher<(unsigned int)2, (unsigned int)2>::__dispatch[abi:ne180000]<std::__ndk1::__variant_detail::__assignment<std::__ndk1::__variant_detail::__traits<unsigned char, DashRingObject*, cocos2d::CCPoint> >::__generic_assign[abi:ne180000]<std::__ndk1::__variant_detail::__copy_assignment<cocos2d::CCPoint, (std::__ndk1::__variant_detail::_Trait)1> const&>(std::__ndk1::__variant_detail::__copy_assignment<cocos2d::CCPoint, (std::__ndk1::__variant_detail::_Trait)1> const&)::{lambda(std::__ndk1::__variant_detail::__copy_assignment<cocos2d::CCPoint, (std::__ndk1::__variant_detail::_Trait)1> const&, auto:2&&)#1}, std::__ndk1::__variant_detail::__base<(std::__ndk1::__variant_detail::__assignment<std::__ndk1::__variant_detail::__traits<unsigned char, DashRingObject*, cocos2d::CCPoint> >::__generic_assign[abi:ne180000])0, unsigned char, DashRingObject, cocos2d>&, std::__ndk1::__variant_detail::__assignment<std::__ndk1::__variant_detail::__traits<unsigned char, DashRingObject*, cocos2d::CCPoint> >::__generic_assign[abi:ne180000]<std::__ndk1::__variant_detail::__copy_assignment<cocos2d::CCPoint, (std::__ndk1::__variant_detail::_Trait)1> const&>(std::__ndk1::__variant_detail::__copy_assignment<cocos2d::CCPoint, (std::__ndk1::__variant_detail::_Trait)1> const&)::{lambda(std::__ndk1::__variant_detail::__copy_assignment<cocos2d::CCPoint, (std::__ndk1::__variant_detail::_Trait)1> const&, auto:2&&)#1} const&>(std::__ndk1::__variant_detail::__copy_assignment<cocos2d::CCPoint, (std::__ndk1::__variant_detail::_Trait)1> const, std::__ndk1::__variant_detail::__base<(std::__ndk1::__variant_detail::__assignment<std::__ndk1::__variant_detail::__traits<unsigned char, DashRingObject*, cocos2d::CCPoint> >::__generic_assign[abi:ne180000])0, unsigned char, DashRingObject, cocos2d>&, std::__ndk1::__variant_detail::__assignment<std::__ndk1::__variant_detail::__traits<unsigned char, DashRingObject*, cocos2d::CCPoint> >::__generic_assign[abi:ne180000]<std::__ndk1::__variant_detail::__copy_assignment<cocos2d::CCPoint, (std::__ndk1::__variant_detail::_Trait)1> const&>(std::__ndk1::__variant_detail::__copy_assignment<cocos2d::CCPoint, (std::__ndk1::__variant_detail::_Trait)1> const&)::{lambda(std::__ndk1::__variant_detail::__copy_assignment<cocos2d::CCPoint, (std::__ndk1::__variant_detail::_Trait)1> const&, auto:2&&)#1} const&)
FUNC 2488c 20c 0 std::__ndk1::vector<PlayerEvent, std::__ndk1::allocator<PlayerEvent> >::__push_back_slow_path<PlayerEvent const&>(PlayerEvent const&)
FUNC 24a98 24 0 std::__ndk1::__tree<std::__ndk1::__value_type<PlayerObject*, int>, std::__ndk1::__map_value_compare<PlayerObject*, std::__ndk1::__value_type<PlayerObject*, int>, std::__ndk1::less<PlayerObject*>, true>, std::__ndk1::allocator<std::__ndk1::__value_type<PlayerObject*, int> > >::destroy(std::__ndk1::__tree_node<std::__ndk1::__value_type<PlayerObject*, int>, void*>*)
FUNC 24abc 10 0 std::__ndk1::vector<PlayerObject*, std::__ndk1::allocator<PlayerObject*> >::__throw_length_error[abi:ne180000]() const
FUNC 24acc 34c 0 std::__ndk1::vector<PlayerEvent, std::__ndk1::allocator<PlayerEvent> >::__assign_with_size[abi:ne180000]<PlayerEvent*, std::__ndk1::vector<PlayerEvent, std::__ndk1::allocator<PlayerEvent> >::__assign_with_size[abi:ne180000]>(PlayerEvent*, std::__ndk1::vector<PlayerEvent, std::__ndk1::allocator<PlayerEvent> >::__assign_with_size[abi:ne180000], int)
FUNC 24e18 40 0 std::__ndk1::__split_buffer<GhostPlayerFrame, std::__ndk1::allocator<GhostPlayerFrame>&>::~__split_buffer()
FUNC 24e58 36 0 std::__ndk1::__exception_guard_exceptions<std::__ndk1::_AllocatorDestroyRangeReverse<std::__ndk1::allocator<GhostPlayerFrame>, std::__ndk1::reverse_iterator<GhostPlayerFrame*> > >::~__exception_guard_exceptions[abi:ne180000]()
FUNC 24e8e 6e 0 std::__ndk1::__split_buffer<GhostPosition, std::__ndk1::allocator<GhostPosition>&>::~__split_buffer()
FUNC 24efc 10 0 std::__ndk1::vector<GhostPosition, std::__ndk1::allocator<GhostPosition> >::__throw_length_error[abi:ne180000]() const
FUNC 24f0c 70 0 nlohmann::json_abi_v3_11_2::detail::concat<std::__ndk1::basic_string<char, std::__ndk1::char_traits<char>, std::__ndk1::allocator<char> >, char const (&) [51], char const*>(char const (&) [51], char const*)
FUNC 24f7c 70 0 nlohmann::json_abi_v3_11_2::detail::concat<std::__ndk1::basic_string<char, std::__ndk1::char_traits<char>, std::__ndk1::allocator<char> >, char const (&) [52], char const*>(char const (&) [52], char const*)
FUNC 24fec e0 0 _ZN8nlohmann16json_abi_v3_11_26detail9from_jsonINS0_10basic_jsonINSt6__ndk13mapENS4_6vectorENS4_12basic_stringIcNS4_11char_traitsIcEENS4_9allocatorIcEEEEbxydSA_NS0_14adl_serializerENS6_IhNSA_IhEEEEvEEfTnNS4_9enable_ifIXaaaaaaaasr3std13is_arithmeticIT0_EE5valuentsr3std7is_sameISI_NT_17number_unsigned_tEEE5valuentsr3std7is_sameISI_NSJ_16number_integer_tEEE5valuentsr3std7is_sameISI_NSJ_14number_float_tEEE5valuentsr3std7is_sameISI_NSJ_9boolean_tEEE5valueEiE4typeELi0EEEvRKSJ_RSI_
FUNC 250cc 15c 0 _ZN8nlohmann16json_abi_v3_11_26detail10type_error6createIPKNS0_10basic_jsonINSt6__ndk13mapENS5_6vectorENS5_12basic_stringIcNS5_11char_traitsIcEENS5_9allocatorIcEEEEbxydSB_NS0_14adl_serializerENS7_IhNSB_IhEEEEvEETnNS5_9enable_ifIXsr21is_basic_json_contextIT_EE5valueEiE4typeELi0EEES2_iRKSD_SL_
FUNC 25228 70 0 nlohmann::json_abi_v3_11_2::detail::concat<std::__ndk1::basic_string<char, std::__ndk1::char_traits<char>, std::__ndk1::allocator<char> >, char const (&) [29], char const*>(char const (&) [29], char const*)
FUNC 25298 b8 0 _ZN8nlohmann16json_abi_v3_11_26detail9from_jsonINS0_10basic_jsonINSt6__ndk13mapENS4_6vectorENS4_12basic_stringIcNS4_11char_traitsIcEENS4_9allocatorIcEEEEbxydSA_NS0_14adl_serializerENS6_IhNSA_IhEEEEvEEiTnNS4_9enable_ifIXaaaaaaaasr3std13is_arithmeticIT0_EE5valuentsr3std7is_sameISI_NT_17number_unsigned_tEEE5valuentsr3std7is_sameISI_NSJ_16number_integer_tEEE5valuentsr3std7is_sameISI_NSJ_14number_float_tEEE5valuentsr3std7is_sameISI_NSJ_9boolean_tEEE5valueEiE4typeELi0EEEvRKSJ_RSI_
FUNC 25350 10 0 std::__ndk1::vector<cocos2d::CCSprite*, std::__ndk1::allocator<cocos2d::CCSprite*> >::__throw_length_error[abi:ne180000]() const
FUNC 25360 10 0 std::__ndk1::vector<cocos2d::CCNode*, std::__ndk1::allocator<cocos2d::CCNode*> >::__throw_length_error[abi:ne180000]() const
FUNC 25370 f4 0 geode::Mod::getSettingValue<bool>(std::__ndk1::basic_string_view<char, std::__ndk1::char_traits<char> >) const
FUNC 25464 fc 0 geode::Mod::getSettingValue<double>(std::__ndk1::basic_string_view<char, std::__ndk1::char_traits<char> >) const
FUNC 25560 5f0 0 XPlayLayer::setupGhostPlayers()
FUNC 25b50 15c 0 _ZN8nlohmann16json_abi_v3_11_26detail10type_error6createIDnTnNSt6__ndk19enable_ifIXsr21is_basic_json_contextIT_EE5valueEiE4typeELi0EEES2_iRKNS4_12basic_stringIcNS4_11char_traitsIcEENS4_9allocatorIcEEEES6_
FUNC 25cac 10 0 std::__ndk1::vector<ShaderLayer*, std::__ndk1::allocator<ShaderLayer*> >::__throw_length_error[abi:ne180000]() const
FUNC 25cbc a4 0 XPlayLayer::addPlayerPositionWait(float)
FUNC 25d60 64 0 std::__ndk1::__exception_guard_exceptions<std::__ndk1::_AllocatorDestroyRangeReverse<std::__ndk1::allocator<GhostPosition>, GhostPosition*> >::~__exception_guard_exceptions[abi:ne180000]()
FUNC 25dc4 2a0 0 std::__ndk1::vector<GhostPlayerFrame, std::__ndk1::allocator<GhostPlayerFrame> >::__assign_with_size[abi:ne180000]<GhostPlayerFrame*, std::__ndk1::vector<GhostPlayerFrame, std::__ndk1::allocator<GhostPlayerFrame> >::__assign_with_size[abi:ne180000]>(GhostPlayerFrame*, std::__ndk1::vector<GhostPlayerFrame, std::__ndk1::allocator<GhostPlayerFrame> >::__assign_with_size[abi:ne180000], int)
FUNC 26070 2320 0 geode::modifier::ModifyDerive<hook1311<(anonymous namespace)::hook1311Parent>, PlayerObject>::apply()
FUNC 28390 2 0 geode::modifier::ModifyBase<geode::modifier::ModifyDerive<hook1311<(anonymous namespace)::hook1311Parent>, PlayerObject> >::apply()
FUNC 28394 cc 0 geode::Hook::create<void (*)(hook1311<(anonymous namespace)::hook1311Parent>*)>(void*, void (*)(hook1311<(anonymous namespace)::hook1311Parent>*), std::__ndk1::basic_string<char, std::__ndk1::char_traits<char>, std::__ndk1::allocator<char> > const&, tulip::hook::TulipConvention, tulip::hook::HookMetadata const&)
FUNC 28460 dc 0 geode::modifier::AsStaticFunction_playDeathEffect<hook1311<(anonymous namespace)::hook1311Parent>, void (hook1311<(anonymous namespace)::hook1311Parent>::*)()>::Impl<void (hook1311<(anonymous namespace)::hook1311Parent>::*)()>::function(hook1311<(anonymous namespace)::hook1311Parent>*)
FUNC 2853c f0 0 geode::modifier::AsStaticFunction_playDynamicSpiderRun<hook1311<(anonymous namespace)::hook1311Parent>, void (hook1311<(anonymous namespace)::hook1311Parent>::*)()>::Impl<void (hook1311<(anonymous namespace)::hook1311Parent>::*)()>::function(hook1311<(anonymous namespace)::hook1311Parent>*)
FUNC 28630 108 0 geode::Hook::create<void (*)(hook1311<(anonymous namespace)::hook1311Parent>*, bool)>(void*, void (*)(hook1311<(anonymous namespace)::hook1311Parent>*, bool), std::__ndk1::basic_string<char, std::__ndk1::char_traits<char>, std::__ndk1::allocator<char> > const&, tulip::hook::TulipConvention, tulip::hook::HookMetadata const&)
FUNC 28740 798 0 geode::modifier::AsStaticFunction_playerDestroyed<hook1311<(anonymous namespace)::hook1311Parent>, void (hook1311<(anonymous namespace)::hook1311Parent>::*)(bool)>::Impl<void (hook1311<(anonymous namespace)::hook1311Parent>::*)(bool)>::function(hook1311<(anonymous namespace)::hook1311Parent>*, bool)
FUNC 28ed8 e4 0 geode::modifier::AsStaticFunction_playSpawnEffect<hook1311<(anonymous namespace)::hook1311Parent>, void (hook1311<(anonymous namespace)::hook1311Parent>::*)()>::Impl<void (hook1311<(anonymous namespace)::hook1311Parent>::*)()>::function(hook1311<(anonymous namespace)::hook1311Parent>*)
FUNC 28fbc 114 0 geode::modifier::AsStaticFunction_playSpiderDashEffect<hook1311<(anonymous namespace)::hook1311Parent>, void (hook1311<(anonymous namespace)::hook1311Parent>::*)(cocos2d::CCPoint, cocos2d::CCPoint)>::Impl<void (hook1311<(anonymous namespace)::hook1311Parent>::*)(cocos2d::CCPoint, cocos2d::CCPoint)>::function(hook1311<(anonymous namespace)::hook1311Parent>*, cocos2d::CCPoint, cocos2d::CCPoint)
FUNC 290d0 ec 0 geode::modifier::AsStaticFunction_startDashing<hook1311<(anonymous namespace)::hook1311Parent>, void (hook1311<(anonymous namespace)::hook1311Parent>::*)(DashRingObject*)>::Impl<void (hook1311<(anonymous namespace)::hook1311Parent>::*)(DashRingObject*)>::function(hook1311<(anonymous namespace)::hook1311Parent>*, DashRingObject*)
FUNC 291bc dc 0 geode::modifier::AsStaticFunction_stopDashing<hook1311<(anonymous namespace)::hook1311Parent>, void (hook1311<(anonymous namespace)::hook1311Parent>::*)()>::Impl<void (hook1311<(anonymous namespace)::hook1311Parent>::*)()>::function(hook1311<(anonymous namespace)::hook1311Parent>*)
FUNC 292a0 138 0 geode::Hook::create<void (*)(hook1311<(anonymous namespace)::hook1311Parent>*, bool, bool)>(void*, void (*)(hook1311<(anonymous namespace)::hook1311Parent>*, bool, bool), std::__ndk1::basic_string<char, std::__ndk1::char_traits<char>, std::__ndk1::allocator<char> > const&, tulip::hook::TulipConvention, tulip::hook::HookMetadata const&)
FUNC 293d8 f0 0 geode::modifier::AsStaticFunction_toggleBirdMode<hook1311<(anonymous namespace)::hook1311Parent>, void (hook1311<(anonymous namespace)::hook1311Parent>::*)(bool, bool)>::Impl<void (hook1311<(anonymous namespace)::hook1311Parent>::*)(bool, bool)>::function(hook1311<(anonymous namespace)::hook1311Parent>*, bool, bool)
FUNC 294c8 f0 0 geode::modifier::AsStaticFunction_toggleDartMode<hook1311<(anonymous namespace)::hook1311Parent>, void (hook1311<(anonymous namespace)::hook1311Parent>::*)(bool, bool)>::Impl<void (hook1311<(anonymous namespace)::hook1311Parent>::*)(bool, bool)>::function(hook1311<(anonymous namespace)::hook1311Parent>*, bool, bool)
FUNC 295b8 e4 0 geode::modifier::AsStaticFunction_toggleFlyMode<hook1311<(anonymous namespace)::hook1311Parent>, void (hook1311<(anonymous namespace)::hook1311Parent>::*)(bool, bool)>::Impl<void (hook1311<(anonymous namespace)::hook1311Parent>::*)(bool, bool)>::function(hook1311<(anonymous namespace)::hook1311Parent>*, bool, bool)
FUNC 2969c ec 0 geode::modifier::AsStaticFunction_togglePlayerScale<hook1311<(anonymous namespace)::hook1311Parent>, void (hook1311<(anonymous namespace)::hook1311Parent>::*)(bool, bool)>::Impl<void (hook1311<(anonymous namespace)::hook1311Parent>::*)(bool, bool)>::function(hook1311<(anonymous namespace)::hook1311Parent>*, bool, bool)
FUNC 29788 ec 0 geode::modifier::AsStaticFunction_toggleRobotMode<hook1311<(anonymous namespace)::hook1311Parent>, void (hook1311<(anonymous namespace)::hook1311Parent>::*)(bool, bool)>::Impl<void (hook1311<(anonymous namespace)::hook1311Parent>::*)(bool, bool)>::function(hook1311<(anonymous namespace)::hook1311Parent>*, bool, bool)
FUNC 29874 f0 0 geode::modifier::AsStaticFunction_toggleRollMode<hook1311<(anonymous namespace)::hook1311Parent>, void (hook1311<(anonymous namespace)::hook1311Parent>::*)(bool, bool)>::Impl<void (hook1311<(anonymous namespace)::hook1311Parent>::*)(bool, bool)>::function(hook1311<(anonymous namespace)::hook1311Parent>*, bool, bool)
FUNC 29964 f8 0 geode::modifier::AsStaticFunction_toggleSpiderMode<hook1311<(anonymous namespace)::hook1311Parent>, void (hook1311<(anonymous namespace)::hook1311Parent>::*)(bool, bool)>::Impl<void (hook1311<(anonymous namespace)::hook1311Parent>::*)(bool, bool)>::function(hook1311<(anonymous namespace)::hook1311Parent>*, bool, bool)
FUNC 29a5c ec 0 geode::modifier::AsStaticFunction_toggleSwingMode<hook1311<(anonymous namespace)::hook1311Parent>, void (hook1311<(anonymous namespace)::hook1311Parent>::*)(bool, bool)>::Impl<void (hook1311<(anonymous namespace)::hook1311Parent>::*)(bool, bool)>::function(hook1311<(anonymous namespace)::hook1311Parent>*, bool, bool)
FUNC 29b48 f8 0 geode::modifier::AsStaticFunction_toggleVisibility<hook1311<(anonymous namespace)::hook1311Parent>, void (hook1311<(anonymous namespace)::hook1311Parent>::*)(bool)>::Impl<void (hook1311<(anonymous namespace)::hook1311Parent>::*)(bool)>::function(hook1311<(anonymous namespace)::hook1311Parent>*, bool)
FUNC 29c40 484 0 hook1311<(anonymous namespace)::hook1311Parent>::pushEvent(PlayerEvent)
FUNC 2a0c4 e0 0 nlohmann::json_abi_v3_11_2::basic_json<std::__ndk1::map, std::__ndk1::vector, std::__ndk1::basic_string<char, std::__ndk1::char_traits<char>, std::__ndk1::allocator<char> >, bool, long long, unsigned long long, double, std::__ndk1::allocator, nlohmann::json_abi_v3_11_2::adl_serializer, std::__ndk1::vector<unsigned char, std::__ndk1::allocator<unsigned char> >, void>::push_back(nlohmann::json_abi_v3_11_2::basic_json<std::__ndk1::map, std::__ndk1::vector, std::__ndk1::basic_string<char, std::__ndk1::char_traits<char>, std::__ndk1::allocator<char> >, bool, long long, unsigned long long, double, std::__ndk1::allocator, nlohmann::json_abi_v3_11_2::adl_serializer, std::__ndk1::vector<unsigned char, std::__ndk1::allocator<unsigned char> >, void>&&)
FUNC 2a1a4 38 0 std::__ndk1::basic_ofstream<char, std::__ndk1::char_traits<char> >::~basic_ofstream()
FUNC 2a1dc 3a 0 std::__ndk1::shared_ptr<nlohmann::json_abi_v3_11_2::detail::output_adapter_protocol<char> >::~shared_ptr[abi:ne180000]()
FUNC 2a216 3a 0 nlohmann::json_abi_v3_11_2::detail::output_adapter<char, std::__ndk1::basic_string<char, std::__ndk1::char_traits<char>, std::__ndk1::allocator<char> > >::~output_adapter()
FUNC 2a250 14f8 0 nlohmann::json_abi_v3_11_2::detail::serializer<nlohmann::json_abi_v3_11_2::basic_json<std::__ndk1::map, std::__ndk1::vector, std::__ndk1::basic_string<char, std::__ndk1::char_traits<char>, std::__ndk1::allocator<char> >, bool, long long, unsigned long long, double, std::__ndk1::allocator, nlohmann::json_abi_v3_11_2::adl_serializer, std::__ndk1::vector<unsigned char, std::__ndk1::allocator<unsigned char> >, void> >::dump(nlohmann::json_abi_v3_11_2::basic_json<std::__ndk1::map, std::__ndk1::vector, std::__ndk1::basic_string<char, std::__ndk1::char_traits<char>, std::__ndk1::allocator<char> >, bool, long long, unsigned long long, double, std::__ndk1::allocator, nlohmann::json_abi_v3_11_2::adl_serializer, std::__ndk1::vector<unsigned char, std::__ndk1::allocator<unsigned char> >, void> const&, bool, bool, unsigned int, unsigned int)
FUNC 2b748 50 0 nlohmann::json_abi_v3_11_2::detail::serializer<nlohmann::json_abi_v3_11_2::basic_json<std::__ndk1::map, std::__ndk1::vector, std::__ndk1::basic_string<char, std::__ndk1::char_traits<char>, std::__ndk1::allocator<char> >, bool, long long, unsigned long long, double, std::__ndk1::allocator, nlohmann::json_abi_v3_11_2::adl_serializer, std::__ndk1::vector<unsigned char, std::__ndk1::allocator<unsigned char> >, void> >::~serializer()
FUNC 2b798 10 0 std::__ndk1::__shared_ptr_emplace<nlohmann::json_abi_v3_11_2::detail::output_stream_adapter<char>, std::__ndk1::allocator<nlohmann::json_abi_v3_11_2::detail::output_stream_adapter<char> > >::~__shared_ptr_emplace()
FUNC 2b7a8 1c 0 std::__ndk1::__shared_ptr_emplace<nlohmann::json_abi_v3_11_2::detail::output_stream_adapter<char>, std::__ndk1::allocator<nlohmann::json_abi_v3_11_2::detail::output_stream_adapter<char> > >::~__shared_ptr_emplace()
FUNC 2b7c4 8 0 std::__ndk1::__shared_ptr_emplace<nlohmann::json_abi_v3_11_2::detail::output_stream_adapter<char>, std::__ndk1::allocator<nlohmann::json_abi_v3_11_2::detail::output_stream_adapter<char> > >::__on_zero_shared()
FUNC 2b7cc 4 0 std::__ndk1::__shared_ptr_emplace<nlohmann::json_abi_v3_11_2::detail::output_stream_adapter<char>, std::__ndk1::allocator<nlohmann::json_abi_v3_11_2::detail::output_stream_adapter<char> > >::__on_zero_shared_weak()
FUNC 2b7d0 6 0 nlohmann::json_abi_v3_11_2::detail::output_stream_adapter<char>::write_character(char)
FUNC 2b7d6 6 0 nlohmann::json_abi_v3_11_2::detail::output_stream_adapter<char>::write_characters(char const*, unsigned int)
FUNC 2b7dc 2 0 nlohmann::json_abi_v3_11_2::detail::output_adapter_protocol<char>::~output_adapter_protocol()
FUNC 2b7de 4 0 nlohmann::json_abi_v3_11_2::detail::output_stream_adapter<char>::~output_stream_adapter()
FUNC 2b7e4 3bc 0 nlohmann::json_abi_v3_11_2::detail::serializer<nlohmann::json_abi_v3_11_2::basic_json<std::__ndk1::map, std::__ndk1::vector, std::__ndk1::basic_string<char, std::__ndk1::char_traits<char>, std::__ndk1::allocator<char> >, bool, long long, unsigned long long, double, std::__ndk1::allocator, nlohmann::json_abi_v3_11_2::adl_serializer, std::__ndk1::vector<unsigned char, std::__ndk1::allocator<unsigned char> >, void> >::dump_escaped(std::__ndk1::basic_string<char, std::__ndk1::char_traits<char>, std::__ndk1::allocator<char> > const&, bool)
FUNC 2bba0 c4 0 nlohmann::json_abi_v3_11_2::detail::concat<std::__ndk1::basic_string<char, std::__ndk1::char_traits<char>, std::__ndk1::allocator<char> >, char const (&) [29], std::__ndk1::basic_string<char, std::__ndk1::char_traits<char>, std::__ndk1::allocator<char> >, char const (&) [5], std::__ndk1::basic_string<char, std::__ndk1::char_traits<char>, std::__ndk1::allocator<char> > >(char const (&) [29], std::__ndk1::basic_string<char, std::__ndk1::char_traits<char>, std::__ndk1::allocator<char> >, char const (&) [5], std::__ndk1::basic_string<char, std::__ndk1::char_traits<char>, std::__ndk1::allocator<char> >)
FUNC 2bc64 68 0 nlohmann::json_abi_v3_11_2::detail::concat<std::__ndk1::basic_string<char, std::__ndk1::char_traits<char>, std::__ndk1::allocator<char> >, char const (&) [39], std::__ndk1::basic_string<char, std::__ndk1::char_traits<char>, std::__ndk1::allocator<char> > >(char const (&) [39], std::__ndk1::basic_string<char, std::__ndk1::char_traits<char>, std::__ndk1::allocator<char> >)
FUNC 2bccc 20 0 geodeImplicitEntry
FUNC 2bcec 28 0 std::__ndk1::unordered_map<void*, bool, std::__ndk1::hash<void*>, std::__ndk1::equal_to<void*>, std::__ndk1::allocator<std::__ndk1::pair<void* const, bool> > >::~unordered_map[abi:ne180000]()
FUNC 2bd14 cc 0 wrapFunction(unsigned int, tulip::hook::WrapperMetadata const&)
FUNC 2bde0 48 0 geode::impl::ResultData<void*, std::__ndk1::basic_string<char, std::__ndk1::char_traits<char>, std::__ndk1::allocator<char> > >::unwrapErr() &
FUNC 2be28 60 0 geode::impl::ResultData<void*, std::__ndk1::basic_string<char, std::__ndk1::char_traits<char>, std::__ndk1::allocator<char> > >::~ResultData()
FUNC 2be88 46 0 tulip::hook::WrapperMetadata::~WrapperMetadata()
FUNC 2bece 10 0 cocos2d::CCObject::~CCObject()
FUNC 2bee0 1c0 0 cocos2d::CCNode::CCNode()
FUNC 2c0a0 10 0 cocos2d::CCNode::~CCNode()
FUNC 2c0b0 8 0 {virtual override thunk({offset(-264)}, cocos2d::CCLayer::~CCLayer())}
FUNC 2c0b8 10 0 cocos2d::CCLayer::~CCLayer()
FUNC 2c0c8 14 0 {virtual override thunk({offset(-264)}, cocos2d::CCLayer::~CCLayer())}
FUNC 2c0dc 27c 0 cocos2d::CCLayerRGBA::~CCLayerRGBA()
FUNC 2c358 8 0 {virtual override thunk({offset(-264)}, cocos2d::CCLayerRGBA::~CCLayerRGBA())}
FUNC 2c360 10 0 cocos2d::CCLayerRGBA::~CCLayerRGBA()
FUNC 2c370 14 0 {virtual override thunk({offset(-264)}, cocos2d::CCLayerRGBA::~CCLayerRGBA())}
FUNC 2c384 1f0 0 cocos2d::CCLayerColor::CCLayerColor()
FUNC 2c574 8 0 {virtual override thunk({offset(-264)}, cocos2d::CCLayerColor::~CCLayerColor())}
FUNC 2c57c 10 0 cocos2d::CCLayerColor::~CCLayerColor()
FUNC 2c58c 14 0 {virtual override thunk({offset(-264)}, cocos2d::CCLayerColor::~CCLayerColor())}
FUNC 2c5a0 8 0 {virtual override thunk({offset(-264)}, FLAlertLayer::~FLAlertLayer())}
FUNC 2c5a8 10 0 FLAlertLayer::~FLAlertLayer()
FUNC 2c5b8 14 0 {virtual override thunk({offset(-264)}, FLAlertLayer::~FLAlertLayer())}
FUNC 2c5cc 11c 0 FLAlertLayer::create(FLAlertLayerProtocol*, char const*, gd::string, char const*, char const*, float)
FUNC 2c6f0 460 0 tulip::hook::AbstractFunction::from<FLAlertLayer*, FLAlertLayerProtocol*, char const*, gd::string, char const*, char const*, float>(FLAlertLayer* (*)(FLAlertLayerProtocol*, char const*, gd::string, char const*, char const*, float))
FUNC 2cb50 11c 0 FMODAudioEngine::playEffect(gd::string, float, float, float)
FUNC 2cc70 350 0 tulip::hook::AbstractFunction::from<void, FMODAudioEngine*, gd::string, float, float, float>(void (*)(FMODAudioEngine*, gd::string, float, float, float))
FUNC 2cfc0 79c 0 GJBaseGameLayer::~GJBaseGameLayer()
FUNC 2d75c 606 0 GJBaseGameLayer::GJBaseGameLayer(geode::CutoffConstructorType, unsigned int)
FUNC 2dd62 8 0 {virtual override thunk({offset(-264)}, GJBaseGameLayer::~GJBaseGameLayer())}
FUNC 2dd6a 10 0 GJBaseGameLayer::~GJBaseGameLayer()
FUNC 2dd7a 14 0 {virtual override thunk({offset(-264)}, GJBaseGameLayer::~GJBaseGameLayer())}
FUNC 2dd90 f0 0 GJBaseGameLayer::toggleGroupTriggered(int, bool, gd::vector<int> const&, int, int)
FUNC 2de80 470 0 tulip::hook::AbstractFunction::from<void, GJBaseGameLayer*, int, bool, gd::vector<int> const&, int, int>(void (*)(GJBaseGameLayer*, int, bool, gd::vector<int> const&, int, int))
FUNC 2e2f0 18 0 {virtual override thunk({offset(-316)}, GJBaseGameLayer::toggleGroupTriggered(int, bool, gd::vector<int> const&, int, int))}
FUNC 2e308 fc 0 GJBaseGameLayer::spawnGroup(int, bool, double, gd::vector<int> const&, int, int)
FUNC 2e410 570 0 tulip::hook::AbstractFunction::from<void, GJBaseGameLayer*, int, bool, double, gd::vector<int> const&, int, int>(void (*)(GJBaseGameLayer*, int, bool, double, gd::vector<int> const&, int, int))
FUNC 2e980 24 0 {virtual override thunk({offset(-316)}, GJBaseGameLayer::spawnGroup(int, bool, double, gd::vector<int> const&, int, int))}
FUNC 2e9a4 ec 0 GJBaseGameLayer::spawnObject(GameObject*, double, gd::vector<int> const&)
FUNC 2ea90 260 0 tulip::hook::AbstractFunction::from<void, GJBaseGameLayer*, GameObject*, double, gd::vector<int> const&>(void (*)(GJBaseGameLayer*, GameObject*, double, gd::vector<int> const&))
FUNC 2ecf0 10 0 {virtual override thunk({offset(-316)}, GJBaseGameLayer::spawnObject(GameObject*, double, gd::vector<int> const&))}
FUNC 2ed00 e8 0 GJBaseGameLayer::activatePlatformerEndTrigger(EndTriggerGameObject*, gd::vector<int> const&)
FUNC 2edf0 b0 0 tulip::hook::AbstractFunction::from<void, GJBaseGameLayer*, EndTriggerGameObject*, gd::vector<int> const&>(void (*)(GJBaseGameLayer*, EndTriggerGameObject*, gd::vector<int> const&))
FUNC 2eea0 2 0 GJBaseGameLayer::toggleGlitter(bool)
FUNC 2eea2 4 0 GJBaseGameLayer::timeForPos(cocos2d::CCPoint, int, int, bool, int)
FUNC 2eea6 8 0 GJBaseGameLayer::posForTime(float)
FUNC 2eeae 2 0 GJBaseGameLayer::resetSPTriggered()
FUNC 2eeb0 ec 0 GJBaseGameLayer::createCustomParticle(gd::string const&, cocos2d::ParticleStruct const&, int, bool)
FUNC 2efa0 360 0 tulip::hook::AbstractFunction::from<TodoReturnPlaceholder, GJBaseGameLayer*, gd::string const&, cocos2d::ParticleStruct const&, int, bool>(TodoReturnPlaceholder (*)(GJBaseGameLayer*, gd::string const&, cocos2d::ParticleStruct const&, int, bool))
FUNC 2f300 fc 0 GJBaseGameLayer::claimCustomParticle(gd::string const&, cocos2d::ParticleStruct const&, int, int, int, bool)
FUNC 2f400 570 0 tulip::hook::AbstractFunction::from<TodoReturnPlaceholder, GJBaseGameLayer*, gd::string const&, cocos2d::ParticleStruct const&, int, int, int, bool>(TodoReturnPlaceholder (*)(GJBaseGameLayer*, gd::string const&, cocos2d::ParticleStruct const&, int, int, int, bool))
FUNC 2f970 e8 0 GJBaseGameLayer::unclaimCustomParticle(gd::string const&, cocos2d::CCParticleSystemQuad*)
FUNC 2fa60 b0 0 tulip::hook::AbstractFunction::from<TodoReturnPlaceholder, GJBaseGameLayer*, gd::string const&, cocos2d::CCParticleSystemQuad*>(TodoReturnPlaceholder (*)(GJBaseGameLayer*, gd::string const&, cocos2d::CCParticleSystemQuad*))
FUNC 2fb10 2f0 0 PlayLayer::~PlayLayer()
FUNC 2fe00 8 0 {virtual override thunk({offset(-264)}, PlayLayer::~PlayLayer())}
FUNC 2fe08 10 0 PlayLayer::~PlayLayer()
FUNC 2fe18 14 0 {virtual override thunk({offset(-264)}, PlayLayer::~PlayLayer())}
FUNC 2fe2c e8 0 PlayLayer::activatePlatformerEndTrigger(EndTriggerGameObject*, gd::vector<int> const&)
FUNC 2ff20 b0 0 tulip::hook::AbstractFunction::from<void, PlayLayer*, EndTriggerGameObject*, gd::vector<int> const&>(void (*)(PlayLayer*, EndTriggerGameObject*, gd::vector<int> const&))
FUNC 2ffd0 2 0 cocos2d::CCObject::update(float)
FUNC 2ffd4 294 0 cocos2d::CCLayerColor::~CCLayerColor()
FUNC 30268 294 0 FLAlertLayer::~FLAlertLayer()
FUNC 304fc 22c 0 cocos2d::CCNode::~CCNode()
FUNC 30728 274 0 cocos2d::CCLayer::~CCLayer()
FUNC 3099c 42c 0 cocos2d::CCObject::~CCObject()
FUNC 30dc8 f8 0 _ZN5geode15UnwrapExceptionC2IRPvQsr4implE18IsStringStreamableIT_EEENS_4impl5OkTagEOS4_
FUNC 30ec0 2 0 std::__ndk1::__variant_detail::__visitation::__base::__dispatcher<(unsigned int)0>::__dispatch[abi:ne180000]<std::__ndk1::__variant_detail::__dtor<std::__ndk1::__variant_detail::__traits<void*, std::__ndk1::basic_string<char, std::__ndk1::char_traits<char>, std::__ndk1::allocator<char> > >, (std::__ndk1::__variant_detail::_Trait)1>::__destroy[abi:ne180000]()::{lambda(auto:1&)#1}, std::__ndk1::__variant_detail::__base<(std::__ndk1::__variant_detail::__traits<void*, std::__ndk1::basic_string<char, std::__ndk1::char_traits<char>, std::__ndk1::allocator<char> > >)1, std::__ndk1::__variant_detail::__traits, std::__ndk1::allocator<char> >&>(std::__ndk1::__variant_detail::__dtor<std::__ndk1::__variant_detail::__traits<void*, std::__ndk1::basic_string<char, std::__ndk1::char_traits<char>, std::__ndk1::allocator<char> > >, (std::__ndk1::__variant_detail::_Trait)1>, std::__ndk1::__variant_detail::__base<(std::__ndk1::__variant_detail::__traits<void*, std::__ndk1::basic_string<char, std::__ndk1::char_traits<char>, std::__ndk1::allocator<char> > >)1, std::__ndk1::__variant_detail::__traits, std::__ndk1::allocator<char> >&)
FUNC 30ec2 e 0 std::__ndk1::__variant_detail::__visitation::__base::__dispatcher<(unsigned int)1>::__dispatch[abi:ne180000]<std::__ndk1::__variant_detail::__dtor<std::__ndk1::__variant_detail::__traits<void*, std::__ndk1::basic_string<char, std::__ndk1::char_traits<char>, std::__ndk1::allocator<char> > >, (std::__ndk1::__variant_detail::_Trait)1>::__destroy[abi:ne180000]()::{lambda(auto:1&)#1}, std::__ndk1::__variant_detail::__base<(std::__ndk1::__variant_detail::__traits<void*, std::__ndk1::basic_string<char, std::__ndk1::char_traits<char>, std::__ndk1::allocator<char> > >)1, std::__ndk1::__variant_detail::__traits, std::__ndk1::allocator<char> >&>(std::__ndk1::__variant_detail::__dtor<std::__ndk1::__variant_detail::__traits<void*, std::__ndk1::basic_string<char, std::__ndk1::char_traits<char>, std::__ndk1::allocator<char> > >, (std::__ndk1::__variant_detail::_Trait)1>, std::__ndk1::__variant_detail::__base<(std::__ndk1::__variant_detail::__traits<void*, std::__ndk1::basic_string<char, std::__ndk1::char_traits<char>, std::__ndk1::allocator<char> > >)1, std::__ndk1::__variant_detail::__traits, std::__ndk1::allocator<char> >&)
FUNC 30ed0 3ea 0 std::__ndk1::__hash_table<std::__ndk1::__hash_value_type<void*, bool>, std::__ndk1::__unordered_map_hasher<void*, std::__ndk1::__hash_value_type<void*, bool>, std::__ndk1::hash<void*>, std::__ndk1::equal_to<void*>, true>, std::__ndk1::__unordered_map_equal<void*, std::__ndk1::__hash_value_type<void*, bool>, std::__ndk1::equal_to<void*>, std::__ndk1::hash<void*>, true>, std::__ndk1::allocator<std::__ndk1::__hash_value_type<void*, bool> > >::__emplace_unique_key_args<void*, std::__ndk1::piecewise_construct_t const&, std::__ndk1::tuple<void* const&>, std::__ndk1::tuple<> >(void* const&, std::__ndk1::piecewise_construct_t const&, std::__ndk1::tuple<void* const&>, std::__ndk1::tuple<>)
PUBLIC 312bd 0 __ThumbV7PILongThunk___cxa_atexit
PUBLIC 312c9 0 __ThumbV7PILongThunk__ZdlPv
PUBLIC 312d5 0 __ThumbV7PILongThunk__ZNKSt13runtime_error4whatEv
PUBLIC 312e1 0 __ThumbV7PILongThunk__ZNSt9exceptionD2Ev
PUBLIC 312ed 0 __ThumbV7PILongThunk__ZN7cocos2d17CCTouchDispatcher19addTargetedDelegateEPNS_15CCTouchDelegateEib
PUBLIC 312f9 0 __ThumbV7PILongThunk__ZN5geode9addresser9Addresser19followThunkFunctionEi
PUBLIC 31305 0 __ThumbV7PILongThunk__ZN9PlayLayer16updateVisibilityEf
PUBLIC 31311 0 __ThumbV7PILongThunk__ZN12PlayerObject15playDeathEffectEv
PUBLIC 3131d 0 __ThumbV7PILongThunk__ZNSt6__ndk119__shared_weak_countD2Ev
PUBLIC 31329 0 __ThumbV7PILongThunk__ZNSt6__ndk113basic_ostreamIcNS_11char_traitsIcEEE3putEc
PUBLIC 31335 0 __ThumbV7PILongThunk__ZNSt6__ndk113basic_ostreamIcNS_11char_traitsIcEEE5writeEPKci
PUBLIC 31340 0 <.plt ELF section in dogotrigger.deathreplay.android32.so>
STACK CFI INIT 12d44 16 .cfa: sp 0 +
STACK CFI 12d46 .cfa: sp 16 + .ra: .cfa -4 + ^ r7: .cfa -8 + ^ r6: .cfa -12 + ^ r4: .cfa -16 + ^
STACK CFI 12d48 .cfa: r7 8 +
STACK CFI INIT 12d5c 4ec .cfa: sp 0 +
STACK CFI 12d5e .cfa: sp 20 + .ra: .cfa -4 + ^ r7: .cfa -8 + ^ r6: .cfa -12 + ^ r5: .cfa -16 + ^ r4: .cfa -20 + ^
STACK CFI 12d60 .cfa: r7 8 +
STACK CFI 12d64 r11: .cfa -24 + ^ r10: .cfa -28 + ^ r9: .cfa -32 + ^ r8: .cfa -36 + ^
STACK CFI INIT 13248 484 .cfa: sp 0 +
STACK CFI 1324a .cfa: sp 20 + .ra: .cfa -4 + ^ r7: .cfa -8 + ^ r6: .cfa -12 + ^ r5: .cfa -16 + ^ r4: .cfa -20 + ^
STACK CFI 1324c .cfa: r7 8 +
STACK CFI 13250 r11: .cfa -24 + ^ r10: .cfa -28 + ^ r9: .cfa -32 + ^ r8: .cfa -36 + ^
STACK CFI INIT 136cc 1c .cfa: sp 0 +
STACK CFI 136ce .cfa: sp 16 + .ra: .cfa -4 + ^ r7: .cfa -8 + ^ r6: .cfa -12 + ^ r4: .cfa -16 + ^
STACK CFI 136d0 .cfa: r7 8 +
STACK CFI INIT 136e8 2f4 .cfa: sp 0 +
STACK CFI 136ea .cfa: sp 20 + .ra: .cfa -4 + ^ r7: .cfa -8 + ^ r6: .cfa -12 + ^ r5: .cfa -16 + ^ r4: .cfa -20 + ^
STACK CFI 136ec .cfa: r7 8 +
STACK CFI 136f0 r11: .cfa -24 + ^ r10: .cfa -28 + ^ r9: .cfa -32 + ^ r8: .cfa -36 + ^
STACK CFI INIT 139dc 1c .cfa: sp 0 +
STACK CFI 139de .cfa: sp 16 + .ra: .cfa -4 + ^ r7: .cfa -8 + ^ r6: .cfa -12 + ^ r4: .cfa -16 + ^
STACK CFI 139e0 .cfa: r7 8 +
STACK CFI INIT 139f8 2f4 .cfa: sp 0 +
STACK CFI 139fa .cfa: sp 20 + .ra: .cfa -4 + ^ r7: .cfa -8 + ^ r6: .cfa -12 + ^ r5: .cfa -16 + ^ r4: .cfa -20 + ^
STACK CFI 139fc .cfa: r7 8 +
STACK CFI 13a00 r11: .cfa -24 + ^ r10: .cfa -28 + ^ r9: .cfa -32 + ^ r8: .cfa -36 + ^
STACK CFI INIT 13cec 1c .cfa: sp 0 +
STACK CFI 13cee .cfa: sp 16 + .ra: .cfa -4 + ^ r7: .cfa -8 + ^ r6: .cfa -12 + ^ r4: .cfa -16 + ^
STACK CFI 13cf0 .cfa: r7 8 +
STACK CFI INIT 13d08 2f4 .cfa: sp 0 +
STACK CFI 13d0a .cfa: sp 20 + .ra: .cfa -4 + ^ r7: .cfa -8 + ^ r6: .cfa -12 + ^ r5: .cfa -16 + ^ r4: .cfa -20 + ^
STACK CFI 13d0c .cfa: r7 8 +
STACK CFI 13d10 r11: .cfa -24 + ^ r10: .cfa -28 + ^ r9: .cfa -32 + ^ r8: .cfa -36 + ^
STACK CFI INIT 13ffc 1c .cfa: sp 0 +
STACK CFI 13ffe .cfa: sp 16 + .ra: .cfa -4 + ^ r7: .cfa -8 + ^ r6: .cfa -12 + ^ r4: .cfa -16 + ^
STACK CFI 14000 .cfa: r7 8 +
STACK CFI INIT 14018 2c4 .cfa: sp 0 +
STACK CFI 1401a .cfa: sp 20 + .ra: .cfa -4 + ^ r7: .cfa -8 + ^ r6: .cfa -12 + ^ r5: .cfa -16 + ^ r4: .cfa -20 + ^
STACK CFI 1401c .cfa: r7 8 +
STACK CFI 14020 r11: .cfa -24 + ^ r10: .cfa -28 + ^ r9: .cfa -32 + ^ r8: .cfa -36 + ^
STACK CFI INIT 14300 1c .cfa: sp 0 +
STACK CFI 14302 .cfa: sp 16 + .ra: .cfa -4 + ^ r7: .cfa -8 + ^ r6: .cfa -12 + ^ r4: .cfa -16 + ^
STACK CFI 14304 .cfa: r7 8 +
STACK CFI INIT 1431c 10c .cfa: sp 0 +
STACK CFI 1431e .cfa: sp 16 + .ra: .cfa -4 + ^ r7: .cfa -8 + ^ r6: .cfa -12 + ^ r4: .cfa -16 + ^
STACK CFI 14320 .cfa: r7 8 +
STACK CFI INIT 14428 46 .cfa: sp 0 +
STACK CFI 1442a .cfa: sp 20 + .ra: .cfa -4 + ^ r7: .cfa -8 + ^ r6: .cfa -12 + ^ r5: .cfa -16 + ^ r4: .cfa -20 + ^
STACK CFI 1442c .cfa: r7 8 +
STACK CFI 14430 r8: .cfa -24 + ^
STACK CFI INIT 14470 10 .cfa: sp 0 +
STACK CFI 14472 .cfa: sp 8 + .ra: .cfa -4 + ^ r7: .cfa -8 + ^
STACK CFI 14474 .cfa: r7 8 +
STACK CFI INIT 14480 38 .cfa: sp 0 +
STACK CFI 14482 .cfa: sp 16 + .ra: .cfa -4 + ^ r7: .cfa -8 + ^ r5: .cfa -12 + ^ r4: .cfa -16 + ^
STACK CFI 14484 .cfa: r7 8 +
STACK CFI INIT 144b8 18 .cfa: sp 0 +
STACK CFI 144ba .cfa: sp 8 + .ra: .cfa -4 + ^ r7: .cfa -8 + ^
STACK CFI 144bc .cfa: r7 8 +
STACK CFI INIT 144d0 28 .cfa: sp 0 +
STACK CFI 144d2 .cfa: sp 8 + .ra: .cfa -4 + ^ r7: .cfa -8 + ^
STACK CFI 144d4 .cfa: r7 8 +
STACK CFI INIT 144f8 c .cfa: sp 0 +
STACK CFI 144fa .cfa: sp 8 + .ra: .cfa -4 + ^ r7: .cfa -8 + ^
STACK CFI 144fc .cfa: r7 8 +
STACK CFI INIT 14504 5e .cfa: sp 0 +
STACK CFI 14506 .cfa: sp 20 + .ra: .cfa -4 + ^ r7: .cfa -8 + ^ r6: .cfa -12 + ^ r5: .cfa -16 + ^ r4: .cfa -20 + ^
STACK CFI 14508 .cfa: r7 8 +
STACK CFI 1450c r11: .cfa -24 + ^ r9: .cfa -28 + ^ r8: .cfa -32 + ^
STACK CFI INIT 14562 16 .cfa: sp 0 +
STACK CFI 14564 .cfa: sp 16 + .ra: .cfa -4 + ^ r7: .cfa -8 + ^ r6: .cfa -12 + ^ r4: .cfa -16 + ^
STACK CFI 14566 .cfa: r7 8 +
STACK CFI INIT 14578 334 .cfa: sp 0 +
STACK CFI 1457a .cfa: sp 20 + .ra: .cfa -4 + ^ r7: .cfa -8 + ^ r6: .cfa -12 + ^ r5: .cfa -16 + ^ r4: .cfa -20 + ^
STACK CFI 1457c .cfa: r7 8 +
STACK CFI 14580 r11: .cfa -24 + ^ r10: .cfa -28 + ^ r9: .cfa -32 + ^ r8: .cfa -36 + ^
STACK CFI INIT 148ac 9a .cfa: sp 0 +
STACK CFI 148ae .cfa: sp 20 + .ra: .cfa -4 + ^ r7: .cfa -8 + ^ r6: .cfa -12 + ^ r5: .cfa -16 + ^ r4: .cfa -20 + ^
STACK CFI 148b0 .cfa: r7 8 +
STACK CFI 148b4 r10: .cfa -24 + ^ r9: .cfa -28 + ^ r8: .cfa -32 + ^
STACK CFI INIT 14946 36 .cfa: sp 0 +
STACK CFI 14948 .cfa: sp 20 + .ra: .cfa -4 + ^ r7: .cfa -8 + ^ r6: .cfa -12 + ^ r5: .cfa -16 + ^ r4: .cfa -20 + ^
STACK CFI 1494a .cfa: r7 8 +
STACK CFI 1494e r11: .cfa -24 + ^
STACK CFI INIT 1497c 10 .cfa: sp 0 +
STACK CFI 1497e .cfa: sp 8 + .ra: .cfa -4 + ^ r7: .cfa -8 + ^
STACK CFI 14980 .cfa: r7 8 +
STACK CFI INIT 1498c 2e .cfa: sp 0 +
STACK CFI 1498e .cfa: sp 16 + .ra: .cfa -4 + ^ r7: .cfa -8 + ^ r5: .cfa -12 + ^ r4: .cfa -16 + ^
STACK CFI 14990 .cfa: r7 8 +
STACK CFI INIT 149ba d6 .cfa: sp 0 +
STACK CFI 149bc .cfa: sp 20 + .ra: .cfa -4 + ^ r7: .cfa -8 + ^ r6: .cfa -12 + ^ r5: .cfa -16 + ^ r4: .cfa -20 + ^
STACK CFI 149be .cfa: r7 8 +
STACK CFI 149c2 r10: .cfa -24 + ^ r9: .cfa -28 + ^ r8: .cfa -32 + ^
STACK CFI INIT 14a90 3c .cfa: sp 0 +
STACK CFI 14a92 .cfa: sp 16 + .ra: .cfa -4 + ^ r7: .cfa -8 + ^ r6: .cfa -12 + ^ r4: .cfa -16 + ^
STACK CFI 14a94 .cfa: r7 8 +
STACK CFI INIT 14acc 88 .cfa: sp 0 +
STACK CFI 14ace .cfa: sp 16 + .ra: .cfa -4 + ^ r7: .cfa -8 + ^ r6: .cfa -12 + ^ r4: .cfa -16 + ^
STACK CFI 14ad0 .cfa: r7 8 +
STACK CFI INIT 14b54 b2 .cfa: sp 0 +
STACK CFI 14b56 .cfa: sp 20 + .ra: .cfa -4 + ^ r7: .cfa -8 + ^ r6: .cfa -12 + ^ r5: .cfa -16 + ^ r4: .cfa -20 + ^
STACK CFI 14b58 .cfa: r7 8 +
STACK CFI 14b5c r10: .cfa -24 + ^ r9: .cfa -28 + ^ r8: .cfa -32 + ^
STACK CFI INIT 14c08 e4 .cfa: sp 0 +
STACK CFI 14c0a .cfa: sp 20 + .ra: .cfa -4 + ^ r7: .cfa -8 + ^ r6: .cfa -12 + ^ r5: .cfa -16 + ^ r4: .cfa -20 + ^
STACK CFI 14c0c .cfa: r7 8 +
STACK CFI 14c10 r11: .cfa -24 + ^ r10: .cfa -28 + ^ r9: .cfa -32 + ^ r8: .cfa -36 + ^
STACK CFI INIT 14cec 6 .cfa: sp 0 +
STACK CFI INIT 14cf4 2c .cfa: sp 0 +
STACK CFI 14cf6 .cfa: sp 16 + .ra: .cfa -4 + ^ r7: .cfa -8 + ^ r6: .cfa -12 + ^ r4: .cfa -16 + ^
STACK CFI 14cf8 .cfa: r7 8 +
STACK CFI INIT 14d20 3a .cfa: sp 0 +
STACK CFI 14d2c .cfa: sp 16 + .ra: .cfa -4 + ^ r7: .cfa -8 + ^ r5: .cfa -12 + ^ r4: .cfa -16 + ^
STACK CFI 14d2e .cfa: r7 8 +
STACK CFI INIT 14d5a 14a .cfa: sp 0 +
STACK CFI 14d6c .cfa: sp 16 + .ra: .cfa -4 + ^ r7: .cfa -8 + ^ r6: .cfa -12 + ^ r4: .cfa -16 + ^
STACK CFI 14d6e .cfa: r7 8 +
STACK CFI INIT 14ea4 2e .cfa: sp 0 +
STACK CFI 14eac .cfa: sp 16 + .ra: .cfa -4 + ^ r7: .cfa -8 + ^ r6: .cfa -12 + ^ r4: .cfa -16 + ^
STACK CFI 14eae .cfa: r7 8 +
STACK CFI INIT 14ee0 340 .cfa: sp 0 +
STACK CFI 14ee2 .cfa: sp 20 + .ra: .cfa -4 + ^ r7: .cfa -8 + ^ r6: .cfa -12 + ^ r5: .cfa -16 + ^ r4: .cfa -20 + ^
STACK CFI 14ee4 .cfa: r7 8 +
STACK CFI 14ee8 r10: .cfa -24 + ^ r9: .cfa -28 + ^ r8: .cfa -32 + ^
STACK CFI INIT 15220 3a .cfa: sp 0 +
STACK CFI 15222 .cfa: sp 16 + .ra: .cfa -4 + ^ r7: .cfa -8 + ^ r5: .cfa -12 + ^ r4: .cfa -16 + ^
STACK CFI 15224 .cfa: r7 8 +
STACK CFI INIT 1525c 60 .cfa: sp 0 +
STACK CFI 1525e .cfa: sp 16 + .ra: .cfa -4 + ^ r7: .cfa -8 + ^ r6: .cfa -12 + ^ r4: .cfa -16 + ^
STACK CFI 15260 .cfa: r7 8 +
STACK CFI INIT 152bc 3e .cfa: sp 0 +
STACK CFI 152be .cfa: sp 20 + .ra: .cfa -4 + ^ r7: .cfa -8 + ^ r6: .cfa -12 + ^ r5: .cfa -16 + ^ r4: .cfa -20 + ^
STACK CFI 152c0 .cfa: r7 8 +
STACK CFI 152c4 r11: .cfa -24 + ^
STACK CFI INIT 152fa 2 .cfa: sp 0 +
STACK CFI INIT 152fc c0 .cfa: sp 0 +
STACK CFI 152fe .cfa: sp 20 + .ra: .cfa -4 + ^ r7: .cfa -8 + ^ r6: .cfa -12 + ^ r5: .cfa -16 + ^ r4: .cfa -20 + ^
STACK CFI 15300 .cfa: r7 8 +
STACK CFI 15304 r10: .cfa -24 + ^ r9: .cfa -28 + ^ r8: .cfa -32 + ^
STACK CFI INIT 153bc ba .cfa: sp 0 +
STACK CFI 153be .cfa: sp 20 + .ra: .cfa -4 + ^ r7: .cfa -8 + ^ r6: .cfa -12 + ^ r5: .cfa -16 + ^ r4: .cfa -20 + ^
STACK CFI 153c0 .cfa: r7 8 +
STACK CFI 153c4 r11: .cfa -24 + ^ r10: .cfa -28 + ^ r9: .cfa -32 + ^ r8: .cfa -36 + ^
STACK CFI INIT 15476 5c .cfa: sp 0 +
STACK CFI 15478 .cfa: sp 20 + .ra: .cfa -4 + ^ r7: .cfa -8 + ^ r6: .cfa -12 + ^ r5: .cfa -16 + ^ r4: .cfa -20 + ^
STACK CFI 1547a .cfa: r7 8 +
STACK CFI 1547e r11: .cfa -24 + ^
STACK CFI INIT 154d4 f8 .cfa: sp 0 +
STACK CFI 154d6 .cfa: sp 20 + .ra: .cfa -4 + ^ r7: .cfa -8 + ^ r6: .cfa -12 + ^ r5: .cfa -16 + ^ r4: .cfa -20 + ^
STACK CFI 154d8 .cfa: r7 8 +
STACK CFI 154dc r8: .cfa -24 + ^
STACK CFI INIT 155cc 34 .cfa: sp 0 +
STACK CFI 155ce .cfa: sp 8 + .ra: .cfa -4 + ^ r7: .cfa -8 + ^
STACK CFI 155d0 .cfa: r7 8 +
STACK CFI INIT 15600 d8 .cfa: sp 0 +
STACK CFI 15602 .cfa: sp 20 + .ra: .cfa -4 + ^ r7: .cfa -8 + ^ r6: .cfa -12 + ^ r5: .cfa -16 + ^ r4: .cfa -20 + ^
STACK CFI 15604 .cfa: r7 8 +
STACK CFI 15608 r11: .cfa -24 + ^ r10: .cfa -28 + ^ r9: .cfa -32 + ^ r8: .cfa -36 + ^
STACK CFI INIT 156d8 68 .cfa: sp 0 +
STACK CFI 156da .cfa: sp 20 + .ra: .cfa -4 + ^ r7: .cfa -8 + ^ r6: .cfa -12 + ^ r5: .cfa -16 + ^ r4: .cfa -20 + ^
STACK CFI 156dc .cfa: r7 8 +
STACK CFI 156e0 r11: .cfa -24 + ^
STACK CFI INIT 15740 10 .cfa: sp 0 +
STACK CFI 15742 .cfa: sp 8 + .ra: .cfa -4 + ^ r7: .cfa -8 + ^
STACK CFI 15744 .cfa: r7 8 +
STACK CFI INIT 15750 108 .cfa: sp 0 +
STACK CFI 15752 .cfa: sp 20 + .ra: .cfa -4 + ^ r7: .cfa -8 + ^ r6: .cfa -12 + ^ r5: .cfa -16 + ^ r4: .cfa -20 + ^
STACK CFI 15754 .cfa: r7 8 +
STACK CFI 15758 r11: .cfa -24 + ^ r10: .cfa -28 + ^ r9: .cfa -32 + ^ r8: .cfa -36 + ^
STACK CFI INIT 15858 110 .cfa: sp 0 +
STACK CFI 1585a .cfa: sp 20 + .ra: .cfa -4 + ^ r7: .cfa -8 + ^ r6: .cfa -12 + ^ r5: .cfa -16 + ^ r4: .cfa -20 + ^
STACK CFI 1585c .cfa: r7 8 +
STACK CFI 15860 r11: .cfa -24 + ^ r10: .cfa -28 + ^ r9: .cfa -32 + ^ r8: .cfa -36 + ^
STACK CFI INIT 15968 ce .cfa: sp 0 +
STACK CFI 1596a .cfa: sp 20 + .ra: .cfa -4 + ^ r7: .cfa -8 + ^ r6: .cfa -12 + ^ r5: .cfa -16 + ^ r4: .cfa -20 + ^
STACK CFI 1596c .cfa: r7 8 +
STACK CFI 15970 r10: .cfa -24 + ^ r9: .cfa -28 + ^ r8: .cfa -32 + ^
STACK CFI INIT 15a36 e0 .cfa: sp 0 +
STACK CFI 15a38 .cfa: sp 20 + .ra: .cfa -4 + ^ r7: .cfa -8 + ^ r6: .cfa -12 + ^ r5: .cfa -16 + ^ r4: .cfa -20 + ^
STACK CFI 15a3a .cfa: r7 8 +
STACK CFI 15a3e r11: .cfa -24 + ^ r9: .cfa -28 + ^ r8: .cfa -32 + ^
STACK CFI INIT 15b18 104 .cfa: sp 0 +
STACK CFI 15b1a .cfa: sp 20 + .ra: .cfa -4 + ^ r7: .cfa -8 + ^ r6: .cfa -12 + ^ r5: .cfa -16 + ^ r4: .cfa -20 + ^
STACK CFI 15b1c .cfa: r7 8 +
STACK CFI 15b20 r8: .cfa -24 + ^
STACK CFI INIT 15c1c 2 .cfa: sp 0 +
STACK CFI INIT 15c1e e .cfa: sp 0 +
STACK CFI INIT 15c2c 160 .cfa: sp 0 +
STACK CFI 15c2e .cfa: sp 20 + .ra: .cfa -4 + ^ r7: .cfa -8 + ^ r6: .cfa -12 + ^ r5: .cfa -16 + ^ r4: .cfa -20 + ^
STACK CFI 15c30 .cfa: r7 8 +
STACK CFI 15c34 r10: .cfa -24 + ^ r9: .cfa -28 + ^ r8: .cfa -32 + ^
STACK CFI INIT 15d8c 3c .cfa: sp 0 +
STACK CFI 15d8e .cfa: sp 16 + .ra: .cfa -4 + ^ r7: .cfa -8 + ^ r5: .cfa -12 + ^ r4: .cfa -16 + ^
STACK CFI 15d90 .cfa: r7 8 +
STACK CFI INIT 15dc8 10 .cfa: sp 0 +
STACK CFI 15dca .cfa: sp 8 + .ra: .cfa -4 + ^ r7: .cfa -8 + ^
STACK CFI 15dcc .cfa: r7 8 +
STACK CFI INIT 15dd8 2 .cfa: sp 0 +
STACK CFI INIT 15dda e .cfa: sp 0 +
STACK CFI INIT 15de8 7a .cfa: sp 0 +
STACK CFI 15dea .cfa: sp 16 + .ra: .cfa -4 + ^ r7: .cfa -8 + ^ r5: .cfa -12 + ^ r4: .cfa -16 + ^
STACK CFI 15dec .cfa: r7 8 +
STACK CFI INIT 15e62 274 .cfa: sp 0 +
STACK CFI 15e64 .cfa: sp 20 + .ra: .cfa -4 + ^ r7: .cfa -8 + ^ r6: .cfa -12 + ^ r5: .cfa -16 + ^ r4: .cfa -20 + ^
STACK CFI 15e66 .cfa: r7 8 +
STACK CFI 15e6a r8: .cfa -24 + ^
STACK CFI INIT 160d6 5a .cfa: sp 0 +
STACK CFI 160de .cfa: sp 16 + .ra: .cfa -4 + ^ r7: .cfa -8 + ^ r5: .cfa -12 + ^ r4: .cfa -16 + ^
STACK CFI 160e0 .cfa: r7 8 +
STACK CFI INIT 16130 248 .cfa: sp 0 +
STACK CFI 16132 .cfa: sp 20 + .ra: .cfa -4 + ^ r7: .cfa -8 + ^ r6: .cfa -12 + ^ r5: .cfa -16 + ^ r4: .cfa -20 + ^
STACK CFI 16134 .cfa: r7 8 +
STACK CFI 16138 r11: .cfa -24 + ^ r10: .cfa -28 + ^ r9: .cfa -32 + ^ r8: .cfa -36 + ^
STACK CFI INIT 16378 3a .cfa: sp 0 +
STACK CFI 1637a .cfa: sp 16 + .ra: .cfa -4 + ^ r7: .cfa -8 + ^ r5: .cfa -12 + ^ r4: .cfa -16 + ^
STACK CFI 1637c .cfa: r7 8 +
STACK CFI INIT 163b2 46 .cfa: sp 0 +
STACK CFI 163b4 .cfa: sp 16 + .ra: .cfa -4 + ^ r7: .cfa -8 + ^ r5: .cfa -12 + ^ r4: .cfa -16 + ^
STACK CFI 163b6 .cfa: r7 8 +
STACK CFI INIT 163f8 10 .cfa: sp 0 +
STACK CFI 163fa .cfa: sp 8 + .ra: .cfa -4 + ^ r7: .cfa -8 + ^
STACK CFI 163fc .cfa: r7 8 +
STACK CFI INIT 16408 7c0 .cfa: sp 0 +
STACK CFI 1640a .cfa: sp 20 + .ra: .cfa -4 + ^ r7: .cfa -8 + ^ r6: .cfa -12 + ^ r5: .cfa -16 + ^ r4: .cfa -20 + ^
STACK CFI 1640c .cfa: r7 8 +
STACK CFI 16410 r11: .cfa -24 + ^ r10: .cfa -28 + ^ r9: .cfa -32 + ^ r8: .cfa -36 + ^
STACK CFI INIT 16bc8 c4 .cfa: sp 0 +
STACK CFI 16bca .cfa: sp 20 + .ra: .cfa -4 + ^ r7: .cfa -8 + ^ r6: .cfa -12 + ^ r5: .cfa -16 + ^ r4: .cfa -20 + ^
STACK CFI 16bcc .cfa: r7 8 +
STACK CFI 16bd0 r11: .cfa -24 + ^ r10: .cfa -28 + ^ r9: .cfa -32 + ^ r8: .cfa -36 + ^
STACK CFI INIT 16c8c 238 .cfa: sp 0 +
STACK CFI 16c8e .cfa: sp 20 + .ra: .cfa -4 + ^ r7: .cfa -8 + ^ r6: .cfa -12 + ^ r5: .cfa -16 + ^ r4: .cfa -20 + ^
STACK CFI 16c90 .cfa: r7 8 +
STACK CFI 16c94 r8: .cfa -24 + ^
STACK CFI INIT 16ec4 38 .cfa: sp 0 +
STACK CFI 16ec6 .cfa: sp 16 + .ra: .cfa -4 + ^ r7: .cfa -8 + ^ r5: .cfa -12 + ^ r4: .cfa -16 + ^
STACK CFI 16ec8 .cfa: r7 8 +
STACK CFI INIT 16efc 1e0 .cfa: sp 0 +
STACK CFI 16efe .cfa: sp 20 + .ra: .cfa -4 + ^ r7: .cfa -8 + ^ r6: .cfa -12 + ^ r5: .cfa -16 + ^ r4: .cfa -20 + ^
STACK CFI 16f00 .cfa: r7 8 +
STACK CFI 16f04 r11: .cfa -24 + ^ r10: .cfa -28 + ^ r9: .cfa -32 + ^ r8: .cfa -36 + ^
STACK CFI INIT 170e0 2754 .cfa: sp 0 +
STACK CFI 170e2 .cfa: sp 20 + .ra: .cfa -4 + ^ r7: .cfa -8 + ^ r6: .cfa -12 + ^ r5: .cfa -16 + ^ r4: .cfa -20 + ^
STACK CFI 170e4 .cfa: r7 8 +
STACK CFI 170e8 r11: .cfa -24 + ^ r10: .cfa -28 + ^ r9: .cfa -32 + ^ r8: .cfa -36 + ^
STACK CFI INIT 19834 56 .cfa: sp 0 +
STACK CFI 19836 .cfa: sp 16 + .ra: .cfa -4 + ^ r7: .cfa -8 + ^ r6: .cfa -12 + ^ r4: .cfa -16 + ^
STACK CFI 19838 .cfa: r7 8 +
STACK CFI INIT 1988a 26 .cfa: sp 0 +
STACK CFI 1988c .cfa: sp 16 + .ra: .cfa -4 + ^ r7: .cfa -8 + ^ r6: .cfa -12 + ^ r4: .cfa -16 + ^
STACK CFI 1988e .cfa: r7 8 +
STACK CFI INIT 198b0 3e .cfa: sp 0 +
STACK CFI 198b2 .cfa: sp 16 + .ra: .cfa -4 + ^ r7: .cfa -8 + ^ r6: .cfa -12 + ^ r4: .cfa -16 + ^
STACK CFI 198b4 .cfa: r7 8 +
STACK CFI INIT 198f0 1018 .cfa: sp 0 +
STACK CFI 198f2 .cfa: sp 20 + .ra: .cfa -4 + ^ r7: .cfa -8 + ^ r6: .cfa -12 + ^ r5: .cfa -16 + ^ r4: .cfa -20 + ^
STACK CFI 198f4 .cfa: r7 8 +
STACK CFI 198f8 r11: .cfa -24 + ^ r10: .cfa -28 + ^ r9: .cfa -32 + ^ r8: .cfa -36 + ^
STACK CFI INIT 1a908 160 .cfa: sp 0 +
STACK CFI 1a90a .cfa: sp 20 + .ra: .cfa -4 + ^ r7: .cfa -8 + ^ r6: .cfa -12 + ^ r5: .cfa -16 + ^ r4: .cfa -20 + ^
STACK CFI 1a90c .cfa: r7 8 +
STACK CFI 1a910 r11: .cfa -24 + ^ r10: .cfa -28 + ^ r9: .cfa -32 + ^ r8: .cfa -36 + ^
STACK CFI INIT 1aa68 10 .cfa: sp 0 +
STACK CFI 1aa6a .cfa: sp 8 + .ra: .cfa -4 + ^ r7: .cfa -8 + ^
STACK CFI 1aa6c .cfa: r7 8 +
STACK CFI INIT 1aa78 d0 .cfa: sp 0 +
STACK CFI 1aa7a .cfa: sp 20 + .ra: .cfa -4 + ^ r7: .cfa -8 + ^ r6: .cfa -12 + ^ r5: .cfa -16 + ^ r4: .cfa -20 + ^
STACK CFI 1aa7c .cfa: r7 8 +
STACK CFI 1aa80 r8: .cfa -24 + ^
STACK CFI INIT 1ab48 38 .cfa: sp 0 +
STACK CFI 1ab5a .cfa: sp 16 + .ra: .cfa -4 + ^ r7: .cfa -8 + ^ r6: .cfa -12 + ^ r4: .cfa -16 + ^
STACK CFI 1ab5c .cfa: r7 8 +
STACK CFI INIT 1ab80 a8 .cfa: sp 0 +
STACK CFI 1ab82 .cfa: sp 20 + .ra: .cfa -4 + ^ r7: .cfa -8 + ^ r6: .cfa -12 + ^ r5: .cfa -16 + ^ r4: .cfa -20 + ^
STACK CFI 1ab84 .cfa: r7 8 +
STACK CFI 1ab88 r10: .cfa -24 + ^ r9: .cfa -28 + ^ r8: .cfa -32 + ^
STACK CFI INIT 1ac28 36c .cfa: sp 0 +
STACK CFI 1ac2a .cfa: sp 20 + .ra: .cfa -4 + ^ r7: .cfa -8 + ^ r6: .cfa -12 + ^ r5: .cfa -16 + ^ r4: .cfa -20 + ^
STACK CFI 1ac2c .cfa: r7 8 +
STACK CFI 1ac30 r11: .cfa -24 + ^ r10: .cfa -28 + ^ r9: .cfa -32 + ^ r8: .cfa -36 + ^
STACK CFI INIT 1af94 328 .cfa: sp 0 +
STACK CFI 1af96 .cfa: sp 20 + .ra: .cfa -4 + ^ r7: .cfa -8 + ^ r6: .cfa -12 + ^ r5: .cfa -16 + ^ r4: .cfa -20 + ^
STACK CFI 1af98 .cfa: r7 8 +
STACK CFI 1af9c r11: .cfa -24 + ^ r9: .cfa -28 + ^ r8: .cfa -32 + ^
STACK CFI INIT 1b2bc 28 .cfa: sp 0 +
STACK CFI 1b2be .cfa: sp 16 + .ra: .cfa -4 + ^ r7: .cfa -8 + ^ r6: .cfa -12 + ^ r4: .cfa -16 + ^
STACK CFI 1b2c0 .cfa: r7 8 +
STACK CFI INIT 1b2e4 54 .cfa: sp 0 +
STACK CFI 1b2e6 .cfa: sp 16 + .ra: .cfa -4 + ^ r7: .cfa -8 + ^ r6: .cfa -12 + ^ r4: .cfa -16 + ^
STACK CFI 1b2e8 .cfa: r7 8 +
STACK CFI INIT 1b338 34 .cfa: sp 0 +
STACK CFI 1b346 .cfa: sp 16 + .ra: .cfa -4 + ^ r7: .cfa -8 + ^ r6: .cfa -12 + ^ r4: .cfa -16 + ^
STACK CFI 1b348 .cfa: r7 8 +
STACK CFI INIT 1b36c ce .cfa: sp 0 +
STACK CFI 1b36e .cfa: sp 20 + .ra: .cfa -4 + ^ r7: .cfa -8 + ^ r6: .cfa -12 + ^ r5: .cfa -16 + ^ r4: .cfa -20 + ^
STACK CFI 1b370 .cfa: r7 8 +
STACK CFI 1b374 r11: .cfa -24 + ^ r10: .cfa -28 + ^ r9: .cfa -32 + ^ r8: .cfa -36 + ^
STACK CFI INIT 1b43c 10 .cfa: sp 0 +
STACK CFI 1b43e .cfa: sp 8 + .ra: .cfa -4 + ^ r7: .cfa -8 + ^
STACK CFI 1b440 .cfa: r7 8 +
STACK CFI INIT 1b44c 358 .cfa: sp 0 +
STACK CFI 1b44e .cfa: sp 20 + .ra: .cfa -4 + ^ r7: .cfa -8 + ^ r6: .cfa -12 + ^ r5: .cfa -16 + ^ r4: .cfa -20 + ^
STACK CFI 1b450 .cfa: r7 8 +
STACK CFI 1b454 r11: .cfa -24 + ^ r10: .cfa -28 + ^ r9: .cfa -32 + ^ r8: .cfa -36 + ^
STACK CFI INIT 1b7a4 198 .cfa: sp 0 +
STACK CFI 1b7a6 .cfa: sp 20 + .ra: .cfa -4 + ^ r7: .cfa -8 + ^ r6: .cfa -12 + ^ r5: .cfa -16 + ^ r4: .cfa -20 + ^
STACK CFI 1b7a8 .cfa: r7 8 +
STACK CFI 1b7ac r11: .cfa -24 + ^ r9: .cfa -28 + ^ r8: .cfa -32 + ^
STACK CFI INIT 1b93c fc .cfa: sp 0 +
STACK CFI 1b93e .cfa: sp 20 + .ra: .cfa -4 + ^ r7: .cfa -8 + ^ r6: .cfa -12 + ^ r5: .cfa -16 + ^ r4: .cfa -20 + ^
STACK CFI 1b940 .cfa: r7 8 +
STACK CFI 1b944 r11: .cfa -24 + ^
STACK CFI INIT 1ba38 38 .cfa: sp 0 +
STACK CFI 1ba4a .cfa: sp 16 + .ra: .cfa -4 + ^ r7: .cfa -8 + ^ r6: .cfa -12 + ^ r4: .cfa -16 + ^
STACK CFI 1ba4c .cfa: r7 8 +
STACK CFI INIT 1ba70 160 .cfa: sp 0 +
STACK CFI 1ba72 .cfa: sp 20 + .ra: .cfa -4 + ^ r7: .cfa -8 + ^ r6: .cfa -12 + ^ r5: .cfa -16 + ^ r4: .cfa -20 + ^
STACK CFI 1ba74 .cfa: r7 8 +
STACK CFI 1ba78 r11: .cfa -24 + ^
STACK CFI INIT 1bbd0 7c .cfa: sp 0 +
STACK CFI 1bbd2 .cfa: sp 20 + .ra: .cfa -4 + ^ r7: .cfa -8 + ^ r6: .cfa -12 + ^ r5: .cfa -16 + ^ r4: .cfa -20 + ^
STACK CFI 1bbd4 .cfa: r7 8 +
STACK CFI 1bbd8 r11: .cfa -24 + ^
STACK CFI INIT 1bc4c 190 .cfa: sp 0 +
STACK CFI 1bc4e .cfa: sp 20 + .ra: .cfa -4 + ^ r7: .cfa -8 + ^ r6: .cfa -12 + ^ r5: .cfa -16 + ^ r4: .cfa -20 + ^
STACK CFI 1bc50 .cfa: r7 8 +
STACK CFI 1bc54 r10: .cfa -24 + ^ r9: .cfa -28 + ^ r8: .cfa -32 + ^
STACK CFI INIT 1bddc 34 .cfa: sp 0 +
STACK CFI 1bdde .cfa: sp 8 + .ra: .cfa -4 + ^ r7: .cfa -8 + ^
STACK CFI 1bde0 .cfa: r7 8 +
STACK CFI INIT 1be10 10 .cfa: sp 0 +
STACK CFI 1be12 .cfa: sp 8 + .ra: .cfa -4 + ^ r7: .cfa -8 + ^
STACK CFI 1be14 .cfa: r7 8 +
STACK CFI INIT 1be20 d6 .cfa: sp 0 +
STACK CFI 1be22 .cfa: sp 20 + .ra: .cfa -4 + ^ r7: .cfa -8 + ^ r6: .cfa -12 + ^ r5: .cfa -16 + ^ r4: .cfa -20 + ^
STACK CFI 1be24 .cfa: r7 8 +
STACK CFI 1be28 r10: .cfa -24 + ^ r9: .cfa -28 + ^ r8: .cfa -32 + ^
STACK CFI INIT 1bef8 10 .cfa: sp 0 +
STACK CFI 1befa .cfa: sp 8 + .ra: .cfa -4 + ^ r7: .cfa -8 + ^
STACK CFI 1befc .cfa: r7 8 +
STACK CFI INIT 1bf08 2c .cfa: sp 0 +
STACK CFI 1bf0a .cfa: sp 16 + .ra: .cfa -4 + ^ r7: .cfa -8 + ^ r6: .cfa -12 + ^ r4: .cfa -16 + ^
STACK CFI 1bf0c .cfa: r7 8 +
STACK CFI INIT 1bf34 35c .cfa: sp 0 +
STACK CFI 1bf36 .cfa: sp 20 + .ra: .cfa -4 + ^ r7: .cfa -8 + ^ r6: .cfa -12 + ^ r5: .cfa -16 + ^ r4: .cfa -20 + ^
STACK CFI 1bf38 .cfa: r7 8 +
STACK CFI 1bf3c r11: .cfa -24 + ^ r10: .cfa -28 + ^ r9: .cfa -32 + ^ r8: .cfa -36 + ^
STACK CFI INIT 1c290 38 .cfa: sp 0 +
STACK CFI 1c292 .cfa: sp 16 + .ra: .cfa -4 + ^ r7: .cfa -8 + ^ r5: .cfa -12 + ^ r4: .cfa -16 + ^
STACK CFI 1c294 .cfa: r7 8 +
STACK CFI INIT 1c2c8 ba .cfa: sp 0 +
STACK CFI 1c2ca .cfa: sp 20 + .ra: .cfa -4 + ^ r7: .cfa -8 + ^ r6: .cfa -12 + ^ r5: .cfa -16 + ^ r4: .cfa -20 + ^
STACK CFI 1c2cc .cfa: r7 8 +
STACK CFI 1c2d0 r11: .cfa -24 + ^ r10: .cfa -28 + ^ r9: .cfa -32 + ^ r8: .cfa -36 + ^
STACK CFI INIT 1c382 46 .cfa: sp 0 +
STACK CFI 1c384 .cfa: sp 20 + .ra: .cfa -4 + ^ r7: .cfa -8 + ^ r6: .cfa -12 + ^ r5: .cfa -16 + ^ r4: .cfa -20 + ^
STACK CFI 1c386 .cfa: r7 8 +
STACK CFI 1c38a r8: .cfa -24 + ^
STACK CFI INIT 1c3c8 34 .cfa: sp 0 +
STACK CFI 1c3ca .cfa: sp 20 + .ra: .cfa -4 + ^ r7: .cfa -8 + ^ r6: .cfa -12 + ^ r5: .cfa -16 + ^ r4: .cfa -20 + ^
STACK CFI 1c3cc .cfa: r7 8 +
STACK CFI 1c3d0 r11: .cfa -24 + ^
STACK CFI INIT 1c3fc 10 .cfa: sp 0 +
STACK CFI 1c3fe .cfa: sp 8 + .ra: .cfa -4 + ^ r7: .cfa -8 + ^
STACK CFI 1c400 .cfa: r7 8 +
STACK CFI INIT 1c40c 158 .cfa: sp 0 +
STACK CFI 1c40e .cfa: sp 20 + .ra: .cfa -4 + ^ r7: .cfa -8 + ^ r6: .cfa -12 + ^ r5: .cfa -16 + ^ r4: .cfa -20 + ^
STACK CFI 1c410 .cfa: r7 8 +
STACK CFI 1c414 r8: .cfa -24 + ^
STACK CFI INIT 1c564 2c .cfa: sp 0 +
STACK CFI 1c566 .cfa: sp 16 + .ra: .cfa -4 + ^ r7: .cfa -8 + ^ r6: .cfa -12 + ^ r4: .cfa -16 + ^
STACK CFI 1c568 .cfa: r7 8 +
STACK CFI INIT 1c590 15c .cfa: sp 0 +
STACK CFI 1c592 .cfa: sp 20 + .ra: .cfa -4 + ^ r7: .cfa -8 + ^ r6: .cfa -12 + ^ r5: .cfa -16 + ^ r4: .cfa -20 + ^
STACK CFI 1c594 .cfa: r7 8 +
STACK CFI 1c598 r8: .cfa -24 + ^
STACK CFI INIT 1c6ec 70 .cfa: sp 0 +
STACK CFI 1c6ee .cfa: sp 20 + .ra: .cfa -4 + ^ r7: .cfa -8 + ^ r6: .cfa -12 + ^ r5: .cfa -16 + ^ r4: .cfa -20 + ^
STACK CFI 1c6f0 .cfa: r7 8 +
STACK CFI 1c6f4 r11: .cfa -24 + ^
STACK CFI INIT 1c75c 20 .cfa: sp 0 +
STACK CFI INIT 1c77c 2c .cfa: sp 0 +
STACK CFI 1c77e .cfa: sp 16 + .ra: .cfa -4 + ^ r7: .cfa -8 + ^ r6: .cfa -12 + ^ r4: .cfa -16 + ^
STACK CFI 1c780 .cfa: r7 8 +
STACK CFI INIT 1c7a8 c8 .cfa: sp 0 +
STACK CFI 1c7aa .cfa: sp 20 + .ra: .cfa -4 + ^ r7: .cfa -8 + ^ r6: .cfa -12 + ^ r5: .cfa -16 + ^ r4: .cfa -20 + ^
STACK CFI 1c7ac .cfa: r7 8 +
STACK CFI 1c7b0 r10: .cfa -24 + ^ r9: .cfa -28 + ^ r8: .cfa -32 + ^
STACK CFI INIT 1c870 30 .cfa: sp 0 +
STACK CFI 1c872 .cfa: sp 16 + .ra: .cfa -4 + ^ r7: .cfa -8 + ^ r6: .cfa -12 + ^ r4: .cfa -16 + ^
STACK CFI 1c874 .cfa: r7 8 +
STACK CFI INIT 1c8a0 1c0 .cfa: sp 0 +
STACK CFI 1c8a2 .cfa: sp 20 + .ra: .cfa -4 + ^ r7: .cfa -8 + ^ r6: .cfa -12 + ^ r5: .cfa -16 + ^ r4: .cfa -20 + ^
STACK CFI 1c8a4 .cfa: r7 8 +
STACK CFI 1c8a8 r11: .cfa -24 + ^ r9: .cfa -28 + ^ r8: .cfa -32 + ^
STACK CFI INIT 1ca60 38 .cfa: sp 0 +
STACK CFI 1ca62 .cfa: sp 16 + .ra: .cfa -4 + ^ r7: .cfa -8 + ^ r5: .cfa -12 + ^ r4: .cfa -16 + ^
STACK CFI 1ca64 .cfa: r7 8 +
STACK CFI INIT 1ca98 2c .cfa: sp 0 +
STACK CFI 1ca9a .cfa: sp 16 + .ra: .cfa -4 + ^ r7: .cfa -8 + ^ r6: .cfa -12 + ^ r4: .cfa -16 + ^
STACK CFI 1ca9c .cfa: r7 8 +
STACK CFI INIT 1cac4 44 .cfa: sp 0 +
STACK CFI 1cac6 .cfa: sp 8 + .ra: .cfa -4 + ^ r7: .cfa -8 + ^
STACK CFI 1cac8 .cfa: r7 8 +
STACK CFI INIT 1cb08 34 .cfa: sp 0 +
STACK CFI 1cb16 .cfa: sp 16 + .ra: .cfa -4 + ^ r7: .cfa -8 + ^ r6: .cfa -12 + ^ r4: .cfa -16 + ^
STACK CFI 1cb18 .cfa: r7 8 +
STACK CFI INIT 1cb3c 1ec .cfa: sp 0 +
STACK CFI 1cb3e .cfa: sp 20 + .ra: .cfa -4 + ^ r7: .cfa -8 + ^ r6: .cfa -12 + ^ r5: .cfa -16 + ^ r4: .cfa -20 + ^
STACK CFI 1cb40 .cfa: r7 8 +
STACK CFI 1cb44 r10: .cfa -24 + ^ r9: .cfa -28 + ^ r8: .cfa -32 + ^
STACK CFI INIT 1cd28 194 .cfa: sp 0 +
STACK CFI 1cd2a .cfa: sp 20 + .ra: .cfa -4 + ^ r7: .cfa -8 + ^ r6: .cfa -12 + ^ r5: .cfa -16 + ^ r4: .cfa -20 + ^
STACK CFI 1cd2c .cfa: r7 8 +
STACK CFI 1cd30 r11: .cfa -24 + ^ r10: .cfa -28 + ^ r9: .cfa -32 + ^ r8: .cfa -36 + ^
STACK CFI INIT 1cebc 4 .cfa: sp 0 +
STACK CFI INIT 1cec0 10 .cfa: sp 0 +
STACK CFI 1cec2 .cfa: sp 8 + .ra: .cfa -4 + ^ r7: .cfa -8 + ^
STACK CFI 1cec4 .cfa: r7 8 +
STACK CFI INIT 1ced0 2 .cfa: sp 0 +
STACK CFI INIT 1cee0 5a4 .cfa: sp 0 +
STACK CFI 1cee2 .cfa: sp 20 + .ra: .cfa -4 + ^ r7: .cfa -8 + ^ r6: .cfa -12 + ^ r5: .cfa -16 + ^ r4: .cfa -20 + ^
STACK CFI 1cee4 .cfa: r7 8 +
STACK CFI 1cee8 r11: .cfa -24 + ^ r10: .cfa -28 + ^ r9: .cfa -32 + ^ r8: .cfa -36 + ^
STACK CFI INIT 1d484 26 .cfa: sp 0 +
STACK CFI 1d486 .cfa: sp 16 + .ra: .cfa -4 + ^ r7: .cfa -8 + ^ r6: .cfa -12 + ^ r4: .cfa -16 + ^
STACK CFI 1d488 .cfa: r7 8 +
STACK CFI INIT 1d4aa 2 .cfa: sp 0 +
STACK CFI INIT 1d4ac 4 .cfa: sp 0 +
STACK CFI INIT 1d4b0 8 .cfa: sp 0 +
STACK CFI INIT 1d4b8 14 .cfa: sp 0 +
STACK CFI 1d4ba .cfa: sp 8 + .ra: .cfa -4 + ^ r7: .cfa -8 + ^
STACK CFI 1d4bc .cfa: r7 8 +
STACK CFI INIT 1d4cc 2 .cfa: sp 0 +
STACK CFI INIT 1d4ce 2 .cfa: sp 0 +
STACK CFI INIT 1d4d0 2 .cfa: sp 0 +
STACK CFI INIT 1d4d2 2 .cfa: sp 0 +
STACK CFI INIT 1d4d4 2 .cfa: sp 0 +
STACK CFI INIT 1d4d6 4 .cfa: sp 0 +
STACK CFI INIT 1d4da 8 .cfa: sp 0 +
STACK CFI INIT 1d4e2 10 .cfa: sp 0 +
STACK CFI 1d4e4 .cfa: sp 8 + .ra: .cfa -4 + ^ r7: .cfa -8 + ^
STACK CFI 1d4e6 .cfa: r7 8 +
STACK CFI INIT 1d4f2 2 .cfa: sp 0 +
STACK CFI INIT 1d500 320 .cfa: sp 0 +
STACK CFI 1d502 .cfa: sp 20 + .ra: .cfa -4 + ^ r7: .cfa -8 + ^ r6: .cfa -12 + ^ r5: .cfa -16 + ^ r4: .cfa -20 + ^
STACK CFI 1d504 .cfa: r7 8 +
STACK CFI 1d508 r10: .cfa -24 + ^ r9: .cfa -28 + ^ r8: .cfa -32 + ^
STACK CFI INIT 1d820 2 .cfa: sp 0 +
STACK CFI INIT 1d824 16c .cfa: sp 0 +
STACK CFI 1d826 .cfa: sp 20 + .ra: .cfa -4 + ^ r7: .cfa -8 + ^ r6: .cfa -12 + ^ r5: .cfa -16 + ^ r4: .cfa -20 + ^
STACK CFI 1d828 .cfa: r7 8 +
STACK CFI 1d82c r11: .cfa -24 + ^ r9: .cfa -28 + ^ r8: .cfa -32 + ^
STACK CFI INIT 1d990 150 .cfa: sp 0 +
STACK CFI 1d992 .cfa: sp 16 + .ra: .cfa -4 + ^ r7: .cfa -8 + ^ r6: .cfa -12 + ^ r4: .cfa -16 + ^
STACK CFI 1d994 .cfa: r7 8 +
STACK CFI INIT 1dae0 74c .cfa: sp 0 +
STACK CFI 1dae2 .cfa: sp 20 + .ra: .cfa -4 + ^ r7: .cfa -8 + ^ r6: .cfa -12 + ^ r5: .cfa -16 + ^ r4: .cfa -20 + ^
STACK CFI 1dae4 .cfa: r7 8 +
STACK CFI 1dae8 r11: .cfa -24 + ^ r10: .cfa -28 + ^ r9: .cfa -32 + ^ r8: .cfa -36 + ^
STACK CFI INIT 1e22c 90 .cfa: sp 0 +
STACK CFI 1e22e .cfa: sp 20 + .ra: .cfa -4 + ^ r7: .cfa -8 + ^ r6: .cfa -12 + ^ r5: .cfa -16 + ^ r4: .cfa -20 + ^
STACK CFI 1e230 .cfa: r7 8 +
STACK CFI 1e234 r11: .cfa -24 + ^
STACK CFI INIT 1e2bc 88 .cfa: sp 0 +
STACK CFI 1e2be .cfa: sp 20 + .ra: .cfa -4 + ^ r7: .cfa -8 + ^ r6: .cfa -12 + ^ r5: .cfa -16 + ^ r4: .cfa -20 + ^
STACK CFI 1e2c0 .cfa: r7 8 +
STACK CFI 1e2c4 r11: .cfa -24 + ^ r9: .cfa -28 + ^ r8: .cfa -32 + ^
STACK CFI INIT 1e350 310 .cfa: sp 0 +
STACK CFI 1e352 .cfa: sp 20 + .ra: .cfa -4 + ^ r7: .cfa -8 + ^ r6: .cfa -12 + ^ r5: .cfa -16 + ^ r4: .cfa -20 + ^
STACK CFI 1e354 .cfa: r7 8 +
STACK CFI 1e358 r10: .cfa -24 + ^ r9: .cfa -28 + ^ r8: .cfa -32 + ^
STACK CFI INIT 1e660 2 .cfa: sp 0 +
STACK CFI INIT 1e664 f8 .cfa: sp 0 +
STACK CFI 1e666 .cfa: sp 20 + .ra: .cfa -4 + ^ r7: .cfa -8 + ^ r6: .cfa -12 + ^ r5: .cfa -16 + ^ r4: .cfa -20 + ^
STACK CFI 1e668 .cfa: r7 8 +
STACK CFI 1e66c r11: .cfa -24 + ^ r9: .cfa -28 + ^ r8: .cfa -32 + ^
STACK CFI INIT 1e75c b4 .cfa: sp 0 +
STACK CFI 1e75e .cfa: sp 16 + .ra: .cfa -4 + ^ r7: .cfa -8 + ^ r6: .cfa -12 + ^ r4: .cfa -16 + ^
STACK CFI 1e760 .cfa: r7 8 +
STACK CFI INIT 1e810 a2c .cfa: sp 0 +
STACK CFI 1e812 .cfa: sp 20 + .ra: .cfa -4 + ^ r7: .cfa -8 + ^ r6: .cfa -12 + ^ r5: .cfa -16 + ^ r4: .cfa -20 + ^
STACK CFI 1e814 .cfa: r7 8 +
STACK CFI 1e818 r11: .cfa -24 + ^ r10: .cfa -28 + ^ r9: .cfa -32 + ^ r8: .cfa -36 + ^
STACK CFI INIT 1f23c 2 .cfa: sp 0 +
STACK CFI INIT 1f240 84 .cfa: sp 0 +
STACK CFI 1f242 .cfa: sp 16 + .ra: .cfa -4 + ^ r7: .cfa -8 + ^ r5: .cfa -12 + ^ r4: .cfa -16 + ^
STACK CFI 1f244 .cfa: r7 8 +
STACK CFI INIT 1f2d0 ec8 .cfa: sp 0 +
STACK CFI 1f2d2 .cfa: sp 20 + .ra: .cfa -4 + ^ r7: .cfa -8 + ^ r6: .cfa -12 + ^ r5: .cfa -16 + ^ r4: .cfa -20 + ^
STACK CFI 1f2d4 .cfa: r7 8 +
STACK CFI 1f2d8 r11: .cfa -24 + ^ r10: .cfa -28 + ^ r9: .cfa -32 + ^ r8: .cfa -36 + ^
STACK CFI INIT 201a0 a20 .cfa: sp 0 +
STACK CFI 201a2 .cfa: sp 20 + .ra: .cfa -4 + ^ r7: .cfa -8 + ^ r6: .cfa -12 + ^ r5: .cfa -16 + ^ r4: .cfa -20 + ^
STACK CFI 201a4 .cfa: r7 8 +
STACK CFI 201a8 r11: .cfa -24 + ^ r10: .cfa -28 + ^ r9: .cfa -32 + ^ r8: .cfa -36 + ^
STACK CFI INIT 20bc0 cc .cfa: sp 0 +
STACK CFI 20bc2 .cfa: sp 20 + .ra: .cfa -4 + ^ r7: .cfa -8 + ^ r6: .cfa -12 + ^ r5: .cfa -16 + ^ r4: .cfa -20 + ^
STACK CFI 20bc4 .cfa: r7 8 +
STACK CFI 20bc8 r10: .cfa -24 + ^ r9: .cfa -28 + ^ r8: .cfa -32 + ^
STACK CFI INIT 20c90 888 .cfa: sp 0 +
STACK CFI 20c92 .cfa: sp 20 + .ra: .cfa -4 + ^ r7: .cfa -8 + ^ r6: .cfa -12 + ^ r5: .cfa -16 + ^ r4: .cfa -20 + ^
STACK CFI 20c94 .cfa: r7 8 +
STACK CFI 20c98 r11: .cfa -24 + ^ r10: .cfa -28 + ^ r9: .cfa -32 + ^ r8: .cfa -36 + ^
STACK CFI INIT 21518 188 .cfa: sp 0 +
STACK CFI 2151a .cfa: sp 20 + .ra: .cfa -4 + ^ r7: .cfa -8 + ^ r6: .cfa -12 + ^ r5: .cfa -16 + ^ r4: .cfa -20 + ^
STACK CFI 2151c .cfa: r7 8 +
STACK CFI 21520 r8: .cfa -24 + ^
STACK CFI INIT 216a0 690 .cfa: sp 0 +
STACK CFI 216a2 .cfa: sp 20 + .ra: .cfa -4 + ^ r7: .cfa -8 + ^ r6: .cfa -12 + ^ r5: .cfa -16 + ^ r4: .cfa -20 + ^
STACK CFI 216a4 .cfa: r7 8 +
STACK CFI 216a8 r11: .cfa -24 + ^ r10: .cfa -28 + ^ r9: .cfa -32 + ^ r8: .cfa -36 + ^
STACK CFI INIT 21d30 3e0 .cfa: sp 0 +
STACK CFI 21d32 .cfa: sp 20 + .ra: .cfa -4 + ^ r7: .cfa -8 + ^ r6: .cfa -12 + ^ r5: .cfa -16 + ^ r4: .cfa -20 + ^
STACK CFI 21d34 .cfa: r7 8 +
STACK CFI 21d38 r11: .cfa -24 + ^ r10: .cfa -28 + ^ r9: .cfa -32 + ^ r8: .cfa -36 + ^
STACK CFI INIT 22110 3a .cfa: sp 0 +
STACK CFI 22112 .cfa: sp 16 + .ra: .cfa -4 + ^ r7: .cfa -8 + ^ r5: .cfa -12 + ^ r4: .cfa -16 + ^
STACK CFI 22114 .cfa: r7 8 +
STACK CFI INIT 2214a 3a .cfa: sp 0 +
STACK CFI 2214c .cfa: sp 16 + .ra: .cfa -4 + ^ r7: .cfa -8 + ^ r5: .cfa -12 + ^ r4: .cfa -16 + ^
STACK CFI 2214e .cfa: r7 8 +
STACK CFI INIT 22184 4c .cfa: sp 0 +
STACK CFI 22186 .cfa: sp 20 + .ra: .cfa -4 + ^ r7: .cfa -8 + ^ r6: .cfa -12 + ^ r5: .cfa -16 + ^ r4: .cfa -20 + ^
STACK CFI 22188 .cfa: r7 8 +
STACK CFI 2218c r11: .cfa -24 + ^
STACK CFI INIT 221d0 14 .cfa: sp 0 +
STACK CFI 221d2 .cfa: sp 16 + .ra: .cfa -4 + ^ r7: .cfa -8 + ^ r6: .cfa -12 + ^ r4: .cfa -16 + ^
STACK CFI 221d4 .cfa: r7 8 +
STACK CFI INIT 221e4 4e .cfa: sp 0 +
STACK CFI 221e6 .cfa: sp 20 + .ra: .cfa -4 + ^ r7: .cfa -8 + ^ r6: .cfa -12 + ^ r5: .cfa -16 + ^ r4: .cfa -20 + ^
STACK CFI 221e8 .cfa: r7 8 +
STACK CFI 221ec r11: .cfa -24 + ^
STACK CFI INIT 22232 3a .cfa: sp 0 +
STACK CFI 22234 .cfa: sp 16 + .ra: .cfa -4 + ^ r7: .cfa -8 + ^ r5: .cfa -12 + ^ r4: .cfa -16 + ^
STACK CFI 22236 .cfa: r7 8 +
STACK CFI INIT 2226c 4e .cfa: sp 0 +
STACK CFI 2226e .cfa: sp 20 + .ra: .cfa -4 + ^ r7: .cfa -8 + ^ r6: .cfa -12 + ^ r5: .cfa -16 + ^ r4: .cfa -20 + ^
STACK CFI 22270 .cfa: r7 8 +
STACK CFI 22274 r11: .cfa -24 + ^
STACK CFI INIT 222ba 3a .cfa: sp 0 +
STACK CFI 222bc .cfa: sp 16 + .ra: .cfa -4 + ^ r7: .cfa -8 + ^ r5: .cfa -12 + ^ r4: .cfa -16 + ^
STACK CFI 222be .cfa: r7 8 +
STACK CFI INIT 222f4 9a .cfa: sp 0 +
STACK CFI 222f6 .cfa: sp 20 + .ra: .cfa -4 + ^ r7: .cfa -8 + ^ r6: .cfa -12 + ^ r5: .cfa -16 + ^ r4: .cfa -20 + ^
STACK CFI 222f8 .cfa: r7 8 +
STACK CFI 222fc r11: .cfa -24 + ^ r9: .cfa -28 + ^ r8: .cfa -32 + ^
STACK CFI INIT 2238e 33a .cfa: sp 0 +
STACK CFI 22390 .cfa: sp 20 + .ra: .cfa -4 + ^ r7: .cfa -8 + ^ r6: .cfa -12 + ^ r5: .cfa -16 + ^ r4: .cfa -20 + ^
STACK CFI 22392 .cfa: r7 8 +
STACK CFI 22396 r11: .cfa -24 + ^
STACK CFI INIT 226c8 3a .cfa: sp 0 +
STACK CFI 226ca .cfa: sp 16 + .ra: .cfa -4 + ^ r7: .cfa -8 + ^ r5: .cfa -12 + ^ r4: .cfa -16 + ^
STACK CFI 226cc .cfa: r7 8 +
STACK CFI INIT 22702 14 .cfa: sp 0 +
STACK CFI 22704 .cfa: sp 16 + .ra: .cfa -4 + ^ r7: .cfa -8 + ^ r6: .cfa -12 + ^ r4: .cfa -16 + ^
STACK CFI 22706 .cfa: r7 8 +
STACK CFI INIT 22716 50 .cfa: sp 0 +
STACK CFI 22718 .cfa: sp 20 + .ra: .cfa -4 + ^ r7: .cfa -8 + ^ r6: .cfa -12 + ^ r5: .cfa -16 + ^ r4: .cfa -20 + ^
STACK CFI 2271a .cfa: r7 8 +
STACK CFI 2271e r11: .cfa -24 + ^
STACK CFI INIT 22766 58 .cfa: sp 0 +
STACK CFI 22768 .cfa: sp 20 + .ra: .cfa -4 + ^ r7: .cfa -8 + ^ r6: .cfa -12 + ^ r5: .cfa -16 + ^ r4: .cfa -20 + ^
STACK CFI 2276a .cfa: r7 8 +
STACK CFI 2276e r11: .cfa -24 + ^
STACK CFI INIT 227be 34 .cfa: sp 0 +
STACK CFI 227c0 .cfa: sp 16 + .ra: .cfa -4 + ^ r7: .cfa -8 + ^ r6: .cfa -12 + ^ r4: .cfa -16 + ^
STACK CFI 227c2 .cfa: r7 8 +
STACK CFI INIT 227f2 14 .cfa: sp 0 +
STACK CFI 227f4 .cfa: sp 16 + .ra: .cfa -4 + ^ r7: .cfa -8 + ^ r6: .cfa -12 + ^ r4: .cfa -16 + ^
STACK CFI 227f6 .cfa: r7 8 +
STACK CFI INIT 22806 14 .cfa: sp 0 +
STACK CFI 22808 .cfa: sp 16 + .ra: .cfa -4 + ^ r7: .cfa -8 + ^ r6: .cfa -12 + ^ r4: .cfa -16 + ^
STACK CFI 2280a .cfa: r7 8 +
STACK CFI INIT 2281a 3a .cfa: sp 0 +
STACK CFI 2281c .cfa: sp 16 + .ra: .cfa -4 + ^ r7: .cfa -8 + ^ r5: .cfa -12 + ^ r4: .cfa -16 + ^
STACK CFI 2281e .cfa: r7 8 +
STACK CFI INIT 22854 3a .cfa: sp 0 +
STACK CFI 22856 .cfa: sp 16 + .ra: .cfa -4 + ^ r7: .cfa -8 + ^ r5: .cfa -12 + ^ r4: .cfa -16 + ^
STACK CFI 22858 .cfa: r7 8 +
STACK CFI INIT 2288e 3a .cfa: sp 0 +
STACK CFI 22890 .cfa: sp 16 + .ra: .cfa -4 + ^ r7: .cfa -8 + ^ r5: .cfa -12 + ^ r4: .cfa -16 + ^
STACK CFI 22892 .cfa: r7 8 +
STACK CFI INIT 228c8 3a .cfa: sp 0 +
STACK CFI 228ca .cfa: sp 16 + .ra: .cfa -4 + ^ r7: .cfa -8 + ^ r5: .cfa -12 + ^ r4: .cfa -16 + ^
STACK CFI 228cc .cfa: r7 8 +
STACK CFI INIT 22904 11c .cfa: sp 0 +
STACK CFI 22906 .cfa: sp 20 + .ra: .cfa -4 + ^ r7: .cfa -8 + ^ r6: .cfa -12 + ^ r5: .cfa -16 + ^ r4: .cfa -20 + ^
STACK CFI 22908 .cfa: r7 8 +
STACK CFI 2290c r11: .cfa -24 + ^ r10: .cfa -28 + ^ r9: .cfa -32 + ^ r8: .cfa -36 + ^
STACK CFI INIT 22a20 19e .cfa: sp 0 +
STACK CFI 22a22 .cfa: sp 20 + .ra: .cfa -4 + ^ r7: .cfa -8 + ^ r6: .cfa -12 + ^ r5: .cfa -16 + ^ r4: .cfa -20 + ^
STACK CFI 22a24 .cfa: r7 8 +
STACK CFI 22a28 r11: .cfa -24 + ^ r10: .cfa -28 + ^ r9: .cfa -32 + ^ r8: .cfa -36 + ^
STACK CFI INIT 22bbe 40 .cfa: sp 0 +
STACK CFI 22bc0 .cfa: sp 20 + .ra: .cfa -4 + ^ r7: .cfa -8 + ^ r6: .cfa -12 + ^ r5: .cfa -16 + ^ r4: .cfa -20 + ^
STACK CFI 22bc2 .cfa: r7 8 +
STACK CFI 22bc6 r11: .cfa -24 + ^
STACK CFI INIT 22bfe 40 .cfa: sp 0 +
STACK CFI 22c00 .cfa: sp 20 + .ra: .cfa -4 + ^ r7: .cfa -8 + ^ r6: .cfa -12 + ^ r5: .cfa -16 + ^ r4: .cfa -20 + ^
STACK CFI 22c02 .cfa: r7 8 +
STACK CFI 22c06 r11: .cfa -24 + ^
STACK CFI INIT 22c3e 10a .cfa: sp 0 +
STACK CFI 22c40 .cfa: sp 20 + .ra: .cfa -4 + ^ r7: .cfa -8 + ^ r6: .cfa -12 + ^ r5: .cfa -16 + ^ r4: .cfa -20 + ^
STACK CFI 22c42 .cfa: r7 8 +
STACK CFI 22c46 r10: .cfa -24 + ^ r9: .cfa -28 + ^ r8: .cfa -32 + ^
STACK CFI INIT 22d48 17c .cfa: sp 0 +
STACK CFI 22d4a .cfa: sp 20 + .ra: .cfa -4 + ^ r7: .cfa -8 + ^ r6: .cfa -12 + ^ r5: .cfa -16 + ^ r4: .cfa -20 + ^
STACK CFI 22d4c .cfa: r7 8 +
STACK CFI 22d50 r11: .cfa -24 + ^
STACK CFI INIT 22ec4 12e .cfa: sp 0 +
STACK CFI 22ec6 .cfa: sp 20 + .ra: .cfa -4 + ^ r7: .cfa -8 + ^ r6: .cfa -12 + ^ r5: .cfa -16 + ^ r4: .cfa -20 + ^
STACK CFI 22ec8 .cfa: r7 8 +
STACK CFI 22ecc r10: .cfa -24 + ^ r9: .cfa -28 + ^ r8: .cfa -32 + ^
STACK CFI INIT 22ff2 40 .cfa: sp 0 +
STACK CFI 22ff4 .cfa: sp 20 + .ra: .cfa -4 + ^ r7: .cfa -8 + ^ r6: .cfa -12 + ^ r5: .cfa -16 + ^ r4: .cfa -20 + ^
STACK CFI 22ff6 .cfa: r7 8 +
STACK CFI 22ffa r11: .cfa -24 + ^
STACK CFI INIT 23032 5c .cfa: sp 0 +
STACK CFI 2303a .cfa: sp 20 + .ra: .cfa -4 + ^ r7: .cfa -8 + ^ r6: .cfa -12 + ^ r5: .cfa -16 + ^ r4: .cfa -20 + ^
STACK CFI 2303c .cfa: r7 8 +
STACK CFI 23040 r11: .cfa -24 + ^
STACK CFI INIT 2308e 2c .cfa: sp 0 +
STACK CFI 23096 .cfa: sp 16 + .ra: .cfa -4 + ^ r7: .cfa -8 + ^ r5: .cfa -12 + ^ r4: .cfa -16 + ^
STACK CFI 23098 .cfa: r7 8 +
STACK CFI INIT 230ba 2c .cfa: sp 0 +
STACK CFI 230c2 .cfa: sp 16 + .ra: .cfa -4 + ^ r7: .cfa -8 + ^ r5: .cfa -12 + ^ r4: .cfa -16 + ^
STACK CFI 230c4 .cfa: r7 8 +
STACK CFI INIT 230e6 64 .cfa: sp 0 +
STACK CFI 230e8 .cfa: sp 20 + .ra: .cfa -4 + ^ r7: .cfa -8 + ^ r6: .cfa -12 + ^ r5: .cfa -16 + ^ r4: .cfa -20 + ^
STACK CFI 230ea .cfa: r7 8 +
STACK CFI 230ee r11: .cfa -24 + ^ r9: .cfa -28 + ^ r8: .cfa -32 + ^
STACK CFI INIT 2314a 2c .cfa: sp 0 +
STACK CFI 23152 .cfa: sp 16 + .ra: .cfa -4 + ^ r7: .cfa -8 + ^ r5: .cfa -12 + ^ r4: .cfa -16 + ^
STACK CFI 23154 .cfa: r7 8 +
STACK CFI INIT 23176 6e .cfa: sp 0 +
STACK CFI 2317e .cfa: sp 20 + .ra: .cfa -4 + ^ r7: .cfa -8 + ^ r6: .cfa -12 + ^ r5: .cfa -16 + ^ r4: .cfa -20 + ^
STACK CFI 23180 .cfa: r7 8 +
STACK CFI 23184 r8: .cfa -24 + ^
STACK CFI INIT 231e4 2c .cfa: sp 0 +
STACK CFI 231ec .cfa: sp 16 + .ra: .cfa -4 + ^ r7: .cfa -8 + ^ r5: .cfa -12 + ^ r4: .cfa -16 + ^
STACK CFI 231ee .cfa: r7 8 +
STACK CFI INIT 23210 138 .cfa: sp 0 +
STACK CFI 23212 .cfa: sp 20 + .ra: .cfa -4 + ^ r7: .cfa -8 + ^ r6: .cfa -12 + ^ r5: .cfa -16 + ^ r4: .cfa -20 + ^
STACK CFI 23214 .cfa: r7 8 +
STACK CFI 23218 r11: .cfa -24 + ^
STACK CFI INIT 23348 1dc .cfa: sp 0 +
STACK CFI 2334a .cfa: sp 20 + .ra: .cfa -4 + ^ r7: .cfa -8 + ^ r6: .cfa -12 + ^ r5: .cfa -16 + ^ r4: .cfa -20 + ^
STACK CFI 2334c .cfa: r7 8 +
STACK CFI 23350 r11: .cfa -24 + ^ r10: .cfa -28 + ^ r9: .cfa -32 + ^ r8: .cfa -36 + ^
STACK CFI INIT 23524 50c .cfa: sp 0 +
STACK CFI 23526 .cfa: sp 20 + .ra: .cfa -4 + ^ r7: .cfa -8 + ^ r6: .cfa -12 + ^ r5: .cfa -16 + ^ r4: .cfa -20 + ^
STACK CFI 23528 .cfa: r7 8 +
STACK CFI 2352c r11: .cfa -24 + ^ r10: .cfa -28 + ^ r9: .cfa -32 + ^ r8: .cfa -36 + ^
STACK CFI INIT 23a30 118 .cfa: sp 0 +
STACK CFI 23a32 .cfa: sp 20 + .ra: .cfa -4 + ^ r7: .cfa -8 + ^ r6: .cfa -12 + ^ r5: .cfa -16 + ^ r4: .cfa -20 + ^
STACK CFI 23a34 .cfa: r7 8 +
STACK CFI 23a38 r10: .cfa -24 + ^ r9: .cfa -28 + ^ r8: .cfa -32 + ^
STACK CFI INIT 23b48 10 .cfa: sp 0 +
STACK CFI 23b4a .cfa: sp 8 + .ra: .cfa -4 + ^ r7: .cfa -8 + ^
STACK CFI 23b4c .cfa: r7 8 +
STACK CFI INIT 23b58 10 .cfa: sp 0 +
STACK CFI 23b5a .cfa: sp 8 + .ra: .cfa -4 + ^ r7: .cfa -8 + ^
STACK CFI 23b5c .cfa: r7 8 +
STACK CFI INIT 23b68 10 .cfa: sp 0 +
STACK CFI 23b6a .cfa: sp 8 + .ra: .cfa -4 + ^ r7: .cfa -8 + ^
STACK CFI 23b6c .cfa: r7 8 +
STACK CFI INIT 23b78 38 .cfa: sp 0 +
STACK CFI 23b7a .cfa: sp 16 + .ra: .cfa -4 + ^ r7: .cfa -8 + ^ r5: .cfa -12 + ^ r4: .cfa -16 + ^
STACK CFI 23b7c .cfa: r7 8 +
STACK CFI INIT 23bb0 18 .cfa: sp 0 +
STACK CFI 23bb2 .cfa: sp 8 + .ra: .cfa -4 + ^ r7: .cfa -8 + ^
STACK CFI 23bb4 .cfa: r7 8 +
STACK CFI INIT 23bc8 10 .cfa: sp 0 +
STACK CFI 23bca .cfa: sp 8 + .ra: .cfa -4 + ^ r7: .cfa -8 + ^
STACK CFI 23bcc .cfa: r7 8 +
STACK CFI INIT 23bd8 2e .cfa: sp 0 +
STACK CFI 23be0 .cfa: sp 16 + .ra: .cfa -4 + ^ r7: .cfa -8 + ^ r6: .cfa -12 + ^ r4: .cfa -16 + ^
STACK CFI 23be2 .cfa: r7 8 +
STACK CFI INIT 23c06 3c .cfa: sp 0 +
STACK CFI 23c08 .cfa: sp 20 + .ra: .cfa -4 + ^ r7: .cfa -8 + ^ r6: .cfa -12 + ^ r5: .cfa -16 + ^ r4: .cfa -20 + ^
STACK CFI 23c0a .cfa: r7 8 +
STACK CFI 23c0e r11: .cfa -24 + ^
STACK CFI INIT 23c42 2 .cfa: sp 0 +
STACK CFI INIT 23c44 4 .cfa: sp 0 +
STACK CFI INIT 23c48 20 .cfa: sp 0 +
STACK CFI 23c4a .cfa: sp 16 + .ra: .cfa -4 + ^ r7: .cfa -8 + ^ r6: .cfa -12 + ^ r4: .cfa -16 + ^
STACK CFI 23c4c .cfa: r7 8 +
STACK CFI INIT 23c68 14 .cfa: sp 0 +
STACK CFI INIT 23c7c 2 .cfa: sp 0 +
STACK CFI INIT 23c7e 4 .cfa: sp 0 +
STACK CFI INIT 23c82 8 .cfa: sp 0 +
STACK CFI INIT 23c8c 18 .cfa: sp 0 +
STACK CFI INIT 23ca4 c .cfa: sp 0 +
STACK CFI INIT 23cb0 e8 .cfa: sp 0 +
STACK CFI 23cb2 .cfa: sp 20 + .ra: .cfa -4 + ^ r7: .cfa -8 + ^ r6: .cfa -12 + ^ r5: .cfa -16 + ^ r4: .cfa -20 + ^
STACK CFI 23cb4 .cfa: r7 8 +
STACK CFI 23cb8 r10: .cfa -24 + ^ r9: .cfa -28 + ^ r8: .cfa -32 + ^
STACK CFI INIT 23d98 4c .cfa: sp 0 +
STACK CFI 23d9a .cfa: sp 20 + .ra: .cfa -4 + ^ r7: .cfa -8 + ^ r6: .cfa -12 + ^ r5: .cfa -16 + ^ r4: .cfa -20 + ^
STACK CFI 23d9c .cfa: r7 8 +
STACK CFI 23da0 r8: .cfa -24 + ^
STACK CFI INIT 23de4 10 .cfa: sp 0 +
STACK CFI 23de6 .cfa: sp 8 + .ra: .cfa -4 + ^ r7: .cfa -8 + ^
STACK CFI 23de8 .cfa: r7 8 +
STACK CFI INIT 23df4 3a .cfa: sp 0 +
STACK CFI 23df6 .cfa: sp 20 + .ra: .cfa -4 + ^ r7: .cfa -8 + ^ r6: .cfa -12 + ^ r5: .cfa -16 + ^ r4: .cfa -20 + ^
STACK CFI 23df8 .cfa: r7 8 +
STACK CFI 23dfc r11: .cfa -24 + ^
STACK CFI INIT 23e30 118 .cfa: sp 0 +
STACK CFI 23e32 .cfa: sp 20 + .ra: .cfa -4 + ^ r7: .cfa -8 + ^ r6: .cfa -12 + ^ r5: .cfa -16 + ^ r4: .cfa -20 + ^
STACK CFI 23e34 .cfa: r7 8 +
STACK CFI 23e38 r11: .cfa -24 + ^ r10: .cfa -28 + ^ r9: .cfa -32 + ^ r8: .cfa -36 + ^
STACK CFI INIT 23f48 10 .cfa: sp 0 +
STACK CFI 23f4a .cfa: sp 8 + .ra: .cfa -4 + ^ r7: .cfa -8 + ^
STACK CFI 23f4c .cfa: r7 8 +
STACK CFI INIT 23f58 6 .cfa: sp 0 +
STACK CFI INIT 23f5e 6 .cfa: sp 0 +
STACK CFI INIT 23f64 a .cfa: sp 0 +
STACK CFI INIT 23f70 264 .cfa: sp 0 +
STACK CFI 23f72 .cfa: sp 20 + .ra: .cfa -4 + ^ r7: .cfa -8 + ^ r6: .cfa -12 + ^ r5: .cfa -16 + ^ r4: .cfa -20 + ^
STACK CFI 23f74 .cfa: r7 8 +
STACK CFI 23f78 r8: .cfa -24 + ^
STACK CFI INIT 241d4 1ec .cfa: sp 0 +
STACK CFI 241d6 .cfa: sp 20 + .ra: .cfa -4 + ^ r7: .cfa -8 + ^ r6: .cfa -12 + ^ r5: .cfa -16 + ^ r4: .cfa -20 + ^
STACK CFI 241d8 .cfa: r7 8 +
STACK CFI 241dc r11: .cfa -24 + ^
STACK CFI INIT 243c0 474 .cfa: sp 0 +
STACK CFI 243c2 .cfa: sp 20 + .ra: .cfa -4 + ^ r7: .cfa -8 + ^ r6: .cfa -12 + ^ r5: .cfa -16 + ^ r4: .cfa -20 + ^
STACK CFI 243c4 .cfa: r7 8 +
STACK CFI 243c8 r11: .cfa -24 + ^ r10: .cfa -28 + ^ r9: .cfa -32 + ^ r8: .cfa -36 + ^
STACK CFI INIT 24834 1e .cfa: sp 0 +
STACK CFI INIT 24852 14 .cfa: sp 0 +
STACK CFI INIT 24866 24 .cfa: sp 0 +
STACK CFI INIT 2488c 20c .cfa: sp 0 +
STACK CFI 2488e .cfa: sp 20 + .ra: .cfa -4 + ^ r7: .cfa -8 + ^ r6: .cfa -12 + ^ r5: .cfa -16 + ^ r4: .cfa -20 + ^
STACK CFI 24890 .cfa: r7 8 +
STACK CFI 24894 r11: .cfa -24 + ^ r10: .cfa -28 + ^ r9: .cfa -32 + ^ r8: .cfa -36 + ^
STACK CFI INIT 24a98 24 .cfa: sp 0 +
STACK CFI 24aa0 .cfa: sp 16 + .ra: .cfa -4 + ^ r7: .cfa -8 + ^ r6: .cfa -12 + ^ r4: .cfa -16 + ^
STACK CFI 24aa2 .cfa: r7 8 +
STACK CFI INIT 24abc 10 .cfa: sp 0 +
STACK CFI 24abe .cfa: sp 8 + .ra: .cfa -4 + ^ r7: .cfa -8 + ^
STACK CFI 24ac0 .cfa: r7 8 +
STACK CFI INIT 24acc 34c .cfa: sp 0 +
STACK CFI 24ace .cfa: sp 20 + .ra: .cfa -4 + ^ r7: .cfa -8 + ^ r6: .cfa -12 + ^ r5: .cfa -16 + ^ r4: .cfa -20 + ^
STACK CFI 24ad0 .cfa: r7 8 +
STACK CFI 24ad4 r11: .cfa -24 + ^ r10: .cfa -28 + ^ r9: .cfa -32 + ^ r8: .cfa -36 + ^
STACK CFI INIT 24e18 40 .cfa: sp 0 +
STACK CFI 24e1a .cfa: sp 16 + .ra: .cfa -4 + ^ r7: .cfa -8 + ^ r5: .cfa -12 + ^ r4: .cfa -16 + ^
STACK CFI 24e1c .cfa: r7 8 +
STACK CFI INIT 24e58 36 .cfa: sp 0 +
STACK CFI 24e5a .cfa: sp 20 + .ra: .cfa -4 + ^ r7: .cfa -8 + ^ r6: .cfa -12 + ^ r5: .cfa -16 + ^ r4: .cfa -20 + ^
STACK CFI 24e5c .cfa: r7 8 +
STACK CFI 24e60 r11: .cfa -24 + ^
STACK CFI INIT 24e8e 6e .cfa: sp 0 +
STACK CFI 24e90 .cfa: sp 20 + .ra: .cfa -4 + ^ r7: .cfa -8 + ^ r6: .cfa -12 + ^ r5: .cfa -16 + ^ r4: .cfa -20 + ^
STACK CFI 24e92 .cfa: r7 8 +
STACK CFI 24e96 r10: .cfa -24 + ^ r9: .cfa -28 + ^ r8: .cfa -32 + ^
STACK CFI INIT 24efc 10 .cfa: sp 0 +
STACK CFI 24efe .cfa: sp 8 + .ra: .cfa -4 + ^ r7: .cfa -8 + ^
STACK CFI 24f00 .cfa: r7 8 +
STACK CFI INIT 24f0c 70 .cfa: sp 0 +
STACK CFI 24f0e .cfa: sp 20 + .ra: .cfa -4 + ^ r7: .cfa -8 + ^ r6: .cfa -12 + ^ r5: .cfa -16 + ^ r4: .cfa -20 + ^
STACK CFI 24f10 .cfa: r7 8 +
STACK CFI 24f14 r11: .cfa -24 + ^
STACK CFI INIT 24f7c 70 .cfa: sp 0 +
STACK CFI 24f7e .cfa: sp 20 + .ra: .cfa -4 + ^ r7: .cfa -8 + ^ r6: .cfa -12 + ^ r5: .cfa -16 + ^ r4: .cfa -20 + ^
STACK CFI 24f80 .cfa: r7 8 +
STACK CFI 24f84 r11: .cfa -24 + ^
STACK CFI INIT 24fec e0 .cfa: sp 0 +
STACK CFI 24fee .cfa: sp 16 + .ra: .cfa -4 + ^ r7: .cfa -8 + ^ r5: .cfa -12 + ^ r4: .cfa -16 + ^
STACK CFI 24ff0 .cfa: r7 8 +
STACK CFI INIT 250cc 15c .cfa: sp 0 +
STACK CFI 250ce .cfa: sp 20 + .ra: .cfa -4 + ^ r7: .cfa -8 + ^ r6: .cfa -12 + ^ r5: .cfa -16 + ^ r4: .cfa -20 + ^
STACK CFI 250d0 .cfa: r7 8 +
STACK CFI 250d4 r8: .cfa -24 + ^
STACK CFI INIT 25228 70 .cfa: sp 0 +
STACK CFI 2522a .cfa: sp 20 + .ra: .cfa -4 + ^ r7: .cfa -8 + ^ r6: .cfa -12 + ^ r5: .cfa -16 + ^ r4: .cfa -20 + ^
STACK CFI 2522c .cfa: r7 8 +
STACK CFI 25230 r8: .cfa -24 + ^
STACK CFI INIT 25298 b8 .cfa: sp 0 +
STACK CFI 2529a .cfa: sp 16 + .ra: .cfa -4 + ^ r7: .cfa -8 + ^ r5: .cfa -12 + ^ r4: .cfa -16 + ^
STACK CFI 2529c .cfa: r7 8 +
STACK CFI INIT 25350 10 .cfa: sp 0 +
STACK CFI 25352 .cfa: sp 8 + .ra: .cfa -4 + ^ r7: .cfa -8 + ^
STACK CFI 25354 .cfa: r7 8 +
STACK CFI INIT 25360 10 .cfa: sp 0 +
STACK CFI 25362 .cfa: sp 8 + .ra: .cfa -4 + ^ r7: .cfa -8 + ^
STACK CFI 25364 .cfa: r7 8 +
STACK CFI INIT 25370 f4 .cfa: sp 0 +
STACK CFI 25372 .cfa: sp 20 + .ra: .cfa -4 + ^ r7: .cfa -8 + ^ r6: .cfa -12 + ^ r5: .cfa -16 + ^ r4: .cfa -20 + ^
STACK CFI 25374 .cfa: r7 8 +
STACK CFI 25378 r11: .cfa -24 + ^
STACK CFI INIT 25464 fc .cfa: sp 0 +
STACK CFI 25466 .cfa: sp 20 + .ra: .cfa -4 + ^ r7: .cfa -8 + ^ r6: .cfa -12 + ^ r5: .cfa -16 + ^ r4: .cfa -20 + ^
STACK CFI 25468 .cfa: r7 8 +
STACK CFI 2546c r11: .cfa -24 + ^
STACK CFI INIT 25560 5f0 .cfa: sp 0 +
STACK CFI 25562 .cfa: sp 20 + .ra: .cfa -4 + ^ r7: .cfa -8 + ^ r6: .cfa -12 + ^ r5: .cfa -16 + ^ r4: .cfa -20 + ^
STACK CFI 25564 .cfa: r7 8 +
STACK CFI 25568 r11: .cfa -24 + ^ r10: .cfa -28 + ^ r9: .cfa -32 + ^ r8: .cfa -36 + ^
STACK CFI INIT 25b50 15c .cfa: sp 0 +
STACK CFI 25b52 .cfa: sp 20 + .ra: .cfa -4 + ^ r7: .cfa -8 + ^ r6: .cfa -12 + ^ r5: .cfa -16 + ^ r4: .cfa -20 + ^
STACK CFI 25b54 .cfa: r7 8 +
STACK CFI 25b58 r11: .cfa -24 + ^
STACK CFI INIT 25cac 10 .cfa: sp 0 +
STACK CFI 25cae .cfa: sp 8 + .ra: .cfa -4 + ^ r7: .cfa -8 + ^
STACK CFI 25cb0 .cfa: r7 8 +
STACK CFI INIT 25cbc a4 .cfa: sp 0 +
STACK CFI 25cbe .cfa: sp 16 + .ra: .cfa -4 + ^ r7: .cfa -8 + ^ r5: .cfa -12 + ^ r4: .cfa -16 + ^
STACK CFI 25cc0 .cfa: r7 8 +
STACK CFI INIT 25d60 64 .cfa: sp 0 +
STACK CFI 25d62 .cfa: sp 20 + .ra: .cfa -4 + ^ r7: .cfa -8 + ^ r6: .cfa -12 + ^ r5: .cfa -16 + ^ r4: .cfa -20 + ^
STACK CFI 25d64 .cfa: r7 8 +
STACK CFI 25d68 r10: .cfa -24 + ^ r9: .cfa -28 + ^ r8: .cfa -32 + ^
STACK CFI INIT 25dc4 2a0 .cfa: sp 0 +
STACK CFI 25dc6 .cfa: sp 20 + .ra: .cfa -4 + ^ r7: .cfa -8 + ^ r6: .cfa -12 + ^ r5: .cfa -16 + ^ r4: .cfa -20 + ^
STACK CFI 25dc8 .cfa: r7 8 +
STACK CFI 25dcc r11: .cfa -24 + ^ r10: .cfa -28 + ^ r9: .cfa -32 + ^ r8: .cfa -36 + ^
STACK CFI INIT 26070 2320 .cfa: sp 0 +
STACK CFI 26072 .cfa: sp 20 + .ra: .cfa -4 + ^ r7: .cfa -8 + ^ r6: .cfa -12 + ^ r5: .cfa -16 + ^ r4: .cfa -20 + ^
STACK CFI 26074 .cfa: r7 8 +
STACK CFI 26078 r10: .cfa -24 + ^ r9: .cfa -28 + ^ r8: .cfa -32 + ^
STACK CFI INIT 28390 2 .cfa: sp 0 +
STACK CFI INIT 28394 cc .cfa: sp 0 +
STACK CFI 28396 .cfa: sp 20 + .ra: .cfa -4 + ^ r7: .cfa -8 + ^ r6: .cfa -12 + ^ r5: .cfa -16 + ^ r4: .cfa -20 + ^
STACK CFI 28398 .cfa: r7 8 +
STACK CFI 2839c r10: .cfa -24 + ^ r9: .cfa -28 + ^ r8: .cfa -32 + ^
STACK CFI INIT 28460 dc .cfa: sp 0 +
STACK CFI 28462 .cfa: sp 16 + .ra: .cfa -4 + ^ r7: .cfa -8 + ^ r5: .cfa -12 + ^ r4: .cfa -16 + ^
STACK CFI 28464 .cfa: r7 8 +
STACK CFI INIT 2853c f0 .cfa: sp 0 +
STACK CFI 2853e .cfa: sp 20 + .ra: .cfa -4 + ^ r7: .cfa -8 + ^ r6: .cfa -12 + ^ r5: .cfa -16 + ^ r4: .cfa -20 + ^
STACK CFI 28540 .cfa: r7 8 +
STACK CFI 28544 r8: .cfa -24 + ^
STACK CFI INIT 28630 108 .cfa: sp 0 +
STACK CFI 28632 .cfa: sp 20 + .ra: .cfa -4 + ^ r7: .cfa -8 + ^ r6: .cfa -12 + ^ r5: .cfa -16 + ^ r4: .cfa -20 + ^
STACK CFI 28634 .cfa: r7 8 +
STACK CFI 28638 r11: .cfa -24 + ^ r10: .cfa -28 + ^ r9: .cfa -32 + ^ r8: .cfa -36 + ^
STACK CFI INIT 28740 798 .cfa: sp 0 +
STACK CFI 28742 .cfa: sp 20 + .ra: .cfa -4 + ^ r7: .cfa -8 + ^ r6: .cfa -12 + ^ r5: .cfa -16 + ^ r4: .cfa -20 + ^
STACK CFI 28744 .cfa: r7 8 +
STACK CFI 28748 r11: .cfa -24 + ^ r10: .cfa -28 + ^ r9: .cfa -32 + ^ r8: .cfa -36 + ^
STACK CFI INIT 28ed8 e4 .cfa: sp 0 +
STACK CFI 28eda .cfa: sp 20 + .ra: .cfa -4 + ^ r7: .cfa -8 + ^ r6: .cfa -12 + ^ r5: .cfa -16 + ^ r4: .cfa -20 + ^
STACK CFI 28edc .cfa: r7 8 +
STACK CFI 28ee0 r11: .cfa -24 + ^
STACK CFI INIT 28fbc 114 .cfa: sp 0 +
STACK CFI 28fbe .cfa: sp 20 + .ra: .cfa -4 + ^ r7: .cfa -8 + ^ r6: .cfa -12 + ^ r5: .cfa -16 + ^ r4: .cfa -20 + ^
STACK CFI 28fc0 .cfa: r7 8 +
STACK CFI 28fc4 r11: .cfa -24 + ^
STACK CFI INIT 290d0 ec .cfa: sp 0 +
STACK CFI 290d2 .cfa: sp 20 + .ra: .cfa -4 + ^ r7: .cfa -8 + ^ r6: .cfa -12 + ^ r5: .cfa -16 + ^ r4: .cfa -20 + ^
STACK CFI 290d4 .cfa: r7 8 +
STACK CFI 290d8 r11: .cfa -24 + ^ r9: .cfa -28 + ^ r8: .cfa -32 + ^
STACK CFI INIT 291bc dc .cfa: sp 0 +
STACK CFI 291be .cfa: sp 20 + .ra: .cfa -4 + ^ r7: .cfa -8 + ^ r6: .cfa -12 + ^ r5: .cfa -16 + ^ r4: .cfa -20 + ^
STACK CFI 291c0 .cfa: r7 8 +
STACK CFI 291c4 r8: .cfa -24 + ^
STACK CFI INIT 292a0 138 .cfa: sp 0 +
STACK CFI 292a2 .cfa: sp 20 + .ra: .cfa -4 + ^ r7: .cfa -8 + ^ r6: .cfa -12 + ^ r5: .cfa -16 + ^ r4: .cfa -20 + ^
STACK CFI 292a4 .cfa: r7 8 +
STACK CFI 292a8 r11: .cfa -24 + ^ r10: .cfa -28 + ^ r9: .cfa -32 + ^ r8: .cfa -36 + ^
STACK CFI INIT 293d8 f0 .cfa: sp 0 +
STACK CFI 293da .cfa: sp 20 + .ra: .cfa -4 + ^ r7: .cfa -8 + ^ r6: .cfa -12 + ^ r5: .cfa -16 + ^ r4: .cfa -20 + ^
STACK CFI 293dc .cfa: r7 8 +
STACK CFI 293e0 r11: .cfa -24 + ^ r9: .cfa -28 + ^ r8: .cfa -32 + ^
STACK CFI INIT 294c8 f0 .cfa: sp 0 +
STACK CFI 294ca .cfa: sp 20 + .ra: .cfa -4 + ^ r7: .cfa -8 + ^ r6: .cfa -12 + ^ r5: .cfa -16 + ^ r4: .cfa -20 + ^
STACK CFI 294cc .cfa: r7 8 +
STACK CFI 294d0 r11: .cfa -24 + ^ r9: .cfa -28 + ^ r8: .cfa -32 + ^
STACK CFI INIT 295b8 e4 .cfa: sp 0 +
STACK CFI 295ba .cfa: sp 20 + .ra: .cfa -4 + ^ r7: .cfa -8 + ^ r6: .cfa -12 + ^ r5: .cfa -16 + ^ r4: .cfa -20 + ^
STACK CFI 295bc .cfa: r7 8 +
STACK CFI 295c0 r8: .cfa -24 + ^
STACK CFI INIT 2969c ec .cfa: sp 0 +
STACK CFI 2969e .cfa: sp 20 + .ra: .cfa -4 + ^ r7: .cfa -8 + ^ r6: .cfa -12 + ^ r5: .cfa -16 + ^ r4: .cfa -20 + ^
STACK CFI 296a0 .cfa: r7 8 +
STACK CFI 296a4 r8: .cfa -24 + ^
STACK CFI INIT 29788 ec .cfa: sp 0 +
STACK CFI 2978a .cfa: sp 20 + .ra: .cfa -4 + ^ r7: .cfa -8 + ^ r6: .cfa -12 + ^ r5: .cfa -16 + ^ r4: .cfa -20 + ^
STACK CFI 2978c .cfa: r7 8 +
STACK CFI 29790 r8: .cfa -24 + ^
STACK CFI INIT 29874 f0 .cfa: sp 0 +
STACK CFI 29876 .cfa: sp 20 + .ra: .cfa -4 + ^ r7: .cfa -8 + ^ r6: .cfa -12 + ^ r5: .cfa -16 + ^ r4: .cfa -20 + ^
STACK CFI 29878 .cfa: r7 8 +
STACK CFI 2987c r11: .cfa -24 + ^ r9: .cfa -28 + ^ r8: .cfa -32 + ^
STACK CFI INIT 29964 f8 .cfa: sp 0 +
STACK CFI 29966 .cfa: sp 20 + .ra: .cfa -4 + ^ r7: .cfa -8 + ^ r6: .cfa -12 + ^ r5: .cfa -16 + ^ r4: .cfa -20 + ^
STACK CFI 29968 .cfa: r7 8 +
STACK CFI 2996c r11: .cfa -24 + ^ r9: .cfa -28 + ^ r8: .cfa -32 + ^
STACK CFI INIT 29a5c ec .cfa: sp 0 +
STACK CFI 29a5e .cfa: sp 20 + .ra: .cfa -4 + ^ r7: .cfa -8 + ^ r6: .cfa -12 + ^ r5: .cfa -16 + ^ r4: .cfa -20 + ^
STACK CFI 29a60 .cfa: r7 8 +
STACK CFI 29a64 r8: .cfa -24 + ^
STACK CFI INIT 29b48 f8 .cfa: sp 0 +
STACK CFI 29b4a .cfa: sp 20 + .ra: .cfa -4 + ^ r7: .cfa -8 + ^ r6: .cfa -12 + ^ r5: .cfa -16 + ^ r4: .cfa -20 + ^
STACK CFI 29b4c .cfa: r7 8 +
STACK CFI 29b50 r11: .cfa -24 + ^ r9: .cfa -28 + ^ r8: .cfa -32 + ^
STACK CFI INIT 29c40 484 .cfa: sp 0 +
STACK CFI 29c42 .cfa: sp 20 + .ra: .cfa -4 + ^ r7: .cfa -8 + ^ r6: .cfa -12 + ^ r5: .cfa -16 + ^ r4: .cfa -20 + ^
STACK CFI 29c44 .cfa: r7 8 +
STACK CFI 29c48 r11: .cfa -24 + ^ r10: .cfa -28 + ^ r9: .cfa -32 + ^ r8: .cfa -36 + ^
STACK CFI INIT 2a0c4 e0 .cfa: sp 0 +
STACK CFI 2a0c6 .cfa: sp 16 + .ra: .cfa -4 + ^ r7: .cfa -8 + ^ r5: .cfa -12 + ^ r4: .cfa -16 + ^
STACK CFI 2a0c8 .cfa: r7 8 +
STACK CFI INIT 2a1a4 38 .cfa: sp 0 +
STACK CFI 2a1a6 .cfa: sp 16 + .ra: .cfa -4 + ^ r7: .cfa -8 + ^ r5: .cfa -12 + ^ r4: .cfa -16 + ^
STACK CFI 2a1a8 .cfa: r7 8 +
STACK CFI INIT 2a1dc 3a .cfa: sp 0 +
STACK CFI 2a1de .cfa: sp 16 + .ra: .cfa -4 + ^ r7: .cfa -8 + ^ r5: .cfa -12 + ^ r4: .cfa -16 + ^
STACK CFI 2a1e0 .cfa: r7 8 +
STACK CFI INIT 2a216 3a .cfa: sp 0 +
STACK CFI 2a218 .cfa: sp 16 + .ra: .cfa -4 + ^ r7: .cfa -8 + ^ r5: .cfa -12 + ^ r4: .cfa -16 + ^
STACK CFI 2a21a .cfa: r7 8 +
STACK CFI INIT 2a250 14f8 .cfa: sp 0 +
STACK CFI 2a252 .cfa: sp 20 + .ra: .cfa -4 + ^ r7: .cfa -8 + ^ r6: .cfa -12 + ^ r5: .cfa -16 + ^ r4: .cfa -20 + ^
STACK CFI 2a254 .cfa: r7 8 +
STACK CFI 2a258 r11: .cfa -24 + ^ r10: .cfa -28 + ^ r9: .cfa -32 + ^ r8: .cfa -36 + ^
STACK CFI INIT 2b748 50 .cfa: sp 0 +
STACK CFI 2b74a .cfa: sp 16 + .ra: .cfa -4 + ^ r7: .cfa -8 + ^ r5: .cfa -12 + ^ r4: .cfa -16 + ^
STACK CFI 2b74c .cfa: r7 8 +
STACK CFI INIT 2b798 10 .cfa: sp 0 +
STACK CFI INIT 2b7a8 1c .cfa: sp 0 +
STACK CFI 2b7aa .cfa: sp 8 + .ra: .cfa -4 + ^ r7: .cfa -8 + ^
STACK CFI 2b7ac .cfa: r7 8 +
STACK CFI INIT 2b7c4 8 .cfa: sp 0 +
STACK CFI INIT 2b7cc 4 .cfa: sp 0 +
STACK CFI INIT 2b7d0 6 .cfa: sp 0 +
STACK CFI INIT 2b7d6 6 .cfa: sp 0 +
STACK CFI INIT 2b7dc 2 .cfa: sp 0 +
STACK CFI INIT 2b7de 4 .cfa: sp 0 +
STACK CFI INIT 2b7e4 3bc .cfa: sp 0 +
STACK CFI 2b7e6 .cfa: sp 20 + .ra: .cfa -4 + ^ r7: .cfa -8 + ^ r6: .cfa -12 + ^ r5: .cfa -16 + ^ r4: .cfa -20 + ^
STACK CFI 2b7e8 .cfa: r7 8 +
STACK CFI 2b7ec r11: .cfa -24 + ^ r10: .cfa -28 + ^ r9: .cfa -32 + ^ r8: .cfa -36 + ^
STACK CFI INIT 2bba0 c4 .cfa: sp 0 +
STACK CFI 2bba2 .cfa: sp 20 + .ra: .cfa -4 + ^ r7: .cfa -8 + ^ r6: .cfa -12 + ^ r5: .cfa -16 + ^ r4: .cfa -20 + ^
STACK CFI 2bba4 .cfa: r7 8 +
STACK CFI 2bba8 r10: .cfa -24 + ^ r9: .cfa -28 + ^ r8: .cfa -32 + ^
STACK CFI INIT 2bc64 68 .cfa: sp 0 +
STACK CFI 2bc66 .cfa: sp 16 + .ra: .cfa -4 + ^ r7: .cfa -8 + ^ r5: .cfa -12 + ^ r4: .cfa -16 + ^
STACK CFI 2bc68 .cfa: r7 8 +
STACK CFI INIT 142dc 24 .cfa: sp 0 +
STACK CFI INIT 0 20 .cfa: sp 0 +
STACK CFI 2 .cfa: sp 16 + .ra: .cfa -4 + ^ r7: .cfa -8 + ^ r6: .cfa -12 + ^ r4: .cfa -16 + ^
STACK CFI 4 .cfa: r7 8 +
STACK CFI INIT 2bccc 20 .cfa: sp 0 +
STACK CFI 2bcce .cfa: sp 16 + .ra: .cfa -4 + ^ r7: .cfa -8 + ^ r6: .cfa -12 + ^ r4: .cfa -16 + ^
STACK CFI 2bcd0 .cfa: r7 8 +
STACK CFI INIT 2bcec 28 .cfa: sp 0 +
STACK CFI 2bcee .cfa: sp 16 + .ra: .cfa -4 + ^ r7: .cfa -8 + ^ r5: .cfa -12 + ^ r4: .cfa -16 + ^
STACK CFI 2bcf0 .cfa: r7 8 +
STACK CFI INIT 2bd14 cc .cfa: sp 0 +
STACK CFI 2bd16 .cfa: sp 16 + .ra: .cfa -4 + ^ r7: .cfa -8 + ^ r6: .cfa -12 + ^ r4: .cfa -16 + ^
STACK CFI 2bd18 .cfa: r7 8 +
STACK CFI INIT 2bde0 48 .cfa: sp 0 +
STACK CFI 2bde2 .cfa: sp 16 + .ra: .cfa -4 + ^ r7: .cfa -8 + ^ r5: .cfa -12 + ^ r4: .cfa -16 + ^
STACK CFI 2bde4 .cfa: r7 8 +
STACK CFI INIT 2be28 60 .cfa: sp 0 +
STACK CFI 2be2a .cfa: sp 16 + .ra: .cfa -4 + ^ r7: .cfa -8 + ^ r6: .cfa -12 + ^ r4: .cfa -16 + ^
STACK CFI 2be2c .cfa: r7 8 +
STACK CFI INIT 2be88 46 .cfa: sp 0 +
STACK CFI 2be8a .cfa: sp 16 + .ra: .cfa -4 + ^ r7: .cfa -8 + ^ r5: .cfa -12 + ^ r4: .cfa -16 + ^
STACK CFI 2be8c .cfa: r7 8 +
STACK CFI INIT 2bece 10 .cfa: sp 0 +
STACK CFI 2bed0 .cfa: sp 8 + .ra: .cfa -4 + ^ r7: .cfa -8 + ^
STACK CFI 2bed2 .cfa: r7 8 +
STACK CFI INIT 2bee0 1c0 .cfa: sp 0 +
STACK CFI 2bee2 .cfa: sp 20 + .ra: .cfa -4 + ^ r7: .cfa -8 + ^ r6: .cfa -12 + ^ r5: .cfa -16 + ^ r4: .cfa -20 + ^
STACK CFI 2bee4 .cfa: r7 8 +
STACK CFI 2bee8 r8: .cfa -24 + ^
STACK CFI INIT 2c0a0 10 .cfa: sp 0 +
STACK CFI 2c0a2 .cfa: sp 8 + .ra: .cfa -4 + ^ r7: .cfa -8 + ^
STACK CFI 2c0a4 .cfa: r7 8 +
STACK CFI INIT 2c0b0 8 .cfa: sp 0 +
STACK CFI INIT 2c0b8 10 .cfa: sp 0 +
STACK CFI 2c0ba .cfa: sp 8 + .ra: .cfa -4 + ^ r7: .cfa -8 + ^
STACK CFI 2c0bc .cfa: r7 8 +
STACK CFI INIT 2c0c8 14 .cfa: sp 0 +
STACK CFI 2c0ca .cfa: sp 8 + .ra: .cfa -4 + ^ r7: .cfa -8 + ^
STACK CFI 2c0cc .cfa: r7 8 +
STACK CFI INIT 2c0dc 27c .cfa: sp 0 +
STACK CFI 2c0de .cfa: sp 20 + .ra: .cfa -4 + ^ r7: .cfa -8 + ^ r6: .cfa -12 + ^ r5: .cfa -16 + ^ r4: .cfa -20 + ^
STACK CFI 2c0e0 .cfa: r7 8 +
STACK CFI 2c0e4 r11: .cfa -24 + ^ r10: .cfa -28 + ^ r9: .cfa -32 + ^ r8: .cfa -36 + ^
STACK CFI INIT 2c358 8 .cfa: sp 0 +
STACK CFI INIT 2c360 10 .cfa: sp 0 +
STACK CFI 2c362 .cfa: sp 8 + .ra: .cfa -4 + ^ r7: .cfa -8 + ^
STACK CFI 2c364 .cfa: r7 8 +
STACK CFI INIT 2c370 14 .cfa: sp 0 +
STACK CFI 2c372 .cfa: sp 8 + .ra: .cfa -4 + ^ r7: .cfa -8 + ^
STACK CFI 2c374 .cfa: r7 8 +
STACK CFI INIT 2c384 1f0 .cfa: sp 0 +
STACK CFI 2c386 .cfa: sp 20 + .ra: .cfa -4 + ^ r7: .cfa -8 + ^ r6: .cfa -12 + ^ r5: .cfa -16 + ^ r4: .cfa -20 + ^
STACK CFI 2c388 .cfa: r7 8 +
STACK CFI 2c38c r8: .cfa -24 + ^
STACK CFI INIT 2c574 8 .cfa: sp 0 +
STACK CFI INIT 2c57c 10 .cfa: sp 0 +
STACK CFI 2c57e .cfa: sp 8 + .ra: .cfa -4 + ^ r7: .cfa -8 + ^
STACK CFI 2c580 .cfa: r7 8 +
STACK CFI INIT 2c58c 14 .cfa: sp 0 +
STACK CFI 2c58e .cfa: sp 8 + .ra: .cfa -4 + ^ r7: .cfa -8 + ^
STACK CFI 2c590 .cfa: r7 8 +
STACK CFI INIT 0 74 .cfa: sp 0 +
STACK CFI 2 .cfa: sp 16 + .ra: .cfa -4 + ^ r7: .cfa -8 + ^ r5: .cfa -12 + ^ r4: .cfa -16 + ^
STACK CFI 4 .cfa: r7 8 +
STACK CFI INIT 2c5a0 8 .cfa: sp 0 +
STACK CFI INIT 2c5a8 10 .cfa: sp 0 +
STACK CFI 2c5aa .cfa: sp 8 + .ra: .cfa -4 + ^ r7: .cfa -8 + ^
STACK CFI 2c5ac .cfa: r7 8 +
STACK CFI INIT 2c5b8 14 .cfa: sp 0 +
STACK CFI 2c5ba .cfa: sp 8 + .ra: .cfa -4 + ^ r7: .cfa -8 + ^
STACK CFI 2c5bc .cfa: r7 8 +
STACK CFI INIT 2c5cc 11c .cfa: sp 0 +
STACK CFI 2c5ce .cfa: sp 20 + .ra: .cfa -4 + ^ r7: .cfa -8 + ^ r6: .cfa -12 + ^ r5: .cfa -16 + ^ r4: .cfa -20 + ^
STACK CFI 2c5d0 .cfa: r7 8 +
STACK CFI 2c5d4 r11: .cfa -24 + ^ r10: .cfa -28 + ^ r9: .cfa -32 + ^ r8: .cfa -36 + ^
STACK CFI INIT 2c6f0 460 .cfa: sp 0 +
STACK CFI 2c6f2 .cfa: sp 20 + .ra: .cfa -4 + ^ r7: .cfa -8 + ^ r6: .cfa -12 + ^ r5: .cfa -16 + ^ r4: .cfa -20 + ^
STACK CFI 2c6f4 .cfa: r7 8 +
STACK CFI 2c6f8 r11: .cfa -24 + ^ r10: .cfa -28 + ^ r9: .cfa -32 + ^ r8: .cfa -36 + ^
STACK CFI INIT 0 74 .cfa: sp 0 +
STACK CFI 2 .cfa: sp 20 + .ra: .cfa -4 + ^ r7: .cfa -8 + ^ r6: .cfa -12 + ^ r5: .cfa -16 + ^ r4: .cfa -20 + ^
STACK CFI 4 .cfa: r7 8 +
STACK CFI 8 r8: .cfa -24 + ^
STACK CFI INIT 0 70 .cfa: sp 0 +
STACK CFI 2 .cfa: sp 20 + .ra: .cfa -4 + ^ r7: .cfa -8 + ^ r6: .cfa -12 + ^ r5: .cfa -16 + ^ r4: .cfa -20 + ^
STACK CFI 4 .cfa: r7 8 +
STACK CFI 8 r11: .cfa -24 + ^
STACK CFI INIT 0 18 .cfa: sp 0 +
STACK CFI 2 .cfa: sp 8 + .ra: .cfa -4 + ^ r7: .cfa -8 + ^
STACK CFI 4 .cfa: r7 8 +
STACK CFI INIT 2cb50 11c .cfa: sp 0 +
STACK CFI 2cb52 .cfa: sp 20 + .ra: .cfa -4 + ^ r7: .cfa -8 + ^ r6: .cfa -12 + ^ r5: .cfa -16 + ^ r4: .cfa -20 + ^
STACK CFI 2cb54 .cfa: r7 8 +
STACK CFI 2cb58 r11: .cfa -24 + ^ r10: .cfa -28 + ^ r9: .cfa -32 + ^ r8: .cfa -36 + ^
STACK CFI INIT 2cc70 350 .cfa: sp 0 +
STACK CFI 2cc72 .cfa: sp 20 + .ra: .cfa -4 + ^ r7: .cfa -8 + ^ r6: .cfa -12 + ^ r5: .cfa -16 + ^ r4: .cfa -20 + ^
STACK CFI 2cc74 .cfa: r7 8 +
STACK CFI 2cc78 r11: .cfa -24 + ^ r10: .cfa -28 + ^ r9: .cfa -32 + ^ r8: .cfa -36 + ^
STACK CFI INIT 2cfc0 79c .cfa: sp 0 +
STACK CFI 2cfc2 .cfa: sp 20 + .ra: .cfa -4 + ^ r7: .cfa -8 + ^ r6: .cfa -12 + ^ r5: .cfa -16 + ^ r4: .cfa -20 + ^
STACK CFI 2cfc4 .cfa: r7 8 +
STACK CFI 2cfc8 r11: .cfa -24 + ^ r10: .cfa -28 + ^ r9: .cfa -32 + ^ r8: .cfa -36 + ^
STACK CFI INIT 2d75c 606 .cfa: sp 0 +
STACK CFI 2d75e .cfa: sp 20 + .ra: .cfa -4 + ^ r7: .cfa -8 + ^ r6: .cfa -12 + ^ r5: .cfa -16 + ^ r4: .cfa -20 + ^
STACK CFI 2d760 .cfa: r7 8 +
STACK CFI 2d764 r11: .cfa -24 + ^ r10: .cfa -28 + ^ r9: .cfa -32 + ^ r8: .cfa -36 + ^
STACK CFI INIT 2dd62 8 .cfa: sp 0 +
STACK CFI INIT 2dd6a 10 .cfa: sp 0 +
STACK CFI 2dd6c .cfa: sp 8 + .ra: .cfa -4 + ^ r7: .cfa -8 + ^
STACK CFI 2dd6e .cfa: r7 8 +
STACK CFI INIT 2dd7a 14 .cfa: sp 0 +
STACK CFI 2dd7c .cfa: sp 8 + .ra: .cfa -4 + ^ r7: .cfa -8 + ^
STACK CFI 2dd7e .cfa: r7 8 +
STACK CFI INIT 2dd90 f0 .cfa: sp 0 +
STACK CFI 2dd92 .cfa: sp 20 + .ra: .cfa -4 + ^ r7: .cfa -8 + ^ r6: .cfa -12 + ^ r5: .cfa -16 + ^ r4: .cfa -20 + ^
STACK CFI 2dd94 .cfa: r7 8 +
STACK CFI 2dd98 r11: .cfa -24 + ^ r10: .cfa -28 + ^ r9: .cfa -32 + ^ r8: .cfa -36 + ^
STACK CFI INIT 2de80 470 .cfa: sp 0 +
STACK CFI 2de82 .cfa: sp 20 + .ra: .cfa -4 + ^ r7: .cfa -8 + ^ r6: .cfa -12 + ^ r5: .cfa -16 + ^ r4: .cfa -20 + ^
STACK CFI 2de84 .cfa: r7 8 +
STACK CFI 2de88 r11: .cfa -24 + ^ r10: .cfa -28 + ^ r9: .cfa -32 + ^ r8: .cfa -36 + ^
STACK CFI INIT 2e2f0 18 .cfa: sp 0 +
STACK CFI 2e2f2 .cfa: sp 8 + .ra: .cfa -4 + ^ r7: .cfa -8 + ^
STACK CFI 2e2f4 .cfa: r7 8 +
STACK CFI INIT 2e308 fc .cfa: sp 0 +
STACK CFI 2e30a .cfa: sp 20 + .ra: .cfa -4 + ^ r7: .cfa -8 + ^ r6: .cfa -12 + ^ r5: .cfa -16 + ^ r4: .cfa -20 + ^
STACK CFI 2e30c .cfa: r7 8 +
STACK CFI 2e310 r10: .cfa -24 + ^ r9: .cfa -28 + ^ r8: .cfa -32 + ^
STACK CFI INIT 2e410 570 .cfa: sp 0 +
STACK CFI 2e412 .cfa: sp 20 + .ra: .cfa -4 + ^ r7: .cfa -8 + ^ r6: .cfa -12 + ^ r5: .cfa -16 + ^ r4: .cfa -20 + ^
STACK CFI 2e414 .cfa: r7 8 +
STACK CFI 2e418 r11: .cfa -24 + ^ r10: .cfa -28 + ^ r9: .cfa -32 + ^ r8: .cfa -36 + ^
STACK CFI INIT 2e980 24 .cfa: sp 0 +
STACK CFI 2e982 .cfa: sp 8 + .ra: .cfa -4 + ^ r7: .cfa -8 + ^
STACK CFI 2e984 .cfa: r7 8 +
STACK CFI INIT 2e9a4 ec .cfa: sp 0 +
STACK CFI 2e9a6 .cfa: sp 20 + .ra: .cfa -4 + ^ r7: .cfa -8 + ^ r6: .cfa -12 + ^ r5: .cfa -16 + ^ r4: .cfa -20 + ^
STACK CFI 2e9a8 .cfa: r7 8 +
STACK CFI 2e9ac r11: .cfa -24 + ^ r10: .cfa -28 + ^ r9: .cfa -32 + ^ r8: .cfa -36 + ^
STACK CFI INIT 2ea90 260 .cfa: sp 0 +
STACK CFI 2ea92 .cfa: sp 20 + .ra: .cfa -4 + ^ r7: .cfa -8 + ^ r6: .cfa -12 + ^ r5: .cfa -16 + ^ r4: .cfa -20 + ^
STACK CFI 2ea94 .cfa: r7 8 +
STACK CFI 2ea98 r11: .cfa -24 + ^ r10: .cfa -28 + ^ r9: .cfa -32 + ^ r8: .cfa -36 + ^
STACK CFI INIT 2ecf0 10 .cfa: sp 0 +
STACK CFI INIT 2ed00 e8 .cfa: sp 0 +
STACK CFI 2ed02 .cfa: sp 20 + .ra: .cfa -4 + ^ r7: .cfa -8 + ^ r6: .cfa -12 + ^ r5: .cfa -16 + ^ r4: .cfa -20 + ^
STACK CFI 2ed04 .cfa: r7 8 +
STACK CFI 2ed08 r10: .cfa -24 + ^ r9: .cfa -28 + ^ r8: .cfa -32 + ^
STACK CFI INIT 2edf0 b0 .cfa: sp 0 +
STACK CFI 2edf2 .cfa: sp 20 + .ra: .cfa -4 + ^ r7: .cfa -8 + ^ r6: .cfa -12 + ^ r5: .cfa -16 + ^ r4: .cfa -20 + ^
STACK CFI 2edf4 .cfa: r7 8 +
STACK CFI 2edf8 r8: .cfa -24 + ^
STACK CFI INIT 2eea0 2 .cfa: sp 0 +
STACK CFI INIT 2eea2 4 .cfa: sp 0 +
STACK CFI INIT 2eea6 8 .cfa: sp 0 +
STACK CFI INIT 2eeae 2 .cfa: sp 0 +
STACK CFI INIT 2eeb0 ec .cfa: sp 0 +
STACK CFI 2eeb2 .cfa: sp 20 + .ra: .cfa -4 + ^ r7: .cfa -8 + ^ r6: .cfa -12 + ^ r5: .cfa -16 + ^ r4: .cfa -20 + ^
STACK CFI 2eeb4 .cfa: r7 8 +
STACK CFI 2eeb8 r11: .cfa -24 + ^ r10: .cfa -28 + ^ r9: .cfa -32 + ^ r8: .cfa -36 + ^
STACK CFI INIT 2efa0 360 .cfa: sp 0 +
STACK CFI 2efa2 .cfa: sp 20 + .ra: .cfa -4 + ^ r7: .cfa -8 + ^ r6: .cfa -12 + ^ r5: .cfa -16 + ^ r4: .cfa -20 + ^
STACK CFI 2efa4 .cfa: r7 8 +
STACK CFI 2efa8 r11: .cfa -24 + ^ r10: .cfa -28 + ^ r9: .cfa -32 + ^ r8: .cfa -36 + ^
STACK CFI INIT 2f300 fc .cfa: sp 0 +
STACK CFI 2f302 .cfa: sp 20 + .ra: .cfa -4 + ^ r7: .cfa -8 + ^ r6: .cfa -12 + ^ r5: .cfa -16 + ^ r4: .cfa -20 + ^
STACK CFI 2f304 .cfa: r7 8 +
STACK CFI 2f308 r11: .cfa -24 + ^ r10: .cfa -28 + ^ r9: .cfa -32 + ^ r8: .cfa -36 + ^
STACK CFI INIT 2f400 570 .cfa: sp 0 +
STACK CFI 2f402 .cfa: sp 20 + .ra: .cfa -4 + ^ r7: .cfa -8 + ^ r6: .cfa -12 + ^ r5: .cfa -16 + ^ r4: .cfa -20 + ^
STACK CFI 2f404 .cfa: r7 8 +
STACK CFI 2f408 r11: .cfa -24 + ^ r10: .cfa -28 + ^ r9: .cfa -32 + ^ r8: .cfa -36 + ^
STACK CFI INIT 2f970 e8 .cfa: sp 0 +
STACK CFI 2f972 .cfa: sp 20 + .ra: .cfa -4 + ^ r7: .cfa -8 + ^ r6: .cfa -12 + ^ r5: .cfa -16 + ^ r4: .cfa -20 + ^
STACK CFI 2f974 .cfa: r7 8 +
STACK CFI 2f978 r10: .cfa -24 + ^ r9: .cfa -28 + ^ r8: .cfa -32 + ^
STACK CFI INIT 2fa60 b0 .cfa: sp 0 +
STACK CFI 2fa62 .cfa: sp 20 + .ra: .cfa -4 + ^ r7: .cfa -8 + ^ r6: .cfa -12 + ^ r5: .cfa -16 + ^ r4: .cfa -20 + ^
STACK CFI 2fa64 .cfa: r7 8 +
STACK CFI 2fa68 r8: .cfa -24 + ^
STACK CFI INIT 2fb10 2f0 .cfa: sp 0 +
STACK CFI 2fb12 .cfa: sp 20 + .ra: .cfa -4 + ^ r7: .cfa -8 + ^ r6: .cfa -12 + ^ r5: .cfa -16 + ^ r4: .cfa -20 + ^
STACK CFI 2fb14 .cfa: r7 8 +
STACK CFI 2fb18 r11: .cfa -24 + ^ r10: .cfa -28 + ^ r9: .cfa -32 + ^ r8: .cfa -36 + ^
STACK CFI INIT 2fe00 8 .cfa: sp 0 +
STACK CFI INIT 2fe08 10 .cfa: sp 0 +
STACK CFI 2fe0a .cfa: sp 8 + .ra: .cfa -4 + ^ r7: .cfa -8 + ^
STACK CFI 2fe0c .cfa: r7 8 +
STACK CFI INIT 2fe18 14 .cfa: sp 0 +
STACK CFI 2fe1a .cfa: sp 8 + .ra: .cfa -4 + ^ r7: .cfa -8 + ^
STACK CFI 2fe1c .cfa: r7 8 +
STACK CFI INIT 0 e .cfa: sp 0 +
STACK CFI 2 .cfa: sp 8 + .ra: .cfa -4 + ^ r7: .cfa -8 + ^
STACK CFI 4 .cfa: r7 8 +
STACK CFI INIT 2fe2c e8 .cfa: sp 0 +
STACK CFI 2fe2e .cfa: sp 20 + .ra: .cfa -4 + ^ r7: .cfa -8 + ^ r6: .cfa -12 + ^ r5: .cfa -16 + ^ r4: .cfa -20 + ^
STACK CFI 2fe30 .cfa: r7 8 +
STACK CFI 2fe34 r10: .cfa -24 + ^ r9: .cfa -28 + ^ r8: .cfa -32 + ^
STACK CFI INIT 2ff20 b0 .cfa: sp 0 +
STACK CFI 2ff22 .cfa: sp 20 + .ra: .cfa -4 + ^ r7: .cfa -8 + ^ r6: .cfa -12 + ^ r5: .cfa -16 + ^ r4: .cfa -20 + ^
STACK CFI 2ff24 .cfa: r7 8 +
STACK CFI 2ff28 r8: .cfa -24 + ^
STACK CFI INIT 2ffd0 2 .cfa: sp 0 +
STACK CFI INIT 2ffd4 294 .cfa: sp 0 +
STACK CFI 2ffd6 .cfa: sp 20 + .ra: .cfa -4 + ^ r7: .cfa -8 + ^ r6: .cfa -12 + ^ r5: .cfa -16 + ^ r4: .cfa -20 + ^
STACK CFI 2ffd8 .cfa: r7 8 +
STACK CFI 2ffdc r11: .cfa -24 + ^ r10: .cfa -28 + ^ r9: .cfa -32 + ^ r8: .cfa -36 + ^
STACK CFI INIT 30268 294 .cfa: sp 0 +
STACK CFI 3026a .cfa: sp 20 + .ra: .cfa -4 + ^ r7: .cfa -8 + ^ r6: .cfa -12 + ^ r5: .cfa -16 + ^ r4: .cfa -20 + ^
STACK CFI 3026c .cfa: r7 8 +
STACK CFI 30270 r11: .cfa -24 + ^ r10: .cfa -28 + ^ r9: .cfa -32 + ^ r8: .cfa -36 + ^
STACK CFI INIT 304fc 22c .cfa: sp 0 +
STACK CFI 304fe .cfa: sp 20 + .ra: .cfa -4 + ^ r7: .cfa -8 + ^ r6: .cfa -12 + ^ r5: .cfa -16 + ^ r4: .cfa -20 + ^
STACK CFI 30500 .cfa: r7 8 +
STACK CFI 30504 r11: .cfa -24 + ^ r10: .cfa -28 + ^ r9: .cfa -32 + ^ r8: .cfa -36 + ^
STACK CFI INIT 30728 274 .cfa: sp 0 +
STACK CFI 3072a .cfa: sp 20 + .ra: .cfa -4 + ^ r7: .cfa -8 + ^ r6: .cfa -12 + ^ r5: .cfa -16 + ^ r4: .cfa -20 + ^
STACK CFI 3072c .cfa: r7 8 +
STACK CFI 30730 r11: .cfa -24 + ^ r10: .cfa -28 + ^ r9: .cfa -32 + ^ r8: .cfa -36 + ^
STACK CFI INIT 3099c 42c .cfa: sp 0 +
STACK CFI 3099e .cfa: sp 20 + .ra: .cfa -4 + ^ r7: .cfa -8 + ^ r6: .cfa -12 + ^ r5: .cfa -16 + ^ r4: .cfa -20 + ^
STACK CFI 309a0 .cfa: r7 8 +
STACK CFI 309a4 r11: .cfa -24 + ^ r10: .cfa -28 + ^ r9: .cfa -32 + ^ r8: .cfa -36 + ^
STACK CFI INIT 30dc8 f8 .cfa: sp 0 +
STACK CFI 30dca .cfa: sp 20 + .ra: .cfa -4 + ^ r7: .cfa -8 + ^ r6: .cfa -12 + ^ r5: .cfa -16 + ^ r4: .cfa -20 + ^
STACK CFI 30dcc .cfa: r7 8 +
STACK CFI 30dd0 r8: .cfa -24 + ^
STACK CFI INIT 30ec0 2 .cfa: sp 0 +
STACK CFI INIT 30ec2 e .cfa: sp 0 +
STACK CFI INIT 30ed0 3ea .cfa: sp 0 +
STACK CFI 30ed2 .cfa: sp 20 + .ra: .cfa -4 + ^ r7: .cfa -8 + ^ r6: .cfa -12 + ^ r5: .cfa -16 + ^ r4: .cfa -20 + ^
STACK CFI 30ed4 .cfa: r7 8 +
STACK CFI 30ed8 r11: .cfa -24 + ^ r10: .cfa -28 + ^ r9: .cfa -32 + ^ r8: .cfa -36 + ^
