MODULE Linux arm64 A058897B7BB527439C457C8ED3B765E30 hjfod.backups.android64.so
INFO CODE_ID 7B8958A0B57B43279C457C8ED3B765E36081420A
INFO GENERATOR mozilla/dump_syms 2.3.4
PUBLIC 20110 0 __on_dlclose
PUBLIC 20120 0 __emutls_unregister_key
PUBLIC 20128 0 __on_dlclose_late
PUBLIC 20130 0 __atexit_handler_wrapper
PUBLIC 20144 0 atexit
PUBLIC 20160 0 pthread_atfork
PUBLIC 20170 0 __aarch64_ldadd8_relax
PUBLIC 201a0 0 init_have_lse_atomics
PUBLIC 20238 0 __init_cpu_features_constructor
PUBLIC 207d4 0 __init_cpu_features
PUBLIC 20860 0 __aarch64_ldadd8_acq_rel
PUBLIC 20890 0 __divti3
PUBLIC 208e8 0 __udivmodti4
PUBLIC 20b34 0 __cxx_global_var_init
PUBLIC 20f90 0 __cxx_global_var_init.1
PUBLIC 213ec 0 __cxx_global_var_init.2
PUBLIC 21848 0 geode::modifier::ModifyBase<geode::modifier::ModifyDerive<hook104<(anonymous namespace)::hook104Parent>, AppDelegate> >::~ModifyBase()
PUBLIC 21860 0 geode::modifier::ModifyBase<geode::modifier::ModifyDerive<hook640<(anonymous namespace)::hook640Parent>, MenuLayer> >::~ModifyBase()
PUBLIC 21878 0 geode::modifier::ModifyBase<geode::modifier::ModifyDerive<hook684<(anonymous namespace)::hook684Parent>, OptionsLayer> >::~ModifyBase()
PUBLIC 21890 0 __cxx_global_var_init.3
PUBLIC 21d14 0 geode::modifier::ModifyBase<geode::modifier::ModifyDerive<MyAccountLayer, AccountLayer> >::~ModifyBase()
PUBLIC 21d2c 0 geode::modifier::ModifyDerive<hook104<(anonymous namespace)::hook104Parent>, AppDelegate>::apply()
PUBLIC 22090 0 std::__ndk1::shared_ptr<geode::Hook>::~shared_ptr[abi:ne180000]()
PUBLIC 220e0 0 geode::impl::ResultData<geode::Hook*, std::__ndk1::basic_string<char, std::__ndk1::char_traits<char>, std::__ndk1::allocator<char> > >::~ResultData()
PUBLIC 22154 0 std::__ndk1::vector<std::__ndk1::basic_string<char, std::__ndk1::char_traits<char>, std::__ndk1::allocator<char> >, std::__ndk1::allocator<std::__ndk1::basic_string<char, std::__ndk1::char_traits<char>, std::__ndk1::allocator<char> > > >::~vector[abi:ne180000]()
PUBLIC 221d0 0 geode::modifier::ModifyBase<geode::modifier::ModifyDerive<hook104<(anonymous namespace)::hook104Parent>, AppDelegate> >::apply()
PUBLIC 221d4 0 __clang_call_terminate
PUBLIC 221e4 0 _ZN5geode15UnwrapExceptionC2IRPNS_4HookEQsr4implE18IsStringStreamableIT_EEENS_4impl5OkTagEOS5_
PUBLIC 22338 0 std::__ndk1::__throw_bad_variant_access[abi:ne180000]()
PUBLIC 2236c 0 std::__ndk1::basic_stringstream<char, std::__ndk1::char_traits<char>, std::__ndk1::allocator<char> >::basic_stringstream[abi:ne180000]()
PUBLIC m 22498 0 std::__ndk1::basic_stringstream<char, std::__ndk1::char_traits<char>, std::__ndk1::allocator<char> >::~basic_stringstream()
PUBLIC 22518 0 geode::UnwrapException::~UnwrapException()
PUBLIC 2253c 0 std::__ndk1::__put_character_sequence[abi:ne180000]<char, std::__ndk1::char_traits<char> >(std::__ndk1::basic_ostream<char, std::__ndk1::char_traits<char> >, std::__ndk1::basic_ostream const*, unsigned long)
PUBLIC 226e0 0 std::__ndk1::__pad_and_output[abi:ne180000]<char, std::__ndk1::char_traits<char> >(std::__ndk1::char_traits<char>, std::__ndk1::ostreambuf_iterator const*, std::__ndk1::ostreambuf_iterator const, std::__ndk1::ostreambuf_iterator const, std::__ndk1::ios_base&, std::__ndk1::ostreambuf_iterator)
PUBLIC 228bc 0 std::__ndk1::basic_string<char, std::__ndk1::char_traits<char>, std::__ndk1::allocator<char> >::__throw_length_error[abi:ne180000]() const
PUBLIC 228d0 0 std::__ndk1::__throw_length_error[abi:ne180000](char const*)
PUBLIC 22920 0 std::length_error::length_error[abi:ne180000](char const*)
PUBLIC 22950 0 std::__throw_bad_array_new_length([abi:ne180000], void)
PUBLIC 22984 0 std::__ndk1::basic_stringbuf<char, std::__ndk1::char_traits<char>, std::__ndk1::allocator<char> >::str[abi:ne180000]() &&
PUBLIC 22afc 0 std::__ndk1::basic_stringbuf<char, std::__ndk1::char_traits<char>, std::__ndk1::allocator<char> >::__init_buf_ptrs[abi:ne180000]()
PUBLIC 22c44 0 std::__ndk1::vector<std::__ndk1::basic_string<char, std::__ndk1::char_traits<char>, std::__ndk1::allocator<char> >, std::__ndk1::allocator<std::__ndk1::basic_string<char, std::__ndk1::char_traits<char>, std::__ndk1::allocator<char> > > >::__push_back_slow_path<std::__ndk1::basic_string<char, std::__ndk1::char_traits<char>, std::__ndk1::allocator<char> > const&>(std::__ndk1::basic_string<char, std::__ndk1::char_traits<char>, std::__ndk1::allocator<char> > const&)
PUBLIC 22e68 0 std::__ndk1::basic_string<char, std::__ndk1::char_traits<char>, std::__ndk1::allocator<char> >::__init_copy_ctor_external(char const*, unsigned long)
PUBLIC 22ee8 0 std::__ndk1::__split_buffer<std::__ndk1::basic_string<char, std::__ndk1::char_traits<char>, std::__ndk1::allocator<char> >, std::__ndk1::allocator<std::__ndk1::basic_string<char, std::__ndk1::char_traits<char>, std::__ndk1::allocator<char> > >&>::~__split_buffer()
PUBLIC 22f50 0 std::__ndk1::vector<std::__ndk1::basic_string<char, std::__ndk1::char_traits<char>, std::__ndk1::allocator<char> >, std::__ndk1::allocator<std::__ndk1::basic_string<char, std::__ndk1::char_traits<char>, std::__ndk1::allocator<char> > > >::__throw_length_error[abi:ne180000]() const
PUBLIC 22f64 0 std::__ndk1::__variant_detail::__visitation::__base::__dispatcher<(unsigned long)0>::__dispatch[abi:ne180000]<std::__ndk1::__variant_detail::__dtor<std::__ndk1::__variant_detail::__traits<geode::Hook*, std::__ndk1::basic_string<char, std::__ndk1::char_traits<char>, std::__ndk1::allocator<char> > >, (std::__ndk1::__variant_detail::_Trait)1>::__destroy[abi:ne180000]()::{lambda(auto:1&)#1}, std::__ndk1::__variant_detail::__base<(std::__ndk1::__variant_detail::__traits<geode::Hook*, std::__ndk1::basic_string<char, std::__ndk1::char_traits<char>, std::__ndk1::allocator<char> > >)1, geode::Hook, std::__ndk1::allocator<char> >&>(std::__ndk1::__variant_detail::__dtor<std::__ndk1::__variant_detail::__traits<geode::Hook*, std::__ndk1::basic_string<char, std::__ndk1::char_traits<char>, std::__ndk1::allocator<char> > >, (std::__ndk1::__variant_detail::_Trait)1>, std::__ndk1::__variant_detail::__base<(std::__ndk1::__variant_detail::__traits<geode::Hook*, std::__ndk1::basic_string<char, std::__ndk1::char_traits<char>, std::__ndk1::allocator<char> > >)1, geode::Hook, std::__ndk1::allocator<char> >&)
PUBLIC 22f68 0 std::__ndk1::__variant_detail::__visitation::__base::__dispatcher<(unsigned long)1>::__dispatch[abi:ne180000]<std::__ndk1::__variant_detail::__dtor<std::__ndk1::__variant_detail::__traits<geode::Hook*, std::__ndk1::basic_string<char, std::__ndk1::char_traits<char>, std::__ndk1::allocator<char> > >, (std::__ndk1::__variant_detail::_Trait)1>::__destroy[abi:ne180000]()::{lambda(auto:1&)#1}, std::__ndk1::__variant_detail::__base<(std::__ndk1::__variant_detail::__traits<geode::Hook*, std::__ndk1::basic_string<char, std::__ndk1::char_traits<char>, std::__ndk1::allocator<char> > >)1, geode::Hook, std::__ndk1::allocator<char> >&>(std::__ndk1::__variant_detail::__dtor<std::__ndk1::__variant_detail::__traits<geode::Hook*, std::__ndk1::basic_string<char, std::__ndk1::char_traits<char>, std::__ndk1::allocator<char> > >, (std::__ndk1::__variant_detail::_Trait)1>, std::__ndk1::__variant_detail::__base<(std::__ndk1::__variant_detail::__traits<geode::Hook*, std::__ndk1::basic_string<char, std::__ndk1::char_traits<char>, std::__ndk1::allocator<char> > >)1, geode::Hook, std::__ndk1::allocator<char> >&)
PUBLIC 22f7c 0 std::__ndk1::__tree<std::__ndk1::__value_type<std::__ndk1::basic_string<char, std::__ndk1::char_traits<char>, std::__ndk1::allocator<char> >, std::__ndk1::shared_ptr<geode::Hook> >, std::__ndk1::__map_value_compare<std::__ndk1::basic_string<char, std::__ndk1::char_traits<char>, std::__ndk1::allocator<char> >, std::__ndk1::__value_type<std::__ndk1::basic_string<char, std::__ndk1::char_traits<char>, std::__ndk1::allocator<char> >, std::__ndk1::shared_ptr<geode::Hook> >, std::__ndk1::less<std::__ndk1::basic_string<char, std::__ndk1::char_traits<char>, std::__ndk1::allocator<char> > >, true>, std::__ndk1::allocator<std::__ndk1::__value_type<std::__ndk1::basic_string<char, std::__ndk1::char_traits<char>, std::__ndk1::allocator<char> >, std::__ndk1::shared_ptr<geode::Hook> > > >::find<std::__ndk1::basic_string<char, std::__ndk1::char_traits<char>, std::__ndk1::allocator<char> > >(std::__ndk1::basic_string<char, std::__ndk1::char_traits<char>, std::__ndk1::allocator<char> > const&)
PUBLIC 2309c 0 std::__ndk1::__tree<std::__ndk1::__value_type<std::__ndk1::basic_string<char, std::__ndk1::char_traits<char>, std::__ndk1::allocator<char> >, std::__ndk1::shared_ptr<geode::Hook> >, std::__ndk1::__map_value_compare<std::__ndk1::basic_string<char, std::__ndk1::char_traits<char>, std::__ndk1::allocator<char> >, std::__ndk1::__value_type<std::__ndk1::basic_string<char, std::__ndk1::char_traits<char>, std::__ndk1::allocator<char> >, std::__ndk1::shared_ptr<geode::Hook> >, std::__ndk1::less<std::__ndk1::basic_string<char, std::__ndk1::char_traits<char>, std::__ndk1::allocator<char> > >, true>, std::__ndk1::allocator<std::__ndk1::__value_type<std::__ndk1::basic_string<char, std::__ndk1::char_traits<char>, std::__ndk1::allocator<char> >, std::__ndk1::shared_ptr<geode::Hook> > > >::erase(std::__ndk1::__tree_const_iterator<std::__ndk1::__value_type<std::__ndk1::basic_string<char, std::__ndk1::char_traits<char>, std::__ndk1::allocator<char> >, std::__ndk1::shared_ptr<geode::Hook> >, std::__ndk1::__tree_node<std::__ndk1::__value_type<std::__ndk1::basic_string<char, std::__ndk1::char_traits<char>, std::__ndk1::allocator<char> >, std::__ndk1::shared_ptr<geode::Hook> >, void*>*, long>)
PUBLIC 23540 0 std::__ndk1::__tree<std::__ndk1::__value_type<std::__ndk1::basic_string<char, std::__ndk1::char_traits<char>, std::__ndk1::allocator<char> >, std::__ndk1::shared_ptr<geode::Hook> >, std::__ndk1::__map_value_compare<std::__ndk1::basic_string<char, std::__ndk1::char_traits<char>, std::__ndk1::allocator<char> >, std::__ndk1::__value_type<std::__ndk1::basic_string<char, std::__ndk1::char_traits<char>, std::__ndk1::allocator<char> >, std::__ndk1::shared_ptr<geode::Hook> >, std::__ndk1::less<std::__ndk1::basic_string<char, std::__ndk1::char_traits<char>, std::__ndk1::allocator<char> > >, true>, std::__ndk1::allocator<std::__ndk1::__value_type<std::__ndk1::basic_string<char, std::__ndk1::char_traits<char>, std::__ndk1::allocator<char> >, std::__ndk1::shared_ptr<geode::Hook> > > >::destroy(std::__ndk1::__tree_node<std::__ndk1::__value_type<std::__ndk1::basic_string<char, std::__ndk1::char_traits<char>, std::__ndk1::allocator<char> >, std::__ndk1::shared_ptr<geode::Hook> >, void*>*)
PUBLIC 235c4 0 geode::modifier::AsStaticFunction_trySaveGame<hook104<(anonymous namespace)::hook104Parent>, void (hook104<(anonymous namespace)::hook104Parent>::*)(bool)>::Impl<void (hook104<(anonymous namespace)::hook104Parent>::*)(bool)>::function(hook104<(anonymous namespace)::hook104Parent>*, bool)
PUBLIC 235dc 0 geode::addresser::Addresser::addressOfVirtual<void, AppDelegate, bool>(void (AppDelegate::*)(bool))
PUBLIC 2369c 0 std::__ndk1::shared_ptr<tulip::hook::CallingConvention>::~shared_ptr[abi:ne180000]()
PUBLIC 236ec 0 tulip::hook::HandlerMetadata::~HandlerMetadata()
PUBLIC 23750 0 std::__ndk1::__tree<std::__ndk1::__value_type<std::__ndk1::basic_string<char, std::__ndk1::char_traits<char>, std::__ndk1::allocator<char> >, std::__ndk1::shared_ptr<geode::Hook> >, std::__ndk1::__map_value_compare<std::__ndk1::basic_string<char, std::__ndk1::char_traits<char>, std::__ndk1::allocator<char> >, std::__ndk1::__value_type<std::__ndk1::basic_string<char, std::__ndk1::char_traits<char>, std::__ndk1::allocator<char> >, std::__ndk1::shared_ptr<geode::Hook> >, std::__ndk1::less<std::__ndk1::basic_string<char, std::__ndk1::char_traits<char>, std::__ndk1::allocator<char> > >, true>, std::__ndk1::allocator<std::__ndk1::__value_type<std::__ndk1::basic_string<char, std::__ndk1::char_traits<char>, std::__ndk1::allocator<char> >, std::__ndk1::shared_ptr<geode::Hook> > > >::__emplace_unique_key_args<std::__ndk1::basic_string<char, std::__ndk1::char_traits<char>, std::__ndk1::allocator<char> >, std::__ndk1::piecewise_construct_t const&, std::__ndk1::tuple<std::__ndk1::basic_string<char, std::__ndk1::char_traits<char>, std::__ndk1::allocator<char> >&&>, std::__ndk1::tuple<> >(std::__ndk1::basic_string<char, std::__ndk1::char_traits<char>, std::__ndk1::allocator<char> > const&, std::__ndk1::piecewise_construct_t const&, std::__ndk1::tuple<std::__ndk1::basic_string<char, std::__ndk1::char_traits<char>, std::__ndk1::allocator<char> >&&>, std::__ndk1::tuple<>)
PUBLIC 238b8 0 std::__ndk1::__tree_balance_after_insert[abi:ne180000]<std::__ndk1::__tree_node_base<void*>*>(std::__ndk1::__tree_node_base<void*>*, std::__ndk1::__tree_node_base<void*>*)
PUBLIC 23a68 0 geode::modifier::ModifyDerive<hook640<(anonymous namespace)::hook640Parent>, MenuLayer>::apply()
PUBLIC 23d5c 0 geode::modifier::ModifyBase<geode::modifier::ModifyDerive<hook640<(anonymous namespace)::hook640Parent>, MenuLayer> >::apply()
PUBLIC 23d60 0 geode::modifier::AsStaticFunction_init<hook640<(anonymous namespace)::hook640Parent>, bool (hook640<(anonymous namespace)::hook640Parent>::*)()>::Impl<bool (hook640<(anonymous namespace)::hook640Parent>::*)()>::function(hook640<(anonymous namespace)::hook640Parent>*)
PUBLIC 245fc 0 geode::addresser::Addresser::addressOfVirtual<bool, MenuLayer, >(bool (MenuLayer::*)())
PUBLIC 246a4 0 MenuLayer::MenuLayer(geode::ZeroConstructorType)
PUBLIC 24740 0 cocos2d::CCCopying::copyWithZone(cocos2d::CCZone*)
PUBLIC 24748 0 cocos2d::CCKeyboardDelegate::keyUp(cocos2d::enumKeyCodes)
PUBLIC 2474c 0 cocos2d::CCMouseDelegate::rightKeyDown()
PUBLIC 24750 0 cocos2d::CCMouseDelegate::rightKeyUp()
PUBLIC 24754 0 cocos2d::CCMouseDelegate::scrollWheel(float, float)
PUBLIC 24758 0 Backup::get(std::__ndk1::__fs::filesystem::path const&)
PUBLIC 258d8 0 Backup::create(std::__ndk1::__fs::filesystem::path const&)
PUBLIC 265b8 0 geode::impl::ResultData<void, std::__ndk1::basic_string<char, std::__ndk1::char_traits<char>, std::__ndk1::allocator<char> > >::~ResultData()
PUBLIC 2662c 0 std::__ndk1::vector<geode::Ref<Backup>, std::__ndk1::allocator<geode::Ref<Backup> > >::~vector[abi:ne180000]()
PUBLIC 266b0 0 geode::Mod::getSavedValue<bool>(std::__ndk1::basic_string_view<char, std::__ndk1::char_traits<char> >)
PUBLIC 26840 0 geode::impl::ResultData<matjson::Value&, std::__ndk1::basic_string<char, std::__ndk1::char_traits<char>, std::__ndk1::allocator<char> > >::~ResultData()
PUBLIC 268b4 0 _ZN5geode15UnwrapExceptionC2IRNSt6__ndk112basic_stringIcNS2_11char_traitsIcEENS2_9allocatorIcEEEEQsr4implE18IsStringStreamableIT_EEENS_4impl6ErrTagEOSA_
PUBLIC 26a1c 0 std::__ndk1::__variant_detail::__visitation::__base::__dispatcher<(unsigned long)0>::__dispatch[abi:ne180000]<std::__ndk1::__variant_detail::__dtor<std::__ndk1::__variant_detail::__traits<std::__ndk1::reference_wrapper<matjson::Value>, std::__ndk1::basic_string<char, std::__ndk1::char_traits<char>, std::__ndk1::allocator<char> > >, (std::__ndk1::__variant_detail::_Trait)1>::__destroy[abi:ne180000]()::{lambda(auto:1&)#1}, std::__ndk1::__variant_detail::__base<(std::__ndk1::__variant_detail::__traits<std::__ndk1::reference_wrapper<matjson::Value>, std::__ndk1::basic_string<char, std::__ndk1::char_traits<char>, std::__ndk1::allocator<char> > >)1, matjson::Value, std::__ndk1::allocator<char> >&>(std::__ndk1::__variant_detail::__dtor<std::__ndk1::__variant_detail::__traits<std::__ndk1::reference_wrapper<matjson::Value>, std::__ndk1::basic_string<char, std::__ndk1::char_traits<char>, std::__ndk1::allocator<char> > >, (std::__ndk1::__variant_detail::_Trait)1>, std::__ndk1::__variant_detail::__base<(std::__ndk1::__variant_detail::__traits<std::__ndk1::reference_wrapper<matjson::Value>, std::__ndk1::basic_string<char, std::__ndk1::char_traits<char>, std::__ndk1::allocator<char> > >)1, matjson::Value, std::__ndk1::allocator<char> >&)
PUBLIC 26a20 0 std::__ndk1::__variant_detail::__visitation::__base::__dispatcher<(unsigned long)1>::__dispatch[abi:ne180000]<std::__ndk1::__variant_detail::__dtor<std::__ndk1::__variant_detail::__traits<std::__ndk1::reference_wrapper<matjson::Value>, std::__ndk1::basic_string<char, std::__ndk1::char_traits<char>, std::__ndk1::allocator<char> > >, (std::__ndk1::__variant_detail::_Trait)1>::__destroy[abi:ne180000]()::{lambda(auto:1&)#1}, std::__ndk1::__variant_detail::__base<(std::__ndk1::__variant_detail::__traits<std::__ndk1::reference_wrapper<matjson::Value>, std::__ndk1::basic_string<char, std::__ndk1::char_traits<char>, std::__ndk1::allocator<char> > >)1, matjson::Value, std::__ndk1::allocator<char> >&>(std::__ndk1::__variant_detail::__dtor<std::__ndk1::__variant_detail::__traits<std::__ndk1::reference_wrapper<matjson::Value>, std::__ndk1::basic_string<char, std::__ndk1::char_traits<char>, std::__ndk1::allocator<char> > >, (std::__ndk1::__variant_detail::_Trait)1>, std::__ndk1::__variant_detail::__base<(std::__ndk1::__variant_detail::__traits<std::__ndk1::reference_wrapper<matjson::Value>, std::__ndk1::basic_string<char, std::__ndk1::char_traits<char>, std::__ndk1::allocator<char> > >)1, matjson::Value, std::__ndk1::allocator<char> >&)
PUBLIC 26a34 0 std::__ndk1::__variant_detail::__visitation::__base::__dispatcher<(unsigned long)0>::__dispatch[abi:ne180000]<std::__ndk1::__variant_detail::__dtor<std::__ndk1::__variant_detail::__traits<bool, std::__ndk1::basic_string<char, std::__ndk1::char_traits<char>, std::__ndk1::allocator<char> > >, (std::__ndk1::__variant_detail::_Trait)1>::__destroy[abi:ne180000]()::{lambda(auto:1&)#1}, std::__ndk1::__variant_detail::__base<(std::__ndk1::__variant_detail::__traits<bool, std::__ndk1::basic_string<char, std::__ndk1::char_traits<char>, std::__ndk1::allocator<char> > >)1, bool, std::__ndk1::allocator<char> >&>(std::__ndk1::__variant_detail::__dtor<std::__ndk1::__variant_detail::__traits<bool, std::__ndk1::basic_string<char, std::__ndk1::char_traits<char>, std::__ndk1::allocator<char> > >, (std::__ndk1::__variant_detail::_Trait)1>, std::__ndk1::__variant_detail::__base<(std::__ndk1::__variant_detail::__traits<bool, std::__ndk1::basic_string<char, std::__ndk1::char_traits<char>, std::__ndk1::allocator<char> > >)1, bool, std::__ndk1::allocator<char> >&)
PUBLIC 26a38 0 std::__ndk1::__variant_detail::__visitation::__base::__dispatcher<(unsigned long)1>::__dispatch[abi:ne180000]<std::__ndk1::__variant_detail::__dtor<std::__ndk1::__variant_detail::__traits<bool, std::__ndk1::basic_string<char, std::__ndk1::char_traits<char>, std::__ndk1::allocator<char> > >, (std::__ndk1::__variant_detail::_Trait)1>::__destroy[abi:ne180000]()::{lambda(auto:1&)#1}, std::__ndk1::__variant_detail::__base<(std::__ndk1::__variant_detail::__traits<bool, std::__ndk1::basic_string<char, std::__ndk1::char_traits<char>, std::__ndk1::allocator<char> > >)1, bool, std::__ndk1::allocator<char> >&>(std::__ndk1::__variant_detail::__dtor<std::__ndk1::__variant_detail::__traits<bool, std::__ndk1::basic_string<char, std::__ndk1::char_traits<char>, std::__ndk1::allocator<char> > >, (std::__ndk1::__variant_detail::_Trait)1>, std::__ndk1::__variant_detail::__base<(std::__ndk1::__variant_detail::__traits<bool, std::__ndk1::basic_string<char, std::__ndk1::char_traits<char>, std::__ndk1::allocator<char> > >)1, bool, std::__ndk1::allocator<char> >&)
PUBLIC 26a4c 0 FollowInAnotherParent::~FollowInAnotherParent()
PUBLIC 26a88 0 FollowInAnotherParent::~FollowInAnotherParent()
PUBLIC 26acc 0 cocos2d::CCAction::setTag(int)
PUBLIC 26ad4 0 FollowInAnotherParent::step(float)
PUBLIC 26bf4 0 std::__ndk1::shared_ptr<geode::StringSettingV3>::~shared_ptr[abi:ne180000]()
PUBLIC 26c44 0 geode::cast::traverseTypeinfoFor(void*, geode::cast::ClassTypeinfoType const*, char const*)
PUBLIC 26d3c 0 std::__ndk1::__fs::filesystem::path::operator/=[abi:ne180000](std::__ndk1::__fs::filesystem::path const&)
PUBLIC 26e24 0 std::__ndk1::basic_string<char, std::__ndk1::char_traits<char>, std::__ndk1::allocator<char> >::__assign_no_alias<true>(char const*, unsigned long)
PUBLIC 26ed0 0 std::__ndk1::basic_string<char, std::__ndk1::char_traits<char>, std::__ndk1::allocator<char> >::__assign_no_alias<false>(char const*, unsigned long)
PUBLIC 26fe0 0 _ZNSt6__ndk112basic_stringIcNS_11char_traitsIcEENS_9allocatorIcEEE6appendB8ne180000IPKcTnNS_9enable_ifIXsr31__has_forward_iterator_categoryIT_EE5valueEiE4typeELi0EEERS5_SA_SA_
PUBLIC 272e4 0 geode::Ref<Backup>::~Ref()
PUBLIC 27300 0 std::__ndk1::vector<std::__ndk1::__fs::filesystem::path, std::__ndk1::allocator<std::__ndk1::__fs::filesystem::path> >::~vector[abi:ne180000]()
PUBLIC 2737c 0 std::__ndk1::__variant_detail::__visitation::__base::__dispatcher<(unsigned long)0>::__dispatch[abi:ne180000]<std::__ndk1::__variant_detail::__dtor<std::__ndk1::__variant_detail::__traits<std::__ndk1::vector<std::__ndk1::__fs::filesystem::path, std::__ndk1::allocator<std::__ndk1::__fs::filesystem> >, std::__ndk1::basic_string<char, std::__ndk1::char_traits<char>, std::__ndk1::__fs::filesystem::path<char> > >, (std::__ndk1::__variant_detail::_Trait)1>::__destroy[abi:ne180000]()::{lambda(auto:1&)#1}, std::__ndk1::__variant_detail::__base<(std::__ndk1::__variant_detail::__traits<std::__ndk1::vector<std::__ndk1::__fs::filesystem::path, std::__ndk1::allocator<std::__ndk1::__fs::filesystem> >, std::__ndk1::basic_string<char, std::__ndk1::char_traits<char>, std::__ndk1::__fs::filesystem::path<char> > >)1, std::__ndk1::allocator<std::__ndk1::__fs::filesystem>, std::__ndk1::__fs::filesystem::path<char> >&>(std::__ndk1::__variant_detail::__dtor<std::__ndk1::__variant_detail::__traits<std::__ndk1::vector<std::__ndk1::__fs::filesystem::path, std::__ndk1::allocator<std::__ndk1::__fs::filesystem> >, std::__ndk1::basic_string<char, std::__ndk1::char_traits<char>, std::__ndk1::__fs::filesystem::path<char> > >, (std::__ndk1::__variant_detail::_Trait)1>, std::__ndk1::__variant_detail::__base<(std::__ndk1::__variant_detail::__traits<std::__ndk1::vector<std::__ndk1::__fs::filesystem::path, std::__ndk1::allocator<std::__ndk1::__fs::filesystem> >, std::__ndk1::basic_string<char, std::__ndk1::char_traits<char>, std::__ndk1::__fs::filesystem::path<char> > >)1, std::__ndk1::allocator<std::__ndk1::__fs::filesystem>, std::__ndk1::__fs::filesystem::path<char> >&)
PUBLIC 273f8 0 std::__ndk1::__variant_detail::__visitation::__base::__dispatcher<(unsigned long)1>::__dispatch[abi:ne180000]<std::__ndk1::__variant_detail::__dtor<std::__ndk1::__variant_detail::__traits<std::__ndk1::vector<std::__ndk1::__fs::filesystem::path, std::__ndk1::allocator<std::__ndk1::__fs::filesystem> >, std::__ndk1::basic_string<char, std::__ndk1::char_traits<char>, std::__ndk1::__fs::filesystem::path<char> > >, (std::__ndk1::__variant_detail::_Trait)1>::__destroy[abi:ne180000]()::{lambda(auto:1&)#1}, std::__ndk1::__variant_detail::__base<(std::__ndk1::__variant_detail::__traits<std::__ndk1::vector<std::__ndk1::__fs::filesystem::path, std::__ndk1::allocator<std::__ndk1::__fs::filesystem> >, std::__ndk1::basic_string<char, std::__ndk1::char_traits<char>, std::__ndk1::__fs::filesystem::path<char> > >)1, std::__ndk1::allocator<std::__ndk1::__fs::filesystem>, std::__ndk1::__fs::filesystem::path<char> >&>(std::__ndk1::__variant_detail::__dtor<std::__ndk1::__variant_detail::__traits<std::__ndk1::vector<std::__ndk1::__fs::filesystem::path, std::__ndk1::allocator<std::__ndk1::__fs::filesystem> >, std::__ndk1::basic_string<char, std::__ndk1::char_traits<char>, std::__ndk1::__fs::filesystem::path<char> > >, (std::__ndk1::__variant_detail::_Trait)1>, std::__ndk1::__variant_detail::__base<(std::__ndk1::__variant_detail::__traits<std::__ndk1::vector<std::__ndk1::__fs::filesystem::path, std::__ndk1::allocator<std::__ndk1::__fs::filesystem> >, std::__ndk1::basic_string<char, std::__ndk1::char_traits<char>, std::__ndk1::__fs::filesystem::path<char> > >)1, std::__ndk1::allocator<std::__ndk1::__fs::filesystem>, std::__ndk1::__fs::filesystem::path<char> >&)
PUBLIC 2740c 0 std::__ndk1::vector<geode::Ref<Backup>, std::__ndk1::allocator<geode::Ref<Backup> > >::__throw_length_error[abi:ne180000]() const
PUBLIC 27420 0 geode::utils::file::writeToJson<BackupMetadata>(std::__ndk1::__fs::filesystem::path const&, BackupMetadata const&)
PUBLIC 27824 0 BackupMetadata::~BackupMetadata()
PUBLIC 27870 0 geode::impl::ResultData<BackupMetadata, std::__ndk1::basic_string<char, std::__ndk1::char_traits<char>, std::__ndk1::allocator<char> > >::~ResultData()
PUBLIC 278e4 0 Backup::~Backup()
PUBLIC 2793c 0 Backup::~Backup()
PUBLIC 2799c 0 cocos2d::CCObject::update(float)
PUBLIC 279a0 0 geode::impl::ResultData<matjson::Value, std::__ndk1::basic_string<char, std::__ndk1::char_traits<char>, std::__ndk1::allocator<char> > >::~ResultData()
PUBLIC 27a14 0 geode::JsonExpectedValue::tryGet<std::__ndk1::basic_string<char, std::__ndk1::char_traits<char>, std::__ndk1::allocator<char> > >()
PUBLIC 27c78 0 geode::impl::ResultData<std::__ndk1::basic_string<char, std::__ndk1::char_traits<char>, std::__ndk1::allocator<char> >, std::__ndk1::basic_string<char, std::__ndk1::char_traits<char>, std::__ndk1::allocator<char> > >::~ResultData()
PUBLIC 27cec 0 std::__ndk1::__variant_detail::__visitation::__base::__dispatcher<(unsigned long)0>::__dispatch[abi:ne180000]<std::__ndk1::__variant_detail::__dtor<std::__ndk1::__variant_detail::__traits<std::__ndk1::basic_string<char, std::__ndk1::char_traits<char>, std::__ndk1::allocator<char> >, std::__ndk1::allocator<char> >, (std::__ndk1::__variant_detail::_Trait)1>::__destroy[abi:ne180000]()::{lambda(auto:1&)#1}, std::__ndk1::__variant_detail::__base<(std::__ndk1::__variant_detail::__traits<std::__ndk1::basic_string<char, std::__ndk1::char_traits<char>, std::__ndk1::allocator<char> >, std::__ndk1::allocator<char> >)1, std::__ndk1::allocator<char>, std::__ndk1::allocator<char> >&>(std::__ndk1::__variant_detail::__dtor<std::__ndk1::__variant_detail::__traits<std::__ndk1::basic_string<char, std::__ndk1::char_traits<char>, std::__ndk1::allocator<char> >, std::__ndk1::allocator<char> >, (std::__ndk1::__variant_detail::_Trait)1>, std::__ndk1::__variant_detail::__base<(std::__ndk1::__variant_detail::__traits<std::__ndk1::basic_string<char, std::__ndk1::char_traits<char>, std::__ndk1::allocator<char> >, std::__ndk1::allocator<char> >)1, std::__ndk1::allocator<char>, std::__ndk1::allocator<char> >&)
PUBLIC 27d00 0 std::__ndk1::__variant_detail::__visitation::__base::__dispatcher<(unsigned long)1>::__dispatch[abi:ne180000]<std::__ndk1::__variant_detail::__dtor<std::__ndk1::__variant_detail::__traits<std::__ndk1::basic_string<char, std::__ndk1::char_traits<char>, std::__ndk1::allocator<char> >, std::__ndk1::allocator<char> >, (std::__ndk1::__variant_detail::_Trait)1>::__destroy[abi:ne180000]()::{lambda(auto:1&)#1}, std::__ndk1::__variant_detail::__base<(std::__ndk1::__variant_detail::__traits<std::__ndk1::basic_string<char, std::__ndk1::char_traits<char>, std::__ndk1::allocator<char> >, std::__ndk1::allocator<char> >)1, std::__ndk1::allocator<char>, std::__ndk1::allocator<char> >&>(std::__ndk1::__variant_detail::__dtor<std::__ndk1::__variant_detail::__traits<std::__ndk1::basic_string<char, std::__ndk1::char_traits<char>, std::__ndk1::allocator<char> >, std::__ndk1::allocator<char> >, (std::__ndk1::__variant_detail::_Trait)1>, std::__ndk1::__variant_detail::__base<(std::__ndk1::__variant_detail::__traits<std::__ndk1::basic_string<char, std::__ndk1::char_traits<char>, std::__ndk1::allocator<char> >, std::__ndk1::allocator<char> >)1, std::__ndk1::allocator<char>, std::__ndk1::allocator<char> >&)
PUBLIC 27d14 0 geode::JsonExpectedValue::tryGet<int>()
PUBLIC 2800c 0 geode::impl::ResultData<int, std::__ndk1::basic_string<char, std::__ndk1::char_traits<char>, std::__ndk1::allocator<char> > >::~ResultData()
PUBLIC 28080 0 std::__ndk1::__variant_detail::__visitation::__base::__dispatcher<(unsigned long)0>::__dispatch[abi:ne180000]<std::__ndk1::__variant_detail::__dtor<std::__ndk1::__variant_detail::__traits<long, std::__ndk1::basic_string<char, std::__ndk1::char_traits<char>, std::__ndk1::allocator<char> > >, (std::__ndk1::__variant_detail::_Trait)1>::__destroy[abi:ne180000]()::{lambda(auto:1&)#1}, std::__ndk1::__variant_detail::__base<(std::__ndk1::__variant_detail::__traits<long, std::__ndk1::basic_string<char, std::__ndk1::char_traits<char>, std::__ndk1::allocator<char> > >)1, long, std::__ndk1::allocator<char> >&>(std::__ndk1::__variant_detail::__dtor<std::__ndk1::__variant_detail::__traits<long, std::__ndk1::basic_string<char, std::__ndk1::char_traits<char>, std::__ndk1::allocator<char> > >, (std::__ndk1::__variant_detail::_Trait)1>, std::__ndk1::__variant_detail::__base<(std::__ndk1::__variant_detail::__traits<long, std::__ndk1::basic_string<char, std::__ndk1::char_traits<char>, std::__ndk1::allocator<char> > >)1, long, std::__ndk1::allocator<char> >&)
PUBLIC 28084 0 std::__ndk1::__variant_detail::__visitation::__base::__dispatcher<(unsigned long)1>::__dispatch[abi:ne180000]<std::__ndk1::__variant_detail::__dtor<std::__ndk1::__variant_detail::__traits<long, std::__ndk1::basic_string<char, std::__ndk1::char_traits<char>, std::__ndk1::allocator<char> > >, (std::__ndk1::__variant_detail::_Trait)1>::__destroy[abi:ne180000]()::{lambda(auto:1&)#1}, std::__ndk1::__variant_detail::__base<(std::__ndk1::__variant_detail::__traits<long, std::__ndk1::basic_string<char, std::__ndk1::char_traits<char>, std::__ndk1::allocator<char> > >)1, long, std::__ndk1::allocator<char> >&>(std::__ndk1::__variant_detail::__dtor<std::__ndk1::__variant_detail::__traits<long, std::__ndk1::basic_string<char, std::__ndk1::char_traits<char>, std::__ndk1::allocator<char> > >, (std::__ndk1::__variant_detail::_Trait)1>, std::__ndk1::__variant_detail::__base<(std::__ndk1::__variant_detail::__traits<long, std::__ndk1::basic_string<char, std::__ndk1::char_traits<char>, std::__ndk1::allocator<char> > >)1, long, std::__ndk1::allocator<char> >&)
PUBLIC 28098 0 std::__ndk1::__variant_detail::__visitation::__base::__dispatcher<(unsigned long)0>::__dispatch[abi:ne180000]<std::__ndk1::__variant_detail::__dtor<std::__ndk1::__variant_detail::__traits<int, std::__ndk1::basic_string<char, std::__ndk1::char_traits<char>, std::__ndk1::allocator<char> > >, (std::__ndk1::__variant_detail::_Trait)1>::__destroy[abi:ne180000]()::{lambda(auto:1&)#1}, std::__ndk1::__variant_detail::__base<(std::__ndk1::__variant_detail::__traits<int, std::__ndk1::basic_string<char, std::__ndk1::char_traits<char>, std::__ndk1::allocator<char> > >)1, int, std::__ndk1::allocator<char> >&>(std::__ndk1::__variant_detail::__dtor<std::__ndk1::__variant_detail::__traits<int, std::__ndk1::basic_string<char, std::__ndk1::char_traits<char>, std::__ndk1::allocator<char> > >, (std::__ndk1::__variant_detail::_Trait)1>, std::__ndk1::__variant_detail::__base<(std::__ndk1::__variant_detail::__traits<int, std::__ndk1::basic_string<char, std::__ndk1::char_traits<char>, std::__ndk1::allocator<char> > >)1, int, std::__ndk1::allocator<char> >&)
PUBLIC 2809c 0 std::__ndk1::__variant_detail::__visitation::__base::__dispatcher<(unsigned long)1>::__dispatch[abi:ne180000]<std::__ndk1::__variant_detail::__dtor<std::__ndk1::__variant_detail::__traits<int, std::__ndk1::basic_string<char, std::__ndk1::char_traits<char>, std::__ndk1::allocator<char> > >, (std::__ndk1::__variant_detail::_Trait)1>::__destroy[abi:ne180000]()::{lambda(auto:1&)#1}, std::__ndk1::__variant_detail::__base<(std::__ndk1::__variant_detail::__traits<int, std::__ndk1::basic_string<char, std::__ndk1::char_traits<char>, std::__ndk1::allocator<char> > >)1, int, std::__ndk1::allocator<char> >&>(std::__ndk1::__variant_detail::__dtor<std::__ndk1::__variant_detail::__traits<int, std::__ndk1::basic_string<char, std::__ndk1::char_traits<char>, std::__ndk1::allocator<char> > >, (std::__ndk1::__variant_detail::_Trait)1>, std::__ndk1::__variant_detail::__base<(std::__ndk1::__variant_detail::__traits<int, std::__ndk1::basic_string<char, std::__ndk1::char_traits<char>, std::__ndk1::allocator<char> > >)1, int, std::__ndk1::allocator<char> >&)
PUBLIC 280b0 0 std::__ndk1::__variant_detail::__visitation::__base::__dispatcher<(unsigned long)0>::__dispatch[abi:ne180000]<std::__ndk1::__variant_detail::__dtor<std::__ndk1::__variant_detail::__traits<matjson::Value, std::__ndk1::basic_string<char, std::__ndk1::char_traits<char>, std::__ndk1::allocator<char> > >, (std::__ndk1::__variant_detail::_Trait)1>::__destroy[abi:ne180000]()::{lambda(auto:1&)#1}, std::__ndk1::__variant_detail::__base<(std::__ndk1::__variant_detail::__traits<matjson::Value, std::__ndk1::basic_string<char, std::__ndk1::char_traits<char>, std::__ndk1::allocator<char> > >)1, matjson, std::__ndk1::allocator<char> >&>(std::__ndk1::__variant_detail::__dtor<std::__ndk1::__variant_detail::__traits<matjson::Value, std::__ndk1::basic_string<char, std::__ndk1::char_traits<char>, std::__ndk1::allocator<char> > >, (std::__ndk1::__variant_detail::_Trait)1>, std::__ndk1::__variant_detail::__base<(std::__ndk1::__variant_detail::__traits<matjson::Value, std::__ndk1::basic_string<char, std::__ndk1::char_traits<char>, std::__ndk1::allocator<char> > >)1, matjson, std::__ndk1::allocator<char> >&)
PUBLIC 280b8 0 std::__ndk1::__variant_detail::__visitation::__base::__dispatcher<(unsigned long)1>::__dispatch[abi:ne180000]<std::__ndk1::__variant_detail::__dtor<std::__ndk1::__variant_detail::__traits<matjson::Value, std::__ndk1::basic_string<char, std::__ndk1::char_traits<char>, std::__ndk1::allocator<char> > >, (std::__ndk1::__variant_detail::_Trait)1>::__destroy[abi:ne180000]()::{lambda(auto:1&)#1}, std::__ndk1::__variant_detail::__base<(std::__ndk1::__variant_detail::__traits<matjson::Value, std::__ndk1::basic_string<char, std::__ndk1::char_traits<char>, std::__ndk1::allocator<char> > >)1, matjson, std::__ndk1::allocator<char> >&>(std::__ndk1::__variant_detail::__dtor<std::__ndk1::__variant_detail::__traits<matjson::Value, std::__ndk1::basic_string<char, std::__ndk1::char_traits<char>, std::__ndk1::allocator<char> > >, (std::__ndk1::__variant_detail::_Trait)1>, std::__ndk1::__variant_detail::__base<(std::__ndk1::__variant_detail::__traits<matjson::Value, std::__ndk1::basic_string<char, std::__ndk1::char_traits<char>, std::__ndk1::allocator<char> > >)1, matjson, std::__ndk1::allocator<char> >&)
PUBLIC 280cc 0 matjson::makeObject(std::initializer_list<std::__ndk1::pair<std::__ndk1::basic_string<char, std::__ndk1::char_traits<char>, std::__ndk1::allocator<char> >, matjson::Value> >)
PUBLIC 283e8 0 std::__ndk1::pair<std::__ndk1::basic_string<char, std::__ndk1::char_traits<char>, std::__ndk1::allocator<char> >, matjson::Value>::~pair()
PUBLIC 28424 0 std::__ndk1::vector<matjson::Value, std::__ndk1::allocator<matjson::Value> >::~vector[abi:ne180000]()
PUBLIC 2848c 0 std::__ndk1::__split_buffer<matjson::Value, std::__ndk1::allocator<matjson::Value>&>::~__split_buffer()
PUBLIC 284e0 0 std::__ndk1::vector<matjson::Value, std::__ndk1::allocator<matjson::Value> >::__throw_length_error[abi:ne180000]() const
PUBLIC 284f4 0 std::__ndk1::__variant_detail::__visitation::__base::__dispatcher<(unsigned long)0>::__dispatch[abi:ne180000]<std::__ndk1::__variant_detail::__dtor<std::__ndk1::__variant_detail::__traits<BackupMetadata, std::__ndk1::basic_string<char, std::__ndk1::char_traits<char>, std::__ndk1::allocator<char> > >, (std::__ndk1::__variant_detail::_Trait)1>::__destroy[abi:ne180000]()::{lambda(auto:1&)#1}, std::__ndk1::__variant_detail::__base<(std::__ndk1::__variant_detail::__traits<BackupMetadata, std::__ndk1::basic_string<char, std::__ndk1::char_traits<char>, std::__ndk1::allocator<char> > >)1, std::__ndk1::__variant_detail::__traits, std::__ndk1::allocator<char> >&>(std::__ndk1::__variant_detail::__dtor<std::__ndk1::__variant_detail::__traits<BackupMetadata, std::__ndk1::basic_string<char, std::__ndk1::char_traits<char>, std::__ndk1::allocator<char> > >, (std::__ndk1::__variant_detail::_Trait)1>, std::__ndk1::__variant_detail::__base<(std::__ndk1::__variant_detail::__traits<BackupMetadata, std::__ndk1::basic_string<char, std::__ndk1::char_traits<char>, std::__ndk1::allocator<char> > >)1, std::__ndk1::__variant_detail::__traits, std::__ndk1::allocator<char> >&)
PUBLIC 28540 0 std::__ndk1::__variant_detail::__visitation::__base::__dispatcher<(unsigned long)1>::__dispatch[abi:ne180000]<std::__ndk1::__variant_detail::__dtor<std::__ndk1::__variant_detail::__traits<BackupMetadata, std::__ndk1::basic_string<char, std::__ndk1::char_traits<char>, std::__ndk1::allocator<char> > >, (std::__ndk1::__variant_detail::_Trait)1>::__destroy[abi:ne180000]()::{lambda(auto:1&)#1}, std::__ndk1::__variant_detail::__base<(std::__ndk1::__variant_detail::__traits<BackupMetadata, std::__ndk1::basic_string<char, std::__ndk1::char_traits<char>, std::__ndk1::allocator<char> > >)1, std::__ndk1::__variant_detail::__traits, std::__ndk1::allocator<char> >&>(std::__ndk1::__variant_detail::__dtor<std::__ndk1::__variant_detail::__traits<BackupMetadata, std::__ndk1::basic_string<char, std::__ndk1::char_traits<char>, std::__ndk1::allocator<char> > >, (std::__ndk1::__variant_detail::_Trait)1>, std::__ndk1::__variant_detail::__base<(std::__ndk1::__variant_detail::__traits<BackupMetadata, std::__ndk1::basic_string<char, std::__ndk1::char_traits<char>, std::__ndk1::allocator<char> > >)1, std::__ndk1::__variant_detail::__traits, std::__ndk1::allocator<char> >&)
PUBLIC 28554 0 std::__ndk1::__introsort<std::__ndk1::_ClassicAlgPolicy, Backup::get(std::__ndk1::__fs::filesystem::path const&)::{lambda(auto:1, auto:2)#1}&, geode::Ref<Backup>*, false>(geode::Ref<Backup>*, geode::Ref<Backup>*, Backup::get(std::__ndk1::__fs::filesystem::path const&)::{lambda(auto:1, auto:2)#1}&, std::__ndk1::iterator_traits<geode::Ref<Backup>*>::difference_type, bool)
PUBLIC 29658 0 std::__ndk1::__sort3[abi:ne180000]<std::__ndk1::_ClassicAlgPolicy, Backup::get(std::__ndk1::__fs::filesystem::path const&)::{lambda(auto:1, auto:2)#1}&, geode::Ref<std::__ndk1::_ClassicAlgPolicy>*>(geode::Ref<std::__ndk1::_ClassicAlgPolicy>*, geode::Ref<std::__ndk1::_ClassicAlgPolicy>*, geode::Ref<std::__ndk1::_ClassicAlgPolicy>*, std::__ndk1::_ClassicAlgPolicy)
PUBLIC 298e8 0 std::__ndk1::__insertion_sort_incomplete[abi:ne180000]<std::__ndk1::_ClassicAlgPolicy, Backup::get(std::__ndk1::__fs::filesystem::path const&)::{lambda(auto:1, auto:2)#1}&, geode::Ref<std::__ndk1::_ClassicAlgPolicy>*>(geode::Ref<std::__ndk1::_ClassicAlgPolicy>*, geode::Ref<std::__ndk1::_ClassicAlgPolicy>*, std::__ndk1::_ClassicAlgPolicy)
PUBLIC 29c38 0 std::__ndk1::__sort4[abi:ne180000]<std::__ndk1::_ClassicAlgPolicy, Backup::get(std::__ndk1::__fs::filesystem::path const&)::{lambda(auto:1, auto:2)#1}&, geode::Ref<std::__ndk1::_ClassicAlgPolicy>*>(geode::Ref<std::__ndk1::_ClassicAlgPolicy>*, geode::Ref<std::__ndk1::_ClassicAlgPolicy>*, geode::Ref<std::__ndk1::_ClassicAlgPolicy>*, geode::Ref<std::__ndk1::_ClassicAlgPolicy>*, std::__ndk1::_ClassicAlgPolicy)
PUBLIC 29dcc 0 std::__ndk1::__sort5[abi:ne180000]<std::__ndk1::_ClassicAlgPolicy, Backup::get(std::__ndk1::__fs::filesystem::path const&)::{lambda(auto:1, auto:2)#1}&, geode::Ref<std::__ndk1::_ClassicAlgPolicy>*>(geode::Ref<std::__ndk1::_ClassicAlgPolicy>*, geode::Ref<std::__ndk1::_ClassicAlgPolicy>*, geode::Ref<std::__ndk1::_ClassicAlgPolicy>*, geode::Ref<std::__ndk1::_ClassicAlgPolicy>*, geode::Ref<std::__ndk1::_ClassicAlgPolicy>*, std::__ndk1::_ClassicAlgPolicy)
PUBLIC 29fdc 0 geode::utils::hash(char const*, int)
PUBLIC 2a01c 0 fmt::v11::detail::value<fmt::v11::context>::format_custom_arg<std::__ndk1::chrono::time_point<std::__ndk1::chrono::system_clock, std::__ndk1::chrono::duration<long long, std::__ndk1::ratio<(long)1, (long)1000000> > >, fmt::v11::formatter<std::__ndk1::chrono::time_point<std::__ndk1::chrono::system_clock, std::__ndk1::chrono::duration<long long, std::__ndk1::ratio<(long)1, (long)1000000> > >, char, void> >(void*, fmt::v11::basic_format_parse_context<char>&, fmt::v11::context&)
PUBLIC 2bec4 0 fmt::v11::detail::parse_dynamic_spec<char>(char const*, char const*, int&, fmt::v11::detail::arg_ref<char>&, fmt::v11::basic_format_parse_context<char>&)
PUBLIC 2c068 0 fmt::v11::detail::do_parse_arg_id<char, fmt::v11::detail::dynamic_spec_id_handler<char>&>(char const*, char const*, fmt::v11::detail::dynamic_spec_id_handler<char>&)
PUBLIC 2c1fc 0 fmt::v11::format_error::runtime_error(char const*)
PUBLIC 2c228 0 fmt::v11::format_error::~format_error()
PUBLIC 2c24c 0 fmt::v11::detail::tm_format_checker::unsupported()
PUBLIC 2c29c 0 fmt::v11::detail::handle_dynamic_spec<fmt::v11::detail::width_checker, fmt::v11::context>(int&, fmt::v11::detail::arg_ref<fmt::v11::context::char_type>, fmt::v11::context&)
PUBLIC 2c3b0 0 fmt::v11::detail::write<char, fmt::v11::basic_appender<char> >(fmt::v11::basic_appender<char>, fmt::v11::basic_string_view<char>, fmt::v11::format_specs const&)
PUBLIC 2c62c 0 fmt::v11::basic_memory_buffer<char, (unsigned long)500, std::__ndk1::allocator<char> >::grow(fmt::v11::detail::buffer<char>&, unsigned long)
PUBLIC 2c6a4 0 fmt::v11::detail::get_dynamic_spec<fmt::v11::detail::width_checker, fmt::v11::basic_format_arg<fmt::v11::context> >(fmt::v11::basic_format_arg<fmt::v11::context>)
PUBLIC 2c738 0 fmt::v11::basic_format_args<fmt::v11::context>::get<char>(fmt::v11::basic_string_view<char>) const
PUBLIC 2c890 0 fmt::v11::detail::tm_writer<std::__ndk1::back_insert_iterator<fmt::v11::basic_memory_buffer<char, (unsigned long)500, std::__ndk1::allocator<char> > >, char, std::__ndk1::chrono::duration<long long, std::__ndk1::ratio<(long)1, (long)1000000> > >::on_year(fmt::v11::detail::numeric_system)
PUBLIC 2c9b8 0 fmt::v11::detail::tm_writer<std::__ndk1::back_insert_iterator<fmt::v11::basic_memory_buffer<char, (unsigned long)500, std::__ndk1::allocator<char> > >, char, std::__ndk1::chrono::duration<long long, std::__ndk1::ratio<(long)1, (long)1000000> > >::on_short_year(fmt::v11::detail::numeric_system)
PUBLIC 2cb7c 0 fmt::v11::detail::tm_writer<std::__ndk1::back_insert_iterator<fmt::v11::basic_memory_buffer<char, (unsigned long)500, std::__ndk1::allocator<char> > >, char, std::__ndk1::chrono::duration<long long, std::__ndk1::ratio<(long)1, (long)1000000> > >::on_century(fmt::v11::detail::numeric_system)
PUBLIC 2cee8 0 fmt::v11::detail::tm_writer<std::__ndk1::back_insert_iterator<fmt::v11::basic_memory_buffer<char, (unsigned long)500, std::__ndk1::allocator<char> > >, char, std::__ndk1::chrono::duration<long long, std::__ndk1::ratio<(long)1, (long)1000000> > >::on_abbr_weekday()
PUBLIC 2d020 0 fmt::v11::detail::tm_writer<std::__ndk1::back_insert_iterator<fmt::v11::basic_memory_buffer<char, (unsigned long)500, std::__ndk1::allocator<char> > >, char, std::__ndk1::chrono::duration<long long, std::__ndk1::ratio<(long)1, (long)1000000> > >::on_dec0_weekday(fmt::v11::detail::numeric_system)
PUBLIC 2d180 0 fmt::v11::detail::tm_writer<std::__ndk1::back_insert_iterator<fmt::v11::basic_memory_buffer<char, (unsigned long)500, std::__ndk1::allocator<char> > >, char, std::__ndk1::chrono::duration<long long, std::__ndk1::ratio<(long)1, (long)1000000> > >::on_dec1_weekday(fmt::v11::detail::numeric_system)
PUBLIC 2d2ec 0 fmt::v11::detail::tm_writer<std::__ndk1::back_insert_iterator<fmt::v11::basic_memory_buffer<char, (unsigned long)500, std::__ndk1::allocator<char> > >, char, std::__ndk1::chrono::duration<long long, std::__ndk1::ratio<(long)1, (long)1000000> > >::on_abbr_month()
PUBLIC 2d424 0 fmt::v11::detail::tm_writer<std::__ndk1::back_insert_iterator<fmt::v11::basic_memory_buffer<char, (unsigned long)500, std::__ndk1::allocator<char> > >, char, std::__ndk1::chrono::duration<long long, std::__ndk1::ratio<(long)1, (long)1000000> > >::on_dec_month(fmt::v11::detail::numeric_system)
PUBLIC 2d5d0 0 fmt::v11::detail::tm_writer<std::__ndk1::back_insert_iterator<fmt::v11::basic_memory_buffer<char, (unsigned long)500, std::__ndk1::allocator<char> > >, char, std::__ndk1::chrono::duration<long long, std::__ndk1::ratio<(long)1, (long)1000000> > >::on_dec0_week_of_year(fmt::v11::detail::numeric_system, fmt::v11::detail::pad_type)
PUBLIC 2d71c 0 fmt::v11::detail::tm_writer<std::__ndk1::back_insert_iterator<fmt::v11::basic_memory_buffer<char, (unsigned long)500, std::__ndk1::allocator<char> > >, char, std::__ndk1::chrono::duration<long long, std::__ndk1::ratio<(long)1, (long)1000000> > >::on_dec1_week_of_year(fmt::v11::detail::numeric_system, fmt::v11::detail::pad_type)
PUBLIC 2d87c 0 fmt::v11::detail::tm_writer<std::__ndk1::back_insert_iterator<fmt::v11::basic_memory_buffer<char, (unsigned long)500, std::__ndk1::allocator<char> > >, char, std::__ndk1::chrono::duration<long long, std::__ndk1::ratio<(long)1, (long)1000000> > >::on_iso_week_of_year(fmt::v11::detail::numeric_system, fmt::v11::detail::pad_type)
PUBLIC 2dbb4 0 fmt::v11::detail::tm_writer<std::__ndk1::back_insert_iterator<fmt::v11::basic_memory_buffer<char, (unsigned long)500, std::__ndk1::allocator<char> > >, char, std::__ndk1::chrono::duration<long long, std::__ndk1::ratio<(long)1, (long)1000000> > >::on_day_of_month(fmt::v11::detail::numeric_system, fmt::v11::detail::pad_type)
PUBLIC 2dcdc 0 fmt::v11::detail::tm_writer<std::__ndk1::back_insert_iterator<fmt::v11::basic_memory_buffer<char, (unsigned long)500, std::__ndk1::allocator<char> > >, char, std::__ndk1::chrono::duration<long long, std::__ndk1::ratio<(long)1, (long)1000000> > >::on_24_hour(fmt::v11::detail::numeric_system, fmt::v11::detail::pad_type)
PUBLIC 2de04 0 fmt::v11::detail::tm_writer<std::__ndk1::back_insert_iterator<fmt::v11::basic_memory_buffer<char, (unsigned long)500, std::__ndk1::allocator<char> > >, char, std::__ndk1::chrono::duration<long long, std::__ndk1::ratio<(long)1, (long)1000000> > >::on_12_hour(fmt::v11::detail::numeric_system, fmt::v11::detail::pad_type)
PUBLIC 2df40 0 fmt::v11::detail::tm_writer<std::__ndk1::back_insert_iterator<fmt::v11::basic_memory_buffer<char, (unsigned long)500, std::__ndk1::allocator<char> > >, char, std::__ndk1::chrono::duration<long long, std::__ndk1::ratio<(long)1, (long)1000000> > >::on_minute(fmt::v11::detail::numeric_system, fmt::v11::detail::pad_type)
PUBLIC 2e068 0 fmt::v11::detail::tm_writer<std::__ndk1::back_insert_iterator<fmt::v11::basic_memory_buffer<char, (unsigned long)500, std::__ndk1::allocator<char> > >, char, std::__ndk1::chrono::duration<long long, std::__ndk1::ratio<(long)1, (long)1000000> > >::on_second(fmt::v11::detail::numeric_system, fmt::v11::detail::pad_type)
PUBLIC 2e1a8 0 fmt::v11::detail::tm_writer<std::__ndk1::back_insert_iterator<fmt::v11::basic_memory_buffer<char, (unsigned long)500, std::__ndk1::allocator<char> > >, char, std::__ndk1::chrono::duration<long long, std::__ndk1::ratio<(long)1, (long)1000000> > >::on_datetime(fmt::v11::detail::numeric_system)
PUBLIC 2e44c 0 fmt::v11::detail::tm_writer<std::__ndk1::back_insert_iterator<fmt::v11::basic_memory_buffer<char, (unsigned long)500, std::__ndk1::allocator<char> > >, char, std::__ndk1::chrono::duration<long long, std::__ndk1::ratio<(long)1, (long)1000000> > >::on_loc_date(fmt::v11::detail::numeric_system)
PUBLIC 2e668 0 fmt::v11::detail::tm_writer<std::__ndk1::back_insert_iterator<fmt::v11::basic_memory_buffer<char, (unsigned long)500, std::__ndk1::allocator<char> > >, char, std::__ndk1::chrono::duration<long long, std::__ndk1::ratio<(long)1, (long)1000000> > >::on_loc_time(fmt::v11::detail::numeric_system)
PUBLIC 2e7f8 0 fmt::v11::detail::tm_writer<std::__ndk1::back_insert_iterator<fmt::v11::basic_memory_buffer<char, (unsigned long)500, std::__ndk1::allocator<char> > >, char, std::__ndk1::chrono::duration<long long, std::__ndk1::ratio<(long)1, (long)1000000> > >::on_24_hour_time()
PUBLIC 2e98c 0 fmt::v11::detail::tm_writer<std::__ndk1::back_insert_iterator<fmt::v11::basic_memory_buffer<char, (unsigned long)500, std::__ndk1::allocator<char> > >, char, std::__ndk1::chrono::duration<long long, std::__ndk1::ratio<(long)1, (long)1000000> > >::on_am_pm()
PUBLIC 2eb18 0 fmt::v11::detail::tm_writer<std::__ndk1::back_insert_iterator<fmt::v11::basic_memory_buffer<char, (unsigned long)500, std::__ndk1::allocator<char> > >, char, std::__ndk1::chrono::duration<long long, std::__ndk1::ratio<(long)1, (long)1000000> > >::on_offset_year()
PUBLIC 2ecdc 0 fmt::v11::detail::tm_writer<std::__ndk1::back_insert_iterator<fmt::v11::basic_memory_buffer<char, (unsigned long)500, std::__ndk1::allocator<char> > >, char, std::__ndk1::chrono::duration<long long, std::__ndk1::ratio<(long)1, (long)1000000> > >::write_year(long long)
PUBLIC 2ee44 0 fmt::v11::detail::tm_writer<std::__ndk1::back_insert_iterator<fmt::v11::basic_memory_buffer<char, (unsigned long)500, std::__ndk1::allocator<char> > >, char, std::__ndk1::chrono::duration<long long, std::__ndk1::ratio<(long)1, (long)1000000> > >::write_year_extended(long long)
PUBLIC 2f018 0 fmt::v11::detail::copy_noinline<char, char*, std::__ndk1::back_insert_iterator<fmt::v11::basic_memory_buffer<char, (unsigned long)500, std::__ndk1::allocator<char> > > >(char*, char*, std::__ndk1::back_insert_iterator<fmt::v11::basic_memory_buffer<char, (unsigned long)500, std::__ndk1::allocator<char> > >)
PUBLIC 2f168 0 fmt::v11::detail::do_write<char>(fmt::v11::detail::buffer<char>&, tm const&, std::__ndk1::locale const&, char, char)
PUBLIC 2f39c 0 fmt::v11::detail::write_encoded_tm_str<std::__ndk1::back_insert_iterator<fmt::v11::basic_memory_buffer<char, (unsigned long)500, std::__ndk1::allocator<char> > > >(std::__ndk1::back_insert_iterator<fmt::v11::basic_memory_buffer<char, (unsigned long)500, std::__ndk1::allocator<char> > >, fmt::v11::basic_string_view<char>, std::__ndk1::locale const&)
PUBLIC 2fab8 0 fmt::v11::detail::formatbuf<std::__ndk1::basic_streambuf<char, std::__ndk1::char_traits<char> > >::~formatbuf()
PUBLIC 2fadc 0 fmt::v11::detail::formatbuf<std::__ndk1::basic_streambuf<char, std::__ndk1::char_traits<char> > >::xsputn(char const*, long)
PUBLIC 2fc34 0 fmt::v11::detail::formatbuf<std::__ndk1::basic_streambuf<char, std::__ndk1::char_traits<char> > >::overflow(int)
PUBLIC 2fc90 0 fmt::v11::basic_memory_buffer<char, (unsigned long)128, std::__ndk1::allocator<char> >::grow(fmt::v11::detail::buffer<char>&, unsigned long)
PUBLIC 2fd08 0 fmt::v11::detail::copy_noinline<char, char const*, std::__ndk1::back_insert_iterator<fmt::v11::basic_memory_buffer<char, (unsigned long)500, std::__ndk1::allocator<char> > > >(char const*, char const*, std::__ndk1::back_insert_iterator<fmt::v11::basic_memory_buffer<char, (unsigned long)500, std::__ndk1::allocator<char> > >)
PUBLIC 2fe58 0 fmt::v11::detail::tm_writer<std::__ndk1::back_insert_iterator<fmt::v11::basic_memory_buffer<char, (unsigned long)500, std::__ndk1::allocator<char> > >, char, std::__ndk1::chrono::duration<long long, std::__ndk1::ratio<(long)1, (long)1000000> > >::write2(int, fmt::v11::detail::pad_type)
PUBLIC 2ffb0 0 fmt::v11::detail::write_fractional_seconds<char, std::__ndk1::back_insert_iterator<fmt::v11::basic_memory_buffer<char, (unsigned long)500, std::__ndk1::allocator<char> > >, std::__ndk1::chrono::duration<long long, std::__ndk1::ratio<(long)1, (long)1000000> > >(std::__ndk1::back_insert_iterator<fmt::v11::basic_memory_buffer<char, (unsigned long)500, std::__ndk1::allocator<char> > >&, std::__ndk1::chrono::duration<long long, std::__ndk1::ratio<(long)1, (long)1000000> >, int)
PUBLIC 30194 0 fmt::v11::detail::tm_writer<std::__ndk1::back_insert_iterator<fmt::v11::basic_memory_buffer<char, (unsigned long)500, std::__ndk1::allocator<char> > >, char, std::__ndk1::chrono::duration<long long, std::__ndk1::ratio<(long)1, (long)1000000> > >::write_utc_offset(long, fmt::v11::detail::numeric_system)
PUBLIC 303c0 0 fmt::v11::detail::write_escaped_string<char, fmt::v11::detail::counting_iterator>(fmt::v11::detail::counting_iterator, fmt::v11::basic_string_view<char>)
PUBLIC 308e0 0 fmt::v11::detail::write_padded<char, (fmt::v11::align::type)1, fmt::v11::basic_appender<char>, fmt::v11::detail::write<char, fmt::v11::basic_appender<char> >(fmt::v11::basic_appender<char>, fmt::v11::basic_string_view<char>, fmt::v11::format_specs const&)::{lambda(fmt::v11::basic_appender<char>)#1}>(fmt::v11::basic_appender<char>, fmt::v11::format_specs const&, unsigned long, unsigned long, fmt::v11::detail::write<char, fmt::v11::basic_appender<char> >(fmt::v11::basic_appender<char>, fmt::v11::basic_string_view<char>, fmt::v11::format_specs const&)::{lambda(fmt::v11::basic_appender<char>&&)#1})
PUBLIC 30aec 0 fmt::v11::detail::for_each_codepoint<fmt::v11::detail::code_point_index(fmt::v11::basic_string_view<char>, unsigned long)::{lambda(unsigned int, fmt::v11::basic_string_view<char>)#1}>(fmt::v11::basic_string_view<char>, fmt::v11::detail::code_point_index(fmt::v11::basic_string_view<char>, unsigned long)::{lambda(unsigned int, fmt::v11::basic_string_view<char>)#1})
PUBLIC 30f14 0 fmt::v11::detail::write_escaped_cp<fmt::v11::detail::counting_iterator, char>(fmt::v11::detail::counting_iterator, fmt::v11::detail::find_escape_result<char> const&)
PUBLIC 310a8 0 fmt::v11::detail::for_each_codepoint<fmt::v11::detail::compute_width(fmt::v11::basic_string_view<char>)::count_code_points>(fmt::v11::basic_string_view<char>, fmt::v11::detail::compute_width(fmt::v11::basic_string_view<char>)::count_code_points)::{lambda(char const*, char const*)#1}::operator()(char const*, char const*) const
PUBLIC 31260 0 fmt::v11::detail::fill<char, fmt::v11::basic_appender<char> >(fmt::v11::basic_appender<char>, unsigned long, fmt::v11::detail::fill_t const&)
PUBLIC 31430 0 fmt::v11::detail::write_escaped_string<char, fmt::v11::basic_appender<char> >(fmt::v11::basic_appender<char>, fmt::v11::basic_string_view<char>)
PUBLIC 31aac 0 fmt::v11::detail::write_escaped_cp<fmt::v11::basic_appender<char>, char>(fmt::v11::basic_appender<char>, fmt::v11::detail::find_escape_result<char> const&)
PUBLIC 31c90 0 fmt::v11::detail::write_codepoint<(unsigned long)2, char, fmt::v11::basic_appender<char> >(fmt::v11::basic_appender<char>, char, unsigned int)
PUBLIC 31e08 0 fmt::v11::detail::write_codepoint<(unsigned long)4, char, fmt::v11::basic_appender<char> >(fmt::v11::basic_appender<char>, char, unsigned int)
PUBLIC 31f80 0 fmt::v11::detail::write_codepoint<(unsigned long)8, char, fmt::v11::basic_appender<char> >(fmt::v11::basic_appender<char>, char, unsigned int)
PUBLIC 320f8 0 std::__ndk1::__variant_detail::__visitation::__base::__dispatcher<(unsigned long)0>::__dispatch[abi:ne180000]<std::__ndk1::__variant_detail::__dtor<std::__ndk1::__variant_detail::__traits<std::__ndk1::monostate, std::__ndk1::basic_string<char, std::__ndk1::char_traits<char>, std::__ndk1::allocator<char> > >, (std::__ndk1::__variant_detail::_Trait)1>::__destroy[abi:ne180000]()::{lambda(auto:1&)#1}, std::__ndk1::__variant_detail::__base<(std::__ndk1::__variant_detail::__traits<std::__ndk1::monostate, std::__ndk1::basic_string<char, std::__ndk1::char_traits<char>, std::__ndk1::allocator<char> > >)1, std::__ndk1::__variant_detail::__traits, std::__ndk1::allocator<char> >&>(std::__ndk1::__variant_detail::__dtor<std::__ndk1::__variant_detail::__traits<std::__ndk1::monostate, std::__ndk1::basic_string<char, std::__ndk1::char_traits<char>, std::__ndk1::allocator<char> > >, (std::__ndk1::__variant_detail::_Trait)1>, std::__ndk1::__variant_detail::__base<(std::__ndk1::__variant_detail::__traits<std::__ndk1::monostate, std::__ndk1::basic_string<char, std::__ndk1::char_traits<char>, std::__ndk1::allocator<char> > >)1, std::__ndk1::__variant_detail::__traits, std::__ndk1::allocator<char> >&)
PUBLIC 320fc 0 std::__ndk1::__variant_detail::__visitation::__base::__dispatcher<(unsigned long)1>::__dispatch[abi:ne180000]<std::__ndk1::__variant_detail::__dtor<std::__ndk1::__variant_detail::__traits<std::__ndk1::monostate, std::__ndk1::basic_string<char, std::__ndk1::char_traits<char>, std::__ndk1::allocator<char> > >, (std::__ndk1::__variant_detail::_Trait)1>::__destroy[abi:ne180000]()::{lambda(auto:1&)#1}, std::__ndk1::__variant_detail::__base<(std::__ndk1::__variant_detail::__traits<std::__ndk1::monostate, std::__ndk1::basic_string<char, std::__ndk1::char_traits<char>, std::__ndk1::allocator<char> > >)1, std::__ndk1::__variant_detail::__traits, std::__ndk1::allocator<char> >&>(std::__ndk1::__variant_detail::__dtor<std::__ndk1::__variant_detail::__traits<std::__ndk1::monostate, std::__ndk1::basic_string<char, std::__ndk1::char_traits<char>, std::__ndk1::allocator<char> > >, (std::__ndk1::__variant_detail::_Trait)1>, std::__ndk1::__variant_detail::__base<(std::__ndk1::__variant_detail::__traits<std::__ndk1::monostate, std::__ndk1::basic_string<char, std::__ndk1::char_traits<char>, std::__ndk1::allocator<char> > >)1, std::__ndk1::__variant_detail::__traits, std::__ndk1::allocator<char> >&)
PUBLIC 32110 0 geode::modifier::ModifyDerive<hook684<(anonymous namespace)::hook684Parent>, OptionsLayer>::apply()
PUBLIC 32434 0 geode::modifier::ModifyBase<geode::modifier::ModifyDerive<hook684<(anonymous namespace)::hook684Parent>, OptionsLayer> >::apply()
PUBLIC 32438 0 geode::modifier::AsStaticFunction_customSetup<hook684<(anonymous namespace)::hook684Parent>, void (hook684<(anonymous namespace)::hook684Parent>::*)()>::Impl<void (hook684<(anonymous namespace)::hook684Parent>::*)()>::function(hook684<(anonymous namespace)::hook684Parent>*)
PUBLIC 326a4 0 geode::addresser::Addresser::addressOfVirtual<void, OptionsLayer, >(void (OptionsLayer::*)())
PUBLIC 3274c 0 OptionsLayer::OptionsLayer(geode::ZeroConstructorType)
PUBLIC 327dc 0 geode::modifier::ModifyDerive<MyAccountLayer, AccountLayer>::apply()
PUBLIC 32b00 0 geode::modifier::ModifyBase<geode::modifier::ModifyDerive<MyAccountLayer, AccountLayer> >::apply()
PUBLIC 32b04 0 geode::modifier::AsStaticFunction_customSetup<MyAccountLayer, void (MyAccountLayer::*)()>::Impl<void (MyAccountLayer::*)()>::function(MyAccountLayer*)
PUBLIC 32ee0 0 geode::addresser::Addresser::addressOfVirtual<void, AccountLayer, >(void (AccountLayer::*)())
PUBLIC 32f88 0 AccountLayer::AccountLayer(geode::ZeroConstructorType)
PUBLIC 33030 0 MyAccountLayer::onBackups(cocos2d::CCObject*)
PUBLIC 330fc 0 cocos2d::CCSequence::create(cocos2d::CCFiniteTimeAction*, ...)
PUBLIC 33194 0 MyAccountLayer::onBackups2()
PUBLIC 336b4 0 geode::Task<geode::Result<std::__ndk1::__fs::filesystem::path, std::__ndk1::basic_string<char, std::__ndk1::char_traits<char>, std::__ndk1::allocator<char> > >, std::__ndk1::monostate>::~Task()
PUBLIC 33704 0 BackupsPopup::~BackupsPopup()
PUBLIC 33840 0 BackupsPopup::~BackupsPopup()
PUBLIC 33864 0 geode::Popup<std::__ndk1::__fs::filesystem::path const&>::registerWithTouchDispatcher()
PUBLIC 33890 0 geode::Popup<std::__ndk1::__fs::filesystem::path const&>::keyDown(cocos2d::enumKeyCodes)
PUBLIC 338b8 0 cocos2d::CCLayerRGBA::setOpacityModifyRGB(bool)
PUBLIC 338bc 0 cocos2d::CCLayerRGBA::isOpacityModifyRGB()
PUBLIC 338c4 0 BackupsPopup::setup(std::__ndk1::__fs::filesystem::path const&)
PUBLIC 33ea0 0 geode::Popup<std::__ndk1::__fs::filesystem::path const&>::onClose(cocos2d::CCObject*)
PUBLIC 33fe8 0 {virtual override thunk({offset(-320)}, BackupsPopup::~BackupsPopup())}
PUBLIC 33ff0 0 {virtual override thunk({offset(-320)}, BackupsPopup::~BackupsPopup())}
PUBLIC 34018 0 {virtual override thunk({offset(-344)}, geode::Popup<std::__ndk1::__fs::filesystem::path const&>::keyDown(cocos2d::enumKeyCodes))}
PUBLIC 34044 0 {virtual override thunk({offset(-408)}, cocos2d::CCLayerRGBA::setOpacityModifyRGB(bool))}
PUBLIC 34048 0 {virtual override thunk({offset(-408)}, cocos2d::CCLayerRGBA::isOpacityModifyRGB())}
PUBLIC 34050 0 geode::Popup<std::__ndk1::__fs::filesystem::path const&>::~Popup()
PUBLIC 340bc 0 geode::Popup<std::__ndk1::__fs::filesystem::path const&>::~Popup()
PUBLIC 340c0 0 {virtual override thunk({offset(-320)}, geode::Popup<std::__ndk1::__fs::filesystem::path const&>::~Popup())}
PUBLIC 3412c 0 {virtual override thunk({offset(-320)}, geode::Popup<std::__ndk1::__fs::filesystem::path const&>::~Popup())}
PUBLIC 34130 0 geode::Task<geode::Result<std::__ndk1::__fs::filesystem::path, std::__ndk1::basic_string<char, std::__ndk1::char_traits<char>, std::__ndk1::allocator<char> > >, std::__ndk1::monostate>::setListener(geode::EventListenerProtocol*)
PUBLIC 34334 0 geode::EventListener<geode::Task<geode::Result<std::__ndk1::__fs::filesystem::path, std::__ndk1::basic_string<char, std::__ndk1::char_traits<char>, std::__ndk1::allocator<char> > >, std::__ndk1::monostate> >::getPool() const
PUBLIC 34338 0 geode::EventListener<geode::Task<geode::Result<std::__ndk1::__fs::filesystem::path, std::__ndk1::basic_string<char, std::__ndk1::char_traits<char>, std::__ndk1::allocator<char> > >, std::__ndk1::monostate> >::handle(geode::Event*)
PUBLIC 344e4 0 geode::EventListener<geode::Task<geode::Result<std::__ndk1::__fs::filesystem::path, std::__ndk1::basic_string<char, std::__ndk1::char_traits<char>, std::__ndk1::allocator<char> > >, std::__ndk1::monostate> >::~EventListener()
PUBLIC 34580 0 geode::EventListener<geode::Task<geode::Result<std::__ndk1::__fs::filesystem::path, std::__ndk1::basic_string<char, std::__ndk1::char_traits<char>, std::__ndk1::allocator<char> > >, std::__ndk1::monostate> >::~EventListener()
PUBLIC 34624 0 geode::Task<geode::Result<std::__ndk1::__fs::filesystem::path, std::__ndk1::basic_string<char, std::__ndk1::char_traits<char>, std::__ndk1::allocator<char> > >, std::__ndk1::monostate>::setListener(geode::EventListenerProtocol*)::{lambda()#1}::~{lambda()#1}()
PUBLIC 34674 0 geode::Task<geode::Result<std::__ndk1::__fs::filesystem::path, std::__ndk1::basic_string<char, std::__ndk1::char_traits<char>, std::__ndk1::allocator<char> > >, std::__ndk1::monostate>::setListener(geode::EventListenerProtocol*)::{lambda()#2}::~{lambda()#2}()
PUBLIC 346c4 0 std::__ndk1::__function::__func<geode::Task<geode::Result<std::__ndk1::__fs::filesystem::path, std::__ndk1::basic_string<char, std::__ndk1::char_traits<char>, std::__ndk1::allocator<char> > >, std::__ndk1::monostate>::setListener(geode::EventListenerProtocol*)::{lambda()#1}, std::__ndk1::allocator<geode::Task<geode::Result<std::__ndk1::__fs::filesystem::path, std::__ndk1::basic_string<char, std::__ndk1::char_traits<char>, std::__ndk1::allocator<char> > >, std::__ndk1::monostate>::setListener(geode::EventListenerProtocol*)::{lambda()#1}>, void ()>::~__func()
PUBLIC 34720 0 std::__ndk1::__function::__func<geode::Task<geode::Result<std::__ndk1::__fs::filesystem::path, std::__ndk1::basic_string<char, std::__ndk1::char_traits<char>, std::__ndk1::allocator<char> > >, std::__ndk1::monostate>::setListener(geode::EventListenerProtocol*)::{lambda()#1}, std::__ndk1::allocator<geode::Task<geode::Result<std::__ndk1::__fs::filesystem::path, std::__ndk1::basic_string<char, std::__ndk1::char_traits<char>, std::__ndk1::allocator<char> > >, std::__ndk1::monostate>::setListener(geode::EventListenerProtocol*)::{lambda()#1}>, void ()>::~__func()
PUBLIC 3478c 0 std::__ndk1::__function::__func<geode::Task<geode::Result<std::__ndk1::__fs::filesystem::path, std::__ndk1::basic_string<char, std::__ndk1::char_traits<char>, std::__ndk1::allocator<char> > >, std::__ndk1::monostate>::setListener(geode::EventListenerProtocol*)::{lambda()#1}, std::__ndk1::allocator<geode::Task<geode::Result<std::__ndk1::__fs::filesystem::path, std::__ndk1::basic_string<char, std::__ndk1::char_traits<char>, std::__ndk1::allocator<char> > >, std::__ndk1::monostate>::setListener(geode::EventListenerProtocol*)::{lambda()#1}>, void ()>::__clone() const
PUBLIC 347e4 0 std::__ndk1::__function::__func<geode::Task<geode::Result<std::__ndk1::__fs::filesystem::path, std::__ndk1::basic_string<char, std::__ndk1::char_traits<char>, std::__ndk1::allocator<char> > >, std::__ndk1::monostate>::setListener(geode::EventListenerProtocol*)::{lambda()#1}, std::__ndk1::allocator<geode::Task<geode::Result<std::__ndk1::__fs::filesystem::path, std::__ndk1::basic_string<char, std::__ndk1::char_traits<char>, std::__ndk1::allocator<char> > >, std::__ndk1::monostate>::setListener(geode::EventListenerProtocol*)::{lambda()#1}>, void ()>::__clone(std::__ndk1::__function::__base<void ()>*) const
PUBLIC 34830 0 std::__ndk1::__function::__func<geode::Task<geode::Result<std::__ndk1::__fs::filesystem::path, std::__ndk1::basic_string<char, std::__ndk1::char_traits<char>, std::__ndk1::allocator<char> > >, std::__ndk1::monostate>::setListener(geode::EventListenerProtocol*)::{lambda()#1}, std::__ndk1::allocator<geode::Task<geode::Result<std::__ndk1::__fs::filesystem::path, std::__ndk1::basic_string<char, std::__ndk1::char_traits<char>, std::__ndk1::allocator<char> > >, std::__ndk1::monostate>::setListener(geode::EventListenerProtocol*)::{lambda()#1}>, void ()>::destroy()
PUBLIC 34880 0 std::__ndk1::__function::__func<geode::Task<geode::Result<std::__ndk1::__fs::filesystem::path, std::__ndk1::basic_string<char, std::__ndk1::char_traits<char>, std::__ndk1::allocator<char> > >, std::__ndk1::monostate>::setListener(geode::EventListenerProtocol*)::{lambda()#1}, std::__ndk1::allocator<geode::Task<geode::Result<std::__ndk1::__fs::filesystem::path, std::__ndk1::basic_string<char, std::__ndk1::char_traits<char>, std::__ndk1::allocator<char> > >, std::__ndk1::monostate>::setListener(geode::EventListenerProtocol*)::{lambda()#1}>, void ()>::destroy_deallocate()
PUBLIC 348e0 0 std::__ndk1::__function::__func<geode::Task<geode::Result<std::__ndk1::__fs::filesystem::path, std::__ndk1::basic_string<char, std::__ndk1::char_traits<char>, std::__ndk1::allocator<char> > >, std::__ndk1::monostate>::setListener(geode::EventListenerProtocol*)::{lambda()#1}, std::__ndk1::allocator<geode::Task<geode::Result<std::__ndk1::__fs::filesystem::path, std::__ndk1::basic_string<char, std::__ndk1::char_traits<char>, std::__ndk1::allocator<char> > >, std::__ndk1::monostate>::setListener(geode::EventListenerProtocol*)::{lambda()#1}>, void ()>::operator()()
PUBLIC 34ab0 0 std::__ndk1::__function::__func<geode::Task<geode::Result<std::__ndk1::__fs::filesystem::path, std::__ndk1::basic_string<char, std::__ndk1::char_traits<char>, std::__ndk1::allocator<char> > >, std::__ndk1::monostate>::setListener(geode::EventListenerProtocol*)::{lambda()#1}, std::__ndk1::allocator<geode::Task<geode::Result<std::__ndk1::__fs::filesystem::path, std::__ndk1::basic_string<char, std::__ndk1::char_traits<char>, std::__ndk1::allocator<char> > >, std::__ndk1::monostate>::setListener(geode::EventListenerProtocol*)::{lambda()#1}>, void ()>::target(std::type_info const&) const
PUBLIC 34acc 0 std::__ndk1::__function::__func<geode::Task<geode::Result<std::__ndk1::__fs::filesystem::path, std::__ndk1::basic_string<char, std::__ndk1::char_traits<char>, std::__ndk1::allocator<char> > >, std::__ndk1::monostate>::setListener(geode::EventListenerProtocol*)::{lambda()#1}, std::__ndk1::allocator<geode::Task<geode::Result<std::__ndk1::__fs::filesystem::path, std::__ndk1::basic_string<char, std::__ndk1::char_traits<char>, std::__ndk1::allocator<char> > >, std::__ndk1::monostate>::setListener(geode::EventListenerProtocol*)::{lambda()#1}>, void ()>::target_type() const
PUBLIC 34ad8 0 geode::Task<geode::Result<std::__ndk1::__fs::filesystem::path, std::__ndk1::basic_string<char, std::__ndk1::char_traits<char>, std::__ndk1::allocator<char> > >, std::__ndk1::monostate>::Event::~Event()
PUBLIC 34b38 0 geode::Task<geode::Result<std::__ndk1::__fs::filesystem::path, std::__ndk1::basic_string<char, std::__ndk1::char_traits<char>, std::__ndk1::allocator<char> > >, std::__ndk1::monostate>::Event::~Event()
PUBLIC 34ba8 0 std::__ndk1::__function::__func<geode::Task<geode::Result<std::__ndk1::__fs::filesystem::path, std::__ndk1::basic_string<char, std::__ndk1::char_traits<char>, std::__ndk1::allocator<char> > >, std::__ndk1::monostate>::setListener(geode::EventListenerProtocol*)::{lambda()#2}, std::__ndk1::allocator<geode::Task<geode::Result<std::__ndk1::__fs::filesystem::path, std::__ndk1::basic_string<char, std::__ndk1::char_traits<char>, std::__ndk1::allocator<char> > >, std::__ndk1::monostate>::setListener(geode::EventListenerProtocol*)::{lambda()#2}>, void ()>::~__func()
PUBLIC 34c04 0 std::__ndk1::__function::__func<geode::Task<geode::Result<std::__ndk1::__fs::filesystem::path, std::__ndk1::basic_string<char, std::__ndk1::char_traits<char>, std::__ndk1::allocator<char> > >, std::__ndk1::monostate>::setListener(geode::EventListenerProtocol*)::{lambda()#2}, std::__ndk1::allocator<geode::Task<geode::Result<std::__ndk1::__fs::filesystem::path, std::__ndk1::basic_string<char, std::__ndk1::char_traits<char>, std::__ndk1::allocator<char> > >, std::__ndk1::monostate>::setListener(geode::EventListenerProtocol*)::{lambda()#2}>, void ()>::~__func()
PUBLIC 34c70 0 std::__ndk1::__function::__func<geode::Task<geode::Result<std::__ndk1::__fs::filesystem::path, std::__ndk1::basic_string<char, std::__ndk1::char_traits<char>, std::__ndk1::allocator<char> > >, std::__ndk1::monostate>::setListener(geode::EventListenerProtocol*)::{lambda()#2}, std::__ndk1::allocator<geode::Task<geode::Result<std::__ndk1::__fs::filesystem::path, std::__ndk1::basic_string<char, std::__ndk1::char_traits<char>, std::__ndk1::allocator<char> > >, std::__ndk1::monostate>::setListener(geode::EventListenerProtocol*)::{lambda()#2}>, void ()>::__clone() const
PUBLIC 34cc8 0 std::__ndk1::__function::__func<geode::Task<geode::Result<std::__ndk1::__fs::filesystem::path, std::__ndk1::basic_string<char, std::__ndk1::char_traits<char>, std::__ndk1::allocator<char> > >, std::__ndk1::monostate>::setListener(geode::EventListenerProtocol*)::{lambda()#2}, std::__ndk1::allocator<geode::Task<geode::Result<std::__ndk1::__fs::filesystem::path, std::__ndk1::basic_string<char, std::__ndk1::char_traits<char>, std::__ndk1::allocator<char> > >, std::__ndk1::monostate>::setListener(geode::EventListenerProtocol*)::{lambda()#2}>, void ()>::__clone(std::__ndk1::__function::__base<void ()>*) const
PUBLIC 34d14 0 std::__ndk1::__function::__func<geode::Task<geode::Result<std::__ndk1::__fs::filesystem::path, std::__ndk1::basic_string<char, std::__ndk1::char_traits<char>, std::__ndk1::allocator<char> > >, std::__ndk1::monostate>::setListener(geode::EventListenerProtocol*)::{lambda()#2}, std::__ndk1::allocator<geode::Task<geode::Result<std::__ndk1::__fs::filesystem::path, std::__ndk1::basic_string<char, std::__ndk1::char_traits<char>, std::__ndk1::allocator<char> > >, std::__ndk1::monostate>::setListener(geode::EventListenerProtocol*)::{lambda()#2}>, void ()>::destroy()
PUBLIC 34d64 0 std::__ndk1::__function::__func<geode::Task<geode::Result<std::__ndk1::__fs::filesystem::path, std::__ndk1::basic_string<char, std::__ndk1::char_traits<char>, std::__ndk1::allocator<char> > >, std::__ndk1::monostate>::setListener(geode::EventListenerProtocol*)::{lambda()#2}, std::__ndk1::allocator<geode::Task<geode::Result<std::__ndk1::__fs::filesystem::path, std::__ndk1::basic_string<char, std::__ndk1::char_traits<char>, std::__ndk1::allocator<char> > >, std::__ndk1::monostate>::setListener(geode::EventListenerProtocol*)::{lambda()#2}>, void ()>::destroy_deallocate()
PUBLIC 34dc4 0 std::__ndk1::__function::__func<geode::Task<geode::Result<std::__ndk1::__fs::filesystem::path, std::__ndk1::basic_string<char, std::__ndk1::char_traits<char>, std::__ndk1::allocator<char> > >, std::__ndk1::monostate>::setListener(geode::EventListenerProtocol*)::{lambda()#2}, std::__ndk1::allocator<geode::Task<geode::Result<std::__ndk1::__fs::filesystem::path, std::__ndk1::basic_string<char, std::__ndk1::char_traits<char>, std::__ndk1::allocator<char> > >, std::__ndk1::monostate>::setListener(geode::EventListenerProtocol*)::{lambda()#2}>, void ()>::operator()()
PUBLIC 34f88 0 std::__ndk1::__function::__func<geode::Task<geode::Result<std::__ndk1::__fs::filesystem::path, std::__ndk1::basic_string<char, std::__ndk1::char_traits<char>, std::__ndk1::allocator<char> > >, std::__ndk1::monostate>::setListener(geode::EventListenerProtocol*)::{lambda()#2}, std::__ndk1::allocator<geode::Task<geode::Result<std::__ndk1::__fs::filesystem::path, std::__ndk1::basic_string<char, std::__ndk1::char_traits<char>, std::__ndk1::allocator<char> > >, std::__ndk1::monostate>::setListener(geode::EventListenerProtocol*)::{lambda()#2}>, void ()>::target(std::type_info const&) const
PUBLIC 34fa4 0 std::__ndk1::__function::__func<geode::Task<geode::Result<std::__ndk1::__fs::filesystem::path, std::__ndk1::basic_string<char, std::__ndk1::char_traits<char>, std::__ndk1::allocator<char> > >, std::__ndk1::monostate>::setListener(geode::EventListenerProtocol*)::{lambda()#2}, std::__ndk1::allocator<geode::Task<geode::Result<std::__ndk1::__fs::filesystem::path, std::__ndk1::basic_string<char, std::__ndk1::char_traits<char>, std::__ndk1::allocator<char> > >, std::__ndk1::monostate>::setListener(geode::EventListenerProtocol*)::{lambda()#2}>, void ()>::target_type() const
PUBLIC 34fb0 0 std::__ndk1::__throw_bad_function_call[abi:ne180000]()
PUBLIC 34fe4 0 std::__ndk1::bad_function_call::~bad_function_call()
PUBLIC 35008 0 BackupsPopup::onImport(cocos2d::CCObject*)
PUBLIC 351ac 0 BackupsPopup::onNew(cocos2d::CCObject*)
PUBLIC 35390 0 BackupsPopup::onImportPicked(geode::Task<geode::Result<std::__ndk1::__fs::filesystem::path, std::__ndk1::basic_string<char, std::__ndk1::char_traits<char>, std::__ndk1::allocator<char> > >, std::__ndk1::monostate>::Event*)
PUBLIC 35718 0 BackupsPopup::reload()
PUBLIC 37d10 0 fmt::v11::detail::value<fmt::v11::context>::format_custom_arg<gd::string, fmt::v11::formatter<gd::string, char, void> >(void*, fmt::v11::basic_format_parse_context<char>&, fmt::v11::context&)
PUBLIC 37ee4 0 fmt::v11::detail::parse_format_specs<char>(char const*, char const*, fmt::v11::detail::dynamic_format_specs<char>&, fmt::v11::basic_format_parse_context<char>&, fmt::v11::detail::type)
PUBLIC 38398 0 fmt::v11::detail::handle_dynamic_spec<fmt::v11::detail::precision_checker, fmt::v11::context>(int&, fmt::v11::detail::arg_ref<fmt::v11::context::char_type>, fmt::v11::context&)
PUBLIC 384ac 0 fmt::v11::detail::get_dynamic_spec<fmt::v11::detail::precision_checker, fmt::v11::basic_format_arg<fmt::v11::context> >(fmt::v11::basic_format_arg<fmt::v11::context>)
PUBLIC 38540 0 BackupsPopup::onImport(cocos2d::CCObject*)::{lambda(auto:1, bool)#1}::~{lambda(auto:1, bool)#1}()
PUBLIC 3855c 0 std::__ndk1::__function::__func<BackupsPopup::onImport(cocos2d::CCObject*)::{lambda(auto:1, bool)#1}, std::__ndk1::allocator<BackupsPopup::onImport(cocos2d::CCObject*)::{lambda(auto:1, bool)#1}>, void (FLAlertLayer*, bool)>::~__func()
PUBLIC 3858c 0 std::__ndk1::__function::__func<BackupsPopup::onImport(cocos2d::CCObject*)::{lambda(auto:1, bool)#1}, std::__ndk1::allocator<BackupsPopup::onImport(cocos2d::CCObject*)::{lambda(auto:1, bool)#1}>, void (FLAlertLayer*, bool)>::~__func()
PUBLIC 385c8 0 std::__ndk1::__function::__func<BackupsPopup::onImport(cocos2d::CCObject*)::{lambda(auto:1, bool)#1}, std::__ndk1::allocator<BackupsPopup::onImport(cocos2d::CCObject*)::{lambda(auto:1, bool)#1}>, void (FLAlertLayer*, bool)>::__clone() const
PUBLIC 38620 0 std::__ndk1::__function::__func<BackupsPopup::onImport(cocos2d::CCObject*)::{lambda(auto:1, bool)#1}, std::__ndk1::allocator<BackupsPopup::onImport(cocos2d::CCObject*)::{lambda(auto:1, bool)#1}>, void (FLAlertLayer*, bool)>::__clone(std::__ndk1::__function::__base<void (FLAlertLayer*, bool)>*) const
PUBLIC 3863c 0 std::__ndk1::__function::__func<BackupsPopup::onImport(cocos2d::CCObject*)::{lambda(auto:1, bool)#1}, std::__ndk1::allocator<BackupsPopup::onImport(cocos2d::CCObject*)::{lambda(auto:1, bool)#1}>, void (FLAlertLayer*, bool)>::destroy()
PUBLIC 3865c 0 std::__ndk1::__function::__func<BackupsPopup::onImport(cocos2d::CCObject*)::{lambda(auto:1, bool)#1}, std::__ndk1::allocator<BackupsPopup::onImport(cocos2d::CCObject*)::{lambda(auto:1, bool)#1}>, void (FLAlertLayer*, bool)>::destroy_deallocate()
PUBLIC 3868c 0 std::__ndk1::__function::__func<BackupsPopup::onImport(cocos2d::CCObject*)::{lambda(auto:1, bool)#1}, std::__ndk1::allocator<BackupsPopup::onImport(cocos2d::CCObject*)::{lambda(auto:1, bool)#1}>, void (FLAlertLayer*, bool)>::operator()(FLAlertLayer*&&, bool&&)
PUBLIC 387f4 0 std::__ndk1::__function::__func<BackupsPopup::onImport(cocos2d::CCObject*)::{lambda(auto:1, bool)#1}, std::__ndk1::allocator<BackupsPopup::onImport(cocos2d::CCObject*)::{lambda(auto:1, bool)#1}>, void (FLAlertLayer*, bool)>::target(std::type_info const&) const
PUBLIC 38810 0 std::__ndk1::__function::__func<BackupsPopup::onImport(cocos2d::CCObject*)::{lambda(auto:1, bool)#1}, std::__ndk1::allocator<BackupsPopup::onImport(cocos2d::CCObject*)::{lambda(auto:1, bool)#1}>, void (FLAlertLayer*, bool)>::target_type() const
PUBLIC 3881c 0 geode::utils::file::FilePickOptions::~FilePickOptions()
PUBLIC 388a4 0 std::__ndk1::vector<geode::utils::file::FilePickOptions::Filter, std::__ndk1::allocator<geode::utils::file::FilePickOptions::Filter> >::__destroy_vector::operator()[abi:ne180000]()
PUBLIC 38988 0 geode::Ref<BackupsPopup>::~Ref()
PUBLIC 389a4 0 std::__ndk1::__function::__base<void (geode::Task<geode::Result<std::__ndk1::__fs::filesystem::path, std::__ndk1::basic_string<char, std::__ndk1::char_traits<char>, std::__ndk1::allocator<char> > >, std::__ndk1::monostate>::Event*)>::~__base()
PUBLIC 389a8 0 std::__ndk1::__function::__func<std::__ndk1::__bind<void (BackupsPopup::*&)(geode::Task<geode::Result<std::__ndk1::__fs::filesystem::path, std::__ndk1::basic_string<char, std::__ndk1::char_traits<char>, std::__ndk1::allocator<char> > >, std::__ndk1::monostate>::Event*), BackupsPopup*&, std::__ndk1::placeholders::__ph<1> const&>, std::__ndk1::allocator<std::__ndk1::__bind<void (BackupsPopup::*&)(geode::Task<geode::Result<std::__ndk1::__fs::filesystem::path, std::__ndk1::basic_string<char, std::__ndk1::char_traits<char>, std::__ndk1::allocator<char> > >, std::__ndk1::monostate>::Event*), BackupsPopup*&, std::__ndk1::placeholders::__ph<1> const&> >, void (geode::Task<geode::Result<std::__ndk1::__fs::filesystem::path, std::__ndk1::basic_string<char, std::__ndk1::char_traits<char>, std::__ndk1::allocator<char> > >, std::__ndk1::monostate>::Event*)>::~__func()
PUBLIC 389ac 0 std::__ndk1::__function::__func<std::__ndk1::__bind<void (BackupsPopup::*&)(geode::Task<geode::Result<std::__ndk1::__fs::filesystem::path, std::__ndk1::basic_string<char, std::__ndk1::char_traits<char>, std::__ndk1::allocator<char> > >, std::__ndk1::monostate>::Event*), BackupsPopup*&, std::__ndk1::placeholders::__ph<1> const&>, std::__ndk1::allocator<std::__ndk1::__bind<void (BackupsPopup::*&)(geode::Task<geode::Result<std::__ndk1::__fs::filesystem::path, std::__ndk1::basic_string<char, std::__ndk1::char_traits<char>, std::__ndk1::allocator<char> > >, std::__ndk1::monostate>::Event*), BackupsPopup*&, std::__ndk1::placeholders::__ph<1> const&> >, void (geode::Task<geode::Result<std::__ndk1::__fs::filesystem::path, std::__ndk1::basic_string<char, std::__ndk1::char_traits<char>, std::__ndk1::allocator<char> > >, std::__ndk1::monostate>::Event*)>::__clone() const
PUBLIC 389ec 0 std::__ndk1::__function::__func<std::__ndk1::__bind<void (BackupsPopup::*&)(geode::Task<geode::Result<std::__ndk1::__fs::filesystem::path, std::__ndk1::basic_string<char, std::__ndk1::char_traits<char>, std::__ndk1::allocator<char> > >, std::__ndk1::monostate>::Event*), BackupsPopup*&, std::__ndk1::placeholders::__ph<1> const&>, std::__ndk1::allocator<std::__ndk1::__bind<void (BackupsPopup::*&)(geode::Task<geode::Result<std::__ndk1::__fs::filesystem::path, std::__ndk1::basic_string<char, std::__ndk1::char_traits<char>, std::__ndk1::allocator<char> > >, std::__ndk1::monostate>::Event*), BackupsPopup*&, std::__ndk1::placeholders::__ph<1> const&> >, void (geode::Task<geode::Result<std::__ndk1::__fs::filesystem::path, std::__ndk1::basic_string<char, std::__ndk1::char_traits<char>, std::__ndk1::allocator<char> > >, std::__ndk1::monostate>::Event*)>::__clone(std::__ndk1::__function::__base<void (geode::Task<geode::Result<std::__ndk1::__fs::filesystem::path, std::__ndk1::basic_string<char, std::__ndk1::char_traits<char>, std::__ndk1::allocator<char> > >, std::__ndk1::monostate>::Event*)>*) const
PUBLIC 38a0c 0 std::__ndk1::__function::__func<std::__ndk1::__bind<void (BackupsPopup::*&)(geode::Task<geode::Result<std::__ndk1::__fs::filesystem::path, std::__ndk1::basic_string<char, std::__ndk1::char_traits<char>, std::__ndk1::allocator<char> > >, std::__ndk1::monostate>::Event*), BackupsPopup*&, std::__ndk1::placeholders::__ph<1> const&>, std::__ndk1::allocator<std::__ndk1::__bind<void (BackupsPopup::*&)(geode::Task<geode::Result<std::__ndk1::__fs::filesystem::path, std::__ndk1::basic_string<char, std::__ndk1::char_traits<char>, std::__ndk1::allocator<char> > >, std::__ndk1::monostate>::Event*), BackupsPopup*&, std::__ndk1::placeholders::__ph<1> const&> >, void (geode::Task<geode::Result<std::__ndk1::__fs::filesystem::path, std::__ndk1::basic_string<char, std::__ndk1::char_traits<char>, std::__ndk1::allocator<char> > >, std::__ndk1::monostate>::Event*)>::destroy()
PUBLIC 38a10 0 std::__ndk1::__function::__func<std::__ndk1::__bind<void (BackupsPopup::*&)(geode::Task<geode::Result<std::__ndk1::__fs::filesystem::path, std::__ndk1::basic_string<char, std::__ndk1::char_traits<char>, std::__ndk1::allocator<char> > >, std::__ndk1::monostate>::Event*), BackupsPopup*&, std::__ndk1::placeholders::__ph<1> const&>, std::__ndk1::allocator<std::__ndk1::__bind<void (BackupsPopup::*&)(geode::Task<geode::Result<std::__ndk1::__fs::filesystem::path, std::__ndk1::basic_string<char, std::__ndk1::char_traits<char>, std::__ndk1::allocator<char> > >, std::__ndk1::monostate>::Event*), BackupsPopup*&, std::__ndk1::placeholders::__ph<1> const&> >, void (geode::Task<geode::Result<std::__ndk1::__fs::filesystem::path, std::__ndk1::basic_string<char, std::__ndk1::char_traits<char>, std::__ndk1::allocator<char> > >, std::__ndk1::monostate>::Event*)>::destroy_deallocate()
PUBLIC 38a14 0 std::__ndk1::__function::__func<std::__ndk1::__bind<void (BackupsPopup::*&)(geode::Task<geode::Result<std::__ndk1::__fs::filesystem::path, std::__ndk1::basic_string<char, std::__ndk1::char_traits<char>, std::__ndk1::allocator<char> > >, std::__ndk1::monostate>::Event*), BackupsPopup*&, std::__ndk1::placeholders::__ph<1> const&>, std::__ndk1::allocator<std::__ndk1::__bind<void (BackupsPopup::*&)(geode::Task<geode::Result<std::__ndk1::__fs::filesystem::path, std::__ndk1::basic_string<char, std::__ndk1::char_traits<char>, std::__ndk1::allocator<char> > >, std::__ndk1::monostate>::Event*), BackupsPopup*&, std::__ndk1::placeholders::__ph<1> const&> >, void (geode::Task<geode::Result<std::__ndk1::__fs::filesystem::path, std::__ndk1::basic_string<char, std::__ndk1::char_traits<char>, std::__ndk1::allocator<char> > >, std::__ndk1::monostate>::Event*)>::operator()(geode::Task<geode::Result<std::__ndk1::__fs::filesystem::path, std::__ndk1::basic_string<char, std::__ndk1::char_traits<char>, std::__ndk1::allocator<char> > >, std::__ndk1::monostate>::Event*&&)
PUBLIC 38a34 0 std::__ndk1::__function::__func<std::__ndk1::__bind<void (BackupsPopup::*&)(geode::Task<geode::Result<std::__ndk1::__fs::filesystem::path, std::__ndk1::basic_string<char, std::__ndk1::char_traits<char>, std::__ndk1::allocator<char> > >, std::__ndk1::monostate>::Event*), BackupsPopup*&, std::__ndk1::placeholders::__ph<1> const&>, std::__ndk1::allocator<std::__ndk1::__bind<void (BackupsPopup::*&)(geode::Task<geode::Result<std::__ndk1::__fs::filesystem::path, std::__ndk1::basic_string<char, std::__ndk1::char_traits<char>, std::__ndk1::allocator<char> > >, std::__ndk1::monostate>::Event*), BackupsPopup*&, std::__ndk1::placeholders::__ph<1> const&> >, void (geode::Task<geode::Result<std::__ndk1::__fs::filesystem::path, std::__ndk1::basic_string<char, std::__ndk1::char_traits<char>, std::__ndk1::allocator<char> > >, std::__ndk1::monostate>::Event*)>::target(std::type_info const&) const
PUBLIC 38a50 0 std::__ndk1::__function::__func<std::__ndk1::__bind<void (BackupsPopup::*&)(geode::Task<geode::Result<std::__ndk1::__fs::filesystem::path, std::__ndk1::basic_string<char, std::__ndk1::char_traits<char>, std::__ndk1::allocator<char> > >, std::__ndk1::monostate>::Event*), BackupsPopup*&, std::__ndk1::placeholders::__ph<1> const&>, std::__ndk1::allocator<std::__ndk1::__bind<void (BackupsPopup::*&)(geode::Task<geode::Result<std::__ndk1::__fs::filesystem::path, std::__ndk1::basic_string<char, std::__ndk1::char_traits<char>, std::__ndk1::allocator<char> > >, std::__ndk1::monostate>::Event*), BackupsPopup*&, std::__ndk1::placeholders::__ph<1> const&> >, void (geode::Task<geode::Result<std::__ndk1::__fs::filesystem::path, std::__ndk1::basic_string<char, std::__ndk1::char_traits<char>, std::__ndk1::allocator<char> > >, std::__ndk1::monostate>::Event*)>::target_type() const
PUBLIC 38a5c 0 Backup::migrateAll(std::__ndk1::__fs::filesystem::path const&, std::__ndk1::__fs::filesystem::path const&)
PUBLIC 38ea0 0 Backup::migrate(std::__ndk1::__fs::filesystem::path const&, std::__ndk1::__fs::filesystem::path const&)
PUBLIC 398a8 0 _ZN5geode15UnwrapExceptionC2IRNSt6__ndk14__fs10filesystem4pathEQsr4implE18IsStringStreamableIT_EEENS_4impl5OkTagEOS7_
PUBLIC 39ab4 0 BackupsPopup::onRestore(cocos2d::CCObject*)
PUBLIC 3a284 0 BackupsPopup::onDelete(cocos2d::CCObject*)
PUBLIC 3a48c 0 std::__ndk1::__fs::filesystem::relative[abi:ne180000](std::__ndk1::__fs::filesystem::path const&, std::__ndk1::__fs::filesystem::path const)
PUBLIC 3a5ac 0 geode::impl::ResultData<unsigned long, std::__ndk1::basic_string<char, std::__ndk1::char_traits<char>, std::__ndk1::allocator<char> > >::~ResultData()
PUBLIC 3a620 0 DS_Dictionary::~DS_Dictionary()
PUBLIC 3a650 0 geode::JsonExpectedValue::tryGet<unsigned long>()
PUBLIC 3a94c 0 std::__ndk1::__variant_detail::__visitation::__base::__dispatcher<(unsigned long)0>::__dispatch[abi:ne180000]<std::__ndk1::__variant_detail::__dtor<std::__ndk1::__variant_detail::__traits<BackupInfo, std::__ndk1::basic_string<char, std::__ndk1::char_traits<char>, std::__ndk1::allocator<char> > >, (std::__ndk1::__variant_detail::_Trait)1>::__destroy[abi:ne180000]()::{lambda(auto:1&)#1}, std::__ndk1::__variant_detail::__base<(std::__ndk1::__variant_detail::__traits<BackupInfo, std::__ndk1::basic_string<char, std::__ndk1::char_traits<char>, std::__ndk1::allocator<char> > >)1, std::__ndk1::__variant_detail::__traits, std::__ndk1::allocator<char> >&>(std::__ndk1::__variant_detail::__dtor<std::__ndk1::__variant_detail::__traits<BackupInfo, std::__ndk1::basic_string<char, std::__ndk1::char_traits<char>, std::__ndk1::allocator<char> > >, (std::__ndk1::__variant_detail::_Trait)1>, std::__ndk1::__variant_detail::__base<(std::__ndk1::__variant_detail::__traits<BackupInfo, std::__ndk1::basic_string<char, std::__ndk1::char_traits<char>, std::__ndk1::allocator<char> > >)1, std::__ndk1::__variant_detail::__traits, std::__ndk1::allocator<char> >&)
PUBLIC 3a950 0 std::__ndk1::__variant_detail::__visitation::__base::__dispatcher<(unsigned long)1>::__dispatch[abi:ne180000]<std::__ndk1::__variant_detail::__dtor<std::__ndk1::__variant_detail::__traits<BackupInfo, std::__ndk1::basic_string<char, std::__ndk1::char_traits<char>, std::__ndk1::allocator<char> > >, (std::__ndk1::__variant_detail::_Trait)1>::__destroy[abi:ne180000]()::{lambda(auto:1&)#1}, std::__ndk1::__variant_detail::__base<(std::__ndk1::__variant_detail::__traits<BackupInfo, std::__ndk1::basic_string<char, std::__ndk1::char_traits<char>, std::__ndk1::allocator<char> > >)1, std::__ndk1::__variant_detail::__traits, std::__ndk1::allocator<char> >&>(std::__ndk1::__variant_detail::__dtor<std::__ndk1::__variant_detail::__traits<BackupInfo, std::__ndk1::basic_string<char, std::__ndk1::char_traits<char>, std::__ndk1::allocator<char> > >, (std::__ndk1::__variant_detail::_Trait)1>, std::__ndk1::__variant_detail::__base<(std::__ndk1::__variant_detail::__traits<BackupInfo, std::__ndk1::basic_string<char, std::__ndk1::char_traits<char>, std::__ndk1::allocator<char> > >)1, std::__ndk1::__variant_detail::__traits, std::__ndk1::allocator<char> >&)
PUBLIC 3a964 0 std::__ndk1::__variant_detail::__visitation::__base::__dispatcher<(unsigned long)0>::__dispatch[abi:ne180000]<std::__ndk1::__variant_detail::__dtor<std::__ndk1::__variant_detail::__traits<unsigned long, std::__ndk1::basic_string<char, std::__ndk1::char_traits<char>, std::__ndk1::allocator<char> > >, (std::__ndk1::__variant_detail::_Trait)1>::__destroy[abi:ne180000]()::{lambda(auto:1&)#1}, std::__ndk1::__variant_detail::__base<(std::__ndk1::__variant_detail::__traits<unsigned long, std::__ndk1::basic_string<char, std::__ndk1::char_traits<char>, std::__ndk1::allocator<char> > >)1, unsigned long, std::__ndk1::allocator<char> >&>(std::__ndk1::__variant_detail::__dtor<std::__ndk1::__variant_detail::__traits<unsigned long, std::__ndk1::basic_string<char, std::__ndk1::char_traits<char>, std::__ndk1::allocator<char> > >, (std::__ndk1::__variant_detail::_Trait)1>, std::__ndk1::__variant_detail::__base<(std::__ndk1::__variant_detail::__traits<unsigned long, std::__ndk1::basic_string<char, std::__ndk1::char_traits<char>, std::__ndk1::allocator<char> > >)1, unsigned long, std::__ndk1::allocator<char> >&)
PUBLIC 3a968 0 std::__ndk1::__variant_detail::__visitation::__base::__dispatcher<(unsigned long)1>::__dispatch[abi:ne180000]<std::__ndk1::__variant_detail::__dtor<std::__ndk1::__variant_detail::__traits<unsigned long, std::__ndk1::basic_string<char, std::__ndk1::char_traits<char>, std::__ndk1::allocator<char> > >, (std::__ndk1::__variant_detail::_Trait)1>::__destroy[abi:ne180000]()::{lambda(auto:1&)#1}, std::__ndk1::__variant_detail::__base<(std::__ndk1::__variant_detail::__traits<unsigned long, std::__ndk1::basic_string<char, std::__ndk1::char_traits<char>, std::__ndk1::allocator<char> > >)1, unsigned long, std::__ndk1::allocator<char> >&>(std::__ndk1::__variant_detail::__dtor<std::__ndk1::__variant_detail::__traits<unsigned long, std::__ndk1::basic_string<char, std::__ndk1::char_traits<char>, std::__ndk1::allocator<char> > >, (std::__ndk1::__variant_detail::_Trait)1>, std::__ndk1::__variant_detail::__base<(std::__ndk1::__variant_detail::__traits<unsigned long, std::__ndk1::basic_string<char, std::__ndk1::char_traits<char>, std::__ndk1::allocator<char> > >)1, unsigned long, std::__ndk1::allocator<char> >&)
PUBLIC 3a97c 0 _ZNSt6__ndk14pairINS_12basic_stringIcNS_11char_traitsIcEENS_9allocatorIcEEEEN7matjson5ValueEEC2B8ne180000IRA13_KcRKiTnNS_9enable_ifIXclsr10_CheckArgsE17__enable_implicitIT_T0_EEEiE4typeELi0EEEOSH_OSI_
PUBLIC 3aa40 0 BackupsPopup::onRestore(cocos2d::CCObject*)::{lambda(auto:1, bool)#1}::~{lambda(auto:1, bool)#1}()
PUBLIC 3aa7c 0 geode::cocos::CCMenuItemExt::LambdaCallback<CCMenuItemToggler>::execute(cocos2d::CCNode*)
PUBLIC 3aaec 0 geode::cocos::CCMenuItemExt::LambdaCallback<CCMenuItemToggler>::~LambdaCallback()
PUBLIC 3ab48 0 geode::cocos::CCMenuItemExt::LambdaCallback<CCMenuItemToggler>::~LambdaCallback()
PUBLIC 3abac 0 std::__ndk1::__function::__base<void (CCMenuItemToggler*)>::~__base()
PUBLIC 3abb0 0 std::__ndk1::__function::__func<BackupsPopup::onRestore(cocos2d::CCObject*)::{lambda(auto:1*)#1}, std::__ndk1::allocator<BackupsPopup::onRestore(cocos2d::CCObject*)::{lambda(auto:1*)#1}>, void (CCMenuItemToggler*)>::~__func()
PUBLIC 3abb4 0 std::__ndk1::__function::__func<BackupsPopup::onRestore(cocos2d::CCObject*)::{lambda(auto:1*)#1}, std::__ndk1::allocator<BackupsPopup::onRestore(cocos2d::CCObject*)::{lambda(auto:1*)#1}>, void (CCMenuItemToggler*)>::__clone() const
PUBLIC 3abd8 0 std::__ndk1::__function::__func<BackupsPopup::onRestore(cocos2d::CCObject*)::{lambda(auto:1*)#1}, std::__ndk1::allocator<BackupsPopup::onRestore(cocos2d::CCObject*)::{lambda(auto:1*)#1}>, void (CCMenuItemToggler*)>::__clone(std::__ndk1::__function::__base<void (CCMenuItemToggler*)>*) const
PUBLIC 3abe8 0 std::__ndk1::__function::__func<BackupsPopup::onRestore(cocos2d::CCObject*)::{lambda(auto:1*)#1}, std::__ndk1::allocator<BackupsPopup::onRestore(cocos2d::CCObject*)::{lambda(auto:1*)#1}>, void (CCMenuItemToggler*)>::destroy()
PUBLIC 3abec 0 std::__ndk1::__function::__func<BackupsPopup::onRestore(cocos2d::CCObject*)::{lambda(auto:1*)#1}, std::__ndk1::allocator<BackupsPopup::onRestore(cocos2d::CCObject*)::{lambda(auto:1*)#1}>, void (CCMenuItemToggler*)>::destroy_deallocate()
PUBLIC 3abf0 0 std::__ndk1::__function::__func<BackupsPopup::onRestore(cocos2d::CCObject*)::{lambda(auto:1*)#1}, std::__ndk1::allocator<BackupsPopup::onRestore(cocos2d::CCObject*)::{lambda(auto:1*)#1}>, void (CCMenuItemToggler*)>::operator()(CCMenuItemToggler*&&)
PUBLIC 3ac08 0 std::__ndk1::__function::__func<BackupsPopup::onRestore(cocos2d::CCObject*)::{lambda(auto:1*)#1}, std::__ndk1::allocator<BackupsPopup::onRestore(cocos2d::CCObject*)::{lambda(auto:1*)#1}>, void (CCMenuItemToggler*)>::target(std::type_info const&) const
PUBLIC 3ac24 0 std::__ndk1::__function::__func<BackupsPopup::onRestore(cocos2d::CCObject*)::{lambda(auto:1*)#1}, std::__ndk1::allocator<BackupsPopup::onRestore(cocos2d::CCObject*)::{lambda(auto:1*)#1}>, void (CCMenuItemToggler*)>::target_type() const
PUBLIC 3ac30 0 std::__ndk1::__function::__func<BackupsPopup::onRestore(cocos2d::CCObject*)::{lambda(auto:1, bool)#1}, std::__ndk1::allocator<BackupsPopup::onRestore(cocos2d::CCObject*)::{lambda(auto:1, bool)#1}>, void (FLAlertLayer*, bool)>::~__func()
PUBLIC 3ac78 0 std::__ndk1::__function::__func<BackupsPopup::onRestore(cocos2d::CCObject*)::{lambda(auto:1, bool)#1}, std::__ndk1::allocator<BackupsPopup::onRestore(cocos2d::CCObject*)::{lambda(auto:1, bool)#1}>, void (FLAlertLayer*, bool)>::~__func()
PUBLIC 3acc4 0 std::__ndk1::__function::__func<BackupsPopup::onRestore(cocos2d::CCObject*)::{lambda(auto:1, bool)#1}, std::__ndk1::allocator<BackupsPopup::onRestore(cocos2d::CCObject*)::{lambda(auto:1, bool)#1}>, void (FLAlertLayer*, bool)>::__clone() const
PUBLIC 3ad5c 0 std::__ndk1::__function::__func<BackupsPopup::onRestore(cocos2d::CCObject*)::{lambda(auto:1, bool)#1}, std::__ndk1::allocator<BackupsPopup::onRestore(cocos2d::CCObject*)::{lambda(auto:1, bool)#1}>, void (FLAlertLayer*, bool)>::__clone(std::__ndk1::__function::__base<void (FLAlertLayer*, bool)>*) const
PUBLIC 3adc4 0 std::__ndk1::__function::__func<BackupsPopup::onRestore(cocos2d::CCObject*)::{lambda(auto:1, bool)#1}, std::__ndk1::allocator<BackupsPopup::onRestore(cocos2d::CCObject*)::{lambda(auto:1, bool)#1}>, void (FLAlertLayer*, bool)>::destroy()
PUBLIC 3ae00 0 std::__ndk1::__function::__func<BackupsPopup::onRestore(cocos2d::CCObject*)::{lambda(auto:1, bool)#1}, std::__ndk1::allocator<BackupsPopup::onRestore(cocos2d::CCObject*)::{lambda(auto:1, bool)#1}>, void (FLAlertLayer*, bool)>::destroy_deallocate()
PUBLIC 3ae40 0 std::__ndk1::__function::__func<BackupsPopup::onRestore(cocos2d::CCObject*)::{lambda(auto:1, bool)#1}, std::__ndk1::allocator<BackupsPopup::onRestore(cocos2d::CCObject*)::{lambda(auto:1, bool)#1}>, void (FLAlertLayer*, bool)>::operator()(FLAlertLayer*&&, bool&&)
PUBLIC 3b5e4 0 std::__ndk1::__function::__func<BackupsPopup::onRestore(cocos2d::CCObject*)::{lambda(auto:1, bool)#1}, std::__ndk1::allocator<BackupsPopup::onRestore(cocos2d::CCObject*)::{lambda(auto:1, bool)#1}>, void (FLAlertLayer*, bool)>::target(std::type_info const&) const
PUBLIC 3b600 0 std::__ndk1::__function::__func<BackupsPopup::onRestore(cocos2d::CCObject*)::{lambda(auto:1, bool)#1}, std::__ndk1::allocator<BackupsPopup::onRestore(cocos2d::CCObject*)::{lambda(auto:1, bool)#1}>, void (FLAlertLayer*, bool)>::target_type() const
PUBLIC 3b60c 0 BackupsPopup::onDelete(cocos2d::CCObject*)::{lambda(auto:1, bool)#1}::~{lambda(auto:1, bool)#1}()
PUBLIC 3b648 0 std::__ndk1::__function::__func<BackupsPopup::onDelete(cocos2d::CCObject*)::{lambda(auto:1, bool)#1}, std::__ndk1::allocator<BackupsPopup::onDelete(cocos2d::CCObject*)::{lambda(auto:1, bool)#1}>, void (FLAlertLayer*, bool)>::~__func()
PUBLIC 3b690 0 std::__ndk1::__function::__func<BackupsPopup::onDelete(cocos2d::CCObject*)::{lambda(auto:1, bool)#1}, std::__ndk1::allocator<BackupsPopup::onDelete(cocos2d::CCObject*)::{lambda(auto:1, bool)#1}>, void (FLAlertLayer*, bool)>::~__func()
PUBLIC 3b6dc 0 std::__ndk1::__function::__func<BackupsPopup::onDelete(cocos2d::CCObject*)::{lambda(auto:1, bool)#1}, std::__ndk1::allocator<BackupsPopup::onDelete(cocos2d::CCObject*)::{lambda(auto:1, bool)#1}>, void (FLAlertLayer*, bool)>::__clone() const
PUBLIC 3b76c 0 std::__ndk1::__function::__func<BackupsPopup::onDelete(cocos2d::CCObject*)::{lambda(auto:1, bool)#1}, std::__ndk1::allocator<BackupsPopup::onDelete(cocos2d::CCObject*)::{lambda(auto:1, bool)#1}>, void (FLAlertLayer*, bool)>::__clone(std::__ndk1::__function::__base<void (FLAlertLayer*, bool)>*) const
PUBLIC 3b7cc 0 std::__ndk1::__function::__func<BackupsPopup::onDelete(cocos2d::CCObject*)::{lambda(auto:1, bool)#1}, std::__ndk1::allocator<BackupsPopup::onDelete(cocos2d::CCObject*)::{lambda(auto:1, bool)#1}>, void (FLAlertLayer*, bool)>::destroy()
PUBLIC 3b808 0 std::__ndk1::__function::__func<BackupsPopup::onDelete(cocos2d::CCObject*)::{lambda(auto:1, bool)#1}, std::__ndk1::allocator<BackupsPopup::onDelete(cocos2d::CCObject*)::{lambda(auto:1, bool)#1}>, void (FLAlertLayer*, bool)>::destroy_deallocate()
PUBLIC 3b848 0 std::__ndk1::__function::__func<BackupsPopup::onDelete(cocos2d::CCObject*)::{lambda(auto:1, bool)#1}, std::__ndk1::allocator<BackupsPopup::onDelete(cocos2d::CCObject*)::{lambda(auto:1, bool)#1}>, void (FLAlertLayer*, bool)>::operator()(FLAlertLayer*&&, bool&&)
PUBLIC 3bb38 0 std::__ndk1::__function::__func<BackupsPopup::onDelete(cocos2d::CCObject*)::{lambda(auto:1, bool)#1}, std::__ndk1::allocator<BackupsPopup::onDelete(cocos2d::CCObject*)::{lambda(auto:1, bool)#1}>, void (FLAlertLayer*, bool)>::target(std::type_info const&) const
PUBLIC 3bb54 0 std::__ndk1::__function::__func<BackupsPopup::onDelete(cocos2d::CCObject*)::{lambda(auto:1, bool)#1}, std::__ndk1::allocator<BackupsPopup::onDelete(cocos2d::CCObject*)::{lambda(auto:1, bool)#1}>, void (FLAlertLayer*, bool)>::target_type() const
PUBLIC 3bb60 0 geode::Popup<std::__ndk1::__fs::filesystem::path const&>::CloseEvent::~CloseEvent()
PUBLIC 3bbc0 0 geode::Popup<std::__ndk1::__fs::filesystem::path const&>::CloseEvent::~CloseEvent()
PUBLIC 3bc30 0 std::__ndk1::__shared_ptr_emplace<geode::Popup<std::__ndk1::__fs::filesystem::path const&>::CloseEvent::Impl, std::__ndk1::allocator<geode::Popup<std::__ndk1::__fs::filesystem::path const&>::CloseEvent::Impl> >::~__shared_ptr_emplace()
PUBLIC 3bc40 0 std::__ndk1::__shared_ptr_emplace<geode::Popup<std::__ndk1::__fs::filesystem::path const&>::CloseEvent::Impl, std::__ndk1::allocator<geode::Popup<std::__ndk1::__fs::filesystem::path const&>::CloseEvent::Impl> >::~__shared_ptr_emplace()
PUBLIC 3bc70 0 std::__ndk1::__shared_ptr_emplace<geode::Popup<std::__ndk1::__fs::filesystem::path const&>::CloseEvent::Impl, std::__ndk1::allocator<geode::Popup<std::__ndk1::__fs::filesystem::path const&>::CloseEvent::Impl> >::__on_zero_shared()
PUBLIC 3bc74 0 std::__ndk1::__shared_ptr_emplace<geode::Popup<std::__ndk1::__fs::filesystem::path const&>::CloseEvent::Impl, std::__ndk1::allocator<geode::Popup<std::__ndk1::__fs::filesystem::path const&>::CloseEvent::Impl> >::__on_zero_shared_weak()
PUBLIC m 3bc78 0 geodeImplicitEntry
PUBLIC 3bcb4 0 cocos2d::CCDestructor::~CCDestructor()
PUBLIC 3bdb0 0 wrapFunction(unsigned long, tulip::hook::WrapperMetadata const&)
PUBLIC 3bee4 0 geode::impl::ResultData<void*, std::__ndk1::basic_string<char, std::__ndk1::char_traits<char>, std::__ndk1::allocator<char> > >::unwrapErr() &
PUBLIC 3bf5c 0 geode::impl::ResultData<void*, std::__ndk1::basic_string<char, std::__ndk1::char_traits<char>, std::__ndk1::allocator<char> > >::~ResultData()
PUBLIC 3bfd0 0 tulip::hook::WrapperMetadata::~WrapperMetadata()
PUBLIC 3c034 0 cocos2d::CCAction::CCAction()
PUBLIC 3c1ac 0 cocos2d::CCObject::CCObject()
PUBLIC 3c320 0 cocos2d::CCAction::~CCAction()
PUBLIC 3c544 0 cocos2d::CCAction::~CCAction()
PUBLIC 3c568 0 cocos2d::CCNode::~CCNode()
PUBLIC 3c58c 0 {virtual override thunk({offset(-320)}, cocos2d::CCLayer::~CCLayer())}
PUBLIC 3c594 0 cocos2d::CCLayer::~CCLayer()
PUBLIC 3c5b8 0 {virtual override thunk({offset(-320)}, cocos2d::CCLayer::~CCLayer())}
PUBLIC 3c5e0 0 cocos2d::CCObject::~CCObject()
PUBLIC 3c604 0 cocos2d::CCLayerColor::CCLayerColor()
PUBLIC 3cb2c 0 cocos2d::CCLayerRGBA::~CCLayerRGBA()
PUBLIC 3cd78 0 {virtual override thunk({offset(-320)}, cocos2d::CCLayerColor::~CCLayerColor())}
PUBLIC 3cd80 0 cocos2d::CCLayerColor::~CCLayerColor()
PUBLIC 3cda4 0 {virtual override thunk({offset(-320)}, cocos2d::CCLayerColor::~CCLayerColor())}
PUBLIC 3cdcc 0 {virtual override thunk({offset(-320)}, cocos2d::CCLayerRGBA::~CCLayerRGBA())}
PUBLIC 3cdd4 0 cocos2d::CCLayerRGBA::~CCLayerRGBA()
PUBLIC 3cdf8 0 {virtual override thunk({offset(-320)}, cocos2d::CCLayerRGBA::~CCLayerRGBA())}
PUBLIC 3ce20 0 DS_Dictionary::DS_Dictionary()
PUBLIC 3cfa4 0 pugi::xml_document::xml_document()
PUBLIC 3d10c 0 pugi::xml_node::xml_node()
PUBLIC m 3d260 0 pugi::xml_document::~xml_document()
PUBLIC 3d470 0 {virtual override thunk({offset(-320)}, FLAlertLayer::~FLAlertLayer())}
PUBLIC 3d478 0 FLAlertLayer::~FLAlertLayer()
PUBLIC 3d49c 0 {virtual override thunk({offset(-320)}, FLAlertLayer::~FLAlertLayer())}
PUBLIC 3d4c4 0 FLAlertLayer::create(FLAlertLayerProtocol*, char const*, gd::string, char const*, char const*, float)
PUBLIC 3d67c 0 tulip::hook::AbstractFunction::from<FLAlertLayer*, FLAlertLayerProtocol*, char const*, gd::string, char const*, char const*, float>(FLAlertLayer* (*)(FLAlertLayerProtocol*, char const*, gd::string, char const*, char const*, float))
PUBLIC 3d7e8 0 cocos2d::CCLayer::~CCLayer()
PUBLIC 3da2c 0 cocos2d::CCLayerColor::~CCLayerColor()
PUBLIC 3dc80 0 FLAlertLayer::~FLAlertLayer()
PUBLIC 3df34 0 cocos2d::CCNode::~CCNode()
PUBLIC 3e158 0 cocos2d::CCObject::~CCObject()
PUBLIC 3e37c 0 _ZN5geode15UnwrapExceptionC2IRPvQsr4implE18IsStringStreamableIT_EEENS_4impl5OkTagEOS4_
PUBLIC 3e4d0 0 std::__ndk1::__variant_detail::__visitation::__base::__dispatcher<(unsigned long)0>::__dispatch[abi:ne180000]<std::__ndk1::__variant_detail::__dtor<std::__ndk1::__variant_detail::__traits<void*, std::__ndk1::basic_string<char, std::__ndk1::char_traits<char>, std::__ndk1::allocator<char> > >, (std::__ndk1::__variant_detail::_Trait)1>::__destroy[abi:ne180000]()::{lambda(auto:1&)#1}, std::__ndk1::__variant_detail::__base<(std::__ndk1::__variant_detail::__traits<void*, std::__ndk1::basic_string<char, std::__ndk1::char_traits<char>, std::__ndk1::allocator<char> > >)1, std::__ndk1::__variant_detail::__traits, std::__ndk1::allocator<char> >&>(std::__ndk1::__variant_detail::__dtor<std::__ndk1::__variant_detail::__traits<void*, std::__ndk1::basic_string<char, std::__ndk1::char_traits<char>, std::__ndk1::allocator<char> > >, (std::__ndk1::__variant_detail::_Trait)1>, std::__ndk1::__variant_detail::__base<(std::__ndk1::__variant_detail::__traits<void*, std::__ndk1::basic_string<char, std::__ndk1::char_traits<char>, std::__ndk1::allocator<char> > >)1, std::__ndk1::__variant_detail::__traits, std::__ndk1::allocator<char> >&)
PUBLIC 3e4d4 0 std::__ndk1::__variant_detail::__visitation::__base::__dispatcher<(unsigned long)1>::__dispatch[abi:ne180000]<std::__ndk1::__variant_detail::__dtor<std::__ndk1::__variant_detail::__traits<void*, std::__ndk1::basic_string<char, std::__ndk1::char_traits<char>, std::__ndk1::allocator<char> > >, (std::__ndk1::__variant_detail::_Trait)1>::__destroy[abi:ne180000]()::{lambda(auto:1&)#1}, std::__ndk1::__variant_detail::__base<(std::__ndk1::__variant_detail::__traits<void*, std::__ndk1::basic_string<char, std::__ndk1::char_traits<char>, std::__ndk1::allocator<char> > >)1, std::__ndk1::__variant_detail::__traits, std::__ndk1::allocator<char> >&>(std::__ndk1::__variant_detail::__dtor<std::__ndk1::__variant_detail::__traits<void*, std::__ndk1::basic_string<char, std::__ndk1::char_traits<char>, std::__ndk1::allocator<char> > >, (std::__ndk1::__variant_detail::_Trait)1>, std::__ndk1::__variant_detail::__base<(std::__ndk1::__variant_detail::__traits<void*, std::__ndk1::basic_string<char, std::__ndk1::char_traits<char>, std::__ndk1::allocator<char> > >)1, std::__ndk1::__variant_detail::__traits, std::__ndk1::allocator<char> >&)
PUBLIC 3e4e8 0 std::__ndk1::__hash_table<std::__ndk1::__hash_value_type<void*, bool>, std::__ndk1::__unordered_map_hasher<void*, std::__ndk1::__hash_value_type<void*, bool>, std::__ndk1::hash<void*>, std::__ndk1::equal_to<void*>, true>, std::__ndk1::__unordered_map_equal<void*, std::__ndk1::__hash_value_type<void*, bool>, std::__ndk1::equal_to<void*>, std::__ndk1::hash<void*>, true>, std::__ndk1::allocator<std::__ndk1::__hash_value_type<void*, bool> > >::__emplace_unique_key_args<void*, std::__ndk1::piecewise_construct_t const&, std::__ndk1::tuple<void* const&>, std::__ndk1::tuple<> >(void* const&, std::__ndk1::piecewise_construct_t const&, std::__ndk1::tuple<void* const&>, std::__ndk1::tuple<>)
PUBLIC 3e9c8 0 std::__ndk1::__hash_table<std::__ndk1::__hash_value_type<void*, bool>, std::__ndk1::__unordered_map_hasher<void*, std::__ndk1::__hash_value_type<void*, bool>, std::__ndk1::hash<void*>, std::__ndk1::equal_to<void*>, true>, std::__ndk1::__unordered_map_equal<void*, std::__ndk1::__hash_value_type<void*, bool>, std::__ndk1::equal_to<void*>, std::__ndk1::hash<void*>, true>, std::__ndk1::allocator<std::__ndk1::__hash_value_type<void*, bool> > >::find<void*>(void* const&)
PUBLIC 3ead8 0 std::__ndk1::__hash_table<std::__ndk1::__hash_value_type<void*, bool>, std::__ndk1::__unordered_map_hasher<void*, std::__ndk1::__hash_value_type<void*, bool>, std::__ndk1::hash<void*>, std::__ndk1::equal_to<void*>, true>, std::__ndk1::__unordered_map_equal<void*, std::__ndk1::__hash_value_type<void*, bool>, std::__ndk1::equal_to<void*>, std::__ndk1::hash<void*>, true>, std::__ndk1::allocator<std::__ndk1::__hash_value_type<void*, bool> > >::remove(std::__ndk1::__hash_const_iterator<std::__ndk1::__hash_node<std::__ndk1::__hash_value_type<void*, bool>, void*>*>)
PUBLIC 3ec0c 0 __udivti3
PUBLIC m 3ec18 0 __eqtf2
PUBLIC 3ecb8 0 __unordtf2
PUBLIC 3ecf0 0 fmt::v11::detail::write_loc(fmt::v11::basic_appender<char>, fmt::v11::loc_value, fmt::v11::format_specs const&, fmt::v11::detail::locale_ref)
PUBLIC 3ef84 0 fmt::v11::format_facet<std::__ndk1::locale>::~format_facet()
PUBLIC 3f000 0 fmt::v11::report_error(char const*)
PUBLIC 3f050 0 fmt::v11::format_facet<std::__ndk1::locale>::do_put(fmt::v11::basic_appender<char>, fmt::v11::loc_value, fmt::v11::format_specs const&) const
PUBLIC 3f810 0 fmt::v11::detail::loc_writer<char>::~loc_writer()
PUBLIC 3f874 0 fmt::v11::detail::vformat_to<char>(fmt::v11::detail::buffer<char>&, fmt::v11::basic_string_view<char>, fmt::v11::detail::vformat_args<char>::type, fmt::v11::detail::locale_ref)
PUBLIC 3fde4 0 fmt::v11::detail::is_printable(unsigned int)
PUBLIC 4000c 0 fmt::v11::detail::dragonbox::to_decimal<float>(float)
PUBLIC 402e8 0 fmt::v11::detail::dragonbox::to_decimal<double>(double)
PUBLIC 40824 0 fmt::v11::format_facet<std::__ndk1::locale>::~format_facet()
PUBLIC 408b0 0 fmt::v11::detail::copy_noinline<char, char const*, fmt::v11::basic_appender<char> >(char const*, char const*, fmt::v11::basic_appender<char>)
PUBLIC 40a00 0 fmt::v11::detail::default_arg_formatter<char>::operator()<bool>(bool)
PUBLIC 40a68 0 fmt::v11::detail::default_arg_formatter<char>::operator()<char>(char)
PUBLIC 40af8 0 fmt::v11::detail::default_arg_formatter<char>::operator()<float>(float)
PUBLIC 40be4 0 fmt::v11::detail::default_arg_formatter<char>::operator()<double>(double)
PUBLIC 40cd0 0 fmt::v11::detail::default_arg_formatter<char>::operator()<char const*>(char const*)
PUBLIC 40d18 0 fmt::v11::detail::default_arg_formatter<char>::operator()<void const*>(void const*)
PUBLIC 40db0 0 _ZN3fmt3v116detail5writeIcNS0_14basic_appenderIcEEiTnNSt6__ndk19enable_ifIXaaaasr11is_integralIT1_EE5valuentsr3std7is_sameIS7_bEE5valuentsr3std7is_sameIS7_T_EE5valueEiE4typeELi0EEET0_SB_S7_
PUBLIC 41010 0 fmt::v11::detail::copy_noinline<char, char*, fmt::v11::basic_appender<char> >(char*, char*, fmt::v11::basic_appender<char>)
PUBLIC 41160 0 _ZN3fmt3v116detail5writeIcNS0_14basic_appenderIcEEjTnNSt6__ndk19enable_ifIXaaaasr11is_integralIT1_EE5valuentsr3std7is_sameIS7_bEE5valuentsr3std7is_sameIS7_T_EE5valueEiE4typeELi0EEET0_SB_S7_
PUBLIC 41340 0 _ZN3fmt3v116detail5writeIcNS0_14basic_appenderIcEExTnNSt6__ndk19enable_ifIXaaaasr11is_integralIT1_EE5valuentsr3std7is_sameIS7_bEE5valuentsr3std7is_sameIS7_T_EE5valueEiE4typeELi0EEET0_SB_S7_
PUBLIC 415c4 0 _ZN3fmt3v116detail5writeIcNS0_14basic_appenderIcEEyTnNSt6__ndk19enable_ifIXaaaasr11is_integralIT1_EE5valuentsr3std7is_sameIS7_bEE5valuentsr3std7is_sameIS7_T_EE5valueEiE4typeELi0EEET0_SB_S7_
PUBLIC 417cc 0 _ZN3fmt3v116detail5writeIcNS0_14basic_appenderIcEEnTnNSt6__ndk19enable_ifIXaaaasr11is_integralIT1_EE5valuentsr3std7is_sameIS7_bEE5valuentsr3std7is_sameIS7_T_EE5valueEiE4typeELi0EEET0_SB_S7_
PUBLIC 41b2c 0 _ZN3fmt3v116detail5writeIcNS0_14basic_appenderIcEEoTnNSt6__ndk19enable_ifIXaaaasr11is_integralIT1_EE5valuentsr3std7is_sameIS7_bEE5valuentsr3std7is_sameIS7_T_EE5valueEiE4typeELi0EEET0_SB_S7_
PUBLIC 41e40 0 _ZN3fmt3v116detail5writeIcNS0_14basic_appenderIcEEbTnNSt6__ndk19enable_ifIXsr3std7is_sameIT1_bEE5valueEiE4typeELi0EEET0_SA_S7_RKNS0_12format_specsENS1_10locale_refE
PUBLIC 420f4 0 fmt::v11::detail::write_int_noinline<char, fmt::v11::basic_appender<char>, unsigned int>(fmt::v11::basic_appender<char>, fmt::v11::detail::write_int_arg<unsigned int>, fmt::v11::format_specs const&, fmt::v11::detail::locale_ref)
PUBLIC 42ed4 0 fmt::v11::detail::write_padded<char, (fmt::v11::align::type)1, fmt::v11::basic_appender<char>, fmt::v11::detail::write_char<char, fmt::v11::basic_appender<char> >(fmt::v11::basic_appender<char>, char, fmt::v11::format_specs const&)::{lambda(fmt::v11::basic_appender<char>&)#1}>(fmt::v11::basic_appender<char>, fmt::v11::format_specs const&, unsigned long, unsigned long, fmt::v11::detail::write_char<char, fmt::v11::basic_appender<char> >(fmt::v11::basic_appender<char>, char, fmt::v11::format_specs const&)::{lambda(fmt::v11::basic_appender<char>&)#1})
PUBLIC 43138 0 fmt::v11::detail::write_padded<char, (fmt::v11::align::type)1, fmt::v11::basic_appender<char>, fmt::v11::detail::write_nonfinite<char, fmt::v11::basic_appender<char> >(fmt::v11::basic_appender<char>, bool, fmt::v11::format_specs, fmt::v11::sign::type)::{lambda(fmt::v11::basic_appender<char>&)#1}>(fmt::v11::basic_appender<char>, fmt::v11::format_specs const&, unsigned long, unsigned long, fmt::v11::detail::write_nonfinite<char, fmt::v11::basic_appender<char> >(fmt::v11::basic_appender<char>, bool, fmt::v11::format_specs, fmt::v11::sign::type)::{lambda(fmt::v11::basic_appender<char>&)#1})
PUBLIC 43390 0 fmt::v11::detail::do_write_float<char, fmt::v11::basic_appender<char>, fmt::v11::detail::dragonbox::decimal_fp<float>, fmt::v11::detail::digit_grouping<char> >(fmt::v11::basic_appender<char>, fmt::v11::detail::dragonbox::decimal_fp<float> const&, fmt::v11::format_specs const&, fmt::v11::detail::float_specs, fmt::v11::detail::locale_ref)
PUBLIC 44014 0 fmt::v11::detail::do_write_float<char, fmt::v11::basic_appender<char>, fmt::v11::detail::dragonbox::decimal_fp<float>, fmt::v11::detail::digit_grouping<char> >(fmt::v11::basic_appender<char>, fmt::v11::detail::dragonbox::decimal_fp<float> const&, fmt::v11::format_specs const&, fmt::v11::detail::float_specs, fmt::v11::detail::locale_ref)::{lambda(fmt::v11::basic_appender<char>(fmt::v11::basic_appender<char>))#1}::operator() const
PUBLIC 44168 0 fmt::v11::detail::digit_grouping<char>::digit_grouping(fmt::v11::detail::locale_ref, bool)
PUBLIC 443d4 0 fmt::v11::detail::digit_grouping<char>::~digit_grouping()
PUBLIC 44418 0 fmt::v11::detail::write_exponent<char, fmt::v11::basic_appender<char> >(int, fmt::v11::basic_appender<char>)
PUBLIC 445e8 0 _ZN3fmt3v116detail17write_significandIcjTnNSt6__ndk19enable_ifIXsr3std11is_integralIT0_EE5valueEiE4typeELi0EEEPT_S9_S5_iiS8_
PUBLIC 44764 0 fmt::v11::detail::digit_grouping<char>::apply<fmt::v11::basic_appender<char>, char>(fmt::v11::basic_appender<char>, fmt::v11::basic_string_view<char>) const
PUBLIC 44b1c 0 fmt::v11::basic_memory_buffer<int, (unsigned long)500, std::__ndk1::allocator<int> >::grow(fmt::v11::detail::buffer<int>&, unsigned long)
PUBLIC 44bbc 0 fmt::v11::detail::do_write_float<char, fmt::v11::basic_appender<char>, fmt::v11::detail::dragonbox::decimal_fp<double>, fmt::v11::detail::digit_grouping<char> >(fmt::v11::basic_appender<char>, fmt::v11::detail::dragonbox::decimal_fp<double> const&, fmt::v11::format_specs const&, fmt::v11::detail::float_specs, fmt::v11::detail::locale_ref)
PUBLIC 4587c 0 fmt::v11::detail::do_write_float<char, fmt::v11::basic_appender<char>, fmt::v11::detail::dragonbox::decimal_fp<double>, fmt::v11::detail::digit_grouping<char> >(fmt::v11::basic_appender<char>, fmt::v11::detail::dragonbox::decimal_fp<double> const&, fmt::v11::format_specs const&, fmt::v11::detail::float_specs, fmt::v11::detail::locale_ref)::{lambda(fmt::v11::basic_appender<char>(fmt::v11::basic_appender<char>))#1}::operator() const
PUBLIC 459d4 0 _ZN3fmt3v116detail17write_significandIcmTnNSt6__ndk19enable_ifIXsr3std11is_integralIT0_EE5valueEiE4typeELi0EEEPT_S9_S5_iiS8_
PUBLIC 45b64 0 fmt::v11::detail::write_float<char, fmt::v11::basic_appender<char>, long double>(fmt::v11::basic_appender<char>, long double, fmt::v11::format_specs, fmt::v11::detail::locale_ref)
PUBLIC 4665c 0 fmt::v11::detail::write_padded<char, (fmt::v11::align::type)2, fmt::v11::basic_appender<char>, fmt::v11::detail::write_bytes<char, (fmt::v11::align::type)2, fmt::v11::basic_appender<char> >(fmt::v11::basic_appender<char>, fmt::v11::basic_string_view<char>, fmt::v11::format_specs const&)::{lambda(fmt::v11::basic_appender<char>&)#1}>(fmt::v11::basic_appender<char>, fmt::v11::format_specs const&, unsigned long, unsigned long, fmt::v11::detail::write_bytes<char, (fmt::v11::align::type)2, fmt::v11::basic_appender<char> >(fmt::v11::basic_appender<char>, fmt::v11::basic_string_view<char>, fmt::v11::format_specs const&)::{lambda(fmt::v11::basic_appender<char>&)#1})
PUBLIC 46850 0 fmt::v11::detail::format_dragon(fmt::v11::detail::basic_fp<unsigned __int128>, unsigned int, int, fmt::v11::detail::buffer<char>&, int&)
PUBLIC 47c80 0 fmt::v11::detail::bigint::operator<<=(int)
PUBLIC 47da4 0 fmt::v11::detail::bigint::assign_pow10(int)
PUBLIC 48500 0 fmt::v11::detail::bigint::divmod_assign(fmt::v11::detail::bigint const&)
PUBLIC 48820 0 fmt::v11::basic_memory_buffer<unsigned int, (unsigned long)32, std::__ndk1::allocator<unsigned int> >::grow(fmt::v11::detail::buffer<unsigned int>&, unsigned long)
PUBLIC 488c0 0 fmt::v11::detail::do_write_float<char, fmt::v11::basic_appender<char>, fmt::v11::detail::big_decimal_fp, fmt::v11::detail::digit_grouping<char> >(fmt::v11::basic_appender<char>, fmt::v11::detail::big_decimal_fp const&, fmt::v11::format_specs const&, fmt::v11::detail::float_specs, fmt::v11::detail::locale_ref)
PUBLIC 497a0 0 fmt::v11::detail::do_write_float<char, fmt::v11::basic_appender<char>, fmt::v11::detail::big_decimal_fp, fmt::v11::detail::digit_grouping<char> >(fmt::v11::basic_appender<char>, fmt::v11::detail::big_decimal_fp const&, fmt::v11::format_specs const&, fmt::v11::detail::float_specs, fmt::v11::detail::locale_ref)::{lambda(fmt::v11::basic_appender<char>(fmt::v11::basic_appender<char>))#1}::operator() const
PUBLIC 49900 0 fmt::v11::detail::write_padded<char, (fmt::v11::align::type)2, fmt::v11::basic_appender<char>, fmt::v11::detail::write_ptr<char, fmt::v11::basic_appender<char>, unsigned long>(fmt::v11::basic_appender<char>, unsigned long, fmt::v11::format_specs const*)::{lambda(fmt::v11::basic_appender<char>&)#1}>(fmt::v11::basic_appender<char>, fmt::v11::format_specs const&, unsigned long, unsigned long, fmt::v11::detail::write_ptr<char, fmt::v11::basic_appender<char>, unsigned long>(fmt::v11::basic_appender<char>, unsigned long, fmt::v11::format_specs const*)::{lambda(fmt::v11::basic_appender<char>&)#1})
PUBLIC 49b14 0 fmt::v11::detail::parse_replacement_field<char, fmt::v11::detail::vformat_to<char>(fmt::v11::detail::buffer<char>&, fmt::v11::basic_string_view<char>, fmt::v11::detail::vformat_args<char>::type, fmt::v11::detail::locale_ref)::format_handler&>(char const*, char const*, fmt::v11::detail::vformat_to<char>(fmt::v11::detail::buffer<char>&, fmt::v11::basic_string_view<char>, fmt::v11::detail::vformat_args<char>::type, fmt::v11::detail::locale_ref)::format_handler&)
PUBLIC 4afc8 0 fmt::v11::detail::write_int_noinline<char, fmt::v11::basic_appender<char>, unsigned long>(fmt::v11::basic_appender<char>, fmt::v11::detail::write_int_arg<unsigned long>, fmt::v11::format_specs const&, fmt::v11::detail::locale_ref)
PUBLIC 4be28 0 fmt::v11::detail::write_int_noinline<char, fmt::v11::basic_appender<char>, unsigned __int128>(fmt::v11::basic_appender<char>, fmt::v11::detail::write_int_arg<unsigned __int128>, fmt::v11::format_specs const&, fmt::v11::detail::locale_ref)
PUBLIC 4ceb8 0 _ZN3fmt3v116detail15format_hexfloatIdTnNSt6__ndk19enable_ifIXntsr16is_double_doubleIT_EE5valueEiE4typeELi0EEEvS5_NS0_12format_specsERNS1_6bufferIcEE
PUBLIC 4d3d8 0 fmt::v11::detail::format_float<double>(double, int, fmt::v11::detail::float_specs, fmt::v11::detail::buffer<char>&)
PUBLIC 4dd78 0 fmt::v11::detail::write_int<fmt::v11::basic_appender<char>, unsigned long, char>(fmt::v11::basic_appender<char>, unsigned long, unsigned int, fmt::v11::format_specs const&, fmt::v11::detail::digit_grouping<char> const&)
PUBLIC 4e2f4 0 fmt::v11::detail::write_int<fmt::v11::basic_appender<char>, unsigned __int128, char>(fmt::v11::basic_appender<char>, unsigned __int128, unsigned int, fmt::v11::format_specs const&, fmt::v11::detail::digit_grouping<char> const&)
PUBLIC 4e970 0 <.plt ELF section in hjfod.backups.android64.so>
STACK CFI INIT 20110 10 .cfa: sp 0 +
STACK CFI INIT 20120 8 .cfa: sp 0 +
STACK CFI INIT 20128 8 .cfa: sp 0 +
STACK CFI INIT 20130 14 .cfa: sp 0 +
STACK CFI INIT 20144 1c .cfa: sp 0 +
STACK CFI INIT 20160 10 .cfa: sp 0 +
STACK CFI INIT 20170 30 .cfa: sp 0 +
STACK CFI INIT 201a0 98 .cfa: sp 0 +
STACK CFI INIT 20238 59c .cfa: sp 0 +
STACK CFI INIT 207d4 8c .cfa: sp 0 +
STACK CFI INIT 20860 30 .cfa: sp 0 +
STACK CFI INIT 20890 58 .cfa: sp 0 +
STACK CFI INIT 208e8 24c .cfa: sp 0 +
STACK CFI INIT 21848 18 .cfa: sp 0 +
STACK CFI INIT 21860 18 .cfa: sp 0 +
STACK CFI INIT 21878 18 .cfa: sp 0 +
STACK CFI INIT 21d14 18 .cfa: sp 0 +
STACK CFI INIT 22090 50 .cfa: sp 0 +
STACK CFI 22094 .cfa: sp 32 +
STACK CFI 2209c .cfa: x29 32 + x19: .cfa -16 + ^ .ra: .cfa -24 + ^ x29: .cfa -32 + ^
STACK CFI 220b4 .cfa: sp 32 +
STACK CFI 220bc .cfa: sp 0 +
STACK CFI 220c0 .cfa: x29 32 +
STACK CFI 220d4 .cfa: sp 32 +
STACK CFI 220dc .cfa: sp 0 +
STACK CFI INIT 22154 7c .cfa: sp 0 +
STACK CFI 22158 .cfa: sp 48 +
STACK CFI 22164 .cfa: x29 48 + x19: .cfa -8 + ^ x20: .cfa -16 + ^ x21: .cfa -32 + ^ .ra: .cfa -40 + ^ x29: .cfa -48 + ^
STACK CFI 221b0 .cfa: sp 48 +
STACK CFI 221bc .cfa: sp 0 +
STACK CFI 221c0 .cfa: sp 48 +
STACK CFI 221cc .cfa: sp 0 +
STACK CFI INIT 221d0 4 .cfa: sp 0 +
STACK CFI INIT 221d4 10 .cfa: sp 0 +
STACK CFI 221d8 .cfa: sp 16 +
STACK CFI 221dc .cfa: x29 16 + .ra: .cfa -8 + ^ x29: .cfa -16 + ^
STACK CFI INIT 22338 34 .cfa: sp 0 +
STACK CFI 2233c .cfa: sp 16 +
STACK CFI 22340 .cfa: x29 16 + .ra: .cfa -8 + ^ x29: .cfa -16 + ^
STACK CFI INIT 22498 80 .cfa: sp 0 +
STACK CFI 2249c .cfa: sp 48 +
STACK CFI 224a8 .cfa: x29 48 + x19: .cfa -8 + ^ x20: .cfa -16 + ^ x21: .cfa -32 + ^ .ra: .cfa -40 + ^ x29: .cfa -48 + ^
STACK CFI 22508 .cfa: sp 48 +
STACK CFI 22514 .cfa: sp 0 +
STACK CFI INIT 22518 24 .cfa: sp 0 +
STACK CFI 2251c .cfa: sp 32 +
STACK CFI 22524 .cfa: x29 32 + x19: .cfa -16 + ^ .ra: .cfa -24 + ^ x29: .cfa -32 + ^
STACK CFI 22530 .cfa: sp 32 +
STACK CFI 22538 .cfa: sp 0 +
STACK CFI INIT 228bc 14 .cfa: sp 0 +
STACK CFI 228c0 .cfa: sp 16 +
STACK CFI 228c4 .cfa: x29 16 + .ra: .cfa -8 + ^ x29: .cfa -16 + ^
STACK CFI INIT 22920 30 .cfa: sp 0 +
STACK CFI 22924 .cfa: sp 32 +
STACK CFI 2292c .cfa: x29 32 + x19: .cfa -16 + ^ .ra: .cfa -24 + ^ x29: .cfa -32 + ^
STACK CFI 22944 .cfa: sp 32 +
STACK CFI 2294c .cfa: sp 0 +
STACK CFI INIT 22950 34 .cfa: sp 0 +
STACK CFI 22954 .cfa: sp 32 +
STACK CFI 2295c .cfa: x29 32 + x19: .cfa -16 + ^ .ra: .cfa -24 + ^ x29: .cfa -32 + ^
STACK CFI INIT 22afc 148 .cfa: sp 0 +
STACK CFI 22b00 .cfa: sp 48 +
STACK CFI 22b0c .cfa: x29 48 + x19: .cfa -8 + ^ x20: .cfa -16 + ^ x21: .cfa -32 + ^ .ra: .cfa -40 + ^ x29: .cfa -48 + ^
STACK CFI 22c34 .cfa: sp 48 +
STACK CFI 22c40 .cfa: sp 0 +
STACK CFI INIT 22e68 80 .cfa: sp 0 +
STACK CFI 22e6c .cfa: sp 48 +
STACK CFI 22e78 .cfa: x29 48 + x19: .cfa -8 + ^ x20: .cfa -16 + ^ x21: .cfa -24 + ^ x22: .cfa -32 + ^ .ra: .cfa -40 + ^ x29: .cfa -48 + ^
STACK CFI 22e90 .cfa: sp 48 +
STACK CFI 22e9c .cfa: sp 0 +
STACK CFI 22ea0 .cfa: x29 48 +
STACK CFI 22ed0 .cfa: sp 48 +
STACK CFI 22edc .cfa: sp 0 +
STACK CFI 22ee0 .cfa: x29 48 +
STACK CFI INIT 22ee8 68 .cfa: sp 0 +
STACK CFI 22eec .cfa: sp 32 +
STACK CFI 22ef4 .cfa: x29 32 + x19: .cfa -8 + ^ x20: .cfa -16 + ^ .ra: .cfa -24 + ^ x29: .cfa -32 + ^
STACK CFI 22f0c .cfa: sp 32 +
STACK CFI 22f14 .cfa: sp 0 +
STACK CFI 22f18 .cfa: x29 32 +
STACK CFI 22f44 .cfa: sp 32 +
STACK CFI 22f4c .cfa: sp 0 +
STACK CFI INIT 22f50 14 .cfa: sp 0 +
STACK CFI 22f54 .cfa: sp 16 +
STACK CFI 22f58 .cfa: x29 16 + .ra: .cfa -8 + ^ x29: .cfa -16 + ^
STACK CFI INIT 22f64 4 .cfa: sp 0 +
STACK CFI INIT 22f68 14 .cfa: sp 0 +
STACK CFI INIT 22f7c 120 .cfa: sp 0 +
STACK CFI 22f80 .cfa: sp 64 +
STACK CFI 22f90 .cfa: x29 64 + x19: .cfa -8 + ^ x20: .cfa -16 + ^ x21: .cfa -24 + ^ x22: .cfa -32 + ^ x23: .cfa -40 + ^ x24: .cfa -48 + ^ .ra: .cfa -56 + ^ x29: .cfa -64 + ^
STACK CFI 23088 .cfa: sp 64 +
STACK CFI 23098 .cfa: sp 0 +
STACK CFI INIT 2309c 4a4 .cfa: sp 0 +
STACK CFI 230a0 .cfa: sp 32 +
STACK CFI 230a8 .cfa: x29 32 + x19: .cfa -8 + ^ x20: .cfa -16 + ^ .ra: .cfa -24 + ^ x29: .cfa -32 + ^
STACK CFI 23488 .cfa: sp 32 +
STACK CFI 23490 .cfa: sp 0 +
STACK CFI 23494 .cfa: x29 32 +
STACK CFI INIT 23540 84 .cfa: sp 0 +
STACK CFI 23548 .cfa: sp 32 +
STACK CFI 23550 .cfa: x29 32 + x19: .cfa -8 + ^ x20: .cfa -16 + ^ .ra: .cfa -24 + ^ x29: .cfa -32 + ^
STACK CFI 23590 .cfa: sp 32 +
STACK CFI 23598 .cfa: sp 0 +
STACK CFI 235a0 .cfa: x29 32 +
STACK CFI INIT 235c4 18 .cfa: sp 0 +
STACK CFI INIT 2369c 50 .cfa: sp 0 +
STACK CFI 236a0 .cfa: sp 32 +
STACK CFI 236a8 .cfa: x29 32 + x19: .cfa -16 + ^ .ra: .cfa -24 + ^ x29: .cfa -32 + ^
STACK CFI 236c0 .cfa: sp 32 +
STACK CFI 236c8 .cfa: sp 0 +
STACK CFI 236cc .cfa: x29 32 +
STACK CFI 236e0 .cfa: sp 32 +
STACK CFI 236e8 .cfa: sp 0 +
STACK CFI INIT 236ec 64 .cfa: sp 0 +
STACK CFI 236f0 .cfa: sp 32 +
STACK CFI 236f8 .cfa: x29 32 + x19: .cfa -16 + ^ .ra: .cfa -24 + ^ x29: .cfa -32 + ^
STACK CFI 23724 .cfa: sp 32 +
STACK CFI 2372c .cfa: sp 0 +
STACK CFI 23730 .cfa: x29 32 +
STACK CFI 23744 .cfa: sp 32 +
STACK CFI 2374c .cfa: sp 0 +
STACK CFI INIT 23750 168 .cfa: sp 0 +
STACK CFI 23754 .cfa: sp 80 +
STACK CFI 23768 .cfa: x29 80 + x19: .cfa -8 + ^ x20: .cfa -16 + ^ x21: .cfa -24 + ^ x22: .cfa -32 + ^ x23: .cfa -40 + ^ x24: .cfa -48 + ^ x25: .cfa -56 + ^ x26: .cfa -64 + ^ .ra: .cfa -72 + ^ x29: .cfa -80 + ^
STACK CFI 238a0 .cfa: sp 80 +
STACK CFI 238b4 .cfa: sp 0 +
STACK CFI INIT 238b8 1b0 .cfa: sp 0 +
STACK CFI INIT 23d5c 4 .cfa: sp 0 +
STACK CFI INIT 246a4 9c .cfa: sp 0 +
STACK CFI INIT 24740 8 .cfa: sp 0 +
STACK CFI INIT 24748 4 .cfa: sp 0 +
STACK CFI INIT 2474c 4 .cfa: sp 0 +
STACK CFI INIT 24750 4 .cfa: sp 0 +
STACK CFI INIT 24754 4 .cfa: sp 0 +
STACK CFI INIT 26a1c 4 .cfa: sp 0 +
STACK CFI INIT 26a20 14 .cfa: sp 0 +
STACK CFI INIT 26a34 4 .cfa: sp 0 +
STACK CFI INIT 26a38 14 .cfa: sp 0 +
STACK CFI INIT 26acc 8 .cfa: sp 0 +
STACK CFI INIT 26ad4 120 .cfa: sp 0 +
STACK CFI 26ad8 .cfa: sp 80 +
STACK CFI 26ae8 .cfa: x29 48 + x19: .cfa -8 + ^ x20: .cfa -16 + ^ x21: .cfa -32 + ^ .ra: .cfa -40 + ^ x29: .cfa -48 + ^
STACK CFI 26bdc .cfa: sp 80 +
STACK CFI 26bec .cfa: sp 0 +
STACK CFI 26bf0 .cfa: x29 48 +
STACK CFI INIT 26bf4 50 .cfa: sp 0 +
STACK CFI 26bf8 .cfa: sp 32 +
STACK CFI 26c00 .cfa: x29 32 + x19: .cfa -16 + ^ .ra: .cfa -24 + ^ x29: .cfa -32 + ^
STACK CFI 26c18 .cfa: sp 32 +
STACK CFI 26c20 .cfa: sp 0 +
STACK CFI 26c24 .cfa: x29 32 +
STACK CFI 26c38 .cfa: sp 32 +
STACK CFI 26c40 .cfa: sp 0 +
STACK CFI INIT 26c44 f8 .cfa: sp 0 +
STACK CFI 26c48 .cfa: sp 64 +
STACK CFI 26c58 .cfa: x29 64 + x19: .cfa -8 + ^ x20: .cfa -16 + ^ x21: .cfa -24 + ^ x22: .cfa -32 + ^ x23: .cfa -48 + ^ .ra: .cfa -56 + ^ x29: .cfa -64 + ^
STACK CFI 26cb4 .cfa: sp 64 +
STACK CFI 26cc4 .cfa: sp 0 +
STACK CFI 26cc8 .cfa: x29 64 +
STACK CFI 26ce4 .cfa: sp 64 +
STACK CFI 26cf4 .cfa: sp 0 +
STACK CFI 26cf8 .cfa: x29 64 +
STACK CFI 26d28 .cfa: sp 64 +
STACK CFI 26d38 .cfa: sp 0 +
STACK CFI INIT 26d3c e8 .cfa: sp 0 +
STACK CFI 26d40 .cfa: sp 32 +
STACK CFI 26d48 .cfa: x29 32 + x19: .cfa -8 + ^ x20: .cfa -16 + ^ .ra: .cfa -24 + ^ x29: .cfa -32 + ^
STACK CFI 26d88 .cfa: sp 32 +
STACK CFI 26d90 .cfa: sp 0 +
STACK CFI 26d94 .cfa: x29 32 +
STACK CFI 26dd0 .cfa: sp 32 +
STACK CFI 26dd8 .cfa: sp 0 +
STACK CFI 26ddc .cfa: x29 32 +
STACK CFI 26dfc .cfa: sp 32 +
STACK CFI 26e04 .cfa: sp 0 +
STACK CFI 26e08 .cfa: x29 32 +
STACK CFI 26e18 .cfa: sp 32 +
STACK CFI 26e20 .cfa: sp 0 +
STACK CFI INIT 26e24 ac .cfa: sp 0 +
STACK CFI 26e28 .cfa: sp 64 +
STACK CFI 26e38 .cfa: x29 64 + x19: .cfa -8 + ^ x20: .cfa -16 + ^ x21: .cfa -24 + ^ x22: .cfa -32 + ^ x23: .cfa -48 + ^ .ra: .cfa -56 + ^ x29: .cfa -64 + ^
STACK CFI 26eb4 .cfa: sp 64 +
STACK CFI 26ec4 .cfa: sp 0 +
STACK CFI 26ec8 .cfa: x29 64 +
STACK CFI INIT 26ed0 110 .cfa: sp 0 +
STACK CFI 26ed4 .cfa: sp 64 +
STACK CFI 26ee4 .cfa: x29 64 + x19: .cfa -8 + ^ x20: .cfa -16 + ^ x21: .cfa -24 + ^ x22: .cfa -32 + ^ x23: .cfa -40 + ^ x24: .cfa -48 + ^ .ra: .cfa -56 + ^ x29: .cfa -64 + ^
STACK CFI 26fc4 .cfa: sp 64 +
STACK CFI 26fd4 .cfa: sp 0 +
STACK CFI 26fd8 .cfa: x29 64 +
STACK CFI INIT 27300 7c .cfa: sp 0 +
STACK CFI 27304 .cfa: sp 48 +
STACK CFI 27310 .cfa: x29 48 + x19: .cfa -8 + ^ x20: .cfa -16 + ^ x21: .cfa -32 + ^ .ra: .cfa -40 + ^ x29: .cfa -48 + ^
STACK CFI 2735c .cfa: sp 48 +
STACK CFI 27368 .cfa: sp 0 +
STACK CFI 2736c .cfa: sp 48 +
STACK CFI 27378 .cfa: sp 0 +
STACK CFI INIT 2737c 7c .cfa: sp 0 +
STACK CFI 27380 .cfa: sp 48 +
STACK CFI 2738c .cfa: x29 48 + x19: .cfa -8 + ^ x20: .cfa -16 + ^ x21: .cfa -32 + ^ .ra: .cfa -40 + ^ x29: .cfa -48 + ^
STACK CFI 273d8 .cfa: sp 48 +
STACK CFI 273e4 .cfa: sp 0 +
STACK CFI 273e8 .cfa: sp 48 +
STACK CFI 273f4 .cfa: sp 0 +
STACK CFI INIT 273f8 14 .cfa: sp 0 +
STACK CFI INIT 2740c 14 .cfa: sp 0 +
STACK CFI 27410 .cfa: sp 16 +
STACK CFI 27414 .cfa: x29 16 + .ra: .cfa -8 + ^ x29: .cfa -16 + ^
STACK CFI INIT 27824 4c .cfa: sp 0 +
STACK CFI 27828 .cfa: sp 32 +
STACK CFI 27830 .cfa: x29 32 + x19: .cfa -16 + ^ .ra: .cfa -24 + ^ x29: .cfa -32 + ^
STACK CFI 27854 .cfa: sp 32 +
STACK CFI 2785c .cfa: sp 0 +
STACK CFI 27860 .cfa: x29 32 +
STACK CFI 27864 .cfa: sp 32 +
STACK CFI 2786c .cfa: sp 0 +
STACK CFI INIT 278e4 58 .cfa: sp 0 +
STACK CFI 278e8 .cfa: sp 32 +
STACK CFI 278f0 .cfa: x29 32 + x19: .cfa -16 + ^ .ra: .cfa -24 + ^ x29: .cfa -32 + ^
STACK CFI 27930 .cfa: sp 32 +
STACK CFI 27938 .cfa: sp 0 +
STACK CFI INIT 2793c 60 .cfa: sp 0 +
STACK CFI 27940 .cfa: sp 32 +
STACK CFI 27948 .cfa: x29 32 + x19: .cfa -16 + ^ .ra: .cfa -24 + ^ x29: .cfa -32 + ^
STACK CFI 27990 .cfa: sp 32 +
STACK CFI 27998 .cfa: sp 0 +
STACK CFI INIT 2799c 4 .cfa: sp 0 +
STACK CFI INIT 27cec 14 .cfa: sp 0 +
STACK CFI INIT 27d00 14 .cfa: sp 0 +
STACK CFI INIT 28080 4 .cfa: sp 0 +
STACK CFI INIT 28084 14 .cfa: sp 0 +
STACK CFI INIT 28098 4 .cfa: sp 0 +
STACK CFI INIT 2809c 14 .cfa: sp 0 +
STACK CFI INIT 280b0 8 .cfa: sp 0 +
STACK CFI INIT 280b8 14 .cfa: sp 0 +
STACK CFI INIT 283e8 3c .cfa: sp 0 +
STACK CFI 283ec .cfa: sp 32 +
STACK CFI 283f4 .cfa: x29 32 + x19: .cfa -16 + ^ .ra: .cfa -24 + ^ x29: .cfa -32 + ^
STACK CFI 28408 .cfa: sp 32 +
STACK CFI 28410 .cfa: sp 0 +
STACK CFI 28414 .cfa: x29 32 +
STACK CFI 28418 .cfa: sp 32 +
STACK CFI 28420 .cfa: sp 0 +
STACK CFI INIT 28424 68 .cfa: sp 0 +
STACK CFI 28428 .cfa: sp 48 +
STACK CFI 28434 .cfa: x29 48 + x19: .cfa -8 + ^ x20: .cfa -16 + ^ x21: .cfa -32 + ^ .ra: .cfa -40 + ^ x29: .cfa -48 + ^
STACK CFI 2846c .cfa: sp 48 +
STACK CFI 28478 .cfa: sp 0 +
STACK CFI 2847c .cfa: sp 48 +
STACK CFI 28488 .cfa: sp 0 +
STACK CFI INIT 2848c 54 .cfa: sp 0 +
STACK CFI 28490 .cfa: sp 32 +
STACK CFI 28498 .cfa: x29 32 + x19: .cfa -8 + ^ x20: .cfa -16 + ^ .ra: .cfa -24 + ^ x29: .cfa -32 + ^
STACK CFI 284c8 .cfa: sp 32 +
STACK CFI 284d0 .cfa: sp 0 +
STACK CFI 284d4 .cfa: sp 32 +
STACK CFI 284dc .cfa: sp 0 +
STACK CFI INIT 284e0 14 .cfa: sp 0 +
STACK CFI 284e4 .cfa: sp 16 +
STACK CFI 284e8 .cfa: x29 16 + .ra: .cfa -8 + ^ x29: .cfa -16 + ^
STACK CFI INIT 284f4 4c .cfa: sp 0 +
STACK CFI 284f8 .cfa: sp 32 +
STACK CFI 28500 .cfa: x29 32 + x19: .cfa -16 + ^ .ra: .cfa -24 + ^ x29: .cfa -32 + ^
STACK CFI 28524 .cfa: sp 32 +
STACK CFI 2852c .cfa: sp 0 +
STACK CFI 28530 .cfa: x29 32 +
STACK CFI 28534 .cfa: sp 32 +
STACK CFI 2853c .cfa: sp 0 +
STACK CFI INIT 28540 14 .cfa: sp 0 +
STACK CFI INIT 29fdc 40 .cfa: sp 0 +
STACK CFI 29fe0 .cfa: sp 32 +
STACK CFI 29fe8 .cfa: x29 32 + x19: .cfa -16 + ^ .ra: .cfa -24 + ^ x29: .cfa -32 + ^
STACK CFI 2a000 .cfa: sp 32 +
STACK CFI 2a008 .cfa: sp 0 +
STACK CFI 2a00c .cfa: x29 32 +
STACK CFI 2a010 .cfa: sp 32 +
STACK CFI 2a018 .cfa: sp 0 +
STACK CFI INIT 2bec4 1a4 .cfa: sp 0 +
STACK CFI 2bec8 .cfa: sp 64 +
STACK CFI 2bed4 .cfa: x29 32 + x19: .cfa -8 + ^ x20: .cfa -16 + ^ .ra: .cfa -24 + ^ x29: .cfa -32 + ^
STACK CFI 2c000 .cfa: sp 64 +
STACK CFI 2c00c .cfa: sp 0 +
STACK CFI 2c010 .cfa: x29 32 +
STACK CFI INIT 2c068 194 .cfa: sp 0 +
STACK CFI 2c06c .cfa: sp 16 +
STACK CFI 2c070 .cfa: x29 16 + .ra: .cfa -8 + ^ x29: .cfa -16 + ^
STACK CFI 2c108 .cfa: sp 16 +
STACK CFI 2c10c .cfa: sp 0 +
STACK CFI 2c110 .cfa: x29 16 +
STACK CFI 2c1dc .cfa: sp 16 +
STACK CFI 2c1e0 .cfa: sp 0 +
STACK CFI 2c1e4 .cfa: x29 16 +
STACK CFI INIT 2c1fc 2c .cfa: sp 0 +
STACK CFI 2c200 .cfa: sp 32 +
STACK CFI 2c208 .cfa: x29 32 + x19: .cfa -16 + ^ .ra: .cfa -24 + ^ x29: .cfa -32 + ^
STACK CFI 2c21c .cfa: sp 32 +
STACK CFI 2c224 .cfa: sp 0 +
STACK CFI INIT 2c228 24 .cfa: sp 0 +
STACK CFI 2c22c .cfa: sp 32 +
STACK CFI 2c234 .cfa: x29 32 + x19: .cfa -16 + ^ .ra: .cfa -24 + ^ x29: .cfa -32 + ^
STACK CFI 2c240 .cfa: sp 32 +
STACK CFI 2c248 .cfa: sp 0 +
STACK CFI INIT 2c29c 114 .cfa: sp 0 +
STACK CFI 2c2a0 .cfa: sp 128 +
STACK CFI 2c2b0 .cfa: x29 48 + x19: .cfa -8 + ^ x20: .cfa -16 + ^ x21: .cfa -32 + ^ .ra: .cfa -40 + ^ x29: .cfa -48 + ^
STACK CFI 2c37c .cfa: sp 128 +
STACK CFI 2c38c .cfa: sp 0 +
STACK CFI 2c390 .cfa: x29 48 +
STACK CFI INIT 2c3b0 27c .cfa: sp 0 +
STACK CFI 2c3b4 .cfa: sp 176 +
STACK CFI 2c3d0 .cfa: x29 96 + x19: .cfa -8 + ^ x20: .cfa -16 + ^ x21: .cfa -24 + ^ x22: .cfa -32 + ^ x23: .cfa -40 + ^ x24: .cfa -48 + ^ x25: .cfa -56 + ^ x26: .cfa -64 + ^ x27: .cfa -72 + ^ x28: .cfa -80 + ^ .ra: .cfa -88 + ^ x29: .cfa -96 + ^
STACK CFI 2c608 .cfa: sp 176 +
STACK CFI 2c624 .cfa: sp 0 +
STACK CFI 2c628 .cfa: x29 96 +
STACK CFI INIT 2c62c 78 .cfa: sp 0 +
STACK CFI 2c630 .cfa: sp 48 +
STACK CFI 2c63c .cfa: x29 48 + x19: .cfa -8 + ^ x20: .cfa -16 + ^ x21: .cfa -24 + ^ x22: .cfa -32 + ^ .ra: .cfa -40 + ^ x29: .cfa -48 + ^
STACK CFI 2c684 .cfa: sp 48 +
STACK CFI 2c690 .cfa: sp 0 +
STACK CFI 2c694 .cfa: sp 48 +
STACK CFI 2c6a0 .cfa: sp 0 +
STACK CFI INIT 2c6a4 94 .cfa: sp 0 +
STACK CFI 2c6a8 .cfa: sp 16 +
STACK CFI 2c6ac .cfa: x29 16 + .ra: .cfa -8 + ^ x29: .cfa -16 + ^
STACK CFI 2c700 .cfa: sp 16 +
STACK CFI 2c704 .cfa: sp 0 +
STACK CFI 2c708 .cfa: x29 16 +
STACK CFI INIT 2c738 158 .cfa: sp 0 +
STACK CFI 2c73c .cfa: sp 112 +
STACK CFI 2c758 .cfa: x29 96 + x19: .cfa -8 + ^ x20: .cfa -16 + ^ x21: .cfa -24 + ^ x22: .cfa -32 + ^ x23: .cfa -40 + ^ x24: .cfa -48 + ^ x25: .cfa -56 + ^ x26: .cfa -64 + ^ x27: .cfa -72 + ^ x28: .cfa -80 + ^ .ra: .cfa -88 + ^ x29: .cfa -96 + ^
STACK CFI 2c840 .cfa: sp 112 +
STACK CFI 2c844 .cfa: x29 96 +
STACK CFI 2c84c .cfa: sp 112 +
STACK CFI 2c868 .cfa: sp 0 +
STACK CFI 2c86c .cfa: x29 96 +
STACK CFI 2c88c .cfa: sp 112 +
STACK CFI INIT 2e7f8 194 .cfa: sp 0 +
STACK CFI 2e7fc .cfa: sp 48 +
STACK CFI 2e808 .cfa: x29 48 + x19: .cfa -8 + ^ x20: .cfa -16 + ^ x21: .cfa -24 + ^ x22: .cfa -32 + ^ .ra: .cfa -40 + ^ x29: .cfa -48 + ^
STACK CFI 2e97c .cfa: sp 48 +
STACK CFI 2e988 .cfa: sp 0 +
STACK CFI INIT 2ecdc 168 .cfa: sp 0 +
STACK CFI 2ece0 .cfa: sp 64 +
STACK CFI 2ecf0 .cfa: x29 64 + x19: .cfa -8 + ^ x20: .cfa -16 + ^ x21: .cfa -24 + ^ x22: .cfa -32 + ^ x23: .cfa -40 + ^ x24: .cfa -48 + ^ .ra: .cfa -56 + ^ x29: .cfa -64 + ^
STACK CFI 2ee18 .cfa: sp 64 +
STACK CFI 2ee28 .cfa: sp 0 +
STACK CFI 2ee2c .cfa: x29 64 +
STACK CFI 2ee30 .cfa: sp 64 +
STACK CFI 2ee40 .cfa: sp 0 +
STACK CFI INIT 2ee44 1d4 .cfa: sp 0 +
STACK CFI 2ee48 .cfa: sp 112 +
STACK CFI 2ee60 .cfa: x29 80 + x19: .cfa -8 + ^ x20: .cfa -16 + ^ x21: .cfa -24 + ^ x22: .cfa -32 + ^ x23: .cfa -40 + ^ x24: .cfa -48 + ^ x25: .cfa -64 + ^ .ra: .cfa -72 + ^ x29: .cfa -80 + ^
STACK CFI 2eff8 .cfa: sp 112 +
STACK CFI 2f010 .cfa: sp 0 +
STACK CFI 2f014 .cfa: x29 80 +
STACK CFI INIT 2f018 150 .cfa: sp 0 +
STACK CFI 2f01c .cfa: sp 48 +
STACK CFI 2f028 .cfa: x29 48 + x19: .cfa -8 + ^ x20: .cfa -16 + ^ x21: .cfa -24 + ^ x22: .cfa -32 + ^ .ra: .cfa -40 + ^ x29: .cfa -48 + ^
STACK CFI 2f158 .cfa: sp 48 +
STACK CFI 2f164 .cfa: sp 0 +
STACK CFI INIT 2fab8 24 .cfa: sp 0 +
STACK CFI 2fabc .cfa: sp 32 +
STACK CFI 2fac4 .cfa: x29 32 + x19: .cfa -16 + ^ .ra: .cfa -24 + ^ x29: .cfa -32 + ^
STACK CFI 2fad0 .cfa: sp 32 +
STACK CFI 2fad8 .cfa: sp 0 +
STACK CFI INIT 2fadc 158 .cfa: sp 0 +
STACK CFI 2fae0 .cfa: sp 64 +
STACK CFI 2faf0 .cfa: x29 64 + x19: .cfa -8 + ^ x20: .cfa -16 + ^ x21: .cfa -24 + ^ x22: .cfa -32 + ^ x23: .cfa -48 + ^ .ra: .cfa -56 + ^ x29: .cfa -64 + ^
STACK CFI 2fc20 .cfa: sp 64 +
STACK CFI 2fc30 .cfa: sp 0 +
STACK CFI INIT 2fc34 5c .cfa: sp 0 +
STACK CFI 2fc38 .cfa: sp 32 +
STACK CFI 2fc40 .cfa: x29 32 + x19: .cfa -8 + ^ x20: .cfa -16 + ^ .ra: .cfa -24 + ^ x29: .cfa -32 + ^
STACK CFI 2fc84 .cfa: sp 32 +
STACK CFI 2fc8c .cfa: sp 0 +
STACK CFI INIT 2fc90 78 .cfa: sp 0 +
STACK CFI 2fc94 .cfa: sp 48 +
STACK CFI 2fca0 .cfa: x29 48 + x19: .cfa -8 + ^ x20: .cfa -16 + ^ x21: .cfa -24 + ^ x22: .cfa -32 + ^ .ra: .cfa -40 + ^ x29: .cfa -48 + ^
STACK CFI 2fce8 .cfa: sp 48 +
STACK CFI 2fcf4 .cfa: sp 0 +
STACK CFI 2fcf8 .cfa: sp 48 +
STACK CFI 2fd04 .cfa: sp 0 +
STACK CFI INIT 2fd08 150 .cfa: sp 0 +
STACK CFI 2fd0c .cfa: sp 48 +
STACK CFI 2fd18 .cfa: x29 48 + x19: .cfa -8 + ^ x20: .cfa -16 + ^ x21: .cfa -24 + ^ x22: .cfa -32 + ^ .ra: .cfa -40 + ^ x29: .cfa -48 + ^
STACK CFI 2fe48 .cfa: sp 48 +
STACK CFI 2fe54 .cfa: sp 0 +
STACK CFI INIT 2fe58 158 .cfa: sp 0 +
STACK CFI 2fe5c .cfa: sp 48 +
STACK CFI 2fe68 .cfa: x29 48 + x19: .cfa -8 + ^ x20: .cfa -16 + ^ x21: .cfa -24 + ^ x22: .cfa -32 + ^ .ra: .cfa -40 + ^ x29: .cfa -48 + ^
STACK CFI 2ff0c .cfa: sp 48 +
STACK CFI 2ff18 .cfa: sp 0 +
STACK CFI 2ff1c .cfa: x29 48 +
STACK CFI 2ffa0 .cfa: sp 48 +
STACK CFI 2ffac .cfa: sp 0 +
STACK CFI INIT 2ffb0 1e4 .cfa: sp 0 +
STACK CFI 2ffb4 .cfa: sp 112 +
STACK CFI 2ffcc .cfa: x29 80 + x19: .cfa -8 + ^ x20: .cfa -16 + ^ x21: .cfa -24 + ^ x22: .cfa -32 + ^ x23: .cfa -40 + ^ x24: .cfa -48 + ^ x25: .cfa -64 + ^ .ra: .cfa -72 + ^ x29: .cfa -80 + ^
STACK CFI 30174 .cfa: sp 112 +
STACK CFI 3018c .cfa: sp 0 +
STACK CFI 30190 .cfa: x29 80 +
STACK CFI INIT 30194 22c .cfa: sp 0 +
STACK CFI 30198 .cfa: sp 64 +
STACK CFI 301a8 .cfa: x29 64 + x19: .cfa -8 + ^ x20: .cfa -16 + ^ x21: .cfa -24 + ^ x22: .cfa -32 + ^ x23: .cfa -40 + ^ x24: .cfa -48 + ^ .ra: .cfa -56 + ^ x29: .cfa -64 + ^
STACK CFI 303ac .cfa: sp 64 +
STACK CFI 303bc .cfa: sp 0 +
STACK CFI INIT 303c0 520 .cfa: sp 0 +
STACK CFI 303c4 .cfa: sp 176 +
STACK CFI 303e0 .cfa: x29 96 + x19: .cfa -8 + ^ x20: .cfa -16 + ^ x21: .cfa -24 + ^ x22: .cfa -32 + ^ x23: .cfa -40 + ^ x24: .cfa -48 + ^ x25: .cfa -56 + ^ x26: .cfa -64 + ^ x27: .cfa -72 + ^ x28: .cfa -80 + ^ .ra: .cfa -88 + ^ x29: .cfa -96 + ^
STACK CFI 308bc .cfa: sp 176 +
STACK CFI 308d8 .cfa: sp 0 +
STACK CFI 308dc .cfa: x29 96 +
STACK CFI INIT 308e0 20c .cfa: sp 0 +
STACK CFI 308e4 .cfa: sp 80 +
STACK CFI 308f8 .cfa: x29 80 + x19: .cfa -8 + ^ x20: .cfa -16 + ^ x21: .cfa -24 + ^ x22: .cfa -32 + ^ x23: .cfa -40 + ^ x24: .cfa -48 + ^ x25: .cfa -64 + ^ .ra: .cfa -72 + ^ x29: .cfa -80 + ^
STACK CFI 30988 .cfa: sp 80 +
STACK CFI 3099c .cfa: sp 0 +
STACK CFI 309a0 .cfa: x29 80 +
STACK CFI 309ac .cfa: sp 80 +
STACK CFI 309c0 .cfa: sp 0 +
STACK CFI 309c4 .cfa: x29 80 +
STACK CFI INIT 30aec 428 .cfa: sp 0 +
STACK CFI 30af0 .cfa: sp 128 +
STACK CFI 30b0c .cfa: x29 96 + x19: .cfa -8 + ^ x20: .cfa -16 + ^ x21: .cfa -24 + ^ x22: .cfa -32 + ^ x23: .cfa -40 + ^ x24: .cfa -48 + ^ x25: .cfa -56 + ^ x26: .cfa -64 + ^ x27: .cfa -72 + ^ x28: .cfa -80 + ^ .ra: .cfa -88 + ^ x29: .cfa -96 + ^
STACK CFI 30ef0 .cfa: sp 128 +
STACK CFI 30f0c .cfa: sp 0 +
STACK CFI 30f10 .cfa: x29 96 +
STACK CFI INIT 30f14 194 .cfa: sp 0 +
STACK CFI 30f18 .cfa: sp 32 +
STACK CFI 30f20 .cfa: x29 16 + .ra: .cfa -8 + ^ x29: .cfa -16 + ^
STACK CFI 30f64 .cfa: sp 32 +
STACK CFI 30f6c .cfa: sp 0 +
STACK CFI 30f70 .cfa: x29 16 +
STACK CFI INIT 310a8 1b8 .cfa: sp 0 +
STACK CFI INIT 31260 1d0 .cfa: sp 0 +
STACK CFI 31264 .cfa: sp 80 +
STACK CFI 31278 .cfa: x29 80 + x19: .cfa -8 + ^ x20: .cfa -16 + ^ x21: .cfa -24 + ^ x22: .cfa -32 + ^ x23: .cfa -40 + ^ x24: .cfa -48 + ^ x25: .cfa -64 + ^ .ra: .cfa -72 + ^ x29: .cfa -80 + ^
STACK CFI 31418 .cfa: sp 80 +
STACK CFI 3142c .cfa: sp 0 +
STACK CFI INIT 31430 67c .cfa: sp 0 +
STACK CFI 31434 .cfa: sp 176 +
STACK CFI 31450 .cfa: x29 96 + x19: .cfa -8 + ^ x20: .cfa -16 + ^ x21: .cfa -24 + ^ x22: .cfa -32 + ^ x23: .cfa -40 + ^ x24: .cfa -48 + ^ x25: .cfa -56 + ^ x26: .cfa -64 + ^ x27: .cfa -72 + ^ x28: .cfa -80 + ^ .ra: .cfa -88 + ^ x29: .cfa -96 + ^
STACK CFI 31a88 .cfa: sp 176 +
STACK CFI 31aa4 .cfa: sp 0 +
STACK CFI 31aa8 .cfa: x29 96 +
STACK CFI INIT 31aac 1e4 .cfa: sp 0 +
STACK CFI 31ab0 .cfa: sp 32 +
STACK CFI 31ab8 .cfa: x29 32 + x19: .cfa -8 + ^ x20: .cfa -16 + ^ .ra: .cfa -24 + ^ x29: .cfa -32 + ^
STACK CFI 31ba8 .cfa: sp 32 +
STACK CFI 31bb0 .cfa: sp 0 +
STACK CFI 31bb4 .cfa: x29 32 +
STACK CFI 31c28 .cfa: sp 32 +
STACK CFI 31c30 .cfa: sp 0 +
STACK CFI 31c34 .cfa: x29 32 +
STACK CFI 31c44 .cfa: sp 32 +
STACK CFI 31c4c .cfa: sp 0 +
STACK CFI 31c50 .cfa: x29 32 +
STACK CFI 31c60 .cfa: sp 32 +
STACK CFI 31c68 .cfa: sp 0 +
STACK CFI 31c6c .cfa: x29 32 +
STACK CFI INIT 31c90 178 .cfa: sp 0 +
STACK CFI 31c94 .cfa: sp 80 +
STACK CFI 31ca8 .cfa: x29 64 + x19: .cfa -8 + ^ x20: .cfa -16 + ^ x21: .cfa -24 + ^ x22: .cfa -32 + ^ x23: .cfa -40 + ^ x24: .cfa -48 + ^ .ra: .cfa -56 + ^ x29: .cfa -64 + ^
STACK CFI 31dec .cfa: sp 80 +
STACK CFI 31e00 .cfa: sp 0 +
STACK CFI 31e04 .cfa: x29 64 +
STACK CFI INIT 31e08 178 .cfa: sp 0 +
STACK CFI 31e0c .cfa: sp 80 +
STACK CFI 31e20 .cfa: x29 64 + x19: .cfa -8 + ^ x20: .cfa -16 + ^ x21: .cfa -24 + ^ x22: .cfa -32 + ^ x23: .cfa -40 + ^ x24: .cfa -48 + ^ .ra: .cfa -56 + ^ x29: .cfa -64 + ^
STACK CFI 31f64 .cfa: sp 80 +
STACK CFI 31f78 .cfa: sp 0 +
STACK CFI 31f7c .cfa: x29 64 +
STACK CFI INIT 31f80 178 .cfa: sp 0 +
STACK CFI 31f84 .cfa: sp 80 +
STACK CFI 31f98 .cfa: x29 64 + x19: .cfa -8 + ^ x20: .cfa -16 + ^ x21: .cfa -24 + ^ x22: .cfa -32 + ^ x23: .cfa -40 + ^ x24: .cfa -48 + ^ .ra: .cfa -56 + ^ x29: .cfa -64 + ^
STACK CFI 320dc .cfa: sp 80 +
STACK CFI 320f0 .cfa: sp 0 +
STACK CFI 320f4 .cfa: x29 64 +
STACK CFI INIT 320f8 4 .cfa: sp 0 +
STACK CFI INIT 320fc 14 .cfa: sp 0 +
STACK CFI INIT 32434 4 .cfa: sp 0 +
STACK CFI INIT 3274c 90 .cfa: sp 0 +
STACK CFI 32750 .cfa: sp 32 +
STACK CFI 32758 .cfa: x29 32 + x19: .cfa -16 + ^ .ra: .cfa -24 + ^ x29: .cfa -32 + ^
STACK CFI 327d0 .cfa: sp 32 +
STACK CFI 327d8 .cfa: sp 0 +
STACK CFI INIT 32b00 4 .cfa: sp 0 +
STACK CFI INIT 32f88 a8 .cfa: sp 0 +
STACK CFI 32f8c .cfa: sp 32 +
STACK CFI 32f94 .cfa: x29 32 + x19: .cfa -16 + ^ .ra: .cfa -24 + ^ x29: .cfa -32 + ^
STACK CFI 33024 .cfa: sp 32 +
STACK CFI 3302c .cfa: sp 0 +
STACK CFI INIT 33030 cc .cfa: sp 0 +
STACK CFI 33034 .cfa: sp 64 +
STACK CFI 33044 .cfa: x29 48 + x19: .cfa -8 + ^ x20: .cfa -16 + ^ x21: .cfa -24 + ^ x22: .cfa -32 + ^ .ra: .cfa -40 + ^ x29: .cfa -48 + ^
STACK CFI 330e4 .cfa: sp 64 +
STACK CFI 330f4 .cfa: sp 0 +
STACK CFI 330f8 .cfa: x29 48 +
STACK CFI INIT 330fc 98 .cfa: sp 0 +
STACK CFI 33100 .cfa: sp 304 +
STACK CFI 3310c .cfa: x29 32 + x19: .cfa -8 + ^ x28: .cfa -16 + ^ .ra: .cfa -24 + ^ x29: .cfa -32 + ^
STACK CFI 33180 .cfa: sp 304 +
STACK CFI 3318c .cfa: sp 0 +
STACK CFI 33190 .cfa: x29 32 +
STACK CFI INIT 336b4 50 .cfa: sp 0 +
STACK CFI 336b8 .cfa: sp 32 +
STACK CFI 336c0 .cfa: x29 32 + x19: .cfa -16 + ^ .ra: .cfa -24 + ^ x29: .cfa -32 + ^
STACK CFI 336d8 .cfa: sp 32 +
STACK CFI 336e0 .cfa: sp 0 +
STACK CFI 336e4 .cfa: x29 32 +
STACK CFI 336f8 .cfa: sp 32 +
STACK CFI 33700 .cfa: sp 0 +
STACK CFI INIT 33840 24 .cfa: sp 0 +
STACK CFI 33844 .cfa: sp 32 +
STACK CFI 3384c .cfa: x29 32 + x19: .cfa -16 + ^ .ra: .cfa -24 + ^ x29: .cfa -32 + ^
STACK CFI 33858 .cfa: sp 32 +
STACK CFI 33860 .cfa: sp 0 +
STACK CFI INIT 33864 2c .cfa: sp 0 +
STACK CFI 33868 .cfa: sp 32 +
STACK CFI 33870 .cfa: x29 32 + x19: .cfa -16 + ^ .ra: .cfa -24 + ^ x29: .cfa -32 + ^
STACK CFI 33884 .cfa: sp 32 +
STACK CFI 3388c .cfa: sp 0 +
STACK CFI INIT 33890 28 .cfa: sp 0 +
STACK CFI INIT 338b8 4 .cfa: sp 0 +
STACK CFI INIT 338bc 8 .cfa: sp 0 +
STACK CFI INIT 33fe8 8 .cfa: sp 0 +
STACK CFI INIT 33ff0 28 .cfa: sp 0 +
STACK CFI 33ff4 .cfa: sp 32 +
STACK CFI 33ffc .cfa: x29 32 + x19: .cfa -16 + ^ .ra: .cfa -24 + ^ x29: .cfa -32 + ^
STACK CFI 3400c .cfa: sp 32 +
STACK CFI 34014 .cfa: sp 0 +
STACK CFI INIT 34018 2c .cfa: sp 0 +
STACK CFI INIT 34044 4 .cfa: sp 0 +
STACK CFI INIT 34048 8 .cfa: sp 0 +
STACK CFI INIT 340bc 4 .cfa: sp 0 +
STACK CFI INIT 3412c 4 .cfa: sp 0 +
STACK CFI INIT 34334 4 .cfa: sp 0 +
STACK CFI INIT 344e4 9c .cfa: sp 0 +
STACK CFI 344e8 .cfa: sp 32 +
STACK CFI 344f0 .cfa: x29 32 + x19: .cfa -8 + ^ x20: .cfa -16 + ^ .ra: .cfa -24 + ^ x29: .cfa -32 + ^
STACK CFI 34574 .cfa: sp 32 +
STACK CFI 3457c .cfa: sp 0 +
STACK CFI INIT 34580 a4 .cfa: sp 0 +
STACK CFI 34584 .cfa: sp 32 +
STACK CFI 3458c .cfa: x29 32 + x19: .cfa -8 + ^ x20: .cfa -16 + ^ .ra: .cfa -24 + ^ x29: .cfa -32 + ^
STACK CFI 34618 .cfa: sp 32 +
STACK CFI 34620 .cfa: sp 0 +
STACK CFI INIT 34624 50 .cfa: sp 0 +
STACK CFI 34628 .cfa: sp 32 +
STACK CFI 34630 .cfa: x29 32 + x19: .cfa -16 + ^ .ra: .cfa -24 + ^ x29: .cfa -32 + ^
STACK CFI 34648 .cfa: sp 32 +
STACK CFI 34650 .cfa: sp 0 +
STACK CFI 34654 .cfa: x29 32 +
STACK CFI 34668 .cfa: sp 32 +
STACK CFI 34670 .cfa: sp 0 +
STACK CFI INIT 34674 50 .cfa: sp 0 +
STACK CFI 34678 .cfa: sp 32 +
STACK CFI 34680 .cfa: x29 32 + x19: .cfa -16 + ^ .ra: .cfa -24 + ^ x29: .cfa -32 + ^
STACK CFI 34698 .cfa: sp 32 +
STACK CFI 346a0 .cfa: sp 0 +
STACK CFI 346a4 .cfa: x29 32 +
STACK CFI 346b8 .cfa: sp 32 +
STACK CFI 346c0 .cfa: sp 0 +
STACK CFI INIT 346c4 5c .cfa: sp 0 +
STACK CFI 346c8 .cfa: sp 32 +
STACK CFI 346d0 .cfa: x29 32 + x19: .cfa -16 + ^ .ra: .cfa -24 + ^ x29: .cfa -32 + ^
STACK CFI 346f4 .cfa: sp 32 +
STACK CFI 346fc .cfa: sp 0 +
STACK CFI 34700 .cfa: x29 32 +
STACK CFI 34714 .cfa: sp 32 +
STACK CFI 3471c .cfa: sp 0 +
STACK CFI INIT 34720 6c .cfa: sp 0 +
STACK CFI 34724 .cfa: sp 32 +
STACK CFI 3472c .cfa: x29 32 + x19: .cfa -8 + ^ x20: .cfa -16 + ^ .ra: .cfa -24 + ^ x29: .cfa -32 + ^
STACK CFI 34758 .cfa: sp 32 +
STACK CFI 34760 .cfa: sp 0 +
STACK CFI 34764 .cfa: x29 32 +
STACK CFI 34780 .cfa: sp 32 +
STACK CFI 34788 .cfa: sp 0 +
STACK CFI INIT 3478c 58 .cfa: sp 0 +
STACK CFI 34790 .cfa: sp 32 +
STACK CFI 34798 .cfa: x29 32 + x19: .cfa -8 + ^ x20: .cfa -16 + ^ .ra: .cfa -24 + ^ x29: .cfa -32 + ^
STACK CFI 347d8 .cfa: sp 32 +
STACK CFI 347e0 .cfa: sp 0 +
STACK CFI INIT 347e4 4c .cfa: sp 0 +
STACK CFI 347e8 .cfa: sp 32 +
STACK CFI 347f0 .cfa: x29 32 + x19: .cfa -8 + ^ x20: .cfa -16 + ^ .ra: .cfa -24 + ^ x29: .cfa -32 + ^
STACK CFI 34824 .cfa: sp 32 +
STACK CFI 3482c .cfa: sp 0 +
STACK CFI INIT 34830 50 .cfa: sp 0 +
STACK CFI 34834 .cfa: sp 32 +
STACK CFI 3483c .cfa: x29 32 + x19: .cfa -16 + ^ .ra: .cfa -24 + ^ x29: .cfa -32 + ^
STACK CFI 34854 .cfa: sp 32 +
STACK CFI 3485c .cfa: sp 0 +
STACK CFI 34860 .cfa: x29 32 +
STACK CFI 34874 .cfa: sp 32 +
STACK CFI 3487c .cfa: sp 0 +
STACK CFI INIT 34880 60 .cfa: sp 0 +
STACK CFI 34884 .cfa: sp 32 +
STACK CFI 3488c .cfa: x29 32 + x19: .cfa -8 + ^ x20: .cfa -16 + ^ .ra: .cfa -24 + ^ x29: .cfa -32 + ^
STACK CFI 348ac .cfa: sp 32 +
STACK CFI 348b4 .cfa: sp 0 +
STACK CFI 348b8 .cfa: x29 32 +
STACK CFI 348d4 .cfa: sp 32 +
STACK CFI 348dc .cfa: sp 0 +
STACK CFI INIT 34ab0 1c .cfa: sp 0 +
STACK CFI INIT 34acc c .cfa: sp 0 +
STACK CFI INIT 34ad8 60 .cfa: sp 0 +
STACK CFI 34adc .cfa: sp 32 +
STACK CFI 34ae4 .cfa: x29 32 + x19: .cfa -8 + ^ x20: .cfa -16 + ^ .ra: .cfa -24 + ^ x29: .cfa -32 + ^
STACK CFI 34b04 .cfa: sp 32 +
STACK CFI 34b0c .cfa: sp 0 +
STACK CFI 34b10 .cfa: x29 32 +
STACK CFI 34b2c .cfa: sp 32 +
STACK CFI 34b34 .cfa: sp 0 +
STACK CFI INIT 34b38 70 .cfa: sp 0 +
STACK CFI 34b3c .cfa: sp 32 +
STACK CFI 34b44 .cfa: x29 32 + x19: .cfa -8 + ^ x20: .cfa -16 + ^ .ra: .cfa -24 + ^ x29: .cfa -32 + ^
STACK CFI 34b6c .cfa: sp 32 +
STACK CFI 34b74 .cfa: sp 0 +
STACK CFI 34b78 .cfa: x29 32 +
STACK CFI 34b9c .cfa: sp 32 +
STACK CFI 34ba4 .cfa: sp 0 +
STACK CFI INIT 34ba8 5c .cfa: sp 0 +
STACK CFI 34bac .cfa: sp 32 +
STACK CFI 34bb4 .cfa: x29 32 + x19: .cfa -16 + ^ .ra: .cfa -24 + ^ x29: .cfa -32 + ^
STACK CFI 34bd8 .cfa: sp 32 +
STACK CFI 34be0 .cfa: sp 0 +
STACK CFI 34be4 .cfa: x29 32 +
STACK CFI 34bf8 .cfa: sp 32 +
STACK CFI 34c00 .cfa: sp 0 +
STACK CFI INIT 34c04 6c .cfa: sp 0 +
STACK CFI 34c08 .cfa: sp 32 +
STACK CFI 34c10 .cfa: x29 32 + x19: .cfa -8 + ^ x20: .cfa -16 + ^ .ra: .cfa -24 + ^ x29: .cfa -32 + ^
STACK CFI 34c3c .cfa: sp 32 +
STACK CFI 34c44 .cfa: sp 0 +
STACK CFI 34c48 .cfa: x29 32 +
STACK CFI 34c64 .cfa: sp 32 +
STACK CFI 34c6c .cfa: sp 0 +
STACK CFI INIT 34c70 58 .cfa: sp 0 +
STACK CFI 34c74 .cfa: sp 32 +
STACK CFI 34c7c .cfa: x29 32 + x19: .cfa -8 + ^ x20: .cfa -16 + ^ .ra: .cfa -24 + ^ x29: .cfa -32 + ^
STACK CFI 34cbc .cfa: sp 32 +
STACK CFI 34cc4 .cfa: sp 0 +
STACK CFI INIT 34cc8 4c .cfa: sp 0 +
STACK CFI 34ccc .cfa: sp 32 +
STACK CFI 34cd4 .cfa: x29 32 + x19: .cfa -8 + ^ x20: .cfa -16 + ^ .ra: .cfa -24 + ^ x29: .cfa -32 + ^
STACK CFI 34d08 .cfa: sp 32 +
STACK CFI 34d10 .cfa: sp 0 +
STACK CFI INIT 34d14 50 .cfa: sp 0 +
STACK CFI 34d18 .cfa: sp 32 +
STACK CFI 34d20 .cfa: x29 32 + x19: .cfa -16 + ^ .ra: .cfa -24 + ^ x29: .cfa -32 + ^
STACK CFI 34d38 .cfa: sp 32 +
STACK CFI 34d40 .cfa: sp 0 +
STACK CFI 34d44 .cfa: x29 32 +
STACK CFI 34d58 .cfa: sp 32 +
STACK CFI 34d60 .cfa: sp 0 +
STACK CFI INIT 34d64 60 .cfa: sp 0 +
STACK CFI 34d68 .cfa: sp 32 +
STACK CFI 34d70 .cfa: x29 32 + x19: .cfa -8 + ^ x20: .cfa -16 + ^ .ra: .cfa -24 + ^ x29: .cfa -32 + ^
STACK CFI 34d90 .cfa: sp 32 +
STACK CFI 34d98 .cfa: sp 0 +
STACK CFI 34d9c .cfa: x29 32 +
STACK CFI 34db8 .cfa: sp 32 +
STACK CFI 34dc0 .cfa: sp 0 +
STACK CFI INIT 34f88 1c .cfa: sp 0 +
STACK CFI INIT 34fa4 c .cfa: sp 0 +
STACK CFI INIT 34fb0 34 .cfa: sp 0 +
STACK CFI 34fb4 .cfa: sp 16 +
STACK CFI 34fb8 .cfa: x29 16 + .ra: .cfa -8 + ^ x29: .cfa -16 + ^
STACK CFI INIT 34fe4 24 .cfa: sp 0 +
STACK CFI 34fe8 .cfa: sp 32 +
STACK CFI 34ff0 .cfa: x29 32 + x19: .cfa -16 + ^ .ra: .cfa -24 + ^ x29: .cfa -32 + ^
STACK CFI 34ffc .cfa: sp 32 +
STACK CFI 35004 .cfa: sp 0 +
STACK CFI INIT 37ee4 4b4 .cfa: sp 0 +
STACK CFI 37ee8 .cfa: sp 96 +
STACK CFI 37f00 .cfa: x29 96 + x19: .cfa -8 + ^ x20: .cfa -16 + ^ x21: .cfa -24 + ^ x22: .cfa -32 + ^ x23: .cfa -40 + ^ x24: .cfa -48 + ^ x25: .cfa -56 + ^ x26: .cfa -64 + ^ x27: .cfa -72 + ^ x28: .cfa -80 + ^ .ra: .cfa -88 + ^ x29: .cfa -96 + ^
STACK CFI 38348 .cfa: sp 96 +
STACK CFI 38360 .cfa: sp 0 +
STACK CFI 38364 .cfa: x29 96 +
STACK CFI INIT 38398 114 .cfa: sp 0 +
STACK CFI 3839c .cfa: sp 128 +
STACK CFI 383ac .cfa: x29 48 + x19: .cfa -8 + ^ x20: .cfa -16 + ^ x21: .cfa -32 + ^ .ra: .cfa -40 + ^ x29: .cfa -48 + ^
STACK CFI 38478 .cfa: sp 128 +
STACK CFI 38488 .cfa: sp 0 +
STACK CFI 3848c .cfa: x29 48 +
STACK CFI INIT 384ac 94 .cfa: sp 0 +
STACK CFI 384b0 .cfa: sp 16 +
STACK CFI 384b4 .cfa: x29 16 + .ra: .cfa -8 + ^ x29: .cfa -16 + ^
STACK CFI 38508 .cfa: sp 16 +
STACK CFI 3850c .cfa: sp 0 +
STACK CFI 38510 .cfa: x29 16 +
STACK CFI INIT 38620 1c .cfa: sp 0 +
STACK CFI INIT 387f4 1c .cfa: sp 0 +
STACK CFI INIT 38810 c .cfa: sp 0 +
STACK CFI INIT 3881c 88 .cfa: sp 0 +
STACK CFI 38820 .cfa: sp 48 +
STACK CFI 3882c .cfa: x29 32 + x19: .cfa -8 + ^ x20: .cfa -16 + ^ .ra: .cfa -24 + ^ x29: .cfa -32 + ^
STACK CFI 3886c .cfa: sp 48 +
STACK CFI 38878 .cfa: sp 0 +
STACK CFI 3887c .cfa: x29 32 +
STACK CFI 38890 .cfa: sp 48 +
STACK CFI 3889c .cfa: sp 0 +
STACK CFI 388a0 .cfa: x29 32 +
STACK CFI INIT 388a4 e4 .cfa: sp 0 +
STACK CFI 388a8 .cfa: sp 64 +
STACK CFI 388b8 .cfa: x29 64 + x19: .cfa -8 + ^ x20: .cfa -16 + ^ x21: .cfa -24 + ^ x22: .cfa -32 + ^ x23: .cfa -40 + ^ x24: .cfa -48 + ^ .ra: .cfa -56 + ^ x29: .cfa -64 + ^
STACK CFI 388dc .cfa: sp 64 +
STACK CFI 388ec .cfa: sp 0 +
STACK CFI 388f0 .cfa: x29 64 +
STACK CFI 38960 .cfa: sp 64 +
STACK CFI 38970 .cfa: sp 0 +
STACK CFI 38974 .cfa: sp 64 +
STACK CFI 38984 .cfa: sp 0 +
STACK CFI INIT 389a4 4 .cfa: sp 0 +
STACK CFI INIT 389a8 4 .cfa: sp 0 +
STACK CFI INIT 389ac 40 .cfa: sp 0 +
STACK CFI 389b0 .cfa: sp 32 +
STACK CFI 389b8 .cfa: x29 32 + x19: .cfa -16 + ^ .ra: .cfa -24 + ^ x29: .cfa -32 + ^
STACK CFI 389e0 .cfa: sp 32 +
STACK CFI 389e8 .cfa: sp 0 +
STACK CFI INIT 389ec 20 .cfa: sp 0 +
STACK CFI INIT 38a0c 4 .cfa: sp 0 +
STACK CFI INIT 38a10 4 .cfa: sp 0 +
STACK CFI INIT 38a14 20 .cfa: sp 0 +
STACK CFI INIT 38a34 1c .cfa: sp 0 +
STACK CFI INIT 38a50 c .cfa: sp 0 +
STACK CFI INIT 3a620 30 .cfa: sp 0 +
STACK CFI 3a62c .cfa: sp 32 +
STACK CFI 3a634 .cfa: x29 32 + x19: .cfa -16 + ^ .ra: .cfa -24 + ^ x29: .cfa -32 + ^
STACK CFI 3a644 .cfa: sp 32 +
STACK CFI 3a64c .cfa: sp 0 +
STACK CFI INIT 3a94c 4 .cfa: sp 0 +
STACK CFI INIT 3a950 14 .cfa: sp 0 +
STACK CFI INIT 3a964 4 .cfa: sp 0 +
STACK CFI INIT 3a968 14 .cfa: sp 0 +
STACK CFI INIT 3aa7c 70 .cfa: sp 0 +
STACK CFI 3aa80 .cfa: sp 48 +
STACK CFI 3aa8c .cfa: x29 32 + x19: .cfa -16 + ^ .ra: .cfa -24 + ^ x29: .cfa -32 + ^
STACK CFI 3aac4 .cfa: sp 48 +
STACK CFI 3aad0 .cfa: sp 0 +
STACK CFI 3aad4 .cfa: x29 32 +
STACK CFI INIT 3aaec 5c .cfa: sp 0 +
STACK CFI 3aaf0 .cfa: sp 32 +
STACK CFI 3aaf8 .cfa: x29 32 + x19: .cfa -16 + ^ .ra: .cfa -24 + ^ x29: .cfa -32 + ^
STACK CFI 3ab3c .cfa: sp 32 +
STACK CFI 3ab44 .cfa: sp 0 +
STACK CFI INIT 3ab48 64 .cfa: sp 0 +
STACK CFI 3ab4c .cfa: sp 32 +
STACK CFI 3ab54 .cfa: x29 32 + x19: .cfa -16 + ^ .ra: .cfa -24 + ^ x29: .cfa -32 + ^
STACK CFI 3aba0 .cfa: sp 32 +
STACK CFI 3aba8 .cfa: sp 0 +
STACK CFI INIT 3abac 4 .cfa: sp 0 +
STACK CFI INIT 3abb0 4 .cfa: sp 0 +
STACK CFI INIT 3abb4 24 .cfa: sp 0 +
STACK CFI 3abb8 .cfa: sp 16 +
STACK CFI 3abbc .cfa: x29 16 + .ra: .cfa -8 + ^ x29: .cfa -16 + ^
STACK CFI 3abd0 .cfa: sp 16 +
STACK CFI 3abd4 .cfa: sp 0 +
STACK CFI INIT 3abd8 10 .cfa: sp 0 +
STACK CFI INIT 3abe8 4 .cfa: sp 0 +
STACK CFI INIT 3abec 4 .cfa: sp 0 +
STACK CFI INIT 3abf0 18 .cfa: sp 0 +
STACK CFI INIT 3ac08 1c .cfa: sp 0 +
STACK CFI INIT 3ac24 c .cfa: sp 0 +
STACK CFI INIT 3b5e4 1c .cfa: sp 0 +
STACK CFI INIT 3b600 c .cfa: sp 0 +
STACK CFI INIT 3bb38 1c .cfa: sp 0 +
STACK CFI INIT 3bb54 c .cfa: sp 0 +
STACK CFI INIT 3bb60 60 .cfa: sp 0 +
STACK CFI 3bb64 .cfa: sp 32 +
STACK CFI 3bb6c .cfa: x29 32 + x19: .cfa -8 + ^ x20: .cfa -16 + ^ .ra: .cfa -24 + ^ x29: .cfa -32 + ^
STACK CFI 3bb8c .cfa: sp 32 +
STACK CFI 3bb94 .cfa: sp 0 +
STACK CFI 3bb98 .cfa: x29 32 +
STACK CFI 3bbb4 .cfa: sp 32 +
STACK CFI 3bbbc .cfa: sp 0 +
STACK CFI INIT 3bbc0 70 .cfa: sp 0 +
STACK CFI 3bbc4 .cfa: sp 32 +
STACK CFI 3bbcc .cfa: x29 32 + x19: .cfa -8 + ^ x20: .cfa -16 + ^ .ra: .cfa -24 + ^ x29: .cfa -32 + ^
STACK CFI 3bbf4 .cfa: sp 32 +
STACK CFI 3bbfc .cfa: sp 0 +
STACK CFI 3bc00 .cfa: x29 32 +
STACK CFI 3bc24 .cfa: sp 32 +
STACK CFI 3bc2c .cfa: sp 0 +
STACK CFI INIT 3bc30 10 .cfa: sp 0 +
STACK CFI INIT 3bc40 30 .cfa: sp 0 +
STACK CFI 3bc44 .cfa: sp 32 +
STACK CFI 3bc4c .cfa: x29 32 + x19: .cfa -16 + ^ .ra: .cfa -24 + ^ x29: .cfa -32 + ^
STACK CFI 3bc64 .cfa: sp 32 +
STACK CFI 3bc6c .cfa: sp 0 +
STACK CFI INIT 3bc70 4 .cfa: sp 0 +
STACK CFI INIT 3bc74 4 .cfa: sp 0 +
STACK CFI INIT 3bc78 3c .cfa: sp 0 +
STACK CFI 3bc7c .cfa: sp 32 +
STACK CFI 3bc84 .cfa: x29 32 + x19: .cfa -16 + ^ .ra: .cfa -24 + ^ x29: .cfa -32 + ^
STACK CFI 3bc90 .cfa: sp 32 +
STACK CFI 3bc98 .cfa: sp 0 +
STACK CFI 3bc9c .cfa: x29 32 +
STACK CFI 3bca8 .cfa: sp 32 +
STACK CFI 3bcb0 .cfa: sp 0 +
STACK CFI INIT 3bfd0 64 .cfa: sp 0 +
STACK CFI 3bfd4 .cfa: sp 32 +
STACK CFI 3bfdc .cfa: x29 32 + x19: .cfa -16 + ^ .ra: .cfa -24 + ^ x29: .cfa -32 + ^
STACK CFI 3c008 .cfa: sp 32 +
STACK CFI 3c010 .cfa: sp 0 +
STACK CFI 3c014 .cfa: x29 32 +
STACK CFI 3c028 .cfa: sp 32 +
STACK CFI 3c030 .cfa: sp 0 +
STACK CFI INIT 3c544 24 .cfa: sp 0 +
STACK CFI 3c548 .cfa: sp 32 +
STACK CFI 3c550 .cfa: x29 32 + x19: .cfa -16 + ^ .ra: .cfa -24 + ^ x29: .cfa -32 + ^
STACK CFI 3c55c .cfa: sp 32 +
STACK CFI 3c564 .cfa: sp 0 +
STACK CFI INIT 3c568 24 .cfa: sp 0 +
STACK CFI 3c56c .cfa: sp 32 +
STACK CFI 3c574 .cfa: x29 32 + x19: .cfa -16 + ^ .ra: .cfa -24 + ^ x29: .cfa -32 + ^
STACK CFI 3c580 .cfa: sp 32 +
STACK CFI 3c588 .cfa: sp 0 +
STACK CFI INIT 3c58c 8 .cfa: sp 0 +
STACK CFI INIT 3c594 24 .cfa: sp 0 +
STACK CFI 3c598 .cfa: sp 32 +
STACK CFI 3c5a0 .cfa: x29 32 + x19: .cfa -16 + ^ .ra: .cfa -24 + ^ x29: .cfa -32 + ^
STACK CFI 3c5ac .cfa: sp 32 +
STACK CFI 3c5b4 .cfa: sp 0 +
STACK CFI INIT 3c5b8 28 .cfa: sp 0 +
STACK CFI 3c5bc .cfa: sp 32 +
STACK CFI 3c5c4 .cfa: x29 32 + x19: .cfa -16 + ^ .ra: .cfa -24 + ^ x29: .cfa -32 + ^
STACK CFI 3c5d4 .cfa: sp 32 +
STACK CFI 3c5dc .cfa: sp 0 +
STACK CFI INIT 3c5e0 24 .cfa: sp 0 +
STACK CFI 3c5e4 .cfa: sp 32 +
STACK CFI 3c5ec .cfa: x29 32 + x19: .cfa -16 + ^ .ra: .cfa -24 + ^ x29: .cfa -32 + ^
STACK CFI 3c5f8 .cfa: sp 32 +
STACK CFI 3c600 .cfa: sp 0 +
STACK CFI INIT 3cd78 8 .cfa: sp 0 +
STACK CFI INIT 3cd80 24 .cfa: sp 0 +
STACK CFI 3cd84 .cfa: sp 32 +
STACK CFI 3cd8c .cfa: x29 32 + x19: .cfa -16 + ^ .ra: .cfa -24 + ^ x29: .cfa -32 + ^
STACK CFI 3cd98 .cfa: sp 32 +
STACK CFI 3cda0 .cfa: sp 0 +
STACK CFI INIT 3cda4 28 .cfa: sp 0 +
STACK CFI 3cda8 .cfa: sp 32 +
STACK CFI 3cdb0 .cfa: x29 32 + x19: .cfa -16 + ^ .ra: .cfa -24 + ^ x29: .cfa -32 + ^
STACK CFI 3cdc0 .cfa: sp 32 +
STACK CFI 3cdc8 .cfa: sp 0 +
STACK CFI INIT 3cdcc 8 .cfa: sp 0 +
STACK CFI INIT 3cdd4 24 .cfa: sp 0 +
STACK CFI 3cdd8 .cfa: sp 32 +
STACK CFI 3cde0 .cfa: x29 32 + x19: .cfa -16 + ^ .ra: .cfa -24 + ^ x29: .cfa -32 + ^
STACK CFI 3cdec .cfa: sp 32 +
STACK CFI 3cdf4 .cfa: sp 0 +
STACK CFI INIT 3cdf8 28 .cfa: sp 0 +
STACK CFI 3cdfc .cfa: sp 32 +
STACK CFI 3ce04 .cfa: x29 32 + x19: .cfa -16 + ^ .ra: .cfa -24 + ^ x29: .cfa -32 + ^
STACK CFI 3ce14 .cfa: sp 32 +
STACK CFI 3ce1c .cfa: sp 0 +
STACK CFI INIT 3d470 8 .cfa: sp 0 +
STACK CFI INIT 3d478 24 .cfa: sp 0 +
STACK CFI 3d47c .cfa: sp 32 +
STACK CFI 3d484 .cfa: x29 32 + x19: .cfa -16 + ^ .ra: .cfa -24 + ^ x29: .cfa -32 + ^
STACK CFI 3d490 .cfa: sp 32 +
STACK CFI 3d498 .cfa: sp 0 +
STACK CFI INIT 3d49c 28 .cfa: sp 0 +
STACK CFI 3d4a0 .cfa: sp 32 +
STACK CFI 3d4a8 .cfa: x29 32 + x19: .cfa -16 + ^ .ra: .cfa -24 + ^ x29: .cfa -32 + ^
STACK CFI 3d4b8 .cfa: sp 32 +
STACK CFI 3d4c0 .cfa: sp 0 +
STACK CFI INIT 3e4d0 4 .cfa: sp 0 +
STACK CFI INIT 3e4d4 14 .cfa: sp 0 +
STACK CFI INIT 3e9c8 110 .cfa: sp 0 +
STACK CFI INIT 3ead8 134 .cfa: sp 0 +
STACK CFI INIT 3ec0c c .cfa: sp 0 +
STACK CFI INIT 3ec18 a0 .cfa: sp 0 +
STACK CFI 3ec24 .cfa: sp 32 +
STACK CFI 3ec7c .cfa: sp 0 +
STACK CFI 3ec80 .cfa: sp 32 +
STACK CFI 3ec88 .cfa: sp 0 +
STACK CFI 3ec8c .cfa: sp 32 +
STACK CFI 3eca0 .cfa: sp 0 +
STACK CFI 3eca4 .cfa: sp 32 +
STACK CFI 3ecb4 .cfa: sp 0 +
STACK CFI INIT 3ecb8 38 .cfa: sp 0 +
STACK CFI 3ecc4 .cfa: sp 32 +
STACK CFI 3ecec .cfa: sp 0 +
STACK CFI INIT 3ef84 7c .cfa: sp 0 +
STACK CFI 3ef88 .cfa: sp 32 +
STACK CFI 3ef90 .cfa: x29 32 + x19: .cfa -16 + ^ .ra: .cfa -24 + ^ x29: .cfa -32 + ^
STACK CFI 3efbc .cfa: sp 32 +
STACK CFI 3efc4 .cfa: sp 0 +
STACK CFI 3efc8 .cfa: x29 32 +
STACK CFI 3eff4 .cfa: sp 32 +
STACK CFI 3effc .cfa: sp 0 +
STACK CFI INIT 3f810 64 .cfa: sp 0 +
STACK CFI 3f814 .cfa: sp 32 +
STACK CFI 3f81c .cfa: x29 32 + x19: .cfa -16 + ^ .ra: .cfa -24 + ^ x29: .cfa -32 + ^
STACK CFI 3f838 .cfa: sp 32 +
STACK CFI 3f840 .cfa: sp 0 +
STACK CFI 3f844 .cfa: x29 32 +
STACK CFI 3f868 .cfa: sp 32 +
STACK CFI 3f870 .cfa: sp 0 +
STACK CFI INIT 3f874 570 .cfa: sp 0 +
STACK CFI 3f878 .cfa: sp 176 +
STACK CFI 3f88c .cfa: x29 64 + x19: .cfa -8 + ^ x20: .cfa -16 + ^ x21: .cfa -24 + ^ x22: .cfa -32 + ^ x23: .cfa -40 + ^ x24: .cfa -48 + ^ .ra: .cfa -56 + ^ x29: .cfa -64 + ^
STACK CFI 3fabc .cfa: sp 176 +
STACK CFI 3fad0 .cfa: sp 0 +
STACK CFI 3fad4 .cfa: x29 64 +
STACK CFI 3fb20 .cfa: sp 176 +
STACK CFI 3fb34 .cfa: sp 0 +
STACK CFI 3fb38 .cfa: x29 64 +
STACK CFI 3fb70 .cfa: sp 176 +
STACK CFI 3fb84 .cfa: sp 0 +
STACK CFI 3fb88 .cfa: x29 64 +
STACK CFI 3fba0 .cfa: sp 176 +
STACK CFI 3fbb4 .cfa: sp 0 +
STACK CFI 3fbb8 .cfa: x29 64 +
STACK CFI 3fbd8 .cfa: sp 176 +
STACK CFI 3fbec .cfa: sp 0 +
STACK CFI 3fbf0 .cfa: x29 64 +
STACK CFI 3fc08 .cfa: sp 176 +
STACK CFI 3fc1c .cfa: sp 0 +
STACK CFI 3fc20 .cfa: x29 64 +
STACK CFI 3fc34 .cfa: sp 176 +
STACK CFI 3fc48 .cfa: sp 0 +
STACK CFI 3fc4c .cfa: x29 64 +
STACK CFI 3fc60 .cfa: sp 176 +
STACK CFI 3fc74 .cfa: sp 0 +
STACK CFI 3fc78 .cfa: x29 64 +
STACK CFI 3fc88 .cfa: sp 176 +
STACK CFI 3fc9c .cfa: sp 0 +
STACK CFI 3fca0 .cfa: x29 64 +
STACK CFI 3fcb0 .cfa: sp 176 +
STACK CFI 3fcc4 .cfa: sp 0 +
STACK CFI 3fcc8 .cfa: x29 64 +
STACK CFI 3fce0 .cfa: sp 176 +
STACK CFI 3fcf4 .cfa: sp 0 +
STACK CFI 3fcf8 .cfa: x29 64 +
STACK CFI 3fd0c .cfa: sp 176 +
STACK CFI 3fd20 .cfa: sp 0 +
STACK CFI 3fd24 .cfa: x29 64 +
STACK CFI 3fd3c .cfa: sp 176 +
STACK CFI 3fd50 .cfa: sp 0 +
STACK CFI 3fd54 .cfa: x29 64 +
STACK CFI 3fd80 .cfa: sp 176 +
STACK CFI 3fd94 .cfa: sp 0 +
STACK CFI 3fd98 .cfa: x29 64 +
STACK CFI 3fdac .cfa: sp 176 +
STACK CFI 3fdc0 .cfa: sp 0 +
STACK CFI 3fdc4 .cfa: x29 64 +
STACK CFI INIT 3fde4 228 .cfa: sp 0 +
STACK CFI INIT 4000c 2dc .cfa: sp 0 +
STACK CFI INIT 402e8 53c .cfa: sp 0 +
STACK CFI INIT 40824 8c .cfa: sp 0 +
STACK CFI 40828 .cfa: sp 32 +
STACK CFI 40830 .cfa: x29 32 + x19: .cfa -16 + ^ .ra: .cfa -24 + ^ x29: .cfa -32 + ^
STACK CFI 40864 .cfa: sp 32 +
STACK CFI 4086c .cfa: sp 0 +
STACK CFI 40870 .cfa: x29 32 +
STACK CFI 408a4 .cfa: sp 32 +
STACK CFI 408ac .cfa: sp 0 +
STACK CFI INIT 408b0 150 .cfa: sp 0 +
STACK CFI 408b4 .cfa: sp 48 +
STACK CFI 408c0 .cfa: x29 48 + x19: .cfa -8 + ^ x20: .cfa -16 + ^ x21: .cfa -24 + ^ x22: .cfa -32 + ^ .ra: .cfa -40 + ^ x29: .cfa -48 + ^
STACK CFI 409f0 .cfa: sp 48 +
STACK CFI 409fc .cfa: sp 0 +
STACK CFI INIT 40a00 68 .cfa: sp 0 +
STACK CFI 40a04 .cfa: sp 64 +
STACK CFI 40a10 .cfa: x29 32 + x19: .cfa -16 + ^ .ra: .cfa -24 + ^ x29: .cfa -32 + ^
STACK CFI 40a54 .cfa: sp 64 +
STACK CFI 40a60 .cfa: sp 0 +
STACK CFI 40a64 .cfa: x29 32 +
STACK CFI INIT 40a68 90 .cfa: sp 0 +
STACK CFI 40a6c .cfa: sp 32 +
STACK CFI 40a74 .cfa: x29 32 + x19: .cfa -8 + ^ x20: .cfa -16 + ^ .ra: .cfa -24 + ^ x29: .cfa -32 + ^
STACK CFI 40aa0 .cfa: sp 32 +
STACK CFI 40aa8 .cfa: sp 0 +
STACK CFI 40aac .cfa: x29 32 +
STACK CFI 40aec .cfa: sp 32 +
STACK CFI 40af4 .cfa: sp 0 +
STACK CFI INIT 40af8 ec .cfa: sp 0 +
STACK CFI 40afc .cfa: sp 112 +
STACK CFI 40b0c .cfa: x29 48 + x19: .cfa -8 + ^ x20: .cfa -16 + ^ x21: .cfa -32 + ^ .ra: .cfa -40 + ^ x29: .cfa -48 + ^
STACK CFI 40bcc .cfa: sp 112 +
STACK CFI 40bdc .cfa: sp 0 +
STACK CFI 40be0 .cfa: x29 48 +
STACK CFI INIT 40be4 ec .cfa: sp 0 +
STACK CFI 40be8 .cfa: sp 112 +
STACK CFI 40bf8 .cfa: x29 48 + x19: .cfa -8 + ^ x20: .cfa -16 + ^ x21: .cfa -32 + ^ .ra: .cfa -40 + ^ x29: .cfa -48 + ^
STACK CFI 40cb8 .cfa: sp 112 +
STACK CFI 40cc8 .cfa: sp 0 +
STACK CFI 40ccc .cfa: x29 48 +
STACK CFI INIT 40cd0 48 .cfa: sp 0 +
STACK CFI 40cd4 .cfa: sp 32 +
STACK CFI 40cdc .cfa: x29 32 + x19: .cfa -8 + ^ x20: .cfa -16 + ^ .ra: .cfa -24 + ^ x29: .cfa -32 + ^
STACK CFI 40d00 .cfa: sp 32 +
STACK CFI 40d08 .cfa: sp 0 +
STACK CFI 40d0c .cfa: x29 32 +
STACK CFI INIT 40d18 98 .cfa: sp 0 +
STACK CFI 40d1c .cfa: sp 80 +
STACK CFI 40d28 .cfa: x29 32 + x19: .cfa -16 + ^ .ra: .cfa -24 + ^ x29: .cfa -32 + ^
STACK CFI 40d9c .cfa: sp 80 +
STACK CFI 40da8 .cfa: sp 0 +
STACK CFI 40dac .cfa: x29 32 +
STACK CFI INIT 40db0 260 .cfa: sp 0 +
STACK CFI 40db4 .cfa: sp 112 +
STACK CFI 40dcc .cfa: x29 80 + x19: .cfa -8 + ^ x20: .cfa -16 + ^ x21: .cfa -24 + ^ x22: .cfa -32 + ^ x23: .cfa -40 + ^ x24: .cfa -48 + ^ x25: .cfa -64 + ^ .ra: .cfa -72 + ^ x29: .cfa -80 + ^
STACK CFI 40fb0 .cfa: sp 112 +
STACK CFI 40fc8 .cfa: sp 0 +
STACK CFI 40fcc .cfa: x29 80 +
STACK CFI INIT 41010 150 .cfa: sp 0 +
STACK CFI 41014 .cfa: sp 48 +
STACK CFI 41020 .cfa: x29 48 + x19: .cfa -8 + ^ x20: .cfa -16 + ^ x21: .cfa -24 + ^ x22: .cfa -32 + ^ .ra: .cfa -40 + ^ x29: .cfa -48 + ^
STACK CFI 41150 .cfa: sp 48 +
STACK CFI 4115c .cfa: sp 0 +
STACK CFI INIT 41160 1e0 .cfa: sp 0 +
STACK CFI 41164 .cfa: sp 96 +
STACK CFI 41178 .cfa: x29 64 + x19: .cfa -8 + ^ x20: .cfa -16 + ^ x21: .cfa -24 + ^ x22: .cfa -32 + ^ x23: .cfa -40 + ^ x24: .cfa -48 + ^ .ra: .cfa -56 + ^ x29: .cfa -64 + ^
STACK CFI 412f8 .cfa: sp 96 +
STACK CFI 4130c .cfa: sp 0 +
STACK CFI 41310 .cfa: x29 64 +
STACK CFI INIT 41340 284 .cfa: sp 0 +
STACK CFI 41344 .cfa: sp 112 +
STACK CFI 4135c .cfa: x29 80 + x19: .cfa -8 + ^ x20: .cfa -16 + ^ x21: .cfa -24 + ^ x22: .cfa -32 + ^ x23: .cfa -40 + ^ x24: .cfa -48 + ^ x25: .cfa -64 + ^ .ra: .cfa -72 + ^ x29: .cfa -80 + ^
STACK CFI 41564 .cfa: sp 112 +
STACK CFI 4157c .cfa: sp 0 +
STACK CFI 41580 .cfa: x29 80 +
STACK CFI INIT 415c4 208 .cfa: sp 0 +
STACK CFI 415c8 .cfa: sp 96 +
STACK CFI 415dc .cfa: x29 64 + x19: .cfa -8 + ^ x20: .cfa -16 + ^ x21: .cfa -24 + ^ x22: .cfa -32 + ^ x23: .cfa -40 + ^ x24: .cfa -48 + ^ .ra: .cfa -56 + ^ x29: .cfa -64 + ^
STACK CFI 41784 .cfa: sp 96 +
STACK CFI 41798 .cfa: sp 0 +
STACK CFI 4179c .cfa: x29 64 +
STACK CFI INIT 417cc 360 .cfa: sp 0 +
STACK CFI 417d0 .cfa: sp 160 +
STACK CFI 417ec .cfa: x29 96 + x19: .cfa -8 + ^ x20: .cfa -16 + ^ x21: .cfa -24 + ^ x22: .cfa -32 + ^ x23: .cfa -40 + ^ x24: .cfa -48 + ^ x25: .cfa -56 + ^ x26: .cfa -64 + ^ x27: .cfa -72 + ^ x28: .cfa -80 + ^ .ra: .cfa -88 + ^ x29: .cfa -96 + ^
STACK CFI 41ab8 .cfa: sp 160 +
STACK CFI 41ad4 .cfa: sp 0 +
STACK CFI 41ad8 .cfa: x29 96 +
STACK CFI INIT 41b2c 314 .cfa: sp 0 +
STACK CFI 41b30 .cfa: sp 144 +
STACK CFI 41b4c .cfa: x29 96 + x19: .cfa -8 + ^ x20: .cfa -16 + ^ x21: .cfa -24 + ^ x22: .cfa -32 + ^ x23: .cfa -40 + ^ x24: .cfa -48 + ^ x25: .cfa -56 + ^ x26: .cfa -64 + ^ x27: .cfa -72 + ^ x28: .cfa -80 + ^ .ra: .cfa -88 + ^ x29: .cfa -96 + ^
STACK CFI 41dc8 .cfa: sp 144 +
STACK CFI 41de4 .cfa: sp 0 +
STACK CFI 41de8 .cfa: x29 96 +
STACK CFI INIT 41e40 2b4 .cfa: sp 0 +
STACK CFI 41e44 .cfa: sp 128 +
STACK CFI 41e5c .cfa: x29 80 + x19: .cfa -8 + ^ x20: .cfa -16 + ^ x21: .cfa -24 + ^ x22: .cfa -32 + ^ x23: .cfa -40 + ^ x24: .cfa -48 + ^ x25: .cfa -56 + ^ x26: .cfa -64 + ^ .ra: .cfa -72 + ^ x29: .cfa -80 + ^
STACK CFI 42050 .cfa: sp 128 +
STACK CFI 42068 .cfa: sp 0 +
STACK CFI 4206c .cfa: x29 80 +
STACK CFI 420d4 .cfa: sp 128 +
STACK CFI 420ec .cfa: sp 0 +
STACK CFI 420f0 .cfa: x29 80 +
STACK CFI INIT 420f4 de0 .cfa: sp 0 +
STACK CFI 420f8 .cfa: sp 144 +
STACK CFI 42114 .cfa: x29 96 + x19: .cfa -8 + ^ x20: .cfa -16 + ^ x21: .cfa -24 + ^ x22: .cfa -32 + ^ x23: .cfa -40 + ^ x24: .cfa -48 + ^ x25: .cfa -56 + ^ x26: .cfa -64 + ^ x27: .cfa -72 + ^ x28: .cfa -80 + ^ .ra: .cfa -88 + ^ x29: .cfa -96 + ^
STACK CFI 42dac .cfa: sp 144 +
STACK CFI 42dc8 .cfa: sp 0 +
STACK CFI 42dcc .cfa: x29 96 +
STACK CFI INIT 42ed4 264 .cfa: sp 0 +
STACK CFI 42ed8 .cfa: sp 112 +
STACK CFI 42eec .cfa: x29 64 + x19: .cfa -8 + ^ x20: .cfa -16 + ^ x21: .cfa -24 + ^ x22: .cfa -32 + ^ x23: .cfa -40 + ^ x24: .cfa -48 + ^ .ra: .cfa -56 + ^ x29: .cfa -64 + ^
STACK CFI 43068 .cfa: sp 112 +
STACK CFI 4307c .cfa: sp 0 +
STACK CFI 43080 .cfa: x29 64 +
STACK CFI 430f0 .cfa: sp 112 +
STACK CFI 43104 .cfa: sp 0 +
STACK CFI 43108 .cfa: x29 64 +
STACK CFI INIT 43138 258 .cfa: sp 0 +
STACK CFI 4313c .cfa: sp 96 +
STACK CFI 43154 .cfa: x29 96 + x19: .cfa -8 + ^ x20: .cfa -16 + ^ x21: .cfa -24 + ^ x22: .cfa -32 + ^ x23: .cfa -40 + ^ x24: .cfa -48 + ^ x25: .cfa -56 + ^ x26: .cfa -64 + ^ x27: .cfa -72 + ^ x28: .cfa -80 + ^ .ra: .cfa -88 + ^ x29: .cfa -96 + ^
STACK CFI 4334c .cfa: sp 96 +
STACK CFI 43364 .cfa: sp 0 +
STACK CFI 43368 .cfa: x29 96 +
STACK CFI 43374 .cfa: sp 96 +
STACK CFI 4338c .cfa: sp 0 +
STACK CFI INIT 44014 154 .cfa: sp 0 +
STACK CFI 44018 .cfa: sp 96 +
STACK CFI 4402c .cfa: x29 64 + x19: .cfa -8 + ^ x20: .cfa -16 + ^ x21: .cfa -24 + ^ x22: .cfa -32 + ^ x23: .cfa -48 + ^ .ra: .cfa -56 + ^ x29: .cfa -64 + ^
STACK CFI 4410c .cfa: sp 96 +
STACK CFI 44120 .cfa: sp 0 +
STACK CFI 44124 .cfa: x29 64 +
STACK CFI INIT 443d4 44 .cfa: sp 0 +
STACK CFI 443d8 .cfa: sp 32 +
STACK CFI 443e0 .cfa: x29 32 + x19: .cfa -16 + ^ .ra: .cfa -24 + ^ x29: .cfa -32 + ^
STACK CFI 443fc .cfa: sp 32 +
STACK CFI 44404 .cfa: sp 0 +
STACK CFI 44408 .cfa: x29 32 +
STACK CFI 4440c .cfa: sp 32 +
STACK CFI 44414 .cfa: sp 0 +
STACK CFI INIT 44418 1d0 .cfa: sp 0 +
STACK CFI 4441c .cfa: sp 64 +
STACK CFI 4442c .cfa: x29 64 + x19: .cfa -8 + ^ x20: .cfa -16 + ^ x21: .cfa -24 + ^ x22: .cfa -32 + ^ x23: .cfa -40 + ^ x24: .cfa -48 + ^ .ra: .cfa -56 + ^ x29: .cfa -64 + ^
STACK CFI 444ec .cfa: sp 64 +
STACK CFI 444fc .cfa: sp 0 +
STACK CFI 44500 .cfa: x29 64 +
STACK CFI INIT 445e8 17c .cfa: sp 0 +
STACK CFI INIT 44b1c a0 .cfa: sp 0 +
STACK CFI 44b20 .cfa: sp 48 +
STACK CFI 44b2c .cfa: x29 48 + x19: .cfa -8 + ^ x20: .cfa -16 + ^ x21: .cfa -24 + ^ x22: .cfa -32 + ^ .ra: .cfa -40 + ^ x29: .cfa -48 + ^
STACK CFI 44b98 .cfa: sp 48 +
STACK CFI 44ba4 .cfa: sp 0 +
STACK CFI 44ba8 .cfa: sp 48 +
STACK CFI 44bb4 .cfa: sp 0 +
STACK CFI 44bb8 .cfa: x29 48 +
STACK CFI INIT 4587c 158 .cfa: sp 0 +
STACK CFI 45880 .cfa: sp 96 +
STACK CFI 45894 .cfa: x29 64 + x19: .cfa -8 + ^ x20: .cfa -16 + ^ x21: .cfa -24 + ^ x22: .cfa -32 + ^ x23: .cfa -48 + ^ .ra: .cfa -56 + ^ x29: .cfa -64 + ^
STACK CFI 45978 .cfa: sp 96 +
STACK CFI 4598c .cfa: sp 0 +
STACK CFI 45990 .cfa: x29 64 +
STACK CFI INIT 459d4 190 .cfa: sp 0 +
STACK CFI INIT 4665c 1f4 .cfa: sp 0 +
STACK CFI 46660 .cfa: sp 80 +
STACK CFI 46674 .cfa: x29 80 + x19: .cfa -8 + ^ x20: .cfa -16 + ^ x21: .cfa -24 + ^ x22: .cfa -32 + ^ x23: .cfa -40 + ^ x24: .cfa -48 + ^ x25: .cfa -64 + ^ .ra: .cfa -72 + ^ x29: .cfa -80 + ^
STACK CFI 46814 .cfa: sp 80 +
STACK CFI 46828 .cfa: sp 0 +
STACK CFI 4682c .cfa: x29 80 +
STACK CFI 46838 .cfa: sp 80 +
STACK CFI 4684c .cfa: sp 0 +
STACK CFI INIT 47c80 124 .cfa: sp 0 +
STACK CFI 47cb0 .cfa: sp 32 +
STACK CFI 47cb8 .cfa: x29 32 + x19: .cfa -8 + ^ x20: .cfa -16 + ^ .ra: .cfa -24 + ^ x29: .cfa -32 + ^
STACK CFI 47d98 .cfa: sp 32 +
STACK CFI 47da0 .cfa: sp 0 +
STACK CFI INIT 48500 320 .cfa: sp 0 +
STACK CFI 48504 .cfa: sp 64 +
STACK CFI 48514 .cfa: x29 64 + x19: .cfa -8 + ^ x20: .cfa -16 + ^ x21: .cfa -24 + ^ x22: .cfa -32 + ^ x23: .cfa -40 + ^ x24: .cfa -48 + ^ .ra: .cfa -56 + ^ x29: .cfa -64 + ^
STACK CFI 48590 .cfa: sp 64 +
STACK CFI 485a0 .cfa: sp 0 +
STACK CFI 485a4 .cfa: x29 64 +
STACK CFI 48778 .cfa: sp 64 +
STACK CFI 48788 .cfa: sp 0 +
STACK CFI 4878c .cfa: x29 64 +
STACK CFI 4879c .cfa: sp 64 +
STACK CFI 487ac .cfa: sp 0 +
STACK CFI 487b0 .cfa: x29 64 +
STACK CFI INIT 48820 a0 .cfa: sp 0 +
STACK CFI 48824 .cfa: sp 48 +
STACK CFI 48830 .cfa: x29 48 + x19: .cfa -8 + ^ x20: .cfa -16 + ^ x21: .cfa -24 + ^ x22: .cfa -32 + ^ .ra: .cfa -40 + ^ x29: .cfa -48 + ^
STACK CFI 4889c .cfa: sp 48 +
STACK CFI 488a8 .cfa: sp 0 +
STACK CFI 488ac .cfa: sp 48 +
STACK CFI 488b8 .cfa: sp 0 +
STACK CFI 488bc .cfa: x29 48 +
STACK CFI INIT 497a0 160 .cfa: sp 0 +
STACK CFI 497a4 .cfa: sp 64 +
STACK CFI 497b4 .cfa: x29 64 + x19: .cfa -8 + ^ x20: .cfa -16 + ^ x21: .cfa -24 + ^ x22: .cfa -32 + ^ x23: .cfa -48 + ^ .ra: .cfa -56 + ^ x29: .cfa -64 + ^
STACK CFI 498ac .cfa: sp 64 +
STACK CFI 498bc .cfa: sp 0 +
STACK CFI 498c0 .cfa: x29 64 +
STACK CFI INIT 49900 214 .cfa: sp 0 +
STACK CFI 49904 .cfa: sp 128 +
STACK CFI 49920 .cfa: x29 96 + x19: .cfa -8 + ^ x20: .cfa -16 + ^ x21: .cfa -24 + ^ x22: .cfa -32 + ^ x23: .cfa -40 + ^ x24: .cfa -48 + ^ x25: .cfa -56 + ^ x26: .cfa -64 + ^ x27: .cfa -80 + ^ .ra: .cfa -88 + ^ x29: .cfa -96 + ^
STACK CFI 49a9c .cfa: sp 128 +
STACK CFI 49ab8 .cfa: sp 0 +
STACK CFI 49abc .cfa: x29 96 +
STACK CFI INIT 4afc8 e60 .cfa: sp 0 +
STACK CFI 4afcc .cfa: sp 192 +
STACK CFI 4afe8 .cfa: x29 96 + x19: .cfa -8 + ^ x20: .cfa -16 + ^ x21: .cfa -24 + ^ x22: .cfa -32 + ^ x23: .cfa -40 + ^ x24: .cfa -48 + ^ x25: .cfa -56 + ^ x26: .cfa -64 + ^ x27: .cfa -72 + ^ x28: .cfa -80 + ^ .ra: .cfa -88 + ^ x29: .cfa -96 + ^
STACK CFI 4bd10 .cfa: sp 192 +
STACK CFI 4bd2c .cfa: sp 0 +
STACK CFI 4bd30 .cfa: x29 96 +
STACK CFI INIT 4be28 1090 .cfa: sp 0 +
STACK CFI 4be2c .cfa: sp 288 +
STACK CFI 4be48 .cfa: x29 96 + x19: .cfa -8 + ^ x20: .cfa -16 + ^ x21: .cfa -24 + ^ x22: .cfa -32 + ^ x23: .cfa -40 + ^ x24: .cfa -48 + ^ x25: .cfa -56 + ^ x26: .cfa -64 + ^ x27: .cfa -72 + ^ x28: .cfa -80 + ^ .ra: .cfa -88 + ^ x29: .cfa -96 + ^
STACK CFI 4cc00 .cfa: sp 288 +
STACK CFI 4cc1c .cfa: sp 0 +
STACK CFI 4cc20 .cfa: x29 96 +
STACK CFI INIT 4ceb8 520 .cfa: sp 0 +
STACK CFI 4cebc .cfa: sp 144 +
STACK CFI 4ced8 .cfa: x29 96 + x19: .cfa -8 + ^ x20: .cfa -16 + ^ x21: .cfa -24 + ^ x22: .cfa -32 + ^ x23: .cfa -40 + ^ x24: .cfa -48 + ^ x25: .cfa -56 + ^ x26: .cfa -64 + ^ x27: .cfa -72 + ^ x28: .cfa -80 + ^ .ra: .cfa -88 + ^ x29: .cfa -96 + ^
STACK CFI 4d3b4 .cfa: sp 144 +
STACK CFI 4d3d0 .cfa: sp 0 +
STACK CFI 4d3d4 .cfa: x29 96 +
STACK CFI INIT 20b34 45c .cfa: sp 0 +
STACK CFI 20b38 .cfa: sp 224 +
STACK CFI 20b54 .cfa: x29 96 + x19: .cfa -8 + ^ x20: .cfa -16 + ^ x21: .cfa -24 + ^ x22: .cfa -32 + ^ x23: .cfa -40 + ^ x24: .cfa -48 + ^ x25: .cfa -56 + ^ x26: .cfa -64 + ^ x27: .cfa -72 + ^ x28: .cfa -80 + ^ .ra: .cfa -88 + ^ x29: .cfa -96 + ^
STACK CFI 20e78 .cfa: sp 224 +
STACK CFI 20e94 .cfa: sp 0 +
STACK CFI 20e98 .cfa: x29 96 +
STACK CFI INIT 20f90 45c .cfa: sp 0 +
STACK CFI 20f94 .cfa: sp 224 +
STACK CFI 20fb0 .cfa: x29 96 + x19: .cfa -8 + ^ x20: .cfa -16 + ^ x21: .cfa -24 + ^ x22: .cfa -32 + ^ x23: .cfa -40 + ^ x24: .cfa -48 + ^ x25: .cfa -56 + ^ x26: .cfa -64 + ^ x27: .cfa -72 + ^ x28: .cfa -80 + ^ .ra: .cfa -88 + ^ x29: .cfa -96 + ^
STACK CFI 212d4 .cfa: sp 224 +
STACK CFI 212f0 .cfa: sp 0 +
STACK CFI 212f4 .cfa: x29 96 +
STACK CFI INIT 213ec 45c .cfa: sp 0 +
STACK CFI 213f0 .cfa: sp 224 +
STACK CFI 2140c .cfa: x29 96 + x19: .cfa -8 + ^ x20: .cfa -16 + ^ x21: .cfa -24 + ^ x22: .cfa -32 + ^ x23: .cfa -40 + ^ x24: .cfa -48 + ^ x25: .cfa -56 + ^ x26: .cfa -64 + ^ x27: .cfa -72 + ^ x28: .cfa -80 + ^ .ra: .cfa -88 + ^ x29: .cfa -96 + ^
STACK CFI 21730 .cfa: sp 224 +
STACK CFI 2174c .cfa: sp 0 +
STACK CFI 21750 .cfa: x29 96 +
STACK CFI INIT 21890 484 .cfa: sp 0 +
STACK CFI 21894 .cfa: sp 224 +
STACK CFI 218b0 .cfa: x29 96 + x19: .cfa -8 + ^ x20: .cfa -16 + ^ x21: .cfa -24 + ^ x22: .cfa -32 + ^ x23: .cfa -40 + ^ x24: .cfa -48 + ^ x25: .cfa -56 + ^ x26: .cfa -64 + ^ x27: .cfa -72 + ^ x28: .cfa -80 + ^ .ra: .cfa -88 + ^ x29: .cfa -96 + ^
STACK CFI 21b20 .cfa: sp 224 +
STACK CFI 21b3c .cfa: sp 0 +
STACK CFI 21b40 .cfa: x29 96 +
STACK CFI 21c0c .cfa: sp 224 +
STACK CFI 21c28 .cfa: sp 0 +
STACK CFI 21c2c .cfa: x29 96 +
STACK CFI INIT 21d2c 364 .cfa: sp 0 +
STACK CFI 21d30 .cfa: sp 240 +
STACK CFI 21d44 .cfa: x29 64 + x19: .cfa -8 + ^ x20: .cfa -16 + ^ x21: .cfa -24 + ^ x22: .cfa -32 + ^ x23: .cfa -40 + ^ x24: .cfa -48 + ^ .ra: .cfa -56 + ^ x29: .cfa -64 + ^
STACK CFI 21f6c .cfa: sp 240 +
STACK CFI 21f80 .cfa: sp 0 +
STACK CFI 21f84 .cfa: x29 64 +
STACK CFI INIT 220e0 74 .cfa: sp 0 +
STACK CFI 220e4 .cfa: sp 48 +
STACK CFI 220f0 .cfa: x29 32 + x19: .cfa -8 + ^ x20: .cfa -16 + ^ .ra: .cfa -24 + ^ x29: .cfa -32 + ^
STACK CFI 2213c .cfa: sp 48 +
STACK CFI 22148 .cfa: sp 0 +
STACK CFI 2214c .cfa: x29 32 +
STACK CFI INIT 221e4 154 .cfa: sp 0 +
STACK CFI 221e8 .cfa: sp 384 +
STACK CFI 221fc .cfa: x29 64 + x19: .cfa -8 + ^ x20: .cfa -16 + ^ x21: .cfa -24 + ^ x22: .cfa -32 + ^ x23: .cfa -40 + ^ x28: .cfa -48 + ^ .ra: .cfa -56 + ^ x29: .cfa -64 + ^
STACK CFI 222e0 .cfa: sp 384 +
STACK CFI 222f4 .cfa: sp 0 +
STACK CFI 222f8 .cfa: x29 64 +
STACK CFI INIT 2236c 12c .cfa: sp 0 +
STACK CFI 22370 .cfa: sp 80 +
STACK CFI 22384 .cfa: x29 80 + x19: .cfa -8 + ^ x20: .cfa -16 + ^ x21: .cfa -24 + ^ x22: .cfa -32 + ^ x23: .cfa -40 + ^ x24: .cfa -48 + ^ x25: .cfa -56 + ^ x26: .cfa -64 + ^ .ra: .cfa -72 + ^ x29: .cfa -80 + ^
STACK CFI 2244c .cfa: sp 80 +
STACK CFI 22460 .cfa: sp 0 +
STACK CFI 22464 .cfa: x29 80 +
STACK CFI INIT 2253c 1a4 .cfa: sp 0 +
STACK CFI 22540 .cfa: sp 112 +
STACK CFI 22558 .cfa: x29 80 + x19: .cfa -8 + ^ x20: .cfa -16 + ^ x21: .cfa -24 + ^ x22: .cfa -32 + ^ x23: .cfa -40 + ^ x24: .cfa -48 + ^ x25: .cfa -56 + ^ x26: .cfa -64 + ^ .ra: .cfa -72 + ^ x29: .cfa -80 + ^
STACK CFI 22648 .cfa: sp 112 +
STACK CFI 22660 .cfa: sp 0 +
STACK CFI 22664 .cfa: x29 80 +
STACK CFI INIT 226e0 1dc .cfa: sp 0 +
STACK CFI 226e4 .cfa: sp 128 +
STACK CFI 22700 .cfa: x29 96 + x19: .cfa -8 + ^ x20: .cfa -16 + ^ x21: .cfa -24 + ^ x22: .cfa -32 + ^ x23: .cfa -40 + ^ x24: .cfa -48 + ^ x25: .cfa -56 + ^ x26: .cfa -64 + ^ x27: .cfa -80 + ^ .ra: .cfa -88 + ^ x29: .cfa -96 + ^
STACK CFI 2286c .cfa: sp 128 +
STACK CFI 22888 .cfa: sp 0 +
STACK CFI 2288c .cfa: x29 96 +
STACK CFI INIT 228d0 50 .cfa: sp 0 +
STACK CFI 228d4 .cfa: sp 32 +
STACK CFI 228dc .cfa: x29 32 + x19: .cfa -8 + ^ x20: .cfa -16 + ^ .ra: .cfa -24 + ^ x29: .cfa -32 + ^
STACK CFI INIT 22984 178 .cfa: sp 0 +
STACK CFI 22988 .cfa: sp 80 +
STACK CFI 2299c .cfa: x29 80 + x19: .cfa -8 + ^ x20: .cfa -16 + ^ x21: .cfa -24 + ^ x22: .cfa -32 + ^ x23: .cfa -40 + ^ x24: .cfa -48 + ^ x25: .cfa -64 + ^ .ra: .cfa -72 + ^ x29: .cfa -80 + ^
STACK CFI 22ac8 .cfa: sp 80 +
STACK CFI 22adc .cfa: sp 0 +
STACK CFI 22ae0 .cfa: x29 80 +
STACK CFI INIT 22c44 224 .cfa: sp 0 +
STACK CFI 22c48 .cfa: sp 128 +
STACK CFI 22c60 .cfa: x29 80 + x19: .cfa -8 + ^ x20: .cfa -16 + ^ x21: .cfa -24 + ^ x22: .cfa -32 + ^ x23: .cfa -40 + ^ x24: .cfa -48 + ^ x25: .cfa -64 + ^ .ra: .cfa -72 + ^ x29: .cfa -80 + ^
STACK CFI 22dfc .cfa: sp 128 +
STACK CFI 22e14 .cfa: sp 0 +
STACK CFI 22e18 .cfa: x29 80 +
STACK CFI INIT 235dc c0 .cfa: sp 0 +
STACK CFI 235e0 .cfa: sp 32 +
STACK CFI 235e8 .cfa: x29 32 + x19: .cfa -16 + ^ .ra: .cfa -24 + ^ x29: .cfa -32 + ^
STACK CFI 2361c .cfa: sp 32 +
STACK CFI 23624 .cfa: sp 0 +
STACK CFI 23628 .cfa: x29 32 +
STACK CFI 2362c .cfa: sp 32 +
STACK CFI 23634 .cfa: sp 0 +
STACK CFI 23638 .cfa: x29 32 +
STACK CFI INIT 23a68 2f4 .cfa: sp 0 +
STACK CFI 23a6c .cfa: sp 176 +
STACK CFI 23a80 .cfa: x29 64 + x19: .cfa -8 + ^ x20: .cfa -16 + ^ x21: .cfa -24 + ^ x22: .cfa -32 + ^ x23: .cfa -48 + ^ .ra: .cfa -56 + ^ x29: .cfa -64 + ^
STACK CFI 23c54 .cfa: sp 176 +
STACK CFI 23c68 .cfa: sp 0 +
STACK CFI 23c6c .cfa: x29 64 +
STACK CFI INIT 23d60 89c .cfa: sp 0 +
STACK CFI 23d64 .cfa: sp 240 +
STACK CFI 23d7c .cfa: x29 80 + x19: .cfa -8 + ^ x20: .cfa -16 + ^ x21: .cfa -24 + ^ x22: .cfa -32 + ^ x23: .cfa -40 + ^ x24: .cfa -48 + ^ x25: .cfa -64 + ^ .ra: .cfa -72 + ^ x29: .cfa -80 + ^
STACK CFI 24410 .cfa: sp 240 +
STACK CFI 24428 .cfa: sp 0 +
STACK CFI 2442c .cfa: x29 80 +
STACK CFI INIT 245fc a8 .cfa: sp 0 +
STACK CFI 24600 .cfa: sp 32 +
STACK CFI 24608 .cfa: x29 32 + x19: .cfa -16 + ^ .ra: .cfa -24 + ^ x29: .cfa -32 + ^
STACK CFI 2463c .cfa: sp 32 +
STACK CFI 24644 .cfa: sp 0 +
STACK CFI 24648 .cfa: x29 32 +
STACK CFI 2464c .cfa: sp 32 +
STACK CFI 24654 .cfa: sp 0 +
STACK CFI 24658 .cfa: x29 32 +
STACK CFI INIT 24758 1180 .cfa: sp 0 +
STACK CFI 2475c .cfa: sp 96 +
STACK CFI 24774 .cfa: x29 96 + x19: .cfa -8 + ^ x20: .cfa -16 + ^ x21: .cfa -24 + ^ x22: .cfa -32 + ^ x23: .cfa -40 + ^ x24: .cfa -48 + ^ x25: .cfa -56 + ^ x26: .cfa -64 + ^ x27: .cfa -72 + ^ x28: .cfa -80 + ^ .ra: .cfa -88 + ^ x29: .cfa -96 + ^
STACK CFI 25424 .cfa: sp 96 +
STACK CFI 2543c .cfa: sp 0 +
STACK CFI 25440 .cfa: x29 96 +
STACK CFI INIT 258d8 ce0 .cfa: sp 0 +
STACK CFI 258dc .cfa: sp 96 +
STACK CFI 258f4 .cfa: x29 96 + x19: .cfa -8 + ^ x20: .cfa -16 + ^ x21: .cfa -24 + ^ x22: .cfa -32 + ^ x23: .cfa -40 + ^ x24: .cfa -48 + ^ x25: .cfa -56 + ^ x26: .cfa -64 + ^ x27: .cfa -72 + ^ x28: .cfa -80 + ^ .ra: .cfa -88 + ^ x29: .cfa -96 + ^
STACK CFI 26314 .cfa: sp 96 +
STACK CFI 2632c .cfa: sp 0 +
STACK CFI 26330 .cfa: x29 96 +
STACK CFI INIT 265b8 74 .cfa: sp 0 +
STACK CFI 265bc .cfa: sp 48 +
STACK CFI 265c8 .cfa: x29 32 + x19: .cfa -8 + ^ x20: .cfa -16 + ^ .ra: .cfa -24 + ^ x29: .cfa -32 + ^
STACK CFI 26614 .cfa: sp 48 +
STACK CFI 26620 .cfa: sp 0 +
STACK CFI 26624 .cfa: x29 32 +
STACK CFI INIT 2662c 84 .cfa: sp 0 +
STACK CFI 26630 .cfa: sp 48 +
STACK CFI 2663c .cfa: x29 48 + x19: .cfa -8 + ^ x20: .cfa -16 + ^ x21: .cfa -32 + ^ .ra: .cfa -40 + ^ x29: .cfa -48 + ^
STACK CFI 2665c .cfa: sp 48 +
STACK CFI 26668 .cfa: sp 0 +
STACK CFI 2666c .cfa: x29 48 +
STACK CFI 2668c .cfa: sp 48 +
STACK CFI 26698 .cfa: sp 0 +
STACK CFI 2669c .cfa: sp 48 +
STACK CFI 266a8 .cfa: sp 0 +
STACK CFI 266ac .cfa: x29 48 +
STACK CFI INIT 266b0 190 .cfa: sp 0 +
STACK CFI 266b4 .cfa: sp 160 +
STACK CFI 266c4 .cfa: x29 48 + x19: .cfa -8 + ^ x20: .cfa -16 + ^ x21: .cfa -32 + ^ .ra: .cfa -40 + ^ x29: .cfa -48 + ^
STACK CFI 267e4 .cfa: sp 160 +
STACK CFI 267f4 .cfa: sp 0 +
STACK CFI 267f8 .cfa: x29 48 +
STACK CFI INIT 26840 74 .cfa: sp 0 +
STACK CFI 26844 .cfa: sp 48 +
STACK CFI 26850 .cfa: x29 32 + x19: .cfa -8 + ^ x20: .cfa -16 + ^ .ra: .cfa -24 + ^ x29: .cfa -32 + ^
STACK CFI 2689c .cfa: sp 48 +
STACK CFI 268a8 .cfa: sp 0 +
STACK CFI 268ac .cfa: x29 32 +
STACK CFI INIT 268b4 168 .cfa: sp 0 +
STACK CFI 268b8 .cfa: sp 384 +
STACK CFI 268cc .cfa: x29 64 + x19: .cfa -8 + ^ x20: .cfa -16 + ^ x21: .cfa -24 + ^ x22: .cfa -32 + ^ x23: .cfa -40 + ^ x28: .cfa -48 + ^ .ra: .cfa -56 + ^ x29: .cfa -64 + ^
STACK CFI 269c4 .cfa: sp 384 +
STACK CFI 269d8 .cfa: sp 0 +
STACK CFI 269dc .cfa: x29 64 +
STACK CFI INIT 26a4c 3c .cfa: sp 0 +
STACK CFI 26a50 .cfa: sp 32 +
STACK CFI 26a58 .cfa: x29 32 + x19: .cfa -16 + ^ .ra: .cfa -24 + ^ x29: .cfa -32 + ^
STACK CFI 26a78 .cfa: sp 32 +
STACK CFI 26a80 .cfa: sp 0 +
STACK CFI 26a84 .cfa: x29 32 +
STACK CFI INIT 26a88 44 .cfa: sp 0 +
STACK CFI 26a8c .cfa: sp 32 +
STACK CFI 26a94 .cfa: x29 32 + x19: .cfa -16 + ^ .ra: .cfa -24 + ^ x29: .cfa -32 + ^
STACK CFI 26abc .cfa: sp 32 +
STACK CFI 26ac4 .cfa: sp 0 +
STACK CFI 26ac8 .cfa: x29 32 +
STACK CFI INIT 26fe0 304 .cfa: sp 0 +
STACK CFI 26fe4 .cfa: sp 128 +
STACK CFI 27000 .cfa: x29 96 + x19: .cfa -8 + ^ x20: .cfa -16 + ^ x21: .cfa -24 + ^ x22: .cfa -32 + ^ x23: .cfa -40 + ^ x24: .cfa -48 + ^ x25: .cfa -56 + ^ x26: .cfa -64 + ^ x27: .cfa -72 + ^ x28: .cfa -80 + ^ .ra: .cfa -88 + ^ x29: .cfa -96 + ^
STACK CFI 27264 .cfa: sp 128 +
STACK CFI 27280 .cfa: sp 0 +
STACK CFI 27284 .cfa: x29 96 +
STACK CFI INIT 272e4 1c .cfa: sp 0 +
STACK CFI 272e8 .cfa: sp 16 +
STACK CFI 272ec .cfa: x29 16 + .ra: .cfa -8 + ^ x29: .cfa -16 + ^
STACK CFI 272f4 .cfa: sp 16 +
STACK CFI 272f8 .cfa: sp 0 +
STACK CFI 272fc .cfa: x29 16 +
STACK CFI INIT 27420 404 .cfa: sp 0 +
STACK CFI 27424 .cfa: sp 304 +
STACK CFI 27440 .cfa: x29 96 + x19: .cfa -8 + ^ x20: .cfa -16 + ^ x21: .cfa -24 + ^ x22: .cfa -32 + ^ x23: .cfa -40 + ^ x24: .cfa -48 + ^ x25: .cfa -56 + ^ x26: .cfa -64 + ^ x27: .cfa -72 + ^ x28: .cfa -80 + ^ .ra: .cfa -88 + ^ x29: .cfa -96 + ^
STACK CFI 276e4 .cfa: sp 304 +
STACK CFI 27700 .cfa: sp 0 +
STACK CFI 27704 .cfa: x29 96 +
STACK CFI INIT 27870 74 .cfa: sp 0 +
STACK CFI 27874 .cfa: sp 48 +
STACK CFI 27880 .cfa: x29 32 + x19: .cfa -8 + ^ x20: .cfa -16 + ^ .ra: .cfa -24 + ^ x29: .cfa -32 + ^
STACK CFI 278cc .cfa: sp 48 +
STACK CFI 278d8 .cfa: sp 0 +
STACK CFI 278dc .cfa: x29 32 +
STACK CFI INIT 279a0 74 .cfa: sp 0 +
STACK CFI 279a4 .cfa: sp 48 +
STACK CFI 279b0 .cfa: x29 32 + x19: .cfa -8 + ^ x20: .cfa -16 + ^ .ra: .cfa -24 + ^ x29: .cfa -32 + ^
STACK CFI 279fc .cfa: sp 48 +
STACK CFI 27a08 .cfa: sp 0 +
STACK CFI 27a0c .cfa: x29 32 +
STACK CFI INIT 27a14 264 .cfa: sp 0 +
STACK CFI 27a18 .cfa: sp 96 +
STACK CFI 27a30 .cfa: x29 96 + x19: .cfa -8 + ^ x20: .cfa -16 + ^ x21: .cfa -24 + ^ x22: .cfa -32 + ^ x23: .cfa -40 + ^ x24: .cfa -48 + ^ x25: .cfa -56 + ^ x26: .cfa -64 + ^ x27: .cfa -72 + ^ x28: .cfa -80 + ^ .ra: .cfa -88 + ^ x29: .cfa -96 + ^
STACK CFI 27bf8 .cfa: sp 96 +
STACK CFI 27c10 .cfa: sp 0 +
STACK CFI 27c14 .cfa: x29 96 +
STACK CFI INIT 27c78 74 .cfa: sp 0 +
STACK CFI 27c7c .cfa: sp 48 +
STACK CFI 27c88 .cfa: x29 32 + x19: .cfa -8 + ^ x20: .cfa -16 + ^ .ra: .cfa -24 + ^ x29: .cfa -32 + ^
STACK CFI 27cd4 .cfa: sp 48 +
STACK CFI 27ce0 .cfa: sp 0 +
STACK CFI 27ce4 .cfa: x29 32 +
STACK CFI INIT 27d14 2f8 .cfa: sp 0 +
STACK CFI 27d18 .cfa: sp 80 +
STACK CFI 27d2c .cfa: x29 80 + x19: .cfa -8 + ^ x20: .cfa -16 + ^ x21: .cfa -24 + ^ x22: .cfa -32 + ^ x23: .cfa -40 + ^ x24: .cfa -48 + ^ x25: .cfa -56 + ^ x28: .cfa -64 + ^ .ra: .cfa -72 + ^ x29: .cfa -80 + ^
STACK CFI 27f78 .cfa: sp 80 +
STACK CFI 27f8c .cfa: sp 0 +
STACK CFI 27f90 .cfa: x29 80 +
STACK CFI INIT 2800c 74 .cfa: sp 0 +
STACK CFI 28010 .cfa: sp 48 +
STACK CFI 2801c .cfa: x29 32 + x19: .cfa -8 + ^ x20: .cfa -16 + ^ .ra: .cfa -24 + ^ x29: .cfa -32 + ^
STACK CFI 28068 .cfa: sp 48 +
STACK CFI 28074 .cfa: sp 0 +
STACK CFI 28078 .cfa: x29 32 +
STACK CFI INIT 280cc 31c .cfa: sp 0 +
STACK CFI 280d0 .cfa: sp 240 +
STACK CFI 280ec .cfa: x29 96 + x19: .cfa -8 + ^ x20: .cfa -16 + ^ x21: .cfa -24 + ^ x22: .cfa -32 + ^ x23: .cfa -40 + ^ x24: .cfa -48 + ^ x25: .cfa -56 + ^ x26: .cfa -64 + ^ x27: .cfa -72 + ^ x28: .cfa -80 + ^ .ra: .cfa -88 + ^ x29: .cfa -96 + ^
STACK CFI 28314 .cfa: sp 240 +
STACK CFI 28330 .cfa: sp 0 +
STACK CFI 28334 .cfa: x29 96 +
STACK CFI INIT 28554 1104 .cfa: sp 0 +
STACK CFI 28558 .cfa: sp 144 +
STACK CFI 28574 .cfa: x29 96 + x19: .cfa -8 + ^ x20: .cfa -16 + ^ x21: .cfa -24 + ^ x22: .cfa -32 + ^ x23: .cfa -40 + ^ x24: .cfa -48 + ^ x25: .cfa -56 + ^ x26: .cfa -64 + ^ x27: .cfa -72 + ^ x28: .cfa -80 + ^ .ra: .cfa -88 + ^ x29: .cfa -96 + ^
STACK CFI 28b84 .cfa: sp 144 +
STACK CFI 28ba0 .cfa: sp 0 +
STACK CFI 28ba4 .cfa: x29 96 +
STACK CFI 28bb0 .cfa: sp 144 +
STACK CFI 28bcc .cfa: sp 0 +
STACK CFI 28bd0 .cfa: x29 96 +
STACK CFI 28be4 .cfa: sp 144 +
STACK CFI 28c00 .cfa: sp 0 +
STACK CFI 28c04 .cfa: x29 96 +
STACK CFI 2929c .cfa: sp 144 +
STACK CFI 292b8 .cfa: sp 0 +
STACK CFI 292bc .cfa: x29 96 +
STACK CFI INIT 29658 290 .cfa: sp 0 +
STACK CFI 2965c .cfa: sp 80 +
STACK CFI 29670 .cfa: x29 80 + x19: .cfa -8 + ^ x20: .cfa -16 + ^ x21: .cfa -24 + ^ x22: .cfa -32 + ^ x23: .cfa -40 + ^ x24: .cfa -48 + ^ x25: .cfa -64 + ^ .ra: .cfa -72 + ^ x29: .cfa -80 + ^
STACK CFI 29710 .cfa: sp 80 +
STACK CFI 29724 .cfa: sp 0 +
STACK CFI 29728 .cfa: x29 80 +
STACK CFI 297cc .cfa: sp 80 +
STACK CFI 297e0 .cfa: sp 0 +
STACK CFI 297e4 .cfa: x29 80 +
STACK CFI 29844 .cfa: sp 80 +
STACK CFI 29858 .cfa: sp 0 +
STACK CFI 2985c .cfa: x29 80 +
STACK CFI INIT 298e8 350 .cfa: sp 0 +
STACK CFI 298ec .cfa: sp 96 +
STACK CFI 29904 .cfa: x29 96 + x19: .cfa -8 + ^ x20: .cfa -16 + ^ x21: .cfa -24 + ^ x22: .cfa -32 + ^ x23: .cfa -40 + ^ x24: .cfa -48 + ^ x25: .cfa -56 + ^ x26: .cfa -64 + ^ x27: .cfa -72 + ^ x28: .cfa -80 + ^ .ra: .cfa -88 + ^ x29: .cfa -96 + ^
STACK CFI 29b84 .cfa: sp 96 +
STACK CFI 29b9c .cfa: sp 0 +
STACK CFI 29ba0 .cfa: x29 96 +
STACK CFI INIT 29c38 194 .cfa: sp 0 +
STACK CFI 29c3c .cfa: sp 80 +
STACK CFI 29c50 .cfa: x29 80 + x19: .cfa -8 + ^ x20: .cfa -16 + ^ x21: .cfa -24 + ^ x22: .cfa -32 + ^ x23: .cfa -40 + ^ x24: .cfa -48 + ^ x25: .cfa -56 + ^ x26: .cfa -64 + ^ .ra: .cfa -72 + ^ x29: .cfa -80 + ^
STACK CFI 29d60 .cfa: sp 80 +
STACK CFI 29d74 .cfa: sp 0 +
STACK CFI 29d78 .cfa: x29 80 +
STACK CFI INIT 29dcc 210 .cfa: sp 0 +
STACK CFI 29dd0 .cfa: sp 96 +
STACK CFI 29de8 .cfa: x29 96 + x19: .cfa -8 + ^ x20: .cfa -16 + ^ x21: .cfa -24 + ^ x22: .cfa -32 + ^ x23: .cfa -40 + ^ x24: .cfa -48 + ^ x25: .cfa -56 + ^ x26: .cfa -64 + ^ x27: .cfa -80 + ^ .ra: .cfa -88 + ^ x29: .cfa -96 + ^
STACK CFI 29f50 .cfa: sp 96 +
STACK CFI 29f68 .cfa: sp 0 +
STACK CFI 29f6c .cfa: x29 96 +
STACK CFI INIT 2a01c 1ea8 .cfa: sp 0 +
STACK CFI 2a020 .cfa: sp 96 +
STACK CFI 2a038 .cfa: x29 96 + x19: .cfa -8 + ^ x20: .cfa -16 + ^ x21: .cfa -24 + ^ x22: .cfa -32 + ^ x23: .cfa -40 + ^ x24: .cfa -48 + ^ x25: .cfa -56 + ^ x26: .cfa -64 + ^ x27: .cfa -72 + ^ x28: .cfa -80 + ^ .ra: .cfa -88 + ^ x29: .cfa -96 + ^
STACK CFI 2b9e8 .cfa: sp 96 +
STACK CFI 2ba00 .cfa: sp 0 +
STACK CFI 2ba04 .cfa: x29 96 +
STACK CFI INIT 2c24c 50 .cfa: sp 0 +
STACK CFI 2c250 .cfa: sp 32 +
STACK CFI 2c258 .cfa: x29 32 + x19: .cfa -8 + ^ x20: .cfa -16 + ^ .ra: .cfa -24 + ^ x29: .cfa -32 + ^
STACK CFI INIT 2c890 128 .cfa: sp 0 +
STACK CFI 2c894 .cfa: sp 64 +
STACK CFI 2c8a4 .cfa: x29 64 + x19: .cfa -8 + ^ x20: .cfa -16 + ^ x21: .cfa -24 + ^ x22: .cfa -32 + ^ x23: .cfa -40 + ^ x28: .cfa -48 + ^ .ra: .cfa -56 + ^ x29: .cfa -64 + ^
STACK CFI 2c8dc .cfa: sp 64 +
STACK CFI 2c8ec .cfa: sp 0 +
STACK CFI 2c8f0 .cfa: x29 64 +
STACK CFI 2c970 .cfa: sp 64 +
STACK CFI 2c980 .cfa: sp 0 +
STACK CFI 2c984 .cfa: x29 64 +
STACK CFI INIT 2c9b8 1c4 .cfa: sp 0 +
STACK CFI 2c9bc .cfa: sp 64 +
STACK CFI 2c9cc .cfa: x29 64 + x19: .cfa -8 + ^ x20: .cfa -16 + ^ x21: .cfa -24 + ^ x22: .cfa -32 + ^ x23: .cfa -40 + ^ x28: .cfa -48 + ^ .ra: .cfa -56 + ^ x29: .cfa -64 + ^
STACK CFI 2cb34 .cfa: sp 64 +
STACK CFI 2cb44 .cfa: sp 0 +
STACK CFI 2cb48 .cfa: x29 64 +
STACK CFI INIT 2cb7c 36c .cfa: sp 0 +
STACK CFI 2cb80 .cfa: sp 80 +
STACK CFI 2cb94 .cfa: x29 80 + x19: .cfa -8 + ^ x20: .cfa -16 + ^ x21: .cfa -24 + ^ x22: .cfa -32 + ^ x23: .cfa -40 + ^ x24: .cfa -48 + ^ x28: .cfa -64 + ^ .ra: .cfa -72 + ^ x29: .cfa -80 + ^
STACK CFI 2ce9c .cfa: sp 80 +
STACK CFI 2ceb0 .cfa: sp 0 +
STACK CFI 2ceb4 .cfa: x29 80 +
STACK CFI INIT 2cee8 138 .cfa: sp 0 +
STACK CFI 2ceec .cfa: sp 64 +
STACK CFI 2cefc .cfa: x29 64 + x19: .cfa -8 + ^ x20: .cfa -16 + ^ x21: .cfa -24 + ^ x22: .cfa -32 + ^ x23: .cfa -40 + ^ x28: .cfa -48 + ^ .ra: .cfa -56 + ^ x29: .cfa -64 + ^
STACK CFI 2cfd8 .cfa: sp 64 +
STACK CFI 2cfe8 .cfa: sp 0 +
STACK CFI 2cfec .cfa: x29 64 +
STACK CFI INIT 2d020 160 .cfa: sp 0 +
STACK CFI 2d024 .cfa: sp 64 +
STACK CFI 2d034 .cfa: x29 64 + x19: .cfa -8 + ^ x20: .cfa -16 + ^ x21: .cfa -24 + ^ x22: .cfa -32 + ^ x23: .cfa -40 + ^ x28: .cfa -48 + ^ .ra: .cfa -56 + ^ x29: .cfa -64 + ^
STACK CFI 2d138 .cfa: sp 64 +
STACK CFI 2d148 .cfa: sp 0 +
STACK CFI 2d14c .cfa: x29 64 +
STACK CFI INIT 2d180 16c .cfa: sp 0 +
STACK CFI 2d184 .cfa: sp 64 +
STACK CFI 2d194 .cfa: x29 64 + x19: .cfa -8 + ^ x20: .cfa -16 + ^ x21: .cfa -24 + ^ x22: .cfa -32 + ^ x23: .cfa -40 + ^ x28: .cfa -48 + ^ .ra: .cfa -56 + ^ x29: .cfa -64 + ^
STACK CFI 2d2a4 .cfa: sp 64 +
STACK CFI 2d2b4 .cfa: sp 0 +
STACK CFI 2d2b8 .cfa: x29 64 +
STACK CFI INIT 2d2ec 138 .cfa: sp 0 +
STACK CFI 2d2f0 .cfa: sp 64 +
STACK CFI 2d300 .cfa: x29 64 + x19: .cfa -8 + ^ x20: .cfa -16 + ^ x21: .cfa -24 + ^ x22: .cfa -32 + ^ x23: .cfa -40 + ^ x28: .cfa -48 + ^ .ra: .cfa -56 + ^ x29: .cfa -64 + ^
STACK CFI 2d3dc .cfa: sp 64 +
STACK CFI 2d3ec .cfa: sp 0 +
STACK CFI 2d3f0 .cfa: x29 64 +
STACK CFI INIT 2d424 1ac .cfa: sp 0 +
STACK CFI 2d428 .cfa: sp 64 +
STACK CFI 2d438 .cfa: x29 64 + x19: .cfa -8 + ^ x20: .cfa -16 + ^ x21: .cfa -24 + ^ x22: .cfa -32 + ^ x23: .cfa -40 + ^ x28: .cfa -48 + ^ .ra: .cfa -56 + ^ x29: .cfa -64 + ^
STACK CFI 2d588 .cfa: sp 64 +
STACK CFI 2d598 .cfa: sp 0 +
STACK CFI 2d59c .cfa: x29 64 +
STACK CFI INIT 2d5d0 14c .cfa: sp 0 +
STACK CFI 2d5d4 .cfa: sp 64 +
STACK CFI 2d5e4 .cfa: x29 64 + x19: .cfa -8 + ^ x20: .cfa -16 + ^ x21: .cfa -24 + ^ x22: .cfa -32 + ^ x23: .cfa -40 + ^ x28: .cfa -48 + ^ .ra: .cfa -56 + ^ x29: .cfa -64 + ^
STACK CFI 2d640 .cfa: sp 64 +
STACK CFI 2d650 .cfa: sp 0 +
STACK CFI 2d654 .cfa: x29 64 +
STACK CFI 2d6d4 .cfa: sp 64 +
STACK CFI 2d6e4 .cfa: sp 0 +
STACK CFI 2d6e8 .cfa: x29 64 +
STACK CFI INIT 2d71c 160 .cfa: sp 0 +
STACK CFI 2d720 .cfa: sp 64 +
STACK CFI 2d730 .cfa: x29 64 + x19: .cfa -8 + ^ x20: .cfa -16 + ^ x21: .cfa -24 + ^ x22: .cfa -32 + ^ x23: .cfa -40 + ^ x28: .cfa -48 + ^ .ra: .cfa -56 + ^ x29: .cfa -64 + ^
STACK CFI 2d7a0 .cfa: sp 64 +
STACK CFI 2d7b0 .cfa: sp 0 +
STACK CFI 2d7b4 .cfa: x29 64 +
STACK CFI 2d834 .cfa: sp 64 +
STACK CFI 2d844 .cfa: sp 0 +
STACK CFI 2d848 .cfa: x29 64 +
STACK CFI INIT 2d87c 338 .cfa: sp 0 +
STACK CFI 2d880 .cfa: sp 64 +
STACK CFI 2d890 .cfa: x29 64 + x19: .cfa -8 + ^ x20: .cfa -16 + ^ x21: .cfa -24 + ^ x22: .cfa -32 + ^ x23: .cfa -40 + ^ x28: .cfa -48 + ^ .ra: .cfa -56 + ^ x29: .cfa -64 + ^
STACK CFI 2d92c .cfa: sp 64 +
STACK CFI 2d93c .cfa: sp 0 +
STACK CFI 2d940 .cfa: x29 64 +
STACK CFI 2db6c .cfa: sp 64 +
STACK CFI 2db7c .cfa: sp 0 +
STACK CFI 2db80 .cfa: x29 64 +
STACK CFI INIT 2dbb4 128 .cfa: sp 0 +
STACK CFI 2dbb8 .cfa: sp 64 +
STACK CFI 2dbc8 .cfa: x29 64 + x19: .cfa -8 + ^ x20: .cfa -16 + ^ x21: .cfa -24 + ^ x22: .cfa -32 + ^ x23: .cfa -40 + ^ x28: .cfa -48 + ^ .ra: .cfa -56 + ^ x29: .cfa -64 + ^
STACK CFI 2dc00 .cfa: sp 64 +
STACK CFI 2dc10 .cfa: sp 0 +
STACK CFI 2dc14 .cfa: x29 64 +
STACK CFI 2dc94 .cfa: sp 64 +
STACK CFI 2dca4 .cfa: sp 0 +
STACK CFI 2dca8 .cfa: x29 64 +
STACK CFI INIT 2dcdc 128 .cfa: sp 0 +
STACK CFI 2dce0 .cfa: sp 64 +
STACK CFI 2dcf0 .cfa: x29 64 + x19: .cfa -8 + ^ x20: .cfa -16 + ^ x21: .cfa -24 + ^ x22: .cfa -32 + ^ x23: .cfa -40 + ^ x28: .cfa -48 + ^ .ra: .cfa -56 + ^ x29: .cfa -64 + ^
STACK CFI 2dd28 .cfa: sp 64 +
STACK CFI 2dd38 .cfa: sp 0 +
STACK CFI 2dd3c .cfa: x29 64 +
STACK CFI 2ddbc .cfa: sp 64 +
STACK CFI 2ddcc .cfa: sp 0 +
STACK CFI 2ddd0 .cfa: x29 64 +
STACK CFI INIT 2de04 13c .cfa: sp 0 +
STACK CFI 2de08 .cfa: sp 64 +
STACK CFI 2de18 .cfa: x29 64 + x19: .cfa -8 + ^ x20: .cfa -16 + ^ x21: .cfa -24 + ^ x22: .cfa -32 + ^ x23: .cfa -40 + ^ x28: .cfa -48 + ^ .ra: .cfa -56 + ^ x29: .cfa -64 + ^
STACK CFI 2de64 .cfa: sp 64 +
STACK CFI 2de74 .cfa: sp 0 +
STACK CFI 2de78 .cfa: x29 64 +
STACK CFI 2def8 .cfa: sp 64 +
STACK CFI 2df08 .cfa: sp 0 +
STACK CFI 2df0c .cfa: x29 64 +
STACK CFI INIT 2df40 128 .cfa: sp 0 +
STACK CFI 2df44 .cfa: sp 64 +
STACK CFI 2df54 .cfa: x29 64 + x19: .cfa -8 + ^ x20: .cfa -16 + ^ x21: .cfa -24 + ^ x22: .cfa -32 + ^ x23: .cfa -40 + ^ x28: .cfa -48 + ^ .ra: .cfa -56 + ^ x29: .cfa -64 + ^
STACK CFI 2df8c .cfa: sp 64 +
STACK CFI 2df9c .cfa: sp 0 +
STACK CFI 2dfa0 .cfa: x29 64 +
STACK CFI 2e020 .cfa: sp 64 +
STACK CFI 2e030 .cfa: sp 0 +
STACK CFI 2e034 .cfa: x29 64 +
STACK CFI INIT 2e068 140 .cfa: sp 0 +
STACK CFI 2e06c .cfa: sp 64 +
STACK CFI 2e07c .cfa: x29 64 + x19: .cfa -8 + ^ x20: .cfa -16 + ^ x21: .cfa -24 + ^ x22: .cfa -32 + ^ x23: .cfa -40 + ^ x28: .cfa -48 + ^ .ra: .cfa -56 + ^ x29: .cfa -64 + ^
STACK CFI 2e0d0 .cfa: sp 64 +
STACK CFI 2e0e0 .cfa: sp 0 +
STACK CFI 2e0e4 .cfa: x29 64 +
STACK CFI 2e160 .cfa: sp 64 +
STACK CFI 2e170 .cfa: sp 0 +
STACK CFI 2e174 .cfa: x29 64 +
STACK CFI INIT 2e1a8 2a4 .cfa: sp 0 +
STACK CFI 2e1ac .cfa: sp 64 +
STACK CFI 2e1bc .cfa: x29 64 + x19: .cfa -8 + ^ x20: .cfa -16 + ^ x21: .cfa -24 + ^ x22: .cfa -32 + ^ x23: .cfa -40 + ^ x28: .cfa -48 + ^ .ra: .cfa -56 + ^ x29: .cfa -64 + ^
STACK CFI 2e368 .cfa: sp 64 +
STACK CFI 2e378 .cfa: sp 0 +
STACK CFI 2e37c .cfa: x29 64 +
STACK CFI 2e404 .cfa: sp 64 +
STACK CFI 2e414 .cfa: sp 0 +
STACK CFI 2e418 .cfa: x29 64 +
STACK CFI INIT 2e44c 21c .cfa: sp 0 +
STACK CFI 2e450 .cfa: sp 80 +
STACK CFI 2e464 .cfa: x29 80 + x19: .cfa -8 + ^ x20: .cfa -16 + ^ x21: .cfa -24 + ^ x22: .cfa -32 + ^ x23: .cfa -40 + ^ x24: .cfa -48 + ^ x25: .cfa -56 + ^ x28: .cfa -64 + ^ .ra: .cfa -72 + ^ x29: .cfa -80 + ^
STACK CFI 2e61c .cfa: sp 80 +
STACK CFI 2e630 .cfa: sp 0 +
STACK CFI 2e634 .cfa: x29 80 +
STACK CFI INIT 2e668 190 .cfa: sp 0 +
STACK CFI 2e66c .cfa: sp 64 +
STACK CFI 2e67c .cfa: x29 64 + x19: .cfa -8 + ^ x20: .cfa -16 + ^ x21: .cfa -24 + ^ x22: .cfa -32 + ^ x23: .cfa -40 + ^ x28: .cfa -48 + ^ .ra: .cfa -56 + ^ x29: .cfa -64 + ^
STACK CFI 2e714 .cfa: sp 64 +
STACK CFI 2e724 .cfa: sp 0 +
STACK CFI 2e728 .cfa: x29 64 +
STACK CFI 2e7b0 .cfa: sp 64 +
STACK CFI 2e7c0 .cfa: sp 0 +
STACK CFI 2e7c4 .cfa: x29 64 +
STACK CFI INIT 2e98c 18c .cfa: sp 0 +
STACK CFI 2e990 .cfa: sp 64 +
STACK CFI 2e9a0 .cfa: x29 64 + x19: .cfa -8 + ^ x20: .cfa -16 + ^ x21: .cfa -24 + ^ x22: .cfa -32 + ^ x23: .cfa -40 + ^ x28: .cfa -48 + ^ .ra: .cfa -56 + ^ x29: .cfa -64 + ^
STACK CFI 2ead0 .cfa: sp 64 +
STACK CFI 2eae0 .cfa: sp 0 +
STACK CFI 2eae4 .cfa: x29 64 +
STACK CFI INIT 2eb18 1c4 .cfa: sp 0 +
STACK CFI 2eb1c .cfa: sp 64 +
STACK CFI 2eb2c .cfa: x29 64 + x19: .cfa -8 + ^ x20: .cfa -16 + ^ x21: .cfa -24 + ^ x22: .cfa -32 + ^ x23: .cfa -40 + ^ x28: .cfa -48 + ^ .ra: .cfa -56 + ^ x29: .cfa -64 + ^
STACK CFI 2ec94 .cfa: sp 64 +
STACK CFI 2eca4 .cfa: sp 0 +
STACK CFI 2eca8 .cfa: x29 64 +
STACK CFI INIT 2f168 234 .cfa: sp 0 +
STACK CFI 2f16c .cfa: sp 352 +
STACK CFI 2f184 .cfa: x29 80 + x19: .cfa -8 + ^ x20: .cfa -16 + ^ x21: .cfa -24 + ^ x22: .cfa -32 + ^ x23: .cfa -40 + ^ x24: .cfa -48 + ^ x28: .cfa -64 + ^ .ra: .cfa -72 + ^ x29: .cfa -80 + ^
STACK CFI 2f2c4 .cfa: sp 352 +
STACK CFI 2f2dc .cfa: sp 0 +
STACK CFI 2f2e0 .cfa: x29 80 +
STACK CFI INIT 2f39c 71c .cfa: sp 0 +
STACK CFI 2f3a0 .cfa: sp 400 +
STACK CFI 2f3b8 .cfa: x29 80 + x19: .cfa -8 + ^ x20: .cfa -16 + ^ x21: .cfa -24 + ^ x22: .cfa -32 + ^ x23: .cfa -40 + ^ x24: .cfa -48 + ^ x25: .cfa -56 + ^ x28: .cfa -64 + ^ .ra: .cfa -72 + ^ x29: .cfa -80 + ^
STACK CFI 2f978 .cfa: sp 400 +
STACK CFI 2f990 .cfa: sp 0 +
STACK CFI 2f994 .cfa: x29 80 +
STACK CFI INIT 32110 324 .cfa: sp 0 +
STACK CFI 32114 .cfa: sp 240 +
STACK CFI 32128 .cfa: x29 64 + x19: .cfa -8 + ^ x20: .cfa -16 + ^ x21: .cfa -24 + ^ x22: .cfa -32 + ^ x23: .cfa -48 + ^ .ra: .cfa -56 + ^ x29: .cfa -64 + ^
STACK CFI 32324 .cfa: sp 240 +
STACK CFI 32338 .cfa: sp 0 +
STACK CFI 3233c .cfa: x29 64 +
STACK CFI INIT 32438 26c .cfa: sp 0 +
STACK CFI 3243c .cfa: sp 112 +
STACK CFI 32450 .cfa: x29 64 + x19: .cfa -8 + ^ x20: .cfa -16 + ^ x21: .cfa -24 + ^ x22: .cfa -32 + ^ x23: .cfa -48 + ^ .ra: .cfa -56 + ^ x29: .cfa -64 + ^
STACK CFI 3263c .cfa: sp 112 +
STACK CFI 32650 .cfa: sp 0 +
STACK CFI 32654 .cfa: x29 64 +
STACK CFI INIT 326a4 a8 .cfa: sp 0 +
STACK CFI 326a8 .cfa: sp 32 +
STACK CFI 326b0 .cfa: x29 32 + x19: .cfa -16 + ^ .ra: .cfa -24 + ^ x29: .cfa -32 + ^
STACK CFI 326e4 .cfa: sp 32 +
STACK CFI 326ec .cfa: sp 0 +
STACK CFI 326f0 .cfa: x29 32 +
STACK CFI 326f4 .cfa: sp 32 +
STACK CFI 326fc .cfa: sp 0 +
STACK CFI 32700 .cfa: x29 32 +
STACK CFI INIT 327dc 324 .cfa: sp 0 +
STACK CFI 327e0 .cfa: sp 240 +
STACK CFI 327f4 .cfa: x29 64 + x19: .cfa -8 + ^ x20: .cfa -16 + ^ x21: .cfa -24 + ^ x22: .cfa -32 + ^ x23: .cfa -48 + ^ .ra: .cfa -56 + ^ x29: .cfa -64 + ^
STACK CFI 329f0 .cfa: sp 240 +
STACK CFI 32a04 .cfa: sp 0 +
STACK CFI 32a08 .cfa: x29 64 +
STACK CFI INIT 32b04 3dc .cfa: sp 0 +
STACK CFI 32b08 .cfa: sp 112 +
STACK CFI 32b1c .cfa: x29 64 + x19: .cfa -8 + ^ x20: .cfa -16 + ^ x21: .cfa -24 + ^ x22: .cfa -32 + ^ x23: .cfa -40 + ^ x24: .cfa -48 + ^ .ra: .cfa -56 + ^ x29: .cfa -64 + ^
STACK CFI 32e70 .cfa: sp 112 +
STACK CFI 32e84 .cfa: sp 0 +
STACK CFI 32e88 .cfa: x29 64 +
STACK CFI INIT 32ee0 a8 .cfa: sp 0 +
STACK CFI 32ee4 .cfa: sp 32 +
STACK CFI 32eec .cfa: x29 32 + x19: .cfa -16 + ^ .ra: .cfa -24 + ^ x29: .cfa -32 + ^
STACK CFI 32f20 .cfa: sp 32 +
STACK CFI 32f28 .cfa: sp 0 +
STACK CFI 32f2c .cfa: x29 32 +
STACK CFI 32f30 .cfa: sp 32 +
STACK CFI 32f38 .cfa: sp 0 +
STACK CFI 32f3c .cfa: x29 32 +
STACK CFI INIT 33194 520 .cfa: sp 0 +
STACK CFI 33198 .cfa: sp 160 +
STACK CFI 331a8 .cfa: x29 48 + x19: .cfa -8 + ^ x20: .cfa -16 + ^ x21: .cfa -24 + ^ x22: .cfa -32 + ^ .ra: .cfa -40 + ^ x29: .cfa -48 + ^
STACK CFI 335a0 .cfa: sp 160 +
STACK CFI 335b0 .cfa: sp 0 +
STACK CFI 335b4 .cfa: x29 48 +
STACK CFI INIT 33704 13c .cfa: sp 0 +
STACK CFI 33708 .cfa: sp 32 +
STACK CFI 33710 .cfa: x29 32 + x19: .cfa -8 + ^ x20: .cfa -16 + ^ .ra: .cfa -24 + ^ x29: .cfa -32 + ^
STACK CFI 33830 .cfa: sp 32 +
STACK CFI 33838 .cfa: sp 0 +
STACK CFI 3383c .cfa: x29 32 +
STACK CFI INIT 338c4 5dc .cfa: sp 0 +
STACK CFI 338c8 .cfa: sp 96 +
STACK CFI 338e0 .cfa: x29 80 + x19: .cfa -8 + ^ x20: .cfa -16 + ^ x21: .cfa -24 + ^ x22: .cfa -32 + ^ x23: .cfa -40 + ^ x24: .cfa -48 + ^ x25: .cfa -56 + ^ x28: .cfa -64 + ^ .ra: .cfa -72 + ^ x29: .cfa -80 + ^ v8: .cfa -96 + ^
STACK CFI 33e38 .cfa: sp 96 +
STACK CFI 33e50 .cfa: sp 0 +
STACK CFI 33e54 .cfa: x29 80 +
STACK CFI INIT 33ea0 148 .cfa: sp 0 +
STACK CFI 33ea4 .cfa: sp 96 +
STACK CFI 33eb4 .cfa: x29 48 + x19: .cfa -8 + ^ x20: .cfa -16 + ^ x21: .cfa -32 + ^ .ra: .cfa -40 + ^ x29: .cfa -48 + ^
STACK CFI 33f9c .cfa: sp 96 +
STACK CFI 33fac .cfa: sp 0 +
STACK CFI 33fb0 .cfa: x29 48 +
STACK CFI INIT 34050 6c .cfa: sp 0 +
STACK CFI 34054 .cfa: sp 32 +
STACK CFI 3405c .cfa: x29 32 + x19: .cfa -16 + ^ .ra: .cfa -24 + ^ x29: .cfa -32 + ^
STACK CFI 340ac .cfa: sp 32 +
STACK CFI 340b4 .cfa: sp 0 +
STACK CFI 340b8 .cfa: x29 32 +
STACK CFI INIT 340c0 6c .cfa: sp 0 +
STACK CFI 340c4 .cfa: sp 32 +
STACK CFI 340cc .cfa: x29 32 + x19: .cfa -16 + ^ .ra: .cfa -24 + ^ x29: .cfa -32 + ^
STACK CFI 3411c .cfa: sp 32 +
STACK CFI 34124 .cfa: sp 0 +
STACK CFI 34128 .cfa: x29 32 +
STACK CFI INIT 34130 204 .cfa: sp 0 +
STACK CFI 34134 .cfa: sp 128 +
STACK CFI 34148 .cfa: x29 64 + x19: .cfa -8 + ^ x20: .cfa -16 + ^ x21: .cfa -24 + ^ x22: .cfa -32 + ^ x23: .cfa -40 + ^ x24: .cfa -48 + ^ .ra: .cfa -56 + ^ x29: .cfa -64 + ^
STACK CFI 3426c .cfa: sp 128 +
STACK CFI 34280 .cfa: sp 0 +
STACK CFI 34284 .cfa: x29 64 +
STACK CFI INIT 34338 1ac .cfa: sp 0 +
STACK CFI 3433c .cfa: sp 128 +
STACK CFI 3434c .cfa: x29 48 + x19: .cfa -8 + ^ x20: .cfa -16 + ^ x21: .cfa -24 + ^ x22: .cfa -32 + ^ .ra: .cfa -40 + ^ x29: .cfa -48 + ^
STACK CFI 34468 .cfa: sp 128 +
STACK CFI 34478 .cfa: sp 0 +
STACK CFI 3447c .cfa: x29 48 +
STACK CFI INIT 348e0 1d0 .cfa: sp 0 +
STACK CFI 348e4 .cfa: sp 128 +
STACK CFI 348f8 .cfa: x29 64 + x19: .cfa -8 + ^ x20: .cfa -16 + ^ x21: .cfa -24 + ^ x22: .cfa -32 + ^ x23: .cfa -48 + ^ .ra: .cfa -56 + ^ x29: .cfa -64 + ^
STACK CFI 34a70 .cfa: sp 128 +
STACK CFI 34a84 .cfa: sp 0 +
STACK CFI 34a88 .cfa: x29 64 +
STACK CFI INIT 34dc4 1c4 .cfa: sp 0 +
STACK CFI 34dc8 .cfa: sp 112 +
STACK CFI 34dd8 .cfa: x29 48 + x19: .cfa -8 + ^ x20: .cfa -16 + ^ x21: .cfa -24 + ^ x22: .cfa -32 + ^ .ra: .cfa -40 + ^ x29: .cfa -48 + ^
STACK CFI 34f4c .cfa: sp 112 +
STACK CFI 34f5c .cfa: sp 0 +
STACK CFI 34f60 .cfa: x29 48 +
STACK CFI INIT 35008 1a4 .cfa: sp 0 +
STACK CFI 3500c .cfa: sp 144 +
STACK CFI 3501c .cfa: x29 48 + x19: .cfa -8 + ^ x20: .cfa -16 + ^ x21: .cfa -24 + ^ x22: .cfa -32 + ^ .ra: .cfa -40 + ^ x29: .cfa -48 + ^
STACK CFI 35118 .cfa: sp 144 +
STACK CFI 35128 .cfa: sp 0 +
STACK CFI 3512c .cfa: x29 48 +
STACK CFI INIT 351ac 1e4 .cfa: sp 0 +
STACK CFI 351b0 .cfa: sp 112 +
STACK CFI 351c0 .cfa: x29 48 + x19: .cfa -8 + ^ x20: .cfa -16 + ^ x21: .cfa -32 + ^ .ra: .cfa -40 + ^ x29: .cfa -48 + ^
STACK CFI 352f0 .cfa: sp 112 +
STACK CFI 35300 .cfa: sp 0 +
STACK CFI 35304 .cfa: x29 48 +
STACK CFI INIT 35390 388 .cfa: sp 0 +
STACK CFI 35394 .cfa: sp 80 +
STACK CFI 353a8 .cfa: x29 80 + x19: .cfa -8 + ^ x20: .cfa -16 + ^ x21: .cfa -24 + ^ x22: .cfa -32 + ^ x23: .cfa -40 + ^ x24: .cfa -48 + ^ x25: .cfa -56 + ^ x28: .cfa -64 + ^ .ra: .cfa -72 + ^ x29: .cfa -80 + ^
STACK CFI 3544c .cfa: sp 80 +
STACK CFI 35460 .cfa: sp 0 +
STACK CFI 35464 .cfa: x29 80 +
STACK CFI INIT 35718 25f8 .cfa: sp 0 +
STACK CFI 3571c .cfa: sp 160 +
STACK CFI 35744 .cfa: x29 96 + x19: .cfa -8 + ^ x20: .cfa -16 + ^ x21: .cfa -24 + ^ x22: .cfa -32 + ^ x23: .cfa -40 + ^ x24: .cfa -48 + ^ x25: .cfa -56 + ^ x26: .cfa -64 + ^ x27: .cfa -72 + ^ x28: .cfa -80 + ^ .ra: .cfa -88 + ^ x29: .cfa -96 + ^ v8: .cfa -104 + ^ v9: .cfa -112 + ^ v10: .cfa -120 + ^ v11: .cfa -128 + ^ v12: .cfa -136 + ^ v13: .cfa -144 + ^ v14: .cfa -152 + ^ v15: .cfa -160 + ^
STACK CFI 374d4 .cfa: sp 160 +
STACK CFI 374fc .cfa: sp 0 +
STACK CFI 37500 .cfa: x29 96 +
STACK CFI INIT 37d10 1d4 .cfa: sp 0 +
STACK CFI 37d14 .cfa: sp 320 +
STACK CFI 37d2c .cfa: x29 80 + x19: .cfa -8 + ^ x20: .cfa -16 + ^ x21: .cfa -24 + ^ x22: .cfa -32 + ^ x23: .cfa -40 + ^ x24: .cfa -48 + ^ x28: .cfa -64 + ^ .ra: .cfa -72 + ^ x29: .cfa -80 + ^
STACK CFI 37e98 .cfa: sp 320 +
STACK CFI 37eb0 .cfa: sp 0 +
STACK CFI 37eb4 .cfa: x29 80 +
STACK CFI INIT 38540 1c .cfa: sp 0 +
STACK CFI 38544 .cfa: sp 16 +
STACK CFI 38548 .cfa: x29 16 + .ra: .cfa -8 + ^ x29: .cfa -16 + ^
STACK CFI 38550 .cfa: sp 16 +
STACK CFI 38554 .cfa: sp 0 +
STACK CFI 38558 .cfa: x29 16 +
STACK CFI INIT 3855c 30 .cfa: sp 0 +
STACK CFI 38560 .cfa: sp 16 +
STACK CFI 38564 .cfa: x29 16 + .ra: .cfa -8 + ^ x29: .cfa -16 + ^
STACK CFI 38580 .cfa: sp 16 +
STACK CFI 38584 .cfa: sp 0 +
STACK CFI 38588 .cfa: x29 16 +
STACK CFI INIT 3858c 3c .cfa: sp 0 +
STACK CFI 38590 .cfa: sp 32 +
STACK CFI 38598 .cfa: x29 32 + x19: .cfa -16 + ^ .ra: .cfa -24 + ^ x29: .cfa -32 + ^
STACK CFI 385b8 .cfa: sp 32 +
STACK CFI 385c0 .cfa: sp 0 +
STACK CFI 385c4 .cfa: x29 32 +
STACK CFI INIT 385c8 58 .cfa: sp 0 +
STACK CFI 385cc .cfa: sp 32 +
STACK CFI 385d4 .cfa: x29 32 + x19: .cfa -8 + ^ x20: .cfa -16 + ^ .ra: .cfa -24 + ^ x29: .cfa -32 + ^
STACK CFI 38600 .cfa: sp 32 +
STACK CFI 38608 .cfa: sp 0 +
STACK CFI 3860c .cfa: x29 32 +
STACK CFI INIT 3863c 20 .cfa: sp 0 +
STACK CFI 38640 .cfa: sp 16 +
STACK CFI 38644 .cfa: x29 16 + .ra: .cfa -8 + ^ x29: .cfa -16 + ^
STACK CFI 38650 .cfa: sp 16 +
STACK CFI 38654 .cfa: sp 0 +
STACK CFI 38658 .cfa: x29 16 +
STACK CFI INIT 3865c 30 .cfa: sp 0 +
STACK CFI 38660 .cfa: sp 32 +
STACK CFI 38668 .cfa: x29 32 + x19: .cfa -16 + ^ .ra: .cfa -24 + ^ x29: .cfa -32 + ^
STACK CFI 3867c .cfa: sp 32 +
STACK CFI 38684 .cfa: sp 0 +
STACK CFI 38688 .cfa: x29 32 +
STACK CFI INIT 3868c 168 .cfa: sp 0 +
STACK CFI 38690 .cfa: sp 160 +
STACK CFI 386a4 .cfa: x29 64 + x19: .cfa -8 + ^ x20: .cfa -16 + ^ x21: .cfa -24 + ^ x22: .cfa -32 + ^ x23: .cfa -40 + ^ x24: .cfa -48 + ^ .ra: .cfa -56 + ^ x29: .cfa -64 + ^
STACK CFI 387a0 .cfa: sp 160 +
STACK CFI 387b4 .cfa: sp 0 +
STACK CFI 387b8 .cfa: x29 64 +
STACK CFI INIT 38988 1c .cfa: sp 0 +
STACK CFI 3898c .cfa: sp 16 +
STACK CFI 38990 .cfa: x29 16 + .ra: .cfa -8 + ^ x29: .cfa -16 + ^
STACK CFI 38998 .cfa: sp 16 +
STACK CFI 3899c .cfa: sp 0 +
STACK CFI 389a0 .cfa: x29 16 +
STACK CFI INIT 38a5c 444 .cfa: sp 0 +
STACK CFI 38a60 .cfa: sp 224 +
STACK CFI 38a78 .cfa: x29 80 + x19: .cfa -8 + ^ x20: .cfa -16 + ^ x21: .cfa -24 + ^ x22: .cfa -32 + ^ x23: .cfa -40 + ^ x24: .cfa -48 + ^ x25: .cfa -64 + ^ .ra: .cfa -72 + ^ x29: .cfa -80 + ^
STACK CFI 38d8c .cfa: sp 224 +
STACK CFI 38da4 .cfa: sp 0 +
STACK CFI 38da8 .cfa: x29 80 +
STACK CFI INIT 38ea0 a08 .cfa: sp 0 +
STACK CFI 38ea4 .cfa: sp 96 +
STACK CFI 38ebc .cfa: x29 96 + x19: .cfa -8 + ^ x20: .cfa -16 + ^ x21: .cfa -24 + ^ x22: .cfa -32 + ^ x23: .cfa -40 + ^ x24: .cfa -48 + ^ x25: .cfa -56 + ^ x26: .cfa -64 + ^ x27: .cfa -72 + ^ x28: .cfa -80 + ^ .ra: .cfa -88 + ^ x29: .cfa -96 + ^
STACK CFI 396ac .cfa: sp 96 +
STACK CFI 396c4 .cfa: sp 0 +
STACK CFI 396c8 .cfa: x29 96 +
STACK CFI INIT 398a8 20c .cfa: sp 0 +
STACK CFI 398ac .cfa: sp 400 +
STACK CFI 398c0 .cfa: x29 64 + x19: .cfa -8 + ^ x20: .cfa -16 + ^ x21: .cfa -24 + ^ x22: .cfa -32 + ^ x23: .cfa -40 + ^ x28: .cfa -48 + ^ .ra: .cfa -56 + ^ x29: .cfa -64 + ^
STACK CFI 39a44 .cfa: sp 400 +
STACK CFI 39a58 .cfa: sp 0 +
STACK CFI 39a5c .cfa: x29 64 +
STACK CFI INIT 39ab4 7d0 .cfa: sp 0 +
STACK CFI 39ab8 .cfa: sp 416 +
STACK CFI 39ad0 .cfa: x29 80 + x19: .cfa -8 + ^ x20: .cfa -16 + ^ x21: .cfa -24 + ^ x22: .cfa -32 + ^ x23: .cfa -40 + ^ x24: .cfa -48 + ^ x25: .cfa -56 + ^ x28: .cfa -64 + ^ .ra: .cfa -72 + ^ x29: .cfa -80 + ^
STACK CFI 3a0a4 .cfa: sp 416 +
STACK CFI 3a0bc .cfa: sp 0 +
STACK CFI 3a0c0 .cfa: x29 80 +
STACK CFI INIT 3a284 208 .cfa: sp 0 +
STACK CFI 3a288 .cfa: sp 160 +
STACK CFI 3a298 .cfa: x29 48 + x19: .cfa -8 + ^ x20: .cfa -16 + ^ x21: .cfa -24 + ^ x22: .cfa -32 + ^ .ra: .cfa -40 + ^ x29: .cfa -48 + ^
STACK CFI 3a3bc .cfa: sp 160 +
STACK CFI 3a3cc .cfa: sp 0 +
STACK CFI 3a3d0 .cfa: x29 48 +
STACK CFI INIT 3a48c 120 .cfa: sp 0 +
STACK CFI 3a490 .cfa: sp 112 +
STACK CFI 3a4a0 .cfa: x29 48 + x19: .cfa -8 + ^ x20: .cfa -16 + ^ x21: .cfa -32 + ^ .ra: .cfa -40 + ^ x29: .cfa -48 + ^
STACK CFI 3a530 .cfa: sp 112 +
STACK CFI 3a540 .cfa: sp 0 +
STACK CFI 3a544 .cfa: x29 48 +
STACK CFI INIT 3a5ac 74 .cfa: sp 0 +
STACK CFI 3a5b0 .cfa: sp 48 +
STACK CFI 3a5bc .cfa: x29 32 + x19: .cfa -8 + ^ x20: .cfa -16 + ^ .ra: .cfa -24 + ^ x29: .cfa -32 + ^
STACK CFI 3a608 .cfa: sp 48 +
STACK CFI 3a614 .cfa: sp 0 +
STACK CFI 3a618 .cfa: x29 32 +
STACK CFI INIT 3a650 2fc .cfa: sp 0 +
STACK CFI 3a654 .cfa: sp 96 +
STACK CFI 3a66c .cfa: x29 96 + x19: .cfa -8 + ^ x20: .cfa -16 + ^ x21: .cfa -24 + ^ x22: .cfa -32 + ^ x23: .cfa -40 + ^ x24: .cfa -48 + ^ x25: .cfa -56 + ^ x26: .cfa -64 + ^ x28: .cfa -80 + ^ .ra: .cfa -88 + ^ x29: .cfa -96 + ^
STACK CFI 3a8b4 .cfa: sp 96 +
STACK CFI 3a8cc .cfa: sp 0 +
STACK CFI 3a8d0 .cfa: x29 96 +
STACK CFI INIT 3a97c c4 .cfa: sp 0 +
STACK CFI 3a980 .cfa: sp 64 +
STACK CFI 3a990 .cfa: x29 64 + x19: .cfa -8 + ^ x20: .cfa -16 + ^ x21: .cfa -24 + ^ x22: .cfa -32 + ^ x23: .cfa -40 + ^ x24: .cfa -48 + ^ .ra: .cfa -56 + ^ x29: .cfa -64 + ^
STACK CFI 3aa08 .cfa: sp 64 +
STACK CFI 3aa18 .cfa: sp 0 +
STACK CFI 3aa1c .cfa: x29 64 +
STACK CFI INIT 3aa40 3c .cfa: sp 0 +
STACK CFI 3aa44 .cfa: sp 32 +
STACK CFI 3aa4c .cfa: x29 32 + x19: .cfa -16 + ^ .ra: .cfa -24 + ^ x29: .cfa -32 + ^
STACK CFI 3aa68 .cfa: sp 32 +
STACK CFI 3aa70 .cfa: sp 0 +
STACK CFI 3aa74 .cfa: x29 32 +
STACK CFI INIT 3ac30 48 .cfa: sp 0 +
STACK CFI 3ac34 .cfa: sp 32 +
STACK CFI 3ac3c .cfa: x29 32 + x19: .cfa -16 + ^ .ra: .cfa -24 + ^ x29: .cfa -32 + ^
STACK CFI 3ac64 .cfa: sp 32 +
STACK CFI 3ac6c .cfa: sp 0 +
STACK CFI 3ac70 .cfa: x29 32 +
STACK CFI INIT 3ac78 4c .cfa: sp 0 +
STACK CFI 3ac7c .cfa: sp 32 +
STACK CFI 3ac84 .cfa: x29 32 + x19: .cfa -16 + ^ .ra: .cfa -24 + ^ x29: .cfa -32 + ^
STACK CFI 3acb0 .cfa: sp 32 +
STACK CFI 3acb8 .cfa: sp 0 +
STACK CFI 3acbc .cfa: x29 32 +
STACK CFI INIT 3acc4 98 .cfa: sp 0 +
STACK CFI 3acc8 .cfa: sp 48 +
STACK CFI 3acd4 .cfa: x29 48 + x19: .cfa -8 + ^ x20: .cfa -16 + ^ x21: .cfa -32 + ^ .ra: .cfa -40 + ^ x29: .cfa -48 + ^
STACK CFI 3ad1c .cfa: sp 48 +
STACK CFI 3ad28 .cfa: sp 0 +
STACK CFI 3ad2c .cfa: x29 48 +
STACK CFI INIT 3ad5c 68 .cfa: sp 0 +
STACK CFI 3ad60 .cfa: sp 32 +
STACK CFI 3ad68 .cfa: x29 32 + x19: .cfa -8 + ^ x20: .cfa -16 + ^ .ra: .cfa -24 + ^ x29: .cfa -32 + ^
STACK CFI 3ada0 .cfa: sp 32 +
STACK CFI 3ada8 .cfa: sp 0 +
STACK CFI 3adac .cfa: x29 32 +
STACK CFI INIT 3adc4 3c .cfa: sp 0 +
STACK CFI 3adc8 .cfa: sp 32 +
STACK CFI 3add0 .cfa: x29 32 + x19: .cfa -16 + ^ .ra: .cfa -24 + ^ x29: .cfa -32 + ^
STACK CFI 3adec .cfa: sp 32 +
STACK CFI 3adf4 .cfa: sp 0 +
STACK CFI 3adf8 .cfa: x29 32 +
STACK CFI INIT 3ae00 40 .cfa: sp 0 +
STACK CFI 3ae04 .cfa: sp 32 +
STACK CFI 3ae0c .cfa: x29 32 + x19: .cfa -16 + ^ .ra: .cfa -24 + ^ x29: .cfa -32 + ^
STACK CFI 3ae2c .cfa: sp 32 +
STACK CFI 3ae34 .cfa: sp 0 +
STACK CFI 3ae38 .cfa: x29 32 +
STACK CFI INIT 3ae40 7a4 .cfa: sp 0 +
STACK CFI 3ae44 .cfa: sp 80 +
STACK CFI 3ae58 .cfa: x29 80 + x19: .cfa -8 + ^ x20: .cfa -16 + ^ x21: .cfa -24 + ^ x22: .cfa -32 + ^ x23: .cfa -40 + ^ x24: .cfa -48 + ^ x28: .cfa -64 + ^ .ra: .cfa -72 + ^ x29: .cfa -80 + ^
STACK CFI 3b3d8 .cfa: sp 80 +
STACK CFI 3b3ec .cfa: sp 0 +
STACK CFI 3b3f0 .cfa: x29 80 +
STACK CFI INIT 3b60c 3c .cfa: sp 0 +
STACK CFI 3b610 .cfa: sp 32 +
STACK CFI 3b618 .cfa: x29 32 + x19: .cfa -16 + ^ .ra: .cfa -24 + ^ x29: .cfa -32 + ^
STACK CFI 3b634 .cfa: sp 32 +
STACK CFI 3b63c .cfa: sp 0 +
STACK CFI 3b640 .cfa: x29 32 +
STACK CFI INIT 3b648 48 .cfa: sp 0 +
STACK CFI 3b64c .cfa: sp 32 +
STACK CFI 3b654 .cfa: x29 32 + x19: .cfa -16 + ^ .ra: .cfa -24 + ^ x29: .cfa -32 + ^
STACK CFI 3b67c .cfa: sp 32 +
STACK CFI 3b684 .cfa: sp 0 +
STACK CFI 3b688 .cfa: x29 32 +
STACK CFI INIT 3b690 4c .cfa: sp 0 +
STACK CFI 3b694 .cfa: sp 32 +
STACK CFI 3b69c .cfa: x29 32 + x19: .cfa -16 + ^ .ra: .cfa -24 + ^ x29: .cfa -32 + ^
STACK CFI 3b6c8 .cfa: sp 32 +
STACK CFI 3b6d0 .cfa: sp 0 +
STACK CFI 3b6d4 .cfa: x29 32 +
STACK CFI INIT 3b6dc 90 .cfa: sp 0 +
STACK CFI 3b6e0 .cfa: sp 48 +
STACK CFI 3b6ec .cfa: x29 48 + x19: .cfa -8 + ^ x20: .cfa -16 + ^ x21: .cfa -32 + ^ .ra: .cfa -40 + ^ x29: .cfa -48 + ^
STACK CFI 3b72c .cfa: sp 48 +
STACK CFI 3b738 .cfa: sp 0 +
STACK CFI 3b73c .cfa: x29 48 +
STACK CFI INIT 3b76c 60 .cfa: sp 0 +
STACK CFI 3b770 .cfa: sp 32 +
STACK CFI 3b778 .cfa: x29 32 + x19: .cfa -8 + ^ x20: .cfa -16 + ^ .ra: .cfa -24 + ^ x29: .cfa -32 + ^
STACK CFI 3b7a8 .cfa: sp 32 +
STACK CFI 3b7b0 .cfa: sp 0 +
STACK CFI 3b7b4 .cfa: x29 32 +
STACK CFI INIT 3b7cc 3c .cfa: sp 0 +
STACK CFI 3b7d0 .cfa: sp 32 +
STACK CFI 3b7d8 .cfa: x29 32 + x19: .cfa -16 + ^ .ra: .cfa -24 + ^ x29: .cfa -32 + ^
STACK CFI 3b7f4 .cfa: sp 32 +
STACK CFI 3b7fc .cfa: sp 0 +
STACK CFI 3b800 .cfa: x29 32 +
STACK CFI INIT 3b808 40 .cfa: sp 0 +
STACK CFI 3b80c .cfa: sp 32 +
STACK CFI 3b814 .cfa: x29 32 + x19: .cfa -16 + ^ .ra: .cfa -24 + ^ x29: .cfa -32 + ^
STACK CFI 3b834 .cfa: sp 32 +
STACK CFI 3b83c .cfa: sp 0 +
STACK CFI 3b840 .cfa: x29 32 +
STACK CFI INIT 3b848 2f0 .cfa: sp 0 +
STACK CFI 3b84c .cfa: sp 80 +
STACK CFI 3b860 .cfa: x29 80 + x19: .cfa -8 + ^ x20: .cfa -16 + ^ x21: .cfa -24 + ^ x22: .cfa -32 + ^ x23: .cfa -40 + ^ x24: .cfa -48 + ^ x25: .cfa -56 + ^ x28: .cfa -64 + ^ .ra: .cfa -72 + ^ x29: .cfa -80 + ^
STACK CFI 3ba38 .cfa: sp 80 +
STACK CFI 3ba4c .cfa: sp 0 +
STACK CFI 3ba50 .cfa: x29 80 +
STACK CFI INIT 3bcb4 fc .cfa: sp 0 +
STACK CFI 3bcb8 .cfa: sp 96 +
STACK CFI 3bcc8 .cfa: x29 48 + x19: .cfa -8 + ^ x20: .cfa -16 + ^ x21: .cfa -32 + ^ .ra: .cfa -40 + ^ x29: .cfa -48 + ^
STACK CFI 3bd40 .cfa: sp 96 +
STACK CFI 3bd50 .cfa: sp 0 +
STACK CFI 3bd54 .cfa: x29 48 +
STACK CFI INIT 3bdb0 134 .cfa: sp 0 +
STACK CFI 3bdb4 .cfa: sp 80 +
STACK CFI 3bdc0 .cfa: x29 32 + x19: .cfa -8 + ^ x20: .cfa -16 + ^ .ra: .cfa -24 + ^ x29: .cfa -32 + ^
STACK CFI 3bdf0 .cfa: sp 80 +
STACK CFI 3bdfc .cfa: sp 0 +
STACK CFI 3be00 .cfa: x29 32 +
STACK CFI INIT 3bee4 78 .cfa: sp 0 +
STACK CFI 3bee8 .cfa: sp 32 +
STACK CFI 3bef0 .cfa: x29 32 + x19: .cfa -8 + ^ x20: .cfa -16 + ^ .ra: .cfa -24 + ^ x29: .cfa -32 + ^
STACK CFI 3befc .cfa: sp 32 +
STACK CFI 3bf04 .cfa: sp 0 +
STACK CFI 3bf08 .cfa: x29 32 +
STACK CFI INIT 3bf5c 74 .cfa: sp 0 +
STACK CFI 3bf60 .cfa: sp 48 +
STACK CFI 3bf6c .cfa: x29 32 + x19: .cfa -8 + ^ x20: .cfa -16 + ^ .ra: .cfa -24 + ^ x29: .cfa -32 + ^
STACK CFI 3bfb8 .cfa: sp 48 +
STACK CFI 3bfc4 .cfa: sp 0 +
STACK CFI 3bfc8 .cfa: x29 32 +
STACK CFI INIT 3c034 178 .cfa: sp 0 +
STACK CFI 3c038 .cfa: sp 112 +
STACK CFI 3c048 .cfa: x29 48 + x19: .cfa -8 + ^ x20: .cfa -16 + ^ x21: .cfa -32 + ^ .ra: .cfa -40 + ^ x29: .cfa -48 + ^
STACK CFI 3c098 .cfa: sp 112 +
STACK CFI 3c0a8 .cfa: sp 0 +
STACK CFI 3c0ac .cfa: x29 48 +
STACK CFI INIT 3c1ac 174 .cfa: sp 0 +
STACK CFI 3c1b0 .cfa: sp 112 +
STACK CFI 3c1c0 .cfa: x29 48 + x19: .cfa -8 + ^ x20: .cfa -16 + ^ x21: .cfa -32 + ^ .ra: .cfa -40 + ^ x29: .cfa -48 + ^
STACK CFI 3c20c .cfa: sp 112 +
STACK CFI 3c21c .cfa: sp 0 +
STACK CFI 3c220 .cfa: x29 48 +
STACK CFI INIT 3c320 224 .cfa: sp 0 +
STACK CFI 3c324 .cfa: sp 128 +
STACK CFI 3c338 .cfa: x29 64 + x19: .cfa -8 + ^ x20: .cfa -16 + ^ x21: .cfa -24 + ^ x22: .cfa -32 + ^ x23: .cfa -48 + ^ .ra: .cfa -56 + ^ x29: .cfa -64 + ^
STACK CFI 3c3e0 .cfa: sp 128 +
STACK CFI 3c3f4 .cfa: sp 0 +
STACK CFI 3c3f8 .cfa: x29 64 +
STACK CFI INIT 3c604 528 .cfa: sp 0 +
STACK CFI 3c608 .cfa: sp 112 +
STACK CFI 3c618 .cfa: x29 48 + x19: .cfa -8 + ^ x20: .cfa -16 + ^ x21: .cfa -32 + ^ .ra: .cfa -40 + ^ x29: .cfa -48 + ^
STACK CFI 3c780 .cfa: sp 112 +
STACK CFI 3c790 .cfa: sp 0 +
STACK CFI 3c794 .cfa: x29 48 +
STACK CFI INIT 3cb2c 24c .cfa: sp 0 +
STACK CFI 3cb30 .cfa: sp 128 +
STACK CFI 3cb44 .cfa: x29 64 + x19: .cfa -8 + ^ x20: .cfa -16 + ^ x21: .cfa -24 + ^ x22: .cfa -32 + ^ x23: .cfa -48 + ^ .ra: .cfa -56 + ^ x29: .cfa -64 + ^
STACK CFI 3cc14 .cfa: sp 128 +
STACK CFI 3cc28 .cfa: sp 0 +
STACK CFI 3cc2c .cfa: x29 64 +
STACK CFI INIT 3ce20 184 .cfa: sp 0 +
STACK CFI 3ce24 .cfa: sp 112 +
STACK CFI 3ce34 .cfa: x29 48 + x19: .cfa -8 + ^ x20: .cfa -16 + ^ x21: .cfa -24 + ^ x22: .cfa -32 + ^ .ra: .cfa -40 + ^ x29: .cfa -48 + ^
STACK CFI 3ce84 .cfa: sp 112 +
STACK CFI 3ce94 .cfa: sp 0 +
STACK CFI 3ce98 .cfa: x29 48 +
STACK CFI INIT 3cfa4 168 .cfa: sp 0 +
STACK CFI 3cfa8 .cfa: sp 112 +
STACK CFI 3cfb4 .cfa: x29 32 + x19: .cfa -8 + ^ x20: .cfa -16 + ^ .ra: .cfa -24 + ^ x29: .cfa -32 + ^
STACK CFI 3cff8 .cfa: sp 112 +
STACK CFI 3d004 .cfa: sp 0 +
STACK CFI 3d008 .cfa: x29 32 +
STACK CFI INIT 3d10c 154 .cfa: sp 0 +
STACK CFI 3d110 .cfa: sp 112 +
STACK CFI 3d11c .cfa: x29 32 + x19: .cfa -8 + ^ x20: .cfa -16 + ^ .ra: .cfa -24 + ^ x29: .cfa -32 + ^
STACK CFI 3d15c .cfa: sp 112 +
STACK CFI 3d168 .cfa: sp 0 +
STACK CFI 3d16c .cfa: x29 32 +
STACK CFI INIT 3d260 210 .cfa: sp 0 +
STACK CFI 3d264 .cfa: sp 128 +
STACK CFI 3d278 .cfa: x29 64 + x19: .cfa -8 + ^ x20: .cfa -16 + ^ x21: .cfa -24 + ^ x22: .cfa -32 + ^ x23: .cfa -48 + ^ .ra: .cfa -56 + ^ x29: .cfa -64 + ^
STACK CFI 3d30c .cfa: sp 128 +
STACK CFI 3d320 .cfa: sp 0 +
STACK CFI 3d324 .cfa: x29 64 +
STACK CFI INIT 3d4c4 1b8 .cfa: sp 0 +
STACK CFI 3d4c8 .cfa: sp 160 +
STACK CFI 3d4e4 .cfa: x29 72 + x19: .cfa -8 + ^ x20: .cfa -16 + ^ x21: .cfa -24 + ^ x22: .cfa -32 + ^ x23: .cfa -40 + ^ x24: .cfa -48 + ^ x25: .cfa -56 + ^ .ra: .cfa -64 + ^ x29: .cfa -72 + ^ v8: .cfa -80 + ^
STACK CFI 3d568 .cfa: sp 160 +
STACK CFI 3d584 .cfa: sp 0 +
STACK CFI 3d588 .cfa: x29 72 +
STACK CFI INIT 3d67c 16c .cfa: sp 0 +
STACK CFI 3d680 .cfa: sp 64 +
STACK CFI 3d690 .cfa: x29 48 + x19: .cfa -8 + ^ x20: .cfa -16 + ^ x21: .cfa -24 + ^ x22: .cfa -32 + ^ .ra: .cfa -40 + ^ x29: .cfa -48 + ^
STACK CFI 3d788 .cfa: sp 64 +
STACK CFI 3d798 .cfa: sp 0 +
STACK CFI 3d79c .cfa: x29 48 +
STACK CFI INIT 3d7e8 244 .cfa: sp 0 +
STACK CFI 3d7ec .cfa: sp 128 +
STACK CFI 3d800 .cfa: x29 64 + x19: .cfa -8 + ^ x20: .cfa -16 + ^ x21: .cfa -24 + ^ x22: .cfa -32 + ^ x23: .cfa -48 + ^ .ra: .cfa -56 + ^ x29: .cfa -64 + ^
STACK CFI 3d8c8 .cfa: sp 128 +
STACK CFI 3d8dc .cfa: sp 0 +
STACK CFI 3d8e0 .cfa: x29 64 +
STACK CFI INIT 3da2c 254 .cfa: sp 0 +
STACK CFI 3da30 .cfa: sp 128 +
STACK CFI 3da44 .cfa: x29 64 + x19: .cfa -8 + ^ x20: .cfa -16 + ^ x21: .cfa -24 + ^ x22: .cfa -32 + ^ x23: .cfa -48 + ^ .ra: .cfa -56 + ^ x29: .cfa -64 + ^
STACK CFI 3db1c .cfa: sp 128 +
STACK CFI 3db30 .cfa: sp 0 +
STACK CFI 3db34 .cfa: x29 64 +
STACK CFI INIT 3dc80 2b4 .cfa: sp 0 +
STACK CFI 3dc84 .cfa: sp 128 +
STACK CFI 3dc98 .cfa: x29 64 + x19: .cfa -8 + ^ x20: .cfa -16 + ^ x21: .cfa -24 + ^ x22: .cfa -32 + ^ x23: .cfa -40 + ^ x24: .cfa -48 + ^ .ra: .cfa -56 + ^ x29: .cfa -64 + ^
STACK CFI 3ddd0 .cfa: sp 128 +
STACK CFI 3dde4 .cfa: sp 0 +
STACK CFI 3dde8 .cfa: x29 64 +
STACK CFI INIT 3df34 224 .cfa: sp 0 +
STACK CFI 3df38 .cfa: sp 128 +
STACK CFI 3df4c .cfa: x29 64 + x19: .cfa -8 + ^ x20: .cfa -16 + ^ x21: .cfa -24 + ^ x22: .cfa -32 + ^ x23: .cfa -48 + ^ .ra: .cfa -56 + ^ x29: .cfa -64 + ^
STACK CFI 3dff4 .cfa: sp 128 +
STACK CFI 3e008 .cfa: sp 0 +
STACK CFI 3e00c .cfa: x29 64 +
STACK CFI INIT 3e158 224 .cfa: sp 0 +
STACK CFI 3e15c .cfa: sp 128 +
STACK CFI 3e170 .cfa: x29 64 + x19: .cfa -8 + ^ x20: .cfa -16 + ^ x21: .cfa -24 + ^ x22: .cfa -32 + ^ x23: .cfa -48 + ^ .ra: .cfa -56 + ^ x29: .cfa -64 + ^
STACK CFI 3e218 .cfa: sp 128 +
STACK CFI 3e22c .cfa: sp 0 +
STACK CFI 3e230 .cfa: x29 64 +
STACK CFI INIT 3e37c 154 .cfa: sp 0 +
STACK CFI 3e380 .cfa: sp 384 +
STACK CFI 3e394 .cfa: x29 64 + x19: .cfa -8 + ^ x20: .cfa -16 + ^ x21: .cfa -24 + ^ x22: .cfa -32 + ^ x23: .cfa -40 + ^ x28: .cfa -48 + ^ .ra: .cfa -56 + ^ x29: .cfa -64 + ^
STACK CFI 3e478 .cfa: sp 384 +
STACK CFI 3e48c .cfa: sp 0 +
STACK CFI 3e490 .cfa: x29 64 +
STACK CFI INIT 3e4e8 4e0 .cfa: sp 0 +
STACK CFI 3e4ec .cfa: sp 64 +
STACK CFI 3e4fc .cfa: x29 64 + x19: .cfa -8 + ^ x20: .cfa -16 + ^ x21: .cfa -24 + ^ x22: .cfa -32 + ^ x23: .cfa -40 + ^ x24: .cfa -48 + ^ .ra: .cfa -56 + ^ x29: .cfa -64 + ^
STACK CFI 3e99c .cfa: sp 64 +
STACK CFI 3e9ac .cfa: sp 0 +
STACK CFI 3e9b0 .cfa: x29 64 +
STACK CFI INIT 3ecf0 294 .cfa: sp 0 +
STACK CFI 3ecf4 .cfa: sp 240 +
STACK CFI 3ed0c .cfa: x29 80 + x19: .cfa -8 + ^ x20: .cfa -16 + ^ x21: .cfa -24 + ^ x22: .cfa -32 + ^ x23: .cfa -40 + ^ x24: .cfa -48 + ^ x25: .cfa -64 + ^ .ra: .cfa -72 + ^ x29: .cfa -80 + ^
STACK CFI 3eeac .cfa: sp 240 +
STACK CFI 3eec4 .cfa: sp 0 +
STACK CFI 3eec8 .cfa: x29 80 +
STACK CFI INIT 3f000 50 .cfa: sp 0 +
STACK CFI 3f004 .cfa: sp 32 +
STACK CFI 3f00c .cfa: x29 32 + x19: .cfa -8 + ^ x20: .cfa -16 + ^ .ra: .cfa -24 + ^ x29: .cfa -32 + ^
STACK CFI INIT 3f050 7c0 .cfa: sp 0 +
STACK CFI 3f054 .cfa: sp 320 +
STACK CFI 3f070 .cfa: x29 96 + x19: .cfa -8 + ^ x20: .cfa -16 + ^ x21: .cfa -24 + ^ x22: .cfa -32 + ^ x23: .cfa -40 + ^ x24: .cfa -48 + ^ x25: .cfa -56 + ^ x26: .cfa -64 + ^ x27: .cfa -72 + ^ x28: .cfa -80 + ^ .ra: .cfa -88 + ^ x29: .cfa -96 + ^
STACK CFI 3f6c0 .cfa: sp 320 +
STACK CFI 3f6dc .cfa: sp 0 +
STACK CFI 3f6e0 .cfa: x29 96 +
STACK CFI INIT 43390 c84 .cfa: sp 0 +
STACK CFI 43394 .cfa: sp 96 +
STACK CFI 433ac .cfa: x29 96 + x19: .cfa -8 + ^ x20: .cfa -16 + ^ x21: .cfa -24 + ^ x22: .cfa -32 + ^ x23: .cfa -40 + ^ x24: .cfa -48 + ^ x25: .cfa -56 + ^ x26: .cfa -64 + ^ x27: .cfa -72 + ^ x28: .cfa -80 + ^ .ra: .cfa -88 + ^ x29: .cfa -96 + ^
STACK CFI 43e34 .cfa: sp 96 +
STACK CFI 43e4c .cfa: sp 0 +
STACK CFI 43e50 .cfa: x29 96 +
STACK CFI INIT 44168 26c .cfa: sp 0 +
STACK CFI 4416c .cfa: sp 128 +
STACK CFI 4417c .cfa: x29 48 + x19: .cfa -8 + ^ x20: .cfa -16 + ^ x21: .cfa -24 + ^ x22: .cfa -32 + ^ .ra: .cfa -40 + ^ x29: .cfa -48 + ^
STACK CFI 44320 .cfa: sp 128 +
STACK CFI 44330 .cfa: sp 0 +
STACK CFI 44334 .cfa: x29 48 +
STACK CFI INIT 44764 3b8 .cfa: sp 0 +
STACK CFI 44768 .cfa: sp 96 +
STACK CFI 44780 .cfa: x29 96 + x19: .cfa -8 + ^ x20: .cfa -16 + ^ x21: .cfa -24 + ^ x22: .cfa -32 + ^ x23: .cfa -40 + ^ x24: .cfa -48 + ^ x25: .cfa -56 + ^ x26: .cfa -64 + ^ x27: .cfa -72 + ^ x28: .cfa -80 + ^ .ra: .cfa -88 + ^ x29: .cfa -96 + ^
STACK CFI 44abc .cfa: sp 96 +
STACK CFI 44ad4 .cfa: sp 0 +
STACK CFI 44ad8 .cfa: x29 96 +
STACK CFI INIT 44bbc cc0 .cfa: sp 0 +
STACK CFI 44bc0 .cfa: sp 96 +
STACK CFI 44bd8 .cfa: x29 96 + x19: .cfa -8 + ^ x20: .cfa -16 + ^ x21: .cfa -24 + ^ x22: .cfa -32 + ^ x23: .cfa -40 + ^ x24: .cfa -48 + ^ x25: .cfa -56 + ^ x26: .cfa -64 + ^ x27: .cfa -72 + ^ x28: .cfa -80 + ^ .ra: .cfa -88 + ^ x29: .cfa -96 + ^
STACK CFI 4568c .cfa: sp 96 +
STACK CFI 456a4 .cfa: sp 0 +
STACK CFI 456a8 .cfa: x29 96 +
STACK CFI INIT 45b64 af8 .cfa: sp 0 +
STACK CFI 45b68 .cfa: sp 96 +
STACK CFI 45b80 .cfa: x29 96 + x19: .cfa -8 + ^ x20: .cfa -16 + ^ x21: .cfa -24 + ^ x22: .cfa -32 + ^ x23: .cfa -40 + ^ x24: .cfa -48 + ^ x25: .cfa -56 + ^ x26: .cfa -64 + ^ x27: .cfa -72 + ^ x28: .cfa -80 + ^ .ra: .cfa -88 + ^ x29: .cfa -96 + ^
STACK CFI 465d0 .cfa: sp 96 +
STACK CFI 465e8 .cfa: sp 0 +
STACK CFI 465ec .cfa: x29 96 +
STACK CFI INIT 46850 1430 .cfa: sp 0 +
STACK CFI 46854 .cfa: sp 96 +
STACK CFI 4686c .cfa: x29 96 + x19: .cfa -8 + ^ x20: .cfa -16 + ^ x21: .cfa -24 + ^ x22: .cfa -32 + ^ x23: .cfa -40 + ^ x24: .cfa -48 + ^ x25: .cfa -56 + ^ x26: .cfa -64 + ^ x27: .cfa -72 + ^ x28: .cfa -80 + ^ .ra: .cfa -88 + ^ x29: .cfa -96 + ^
STACK CFI 47b08 .cfa: sp 96 +
STACK CFI 47b20 .cfa: sp 0 +
STACK CFI 47b24 .cfa: x29 96 +
STACK CFI INIT 47da4 75c .cfa: sp 0 +
STACK CFI 47da8 .cfa: sp 368 +
STACK CFI 47dc4 .cfa: x29 96 + x19: .cfa -8 + ^ x20: .cfa -16 + ^ x21: .cfa -24 + ^ x22: .cfa -32 + ^ x23: .cfa -40 + ^ x24: .cfa -48 + ^ x25: .cfa -56 + ^ x26: .cfa -64 + ^ x27: .cfa -72 + ^ x28: .cfa -80 + ^ .ra: .cfa -88 + ^ x29: .cfa -96 + ^
STACK CFI 47e78 .cfa: sp 368 +
STACK CFI 47e94 .cfa: sp 0 +
STACK CFI 47e98 .cfa: x29 96 +
STACK CFI 47eec .cfa: sp 368 +
STACK CFI 47f08 .cfa: sp 0 +
STACK CFI 47f0c .cfa: x29 96 +
STACK CFI INIT 488c0 ee0 .cfa: sp 0 +
STACK CFI 488c4 .cfa: sp 96 +
STACK CFI 488dc .cfa: x29 96 + x19: .cfa -8 + ^ x20: .cfa -16 + ^ x21: .cfa -24 + ^ x22: .cfa -32 + ^ x23: .cfa -40 + ^ x24: .cfa -48 + ^ x25: .cfa -56 + ^ x26: .cfa -64 + ^ x27: .cfa -72 + ^ x28: .cfa -80 + ^ .ra: .cfa -88 + ^ x29: .cfa -96 + ^
STACK CFI 49598 .cfa: sp 96 +
STACK CFI 495b0 .cfa: sp 0 +
STACK CFI 495b4 .cfa: x29 96 +
STACK CFI INIT 49b14 14b4 .cfa: sp 0 +
STACK CFI 49b18 .cfa: sp 112 +
STACK CFI 49b34 .cfa: x29 96 + x19: .cfa -8 + ^ x20: .cfa -16 + ^ x21: .cfa -24 + ^ x22: .cfa -32 + ^ x23: .cfa -40 + ^ x24: .cfa -48 + ^ x25: .cfa -56 + ^ x26: .cfa -64 + ^ x27: .cfa -72 + ^ x28: .cfa -80 + ^ .ra: .cfa -88 + ^ x29: .cfa -96 + ^ v8: .cfa -112 + ^
STACK CFI 49f14 .cfa: sp 112 +
STACK CFI 49f30 .cfa: sp 0 +
STACK CFI 49f34 .cfa: x29 96 +
STACK CFI INIT 4d3d8 9a0 .cfa: sp 0 +
STACK CFI 4d3dc .cfa: sp 144 +
STACK CFI 4d3f4 .cfa: x29 80 + x19: .cfa -8 + ^ x20: .cfa -16 + ^ x21: .cfa -24 + ^ x22: .cfa -32 + ^ x23: .cfa -40 + ^ x24: .cfa -48 + ^ x25: .cfa -64 + ^ .ra: .cfa -72 + ^ x29: .cfa -80 + ^
STACK CFI 4dcf4 .cfa: sp 144 +
STACK CFI 4dd0c .cfa: sp 0 +
STACK CFI 4dd10 .cfa: x29 80 +
STACK CFI INIT 4dd78 57c .cfa: sp 0 +
STACK CFI 4dd7c .cfa: sp 96 +
STACK CFI 4dd94 .cfa: x29 96 + x19: .cfa -8 + ^ x20: .cfa -16 + ^ x21: .cfa -24 + ^ x22: .cfa -32 + ^ x23: .cfa -40 + ^ x24: .cfa -48 + ^ x25: .cfa -56 + ^ x26: .cfa -64 + ^ x27: .cfa -72 + ^ x28: .cfa -80 + ^ .ra: .cfa -88 + ^ x29: .cfa -96 + ^
STACK CFI 4e258 .cfa: sp 96 +
STACK CFI 4e270 .cfa: sp 0 +
STACK CFI 4e274 .cfa: x29 96 +
STACK CFI INIT 4e2f4 67c .cfa: sp 0 +
STACK CFI 4e2f8 .cfa: sp 96 +
STACK CFI 4e310 .cfa: x29 96 + x19: .cfa -8 + ^ x20: .cfa -16 + ^ x21: .cfa -24 + ^ x22: .cfa -32 + ^ x23: .cfa -40 + ^ x24: .cfa -48 + ^ x25: .cfa -56 + ^ x26: .cfa -64 + ^ x27: .cfa -72 + ^ x28: .cfa -80 + ^ .ra: .cfa -88 + ^ x29: .cfa -96 + ^
STACK CFI 4e8d4 .cfa: sp 96 +
STACK CFI 4e8ec .cfa: sp 0 +
STACK CFI 4e8f0 .cfa: x29 96 +
