MODULE Linux arm64 4A7125C9C16F0A09A9F3E4DCDB78997B0 shineua.geometrize2gd.android64.so
INFO CODE_ID C925714A6FC1090AA9F3E4DCDB78997B3C551078
INFO GENERATOR mozilla/dump_syms 2.3.4
PUBLIC 18990 0 __on_dlclose
PUBLIC 189a0 0 __emutls_unregister_key
PUBLIC 189a8 0 __on_dlclose_late
PUBLIC 189b0 0 __atexit_handler_wrapper
PUBLIC 189c4 0 atexit
PUBLIC 189e0 0 pthread_atfork
PUBLIC 189f0 0 __aarch64_ldadd8_relax
PUBLIC 18a20 0 init_have_lse_atomics
PUBLIC 18ab8 0 __init_cpu_features_constructor
PUBLIC 19054 0 __init_cpu_features
PUBLIC 190e0 0 __aarch64_ldadd8_acq_rel
FUNC 19110 b30 0 __cxx_global_var_init
FUNC 19c40 18 0 geode::modifier::ModifyBase<geode::modifier::ModifyDerive<MyEditorUI, EditorUI> >::~ModifyBase()
FUNC 19c58 428 0 geode::modifier::ModifyDerive<MyEditorUI, EditorUI>::apply()
FUNC 1a080 50 0 std::__ndk1::shared_ptr<geode::Hook>::~shared_ptr[abi:ne180000]()
FUNC 1a0d0 74 0 geode::impl::ResultData<geode::Hook*, std::__ndk1::basic_string<char, std::__ndk1::char_traits<char>, std::__ndk1::allocator<char> > >::~ResultData()
FUNC 1a144 7c 0 std::__ndk1::vector<std::__ndk1::basic_string<char, std::__ndk1::char_traits<char>, std::__ndk1::allocator<char> >, std::__ndk1::allocator<std::__ndk1::basic_string<char, std::__ndk1::char_traits<char>, std::__ndk1::allocator<char> > > >::~vector[abi:ne180000]()
FUNC 1a1c0 4 0 geode::modifier::ModifyBase<geode::modifier::ModifyDerive<MyEditorUI, EditorUI> >::apply()
PUBLIC 1a1c4 0 __clang_call_terminate
FUNC 1a1d4 154 0 _ZN5geode15UnwrapExceptionC2IRPNS_4HookEQsr4implE18IsStringStreamableIT_EEENS_4impl5OkTagEOS5_
FUNC 1a328 34 0 std::__ndk1::__throw_bad_variant_access[abi:ne180000]()
FUNC 1a35c 124 0 std::__ndk1::basic_stringstream<char, std::__ndk1::char_traits<char>, std::__ndk1::allocator<char> >::basic_stringstream[abi:ne180000]()
FUNC 1a480 80 0 std::__ndk1::basic_stringstream<char, std::__ndk1::char_traits<char>, std::__ndk1::allocator<char> >::~basic_stringstream()
FUNC 1a500 24 0 geode::UnwrapException::~UnwrapException()
FUNC 1a524 198 0 std::__ndk1::__put_character_sequence[abi:ne180000]<char, std::__ndk1::char_traits<char> >(std::__ndk1::basic_ostream<char, std::__ndk1::char_traits<char> >, std::__ndk1::basic_ostream const*, unsigned long)
FUNC 1a6bc 1b4 0 std::__ndk1::__pad_and_output[abi:ne180000]<char, std::__ndk1::char_traits<char> >(std::__ndk1::char_traits<char>, std::__ndk1::ostreambuf_iterator const*, std::__ndk1::ostreambuf_iterator const, std::__ndk1::ostreambuf_iterator const, std::__ndk1::ios_base&, std::__ndk1::ostreambuf_iterator)
FUNC 1a870 14 0 std::__ndk1::basic_string<char, std::__ndk1::char_traits<char>, std::__ndk1::allocator<char> >::__throw_length_error[abi:ne180000]() const
FUNC 1a884 50 0 std::__ndk1::__throw_length_error[abi:ne180000](char const*)
FUNC 1a8d4 30 0 std::length_error::length_error[abi:ne180000](char const*)
FUNC 1a904 34 0 std::__throw_bad_array_new_length([abi:ne180000], void)
FUNC 1a938 15c 0 std::__ndk1::basic_stringbuf<char, std::__ndk1::char_traits<char>, std::__ndk1::allocator<char> >::str[abi:ne180000]() &&
FUNC 1aa94 148 0 std::__ndk1::basic_stringbuf<char, std::__ndk1::char_traits<char>, std::__ndk1::allocator<char> >::__init_buf_ptrs[abi:ne180000]()
FUNC 1abdc 70 0 std::__ndk1::basic_string<char, std::__ndk1::char_traits<char>, std::__ndk1::allocator<char> >::__init_copy_ctor_external(char const*, unsigned long)
FUNC 1ac4c 68 0 std::__ndk1::__split_buffer<std::__ndk1::basic_string<char, std::__ndk1::char_traits<char>, std::__ndk1::allocator<char> >, std::__ndk1::allocator<std::__ndk1::basic_string<char, std::__ndk1::char_traits<char>, std::__ndk1::allocator<char> > >&>::~__split_buffer()
FUNC 1acb4 14 0 std::__ndk1::vector<std::__ndk1::basic_string<char, std::__ndk1::char_traits<char>, std::__ndk1::allocator<char> >, std::__ndk1::allocator<std::__ndk1::basic_string<char, std::__ndk1::char_traits<char>, std::__ndk1::allocator<char> > > >::__throw_length_error[abi:ne180000]() const
FUNC 1acc8 4 0 std::__ndk1::__variant_detail::__visitation::__base::__dispatcher<(unsigned long)0>::__dispatch[abi:ne180000]<std::__ndk1::__variant_detail::__dtor<std::__ndk1::__variant_detail::__traits<geode::Hook*, std::__ndk1::basic_string<char, std::__ndk1::char_traits<char>, std::__ndk1::allocator<char> > >, (std::__ndk1::__variant_detail::_Trait)1>::__destroy[abi:ne180000]()::{lambda(auto:1&)#1}, std::__ndk1::__variant_detail::__base<(std::__ndk1::__variant_detail::__traits<geode::Hook*, std::__ndk1::basic_string<char, std::__ndk1::char_traits<char>, std::__ndk1::allocator<char> > >)1, geode::Hook, std::__ndk1::allocator<char> >&>(std::__ndk1::__variant_detail::__dtor<std::__ndk1::__variant_detail::__traits<geode::Hook*, std::__ndk1::basic_string<char, std::__ndk1::char_traits<char>, std::__ndk1::allocator<char> > >, (std::__ndk1::__variant_detail::_Trait)1>, std::__ndk1::__variant_detail::__base<(std::__ndk1::__variant_detail::__traits<geode::Hook*, std::__ndk1::basic_string<char, std::__ndk1::char_traits<char>, std::__ndk1::allocator<char> > >)1, geode::Hook, std::__ndk1::allocator<char> >&)
FUNC 1accc 14 0 std::__ndk1::__variant_detail::__visitation::__base::__dispatcher<(unsigned long)1>::__dispatch[abi:ne180000]<std::__ndk1::__variant_detail::__dtor<std::__ndk1::__variant_detail::__traits<geode::Hook*, std::__ndk1::basic_string<char, std::__ndk1::char_traits<char>, std::__ndk1::allocator<char> > >, (std::__ndk1::__variant_detail::_Trait)1>::__destroy[abi:ne180000]()::{lambda(auto:1&)#1}, std::__ndk1::__variant_detail::__base<(std::__ndk1::__variant_detail::__traits<geode::Hook*, std::__ndk1::basic_string<char, std::__ndk1::char_traits<char>, std::__ndk1::allocator<char> > >)1, geode::Hook, std::__ndk1::allocator<char> >&>(std::__ndk1::__variant_detail::__dtor<std::__ndk1::__variant_detail::__traits<geode::Hook*, std::__ndk1::basic_string<char, std::__ndk1::char_traits<char>, std::__ndk1::allocator<char> > >, (std::__ndk1::__variant_detail::_Trait)1>, std::__ndk1::__variant_detail::__base<(std::__ndk1::__variant_detail::__traits<geode::Hook*, std::__ndk1::basic_string<char, std::__ndk1::char_traits<char>, std::__ndk1::allocator<char> > >)1, geode::Hook, std::__ndk1::allocator<char> >&)
FUNC 1ace0 84 0 std::__ndk1::__tree<std::__ndk1::__value_type<std::__ndk1::basic_string<char, std::__ndk1::char_traits<char>, std::__ndk1::allocator<char> >, std::__ndk1::shared_ptr<geode::Hook> >, std::__ndk1::__map_value_compare<std::__ndk1::basic_string<char, std::__ndk1::char_traits<char>, std::__ndk1::allocator<char> >, std::__ndk1::__value_type<std::__ndk1::basic_string<char, std::__ndk1::char_traits<char>, std::__ndk1::allocator<char> >, std::__ndk1::shared_ptr<geode::Hook> >, std::__ndk1::less<std::__ndk1::basic_string<char, std::__ndk1::char_traits<char>, std::__ndk1::allocator<char> > >, true>, std::__ndk1::allocator<std::__ndk1::__value_type<std::__ndk1::basic_string<char, std::__ndk1::char_traits<char>, std::__ndk1::allocator<char> >, std::__ndk1::shared_ptr<geode::Hook> > > >::destroy(std::__ndk1::__tree_node<std::__ndk1::__value_type<std::__ndk1::basic_string<char, std::__ndk1::char_traits<char>, std::__ndk1::allocator<char> >, std::__ndk1::shared_ptr<geode::Hook> >, void*>*)
FUNC 1ad64 94 0 geode::modifier::AsStaticFunction_createMoveMenu<MyEditorUI, void (MyEditorUI::*)()>::Impl<void (MyEditorUI::*)()>::function(MyEditorUI*)
FUNC 1adf8 50 0 std::__ndk1::shared_ptr<tulip::hook::CallingConvention>::~shared_ptr[abi:ne180000]()
FUNC 1ae48 64 0 tulip::hook::HandlerMetadata::~HandlerMetadata()
FUNC 1aeac 130 0 MyEditorUI::onImgToGD(cocos2d::CCObject*)
FUNC 1afdc 19c 0 std::__ndk1::__tree_balance_after_insert[abi:ne180000]<std::__ndk1::__tree_node_base<void*>*>(std::__ndk1::__tree_node_base<void*>*, std::__ndk1::__tree_node_base<void*>*)
FUNC 1b178 f4 0 ImportPopup::create(cocos2d::CCArray*)
FUNC 1b26c 2fc 0 ImportPopup::ImportPopup()
FUNC 1b568 988 0 ImportPopup::setup(cocos2d::CCArray*)
FUNC 1bef0 20 0 geode::cocos::CCArrayExt<GameObject*>::~CCArrayExt()
FUNC 1bf10 554 0 ImportPopup::importJSON(cocos2d::CCObject*)
FUNC 1c464 184 0 ImportPopup::checkAlert(cocos2d::CCObject*)
FUNC 1c5e8 80 0 geode::utils::file::FilePickOptions::Filter::~Filter()
FUNC 1c668 50 0 geode::Task<geode::Result<std::__ndk1::__fs::filesystem::path, std::__ndk1::basic_string<char, std::__ndk1::char_traits<char>, std::__ndk1::allocator<char> > >, std::__ndk1::monostate>::~Task()
FUNC 1c6b8 58 0 geode::utils::file::FilePickOptions::~FilePickOptions()
FUNC 1c710 a50 0 ImportPopup::parseAndPlace()
FUNC 1d160 74 0 geode::impl::ResultData<double, std::__ndk1::basic_string<char, std::__ndk1::char_traits<char>, std::__ndk1::allocator<char> > >::~ResultData()
FUNC 1d1d4 608 0 ImportPopup::textChanged(CCTextInputNode*)
FUNC 1d7dc 74 0 geode::impl::ResultData<float, std::__ndk1::basic_string<char, std::__ndk1::char_traits<char>, std::__ndk1::allocator<char> > >::~ResultData()
FUNC 1d850 74 0 geode::impl::ResultData<int, std::__ndk1::basic_string<char, std::__ndk1::char_traits<char>, std::__ndk1::allocator<char> > >::~ResultData()
FUNC 1d8c4 8 0 {virtual override thunk({offset(-672)}, ImportPopup::textChanged(CCTextInputNode*))}
FUNC 1d8cc 8 0 cocos2d::CCCopying::copyWithZone(cocos2d::CCZone*)
FUNC 1d8d4 1a0 0 ImportPopup::~ImportPopup()
FUNC 1da74 24 0 ImportPopup::~ImportPopup()
FUNC 1da98 2c 0 geode::Popup<cocos2d::CCArray*>::registerWithTouchDispatcher()
FUNC 1dac4 28 0 geode::Popup<cocos2d::CCArray*>::keyDown(cocos2d::enumKeyCodes)
FUNC 1daec 4 0 cocos2d::CCLayerRGBA::setOpacityModifyRGB(bool)
FUNC 1daf0 8 0 cocos2d::CCLayerRGBA::isOpacityModifyRGB()
FUNC 1daf8 148 0 geode::Popup<cocos2d::CCArray*>::onClose(cocos2d::CCObject*)
FUNC 1dc40 8 0 {virtual override thunk({offset(-320)}, ImportPopup::~ImportPopup())}
FUNC 1dc48 28 0 {virtual override thunk({offset(-320)}, ImportPopup::~ImportPopup())}
FUNC 1dc70 2c 0 {virtual override thunk({offset(-344)}, geode::Popup<cocos2d::CCArray*>::keyDown(cocos2d::enumKeyCodes))}
FUNC 1dc9c 4 0 cocos2d::CCKeyboardDelegate::keyUp(cocos2d::enumKeyCodes)
FUNC 1dca0 4 0 cocos2d::CCMouseDelegate::rightKeyDown()
FUNC 1dca4 4 0 cocos2d::CCMouseDelegate::rightKeyUp()
FUNC 1dca8 4 0 cocos2d::CCMouseDelegate::scrollWheel(float, float)
FUNC 1dcac 4 0 {virtual override thunk({offset(-408)}, cocos2d::CCLayerRGBA::setOpacityModifyRGB(bool))}
FUNC 1dcb0 8 0 {virtual override thunk({offset(-408)}, cocos2d::CCLayerRGBA::isOpacityModifyRGB())}
FUNC 1dcb8 170 0 std::__ndk1::set<int, std::__ndk1::less<int>, std::__ndk1::allocator<int> >::set[abi:ne180000](std::initializer_list<int>, std::__ndk1::less<int> const&)
FUNC 1de28 7c 0 std::__ndk1::basic_ostringstream<char, std::__ndk1::char_traits<char>, std::__ndk1::allocator<char> >::~basic_ostringstream()
FUNC 1dea4 6c 0 geode::Popup<cocos2d::CCArray*>::~Popup()
FUNC 1df10 4 0 geode::Popup<cocos2d::CCArray*>::~Popup()
FUNC 1df14 6c 0 {virtual override thunk({offset(-320)}, geode::Popup<cocos2d::CCArray*>::~Popup())}
FUNC 1df80 4 0 {virtual override thunk({offset(-320)}, geode::Popup<cocos2d::CCArray*>::~Popup())}
FUNC 1df84 3c 0 std::__ndk1::__tree<int, std::__ndk1::less<int>, std::__ndk1::allocator<int> >::destroy(std::__ndk1::__tree_node<int, void*>*)
FUNC 1dfc0 21c 0 geode::Task<geode::Result<std::__ndk1::__fs::filesystem::path, std::__ndk1::basic_string<char, std::__ndk1::char_traits<char>, std::__ndk1::allocator<char> > >, std::__ndk1::monostate>::setListener(geode::EventListenerProtocol*)
FUNC 1e1dc 4 0 geode::EventListener<geode::Task<geode::Result<std::__ndk1::__fs::filesystem::path, std::__ndk1::basic_string<char, std::__ndk1::char_traits<char>, std::__ndk1::allocator<char> > >, std::__ndk1::monostate> >::getPool() const
FUNC 1e1e0 194 0 geode::EventListener<geode::Task<geode::Result<std::__ndk1::__fs::filesystem::path, std::__ndk1::basic_string<char, std::__ndk1::char_traits<char>, std::__ndk1::allocator<char> > >, std::__ndk1::monostate> >::handle(geode::Event*)
FUNC 1e374 8c 0 geode::EventListener<geode::Task<geode::Result<std::__ndk1::__fs::filesystem::path, std::__ndk1::basic_string<char, std::__ndk1::char_traits<char>, std::__ndk1::allocator<char> > >, std::__ndk1::monostate> >::~EventListener()
FUNC 1e400 94 0 geode::EventListener<geode::Task<geode::Result<std::__ndk1::__fs::filesystem::path, std::__ndk1::basic_string<char, std::__ndk1::char_traits<char>, std::__ndk1::allocator<char> > >, std::__ndk1::monostate> >::~EventListener()
FUNC 1e494 50 0 geode::Task<geode::Result<std::__ndk1::__fs::filesystem::path, std::__ndk1::basic_string<char, std::__ndk1::char_traits<char>, std::__ndk1::allocator<char> > >, std::__ndk1::monostate>::setListener(geode::EventListenerProtocol*)::{lambda()#1}::~{lambda()#1}()
FUNC 1e4e4 50 0 geode::Task<geode::Result<std::__ndk1::__fs::filesystem::path, std::__ndk1::basic_string<char, std::__ndk1::char_traits<char>, std::__ndk1::allocator<char> > >, std::__ndk1::monostate>::setListener(geode::EventListenerProtocol*)::{lambda()#2}::~{lambda()#2}()
FUNC 1e534 5c 0 std::__ndk1::__function::__func<geode::Task<geode::Result<std::__ndk1::__fs::filesystem::path, std::__ndk1::basic_string<char, std::__ndk1::char_traits<char>, std::__ndk1::allocator<char> > >, std::__ndk1::monostate>::setListener(geode::EventListenerProtocol*)::{lambda()#1}, std::__ndk1::allocator<geode::Task<geode::Result<std::__ndk1::__fs::filesystem::path, std::__ndk1::basic_string<char, std::__ndk1::char_traits<char>, std::__ndk1::allocator<char> > >, std::__ndk1::monostate>::setListener(geode::EventListenerProtocol*)::{lambda()#1}>, void ()>::~__func()
FUNC 1e590 5c 0 std::__ndk1::__function::__func<geode::Task<geode::Result<std::__ndk1::__fs::filesystem::path, std::__ndk1::basic_string<char, std::__ndk1::char_traits<char>, std::__ndk1::allocator<char> > >, std::__ndk1::monostate>::setListener(geode::EventListenerProtocol*)::{lambda()#1}, std::__ndk1::allocator<geode::Task<geode::Result<std::__ndk1::__fs::filesystem::path, std::__ndk1::basic_string<char, std::__ndk1::char_traits<char>, std::__ndk1::allocator<char> > >, std::__ndk1::monostate>::setListener(geode::EventListenerProtocol*)::{lambda()#1}>, void ()>::~__func()
FUNC 1e5ec 58 0 std::__ndk1::__function::__func<geode::Task<geode::Result<std::__ndk1::__fs::filesystem::path, std::__ndk1::basic_string<char, std::__ndk1::char_traits<char>, std::__ndk1::allocator<char> > >, std::__ndk1::monostate>::setListener(geode::EventListenerProtocol*)::{lambda()#1}, std::__ndk1::allocator<geode::Task<geode::Result<std::__ndk1::__fs::filesystem::path, std::__ndk1::basic_string<char, std::__ndk1::char_traits<char>, std::__ndk1::allocator<char> > >, std::__ndk1::monostate>::setListener(geode::EventListenerProtocol*)::{lambda()#1}>, void ()>::__clone() const
FUNC 1e644 4c 0 std::__ndk1::__function::__func<geode::Task<geode::Result<std::__ndk1::__fs::filesystem::path, std::__ndk1::basic_string<char, std::__ndk1::char_traits<char>, std::__ndk1::allocator<char> > >, std::__ndk1::monostate>::setListener(geode::EventListenerProtocol*)::{lambda()#1}, std::__ndk1::allocator<geode::Task<geode::Result<std::__ndk1::__fs::filesystem::path, std::__ndk1::basic_string<char, std::__ndk1::char_traits<char>, std::__ndk1::allocator<char> > >, std::__ndk1::monostate>::setListener(geode::EventListenerProtocol*)::{lambda()#1}>, void ()>::__clone(std::__ndk1::__function::__base<void ()>*) const
FUNC 1e690 50 0 std::__ndk1::__function::__func<geode::Task<geode::Result<std::__ndk1::__fs::filesystem::path, std::__ndk1::basic_string<char, std::__ndk1::char_traits<char>, std::__ndk1::allocator<char> > >, std::__ndk1::monostate>::setListener(geode::EventListenerProtocol*)::{lambda()#1}, std::__ndk1::allocator<geode::Task<geode::Result<std::__ndk1::__fs::filesystem::path, std::__ndk1::basic_string<char, std::__ndk1::char_traits<char>, std::__ndk1::allocator<char> > >, std::__ndk1::monostate>::setListener(geode::EventListenerProtocol*)::{lambda()#1}>, void ()>::destroy()
FUNC 1e6e0 50 0 std::__ndk1::__function::__func<geode::Task<geode::Result<std::__ndk1::__fs::filesystem::path, std::__ndk1::basic_string<char, std::__ndk1::char_traits<char>, std::__ndk1::allocator<char> > >, std::__ndk1::monostate>::setListener(geode::EventListenerProtocol*)::{lambda()#1}, std::__ndk1::allocator<geode::Task<geode::Result<std::__ndk1::__fs::filesystem::path, std::__ndk1::basic_string<char, std::__ndk1::char_traits<char>, std::__ndk1::allocator<char> > >, std::__ndk1::monostate>::setListener(geode::EventListenerProtocol*)::{lambda()#1}>, void ()>::destroy_deallocate()
FUNC 1e730 198 0 std::__ndk1::__function::__func<geode::Task<geode::Result<std::__ndk1::__fs::filesystem::path, std::__ndk1::basic_string<char, std::__ndk1::char_traits<char>, std::__ndk1::allocator<char> > >, std::__ndk1::monostate>::setListener(geode::EventListenerProtocol*)::{lambda()#1}, std::__ndk1::allocator<geode::Task<geode::Result<std::__ndk1::__fs::filesystem::path, std::__ndk1::basic_string<char, std::__ndk1::char_traits<char>, std::__ndk1::allocator<char> > >, std::__ndk1::monostate>::setListener(geode::EventListenerProtocol*)::{lambda()#1}>, void ()>::operator()()
FUNC 1e8c8 1c 0 std::__ndk1::__function::__func<geode::Task<geode::Result<std::__ndk1::__fs::filesystem::path, std::__ndk1::basic_string<char, std::__ndk1::char_traits<char>, std::__ndk1::allocator<char> > >, std::__ndk1::monostate>::setListener(geode::EventListenerProtocol*)::{lambda()#1}, std::__ndk1::allocator<geode::Task<geode::Result<std::__ndk1::__fs::filesystem::path, std::__ndk1::basic_string<char, std::__ndk1::char_traits<char>, std::__ndk1::allocator<char> > >, std::__ndk1::monostate>::setListener(geode::EventListenerProtocol*)::{lambda()#1}>, void ()>::target(std::type_info const&) const
FUNC 1e8e4 c 0 std::__ndk1::__function::__func<geode::Task<geode::Result<std::__ndk1::__fs::filesystem::path, std::__ndk1::basic_string<char, std::__ndk1::char_traits<char>, std::__ndk1::allocator<char> > >, std::__ndk1::monostate>::setListener(geode::EventListenerProtocol*)::{lambda()#1}, std::__ndk1::allocator<geode::Task<geode::Result<std::__ndk1::__fs::filesystem::path, std::__ndk1::basic_string<char, std::__ndk1::char_traits<char>, std::__ndk1::allocator<char> > >, std::__ndk1::monostate>::setListener(geode::EventListenerProtocol*)::{lambda()#1}>, void ()>::target_type() const
FUNC 1e8f0 50 0 geode::Task<geode::Result<std::__ndk1::__fs::filesystem::path, std::__ndk1::basic_string<char, std::__ndk1::char_traits<char>, std::__ndk1::allocator<char> > >, std::__ndk1::monostate>::Event::~Event()
FUNC 1e940 58 0 geode::Task<geode::Result<std::__ndk1::__fs::filesystem::path, std::__ndk1::basic_string<char, std::__ndk1::char_traits<char>, std::__ndk1::allocator<char> > >, std::__ndk1::monostate>::Event::~Event()
FUNC 1e998 5c 0 std::__ndk1::__function::__func<geode::Task<geode::Result<std::__ndk1::__fs::filesystem::path, std::__ndk1::basic_string<char, std::__ndk1::char_traits<char>, std::__ndk1::allocator<char> > >, std::__ndk1::monostate>::setListener(geode::EventListenerProtocol*)::{lambda()#2}, std::__ndk1::allocator<geode::Task<geode::Result<std::__ndk1::__fs::filesystem::path, std::__ndk1::basic_string<char, std::__ndk1::char_traits<char>, std::__ndk1::allocator<char> > >, std::__ndk1::monostate>::setListener(geode::EventListenerProtocol*)::{lambda()#2}>, void ()>::~__func()
FUNC 1e9f4 5c 0 std::__ndk1::__function::__func<geode::Task<geode::Result<std::__ndk1::__fs::filesystem::path, std::__ndk1::basic_string<char, std::__ndk1::char_traits<char>, std::__ndk1::allocator<char> > >, std::__ndk1::monostate>::setListener(geode::EventListenerProtocol*)::{lambda()#2}, std::__ndk1::allocator<geode::Task<geode::Result<std::__ndk1::__fs::filesystem::path, std::__ndk1::basic_string<char, std::__ndk1::char_traits<char>, std::__ndk1::allocator<char> > >, std::__ndk1::monostate>::setListener(geode::EventListenerProtocol*)::{lambda()#2}>, void ()>::~__func()
FUNC 1ea50 58 0 std::__ndk1::__function::__func<geode::Task<geode::Result<std::__ndk1::__fs::filesystem::path, std::__ndk1::basic_string<char, std::__ndk1::char_traits<char>, std::__ndk1::allocator<char> > >, std::__ndk1::monostate>::setListener(geode::EventListenerProtocol*)::{lambda()#2}, std::__ndk1::allocator<geode::Task<geode::Result<std::__ndk1::__fs::filesystem::path, std::__ndk1::basic_string<char, std::__ndk1::char_traits<char>, std::__ndk1::allocator<char> > >, std::__ndk1::monostate>::setListener(geode::EventListenerProtocol*)::{lambda()#2}>, void ()>::__clone() const
FUNC 1eaa8 4c 0 std::__ndk1::__function::__func<geode::Task<geode::Result<std::__ndk1::__fs::filesystem::path, std::__ndk1::basic_string<char, std::__ndk1::char_traits<char>, std::__ndk1::allocator<char> > >, std::__ndk1::monostate>::setListener(geode::EventListenerProtocol*)::{lambda()#2}, std::__ndk1::allocator<geode::Task<geode::Result<std::__ndk1::__fs::filesystem::path, std::__ndk1::basic_string<char, std::__ndk1::char_traits<char>, std::__ndk1::allocator<char> > >, std::__ndk1::monostate>::setListener(geode::EventListenerProtocol*)::{lambda()#2}>, void ()>::__clone(std::__ndk1::__function::__base<void ()>*) const
FUNC 1eaf4 50 0 std::__ndk1::__function::__func<geode::Task<geode::Result<std::__ndk1::__fs::filesystem::path, std::__ndk1::basic_string<char, std::__ndk1::char_traits<char>, std::__ndk1::allocator<char> > >, std::__ndk1::monostate>::setListener(geode::EventListenerProtocol*)::{lambda()#2}, std::__ndk1::allocator<geode::Task<geode::Result<std::__ndk1::__fs::filesystem::path, std::__ndk1::basic_string<char, std::__ndk1::char_traits<char>, std::__ndk1::allocator<char> > >, std::__ndk1::monostate>::setListener(geode::EventListenerProtocol*)::{lambda()#2}>, void ()>::destroy()
FUNC 1eb44 50 0 std::__ndk1::__function::__func<geode::Task<geode::Result<std::__ndk1::__fs::filesystem::path, std::__ndk1::basic_string<char, std::__ndk1::char_traits<char>, std::__ndk1::allocator<char> > >, std::__ndk1::monostate>::setListener(geode::EventListenerProtocol*)::{lambda()#2}, std::__ndk1::allocator<geode::Task<geode::Result<std::__ndk1::__fs::filesystem::path, std::__ndk1::basic_string<char, std::__ndk1::char_traits<char>, std::__ndk1::allocator<char> > >, std::__ndk1::monostate>::setListener(geode::EventListenerProtocol*)::{lambda()#2}>, void ()>::destroy_deallocate()
FUNC 1eb94 188 0 std::__ndk1::__function::__func<geode::Task<geode::Result<std::__ndk1::__fs::filesystem::path, std::__ndk1::basic_string<char, std::__ndk1::char_traits<char>, std::__ndk1::allocator<char> > >, std::__ndk1::monostate>::setListener(geode::EventListenerProtocol*)::{lambda()#2}, std::__ndk1::allocator<geode::Task<geode::Result<std::__ndk1::__fs::filesystem::path, std::__ndk1::basic_string<char, std::__ndk1::char_traits<char>, std::__ndk1::allocator<char> > >, std::__ndk1::monostate>::setListener(geode::EventListenerProtocol*)::{lambda()#2}>, void ()>::operator()()
FUNC 1ed1c 1c 0 std::__ndk1::__function::__func<geode::Task<geode::Result<std::__ndk1::__fs::filesystem::path, std::__ndk1::basic_string<char, std::__ndk1::char_traits<char>, std::__ndk1::allocator<char> > >, std::__ndk1::monostate>::setListener(geode::EventListenerProtocol*)::{lambda()#2}, std::__ndk1::allocator<geode::Task<geode::Result<std::__ndk1::__fs::filesystem::path, std::__ndk1::basic_string<char, std::__ndk1::char_traits<char>, std::__ndk1::allocator<char> > >, std::__ndk1::monostate>::setListener(geode::EventListenerProtocol*)::{lambda()#2}>, void ()>::target(std::type_info const&) const
FUNC 1ed38 c 0 std::__ndk1::__function::__func<geode::Task<geode::Result<std::__ndk1::__fs::filesystem::path, std::__ndk1::basic_string<char, std::__ndk1::char_traits<char>, std::__ndk1::allocator<char> > >, std::__ndk1::monostate>::setListener(geode::EventListenerProtocol*)::{lambda()#2}, std::__ndk1::allocator<geode::Task<geode::Result<std::__ndk1::__fs::filesystem::path, std::__ndk1::basic_string<char, std::__ndk1::char_traits<char>, std::__ndk1::allocator<char> > >, std::__ndk1::monostate>::setListener(geode::EventListenerProtocol*)::{lambda()#2}>, void ()>::target_type() const
FUNC 1ed44 dc 0 geode::cast::traverseTypeinfoFor(void*, geode::cast::ClassTypeinfoType const*, char const*)
FUNC 1ee20 34 0 std::__ndk1::__throw_bad_function_call[abi:ne180000]()
FUNC 1ee54 24 0 std::__ndk1::bad_function_call::~bad_function_call()
FUNC 1ee78 12c 0 std::__ndk1::unordered_set<std::__ndk1::basic_string<char, std::__ndk1::char_traits<char>, std::__ndk1::allocator<char> >, std::__ndk1::hash<std::__ndk1::basic_string<char, std::__ndk1::char_traits<char>, std::__ndk1::allocator<char> > >, std::__ndk1::equal_to<std::__ndk1::basic_string<char, std::__ndk1::char_traits<char>, std::__ndk1::allocator<char> > >, std::__ndk1::allocator<std::__ndk1::basic_string<char, std::__ndk1::char_traits<char>, std::__ndk1::allocator<char> > > >::unordered_set(std::__ndk1::unordered_set<std::__ndk1::basic_string<char, std::__ndk1::char_traits<char>, std::__ndk1::allocator<char> >, std::__ndk1::hash<std::__ndk1::basic_string<char, std::__ndk1::char_traits<char>, std::__ndk1::allocator<char> > >, std::__ndk1::equal_to<std::__ndk1::basic_string<char, std::__ndk1::char_traits<char>, std::__ndk1::allocator<char> > >, std::__ndk1::allocator<std::__ndk1::basic_string<char, std::__ndk1::char_traits<char>, std::__ndk1::allocator<char> > > > const&)
FUNC 1efa4 70 0 std::__ndk1::__hash_table<std::__ndk1::basic_string<char, std::__ndk1::char_traits<char>, std::__ndk1::allocator<char> >, std::__ndk1::hash<std::__ndk1::basic_string<char, std::__ndk1::char_traits<char>, std::__ndk1::allocator<char> > >, std::__ndk1::equal_to<std::__ndk1::basic_string<char, std::__ndk1::char_traits<char>, std::__ndk1::allocator<char> > >, std::__ndk1::allocator<std::__ndk1::basic_string<char, std::__ndk1::char_traits<char>, std::__ndk1::allocator<char> > > >::~__hash_table()
FUNC 1f014 15c 0 std::__ndk1::__hash_table<std::__ndk1::basic_string<char, std::__ndk1::char_traits<char>, std::__ndk1::allocator<char> >, std::__ndk1::hash<std::__ndk1::basic_string<char, std::__ndk1::char_traits<char>, std::__ndk1::allocator<char> > >, std::__ndk1::equal_to<std::__ndk1::basic_string<char, std::__ndk1::char_traits<char>, std::__ndk1::allocator<char> > >, std::__ndk1::allocator<std::__ndk1::basic_string<char, std::__ndk1::char_traits<char>, std::__ndk1::allocator<char> > > >::__do_rehash<true>(unsigned long)
FUNC 1f170 7dc 0 std::__ndk1::__hash_table<std::__ndk1::basic_string<char, std::__ndk1::char_traits<char>, std::__ndk1::allocator<char> >, std::__ndk1::hash<std::__ndk1::basic_string<char, std::__ndk1::char_traits<char>, std::__ndk1::allocator<char> > >, std::__ndk1::equal_to<std::__ndk1::basic_string<char, std::__ndk1::char_traits<char>, std::__ndk1::allocator<char> > >, std::__ndk1::allocator<std::__ndk1::basic_string<char, std::__ndk1::char_traits<char>, std::__ndk1::allocator<char> > > >::__emplace_unique_key_args<std::__ndk1::basic_string<char, std::__ndk1::char_traits<char>, std::__ndk1::allocator<char> >, std::__ndk1::basic_string<char, std::__ndk1::char_traits<char>, std::__ndk1::allocator<char> > const&>(std::__ndk1::basic_string<char, std::__ndk1::char_traits<char>, std::__ndk1::allocator<char> > const&, std::__ndk1::basic_string<char, std::__ndk1::char_traits<char>, std::__ndk1::allocator<char> > const&)
FUNC 1f94c 50 0 std::__ndk1::unique_ptr<std::__ndk1::__hash_node<std::__ndk1::basic_string<char, std::__ndk1::char_traits<char>, std::__ndk1::allocator<char> >, void*>, std::__ndk1::__hash_node_destructor<std::__ndk1::allocator<std::__ndk1::__hash_node<std::__ndk1::basic_string<char, std::__ndk1::char_traits<char>, std::__ndk1::allocator<char> >, void*> > > >::~unique_ptr[abi:ne180000]()
FUNC 1f99c 44 0 std::__ndk1::__exception_guard_exceptions<std::__ndk1::vector<geode::utils::file::FilePickOptions::Filter, std::__ndk1::allocator<geode::utils::file::FilePickOptions::Filter> >::__destroy_vector>::~__exception_guard_exceptions[abi:ne180000]()
FUNC 1f9e0 a4 0 std::__ndk1::__exception_guard_exceptions<std::__ndk1::_AllocatorDestroyRangeReverse<std::__ndk1::allocator<geode::utils::file::FilePickOptions::Filter>, geode::utils::file::FilePickOptions::Filter*> >::~__exception_guard_exceptions[abi:ne180000]()
FUNC 1fa84 a4 0 std::__ndk1::vector<geode::utils::file::FilePickOptions::Filter, std::__ndk1::allocator<geode::utils::file::FilePickOptions::Filter> >::__base_destruct_at_end[abi:ne180000](geode::utils::file::FilePickOptions::Filter*)
FUNC 1fb28 168 0 _ZN5geode15UnwrapExceptionC2IRNSt6__ndk112basic_stringIcNS2_11char_traitsIcEENS2_9allocatorIcEEEEQsr4implE18IsStringStreamableIT_EEENS_4impl6ErrTagEOSA_
FUNC 1fc90 4 0 std::__ndk1::__variant_detail::__visitation::__base::__dispatcher<(unsigned long)0>::__dispatch[abi:ne180000]<std::__ndk1::__variant_detail::__dtor<std::__ndk1::__variant_detail::__traits<double, std::__ndk1::basic_string<char, std::__ndk1::char_traits<char>, std::__ndk1::allocator<char> > >, (std::__ndk1::__variant_detail::_Trait)1>::__destroy[abi:ne180000]()::{lambda(auto:1&)#1}, std::__ndk1::__variant_detail::__base<(std::__ndk1::__variant_detail::__traits<double, std::__ndk1::basic_string<char, std::__ndk1::char_traits<char>, std::__ndk1::allocator<char> > >)1, double, std::__ndk1::allocator<char> >&>(std::__ndk1::__variant_detail::__dtor<std::__ndk1::__variant_detail::__traits<double, std::__ndk1::basic_string<char, std::__ndk1::char_traits<char>, std::__ndk1::allocator<char> > >, (std::__ndk1::__variant_detail::_Trait)1>, std::__ndk1::__variant_detail::__base<(std::__ndk1::__variant_detail::__traits<double, std::__ndk1::basic_string<char, std::__ndk1::char_traits<char>, std::__ndk1::allocator<char> > >)1, double, std::__ndk1::allocator<char> >&)
FUNC 1fc94 14 0 std::__ndk1::__variant_detail::__visitation::__base::__dispatcher<(unsigned long)1>::__dispatch[abi:ne180000]<std::__ndk1::__variant_detail::__dtor<std::__ndk1::__variant_detail::__traits<double, std::__ndk1::basic_string<char, std::__ndk1::char_traits<char>, std::__ndk1::allocator<char> > >, (std::__ndk1::__variant_detail::_Trait)1>::__destroy[abi:ne180000]()::{lambda(auto:1&)#1}, std::__ndk1::__variant_detail::__base<(std::__ndk1::__variant_detail::__traits<double, std::__ndk1::basic_string<char, std::__ndk1::char_traits<char>, std::__ndk1::allocator<char> > >)1, double, std::__ndk1::allocator<char> >&>(std::__ndk1::__variant_detail::__dtor<std::__ndk1::__variant_detail::__traits<double, std::__ndk1::basic_string<char, std::__ndk1::char_traits<char>, std::__ndk1::allocator<char> > >, (std::__ndk1::__variant_detail::_Trait)1>, std::__ndk1::__variant_detail::__base<(std::__ndk1::__variant_detail::__traits<double, std::__ndk1::basic_string<char, std::__ndk1::char_traits<char>, std::__ndk1::allocator<char> > >)1, double, std::__ndk1::allocator<char> >&)
FUNC 1fca8 4 0 std::__ndk1::__variant_detail::__visitation::__base::__dispatcher<(unsigned long)0>::__dispatch[abi:ne180000]<std::__ndk1::__variant_detail::__dtor<std::__ndk1::__variant_detail::__traits<float, std::__ndk1::basic_string<char, std::__ndk1::char_traits<char>, std::__ndk1::allocator<char> > >, (std::__ndk1::__variant_detail::_Trait)1>::__destroy[abi:ne180000]()::{lambda(auto:1&)#1}, std::__ndk1::__variant_detail::__base<(std::__ndk1::__variant_detail::__traits<float, std::__ndk1::basic_string<char, std::__ndk1::char_traits<char>, std::__ndk1::allocator<char> > >)1, float, std::__ndk1::allocator<char> >&>(std::__ndk1::__variant_detail::__dtor<std::__ndk1::__variant_detail::__traits<float, std::__ndk1::basic_string<char, std::__ndk1::char_traits<char>, std::__ndk1::allocator<char> > >, (std::__ndk1::__variant_detail::_Trait)1>, std::__ndk1::__variant_detail::__base<(std::__ndk1::__variant_detail::__traits<float, std::__ndk1::basic_string<char, std::__ndk1::char_traits<char>, std::__ndk1::allocator<char> > >)1, float, std::__ndk1::allocator<char> >&)
FUNC 1fcac 14 0 std::__ndk1::__variant_detail::__visitation::__base::__dispatcher<(unsigned long)1>::__dispatch[abi:ne180000]<std::__ndk1::__variant_detail::__dtor<std::__ndk1::__variant_detail::__traits<float, std::__ndk1::basic_string<char, std::__ndk1::char_traits<char>, std::__ndk1::allocator<char> > >, (std::__ndk1::__variant_detail::_Trait)1>::__destroy[abi:ne180000]()::{lambda(auto:1&)#1}, std::__ndk1::__variant_detail::__base<(std::__ndk1::__variant_detail::__traits<float, std::__ndk1::basic_string<char, std::__ndk1::char_traits<char>, std::__ndk1::allocator<char> > >)1, float, std::__ndk1::allocator<char> >&>(std::__ndk1::__variant_detail::__dtor<std::__ndk1::__variant_detail::__traits<float, std::__ndk1::basic_string<char, std::__ndk1::char_traits<char>, std::__ndk1::allocator<char> > >, (std::__ndk1::__variant_detail::_Trait)1>, std::__ndk1::__variant_detail::__base<(std::__ndk1::__variant_detail::__traits<float, std::__ndk1::basic_string<char, std::__ndk1::char_traits<char>, std::__ndk1::allocator<char> > >)1, float, std::__ndk1::allocator<char> >&)
FUNC 1fcc0 4 0 std::__ndk1::__variant_detail::__visitation::__base::__dispatcher<(unsigned long)0>::__dispatch[abi:ne180000]<std::__ndk1::__variant_detail::__dtor<std::__ndk1::__variant_detail::__traits<int, std::__ndk1::basic_string<char, std::__ndk1::char_traits<char>, std::__ndk1::allocator<char> > >, (std::__ndk1::__variant_detail::_Trait)1>::__destroy[abi:ne180000]()::{lambda(auto:1&)#1}, std::__ndk1::__variant_detail::__base<(std::__ndk1::__variant_detail::__traits<int, std::__ndk1::basic_string<char, std::__ndk1::char_traits<char>, std::__ndk1::allocator<char> > >)1, int, std::__ndk1::allocator<char> >&>(std::__ndk1::__variant_detail::__dtor<std::__ndk1::__variant_detail::__traits<int, std::__ndk1::basic_string<char, std::__ndk1::char_traits<char>, std::__ndk1::allocator<char> > >, (std::__ndk1::__variant_detail::_Trait)1>, std::__ndk1::__variant_detail::__base<(std::__ndk1::__variant_detail::__traits<int, std::__ndk1::basic_string<char, std::__ndk1::char_traits<char>, std::__ndk1::allocator<char> > >)1, int, std::__ndk1::allocator<char> >&)
FUNC 1fcc4 14 0 std::__ndk1::__variant_detail::__visitation::__base::__dispatcher<(unsigned long)1>::__dispatch[abi:ne180000]<std::__ndk1::__variant_detail::__dtor<std::__ndk1::__variant_detail::__traits<int, std::__ndk1::basic_string<char, std::__ndk1::char_traits<char>, std::__ndk1::allocator<char> > >, (std::__ndk1::__variant_detail::_Trait)1>::__destroy[abi:ne180000]()::{lambda(auto:1&)#1}, std::__ndk1::__variant_detail::__base<(std::__ndk1::__variant_detail::__traits<int, std::__ndk1::basic_string<char, std::__ndk1::char_traits<char>, std::__ndk1::allocator<char> > >)1, int, std::__ndk1::allocator<char> >&>(std::__ndk1::__variant_detail::__dtor<std::__ndk1::__variant_detail::__traits<int, std::__ndk1::basic_string<char, std::__ndk1::char_traits<char>, std::__ndk1::allocator<char> > >, (std::__ndk1::__variant_detail::_Trait)1>, std::__ndk1::__variant_detail::__base<(std::__ndk1::__variant_detail::__traits<int, std::__ndk1::basic_string<char, std::__ndk1::char_traits<char>, std::__ndk1::allocator<char> > >)1, int, std::__ndk1::allocator<char> >&)
FUNC 1fcd8 2f4 0 geode::Popup<cocos2d::CCArray*>::initBase(float, float, cocos2d::CCArray*, char const*, cocos2d::CCRect, bool)
FUNC 1ffcc 4 0 std::__ndk1::__function::__base<void (geode::Task<geode::Result<std::__ndk1::__fs::filesystem::path, std::__ndk1::basic_string<char, std::__ndk1::char_traits<char>, std::__ndk1::allocator<char> > >, std::__ndk1::monostate>::Event*)>::~__base()
FUNC 1ffd0 4 0 std::__ndk1::__function::__func<ImportPopup::importJSON(cocos2d::CCObject*)::$_0, std::__ndk1::allocator<ImportPopup::importJSON(cocos2d::CCObject*)::$_0>, void (geode::Task<geode::Result<std::__ndk1::__fs::filesystem::path, std::__ndk1::basic_string<char, std::__ndk1::char_traits<char>, std::__ndk1::allocator<char> > >, std::__ndk1::monostate>::Event*)>::~__func()
FUNC 1ffd4 34 0 std::__ndk1::__function::__func<ImportPopup::importJSON(cocos2d::CCObject*)::$_0, std::__ndk1::allocator<ImportPopup::importJSON(cocos2d::CCObject*)::$_0>, void (geode::Task<geode::Result<std::__ndk1::__fs::filesystem::path, std::__ndk1::basic_string<char, std::__ndk1::char_traits<char>, std::__ndk1::allocator<char> > >, std::__ndk1::monostate>::Event*)>::__clone() const
FUNC 20008 14 0 std::__ndk1::__function::__func<ImportPopup::importJSON(cocos2d::CCObject*)::$_0, std::__ndk1::allocator<ImportPopup::importJSON(cocos2d::CCObject*)::$_0>, void (geode::Task<geode::Result<std::__ndk1::__fs::filesystem::path, std::__ndk1::basic_string<char, std::__ndk1::char_traits<char>, std::__ndk1::allocator<char> > >, std::__ndk1::monostate>::Event*)>::__clone(std::__ndk1::__function::__base<void (geode::Task<geode::Result<std::__ndk1::__fs::filesystem::path, std::__ndk1::basic_string<char, std::__ndk1::char_traits<char>, std::__ndk1::allocator<char> > >, std::__ndk1::monostate>::Event*)>*) const
FUNC 2001c 4 0 std::__ndk1::__function::__func<ImportPopup::importJSON(cocos2d::CCObject*)::$_0, std::__ndk1::allocator<ImportPopup::importJSON(cocos2d::CCObject*)::$_0>, void (geode::Task<geode::Result<std::__ndk1::__fs::filesystem::path, std::__ndk1::basic_string<char, std::__ndk1::char_traits<char>, std::__ndk1::allocator<char> > >, std::__ndk1::monostate>::Event*)>::destroy()
FUNC 20020 4 0 std::__ndk1::__function::__func<ImportPopup::importJSON(cocos2d::CCObject*)::$_0, std::__ndk1::allocator<ImportPopup::importJSON(cocos2d::CCObject*)::$_0>, void (geode::Task<geode::Result<std::__ndk1::__fs::filesystem::path, std::__ndk1::basic_string<char, std::__ndk1::char_traits<char>, std::__ndk1::allocator<char> > >, std::__ndk1::monostate>::Event*)>::destroy_deallocate()
FUNC 20024 da0 0 std::__ndk1::__function::__func<ImportPopup::importJSON(cocos2d::CCObject*)::$_0, std::__ndk1::allocator<ImportPopup::importJSON(cocos2d::CCObject*)::$_0>, void (geode::Task<geode::Result<std::__ndk1::__fs::filesystem::path, std::__ndk1::basic_string<char, std::__ndk1::char_traits<char>, std::__ndk1::allocator<char> > >, std::__ndk1::monostate>::Event*)>::operator()(geode::Task<geode::Result<std::__ndk1::__fs::filesystem::path, std::__ndk1::basic_string<char, std::__ndk1::char_traits<char>, std::__ndk1::allocator<char> > >, std::__ndk1::monostate>::Event*&&)
FUNC 20dc4 1c 0 std::__ndk1::__function::__func<ImportPopup::importJSON(cocos2d::CCObject*)::$_0, std::__ndk1::allocator<ImportPopup::importJSON(cocos2d::CCObject*)::$_0>, void (geode::Task<geode::Result<std::__ndk1::__fs::filesystem::path, std::__ndk1::basic_string<char, std::__ndk1::char_traits<char>, std::__ndk1::allocator<char> > >, std::__ndk1::monostate>::Event*)>::target(std::type_info const&) const
FUNC 20de0 c 0 std::__ndk1::__function::__func<ImportPopup::importJSON(cocos2d::CCObject*)::$_0, std::__ndk1::allocator<ImportPopup::importJSON(cocos2d::CCObject*)::$_0>, void (geode::Task<geode::Result<std::__ndk1::__fs::filesystem::path, std::__ndk1::basic_string<char, std::__ndk1::char_traits<char>, std::__ndk1::allocator<char> > >, std::__ndk1::monostate>::Event*)>::target_type() const
FUNC 20dec 7c 0 geode::impl::ResultData<std::__ndk1::vector<matjson::Value, std::__ndk1::allocator<matjson::Value> >&, std::__ndk1::basic_string<char, std::__ndk1::char_traits<char>, std::__ndk1::allocator<char> > >::unwrap() &
FUNC 20e68 68 0 std::__ndk1::vector<matjson::Value, std::__ndk1::allocator<matjson::Value> >::~vector[abi:ne180000]()
FUNC 20ed0 74 0 geode::impl::ResultData<std::__ndk1::vector<matjson::Value, std::__ndk1::allocator<matjson::Value> >&, std::__ndk1::basic_string<char, std::__ndk1::char_traits<char>, std::__ndk1::allocator<char> > >::~ResultData()
FUNC 20f44 74 0 geode::impl::ResultData<long, std::__ndk1::basic_string<char, std::__ndk1::char_traits<char>, std::__ndk1::allocator<char> > >::~ResultData()
FUNC 20fb8 74 0 geode::impl::ResultData<matjson::Value, matjson::ParseError>::~ResultData()
FUNC 2102c 1ec 0 fmt::v11::detail::value<fmt::v11::context>::format_custom_arg<std::__ndk1::optional<std::__ndk1::basic_string<char, std::__ndk1::char_traits<char>, std::__ndk1::allocator<char> > >, fmt::v11::formatter<std::__ndk1::optional<std::__ndk1::basic_string<char, std::__ndk1::char_traits<char>, std::__ndk1::allocator<char> > >, char, void> >(void*, fmt::v11::basic_format_parse_context<char>&, fmt::v11::context&)
FUNC 21218 4a4 0 fmt::v11::detail::parse_format_specs<char>(char const*, char const*, fmt::v11::detail::dynamic_format_specs<char>&, fmt::v11::basic_format_parse_context<char>&, fmt::v11::detail::type)
FUNC 216bc 1a4 0 fmt::v11::detail::parse_dynamic_spec<char>(char const*, char const*, int&, fmt::v11::detail::arg_ref<char>&, fmt::v11::basic_format_parse_context<char>&)
FUNC 21860 17c 0 fmt::v11::detail::do_parse_arg_id<char, fmt::v11::detail::dynamic_spec_id_handler<char>&>(char const*, char const*, fmt::v11::detail::dynamic_spec_id_handler<char>&)
FUNC 219dc 150 0 fmt::v11::detail::copy_noinline<char, char const*, fmt::v11::basic_appender<char> >(char const*, char const*, fmt::v11::basic_appender<char>)
FUNC 21b2c 114 0 fmt::v11::detail::handle_dynamic_spec<fmt::v11::detail::width_checker, fmt::v11::context>(int&, fmt::v11::detail::arg_ref<fmt::v11::context::char_type>, fmt::v11::context&)
FUNC 21c40 114 0 fmt::v11::detail::handle_dynamic_spec<fmt::v11::detail::precision_checker, fmt::v11::context>(int&, fmt::v11::detail::arg_ref<fmt::v11::context::char_type>, fmt::v11::context&)
FUNC 21d54 27c 0 fmt::v11::detail::write<char, fmt::v11::basic_appender<char> >(fmt::v11::basic_appender<char>, fmt::v11::basic_string_view<char>, fmt::v11::format_specs const&)
FUNC 21fd0 200 0 fmt::v11::detail::write_escaped_string<char, fmt::v11::detail::counting_iterator>(fmt::v11::detail::counting_iterator, fmt::v11::basic_string_view<char>)
FUNC 221d0 20c 0 fmt::v11::detail::write_padded<char, (fmt::v11::align::type)1, fmt::v11::basic_appender<char>, fmt::v11::detail::write<char, fmt::v11::basic_appender<char> >(fmt::v11::basic_appender<char>, fmt::v11::basic_string_view<char>, fmt::v11::format_specs const&)::{lambda(fmt::v11::basic_appender<char>)#1}>(fmt::v11::basic_appender<char>, fmt::v11::format_specs const&, unsigned long, unsigned long, fmt::v11::detail::write<char, fmt::v11::basic_appender<char> >(fmt::v11::basic_appender<char>, fmt::v11::basic_string_view<char>, fmt::v11::format_specs const&)::{lambda(fmt::v11::basic_appender<char>&&)#1})
FUNC 223dc 3ac 0 fmt::v11::detail::for_each_codepoint<fmt::v11::detail::code_point_index(fmt::v11::basic_string_view<char>, unsigned long)::{lambda(unsigned int, fmt::v11::basic_string_view<char>)#1}>(fmt::v11::basic_string_view<char>, fmt::v11::detail::code_point_index(fmt::v11::basic_string_view<char>, unsigned long)::{lambda(unsigned int, fmt::v11::basic_string_view<char>)#1})
FUNC 22788 194 0 fmt::v11::detail::write_escaped_cp<fmt::v11::detail::counting_iterator, char>(fmt::v11::detail::counting_iterator, fmt::v11::detail::find_escape_result<char> const&)
FUNC 2291c 17c 0 fmt::v11::detail::for_each_codepoint<fmt::v11::detail::find_escape(char const*, char const*)::{lambda(unsigned int, fmt::v11::basic_string_view<char>)#1}>(fmt::v11::basic_string_view<char>, fmt::v11::detail::find_escape(char const*, char const*)::{lambda(unsigned int, fmt::v11::basic_string_view<char>)#1})::{lambda(char const*, char const*)#1}::operator()(char const*, char const*) const
FUNC 22a98 1b8 0 fmt::v11::detail::for_each_codepoint<fmt::v11::detail::compute_width(fmt::v11::basic_string_view<char>)::count_code_points>(fmt::v11::basic_string_view<char>, fmt::v11::detail::compute_width(fmt::v11::basic_string_view<char>)::count_code_points)::{lambda(char const*, char const*)#1}::operator()(char const*, char const*) const
FUNC 22c50 1d0 0 fmt::v11::detail::fill<char, fmt::v11::basic_appender<char> >(fmt::v11::basic_appender<char>, unsigned long, fmt::v11::detail::fill_t const&)
FUNC 22e20 380 0 fmt::v11::detail::write_escaped_string<char, fmt::v11::basic_appender<char> >(fmt::v11::basic_appender<char>, fmt::v11::basic_string_view<char>)
FUNC 231a0 1e4 0 fmt::v11::detail::write_escaped_cp<fmt::v11::basic_appender<char>, char>(fmt::v11::basic_appender<char>, fmt::v11::detail::find_escape_result<char> const&)
FUNC 23384 178 0 fmt::v11::detail::write_codepoint<(unsigned long)2, char, fmt::v11::basic_appender<char> >(fmt::v11::basic_appender<char>, char, unsigned int)
FUNC 234fc 178 0 fmt::v11::detail::write_codepoint<(unsigned long)4, char, fmt::v11::basic_appender<char> >(fmt::v11::basic_appender<char>, char, unsigned int)
FUNC 23674 178 0 fmt::v11::detail::write_codepoint<(unsigned long)8, char, fmt::v11::basic_appender<char> >(fmt::v11::basic_appender<char>, char, unsigned int)
FUNC 237ec 94 0 fmt::v11::detail::get_dynamic_spec<fmt::v11::detail::width_checker, fmt::v11::basic_format_arg<fmt::v11::context> >(fmt::v11::basic_format_arg<fmt::v11::context>)
FUNC 23880 158 0 fmt::v11::basic_format_args<fmt::v11::context>::get<char>(fmt::v11::basic_string_view<char>) const
FUNC 239d8 94 0 fmt::v11::detail::get_dynamic_spec<fmt::v11::detail::precision_checker, fmt::v11::basic_format_arg<fmt::v11::context> >(fmt::v11::basic_format_arg<fmt::v11::context>)
FUNC 23a6c 118 0 std::__ndk1::vector<matjson::Value, std::__ndk1::allocator<matjson::Value> >::__init_with_size[abi:ne180000]<matjson::Value*, std::__ndk1::vector<matjson::Value, std::__ndk1::allocator<matjson::Value> >::__init_with_size[abi:ne180000]>(matjson::Value*, std::__ndk1::vector<matjson::Value, std::__ndk1::allocator<matjson::Value> >::__init_with_size[abi:ne180000], unsigned long)
FUNC 23b84 7c 0 std::__ndk1::__exception_guard_exceptions<std::__ndk1::vector<matjson::Value, std::__ndk1::allocator<matjson::Value> >::__destroy_vector>::~__exception_guard_exceptions[abi:ne180000]()
FUNC 23c00 14 0 std::__ndk1::vector<matjson::Value, std::__ndk1::allocator<matjson::Value> >::__throw_length_error[abi:ne180000]() const
FUNC 23c14 4 0 std::__ndk1::__variant_detail::__visitation::__base::__dispatcher<(unsigned long)0>::__dispatch[abi:ne180000]<std::__ndk1::__variant_detail::__dtor<std::__ndk1::__variant_detail::__traits<std::__ndk1::reference_wrapper<std::__ndk1::vector<matjson::Value, std::__ndk1::allocator<matjson> > >, std::__ndk1::basic_string<char, std::__ndk1::char_traits<char>, matjson::Value<char> > >, (std::__ndk1::__variant_detail::_Trait)1>::__destroy[abi:ne180000]()::{lambda(auto:1&)#1}, std::__ndk1::__variant_detail::__base<(std::__ndk1::__variant_detail::__traits<std::__ndk1::reference_wrapper<std::__ndk1::vector<matjson::Value, std::__ndk1::allocator<matjson> > >, std::__ndk1::basic_string<char, std::__ndk1::char_traits<char>, matjson::Value<char> > >)1, std::__ndk1::vector<matjson::Value, std::__ndk1::allocator<matjson> >, matjson::Value<char> >&>(std::__ndk1::__variant_detail::__dtor<std::__ndk1::__variant_detail::__traits<std::__ndk1::reference_wrapper<std::__ndk1::vector<matjson::Value, std::__ndk1::allocator<matjson> > >, std::__ndk1::basic_string<char, std::__ndk1::char_traits<char>, matjson::Value<char> > >, (std::__ndk1::__variant_detail::_Trait)1>, std::__ndk1::__variant_detail::__base<(std::__ndk1::__variant_detail::__traits<std::__ndk1::reference_wrapper<std::__ndk1::vector<matjson::Value, std::__ndk1::allocator<matjson> > >, std::__ndk1::basic_string<char, std::__ndk1::char_traits<char>, matjson::Value<char> > >)1, std::__ndk1::vector<matjson::Value, std::__ndk1::allocator<matjson> >, matjson::Value<char> >&)
FUNC 23c18 14 0 std::__ndk1::__variant_detail::__visitation::__base::__dispatcher<(unsigned long)1>::__dispatch[abi:ne180000]<std::__ndk1::__variant_detail::__dtor<std::__ndk1::__variant_detail::__traits<std::__ndk1::reference_wrapper<std::__ndk1::vector<matjson::Value, std::__ndk1::allocator<matjson> > >, std::__ndk1::basic_string<char, std::__ndk1::char_traits<char>, matjson::Value<char> > >, (std::__ndk1::__variant_detail::_Trait)1>::__destroy[abi:ne180000]()::{lambda(auto:1&)#1}, std::__ndk1::__variant_detail::__base<(std::__ndk1::__variant_detail::__traits<std::__ndk1::reference_wrapper<std::__ndk1::vector<matjson::Value, std::__ndk1::allocator<matjson> > >, std::__ndk1::basic_string<char, std::__ndk1::char_traits<char>, matjson::Value<char> > >)1, std::__ndk1::vector<matjson::Value, std::__ndk1::allocator<matjson> >, matjson::Value<char> >&>(std::__ndk1::__variant_detail::__dtor<std::__ndk1::__variant_detail::__traits<std::__ndk1::reference_wrapper<std::__ndk1::vector<matjson::Value, std::__ndk1::allocator<matjson> > >, std::__ndk1::basic_string<char, std::__ndk1::char_traits<char>, matjson::Value<char> > >, (std::__ndk1::__variant_detail::_Trait)1>, std::__ndk1::__variant_detail::__base<(std::__ndk1::__variant_detail::__traits<std::__ndk1::reference_wrapper<std::__ndk1::vector<matjson::Value, std::__ndk1::allocator<matjson> > >, std::__ndk1::basic_string<char, std::__ndk1::char_traits<char>, matjson::Value<char> > >)1, std::__ndk1::vector<matjson::Value, std::__ndk1::allocator<matjson> >, matjson::Value<char> >&)
FUNC 23c2c 4 0 std::__ndk1::__variant_detail::__visitation::__base::__dispatcher<(unsigned long)0>::__dispatch[abi:ne180000]<std::__ndk1::__variant_detail::__dtor<std::__ndk1::__variant_detail::__traits<long, std::__ndk1::basic_string<char, std::__ndk1::char_traits<char>, std::__ndk1::allocator<char> > >, (std::__ndk1::__variant_detail::_Trait)1>::__destroy[abi:ne180000]()::{lambda(auto:1&)#1}, std::__ndk1::__variant_detail::__base<(std::__ndk1::__variant_detail::__traits<long, std::__ndk1::basic_string<char, std::__ndk1::char_traits<char>, std::__ndk1::allocator<char> > >)1, long, std::__ndk1::allocator<char> >&>(std::__ndk1::__variant_detail::__dtor<std::__ndk1::__variant_detail::__traits<long, std::__ndk1::basic_string<char, std::__ndk1::char_traits<char>, std::__ndk1::allocator<char> > >, (std::__ndk1::__variant_detail::_Trait)1>, std::__ndk1::__variant_detail::__base<(std::__ndk1::__variant_detail::__traits<long, std::__ndk1::basic_string<char, std::__ndk1::char_traits<char>, std::__ndk1::allocator<char> > >)1, long, std::__ndk1::allocator<char> >&)
FUNC 23c30 14 0 std::__ndk1::__variant_detail::__visitation::__base::__dispatcher<(unsigned long)1>::__dispatch[abi:ne180000]<std::__ndk1::__variant_detail::__dtor<std::__ndk1::__variant_detail::__traits<long, std::__ndk1::basic_string<char, std::__ndk1::char_traits<char>, std::__ndk1::allocator<char> > >, (std::__ndk1::__variant_detail::_Trait)1>::__destroy[abi:ne180000]()::{lambda(auto:1&)#1}, std::__ndk1::__variant_detail::__base<(std::__ndk1::__variant_detail::__traits<long, std::__ndk1::basic_string<char, std::__ndk1::char_traits<char>, std::__ndk1::allocator<char> > >)1, long, std::__ndk1::allocator<char> >&>(std::__ndk1::__variant_detail::__dtor<std::__ndk1::__variant_detail::__traits<long, std::__ndk1::basic_string<char, std::__ndk1::char_traits<char>, std::__ndk1::allocator<char> > >, (std::__ndk1::__variant_detail::_Trait)1>, std::__ndk1::__variant_detail::__base<(std::__ndk1::__variant_detail::__traits<long, std::__ndk1::basic_string<char, std::__ndk1::char_traits<char>, std::__ndk1::allocator<char> > >)1, long, std::__ndk1::allocator<char> >&)
FUNC 23c44 c00 0 fmt::v11::detail::value<fmt::v11::context>::format_custom_arg<std::__ndk1::__fs::filesystem::path, fmt::v11::formatter<std::__ndk1::__fs::filesystem::path, char, void> >(void*, fmt::v11::basic_format_parse_context<char>&, fmt::v11::context&)
FUNC 24844 78 0 fmt::v11::basic_memory_buffer<char, (unsigned long)500, std::__ndk1::allocator<char> >::grow(fmt::v11::detail::buffer<char>&, unsigned long)
FUNC 248bc 178 0 fmt::v11::detail::write_codepoint<(unsigned long)2, char, std::__ndk1::back_insert_iterator<fmt::v11::basic_memory_buffer<char, (unsigned long)500, std::__ndk1::allocator<char> > > >(std::__ndk1::back_insert_iterator<fmt::v11::basic_memory_buffer<char, (unsigned long)500, std::__ndk1::allocator<char> > >, char, unsigned int)
FUNC 24a34 8 0 std::__ndk1::__variant_detail::__visitation::__base::__dispatcher<(unsigned long)0>::__dispatch[abi:ne180000]<std::__ndk1::__variant_detail::__dtor<std::__ndk1::__variant_detail::__traits<matjson::Value, std::__ndk1::__variant_detail::__traits::ParseError>, (std::__ndk1::__variant_detail::_Trait)1>::__destroy[abi:ne180000]()::{lambda(auto:1&)#1}, std::__ndk1::__variant_detail::__base<(std::__ndk1::__variant_detail::__traits<matjson::Value, std::__ndk1::__variant_detail::__traits::ParseError>)1, matjson, matjson::Value>&>(std::__ndk1::__variant_detail::__dtor<std::__ndk1::__variant_detail::__traits<matjson::Value, std::__ndk1::__variant_detail::__traits::ParseError>, (std::__ndk1::__variant_detail::_Trait)1>, std::__ndk1::__variant_detail::__base<(std::__ndk1::__variant_detail::__traits<matjson::Value, std::__ndk1::__variant_detail::__traits::ParseError>)1, matjson, matjson::Value>&)
FUNC 24a3c 14 0 std::__ndk1::__variant_detail::__visitation::__base::__dispatcher<(unsigned long)1>::__dispatch[abi:ne180000]<std::__ndk1::__variant_detail::__dtor<std::__ndk1::__variant_detail::__traits<matjson::Value, std::__ndk1::__variant_detail::__traits::ParseError>, (std::__ndk1::__variant_detail::_Trait)1>::__destroy[abi:ne180000]()::{lambda(auto:1&)#1}, std::__ndk1::__variant_detail::__base<(std::__ndk1::__variant_detail::__traits<matjson::Value, std::__ndk1::__variant_detail::__traits::ParseError>)1, matjson, matjson::Value>&>(std::__ndk1::__variant_detail::__dtor<std::__ndk1::__variant_detail::__traits<matjson::Value, std::__ndk1::__variant_detail::__traits::ParseError>, (std::__ndk1::__variant_detail::_Trait)1>, std::__ndk1::__variant_detail::__base<(std::__ndk1::__variant_detail::__traits<matjson::Value, std::__ndk1::__variant_detail::__traits::ParseError>)1, matjson, matjson::Value>&)
FUNC 24a50 50 0 geode::Popup<cocos2d::CCArray*>::CloseEvent::~CloseEvent()
FUNC 24aa0 58 0 geode::Popup<cocos2d::CCArray*>::CloseEvent::~CloseEvent()
FUNC 24af8 10 0 std::__ndk1::__shared_ptr_emplace<geode::Popup<cocos2d::CCArray*>::CloseEvent::Impl, std::__ndk1::allocator<geode::Popup<cocos2d::CCArray*>::CloseEvent::Impl> >::~__shared_ptr_emplace()
FUNC 24b08 30 0 std::__ndk1::__shared_ptr_emplace<geode::Popup<cocos2d::CCArray*>::CloseEvent::Impl, std::__ndk1::allocator<geode::Popup<cocos2d::CCArray*>::CloseEvent::Impl> >::~__shared_ptr_emplace()
FUNC 24b38 4 0 std::__ndk1::__shared_ptr_emplace<geode::Popup<cocos2d::CCArray*>::CloseEvent::Impl, std::__ndk1::allocator<geode::Popup<cocos2d::CCArray*>::CloseEvent::Impl> >::__on_zero_shared()
FUNC 24b3c 4 0 std::__ndk1::__shared_ptr_emplace<geode::Popup<cocos2d::CCArray*>::CloseEvent::Impl, std::__ndk1::allocator<geode::Popup<cocos2d::CCArray*>::CloseEvent::Impl> >::__on_zero_shared_weak()
FUNC 24b40 4 0 std::__ndk1::__function::__base<void (FLAlertLayer*, bool)>::~__base()
FUNC 24b44 4 0 std::__ndk1::__function::__func<ImportPopup::checkAlert(cocos2d::CCObject*)::$_0, std::__ndk1::allocator<ImportPopup::checkAlert(cocos2d::CCObject*)::$_0>, void (FLAlertLayer*, bool)>::~__func()
FUNC 24b48 34 0 std::__ndk1::__function::__func<ImportPopup::checkAlert(cocos2d::CCObject*)::$_0, std::__ndk1::allocator<ImportPopup::checkAlert(cocos2d::CCObject*)::$_0>, void (FLAlertLayer*, bool)>::__clone() const
FUNC 24b7c 14 0 std::__ndk1::__function::__func<ImportPopup::checkAlert(cocos2d::CCObject*)::$_0, std::__ndk1::allocator<ImportPopup::checkAlert(cocos2d::CCObject*)::$_0>, void (FLAlertLayer*, bool)>::__clone(std::__ndk1::__function::__base<void (FLAlertLayer*, bool)>*) const
FUNC 24b90 4 0 std::__ndk1::__function::__func<ImportPopup::checkAlert(cocos2d::CCObject*)::$_0, std::__ndk1::allocator<ImportPopup::checkAlert(cocos2d::CCObject*)::$_0>, void (FLAlertLayer*, bool)>::destroy()
FUNC 24b94 4 0 std::__ndk1::__function::__func<ImportPopup::checkAlert(cocos2d::CCObject*)::$_0, std::__ndk1::allocator<ImportPopup::checkAlert(cocos2d::CCObject*)::$_0>, void (FLAlertLayer*, bool)>::destroy_deallocate()
FUNC 24b98 14 0 std::__ndk1::__function::__func<ImportPopup::checkAlert(cocos2d::CCObject*)::$_0, std::__ndk1::allocator<ImportPopup::checkAlert(cocos2d::CCObject*)::$_0>, void (FLAlertLayer*, bool)>::operator()(FLAlertLayer*&&, bool&&)
FUNC 24bac 1c 0 std::__ndk1::__function::__func<ImportPopup::checkAlert(cocos2d::CCObject*)::$_0, std::__ndk1::allocator<ImportPopup::checkAlert(cocos2d::CCObject*)::$_0>, void (FLAlertLayer*, bool)>::target(std::type_info const&) const
FUNC 24bc8 c 0 std::__ndk1::__function::__func<ImportPopup::checkAlert(cocos2d::CCObject*)::$_0, std::__ndk1::allocator<ImportPopup::checkAlert(cocos2d::CCObject*)::$_0>, void (FLAlertLayer*, bool)>::target_type() const
FUNC 24bd4 30 0 geodeImplicitEntry
FUNC 24c04 4c 0 std::__ndk1::unordered_map<void*, bool, std::__ndk1::hash<void*>, std::__ndk1::equal_to<void*>, std::__ndk1::allocator<std::__ndk1::pair<void* const, bool> > >::~unordered_map[abi:ne180000]()
FUNC 24c50 134 0 wrapFunction(unsigned long, tulip::hook::WrapperMetadata const&)
FUNC 24d84 78 0 geode::impl::ResultData<void*, std::__ndk1::basic_string<char, std::__ndk1::char_traits<char>, std::__ndk1::allocator<char> > >::unwrapErr() &
FUNC 24dfc 74 0 geode::impl::ResultData<void*, std::__ndk1::basic_string<char, std::__ndk1::char_traits<char>, std::__ndk1::allocator<char> > >::~ResultData()
FUNC 24e70 64 0 tulip::hook::WrapperMetadata::~WrapperMetadata()
FUNC 24ed4 218 0 cocos2d::CCObject::CCObject()
FUNC 250ec 24 0 cocos2d::CCObject::~CCObject()
FUNC 25110 24 0 cocos2d::CCNode::~CCNode()
FUNC 25134 8 0 {virtual override thunk({offset(-320)}, cocos2d::CCLayer::~CCLayer())}
FUNC 2513c 24 0 cocos2d::CCLayer::~CCLayer()
FUNC 25160 28 0 {virtual override thunk({offset(-320)}, cocos2d::CCLayer::~CCLayer())}
FUNC 25188 2f0 0 cocos2d::CCLayerRGBA::~CCLayerRGBA()
FUNC 25478 8 0 {virtual override thunk({offset(-320)}, cocos2d::CCLayerRGBA::~CCLayerRGBA())}
FUNC 25480 24 0 cocos2d::CCLayerRGBA::~CCLayerRGBA()
FUNC 254a4 28 0 {virtual override thunk({offset(-320)}, cocos2d::CCLayerRGBA::~CCLayerRGBA())}
FUNC 254cc 260 0 cocos2d::CCLayerColor::CCLayerColor()
FUNC 2572c 8 0 {virtual override thunk({offset(-320)}, cocos2d::CCLayerColor::~CCLayerColor())}
FUNC 25734 24 0 cocos2d::CCLayerColor::~CCLayerColor()
FUNC 25758 28 0 {virtual override thunk({offset(-320)}, cocos2d::CCLayerColor::~CCLayerColor())}
FUNC 25780 8 0 {virtual override thunk({offset(-320)}, FLAlertLayer::~FLAlertLayer())}
FUNC 25788 24 0 FLAlertLayer::~FLAlertLayer()
FUNC 257ac 28 0 {virtual override thunk({offset(-320)}, FLAlertLayer::~FLAlertLayer())}
FUNC 257d4 1b8 0 FLAlertLayer::create(FLAlertLayerProtocol*, char const*, gd::string, char const*, char const*, float)
FUNC 2598c 148 0 tulip::hook::AbstractFunction::from<FLAlertLayer*, FLAlertLayerProtocol*, char const*, gd::string, char const*, char const*, float>(FLAlertLayer* (*)(FLAlertLayerProtocol*, char const*, gd::string, char const*, char const*, float))
FUNC 25ad4 4 0 TextInputDelegate::textInputOpened(CCTextInputNode*)
FUNC 25ad8 4 0 TextInputDelegate::textInputClosed(CCTextInputNode*)
FUNC 25adc 4 0 TextInputDelegate::textInputShouldOffset(CCTextInputNode*, float)
FUNC 25ae0 4 0 TextInputDelegate::textInputReturn(CCTextInputNode*)
FUNC 25ae4 8 0 TextInputDelegate::allowTextInput(CCTextInputNode*)
FUNC 25aec 4 0 TextInputDelegate::enterPressed(CCTextInputNode*)
FUNC 25af0 168 0 LevelEditorLayer::createObjectsFromString(gd::string const&, bool, bool)
FUNC 25c58 fc 0 tulip::hook::AbstractFunction::from<cocos2d::CCArray*, LevelEditorLayer*, gd::string const&, bool, bool>(cocos2d::CCArray* (*)(LevelEditorLayer*, gd::string const&, bool, bool))
FUNC 25d54 48 0 UndoObject::~UndoObject()
FUNC 25d9c 50 0 UndoObject::~UndoObject()
FUNC 25dec 98 0 UndoObject::createWithArray(cocos2d::CCArray*, UndoCommand)
FUNC 25e84 4 0 cocos2d::CCObject::update(float)
FUNC 25e88 2d4 0 cocos2d::CCLayerColor::~CCLayerColor()
FUNC 2615c 2d4 0 FLAlertLayer::~FLAlertLayer()
FUNC 26430 290 0 cocos2d::CCNode::~CCNode()
FUNC 266c0 2e0 0 cocos2d::CCLayer::~CCLayer()
FUNC 269a0 4ac 0 cocos2d::CCObject::~CCObject()
FUNC 26e4c 154 0 _ZN5geode15UnwrapExceptionC2IRPvQsr4implE18IsStringStreamableIT_EEENS_4impl5OkTagEOS4_
FUNC 26fa0 4 0 std::__ndk1::__variant_detail::__visitation::__base::__dispatcher<(unsigned long)0>::__dispatch[abi:ne180000]<std::__ndk1::__variant_detail::__dtor<std::__ndk1::__variant_detail::__traits<void*, std::__ndk1::basic_string<char, std::__ndk1::char_traits<char>, std::__ndk1::allocator<char> > >, (std::__ndk1::__variant_detail::_Trait)1>::__destroy[abi:ne180000]()::{lambda(auto:1&)#1}, std::__ndk1::__variant_detail::__base<(std::__ndk1::__variant_detail::__traits<void*, std::__ndk1::basic_string<char, std::__ndk1::char_traits<char>, std::__ndk1::allocator<char> > >)1, std::__ndk1::__variant_detail::__traits, std::__ndk1::allocator<char> >&>(std::__ndk1::__variant_detail::__dtor<std::__ndk1::__variant_detail::__traits<void*, std::__ndk1::basic_string<char, std::__ndk1::char_traits<char>, std::__ndk1::allocator<char> > >, (std::__ndk1::__variant_detail::_Trait)1>, std::__ndk1::__variant_detail::__base<(std::__ndk1::__variant_detail::__traits<void*, std::__ndk1::basic_string<char, std::__ndk1::char_traits<char>, std::__ndk1::allocator<char> > >)1, std::__ndk1::__variant_detail::__traits, std::__ndk1::allocator<char> >&)
FUNC 26fa4 14 0 std::__ndk1::__variant_detail::__visitation::__base::__dispatcher<(unsigned long)1>::__dispatch[abi:ne180000]<std::__ndk1::__variant_detail::__dtor<std::__ndk1::__variant_detail::__traits<void*, std::__ndk1::basic_string<char, std::__ndk1::char_traits<char>, std::__ndk1::allocator<char> > >, (std::__ndk1::__variant_detail::_Trait)1>::__destroy[abi:ne180000]()::{lambda(auto:1&)#1}, std::__ndk1::__variant_detail::__base<(std::__ndk1::__variant_detail::__traits<void*, std::__ndk1::basic_string<char, std::__ndk1::char_traits<char>, std::__ndk1::allocator<char> > >)1, std::__ndk1::__variant_detail::__traits, std::__ndk1::allocator<char> >&>(std::__ndk1::__variant_detail::__dtor<std::__ndk1::__variant_detail::__traits<void*, std::__ndk1::basic_string<char, std::__ndk1::char_traits<char>, std::__ndk1::allocator<char> > >, (std::__ndk1::__variant_detail::_Trait)1>, std::__ndk1::__variant_detail::__base<(std::__ndk1::__variant_detail::__traits<void*, std::__ndk1::basic_string<char, std::__ndk1::char_traits<char>, std::__ndk1::allocator<char> > >)1, std::__ndk1::__variant_detail::__traits, std::__ndk1::allocator<char> >&)
FUNC 26fb8 430 0 std::__ndk1::__hash_table<std::__ndk1::__hash_value_type<void*, bool>, std::__ndk1::__unordered_map_hasher<void*, std::__ndk1::__hash_value_type<void*, bool>, std::__ndk1::hash<void*>, std::__ndk1::equal_to<void*>, true>, std::__ndk1::__unordered_map_equal<void*, std::__ndk1::__hash_value_type<void*, bool>, std::__ndk1::equal_to<void*>, std::__ndk1::hash<void*>, true>, std::__ndk1::allocator<std::__ndk1::__hash_value_type<void*, bool> > >::__emplace_unique_key_args<void*, std::__ndk1::piecewise_construct_t const&, std::__ndk1::tuple<void* const&>, std::__ndk1::tuple<> >(void* const&, std::__ndk1::piecewise_construct_t const&, std::__ndk1::tuple<void* const&>, std::__ndk1::tuple<>)
PUBLIC 273e8 0 __udivti3
PUBLIC 273f4 0 __udivmodti4
PUBLIC m 27640 0 __eqtf2
PUBLIC 276e0 0 __unordtf2
FUNC 27718 294 0 fmt::v11::detail::write_loc(fmt::v11::basic_appender<char>, fmt::v11::loc_value, fmt::v11::format_specs const&, fmt::v11::detail::locale_ref)
FUNC 279ac 70 0 fmt::v11::format_facet<std::__ndk1::locale>::~format_facet()
FUNC 27a1c 50 0 fmt::v11::report_error(char const*)
FUNC 27a6c 2c 0 fmt::v11::format_error::runtime_error(char const*)
FUNC 27a98 750 0 fmt::v11::format_facet<std::__ndk1::locale>::do_put(fmt::v11::basic_appender<char>, fmt::v11::loc_value, fmt::v11::format_specs const&) const
FUNC 281e8 64 0 fmt::v11::detail::loc_writer<char>::~loc_writer()
FUNC 2824c 12c 0 fmt::v11::vformat(fmt::v11::basic_string_view<char>, fmt::v11::basic_format_args<fmt::v11::context>)
FUNC 28378 3c8 0 fmt::v11::detail::vformat_to<char>(fmt::v11::detail::buffer<char>&, fmt::v11::basic_string_view<char>, fmt::v11::detail::vformat_args<char>::type, fmt::v11::detail::locale_ref)
FUNC 28740 228 0 fmt::v11::detail::is_printable(unsigned int)
FUNC 28968 2b4 0 fmt::v11::detail::dragonbox::to_decimal<float>(float)
FUNC 28c1c 530 0 fmt::v11::detail::dragonbox::to_decimal<double>(double)
FUNC 2914c 78 0 fmt::v11::format_facet<std::__ndk1::locale>::~format_facet()
FUNC 291c4 24 0 fmt::v11::format_error::~format_error()
FUNC 291e8 6c 0 fmt::v11::detail::default_arg_formatter<char>::operator()<bool>(bool)
FUNC 29254 74 0 fmt::v11::detail::default_arg_formatter<char>::operator()<char>(char)
FUNC 292c8 f0 0 fmt::v11::detail::default_arg_formatter<char>::operator()<float>(float)
FUNC 293b8 f0 0 fmt::v11::detail::default_arg_formatter<char>::operator()<double>(double)
FUNC 294a8 48 0 fmt::v11::detail::default_arg_formatter<char>::operator()<char const*>(char const*)
FUNC 294f0 9c 0 fmt::v11::detail::default_arg_formatter<char>::operator()<void const*>(void const*)
FUNC 2958c 220 0 _ZN3fmt3v116detail5writeIcNS0_14basic_appenderIcEEiTnNSt6__ndk19enable_ifIXaaaasr11is_integralIT1_EE5valuentsr3std7is_sameIS7_bEE5valuentsr3std7is_sameIS7_T_EE5valueEiE4typeELi0EEET0_SB_S7_
FUNC 297ac 150 0 fmt::v11::detail::copy_noinline<char, char*, fmt::v11::basic_appender<char> >(char*, char*, fmt::v11::basic_appender<char>)
FUNC 298fc 1c4 0 _ZN3fmt3v116detail5writeIcNS0_14basic_appenderIcEEjTnNSt6__ndk19enable_ifIXaaaasr11is_integralIT1_EE5valuentsr3std7is_sameIS7_bEE5valuentsr3std7is_sameIS7_T_EE5valueEiE4typeELi0EEET0_SB_S7_
FUNC 29ac0 244 0 _ZN3fmt3v116detail5writeIcNS0_14basic_appenderIcEExTnNSt6__ndk19enable_ifIXaaaasr11is_integralIT1_EE5valuentsr3std7is_sameIS7_bEE5valuentsr3std7is_sameIS7_T_EE5valueEiE4typeELi0EEET0_SB_S7_
FUNC 29d04 1ec 0 _ZN3fmt3v116detail5writeIcNS0_14basic_appenderIcEEyTnNSt6__ndk19enable_ifIXaaaasr11is_integralIT1_EE5valuentsr3std7is_sameIS7_bEE5valuentsr3std7is_sameIS7_T_EE5valueEiE4typeELi0EEET0_SB_S7_
FUNC 29ef0 304 0 _ZN3fmt3v116detail5writeIcNS0_14basic_appenderIcEEnTnNSt6__ndk19enable_ifIXaaaasr11is_integralIT1_EE5valuentsr3std7is_sameIS7_bEE5valuentsr3std7is_sameIS7_T_EE5valueEiE4typeELi0EEET0_SB_S7_
FUNC 2a1f4 2a4 0 _ZN3fmt3v116detail5writeIcNS0_14basic_appenderIcEEoTnNSt6__ndk19enable_ifIXaaaasr11is_integralIT1_EE5valuentsr3std7is_sameIS7_bEE5valuentsr3std7is_sameIS7_T_EE5valueEiE4typeELi0EEET0_SB_S7_
FUNC 2a498 2b4 0 _ZN3fmt3v116detail5writeIcNS0_14basic_appenderIcEEbTnNSt6__ndk19enable_ifIXsr3std7is_sameIT1_bEE5valueEiE4typeELi0EEET0_SA_S7_RKNS0_12format_specsENS1_10locale_refE
FUNC 2a74c dd4 0 fmt::v11::detail::write_int_noinline<char, fmt::v11::basic_appender<char>, unsigned int>(fmt::v11::basic_appender<char>, fmt::v11::detail::write_int_arg<unsigned int>, fmt::v11::format_specs const&, fmt::v11::detail::locale_ref)
FUNC 2b520 254 0 fmt::v11::detail::write_padded<char, (fmt::v11::align::type)1, fmt::v11::basic_appender<char>, fmt::v11::detail::write_char<char, fmt::v11::basic_appender<char> >(fmt::v11::basic_appender<char>, char, fmt::v11::format_specs const&)::{lambda(fmt::v11::basic_appender<char>&)#1}>(fmt::v11::basic_appender<char>, fmt::v11::format_specs const&, unsigned long, unsigned long, fmt::v11::detail::write_char<char, fmt::v11::basic_appender<char> >(fmt::v11::basic_appender<char>, char, fmt::v11::format_specs const&)::{lambda(fmt::v11::basic_appender<char>&)#1})
FUNC 2b774 258 0 fmt::v11::detail::write_padded<char, (fmt::v11::align::type)1, fmt::v11::basic_appender<char>, fmt::v11::detail::write_nonfinite<char, fmt::v11::basic_appender<char> >(fmt::v11::basic_appender<char>, bool, fmt::v11::format_specs, fmt::v11::sign::type)::{lambda(fmt::v11::basic_appender<char>&)#1}>(fmt::v11::basic_appender<char>, fmt::v11::format_specs const&, unsigned long, unsigned long, fmt::v11::detail::write_nonfinite<char, fmt::v11::basic_appender<char> >(fmt::v11::basic_appender<char>, bool, fmt::v11::format_specs, fmt::v11::sign::type)::{lambda(fmt::v11::basic_appender<char>&)#1})
FUNC 2b9cc c3c 0 fmt::v11::detail::do_write_float<char, fmt::v11::basic_appender<char>, fmt::v11::detail::dragonbox::decimal_fp<float>, fmt::v11::detail::digit_grouping<char> >(fmt::v11::basic_appender<char>, fmt::v11::detail::dragonbox::decimal_fp<float> const&, fmt::v11::format_specs const&, fmt::v11::detail::float_specs, fmt::v11::detail::locale_ref)
FUNC 2c608 154 0 fmt::v11::detail::do_write_float<char, fmt::v11::basic_appender<char>, fmt::v11::detail::dragonbox::decimal_fp<float>, fmt::v11::detail::digit_grouping<char> >(fmt::v11::basic_appender<char>, fmt::v11::detail::dragonbox::decimal_fp<float> const&, fmt::v11::format_specs const&, fmt::v11::detail::float_specs, fmt::v11::detail::locale_ref)::{lambda(fmt::v11::basic_appender<char>(fmt::v11::basic_appender<char>))#1}::operator() const
FUNC 2c75c 238 0 fmt::v11::detail::digit_grouping<char>::digit_grouping(fmt::v11::detail::locale_ref, bool)
FUNC 2c994 44 0 fmt::v11::detail::digit_grouping<char>::~digit_grouping()
FUNC 2c9d8 1a4 0 fmt::v11::detail::write_exponent<char, fmt::v11::basic_appender<char> >(int, fmt::v11::basic_appender<char>)
FUNC 2cb7c 17c 0 _ZN3fmt3v116detail17write_significandIcjTnNSt6__ndk19enable_ifIXsr3std11is_integralIT0_EE5valueEiE4typeELi0EEEPT_S9_S5_iiS8_
FUNC 2ccf8 ac 0 std::__ndk1::basic_string<char, std::__ndk1::char_traits<char>, std::__ndk1::allocator<char> >::__assign_no_alias<true>(char const*, unsigned long)
FUNC 2cda4 100 0 std::__ndk1::basic_string<char, std::__ndk1::char_traits<char>, std::__ndk1::allocator<char> >::__assign_no_alias<false>(char const*, unsigned long)
FUNC 2cea4 3a4 0 fmt::v11::detail::digit_grouping<char>::apply<fmt::v11::basic_appender<char>, char>(fmt::v11::basic_appender<char>, fmt::v11::basic_string_view<char>) const
FUNC 2d248 a0 0 fmt::v11::basic_memory_buffer<int, (unsigned long)500, std::__ndk1::allocator<int> >::grow(fmt::v11::detail::buffer<int>&, unsigned long)
FUNC 2d2e8 c78 0 fmt::v11::detail::do_write_float<char, fmt::v11::basic_appender<char>, fmt::v11::detail::dragonbox::decimal_fp<double>, fmt::v11::detail::digit_grouping<char> >(fmt::v11::basic_appender<char>, fmt::v11::detail::dragonbox::decimal_fp<double> const&, fmt::v11::format_specs const&, fmt::v11::detail::float_specs, fmt::v11::detail::locale_ref)
FUNC 2df60 158 0 fmt::v11::detail::do_write_float<char, fmt::v11::basic_appender<char>, fmt::v11::detail::dragonbox::decimal_fp<double>, fmt::v11::detail::digit_grouping<char> >(fmt::v11::basic_appender<char>, fmt::v11::detail::dragonbox::decimal_fp<double> const&, fmt::v11::format_specs const&, fmt::v11::detail::float_specs, fmt::v11::detail::locale_ref)::{lambda(fmt::v11::basic_appender<char>(fmt::v11::basic_appender<char>))#1}::operator() const
FUNC 2e0b8 190 0 _ZN3fmt3v116detail17write_significandIcmTnNSt6__ndk19enable_ifIXsr3std11is_integralIT0_EE5valueEiE4typeELi0EEEPT_S9_S5_iiS8_
FUNC 2e248 ad0 0 fmt::v11::detail::write_float<char, fmt::v11::basic_appender<char>, long double>(fmt::v11::basic_appender<char>, long double, fmt::v11::format_specs, fmt::v11::detail::locale_ref)
FUNC 2ed18 1f4 0 fmt::v11::detail::write_padded<char, (fmt::v11::align::type)2, fmt::v11::basic_appender<char>, fmt::v11::detail::write_bytes<char, (fmt::v11::align::type)2, fmt::v11::basic_appender<char> >(fmt::v11::basic_appender<char>, fmt::v11::basic_string_view<char>, fmt::v11::format_specs const&)::{lambda(fmt::v11::basic_appender<char>&)#1}>(fmt::v11::basic_appender<char>, fmt::v11::format_specs const&, unsigned long, unsigned long, fmt::v11::detail::write_bytes<char, (fmt::v11::align::type)2, fmt::v11::basic_appender<char> >(fmt::v11::basic_appender<char>, fmt::v11::basic_string_view<char>, fmt::v11::format_specs const&)::{lambda(fmt::v11::basic_appender<char>&)#1})
FUNC 2ef0c 1350 0 fmt::v11::detail::format_dragon(fmt::v11::detail::basic_fp<unsigned __int128>, unsigned int, int, fmt::v11::detail::buffer<char>&, int&)
FUNC 3025c 124 0 fmt::v11::detail::bigint::operator<<=(int)
FUNC 30380 744 0 fmt::v11::detail::bigint::assign_pow10(int)
FUNC 30ac4 2f4 0 fmt::v11::detail::bigint::divmod_assign(fmt::v11::detail::bigint const&)
FUNC 30db8 a0 0 fmt::v11::basic_memory_buffer<unsigned int, (unsigned long)32, std::__ndk1::allocator<unsigned int> >::grow(fmt::v11::detail::buffer<unsigned int>&, unsigned long)
FUNC 30e58 e9c 0 fmt::v11::detail::do_write_float<char, fmt::v11::basic_appender<char>, fmt::v11::detail::big_decimal_fp, fmt::v11::detail::digit_grouping<char> >(fmt::v11::basic_appender<char>, fmt::v11::detail::big_decimal_fp const&, fmt::v11::format_specs const&, fmt::v11::detail::float_specs, fmt::v11::detail::locale_ref)
FUNC 31cf4 168 0 fmt::v11::detail::do_write_float<char, fmt::v11::basic_appender<char>, fmt::v11::detail::big_decimal_fp, fmt::v11::detail::digit_grouping<char> >(fmt::v11::basic_appender<char>, fmt::v11::detail::big_decimal_fp const&, fmt::v11::format_specs const&, fmt::v11::detail::float_specs, fmt::v11::detail::locale_ref)::{lambda(fmt::v11::basic_appender<char>(fmt::v11::basic_appender<char>))#1}::operator() const
FUNC 31e5c 214 0 fmt::v11::detail::write_padded<char, (fmt::v11::align::type)2, fmt::v11::basic_appender<char>, fmt::v11::detail::write_ptr<char, fmt::v11::basic_appender<char>, unsigned long>(fmt::v11::basic_appender<char>, unsigned long, fmt::v11::format_specs const*)::{lambda(fmt::v11::basic_appender<char>&)#1}>(fmt::v11::basic_appender<char>, fmt::v11::format_specs const&, unsigned long, unsigned long, fmt::v11::detail::write_ptr<char, fmt::v11::basic_appender<char>, unsigned long>(fmt::v11::basic_appender<char>, unsigned long, fmt::v11::format_specs const*)::{lambda(fmt::v11::basic_appender<char>&)#1})
FUNC 32070 14c4 0 fmt::v11::detail::parse_replacement_field<char, fmt::v11::detail::vformat_to<char>(fmt::v11::detail::buffer<char>&, fmt::v11::basic_string_view<char>, fmt::v11::detail::vformat_args<char>::type, fmt::v11::detail::locale_ref)::format_handler&>(char const*, char const*, fmt::v11::detail::vformat_to<char>(fmt::v11::detail::buffer<char>&, fmt::v11::basic_string_view<char>, fmt::v11::detail::vformat_args<char>::type, fmt::v11::detail::locale_ref)::format_handler&)
FUNC 33534 e30 0 fmt::v11::detail::write_int_noinline<char, fmt::v11::basic_appender<char>, unsigned long>(fmt::v11::basic_appender<char>, fmt::v11::detail::write_int_arg<unsigned long>, fmt::v11::format_specs const&, fmt::v11::detail::locale_ref)
FUNC 34364 fd4 0 fmt::v11::detail::write_int_noinline<char, fmt::v11::basic_appender<char>, unsigned __int128>(fmt::v11::basic_appender<char>, fmt::v11::detail::write_int_arg<unsigned __int128>, fmt::v11::format_specs const&, fmt::v11::detail::locale_ref)
FUNC 35338 510 0 _ZN3fmt3v116detail15format_hexfloatIdTnNSt6__ndk19enable_ifIXntsr16is_double_doubleIT_EE5valueEiE4typeELi0EEEvS5_NS0_12format_specsERNS1_6bufferIcEE
FUNC 35848 98c 0 fmt::v11::detail::format_float<double>(double, int, fmt::v11::detail::float_specs, fmt::v11::detail::buffer<char>&)
FUNC 361d4 570 0 fmt::v11::detail::write_int<fmt::v11::basic_appender<char>, unsigned long, char>(fmt::v11::basic_appender<char>, unsigned long, unsigned int, fmt::v11::format_specs const&, fmt::v11::detail::digit_grouping<char> const&)
FUNC 36744 664 0 fmt::v11::detail::write_int<fmt::v11::basic_appender<char>, unsigned __int128, char>(fmt::v11::basic_appender<char>, unsigned __int128, unsigned int, fmt::v11::format_specs const&, fmt::v11::detail::digit_grouping<char> const&)
PUBLIC 36db0 0 <.plt ELF section in shineua.geometrize2gd.android64.so>
STACK CFI INIT 18990 10 .cfa: sp 0 +
STACK CFI INIT 189a0 8 .cfa: sp 0 +
STACK CFI INIT 189a8 8 .cfa: sp 0 +
STACK CFI INIT 189b0 14 .cfa: sp 0 +
STACK CFI INIT 189c4 1c .cfa: sp 0 +
STACK CFI INIT 189e0 10 .cfa: sp 0 +
STACK CFI INIT 189f0 30 .cfa: sp 0 +
STACK CFI INIT 18a20 98 .cfa: sp 0 +
STACK CFI INIT 18ab8 59c .cfa: sp 0 +
STACK CFI INIT 19054 8c .cfa: sp 0 +
STACK CFI INIT 190e0 30 .cfa: sp 0 +
STACK CFI INIT 19c40 18 .cfa: sp 0 +
STACK CFI INIT 1a080 50 .cfa: sp 0 +
STACK CFI 1a084 .cfa: sp 32 +
STACK CFI 1a08c .cfa: x29 32 + x19: .cfa -16 + ^ .ra: .cfa -24 + ^ x29: .cfa -32 + ^
STACK CFI 1a0a4 .cfa: sp 32 +
STACK CFI 1a0ac .cfa: sp 0 +
STACK CFI 1a0b0 .cfa: x29 32 +
STACK CFI 1a0c4 .cfa: sp 32 +
STACK CFI 1a0cc .cfa: sp 0 +
STACK CFI INIT 1a144 7c .cfa: sp 0 +
STACK CFI 1a148 .cfa: sp 48 +
STACK CFI 1a154 .cfa: x29 48 + x19: .cfa -8 + ^ x20: .cfa -16 + ^ x21: .cfa -32 + ^ .ra: .cfa -40 + ^ x29: .cfa -48 + ^
STACK CFI 1a1a0 .cfa: sp 48 +
STACK CFI 1a1ac .cfa: sp 0 +
STACK CFI 1a1b0 .cfa: sp 48 +
STACK CFI 1a1bc .cfa: sp 0 +
STACK CFI INIT 1a1c0 4 .cfa: sp 0 +
STACK CFI INIT 1a1c4 10 .cfa: sp 0 +
STACK CFI 1a1c8 .cfa: sp 16 +
STACK CFI 1a1cc .cfa: x29 16 + .ra: .cfa -8 + ^ x29: .cfa -16 + ^
STACK CFI INIT 1a328 34 .cfa: sp 0 +
STACK CFI 1a32c .cfa: sp 16 +
STACK CFI 1a330 .cfa: x29 16 + .ra: .cfa -8 + ^ x29: .cfa -16 + ^
STACK CFI INIT 1a480 80 .cfa: sp 0 +
STACK CFI 1a484 .cfa: sp 48 +
STACK CFI 1a490 .cfa: x29 48 + x19: .cfa -8 + ^ x20: .cfa -16 + ^ x21: .cfa -32 + ^ .ra: .cfa -40 + ^ x29: .cfa -48 + ^
STACK CFI 1a4f0 .cfa: sp 48 +
STACK CFI 1a4fc .cfa: sp 0 +
STACK CFI INIT 1a500 24 .cfa: sp 0 +
STACK CFI 1a504 .cfa: sp 32 +
STACK CFI 1a50c .cfa: x29 32 + x19: .cfa -16 + ^ .ra: .cfa -24 + ^ x29: .cfa -32 + ^
STACK CFI 1a518 .cfa: sp 32 +
STACK CFI 1a520 .cfa: sp 0 +
STACK CFI INIT 1a870 14 .cfa: sp 0 +
STACK CFI 1a874 .cfa: sp 16 +
STACK CFI 1a878 .cfa: x29 16 + .ra: .cfa -8 + ^ x29: .cfa -16 + ^
STACK CFI INIT 1a8d4 30 .cfa: sp 0 +
STACK CFI 1a8d8 .cfa: sp 32 +
STACK CFI 1a8e0 .cfa: x29 32 + x19: .cfa -16 + ^ .ra: .cfa -24 + ^ x29: .cfa -32 + ^
STACK CFI 1a8f8 .cfa: sp 32 +
STACK CFI 1a900 .cfa: sp 0 +
STACK CFI INIT 1a904 34 .cfa: sp 0 +
STACK CFI 1a908 .cfa: sp 32 +
STACK CFI 1a910 .cfa: x29 32 + x19: .cfa -16 + ^ .ra: .cfa -24 + ^ x29: .cfa -32 + ^
STACK CFI INIT 1aa94 148 .cfa: sp 0 +
STACK CFI 1aa98 .cfa: sp 48 +
STACK CFI 1aaa4 .cfa: x29 48 + x19: .cfa -8 + ^ x20: .cfa -16 + ^ x21: .cfa -32 + ^ .ra: .cfa -40 + ^ x29: .cfa -48 + ^
STACK CFI 1abcc .cfa: sp 48 +
STACK CFI 1abd8 .cfa: sp 0 +
STACK CFI INIT 1abdc 70 .cfa: sp 0 +
STACK CFI 1abe0 .cfa: sp 48 +
STACK CFI 1abec .cfa: x29 48 + x19: .cfa -8 + ^ x20: .cfa -16 + ^ x21: .cfa -24 + ^ x22: .cfa -32 + ^ .ra: .cfa -40 + ^ x29: .cfa -48 + ^
STACK CFI 1ac34 .cfa: sp 48 +
STACK CFI 1ac40 .cfa: sp 0 +
STACK CFI 1ac44 .cfa: x29 48 +
STACK CFI INIT 1ac4c 68 .cfa: sp 0 +
STACK CFI 1ac50 .cfa: sp 32 +
STACK CFI 1ac58 .cfa: x29 32 + x19: .cfa -8 + ^ x20: .cfa -16 + ^ .ra: .cfa -24 + ^ x29: .cfa -32 + ^
STACK CFI 1ac70 .cfa: sp 32 +
STACK CFI 1ac78 .cfa: sp 0 +
STACK CFI 1ac7c .cfa: x29 32 +
STACK CFI 1aca8 .cfa: sp 32 +
STACK CFI 1acb0 .cfa: sp 0 +
STACK CFI INIT 1acb4 14 .cfa: sp 0 +
STACK CFI 1acb8 .cfa: sp 16 +
STACK CFI 1acbc .cfa: x29 16 + .ra: .cfa -8 + ^ x29: .cfa -16 + ^
STACK CFI INIT 1acc8 4 .cfa: sp 0 +
STACK CFI INIT 1accc 14 .cfa: sp 0 +
STACK CFI INIT 1ace0 84 .cfa: sp 0 +
STACK CFI 1ace8 .cfa: sp 32 +
STACK CFI 1acf0 .cfa: x29 32 + x19: .cfa -8 + ^ x20: .cfa -16 + ^ .ra: .cfa -24 + ^ x29: .cfa -32 + ^
STACK CFI 1ad30 .cfa: sp 32 +
STACK CFI 1ad38 .cfa: sp 0 +
STACK CFI 1ad40 .cfa: x29 32 +
STACK CFI INIT 1ad64 94 .cfa: sp 0 +
STACK CFI 1ad68 .cfa: sp 32 +
STACK CFI 1ad70 .cfa: x29 32 + x19: .cfa -8 + ^ x20: .cfa -16 + ^ .ra: .cfa -24 + ^ x29: .cfa -32 + ^
STACK CFI 1adec .cfa: sp 32 +
STACK CFI 1adf4 .cfa: sp 0 +
STACK CFI INIT 1adf8 50 .cfa: sp 0 +
STACK CFI 1adfc .cfa: sp 32 +
STACK CFI 1ae04 .cfa: x29 32 + x19: .cfa -16 + ^ .ra: .cfa -24 + ^ x29: .cfa -32 + ^
STACK CFI 1ae1c .cfa: sp 32 +
STACK CFI 1ae24 .cfa: sp 0 +
STACK CFI 1ae28 .cfa: x29 32 +
STACK CFI 1ae3c .cfa: sp 32 +
STACK CFI 1ae44 .cfa: sp 0 +
STACK CFI INIT 1ae48 64 .cfa: sp 0 +
STACK CFI 1ae4c .cfa: sp 32 +
STACK CFI 1ae54 .cfa: x29 32 + x19: .cfa -16 + ^ .ra: .cfa -24 + ^ x29: .cfa -32 + ^
STACK CFI 1ae80 .cfa: sp 32 +
STACK CFI 1ae88 .cfa: sp 0 +
STACK CFI 1ae8c .cfa: x29 32 +
STACK CFI 1aea0 .cfa: sp 32 +
STACK CFI 1aea8 .cfa: sp 0 +
STACK CFI INIT 1afdc 19c .cfa: sp 0 +
STACK CFI INIT 1c5e8 80 .cfa: sp 0 +
STACK CFI 1c5ec .cfa: sp 48 +
STACK CFI 1c5f8 .cfa: x29 48 + x19: .cfa -8 + ^ x20: .cfa -16 + ^ x21: .cfa -32 + ^ .ra: .cfa -40 + ^ x29: .cfa -48 + ^
STACK CFI 1c61c .cfa: sp 48 +
STACK CFI 1c628 .cfa: sp 0 +
STACK CFI 1c62c .cfa: x29 48 +
STACK CFI 1c658 .cfa: sp 48 +
STACK CFI 1c664 .cfa: sp 0 +
STACK CFI INIT 1c668 50 .cfa: sp 0 +
STACK CFI 1c66c .cfa: sp 32 +
STACK CFI 1c674 .cfa: x29 32 + x19: .cfa -16 + ^ .ra: .cfa -24 + ^ x29: .cfa -32 + ^
STACK CFI 1c68c .cfa: sp 32 +
STACK CFI 1c694 .cfa: sp 0 +
STACK CFI 1c698 .cfa: x29 32 +
STACK CFI 1c6ac .cfa: sp 32 +
STACK CFI 1c6b4 .cfa: sp 0 +
STACK CFI INIT 1c6b8 58 .cfa: sp 0 +
STACK CFI 1c6bc .cfa: sp 32 +
STACK CFI 1c6c4 .cfa: x29 32 + x19: .cfa -8 + ^ x20: .cfa -16 + ^ .ra: .cfa -24 + ^ x29: .cfa -32 + ^
STACK CFI 1c6f4 .cfa: sp 32 +
STACK CFI 1c6fc .cfa: sp 0 +
STACK CFI 1c700 .cfa: x29 32 +
STACK CFI 1c704 .cfa: sp 32 +
STACK CFI 1c70c .cfa: sp 0 +
STACK CFI INIT 1d8c4 8 .cfa: sp 0 +
STACK CFI INIT 1d8cc 8 .cfa: sp 0 +
STACK CFI INIT 1da74 24 .cfa: sp 0 +
STACK CFI 1da78 .cfa: sp 32 +
STACK CFI 1da80 .cfa: x29 32 + x19: .cfa -16 + ^ .ra: .cfa -24 + ^ x29: .cfa -32 + ^
STACK CFI 1da8c .cfa: sp 32 +
STACK CFI 1da94 .cfa: sp 0 +
STACK CFI INIT 1da98 2c .cfa: sp 0 +
STACK CFI 1da9c .cfa: sp 32 +
STACK CFI 1daa4 .cfa: x29 32 + x19: .cfa -16 + ^ .ra: .cfa -24 + ^ x29: .cfa -32 + ^
STACK CFI 1dab8 .cfa: sp 32 +
STACK CFI 1dac0 .cfa: sp 0 +
STACK CFI INIT 1dac4 28 .cfa: sp 0 +
STACK CFI INIT 1daec 4 .cfa: sp 0 +
STACK CFI INIT 1daf0 8 .cfa: sp 0 +
STACK CFI INIT 1dc40 8 .cfa: sp 0 +
STACK CFI INIT 1dc48 28 .cfa: sp 0 +
STACK CFI 1dc4c .cfa: sp 32 +
STACK CFI 1dc54 .cfa: x29 32 + x19: .cfa -16 + ^ .ra: .cfa -24 + ^ x29: .cfa -32 + ^
STACK CFI 1dc64 .cfa: sp 32 +
STACK CFI 1dc6c .cfa: sp 0 +
STACK CFI INIT 1dc70 2c .cfa: sp 0 +
STACK CFI INIT 1dc9c 4 .cfa: sp 0 +
STACK CFI INIT 1dca0 4 .cfa: sp 0 +
STACK CFI INIT 1dca4 4 .cfa: sp 0 +
STACK CFI INIT 1dca8 4 .cfa: sp 0 +
STACK CFI INIT 1dcac 4 .cfa: sp 0 +
STACK CFI INIT 1dcb0 8 .cfa: sp 0 +
STACK CFI INIT 1de28 7c .cfa: sp 0 +
STACK CFI 1de2c .cfa: sp 48 +
STACK CFI 1de38 .cfa: x29 48 + x19: .cfa -8 + ^ x20: .cfa -16 + ^ x21: .cfa -32 + ^ .ra: .cfa -40 + ^ x29: .cfa -48 + ^
STACK CFI 1de94 .cfa: sp 48 +
STACK CFI 1dea0 .cfa: sp 0 +
STACK CFI INIT 1df10 4 .cfa: sp 0 +
STACK CFI INIT 1df80 4 .cfa: sp 0 +
STACK CFI INIT 1df84 3c .cfa: sp 0 +
STACK CFI 1df8c .cfa: sp 32 +
STACK CFI 1df94 .cfa: x29 32 + x19: .cfa -16 + ^ .ra: .cfa -24 + ^ x29: .cfa -32 + ^
STACK CFI 1dfb0 .cfa: sp 32 +
STACK CFI 1dfb8 .cfa: sp 0 +
STACK CFI INIT 1e1dc 4 .cfa: sp 0 +
STACK CFI INIT 1e374 8c .cfa: sp 0 +
STACK CFI 1e378 .cfa: sp 32 +
STACK CFI 1e380 .cfa: x29 32 + x19: .cfa -8 + ^ x20: .cfa -16 + ^ .ra: .cfa -24 + ^ x29: .cfa -32 + ^
STACK CFI 1e3f4 .cfa: sp 32 +
STACK CFI 1e3fc .cfa: sp 0 +
STACK CFI INIT 1e400 94 .cfa: sp 0 +
STACK CFI 1e404 .cfa: sp 32 +
STACK CFI 1e40c .cfa: x29 32 + x19: .cfa -8 + ^ x20: .cfa -16 + ^ .ra: .cfa -24 + ^ x29: .cfa -32 + ^
STACK CFI 1e488 .cfa: sp 32 +
STACK CFI 1e490 .cfa: sp 0 +
STACK CFI INIT 1e494 50 .cfa: sp 0 +
STACK CFI 1e498 .cfa: sp 32 +
STACK CFI 1e4a0 .cfa: x29 32 + x19: .cfa -16 + ^ .ra: .cfa -24 + ^ x29: .cfa -32 + ^
STACK CFI 1e4b8 .cfa: sp 32 +
STACK CFI 1e4c0 .cfa: sp 0 +
STACK CFI 1e4c4 .cfa: x29 32 +
STACK CFI 1e4d8 .cfa: sp 32 +
STACK CFI 1e4e0 .cfa: sp 0 +
STACK CFI INIT 1e4e4 50 .cfa: sp 0 +
STACK CFI 1e4e8 .cfa: sp 32 +
STACK CFI 1e4f0 .cfa: x29 32 + x19: .cfa -16 + ^ .ra: .cfa -24 + ^ x29: .cfa -32 + ^
STACK CFI 1e508 .cfa: sp 32 +
STACK CFI 1e510 .cfa: sp 0 +
STACK CFI 1e514 .cfa: x29 32 +
STACK CFI 1e528 .cfa: sp 32 +
STACK CFI 1e530 .cfa: sp 0 +
STACK CFI INIT 1e534 5c .cfa: sp 0 +
STACK CFI 1e538 .cfa: sp 32 +
STACK CFI 1e540 .cfa: x29 32 + x19: .cfa -16 + ^ .ra: .cfa -24 + ^ x29: .cfa -32 + ^
STACK CFI 1e564 .cfa: sp 32 +
STACK CFI 1e56c .cfa: sp 0 +
STACK CFI 1e570 .cfa: x29 32 +
STACK CFI 1e584 .cfa: sp 32 +
STACK CFI 1e58c .cfa: sp 0 +
STACK CFI INIT 1e590 5c .cfa: sp 0 +
STACK CFI 1e594 .cfa: sp 32 +
STACK CFI 1e59c .cfa: x29 32 + x19: .cfa -8 + ^ x20: .cfa -16 + ^ .ra: .cfa -24 + ^ x29: .cfa -32 + ^
STACK CFI 1e5e0 .cfa: sp 32 +
STACK CFI 1e5e8 .cfa: sp 0 +
STACK CFI INIT 1e5ec 58 .cfa: sp 0 +
STACK CFI 1e5f0 .cfa: sp 32 +
STACK CFI 1e5f8 .cfa: x29 32 + x19: .cfa -8 + ^ x20: .cfa -16 + ^ .ra: .cfa -24 + ^ x29: .cfa -32 + ^
STACK CFI 1e638 .cfa: sp 32 +
STACK CFI 1e640 .cfa: sp 0 +
STACK CFI INIT 1e644 4c .cfa: sp 0 +
STACK CFI 1e648 .cfa: sp 32 +
STACK CFI 1e650 .cfa: x29 32 + x19: .cfa -8 + ^ x20: .cfa -16 + ^ .ra: .cfa -24 + ^ x29: .cfa -32 + ^
STACK CFI 1e684 .cfa: sp 32 +
STACK CFI 1e68c .cfa: sp 0 +
STACK CFI INIT 1e690 50 .cfa: sp 0 +
STACK CFI 1e694 .cfa: sp 32 +
STACK CFI 1e69c .cfa: x29 32 + x19: .cfa -16 + ^ .ra: .cfa -24 + ^ x29: .cfa -32 + ^
STACK CFI 1e6b4 .cfa: sp 32 +
STACK CFI 1e6bc .cfa: sp 0 +
STACK CFI 1e6c0 .cfa: x29 32 +
STACK CFI 1e6d4 .cfa: sp 32 +
STACK CFI 1e6dc .cfa: sp 0 +
STACK CFI INIT 1e6e0 50 .cfa: sp 0 +
STACK CFI 1e6e4 .cfa: sp 32 +
STACK CFI 1e6ec .cfa: x29 32 + x19: .cfa -8 + ^ x20: .cfa -16 + ^ .ra: .cfa -24 + ^ x29: .cfa -32 + ^
STACK CFI 1e724 .cfa: sp 32 +
STACK CFI 1e72c .cfa: sp 0 +
STACK CFI INIT 1e8c8 1c .cfa: sp 0 +
STACK CFI INIT 1e8e4 c .cfa: sp 0 +
STACK CFI INIT 1e8f0 50 .cfa: sp 0 +
STACK CFI 1e8f4 .cfa: sp 32 +
STACK CFI 1e8fc .cfa: x29 32 + x19: .cfa -8 + ^ x20: .cfa -16 + ^ .ra: .cfa -24 + ^ x29: .cfa -32 + ^
STACK CFI 1e934 .cfa: sp 32 +
STACK CFI 1e93c .cfa: sp 0 +
STACK CFI INIT 1e940 58 .cfa: sp 0 +
STACK CFI 1e944 .cfa: sp 32 +
STACK CFI 1e94c .cfa: x29 32 + x19: .cfa -8 + ^ x20: .cfa -16 + ^ .ra: .cfa -24 + ^ x29: .cfa -32 + ^
STACK CFI 1e98c .cfa: sp 32 +
STACK CFI 1e994 .cfa: sp 0 +
STACK CFI INIT 1e998 5c .cfa: sp 0 +
STACK CFI 1e99c .cfa: sp 32 +
STACK CFI 1e9a4 .cfa: x29 32 + x19: .cfa -16 + ^ .ra: .cfa -24 + ^ x29: .cfa -32 + ^
STACK CFI 1e9c8 .cfa: sp 32 +
STACK CFI 1e9d0 .cfa: sp 0 +
STACK CFI 1e9d4 .cfa: x29 32 +
STACK CFI 1e9e8 .cfa: sp 32 +
STACK CFI 1e9f0 .cfa: sp 0 +
STACK CFI INIT 1e9f4 5c .cfa: sp 0 +
STACK CFI 1e9f8 .cfa: sp 32 +
STACK CFI 1ea00 .cfa: x29 32 + x19: .cfa -8 + ^ x20: .cfa -16 + ^ .ra: .cfa -24 + ^ x29: .cfa -32 + ^
STACK CFI 1ea44 .cfa: sp 32 +
STACK CFI 1ea4c .cfa: sp 0 +
STACK CFI INIT 1ea50 58 .cfa: sp 0 +
STACK CFI 1ea54 .cfa: sp 32 +
STACK CFI 1ea5c .cfa: x29 32 + x19: .cfa -8 + ^ x20: .cfa -16 + ^ .ra: .cfa -24 + ^ x29: .cfa -32 + ^
STACK CFI 1ea9c .cfa: sp 32 +
STACK CFI 1eaa4 .cfa: sp 0 +
STACK CFI INIT 1eaa8 4c .cfa: sp 0 +
STACK CFI 1eaac .cfa: sp 32 +
STACK CFI 1eab4 .cfa: x29 32 + x19: .cfa -8 + ^ x20: .cfa -16 + ^ .ra: .cfa -24 + ^ x29: .cfa -32 + ^
STACK CFI 1eae8 .cfa: sp 32 +
STACK CFI 1eaf0 .cfa: sp 0 +
STACK CFI INIT 1eaf4 50 .cfa: sp 0 +
STACK CFI 1eaf8 .cfa: sp 32 +
STACK CFI 1eb00 .cfa: x29 32 + x19: .cfa -16 + ^ .ra: .cfa -24 + ^ x29: .cfa -32 + ^
STACK CFI 1eb18 .cfa: sp 32 +
STACK CFI 1eb20 .cfa: sp 0 +
STACK CFI 1eb24 .cfa: x29 32 +
STACK CFI 1eb38 .cfa: sp 32 +
STACK CFI 1eb40 .cfa: sp 0 +
STACK CFI INIT 1eb44 50 .cfa: sp 0 +
STACK CFI 1eb48 .cfa: sp 32 +
STACK CFI 1eb50 .cfa: x29 32 + x19: .cfa -8 + ^ x20: .cfa -16 + ^ .ra: .cfa -24 + ^ x29: .cfa -32 + ^
STACK CFI 1eb88 .cfa: sp 32 +
STACK CFI 1eb90 .cfa: sp 0 +
STACK CFI INIT 1ed1c 1c .cfa: sp 0 +
STACK CFI INIT 1ed38 c .cfa: sp 0 +
STACK CFI INIT 1ed44 dc .cfa: sp 0 +
STACK CFI 1ed48 .cfa: sp 64 +
STACK CFI 1ed58 .cfa: x29 64 + x19: .cfa -8 + ^ x20: .cfa -16 + ^ x21: .cfa -24 + ^ x22: .cfa -32 + ^ x23: .cfa -48 + ^ .ra: .cfa -56 + ^ x29: .cfa -64 + ^
STACK CFI 1edd8 .cfa: sp 64 +
STACK CFI 1ede8 .cfa: sp 0 +
STACK CFI 1edec .cfa: x29 64 +
STACK CFI INIT 1ee20 34 .cfa: sp 0 +
STACK CFI 1ee24 .cfa: sp 16 +
STACK CFI 1ee28 .cfa: x29 16 + .ra: .cfa -8 + ^ x29: .cfa -16 + ^
STACK CFI INIT 1ee54 24 .cfa: sp 0 +
STACK CFI 1ee58 .cfa: sp 32 +
STACK CFI 1ee60 .cfa: x29 32 + x19: .cfa -16 + ^ .ra: .cfa -24 + ^ x29: .cfa -32 + ^
STACK CFI 1ee6c .cfa: sp 32 +
STACK CFI 1ee74 .cfa: sp 0 +
STACK CFI INIT 1efa4 70 .cfa: sp 0 +
STACK CFI 1efa8 .cfa: sp 48 +
STACK CFI 1efb4 .cfa: x29 48 + x19: .cfa -8 + ^ x20: .cfa -16 + ^ x21: .cfa -32 + ^ .ra: .cfa -40 + ^ x29: .cfa -48 + ^
STACK CFI 1efcc .cfa: sp 48 +
STACK CFI 1efd8 .cfa: sp 0 +
STACK CFI 1efdc .cfa: x29 48 +
STACK CFI 1f004 .cfa: sp 48 +
STACK CFI 1f010 .cfa: sp 0 +
STACK CFI INIT 1f014 15c .cfa: sp 0 +
STACK CFI 1f018 .cfa: sp 32 +
STACK CFI 1f020 .cfa: x29 32 + x19: .cfa -8 + ^ x20: .cfa -16 + ^ .ra: .cfa -24 + ^ x29: .cfa -32 + ^
STACK CFI 1f160 .cfa: sp 32 +
STACK CFI 1f168 .cfa: sp 0 +
STACK CFI 1f16c .cfa: x29 32 +
STACK CFI INIT 1f94c 50 .cfa: sp 0 +
STACK CFI 1f970 .cfa: sp 32 +
STACK CFI 1f978 .cfa: x29 32 + x19: .cfa -16 + ^ .ra: .cfa -24 + ^ x29: .cfa -32 + ^
STACK CFI 1f98c .cfa: sp 32 +
STACK CFI 1f994 .cfa: sp 0 +
STACK CFI INIT 1f99c 44 .cfa: sp 0 +
STACK CFI 1f9b8 .cfa: sp 32 +
STACK CFI 1f9c0 .cfa: x29 32 + x19: .cfa -16 + ^ .ra: .cfa -24 + ^ x29: .cfa -32 + ^
STACK CFI 1f9d4 .cfa: sp 32 +
STACK CFI 1f9dc .cfa: sp 0 +
STACK CFI INIT 1f9e0 a4 .cfa: sp 0 +
STACK CFI 1f9f0 .cfa: sp 48 +
STACK CFI 1f9fc .cfa: x29 48 + x19: .cfa -8 + ^ x20: .cfa -16 + ^ x21: .cfa -24 + ^ x22: .cfa -32 + ^ .ra: .cfa -40 + ^ x29: .cfa -48 + ^
STACK CFI 1fa10 .cfa: sp 48 +
STACK CFI 1fa1c .cfa: sp 0 +
STACK CFI 1fa20 .cfa: x29 48 +
STACK CFI INIT 1fa84 a4 .cfa: sp 0 +
STACK CFI 1fa88 .cfa: sp 64 +
STACK CFI 1fa98 .cfa: x29 64 + x19: .cfa -8 + ^ x20: .cfa -16 + ^ x21: .cfa -24 + ^ x22: .cfa -32 + ^ x23: .cfa -48 + ^ .ra: .cfa -56 + ^ x29: .cfa -64 + ^
STACK CFI 1fab0 .cfa: sp 64 +
STACK CFI 1fac0 .cfa: sp 0 +
STACK CFI 1fac4 .cfa: x29 64 +
STACK CFI INIT 1fc90 4 .cfa: sp 0 +
STACK CFI INIT 1fc94 14 .cfa: sp 0 +
STACK CFI INIT 1fca8 4 .cfa: sp 0 +
STACK CFI INIT 1fcac 14 .cfa: sp 0 +
STACK CFI INIT 1fcc0 4 .cfa: sp 0 +
STACK CFI INIT 1fcc4 14 .cfa: sp 0 +
STACK CFI INIT 1fcd8 2f4 .cfa: sp 0 +
STACK CFI 1fcdc .cfa: sp 128 +
STACK CFI 1fcf4 .cfa: x29 64 + x19: .cfa -8 + ^ x20: .cfa -16 + ^ x21: .cfa -24 + ^ x22: .cfa -32 + ^ x23: .cfa -40 + ^ x24: .cfa -48 + ^ .ra: .cfa -56 + ^ x29: .cfa -64 + ^ v8: .cfa -72 + ^ v9: .cfa -80 + ^
STACK CFI 1ffac .cfa: sp 128 +
STACK CFI 1ffc4 .cfa: sp 0 +
STACK CFI 1ffc8 .cfa: x29 64 +
STACK CFI INIT 1ffcc 4 .cfa: sp 0 +
STACK CFI INIT 1ffd0 4 .cfa: sp 0 +
STACK CFI INIT 1ffd4 34 .cfa: sp 0 +
STACK CFI 1ffd8 .cfa: sp 32 +
STACK CFI 1ffe0 .cfa: x29 32 + x19: .cfa -16 + ^ .ra: .cfa -24 + ^ x29: .cfa -32 + ^
STACK CFI 1fffc .cfa: sp 32 +
STACK CFI 20004 .cfa: sp 0 +
STACK CFI INIT 20008 14 .cfa: sp 0 +
STACK CFI INIT 2001c 4 .cfa: sp 0 +
STACK CFI INIT 20020 4 .cfa: sp 0 +
STACK CFI INIT 20dc4 1c .cfa: sp 0 +
STACK CFI INIT 20de0 c .cfa: sp 0 +
STACK CFI INIT 20e68 68 .cfa: sp 0 +
STACK CFI 20e6c .cfa: sp 48 +
STACK CFI 20e78 .cfa: x29 48 + x19: .cfa -8 + ^ x20: .cfa -16 + ^ x21: .cfa -32 + ^ .ra: .cfa -40 + ^ x29: .cfa -48 + ^
STACK CFI 20eb0 .cfa: sp 48 +
STACK CFI 20ebc .cfa: sp 0 +
STACK CFI 20ec0 .cfa: sp 48 +
STACK CFI 20ecc .cfa: sp 0 +
STACK CFI INIT 2102c 1ec .cfa: sp 0 +
STACK CFI 21030 .cfa: sp 272 +
STACK CFI 21044 .cfa: x29 64 + x19: .cfa -8 + ^ x20: .cfa -16 + ^ x21: .cfa -24 + ^ x22: .cfa -32 + ^ x23: .cfa -40 + ^ x28: .cfa -48 + ^ .ra: .cfa -56 + ^ x29: .cfa -64 + ^
STACK CFI 211fc .cfa: sp 272 +
STACK CFI 21210 .cfa: sp 0 +
STACK CFI 21214 .cfa: x29 64 +
STACK CFI INIT 21218 4a4 .cfa: sp 0 +
STACK CFI 2121c .cfa: sp 96 +
STACK CFI 21234 .cfa: x29 96 + x19: .cfa -8 + ^ x20: .cfa -16 + ^ x21: .cfa -24 + ^ x22: .cfa -32 + ^ x23: .cfa -40 + ^ x24: .cfa -48 + ^ x25: .cfa -56 + ^ x26: .cfa -64 + ^ x27: .cfa -72 + ^ x28: .cfa -80 + ^ .ra: .cfa -88 + ^ x29: .cfa -96 + ^
STACK CFI 2166c .cfa: sp 96 +
STACK CFI 21684 .cfa: sp 0 +
STACK CFI 21688 .cfa: x29 96 +
STACK CFI INIT 216bc 1a4 .cfa: sp 0 +
STACK CFI 216c0 .cfa: sp 64 +
STACK CFI 216cc .cfa: x29 32 + x19: .cfa -8 + ^ x20: .cfa -16 + ^ .ra: .cfa -24 + ^ x29: .cfa -32 + ^
STACK CFI 217f8 .cfa: sp 64 +
STACK CFI 21804 .cfa: sp 0 +
STACK CFI 21808 .cfa: x29 32 +
STACK CFI INIT 21860 17c .cfa: sp 0 +
STACK CFI 21864 .cfa: sp 16 +
STACK CFI 21868 .cfa: x29 16 + .ra: .cfa -8 + ^ x29: .cfa -16 + ^
STACK CFI 219bc .cfa: sp 16 +
STACK CFI 219c0 .cfa: sp 0 +
STACK CFI 219c4 .cfa: x29 16 +
STACK CFI INIT 219dc 150 .cfa: sp 0 +
STACK CFI 219e0 .cfa: sp 48 +
STACK CFI 219ec .cfa: x29 48 + x19: .cfa -8 + ^ x20: .cfa -16 + ^ x21: .cfa -24 + ^ x22: .cfa -32 + ^ .ra: .cfa -40 + ^ x29: .cfa -48 + ^
STACK CFI 21b1c .cfa: sp 48 +
STACK CFI 21b28 .cfa: sp 0 +
STACK CFI INIT 21b2c 114 .cfa: sp 0 +
STACK CFI 21b30 .cfa: sp 128 +
STACK CFI 21b40 .cfa: x29 48 + x19: .cfa -8 + ^ x20: .cfa -16 + ^ x21: .cfa -32 + ^ .ra: .cfa -40 + ^ x29: .cfa -48 + ^
STACK CFI 21c0c .cfa: sp 128 +
STACK CFI 21c1c .cfa: sp 0 +
STACK CFI 21c20 .cfa: x29 48 +
STACK CFI INIT 21c40 114 .cfa: sp 0 +
STACK CFI 21c44 .cfa: sp 128 +
STACK CFI 21c54 .cfa: x29 48 + x19: .cfa -8 + ^ x20: .cfa -16 + ^ x21: .cfa -32 + ^ .ra: .cfa -40 + ^ x29: .cfa -48 + ^
STACK CFI 21d20 .cfa: sp 128 +
STACK CFI 21d30 .cfa: sp 0 +
STACK CFI 21d34 .cfa: x29 48 +
STACK CFI INIT 21d54 27c .cfa: sp 0 +
STACK CFI 21d58 .cfa: sp 176 +
STACK CFI 21d74 .cfa: x29 96 + x19: .cfa -8 + ^ x20: .cfa -16 + ^ x21: .cfa -24 + ^ x22: .cfa -32 + ^ x23: .cfa -40 + ^ x24: .cfa -48 + ^ x25: .cfa -56 + ^ x26: .cfa -64 + ^ x27: .cfa -72 + ^ x28: .cfa -80 + ^ .ra: .cfa -88 + ^ x29: .cfa -96 + ^
STACK CFI 21fac .cfa: sp 176 +
STACK CFI 21fc8 .cfa: sp 0 +
STACK CFI 21fcc .cfa: x29 96 +
STACK CFI INIT 21fd0 200 .cfa: sp 0 +
STACK CFI 21fd4 .cfa: sp 144 +
STACK CFI 21ff0 .cfa: x29 96 + x19: .cfa -8 + ^ x20: .cfa -16 + ^ x21: .cfa -24 + ^ x22: .cfa -32 + ^ x23: .cfa -40 + ^ x24: .cfa -48 + ^ x25: .cfa -56 + ^ x26: .cfa -64 + ^ x27: .cfa -72 + ^ x28: .cfa -80 + ^ .ra: .cfa -88 + ^ x29: .cfa -96 + ^
STACK CFI 221ac .cfa: sp 144 +
STACK CFI 221c8 .cfa: sp 0 +
STACK CFI 221cc .cfa: x29 96 +
STACK CFI INIT 221d0 20c .cfa: sp 0 +
STACK CFI 221d4 .cfa: sp 80 +
STACK CFI 221e8 .cfa: x29 80 + x19: .cfa -8 + ^ x20: .cfa -16 + ^ x21: .cfa -24 + ^ x22: .cfa -32 + ^ x23: .cfa -40 + ^ x24: .cfa -48 + ^ x25: .cfa -64 + ^ .ra: .cfa -72 + ^ x29: .cfa -80 + ^
STACK CFI 22278 .cfa: sp 80 +
STACK CFI 2228c .cfa: sp 0 +
STACK CFI 22290 .cfa: x29 80 +
STACK CFI 2229c .cfa: sp 80 +
STACK CFI 222b0 .cfa: sp 0 +
STACK CFI 222b4 .cfa: x29 80 +
STACK CFI INIT 223dc 3ac .cfa: sp 0 +
STACK CFI 223e0 .cfa: sp 128 +
STACK CFI 223fc .cfa: x29 96 + x19: .cfa -8 + ^ x20: .cfa -16 + ^ x21: .cfa -24 + ^ x22: .cfa -32 + ^ x23: .cfa -40 + ^ x24: .cfa -48 + ^ x25: .cfa -56 + ^ x26: .cfa -64 + ^ x27: .cfa -72 + ^ x28: .cfa -80 + ^ .ra: .cfa -88 + ^ x29: .cfa -96 + ^
STACK CFI 22764 .cfa: sp 128 +
STACK CFI 22780 .cfa: sp 0 +
STACK CFI 22784 .cfa: x29 96 +
STACK CFI INIT 22788 194 .cfa: sp 0 +
STACK CFI 2278c .cfa: sp 32 +
STACK CFI 22794 .cfa: x29 16 + .ra: .cfa -8 + ^ x29: .cfa -16 + ^
STACK CFI 227d8 .cfa: sp 32 +
STACK CFI 227e0 .cfa: sp 0 +
STACK CFI 227e4 .cfa: x29 16 +
STACK CFI INIT 2291c 17c .cfa: sp 0 +
STACK CFI 22920 .cfa: sp 80 +
STACK CFI 22934 .cfa: x29 80 + x19: .cfa -8 + ^ x20: .cfa -16 + ^ x21: .cfa -24 + ^ x22: .cfa -32 + ^ x23: .cfa -40 + ^ x24: .cfa -48 + ^ x25: .cfa -64 + ^ .ra: .cfa -72 + ^ x29: .cfa -80 + ^
STACK CFI 22a3c .cfa: sp 80 +
STACK CFI 22a50 .cfa: sp 0 +
STACK CFI 22a54 .cfa: x29 80 +
STACK CFI INIT 22a98 1b8 .cfa: sp 0 +
STACK CFI INIT 22c50 1d0 .cfa: sp 0 +
STACK CFI 22c54 .cfa: sp 80 +
STACK CFI 22c68 .cfa: x29 80 + x19: .cfa -8 + ^ x20: .cfa -16 + ^ x21: .cfa -24 + ^ x22: .cfa -32 + ^ x23: .cfa -40 + ^ x24: .cfa -48 + ^ x25: .cfa -56 + ^ x26: .cfa -64 + ^ .ra: .cfa -72 + ^ x29: .cfa -80 + ^
STACK CFI 22e08 .cfa: sp 80 +
STACK CFI 22e1c .cfa: sp 0 +
STACK CFI INIT 22e20 380 .cfa: sp 0 +
STACK CFI 22e24 .cfa: sp 144 +
STACK CFI 22e40 .cfa: x29 96 + x19: .cfa -8 + ^ x20: .cfa -16 + ^ x21: .cfa -24 + ^ x22: .cfa -32 + ^ x23: .cfa -40 + ^ x24: .cfa -48 + ^ x25: .cfa -56 + ^ x26: .cfa -64 + ^ x27: .cfa -72 + ^ x28: .cfa -80 + ^ .ra: .cfa -88 + ^ x29: .cfa -96 + ^
STACK CFI 2317c .cfa: sp 144 +
STACK CFI 23198 .cfa: sp 0 +
STACK CFI 2319c .cfa: x29 96 +
STACK CFI INIT 231a0 1e4 .cfa: sp 0 +
STACK CFI 231a4 .cfa: sp 32 +
STACK CFI 231ac .cfa: x29 32 + x19: .cfa -8 + ^ x20: .cfa -16 + ^ .ra: .cfa -24 + ^ x29: .cfa -32 + ^
STACK CFI 2329c .cfa: sp 32 +
STACK CFI 232a4 .cfa: sp 0 +
STACK CFI 232a8 .cfa: x29 32 +
STACK CFI 2331c .cfa: sp 32 +
STACK CFI 23324 .cfa: sp 0 +
STACK CFI 23328 .cfa: x29 32 +
STACK CFI 23338 .cfa: sp 32 +
STACK CFI 23340 .cfa: sp 0 +
STACK CFI 23344 .cfa: x29 32 +
STACK CFI 23354 .cfa: sp 32 +
STACK CFI 2335c .cfa: sp 0 +
STACK CFI 23360 .cfa: x29 32 +
STACK CFI INIT 23384 178 .cfa: sp 0 +
STACK CFI 23388 .cfa: sp 80 +
STACK CFI 2339c .cfa: x29 64 + x19: .cfa -8 + ^ x20: .cfa -16 + ^ x21: .cfa -24 + ^ x22: .cfa -32 + ^ x23: .cfa -40 + ^ x24: .cfa -48 + ^ .ra: .cfa -56 + ^ x29: .cfa -64 + ^
STACK CFI 234e0 .cfa: sp 80 +
STACK CFI 234f4 .cfa: sp 0 +
STACK CFI 234f8 .cfa: x29 64 +
STACK CFI INIT 234fc 178 .cfa: sp 0 +
STACK CFI 23500 .cfa: sp 80 +
STACK CFI 23514 .cfa: x29 64 + x19: .cfa -8 + ^ x20: .cfa -16 + ^ x21: .cfa -24 + ^ x22: .cfa -32 + ^ x23: .cfa -40 + ^ x24: .cfa -48 + ^ .ra: .cfa -56 + ^ x29: .cfa -64 + ^
STACK CFI 23658 .cfa: sp 80 +
STACK CFI 2366c .cfa: sp 0 +
STACK CFI 23670 .cfa: x29 64 +
STACK CFI INIT 23674 178 .cfa: sp 0 +
STACK CFI 23678 .cfa: sp 80 +
STACK CFI 2368c .cfa: x29 64 + x19: .cfa -8 + ^ x20: .cfa -16 + ^ x21: .cfa -24 + ^ x22: .cfa -32 + ^ x23: .cfa -40 + ^ x24: .cfa -48 + ^ .ra: .cfa -56 + ^ x29: .cfa -64 + ^
STACK CFI 237d0 .cfa: sp 80 +
STACK CFI 237e4 .cfa: sp 0 +
STACK CFI 237e8 .cfa: x29 64 +
STACK CFI INIT 237ec 94 .cfa: sp 0 +
STACK CFI 237f0 .cfa: sp 16 +
STACK CFI 237f4 .cfa: x29 16 + .ra: .cfa -8 + ^ x29: .cfa -16 + ^
STACK CFI 23848 .cfa: sp 16 +
STACK CFI 2384c .cfa: sp 0 +
STACK CFI 23850 .cfa: x29 16 +
STACK CFI INIT 23880 158 .cfa: sp 0 +
STACK CFI 23884 .cfa: sp 112 +
STACK CFI 238a0 .cfa: x29 96 + x19: .cfa -8 + ^ x20: .cfa -16 + ^ x21: .cfa -24 + ^ x22: .cfa -32 + ^ x23: .cfa -40 + ^ x24: .cfa -48 + ^ x25: .cfa -56 + ^ x26: .cfa -64 + ^ x27: .cfa -72 + ^ x28: .cfa -80 + ^ .ra: .cfa -88 + ^ x29: .cfa -96 + ^
STACK CFI 23988 .cfa: sp 112 +
STACK CFI 2398c .cfa: x29 96 +
STACK CFI 23994 .cfa: sp 112 +
STACK CFI 239b0 .cfa: sp 0 +
STACK CFI 239b4 .cfa: x29 96 +
STACK CFI 239d4 .cfa: sp 112 +
STACK CFI INIT 239d8 94 .cfa: sp 0 +
STACK CFI 239dc .cfa: sp 16 +
STACK CFI 239e0 .cfa: x29 16 + .ra: .cfa -8 + ^ x29: .cfa -16 + ^
STACK CFI 23a34 .cfa: sp 16 +
STACK CFI 23a38 .cfa: sp 0 +
STACK CFI 23a3c .cfa: x29 16 +
STACK CFI INIT 23b84 7c .cfa: sp 0 +
STACK CFI 23b88 .cfa: sp 48 +
STACK CFI 23b94 .cfa: x29 48 + x19: .cfa -8 + ^ x20: .cfa -16 + ^ x21: .cfa -24 + ^ x22: .cfa -32 + ^ .ra: .cfa -40 + ^ x29: .cfa -48 + ^
STACK CFI 23b9c .cfa: sp 48 +
STACK CFI 23ba8 .cfa: sp 0 +
STACK CFI 23bac .cfa: x29 48 +
STACK CFI 23bf0 .cfa: sp 48 +
STACK CFI 23bfc .cfa: sp 0 +
STACK CFI INIT 23c00 14 .cfa: sp 0 +
STACK CFI 23c04 .cfa: sp 16 +
STACK CFI 23c08 .cfa: x29 16 + .ra: .cfa -8 + ^ x29: .cfa -16 + ^
STACK CFI INIT 23c14 4 .cfa: sp 0 +
STACK CFI INIT 23c18 14 .cfa: sp 0 +
STACK CFI INIT 23c2c 4 .cfa: sp 0 +
STACK CFI INIT 23c30 14 .cfa: sp 0 +
STACK CFI INIT 24844 78 .cfa: sp 0 +
STACK CFI 24848 .cfa: sp 48 +
STACK CFI 24854 .cfa: x29 48 + x19: .cfa -8 + ^ x20: .cfa -16 + ^ x21: .cfa -24 + ^ x22: .cfa -32 + ^ .ra: .cfa -40 + ^ x29: .cfa -48 + ^
STACK CFI 2489c .cfa: sp 48 +
STACK CFI 248a8 .cfa: sp 0 +
STACK CFI 248ac .cfa: sp 48 +
STACK CFI 248b8 .cfa: sp 0 +
STACK CFI INIT 248bc 178 .cfa: sp 0 +
STACK CFI 248c0 .cfa: sp 80 +
STACK CFI 248d4 .cfa: x29 64 + x19: .cfa -8 + ^ x20: .cfa -16 + ^ x21: .cfa -24 + ^ x22: .cfa -32 + ^ x23: .cfa -40 + ^ x24: .cfa -48 + ^ .ra: .cfa -56 + ^ x29: .cfa -64 + ^
STACK CFI 24a18 .cfa: sp 80 +
STACK CFI 24a2c .cfa: sp 0 +
STACK CFI 24a30 .cfa: x29 64 +
STACK CFI INIT 24a34 8 .cfa: sp 0 +
STACK CFI INIT 24a3c 14 .cfa: sp 0 +
STACK CFI INIT 24a50 50 .cfa: sp 0 +
STACK CFI 24a54 .cfa: sp 32 +
STACK CFI 24a5c .cfa: x29 32 + x19: .cfa -8 + ^ x20: .cfa -16 + ^ .ra: .cfa -24 + ^ x29: .cfa -32 + ^
STACK CFI 24a94 .cfa: sp 32 +
STACK CFI 24a9c .cfa: sp 0 +
STACK CFI INIT 24aa0 58 .cfa: sp 0 +
STACK CFI 24aa4 .cfa: sp 32 +
STACK CFI 24aac .cfa: x29 32 + x19: .cfa -8 + ^ x20: .cfa -16 + ^ .ra: .cfa -24 + ^ x29: .cfa -32 + ^
STACK CFI 24aec .cfa: sp 32 +
STACK CFI 24af4 .cfa: sp 0 +
STACK CFI INIT 24af8 10 .cfa: sp 0 +
STACK CFI INIT 24b08 30 .cfa: sp 0 +
STACK CFI 24b0c .cfa: sp 32 +
STACK CFI 24b14 .cfa: x29 32 + x19: .cfa -16 + ^ .ra: .cfa -24 + ^ x29: .cfa -32 + ^
STACK CFI 24b2c .cfa: sp 32 +
STACK CFI 24b34 .cfa: sp 0 +
STACK CFI INIT 24b38 4 .cfa: sp 0 +
STACK CFI INIT 24b3c 4 .cfa: sp 0 +
STACK CFI INIT 24b40 4 .cfa: sp 0 +
STACK CFI INIT 24b44 4 .cfa: sp 0 +
STACK CFI INIT 24b48 34 .cfa: sp 0 +
STACK CFI 24b4c .cfa: sp 32 +
STACK CFI 24b54 .cfa: x29 32 + x19: .cfa -16 + ^ .ra: .cfa -24 + ^ x29: .cfa -32 + ^
STACK CFI 24b70 .cfa: sp 32 +
STACK CFI 24b78 .cfa: sp 0 +
STACK CFI INIT 24b7c 14 .cfa: sp 0 +
STACK CFI INIT 24b90 4 .cfa: sp 0 +
STACK CFI INIT 24b94 4 .cfa: sp 0 +
STACK CFI INIT 24b98 14 .cfa: sp 0 +
STACK CFI INIT 24bac 1c .cfa: sp 0 +
STACK CFI INIT 24bc8 c .cfa: sp 0 +
STACK CFI INIT 24bd4 30 .cfa: sp 0 +
STACK CFI 24bd8 .cfa: sp 32 +
STACK CFI 24be0 .cfa: x29 32 + x19: .cfa -16 + ^ .ra: .cfa -24 + ^ x29: .cfa -32 + ^
STACK CFI 24bf8 .cfa: sp 32 +
STACK CFI 24c00 .cfa: sp 0 +
STACK CFI INIT 24c04 4c .cfa: sp 0 +
STACK CFI 24c08 .cfa: sp 32 +
STACK CFI 24c10 .cfa: x29 32 + x19: .cfa -8 + ^ x20: .cfa -16 + ^ .ra: .cfa -24 + ^ x29: .cfa -32 + ^
STACK CFI 24c38 .cfa: sp 32 +
STACK CFI 24c40 .cfa: sp 0 +
STACK CFI 24c44 .cfa: sp 32 +
STACK CFI 24c4c .cfa: sp 0 +
STACK CFI INIT 24e70 64 .cfa: sp 0 +
STACK CFI 24e74 .cfa: sp 32 +
STACK CFI 24e7c .cfa: x29 32 + x19: .cfa -16 + ^ .ra: .cfa -24 + ^ x29: .cfa -32 + ^
STACK CFI 24ea8 .cfa: sp 32 +
STACK CFI 24eb0 .cfa: sp 0 +
STACK CFI 24eb4 .cfa: x29 32 +
STACK CFI 24ec8 .cfa: sp 32 +
STACK CFI 24ed0 .cfa: sp 0 +
STACK CFI INIT 250ec 24 .cfa: sp 0 +
STACK CFI 250f0 .cfa: sp 32 +
STACK CFI 250f8 .cfa: x29 32 + x19: .cfa -16 + ^ .ra: .cfa -24 + ^ x29: .cfa -32 + ^
STACK CFI 25104 .cfa: sp 32 +
STACK CFI 2510c .cfa: sp 0 +
STACK CFI INIT 25110 24 .cfa: sp 0 +
STACK CFI 25114 .cfa: sp 32 +
STACK CFI 2511c .cfa: x29 32 + x19: .cfa -16 + ^ .ra: .cfa -24 + ^ x29: .cfa -32 + ^
STACK CFI 25128 .cfa: sp 32 +
STACK CFI 25130 .cfa: sp 0 +
STACK CFI INIT 25134 8 .cfa: sp 0 +
STACK CFI INIT 2513c 24 .cfa: sp 0 +
STACK CFI 25140 .cfa: sp 32 +
STACK CFI 25148 .cfa: x29 32 + x19: .cfa -16 + ^ .ra: .cfa -24 + ^ x29: .cfa -32 + ^
STACK CFI 25154 .cfa: sp 32 +
STACK CFI 2515c .cfa: sp 0 +
STACK CFI INIT 25160 28 .cfa: sp 0 +
STACK CFI 25164 .cfa: sp 32 +
STACK CFI 2516c .cfa: x29 32 + x19: .cfa -16 + ^ .ra: .cfa -24 + ^ x29: .cfa -32 + ^
STACK CFI 2517c .cfa: sp 32 +
STACK CFI 25184 .cfa: sp 0 +
STACK CFI INIT 25478 8 .cfa: sp 0 +
STACK CFI INIT 25480 24 .cfa: sp 0 +
STACK CFI 25484 .cfa: sp 32 +
STACK CFI 2548c .cfa: x29 32 + x19: .cfa -16 + ^ .ra: .cfa -24 + ^ x29: .cfa -32 + ^
STACK CFI 25498 .cfa: sp 32 +
STACK CFI 254a0 .cfa: sp 0 +
STACK CFI INIT 254a4 28 .cfa: sp 0 +
STACK CFI 254a8 .cfa: sp 32 +
STACK CFI 254b0 .cfa: x29 32 + x19: .cfa -16 + ^ .ra: .cfa -24 + ^ x29: .cfa -32 + ^
STACK CFI 254c0 .cfa: sp 32 +
STACK CFI 254c8 .cfa: sp 0 +
STACK CFI INIT 2572c 8 .cfa: sp 0 +
STACK CFI INIT 25734 24 .cfa: sp 0 +
STACK CFI 25738 .cfa: sp 32 +
STACK CFI 25740 .cfa: x29 32 + x19: .cfa -16 + ^ .ra: .cfa -24 + ^ x29: .cfa -32 + ^
STACK CFI 2574c .cfa: sp 32 +
STACK CFI 25754 .cfa: sp 0 +
STACK CFI INIT 25758 28 .cfa: sp 0 +
STACK CFI 2575c .cfa: sp 32 +
STACK CFI 25764 .cfa: x29 32 + x19: .cfa -16 + ^ .ra: .cfa -24 + ^ x29: .cfa -32 + ^
STACK CFI 25774 .cfa: sp 32 +
STACK CFI 2577c .cfa: sp 0 +
STACK CFI INIT 25780 8 .cfa: sp 0 +
STACK CFI INIT 25788 24 .cfa: sp 0 +
STACK CFI 2578c .cfa: sp 32 +
STACK CFI 25794 .cfa: x29 32 + x19: .cfa -16 + ^ .ra: .cfa -24 + ^ x29: .cfa -32 + ^
STACK CFI 257a0 .cfa: sp 32 +
STACK CFI 257a8 .cfa: sp 0 +
STACK CFI INIT 257ac 28 .cfa: sp 0 +
STACK CFI 257b0 .cfa: sp 32 +
STACK CFI 257b8 .cfa: x29 32 + x19: .cfa -16 + ^ .ra: .cfa -24 + ^ x29: .cfa -32 + ^
STACK CFI 257c8 .cfa: sp 32 +
STACK CFI 257d0 .cfa: sp 0 +
STACK CFI INIT 25ad4 4 .cfa: sp 0 +
STACK CFI INIT 25ad8 4 .cfa: sp 0 +
STACK CFI INIT 25adc 4 .cfa: sp 0 +
STACK CFI INIT 25ae0 4 .cfa: sp 0 +
STACK CFI INIT 25ae4 8 .cfa: sp 0 +
STACK CFI INIT 25aec 4 .cfa: sp 0 +
STACK CFI INIT 25e84 4 .cfa: sp 0 +
STACK CFI INIT 26fa0 4 .cfa: sp 0 +
STACK CFI INIT 26fa4 14 .cfa: sp 0 +
STACK CFI INIT 273e8 c .cfa: sp 0 +
STACK CFI INIT 273f4 24c .cfa: sp 0 +
STACK CFI INIT 27640 a0 .cfa: sp 0 +
STACK CFI 2764c .cfa: sp 32 +
STACK CFI 276a4 .cfa: sp 0 +
STACK CFI 276a8 .cfa: sp 32 +
STACK CFI 276b0 .cfa: sp 0 +
STACK CFI 276b4 .cfa: sp 32 +
STACK CFI 276c8 .cfa: sp 0 +
STACK CFI 276cc .cfa: sp 32 +
STACK CFI 276dc .cfa: sp 0 +
STACK CFI INIT 276e0 38 .cfa: sp 0 +
STACK CFI 276ec .cfa: sp 32 +
STACK CFI 27714 .cfa: sp 0 +
STACK CFI INIT 279ac 70 .cfa: sp 0 +
STACK CFI 279b0 .cfa: sp 32 +
STACK CFI 279b8 .cfa: x29 32 + x19: .cfa -16 + ^ .ra: .cfa -24 + ^ x29: .cfa -32 + ^
STACK CFI 279ec .cfa: sp 32 +
STACK CFI 279f4 .cfa: sp 0 +
STACK CFI 279f8 .cfa: x29 32 +
STACK CFI INIT 27a6c 2c .cfa: sp 0 +
STACK CFI 27a70 .cfa: sp 32 +
STACK CFI 27a78 .cfa: x29 32 + x19: .cfa -16 + ^ .ra: .cfa -24 + ^ x29: .cfa -32 + ^
STACK CFI 27a8c .cfa: sp 32 +
STACK CFI 27a94 .cfa: sp 0 +
STACK CFI INIT 281e8 64 .cfa: sp 0 +
STACK CFI 281ec .cfa: sp 32 +
STACK CFI 281f4 .cfa: x29 32 + x19: .cfa -16 + ^ .ra: .cfa -24 + ^ x29: .cfa -32 + ^
STACK CFI 28210 .cfa: sp 32 +
STACK CFI 28218 .cfa: sp 0 +
STACK CFI 2821c .cfa: x29 32 +
STACK CFI 28240 .cfa: sp 32 +
STACK CFI 28248 .cfa: sp 0 +
STACK CFI INIT 28378 3c8 .cfa: sp 0 +
STACK CFI 2837c .cfa: sp 208 +
STACK CFI 28390 .cfa: x29 64 + x19: .cfa -8 + ^ x20: .cfa -16 + ^ x21: .cfa -24 + ^ x22: .cfa -32 + ^ x23: .cfa -40 + ^ x24: .cfa -48 + ^ .ra: .cfa -56 + ^ x29: .cfa -64 + ^
STACK CFI 285a8 .cfa: sp 208 +
STACK CFI 285bc .cfa: sp 0 +
STACK CFI 285c0 .cfa: x29 64 +
STACK CFI INIT 28740 228 .cfa: sp 0 +
STACK CFI INIT 28968 2b4 .cfa: sp 0 +
STACK CFI INIT 28c1c 530 .cfa: sp 0 +
STACK CFI INIT 2914c 78 .cfa: sp 0 +
STACK CFI 29150 .cfa: sp 32 +
STACK CFI 29158 .cfa: x29 32 + x19: .cfa -16 + ^ .ra: .cfa -24 + ^ x29: .cfa -32 + ^
STACK CFI 29194 .cfa: sp 32 +
STACK CFI 2919c .cfa: sp 0 +
STACK CFI 291a0 .cfa: x29 32 +
STACK CFI INIT 291c4 24 .cfa: sp 0 +
STACK CFI 291c8 .cfa: sp 32 +
STACK CFI 291d0 .cfa: x29 32 + x19: .cfa -16 + ^ .ra: .cfa -24 + ^ x29: .cfa -32 + ^
STACK CFI 291dc .cfa: sp 32 +
STACK CFI 291e4 .cfa: sp 0 +
STACK CFI INIT 291e8 6c .cfa: sp 0 +
STACK CFI 291ec .cfa: sp 64 +
STACK CFI 291f8 .cfa: x29 32 + x19: .cfa -16 + ^ .ra: .cfa -24 + ^ x29: .cfa -32 + ^
STACK CFI 29240 .cfa: sp 64 +
STACK CFI 2924c .cfa: sp 0 +
STACK CFI 29250 .cfa: x29 32 +
STACK CFI INIT 29254 74 .cfa: sp 0 +
STACK CFI 29258 .cfa: sp 32 +
STACK CFI 29260 .cfa: x29 32 + x19: .cfa -8 + ^ x20: .cfa -16 + ^ .ra: .cfa -24 + ^ x29: .cfa -32 + ^
STACK CFI 292bc .cfa: sp 32 +
STACK CFI 292c4 .cfa: sp 0 +
STACK CFI INIT 292c8 f0 .cfa: sp 0 +
STACK CFI 292cc .cfa: sp 112 +
STACK CFI 292dc .cfa: x29 48 + x19: .cfa -8 + ^ x20: .cfa -16 + ^ x21: .cfa -32 + ^ .ra: .cfa -40 + ^ x29: .cfa -48 + ^
STACK CFI 293a0 .cfa: sp 112 +
STACK CFI 293b0 .cfa: sp 0 +
STACK CFI 293b4 .cfa: x29 48 +
STACK CFI INIT 293b8 f0 .cfa: sp 0 +
STACK CFI 293bc .cfa: sp 112 +
STACK CFI 293cc .cfa: x29 48 + x19: .cfa -8 + ^ x20: .cfa -16 + ^ x21: .cfa -32 + ^ .ra: .cfa -40 + ^ x29: .cfa -48 + ^
STACK CFI 29490 .cfa: sp 112 +
STACK CFI 294a0 .cfa: sp 0 +
STACK CFI 294a4 .cfa: x29 48 +
STACK CFI INIT 294a8 48 .cfa: sp 0 +
STACK CFI 294ac .cfa: sp 32 +
STACK CFI 294b4 .cfa: x29 32 + x19: .cfa -8 + ^ x20: .cfa -16 + ^ .ra: .cfa -24 + ^ x29: .cfa -32 + ^
STACK CFI 294d8 .cfa: sp 32 +
STACK CFI 294e0 .cfa: sp 0 +
STACK CFI 294e4 .cfa: x29 32 +
STACK CFI INIT 294f0 9c .cfa: sp 0 +
STACK CFI 294f4 .cfa: sp 80 +
STACK CFI 29500 .cfa: x29 32 + x19: .cfa -16 + ^ .ra: .cfa -24 + ^ x29: .cfa -32 + ^
STACK CFI 29578 .cfa: sp 80 +
STACK CFI 29584 .cfa: sp 0 +
STACK CFI 29588 .cfa: x29 32 +
STACK CFI INIT 2958c 220 .cfa: sp 0 +
STACK CFI 29590 .cfa: sp 112 +
STACK CFI 295a8 .cfa: x29 80 + x19: .cfa -8 + ^ x20: .cfa -16 + ^ x21: .cfa -24 + ^ x22: .cfa -32 + ^ x23: .cfa -40 + ^ x24: .cfa -48 + ^ x25: .cfa -64 + ^ .ra: .cfa -72 + ^ x29: .cfa -80 + ^
STACK CFI 2976c .cfa: sp 112 +
STACK CFI 29784 .cfa: sp 0 +
STACK CFI 29788 .cfa: x29 80 +
STACK CFI INIT 297ac 150 .cfa: sp 0 +
STACK CFI 297b0 .cfa: sp 48 +
STACK CFI 297bc .cfa: x29 48 + x19: .cfa -8 + ^ x20: .cfa -16 + ^ x21: .cfa -24 + ^ x22: .cfa -32 + ^ .ra: .cfa -40 + ^ x29: .cfa -48 + ^
STACK CFI 298ec .cfa: sp 48 +
STACK CFI 298f8 .cfa: sp 0 +
STACK CFI INIT 298fc 1c4 .cfa: sp 0 +
STACK CFI 29900 .cfa: sp 96 +
STACK CFI 29914 .cfa: x29 64 + x19: .cfa -8 + ^ x20: .cfa -16 + ^ x21: .cfa -24 + ^ x22: .cfa -32 + ^ x23: .cfa -40 + ^ x24: .cfa -48 + ^ .ra: .cfa -56 + ^ x29: .cfa -64 + ^
STACK CFI 29a84 .cfa: sp 96 +
STACK CFI 29a98 .cfa: sp 0 +
STACK CFI 29a9c .cfa: x29 64 +
STACK CFI INIT 29ac0 244 .cfa: sp 0 +
STACK CFI 29ac4 .cfa: sp 112 +
STACK CFI 29adc .cfa: x29 80 + x19: .cfa -8 + ^ x20: .cfa -16 + ^ x21: .cfa -24 + ^ x22: .cfa -32 + ^ x23: .cfa -40 + ^ x24: .cfa -48 + ^ x25: .cfa -64 + ^ .ra: .cfa -72 + ^ x29: .cfa -80 + ^
STACK CFI 29cc4 .cfa: sp 112 +
STACK CFI 29cdc .cfa: sp 0 +
STACK CFI 29ce0 .cfa: x29 80 +
STACK CFI INIT 29d04 1ec .cfa: sp 0 +
STACK CFI 29d08 .cfa: sp 96 +
STACK CFI 29d1c .cfa: x29 64 + x19: .cfa -8 + ^ x20: .cfa -16 + ^ x21: .cfa -24 + ^ x22: .cfa -32 + ^ x23: .cfa -40 + ^ x24: .cfa -48 + ^ .ra: .cfa -56 + ^ x29: .cfa -64 + ^
STACK CFI 29eb4 .cfa: sp 96 +
STACK CFI 29ec8 .cfa: sp 0 +
STACK CFI 29ecc .cfa: x29 64 +
STACK CFI INIT 29ef0 304 .cfa: sp 0 +
STACK CFI 29ef4 .cfa: sp 160 +
STACK CFI 29f10 .cfa: x29 96 + x19: .cfa -8 + ^ x20: .cfa -16 + ^ x21: .cfa -24 + ^ x22: .cfa -32 + ^ x23: .cfa -40 + ^ x24: .cfa -48 + ^ x25: .cfa -56 + ^ x26: .cfa -64 + ^ x27: .cfa -72 + ^ x28: .cfa -80 + ^ .ra: .cfa -88 + ^ x29: .cfa -96 + ^
STACK CFI 2a198 .cfa: sp 160 +
STACK CFI 2a1b4 .cfa: sp 0 +
STACK CFI 2a1b8 .cfa: x29 96 +
STACK CFI INIT 2a1f4 2a4 .cfa: sp 0 +
STACK CFI 2a1f8 .cfa: sp 144 +
STACK CFI 2a214 .cfa: x29 96 + x19: .cfa -8 + ^ x20: .cfa -16 + ^ x21: .cfa -24 + ^ x22: .cfa -32 + ^ x23: .cfa -40 + ^ x24: .cfa -48 + ^ x25: .cfa -56 + ^ x26: .cfa -64 + ^ x27: .cfa -72 + ^ x28: .cfa -80 + ^ .ra: .cfa -88 + ^ x29: .cfa -96 + ^
STACK CFI 2a43c .cfa: sp 144 +
STACK CFI 2a458 .cfa: sp 0 +
STACK CFI 2a45c .cfa: x29 96 +
STACK CFI INIT 2a498 2b4 .cfa: sp 0 +
STACK CFI 2a49c .cfa: sp 128 +
STACK CFI 2a4b4 .cfa: x29 80 + x19: .cfa -8 + ^ x20: .cfa -16 + ^ x21: .cfa -24 + ^ x22: .cfa -32 + ^ x23: .cfa -40 + ^ x24: .cfa -48 + ^ x25: .cfa -56 + ^ x26: .cfa -64 + ^ .ra: .cfa -72 + ^ x29: .cfa -80 + ^
STACK CFI 2a6a8 .cfa: sp 128 +
STACK CFI 2a6c0 .cfa: sp 0 +
STACK CFI 2a6c4 .cfa: x29 80 +
STACK CFI 2a72c .cfa: sp 128 +
STACK CFI 2a744 .cfa: sp 0 +
STACK CFI 2a748 .cfa: x29 80 +
STACK CFI INIT 2a74c dd4 .cfa: sp 0 +
STACK CFI 2a750 .cfa: sp 144 +
STACK CFI 2a76c .cfa: x29 96 + x19: .cfa -8 + ^ x20: .cfa -16 + ^ x21: .cfa -24 + ^ x22: .cfa -32 + ^ x23: .cfa -40 + ^ x24: .cfa -48 + ^ x25: .cfa -56 + ^ x26: .cfa -64 + ^ x27: .cfa -72 + ^ x28: .cfa -80 + ^ .ra: .cfa -88 + ^ x29: .cfa -96 + ^
STACK CFI 2b4fc .cfa: sp 144 +
STACK CFI 2b518 .cfa: sp 0 +
STACK CFI 2b51c .cfa: x29 96 +
STACK CFI INIT 2b520 254 .cfa: sp 0 +
STACK CFI 2b524 .cfa: sp 112 +
STACK CFI 2b538 .cfa: x29 64 + x19: .cfa -8 + ^ x20: .cfa -16 + ^ x21: .cfa -24 + ^ x22: .cfa -32 + ^ x23: .cfa -40 + ^ x24: .cfa -48 + ^ .ra: .cfa -56 + ^ x29: .cfa -64 + ^
STACK CFI 2b6a4 .cfa: sp 112 +
STACK CFI 2b6b8 .cfa: sp 0 +
STACK CFI 2b6bc .cfa: x29 64 +
STACK CFI 2b72c .cfa: sp 112 +
STACK CFI 2b740 .cfa: sp 0 +
STACK CFI 2b744 .cfa: x29 64 +
STACK CFI INIT 2b774 258 .cfa: sp 0 +
STACK CFI 2b778 .cfa: sp 96 +
STACK CFI 2b790 .cfa: x29 96 + x19: .cfa -8 + ^ x20: .cfa -16 + ^ x21: .cfa -24 + ^ x22: .cfa -32 + ^ x23: .cfa -40 + ^ x24: .cfa -48 + ^ x25: .cfa -56 + ^ x26: .cfa -64 + ^ x27: .cfa -72 + ^ x28: .cfa -80 + ^ .ra: .cfa -88 + ^ x29: .cfa -96 + ^
STACK CFI 2b988 .cfa: sp 96 +
STACK CFI 2b9a0 .cfa: sp 0 +
STACK CFI 2b9a4 .cfa: x29 96 +
STACK CFI 2b9b0 .cfa: sp 96 +
STACK CFI 2b9c8 .cfa: sp 0 +
STACK CFI INIT 2c608 154 .cfa: sp 0 +
STACK CFI 2c60c .cfa: sp 96 +
STACK CFI 2c620 .cfa: x29 64 + x19: .cfa -8 + ^ x20: .cfa -16 + ^ x21: .cfa -24 + ^ x22: .cfa -32 + ^ x23: .cfa -48 + ^ .ra: .cfa -56 + ^ x29: .cfa -64 + ^
STACK CFI 2c700 .cfa: sp 96 +
STACK CFI 2c714 .cfa: sp 0 +
STACK CFI 2c718 .cfa: x29 64 +
STACK CFI INIT 2c994 44 .cfa: sp 0 +
STACK CFI 2c998 .cfa: sp 32 +
STACK CFI 2c9a0 .cfa: x29 32 + x19: .cfa -16 + ^ .ra: .cfa -24 + ^ x29: .cfa -32 + ^
STACK CFI 2c9bc .cfa: sp 32 +
STACK CFI 2c9c4 .cfa: sp 0 +
STACK CFI 2c9c8 .cfa: x29 32 +
STACK CFI 2c9cc .cfa: sp 32 +
STACK CFI 2c9d4 .cfa: sp 0 +
STACK CFI INIT 2c9d8 1a4 .cfa: sp 0 +
STACK CFI 2c9dc .cfa: sp 64 +
STACK CFI 2c9ec .cfa: x29 64 + x19: .cfa -8 + ^ x20: .cfa -16 + ^ x21: .cfa -24 + ^ x22: .cfa -32 + ^ x23: .cfa -40 + ^ x24: .cfa -48 + ^ .ra: .cfa -56 + ^ x29: .cfa -64 + ^
STACK CFI 2cb68 .cfa: sp 64 +
STACK CFI 2cb78 .cfa: sp 0 +
STACK CFI INIT 2cb7c 17c .cfa: sp 0 +
STACK CFI INIT 2ccf8 ac .cfa: sp 0 +
STACK CFI 2ccfc .cfa: sp 64 +
STACK CFI 2cd0c .cfa: x29 64 + x19: .cfa -8 + ^ x20: .cfa -16 + ^ x21: .cfa -24 + ^ x22: .cfa -32 + ^ x23: .cfa -48 + ^ .ra: .cfa -56 + ^ x29: .cfa -64 + ^
STACK CFI 2cd88 .cfa: sp 64 +
STACK CFI 2cd98 .cfa: sp 0 +
STACK CFI 2cd9c .cfa: x29 64 +
STACK CFI INIT 2cda4 100 .cfa: sp 0 +
STACK CFI 2cda8 .cfa: sp 64 +
STACK CFI 2cdb8 .cfa: x29 64 + x19: .cfa -8 + ^ x20: .cfa -16 + ^ x21: .cfa -24 + ^ x22: .cfa -32 + ^ x23: .cfa -40 + ^ x24: .cfa -48 + ^ .ra: .cfa -56 + ^ x29: .cfa -64 + ^
STACK CFI 2ce88 .cfa: sp 64 +
STACK CFI 2ce98 .cfa: sp 0 +
STACK CFI 2ce9c .cfa: x29 64 +
STACK CFI INIT 2d248 a0 .cfa: sp 0 +
STACK CFI 2d24c .cfa: sp 48 +
STACK CFI 2d258 .cfa: x29 48 + x19: .cfa -8 + ^ x20: .cfa -16 + ^ x21: .cfa -24 + ^ x22: .cfa -32 + ^ .ra: .cfa -40 + ^ x29: .cfa -48 + ^
STACK CFI 2d2c4 .cfa: sp 48 +
STACK CFI 2d2d0 .cfa: sp 0 +
STACK CFI 2d2d4 .cfa: sp 48 +
STACK CFI 2d2e0 .cfa: sp 0 +
STACK CFI 2d2e4 .cfa: x29 48 +
STACK CFI INIT 2df60 158 .cfa: sp 0 +
STACK CFI 2df64 .cfa: sp 96 +
STACK CFI 2df78 .cfa: x29 64 + x19: .cfa -8 + ^ x20: .cfa -16 + ^ x21: .cfa -24 + ^ x22: .cfa -32 + ^ x23: .cfa -48 + ^ .ra: .cfa -56 + ^ x29: .cfa -64 + ^
STACK CFI 2e05c .cfa: sp 96 +
STACK CFI 2e070 .cfa: sp 0 +
STACK CFI 2e074 .cfa: x29 64 +
STACK CFI INIT 2e0b8 190 .cfa: sp 0 +
STACK CFI INIT 2ed18 1f4 .cfa: sp 0 +
STACK CFI 2ed1c .cfa: sp 80 +
STACK CFI 2ed30 .cfa: x29 80 + x19: .cfa -8 + ^ x20: .cfa -16 + ^ x21: .cfa -24 + ^ x22: .cfa -32 + ^ x23: .cfa -40 + ^ x24: .cfa -48 + ^ x25: .cfa -64 + ^ .ra: .cfa -72 + ^ x29: .cfa -80 + ^
STACK CFI 2eed0 .cfa: sp 80 +
STACK CFI 2eee4 .cfa: sp 0 +
STACK CFI 2eee8 .cfa: x29 80 +
STACK CFI 2eef4 .cfa: sp 80 +
STACK CFI 2ef08 .cfa: sp 0 +
STACK CFI INIT 3025c 124 .cfa: sp 0 +
STACK CFI 3028c .cfa: sp 32 +
STACK CFI 30294 .cfa: x29 32 + x19: .cfa -8 + ^ x20: .cfa -16 + ^ .ra: .cfa -24 + ^ x29: .cfa -32 + ^
STACK CFI 30374 .cfa: sp 32 +
STACK CFI 3037c .cfa: sp 0 +
STACK CFI INIT 30ac4 2f4 .cfa: sp 0 +
STACK CFI 30ac8 .cfa: sp 64 +
STACK CFI 30ad8 .cfa: x29 64 + x19: .cfa -8 + ^ x20: .cfa -16 + ^ x21: .cfa -24 + ^ x22: .cfa -32 + ^ x23: .cfa -40 + ^ x24: .cfa -48 + ^ .ra: .cfa -56 + ^ x29: .cfa -64 + ^
STACK CFI 30d34 .cfa: sp 64 +
STACK CFI 30d44 .cfa: sp 0 +
STACK CFI 30d48 .cfa: x29 64 +
STACK CFI INIT 30db8 a0 .cfa: sp 0 +
STACK CFI 30dbc .cfa: sp 48 +
STACK CFI 30dc8 .cfa: x29 48 + x19: .cfa -8 + ^ x20: .cfa -16 + ^ x21: .cfa -24 + ^ x22: .cfa -32 + ^ .ra: .cfa -40 + ^ x29: .cfa -48 + ^
STACK CFI 30e34 .cfa: sp 48 +
STACK CFI 30e40 .cfa: sp 0 +
STACK CFI 30e44 .cfa: sp 48 +
STACK CFI 30e50 .cfa: sp 0 +
STACK CFI 30e54 .cfa: x29 48 +
STACK CFI INIT 31cf4 168 .cfa: sp 0 +
STACK CFI 31cf8 .cfa: sp 64 +
STACK CFI 31d08 .cfa: x29 64 + x19: .cfa -8 + ^ x20: .cfa -16 + ^ x21: .cfa -24 + ^ x22: .cfa -32 + ^ x23: .cfa -48 + ^ .ra: .cfa -56 + ^ x29: .cfa -64 + ^
STACK CFI 31e08 .cfa: sp 64 +
STACK CFI 31e18 .cfa: sp 0 +
STACK CFI 31e1c .cfa: x29 64 +
STACK CFI INIT 31e5c 214 .cfa: sp 0 +
STACK CFI 31e60 .cfa: sp 128 +
STACK CFI 31e7c .cfa: x29 96 + x19: .cfa -8 + ^ x20: .cfa -16 + ^ x21: .cfa -24 + ^ x22: .cfa -32 + ^ x23: .cfa -40 + ^ x24: .cfa -48 + ^ x25: .cfa -56 + ^ x26: .cfa -64 + ^ x27: .cfa -80 + ^ .ra: .cfa -88 + ^ x29: .cfa -96 + ^
STACK CFI 31ff8 .cfa: sp 128 +
STACK CFI 32014 .cfa: sp 0 +
STACK CFI 32018 .cfa: x29 96 +
STACK CFI INIT 33534 e30 .cfa: sp 0 +
STACK CFI 33538 .cfa: sp 192 +
STACK CFI 33554 .cfa: x29 96 + x19: .cfa -8 + ^ x20: .cfa -16 + ^ x21: .cfa -24 + ^ x22: .cfa -32 + ^ x23: .cfa -40 + ^ x24: .cfa -48 + ^ x25: .cfa -56 + ^ x26: .cfa -64 + ^ x27: .cfa -72 + ^ x28: .cfa -80 + ^ .ra: .cfa -88 + ^ x29: .cfa -96 + ^
STACK CFI 34340 .cfa: sp 192 +
STACK CFI 3435c .cfa: sp 0 +
STACK CFI 34360 .cfa: x29 96 +
STACK CFI INIT 34364 fd4 .cfa: sp 0 +
STACK CFI 34368 .cfa: sp 288 +
STACK CFI 34384 .cfa: x29 96 + x19: .cfa -8 + ^ x20: .cfa -16 + ^ x21: .cfa -24 + ^ x22: .cfa -32 + ^ x23: .cfa -40 + ^ x24: .cfa -48 + ^ x25: .cfa -56 + ^ x26: .cfa -64 + ^ x27: .cfa -72 + ^ x28: .cfa -80 + ^ .ra: .cfa -88 + ^ x29: .cfa -96 + ^
STACK CFI 35314 .cfa: sp 288 +
STACK CFI 35330 .cfa: sp 0 +
STACK CFI 35334 .cfa: x29 96 +
STACK CFI INIT 35338 510 .cfa: sp 0 +
STACK CFI 3533c .cfa: sp 144 +
STACK CFI 35358 .cfa: x29 96 + x19: .cfa -8 + ^ x20: .cfa -16 + ^ x21: .cfa -24 + ^ x22: .cfa -32 + ^ x23: .cfa -40 + ^ x24: .cfa -48 + ^ x25: .cfa -56 + ^ x26: .cfa -64 + ^ x27: .cfa -72 + ^ x28: .cfa -80 + ^ .ra: .cfa -88 + ^ x29: .cfa -96 + ^
STACK CFI 35824 .cfa: sp 144 +
STACK CFI 35840 .cfa: sp 0 +
STACK CFI 35844 .cfa: x29 96 +
STACK CFI INIT 19110 b30 .cfa: sp 0 +
STACK CFI 19114 .cfa: sp 240 +
STACK CFI 19130 .cfa: x29 96 + x19: .cfa -8 + ^ x20: .cfa -16 + ^ x21: .cfa -24 + ^ x22: .cfa -32 + ^ x23: .cfa -40 + ^ x24: .cfa -48 + ^ x25: .cfa -56 + ^ x26: .cfa -64 + ^ x27: .cfa -72 + ^ x28: .cfa -80 + ^ .ra: .cfa -88 + ^ x29: .cfa -96 + ^
STACK CFI 194ec .cfa: sp 240 +
STACK CFI 19508 .cfa: sp 0 +
STACK CFI 1950c .cfa: x29 96 +
STACK CFI 19aec .cfa: sp 240 +
STACK CFI 19b08 .cfa: sp 0 +
STACK CFI 19b0c .cfa: x29 96 +
STACK CFI INIT 19c58 428 .cfa: sp 0 +
STACK CFI 19c5c .cfa: sp 256 +
STACK CFI 19c78 .cfa: x29 96 + x19: .cfa -8 + ^ x20: .cfa -16 + ^ x21: .cfa -24 + ^ x22: .cfa -32 + ^ x23: .cfa -40 + ^ x24: .cfa -48 + ^ x25: .cfa -56 + ^ x26: .cfa -64 + ^ x27: .cfa -72 + ^ x28: .cfa -80 + ^ .ra: .cfa -88 + ^ x29: .cfa -96 + ^
STACK CFI 19f80 .cfa: sp 256 +
STACK CFI 19f9c .cfa: sp 0 +
STACK CFI 19fa0 .cfa: x29 96 +
STACK CFI INIT 1a0d0 74 .cfa: sp 0 +
STACK CFI 1a0d4 .cfa: sp 48 +
STACK CFI 1a0e0 .cfa: x29 32 + x19: .cfa -8 + ^ x20: .cfa -16 + ^ .ra: .cfa -24 + ^ x29: .cfa -32 + ^
STACK CFI 1a12c .cfa: sp 48 +
STACK CFI 1a138 .cfa: sp 0 +
STACK CFI 1a13c .cfa: x29 32 +
STACK CFI INIT 1a1d4 154 .cfa: sp 0 +
STACK CFI 1a1d8 .cfa: sp 384 +
STACK CFI 1a1ec .cfa: x29 64 + x19: .cfa -8 + ^ x20: .cfa -16 + ^ x21: .cfa -24 + ^ x22: .cfa -32 + ^ x23: .cfa -40 + ^ x28: .cfa -48 + ^ .ra: .cfa -56 + ^ x29: .cfa -64 + ^
STACK CFI 1a2d0 .cfa: sp 384 +
STACK CFI 1a2e4 .cfa: sp 0 +
STACK CFI 1a2e8 .cfa: x29 64 +
STACK CFI INIT 1a35c 124 .cfa: sp 0 +
STACK CFI 1a360 .cfa: sp 80 +
STACK CFI 1a374 .cfa: x29 80 + x19: .cfa -8 + ^ x20: .cfa -16 + ^ x21: .cfa -24 + ^ x22: .cfa -32 + ^ x23: .cfa -40 + ^ x24: .cfa -48 + ^ x25: .cfa -56 + ^ x26: .cfa -64 + ^ .ra: .cfa -72 + ^ x29: .cfa -80 + ^
STACK CFI 1a440 .cfa: sp 80 +
STACK CFI 1a454 .cfa: sp 0 +
STACK CFI 1a458 .cfa: x29 80 +
STACK CFI INIT 1a524 198 .cfa: sp 0 +
STACK CFI 1a528 .cfa: sp 112 +
STACK CFI 1a540 .cfa: x29 80 + x19: .cfa -8 + ^ x20: .cfa -16 + ^ x21: .cfa -24 + ^ x22: .cfa -32 + ^ x23: .cfa -40 + ^ x24: .cfa -48 + ^ x25: .cfa -56 + ^ x26: .cfa -64 + ^ .ra: .cfa -72 + ^ x29: .cfa -80 + ^
STACK CFI 1a630 .cfa: sp 112 +
STACK CFI 1a648 .cfa: sp 0 +
STACK CFI 1a64c .cfa: x29 80 +
STACK CFI INIT 1a6bc 1b4 .cfa: sp 0 +
STACK CFI 1a6c0 .cfa: sp 128 +
STACK CFI 1a6dc .cfa: x29 96 + x19: .cfa -8 + ^ x20: .cfa -16 + ^ x21: .cfa -24 + ^ x22: .cfa -32 + ^ x23: .cfa -40 + ^ x24: .cfa -48 + ^ x25: .cfa -56 + ^ x26: .cfa -64 + ^ x27: .cfa -80 + ^ .ra: .cfa -88 + ^ x29: .cfa -96 + ^
STACK CFI 1a820 .cfa: sp 128 +
STACK CFI 1a83c .cfa: sp 0 +
STACK CFI 1a840 .cfa: x29 96 +
STACK CFI INIT 1a884 50 .cfa: sp 0 +
STACK CFI 1a888 .cfa: sp 32 +
STACK CFI 1a890 .cfa: x29 32 + x19: .cfa -8 + ^ x20: .cfa -16 + ^ .ra: .cfa -24 + ^ x29: .cfa -32 + ^
STACK CFI INIT 1a938 15c .cfa: sp 0 +
STACK CFI 1a93c .cfa: sp 80 +
STACK CFI 1a950 .cfa: x29 80 + x19: .cfa -8 + ^ x20: .cfa -16 + ^ x21: .cfa -24 + ^ x22: .cfa -32 + ^ x23: .cfa -40 + ^ x24: .cfa -48 + ^ x25: .cfa -64 + ^ .ra: .cfa -72 + ^ x29: .cfa -80 + ^
STACK CFI 1aa60 .cfa: sp 80 +
STACK CFI 1aa74 .cfa: sp 0 +
STACK CFI 1aa78 .cfa: x29 80 +
STACK CFI INIT 1aeac 130 .cfa: sp 0 +
STACK CFI 1aeb0 .cfa: sp 64 +
STACK CFI 1aebc .cfa: x29 32 + x19: .cfa -8 + ^ x20: .cfa -16 + ^ .ra: .cfa -24 + ^ x29: .cfa -32 + ^
STACK CFI 1af0c .cfa: sp 64 +
STACK CFI 1af18 .cfa: sp 0 +
STACK CFI 1af1c .cfa: x29 32 +
STACK CFI 1af94 .cfa: sp 64 +
STACK CFI 1afa0 .cfa: sp 0 +
STACK CFI 1afa4 .cfa: x29 32 +
STACK CFI INIT 1b178 f4 .cfa: sp 0 +
STACK CFI 1b17c .cfa: sp 80 +
STACK CFI 1b18c .cfa: x29 48 + x19: .cfa -8 + ^ x20: .cfa -16 + ^ x21: .cfa -32 + ^ .ra: .cfa -40 + ^ x29: .cfa -48 + ^
STACK CFI 1b230 .cfa: sp 80 +
STACK CFI 1b240 .cfa: sp 0 +
STACK CFI 1b244 .cfa: x29 48 +
STACK CFI INIT 1b26c 2fc .cfa: sp 0 +
STACK CFI 1b270 .cfa: sp 144 +
STACK CFI 1b288 .cfa: x29 80 + x19: .cfa -8 + ^ x20: .cfa -16 + ^ x21: .cfa -24 + ^ x22: .cfa -32 + ^ x23: .cfa -40 + ^ x24: .cfa -48 + ^ x25: .cfa -56 + ^ x26: .cfa -64 + ^ .ra: .cfa -72 + ^ x29: .cfa -80 + ^
STACK CFI 1b480 .cfa: sp 144 +
STACK CFI 1b498 .cfa: sp 0 +
STACK CFI 1b49c .cfa: x29 80 +
STACK CFI INIT 1b568 988 .cfa: sp 0 +
STACK CFI 1b56c .cfa: sp 160 +
STACK CFI 1b588 .cfa: x29 80 + x19: .cfa -8 + ^ x20: .cfa -16 + ^ x21: .cfa -24 + ^ x22: .cfa -32 + ^ x23: .cfa -40 + ^ x24: .cfa -48 + ^ x25: .cfa -56 + ^ x26: .cfa -64 + ^ .ra: .cfa -72 + ^ x29: .cfa -80 + ^ v8: .cfa -96 + ^
STACK CFI 1be40 .cfa: sp 160 +
STACK CFI 1be5c .cfa: sp 0 +
STACK CFI 1be60 .cfa: x29 80 +
STACK CFI INIT 1bef0 20 .cfa: sp 0 +
STACK CFI 1bef4 .cfa: sp 16 +
STACK CFI 1bef8 .cfa: x29 16 + .ra: .cfa -8 + ^ x29: .cfa -16 + ^
STACK CFI 1bf04 .cfa: sp 16 +
STACK CFI 1bf08 .cfa: sp 0 +
STACK CFI 1bf0c .cfa: x29 16 +
STACK CFI INIT 1bf10 554 .cfa: sp 0 +
STACK CFI 1bf14 .cfa: sp 400 +
STACK CFI 1bf28 .cfa: x29 64 + x19: .cfa -8 + ^ x20: .cfa -16 + ^ x21: .cfa -24 + ^ x22: .cfa -32 + ^ x23: .cfa -40 + ^ x28: .cfa -48 + ^ .ra: .cfa -56 + ^ x29: .cfa -64 + ^
STACK CFI 1c344 .cfa: sp 400 +
STACK CFI 1c358 .cfa: sp 0 +
STACK CFI 1c35c .cfa: x29 64 +
STACK CFI INIT 1c464 184 .cfa: sp 0 +
STACK CFI 1c468 .cfa: sp 128 +
STACK CFI 1c474 .cfa: x29 32 + x19: .cfa -8 + ^ x20: .cfa -16 + ^ .ra: .cfa -24 + ^ x29: .cfa -32 + ^
STACK CFI 1c534 .cfa: sp 128 +
STACK CFI 1c540 .cfa: sp 0 +
STACK CFI 1c544 .cfa: x29 32 +
STACK CFI 1c578 .cfa: sp 128 +
STACK CFI 1c584 .cfa: sp 0 +
STACK CFI 1c588 .cfa: x29 32 +
STACK CFI INIT 1c710 a50 .cfa: sp 0 +
STACK CFI 1c714 .cfa: sp 160 +
STACK CFI 1c73c .cfa: x29 96 + x19: .cfa -8 + ^ x20: .cfa -16 + ^ x21: .cfa -24 + ^ x22: .cfa -32 + ^ x23: .cfa -40 + ^ x24: .cfa -48 + ^ x25: .cfa -56 + ^ x26: .cfa -64 + ^ x27: .cfa -72 + ^ x28: .cfa -80 + ^ .ra: .cfa -88 + ^ x29: .cfa -96 + ^ v8: .cfa -104 + ^ v9: .cfa -112 + ^ v10: .cfa -120 + ^ v11: .cfa -128 + ^ v12: .cfa -136 + ^ v13: .cfa -144 + ^ v14: .cfa -152 + ^ v15: .cfa -160 + ^
STACK CFI 1cff8 .cfa: sp 160 +
STACK CFI 1d020 .cfa: sp 0 +
STACK CFI 1d024 .cfa: x29 96 +
STACK CFI INIT 1d160 74 .cfa: sp 0 +
STACK CFI 1d164 .cfa: sp 48 +
STACK CFI 1d170 .cfa: x29 32 + x19: .cfa -8 + ^ x20: .cfa -16 + ^ .ra: .cfa -24 + ^ x29: .cfa -32 + ^
STACK CFI 1d1bc .cfa: sp 48 +
STACK CFI 1d1c8 .cfa: sp 0 +
STACK CFI 1d1cc .cfa: x29 32 +
STACK CFI INIT 1d1d4 608 .cfa: sp 0 +
STACK CFI 1d1d8 .cfa: sp 160 +
STACK CFI 1d1f0 .cfa: x29 56 + x19: .cfa -8 + ^ x20: .cfa -16 + ^ x21: .cfa -24 + ^ x22: .cfa -32 + ^ x23: .cfa -40 + ^ .ra: .cfa -48 + ^ x29: .cfa -56 + ^ v8: .cfa -64 + ^
STACK CFI 1d734 .cfa: sp 160 +
STACK CFI 1d74c .cfa: sp 0 +
STACK CFI 1d750 .cfa: x29 56 +
STACK CFI INIT 1d7dc 74 .cfa: sp 0 +
STACK CFI 1d7e0 .cfa: sp 48 +
STACK CFI 1d7ec .cfa: x29 32 + x19: .cfa -8 + ^ x20: .cfa -16 + ^ .ra: .cfa -24 + ^ x29: .cfa -32 + ^
STACK CFI 1d838 .cfa: sp 48 +
STACK CFI 1d844 .cfa: sp 0 +
STACK CFI 1d848 .cfa: x29 32 +
STACK CFI INIT 1d850 74 .cfa: sp 0 +
STACK CFI 1d854 .cfa: sp 48 +
STACK CFI 1d860 .cfa: x29 32 + x19: .cfa -8 + ^ x20: .cfa -16 + ^ .ra: .cfa -24 + ^ x29: .cfa -32 + ^
STACK CFI 1d8ac .cfa: sp 48 +
STACK CFI 1d8b8 .cfa: sp 0 +
STACK CFI 1d8bc .cfa: x29 32 +
STACK CFI INIT 1d8d4 1a0 .cfa: sp 0 +
STACK CFI 1d8d8 .cfa: sp 48 +
STACK CFI 1d8e4 .cfa: x29 48 + x19: .cfa -8 + ^ x20: .cfa -16 + ^ x21: .cfa -32 + ^ .ra: .cfa -40 + ^ x29: .cfa -48 + ^
STACK CFI 1da60 .cfa: sp 48 +
STACK CFI 1da6c .cfa: sp 0 +
STACK CFI 1da70 .cfa: x29 48 +
STACK CFI INIT 1daf8 148 .cfa: sp 0 +
STACK CFI 1dafc .cfa: sp 96 +
STACK CFI 1db0c .cfa: x29 48 + x19: .cfa -8 + ^ x20: .cfa -16 + ^ x21: .cfa -32 + ^ .ra: .cfa -40 + ^ x29: .cfa -48 + ^
STACK CFI 1dbf4 .cfa: sp 96 +
STACK CFI 1dc04 .cfa: sp 0 +
STACK CFI 1dc08 .cfa: x29 48 +
STACK CFI INIT 1dcb8 170 .cfa: sp 0 +
STACK CFI 1dcbc .cfa: sp 80 +
STACK CFI 1dcd0 .cfa: x29 80 + x19: .cfa -8 + ^ x20: .cfa -16 + ^ x21: .cfa -24 + ^ x22: .cfa -32 + ^ x23: .cfa -40 + ^ x24: .cfa -48 + ^ x25: .cfa -64 + ^ .ra: .cfa -72 + ^ x29: .cfa -80 + ^
STACK CFI 1ddfc .cfa: sp 80 +
STACK CFI 1de10 .cfa: sp 0 +
STACK CFI 1de14 .cfa: x29 80 +
STACK CFI INIT 1dea4 6c .cfa: sp 0 +
STACK CFI 1dea8 .cfa: sp 32 +
STACK CFI 1deb0 .cfa: x29 32 + x19: .cfa -16 + ^ .ra: .cfa -24 + ^ x29: .cfa -32 + ^
STACK CFI 1df00 .cfa: sp 32 +
STACK CFI 1df08 .cfa: sp 0 +
STACK CFI 1df0c .cfa: x29 32 +
STACK CFI INIT 1df14 6c .cfa: sp 0 +
STACK CFI 1df18 .cfa: sp 32 +
STACK CFI 1df20 .cfa: x29 32 + x19: .cfa -16 + ^ .ra: .cfa -24 + ^ x29: .cfa -32 + ^
STACK CFI 1df70 .cfa: sp 32 +
STACK CFI 1df78 .cfa: sp 0 +
STACK CFI 1df7c .cfa: x29 32 +
STACK CFI INIT 1dfc0 21c .cfa: sp 0 +
STACK CFI 1dfc4 .cfa: sp 192 +
STACK CFI 1dfd8 .cfa: x29 64 + x19: .cfa -8 + ^ x20: .cfa -16 + ^ x21: .cfa -24 + ^ x22: .cfa -32 + ^ x23: .cfa -48 + ^ .ra: .cfa -56 + ^ x29: .cfa -64 + ^
STACK CFI 1e118 .cfa: sp 192 +
STACK CFI 1e12c .cfa: sp 0 +
STACK CFI 1e130 .cfa: x29 64 +
STACK CFI INIT 1e1e0 194 .cfa: sp 0 +
STACK CFI 1e1e4 .cfa: sp 128 +
STACK CFI 1e1f4 .cfa: x29 48 + x19: .cfa -8 + ^ x20: .cfa -16 + ^ x21: .cfa -24 + ^ x22: .cfa -32 + ^ .ra: .cfa -40 + ^ x29: .cfa -48 + ^
STACK CFI 1e2f8 .cfa: sp 128 +
STACK CFI 1e308 .cfa: sp 0 +
STACK CFI 1e30c .cfa: x29 48 +
STACK CFI INIT 1e730 198 .cfa: sp 0 +
STACK CFI 1e734 .cfa: sp 128 +
STACK CFI 1e748 .cfa: x29 64 + x19: .cfa -8 + ^ x20: .cfa -16 + ^ x21: .cfa -24 + ^ x22: .cfa -32 + ^ x23: .cfa -48 + ^ .ra: .cfa -56 + ^ x29: .cfa -64 + ^
STACK CFI 1e888 .cfa: sp 128 +
STACK CFI 1e89c .cfa: sp 0 +
STACK CFI 1e8a0 .cfa: x29 64 +
STACK CFI INIT 1eb94 188 .cfa: sp 0 +
STACK CFI 1eb98 .cfa: sp 112 +
STACK CFI 1eba8 .cfa: x29 48 + x19: .cfa -8 + ^ x20: .cfa -16 + ^ x21: .cfa -24 + ^ x22: .cfa -32 + ^ .ra: .cfa -40 + ^ x29: .cfa -48 + ^
STACK CFI 1ece0 .cfa: sp 112 +
STACK CFI 1ecf0 .cfa: sp 0 +
STACK CFI 1ecf4 .cfa: x29 48 +
STACK CFI INIT 1ee78 12c .cfa: sp 0 +
STACK CFI 1ee7c .cfa: sp 48 +
STACK CFI 1ee88 .cfa: x29 48 + x19: .cfa -8 + ^ x20: .cfa -16 + ^ x21: .cfa -24 + ^ x22: .cfa -32 + ^ .ra: .cfa -40 + ^ x29: .cfa -48 + ^
STACK CFI 1ef7c .cfa: sp 48 +
STACK CFI 1ef88 .cfa: sp 0 +
STACK CFI 1ef8c .cfa: x29 48 +
STACK CFI INIT 1f170 7dc .cfa: sp 0 +
STACK CFI 1f174 .cfa: sp 144 +
STACK CFI 1f190 .cfa: x29 96 + x19: .cfa -8 + ^ x20: .cfa -16 + ^ x21: .cfa -24 + ^ x22: .cfa -32 + ^ x23: .cfa -40 + ^ x24: .cfa -48 + ^ x25: .cfa -56 + ^ x26: .cfa -64 + ^ x27: .cfa -72 + ^ x28: .cfa -80 + ^ .ra: .cfa -88 + ^ x29: .cfa -96 + ^
STACK CFI 1f8fc .cfa: sp 144 +
STACK CFI 1f918 .cfa: sp 0 +
STACK CFI 1f91c .cfa: x29 96 +
STACK CFI INIT 1fb28 168 .cfa: sp 0 +
STACK CFI 1fb2c .cfa: sp 384 +
STACK CFI 1fb40 .cfa: x29 64 + x19: .cfa -8 + ^ x20: .cfa -16 + ^ x21: .cfa -24 + ^ x22: .cfa -32 + ^ x23: .cfa -40 + ^ x28: .cfa -48 + ^ .ra: .cfa -56 + ^ x29: .cfa -64 + ^
STACK CFI 1fc38 .cfa: sp 384 +
STACK CFI 1fc4c .cfa: sp 0 +
STACK CFI 1fc50 .cfa: x29 64 +
STACK CFI INIT 20024 da0 .cfa: sp 0 +
STACK CFI 20028 .cfa: sp 400 +
STACK CFI 20044 .cfa: x29 96 + x19: .cfa -8 + ^ x20: .cfa -16 + ^ x21: .cfa -24 + ^ x22: .cfa -32 + ^ x23: .cfa -40 + ^ x24: .cfa -48 + ^ x25: .cfa -56 + ^ x26: .cfa -64 + ^ x27: .cfa -72 + ^ x28: .cfa -80 + ^ .ra: .cfa -88 + ^ x29: .cfa -96 + ^
STACK CFI 209c0 .cfa: sp 400 +
STACK CFI 209dc .cfa: sp 0 +
STACK CFI 209e0 .cfa: x29 96 +
STACK CFI INIT 20dec 7c .cfa: sp 0 +
STACK CFI 20df0 .cfa: sp 32 +
STACK CFI 20df8 .cfa: x29 32 + x19: .cfa -8 + ^ x20: .cfa -16 + ^ .ra: .cfa -24 + ^ x29: .cfa -32 + ^
STACK CFI 20e04 .cfa: sp 32 +
STACK CFI 20e0c .cfa: sp 0 +
STACK CFI 20e10 .cfa: x29 32 +
STACK CFI INIT 20ed0 74 .cfa: sp 0 +
STACK CFI 20ed4 .cfa: sp 48 +
STACK CFI 20ee0 .cfa: x29 32 + x19: .cfa -8 + ^ x20: .cfa -16 + ^ .ra: .cfa -24 + ^ x29: .cfa -32 + ^
STACK CFI 20f2c .cfa: sp 48 +
STACK CFI 20f38 .cfa: sp 0 +
STACK CFI 20f3c .cfa: x29 32 +
STACK CFI INIT 20f44 74 .cfa: sp 0 +
STACK CFI 20f48 .cfa: sp 48 +
STACK CFI 20f54 .cfa: x29 32 + x19: .cfa -8 + ^ x20: .cfa -16 + ^ .ra: .cfa -24 + ^ x29: .cfa -32 + ^
STACK CFI 20fa0 .cfa: sp 48 +
STACK CFI 20fac .cfa: sp 0 +
STACK CFI 20fb0 .cfa: x29 32 +
STACK CFI INIT 20fb8 74 .cfa: sp 0 +
STACK CFI 20fbc .cfa: sp 48 +
STACK CFI 20fc8 .cfa: x29 32 + x19: .cfa -8 + ^ x20: .cfa -16 + ^ .ra: .cfa -24 + ^ x29: .cfa -32 + ^
STACK CFI 21014 .cfa: sp 48 +
STACK CFI 21020 .cfa: sp 0 +
STACK CFI 21024 .cfa: x29 32 +
STACK CFI INIT 23a6c 118 .cfa: sp 0 +
STACK CFI 23a70 .cfa: sp 96 +
STACK CFI 23a84 .cfa: x29 64 + x19: .cfa -8 + ^ x20: .cfa -16 + ^ x21: .cfa -24 + ^ x22: .cfa -32 + ^ x23: .cfa -40 + ^ x24: .cfa -48 + ^ .ra: .cfa -56 + ^ x29: .cfa -64 + ^
STACK CFI 23b0c .cfa: sp 96 +
STACK CFI 23b20 .cfa: sp 0 +
STACK CFI 23b24 .cfa: x29 64 +
STACK CFI INIT 23c44 c00 .cfa: sp 0 +
STACK CFI 23c48 .cfa: sp 96 +
STACK CFI 23c60 .cfa: x29 96 + x19: .cfa -8 + ^ x20: .cfa -16 + ^ x21: .cfa -24 + ^ x22: .cfa -32 + ^ x23: .cfa -40 + ^ x24: .cfa -48 + ^ x25: .cfa -56 + ^ x26: .cfa -64 + ^ x27: .cfa -72 + ^ x28: .cfa -80 + ^ .ra: .cfa -88 + ^ x29: .cfa -96 + ^
STACK CFI 246fc .cfa: sp 96 +
STACK CFI 24714 .cfa: sp 0 +
STACK CFI 24718 .cfa: x29 96 +
STACK CFI INIT 24c50 134 .cfa: sp 0 +
STACK CFI 24c54 .cfa: sp 80 +
STACK CFI 24c60 .cfa: x29 32 + x19: .cfa -8 + ^ x20: .cfa -16 + ^ .ra: .cfa -24 + ^ x29: .cfa -32 + ^
STACK CFI 24c90 .cfa: sp 80 +
STACK CFI 24c9c .cfa: sp 0 +
STACK CFI 24ca0 .cfa: x29 32 +
STACK CFI INIT 24d84 78 .cfa: sp 0 +
STACK CFI 24d88 .cfa: sp 32 +
STACK CFI 24d90 .cfa: x29 32 + x19: .cfa -8 + ^ x20: .cfa -16 + ^ .ra: .cfa -24 + ^ x29: .cfa -32 + ^
STACK CFI 24d9c .cfa: sp 32 +
STACK CFI 24da4 .cfa: sp 0 +
STACK CFI 24da8 .cfa: x29 32 +
STACK CFI INIT 24dfc 74 .cfa: sp 0 +
STACK CFI 24e00 .cfa: sp 48 +
STACK CFI 24e0c .cfa: x29 32 + x19: .cfa -8 + ^ x20: .cfa -16 + ^ .ra: .cfa -24 + ^ x29: .cfa -32 + ^
STACK CFI 24e58 .cfa: sp 48 +
STACK CFI 24e64 .cfa: sp 0 +
STACK CFI 24e68 .cfa: x29 32 +
STACK CFI INIT 24ed4 218 .cfa: sp 0 +
STACK CFI 24ed8 .cfa: sp 128 +
STACK CFI 24ee8 .cfa: x29 48 + x19: .cfa -8 + ^ x20: .cfa -16 + ^ x21: .cfa -32 + ^ .ra: .cfa -40 + ^ x29: .cfa -48 + ^
STACK CFI 24f8c .cfa: sp 128 +
STACK CFI 24f9c .cfa: sp 0 +
STACK CFI 24fa0 .cfa: x29 48 +
STACK CFI INIT 25188 2f0 .cfa: sp 0 +
STACK CFI 2518c .cfa: sp 144 +
STACK CFI 251a0 .cfa: x29 64 + x19: .cfa -8 + ^ x20: .cfa -16 + ^ x21: .cfa -24 + ^ x22: .cfa -32 + ^ x23: .cfa -48 + ^ .ra: .cfa -56 + ^ x29: .cfa -64 + ^
STACK CFI 2531c .cfa: sp 144 +
STACK CFI 25330 .cfa: sp 0 +
STACK CFI 25334 .cfa: x29 64 +
STACK CFI INIT 254cc 260 .cfa: sp 0 +
STACK CFI 254d0 .cfa: sp 128 +
STACK CFI 254e0 .cfa: x29 48 + x19: .cfa -8 + ^ x20: .cfa -16 + ^ x21: .cfa -32 + ^ .ra: .cfa -40 + ^ x29: .cfa -48 + ^
STACK CFI 255cc .cfa: sp 128 +
STACK CFI 255dc .cfa: sp 0 +
STACK CFI 255e0 .cfa: x29 48 +
STACK CFI INIT 257d4 1b8 .cfa: sp 0 +
STACK CFI 257d8 .cfa: sp 160 +
STACK CFI 257f4 .cfa: x29 72 + x19: .cfa -8 + ^ x20: .cfa -16 + ^ x21: .cfa -24 + ^ x22: .cfa -32 + ^ x23: .cfa -40 + ^ x24: .cfa -48 + ^ x25: .cfa -56 + ^ .ra: .cfa -64 + ^ x29: .cfa -72 + ^ v8: .cfa -80 + ^
STACK CFI 25878 .cfa: sp 160 +
STACK CFI 25894 .cfa: sp 0 +
STACK CFI 25898 .cfa: x29 72 +
STACK CFI INIT 2598c 148 .cfa: sp 0 +
STACK CFI 25990 .cfa: sp 64 +
STACK CFI 259a0 .cfa: x29 48 + x19: .cfa -8 + ^ x20: .cfa -16 + ^ x21: .cfa -24 + ^ x22: .cfa -32 + ^ .ra: .cfa -40 + ^ x29: .cfa -48 + ^
STACK CFI 25a98 .cfa: sp 64 +
STACK CFI 25aa8 .cfa: sp 0 +
STACK CFI 25aac .cfa: x29 48 +
STACK CFI INIT 25af0 168 .cfa: sp 0 +
STACK CFI 25af4 .cfa: sp 144 +
STACK CFI 25b08 .cfa: x29 64 + x19: .cfa -8 + ^ x20: .cfa -16 + ^ x21: .cfa -24 + ^ x22: .cfa -32 + ^ x23: .cfa -40 + ^ x24: .cfa -48 + ^ .ra: .cfa -56 + ^ x29: .cfa -64 + ^
STACK CFI 25b60 .cfa: sp 144 +
STACK CFI 25b74 .cfa: sp 0 +
STACK CFI 25b78 .cfa: x29 64 +
STACK CFI INIT 25c58 fc .cfa: sp 0 +
STACK CFI 25c5c .cfa: sp 64 +
STACK CFI 25c6c .cfa: x29 48 + x19: .cfa -8 + ^ x20: .cfa -16 + ^ x21: .cfa -24 + ^ x22: .cfa -32 + ^ .ra: .cfa -40 + ^ x29: .cfa -48 + ^
STACK CFI 25d1c .cfa: sp 64 +
STACK CFI 25d2c .cfa: sp 0 +
STACK CFI 25d30 .cfa: x29 48 +
STACK CFI INIT 25d54 48 .cfa: sp 0 +
STACK CFI 25d58 .cfa: sp 32 +
STACK CFI 25d60 .cfa: x29 32 + x19: .cfa -16 + ^ .ra: .cfa -24 + ^ x29: .cfa -32 + ^
STACK CFI 25d8c .cfa: sp 32 +
STACK CFI 25d94 .cfa: sp 0 +
STACK CFI 25d98 .cfa: x29 32 +
STACK CFI INIT 25d9c 50 .cfa: sp 0 +
STACK CFI 25da0 .cfa: sp 32 +
STACK CFI 25da8 .cfa: x29 32 + x19: .cfa -16 + ^ .ra: .cfa -24 + ^ x29: .cfa -32 + ^
STACK CFI 25ddc .cfa: sp 32 +
STACK CFI 25de4 .cfa: sp 0 +
STACK CFI 25de8 .cfa: x29 32 +
STACK CFI INIT 25dec 98 .cfa: sp 0 +
STACK CFI 25df0 .cfa: sp 48 +
STACK CFI 25dfc .cfa: x29 48 + x19: .cfa -8 + ^ x20: .cfa -16 + ^ x21: .cfa -32 + ^ .ra: .cfa -40 + ^ x29: .cfa -48 + ^
STACK CFI 25e60 .cfa: sp 48 +
STACK CFI 25e6c .cfa: sp 0 +
STACK CFI 25e70 .cfa: x29 48 +
STACK CFI INIT 25e88 2d4 .cfa: sp 0 +
STACK CFI 25e8c .cfa: sp 144 +
STACK CFI 25ea0 .cfa: x29 64 + x19: .cfa -8 + ^ x20: .cfa -16 + ^ x21: .cfa -24 + ^ x22: .cfa -32 + ^ x23: .cfa -48 + ^ .ra: .cfa -56 + ^ x29: .cfa -64 + ^
STACK CFI 26000 .cfa: sp 144 +
STACK CFI 26014 .cfa: sp 0 +
STACK CFI 26018 .cfa: x29 64 +
STACK CFI INIT 2615c 2d4 .cfa: sp 0 +
STACK CFI 26160 .cfa: sp 144 +
STACK CFI 26174 .cfa: x29 64 + x19: .cfa -8 + ^ x20: .cfa -16 + ^ x21: .cfa -24 + ^ x22: .cfa -32 + ^ x23: .cfa -48 + ^ .ra: .cfa -56 + ^ x29: .cfa -64 + ^
STACK CFI 262d4 .cfa: sp 144 +
STACK CFI 262e8 .cfa: sp 0 +
STACK CFI 262ec .cfa: x29 64 +
STACK CFI INIT 26430 290 .cfa: sp 0 +
STACK CFI 26434 .cfa: sp 144 +
STACK CFI 26448 .cfa: x29 64 + x19: .cfa -8 + ^ x20: .cfa -16 + ^ x21: .cfa -24 + ^ x22: .cfa -32 + ^ x23: .cfa -48 + ^ .ra: .cfa -56 + ^ x29: .cfa -64 + ^
STACK CFI 26564 .cfa: sp 144 +
STACK CFI 26578 .cfa: sp 0 +
STACK CFI 2657c .cfa: x29 64 +
STACK CFI INIT 266c0 2e0 .cfa: sp 0 +
STACK CFI 266c4 .cfa: sp 144 +
STACK CFI 266d8 .cfa: x29 64 + x19: .cfa -8 + ^ x20: .cfa -16 + ^ x21: .cfa -24 + ^ x22: .cfa -32 + ^ x23: .cfa -48 + ^ .ra: .cfa -56 + ^ x29: .cfa -64 + ^
STACK CFI 26844 .cfa: sp 144 +
STACK CFI 26858 .cfa: sp 0 +
STACK CFI 2685c .cfa: x29 64 +
STACK CFI INIT 269a0 4ac .cfa: sp 0 +
STACK CFI 269a4 .cfa: sp 144 +
STACK CFI 269b8 .cfa: x29 64 + x19: .cfa -8 + ^ x20: .cfa -16 + ^ x21: .cfa -24 + ^ x22: .cfa -32 + ^ x23: .cfa -48 + ^ .ra: .cfa -56 + ^ x29: .cfa -64 + ^
STACK CFI 26c9c .cfa: sp 144 +
STACK CFI 26cb0 .cfa: sp 0 +
STACK CFI 26cb4 .cfa: x29 64 +
STACK CFI INIT 26e4c 154 .cfa: sp 0 +
STACK CFI 26e50 .cfa: sp 384 +
STACK CFI 26e64 .cfa: x29 64 + x19: .cfa -8 + ^ x20: .cfa -16 + ^ x21: .cfa -24 + ^ x22: .cfa -32 + ^ x23: .cfa -40 + ^ x28: .cfa -48 + ^ .ra: .cfa -56 + ^ x29: .cfa -64 + ^
STACK CFI 26f48 .cfa: sp 384 +
STACK CFI 26f5c .cfa: sp 0 +
STACK CFI 26f60 .cfa: x29 64 +
STACK CFI INIT 26fb8 430 .cfa: sp 0 +
STACK CFI 26fbc .cfa: sp 64 +
STACK CFI 26fcc .cfa: x29 64 + x19: .cfa -8 + ^ x20: .cfa -16 + ^ x21: .cfa -24 + ^ x22: .cfa -32 + ^ x23: .cfa -40 + ^ x24: .cfa -48 + ^ .ra: .cfa -56 + ^ x29: .cfa -64 + ^
STACK CFI 27380 .cfa: sp 64 +
STACK CFI 27390 .cfa: sp 0 +
STACK CFI 27394 .cfa: x29 64 +
STACK CFI INIT 27718 294 .cfa: sp 0 +
STACK CFI 2771c .cfa: sp 240 +
STACK CFI 27734 .cfa: x29 80 + x19: .cfa -8 + ^ x20: .cfa -16 + ^ x21: .cfa -24 + ^ x22: .cfa -32 + ^ x23: .cfa -40 + ^ x24: .cfa -48 + ^ x25: .cfa -64 + ^ .ra: .cfa -72 + ^ x29: .cfa -80 + ^
STACK CFI 278d4 .cfa: sp 240 +
STACK CFI 278ec .cfa: sp 0 +
STACK CFI 278f0 .cfa: x29 80 +
STACK CFI INIT 27a1c 50 .cfa: sp 0 +
STACK CFI 27a20 .cfa: sp 32 +
STACK CFI 27a28 .cfa: x29 32 + x19: .cfa -8 + ^ x20: .cfa -16 + ^ .ra: .cfa -24 + ^ x29: .cfa -32 + ^
STACK CFI INIT 27a98 750 .cfa: sp 0 +
STACK CFI 27a9c .cfa: sp 320 +
STACK CFI 27ab8 .cfa: x29 96 + x19: .cfa -8 + ^ x20: .cfa -16 + ^ x21: .cfa -24 + ^ x22: .cfa -32 + ^ x23: .cfa -40 + ^ x24: .cfa -48 + ^ x25: .cfa -56 + ^ x26: .cfa -64 + ^ x27: .cfa -72 + ^ x28: .cfa -80 + ^ .ra: .cfa -88 + ^ x29: .cfa -96 + ^
STACK CFI 280a4 .cfa: sp 320 +
STACK CFI 280c0 .cfa: sp 0 +
STACK CFI 280c4 .cfa: x29 96 +
STACK CFI INIT 2824c 12c .cfa: sp 0 +
STACK CFI 28250 .cfa: sp 80 +
STACK CFI 28264 .cfa: x29 80 + x19: .cfa -8 + ^ x20: .cfa -16 + ^ x21: .cfa -24 + ^ x22: .cfa -32 + ^ x23: .cfa -40 + ^ x24: .cfa -48 + ^ x28: .cfa -64 + ^ .ra: .cfa -72 + ^ x29: .cfa -80 + ^
STACK CFI 2832c .cfa: sp 80 +
STACK CFI 28340 .cfa: sp 0 +
STACK CFI 28344 .cfa: x29 80 +
STACK CFI INIT 2b9cc c3c .cfa: sp 0 +
STACK CFI 2b9d0 .cfa: sp 96 +
STACK CFI 2b9e8 .cfa: x29 96 + x19: .cfa -8 + ^ x20: .cfa -16 + ^ x21: .cfa -24 + ^ x22: .cfa -32 + ^ x23: .cfa -40 + ^ x24: .cfa -48 + ^ x25: .cfa -56 + ^ x26: .cfa -64 + ^ x27: .cfa -72 + ^ x28: .cfa -80 + ^ .ra: .cfa -88 + ^ x29: .cfa -96 + ^
STACK CFI 2c4cc .cfa: sp 96 +
STACK CFI 2c4e4 .cfa: sp 0 +
STACK CFI 2c4e8 .cfa: x29 96 +
STACK CFI INIT 2c75c 238 .cfa: sp 0 +
STACK CFI 2c760 .cfa: sp 128 +
STACK CFI 2c770 .cfa: x29 48 + x19: .cfa -8 + ^ x20: .cfa -16 + ^ x21: .cfa -24 + ^ x22: .cfa -32 + ^ .ra: .cfa -40 + ^ x29: .cfa -48 + ^
STACK CFI 2c8f8 .cfa: sp 128 +
STACK CFI 2c908 .cfa: sp 0 +
STACK CFI 2c90c .cfa: x29 48 +
STACK CFI INIT 2cea4 3a4 .cfa: sp 0 +
STACK CFI 2cea8 .cfa: sp 96 +
STACK CFI 2cec0 .cfa: x29 96 + x19: .cfa -8 + ^ x20: .cfa -16 + ^ x21: .cfa -24 + ^ x22: .cfa -32 + ^ x23: .cfa -40 + ^ x24: .cfa -48 + ^ x25: .cfa -56 + ^ x26: .cfa -64 + ^ x27: .cfa -72 + ^ x28: .cfa -80 + ^ .ra: .cfa -88 + ^ x29: .cfa -96 + ^
STACK CFI 2d1e8 .cfa: sp 96 +
STACK CFI 2d200 .cfa: sp 0 +
STACK CFI 2d204 .cfa: x29 96 +
STACK CFI INIT 2d2e8 c78 .cfa: sp 0 +
STACK CFI 2d2ec .cfa: sp 96 +
STACK CFI 2d304 .cfa: x29 96 + x19: .cfa -8 + ^ x20: .cfa -16 + ^ x21: .cfa -24 + ^ x22: .cfa -32 + ^ x23: .cfa -40 + ^ x24: .cfa -48 + ^ x25: .cfa -56 + ^ x26: .cfa -64 + ^ x27: .cfa -72 + ^ x28: .cfa -80 + ^ .ra: .cfa -88 + ^ x29: .cfa -96 + ^
STACK CFI 2de14 .cfa: sp 96 +
STACK CFI 2de2c .cfa: sp 0 +
STACK CFI 2de30 .cfa: x29 96 +
STACK CFI INIT 2e248 ad0 .cfa: sp 0 +
STACK CFI 2e24c .cfa: sp 96 +
STACK CFI 2e264 .cfa: x29 96 + x19: .cfa -8 + ^ x20: .cfa -16 + ^ x21: .cfa -24 + ^ x22: .cfa -32 + ^ x23: .cfa -40 + ^ x24: .cfa -48 + ^ x25: .cfa -56 + ^ x26: .cfa -64 + ^ x27: .cfa -72 + ^ x28: .cfa -80 + ^ .ra: .cfa -88 + ^ x29: .cfa -96 + ^
STACK CFI 2ec8c .cfa: sp 96 +
STACK CFI 2eca4 .cfa: sp 0 +
STACK CFI 2eca8 .cfa: x29 96 +
STACK CFI INIT 2ef0c 1350 .cfa: sp 0 +
STACK CFI 2ef10 .cfa: sp 96 +
STACK CFI 2ef28 .cfa: x29 96 + x19: .cfa -8 + ^ x20: .cfa -16 + ^ x21: .cfa -24 + ^ x22: .cfa -32 + ^ x23: .cfa -40 + ^ x24: .cfa -48 + ^ x25: .cfa -56 + ^ x26: .cfa -64 + ^ x27: .cfa -72 + ^ x28: .cfa -80 + ^ .ra: .cfa -88 + ^ x29: .cfa -96 + ^
STACK CFI 30128 .cfa: sp 96 +
STACK CFI 30140 .cfa: sp 0 +
STACK CFI 30144 .cfa: x29 96 +
STACK CFI INIT 30380 744 .cfa: sp 0 +
STACK CFI 30384 .cfa: sp 368 +
STACK CFI 303a0 .cfa: x29 96 + x19: .cfa -8 + ^ x20: .cfa -16 + ^ x21: .cfa -24 + ^ x22: .cfa -32 + ^ x23: .cfa -40 + ^ x24: .cfa -48 + ^ x25: .cfa -56 + ^ x26: .cfa -64 + ^ x27: .cfa -72 + ^ x28: .cfa -80 + ^ .ra: .cfa -88 + ^ x29: .cfa -96 + ^
STACK CFI 3043c .cfa: sp 368 +
STACK CFI 30458 .cfa: sp 0 +
STACK CFI 3045c .cfa: x29 96 +
STACK CFI 304b0 .cfa: sp 368 +
STACK CFI 304cc .cfa: sp 0 +
STACK CFI 304d0 .cfa: x29 96 +
STACK CFI INIT 30e58 e9c .cfa: sp 0 +
STACK CFI 30e5c .cfa: sp 96 +
STACK CFI 30e74 .cfa: x29 96 + x19: .cfa -8 + ^ x20: .cfa -16 + ^ x21: .cfa -24 + ^ x22: .cfa -32 + ^ x23: .cfa -40 + ^ x24: .cfa -48 + ^ x25: .cfa -56 + ^ x26: .cfa -64 + ^ x27: .cfa -72 + ^ x28: .cfa -80 + ^ .ra: .cfa -88 + ^ x29: .cfa -96 + ^
STACK CFI 31b14 .cfa: sp 96 +
STACK CFI 31b2c .cfa: sp 0 +
STACK CFI 31b30 .cfa: x29 96 +
STACK CFI INIT 32070 14c4 .cfa: sp 0 +
STACK CFI 32074 .cfa: sp 112 +
STACK CFI 32090 .cfa: x29 96 + x19: .cfa -8 + ^ x20: .cfa -16 + ^ x21: .cfa -24 + ^ x22: .cfa -32 + ^ x23: .cfa -40 + ^ x24: .cfa -48 + ^ x25: .cfa -56 + ^ x26: .cfa -64 + ^ x27: .cfa -72 + ^ x28: .cfa -80 + ^ .ra: .cfa -88 + ^ x29: .cfa -96 + ^ v8: .cfa -112 + ^
STACK CFI 3336c .cfa: sp 112 +
STACK CFI 33388 .cfa: sp 0 +
STACK CFI 3338c .cfa: x29 96 +
STACK CFI INIT 35848 98c .cfa: sp 0 +
STACK CFI 3584c .cfa: sp 144 +
STACK CFI 35864 .cfa: x29 80 + x19: .cfa -8 + ^ x20: .cfa -16 + ^ x21: .cfa -24 + ^ x22: .cfa -32 + ^ x23: .cfa -40 + ^ x24: .cfa -48 + ^ x25: .cfa -64 + ^ .ra: .cfa -72 + ^ x29: .cfa -80 + ^
STACK CFI 36150 .cfa: sp 144 +
STACK CFI 36168 .cfa: sp 0 +
STACK CFI 3616c .cfa: x29 80 +
STACK CFI INIT 361d4 570 .cfa: sp 0 +
STACK CFI 361d8 .cfa: sp 96 +
STACK CFI 361f0 .cfa: x29 96 + x19: .cfa -8 + ^ x20: .cfa -16 + ^ x21: .cfa -24 + ^ x22: .cfa -32 + ^ x23: .cfa -40 + ^ x24: .cfa -48 + ^ x25: .cfa -56 + ^ x26: .cfa -64 + ^ x27: .cfa -72 + ^ x28: .cfa -80 + ^ .ra: .cfa -88 + ^ x29: .cfa -96 + ^
STACK CFI 366a8 .cfa: sp 96 +
STACK CFI 366c0 .cfa: sp 0 +
STACK CFI 366c4 .cfa: x29 96 +
STACK CFI INIT 36744 664 .cfa: sp 0 +
STACK CFI 36748 .cfa: sp 96 +
STACK CFI 36760 .cfa: x29 96 + x19: .cfa -8 + ^ x20: .cfa -16 + ^ x21: .cfa -24 + ^ x22: .cfa -32 + ^ x23: .cfa -40 + ^ x24: .cfa -48 + ^ x25: .cfa -56 + ^ x26: .cfa -64 + ^ x27: .cfa -72 + ^ x28: .cfa -80 + ^ .ra: .cfa -88 + ^ x29: .cfa -96 + ^
STACK CFI 36d0c .cfa: sp 96 +
STACK CFI 36d24 .cfa: sp 0 +
STACK CFI 36d28 .cfa: x29 96 +
