MODULE Linux arm64 FB0CA419AE374941D388C734BC2C38520 user95401.geode-mod-comments.android64.so
INFO CODE_ID 19A40CFB37AE4149D388C734BC2C3852DF239806
INFO GENERATOR mozilla/dump_syms 2.3.4
PUBLIC 2f370 0 __on_dlclose
PUBLIC 2f380 0 __emutls_unregister_key
PUBLIC 2f388 0 __on_dlclose_late
PUBLIC 2f390 0 __atexit_handler_wrapper
PUBLIC 2f3a4 0 atexit
PUBLIC 2f3c0 0 pthread_atfork
PUBLIC 2f3d0 0 unwind_phase2
PUBLIC 2f504 0 _Unwind_Resume
PUBLIC 2f588 0 unwind_phase2_forced
PUBLIC m 2f67c 0 __unw_init_local
PUBLIC m 2f724 0 __unw_get_reg
PUBLIC 2f7a0 0 __unw_step_stage2
PUBLIC m 2f7b4 0 __unw_get_proc_info
PUBLIC m 2f7f4 0 __unw_resume
PUBLIC 2f81c 0 libunwind::CFI_Parser<libunwind::LocalAddressSpace>::decodeFDE(libunwind::LocalAddressSpace&, unsigned long, libunwind::CFI_Parser<libunwind::LocalAddressSpace>::FDE_Info*, libunwind::CFI_Parser<libunwind::LocalAddressSpace>::CIE_Info*, bool)
PUBLIC 2f9ac 0 libunwind::CFI_Parser<libunwind::LocalAddressSpace>::parseCIE(libunwind::LocalAddressSpace&, unsigned long, libunwind::CFI_Parser<libunwind::LocalAddressSpace>::CIE_Info*)
PUBLIC 2fc74 0 libunwind::AbstractUnwindCursor::~AbstractUnwindCursor()
PUBLIC 2fc7c 0 libunwind::UnwindCursor<libunwind::LocalAddressSpace, libunwind::Registers_arm64>::~UnwindCursor()
PUBLIC 2fc84 0 libunwind::UnwindCursor<libunwind::LocalAddressSpace, libunwind::Registers_arm64>::validReg(int)
PUBLIC 2fcc8 0 libunwind::UnwindCursor<libunwind::LocalAddressSpace, libunwind::Registers_arm64>::getReg(int)
PUBLIC 2fdb0 0 libunwind::UnwindCursor<libunwind::LocalAddressSpace, libunwind::Registers_arm64>::setReg(int, unsigned long)
PUBLIC 2fe98 0 libunwind::UnwindCursor<libunwind::LocalAddressSpace, libunwind::Registers_arm64>::validFloatReg(int)
PUBLIC 2feac 0 libunwind::UnwindCursor<libunwind::LocalAddressSpace, libunwind::Registers_arm64>::getFloatReg(int)
PUBLIC 2febc 0 libunwind::UnwindCursor<libunwind::LocalAddressSpace, libunwind::Registers_arm64>::setFloatReg(int, double)
PUBLIC 2fecc 0 libunwind::UnwindCursor<libunwind::LocalAddressSpace, libunwind::Registers_arm64>::step(bool)
PUBLIC 2ffbc 0 libunwind::UnwindCursor<libunwind::LocalAddressSpace, libunwind::Registers_arm64>::getInfo(unw_proc_info_t*)
PUBLIC 30000 0 libunwind::UnwindCursor<libunwind::LocalAddressSpace, libunwind::Registers_arm64>::jumpto()
PUBLIC 3000c 0 libunwind::UnwindCursor<libunwind::LocalAddressSpace, libunwind::Registers_arm64>::isSignalFrame()
PUBLIC 30018 0 libunwind::UnwindCursor<libunwind::LocalAddressSpace, libunwind::Registers_arm64>::getFunctionName(char*, unsigned long, unsigned long*)
PUBLIC 30044 0 libunwind::UnwindCursor<libunwind::LocalAddressSpace, libunwind::Registers_arm64>::setInfoBasedOnIPRegister(bool)
PUBLIC 302c4 0 libunwind::UnwindCursor<libunwind::LocalAddressSpace, libunwind::Registers_arm64>::getRegisterName(int)
PUBLIC 302d0 0 libunwind::UnwindCursor<libunwind::LocalAddressSpace, libunwind::Registers_arm64>::stepThroughSigReturn(libunwind::Registers_arm64&)
PUBLIC 303f0 0 libunwind::DwarfInstructions<libunwind::LocalAddressSpace, libunwind::Registers_arm64>::stepWithDwarf(libunwind::LocalAddressSpace&, unsigned long, unsigned long, libunwind::Registers_arm64&, bool&, bool)
PUBLIC 30878 0 libunwind::CFI_Parser<libunwind::LocalAddressSpace>::parseFDEInstructions(libunwind::LocalAddressSpace&, libunwind::CFI_Parser<libunwind::LocalAddressSpace>::FDE_Info const&, libunwind::CFI_Parser<libunwind::LocalAddressSpace>::CIE_Info const&, unsigned long, int, libunwind::CFI_Parser<libunwind::LocalAddressSpace>::PrologInfo*)
PUBLIC 314c0 0 libunwind::DwarfInstructions<libunwind::LocalAddressSpace, libunwind::Registers_arm64>::getCFA(libunwind::LocalAddressSpace&, libunwind::CFI_Parser<libunwind::LocalAddressSpace>::PrologInfo const&, libunwind::Registers_arm64 const&)
PUBLIC 315f4 0 libunwind::DwarfInstructions<libunwind::LocalAddressSpace, libunwind::Registers_arm64>::getSavedRegister(libunwind::LocalAddressSpace&, libunwind::Registers_arm64 const&, unsigned long, libunwind::CFI_Parser<libunwind::LocalAddressSpace>::RegisterLocation const&)
PUBLIC 31804 0 libunwind::LocalAddressSpace::getEncodedP(unsigned long&, unsigned long, unsigned char, unsigned long)
PUBLIC 31b90 0 libunwind::LocalAddressSpace::getULEB128(unsigned long&, unsigned long)
PUBLIC 31d58 0 libunwind::DwarfInstructions<libunwind::LocalAddressSpace, libunwind::Registers_arm64>::evaluateExpression(unsigned long, libunwind::LocalAddressSpace&, libunwind::Registers_arm64 const&, unsigned long)
PUBLIC 32714 0 libunwind::UnwindCursor<libunwind::LocalAddressSpace, libunwind::Registers_arm64>::getInfoFromDwarfSection(unsigned long, libunwind::UnwindInfoSections const&, unsigned int)
PUBLIC 329e8 0 libunwind::findUnwindSectionsByPhdr(dl_phdr_info*, unsigned long, void*)
PUBLIC 32b1c 0 libunwind::EHHeaderParser<libunwind::LocalAddressSpace>::decodeEHHdr(libunwind::LocalAddressSpace&, unsigned long, unsigned long, libunwind::EHHeaderParser<libunwind::LocalAddressSpace>::EHHeaderInfo&)
PUBLIC 32c3c 0 libunwind::CFI_Parser<libunwind::LocalAddressSpace>::findFDE(libunwind::LocalAddressSpace&, unsigned long, unsigned long, unsigned long, unsigned long, libunwind::CFI_Parser<libunwind::LocalAddressSpace>::FDE_Info*, libunwind::CFI_Parser<libunwind::LocalAddressSpace>::CIE_Info*)
PUBLIC 32e04 0 libunwind::EHHeaderParser<libunwind::LocalAddressSpace>::findFDE(libunwind::LocalAddressSpace&, unsigned long, unsigned long, unsigned int, libunwind::CFI_Parser<libunwind::LocalAddressSpace>::FDE_Info*, libunwind::CFI_Parser<libunwind::LocalAddressSpace>::CIE_Info*)
PUBLIC 32f6c 0 libunwind::EHHeaderParser<libunwind::LocalAddressSpace>::getTableEntrySize(unsigned char)
PUBLIC 33068 0 libunwind::Registers_arm64::getRegisterName(int)
PUBLIC 33098 0 __libunwind_Registers_arm64_jumpto
PUBLIC m 33128 0 __unw_getcontext
PUBLIC 331d0 0 __aarch64_ldadd8_relax
PUBLIC 33200 0 init_have_lse_atomics
PUBLIC 33298 0 __init_cpu_features_constructor
PUBLIC 33834 0 __init_cpu_features
PUBLIC 338c0 0 __aarch64_ldadd8_acq_rel
PUBLIC 338f0 0 __cxx_global_var_init
PUBLIC 33954 0 __cxx_global_var_init.1
PUBLIC 33a10 0 __cxx_global_var_init.2
PUBLIC 33a9c 0 GitHubAuthPopup::showInfo()
PUBLIC 34134 0 std::__ndk1::map<std::__ndk1::basic_string<char, std::__ndk1::char_traits<char>, std::__ndk1::allocator<char> >, int, std::__ndk1::less<std::__ndk1::basic_string<char, std::__ndk1::char_traits<char>, std::__ndk1::allocator<char> > >, std::__ndk1::allocator<std::__ndk1::pair<std::__ndk1::basic_string<char, std::__ndk1::char_traits<char>, std::__ndk1::allocator<char> > const, int> > >::~map[abi:ne180000]()
PUBLIC 3413c 0 notifyLoadLoop()
PUBLIC 345a0 0 geode::Mod::getSettingValue<bool>(std::__ndk1::basic_string_view<char, std::__ndk1::char_traits<char> >) const
PUBLIC 346d0 0 cocos2d::CCSequence::create(cocos2d::CCFiniteTimeAction*, ...)
PUBLIC 34768 0 geode::cocos::CCLambdaAction::create(std::__ndk1::function<void ()>&&)
PUBLIC 34824 0 notifyLoadLoop()::$_1::~$_1()
PUBLIC 34840 0 notifyLoadLoop()::$_0::~$_0()
PUBLIC 3485c 0 geode::Ref<cocos2d::CCActionInterval>::~Ref()
PUBLIC 34878 0 geode::Ref<cocos2d::CCNode>::~Ref()
PUBLIC 34894 0 notifyLoadLoop()::$_2::~$_2()
PUBLIC 348e0 0 geode::Ref<cocos2d::CCSequence>::~Ref()
PUBLIC 348fc 0 __cxx_global_var_init.5
PUBLIC 34988 0 __cxx_global_var_init.6
PUBLIC 349f4 0 std::__ndk1::map<std::__ndk1::basic_string<char, std::__ndk1::char_traits<char>, std::__ndk1::allocator<char> >, matjson::Value, std::__ndk1::less<std::__ndk1::basic_string<char, std::__ndk1::char_traits<char>, std::__ndk1::allocator<char> > >, std::__ndk1::allocator<std::__ndk1::pair<std::__ndk1::basic_string<char, std::__ndk1::char_traits<char>, std::__ndk1::allocator<char> > const, matjson::Value> > >::~map[abi:ne180000]()
PUBLIC 349fc 0 __cxx_global_var_init.7
PUBLIC 34a68 0 __cxx_global_var_init.9
PUBLIC 3525c 0 geode::modifier::ModifyBase<geode::modifier::ModifyDerive<InitalWebStuffLoader, MenuLayer> >::~ModifyBase()
PUBLIC 35274 0 __clang_call_terminate
PUBLIC 35284 0 std::__ndk1::__throw_length_error[abi:ne180000](char const*)
PUBLIC 352d4 0 std::length_error::length_error[abi:ne180000](char const*)
PUBLIC 35304 0 std::__throw_bad_array_new_length([abi:ne180000], void)
PUBLIC 35338 0 std::__ndk1::basic_string<char, std::__ndk1::char_traits<char>, std::__ndk1::allocator<char> >::__throw_length_error[abi:ne180000]() const
PUBLIC 3534c 0 std::__ndk1::basic_stringstream<char, std::__ndk1::char_traits<char>, std::__ndk1::allocator<char> >::basic_stringstream[abi:ne180000]()
PUBLIC 35478 0 geode::impl::ResultData<std::__ndk1::basic_string<char, std::__ndk1::char_traits<char>, std::__ndk1::allocator<char> >, std::__ndk1::basic_string<char, std::__ndk1::char_traits<char>, std::__ndk1::allocator<char> > >::~ResultData()
PUBLIC 354ec 0 geode::impl::ResultData<long, std::__ndk1::basic_string<char, std::__ndk1::char_traits<char>, std::__ndk1::allocator<char> > >::~ResultData()
PUBLIC m 35560 0 std::__ndk1::basic_stringstream<char, std::__ndk1::char_traits<char>, std::__ndk1::allocator<char> >::~basic_stringstream()
PUBLIC 355e0 0 cocos2d::CCCopying::copyWithZone(cocos2d::CCZone*)
PUBLIC 355e8 0 GitHubAuthPopup::~GitHubAuthPopup()
PUBLIC 3560c 0 cocos2d::CCLayerRGBA::setOpacityModifyRGB(bool)
PUBLIC 35610 0 cocos2d::CCLayerRGBA::isOpacityModifyRGB()
PUBLIC 35618 0 GitHubAuthPopup::FLAlert_Clicked(FLAlertLayer*, bool)
PUBLIC 35f5c 0 {virtual override thunk({offset(-320)}, GitHubAuthPopup::~GitHubAuthPopup())}
PUBLIC 35f64 0 {virtual override thunk({offset(-320)}, GitHubAuthPopup::~GitHubAuthPopup())}
PUBLIC 35f8c 0 cocos2d::CCKeyboardDelegate::keyUp(cocos2d::enumKeyCodes)
PUBLIC 35f90 0 cocos2d::CCMouseDelegate::rightKeyDown()
PUBLIC 35f94 0 cocos2d::CCMouseDelegate::rightKeyUp()
PUBLIC 35f98 0 cocos2d::CCMouseDelegate::scrollWheel(float, float)
PUBLIC 35f9c 0 {virtual override thunk({offset(-408)}, cocos2d::CCLayerRGBA::setOpacityModifyRGB(bool))}
PUBLIC 35fa0 0 {virtual override thunk({offset(-408)}, cocos2d::CCLayerRGBA::isOpacityModifyRGB())}
PUBLIC 35fa8 0 {virtual override thunk({offset(-632)}, GitHubAuthPopup::FLAlert_Clicked(FLAlertLayer*, bool))}
PUBLIC 35fb0 0 GitHubAuthPopup::onPasteToInput(cocos2d::CCObject*)
PUBLIC 360c0 0 geode::Task<geode::utils::web::WebResponse, geode::utils::web::WebProgress>::~Task()
PUBLIC 36110 0 geode::cast::traverseTypeinfoFor(void*, geode::cast::ClassTypeinfoType const*, char const*)
PUBLIC 36208 0 geode::Task<geode::utils::web::WebResponse, geode::utils::web::WebProgress>::setListener(geode::EventListenerProtocol*)
PUBLIC 3640c 0 geode::EventListener<geode::Task<geode::utils::web::WebResponse, geode::utils::web::WebProgress> >::getPool() const
PUBLIC 36410 0 geode::EventListener<geode::Task<geode::utils::web::WebResponse, geode::utils::web::WebProgress> >::handle(geode::Event*)
PUBLIC 365bc 0 geode::EventListener<geode::Task<geode::utils::web::WebResponse, geode::utils::web::WebProgress> >::~EventListener()
PUBLIC 36658 0 geode::EventListener<geode::Task<geode::utils::web::WebResponse, geode::utils::web::WebProgress> >::~EventListener()
PUBLIC 366fc 0 geode::Task<geode::utils::web::WebResponse, geode::utils::web::WebProgress>::setListener(geode::EventListenerProtocol*)::{lambda()#1}::~{lambda()#1}()
PUBLIC 3674c 0 geode::Task<geode::utils::web::WebResponse, geode::utils::web::WebProgress>::setListener(geode::EventListenerProtocol*)::{lambda()#2}::~{lambda()#2}()
PUBLIC 3679c 0 std::__ndk1::__function::__func<geode::Task<geode::utils::web::WebResponse, geode::utils::web::WebProgress>::setListener(geode::EventListenerProtocol*)::{lambda()#1}, std::__ndk1::allocator<geode::Task<geode::utils::web::WebResponse, geode::utils::web::WebProgress>::setListener(geode::EventListenerProtocol*)::{lambda()#1}>, void ()>::~__func()
PUBLIC 367f8 0 std::__ndk1::__function::__func<geode::Task<geode::utils::web::WebResponse, geode::utils::web::WebProgress>::setListener(geode::EventListenerProtocol*)::{lambda()#1}, std::__ndk1::allocator<geode::Task<geode::utils::web::WebResponse, geode::utils::web::WebProgress>::setListener(geode::EventListenerProtocol*)::{lambda()#1}>, void ()>::~__func()
PUBLIC 36864 0 std::__ndk1::__function::__func<geode::Task<geode::utils::web::WebResponse, geode::utils::web::WebProgress>::setListener(geode::EventListenerProtocol*)::{lambda()#1}, std::__ndk1::allocator<geode::Task<geode::utils::web::WebResponse, geode::utils::web::WebProgress>::setListener(geode::EventListenerProtocol*)::{lambda()#1}>, void ()>::__clone() const
PUBLIC 368bc 0 std::__ndk1::__function::__func<geode::Task<geode::utils::web::WebResponse, geode::utils::web::WebProgress>::setListener(geode::EventListenerProtocol*)::{lambda()#1}, std::__ndk1::allocator<geode::Task<geode::utils::web::WebResponse, geode::utils::web::WebProgress>::setListener(geode::EventListenerProtocol*)::{lambda()#1}>, void ()>::__clone(std::__ndk1::__function::__base<void ()>*) const
PUBLIC 36908 0 std::__ndk1::__function::__func<geode::Task<geode::utils::web::WebResponse, geode::utils::web::WebProgress>::setListener(geode::EventListenerProtocol*)::{lambda()#1}, std::__ndk1::allocator<geode::Task<geode::utils::web::WebResponse, geode::utils::web::WebProgress>::setListener(geode::EventListenerProtocol*)::{lambda()#1}>, void ()>::destroy()
PUBLIC 36958 0 std::__ndk1::__function::__func<geode::Task<geode::utils::web::WebResponse, geode::utils::web::WebProgress>::setListener(geode::EventListenerProtocol*)::{lambda()#1}, std::__ndk1::allocator<geode::Task<geode::utils::web::WebResponse, geode::utils::web::WebProgress>::setListener(geode::EventListenerProtocol*)::{lambda()#1}>, void ()>::destroy_deallocate()
PUBLIC 369b8 0 std::__ndk1::__function::__func<geode::Task<geode::utils::web::WebResponse, geode::utils::web::WebProgress>::setListener(geode::EventListenerProtocol*)::{lambda()#1}, std::__ndk1::allocator<geode::Task<geode::utils::web::WebResponse, geode::utils::web::WebProgress>::setListener(geode::EventListenerProtocol*)::{lambda()#1}>, void ()>::operator()()
PUBLIC 36b88 0 std::__ndk1::__function::__func<geode::Task<geode::utils::web::WebResponse, geode::utils::web::WebProgress>::setListener(geode::EventListenerProtocol*)::{lambda()#1}, std::__ndk1::allocator<geode::Task<geode::utils::web::WebResponse, geode::utils::web::WebProgress>::setListener(geode::EventListenerProtocol*)::{lambda()#1}>, void ()>::target(std::type_info const&) const
PUBLIC 36ba4 0 std::__ndk1::__function::__func<geode::Task<geode::utils::web::WebResponse, geode::utils::web::WebProgress>::setListener(geode::EventListenerProtocol*)::{lambda()#1}, std::__ndk1::allocator<geode::Task<geode::utils::web::WebResponse, geode::utils::web::WebProgress>::setListener(geode::EventListenerProtocol*)::{lambda()#1}>, void ()>::target_type() const
PUBLIC 36bb0 0 geode::Task<geode::utils::web::WebResponse, geode::utils::web::WebProgress>::Event::~Event()
PUBLIC 36c10 0 geode::Task<geode::utils::web::WebResponse, geode::utils::web::WebProgress>::Event::~Event()
PUBLIC 36c80 0 std::__ndk1::__function::__func<geode::Task<geode::utils::web::WebResponse, geode::utils::web::WebProgress>::setListener(geode::EventListenerProtocol*)::{lambda()#2}, std::__ndk1::allocator<geode::Task<geode::utils::web::WebResponse, geode::utils::web::WebProgress>::setListener(geode::EventListenerProtocol*)::{lambda()#2}>, void ()>::~__func()
PUBLIC 36cdc 0 std::__ndk1::__function::__func<geode::Task<geode::utils::web::WebResponse, geode::utils::web::WebProgress>::setListener(geode::EventListenerProtocol*)::{lambda()#2}, std::__ndk1::allocator<geode::Task<geode::utils::web::WebResponse, geode::utils::web::WebProgress>::setListener(geode::EventListenerProtocol*)::{lambda()#2}>, void ()>::~__func()
PUBLIC 36d48 0 std::__ndk1::__function::__func<geode::Task<geode::utils::web::WebResponse, geode::utils::web::WebProgress>::setListener(geode::EventListenerProtocol*)::{lambda()#2}, std::__ndk1::allocator<geode::Task<geode::utils::web::WebResponse, geode::utils::web::WebProgress>::setListener(geode::EventListenerProtocol*)::{lambda()#2}>, void ()>::__clone() const
PUBLIC 36da0 0 std::__ndk1::__function::__func<geode::Task<geode::utils::web::WebResponse, geode::utils::web::WebProgress>::setListener(geode::EventListenerProtocol*)::{lambda()#2}, std::__ndk1::allocator<geode::Task<geode::utils::web::WebResponse, geode::utils::web::WebProgress>::setListener(geode::EventListenerProtocol*)::{lambda()#2}>, void ()>::__clone(std::__ndk1::__function::__base<void ()>*) const
PUBLIC 36dec 0 std::__ndk1::__function::__func<geode::Task<geode::utils::web::WebResponse, geode::utils::web::WebProgress>::setListener(geode::EventListenerProtocol*)::{lambda()#2}, std::__ndk1::allocator<geode::Task<geode::utils::web::WebResponse, geode::utils::web::WebProgress>::setListener(geode::EventListenerProtocol*)::{lambda()#2}>, void ()>::destroy()
PUBLIC 36e3c 0 std::__ndk1::__function::__func<geode::Task<geode::utils::web::WebResponse, geode::utils::web::WebProgress>::setListener(geode::EventListenerProtocol*)::{lambda()#2}, std::__ndk1::allocator<geode::Task<geode::utils::web::WebResponse, geode::utils::web::WebProgress>::setListener(geode::EventListenerProtocol*)::{lambda()#2}>, void ()>::destroy_deallocate()
PUBLIC 36e9c 0 std::__ndk1::__function::__func<geode::Task<geode::utils::web::WebResponse, geode::utils::web::WebProgress>::setListener(geode::EventListenerProtocol*)::{lambda()#2}, std::__ndk1::allocator<geode::Task<geode::utils::web::WebResponse, geode::utils::web::WebProgress>::setListener(geode::EventListenerProtocol*)::{lambda()#2}>, void ()>::operator()()
PUBLIC 37060 0 std::__ndk1::__function::__func<geode::Task<geode::utils::web::WebResponse, geode::utils::web::WebProgress>::setListener(geode::EventListenerProtocol*)::{lambda()#2}, std::__ndk1::allocator<geode::Task<geode::utils::web::WebResponse, geode::utils::web::WebProgress>::setListener(geode::EventListenerProtocol*)::{lambda()#2}>, void ()>::target(std::type_info const&) const
PUBLIC 3707c 0 std::__ndk1::__function::__func<geode::Task<geode::utils::web::WebResponse, geode::utils::web::WebProgress>::setListener(geode::EventListenerProtocol*)::{lambda()#2}, std::__ndk1::allocator<geode::Task<geode::utils::web::WebResponse, geode::utils::web::WebProgress>::setListener(geode::EventListenerProtocol*)::{lambda()#2}>, void ()>::target_type() const
PUBLIC 37088 0 std::__ndk1::__throw_bad_function_call[abi:ne180000]()
PUBLIC 370bc 0 std::__ndk1::bad_function_call::~bad_function_call()
PUBLIC 370e0 0 std::__ndk1::__function::__value_func<void (geode::Task<geode::utils::web::WebResponse, geode::utils::web::WebProgress>::Event*)>::swap[abi:ne180000](std::__ndk1::__function::__value_func<void (geode::Task<geode::utils::web::WebResponse, geode::utils::web::WebProgress>::Event*)>&)
PUBLIC 37278 0 std::__ndk1::__function::__func<GitHubAuthPopup::FLAlert_Clicked(FLAlertLayer*, bool)::{lambda(geode::Task<geode::utils::web::WebResponse, geode::utils::web::WebProgress>::Event*)#1}, std::__ndk1::allocator<GitHubAuthPopup::FLAlert_Clicked(FLAlertLayer*, bool)::{lambda(geode::Task<geode::utils::web::WebResponse, geode::utils::web::WebProgress>::Event*)#1}>, void (geode::Task<geode::utils::web::WebResponse, geode::utils::web::WebProgress>::Event*)>::~__func()
PUBLIC 3727c 0 std::__ndk1::__function::__func<GitHubAuthPopup::FLAlert_Clicked(FLAlertLayer*, bool)::{lambda(geode::Task<geode::utils::web::WebResponse, geode::utils::web::WebProgress>::Event*)#1}, std::__ndk1::allocator<GitHubAuthPopup::FLAlert_Clicked(FLAlertLayer*, bool)::{lambda(geode::Task<geode::utils::web::WebResponse, geode::utils::web::WebProgress>::Event*)#1}>, void (geode::Task<geode::utils::web::WebResponse, geode::utils::web::WebProgress>::Event*)>::__clone() const
PUBLIC 372bc 0 std::__ndk1::__function::__func<GitHubAuthPopup::FLAlert_Clicked(FLAlertLayer*, bool)::{lambda(geode::Task<geode::utils::web::WebResponse, geode::utils::web::WebProgress>::Event*)#1}, std::__ndk1::allocator<GitHubAuthPopup::FLAlert_Clicked(FLAlertLayer*, bool)::{lambda(geode::Task<geode::utils::web::WebResponse, geode::utils::web::WebProgress>::Event*)#1}>, void (geode::Task<geode::utils::web::WebResponse, geode::utils::web::WebProgress>::Event*)>::__clone(std::__ndk1::__function::__base<void (geode::Task<geode::utils::web::WebResponse, geode::utils::web::WebProgress>::Event*)>*) const
PUBLIC 372dc 0 std::__ndk1::__function::__func<GitHubAuthPopup::FLAlert_Clicked(FLAlertLayer*, bool)::{lambda(geode::Task<geode::utils::web::WebResponse, geode::utils::web::WebProgress>::Event*)#1}, std::__ndk1::allocator<GitHubAuthPopup::FLAlert_Clicked(FLAlertLayer*, bool)::{lambda(geode::Task<geode::utils::web::WebResponse, geode::utils::web::WebProgress>::Event*)#1}>, void (geode::Task<geode::utils::web::WebResponse, geode::utils::web::WebProgress>::Event*)>::destroy()
PUBLIC 372e0 0 std::__ndk1::__function::__func<GitHubAuthPopup::FLAlert_Clicked(FLAlertLayer*, bool)::{lambda(geode::Task<geode::utils::web::WebResponse, geode::utils::web::WebProgress>::Event*)#1}, std::__ndk1::allocator<GitHubAuthPopup::FLAlert_Clicked(FLAlertLayer*, bool)::{lambda(geode::Task<geode::utils::web::WebResponse, geode::utils::web::WebProgress>::Event*)#1}>, void (geode::Task<geode::utils::web::WebResponse, geode::utils::web::WebProgress>::Event*)>::destroy_deallocate()
PUBLIC 372e4 0 std::__ndk1::__function::__func<GitHubAuthPopup::FLAlert_Clicked(FLAlertLayer*, bool)::{lambda(geode::Task<geode::utils::web::WebResponse, geode::utils::web::WebProgress>::Event*)#1}, std::__ndk1::allocator<GitHubAuthPopup::FLAlert_Clicked(FLAlertLayer*, bool)::{lambda(geode::Task<geode::utils::web::WebResponse, geode::utils::web::WebProgress>::Event*)#1}>, void (geode::Task<geode::utils::web::WebResponse, geode::utils::web::WebProgress>::Event*)>::operator()(geode::Task<geode::utils::web::WebResponse, geode::utils::web::WebProgress>::Event*&&)
PUBLIC 37a58 0 std::__ndk1::__function::__func<GitHubAuthPopup::FLAlert_Clicked(FLAlertLayer*, bool)::{lambda(geode::Task<geode::utils::web::WebResponse, geode::utils::web::WebProgress>::Event*)#1}, std::__ndk1::allocator<GitHubAuthPopup::FLAlert_Clicked(FLAlertLayer*, bool)::{lambda(geode::Task<geode::utils::web::WebResponse, geode::utils::web::WebProgress>::Event*)#1}>, void (geode::Task<geode::utils::web::WebResponse, geode::utils::web::WebProgress>::Event*)>::target(std::type_info const&) const
PUBLIC 37a74 0 std::__ndk1::__function::__func<GitHubAuthPopup::FLAlert_Clicked(FLAlertLayer*, bool)::{lambda(geode::Task<geode::utils::web::WebResponse, geode::utils::web::WebProgress>::Event*)#1}, std::__ndk1::allocator<GitHubAuthPopup::FLAlert_Clicked(FLAlertLayer*, bool)::{lambda(geode::Task<geode::utils::web::WebResponse, geode::utils::web::WebProgress>::Event*)#1}>, void (geode::Task<geode::utils::web::WebResponse, geode::utils::web::WebProgress>::Event*)>::target_type() const
PUBLIC 37a80 0 GitHubAuthPopup::FLAlert_Clicked(FLAlertLayer*, bool)::{lambda(std::__ndk1::basic_string<char, std::__ndk1::char_traits<char>, std::__ndk1::allocator<char> > const&)#1}::operator()(std::__ndk1::basic_string<char, std::__ndk1::char_traits<char>, std::__ndk1::allocator<char> > const&) const
PUBLIC 37bf8 0 geode::impl::ResultData<matjson::Value, matjson::ParseError>::~ResultData()
PUBLIC 37c6c 0 std::__ndk1::__throw_bad_variant_access[abi:ne180000]()
PUBLIC 37ca0 0 std::__ndk1::basic_string<char, std::__ndk1::char_traits<char>, std::__ndk1::allocator<char> >::__init_copy_ctor_external(char const*, unsigned long)
PUBLIC 37d20 0 geode::UnwrapException::~UnwrapException()
PUBLIC 37d44 0 ghAccount::try_load_user()
PUBLIC 37fc4 0 geode::Mod::getSavedValue<std::__ndk1::basic_string<char, std::__ndk1::char_traits<char>, std::__ndk1::allocator<char> > >(std::__ndk1::basic_string_view<char, std::__ndk1::char_traits<char> >)
PUBLIC 381a4 0 geode::impl::ResultData<matjson::Value&, std::__ndk1::basic_string<char, std::__ndk1::char_traits<char>, std::__ndk1::allocator<char> > >::~ResultData()
PUBLIC 38218 0 _ZN5geode15UnwrapExceptionC2IRNSt6__ndk112basic_stringIcNS2_11char_traitsIcEENS2_9allocatorIcEEEEQsr4implE18IsStringStreamableIT_EEENS_4impl6ErrTagEOSA_
PUBLIC 38380 0 std::__ndk1::basic_stringbuf<char, std::__ndk1::char_traits<char>, std::__ndk1::allocator<char> >::str[abi:ne180000]() &&
PUBLIC 384f8 0 std::__ndk1::basic_stringbuf<char, std::__ndk1::char_traits<char>, std::__ndk1::allocator<char> >::__init_buf_ptrs[abi:ne180000]()
PUBLIC 38640 0 std::__ndk1::__variant_detail::__visitation::__base::__dispatcher<(unsigned long)0>::__dispatch[abi:ne180000]<std::__ndk1::__variant_detail::__dtor<std::__ndk1::__variant_detail::__traits<std::__ndk1::reference_wrapper<matjson::Value>, std::__ndk1::basic_string<char, std::__ndk1::char_traits<char>, std::__ndk1::allocator<char> > >, (std::__ndk1::__variant_detail::_Trait)1>::__destroy[abi:ne180000]()::{lambda(auto:1&)#1}, std::__ndk1::__variant_detail::__base<(std::__ndk1::__variant_detail::__traits<std::__ndk1::reference_wrapper<matjson::Value>, std::__ndk1::basic_string<char, std::__ndk1::char_traits<char>, std::__ndk1::allocator<char> > >)1, matjson::Value, std::__ndk1::allocator<char> >&>(std::__ndk1::__variant_detail::__dtor<std::__ndk1::__variant_detail::__traits<std::__ndk1::reference_wrapper<matjson::Value>, std::__ndk1::basic_string<char, std::__ndk1::char_traits<char>, std::__ndk1::allocator<char> > >, (std::__ndk1::__variant_detail::_Trait)1>, std::__ndk1::__variant_detail::__base<(std::__ndk1::__variant_detail::__traits<std::__ndk1::reference_wrapper<matjson::Value>, std::__ndk1::basic_string<char, std::__ndk1::char_traits<char>, std::__ndk1::allocator<char> > >)1, matjson::Value, std::__ndk1::allocator<char> >&)
PUBLIC 38644 0 std::__ndk1::__variant_detail::__visitation::__base::__dispatcher<(unsigned long)1>::__dispatch[abi:ne180000]<std::__ndk1::__variant_detail::__dtor<std::__ndk1::__variant_detail::__traits<std::__ndk1::reference_wrapper<matjson::Value>, std::__ndk1::basic_string<char, std::__ndk1::char_traits<char>, std::__ndk1::allocator<char> > >, (std::__ndk1::__variant_detail::_Trait)1>::__destroy[abi:ne180000]()::{lambda(auto:1&)#1}, std::__ndk1::__variant_detail::__base<(std::__ndk1::__variant_detail::__traits<std::__ndk1::reference_wrapper<matjson::Value>, std::__ndk1::basic_string<char, std::__ndk1::char_traits<char>, std::__ndk1::allocator<char> > >)1, matjson::Value, std::__ndk1::allocator<char> >&>(std::__ndk1::__variant_detail::__dtor<std::__ndk1::__variant_detail::__traits<std::__ndk1::reference_wrapper<matjson::Value>, std::__ndk1::basic_string<char, std::__ndk1::char_traits<char>, std::__ndk1::allocator<char> > >, (std::__ndk1::__variant_detail::_Trait)1>, std::__ndk1::__variant_detail::__base<(std::__ndk1::__variant_detail::__traits<std::__ndk1::reference_wrapper<matjson::Value>, std::__ndk1::basic_string<char, std::__ndk1::char_traits<char>, std::__ndk1::allocator<char> > >)1, matjson::Value, std::__ndk1::allocator<char> >&)
PUBLIC 38658 0 std::__ndk1::__variant_detail::__visitation::__base::__dispatcher<(unsigned long)0>::__dispatch[abi:ne180000]<std::__ndk1::__variant_detail::__dtor<std::__ndk1::__variant_detail::__traits<std::__ndk1::monostate, std::__ndk1::basic_string<char, std::__ndk1::char_traits<char>, std::__ndk1::allocator<char> > >, (std::__ndk1::__variant_detail::_Trait)1>::__destroy[abi:ne180000]()::{lambda(auto:1&)#1}, std::__ndk1::__variant_detail::__base<(std::__ndk1::__variant_detail::__traits<std::__ndk1::monostate, std::__ndk1::basic_string<char, std::__ndk1::char_traits<char>, std::__ndk1::allocator<char> > >)1, std::__ndk1::__variant_detail::__traits, std::__ndk1::allocator<char> >&>(std::__ndk1::__variant_detail::__dtor<std::__ndk1::__variant_detail::__traits<std::__ndk1::monostate, std::__ndk1::basic_string<char, std::__ndk1::char_traits<char>, std::__ndk1::allocator<char> > >, (std::__ndk1::__variant_detail::_Trait)1>, std::__ndk1::__variant_detail::__base<(std::__ndk1::__variant_detail::__traits<std::__ndk1::monostate, std::__ndk1::basic_string<char, std::__ndk1::char_traits<char>, std::__ndk1::allocator<char> > >)1, std::__ndk1::__variant_detail::__traits, std::__ndk1::allocator<char> >&)
PUBLIC 3865c 0 std::__ndk1::__variant_detail::__visitation::__base::__dispatcher<(unsigned long)1>::__dispatch[abi:ne180000]<std::__ndk1::__variant_detail::__dtor<std::__ndk1::__variant_detail::__traits<std::__ndk1::monostate, std::__ndk1::basic_string<char, std::__ndk1::char_traits<char>, std::__ndk1::allocator<char> > >, (std::__ndk1::__variant_detail::_Trait)1>::__destroy[abi:ne180000]()::{lambda(auto:1&)#1}, std::__ndk1::__variant_detail::__base<(std::__ndk1::__variant_detail::__traits<std::__ndk1::monostate, std::__ndk1::basic_string<char, std::__ndk1::char_traits<char>, std::__ndk1::allocator<char> > >)1, std::__ndk1::__variant_detail::__traits, std::__ndk1::allocator<char> >&>(std::__ndk1::__variant_detail::__dtor<std::__ndk1::__variant_detail::__traits<std::__ndk1::monostate, std::__ndk1::basic_string<char, std::__ndk1::char_traits<char>, std::__ndk1::allocator<char> > >, (std::__ndk1::__variant_detail::_Trait)1>, std::__ndk1::__variant_detail::__base<(std::__ndk1::__variant_detail::__traits<std::__ndk1::monostate, std::__ndk1::basic_string<char, std::__ndk1::char_traits<char>, std::__ndk1::allocator<char> > >)1, std::__ndk1::__variant_detail::__traits, std::__ndk1::allocator<char> >&)
PUBLIC 38670 0 ghAccount::get_basic_web_request()
PUBLIC 38968 0 std::__ndk1::__function::__func<ghAccount::try_load_user()::{lambda(geode::Task<geode::utils::web::WebResponse, geode::utils::web::WebProgress>::Event*)#1}, std::__ndk1::allocator<ghAccount::try_load_user()::{lambda(geode::Task<geode::utils::web::WebResponse, geode::utils::web::WebProgress>::Event*)#1}>, void (geode::Task<geode::utils::web::WebResponse, geode::utils::web::WebProgress>::Event*)>::~__func()
PUBLIC 3896c 0 std::__ndk1::__function::__func<ghAccount::try_load_user()::{lambda(geode::Task<geode::utils::web::WebResponse, geode::utils::web::WebProgress>::Event*)#1}, std::__ndk1::allocator<ghAccount::try_load_user()::{lambda(geode::Task<geode::utils::web::WebResponse, geode::utils::web::WebProgress>::Event*)#1}>, void (geode::Task<geode::utils::web::WebResponse, geode::utils::web::WebProgress>::Event*)>::__clone() const
PUBLIC 38990 0 std::__ndk1::__function::__func<ghAccount::try_load_user()::{lambda(geode::Task<geode::utils::web::WebResponse, geode::utils::web::WebProgress>::Event*)#1}, std::__ndk1::allocator<ghAccount::try_load_user()::{lambda(geode::Task<geode::utils::web::WebResponse, geode::utils::web::WebProgress>::Event*)#1}>, void (geode::Task<geode::utils::web::WebResponse, geode::utils::web::WebProgress>::Event*)>::__clone(std::__ndk1::__function::__base<void (geode::Task<geode::utils::web::WebResponse, geode::utils::web::WebProgress>::Event*)>*) const
PUBLIC 389a0 0 std::__ndk1::__function::__func<ghAccount::try_load_user()::{lambda(geode::Task<geode::utils::web::WebResponse, geode::utils::web::WebProgress>::Event*)#1}, std::__ndk1::allocator<ghAccount::try_load_user()::{lambda(geode::Task<geode::utils::web::WebResponse, geode::utils::web::WebProgress>::Event*)#1}>, void (geode::Task<geode::utils::web::WebResponse, geode::utils::web::WebProgress>::Event*)>::destroy()
PUBLIC 389a4 0 std::__ndk1::__function::__func<ghAccount::try_load_user()::{lambda(geode::Task<geode::utils::web::WebResponse, geode::utils::web::WebProgress>::Event*)#1}, std::__ndk1::allocator<ghAccount::try_load_user()::{lambda(geode::Task<geode::utils::web::WebResponse, geode::utils::web::WebProgress>::Event*)#1}>, void (geode::Task<geode::utils::web::WebResponse, geode::utils::web::WebProgress>::Event*)>::destroy_deallocate()
PUBLIC 389a8 0 std::__ndk1::__function::__func<ghAccount::try_load_user()::{lambda(geode::Task<geode::utils::web::WebResponse, geode::utils::web::WebProgress>::Event*)#1}, std::__ndk1::allocator<ghAccount::try_load_user()::{lambda(geode::Task<geode::utils::web::WebResponse, geode::utils::web::WebProgress>::Event*)#1}>, void (geode::Task<geode::utils::web::WebResponse, geode::utils::web::WebProgress>::Event*)>::operator()(geode::Task<geode::utils::web::WebResponse, geode::utils::web::WebProgress>::Event*&&)
PUBLIC 38e34 0 std::__ndk1::__function::__func<ghAccount::try_load_user()::{lambda(geode::Task<geode::utils::web::WebResponse, geode::utils::web::WebProgress>::Event*)#1}, std::__ndk1::allocator<ghAccount::try_load_user()::{lambda(geode::Task<geode::utils::web::WebResponse, geode::utils::web::WebProgress>::Event*)#1}>, void (geode::Task<geode::utils::web::WebResponse, geode::utils::web::WebProgress>::Event*)>::target(std::type_info const&) const
PUBLIC 38e50 0 std::__ndk1::__function::__func<ghAccount::try_load_user()::{lambda(geode::Task<geode::utils::web::WebResponse, geode::utils::web::WebProgress>::Event*)#1}, std::__ndk1::allocator<ghAccount::try_load_user()::{lambda(geode::Task<geode::utils::web::WebResponse, geode::utils::web::WebProgress>::Event*)#1}>, void (geode::Task<geode::utils::web::WebResponse, geode::utils::web::WebProgress>::Event*)>::target_type() const
PUBLIC 38e5c 0 geode::Ref<FLAlertLayer>::~Ref()
PUBLIC 38e78 0 geode::impl::ResultData<matjson::Value, std::__ndk1::basic_string<char, std::__ndk1::char_traits<char>, std::__ndk1::allocator<char> > >::~ResultData()
PUBLIC 38eec 0 std::__ndk1::__function::__func<ghAccount::try_load_user()::{lambda(geode::Task<geode::utils::web::WebResponse, geode::utils::web::WebProgress>::Event*)#1}::operator()(geode::Task<geode::utils::web::WebResponse, geode::utils::web::WebProgress>::Event*) const::{lambda(cocos2d::CCNode*, bool)#1}, std::__ndk1::allocator<ghAccount::try_load_user()::{lambda(geode::Task<geode::utils::web::WebResponse, geode::utils::web::WebProgress>::Event*)#1}::operator()(geode::Task<geode::utils::web::WebResponse, geode::utils::web::WebProgress>::Event*) const::{lambda(cocos2d::CCNode*, bool)#1}>, void (FLAlertLayer*, bool)>::~__func()
PUBLIC 38f1c 0 std::__ndk1::__function::__func<ghAccount::try_load_user()::{lambda(geode::Task<geode::utils::web::WebResponse, geode::utils::web::WebProgress>::Event*)#1}::operator()(geode::Task<geode::utils::web::WebResponse, geode::utils::web::WebProgress>::Event*) const::{lambda(cocos2d::CCNode*, bool)#1}, std::__ndk1::allocator<ghAccount::try_load_user()::{lambda(geode::Task<geode::utils::web::WebResponse, geode::utils::web::WebProgress>::Event*)#1}::operator()(geode::Task<geode::utils::web::WebResponse, geode::utils::web::WebProgress>::Event*) const::{lambda(cocos2d::CCNode*, bool)#1}>, void (FLAlertLayer*, bool)>::~__func()
PUBLIC 38f58 0 std::__ndk1::__function::__func<ghAccount::try_load_user()::{lambda(geode::Task<geode::utils::web::WebResponse, geode::utils::web::WebProgress>::Event*)#1}::operator()(geode::Task<geode::utils::web::WebResponse, geode::utils::web::WebProgress>::Event*) const::{lambda(cocos2d::CCNode*, bool)#1}, std::__ndk1::allocator<ghAccount::try_load_user()::{lambda(geode::Task<geode::utils::web::WebResponse, geode::utils::web::WebProgress>::Event*)#1}::operator()(geode::Task<geode::utils::web::WebResponse, geode::utils::web::WebProgress>::Event*) const::{lambda(cocos2d::CCNode*, bool)#1}>, void (FLAlertLayer*, bool)>::__clone() const
PUBLIC 38fb0 0 std::__ndk1::__function::__func<ghAccount::try_load_user()::{lambda(geode::Task<geode::utils::web::WebResponse, geode::utils::web::WebProgress>::Event*)#1}::operator()(geode::Task<geode::utils::web::WebResponse, geode::utils::web::WebProgress>::Event*) const::{lambda(cocos2d::CCNode*, bool)#1}, std::__ndk1::allocator<ghAccount::try_load_user()::{lambda(geode::Task<geode::utils::web::WebResponse, geode::utils::web::WebProgress>::Event*)#1}::operator()(geode::Task<geode::utils::web::WebResponse, geode::utils::web::WebProgress>::Event*) const::{lambda(cocos2d::CCNode*, bool)#1}>, void (FLAlertLayer*, bool)>::__clone(std::__ndk1::__function::__base<void (FLAlertLayer*, bool)>*) const
PUBLIC 38fcc 0 std::__ndk1::__function::__func<ghAccount::try_load_user()::{lambda(geode::Task<geode::utils::web::WebResponse, geode::utils::web::WebProgress>::Event*)#1}::operator()(geode::Task<geode::utils::web::WebResponse, geode::utils::web::WebProgress>::Event*) const::{lambda(cocos2d::CCNode*, bool)#1}, std::__ndk1::allocator<ghAccount::try_load_user()::{lambda(geode::Task<geode::utils::web::WebResponse, geode::utils::web::WebProgress>::Event*)#1}::operator()(geode::Task<geode::utils::web::WebResponse, geode::utils::web::WebProgress>::Event*) const::{lambda(cocos2d::CCNode*, bool)#1}>, void (FLAlertLayer*, bool)>::destroy()
PUBLIC 38fec 0 std::__ndk1::__function::__func<ghAccount::try_load_user()::{lambda(geode::Task<geode::utils::web::WebResponse, geode::utils::web::WebProgress>::Event*)#1}::operator()(geode::Task<geode::utils::web::WebResponse, geode::utils::web::WebProgress>::Event*) const::{lambda(cocos2d::CCNode*, bool)#1}, std::__ndk1::allocator<ghAccount::try_load_user()::{lambda(geode::Task<geode::utils::web::WebResponse, geode::utils::web::WebProgress>::Event*)#1}::operator()(geode::Task<geode::utils::web::WebResponse, geode::utils::web::WebProgress>::Event*) const::{lambda(cocos2d::CCNode*, bool)#1}>, void (FLAlertLayer*, bool)>::destroy_deallocate()
PUBLIC 3901c 0 std::__ndk1::__function::__func<ghAccount::try_load_user()::{lambda(geode::Task<geode::utils::web::WebResponse, geode::utils::web::WebProgress>::Event*)#1}::operator()(geode::Task<geode::utils::web::WebResponse, geode::utils::web::WebProgress>::Event*) const::{lambda(cocos2d::CCNode*, bool)#1}, std::__ndk1::allocator<ghAccount::try_load_user()::{lambda(geode::Task<geode::utils::web::WebResponse, geode::utils::web::WebProgress>::Event*)#1}::operator()(geode::Task<geode::utils::web::WebResponse, geode::utils::web::WebProgress>::Event*) const::{lambda(cocos2d::CCNode*, bool)#1}>, void (FLAlertLayer*, bool)>::operator()(FLAlertLayer*&&, bool&&)
PUBLIC 39068 0 std::__ndk1::__function::__func<ghAccount::try_load_user()::{lambda(geode::Task<geode::utils::web::WebResponse, geode::utils::web::WebProgress>::Event*)#1}::operator()(geode::Task<geode::utils::web::WebResponse, geode::utils::web::WebProgress>::Event*) const::{lambda(cocos2d::CCNode*, bool)#1}, std::__ndk1::allocator<ghAccount::try_load_user()::{lambda(geode::Task<geode::utils::web::WebResponse, geode::utils::web::WebProgress>::Event*)#1}::operator()(geode::Task<geode::utils::web::WebResponse, geode::utils::web::WebProgress>::Event*) const::{lambda(cocos2d::CCNode*, bool)#1}>, void (FLAlertLayer*, bool)>::target(std::type_info const&) const
PUBLIC 39084 0 std::__ndk1::__function::__func<ghAccount::try_load_user()::{lambda(geode::Task<geode::utils::web::WebResponse, geode::utils::web::WebProgress>::Event*)#1}::operator()(geode::Task<geode::utils::web::WebResponse, geode::utils::web::WebProgress>::Event*) const::{lambda(cocos2d::CCNode*, bool)#1}, std::__ndk1::allocator<ghAccount::try_load_user()::{lambda(geode::Task<geode::utils::web::WebResponse, geode::utils::web::WebProgress>::Event*)#1}::operator()(geode::Task<geode::utils::web::WebResponse, geode::utils::web::WebProgress>::Event*) const::{lambda(cocos2d::CCNode*, bool)#1}>, void (FLAlertLayer*, bool)>::target_type() const
PUBLIC 39090 0 std::__ndk1::__variant_detail::__visitation::__base::__dispatcher<(unsigned long)0>::__dispatch[abi:ne180000]<std::__ndk1::__variant_detail::__dtor<std::__ndk1::__variant_detail::__traits<matjson::Value, std::__ndk1::basic_string<char, std::__ndk1::char_traits<char>, std::__ndk1::allocator<char> > >, (std::__ndk1::__variant_detail::_Trait)1>::__destroy[abi:ne180000]()::{lambda(auto:1&)#1}, std::__ndk1::__variant_detail::__base<(std::__ndk1::__variant_detail::__traits<matjson::Value, std::__ndk1::basic_string<char, std::__ndk1::char_traits<char>, std::__ndk1::allocator<char> > >)1, matjson, std::__ndk1::allocator<char> >&>(std::__ndk1::__variant_detail::__dtor<std::__ndk1::__variant_detail::__traits<matjson::Value, std::__ndk1::basic_string<char, std::__ndk1::char_traits<char>, std::__ndk1::allocator<char> > >, (std::__ndk1::__variant_detail::_Trait)1>, std::__ndk1::__variant_detail::__base<(std::__ndk1::__variant_detail::__traits<matjson::Value, std::__ndk1::basic_string<char, std::__ndk1::char_traits<char>, std::__ndk1::allocator<char> > >)1, matjson, std::__ndk1::allocator<char> >&)
PUBLIC 39098 0 std::__ndk1::__variant_detail::__visitation::__base::__dispatcher<(unsigned long)1>::__dispatch[abi:ne180000]<std::__ndk1::__variant_detail::__dtor<std::__ndk1::__variant_detail::__traits<matjson::Value, std::__ndk1::basic_string<char, std::__ndk1::char_traits<char>, std::__ndk1::allocator<char> > >, (std::__ndk1::__variant_detail::_Trait)1>::__destroy[abi:ne180000]()::{lambda(auto:1&)#1}, std::__ndk1::__variant_detail::__base<(std::__ndk1::__variant_detail::__traits<matjson::Value, std::__ndk1::basic_string<char, std::__ndk1::char_traits<char>, std::__ndk1::allocator<char> > >)1, matjson, std::__ndk1::allocator<char> >&>(std::__ndk1::__variant_detail::__dtor<std::__ndk1::__variant_detail::__traits<matjson::Value, std::__ndk1::basic_string<char, std::__ndk1::char_traits<char>, std::__ndk1::allocator<char> > >, (std::__ndk1::__variant_detail::_Trait)1>, std::__ndk1::__variant_detail::__base<(std::__ndk1::__variant_detail::__traits<matjson::Value, std::__ndk1::basic_string<char, std::__ndk1::char_traits<char>, std::__ndk1::allocator<char> > >)1, matjson, std::__ndk1::allocator<char> >&)
PUBLIC 390ac 0 std::__ndk1::__variant_detail::__visitation::__base::__dispatcher<(unsigned long)0>::__dispatch[abi:ne180000]<std::__ndk1::__variant_detail::__dtor<std::__ndk1::__variant_detail::__traits<matjson::Value, std::__ndk1::__variant_detail::__traits::ParseError>, (std::__ndk1::__variant_detail::_Trait)1>::__destroy[abi:ne180000]()::{lambda(auto:1&)#1}, std::__ndk1::__variant_detail::__base<(std::__ndk1::__variant_detail::__traits<matjson::Value, std::__ndk1::__variant_detail::__traits::ParseError>)1, matjson, matjson::Value>&>(std::__ndk1::__variant_detail::__dtor<std::__ndk1::__variant_detail::__traits<matjson::Value, std::__ndk1::__variant_detail::__traits::ParseError>, (std::__ndk1::__variant_detail::_Trait)1>, std::__ndk1::__variant_detail::__base<(std::__ndk1::__variant_detail::__traits<matjson::Value, std::__ndk1::__variant_detail::__traits::ParseError>)1, matjson, matjson::Value>&)
PUBLIC 390b4 0 std::__ndk1::__variant_detail::__visitation::__base::__dispatcher<(unsigned long)1>::__dispatch[abi:ne180000]<std::__ndk1::__variant_detail::__dtor<std::__ndk1::__variant_detail::__traits<matjson::Value, std::__ndk1::__variant_detail::__traits::ParseError>, (std::__ndk1::__variant_detail::_Trait)1>::__destroy[abi:ne180000]()::{lambda(auto:1&)#1}, std::__ndk1::__variant_detail::__base<(std::__ndk1::__variant_detail::__traits<matjson::Value, std::__ndk1::__variant_detail::__traits::ParseError>)1, matjson, matjson::Value>&>(std::__ndk1::__variant_detail::__dtor<std::__ndk1::__variant_detail::__traits<matjson::Value, std::__ndk1::__variant_detail::__traits::ParseError>, (std::__ndk1::__variant_detail::_Trait)1>, std::__ndk1::__variant_detail::__base<(std::__ndk1::__variant_detail::__traits<matjson::Value, std::__ndk1::__variant_detail::__traits::ParseError>)1, matjson, matjson::Value>&)
PUBLIC 390c8 0 std::__ndk1::__put_character_sequence[abi:ne180000]<char, std::__ndk1::char_traits<char> >(std::__ndk1::basic_ostream<char, std::__ndk1::char_traits<char> >, std::__ndk1::basic_ostream const*, unsigned long)
PUBLIC 3926c 0 std::__ndk1::__pad_and_output[abi:ne180000]<char, std::__ndk1::char_traits<char> >(std::__ndk1::char_traits<char>, std::__ndk1::ostreambuf_iterator const*, std::__ndk1::ostreambuf_iterator const, std::__ndk1::ostreambuf_iterator const, std::__ndk1::ios_base&, std::__ndk1::ostreambuf_iterator)
PUBLIC 39448 0 std::__ndk1::__variant_detail::__visitation::__base::__dispatcher<(unsigned long)0>::__dispatch[abi:ne180000]<std::__ndk1::__variant_detail::__dtor<std::__ndk1::__variant_detail::__traits<std::__ndk1::basic_string<char, std::__ndk1::char_traits<char>, std::__ndk1::allocator<char> >, std::__ndk1::allocator<char> >, (std::__ndk1::__variant_detail::_Trait)1>::__destroy[abi:ne180000]()::{lambda(auto:1&)#1}, std::__ndk1::__variant_detail::__base<(std::__ndk1::__variant_detail::__traits<std::__ndk1::basic_string<char, std::__ndk1::char_traits<char>, std::__ndk1::allocator<char> >, std::__ndk1::allocator<char> >)1, std::__ndk1::allocator<char>, std::__ndk1::allocator<char> >&>(std::__ndk1::__variant_detail::__dtor<std::__ndk1::__variant_detail::__traits<std::__ndk1::basic_string<char, std::__ndk1::char_traits<char>, std::__ndk1::allocator<char> >, std::__ndk1::allocator<char> >, (std::__ndk1::__variant_detail::_Trait)1>, std::__ndk1::__variant_detail::__base<(std::__ndk1::__variant_detail::__traits<std::__ndk1::basic_string<char, std::__ndk1::char_traits<char>, std::__ndk1::allocator<char> >, std::__ndk1::allocator<char> >)1, std::__ndk1::allocator<char>, std::__ndk1::allocator<char> >&)
PUBLIC 3945c 0 std::__ndk1::__variant_detail::__visitation::__base::__dispatcher<(unsigned long)1>::__dispatch[abi:ne180000]<std::__ndk1::__variant_detail::__dtor<std::__ndk1::__variant_detail::__traits<std::__ndk1::basic_string<char, std::__ndk1::char_traits<char>, std::__ndk1::allocator<char> >, std::__ndk1::allocator<char> >, (std::__ndk1::__variant_detail::_Trait)1>::__destroy[abi:ne180000]()::{lambda(auto:1&)#1}, std::__ndk1::__variant_detail::__base<(std::__ndk1::__variant_detail::__traits<std::__ndk1::basic_string<char, std::__ndk1::char_traits<char>, std::__ndk1::allocator<char> >, std::__ndk1::allocator<char> >)1, std::__ndk1::allocator<char>, std::__ndk1::allocator<char> >&>(std::__ndk1::__variant_detail::__dtor<std::__ndk1::__variant_detail::__traits<std::__ndk1::basic_string<char, std::__ndk1::char_traits<char>, std::__ndk1::allocator<char> >, std::__ndk1::allocator<char> >, (std::__ndk1::__variant_detail::_Trait)1>, std::__ndk1::__variant_detail::__base<(std::__ndk1::__variant_detail::__traits<std::__ndk1::basic_string<char, std::__ndk1::char_traits<char>, std::__ndk1::allocator<char> >, std::__ndk1::allocator<char> >)1, std::__ndk1::allocator<char>, std::__ndk1::allocator<char> >&)
PUBLIC 39470 0 std::__ndk1::__variant_detail::__visitation::__base::__dispatcher<(unsigned long)0>::__dispatch[abi:ne180000]<std::__ndk1::__variant_detail::__dtor<std::__ndk1::__variant_detail::__traits<long, std::__ndk1::basic_string<char, std::__ndk1::char_traits<char>, std::__ndk1::allocator<char> > >, (std::__ndk1::__variant_detail::_Trait)1>::__destroy[abi:ne180000]()::{lambda(auto:1&)#1}, std::__ndk1::__variant_detail::__base<(std::__ndk1::__variant_detail::__traits<long, std::__ndk1::basic_string<char, std::__ndk1::char_traits<char>, std::__ndk1::allocator<char> > >)1, long, std::__ndk1::allocator<char> >&>(std::__ndk1::__variant_detail::__dtor<std::__ndk1::__variant_detail::__traits<long, std::__ndk1::basic_string<char, std::__ndk1::char_traits<char>, std::__ndk1::allocator<char> > >, (std::__ndk1::__variant_detail::_Trait)1>, std::__ndk1::__variant_detail::__base<(std::__ndk1::__variant_detail::__traits<long, std::__ndk1::basic_string<char, std::__ndk1::char_traits<char>, std::__ndk1::allocator<char> > >)1, long, std::__ndk1::allocator<char> >&)
PUBLIC 39474 0 std::__ndk1::__variant_detail::__visitation::__base::__dispatcher<(unsigned long)1>::__dispatch[abi:ne180000]<std::__ndk1::__variant_detail::__dtor<std::__ndk1::__variant_detail::__traits<long, std::__ndk1::basic_string<char, std::__ndk1::char_traits<char>, std::__ndk1::allocator<char> > >, (std::__ndk1::__variant_detail::_Trait)1>::__destroy[abi:ne180000]()::{lambda(auto:1&)#1}, std::__ndk1::__variant_detail::__base<(std::__ndk1::__variant_detail::__traits<long, std::__ndk1::basic_string<char, std::__ndk1::char_traits<char>, std::__ndk1::allocator<char> > >)1, long, std::__ndk1::allocator<char> >&>(std::__ndk1::__variant_detail::__dtor<std::__ndk1::__variant_detail::__traits<long, std::__ndk1::basic_string<char, std::__ndk1::char_traits<char>, std::__ndk1::allocator<char> > >, (std::__ndk1::__variant_detail::_Trait)1>, std::__ndk1::__variant_detail::__base<(std::__ndk1::__variant_detail::__traits<long, std::__ndk1::basic_string<char, std::__ndk1::char_traits<char>, std::__ndk1::allocator<char> > >)1, long, std::__ndk1::allocator<char> >&)
PUBLIC 39488 0 geode::cocos::CCLambdaAction::~CCLambdaAction()
PUBLIC 394e4 0 geode::cocos::CCLambdaAction::~CCLambdaAction()
PUBLIC 39548 0 geode::cocos::CCLambdaAction::update(float)
PUBLIC 39568 0 cocos2d::CCAction::setTag(int)
PUBLIC 39570 0 hi()::$_0::__invoke(geode::ModPopupUIEvent*)
PUBLIC 3a174 0 geode::cocos::CCMenuItemExt::assignCallback<CCMenuItemSpriteExtra>(cocos2d::CCMenuItem*, std::__ndk1::function<void (CCMenuItemSpriteExtra*)>)
PUBLIC 3a46c 0 hi()::$_0::operator()(geode::ModPopupUIEvent*) const::{lambda(CCMenuItemSpriteExtra*)#1}::~{lambda(CCMenuItemSpriteExtra*)#1}()
PUBLIC 3a4b0 0 geode::cocos::CCMenuItemExt::createSpriteExtra(cocos2d::CCNode*, std::__ndk1::function<void (CCMenuItemSpriteExtra*)>)
PUBLIC 3a5ec 0 std::__ndk1::__throw_bad_optional_access[abi:ne180000]()
PUBLIC 3a620 0 geode::cocos::CCMenuItemExt::LambdaCallback<CCMenuItemSpriteExtra>::execute(cocos2d::CCNode*)
PUBLIC 3a690 0 geode::cocos::CCMenuItemExt::LambdaCallback<CCMenuItemSpriteExtra>::~LambdaCallback()
PUBLIC 3a6ec 0 geode::cocos::CCMenuItemExt::LambdaCallback<CCMenuItemSpriteExtra>::~LambdaCallback()
PUBLIC 3a750 0 cocos2d::CCObject::update(float)
PUBLIC 3a754 0 std::__ndk1::__function::__func<hi()::$_0::operator()(geode::ModPopupUIEvent*) const::{lambda(CCMenuItemSpriteExtra*)#1}, std::__ndk1::allocator<hi()::$_0::operator()(geode::ModPopupUIEvent*) const::{lambda(CCMenuItemSpriteExtra*)#1}>, void (CCMenuItemSpriteExtra*)>::~__func()
PUBLIC 3a7a4 0 std::__ndk1::__function::__func<hi()::$_0::operator()(geode::ModPopupUIEvent*) const::{lambda(CCMenuItemSpriteExtra*)#1}, std::__ndk1::allocator<hi()::$_0::operator()(geode::ModPopupUIEvent*) const::{lambda(CCMenuItemSpriteExtra*)#1}>, void (CCMenuItemSpriteExtra*)>::~__func()
PUBLIC 3a808 0 std::__ndk1::__function::__func<hi()::$_0::operator()(geode::ModPopupUIEvent*) const::{lambda(CCMenuItemSpriteExtra*)#1}, std::__ndk1::allocator<hi()::$_0::operator()(geode::ModPopupUIEvent*) const::{lambda(CCMenuItemSpriteExtra*)#1}>, void (CCMenuItemSpriteExtra*)>::__clone() const
PUBLIC 3a8e4 0 std::__ndk1::__function::__func<hi()::$_0::operator()(geode::ModPopupUIEvent*) const::{lambda(CCMenuItemSpriteExtra*)#1}, std::__ndk1::allocator<hi()::$_0::operator()(geode::ModPopupUIEvent*) const::{lambda(CCMenuItemSpriteExtra*)#1}>, void (CCMenuItemSpriteExtra*)>::__clone(std::__ndk1::__function::__base<void (CCMenuItemSpriteExtra*)>*) const
PUBLIC 3a9a0 0 std::__ndk1::__function::__func<hi()::$_0::operator()(geode::ModPopupUIEvent*) const::{lambda(CCMenuItemSpriteExtra*)#1}, std::__ndk1::allocator<hi()::$_0::operator()(geode::ModPopupUIEvent*) const::{lambda(CCMenuItemSpriteExtra*)#1}>, void (CCMenuItemSpriteExtra*)>::destroy()
PUBLIC 3a9e4 0 std::__ndk1::__function::__func<hi()::$_0::operator()(geode::ModPopupUIEvent*) const::{lambda(CCMenuItemSpriteExtra*)#1}, std::__ndk1::allocator<hi()::$_0::operator()(geode::ModPopupUIEvent*) const::{lambda(CCMenuItemSpriteExtra*)#1}>, void (CCMenuItemSpriteExtra*)>::destroy_deallocate()
PUBLIC 3aa3c 0 std::__ndk1::__function::__func<hi()::$_0::operator()(geode::ModPopupUIEvent*) const::{lambda(CCMenuItemSpriteExtra*)#1}, std::__ndk1::allocator<hi()::$_0::operator()(geode::ModPopupUIEvent*) const::{lambda(CCMenuItemSpriteExtra*)#1}>, void (CCMenuItemSpriteExtra*)>::operator()(CCMenuItemSpriteExtra*&&)
PUBLIC 3af28 0 std::__ndk1::__function::__func<hi()::$_0::operator()(geode::ModPopupUIEvent*) const::{lambda(CCMenuItemSpriteExtra*)#1}, std::__ndk1::allocator<hi()::$_0::operator()(geode::ModPopupUIEvent*) const::{lambda(CCMenuItemSpriteExtra*)#1}>, void (CCMenuItemSpriteExtra*)>::target(std::type_info const&) const
PUBLIC 3af44 0 std::__ndk1::__function::__func<hi()::$_0::operator()(geode::ModPopupUIEvent*) const::{lambda(CCMenuItemSpriteExtra*)#1}, std::__ndk1::allocator<hi()::$_0::operator()(geode::ModPopupUIEvent*) const::{lambda(CCMenuItemSpriteExtra*)#1}>, void (CCMenuItemSpriteExtra*)>::target_type() const
PUBLIC 3af50 0 std::__ndk1::__tree<std::__ndk1::__value_type<std::__ndk1::basic_string<char, std::__ndk1::char_traits<char>, std::__ndk1::allocator<char> >, matjson::Value>, std::__ndk1::__map_value_compare<std::__ndk1::basic_string<char, std::__ndk1::char_traits<char>, std::__ndk1::allocator<char> >, std::__ndk1::__value_type<std::__ndk1::basic_string<char, std::__ndk1::char_traits<char>, std::__ndk1::allocator<char> >, matjson::Value>, std::__ndk1::less<std::__ndk1::basic_string<char, std::__ndk1::char_traits<char>, std::__ndk1::allocator<char> > >, true>, std::__ndk1::allocator<std::__ndk1::__value_type<std::__ndk1::basic_string<char, std::__ndk1::char_traits<char>, std::__ndk1::allocator<char> >, matjson::Value> > >::find<std::__ndk1::basic_string<char, std::__ndk1::char_traits<char>, std::__ndk1::allocator<char> > >(std::__ndk1::basic_string<char, std::__ndk1::char_traits<char>, std::__ndk1::allocator<char> > const&) const
PUBLIC 3b074 0 std::__ndk1::__tree<std::__ndk1::__value_type<std::__ndk1::basic_string<char, std::__ndk1::char_traits<char>, std::__ndk1::allocator<char> >, matjson::Value>, std::__ndk1::__map_value_compare<std::__ndk1::basic_string<char, std::__ndk1::char_traits<char>, std::__ndk1::allocator<char> >, std::__ndk1::__value_type<std::__ndk1::basic_string<char, std::__ndk1::char_traits<char>, std::__ndk1::allocator<char> >, matjson::Value>, std::__ndk1::less<std::__ndk1::basic_string<char, std::__ndk1::char_traits<char>, std::__ndk1::allocator<char> > >, true>, std::__ndk1::allocator<std::__ndk1::__value_type<std::__ndk1::basic_string<char, std::__ndk1::char_traits<char>, std::__ndk1::allocator<char> >, matjson::Value> > >::__emplace_unique_key_args<std::__ndk1::basic_string<char, std::__ndk1::char_traits<char>, std::__ndk1::allocator<char> >, std::__ndk1::piecewise_construct_t const&, std::__ndk1::tuple<std::__ndk1::basic_string<char, std::__ndk1::char_traits<char>, std::__ndk1::allocator<char> > const&>, std::__ndk1::tuple<> >(std::__ndk1::basic_string<char, std::__ndk1::char_traits<char>, std::__ndk1::allocator<char> > const&, std::__ndk1::piecewise_construct_t const&, std::__ndk1::tuple<std::__ndk1::basic_string<char, std::__ndk1::char_traits<char>, std::__ndk1::allocator<char> > const&>, std::__ndk1::tuple<>)
PUBLIC 3b264 0 std::__ndk1::unique_ptr<std::__ndk1::__tree_node<std::__ndk1::__value_type<std::__ndk1::basic_string<char, std::__ndk1::char_traits<char>, std::__ndk1::allocator<char> >, matjson::Value>, void*>, std::__ndk1::__tree_node_destructor<std::__ndk1::allocator<std::__ndk1::__tree_node<std::__ndk1::__value_type<std::__ndk1::basic_string<char, std::__ndk1::char_traits<char>, std::__ndk1::allocator<char> >, matjson::Value>, void*> > > >::~unique_ptr[abi:ne180000]()
PUBLIC 3b2b8 0 std::__ndk1::__tree_balance_after_insert[abi:ne180000]<std::__ndk1::__tree_node_base<void*>*>(std::__ndk1::__tree_node_base<void*>*, std::__ndk1::__tree_node_base<void*>*)
PUBLIC 3b468 0 GeodeTabSprite::init(char const*, char const*, float, bool)
PUBLIC 3b858 0 GeodeTabSprite::~GeodeTabSprite()
PUBLIC 3b87c 0 std::__ndk1::__function::__func<hi()::$_0::operator()(geode::ModPopupUIEvent*) const::{lambda(CCMenuItemSpriteExtra*)#2}, std::__ndk1::allocator<hi()::$_0::operator()(geode::ModPopupUIEvent*) const::{lambda(CCMenuItemSpriteExtra*)#2}>, void (CCMenuItemSpriteExtra*)>::~__func()
PUBLIC 3b89c 0 std::__ndk1::__function::__func<hi()::$_0::operator()(geode::ModPopupUIEvent*) const::{lambda(CCMenuItemSpriteExtra*)#2}, std::__ndk1::allocator<hi()::$_0::operator()(geode::ModPopupUIEvent*) const::{lambda(CCMenuItemSpriteExtra*)#2}>, void (CCMenuItemSpriteExtra*)>::~__func()
PUBLIC 3b8dc 0 std::__ndk1::__function::__func<hi()::$_0::operator()(geode::ModPopupUIEvent*) const::{lambda(CCMenuItemSpriteExtra*)#2}, std::__ndk1::allocator<hi()::$_0::operator()(geode::ModPopupUIEvent*) const::{lambda(CCMenuItemSpriteExtra*)#2}>, void (CCMenuItemSpriteExtra*)>::__clone() const
PUBLIC 3b968 0 std::__ndk1::__function::__func<hi()::$_0::operator()(geode::ModPopupUIEvent*) const::{lambda(CCMenuItemSpriteExtra*)#2}, std::__ndk1::allocator<hi()::$_0::operator()(geode::ModPopupUIEvent*) const::{lambda(CCMenuItemSpriteExtra*)#2}>, void (CCMenuItemSpriteExtra*)>::__clone(std::__ndk1::__function::__base<void (CCMenuItemSpriteExtra*)>*) const
PUBLIC 3b9d8 0 std::__ndk1::__function::__func<hi()::$_0::operator()(geode::ModPopupUIEvent*) const::{lambda(CCMenuItemSpriteExtra*)#2}, std::__ndk1::allocator<hi()::$_0::operator()(geode::ModPopupUIEvent*) const::{lambda(CCMenuItemSpriteExtra*)#2}>, void (CCMenuItemSpriteExtra*)>::destroy()
PUBLIC 3b9ec 0 std::__ndk1::__function::__func<hi()::$_0::operator()(geode::ModPopupUIEvent*) const::{lambda(CCMenuItemSpriteExtra*)#2}, std::__ndk1::allocator<hi()::$_0::operator()(geode::ModPopupUIEvent*) const::{lambda(CCMenuItemSpriteExtra*)#2}>, void (CCMenuItemSpriteExtra*)>::destroy_deallocate()
PUBLIC 3ba20 0 std::__ndk1::__function::__func<hi()::$_0::operator()(geode::ModPopupUIEvent*) const::{lambda(CCMenuItemSpriteExtra*)#2}, std::__ndk1::allocator<hi()::$_0::operator()(geode::ModPopupUIEvent*) const::{lambda(CCMenuItemSpriteExtra*)#2}>, void (CCMenuItemSpriteExtra*)>::operator()(CCMenuItemSpriteExtra*&&)
PUBLIC 3c8fc 0 std::__ndk1::__function::__func<hi()::$_0::operator()(geode::ModPopupUIEvent*) const::{lambda(CCMenuItemSpriteExtra*)#2}, std::__ndk1::allocator<hi()::$_0::operator()(geode::ModPopupUIEvent*) const::{lambda(CCMenuItemSpriteExtra*)#2}>, void (CCMenuItemSpriteExtra*)>::target(std::type_info const&) const
PUBLIC 3c918 0 std::__ndk1::__function::__func<hi()::$_0::operator()(geode::ModPopupUIEvent*) const::{lambda(CCMenuItemSpriteExtra*)#2}, std::__ndk1::allocator<hi()::$_0::operator()(geode::ModPopupUIEvent*) const::{lambda(CCMenuItemSpriteExtra*)#2}>, void (CCMenuItemSpriteExtra*)>::target_type() const
PUBLIC 3c924 0 geode::cocos::CCMenuItemExt::createSpriteExtraWithFrameName(std::__ndk1::basic_string_view<char, std::__ndk1::char_traits<char> >, float, std::__ndk1::function<void (CCMenuItemSpriteExtra*)>)
PUBLIC 3ca70 0 LoadIssuesLayer::create(geode::Ref<CCContentLayer>, std::__ndk1::basic_string<char, std::__ndk1::char_traits<char>, std::__ndk1::allocator<char> >, int, bool)
PUBLIC 3d558 0 geode::Ref<CCContentLayer>::~Ref()
PUBLIC 3d574 0 std::__ndk1::__function::__base<void (std::__ndk1::basic_string<char, std::__ndk1::char_traits<char>, std::__ndk1::allocator<char> > const&)>::~__base()
PUBLIC 3d578 0 std::__ndk1::__function::__func<hi()::$_0::operator()(geode::ModPopupUIEvent*) const::{lambda(CCMenuItemSpriteExtra*)#2}::operator()(CCMenuItemSpriteExtra*) const::{lambda(std::__ndk1::basic_string<char, std::__ndk1::char_traits<char>, std::__ndk1::allocator<char> >)#1}, std::__ndk1::allocator<hi()::$_0::operator()(geode::ModPopupUIEvent*) const::{lambda(CCMenuItemSpriteExtra*)#2}::operator()(CCMenuItemSpriteExtra*) const::{lambda(std::__ndk1::basic_string<char, std::__ndk1::char_traits<char>, std::__ndk1::allocator<char> >)#1}>, void (std::__ndk1::basic_string<char, std::__ndk1::char_traits<char>, std::__ndk1::allocator<char> > const&)>::~__func()
PUBLIC 3d57c 0 std::__ndk1::__function::__func<hi()::$_0::operator()(geode::ModPopupUIEvent*) const::{lambda(CCMenuItemSpriteExtra*)#2}::operator()(CCMenuItemSpriteExtra*) const::{lambda(std::__ndk1::basic_string<char, std::__ndk1::char_traits<char>, std::__ndk1::allocator<char> >)#1}, std::__ndk1::allocator<hi()::$_0::operator()(geode::ModPopupUIEvent*) const::{lambda(CCMenuItemSpriteExtra*)#2}::operator()(CCMenuItemSpriteExtra*) const::{lambda(std::__ndk1::basic_string<char, std::__ndk1::char_traits<char>, std::__ndk1::allocator<char> >)#1}>, void (std::__ndk1::basic_string<char, std::__ndk1::char_traits<char>, std::__ndk1::allocator<char> > const&)>::__clone() const
PUBLIC 3d5b4 0 std::__ndk1::__function::__func<hi()::$_0::operator()(geode::ModPopupUIEvent*) const::{lambda(CCMenuItemSpriteExtra*)#2}::operator()(CCMenuItemSpriteExtra*) const::{lambda(std::__ndk1::basic_string<char, std::__ndk1::char_traits<char>, std::__ndk1::allocator<char> >)#1}, std::__ndk1::allocator<hi()::$_0::operator()(geode::ModPopupUIEvent*) const::{lambda(CCMenuItemSpriteExtra*)#2}::operator()(CCMenuItemSpriteExtra*) const::{lambda(std::__ndk1::basic_string<char, std::__ndk1::char_traits<char>, std::__ndk1::allocator<char> >)#1}>, void (std::__ndk1::basic_string<char, std::__ndk1::char_traits<char>, std::__ndk1::allocator<char> > const&)>::__clone(std::__ndk1::__function::__base<void (std::__ndk1::basic_string<char, std::__ndk1::char_traits<char>, std::__ndk1::allocator<char> > const&)>*) const
PUBLIC 3d5cc 0 std::__ndk1::__function::__func<hi()::$_0::operator()(geode::ModPopupUIEvent*) const::{lambda(CCMenuItemSpriteExtra*)#2}::operator()(CCMenuItemSpriteExtra*) const::{lambda(std::__ndk1::basic_string<char, std::__ndk1::char_traits<char>, std::__ndk1::allocator<char> >)#1}, std::__ndk1::allocator<hi()::$_0::operator()(geode::ModPopupUIEvent*) const::{lambda(CCMenuItemSpriteExtra*)#2}::operator()(CCMenuItemSpriteExtra*) const::{lambda(std::__ndk1::basic_string<char, std::__ndk1::char_traits<char>, std::__ndk1::allocator<char> >)#1}>, void (std::__ndk1::basic_string<char, std::__ndk1::char_traits<char>, std::__ndk1::allocator<char> > const&)>::destroy()
PUBLIC 3d5d0 0 std::__ndk1::__function::__func<hi()::$_0::operator()(geode::ModPopupUIEvent*) const::{lambda(CCMenuItemSpriteExtra*)#2}::operator()(CCMenuItemSpriteExtra*) const::{lambda(std::__ndk1::basic_string<char, std::__ndk1::char_traits<char>, std::__ndk1::allocator<char> >)#1}, std::__ndk1::allocator<hi()::$_0::operator()(geode::ModPopupUIEvent*) const::{lambda(CCMenuItemSpriteExtra*)#2}::operator()(CCMenuItemSpriteExtra*) const::{lambda(std::__ndk1::basic_string<char, std::__ndk1::char_traits<char>, std::__ndk1::allocator<char> >)#1}>, void (std::__ndk1::basic_string<char, std::__ndk1::char_traits<char>, std::__ndk1::allocator<char> > const&)>::destroy_deallocate()
PUBLIC 3d5d4 0 std::__ndk1::__function::__func<hi()::$_0::operator()(geode::ModPopupUIEvent*) const::{lambda(CCMenuItemSpriteExtra*)#2}::operator()(CCMenuItemSpriteExtra*) const::{lambda(std::__ndk1::basic_string<char, std::__ndk1::char_traits<char>, std::__ndk1::allocator<char> >)#1}, std::__ndk1::allocator<hi()::$_0::operator()(geode::ModPopupUIEvent*) const::{lambda(CCMenuItemSpriteExtra*)#2}::operator()(CCMenuItemSpriteExtra*) const::{lambda(std::__ndk1::basic_string<char, std::__ndk1::char_traits<char>, std::__ndk1::allocator<char> >)#1}>, void (std::__ndk1::basic_string<char, std::__ndk1::char_traits<char>, std::__ndk1::allocator<char> > const&)>::operator()(std::__ndk1::basic_string<char, std::__ndk1::char_traits<char>, std::__ndk1::allocator<char> > const&)
PUBLIC 3d8dc 0 std::__ndk1::__function::__func<hi()::$_0::operator()(geode::ModPopupUIEvent*) const::{lambda(CCMenuItemSpriteExtra*)#2}::operator()(CCMenuItemSpriteExtra*) const::{lambda(std::__ndk1::basic_string<char, std::__ndk1::char_traits<char>, std::__ndk1::allocator<char> >)#1}, std::__ndk1::allocator<hi()::$_0::operator()(geode::ModPopupUIEvent*) const::{lambda(CCMenuItemSpriteExtra*)#2}::operator()(CCMenuItemSpriteExtra*) const::{lambda(std::__ndk1::basic_string<char, std::__ndk1::char_traits<char>, std::__ndk1::allocator<char> >)#1}>, void (std::__ndk1::basic_string<char, std::__ndk1::char_traits<char>, std::__ndk1::allocator<char> > const&)>::target(std::type_info const&) const
PUBLIC 3d8f8 0 std::__ndk1::__function::__func<hi()::$_0::operator()(geode::ModPopupUIEvent*) const::{lambda(CCMenuItemSpriteExtra*)#2}::operator()(CCMenuItemSpriteExtra*) const::{lambda(std::__ndk1::basic_string<char, std::__ndk1::char_traits<char>, std::__ndk1::allocator<char> >)#1}, std::__ndk1::allocator<hi()::$_0::operator()(geode::ModPopupUIEvent*) const::{lambda(CCMenuItemSpriteExtra*)#2}::operator()(CCMenuItemSpriteExtra*) const::{lambda(std::__ndk1::basic_string<char, std::__ndk1::char_traits<char>, std::__ndk1::allocator<char> >)#1}>, void (std::__ndk1::basic_string<char, std::__ndk1::char_traits<char>, std::__ndk1::allocator<char> > const&)>::target_type() const
PUBLIC 3d904 0 std::__ndk1::__function::__func<hi()::$_0::operator()(geode::ModPopupUIEvent*) const::{lambda(CCMenuItemSpriteExtra*)#2}::operator()(CCMenuItemSpriteExtra*) const::{lambda(cocos2d::CCNode*, bool)#1}, std::__ndk1::allocator<hi()::$_0::operator()(geode::ModPopupUIEvent*) const::{lambda(CCMenuItemSpriteExtra*)#2}::operator()(CCMenuItemSpriteExtra*) const::{lambda(cocos2d::CCNode*, bool)#1}>, void (FLAlertLayer*, bool)>::~__func()
PUBLIC 3d924 0 std::__ndk1::__function::__func<hi()::$_0::operator()(geode::ModPopupUIEvent*) const::{lambda(CCMenuItemSpriteExtra*)#2}::operator()(CCMenuItemSpriteExtra*) const::{lambda(cocos2d::CCNode*, bool)#1}, std::__ndk1::allocator<hi()::$_0::operator()(geode::ModPopupUIEvent*) const::{lambda(CCMenuItemSpriteExtra*)#2}::operator()(CCMenuItemSpriteExtra*) const::{lambda(cocos2d::CCNode*, bool)#1}>, void (FLAlertLayer*, bool)>::~__func()
PUBLIC 3d964 0 std::__ndk1::__function::__func<hi()::$_0::operator()(geode::ModPopupUIEvent*) const::{lambda(CCMenuItemSpriteExtra*)#2}::operator()(CCMenuItemSpriteExtra*) const::{lambda(cocos2d::CCNode*, bool)#1}, std::__ndk1::allocator<hi()::$_0::operator()(geode::ModPopupUIEvent*) const::{lambda(CCMenuItemSpriteExtra*)#2}::operator()(CCMenuItemSpriteExtra*) const::{lambda(cocos2d::CCNode*, bool)#1}>, void (FLAlertLayer*, bool)>::__clone() const
PUBLIC 3da00 0 std::__ndk1::__function::__func<hi()::$_0::operator()(geode::ModPopupUIEvent*) const::{lambda(CCMenuItemSpriteExtra*)#2}::operator()(CCMenuItemSpriteExtra*) const::{lambda(cocos2d::CCNode*, bool)#1}, std::__ndk1::allocator<hi()::$_0::operator()(geode::ModPopupUIEvent*) const::{lambda(CCMenuItemSpriteExtra*)#2}::operator()(CCMenuItemSpriteExtra*) const::{lambda(cocos2d::CCNode*, bool)#1}>, void (FLAlertLayer*, bool)>::__clone(std::__ndk1::__function::__base<void (FLAlertLayer*, bool)>*) const
PUBLIC 3da54 0 std::__ndk1::__function::__func<hi()::$_0::operator()(geode::ModPopupUIEvent*) const::{lambda(CCMenuItemSpriteExtra*)#2}::operator()(CCMenuItemSpriteExtra*) const::{lambda(cocos2d::CCNode*, bool)#1}, std::__ndk1::allocator<hi()::$_0::operator()(geode::ModPopupUIEvent*) const::{lambda(CCMenuItemSpriteExtra*)#2}::operator()(CCMenuItemSpriteExtra*) const::{lambda(cocos2d::CCNode*, bool)#1}>, void (FLAlertLayer*, bool)>::destroy()
PUBLIC 3da68 0 std::__ndk1::__function::__func<hi()::$_0::operator()(geode::ModPopupUIEvent*) const::{lambda(CCMenuItemSpriteExtra*)#2}::operator()(CCMenuItemSpriteExtra*) const::{lambda(cocos2d::CCNode*, bool)#1}, std::__ndk1::allocator<hi()::$_0::operator()(geode::ModPopupUIEvent*) const::{lambda(CCMenuItemSpriteExtra*)#2}::operator()(CCMenuItemSpriteExtra*) const::{lambda(cocos2d::CCNode*, bool)#1}>, void (FLAlertLayer*, bool)>::destroy_deallocate()
PUBLIC 3da9c 0 std::__ndk1::__function::__func<hi()::$_0::operator()(geode::ModPopupUIEvent*) const::{lambda(CCMenuItemSpriteExtra*)#2}::operator()(CCMenuItemSpriteExtra*) const::{lambda(cocos2d::CCNode*, bool)#1}, std::__ndk1::allocator<hi()::$_0::operator()(geode::ModPopupUIEvent*) const::{lambda(CCMenuItemSpriteExtra*)#2}::operator()(CCMenuItemSpriteExtra*) const::{lambda(cocos2d::CCNode*, bool)#1}>, void (FLAlertLayer*, bool)>::operator()(FLAlertLayer*&&, bool&&)
PUBLIC 3e16c 0 std::__ndk1::__function::__func<hi()::$_0::operator()(geode::ModPopupUIEvent*) const::{lambda(CCMenuItemSpriteExtra*)#2}::operator()(CCMenuItemSpriteExtra*) const::{lambda(cocos2d::CCNode*, bool)#1}, std::__ndk1::allocator<hi()::$_0::operator()(geode::ModPopupUIEvent*) const::{lambda(CCMenuItemSpriteExtra*)#2}::operator()(CCMenuItemSpriteExtra*) const::{lambda(cocos2d::CCNode*, bool)#1}>, void (FLAlertLayer*, bool)>::target(std::type_info const&) const
PUBLIC 3e188 0 std::__ndk1::__function::__func<hi()::$_0::operator()(geode::ModPopupUIEvent*) const::{lambda(CCMenuItemSpriteExtra*)#2}::operator()(CCMenuItemSpriteExtra*) const::{lambda(cocos2d::CCNode*, bool)#1}, std::__ndk1::allocator<hi()::$_0::operator()(geode::ModPopupUIEvent*) const::{lambda(CCMenuItemSpriteExtra*)#2}::operator()(CCMenuItemSpriteExtra*) const::{lambda(cocos2d::CCNode*, bool)#1}>, void (FLAlertLayer*, bool)>::target_type() const
PUBLIC 3e194 0 hi()::$_0::operator()(geode::ModPopupUIEvent*) const::{lambda(CCMenuItemSpriteExtra*)#2}::operator()(CCMenuItemSpriteExtra*) const::{lambda(cocos2d::CCNode*, bool)#1}::operator()(cocos2d::CCNode*, bool) const::{lambda(std::__ndk1::basic_string<char, std::__ndk1::char_traits<char>, std::__ndk1::allocator<char> > const&)#1}::~{lambda(std::__ndk1::basic_string<char, std::__ndk1::char_traits<char>, std::__ndk1::allocator<char> > const&)#1}()
PUBLIC 3e1b0 0 hi()::$_0::operator()(geode::ModPopupUIEvent*) const::{lambda(CCMenuItemSpriteExtra*)#2}::operator()(CCMenuItemSpriteExtra*) const::{lambda(cocos2d::CCNode*, bool)#1}::operator()(cocos2d::CCNode*, bool) const::{lambda(geode::Task<geode::utils::web::WebResponse, geode::utils::web::WebProgress>::Event*)#1}::~{lambda(geode::Task<geode::utils::web::WebResponse, geode::utils::web::WebProgress>::Event*)#1}()
PUBLIC 3e1ec 0 geode::Ref<geode::Notification>::~Ref()
PUBLIC 3e208 0 std::__ndk1::__function::__func<hi()::$_0::operator()(geode::ModPopupUIEvent*) const::{lambda(CCMenuItemSpriteExtra*)#2}::operator()(CCMenuItemSpriteExtra*) const::{lambda(cocos2d::CCNode*, bool)#1}::operator()(cocos2d::CCNode*, bool) const::{lambda(geode::Task<geode::utils::web::WebResponse, geode::utils::web::WebProgress>::Event*)#1}, std::__ndk1::allocator<hi()::$_0::operator()(geode::ModPopupUIEvent*) const::{lambda(CCMenuItemSpriteExtra*)#2}::operator()(CCMenuItemSpriteExtra*) const::{lambda(cocos2d::CCNode*, bool)#1}::operator()(cocos2d::CCNode*, bool) const::{lambda(geode::Task<geode::utils::web::WebResponse, geode::utils::web::WebProgress>::Event*)#1}>, void (geode::Task<geode::utils::web::WebResponse, geode::utils::web::WebProgress>::Event*)>::~__func()
PUBLIC 3e250 0 std::__ndk1::__function::__func<hi()::$_0::operator()(geode::ModPopupUIEvent*) const::{lambda(CCMenuItemSpriteExtra*)#2}::operator()(CCMenuItemSpriteExtra*) const::{lambda(cocos2d::CCNode*, bool)#1}::operator()(cocos2d::CCNode*, bool) const::{lambda(geode::Task<geode::utils::web::WebResponse, geode::utils::web::WebProgress>::Event*)#1}, std::__ndk1::allocator<hi()::$_0::operator()(geode::ModPopupUIEvent*) const::{lambda(CCMenuItemSpriteExtra*)#2}::operator()(CCMenuItemSpriteExtra*) const::{lambda(cocos2d::CCNode*, bool)#1}::operator()(cocos2d::CCNode*, bool) const::{lambda(geode::Task<geode::utils::web::WebResponse, geode::utils::web::WebProgress>::Event*)#1}>, void (geode::Task<geode::utils::web::WebResponse, geode::utils::web::WebProgress>::Event*)>::~__func()
PUBLIC 3e29c 0 std::__ndk1::__function::__func<hi()::$_0::operator()(geode::ModPopupUIEvent*) const::{lambda(CCMenuItemSpriteExtra*)#2}::operator()(CCMenuItemSpriteExtra*) const::{lambda(cocos2d::CCNode*, bool)#1}::operator()(cocos2d::CCNode*, bool) const::{lambda(geode::Task<geode::utils::web::WebResponse, geode::utils::web::WebProgress>::Event*)#1}, std::__ndk1::allocator<hi()::$_0::operator()(geode::ModPopupUIEvent*) const::{lambda(CCMenuItemSpriteExtra*)#2}::operator()(CCMenuItemSpriteExtra*) const::{lambda(cocos2d::CCNode*, bool)#1}::operator()(cocos2d::CCNode*, bool) const::{lambda(geode::Task<geode::utils::web::WebResponse, geode::utils::web::WebProgress>::Event*)#1}>, void (geode::Task<geode::utils::web::WebResponse, geode::utils::web::WebProgress>::Event*)>::__clone() const
PUBLIC 3e330 0 std::__ndk1::__function::__func<hi()::$_0::operator()(geode::ModPopupUIEvent*) const::{lambda(CCMenuItemSpriteExtra*)#2}::operator()(CCMenuItemSpriteExtra*) const::{lambda(cocos2d::CCNode*, bool)#1}::operator()(cocos2d::CCNode*, bool) const::{lambda(geode::Task<geode::utils::web::WebResponse, geode::utils::web::WebProgress>::Event*)#1}, std::__ndk1::allocator<hi()::$_0::operator()(geode::ModPopupUIEvent*) const::{lambda(CCMenuItemSpriteExtra*)#2}::operator()(CCMenuItemSpriteExtra*) const::{lambda(cocos2d::CCNode*, bool)#1}::operator()(cocos2d::CCNode*, bool) const::{lambda(geode::Task<geode::utils::web::WebResponse, geode::utils::web::WebProgress>::Event*)#1}>, void (geode::Task<geode::utils::web::WebResponse, geode::utils::web::WebProgress>::Event*)>::__clone(std::__ndk1::__function::__base<void (geode::Task<geode::utils::web::WebResponse, geode::utils::web::WebProgress>::Event*)>*) const
PUBLIC 3e394 0 std::__ndk1::__function::__func<hi()::$_0::operator()(geode::ModPopupUIEvent*) const::{lambda(CCMenuItemSpriteExtra*)#2}::operator()(CCMenuItemSpriteExtra*) const::{lambda(cocos2d::CCNode*, bool)#1}::operator()(cocos2d::CCNode*, bool) const::{lambda(geode::Task<geode::utils::web::WebResponse, geode::utils::web::WebProgress>::Event*)#1}, std::__ndk1::allocator<hi()::$_0::operator()(geode::ModPopupUIEvent*) const::{lambda(CCMenuItemSpriteExtra*)#2}::operator()(CCMenuItemSpriteExtra*) const::{lambda(cocos2d::CCNode*, bool)#1}::operator()(cocos2d::CCNode*, bool) const::{lambda(geode::Task<geode::utils::web::WebResponse, geode::utils::web::WebProgress>::Event*)#1}>, void (geode::Task<geode::utils::web::WebResponse, geode::utils::web::WebProgress>::Event*)>::destroy()
PUBLIC 3e3d0 0 std::__ndk1::__function::__func<hi()::$_0::operator()(geode::ModPopupUIEvent*) const::{lambda(CCMenuItemSpriteExtra*)#2}::operator()(CCMenuItemSpriteExtra*) const::{lambda(cocos2d::CCNode*, bool)#1}::operator()(cocos2d::CCNode*, bool) const::{lambda(geode::Task<geode::utils::web::WebResponse, geode::utils::web::WebProgress>::Event*)#1}, std::__ndk1::allocator<hi()::$_0::operator()(geode::ModPopupUIEvent*) const::{lambda(CCMenuItemSpriteExtra*)#2}::operator()(CCMenuItemSpriteExtra*) const::{lambda(cocos2d::CCNode*, bool)#1}::operator()(cocos2d::CCNode*, bool) const::{lambda(geode::Task<geode::utils::web::WebResponse, geode::utils::web::WebProgress>::Event*)#1}>, void (geode::Task<geode::utils::web::WebResponse, geode::utils::web::WebProgress>::Event*)>::destroy_deallocate()
PUBLIC 3e410 0 std::__ndk1::__function::__func<hi()::$_0::operator()(geode::ModPopupUIEvent*) const::{lambda(CCMenuItemSpriteExtra*)#2}::operator()(CCMenuItemSpriteExtra*) const::{lambda(cocos2d::CCNode*, bool)#1}::operator()(cocos2d::CCNode*, bool) const::{lambda(geode::Task<geode::utils::web::WebResponse, geode::utils::web::WebProgress>::Event*)#1}, std::__ndk1::allocator<hi()::$_0::operator()(geode::ModPopupUIEvent*) const::{lambda(CCMenuItemSpriteExtra*)#2}::operator()(CCMenuItemSpriteExtra*) const::{lambda(cocos2d::CCNode*, bool)#1}::operator()(cocos2d::CCNode*, bool) const::{lambda(geode::Task<geode::utils::web::WebResponse, geode::utils::web::WebProgress>::Event*)#1}>, void (geode::Task<geode::utils::web::WebResponse, geode::utils::web::WebProgress>::Event*)>::operator()(geode::Task<geode::utils::web::WebResponse, geode::utils::web::WebProgress>::Event*&&)
PUBLIC 3eb14 0 std::__ndk1::__function::__func<hi()::$_0::operator()(geode::ModPopupUIEvent*) const::{lambda(CCMenuItemSpriteExtra*)#2}::operator()(CCMenuItemSpriteExtra*) const::{lambda(cocos2d::CCNode*, bool)#1}::operator()(cocos2d::CCNode*, bool) const::{lambda(geode::Task<geode::utils::web::WebResponse, geode::utils::web::WebProgress>::Event*)#1}, std::__ndk1::allocator<hi()::$_0::operator()(geode::ModPopupUIEvent*) const::{lambda(CCMenuItemSpriteExtra*)#2}::operator()(CCMenuItemSpriteExtra*) const::{lambda(cocos2d::CCNode*, bool)#1}::operator()(cocos2d::CCNode*, bool) const::{lambda(geode::Task<geode::utils::web::WebResponse, geode::utils::web::WebProgress>::Event*)#1}>, void (geode::Task<geode::utils::web::WebResponse, geode::utils::web::WebProgress>::Event*)>::target(std::type_info const&) const
PUBLIC 3eb30 0 std::__ndk1::__function::__func<hi()::$_0::operator()(geode::ModPopupUIEvent*) const::{lambda(CCMenuItemSpriteExtra*)#2}::operator()(CCMenuItemSpriteExtra*) const::{lambda(cocos2d::CCNode*, bool)#1}::operator()(cocos2d::CCNode*, bool) const::{lambda(geode::Task<geode::utils::web::WebResponse, geode::utils::web::WebProgress>::Event*)#1}, std::__ndk1::allocator<hi()::$_0::operator()(geode::ModPopupUIEvent*) const::{lambda(CCMenuItemSpriteExtra*)#2}::operator()(CCMenuItemSpriteExtra*) const::{lambda(cocos2d::CCNode*, bool)#1}::operator()(cocos2d::CCNode*, bool) const::{lambda(geode::Task<geode::utils::web::WebResponse, geode::utils::web::WebProgress>::Event*)#1}>, void (geode::Task<geode::utils::web::WebResponse, geode::utils::web::WebProgress>::Event*)>::target_type() const
PUBLIC 3eb3c 0 geode::impl::ResultData<std::__ndk1::vector<matjson::Value, std::__ndk1::allocator<matjson::Value> >&, std::__ndk1::basic_string<char, std::__ndk1::char_traits<char>, std::__ndk1::allocator<char> > >::~ResultData()
PUBLIC 3ebb0 0 std::__ndk1::__variant_detail::__visitation::__base::__dispatcher<(unsigned long)0>::__dispatch[abi:ne180000]<std::__ndk1::__variant_detail::__dtor<std::__ndk1::__variant_detail::__traits<std::__ndk1::reference_wrapper<std::__ndk1::vector<matjson::Value, std::__ndk1::allocator<matjson> > >, std::__ndk1::basic_string<char, std::__ndk1::char_traits<char>, matjson::Value<char> > >, (std::__ndk1::__variant_detail::_Trait)1>::__destroy[abi:ne180000]()::{lambda(auto:1&)#1}, std::__ndk1::__variant_detail::__base<(std::__ndk1::__variant_detail::__traits<std::__ndk1::reference_wrapper<std::__ndk1::vector<matjson::Value, std::__ndk1::allocator<matjson> > >, std::__ndk1::basic_string<char, std::__ndk1::char_traits<char>, matjson::Value<char> > >)1, std::__ndk1::vector<matjson::Value, std::__ndk1::allocator<matjson> >, matjson::Value<char> >&>(std::__ndk1::__variant_detail::__dtor<std::__ndk1::__variant_detail::__traits<std::__ndk1::reference_wrapper<std::__ndk1::vector<matjson::Value, std::__ndk1::allocator<matjson> > >, std::__ndk1::basic_string<char, std::__ndk1::char_traits<char>, matjson::Value<char> > >, (std::__ndk1::__variant_detail::_Trait)1>, std::__ndk1::__variant_detail::__base<(std::__ndk1::__variant_detail::__traits<std::__ndk1::reference_wrapper<std::__ndk1::vector<matjson::Value, std::__ndk1::allocator<matjson> > >, std::__ndk1::basic_string<char, std::__ndk1::char_traits<char>, matjson::Value<char> > >)1, std::__ndk1::vector<matjson::Value, std::__ndk1::allocator<matjson> >, matjson::Value<char> >&)
PUBLIC 3ebb4 0 std::__ndk1::__variant_detail::__visitation::__base::__dispatcher<(unsigned long)1>::__dispatch[abi:ne180000]<std::__ndk1::__variant_detail::__dtor<std::__ndk1::__variant_detail::__traits<std::__ndk1::reference_wrapper<std::__ndk1::vector<matjson::Value, std::__ndk1::allocator<matjson> > >, std::__ndk1::basic_string<char, std::__ndk1::char_traits<char>, matjson::Value<char> > >, (std::__ndk1::__variant_detail::_Trait)1>::__destroy[abi:ne180000]()::{lambda(auto:1&)#1}, std::__ndk1::__variant_detail::__base<(std::__ndk1::__variant_detail::__traits<std::__ndk1::reference_wrapper<std::__ndk1::vector<matjson::Value, std::__ndk1::allocator<matjson> > >, std::__ndk1::basic_string<char, std::__ndk1::char_traits<char>, matjson::Value<char> > >)1, std::__ndk1::vector<matjson::Value, std::__ndk1::allocator<matjson> >, matjson::Value<char> >&>(std::__ndk1::__variant_detail::__dtor<std::__ndk1::__variant_detail::__traits<std::__ndk1::reference_wrapper<std::__ndk1::vector<matjson::Value, std::__ndk1::allocator<matjson> > >, std::__ndk1::basic_string<char, std::__ndk1::char_traits<char>, matjson::Value<char> > >, (std::__ndk1::__variant_detail::_Trait)1>, std::__ndk1::__variant_detail::__base<(std::__ndk1::__variant_detail::__traits<std::__ndk1::reference_wrapper<std::__ndk1::vector<matjson::Value, std::__ndk1::allocator<matjson> > >, std::__ndk1::basic_string<char, std::__ndk1::char_traits<char>, matjson::Value<char> > >)1, std::__ndk1::vector<matjson::Value, std::__ndk1::allocator<matjson> >, matjson::Value<char> >&)
PUBLIC 3ebc8 0 std::__ndk1::__function::__func<hi()::$_0::operator()(geode::ModPopupUIEvent*) const::{lambda(CCMenuItemSpriteExtra*)#2}::operator()(CCMenuItemSpriteExtra*) const::{lambda(cocos2d::CCNode*)#1}, std::__ndk1::allocator<hi()::$_0::operator()(geode::ModPopupUIEvent*) const::{lambda(CCMenuItemSpriteExtra*)#2}::operator()(CCMenuItemSpriteExtra*) const::{lambda(cocos2d::CCNode*)#1}>, void (CCMenuItemSpriteExtra*)>::~__func()
PUBLIC 3ebcc 0 std::__ndk1::__function::__func<hi()::$_0::operator()(geode::ModPopupUIEvent*) const::{lambda(CCMenuItemSpriteExtra*)#2}::operator()(CCMenuItemSpriteExtra*) const::{lambda(cocos2d::CCNode*)#1}, std::__ndk1::allocator<hi()::$_0::operator()(geode::ModPopupUIEvent*) const::{lambda(CCMenuItemSpriteExtra*)#2}::operator()(CCMenuItemSpriteExtra*) const::{lambda(cocos2d::CCNode*)#1}>, void (CCMenuItemSpriteExtra*)>::__clone() const
PUBLIC 3ec00 0 std::__ndk1::__function::__func<hi()::$_0::operator()(geode::ModPopupUIEvent*) const::{lambda(CCMenuItemSpriteExtra*)#2}::operator()(CCMenuItemSpriteExtra*) const::{lambda(cocos2d::CCNode*)#1}, std::__ndk1::allocator<hi()::$_0::operator()(geode::ModPopupUIEvent*) const::{lambda(CCMenuItemSpriteExtra*)#2}::operator()(CCMenuItemSpriteExtra*) const::{lambda(cocos2d::CCNode*)#1}>, void (CCMenuItemSpriteExtra*)>::__clone(std::__ndk1::__function::__base<void (CCMenuItemSpriteExtra*)>*) const
PUBLIC 3ec14 0 std::__ndk1::__function::__func<hi()::$_0::operator()(geode::ModPopupUIEvent*) const::{lambda(CCMenuItemSpriteExtra*)#2}::operator()(CCMenuItemSpriteExtra*) const::{lambda(cocos2d::CCNode*)#1}, std::__ndk1::allocator<hi()::$_0::operator()(geode::ModPopupUIEvent*) const::{lambda(CCMenuItemSpriteExtra*)#2}::operator()(CCMenuItemSpriteExtra*) const::{lambda(cocos2d::CCNode*)#1}>, void (CCMenuItemSpriteExtra*)>::destroy()
PUBLIC 3ec18 0 std::__ndk1::__function::__func<hi()::$_0::operator()(geode::ModPopupUIEvent*) const::{lambda(CCMenuItemSpriteExtra*)#2}::operator()(CCMenuItemSpriteExtra*) const::{lambda(cocos2d::CCNode*)#1}, std::__ndk1::allocator<hi()::$_0::operator()(geode::ModPopupUIEvent*) const::{lambda(CCMenuItemSpriteExtra*)#2}::operator()(CCMenuItemSpriteExtra*) const::{lambda(cocos2d::CCNode*)#1}>, void (CCMenuItemSpriteExtra*)>::destroy_deallocate()
PUBLIC 3ec1c 0 std::__ndk1::__function::__func<hi()::$_0::operator()(geode::ModPopupUIEvent*) const::{lambda(CCMenuItemSpriteExtra*)#2}::operator()(CCMenuItemSpriteExtra*) const::{lambda(cocos2d::CCNode*)#1}, std::__ndk1::allocator<hi()::$_0::operator()(geode::ModPopupUIEvent*) const::{lambda(CCMenuItemSpriteExtra*)#2}::operator()(CCMenuItemSpriteExtra*) const::{lambda(cocos2d::CCNode*)#1}>, void (CCMenuItemSpriteExtra*)>::operator()(CCMenuItemSpriteExtra*&&)
PUBLIC 3ecbc 0 std::__ndk1::__function::__func<hi()::$_0::operator()(geode::ModPopupUIEvent*) const::{lambda(CCMenuItemSpriteExtra*)#2}::operator()(CCMenuItemSpriteExtra*) const::{lambda(cocos2d::CCNode*)#1}, std::__ndk1::allocator<hi()::$_0::operator()(geode::ModPopupUIEvent*) const::{lambda(CCMenuItemSpriteExtra*)#2}::operator()(CCMenuItemSpriteExtra*) const::{lambda(cocos2d::CCNode*)#1}>, void (CCMenuItemSpriteExtra*)>::target(std::type_info const&) const
PUBLIC 3ecd8 0 std::__ndk1::__function::__func<hi()::$_0::operator()(geode::ModPopupUIEvent*) const::{lambda(CCMenuItemSpriteExtra*)#2}::operator()(CCMenuItemSpriteExtra*) const::{lambda(cocos2d::CCNode*)#1}, std::__ndk1::allocator<hi()::$_0::operator()(geode::ModPopupUIEvent*) const::{lambda(CCMenuItemSpriteExtra*)#2}::operator()(CCMenuItemSpriteExtra*) const::{lambda(cocos2d::CCNode*)#1}>, void (CCMenuItemSpriteExtra*)>::target_type() const
PUBLIC 3ece4 0 std::__ndk1::__function::__func<hi()::$_0::operator()(geode::ModPopupUIEvent*) const::{lambda(CCMenuItemSpriteExtra*)#2}::operator()(CCMenuItemSpriteExtra*) const::{lambda(cocos2d::CCNode*)#2}, std::__ndk1::allocator<hi()::$_0::operator()(geode::ModPopupUIEvent*) const::{lambda(CCMenuItemSpriteExtra*)#2}::operator()(CCMenuItemSpriteExtra*) const::{lambda(cocos2d::CCNode*)#2}>, void (CCMenuItemSpriteExtra*)>::~__func()
PUBLIC 3ece8 0 std::__ndk1::__function::__func<hi()::$_0::operator()(geode::ModPopupUIEvent*) const::{lambda(CCMenuItemSpriteExtra*)#2}::operator()(CCMenuItemSpriteExtra*) const::{lambda(cocos2d::CCNode*)#2}, std::__ndk1::allocator<hi()::$_0::operator()(geode::ModPopupUIEvent*) const::{lambda(CCMenuItemSpriteExtra*)#2}::operator()(CCMenuItemSpriteExtra*) const::{lambda(cocos2d::CCNode*)#2}>, void (CCMenuItemSpriteExtra*)>::__clone() const
PUBLIC 3ed1c 0 std::__ndk1::__function::__func<hi()::$_0::operator()(geode::ModPopupUIEvent*) const::{lambda(CCMenuItemSpriteExtra*)#2}::operator()(CCMenuItemSpriteExtra*) const::{lambda(cocos2d::CCNode*)#2}, std::__ndk1::allocator<hi()::$_0::operator()(geode::ModPopupUIEvent*) const::{lambda(CCMenuItemSpriteExtra*)#2}::operator()(CCMenuItemSpriteExtra*) const::{lambda(cocos2d::CCNode*)#2}>, void (CCMenuItemSpriteExtra*)>::__clone(std::__ndk1::__function::__base<void (CCMenuItemSpriteExtra*)>*) const
PUBLIC 3ed30 0 std::__ndk1::__function::__func<hi()::$_0::operator()(geode::ModPopupUIEvent*) const::{lambda(CCMenuItemSpriteExtra*)#2}::operator()(CCMenuItemSpriteExtra*) const::{lambda(cocos2d::CCNode*)#2}, std::__ndk1::allocator<hi()::$_0::operator()(geode::ModPopupUIEvent*) const::{lambda(CCMenuItemSpriteExtra*)#2}::operator()(CCMenuItemSpriteExtra*) const::{lambda(cocos2d::CCNode*)#2}>, void (CCMenuItemSpriteExtra*)>::destroy()
PUBLIC 3ed34 0 std::__ndk1::__function::__func<hi()::$_0::operator()(geode::ModPopupUIEvent*) const::{lambda(CCMenuItemSpriteExtra*)#2}::operator()(CCMenuItemSpriteExtra*) const::{lambda(cocos2d::CCNode*)#2}, std::__ndk1::allocator<hi()::$_0::operator()(geode::ModPopupUIEvent*) const::{lambda(CCMenuItemSpriteExtra*)#2}::operator()(CCMenuItemSpriteExtra*) const::{lambda(cocos2d::CCNode*)#2}>, void (CCMenuItemSpriteExtra*)>::destroy_deallocate()
PUBLIC 3ed38 0 std::__ndk1::__function::__func<hi()::$_0::operator()(geode::ModPopupUIEvent*) const::{lambda(CCMenuItemSpriteExtra*)#2}::operator()(CCMenuItemSpriteExtra*) const::{lambda(cocos2d::CCNode*)#2}, std::__ndk1::allocator<hi()::$_0::operator()(geode::ModPopupUIEvent*) const::{lambda(CCMenuItemSpriteExtra*)#2}::operator()(CCMenuItemSpriteExtra*) const::{lambda(cocos2d::CCNode*)#2}>, void (CCMenuItemSpriteExtra*)>::operator()(CCMenuItemSpriteExtra*&&)
PUBLIC 3ed7c 0 std::__ndk1::__function::__func<hi()::$_0::operator()(geode::ModPopupUIEvent*) const::{lambda(CCMenuItemSpriteExtra*)#2}::operator()(CCMenuItemSpriteExtra*) const::{lambda(cocos2d::CCNode*)#2}, std::__ndk1::allocator<hi()::$_0::operator()(geode::ModPopupUIEvent*) const::{lambda(CCMenuItemSpriteExtra*)#2}::operator()(CCMenuItemSpriteExtra*) const::{lambda(cocos2d::CCNode*)#2}>, void (CCMenuItemSpriteExtra*)>::target(std::type_info const&) const
PUBLIC 3ed98 0 std::__ndk1::__function::__func<hi()::$_0::operator()(geode::ModPopupUIEvent*) const::{lambda(CCMenuItemSpriteExtra*)#2}::operator()(CCMenuItemSpriteExtra*) const::{lambda(cocos2d::CCNode*)#2}, std::__ndk1::allocator<hi()::$_0::operator()(geode::ModPopupUIEvent*) const::{lambda(CCMenuItemSpriteExtra*)#2}::operator()(CCMenuItemSpriteExtra*) const::{lambda(cocos2d::CCNode*)#2}>, void (CCMenuItemSpriteExtra*)>::target_type() const
PUBLIC 3eda4 0 std::__ndk1::__function::__func<hi()::$_0::operator()(geode::ModPopupUIEvent*) const::{lambda(CCMenuItemSpriteExtra*)#2}::operator()(CCMenuItemSpriteExtra*) const::{lambda(CCMenuItemSpriteExtra*)#1}, std::__ndk1::allocator<hi()::$_0::operator()(geode::ModPopupUIEvent*) const::{lambda(CCMenuItemSpriteExtra*)#2}::operator()(CCMenuItemSpriteExtra*) const::{lambda(CCMenuItemSpriteExtra*)#1}>, void (CCMenuItemSpriteExtra*)>::~__func()
PUBLIC 3eda8 0 std::__ndk1::__function::__func<hi()::$_0::operator()(geode::ModPopupUIEvent*) const::{lambda(CCMenuItemSpriteExtra*)#2}::operator()(CCMenuItemSpriteExtra*) const::{lambda(CCMenuItemSpriteExtra*)#1}, std::__ndk1::allocator<hi()::$_0::operator()(geode::ModPopupUIEvent*) const::{lambda(CCMenuItemSpriteExtra*)#2}::operator()(CCMenuItemSpriteExtra*) const::{lambda(CCMenuItemSpriteExtra*)#1}>, void (CCMenuItemSpriteExtra*)>::__clone() const
PUBLIC 3eddc 0 std::__ndk1::__function::__func<hi()::$_0::operator()(geode::ModPopupUIEvent*) const::{lambda(CCMenuItemSpriteExtra*)#2}::operator()(CCMenuItemSpriteExtra*) const::{lambda(CCMenuItemSpriteExtra*)#1}, std::__ndk1::allocator<hi()::$_0::operator()(geode::ModPopupUIEvent*) const::{lambda(CCMenuItemSpriteExtra*)#2}::operator()(CCMenuItemSpriteExtra*) const::{lambda(CCMenuItemSpriteExtra*)#1}>, void (CCMenuItemSpriteExtra*)>::__clone(std::__ndk1::__function::__base<void (CCMenuItemSpriteExtra*)>*) const
PUBLIC 3edf0 0 std::__ndk1::__function::__func<hi()::$_0::operator()(geode::ModPopupUIEvent*) const::{lambda(CCMenuItemSpriteExtra*)#2}::operator()(CCMenuItemSpriteExtra*) const::{lambda(CCMenuItemSpriteExtra*)#1}, std::__ndk1::allocator<hi()::$_0::operator()(geode::ModPopupUIEvent*) const::{lambda(CCMenuItemSpriteExtra*)#2}::operator()(CCMenuItemSpriteExtra*) const::{lambda(CCMenuItemSpriteExtra*)#1}>, void (CCMenuItemSpriteExtra*)>::destroy()
PUBLIC 3edf4 0 std::__ndk1::__function::__func<hi()::$_0::operator()(geode::ModPopupUIEvent*) const::{lambda(CCMenuItemSpriteExtra*)#2}::operator()(CCMenuItemSpriteExtra*) const::{lambda(CCMenuItemSpriteExtra*)#1}, std::__ndk1::allocator<hi()::$_0::operator()(geode::ModPopupUIEvent*) const::{lambda(CCMenuItemSpriteExtra*)#2}::operator()(CCMenuItemSpriteExtra*) const::{lambda(CCMenuItemSpriteExtra*)#1}>, void (CCMenuItemSpriteExtra*)>::destroy_deallocate()
PUBLIC 3edf8 0 std::__ndk1::__function::__func<hi()::$_0::operator()(geode::ModPopupUIEvent*) const::{lambda(CCMenuItemSpriteExtra*)#2}::operator()(CCMenuItemSpriteExtra*) const::{lambda(CCMenuItemSpriteExtra*)#1}, std::__ndk1::allocator<hi()::$_0::operator()(geode::ModPopupUIEvent*) const::{lambda(CCMenuItemSpriteExtra*)#2}::operator()(CCMenuItemSpriteExtra*) const::{lambda(CCMenuItemSpriteExtra*)#1}>, void (CCMenuItemSpriteExtra*)>::operator()(CCMenuItemSpriteExtra*&&)
PUBLIC 3ee40 0 std::__ndk1::__function::__func<hi()::$_0::operator()(geode::ModPopupUIEvent*) const::{lambda(CCMenuItemSpriteExtra*)#2}::operator()(CCMenuItemSpriteExtra*) const::{lambda(CCMenuItemSpriteExtra*)#1}, std::__ndk1::allocator<hi()::$_0::operator()(geode::ModPopupUIEvent*) const::{lambda(CCMenuItemSpriteExtra*)#2}::operator()(CCMenuItemSpriteExtra*) const::{lambda(CCMenuItemSpriteExtra*)#1}>, void (CCMenuItemSpriteExtra*)>::target(std::type_info const&) const
PUBLIC 3ee5c 0 std::__ndk1::__function::__func<hi()::$_0::operator()(geode::ModPopupUIEvent*) const::{lambda(CCMenuItemSpriteExtra*)#2}::operator()(CCMenuItemSpriteExtra*) const::{lambda(CCMenuItemSpriteExtra*)#1}, std::__ndk1::allocator<hi()::$_0::operator()(geode::ModPopupUIEvent*) const::{lambda(CCMenuItemSpriteExtra*)#2}::operator()(CCMenuItemSpriteExtra*) const::{lambda(CCMenuItemSpriteExtra*)#1}>, void (CCMenuItemSpriteExtra*)>::target_type() const
PUBLIC 3ee68 0 std::__ndk1::__function::__base<void (CCMenuItemSpriteExtra*)>::~__base()
PUBLIC 3ee6c 0 std::__ndk1::__function::__func<hi()::$_0::operator()(geode::ModPopupUIEvent*) const::{lambda(CCMenuItemSpriteExtra*)#2}::operator()(CCMenuItemSpriteExtra*) const::{lambda(CCMenuItemSpriteExtra*)#2}, std::__ndk1::allocator<hi()::$_0::operator()(geode::ModPopupUIEvent*) const::{lambda(CCMenuItemSpriteExtra*)#2}::operator()(CCMenuItemSpriteExtra*) const::{lambda(CCMenuItemSpriteExtra*)#2}>, void (CCMenuItemSpriteExtra*)>::~__func()
PUBLIC 3ee70 0 std::__ndk1::__function::__func<hi()::$_0::operator()(geode::ModPopupUIEvent*) const::{lambda(CCMenuItemSpriteExtra*)#2}::operator()(CCMenuItemSpriteExtra*) const::{lambda(CCMenuItemSpriteExtra*)#2}, std::__ndk1::allocator<hi()::$_0::operator()(geode::ModPopupUIEvent*) const::{lambda(CCMenuItemSpriteExtra*)#2}::operator()(CCMenuItemSpriteExtra*) const::{lambda(CCMenuItemSpriteExtra*)#2}>, void (CCMenuItemSpriteExtra*)>::__clone() const
PUBLIC 3eea4 0 std::__ndk1::__function::__func<hi()::$_0::operator()(geode::ModPopupUIEvent*) const::{lambda(CCMenuItemSpriteExtra*)#2}::operator()(CCMenuItemSpriteExtra*) const::{lambda(CCMenuItemSpriteExtra*)#2}, std::__ndk1::allocator<hi()::$_0::operator()(geode::ModPopupUIEvent*) const::{lambda(CCMenuItemSpriteExtra*)#2}::operator()(CCMenuItemSpriteExtra*) const::{lambda(CCMenuItemSpriteExtra*)#2}>, void (CCMenuItemSpriteExtra*)>::__clone(std::__ndk1::__function::__base<void (CCMenuItemSpriteExtra*)>*) const
PUBLIC 3eeb8 0 std::__ndk1::__function::__func<hi()::$_0::operator()(geode::ModPopupUIEvent*) const::{lambda(CCMenuItemSpriteExtra*)#2}::operator()(CCMenuItemSpriteExtra*) const::{lambda(CCMenuItemSpriteExtra*)#2}, std::__ndk1::allocator<hi()::$_0::operator()(geode::ModPopupUIEvent*) const::{lambda(CCMenuItemSpriteExtra*)#2}::operator()(CCMenuItemSpriteExtra*) const::{lambda(CCMenuItemSpriteExtra*)#2}>, void (CCMenuItemSpriteExtra*)>::destroy()
PUBLIC 3eebc 0 std::__ndk1::__function::__func<hi()::$_0::operator()(geode::ModPopupUIEvent*) const::{lambda(CCMenuItemSpriteExtra*)#2}::operator()(CCMenuItemSpriteExtra*) const::{lambda(CCMenuItemSpriteExtra*)#2}, std::__ndk1::allocator<hi()::$_0::operator()(geode::ModPopupUIEvent*) const::{lambda(CCMenuItemSpriteExtra*)#2}::operator()(CCMenuItemSpriteExtra*) const::{lambda(CCMenuItemSpriteExtra*)#2}>, void (CCMenuItemSpriteExtra*)>::destroy_deallocate()
PUBLIC 3eec0 0 std::__ndk1::__function::__func<hi()::$_0::operator()(geode::ModPopupUIEvent*) const::{lambda(CCMenuItemSpriteExtra*)#2}::operator()(CCMenuItemSpriteExtra*) const::{lambda(CCMenuItemSpriteExtra*)#2}, std::__ndk1::allocator<hi()::$_0::operator()(geode::ModPopupUIEvent*) const::{lambda(CCMenuItemSpriteExtra*)#2}::operator()(CCMenuItemSpriteExtra*) const::{lambda(CCMenuItemSpriteExtra*)#2}>, void (CCMenuItemSpriteExtra*)>::operator()(CCMenuItemSpriteExtra*&&)
PUBLIC 3eec4 0 std::__ndk1::__function::__func<hi()::$_0::operator()(geode::ModPopupUIEvent*) const::{lambda(CCMenuItemSpriteExtra*)#2}::operator()(CCMenuItemSpriteExtra*) const::{lambda(CCMenuItemSpriteExtra*)#2}, std::__ndk1::allocator<hi()::$_0::operator()(geode::ModPopupUIEvent*) const::{lambda(CCMenuItemSpriteExtra*)#2}::operator()(CCMenuItemSpriteExtra*) const::{lambda(CCMenuItemSpriteExtra*)#2}>, void (CCMenuItemSpriteExtra*)>::target(std::type_info const&) const
PUBLIC 3eee0 0 std::__ndk1::__function::__func<hi()::$_0::operator()(geode::ModPopupUIEvent*) const::{lambda(CCMenuItemSpriteExtra*)#2}::operator()(CCMenuItemSpriteExtra*) const::{lambda(CCMenuItemSpriteExtra*)#2}, std::__ndk1::allocator<hi()::$_0::operator()(geode::ModPopupUIEvent*) const::{lambda(CCMenuItemSpriteExtra*)#2}::operator()(CCMenuItemSpriteExtra*) const::{lambda(CCMenuItemSpriteExtra*)#2}>, void (CCMenuItemSpriteExtra*)>::target_type() const
PUBLIC 3eeec 0 LoadIssuesLayer::create(geode::Ref<CCContentLayer>, std::__ndk1::basic_string<char, std::__ndk1::char_traits<char>, std::__ndk1::allocator<char> >, int, bool)::{lambda(geode::Task<geode::utils::web::WebResponse, geode::utils::web::WebProgress>::Event*)#1}::~{lambda(geode::Task<geode::utils::web::WebResponse, geode::utils::web::WebProgress>::Event*)#1}()
PUBLIC 3ef38 0 geode::Ref<cocos2d::CCLabelBMFont>::~Ref()
PUBLIC 3ef54 0 LoadIssuesLayer::~LoadIssuesLayer()
PUBLIC 3f024 0 LoadIssuesLayer::~LoadIssuesLayer()
PUBLIC 3f0fc 0 {virtual override thunk({offset(-320)}, LoadIssuesLayer::~LoadIssuesLayer())}
PUBLIC 3f1dc 0 {virtual override thunk({offset(-320)}, LoadIssuesLayer::~LoadIssuesLayer())}
PUBLIC 3f2c4 0 std::__ndk1::__function::__func<LoadIssuesLayer::create(geode::Ref<CCContentLayer>, std::__ndk1::basic_string<char, std::__ndk1::char_traits<char>, std::__ndk1::allocator<char> >, int, bool)::{lambda(geode::Task<geode::utils::web::WebResponse, geode::utils::web::WebProgress>::Event*)#1}, std::__ndk1::allocator<LoadIssuesLayer::create(geode::Ref<CCContentLayer>, std::__ndk1::basic_string<char, std::__ndk1::char_traits<char>, std::__ndk1::allocator<char> >, int, bool)::{lambda(geode::Task<geode::utils::web::WebResponse, geode::utils::web::WebProgress>::Event*)#1}>, void (geode::Task<geode::utils::web::WebResponse, geode::utils::web::WebProgress>::Event*)>::~__func()
PUBLIC 3f31c 0 std::__ndk1::__function::__func<LoadIssuesLayer::create(geode::Ref<CCContentLayer>, std::__ndk1::basic_string<char, std::__ndk1::char_traits<char>, std::__ndk1::allocator<char> >, int, bool)::{lambda(geode::Task<geode::utils::web::WebResponse, geode::utils::web::WebProgress>::Event*)#1}, std::__ndk1::allocator<LoadIssuesLayer::create(geode::Ref<CCContentLayer>, std::__ndk1::basic_string<char, std::__ndk1::char_traits<char>, std::__ndk1::allocator<char> >, int, bool)::{lambda(geode::Task<geode::utils::web::WebResponse, geode::utils::web::WebProgress>::Event*)#1}>, void (geode::Task<geode::utils::web::WebResponse, geode::utils::web::WebProgress>::Event*)>::~__func()
PUBLIC 3f378 0 std::__ndk1::__function::__func<LoadIssuesLayer::create(geode::Ref<CCContentLayer>, std::__ndk1::basic_string<char, std::__ndk1::char_traits<char>, std::__ndk1::allocator<char> >, int, bool)::{lambda(geode::Task<geode::utils::web::WebResponse, geode::utils::web::WebProgress>::Event*)#1}, std::__ndk1::allocator<LoadIssuesLayer::create(geode::Ref<CCContentLayer>, std::__ndk1::basic_string<char, std::__ndk1::char_traits<char>, std::__ndk1::allocator<char> >, int, bool)::{lambda(geode::Task<geode::utils::web::WebResponse, geode::utils::web::WebProgress>::Event*)#1}>, void (geode::Task<geode::utils::web::WebResponse, geode::utils::web::WebProgress>::Event*)>::__clone() const
PUBLIC 3f3cc 0 std::__ndk1::__function::__func<LoadIssuesLayer::create(geode::Ref<CCContentLayer>, std::__ndk1::basic_string<char, std::__ndk1::char_traits<char>, std::__ndk1::allocator<char> >, int, bool)::{lambda(geode::Task<geode::utils::web::WebResponse, geode::utils::web::WebProgress>::Event*)#1}, std::__ndk1::allocator<LoadIssuesLayer::create(geode::Ref<CCContentLayer>, std::__ndk1::basic_string<char, std::__ndk1::char_traits<char>, std::__ndk1::allocator<char> >, int, bool)::{lambda(geode::Task<geode::utils::web::WebResponse, geode::utils::web::WebProgress>::Event*)#1}>, void (geode::Task<geode::utils::web::WebResponse, geode::utils::web::WebProgress>::Event*)>::__clone(std::__ndk1::__function::__base<void (geode::Task<geode::utils::web::WebResponse, geode::utils::web::WebProgress>::Event*)>*) const
PUBLIC 3f3e8 0 std::__ndk1::__function::__func<LoadIssuesLayer::create(geode::Ref<CCContentLayer>, std::__ndk1::basic_string<char, std::__ndk1::char_traits<char>, std::__ndk1::allocator<char> >, int, bool)::{lambda(geode::Task<geode::utils::web::WebResponse, geode::utils::web::WebProgress>::Event*)#1}, std::__ndk1::allocator<LoadIssuesLayer::create(geode::Ref<CCContentLayer>, std::__ndk1::basic_string<char, std::__ndk1::char_traits<char>, std::__ndk1::allocator<char> >, int, bool)::{lambda(geode::Task<geode::utils::web::WebResponse, geode::utils::web::WebProgress>::Event*)#1}>, void (geode::Task<geode::utils::web::WebResponse, geode::utils::web::WebProgress>::Event*)>::destroy()
PUBLIC 3f434 0 std::__ndk1::__function::__func<LoadIssuesLayer::create(geode::Ref<CCContentLayer>, std::__ndk1::basic_string<char, std::__ndk1::char_traits<char>, std::__ndk1::allocator<char> >, int, bool)::{lambda(geode::Task<geode::utils::web::WebResponse, geode::utils::web::WebProgress>::Event*)#1}, std::__ndk1::allocator<LoadIssuesLayer::create(geode::Ref<CCContentLayer>, std::__ndk1::basic_string<char, std::__ndk1::char_traits<char>, std::__ndk1::allocator<char> >, int, bool)::{lambda(geode::Task<geode::utils::web::WebResponse, geode::utils::web::WebProgress>::Event*)#1}>, void (geode::Task<geode::utils::web::WebResponse, geode::utils::web::WebProgress>::Event*)>::destroy_deallocate()
PUBLIC 3f484 0 std::__ndk1::__function::__func<LoadIssuesLayer::create(geode::Ref<CCContentLayer>, std::__ndk1::basic_string<char, std::__ndk1::char_traits<char>, std::__ndk1::allocator<char> >, int, bool)::{lambda(geode::Task<geode::utils::web::WebResponse, geode::utils::web::WebProgress>::Event*)#1}, std::__ndk1::allocator<LoadIssuesLayer::create(geode::Ref<CCContentLayer>, std::__ndk1::basic_string<char, std::__ndk1::char_traits<char>, std::__ndk1::allocator<char> >, int, bool)::{lambda(geode::Task<geode::utils::web::WebResponse, geode::utils::web::WebProgress>::Event*)#1}>, void (geode::Task<geode::utils::web::WebResponse, geode::utils::web::WebProgress>::Event*)>::operator()(geode::Task<geode::utils::web::WebResponse, geode::utils::web::WebProgress>::Event*&&)
PUBLIC 40118 0 std::__ndk1::__function::__func<LoadIssuesLayer::create(geode::Ref<CCContentLayer>, std::__ndk1::basic_string<char, std::__ndk1::char_traits<char>, std::__ndk1::allocator<char> >, int, bool)::{lambda(geode::Task<geode::utils::web::WebResponse, geode::utils::web::WebProgress>::Event*)#1}, std::__ndk1::allocator<LoadIssuesLayer::create(geode::Ref<CCContentLayer>, std::__ndk1::basic_string<char, std::__ndk1::char_traits<char>, std::__ndk1::allocator<char> >, int, bool)::{lambda(geode::Task<geode::utils::web::WebResponse, geode::utils::web::WebProgress>::Event*)#1}>, void (geode::Task<geode::utils::web::WebResponse, geode::utils::web::WebProgress>::Event*)>::target(std::type_info const&) const
PUBLIC 40134 0 std::__ndk1::__function::__func<LoadIssuesLayer::create(geode::Ref<CCContentLayer>, std::__ndk1::basic_string<char, std::__ndk1::char_traits<char>, std::__ndk1::allocator<char> >, int, bool)::{lambda(geode::Task<geode::utils::web::WebResponse, geode::utils::web::WebProgress>::Event*)#1}, std::__ndk1::allocator<LoadIssuesLayer::create(geode::Ref<CCContentLayer>, std::__ndk1::basic_string<char, std::__ndk1::char_traits<char>, std::__ndk1::allocator<char> >, int, bool)::{lambda(geode::Task<geode::utils::web::WebResponse, geode::utils::web::WebProgress>::Event*)#1}>, void (geode::Task<geode::utils::web::WebResponse, geode::utils::web::WebProgress>::Event*)>::target_type() const
PUBLIC 40140 0 std::__ndk1::__compressed_pair_elem<LoadIssuesLayer::create(geode::Ref<CCContentLayer>, std::__ndk1::basic_string<char, std::__ndk1::char_traits<char>, std::__ndk1::allocator<char> >, int, bool)::{lambda(geode::Task<geode::utils::web::WebResponse, geode::utils::web::WebProgress>::Event*)#1}, 0, false>::__compressed_pair_elem[abi:ne180000]<LoadIssuesLayer::create(geode::Ref<CCContentLayer>, std::__ndk1::basic_string<char, std::__ndk1::char_traits<char>, std::__ndk1::allocator<char> >, int, bool)::{lambda(geode::Task<geode::utils::web::WebResponse, geode::utils::web::WebProgress>::Event*)#1} const&, (unsigned long)0>(std::__ndk1::tuple<LoadIssuesLayer::create(geode::Ref<CCContentLayer>, std::__ndk1::basic_string<char, std::__ndk1::char_traits<char>, std::__ndk1::allocator<char> >, int, bool)::{lambda(geode::Task<geode::utils::web::WebResponse, geode::utils::web::WebProgress>::Event*)#1} const&>, std::__ndk1::__tuple_indices<((unsigned long)0)...>)
PUBLIC 401f0 0 LoadCommentsLayer::create(geode::Ref<CCContentLayer>, std::__ndk1::basic_string<char, std::__ndk1::char_traits<char>, std::__ndk1::allocator<char> >, int)
PUBLIC 40b24 0 std::__ndk1::__tree_remove[abi:ne180000]<std::__ndk1::__tree_node_base<void*>*>(std::__ndk1::__tree_node_base<void*>*, std::__ndk1::__tree_node_base<void*>*)
PUBLIC 40eec 0 LoadCommentsLayer::create(geode::Ref<CCContentLayer>, std::__ndk1::basic_string<char, std::__ndk1::char_traits<char>, std::__ndk1::allocator<char> >, int)::{lambda(geode::Task<geode::utils::web::WebResponse, geode::utils::web::WebProgress>::Event*)#1}::~{lambda(geode::Task<geode::utils::web::WebResponse, geode::utils::web::WebProgress>::Event*)#1}()
PUBLIC 40f38 0 LoadCommentsLayer::~LoadCommentsLayer()
PUBLIC 41008 0 LoadCommentsLayer::~LoadCommentsLayer()
PUBLIC 410e0 0 {virtual override thunk({offset(-320)}, LoadCommentsLayer::~LoadCommentsLayer())}
PUBLIC 411c0 0 {virtual override thunk({offset(-320)}, LoadCommentsLayer::~LoadCommentsLayer())}
PUBLIC 412a8 0 std::__ndk1::__function::__func<LoadCommentsLayer::create(geode::Ref<CCContentLayer>, std::__ndk1::basic_string<char, std::__ndk1::char_traits<char>, std::__ndk1::allocator<char> >, int)::{lambda(geode::Task<geode::utils::web::WebResponse, geode::utils::web::WebProgress>::Event*)#1}, std::__ndk1::allocator<LoadCommentsLayer::create(geode::Ref<CCContentLayer>, std::__ndk1::basic_string<char, std::__ndk1::char_traits<char>, std::__ndk1::allocator<char> >, int)::{lambda(geode::Task<geode::utils::web::WebResponse, geode::utils::web::WebProgress>::Event*)#1}>, void (geode::Task<geode::utils::web::WebResponse, geode::utils::web::WebProgress>::Event*)>::~__func()
PUBLIC 41300 0 std::__ndk1::__function::__func<LoadCommentsLayer::create(geode::Ref<CCContentLayer>, std::__ndk1::basic_string<char, std::__ndk1::char_traits<char>, std::__ndk1::allocator<char> >, int)::{lambda(geode::Task<geode::utils::web::WebResponse, geode::utils::web::WebProgress>::Event*)#1}, std::__ndk1::allocator<LoadCommentsLayer::create(geode::Ref<CCContentLayer>, std::__ndk1::basic_string<char, std::__ndk1::char_traits<char>, std::__ndk1::allocator<char> >, int)::{lambda(geode::Task<geode::utils::web::WebResponse, geode::utils::web::WebProgress>::Event*)#1}>, void (geode::Task<geode::utils::web::WebResponse, geode::utils::web::WebProgress>::Event*)>::~__func()
PUBLIC 4135c 0 std::__ndk1::__function::__func<LoadCommentsLayer::create(geode::Ref<CCContentLayer>, std::__ndk1::basic_string<char, std::__ndk1::char_traits<char>, std::__ndk1::allocator<char> >, int)::{lambda(geode::Task<geode::utils::web::WebResponse, geode::utils::web::WebProgress>::Event*)#1}, std::__ndk1::allocator<LoadCommentsLayer::create(geode::Ref<CCContentLayer>, std::__ndk1::basic_string<char, std::__ndk1::char_traits<char>, std::__ndk1::allocator<char> >, int)::{lambda(geode::Task<geode::utils::web::WebResponse, geode::utils::web::WebProgress>::Event*)#1}>, void (geode::Task<geode::utils::web::WebResponse, geode::utils::web::WebProgress>::Event*)>::__clone() const
PUBLIC 413b0 0 std::__ndk1::__function::__func<LoadCommentsLayer::create(geode::Ref<CCContentLayer>, std::__ndk1::basic_string<char, std::__ndk1::char_traits<char>, std::__ndk1::allocator<char> >, int)::{lambda(geode::Task<geode::utils::web::WebResponse, geode::utils::web::WebProgress>::Event*)#1}, std::__ndk1::allocator<LoadCommentsLayer::create(geode::Ref<CCContentLayer>, std::__ndk1::basic_string<char, std::__ndk1::char_traits<char>, std::__ndk1::allocator<char> >, int)::{lambda(geode::Task<geode::utils::web::WebResponse, geode::utils::web::WebProgress>::Event*)#1}>, void (geode::Task<geode::utils::web::WebResponse, geode::utils::web::WebProgress>::Event*)>::__clone(std::__ndk1::__function::__base<void (geode::Task<geode::utils::web::WebResponse, geode::utils::web::WebProgress>::Event*)>*) const
PUBLIC 413cc 0 std::__ndk1::__function::__func<LoadCommentsLayer::create(geode::Ref<CCContentLayer>, std::__ndk1::basic_string<char, std::__ndk1::char_traits<char>, std::__ndk1::allocator<char> >, int)::{lambda(geode::Task<geode::utils::web::WebResponse, geode::utils::web::WebProgress>::Event*)#1}, std::__ndk1::allocator<LoadCommentsLayer::create(geode::Ref<CCContentLayer>, std::__ndk1::basic_string<char, std::__ndk1::char_traits<char>, std::__ndk1::allocator<char> >, int)::{lambda(geode::Task<geode::utils::web::WebResponse, geode::utils::web::WebProgress>::Event*)#1}>, void (geode::Task<geode::utils::web::WebResponse, geode::utils::web::WebProgress>::Event*)>::destroy()
PUBLIC 41418 0 std::__ndk1::__function::__func<LoadCommentsLayer::create(geode::Ref<CCContentLayer>, std::__ndk1::basic_string<char, std::__ndk1::char_traits<char>, std::__ndk1::allocator<char> >, int)::{lambda(geode::Task<geode::utils::web::WebResponse, geode::utils::web::WebProgress>::Event*)#1}, std::__ndk1::allocator<LoadCommentsLayer::create(geode::Ref<CCContentLayer>, std::__ndk1::basic_string<char, std::__ndk1::char_traits<char>, std::__ndk1::allocator<char> >, int)::{lambda(geode::Task<geode::utils::web::WebResponse, geode::utils::web::WebProgress>::Event*)#1}>, void (geode::Task<geode::utils::web::WebResponse, geode::utils::web::WebProgress>::Event*)>::destroy_deallocate()
PUBLIC 41468 0 std::__ndk1::__function::__func<LoadCommentsLayer::create(geode::Ref<CCContentLayer>, std::__ndk1::basic_string<char, std::__ndk1::char_traits<char>, std::__ndk1::allocator<char> >, int)::{lambda(geode::Task<geode::utils::web::WebResponse, geode::utils::web::WebProgress>::Event*)#1}, std::__ndk1::allocator<LoadCommentsLayer::create(geode::Ref<CCContentLayer>, std::__ndk1::basic_string<char, std::__ndk1::char_traits<char>, std::__ndk1::allocator<char> >, int)::{lambda(geode::Task<geode::utils::web::WebResponse, geode::utils::web::WebProgress>::Event*)#1}>, void (geode::Task<geode::utils::web::WebResponse, geode::utils::web::WebProgress>::Event*)>::operator()(geode::Task<geode::utils::web::WebResponse, geode::utils::web::WebProgress>::Event*&&)
PUBLIC 42a34 0 std::__ndk1::__function::__func<LoadCommentsLayer::create(geode::Ref<CCContentLayer>, std::__ndk1::basic_string<char, std::__ndk1::char_traits<char>, std::__ndk1::allocator<char> >, int)::{lambda(geode::Task<geode::utils::web::WebResponse, geode::utils::web::WebProgress>::Event*)#1}, std::__ndk1::allocator<LoadCommentsLayer::create(geode::Ref<CCContentLayer>, std::__ndk1::basic_string<char, std::__ndk1::char_traits<char>, std::__ndk1::allocator<char> >, int)::{lambda(geode::Task<geode::utils::web::WebResponse, geode::utils::web::WebProgress>::Event*)#1}>, void (geode::Task<geode::utils::web::WebResponse, geode::utils::web::WebProgress>::Event*)>::target(std::type_info const&) const
PUBLIC 42a50 0 std::__ndk1::__function::__func<LoadCommentsLayer::create(geode::Ref<CCContentLayer>, std::__ndk1::basic_string<char, std::__ndk1::char_traits<char>, std::__ndk1::allocator<char> >, int)::{lambda(geode::Task<geode::utils::web::WebResponse, geode::utils::web::WebProgress>::Event*)#1}, std::__ndk1::allocator<LoadCommentsLayer::create(geode::Ref<CCContentLayer>, std::__ndk1::basic_string<char, std::__ndk1::char_traits<char>, std::__ndk1::allocator<char> >, int)::{lambda(geode::Task<geode::utils::web::WebResponse, geode::utils::web::WebProgress>::Event*)#1}>, void (geode::Task<geode::utils::web::WebResponse, geode::utils::web::WebProgress>::Event*)>::target_type() const
PUBLIC 42a5c 0 std::__ndk1::__compressed_pair_elem<LoadCommentsLayer::create(geode::Ref<CCContentLayer>, std::__ndk1::basic_string<char, std::__ndk1::char_traits<char>, std::__ndk1::allocator<char> >, int)::{lambda(geode::Task<geode::utils::web::WebResponse, geode::utils::web::WebProgress>::Event*)#1}, 0, false>::__compressed_pair_elem[abi:ne180000]<LoadCommentsLayer::create(geode::Ref<CCContentLayer>, std::__ndk1::basic_string<char, std::__ndk1::char_traits<char>, std::__ndk1::allocator<char> >, int)::{lambda(geode::Task<geode::utils::web::WebResponse, geode::utils::web::WebProgress>::Event*)#1} const&, (unsigned long)0>(std::__ndk1::tuple<LoadCommentsLayer::create(geode::Ref<CCContentLayer>, std::__ndk1::basic_string<char, std::__ndk1::char_traits<char>, std::__ndk1::allocator<char> >, int)::{lambda(geode::Task<geode::utils::web::WebResponse, geode::utils::web::WebProgress>::Event*)#1} const&>, std::__ndk1::__tuple_indices<((unsigned long)0)...>)
PUBLIC 42b0c 0 std::__ndk1::__split_buffer<matjson::Value, std::__ndk1::allocator<matjson::Value>&>::~__split_buffer()
PUBLIC 42b60 0 std::__ndk1::vector<matjson::Value, std::__ndk1::allocator<matjson::Value> >::__throw_length_error[abi:ne180000]() const
PUBLIC 42b74 0 IssueCommentItem::customSetup(cocos2d::CCNode*)
PUBLIC 456c4 0 IssueCommentItem::~IssueCommentItem()
PUBLIC 45718 0 IssueCommentItem::~IssueCommentItem()
PUBLIC 45774 0 {virtual override thunk({offset(-320)}, IssueCommentItem::~IssueCommentItem())}
PUBLIC 457c8 0 {virtual override thunk({offset(-320)}, IssueCommentItem::~IssueCommentItem())}
PUBLIC 45824 0 IssueCommentItem::customSetup(cocos2d::CCNode*)::{lambda(std::__ndk1::basic_string<char, std::__ndk1::char_traits<char>, std::__ndk1::allocator<char> >(std::__ndk1::basic_string<char, std::__ndk1::char_traits<char>, std::__ndk1::allocator<char> >, std::__ndk1::basic_string<char, std::__ndk1::char_traits<char>, std::__ndk1::allocator<char> >, std::__ndk1::basic_string<char, std::__ndk1::char_traits<char>, std::__ndk1::allocator<char> >), std::__ndk1::basic_string<char, std::__ndk1::char_traits<char>, std::__ndk1::allocator<char> >, std::__ndk1::basic_string<char, std::__ndk1::char_traits<char>, std::__ndk1::allocator<char> >)#1}::operator() const
PUBLIC 45cec 0 IssueCommentItem::customSetup(cocos2d::CCNode*)::{lambda(geode::Task<geode::utils::web::WebResponse, geode::utils::web::WebProgress>::Event*)#1}::~{lambda(geode::Task<geode::utils::web::WebResponse, geode::utils::web::WebProgress>::Event*)#1}()
PUBLIC 45d3c 0 IssueCommentItem::customSetup(cocos2d::CCNode*)::{lambda()#1}::~{lambda()#1}()
PUBLIC 45d94 0 IssueCommentItem::onAvatar(cocos2d::CCObject*)
PUBLIC 45ee4 0 IssueCommentItem::customSetup(cocos2d::CCNode*)::{lambda(geode::Task<geode::utils::web::WebResponse, geode::utils::web::WebProgress>::Event*)#2}::~{lambda(geode::Task<geode::utils::web::WebResponse, geode::utils::web::WebProgress>::Event*)#2}()
PUBLIC 45f28 0 IssueCommentItem::deleteComment(cocos2d::CCObject*)
PUBLIC 46480 0 IssueCommentItem::customSetup(cocos2d::CCNode*)::{lambda(CCMenuItemToggler*)#1}::~{lambda(CCMenuItemToggler*)#1}()
PUBLIC 4649c 0 geode::Ref<geode::MDTextArea>::~Ref()
PUBLIC 464b8 0 std::__ndk1::__function::__func<IssueCommentItem::customSetup(cocos2d::CCNode*)::{lambda(CCMenuItemSpriteExtra*)#1}, std::__ndk1::allocator<IssueCommentItem::customSetup(cocos2d::CCNode*)::{lambda(CCMenuItemSpriteExtra*)#1}>, void (CCMenuItemSpriteExtra*)>::~__func()
PUBLIC 464c8 0 std::__ndk1::__function::__func<IssueCommentItem::customSetup(cocos2d::CCNode*)::{lambda(CCMenuItemSpriteExtra*)#1}, std::__ndk1::allocator<IssueCommentItem::customSetup(cocos2d::CCNode*)::{lambda(CCMenuItemSpriteExtra*)#1}>, void (CCMenuItemSpriteExtra*)>::~__func()
PUBLIC 464f8 0 std::__ndk1::__function::__func<IssueCommentItem::customSetup(cocos2d::CCNode*)::{lambda(CCMenuItemSpriteExtra*)#1}, std::__ndk1::allocator<IssueCommentItem::customSetup(cocos2d::CCNode*)::{lambda(CCMenuItemSpriteExtra*)#1}>, void (CCMenuItemSpriteExtra*)>::__clone() const
PUBLIC 4654c 0 std::__ndk1::__function::__func<IssueCommentItem::customSetup(cocos2d::CCNode*)::{lambda(CCMenuItemSpriteExtra*)#1}, std::__ndk1::allocator<IssueCommentItem::customSetup(cocos2d::CCNode*)::{lambda(CCMenuItemSpriteExtra*)#1}>, void (CCMenuItemSpriteExtra*)>::__clone(std::__ndk1::__function::__base<void (CCMenuItemSpriteExtra*)>*) const
PUBLIC 46568 0 std::__ndk1::__function::__func<IssueCommentItem::customSetup(cocos2d::CCNode*)::{lambda(CCMenuItemSpriteExtra*)#1}, std::__ndk1::allocator<IssueCommentItem::customSetup(cocos2d::CCNode*)::{lambda(CCMenuItemSpriteExtra*)#1}>, void (CCMenuItemSpriteExtra*)>::destroy()
PUBLIC 46570 0 std::__ndk1::__function::__func<IssueCommentItem::customSetup(cocos2d::CCNode*)::{lambda(CCMenuItemSpriteExtra*)#1}, std::__ndk1::allocator<IssueCommentItem::customSetup(cocos2d::CCNode*)::{lambda(CCMenuItemSpriteExtra*)#1}>, void (CCMenuItemSpriteExtra*)>::destroy_deallocate()
PUBLIC 46598 0 std::__ndk1::__function::__func<IssueCommentItem::customSetup(cocos2d::CCNode*)::{lambda(CCMenuItemSpriteExtra*)#1}, std::__ndk1::allocator<IssueCommentItem::customSetup(cocos2d::CCNode*)::{lambda(CCMenuItemSpriteExtra*)#1}>, void (CCMenuItemSpriteExtra*)>::operator()(CCMenuItemSpriteExtra*&&)
PUBLIC 46c44 0 std::__ndk1::__function::__func<IssueCommentItem::customSetup(cocos2d::CCNode*)::{lambda(CCMenuItemSpriteExtra*)#1}, std::__ndk1::allocator<IssueCommentItem::customSetup(cocos2d::CCNode*)::{lambda(CCMenuItemSpriteExtra*)#1}>, void (CCMenuItemSpriteExtra*)>::target(std::type_info const&) const
PUBLIC 46c60 0 std::__ndk1::__function::__func<IssueCommentItem::customSetup(cocos2d::CCNode*)::{lambda(CCMenuItemSpriteExtra*)#1}, std::__ndk1::allocator<IssueCommentItem::customSetup(cocos2d::CCNode*)::{lambda(CCMenuItemSpriteExtra*)#1}>, void (CCMenuItemSpriteExtra*)>::target_type() const
PUBLIC 46c6c 0 std::__ndk1::__function::__func<IssueCommentItem::customSetup(cocos2d::CCNode*)::{lambda(CCMenuItemSpriteExtra*)#1}::operator()(CCMenuItemSpriteExtra*) const::{lambda(geode::Task<geode::utils::web::WebResponse, geode::utils::web::WebProgress>::Event*)#1}, std::__ndk1::allocator<IssueCommentItem::customSetup(cocos2d::CCNode*)::{lambda(CCMenuItemSpriteExtra*)#1}::operator()(CCMenuItemSpriteExtra*) const::{lambda(geode::Task<geode::utils::web::WebResponse, geode::utils::web::WebProgress>::Event*)#1}>, void (geode::Task<geode::utils::web::WebResponse, geode::utils::web::WebProgress>::Event*)>::~__func()
PUBLIC 46c70 0 std::__ndk1::__function::__func<IssueCommentItem::customSetup(cocos2d::CCNode*)::{lambda(CCMenuItemSpriteExtra*)#1}::operator()(CCMenuItemSpriteExtra*) const::{lambda(geode::Task<geode::utils::web::WebResponse, geode::utils::web::WebProgress>::Event*)#1}, std::__ndk1::allocator<IssueCommentItem::customSetup(cocos2d::CCNode*)::{lambda(CCMenuItemSpriteExtra*)#1}::operator()(CCMenuItemSpriteExtra*) const::{lambda(geode::Task<geode::utils::web::WebResponse, geode::utils::web::WebProgress>::Event*)#1}>, void (geode::Task<geode::utils::web::WebResponse, geode::utils::web::WebProgress>::Event*)>::__clone() const
PUBLIC 46cb0 0 std::__ndk1::__function::__func<IssueCommentItem::customSetup(cocos2d::CCNode*)::{lambda(CCMenuItemSpriteExtra*)#1}::operator()(CCMenuItemSpriteExtra*) const::{lambda(geode::Task<geode::utils::web::WebResponse, geode::utils::web::WebProgress>::Event*)#1}, std::__ndk1::allocator<IssueCommentItem::customSetup(cocos2d::CCNode*)::{lambda(CCMenuItemSpriteExtra*)#1}::operator()(CCMenuItemSpriteExtra*) const::{lambda(geode::Task<geode::utils::web::WebResponse, geode::utils::web::WebProgress>::Event*)#1}>, void (geode::Task<geode::utils::web::WebResponse, geode::utils::web::WebProgress>::Event*)>::__clone(std::__ndk1::__function::__base<void (geode::Task<geode::utils::web::WebResponse, geode::utils::web::WebProgress>::Event*)>*) const
PUBLIC 46cd0 0 std::__ndk1::__function::__func<IssueCommentItem::customSetup(cocos2d::CCNode*)::{lambda(CCMenuItemSpriteExtra*)#1}::operator()(CCMenuItemSpriteExtra*) const::{lambda(geode::Task<geode::utils::web::WebResponse, geode::utils::web::WebProgress>::Event*)#1}, std::__ndk1::allocator<IssueCommentItem::customSetup(cocos2d::CCNode*)::{lambda(CCMenuItemSpriteExtra*)#1}::operator()(CCMenuItemSpriteExtra*) const::{lambda(geode::Task<geode::utils::web::WebResponse, geode::utils::web::WebProgress>::Event*)#1}>, void (geode::Task<geode::utils::web::WebResponse, geode::utils::web::WebProgress>::Event*)>::destroy()
PUBLIC 46cd4 0 std::__ndk1::__function::__func<IssueCommentItem::customSetup(cocos2d::CCNode*)::{lambda(CCMenuItemSpriteExtra*)#1}::operator()(CCMenuItemSpriteExtra*) const::{lambda(geode::Task<geode::utils::web::WebResponse, geode::utils::web::WebProgress>::Event*)#1}, std::__ndk1::allocator<IssueCommentItem::customSetup(cocos2d::CCNode*)::{lambda(CCMenuItemSpriteExtra*)#1}::operator()(CCMenuItemSpriteExtra*) const::{lambda(geode::Task<geode::utils::web::WebResponse, geode::utils::web::WebProgress>::Event*)#1}>, void (geode::Task<geode::utils::web::WebResponse, geode::utils::web::WebProgress>::Event*)>::destroy_deallocate()
PUBLIC 46cd8 0 std::__ndk1::__function::__func<IssueCommentItem::customSetup(cocos2d::CCNode*)::{lambda(CCMenuItemSpriteExtra*)#1}::operator()(CCMenuItemSpriteExtra*) const::{lambda(geode::Task<geode::utils::web::WebResponse, geode::utils::web::WebProgress>::Event*)#1}, std::__ndk1::allocator<IssueCommentItem::customSetup(cocos2d::CCNode*)::{lambda(CCMenuItemSpriteExtra*)#1}::operator()(CCMenuItemSpriteExtra*) const::{lambda(geode::Task<geode::utils::web::WebResponse, geode::utils::web::WebProgress>::Event*)#1}>, void (geode::Task<geode::utils::web::WebResponse, geode::utils::web::WebProgress>::Event*)>::operator()(geode::Task<geode::utils::web::WebResponse, geode::utils::web::WebProgress>::Event*&&)
PUBLIC 4742c 0 std::__ndk1::__function::__func<IssueCommentItem::customSetup(cocos2d::CCNode*)::{lambda(CCMenuItemSpriteExtra*)#1}::operator()(CCMenuItemSpriteExtra*) const::{lambda(geode::Task<geode::utils::web::WebResponse, geode::utils::web::WebProgress>::Event*)#1}, std::__ndk1::allocator<IssueCommentItem::customSetup(cocos2d::CCNode*)::{lambda(CCMenuItemSpriteExtra*)#1}::operator()(CCMenuItemSpriteExtra*) const::{lambda(geode::Task<geode::utils::web::WebResponse, geode::utils::web::WebProgress>::Event*)#1}>, void (geode::Task<geode::utils::web::WebResponse, geode::utils::web::WebProgress>::Event*)>::target(std::type_info const&) const
PUBLIC 47448 0 std::__ndk1::__function::__func<IssueCommentItem::customSetup(cocos2d::CCNode*)::{lambda(CCMenuItemSpriteExtra*)#1}::operator()(CCMenuItemSpriteExtra*) const::{lambda(geode::Task<geode::utils::web::WebResponse, geode::utils::web::WebProgress>::Event*)#1}, std::__ndk1::allocator<IssueCommentItem::customSetup(cocos2d::CCNode*)::{lambda(CCMenuItemSpriteExtra*)#1}::operator()(CCMenuItemSpriteExtra*) const::{lambda(geode::Task<geode::utils::web::WebResponse, geode::utils::web::WebProgress>::Event*)#1}>, void (geode::Task<geode::utils::web::WebResponse, geode::utils::web::WebProgress>::Event*)>::target_type() const
PUBLIC 47454 0 std::__ndk1::__variant_detail::__visitation::__base::__dispatcher<(unsigned long)0>::__dispatch[abi:ne180000]<std::__ndk1::__variant_detail::__dtor<std::__ndk1::__variant_detail::__traits<int, std::__ndk1::basic_string<char, std::__ndk1::char_traits<char>, std::__ndk1::allocator<char> > >, (std::__ndk1::__variant_detail::_Trait)1>::__destroy[abi:ne180000]()::{lambda(auto:1&)#1}, std::__ndk1::__variant_detail::__base<(std::__ndk1::__variant_detail::__traits<int, std::__ndk1::basic_string<char, std::__ndk1::char_traits<char>, std::__ndk1::allocator<char> > >)1, int, std::__ndk1::allocator<char> >&>(std::__ndk1::__variant_detail::__dtor<std::__ndk1::__variant_detail::__traits<int, std::__ndk1::basic_string<char, std::__ndk1::char_traits<char>, std::__ndk1::allocator<char> > >, (std::__ndk1::__variant_detail::_Trait)1>, std::__ndk1::__variant_detail::__base<(std::__ndk1::__variant_detail::__traits<int, std::__ndk1::basic_string<char, std::__ndk1::char_traits<char>, std::__ndk1::allocator<char> > >)1, int, std::__ndk1::allocator<char> >&)
PUBLIC 47458 0 std::__ndk1::__variant_detail::__visitation::__base::__dispatcher<(unsigned long)1>::__dispatch[abi:ne180000]<std::__ndk1::__variant_detail::__dtor<std::__ndk1::__variant_detail::__traits<int, std::__ndk1::basic_string<char, std::__ndk1::char_traits<char>, std::__ndk1::allocator<char> > >, (std::__ndk1::__variant_detail::_Trait)1>::__destroy[abi:ne180000]()::{lambda(auto:1&)#1}, std::__ndk1::__variant_detail::__base<(std::__ndk1::__variant_detail::__traits<int, std::__ndk1::basic_string<char, std::__ndk1::char_traits<char>, std::__ndk1::allocator<char> > >)1, int, std::__ndk1::allocator<char> >&>(std::__ndk1::__variant_detail::__dtor<std::__ndk1::__variant_detail::__traits<int, std::__ndk1::basic_string<char, std::__ndk1::char_traits<char>, std::__ndk1::allocator<char> > >, (std::__ndk1::__variant_detail::_Trait)1>, std::__ndk1::__variant_detail::__base<(std::__ndk1::__variant_detail::__traits<int, std::__ndk1::basic_string<char, std::__ndk1::char_traits<char>, std::__ndk1::allocator<char> > >)1, int, std::__ndk1::allocator<char> >&)
PUBLIC 4746c 0 std::__ndk1::__function::__func<IssueCommentItem::customSetup(cocos2d::CCNode*)::{lambda()#1}, std::__ndk1::allocator<IssueCommentItem::customSetup(cocos2d::CCNode*)::{lambda()#1}>, void ()>::~__func()
PUBLIC 474cc 0 std::__ndk1::__function::__func<IssueCommentItem::customSetup(cocos2d::CCNode*)::{lambda()#1}, std::__ndk1::allocator<IssueCommentItem::customSetup(cocos2d::CCNode*)::{lambda()#1}>, void ()>::~__func()
PUBLIC 47534 0 std::__ndk1::__function::__func<IssueCommentItem::customSetup(cocos2d::CCNode*)::{lambda()#1}, std::__ndk1::allocator<IssueCommentItem::customSetup(cocos2d::CCNode*)::{lambda()#1}>, void ()>::__clone() const
PUBLIC 4762c 0 std::__ndk1::__function::__func<IssueCommentItem::customSetup(cocos2d::CCNode*)::{lambda()#1}, std::__ndk1::allocator<IssueCommentItem::customSetup(cocos2d::CCNode*)::{lambda()#1}>, void ()>::__clone(std::__ndk1::__function::__base<void ()>*) const
PUBLIC 476f8 0 std::__ndk1::__function::__func<IssueCommentItem::customSetup(cocos2d::CCNode*)::{lambda()#1}, std::__ndk1::allocator<IssueCommentItem::customSetup(cocos2d::CCNode*)::{lambda()#1}>, void ()>::destroy()
PUBLIC 47750 0 std::__ndk1::__function::__func<IssueCommentItem::customSetup(cocos2d::CCNode*)::{lambda()#1}, std::__ndk1::allocator<IssueCommentItem::customSetup(cocos2d::CCNode*)::{lambda()#1}>, void ()>::destroy_deallocate()
PUBLIC 477b0 0 std::__ndk1::__function::__func<IssueCommentItem::customSetup(cocos2d::CCNode*)::{lambda()#1}, std::__ndk1::allocator<IssueCommentItem::customSetup(cocos2d::CCNode*)::{lambda()#1}>, void ()>::operator()()
PUBLIC 47c84 0 std::__ndk1::__function::__func<IssueCommentItem::customSetup(cocos2d::CCNode*)::{lambda()#1}, std::__ndk1::allocator<IssueCommentItem::customSetup(cocos2d::CCNode*)::{lambda()#1}>, void ()>::target(std::type_info const&) const
PUBLIC 47ca0 0 std::__ndk1::__function::__func<IssueCommentItem::customSetup(cocos2d::CCNode*)::{lambda()#1}, std::__ndk1::allocator<IssueCommentItem::customSetup(cocos2d::CCNode*)::{lambda()#1}>, void ()>::target_type() const
PUBLIC 47cac 0 std::__ndk1::__function::__func<IssueCommentItem::customSetup(cocos2d::CCNode*)::{lambda(geode::Task<geode::utils::web::WebResponse, geode::utils::web::WebProgress>::Event*)#1}, std::__ndk1::allocator<IssueCommentItem::customSetup(cocos2d::CCNode*)::{lambda(geode::Task<geode::utils::web::WebResponse, geode::utils::web::WebProgress>::Event*)#1}>, void (geode::Task<geode::utils::web::WebResponse, geode::utils::web::WebProgress>::Event*)>::~__func()
PUBLIC 47d08 0 std::__ndk1::__function::__func<IssueCommentItem::customSetup(cocos2d::CCNode*)::{lambda(geode::Task<geode::utils::web::WebResponse, geode::utils::web::WebProgress>::Event*)#1}, std::__ndk1::allocator<IssueCommentItem::customSetup(cocos2d::CCNode*)::{lambda(geode::Task<geode::utils::web::WebResponse, geode::utils::web::WebProgress>::Event*)#1}>, void (geode::Task<geode::utils::web::WebResponse, geode::utils::web::WebProgress>::Event*)>::~__func()
PUBLIC 47d6c 0 std::__ndk1::__function::__func<IssueCommentItem::customSetup(cocos2d::CCNode*)::{lambda(geode::Task<geode::utils::web::WebResponse, geode::utils::web::WebProgress>::Event*)#1}, std::__ndk1::allocator<IssueCommentItem::customSetup(cocos2d::CCNode*)::{lambda(geode::Task<geode::utils::web::WebResponse, geode::utils::web::WebProgress>::Event*)#1}>, void (geode::Task<geode::utils::web::WebResponse, geode::utils::web::WebProgress>::Event*)>::__clone() const
PUBLIC 47e38 0 std::__ndk1::__function::__func<IssueCommentItem::customSetup(cocos2d::CCNode*)::{lambda(geode::Task<geode::utils::web::WebResponse, geode::utils::web::WebProgress>::Event*)#1}, std::__ndk1::allocator<IssueCommentItem::customSetup(cocos2d::CCNode*)::{lambda(geode::Task<geode::utils::web::WebResponse, geode::utils::web::WebProgress>::Event*)#1}>, void (geode::Task<geode::utils::web::WebResponse, geode::utils::web::WebProgress>::Event*)>::__clone(std::__ndk1::__function::__base<void (geode::Task<geode::utils::web::WebResponse, geode::utils::web::WebProgress>::Event*)>*) const
PUBLIC 47ee0 0 std::__ndk1::__function::__func<IssueCommentItem::customSetup(cocos2d::CCNode*)::{lambda(geode::Task<geode::utils::web::WebResponse, geode::utils::web::WebProgress>::Event*)#1}, std::__ndk1::allocator<IssueCommentItem::customSetup(cocos2d::CCNode*)::{lambda(geode::Task<geode::utils::web::WebResponse, geode::utils::web::WebProgress>::Event*)#1}>, void (geode::Task<geode::utils::web::WebResponse, geode::utils::web::WebProgress>::Event*)>::destroy()
PUBLIC 47f30 0 std::__ndk1::__function::__func<IssueCommentItem::customSetup(cocos2d::CCNode*)::{lambda(geode::Task<geode::utils::web::WebResponse, geode::utils::web::WebProgress>::Event*)#1}, std::__ndk1::allocator<IssueCommentItem::customSetup(cocos2d::CCNode*)::{lambda(geode::Task<geode::utils::web::WebResponse, geode::utils::web::WebProgress>::Event*)#1}>, void (geode::Task<geode::utils::web::WebResponse, geode::utils::web::WebProgress>::Event*)>::destroy_deallocate()
PUBLIC 47f88 0 std::__ndk1::__function::__func<IssueCommentItem::customSetup(cocos2d::CCNode*)::{lambda(geode::Task<geode::utils::web::WebResponse, geode::utils::web::WebProgress>::Event*)#1}, std::__ndk1::allocator<IssueCommentItem::customSetup(cocos2d::CCNode*)::{lambda(geode::Task<geode::utils::web::WebResponse, geode::utils::web::WebProgress>::Event*)#1}>, void (geode::Task<geode::utils::web::WebResponse, geode::utils::web::WebProgress>::Event*)>::operator()(geode::Task<geode::utils::web::WebResponse, geode::utils::web::WebProgress>::Event*&&)
PUBLIC 485fc 0 std::__ndk1::__function::__func<IssueCommentItem::customSetup(cocos2d::CCNode*)::{lambda(geode::Task<geode::utils::web::WebResponse, geode::utils::web::WebProgress>::Event*)#1}, std::__ndk1::allocator<IssueCommentItem::customSetup(cocos2d::CCNode*)::{lambda(geode::Task<geode::utils::web::WebResponse, geode::utils::web::WebProgress>::Event*)#1}>, void (geode::Task<geode::utils::web::WebResponse, geode::utils::web::WebProgress>::Event*)>::target(std::type_info const&) const
PUBLIC 48618 0 std::__ndk1::__function::__func<IssueCommentItem::customSetup(cocos2d::CCNode*)::{lambda(geode::Task<geode::utils::web::WebResponse, geode::utils::web::WebProgress>::Event*)#1}, std::__ndk1::allocator<IssueCommentItem::customSetup(cocos2d::CCNode*)::{lambda(geode::Task<geode::utils::web::WebResponse, geode::utils::web::WebProgress>::Event*)#1}>, void (geode::Task<geode::utils::web::WebResponse, geode::utils::web::WebProgress>::Event*)>::target_type() const
PUBLIC 48624 0 geode::impl::ResultData<std::__ndk1::vector<matjson::Value, std::__ndk1::allocator<matjson::Value> >, std::__ndk1::basic_string<char, std::__ndk1::char_traits<char>, std::__ndk1::allocator<char> > >::~ResultData()
PUBLIC 48698 0 std::__ndk1::__variant_detail::__visitation::__base::__dispatcher<(unsigned long)0>::__dispatch[abi:ne180000]<std::__ndk1::__variant_detail::__dtor<std::__ndk1::__variant_detail::__traits<std::__ndk1::vector<matjson::Value, std::__ndk1::allocator<matjson> >, std::__ndk1::basic_string<char, std::__ndk1::char_traits<char>, matjson::Value<char> > >, (std::__ndk1::__variant_detail::_Trait)1>::__destroy[abi:ne180000]()::{lambda(auto:1&)#1}, std::__ndk1::__variant_detail::__base<(std::__ndk1::__variant_detail::__traits<std::__ndk1::vector<matjson::Value, std::__ndk1::allocator<matjson> >, std::__ndk1::basic_string<char, std::__ndk1::char_traits<char>, matjson::Value<char> > >)1, std::__ndk1::allocator<matjson>, matjson::Value<char> >&>(std::__ndk1::__variant_detail::__dtor<std::__ndk1::__variant_detail::__traits<std::__ndk1::vector<matjson::Value, std::__ndk1::allocator<matjson> >, std::__ndk1::basic_string<char, std::__ndk1::char_traits<char>, matjson::Value<char> > >, (std::__ndk1::__variant_detail::_Trait)1>, std::__ndk1::__variant_detail::__base<(std::__ndk1::__variant_detail::__traits<std::__ndk1::vector<matjson::Value, std::__ndk1::allocator<matjson> >, std::__ndk1::basic_string<char, std::__ndk1::char_traits<char>, matjson::Value<char> > >)1, std::__ndk1::allocator<matjson>, matjson::Value<char> >&)
PUBLIC 48700 0 std::__ndk1::__variant_detail::__visitation::__base::__dispatcher<(unsigned long)1>::__dispatch[abi:ne180000]<std::__ndk1::__variant_detail::__dtor<std::__ndk1::__variant_detail::__traits<std::__ndk1::vector<matjson::Value, std::__ndk1::allocator<matjson> >, std::__ndk1::basic_string<char, std::__ndk1::char_traits<char>, matjson::Value<char> > >, (std::__ndk1::__variant_detail::_Trait)1>::__destroy[abi:ne180000]()::{lambda(auto:1&)#1}, std::__ndk1::__variant_detail::__base<(std::__ndk1::__variant_detail::__traits<std::__ndk1::vector<matjson::Value, std::__ndk1::allocator<matjson> >, std::__ndk1::basic_string<char, std::__ndk1::char_traits<char>, matjson::Value<char> > >)1, std::__ndk1::allocator<matjson>, matjson::Value<char> >&>(std::__ndk1::__variant_detail::__dtor<std::__ndk1::__variant_detail::__traits<std::__ndk1::vector<matjson::Value, std::__ndk1::allocator<matjson> >, std::__ndk1::basic_string<char, std::__ndk1::char_traits<char>, matjson::Value<char> > >, (std::__ndk1::__variant_detail::_Trait)1>, std::__ndk1::__variant_detail::__base<(std::__ndk1::__variant_detail::__traits<std::__ndk1::vector<matjson::Value, std::__ndk1::allocator<matjson> >, std::__ndk1::basic_string<char, std::__ndk1::char_traits<char>, matjson::Value<char> > >)1, std::__ndk1::allocator<matjson>, matjson::Value<char> >&)
PUBLIC 48714 0 std::__ndk1::basic_string<char, std::__ndk1::char_traits<char>, std::__ndk1::allocator<char> >::__assign_no_alias<true>(char const*, unsigned long)
PUBLIC 487c0 0 std::__ndk1::basic_string<char, std::__ndk1::char_traits<char>, std::__ndk1::allocator<char> >::__assign_no_alias<false>(char const*, unsigned long)
PUBLIC 488d0 0 std::__ndk1::__function::__func<IssueCommentItem::customSetup(cocos2d::CCNode*)::{lambda(geode::Task<geode::utils::web::WebResponse, geode::utils::web::WebProgress>::Event*)#2}, std::__ndk1::allocator<IssueCommentItem::customSetup(cocos2d::CCNode*)::{lambda(geode::Task<geode::utils::web::WebResponse, geode::utils::web::WebProgress>::Event*)#2}>, void (geode::Task<geode::utils::web::WebResponse, geode::utils::web::WebProgress>::Event*)>::~__func()
PUBLIC 48920 0 std::__ndk1::__function::__func<IssueCommentItem::customSetup(cocos2d::CCNode*)::{lambda(geode::Task<geode::utils::web::WebResponse, geode::utils::web::WebProgress>::Event*)#2}, std::__ndk1::allocator<IssueCommentItem::customSetup(cocos2d::CCNode*)::{lambda(geode::Task<geode::utils::web::WebResponse, geode::utils::web::WebProgress>::Event*)#2}>, void (geode::Task<geode::utils::web::WebResponse, geode::utils::web::WebProgress>::Event*)>::~__func()
PUBLIC 48984 0 std::__ndk1::__function::__func<IssueCommentItem::customSetup(cocos2d::CCNode*)::{lambda(geode::Task<geode::utils::web::WebResponse, geode::utils::web::WebProgress>::Event*)#2}, std::__ndk1::allocator<IssueCommentItem::customSetup(cocos2d::CCNode*)::{lambda(geode::Task<geode::utils::web::WebResponse, geode::utils::web::WebProgress>::Event*)#2}>, void (geode::Task<geode::utils::web::WebResponse, geode::utils::web::WebProgress>::Event*)>::__clone() const
PUBLIC 48a6c 0 std::__ndk1::__function::__func<IssueCommentItem::customSetup(cocos2d::CCNode*)::{lambda(geode::Task<geode::utils::web::WebResponse, geode::utils::web::WebProgress>::Event*)#2}, std::__ndk1::allocator<IssueCommentItem::customSetup(cocos2d::CCNode*)::{lambda(geode::Task<geode::utils::web::WebResponse, geode::utils::web::WebProgress>::Event*)#2}>, void (geode::Task<geode::utils::web::WebResponse, geode::utils::web::WebProgress>::Event*)>::__clone(std::__ndk1::__function::__base<void (geode::Task<geode::utils::web::WebResponse, geode::utils::web::WebProgress>::Event*)>*) const
PUBLIC 48b38 0 std::__ndk1::__function::__func<IssueCommentItem::customSetup(cocos2d::CCNode*)::{lambda(geode::Task<geode::utils::web::WebResponse, geode::utils::web::WebProgress>::Event*)#2}, std::__ndk1::allocator<IssueCommentItem::customSetup(cocos2d::CCNode*)::{lambda(geode::Task<geode::utils::web::WebResponse, geode::utils::web::WebProgress>::Event*)#2}>, void (geode::Task<geode::utils::web::WebResponse, geode::utils::web::WebProgress>::Event*)>::destroy()
PUBLIC 48b7c 0 std::__ndk1::__function::__func<IssueCommentItem::customSetup(cocos2d::CCNode*)::{lambda(geode::Task<geode::utils::web::WebResponse, geode::utils::web::WebProgress>::Event*)#2}, std::__ndk1::allocator<IssueCommentItem::customSetup(cocos2d::CCNode*)::{lambda(geode::Task<geode::utils::web::WebResponse, geode::utils::web::WebProgress>::Event*)#2}>, void (geode::Task<geode::utils::web::WebResponse, geode::utils::web::WebProgress>::Event*)>::destroy_deallocate()
PUBLIC 48bd4 0 std::__ndk1::__function::__func<IssueCommentItem::customSetup(cocos2d::CCNode*)::{lambda(geode::Task<geode::utils::web::WebResponse, geode::utils::web::WebProgress>::Event*)#2}, std::__ndk1::allocator<IssueCommentItem::customSetup(cocos2d::CCNode*)::{lambda(geode::Task<geode::utils::web::WebResponse, geode::utils::web::WebProgress>::Event*)#2}>, void (geode::Task<geode::utils::web::WebResponse, geode::utils::web::WebProgress>::Event*)>::operator()(geode::Task<geode::utils::web::WebResponse, geode::utils::web::WebProgress>::Event*&&)
PUBLIC 48e10 0 std::__ndk1::__function::__func<IssueCommentItem::customSetup(cocos2d::CCNode*)::{lambda(geode::Task<geode::utils::web::WebResponse, geode::utils::web::WebProgress>::Event*)#2}, std::__ndk1::allocator<IssueCommentItem::customSetup(cocos2d::CCNode*)::{lambda(geode::Task<geode::utils::web::WebResponse, geode::utils::web::WebProgress>::Event*)#2}>, void (geode::Task<geode::utils::web::WebResponse, geode::utils::web::WebProgress>::Event*)>::target(std::type_info const&) const
PUBLIC 48e2c 0 std::__ndk1::__function::__func<IssueCommentItem::customSetup(cocos2d::CCNode*)::{lambda(geode::Task<geode::utils::web::WebResponse, geode::utils::web::WebProgress>::Event*)#2}, std::__ndk1::allocator<IssueCommentItem::customSetup(cocos2d::CCNode*)::{lambda(geode::Task<geode::utils::web::WebResponse, geode::utils::web::WebProgress>::Event*)#2}>, void (geode::Task<geode::utils::web::WebResponse, geode::utils::web::WebProgress>::Event*)>::target_type() const
PUBLIC 48e38 0 IssueCommentItem::deleteComment(cocos2d::CCObject*)::{lambda(std::__ndk1::basic_string<char, std::__ndk1::char_traits<char>, std::__ndk1::allocator<char> > const&)#1}::~{lambda(std::__ndk1::basic_string<char, std::__ndk1::char_traits<char>, std::__ndk1::allocator<char> > const&)#1}()
PUBLIC 48e54 0 IssueCommentItem::deleteComment(cocos2d::CCObject*)::{lambda(geode::Task<geode::utils::web::WebResponse, geode::utils::web::WebProgress>::Event*)#1}::~{lambda(geode::Task<geode::utils::web::WebResponse, geode::utils::web::WebProgress>::Event*)#1}()
PUBLIC 48e90 0 IssueCommentItem::deleteComment(cocos2d::CCObject*)::{lambda(std::__ndk1::basic_string<char, std::__ndk1::char_traits<char>, std::__ndk1::allocator<char> > const&)#2}::~{lambda(std::__ndk1::basic_string<char, std::__ndk1::char_traits<char>, std::__ndk1::allocator<char> > const&)#2}()
PUBLIC 48eac 0 geode::Ref<cocos2d::CCLayer>::~Ref()
PUBLIC 48ec8 0 std::__ndk1::__function::__func<IssueCommentItem::deleteComment(cocos2d::CCObject*)::{lambda(geode::Task<geode::utils::web::WebResponse, geode::utils::web::WebProgress>::Event*)#1}, std::__ndk1::allocator<IssueCommentItem::deleteComment(cocos2d::CCObject*)::{lambda(geode::Task<geode::utils::web::WebResponse, geode::utils::web::WebProgress>::Event*)#1}>, void (geode::Task<geode::utils::web::WebResponse, geode::utils::web::WebProgress>::Event*)>::~__func()
PUBLIC 48f10 0 std::__ndk1::__function::__func<IssueCommentItem::deleteComment(cocos2d::CCObject*)::{lambda(geode::Task<geode::utils::web::WebResponse, geode::utils::web::WebProgress>::Event*)#1}, std::__ndk1::allocator<IssueCommentItem::deleteComment(cocos2d::CCObject*)::{lambda(geode::Task<geode::utils::web::WebResponse, geode::utils::web::WebProgress>::Event*)#1}>, void (geode::Task<geode::utils::web::WebResponse, geode::utils::web::WebProgress>::Event*)>::~__func()
PUBLIC 48f5c 0 std::__ndk1::__function::__func<IssueCommentItem::deleteComment(cocos2d::CCObject*)::{lambda(geode::Task<geode::utils::web::WebResponse, geode::utils::web::WebProgress>::Event*)#1}, std::__ndk1::allocator<IssueCommentItem::deleteComment(cocos2d::CCObject*)::{lambda(geode::Task<geode::utils::web::WebResponse, geode::utils::web::WebProgress>::Event*)#1}>, void (geode::Task<geode::utils::web::WebResponse, geode::utils::web::WebProgress>::Event*)>::__clone() const
PUBLIC 48ff8 0 std::__ndk1::__function::__func<IssueCommentItem::deleteComment(cocos2d::CCObject*)::{lambda(geode::Task<geode::utils::web::WebResponse, geode::utils::web::WebProgress>::Event*)#1}, std::__ndk1::allocator<IssueCommentItem::deleteComment(cocos2d::CCObject*)::{lambda(geode::Task<geode::utils::web::WebResponse, geode::utils::web::WebProgress>::Event*)#1}>, void (geode::Task<geode::utils::web::WebResponse, geode::utils::web::WebProgress>::Event*)>::__clone(std::__ndk1::__function::__base<void (geode::Task<geode::utils::web::WebResponse, geode::utils::web::WebProgress>::Event*)>*) const
PUBLIC 49064 0 std::__ndk1::__function::__func<IssueCommentItem::deleteComment(cocos2d::CCObject*)::{lambda(geode::Task<geode::utils::web::WebResponse, geode::utils::web::WebProgress>::Event*)#1}, std::__ndk1::allocator<IssueCommentItem::deleteComment(cocos2d::CCObject*)::{lambda(geode::Task<geode::utils::web::WebResponse, geode::utils::web::WebProgress>::Event*)#1}>, void (geode::Task<geode::utils::web::WebResponse, geode::utils::web::WebProgress>::Event*)>::destroy()
PUBLIC 490a0 0 std::__ndk1::__function::__func<IssueCommentItem::deleteComment(cocos2d::CCObject*)::{lambda(geode::Task<geode::utils::web::WebResponse, geode::utils::web::WebProgress>::Event*)#1}, std::__ndk1::allocator<IssueCommentItem::deleteComment(cocos2d::CCObject*)::{lambda(geode::Task<geode::utils::web::WebResponse, geode::utils::web::WebProgress>::Event*)#1}>, void (geode::Task<geode::utils::web::WebResponse, geode::utils::web::WebProgress>::Event*)>::destroy_deallocate()
PUBLIC 490e0 0 std::__ndk1::__function::__func<IssueCommentItem::deleteComment(cocos2d::CCObject*)::{lambda(geode::Task<geode::utils::web::WebResponse, geode::utils::web::WebProgress>::Event*)#1}, std::__ndk1::allocator<IssueCommentItem::deleteComment(cocos2d::CCObject*)::{lambda(geode::Task<geode::utils::web::WebResponse, geode::utils::web::WebProgress>::Event*)#1}>, void (geode::Task<geode::utils::web::WebResponse, geode::utils::web::WebProgress>::Event*)>::operator()(geode::Task<geode::utils::web::WebResponse, geode::utils::web::WebProgress>::Event*&&)
PUBLIC 497e8 0 std::__ndk1::__function::__func<IssueCommentItem::deleteComment(cocos2d::CCObject*)::{lambda(geode::Task<geode::utils::web::WebResponse, geode::utils::web::WebProgress>::Event*)#1}, std::__ndk1::allocator<IssueCommentItem::deleteComment(cocos2d::CCObject*)::{lambda(geode::Task<geode::utils::web::WebResponse, geode::utils::web::WebProgress>::Event*)#1}>, void (geode::Task<geode::utils::web::WebResponse, geode::utils::web::WebProgress>::Event*)>::target(std::type_info const&) const
PUBLIC 49804 0 std::__ndk1::__function::__func<IssueCommentItem::deleteComment(cocos2d::CCObject*)::{lambda(geode::Task<geode::utils::web::WebResponse, geode::utils::web::WebProgress>::Event*)#1}, std::__ndk1::allocator<IssueCommentItem::deleteComment(cocos2d::CCObject*)::{lambda(geode::Task<geode::utils::web::WebResponse, geode::utils::web::WebProgress>::Event*)#1}>, void (geode::Task<geode::utils::web::WebResponse, geode::utils::web::WebProgress>::Event*)>::target_type() const
PUBLIC 49810 0 geode::cocos::CCMenuItemExt::LambdaCallback<CCMenuItemToggler>::execute(cocos2d::CCNode*)
PUBLIC 49880 0 geode::cocos::CCMenuItemExt::LambdaCallback<CCMenuItemToggler>::~LambdaCallback()
PUBLIC 498dc 0 geode::cocos::CCMenuItemExt::LambdaCallback<CCMenuItemToggler>::~LambdaCallback()
PUBLIC 49940 0 std::__ndk1::__function::__func<IssueCommentItem::customSetup(cocos2d::CCNode*)::{lambda(CCMenuItemToggler*)#1}, std::__ndk1::allocator<IssueCommentItem::customSetup(cocos2d::CCNode*)::{lambda(CCMenuItemToggler*)#1}>, void (CCMenuItemToggler*)>::~__func()
PUBLIC 49970 0 std::__ndk1::__function::__func<IssueCommentItem::customSetup(cocos2d::CCNode*)::{lambda(CCMenuItemToggler*)#1}, std::__ndk1::allocator<IssueCommentItem::customSetup(cocos2d::CCNode*)::{lambda(CCMenuItemToggler*)#1}>, void (CCMenuItemToggler*)>::~__func()
PUBLIC 499ac 0 std::__ndk1::__function::__func<IssueCommentItem::customSetup(cocos2d::CCNode*)::{lambda(CCMenuItemToggler*)#1}, std::__ndk1::allocator<IssueCommentItem::customSetup(cocos2d::CCNode*)::{lambda(CCMenuItemToggler*)#1}>, void (CCMenuItemToggler*)>::__clone() const
PUBLIC 49a10 0 std::__ndk1::__function::__func<IssueCommentItem::customSetup(cocos2d::CCNode*)::{lambda(CCMenuItemToggler*)#1}, std::__ndk1::allocator<IssueCommentItem::customSetup(cocos2d::CCNode*)::{lambda(CCMenuItemToggler*)#1}>, void (CCMenuItemToggler*)>::__clone(std::__ndk1::__function::__base<void (CCMenuItemToggler*)>*) const
PUBLIC 49a54 0 std::__ndk1::__function::__func<IssueCommentItem::customSetup(cocos2d::CCNode*)::{lambda(CCMenuItemToggler*)#1}, std::__ndk1::allocator<IssueCommentItem::customSetup(cocos2d::CCNode*)::{lambda(CCMenuItemToggler*)#1}>, void (CCMenuItemToggler*)>::destroy()
PUBLIC 49a74 0 std::__ndk1::__function::__func<IssueCommentItem::customSetup(cocos2d::CCNode*)::{lambda(CCMenuItemToggler*)#1}, std::__ndk1::allocator<IssueCommentItem::customSetup(cocos2d::CCNode*)::{lambda(CCMenuItemToggler*)#1}>, void (CCMenuItemToggler*)>::destroy_deallocate()
PUBLIC 49aa4 0 std::__ndk1::__function::__func<IssueCommentItem::customSetup(cocos2d::CCNode*)::{lambda(CCMenuItemToggler*)#1}, std::__ndk1::allocator<IssueCommentItem::customSetup(cocos2d::CCNode*)::{lambda(CCMenuItemToggler*)#1}>, void (CCMenuItemToggler*)>::operator()(CCMenuItemToggler*&&)
PUBLIC 4a510 0 std::__ndk1::__function::__func<IssueCommentItem::customSetup(cocos2d::CCNode*)::{lambda(CCMenuItemToggler*)#1}, std::__ndk1::allocator<IssueCommentItem::customSetup(cocos2d::CCNode*)::{lambda(CCMenuItemToggler*)#1}>, void (CCMenuItemToggler*)>::target(std::type_info const&) const
PUBLIC 4a52c 0 std::__ndk1::__function::__func<IssueCommentItem::customSetup(cocos2d::CCNode*)::{lambda(CCMenuItemToggler*)#1}, std::__ndk1::allocator<IssueCommentItem::customSetup(cocos2d::CCNode*)::{lambda(CCMenuItemToggler*)#1}>, void (CCMenuItemToggler*)>::target_type() const
PUBLIC 4a538 0 IssueCommentItem::customSetup(cocos2d::CCNode*)::{lambda(CCMenuItemToggler*)#1}::operator()(CCMenuItemToggler*) const::{lambda(std::__ndk1::basic_string<char, std::__ndk1::char_traits<char>, std::__ndk1::allocator<char> >())#1}::~{lambda(std::__ndk1::basic_string<char, std::__ndk1::char_traits<char>, std::__ndk1::allocator<char> >)#1}
PUBLIC 4a554 0 IssueCommentItem::customSetup(cocos2d::CCNode*)::{lambda(CCMenuItemToggler*)#1}::operator()(CCMenuItemToggler*) const::{lambda(geode::Task<geode::utils::web::WebResponse, geode::utils::web::WebProgress>::Event*)#1}::~{lambda(geode::Task<geode::utils::web::WebResponse, geode::utils::web::WebProgress>::Event*)#1}()
PUBLIC 4a570 0 std::__ndk1::__function::__func<IssueCommentItem::customSetup(cocos2d::CCNode*)::{lambda(CCMenuItemToggler*)#1}::operator()(CCMenuItemToggler*) const::{lambda(std::__ndk1::basic_string<char, std::__ndk1::char_traits<char>, std::__ndk1::allocator<char> >)#1}, std::__ndk1::allocator<IssueCommentItem::customSetup(cocos2d::CCNode*)::{lambda(CCMenuItemToggler*)#1}::operator()(CCMenuItemToggler*) const::{lambda(std::__ndk1::basic_string<char, std::__ndk1::char_traits<char>, std::__ndk1::allocator<char> >)#1}>, void (std::__ndk1::basic_string<char, std::__ndk1::char_traits<char>, std::__ndk1::allocator<char> > const&)>::~__func()
PUBLIC 4a5a0 0 std::__ndk1::__function::__func<IssueCommentItem::customSetup(cocos2d::CCNode*)::{lambda(CCMenuItemToggler*)#1}::operator()(CCMenuItemToggler*) const::{lambda(std::__ndk1::basic_string<char, std::__ndk1::char_traits<char>, std::__ndk1::allocator<char> >)#1}, std::__ndk1::allocator<IssueCommentItem::customSetup(cocos2d::CCNode*)::{lambda(CCMenuItemToggler*)#1}::operator()(CCMenuItemToggler*) const::{lambda(std::__ndk1::basic_string<char, std::__ndk1::char_traits<char>, std::__ndk1::allocator<char> >)#1}>, void (std::__ndk1::basic_string<char, std::__ndk1::char_traits<char>, std::__ndk1::allocator<char> > const&)>::~__func()
PUBLIC 4a5dc 0 std::__ndk1::__function::__func<IssueCommentItem::customSetup(cocos2d::CCNode*)::{lambda(CCMenuItemToggler*)#1}::operator()(CCMenuItemToggler*) const::{lambda(std::__ndk1::basic_string<char, std::__ndk1::char_traits<char>, std::__ndk1::allocator<char> >)#1}, std::__ndk1::allocator<IssueCommentItem::customSetup(cocos2d::CCNode*)::{lambda(CCMenuItemToggler*)#1}::operator()(CCMenuItemToggler*) const::{lambda(std::__ndk1::basic_string<char, std::__ndk1::char_traits<char>, std::__ndk1::allocator<char> >)#1}>, void (std::__ndk1::basic_string<char, std::__ndk1::char_traits<char>, std::__ndk1::allocator<char> > const&)>::__clone() const
PUBLIC 4a63c 0 std::__ndk1::__function::__func<IssueCommentItem::customSetup(cocos2d::CCNode*)::{lambda(CCMenuItemToggler*)#1}::operator()(CCMenuItemToggler*) const::{lambda(std::__ndk1::basic_string<char, std::__ndk1::char_traits<char>, std::__ndk1::allocator<char> >)#1}, std::__ndk1::allocator<IssueCommentItem::customSetup(cocos2d::CCNode*)::{lambda(CCMenuItemToggler*)#1}::operator()(CCMenuItemToggler*) const::{lambda(std::__ndk1::basic_string<char, std::__ndk1::char_traits<char>, std::__ndk1::allocator<char> >)#1}>, void (std::__ndk1::basic_string<char, std::__ndk1::char_traits<char>, std::__ndk1::allocator<char> > const&)>::__clone(std::__ndk1::__function::__base<void (std::__ndk1::basic_string<char, std::__ndk1::char_traits<char>, std::__ndk1::allocator<char> > const&)>*) const
PUBLIC 4a67c 0 std::__ndk1::__function::__func<IssueCommentItem::customSetup(cocos2d::CCNode*)::{lambda(CCMenuItemToggler*)#1}::operator()(CCMenuItemToggler*) const::{lambda(std::__ndk1::basic_string<char, std::__ndk1::char_traits<char>, std::__ndk1::allocator<char> >)#1}, std::__ndk1::allocator<IssueCommentItem::customSetup(cocos2d::CCNode*)::{lambda(CCMenuItemToggler*)#1}::operator()(CCMenuItemToggler*) const::{lambda(std::__ndk1::basic_string<char, std::__ndk1::char_traits<char>, std::__ndk1::allocator<char> >)#1}>, void (std::__ndk1::basic_string<char, std::__ndk1::char_traits<char>, std::__ndk1::allocator<char> > const&)>::destroy()
PUBLIC 4a69c 0 std::__ndk1::__function::__func<IssueCommentItem::customSetup(cocos2d::CCNode*)::{lambda(CCMenuItemToggler*)#1}::operator()(CCMenuItemToggler*) const::{lambda(std::__ndk1::basic_string<char, std::__ndk1::char_traits<char>, std::__ndk1::allocator<char> >)#1}, std::__ndk1::allocator<IssueCommentItem::customSetup(cocos2d::CCNode*)::{lambda(CCMenuItemToggler*)#1}::operator()(CCMenuItemToggler*) const::{lambda(std::__ndk1::basic_string<char, std::__ndk1::char_traits<char>, std::__ndk1::allocator<char> >)#1}>, void (std::__ndk1::basic_string<char, std::__ndk1::char_traits<char>, std::__ndk1::allocator<char> > const&)>::destroy_deallocate()
PUBLIC 4a6cc 0 std::__ndk1::__function::__func<IssueCommentItem::customSetup(cocos2d::CCNode*)::{lambda(CCMenuItemToggler*)#1}::operator()(CCMenuItemToggler*) const::{lambda(std::__ndk1::basic_string<char, std::__ndk1::char_traits<char>, std::__ndk1::allocator<char> >)#1}, std::__ndk1::allocator<IssueCommentItem::customSetup(cocos2d::CCNode*)::{lambda(CCMenuItemToggler*)#1}::operator()(CCMenuItemToggler*) const::{lambda(std::__ndk1::basic_string<char, std::__ndk1::char_traits<char>, std::__ndk1::allocator<char> >)#1}>, void (std::__ndk1::basic_string<char, std::__ndk1::char_traits<char>, std::__ndk1::allocator<char> > const&)>::operator()(std::__ndk1::basic_string<char, std::__ndk1::char_traits<char>, std::__ndk1::allocator<char> > const&)
PUBLIC 4aa3c 0 std::__ndk1::__function::__func<IssueCommentItem::customSetup(cocos2d::CCNode*)::{lambda(CCMenuItemToggler*)#1}::operator()(CCMenuItemToggler*) const::{lambda(std::__ndk1::basic_string<char, std::__ndk1::char_traits<char>, std::__ndk1::allocator<char> >)#1}, std::__ndk1::allocator<IssueCommentItem::customSetup(cocos2d::CCNode*)::{lambda(CCMenuItemToggler*)#1}::operator()(CCMenuItemToggler*) const::{lambda(std::__ndk1::basic_string<char, std::__ndk1::char_traits<char>, std::__ndk1::allocator<char> >)#1}>, void (std::__ndk1::basic_string<char, std::__ndk1::char_traits<char>, std::__ndk1::allocator<char> > const&)>::target(std::type_info const&) const
PUBLIC 4aa58 0 std::__ndk1::__function::__func<IssueCommentItem::customSetup(cocos2d::CCNode*)::{lambda(CCMenuItemToggler*)#1}::operator()(CCMenuItemToggler*) const::{lambda(std::__ndk1::basic_string<char, std::__ndk1::char_traits<char>, std::__ndk1::allocator<char> >)#1}, std::__ndk1::allocator<IssueCommentItem::customSetup(cocos2d::CCNode*)::{lambda(CCMenuItemToggler*)#1}::operator()(CCMenuItemToggler*) const::{lambda(std::__ndk1::basic_string<char, std::__ndk1::char_traits<char>, std::__ndk1::allocator<char> >)#1}>, void (std::__ndk1::basic_string<char, std::__ndk1::char_traits<char>, std::__ndk1::allocator<char> > const&)>::target_type() const
PUBLIC 4aa64 0 geode::cocos::LambdaNode::exec(float)
PUBLIC 4ab00 0 geode::cocos::LambdaNode::~LambdaNode()
PUBLIC 4ab6c 0 geode::cocos::LambdaNode::~LambdaNode()
PUBLIC 4abe0 0 cocos2d::CCSprite::setBlendFunc(cocos2d::_ccBlendFunc)
PUBLIC 4abec 0 cocos2d::CCSprite::getBlendFunc()
PUBLIC 4abf8 0 cocos2d::CCSprite::isDirty()
PUBLIC 4ac00 0 cocos2d::CCSprite::setDirty(bool)
PUBLIC 4ac08 0 {virtual override thunk({offset(-344)}, cocos2d::CCSprite::setBlendFunc(cocos2d::_ccBlendFunc))}
PUBLIC 4ac10 0 {virtual override thunk({offset(-344)}, cocos2d::CCSprite::getBlendFunc())}
PUBLIC 4ac18 0 std::__ndk1::__function::__base<void ()>::~__base()
PUBLIC 4ac1c 0 std::__ndk1::__function::__func<IssueCommentItem::customSetup(cocos2d::CCNode*)::{lambda(CCMenuItemToggler*)#1}::operator()(CCMenuItemToggler*) const::{lambda()#1}, std::__ndk1::allocator<IssueCommentItem::customSetup(cocos2d::CCNode*)::{lambda(CCMenuItemToggler*)#1}::operator()(CCMenuItemToggler*) const::{lambda()#1}>, void ()>::~__func()
PUBLIC 4ac20 0 std::__ndk1::__function::__func<IssueCommentItem::customSetup(cocos2d::CCNode*)::{lambda(CCMenuItemToggler*)#1}::operator()(CCMenuItemToggler*) const::{lambda()#1}, std::__ndk1::allocator<IssueCommentItem::customSetup(cocos2d::CCNode*)::{lambda(CCMenuItemToggler*)#1}::operator()(CCMenuItemToggler*) const::{lambda()#1}>, void ()>::__clone() const
PUBLIC 4ac58 0 std::__ndk1::__function::__func<IssueCommentItem::customSetup(cocos2d::CCNode*)::{lambda(CCMenuItemToggler*)#1}::operator()(CCMenuItemToggler*) const::{lambda()#1}, std::__ndk1::allocator<IssueCommentItem::customSetup(cocos2d::CCNode*)::{lambda(CCMenuItemToggler*)#1}::operator()(CCMenuItemToggler*) const::{lambda()#1}>, void ()>::__clone(std::__ndk1::__function::__base<void ()>*) const
PUBLIC 4ac70 0 std::__ndk1::__function::__func<IssueCommentItem::customSetup(cocos2d::CCNode*)::{lambda(CCMenuItemToggler*)#1}::operator()(CCMenuItemToggler*) const::{lambda()#1}, std::__ndk1::allocator<IssueCommentItem::customSetup(cocos2d::CCNode*)::{lambda(CCMenuItemToggler*)#1}::operator()(CCMenuItemToggler*) const::{lambda()#1}>, void ()>::destroy()
PUBLIC 4ac74 0 std::__ndk1::__function::__func<IssueCommentItem::customSetup(cocos2d::CCNode*)::{lambda(CCMenuItemToggler*)#1}::operator()(CCMenuItemToggler*) const::{lambda()#1}, std::__ndk1::allocator<IssueCommentItem::customSetup(cocos2d::CCNode*)::{lambda(CCMenuItemToggler*)#1}::operator()(CCMenuItemToggler*) const::{lambda()#1}>, void ()>::destroy_deallocate()
PUBLIC 4ac78 0 std::__ndk1::__function::__func<IssueCommentItem::customSetup(cocos2d::CCNode*)::{lambda(CCMenuItemToggler*)#1}::operator()(CCMenuItemToggler*) const::{lambda()#1}, std::__ndk1::allocator<IssueCommentItem::customSetup(cocos2d::CCNode*)::{lambda(CCMenuItemToggler*)#1}::operator()(CCMenuItemToggler*) const::{lambda()#1}>, void ()>::operator()()
PUBLIC 4accc 0 std::__ndk1::__function::__func<IssueCommentItem::customSetup(cocos2d::CCNode*)::{lambda(CCMenuItemToggler*)#1}::operator()(CCMenuItemToggler*) const::{lambda()#1}, std::__ndk1::allocator<IssueCommentItem::customSetup(cocos2d::CCNode*)::{lambda(CCMenuItemToggler*)#1}::operator()(CCMenuItemToggler*) const::{lambda()#1}>, void ()>::target(std::type_info const&) const
PUBLIC 4ace8 0 std::__ndk1::__function::__func<IssueCommentItem::customSetup(cocos2d::CCNode*)::{lambda(CCMenuItemToggler*)#1}::operator()(CCMenuItemToggler*) const::{lambda()#1}, std::__ndk1::allocator<IssueCommentItem::customSetup(cocos2d::CCNode*)::{lambda(CCMenuItemToggler*)#1}::operator()(CCMenuItemToggler*) const::{lambda()#1}>, void ()>::target_type() const
PUBLIC 4acf4 0 std::__ndk1::__function::__func<IssueCommentItem::customSetup(cocos2d::CCNode*)::{lambda(CCMenuItemToggler*)#1}::operator()(CCMenuItemToggler*) const::{lambda(geode::Task<geode::utils::web::WebResponse, geode::utils::web::WebProgress>::Event*)#1}, std::__ndk1::allocator<IssueCommentItem::customSetup(cocos2d::CCNode*)::{lambda(CCMenuItemToggler*)#1}::operator()(CCMenuItemToggler*) const::{lambda(geode::Task<geode::utils::web::WebResponse, geode::utils::web::WebProgress>::Event*)#1}>, void (geode::Task<geode::utils::web::WebResponse, geode::utils::web::WebProgress>::Event*)>::~__func()
PUBLIC 4ad24 0 std::__ndk1::__function::__func<IssueCommentItem::customSetup(cocos2d::CCNode*)::{lambda(CCMenuItemToggler*)#1}::operator()(CCMenuItemToggler*) const::{lambda(geode::Task<geode::utils::web::WebResponse, geode::utils::web::WebProgress>::Event*)#1}, std::__ndk1::allocator<IssueCommentItem::customSetup(cocos2d::CCNode*)::{lambda(CCMenuItemToggler*)#1}::operator()(CCMenuItemToggler*) const::{lambda(geode::Task<geode::utils::web::WebResponse, geode::utils::web::WebProgress>::Event*)#1}>, void (geode::Task<geode::utils::web::WebResponse, geode::utils::web::WebProgress>::Event*)>::~__func()
PUBLIC 4ad60 0 std::__ndk1::__function::__func<IssueCommentItem::customSetup(cocos2d::CCNode*)::{lambda(CCMenuItemToggler*)#1}::operator()(CCMenuItemToggler*) const::{lambda(geode::Task<geode::utils::web::WebResponse, geode::utils::web::WebProgress>::Event*)#1}, std::__ndk1::allocator<IssueCommentItem::customSetup(cocos2d::CCNode*)::{lambda(CCMenuItemToggler*)#1}::operator()(CCMenuItemToggler*) const::{lambda(geode::Task<geode::utils::web::WebResponse, geode::utils::web::WebProgress>::Event*)#1}>, void (geode::Task<geode::utils::web::WebResponse, geode::utils::web::WebProgress>::Event*)>::__clone() const
PUBLIC 4adc4 0 std::__ndk1::__function::__func<IssueCommentItem::customSetup(cocos2d::CCNode*)::{lambda(CCMenuItemToggler*)#1}::operator()(CCMenuItemToggler*) const::{lambda(geode::Task<geode::utils::web::WebResponse, geode::utils::web::WebProgress>::Event*)#1}, std::__ndk1::allocator<IssueCommentItem::customSetup(cocos2d::CCNode*)::{lambda(CCMenuItemToggler*)#1}::operator()(CCMenuItemToggler*) const::{lambda(geode::Task<geode::utils::web::WebResponse, geode::utils::web::WebProgress>::Event*)#1}>, void (geode::Task<geode::utils::web::WebResponse, geode::utils::web::WebProgress>::Event*)>::__clone(std::__ndk1::__function::__base<void (geode::Task<geode::utils::web::WebResponse, geode::utils::web::WebProgress>::Event*)>*) const
PUBLIC 4ae08 0 std::__ndk1::__function::__func<IssueCommentItem::customSetup(cocos2d::CCNode*)::{lambda(CCMenuItemToggler*)#1}::operator()(CCMenuItemToggler*) const::{lambda(geode::Task<geode::utils::web::WebResponse, geode::utils::web::WebProgress>::Event*)#1}, std::__ndk1::allocator<IssueCommentItem::customSetup(cocos2d::CCNode*)::{lambda(CCMenuItemToggler*)#1}::operator()(CCMenuItemToggler*) const::{lambda(geode::Task<geode::utils::web::WebResponse, geode::utils::web::WebProgress>::Event*)#1}>, void (geode::Task<geode::utils::web::WebResponse, geode::utils::web::WebProgress>::Event*)>::destroy()
PUBLIC 4ae28 0 std::__ndk1::__function::__func<IssueCommentItem::customSetup(cocos2d::CCNode*)::{lambda(CCMenuItemToggler*)#1}::operator()(CCMenuItemToggler*) const::{lambda(geode::Task<geode::utils::web::WebResponse, geode::utils::web::WebProgress>::Event*)#1}, std::__ndk1::allocator<IssueCommentItem::customSetup(cocos2d::CCNode*)::{lambda(CCMenuItemToggler*)#1}::operator()(CCMenuItemToggler*) const::{lambda(geode::Task<geode::utils::web::WebResponse, geode::utils::web::WebProgress>::Event*)#1}>, void (geode::Task<geode::utils::web::WebResponse, geode::utils::web::WebProgress>::Event*)>::destroy_deallocate()
PUBLIC 4ae58 0 std::__ndk1::__function::__func<IssueCommentItem::customSetup(cocos2d::CCNode*)::{lambda(CCMenuItemToggler*)#1}::operator()(CCMenuItemToggler*) const::{lambda(geode::Task<geode::utils::web::WebResponse, geode::utils::web::WebProgress>::Event*)#1}, std::__ndk1::allocator<IssueCommentItem::customSetup(cocos2d::CCNode*)::{lambda(CCMenuItemToggler*)#1}::operator()(CCMenuItemToggler*) const::{lambda(geode::Task<geode::utils::web::WebResponse, geode::utils::web::WebProgress>::Event*)#1}>, void (geode::Task<geode::utils::web::WebResponse, geode::utils::web::WebProgress>::Event*)>::operator()(geode::Task<geode::utils::web::WebResponse, geode::utils::web::WebProgress>::Event*&&)
PUBLIC 4b508 0 std::__ndk1::__function::__func<IssueCommentItem::customSetup(cocos2d::CCNode*)::{lambda(CCMenuItemToggler*)#1}::operator()(CCMenuItemToggler*) const::{lambda(geode::Task<geode::utils::web::WebResponse, geode::utils::web::WebProgress>::Event*)#1}, std::__ndk1::allocator<IssueCommentItem::customSetup(cocos2d::CCNode*)::{lambda(CCMenuItemToggler*)#1}::operator()(CCMenuItemToggler*) const::{lambda(geode::Task<geode::utils::web::WebResponse, geode::utils::web::WebProgress>::Event*)#1}>, void (geode::Task<geode::utils::web::WebResponse, geode::utils::web::WebProgress>::Event*)>::target(std::type_info const&) const
PUBLIC 4b524 0 std::__ndk1::__function::__func<IssueCommentItem::customSetup(cocos2d::CCNode*)::{lambda(CCMenuItemToggler*)#1}::operator()(CCMenuItemToggler*) const::{lambda(geode::Task<geode::utils::web::WebResponse, geode::utils::web::WebProgress>::Event*)#1}, std::__ndk1::allocator<IssueCommentItem::customSetup(cocos2d::CCNode*)::{lambda(CCMenuItemToggler*)#1}::operator()(CCMenuItemToggler*) const::{lambda(geode::Task<geode::utils::web::WebResponse, geode::utils::web::WebProgress>::Event*)#1}>, void (geode::Task<geode::utils::web::WebResponse, geode::utils::web::WebProgress>::Event*)>::target_type() const
PUBLIC 4b530 0 _ZN5geode15UnwrapExceptionC2IRNSt6__ndk112basic_stringIcNS2_11char_traitsIcEENS2_9allocatorIcEEEEQsr4implE18IsStringStreamableIT_EEENS_4impl5OkTagEOSA_
PUBLIC 4b698 0 std::__ndk1::__tree<std::__ndk1::__value_type<std::__ndk1::basic_string<char, std::__ndk1::char_traits<char>, std::__ndk1::allocator<char> >, int>, std::__ndk1::__map_value_compare<std::__ndk1::basic_string<char, std::__ndk1::char_traits<char>, std::__ndk1::allocator<char> >, std::__ndk1::__value_type<std::__ndk1::basic_string<char, std::__ndk1::char_traits<char>, std::__ndk1::allocator<char> >, int>, std::__ndk1::less<std::__ndk1::basic_string<char, std::__ndk1::char_traits<char>, std::__ndk1::allocator<char> > >, true>, std::__ndk1::allocator<std::__ndk1::__value_type<std::__ndk1::basic_string<char, std::__ndk1::char_traits<char>, std::__ndk1::allocator<char> >, int> > >::destroy(std::__ndk1::__tree_node<std::__ndk1::__value_type<std::__ndk1::basic_string<char, std::__ndk1::char_traits<char>, std::__ndk1::allocator<char> >, int>, void*>*)
PUBLIC 4b6e0 0 std::__ndk1::__function::__func<notifyLoadLoop()::$_0, std::__ndk1::allocator<notifyLoadLoop()::$_0>, void ()>::~__func()
PUBLIC 4b710 0 std::__ndk1::__function::__func<notifyLoadLoop()::$_0, std::__ndk1::allocator<notifyLoadLoop()::$_0>, void ()>::~__func()
PUBLIC 4b74c 0 std::__ndk1::__function::__func<notifyLoadLoop()::$_0, std::__ndk1::allocator<notifyLoadLoop()::$_0>, void ()>::__clone() const
PUBLIC 4b7a4 0 std::__ndk1::__function::__func<notifyLoadLoop()::$_0, std::__ndk1::allocator<notifyLoadLoop()::$_0>, void ()>::__clone(std::__ndk1::__function::__base<void ()>*) const
PUBLIC 4b7c0 0 std::__ndk1::__function::__func<notifyLoadLoop()::$_0, std::__ndk1::allocator<notifyLoadLoop()::$_0>, void ()>::destroy()
PUBLIC 4b7e0 0 std::__ndk1::__function::__func<notifyLoadLoop()::$_0, std::__ndk1::allocator<notifyLoadLoop()::$_0>, void ()>::destroy_deallocate()
PUBLIC 4b810 0 std::__ndk1::__function::__func<notifyLoadLoop()::$_0, std::__ndk1::allocator<notifyLoadLoop()::$_0>, void ()>::operator()()
PUBLIC 4bb90 0 std::__ndk1::__function::__func<notifyLoadLoop()::$_0, std::__ndk1::allocator<notifyLoadLoop()::$_0>, void ()>::target(std::type_info const&) const
PUBLIC 4bbac 0 std::__ndk1::__function::__func<notifyLoadLoop()::$_0, std::__ndk1::allocator<notifyLoadLoop()::$_0>, void ()>::target_type() const
PUBLIC 4bbb8 0 std::__ndk1::__function::__func<notifyLoadLoop()::$_0::operator()() const::{lambda(geode::Task<geode::utils::web::WebResponse, geode::utils::web::WebProgress>::Event*)#1}, std::__ndk1::allocator<notifyLoadLoop()::$_0::operator()() const::{lambda(geode::Task<geode::utils::web::WebResponse, geode::utils::web::WebProgress>::Event*)#1}>, void (geode::Task<geode::utils::web::WebResponse, geode::utils::web::WebProgress>::Event*)>::~__func()
PUBLIC 4bbbc 0 std::__ndk1::__function::__func<notifyLoadLoop()::$_0::operator()() const::{lambda(geode::Task<geode::utils::web::WebResponse, geode::utils::web::WebProgress>::Event*)#1}, std::__ndk1::allocator<notifyLoadLoop()::$_0::operator()() const::{lambda(geode::Task<geode::utils::web::WebResponse, geode::utils::web::WebProgress>::Event*)#1}>, void (geode::Task<geode::utils::web::WebResponse, geode::utils::web::WebProgress>::Event*)>::__clone() const
PUBLIC 4bbe0 0 std::__ndk1::__function::__func<notifyLoadLoop()::$_0::operator()() const::{lambda(geode::Task<geode::utils::web::WebResponse, geode::utils::web::WebProgress>::Event*)#1}, std::__ndk1::allocator<notifyLoadLoop()::$_0::operator()() const::{lambda(geode::Task<geode::utils::web::WebResponse, geode::utils::web::WebProgress>::Event*)#1}>, void (geode::Task<geode::utils::web::WebResponse, geode::utils::web::WebProgress>::Event*)>::__clone(std::__ndk1::__function::__base<void (geode::Task<geode::utils::web::WebResponse, geode::utils::web::WebProgress>::Event*)>*) const
PUBLIC 4bbf0 0 std::__ndk1::__function::__func<notifyLoadLoop()::$_0::operator()() const::{lambda(geode::Task<geode::utils::web::WebResponse, geode::utils::web::WebProgress>::Event*)#1}, std::__ndk1::allocator<notifyLoadLoop()::$_0::operator()() const::{lambda(geode::Task<geode::utils::web::WebResponse, geode::utils::web::WebProgress>::Event*)#1}>, void (geode::Task<geode::utils::web::WebResponse, geode::utils::web::WebProgress>::Event*)>::destroy()
PUBLIC 4bbf4 0 std::__ndk1::__function::__func<notifyLoadLoop()::$_0::operator()() const::{lambda(geode::Task<geode::utils::web::WebResponse, geode::utils::web::WebProgress>::Event*)#1}, std::__ndk1::allocator<notifyLoadLoop()::$_0::operator()() const::{lambda(geode::Task<geode::utils::web::WebResponse, geode::utils::web::WebProgress>::Event*)#1}>, void (geode::Task<geode::utils::web::WebResponse, geode::utils::web::WebProgress>::Event*)>::destroy_deallocate()
PUBLIC 4bbf8 0 std::__ndk1::__function::__func<notifyLoadLoop()::$_0::operator()() const::{lambda(geode::Task<geode::utils::web::WebResponse, geode::utils::web::WebProgress>::Event*)#1}, std::__ndk1::allocator<notifyLoadLoop()::$_0::operator()() const::{lambda(geode::Task<geode::utils::web::WebResponse, geode::utils::web::WebProgress>::Event*)#1}>, void (geode::Task<geode::utils::web::WebResponse, geode::utils::web::WebProgress>::Event*)>::operator()(geode::Task<geode::utils::web::WebResponse, geode::utils::web::WebProgress>::Event*&&)
PUBLIC 4c40c 0 std::__ndk1::__function::__func<notifyLoadLoop()::$_0::operator()() const::{lambda(geode::Task<geode::utils::web::WebResponse, geode::utils::web::WebProgress>::Event*)#1}, std::__ndk1::allocator<notifyLoadLoop()::$_0::operator()() const::{lambda(geode::Task<geode::utils::web::WebResponse, geode::utils::web::WebProgress>::Event*)#1}>, void (geode::Task<geode::utils::web::WebResponse, geode::utils::web::WebProgress>::Event*)>::target(std::type_info const&) const
PUBLIC 4c428 0 std::__ndk1::__function::__func<notifyLoadLoop()::$_0::operator()() const::{lambda(geode::Task<geode::utils::web::WebResponse, geode::utils::web::WebProgress>::Event*)#1}, std::__ndk1::allocator<notifyLoadLoop()::$_0::operator()() const::{lambda(geode::Task<geode::utils::web::WebResponse, geode::utils::web::WebProgress>::Event*)#1}>, void (geode::Task<geode::utils::web::WebResponse, geode::utils::web::WebProgress>::Event*)>::target_type() const
PUBLIC 4c434 0 geode::cocos::CCMenuItemExt::LambdaCallback<cocos2d::CCMenuItem>::execute(cocos2d::CCNode*)
PUBLIC 4c4a4 0 geode::cocos::CCMenuItemExt::LambdaCallback<cocos2d::CCMenuItem>::~LambdaCallback()
PUBLIC 4c500 0 geode::cocos::CCMenuItemExt::LambdaCallback<cocos2d::CCMenuItem>::~LambdaCallback()
PUBLIC 4c564 0 std::__ndk1::__function::__func<notifyLoadLoop()::$_0::operator()() const::{lambda(geode::Task<geode::utils::web::WebResponse, geode::utils::web::WebProgress>::Event*)#1}::operator()(geode::Task<geode::utils::web::WebResponse, geode::utils::web::WebProgress>::Event*) const::{lambda(auto:1)#1}, std::__ndk1::allocator<notifyLoadLoop()::$_0::operator()() const::{lambda(geode::Task<geode::utils::web::WebResponse, geode::utils::web::WebProgress>::Event*)#1}::operator()(geode::Task<geode::utils::web::WebResponse, geode::utils::web::WebProgress>::Event*) const::{lambda(auto:1)#1}>, void (cocos2d::CCMenuItem*)>::~__func()
PUBLIC 4c574 0 std::__ndk1::__function::__func<notifyLoadLoop()::$_0::operator()() const::{lambda(geode::Task<geode::utils::web::WebResponse, geode::utils::web::WebProgress>::Event*)#1}::operator()(geode::Task<geode::utils::web::WebResponse, geode::utils::web::WebProgress>::Event*) const::{lambda(auto:1)#1}, std::__ndk1::allocator<notifyLoadLoop()::$_0::operator()() const::{lambda(geode::Task<geode::utils::web::WebResponse, geode::utils::web::WebProgress>::Event*)#1}::operator()(geode::Task<geode::utils::web::WebResponse, geode::utils::web::WebProgress>::Event*) const::{lambda(auto:1)#1}>, void (cocos2d::CCMenuItem*)>::~__func()
PUBLIC 4c5a4 0 std::__ndk1::__function::__func<notifyLoadLoop()::$_0::operator()() const::{lambda(geode::Task<geode::utils::web::WebResponse, geode::utils::web::WebProgress>::Event*)#1}::operator()(geode::Task<geode::utils::web::WebResponse, geode::utils::web::WebProgress>::Event*) const::{lambda(auto:1)#1}, std::__ndk1::allocator<notifyLoadLoop()::$_0::operator()() const::{lambda(geode::Task<geode::utils::web::WebResponse, geode::utils::web::WebProgress>::Event*)#1}::operator()(geode::Task<geode::utils::web::WebResponse, geode::utils::web::WebProgress>::Event*) const::{lambda(auto:1)#1}>, void (cocos2d::CCMenuItem*)>::__clone() const
PUBLIC 4c5f8 0 std::__ndk1::__function::__func<notifyLoadLoop()::$_0::operator()() const::{lambda(geode::Task<geode::utils::web::WebResponse, geode::utils::web::WebProgress>::Event*)#1}::operator()(geode::Task<geode::utils::web::WebResponse, geode::utils::web::WebProgress>::Event*) const::{lambda(auto:1)#1}, std::__ndk1::allocator<notifyLoadLoop()::$_0::operator()() const::{lambda(geode::Task<geode::utils::web::WebResponse, geode::utils::web::WebProgress>::Event*)#1}::operator()(geode::Task<geode::utils::web::WebResponse, geode::utils::web::WebProgress>::Event*) const::{lambda(auto:1)#1}>, void (cocos2d::CCMenuItem*)>::__clone(std::__ndk1::__function::__base<void (cocos2d::CCMenuItem*)>*) const
PUBLIC 4c614 0 std::__ndk1::__function::__func<notifyLoadLoop()::$_0::operator()() const::{lambda(geode::Task<geode::utils::web::WebResponse, geode::utils::web::WebProgress>::Event*)#1}::operator()(geode::Task<geode::utils::web::WebResponse, geode::utils::web::WebProgress>::Event*) const::{lambda(auto:1)#1}, std::__ndk1::allocator<notifyLoadLoop()::$_0::operator()() const::{lambda(geode::Task<geode::utils::web::WebResponse, geode::utils::web::WebProgress>::Event*)#1}::operator()(geode::Task<geode::utils::web::WebResponse, geode::utils::web::WebProgress>::Event*) const::{lambda(auto:1)#1}>, void (cocos2d::CCMenuItem*)>::destroy()
PUBLIC 4c61c 0 std::__ndk1::__function::__func<notifyLoadLoop()::$_0::operator()() const::{lambda(geode::Task<geode::utils::web::WebResponse, geode::utils::web::WebProgress>::Event*)#1}::operator()(geode::Task<geode::utils::web::WebResponse, geode::utils::web::WebProgress>::Event*) const::{lambda(auto:1)#1}, std::__ndk1::allocator<notifyLoadLoop()::$_0::operator()() const::{lambda(geode::Task<geode::utils::web::WebResponse, geode::utils::web::WebProgress>::Event*)#1}::operator()(geode::Task<geode::utils::web::WebResponse, geode::utils::web::WebProgress>::Event*) const::{lambda(auto:1)#1}>, void (cocos2d::CCMenuItem*)>::destroy_deallocate()
PUBLIC 4c644 0 std::__ndk1::__function::__func<notifyLoadLoop()::$_0::operator()() const::{lambda(geode::Task<geode::utils::web::WebResponse, geode::utils::web::WebProgress>::Event*)#1}::operator()(geode::Task<geode::utils::web::WebResponse, geode::utils::web::WebProgress>::Event*) const::{lambda(auto:1)#1}, std::__ndk1::allocator<notifyLoadLoop()::$_0::operator()() const::{lambda(geode::Task<geode::utils::web::WebResponse, geode::utils::web::WebProgress>::Event*)#1}::operator()(geode::Task<geode::utils::web::WebResponse, geode::utils::web::WebProgress>::Event*) const::{lambda(auto:1)#1}>, void (cocos2d::CCMenuItem*)>::operator()(cocos2d::CCMenuItem*&&)
PUBLIC 4cd0c 0 std::__ndk1::__function::__func<notifyLoadLoop()::$_0::operator()() const::{lambda(geode::Task<geode::utils::web::WebResponse, geode::utils::web::WebProgress>::Event*)#1}::operator()(geode::Task<geode::utils::web::WebResponse, geode::utils::web::WebProgress>::Event*) const::{lambda(auto:1)#1}, std::__ndk1::allocator<notifyLoadLoop()::$_0::operator()() const::{lambda(geode::Task<geode::utils::web::WebResponse, geode::utils::web::WebProgress>::Event*)#1}::operator()(geode::Task<geode::utils::web::WebResponse, geode::utils::web::WebProgress>::Event*) const::{lambda(auto:1)#1}>, void (cocos2d::CCMenuItem*)>::target(std::type_info const&) const
PUBLIC 4cd28 0 std::__ndk1::__function::__func<notifyLoadLoop()::$_0::operator()() const::{lambda(geode::Task<geode::utils::web::WebResponse, geode::utils::web::WebProgress>::Event*)#1}::operator()(geode::Task<geode::utils::web::WebResponse, geode::utils::web::WebProgress>::Event*) const::{lambda(auto:1)#1}, std::__ndk1::allocator<notifyLoadLoop()::$_0::operator()() const::{lambda(geode::Task<geode::utils::web::WebResponse, geode::utils::web::WebProgress>::Event*)#1}::operator()(geode::Task<geode::utils::web::WebResponse, geode::utils::web::WebProgress>::Event*) const::{lambda(auto:1)#1}>, void (cocos2d::CCMenuItem*)>::target_type() const
PUBLIC 4cd34 0 std::__ndk1::unique_ptr<std::__ndk1::__tree_node<std::__ndk1::__value_type<std::__ndk1::basic_string<char, std::__ndk1::char_traits<char>, std::__ndk1::allocator<char> >, int>, void*>, std::__ndk1::__tree_node_destructor<std::__ndk1::allocator<std::__ndk1::__tree_node<std::__ndk1::__value_type<std::__ndk1::basic_string<char, std::__ndk1::char_traits<char>, std::__ndk1::allocator<char> >, int>, void*> > > >::~unique_ptr[abi:ne180000]()
PUBLIC 4cd84 0 std::__ndk1::__function::__base<void (bool)>::~__base()
PUBLIC 4cd88 0 std::__ndk1::__function::__func<notifyLoadLoop()::$_0::operator()() const::{lambda(geode::Task<geode::utils::web::WebResponse, geode::utils::web::WebProgress>::Event*)#1}::operator()(geode::Task<geode::utils::web::WebResponse, geode::utils::web::WebProgress>::Event*) const::{lambda(auto:1)#1}::operator()<cocos2d::CCMenuItem*>(cocos2d::CCMenuItem*) const::{lambda(bool)#1}, std::__ndk1::allocator<notifyLoadLoop()::$_0::operator()() const::{lambda(geode::Task<geode::utils::web::WebResponse, geode::utils::web::WebProgress>::Event*)#1}::operator()(geode::Task<geode::utils::web::WebResponse, geode::utils::web::WebProgress>::Event*) const::{lambda(auto:1)#1}::operator()<cocos2d::CCMenuItem*>(cocos2d::CCMenuItem*) const::{lambda(bool)#1}>, void (bool)>::~__func()
PUBLIC 4cd8c 0 std::__ndk1::__function::__func<notifyLoadLoop()::$_0::operator()() const::{lambda(geode::Task<geode::utils::web::WebResponse, geode::utils::web::WebProgress>::Event*)#1}::operator()(geode::Task<geode::utils::web::WebResponse, geode::utils::web::WebProgress>::Event*) const::{lambda(auto:1)#1}::operator()<cocos2d::CCMenuItem*>(cocos2d::CCMenuItem*) const::{lambda(bool)#1}, std::__ndk1::allocator<notifyLoadLoop()::$_0::operator()() const::{lambda(geode::Task<geode::utils::web::WebResponse, geode::utils::web::WebProgress>::Event*)#1}::operator()(geode::Task<geode::utils::web::WebResponse, geode::utils::web::WebProgress>::Event*) const::{lambda(auto:1)#1}::operator()<cocos2d::CCMenuItem*>(cocos2d::CCMenuItem*) const::{lambda(bool)#1}>, void (bool)>::__clone() const
PUBLIC 4cdb0 0 std::__ndk1::__function::__func<notifyLoadLoop()::$_0::operator()() const::{lambda(geode::Task<geode::utils::web::WebResponse, geode::utils::web::WebProgress>::Event*)#1}::operator()(geode::Task<geode::utils::web::WebResponse, geode::utils::web::WebProgress>::Event*) const::{lambda(auto:1)#1}::operator()<cocos2d::CCMenuItem*>(cocos2d::CCMenuItem*) const::{lambda(bool)#1}, std::__ndk1::allocator<notifyLoadLoop()::$_0::operator()() const::{lambda(geode::Task<geode::utils::web::WebResponse, geode::utils::web::WebProgress>::Event*)#1}::operator()(geode::Task<geode::utils::web::WebResponse, geode::utils::web::WebProgress>::Event*) const::{lambda(auto:1)#1}::operator()<cocos2d::CCMenuItem*>(cocos2d::CCMenuItem*) const::{lambda(bool)#1}>, void (bool)>::__clone(std::__ndk1::__function::__base<void (bool)>*) const
PUBLIC 4cdc0 0 std::__ndk1::__function::__func<notifyLoadLoop()::$_0::operator()() const::{lambda(geode::Task<geode::utils::web::WebResponse, geode::utils::web::WebProgress>::Event*)#1}::operator()(geode::Task<geode::utils::web::WebResponse, geode::utils::web::WebProgress>::Event*) const::{lambda(auto:1)#1}::operator()<cocos2d::CCMenuItem*>(cocos2d::CCMenuItem*) const::{lambda(bool)#1}, std::__ndk1::allocator<notifyLoadLoop()::$_0::operator()() const::{lambda(geode::Task<geode::utils::web::WebResponse, geode::utils::web::WebProgress>::Event*)#1}::operator()(geode::Task<geode::utils::web::WebResponse, geode::utils::web::WebProgress>::Event*) const::{lambda(auto:1)#1}::operator()<cocos2d::CCMenuItem*>(cocos2d::CCMenuItem*) const::{lambda(bool)#1}>, void (bool)>::destroy()
PUBLIC 4cdc4 0 std::__ndk1::__function::__func<notifyLoadLoop()::$_0::operator()() const::{lambda(geode::Task<geode::utils::web::WebResponse, geode::utils::web::WebProgress>::Event*)#1}::operator()(geode::Task<geode::utils::web::WebResponse, geode::utils::web::WebProgress>::Event*) const::{lambda(auto:1)#1}::operator()<cocos2d::CCMenuItem*>(cocos2d::CCMenuItem*) const::{lambda(bool)#1}, std::__ndk1::allocator<notifyLoadLoop()::$_0::operator()() const::{lambda(geode::Task<geode::utils::web::WebResponse, geode::utils::web::WebProgress>::Event*)#1}::operator()(geode::Task<geode::utils::web::WebResponse, geode::utils::web::WebProgress>::Event*) const::{lambda(auto:1)#1}::operator()<cocos2d::CCMenuItem*>(cocos2d::CCMenuItem*) const::{lambda(bool)#1}>, void (bool)>::destroy_deallocate()
PUBLIC 4cdc8 0 std::__ndk1::__function::__func<notifyLoadLoop()::$_0::operator()() const::{lambda(geode::Task<geode::utils::web::WebResponse, geode::utils::web::WebProgress>::Event*)#1}::operator()(geode::Task<geode::utils::web::WebResponse, geode::utils::web::WebProgress>::Event*) const::{lambda(auto:1)#1}::operator()<cocos2d::CCMenuItem*>(cocos2d::CCMenuItem*) const::{lambda(bool)#1}, std::__ndk1::allocator<notifyLoadLoop()::$_0::operator()() const::{lambda(geode::Task<geode::utils::web::WebResponse, geode::utils::web::WebProgress>::Event*)#1}::operator()(geode::Task<geode::utils::web::WebResponse, geode::utils::web::WebProgress>::Event*) const::{lambda(auto:1)#1}::operator()<cocos2d::CCMenuItem*>(cocos2d::CCMenuItem*) const::{lambda(bool)#1}>, void (bool)>::operator()(bool&&)
PUBLIC 4d150 0 std::__ndk1::__function::__func<notifyLoadLoop()::$_0::operator()() const::{lambda(geode::Task<geode::utils::web::WebResponse, geode::utils::web::WebProgress>::Event*)#1}::operator()(geode::Task<geode::utils::web::WebResponse, geode::utils::web::WebProgress>::Event*) const::{lambda(auto:1)#1}::operator()<cocos2d::CCMenuItem*>(cocos2d::CCMenuItem*) const::{lambda(bool)#1}, std::__ndk1::allocator<notifyLoadLoop()::$_0::operator()() const::{lambda(geode::Task<geode::utils::web::WebResponse, geode::utils::web::WebProgress>::Event*)#1}::operator()(geode::Task<geode::utils::web::WebResponse, geode::utils::web::WebProgress>::Event*) const::{lambda(auto:1)#1}::operator()<cocos2d::CCMenuItem*>(cocos2d::CCMenuItem*) const::{lambda(bool)#1}>, void (bool)>::target(std::type_info const&) const
PUBLIC 4d16c 0 std::__ndk1::__function::__func<notifyLoadLoop()::$_0::operator()() const::{lambda(geode::Task<geode::utils::web::WebResponse, geode::utils::web::WebProgress>::Event*)#1}::operator()(geode::Task<geode::utils::web::WebResponse, geode::utils::web::WebProgress>::Event*) const::{lambda(auto:1)#1}::operator()<cocos2d::CCMenuItem*>(cocos2d::CCMenuItem*) const::{lambda(bool)#1}, std::__ndk1::allocator<notifyLoadLoop()::$_0::operator()() const::{lambda(geode::Task<geode::utils::web::WebResponse, geode::utils::web::WebProgress>::Event*)#1}::operator()(geode::Task<geode::utils::web::WebResponse, geode::utils::web::WebProgress>::Event*) const::{lambda(auto:1)#1}::operator()<cocos2d::CCMenuItem*>(cocos2d::CCMenuItem*) const::{lambda(bool)#1}>, void (bool)>::target_type() const
PUBLIC 4d178 0 std::__ndk1::__function::__base<void (geode::Task<geode::utils::web::WebResponse, geode::utils::web::WebProgress>::Event*)>::~__base()
PUBLIC 4d17c 0 std::__ndk1::__function::__func<notifyLoadLoop()::$_0::operator()() const::{lambda(geode::Task<geode::utils::web::WebResponse, geode::utils::web::WebProgress>::Event*)#1}::operator()(geode::Task<geode::utils::web::WebResponse, geode::utils::web::WebProgress>::Event*) const::{lambda(auto:1)#1}::operator()<cocos2d::CCMenuItem*>(cocos2d::CCMenuItem*) const::{lambda(bool)#1}::operator()(bool) const::{lambda(geode::Task<geode::utils::web::WebResponse, geode::utils::web::WebProgress>::Event*)#1}, std::__ndk1::allocator<notifyLoadLoop()::$_0::operator()() const::{lambda(geode::Task<geode::utils::web::WebResponse, geode::utils::web::WebProgress>::Event*)#1}::operator()(geode::Task<geode::utils::web::WebResponse, geode::utils::web::WebProgress>::Event*) const::{lambda(auto:1)#1}::operator()<cocos2d::CCMenuItem*>(cocos2d::CCMenuItem*) const::{lambda(bool)#1}::operator()(bool) const::{lambda(geode::Task<geode::utils::web::WebResponse, geode::utils::web::WebProgress>::Event*)#1}>, void (geode::Task<geode::utils::web::WebResponse, geode::utils::web::WebProgress>::Event*)>::~__func()
PUBLIC 4d180 0 std::__ndk1::__function::__func<notifyLoadLoop()::$_0::operator()() const::{lambda(geode::Task<geode::utils::web::WebResponse, geode::utils::web::WebProgress>::Event*)#1}::operator()(geode::Task<geode::utils::web::WebResponse, geode::utils::web::WebProgress>::Event*) const::{lambda(auto:1)#1}::operator()<cocos2d::CCMenuItem*>(cocos2d::CCMenuItem*) const::{lambda(bool)#1}::operator()(bool) const::{lambda(geode::Task<geode::utils::web::WebResponse, geode::utils::web::WebProgress>::Event*)#1}, std::__ndk1::allocator<notifyLoadLoop()::$_0::operator()() const::{lambda(geode::Task<geode::utils::web::WebResponse, geode::utils::web::WebProgress>::Event*)#1}::operator()(geode::Task<geode::utils::web::WebResponse, geode::utils::web::WebProgress>::Event*) const::{lambda(auto:1)#1}::operator()<cocos2d::CCMenuItem*>(cocos2d::CCMenuItem*) const::{lambda(bool)#1}::operator()(bool) const::{lambda(geode::Task<geode::utils::web::WebResponse, geode::utils::web::WebProgress>::Event*)#1}>, void (geode::Task<geode::utils::web::WebResponse, geode::utils::web::WebProgress>::Event*)>::__clone() const
PUBLIC 4d1a4 0 std::__ndk1::__function::__func<notifyLoadLoop()::$_0::operator()() const::{lambda(geode::Task<geode::utils::web::WebResponse, geode::utils::web::WebProgress>::Event*)#1}::operator()(geode::Task<geode::utils::web::WebResponse, geode::utils::web::WebProgress>::Event*) const::{lambda(auto:1)#1}::operator()<cocos2d::CCMenuItem*>(cocos2d::CCMenuItem*) const::{lambda(bool)#1}::operator()(bool) const::{lambda(geode::Task<geode::utils::web::WebResponse, geode::utils::web::WebProgress>::Event*)#1}, std::__ndk1::allocator<notifyLoadLoop()::$_0::operator()() const::{lambda(geode::Task<geode::utils::web::WebResponse, geode::utils::web::WebProgress>::Event*)#1}::operator()(geode::Task<geode::utils::web::WebResponse, geode::utils::web::WebProgress>::Event*) const::{lambda(auto:1)#1}::operator()<cocos2d::CCMenuItem*>(cocos2d::CCMenuItem*) const::{lambda(bool)#1}::operator()(bool) const::{lambda(geode::Task<geode::utils::web::WebResponse, geode::utils::web::WebProgress>::Event*)#1}>, void (geode::Task<geode::utils::web::WebResponse, geode::utils::web::WebProgress>::Event*)>::__clone(std::__ndk1::__function::__base<void (geode::Task<geode::utils::web::WebResponse, geode::utils::web::WebProgress>::Event*)>*) const
PUBLIC 4d1b4 0 std::__ndk1::__function::__func<notifyLoadLoop()::$_0::operator()() const::{lambda(geode::Task<geode::utils::web::WebResponse, geode::utils::web::WebProgress>::Event*)#1}::operator()(geode::Task<geode::utils::web::WebResponse, geode::utils::web::WebProgress>::Event*) const::{lambda(auto:1)#1}::operator()<cocos2d::CCMenuItem*>(cocos2d::CCMenuItem*) const::{lambda(bool)#1}::operator()(bool) const::{lambda(geode::Task<geode::utils::web::WebResponse, geode::utils::web::WebProgress>::Event*)#1}, std::__ndk1::allocator<notifyLoadLoop()::$_0::operator()() const::{lambda(geode::Task<geode::utils::web::WebResponse, geode::utils::web::WebProgress>::Event*)#1}::operator()(geode::Task<geode::utils::web::WebResponse, geode::utils::web::WebProgress>::Event*) const::{lambda(auto:1)#1}::operator()<cocos2d::CCMenuItem*>(cocos2d::CCMenuItem*) const::{lambda(bool)#1}::operator()(bool) const::{lambda(geode::Task<geode::utils::web::WebResponse, geode::utils::web::WebProgress>::Event*)#1}>, void (geode::Task<geode::utils::web::WebResponse, geode::utils::web::WebProgress>::Event*)>::destroy()
PUBLIC 4d1b8 0 std::__ndk1::__function::__func<notifyLoadLoop()::$_0::operator()() const::{lambda(geode::Task<geode::utils::web::WebResponse, geode::utils::web::WebProgress>::Event*)#1}::operator()(geode::Task<geode::utils::web::WebResponse, geode::utils::web::WebProgress>::Event*) const::{lambda(auto:1)#1}::operator()<cocos2d::CCMenuItem*>(cocos2d::CCMenuItem*) const::{lambda(bool)#1}::operator()(bool) const::{lambda(geode::Task<geode::utils::web::WebResponse, geode::utils::web::WebProgress>::Event*)#1}, std::__ndk1::allocator<notifyLoadLoop()::$_0::operator()() const::{lambda(geode::Task<geode::utils::web::WebResponse, geode::utils::web::WebProgress>::Event*)#1}::operator()(geode::Task<geode::utils::web::WebResponse, geode::utils::web::WebProgress>::Event*) const::{lambda(auto:1)#1}::operator()<cocos2d::CCMenuItem*>(cocos2d::CCMenuItem*) const::{lambda(bool)#1}::operator()(bool) const::{lambda(geode::Task<geode::utils::web::WebResponse, geode::utils::web::WebProgress>::Event*)#1}>, void (geode::Task<geode::utils::web::WebResponse, geode::utils::web::WebProgress>::Event*)>::destroy_deallocate()
PUBLIC 4d1bc 0 std::__ndk1::__function::__func<notifyLoadLoop()::$_0::operator()() const::{lambda(geode::Task<geode::utils::web::WebResponse, geode::utils::web::WebProgress>::Event*)#1}::operator()(geode::Task<geode::utils::web::WebResponse, geode::utils::web::WebProgress>::Event*) const::{lambda(auto:1)#1}::operator()<cocos2d::CCMenuItem*>(cocos2d::CCMenuItem*) const::{lambda(bool)#1}::operator()(bool) const::{lambda(geode::Task<geode::utils::web::WebResponse, geode::utils::web::WebProgress>::Event*)#1}, std::__ndk1::allocator<notifyLoadLoop()::$_0::operator()() const::{lambda(geode::Task<geode::utils::web::WebResponse, geode::utils::web::WebProgress>::Event*)#1}::operator()(geode::Task<geode::utils::web::WebResponse, geode::utils::web::WebProgress>::Event*) const::{lambda(auto:1)#1}::operator()<cocos2d::CCMenuItem*>(cocos2d::CCMenuItem*) const::{lambda(bool)#1}::operator()(bool) const::{lambda(geode::Task<geode::utils::web::WebResponse, geode::utils::web::WebProgress>::Event*)#1}>, void (geode::Task<geode::utils::web::WebResponse, geode::utils::web::WebProgress>::Event*)>::operator()(geode::Task<geode::utils::web::WebResponse, geode::utils::web::WebProgress>::Event*&&)
PUBLIC 4d1c0 0 std::__ndk1::__function::__func<notifyLoadLoop()::$_0::operator()() const::{lambda(geode::Task<geode::utils::web::WebResponse, geode::utils::web::WebProgress>::Event*)#1}::operator()(geode::Task<geode::utils::web::WebResponse, geode::utils::web::WebProgress>::Event*) const::{lambda(auto:1)#1}::operator()<cocos2d::CCMenuItem*>(cocos2d::CCMenuItem*) const::{lambda(bool)#1}::operator()(bool) const::{lambda(geode::Task<geode::utils::web::WebResponse, geode::utils::web::WebProgress>::Event*)#1}, std::__ndk1::allocator<notifyLoadLoop()::$_0::operator()() const::{lambda(geode::Task<geode::utils::web::WebResponse, geode::utils::web::WebProgress>::Event*)#1}::operator()(geode::Task<geode::utils::web::WebResponse, geode::utils::web::WebProgress>::Event*) const::{lambda(auto:1)#1}::operator()<cocos2d::CCMenuItem*>(cocos2d::CCMenuItem*) const::{lambda(bool)#1}::operator()(bool) const::{lambda(geode::Task<geode::utils::web::WebResponse, geode::utils::web::WebProgress>::Event*)#1}>, void (geode::Task<geode::utils::web::WebResponse, geode::utils::web::WebProgress>::Event*)>::target(std::type_info const&) const
PUBLIC 4d1dc 0 std::__ndk1::__function::__func<notifyLoadLoop()::$_0::operator()() const::{lambda(geode::Task<geode::utils::web::WebResponse, geode::utils::web::WebProgress>::Event*)#1}::operator()(geode::Task<geode::utils::web::WebResponse, geode::utils::web::WebProgress>::Event*) const::{lambda(auto:1)#1}::operator()<cocos2d::CCMenuItem*>(cocos2d::CCMenuItem*) const::{lambda(bool)#1}::operator()(bool) const::{lambda(geode::Task<geode::utils::web::WebResponse, geode::utils::web::WebProgress>::Event*)#1}, std::__ndk1::allocator<notifyLoadLoop()::$_0::operator()() const::{lambda(geode::Task<geode::utils::web::WebResponse, geode::utils::web::WebProgress>::Event*)#1}::operator()(geode::Task<geode::utils::web::WebResponse, geode::utils::web::WebProgress>::Event*) const::{lambda(auto:1)#1}::operator()<cocos2d::CCMenuItem*>(cocos2d::CCMenuItem*) const::{lambda(bool)#1}::operator()(bool) const::{lambda(geode::Task<geode::utils::web::WebResponse, geode::utils::web::WebProgress>::Event*)#1}>, void (geode::Task<geode::utils::web::WebResponse, geode::utils::web::WebProgress>::Event*)>::target_type() const
PUBLIC 4d1e8 0 std::__ndk1::__function::__func<notifyLoadLoop()::$_1, std::__ndk1::allocator<notifyLoadLoop()::$_1>, void ()>::~__func()
PUBLIC 4d218 0 std::__ndk1::__function::__func<notifyLoadLoop()::$_1, std::__ndk1::allocator<notifyLoadLoop()::$_1>, void ()>::~__func()
PUBLIC 4d254 0 std::__ndk1::__function::__func<notifyLoadLoop()::$_1, std::__ndk1::allocator<notifyLoadLoop()::$_1>, void ()>::__clone() const
PUBLIC 4d2ac 0 std::__ndk1::__function::__func<notifyLoadLoop()::$_1, std::__ndk1::allocator<notifyLoadLoop()::$_1>, void ()>::__clone(std::__ndk1::__function::__base<void ()>*) const
PUBLIC 4d2c8 0 std::__ndk1::__function::__func<notifyLoadLoop()::$_1, std::__ndk1::allocator<notifyLoadLoop()::$_1>, void ()>::destroy()
PUBLIC 4d2e8 0 std::__ndk1::__function::__func<notifyLoadLoop()::$_1, std::__ndk1::allocator<notifyLoadLoop()::$_1>, void ()>::destroy_deallocate()
PUBLIC 4d318 0 std::__ndk1::__function::__func<notifyLoadLoop()::$_1, std::__ndk1::allocator<notifyLoadLoop()::$_1>, void ()>::operator()()
PUBLIC 4d350 0 std::__ndk1::__function::__func<notifyLoadLoop()::$_1, std::__ndk1::allocator<notifyLoadLoop()::$_1>, void ()>::target(std::type_info const&) const
PUBLIC 4d36c 0 std::__ndk1::__function::__func<notifyLoadLoop()::$_1, std::__ndk1::allocator<notifyLoadLoop()::$_1>, void ()>::target_type() const
PUBLIC 4d378 0 std::__ndk1::__function::__func<notifyLoadLoop()::$_2, std::__ndk1::allocator<notifyLoadLoop()::$_2>, void ()>::~__func()
PUBLIC 4d3d0 0 std::__ndk1::__function::__func<notifyLoadLoop()::$_2, std::__ndk1::allocator<notifyLoadLoop()::$_2>, void ()>::~__func()
PUBLIC 4d42c 0 std::__ndk1::__function::__func<notifyLoadLoop()::$_2, std::__ndk1::allocator<notifyLoadLoop()::$_2>, void ()>::__clone() const
PUBLIC 4d4e0 0 std::__ndk1::__function::__func<notifyLoadLoop()::$_2, std::__ndk1::allocator<notifyLoadLoop()::$_2>, void ()>::__clone(std::__ndk1::__function::__base<void ()>*) const
PUBLIC 4d56c 0 std::__ndk1::__function::__func<notifyLoadLoop()::$_2, std::__ndk1::allocator<notifyLoadLoop()::$_2>, void ()>::destroy()
PUBLIC 4d5b8 0 std::__ndk1::__function::__func<notifyLoadLoop()::$_2, std::__ndk1::allocator<notifyLoadLoop()::$_2>, void ()>::destroy_deallocate()
PUBLIC 4d608 0 std::__ndk1::__function::__func<notifyLoadLoop()::$_2, std::__ndk1::allocator<notifyLoadLoop()::$_2>, void ()>::operator()()
PUBLIC 4d778 0 std::__ndk1::__function::__func<notifyLoadLoop()::$_2, std::__ndk1::allocator<notifyLoadLoop()::$_2>, void ()>::target(std::type_info const&) const
PUBLIC 4d794 0 std::__ndk1::__function::__func<notifyLoadLoop()::$_2, std::__ndk1::allocator<notifyLoadLoop()::$_2>, void ()>::target_type() const
PUBLIC 4d7a0 0 geode::modifier::ModifyDerive<InitalWebStuffLoader, MenuLayer>::apply()
PUBLIC 4dba8 0 std::__ndk1::shared_ptr<geode::Hook>::~shared_ptr[abi:ne180000]()
PUBLIC 4dbf8 0 geode::impl::ResultData<geode::Hook*, std::__ndk1::basic_string<char, std::__ndk1::char_traits<char>, std::__ndk1::allocator<char> > >::~ResultData()
PUBLIC 4dc6c 0 std::__ndk1::vector<std::__ndk1::basic_string<char, std::__ndk1::char_traits<char>, std::__ndk1::allocator<char> >, std::__ndk1::allocator<std::__ndk1::basic_string<char, std::__ndk1::char_traits<char>, std::__ndk1::allocator<char> > > >::~vector[abi:ne180000]()
PUBLIC 4dce8 0 geode::modifier::ModifyBase<geode::modifier::ModifyDerive<InitalWebStuffLoader, MenuLayer> >::apply()
PUBLIC 4dcec 0 _ZN5geode15UnwrapExceptionC2IRPNS_4HookEQsr4implE18IsStringStreamableIT_EEENS_4impl5OkTagEOS5_
PUBLIC 4de40 0 std::__ndk1::__split_buffer<std::__ndk1::basic_string<char, std::__ndk1::char_traits<char>, std::__ndk1::allocator<char> >, std::__ndk1::allocator<std::__ndk1::basic_string<char, std::__ndk1::char_traits<char>, std::__ndk1::allocator<char> > >&>::~__split_buffer()
PUBLIC 4dea8 0 std::__ndk1::vector<std::__ndk1::basic_string<char, std::__ndk1::char_traits<char>, std::__ndk1::allocator<char> >, std::__ndk1::allocator<std::__ndk1::basic_string<char, std::__ndk1::char_traits<char>, std::__ndk1::allocator<char> > > >::__throw_length_error[abi:ne180000]() const
PUBLIC 4debc 0 std::__ndk1::__variant_detail::__visitation::__base::__dispatcher<(unsigned long)0>::__dispatch[abi:ne180000]<std::__ndk1::__variant_detail::__dtor<std::__ndk1::__variant_detail::__traits<geode::Hook*, std::__ndk1::basic_string<char, std::__ndk1::char_traits<char>, std::__ndk1::allocator<char> > >, (std::__ndk1::__variant_detail::_Trait)1>::__destroy[abi:ne180000]()::{lambda(auto:1&)#1}, std::__ndk1::__variant_detail::__base<(std::__ndk1::__variant_detail::__traits<geode::Hook*, std::__ndk1::basic_string<char, std::__ndk1::char_traits<char>, std::__ndk1::allocator<char> > >)1, geode::Hook, std::__ndk1::allocator<char> >&>(std::__ndk1::__variant_detail::__dtor<std::__ndk1::__variant_detail::__traits<geode::Hook*, std::__ndk1::basic_string<char, std::__ndk1::char_traits<char>, std::__ndk1::allocator<char> > >, (std::__ndk1::__variant_detail::_Trait)1>, std::__ndk1::__variant_detail::__base<(std::__ndk1::__variant_detail::__traits<geode::Hook*, std::__ndk1::basic_string<char, std::__ndk1::char_traits<char>, std::__ndk1::allocator<char> > >)1, geode::Hook, std::__ndk1::allocator<char> >&)
PUBLIC 4dec0 0 std::__ndk1::__variant_detail::__visitation::__base::__dispatcher<(unsigned long)1>::__dispatch[abi:ne180000]<std::__ndk1::__variant_detail::__dtor<std::__ndk1::__variant_detail::__traits<geode::Hook*, std::__ndk1::basic_string<char, std::__ndk1::char_traits<char>, std::__ndk1::allocator<char> > >, (std::__ndk1::__variant_detail::_Trait)1>::__destroy[abi:ne180000]()::{lambda(auto:1&)#1}, std::__ndk1::__variant_detail::__base<(std::__ndk1::__variant_detail::__traits<geode::Hook*, std::__ndk1::basic_string<char, std::__ndk1::char_traits<char>, std::__ndk1::allocator<char> > >)1, geode::Hook, std::__ndk1::allocator<char> >&>(std::__ndk1::__variant_detail::__dtor<std::__ndk1::__variant_detail::__traits<geode::Hook*, std::__ndk1::basic_string<char, std::__ndk1::char_traits<char>, std::__ndk1::allocator<char> > >, (std::__ndk1::__variant_detail::_Trait)1>, std::__ndk1::__variant_detail::__base<(std::__ndk1::__variant_detail::__traits<geode::Hook*, std::__ndk1::basic_string<char, std::__ndk1::char_traits<char>, std::__ndk1::allocator<char> > >)1, geode::Hook, std::__ndk1::allocator<char> >&)
PUBLIC 4ded4 0 std::__ndk1::__tree<std::__ndk1::__value_type<std::__ndk1::basic_string<char, std::__ndk1::char_traits<char>, std::__ndk1::allocator<char> >, std::__ndk1::shared_ptr<geode::Hook> >, std::__ndk1::__map_value_compare<std::__ndk1::basic_string<char, std::__ndk1::char_traits<char>, std::__ndk1::allocator<char> >, std::__ndk1::__value_type<std::__ndk1::basic_string<char, std::__ndk1::char_traits<char>, std::__ndk1::allocator<char> >, std::__ndk1::shared_ptr<geode::Hook> >, std::__ndk1::less<std::__ndk1::basic_string<char, std::__ndk1::char_traits<char>, std::__ndk1::allocator<char> > >, true>, std::__ndk1::allocator<std::__ndk1::__value_type<std::__ndk1::basic_string<char, std::__ndk1::char_traits<char>, std::__ndk1::allocator<char> >, std::__ndk1::shared_ptr<geode::Hook> > > >::destroy(std::__ndk1::__tree_node<std::__ndk1::__value_type<std::__ndk1::basic_string<char, std::__ndk1::char_traits<char>, std::__ndk1::allocator<char> >, std::__ndk1::shared_ptr<geode::Hook> >, void*>*)
PUBLIC 4df58 0 geode::modifier::AsStaticFunction_init<InitalWebStuffLoader, bool (InitalWebStuffLoader::*)()>::Impl<bool (InitalWebStuffLoader::*)()>::function(InitalWebStuffLoader*)
PUBLIC 4df94 0 geode::addresser::Addresser::addressOfVirtual<bool, MenuLayer, >(bool (MenuLayer::*)())
PUBLIC 4e03c 0 MenuLayer::MenuLayer(geode::ZeroConstructorType)
PUBLIC 4e0d8 0 std::__ndk1::shared_ptr<tulip::hook::CallingConvention>::~shared_ptr[abi:ne180000]()
PUBLIC 4e128 0 tulip::hook::HandlerMetadata::~HandlerMetadata()
PUBLIC 4e18c 0 std::__ndk1::__tree<std::__ndk1::__value_type<std::__ndk1::basic_string<char, std::__ndk1::char_traits<char>, std::__ndk1::allocator<char> >, matjson::Value>, std::__ndk1::__map_value_compare<std::__ndk1::basic_string<char, std::__ndk1::char_traits<char>, std::__ndk1::allocator<char> >, std::__ndk1::__value_type<std::__ndk1::basic_string<char, std::__ndk1::char_traits<char>, std::__ndk1::allocator<char> >, matjson::Value>, std::__ndk1::less<std::__ndk1::basic_string<char, std::__ndk1::char_traits<char>, std::__ndk1::allocator<char> > >, true>, std::__ndk1::allocator<std::__ndk1::__value_type<std::__ndk1::basic_string<char, std::__ndk1::char_traits<char>, std::__ndk1::allocator<char> >, matjson::Value> > >::destroy(std::__ndk1::__tree_node<std::__ndk1::__value_type<std::__ndk1::basic_string<char, std::__ndk1::char_traits<char>, std::__ndk1::allocator<char> >, matjson::Value>, void*>*)
PUBLIC 4e1dc 0 geode::EventListener<geode::EventFilter<geode::ModPopupUIEvent> >::getPool() const
PUBLIC 4e1e0 0 geode::EventListener<geode::EventFilter<geode::ModPopupUIEvent> >::handle(geode::Event*)
PUBLIC 4e370 0 geode::EventListener<geode::EventFilter<geode::ModPopupUIEvent> >::~EventListener()
PUBLIC 4e3cc 0 geode::EventListener<geode::EventFilter<geode::ModPopupUIEvent> >::~EventListener()
PUBLIC 4e430 0 std::__ndk1::__function::__base<geode::ListenerResult(geode::ModPopupUIEvent*)>::~__base()
PUBLIC 4e434 0 std::__ndk1::__function::__func<geode::ListenerResult (*)(geode::ModPopupUIEvent*), std::__ndk1::allocator<geode::ListenerResult (*)(geode::ModPopupUIEvent*)>, geode::ListenerResult(geode::ModPopupUIEvent*)>::~__func()
PUBLIC 4e438 0 std::__ndk1::__function::__func<geode::ListenerResult (*)(geode::ModPopupUIEvent*), std::__ndk1::allocator<geode::ListenerResult (*)(geode::ModPopupUIEvent*)>, geode::ListenerResult(geode::ModPopupUIEvent*)>::__clone() const
PUBLIC 4e46c 0 std::__ndk1::__function::__func<geode::ListenerResult (*)(geode::ModPopupUIEvent*), std::__ndk1::allocator<geode::ListenerResult (*)(geode::ModPopupUIEvent*)>, geode::ListenerResult(geode::ModPopupUIEvent*)>::__clone(std::__ndk1::__function::__base<geode::ListenerResult(geode::ModPopupUIEvent*)>*) const
PUBLIC 4e480 0 std::__ndk1::__function::__func<geode::ListenerResult (*)(geode::ModPopupUIEvent*), std::__ndk1::allocator<geode::ListenerResult (*)(geode::ModPopupUIEvent*)>, geode::ListenerResult(geode::ModPopupUIEvent*)>::destroy()
PUBLIC 4e484 0 std::__ndk1::__function::__func<geode::ListenerResult (*)(geode::ModPopupUIEvent*), std::__ndk1::allocator<geode::ListenerResult (*)(geode::ModPopupUIEvent*)>, geode::ListenerResult(geode::ModPopupUIEvent*)>::destroy_deallocate()
PUBLIC 4e488 0 std::__ndk1::__function::__func<geode::ListenerResult (*)(geode::ModPopupUIEvent*), std::__ndk1::allocator<geode::ListenerResult (*)(geode::ModPopupUIEvent*)>, geode::ListenerResult(geode::ModPopupUIEvent*)>::operator()(geode::ModPopupUIEvent*&&)
PUBLIC 4e498 0 std::__ndk1::__function::__func<geode::ListenerResult (*)(geode::ModPopupUIEvent*), std::__ndk1::allocator<geode::ListenerResult (*)(geode::ModPopupUIEvent*)>, geode::ListenerResult(geode::ModPopupUIEvent*)>::target(std::type_info const&) const
PUBLIC 4e4b4 0 std::__ndk1::__function::__func<geode::ListenerResult (*)(geode::ModPopupUIEvent*), std::__ndk1::allocator<geode::ListenerResult (*)(geode::ModPopupUIEvent*)>, geode::ListenerResult(geode::ModPopupUIEvent*)>::target_type() const
PUBLIC 4e4c0 0 _GLOBAL__sub_I_main.cpp
PUBLIC m 4e598 0 geodeImplicitEntry
PUBLIC 4e5d4 0 std::__ndk1::unordered_map<void*, bool, std::__ndk1::hash<void*>, std::__ndk1::equal_to<void*>, std::__ndk1::allocator<std::__ndk1::pair<void* const, bool> > >::~unordered_map[abi:ne180000]()
PUBLIC 4e620 0 wrapFunction(unsigned long, tulip::hook::WrapperMetadata const&)
PUBLIC 4e754 0 geode::impl::ResultData<void*, std::__ndk1::basic_string<char, std::__ndk1::char_traits<char>, std::__ndk1::allocator<char> > >::unwrapErr() &
PUBLIC 4e7cc 0 geode::impl::ResultData<void*, std::__ndk1::basic_string<char, std::__ndk1::char_traits<char>, std::__ndk1::allocator<char> > >::~ResultData()
PUBLIC 4e840 0 tulip::hook::WrapperMetadata::~WrapperMetadata()
PUBLIC 4e8a4 0 cocos2d::CCObject::CCObject()
PUBLIC 4eac8 0 cocos2d::CCObject::~CCObject()
PUBLIC 4eaec 0 cocos2d::CCNode::CCNode()
PUBLIC 4ed48 0 cocos2d::CCNode::~CCNode()
PUBLIC 4ed6c 0 cocos2d::CCNodeRGBA::~CCNodeRGBA()
PUBLIC 4ed90 0 cocos2d::CCAction::CCAction()
PUBLIC 4efb4 0 cocos2d::CCAction::~CCAction()
PUBLIC 4efd8 0 cocos2d::CCAction::~CCAction()
PUBLIC 4f248 0 cocos2d::CCLayer::CCLayer()
PUBLIC 4f4cc 0 {virtual override thunk({offset(-320)}, cocos2d::CCLayer::~CCLayer())}
PUBLIC 4f4d4 0 cocos2d::CCLayer::~CCLayer()
PUBLIC 4f4f8 0 {virtual override thunk({offset(-320)}, cocos2d::CCLayer::~CCLayer())}
PUBLIC 4f520 0 cocos2d::CCLayerRGBA::~CCLayerRGBA()
PUBLIC 4f820 0 {virtual override thunk({offset(-320)}, cocos2d::CCLayerRGBA::~CCLayerRGBA())}
PUBLIC 4f828 0 cocos2d::CCLayerRGBA::~CCLayerRGBA()
PUBLIC 4f84c 0 {virtual override thunk({offset(-320)}, cocos2d::CCLayerRGBA::~CCLayerRGBA())}
PUBLIC 4f874 0 cocos2d::CCLayerColor::CCLayerColor()
PUBLIC 4fad8 0 {virtual override thunk({offset(-320)}, cocos2d::CCLayerColor::~CCLayerColor())}
PUBLIC 4fae0 0 cocos2d::CCLayerColor::~CCLayerColor()
PUBLIC 4fb04 0 {virtual override thunk({offset(-320)}, cocos2d::CCLayerColor::~CCLayerColor())}
PUBLIC 4fb2c 0 cocos2d::CCSprite::CCSprite()
PUBLIC 4fd8c 0 cocos2d::CCSprite::~CCSprite()
PUBLIC 4fdb0 0 {virtual override thunk({offset(-320)}, FLAlertLayer::~FLAlertLayer())}
PUBLIC 4fdb8 0 FLAlertLayer::~FLAlertLayer()
PUBLIC 4fddc 0 {virtual override thunk({offset(-320)}, FLAlertLayer::~FLAlertLayer())}
PUBLIC 4fe04 0 FLAlertLayer::create(FLAlertLayerProtocol*, char const*, gd::string, char const*, char const*, float)
PUBLIC 4ffbc 0 tulip::hook::AbstractFunction::from<FLAlertLayer*, FLAlertLayerProtocol*, char const*, gd::string, char const*, char const*, float>(FLAlertLayer* (*)(FLAlertLayerProtocol*, char const*, gd::string, char const*, char const*, float))
PUBLIC 50128 0 cocos2d::CCNodeRGBA::~CCNodeRGBA()
PUBLIC 503e0 0 cocos2d::CCSprite::~CCSprite()
PUBLIC 506a0 0 cocos2d::CCNodeRGBA::setOpacityModifyRGB(bool)
PUBLIC 506a4 0 cocos2d::CCNodeRGBA::isOpacityModifyRGB()
PUBLIC 506ac 0 {virtual override thunk({offset(-320)}, cocos2d::CCNodeRGBA::setOpacityModifyRGB(bool))}
PUBLIC 506b0 0 {virtual override thunk({offset(-320)}, cocos2d::CCNodeRGBA::isOpacityModifyRGB())}
PUBLIC 506b8 0 cocos2d::CCLayerColor::~CCLayerColor()
PUBLIC 5099c 0 FLAlertLayer::~FLAlertLayer()
PUBLIC 50c80 0 cocos2d::CCNode::~CCNode()
PUBLIC 50f20 0 cocos2d::CCLayer::~CCLayer()
PUBLIC 51210 0 cocos2d::CCObject::~CCObject()
PUBLIC 51704 0 _ZN5geode15UnwrapExceptionC2IRPvQsr4implE18IsStringStreamableIT_EEENS_4impl5OkTagEOS4_
PUBLIC 51858 0 std::__ndk1::__variant_detail::__visitation::__base::__dispatcher<(unsigned long)0>::__dispatch[abi:ne180000]<std::__ndk1::__variant_detail::__dtor<std::__ndk1::__variant_detail::__traits<void*, std::__ndk1::basic_string<char, std::__ndk1::char_traits<char>, std::__ndk1::allocator<char> > >, (std::__ndk1::__variant_detail::_Trait)1>::__destroy[abi:ne180000]()::{lambda(auto:1&)#1}, std::__ndk1::__variant_detail::__base<(std::__ndk1::__variant_detail::__traits<void*, std::__ndk1::basic_string<char, std::__ndk1::char_traits<char>, std::__ndk1::allocator<char> > >)1, std::__ndk1::__variant_detail::__traits, std::__ndk1::allocator<char> >&>(std::__ndk1::__variant_detail::__dtor<std::__ndk1::__variant_detail::__traits<void*, std::__ndk1::basic_string<char, std::__ndk1::char_traits<char>, std::__ndk1::allocator<char> > >, (std::__ndk1::__variant_detail::_Trait)1>, std::__ndk1::__variant_detail::__base<(std::__ndk1::__variant_detail::__traits<void*, std::__ndk1::basic_string<char, std::__ndk1::char_traits<char>, std::__ndk1::allocator<char> > >)1, std::__ndk1::__variant_detail::__traits, std::__ndk1::allocator<char> >&)
PUBLIC 5185c 0 std::__ndk1::__variant_detail::__visitation::__base::__dispatcher<(unsigned long)1>::__dispatch[abi:ne180000]<std::__ndk1::__variant_detail::__dtor<std::__ndk1::__variant_detail::__traits<void*, std::__ndk1::basic_string<char, std::__ndk1::char_traits<char>, std::__ndk1::allocator<char> > >, (std::__ndk1::__variant_detail::_Trait)1>::__destroy[abi:ne180000]()::{lambda(auto:1&)#1}, std::__ndk1::__variant_detail::__base<(std::__ndk1::__variant_detail::__traits<void*, std::__ndk1::basic_string<char, std::__ndk1::char_traits<char>, std::__ndk1::allocator<char> > >)1, std::__ndk1::__variant_detail::__traits, std::__ndk1::allocator<char> >&>(std::__ndk1::__variant_detail::__dtor<std::__ndk1::__variant_detail::__traits<void*, std::__ndk1::basic_string<char, std::__ndk1::char_traits<char>, std::__ndk1::allocator<char> > >, (std::__ndk1::__variant_detail::_Trait)1>, std::__ndk1::__variant_detail::__base<(std::__ndk1::__variant_detail::__traits<void*, std::__ndk1::basic_string<char, std::__ndk1::char_traits<char>, std::__ndk1::allocator<char> > >)1, std::__ndk1::__variant_detail::__traits, std::__ndk1::allocator<char> >&)
PUBLIC 51870 0 std::__ndk1::__hash_table<std::__ndk1::__hash_value_type<void*, bool>, std::__ndk1::__unordered_map_hasher<void*, std::__ndk1::__hash_value_type<void*, bool>, std::__ndk1::hash<void*>, std::__ndk1::equal_to<void*>, true>, std::__ndk1::__unordered_map_equal<void*, std::__ndk1::__hash_value_type<void*, bool>, std::__ndk1::equal_to<void*>, std::__ndk1::hash<void*>, true>, std::__ndk1::allocator<std::__ndk1::__hash_value_type<void*, bool> > >::__emplace_unique_key_args<void*, std::__ndk1::piecewise_construct_t const&, std::__ndk1::tuple<void* const&>, std::__ndk1::tuple<> >(void* const&, std::__ndk1::piecewise_construct_t const&, std::__ndk1::tuple<void* const&>, std::__ndk1::tuple<>)
PUBLIC 51d7c 0 __udivti3
PUBLIC 51d88 0 __udivmodti4
PUBLIC m 51fd4 0 __eqtf2
PUBLIC 52074 0 __unordtf2
PUBLIC 520ac 0 fmt::v11::detail::write_loc(fmt::v11::basic_appender<char>, fmt::v11::loc_value, fmt::v11::format_specs const&, fmt::v11::detail::locale_ref)
PUBLIC 52340 0 fmt::v11::format_facet<std::__ndk1::locale>::~format_facet()
PUBLIC 523bc 0 fmt::v11::report_error(char const*)
PUBLIC 5240c 0 fmt::v11::format_error::runtime_error(char const*)
PUBLIC 52438 0 fmt::v11::format_facet<std::__ndk1::locale>::do_put(fmt::v11::basic_appender<char>, fmt::v11::loc_value, fmt::v11::format_specs const&) const
PUBLIC 52bf8 0 fmt::v11::detail::loc_writer<char>::~loc_writer()
PUBLIC 52c5c 0 fmt::v11::vformat(fmt::v11::basic_string_view<char>, fmt::v11::basic_format_args<fmt::v11::context>)
PUBLIC 52d98 0 fmt::v11::detail::vformat_to<char>(fmt::v11::detail::buffer<char>&, fmt::v11::basic_string_view<char>, fmt::v11::detail::vformat_args<char>::type, fmt::v11::detail::locale_ref)
PUBLIC 53308 0 fmt::v11::detail::is_printable(unsigned int)
PUBLIC 53530 0 fmt::v11::detail::dragonbox::to_decimal<float>(float)
PUBLIC 5380c 0 fmt::v11::detail::dragonbox::to_decimal<double>(double)
PUBLIC 53d48 0 fmt::v11::basic_memory_buffer<char, (unsigned long)500, std::__ndk1::allocator<char> >::grow(fmt::v11::detail::buffer<char>&, unsigned long)
PUBLIC 53dc0 0 fmt::v11::format_facet<std::__ndk1::locale>::~format_facet()
PUBLIC 53e4c 0 fmt::v11::format_error::~format_error()
PUBLIC 53e70 0 fmt::v11::detail::copy_noinline<char, char const*, fmt::v11::basic_appender<char> >(char const*, char const*, fmt::v11::basic_appender<char>)
PUBLIC 53fc0 0 fmt::v11::detail::default_arg_formatter<char>::operator()<bool>(bool)
PUBLIC 54028 0 fmt::v11::detail::default_arg_formatter<char>::operator()<char>(char)
PUBLIC 540b8 0 fmt::v11::detail::default_arg_formatter<char>::operator()<float>(float)
PUBLIC 541a4 0 fmt::v11::detail::default_arg_formatter<char>::operator()<double>(double)
PUBLIC 54290 0 fmt::v11::detail::default_arg_formatter<char>::operator()<char const*>(char const*)
PUBLIC 542d8 0 fmt::v11::detail::default_arg_formatter<char>::operator()<void const*>(void const*)
PUBLIC 54370 0 _ZN3fmt3v116detail5writeIcNS0_14basic_appenderIcEEiTnNSt6__ndk19enable_ifIXaaaasr11is_integralIT1_EE5valuentsr3std7is_sameIS7_bEE5valuentsr3std7is_sameIS7_T_EE5valueEiE4typeELi0EEET0_SB_S7_
PUBLIC 545d0 0 fmt::v11::detail::copy_noinline<char, char*, fmt::v11::basic_appender<char> >(char*, char*, fmt::v11::basic_appender<char>)
PUBLIC 54720 0 _ZN3fmt3v116detail5writeIcNS0_14basic_appenderIcEEjTnNSt6__ndk19enable_ifIXaaaasr11is_integralIT1_EE5valuentsr3std7is_sameIS7_bEE5valuentsr3std7is_sameIS7_T_EE5valueEiE4typeELi0EEET0_SB_S7_
PUBLIC 54900 0 _ZN3fmt3v116detail5writeIcNS0_14basic_appenderIcEExTnNSt6__ndk19enable_ifIXaaaasr11is_integralIT1_EE5valuentsr3std7is_sameIS7_bEE5valuentsr3std7is_sameIS7_T_EE5valueEiE4typeELi0EEET0_SB_S7_
PUBLIC 54b84 0 _ZN3fmt3v116detail5writeIcNS0_14basic_appenderIcEEyTnNSt6__ndk19enable_ifIXaaaasr11is_integralIT1_EE5valuentsr3std7is_sameIS7_bEE5valuentsr3std7is_sameIS7_T_EE5valueEiE4typeELi0EEET0_SB_S7_
PUBLIC 54d8c 0 _ZN3fmt3v116detail5writeIcNS0_14basic_appenderIcEEnTnNSt6__ndk19enable_ifIXaaaasr11is_integralIT1_EE5valuentsr3std7is_sameIS7_bEE5valuentsr3std7is_sameIS7_T_EE5valueEiE4typeELi0EEET0_SB_S7_
PUBLIC 550ec 0 _ZN3fmt3v116detail5writeIcNS0_14basic_appenderIcEEoTnNSt6__ndk19enable_ifIXaaaasr11is_integralIT1_EE5valuentsr3std7is_sameIS7_bEE5valuentsr3std7is_sameIS7_T_EE5valueEiE4typeELi0EEET0_SB_S7_
PUBLIC 55400 0 _ZN3fmt3v116detail5writeIcNS0_14basic_appenderIcEEbTnNSt6__ndk19enable_ifIXsr3std7is_sameIT1_bEE5valueEiE4typeELi0EEET0_SA_S7_RKNS0_12format_specsENS1_10locale_refE
PUBLIC 55690 0 fmt::v11::detail::write_int_noinline<char, fmt::v11::basic_appender<char>, unsigned int>(fmt::v11::basic_appender<char>, fmt::v11::detail::write_int_arg<unsigned int>, fmt::v11::format_specs const&, fmt::v11::detail::locale_ref)
PUBLIC 5646c 0 fmt::v11::detail::fill<char, fmt::v11::basic_appender<char> >(fmt::v11::basic_appender<char>, unsigned long, fmt::v11::detail::fill_t const&)
PUBLIC 5663c 0 fmt::v11::detail::write_padded<char, (fmt::v11::align::type)1, fmt::v11::basic_appender<char>, fmt::v11::detail::write_char<char, fmt::v11::basic_appender<char> >(fmt::v11::basic_appender<char>, char, fmt::v11::format_specs const&)::{lambda(fmt::v11::basic_appender<char>&)#1}>(fmt::v11::basic_appender<char>, fmt::v11::format_specs const&, unsigned long, unsigned long, fmt::v11::detail::write_char<char, fmt::v11::basic_appender<char> >(fmt::v11::basic_appender<char>, char, fmt::v11::format_specs const&)::{lambda(fmt::v11::basic_appender<char>&)#1})
PUBLIC 56878 0 fmt::v11::detail::write_escaped_cp<fmt::v11::basic_appender<char>, char>(fmt::v11::basic_appender<char>, fmt::v11::detail::find_escape_result<char> const&)
PUBLIC 56b84 0 fmt::v11::detail::write_codepoint<(unsigned long)2, char, fmt::v11::basic_appender<char> >(fmt::v11::basic_appender<char>, char, unsigned int)
PUBLIC 56cfc 0 fmt::v11::detail::write_codepoint<(unsigned long)8, char, fmt::v11::basic_appender<char> >(fmt::v11::basic_appender<char>, char, unsigned int)
PUBLIC 56e74 0 fmt::v11::detail::write_padded<char, (fmt::v11::align::type)1, fmt::v11::basic_appender<char>, fmt::v11::detail::write_nonfinite<char, fmt::v11::basic_appender<char> >(fmt::v11::basic_appender<char>, bool, fmt::v11::format_specs, fmt::v11::sign::type)::{lambda(fmt::v11::basic_appender<char>&)#1}>(fmt::v11::basic_appender<char>, fmt::v11::format_specs const&, unsigned long, unsigned long, fmt::v11::detail::write_nonfinite<char, fmt::v11::basic_appender<char> >(fmt::v11::basic_appender<char>, bool, fmt::v11::format_specs, fmt::v11::sign::type)::{lambda(fmt::v11::basic_appender<char>&)#1})
PUBLIC 570b4 0 fmt::v11::detail::do_write_float<char, fmt::v11::basic_appender<char>, fmt::v11::detail::dragonbox::decimal_fp<float>, fmt::v11::detail::digit_grouping<char> >(fmt::v11::basic_appender<char>, fmt::v11::detail::dragonbox::decimal_fp<float> const&, fmt::v11::format_specs const&, fmt::v11::detail::float_specs, fmt::v11::detail::locale_ref)
PUBLIC 57d28 0 fmt::v11::detail::do_write_float<char, fmt::v11::basic_appender<char>, fmt::v11::detail::dragonbox::decimal_fp<float>, fmt::v11::detail::digit_grouping<char> >(fmt::v11::basic_appender<char>, fmt::v11::detail::dragonbox::decimal_fp<float> const&, fmt::v11::format_specs const&, fmt::v11::detail::float_specs, fmt::v11::detail::locale_ref)::{lambda(fmt::v11::basic_appender<char>(fmt::v11::basic_appender<char>))#1}::operator() const
PUBLIC 57e7c 0 fmt::v11::detail::digit_grouping<char>::digit_grouping(fmt::v11::detail::locale_ref, bool)
PUBLIC 580e8 0 fmt::v11::detail::digit_grouping<char>::~digit_grouping()
PUBLIC 5812c 0 fmt::v11::detail::write_exponent<char, fmt::v11::basic_appender<char> >(int, fmt::v11::basic_appender<char>)
PUBLIC 582fc 0 _ZN3fmt3v116detail17write_significandIcjTnNSt6__ndk19enable_ifIXsr3std11is_integralIT0_EE5valueEiE4typeELi0EEEPT_S9_S5_iiS8_
PUBLIC 58478 0 fmt::v11::detail::digit_grouping<char>::apply<fmt::v11::basic_appender<char>, char>(fmt::v11::basic_appender<char>, fmt::v11::basic_string_view<char>) const
PUBLIC 58830 0 fmt::v11::basic_memory_buffer<int, (unsigned long)500, std::__ndk1::allocator<int> >::grow(fmt::v11::detail::buffer<int>&, unsigned long)
PUBLIC 588d0 0 fmt::v11::detail::do_write_float<char, fmt::v11::basic_appender<char>, fmt::v11::detail::dragonbox::decimal_fp<double>, fmt::v11::detail::digit_grouping<char> >(fmt::v11::basic_appender<char>, fmt::v11::detail::dragonbox::decimal_fp<double> const&, fmt::v11::format_specs const&, fmt::v11::detail::float_specs, fmt::v11::detail::locale_ref)
PUBLIC 59584 0 fmt::v11::detail::do_write_float<char, fmt::v11::basic_appender<char>, fmt::v11::detail::dragonbox::decimal_fp<double>, fmt::v11::detail::digit_grouping<char> >(fmt::v11::basic_appender<char>, fmt::v11::detail::dragonbox::decimal_fp<double> const&, fmt::v11::format_specs const&, fmt::v11::detail::float_specs, fmt::v11::detail::locale_ref)::{lambda(fmt::v11::basic_appender<char>(fmt::v11::basic_appender<char>))#1}::operator() const
PUBLIC 596dc 0 _ZN3fmt3v116detail17write_significandIcmTnNSt6__ndk19enable_ifIXsr3std11is_integralIT0_EE5valueEiE4typeELi0EEEPT_S9_S5_iiS8_
PUBLIC 5986c 0 fmt::v11::detail::write_float<char, fmt::v11::basic_appender<char>, long double>(fmt::v11::basic_appender<char>, long double, fmt::v11::format_specs, fmt::v11::detail::locale_ref)
PUBLIC 5a368 0 fmt::v11::detail::write_padded<char, (fmt::v11::align::type)2, fmt::v11::basic_appender<char>, fmt::v11::detail::write_bytes<char, (fmt::v11::align::type)2, fmt::v11::basic_appender<char> >(fmt::v11::basic_appender<char>, fmt::v11::basic_string_view<char>, fmt::v11::format_specs const&)::{lambda(fmt::v11::basic_appender<char>&)#1}>(fmt::v11::basic_appender<char>, fmt::v11::format_specs const&, unsigned long, unsigned long, fmt::v11::detail::write_bytes<char, (fmt::v11::align::type)2, fmt::v11::basic_appender<char> >(fmt::v11::basic_appender<char>, fmt::v11::basic_string_view<char>, fmt::v11::format_specs const&)::{lambda(fmt::v11::basic_appender<char>&)#1})
PUBLIC 5a544 0 fmt::v11::detail::format_dragon(fmt::v11::detail::basic_fp<unsigned __int128>, unsigned int, int, fmt::v11::detail::buffer<char>&, int&)
PUBLIC 5b974 0 fmt::v11::detail::bigint::operator<<=(int)
PUBLIC 5ba98 0 fmt::v11::detail::bigint::assign_pow10(int)
PUBLIC 5c1f4 0 fmt::v11::detail::bigint::divmod_assign(fmt::v11::detail::bigint const&)
PUBLIC 5c514 0 fmt::v11::basic_memory_buffer<unsigned int, (unsigned long)32, std::__ndk1::allocator<unsigned int> >::grow(fmt::v11::detail::buffer<unsigned int>&, unsigned long)
PUBLIC 5c5b4 0 fmt::v11::detail::do_write_float<char, fmt::v11::basic_appender<char>, fmt::v11::detail::big_decimal_fp, fmt::v11::detail::digit_grouping<char> >(fmt::v11::basic_appender<char>, fmt::v11::detail::big_decimal_fp const&, fmt::v11::format_specs const&, fmt::v11::detail::float_specs, fmt::v11::detail::locale_ref)
PUBLIC 5d464 0 fmt::v11::detail::do_write_float<char, fmt::v11::basic_appender<char>, fmt::v11::detail::big_decimal_fp, fmt::v11::detail::digit_grouping<char> >(fmt::v11::basic_appender<char>, fmt::v11::detail::big_decimal_fp const&, fmt::v11::format_specs const&, fmt::v11::detail::float_specs, fmt::v11::detail::locale_ref)::{lambda(fmt::v11::basic_appender<char>(fmt::v11::basic_appender<char>))#1}::operator() const
PUBLIC 5d5c4 0 fmt::v11::detail::write_padded<char, (fmt::v11::align::type)2, fmt::v11::basic_appender<char>, fmt::v11::detail::write_ptr<char, fmt::v11::basic_appender<char>, unsigned long>(fmt::v11::basic_appender<char>, unsigned long, fmt::v11::format_specs const*)::{lambda(fmt::v11::basic_appender<char>&)#1}>(fmt::v11::basic_appender<char>, fmt::v11::format_specs const&, unsigned long, unsigned long, fmt::v11::detail::write_ptr<char, fmt::v11::basic_appender<char>, unsigned long>(fmt::v11::basic_appender<char>, unsigned long, fmt::v11::format_specs const*)::{lambda(fmt::v11::basic_appender<char>&)#1})
PUBLIC 5d7d8 0 fmt::v11::detail::parse_replacement_field<char, fmt::v11::detail::vformat_to<char>(fmt::v11::detail::buffer<char>&, fmt::v11::basic_string_view<char>, fmt::v11::detail::vformat_args<char>::type, fmt::v11::detail::locale_ref)::format_handler&>(char const*, char const*, fmt::v11::detail::vformat_to<char>(fmt::v11::detail::buffer<char>&, fmt::v11::basic_string_view<char>, fmt::v11::detail::vformat_args<char>::type, fmt::v11::detail::locale_ref)::format_handler&)
PUBLIC 5f474 0 fmt::v11::detail::parse_dynamic_spec<char>(char const*, char const*, int&, fmt::v11::detail::arg_ref<char>&, fmt::v11::basic_format_parse_context<char>&)
PUBLIC 5f704 0 fmt::v11::basic_format_args<fmt::v11::context>::get<char>(fmt::v11::basic_string_view<char>) const
PUBLIC 5f85c 0 fmt::v11::detail::write_int_noinline<char, fmt::v11::basic_appender<char>, unsigned long>(fmt::v11::basic_appender<char>, fmt::v11::detail::write_int_arg<unsigned long>, fmt::v11::format_specs const&, fmt::v11::detail::locale_ref)
PUBLIC 606b0 0 fmt::v11::detail::write_int_noinline<char, fmt::v11::basic_appender<char>, unsigned __int128>(fmt::v11::basic_appender<char>, fmt::v11::detail::write_int_arg<unsigned __int128>, fmt::v11::format_specs const&, fmt::v11::detail::locale_ref)
PUBLIC 61718 0 _ZN3fmt3v116detail15format_hexfloatIdTnNSt6__ndk19enable_ifIXntsr16is_double_doubleIT_EE5valueEiE4typeELi0EEEvS5_NS0_12format_specsERNS1_6bufferIcEE
PUBLIC 61c38 0 fmt::v11::detail::format_float<double>(double, int, fmt::v11::detail::float_specs, fmt::v11::detail::buffer<char>&)
PUBLIC 625d8 0 fmt::v11::detail::write<char, fmt::v11::basic_appender<char> >(fmt::v11::basic_appender<char>, fmt::v11::basic_string_view<char>, fmt::v11::format_specs const&)
PUBLIC 63944 0 fmt::v11::detail::for_each_codepoint<fmt::v11::detail::compute_width(fmt::v11::basic_string_view<char>)::count_code_points>(fmt::v11::basic_string_view<char>, fmt::v11::detail::compute_width(fmt::v11::basic_string_view<char>)::count_code_points)::{lambda(char const*, char const*)#1}::operator()(char const*, char const*) const
PUBLIC 63afc 0 fmt::v11::detail::write_int<fmt::v11::basic_appender<char>, unsigned long, char>(fmt::v11::basic_appender<char>, unsigned long, unsigned int, fmt::v11::format_specs const&, fmt::v11::detail::digit_grouping<char> const&)
PUBLIC 64078 0 fmt::v11::detail::write_int<fmt::v11::basic_appender<char>, unsigned __int128, char>(fmt::v11::basic_appender<char>, unsigned __int128, unsigned int, fmt::v11::format_specs const&, fmt::v11::detail::digit_grouping<char> const&)
PUBLIC 64700 0 <.plt ELF section in user95401.geode-mod-comments.android64.so>
STACK CFI INIT 2f370 10 .cfa: sp 0 +
STACK CFI INIT 2f380 8 .cfa: sp 0 +
STACK CFI INIT 2f388 8 .cfa: sp 0 +
STACK CFI INIT 2f390 14 .cfa: sp 0 +
STACK CFI INIT 2f3a4 1c .cfa: sp 0 +
STACK CFI INIT 2f3c0 10 .cfa: sp 0 +
STACK CFI INIT 2f3d0 134 .cfa: sp 0 +
STACK CFI INIT 2f504 84 .cfa: sp 0 +
STACK CFI INIT 2f588 f4 .cfa: sp 0 +
STACK CFI INIT 2f67c a8 .cfa: sp 0 +
STACK CFI INIT 2f724 7c .cfa: sp 0 +
STACK CFI INIT 2f7a0 14 .cfa: sp 0 +
STACK CFI INIT 2f7b4 40 .cfa: sp 0 +
STACK CFI INIT 2f7f4 28 .cfa: sp 0 +
STACK CFI INIT 2f81c 190 .cfa: sp 0 +
STACK CFI INIT 2f9ac 2c8 .cfa: sp 0 +
STACK CFI INIT 2fc74 8 .cfa: sp 0 +
STACK CFI INIT 2fc7c 8 .cfa: sp 0 +
STACK CFI INIT 2fc84 44 .cfa: sp 0 +
STACK CFI INIT 2fcc8 e8 .cfa: sp 0 +
STACK CFI INIT 2fdb0 e8 .cfa: sp 0 +
STACK CFI INIT 2fe98 14 .cfa: sp 0 +
STACK CFI INIT 2feac 10 .cfa: sp 0 +
STACK CFI INIT 2febc 10 .cfa: sp 0 +
STACK CFI INIT 2fecc f0 .cfa: sp 0 +
STACK CFI INIT 2ffbc 44 .cfa: sp 0 +
STACK CFI INIT 30000 c .cfa: sp 0 +
STACK CFI INIT 3000c c .cfa: sp 0 +
STACK CFI INIT 30018 2c .cfa: sp 0 +
STACK CFI INIT 30044 280 .cfa: sp 0 +
STACK CFI INIT 302c4 c .cfa: sp 0 +
STACK CFI INIT 302d0 120 .cfa: sp 0 +
STACK CFI INIT 303f0 488 .cfa: sp 0 +
STACK CFI INIT 30878 c48 .cfa: sp 0 +
STACK CFI INIT 314c0 134 .cfa: sp 0 +
STACK CFI INIT 315f4 210 .cfa: sp 0 +
STACK CFI INIT 31804 38c .cfa: sp 0 +
STACK CFI INIT 31b90 1c8 .cfa: sp 0 +
STACK CFI INIT 31d58 9bc .cfa: sp 0 +
STACK CFI INIT 32714 2d4 .cfa: sp 0 +
STACK CFI INIT 329e8 134 .cfa: sp 0 +
STACK CFI INIT 32b1c 120 .cfa: sp 0 +
STACK CFI INIT 32c3c 1c8 .cfa: sp 0 +
STACK CFI INIT 32e04 168 .cfa: sp 0 +
STACK CFI INIT 32f6c fc .cfa: sp 0 +
STACK CFI INIT 33068 30 .cfa: sp 0 +
STACK CFI INIT 331d0 30 .cfa: sp 0 +
STACK CFI INIT 33200 98 .cfa: sp 0 +
STACK CFI INIT 33298 59c .cfa: sp 0 +
STACK CFI INIT 33834 8c .cfa: sp 0 +
STACK CFI INIT 338c0 30 .cfa: sp 0 +
STACK CFI INIT 338f0 64 .cfa: sp 0 +
STACK CFI 338f4 .cfa: sp 32 +
STACK CFI 338fc .cfa: x29 32 + x19: .cfa -16 + ^ .ra: .cfa -24 + ^ x29: .cfa -32 + ^
STACK CFI 3393c .cfa: sp 32 +
STACK CFI 33944 .cfa: sp 0 +
STACK CFI 33948 .cfa: sp 32 +
STACK CFI 33950 .cfa: sp 0 +
STACK CFI INIT 34134 8 .cfa: sp 0 +
STACK CFI INIT 345a0 130 .cfa: sp 0 +
STACK CFI 345a4 .cfa: sp 80 +
STACK CFI 345b4 .cfa: x29 48 + x19: .cfa -8 + ^ x20: .cfa -16 + ^ x21: .cfa -24 + ^ x22: .cfa -32 + ^ .ra: .cfa -40 + ^ x29: .cfa -48 + ^
STACK CFI 346b8 .cfa: sp 80 +
STACK CFI 346c8 .cfa: sp 0 +
STACK CFI 346cc .cfa: x29 48 +
STACK CFI INIT 346d0 98 .cfa: sp 0 +
STACK CFI 346d4 .cfa: sp 304 +
STACK CFI 346e0 .cfa: x29 32 + x19: .cfa -8 + ^ x28: .cfa -16 + ^ .ra: .cfa -24 + ^ x29: .cfa -32 + ^
STACK CFI 34754 .cfa: sp 304 +
STACK CFI 34760 .cfa: sp 0 +
STACK CFI 34764 .cfa: x29 32 +
STACK CFI INIT 34988 6c .cfa: sp 0 +
STACK CFI 3498c .cfa: sp 16 +
STACK CFI 34990 .cfa: x29 16 + .ra: .cfa -8 + ^ x29: .cfa -16 + ^
STACK CFI 349e4 .cfa: sp 16 +
STACK CFI 349e8 .cfa: sp 0 +
STACK CFI 349ec .cfa: sp 16 +
STACK CFI 349f0 .cfa: sp 0 +
STACK CFI INIT 349f4 8 .cfa: sp 0 +
STACK CFI INIT 349fc 6c .cfa: sp 0 +
STACK CFI 34a00 .cfa: sp 16 +
STACK CFI 34a04 .cfa: x29 16 + .ra: .cfa -8 + ^ x29: .cfa -16 + ^
STACK CFI 34a58 .cfa: sp 16 +
STACK CFI 34a5c .cfa: sp 0 +
STACK CFI 34a60 .cfa: sp 16 +
STACK CFI 34a64 .cfa: sp 0 +
STACK CFI INIT 3525c 18 .cfa: sp 0 +
STACK CFI INIT 35274 10 .cfa: sp 0 +
STACK CFI 35278 .cfa: sp 16 +
STACK CFI 3527c .cfa: x29 16 + .ra: .cfa -8 + ^ x29: .cfa -16 + ^
STACK CFI INIT 352d4 30 .cfa: sp 0 +
STACK CFI 352d8 .cfa: sp 32 +
STACK CFI 352e0 .cfa: x29 32 + x19: .cfa -16 + ^ .ra: .cfa -24 + ^ x29: .cfa -32 + ^
STACK CFI 352f8 .cfa: sp 32 +
STACK CFI 35300 .cfa: sp 0 +
STACK CFI INIT 35304 34 .cfa: sp 0 +
STACK CFI 35308 .cfa: sp 32 +
STACK CFI 35310 .cfa: x29 32 + x19: .cfa -16 + ^ .ra: .cfa -24 + ^ x29: .cfa -32 + ^
STACK CFI INIT 35338 14 .cfa: sp 0 +
STACK CFI 3533c .cfa: sp 16 +
STACK CFI 35340 .cfa: x29 16 + .ra: .cfa -8 + ^ x29: .cfa -16 + ^
STACK CFI INIT 35560 80 .cfa: sp 0 +
STACK CFI 35564 .cfa: sp 48 +
STACK CFI 35570 .cfa: x29 48 + x19: .cfa -8 + ^ x20: .cfa -16 + ^ x21: .cfa -32 + ^ .ra: .cfa -40 + ^ x29: .cfa -48 + ^
STACK CFI 355d0 .cfa: sp 48 +
STACK CFI 355dc .cfa: sp 0 +
STACK CFI INIT 355e0 8 .cfa: sp 0 +
STACK CFI INIT 355e8 24 .cfa: sp 0 +
STACK CFI 355ec .cfa: sp 32 +
STACK CFI 355f4 .cfa: x29 32 + x19: .cfa -16 + ^ .ra: .cfa -24 + ^ x29: .cfa -32 + ^
STACK CFI 35600 .cfa: sp 32 +
STACK CFI 35608 .cfa: sp 0 +
STACK CFI INIT 3560c 4 .cfa: sp 0 +
STACK CFI INIT 35610 8 .cfa: sp 0 +
STACK CFI INIT 35f5c 8 .cfa: sp 0 +
STACK CFI INIT 35f64 28 .cfa: sp 0 +
STACK CFI 35f68 .cfa: sp 32 +
STACK CFI 35f70 .cfa: x29 32 + x19: .cfa -16 + ^ .ra: .cfa -24 + ^ x29: .cfa -32 + ^
STACK CFI 35f80 .cfa: sp 32 +
STACK CFI 35f88 .cfa: sp 0 +
STACK CFI INIT 35f8c 4 .cfa: sp 0 +
STACK CFI INIT 35f90 4 .cfa: sp 0 +
STACK CFI INIT 35f94 4 .cfa: sp 0 +
STACK CFI INIT 35f98 4 .cfa: sp 0 +
STACK CFI INIT 35f9c 4 .cfa: sp 0 +
STACK CFI INIT 35fa0 8 .cfa: sp 0 +
STACK CFI INIT 35fa8 8 .cfa: sp 0 +
STACK CFI INIT 360c0 50 .cfa: sp 0 +
STACK CFI 360c4 .cfa: sp 32 +
STACK CFI 360cc .cfa: x29 32 + x19: .cfa -16 + ^ .ra: .cfa -24 + ^ x29: .cfa -32 + ^
STACK CFI 360e4 .cfa: sp 32 +
STACK CFI 360ec .cfa: sp 0 +
STACK CFI 360f0 .cfa: x29 32 +
STACK CFI 36104 .cfa: sp 32 +
STACK CFI 3610c .cfa: sp 0 +
STACK CFI INIT 36110 f8 .cfa: sp 0 +
STACK CFI 36114 .cfa: sp 64 +
STACK CFI 36124 .cfa: x29 64 + x19: .cfa -8 + ^ x20: .cfa -16 + ^ x21: .cfa -24 + ^ x22: .cfa -32 + ^ x23: .cfa -48 + ^ .ra: .cfa -56 + ^ x29: .cfa -64 + ^
STACK CFI 36180 .cfa: sp 64 +
STACK CFI 36190 .cfa: sp 0 +
STACK CFI 36194 .cfa: x29 64 +
STACK CFI 361b0 .cfa: sp 64 +
STACK CFI 361c0 .cfa: sp 0 +
STACK CFI 361c4 .cfa: x29 64 +
STACK CFI 361f4 .cfa: sp 64 +
STACK CFI 36204 .cfa: sp 0 +
STACK CFI INIT 3640c 4 .cfa: sp 0 +
STACK CFI INIT 365bc 9c .cfa: sp 0 +
STACK CFI 365c0 .cfa: sp 32 +
STACK CFI 365c8 .cfa: x29 32 + x19: .cfa -8 + ^ x20: .cfa -16 + ^ .ra: .cfa -24 + ^ x29: .cfa -32 + ^
STACK CFI 3664c .cfa: sp 32 +
STACK CFI 36654 .cfa: sp 0 +
STACK CFI INIT 36658 a4 .cfa: sp 0 +
STACK CFI 3665c .cfa: sp 32 +
STACK CFI 36664 .cfa: x29 32 + x19: .cfa -8 + ^ x20: .cfa -16 + ^ .ra: .cfa -24 + ^ x29: .cfa -32 + ^
STACK CFI 366f0 .cfa: sp 32 +
STACK CFI 366f8 .cfa: sp 0 +
STACK CFI INIT 366fc 50 .cfa: sp 0 +
STACK CFI 36700 .cfa: sp 32 +
STACK CFI 36708 .cfa: x29 32 + x19: .cfa -16 + ^ .ra: .cfa -24 + ^ x29: .cfa -32 + ^
STACK CFI 36720 .cfa: sp 32 +
STACK CFI 36728 .cfa: sp 0 +
STACK CFI 3672c .cfa: x29 32 +
STACK CFI 36740 .cfa: sp 32 +
STACK CFI 36748 .cfa: sp 0 +
STACK CFI INIT 3674c 50 .cfa: sp 0 +
STACK CFI 36750 .cfa: sp 32 +
STACK CFI 36758 .cfa: x29 32 + x19: .cfa -16 + ^ .ra: .cfa -24 + ^ x29: .cfa -32 + ^
STACK CFI 36770 .cfa: sp 32 +
STACK CFI 36778 .cfa: sp 0 +
STACK CFI 3677c .cfa: x29 32 +
STACK CFI 36790 .cfa: sp 32 +
STACK CFI 36798 .cfa: sp 0 +
STACK CFI INIT 3679c 5c .cfa: sp 0 +
STACK CFI 367a0 .cfa: sp 32 +
STACK CFI 367a8 .cfa: x29 32 + x19: .cfa -16 + ^ .ra: .cfa -24 + ^ x29: .cfa -32 + ^
STACK CFI 367cc .cfa: sp 32 +
STACK CFI 367d4 .cfa: sp 0 +
STACK CFI 367d8 .cfa: x29 32 +
STACK CFI 367ec .cfa: sp 32 +
STACK CFI 367f4 .cfa: sp 0 +
STACK CFI INIT 367f8 6c .cfa: sp 0 +
STACK CFI 367fc .cfa: sp 32 +
STACK CFI 36804 .cfa: x29 32 + x19: .cfa -8 + ^ x20: .cfa -16 + ^ .ra: .cfa -24 + ^ x29: .cfa -32 + ^
STACK CFI 36830 .cfa: sp 32 +
STACK CFI 36838 .cfa: sp 0 +
STACK CFI 3683c .cfa: x29 32 +
STACK CFI 36858 .cfa: sp 32 +
STACK CFI 36860 .cfa: sp 0 +
STACK CFI INIT 36864 58 .cfa: sp 0 +
STACK CFI 36868 .cfa: sp 32 +
STACK CFI 36870 .cfa: x29 32 + x19: .cfa -8 + ^ x20: .cfa -16 + ^ .ra: .cfa -24 + ^ x29: .cfa -32 + ^
STACK CFI 368b0 .cfa: sp 32 +
STACK CFI 368b8 .cfa: sp 0 +
STACK CFI INIT 368bc 4c .cfa: sp 0 +
STACK CFI 368c0 .cfa: sp 32 +
STACK CFI 368c8 .cfa: x29 32 + x19: .cfa -8 + ^ x20: .cfa -16 + ^ .ra: .cfa -24 + ^ x29: .cfa -32 + ^
STACK CFI 368fc .cfa: sp 32 +
STACK CFI 36904 .cfa: sp 0 +
STACK CFI INIT 36908 50 .cfa: sp 0 +
STACK CFI 3690c .cfa: sp 32 +
STACK CFI 36914 .cfa: x29 32 + x19: .cfa -16 + ^ .ra: .cfa -24 + ^ x29: .cfa -32 + ^
STACK CFI 3692c .cfa: sp 32 +
STACK CFI 36934 .cfa: sp 0 +
STACK CFI 36938 .cfa: x29 32 +
STACK CFI 3694c .cfa: sp 32 +
STACK CFI 36954 .cfa: sp 0 +
STACK CFI INIT 36958 60 .cfa: sp 0 +
STACK CFI 3695c .cfa: sp 32 +
STACK CFI 36964 .cfa: x29 32 + x19: .cfa -8 + ^ x20: .cfa -16 + ^ .ra: .cfa -24 + ^ x29: .cfa -32 + ^
STACK CFI 36984 .cfa: sp 32 +
STACK CFI 3698c .cfa: sp 0 +
STACK CFI 36990 .cfa: x29 32 +
STACK CFI 369ac .cfa: sp 32 +
STACK CFI 369b4 .cfa: sp 0 +
STACK CFI INIT 36b88 1c .cfa: sp 0 +
STACK CFI INIT 36ba4 c .cfa: sp 0 +
STACK CFI INIT 36bb0 60 .cfa: sp 0 +
STACK CFI 36bb4 .cfa: sp 32 +
STACK CFI 36bbc .cfa: x29 32 + x19: .cfa -8 + ^ x20: .cfa -16 + ^ .ra: .cfa -24 + ^ x29: .cfa -32 + ^
STACK CFI 36bdc .cfa: sp 32 +
STACK CFI 36be4 .cfa: sp 0 +
STACK CFI 36be8 .cfa: x29 32 +
STACK CFI 36c04 .cfa: sp 32 +
STACK CFI 36c0c .cfa: sp 0 +
STACK CFI INIT 36c10 70 .cfa: sp 0 +
STACK CFI 36c14 .cfa: sp 32 +
STACK CFI 36c1c .cfa: x29 32 + x19: .cfa -8 + ^ x20: .cfa -16 + ^ .ra: .cfa -24 + ^ x29: .cfa -32 + ^
STACK CFI 36c44 .cfa: sp 32 +
STACK CFI 36c4c .cfa: sp 0 +
STACK CFI 36c50 .cfa: x29 32 +
STACK CFI 36c74 .cfa: sp 32 +
STACK CFI 36c7c .cfa: sp 0 +
STACK CFI INIT 36c80 5c .cfa: sp 0 +
STACK CFI 36c84 .cfa: sp 32 +
STACK CFI 36c8c .cfa: x29 32 + x19: .cfa -16 + ^ .ra: .cfa -24 + ^ x29: .cfa -32 + ^
STACK CFI 36cb0 .cfa: sp 32 +
STACK CFI 36cb8 .cfa: sp 0 +
STACK CFI 36cbc .cfa: x29 32 +
STACK CFI 36cd0 .cfa: sp 32 +
STACK CFI 36cd8 .cfa: sp 0 +
STACK CFI INIT 36cdc 6c .cfa: sp 0 +
STACK CFI 36ce0 .cfa: sp 32 +
STACK CFI 36ce8 .cfa: x29 32 + x19: .cfa -8 + ^ x20: .cfa -16 + ^ .ra: .cfa -24 + ^ x29: .cfa -32 + ^
STACK CFI 36d14 .cfa: sp 32 +
STACK CFI 36d1c .cfa: sp 0 +
STACK CFI 36d20 .cfa: x29 32 +
STACK CFI 36d3c .cfa: sp 32 +
STACK CFI 36d44 .cfa: sp 0 +
STACK CFI INIT 36d48 58 .cfa: sp 0 +
STACK CFI 36d4c .cfa: sp 32 +
STACK CFI 36d54 .cfa: x29 32 + x19: .cfa -8 + ^ x20: .cfa -16 + ^ .ra: .cfa -24 + ^ x29: .cfa -32 + ^
STACK CFI 36d94 .cfa: sp 32 +
STACK CFI 36d9c .cfa: sp 0 +
STACK CFI INIT 36da0 4c .cfa: sp 0 +
STACK CFI 36da4 .cfa: sp 32 +
STACK CFI 36dac .cfa: x29 32 + x19: .cfa -8 + ^ x20: .cfa -16 + ^ .ra: .cfa -24 + ^ x29: .cfa -32 + ^
STACK CFI 36de0 .cfa: sp 32 +
STACK CFI 36de8 .cfa: sp 0 +
STACK CFI INIT 36dec 50 .cfa: sp 0 +
STACK CFI 36df0 .cfa: sp 32 +
STACK CFI 36df8 .cfa: x29 32 + x19: .cfa -16 + ^ .ra: .cfa -24 + ^ x29: .cfa -32 + ^
STACK CFI 36e10 .cfa: sp 32 +
STACK CFI 36e18 .cfa: sp 0 +
STACK CFI 36e1c .cfa: x29 32 +
STACK CFI 36e30 .cfa: sp 32 +
STACK CFI 36e38 .cfa: sp 0 +
STACK CFI INIT 36e3c 60 .cfa: sp 0 +
STACK CFI 36e40 .cfa: sp 32 +
STACK CFI 36e48 .cfa: x29 32 + x19: .cfa -8 + ^ x20: .cfa -16 + ^ .ra: .cfa -24 + ^ x29: .cfa -32 + ^
STACK CFI 36e68 .cfa: sp 32 +
STACK CFI 36e70 .cfa: sp 0 +
STACK CFI 36e74 .cfa: x29 32 +
STACK CFI 36e90 .cfa: sp 32 +
STACK CFI 36e98 .cfa: sp 0 +
STACK CFI INIT 37060 1c .cfa: sp 0 +
STACK CFI INIT 3707c c .cfa: sp 0 +
STACK CFI INIT 37088 34 .cfa: sp 0 +
STACK CFI 3708c .cfa: sp 16 +
STACK CFI 37090 .cfa: x29 16 + .ra: .cfa -8 + ^ x29: .cfa -16 + ^
STACK CFI INIT 370bc 24 .cfa: sp 0 +
STACK CFI 370c0 .cfa: sp 32 +
STACK CFI 370c8 .cfa: x29 32 + x19: .cfa -16 + ^ .ra: .cfa -24 + ^ x29: .cfa -32 + ^
STACK CFI 370d4 .cfa: sp 32 +
STACK CFI 370dc .cfa: sp 0 +
STACK CFI INIT 37278 4 .cfa: sp 0 +
STACK CFI INIT 3727c 40 .cfa: sp 0 +
STACK CFI 37280 .cfa: sp 32 +
STACK CFI 37288 .cfa: x29 32 + x19: .cfa -16 + ^ .ra: .cfa -24 + ^ x29: .cfa -32 + ^
STACK CFI 372b0 .cfa: sp 32 +
STACK CFI 372b8 .cfa: sp 0 +
STACK CFI INIT 372bc 20 .cfa: sp 0 +
STACK CFI INIT 372dc 4 .cfa: sp 0 +
STACK CFI INIT 372e0 4 .cfa: sp 0 +
STACK CFI INIT 37a58 1c .cfa: sp 0 +
STACK CFI INIT 37a74 c .cfa: sp 0 +
STACK CFI INIT 37c6c 34 .cfa: sp 0 +
STACK CFI 37c70 .cfa: sp 16 +
STACK CFI 37c74 .cfa: x29 16 + .ra: .cfa -8 + ^ x29: .cfa -16 + ^
STACK CFI INIT 37ca0 80 .cfa: sp 0 +
STACK CFI 37ca4 .cfa: sp 48 +
STACK CFI 37cb0 .cfa: x29 48 + x19: .cfa -8 + ^ x20: .cfa -16 + ^ x21: .cfa -24 + ^ x22: .cfa -32 + ^ .ra: .cfa -40 + ^ x29: .cfa -48 + ^
STACK CFI 37cc8 .cfa: sp 48 +
STACK CFI 37cd4 .cfa: sp 0 +
STACK CFI 37cd8 .cfa: x29 48 +
STACK CFI 37d08 .cfa: sp 48 +
STACK CFI 37d14 .cfa: sp 0 +
STACK CFI 37d18 .cfa: x29 48 +
STACK CFI INIT 37d20 24 .cfa: sp 0 +
STACK CFI 37d24 .cfa: sp 32 +
STACK CFI 37d2c .cfa: x29 32 + x19: .cfa -16 + ^ .ra: .cfa -24 + ^ x29: .cfa -32 + ^
STACK CFI 37d38 .cfa: sp 32 +
STACK CFI 37d40 .cfa: sp 0 +
STACK CFI INIT 384f8 148 .cfa: sp 0 +
STACK CFI 384fc .cfa: sp 48 +
STACK CFI 38508 .cfa: x29 48 + x19: .cfa -8 + ^ x20: .cfa -16 + ^ x21: .cfa -32 + ^ .ra: .cfa -40 + ^ x29: .cfa -48 + ^
STACK CFI 38630 .cfa: sp 48 +
STACK CFI 3863c .cfa: sp 0 +
STACK CFI INIT 38640 4 .cfa: sp 0 +
STACK CFI INIT 38644 14 .cfa: sp 0 +
STACK CFI INIT 38658 4 .cfa: sp 0 +
STACK CFI INIT 3865c 14 .cfa: sp 0 +
STACK CFI INIT 38968 4 .cfa: sp 0 +
STACK CFI INIT 3896c 24 .cfa: sp 0 +
STACK CFI 38970 .cfa: sp 16 +
STACK CFI 38974 .cfa: x29 16 + .ra: .cfa -8 + ^ x29: .cfa -16 + ^
STACK CFI 38988 .cfa: sp 16 +
STACK CFI 3898c .cfa: sp 0 +
STACK CFI INIT 38990 10 .cfa: sp 0 +
STACK CFI INIT 389a0 4 .cfa: sp 0 +
STACK CFI INIT 389a4 4 .cfa: sp 0 +
STACK CFI INIT 38e34 1c .cfa: sp 0 +
STACK CFI INIT 38e50 c .cfa: sp 0 +
STACK CFI INIT 38fb0 1c .cfa: sp 0 +
STACK CFI INIT 3901c 4c .cfa: sp 0 +
STACK CFI 39020 .cfa: sp 32 +
STACK CFI 39028 .cfa: x29 32 + x19: .cfa -8 + ^ x20: .cfa -16 + ^ .ra: .cfa -24 + ^ x29: .cfa -32 + ^
STACK CFI 39050 .cfa: sp 32 +
STACK CFI 39058 .cfa: sp 0 +
STACK CFI 3905c .cfa: sp 32 +
STACK CFI 39064 .cfa: sp 0 +
STACK CFI INIT 39068 1c .cfa: sp 0 +
STACK CFI INIT 39084 c .cfa: sp 0 +
STACK CFI INIT 39090 8 .cfa: sp 0 +
STACK CFI INIT 39098 14 .cfa: sp 0 +
STACK CFI INIT 390ac 8 .cfa: sp 0 +
STACK CFI INIT 390b4 14 .cfa: sp 0 +
STACK CFI INIT 39448 14 .cfa: sp 0 +
STACK CFI INIT 3945c 14 .cfa: sp 0 +
STACK CFI INIT 39470 4 .cfa: sp 0 +
STACK CFI INIT 39474 14 .cfa: sp 0 +
STACK CFI INIT 39488 5c .cfa: sp 0 +
STACK CFI 3948c .cfa: sp 32 +
STACK CFI 39494 .cfa: x29 32 + x19: .cfa -16 + ^ .ra: .cfa -24 + ^ x29: .cfa -32 + ^
STACK CFI 394d8 .cfa: sp 32 +
STACK CFI 394e0 .cfa: sp 0 +
STACK CFI INIT 394e4 64 .cfa: sp 0 +
STACK CFI 394e8 .cfa: sp 32 +
STACK CFI 394f0 .cfa: x29 32 + x19: .cfa -16 + ^ .ra: .cfa -24 + ^ x29: .cfa -32 + ^
STACK CFI 3953c .cfa: sp 32 +
STACK CFI 39544 .cfa: sp 0 +
STACK CFI INIT 39548 20 .cfa: sp 0 +
STACK CFI 39560 .cfa: sp 16 +
STACK CFI 39564 .cfa: x29 16 + .ra: .cfa -8 + ^ x29: .cfa -16 + ^
STACK CFI INIT 39568 8 .cfa: sp 0 +
STACK CFI INIT 3a46c 44 .cfa: sp 0 +
STACK CFI 3a470 .cfa: sp 32 +
STACK CFI 3a478 .cfa: x29 32 + x19: .cfa -16 + ^ .ra: .cfa -24 + ^ x29: .cfa -32 + ^
STACK CFI 3a494 .cfa: sp 32 +
STACK CFI 3a49c .cfa: sp 0 +
STACK CFI 3a4a0 .cfa: x29 32 +
STACK CFI 3a4a4 .cfa: sp 32 +
STACK CFI 3a4ac .cfa: sp 0 +
STACK CFI INIT 3a5ec 34 .cfa: sp 0 +
STACK CFI 3a5f0 .cfa: sp 16 +
STACK CFI 3a5f4 .cfa: x29 16 + .ra: .cfa -8 + ^ x29: .cfa -16 + ^
STACK CFI INIT 3a620 70 .cfa: sp 0 +
STACK CFI 3a624 .cfa: sp 48 +
STACK CFI 3a630 .cfa: x29 32 + x19: .cfa -16 + ^ .ra: .cfa -24 + ^ x29: .cfa -32 + ^
STACK CFI 3a668 .cfa: sp 48 +
STACK CFI 3a674 .cfa: sp 0 +
STACK CFI 3a678 .cfa: x29 32 +
STACK CFI INIT 3a690 5c .cfa: sp 0 +
STACK CFI 3a694 .cfa: sp 32 +
STACK CFI 3a69c .cfa: x29 32 + x19: .cfa -16 + ^ .ra: .cfa -24 + ^ x29: .cfa -32 + ^
STACK CFI 3a6e0 .cfa: sp 32 +
STACK CFI 3a6e8 .cfa: sp 0 +
STACK CFI INIT 3a6ec 64 .cfa: sp 0 +
STACK CFI 3a6f0 .cfa: sp 32 +
STACK CFI 3a6f8 .cfa: x29 32 + x19: .cfa -16 + ^ .ra: .cfa -24 + ^ x29: .cfa -32 + ^
STACK CFI 3a744 .cfa: sp 32 +
STACK CFI 3a74c .cfa: sp 0 +
STACK CFI INIT 3a750 4 .cfa: sp 0 +
STACK CFI INIT 3a754 50 .cfa: sp 0 +
STACK CFI 3a758 .cfa: sp 32 +
STACK CFI 3a760 .cfa: x29 32 + x19: .cfa -16 + ^ .ra: .cfa -24 + ^ x29: .cfa -32 + ^
STACK CFI 3a788 .cfa: sp 32 +
STACK CFI 3a790 .cfa: sp 0 +
STACK CFI 3a794 .cfa: x29 32 +
STACK CFI 3a798 .cfa: sp 32 +
STACK CFI 3a7a0 .cfa: sp 0 +
STACK CFI INIT 3a7a4 64 .cfa: sp 0 +
STACK CFI 3a7a8 .cfa: sp 32 +
STACK CFI 3a7b0 .cfa: x29 32 + x19: .cfa -16 + ^ .ra: .cfa -24 + ^ x29: .cfa -32 + ^
STACK CFI 3a7d4 .cfa: sp 32 +
STACK CFI 3a7dc .cfa: sp 0 +
STACK CFI 3a7e0 .cfa: x29 32 +
STACK CFI 3a7fc .cfa: sp 32 +
STACK CFI 3a804 .cfa: sp 0 +
STACK CFI INIT 3a9a0 44 .cfa: sp 0 +
STACK CFI 3a9a4 .cfa: sp 32 +
STACK CFI 3a9ac .cfa: x29 32 + x19: .cfa -16 + ^ .ra: .cfa -24 + ^ x29: .cfa -32 + ^
STACK CFI 3a9c8 .cfa: sp 32 +
STACK CFI 3a9d0 .cfa: sp 0 +
STACK CFI 3a9d4 .cfa: x29 32 +
STACK CFI 3a9d8 .cfa: sp 32 +
STACK CFI 3a9e0 .cfa: sp 0 +
STACK CFI INIT 3a9e4 58 .cfa: sp 0 +
STACK CFI 3a9e8 .cfa: sp 32 +
STACK CFI 3a9f0 .cfa: x29 32 + x19: .cfa -16 + ^ .ra: .cfa -24 + ^ x29: .cfa -32 + ^
STACK CFI 3aa08 .cfa: sp 32 +
STACK CFI 3aa10 .cfa: sp 0 +
STACK CFI 3aa14 .cfa: x29 32 +
STACK CFI 3aa30 .cfa: sp 32 +
STACK CFI 3aa38 .cfa: sp 0 +
STACK CFI INIT 3af28 1c .cfa: sp 0 +
STACK CFI INIT 3af44 c .cfa: sp 0 +
STACK CFI INIT 3af50 124 .cfa: sp 0 +
STACK CFI 3af54 .cfa: sp 64 +
STACK CFI 3af64 .cfa: x29 64 + x19: .cfa -8 + ^ x20: .cfa -16 + ^ x21: .cfa -24 + ^ x22: .cfa -32 + ^ x23: .cfa -40 + ^ x24: .cfa -48 + ^ .ra: .cfa -56 + ^ x29: .cfa -64 + ^
STACK CFI 3b060 .cfa: sp 64 +
STACK CFI 3b070 .cfa: sp 0 +
STACK CFI INIT 3b264 54 .cfa: sp 0 +
STACK CFI 3b268 .cfa: sp 32 +
STACK CFI 3b270 .cfa: x29 32 + x19: .cfa -16 + ^ .ra: .cfa -24 + ^ x29: .cfa -32 + ^
STACK CFI 3b2a0 .cfa: sp 32 +
STACK CFI 3b2a8 .cfa: sp 0 +
STACK CFI 3b2ac .cfa: sp 32 +
STACK CFI 3b2b4 .cfa: sp 0 +
STACK CFI INIT 3b2b8 1b0 .cfa: sp 0 +
STACK CFI INIT 3b858 24 .cfa: sp 0 +
STACK CFI 3b85c .cfa: sp 32 +
STACK CFI 3b864 .cfa: x29 32 + x19: .cfa -16 + ^ .ra: .cfa -24 + ^ x29: .cfa -32 + ^
STACK CFI 3b870 .cfa: sp 32 +
STACK CFI 3b878 .cfa: sp 0 +
STACK CFI INIT 3b87c 20 .cfa: sp 0 +
STACK CFI INIT 3b89c 40 .cfa: sp 0 +
STACK CFI 3b8b4 .cfa: sp 32 +
STACK CFI 3b8bc .cfa: x29 32 + x19: .cfa -16 + ^ .ra: .cfa -24 + ^ x29: .cfa -32 + ^
STACK CFI 3b8d0 .cfa: sp 32 +
STACK CFI 3b8d8 .cfa: sp 0 +
STACK CFI INIT 3b968 70 .cfa: sp 0 +
STACK CFI 3b96c .cfa: sp 32 +
STACK CFI 3b974 .cfa: x29 32 + x19: .cfa -8 + ^ x20: .cfa -16 + ^ .ra: .cfa -24 + ^ x29: .cfa -32 + ^
STACK CFI 3b9cc .cfa: sp 32 +
STACK CFI 3b9d4 .cfa: sp 0 +
STACK CFI INIT 3b9d8 14 .cfa: sp 0 +
STACK CFI INIT 3b9ec 34 .cfa: sp 0 +
STACK CFI 3b9f8 .cfa: sp 32 +
STACK CFI 3ba00 .cfa: x29 32 + x19: .cfa -16 + ^ .ra: .cfa -24 + ^ x29: .cfa -32 + ^
STACK CFI 3ba14 .cfa: sp 32 +
STACK CFI 3ba1c .cfa: sp 0 +
STACK CFI INIT 3c8fc 1c .cfa: sp 0 +
STACK CFI INIT 3c918 c .cfa: sp 0 +
STACK CFI INIT 3d574 4 .cfa: sp 0 +
STACK CFI INIT 3d578 4 .cfa: sp 0 +
STACK CFI INIT 3d57c 38 .cfa: sp 0 +
STACK CFI 3d580 .cfa: sp 32 +
STACK CFI 3d588 .cfa: x29 32 + x19: .cfa -16 + ^ .ra: .cfa -24 + ^ x29: .cfa -32 + ^
STACK CFI 3d5a8 .cfa: sp 32 +
STACK CFI 3d5b0 .cfa: sp 0 +
STACK CFI INIT 3d5b4 18 .cfa: sp 0 +
STACK CFI INIT 3d5cc 4 .cfa: sp 0 +
STACK CFI INIT 3d5d0 4 .cfa: sp 0 +
STACK CFI INIT 3d8dc 1c .cfa: sp 0 +
STACK CFI INIT 3d8f8 c .cfa: sp 0 +
STACK CFI INIT 3d904 20 .cfa: sp 0 +
STACK CFI INIT 3d924 40 .cfa: sp 0 +
STACK CFI 3d93c .cfa: sp 32 +
STACK CFI 3d944 .cfa: x29 32 + x19: .cfa -16 + ^ .ra: .cfa -24 + ^ x29: .cfa -32 + ^
STACK CFI 3d958 .cfa: sp 32 +
STACK CFI 3d960 .cfa: sp 0 +
STACK CFI INIT 3da00 54 .cfa: sp 0 +
STACK CFI INIT 3da54 14 .cfa: sp 0 +
STACK CFI INIT 3da68 34 .cfa: sp 0 +
STACK CFI 3da74 .cfa: sp 32 +
STACK CFI 3da7c .cfa: x29 32 + x19: .cfa -16 + ^ .ra: .cfa -24 + ^ x29: .cfa -32 + ^
STACK CFI 3da90 .cfa: sp 32 +
STACK CFI 3da98 .cfa: sp 0 +
STACK CFI INIT 3e16c 1c .cfa: sp 0 +
STACK CFI INIT 3e188 c .cfa: sp 0 +
STACK CFI INIT 3eb14 1c .cfa: sp 0 +
STACK CFI INIT 3eb30 c .cfa: sp 0 +
STACK CFI INIT 3ebb0 4 .cfa: sp 0 +
STACK CFI INIT 3ebb4 14 .cfa: sp 0 +
STACK CFI INIT 3ebc8 4 .cfa: sp 0 +
STACK CFI INIT 3ebcc 34 .cfa: sp 0 +
STACK CFI 3ebd0 .cfa: sp 32 +
STACK CFI 3ebd8 .cfa: x29 32 + x19: .cfa -16 + ^ .ra: .cfa -24 + ^ x29: .cfa -32 + ^
STACK CFI 3ebf4 .cfa: sp 32 +
STACK CFI 3ebfc .cfa: sp 0 +
STACK CFI INIT 3ec00 14 .cfa: sp 0 +
STACK CFI INIT 3ec14 4 .cfa: sp 0 +
STACK CFI INIT 3ec18 4 .cfa: sp 0 +
STACK CFI INIT 3ec1c a0 .cfa: sp 0 +
STACK CFI 3ec20 .cfa: sp 32 +
STACK CFI 3ec28 .cfa: x29 32 + x19: .cfa -8 + ^ x20: .cfa -16 + ^ .ra: .cfa -24 + ^ x29: .cfa -32 + ^
STACK CFI 3ecb0 .cfa: sp 32 +
STACK CFI 3ecb8 .cfa: sp 0 +
STACK CFI INIT 3ecbc 1c .cfa: sp 0 +
STACK CFI INIT 3ecd8 c .cfa: sp 0 +
STACK CFI INIT 3ece4 4 .cfa: sp 0 +
STACK CFI INIT 3ece8 34 .cfa: sp 0 +
STACK CFI 3ecec .cfa: sp 32 +
STACK CFI 3ecf4 .cfa: x29 32 + x19: .cfa -16 + ^ .ra: .cfa -24 + ^ x29: .cfa -32 + ^
STACK CFI 3ed10 .cfa: sp 32 +
STACK CFI 3ed18 .cfa: sp 0 +
STACK CFI INIT 3ed1c 14 .cfa: sp 0 +
STACK CFI INIT 3ed30 4 .cfa: sp 0 +
STACK CFI INIT 3ed34 4 .cfa: sp 0 +
STACK CFI INIT 3ed38 44 .cfa: sp 0 +
STACK CFI 3ed3c .cfa: sp 16 +
STACK CFI 3ed40 .cfa: x29 16 + .ra: .cfa -8 + ^ x29: .cfa -16 + ^
STACK CFI 3ed74 .cfa: sp 16 +
STACK CFI 3ed78 .cfa: sp 0 +
STACK CFI INIT 3ed7c 1c .cfa: sp 0 +
STACK CFI INIT 3ed98 c .cfa: sp 0 +
STACK CFI INIT 3eda4 4 .cfa: sp 0 +
STACK CFI INIT 3eda8 34 .cfa: sp 0 +
STACK CFI 3edac .cfa: sp 32 +
STACK CFI 3edb4 .cfa: x29 32 + x19: .cfa -16 + ^ .ra: .cfa -24 + ^ x29: .cfa -32 + ^
STACK CFI 3edd0 .cfa: sp 32 +
STACK CFI 3edd8 .cfa: sp 0 +
STACK CFI INIT 3eddc 14 .cfa: sp 0 +
STACK CFI INIT 3edf0 4 .cfa: sp 0 +
STACK CFI INIT 3edf4 4 .cfa: sp 0 +
STACK CFI INIT 3edf8 48 .cfa: sp 0 +
STACK CFI 3edfc .cfa: sp 32 +
STACK CFI 3ee04 .cfa: x29 32 + x19: .cfa -16 + ^ .ra: .cfa -24 + ^ x29: .cfa -32 + ^
STACK CFI 3ee34 .cfa: sp 32 +
STACK CFI 3ee3c .cfa: sp 0 +
STACK CFI INIT 3ee40 1c .cfa: sp 0 +
STACK CFI INIT 3ee5c c .cfa: sp 0 +
STACK CFI INIT 3ee68 4 .cfa: sp 0 +
STACK CFI INIT 3ee6c 4 .cfa: sp 0 +
STACK CFI INIT 3ee70 34 .cfa: sp 0 +
STACK CFI 3ee74 .cfa: sp 32 +
STACK CFI 3ee7c .cfa: x29 32 + x19: .cfa -16 + ^ .ra: .cfa -24 + ^ x29: .cfa -32 + ^
STACK CFI 3ee98 .cfa: sp 32 +
STACK CFI 3eea0 .cfa: sp 0 +
STACK CFI INIT 3eea4 14 .cfa: sp 0 +
STACK CFI INIT 3eeb8 4 .cfa: sp 0 +
STACK CFI INIT 3eebc 4 .cfa: sp 0 +
STACK CFI INIT 3eec0 4 .cfa: sp 0 +
STACK CFI INIT 3eec4 1c .cfa: sp 0 +
STACK CFI INIT 3eee0 c .cfa: sp 0 +
STACK CFI INIT 3ef54 d0 .cfa: sp 0 +
STACK CFI 3ef58 .cfa: sp 32 +
STACK CFI 3ef60 .cfa: x29 32 + x19: .cfa -8 + ^ x20: .cfa -16 + ^ .ra: .cfa -24 + ^ x29: .cfa -32 + ^
STACK CFI 3f018 .cfa: sp 32 +
STACK CFI 3f020 .cfa: sp 0 +
STACK CFI INIT 3f024 d8 .cfa: sp 0 +
STACK CFI 3f028 .cfa: sp 32 +
STACK CFI 3f030 .cfa: x29 32 + x19: .cfa -8 + ^ x20: .cfa -16 + ^ .ra: .cfa -24 + ^ x29: .cfa -32 + ^
STACK CFI 3f0f0 .cfa: sp 32 +
STACK CFI 3f0f8 .cfa: sp 0 +
STACK CFI INIT 3f0fc e0 .cfa: sp 0 +
STACK CFI 3f100 .cfa: sp 48 +
STACK CFI 3f10c .cfa: x29 48 + x19: .cfa -8 + ^ x20: .cfa -16 + ^ x21: .cfa -24 + ^ x22: .cfa -32 + ^ .ra: .cfa -40 + ^ x29: .cfa -48 + ^
STACK CFI 3f1cc .cfa: sp 48 +
STACK CFI 3f1d8 .cfa: sp 0 +
STACK CFI INIT 3f1dc e8 .cfa: sp 0 +
STACK CFI 3f1e0 .cfa: sp 48 +
STACK CFI 3f1ec .cfa: x29 48 + x19: .cfa -8 + ^ x20: .cfa -16 + ^ x21: .cfa -24 + ^ x22: .cfa -32 + ^ .ra: .cfa -40 + ^ x29: .cfa -48 + ^
STACK CFI 3f2b4 .cfa: sp 48 +
STACK CFI 3f2c0 .cfa: sp 0 +
STACK CFI INIT 3f3cc 1c .cfa: sp 0 +
STACK CFI INIT 40118 1c .cfa: sp 0 +
STACK CFI INIT 40134 c .cfa: sp 0 +
STACK CFI INIT 40b24 3c8 .cfa: sp 0 +
STACK CFI INIT 40f38 d0 .cfa: sp 0 +
STACK CFI 40f3c .cfa: sp 32 +
STACK CFI 40f44 .cfa: x29 32 + x19: .cfa -8 + ^ x20: .cfa -16 + ^ .ra: .cfa -24 + ^ x29: .cfa -32 + ^
STACK CFI 40ffc .cfa: sp 32 +
STACK CFI 41004 .cfa: sp 0 +
STACK CFI INIT 41008 d8 .cfa: sp 0 +
STACK CFI 4100c .cfa: sp 32 +
STACK CFI 41014 .cfa: x29 32 + x19: .cfa -8 + ^ x20: .cfa -16 + ^ .ra: .cfa -24 + ^ x29: .cfa -32 + ^
STACK CFI 410d4 .cfa: sp 32 +
STACK CFI 410dc .cfa: sp 0 +
STACK CFI INIT 410e0 e0 .cfa: sp 0 +
STACK CFI 410e4 .cfa: sp 48 +
STACK CFI 410f0 .cfa: x29 48 + x19: .cfa -8 + ^ x20: .cfa -16 + ^ x21: .cfa -24 + ^ x22: .cfa -32 + ^ .ra: .cfa -40 + ^ x29: .cfa -48 + ^
STACK CFI 411b0 .cfa: sp 48 +
STACK CFI 411bc .cfa: sp 0 +
STACK CFI INIT 411c0 e8 .cfa: sp 0 +
STACK CFI 411c4 .cfa: sp 48 +
STACK CFI 411d0 .cfa: x29 48 + x19: .cfa -8 + ^ x20: .cfa -16 + ^ x21: .cfa -24 + ^ x22: .cfa -32 + ^ .ra: .cfa -40 + ^ x29: .cfa -48 + ^
STACK CFI 41298 .cfa: sp 48 +
STACK CFI 412a4 .cfa: sp 0 +
STACK CFI INIT 413b0 1c .cfa: sp 0 +
STACK CFI INIT 42a34 1c .cfa: sp 0 +
STACK CFI INIT 42a50 c .cfa: sp 0 +
STACK CFI INIT 42b0c 54 .cfa: sp 0 +
STACK CFI 42b10 .cfa: sp 32 +
STACK CFI 42b18 .cfa: x29 32 + x19: .cfa -8 + ^ x20: .cfa -16 + ^ .ra: .cfa -24 + ^ x29: .cfa -32 + ^
STACK CFI 42b48 .cfa: sp 32 +
STACK CFI 42b50 .cfa: sp 0 +
STACK CFI 42b54 .cfa: sp 32 +
STACK CFI 42b5c .cfa: sp 0 +
STACK CFI INIT 42b60 14 .cfa: sp 0 +
STACK CFI 42b64 .cfa: sp 16 +
STACK CFI 42b68 .cfa: x29 16 + .ra: .cfa -8 + ^ x29: .cfa -16 + ^
STACK CFI INIT 456c4 54 .cfa: sp 0 +
STACK CFI 456c8 .cfa: sp 32 +
STACK CFI 456d0 .cfa: x29 32 + x19: .cfa -16 + ^ .ra: .cfa -24 + ^ x29: .cfa -32 + ^
STACK CFI 4570c .cfa: sp 32 +
STACK CFI 45714 .cfa: sp 0 +
STACK CFI INIT 45718 5c .cfa: sp 0 +
STACK CFI 4571c .cfa: sp 32 +
STACK CFI 45724 .cfa: x29 32 + x19: .cfa -16 + ^ .ra: .cfa -24 + ^ x29: .cfa -32 + ^
STACK CFI 45768 .cfa: sp 32 +
STACK CFI 45770 .cfa: sp 0 +
STACK CFI INIT 45774 54 .cfa: sp 0 +
STACK CFI 45778 .cfa: sp 32 +
STACK CFI 45780 .cfa: x29 32 + x19: .cfa -16 + ^ .ra: .cfa -24 + ^ x29: .cfa -32 + ^
STACK CFI 457bc .cfa: sp 32 +
STACK CFI 457c4 .cfa: sp 0 +
STACK CFI INIT 457c8 5c .cfa: sp 0 +
STACK CFI 457cc .cfa: sp 32 +
STACK CFI 457d4 .cfa: x29 32 + x19: .cfa -16 + ^ .ra: .cfa -24 + ^ x29: .cfa -32 + ^
STACK CFI 45818 .cfa: sp 32 +
STACK CFI 45820 .cfa: sp 0 +
STACK CFI INIT 45cec 50 .cfa: sp 0 +
STACK CFI 45cf0 .cfa: sp 32 +
STACK CFI 45cf8 .cfa: x29 32 + x19: .cfa -16 + ^ .ra: .cfa -24 + ^ x29: .cfa -32 + ^
STACK CFI 45d30 .cfa: sp 32 +
STACK CFI 45d38 .cfa: sp 0 +
STACK CFI INIT 45d3c 58 .cfa: sp 0 +
STACK CFI 45d40 .cfa: sp 32 +
STACK CFI 45d48 .cfa: x29 32 + x19: .cfa -16 + ^ .ra: .cfa -24 + ^ x29: .cfa -32 + ^
STACK CFI 45d88 .cfa: sp 32 +
STACK CFI 45d90 .cfa: sp 0 +
STACK CFI INIT 45ee4 44 .cfa: sp 0 +
STACK CFI 45ee8 .cfa: sp 32 +
STACK CFI 45ef0 .cfa: x29 32 + x19: .cfa -16 + ^ .ra: .cfa -24 + ^ x29: .cfa -32 + ^
STACK CFI 45f0c .cfa: sp 32 +
STACK CFI 45f14 .cfa: sp 0 +
STACK CFI 45f18 .cfa: x29 32 +
STACK CFI 45f1c .cfa: sp 32 +
STACK CFI 45f24 .cfa: sp 0 +
STACK CFI INIT 464b8 10 .cfa: sp 0 +
STACK CFI INIT 464c8 30 .cfa: sp 0 +
STACK CFI 464cc .cfa: sp 32 +
STACK CFI 464d4 .cfa: x29 32 + x19: .cfa -16 + ^ .ra: .cfa -24 + ^ x29: .cfa -32 + ^
STACK CFI 464ec .cfa: sp 32 +
STACK CFI 464f4 .cfa: sp 0 +
STACK CFI INIT 4654c 1c .cfa: sp 0 +
STACK CFI INIT 46568 8 .cfa: sp 0 +
STACK CFI INIT 46570 28 .cfa: sp 0 +
STACK CFI 46574 .cfa: sp 32 +
STACK CFI 4657c .cfa: x29 32 + x19: .cfa -16 + ^ .ra: .cfa -24 + ^ x29: .cfa -32 + ^
STACK CFI 4658c .cfa: sp 32 +
STACK CFI 46594 .cfa: sp 0 +
STACK CFI INIT 46c44 1c .cfa: sp 0 +
STACK CFI INIT 46c60 c .cfa: sp 0 +
STACK CFI INIT 46c6c 4 .cfa: sp 0 +
STACK CFI INIT 46c70 40 .cfa: sp 0 +
STACK CFI 46c74 .cfa: sp 32 +
STACK CFI 46c7c .cfa: x29 32 + x19: .cfa -16 + ^ .ra: .cfa -24 + ^ x29: .cfa -32 + ^
STACK CFI 46ca4 .cfa: sp 32 +
STACK CFI 46cac .cfa: sp 0 +
STACK CFI INIT 46cb0 20 .cfa: sp 0 +
STACK CFI INIT 46cd0 4 .cfa: sp 0 +
STACK CFI INIT 46cd4 4 .cfa: sp 0 +
STACK CFI INIT 4742c 1c .cfa: sp 0 +
STACK CFI INIT 47448 c .cfa: sp 0 +
STACK CFI INIT 47454 4 .cfa: sp 0 +
STACK CFI INIT 47458 14 .cfa: sp 0 +
STACK CFI INIT 4746c 60 .cfa: sp 0 +
STACK CFI 47470 .cfa: sp 32 +
STACK CFI 47478 .cfa: x29 32 + x19: .cfa -16 + ^ .ra: .cfa -24 + ^ x29: .cfa -32 + ^
STACK CFI 474c0 .cfa: sp 32 +
STACK CFI 474c8 .cfa: sp 0 +
STACK CFI INIT 474cc 68 .cfa: sp 0 +
STACK CFI 474d0 .cfa: sp 32 +
STACK CFI 474d8 .cfa: x29 32 + x19: .cfa -16 + ^ .ra: .cfa -24 + ^ x29: .cfa -32 + ^
STACK CFI 47528 .cfa: sp 32 +
STACK CFI 47530 .cfa: sp 0 +
STACK CFI INIT 476f8 58 .cfa: sp 0 +
STACK CFI 476fc .cfa: sp 32 +
STACK CFI 47704 .cfa: x29 32 + x19: .cfa -16 + ^ .ra: .cfa -24 + ^ x29: .cfa -32 + ^
STACK CFI 47744 .cfa: sp 32 +
STACK CFI 4774c .cfa: sp 0 +
STACK CFI INIT 47750 60 .cfa: sp 0 +
STACK CFI 47754 .cfa: sp 32 +
STACK CFI 4775c .cfa: x29 32 + x19: .cfa -16 + ^ .ra: .cfa -24 + ^ x29: .cfa -32 + ^
STACK CFI 477a4 .cfa: sp 32 +
STACK CFI 477ac .cfa: sp 0 +
STACK CFI INIT 47c84 1c .cfa: sp 0 +
STACK CFI INIT 47ca0 c .cfa: sp 0 +
STACK CFI INIT 47cac 5c .cfa: sp 0 +
STACK CFI 47cb0 .cfa: sp 32 +
STACK CFI 47cb8 .cfa: x29 32 + x19: .cfa -16 + ^ .ra: .cfa -24 + ^ x29: .cfa -32 + ^
STACK CFI 47cfc .cfa: sp 32 +
STACK CFI 47d04 .cfa: sp 0 +
STACK CFI INIT 47d08 64 .cfa: sp 0 +
STACK CFI 47d0c .cfa: sp 32 +
STACK CFI 47d14 .cfa: x29 32 + x19: .cfa -16 + ^ .ra: .cfa -24 + ^ x29: .cfa -32 + ^
STACK CFI 47d60 .cfa: sp 32 +
STACK CFI 47d68 .cfa: sp 0 +
STACK CFI INIT 47ee0 50 .cfa: sp 0 +
STACK CFI 47ee4 .cfa: sp 32 +
STACK CFI 47eec .cfa: x29 32 + x19: .cfa -16 + ^ .ra: .cfa -24 + ^ x29: .cfa -32 + ^
STACK CFI 47f24 .cfa: sp 32 +
STACK CFI 47f2c .cfa: sp 0 +
STACK CFI INIT 47f30 58 .cfa: sp 0 +
STACK CFI 47f34 .cfa: sp 32 +
STACK CFI 47f3c .cfa: x29 32 + x19: .cfa -16 + ^ .ra: .cfa -24 + ^ x29: .cfa -32 + ^
STACK CFI 47f7c .cfa: sp 32 +
STACK CFI 47f84 .cfa: sp 0 +
STACK CFI INIT 485fc 1c .cfa: sp 0 +
STACK CFI INIT 48618 c .cfa: sp 0 +
STACK CFI INIT 48698 68 .cfa: sp 0 +
STACK CFI 4869c .cfa: sp 48 +
STACK CFI 486a8 .cfa: x29 48 + x19: .cfa -8 + ^ x20: .cfa -16 + ^ x21: .cfa -32 + ^ .ra: .cfa -40 + ^ x29: .cfa -48 + ^
STACK CFI 486e0 .cfa: sp 48 +
STACK CFI 486ec .cfa: sp 0 +
STACK CFI 486f0 .cfa: sp 48 +
STACK CFI 486fc .cfa: sp 0 +
STACK CFI INIT 48700 14 .cfa: sp 0 +
STACK CFI INIT 48714 ac .cfa: sp 0 +
STACK CFI 48718 .cfa: sp 64 +
STACK CFI 48728 .cfa: x29 64 + x19: .cfa -8 + ^ x20: .cfa -16 + ^ x21: .cfa -24 + ^ x22: .cfa -32 + ^ x23: .cfa -48 + ^ .ra: .cfa -56 + ^ x29: .cfa -64 + ^
STACK CFI 487a4 .cfa: sp 64 +
STACK CFI 487b4 .cfa: sp 0 +
STACK CFI 487b8 .cfa: x29 64 +
STACK CFI INIT 487c0 110 .cfa: sp 0 +
STACK CFI 487c4 .cfa: sp 64 +
STACK CFI 487d4 .cfa: x29 64 + x19: .cfa -8 + ^ x20: .cfa -16 + ^ x21: .cfa -24 + ^ x22: .cfa -32 + ^ x23: .cfa -40 + ^ x24: .cfa -48 + ^ .ra: .cfa -56 + ^ x29: .cfa -64 + ^
STACK CFI 488b4 .cfa: sp 64 +
STACK CFI 488c4 .cfa: sp 0 +
STACK CFI 488c8 .cfa: x29 64 +
STACK CFI INIT 488d0 50 .cfa: sp 0 +
STACK CFI 488d4 .cfa: sp 32 +
STACK CFI 488dc .cfa: x29 32 + x19: .cfa -16 + ^ .ra: .cfa -24 + ^ x29: .cfa -32 + ^
STACK CFI 48904 .cfa: sp 32 +
STACK CFI 4890c .cfa: sp 0 +
STACK CFI 48910 .cfa: x29 32 +
STACK CFI 48914 .cfa: sp 32 +
STACK CFI 4891c .cfa: sp 0 +
STACK CFI INIT 48920 64 .cfa: sp 0 +
STACK CFI 48924 .cfa: sp 32 +
STACK CFI 4892c .cfa: x29 32 + x19: .cfa -16 + ^ .ra: .cfa -24 + ^ x29: .cfa -32 + ^
STACK CFI 48950 .cfa: sp 32 +
STACK CFI 48958 .cfa: sp 0 +
STACK CFI 4895c .cfa: x29 32 +
STACK CFI 48978 .cfa: sp 32 +
STACK CFI 48980 .cfa: sp 0 +
STACK CFI INIT 48b38 44 .cfa: sp 0 +
STACK CFI 48b3c .cfa: sp 32 +
STACK CFI 48b44 .cfa: x29 32 + x19: .cfa -16 + ^ .ra: .cfa -24 + ^ x29: .cfa -32 + ^
STACK CFI 48b60 .cfa: sp 32 +
STACK CFI 48b68 .cfa: sp 0 +
STACK CFI 48b6c .cfa: x29 32 +
STACK CFI 48b70 .cfa: sp 32 +
STACK CFI 48b78 .cfa: sp 0 +
STACK CFI INIT 48b7c 58 .cfa: sp 0 +
STACK CFI 48b80 .cfa: sp 32 +
STACK CFI 48b88 .cfa: x29 32 + x19: .cfa -16 + ^ .ra: .cfa -24 + ^ x29: .cfa -32 + ^
STACK CFI 48ba0 .cfa: sp 32 +
STACK CFI 48ba8 .cfa: sp 0 +
STACK CFI 48bac .cfa: x29 32 +
STACK CFI 48bc8 .cfa: sp 32 +
STACK CFI 48bd0 .cfa: sp 0 +
STACK CFI INIT 48e10 1c .cfa: sp 0 +
STACK CFI INIT 48e2c c .cfa: sp 0 +
STACK CFI INIT 497e8 1c .cfa: sp 0 +
STACK CFI INIT 49804 c .cfa: sp 0 +
STACK CFI INIT 49810 70 .cfa: sp 0 +
STACK CFI 49814 .cfa: sp 48 +
STACK CFI 49820 .cfa: x29 32 + x19: .cfa -16 + ^ .ra: .cfa -24 + ^ x29: .cfa -32 + ^
STACK CFI 49858 .cfa: sp 48 +
STACK CFI 49864 .cfa: sp 0 +
STACK CFI 49868 .cfa: x29 32 +
STACK CFI INIT 49880 5c .cfa: sp 0 +
STACK CFI 49884 .cfa: sp 32 +
STACK CFI 4988c .cfa: x29 32 + x19: .cfa -16 + ^ .ra: .cfa -24 + ^ x29: .cfa -32 + ^
STACK CFI 498d0 .cfa: sp 32 +
STACK CFI 498d8 .cfa: sp 0 +
STACK CFI INIT 498dc 64 .cfa: sp 0 +
STACK CFI 498e0 .cfa: sp 32 +
STACK CFI 498e8 .cfa: x29 32 + x19: .cfa -16 + ^ .ra: .cfa -24 + ^ x29: .cfa -32 + ^
STACK CFI 49934 .cfa: sp 32 +
STACK CFI 4993c .cfa: sp 0 +
STACK CFI INIT 49a10 44 .cfa: sp 0 +
STACK CFI 49a14 .cfa: sp 32 +
STACK CFI 49a1c .cfa: x29 32 + x19: .cfa -8 + ^ x20: .cfa -16 + ^ .ra: .cfa -24 + ^ x29: .cfa -32 + ^
STACK CFI 49a48 .cfa: sp 32 +
STACK CFI 49a50 .cfa: sp 0 +
STACK CFI INIT 4a510 1c .cfa: sp 0 +
STACK CFI INIT 4a52c c .cfa: sp 0 +
STACK CFI INIT 4a63c 40 .cfa: sp 0 +
STACK CFI 4a640 .cfa: sp 32 +
STACK CFI 4a648 .cfa: x29 32 + x19: .cfa -8 + ^ x20: .cfa -16 + ^ .ra: .cfa -24 + ^ x29: .cfa -32 + ^
STACK CFI 4a670 .cfa: sp 32 +
STACK CFI 4a678 .cfa: sp 0 +
STACK CFI INIT 4aa3c 1c .cfa: sp 0 +
STACK CFI INIT 4aa58 c .cfa: sp 0 +
STACK CFI INIT 4aa64 9c .cfa: sp 0 +
STACK CFI 4aa68 .cfa: sp 32 +
STACK CFI 4aa70 .cfa: x29 32 + x19: .cfa -16 + ^ .ra: .cfa -24 + ^ x29: .cfa -32 + ^
STACK CFI 4aac0 .cfa: sp 32 +
STACK CFI 4aac8 .cfa: sp 0 +
STACK CFI 4aacc .cfa: x29 32 +
STACK CFI 4aad0 .cfa: sp 32 +
STACK CFI 4aad8 .cfa: sp 0 +
STACK CFI 4aadc .cfa: x29 32 +
STACK CFI 4aaf0 .cfa: sp 32 +
STACK CFI 4aaf8 .cfa: sp 0 +
STACK CFI 4aafc .cfa: x29 32 +
STACK CFI INIT 4ab00 6c .cfa: sp 0 +
STACK CFI 4ab04 .cfa: sp 32 +
STACK CFI 4ab0c .cfa: x29 32 + x19: .cfa -16 + ^ .ra: .cfa -24 + ^ x29: .cfa -32 + ^
STACK CFI 4ab60 .cfa: sp 32 +
STACK CFI 4ab68 .cfa: sp 0 +
STACK CFI INIT 4ab6c 74 .cfa: sp 0 +
STACK CFI 4ab70 .cfa: sp 32 +
STACK CFI 4ab78 .cfa: x29 32 + x19: .cfa -16 + ^ .ra: .cfa -24 + ^ x29: .cfa -32 + ^
STACK CFI 4abd4 .cfa: sp 32 +
STACK CFI 4abdc .cfa: sp 0 +
STACK CFI INIT 4abe0 c .cfa: sp 0 +
STACK CFI INIT 4abec c .cfa: sp 0 +
STACK CFI INIT 4abf8 8 .cfa: sp 0 +
STACK CFI INIT 4ac00 8 .cfa: sp 0 +
STACK CFI INIT 4ac08 8 .cfa: sp 0 +
STACK CFI INIT 4ac10 8 .cfa: sp 0 +
STACK CFI INIT 4ac18 4 .cfa: sp 0 +
STACK CFI INIT 4ac1c 4 .cfa: sp 0 +
STACK CFI INIT 4ac20 38 .cfa: sp 0 +
STACK CFI 4ac24 .cfa: sp 32 +
STACK CFI 4ac2c .cfa: x29 32 + x19: .cfa -16 + ^ .ra: .cfa -24 + ^ x29: .cfa -32 + ^
STACK CFI 4ac4c .cfa: sp 32 +
STACK CFI 4ac54 .cfa: sp 0 +
STACK CFI INIT 4ac58 18 .cfa: sp 0 +
STACK CFI INIT 4ac70 4 .cfa: sp 0 +
STACK CFI INIT 4ac74 4 .cfa: sp 0 +
STACK CFI INIT 4ac78 54 .cfa: sp 0 +
STACK CFI 4ac7c .cfa: sp 32 +
STACK CFI 4ac84 .cfa: x29 32 + x19: .cfa -16 + ^ .ra: .cfa -24 + ^ x29: .cfa -32 + ^
STACK CFI 4aca8 .cfa: sp 32 +
STACK CFI 4acb0 .cfa: sp 0 +
STACK CFI 4acb4 .cfa: x29 32 +
STACK CFI 4acc0 .cfa: sp 32 +
STACK CFI 4acc8 .cfa: sp 0 +
STACK CFI INIT 4accc 1c .cfa: sp 0 +
STACK CFI INIT 4ace8 c .cfa: sp 0 +
STACK CFI INIT 4adc4 44 .cfa: sp 0 +
STACK CFI 4adc8 .cfa: sp 32 +
STACK CFI 4add0 .cfa: x29 32 + x19: .cfa -8 + ^ x20: .cfa -16 + ^ .ra: .cfa -24 + ^ x29: .cfa -32 + ^
STACK CFI 4adfc .cfa: sp 32 +
STACK CFI 4ae04 .cfa: sp 0 +
STACK CFI INIT 4b508 1c .cfa: sp 0 +
STACK CFI INIT 4b524 c .cfa: sp 0 +
STACK CFI INIT 4b698 48 .cfa: sp 0 +
STACK CFI 4b6a0 .cfa: sp 32 +
STACK CFI 4b6a8 .cfa: x29 32 + x19: .cfa -16 + ^ .ra: .cfa -24 + ^ x29: .cfa -32 + ^
STACK CFI 4b6d0 .cfa: sp 32 +
STACK CFI 4b6d8 .cfa: sp 0 +
STACK CFI INIT 4b7a4 1c .cfa: sp 0 +
STACK CFI INIT 4bb90 1c .cfa: sp 0 +
STACK CFI INIT 4bbac c .cfa: sp 0 +
STACK CFI INIT 4bbb8 4 .cfa: sp 0 +
STACK CFI INIT 4bbbc 24 .cfa: sp 0 +
STACK CFI 4bbc0 .cfa: sp 16 +
STACK CFI 4bbc4 .cfa: x29 16 + .ra: .cfa -8 + ^ x29: .cfa -16 + ^
STACK CFI 4bbd8 .cfa: sp 16 +
STACK CFI 4bbdc .cfa: sp 0 +
STACK CFI INIT 4bbe0 10 .cfa: sp 0 +
STACK CFI INIT 4bbf0 4 .cfa: sp 0 +
STACK CFI INIT 4bbf4 4 .cfa: sp 0 +
STACK CFI INIT 4c40c 1c .cfa: sp 0 +
STACK CFI INIT 4c428 c .cfa: sp 0 +
STACK CFI INIT 4c434 70 .cfa: sp 0 +
STACK CFI 4c438 .cfa: sp 48 +
STACK CFI 4c444 .cfa: x29 32 + x19: .cfa -16 + ^ .ra: .cfa -24 + ^ x29: .cfa -32 + ^
STACK CFI 4c47c .cfa: sp 48 +
STACK CFI 4c488 .cfa: sp 0 +
STACK CFI 4c48c .cfa: x29 32 +
STACK CFI INIT 4c4a4 5c .cfa: sp 0 +
STACK CFI 4c4a8 .cfa: sp 32 +
STACK CFI 4c4b0 .cfa: x29 32 + x19: .cfa -16 + ^ .ra: .cfa -24 + ^ x29: .cfa -32 + ^
STACK CFI 4c4f4 .cfa: sp 32 +
STACK CFI 4c4fc .cfa: sp 0 +
STACK CFI INIT 4c500 64 .cfa: sp 0 +
STACK CFI 4c504 .cfa: sp 32 +
STACK CFI 4c50c .cfa: x29 32 + x19: .cfa -16 + ^ .ra: .cfa -24 + ^ x29: .cfa -32 + ^
STACK CFI 4c558 .cfa: sp 32 +
STACK CFI 4c560 .cfa: sp 0 +
STACK CFI INIT 4c564 10 .cfa: sp 0 +
STACK CFI INIT 4c574 30 .cfa: sp 0 +
STACK CFI 4c578 .cfa: sp 32 +
STACK CFI 4c580 .cfa: x29 32 + x19: .cfa -16 + ^ .ra: .cfa -24 + ^ x29: .cfa -32 + ^
STACK CFI 4c598 .cfa: sp 32 +
STACK CFI 4c5a0 .cfa: sp 0 +
STACK CFI INIT 4c5f8 1c .cfa: sp 0 +
STACK CFI INIT 4c614 8 .cfa: sp 0 +
STACK CFI INIT 4c61c 28 .cfa: sp 0 +
STACK CFI 4c620 .cfa: sp 32 +
STACK CFI 4c628 .cfa: x29 32 + x19: .cfa -16 + ^ .ra: .cfa -24 + ^ x29: .cfa -32 + ^
STACK CFI 4c638 .cfa: sp 32 +
STACK CFI 4c640 .cfa: sp 0 +
STACK CFI INIT 4cd0c 1c .cfa: sp 0 +
STACK CFI INIT 4cd28 c .cfa: sp 0 +
STACK CFI INIT 4cd34 50 .cfa: sp 0 +
STACK CFI 4cd58 .cfa: sp 32 +
STACK CFI 4cd60 .cfa: x29 32 + x19: .cfa -16 + ^ .ra: .cfa -24 + ^ x29: .cfa -32 + ^
STACK CFI 4cd74 .cfa: sp 32 +
STACK CFI 4cd7c .cfa: sp 0 +
STACK CFI INIT 4cd84 4 .cfa: sp 0 +
STACK CFI INIT 4cd88 4 .cfa: sp 0 +
STACK CFI INIT 4cd8c 24 .cfa: sp 0 +
STACK CFI 4cd90 .cfa: sp 16 +
STACK CFI 4cd94 .cfa: x29 16 + .ra: .cfa -8 + ^ x29: .cfa -16 + ^
STACK CFI 4cda8 .cfa: sp 16 +
STACK CFI 4cdac .cfa: sp 0 +
STACK CFI INIT 4cdb0 10 .cfa: sp 0 +
STACK CFI INIT 4cdc0 4 .cfa: sp 0 +
STACK CFI INIT 4cdc4 4 .cfa: sp 0 +
STACK CFI INIT 4d150 1c .cfa: sp 0 +
STACK CFI INIT 4d16c c .cfa: sp 0 +
STACK CFI INIT 4d178 4 .cfa: sp 0 +
STACK CFI INIT 4d17c 4 .cfa: sp 0 +
STACK CFI INIT 4d180 24 .cfa: sp 0 +
STACK CFI 4d184 .cfa: sp 16 +
STACK CFI 4d188 .cfa: x29 16 + .ra: .cfa -8 + ^ x29: .cfa -16 + ^
STACK CFI 4d19c .cfa: sp 16 +
STACK CFI 4d1a0 .cfa: sp 0 +
STACK CFI INIT 4d1a4 10 .cfa: sp 0 +
STACK CFI INIT 4d1b4 4 .cfa: sp 0 +
STACK CFI INIT 4d1b8 4 .cfa: sp 0 +
STACK CFI INIT 4d1bc 4 .cfa: sp 0 +
STACK CFI INIT 4d1c0 1c .cfa: sp 0 +
STACK CFI INIT 4d1dc c .cfa: sp 0 +
STACK CFI INIT 4d2ac 1c .cfa: sp 0 +
STACK CFI INIT 4d318 38 .cfa: sp 0 +
STACK CFI 4d31c .cfa: sp 32 +
STACK CFI 4d324 .cfa: x29 32 + x19: .cfa -16 + ^ .ra: .cfa -24 + ^ x29: .cfa -32 + ^
STACK CFI 4d344 .cfa: sp 32 +
STACK CFI 4d34c .cfa: sp 0 +
STACK CFI INIT 4d350 1c .cfa: sp 0 +
STACK CFI INIT 4d36c c .cfa: sp 0 +
STACK CFI INIT 4d778 1c .cfa: sp 0 +
STACK CFI INIT 4d794 c .cfa: sp 0 +
STACK CFI INIT 4dba8 50 .cfa: sp 0 +
STACK CFI 4dbac .cfa: sp 32 +
STACK CFI 4dbb4 .cfa: x29 32 + x19: .cfa -16 + ^ .ra: .cfa -24 + ^ x29: .cfa -32 + ^
STACK CFI 4dbcc .cfa: sp 32 +
STACK CFI 4dbd4 .cfa: sp 0 +
STACK CFI 4dbd8 .cfa: x29 32 +
STACK CFI 4dbec .cfa: sp 32 +
STACK CFI 4dbf4 .cfa: sp 0 +
STACK CFI INIT 4dc6c 7c .cfa: sp 0 +
STACK CFI 4dc70 .cfa: sp 48 +
STACK CFI 4dc7c .cfa: x29 48 + x19: .cfa -8 + ^ x20: .cfa -16 + ^ x21: .cfa -32 + ^ .ra: .cfa -40 + ^ x29: .cfa -48 + ^
STACK CFI 4dcc8 .cfa: sp 48 +
STACK CFI 4dcd4 .cfa: sp 0 +
STACK CFI 4dcd8 .cfa: sp 48 +
STACK CFI 4dce4 .cfa: sp 0 +
STACK CFI INIT 4dce8 4 .cfa: sp 0 +
STACK CFI INIT 4de40 68 .cfa: sp 0 +
STACK CFI 4de44 .cfa: sp 32 +
STACK CFI 4de4c .cfa: x29 32 + x19: .cfa -8 + ^ x20: .cfa -16 + ^ .ra: .cfa -24 + ^ x29: .cfa -32 + ^
STACK CFI 4de64 .cfa: sp 32 +
STACK CFI 4de6c .cfa: sp 0 +
STACK CFI 4de70 .cfa: x29 32 +
STACK CFI 4de9c .cfa: sp 32 +
STACK CFI 4dea4 .cfa: sp 0 +
STACK CFI INIT 4dea8 14 .cfa: sp 0 +
STACK CFI 4deac .cfa: sp 16 +
STACK CFI 4deb0 .cfa: x29 16 + .ra: .cfa -8 + ^ x29: .cfa -16 + ^
STACK CFI INIT 4debc 4 .cfa: sp 0 +
STACK CFI INIT 4dec0 14 .cfa: sp 0 +
STACK CFI INIT 4ded4 84 .cfa: sp 0 +
STACK CFI 4dedc .cfa: sp 32 +
STACK CFI 4dee4 .cfa: x29 32 + x19: .cfa -8 + ^ x20: .cfa -16 + ^ .ra: .cfa -24 + ^ x29: .cfa -32 + ^
STACK CFI 4df24 .cfa: sp 32 +
STACK CFI 4df2c .cfa: sp 0 +
STACK CFI 4df34 .cfa: x29 32 +
STACK CFI INIT 4df58 3c .cfa: sp 0 +
STACK CFI 4df5c .cfa: sp 32 +
STACK CFI 4df64 .cfa: x29 32 + x19: .cfa -8 + ^ x20: .cfa -16 + ^ .ra: .cfa -24 + ^ x29: .cfa -32 + ^
STACK CFI 4df88 .cfa: sp 32 +
STACK CFI 4df90 .cfa: sp 0 +
STACK CFI INIT 4e03c 9c .cfa: sp 0 +
STACK CFI INIT 4e0d8 50 .cfa: sp 0 +
STACK CFI 4e0dc .cfa: sp 32 +
STACK CFI 4e0e4 .cfa: x29 32 + x19: .cfa -16 + ^ .ra: .cfa -24 + ^ x29: .cfa -32 + ^
STACK CFI 4e0fc .cfa: sp 32 +
STACK CFI 4e104 .cfa: sp 0 +
STACK CFI 4e108 .cfa: x29 32 +
STACK CFI 4e11c .cfa: sp 32 +
STACK CFI 4e124 .cfa: sp 0 +
STACK CFI INIT 4e128 64 .cfa: sp 0 +
STACK CFI 4e12c .cfa: sp 32 +
STACK CFI 4e134 .cfa: x29 32 + x19: .cfa -16 + ^ .ra: .cfa -24 + ^ x29: .cfa -32 + ^
STACK CFI 4e160 .cfa: sp 32 +
STACK CFI 4e168 .cfa: sp 0 +
STACK CFI 4e16c .cfa: x29 32 +
STACK CFI 4e180 .cfa: sp 32 +
STACK CFI 4e188 .cfa: sp 0 +
STACK CFI INIT 4e18c 50 .cfa: sp 0 +
STACK CFI 4e194 .cfa: sp 32 +
STACK CFI 4e19c .cfa: x29 32 + x19: .cfa -16 + ^ .ra: .cfa -24 + ^ x29: .cfa -32 + ^
STACK CFI 4e1cc .cfa: sp 32 +
STACK CFI 4e1d4 .cfa: sp 0 +
STACK CFI INIT 4e1dc 4 .cfa: sp 0 +
STACK CFI INIT 4e370 5c .cfa: sp 0 +
STACK CFI 4e374 .cfa: sp 32 +
STACK CFI 4e37c .cfa: x29 32 + x19: .cfa -16 + ^ .ra: .cfa -24 + ^ x29: .cfa -32 + ^
STACK CFI 4e3c0 .cfa: sp 32 +
STACK CFI 4e3c8 .cfa: sp 0 +
STACK CFI INIT 4e3cc 64 .cfa: sp 0 +
STACK CFI 4e3d0 .cfa: sp 32 +
STACK CFI 4e3d8 .cfa: x29 32 + x19: .cfa -16 + ^ .ra: .cfa -24 + ^ x29: .cfa -32 + ^
STACK CFI 4e424 .cfa: sp 32 +
STACK CFI 4e42c .cfa: sp 0 +
STACK CFI INIT 4e430 4 .cfa: sp 0 +
STACK CFI INIT 4e434 4 .cfa: sp 0 +
STACK CFI INIT 4e438 34 .cfa: sp 0 +
STACK CFI 4e43c .cfa: sp 32 +
STACK CFI 4e444 .cfa: x29 32 + x19: .cfa -16 + ^ .ra: .cfa -24 + ^ x29: .cfa -32 + ^
STACK CFI 4e460 .cfa: sp 32 +
STACK CFI 4e468 .cfa: sp 0 +
STACK CFI INIT 4e46c 14 .cfa: sp 0 +
STACK CFI INIT 4e480 4 .cfa: sp 0 +
STACK CFI INIT 4e484 4 .cfa: sp 0 +
STACK CFI INIT 4e488 10 .cfa: sp 0 +
STACK CFI INIT 4e498 1c .cfa: sp 0 +
STACK CFI INIT 4e4b4 c .cfa: sp 0 +
STACK CFI INIT 4e598 3c .cfa: sp 0 +
STACK CFI 4e59c .cfa: sp 32 +
STACK CFI 4e5a4 .cfa: x29 32 + x19: .cfa -16 + ^ .ra: .cfa -24 + ^ x29: .cfa -32 + ^
STACK CFI 4e5b0 .cfa: sp 32 +
STACK CFI 4e5b8 .cfa: sp 0 +
STACK CFI 4e5bc .cfa: x29 32 +
STACK CFI 4e5c8 .cfa: sp 32 +
STACK CFI 4e5d0 .cfa: sp 0 +
STACK CFI INIT 4e5d4 4c .cfa: sp 0 +
STACK CFI 4e5d8 .cfa: sp 32 +
STACK CFI 4e5e0 .cfa: x29 32 + x19: .cfa -8 + ^ x20: .cfa -16 + ^ .ra: .cfa -24 + ^ x29: .cfa -32 + ^
STACK CFI 4e608 .cfa: sp 32 +
STACK CFI 4e610 .cfa: sp 0 +
STACK CFI 4e614 .cfa: sp 32 +
STACK CFI 4e61c .cfa: sp 0 +
STACK CFI INIT 4e840 64 .cfa: sp 0 +
STACK CFI 4e844 .cfa: sp 32 +
STACK CFI 4e84c .cfa: x29 32 + x19: .cfa -16 + ^ .ra: .cfa -24 + ^ x29: .cfa -32 + ^
STACK CFI 4e878 .cfa: sp 32 +
STACK CFI 4e880 .cfa: sp 0 +
STACK CFI 4e884 .cfa: x29 32 +
STACK CFI 4e898 .cfa: sp 32 +
STACK CFI 4e8a0 .cfa: sp 0 +
STACK CFI INIT 4eac8 24 .cfa: sp 0 +
STACK CFI 4eacc .cfa: sp 32 +
STACK CFI 4ead4 .cfa: x29 32 + x19: .cfa -16 + ^ .ra: .cfa -24 + ^ x29: .cfa -32 + ^
STACK CFI 4eae0 .cfa: sp 32 +
STACK CFI 4eae8 .cfa: sp 0 +
STACK CFI INIT 4ed48 24 .cfa: sp 0 +
STACK CFI 4ed4c .cfa: sp 32 +
STACK CFI 4ed54 .cfa: x29 32 + x19: .cfa -16 + ^ .ra: .cfa -24 + ^ x29: .cfa -32 + ^
STACK CFI 4ed60 .cfa: sp 32 +
STACK CFI 4ed68 .cfa: sp 0 +
STACK CFI INIT 4ed6c 24 .cfa: sp 0 +
STACK CFI 4ed70 .cfa: sp 32 +
STACK CFI 4ed78 .cfa: x29 32 + x19: .cfa -16 + ^ .ra: .cfa -24 + ^ x29: .cfa -32 + ^
STACK CFI 4ed84 .cfa: sp 32 +
STACK CFI 4ed8c .cfa: sp 0 +
STACK CFI INIT 4efb4 24 .cfa: sp 0 +
STACK CFI 4efb8 .cfa: sp 32 +
STACK CFI 4efc0 .cfa: x29 32 + x19: .cfa -16 + ^ .ra: .cfa -24 + ^ x29: .cfa -32 + ^
STACK CFI 4efcc .cfa: sp 32 +
STACK CFI 4efd4 .cfa: sp 0 +
STACK CFI INIT 4f4cc 8 .cfa: sp 0 +
STACK CFI INIT 4f4d4 24 .cfa: sp 0 +
STACK CFI 4f4d8 .cfa: sp 32 +
STACK CFI 4f4e0 .cfa: x29 32 + x19: .cfa -16 + ^ .ra: .cfa -24 + ^ x29: .cfa -32 + ^
STACK CFI 4f4ec .cfa: sp 32 +
STACK CFI 4f4f4 .cfa: sp 0 +
STACK CFI INIT 4f4f8 28 .cfa: sp 0 +
STACK CFI 4f4fc .cfa: sp 32 +
STACK CFI 4f504 .cfa: x29 32 + x19: .cfa -16 + ^ .ra: .cfa -24 + ^ x29: .cfa -32 + ^
STACK CFI 4f514 .cfa: sp 32 +
STACK CFI 4f51c .cfa: sp 0 +
STACK CFI INIT 4f820 8 .cfa: sp 0 +
STACK CFI INIT 4f828 24 .cfa: sp 0 +
STACK CFI 4f82c .cfa: sp 32 +
STACK CFI 4f834 .cfa: x29 32 + x19: .cfa -16 + ^ .ra: .cfa -24 + ^ x29: .cfa -32 + ^
STACK CFI 4f840 .cfa: sp 32 +
STACK CFI 4f848 .cfa: sp 0 +
STACK CFI INIT 4f84c 28 .cfa: sp 0 +
STACK CFI 4f850 .cfa: sp 32 +
STACK CFI 4f858 .cfa: x29 32 + x19: .cfa -16 + ^ .ra: .cfa -24 + ^ x29: .cfa -32 + ^
STACK CFI 4f868 .cfa: sp 32 +
STACK CFI 4f870 .cfa: sp 0 +
STACK CFI INIT 4fad8 8 .cfa: sp 0 +
STACK CFI INIT 4fae0 24 .cfa: sp 0 +
STACK CFI 4fae4 .cfa: sp 32 +
STACK CFI 4faec .cfa: x29 32 + x19: .cfa -16 + ^ .ra: .cfa -24 + ^ x29: .cfa -32 + ^
STACK CFI 4faf8 .cfa: sp 32 +
STACK CFI 4fb00 .cfa: sp 0 +
STACK CFI INIT 4fb04 28 .cfa: sp 0 +
STACK CFI 4fb08 .cfa: sp 32 +
STACK CFI 4fb10 .cfa: x29 32 + x19: .cfa -16 + ^ .ra: .cfa -24 + ^ x29: .cfa -32 + ^
STACK CFI 4fb20 .cfa: sp 32 +
STACK CFI 4fb28 .cfa: sp 0 +
STACK CFI INIT 4fd8c 24 .cfa: sp 0 +
STACK CFI 4fd90 .cfa: sp 32 +
STACK CFI 4fd98 .cfa: x29 32 + x19: .cfa -16 + ^ .ra: .cfa -24 + ^ x29: .cfa -32 + ^
STACK CFI 4fda4 .cfa: sp 32 +
STACK CFI 4fdac .cfa: sp 0 +
STACK CFI INIT 4fdb0 8 .cfa: sp 0 +
STACK CFI INIT 4fdb8 24 .cfa: sp 0 +
STACK CFI 4fdbc .cfa: sp 32 +
STACK CFI 4fdc4 .cfa: x29 32 + x19: .cfa -16 + ^ .ra: .cfa -24 + ^ x29: .cfa -32 + ^
STACK CFI 4fdd0 .cfa: sp 32 +
STACK CFI 4fdd8 .cfa: sp 0 +
STACK CFI INIT 4fddc 28 .cfa: sp 0 +
STACK CFI 4fde0 .cfa: sp 32 +
STACK CFI 4fde8 .cfa: x29 32 + x19: .cfa -16 + ^ .ra: .cfa -24 + ^ x29: .cfa -32 + ^
STACK CFI 4fdf8 .cfa: sp 32 +
STACK CFI 4fe00 .cfa: sp 0 +
STACK CFI INIT 506a0 4 .cfa: sp 0 +
STACK CFI INIT 506a4 8 .cfa: sp 0 +
STACK CFI INIT 506ac 4 .cfa: sp 0 +
STACK CFI INIT 506b0 8 .cfa: sp 0 +
STACK CFI INIT 51858 4 .cfa: sp 0 +
STACK CFI INIT 5185c 14 .cfa: sp 0 +
STACK CFI INIT 51d7c c .cfa: sp 0 +
STACK CFI INIT 51d88 24c .cfa: sp 0 +
STACK CFI INIT 51fd4 a0 .cfa: sp 0 +
STACK CFI 51fe0 .cfa: sp 32 +
STACK CFI 52038 .cfa: sp 0 +
STACK CFI 5203c .cfa: sp 32 +
STACK CFI 52044 .cfa: sp 0 +
STACK CFI 52048 .cfa: sp 32 +
STACK CFI 5205c .cfa: sp 0 +
STACK CFI 52060 .cfa: sp 32 +
STACK CFI 52070 .cfa: sp 0 +
STACK CFI INIT 52074 38 .cfa: sp 0 +
STACK CFI 52080 .cfa: sp 32 +
STACK CFI 520a8 .cfa: sp 0 +
STACK CFI INIT 52340 7c .cfa: sp 0 +
STACK CFI 52344 .cfa: sp 32 +
STACK CFI 5234c .cfa: x29 32 + x19: .cfa -16 + ^ .ra: .cfa -24 + ^ x29: .cfa -32 + ^
STACK CFI 52378 .cfa: sp 32 +
STACK CFI 52380 .cfa: sp 0 +
STACK CFI 52384 .cfa: x29 32 +
STACK CFI 523b0 .cfa: sp 32 +
STACK CFI 523b8 .cfa: sp 0 +
STACK CFI INIT 5240c 2c .cfa: sp 0 +
STACK CFI 52410 .cfa: sp 32 +
STACK CFI 52418 .cfa: x29 32 + x19: .cfa -16 + ^ .ra: .cfa -24 + ^ x29: .cfa -32 + ^
STACK CFI 5242c .cfa: sp 32 +
STACK CFI 52434 .cfa: sp 0 +
STACK CFI INIT 52bf8 64 .cfa: sp 0 +
STACK CFI 52bfc .cfa: sp 32 +
STACK CFI 52c04 .cfa: x29 32 + x19: .cfa -16 + ^ .ra: .cfa -24 + ^ x29: .cfa -32 + ^
STACK CFI 52c20 .cfa: sp 32 +
STACK CFI 52c28 .cfa: sp 0 +
STACK CFI 52c2c .cfa: x29 32 +
STACK CFI 52c50 .cfa: sp 32 +
STACK CFI 52c58 .cfa: sp 0 +
STACK CFI INIT 52d98 570 .cfa: sp 0 +
STACK CFI 52d9c .cfa: sp 176 +
STACK CFI 52db0 .cfa: x29 64 + x19: .cfa -8 + ^ x20: .cfa -16 + ^ x21: .cfa -24 + ^ x22: .cfa -32 + ^ x23: .cfa -40 + ^ x24: .cfa -48 + ^ .ra: .cfa -56 + ^ x29: .cfa -64 + ^
STACK CFI 52fe0 .cfa: sp 176 +
STACK CFI 52ff4 .cfa: sp 0 +
STACK CFI 52ff8 .cfa: x29 64 +
STACK CFI 53044 .cfa: sp 176 +
STACK CFI 53058 .cfa: sp 0 +
STACK CFI 5305c .cfa: x29 64 +
STACK CFI 53094 .cfa: sp 176 +
STACK CFI 530a8 .cfa: sp 0 +
STACK CFI 530ac .cfa: x29 64 +
STACK CFI 530c4 .cfa: sp 176 +
STACK CFI 530d8 .cfa: sp 0 +
STACK CFI 530dc .cfa: x29 64 +
STACK CFI 530fc .cfa: sp 176 +
STACK CFI 53110 .cfa: sp 0 +
STACK CFI 53114 .cfa: x29 64 +
STACK CFI 5312c .cfa: sp 176 +
STACK CFI 53140 .cfa: sp 0 +
STACK CFI 53144 .cfa: x29 64 +
STACK CFI 53158 .cfa: sp 176 +
STACK CFI 5316c .cfa: sp 0 +
STACK CFI 53170 .cfa: x29 64 +
STACK CFI 53184 .cfa: sp 176 +
STACK CFI 53198 .cfa: sp 0 +
STACK CFI 5319c .cfa: x29 64 +
STACK CFI 531ac .cfa: sp 176 +
STACK CFI 531c0 .cfa: sp 0 +
STACK CFI 531c4 .cfa: x29 64 +
STACK CFI 531d4 .cfa: sp 176 +
STACK CFI 531e8 .cfa: sp 0 +
STACK CFI 531ec .cfa: x29 64 +
STACK CFI 53204 .cfa: sp 176 +
STACK CFI 53218 .cfa: sp 0 +
STACK CFI 5321c .cfa: x29 64 +
STACK CFI 53230 .cfa: sp 176 +
STACK CFI 53244 .cfa: sp 0 +
STACK CFI 53248 .cfa: x29 64 +
STACK CFI 53260 .cfa: sp 176 +
STACK CFI 53274 .cfa: sp 0 +
STACK CFI 53278 .cfa: x29 64 +
STACK CFI 532a4 .cfa: sp 176 +
STACK CFI 532b8 .cfa: sp 0 +
STACK CFI 532bc .cfa: x29 64 +
STACK CFI 532d0 .cfa: sp 176 +
STACK CFI 532e4 .cfa: sp 0 +
STACK CFI 532e8 .cfa: x29 64 +
STACK CFI INIT 53308 228 .cfa: sp 0 +
STACK CFI INIT 53530 2dc .cfa: sp 0 +
STACK CFI INIT 5380c 53c .cfa: sp 0 +
STACK CFI INIT 53d48 78 .cfa: sp 0 +
STACK CFI 53d4c .cfa: sp 48 +
STACK CFI 53d58 .cfa: x29 48 + x19: .cfa -8 + ^ x20: .cfa -16 + ^ x21: .cfa -24 + ^ x22: .cfa -32 + ^ .ra: .cfa -40 + ^ x29: .cfa -48 + ^
STACK CFI 53da0 .cfa: sp 48 +
STACK CFI 53dac .cfa: sp 0 +
STACK CFI 53db0 .cfa: sp 48 +
STACK CFI 53dbc .cfa: sp 0 +
STACK CFI INIT 53dc0 8c .cfa: sp 0 +
STACK CFI 53dc4 .cfa: sp 32 +
STACK CFI 53dcc .cfa: x29 32 + x19: .cfa -16 + ^ .ra: .cfa -24 + ^ x29: .cfa -32 + ^
STACK CFI 53e00 .cfa: sp 32 +
STACK CFI 53e08 .cfa: sp 0 +
STACK CFI 53e0c .cfa: x29 32 +
STACK CFI 53e40 .cfa: sp 32 +
STACK CFI 53e48 .cfa: sp 0 +
STACK CFI INIT 53e4c 24 .cfa: sp 0 +
STACK CFI 53e50 .cfa: sp 32 +
STACK CFI 53e58 .cfa: x29 32 + x19: .cfa -16 + ^ .ra: .cfa -24 + ^ x29: .cfa -32 + ^
STACK CFI 53e64 .cfa: sp 32 +
STACK CFI 53e6c .cfa: sp 0 +
STACK CFI INIT 53e70 150 .cfa: sp 0 +
STACK CFI 53e74 .cfa: sp 48 +
STACK CFI 53e80 .cfa: x29 48 + x19: .cfa -8 + ^ x20: .cfa -16 + ^ x21: .cfa -24 + ^ x22: .cfa -32 + ^ .ra: .cfa -40 + ^ x29: .cfa -48 + ^
STACK CFI 53fb0 .cfa: sp 48 +
STACK CFI 53fbc .cfa: sp 0 +
STACK CFI INIT 53fc0 68 .cfa: sp 0 +
STACK CFI 53fc4 .cfa: sp 64 +
STACK CFI 53fd0 .cfa: x29 32 + x19: .cfa -16 + ^ .ra: .cfa -24 + ^ x29: .cfa -32 + ^
STACK CFI 54014 .cfa: sp 64 +
STACK CFI 54020 .cfa: sp 0 +
STACK CFI 54024 .cfa: x29 32 +
STACK CFI INIT 54028 90 .cfa: sp 0 +
STACK CFI 5402c .cfa: sp 32 +
STACK CFI 54034 .cfa: x29 32 + x19: .cfa -8 + ^ x20: .cfa -16 + ^ .ra: .cfa -24 + ^ x29: .cfa -32 + ^
STACK CFI 54060 .cfa: sp 32 +
STACK CFI 54068 .cfa: sp 0 +
STACK CFI 5406c .cfa: x29 32 +
STACK CFI 540ac .cfa: sp 32 +
STACK CFI 540b4 .cfa: sp 0 +
STACK CFI INIT 540b8 ec .cfa: sp 0 +
STACK CFI 540bc .cfa: sp 112 +
STACK CFI 540cc .cfa: x29 48 + x19: .cfa -8 + ^ x20: .cfa -16 + ^ x21: .cfa -32 + ^ .ra: .cfa -40 + ^ x29: .cfa -48 + ^
STACK CFI 5418c .cfa: sp 112 +
STACK CFI 5419c .cfa: sp 0 +
STACK CFI 541a0 .cfa: x29 48 +
STACK CFI INIT 541a4 ec .cfa: sp 0 +
STACK CFI 541a8 .cfa: sp 112 +
STACK CFI 541b8 .cfa: x29 48 + x19: .cfa -8 + ^ x20: .cfa -16 + ^ x21: .cfa -32 + ^ .ra: .cfa -40 + ^ x29: .cfa -48 + ^
STACK CFI 54278 .cfa: sp 112 +
STACK CFI 54288 .cfa: sp 0 +
STACK CFI 5428c .cfa: x29 48 +
STACK CFI INIT 54290 48 .cfa: sp 0 +
STACK CFI 54294 .cfa: sp 32 +
STACK CFI 5429c .cfa: x29 32 + x19: .cfa -8 + ^ x20: .cfa -16 + ^ .ra: .cfa -24 + ^ x29: .cfa -32 + ^
STACK CFI 542c0 .cfa: sp 32 +
STACK CFI 542c8 .cfa: sp 0 +
STACK CFI 542cc .cfa: x29 32 +
STACK CFI INIT 542d8 98 .cfa: sp 0 +
STACK CFI 542dc .cfa: sp 80 +
STACK CFI 542e8 .cfa: x29 32 + x19: .cfa -16 + ^ .ra: .cfa -24 + ^ x29: .cfa -32 + ^
STACK CFI 5435c .cfa: sp 80 +
STACK CFI 54368 .cfa: sp 0 +
STACK CFI 5436c .cfa: x29 32 +
STACK CFI INIT 54370 260 .cfa: sp 0 +
STACK CFI 54374 .cfa: sp 112 +
STACK CFI 5438c .cfa: x29 80 + x19: .cfa -8 + ^ x20: .cfa -16 + ^ x21: .cfa -24 + ^ x22: .cfa -32 + ^ x23: .cfa -40 + ^ x24: .cfa -48 + ^ x25: .cfa -64 + ^ .ra: .cfa -72 + ^ x29: .cfa -80 + ^
STACK CFI 54570 .cfa: sp 112 +
STACK CFI 54588 .cfa: sp 0 +
STACK CFI 5458c .cfa: x29 80 +
STACK CFI INIT 545d0 150 .cfa: sp 0 +
STACK CFI 545d4 .cfa: sp 48 +
STACK CFI 545e0 .cfa: x29 48 + x19: .cfa -8 + ^ x20: .cfa -16 + ^ x21: .cfa -24 + ^ x22: .cfa -32 + ^ .ra: .cfa -40 + ^ x29: .cfa -48 + ^
STACK CFI 54710 .cfa: sp 48 +
STACK CFI 5471c .cfa: sp 0 +
STACK CFI INIT 54720 1e0 .cfa: sp 0 +
STACK CFI 54724 .cfa: sp 96 +
STACK CFI 54738 .cfa: x29 64 + x19: .cfa -8 + ^ x20: .cfa -16 + ^ x21: .cfa -24 + ^ x22: .cfa -32 + ^ x23: .cfa -40 + ^ x24: .cfa -48 + ^ .ra: .cfa -56 + ^ x29: .cfa -64 + ^
STACK CFI 548b8 .cfa: sp 96 +
STACK CFI 548cc .cfa: sp 0 +
STACK CFI 548d0 .cfa: x29 64 +
STACK CFI INIT 54900 284 .cfa: sp 0 +
STACK CFI 54904 .cfa: sp 112 +
STACK CFI 5491c .cfa: x29 80 + x19: .cfa -8 + ^ x20: .cfa -16 + ^ x21: .cfa -24 + ^ x22: .cfa -32 + ^ x23: .cfa -40 + ^ x24: .cfa -48 + ^ x25: .cfa -64 + ^ .ra: .cfa -72 + ^ x29: .cfa -80 + ^
STACK CFI 54b24 .cfa: sp 112 +
STACK CFI 54b3c .cfa: sp 0 +
STACK CFI 54b40 .cfa: x29 80 +
STACK CFI INIT 54b84 208 .cfa: sp 0 +
STACK CFI 54b88 .cfa: sp 96 +
STACK CFI 54b9c .cfa: x29 64 + x19: .cfa -8 + ^ x20: .cfa -16 + ^ x21: .cfa -24 + ^ x22: .cfa -32 + ^ x23: .cfa -40 + ^ x24: .cfa -48 + ^ .ra: .cfa -56 + ^ x29: .cfa -64 + ^
STACK CFI 54d44 .cfa: sp 96 +
STACK CFI 54d58 .cfa: sp 0 +
STACK CFI 54d5c .cfa: x29 64 +
STACK CFI INIT 54d8c 360 .cfa: sp 0 +
STACK CFI 54d90 .cfa: sp 160 +
STACK CFI 54dac .cfa: x29 96 + x19: .cfa -8 + ^ x20: .cfa -16 + ^ x21: .cfa -24 + ^ x22: .cfa -32 + ^ x23: .cfa -40 + ^ x24: .cfa -48 + ^ x25: .cfa -56 + ^ x26: .cfa -64 + ^ x27: .cfa -72 + ^ x28: .cfa -80 + ^ .ra: .cfa -88 + ^ x29: .cfa -96 + ^
STACK CFI 55078 .cfa: sp 160 +
STACK CFI 55094 .cfa: sp 0 +
STACK CFI 55098 .cfa: x29 96 +
STACK CFI INIT 550ec 314 .cfa: sp 0 +
STACK CFI 550f0 .cfa: sp 144 +
STACK CFI 5510c .cfa: x29 96 + x19: .cfa -8 + ^ x20: .cfa -16 + ^ x21: .cfa -24 + ^ x22: .cfa -32 + ^ x23: .cfa -40 + ^ x24: .cfa -48 + ^ x25: .cfa -56 + ^ x26: .cfa -64 + ^ x27: .cfa -72 + ^ x28: .cfa -80 + ^ .ra: .cfa -88 + ^ x29: .cfa -96 + ^
STACK CFI 55388 .cfa: sp 144 +
STACK CFI 553a4 .cfa: sp 0 +
STACK CFI 553a8 .cfa: x29 96 +
STACK CFI INIT 55400 290 .cfa: sp 0 +
STACK CFI 55404 .cfa: sp 128 +
STACK CFI 5541c .cfa: x29 80 + x19: .cfa -8 + ^ x20: .cfa -16 + ^ x21: .cfa -24 + ^ x22: .cfa -32 + ^ x23: .cfa -40 + ^ x24: .cfa -48 + ^ x25: .cfa -56 + ^ x26: .cfa -64 + ^ .ra: .cfa -72 + ^ x29: .cfa -80 + ^
STACK CFI 55670 .cfa: sp 128 +
STACK CFI 55688 .cfa: sp 0 +
STACK CFI 5568c .cfa: x29 80 +
STACK CFI INIT 55690 ddc .cfa: sp 0 +
STACK CFI 55694 .cfa: sp 144 +
STACK CFI 556b0 .cfa: x29 96 + x19: .cfa -8 + ^ x20: .cfa -16 + ^ x21: .cfa -24 + ^ x22: .cfa -32 + ^ x23: .cfa -40 + ^ x24: .cfa -48 + ^ x25: .cfa -56 + ^ x26: .cfa -64 + ^ x27: .cfa -72 + ^ x28: .cfa -80 + ^ .ra: .cfa -88 + ^ x29: .cfa -96 + ^
STACK CFI 56344 .cfa: sp 144 +
STACK CFI 56360 .cfa: sp 0 +
STACK CFI 56364 .cfa: x29 96 +
STACK CFI INIT 5646c 1d0 .cfa: sp 0 +
STACK CFI 56470 .cfa: sp 80 +
STACK CFI 56484 .cfa: x29 80 + x19: .cfa -8 + ^ x20: .cfa -16 + ^ x21: .cfa -24 + ^ x22: .cfa -32 + ^ x23: .cfa -40 + ^ x24: .cfa -48 + ^ x25: .cfa -64 + ^ .ra: .cfa -72 + ^ x29: .cfa -80 + ^
STACK CFI 56624 .cfa: sp 80 +
STACK CFI 56638 .cfa: sp 0 +
STACK CFI INIT 5663c 23c .cfa: sp 0 +
STACK CFI 56640 .cfa: sp 112 +
STACK CFI 56654 .cfa: x29 64 + x19: .cfa -8 + ^ x20: .cfa -16 + ^ x21: .cfa -24 + ^ x22: .cfa -32 + ^ x23: .cfa -40 + ^ x24: .cfa -48 + ^ .ra: .cfa -56 + ^ x29: .cfa -64 + ^
STACK CFI 56830 .cfa: sp 112 +
STACK CFI 56844 .cfa: sp 0 +
STACK CFI 56848 .cfa: x29 64 +
STACK CFI INIT 56878 30c .cfa: sp 0 +
STACK CFI 5687c .cfa: sp 80 +
STACK CFI 56890 .cfa: x29 64 + x19: .cfa -8 + ^ x20: .cfa -16 + ^ x21: .cfa -24 + ^ x22: .cfa -32 + ^ x23: .cfa -40 + ^ x24: .cfa -48 + ^ .ra: .cfa -56 + ^ x29: .cfa -64 + ^
STACK CFI 56a0c .cfa: sp 80 +
STACK CFI 56a20 .cfa: sp 0 +
STACK CFI 56a24 .cfa: x29 64 +
STACK CFI INIT 56b84 178 .cfa: sp 0 +
STACK CFI 56b88 .cfa: sp 80 +
STACK CFI 56b9c .cfa: x29 64 + x19: .cfa -8 + ^ x20: .cfa -16 + ^ x21: .cfa -24 + ^ x22: .cfa -32 + ^ x23: .cfa -40 + ^ x24: .cfa -48 + ^ .ra: .cfa -56 + ^ x29: .cfa -64 + ^
STACK CFI 56ce0 .cfa: sp 80 +
STACK CFI 56cf4 .cfa: sp 0 +
STACK CFI 56cf8 .cfa: x29 64 +
STACK CFI INIT 56cfc 178 .cfa: sp 0 +
STACK CFI 56d00 .cfa: sp 80 +
STACK CFI 56d14 .cfa: x29 64 + x19: .cfa -8 + ^ x20: .cfa -16 + ^ x21: .cfa -24 + ^ x22: .cfa -32 + ^ x23: .cfa -40 + ^ x24: .cfa -48 + ^ .ra: .cfa -56 + ^ x29: .cfa -64 + ^
STACK CFI 56e58 .cfa: sp 80 +
STACK CFI 56e6c .cfa: sp 0 +
STACK CFI 56e70 .cfa: x29 64 +
STACK CFI INIT 56e74 240 .cfa: sp 0 +
STACK CFI 56e78 .cfa: sp 96 +
STACK CFI 56e90 .cfa: x29 96 + x19: .cfa -8 + ^ x20: .cfa -16 + ^ x21: .cfa -24 + ^ x22: .cfa -32 + ^ x23: .cfa -40 + ^ x24: .cfa -48 + ^ x25: .cfa -56 + ^ x26: .cfa -64 + ^ x27: .cfa -72 + ^ x28: .cfa -80 + ^ .ra: .cfa -88 + ^ x29: .cfa -96 + ^
STACK CFI 57098 .cfa: sp 96 +
STACK CFI 570b0 .cfa: sp 0 +
STACK CFI INIT 57d28 154 .cfa: sp 0 +
STACK CFI 57d2c .cfa: sp 96 +
STACK CFI 57d40 .cfa: x29 64 + x19: .cfa -8 + ^ x20: .cfa -16 + ^ x21: .cfa -24 + ^ x22: .cfa -32 + ^ x23: .cfa -48 + ^ .ra: .cfa -56 + ^ x29: .cfa -64 + ^
STACK CFI 57e20 .cfa: sp 96 +
STACK CFI 57e34 .cfa: sp 0 +
STACK CFI 57e38 .cfa: x29 64 +
STACK CFI INIT 580e8 44 .cfa: sp 0 +
STACK CFI 580ec .cfa: sp 32 +
STACK CFI 580f4 .cfa: x29 32 + x19: .cfa -16 + ^ .ra: .cfa -24 + ^ x29: .cfa -32 + ^
STACK CFI 58110 .cfa: sp 32 +
STACK CFI 58118 .cfa: sp 0 +
STACK CFI 5811c .cfa: x29 32 +
STACK CFI 58120 .cfa: sp 32 +
STACK CFI 58128 .cfa: sp 0 +
STACK CFI INIT 5812c 1d0 .cfa: sp 0 +
STACK CFI 58130 .cfa: sp 64 +
STACK CFI 58140 .cfa: x29 64 + x19: .cfa -8 + ^ x20: .cfa -16 + ^ x21: .cfa -24 + ^ x22: .cfa -32 + ^ x23: .cfa -40 + ^ x24: .cfa -48 + ^ .ra: .cfa -56 + ^ x29: .cfa -64 + ^
STACK CFI 58200 .cfa: sp 64 +
STACK CFI 58210 .cfa: sp 0 +
STACK CFI 58214 .cfa: x29 64 +
STACK CFI INIT 582fc 17c .cfa: sp 0 +
STACK CFI INIT 58830 a0 .cfa: sp 0 +
STACK CFI 58834 .cfa: sp 48 +
STACK CFI 58840 .cfa: x29 48 + x19: .cfa -8 + ^ x20: .cfa -16 + ^ x21: .cfa -24 + ^ x22: .cfa -32 + ^ .ra: .cfa -40 + ^ x29: .cfa -48 + ^
STACK CFI 588ac .cfa: sp 48 +
STACK CFI 588b8 .cfa: sp 0 +
STACK CFI 588bc .cfa: sp 48 +
STACK CFI 588c8 .cfa: sp 0 +
STACK CFI 588cc .cfa: x29 48 +
STACK CFI INIT 59584 158 .cfa: sp 0 +
STACK CFI 59588 .cfa: sp 96 +
STACK CFI 5959c .cfa: x29 64 + x19: .cfa -8 + ^ x20: .cfa -16 + ^ x21: .cfa -24 + ^ x22: .cfa -32 + ^ x23: .cfa -48 + ^ .ra: .cfa -56 + ^ x29: .cfa -64 + ^
STACK CFI 59680 .cfa: sp 96 +
STACK CFI 59694 .cfa: sp 0 +
STACK CFI 59698 .cfa: x29 64 +
STACK CFI INIT 596dc 190 .cfa: sp 0 +
STACK CFI INIT 5a368 1dc .cfa: sp 0 +
STACK CFI 5a36c .cfa: sp 80 +
STACK CFI 5a380 .cfa: x29 80 + x19: .cfa -8 + ^ x20: .cfa -16 + ^ x21: .cfa -24 + ^ x22: .cfa -32 + ^ x23: .cfa -40 + ^ x24: .cfa -48 + ^ x25: .cfa -64 + ^ .ra: .cfa -72 + ^ x29: .cfa -80 + ^
STACK CFI 5a52c .cfa: sp 80 +
STACK CFI 5a540 .cfa: sp 0 +
STACK CFI INIT 5b974 124 .cfa: sp 0 +
STACK CFI 5b9a4 .cfa: sp 32 +
STACK CFI 5b9ac .cfa: x29 32 + x19: .cfa -8 + ^ x20: .cfa -16 + ^ .ra: .cfa -24 + ^ x29: .cfa -32 + ^
STACK CFI 5ba8c .cfa: sp 32 +
STACK CFI 5ba94 .cfa: sp 0 +
STACK CFI INIT 5c1f4 320 .cfa: sp 0 +
STACK CFI 5c1f8 .cfa: sp 64 +
STACK CFI 5c208 .cfa: x29 64 + x19: .cfa -8 + ^ x20: .cfa -16 + ^ x21: .cfa -24 + ^ x22: .cfa -32 + ^ x23: .cfa -40 + ^ x24: .cfa -48 + ^ .ra: .cfa -56 + ^ x29: .cfa -64 + ^
STACK CFI 5c284 .cfa: sp 64 +
STACK CFI 5c294 .cfa: sp 0 +
STACK CFI 5c298 .cfa: x29 64 +
STACK CFI 5c46c .cfa: sp 64 +
STACK CFI 5c47c .cfa: sp 0 +
STACK CFI 5c480 .cfa: x29 64 +
STACK CFI 5c490 .cfa: sp 64 +
STACK CFI 5c4a0 .cfa: sp 0 +
STACK CFI 5c4a4 .cfa: x29 64 +
STACK CFI INIT 5c514 a0 .cfa: sp 0 +
STACK CFI 5c518 .cfa: sp 48 +
STACK CFI 5c524 .cfa: x29 48 + x19: .cfa -8 + ^ x20: .cfa -16 + ^ x21: .cfa -24 + ^ x22: .cfa -32 + ^ .ra: .cfa -40 + ^ x29: .cfa -48 + ^
STACK CFI 5c590 .cfa: sp 48 +
STACK CFI 5c59c .cfa: sp 0 +
STACK CFI 5c5a0 .cfa: sp 48 +
STACK CFI 5c5ac .cfa: sp 0 +
STACK CFI 5c5b0 .cfa: x29 48 +
STACK CFI INIT 5d464 160 .cfa: sp 0 +
STACK CFI 5d468 .cfa: sp 64 +
STACK CFI 5d478 .cfa: x29 64 + x19: .cfa -8 + ^ x20: .cfa -16 + ^ x21: .cfa -24 + ^ x22: .cfa -32 + ^ x23: .cfa -48 + ^ .ra: .cfa -56 + ^ x29: .cfa -64 + ^
STACK CFI 5d570 .cfa: sp 64 +
STACK CFI 5d580 .cfa: sp 0 +
STACK CFI 5d584 .cfa: x29 64 +
STACK CFI INIT 5d5c4 214 .cfa: sp 0 +
STACK CFI 5d5c8 .cfa: sp 128 +
STACK CFI 5d5e4 .cfa: x29 96 + x19: .cfa -8 + ^ x20: .cfa -16 + ^ x21: .cfa -24 + ^ x22: .cfa -32 + ^ x23: .cfa -40 + ^ x24: .cfa -48 + ^ x25: .cfa -56 + ^ x26: .cfa -64 + ^ x27: .cfa -80 + ^ .ra: .cfa -88 + ^ x29: .cfa -96 + ^
STACK CFI 5d760 .cfa: sp 128 +
STACK CFI 5d77c .cfa: sp 0 +
STACK CFI 5d780 .cfa: x29 96 +
STACK CFI INIT 5f474 290 .cfa: sp 0 +
STACK CFI 5f478 .cfa: sp 16 +
STACK CFI 5f47c .cfa: x29 16 + .ra: .cfa -8 + ^ x29: .cfa -16 + ^
STACK CFI 5f508 .cfa: sp 16 +
STACK CFI 5f50c .cfa: sp 0 +
STACK CFI 5f510 .cfa: x29 16 +
STACK CFI 5f560 .cfa: sp 16 +
STACK CFI 5f564 .cfa: sp 0 +
STACK CFI 5f568 .cfa: x29 16 +
STACK CFI 5f6cc .cfa: sp 16 +
STACK CFI 5f6d0 .cfa: sp 0 +
STACK CFI 5f6d4 .cfa: x29 16 +
STACK CFI INIT 5f704 158 .cfa: sp 0 +
STACK CFI 5f708 .cfa: sp 112 +
STACK CFI 5f724 .cfa: x29 96 + x19: .cfa -8 + ^ x20: .cfa -16 + ^ x21: .cfa -24 + ^ x22: .cfa -32 + ^ x23: .cfa -40 + ^ x24: .cfa -48 + ^ x25: .cfa -56 + ^ x26: .cfa -64 + ^ x27: .cfa -72 + ^ x28: .cfa -80 + ^ .ra: .cfa -88 + ^ x29: .cfa -96 + ^
STACK CFI 5f80c .cfa: sp 112 +
STACK CFI 5f810 .cfa: x29 96 +
STACK CFI 5f818 .cfa: sp 112 +
STACK CFI 5f834 .cfa: sp 0 +
STACK CFI 5f838 .cfa: x29 96 +
STACK CFI 5f858 .cfa: sp 112 +
STACK CFI INIT 5f85c e54 .cfa: sp 0 +
STACK CFI 5f860 .cfa: sp 192 +
STACK CFI 5f87c .cfa: x29 96 + x19: .cfa -8 + ^ x20: .cfa -16 + ^ x21: .cfa -24 + ^ x22: .cfa -32 + ^ x23: .cfa -40 + ^ x24: .cfa -48 + ^ x25: .cfa -56 + ^ x26: .cfa -64 + ^ x27: .cfa -72 + ^ x28: .cfa -80 + ^ .ra: .cfa -88 + ^ x29: .cfa -96 + ^
STACK CFI 60598 .cfa: sp 192 +
STACK CFI 605b4 .cfa: sp 0 +
STACK CFI 605b8 .cfa: x29 96 +
STACK CFI INIT 606b0 1068 .cfa: sp 0 +
STACK CFI 606b4 .cfa: sp 288 +
STACK CFI 606d0 .cfa: x29 96 + x19: .cfa -8 + ^ x20: .cfa -16 + ^ x21: .cfa -24 + ^ x22: .cfa -32 + ^ x23: .cfa -40 + ^ x24: .cfa -48 + ^ x25: .cfa -56 + ^ x26: .cfa -64 + ^ x27: .cfa -72 + ^ x28: .cfa -80 + ^ .ra: .cfa -88 + ^ x29: .cfa -96 + ^
STACK CFI 61460 .cfa: sp 288 +
STACK CFI 6147c .cfa: sp 0 +
STACK CFI 61480 .cfa: x29 96 +
STACK CFI INIT 61718 520 .cfa: sp 0 +
STACK CFI 6171c .cfa: sp 144 +
STACK CFI 61738 .cfa: x29 96 + x19: .cfa -8 + ^ x20: .cfa -16 + ^ x21: .cfa -24 + ^ x22: .cfa -32 + ^ x23: .cfa -40 + ^ x24: .cfa -48 + ^ x25: .cfa -56 + ^ x26: .cfa -64 + ^ x27: .cfa -72 + ^ x28: .cfa -80 + ^ .ra: .cfa -88 + ^ x29: .cfa -96 + ^
STACK CFI 61c14 .cfa: sp 144 +
STACK CFI 61c30 .cfa: sp 0 +
STACK CFI 61c34 .cfa: x29 96 +
STACK CFI INIT 625d8 136c .cfa: sp 0 +
STACK CFI 625dc .cfa: sp 224 +
STACK CFI 625f8 .cfa: x29 96 + x19: .cfa -8 + ^ x20: .cfa -16 + ^ x21: .cfa -24 + ^ x22: .cfa -32 + ^ x23: .cfa -40 + ^ x24: .cfa -48 + ^ x25: .cfa -56 + ^ x26: .cfa -64 + ^ x27: .cfa -72 + ^ x28: .cfa -80 + ^ .ra: .cfa -88 + ^ x29: .cfa -96 + ^
STACK CFI 63920 .cfa: sp 224 +
STACK CFI 6393c .cfa: sp 0 +
STACK CFI 63940 .cfa: x29 96 +
STACK CFI INIT 63944 1b8 .cfa: sp 0 +
STACK CFI INIT 33954 bc .cfa: sp 0 +
STACK CFI 33958 .cfa: sp 32 +
STACK CFI 33960 .cfa: x29 32 + x19: .cfa -16 + ^ .ra: .cfa -24 + ^ x29: .cfa -32 + ^
STACK CFI 339e0 .cfa: sp 32 +
STACK CFI 339e8 .cfa: sp 0 +
STACK CFI 339ec .cfa: sp 32 +
STACK CFI 339f4 .cfa: sp 0 +
STACK CFI 339f8 .cfa: x29 32 +
STACK CFI INIT 33a10 8c .cfa: sp 0 +
STACK CFI 33a14 .cfa: sp 32 +
STACK CFI 33a1c .cfa: x29 32 + x19: .cfa -16 + ^ .ra: .cfa -24 + ^ x29: .cfa -32 + ^
STACK CFI 33a6c .cfa: sp 32 +
STACK CFI 33a74 .cfa: sp 0 +
STACK CFI 33a78 .cfa: sp 32 +
STACK CFI 33a80 .cfa: sp 0 +
STACK CFI 33a84 .cfa: x29 32 +
STACK CFI INIT 33a9c 698 .cfa: sp 0 +
STACK CFI 33aa0 .cfa: sp 480 +
STACK CFI 33ab8 .cfa: x29 80 + x19: .cfa -8 + ^ x20: .cfa -16 + ^ x21: .cfa -24 + ^ x22: .cfa -32 + ^ x23: .cfa -40 + ^ x24: .cfa -48 + ^ x28: .cfa -64 + ^ .ra: .cfa -72 + ^ x29: .cfa -80 + ^
STACK CFI 33ffc .cfa: sp 480 +
STACK CFI 34014 .cfa: sp 0 +
STACK CFI 34018 .cfa: x29 80 +
STACK CFI INIT 3413c 464 .cfa: sp 0 +
STACK CFI 34140 .cfa: sp 208 +
STACK CFI 34154 .cfa: x29 64 + x19: .cfa -8 + ^ x20: .cfa -16 + ^ x21: .cfa -24 + ^ x22: .cfa -32 + ^ x23: .cfa -40 + ^ x24: .cfa -48 + ^ .ra: .cfa -56 + ^ x29: .cfa -64 + ^
STACK CFI 343e4 .cfa: sp 208 +
STACK CFI 343f8 .cfa: sp 0 +
STACK CFI 343fc .cfa: x29 64 +
STACK CFI INIT 34768 bc .cfa: sp 0 +
STACK CFI 3476c .cfa: sp 32 +
STACK CFI 34774 .cfa: x29 32 + x19: .cfa -8 + ^ x20: .cfa -16 + ^ .ra: .cfa -24 + ^ x29: .cfa -32 + ^
STACK CFI 347f8 .cfa: sp 32 +
STACK CFI 34800 .cfa: sp 0 +
STACK CFI 34804 .cfa: x29 32 +
STACK CFI INIT 34824 1c .cfa: sp 0 +
STACK CFI 34828 .cfa: sp 16 +
STACK CFI 3482c .cfa: x29 16 + .ra: .cfa -8 + ^ x29: .cfa -16 + ^
STACK CFI 34834 .cfa: sp 16 +
STACK CFI 34838 .cfa: sp 0 +
STACK CFI 3483c .cfa: x29 16 +
STACK CFI INIT 34840 1c .cfa: sp 0 +
STACK CFI 34844 .cfa: sp 16 +
STACK CFI 34848 .cfa: x29 16 + .ra: .cfa -8 + ^ x29: .cfa -16 + ^
STACK CFI 34850 .cfa: sp 16 +
STACK CFI 34854 .cfa: sp 0 +
STACK CFI 34858 .cfa: x29 16 +
STACK CFI INIT 3485c 1c .cfa: sp 0 +
STACK CFI 34860 .cfa: sp 16 +
STACK CFI 34864 .cfa: x29 16 + .ra: .cfa -8 + ^ x29: .cfa -16 + ^
STACK CFI 3486c .cfa: sp 16 +
STACK CFI 34870 .cfa: sp 0 +
STACK CFI 34874 .cfa: x29 16 +
STACK CFI INIT 34878 1c .cfa: sp 0 +
STACK CFI 3487c .cfa: sp 16 +
STACK CFI 34880 .cfa: x29 16 + .ra: .cfa -8 + ^ x29: .cfa -16 + ^
STACK CFI 34888 .cfa: sp 16 +
STACK CFI 3488c .cfa: sp 0 +
STACK CFI 34890 .cfa: x29 16 +
STACK CFI INIT 34894 4c .cfa: sp 0 +
STACK CFI 34898 .cfa: sp 32 +
STACK CFI 348a0 .cfa: x29 32 + x19: .cfa -16 + ^ .ra: .cfa -24 + ^ x29: .cfa -32 + ^
STACK CFI 348c8 .cfa: sp 32 +
STACK CFI 348d0 .cfa: sp 0 +
STACK CFI 348d4 .cfa: x29 32 +
STACK CFI INIT 348e0 1c .cfa: sp 0 +
STACK CFI 348e4 .cfa: sp 16 +
STACK CFI 348e8 .cfa: x29 16 + .ra: .cfa -8 + ^ x29: .cfa -16 + ^
STACK CFI 348f0 .cfa: sp 16 +
STACK CFI 348f4 .cfa: sp 0 +
STACK CFI 348f8 .cfa: x29 16 +
STACK CFI INIT 348fc 8c .cfa: sp 0 +
STACK CFI 34900 .cfa: sp 32 +
STACK CFI 34908 .cfa: x29 32 + x19: .cfa -16 + ^ .ra: .cfa -24 + ^ x29: .cfa -32 + ^
STACK CFI 34958 .cfa: sp 32 +
STACK CFI 34960 .cfa: sp 0 +
STACK CFI 34964 .cfa: sp 32 +
STACK CFI 3496c .cfa: sp 0 +
STACK CFI 34970 .cfa: x29 32 +
STACK CFI INIT 34a68 7f4 .cfa: sp 0 +
STACK CFI 34a6c .cfa: sp 240 +
STACK CFI 34a88 .cfa: x29 96 + x19: .cfa -8 + ^ x20: .cfa -16 + ^ x21: .cfa -24 + ^ x22: .cfa -32 + ^ x23: .cfa -40 + ^ x24: .cfa -48 + ^ x25: .cfa -56 + ^ x26: .cfa -64 + ^ x27: .cfa -72 + ^ x28: .cfa -80 + ^ .ra: .cfa -88 + ^ x29: .cfa -96 + ^
STACK CFI 34e6c .cfa: sp 240 +
STACK CFI 34e88 .cfa: sp 0 +
STACK CFI 34e8c .cfa: x29 96 +
STACK CFI 35104 .cfa: sp 240 +
STACK CFI 35120 .cfa: sp 0 +
STACK CFI 35124 .cfa: x29 96 +
STACK CFI INIT 35284 50 .cfa: sp 0 +
STACK CFI 35288 .cfa: sp 32 +
STACK CFI 35290 .cfa: x29 32 + x19: .cfa -8 + ^ x20: .cfa -16 + ^ .ra: .cfa -24 + ^ x29: .cfa -32 + ^
STACK CFI INIT 3534c 12c .cfa: sp 0 +
STACK CFI 35350 .cfa: sp 80 +
STACK CFI 35364 .cfa: x29 80 + x19: .cfa -8 + ^ x20: .cfa -16 + ^ x21: .cfa -24 + ^ x22: .cfa -32 + ^ x23: .cfa -40 + ^ x24: .cfa -48 + ^ x25: .cfa -56 + ^ x26: .cfa -64 + ^ .ra: .cfa -72 + ^ x29: .cfa -80 + ^
STACK CFI 3542c .cfa: sp 80 +
STACK CFI 35440 .cfa: sp 0 +
STACK CFI 35444 .cfa: x29 80 +
STACK CFI INIT 35478 74 .cfa: sp 0 +
STACK CFI 3547c .cfa: sp 48 +
STACK CFI 35488 .cfa: x29 32 + x19: .cfa -8 + ^ x20: .cfa -16 + ^ .ra: .cfa -24 + ^ x29: .cfa -32 + ^
STACK CFI 354d4 .cfa: sp 48 +
STACK CFI 354e0 .cfa: sp 0 +
STACK CFI 354e4 .cfa: x29 32 +
STACK CFI INIT 354ec 74 .cfa: sp 0 +
STACK CFI 354f0 .cfa: sp 48 +
STACK CFI 354fc .cfa: x29 32 + x19: .cfa -8 + ^ x20: .cfa -16 + ^ .ra: .cfa -24 + ^ x29: .cfa -32 + ^
STACK CFI 35548 .cfa: sp 48 +
STACK CFI 35554 .cfa: sp 0 +
STACK CFI 35558 .cfa: x29 32 +
STACK CFI INIT 35618 944 .cfa: sp 0 +
STACK CFI 3561c .cfa: sp 96 +
STACK CFI 35634 .cfa: x29 96 + x19: .cfa -8 + ^ x20: .cfa -16 + ^ x21: .cfa -24 + ^ x22: .cfa -32 + ^ x23: .cfa -40 + ^ x24: .cfa -48 + ^ x25: .cfa -56 + ^ x26: .cfa -64 + ^ x27: .cfa -72 + ^ x28: .cfa -80 + ^ .ra: .cfa -88 + ^ x29: .cfa -96 + ^
STACK CFI 35dcc .cfa: sp 96 +
STACK CFI 35de4 .cfa: sp 0 +
STACK CFI 35de8 .cfa: x29 96 +
STACK CFI INIT 35fb0 110 .cfa: sp 0 +
STACK CFI 35fb4 .cfa: sp 64 +
STACK CFI 35fc0 .cfa: x29 32 + x19: .cfa -8 + ^ x20: .cfa -16 + ^ .ra: .cfa -24 + ^ x29: .cfa -32 + ^
STACK CFI 36080 .cfa: sp 64 +
STACK CFI 3608c .cfa: sp 0 +
STACK CFI 36090 .cfa: x29 32 +
STACK CFI INIT 36208 204 .cfa: sp 0 +
STACK CFI 3620c .cfa: sp 128 +
STACK CFI 36220 .cfa: x29 64 + x19: .cfa -8 + ^ x20: .cfa -16 + ^ x21: .cfa -24 + ^ x22: .cfa -32 + ^ x23: .cfa -40 + ^ x24: .cfa -48 + ^ .ra: .cfa -56 + ^ x29: .cfa -64 + ^
STACK CFI 36344 .cfa: sp 128 +
STACK CFI 36358 .cfa: sp 0 +
STACK CFI 3635c .cfa: x29 64 +
STACK CFI INIT 36410 1ac .cfa: sp 0 +
STACK CFI 36414 .cfa: sp 128 +
STACK CFI 36424 .cfa: x29 48 + x19: .cfa -8 + ^ x20: .cfa -16 + ^ x21: .cfa -24 + ^ x22: .cfa -32 + ^ .ra: .cfa -40 + ^ x29: .cfa -48 + ^
STACK CFI 36540 .cfa: sp 128 +
STACK CFI 36550 .cfa: sp 0 +
STACK CFI 36554 .cfa: x29 48 +
STACK CFI INIT 369b8 1d0 .cfa: sp 0 +
STACK CFI 369bc .cfa: sp 128 +
STACK CFI 369d0 .cfa: x29 64 + x19: .cfa -8 + ^ x20: .cfa -16 + ^ x21: .cfa -24 + ^ x22: .cfa -32 + ^ x23: .cfa -48 + ^ .ra: .cfa -56 + ^ x29: .cfa -64 + ^
STACK CFI 36b48 .cfa: sp 128 +
STACK CFI 36b5c .cfa: sp 0 +
STACK CFI 36b60 .cfa: x29 64 +
STACK CFI INIT 36e9c 1c4 .cfa: sp 0 +
STACK CFI 36ea0 .cfa: sp 112 +
STACK CFI 36eb0 .cfa: x29 48 + x19: .cfa -8 + ^ x20: .cfa -16 + ^ x21: .cfa -24 + ^ x22: .cfa -32 + ^ .ra: .cfa -40 + ^ x29: .cfa -48 + ^
STACK CFI 37024 .cfa: sp 112 +
STACK CFI 37034 .cfa: sp 0 +
STACK CFI 37038 .cfa: x29 48 +
STACK CFI INIT 370e0 198 .cfa: sp 0 +
STACK CFI 370e4 .cfa: sp 96 +
STACK CFI 370f4 .cfa: x29 48 + x19: .cfa -8 + ^ x20: .cfa -16 + ^ x21: .cfa -32 + ^ .ra: .cfa -40 + ^ x29: .cfa -48 + ^
STACK CFI 371d0 .cfa: sp 96 +
STACK CFI 371e0 .cfa: sp 0 +
STACK CFI 371e4 .cfa: x29 48 +
STACK CFI INIT 372e4 774 .cfa: sp 0 +
STACK CFI 372e8 .cfa: sp 320 +
STACK CFI 372fc .cfa: x29 64 + x19: .cfa -8 + ^ x20: .cfa -16 + ^ x21: .cfa -24 + ^ x22: .cfa -32 + ^ x23: .cfa -40 + ^ x28: .cfa -48 + ^ .ra: .cfa -56 + ^ x29: .cfa -64 + ^
STACK CFI 378b8 .cfa: sp 320 +
STACK CFI 378cc .cfa: sp 0 +
STACK CFI 378d0 .cfa: x29 64 +
STACK CFI INIT 37a80 178 .cfa: sp 0 +
STACK CFI 37a84 .cfa: sp 144 +
STACK CFI 37a94 .cfa: x29 48 + x19: .cfa -8 + ^ x20: .cfa -16 + ^ x21: .cfa -32 + ^ .ra: .cfa -40 + ^ x29: .cfa -48 + ^
STACK CFI 37b5c .cfa: sp 144 +
STACK CFI 37b6c .cfa: sp 0 +
STACK CFI 37b70 .cfa: x29 48 +
STACK CFI INIT 37bf8 74 .cfa: sp 0 +
STACK CFI 37bfc .cfa: sp 48 +
STACK CFI 37c08 .cfa: x29 32 + x19: .cfa -8 + ^ x20: .cfa -16 + ^ .ra: .cfa -24 + ^ x29: .cfa -32 + ^
STACK CFI 37c54 .cfa: sp 48 +
STACK CFI 37c60 .cfa: sp 0 +
STACK CFI 37c64 .cfa: x29 32 +
STACK CFI INIT 37d44 280 .cfa: sp 0 +
STACK CFI 37d48 .cfa: sp 224 +
STACK CFI 37d5c .cfa: x29 64 + x19: .cfa -8 + ^ x20: .cfa -16 + ^ x21: .cfa -24 + ^ x22: .cfa -32 + ^ x23: .cfa -40 + ^ x24: .cfa -48 + ^ .ra: .cfa -56 + ^ x29: .cfa -64 + ^
STACK CFI 37f14 .cfa: sp 224 +
STACK CFI 37f28 .cfa: sp 0 +
STACK CFI 37f2c .cfa: x29 64 +
STACK CFI INIT 37fc4 1e0 .cfa: sp 0 +
STACK CFI 37fc8 .cfa: sp 144 +
STACK CFI 37fd4 .cfa: x29 32 + x19: .cfa -8 + ^ x20: .cfa -16 + ^ .ra: .cfa -24 + ^ x29: .cfa -32 + ^
STACK CFI 38138 .cfa: sp 144 +
STACK CFI 38144 .cfa: sp 0 +
STACK CFI 38148 .cfa: x29 32 +
STACK CFI INIT 381a4 74 .cfa: sp 0 +
STACK CFI 381a8 .cfa: sp 48 +
STACK CFI 381b4 .cfa: x29 32 + x19: .cfa -8 + ^ x20: .cfa -16 + ^ .ra: .cfa -24 + ^ x29: .cfa -32 + ^
STACK CFI 38200 .cfa: sp 48 +
STACK CFI 3820c .cfa: sp 0 +
STACK CFI 38210 .cfa: x29 32 +
STACK CFI INIT 38218 168 .cfa: sp 0 +
STACK CFI 3821c .cfa: sp 384 +
STACK CFI 38230 .cfa: x29 64 + x19: .cfa -8 + ^ x20: .cfa -16 + ^ x21: .cfa -24 + ^ x22: .cfa -32 + ^ x23: .cfa -40 + ^ x28: .cfa -48 + ^ .ra: .cfa -56 + ^ x29: .cfa -64 + ^
STACK CFI 38328 .cfa: sp 384 +
STACK CFI 3833c .cfa: sp 0 +
STACK CFI 38340 .cfa: x29 64 +
STACK CFI INIT 38380 178 .cfa: sp 0 +
STACK CFI 38384 .cfa: sp 80 +
STACK CFI 38398 .cfa: x29 80 + x19: .cfa -8 + ^ x20: .cfa -16 + ^ x21: .cfa -24 + ^ x22: .cfa -32 + ^ x23: .cfa -40 + ^ x24: .cfa -48 + ^ x25: .cfa -64 + ^ .ra: .cfa -72 + ^ x29: .cfa -80 + ^
STACK CFI 384c4 .cfa: sp 80 +
STACK CFI 384d8 .cfa: sp 0 +
STACK CFI 384dc .cfa: x29 80 +
STACK CFI INIT 38670 2f8 .cfa: sp 0 +
STACK CFI 38674 .cfa: sp 80 +
STACK CFI 38688 .cfa: x29 80 + x19: .cfa -8 + ^ x20: .cfa -16 + ^ x21: .cfa -24 + ^ x22: .cfa -32 + ^ x23: .cfa -40 + ^ x24: .cfa -48 + ^ x25: .cfa -56 + ^ x28: .cfa -64 + ^ .ra: .cfa -72 + ^ x29: .cfa -80 + ^
STACK CFI 38884 .cfa: sp 80 +
STACK CFI 38898 .cfa: sp 0 +
STACK CFI 3889c .cfa: x29 80 +
STACK CFI INIT 389a8 48c .cfa: sp 0 +
STACK CFI 389ac .cfa: sp 224 +
STACK CFI 389bc .cfa: x29 48 + x19: .cfa -8 + ^ x20: .cfa -16 + ^ x21: .cfa -24 + ^ x22: .cfa -32 + ^ .ra: .cfa -40 + ^ x29: .cfa -48 + ^
STACK CFI 38d18 .cfa: sp 224 +
STACK CFI 38d28 .cfa: sp 0 +
STACK CFI 38d2c .cfa: x29 48 +
STACK CFI INIT 38e5c 1c .cfa: sp 0 +
STACK CFI 38e60 .cfa: sp 16 +
STACK CFI 38e64 .cfa: x29 16 + .ra: .cfa -8 + ^ x29: .cfa -16 + ^
STACK CFI 38e6c .cfa: sp 16 +
STACK CFI 38e70 .cfa: sp 0 +
STACK CFI 38e74 .cfa: x29 16 +
STACK CFI INIT 38e78 74 .cfa: sp 0 +
STACK CFI 38e7c .cfa: sp 48 +
STACK CFI 38e88 .cfa: x29 32 + x19: .cfa -8 + ^ x20: .cfa -16 + ^ .ra: .cfa -24 + ^ x29: .cfa -32 + ^
STACK CFI 38ed4 .cfa: sp 48 +
STACK CFI 38ee0 .cfa: sp 0 +
STACK CFI 38ee4 .cfa: x29 32 +
STACK CFI INIT 38eec 30 .cfa: sp 0 +
STACK CFI 38ef0 .cfa: sp 16 +
STACK CFI 38ef4 .cfa: x29 16 + .ra: .cfa -8 + ^ x29: .cfa -16 + ^
STACK CFI 38f10 .cfa: sp 16 +
STACK CFI 38f14 .cfa: sp 0 +
STACK CFI 38f18 .cfa: x29 16 +
STACK CFI INIT 38f1c 3c .cfa: sp 0 +
STACK CFI 38f20 .cfa: sp 32 +
STACK CFI 38f28 .cfa: x29 32 + x19: .cfa -16 + ^ .ra: .cfa -24 + ^ x29: .cfa -32 + ^
STACK CFI 38f48 .cfa: sp 32 +
STACK CFI 38f50 .cfa: sp 0 +
STACK CFI 38f54 .cfa: x29 32 +
STACK CFI INIT 38f58 58 .cfa: sp 0 +
STACK CFI 38f5c .cfa: sp 32 +
STACK CFI 38f64 .cfa: x29 32 + x19: .cfa -8 + ^ x20: .cfa -16 + ^ .ra: .cfa -24 + ^ x29: .cfa -32 + ^
STACK CFI 38f90 .cfa: sp 32 +
STACK CFI 38f98 .cfa: sp 0 +
STACK CFI 38f9c .cfa: x29 32 +
STACK CFI INIT 38fcc 20 .cfa: sp 0 +
STACK CFI 38fd0 .cfa: sp 16 +
STACK CFI 38fd4 .cfa: x29 16 + .ra: .cfa -8 + ^ x29: .cfa -16 + ^
STACK CFI 38fe0 .cfa: sp 16 +
STACK CFI 38fe4 .cfa: sp 0 +
STACK CFI 38fe8 .cfa: x29 16 +
STACK CFI INIT 38fec 30 .cfa: sp 0 +
STACK CFI 38ff0 .cfa: sp 32 +
STACK CFI 38ff8 .cfa: x29 32 + x19: .cfa -16 + ^ .ra: .cfa -24 + ^ x29: .cfa -32 + ^
STACK CFI 3900c .cfa: sp 32 +
STACK CFI 39014 .cfa: sp 0 +
STACK CFI 39018 .cfa: x29 32 +
STACK CFI INIT 390c8 1a4 .cfa: sp 0 +
STACK CFI 390cc .cfa: sp 112 +
STACK CFI 390e4 .cfa: x29 80 + x19: .cfa -8 + ^ x20: .cfa -16 + ^ x21: .cfa -24 + ^ x22: .cfa -32 + ^ x23: .cfa -40 + ^ x24: .cfa -48 + ^ x25: .cfa -56 + ^ x26: .cfa -64 + ^ .ra: .cfa -72 + ^ x29: .cfa -80 + ^
STACK CFI 391d4 .cfa: sp 112 +
STACK CFI 391ec .cfa: sp 0 +
STACK CFI 391f0 .cfa: x29 80 +
STACK CFI INIT 3926c 1dc .cfa: sp 0 +
STACK CFI 39270 .cfa: sp 128 +
STACK CFI 3928c .cfa: x29 96 + x19: .cfa -8 + ^ x20: .cfa -16 + ^ x21: .cfa -24 + ^ x22: .cfa -32 + ^ x23: .cfa -40 + ^ x24: .cfa -48 + ^ x25: .cfa -56 + ^ x26: .cfa -64 + ^ x27: .cfa -80 + ^ .ra: .cfa -88 + ^ x29: .cfa -96 + ^
STACK CFI 393f8 .cfa: sp 128 +
STACK CFI 39414 .cfa: sp 0 +
STACK CFI 39418 .cfa: x29 96 +
STACK CFI INIT 39570 c04 .cfa: sp 0 +
STACK CFI 39574 .cfa: sp 96 +
STACK CFI 3958c .cfa: x29 96 + x19: .cfa -8 + ^ x20: .cfa -16 + ^ x21: .cfa -24 + ^ x22: .cfa -32 + ^ x23: .cfa -40 + ^ x24: .cfa -48 + ^ x25: .cfa -56 + ^ x26: .cfa -64 + ^ x27: .cfa -72 + ^ x28: .cfa -80 + ^ .ra: .cfa -88 + ^ x29: .cfa -96 + ^
STACK CFI 39f04 .cfa: sp 96 +
STACK CFI 39f1c .cfa: sp 0 +
STACK CFI 39f20 .cfa: x29 96 +
STACK CFI INIT 3a174 2f8 .cfa: sp 0 +
STACK CFI 3a178 .cfa: sp 176 +
STACK CFI 3a18c .cfa: x29 64 + x19: .cfa -8 + ^ x20: .cfa -16 + ^ x21: .cfa -24 + ^ x22: .cfa -32 + ^ x23: .cfa -48 + ^ .ra: .cfa -56 + ^ x29: .cfa -64 + ^
STACK CFI 3a3b4 .cfa: sp 176 +
STACK CFI 3a3c8 .cfa: sp 0 +
STACK CFI 3a3cc .cfa: x29 64 +
STACK CFI INIT 3a4b0 13c .cfa: sp 0 +
STACK CFI 3a4b4 .cfa: sp 112 +
STACK CFI 3a4c4 .cfa: x29 48 + x19: .cfa -8 + ^ x20: .cfa -16 + ^ x21: .cfa -32 + ^ .ra: .cfa -40 + ^ x29: .cfa -48 + ^
STACK CFI 3a584 .cfa: sp 112 +
STACK CFI 3a594 .cfa: sp 0 +
STACK CFI 3a598 .cfa: x29 48 +
STACK CFI INIT 3a808 dc .cfa: sp 0 +
STACK CFI 3a80c .cfa: sp 32 +
STACK CFI 3a814 .cfa: x29 32 + x19: .cfa -8 + ^ x20: .cfa -16 + ^ .ra: .cfa -24 + ^ x29: .cfa -32 + ^
STACK CFI 3a8a0 .cfa: sp 32 +
STACK CFI 3a8a8 .cfa: sp 0 +
STACK CFI 3a8ac .cfa: x29 32 +
STACK CFI INIT 3a8e4 bc .cfa: sp 0 +
STACK CFI 3a8e8 .cfa: sp 32 +
STACK CFI 3a8f0 .cfa: x29 32 + x19: .cfa -8 + ^ x20: .cfa -16 + ^ .ra: .cfa -24 + ^ x29: .cfa -32 + ^
STACK CFI 3a978 .cfa: sp 32 +
STACK CFI 3a980 .cfa: sp 0 +
STACK CFI 3a984 .cfa: x29 32 +
STACK CFI INIT 3aa3c 4ec .cfa: sp 0 +
STACK CFI 3aa40 .cfa: sp 80 +
STACK CFI 3aa54 .cfa: x29 80 + x19: .cfa -8 + ^ x20: .cfa -16 + ^ x21: .cfa -24 + ^ x22: .cfa -32 + ^ x23: .cfa -40 + ^ x24: .cfa -48 + ^ x28: .cfa -64 + ^ .ra: .cfa -72 + ^ x29: .cfa -80 + ^
STACK CFI 3ae04 .cfa: sp 80 +
STACK CFI 3ae18 .cfa: sp 0 +
STACK CFI 3ae1c .cfa: x29 80 +
STACK CFI INIT 3b074 1f0 .cfa: sp 0 +
STACK CFI 3b078 .cfa: sp 128 +
STACK CFI 3b094 .cfa: x29 96 + x19: .cfa -8 + ^ x20: .cfa -16 + ^ x21: .cfa -24 + ^ x22: .cfa -32 + ^ x23: .cfa -40 + ^ x24: .cfa -48 + ^ x25: .cfa -56 + ^ x26: .cfa -64 + ^ x27: .cfa -72 + ^ x28: .cfa -80 + ^ .ra: .cfa -88 + ^ x29: .cfa -96 + ^
STACK CFI 3b204 .cfa: sp 128 +
STACK CFI 3b220 .cfa: sp 0 +
STACK CFI 3b224 .cfa: x29 96 +
STACK CFI INIT 3b468 3f0 .cfa: sp 0 +
STACK CFI 3b46c .cfa: sp 176 +
STACK CFI 3b48c .cfa: x29 96 + x19: .cfa -8 + ^ x20: .cfa -16 + ^ x21: .cfa -24 + ^ x22: .cfa -32 + ^ x23: .cfa -40 + ^ x24: .cfa -48 + ^ x25: .cfa -56 + ^ x26: .cfa -64 + ^ x27: .cfa -72 + ^ x28: .cfa -80 + ^ .ra: .cfa -88 + ^ x29: .cfa -96 + ^ v8: .cfa -104 + ^ v9: .cfa -112 + ^
STACK CFI 3b800 .cfa: sp 176 +
STACK CFI 3b820 .cfa: sp 0 +
STACK CFI 3b824 .cfa: x29 96 +
STACK CFI INIT 3b8dc 8c .cfa: sp 0 +
STACK CFI 3b8e0 .cfa: sp 32 +
STACK CFI 3b8e8 .cfa: x29 32 + x19: .cfa -8 + ^ x20: .cfa -16 + ^ .ra: .cfa -24 + ^ x29: .cfa -32 + ^
STACK CFI 3b948 .cfa: sp 32 +
STACK CFI 3b950 .cfa: sp 0 +
STACK CFI 3b954 .cfa: x29 32 +
STACK CFI INIT 3ba20 edc .cfa: sp 0 +
STACK CFI 3ba24 .cfa: sp 400 +
STACK CFI 3ba44 .cfa: x29 96 + x19: .cfa -8 + ^ x20: .cfa -16 + ^ x21: .cfa -24 + ^ x22: .cfa -32 + ^ x23: .cfa -40 + ^ x24: .cfa -48 + ^ x25: .cfa -56 + ^ x26: .cfa -64 + ^ x27: .cfa -72 + ^ x28: .cfa -80 + ^ .ra: .cfa -88 + ^ x29: .cfa -96 + ^ v8: .cfa -112 + ^
STACK CFI 3c6e4 .cfa: sp 400 +
STACK CFI 3c704 .cfa: sp 0 +
STACK CFI 3c708 .cfa: x29 96 +
STACK CFI INIT 3c924 14c .cfa: sp 0 +
STACK CFI 3c928 .cfa: sp 112 +
STACK CFI 3c93c .cfa: x29 40 + x19: .cfa -8 + ^ x20: .cfa -16 + ^ x21: .cfa -24 + ^ .ra: .cfa -32 + ^ x29: .cfa -40 + ^ v8: .cfa -48 + ^
STACK CFI 3ca04 .cfa: sp 112 +
STACK CFI 3ca18 .cfa: sp 0 +
STACK CFI 3ca1c .cfa: x29 40 +
STACK CFI INIT 3ca70 ae8 .cfa: sp 0 +
STACK CFI 3ca74 .cfa: sp 96 +
STACK CFI 3ca8c .cfa: x29 96 + x19: .cfa -8 + ^ x20: .cfa -16 + ^ x21: .cfa -24 + ^ x22: .cfa -32 + ^ x23: .cfa -40 + ^ x24: .cfa -48 + ^ x25: .cfa -56 + ^ x26: .cfa -64 + ^ x27: .cfa -72 + ^ x28: .cfa -80 + ^ .ra: .cfa -88 + ^ x29: .cfa -96 + ^
STACK CFI 3d328 .cfa: sp 96 +
STACK CFI 3d340 .cfa: sp 0 +
STACK CFI 3d344 .cfa: x29 96 +
STACK CFI INIT 3d558 1c .cfa: sp 0 +
STACK CFI 3d55c .cfa: sp 16 +
STACK CFI 3d560 .cfa: x29 16 + .ra: .cfa -8 + ^ x29: .cfa -16 + ^
STACK CFI 3d568 .cfa: sp 16 +
STACK CFI 3d56c .cfa: sp 0 +
STACK CFI 3d570 .cfa: x29 16 +
STACK CFI INIT 3d5d4 308 .cfa: sp 0 +
STACK CFI 3d5d8 .cfa: sp 192 +
STACK CFI 3d5f0 .cfa: x29 80 + x19: .cfa -8 + ^ x20: .cfa -16 + ^ x21: .cfa -24 + ^ x22: .cfa -32 + ^ x23: .cfa -40 + ^ x24: .cfa -48 + ^ x25: .cfa -64 + ^ .ra: .cfa -72 + ^ x29: .cfa -80 + ^
STACK CFI 3d828 .cfa: sp 192 +
STACK CFI 3d840 .cfa: sp 0 +
STACK CFI 3d844 .cfa: x29 80 +
STACK CFI INIT 3d964 9c .cfa: sp 0 +
STACK CFI 3d968 .cfa: sp 32 +
STACK CFI 3d970 .cfa: x29 32 + x19: .cfa -8 + ^ x20: .cfa -16 + ^ .ra: .cfa -24 + ^ x29: .cfa -32 + ^
STACK CFI 3d9c4 .cfa: sp 32 +
STACK CFI 3d9cc .cfa: sp 0 +
STACK CFI 3d9d0 .cfa: x29 32 +
STACK CFI 3d9e0 .cfa: sp 32 +
STACK CFI 3d9e8 .cfa: sp 0 +
STACK CFI 3d9ec .cfa: x29 32 +
STACK CFI INIT 3da9c 6d0 .cfa: sp 0 +
STACK CFI 3daa0 .cfa: sp 400 +
STACK CFI 3dabc .cfa: x29 96 + x19: .cfa -8 + ^ x20: .cfa -16 + ^ x21: .cfa -24 + ^ x22: .cfa -32 + ^ x23: .cfa -40 + ^ x24: .cfa -48 + ^ x25: .cfa -56 + ^ x26: .cfa -64 + ^ x27: .cfa -72 + ^ x28: .cfa -80 + ^ .ra: .cfa -88 + ^ x29: .cfa -96 + ^
STACK CFI 3df04 .cfa: sp 400 +
STACK CFI 3df20 .cfa: sp 0 +
STACK CFI 3df24 .cfa: x29 96 +
STACK CFI INIT 3e194 1c .cfa: sp 0 +
STACK CFI 3e198 .cfa: sp 16 +
STACK CFI 3e19c .cfa: x29 16 + .ra: .cfa -8 + ^ x29: .cfa -16 + ^
STACK CFI 3e1a4 .cfa: sp 16 +
STACK CFI 3e1a8 .cfa: sp 0 +
STACK CFI 3e1ac .cfa: x29 16 +
STACK CFI INIT 3e1b0 3c .cfa: sp 0 +
STACK CFI 3e1b4 .cfa: sp 32 +
STACK CFI 3e1bc .cfa: x29 32 + x19: .cfa -16 + ^ .ra: .cfa -24 + ^ x29: .cfa -32 + ^
STACK CFI 3e1d8 .cfa: sp 32 +
STACK CFI 3e1e0 .cfa: sp 0 +
STACK CFI 3e1e4 .cfa: x29 32 +
STACK CFI INIT 3e1ec 1c .cfa: sp 0 +
STACK CFI 3e1f0 .cfa: sp 16 +
STACK CFI 3e1f4 .cfa: x29 16 + .ra: .cfa -8 + ^ x29: .cfa -16 + ^
STACK CFI 3e1fc .cfa: sp 16 +
STACK CFI 3e200 .cfa: sp 0 +
STACK CFI 3e204 .cfa: x29 16 +
STACK CFI INIT 3e208 48 .cfa: sp 0 +
STACK CFI 3e20c .cfa: sp 32 +
STACK CFI 3e214 .cfa: x29 32 + x19: .cfa -16 + ^ .ra: .cfa -24 + ^ x29: .cfa -32 + ^
STACK CFI 3e23c .cfa: sp 32 +
STACK CFI 3e244 .cfa: sp 0 +
STACK CFI 3e248 .cfa: x29 32 +
STACK CFI INIT 3e250 4c .cfa: sp 0 +
STACK CFI 3e254 .cfa: sp 32 +
STACK CFI 3e25c .cfa: x29 32 + x19: .cfa -16 + ^ .ra: .cfa -24 + ^ x29: .cfa -32 + ^
STACK CFI 3e288 .cfa: sp 32 +
STACK CFI 3e290 .cfa: sp 0 +
STACK CFI 3e294 .cfa: x29 32 +
STACK CFI INIT 3e29c 94 .cfa: sp 0 +
STACK CFI 3e2a0 .cfa: sp 48 +
STACK CFI 3e2ac .cfa: x29 48 + x19: .cfa -8 + ^ x20: .cfa -16 + ^ x21: .cfa -32 + ^ .ra: .cfa -40 + ^ x29: .cfa -48 + ^
STACK CFI 3e2f0 .cfa: sp 48 +
STACK CFI 3e2fc .cfa: sp 0 +
STACK CFI 3e300 .cfa: x29 48 +
STACK CFI INIT 3e330 64 .cfa: sp 0 +
STACK CFI 3e334 .cfa: sp 32 +
STACK CFI 3e33c .cfa: x29 32 + x19: .cfa -8 + ^ x20: .cfa -16 + ^ .ra: .cfa -24 + ^ x29: .cfa -32 + ^
STACK CFI 3e370 .cfa: sp 32 +
STACK CFI 3e378 .cfa: sp 0 +
STACK CFI 3e37c .cfa: x29 32 +
STACK CFI INIT 3e394 3c .cfa: sp 0 +
STACK CFI 3e398 .cfa: sp 32 +
STACK CFI 3e3a0 .cfa: x29 32 + x19: .cfa -16 + ^ .ra: .cfa -24 + ^ x29: .cfa -32 + ^
STACK CFI 3e3bc .cfa: sp 32 +
STACK CFI 3e3c4 .cfa: sp 0 +
STACK CFI 3e3c8 .cfa: x29 32 +
STACK CFI INIT 3e3d0 40 .cfa: sp 0 +
STACK CFI 3e3d4 .cfa: sp 32 +
STACK CFI 3e3dc .cfa: x29 32 + x19: .cfa -16 + ^ .ra: .cfa -24 + ^ x29: .cfa -32 + ^
STACK CFI 3e3fc .cfa: sp 32 +
STACK CFI 3e404 .cfa: sp 0 +
STACK CFI 3e408 .cfa: x29 32 +
STACK CFI INIT 3e410 704 .cfa: sp 0 +
STACK CFI 3e414 .cfa: sp 272 +
STACK CFI 3e430 .cfa: x29 96 + x19: .cfa -8 + ^ x20: .cfa -16 + ^ x21: .cfa -24 + ^ x22: .cfa -32 + ^ x23: .cfa -40 + ^ x24: .cfa -48 + ^ x25: .cfa -56 + ^ x26: .cfa -64 + ^ x27: .cfa -80 + ^ .ra: .cfa -88 + ^ x29: .cfa -96 + ^
STACK CFI 3e944 .cfa: sp 272 +
STACK CFI 3e960 .cfa: sp 0 +
STACK CFI 3e964 .cfa: x29 96 +
STACK CFI INIT 3eb3c 74 .cfa: sp 0 +
STACK CFI 3eb40 .cfa: sp 48 +
STACK CFI 3eb4c .cfa: x29 32 + x19: .cfa -8 + ^ x20: .cfa -16 + ^ .ra: .cfa -24 + ^ x29: .cfa -32 + ^
STACK CFI 3eb98 .cfa: sp 48 +
STACK CFI 3eba4 .cfa: sp 0 +
STACK CFI 3eba8 .cfa: x29 32 +
STACK CFI INIT 3eeec 4c .cfa: sp 0 +
STACK CFI 3eef0 .cfa: sp 32 +
STACK CFI 3eef8 .cfa: x29 32 + x19: .cfa -16 + ^ .ra: .cfa -24 + ^ x29: .cfa -32 + ^
STACK CFI 3ef24 .cfa: sp 32 +
STACK CFI 3ef2c .cfa: sp 0 +
STACK CFI 3ef30 .cfa: x29 32 +
STACK CFI INIT 3ef38 1c .cfa: sp 0 +
STACK CFI 3ef3c .cfa: sp 16 +
STACK CFI 3ef40 .cfa: x29 16 + .ra: .cfa -8 + ^ x29: .cfa -16 + ^
STACK CFI 3ef48 .cfa: sp 16 +
STACK CFI 3ef4c .cfa: sp 0 +
STACK CFI 3ef50 .cfa: x29 16 +
STACK CFI INIT 3f2c4 58 .cfa: sp 0 +
STACK CFI 3f2c8 .cfa: sp 32 +
STACK CFI 3f2d0 .cfa: x29 32 + x19: .cfa -16 + ^ .ra: .cfa -24 + ^ x29: .cfa -32 + ^
STACK CFI 3f308 .cfa: sp 32 +
STACK CFI 3f310 .cfa: sp 0 +
STACK CFI 3f314 .cfa: x29 32 +
STACK CFI INIT 3f31c 5c .cfa: sp 0 +
STACK CFI 3f320 .cfa: sp 32 +
STACK CFI 3f328 .cfa: x29 32 + x19: .cfa -16 + ^ .ra: .cfa -24 + ^ x29: .cfa -32 + ^
STACK CFI 3f364 .cfa: sp 32 +
STACK CFI 3f36c .cfa: sp 0 +
STACK CFI 3f370 .cfa: x29 32 +
STACK CFI INIT 3f378 54 .cfa: sp 0 +
STACK CFI 3f37c .cfa: sp 32 +
STACK CFI 3f384 .cfa: x29 32 + x19: .cfa -8 + ^ x20: .cfa -16 + ^ .ra: .cfa -24 + ^ x29: .cfa -32 + ^
STACK CFI 3f3ac .cfa: sp 32 +
STACK CFI 3f3b4 .cfa: sp 0 +
STACK CFI 3f3b8 .cfa: x29 32 +
STACK CFI INIT 3f3e8 4c .cfa: sp 0 +
STACK CFI 3f3ec .cfa: sp 32 +
STACK CFI 3f3f4 .cfa: x29 32 + x19: .cfa -16 + ^ .ra: .cfa -24 + ^ x29: .cfa -32 + ^
STACK CFI 3f420 .cfa: sp 32 +
STACK CFI 3f428 .cfa: sp 0 +
STACK CFI 3f42c .cfa: x29 32 +
STACK CFI INIT 3f434 50 .cfa: sp 0 +
STACK CFI 3f438 .cfa: sp 32 +
STACK CFI 3f440 .cfa: x29 32 + x19: .cfa -16 + ^ .ra: .cfa -24 + ^ x29: .cfa -32 + ^
STACK CFI 3f470 .cfa: sp 32 +
STACK CFI 3f478 .cfa: sp 0 +
STACK CFI 3f47c .cfa: x29 32 +
STACK CFI INIT 3f484 c94 .cfa: sp 0 +
STACK CFI 3f488 .cfa: sp 96 +
STACK CFI 3f4a0 .cfa: x29 96 + x19: .cfa -8 + ^ x20: .cfa -16 + ^ x21: .cfa -24 + ^ x22: .cfa -32 + ^ x23: .cfa -40 + ^ x24: .cfa -48 + ^ x25: .cfa -56 + ^ x26: .cfa -64 + ^ x27: .cfa -72 + ^ x28: .cfa -80 + ^ .ra: .cfa -88 + ^ x29: .cfa -96 + ^
STACK CFI 3fe9c .cfa: sp 96 +
STACK CFI 3feb4 .cfa: sp 0 +
STACK CFI 3feb8 .cfa: x29 96 +
STACK CFI INIT 40140 b0 .cfa: sp 0 +
STACK CFI 40144 .cfa: sp 32 +
STACK CFI 4014c .cfa: x29 32 + x19: .cfa -8 + ^ x20: .cfa -16 + ^ .ra: .cfa -24 + ^ x29: .cfa -32 + ^
STACK CFI 401ac .cfa: sp 32 +
STACK CFI 401b4 .cfa: sp 0 +
STACK CFI 401b8 .cfa: x29 32 +
STACK CFI INIT 401f0 934 .cfa: sp 0 +
STACK CFI 401f4 .cfa: sp 96 +
STACK CFI 4020c .cfa: x29 96 + x19: .cfa -8 + ^ x20: .cfa -16 + ^ x21: .cfa -24 + ^ x22: .cfa -32 + ^ x23: .cfa -40 + ^ x24: .cfa -48 + ^ x25: .cfa -56 + ^ x26: .cfa -64 + ^ x27: .cfa -72 + ^ x28: .cfa -80 + ^ .ra: .cfa -88 + ^ x29: .cfa -96 + ^
STACK CFI 40944 .cfa: sp 96 +
STACK CFI 4095c .cfa: sp 0 +
STACK CFI 40960 .cfa: x29 96 +
STACK CFI INIT 40eec 4c .cfa: sp 0 +
STACK CFI 40ef0 .cfa: sp 32 +
STACK CFI 40ef8 .cfa: x29 32 + x19: .cfa -16 + ^ .ra: .cfa -24 + ^ x29: .cfa -32 + ^
STACK CFI 40f24 .cfa: sp 32 +
STACK CFI 40f2c .cfa: sp 0 +
STACK CFI 40f30 .cfa: x29 32 +
STACK CFI INIT 412a8 58 .cfa: sp 0 +
STACK CFI 412ac .cfa: sp 32 +
STACK CFI 412b4 .cfa: x29 32 + x19: .cfa -16 + ^ .ra: .cfa -24 + ^ x29: .cfa -32 + ^
STACK CFI 412ec .cfa: sp 32 +
STACK CFI 412f4 .cfa: sp 0 +
STACK CFI 412f8 .cfa: x29 32 +
STACK CFI INIT 41300 5c .cfa: sp 0 +
STACK CFI 41304 .cfa: sp 32 +
STACK CFI 4130c .cfa: x29 32 + x19: .cfa -16 + ^ .ra: .cfa -24 + ^ x29: .cfa -32 + ^
STACK CFI 41348 .cfa: sp 32 +
STACK CFI 41350 .cfa: sp 0 +
STACK CFI 41354 .cfa: x29 32 +
STACK CFI INIT 4135c 54 .cfa: sp 0 +
STACK CFI 41360 .cfa: sp 32 +
STACK CFI 41368 .cfa: x29 32 + x19: .cfa -8 + ^ x20: .cfa -16 + ^ .ra: .cfa -24 + ^ x29: .cfa -32 + ^
STACK CFI 41390 .cfa: sp 32 +
STACK CFI 41398 .cfa: sp 0 +
STACK CFI 4139c .cfa: x29 32 +
STACK CFI INIT 413cc 4c .cfa: sp 0 +
STACK CFI 413d0 .cfa: sp 32 +
STACK CFI 413d8 .cfa: x29 32 + x19: .cfa -16 + ^ .ra: .cfa -24 + ^ x29: .cfa -32 + ^
STACK CFI 41404 .cfa: sp 32 +
STACK CFI 4140c .cfa: sp 0 +
STACK CFI 41410 .cfa: x29 32 +
STACK CFI INIT 41418 50 .cfa: sp 0 +
STACK CFI 4141c .cfa: sp 32 +
STACK CFI 41424 .cfa: x29 32 + x19: .cfa -16 + ^ .ra: .cfa -24 + ^ x29: .cfa -32 + ^
STACK CFI 41454 .cfa: sp 32 +
STACK CFI 4145c .cfa: sp 0 +
STACK CFI 41460 .cfa: x29 32 +
STACK CFI INIT 41468 15cc .cfa: sp 0 +
STACK CFI 4146c .cfa: sp 112 +
STACK CFI 41488 .cfa: x29 96 + x19: .cfa -8 + ^ x20: .cfa -16 + ^ x21: .cfa -24 + ^ x22: .cfa -32 + ^ x23: .cfa -40 + ^ x24: .cfa -48 + ^ x25: .cfa -56 + ^ x26: .cfa -64 + ^ x27: .cfa -72 + ^ x28: .cfa -80 + ^ .ra: .cfa -88 + ^ x29: .cfa -96 + ^ v8: .cfa -104 + ^ v9: .cfa -112 + ^
STACK CFI 42420 .cfa: sp 112 +
STACK CFI 4243c .cfa: sp 0 +
STACK CFI 42440 .cfa: x29 96 +
STACK CFI INIT 42a5c b0 .cfa: sp 0 +
STACK CFI 42a60 .cfa: sp 32 +
STACK CFI 42a68 .cfa: x29 32 + x19: .cfa -8 + ^ x20: .cfa -16 + ^ .ra: .cfa -24 + ^ x29: .cfa -32 + ^
STACK CFI 42ac8 .cfa: sp 32 +
STACK CFI 42ad0 .cfa: sp 0 +
STACK CFI 42ad4 .cfa: x29 32 +
STACK CFI INIT 42b74 2b50 .cfa: sp 0 +
STACK CFI 42b78 .cfa: sp 112 +
STACK CFI 42b94 .cfa: x29 96 + x19: .cfa -8 + ^ x20: .cfa -16 + ^ x21: .cfa -24 + ^ x22: .cfa -32 + ^ x23: .cfa -40 + ^ x24: .cfa -48 + ^ x25: .cfa -56 + ^ x26: .cfa -64 + ^ x27: .cfa -72 + ^ x28: .cfa -80 + ^ .ra: .cfa -88 + ^ x29: .cfa -96 + ^ v8: .cfa -112 + ^
STACK CFI 44e90 .cfa: sp 112 +
STACK CFI 44eac .cfa: sp 0 +
STACK CFI 44eb0 .cfa: x29 96 +
STACK CFI INIT 45824 4c8 .cfa: sp 0 +
STACK CFI 45828 .cfa: sp 256 +
STACK CFI 45840 .cfa: x29 80 + x19: .cfa -8 + ^ x20: .cfa -16 + ^ x21: .cfa -24 + ^ x22: .cfa -32 + ^ x23: .cfa -40 + ^ x24: .cfa -48 + ^ x25: .cfa -64 + ^ .ra: .cfa -72 + ^ x29: .cfa -80 + ^
STACK CFI 45ba8 .cfa: sp 256 +
STACK CFI 45bc0 .cfa: sp 0 +
STACK CFI 45bc4 .cfa: x29 80 +
STACK CFI INIT 45d94 150 .cfa: sp 0 +
STACK CFI 45d98 .cfa: sp 112 +
STACK CFI 45da4 .cfa: x29 32 + x19: .cfa -8 + ^ x20: .cfa -16 + ^ .ra: .cfa -24 + ^ x29: .cfa -32 + ^
STACK CFI 45e98 .cfa: sp 112 +
STACK CFI 45ea4 .cfa: sp 0 +
STACK CFI 45ea8 .cfa: x29 32 +
STACK CFI INIT 45f28 558 .cfa: sp 0 +
STACK CFI 45f2c .cfa: sp 320 +
STACK CFI 45f48 .cfa: x29 96 + x19: .cfa -8 + ^ x20: .cfa -16 + ^ x21: .cfa -24 + ^ x22: .cfa -32 + ^ x23: .cfa -40 + ^ x24: .cfa -48 + ^ x25: .cfa -56 + ^ x26: .cfa -64 + ^ x27: .cfa -72 + ^ x28: .cfa -80 + ^ .ra: .cfa -88 + ^ x29: .cfa -96 + ^
STACK CFI 462b0 .cfa: sp 320 +
STACK CFI 462cc .cfa: sp 0 +
STACK CFI 462d0 .cfa: x29 96 +
STACK CFI INIT 46480 1c .cfa: sp 0 +
STACK CFI 46484 .cfa: sp 16 +
STACK CFI 46488 .cfa: x29 16 + .ra: .cfa -8 + ^ x29: .cfa -16 + ^
STACK CFI 46490 .cfa: sp 16 +
STACK CFI 46494 .cfa: sp 0 +
STACK CFI 46498 .cfa: x29 16 +
STACK CFI INIT 4649c 1c .cfa: sp 0 +
STACK CFI 464a0 .cfa: sp 16 +
STACK CFI 464a4 .cfa: x29 16 + .ra: .cfa -8 + ^ x29: .cfa -16 + ^
STACK CFI 464ac .cfa: sp 16 +
STACK CFI 464b0 .cfa: sp 0 +
STACK CFI 464b4 .cfa: x29 16 +
STACK CFI INIT 464f8 54 .cfa: sp 0 +
STACK CFI 464fc .cfa: sp 32 +
STACK CFI 46504 .cfa: x29 32 + x19: .cfa -8 + ^ x20: .cfa -16 + ^ .ra: .cfa -24 + ^ x29: .cfa -32 + ^
STACK CFI 4652c .cfa: sp 32 +
STACK CFI 46534 .cfa: sp 0 +
STACK CFI 46538 .cfa: x29 32 +
STACK CFI INIT 46598 6ac .cfa: sp 0 +
STACK CFI 4659c .cfa: sp 96 +
STACK CFI 465b4 .cfa: x29 96 + x19: .cfa -8 + ^ x20: .cfa -16 + ^ x21: .cfa -24 + ^ x22: .cfa -32 + ^ x23: .cfa -40 + ^ x24: .cfa -48 + ^ x25: .cfa -56 + ^ x26: .cfa -64 + ^ x27: .cfa -72 + ^ x28: .cfa -80 + ^ .ra: .cfa -88 + ^ x29: .cfa -96 + ^
STACK CFI 46af4 .cfa: sp 96 +
STACK CFI 46b0c .cfa: sp 0 +
STACK CFI 46b10 .cfa: x29 96 +
STACK CFI INIT 46cd8 754 .cfa: sp 0 +
STACK CFI 46cdc .cfa: sp 80 +
STACK CFI 46cf0 .cfa: x29 80 + x19: .cfa -8 + ^ x20: .cfa -16 + ^ x21: .cfa -24 + ^ x22: .cfa -32 + ^ x23: .cfa -40 + ^ x24: .cfa -48 + ^ x25: .cfa -56 + ^ x28: .cfa -64 + ^ .ra: .cfa -72 + ^ x29: .cfa -80 + ^
STACK CFI 46ebc .cfa: sp 80 +
STACK CFI 46ed0 .cfa: sp 0 +
STACK CFI 46ed4 .cfa: x29 80 +
STACK CFI 47340 .cfa: sp 80 +
STACK CFI 47354 .cfa: sp 0 +
STACK CFI 47358 .cfa: x29 80 +
STACK CFI INIT 47534 f8 .cfa: sp 0 +
STACK CFI 47538 .cfa: sp 32 +
STACK CFI 47540 .cfa: x29 32 + x19: .cfa -8 + ^ x20: .cfa -16 + ^ .ra: .cfa -24 + ^ x29: .cfa -32 + ^
STACK CFI 475d4 .cfa: sp 32 +
STACK CFI 475dc .cfa: sp 0 +
STACK CFI 475e0 .cfa: x29 32 +
STACK CFI INIT 4762c cc .cfa: sp 0 +
STACK CFI 47630 .cfa: sp 32 +
STACK CFI 47638 .cfa: x29 32 + x19: .cfa -8 + ^ x20: .cfa -16 + ^ .ra: .cfa -24 + ^ x29: .cfa -32 + ^
STACK CFI 476c4 .cfa: sp 32 +
STACK CFI 476cc .cfa: sp 0 +
STACK CFI 476d0 .cfa: x29 32 +
STACK CFI INIT 477b0 4d4 .cfa: sp 0 +
STACK CFI 477b4 .cfa: sp 368 +
STACK CFI 477cc .cfa: x29 80 + x19: .cfa -8 + ^ x20: .cfa -16 + ^ x21: .cfa -24 + ^ x22: .cfa -32 + ^ x23: .cfa -40 + ^ x24: .cfa -48 + ^ x25: .cfa -56 + ^ x28: .cfa -64 + ^ .ra: .cfa -72 + ^ x29: .cfa -80 + ^
STACK CFI 47b64 .cfa: sp 368 +
STACK CFI 47b7c .cfa: sp 0 +
STACK CFI 47b80 .cfa: x29 80 +
STACK CFI INIT 47d6c cc .cfa: sp 0 +
STACK CFI 47d70 .cfa: sp 48 +
STACK CFI 47d7c .cfa: x29 48 + x19: .cfa -8 + ^ x20: .cfa -16 + ^ x21: .cfa -32 + ^ .ra: .cfa -40 + ^ x29: .cfa -48 + ^
STACK CFI 47df8 .cfa: sp 48 +
STACK CFI 47e04 .cfa: sp 0 +
STACK CFI 47e08 .cfa: x29 48 +
STACK CFI INIT 47e38 a8 .cfa: sp 0 +
STACK CFI 47e3c .cfa: sp 48 +
STACK CFI 47e48 .cfa: x29 48 + x19: .cfa -8 + ^ x20: .cfa -16 + ^ x21: .cfa -32 + ^ .ra: .cfa -40 + ^ x29: .cfa -48 + ^
STACK CFI 47ebc .cfa: sp 48 +
STACK CFI 47ec8 .cfa: sp 0 +
STACK CFI 47ecc .cfa: x29 48 +
STACK CFI INIT 47f88 674 .cfa: sp 0 +
STACK CFI 47f8c .cfa: sp 256 +
STACK CFI 47fa8 .cfa: x29 96 + x19: .cfa -8 + ^ x20: .cfa -16 + ^ x21: .cfa -24 + ^ x22: .cfa -32 + ^ x23: .cfa -40 + ^ x24: .cfa -48 + ^ x25: .cfa -56 + ^ x26: .cfa -64 + ^ x27: .cfa -72 + ^ x28: .cfa -80 + ^ .ra: .cfa -88 + ^ x29: .cfa -96 + ^
STACK CFI 48054 .cfa: sp 256 +
STACK CFI 48070 .cfa: sp 0 +
STACK CFI 48074 .cfa: x29 96 +
STACK CFI INIT 48624 74 .cfa: sp 0 +
STACK CFI 48628 .cfa: sp 48 +
STACK CFI 48634 .cfa: x29 32 + x19: .cfa -8 + ^ x20: .cfa -16 + ^ .ra: .cfa -24 + ^ x29: .cfa -32 + ^
STACK CFI 48680 .cfa: sp 48 +
STACK CFI 4868c .cfa: sp 0 +
STACK CFI 48690 .cfa: x29 32 +
STACK CFI INIT 48984 e8 .cfa: sp 0 +
STACK CFI 48988 .cfa: sp 32 +
STACK CFI 48990 .cfa: x29 32 + x19: .cfa -8 + ^ x20: .cfa -16 + ^ .ra: .cfa -24 + ^ x29: .cfa -32 + ^
STACK CFI 48a0c .cfa: sp 32 +
STACK CFI 48a14 .cfa: sp 0 +
STACK CFI 48a18 .cfa: x29 32 +
STACK CFI 48a28 .cfa: sp 32 +
STACK CFI 48a30 .cfa: sp 0 +
STACK CFI 48a34 .cfa: x29 32 +
STACK CFI INIT 48a6c cc .cfa: sp 0 +
STACK CFI 48a70 .cfa: sp 32 +
STACK CFI 48a78 .cfa: x29 32 + x19: .cfa -8 + ^ x20: .cfa -16 + ^ .ra: .cfa -24 + ^ x29: .cfa -32 + ^
STACK CFI 48ad4 .cfa: sp 32 +
STACK CFI 48adc .cfa: sp 0 +
STACK CFI 48ae0 .cfa: x29 32 +
STACK CFI 48b10 .cfa: sp 32 +
STACK CFI 48b18 .cfa: sp 0 +
STACK CFI 48b1c .cfa: x29 32 +
STACK CFI INIT 48bd4 23c .cfa: sp 0 +
STACK CFI 48bd8 .cfa: sp 144 +
STACK CFI 48bf0 .cfa: x29 64 + x19: .cfa -8 + ^ x20: .cfa -16 + ^ x21: .cfa -24 + ^ x22: .cfa -32 + ^ x23: .cfa -40 + ^ x24: .cfa -48 + ^ .ra: .cfa -56 + ^ x29: .cfa -64 + ^ v8: .cfa -80 + ^
STACK CFI 48d88 .cfa: sp 144 +
STACK CFI 48da0 .cfa: sp 0 +
STACK CFI 48da4 .cfa: x29 64 +
STACK CFI INIT 48e38 1c .cfa: sp 0 +
STACK CFI 48e3c .cfa: sp 16 +
STACK CFI 48e40 .cfa: x29 16 + .ra: .cfa -8 + ^ x29: .cfa -16 + ^
STACK CFI 48e48 .cfa: sp 16 +
STACK CFI 48e4c .cfa: sp 0 +
STACK CFI 48e50 .cfa: x29 16 +
STACK CFI INIT 48e54 3c .cfa: sp 0 +
STACK CFI 48e58 .cfa: sp 32 +
STACK CFI 48e60 .cfa: x29 32 + x19: .cfa -16 + ^ .ra: .cfa -24 + ^ x29: .cfa -32 + ^
STACK CFI 48e7c .cfa: sp 32 +
STACK CFI 48e84 .cfa: sp 0 +
STACK CFI 48e88 .cfa: x29 32 +
STACK CFI INIT 48e90 1c .cfa: sp 0 +
STACK CFI 48e94 .cfa: sp 16 +
STACK CFI 48e98 .cfa: x29 16 + .ra: .cfa -8 + ^ x29: .cfa -16 + ^
STACK CFI 48ea0 .cfa: sp 16 +
STACK CFI 48ea4 .cfa: sp 0 +
STACK CFI 48ea8 .cfa: x29 16 +
STACK CFI INIT 48eac 1c .cfa: sp 0 +
STACK CFI 48eb0 .cfa: sp 16 +
STACK CFI 48eb4 .cfa: x29 16 + .ra: .cfa -8 + ^ x29: .cfa -16 + ^
STACK CFI 48ebc .cfa: sp 16 +
STACK CFI 48ec0 .cfa: sp 0 +
STACK CFI 48ec4 .cfa: x29 16 +
STACK CFI INIT 48ec8 48 .cfa: sp 0 +
STACK CFI 48ecc .cfa: sp 32 +
STACK CFI 48ed4 .cfa: x29 32 + x19: .cfa -16 + ^ .ra: .cfa -24 + ^ x29: .cfa -32 + ^
STACK CFI 48efc .cfa: sp 32 +
STACK CFI 48f04 .cfa: sp 0 +
STACK CFI 48f08 .cfa: x29 32 +
STACK CFI INIT 48f10 4c .cfa: sp 0 +
STACK CFI 48f14 .cfa: sp 32 +
STACK CFI 48f1c .cfa: x29 32 + x19: .cfa -16 + ^ .ra: .cfa -24 + ^ x29: .cfa -32 + ^
STACK CFI 48f48 .cfa: sp 32 +
STACK CFI 48f50 .cfa: sp 0 +
STACK CFI 48f54 .cfa: x29 32 +
STACK CFI INIT 48f5c 9c .cfa: sp 0 +
STACK CFI 48f60 .cfa: sp 48 +
STACK CFI 48f6c .cfa: x29 48 + x19: .cfa -8 + ^ x20: .cfa -16 + ^ x21: .cfa -32 + ^ .ra: .cfa -40 + ^ x29: .cfa -48 + ^
STACK CFI 48fb8 .cfa: sp 48 +
STACK CFI 48fc4 .cfa: sp 0 +
STACK CFI 48fc8 .cfa: x29 48 +
STACK CFI INIT 48ff8 6c .cfa: sp 0 +
STACK CFI 48ffc .cfa: sp 32 +
STACK CFI 49004 .cfa: x29 32 + x19: .cfa -8 + ^ x20: .cfa -16 + ^ .ra: .cfa -24 + ^ x29: .cfa -32 + ^
STACK CFI 49040 .cfa: sp 32 +
STACK CFI 49048 .cfa: sp 0 +
STACK CFI 4904c .cfa: x29 32 +
STACK CFI INIT 49064 3c .cfa: sp 0 +
STACK CFI 49068 .cfa: sp 32 +
STACK CFI 49070 .cfa: x29 32 + x19: .cfa -16 + ^ .ra: .cfa -24 + ^ x29: .cfa -32 + ^
STACK CFI 4908c .cfa: sp 32 +
STACK CFI 49094 .cfa: sp 0 +
STACK CFI 49098 .cfa: x29 32 +
STACK CFI INIT 490a0 40 .cfa: sp 0 +
STACK CFI 490a4 .cfa: sp 32 +
STACK CFI 490ac .cfa: x29 32 + x19: .cfa -16 + ^ .ra: .cfa -24 + ^ x29: .cfa -32 + ^
STACK CFI 490cc .cfa: sp 32 +
STACK CFI 490d4 .cfa: sp 0 +
STACK CFI 490d8 .cfa: x29 32 +
STACK CFI INIT 490e0 708 .cfa: sp 0 +
STACK CFI 490e4 .cfa: sp 288 +
STACK CFI 49104 .cfa: x29 96 + x19: .cfa -8 + ^ x20: .cfa -16 + ^ x21: .cfa -24 + ^ x22: .cfa -32 + ^ x23: .cfa -40 + ^ x24: .cfa -48 + ^ x25: .cfa -56 + ^ x26: .cfa -64 + ^ x27: .cfa -72 + ^ x28: .cfa -80 + ^ .ra: .cfa -88 + ^ x29: .cfa -96 + ^ v8: .cfa -104 + ^ v9: .cfa -112 + ^
STACK CFI 49640 .cfa: sp 288 +
STACK CFI 49660 .cfa: sp 0 +
STACK CFI 49664 .cfa: x29 96 +
STACK CFI INIT 49940 30 .cfa: sp 0 +
STACK CFI 49944 .cfa: sp 16 +
STACK CFI 49948 .cfa: x29 16 + .ra: .cfa -8 + ^ x29: .cfa -16 + ^
STACK CFI 49964 .cfa: sp 16 +
STACK CFI 49968 .cfa: sp 0 +
STACK CFI 4996c .cfa: x29 16 +
STACK CFI INIT 49970 3c .cfa: sp 0 +
STACK CFI 49974 .cfa: sp 32 +
STACK CFI 4997c .cfa: x29 32 + x19: .cfa -16 + ^ .ra: .cfa -24 + ^ x29: .cfa -32 + ^
STACK CFI 4999c .cfa: sp 32 +
STACK CFI 499a4 .cfa: sp 0 +
STACK CFI 499a8 .cfa: x29 32 +
STACK CFI INIT 499ac 64 .cfa: sp 0 +
STACK CFI 499b0 .cfa: sp 32 +
STACK CFI 499b8 .cfa: x29 32 + x19: .cfa -8 + ^ x20: .cfa -16 + ^ .ra: .cfa -24 + ^ x29: .cfa -32 + ^
STACK CFI 499f0 .cfa: sp 32 +
STACK CFI 499f8 .cfa: sp 0 +
STACK CFI 499fc .cfa: x29 32 +
STACK CFI INIT 49a54 20 .cfa: sp 0 +
STACK CFI 49a58 .cfa: sp 16 +
STACK CFI 49a5c .cfa: x29 16 + .ra: .cfa -8 + ^ x29: .cfa -16 + ^
STACK CFI 49a68 .cfa: sp 16 +
STACK CFI 49a6c .cfa: sp 0 +
STACK CFI 49a70 .cfa: x29 16 +
STACK CFI INIT 49a74 30 .cfa: sp 0 +
STACK CFI 49a78 .cfa: sp 32 +
STACK CFI 49a80 .cfa: x29 32 + x19: .cfa -16 + ^ .ra: .cfa -24 + ^ x29: .cfa -32 + ^
STACK CFI 49a94 .cfa: sp 32 +
STACK CFI 49a9c .cfa: sp 0 +
STACK CFI 49aa0 .cfa: x29 32 +
STACK CFI INIT 49aa4 a6c .cfa: sp 0 +
STACK CFI 49aa8 .cfa: sp 320 +
STACK CFI 49ac4 .cfa: x29 96 + x19: .cfa -8 + ^ x20: .cfa -16 + ^ x21: .cfa -24 + ^ x22: .cfa -32 + ^ x23: .cfa -40 + ^ x24: .cfa -48 + ^ x25: .cfa -56 + ^ x26: .cfa -64 + ^ x27: .cfa -72 + ^ x28: .cfa -80 + ^ .ra: .cfa -88 + ^ x29: .cfa -96 + ^
STACK CFI 4a270 .cfa: sp 320 +
STACK CFI 4a28c .cfa: sp 0 +
STACK CFI 4a290 .cfa: x29 96 +
STACK CFI INIT 4a538 1c .cfa: sp 0 +
STACK CFI 4a53c .cfa: sp 16 +
STACK CFI 4a540 .cfa: x29 16 + .ra: .cfa -8 + ^ x29: .cfa -16 + ^
STACK CFI 4a548 .cfa: sp 16 +
STACK CFI 4a54c .cfa: sp 0 +
STACK CFI 4a550 .cfa: x29 16 +
STACK CFI INIT 4a554 1c .cfa: sp 0 +
STACK CFI 4a558 .cfa: sp 16 +
STACK CFI 4a55c .cfa: x29 16 + .ra: .cfa -8 + ^ x29: .cfa -16 + ^
STACK CFI 4a564 .cfa: sp 16 +
STACK CFI 4a568 .cfa: sp 0 +
STACK CFI 4a56c .cfa: x29 16 +
STACK CFI INIT 4a570 30 .cfa: sp 0 +
STACK CFI 4a574 .cfa: sp 16 +
STACK CFI 4a578 .cfa: x29 16 + .ra: .cfa -8 + ^ x29: .cfa -16 + ^
STACK CFI 4a594 .cfa: sp 16 +
STACK CFI 4a598 .cfa: sp 0 +
STACK CFI 4a59c .cfa: x29 16 +
STACK CFI INIT 4a5a0 3c .cfa: sp 0 +
STACK CFI 4a5a4 .cfa: sp 32 +
STACK CFI 4a5ac .cfa: x29 32 + x19: .cfa -16 + ^ .ra: .cfa -24 + ^ x29: .cfa -32 + ^
STACK CFI 4a5cc .cfa: sp 32 +
STACK CFI 4a5d4 .cfa: sp 0 +
STACK CFI 4a5d8 .cfa: x29 32 +
STACK CFI INIT 4a5dc 60 .cfa: sp 0 +
STACK CFI 4a5e0 .cfa: sp 32 +
STACK CFI 4a5e8 .cfa: x29 32 + x19: .cfa -8 + ^ x20: .cfa -16 + ^ .ra: .cfa -24 + ^ x29: .cfa -32 + ^
STACK CFI 4a61c .cfa: sp 32 +
STACK CFI 4a624 .cfa: sp 0 +
STACK CFI 4a628 .cfa: x29 32 +
STACK CFI INIT 4a67c 20 .cfa: sp 0 +
STACK CFI 4a680 .cfa: sp 16 +
STACK CFI 4a684 .cfa: x29 16 + .ra: .cfa -8 + ^ x29: .cfa -16 + ^
STACK CFI 4a690 .cfa: sp 16 +
STACK CFI 4a694 .cfa: sp 0 +
STACK CFI 4a698 .cfa: x29 16 +
STACK CFI INIT 4a69c 30 .cfa: sp 0 +
STACK CFI 4a6a0 .cfa: sp 32 +
STACK CFI 4a6a8 .cfa: x29 32 + x19: .cfa -16 + ^ .ra: .cfa -24 + ^ x29: .cfa -32 + ^
STACK CFI 4a6bc .cfa: sp 32 +
STACK CFI 4a6c4 .cfa: sp 0 +
STACK CFI 4a6c8 .cfa: x29 32 +
STACK CFI INIT 4a6cc 370 .cfa: sp 0 +
STACK CFI 4a6d0 .cfa: sp 192 +
STACK CFI 4a6e8 .cfa: x29 80 + x19: .cfa -8 + ^ x20: .cfa -16 + ^ x21: .cfa -24 + ^ x22: .cfa -32 + ^ x23: .cfa -40 + ^ x24: .cfa -48 + ^ x25: .cfa -64 + ^ .ra: .cfa -72 + ^ x29: .cfa -80 + ^
STACK CFI 4a980 .cfa: sp 192 +
STACK CFI 4a998 .cfa: sp 0 +
STACK CFI 4a99c .cfa: x29 80 +
STACK CFI INIT 4acf4 30 .cfa: sp 0 +
STACK CFI 4acf8 .cfa: sp 16 +
STACK CFI 4acfc .cfa: x29 16 + .ra: .cfa -8 + ^ x29: .cfa -16 + ^
STACK CFI 4ad18 .cfa: sp 16 +
STACK CFI 4ad1c .cfa: sp 0 +
STACK CFI 4ad20 .cfa: x29 16 +
STACK CFI INIT 4ad24 3c .cfa: sp 0 +
STACK CFI 4ad28 .cfa: sp 32 +
STACK CFI 4ad30 .cfa: x29 32 + x19: .cfa -16 + ^ .ra: .cfa -24 + ^ x29: .cfa -32 + ^
STACK CFI 4ad50 .cfa: sp 32 +
STACK CFI 4ad58 .cfa: sp 0 +
STACK CFI 4ad5c .cfa: x29 32 +
STACK CFI INIT 4ad60 64 .cfa: sp 0 +
STACK CFI 4ad64 .cfa: sp 32 +
STACK CFI 4ad6c .cfa: x29 32 + x19: .cfa -8 + ^ x20: .cfa -16 + ^ .ra: .cfa -24 + ^ x29: .cfa -32 + ^
STACK CFI 4ada4 .cfa: sp 32 +
STACK CFI 4adac .cfa: sp 0 +
STACK CFI 4adb0 .cfa: x29 32 +
STACK CFI INIT 4ae08 20 .cfa: sp 0 +
STACK CFI 4ae0c .cfa: sp 16 +
STACK CFI 4ae10 .cfa: x29 16 + .ra: .cfa -8 + ^ x29: .cfa -16 + ^
STACK CFI 4ae1c .cfa: sp 16 +
STACK CFI 4ae20 .cfa: sp 0 +
STACK CFI 4ae24 .cfa: x29 16 +
STACK CFI INIT 4ae28 30 .cfa: sp 0 +
STACK CFI 4ae2c .cfa: sp 32 +
STACK CFI 4ae34 .cfa: x29 32 + x19: .cfa -16 + ^ .ra: .cfa -24 + ^ x29: .cfa -32 + ^
STACK CFI 4ae48 .cfa: sp 32 +
STACK CFI 4ae50 .cfa: sp 0 +
STACK CFI 4ae54 .cfa: x29 32 +
STACK CFI INIT 4ae58 6b0 .cfa: sp 0 +
STACK CFI 4ae5c .cfa: sp 240 +
STACK CFI 4ae74 .cfa: x29 80 + x19: .cfa -8 + ^ x20: .cfa -16 + ^ x21: .cfa -24 + ^ x22: .cfa -32 + ^ x23: .cfa -40 + ^ x24: .cfa -48 + ^ x25: .cfa -56 + ^ x26: .cfa -64 + ^ .ra: .cfa -72 + ^ x29: .cfa -80 + ^
STACK CFI 4b320 .cfa: sp 240 +
STACK CFI 4b338 .cfa: sp 0 +
STACK CFI 4b33c .cfa: x29 80 +
STACK CFI INIT 4b530 168 .cfa: sp 0 +
STACK CFI 4b534 .cfa: sp 384 +
STACK CFI 4b548 .cfa: x29 64 + x19: .cfa -8 + ^ x20: .cfa -16 + ^ x21: .cfa -24 + ^ x22: .cfa -32 + ^ x23: .cfa -40 + ^ x28: .cfa -48 + ^ .ra: .cfa -56 + ^ x29: .cfa -64 + ^
STACK CFI 4b640 .cfa: sp 384 +
STACK CFI 4b654 .cfa: sp 0 +
STACK CFI 4b658 .cfa: x29 64 +
STACK CFI INIT 4b6e0 30 .cfa: sp 0 +
STACK CFI 4b6e4 .cfa: sp 16 +
STACK CFI 4b6e8 .cfa: x29 16 + .ra: .cfa -8 + ^ x29: .cfa -16 + ^
STACK CFI 4b704 .cfa: sp 16 +
STACK CFI 4b708 .cfa: sp 0 +
STACK CFI 4b70c .cfa: x29 16 +
STACK CFI INIT 4b710 3c .cfa: sp 0 +
STACK CFI 4b714 .cfa: sp 32 +
STACK CFI 4b71c .cfa: x29 32 + x19: .cfa -16 + ^ .ra: .cfa -24 + ^ x29: .cfa -32 + ^
STACK CFI 4b73c .cfa: sp 32 +
STACK CFI 4b744 .cfa: sp 0 +
STACK CFI 4b748 .cfa: x29 32 +
STACK CFI INIT 4b74c 58 .cfa: sp 0 +
STACK CFI 4b750 .cfa: sp 32 +
STACK CFI 4b758 .cfa: x29 32 + x19: .cfa -8 + ^ x20: .cfa -16 + ^ .ra: .cfa -24 + ^ x29: .cfa -32 + ^
STACK CFI 4b784 .cfa: sp 32 +
STACK CFI 4b78c .cfa: sp 0 +
STACK CFI 4b790 .cfa: x29 32 +
STACK CFI INIT 4b7c0 20 .cfa: sp 0 +
STACK CFI 4b7c4 .cfa: sp 16 +
STACK CFI 4b7c8 .cfa: x29 16 + .ra: .cfa -8 + ^ x29: .cfa -16 + ^
STACK CFI 4b7d4 .cfa: sp 16 +
STACK CFI 4b7d8 .cfa: sp 0 +
STACK CFI 4b7dc .cfa: x29 16 +
STACK CFI INIT 4b7e0 30 .cfa: sp 0 +
STACK CFI 4b7e4 .cfa: sp 32 +
STACK CFI 4b7ec .cfa: x29 32 + x19: .cfa -16 + ^ .ra: .cfa -24 + ^ x29: .cfa -32 + ^
STACK CFI 4b800 .cfa: sp 32 +
STACK CFI 4b808 .cfa: sp 0 +
STACK CFI 4b80c .cfa: x29 32 +
STACK CFI INIT 4b810 380 .cfa: sp 0 +
STACK CFI 4b814 .cfa: sp 240 +
STACK CFI 4b82c .cfa: x29 80 + x19: .cfa -8 + ^ x20: .cfa -16 + ^ x21: .cfa -24 + ^ x22: .cfa -32 + ^ x23: .cfa -40 + ^ x24: .cfa -48 + ^ x25: .cfa -56 + ^ x26: .cfa -64 + ^ .ra: .cfa -72 + ^ x29: .cfa -80 + ^
STACK CFI 4ba88 .cfa: sp 240 +
STACK CFI 4baa0 .cfa: sp 0 +
STACK CFI 4baa4 .cfa: x29 80 +
STACK CFI INIT 4bbf8 814 .cfa: sp 0 +
STACK CFI 4bbfc .cfa: sp 384 +
STACK CFI 4bc14 .cfa: x29 80 + x19: .cfa -8 + ^ x20: .cfa -16 + ^ x21: .cfa -24 + ^ x22: .cfa -32 + ^ x23: .cfa -40 + ^ x24: .cfa -48 + ^ x25: .cfa -56 + ^ x28: .cfa -64 + ^ .ra: .cfa -72 + ^ x29: .cfa -80 + ^
STACK CFI 4c21c .cfa: sp 384 +
STACK CFI 4c234 .cfa: sp 0 +
STACK CFI 4c238 .cfa: x29 80 +
STACK CFI INIT 4c5a4 54 .cfa: sp 0 +
STACK CFI 4c5a8 .cfa: sp 32 +
STACK CFI 4c5b0 .cfa: x29 32 + x19: .cfa -8 + ^ x20: .cfa -16 + ^ .ra: .cfa -24 + ^ x29: .cfa -32 + ^
STACK CFI 4c5d8 .cfa: sp 32 +
STACK CFI 4c5e0 .cfa: sp 0 +
STACK CFI 4c5e4 .cfa: x29 32 +
STACK CFI INIT 4c644 6c8 .cfa: sp 0 +
STACK CFI 4c648 .cfa: sp 96 +
STACK CFI 4c660 .cfa: x29 96 + x19: .cfa -8 + ^ x20: .cfa -16 + ^ x21: .cfa -24 + ^ x22: .cfa -32 + ^ x23: .cfa -40 + ^ x24: .cfa -48 + ^ x25: .cfa -56 + ^ x26: .cfa -64 + ^ x27: .cfa -72 + ^ x28: .cfa -80 + ^ .ra: .cfa -88 + ^ x29: .cfa -96 + ^
STACK CFI 4cb98 .cfa: sp 96 +
STACK CFI 4cbb0 .cfa: sp 0 +
STACK CFI 4cbb4 .cfa: x29 96 +
STACK CFI INIT 4cdc8 388 .cfa: sp 0 +
STACK CFI 4cdcc .cfa: sp 240 +
STACK CFI 4cde4 .cfa: x29 80 + x19: .cfa -8 + ^ x20: .cfa -16 + ^ x21: .cfa -24 + ^ x22: .cfa -32 + ^ x23: .cfa -40 + ^ x24: .cfa -48 + ^ x25: .cfa -56 + ^ x26: .cfa -64 + ^ .ra: .cfa -72 + ^ x29: .cfa -80 + ^
STACK CFI 4d048 .cfa: sp 240 +
STACK CFI 4d060 .cfa: sp 0 +
STACK CFI 4d064 .cfa: x29 80 +
STACK CFI INIT 4d1e8 30 .cfa: sp 0 +
STACK CFI 4d1ec .cfa: sp 16 +
STACK CFI 4d1f0 .cfa: x29 16 + .ra: .cfa -8 + ^ x29: .cfa -16 + ^
STACK CFI 4d20c .cfa: sp 16 +
STACK CFI 4d210 .cfa: sp 0 +
STACK CFI 4d214 .cfa: x29 16 +
STACK CFI INIT 4d218 3c .cfa: sp 0 +
STACK CFI 4d21c .cfa: sp 32 +
STACK CFI 4d224 .cfa: x29 32 + x19: .cfa -16 + ^ .ra: .cfa -24 + ^ x29: .cfa -32 + ^
STACK CFI 4d244 .cfa: sp 32 +
STACK CFI 4d24c .cfa: sp 0 +
STACK CFI 4d250 .cfa: x29 32 +
STACK CFI INIT 4d254 58 .cfa: sp 0 +
STACK CFI 4d258 .cfa: sp 32 +
STACK CFI 4d260 .cfa: x29 32 + x19: .cfa -8 + ^ x20: .cfa -16 + ^ .ra: .cfa -24 + ^ x29: .cfa -32 + ^
STACK CFI 4d28c .cfa: sp 32 +
STACK CFI 4d294 .cfa: sp 0 +
STACK CFI 4d298 .cfa: x29 32 +
STACK CFI INIT 4d2c8 20 .cfa: sp 0 +
STACK CFI 4d2cc .cfa: sp 16 +
STACK CFI 4d2d0 .cfa: x29 16 + .ra: .cfa -8 + ^ x29: .cfa -16 + ^
STACK CFI 4d2dc .cfa: sp 16 +
STACK CFI 4d2e0 .cfa: sp 0 +
STACK CFI 4d2e4 .cfa: x29 16 +
STACK CFI INIT 4d2e8 30 .cfa: sp 0 +
STACK CFI 4d2ec .cfa: sp 32 +
STACK CFI 4d2f4 .cfa: x29 32 + x19: .cfa -16 + ^ .ra: .cfa -24 + ^ x29: .cfa -32 + ^
STACK CFI 4d308 .cfa: sp 32 +
STACK CFI 4d310 .cfa: sp 0 +
STACK CFI 4d314 .cfa: x29 32 +
STACK CFI INIT 4d378 58 .cfa: sp 0 +
STACK CFI 4d37c .cfa: sp 32 +
STACK CFI 4d384 .cfa: x29 32 + x19: .cfa -16 + ^ .ra: .cfa -24 + ^ x29: .cfa -32 + ^
STACK CFI 4d3b8 .cfa: sp 32 +
STACK CFI 4d3c0 .cfa: sp 0 +
STACK CFI 4d3c4 .cfa: x29 32 +
STACK CFI INIT 4d3d0 5c .cfa: sp 0 +
STACK CFI 4d3d4 .cfa: sp 32 +
STACK CFI 4d3dc .cfa: x29 32 + x19: .cfa -16 + ^ .ra: .cfa -24 + ^ x29: .cfa -32 + ^
STACK CFI 4d414 .cfa: sp 32 +
STACK CFI 4d41c .cfa: sp 0 +
STACK CFI 4d420 .cfa: x29 32 +
STACK CFI INIT 4d42c b4 .cfa: sp 0 +
STACK CFI 4d430 .cfa: sp 48 +
STACK CFI 4d43c .cfa: x29 48 + x19: .cfa -8 + ^ x20: .cfa -16 + ^ x21: .cfa -24 + ^ x22: .cfa -32 + ^ .ra: .cfa -40 + ^ x29: .cfa -48 + ^
STACK CFI 4d490 .cfa: sp 48 +
STACK CFI 4d49c .cfa: sp 0 +
STACK CFI 4d4a0 .cfa: x29 48 +
STACK CFI INIT 4d4e0 8c .cfa: sp 0 +
STACK CFI 4d4e4 .cfa: sp 32 +
STACK CFI 4d4ec .cfa: x29 32 + x19: .cfa -8 + ^ x20: .cfa -16 + ^ .ra: .cfa -24 + ^ x29: .cfa -32 + ^
STACK CFI 4d52c .cfa: sp 32 +
STACK CFI 4d534 .cfa: sp 0 +
STACK CFI 4d538 .cfa: x29 32 +
STACK CFI INIT 4d56c 4c .cfa: sp 0 +
STACK CFI 4d570 .cfa: sp 32 +
STACK CFI 4d578 .cfa: x29 32 + x19: .cfa -16 + ^ .ra: .cfa -24 + ^ x29: .cfa -32 + ^
STACK CFI 4d5a0 .cfa: sp 32 +
STACK CFI 4d5a8 .cfa: sp 0 +
STACK CFI 4d5ac .cfa: x29 32 +
STACK CFI INIT 4d5b8 50 .cfa: sp 0 +
STACK CFI 4d5bc .cfa: sp 32 +
STACK CFI 4d5c4 .cfa: x29 32 + x19: .cfa -16 + ^ .ra: .cfa -24 + ^ x29: .cfa -32 + ^
STACK CFI 4d5f0 .cfa: sp 32 +
STACK CFI 4d5f8 .cfa: sp 0 +
STACK CFI 4d5fc .cfa: x29 32 +
STACK CFI INIT 4d608 170 .cfa: sp 0 +
STACK CFI 4d60c .cfa: sp 112 +
STACK CFI 4d61c .cfa: x29 48 + x19: .cfa -8 + ^ x20: .cfa -16 + ^ x21: .cfa -24 + ^ x22: .cfa -32 + ^ .ra: .cfa -40 + ^ x29: .cfa -48 + ^
STACK CFI 4d660 .cfa: sp 112 +
STACK CFI 4d670 .cfa: sp 0 +
STACK CFI 4d674 .cfa: x29 48 +
STACK CFI 4d734 .cfa: sp 112 +
STACK CFI 4d744 .cfa: sp 0 +
STACK CFI 4d748 .cfa: x29 48 +
STACK CFI INIT 4d7a0 408 .cfa: sp 0 +
STACK CFI 4d7a4 .cfa: sp 208 +
STACK CFI 4d7c0 .cfa: x29 96 + x19: .cfa -8 + ^ x20: .cfa -16 + ^ x21: .cfa -24 + ^ x22: .cfa -32 + ^ x23: .cfa -40 + ^ x24: .cfa -48 + ^ x25: .cfa -56 + ^ x26: .cfa -64 + ^ x27: .cfa -80 + ^ .ra: .cfa -88 + ^ x29: .cfa -96 + ^
STACK CFI 4da94 .cfa: sp 208 +
STACK CFI 4dab0 .cfa: sp 0 +
STACK CFI 4dab4 .cfa: x29 96 +
STACK CFI INIT 4dbf8 74 .cfa: sp 0 +
STACK CFI 4dbfc .cfa: sp 48 +
STACK CFI 4dc08 .cfa: x29 32 + x19: .cfa -8 + ^ x20: .cfa -16 + ^ .ra: .cfa -24 + ^ x29: .cfa -32 + ^
STACK CFI 4dc54 .cfa: sp 48 +
STACK CFI 4dc60 .cfa: sp 0 +
STACK CFI 4dc64 .cfa: x29 32 +
STACK CFI INIT 4dcec 154 .cfa: sp 0 +
STACK CFI 4dcf0 .cfa: sp 384 +
STACK CFI 4dd04 .cfa: x29 64 + x19: .cfa -8 + ^ x20: .cfa -16 + ^ x21: .cfa -24 + ^ x22: .cfa -32 + ^ x23: .cfa -40 + ^ x28: .cfa -48 + ^ .ra: .cfa -56 + ^ x29: .cfa -64 + ^
STACK CFI 4dde8 .cfa: sp 384 +
STACK CFI 4ddfc .cfa: sp 0 +
STACK CFI 4de00 .cfa: x29 64 +
STACK CFI INIT 4df94 a8 .cfa: sp 0 +
STACK CFI 4df98 .cfa: sp 32 +
STACK CFI 4dfa0 .cfa: x29 32 + x19: .cfa -16 + ^ .ra: .cfa -24 + ^ x29: .cfa -32 + ^
STACK CFI 4dfd4 .cfa: sp 32 +
STACK CFI 4dfdc .cfa: sp 0 +
STACK CFI 4dfe0 .cfa: x29 32 +
STACK CFI 4dfe4 .cfa: sp 32 +
STACK CFI 4dfec .cfa: sp 0 +
STACK CFI 4dff0 .cfa: x29 32 +
STACK CFI INIT 4e1e0 190 .cfa: sp 0 +
STACK CFI 4e1e4 .cfa: sp 128 +
STACK CFI 4e1f4 .cfa: x29 48 + x19: .cfa -8 + ^ x20: .cfa -16 + ^ x21: .cfa -24 + ^ x22: .cfa -32 + ^ .ra: .cfa -40 + ^ x29: .cfa -48 + ^
STACK CFI 4e308 .cfa: sp 128 +
STACK CFI 4e318 .cfa: sp 0 +
STACK CFI 4e31c .cfa: x29 48 +
STACK CFI INIT 4e4c0 d8 .cfa: sp 0 +
STACK CFI 4e4c4 .cfa: sp 48 +
STACK CFI 4e4d0 .cfa: x29 48 + x19: .cfa -8 + ^ x20: .cfa -16 + ^ x21: .cfa -32 + ^ .ra: .cfa -40 + ^ x29: .cfa -48 + ^
STACK CFI 4e53c .cfa: sp 48 +
STACK CFI 4e548 .cfa: sp 0 +
STACK CFI 4e54c .cfa: x29 48 +
STACK CFI INIT 4e620 134 .cfa: sp 0 +
STACK CFI 4e624 .cfa: sp 80 +
STACK CFI 4e630 .cfa: x29 32 + x19: .cfa -8 + ^ x20: .cfa -16 + ^ .ra: .cfa -24 + ^ x29: .cfa -32 + ^
STACK CFI 4e660 .cfa: sp 80 +
STACK CFI 4e66c .cfa: sp 0 +
STACK CFI 4e670 .cfa: x29 32 +
STACK CFI INIT 4e754 78 .cfa: sp 0 +
STACK CFI 4e758 .cfa: sp 32 +
STACK CFI 4e760 .cfa: x29 32 + x19: .cfa -8 + ^ x20: .cfa -16 + ^ .ra: .cfa -24 + ^ x29: .cfa -32 + ^
STACK CFI 4e76c .cfa: sp 32 +
STACK CFI 4e774 .cfa: sp 0 +
STACK CFI 4e778 .cfa: x29 32 +
STACK CFI INIT 4e7cc 74 .cfa: sp 0 +
STACK CFI 4e7d0 .cfa: sp 48 +
STACK CFI 4e7dc .cfa: x29 32 + x19: .cfa -8 + ^ x20: .cfa -16 + ^ .ra: .cfa -24 + ^ x29: .cfa -32 + ^
STACK CFI 4e828 .cfa: sp 48 +
STACK CFI 4e834 .cfa: sp 0 +
STACK CFI 4e838 .cfa: x29 32 +
STACK CFI INIT 4e8a4 224 .cfa: sp 0 +
STACK CFI 4e8a8 .cfa: sp 128 +
STACK CFI 4e8b8 .cfa: x29 48 + x19: .cfa -8 + ^ x20: .cfa -16 + ^ x21: .cfa -32 + ^ .ra: .cfa -40 + ^ x29: .cfa -48 + ^
STACK CFI 4e968 .cfa: sp 128 +
STACK CFI 4e978 .cfa: sp 0 +
STACK CFI 4e97c .cfa: x29 48 +
STACK CFI INIT 4eaec 25c .cfa: sp 0 +
STACK CFI 4eaf0 .cfa: sp 128 +
STACK CFI 4eb00 .cfa: x29 48 + x19: .cfa -8 + ^ x20: .cfa -16 + ^ x21: .cfa -32 + ^ .ra: .cfa -40 + ^ x29: .cfa -48 + ^
STACK CFI 4ebe8 .cfa: sp 128 +
STACK CFI 4ebf8 .cfa: sp 0 +
STACK CFI 4ebfc .cfa: x29 48 +
STACK CFI INIT 4ed90 224 .cfa: sp 0 +
STACK CFI 4ed94 .cfa: sp 128 +
STACK CFI 4eda4 .cfa: x29 48 + x19: .cfa -8 + ^ x20: .cfa -16 + ^ x21: .cfa -32 + ^ .ra: .cfa -40 + ^ x29: .cfa -48 + ^
STACK CFI 4ee54 .cfa: sp 128 +
STACK CFI 4ee64 .cfa: sp 0 +
STACK CFI 4ee68 .cfa: x29 48 +
STACK CFI INIT 4efd8 270 .cfa: sp 0 +
STACK CFI 4efdc .cfa: sp 144 +
STACK CFI 4eff0 .cfa: x29 64 + x19: .cfa -8 + ^ x20: .cfa -16 + ^ x21: .cfa -24 + ^ x22: .cfa -32 + ^ x23: .cfa -48 + ^ .ra: .cfa -56 + ^ x29: .cfa -64 + ^
STACK CFI 4f0ec .cfa: sp 144 +
STACK CFI 4f100 .cfa: sp 0 +
STACK CFI 4f104 .cfa: x29 64 +
STACK CFI INIT 4f248 284 .cfa: sp 0 +
STACK CFI 4f24c .cfa: sp 128 +
STACK CFI 4f25c .cfa: x29 48 + x19: .cfa -8 + ^ x20: .cfa -16 + ^ x21: .cfa -32 + ^ .ra: .cfa -40 + ^ x29: .cfa -48 + ^
STACK CFI 4f374 .cfa: sp 128 +
STACK CFI 4f384 .cfa: sp 0 +
STACK CFI 4f388 .cfa: x29 48 +
STACK CFI INIT 4f520 300 .cfa: sp 0 +
STACK CFI 4f524 .cfa: sp 144 +
STACK CFI 4f538 .cfa: x29 64 + x19: .cfa -8 + ^ x20: .cfa -16 + ^ x21: .cfa -24 + ^ x22: .cfa -32 + ^ x23: .cfa -48 + ^ .ra: .cfa -56 + ^ x29: .cfa -64 + ^
STACK CFI 4f6cc .cfa: sp 144 +
STACK CFI 4f6e0 .cfa: sp 0 +
STACK CFI 4f6e4 .cfa: x29 64 +
STACK CFI INIT 4f874 264 .cfa: sp 0 +
STACK CFI 4f878 .cfa: sp 128 +
STACK CFI 4f888 .cfa: x29 48 + x19: .cfa -8 + ^ x20: .cfa -16 + ^ x21: .cfa -32 + ^ .ra: .cfa -40 + ^ x29: .cfa -48 + ^
STACK CFI 4f980 .cfa: sp 128 +
STACK CFI 4f990 .cfa: sp 0 +
STACK CFI 4f994 .cfa: x29 48 +
STACK CFI INIT 4fb2c 260 .cfa: sp 0 +
STACK CFI 4fb30 .cfa: sp 128 +
STACK CFI 4fb40 .cfa: x29 48 + x19: .cfa -8 + ^ x20: .cfa -16 + ^ x21: .cfa -32 + ^ .ra: .cfa -40 + ^ x29: .cfa -48 + ^
STACK CFI 4fc34 .cfa: sp 128 +
STACK CFI 4fc44 .cfa: sp 0 +
STACK CFI 4fc48 .cfa: x29 48 +
STACK CFI INIT 4fe04 1b8 .cfa: sp 0 +
STACK CFI 4fe08 .cfa: sp 160 +
STACK CFI 4fe24 .cfa: x29 72 + x19: .cfa -8 + ^ x20: .cfa -16 + ^ x21: .cfa -24 + ^ x22: .cfa -32 + ^ x23: .cfa -40 + ^ x24: .cfa -48 + ^ x25: .cfa -56 + ^ .ra: .cfa -64 + ^ x29: .cfa -72 + ^ v8: .cfa -80 + ^
STACK CFI 4fea8 .cfa: sp 160 +
STACK CFI 4fec4 .cfa: sp 0 +
STACK CFI 4fec8 .cfa: x29 72 +
STACK CFI INIT 4ffbc 16c .cfa: sp 0 +
STACK CFI 4ffc0 .cfa: sp 64 +
STACK CFI 4ffd0 .cfa: x29 48 + x19: .cfa -8 + ^ x20: .cfa -16 + ^ x21: .cfa -24 + ^ x22: .cfa -32 + ^ .ra: .cfa -40 + ^ x29: .cfa -48 + ^
STACK CFI 500c8 .cfa: sp 64 +
STACK CFI 500d8 .cfa: sp 0 +
STACK CFI 500dc .cfa: x29 48 +
STACK CFI INIT 50128 2b8 .cfa: sp 0 +
STACK CFI 5012c .cfa: sp 144 +
STACK CFI 50140 .cfa: x29 64 + x19: .cfa -8 + ^ x20: .cfa -16 + ^ x21: .cfa -24 + ^ x22: .cfa -32 + ^ x23: .cfa -48 + ^ .ra: .cfa -56 + ^ x29: .cfa -64 + ^
STACK CFI 5028c .cfa: sp 144 +
STACK CFI 502a0 .cfa: sp 0 +
STACK CFI 502a4 .cfa: x29 64 +
STACK CFI INIT 503e0 2c0 .cfa: sp 0 +
STACK CFI 503e4 .cfa: sp 144 +
STACK CFI 503f8 .cfa: x29 64 + x19: .cfa -8 + ^ x20: .cfa -16 + ^ x21: .cfa -24 + ^ x22: .cfa -32 + ^ x23: .cfa -48 + ^ .ra: .cfa -56 + ^ x29: .cfa -64 + ^
STACK CFI 5054c .cfa: sp 144 +
STACK CFI 50560 .cfa: sp 0 +
STACK CFI 50564 .cfa: x29 64 +
STACK CFI INIT 506b8 2e4 .cfa: sp 0 +
STACK CFI 506bc .cfa: sp 144 +
STACK CFI 506d0 .cfa: x29 64 + x19: .cfa -8 + ^ x20: .cfa -16 + ^ x21: .cfa -24 + ^ x22: .cfa -32 + ^ x23: .cfa -48 + ^ .ra: .cfa -56 + ^ x29: .cfa -64 + ^
STACK CFI 50848 .cfa: sp 144 +
STACK CFI 5085c .cfa: sp 0 +
STACK CFI 50860 .cfa: x29 64 +
STACK CFI INIT 5099c 2e4 .cfa: sp 0 +
STACK CFI 509a0 .cfa: sp 144 +
STACK CFI 509b4 .cfa: x29 64 + x19: .cfa -8 + ^ x20: .cfa -16 + ^ x21: .cfa -24 + ^ x22: .cfa -32 + ^ x23: .cfa -48 + ^ .ra: .cfa -56 + ^ x29: .cfa -64 + ^
STACK CFI 50b2c .cfa: sp 144 +
STACK CFI 50b40 .cfa: sp 0 +
STACK CFI 50b44 .cfa: x29 64 +
STACK CFI INIT 50c80 2a0 .cfa: sp 0 +
STACK CFI 50c84 .cfa: sp 144 +
STACK CFI 50c98 .cfa: x29 64 + x19: .cfa -8 + ^ x20: .cfa -16 + ^ x21: .cfa -24 + ^ x22: .cfa -32 + ^ x23: .cfa -48 + ^ .ra: .cfa -56 + ^ x29: .cfa -64 + ^
STACK CFI 50dcc .cfa: sp 144 +
STACK CFI 50de0 .cfa: sp 0 +
STACK CFI 50de4 .cfa: x29 64 +
STACK CFI INIT 50f20 2f0 .cfa: sp 0 +
STACK CFI 50f24 .cfa: sp 144 +
STACK CFI 50f38 .cfa: x29 64 + x19: .cfa -8 + ^ x20: .cfa -16 + ^ x21: .cfa -24 + ^ x22: .cfa -32 + ^ x23: .cfa -48 + ^ .ra: .cfa -56 + ^ x29: .cfa -64 + ^
STACK CFI 510bc .cfa: sp 144 +
STACK CFI 510d0 .cfa: sp 0 +
STACK CFI 510d4 .cfa: x29 64 +
STACK CFI INIT 51210 4f4 .cfa: sp 0 +
STACK CFI 51214 .cfa: sp 144 +
STACK CFI 51228 .cfa: x29 64 + x19: .cfa -8 + ^ x20: .cfa -16 + ^ x21: .cfa -24 + ^ x22: .cfa -32 + ^ x23: .cfa -48 + ^ .ra: .cfa -56 + ^ x29: .cfa -64 + ^
STACK CFI 5155c .cfa: sp 144 +
STACK CFI 51570 .cfa: sp 0 +
STACK CFI 51574 .cfa: x29 64 +
STACK CFI INIT 51704 154 .cfa: sp 0 +
STACK CFI 51708 .cfa: sp 384 +
STACK CFI 5171c .cfa: x29 64 + x19: .cfa -8 + ^ x20: .cfa -16 + ^ x21: .cfa -24 + ^ x22: .cfa -32 + ^ x23: .cfa -40 + ^ x28: .cfa -48 + ^ .ra: .cfa -56 + ^ x29: .cfa -64 + ^
STACK CFI 51800 .cfa: sp 384 +
STACK CFI 51814 .cfa: sp 0 +
STACK CFI 51818 .cfa: x29 64 +
STACK CFI INIT 51870 50c .cfa: sp 0 +
STACK CFI 51874 .cfa: sp 64 +
STACK CFI 51884 .cfa: x29 64 + x19: .cfa -8 + ^ x20: .cfa -16 + ^ x21: .cfa -24 + ^ x22: .cfa -32 + ^ x23: .cfa -40 + ^ x24: .cfa -48 + ^ .ra: .cfa -56 + ^ x29: .cfa -64 + ^
STACK CFI 519a4 .cfa: sp 64 +
STACK CFI 519b4 .cfa: sp 0 +
STACK CFI 519b8 .cfa: x29 64 +
STACK CFI 51d50 .cfa: sp 64 +
STACK CFI 51d60 .cfa: sp 0 +
STACK CFI 51d64 .cfa: x29 64 +
STACK CFI INIT 520ac 294 .cfa: sp 0 +
STACK CFI 520b0 .cfa: sp 240 +
STACK CFI 520c8 .cfa: x29 80 + x19: .cfa -8 + ^ x20: .cfa -16 + ^ x21: .cfa -24 + ^ x22: .cfa -32 + ^ x23: .cfa -40 + ^ x24: .cfa -48 + ^ x25: .cfa -64 + ^ .ra: .cfa -72 + ^ x29: .cfa -80 + ^
STACK CFI 52268 .cfa: sp 240 +
STACK CFI 52280 .cfa: sp 0 +
STACK CFI 52284 .cfa: x29 80 +
STACK CFI INIT 523bc 50 .cfa: sp 0 +
STACK CFI 523c0 .cfa: sp 32 +
STACK CFI 523c8 .cfa: x29 32 + x19: .cfa -8 + ^ x20: .cfa -16 + ^ .ra: .cfa -24 + ^ x29: .cfa -32 + ^
STACK CFI INIT 52438 7c0 .cfa: sp 0 +
STACK CFI 5243c .cfa: sp 320 +
STACK CFI 52458 .cfa: x29 96 + x19: .cfa -8 + ^ x20: .cfa -16 + ^ x21: .cfa -24 + ^ x22: .cfa -32 + ^ x23: .cfa -40 + ^ x24: .cfa -48 + ^ x25: .cfa -56 + ^ x26: .cfa -64 + ^ x27: .cfa -72 + ^ x28: .cfa -80 + ^ .ra: .cfa -88 + ^ x29: .cfa -96 + ^
STACK CFI 52aa8 .cfa: sp 320 +
STACK CFI 52ac4 .cfa: sp 0 +
STACK CFI 52ac8 .cfa: x29 96 +
STACK CFI INIT 52c5c 13c .cfa: sp 0 +
STACK CFI 52c60 .cfa: sp 80 +
STACK CFI 52c74 .cfa: x29 80 + x19: .cfa -8 + ^ x20: .cfa -16 + ^ x21: .cfa -24 + ^ x22: .cfa -32 + ^ x23: .cfa -40 + ^ x24: .cfa -48 + ^ x28: .cfa -64 + ^ .ra: .cfa -72 + ^ x29: .cfa -80 + ^
STACK CFI 52d08 .cfa: sp 80 +
STACK CFI 52d1c .cfa: sp 0 +
STACK CFI 52d20 .cfa: x29 80 +
STACK CFI INIT 570b4 c74 .cfa: sp 0 +
STACK CFI 570b8 .cfa: sp 96 +
STACK CFI 570d0 .cfa: x29 96 + x19: .cfa -8 + ^ x20: .cfa -16 + ^ x21: .cfa -24 + ^ x22: .cfa -32 + ^ x23: .cfa -40 + ^ x24: .cfa -48 + ^ x25: .cfa -56 + ^ x26: .cfa -64 + ^ x27: .cfa -72 + ^ x28: .cfa -80 + ^ .ra: .cfa -88 + ^ x29: .cfa -96 + ^
STACK CFI 57b48 .cfa: sp 96 +
STACK CFI 57b60 .cfa: sp 0 +
STACK CFI 57b64 .cfa: x29 96 +
STACK CFI INIT 57e7c 26c .cfa: sp 0 +
STACK CFI 57e80 .cfa: sp 128 +
STACK CFI 57e90 .cfa: x29 48 + x19: .cfa -8 + ^ x20: .cfa -16 + ^ x21: .cfa -24 + ^ x22: .cfa -32 + ^ .ra: .cfa -40 + ^ x29: .cfa -48 + ^
STACK CFI 58034 .cfa: sp 128 +
STACK CFI 58044 .cfa: sp 0 +
STACK CFI 58048 .cfa: x29 48 +
STACK CFI INIT 58478 3b8 .cfa: sp 0 +
STACK CFI 5847c .cfa: sp 96 +
STACK CFI 58494 .cfa: x29 96 + x19: .cfa -8 + ^ x20: .cfa -16 + ^ x21: .cfa -24 + ^ x22: .cfa -32 + ^ x23: .cfa -40 + ^ x24: .cfa -48 + ^ x25: .cfa -56 + ^ x26: .cfa -64 + ^ x27: .cfa -72 + ^ x28: .cfa -80 + ^ .ra: .cfa -88 + ^ x29: .cfa -96 + ^
STACK CFI 587d0 .cfa: sp 96 +
STACK CFI 587e8 .cfa: sp 0 +
STACK CFI 587ec .cfa: x29 96 +
STACK CFI INIT 588d0 cb4 .cfa: sp 0 +
STACK CFI 588d4 .cfa: sp 96 +
STACK CFI 588ec .cfa: x29 96 + x19: .cfa -8 + ^ x20: .cfa -16 + ^ x21: .cfa -24 + ^ x22: .cfa -32 + ^ x23: .cfa -40 + ^ x24: .cfa -48 + ^ x25: .cfa -56 + ^ x26: .cfa -64 + ^ x27: .cfa -72 + ^ x28: .cfa -80 + ^ .ra: .cfa -88 + ^ x29: .cfa -96 + ^
STACK CFI 59394 .cfa: sp 96 +
STACK CFI 593ac .cfa: sp 0 +
STACK CFI 593b0 .cfa: x29 96 +
STACK CFI INIT 5986c afc .cfa: sp 0 +
STACK CFI 59870 .cfa: sp 96 +
STACK CFI 59888 .cfa: x29 96 + x19: .cfa -8 + ^ x20: .cfa -16 + ^ x21: .cfa -24 + ^ x22: .cfa -32 + ^ x23: .cfa -40 + ^ x24: .cfa -48 + ^ x25: .cfa -56 + ^ x26: .cfa -64 + ^ x27: .cfa -72 + ^ x28: .cfa -80 + ^ .ra: .cfa -88 + ^ x29: .cfa -96 + ^
STACK CFI 5a2dc .cfa: sp 96 +
STACK CFI 5a2f4 .cfa: sp 0 +
STACK CFI 5a2f8 .cfa: x29 96 +
STACK CFI INIT 5a544 1430 .cfa: sp 0 +
STACK CFI 5a548 .cfa: sp 96 +
STACK CFI 5a560 .cfa: x29 96 + x19: .cfa -8 + ^ x20: .cfa -16 + ^ x21: .cfa -24 + ^ x22: .cfa -32 + ^ x23: .cfa -40 + ^ x24: .cfa -48 + ^ x25: .cfa -56 + ^ x26: .cfa -64 + ^ x27: .cfa -72 + ^ x28: .cfa -80 + ^ .ra: .cfa -88 + ^ x29: .cfa -96 + ^
STACK CFI 5b7fc .cfa: sp 96 +
STACK CFI 5b814 .cfa: sp 0 +
STACK CFI 5b818 .cfa: x29 96 +
STACK CFI INIT 5ba98 75c .cfa: sp 0 +
STACK CFI 5ba9c .cfa: sp 368 +
STACK CFI 5bab8 .cfa: x29 96 + x19: .cfa -8 + ^ x20: .cfa -16 + ^ x21: .cfa -24 + ^ x22: .cfa -32 + ^ x23: .cfa -40 + ^ x24: .cfa -48 + ^ x25: .cfa -56 + ^ x26: .cfa -64 + ^ x27: .cfa -72 + ^ x28: .cfa -80 + ^ .ra: .cfa -88 + ^ x29: .cfa -96 + ^
STACK CFI 5bb6c .cfa: sp 368 +
STACK CFI 5bb88 .cfa: sp 0 +
STACK CFI 5bb8c .cfa: x29 96 +
STACK CFI 5bbe0 .cfa: sp 368 +
STACK CFI 5bbfc .cfa: sp 0 +
STACK CFI 5bc00 .cfa: x29 96 +
STACK CFI INIT 5c5b4 eb0 .cfa: sp 0 +
STACK CFI 5c5b8 .cfa: sp 96 +
STACK CFI 5c5d0 .cfa: x29 96 + x19: .cfa -8 + ^ x20: .cfa -16 + ^ x21: .cfa -24 + ^ x22: .cfa -32 + ^ x23: .cfa -40 + ^ x24: .cfa -48 + ^ x25: .cfa -56 + ^ x26: .cfa -64 + ^ x27: .cfa -72 + ^ x28: .cfa -80 + ^ .ra: .cfa -88 + ^ x29: .cfa -96 + ^
STACK CFI 5d278 .cfa: sp 96 +
STACK CFI 5d290 .cfa: sp 0 +
STACK CFI 5d294 .cfa: x29 96 +
STACK CFI INIT 5d7d8 1c9c .cfa: sp 0 +
STACK CFI 5d7dc .cfa: sp 112 +
STACK CFI 5d7f8 .cfa: x29 96 + x19: .cfa -8 + ^ x20: .cfa -16 + ^ x21: .cfa -24 + ^ x22: .cfa -32 + ^ x23: .cfa -40 + ^ x24: .cfa -48 + ^ x25: .cfa -56 + ^ x26: .cfa -64 + ^ x27: .cfa -72 + ^ x28: .cfa -80 + ^ .ra: .cfa -88 + ^ x29: .cfa -96 + ^ v8: .cfa -112 + ^
STACK CFI 5dbe0 .cfa: sp 112 +
STACK CFI 5dbfc .cfa: sp 0 +
STACK CFI 5dc00 .cfa: x29 96 +
STACK CFI INIT 61c38 9a0 .cfa: sp 0 +
STACK CFI 61c3c .cfa: sp 144 +
STACK CFI 61c54 .cfa: x29 80 + x19: .cfa -8 + ^ x20: .cfa -16 + ^ x21: .cfa -24 + ^ x22: .cfa -32 + ^ x23: .cfa -40 + ^ x24: .cfa -48 + ^ x25: .cfa -64 + ^ .ra: .cfa -72 + ^ x29: .cfa -80 + ^
STACK CFI 62554 .cfa: sp 144 +
STACK CFI 6256c .cfa: sp 0 +
STACK CFI 62570 .cfa: x29 80 +
STACK CFI INIT 63afc 57c .cfa: sp 0 +
STACK CFI 63b00 .cfa: sp 96 +
STACK CFI 63b18 .cfa: x29 96 + x19: .cfa -8 + ^ x20: .cfa -16 + ^ x21: .cfa -24 + ^ x22: .cfa -32 + ^ x23: .cfa -40 + ^ x24: .cfa -48 + ^ x25: .cfa -56 + ^ x26: .cfa -64 + ^ x27: .cfa -72 + ^ x28: .cfa -80 + ^ .ra: .cfa -88 + ^ x29: .cfa -96 + ^
STACK CFI 63fdc .cfa: sp 96 +
STACK CFI 63ff4 .cfa: sp 0 +
STACK CFI 63ff8 .cfa: x29 96 +
STACK CFI INIT 64078 67c .cfa: sp 0 +
STACK CFI 6407c .cfa: sp 96 +
STACK CFI 64094 .cfa: x29 96 + x19: .cfa -8 + ^ x20: .cfa -16 + ^ x21: .cfa -24 + ^ x22: .cfa -32 + ^ x23: .cfa -40 + ^ x24: .cfa -48 + ^ x25: .cfa -56 + ^ x26: .cfa -64 + ^ x27: .cfa -72 + ^ x28: .cfa -80 + ^ .ra: .cfa -88 + ^ x29: .cfa -96 + ^
STACK CFI 64658 .cfa: sp 96 +
STACK CFI 64670 .cfa: sp 0 +
STACK CFI 64674 .cfa: x29 96 +
