MODULE Linux arm64 42BDDCF8B3F6896233E475F8A380A2D00 hiimjustin000.search_history.android64.so
INFO CODE_ID F8DCBD42F6B3628933E475F8A380A2D065E77B8A
INFO GENERATOR mozilla/dump_syms 2.3.4
PUBLIC 1d350 0 __on_dlclose
PUBLIC 1d360 0 __emutls_unregister_key
PUBLIC 1d368 0 __on_dlclose_late
PUBLIC 1d370 0 __atexit_handler_wrapper
PUBLIC 1d384 0 atexit
PUBLIC 1d3a0 0 pthread_atfork
PUBLIC 1d3b0 0 unwind_phase2
PUBLIC 1d4e4 0 _Unwind_Resume
PUBLIC 1d568 0 unwind_phase2_forced
PUBLIC m 1d65c 0 __unw_init_local
PUBLIC m 1d704 0 __unw_get_reg
PUBLIC 1d780 0 __unw_step_stage2
PUBLIC m 1d794 0 __unw_get_proc_info
PUBLIC m 1d7d4 0 __unw_resume
PUBLIC 1d7fc 0 libunwind::CFI_Parser<libunwind::LocalAddressSpace>::decodeFDE(libunwind::LocalAddressSpace&, unsigned long, libunwind::CFI_Parser<libunwind::LocalAddressSpace>::FDE_Info*, libunwind::CFI_Parser<libunwind::LocalAddressSpace>::CIE_Info*, bool)
PUBLIC 1d98c 0 libunwind::CFI_Parser<libunwind::LocalAddressSpace>::parseCIE(libunwind::LocalAddressSpace&, unsigned long, libunwind::CFI_Parser<libunwind::LocalAddressSpace>::CIE_Info*)
PUBLIC 1dc54 0 libunwind::AbstractUnwindCursor::~AbstractUnwindCursor()
PUBLIC 1dc5c 0 libunwind::UnwindCursor<libunwind::LocalAddressSpace, libunwind::Registers_arm64>::~UnwindCursor()
PUBLIC 1dc64 0 libunwind::UnwindCursor<libunwind::LocalAddressSpace, libunwind::Registers_arm64>::validReg(int)
PUBLIC 1dca8 0 libunwind::UnwindCursor<libunwind::LocalAddressSpace, libunwind::Registers_arm64>::getReg(int)
PUBLIC 1dd90 0 libunwind::UnwindCursor<libunwind::LocalAddressSpace, libunwind::Registers_arm64>::setReg(int, unsigned long)
PUBLIC 1de78 0 libunwind::UnwindCursor<libunwind::LocalAddressSpace, libunwind::Registers_arm64>::validFloatReg(int)
PUBLIC 1de8c 0 libunwind::UnwindCursor<libunwind::LocalAddressSpace, libunwind::Registers_arm64>::getFloatReg(int)
PUBLIC 1de9c 0 libunwind::UnwindCursor<libunwind::LocalAddressSpace, libunwind::Registers_arm64>::setFloatReg(int, double)
PUBLIC 1deac 0 libunwind::UnwindCursor<libunwind::LocalAddressSpace, libunwind::Registers_arm64>::step(bool)
PUBLIC 1df9c 0 libunwind::UnwindCursor<libunwind::LocalAddressSpace, libunwind::Registers_arm64>::getInfo(unw_proc_info_t*)
PUBLIC 1dfe0 0 libunwind::UnwindCursor<libunwind::LocalAddressSpace, libunwind::Registers_arm64>::jumpto()
PUBLIC 1dfec 0 libunwind::UnwindCursor<libunwind::LocalAddressSpace, libunwind::Registers_arm64>::isSignalFrame()
PUBLIC 1dff8 0 libunwind::UnwindCursor<libunwind::LocalAddressSpace, libunwind::Registers_arm64>::getFunctionName(char*, unsigned long, unsigned long*)
PUBLIC 1e024 0 libunwind::UnwindCursor<libunwind::LocalAddressSpace, libunwind::Registers_arm64>::setInfoBasedOnIPRegister(bool)
PUBLIC 1e2a4 0 libunwind::UnwindCursor<libunwind::LocalAddressSpace, libunwind::Registers_arm64>::getRegisterName(int)
PUBLIC 1e2b0 0 libunwind::UnwindCursor<libunwind::LocalAddressSpace, libunwind::Registers_arm64>::stepThroughSigReturn(libunwind::Registers_arm64&)
PUBLIC 1e3d0 0 libunwind::DwarfInstructions<libunwind::LocalAddressSpace, libunwind::Registers_arm64>::stepWithDwarf(libunwind::LocalAddressSpace&, unsigned long, unsigned long, libunwind::Registers_arm64&, bool&, bool)
PUBLIC 1e858 0 libunwind::CFI_Parser<libunwind::LocalAddressSpace>::parseFDEInstructions(libunwind::LocalAddressSpace&, libunwind::CFI_Parser<libunwind::LocalAddressSpace>::FDE_Info const&, libunwind::CFI_Parser<libunwind::LocalAddressSpace>::CIE_Info const&, unsigned long, int, libunwind::CFI_Parser<libunwind::LocalAddressSpace>::PrologInfo*)
PUBLIC 1f4a0 0 libunwind::DwarfInstructions<libunwind::LocalAddressSpace, libunwind::Registers_arm64>::getCFA(libunwind::LocalAddressSpace&, libunwind::CFI_Parser<libunwind::LocalAddressSpace>::PrologInfo const&, libunwind::Registers_arm64 const&)
PUBLIC 1f5d4 0 libunwind::DwarfInstructions<libunwind::LocalAddressSpace, libunwind::Registers_arm64>::getSavedRegister(libunwind::LocalAddressSpace&, libunwind::Registers_arm64 const&, unsigned long, libunwind::CFI_Parser<libunwind::LocalAddressSpace>::RegisterLocation const&)
PUBLIC 1f7e4 0 libunwind::LocalAddressSpace::getEncodedP(unsigned long&, unsigned long, unsigned char, unsigned long)
PUBLIC 1fb70 0 libunwind::LocalAddressSpace::getULEB128(unsigned long&, unsigned long)
PUBLIC 1fd38 0 libunwind::DwarfInstructions<libunwind::LocalAddressSpace, libunwind::Registers_arm64>::evaluateExpression(unsigned long, libunwind::LocalAddressSpace&, libunwind::Registers_arm64 const&, unsigned long)
PUBLIC 206f4 0 libunwind::UnwindCursor<libunwind::LocalAddressSpace, libunwind::Registers_arm64>::getInfoFromDwarfSection(unsigned long, libunwind::UnwindInfoSections const&, unsigned int)
PUBLIC 209c8 0 libunwind::findUnwindSectionsByPhdr(dl_phdr_info*, unsigned long, void*)
PUBLIC 20afc 0 libunwind::EHHeaderParser<libunwind::LocalAddressSpace>::decodeEHHdr(libunwind::LocalAddressSpace&, unsigned long, unsigned long, libunwind::EHHeaderParser<libunwind::LocalAddressSpace>::EHHeaderInfo&)
PUBLIC 20c1c 0 libunwind::CFI_Parser<libunwind::LocalAddressSpace>::findFDE(libunwind::LocalAddressSpace&, unsigned long, unsigned long, unsigned long, unsigned long, libunwind::CFI_Parser<libunwind::LocalAddressSpace>::FDE_Info*, libunwind::CFI_Parser<libunwind::LocalAddressSpace>::CIE_Info*)
PUBLIC 20de4 0 libunwind::EHHeaderParser<libunwind::LocalAddressSpace>::findFDE(libunwind::LocalAddressSpace&, unsigned long, unsigned long, unsigned int, libunwind::CFI_Parser<libunwind::LocalAddressSpace>::FDE_Info*, libunwind::CFI_Parser<libunwind::LocalAddressSpace>::CIE_Info*)
PUBLIC 20f4c 0 libunwind::EHHeaderParser<libunwind::LocalAddressSpace>::getTableEntrySize(unsigned char)
PUBLIC 21048 0 libunwind::Registers_arm64::getRegisterName(int)
PUBLIC 21078 0 __libunwind_Registers_arm64_jumpto
PUBLIC m 21108 0 __unw_getcontext
PUBLIC 211b0 0 __aarch64_ldadd8_relax
PUBLIC 211e0 0 init_have_lse_atomics
PUBLIC 21278 0 __init_cpu_features_constructor
PUBLIC 21814 0 __init_cpu_features
PUBLIC 218a0 0 __aarch64_ldadd8_acq_rel
PUBLIC 218d0 0 __cxx_global_var_init
PUBLIC 224a4 0 geode::modifier::ModifyBase<geode::modifier::ModifyDerive<SHLevelSearchLayer, LevelSearchLayer> >::~ModifyBase()
PUBLIC 224bc 0 geode::modifier::ModifyDerive<SHLevelSearchLayer, LevelSearchLayer>::apply()
PUBLIC 22c0c 0 std::__ndk1::shared_ptr<geode::Hook>::~shared_ptr[abi:ne180000]()
PUBLIC 22c5c 0 geode::impl::ResultData<geode::Hook*, std::__ndk1::basic_string<char, std::__ndk1::char_traits<char>, std::__ndk1::allocator<char> > >::~ResultData()
PUBLIC 22cd0 0 std::__ndk1::vector<std::__ndk1::basic_string<char, std::__ndk1::char_traits<char>, std::__ndk1::allocator<char> >, std::__ndk1::allocator<std::__ndk1::basic_string<char, std::__ndk1::char_traits<char>, std::__ndk1::allocator<char> > > >::~vector[abi:ne180000]()
PUBLIC 22d4c 0 geode::modifier::ModifyBase<geode::modifier::ModifyDerive<SHLevelSearchLayer, LevelSearchLayer> >::apply()
PUBLIC 22d50 0 __clang_call_terminate
PUBLIC 22d60 0 _ZN5geode15UnwrapExceptionC2IRPNS_4HookEQsr4implE18IsStringStreamableIT_EEENS_4impl5OkTagEOS5_
PUBLIC 22eb4 0 std::__ndk1::__throw_bad_variant_access[abi:ne180000]()
PUBLIC 22ee8 0 std::__ndk1::basic_stringstream<char, std::__ndk1::char_traits<char>, std::__ndk1::allocator<char> >::basic_stringstream[abi:ne180000]()
PUBLIC m 23014 0 std::__ndk1::basic_stringstream<char, std::__ndk1::char_traits<char>, std::__ndk1::allocator<char> >::~basic_stringstream()
PUBLIC 23094 0 geode::UnwrapException::~UnwrapException()
PUBLIC 230b8 0 std::__ndk1::__put_character_sequence[abi:ne180000]<char, std::__ndk1::char_traits<char> >(std::__ndk1::basic_ostream<char, std::__ndk1::char_traits<char> >, std::__ndk1::basic_ostream const*, unsigned long)
PUBLIC 2325c 0 std::__ndk1::__pad_and_output[abi:ne180000]<char, std::__ndk1::char_traits<char> >(std::__ndk1::char_traits<char>, std::__ndk1::ostreambuf_iterator const*, std::__ndk1::ostreambuf_iterator const, std::__ndk1::ostreambuf_iterator const, std::__ndk1::ios_base&, std::__ndk1::ostreambuf_iterator)
PUBLIC 23438 0 std::__ndk1::basic_string<char, std::__ndk1::char_traits<char>, std::__ndk1::allocator<char> >::__throw_length_error[abi:ne180000]() const
PUBLIC 2344c 0 std::__ndk1::__throw_length_error[abi:ne180000](char const*)
PUBLIC 2349c 0 std::length_error::length_error[abi:ne180000](char const*)
PUBLIC 234cc 0 std::__throw_bad_array_new_length([abi:ne180000], void)
PUBLIC 23500 0 std::__ndk1::basic_stringbuf<char, std::__ndk1::char_traits<char>, std::__ndk1::allocator<char> >::str[abi:ne180000]() &&
PUBLIC 23678 0 std::__ndk1::basic_stringbuf<char, std::__ndk1::char_traits<char>, std::__ndk1::allocator<char> >::__init_buf_ptrs[abi:ne180000]()
PUBLIC 237c0 0 std::__ndk1::basic_string<char, std::__ndk1::char_traits<char>, std::__ndk1::allocator<char> >::__init_copy_ctor_external(char const*, unsigned long)
PUBLIC 23840 0 std::__ndk1::__split_buffer<std::__ndk1::basic_string<char, std::__ndk1::char_traits<char>, std::__ndk1::allocator<char> >, std::__ndk1::allocator<std::__ndk1::basic_string<char, std::__ndk1::char_traits<char>, std::__ndk1::allocator<char> > >&>::~__split_buffer()
PUBLIC 238a8 0 std::__ndk1::vector<std::__ndk1::basic_string<char, std::__ndk1::char_traits<char>, std::__ndk1::allocator<char> >, std::__ndk1::allocator<std::__ndk1::basic_string<char, std::__ndk1::char_traits<char>, std::__ndk1::allocator<char> > > >::__throw_length_error[abi:ne180000]() const
PUBLIC 238bc 0 std::__ndk1::__variant_detail::__visitation::__base::__dispatcher<(unsigned long)0>::__dispatch[abi:ne180000]<std::__ndk1::__variant_detail::__dtor<std::__ndk1::__variant_detail::__traits<geode::Hook*, std::__ndk1::basic_string<char, std::__ndk1::char_traits<char>, std::__ndk1::allocator<char> > >, (std::__ndk1::__variant_detail::_Trait)1>::__destroy[abi:ne180000]()::{lambda(auto:1&)#1}, std::__ndk1::__variant_detail::__base<(std::__ndk1::__variant_detail::__traits<geode::Hook*, std::__ndk1::basic_string<char, std::__ndk1::char_traits<char>, std::__ndk1::allocator<char> > >)1, geode::Hook, std::__ndk1::allocator<char> >&>(std::__ndk1::__variant_detail::__dtor<std::__ndk1::__variant_detail::__traits<geode::Hook*, std::__ndk1::basic_string<char, std::__ndk1::char_traits<char>, std::__ndk1::allocator<char> > >, (std::__ndk1::__variant_detail::_Trait)1>, std::__ndk1::__variant_detail::__base<(std::__ndk1::__variant_detail::__traits<geode::Hook*, std::__ndk1::basic_string<char, std::__ndk1::char_traits<char>, std::__ndk1::allocator<char> > >)1, geode::Hook, std::__ndk1::allocator<char> >&)
PUBLIC 238c0 0 std::__ndk1::__variant_detail::__visitation::__base::__dispatcher<(unsigned long)1>::__dispatch[abi:ne180000]<std::__ndk1::__variant_detail::__dtor<std::__ndk1::__variant_detail::__traits<geode::Hook*, std::__ndk1::basic_string<char, std::__ndk1::char_traits<char>, std::__ndk1::allocator<char> > >, (std::__ndk1::__variant_detail::_Trait)1>::__destroy[abi:ne180000]()::{lambda(auto:1&)#1}, std::__ndk1::__variant_detail::__base<(std::__ndk1::__variant_detail::__traits<geode::Hook*, std::__ndk1::basic_string<char, std::__ndk1::char_traits<char>, std::__ndk1::allocator<char> > >)1, geode::Hook, std::__ndk1::allocator<char> >&>(std::__ndk1::__variant_detail::__dtor<std::__ndk1::__variant_detail::__traits<geode::Hook*, std::__ndk1::basic_string<char, std::__ndk1::char_traits<char>, std::__ndk1::allocator<char> > >, (std::__ndk1::__variant_detail::_Trait)1>, std::__ndk1::__variant_detail::__base<(std::__ndk1::__variant_detail::__traits<geode::Hook*, std::__ndk1::basic_string<char, std::__ndk1::char_traits<char>, std::__ndk1::allocator<char> > >)1, geode::Hook, std::__ndk1::allocator<char> >&)
PUBLIC 238d4 0 std::__ndk1::__tree<std::__ndk1::__value_type<std::__ndk1::basic_string<char, std::__ndk1::char_traits<char>, std::__ndk1::allocator<char> >, std::__ndk1::shared_ptr<geode::Hook> >, std::__ndk1::__map_value_compare<std::__ndk1::basic_string<char, std::__ndk1::char_traits<char>, std::__ndk1::allocator<char> >, std::__ndk1::__value_type<std::__ndk1::basic_string<char, std::__ndk1::char_traits<char>, std::__ndk1::allocator<char> >, std::__ndk1::shared_ptr<geode::Hook> >, std::__ndk1::less<std::__ndk1::basic_string<char, std::__ndk1::char_traits<char>, std::__ndk1::allocator<char> > >, true>, std::__ndk1::allocator<std::__ndk1::__value_type<std::__ndk1::basic_string<char, std::__ndk1::char_traits<char>, std::__ndk1::allocator<char> >, std::__ndk1::shared_ptr<geode::Hook> > > >::destroy(std::__ndk1::__tree_node<std::__ndk1::__value_type<std::__ndk1::basic_string<char, std::__ndk1::char_traits<char>, std::__ndk1::allocator<char> >, std::__ndk1::shared_ptr<geode::Hook> >, void*>*)
PUBLIC 23958 0 geode::modifier::AsStaticFunction_init<SHLevelSearchLayer, bool (SHLevelSearchLayer::*)(int)>::Impl<bool (SHLevelSearchLayer::*)(int)>::function(SHLevelSearchLayer*, int)
PUBLIC 23b1c 0 geode::Hook::create<void (*)(SHLevelSearchLayer*, cocos2d::CCObject*)>(void*, void (*)(SHLevelSearchLayer*, cocos2d::CCObject*), std::__ndk1::basic_string<char, std::__ndk1::char_traits<char>, std::__ndk1::allocator<char> > const&, tulip::hook::TulipConvention, tulip::hook::HookMetadata const&)
PUBLIC 23ca0 0 geode::modifier::AsStaticFunction_onSearch<SHLevelSearchLayer, void (SHLevelSearchLayer::*)(cocos2d::CCObject*)>::Impl<void (SHLevelSearchLayer::*)(cocos2d::CCObject*)>::function(SHLevelSearchLayer*, cocos2d::CCObject*)
PUBLIC 23d98 0 geode::modifier::AsStaticFunction_onSearchUser<SHLevelSearchLayer, void (SHLevelSearchLayer::*)(cocos2d::CCObject*)>::Impl<void (SHLevelSearchLayer::*)(cocos2d::CCObject*)>::function(SHLevelSearchLayer*, cocos2d::CCObject*)
PUBLIC 23e90 0 std::__ndk1::shared_ptr<tulip::hook::CallingConvention>::~shared_ptr[abi:ne180000]()
PUBLIC 23ee0 0 tulip::hook::HandlerMetadata::~HandlerMetadata()
PUBLIC 23f44 0 geode::Mod::getSettingValue<bool>(std::__ndk1::basic_string_view<char, std::__ndk1::char_traits<char> >) const
PUBLIC 24078 0 SHLevelSearchLayer::onHistory(cocos2d::CCObject*)
PUBLIC 2415c 0 geode::cast::traverseTypeinfoFor(void*, geode::cast::ClassTypeinfoType const*, char const*)
PUBLIC 24260 0 std::__ndk1::__function::__base<void (SearchHistoryObject const&)>::~__base()
PUBLIC 24264 0 std::__ndk1::__function::__func<SHLevelSearchLayer::onHistory(cocos2d::CCObject*)::{lambda(SearchHistoryObject const&)#1}, std::__ndk1::allocator<SHLevelSearchLayer::onHistory(cocos2d::CCObject*)::{lambda(SearchHistoryObject const&)#1}>, void (SearchHistoryObject const&)>::~__func()
PUBLIC 24268 0 std::__ndk1::__function::__func<SHLevelSearchLayer::onHistory(cocos2d::CCObject*)::{lambda(SearchHistoryObject const&)#1}, std::__ndk1::allocator<SHLevelSearchLayer::onHistory(cocos2d::CCObject*)::{lambda(SearchHistoryObject const&)#1}>, void (SearchHistoryObject const&)>::__clone() const
PUBLIC 2429c 0 std::__ndk1::__function::__func<SHLevelSearchLayer::onHistory(cocos2d::CCObject*)::{lambda(SearchHistoryObject const&)#1}, std::__ndk1::allocator<SHLevelSearchLayer::onHistory(cocos2d::CCObject*)::{lambda(SearchHistoryObject const&)#1}>, void (SearchHistoryObject const&)>::__clone(std::__ndk1::__function::__base<void (SearchHistoryObject const&)>*) const
PUBLIC 242b0 0 std::__ndk1::__function::__func<SHLevelSearchLayer::onHistory(cocos2d::CCObject*)::{lambda(SearchHistoryObject const&)#1}, std::__ndk1::allocator<SHLevelSearchLayer::onHistory(cocos2d::CCObject*)::{lambda(SearchHistoryObject const&)#1}>, void (SearchHistoryObject const&)>::destroy()
PUBLIC 242b4 0 std::__ndk1::__function::__func<SHLevelSearchLayer::onHistory(cocos2d::CCObject*)::{lambda(SearchHistoryObject const&)#1}, std::__ndk1::allocator<SHLevelSearchLayer::onHistory(cocos2d::CCObject*)::{lambda(SearchHistoryObject const&)#1}>, void (SearchHistoryObject const&)>::destroy_deallocate()
PUBLIC 242b8 0 std::__ndk1::__function::__func<SHLevelSearchLayer::onHistory(cocos2d::CCObject*)::{lambda(SearchHistoryObject const&)#1}, std::__ndk1::allocator<SHLevelSearchLayer::onHistory(cocos2d::CCObject*)::{lambda(SearchHistoryObject const&)#1}>, void (SearchHistoryObject const&)>::operator()(SearchHistoryObject const&)
PUBLIC 24724 0 std::__ndk1::__function::__func<SHLevelSearchLayer::onHistory(cocos2d::CCObject*)::{lambda(SearchHistoryObject const&)#1}, std::__ndk1::allocator<SHLevelSearchLayer::onHistory(cocos2d::CCObject*)::{lambda(SearchHistoryObject const&)#1}>, void (SearchHistoryObject const&)>::target(std::type_info const&) const
PUBLIC 24740 0 std::__ndk1::__function::__func<SHLevelSearchLayer::onHistory(cocos2d::CCObject*)::{lambda(SearchHistoryObject const&)#1}, std::__ndk1::allocator<SHLevelSearchLayer::onHistory(cocos2d::CCObject*)::{lambda(SearchHistoryObject const&)#1}>, void (SearchHistoryObject const&)>::target_type() const
PUBLIC 2474c 0 cocos2d::CCString::createWithFormat(char const*, ...)
PUBLIC 2488c 0 std::__ndk1::__tree<std::__ndk1::__value_type<std::__ndk1::basic_string<char, std::__ndk1::char_traits<char>, std::__ndk1::allocator<char> >, std::__ndk1::shared_ptr<geode::Hook> >, std::__ndk1::__map_value_compare<std::__ndk1::basic_string<char, std::__ndk1::char_traits<char>, std::__ndk1::allocator<char> >, std::__ndk1::__value_type<std::__ndk1::basic_string<char, std::__ndk1::char_traits<char>, std::__ndk1::allocator<char> >, std::__ndk1::shared_ptr<geode::Hook> >, std::__ndk1::less<std::__ndk1::basic_string<char, std::__ndk1::char_traits<char>, std::__ndk1::allocator<char> > >, true>, std::__ndk1::allocator<std::__ndk1::__value_type<std::__ndk1::basic_string<char, std::__ndk1::char_traits<char>, std::__ndk1::allocator<char> >, std::__ndk1::shared_ptr<geode::Hook> > > >::__emplace_unique_key_args<std::__ndk1::basic_string<char, std::__ndk1::char_traits<char>, std::__ndk1::allocator<char> >, std::__ndk1::piecewise_construct_t const&, std::__ndk1::tuple<std::__ndk1::basic_string<char, std::__ndk1::char_traits<char>, std::__ndk1::allocator<char> >&&>, std::__ndk1::tuple<> >(std::__ndk1::basic_string<char, std::__ndk1::char_traits<char>, std::__ndk1::allocator<char> > const&, std::__ndk1::piecewise_construct_t const&, std::__ndk1::tuple<std::__ndk1::basic_string<char, std::__ndk1::char_traits<char>, std::__ndk1::allocator<char> >&&>, std::__ndk1::tuple<>)
PUBLIC 249f4 0 std::__ndk1::__tree_balance_after_insert[abi:ne180000]<std::__ndk1::__tree_node_base<void*>*>(std::__ndk1::__tree_node_base<void*>*, std::__ndk1::__tree_node_base<void*>*)
PUBLIC 24ba4 0 SearchHistory::add(GJSearchObject*, long, int)
PUBLIC 25bec 0 geode::Mod::getSavedValue<std::__ndk1::vector<SearchHistoryObject, std::__ndk1::allocator<SearchHistoryObject> > >(std::__ndk1::basic_string_view<char, std::__ndk1::char_traits<char> >)
PUBLIC 26ffc 0 geode::Mod::setSavedValue<std::__ndk1::vector<SearchHistoryObject, std::__ndk1::allocator<SearchHistoryObject> > >(std::__ndk1::basic_string_view<char, std::__ndk1::char_traits<char> >, std::__ndk1::vector<SearchHistoryObject, std::__ndk1::allocator<SearchHistoryObject> > const&)
PUBLIC 27fec 0 std::__ndk1::vector<SearchHistoryObject, std::__ndk1::allocator<SearchHistoryObject> >::~vector[abi:ne180000]()
PUBLIC 28094 0 SearchHistoryObject::~SearchHistoryObject()
PUBLIC 280e8 0 SearchHistory::clear()
PUBLIC 281f0 0 SearchHistory::remove(int)
PUBLIC 283f0 0 std::__ndk1::vector<int, std::__ndk1::allocator<int> >::__throw_length_error[abi:ne180000]() const
PUBLIC 28404 0 SearchHistoryObject::operator==(SearchHistoryObject const&) const
PUBLIC 28668 0 std::__ndk1::__move_loop<std::__ndk1::_ClassicAlgPolicy>::operator()[abi:ne180000]<SearchHistoryObject*, SearchHistoryObject, SearchHistoryObject>(std::__ndk1::pair, SearchHistoryObject, SearchHistoryObject*) const
PUBLIC 28768 0 std::__ndk1::__split_buffer<SearchHistoryObject, std::__ndk1::allocator<SearchHistoryObject>&>::~__split_buffer()
PUBLIC 287f4 0 SearchHistoryObject::SearchHistoryObject(SearchHistoryObject const&)
PUBLIC 28984 0 std::__ndk1::basic_string<char, std::__ndk1::char_traits<char>, std::__ndk1::allocator<char> >::__assign_no_alias<true>(char const*, unsigned long)
PUBLIC 28a30 0 std::__ndk1::basic_string<char, std::__ndk1::char_traits<char>, std::__ndk1::allocator<char> >::__assign_no_alias<false>(char const*, unsigned long)
PUBLIC 28b40 0 std::__ndk1::vector<int, std::__ndk1::allocator<int> >::__assign_with_size[abi:ne180000]<int*, std::__ndk1::vector<int, std::__ndk1::allocator<int> >::__assign_with_size[abi:ne180000]>(int*, std::__ndk1::vector<int, std::__ndk1::allocator<int> >::__assign_with_size[abi:ne180000], long)
PUBLIC 28c70 0 std::__ndk1::vector<SearchHistoryObject, std::__ndk1::allocator<SearchHistoryObject> >::__throw_length_error[abi:ne180000]() const
PUBLIC 28c84 0 std::__ndk1::__exception_guard_exceptions<std::__ndk1::_AllocatorDestroyRangeReverse<std::__ndk1::allocator<SearchHistoryObject>, SearchHistoryObject*> >::~__exception_guard_exceptions[abi:ne180000]()
PUBLIC 28cf8 0 geode::impl::ResultData<matjson::Value&, std::__ndk1::basic_string<char, std::__ndk1::char_traits<char>, std::__ndk1::allocator<char> > >::~ResultData()
PUBLIC 28d6c 0 geode::impl::ResultData<std::__ndk1::vector<SearchHistoryObject, std::__ndk1::allocator<SearchHistoryObject> >, std::__ndk1::basic_string<char, std::__ndk1::char_traits<char>, std::__ndk1::allocator<char> > >::~ResultData()
PUBLIC 28de0 0 geode::impl::ResultData<std::__ndk1::vector<matjson::Value, std::__ndk1::allocator<matjson::Value> > const&, std::__ndk1::basic_string<char, std::__ndk1::char_traits<char>, std::__ndk1::allocator<char> > >::~ResultData()
PUBLIC 28e54 0 geode::impl::ResultData<long, std::__ndk1::basic_string<char, std::__ndk1::char_traits<char>, std::__ndk1::allocator<char> > >::~ResultData()
PUBLIC 28ec8 0 geode::impl::ResultData<bool, std::__ndk1::basic_string<char, std::__ndk1::char_traits<char>, std::__ndk1::allocator<char> > >::~ResultData()
PUBLIC 28f3c 0 geode::impl::ResultData<std::__ndk1::basic_string<char, std::__ndk1::char_traits<char>, std::__ndk1::allocator<char> >, std::__ndk1::basic_string<char, std::__ndk1::char_traits<char>, std::__ndk1::allocator<char> > >::~ResultData()
PUBLIC 28fb0 0 _ZN5geode15UnwrapExceptionC2IRNSt6__ndk112basic_stringIcNS2_11char_traitsIcEENS2_9allocatorIcEEEEQsr4implE18IsStringStreamableIT_EEENS_4impl6ErrTagEOSA_
PUBLIC 29118 0 std::__ndk1::__variant_detail::__visitation::__base::__dispatcher<(unsigned long)0>::__dispatch[abi:ne180000]<std::__ndk1::__variant_detail::__dtor<std::__ndk1::__variant_detail::__traits<std::__ndk1::reference_wrapper<std::__ndk1::vector<matjson::Value, std::__ndk1::allocator<matjson> > const>, std::__ndk1::basic_string<char, std::__ndk1::char_traits<char>, matjson::Value<char> > >, (std::__ndk1::__variant_detail::_Trait)1>::__destroy[abi:ne180000]()::{lambda(auto:1&)#1}, std::__ndk1::__variant_detail::__base<(std::__ndk1::__variant_detail::__traits<std::__ndk1::reference_wrapper<std::__ndk1::vector<matjson::Value, std::__ndk1::allocator<matjson> > const>, std::__ndk1::basic_string<char, std::__ndk1::char_traits<char>, matjson::Value<char> > >)1, std::__ndk1::vector<matjson::Value, std::__ndk1::allocator<matjson> > const, matjson::Value<char> >&>(std::__ndk1::__variant_detail::__dtor<std::__ndk1::__variant_detail::__traits<std::__ndk1::reference_wrapper<std::__ndk1::vector<matjson::Value, std::__ndk1::allocator<matjson> > const>, std::__ndk1::basic_string<char, std::__ndk1::char_traits<char>, matjson::Value<char> > >, (std::__ndk1::__variant_detail::_Trait)1>, std::__ndk1::__variant_detail::__base<(std::__ndk1::__variant_detail::__traits<std::__ndk1::reference_wrapper<std::__ndk1::vector<matjson::Value, std::__ndk1::allocator<matjson> > const>, std::__ndk1::basic_string<char, std::__ndk1::char_traits<char>, matjson::Value<char> > >)1, std::__ndk1::vector<matjson::Value, std::__ndk1::allocator<matjson> > const, matjson::Value<char> >&)
PUBLIC 2911c 0 std::__ndk1::__variant_detail::__visitation::__base::__dispatcher<(unsigned long)1>::__dispatch[abi:ne180000]<std::__ndk1::__variant_detail::__dtor<std::__ndk1::__variant_detail::__traits<std::__ndk1::reference_wrapper<std::__ndk1::vector<matjson::Value, std::__ndk1::allocator<matjson> > const>, std::__ndk1::basic_string<char, std::__ndk1::char_traits<char>, matjson::Value<char> > >, (std::__ndk1::__variant_detail::_Trait)1>::__destroy[abi:ne180000]()::{lambda(auto:1&)#1}, std::__ndk1::__variant_detail::__base<(std::__ndk1::__variant_detail::__traits<std::__ndk1::reference_wrapper<std::__ndk1::vector<matjson::Value, std::__ndk1::allocator<matjson> > const>, std::__ndk1::basic_string<char, std::__ndk1::char_traits<char>, matjson::Value<char> > >)1, std::__ndk1::vector<matjson::Value, std::__ndk1::allocator<matjson> > const, matjson::Value<char> >&>(std::__ndk1::__variant_detail::__dtor<std::__ndk1::__variant_detail::__traits<std::__ndk1::reference_wrapper<std::__ndk1::vector<matjson::Value, std::__ndk1::allocator<matjson> > const>, std::__ndk1::basic_string<char, std::__ndk1::char_traits<char>, matjson::Value<char> > >, (std::__ndk1::__variant_detail::_Trait)1>, std::__ndk1::__variant_detail::__base<(std::__ndk1::__variant_detail::__traits<std::__ndk1::reference_wrapper<std::__ndk1::vector<matjson::Value, std::__ndk1::allocator<matjson> > const>, std::__ndk1::basic_string<char, std::__ndk1::char_traits<char>, matjson::Value<char> > >)1, std::__ndk1::vector<matjson::Value, std::__ndk1::allocator<matjson> > const, matjson::Value<char> >&)
PUBLIC 29130 0 std::__ndk1::__variant_detail::__visitation::__base::__dispatcher<(unsigned long)0>::__dispatch[abi:ne180000]<std::__ndk1::__variant_detail::__dtor<std::__ndk1::__variant_detail::__traits<long, std::__ndk1::basic_string<char, std::__ndk1::char_traits<char>, std::__ndk1::allocator<char> > >, (std::__ndk1::__variant_detail::_Trait)1>::__destroy[abi:ne180000]()::{lambda(auto:1&)#1}, std::__ndk1::__variant_detail::__base<(std::__ndk1::__variant_detail::__traits<long, std::__ndk1::basic_string<char, std::__ndk1::char_traits<char>, std::__ndk1::allocator<char> > >)1, long, std::__ndk1::allocator<char> >&>(std::__ndk1::__variant_detail::__dtor<std::__ndk1::__variant_detail::__traits<long, std::__ndk1::basic_string<char, std::__ndk1::char_traits<char>, std::__ndk1::allocator<char> > >, (std::__ndk1::__variant_detail::_Trait)1>, std::__ndk1::__variant_detail::__base<(std::__ndk1::__variant_detail::__traits<long, std::__ndk1::basic_string<char, std::__ndk1::char_traits<char>, std::__ndk1::allocator<char> > >)1, long, std::__ndk1::allocator<char> >&)
PUBLIC 29134 0 std::__ndk1::__variant_detail::__visitation::__base::__dispatcher<(unsigned long)1>::__dispatch[abi:ne180000]<std::__ndk1::__variant_detail::__dtor<std::__ndk1::__variant_detail::__traits<long, std::__ndk1::basic_string<char, std::__ndk1::char_traits<char>, std::__ndk1::allocator<char> > >, (std::__ndk1::__variant_detail::_Trait)1>::__destroy[abi:ne180000]()::{lambda(auto:1&)#1}, std::__ndk1::__variant_detail::__base<(std::__ndk1::__variant_detail::__traits<long, std::__ndk1::basic_string<char, std::__ndk1::char_traits<char>, std::__ndk1::allocator<char> > >)1, long, std::__ndk1::allocator<char> >&>(std::__ndk1::__variant_detail::__dtor<std::__ndk1::__variant_detail::__traits<long, std::__ndk1::basic_string<char, std::__ndk1::char_traits<char>, std::__ndk1::allocator<char> > >, (std::__ndk1::__variant_detail::_Trait)1>, std::__ndk1::__variant_detail::__base<(std::__ndk1::__variant_detail::__traits<long, std::__ndk1::basic_string<char, std::__ndk1::char_traits<char>, std::__ndk1::allocator<char> > >)1, long, std::__ndk1::allocator<char> >&)
PUBLIC 29148 0 std::__ndk1::__variant_detail::__visitation::__base::__dispatcher<(unsigned long)0>::__dispatch[abi:ne180000]<std::__ndk1::__variant_detail::__dtor<std::__ndk1::__variant_detail::__traits<bool, std::__ndk1::basic_string<char, std::__ndk1::char_traits<char>, std::__ndk1::allocator<char> > >, (std::__ndk1::__variant_detail::_Trait)1>::__destroy[abi:ne180000]()::{lambda(auto:1&)#1}, std::__ndk1::__variant_detail::__base<(std::__ndk1::__variant_detail::__traits<bool, std::__ndk1::basic_string<char, std::__ndk1::char_traits<char>, std::__ndk1::allocator<char> > >)1, bool, std::__ndk1::allocator<char> >&>(std::__ndk1::__variant_detail::__dtor<std::__ndk1::__variant_detail::__traits<bool, std::__ndk1::basic_string<char, std::__ndk1::char_traits<char>, std::__ndk1::allocator<char> > >, (std::__ndk1::__variant_detail::_Trait)1>, std::__ndk1::__variant_detail::__base<(std::__ndk1::__variant_detail::__traits<bool, std::__ndk1::basic_string<char, std::__ndk1::char_traits<char>, std::__ndk1::allocator<char> > >)1, bool, std::__ndk1::allocator<char> >&)
PUBLIC 2914c 0 std::__ndk1::__variant_detail::__visitation::__base::__dispatcher<(unsigned long)1>::__dispatch[abi:ne180000]<std::__ndk1::__variant_detail::__dtor<std::__ndk1::__variant_detail::__traits<bool, std::__ndk1::basic_string<char, std::__ndk1::char_traits<char>, std::__ndk1::allocator<char> > >, (std::__ndk1::__variant_detail::_Trait)1>::__destroy[abi:ne180000]()::{lambda(auto:1&)#1}, std::__ndk1::__variant_detail::__base<(std::__ndk1::__variant_detail::__traits<bool, std::__ndk1::basic_string<char, std::__ndk1::char_traits<char>, std::__ndk1::allocator<char> > >)1, bool, std::__ndk1::allocator<char> >&>(std::__ndk1::__variant_detail::__dtor<std::__ndk1::__variant_detail::__traits<bool, std::__ndk1::basic_string<char, std::__ndk1::char_traits<char>, std::__ndk1::allocator<char> > >, (std::__ndk1::__variant_detail::_Trait)1>, std::__ndk1::__variant_detail::__base<(std::__ndk1::__variant_detail::__traits<bool, std::__ndk1::basic_string<char, std::__ndk1::char_traits<char>, std::__ndk1::allocator<char> > >)1, bool, std::__ndk1::allocator<char> >&)
PUBLIC 29160 0 std::__ndk1::__variant_detail::__visitation::__base::__dispatcher<(unsigned long)0>::__dispatch[abi:ne180000]<std::__ndk1::__variant_detail::__dtor<std::__ndk1::__variant_detail::__traits<std::__ndk1::basic_string<char, std::__ndk1::char_traits<char>, std::__ndk1::allocator<char> >, std::__ndk1::allocator<char> >, (std::__ndk1::__variant_detail::_Trait)1>::__destroy[abi:ne180000]()::{lambda(auto:1&)#1}, std::__ndk1::__variant_detail::__base<(std::__ndk1::__variant_detail::__traits<std::__ndk1::basic_string<char, std::__ndk1::char_traits<char>, std::__ndk1::allocator<char> >, std::__ndk1::allocator<char> >)1, std::__ndk1::allocator<char>, std::__ndk1::allocator<char> >&>(std::__ndk1::__variant_detail::__dtor<std::__ndk1::__variant_detail::__traits<std::__ndk1::basic_string<char, std::__ndk1::char_traits<char>, std::__ndk1::allocator<char> >, std::__ndk1::allocator<char> >, (std::__ndk1::__variant_detail::_Trait)1>, std::__ndk1::__variant_detail::__base<(std::__ndk1::__variant_detail::__traits<std::__ndk1::basic_string<char, std::__ndk1::char_traits<char>, std::__ndk1::allocator<char> >, std::__ndk1::allocator<char> >)1, std::__ndk1::allocator<char>, std::__ndk1::allocator<char> >&)
PUBLIC 29174 0 std::__ndk1::__variant_detail::__visitation::__base::__dispatcher<(unsigned long)1>::__dispatch[abi:ne180000]<std::__ndk1::__variant_detail::__dtor<std::__ndk1::__variant_detail::__traits<std::__ndk1::basic_string<char, std::__ndk1::char_traits<char>, std::__ndk1::allocator<char> >, std::__ndk1::allocator<char> >, (std::__ndk1::__variant_detail::_Trait)1>::__destroy[abi:ne180000]()::{lambda(auto:1&)#1}, std::__ndk1::__variant_detail::__base<(std::__ndk1::__variant_detail::__traits<std::__ndk1::basic_string<char, std::__ndk1::char_traits<char>, std::__ndk1::allocator<char> >, std::__ndk1::allocator<char> >)1, std::__ndk1::allocator<char>, std::__ndk1::allocator<char> >&>(std::__ndk1::__variant_detail::__dtor<std::__ndk1::__variant_detail::__traits<std::__ndk1::basic_string<char, std::__ndk1::char_traits<char>, std::__ndk1::allocator<char> >, std::__ndk1::allocator<char> >, (std::__ndk1::__variant_detail::_Trait)1>, std::__ndk1::__variant_detail::__base<(std::__ndk1::__variant_detail::__traits<std::__ndk1::basic_string<char, std::__ndk1::char_traits<char>, std::__ndk1::allocator<char> >, std::__ndk1::allocator<char> >)1, std::__ndk1::allocator<char>, std::__ndk1::allocator<char> >&)
PUBLIC 29188 0 std::__ndk1::vector<SearchHistoryObject, std::__ndk1::allocator<SearchHistoryObject> >::__push_back_slow_path<SearchHistoryObject const&>(SearchHistoryObject const&)
PUBLIC 2940c 0 std::__ndk1::__variant_detail::__visitation::__base::__dispatcher<(unsigned long)0>::__dispatch[abi:ne180000]<std::__ndk1::__variant_detail::__dtor<std::__ndk1::__variant_detail::__traits<std::__ndk1::reference_wrapper<matjson::Value>, std::__ndk1::basic_string<char, std::__ndk1::char_traits<char>, std::__ndk1::allocator<char> > >, (std::__ndk1::__variant_detail::_Trait)1>::__destroy[abi:ne180000]()::{lambda(auto:1&)#1}, std::__ndk1::__variant_detail::__base<(std::__ndk1::__variant_detail::__traits<std::__ndk1::reference_wrapper<matjson::Value>, std::__ndk1::basic_string<char, std::__ndk1::char_traits<char>, std::__ndk1::allocator<char> > >)1, matjson::Value, std::__ndk1::allocator<char> >&>(std::__ndk1::__variant_detail::__dtor<std::__ndk1::__variant_detail::__traits<std::__ndk1::reference_wrapper<matjson::Value>, std::__ndk1::basic_string<char, std::__ndk1::char_traits<char>, std::__ndk1::allocator<char> > >, (std::__ndk1::__variant_detail::_Trait)1>, std::__ndk1::__variant_detail::__base<(std::__ndk1::__variant_detail::__traits<std::__ndk1::reference_wrapper<matjson::Value>, std::__ndk1::basic_string<char, std::__ndk1::char_traits<char>, std::__ndk1::allocator<char> > >)1, matjson::Value, std::__ndk1::allocator<char> >&)
PUBLIC 29410 0 std::__ndk1::__variant_detail::__visitation::__base::__dispatcher<(unsigned long)1>::__dispatch[abi:ne180000]<std::__ndk1::__variant_detail::__dtor<std::__ndk1::__variant_detail::__traits<std::__ndk1::reference_wrapper<matjson::Value>, std::__ndk1::basic_string<char, std::__ndk1::char_traits<char>, std::__ndk1::allocator<char> > >, (std::__ndk1::__variant_detail::_Trait)1>::__destroy[abi:ne180000]()::{lambda(auto:1&)#1}, std::__ndk1::__variant_detail::__base<(std::__ndk1::__variant_detail::__traits<std::__ndk1::reference_wrapper<matjson::Value>, std::__ndk1::basic_string<char, std::__ndk1::char_traits<char>, std::__ndk1::allocator<char> > >)1, matjson::Value, std::__ndk1::allocator<char> >&>(std::__ndk1::__variant_detail::__dtor<std::__ndk1::__variant_detail::__traits<std::__ndk1::reference_wrapper<matjson::Value>, std::__ndk1::basic_string<char, std::__ndk1::char_traits<char>, std::__ndk1::allocator<char> > >, (std::__ndk1::__variant_detail::_Trait)1>, std::__ndk1::__variant_detail::__base<(std::__ndk1::__variant_detail::__traits<std::__ndk1::reference_wrapper<matjson::Value>, std::__ndk1::basic_string<char, std::__ndk1::char_traits<char>, std::__ndk1::allocator<char> > >)1, matjson::Value, std::__ndk1::allocator<char> >&)
PUBLIC 29424 0 std::__ndk1::vector<SearchHistoryObject, std::__ndk1::allocator<SearchHistoryObject> >::__init_with_size[abi:ne180000]<SearchHistoryObject*, std::__ndk1::vector<SearchHistoryObject, std::__ndk1::allocator<SearchHistoryObject> >::__init_with_size[abi:ne180000]>(SearchHistoryObject*, std::__ndk1::vector<SearchHistoryObject, std::__ndk1::allocator<SearchHistoryObject> >::__init_with_size[abi:ne180000], unsigned long)
PUBLIC 2956c 0 std::__ndk1::__exception_guard_exceptions<std::__ndk1::vector<SearchHistoryObject, std::__ndk1::allocator<SearchHistoryObject> >::__destroy_vector>::~__exception_guard_exceptions[abi:ne180000]()
PUBLIC 29624 0 std::__ndk1::__variant_detail::__visitation::__base::__dispatcher<(unsigned long)0>::__dispatch[abi:ne180000]<std::__ndk1::__variant_detail::__dtor<std::__ndk1::__variant_detail::__traits<std::__ndk1::vector<SearchHistoryObject, std::__ndk1::allocator<std::__ndk1::vector> >, std::__ndk1::basic_string<char, std::__ndk1::char_traits<char>, SearchHistoryObject<char> > >, (std::__ndk1::__variant_detail::_Trait)1>::__destroy[abi:ne180000]()::{lambda(auto:1&)#1}, std::__ndk1::__variant_detail::__base<(std::__ndk1::__variant_detail::__traits<std::__ndk1::vector<SearchHistoryObject, std::__ndk1::allocator<std::__ndk1::vector> >, std::__ndk1::basic_string<char, std::__ndk1::char_traits<char>, SearchHistoryObject<char> > >)1, std::__ndk1::allocator<std::__ndk1::vector>, SearchHistoryObject<char> >&>(std::__ndk1::__variant_detail::__dtor<std::__ndk1::__variant_detail::__traits<std::__ndk1::vector<SearchHistoryObject, std::__ndk1::allocator<std::__ndk1::vector> >, std::__ndk1::basic_string<char, std::__ndk1::char_traits<char>, SearchHistoryObject<char> > >, (std::__ndk1::__variant_detail::_Trait)1>, std::__ndk1::__variant_detail::__base<(std::__ndk1::__variant_detail::__traits<std::__ndk1::vector<SearchHistoryObject, std::__ndk1::allocator<std::__ndk1::vector> >, std::__ndk1::basic_string<char, std::__ndk1::char_traits<char>, SearchHistoryObject<char> > >)1, std::__ndk1::allocator<std::__ndk1::vector>, SearchHistoryObject<char> >&)
PUBLIC 296cc 0 std::__ndk1::__variant_detail::__visitation::__base::__dispatcher<(unsigned long)1>::__dispatch[abi:ne180000]<std::__ndk1::__variant_detail::__dtor<std::__ndk1::__variant_detail::__traits<std::__ndk1::vector<SearchHistoryObject, std::__ndk1::allocator<std::__ndk1::vector> >, std::__ndk1::basic_string<char, std::__ndk1::char_traits<char>, SearchHistoryObject<char> > >, (std::__ndk1::__variant_detail::_Trait)1>::__destroy[abi:ne180000]()::{lambda(auto:1&)#1}, std::__ndk1::__variant_detail::__base<(std::__ndk1::__variant_detail::__traits<std::__ndk1::vector<SearchHistoryObject, std::__ndk1::allocator<std::__ndk1::vector> >, std::__ndk1::basic_string<char, std::__ndk1::char_traits<char>, SearchHistoryObject<char> > >)1, std::__ndk1::allocator<std::__ndk1::vector>, SearchHistoryObject<char> >&>(std::__ndk1::__variant_detail::__dtor<std::__ndk1::__variant_detail::__traits<std::__ndk1::vector<SearchHistoryObject, std::__ndk1::allocator<std::__ndk1::vector> >, std::__ndk1::basic_string<char, std::__ndk1::char_traits<char>, SearchHistoryObject<char> > >, (std::__ndk1::__variant_detail::_Trait)1>, std::__ndk1::__variant_detail::__base<(std::__ndk1::__variant_detail::__traits<std::__ndk1::vector<SearchHistoryObject, std::__ndk1::allocator<std::__ndk1::vector> >, std::__ndk1::basic_string<char, std::__ndk1::char_traits<char>, SearchHistoryObject<char> > >)1, std::__ndk1::allocator<std::__ndk1::vector>, SearchHistoryObject<char> >&)
PUBLIC 296e0 0 std::__ndk1::vector<matjson::Value, std::__ndk1::allocator<matjson::Value> >::~vector[abi:ne180000]()
PUBLIC 29748 0 std::__ndk1::__split_buffer<matjson::Value, std::__ndk1::allocator<matjson::Value>&>::~__split_buffer()
PUBLIC 2979c 0 std::__ndk1::vector<matjson::Value, std::__ndk1::allocator<matjson::Value> >::__throw_length_error[abi:ne180000]() const
PUBLIC 297b0 0 std::__ndk1::__exception_guard_exceptions<std::__ndk1::vector<matjson::Value, std::__ndk1::allocator<matjson::Value> >::__destroy_vector>::~__exception_guard_exceptions[abi:ne180000]()
PUBLIC 2982c 0 SearchHistoryNode::init(SearchHistoryObject const&, int, int, std::__ndk1::function<void (SearchHistoryObject const&)> const&, std::__ndk1::function<void (int)> const&, bool, bool, bool)
PUBLIC 2b098 0 geode::cocos::CCMenuItemExt::createSpriteExtraWithFrameName(std::__ndk1::basic_string_view<char, std::__ndk1::char_traits<char> >, float, std::__ndk1::function<void (CCMenuItemSpriteExtra*)>)
PUBLIC 2b1e4 0 geode::cocos::CCArrayExt<cocos2d::CCNode*>::~CCArrayExt()
PUBLIC 2b200 0 SearchHistoryNode::draw()
PUBLIC 2b304 0 cocos2d::CCCopying::copyWithZone(cocos2d::CCZone*)
PUBLIC 2b30c 0 SearchHistoryNode::~SearchHistoryNode()
PUBLIC 2b3c8 0 SearchHistoryNode::~SearchHistoryNode()
PUBLIC 2b48c 0 geode::cocos::CCMenuItemExt::createSpriteExtra(cocos2d::CCNode*, std::__ndk1::function<void (CCMenuItemSpriteExtra*)>)
PUBLIC 2b5c8 0 geode::cocos::CCMenuItemExt::assignCallback<CCMenuItemSpriteExtra>(cocos2d::CCMenuItem*, std::__ndk1::function<void (CCMenuItemSpriteExtra*)>)
PUBLIC 2b75c 0 geode::cocos::CCMenuItemExt::LambdaCallback<CCMenuItemSpriteExtra>::create(std::__ndk1::function<void (CCMenuItemSpriteExtra*)>)
PUBLIC 2b924 0 geode::cocos::CCMenuItemExt::LambdaCallback<CCMenuItemSpriteExtra>::execute(cocos2d::CCNode*)
PUBLIC 2b994 0 geode::cocos::CCMenuItemExt::LambdaCallback<CCMenuItemSpriteExtra>::~LambdaCallback()
PUBLIC 2b9f0 0 geode::cocos::CCMenuItemExt::LambdaCallback<CCMenuItemSpriteExtra>::~LambdaCallback()
PUBLIC 2ba54 0 cocos2d::CCObject::update(float)
PUBLIC 2ba58 0 std::__ndk1::__throw_bad_function_call[abi:ne180000]()
PUBLIC 2ba8c 0 std::__ndk1::bad_function_call::~bad_function_call()
PUBLIC 2bab0 0 std::__ndk1::basic_string<char, std::__ndk1::char_traits<char>, std::__ndk1::allocator<char> >::__assign_external(char const*, unsigned long)
PUBLIC 2bbb4 0 std::__ndk1::__function::__value_func<void (SearchHistoryObject const&)>::swap[abi:ne180000](std::__ndk1::__function::__value_func<void (SearchHistoryObject const&)>&)
PUBLIC 2bd4c 0 std::__ndk1::__function::__func<SearchHistoryNode::init(SearchHistoryObject const&, int, int, std::__ndk1::function<void (SearchHistoryObject const&)> const&, std::__ndk1::function<void (int)> const&, bool, bool, bool)::$_0, std::__ndk1::allocator<SearchHistoryNode::init(SearchHistoryObject const&, int, int, std::__ndk1::function<void (SearchHistoryObject const&)> const&, std::__ndk1::function<void (int)> const&, bool, bool, bool)::$_0>, void (CCMenuItemSpriteExtra*)>::~__func()
PUBLIC 2bd50 0 std::__ndk1::__function::__func<SearchHistoryNode::init(SearchHistoryObject const&, int, int, std::__ndk1::function<void (SearchHistoryObject const&)> const&, std::__ndk1::function<void (int)> const&, bool, bool, bool)::$_0, std::__ndk1::allocator<SearchHistoryNode::init(SearchHistoryObject const&, int, int, std::__ndk1::function<void (SearchHistoryObject const&)> const&, std::__ndk1::function<void (int)> const&, bool, bool, bool)::$_0>, void (CCMenuItemSpriteExtra*)>::__clone() const
PUBLIC 2bd84 0 std::__ndk1::__function::__func<SearchHistoryNode::init(SearchHistoryObject const&, int, int, std::__ndk1::function<void (SearchHistoryObject const&)> const&, std::__ndk1::function<void (int)> const&, bool, bool, bool)::$_0, std::__ndk1::allocator<SearchHistoryNode::init(SearchHistoryObject const&, int, int, std::__ndk1::function<void (SearchHistoryObject const&)> const&, std::__ndk1::function<void (int)> const&, bool, bool, bool)::$_0>, void (CCMenuItemSpriteExtra*)>::__clone(std::__ndk1::__function::__base<void (CCMenuItemSpriteExtra*)>*) const
PUBLIC 2bd98 0 std::__ndk1::__function::__func<SearchHistoryNode::init(SearchHistoryObject const&, int, int, std::__ndk1::function<void (SearchHistoryObject const&)> const&, std::__ndk1::function<void (int)> const&, bool, bool, bool)::$_0, std::__ndk1::allocator<SearchHistoryNode::init(SearchHistoryObject const&, int, int, std::__ndk1::function<void (SearchHistoryObject const&)> const&, std::__ndk1::function<void (int)> const&, bool, bool, bool)::$_0>, void (CCMenuItemSpriteExtra*)>::destroy()
PUBLIC 2bd9c 0 std::__ndk1::__function::__func<SearchHistoryNode::init(SearchHistoryObject const&, int, int, std::__ndk1::function<void (SearchHistoryObject const&)> const&, std::__ndk1::function<void (int)> const&, bool, bool, bool)::$_0, std::__ndk1::allocator<SearchHistoryNode::init(SearchHistoryObject const&, int, int, std::__ndk1::function<void (SearchHistoryObject const&)> const&, std::__ndk1::function<void (int)> const&, bool, bool, bool)::$_0>, void (CCMenuItemSpriteExtra*)>::destroy_deallocate()
PUBLIC 2bda0 0 std::__ndk1::__function::__func<SearchHistoryNode::init(SearchHistoryObject const&, int, int, std::__ndk1::function<void (SearchHistoryObject const&)> const&, std::__ndk1::function<void (int)> const&, bool, bool, bool)::$_0, std::__ndk1::allocator<SearchHistoryNode::init(SearchHistoryObject const&, int, int, std::__ndk1::function<void (SearchHistoryObject const&)> const&, std::__ndk1::function<void (int)> const&, bool, bool, bool)::$_0>, void (CCMenuItemSpriteExtra*)>::operator()(CCMenuItemSpriteExtra*&&)
PUBLIC 2bf0c 0 std::__ndk1::__function::__func<SearchHistoryNode::init(SearchHistoryObject const&, int, int, std::__ndk1::function<void (SearchHistoryObject const&)> const&, std::__ndk1::function<void (int)> const&, bool, bool, bool)::$_0, std::__ndk1::allocator<SearchHistoryNode::init(SearchHistoryObject const&, int, int, std::__ndk1::function<void (SearchHistoryObject const&)> const&, std::__ndk1::function<void (int)> const&, bool, bool, bool)::$_0>, void (CCMenuItemSpriteExtra*)>::target(std::type_info const&) const
PUBLIC 2bf28 0 std::__ndk1::__function::__func<SearchHistoryNode::init(SearchHistoryObject const&, int, int, std::__ndk1::function<void (SearchHistoryObject const&)> const&, std::__ndk1::function<void (int)> const&, bool, bool, bool)::$_0, std::__ndk1::allocator<SearchHistoryNode::init(SearchHistoryObject const&, int, int, std::__ndk1::function<void (SearchHistoryObject const&)> const&, std::__ndk1::function<void (int)> const&, bool, bool, bool)::$_0>, void (CCMenuItemSpriteExtra*)>::target_type() const
PUBLIC 2bf34 0 std::__ndk1::__function::__base<void (FLAlertLayer*, bool)>::~__base()
PUBLIC 2bf38 0 std::__ndk1::__function::__func<SearchHistoryNode::init(SearchHistoryObject const&, int, int, std::__ndk1::function<void (SearchHistoryObject const&)> const&, std::__ndk1::function<void (int)> const&, bool, bool, bool)::$_0::operator()<CCMenuItemSpriteExtra*>(CCMenuItemSpriteExtra*) const::{lambda(auto:1, bool)#1}, std::__ndk1::allocator<SearchHistoryNode::init(SearchHistoryObject const&, int, int, std::__ndk1::function<void (SearchHistoryObject const&)> const&, std::__ndk1::function<void (int)> const&, bool, bool, bool)::$_0::operator()<CCMenuItemSpriteExtra*>(CCMenuItemSpriteExtra*) const::{lambda(auto:1, bool)#1}>, void (FLAlertLayer*, bool)>::~__func()
PUBLIC 2bf3c 0 std::__ndk1::__function::__func<SearchHistoryNode::init(SearchHistoryObject const&, int, int, std::__ndk1::function<void (SearchHistoryObject const&)> const&, std::__ndk1::function<void (int)> const&, bool, bool, bool)::$_0::operator()<CCMenuItemSpriteExtra*>(CCMenuItemSpriteExtra*) const::{lambda(auto:1, bool)#1}, std::__ndk1::allocator<SearchHistoryNode::init(SearchHistoryObject const&, int, int, std::__ndk1::function<void (SearchHistoryObject const&)> const&, std::__ndk1::function<void (int)> const&, bool, bool, bool)::$_0::operator()<CCMenuItemSpriteExtra*>(CCMenuItemSpriteExtra*) const::{lambda(auto:1, bool)#1}>, void (FLAlertLayer*, bool)>::__clone() const
PUBLIC 2bf70 0 std::__ndk1::__function::__func<SearchHistoryNode::init(SearchHistoryObject const&, int, int, std::__ndk1::function<void (SearchHistoryObject const&)> const&, std::__ndk1::function<void (int)> const&, bool, bool, bool)::$_0::operator()<CCMenuItemSpriteExtra*>(CCMenuItemSpriteExtra*) const::{lambda(auto:1, bool)#1}, std::__ndk1::allocator<SearchHistoryNode::init(SearchHistoryObject const&, int, int, std::__ndk1::function<void (SearchHistoryObject const&)> const&, std::__ndk1::function<void (int)> const&, bool, bool, bool)::$_0::operator()<CCMenuItemSpriteExtra*>(CCMenuItemSpriteExtra*) const::{lambda(auto:1, bool)#1}>, void (FLAlertLayer*, bool)>::__clone(std::__ndk1::__function::__base<void (FLAlertLayer*, bool)>*) const
PUBLIC 2bf84 0 std::__ndk1::__function::__func<SearchHistoryNode::init(SearchHistoryObject const&, int, int, std::__ndk1::function<void (SearchHistoryObject const&)> const&, std::__ndk1::function<void (int)> const&, bool, bool, bool)::$_0::operator()<CCMenuItemSpriteExtra*>(CCMenuItemSpriteExtra*) const::{lambda(auto:1, bool)#1}, std::__ndk1::allocator<SearchHistoryNode::init(SearchHistoryObject const&, int, int, std::__ndk1::function<void (SearchHistoryObject const&)> const&, std::__ndk1::function<void (int)> const&, bool, bool, bool)::$_0::operator()<CCMenuItemSpriteExtra*>(CCMenuItemSpriteExtra*) const::{lambda(auto:1, bool)#1}>, void (FLAlertLayer*, bool)>::destroy()
PUBLIC 2bf88 0 std::__ndk1::__function::__func<SearchHistoryNode::init(SearchHistoryObject const&, int, int, std::__ndk1::function<void (SearchHistoryObject const&)> const&, std::__ndk1::function<void (int)> const&, bool, bool, bool)::$_0::operator()<CCMenuItemSpriteExtra*>(CCMenuItemSpriteExtra*) const::{lambda(auto:1, bool)#1}, std::__ndk1::allocator<SearchHistoryNode::init(SearchHistoryObject const&, int, int, std::__ndk1::function<void (SearchHistoryObject const&)> const&, std::__ndk1::function<void (int)> const&, bool, bool, bool)::$_0::operator()<CCMenuItemSpriteExtra*>(CCMenuItemSpriteExtra*) const::{lambda(auto:1, bool)#1}>, void (FLAlertLayer*, bool)>::destroy_deallocate()
PUBLIC 2bf8c 0 std::__ndk1::__function::__func<SearchHistoryNode::init(SearchHistoryObject const&, int, int, std::__ndk1::function<void (SearchHistoryObject const&)> const&, std::__ndk1::function<void (int)> const&, bool, bool, bool)::$_0::operator()<CCMenuItemSpriteExtra*>(CCMenuItemSpriteExtra*) const::{lambda(auto:1, bool)#1}, std::__ndk1::allocator<SearchHistoryNode::init(SearchHistoryObject const&, int, int, std::__ndk1::function<void (SearchHistoryObject const&)> const&, std::__ndk1::function<void (int)> const&, bool, bool, bool)::$_0::operator()<CCMenuItemSpriteExtra*>(CCMenuItemSpriteExtra*) const::{lambda(auto:1, bool)#1}>, void (FLAlertLayer*, bool)>::operator()(FLAlertLayer*&&, bool&&)
PUBLIC 2c00c 0 std::__ndk1::__function::__func<SearchHistoryNode::init(SearchHistoryObject const&, int, int, std::__ndk1::function<void (SearchHistoryObject const&)> const&, std::__ndk1::function<void (int)> const&, bool, bool, bool)::$_0::operator()<CCMenuItemSpriteExtra*>(CCMenuItemSpriteExtra*) const::{lambda(auto:1, bool)#1}, std::__ndk1::allocator<SearchHistoryNode::init(SearchHistoryObject const&, int, int, std::__ndk1::function<void (SearchHistoryObject const&)> const&, std::__ndk1::function<void (int)> const&, bool, bool, bool)::$_0::operator()<CCMenuItemSpriteExtra*>(CCMenuItemSpriteExtra*) const::{lambda(auto:1, bool)#1}>, void (FLAlertLayer*, bool)>::target(std::type_info const&) const
PUBLIC 2c028 0 std::__ndk1::__function::__func<SearchHistoryNode::init(SearchHistoryObject const&, int, int, std::__ndk1::function<void (SearchHistoryObject const&)> const&, std::__ndk1::function<void (int)> const&, bool, bool, bool)::$_0::operator()<CCMenuItemSpriteExtra*>(CCMenuItemSpriteExtra*) const::{lambda(auto:1, bool)#1}, std::__ndk1::allocator<SearchHistoryNode::init(SearchHistoryObject const&, int, int, std::__ndk1::function<void (SearchHistoryObject const&)> const&, std::__ndk1::function<void (int)> const&, bool, bool, bool)::$_0::operator()<CCMenuItemSpriteExtra*>(CCMenuItemSpriteExtra*) const::{lambda(auto:1, bool)#1}>, void (FLAlertLayer*, bool)>::target_type() const
PUBLIC 2c034 0 std::__ndk1::__function::__base<void (CCMenuItemSpriteExtra*)>::~__base()
PUBLIC 2c038 0 std::__ndk1::__function::__func<SearchHistoryNode::init(SearchHistoryObject const&, int, int, std::__ndk1::function<void (SearchHistoryObject const&)> const&, std::__ndk1::function<void (int)> const&, bool, bool, bool)::$_1, std::__ndk1::allocator<SearchHistoryNode::init(SearchHistoryObject const&, int, int, std::__ndk1::function<void (SearchHistoryObject const&)> const&, std::__ndk1::function<void (int)> const&, bool, bool, bool)::$_1>, void (CCMenuItemSpriteExtra*)>::~__func()
PUBLIC 2c03c 0 std::__ndk1::__function::__func<SearchHistoryNode::init(SearchHistoryObject const&, int, int, std::__ndk1::function<void (SearchHistoryObject const&)> const&, std::__ndk1::function<void (int)> const&, bool, bool, bool)::$_1, std::__ndk1::allocator<SearchHistoryNode::init(SearchHistoryObject const&, int, int, std::__ndk1::function<void (SearchHistoryObject const&)> const&, std::__ndk1::function<void (int)> const&, bool, bool, bool)::$_1>, void (CCMenuItemSpriteExtra*)>::__clone() const
PUBLIC 2c070 0 std::__ndk1::__function::__func<SearchHistoryNode::init(SearchHistoryObject const&, int, int, std::__ndk1::function<void (SearchHistoryObject const&)> const&, std::__ndk1::function<void (int)> const&, bool, bool, bool)::$_1, std::__ndk1::allocator<SearchHistoryNode::init(SearchHistoryObject const&, int, int, std::__ndk1::function<void (SearchHistoryObject const&)> const&, std::__ndk1::function<void (int)> const&, bool, bool, bool)::$_1>, void (CCMenuItemSpriteExtra*)>::__clone(std::__ndk1::__function::__base<void (CCMenuItemSpriteExtra*)>*) const
PUBLIC 2c084 0 std::__ndk1::__function::__func<SearchHistoryNode::init(SearchHistoryObject const&, int, int, std::__ndk1::function<void (SearchHistoryObject const&)> const&, std::__ndk1::function<void (int)> const&, bool, bool, bool)::$_1, std::__ndk1::allocator<SearchHistoryNode::init(SearchHistoryObject const&, int, int, std::__ndk1::function<void (SearchHistoryObject const&)> const&, std::__ndk1::function<void (int)> const&, bool, bool, bool)::$_1>, void (CCMenuItemSpriteExtra*)>::destroy()
PUBLIC 2c088 0 std::__ndk1::__function::__func<SearchHistoryNode::init(SearchHistoryObject const&, int, int, std::__ndk1::function<void (SearchHistoryObject const&)> const&, std::__ndk1::function<void (int)> const&, bool, bool, bool)::$_1, std::__ndk1::allocator<SearchHistoryNode::init(SearchHistoryObject const&, int, int, std::__ndk1::function<void (SearchHistoryObject const&)> const&, std::__ndk1::function<void (int)> const&, bool, bool, bool)::$_1>, void (CCMenuItemSpriteExtra*)>::destroy_deallocate()
PUBLIC 2c08c 0 std::__ndk1::__function::__func<SearchHistoryNode::init(SearchHistoryObject const&, int, int, std::__ndk1::function<void (SearchHistoryObject const&)> const&, std::__ndk1::function<void (int)> const&, bool, bool, bool)::$_1, std::__ndk1::allocator<SearchHistoryNode::init(SearchHistoryObject const&, int, int, std::__ndk1::function<void (SearchHistoryObject const&)> const&, std::__ndk1::function<void (int)> const&, bool, bool, bool)::$_1>, void (CCMenuItemSpriteExtra*)>::operator()(CCMenuItemSpriteExtra*&&)
PUBLIC 2c0b4 0 std::__ndk1::__function::__func<SearchHistoryNode::init(SearchHistoryObject const&, int, int, std::__ndk1::function<void (SearchHistoryObject const&)> const&, std::__ndk1::function<void (int)> const&, bool, bool, bool)::$_1, std::__ndk1::allocator<SearchHistoryNode::init(SearchHistoryObject const&, int, int, std::__ndk1::function<void (SearchHistoryObject const&)> const&, std::__ndk1::function<void (int)> const&, bool, bool, bool)::$_1>, void (CCMenuItemSpriteExtra*)>::target(std::type_info const&) const
PUBLIC 2c0d0 0 std::__ndk1::__function::__func<SearchHistoryNode::init(SearchHistoryObject const&, int, int, std::__ndk1::function<void (SearchHistoryObject const&)> const&, std::__ndk1::function<void (int)> const&, bool, bool, bool)::$_1, std::__ndk1::allocator<SearchHistoryNode::init(SearchHistoryObject const&, int, int, std::__ndk1::function<void (SearchHistoryObject const&)> const&, std::__ndk1::function<void (int)> const&, bool, bool, bool)::$_1>, void (CCMenuItemSpriteExtra*)>::target_type() const
PUBLIC 2c0dc 0 SearchHistoryPopup::create(std::__ndk1::function<void (SearchHistoryObject const&)> const&)
PUBLIC 2c254 0 SearchHistoryPopup::setup(std::__ndk1::function<void (SearchHistoryObject const&)> const&)
PUBLIC 2c9c4 0 SearchHistoryPopup::page(int)
PUBLIC 2d25c 0 SearchHistoryPopup::~SearchHistoryPopup()
PUBLIC 2d334 0 SearchHistoryPopup::~SearchHistoryPopup()
PUBLIC 2d414 0 geode::Popup<std::__ndk1::function<void (SearchHistoryObject const&)> const&>::registerWithTouchDispatcher()
PUBLIC 2d440 0 geode::Popup<std::__ndk1::function<void (SearchHistoryObject const&)> const&>::keyDown(cocos2d::enumKeyCodes)
PUBLIC 2d468 0 cocos2d::CCLayerRGBA::setOpacityModifyRGB(bool)
PUBLIC 2d46c 0 cocos2d::CCLayerRGBA::isOpacityModifyRGB()
PUBLIC 2d474 0 geode::Popup<std::__ndk1::function<void (SearchHistoryObject const&)> const&>::onClose(cocos2d::CCObject*)
PUBLIC 2d5bc 0 {virtual override thunk({offset(-320)}, SearchHistoryPopup::~SearchHistoryPopup())}
PUBLIC 2d698 0 {virtual override thunk({offset(-320)}, SearchHistoryPopup::~SearchHistoryPopup())}
PUBLIC 2d77c 0 {virtual override thunk({offset(-344)}, geode::Popup<std::__ndk1::function<void (SearchHistoryObject const&)> const&>::keyDown(cocos2d::enumKeyCodes))}
PUBLIC 2d7a8 0 cocos2d::CCKeyboardDelegate::keyUp(cocos2d::enumKeyCodes)
PUBLIC 2d7ac 0 cocos2d::CCMouseDelegate::rightKeyDown()
PUBLIC 2d7b0 0 cocos2d::CCMouseDelegate::rightKeyUp()
PUBLIC 2d7b4 0 cocos2d::CCMouseDelegate::scrollWheel(float, float)
PUBLIC 2d7b8 0 {virtual override thunk({offset(-408)}, cocos2d::CCLayerRGBA::setOpacityModifyRGB(bool))}
PUBLIC 2d7bc 0 {virtual override thunk({offset(-408)}, cocos2d::CCLayerRGBA::isOpacityModifyRGB())}
PUBLIC 2d7c4 0 geode::Popup<std::__ndk1::function<void (SearchHistoryObject const&)> const&>::~Popup()
PUBLIC 2d830 0 geode::Popup<std::__ndk1::function<void (SearchHistoryObject const&)> const&>::~Popup()
PUBLIC 2d834 0 {virtual override thunk({offset(-320)}, geode::Popup<std::__ndk1::function<void (SearchHistoryObject const&)> const&>::~Popup())}
PUBLIC 2d8a0 0 {virtual override thunk({offset(-320)}, geode::Popup<std::__ndk1::function<void (SearchHistoryObject const&)> const&>::~Popup())}
PUBLIC 2d8a4 0 geode::Popup<std::__ndk1::function<void (SearchHistoryObject const&)> const&>::initBase(float, float, std::__ndk1::function<void (SearchHistoryObject const&)> const&, char const*, cocos2d::CCRect, bool)
PUBLIC 2dbb8 0 std::__ndk1::__function::__func<SearchHistoryPopup::setup(std::__ndk1::function<void (SearchHistoryObject const&)> const&)::$_0, std::__ndk1::allocator<SearchHistoryPopup::setup(std::__ndk1::function<void (SearchHistoryObject const&)> const&)::$_0>, void (CCMenuItemSpriteExtra*)>::~__func()
PUBLIC 2dbbc 0 std::__ndk1::__function::__func<SearchHistoryPopup::setup(std::__ndk1::function<void (SearchHistoryObject const&)> const&)::$_0, std::__ndk1::allocator<SearchHistoryPopup::setup(std::__ndk1::function<void (SearchHistoryObject const&)> const&)::$_0>, void (CCMenuItemSpriteExtra*)>::__clone() const
PUBLIC 2dbf0 0 std::__ndk1::__function::__func<SearchHistoryPopup::setup(std::__ndk1::function<void (SearchHistoryObject const&)> const&)::$_0, std::__ndk1::allocator<SearchHistoryPopup::setup(std::__ndk1::function<void (SearchHistoryObject const&)> const&)::$_0>, void (CCMenuItemSpriteExtra*)>::__clone(std::__ndk1::__function::__base<void (CCMenuItemSpriteExtra*)>*) const
PUBLIC 2dc04 0 std::__ndk1::__function::__func<SearchHistoryPopup::setup(std::__ndk1::function<void (SearchHistoryObject const&)> const&)::$_0, std::__ndk1::allocator<SearchHistoryPopup::setup(std::__ndk1::function<void (SearchHistoryObject const&)> const&)::$_0>, void (CCMenuItemSpriteExtra*)>::destroy()
PUBLIC 2dc08 0 std::__ndk1::__function::__func<SearchHistoryPopup::setup(std::__ndk1::function<void (SearchHistoryObject const&)> const&)::$_0, std::__ndk1::allocator<SearchHistoryPopup::setup(std::__ndk1::function<void (SearchHistoryObject const&)> const&)::$_0>, void (CCMenuItemSpriteExtra*)>::destroy_deallocate()
PUBLIC 2dc0c 0 std::__ndk1::__function::__func<SearchHistoryPopup::setup(std::__ndk1::function<void (SearchHistoryObject const&)> const&)::$_0, std::__ndk1::allocator<SearchHistoryPopup::setup(std::__ndk1::function<void (SearchHistoryObject const&)> const&)::$_0>, void (CCMenuItemSpriteExtra*)>::operator()(CCMenuItemSpriteExtra*&&)
PUBLIC 2dc1c 0 std::__ndk1::__function::__func<SearchHistoryPopup::setup(std::__ndk1::function<void (SearchHistoryObject const&)> const&)::$_0, std::__ndk1::allocator<SearchHistoryPopup::setup(std::__ndk1::function<void (SearchHistoryObject const&)> const&)::$_0>, void (CCMenuItemSpriteExtra*)>::target(std::type_info const&) const
PUBLIC 2dc38 0 std::__ndk1::__function::__func<SearchHistoryPopup::setup(std::__ndk1::function<void (SearchHistoryObject const&)> const&)::$_0, std::__ndk1::allocator<SearchHistoryPopup::setup(std::__ndk1::function<void (SearchHistoryObject const&)> const&)::$_0>, void (CCMenuItemSpriteExtra*)>::target_type() const
PUBLIC 2dc44 0 std::__ndk1::__function::__func<SearchHistoryPopup::setup(std::__ndk1::function<void (SearchHistoryObject const&)> const&)::$_1, std::__ndk1::allocator<SearchHistoryPopup::setup(std::__ndk1::function<void (SearchHistoryObject const&)> const&)::$_1>, void (CCMenuItemSpriteExtra*)>::~__func()
PUBLIC 2dc48 0 std::__ndk1::__function::__func<SearchHistoryPopup::setup(std::__ndk1::function<void (SearchHistoryObject const&)> const&)::$_1, std::__ndk1::allocator<SearchHistoryPopup::setup(std::__ndk1::function<void (SearchHistoryObject const&)> const&)::$_1>, void (CCMenuItemSpriteExtra*)>::__clone() const
PUBLIC 2dc7c 0 std::__ndk1::__function::__func<SearchHistoryPopup::setup(std::__ndk1::function<void (SearchHistoryObject const&)> const&)::$_1, std::__ndk1::allocator<SearchHistoryPopup::setup(std::__ndk1::function<void (SearchHistoryObject const&)> const&)::$_1>, void (CCMenuItemSpriteExtra*)>::__clone(std::__ndk1::__function::__base<void (CCMenuItemSpriteExtra*)>*) const
PUBLIC 2dc90 0 std::__ndk1::__function::__func<SearchHistoryPopup::setup(std::__ndk1::function<void (SearchHistoryObject const&)> const&)::$_1, std::__ndk1::allocator<SearchHistoryPopup::setup(std::__ndk1::function<void (SearchHistoryObject const&)> const&)::$_1>, void (CCMenuItemSpriteExtra*)>::destroy()
PUBLIC 2dc94 0 std::__ndk1::__function::__func<SearchHistoryPopup::setup(std::__ndk1::function<void (SearchHistoryObject const&)> const&)::$_1, std::__ndk1::allocator<SearchHistoryPopup::setup(std::__ndk1::function<void (SearchHistoryObject const&)> const&)::$_1>, void (CCMenuItemSpriteExtra*)>::destroy_deallocate()
PUBLIC 2dc98 0 std::__ndk1::__function::__func<SearchHistoryPopup::setup(std::__ndk1::function<void (SearchHistoryObject const&)> const&)::$_1, std::__ndk1::allocator<SearchHistoryPopup::setup(std::__ndk1::function<void (SearchHistoryObject const&)> const&)::$_1>, void (CCMenuItemSpriteExtra*)>::operator()(CCMenuItemSpriteExtra*&&)
PUBLIC 2dca8 0 std::__ndk1::__function::__func<SearchHistoryPopup::setup(std::__ndk1::function<void (SearchHistoryObject const&)> const&)::$_1, std::__ndk1::allocator<SearchHistoryPopup::setup(std::__ndk1::function<void (SearchHistoryObject const&)> const&)::$_1>, void (CCMenuItemSpriteExtra*)>::target(std::type_info const&) const
PUBLIC 2dcc4 0 std::__ndk1::__function::__func<SearchHistoryPopup::setup(std::__ndk1::function<void (SearchHistoryObject const&)> const&)::$_1, std::__ndk1::allocator<SearchHistoryPopup::setup(std::__ndk1::function<void (SearchHistoryObject const&)> const&)::$_1>, void (CCMenuItemSpriteExtra*)>::target_type() const
PUBLIC 2dcd0 0 std::__ndk1::__function::__func<SearchHistoryPopup::setup(std::__ndk1::function<void (SearchHistoryObject const&)> const&)::$_2, std::__ndk1::allocator<SearchHistoryPopup::setup(std::__ndk1::function<void (SearchHistoryObject const&)> const&)::$_2>, void (CCMenuItemSpriteExtra*)>::~__func()
PUBLIC 2dcd4 0 std::__ndk1::__function::__func<SearchHistoryPopup::setup(std::__ndk1::function<void (SearchHistoryObject const&)> const&)::$_2, std::__ndk1::allocator<SearchHistoryPopup::setup(std::__ndk1::function<void (SearchHistoryObject const&)> const&)::$_2>, void (CCMenuItemSpriteExtra*)>::__clone() const
PUBLIC 2dd08 0 std::__ndk1::__function::__func<SearchHistoryPopup::setup(std::__ndk1::function<void (SearchHistoryObject const&)> const&)::$_2, std::__ndk1::allocator<SearchHistoryPopup::setup(std::__ndk1::function<void (SearchHistoryObject const&)> const&)::$_2>, void (CCMenuItemSpriteExtra*)>::__clone(std::__ndk1::__function::__base<void (CCMenuItemSpriteExtra*)>*) const
PUBLIC 2dd1c 0 std::__ndk1::__function::__func<SearchHistoryPopup::setup(std::__ndk1::function<void (SearchHistoryObject const&)> const&)::$_2, std::__ndk1::allocator<SearchHistoryPopup::setup(std::__ndk1::function<void (SearchHistoryObject const&)> const&)::$_2>, void (CCMenuItemSpriteExtra*)>::destroy()
PUBLIC 2dd20 0 std::__ndk1::__function::__func<SearchHistoryPopup::setup(std::__ndk1::function<void (SearchHistoryObject const&)> const&)::$_2, std::__ndk1::allocator<SearchHistoryPopup::setup(std::__ndk1::function<void (SearchHistoryObject const&)> const&)::$_2>, void (CCMenuItemSpriteExtra*)>::destroy_deallocate()
PUBLIC 2dd24 0 std::__ndk1::__function::__func<SearchHistoryPopup::setup(std::__ndk1::function<void (SearchHistoryObject const&)> const&)::$_2, std::__ndk1::allocator<SearchHistoryPopup::setup(std::__ndk1::function<void (SearchHistoryObject const&)> const&)::$_2>, void (CCMenuItemSpriteExtra*)>::operator()(CCMenuItemSpriteExtra*&&)
PUBLIC 2de94 0 std::__ndk1::__function::__func<SearchHistoryPopup::setup(std::__ndk1::function<void (SearchHistoryObject const&)> const&)::$_2, std::__ndk1::allocator<SearchHistoryPopup::setup(std::__ndk1::function<void (SearchHistoryObject const&)> const&)::$_2>, void (CCMenuItemSpriteExtra*)>::target(std::type_info const&) const
PUBLIC 2deb0 0 std::__ndk1::__function::__func<SearchHistoryPopup::setup(std::__ndk1::function<void (SearchHistoryObject const&)> const&)::$_2, std::__ndk1::allocator<SearchHistoryPopup::setup(std::__ndk1::function<void (SearchHistoryObject const&)> const&)::$_2>, void (CCMenuItemSpriteExtra*)>::target_type() const
PUBLIC 2debc 0 std::__ndk1::__function::__func<SearchHistoryPopup::setup(std::__ndk1::function<void (SearchHistoryObject const&)> const&)::$_2::operator()<CCMenuItemSpriteExtra*>(CCMenuItemSpriteExtra*) const::{lambda(auto:1, bool)#1}, std::__ndk1::allocator<SearchHistoryPopup::setup(std::__ndk1::function<void (SearchHistoryObject const&)> const&)::$_2::operator()<CCMenuItemSpriteExtra*>(CCMenuItemSpriteExtra*) const::{lambda(auto:1, bool)#1}>, void (FLAlertLayer*, bool)>::~__func()
PUBLIC 2dec0 0 std::__ndk1::__function::__func<SearchHistoryPopup::setup(std::__ndk1::function<void (SearchHistoryObject const&)> const&)::$_2::operator()<CCMenuItemSpriteExtra*>(CCMenuItemSpriteExtra*) const::{lambda(auto:1, bool)#1}, std::__ndk1::allocator<SearchHistoryPopup::setup(std::__ndk1::function<void (SearchHistoryObject const&)> const&)::$_2::operator()<CCMenuItemSpriteExtra*>(CCMenuItemSpriteExtra*) const::{lambda(auto:1, bool)#1}>, void (FLAlertLayer*, bool)>::__clone() const
PUBLIC 2def4 0 std::__ndk1::__function::__func<SearchHistoryPopup::setup(std::__ndk1::function<void (SearchHistoryObject const&)> const&)::$_2::operator()<CCMenuItemSpriteExtra*>(CCMenuItemSpriteExtra*) const::{lambda(auto:1, bool)#1}, std::__ndk1::allocator<SearchHistoryPopup::setup(std::__ndk1::function<void (SearchHistoryObject const&)> const&)::$_2::operator()<CCMenuItemSpriteExtra*>(CCMenuItemSpriteExtra*) const::{lambda(auto:1, bool)#1}>, void (FLAlertLayer*, bool)>::__clone(std::__ndk1::__function::__base<void (FLAlertLayer*, bool)>*) const
PUBLIC 2df08 0 std::__ndk1::__function::__func<SearchHistoryPopup::setup(std::__ndk1::function<void (SearchHistoryObject const&)> const&)::$_2::operator()<CCMenuItemSpriteExtra*>(CCMenuItemSpriteExtra*) const::{lambda(auto:1, bool)#1}, std::__ndk1::allocator<SearchHistoryPopup::setup(std::__ndk1::function<void (SearchHistoryObject const&)> const&)::$_2::operator()<CCMenuItemSpriteExtra*>(CCMenuItemSpriteExtra*) const::{lambda(auto:1, bool)#1}>, void (FLAlertLayer*, bool)>::destroy()
PUBLIC 2df0c 0 std::__ndk1::__function::__func<SearchHistoryPopup::setup(std::__ndk1::function<void (SearchHistoryObject const&)> const&)::$_2::operator()<CCMenuItemSpriteExtra*>(CCMenuItemSpriteExtra*) const::{lambda(auto:1, bool)#1}, std::__ndk1::allocator<SearchHistoryPopup::setup(std::__ndk1::function<void (SearchHistoryObject const&)> const&)::$_2::operator()<CCMenuItemSpriteExtra*>(CCMenuItemSpriteExtra*) const::{lambda(auto:1, bool)#1}>, void (FLAlertLayer*, bool)>::destroy_deallocate()
PUBLIC 2df10 0 std::__ndk1::__function::__func<SearchHistoryPopup::setup(std::__ndk1::function<void (SearchHistoryObject const&)> const&)::$_2::operator()<CCMenuItemSpriteExtra*>(CCMenuItemSpriteExtra*) const::{lambda(auto:1, bool)#1}, std::__ndk1::allocator<SearchHistoryPopup::setup(std::__ndk1::function<void (SearchHistoryObject const&)> const&)::$_2::operator()<CCMenuItemSpriteExtra*>(CCMenuItemSpriteExtra*) const::{lambda(auto:1, bool)#1}>, void (FLAlertLayer*, bool)>::operator()(FLAlertLayer*&&, bool&&)
PUBLIC 2df44 0 std::__ndk1::__function::__func<SearchHistoryPopup::setup(std::__ndk1::function<void (SearchHistoryObject const&)> const&)::$_2::operator()<CCMenuItemSpriteExtra*>(CCMenuItemSpriteExtra*) const::{lambda(auto:1, bool)#1}, std::__ndk1::allocator<SearchHistoryPopup::setup(std::__ndk1::function<void (SearchHistoryObject const&)> const&)::$_2::operator()<CCMenuItemSpriteExtra*>(CCMenuItemSpriteExtra*) const::{lambda(auto:1, bool)#1}>, void (FLAlertLayer*, bool)>::target(std::type_info const&) const
PUBLIC 2df60 0 std::__ndk1::__function::__func<SearchHistoryPopup::setup(std::__ndk1::function<void (SearchHistoryObject const&)> const&)::$_2::operator()<CCMenuItemSpriteExtra*>(CCMenuItemSpriteExtra*) const::{lambda(auto:1, bool)#1}, std::__ndk1::allocator<SearchHistoryPopup::setup(std::__ndk1::function<void (SearchHistoryObject const&)> const&)::$_2::operator()<CCMenuItemSpriteExtra*>(CCMenuItemSpriteExtra*) const::{lambda(auto:1, bool)#1}>, void (FLAlertLayer*, bool)>::target_type() const
PUBLIC 2df6c 0 std::__ndk1::__function::__base<void (std::__ndk1::basic_string<char, std::__ndk1::char_traits<char>, std::__ndk1::allocator<char> > const&)>::~__base()
PUBLIC 2df70 0 std::__ndk1::__function::__func<SearchHistoryPopup::setup(std::__ndk1::function<void (SearchHistoryObject const&)> const&)::$_3, std::__ndk1::allocator<SearchHistoryPopup::setup(std::__ndk1::function<void (SearchHistoryObject const&)> const&)::$_3>, void (std::__ndk1::basic_string<char, std::__ndk1::char_traits<char>, std::__ndk1::allocator<char> > const&)>::~__func()
PUBLIC 2df74 0 std::__ndk1::__function::__func<SearchHistoryPopup::setup(std::__ndk1::function<void (SearchHistoryObject const&)> const&)::$_3, std::__ndk1::allocator<SearchHistoryPopup::setup(std::__ndk1::function<void (SearchHistoryObject const&)> const&)::$_3>, void (std::__ndk1::basic_string<char, std::__ndk1::char_traits<char>, std::__ndk1::allocator<char> > const&)>::__clone() const
PUBLIC 2dfa8 0 std::__ndk1::__function::__func<SearchHistoryPopup::setup(std::__ndk1::function<void (SearchHistoryObject const&)> const&)::$_3, std::__ndk1::allocator<SearchHistoryPopup::setup(std::__ndk1::function<void (SearchHistoryObject const&)> const&)::$_3>, void (std::__ndk1::basic_string<char, std::__ndk1::char_traits<char>, std::__ndk1::allocator<char> > const&)>::__clone(std::__ndk1::__function::__base<void (std::__ndk1::basic_string<char, std::__ndk1::char_traits<char>, std::__ndk1::allocator<char> > const&)>*) const
PUBLIC 2dfbc 0 std::__ndk1::__function::__func<SearchHistoryPopup::setup(std::__ndk1::function<void (SearchHistoryObject const&)> const&)::$_3, std::__ndk1::allocator<SearchHistoryPopup::setup(std::__ndk1::function<void (SearchHistoryObject const&)> const&)::$_3>, void (std::__ndk1::basic_string<char, std::__ndk1::char_traits<char>, std::__ndk1::allocator<char> > const&)>::destroy()
PUBLIC 2dfc0 0 std::__ndk1::__function::__func<SearchHistoryPopup::setup(std::__ndk1::function<void (SearchHistoryObject const&)> const&)::$_3, std::__ndk1::allocator<SearchHistoryPopup::setup(std::__ndk1::function<void (SearchHistoryObject const&)> const&)::$_3>, void (std::__ndk1::basic_string<char, std::__ndk1::char_traits<char>, std::__ndk1::allocator<char> > const&)>::destroy_deallocate()
PUBLIC 2dfc4 0 std::__ndk1::__function::__func<SearchHistoryPopup::setup(std::__ndk1::function<void (SearchHistoryObject const&)> const&)::$_3, std::__ndk1::allocator<SearchHistoryPopup::setup(std::__ndk1::function<void (SearchHistoryObject const&)> const&)::$_3>, void (std::__ndk1::basic_string<char, std::__ndk1::char_traits<char>, std::__ndk1::allocator<char> > const&)>::operator()(std::__ndk1::basic_string<char, std::__ndk1::char_traits<char>, std::__ndk1::allocator<char> > const&)
PUBLIC 2e07c 0 std::__ndk1::__function::__func<SearchHistoryPopup::setup(std::__ndk1::function<void (SearchHistoryObject const&)> const&)::$_3, std::__ndk1::allocator<SearchHistoryPopup::setup(std::__ndk1::function<void (SearchHistoryObject const&)> const&)::$_3>, void (std::__ndk1::basic_string<char, std::__ndk1::char_traits<char>, std::__ndk1::allocator<char> > const&)>::target(std::type_info const&) const
PUBLIC 2e098 0 std::__ndk1::__function::__func<SearchHistoryPopup::setup(std::__ndk1::function<void (SearchHistoryObject const&)> const&)::$_3, std::__ndk1::allocator<SearchHistoryPopup::setup(std::__ndk1::function<void (SearchHistoryObject const&)> const&)::$_3>, void (std::__ndk1::basic_string<char, std::__ndk1::char_traits<char>, std::__ndk1::allocator<char> > const&)>::target_type() const
PUBLIC 2e0a4 0 geode::Popup<std::__ndk1::function<void (SearchHistoryObject const&)> const&>::CloseEvent::~CloseEvent()
PUBLIC 2e104 0 geode::Popup<std::__ndk1::function<void (SearchHistoryObject const&)> const&>::CloseEvent::~CloseEvent()
PUBLIC 2e174 0 std::__ndk1::__shared_ptr_emplace<geode::Popup<std::__ndk1::function<void (SearchHistoryObject const&)> const&>::CloseEvent::Impl, std::__ndk1::allocator<geode::Popup<std::__ndk1::function<void (SearchHistoryObject const&)> const&>::CloseEvent::Impl> >::~__shared_ptr_emplace()
PUBLIC 2e184 0 std::__ndk1::__shared_ptr_emplace<geode::Popup<std::__ndk1::function<void (SearchHistoryObject const&)> const&>::CloseEvent::Impl, std::__ndk1::allocator<geode::Popup<std::__ndk1::function<void (SearchHistoryObject const&)> const&>::CloseEvent::Impl> >::~__shared_ptr_emplace()
PUBLIC 2e1b4 0 std::__ndk1::__shared_ptr_emplace<geode::Popup<std::__ndk1::function<void (SearchHistoryObject const&)> const&>::CloseEvent::Impl, std::__ndk1::allocator<geode::Popup<std::__ndk1::function<void (SearchHistoryObject const&)> const&>::CloseEvent::Impl> >::__on_zero_shared()
PUBLIC 2e1b8 0 std::__ndk1::__shared_ptr_emplace<geode::Popup<std::__ndk1::function<void (SearchHistoryObject const&)> const&>::CloseEvent::Impl, std::__ndk1::allocator<geode::Popup<std::__ndk1::function<void (SearchHistoryObject const&)> const&>::CloseEvent::Impl> >::__on_zero_shared_weak()
PUBLIC 2e1bc 0 std::__ndk1::__function::__func<SearchHistoryPopup::page(int)::$_0, std::__ndk1::allocator<SearchHistoryPopup::page(int)::$_0>, void (SearchHistoryObject const&)>::~__func()
PUBLIC 2e1c0 0 std::__ndk1::__function::__func<SearchHistoryPopup::page(int)::$_0, std::__ndk1::allocator<SearchHistoryPopup::page(int)::$_0>, void (SearchHistoryObject const&)>::__clone() const
PUBLIC 2e1f4 0 std::__ndk1::__function::__func<SearchHistoryPopup::page(int)::$_0, std::__ndk1::allocator<SearchHistoryPopup::page(int)::$_0>, void (SearchHistoryObject const&)>::__clone(std::__ndk1::__function::__base<void (SearchHistoryObject const&)>*) const
PUBLIC 2e208 0 std::__ndk1::__function::__func<SearchHistoryPopup::page(int)::$_0, std::__ndk1::allocator<SearchHistoryPopup::page(int)::$_0>, void (SearchHistoryObject const&)>::destroy()
PUBLIC 2e20c 0 std::__ndk1::__function::__func<SearchHistoryPopup::page(int)::$_0, std::__ndk1::allocator<SearchHistoryPopup::page(int)::$_0>, void (SearchHistoryObject const&)>::destroy_deallocate()
PUBLIC 2e210 0 std::__ndk1::__function::__func<SearchHistoryPopup::page(int)::$_0, std::__ndk1::allocator<SearchHistoryPopup::page(int)::$_0>, void (SearchHistoryObject const&)>::operator()(SearchHistoryObject const&)
PUBLIC 2e254 0 std::__ndk1::__function::__func<SearchHistoryPopup::page(int)::$_0, std::__ndk1::allocator<SearchHistoryPopup::page(int)::$_0>, void (SearchHistoryObject const&)>::target(std::type_info const&) const
PUBLIC 2e270 0 std::__ndk1::__function::__func<SearchHistoryPopup::page(int)::$_0, std::__ndk1::allocator<SearchHistoryPopup::page(int)::$_0>, void (SearchHistoryObject const&)>::target_type() const
PUBLIC 2e27c 0 std::__ndk1::__function::__base<void (int)>::~__base()
PUBLIC 2e280 0 std::__ndk1::__function::__func<SearchHistoryPopup::page(int)::$_1, std::__ndk1::allocator<SearchHistoryPopup::page(int)::$_1>, void (int)>::~__func()
PUBLIC 2e284 0 std::__ndk1::__function::__func<SearchHistoryPopup::page(int)::$_1, std::__ndk1::allocator<SearchHistoryPopup::page(int)::$_1>, void (int)>::__clone() const
PUBLIC 2e2b8 0 std::__ndk1::__function::__func<SearchHistoryPopup::page(int)::$_1, std::__ndk1::allocator<SearchHistoryPopup::page(int)::$_1>, void (int)>::__clone(std::__ndk1::__function::__base<void (int)>*) const
PUBLIC 2e2cc 0 std::__ndk1::__function::__func<SearchHistoryPopup::page(int)::$_1, std::__ndk1::allocator<SearchHistoryPopup::page(int)::$_1>, void (int)>::destroy()
PUBLIC 2e2d0 0 std::__ndk1::__function::__func<SearchHistoryPopup::page(int)::$_1, std::__ndk1::allocator<SearchHistoryPopup::page(int)::$_1>, void (int)>::destroy_deallocate()
PUBLIC 2e2d4 0 std::__ndk1::__function::__func<SearchHistoryPopup::page(int)::$_1, std::__ndk1::allocator<SearchHistoryPopup::page(int)::$_1>, void (int)>::operator()(int&&)
PUBLIC 2e300 0 std::__ndk1::__function::__func<SearchHistoryPopup::page(int)::$_1, std::__ndk1::allocator<SearchHistoryPopup::page(int)::$_1>, void (int)>::target(std::type_info const&) const
PUBLIC 2e31c 0 std::__ndk1::__function::__func<SearchHistoryPopup::page(int)::$_1, std::__ndk1::allocator<SearchHistoryPopup::page(int)::$_1>, void (int)>::target_type() const
PUBLIC m 2e328 0 geodeImplicitEntry
PUBLIC 2e364 0 cocos2d::CCDestructor::~CCDestructor()
PUBLIC 2e460 0 wrapFunction(unsigned long, tulip::hook::WrapperMetadata const&)
PUBLIC 2e594 0 geode::impl::ResultData<void*, std::__ndk1::basic_string<char, std::__ndk1::char_traits<char>, std::__ndk1::allocator<char> > >::unwrapErr() &
PUBLIC 2e60c 0 geode::impl::ResultData<void*, std::__ndk1::basic_string<char, std::__ndk1::char_traits<char>, std::__ndk1::allocator<char> > >::~ResultData()
PUBLIC 2e680 0 tulip::hook::WrapperMetadata::~WrapperMetadata()
PUBLIC 2e6e4 0 cocos2d::CCObject::CCObject()
PUBLIC 2e858 0 cocos2d::CCNode::CCNode()
PUBLIC 2e9ec 0 cocos2d::CCNode::~CCNode()
PUBLIC 2ea10 0 {virtual override thunk({offset(-320)}, cocos2d::CCLayer::~CCLayer())}
PUBLIC 2ea18 0 cocos2d::CCLayer::~CCLayer()
PUBLIC 2ea3c 0 {virtual override thunk({offset(-320)}, cocos2d::CCLayer::~CCLayer())}
PUBLIC 2ea64 0 cocos2d::CCObject::~CCObject()
PUBLIC 2ea88 0 cocos2d::CCLayerColor::CCLayerColor()
PUBLIC 2ee88 0 cocos2d::CCLayerRGBA::~CCLayerRGBA()
PUBLIC 2f0d4 0 {virtual override thunk({offset(-320)}, cocos2d::CCLayerColor::~CCLayerColor())}
PUBLIC 2f0dc 0 cocos2d::CCLayerColor::~CCLayerColor()
PUBLIC 2f100 0 {virtual override thunk({offset(-320)}, cocos2d::CCLayerColor::~CCLayerColor())}
PUBLIC 2f128 0 {virtual override thunk({offset(-320)}, cocos2d::CCLayerRGBA::~CCLayerRGBA())}
PUBLIC 2f130 0 cocos2d::CCLayerRGBA::~CCLayerRGBA()
PUBLIC 2f154 0 {virtual override thunk({offset(-320)}, cocos2d::CCLayerRGBA::~CCLayerRGBA())}
PUBLIC 2f17c 0 cocos2d::CCDictionary::valueForKey(gd::string const&)
PUBLIC 2f2cc 0 tulip::hook::AbstractFunction::from<cocos2d::CCString const*, cocos2d::CCDictionary*, gd::string const&>(cocos2d::CCString const* (*)(cocos2d::CCDictionary*, gd::string const&))
PUBLIC 2f374 0 {virtual override thunk({offset(-320)}, FLAlertLayer::~FLAlertLayer())}
PUBLIC 2f37c 0 FLAlertLayer::~FLAlertLayer()
PUBLIC 2f3a0 0 {virtual override thunk({offset(-320)}, FLAlertLayer::~FLAlertLayer())}
PUBLIC 2f3c8 0 tulip::hook::AbstractFunction::from<void, CCTextInputNode*, gd::string>(void (*)(CCTextInputNode*, gd::string))
PUBLIC 2f46c 0 CCTextInputNode::setString(gd::string)
PUBLIC 2f5e4 0 LevelSearchLayer::getSearchObject(SearchType, gd::string)
PUBLIC 2f774 0 tulip::hook::AbstractFunction::from<GJSearchObject*, LevelSearchLayer*, SearchType, gd::string>(GJSearchObject* (*)(LevelSearchLayer*, SearchType, gd::string))
PUBLIC 2f878 0 cocos2d::CCLayer::~CCLayer()
PUBLIC 2fabc 0 cocos2d::CCLayerColor::~CCLayerColor()
PUBLIC 2fd10 0 FLAlertLayer::~FLAlertLayer()
PUBLIC 2ffc4 0 cocos2d::CCNode::~CCNode()
PUBLIC 301e8 0 cocos2d::CCObject::~CCObject()
PUBLIC 3040c 0 _ZN5geode15UnwrapExceptionC2IRPvQsr4implE18IsStringStreamableIT_EEENS_4impl5OkTagEOS4_
PUBLIC 30560 0 std::__ndk1::__variant_detail::__visitation::__base::__dispatcher<(unsigned long)0>::__dispatch[abi:ne180000]<std::__ndk1::__variant_detail::__dtor<std::__ndk1::__variant_detail::__traits<void*, std::__ndk1::basic_string<char, std::__ndk1::char_traits<char>, std::__ndk1::allocator<char> > >, (std::__ndk1::__variant_detail::_Trait)1>::__destroy[abi:ne180000]()::{lambda(auto:1&)#1}, std::__ndk1::__variant_detail::__base<(std::__ndk1::__variant_detail::__traits<void*, std::__ndk1::basic_string<char, std::__ndk1::char_traits<char>, std::__ndk1::allocator<char> > >)1, std::__ndk1::__variant_detail::__traits, std::__ndk1::allocator<char> >&>(std::__ndk1::__variant_detail::__dtor<std::__ndk1::__variant_detail::__traits<void*, std::__ndk1::basic_string<char, std::__ndk1::char_traits<char>, std::__ndk1::allocator<char> > >, (std::__ndk1::__variant_detail::_Trait)1>, std::__ndk1::__variant_detail::__base<(std::__ndk1::__variant_detail::__traits<void*, std::__ndk1::basic_string<char, std::__ndk1::char_traits<char>, std::__ndk1::allocator<char> > >)1, std::__ndk1::__variant_detail::__traits, std::__ndk1::allocator<char> >&)
PUBLIC 30564 0 std::__ndk1::__variant_detail::__visitation::__base::__dispatcher<(unsigned long)1>::__dispatch[abi:ne180000]<std::__ndk1::__variant_detail::__dtor<std::__ndk1::__variant_detail::__traits<void*, std::__ndk1::basic_string<char, std::__ndk1::char_traits<char>, std::__ndk1::allocator<char> > >, (std::__ndk1::__variant_detail::_Trait)1>::__destroy[abi:ne180000]()::{lambda(auto:1&)#1}, std::__ndk1::__variant_detail::__base<(std::__ndk1::__variant_detail::__traits<void*, std::__ndk1::basic_string<char, std::__ndk1::char_traits<char>, std::__ndk1::allocator<char> > >)1, std::__ndk1::__variant_detail::__traits, std::__ndk1::allocator<char> >&>(std::__ndk1::__variant_detail::__dtor<std::__ndk1::__variant_detail::__traits<void*, std::__ndk1::basic_string<char, std::__ndk1::char_traits<char>, std::__ndk1::allocator<char> > >, (std::__ndk1::__variant_detail::_Trait)1>, std::__ndk1::__variant_detail::__base<(std::__ndk1::__variant_detail::__traits<void*, std::__ndk1::basic_string<char, std::__ndk1::char_traits<char>, std::__ndk1::allocator<char> > >)1, std::__ndk1::__variant_detail::__traits, std::__ndk1::allocator<char> >&)
PUBLIC 30578 0 std::__ndk1::__hash_table<std::__ndk1::__hash_value_type<void*, bool>, std::__ndk1::__unordered_map_hasher<void*, std::__ndk1::__hash_value_type<void*, bool>, std::__ndk1::hash<void*>, std::__ndk1::equal_to<void*>, true>, std::__ndk1::__unordered_map_equal<void*, std::__ndk1::__hash_value_type<void*, bool>, std::__ndk1::equal_to<void*>, std::__ndk1::hash<void*>, true>, std::__ndk1::allocator<std::__ndk1::__hash_value_type<void*, bool> > >::__emplace_unique_key_args<void*, std::__ndk1::piecewise_construct_t const&, std::__ndk1::tuple<void* const&>, std::__ndk1::tuple<> >(void* const&, std::__ndk1::piecewise_construct_t const&, std::__ndk1::tuple<void* const&>, std::__ndk1::tuple<>)
PUBLIC 30a58 0 std::__ndk1::__hash_table<std::__ndk1::__hash_value_type<void*, bool>, std::__ndk1::__unordered_map_hasher<void*, std::__ndk1::__hash_value_type<void*, bool>, std::__ndk1::hash<void*>, std::__ndk1::equal_to<void*>, true>, std::__ndk1::__unordered_map_equal<void*, std::__ndk1::__hash_value_type<void*, bool>, std::__ndk1::equal_to<void*>, std::__ndk1::hash<void*>, true>, std::__ndk1::allocator<std::__ndk1::__hash_value_type<void*, bool> > >::find<void*>(void* const&)
PUBLIC 30b68 0 std::__ndk1::__hash_table<std::__ndk1::__hash_value_type<void*, bool>, std::__ndk1::__unordered_map_hasher<void*, std::__ndk1::__hash_value_type<void*, bool>, std::__ndk1::hash<void*>, std::__ndk1::equal_to<void*>, true>, std::__ndk1::__unordered_map_equal<void*, std::__ndk1::__hash_value_type<void*, bool>, std::__ndk1::equal_to<void*>, std::__ndk1::hash<void*>, true>, std::__ndk1::allocator<std::__ndk1::__hash_value_type<void*, bool> > >::remove(std::__ndk1::__hash_const_iterator<std::__ndk1::__hash_node<std::__ndk1::__hash_value_type<void*, bool>, void*>*>)
PUBLIC 30c9c 0 __udivti3
PUBLIC 30ca8 0 __udivmodti4
PUBLIC m 30ef4 0 __eqtf2
PUBLIC 30f94 0 __unordtf2
PUBLIC 30fcc 0 fmt::v11::detail::write_loc(fmt::v11::basic_appender<char>, fmt::v11::loc_value, fmt::v11::format_specs const&, fmt::v11::detail::locale_ref)
PUBLIC 31260 0 fmt::v11::format_facet<std::__ndk1::locale>::~format_facet()
PUBLIC 312dc 0 fmt::v11::report_error(char const*)
PUBLIC 3132c 0 fmt::v11::format_error::runtime_error(char const*)
PUBLIC 31358 0 fmt::v11::format_facet<std::__ndk1::locale>::do_put(fmt::v11::basic_appender<char>, fmt::v11::loc_value, fmt::v11::format_specs const&) const
PUBLIC 31b18 0 fmt::v11::detail::loc_writer<char>::~loc_writer()
PUBLIC 31b7c 0 fmt::v11::detail::vformat_to<char>(fmt::v11::detail::buffer<char>&, fmt::v11::basic_string_view<char>, fmt::v11::detail::vformat_args<char>::type, fmt::v11::detail::locale_ref)
PUBLIC 320ec 0 fmt::v11::detail::is_printable(unsigned int)
PUBLIC 32314 0 fmt::v11::detail::dragonbox::to_decimal<float>(float)
PUBLIC 325f0 0 fmt::v11::detail::dragonbox::to_decimal<double>(double)
PUBLIC 32b2c 0 fmt::v11::basic_memory_buffer<char, (unsigned long)500, std::__ndk1::allocator<char> >::grow(fmt::v11::detail::buffer<char>&, unsigned long)
PUBLIC 32ba4 0 fmt::v11::format_facet<std::__ndk1::locale>::~format_facet()
PUBLIC 32c30 0 fmt::v11::format_error::~format_error()
PUBLIC 32c54 0 fmt::v11::detail::copy_noinline<char, char const*, fmt::v11::basic_appender<char> >(char const*, char const*, fmt::v11::basic_appender<char>)
PUBLIC 32da4 0 fmt::v11::detail::default_arg_formatter<char>::operator()<bool>(bool)
PUBLIC 32e0c 0 fmt::v11::detail::default_arg_formatter<char>::operator()<char>(char)
PUBLIC 32e9c 0 fmt::v11::detail::default_arg_formatter<char>::operator()<float>(float)
PUBLIC 32f88 0 fmt::v11::detail::default_arg_formatter<char>::operator()<double>(double)
PUBLIC 33074 0 fmt::v11::detail::default_arg_formatter<char>::operator()<char const*>(char const*)
PUBLIC 330bc 0 fmt::v11::detail::default_arg_formatter<char>::operator()<void const*>(void const*)
PUBLIC 33154 0 _ZN3fmt3v116detail5writeIcNS0_14basic_appenderIcEEiTnNSt6__ndk19enable_ifIXaaaasr11is_integralIT1_EE5valuentsr3std7is_sameIS7_bEE5valuentsr3std7is_sameIS7_T_EE5valueEiE4typeELi0EEET0_SB_S7_
PUBLIC 333b4 0 fmt::v11::detail::copy_noinline<char, char*, fmt::v11::basic_appender<char> >(char*, char*, fmt::v11::basic_appender<char>)
PUBLIC 33504 0 _ZN3fmt3v116detail5writeIcNS0_14basic_appenderIcEEjTnNSt6__ndk19enable_ifIXaaaasr11is_integralIT1_EE5valuentsr3std7is_sameIS7_bEE5valuentsr3std7is_sameIS7_T_EE5valueEiE4typeELi0EEET0_SB_S7_
PUBLIC 336e4 0 _ZN3fmt3v116detail5writeIcNS0_14basic_appenderIcEExTnNSt6__ndk19enable_ifIXaaaasr11is_integralIT1_EE5valuentsr3std7is_sameIS7_bEE5valuentsr3std7is_sameIS7_T_EE5valueEiE4typeELi0EEET0_SB_S7_
PUBLIC 33968 0 _ZN3fmt3v116detail5writeIcNS0_14basic_appenderIcEEyTnNSt6__ndk19enable_ifIXaaaasr11is_integralIT1_EE5valuentsr3std7is_sameIS7_bEE5valuentsr3std7is_sameIS7_T_EE5valueEiE4typeELi0EEET0_SB_S7_
PUBLIC 33b70 0 _ZN3fmt3v116detail5writeIcNS0_14basic_appenderIcEEnTnNSt6__ndk19enable_ifIXaaaasr11is_integralIT1_EE5valuentsr3std7is_sameIS7_bEE5valuentsr3std7is_sameIS7_T_EE5valueEiE4typeELi0EEET0_SB_S7_
PUBLIC 33ed0 0 _ZN3fmt3v116detail5writeIcNS0_14basic_appenderIcEEoTnNSt6__ndk19enable_ifIXaaaasr11is_integralIT1_EE5valuentsr3std7is_sameIS7_bEE5valuentsr3std7is_sameIS7_T_EE5valueEiE4typeELi0EEET0_SB_S7_
PUBLIC 341e4 0 _ZN3fmt3v116detail5writeIcNS0_14basic_appenderIcEEbTnNSt6__ndk19enable_ifIXsr3std7is_sameIT1_bEE5valueEiE4typeELi0EEET0_SA_S7_RKNS0_12format_specsENS1_10locale_refE
PUBLIC 34474 0 fmt::v11::detail::write_int_noinline<char, fmt::v11::basic_appender<char>, unsigned int>(fmt::v11::basic_appender<char>, fmt::v11::detail::write_int_arg<unsigned int>, fmt::v11::format_specs const&, fmt::v11::detail::locale_ref)
PUBLIC 35250 0 fmt::v11::detail::fill<char, fmt::v11::basic_appender<char> >(fmt::v11::basic_appender<char>, unsigned long, fmt::v11::detail::fill_t const&)
PUBLIC 35420 0 fmt::v11::detail::write_padded<char, (fmt::v11::align::type)1, fmt::v11::basic_appender<char>, fmt::v11::detail::write_char<char, fmt::v11::basic_appender<char> >(fmt::v11::basic_appender<char>, char, fmt::v11::format_specs const&)::{lambda(fmt::v11::basic_appender<char>&)#1}>(fmt::v11::basic_appender<char>, fmt::v11::format_specs const&, unsigned long, unsigned long, fmt::v11::detail::write_char<char, fmt::v11::basic_appender<char> >(fmt::v11::basic_appender<char>, char, fmt::v11::format_specs const&)::{lambda(fmt::v11::basic_appender<char>&)#1})
PUBLIC 3565c 0 fmt::v11::detail::write_escaped_cp<fmt::v11::basic_appender<char>, char>(fmt::v11::basic_appender<char>, fmt::v11::detail::find_escape_result<char> const&)
PUBLIC 35968 0 fmt::v11::detail::write_codepoint<(unsigned long)2, char, fmt::v11::basic_appender<char> >(fmt::v11::basic_appender<char>, char, unsigned int)
PUBLIC 35ae0 0 fmt::v11::detail::write_codepoint<(unsigned long)8, char, fmt::v11::basic_appender<char> >(fmt::v11::basic_appender<char>, char, unsigned int)
PUBLIC 35c58 0 fmt::v11::detail::write_padded<char, (fmt::v11::align::type)1, fmt::v11::basic_appender<char>, fmt::v11::detail::write_nonfinite<char, fmt::v11::basic_appender<char> >(fmt::v11::basic_appender<char>, bool, fmt::v11::format_specs, fmt::v11::sign::type)::{lambda(fmt::v11::basic_appender<char>&)#1}>(fmt::v11::basic_appender<char>, fmt::v11::format_specs const&, unsigned long, unsigned long, fmt::v11::detail::write_nonfinite<char, fmt::v11::basic_appender<char> >(fmt::v11::basic_appender<char>, bool, fmt::v11::format_specs, fmt::v11::sign::type)::{lambda(fmt::v11::basic_appender<char>&)#1})
PUBLIC 35e98 0 fmt::v11::detail::do_write_float<char, fmt::v11::basic_appender<char>, fmt::v11::detail::dragonbox::decimal_fp<float>, fmt::v11::detail::digit_grouping<char> >(fmt::v11::basic_appender<char>, fmt::v11::detail::dragonbox::decimal_fp<float> const&, fmt::v11::format_specs const&, fmt::v11::detail::float_specs, fmt::v11::detail::locale_ref)
PUBLIC 36b0c 0 fmt::v11::detail::do_write_float<char, fmt::v11::basic_appender<char>, fmt::v11::detail::dragonbox::decimal_fp<float>, fmt::v11::detail::digit_grouping<char> >(fmt::v11::basic_appender<char>, fmt::v11::detail::dragonbox::decimal_fp<float> const&, fmt::v11::format_specs const&, fmt::v11::detail::float_specs, fmt::v11::detail::locale_ref)::{lambda(fmt::v11::basic_appender<char>(fmt::v11::basic_appender<char>))#1}::operator() const
PUBLIC 36c60 0 fmt::v11::detail::digit_grouping<char>::digit_grouping(fmt::v11::detail::locale_ref, bool)
PUBLIC 36ecc 0 fmt::v11::detail::digit_grouping<char>::~digit_grouping()
PUBLIC 36f10 0 fmt::v11::detail::write_exponent<char, fmt::v11::basic_appender<char> >(int, fmt::v11::basic_appender<char>)
PUBLIC 370e0 0 _ZN3fmt3v116detail17write_significandIcjTnNSt6__ndk19enable_ifIXsr3std11is_integralIT0_EE5valueEiE4typeELi0EEEPT_S9_S5_iiS8_
PUBLIC 3725c 0 fmt::v11::detail::digit_grouping<char>::apply<fmt::v11::basic_appender<char>, char>(fmt::v11::basic_appender<char>, fmt::v11::basic_string_view<char>) const
PUBLIC 37614 0 fmt::v11::basic_memory_buffer<int, (unsigned long)500, std::__ndk1::allocator<int> >::grow(fmt::v11::detail::buffer<int>&, unsigned long)
PUBLIC 376b4 0 fmt::v11::detail::do_write_float<char, fmt::v11::basic_appender<char>, fmt::v11::detail::dragonbox::decimal_fp<double>, fmt::v11::detail::digit_grouping<char> >(fmt::v11::basic_appender<char>, fmt::v11::detail::dragonbox::decimal_fp<double> const&, fmt::v11::format_specs const&, fmt::v11::detail::float_specs, fmt::v11::detail::locale_ref)
PUBLIC 38368 0 fmt::v11::detail::do_write_float<char, fmt::v11::basic_appender<char>, fmt::v11::detail::dragonbox::decimal_fp<double>, fmt::v11::detail::digit_grouping<char> >(fmt::v11::basic_appender<char>, fmt::v11::detail::dragonbox::decimal_fp<double> const&, fmt::v11::format_specs const&, fmt::v11::detail::float_specs, fmt::v11::detail::locale_ref)::{lambda(fmt::v11::basic_appender<char>(fmt::v11::basic_appender<char>))#1}::operator() const
PUBLIC 384c0 0 _ZN3fmt3v116detail17write_significandIcmTnNSt6__ndk19enable_ifIXsr3std11is_integralIT0_EE5valueEiE4typeELi0EEEPT_S9_S5_iiS8_
PUBLIC 38650 0 fmt::v11::detail::write_float<char, fmt::v11::basic_appender<char>, long double>(fmt::v11::basic_appender<char>, long double, fmt::v11::format_specs, fmt::v11::detail::locale_ref)
PUBLIC 3914c 0 fmt::v11::detail::write_padded<char, (fmt::v11::align::type)2, fmt::v11::basic_appender<char>, fmt::v11::detail::write_bytes<char, (fmt::v11::align::type)2, fmt::v11::basic_appender<char> >(fmt::v11::basic_appender<char>, fmt::v11::basic_string_view<char>, fmt::v11::format_specs const&)::{lambda(fmt::v11::basic_appender<char>&)#1}>(fmt::v11::basic_appender<char>, fmt::v11::format_specs const&, unsigned long, unsigned long, fmt::v11::detail::write_bytes<char, (fmt::v11::align::type)2, fmt::v11::basic_appender<char> >(fmt::v11::basic_appender<char>, fmt::v11::basic_string_view<char>, fmt::v11::format_specs const&)::{lambda(fmt::v11::basic_appender<char>&)#1})
PUBLIC 39328 0 fmt::v11::detail::format_dragon(fmt::v11::detail::basic_fp<unsigned __int128>, unsigned int, int, fmt::v11::detail::buffer<char>&, int&)
PUBLIC 3a758 0 fmt::v11::detail::bigint::operator<<=(int)
PUBLIC 3a87c 0 fmt::v11::detail::bigint::assign_pow10(int)
PUBLIC 3afd8 0 fmt::v11::detail::bigint::divmod_assign(fmt::v11::detail::bigint const&)
PUBLIC 3b2f8 0 fmt::v11::basic_memory_buffer<unsigned int, (unsigned long)32, std::__ndk1::allocator<unsigned int> >::grow(fmt::v11::detail::buffer<unsigned int>&, unsigned long)
PUBLIC 3b398 0 fmt::v11::detail::do_write_float<char, fmt::v11::basic_appender<char>, fmt::v11::detail::big_decimal_fp, fmt::v11::detail::digit_grouping<char> >(fmt::v11::basic_appender<char>, fmt::v11::detail::big_decimal_fp const&, fmt::v11::format_specs const&, fmt::v11::detail::float_specs, fmt::v11::detail::locale_ref)
PUBLIC 3c248 0 fmt::v11::detail::do_write_float<char, fmt::v11::basic_appender<char>, fmt::v11::detail::big_decimal_fp, fmt::v11::detail::digit_grouping<char> >(fmt::v11::basic_appender<char>, fmt::v11::detail::big_decimal_fp const&, fmt::v11::format_specs const&, fmt::v11::detail::float_specs, fmt::v11::detail::locale_ref)::{lambda(fmt::v11::basic_appender<char>(fmt::v11::basic_appender<char>))#1}::operator() const
PUBLIC 3c3a8 0 fmt::v11::detail::write_padded<char, (fmt::v11::align::type)2, fmt::v11::basic_appender<char>, fmt::v11::detail::write_ptr<char, fmt::v11::basic_appender<char>, unsigned long>(fmt::v11::basic_appender<char>, unsigned long, fmt::v11::format_specs const*)::{lambda(fmt::v11::basic_appender<char>&)#1}>(fmt::v11::basic_appender<char>, fmt::v11::format_specs const&, unsigned long, unsigned long, fmt::v11::detail::write_ptr<char, fmt::v11::basic_appender<char>, unsigned long>(fmt::v11::basic_appender<char>, unsigned long, fmt::v11::format_specs const*)::{lambda(fmt::v11::basic_appender<char>&)#1})
PUBLIC 3c5bc 0 fmt::v11::detail::parse_replacement_field<char, fmt::v11::detail::vformat_to<char>(fmt::v11::detail::buffer<char>&, fmt::v11::basic_string_view<char>, fmt::v11::detail::vformat_args<char>::type, fmt::v11::detail::locale_ref)::format_handler&>(char const*, char const*, fmt::v11::detail::vformat_to<char>(fmt::v11::detail::buffer<char>&, fmt::v11::basic_string_view<char>, fmt::v11::detail::vformat_args<char>::type, fmt::v11::detail::locale_ref)::format_handler&)
PUBLIC 3e258 0 fmt::v11::detail::parse_dynamic_spec<char>(char const*, char const*, int&, fmt::v11::detail::arg_ref<char>&, fmt::v11::basic_format_parse_context<char>&)
PUBLIC 3e4e8 0 fmt::v11::basic_format_args<fmt::v11::context>::get<char>(fmt::v11::basic_string_view<char>) const
PUBLIC 3e640 0 fmt::v11::detail::write_int_noinline<char, fmt::v11::basic_appender<char>, unsigned long>(fmt::v11::basic_appender<char>, fmt::v11::detail::write_int_arg<unsigned long>, fmt::v11::format_specs const&, fmt::v11::detail::locale_ref)
PUBLIC 3f494 0 fmt::v11::detail::write_int_noinline<char, fmt::v11::basic_appender<char>, unsigned __int128>(fmt::v11::basic_appender<char>, fmt::v11::detail::write_int_arg<unsigned __int128>, fmt::v11::format_specs const&, fmt::v11::detail::locale_ref)
PUBLIC 404fc 0 _ZN3fmt3v116detail15format_hexfloatIdTnNSt6__ndk19enable_ifIXntsr16is_double_doubleIT_EE5valueEiE4typeELi0EEEvS5_NS0_12format_specsERNS1_6bufferIcEE
PUBLIC 40a1c 0 fmt::v11::detail::format_float<double>(double, int, fmt::v11::detail::float_specs, fmt::v11::detail::buffer<char>&)
PUBLIC 413bc 0 fmt::v11::detail::write<char, fmt::v11::basic_appender<char> >(fmt::v11::basic_appender<char>, fmt::v11::basic_string_view<char>, fmt::v11::format_specs const&)
PUBLIC 42728 0 fmt::v11::detail::for_each_codepoint<fmt::v11::detail::compute_width(fmt::v11::basic_string_view<char>)::count_code_points>(fmt::v11::basic_string_view<char>, fmt::v11::detail::compute_width(fmt::v11::basic_string_view<char>)::count_code_points)::{lambda(char const*, char const*)#1}::operator()(char const*, char const*) const
PUBLIC 428e0 0 fmt::v11::detail::write_int<fmt::v11::basic_appender<char>, unsigned long, char>(fmt::v11::basic_appender<char>, unsigned long, unsigned int, fmt::v11::format_specs const&, fmt::v11::detail::digit_grouping<char> const&)
PUBLIC 42e5c 0 fmt::v11::detail::write_int<fmt::v11::basic_appender<char>, unsigned __int128, char>(fmt::v11::basic_appender<char>, unsigned __int128, unsigned int, fmt::v11::format_specs const&, fmt::v11::detail::digit_grouping<char> const&)
PUBLIC 434e0 0 <.plt ELF section in hiimjustin000.search_history.android64.so>
STACK CFI INIT 1d350 10 .cfa: sp 0 +
STACK CFI INIT 1d360 8 .cfa: sp 0 +
STACK CFI INIT 1d368 8 .cfa: sp 0 +
STACK CFI INIT 1d370 14 .cfa: sp 0 +
STACK CFI INIT 1d384 1c .cfa: sp 0 +
STACK CFI INIT 1d3a0 10 .cfa: sp 0 +
STACK CFI INIT 1d3b0 134 .cfa: sp 0 +
STACK CFI INIT 1d4e4 84 .cfa: sp 0 +
STACK CFI INIT 1d568 f4 .cfa: sp 0 +
STACK CFI INIT 1d65c a8 .cfa: sp 0 +
STACK CFI INIT 1d704 7c .cfa: sp 0 +
STACK CFI INIT 1d780 14 .cfa: sp 0 +
STACK CFI INIT 1d794 40 .cfa: sp 0 +
STACK CFI INIT 1d7d4 28 .cfa: sp 0 +
STACK CFI INIT 1d7fc 190 .cfa: sp 0 +
STACK CFI INIT 1d98c 2c8 .cfa: sp 0 +
STACK CFI INIT 1dc54 8 .cfa: sp 0 +
STACK CFI INIT 1dc5c 8 .cfa: sp 0 +
STACK CFI INIT 1dc64 44 .cfa: sp 0 +
STACK CFI INIT 1dca8 e8 .cfa: sp 0 +
STACK CFI INIT 1dd90 e8 .cfa: sp 0 +
STACK CFI INIT 1de78 14 .cfa: sp 0 +
STACK CFI INIT 1de8c 10 .cfa: sp 0 +
STACK CFI INIT 1de9c 10 .cfa: sp 0 +
STACK CFI INIT 1deac f0 .cfa: sp 0 +
STACK CFI INIT 1df9c 44 .cfa: sp 0 +
STACK CFI INIT 1dfe0 c .cfa: sp 0 +
STACK CFI INIT 1dfec c .cfa: sp 0 +
STACK CFI INIT 1dff8 2c .cfa: sp 0 +
STACK CFI INIT 1e024 280 .cfa: sp 0 +
STACK CFI INIT 1e2a4 c .cfa: sp 0 +
STACK CFI INIT 1e2b0 120 .cfa: sp 0 +
STACK CFI INIT 1e3d0 488 .cfa: sp 0 +
STACK CFI INIT 1e858 c48 .cfa: sp 0 +
STACK CFI INIT 1f4a0 134 .cfa: sp 0 +
STACK CFI INIT 1f5d4 210 .cfa: sp 0 +
STACK CFI INIT 1f7e4 38c .cfa: sp 0 +
STACK CFI INIT 1fb70 1c8 .cfa: sp 0 +
STACK CFI INIT 1fd38 9bc .cfa: sp 0 +
STACK CFI INIT 206f4 2d4 .cfa: sp 0 +
STACK CFI INIT 209c8 134 .cfa: sp 0 +
STACK CFI INIT 20afc 120 .cfa: sp 0 +
STACK CFI INIT 20c1c 1c8 .cfa: sp 0 +
STACK CFI INIT 20de4 168 .cfa: sp 0 +
STACK CFI INIT 20f4c fc .cfa: sp 0 +
STACK CFI INIT 21048 30 .cfa: sp 0 +
STACK CFI INIT 211b0 30 .cfa: sp 0 +
STACK CFI INIT 211e0 98 .cfa: sp 0 +
STACK CFI INIT 21278 59c .cfa: sp 0 +
STACK CFI INIT 21814 8c .cfa: sp 0 +
STACK CFI INIT 218a0 30 .cfa: sp 0 +
STACK CFI INIT 224a4 18 .cfa: sp 0 +
STACK CFI INIT 22c0c 50 .cfa: sp 0 +
STACK CFI 22c10 .cfa: sp 32 +
STACK CFI 22c18 .cfa: x29 32 + x19: .cfa -16 + ^ .ra: .cfa -24 + ^ x29: .cfa -32 + ^
STACK CFI 22c30 .cfa: sp 32 +
STACK CFI 22c38 .cfa: sp 0 +
STACK CFI 22c3c .cfa: x29 32 +
STACK CFI 22c50 .cfa: sp 32 +
STACK CFI 22c58 .cfa: sp 0 +
STACK CFI INIT 22cd0 7c .cfa: sp 0 +
STACK CFI 22cd4 .cfa: sp 48 +
STACK CFI 22ce0 .cfa: x29 48 + x19: .cfa -8 + ^ x20: .cfa -16 + ^ x21: .cfa -32 + ^ .ra: .cfa -40 + ^ x29: .cfa -48 + ^
STACK CFI 22d2c .cfa: sp 48 +
STACK CFI 22d38 .cfa: sp 0 +
STACK CFI 22d3c .cfa: sp 48 +
STACK CFI 22d48 .cfa: sp 0 +
STACK CFI INIT 22d4c 4 .cfa: sp 0 +
STACK CFI INIT 22d50 10 .cfa: sp 0 +
STACK CFI 22d54 .cfa: sp 16 +
STACK CFI 22d58 .cfa: x29 16 + .ra: .cfa -8 + ^ x29: .cfa -16 + ^
STACK CFI INIT 22eb4 34 .cfa: sp 0 +
STACK CFI 22eb8 .cfa: sp 16 +
STACK CFI 22ebc .cfa: x29 16 + .ra: .cfa -8 + ^ x29: .cfa -16 + ^
STACK CFI INIT 23014 80 .cfa: sp 0 +
STACK CFI 23018 .cfa: sp 48 +
STACK CFI 23024 .cfa: x29 48 + x19: .cfa -8 + ^ x20: .cfa -16 + ^ x21: .cfa -32 + ^ .ra: .cfa -40 + ^ x29: .cfa -48 + ^
STACK CFI 23084 .cfa: sp 48 +
STACK CFI 23090 .cfa: sp 0 +
STACK CFI INIT 23094 24 .cfa: sp 0 +
STACK CFI 23098 .cfa: sp 32 +
STACK CFI 230a0 .cfa: x29 32 + x19: .cfa -16 + ^ .ra: .cfa -24 + ^ x29: .cfa -32 + ^
STACK CFI 230ac .cfa: sp 32 +
STACK CFI 230b4 .cfa: sp 0 +
STACK CFI INIT 23438 14 .cfa: sp 0 +
STACK CFI 2343c .cfa: sp 16 +
STACK CFI 23440 .cfa: x29 16 + .ra: .cfa -8 + ^ x29: .cfa -16 + ^
STACK CFI INIT 2349c 30 .cfa: sp 0 +
STACK CFI 234a0 .cfa: sp 32 +
STACK CFI 234a8 .cfa: x29 32 + x19: .cfa -16 + ^ .ra: .cfa -24 + ^ x29: .cfa -32 + ^
STACK CFI 234c0 .cfa: sp 32 +
STACK CFI 234c8 .cfa: sp 0 +
STACK CFI INIT 234cc 34 .cfa: sp 0 +
STACK CFI 234d0 .cfa: sp 32 +
STACK CFI 234d8 .cfa: x29 32 + x19: .cfa -16 + ^ .ra: .cfa -24 + ^ x29: .cfa -32 + ^
STACK CFI INIT 23678 148 .cfa: sp 0 +
STACK CFI 2367c .cfa: sp 48 +
STACK CFI 23688 .cfa: x29 48 + x19: .cfa -8 + ^ x20: .cfa -16 + ^ x21: .cfa -32 + ^ .ra: .cfa -40 + ^ x29: .cfa -48 + ^
STACK CFI 237b0 .cfa: sp 48 +
STACK CFI 237bc .cfa: sp 0 +
STACK CFI INIT 237c0 80 .cfa: sp 0 +
STACK CFI 237c4 .cfa: sp 48 +
STACK CFI 237d0 .cfa: x29 48 + x19: .cfa -8 + ^ x20: .cfa -16 + ^ x21: .cfa -24 + ^ x22: .cfa -32 + ^ .ra: .cfa -40 + ^ x29: .cfa -48 + ^
STACK CFI 237e8 .cfa: sp 48 +
STACK CFI 237f4 .cfa: sp 0 +
STACK CFI 237f8 .cfa: x29 48 +
STACK CFI 23828 .cfa: sp 48 +
STACK CFI 23834 .cfa: sp 0 +
STACK CFI 23838 .cfa: x29 48 +
STACK CFI INIT 23840 68 .cfa: sp 0 +
STACK CFI 23844 .cfa: sp 32 +
STACK CFI 2384c .cfa: x29 32 + x19: .cfa -8 + ^ x20: .cfa -16 + ^ .ra: .cfa -24 + ^ x29: .cfa -32 + ^
STACK CFI 23864 .cfa: sp 32 +
STACK CFI 2386c .cfa: sp 0 +
STACK CFI 23870 .cfa: x29 32 +
STACK CFI 2389c .cfa: sp 32 +
STACK CFI 238a4 .cfa: sp 0 +
STACK CFI INIT 238a8 14 .cfa: sp 0 +
STACK CFI 238ac .cfa: sp 16 +
STACK CFI 238b0 .cfa: x29 16 + .ra: .cfa -8 + ^ x29: .cfa -16 + ^
STACK CFI INIT 238bc 4 .cfa: sp 0 +
STACK CFI INIT 238c0 14 .cfa: sp 0 +
STACK CFI INIT 238d4 84 .cfa: sp 0 +
STACK CFI 238dc .cfa: sp 32 +
STACK CFI 238e4 .cfa: x29 32 + x19: .cfa -8 + ^ x20: .cfa -16 + ^ .ra: .cfa -24 + ^ x29: .cfa -32 + ^
STACK CFI 23924 .cfa: sp 32 +
STACK CFI 2392c .cfa: sp 0 +
STACK CFI 23934 .cfa: x29 32 +
STACK CFI INIT 23e90 50 .cfa: sp 0 +
STACK CFI 23e94 .cfa: sp 32 +
STACK CFI 23e9c .cfa: x29 32 + x19: .cfa -16 + ^ .ra: .cfa -24 + ^ x29: .cfa -32 + ^
STACK CFI 23eb4 .cfa: sp 32 +
STACK CFI 23ebc .cfa: sp 0 +
STACK CFI 23ec0 .cfa: x29 32 +
STACK CFI 23ed4 .cfa: sp 32 +
STACK CFI 23edc .cfa: sp 0 +
STACK CFI INIT 23ee0 64 .cfa: sp 0 +
STACK CFI 23ee4 .cfa: sp 32 +
STACK CFI 23eec .cfa: x29 32 + x19: .cfa -16 + ^ .ra: .cfa -24 + ^ x29: .cfa -32 + ^
STACK CFI 23f18 .cfa: sp 32 +
STACK CFI 23f20 .cfa: sp 0 +
STACK CFI 23f24 .cfa: x29 32 +
STACK CFI 23f38 .cfa: sp 32 +
STACK CFI 23f40 .cfa: sp 0 +
STACK CFI INIT 2415c 104 .cfa: sp 0 +
STACK CFI 24160 .cfa: sp 64 +
STACK CFI 24170 .cfa: x29 64 + x19: .cfa -8 + ^ x20: .cfa -16 + ^ x21: .cfa -24 + ^ x22: .cfa -32 + ^ x23: .cfa -48 + ^ .ra: .cfa -56 + ^ x29: .cfa -64 + ^
STACK CFI 241cc .cfa: sp 64 +
STACK CFI 241dc .cfa: sp 0 +
STACK CFI 241e0 .cfa: x29 64 +
STACK CFI 241fc .cfa: sp 64 +
STACK CFI 2420c .cfa: sp 0 +
STACK CFI 24210 .cfa: x29 64 +
STACK CFI 2424c .cfa: sp 64 +
STACK CFI 2425c .cfa: sp 0 +
STACK CFI INIT 24260 4 .cfa: sp 0 +
STACK CFI INIT 24264 4 .cfa: sp 0 +
STACK CFI INIT 24268 34 .cfa: sp 0 +
STACK CFI 2426c .cfa: sp 32 +
STACK CFI 24274 .cfa: x29 32 + x19: .cfa -16 + ^ .ra: .cfa -24 + ^ x29: .cfa -32 + ^
STACK CFI 24290 .cfa: sp 32 +
STACK CFI 24298 .cfa: sp 0 +
STACK CFI INIT 2429c 14 .cfa: sp 0 +
STACK CFI INIT 242b0 4 .cfa: sp 0 +
STACK CFI INIT 242b4 4 .cfa: sp 0 +
STACK CFI INIT 24724 1c .cfa: sp 0 +
STACK CFI INIT 24740 c .cfa: sp 0 +
STACK CFI INIT 2488c 168 .cfa: sp 0 +
STACK CFI 24890 .cfa: sp 80 +
STACK CFI 248a4 .cfa: x29 80 + x19: .cfa -8 + ^ x20: .cfa -16 + ^ x21: .cfa -24 + ^ x22: .cfa -32 + ^ x23: .cfa -40 + ^ x24: .cfa -48 + ^ x25: .cfa -56 + ^ x26: .cfa -64 + ^ .ra: .cfa -72 + ^ x29: .cfa -80 + ^
STACK CFI 249dc .cfa: sp 80 +
STACK CFI 249f0 .cfa: sp 0 +
STACK CFI INIT 249f4 1b0 .cfa: sp 0 +
STACK CFI INIT 27fec a8 .cfa: sp 0 +
STACK CFI 27ff0 .cfa: sp 48 +
STACK CFI 27ffc .cfa: x29 48 + x19: .cfa -8 + ^ x20: .cfa -16 + ^ x21: .cfa -32 + ^ .ra: .cfa -40 + ^ x29: .cfa -48 + ^
STACK CFI 2801c .cfa: sp 48 +
STACK CFI 28028 .cfa: sp 0 +
STACK CFI 2802c .cfa: x29 48 +
STACK CFI 28074 .cfa: sp 48 +
STACK CFI 28080 .cfa: sp 0 +
STACK CFI 28084 .cfa: sp 48 +
STACK CFI 28090 .cfa: sp 0 +
STACK CFI INIT 28094 54 .cfa: sp 0 +
STACK CFI 28098 .cfa: sp 32 +
STACK CFI 280a0 .cfa: x29 32 + x19: .cfa -16 + ^ .ra: .cfa -24 + ^ x29: .cfa -32 + ^
STACK CFI 280cc .cfa: sp 32 +
STACK CFI 280d4 .cfa: sp 0 +
STACK CFI 280d8 .cfa: x29 32 +
STACK CFI 280dc .cfa: sp 32 +
STACK CFI 280e4 .cfa: sp 0 +
STACK CFI INIT 283f0 14 .cfa: sp 0 +
STACK CFI 283f4 .cfa: sp 16 +
STACK CFI 283f8 .cfa: x29 16 + .ra: .cfa -8 + ^ x29: .cfa -16 + ^
STACK CFI INIT 28404 264 .cfa: sp 0 +
STACK CFI 2847c .cfa: sp 32 +
STACK CFI 28484 .cfa: x29 32 + x19: .cfa -8 + ^ x20: .cfa -16 + ^ .ra: .cfa -24 + ^ x29: .cfa -32 + ^
STACK CFI 284c8 .cfa: sp 0 + x19: x19 x20: x20 .ra: x30 x29: x29
STACK CFI 284d0 .cfa: x29 32 + x19: .cfa -8 + ^ x20: .cfa -16 + ^ .ra: .cfa -24 + ^ x29: .cfa -32 + ^
STACK CFI 2864c .cfa: sp 32 +
STACK CFI 28654 .cfa: sp 0 +
STACK CFI 28658 .cfa: x29 32 +
STACK CFI 2865c .cfa: sp 32 +
STACK CFI 28664 .cfa: sp 0 +
STACK CFI INIT 28668 100 .cfa: sp 0 +
STACK CFI 2866c .cfa: sp 48 +
STACK CFI 28678 .cfa: x29 48 + x19: .cfa -8 + ^ x20: .cfa -16 + ^ x21: .cfa -24 + ^ x22: .cfa -32 + ^ .ra: .cfa -40 + ^ x29: .cfa -48 + ^
STACK CFI 28758 .cfa: sp 48 +
STACK CFI 28764 .cfa: sp 0 +
STACK CFI INIT 28768 8c .cfa: sp 0 +
STACK CFI 2876c .cfa: sp 48 +
STACK CFI 28778 .cfa: x29 48 + x19: .cfa -8 + ^ x20: .cfa -16 + ^ x21: .cfa -32 + ^ .ra: .cfa -40 + ^ x29: .cfa -48 + ^
STACK CFI 287d4 .cfa: sp 48 +
STACK CFI 287e0 .cfa: sp 0 +
STACK CFI 287e4 .cfa: sp 48 +
STACK CFI 287f0 .cfa: sp 0 +
STACK CFI INIT 28984 ac .cfa: sp 0 +
STACK CFI 28988 .cfa: sp 64 +
STACK CFI 28998 .cfa: x29 64 + x19: .cfa -8 + ^ x20: .cfa -16 + ^ x21: .cfa -24 + ^ x22: .cfa -32 + ^ x23: .cfa -48 + ^ .ra: .cfa -56 + ^ x29: .cfa -64 + ^
STACK CFI 28a14 .cfa: sp 64 +
STACK CFI 28a24 .cfa: sp 0 +
STACK CFI 28a28 .cfa: x29 64 +
STACK CFI INIT 28a30 110 .cfa: sp 0 +
STACK CFI 28a34 .cfa: sp 64 +
STACK CFI 28a44 .cfa: x29 64 + x19: .cfa -8 + ^ x20: .cfa -16 + ^ x21: .cfa -24 + ^ x22: .cfa -32 + ^ x23: .cfa -40 + ^ x24: .cfa -48 + ^ .ra: .cfa -56 + ^ x29: .cfa -64 + ^
STACK CFI 28b24 .cfa: sp 64 +
STACK CFI 28b34 .cfa: sp 0 +
STACK CFI 28b38 .cfa: x29 64 +
STACK CFI INIT 28b40 130 .cfa: sp 0 +
STACK CFI 28b44 .cfa: sp 64 +
STACK CFI 28b54 .cfa: x29 64 + x19: .cfa -8 + ^ x20: .cfa -16 + ^ x21: .cfa -24 + ^ x22: .cfa -32 + ^ x23: .cfa -48 + ^ .ra: .cfa -56 + ^ x29: .cfa -64 + ^
STACK CFI 28c54 .cfa: sp 64 +
STACK CFI 28c64 .cfa: sp 0 +
STACK CFI 28c68 .cfa: x29 64 +
STACK CFI INIT 28c70 14 .cfa: sp 0 +
STACK CFI 28c74 .cfa: sp 16 +
STACK CFI 28c78 .cfa: x29 16 + .ra: .cfa -8 + ^ x29: .cfa -16 + ^
STACK CFI INIT 28c84 74 .cfa: sp 0 +
STACK CFI 28c94 .cfa: sp 32 +
STACK CFI 28c9c .cfa: x29 32 + x19: .cfa -8 + ^ x20: .cfa -16 + ^ .ra: .cfa -24 + ^ x29: .cfa -32 + ^
STACK CFI 28cec .cfa: sp 32 +
STACK CFI 28cf4 .cfa: sp 0 +
STACK CFI INIT 29118 4 .cfa: sp 0 +
STACK CFI INIT 2911c 14 .cfa: sp 0 +
STACK CFI INIT 29130 4 .cfa: sp 0 +
STACK CFI INIT 29134 14 .cfa: sp 0 +
STACK CFI INIT 29148 4 .cfa: sp 0 +
STACK CFI INIT 2914c 14 .cfa: sp 0 +
STACK CFI INIT 29160 14 .cfa: sp 0 +
STACK CFI INIT 29174 14 .cfa: sp 0 +
STACK CFI INIT 2940c 4 .cfa: sp 0 +
STACK CFI INIT 29410 14 .cfa: sp 0 +
STACK CFI INIT 2956c b8 .cfa: sp 0 +
STACK CFI 29570 .cfa: sp 48 +
STACK CFI 2957c .cfa: x29 48 + x19: .cfa -8 + ^ x20: .cfa -16 + ^ x21: .cfa -24 + ^ x22: .cfa -32 + ^ .ra: .cfa -40 + ^ x29: .cfa -48 + ^
STACK CFI 29584 .cfa: sp 48 +
STACK CFI 29590 .cfa: sp 0 +
STACK CFI 29594 .cfa: x29 48 +
STACK CFI 295b8 .cfa: sp 48 +
STACK CFI 295c4 .cfa: sp 0 +
STACK CFI 295c8 .cfa: x29 48 +
STACK CFI 29614 .cfa: sp 48 +
STACK CFI 29620 .cfa: sp 0 +
STACK CFI INIT 29624 a8 .cfa: sp 0 +
STACK CFI 29628 .cfa: sp 48 +
STACK CFI 29634 .cfa: x29 48 + x19: .cfa -8 + ^ x20: .cfa -16 + ^ x21: .cfa -32 + ^ .ra: .cfa -40 + ^ x29: .cfa -48 + ^
STACK CFI 29654 .cfa: sp 48 +
STACK CFI 29660 .cfa: sp 0 +
STACK CFI 29664 .cfa: x29 48 +
STACK CFI 296ac .cfa: sp 48 +
STACK CFI 296b8 .cfa: sp 0 +
STACK CFI 296bc .cfa: sp 48 +
STACK CFI 296c8 .cfa: sp 0 +
STACK CFI INIT 296cc 14 .cfa: sp 0 +
STACK CFI INIT 296e0 68 .cfa: sp 0 +
STACK CFI 296e4 .cfa: sp 48 +
STACK CFI 296f0 .cfa: x29 48 + x19: .cfa -8 + ^ x20: .cfa -16 + ^ x21: .cfa -32 + ^ .ra: .cfa -40 + ^ x29: .cfa -48 + ^
STACK CFI 29728 .cfa: sp 48 +
STACK CFI 29734 .cfa: sp 0 +
STACK CFI 29738 .cfa: sp 48 +
STACK CFI 29744 .cfa: sp 0 +
STACK CFI INIT 29748 54 .cfa: sp 0 +
STACK CFI 2974c .cfa: sp 32 +
STACK CFI 29754 .cfa: x29 32 + x19: .cfa -8 + ^ x20: .cfa -16 + ^ .ra: .cfa -24 + ^ x29: .cfa -32 + ^
STACK CFI 29784 .cfa: sp 32 +
STACK CFI 2978c .cfa: sp 0 +
STACK CFI 29790 .cfa: sp 32 +
STACK CFI 29798 .cfa: sp 0 +
STACK CFI INIT 2979c 14 .cfa: sp 0 +
STACK CFI 297a0 .cfa: sp 16 +
STACK CFI 297a4 .cfa: x29 16 + .ra: .cfa -8 + ^ x29: .cfa -16 + ^
STACK CFI INIT 297b0 7c .cfa: sp 0 +
STACK CFI 297b4 .cfa: sp 48 +
STACK CFI 297c0 .cfa: x29 48 + x19: .cfa -8 + ^ x20: .cfa -16 + ^ x21: .cfa -24 + ^ x22: .cfa -32 + ^ .ra: .cfa -40 + ^ x29: .cfa -48 + ^
STACK CFI 297c8 .cfa: sp 48 +
STACK CFI 297d4 .cfa: sp 0 +
STACK CFI 297d8 .cfa: x29 48 +
STACK CFI 2981c .cfa: sp 48 +
STACK CFI 29828 .cfa: sp 0 +
STACK CFI INIT 2b200 104 .cfa: sp 0 +
STACK CFI 2b204 .cfa: sp 64 +
STACK CFI 2b210 .cfa: x29 32 + x19: .cfa -8 + ^ x20: .cfa -16 + ^ .ra: .cfa -24 + ^ x29: .cfa -32 + ^
STACK CFI 2b2f0 .cfa: sp 64 +
STACK CFI 2b2fc .cfa: sp 0 +
STACK CFI 2b300 .cfa: x29 32 +
STACK CFI INIT 2b304 8 .cfa: sp 0 +
STACK CFI INIT 2b30c bc .cfa: sp 0 +
STACK CFI 2b310 .cfa: sp 32 +
STACK CFI 2b318 .cfa: x29 32 + x19: .cfa -16 + ^ .ra: .cfa -24 + ^ x29: .cfa -32 + ^
STACK CFI 2b3bc .cfa: sp 32 +
STACK CFI 2b3c4 .cfa: sp 0 +
STACK CFI INIT 2b3c8 c4 .cfa: sp 0 +
STACK CFI 2b3cc .cfa: sp 32 +
STACK CFI 2b3d4 .cfa: x29 32 + x19: .cfa -16 + ^ .ra: .cfa -24 + ^ x29: .cfa -32 + ^
STACK CFI 2b480 .cfa: sp 32 +
STACK CFI 2b488 .cfa: sp 0 +
STACK CFI INIT 2b924 70 .cfa: sp 0 +
STACK CFI 2b928 .cfa: sp 48 +
STACK CFI 2b934 .cfa: x29 32 + x19: .cfa -16 + ^ .ra: .cfa -24 + ^ x29: .cfa -32 + ^
STACK CFI 2b96c .cfa: sp 48 +
STACK CFI 2b978 .cfa: sp 0 +
STACK CFI 2b97c .cfa: x29 32 +
STACK CFI INIT 2b994 5c .cfa: sp 0 +
STACK CFI 2b998 .cfa: sp 32 +
STACK CFI 2b9a0 .cfa: x29 32 + x19: .cfa -16 + ^ .ra: .cfa -24 + ^ x29: .cfa -32 + ^
STACK CFI 2b9e4 .cfa: sp 32 +
STACK CFI 2b9ec .cfa: sp 0 +
STACK CFI INIT 2b9f0 64 .cfa: sp 0 +
STACK CFI 2b9f4 .cfa: sp 32 +
STACK CFI 2b9fc .cfa: x29 32 + x19: .cfa -16 + ^ .ra: .cfa -24 + ^ x29: .cfa -32 + ^
STACK CFI 2ba48 .cfa: sp 32 +
STACK CFI 2ba50 .cfa: sp 0 +
STACK CFI INIT 2ba54 4 .cfa: sp 0 +
STACK CFI INIT 2ba58 34 .cfa: sp 0 +
STACK CFI 2ba5c .cfa: sp 16 +
STACK CFI 2ba60 .cfa: x29 16 + .ra: .cfa -8 + ^ x29: .cfa -16 + ^
STACK CFI INIT 2ba8c 24 .cfa: sp 0 +
STACK CFI 2ba90 .cfa: sp 32 +
STACK CFI 2ba98 .cfa: x29 32 + x19: .cfa -16 + ^ .ra: .cfa -24 + ^ x29: .cfa -32 + ^
STACK CFI 2baa4 .cfa: sp 32 +
STACK CFI 2baac .cfa: sp 0 +
STACK CFI INIT 2bab0 104 .cfa: sp 0 +
STACK CFI 2bab4 .cfa: sp 80 +
STACK CFI 2bac8 .cfa: x29 80 + x19: .cfa -8 + ^ x20: .cfa -16 + ^ x21: .cfa -24 + ^ x22: .cfa -32 + ^ x23: .cfa -40 + ^ x24: .cfa -48 + ^ x25: .cfa -56 + ^ x26: .cfa -64 + ^ .ra: .cfa -72 + ^ x29: .cfa -80 + ^
STACK CFI 2bb94 .cfa: sp 80 +
STACK CFI 2bba8 .cfa: sp 0 +
STACK CFI 2bbac .cfa: x29 80 +
STACK CFI INIT 2bd4c 4 .cfa: sp 0 +
STACK CFI INIT 2bd50 34 .cfa: sp 0 +
STACK CFI 2bd54 .cfa: sp 32 +
STACK CFI 2bd5c .cfa: x29 32 + x19: .cfa -16 + ^ .ra: .cfa -24 + ^ x29: .cfa -32 + ^
STACK CFI 2bd78 .cfa: sp 32 +
STACK CFI 2bd80 .cfa: sp 0 +
STACK CFI INIT 2bd84 14 .cfa: sp 0 +
STACK CFI INIT 2bd98 4 .cfa: sp 0 +
STACK CFI INIT 2bd9c 4 .cfa: sp 0 +
STACK CFI INIT 2bf0c 1c .cfa: sp 0 +
STACK CFI INIT 2bf28 c .cfa: sp 0 +
STACK CFI INIT 2bf34 4 .cfa: sp 0 +
STACK CFI INIT 2bf38 4 .cfa: sp 0 +
STACK CFI INIT 2bf3c 34 .cfa: sp 0 +
STACK CFI 2bf40 .cfa: sp 32 +
STACK CFI 2bf48 .cfa: x29 32 + x19: .cfa -16 + ^ .ra: .cfa -24 + ^ x29: .cfa -32 + ^
STACK CFI 2bf64 .cfa: sp 32 +
STACK CFI 2bf6c .cfa: sp 0 +
STACK CFI INIT 2bf70 14 .cfa: sp 0 +
STACK CFI INIT 2bf84 4 .cfa: sp 0 +
STACK CFI INIT 2bf88 4 .cfa: sp 0 +
STACK CFI INIT 2bf8c 80 .cfa: sp 0 +
STACK CFI 2bf90 .cfa: sp 48 +
STACK CFI 2bf9c .cfa: x29 32 + x19: .cfa -16 + ^ .ra: .cfa -24 + ^ x29: .cfa -32 + ^
STACK CFI 2bfe4 .cfa: sp 48 +
STACK CFI 2bff0 .cfa: sp 0 +
STACK CFI 2bff4 .cfa: x29 32 +
STACK CFI INIT 2c00c 1c .cfa: sp 0 +
STACK CFI INIT 2c028 c .cfa: sp 0 +
STACK CFI INIT 2c034 4 .cfa: sp 0 +
STACK CFI INIT 2c038 4 .cfa: sp 0 +
STACK CFI INIT 2c03c 34 .cfa: sp 0 +
STACK CFI 2c040 .cfa: sp 32 +
STACK CFI 2c048 .cfa: x29 32 + x19: .cfa -16 + ^ .ra: .cfa -24 + ^ x29: .cfa -32 + ^
STACK CFI 2c064 .cfa: sp 32 +
STACK CFI 2c06c .cfa: sp 0 +
STACK CFI INIT 2c070 14 .cfa: sp 0 +
STACK CFI INIT 2c084 4 .cfa: sp 0 +
STACK CFI INIT 2c088 4 .cfa: sp 0 +
STACK CFI INIT 2c08c 28 .cfa: sp 0 +
STACK CFI 2c0ac .cfa: sp 16 +
STACK CFI 2c0b0 .cfa: x29 16 + .ra: .cfa -8 + ^ x29: .cfa -16 + ^
STACK CFI INIT 2c0b4 1c .cfa: sp 0 +
STACK CFI INIT 2c0d0 c .cfa: sp 0 +
STACK CFI INIT 2d414 2c .cfa: sp 0 +
STACK CFI 2d418 .cfa: sp 32 +
STACK CFI 2d420 .cfa: x29 32 + x19: .cfa -16 + ^ .ra: .cfa -24 + ^ x29: .cfa -32 + ^
STACK CFI 2d434 .cfa: sp 32 +
STACK CFI 2d43c .cfa: sp 0 +
STACK CFI INIT 2d440 28 .cfa: sp 0 +
STACK CFI INIT 2d468 4 .cfa: sp 0 +
STACK CFI INIT 2d46c 8 .cfa: sp 0 +
STACK CFI INIT 2d77c 2c .cfa: sp 0 +
STACK CFI INIT 2d7a8 4 .cfa: sp 0 +
STACK CFI INIT 2d7ac 4 .cfa: sp 0 +
STACK CFI INIT 2d7b0 4 .cfa: sp 0 +
STACK CFI INIT 2d7b4 4 .cfa: sp 0 +
STACK CFI INIT 2d7b8 4 .cfa: sp 0 +
STACK CFI INIT 2d7bc 8 .cfa: sp 0 +
STACK CFI INIT 2d830 4 .cfa: sp 0 +
STACK CFI INIT 2d8a0 4 .cfa: sp 0 +
STACK CFI INIT 2d8a4 314 .cfa: sp 0 +
STACK CFI 2d8a8 .cfa: sp 128 +
STACK CFI 2d8c0 .cfa: x29 64 + x19: .cfa -8 + ^ x20: .cfa -16 + ^ x21: .cfa -24 + ^ x22: .cfa -32 + ^ x23: .cfa -40 + ^ x24: .cfa -48 + ^ .ra: .cfa -56 + ^ x29: .cfa -64 + ^ v8: .cfa -72 + ^ v9: .cfa -80 + ^
STACK CFI 2dafc .cfa: sp 128 +
STACK CFI 2db14 .cfa: sp 0 +
STACK CFI 2db18 .cfa: x29 64 +
STACK CFI INIT 2dbb8 4 .cfa: sp 0 +
STACK CFI INIT 2dbbc 34 .cfa: sp 0 +
STACK CFI 2dbc0 .cfa: sp 32 +
STACK CFI 2dbc8 .cfa: x29 32 + x19: .cfa -16 + ^ .ra: .cfa -24 + ^ x29: .cfa -32 + ^
STACK CFI 2dbe4 .cfa: sp 32 +
STACK CFI 2dbec .cfa: sp 0 +
STACK CFI INIT 2dbf0 14 .cfa: sp 0 +
STACK CFI INIT 2dc04 4 .cfa: sp 0 +
STACK CFI INIT 2dc08 4 .cfa: sp 0 +
STACK CFI INIT 2dc0c 10 .cfa: sp 0 +
STACK CFI INIT 2dc1c 1c .cfa: sp 0 +
STACK CFI INIT 2dc38 c .cfa: sp 0 +
STACK CFI INIT 2dc44 4 .cfa: sp 0 +
STACK CFI INIT 2dc48 34 .cfa: sp 0 +
STACK CFI 2dc4c .cfa: sp 32 +
STACK CFI 2dc54 .cfa: x29 32 + x19: .cfa -16 + ^ .ra: .cfa -24 + ^ x29: .cfa -32 + ^
STACK CFI 2dc70 .cfa: sp 32 +
STACK CFI 2dc78 .cfa: sp 0 +
STACK CFI INIT 2dc7c 14 .cfa: sp 0 +
STACK CFI INIT 2dc90 4 .cfa: sp 0 +
STACK CFI INIT 2dc94 4 .cfa: sp 0 +
STACK CFI INIT 2dc98 10 .cfa: sp 0 +
STACK CFI INIT 2dca8 1c .cfa: sp 0 +
STACK CFI INIT 2dcc4 c .cfa: sp 0 +
STACK CFI INIT 2dcd0 4 .cfa: sp 0 +
STACK CFI INIT 2dcd4 34 .cfa: sp 0 +
STACK CFI 2dcd8 .cfa: sp 32 +
STACK CFI 2dce0 .cfa: x29 32 + x19: .cfa -16 + ^ .ra: .cfa -24 + ^ x29: .cfa -32 + ^
STACK CFI 2dcfc .cfa: sp 32 +
STACK CFI 2dd04 .cfa: sp 0 +
STACK CFI INIT 2dd08 14 .cfa: sp 0 +
STACK CFI INIT 2dd1c 4 .cfa: sp 0 +
STACK CFI INIT 2dd20 4 .cfa: sp 0 +
STACK CFI INIT 2de94 1c .cfa: sp 0 +
STACK CFI INIT 2deb0 c .cfa: sp 0 +
STACK CFI INIT 2debc 4 .cfa: sp 0 +
STACK CFI INIT 2dec0 34 .cfa: sp 0 +
STACK CFI 2dec4 .cfa: sp 32 +
STACK CFI 2decc .cfa: x29 32 + x19: .cfa -16 + ^ .ra: .cfa -24 + ^ x29: .cfa -32 + ^
STACK CFI 2dee8 .cfa: sp 32 +
STACK CFI 2def0 .cfa: sp 0 +
STACK CFI INIT 2def4 14 .cfa: sp 0 +
STACK CFI INIT 2df08 4 .cfa: sp 0 +
STACK CFI INIT 2df0c 4 .cfa: sp 0 +
STACK CFI INIT 2df10 34 .cfa: sp 0 +
STACK CFI 2df1c .cfa: sp 32 +
STACK CFI 2df24 .cfa: x29 32 + x19: .cfa -16 + ^ .ra: .cfa -24 + ^ x29: .cfa -32 + ^
STACK CFI 2df34 .cfa: sp 32 +
STACK CFI 2df3c .cfa: sp 0 +
STACK CFI INIT 2df44 1c .cfa: sp 0 +
STACK CFI INIT 2df60 c .cfa: sp 0 +
STACK CFI INIT 2df6c 4 .cfa: sp 0 +
STACK CFI INIT 2df70 4 .cfa: sp 0 +
STACK CFI INIT 2df74 34 .cfa: sp 0 +
STACK CFI 2df78 .cfa: sp 32 +
STACK CFI 2df80 .cfa: x29 32 + x19: .cfa -16 + ^ .ra: .cfa -24 + ^ x29: .cfa -32 + ^
STACK CFI 2df9c .cfa: sp 32 +
STACK CFI 2dfa4 .cfa: sp 0 +
STACK CFI INIT 2dfa8 14 .cfa: sp 0 +
STACK CFI INIT 2dfbc 4 .cfa: sp 0 +
STACK CFI INIT 2dfc0 4 .cfa: sp 0 +
STACK CFI INIT 2e07c 1c .cfa: sp 0 +
STACK CFI INIT 2e098 c .cfa: sp 0 +
STACK CFI INIT 2e0a4 60 .cfa: sp 0 +
STACK CFI 2e0a8 .cfa: sp 32 +
STACK CFI 2e0b0 .cfa: x29 32 + x19: .cfa -8 + ^ x20: .cfa -16 + ^ .ra: .cfa -24 + ^ x29: .cfa -32 + ^
STACK CFI 2e0d0 .cfa: sp 32 +
STACK CFI 2e0d8 .cfa: sp 0 +
STACK CFI 2e0dc .cfa: x29 32 +
STACK CFI 2e0f8 .cfa: sp 32 +
STACK CFI 2e100 .cfa: sp 0 +
STACK CFI INIT 2e104 70 .cfa: sp 0 +
STACK CFI 2e108 .cfa: sp 32 +
STACK CFI 2e110 .cfa: x29 32 + x19: .cfa -8 + ^ x20: .cfa -16 + ^ .ra: .cfa -24 + ^ x29: .cfa -32 + ^
STACK CFI 2e138 .cfa: sp 32 +
STACK CFI 2e140 .cfa: sp 0 +
STACK CFI 2e144 .cfa: x29 32 +
STACK CFI 2e168 .cfa: sp 32 +
STACK CFI 2e170 .cfa: sp 0 +
STACK CFI INIT 2e174 10 .cfa: sp 0 +
STACK CFI INIT 2e184 30 .cfa: sp 0 +
STACK CFI 2e188 .cfa: sp 32 +
STACK CFI 2e190 .cfa: x29 32 + x19: .cfa -16 + ^ .ra: .cfa -24 + ^ x29: .cfa -32 + ^
STACK CFI 2e1a8 .cfa: sp 32 +
STACK CFI 2e1b0 .cfa: sp 0 +
STACK CFI INIT 2e1b4 4 .cfa: sp 0 +
STACK CFI INIT 2e1b8 4 .cfa: sp 0 +
STACK CFI INIT 2e1bc 4 .cfa: sp 0 +
STACK CFI INIT 2e1c0 34 .cfa: sp 0 +
STACK CFI 2e1c4 .cfa: sp 32 +
STACK CFI 2e1cc .cfa: x29 32 + x19: .cfa -16 + ^ .ra: .cfa -24 + ^ x29: .cfa -32 + ^
STACK CFI 2e1e8 .cfa: sp 32 +
STACK CFI 2e1f0 .cfa: sp 0 +
STACK CFI INIT 2e1f4 14 .cfa: sp 0 +
STACK CFI INIT 2e208 4 .cfa: sp 0 +
STACK CFI INIT 2e20c 4 .cfa: sp 0 +
STACK CFI INIT 2e210 44 .cfa: sp 0 +
STACK CFI 2e214 .cfa: sp 32 +
STACK CFI 2e21c .cfa: x29 32 + x19: .cfa -16 + ^ .ra: .cfa -24 + ^ x29: .cfa -32 + ^
STACK CFI 2e244 .cfa: sp 32 +
STACK CFI 2e24c .cfa: sp 0 +
STACK CFI 2e250 .cfa: x29 32 +
STACK CFI INIT 2e254 1c .cfa: sp 0 +
STACK CFI INIT 2e270 c .cfa: sp 0 +
STACK CFI INIT 2e27c 4 .cfa: sp 0 +
STACK CFI INIT 2e280 4 .cfa: sp 0 +
STACK CFI INIT 2e284 34 .cfa: sp 0 +
STACK CFI 2e288 .cfa: sp 32 +
STACK CFI 2e290 .cfa: x29 32 + x19: .cfa -16 + ^ .ra: .cfa -24 + ^ x29: .cfa -32 + ^
STACK CFI 2e2ac .cfa: sp 32 +
STACK CFI 2e2b4 .cfa: sp 0 +
STACK CFI INIT 2e2b8 14 .cfa: sp 0 +
STACK CFI INIT 2e2cc 4 .cfa: sp 0 +
STACK CFI INIT 2e2d0 4 .cfa: sp 0 +
STACK CFI INIT 2e2d4 2c .cfa: sp 0 +
STACK CFI 2e2d8 .cfa: sp 32 +
STACK CFI 2e2e0 .cfa: x29 32 + x19: .cfa -16 + ^ .ra: .cfa -24 + ^ x29: .cfa -32 + ^
STACK CFI 2e2f4 .cfa: sp 32 +
STACK CFI 2e2fc .cfa: sp 0 +
STACK CFI INIT 2e300 1c .cfa: sp 0 +
STACK CFI INIT 2e31c c .cfa: sp 0 +
STACK CFI INIT 2e328 3c .cfa: sp 0 +
STACK CFI 2e32c .cfa: sp 32 +
STACK CFI 2e334 .cfa: x29 32 + x19: .cfa -16 + ^ .ra: .cfa -24 + ^ x29: .cfa -32 + ^
STACK CFI 2e340 .cfa: sp 32 +
STACK CFI 2e348 .cfa: sp 0 +
STACK CFI 2e34c .cfa: x29 32 +
STACK CFI 2e358 .cfa: sp 32 +
STACK CFI 2e360 .cfa: sp 0 +
STACK CFI INIT 2e680 64 .cfa: sp 0 +
STACK CFI 2e684 .cfa: sp 32 +
STACK CFI 2e68c .cfa: x29 32 + x19: .cfa -16 + ^ .ra: .cfa -24 + ^ x29: .cfa -32 + ^
STACK CFI 2e6b8 .cfa: sp 32 +
STACK CFI 2e6c0 .cfa: sp 0 +
STACK CFI 2e6c4 .cfa: x29 32 +
STACK CFI 2e6d8 .cfa: sp 32 +
STACK CFI 2e6e0 .cfa: sp 0 +
STACK CFI INIT 2e9ec 24 .cfa: sp 0 +
STACK CFI 2e9f0 .cfa: sp 32 +
STACK CFI 2e9f8 .cfa: x29 32 + x19: .cfa -16 + ^ .ra: .cfa -24 + ^ x29: .cfa -32 + ^
STACK CFI 2ea04 .cfa: sp 32 +
STACK CFI 2ea0c .cfa: sp 0 +
STACK CFI INIT 2ea10 8 .cfa: sp 0 +
STACK CFI INIT 2ea18 24 .cfa: sp 0 +
STACK CFI 2ea1c .cfa: sp 32 +
STACK CFI 2ea24 .cfa: x29 32 + x19: .cfa -16 + ^ .ra: .cfa -24 + ^ x29: .cfa -32 + ^
STACK CFI 2ea30 .cfa: sp 32 +
STACK CFI 2ea38 .cfa: sp 0 +
STACK CFI INIT 2ea3c 28 .cfa: sp 0 +
STACK CFI 2ea40 .cfa: sp 32 +
STACK CFI 2ea48 .cfa: x29 32 + x19: .cfa -16 + ^ .ra: .cfa -24 + ^ x29: .cfa -32 + ^
STACK CFI 2ea58 .cfa: sp 32 +
STACK CFI 2ea60 .cfa: sp 0 +
STACK CFI INIT 2ea64 24 .cfa: sp 0 +
STACK CFI 2ea68 .cfa: sp 32 +
STACK CFI 2ea70 .cfa: x29 32 + x19: .cfa -16 + ^ .ra: .cfa -24 + ^ x29: .cfa -32 + ^
STACK CFI 2ea7c .cfa: sp 32 +
STACK CFI 2ea84 .cfa: sp 0 +
STACK CFI INIT 2f0d4 8 .cfa: sp 0 +
STACK CFI INIT 2f0dc 24 .cfa: sp 0 +
STACK CFI 2f0e0 .cfa: sp 32 +
STACK CFI 2f0e8 .cfa: x29 32 + x19: .cfa -16 + ^ .ra: .cfa -24 + ^ x29: .cfa -32 + ^
STACK CFI 2f0f4 .cfa: sp 32 +
STACK CFI 2f0fc .cfa: sp 0 +
STACK CFI INIT 2f100 28 .cfa: sp 0 +
STACK CFI 2f104 .cfa: sp 32 +
STACK CFI 2f10c .cfa: x29 32 + x19: .cfa -16 + ^ .ra: .cfa -24 + ^ x29: .cfa -32 + ^
STACK CFI 2f11c .cfa: sp 32 +
STACK CFI 2f124 .cfa: sp 0 +
STACK CFI INIT 2f128 8 .cfa: sp 0 +
STACK CFI INIT 2f130 24 .cfa: sp 0 +
STACK CFI 2f134 .cfa: sp 32 +
STACK CFI 2f13c .cfa: x29 32 + x19: .cfa -16 + ^ .ra: .cfa -24 + ^ x29: .cfa -32 + ^
STACK CFI 2f148 .cfa: sp 32 +
STACK CFI 2f150 .cfa: sp 0 +
STACK CFI INIT 2f154 28 .cfa: sp 0 +
STACK CFI 2f158 .cfa: sp 32 +
STACK CFI 2f160 .cfa: x29 32 + x19: .cfa -16 + ^ .ra: .cfa -24 + ^ x29: .cfa -32 + ^
STACK CFI 2f170 .cfa: sp 32 +
STACK CFI 2f178 .cfa: sp 0 +
STACK CFI INIT 2f374 8 .cfa: sp 0 +
STACK CFI INIT 2f37c 24 .cfa: sp 0 +
STACK CFI 2f380 .cfa: sp 32 +
STACK CFI 2f388 .cfa: x29 32 + x19: .cfa -16 + ^ .ra: .cfa -24 + ^ x29: .cfa -32 + ^
STACK CFI 2f394 .cfa: sp 32 +
STACK CFI 2f39c .cfa: sp 0 +
STACK CFI INIT 2f3a0 28 .cfa: sp 0 +
STACK CFI 2f3a4 .cfa: sp 32 +
STACK CFI 2f3ac .cfa: x29 32 + x19: .cfa -16 + ^ .ra: .cfa -24 + ^ x29: .cfa -32 + ^
STACK CFI 2f3bc .cfa: sp 32 +
STACK CFI 2f3c4 .cfa: sp 0 +
STACK CFI INIT 30560 4 .cfa: sp 0 +
STACK CFI INIT 30564 14 .cfa: sp 0 +
STACK CFI INIT 30a58 110 .cfa: sp 0 +
STACK CFI INIT 30b68 134 .cfa: sp 0 +
STACK CFI INIT 30c9c c .cfa: sp 0 +
STACK CFI INIT 30ca8 24c .cfa: sp 0 +
STACK CFI INIT 30ef4 a0 .cfa: sp 0 +
STACK CFI 30f00 .cfa: sp 32 +
STACK CFI 30f58 .cfa: sp 0 +
STACK CFI 30f5c .cfa: sp 32 +
STACK CFI 30f64 .cfa: sp 0 +
STACK CFI 30f68 .cfa: sp 32 +
STACK CFI 30f7c .cfa: sp 0 +
STACK CFI 30f80 .cfa: sp 32 +
STACK CFI 30f90 .cfa: sp 0 +
STACK CFI INIT 30f94 38 .cfa: sp 0 +
STACK CFI 30fa0 .cfa: sp 32 +
STACK CFI 30fc8 .cfa: sp 0 +
STACK CFI INIT 31260 7c .cfa: sp 0 +
STACK CFI 31264 .cfa: sp 32 +
STACK CFI 3126c .cfa: x29 32 + x19: .cfa -16 + ^ .ra: .cfa -24 + ^ x29: .cfa -32 + ^
STACK CFI 31298 .cfa: sp 32 +
STACK CFI 312a0 .cfa: sp 0 +
STACK CFI 312a4 .cfa: x29 32 +
STACK CFI 312d0 .cfa: sp 32 +
STACK CFI 312d8 .cfa: sp 0 +
STACK CFI INIT 3132c 2c .cfa: sp 0 +
STACK CFI 31330 .cfa: sp 32 +
STACK CFI 31338 .cfa: x29 32 + x19: .cfa -16 + ^ .ra: .cfa -24 + ^ x29: .cfa -32 + ^
STACK CFI 3134c .cfa: sp 32 +
STACK CFI 31354 .cfa: sp 0 +
STACK CFI INIT 31b18 64 .cfa: sp 0 +
STACK CFI 31b1c .cfa: sp 32 +
STACK CFI 31b24 .cfa: x29 32 + x19: .cfa -16 + ^ .ra: .cfa -24 + ^ x29: .cfa -32 + ^
STACK CFI 31b40 .cfa: sp 32 +
STACK CFI 31b48 .cfa: sp 0 +
STACK CFI 31b4c .cfa: x29 32 +
STACK CFI 31b70 .cfa: sp 32 +
STACK CFI 31b78 .cfa: sp 0 +
STACK CFI INIT 31b7c 570 .cfa: sp 0 +
STACK CFI 31b80 .cfa: sp 176 +
STACK CFI 31b94 .cfa: x29 64 + x19: .cfa -8 + ^ x20: .cfa -16 + ^ x21: .cfa -24 + ^ x22: .cfa -32 + ^ x23: .cfa -40 + ^ x24: .cfa -48 + ^ .ra: .cfa -56 + ^ x29: .cfa -64 + ^
STACK CFI 31dc4 .cfa: sp 176 +
STACK CFI 31dd8 .cfa: sp 0 +
STACK CFI 31ddc .cfa: x29 64 +
STACK CFI 31e28 .cfa: sp 176 +
STACK CFI 31e3c .cfa: sp 0 +
STACK CFI 31e40 .cfa: x29 64 +
STACK CFI 31e78 .cfa: sp 176 +
STACK CFI 31e8c .cfa: sp 0 +
STACK CFI 31e90 .cfa: x29 64 +
STACK CFI 31ea8 .cfa: sp 176 +
STACK CFI 31ebc .cfa: sp 0 +
STACK CFI 31ec0 .cfa: x29 64 +
STACK CFI 31ee0 .cfa: sp 176 +
STACK CFI 31ef4 .cfa: sp 0 +
STACK CFI 31ef8 .cfa: x29 64 +
STACK CFI 31f10 .cfa: sp 176 +
STACK CFI 31f24 .cfa: sp 0 +
STACK CFI 31f28 .cfa: x29 64 +
STACK CFI 31f3c .cfa: sp 176 +
STACK CFI 31f50 .cfa: sp 0 +
STACK CFI 31f54 .cfa: x29 64 +
STACK CFI 31f68 .cfa: sp 176 +
STACK CFI 31f7c .cfa: sp 0 +
STACK CFI 31f80 .cfa: x29 64 +
STACK CFI 31f90 .cfa: sp 176 +
STACK CFI 31fa4 .cfa: sp 0 +
STACK CFI 31fa8 .cfa: x29 64 +
STACK CFI 31fb8 .cfa: sp 176 +
STACK CFI 31fcc .cfa: sp 0 +
STACK CFI 31fd0 .cfa: x29 64 +
STACK CFI 31fe8 .cfa: sp 176 +
STACK CFI 31ffc .cfa: sp 0 +
STACK CFI 32000 .cfa: x29 64 +
STACK CFI 32014 .cfa: sp 176 +
STACK CFI 32028 .cfa: sp 0 +
STACK CFI 3202c .cfa: x29 64 +
STACK CFI 32044 .cfa: sp 176 +
STACK CFI 32058 .cfa: sp 0 +
STACK CFI 3205c .cfa: x29 64 +
STACK CFI 32088 .cfa: sp 176 +
STACK CFI 3209c .cfa: sp 0 +
STACK CFI 320a0 .cfa: x29 64 +
STACK CFI 320b4 .cfa: sp 176 +
STACK CFI 320c8 .cfa: sp 0 +
STACK CFI 320cc .cfa: x29 64 +
STACK CFI INIT 320ec 228 .cfa: sp 0 +
STACK CFI INIT 32314 2dc .cfa: sp 0 +
STACK CFI INIT 325f0 53c .cfa: sp 0 +
STACK CFI INIT 32b2c 78 .cfa: sp 0 +
STACK CFI 32b30 .cfa: sp 48 +
STACK CFI 32b3c .cfa: x29 48 + x19: .cfa -8 + ^ x20: .cfa -16 + ^ x21: .cfa -24 + ^ x22: .cfa -32 + ^ .ra: .cfa -40 + ^ x29: .cfa -48 + ^
STACK CFI 32b84 .cfa: sp 48 +
STACK CFI 32b90 .cfa: sp 0 +
STACK CFI 32b94 .cfa: sp 48 +
STACK CFI 32ba0 .cfa: sp 0 +
STACK CFI INIT 32ba4 8c .cfa: sp 0 +
STACK CFI 32ba8 .cfa: sp 32 +
STACK CFI 32bb0 .cfa: x29 32 + x19: .cfa -16 + ^ .ra: .cfa -24 + ^ x29: .cfa -32 + ^
STACK CFI 32be4 .cfa: sp 32 +
STACK CFI 32bec .cfa: sp 0 +
STACK CFI 32bf0 .cfa: x29 32 +
STACK CFI 32c24 .cfa: sp 32 +
STACK CFI 32c2c .cfa: sp 0 +
STACK CFI INIT 32c30 24 .cfa: sp 0 +
STACK CFI 32c34 .cfa: sp 32 +
STACK CFI 32c3c .cfa: x29 32 + x19: .cfa -16 + ^ .ra: .cfa -24 + ^ x29: .cfa -32 + ^
STACK CFI 32c48 .cfa: sp 32 +
STACK CFI 32c50 .cfa: sp 0 +
STACK CFI INIT 32c54 150 .cfa: sp 0 +
STACK CFI 32c58 .cfa: sp 48 +
STACK CFI 32c64 .cfa: x29 48 + x19: .cfa -8 + ^ x20: .cfa -16 + ^ x21: .cfa -24 + ^ x22: .cfa -32 + ^ .ra: .cfa -40 + ^ x29: .cfa -48 + ^
STACK CFI 32d94 .cfa: sp 48 +
STACK CFI 32da0 .cfa: sp 0 +
STACK CFI INIT 32da4 68 .cfa: sp 0 +
STACK CFI 32da8 .cfa: sp 64 +
STACK CFI 32db4 .cfa: x29 32 + x19: .cfa -16 + ^ .ra: .cfa -24 + ^ x29: .cfa -32 + ^
STACK CFI 32df8 .cfa: sp 64 +
STACK CFI 32e04 .cfa: sp 0 +
STACK CFI 32e08 .cfa: x29 32 +
STACK CFI INIT 32e0c 90 .cfa: sp 0 +
STACK CFI 32e10 .cfa: sp 32 +
STACK CFI 32e18 .cfa: x29 32 + x19: .cfa -8 + ^ x20: .cfa -16 + ^ .ra: .cfa -24 + ^ x29: .cfa -32 + ^
STACK CFI 32e44 .cfa: sp 32 +
STACK CFI 32e4c .cfa: sp 0 +
STACK CFI 32e50 .cfa: x29 32 +
STACK CFI 32e90 .cfa: sp 32 +
STACK CFI 32e98 .cfa: sp 0 +
STACK CFI INIT 32e9c ec .cfa: sp 0 +
STACK CFI 32ea0 .cfa: sp 112 +
STACK CFI 32eb0 .cfa: x29 48 + x19: .cfa -8 + ^ x20: .cfa -16 + ^ x21: .cfa -32 + ^ .ra: .cfa -40 + ^ x29: .cfa -48 + ^
STACK CFI 32f70 .cfa: sp 112 +
STACK CFI 32f80 .cfa: sp 0 +
STACK CFI 32f84 .cfa: x29 48 +
STACK CFI INIT 32f88 ec .cfa: sp 0 +
STACK CFI 32f8c .cfa: sp 112 +
STACK CFI 32f9c .cfa: x29 48 + x19: .cfa -8 + ^ x20: .cfa -16 + ^ x21: .cfa -32 + ^ .ra: .cfa -40 + ^ x29: .cfa -48 + ^
STACK CFI 3305c .cfa: sp 112 +
STACK CFI 3306c .cfa: sp 0 +
STACK CFI 33070 .cfa: x29 48 +
STACK CFI INIT 33074 48 .cfa: sp 0 +
STACK CFI 33078 .cfa: sp 32 +
STACK CFI 33080 .cfa: x29 32 + x19: .cfa -8 + ^ x20: .cfa -16 + ^ .ra: .cfa -24 + ^ x29: .cfa -32 + ^
STACK CFI 330a4 .cfa: sp 32 +
STACK CFI 330ac .cfa: sp 0 +
STACK CFI 330b0 .cfa: x29 32 +
STACK CFI INIT 330bc 98 .cfa: sp 0 +
STACK CFI 330c0 .cfa: sp 80 +
STACK CFI 330cc .cfa: x29 32 + x19: .cfa -16 + ^ .ra: .cfa -24 + ^ x29: .cfa -32 + ^
STACK CFI 33140 .cfa: sp 80 +
STACK CFI 3314c .cfa: sp 0 +
STACK CFI 33150 .cfa: x29 32 +
STACK CFI INIT 33154 260 .cfa: sp 0 +
STACK CFI 33158 .cfa: sp 112 +
STACK CFI 33170 .cfa: x29 80 + x19: .cfa -8 + ^ x20: .cfa -16 + ^ x21: .cfa -24 + ^ x22: .cfa -32 + ^ x23: .cfa -40 + ^ x24: .cfa -48 + ^ x25: .cfa -64 + ^ .ra: .cfa -72 + ^ x29: .cfa -80 + ^
STACK CFI 33354 .cfa: sp 112 +
STACK CFI 3336c .cfa: sp 0 +
STACK CFI 33370 .cfa: x29 80 +
STACK CFI INIT 333b4 150 .cfa: sp 0 +
STACK CFI 333b8 .cfa: sp 48 +
STACK CFI 333c4 .cfa: x29 48 + x19: .cfa -8 + ^ x20: .cfa -16 + ^ x21: .cfa -24 + ^ x22: .cfa -32 + ^ .ra: .cfa -40 + ^ x29: .cfa -48 + ^
STACK CFI 334f4 .cfa: sp 48 +
STACK CFI 33500 .cfa: sp 0 +
STACK CFI INIT 33504 1e0 .cfa: sp 0 +
STACK CFI 33508 .cfa: sp 96 +
STACK CFI 3351c .cfa: x29 64 + x19: .cfa -8 + ^ x20: .cfa -16 + ^ x21: .cfa -24 + ^ x22: .cfa -32 + ^ x23: .cfa -40 + ^ x24: .cfa -48 + ^ .ra: .cfa -56 + ^ x29: .cfa -64 + ^
STACK CFI 3369c .cfa: sp 96 +
STACK CFI 336b0 .cfa: sp 0 +
STACK CFI 336b4 .cfa: x29 64 +
STACK CFI INIT 336e4 284 .cfa: sp 0 +
STACK CFI 336e8 .cfa: sp 112 +
STACK CFI 33700 .cfa: x29 80 + x19: .cfa -8 + ^ x20: .cfa -16 + ^ x21: .cfa -24 + ^ x22: .cfa -32 + ^ x23: .cfa -40 + ^ x24: .cfa -48 + ^ x25: .cfa -64 + ^ .ra: .cfa -72 + ^ x29: .cfa -80 + ^
STACK CFI 33908 .cfa: sp 112 +
STACK CFI 33920 .cfa: sp 0 +
STACK CFI 33924 .cfa: x29 80 +
STACK CFI INIT 33968 208 .cfa: sp 0 +
STACK CFI 3396c .cfa: sp 96 +
STACK CFI 33980 .cfa: x29 64 + x19: .cfa -8 + ^ x20: .cfa -16 + ^ x21: .cfa -24 + ^ x22: .cfa -32 + ^ x23: .cfa -40 + ^ x24: .cfa -48 + ^ .ra: .cfa -56 + ^ x29: .cfa -64 + ^
STACK CFI 33b28 .cfa: sp 96 +
STACK CFI 33b3c .cfa: sp 0 +
STACK CFI 33b40 .cfa: x29 64 +
STACK CFI INIT 33b70 360 .cfa: sp 0 +
STACK CFI 33b74 .cfa: sp 160 +
STACK CFI 33b90 .cfa: x29 96 + x19: .cfa -8 + ^ x20: .cfa -16 + ^ x21: .cfa -24 + ^ x22: .cfa -32 + ^ x23: .cfa -40 + ^ x24: .cfa -48 + ^ x25: .cfa -56 + ^ x26: .cfa -64 + ^ x27: .cfa -72 + ^ x28: .cfa -80 + ^ .ra: .cfa -88 + ^ x29: .cfa -96 + ^
STACK CFI 33e5c .cfa: sp 160 +
STACK CFI 33e78 .cfa: sp 0 +
STACK CFI 33e7c .cfa: x29 96 +
STACK CFI INIT 33ed0 314 .cfa: sp 0 +
STACK CFI 33ed4 .cfa: sp 144 +
STACK CFI 33ef0 .cfa: x29 96 + x19: .cfa -8 + ^ x20: .cfa -16 + ^ x21: .cfa -24 + ^ x22: .cfa -32 + ^ x23: .cfa -40 + ^ x24: .cfa -48 + ^ x25: .cfa -56 + ^ x26: .cfa -64 + ^ x27: .cfa -72 + ^ x28: .cfa -80 + ^ .ra: .cfa -88 + ^ x29: .cfa -96 + ^
STACK CFI 3416c .cfa: sp 144 +
STACK CFI 34188 .cfa: sp 0 +
STACK CFI 3418c .cfa: x29 96 +
STACK CFI INIT 341e4 290 .cfa: sp 0 +
STACK CFI 341e8 .cfa: sp 128 +
STACK CFI 34200 .cfa: x29 80 + x19: .cfa -8 + ^ x20: .cfa -16 + ^ x21: .cfa -24 + ^ x22: .cfa -32 + ^ x23: .cfa -40 + ^ x24: .cfa -48 + ^ x25: .cfa -56 + ^ x26: .cfa -64 + ^ .ra: .cfa -72 + ^ x29: .cfa -80 + ^
STACK CFI 34454 .cfa: sp 128 +
STACK CFI 3446c .cfa: sp 0 +
STACK CFI 34470 .cfa: x29 80 +
STACK CFI INIT 34474 ddc .cfa: sp 0 +
STACK CFI 34478 .cfa: sp 144 +
STACK CFI 34494 .cfa: x29 96 + x19: .cfa -8 + ^ x20: .cfa -16 + ^ x21: .cfa -24 + ^ x22: .cfa -32 + ^ x23: .cfa -40 + ^ x24: .cfa -48 + ^ x25: .cfa -56 + ^ x26: .cfa -64 + ^ x27: .cfa -72 + ^ x28: .cfa -80 + ^ .ra: .cfa -88 + ^ x29: .cfa -96 + ^
STACK CFI 35128 .cfa: sp 144 +
STACK CFI 35144 .cfa: sp 0 +
STACK CFI 35148 .cfa: x29 96 +
STACK CFI INIT 35250 1d0 .cfa: sp 0 +
STACK CFI 35254 .cfa: sp 80 +
STACK CFI 35268 .cfa: x29 80 + x19: .cfa -8 + ^ x20: .cfa -16 + ^ x21: .cfa -24 + ^ x22: .cfa -32 + ^ x23: .cfa -40 + ^ x24: .cfa -48 + ^ x25: .cfa -64 + ^ .ra: .cfa -72 + ^ x29: .cfa -80 + ^
STACK CFI 35408 .cfa: sp 80 +
STACK CFI 3541c .cfa: sp 0 +
STACK CFI INIT 35420 23c .cfa: sp 0 +
STACK CFI 35424 .cfa: sp 112 +
STACK CFI 35438 .cfa: x29 64 + x19: .cfa -8 + ^ x20: .cfa -16 + ^ x21: .cfa -24 + ^ x22: .cfa -32 + ^ x23: .cfa -40 + ^ x24: .cfa -48 + ^ .ra: .cfa -56 + ^ x29: .cfa -64 + ^
STACK CFI 35614 .cfa: sp 112 +
STACK CFI 35628 .cfa: sp 0 +
STACK CFI 3562c .cfa: x29 64 +
STACK CFI INIT 3565c 30c .cfa: sp 0 +
STACK CFI 35660 .cfa: sp 80 +
STACK CFI 35674 .cfa: x29 64 + x19: .cfa -8 + ^ x20: .cfa -16 + ^ x21: .cfa -24 + ^ x22: .cfa -32 + ^ x23: .cfa -40 + ^ x24: .cfa -48 + ^ .ra: .cfa -56 + ^ x29: .cfa -64 + ^
STACK CFI 357f0 .cfa: sp 80 +
STACK CFI 35804 .cfa: sp 0 +
STACK CFI 35808 .cfa: x29 64 +
STACK CFI INIT 35968 178 .cfa: sp 0 +
STACK CFI 3596c .cfa: sp 80 +
STACK CFI 35980 .cfa: x29 64 + x19: .cfa -8 + ^ x20: .cfa -16 + ^ x21: .cfa -24 + ^ x22: .cfa -32 + ^ x23: .cfa -40 + ^ x24: .cfa -48 + ^ .ra: .cfa -56 + ^ x29: .cfa -64 + ^
STACK CFI 35ac4 .cfa: sp 80 +
STACK CFI 35ad8 .cfa: sp 0 +
STACK CFI 35adc .cfa: x29 64 +
STACK CFI INIT 35ae0 178 .cfa: sp 0 +
STACK CFI 35ae4 .cfa: sp 80 +
STACK CFI 35af8 .cfa: x29 64 + x19: .cfa -8 + ^ x20: .cfa -16 + ^ x21: .cfa -24 + ^ x22: .cfa -32 + ^ x23: .cfa -40 + ^ x24: .cfa -48 + ^ .ra: .cfa -56 + ^ x29: .cfa -64 + ^
STACK CFI 35c3c .cfa: sp 80 +
STACK CFI 35c50 .cfa: sp 0 +
STACK CFI 35c54 .cfa: x29 64 +
STACK CFI INIT 35c58 240 .cfa: sp 0 +
STACK CFI 35c5c .cfa: sp 96 +
STACK CFI 35c74 .cfa: x29 96 + x19: .cfa -8 + ^ x20: .cfa -16 + ^ x21: .cfa -24 + ^ x22: .cfa -32 + ^ x23: .cfa -40 + ^ x24: .cfa -48 + ^ x25: .cfa -56 + ^ x26: .cfa -64 + ^ x27: .cfa -72 + ^ x28: .cfa -80 + ^ .ra: .cfa -88 + ^ x29: .cfa -96 + ^
STACK CFI 35e7c .cfa: sp 96 +
STACK CFI 35e94 .cfa: sp 0 +
STACK CFI INIT 36b0c 154 .cfa: sp 0 +
STACK CFI 36b10 .cfa: sp 96 +
STACK CFI 36b24 .cfa: x29 64 + x19: .cfa -8 + ^ x20: .cfa -16 + ^ x21: .cfa -24 + ^ x22: .cfa -32 + ^ x23: .cfa -48 + ^ .ra: .cfa -56 + ^ x29: .cfa -64 + ^
STACK CFI 36c04 .cfa: sp 96 +
STACK CFI 36c18 .cfa: sp 0 +
STACK CFI 36c1c .cfa: x29 64 +
STACK CFI INIT 36ecc 44 .cfa: sp 0 +
STACK CFI 36ed0 .cfa: sp 32 +
STACK CFI 36ed8 .cfa: x29 32 + x19: .cfa -16 + ^ .ra: .cfa -24 + ^ x29: .cfa -32 + ^
STACK CFI 36ef4 .cfa: sp 32 +
STACK CFI 36efc .cfa: sp 0 +
STACK CFI 36f00 .cfa: x29 32 +
STACK CFI 36f04 .cfa: sp 32 +
STACK CFI 36f0c .cfa: sp 0 +
STACK CFI INIT 36f10 1d0 .cfa: sp 0 +
STACK CFI 36f14 .cfa: sp 64 +
STACK CFI 36f24 .cfa: x29 64 + x19: .cfa -8 + ^ x20: .cfa -16 + ^ x21: .cfa -24 + ^ x22: .cfa -32 + ^ x23: .cfa -40 + ^ x24: .cfa -48 + ^ .ra: .cfa -56 + ^ x29: .cfa -64 + ^
STACK CFI 36fe4 .cfa: sp 64 +
STACK CFI 36ff4 .cfa: sp 0 +
STACK CFI 36ff8 .cfa: x29 64 +
STACK CFI INIT 370e0 17c .cfa: sp 0 +
STACK CFI INIT 37614 a0 .cfa: sp 0 +
STACK CFI 37618 .cfa: sp 48 +
STACK CFI 37624 .cfa: x29 48 + x19: .cfa -8 + ^ x20: .cfa -16 + ^ x21: .cfa -24 + ^ x22: .cfa -32 + ^ .ra: .cfa -40 + ^ x29: .cfa -48 + ^
STACK CFI 37690 .cfa: sp 48 +
STACK CFI 3769c .cfa: sp 0 +
STACK CFI 376a0 .cfa: sp 48 +
STACK CFI 376ac .cfa: sp 0 +
STACK CFI 376b0 .cfa: x29 48 +
STACK CFI INIT 38368 158 .cfa: sp 0 +
STACK CFI 3836c .cfa: sp 96 +
STACK CFI 38380 .cfa: x29 64 + x19: .cfa -8 + ^ x20: .cfa -16 + ^ x21: .cfa -24 + ^ x22: .cfa -32 + ^ x23: .cfa -48 + ^ .ra: .cfa -56 + ^ x29: .cfa -64 + ^
STACK CFI 38464 .cfa: sp 96 +
STACK CFI 38478 .cfa: sp 0 +
STACK CFI 3847c .cfa: x29 64 +
STACK CFI INIT 384c0 190 .cfa: sp 0 +
STACK CFI INIT 3914c 1dc .cfa: sp 0 +
STACK CFI 39150 .cfa: sp 80 +
STACK CFI 39164 .cfa: x29 80 + x19: .cfa -8 + ^ x20: .cfa -16 + ^ x21: .cfa -24 + ^ x22: .cfa -32 + ^ x23: .cfa -40 + ^ x24: .cfa -48 + ^ x25: .cfa -64 + ^ .ra: .cfa -72 + ^ x29: .cfa -80 + ^
STACK CFI 39310 .cfa: sp 80 +
STACK CFI 39324 .cfa: sp 0 +
STACK CFI INIT 3a758 124 .cfa: sp 0 +
STACK CFI 3a788 .cfa: sp 32 +
STACK CFI 3a790 .cfa: x29 32 + x19: .cfa -8 + ^ x20: .cfa -16 + ^ .ra: .cfa -24 + ^ x29: .cfa -32 + ^
STACK CFI 3a870 .cfa: sp 32 +
STACK CFI 3a878 .cfa: sp 0 +
STACK CFI INIT 3afd8 320 .cfa: sp 0 +
STACK CFI 3afdc .cfa: sp 64 +
STACK CFI 3afec .cfa: x29 64 + x19: .cfa -8 + ^ x20: .cfa -16 + ^ x21: .cfa -24 + ^ x22: .cfa -32 + ^ x23: .cfa -40 + ^ x24: .cfa -48 + ^ .ra: .cfa -56 + ^ x29: .cfa -64 + ^
STACK CFI 3b068 .cfa: sp 64 +
STACK CFI 3b078 .cfa: sp 0 +
STACK CFI 3b07c .cfa: x29 64 +
STACK CFI 3b250 .cfa: sp 64 +
STACK CFI 3b260 .cfa: sp 0 +
STACK CFI 3b264 .cfa: x29 64 +
STACK CFI 3b274 .cfa: sp 64 +
STACK CFI 3b284 .cfa: sp 0 +
STACK CFI 3b288 .cfa: x29 64 +
STACK CFI INIT 3b2f8 a0 .cfa: sp 0 +
STACK CFI 3b2fc .cfa: sp 48 +
STACK CFI 3b308 .cfa: x29 48 + x19: .cfa -8 + ^ x20: .cfa -16 + ^ x21: .cfa -24 + ^ x22: .cfa -32 + ^ .ra: .cfa -40 + ^ x29: .cfa -48 + ^
STACK CFI 3b374 .cfa: sp 48 +
STACK CFI 3b380 .cfa: sp 0 +
STACK CFI 3b384 .cfa: sp 48 +
STACK CFI 3b390 .cfa: sp 0 +
STACK CFI 3b394 .cfa: x29 48 +
STACK CFI INIT 3c248 160 .cfa: sp 0 +
STACK CFI 3c24c .cfa: sp 64 +
STACK CFI 3c25c .cfa: x29 64 + x19: .cfa -8 + ^ x20: .cfa -16 + ^ x21: .cfa -24 + ^ x22: .cfa -32 + ^ x23: .cfa -48 + ^ .ra: .cfa -56 + ^ x29: .cfa -64 + ^
STACK CFI 3c354 .cfa: sp 64 +
STACK CFI 3c364 .cfa: sp 0 +
STACK CFI 3c368 .cfa: x29 64 +
STACK CFI INIT 3c3a8 214 .cfa: sp 0 +
STACK CFI 3c3ac .cfa: sp 128 +
STACK CFI 3c3c8 .cfa: x29 96 + x19: .cfa -8 + ^ x20: .cfa -16 + ^ x21: .cfa -24 + ^ x22: .cfa -32 + ^ x23: .cfa -40 + ^ x24: .cfa -48 + ^ x25: .cfa -56 + ^ x26: .cfa -64 + ^ x27: .cfa -80 + ^ .ra: .cfa -88 + ^ x29: .cfa -96 + ^
STACK CFI 3c544 .cfa: sp 128 +
STACK CFI 3c560 .cfa: sp 0 +
STACK CFI 3c564 .cfa: x29 96 +
STACK CFI INIT 3e258 290 .cfa: sp 0 +
STACK CFI 3e25c .cfa: sp 16 +
STACK CFI 3e260 .cfa: x29 16 + .ra: .cfa -8 + ^ x29: .cfa -16 + ^
STACK CFI 3e2ec .cfa: sp 16 +
STACK CFI 3e2f0 .cfa: sp 0 +
STACK CFI 3e2f4 .cfa: x29 16 +
STACK CFI 3e344 .cfa: sp 16 +
STACK CFI 3e348 .cfa: sp 0 +
STACK CFI 3e34c .cfa: x29 16 +
STACK CFI 3e4b0 .cfa: sp 16 +
STACK CFI 3e4b4 .cfa: sp 0 +
STACK CFI 3e4b8 .cfa: x29 16 +
STACK CFI INIT 3e4e8 158 .cfa: sp 0 +
STACK CFI 3e4ec .cfa: sp 112 +
STACK CFI 3e508 .cfa: x29 96 + x19: .cfa -8 + ^ x20: .cfa -16 + ^ x21: .cfa -24 + ^ x22: .cfa -32 + ^ x23: .cfa -40 + ^ x24: .cfa -48 + ^ x25: .cfa -56 + ^ x26: .cfa -64 + ^ x27: .cfa -72 + ^ x28: .cfa -80 + ^ .ra: .cfa -88 + ^ x29: .cfa -96 + ^
STACK CFI 3e5f0 .cfa: sp 112 +
STACK CFI 3e5f4 .cfa: x29 96 +
STACK CFI 3e5fc .cfa: sp 112 +
STACK CFI 3e618 .cfa: sp 0 +
STACK CFI 3e61c .cfa: x29 96 +
STACK CFI 3e63c .cfa: sp 112 +
STACK CFI INIT 3e640 e54 .cfa: sp 0 +
STACK CFI 3e644 .cfa: sp 192 +
STACK CFI 3e660 .cfa: x29 96 + x19: .cfa -8 + ^ x20: .cfa -16 + ^ x21: .cfa -24 + ^ x22: .cfa -32 + ^ x23: .cfa -40 + ^ x24: .cfa -48 + ^ x25: .cfa -56 + ^ x26: .cfa -64 + ^ x27: .cfa -72 + ^ x28: .cfa -80 + ^ .ra: .cfa -88 + ^ x29: .cfa -96 + ^
STACK CFI 3f37c .cfa: sp 192 +
STACK CFI 3f398 .cfa: sp 0 +
STACK CFI 3f39c .cfa: x29 96 +
STACK CFI INIT 3f494 1068 .cfa: sp 0 +
STACK CFI 3f498 .cfa: sp 288 +
STACK CFI 3f4b4 .cfa: x29 96 + x19: .cfa -8 + ^ x20: .cfa -16 + ^ x21: .cfa -24 + ^ x22: .cfa -32 + ^ x23: .cfa -40 + ^ x24: .cfa -48 + ^ x25: .cfa -56 + ^ x26: .cfa -64 + ^ x27: .cfa -72 + ^ x28: .cfa -80 + ^ .ra: .cfa -88 + ^ x29: .cfa -96 + ^
STACK CFI 40244 .cfa: sp 288 +
STACK CFI 40260 .cfa: sp 0 +
STACK CFI 40264 .cfa: x29 96 +
STACK CFI INIT 404fc 520 .cfa: sp 0 +
STACK CFI 40500 .cfa: sp 144 +
STACK CFI 4051c .cfa: x29 96 + x19: .cfa -8 + ^ x20: .cfa -16 + ^ x21: .cfa -24 + ^ x22: .cfa -32 + ^ x23: .cfa -40 + ^ x24: .cfa -48 + ^ x25: .cfa -56 + ^ x26: .cfa -64 + ^ x27: .cfa -72 + ^ x28: .cfa -80 + ^ .ra: .cfa -88 + ^ x29: .cfa -96 + ^
STACK CFI 409f8 .cfa: sp 144 +
STACK CFI 40a14 .cfa: sp 0 +
STACK CFI 40a18 .cfa: x29 96 +
STACK CFI INIT 413bc 136c .cfa: sp 0 +
STACK CFI 413c0 .cfa: sp 224 +
STACK CFI 413dc .cfa: x29 96 + x19: .cfa -8 + ^ x20: .cfa -16 + ^ x21: .cfa -24 + ^ x22: .cfa -32 + ^ x23: .cfa -40 + ^ x24: .cfa -48 + ^ x25: .cfa -56 + ^ x26: .cfa -64 + ^ x27: .cfa -72 + ^ x28: .cfa -80 + ^ .ra: .cfa -88 + ^ x29: .cfa -96 + ^
STACK CFI 42704 .cfa: sp 224 +
STACK CFI 42720 .cfa: sp 0 +
STACK CFI 42724 .cfa: x29 96 +
STACK CFI INIT 42728 1b8 .cfa: sp 0 +
STACK CFI INIT 218d0 bd4 .cfa: sp 0 +
STACK CFI 218d4 .cfa: sp 240 +
STACK CFI 218f0 .cfa: x29 96 + x19: .cfa -8 + ^ x20: .cfa -16 + ^ x21: .cfa -24 + ^ x22: .cfa -32 + ^ x23: .cfa -40 + ^ x24: .cfa -48 + ^ x25: .cfa -56 + ^ x26: .cfa -64 + ^ x27: .cfa -72 + ^ x28: .cfa -80 + ^ .ra: .cfa -88 + ^ x29: .cfa -96 + ^
STACK CFI 21ccc .cfa: sp 240 +
STACK CFI 21ce8 .cfa: sp 0 +
STACK CFI 21cec .cfa: x29 96 +
STACK CFI 2234c .cfa: sp 240 +
STACK CFI 22368 .cfa: sp 0 +
STACK CFI 2236c .cfa: x29 96 +
STACK CFI INIT 224bc 750 .cfa: sp 0 +
STACK CFI 224c0 .cfa: sp 224 +
STACK CFI 224d4 .cfa: x29 64 + x19: .cfa -8 + ^ x20: .cfa -16 + ^ x21: .cfa -24 + ^ x22: .cfa -32 + ^ x23: .cfa -40 + ^ x24: .cfa -48 + ^ .ra: .cfa -56 + ^ x29: .cfa -64 + ^
STACK CFI 229cc .cfa: sp 224 +
STACK CFI 229e0 .cfa: sp 0 +
STACK CFI 229e4 .cfa: x29 64 +
STACK CFI INIT 22c5c 74 .cfa: sp 0 +
STACK CFI 22c60 .cfa: sp 48 +
STACK CFI 22c6c .cfa: x29 32 + x19: .cfa -8 + ^ x20: .cfa -16 + ^ .ra: .cfa -24 + ^ x29: .cfa -32 + ^
STACK CFI 22cb8 .cfa: sp 48 +
STACK CFI 22cc4 .cfa: sp 0 +
STACK CFI 22cc8 .cfa: x29 32 +
STACK CFI INIT 22d60 154 .cfa: sp 0 +
STACK CFI 22d64 .cfa: sp 384 +
STACK CFI 22d78 .cfa: x29 64 + x19: .cfa -8 + ^ x20: .cfa -16 + ^ x21: .cfa -24 + ^ x22: .cfa -32 + ^ x23: .cfa -40 + ^ x28: .cfa -48 + ^ .ra: .cfa -56 + ^ x29: .cfa -64 + ^
STACK CFI 22e5c .cfa: sp 384 +
STACK CFI 22e70 .cfa: sp 0 +
STACK CFI 22e74 .cfa: x29 64 +
STACK CFI INIT 22ee8 12c .cfa: sp 0 +
STACK CFI 22eec .cfa: sp 80 +
STACK CFI 22f00 .cfa: x29 80 + x19: .cfa -8 + ^ x20: .cfa -16 + ^ x21: .cfa -24 + ^ x22: .cfa -32 + ^ x23: .cfa -40 + ^ x24: .cfa -48 + ^ x25: .cfa -56 + ^ x26: .cfa -64 + ^ .ra: .cfa -72 + ^ x29: .cfa -80 + ^
STACK CFI 22fc8 .cfa: sp 80 +
STACK CFI 22fdc .cfa: sp 0 +
STACK CFI 22fe0 .cfa: x29 80 +
STACK CFI INIT 230b8 1a4 .cfa: sp 0 +
STACK CFI 230bc .cfa: sp 112 +
STACK CFI 230d4 .cfa: x29 80 + x19: .cfa -8 + ^ x20: .cfa -16 + ^ x21: .cfa -24 + ^ x22: .cfa -32 + ^ x23: .cfa -40 + ^ x24: .cfa -48 + ^ x25: .cfa -56 + ^ x26: .cfa -64 + ^ .ra: .cfa -72 + ^ x29: .cfa -80 + ^
STACK CFI 231c4 .cfa: sp 112 +
STACK CFI 231dc .cfa: sp 0 +
STACK CFI 231e0 .cfa: x29 80 +
STACK CFI INIT 2325c 1dc .cfa: sp 0 +
STACK CFI 23260 .cfa: sp 128 +
STACK CFI 2327c .cfa: x29 96 + x19: .cfa -8 + ^ x20: .cfa -16 + ^ x21: .cfa -24 + ^ x22: .cfa -32 + ^ x23: .cfa -40 + ^ x24: .cfa -48 + ^ x25: .cfa -56 + ^ x26: .cfa -64 + ^ x27: .cfa -80 + ^ .ra: .cfa -88 + ^ x29: .cfa -96 + ^
STACK CFI 233e8 .cfa: sp 128 +
STACK CFI 23404 .cfa: sp 0 +
STACK CFI 23408 .cfa: x29 96 +
STACK CFI INIT 2344c 50 .cfa: sp 0 +
STACK CFI 23450 .cfa: sp 32 +
STACK CFI 23458 .cfa: x29 32 + x19: .cfa -8 + ^ x20: .cfa -16 + ^ .ra: .cfa -24 + ^ x29: .cfa -32 + ^
STACK CFI INIT 23500 178 .cfa: sp 0 +
STACK CFI 23504 .cfa: sp 80 +
STACK CFI 23518 .cfa: x29 80 + x19: .cfa -8 + ^ x20: .cfa -16 + ^ x21: .cfa -24 + ^ x22: .cfa -32 + ^ x23: .cfa -40 + ^ x24: .cfa -48 + ^ x25: .cfa -64 + ^ .ra: .cfa -72 + ^ x29: .cfa -80 + ^
STACK CFI 23644 .cfa: sp 80 +
STACK CFI 23658 .cfa: sp 0 +
STACK CFI 2365c .cfa: x29 80 +
STACK CFI INIT 23958 1c4 .cfa: sp 0 +
STACK CFI 2395c .cfa: sp 80 +
STACK CFI 2396c .cfa: x29 48 + x19: .cfa -8 + ^ x20: .cfa -16 + ^ x21: .cfa -24 + ^ x22: .cfa -32 + ^ .ra: .cfa -40 + ^ x29: .cfa -48 + ^
STACK CFI 23ad8 .cfa: sp 80 +
STACK CFI 23ae8 .cfa: sp 0 +
STACK CFI 23aec .cfa: x29 48 +
STACK CFI INIT 23b1c 184 .cfa: sp 0 +
STACK CFI 23b20 .cfa: sp 160 +
STACK CFI 23b38 .cfa: x29 80 + x19: .cfa -8 + ^ x20: .cfa -16 + ^ x21: .cfa -24 + ^ x22: .cfa -32 + ^ x23: .cfa -40 + ^ x24: .cfa -48 + ^ x25: .cfa -56 + ^ x26: .cfa -64 + ^ .ra: .cfa -72 + ^ x29: .cfa -80 + ^
STACK CFI 23c38 .cfa: sp 160 +
STACK CFI 23c50 .cfa: sp 0 +
STACK CFI 23c54 .cfa: x29 80 +
STACK CFI INIT 23ca0 f8 .cfa: sp 0 +
STACK CFI 23ca4 .cfa: sp 64 +
STACK CFI 23cb4 .cfa: x29 48 + x19: .cfa -8 + ^ x20: .cfa -16 + ^ x21: .cfa -32 + ^ .ra: .cfa -40 + ^ x29: .cfa -48 + ^
STACK CFI 23d5c .cfa: sp 64 +
STACK CFI 23d6c .cfa: sp 0 +
STACK CFI 23d70 .cfa: x29 48 +
STACK CFI INIT 23d98 f8 .cfa: sp 0 +
STACK CFI 23d9c .cfa: sp 64 +
STACK CFI 23dac .cfa: x29 48 + x19: .cfa -8 + ^ x20: .cfa -16 + ^ x21: .cfa -32 + ^ .ra: .cfa -40 + ^ x29: .cfa -48 + ^
STACK CFI 23e54 .cfa: sp 64 +
STACK CFI 23e64 .cfa: sp 0 +
STACK CFI 23e68 .cfa: x29 48 +
STACK CFI INIT 23f44 134 .cfa: sp 0 +
STACK CFI 23f48 .cfa: sp 80 +
STACK CFI 23f58 .cfa: x29 48 + x19: .cfa -8 + ^ x20: .cfa -16 + ^ x21: .cfa -24 + ^ x22: .cfa -32 + ^ .ra: .cfa -40 + ^ x29: .cfa -48 + ^
STACK CFI 2405c .cfa: sp 80 +
STACK CFI 2406c .cfa: sp 0 +
STACK CFI 24070 .cfa: x29 48 +
STACK CFI INIT 24078 e4 .cfa: sp 0 +
STACK CFI 2407c .cfa: sp 96 +
STACK CFI 24088 .cfa: x29 32 + x19: .cfa -8 + ^ x20: .cfa -16 + ^ .ra: .cfa -24 + ^ x29: .cfa -32 + ^
STACK CFI 240fc .cfa: sp 96 +
STACK CFI 24108 .cfa: sp 0 +
STACK CFI 2410c .cfa: x29 32 +
STACK CFI INIT 242b8 46c .cfa: sp 0 +
STACK CFI 242bc .cfa: sp 96 +
STACK CFI 242d4 .cfa: x29 80 + x19: .cfa -8 + ^ x20: .cfa -16 + ^ x21: .cfa -24 + ^ x22: .cfa -32 + ^ x23: .cfa -40 + ^ x24: .cfa -48 + ^ x25: .cfa -64 + ^ .ra: .cfa -72 + ^ x29: .cfa -80 + ^
STACK CFI 246dc .cfa: sp 96 +
STACK CFI 246f4 .cfa: sp 0 +
STACK CFI 246f8 .cfa: x29 80 +
STACK CFI INIT 2474c 140 .cfa: sp 0 +
STACK CFI 24750 .cfa: sp 336 +
STACK CFI 24764 .cfa: x29 64 + x19: .cfa -8 + ^ x20: .cfa -16 + ^ x21: .cfa -24 + ^ x22: .cfa -32 + ^ x28: .cfa -48 + ^ .ra: .cfa -56 + ^ x29: .cfa -64 + ^
STACK CFI 2484c .cfa: sp 336 +
STACK CFI 24860 .cfa: sp 0 +
STACK CFI 24864 .cfa: x29 64 +
STACK CFI INIT 24ba4 1048 .cfa: sp 0 +
STACK CFI 24ba8 .cfa: sp 432 +
STACK CFI 24bc4 .cfa: x29 96 + x19: .cfa -8 + ^ x20: .cfa -16 + ^ x21: .cfa -24 + ^ x22: .cfa -32 + ^ x23: .cfa -40 + ^ x24: .cfa -48 + ^ x25: .cfa -56 + ^ x26: .cfa -64 + ^ x27: .cfa -72 + ^ x28: .cfa -80 + ^ .ra: .cfa -88 + ^ x29: .cfa -96 + ^
STACK CFI 25954 .cfa: sp 432 +
STACK CFI 25970 .cfa: sp 0 +
STACK CFI 25974 .cfa: x29 96 +
STACK CFI INIT 25bec 1410 .cfa: sp 0 +
STACK CFI 25bf0 .cfa: sp 96 +
STACK CFI 25c08 .cfa: x29 96 + x19: .cfa -8 + ^ x20: .cfa -16 + ^ x21: .cfa -24 + ^ x22: .cfa -32 + ^ x23: .cfa -40 + ^ x24: .cfa -48 + ^ x25: .cfa -56 + ^ x26: .cfa -64 + ^ x27: .cfa -72 + ^ x28: .cfa -80 + ^ .ra: .cfa -88 + ^ x29: .cfa -96 + ^
STACK CFI 269e4 .cfa: sp 96 +
STACK CFI 269fc .cfa: sp 0 +
STACK CFI 26a00 .cfa: x29 96 +
STACK CFI INIT 26ffc ff0 .cfa: sp 0 +
STACK CFI 27000 .cfa: sp 96 +
STACK CFI 27018 .cfa: x29 96 + x19: .cfa -8 + ^ x20: .cfa -16 + ^ x21: .cfa -24 + ^ x22: .cfa -32 + ^ x23: .cfa -40 + ^ x24: .cfa -48 + ^ x25: .cfa -56 + ^ x26: .cfa -64 + ^ x27: .cfa -72 + ^ x28: .cfa -80 + ^ .ra: .cfa -88 + ^ x29: .cfa -96 + ^
STACK CFI 27bd4 .cfa: sp 96 +
STACK CFI 27bec .cfa: sp 0 +
STACK CFI 27bf0 .cfa: x29 96 +
STACK CFI INIT 280e8 108 .cfa: sp 0 +
STACK CFI 280ec .cfa: sp 112 +
STACK CFI 280fc .cfa: x29 48 + x19: .cfa -8 + ^ x20: .cfa -16 + ^ x21: .cfa -32 + ^ .ra: .cfa -40 + ^ x29: .cfa -48 + ^
STACK CFI 281b0 .cfa: sp 112 +
STACK CFI 281c0 .cfa: sp 0 +
STACK CFI 281c4 .cfa: x29 48 +
STACK CFI INIT 281f0 200 .cfa: sp 0 +
STACK CFI 281f4 .cfa: sp 112 +
STACK CFI 28204 .cfa: x29 48 + x19: .cfa -8 + ^ x20: .cfa -16 + ^ x21: .cfa -24 + ^ x22: .cfa -32 + ^ .ra: .cfa -40 + ^ x29: .cfa -48 + ^
STACK CFI 283b4 .cfa: sp 112 +
STACK CFI 283c4 .cfa: sp 0 +
STACK CFI 283c8 .cfa: x29 48 +
STACK CFI INIT 287f4 190 .cfa: sp 0 +
STACK CFI 287f8 .cfa: sp 64 +
STACK CFI 28808 .cfa: x29 64 + x19: .cfa -8 + ^ x20: .cfa -16 + ^ x21: .cfa -24 + ^ x22: .cfa -32 + ^ x23: .cfa -40 + ^ x24: .cfa -48 + ^ .ra: .cfa -56 + ^ x29: .cfa -64 + ^
STACK CFI 2890c .cfa: sp 64 +
STACK CFI 2891c .cfa: sp 0 +
STACK CFI 28920 .cfa: x29 64 +
STACK CFI INIT 28cf8 74 .cfa: sp 0 +
STACK CFI 28cfc .cfa: sp 48 +
STACK CFI 28d08 .cfa: x29 32 + x19: .cfa -8 + ^ x20: .cfa -16 + ^ .ra: .cfa -24 + ^ x29: .cfa -32 + ^
STACK CFI 28d54 .cfa: sp 48 +
STACK CFI 28d60 .cfa: sp 0 +
STACK CFI 28d64 .cfa: x29 32 +
STACK CFI INIT 28d6c 74 .cfa: sp 0 +
STACK CFI 28d70 .cfa: sp 48 +
STACK CFI 28d7c .cfa: x29 32 + x19: .cfa -8 + ^ x20: .cfa -16 + ^ .ra: .cfa -24 + ^ x29: .cfa -32 + ^
STACK CFI 28dc8 .cfa: sp 48 +
STACK CFI 28dd4 .cfa: sp 0 +
STACK CFI 28dd8 .cfa: x29 32 +
STACK CFI INIT 28de0 74 .cfa: sp 0 +
STACK CFI 28de4 .cfa: sp 48 +
STACK CFI 28df0 .cfa: x29 32 + x19: .cfa -8 + ^ x20: .cfa -16 + ^ .ra: .cfa -24 + ^ x29: .cfa -32 + ^
STACK CFI 28e3c .cfa: sp 48 +
STACK CFI 28e48 .cfa: sp 0 +
STACK CFI 28e4c .cfa: x29 32 +
STACK CFI INIT 28e54 74 .cfa: sp 0 +
STACK CFI 28e58 .cfa: sp 48 +
STACK CFI 28e64 .cfa: x29 32 + x19: .cfa -8 + ^ x20: .cfa -16 + ^ .ra: .cfa -24 + ^ x29: .cfa -32 + ^
STACK CFI 28eb0 .cfa: sp 48 +
STACK CFI 28ebc .cfa: sp 0 +
STACK CFI 28ec0 .cfa: x29 32 +
STACK CFI INIT 28ec8 74 .cfa: sp 0 +
STACK CFI 28ecc .cfa: sp 48 +
STACK CFI 28ed8 .cfa: x29 32 + x19: .cfa -8 + ^ x20: .cfa -16 + ^ .ra: .cfa -24 + ^ x29: .cfa -32 + ^
STACK CFI 28f24 .cfa: sp 48 +
STACK CFI 28f30 .cfa: sp 0 +
STACK CFI 28f34 .cfa: x29 32 +
STACK CFI INIT 28f3c 74 .cfa: sp 0 +
STACK CFI 28f40 .cfa: sp 48 +
STACK CFI 28f4c .cfa: x29 32 + x19: .cfa -8 + ^ x20: .cfa -16 + ^ .ra: .cfa -24 + ^ x29: .cfa -32 + ^
STACK CFI 28f98 .cfa: sp 48 +
STACK CFI 28fa4 .cfa: sp 0 +
STACK CFI 28fa8 .cfa: x29 32 +
STACK CFI INIT 28fb0 168 .cfa: sp 0 +
STACK CFI 28fb4 .cfa: sp 384 +
STACK CFI 28fc8 .cfa: x29 64 + x19: .cfa -8 + ^ x20: .cfa -16 + ^ x21: .cfa -24 + ^ x22: .cfa -32 + ^ x23: .cfa -40 + ^ x28: .cfa -48 + ^ .ra: .cfa -56 + ^ x29: .cfa -64 + ^
STACK CFI 290c0 .cfa: sp 384 +
STACK CFI 290d4 .cfa: sp 0 +
STACK CFI 290d8 .cfa: x29 64 +
STACK CFI INIT 29188 284 .cfa: sp 0 +
STACK CFI 2918c .cfa: sp 112 +
STACK CFI 291a0 .cfa: x29 64 + x19: .cfa -8 + ^ x20: .cfa -16 + ^ x21: .cfa -24 + ^ x22: .cfa -32 + ^ x23: .cfa -48 + ^ .ra: .cfa -56 + ^ x29: .cfa -64 + ^
STACK CFI 293a0 .cfa: sp 112 +
STACK CFI 293b4 .cfa: sp 0 +
STACK CFI 293b8 .cfa: x29 64 +
STACK CFI INIT 29424 148 .cfa: sp 0 +
STACK CFI 29428 .cfa: sp 144 +
STACK CFI 2943c .cfa: x29 64 + x19: .cfa -8 + ^ x20: .cfa -16 + ^ x21: .cfa -24 + ^ x22: .cfa -32 + ^ x23: .cfa -40 + ^ x24: .cfa -48 + ^ .ra: .cfa -56 + ^ x29: .cfa -64 + ^
STACK CFI 29500 .cfa: sp 144 +
STACK CFI 29514 .cfa: sp 0 +
STACK CFI 29518 .cfa: x29 64 +
STACK CFI INIT 2982c 186c .cfa: sp 0 +
STACK CFI 29830 .cfa: sp 128 +
STACK CFI 29850 .cfa: x29 96 + x19: .cfa -8 + ^ x20: .cfa -16 + ^ x21: .cfa -24 + ^ x22: .cfa -32 + ^ x23: .cfa -40 + ^ x24: .cfa -48 + ^ x25: .cfa -56 + ^ x26: .cfa -64 + ^ x27: .cfa -72 + ^ x28: .cfa -80 + ^ .ra: .cfa -88 + ^ x29: .cfa -96 + ^ v8: .cfa -104 + ^ v9: .cfa -112 + ^ v10: .cfa -128 + ^
STACK CFI 2adfc .cfa: sp 128 +
STACK CFI 2ae1c .cfa: sp 0 +
STACK CFI 2ae20 .cfa: x29 96 +
STACK CFI INIT 2b098 14c .cfa: sp 0 +
STACK CFI 2b09c .cfa: sp 112 +
STACK CFI 2b0b0 .cfa: x29 40 + x19: .cfa -8 + ^ x20: .cfa -16 + ^ x21: .cfa -24 + ^ .ra: .cfa -32 + ^ x29: .cfa -40 + ^ v8: .cfa -48 + ^
STACK CFI 2b178 .cfa: sp 112 +
STACK CFI 2b18c .cfa: sp 0 +
STACK CFI 2b190 .cfa: x29 40 +
STACK CFI INIT 2b1e4 1c .cfa: sp 0 +
STACK CFI 2b1e8 .cfa: sp 16 +
STACK CFI 2b1ec .cfa: x29 16 + .ra: .cfa -8 + ^ x29: .cfa -16 + ^
STACK CFI 2b1f4 .cfa: sp 16 +
STACK CFI 2b1f8 .cfa: sp 0 +
STACK CFI 2b1fc .cfa: x29 16 +
STACK CFI INIT 2b48c 13c .cfa: sp 0 +
STACK CFI 2b490 .cfa: sp 112 +
STACK CFI 2b4a0 .cfa: x29 48 + x19: .cfa -8 + ^ x20: .cfa -16 + ^ x21: .cfa -32 + ^ .ra: .cfa -40 + ^ x29: .cfa -48 + ^
STACK CFI 2b560 .cfa: sp 112 +
STACK CFI 2b570 .cfa: sp 0 +
STACK CFI 2b574 .cfa: x29 48 +
STACK CFI INIT 2b5c8 194 .cfa: sp 0 +
STACK CFI 2b5cc .cfa: sp 144 +
STACK CFI 2b5dc .cfa: x29 48 + x19: .cfa -8 + ^ x20: .cfa -16 + ^ x21: .cfa -24 + ^ x22: .cfa -32 + ^ .ra: .cfa -40 + ^ x29: .cfa -48 + ^
STACK CFI 2b6dc .cfa: sp 144 +
STACK CFI 2b6ec .cfa: sp 0 +
STACK CFI 2b6f0 .cfa: x29 48 +
STACK CFI INIT 2b75c 1c8 .cfa: sp 0 +
STACK CFI 2b760 .cfa: sp 112 +
STACK CFI 2b770 .cfa: x29 48 + x19: .cfa -8 + ^ x20: .cfa -16 + ^ x21: .cfa -24 + ^ x22: .cfa -32 + ^ .ra: .cfa -40 + ^ x29: .cfa -48 + ^
STACK CFI 2b8c4 .cfa: sp 112 +
STACK CFI 2b8d4 .cfa: sp 0 +
STACK CFI 2b8d8 .cfa: x29 48 +
STACK CFI INIT 2bbb4 198 .cfa: sp 0 +
STACK CFI 2bbb8 .cfa: sp 96 +
STACK CFI 2bbc8 .cfa: x29 48 + x19: .cfa -8 + ^ x20: .cfa -16 + ^ x21: .cfa -32 + ^ .ra: .cfa -40 + ^ x29: .cfa -48 + ^
STACK CFI 2bca4 .cfa: sp 96 +
STACK CFI 2bcb4 .cfa: sp 0 +
STACK CFI 2bcb8 .cfa: x29 48 +
STACK CFI INIT 2bda0 16c .cfa: sp 0 +
STACK CFI 2bda4 .cfa: sp 128 +
STACK CFI 2bdb0 .cfa: x29 32 + x19: .cfa -8 + ^ x20: .cfa -16 + ^ .ra: .cfa -24 + ^ x29: .cfa -32 + ^
STACK CFI 2be84 .cfa: sp 128 +
STACK CFI 2be90 .cfa: sp 0 +
STACK CFI 2be94 .cfa: x29 32 +
STACK CFI INIT 2c0dc 178 .cfa: sp 0 +
STACK CFI 2c0e0 .cfa: sp 80 +
STACK CFI 2c0f0 .cfa: x29 48 + x19: .cfa -8 + ^ x20: .cfa -16 + ^ x21: .cfa -32 + ^ .ra: .cfa -40 + ^ x29: .cfa -48 + ^
STACK CFI 2c218 .cfa: sp 80 +
STACK CFI 2c228 .cfa: sp 0 +
STACK CFI 2c22c .cfa: x29 48 +
STACK CFI INIT 2c254 770 .cfa: sp 0 +
STACK CFI 2c258 .cfa: sp 400 +
STACK CFI 2c270 .cfa: x29 64 + x19: .cfa -8 + ^ x20: .cfa -16 + ^ x21: .cfa -24 + ^ x22: .cfa -32 + ^ x23: .cfa -40 + ^ x28: .cfa -48 + ^ .ra: .cfa -56 + ^ x29: .cfa -64 + ^ v8: .cfa -80 + ^
STACK CFI 2c8cc .cfa: sp 400 +
STACK CFI 2c8e4 .cfa: sp 0 +
STACK CFI 2c8e8 .cfa: x29 64 +
STACK CFI INIT 2c9c4 898 .cfa: sp 0 +
STACK CFI 2c9c8 .cfa: sp 96 +
STACK CFI 2c9e0 .cfa: x29 96 + x19: .cfa -8 + ^ x20: .cfa -16 + ^ x21: .cfa -24 + ^ x22: .cfa -32 + ^ x23: .cfa -40 + ^ x24: .cfa -48 + ^ x25: .cfa -56 + ^ x26: .cfa -64 + ^ x27: .cfa -72 + ^ x28: .cfa -80 + ^ .ra: .cfa -88 + ^ x29: .cfa -96 + ^
STACK CFI 2d0ec .cfa: sp 96 +
STACK CFI 2d104 .cfa: sp 0 +
STACK CFI 2d108 .cfa: x29 96 +
STACK CFI INIT 2d25c d8 .cfa: sp 0 +
STACK CFI 2d260 .cfa: sp 32 +
STACK CFI 2d268 .cfa: x29 32 + x19: .cfa -16 + ^ .ra: .cfa -24 + ^ x29: .cfa -32 + ^
STACK CFI 2d324 .cfa: sp 32 +
STACK CFI 2d32c .cfa: sp 0 +
STACK CFI 2d330 .cfa: x29 32 +
STACK CFI INIT 2d334 e0 .cfa: sp 0 +
STACK CFI 2d338 .cfa: sp 32 +
STACK CFI 2d340 .cfa: x29 32 + x19: .cfa -16 + ^ .ra: .cfa -24 + ^ x29: .cfa -32 + ^
STACK CFI 2d404 .cfa: sp 32 +
STACK CFI 2d40c .cfa: sp 0 +
STACK CFI 2d410 .cfa: x29 32 +
STACK CFI INIT 2d474 148 .cfa: sp 0 +
STACK CFI 2d478 .cfa: sp 96 +
STACK CFI 2d488 .cfa: x29 48 + x19: .cfa -8 + ^ x20: .cfa -16 + ^ x21: .cfa -32 + ^ .ra: .cfa -40 + ^ x29: .cfa -48 + ^
STACK CFI 2d570 .cfa: sp 96 +
STACK CFI 2d580 .cfa: sp 0 +
STACK CFI 2d584 .cfa: x29 48 +
STACK CFI INIT 2d5bc dc .cfa: sp 0 +
STACK CFI 2d5c0 .cfa: sp 32 +
STACK CFI 2d5c8 .cfa: x29 32 + x19: .cfa -8 + ^ x20: .cfa -16 + ^ .ra: .cfa -24 + ^ x29: .cfa -32 + ^
STACK CFI 2d688 .cfa: sp 32 +
STACK CFI 2d690 .cfa: sp 0 +
STACK CFI 2d694 .cfa: x29 32 +
STACK CFI INIT 2d698 e4 .cfa: sp 0 +
STACK CFI 2d69c .cfa: sp 32 +
STACK CFI 2d6a4 .cfa: x29 32 + x19: .cfa -8 + ^ x20: .cfa -16 + ^ .ra: .cfa -24 + ^ x29: .cfa -32 + ^
STACK CFI 2d76c .cfa: sp 32 +
STACK CFI 2d774 .cfa: sp 0 +
STACK CFI 2d778 .cfa: x29 32 +
STACK CFI INIT 2d7c4 6c .cfa: sp 0 +
STACK CFI 2d7c8 .cfa: sp 32 +
STACK CFI 2d7d0 .cfa: x29 32 + x19: .cfa -16 + ^ .ra: .cfa -24 + ^ x29: .cfa -32 + ^
STACK CFI 2d820 .cfa: sp 32 +
STACK CFI 2d828 .cfa: sp 0 +
STACK CFI 2d82c .cfa: x29 32 +
STACK CFI INIT 2d834 6c .cfa: sp 0 +
STACK CFI 2d838 .cfa: sp 32 +
STACK CFI 2d840 .cfa: x29 32 + x19: .cfa -16 + ^ .ra: .cfa -24 + ^ x29: .cfa -32 + ^
STACK CFI 2d890 .cfa: sp 32 +
STACK CFI 2d898 .cfa: sp 0 +
STACK CFI 2d89c .cfa: x29 32 +
STACK CFI INIT 2dd24 170 .cfa: sp 0 +
STACK CFI 2dd28 .cfa: sp 128 +
STACK CFI 2dd34 .cfa: x29 32 + x19: .cfa -8 + ^ x20: .cfa -16 + ^ .ra: .cfa -24 + ^ x29: .cfa -32 + ^
STACK CFI 2de0c .cfa: sp 128 +
STACK CFI 2de18 .cfa: sp 0 +
STACK CFI 2de1c .cfa: x29 32 +
STACK CFI INIT 2dfc4 b8 .cfa: sp 0 +
STACK CFI 2dfc8 .cfa: sp 64 +
STACK CFI 2dfd4 .cfa: x29 32 + x19: .cfa -8 + ^ x20: .cfa -16 + ^ .ra: .cfa -24 + ^ x29: .cfa -32 + ^
STACK CFI 2e03c .cfa: sp 64 +
STACK CFI 2e048 .cfa: sp 0 +
STACK CFI 2e04c .cfa: x29 32 +
STACK CFI INIT 2e364 fc .cfa: sp 0 +
STACK CFI 2e368 .cfa: sp 96 +
STACK CFI 2e378 .cfa: x29 48 + x19: .cfa -8 + ^ x20: .cfa -16 + ^ x21: .cfa -32 + ^ .ra: .cfa -40 + ^ x29: .cfa -48 + ^
STACK CFI 2e3f0 .cfa: sp 96 +
STACK CFI 2e400 .cfa: sp 0 +
STACK CFI 2e404 .cfa: x29 48 +
STACK CFI INIT 2e460 134 .cfa: sp 0 +
STACK CFI 2e464 .cfa: sp 80 +
STACK CFI 2e470 .cfa: x29 32 + x19: .cfa -8 + ^ x20: .cfa -16 + ^ .ra: .cfa -24 + ^ x29: .cfa -32 + ^
STACK CFI 2e4a0 .cfa: sp 80 +
STACK CFI 2e4ac .cfa: sp 0 +
STACK CFI 2e4b0 .cfa: x29 32 +
STACK CFI INIT 2e594 78 .cfa: sp 0 +
STACK CFI 2e598 .cfa: sp 32 +
STACK CFI 2e5a0 .cfa: x29 32 + x19: .cfa -8 + ^ x20: .cfa -16 + ^ .ra: .cfa -24 + ^ x29: .cfa -32 + ^
STACK CFI 2e5ac .cfa: sp 32 +
STACK CFI 2e5b4 .cfa: sp 0 +
STACK CFI 2e5b8 .cfa: x29 32 +
STACK CFI INIT 2e60c 74 .cfa: sp 0 +
STACK CFI 2e610 .cfa: sp 48 +
STACK CFI 2e61c .cfa: x29 32 + x19: .cfa -8 + ^ x20: .cfa -16 + ^ .ra: .cfa -24 + ^ x29: .cfa -32 + ^
STACK CFI 2e668 .cfa: sp 48 +
STACK CFI 2e674 .cfa: sp 0 +
STACK CFI 2e678 .cfa: x29 32 +
STACK CFI INIT 2e6e4 174 .cfa: sp 0 +
STACK CFI 2e6e8 .cfa: sp 112 +
STACK CFI 2e6f8 .cfa: x29 48 + x19: .cfa -8 + ^ x20: .cfa -16 + ^ x21: .cfa -32 + ^ .ra: .cfa -40 + ^ x29: .cfa -48 + ^
STACK CFI 2e744 .cfa: sp 112 +
STACK CFI 2e754 .cfa: sp 0 +
STACK CFI 2e758 .cfa: x29 48 +
STACK CFI INIT 2e858 194 .cfa: sp 0 +
STACK CFI 2e85c .cfa: sp 112 +
STACK CFI 2e86c .cfa: x29 48 + x19: .cfa -8 + ^ x20: .cfa -16 + ^ x21: .cfa -32 + ^ .ra: .cfa -40 + ^ x29: .cfa -48 + ^
STACK CFI 2e8d8 .cfa: sp 112 +
STACK CFI 2e8e8 .cfa: sp 0 +
STACK CFI 2e8ec .cfa: x29 48 +
STACK CFI INIT 2ea88 400 .cfa: sp 0 +
STACK CFI 2ea8c .cfa: sp 112 +
STACK CFI 2ea9c .cfa: x29 48 + x19: .cfa -8 + ^ x20: .cfa -16 + ^ x21: .cfa -32 + ^ .ra: .cfa -40 + ^ x29: .cfa -48 + ^
STACK CFI 2ebbc .cfa: sp 112 +
STACK CFI 2ebcc .cfa: sp 0 +
STACK CFI 2ebd0 .cfa: x29 48 +
STACK CFI INIT 2ee88 24c .cfa: sp 0 +
STACK CFI 2ee8c .cfa: sp 128 +
STACK CFI 2eea0 .cfa: x29 64 + x19: .cfa -8 + ^ x20: .cfa -16 + ^ x21: .cfa -24 + ^ x22: .cfa -32 + ^ x23: .cfa -48 + ^ .ra: .cfa -56 + ^ x29: .cfa -64 + ^
STACK CFI 2ef70 .cfa: sp 128 +
STACK CFI 2ef84 .cfa: sp 0 +
STACK CFI 2ef88 .cfa: x29 64 +
STACK CFI INIT 2f17c 150 .cfa: sp 0 +
STACK CFI 2f180 .cfa: sp 128 +
STACK CFI 2f190 .cfa: x29 48 + x19: .cfa -8 + ^ x20: .cfa -16 + ^ x21: .cfa -24 + ^ x22: .cfa -32 + ^ .ra: .cfa -40 + ^ x29: .cfa -48 + ^
STACK CFI 2f1d8 .cfa: sp 128 +
STACK CFI 2f1e8 .cfa: sp 0 +
STACK CFI 2f1ec .cfa: x29 48 +
STACK CFI INIT 2f2cc a8 .cfa: sp 0 +
STACK CFI 2f2d0 .cfa: sp 64 +
STACK CFI 2f2e0 .cfa: x29 48 + x19: .cfa -8 + ^ x20: .cfa -16 + ^ x21: .cfa -32 + ^ .ra: .cfa -40 + ^ x29: .cfa -48 + ^
STACK CFI 2f348 .cfa: sp 64 +
STACK CFI 2f358 .cfa: sp 0 +
STACK CFI 2f35c .cfa: x29 48 +
STACK CFI INIT 2f3c8 a4 .cfa: sp 0 +
STACK CFI 2f3cc .cfa: sp 48 +
STACK CFI 2f3d8 .cfa: x29 48 + x19: .cfa -8 + ^ x20: .cfa -16 + ^ x21: .cfa -32 + ^ .ra: .cfa -40 + ^ x29: .cfa -48 + ^
STACK CFI 2f444 .cfa: sp 48 +
STACK CFI 2f450 .cfa: sp 0 +
STACK CFI 2f454 .cfa: x29 48 +
STACK CFI INIT 2f46c 178 .cfa: sp 0 +
STACK CFI 2f470 .cfa: sp 128 +
STACK CFI 2f480 .cfa: x29 48 + x19: .cfa -8 + ^ x20: .cfa -16 + ^ x21: .cfa -24 + ^ x22: .cfa -32 + ^ .ra: .cfa -40 + ^ x29: .cfa -48 + ^
STACK CFI 2f4dc .cfa: sp 128 +
STACK CFI 2f4ec .cfa: sp 0 +
STACK CFI 2f4f0 .cfa: x29 48 +
STACK CFI INIT 2f5e4 190 .cfa: sp 0 +
STACK CFI 2f5e8 .cfa: sp 144 +
STACK CFI 2f5fc .cfa: x29 64 + x19: .cfa -8 + ^ x20: .cfa -16 + ^ x21: .cfa -24 + ^ x22: .cfa -32 + ^ x23: .cfa -48 + ^ .ra: .cfa -56 + ^ x29: .cfa -64 + ^
STACK CFI 2f668 .cfa: sp 144 +
STACK CFI 2f67c .cfa: sp 0 +
STACK CFI 2f680 .cfa: x29 64 +
STACK CFI INIT 2f774 104 .cfa: sp 0 +
STACK CFI 2f778 .cfa: sp 64 +
STACK CFI 2f788 .cfa: x29 48 + x19: .cfa -8 + ^ x20: .cfa -16 + ^ x21: .cfa -24 + ^ x22: .cfa -32 + ^ .ra: .cfa -40 + ^ x29: .cfa -48 + ^
STACK CFI 2f830 .cfa: sp 64 +
STACK CFI 2f840 .cfa: sp 0 +
STACK CFI 2f844 .cfa: x29 48 +
STACK CFI INIT 2f878 244 .cfa: sp 0 +
STACK CFI 2f87c .cfa: sp 128 +
STACK CFI 2f890 .cfa: x29 64 + x19: .cfa -8 + ^ x20: .cfa -16 + ^ x21: .cfa -24 + ^ x22: .cfa -32 + ^ x23: .cfa -48 + ^ .ra: .cfa -56 + ^ x29: .cfa -64 + ^
STACK CFI 2f958 .cfa: sp 128 +
STACK CFI 2f96c .cfa: sp 0 +
STACK CFI 2f970 .cfa: x29 64 +
STACK CFI INIT 2fabc 254 .cfa: sp 0 +
STACK CFI 2fac0 .cfa: sp 128 +
STACK CFI 2fad4 .cfa: x29 64 + x19: .cfa -8 + ^ x20: .cfa -16 + ^ x21: .cfa -24 + ^ x22: .cfa -32 + ^ x23: .cfa -48 + ^ .ra: .cfa -56 + ^ x29: .cfa -64 + ^
STACK CFI 2fbac .cfa: sp 128 +
STACK CFI 2fbc0 .cfa: sp 0 +
STACK CFI 2fbc4 .cfa: x29 64 +
STACK CFI INIT 2fd10 2b4 .cfa: sp 0 +
STACK CFI 2fd14 .cfa: sp 128 +
STACK CFI 2fd28 .cfa: x29 64 + x19: .cfa -8 + ^ x20: .cfa -16 + ^ x21: .cfa -24 + ^ x22: .cfa -32 + ^ x23: .cfa -40 + ^ x24: .cfa -48 + ^ .ra: .cfa -56 + ^ x29: .cfa -64 + ^
STACK CFI 2fe60 .cfa: sp 128 +
STACK CFI 2fe74 .cfa: sp 0 +
STACK CFI 2fe78 .cfa: x29 64 +
STACK CFI INIT 2ffc4 224 .cfa: sp 0 +
STACK CFI 2ffc8 .cfa: sp 128 +
STACK CFI 2ffdc .cfa: x29 64 + x19: .cfa -8 + ^ x20: .cfa -16 + ^ x21: .cfa -24 + ^ x22: .cfa -32 + ^ x23: .cfa -48 + ^ .ra: .cfa -56 + ^ x29: .cfa -64 + ^
STACK CFI 30084 .cfa: sp 128 +
STACK CFI 30098 .cfa: sp 0 +
STACK CFI 3009c .cfa: x29 64 +
STACK CFI INIT 301e8 224 .cfa: sp 0 +
STACK CFI 301ec .cfa: sp 128 +
STACK CFI 30200 .cfa: x29 64 + x19: .cfa -8 + ^ x20: .cfa -16 + ^ x21: .cfa -24 + ^ x22: .cfa -32 + ^ x23: .cfa -48 + ^ .ra: .cfa -56 + ^ x29: .cfa -64 + ^
STACK CFI 302a8 .cfa: sp 128 +
STACK CFI 302bc .cfa: sp 0 +
STACK CFI 302c0 .cfa: x29 64 +
STACK CFI INIT 3040c 154 .cfa: sp 0 +
STACK CFI 30410 .cfa: sp 384 +
STACK CFI 30424 .cfa: x29 64 + x19: .cfa -8 + ^ x20: .cfa -16 + ^ x21: .cfa -24 + ^ x22: .cfa -32 + ^ x23: .cfa -40 + ^ x28: .cfa -48 + ^ .ra: .cfa -56 + ^ x29: .cfa -64 + ^
STACK CFI 30508 .cfa: sp 384 +
STACK CFI 3051c .cfa: sp 0 +
STACK CFI 30520 .cfa: x29 64 +
STACK CFI INIT 30578 4e0 .cfa: sp 0 +
STACK CFI 3057c .cfa: sp 64 +
STACK CFI 3058c .cfa: x29 64 + x19: .cfa -8 + ^ x20: .cfa -16 + ^ x21: .cfa -24 + ^ x22: .cfa -32 + ^ x23: .cfa -40 + ^ x24: .cfa -48 + ^ .ra: .cfa -56 + ^ x29: .cfa -64 + ^
STACK CFI 30a2c .cfa: sp 64 +
STACK CFI 30a3c .cfa: sp 0 +
STACK CFI 30a40 .cfa: x29 64 +
STACK CFI INIT 30fcc 294 .cfa: sp 0 +
STACK CFI 30fd0 .cfa: sp 240 +
STACK CFI 30fe8 .cfa: x29 80 + x19: .cfa -8 + ^ x20: .cfa -16 + ^ x21: .cfa -24 + ^ x22: .cfa -32 + ^ x23: .cfa -40 + ^ x24: .cfa -48 + ^ x25: .cfa -64 + ^ .ra: .cfa -72 + ^ x29: .cfa -80 + ^
STACK CFI 31188 .cfa: sp 240 +
STACK CFI 311a0 .cfa: sp 0 +
STACK CFI 311a4 .cfa: x29 80 +
STACK CFI INIT 312dc 50 .cfa: sp 0 +
STACK CFI 312e0 .cfa: sp 32 +
STACK CFI 312e8 .cfa: x29 32 + x19: .cfa -8 + ^ x20: .cfa -16 + ^ .ra: .cfa -24 + ^ x29: .cfa -32 + ^
STACK CFI INIT 31358 7c0 .cfa: sp 0 +
STACK CFI 3135c .cfa: sp 320 +
STACK CFI 31378 .cfa: x29 96 + x19: .cfa -8 + ^ x20: .cfa -16 + ^ x21: .cfa -24 + ^ x22: .cfa -32 + ^ x23: .cfa -40 + ^ x24: .cfa -48 + ^ x25: .cfa -56 + ^ x26: .cfa -64 + ^ x27: .cfa -72 + ^ x28: .cfa -80 + ^ .ra: .cfa -88 + ^ x29: .cfa -96 + ^
STACK CFI 319c8 .cfa: sp 320 +
STACK CFI 319e4 .cfa: sp 0 +
STACK CFI 319e8 .cfa: x29 96 +
STACK CFI INIT 35e98 c74 .cfa: sp 0 +
STACK CFI 35e9c .cfa: sp 96 +
STACK CFI 35eb4 .cfa: x29 96 + x19: .cfa -8 + ^ x20: .cfa -16 + ^ x21: .cfa -24 + ^ x22: .cfa -32 + ^ x23: .cfa -40 + ^ x24: .cfa -48 + ^ x25: .cfa -56 + ^ x26: .cfa -64 + ^ x27: .cfa -72 + ^ x28: .cfa -80 + ^ .ra: .cfa -88 + ^ x29: .cfa -96 + ^
STACK CFI 3692c .cfa: sp 96 +
STACK CFI 36944 .cfa: sp 0 +
STACK CFI 36948 .cfa: x29 96 +
STACK CFI INIT 36c60 26c .cfa: sp 0 +
STACK CFI 36c64 .cfa: sp 128 +
STACK CFI 36c74 .cfa: x29 48 + x19: .cfa -8 + ^ x20: .cfa -16 + ^ x21: .cfa -24 + ^ x22: .cfa -32 + ^ .ra: .cfa -40 + ^ x29: .cfa -48 + ^
STACK CFI 36e18 .cfa: sp 128 +
STACK CFI 36e28 .cfa: sp 0 +
STACK CFI 36e2c .cfa: x29 48 +
STACK CFI INIT 3725c 3b8 .cfa: sp 0 +
STACK CFI 37260 .cfa: sp 96 +
STACK CFI 37278 .cfa: x29 96 + x19: .cfa -8 + ^ x20: .cfa -16 + ^ x21: .cfa -24 + ^ x22: .cfa -32 + ^ x23: .cfa -40 + ^ x24: .cfa -48 + ^ x25: .cfa -56 + ^ x26: .cfa -64 + ^ x27: .cfa -72 + ^ x28: .cfa -80 + ^ .ra: .cfa -88 + ^ x29: .cfa -96 + ^
STACK CFI 375b4 .cfa: sp 96 +
STACK CFI 375cc .cfa: sp 0 +
STACK CFI 375d0 .cfa: x29 96 +
STACK CFI INIT 376b4 cb4 .cfa: sp 0 +
STACK CFI 376b8 .cfa: sp 96 +
STACK CFI 376d0 .cfa: x29 96 + x19: .cfa -8 + ^ x20: .cfa -16 + ^ x21: .cfa -24 + ^ x22: .cfa -32 + ^ x23: .cfa -40 + ^ x24: .cfa -48 + ^ x25: .cfa -56 + ^ x26: .cfa -64 + ^ x27: .cfa -72 + ^ x28: .cfa -80 + ^ .ra: .cfa -88 + ^ x29: .cfa -96 + ^
STACK CFI 38178 .cfa: sp 96 +
STACK CFI 38190 .cfa: sp 0 +
STACK CFI 38194 .cfa: x29 96 +
STACK CFI INIT 38650 afc .cfa: sp 0 +
STACK CFI 38654 .cfa: sp 96 +
STACK CFI 3866c .cfa: x29 96 + x19: .cfa -8 + ^ x20: .cfa -16 + ^ x21: .cfa -24 + ^ x22: .cfa -32 + ^ x23: .cfa -40 + ^ x24: .cfa -48 + ^ x25: .cfa -56 + ^ x26: .cfa -64 + ^ x27: .cfa -72 + ^ x28: .cfa -80 + ^ .ra: .cfa -88 + ^ x29: .cfa -96 + ^
STACK CFI 390c0 .cfa: sp 96 +
STACK CFI 390d8 .cfa: sp 0 +
STACK CFI 390dc .cfa: x29 96 +
STACK CFI INIT 39328 1430 .cfa: sp 0 +
STACK CFI 3932c .cfa: sp 96 +
STACK CFI 39344 .cfa: x29 96 + x19: .cfa -8 + ^ x20: .cfa -16 + ^ x21: .cfa -24 + ^ x22: .cfa -32 + ^ x23: .cfa -40 + ^ x24: .cfa -48 + ^ x25: .cfa -56 + ^ x26: .cfa -64 + ^ x27: .cfa -72 + ^ x28: .cfa -80 + ^ .ra: .cfa -88 + ^ x29: .cfa -96 + ^
STACK CFI 3a5e0 .cfa: sp 96 +
STACK CFI 3a5f8 .cfa: sp 0 +
STACK CFI 3a5fc .cfa: x29 96 +
STACK CFI INIT 3a87c 75c .cfa: sp 0 +
STACK CFI 3a880 .cfa: sp 368 +
STACK CFI 3a89c .cfa: x29 96 + x19: .cfa -8 + ^ x20: .cfa -16 + ^ x21: .cfa -24 + ^ x22: .cfa -32 + ^ x23: .cfa -40 + ^ x24: .cfa -48 + ^ x25: .cfa -56 + ^ x26: .cfa -64 + ^ x27: .cfa -72 + ^ x28: .cfa -80 + ^ .ra: .cfa -88 + ^ x29: .cfa -96 + ^
STACK CFI 3a950 .cfa: sp 368 +
STACK CFI 3a96c .cfa: sp 0 +
STACK CFI 3a970 .cfa: x29 96 +
STACK CFI 3a9c4 .cfa: sp 368 +
STACK CFI 3a9e0 .cfa: sp 0 +
STACK CFI 3a9e4 .cfa: x29 96 +
STACK CFI INIT 3b398 eb0 .cfa: sp 0 +
STACK CFI 3b39c .cfa: sp 96 +
STACK CFI 3b3b4 .cfa: x29 96 + x19: .cfa -8 + ^ x20: .cfa -16 + ^ x21: .cfa -24 + ^ x22: .cfa -32 + ^ x23: .cfa -40 + ^ x24: .cfa -48 + ^ x25: .cfa -56 + ^ x26: .cfa -64 + ^ x27: .cfa -72 + ^ x28: .cfa -80 + ^ .ra: .cfa -88 + ^ x29: .cfa -96 + ^
STACK CFI 3c05c .cfa: sp 96 +
STACK CFI 3c074 .cfa: sp 0 +
STACK CFI 3c078 .cfa: x29 96 +
STACK CFI INIT 3c5bc 1c9c .cfa: sp 0 +
STACK CFI 3c5c0 .cfa: sp 112 +
STACK CFI 3c5dc .cfa: x29 96 + x19: .cfa -8 + ^ x20: .cfa -16 + ^ x21: .cfa -24 + ^ x22: .cfa -32 + ^ x23: .cfa -40 + ^ x24: .cfa -48 + ^ x25: .cfa -56 + ^ x26: .cfa -64 + ^ x27: .cfa -72 + ^ x28: .cfa -80 + ^ .ra: .cfa -88 + ^ x29: .cfa -96 + ^ v8: .cfa -112 + ^
STACK CFI 3c9c4 .cfa: sp 112 +
STACK CFI 3c9e0 .cfa: sp 0 +
STACK CFI 3c9e4 .cfa: x29 96 +
STACK CFI INIT 40a1c 9a0 .cfa: sp 0 +
STACK CFI 40a20 .cfa: sp 144 +
STACK CFI 40a38 .cfa: x29 80 + x19: .cfa -8 + ^ x20: .cfa -16 + ^ x21: .cfa -24 + ^ x22: .cfa -32 + ^ x23: .cfa -40 + ^ x24: .cfa -48 + ^ x25: .cfa -64 + ^ .ra: .cfa -72 + ^ x29: .cfa -80 + ^
STACK CFI 41338 .cfa: sp 144 +
STACK CFI 41350 .cfa: sp 0 +
STACK CFI 41354 .cfa: x29 80 +
STACK CFI INIT 428e0 57c .cfa: sp 0 +
STACK CFI 428e4 .cfa: sp 96 +
STACK CFI 428fc .cfa: x29 96 + x19: .cfa -8 + ^ x20: .cfa -16 + ^ x21: .cfa -24 + ^ x22: .cfa -32 + ^ x23: .cfa -40 + ^ x24: .cfa -48 + ^ x25: .cfa -56 + ^ x26: .cfa -64 + ^ x27: .cfa -72 + ^ x28: .cfa -80 + ^ .ra: .cfa -88 + ^ x29: .cfa -96 + ^
STACK CFI 42dc0 .cfa: sp 96 +
STACK CFI 42dd8 .cfa: sp 0 +
STACK CFI 42ddc .cfa: x29 96 +
STACK CFI INIT 42e5c 67c .cfa: sp 0 +
STACK CFI 42e60 .cfa: sp 96 +
STACK CFI 42e78 .cfa: x29 96 + x19: .cfa -8 + ^ x20: .cfa -16 + ^ x21: .cfa -24 + ^ x22: .cfa -32 + ^ x23: .cfa -40 + ^ x24: .cfa -48 + ^ x25: .cfa -56 + ^ x26: .cfa -64 + ^ x27: .cfa -72 + ^ x28: .cfa -80 + ^ .ra: .cfa -88 + ^ x29: .cfa -96 + ^
STACK CFI 4343c .cfa: sp 96 +
STACK CFI 43454 .cfa: sp 0 +
STACK CFI 43458 .cfa: x29 96 +
