MODULE Linux arm64 695E2A1174D9EDA8610E4F68B313BBEE0 ninxout.options_api.android64.so
INFO CODE_ID 112A5E69D974A8ED610E4F68B313BBEE9F3C4F7C
INFO GENERATOR mozilla/dump_syms 2.3.4
PUBLIC 9b50 0 __on_dlclose
PUBLIC 9b60 0 __emutls_unregister_key
PUBLIC 9b68 0 __on_dlclose_late
PUBLIC 9b70 0 __atexit_handler_wrapper
PUBLIC 9b84 0 atexit
PUBLIC 9ba0 0 pthread_atfork
PUBLIC 9bb0 0 __aarch64_ldadd8_relax
PUBLIC 9be0 0 init_have_lse_atomics
PUBLIC 9c78 0 __init_cpu_features_constructor
PUBLIC a214 0 __init_cpu_features
PUBLIC a2a0 0 __aarch64_ldadd8_acq_rel
PUBLIC a2d0 0 std::__ndk1::map<std::__ndk1::basic_string<char, std::__ndk1::char_traits<char>, std::__ndk1::allocator<char> >, PreToggleSetting, std::__ndk1::less<std::__ndk1::basic_string<char, std::__ndk1::char_traits<char>, std::__ndk1::allocator<char> > >, std::__ndk1::allocator<std::__ndk1::pair<std::__ndk1::basic_string<char, std::__ndk1::char_traits<char>, std::__ndk1::allocator<char> > const, PreToggleSetting> > >::~map[abi:ne180000]()
PUBLIC a2d8 0 std::__ndk1::map<std::__ndk1::basic_string<char, std::__ndk1::char_traits<char>, std::__ndk1::allocator<char> >, MidToggleSetting, std::__ndk1::less<std::__ndk1::basic_string<char, std::__ndk1::char_traits<char>, std::__ndk1::allocator<char> > >, std::__ndk1::allocator<std::__ndk1::pair<std::__ndk1::basic_string<char, std::__ndk1::char_traits<char>, std::__ndk1::allocator<char> > const, MidToggleSetting> > >::~map[abi:ne180000]()
PUBLIC a2e0 0 std::__ndk1::map<std::__ndk1::basic_string<char, std::__ndk1::char_traits<char>, std::__ndk1::allocator<char> >, EditorToggleSetting, std::__ndk1::less<std::__ndk1::basic_string<char, std::__ndk1::char_traits<char>, std::__ndk1::allocator<char> > >, std::__ndk1::allocator<std::__ndk1::pair<std::__ndk1::basic_string<char, std::__ndk1::char_traits<char>, std::__ndk1::allocator<char> > const, EditorToggleSetting> > >::~map[abi:ne180000]()
PUBLIC a2e8 0 __cxx_global_var_init.4
PUBLIC a900 0 __cxx_global_var_init.6
PUBLIC af0c 0 _GLOBAL__sub_I_main.cpp
PUBLIC b0d8 0 geode::modifier::ModifyBase<geode::modifier::ModifyDerive<hook68<(anonymous namespace)::hook68Parent>, GameLevelOptionsLayer> >::~ModifyBase()
PUBLIC b0f0 0 __cxx_global_var_init.5
PUBLIC b734 0 geode::modifier::ModifyBase<geode::modifier::ModifyDerive<OAPIGameOptionsLayer, GameOptionsLayer> >::~ModifyBase()
PUBLIC b74c 0 geode::modifier::ModifyBase<geode::modifier::ModifyDerive<hook185<(anonymous namespace)::hook185Parent>, EditorOptionsLayer> >::~ModifyBase()
PUBLIC b764 0 std::__ndk1::basic_string<char, std::__ndk1::char_traits<char>, std::__ndk1::allocator<char> >::__throw_length_error[abi:ne180000]() const
PUBLIC b778 0 std::__ndk1::__throw_length_error[abi:ne180000](char const*)
PUBLIC b7c8 0 std::length_error::length_error[abi:ne180000](char const*)
PUBLIC b7f8 0 std::__throw_bad_array_new_length([abi:ne180000], void)
PUBLIC b82c 0 __clang_call_terminate
PUBLIC b83c 0 std::__ndk1::__tree<std::__ndk1::__value_type<std::__ndk1::basic_string<char, std::__ndk1::char_traits<char>, std::__ndk1::allocator<char> >, PreToggleSetting>, std::__ndk1::__map_value_compare<std::__ndk1::basic_string<char, std::__ndk1::char_traits<char>, std::__ndk1::allocator<char> >, std::__ndk1::__value_type<std::__ndk1::basic_string<char, std::__ndk1::char_traits<char>, std::__ndk1::allocator<char> >, PreToggleSetting>, std::__ndk1::less<std::__ndk1::basic_string<char, std::__ndk1::char_traits<char>, std::__ndk1::allocator<char> > >, true>, std::__ndk1::allocator<std::__ndk1::__value_type<std::__ndk1::basic_string<char, std::__ndk1::char_traits<char>, std::__ndk1::allocator<char> >, PreToggleSetting> > >::destroy(std::__ndk1::__tree_node<std::__ndk1::__value_type<std::__ndk1::basic_string<char, std::__ndk1::char_traits<char>, std::__ndk1::allocator<char> >, PreToggleSetting>, void*>*)
PUBLIC b934 0 std::__ndk1::pair<std::__ndk1::basic_string<char, std::__ndk1::char_traits<char>, std::__ndk1::allocator<char> > const, PreToggleSetting>::~pair()
PUBLIC ba08 0 PreToggleSetting::~PreToggleSetting()
PUBLIC babc 0 std::__ndk1::__tree<std::__ndk1::__value_type<std::__ndk1::basic_string<char, std::__ndk1::char_traits<char>, std::__ndk1::allocator<char> >, MidToggleSetting>, std::__ndk1::__map_value_compare<std::__ndk1::basic_string<char, std::__ndk1::char_traits<char>, std::__ndk1::allocator<char> >, std::__ndk1::__value_type<std::__ndk1::basic_string<char, std::__ndk1::char_traits<char>, std::__ndk1::allocator<char> >, MidToggleSetting>, std::__ndk1::less<std::__ndk1::basic_string<char, std::__ndk1::char_traits<char>, std::__ndk1::allocator<char> > >, true>, std::__ndk1::allocator<std::__ndk1::__value_type<std::__ndk1::basic_string<char, std::__ndk1::char_traits<char>, std::__ndk1::allocator<char> >, MidToggleSetting> > >::destroy(std::__ndk1::__tree_node<std::__ndk1::__value_type<std::__ndk1::basic_string<char, std::__ndk1::char_traits<char>, std::__ndk1::allocator<char> >, MidToggleSetting>, void*>*)
PUBLIC bbb4 0 std::__ndk1::pair<std::__ndk1::basic_string<char, std::__ndk1::char_traits<char>, std::__ndk1::allocator<char> > const, MidToggleSetting>::~pair()
PUBLIC bc88 0 MidToggleSetting::~MidToggleSetting()
PUBLIC bd3c 0 std::__ndk1::__tree<std::__ndk1::__value_type<std::__ndk1::basic_string<char, std::__ndk1::char_traits<char>, std::__ndk1::allocator<char> >, EditorToggleSetting>, std::__ndk1::__map_value_compare<std::__ndk1::basic_string<char, std::__ndk1::char_traits<char>, std::__ndk1::allocator<char> >, std::__ndk1::__value_type<std::__ndk1::basic_string<char, std::__ndk1::char_traits<char>, std::__ndk1::allocator<char> >, EditorToggleSetting>, std::__ndk1::less<std::__ndk1::basic_string<char, std::__ndk1::char_traits<char>, std::__ndk1::allocator<char> > >, true>, std::__ndk1::allocator<std::__ndk1::__value_type<std::__ndk1::basic_string<char, std::__ndk1::char_traits<char>, std::__ndk1::allocator<char> >, EditorToggleSetting> > >::destroy(std::__ndk1::__tree_node<std::__ndk1::__value_type<std::__ndk1::basic_string<char, std::__ndk1::char_traits<char>, std::__ndk1::allocator<char> >, EditorToggleSetting>, void*>*)
PUBLIC be34 0 std::__ndk1::pair<std::__ndk1::basic_string<char, std::__ndk1::char_traits<char>, std::__ndk1::allocator<char> > const, EditorToggleSetting>::~pair()
PUBLIC bf08 0 EditorToggleSetting::~EditorToggleSetting()
PUBLIC bfbc 0 geodeExecFunction34<(anonymous namespace)::ExecFuncUnique34>()::{lambda(AddPreToggleEvent*)#1}::__invoke(AddPreToggleEvent*)
PUBLIC c95c 0 std::__ndk1::vector<std::__ndk1::basic_string<char, std::__ndk1::char_traits<char>, std::__ndk1::allocator<char> >, std::__ndk1::allocator<std::__ndk1::basic_string<char, std::__ndk1::char_traits<char>, std::__ndk1::allocator<char> > > >::~vector[abi:ne180000]()
PUBLIC c9d8 0 std::__ndk1::basic_string<char, std::__ndk1::char_traits<char>, std::__ndk1::allocator<char> >::__init_copy_ctor_external(char const*, unsigned long)
PUBLIC ca58 0 std::__ndk1::__tree_balance_after_insert[abi:ne180000]<std::__ndk1::__tree_node_base<void*>*>(std::__ndk1::__tree_node_base<void*>*, std::__ndk1::__tree_node_base<void*>*)
PUBLIC cc08 0 geode::EventListener<geode::EventFilter<AddPreToggleEvent> >::getPool() const
PUBLIC cc0c 0 geode::EventListener<geode::EventFilter<AddPreToggleEvent> >::handle(geode::Event*)
PUBLIC cd98 0 geode::EventListener<geode::EventFilter<AddPreToggleEvent> >::~EventListener()
PUBLIC cdf4 0 geode::EventListener<geode::EventFilter<AddPreToggleEvent> >::~EventListener()
PUBLIC ce58 0 std::__ndk1::__function::__base<geode::ListenerResult(AddPreToggleEvent*)>::~__base()
PUBLIC ce5c 0 std::__ndk1::__function::__func<geode::ListenerResult (*)(AddPreToggleEvent*), std::__ndk1::allocator<geode::ListenerResult (*)(AddPreToggleEvent*)>, geode::ListenerResult(AddPreToggleEvent*)>::~__func()
PUBLIC ce60 0 std::__ndk1::__function::__func<geode::ListenerResult (*)(AddPreToggleEvent*), std::__ndk1::allocator<geode::ListenerResult (*)(AddPreToggleEvent*)>, geode::ListenerResult(AddPreToggleEvent*)>::__clone() const
PUBLIC ce94 0 std::__ndk1::__function::__func<geode::ListenerResult (*)(AddPreToggleEvent*), std::__ndk1::allocator<geode::ListenerResult (*)(AddPreToggleEvent*)>, geode::ListenerResult(AddPreToggleEvent*)>::__clone(std::__ndk1::__function::__base<geode::ListenerResult(AddPreToggleEvent*)>*) const
PUBLIC cea8 0 std::__ndk1::__function::__func<geode::ListenerResult (*)(AddPreToggleEvent*), std::__ndk1::allocator<geode::ListenerResult (*)(AddPreToggleEvent*)>, geode::ListenerResult(AddPreToggleEvent*)>::destroy()
PUBLIC ceac 0 std::__ndk1::__function::__func<geode::ListenerResult (*)(AddPreToggleEvent*), std::__ndk1::allocator<geode::ListenerResult (*)(AddPreToggleEvent*)>, geode::ListenerResult(AddPreToggleEvent*)>::destroy_deallocate()
PUBLIC ceb0 0 std::__ndk1::__function::__func<geode::ListenerResult (*)(AddPreToggleEvent*), std::__ndk1::allocator<geode::ListenerResult (*)(AddPreToggleEvent*)>, geode::ListenerResult(AddPreToggleEvent*)>::operator()(AddPreToggleEvent*&&)
PUBLIC cec0 0 std::__ndk1::__function::__func<geode::ListenerResult (*)(AddPreToggleEvent*), std::__ndk1::allocator<geode::ListenerResult (*)(AddPreToggleEvent*)>, geode::ListenerResult(AddPreToggleEvent*)>::target(std::type_info const&) const
PUBLIC cedc 0 std::__ndk1::__function::__func<geode::ListenerResult (*)(AddPreToggleEvent*), std::__ndk1::allocator<geode::ListenerResult (*)(AddPreToggleEvent*)>, geode::ListenerResult(AddPreToggleEvent*)>::target_type() const
PUBLIC cee8 0 geode::cast::traverseTypeinfoFor(void*, geode::cast::ClassTypeinfoType const*, char const*)
PUBLIC cfe0 0 std::__ndk1::__throw_bad_function_call[abi:ne180000]()
PUBLIC d014 0 std::__ndk1::bad_function_call::~bad_function_call()
PUBLIC d038 0 geodeExecFunction34<(anonymous namespace)::ExecFuncUnique34>()::{lambda(AddMidToggleEvent*)#1}::__invoke(AddMidToggleEvent*)
PUBLIC d9d8 0 geode::EventListener<geode::EventFilter<AddMidToggleEvent> >::getPool() const
PUBLIC d9dc 0 geode::EventListener<geode::EventFilter<AddMidToggleEvent> >::handle(geode::Event*)
PUBLIC db68 0 geode::EventListener<geode::EventFilter<AddMidToggleEvent> >::~EventListener()
PUBLIC dbc4 0 geode::EventListener<geode::EventFilter<AddMidToggleEvent> >::~EventListener()
PUBLIC dc28 0 std::__ndk1::__function::__base<geode::ListenerResult(AddMidToggleEvent*)>::~__base()
PUBLIC dc2c 0 std::__ndk1::__function::__func<geode::ListenerResult (*)(AddMidToggleEvent*), std::__ndk1::allocator<geode::ListenerResult (*)(AddMidToggleEvent*)>, geode::ListenerResult(AddMidToggleEvent*)>::~__func()
PUBLIC dc30 0 std::__ndk1::__function::__func<geode::ListenerResult (*)(AddMidToggleEvent*), std::__ndk1::allocator<geode::ListenerResult (*)(AddMidToggleEvent*)>, geode::ListenerResult(AddMidToggleEvent*)>::__clone() const
PUBLIC dc64 0 std::__ndk1::__function::__func<geode::ListenerResult (*)(AddMidToggleEvent*), std::__ndk1::allocator<geode::ListenerResult (*)(AddMidToggleEvent*)>, geode::ListenerResult(AddMidToggleEvent*)>::__clone(std::__ndk1::__function::__base<geode::ListenerResult(AddMidToggleEvent*)>*) const
PUBLIC dc78 0 std::__ndk1::__function::__func<geode::ListenerResult (*)(AddMidToggleEvent*), std::__ndk1::allocator<geode::ListenerResult (*)(AddMidToggleEvent*)>, geode::ListenerResult(AddMidToggleEvent*)>::destroy()
PUBLIC dc7c 0 std::__ndk1::__function::__func<geode::ListenerResult (*)(AddMidToggleEvent*), std::__ndk1::allocator<geode::ListenerResult (*)(AddMidToggleEvent*)>, geode::ListenerResult(AddMidToggleEvent*)>::destroy_deallocate()
PUBLIC dc80 0 std::__ndk1::__function::__func<geode::ListenerResult (*)(AddMidToggleEvent*), std::__ndk1::allocator<geode::ListenerResult (*)(AddMidToggleEvent*)>, geode::ListenerResult(AddMidToggleEvent*)>::operator()(AddMidToggleEvent*&&)
PUBLIC dc90 0 std::__ndk1::__function::__func<geode::ListenerResult (*)(AddMidToggleEvent*), std::__ndk1::allocator<geode::ListenerResult (*)(AddMidToggleEvent*)>, geode::ListenerResult(AddMidToggleEvent*)>::target(std::type_info const&) const
PUBLIC dcac 0 std::__ndk1::__function::__func<geode::ListenerResult (*)(AddMidToggleEvent*), std::__ndk1::allocator<geode::ListenerResult (*)(AddMidToggleEvent*)>, geode::ListenerResult(AddMidToggleEvent*)>::target_type() const
PUBLIC dcb8 0 geodeExecFunction34<(anonymous namespace)::ExecFuncUnique34>()::{lambda(AddEditToggleEvent*)#1}::__invoke(AddEditToggleEvent*)
PUBLIC e658 0 geode::EventListener<geode::EventFilter<AddEditToggleEvent> >::getPool() const
PUBLIC e65c 0 geode::EventListener<geode::EventFilter<AddEditToggleEvent> >::handle(geode::Event*)
PUBLIC e7e8 0 geode::EventListener<geode::EventFilter<AddEditToggleEvent> >::~EventListener()
PUBLIC e844 0 geode::EventListener<geode::EventFilter<AddEditToggleEvent> >::~EventListener()
PUBLIC e8a8 0 std::__ndk1::__function::__base<geode::ListenerResult(AddEditToggleEvent*)>::~__base()
PUBLIC e8ac 0 std::__ndk1::__function::__func<geode::ListenerResult (*)(AddEditToggleEvent*), std::__ndk1::allocator<geode::ListenerResult (*)(AddEditToggleEvent*)>, geode::ListenerResult(AddEditToggleEvent*)>::~__func()
PUBLIC e8b0 0 std::__ndk1::__function::__func<geode::ListenerResult (*)(AddEditToggleEvent*), std::__ndk1::allocator<geode::ListenerResult (*)(AddEditToggleEvent*)>, geode::ListenerResult(AddEditToggleEvent*)>::__clone() const
PUBLIC e8e4 0 std::__ndk1::__function::__func<geode::ListenerResult (*)(AddEditToggleEvent*), std::__ndk1::allocator<geode::ListenerResult (*)(AddEditToggleEvent*)>, geode::ListenerResult(AddEditToggleEvent*)>::__clone(std::__ndk1::__function::__base<geode::ListenerResult(AddEditToggleEvent*)>*) const
PUBLIC e8f8 0 std::__ndk1::__function::__func<geode::ListenerResult (*)(AddEditToggleEvent*), std::__ndk1::allocator<geode::ListenerResult (*)(AddEditToggleEvent*)>, geode::ListenerResult(AddEditToggleEvent*)>::destroy()
PUBLIC e8fc 0 std::__ndk1::__function::__func<geode::ListenerResult (*)(AddEditToggleEvent*), std::__ndk1::allocator<geode::ListenerResult (*)(AddEditToggleEvent*)>, geode::ListenerResult(AddEditToggleEvent*)>::destroy_deallocate()
PUBLIC e900 0 std::__ndk1::__function::__func<geode::ListenerResult (*)(AddEditToggleEvent*), std::__ndk1::allocator<geode::ListenerResult (*)(AddEditToggleEvent*)>, geode::ListenerResult(AddEditToggleEvent*)>::operator()(AddEditToggleEvent*&&)
PUBLIC e910 0 std::__ndk1::__function::__func<geode::ListenerResult (*)(AddEditToggleEvent*), std::__ndk1::allocator<geode::ListenerResult (*)(AddEditToggleEvent*)>, geode::ListenerResult(AddEditToggleEvent*)>::target(std::type_info const&) const
PUBLIC e92c 0 std::__ndk1::__function::__func<geode::ListenerResult (*)(AddEditToggleEvent*), std::__ndk1::allocator<geode::ListenerResult (*)(AddEditToggleEvent*)>, geode::ListenerResult(AddEditToggleEvent*)>::target_type() const
PUBLIC e938 0 geode::modifier::ModifyDerive<hook68<(anonymous namespace)::hook68Parent>, GameLevelOptionsLayer>::apply()
PUBLIC ef18 0 std::__ndk1::shared_ptr<geode::Hook>::~shared_ptr[abi:ne180000]()
PUBLIC ef68 0 geode::impl::ResultData<geode::Hook*, std::__ndk1::basic_string<char, std::__ndk1::char_traits<char>, std::__ndk1::allocator<char> > >::~ResultData()
PUBLIC efdc 0 geode::modifier::ModifyBase<geode::modifier::ModifyDerive<hook68<(anonymous namespace)::hook68Parent>, GameLevelOptionsLayer> >::apply()
PUBLIC efe0 0 std::__ndk1::__tree<std::__ndk1::__value_type<std::__ndk1::basic_string<char, std::__ndk1::char_traits<char>, std::__ndk1::allocator<char> >, std::__ndk1::shared_ptr<geode::Hook> >, std::__ndk1::__map_value_compare<std::__ndk1::basic_string<char, std::__ndk1::char_traits<char>, std::__ndk1::allocator<char> >, std::__ndk1::__value_type<std::__ndk1::basic_string<char, std::__ndk1::char_traits<char>, std::__ndk1::allocator<char> >, std::__ndk1::shared_ptr<geode::Hook> >, std::__ndk1::less<std::__ndk1::basic_string<char, std::__ndk1::char_traits<char>, std::__ndk1::allocator<char> > >, true>, std::__ndk1::allocator<std::__ndk1::__value_type<std::__ndk1::basic_string<char, std::__ndk1::char_traits<char>, std::__ndk1::allocator<char> >, std::__ndk1::shared_ptr<geode::Hook> > > >::find<std::__ndk1::basic_string<char, std::__ndk1::char_traits<char>, std::__ndk1::allocator<char> > >(std::__ndk1::basic_string<char, std::__ndk1::char_traits<char>, std::__ndk1::allocator<char> > const&)
PUBLIC f100 0 std::__ndk1::__tree<std::__ndk1::__value_type<std::__ndk1::basic_string<char, std::__ndk1::char_traits<char>, std::__ndk1::allocator<char> >, std::__ndk1::shared_ptr<geode::Hook> >, std::__ndk1::__map_value_compare<std::__ndk1::basic_string<char, std::__ndk1::char_traits<char>, std::__ndk1::allocator<char> >, std::__ndk1::__value_type<std::__ndk1::basic_string<char, std::__ndk1::char_traits<char>, std::__ndk1::allocator<char> >, std::__ndk1::shared_ptr<geode::Hook> >, std::__ndk1::less<std::__ndk1::basic_string<char, std::__ndk1::char_traits<char>, std::__ndk1::allocator<char> > >, true>, std::__ndk1::allocator<std::__ndk1::__value_type<std::__ndk1::basic_string<char, std::__ndk1::char_traits<char>, std::__ndk1::allocator<char> >, std::__ndk1::shared_ptr<geode::Hook> > > >::__emplace_unique_key_args<std::__ndk1::basic_string<char, std::__ndk1::char_traits<char>, std::__ndk1::allocator<char> >, std::__ndk1::piecewise_construct_t const&, std::__ndk1::tuple<std::__ndk1::basic_string<char, std::__ndk1::char_traits<char>, std::__ndk1::allocator<char> > const&>, std::__ndk1::tuple<> >(std::__ndk1::basic_string<char, std::__ndk1::char_traits<char>, std::__ndk1::allocator<char> > const&, std::__ndk1::piecewise_construct_t const&, std::__ndk1::tuple<std::__ndk1::basic_string<char, std::__ndk1::char_traits<char>, std::__ndk1::allocator<char> > const&>, std::__ndk1::tuple<>)
PUBLIC f2d4 0 std::__ndk1::unique_ptr<std::__ndk1::__tree_node<std::__ndk1::__value_type<std::__ndk1::basic_string<char, std::__ndk1::char_traits<char>, std::__ndk1::allocator<char> >, std::__ndk1::shared_ptr<geode::Hook> >, void*>, std::__ndk1::__tree_node_destructor<std::__ndk1::allocator<std::__ndk1::__tree_node<std::__ndk1::__value_type<std::__ndk1::basic_string<char, std::__ndk1::char_traits<char>, std::__ndk1::allocator<char> >, std::__ndk1::shared_ptr<geode::Hook> >, void*> > > >::~unique_ptr[abi:ne180000]()
PUBLIC f350 0 _ZN5geode15UnwrapExceptionC2IRPNS_4HookEQsr4implE18IsStringStreamableIT_EEENS_4impl5OkTagEOS5_
PUBLIC f4a4 0 std::__ndk1::__throw_bad_variant_access[abi:ne180000]()
PUBLIC f4d8 0 std::__ndk1::basic_stringstream<char, std::__ndk1::char_traits<char>, std::__ndk1::allocator<char> >::basic_stringstream[abi:ne180000]()
PUBLIC m f604 0 std::__ndk1::basic_stringstream<char, std::__ndk1::char_traits<char>, std::__ndk1::allocator<char> >::~basic_stringstream()
PUBLIC f684 0 geode::UnwrapException::~UnwrapException()
PUBLIC f6a8 0 std::__ndk1::__put_character_sequence[abi:ne180000]<char, std::__ndk1::char_traits<char> >(std::__ndk1::basic_ostream<char, std::__ndk1::char_traits<char> >, std::__ndk1::basic_ostream const*, unsigned long)
PUBLIC f84c 0 std::__ndk1::__pad_and_output[abi:ne180000]<char, std::__ndk1::char_traits<char> >(std::__ndk1::char_traits<char>, std::__ndk1::ostreambuf_iterator const*, std::__ndk1::ostreambuf_iterator const, std::__ndk1::ostreambuf_iterator const, std::__ndk1::ios_base&, std::__ndk1::ostreambuf_iterator)
PUBLIC fa28 0 std::__ndk1::basic_stringbuf<char, std::__ndk1::char_traits<char>, std::__ndk1::allocator<char> >::str[abi:ne180000]() &&
PUBLIC fba0 0 std::__ndk1::basic_stringbuf<char, std::__ndk1::char_traits<char>, std::__ndk1::allocator<char> >::__init_buf_ptrs[abi:ne180000]()
PUBLIC fce8 0 _ZN5geode15UnwrapExceptionC2IRNSt6__ndk112basic_stringIcNS2_11char_traitsIcEENS2_9allocatorIcEEEEQsr4implE18IsStringStreamableIT_EEENS_4impl6ErrTagEOSA_
PUBLIC fe50 0 std::__ndk1::__variant_detail::__visitation::__base::__dispatcher<(unsigned long)0>::__dispatch[abi:ne180000]<std::__ndk1::__variant_detail::__dtor<std::__ndk1::__variant_detail::__traits<std::__ndk1::monostate, std::__ndk1::basic_string<char, std::__ndk1::char_traits<char>, std::__ndk1::allocator<char> > >, (std::__ndk1::__variant_detail::_Trait)1>::__destroy[abi:ne180000]()::{lambda(auto:1&)#1}, std::__ndk1::__variant_detail::__base<(std::__ndk1::__variant_detail::__traits<std::__ndk1::monostate, std::__ndk1::basic_string<char, std::__ndk1::char_traits<char>, std::__ndk1::allocator<char> > >)1, std::__ndk1::__variant_detail::__traits, std::__ndk1::allocator<char> >&>(std::__ndk1::__variant_detail::__dtor<std::__ndk1::__variant_detail::__traits<std::__ndk1::monostate, std::__ndk1::basic_string<char, std::__ndk1::char_traits<char>, std::__ndk1::allocator<char> > >, (std::__ndk1::__variant_detail::_Trait)1>, std::__ndk1::__variant_detail::__base<(std::__ndk1::__variant_detail::__traits<std::__ndk1::monostate, std::__ndk1::basic_string<char, std::__ndk1::char_traits<char>, std::__ndk1::allocator<char> > >)1, std::__ndk1::__variant_detail::__traits, std::__ndk1::allocator<char> >&)
PUBLIC fe54 0 std::__ndk1::__variant_detail::__visitation::__base::__dispatcher<(unsigned long)1>::__dispatch[abi:ne180000]<std::__ndk1::__variant_detail::__dtor<std::__ndk1::__variant_detail::__traits<std::__ndk1::monostate, std::__ndk1::basic_string<char, std::__ndk1::char_traits<char>, std::__ndk1::allocator<char> > >, (std::__ndk1::__variant_detail::_Trait)1>::__destroy[abi:ne180000]()::{lambda(auto:1&)#1}, std::__ndk1::__variant_detail::__base<(std::__ndk1::__variant_detail::__traits<std::__ndk1::monostate, std::__ndk1::basic_string<char, std::__ndk1::char_traits<char>, std::__ndk1::allocator<char> > >)1, std::__ndk1::__variant_detail::__traits, std::__ndk1::allocator<char> >&>(std::__ndk1::__variant_detail::__dtor<std::__ndk1::__variant_detail::__traits<std::__ndk1::monostate, std::__ndk1::basic_string<char, std::__ndk1::char_traits<char>, std::__ndk1::allocator<char> > >, (std::__ndk1::__variant_detail::_Trait)1>, std::__ndk1::__variant_detail::__base<(std::__ndk1::__variant_detail::__traits<std::__ndk1::monostate, std::__ndk1::basic_string<char, std::__ndk1::char_traits<char>, std::__ndk1::allocator<char> > >)1, std::__ndk1::__variant_detail::__traits, std::__ndk1::allocator<char> >&)
PUBLIC fe68 0 std::__ndk1::vector<std::__ndk1::basic_string<char, std::__ndk1::char_traits<char>, std::__ndk1::allocator<char> >, std::__ndk1::allocator<std::__ndk1::basic_string<char, std::__ndk1::char_traits<char>, std::__ndk1::allocator<char> > > >::__push_back_slow_path<std::__ndk1::basic_string<char, std::__ndk1::char_traits<char>, std::__ndk1::allocator<char> > const&>(std::__ndk1::basic_string<char, std::__ndk1::char_traits<char>, std::__ndk1::allocator<char> > const&)
PUBLIC 1008c 0 std::__ndk1::__split_buffer<std::__ndk1::basic_string<char, std::__ndk1::char_traits<char>, std::__ndk1::allocator<char> >, std::__ndk1::allocator<std::__ndk1::basic_string<char, std::__ndk1::char_traits<char>, std::__ndk1::allocator<char> > >&>::~__split_buffer()
PUBLIC 100f4 0 std::__ndk1::vector<std::__ndk1::basic_string<char, std::__ndk1::char_traits<char>, std::__ndk1::allocator<char> >, std::__ndk1::allocator<std::__ndk1::basic_string<char, std::__ndk1::char_traits<char>, std::__ndk1::allocator<char> > > >::__throw_length_error[abi:ne180000]() const
PUBLIC 10108 0 std::__ndk1::__variant_detail::__visitation::__base::__dispatcher<(unsigned long)0>::__dispatch[abi:ne180000]<std::__ndk1::__variant_detail::__dtor<std::__ndk1::__variant_detail::__traits<geode::Hook*, std::__ndk1::basic_string<char, std::__ndk1::char_traits<char>, std::__ndk1::allocator<char> > >, (std::__ndk1::__variant_detail::_Trait)1>::__destroy[abi:ne180000]()::{lambda(auto:1&)#1}, std::__ndk1::__variant_detail::__base<(std::__ndk1::__variant_detail::__traits<geode::Hook*, std::__ndk1::basic_string<char, std::__ndk1::char_traits<char>, std::__ndk1::allocator<char> > >)1, geode::Hook, std::__ndk1::allocator<char> >&>(std::__ndk1::__variant_detail::__dtor<std::__ndk1::__variant_detail::__traits<geode::Hook*, std::__ndk1::basic_string<char, std::__ndk1::char_traits<char>, std::__ndk1::allocator<char> > >, (std::__ndk1::__variant_detail::_Trait)1>, std::__ndk1::__variant_detail::__base<(std::__ndk1::__variant_detail::__traits<geode::Hook*, std::__ndk1::basic_string<char, std::__ndk1::char_traits<char>, std::__ndk1::allocator<char> > >)1, geode::Hook, std::__ndk1::allocator<char> >&)
PUBLIC 1010c 0 std::__ndk1::__variant_detail::__visitation::__base::__dispatcher<(unsigned long)1>::__dispatch[abi:ne180000]<std::__ndk1::__variant_detail::__dtor<std::__ndk1::__variant_detail::__traits<geode::Hook*, std::__ndk1::basic_string<char, std::__ndk1::char_traits<char>, std::__ndk1::allocator<char> > >, (std::__ndk1::__variant_detail::_Trait)1>::__destroy[abi:ne180000]()::{lambda(auto:1&)#1}, std::__ndk1::__variant_detail::__base<(std::__ndk1::__variant_detail::__traits<geode::Hook*, std::__ndk1::basic_string<char, std::__ndk1::char_traits<char>, std::__ndk1::allocator<char> > >)1, geode::Hook, std::__ndk1::allocator<char> >&>(std::__ndk1::__variant_detail::__dtor<std::__ndk1::__variant_detail::__traits<geode::Hook*, std::__ndk1::basic_string<char, std::__ndk1::char_traits<char>, std::__ndk1::allocator<char> > >, (std::__ndk1::__variant_detail::_Trait)1>, std::__ndk1::__variant_detail::__base<(std::__ndk1::__variant_detail::__traits<geode::Hook*, std::__ndk1::basic_string<char, std::__ndk1::char_traits<char>, std::__ndk1::allocator<char> > >)1, geode::Hook, std::__ndk1::allocator<char> >&)
PUBLIC 10120 0 std::__ndk1::__tree<std::__ndk1::__value_type<std::__ndk1::basic_string<char, std::__ndk1::char_traits<char>, std::__ndk1::allocator<char> >, std::__ndk1::shared_ptr<geode::Hook> >, std::__ndk1::__map_value_compare<std::__ndk1::basic_string<char, std::__ndk1::char_traits<char>, std::__ndk1::allocator<char> >, std::__ndk1::__value_type<std::__ndk1::basic_string<char, std::__ndk1::char_traits<char>, std::__ndk1::allocator<char> >, std::__ndk1::shared_ptr<geode::Hook> >, std::__ndk1::less<std::__ndk1::basic_string<char, std::__ndk1::char_traits<char>, std::__ndk1::allocator<char> > >, true>, std::__ndk1::allocator<std::__ndk1::__value_type<std::__ndk1::basic_string<char, std::__ndk1::char_traits<char>, std::__ndk1::allocator<char> >, std::__ndk1::shared_ptr<geode::Hook> > > >::erase(std::__ndk1::__tree_const_iterator<std::__ndk1::__value_type<std::__ndk1::basic_string<char, std::__ndk1::char_traits<char>, std::__ndk1::allocator<char> >, std::__ndk1::shared_ptr<geode::Hook> >, std::__ndk1::__tree_node<std::__ndk1::__value_type<std::__ndk1::basic_string<char, std::__ndk1::char_traits<char>, std::__ndk1::allocator<char> >, std::__ndk1::shared_ptr<geode::Hook> >, void*>*, long>)
PUBLIC 105c4 0 std::__ndk1::__tree<std::__ndk1::__value_type<std::__ndk1::basic_string<char, std::__ndk1::char_traits<char>, std::__ndk1::allocator<char> >, std::__ndk1::shared_ptr<geode::Hook> >, std::__ndk1::__map_value_compare<std::__ndk1::basic_string<char, std::__ndk1::char_traits<char>, std::__ndk1::allocator<char> >, std::__ndk1::__value_type<std::__ndk1::basic_string<char, std::__ndk1::char_traits<char>, std::__ndk1::allocator<char> >, std::__ndk1::shared_ptr<geode::Hook> >, std::__ndk1::less<std::__ndk1::basic_string<char, std::__ndk1::char_traits<char>, std::__ndk1::allocator<char> > >, true>, std::__ndk1::allocator<std::__ndk1::__value_type<std::__ndk1::basic_string<char, std::__ndk1::char_traits<char>, std::__ndk1::allocator<char> >, std::__ndk1::shared_ptr<geode::Hook> > > >::destroy(std::__ndk1::__tree_node<std::__ndk1::__value_type<std::__ndk1::basic_string<char, std::__ndk1::char_traits<char>, std::__ndk1::allocator<char> >, std::__ndk1::shared_ptr<geode::Hook> >, void*>*)
PUBLIC 10648 0 geode::modifier::AsStaticFunction_setupOptions<hook68<(anonymous namespace)::hook68Parent>, void (hook68<(anonymous namespace)::hook68Parent>::*)()>::Impl<void (hook68<(anonymous namespace)::hook68Parent>::*)()>::function(hook68<(anonymous namespace)::hook68Parent>*)
PUBLIC 10c98 0 geode::modifier::AsStaticFunction_didToggle<hook68<(anonymous namespace)::hook68Parent>, void (hook68<(anonymous namespace)::hook68Parent>::*)(int)>::Impl<void (hook68<(anonymous namespace)::hook68Parent>::*)(int)>::function(hook68<(anonymous namespace)::hook68Parent>*, int)
PUBLIC 10dd0 0 geode::addresser::Addresser::addressOfVirtual<void, GameLevelOptionsLayer, >(void (GameLevelOptionsLayer::*)())
PUBLIC 10e78 0 GameLevelOptionsLayer::GameLevelOptionsLayer(geode::ZeroConstructorType)
PUBLIC 10f28 0 std::__ndk1::shared_ptr<tulip::hook::CallingConvention>::~shared_ptr[abi:ne180000]()
PUBLIC 10f78 0 tulip::hook::HandlerMetadata::~HandlerMetadata()
PUBLIC 10fdc 0 std::__ndk1::__tree<std::__ndk1::__value_type<std::__ndk1::basic_string<char, std::__ndk1::char_traits<char>, std::__ndk1::allocator<char> >, std::__ndk1::shared_ptr<geode::Hook> >, std::__ndk1::__map_value_compare<std::__ndk1::basic_string<char, std::__ndk1::char_traits<char>, std::__ndk1::allocator<char> >, std::__ndk1::__value_type<std::__ndk1::basic_string<char, std::__ndk1::char_traits<char>, std::__ndk1::allocator<char> >, std::__ndk1::shared_ptr<geode::Hook> >, std::__ndk1::less<std::__ndk1::basic_string<char, std::__ndk1::char_traits<char>, std::__ndk1::allocator<char> > >, true>, std::__ndk1::allocator<std::__ndk1::__value_type<std::__ndk1::basic_string<char, std::__ndk1::char_traits<char>, std::__ndk1::allocator<char> >, std::__ndk1::shared_ptr<geode::Hook> > > >::__emplace_unique_key_args<std::__ndk1::basic_string<char, std::__ndk1::char_traits<char>, std::__ndk1::allocator<char> >, std::__ndk1::piecewise_construct_t const&, std::__ndk1::tuple<std::__ndk1::basic_string<char, std::__ndk1::char_traits<char>, std::__ndk1::allocator<char> >&&>, std::__ndk1::tuple<> >(std::__ndk1::basic_string<char, std::__ndk1::char_traits<char>, std::__ndk1::allocator<char> > const&, std::__ndk1::piecewise_construct_t const&, std::__ndk1::tuple<std::__ndk1::basic_string<char, std::__ndk1::char_traits<char>, std::__ndk1::allocator<char> >&&>, std::__ndk1::tuple<>)
PUBLIC 11144 0 geode::addresser::Addresser::addressOfVirtual<void, GameLevelOptionsLayer, int>(void (GameLevelOptionsLayer::*)(int))
PUBLIC 111ec 0 geode::modifier::ModifyDerive<OAPIGameOptionsLayer, GameOptionsLayer>::apply()
PUBLIC 117cc 0 geode::modifier::ModifyBase<geode::modifier::ModifyDerive<OAPIGameOptionsLayer, GameOptionsLayer> >::apply()
PUBLIC 117d0 0 geode::modifier::AsStaticFunction_setupOptions<OAPIGameOptionsLayer, void (OAPIGameOptionsLayer::*)()>::Impl<void (OAPIGameOptionsLayer::*)()>::function(OAPIGameOptionsLayer*)
PUBLIC 121b0 0 geode::modifier::AsStaticFunction_didToggle<OAPIGameOptionsLayer, void (OAPIGameOptionsLayer::*)(int)>::Impl<void (OAPIGameOptionsLayer::*)(int)>::function(OAPIGameOptionsLayer*, int)
PUBLIC 12314 0 geode::addresser::Addresser::addressOfVirtual<void, GameOptionsLayer, >(void (GameOptionsLayer::*)())
PUBLIC 123bc 0 GameOptionsLayer::GameOptionsLayer(geode::ZeroConstructorType)
PUBLIC 1246c 0 OAPIGameOptionsLayer::onIgnoreDamage(cocos2d::CCObject*)
PUBLIC 124f4 0 geode::addresser::Addresser::addressOfVirtual<void, GameOptionsLayer, int>(void (GameOptionsLayer::*)(int))
PUBLIC 1259c 0 geode::modifier::ModifyDerive<hook185<(anonymous namespace)::hook185Parent>, EditorOptionsLayer>::apply()
PUBLIC 128b4 0 geode::modifier::ModifyBase<geode::modifier::ModifyDerive<hook185<(anonymous namespace)::hook185Parent>, EditorOptionsLayer> >::apply()
PUBLIC 128b8 0 geode::modifier::AsStaticFunction_setupOptions<hook185<(anonymous namespace)::hook185Parent>, void (hook185<(anonymous namespace)::hook185Parent>::*)()>::Impl<void (hook185<(anonymous namespace)::hook185Parent>::*)()>::function(hook185<(anonymous namespace)::hook185Parent>*)
PUBLIC 12e94 0 geode::addresser::Addresser::addressOfVirtual<void, EditorOptionsLayer, >(void (EditorOptionsLayer::*)())
PUBLIC 12f3c 0 EditorOptionsLayer::EditorOptionsLayer(geode::ZeroConstructorType)
PUBLIC m 12fec 0 geodeImplicitEntry
PUBLIC 13028 0 wrapFunction(unsigned long, tulip::hook::WrapperMetadata const&)
PUBLIC 1315c 0 geode::impl::ResultData<void*, std::__ndk1::basic_string<char, std::__ndk1::char_traits<char>, std::__ndk1::allocator<char> > >::unwrapErr() &
PUBLIC 131d4 0 geode::impl::ResultData<void*, std::__ndk1::basic_string<char, std::__ndk1::char_traits<char>, std::__ndk1::allocator<char> > >::~ResultData()
PUBLIC 13248 0 tulip::hook::WrapperMetadata::~WrapperMetadata()
PUBLIC 132ac 0 GameToolbox::createToggleButton(gd::string, void (cocos2d::CCObject::*)(cocos2d::CCObject*), bool, cocos2d::CCMenu*, cocos2d::CCPoint, cocos2d::CCNode*, cocos2d::CCNode*, float, float, float, cocos2d::CCPoint, char const*, bool, int, cocos2d::CCArray*)
PUBLIC 134c0 0 tulip::hook::AbstractFunction::from<CCMenuItemToggler*, gd::string, void (cocos2d::CCObject::*)(cocos2d::CCObject*), bool, cocos2d::CCMenu*, cocos2d::CCPoint, cocos2d::CCNode*, cocos2d::CCNode*, float, float, float, cocos2d::CCPoint, char const*, bool, int, cocos2d::CCArray*>(CCMenuItemToggler* (*)(gd::string, void (cocos2d::CCObject::*)(cocos2d::CCObject*), bool, cocos2d::CCMenu*, cocos2d::CCPoint, cocos2d::CCNode*, cocos2d::CCNode*, float, float, float, cocos2d::CCPoint, char const*, bool, int, cocos2d::CCArray*))
PUBLIC 1421c 0 _ZN5geode15UnwrapExceptionC2IRPvQsr4implE18IsStringStreamableIT_EEENS_4impl5OkTagEOS4_
PUBLIC 14370 0 std::__ndk1::__variant_detail::__visitation::__base::__dispatcher<(unsigned long)0>::__dispatch[abi:ne180000]<std::__ndk1::__variant_detail::__dtor<std::__ndk1::__variant_detail::__traits<void*, std::__ndk1::basic_string<char, std::__ndk1::char_traits<char>, std::__ndk1::allocator<char> > >, (std::__ndk1::__variant_detail::_Trait)1>::__destroy[abi:ne180000]()::{lambda(auto:1&)#1}, std::__ndk1::__variant_detail::__base<(std::__ndk1::__variant_detail::__traits<void*, std::__ndk1::basic_string<char, std::__ndk1::char_traits<char>, std::__ndk1::allocator<char> > >)1, std::__ndk1::__variant_detail::__traits, std::__ndk1::allocator<char> >&>(std::__ndk1::__variant_detail::__dtor<std::__ndk1::__variant_detail::__traits<void*, std::__ndk1::basic_string<char, std::__ndk1::char_traits<char>, std::__ndk1::allocator<char> > >, (std::__ndk1::__variant_detail::_Trait)1>, std::__ndk1::__variant_detail::__base<(std::__ndk1::__variant_detail::__traits<void*, std::__ndk1::basic_string<char, std::__ndk1::char_traits<char>, std::__ndk1::allocator<char> > >)1, std::__ndk1::__variant_detail::__traits, std::__ndk1::allocator<char> >&)
PUBLIC 14374 0 std::__ndk1::__variant_detail::__visitation::__base::__dispatcher<(unsigned long)1>::__dispatch[abi:ne180000]<std::__ndk1::__variant_detail::__dtor<std::__ndk1::__variant_detail::__traits<void*, std::__ndk1::basic_string<char, std::__ndk1::char_traits<char>, std::__ndk1::allocator<char> > >, (std::__ndk1::__variant_detail::_Trait)1>::__destroy[abi:ne180000]()::{lambda(auto:1&)#1}, std::__ndk1::__variant_detail::__base<(std::__ndk1::__variant_detail::__traits<void*, std::__ndk1::basic_string<char, std::__ndk1::char_traits<char>, std::__ndk1::allocator<char> > >)1, std::__ndk1::__variant_detail::__traits, std::__ndk1::allocator<char> >&>(std::__ndk1::__variant_detail::__dtor<std::__ndk1::__variant_detail::__traits<void*, std::__ndk1::basic_string<char, std::__ndk1::char_traits<char>, std::__ndk1::allocator<char> > >, (std::__ndk1::__variant_detail::_Trait)1>, std::__ndk1::__variant_detail::__base<(std::__ndk1::__variant_detail::__traits<void*, std::__ndk1::basic_string<char, std::__ndk1::char_traits<char>, std::__ndk1::allocator<char> > >)1, std::__ndk1::__variant_detail::__traits, std::__ndk1::allocator<char> >&)
PUBLIC 14388 0 std::__ndk1::vector<tulip::hook::AbstractType, std::__ndk1::allocator<tulip::hook::AbstractType> >::__throw_length_error[abi:ne180000]() const
PUBLIC 1439c 0 __udivti3
PUBLIC 143a8 0 __udivmodti4
PUBLIC m 145f4 0 __eqtf2
PUBLIC 14694 0 __unordtf2
PUBLIC 146cc 0 fmt::v11::detail::write_loc(fmt::v11::basic_appender<char>, fmt::v11::loc_value, fmt::v11::format_specs const&, fmt::v11::detail::locale_ref)
PUBLIC 14960 0 fmt::v11::format_facet<std::__ndk1::locale>::~format_facet()
PUBLIC 149dc 0 fmt::v11::report_error(char const*)
PUBLIC 14a2c 0 fmt::v11::format_error::runtime_error(char const*)
PUBLIC 14a58 0 fmt::v11::format_facet<std::__ndk1::locale>::do_put(fmt::v11::basic_appender<char>, fmt::v11::loc_value, fmt::v11::format_specs const&) const
PUBLIC 15218 0 fmt::v11::detail::loc_writer<char>::~loc_writer()
PUBLIC 1527c 0 fmt::v11::detail::vformat_to<char>(fmt::v11::detail::buffer<char>&, fmt::v11::basic_string_view<char>, fmt::v11::detail::vformat_args<char>::type, fmt::v11::detail::locale_ref)
PUBLIC 157ec 0 fmt::v11::detail::is_printable(unsigned int)
PUBLIC 15a14 0 fmt::v11::detail::dragonbox::to_decimal<float>(float)
PUBLIC 15cf0 0 fmt::v11::detail::dragonbox::to_decimal<double>(double)
PUBLIC 1622c 0 fmt::v11::basic_memory_buffer<char, (unsigned long)500, std::__ndk1::allocator<char> >::grow(fmt::v11::detail::buffer<char>&, unsigned long)
PUBLIC 162a4 0 fmt::v11::format_facet<std::__ndk1::locale>::~format_facet()
PUBLIC 16330 0 fmt::v11::format_error::~format_error()
PUBLIC 16354 0 fmt::v11::detail::copy_noinline<char, char const*, fmt::v11::basic_appender<char> >(char const*, char const*, fmt::v11::basic_appender<char>)
PUBLIC 164a4 0 fmt::v11::detail::default_arg_formatter<char>::operator()<bool>(bool)
PUBLIC 1650c 0 fmt::v11::detail::default_arg_formatter<char>::operator()<char>(char)
PUBLIC 1659c 0 fmt::v11::detail::default_arg_formatter<char>::operator()<float>(float)
PUBLIC 16688 0 fmt::v11::detail::default_arg_formatter<char>::operator()<double>(double)
PUBLIC 16774 0 fmt::v11::detail::default_arg_formatter<char>::operator()<char const*>(char const*)
PUBLIC 167bc 0 fmt::v11::detail::default_arg_formatter<char>::operator()<void const*>(void const*)
PUBLIC 16854 0 _ZN3fmt3v116detail5writeIcNS0_14basic_appenderIcEEiTnNSt6__ndk19enable_ifIXaaaasr11is_integralIT1_EE5valuentsr3std7is_sameIS7_bEE5valuentsr3std7is_sameIS7_T_EE5valueEiE4typeELi0EEET0_SB_S7_
PUBLIC 16ab4 0 fmt::v11::detail::copy_noinline<char, char*, fmt::v11::basic_appender<char> >(char*, char*, fmt::v11::basic_appender<char>)
PUBLIC 16c04 0 _ZN3fmt3v116detail5writeIcNS0_14basic_appenderIcEEjTnNSt6__ndk19enable_ifIXaaaasr11is_integralIT1_EE5valuentsr3std7is_sameIS7_bEE5valuentsr3std7is_sameIS7_T_EE5valueEiE4typeELi0EEET0_SB_S7_
PUBLIC 16de4 0 _ZN3fmt3v116detail5writeIcNS0_14basic_appenderIcEExTnNSt6__ndk19enable_ifIXaaaasr11is_integralIT1_EE5valuentsr3std7is_sameIS7_bEE5valuentsr3std7is_sameIS7_T_EE5valueEiE4typeELi0EEET0_SB_S7_
PUBLIC 17068 0 _ZN3fmt3v116detail5writeIcNS0_14basic_appenderIcEEyTnNSt6__ndk19enable_ifIXaaaasr11is_integralIT1_EE5valuentsr3std7is_sameIS7_bEE5valuentsr3std7is_sameIS7_T_EE5valueEiE4typeELi0EEET0_SB_S7_
PUBLIC 17270 0 _ZN3fmt3v116detail5writeIcNS0_14basic_appenderIcEEnTnNSt6__ndk19enable_ifIXaaaasr11is_integralIT1_EE5valuentsr3std7is_sameIS7_bEE5valuentsr3std7is_sameIS7_T_EE5valueEiE4typeELi0EEET0_SB_S7_
PUBLIC 175d0 0 _ZN3fmt3v116detail5writeIcNS0_14basic_appenderIcEEoTnNSt6__ndk19enable_ifIXaaaasr11is_integralIT1_EE5valuentsr3std7is_sameIS7_bEE5valuentsr3std7is_sameIS7_T_EE5valueEiE4typeELi0EEET0_SB_S7_
PUBLIC 178e4 0 _ZN3fmt3v116detail5writeIcNS0_14basic_appenderIcEEbTnNSt6__ndk19enable_ifIXsr3std7is_sameIT1_bEE5valueEiE4typeELi0EEET0_SA_S7_RKNS0_12format_specsENS1_10locale_refE
PUBLIC 17b74 0 fmt::v11::detail::write_int_noinline<char, fmt::v11::basic_appender<char>, unsigned int>(fmt::v11::basic_appender<char>, fmt::v11::detail::write_int_arg<unsigned int>, fmt::v11::format_specs const&, fmt::v11::detail::locale_ref)
PUBLIC 18950 0 fmt::v11::detail::fill<char, fmt::v11::basic_appender<char> >(fmt::v11::basic_appender<char>, unsigned long, fmt::v11::detail::fill_t const&)
PUBLIC 18b20 0 fmt::v11::detail::write_padded<char, (fmt::v11::align::type)1, fmt::v11::basic_appender<char>, fmt::v11::detail::write_char<char, fmt::v11::basic_appender<char> >(fmt::v11::basic_appender<char>, char, fmt::v11::format_specs const&)::{lambda(fmt::v11::basic_appender<char>&)#1}>(fmt::v11::basic_appender<char>, fmt::v11::format_specs const&, unsigned long, unsigned long, fmt::v11::detail::write_char<char, fmt::v11::basic_appender<char> >(fmt::v11::basic_appender<char>, char, fmt::v11::format_specs const&)::{lambda(fmt::v11::basic_appender<char>&)#1})
PUBLIC 18d5c 0 fmt::v11::detail::write_escaped_cp<fmt::v11::basic_appender<char>, char>(fmt::v11::basic_appender<char>, fmt::v11::detail::find_escape_result<char> const&)
PUBLIC 19068 0 fmt::v11::detail::write_codepoint<(unsigned long)2, char, fmt::v11::basic_appender<char> >(fmt::v11::basic_appender<char>, char, unsigned int)
PUBLIC 191e0 0 fmt::v11::detail::write_codepoint<(unsigned long)8, char, fmt::v11::basic_appender<char> >(fmt::v11::basic_appender<char>, char, unsigned int)
PUBLIC 19358 0 fmt::v11::detail::write_padded<char, (fmt::v11::align::type)1, fmt::v11::basic_appender<char>, fmt::v11::detail::write_nonfinite<char, fmt::v11::basic_appender<char> >(fmt::v11::basic_appender<char>, bool, fmt::v11::format_specs, fmt::v11::sign::type)::{lambda(fmt::v11::basic_appender<char>&)#1}>(fmt::v11::basic_appender<char>, fmt::v11::format_specs const&, unsigned long, unsigned long, fmt::v11::detail::write_nonfinite<char, fmt::v11::basic_appender<char> >(fmt::v11::basic_appender<char>, bool, fmt::v11::format_specs, fmt::v11::sign::type)::{lambda(fmt::v11::basic_appender<char>&)#1})
PUBLIC 19598 0 fmt::v11::detail::do_write_float<char, fmt::v11::basic_appender<char>, fmt::v11::detail::dragonbox::decimal_fp<float>, fmt::v11::detail::digit_grouping<char> >(fmt::v11::basic_appender<char>, fmt::v11::detail::dragonbox::decimal_fp<float> const&, fmt::v11::format_specs const&, fmt::v11::detail::float_specs, fmt::v11::detail::locale_ref)
PUBLIC 1a20c 0 fmt::v11::detail::do_write_float<char, fmt::v11::basic_appender<char>, fmt::v11::detail::dragonbox::decimal_fp<float>, fmt::v11::detail::digit_grouping<char> >(fmt::v11::basic_appender<char>, fmt::v11::detail::dragonbox::decimal_fp<float> const&, fmt::v11::format_specs const&, fmt::v11::detail::float_specs, fmt::v11::detail::locale_ref)::{lambda(fmt::v11::basic_appender<char>(fmt::v11::basic_appender<char>))#1}::operator() const
PUBLIC 1a360 0 fmt::v11::detail::digit_grouping<char>::digit_grouping(fmt::v11::detail::locale_ref, bool)
PUBLIC 1a5cc 0 fmt::v11::detail::digit_grouping<char>::~digit_grouping()
PUBLIC 1a610 0 fmt::v11::detail::write_exponent<char, fmt::v11::basic_appender<char> >(int, fmt::v11::basic_appender<char>)
PUBLIC 1a7e0 0 _ZN3fmt3v116detail17write_significandIcjTnNSt6__ndk19enable_ifIXsr3std11is_integralIT0_EE5valueEiE4typeELi0EEEPT_S9_S5_iiS8_
PUBLIC 1a95c 0 std::__ndk1::basic_string<char, std::__ndk1::char_traits<char>, std::__ndk1::allocator<char> >::__assign_no_alias<true>(char const*, unsigned long)
PUBLIC 1aa08 0 std::__ndk1::basic_string<char, std::__ndk1::char_traits<char>, std::__ndk1::allocator<char> >::__assign_no_alias<false>(char const*, unsigned long)
PUBLIC 1ab18 0 fmt::v11::detail::digit_grouping<char>::apply<fmt::v11::basic_appender<char>, char>(fmt::v11::basic_appender<char>, fmt::v11::basic_string_view<char>) const
PUBLIC 1aed0 0 fmt::v11::basic_memory_buffer<int, (unsigned long)500, std::__ndk1::allocator<int> >::grow(fmt::v11::detail::buffer<int>&, unsigned long)
PUBLIC 1af70 0 fmt::v11::detail::do_write_float<char, fmt::v11::basic_appender<char>, fmt::v11::detail::dragonbox::decimal_fp<double>, fmt::v11::detail::digit_grouping<char> >(fmt::v11::basic_appender<char>, fmt::v11::detail::dragonbox::decimal_fp<double> const&, fmt::v11::format_specs const&, fmt::v11::detail::float_specs, fmt::v11::detail::locale_ref)
PUBLIC 1bc24 0 fmt::v11::detail::do_write_float<char, fmt::v11::basic_appender<char>, fmt::v11::detail::dragonbox::decimal_fp<double>, fmt::v11::detail::digit_grouping<char> >(fmt::v11::basic_appender<char>, fmt::v11::detail::dragonbox::decimal_fp<double> const&, fmt::v11::format_specs const&, fmt::v11::detail::float_specs, fmt::v11::detail::locale_ref)::{lambda(fmt::v11::basic_appender<char>(fmt::v11::basic_appender<char>))#1}::operator() const
PUBLIC 1bd7c 0 _ZN3fmt3v116detail17write_significandIcmTnNSt6__ndk19enable_ifIXsr3std11is_integralIT0_EE5valueEiE4typeELi0EEEPT_S9_S5_iiS8_
PUBLIC 1bf0c 0 fmt::v11::detail::write_float<char, fmt::v11::basic_appender<char>, long double>(fmt::v11::basic_appender<char>, long double, fmt::v11::format_specs, fmt::v11::detail::locale_ref)
PUBLIC 1ca08 0 fmt::v11::detail::write_padded<char, (fmt::v11::align::type)2, fmt::v11::basic_appender<char>, fmt::v11::detail::write_bytes<char, (fmt::v11::align::type)2, fmt::v11::basic_appender<char> >(fmt::v11::basic_appender<char>, fmt::v11::basic_string_view<char>, fmt::v11::format_specs const&)::{lambda(fmt::v11::basic_appender<char>&)#1}>(fmt::v11::basic_appender<char>, fmt::v11::format_specs const&, unsigned long, unsigned long, fmt::v11::detail::write_bytes<char, (fmt::v11::align::type)2, fmt::v11::basic_appender<char> >(fmt::v11::basic_appender<char>, fmt::v11::basic_string_view<char>, fmt::v11::format_specs const&)::{lambda(fmt::v11::basic_appender<char>&)#1})
PUBLIC 1cbe4 0 fmt::v11::detail::format_dragon(fmt::v11::detail::basic_fp<unsigned __int128>, unsigned int, int, fmt::v11::detail::buffer<char>&, int&)
PUBLIC 1e014 0 fmt::v11::detail::bigint::operator<<=(int)
PUBLIC 1e138 0 fmt::v11::detail::bigint::assign_pow10(int)
PUBLIC 1e894 0 fmt::v11::detail::bigint::divmod_assign(fmt::v11::detail::bigint const&)
PUBLIC 1ebb4 0 fmt::v11::basic_memory_buffer<unsigned int, (unsigned long)32, std::__ndk1::allocator<unsigned int> >::grow(fmt::v11::detail::buffer<unsigned int>&, unsigned long)
PUBLIC 1ec54 0 fmt::v11::detail::do_write_float<char, fmt::v11::basic_appender<char>, fmt::v11::detail::big_decimal_fp, fmt::v11::detail::digit_grouping<char> >(fmt::v11::basic_appender<char>, fmt::v11::detail::big_decimal_fp const&, fmt::v11::format_specs const&, fmt::v11::detail::float_specs, fmt::v11::detail::locale_ref)
PUBLIC 1fb04 0 fmt::v11::detail::do_write_float<char, fmt::v11::basic_appender<char>, fmt::v11::detail::big_decimal_fp, fmt::v11::detail::digit_grouping<char> >(fmt::v11::basic_appender<char>, fmt::v11::detail::big_decimal_fp const&, fmt::v11::format_specs const&, fmt::v11::detail::float_specs, fmt::v11::detail::locale_ref)::{lambda(fmt::v11::basic_appender<char>(fmt::v11::basic_appender<char>))#1}::operator() const
PUBLIC 1fc64 0 fmt::v11::detail::write_padded<char, (fmt::v11::align::type)2, fmt::v11::basic_appender<char>, fmt::v11::detail::write_ptr<char, fmt::v11::basic_appender<char>, unsigned long>(fmt::v11::basic_appender<char>, unsigned long, fmt::v11::format_specs const*)::{lambda(fmt::v11::basic_appender<char>&)#1}>(fmt::v11::basic_appender<char>, fmt::v11::format_specs const&, unsigned long, unsigned long, fmt::v11::detail::write_ptr<char, fmt::v11::basic_appender<char>, unsigned long>(fmt::v11::basic_appender<char>, unsigned long, fmt::v11::format_specs const*)::{lambda(fmt::v11::basic_appender<char>&)#1})
PUBLIC 1fe78 0 fmt::v11::detail::parse_replacement_field<char, fmt::v11::detail::vformat_to<char>(fmt::v11::detail::buffer<char>&, fmt::v11::basic_string_view<char>, fmt::v11::detail::vformat_args<char>::type, fmt::v11::detail::locale_ref)::format_handler&>(char const*, char const*, fmt::v11::detail::vformat_to<char>(fmt::v11::detail::buffer<char>&, fmt::v11::basic_string_view<char>, fmt::v11::detail::vformat_args<char>::type, fmt::v11::detail::locale_ref)::format_handler&)
PUBLIC 21b14 0 fmt::v11::detail::parse_dynamic_spec<char>(char const*, char const*, int&, fmt::v11::detail::arg_ref<char>&, fmt::v11::basic_format_parse_context<char>&)
PUBLIC 21da4 0 fmt::v11::basic_format_args<fmt::v11::context>::get<char>(fmt::v11::basic_string_view<char>) const
PUBLIC 21efc 0 fmt::v11::detail::write_int_noinline<char, fmt::v11::basic_appender<char>, unsigned long>(fmt::v11::basic_appender<char>, fmt::v11::detail::write_int_arg<unsigned long>, fmt::v11::format_specs const&, fmt::v11::detail::locale_ref)
PUBLIC 22d50 0 fmt::v11::detail::write_int_noinline<char, fmt::v11::basic_appender<char>, unsigned __int128>(fmt::v11::basic_appender<char>, fmt::v11::detail::write_int_arg<unsigned __int128>, fmt::v11::format_specs const&, fmt::v11::detail::locale_ref)
PUBLIC 23db8 0 _ZN3fmt3v116detail15format_hexfloatIdTnNSt6__ndk19enable_ifIXntsr16is_double_doubleIT_EE5valueEiE4typeELi0EEEvS5_NS0_12format_specsERNS1_6bufferIcEE
PUBLIC 242d8 0 fmt::v11::detail::format_float<double>(double, int, fmt::v11::detail::float_specs, fmt::v11::detail::buffer<char>&)
PUBLIC 24c78 0 fmt::v11::detail::write<char, fmt::v11::basic_appender<char> >(fmt::v11::basic_appender<char>, fmt::v11::basic_string_view<char>, fmt::v11::format_specs const&)
PUBLIC 25fe4 0 fmt::v11::detail::for_each_codepoint<fmt::v11::detail::compute_width(fmt::v11::basic_string_view<char>)::count_code_points>(fmt::v11::basic_string_view<char>, fmt::v11::detail::compute_width(fmt::v11::basic_string_view<char>)::count_code_points)::{lambda(char const*, char const*)#1}::operator()(char const*, char const*) const
PUBLIC 2619c 0 fmt::v11::detail::write_int<fmt::v11::basic_appender<char>, unsigned long, char>(fmt::v11::basic_appender<char>, unsigned long, unsigned int, fmt::v11::format_specs const&, fmt::v11::detail::digit_grouping<char> const&)
PUBLIC 26718 0 fmt::v11::detail::write_int<fmt::v11::basic_appender<char>, unsigned __int128, char>(fmt::v11::basic_appender<char>, unsigned __int128, unsigned int, fmt::v11::format_specs const&, fmt::v11::detail::digit_grouping<char> const&)
PUBLIC 26da0 0 <.plt ELF section in ninxout.options_api.android64.so>
STACK CFI INIT 9b50 10 .cfa: sp 0 +
STACK CFI INIT 9b60 8 .cfa: sp 0 +
STACK CFI INIT 9b68 8 .cfa: sp 0 +
STACK CFI INIT 9b70 14 .cfa: sp 0 +
STACK CFI INIT 9b84 1c .cfa: sp 0 +
STACK CFI INIT 9ba0 10 .cfa: sp 0 +
STACK CFI INIT 9bb0 30 .cfa: sp 0 +
STACK CFI INIT 9be0 98 .cfa: sp 0 +
STACK CFI INIT 9c78 59c .cfa: sp 0 +
STACK CFI INIT a214 8c .cfa: sp 0 +
STACK CFI INIT a2a0 30 .cfa: sp 0 +
STACK CFI INIT a2d0 8 .cfa: sp 0 +
STACK CFI INIT a2d8 8 .cfa: sp 0 +
STACK CFI INIT a2e0 8 .cfa: sp 0 +
STACK CFI INIT b0d8 18 .cfa: sp 0 +
STACK CFI INIT b734 18 .cfa: sp 0 +
STACK CFI INIT b74c 18 .cfa: sp 0 +
STACK CFI INIT b764 14 .cfa: sp 0 +
STACK CFI b768 .cfa: sp 16 +
STACK CFI b76c .cfa: x29 16 + .ra: .cfa -8 + ^ x29: .cfa -16 + ^
STACK CFI INIT b7c8 30 .cfa: sp 0 +
STACK CFI b7cc .cfa: sp 32 +
STACK CFI b7d4 .cfa: x29 32 + x19: .cfa -16 + ^ .ra: .cfa -24 + ^ x29: .cfa -32 + ^
STACK CFI b7ec .cfa: sp 32 +
STACK CFI b7f4 .cfa: sp 0 +
STACK CFI INIT b7f8 34 .cfa: sp 0 +
STACK CFI b7fc .cfa: sp 32 +
STACK CFI b804 .cfa: x29 32 + x19: .cfa -16 + ^ .ra: .cfa -24 + ^ x29: .cfa -32 + ^
STACK CFI INIT b82c 10 .cfa: sp 0 +
STACK CFI b830 .cfa: sp 16 +
STACK CFI b834 .cfa: x29 16 + .ra: .cfa -8 + ^ x29: .cfa -16 + ^
STACK CFI INIT b83c f8 .cfa: sp 0 +
STACK CFI b844 .cfa: sp 32 +
STACK CFI b84c .cfa: x29 32 + x19: .cfa -16 + ^ .ra: .cfa -24 + ^ x29: .cfa -32 + ^
STACK CFI b88c .cfa: sp 0 + x19: x19 .ra: x30 x29: x29
STACK CFI b890 .cfa: x29 32 + x19: .cfa -16 + ^ .ra: .cfa -24 + ^ x29: .cfa -32 + ^
STACK CFI b8f0 .cfa: sp 32 +
STACK CFI b8f8 .cfa: sp 0 +
STACK CFI b8fc .cfa: x29 32 +
STACK CFI b928 .cfa: sp 32 +
STACK CFI b930 .cfa: sp 0 +
STACK CFI INIT b934 d4 .cfa: sp 0 +
STACK CFI b938 .cfa: sp 32 +
STACK CFI b940 .cfa: x29 32 + x19: .cfa -16 + ^ .ra: .cfa -24 + ^ x29: .cfa -32 + ^
STACK CFI b9cc .cfa: sp 32 +
STACK CFI b9d4 .cfa: sp 0 +
STACK CFI b9d8 .cfa: x29 32 +
STACK CFI b9fc .cfa: sp 32 +
STACK CFI ba04 .cfa: sp 0 +
STACK CFI INIT ba08 b4 .cfa: sp 0 +
STACK CFI ba0c .cfa: sp 32 +
STACK CFI ba14 .cfa: x29 32 + x19: .cfa -16 + ^ .ra: .cfa -24 + ^ x29: .cfa -32 + ^
STACK CFI baa0 .cfa: sp 32 +
STACK CFI baa8 .cfa: sp 0 +
STACK CFI baac .cfa: x29 32 +
STACK CFI bab0 .cfa: sp 32 +
STACK CFI bab8 .cfa: sp 0 +
STACK CFI INIT babc f8 .cfa: sp 0 +
STACK CFI bac4 .cfa: sp 32 +
STACK CFI bacc .cfa: x29 32 + x19: .cfa -16 + ^ .ra: .cfa -24 + ^ x29: .cfa -32 + ^
STACK CFI bb0c .cfa: sp 0 + x19: x19 .ra: x30 x29: x29
STACK CFI bb10 .cfa: x29 32 + x19: .cfa -16 + ^ .ra: .cfa -24 + ^ x29: .cfa -32 + ^
STACK CFI bb70 .cfa: sp 32 +
STACK CFI bb78 .cfa: sp 0 +
STACK CFI bb7c .cfa: x29 32 +
STACK CFI bba8 .cfa: sp 32 +
STACK CFI bbb0 .cfa: sp 0 +
STACK CFI INIT bbb4 d4 .cfa: sp 0 +
STACK CFI bbb8 .cfa: sp 32 +
STACK CFI bbc0 .cfa: x29 32 + x19: .cfa -16 + ^ .ra: .cfa -24 + ^ x29: .cfa -32 + ^
STACK CFI bc4c .cfa: sp 32 +
STACK CFI bc54 .cfa: sp 0 +
STACK CFI bc58 .cfa: x29 32 +
STACK CFI bc7c .cfa: sp 32 +
STACK CFI bc84 .cfa: sp 0 +
STACK CFI INIT bc88 b4 .cfa: sp 0 +
STACK CFI bc8c .cfa: sp 32 +
STACK CFI bc94 .cfa: x29 32 + x19: .cfa -16 + ^ .ra: .cfa -24 + ^ x29: .cfa -32 + ^
STACK CFI bd20 .cfa: sp 32 +
STACK CFI bd28 .cfa: sp 0 +
STACK CFI bd2c .cfa: x29 32 +
STACK CFI bd30 .cfa: sp 32 +
STACK CFI bd38 .cfa: sp 0 +
STACK CFI INIT bd3c f8 .cfa: sp 0 +
STACK CFI bd44 .cfa: sp 32 +
STACK CFI bd4c .cfa: x29 32 + x19: .cfa -16 + ^ .ra: .cfa -24 + ^ x29: .cfa -32 + ^
STACK CFI bd8c .cfa: sp 0 + x19: x19 .ra: x30 x29: x29
STACK CFI bd90 .cfa: x29 32 + x19: .cfa -16 + ^ .ra: .cfa -24 + ^ x29: .cfa -32 + ^
STACK CFI bdf0 .cfa: sp 32 +
STACK CFI bdf8 .cfa: sp 0 +
STACK CFI bdfc .cfa: x29 32 +
STACK CFI be28 .cfa: sp 32 +
STACK CFI be30 .cfa: sp 0 +
STACK CFI INIT be34 d4 .cfa: sp 0 +
STACK CFI be38 .cfa: sp 32 +
STACK CFI be40 .cfa: x29 32 + x19: .cfa -16 + ^ .ra: .cfa -24 + ^ x29: .cfa -32 + ^
STACK CFI becc .cfa: sp 32 +
STACK CFI bed4 .cfa: sp 0 +
STACK CFI bed8 .cfa: x29 32 +
STACK CFI befc .cfa: sp 32 +
STACK CFI bf04 .cfa: sp 0 +
STACK CFI INIT bf08 b4 .cfa: sp 0 +
STACK CFI bf0c .cfa: sp 32 +
STACK CFI bf14 .cfa: x29 32 + x19: .cfa -16 + ^ .ra: .cfa -24 + ^ x29: .cfa -32 + ^
STACK CFI bfa0 .cfa: sp 32 +
STACK CFI bfa8 .cfa: sp 0 +
STACK CFI bfac .cfa: x29 32 +
STACK CFI bfb0 .cfa: sp 32 +
STACK CFI bfb8 .cfa: sp 0 +
STACK CFI INIT c95c 7c .cfa: sp 0 +
STACK CFI c960 .cfa: sp 48 +
STACK CFI c96c .cfa: x29 48 + x19: .cfa -8 + ^ x20: .cfa -16 + ^ x21: .cfa -32 + ^ .ra: .cfa -40 + ^ x29: .cfa -48 + ^
STACK CFI c9b8 .cfa: sp 48 +
STACK CFI c9c4 .cfa: sp 0 +
STACK CFI c9c8 .cfa: sp 48 +
STACK CFI c9d4 .cfa: sp 0 +
STACK CFI INIT c9d8 80 .cfa: sp 0 +
STACK CFI c9dc .cfa: sp 48 +
STACK CFI c9e8 .cfa: x29 48 + x19: .cfa -8 + ^ x20: .cfa -16 + ^ x21: .cfa -24 + ^ x22: .cfa -32 + ^ .ra: .cfa -40 + ^ x29: .cfa -48 + ^
STACK CFI ca00 .cfa: sp 48 +
STACK CFI ca0c .cfa: sp 0 +
STACK CFI ca10 .cfa: x29 48 +
STACK CFI ca40 .cfa: sp 48 +
STACK CFI ca4c .cfa: sp 0 +
STACK CFI ca50 .cfa: x29 48 +
STACK CFI INIT ca58 1b0 .cfa: sp 0 +
STACK CFI INIT cc08 4 .cfa: sp 0 +
STACK CFI INIT cd98 5c .cfa: sp 0 +
STACK CFI cd9c .cfa: sp 32 +
STACK CFI cda4 .cfa: x29 32 + x19: .cfa -16 + ^ .ra: .cfa -24 + ^ x29: .cfa -32 + ^
STACK CFI cde8 .cfa: sp 32 +
STACK CFI cdf0 .cfa: sp 0 +
STACK CFI INIT cdf4 64 .cfa: sp 0 +
STACK CFI cdf8 .cfa: sp 32 +
STACK CFI ce00 .cfa: x29 32 + x19: .cfa -16 + ^ .ra: .cfa -24 + ^ x29: .cfa -32 + ^
STACK CFI ce4c .cfa: sp 32 +
STACK CFI ce54 .cfa: sp 0 +
STACK CFI INIT ce58 4 .cfa: sp 0 +
STACK CFI INIT ce5c 4 .cfa: sp 0 +
STACK CFI INIT ce60 34 .cfa: sp 0 +
STACK CFI ce64 .cfa: sp 32 +
STACK CFI ce6c .cfa: x29 32 + x19: .cfa -16 + ^ .ra: .cfa -24 + ^ x29: .cfa -32 + ^
STACK CFI ce88 .cfa: sp 32 +
STACK CFI ce90 .cfa: sp 0 +
STACK CFI INIT ce94 14 .cfa: sp 0 +
STACK CFI INIT cea8 4 .cfa: sp 0 +
STACK CFI INIT ceac 4 .cfa: sp 0 +
STACK CFI INIT ceb0 10 .cfa: sp 0 +
STACK CFI INIT cec0 1c .cfa: sp 0 +
STACK CFI INIT cedc c .cfa: sp 0 +
STACK CFI INIT cee8 f8 .cfa: sp 0 +
STACK CFI ceec .cfa: sp 64 +
STACK CFI cefc .cfa: x29 64 + x19: .cfa -8 + ^ x20: .cfa -16 + ^ x21: .cfa -24 + ^ x22: .cfa -32 + ^ x23: .cfa -48 + ^ .ra: .cfa -56 + ^ x29: .cfa -64 + ^
STACK CFI cf58 .cfa: sp 64 +
STACK CFI cf68 .cfa: sp 0 +
STACK CFI cf6c .cfa: x29 64 +
STACK CFI cf88 .cfa: sp 64 +
STACK CFI cf98 .cfa: sp 0 +
STACK CFI cf9c .cfa: x29 64 +
STACK CFI cfcc .cfa: sp 64 +
STACK CFI cfdc .cfa: sp 0 +
STACK CFI INIT cfe0 34 .cfa: sp 0 +
STACK CFI cfe4 .cfa: sp 16 +
STACK CFI cfe8 .cfa: x29 16 + .ra: .cfa -8 + ^ x29: .cfa -16 + ^
STACK CFI INIT d014 24 .cfa: sp 0 +
STACK CFI d018 .cfa: sp 32 +
STACK CFI d020 .cfa: x29 32 + x19: .cfa -16 + ^ .ra: .cfa -24 + ^ x29: .cfa -32 + ^
STACK CFI d02c .cfa: sp 32 +
STACK CFI d034 .cfa: sp 0 +
STACK CFI INIT d9d8 4 .cfa: sp 0 +
STACK CFI INIT db68 5c .cfa: sp 0 +
STACK CFI db6c .cfa: sp 32 +
STACK CFI db74 .cfa: x29 32 + x19: .cfa -16 + ^ .ra: .cfa -24 + ^ x29: .cfa -32 + ^
STACK CFI dbb8 .cfa: sp 32 +
STACK CFI dbc0 .cfa: sp 0 +
STACK CFI INIT dbc4 64 .cfa: sp 0 +
STACK CFI dbc8 .cfa: sp 32 +
STACK CFI dbd0 .cfa: x29 32 + x19: .cfa -16 + ^ .ra: .cfa -24 + ^ x29: .cfa -32 + ^
STACK CFI dc1c .cfa: sp 32 +
STACK CFI dc24 .cfa: sp 0 +
STACK CFI INIT dc28 4 .cfa: sp 0 +
STACK CFI INIT dc2c 4 .cfa: sp 0 +
STACK CFI INIT dc30 34 .cfa: sp 0 +
STACK CFI dc34 .cfa: sp 32 +
STACK CFI dc3c .cfa: x29 32 + x19: .cfa -16 + ^ .ra: .cfa -24 + ^ x29: .cfa -32 + ^
STACK CFI dc58 .cfa: sp 32 +
STACK CFI dc60 .cfa: sp 0 +
STACK CFI INIT dc64 14 .cfa: sp 0 +
STACK CFI INIT dc78 4 .cfa: sp 0 +
STACK CFI INIT dc7c 4 .cfa: sp 0 +
STACK CFI INIT dc80 10 .cfa: sp 0 +
STACK CFI INIT dc90 1c .cfa: sp 0 +
STACK CFI INIT dcac c .cfa: sp 0 +
STACK CFI INIT e658 4 .cfa: sp 0 +
STACK CFI INIT e7e8 5c .cfa: sp 0 +
STACK CFI e7ec .cfa: sp 32 +
STACK CFI e7f4 .cfa: x29 32 + x19: .cfa -16 + ^ .ra: .cfa -24 + ^ x29: .cfa -32 + ^
STACK CFI e838 .cfa: sp 32 +
STACK CFI e840 .cfa: sp 0 +
STACK CFI INIT e844 64 .cfa: sp 0 +
STACK CFI e848 .cfa: sp 32 +
STACK CFI e850 .cfa: x29 32 + x19: .cfa -16 + ^ .ra: .cfa -24 + ^ x29: .cfa -32 + ^
STACK CFI e89c .cfa: sp 32 +
STACK CFI e8a4 .cfa: sp 0 +
STACK CFI INIT e8a8 4 .cfa: sp 0 +
STACK CFI INIT e8ac 4 .cfa: sp 0 +
STACK CFI INIT e8b0 34 .cfa: sp 0 +
STACK CFI e8b4 .cfa: sp 32 +
STACK CFI e8bc .cfa: x29 32 + x19: .cfa -16 + ^ .ra: .cfa -24 + ^ x29: .cfa -32 + ^
STACK CFI e8d8 .cfa: sp 32 +
STACK CFI e8e0 .cfa: sp 0 +
STACK CFI INIT e8e4 14 .cfa: sp 0 +
STACK CFI INIT e8f8 4 .cfa: sp 0 +
STACK CFI INIT e8fc 4 .cfa: sp 0 +
STACK CFI INIT e900 10 .cfa: sp 0 +
STACK CFI INIT e910 1c .cfa: sp 0 +
STACK CFI INIT e92c c .cfa: sp 0 +
STACK CFI INIT ef18 50 .cfa: sp 0 +
STACK CFI ef1c .cfa: sp 32 +
STACK CFI ef24 .cfa: x29 32 + x19: .cfa -16 + ^ .ra: .cfa -24 + ^ x29: .cfa -32 + ^
STACK CFI ef3c .cfa: sp 32 +
STACK CFI ef44 .cfa: sp 0 +
STACK CFI ef48 .cfa: x29 32 +
STACK CFI ef5c .cfa: sp 32 +
STACK CFI ef64 .cfa: sp 0 +
STACK CFI INIT efdc 4 .cfa: sp 0 +
STACK CFI INIT efe0 120 .cfa: sp 0 +
STACK CFI efe4 .cfa: sp 64 +
STACK CFI eff4 .cfa: x29 64 + x19: .cfa -8 + ^ x20: .cfa -16 + ^ x21: .cfa -24 + ^ x22: .cfa -32 + ^ x23: .cfa -40 + ^ x24: .cfa -48 + ^ .ra: .cfa -56 + ^ x29: .cfa -64 + ^
STACK CFI f0ec .cfa: sp 64 +
STACK CFI f0fc .cfa: sp 0 +
STACK CFI INIT f2d4 7c .cfa: sp 0 +
STACK CFI f2d8 .cfa: sp 32 +
STACK CFI f2e0 .cfa: x29 32 + x19: .cfa -8 + ^ x20: .cfa -16 + ^ .ra: .cfa -24 + ^ x29: .cfa -32 + ^
STACK CFI f338 .cfa: sp 32 +
STACK CFI f340 .cfa: sp 0 +
STACK CFI f344 .cfa: sp 32 +
STACK CFI f34c .cfa: sp 0 +
STACK CFI INIT f4a4 34 .cfa: sp 0 +
STACK CFI f4a8 .cfa: sp 16 +
STACK CFI f4ac .cfa: x29 16 + .ra: .cfa -8 + ^ x29: .cfa -16 + ^
STACK CFI INIT f604 80 .cfa: sp 0 +
STACK CFI f608 .cfa: sp 48 +
STACK CFI f614 .cfa: x29 48 + x19: .cfa -8 + ^ x20: .cfa -16 + ^ x21: .cfa -32 + ^ .ra: .cfa -40 + ^ x29: .cfa -48 + ^
STACK CFI f674 .cfa: sp 48 +
STACK CFI f680 .cfa: sp 0 +
STACK CFI INIT f684 24 .cfa: sp 0 +
STACK CFI f688 .cfa: sp 32 +
STACK CFI f690 .cfa: x29 32 + x19: .cfa -16 + ^ .ra: .cfa -24 + ^ x29: .cfa -32 + ^
STACK CFI f69c .cfa: sp 32 +
STACK CFI f6a4 .cfa: sp 0 +
STACK CFI INIT fba0 148 .cfa: sp 0 +
STACK CFI fba4 .cfa: sp 48 +
STACK CFI fbb0 .cfa: x29 48 + x19: .cfa -8 + ^ x20: .cfa -16 + ^ x21: .cfa -32 + ^ .ra: .cfa -40 + ^ x29: .cfa -48 + ^
STACK CFI fcd8 .cfa: sp 48 +
STACK CFI fce4 .cfa: sp 0 +
STACK CFI INIT fe50 4 .cfa: sp 0 +
STACK CFI INIT fe54 14 .cfa: sp 0 +
STACK CFI INIT 1008c 68 .cfa: sp 0 +
STACK CFI 10090 .cfa: sp 32 +
STACK CFI 10098 .cfa: x29 32 + x19: .cfa -8 + ^ x20: .cfa -16 + ^ .ra: .cfa -24 + ^ x29: .cfa -32 + ^
STACK CFI 100b0 .cfa: sp 32 +
STACK CFI 100b8 .cfa: sp 0 +
STACK CFI 100bc .cfa: x29 32 +
STACK CFI 100e8 .cfa: sp 32 +
STACK CFI 100f0 .cfa: sp 0 +
STACK CFI INIT 100f4 14 .cfa: sp 0 +
STACK CFI 100f8 .cfa: sp 16 +
STACK CFI 100fc .cfa: x29 16 + .ra: .cfa -8 + ^ x29: .cfa -16 + ^
STACK CFI INIT 10108 4 .cfa: sp 0 +
STACK CFI INIT 1010c 14 .cfa: sp 0 +
STACK CFI INIT 10120 4a4 .cfa: sp 0 +
STACK CFI 10124 .cfa: sp 32 +
STACK CFI 1012c .cfa: x29 32 + x19: .cfa -8 + ^ x20: .cfa -16 + ^ .ra: .cfa -24 + ^ x29: .cfa -32 + ^
STACK CFI 1050c .cfa: sp 32 +
STACK CFI 10514 .cfa: sp 0 +
STACK CFI 10518 .cfa: x29 32 +
STACK CFI INIT 105c4 84 .cfa: sp 0 +
STACK CFI 105cc .cfa: sp 32 +
STACK CFI 105d4 .cfa: x29 32 + x19: .cfa -8 + ^ x20: .cfa -16 + ^ .ra: .cfa -24 + ^ x29: .cfa -32 + ^
STACK CFI 10614 .cfa: sp 32 +
STACK CFI 1061c .cfa: sp 0 +
STACK CFI 10624 .cfa: x29 32 +
STACK CFI INIT 10c98 138 .cfa: sp 0 +
STACK CFI 10c9c .cfa: sp 48 +
STACK CFI 10ca8 .cfa: x29 32 + x19: .cfa -16 + ^ .ra: .cfa -24 + ^ x29: .cfa -32 + ^
STACK CFI 10cd0 .cfa: sp 48 +
STACK CFI 10cdc .cfa: sp 0 +
STACK CFI 10ce0 .cfa: x29 32 +
STACK CFI 10d30 .cfa: sp 48 +
STACK CFI 10d3c .cfa: sp 0 +
STACK CFI 10d40 .cfa: x29 32 +
STACK CFI INIT 10e78 b0 .cfa: sp 0 +
STACK CFI 10e7c .cfa: sp 32 +
STACK CFI 10e84 .cfa: x29 32 + x19: .cfa -16 + ^ .ra: .cfa -24 + ^ x29: .cfa -32 + ^
STACK CFI 10f1c .cfa: sp 32 +
STACK CFI 10f24 .cfa: sp 0 +
STACK CFI INIT 10f28 50 .cfa: sp 0 +
STACK CFI 10f2c .cfa: sp 32 +
STACK CFI 10f34 .cfa: x29 32 + x19: .cfa -16 + ^ .ra: .cfa -24 + ^ x29: .cfa -32 + ^
STACK CFI 10f4c .cfa: sp 32 +
STACK CFI 10f54 .cfa: sp 0 +
STACK CFI 10f58 .cfa: x29 32 +
STACK CFI 10f6c .cfa: sp 32 +
STACK CFI 10f74 .cfa: sp 0 +
STACK CFI INIT 10f78 64 .cfa: sp 0 +
STACK CFI 10f7c .cfa: sp 32 +
STACK CFI 10f84 .cfa: x29 32 + x19: .cfa -16 + ^ .ra: .cfa -24 + ^ x29: .cfa -32 + ^
STACK CFI 10fb0 .cfa: sp 32 +
STACK CFI 10fb8 .cfa: sp 0 +
STACK CFI 10fbc .cfa: x29 32 +
STACK CFI 10fd0 .cfa: sp 32 +
STACK CFI 10fd8 .cfa: sp 0 +
STACK CFI INIT 10fdc 168 .cfa: sp 0 +
STACK CFI 10fe0 .cfa: sp 80 +
STACK CFI 10ff4 .cfa: x29 80 + x19: .cfa -8 + ^ x20: .cfa -16 + ^ x21: .cfa -24 + ^ x22: .cfa -32 + ^ x23: .cfa -40 + ^ x24: .cfa -48 + ^ x25: .cfa -56 + ^ x26: .cfa -64 + ^ .ra: .cfa -72 + ^ x29: .cfa -80 + ^
STACK CFI 1112c .cfa: sp 80 +
STACK CFI 11140 .cfa: sp 0 +
STACK CFI INIT 117cc 4 .cfa: sp 0 +
STACK CFI INIT 121b0 164 .cfa: sp 0 +
STACK CFI 121b4 .cfa: sp 48 +
STACK CFI 121c0 .cfa: x29 32 + x19: .cfa -16 + ^ .ra: .cfa -24 + ^ x29: .cfa -32 + ^
STACK CFI 121e8 .cfa: sp 48 +
STACK CFI 121f4 .cfa: sp 0 +
STACK CFI 121f8 .cfa: x29 32 +
STACK CFI 12214 .cfa: sp 48 +
STACK CFI 12220 .cfa: sp 0 +
STACK CFI 12224 .cfa: x29 32 +
STACK CFI 12274 .cfa: sp 48 +
STACK CFI 12280 .cfa: sp 0 +
STACK CFI 12284 .cfa: x29 32 +
STACK CFI INIT 123bc b0 .cfa: sp 0 +
STACK CFI 123c0 .cfa: sp 32 +
STACK CFI 123c8 .cfa: x29 32 + x19: .cfa -16 + ^ .ra: .cfa -24 + ^ x29: .cfa -32 + ^
STACK CFI 12460 .cfa: sp 32 +
STACK CFI 12468 .cfa: sp 0 +
STACK CFI INIT 1246c 88 .cfa: sp 0 +
STACK CFI 12470 .cfa: sp 32 +
STACK CFI 12478 .cfa: x29 32 + x19: .cfa -16 + ^ .ra: .cfa -24 + ^ x29: .cfa -32 + ^
STACK CFI 124dc .cfa: sp 32 +
STACK CFI 124e4 .cfa: sp 0 +
STACK CFI 124e8 .cfa: sp 32 +
STACK CFI 124f0 .cfa: sp 0 +
STACK CFI INIT 128b4 4 .cfa: sp 0 +
STACK CFI INIT 12f3c b0 .cfa: sp 0 +
STACK CFI 12f40 .cfa: sp 32 +
STACK CFI 12f48 .cfa: x29 32 + x19: .cfa -16 + ^ .ra: .cfa -24 + ^ x29: .cfa -32 + ^
STACK CFI 12fe0 .cfa: sp 32 +
STACK CFI 12fe8 .cfa: sp 0 +
STACK CFI INIT 12fec 3c .cfa: sp 0 +
STACK CFI 12ff0 .cfa: sp 32 +
STACK CFI 12ff8 .cfa: x29 32 + x19: .cfa -16 + ^ .ra: .cfa -24 + ^ x29: .cfa -32 + ^
STACK CFI 13004 .cfa: sp 32 +
STACK CFI 1300c .cfa: sp 0 +
STACK CFI 13010 .cfa: x29 32 +
STACK CFI 1301c .cfa: sp 32 +
STACK CFI 13024 .cfa: sp 0 +
STACK CFI INIT 13248 64 .cfa: sp 0 +
STACK CFI 1324c .cfa: sp 32 +
STACK CFI 13254 .cfa: x29 32 + x19: .cfa -16 + ^ .ra: .cfa -24 + ^ x29: .cfa -32 + ^
STACK CFI 13280 .cfa: sp 32 +
STACK CFI 13288 .cfa: sp 0 +
STACK CFI 1328c .cfa: x29 32 +
STACK CFI 132a0 .cfa: sp 32 +
STACK CFI 132a8 .cfa: sp 0 +
STACK CFI INIT 14370 4 .cfa: sp 0 +
STACK CFI INIT 14374 14 .cfa: sp 0 +
STACK CFI INIT 14388 14 .cfa: sp 0 +
STACK CFI 1438c .cfa: sp 16 +
STACK CFI 14390 .cfa: x29 16 + .ra: .cfa -8 + ^ x29: .cfa -16 + ^
STACK CFI INIT 1439c c .cfa: sp 0 +
STACK CFI INIT 143a8 24c .cfa: sp 0 +
STACK CFI INIT 145f4 a0 .cfa: sp 0 +
STACK CFI 14600 .cfa: sp 32 +
STACK CFI 14658 .cfa: sp 0 +
STACK CFI 1465c .cfa: sp 32 +
STACK CFI 14664 .cfa: sp 0 +
STACK CFI 14668 .cfa: sp 32 +
STACK CFI 1467c .cfa: sp 0 +
STACK CFI 14680 .cfa: sp 32 +
STACK CFI 14690 .cfa: sp 0 +
STACK CFI INIT 14694 38 .cfa: sp 0 +
STACK CFI 146a0 .cfa: sp 32 +
STACK CFI 146c8 .cfa: sp 0 +
STACK CFI INIT 14960 7c .cfa: sp 0 +
STACK CFI 14964 .cfa: sp 32 +
STACK CFI 1496c .cfa: x29 32 + x19: .cfa -16 + ^ .ra: .cfa -24 + ^ x29: .cfa -32 + ^
STACK CFI 14998 .cfa: sp 32 +
STACK CFI 149a0 .cfa: sp 0 +
STACK CFI 149a4 .cfa: x29 32 +
STACK CFI 149d0 .cfa: sp 32 +
STACK CFI 149d8 .cfa: sp 0 +
STACK CFI INIT 14a2c 2c .cfa: sp 0 +
STACK CFI 14a30 .cfa: sp 32 +
STACK CFI 14a38 .cfa: x29 32 + x19: .cfa -16 + ^ .ra: .cfa -24 + ^ x29: .cfa -32 + ^
STACK CFI 14a4c .cfa: sp 32 +
STACK CFI 14a54 .cfa: sp 0 +
STACK CFI INIT 15218 64 .cfa: sp 0 +
STACK CFI 1521c .cfa: sp 32 +
STACK CFI 15224 .cfa: x29 32 + x19: .cfa -16 + ^ .ra: .cfa -24 + ^ x29: .cfa -32 + ^
STACK CFI 15240 .cfa: sp 32 +
STACK CFI 15248 .cfa: sp 0 +
STACK CFI 1524c .cfa: x29 32 +
STACK CFI 15270 .cfa: sp 32 +
STACK CFI 15278 .cfa: sp 0 +
STACK CFI INIT 1527c 570 .cfa: sp 0 +
STACK CFI 15280 .cfa: sp 176 +
STACK CFI 15294 .cfa: x29 64 + x19: .cfa -8 + ^ x20: .cfa -16 + ^ x21: .cfa -24 + ^ x22: .cfa -32 + ^ x23: .cfa -40 + ^ x24: .cfa -48 + ^ .ra: .cfa -56 + ^ x29: .cfa -64 + ^
STACK CFI 154c4 .cfa: sp 176 +
STACK CFI 154d8 .cfa: sp 0 +
STACK CFI 154dc .cfa: x29 64 +
STACK CFI 15528 .cfa: sp 176 +
STACK CFI 1553c .cfa: sp 0 +
STACK CFI 15540 .cfa: x29 64 +
STACK CFI 15578 .cfa: sp 176 +
STACK CFI 1558c .cfa: sp 0 +
STACK CFI 15590 .cfa: x29 64 +
STACK CFI 155a8 .cfa: sp 176 +
STACK CFI 155bc .cfa: sp 0 +
STACK CFI 155c0 .cfa: x29 64 +
STACK CFI 155e0 .cfa: sp 176 +
STACK CFI 155f4 .cfa: sp 0 +
STACK CFI 155f8 .cfa: x29 64 +
STACK CFI 15610 .cfa: sp 176 +
STACK CFI 15624 .cfa: sp 0 +
STACK CFI 15628 .cfa: x29 64 +
STACK CFI 1563c .cfa: sp 176 +
STACK CFI 15650 .cfa: sp 0 +
STACK CFI 15654 .cfa: x29 64 +
STACK CFI 15668 .cfa: sp 176 +
STACK CFI 1567c .cfa: sp 0 +
STACK CFI 15680 .cfa: x29 64 +
STACK CFI 15690 .cfa: sp 176 +
STACK CFI 156a4 .cfa: sp 0 +
STACK CFI 156a8 .cfa: x29 64 +
STACK CFI 156b8 .cfa: sp 176 +
STACK CFI 156cc .cfa: sp 0 +
STACK CFI 156d0 .cfa: x29 64 +
STACK CFI 156e8 .cfa: sp 176 +
STACK CFI 156fc .cfa: sp 0 +
STACK CFI 15700 .cfa: x29 64 +
STACK CFI 15714 .cfa: sp 176 +
STACK CFI 15728 .cfa: sp 0 +
STACK CFI 1572c .cfa: x29 64 +
STACK CFI 15744 .cfa: sp 176 +
STACK CFI 15758 .cfa: sp 0 +
STACK CFI 1575c .cfa: x29 64 +
STACK CFI 15788 .cfa: sp 176 +
STACK CFI 1579c .cfa: sp 0 +
STACK CFI 157a0 .cfa: x29 64 +
STACK CFI 157b4 .cfa: sp 176 +
STACK CFI 157c8 .cfa: sp 0 +
STACK CFI 157cc .cfa: x29 64 +
STACK CFI INIT 157ec 228 .cfa: sp 0 +
STACK CFI INIT 15a14 2dc .cfa: sp 0 +
STACK CFI INIT 15cf0 53c .cfa: sp 0 +
STACK CFI INIT 1622c 78 .cfa: sp 0 +
STACK CFI 16230 .cfa: sp 48 +
STACK CFI 1623c .cfa: x29 48 + x19: .cfa -8 + ^ x20: .cfa -16 + ^ x21: .cfa -24 + ^ x22: .cfa -32 + ^ .ra: .cfa -40 + ^ x29: .cfa -48 + ^
STACK CFI 16284 .cfa: sp 48 +
STACK CFI 16290 .cfa: sp 0 +
STACK CFI 16294 .cfa: sp 48 +
STACK CFI 162a0 .cfa: sp 0 +
STACK CFI INIT 162a4 8c .cfa: sp 0 +
STACK CFI 162a8 .cfa: sp 32 +
STACK CFI 162b0 .cfa: x29 32 + x19: .cfa -16 + ^ .ra: .cfa -24 + ^ x29: .cfa -32 + ^
STACK CFI 162e4 .cfa: sp 32 +
STACK CFI 162ec .cfa: sp 0 +
STACK CFI 162f0 .cfa: x29 32 +
STACK CFI 16324 .cfa: sp 32 +
STACK CFI 1632c .cfa: sp 0 +
STACK CFI INIT 16330 24 .cfa: sp 0 +
STACK CFI 16334 .cfa: sp 32 +
STACK CFI 1633c .cfa: x29 32 + x19: .cfa -16 + ^ .ra: .cfa -24 + ^ x29: .cfa -32 + ^
STACK CFI 16348 .cfa: sp 32 +
STACK CFI 16350 .cfa: sp 0 +
STACK CFI INIT 16354 150 .cfa: sp 0 +
STACK CFI 16358 .cfa: sp 48 +
STACK CFI 16364 .cfa: x29 48 + x19: .cfa -8 + ^ x20: .cfa -16 + ^ x21: .cfa -24 + ^ x22: .cfa -32 + ^ .ra: .cfa -40 + ^ x29: .cfa -48 + ^
STACK CFI 16494 .cfa: sp 48 +
STACK CFI 164a0 .cfa: sp 0 +
STACK CFI INIT 164a4 68 .cfa: sp 0 +
STACK CFI 164a8 .cfa: sp 64 +
STACK CFI 164b4 .cfa: x29 32 + x19: .cfa -16 + ^ .ra: .cfa -24 + ^ x29: .cfa -32 + ^
STACK CFI 164f8 .cfa: sp 64 +
STACK CFI 16504 .cfa: sp 0 +
STACK CFI 16508 .cfa: x29 32 +
STACK CFI INIT 1650c 90 .cfa: sp 0 +
STACK CFI 16510 .cfa: sp 32 +
STACK CFI 16518 .cfa: x29 32 + x19: .cfa -8 + ^ x20: .cfa -16 + ^ .ra: .cfa -24 + ^ x29: .cfa -32 + ^
STACK CFI 16544 .cfa: sp 32 +
STACK CFI 1654c .cfa: sp 0 +
STACK CFI 16550 .cfa: x29 32 +
STACK CFI 16590 .cfa: sp 32 +
STACK CFI 16598 .cfa: sp 0 +
STACK CFI INIT 1659c ec .cfa: sp 0 +
STACK CFI 165a0 .cfa: sp 112 +
STACK CFI 165b0 .cfa: x29 48 + x19: .cfa -8 + ^ x20: .cfa -16 + ^ x21: .cfa -32 + ^ .ra: .cfa -40 + ^ x29: .cfa -48 + ^
STACK CFI 16670 .cfa: sp 112 +
STACK CFI 16680 .cfa: sp 0 +
STACK CFI 16684 .cfa: x29 48 +
STACK CFI INIT 16688 ec .cfa: sp 0 +
STACK CFI 1668c .cfa: sp 112 +
STACK CFI 1669c .cfa: x29 48 + x19: .cfa -8 + ^ x20: .cfa -16 + ^ x21: .cfa -32 + ^ .ra: .cfa -40 + ^ x29: .cfa -48 + ^
STACK CFI 1675c .cfa: sp 112 +
STACK CFI 1676c .cfa: sp 0 +
STACK CFI 16770 .cfa: x29 48 +
STACK CFI INIT 16774 48 .cfa: sp 0 +
STACK CFI 16778 .cfa: sp 32 +
STACK CFI 16780 .cfa: x29 32 + x19: .cfa -8 + ^ x20: .cfa -16 + ^ .ra: .cfa -24 + ^ x29: .cfa -32 + ^
STACK CFI 167a4 .cfa: sp 32 +
STACK CFI 167ac .cfa: sp 0 +
STACK CFI 167b0 .cfa: x29 32 +
STACK CFI INIT 167bc 98 .cfa: sp 0 +
STACK CFI 167c0 .cfa: sp 80 +
STACK CFI 167cc .cfa: x29 32 + x19: .cfa -16 + ^ .ra: .cfa -24 + ^ x29: .cfa -32 + ^
STACK CFI 16840 .cfa: sp 80 +
STACK CFI 1684c .cfa: sp 0 +
STACK CFI 16850 .cfa: x29 32 +
STACK CFI INIT 16854 260 .cfa: sp 0 +
STACK CFI 16858 .cfa: sp 112 +
STACK CFI 16870 .cfa: x29 80 + x19: .cfa -8 + ^ x20: .cfa -16 + ^ x21: .cfa -24 + ^ x22: .cfa -32 + ^ x23: .cfa -40 + ^ x24: .cfa -48 + ^ x25: .cfa -64 + ^ .ra: .cfa -72 + ^ x29: .cfa -80 + ^
STACK CFI 16a54 .cfa: sp 112 +
STACK CFI 16a6c .cfa: sp 0 +
STACK CFI 16a70 .cfa: x29 80 +
STACK CFI INIT 16ab4 150 .cfa: sp 0 +
STACK CFI 16ab8 .cfa: sp 48 +
STACK CFI 16ac4 .cfa: x29 48 + x19: .cfa -8 + ^ x20: .cfa -16 + ^ x21: .cfa -24 + ^ x22: .cfa -32 + ^ .ra: .cfa -40 + ^ x29: .cfa -48 + ^
STACK CFI 16bf4 .cfa: sp 48 +
STACK CFI 16c00 .cfa: sp 0 +
STACK CFI INIT 16c04 1e0 .cfa: sp 0 +
STACK CFI 16c08 .cfa: sp 96 +
STACK CFI 16c1c .cfa: x29 64 + x19: .cfa -8 + ^ x20: .cfa -16 + ^ x21: .cfa -24 + ^ x22: .cfa -32 + ^ x23: .cfa -40 + ^ x24: .cfa -48 + ^ .ra: .cfa -56 + ^ x29: .cfa -64 + ^
STACK CFI 16d9c .cfa: sp 96 +
STACK CFI 16db0 .cfa: sp 0 +
STACK CFI 16db4 .cfa: x29 64 +
STACK CFI INIT 16de4 284 .cfa: sp 0 +
STACK CFI 16de8 .cfa: sp 112 +
STACK CFI 16e00 .cfa: x29 80 + x19: .cfa -8 + ^ x20: .cfa -16 + ^ x21: .cfa -24 + ^ x22: .cfa -32 + ^ x23: .cfa -40 + ^ x24: .cfa -48 + ^ x25: .cfa -64 + ^ .ra: .cfa -72 + ^ x29: .cfa -80 + ^
STACK CFI 17008 .cfa: sp 112 +
STACK CFI 17020 .cfa: sp 0 +
STACK CFI 17024 .cfa: x29 80 +
STACK CFI INIT 17068 208 .cfa: sp 0 +
STACK CFI 1706c .cfa: sp 96 +
STACK CFI 17080 .cfa: x29 64 + x19: .cfa -8 + ^ x20: .cfa -16 + ^ x21: .cfa -24 + ^ x22: .cfa -32 + ^ x23: .cfa -40 + ^ x24: .cfa -48 + ^ .ra: .cfa -56 + ^ x29: .cfa -64 + ^
STACK CFI 17228 .cfa: sp 96 +
STACK CFI 1723c .cfa: sp 0 +
STACK CFI 17240 .cfa: x29 64 +
STACK CFI INIT 17270 360 .cfa: sp 0 +
STACK CFI 17274 .cfa: sp 160 +
STACK CFI 17290 .cfa: x29 96 + x19: .cfa -8 + ^ x20: .cfa -16 + ^ x21: .cfa -24 + ^ x22: .cfa -32 + ^ x23: .cfa -40 + ^ x24: .cfa -48 + ^ x25: .cfa -56 + ^ x26: .cfa -64 + ^ x27: .cfa -72 + ^ x28: .cfa -80 + ^ .ra: .cfa -88 + ^ x29: .cfa -96 + ^
STACK CFI 1755c .cfa: sp 160 +
STACK CFI 17578 .cfa: sp 0 +
STACK CFI 1757c .cfa: x29 96 +
STACK CFI INIT 175d0 314 .cfa: sp 0 +
STACK CFI 175d4 .cfa: sp 144 +
STACK CFI 175f0 .cfa: x29 96 + x19: .cfa -8 + ^ x20: .cfa -16 + ^ x21: .cfa -24 + ^ x22: .cfa -32 + ^ x23: .cfa -40 + ^ x24: .cfa -48 + ^ x25: .cfa -56 + ^ x26: .cfa -64 + ^ x27: .cfa -72 + ^ x28: .cfa -80 + ^ .ra: .cfa -88 + ^ x29: .cfa -96 + ^
STACK CFI 1786c .cfa: sp 144 +
STACK CFI 17888 .cfa: sp 0 +
STACK CFI 1788c .cfa: x29 96 +
STACK CFI INIT 178e4 290 .cfa: sp 0 +
STACK CFI 178e8 .cfa: sp 128 +
STACK CFI 17900 .cfa: x29 80 + x19: .cfa -8 + ^ x20: .cfa -16 + ^ x21: .cfa -24 + ^ x22: .cfa -32 + ^ x23: .cfa -40 + ^ x24: .cfa -48 + ^ x25: .cfa -56 + ^ x26: .cfa -64 + ^ .ra: .cfa -72 + ^ x29: .cfa -80 + ^
STACK CFI 17b54 .cfa: sp 128 +
STACK CFI 17b6c .cfa: sp 0 +
STACK CFI 17b70 .cfa: x29 80 +
STACK CFI INIT 17b74 ddc .cfa: sp 0 +
STACK CFI 17b78 .cfa: sp 144 +
STACK CFI 17b94 .cfa: x29 96 + x19: .cfa -8 + ^ x20: .cfa -16 + ^ x21: .cfa -24 + ^ x22: .cfa -32 + ^ x23: .cfa -40 + ^ x24: .cfa -48 + ^ x25: .cfa -56 + ^ x26: .cfa -64 + ^ x27: .cfa -72 + ^ x28: .cfa -80 + ^ .ra: .cfa -88 + ^ x29: .cfa -96 + ^
STACK CFI 18828 .cfa: sp 144 +
STACK CFI 18844 .cfa: sp 0 +
STACK CFI 18848 .cfa: x29 96 +
STACK CFI INIT 18950 1d0 .cfa: sp 0 +
STACK CFI 18954 .cfa: sp 80 +
STACK CFI 18968 .cfa: x29 80 + x19: .cfa -8 + ^ x20: .cfa -16 + ^ x21: .cfa -24 + ^ x22: .cfa -32 + ^ x23: .cfa -40 + ^ x24: .cfa -48 + ^ x25: .cfa -64 + ^ .ra: .cfa -72 + ^ x29: .cfa -80 + ^
STACK CFI 18b08 .cfa: sp 80 +
STACK CFI 18b1c .cfa: sp 0 +
STACK CFI INIT 18b20 23c .cfa: sp 0 +
STACK CFI 18b24 .cfa: sp 112 +
STACK CFI 18b38 .cfa: x29 64 + x19: .cfa -8 + ^ x20: .cfa -16 + ^ x21: .cfa -24 + ^ x22: .cfa -32 + ^ x23: .cfa -40 + ^ x24: .cfa -48 + ^ .ra: .cfa -56 + ^ x29: .cfa -64 + ^
STACK CFI 18d14 .cfa: sp 112 +
STACK CFI 18d28 .cfa: sp 0 +
STACK CFI 18d2c .cfa: x29 64 +
STACK CFI INIT 18d5c 30c .cfa: sp 0 +
STACK CFI 18d60 .cfa: sp 80 +
STACK CFI 18d74 .cfa: x29 64 + x19: .cfa -8 + ^ x20: .cfa -16 + ^ x21: .cfa -24 + ^ x22: .cfa -32 + ^ x23: .cfa -40 + ^ x24: .cfa -48 + ^ .ra: .cfa -56 + ^ x29: .cfa -64 + ^
STACK CFI 18ef0 .cfa: sp 80 +
STACK CFI 18f04 .cfa: sp 0 +
STACK CFI 18f08 .cfa: x29 64 +
STACK CFI INIT 19068 178 .cfa: sp 0 +
STACK CFI 1906c .cfa: sp 80 +
STACK CFI 19080 .cfa: x29 64 + x19: .cfa -8 + ^ x20: .cfa -16 + ^ x21: .cfa -24 + ^ x22: .cfa -32 + ^ x23: .cfa -40 + ^ x24: .cfa -48 + ^ .ra: .cfa -56 + ^ x29: .cfa -64 + ^
STACK CFI 191c4 .cfa: sp 80 +
STACK CFI 191d8 .cfa: sp 0 +
STACK CFI 191dc .cfa: x29 64 +
STACK CFI INIT 191e0 178 .cfa: sp 0 +
STACK CFI 191e4 .cfa: sp 80 +
STACK CFI 191f8 .cfa: x29 64 + x19: .cfa -8 + ^ x20: .cfa -16 + ^ x21: .cfa -24 + ^ x22: .cfa -32 + ^ x23: .cfa -40 + ^ x24: .cfa -48 + ^ .ra: .cfa -56 + ^ x29: .cfa -64 + ^
STACK CFI 1933c .cfa: sp 80 +
STACK CFI 19350 .cfa: sp 0 +
STACK CFI 19354 .cfa: x29 64 +
STACK CFI INIT 19358 240 .cfa: sp 0 +
STACK CFI 1935c .cfa: sp 96 +
STACK CFI 19374 .cfa: x29 96 + x19: .cfa -8 + ^ x20: .cfa -16 + ^ x21: .cfa -24 + ^ x22: .cfa -32 + ^ x23: .cfa -40 + ^ x24: .cfa -48 + ^ x25: .cfa -56 + ^ x26: .cfa -64 + ^ x27: .cfa -72 + ^ x28: .cfa -80 + ^ .ra: .cfa -88 + ^ x29: .cfa -96 + ^
STACK CFI 1957c .cfa: sp 96 +
STACK CFI 19594 .cfa: sp 0 +
STACK CFI INIT 1a20c 154 .cfa: sp 0 +
STACK CFI 1a210 .cfa: sp 96 +
STACK CFI 1a224 .cfa: x29 64 + x19: .cfa -8 + ^ x20: .cfa -16 + ^ x21: .cfa -24 + ^ x22: .cfa -32 + ^ x23: .cfa -48 + ^ .ra: .cfa -56 + ^ x29: .cfa -64 + ^
STACK CFI 1a304 .cfa: sp 96 +
STACK CFI 1a318 .cfa: sp 0 +
STACK CFI 1a31c .cfa: x29 64 +
STACK CFI INIT 1a5cc 44 .cfa: sp 0 +
STACK CFI 1a5d0 .cfa: sp 32 +
STACK CFI 1a5d8 .cfa: x29 32 + x19: .cfa -16 + ^ .ra: .cfa -24 + ^ x29: .cfa -32 + ^
STACK CFI 1a5f4 .cfa: sp 32 +
STACK CFI 1a5fc .cfa: sp 0 +
STACK CFI 1a600 .cfa: x29 32 +
STACK CFI 1a604 .cfa: sp 32 +
STACK CFI 1a60c .cfa: sp 0 +
STACK CFI INIT 1a610 1d0 .cfa: sp 0 +
STACK CFI 1a614 .cfa: sp 64 +
STACK CFI 1a624 .cfa: x29 64 + x19: .cfa -8 + ^ x20: .cfa -16 + ^ x21: .cfa -24 + ^ x22: .cfa -32 + ^ x23: .cfa -40 + ^ x24: .cfa -48 + ^ .ra: .cfa -56 + ^ x29: .cfa -64 + ^
STACK CFI 1a6e4 .cfa: sp 64 +
STACK CFI 1a6f4 .cfa: sp 0 +
STACK CFI 1a6f8 .cfa: x29 64 +
STACK CFI INIT 1a7e0 17c .cfa: sp 0 +
STACK CFI INIT 1a95c ac .cfa: sp 0 +
STACK CFI 1a960 .cfa: sp 64 +
STACK CFI 1a970 .cfa: x29 64 + x19: .cfa -8 + ^ x20: .cfa -16 + ^ x21: .cfa -24 + ^ x22: .cfa -32 + ^ x23: .cfa -48 + ^ .ra: .cfa -56 + ^ x29: .cfa -64 + ^
STACK CFI 1a9ec .cfa: sp 64 +
STACK CFI 1a9fc .cfa: sp 0 +
STACK CFI 1aa00 .cfa: x29 64 +
STACK CFI INIT 1aa08 110 .cfa: sp 0 +
STACK CFI 1aa0c .cfa: sp 64 +
STACK CFI 1aa1c .cfa: x29 64 + x19: .cfa -8 + ^ x20: .cfa -16 + ^ x21: .cfa -24 + ^ x22: .cfa -32 + ^ x23: .cfa -40 + ^ x24: .cfa -48 + ^ .ra: .cfa -56 + ^ x29: .cfa -64 + ^
STACK CFI 1aafc .cfa: sp 64 +
STACK CFI 1ab0c .cfa: sp 0 +
STACK CFI 1ab10 .cfa: x29 64 +
STACK CFI INIT 1aed0 a0 .cfa: sp 0 +
STACK CFI 1aed4 .cfa: sp 48 +
STACK CFI 1aee0 .cfa: x29 48 + x19: .cfa -8 + ^ x20: .cfa -16 + ^ x21: .cfa -24 + ^ x22: .cfa -32 + ^ .ra: .cfa -40 + ^ x29: .cfa -48 + ^
STACK CFI 1af4c .cfa: sp 48 +
STACK CFI 1af58 .cfa: sp 0 +
STACK CFI 1af5c .cfa: sp 48 +
STACK CFI 1af68 .cfa: sp 0 +
STACK CFI 1af6c .cfa: x29 48 +
STACK CFI INIT 1bc24 158 .cfa: sp 0 +
STACK CFI 1bc28 .cfa: sp 96 +
STACK CFI 1bc3c .cfa: x29 64 + x19: .cfa -8 + ^ x20: .cfa -16 + ^ x21: .cfa -24 + ^ x22: .cfa -32 + ^ x23: .cfa -48 + ^ .ra: .cfa -56 + ^ x29: .cfa -64 + ^
STACK CFI 1bd20 .cfa: sp 96 +
STACK CFI 1bd34 .cfa: sp 0 +
STACK CFI 1bd38 .cfa: x29 64 +
STACK CFI INIT 1bd7c 190 .cfa: sp 0 +
STACK CFI INIT 1ca08 1dc .cfa: sp 0 +
STACK CFI 1ca0c .cfa: sp 80 +
STACK CFI 1ca20 .cfa: x29 80 + x19: .cfa -8 + ^ x20: .cfa -16 + ^ x21: .cfa -24 + ^ x22: .cfa -32 + ^ x23: .cfa -40 + ^ x24: .cfa -48 + ^ x25: .cfa -64 + ^ .ra: .cfa -72 + ^ x29: .cfa -80 + ^
STACK CFI 1cbcc .cfa: sp 80 +
STACK CFI 1cbe0 .cfa: sp 0 +
STACK CFI INIT 1e014 124 .cfa: sp 0 +
STACK CFI 1e044 .cfa: sp 32 +
STACK CFI 1e04c .cfa: x29 32 + x19: .cfa -8 + ^ x20: .cfa -16 + ^ .ra: .cfa -24 + ^ x29: .cfa -32 + ^
STACK CFI 1e12c .cfa: sp 32 +
STACK CFI 1e134 .cfa: sp 0 +
STACK CFI INIT 1e894 320 .cfa: sp 0 +
STACK CFI 1e898 .cfa: sp 64 +
STACK CFI 1e8a8 .cfa: x29 64 + x19: .cfa -8 + ^ x20: .cfa -16 + ^ x21: .cfa -24 + ^ x22: .cfa -32 + ^ x23: .cfa -40 + ^ x24: .cfa -48 + ^ .ra: .cfa -56 + ^ x29: .cfa -64 + ^
STACK CFI 1e924 .cfa: sp 64 +
STACK CFI 1e934 .cfa: sp 0 +
STACK CFI 1e938 .cfa: x29 64 +
STACK CFI 1eb0c .cfa: sp 64 +
STACK CFI 1eb1c .cfa: sp 0 +
STACK CFI 1eb20 .cfa: x29 64 +
STACK CFI 1eb30 .cfa: sp 64 +
STACK CFI 1eb40 .cfa: sp 0 +
STACK CFI 1eb44 .cfa: x29 64 +
STACK CFI INIT 1ebb4 a0 .cfa: sp 0 +
STACK CFI 1ebb8 .cfa: sp 48 +
STACK CFI 1ebc4 .cfa: x29 48 + x19: .cfa -8 + ^ x20: .cfa -16 + ^ x21: .cfa -24 + ^ x22: .cfa -32 + ^ .ra: .cfa -40 + ^ x29: .cfa -48 + ^
STACK CFI 1ec30 .cfa: sp 48 +
STACK CFI 1ec3c .cfa: sp 0 +
STACK CFI 1ec40 .cfa: sp 48 +
STACK CFI 1ec4c .cfa: sp 0 +
STACK CFI 1ec50 .cfa: x29 48 +
STACK CFI INIT 1fb04 160 .cfa: sp 0 +
STACK CFI 1fb08 .cfa: sp 64 +
STACK CFI 1fb18 .cfa: x29 64 + x19: .cfa -8 + ^ x20: .cfa -16 + ^ x21: .cfa -24 + ^ x22: .cfa -32 + ^ x23: .cfa -48 + ^ .ra: .cfa -56 + ^ x29: .cfa -64 + ^
STACK CFI 1fc10 .cfa: sp 64 +
STACK CFI 1fc20 .cfa: sp 0 +
STACK CFI 1fc24 .cfa: x29 64 +
STACK CFI INIT 1fc64 214 .cfa: sp 0 +
STACK CFI 1fc68 .cfa: sp 128 +
STACK CFI 1fc84 .cfa: x29 96 + x19: .cfa -8 + ^ x20: .cfa -16 + ^ x21: .cfa -24 + ^ x22: .cfa -32 + ^ x23: .cfa -40 + ^ x24: .cfa -48 + ^ x25: .cfa -56 + ^ x26: .cfa -64 + ^ x27: .cfa -80 + ^ .ra: .cfa -88 + ^ x29: .cfa -96 + ^
STACK CFI 1fe00 .cfa: sp 128 +
STACK CFI 1fe1c .cfa: sp 0 +
STACK CFI 1fe20 .cfa: x29 96 +
STACK CFI INIT 21b14 290 .cfa: sp 0 +
STACK CFI 21b18 .cfa: sp 16 +
STACK CFI 21b1c .cfa: x29 16 + .ra: .cfa -8 + ^ x29: .cfa -16 + ^
STACK CFI 21ba8 .cfa: sp 16 +
STACK CFI 21bac .cfa: sp 0 +
STACK CFI 21bb0 .cfa: x29 16 +
STACK CFI 21c00 .cfa: sp 16 +
STACK CFI 21c04 .cfa: sp 0 +
STACK CFI 21c08 .cfa: x29 16 +
STACK CFI 21d6c .cfa: sp 16 +
STACK CFI 21d70 .cfa: sp 0 +
STACK CFI 21d74 .cfa: x29 16 +
STACK CFI INIT 21da4 158 .cfa: sp 0 +
STACK CFI 21da8 .cfa: sp 112 +
STACK CFI 21dc4 .cfa: x29 96 + x19: .cfa -8 + ^ x20: .cfa -16 + ^ x21: .cfa -24 + ^ x22: .cfa -32 + ^ x23: .cfa -40 + ^ x24: .cfa -48 + ^ x25: .cfa -56 + ^ x26: .cfa -64 + ^ x27: .cfa -72 + ^ x28: .cfa -80 + ^ .ra: .cfa -88 + ^ x29: .cfa -96 + ^
STACK CFI 21eac .cfa: sp 112 +
STACK CFI 21eb0 .cfa: x29 96 +
STACK CFI 21eb8 .cfa: sp 112 +
STACK CFI 21ed4 .cfa: sp 0 +
STACK CFI 21ed8 .cfa: x29 96 +
STACK CFI 21ef8 .cfa: sp 112 +
STACK CFI INIT 21efc e54 .cfa: sp 0 +
STACK CFI 21f00 .cfa: sp 192 +
STACK CFI 21f1c .cfa: x29 96 + x19: .cfa -8 + ^ x20: .cfa -16 + ^ x21: .cfa -24 + ^ x22: .cfa -32 + ^ x23: .cfa -40 + ^ x24: .cfa -48 + ^ x25: .cfa -56 + ^ x26: .cfa -64 + ^ x27: .cfa -72 + ^ x28: .cfa -80 + ^ .ra: .cfa -88 + ^ x29: .cfa -96 + ^
STACK CFI 22c38 .cfa: sp 192 +
STACK CFI 22c54 .cfa: sp 0 +
STACK CFI 22c58 .cfa: x29 96 +
STACK CFI INIT 22d50 1068 .cfa: sp 0 +
STACK CFI 22d54 .cfa: sp 288 +
STACK CFI 22d70 .cfa: x29 96 + x19: .cfa -8 + ^ x20: .cfa -16 + ^ x21: .cfa -24 + ^ x22: .cfa -32 + ^ x23: .cfa -40 + ^ x24: .cfa -48 + ^ x25: .cfa -56 + ^ x26: .cfa -64 + ^ x27: .cfa -72 + ^ x28: .cfa -80 + ^ .ra: .cfa -88 + ^ x29: .cfa -96 + ^
STACK CFI 23b00 .cfa: sp 288 +
STACK CFI 23b1c .cfa: sp 0 +
STACK CFI 23b20 .cfa: x29 96 +
STACK CFI INIT 23db8 520 .cfa: sp 0 +
STACK CFI 23dbc .cfa: sp 144 +
STACK CFI 23dd8 .cfa: x29 96 + x19: .cfa -8 + ^ x20: .cfa -16 + ^ x21: .cfa -24 + ^ x22: .cfa -32 + ^ x23: .cfa -40 + ^ x24: .cfa -48 + ^ x25: .cfa -56 + ^ x26: .cfa -64 + ^ x27: .cfa -72 + ^ x28: .cfa -80 + ^ .ra: .cfa -88 + ^ x29: .cfa -96 + ^
STACK CFI 242b4 .cfa: sp 144 +
STACK CFI 242d0 .cfa: sp 0 +
STACK CFI 242d4 .cfa: x29 96 +
STACK CFI INIT 24c78 136c .cfa: sp 0 +
STACK CFI 24c7c .cfa: sp 224 +
STACK CFI 24c98 .cfa: x29 96 + x19: .cfa -8 + ^ x20: .cfa -16 + ^ x21: .cfa -24 + ^ x22: .cfa -32 + ^ x23: .cfa -40 + ^ x24: .cfa -48 + ^ x25: .cfa -56 + ^ x26: .cfa -64 + ^ x27: .cfa -72 + ^ x28: .cfa -80 + ^ .ra: .cfa -88 + ^ x29: .cfa -96 + ^
STACK CFI 25fc0 .cfa: sp 224 +
STACK CFI 25fdc .cfa: sp 0 +
STACK CFI 25fe0 .cfa: x29 96 +
STACK CFI INIT 25fe4 1b8 .cfa: sp 0 +
STACK CFI INIT a2e8 618 .cfa: sp 0 +
STACK CFI a2ec .cfa: sp 240 +
STACK CFI a308 .cfa: x29 96 + x19: .cfa -8 + ^ x20: .cfa -16 + ^ x21: .cfa -24 + ^ x22: .cfa -32 + ^ x23: .cfa -40 + ^ x24: .cfa -48 + ^ x25: .cfa -56 + ^ x26: .cfa -64 + ^ x27: .cfa -72 + ^ x28: .cfa -80 + ^ .ra: .cfa -88 + ^ x29: .cfa -96 + ^
STACK CFI a7b4 .cfa: sp 240 +
STACK CFI a7d0 .cfa: sp 0 +
STACK CFI a7d4 .cfa: x29 96 +
STACK CFI INIT b0f0 644 .cfa: sp 0 +
STACK CFI b0f4 .cfa: sp 208 +
STACK CFI b110 .cfa: x29 96 + x19: .cfa -8 + ^ x20: .cfa -16 + ^ x21: .cfa -24 + ^ x22: .cfa -32 + ^ x23: .cfa -40 + ^ x24: .cfa -48 + ^ x25: .cfa -56 + ^ x26: .cfa -64 + ^ x27: .cfa -72 + ^ x28: .cfa -80 + ^ .ra: .cfa -88 + ^ x29: .cfa -96 + ^
STACK CFI b21c .cfa: sp 208 +
STACK CFI b238 .cfa: sp 0 +
STACK CFI b23c .cfa: x29 96 +
STACK CFI b600 .cfa: sp 208 +
STACK CFI b61c .cfa: sp 0 +
STACK CFI b620 .cfa: x29 96 +
STACK CFI INIT a900 60c .cfa: sp 0 +
STACK CFI a904 .cfa: sp 240 +
STACK CFI a920 .cfa: x29 96 + x19: .cfa -8 + ^ x20: .cfa -16 + ^ x21: .cfa -24 + ^ x22: .cfa -32 + ^ x23: .cfa -40 + ^ x24: .cfa -48 + ^ x25: .cfa -56 + ^ x26: .cfa -64 + ^ x27: .cfa -72 + ^ x28: .cfa -80 + ^ .ra: .cfa -88 + ^ x29: .cfa -96 + ^
STACK CFI adc0 .cfa: sp 240 +
STACK CFI addc .cfa: sp 0 +
STACK CFI ade0 .cfa: x29 96 +
STACK CFI INIT b778 50 .cfa: sp 0 +
STACK CFI b77c .cfa: sp 32 +
STACK CFI b784 .cfa: x29 32 + x19: .cfa -8 + ^ x20: .cfa -16 + ^ .ra: .cfa -24 + ^ x29: .cfa -32 + ^
STACK CFI INIT bfbc 9a0 .cfa: sp 0 +
STACK CFI bfc0 .cfa: sp 96 +
STACK CFI bfd8 .cfa: x29 96 + x19: .cfa -8 + ^ x20: .cfa -16 + ^ x21: .cfa -24 + ^ x22: .cfa -32 + ^ x23: .cfa -40 + ^ x24: .cfa -48 + ^ x25: .cfa -56 + ^ x26: .cfa -64 + ^ x27: .cfa -72 + ^ x28: .cfa -80 + ^ .ra: .cfa -88 + ^ x29: .cfa -96 + ^
STACK CFI c790 .cfa: sp 96 +
STACK CFI c7a8 .cfa: sp 0 +
STACK CFI c7ac .cfa: x29 96 +
STACK CFI INIT cc0c 18c .cfa: sp 0 +
STACK CFI cc10 .cfa: sp 128 +
STACK CFI cc20 .cfa: x29 48 + x19: .cfa -8 + ^ x20: .cfa -16 + ^ x21: .cfa -24 + ^ x22: .cfa -32 + ^ .ra: .cfa -40 + ^ x29: .cfa -48 + ^
STACK CFI cd30 .cfa: sp 128 +
STACK CFI cd40 .cfa: sp 0 +
STACK CFI cd44 .cfa: x29 48 +
STACK CFI INIT d038 9a0 .cfa: sp 0 +
STACK CFI d03c .cfa: sp 96 +
STACK CFI d054 .cfa: x29 96 + x19: .cfa -8 + ^ x20: .cfa -16 + ^ x21: .cfa -24 + ^ x22: .cfa -32 + ^ x23: .cfa -40 + ^ x24: .cfa -48 + ^ x25: .cfa -56 + ^ x26: .cfa -64 + ^ x27: .cfa -72 + ^ x28: .cfa -80 + ^ .ra: .cfa -88 + ^ x29: .cfa -96 + ^
STACK CFI d80c .cfa: sp 96 +
STACK CFI d824 .cfa: sp 0 +
STACK CFI d828 .cfa: x29 96 +
STACK CFI INIT d9dc 18c .cfa: sp 0 +
STACK CFI d9e0 .cfa: sp 128 +
STACK CFI d9f0 .cfa: x29 48 + x19: .cfa -8 + ^ x20: .cfa -16 + ^ x21: .cfa -24 + ^ x22: .cfa -32 + ^ .ra: .cfa -40 + ^ x29: .cfa -48 + ^
STACK CFI db00 .cfa: sp 128 +
STACK CFI db10 .cfa: sp 0 +
STACK CFI db14 .cfa: x29 48 +
STACK CFI INIT dcb8 9a0 .cfa: sp 0 +
STACK CFI dcbc .cfa: sp 96 +
STACK CFI dcd4 .cfa: x29 96 + x19: .cfa -8 + ^ x20: .cfa -16 + ^ x21: .cfa -24 + ^ x22: .cfa -32 + ^ x23: .cfa -40 + ^ x24: .cfa -48 + ^ x25: .cfa -56 + ^ x26: .cfa -64 + ^ x27: .cfa -72 + ^ x28: .cfa -80 + ^ .ra: .cfa -88 + ^ x29: .cfa -96 + ^
STACK CFI e48c .cfa: sp 96 +
STACK CFI e4a4 .cfa: sp 0 +
STACK CFI e4a8 .cfa: x29 96 +
STACK CFI INIT e65c 18c .cfa: sp 0 +
STACK CFI e660 .cfa: sp 128 +
STACK CFI e670 .cfa: x29 48 + x19: .cfa -8 + ^ x20: .cfa -16 + ^ x21: .cfa -24 + ^ x22: .cfa -32 + ^ .ra: .cfa -40 + ^ x29: .cfa -48 + ^
STACK CFI e780 .cfa: sp 128 +
STACK CFI e790 .cfa: sp 0 +
STACK CFI e794 .cfa: x29 48 +
STACK CFI INIT e938 5e0 .cfa: sp 0 +
STACK CFI e93c .cfa: sp 256 +
STACK CFI e954 .cfa: x29 80 + x19: .cfa -8 + ^ x20: .cfa -16 + ^ x21: .cfa -24 + ^ x22: .cfa -32 + ^ x23: .cfa -40 + ^ x24: .cfa -48 + ^ x25: .cfa -56 + ^ x26: .cfa -64 + ^ .ra: .cfa -72 + ^ x29: .cfa -80 + ^
STACK CFI ed58 .cfa: sp 256 +
STACK CFI ed70 .cfa: sp 0 +
STACK CFI ed74 .cfa: x29 80 +
STACK CFI INIT ef68 74 .cfa: sp 0 +
STACK CFI ef6c .cfa: sp 48 +
STACK CFI ef78 .cfa: x29 32 + x19: .cfa -8 + ^ x20: .cfa -16 + ^ .ra: .cfa -24 + ^ x29: .cfa -32 + ^
STACK CFI efc4 .cfa: sp 48 +
STACK CFI efd0 .cfa: sp 0 +
STACK CFI efd4 .cfa: x29 32 +
STACK CFI INIT f100 1d4 .cfa: sp 0 +
STACK CFI f104 .cfa: sp 128 +
STACK CFI f120 .cfa: x29 96 + x19: .cfa -8 + ^ x20: .cfa -16 + ^ x21: .cfa -24 + ^ x22: .cfa -32 + ^ x23: .cfa -40 + ^ x24: .cfa -48 + ^ x25: .cfa -56 + ^ x26: .cfa -64 + ^ x27: .cfa -72 + ^ x28: .cfa -80 + ^ .ra: .cfa -88 + ^ x29: .cfa -96 + ^
STACK CFI f28c .cfa: sp 128 +
STACK CFI f2a8 .cfa: sp 0 +
STACK CFI f2ac .cfa: x29 96 +
STACK CFI INIT f350 154 .cfa: sp 0 +
STACK CFI f354 .cfa: sp 384 +
STACK CFI f368 .cfa: x29 64 + x19: .cfa -8 + ^ x20: .cfa -16 + ^ x21: .cfa -24 + ^ x22: .cfa -32 + ^ x23: .cfa -40 + ^ x28: .cfa -48 + ^ .ra: .cfa -56 + ^ x29: .cfa -64 + ^
STACK CFI f44c .cfa: sp 384 +
STACK CFI f460 .cfa: sp 0 +
STACK CFI f464 .cfa: x29 64 +
STACK CFI INIT f4d8 12c .cfa: sp 0 +
STACK CFI f4dc .cfa: sp 80 +
STACK CFI f4f0 .cfa: x29 80 + x19: .cfa -8 + ^ x20: .cfa -16 + ^ x21: .cfa -24 + ^ x22: .cfa -32 + ^ x23: .cfa -40 + ^ x24: .cfa -48 + ^ x25: .cfa -56 + ^ x26: .cfa -64 + ^ .ra: .cfa -72 + ^ x29: .cfa -80 + ^
STACK CFI f5b8 .cfa: sp 80 +
STACK CFI f5cc .cfa: sp 0 +
STACK CFI f5d0 .cfa: x29 80 +
STACK CFI INIT f6a8 1a4 .cfa: sp 0 +
STACK CFI f6ac .cfa: sp 112 +
STACK CFI f6c4 .cfa: x29 80 + x19: .cfa -8 + ^ x20: .cfa -16 + ^ x21: .cfa -24 + ^ x22: .cfa -32 + ^ x23: .cfa -40 + ^ x24: .cfa -48 + ^ x25: .cfa -56 + ^ x26: .cfa -64 + ^ .ra: .cfa -72 + ^ x29: .cfa -80 + ^
STACK CFI f7b4 .cfa: sp 112 +
STACK CFI f7cc .cfa: sp 0 +
STACK CFI f7d0 .cfa: x29 80 +
STACK CFI INIT f84c 1dc .cfa: sp 0 +
STACK CFI f850 .cfa: sp 128 +
STACK CFI f86c .cfa: x29 96 + x19: .cfa -8 + ^ x20: .cfa -16 + ^ x21: .cfa -24 + ^ x22: .cfa -32 + ^ x23: .cfa -40 + ^ x24: .cfa -48 + ^ x25: .cfa -56 + ^ x26: .cfa -64 + ^ x27: .cfa -80 + ^ .ra: .cfa -88 + ^ x29: .cfa -96 + ^
STACK CFI f9d8 .cfa: sp 128 +
STACK CFI f9f4 .cfa: sp 0 +
STACK CFI f9f8 .cfa: x29 96 +
STACK CFI INIT fa28 178 .cfa: sp 0 +
STACK CFI fa2c .cfa: sp 80 +
STACK CFI fa40 .cfa: x29 80 + x19: .cfa -8 + ^ x20: .cfa -16 + ^ x21: .cfa -24 + ^ x22: .cfa -32 + ^ x23: .cfa -40 + ^ x24: .cfa -48 + ^ x25: .cfa -64 + ^ .ra: .cfa -72 + ^ x29: .cfa -80 + ^
STACK CFI fb6c .cfa: sp 80 +
STACK CFI fb80 .cfa: sp 0 +
STACK CFI fb84 .cfa: x29 80 +
STACK CFI INIT fce8 168 .cfa: sp 0 +
STACK CFI fcec .cfa: sp 384 +
STACK CFI fd00 .cfa: x29 64 + x19: .cfa -8 + ^ x20: .cfa -16 + ^ x21: .cfa -24 + ^ x22: .cfa -32 + ^ x23: .cfa -40 + ^ x28: .cfa -48 + ^ .ra: .cfa -56 + ^ x29: .cfa -64 + ^
STACK CFI fdf8 .cfa: sp 384 +
STACK CFI fe0c .cfa: sp 0 +
STACK CFI fe10 .cfa: x29 64 +
STACK CFI INIT fe68 224 .cfa: sp 0 +
STACK CFI fe6c .cfa: sp 128 +
STACK CFI fe84 .cfa: x29 80 + x19: .cfa -8 + ^ x20: .cfa -16 + ^ x21: .cfa -24 + ^ x22: .cfa -32 + ^ x23: .cfa -40 + ^ x24: .cfa -48 + ^ x25: .cfa -64 + ^ .ra: .cfa -72 + ^ x29: .cfa -80 + ^
STACK CFI 10020 .cfa: sp 128 +
STACK CFI 10038 .cfa: sp 0 +
STACK CFI 1003c .cfa: x29 80 +
STACK CFI INIT 10648 650 .cfa: sp 0 +
STACK CFI 1064c .cfa: sp 96 +
STACK CFI 10664 .cfa: x29 96 + x19: .cfa -8 + ^ x20: .cfa -16 + ^ x21: .cfa -24 + ^ x22: .cfa -32 + ^ x23: .cfa -40 + ^ x24: .cfa -48 + ^ x25: .cfa -56 + ^ x26: .cfa -64 + ^ x27: .cfa -72 + ^ x28: .cfa -80 + ^ .ra: .cfa -88 + ^ x29: .cfa -96 + ^
STACK CFI 10aec .cfa: sp 96 +
STACK CFI 10b04 .cfa: sp 0 +
STACK CFI 10b08 .cfa: x29 96 +
STACK CFI INIT 10dd0 a8 .cfa: sp 0 +
STACK CFI 10dd4 .cfa: sp 32 +
STACK CFI 10ddc .cfa: x29 32 + x19: .cfa -16 + ^ .ra: .cfa -24 + ^ x29: .cfa -32 + ^
STACK CFI 10e10 .cfa: sp 32 +
STACK CFI 10e18 .cfa: sp 0 +
STACK CFI 10e1c .cfa: x29 32 +
STACK CFI 10e20 .cfa: sp 32 +
STACK CFI 10e28 .cfa: sp 0 +
STACK CFI 10e2c .cfa: x29 32 +
STACK CFI INIT 11144 a8 .cfa: sp 0 +
STACK CFI 11148 .cfa: sp 32 +
STACK CFI 11150 .cfa: x29 32 + x19: .cfa -16 + ^ .ra: .cfa -24 + ^ x29: .cfa -32 + ^
STACK CFI 11184 .cfa: sp 32 +
STACK CFI 1118c .cfa: sp 0 +
STACK CFI 11190 .cfa: x29 32 +
STACK CFI 11194 .cfa: sp 32 +
STACK CFI 1119c .cfa: sp 0 +
STACK CFI 111a0 .cfa: x29 32 +
STACK CFI INIT 111ec 5e0 .cfa: sp 0 +
STACK CFI 111f0 .cfa: sp 256 +
STACK CFI 11208 .cfa: x29 80 + x19: .cfa -8 + ^ x20: .cfa -16 + ^ x21: .cfa -24 + ^ x22: .cfa -32 + ^ x23: .cfa -40 + ^ x24: .cfa -48 + ^ x25: .cfa -56 + ^ x26: .cfa -64 + ^ .ra: .cfa -72 + ^ x29: .cfa -80 + ^
STACK CFI 1160c .cfa: sp 256 +
STACK CFI 11624 .cfa: sp 0 +
STACK CFI 11628 .cfa: x29 80 +
STACK CFI INIT 117d0 9e0 .cfa: sp 0 +
STACK CFI 117d4 .cfa: sp 112 +
STACK CFI 117f0 .cfa: x29 96 + x19: .cfa -8 + ^ x20: .cfa -16 + ^ x21: .cfa -24 + ^ x22: .cfa -32 + ^ x23: .cfa -40 + ^ x24: .cfa -48 + ^ x25: .cfa -56 + ^ x26: .cfa -64 + ^ x27: .cfa -72 + ^ x28: .cfa -80 + ^ .ra: .cfa -88 + ^ x29: .cfa -96 + ^ v8: .cfa -112 + ^
STACK CFI 11fdc .cfa: sp 112 +
STACK CFI 11ff8 .cfa: sp 0 +
STACK CFI 11ffc .cfa: x29 96 +
STACK CFI INIT 12314 a8 .cfa: sp 0 +
STACK CFI 12318 .cfa: sp 32 +
STACK CFI 12320 .cfa: x29 32 + x19: .cfa -16 + ^ .ra: .cfa -24 + ^ x29: .cfa -32 + ^
STACK CFI 12354 .cfa: sp 32 +
STACK CFI 1235c .cfa: sp 0 +
STACK CFI 12360 .cfa: x29 32 +
STACK CFI 12364 .cfa: sp 32 +
STACK CFI 1236c .cfa: sp 0 +
STACK CFI 12370 .cfa: x29 32 +
STACK CFI INIT 124f4 a8 .cfa: sp 0 +
STACK CFI 124f8 .cfa: sp 32 +
STACK CFI 12500 .cfa: x29 32 + x19: .cfa -16 + ^ .ra: .cfa -24 + ^ x29: .cfa -32 + ^
STACK CFI 12534 .cfa: sp 32 +
STACK CFI 1253c .cfa: sp 0 +
STACK CFI 12540 .cfa: x29 32 +
STACK CFI 12544 .cfa: sp 32 +
STACK CFI 1254c .cfa: sp 0 +
STACK CFI 12550 .cfa: x29 32 +
STACK CFI INIT 1259c 318 .cfa: sp 0 +
STACK CFI 125a0 .cfa: sp 240 +
STACK CFI 125b4 .cfa: x29 64 + x19: .cfa -8 + ^ x20: .cfa -16 + ^ x21: .cfa -24 + ^ x22: .cfa -32 + ^ x23: .cfa -48 + ^ .ra: .cfa -56 + ^ x29: .cfa -64 + ^
STACK CFI 127a4 .cfa: sp 240 +
STACK CFI 127b8 .cfa: sp 0 +
STACK CFI 127bc .cfa: x29 64 +
STACK CFI INIT 128b8 5dc .cfa: sp 0 +
STACK CFI 128bc .cfa: sp 96 +
STACK CFI 128d4 .cfa: x29 96 + x19: .cfa -8 + ^ x20: .cfa -16 + ^ x21: .cfa -24 + ^ x22: .cfa -32 + ^ x23: .cfa -40 + ^ x24: .cfa -48 + ^ x25: .cfa -56 + ^ x26: .cfa -64 + ^ x27: .cfa -72 + ^ x28: .cfa -80 + ^ .ra: .cfa -88 + ^ x29: .cfa -96 + ^
STACK CFI 12ce8 .cfa: sp 96 +
STACK CFI 12d00 .cfa: sp 0 +
STACK CFI 12d04 .cfa: x29 96 +
STACK CFI INIT 12e94 a8 .cfa: sp 0 +
STACK CFI 12e98 .cfa: sp 32 +
STACK CFI 12ea0 .cfa: x29 32 + x19: .cfa -16 + ^ .ra: .cfa -24 + ^ x29: .cfa -32 + ^
STACK CFI 12ed4 .cfa: sp 32 +
STACK CFI 12edc .cfa: sp 0 +
STACK CFI 12ee0 .cfa: x29 32 +
STACK CFI 12ee4 .cfa: sp 32 +
STACK CFI 12eec .cfa: sp 0 +
STACK CFI 12ef0 .cfa: x29 32 +
STACK CFI INIT af0c 1cc .cfa: sp 0 +
STACK CFI af10 .cfa: sp 48 +
STACK CFI af1c .cfa: x29 48 + x19: .cfa -8 + ^ x20: .cfa -16 + ^ x21: .cfa -32 + ^ .ra: .cfa -40 + ^ x29: .cfa -48 + ^
STACK CFI b058 .cfa: sp 48 +
STACK CFI b064 .cfa: sp 0 +
STACK CFI b068 .cfa: x29 48 +
STACK CFI INIT 13028 134 .cfa: sp 0 +
STACK CFI 1302c .cfa: sp 80 +
STACK CFI 13038 .cfa: x29 32 + x19: .cfa -8 + ^ x20: .cfa -16 + ^ .ra: .cfa -24 + ^ x29: .cfa -32 + ^
STACK CFI 13068 .cfa: sp 80 +
STACK CFI 13074 .cfa: sp 0 +
STACK CFI 13078 .cfa: x29 32 +
STACK CFI INIT 1315c 78 .cfa: sp 0 +
STACK CFI 13160 .cfa: sp 32 +
STACK CFI 13168 .cfa: x29 32 + x19: .cfa -8 + ^ x20: .cfa -16 + ^ .ra: .cfa -24 + ^ x29: .cfa -32 + ^
STACK CFI 13174 .cfa: sp 32 +
STACK CFI 1317c .cfa: sp 0 +
STACK CFI 13180 .cfa: x29 32 +
STACK CFI INIT 131d4 74 .cfa: sp 0 +
STACK CFI 131d8 .cfa: sp 48 +
STACK CFI 131e4 .cfa: x29 32 + x19: .cfa -8 + ^ x20: .cfa -16 + ^ .ra: .cfa -24 + ^ x29: .cfa -32 + ^
STACK CFI 13230 .cfa: sp 48 +
STACK CFI 1323c .cfa: sp 0 +
STACK CFI 13240 .cfa: x29 32 +
STACK CFI INIT 132ac 214 .cfa: sp 0 +
STACK CFI 132b0 .cfa: sp 320 +
STACK CFI 132d4 .cfa: x29 96 + x19: .cfa -8 + ^ x20: .cfa -16 + ^ x21: .cfa -24 + ^ x22: .cfa -32 + ^ x23: .cfa -40 + ^ x24: .cfa -48 + ^ x25: .cfa -56 + ^ x26: .cfa -64 + ^ x27: .cfa -72 + ^ x28: .cfa -80 + ^ .ra: .cfa -88 + ^ x29: .cfa -96 + ^ v8: .cfa -104 + ^ v9: .cfa -112 + ^ v10: .cfa -128 + ^
STACK CFI 133a4 .cfa: sp 320 +
STACK CFI 133c8 .cfa: sp 0 +
STACK CFI 133cc .cfa: x29 96 +
STACK CFI INIT 134c0 d5c .cfa: sp 0 +
STACK CFI 134c4 .cfa: sp 112 +
STACK CFI 134dc .cfa: x29 80 + x19: .cfa -8 + ^ x20: .cfa -16 + ^ x21: .cfa -24 + ^ x22: .cfa -32 + ^ x23: .cfa -40 + ^ x24: .cfa -48 + ^ x25: .cfa -64 + ^ .ra: .cfa -72 + ^ x29: .cfa -80 + ^
STACK CFI 1413c .cfa: sp 112 +
STACK CFI 14154 .cfa: sp 0 +
STACK CFI 14158 .cfa: x29 80 +
STACK CFI INIT 1421c 154 .cfa: sp 0 +
STACK CFI 14220 .cfa: sp 384 +
STACK CFI 14234 .cfa: x29 64 + x19: .cfa -8 + ^ x20: .cfa -16 + ^ x21: .cfa -24 + ^ x22: .cfa -32 + ^ x23: .cfa -40 + ^ x28: .cfa -48 + ^ .ra: .cfa -56 + ^ x29: .cfa -64 + ^
STACK CFI 14318 .cfa: sp 384 +
STACK CFI 1432c .cfa: sp 0 +
STACK CFI 14330 .cfa: x29 64 +
STACK CFI INIT 146cc 294 .cfa: sp 0 +
STACK CFI 146d0 .cfa: sp 240 +
STACK CFI 146e8 .cfa: x29 80 + x19: .cfa -8 + ^ x20: .cfa -16 + ^ x21: .cfa -24 + ^ x22: .cfa -32 + ^ x23: .cfa -40 + ^ x24: .cfa -48 + ^ x25: .cfa -64 + ^ .ra: .cfa -72 + ^ x29: .cfa -80 + ^
STACK CFI 14888 .cfa: sp 240 +
STACK CFI 148a0 .cfa: sp 0 +
STACK CFI 148a4 .cfa: x29 80 +
STACK CFI INIT 149dc 50 .cfa: sp 0 +
STACK CFI 149e0 .cfa: sp 32 +
STACK CFI 149e8 .cfa: x29 32 + x19: .cfa -8 + ^ x20: .cfa -16 + ^ .ra: .cfa -24 + ^ x29: .cfa -32 + ^
STACK CFI INIT 14a58 7c0 .cfa: sp 0 +
STACK CFI 14a5c .cfa: sp 320 +
STACK CFI 14a78 .cfa: x29 96 + x19: .cfa -8 + ^ x20: .cfa -16 + ^ x21: .cfa -24 + ^ x22: .cfa -32 + ^ x23: .cfa -40 + ^ x24: .cfa -48 + ^ x25: .cfa -56 + ^ x26: .cfa -64 + ^ x27: .cfa -72 + ^ x28: .cfa -80 + ^ .ra: .cfa -88 + ^ x29: .cfa -96 + ^
STACK CFI 150c8 .cfa: sp 320 +
STACK CFI 150e4 .cfa: sp 0 +
STACK CFI 150e8 .cfa: x29 96 +
STACK CFI INIT 19598 c74 .cfa: sp 0 +
STACK CFI 1959c .cfa: sp 96 +
STACK CFI 195b4 .cfa: x29 96 + x19: .cfa -8 + ^ x20: .cfa -16 + ^ x21: .cfa -24 + ^ x22: .cfa -32 + ^ x23: .cfa -40 + ^ x24: .cfa -48 + ^ x25: .cfa -56 + ^ x26: .cfa -64 + ^ x27: .cfa -72 + ^ x28: .cfa -80 + ^ .ra: .cfa -88 + ^ x29: .cfa -96 + ^
STACK CFI 1a02c .cfa: sp 96 +
STACK CFI 1a044 .cfa: sp 0 +
STACK CFI 1a048 .cfa: x29 96 +
STACK CFI INIT 1a360 26c .cfa: sp 0 +
STACK CFI 1a364 .cfa: sp 128 +
STACK CFI 1a374 .cfa: x29 48 + x19: .cfa -8 + ^ x20: .cfa -16 + ^ x21: .cfa -24 + ^ x22: .cfa -32 + ^ .ra: .cfa -40 + ^ x29: .cfa -48 + ^
STACK CFI 1a518 .cfa: sp 128 +
STACK CFI 1a528 .cfa: sp 0 +
STACK CFI 1a52c .cfa: x29 48 +
STACK CFI INIT 1ab18 3b8 .cfa: sp 0 +
STACK CFI 1ab1c .cfa: sp 96 +
STACK CFI 1ab34 .cfa: x29 96 + x19: .cfa -8 + ^ x20: .cfa -16 + ^ x21: .cfa -24 + ^ x22: .cfa -32 + ^ x23: .cfa -40 + ^ x24: .cfa -48 + ^ x25: .cfa -56 + ^ x26: .cfa -64 + ^ x27: .cfa -72 + ^ x28: .cfa -80 + ^ .ra: .cfa -88 + ^ x29: .cfa -96 + ^
STACK CFI 1ae70 .cfa: sp 96 +
STACK CFI 1ae88 .cfa: sp 0 +
STACK CFI 1ae8c .cfa: x29 96 +
STACK CFI INIT 1af70 cb4 .cfa: sp 0 +
STACK CFI 1af74 .cfa: sp 96 +
STACK CFI 1af8c .cfa: x29 96 + x19: .cfa -8 + ^ x20: .cfa -16 + ^ x21: .cfa -24 + ^ x22: .cfa -32 + ^ x23: .cfa -40 + ^ x24: .cfa -48 + ^ x25: .cfa -56 + ^ x26: .cfa -64 + ^ x27: .cfa -72 + ^ x28: .cfa -80 + ^ .ra: .cfa -88 + ^ x29: .cfa -96 + ^
STACK CFI 1ba34 .cfa: sp 96 +
STACK CFI 1ba4c .cfa: sp 0 +
STACK CFI 1ba50 .cfa: x29 96 +
STACK CFI INIT 1bf0c afc .cfa: sp 0 +
STACK CFI 1bf10 .cfa: sp 96 +
STACK CFI 1bf28 .cfa: x29 96 + x19: .cfa -8 + ^ x20: .cfa -16 + ^ x21: .cfa -24 + ^ x22: .cfa -32 + ^ x23: .cfa -40 + ^ x24: .cfa -48 + ^ x25: .cfa -56 + ^ x26: .cfa -64 + ^ x27: .cfa -72 + ^ x28: .cfa -80 + ^ .ra: .cfa -88 + ^ x29: .cfa -96 + ^
STACK CFI 1c97c .cfa: sp 96 +
STACK CFI 1c994 .cfa: sp 0 +
STACK CFI 1c998 .cfa: x29 96 +
STACK CFI INIT 1cbe4 1430 .cfa: sp 0 +
STACK CFI 1cbe8 .cfa: sp 96 +
STACK CFI 1cc00 .cfa: x29 96 + x19: .cfa -8 + ^ x20: .cfa -16 + ^ x21: .cfa -24 + ^ x22: .cfa -32 + ^ x23: .cfa -40 + ^ x24: .cfa -48 + ^ x25: .cfa -56 + ^ x26: .cfa -64 + ^ x27: .cfa -72 + ^ x28: .cfa -80 + ^ .ra: .cfa -88 + ^ x29: .cfa -96 + ^
STACK CFI 1de9c .cfa: sp 96 +
STACK CFI 1deb4 .cfa: sp 0 +
STACK CFI 1deb8 .cfa: x29 96 +
STACK CFI INIT 1e138 75c .cfa: sp 0 +
STACK CFI 1e13c .cfa: sp 368 +
STACK CFI 1e158 .cfa: x29 96 + x19: .cfa -8 + ^ x20: .cfa -16 + ^ x21: .cfa -24 + ^ x22: .cfa -32 + ^ x23: .cfa -40 + ^ x24: .cfa -48 + ^ x25: .cfa -56 + ^ x26: .cfa -64 + ^ x27: .cfa -72 + ^ x28: .cfa -80 + ^ .ra: .cfa -88 + ^ x29: .cfa -96 + ^
STACK CFI 1e20c .cfa: sp 368 +
STACK CFI 1e228 .cfa: sp 0 +
STACK CFI 1e22c .cfa: x29 96 +
STACK CFI 1e280 .cfa: sp 368 +
STACK CFI 1e29c .cfa: sp 0 +
STACK CFI 1e2a0 .cfa: x29 96 +
STACK CFI INIT 1ec54 eb0 .cfa: sp 0 +
STACK CFI 1ec58 .cfa: sp 96 +
STACK CFI 1ec70 .cfa: x29 96 + x19: .cfa -8 + ^ x20: .cfa -16 + ^ x21: .cfa -24 + ^ x22: .cfa -32 + ^ x23: .cfa -40 + ^ x24: .cfa -48 + ^ x25: .cfa -56 + ^ x26: .cfa -64 + ^ x27: .cfa -72 + ^ x28: .cfa -80 + ^ .ra: .cfa -88 + ^ x29: .cfa -96 + ^
STACK CFI 1f918 .cfa: sp 96 +
STACK CFI 1f930 .cfa: sp 0 +
STACK CFI 1f934 .cfa: x29 96 +
STACK CFI INIT 1fe78 1c9c .cfa: sp 0 +
STACK CFI 1fe7c .cfa: sp 112 +
STACK CFI 1fe98 .cfa: x29 96 + x19: .cfa -8 + ^ x20: .cfa -16 + ^ x21: .cfa -24 + ^ x22: .cfa -32 + ^ x23: .cfa -40 + ^ x24: .cfa -48 + ^ x25: .cfa -56 + ^ x26: .cfa -64 + ^ x27: .cfa -72 + ^ x28: .cfa -80 + ^ .ra: .cfa -88 + ^ x29: .cfa -96 + ^ v8: .cfa -112 + ^
STACK CFI 20280 .cfa: sp 112 +
STACK CFI 2029c .cfa: sp 0 +
STACK CFI 202a0 .cfa: x29 96 +
STACK CFI INIT 242d8 9a0 .cfa: sp 0 +
STACK CFI 242dc .cfa: sp 144 +
STACK CFI 242f4 .cfa: x29 80 + x19: .cfa -8 + ^ x20: .cfa -16 + ^ x21: .cfa -24 + ^ x22: .cfa -32 + ^ x23: .cfa -40 + ^ x24: .cfa -48 + ^ x25: .cfa -64 + ^ .ra: .cfa -72 + ^ x29: .cfa -80 + ^
STACK CFI 24bf4 .cfa: sp 144 +
STACK CFI 24c0c .cfa: sp 0 +
STACK CFI 24c10 .cfa: x29 80 +
STACK CFI INIT 2619c 57c .cfa: sp 0 +
STACK CFI 261a0 .cfa: sp 96 +
STACK CFI 261b8 .cfa: x29 96 + x19: .cfa -8 + ^ x20: .cfa -16 + ^ x21: .cfa -24 + ^ x22: .cfa -32 + ^ x23: .cfa -40 + ^ x24: .cfa -48 + ^ x25: .cfa -56 + ^ x26: .cfa -64 + ^ x27: .cfa -72 + ^ x28: .cfa -80 + ^ .ra: .cfa -88 + ^ x29: .cfa -96 + ^
STACK CFI 2667c .cfa: sp 96 +
STACK CFI 26694 .cfa: sp 0 +
STACK CFI 26698 .cfa: x29 96 +
STACK CFI INIT 26718 67c .cfa: sp 0 +
STACK CFI 2671c .cfa: sp 96 +
STACK CFI 26734 .cfa: x29 96 + x19: .cfa -8 + ^ x20: .cfa -16 + ^ x21: .cfa -24 + ^ x22: .cfa -32 + ^ x23: .cfa -40 + ^ x24: .cfa -48 + ^ x25: .cfa -56 + ^ x26: .cfa -64 + ^ x27: .cfa -72 + ^ x28: .cfa -80 + ^ .ra: .cfa -88 + ^ x29: .cfa -96 + ^
STACK CFI 26cf8 .cfa: sp 96 +
STACK CFI 26d10 .cfa: sp 0 +
STACK CFI 26d14 .cfa: x29 96 +
