MODULE Linux arm64 66E0929FE69DF122F5778A133FB019F50 ninsam.day_and_night_system.android64.so
INFO CODE_ID 9F92E0669DE622F1F5778A133FB019F58452BA42
INFO GENERATOR mozilla/dump_syms 2.3.4
PUBLIC 14330 0 __on_dlclose
PUBLIC 14340 0 __emutls_unregister_key
PUBLIC 14348 0 __on_dlclose_late
PUBLIC 14350 0 __atexit_handler_wrapper
PUBLIC 14364 0 atexit
PUBLIC 14380 0 pthread_atfork
PUBLIC 14390 0 unwind_phase2
PUBLIC 144c4 0 _Unwind_Resume
PUBLIC 14548 0 unwind_phase2_forced
PUBLIC m 1463c 0 __unw_init_local
PUBLIC m 146e4 0 __unw_get_reg
PUBLIC 14760 0 __unw_step_stage2
PUBLIC m 14774 0 __unw_get_proc_info
PUBLIC m 147b4 0 __unw_resume
PUBLIC 147dc 0 libunwind::CFI_Parser<libunwind::LocalAddressSpace>::decodeFDE(libunwind::LocalAddressSpace&, unsigned long, libunwind::CFI_Parser<libunwind::LocalAddressSpace>::FDE_Info*, libunwind::CFI_Parser<libunwind::LocalAddressSpace>::CIE_Info*, bool)
PUBLIC 1496c 0 libunwind::CFI_Parser<libunwind::LocalAddressSpace>::parseCIE(libunwind::LocalAddressSpace&, unsigned long, libunwind::CFI_Parser<libunwind::LocalAddressSpace>::CIE_Info*)
PUBLIC 14c34 0 libunwind::AbstractUnwindCursor::~AbstractUnwindCursor()
PUBLIC 14c3c 0 libunwind::UnwindCursor<libunwind::LocalAddressSpace, libunwind::Registers_arm64>::~UnwindCursor()
PUBLIC 14c44 0 libunwind::UnwindCursor<libunwind::LocalAddressSpace, libunwind::Registers_arm64>::validReg(int)
PUBLIC 14c88 0 libunwind::UnwindCursor<libunwind::LocalAddressSpace, libunwind::Registers_arm64>::getReg(int)
PUBLIC 14d70 0 libunwind::UnwindCursor<libunwind::LocalAddressSpace, libunwind::Registers_arm64>::setReg(int, unsigned long)
PUBLIC 14e58 0 libunwind::UnwindCursor<libunwind::LocalAddressSpace, libunwind::Registers_arm64>::validFloatReg(int)
PUBLIC 14e6c 0 libunwind::UnwindCursor<libunwind::LocalAddressSpace, libunwind::Registers_arm64>::getFloatReg(int)
PUBLIC 14e7c 0 libunwind::UnwindCursor<libunwind::LocalAddressSpace, libunwind::Registers_arm64>::setFloatReg(int, double)
PUBLIC 14e8c 0 libunwind::UnwindCursor<libunwind::LocalAddressSpace, libunwind::Registers_arm64>::step(bool)
PUBLIC 14f7c 0 libunwind::UnwindCursor<libunwind::LocalAddressSpace, libunwind::Registers_arm64>::getInfo(unw_proc_info_t*)
PUBLIC 14fc0 0 libunwind::UnwindCursor<libunwind::LocalAddressSpace, libunwind::Registers_arm64>::jumpto()
PUBLIC 14fcc 0 libunwind::UnwindCursor<libunwind::LocalAddressSpace, libunwind::Registers_arm64>::isSignalFrame()
PUBLIC 14fd8 0 libunwind::UnwindCursor<libunwind::LocalAddressSpace, libunwind::Registers_arm64>::getFunctionName(char*, unsigned long, unsigned long*)
PUBLIC 15004 0 libunwind::UnwindCursor<libunwind::LocalAddressSpace, libunwind::Registers_arm64>::setInfoBasedOnIPRegister(bool)
PUBLIC 15284 0 libunwind::UnwindCursor<libunwind::LocalAddressSpace, libunwind::Registers_arm64>::getRegisterName(int)
PUBLIC 15290 0 libunwind::UnwindCursor<libunwind::LocalAddressSpace, libunwind::Registers_arm64>::stepThroughSigReturn(libunwind::Registers_arm64&)
PUBLIC 153b0 0 libunwind::DwarfInstructions<libunwind::LocalAddressSpace, libunwind::Registers_arm64>::stepWithDwarf(libunwind::LocalAddressSpace&, unsigned long, unsigned long, libunwind::Registers_arm64&, bool&, bool)
PUBLIC 15838 0 libunwind::CFI_Parser<libunwind::LocalAddressSpace>::parseFDEInstructions(libunwind::LocalAddressSpace&, libunwind::CFI_Parser<libunwind::LocalAddressSpace>::FDE_Info const&, libunwind::CFI_Parser<libunwind::LocalAddressSpace>::CIE_Info const&, unsigned long, int, libunwind::CFI_Parser<libunwind::LocalAddressSpace>::PrologInfo*)
PUBLIC 16480 0 libunwind::DwarfInstructions<libunwind::LocalAddressSpace, libunwind::Registers_arm64>::getCFA(libunwind::LocalAddressSpace&, libunwind::CFI_Parser<libunwind::LocalAddressSpace>::PrologInfo const&, libunwind::Registers_arm64 const&)
PUBLIC 165b4 0 libunwind::DwarfInstructions<libunwind::LocalAddressSpace, libunwind::Registers_arm64>::getSavedRegister(libunwind::LocalAddressSpace&, libunwind::Registers_arm64 const&, unsigned long, libunwind::CFI_Parser<libunwind::LocalAddressSpace>::RegisterLocation const&)
PUBLIC 167c4 0 libunwind::LocalAddressSpace::getEncodedP(unsigned long&, unsigned long, unsigned char, unsigned long)
PUBLIC 16b50 0 libunwind::LocalAddressSpace::getULEB128(unsigned long&, unsigned long)
PUBLIC 16d18 0 libunwind::DwarfInstructions<libunwind::LocalAddressSpace, libunwind::Registers_arm64>::evaluateExpression(unsigned long, libunwind::LocalAddressSpace&, libunwind::Registers_arm64 const&, unsigned long)
PUBLIC 176d4 0 libunwind::UnwindCursor<libunwind::LocalAddressSpace, libunwind::Registers_arm64>::getInfoFromDwarfSection(unsigned long, libunwind::UnwindInfoSections const&, unsigned int)
PUBLIC 179a8 0 libunwind::findUnwindSectionsByPhdr(dl_phdr_info*, unsigned long, void*)
PUBLIC 17adc 0 libunwind::EHHeaderParser<libunwind::LocalAddressSpace>::decodeEHHdr(libunwind::LocalAddressSpace&, unsigned long, unsigned long, libunwind::EHHeaderParser<libunwind::LocalAddressSpace>::EHHeaderInfo&)
PUBLIC 17bfc 0 libunwind::CFI_Parser<libunwind::LocalAddressSpace>::findFDE(libunwind::LocalAddressSpace&, unsigned long, unsigned long, unsigned long, unsigned long, libunwind::CFI_Parser<libunwind::LocalAddressSpace>::FDE_Info*, libunwind::CFI_Parser<libunwind::LocalAddressSpace>::CIE_Info*)
PUBLIC 17dc4 0 libunwind::EHHeaderParser<libunwind::LocalAddressSpace>::findFDE(libunwind::LocalAddressSpace&, unsigned long, unsigned long, unsigned int, libunwind::CFI_Parser<libunwind::LocalAddressSpace>::FDE_Info*, libunwind::CFI_Parser<libunwind::LocalAddressSpace>::CIE_Info*)
PUBLIC 17f2c 0 libunwind::EHHeaderParser<libunwind::LocalAddressSpace>::getTableEntrySize(unsigned char)
PUBLIC 18028 0 libunwind::Registers_arm64::getRegisterName(int)
PUBLIC 18058 0 __libunwind_Registers_arm64_jumpto
PUBLIC m 180e8 0 __unw_getcontext
PUBLIC 18190 0 __aarch64_ldadd8_relax
PUBLIC 181c0 0 init_have_lse_atomics
PUBLIC 18258 0 __init_cpu_features_constructor
PUBLIC 187f4 0 __init_cpu_features
PUBLIC 18880 0 __aarch64_ldadd8_acq_rel
FUNC 188b0 400 0 __cxx_global_var_init
FUNC 18cb0 1c 0 geode::modifier::ModifyBase<geode::modifier::ModifyDerive<hook7<(anonymous namespace)::hook7Parent>, LevelInfoLayer> >::~ModifyBase()
FUNC 18ccc 404 0 geode::modifier::ModifyDerive<hook7<(anonymous namespace)::hook7Parent>, LevelInfoLayer>::apply()
FUNC 190d0 50 0 std::__ndk1::shared_ptr<geode::Hook>::~shared_ptr[abi:ne180000]()
FUNC 19120 74 0 geode::impl::ResultData<geode::Hook*, std::__ndk1::basic_string<char, std::__ndk1::char_traits<char>, std::__ndk1::allocator<char> > >::~ResultData()
FUNC 19194 7c 0 std::__ndk1::vector<std::__ndk1::basic_string<char, std::__ndk1::char_traits<char>, std::__ndk1::allocator<char> >, std::__ndk1::allocator<std::__ndk1::basic_string<char, std::__ndk1::char_traits<char>, std::__ndk1::allocator<char> > > >::~vector[abi:ne180000]()
FUNC 19210 4 0 geode::modifier::ModifyBase<geode::modifier::ModifyDerive<hook7<(anonymous namespace)::hook7Parent>, LevelInfoLayer> >::apply()
PUBLIC 19214 0 __clang_call_terminate
FUNC 19224 154 0 _ZN5geode15UnwrapExceptionC2IRPNS_4HookEQsr4implE18IsStringStreamableIT_EEENS_4impl5OkTagEOS5_
FUNC 19378 34 0 std::__ndk1::__throw_bad_variant_access[abi:ne180000]()
FUNC 193ac 124 0 std::__ndk1::basic_stringstream<char, std::__ndk1::char_traits<char>, std::__ndk1::allocator<char> >::basic_stringstream[abi:ne180000]()
FUNC 194d0 80 0 std::__ndk1::basic_stringstream<char, std::__ndk1::char_traits<char>, std::__ndk1::allocator<char> >::~basic_stringstream()
FUNC 19550 24 0 geode::UnwrapException::~UnwrapException()
FUNC 19574 198 0 std::__ndk1::__put_character_sequence[abi:ne180000]<char, std::__ndk1::char_traits<char> >(std::__ndk1::basic_ostream<char, std::__ndk1::char_traits<char> >, std::__ndk1::basic_ostream const*, unsigned long)
FUNC 1970c 1b4 0 std::__ndk1::__pad_and_output[abi:ne180000]<char, std::__ndk1::char_traits<char> >(std::__ndk1::char_traits<char>, std::__ndk1::ostreambuf_iterator const*, std::__ndk1::ostreambuf_iterator const, std::__ndk1::ostreambuf_iterator const, std::__ndk1::ios_base&, std::__ndk1::ostreambuf_iterator)
FUNC 198c0 14 0 std::__ndk1::basic_string<char, std::__ndk1::char_traits<char>, std::__ndk1::allocator<char> >::__throw_length_error[abi:ne180000]() const
FUNC 198d4 50 0 std::__ndk1::__throw_length_error[abi:ne180000](char const*)
FUNC 19924 30 0 std::length_error::length_error[abi:ne180000](char const*)
FUNC 19954 34 0 std::__throw_bad_array_new_length([abi:ne180000], void)
FUNC 19988 15c 0 std::__ndk1::basic_stringbuf<char, std::__ndk1::char_traits<char>, std::__ndk1::allocator<char> >::str[abi:ne180000]() &&
FUNC 19ae4 148 0 std::__ndk1::basic_stringbuf<char, std::__ndk1::char_traits<char>, std::__ndk1::allocator<char> >::__init_buf_ptrs[abi:ne180000]()
FUNC 19c2c 21c 0 std::__ndk1::vector<std::__ndk1::basic_string<char, std::__ndk1::char_traits<char>, std::__ndk1::allocator<char> >, std::__ndk1::allocator<std::__ndk1::basic_string<char, std::__ndk1::char_traits<char>, std::__ndk1::allocator<char> > > >::__push_back_slow_path<std::__ndk1::basic_string<char, std::__ndk1::char_traits<char>, std::__ndk1::allocator<char> > const&>(std::__ndk1::basic_string<char, std::__ndk1::char_traits<char>, std::__ndk1::allocator<char> > const&)
FUNC 19e48 70 0 std::__ndk1::basic_string<char, std::__ndk1::char_traits<char>, std::__ndk1::allocator<char> >::__init_copy_ctor_external(char const*, unsigned long)
FUNC 19eb8 68 0 std::__ndk1::__split_buffer<std::__ndk1::basic_string<char, std::__ndk1::char_traits<char>, std::__ndk1::allocator<char> >, std::__ndk1::allocator<std::__ndk1::basic_string<char, std::__ndk1::char_traits<char>, std::__ndk1::allocator<char> > >&>::~__split_buffer()
FUNC 19f20 14 0 std::__ndk1::vector<std::__ndk1::basic_string<char, std::__ndk1::char_traits<char>, std::__ndk1::allocator<char> >, std::__ndk1::allocator<std::__ndk1::basic_string<char, std::__ndk1::char_traits<char>, std::__ndk1::allocator<char> > > >::__throw_length_error[abi:ne180000]() const
FUNC 19f34 4 0 std::__ndk1::__variant_detail::__visitation::__base::__dispatcher<(unsigned long)0>::__dispatch[abi:ne180000]<std::__ndk1::__variant_detail::__dtor<std::__ndk1::__variant_detail::__traits<geode::Hook*, std::__ndk1::basic_string<char, std::__ndk1::char_traits<char>, std::__ndk1::allocator<char> > >, (std::__ndk1::__variant_detail::_Trait)1>::__destroy[abi:ne180000]()::{lambda(auto:1&)#1}, std::__ndk1::__variant_detail::__base<(std::__ndk1::__variant_detail::__traits<geode::Hook*, std::__ndk1::basic_string<char, std::__ndk1::char_traits<char>, std::__ndk1::allocator<char> > >)1, geode::Hook, std::__ndk1::allocator<char> >&>(std::__ndk1::__variant_detail::__dtor<std::__ndk1::__variant_detail::__traits<geode::Hook*, std::__ndk1::basic_string<char, std::__ndk1::char_traits<char>, std::__ndk1::allocator<char> > >, (std::__ndk1::__variant_detail::_Trait)1>, std::__ndk1::__variant_detail::__base<(std::__ndk1::__variant_detail::__traits<geode::Hook*, std::__ndk1::basic_string<char, std::__ndk1::char_traits<char>, std::__ndk1::allocator<char> > >)1, geode::Hook, std::__ndk1::allocator<char> >&)
FUNC 19f38 14 0 std::__ndk1::__variant_detail::__visitation::__base::__dispatcher<(unsigned long)1>::__dispatch[abi:ne180000]<std::__ndk1::__variant_detail::__dtor<std::__ndk1::__variant_detail::__traits<geode::Hook*, std::__ndk1::basic_string<char, std::__ndk1::char_traits<char>, std::__ndk1::allocator<char> > >, (std::__ndk1::__variant_detail::_Trait)1>::__destroy[abi:ne180000]()::{lambda(auto:1&)#1}, std::__ndk1::__variant_detail::__base<(std::__ndk1::__variant_detail::__traits<geode::Hook*, std::__ndk1::basic_string<char, std::__ndk1::char_traits<char>, std::__ndk1::allocator<char> > >)1, geode::Hook, std::__ndk1::allocator<char> >&>(std::__ndk1::__variant_detail::__dtor<std::__ndk1::__variant_detail::__traits<geode::Hook*, std::__ndk1::basic_string<char, std::__ndk1::char_traits<char>, std::__ndk1::allocator<char> > >, (std::__ndk1::__variant_detail::_Trait)1>, std::__ndk1::__variant_detail::__base<(std::__ndk1::__variant_detail::__traits<geode::Hook*, std::__ndk1::basic_string<char, std::__ndk1::char_traits<char>, std::__ndk1::allocator<char> > >)1, geode::Hook, std::__ndk1::allocator<char> >&)
FUNC 19f4c fc 0 std::__ndk1::__tree<std::__ndk1::__value_type<std::__ndk1::basic_string<char, std::__ndk1::char_traits<char>, std::__ndk1::allocator<char> >, std::__ndk1::shared_ptr<geode::Hook> >, std::__ndk1::__map_value_compare<std::__ndk1::basic_string<char, std::__ndk1::char_traits<char>, std::__ndk1::allocator<char> >, std::__ndk1::__value_type<std::__ndk1::basic_string<char, std::__ndk1::char_traits<char>, std::__ndk1::allocator<char> >, std::__ndk1::shared_ptr<geode::Hook> >, std::__ndk1::less<std::__ndk1::basic_string<char, std::__ndk1::char_traits<char>, std::__ndk1::allocator<char> > >, true>, std::__ndk1::allocator<std::__ndk1::__value_type<std::__ndk1::basic_string<char, std::__ndk1::char_traits<char>, std::__ndk1::allocator<char> >, std::__ndk1::shared_ptr<geode::Hook> > > >::find<std::__ndk1::basic_string<char, std::__ndk1::char_traits<char>, std::__ndk1::allocator<char> > >(std::__ndk1::basic_string<char, std::__ndk1::char_traits<char>, std::__ndk1::allocator<char> > const&)
FUNC 1a048 d4 0 std::__ndk1::__tree<std::__ndk1::__value_type<std::__ndk1::basic_string<char, std::__ndk1::char_traits<char>, std::__ndk1::allocator<char> >, std::__ndk1::shared_ptr<geode::Hook> >, std::__ndk1::__map_value_compare<std::__ndk1::basic_string<char, std::__ndk1::char_traits<char>, std::__ndk1::allocator<char> >, std::__ndk1::__value_type<std::__ndk1::basic_string<char, std::__ndk1::char_traits<char>, std::__ndk1::allocator<char> >, std::__ndk1::shared_ptr<geode::Hook> >, std::__ndk1::less<std::__ndk1::basic_string<char, std::__ndk1::char_traits<char>, std::__ndk1::allocator<char> > >, true>, std::__ndk1::allocator<std::__ndk1::__value_type<std::__ndk1::basic_string<char, std::__ndk1::char_traits<char>, std::__ndk1::allocator<char> >, std::__ndk1::shared_ptr<geode::Hook> > > >::erase(std::__ndk1::__tree_const_iterator<std::__ndk1::__value_type<std::__ndk1::basic_string<char, std::__ndk1::char_traits<char>, std::__ndk1::allocator<char> >, std::__ndk1::shared_ptr<geode::Hook> >, std::__ndk1::__tree_node<std::__ndk1::__value_type<std::__ndk1::basic_string<char, std::__ndk1::char_traits<char>, std::__ndk1::allocator<char> >, std::__ndk1::shared_ptr<geode::Hook> >, void*>*, long>)
FUNC 1a11c 388 0 std::__ndk1::__tree_remove[abi:ne180000]<std::__ndk1::__tree_node_base<void*>*>(std::__ndk1::__tree_node_base<void*>*, std::__ndk1::__tree_node_base<void*>*)
FUNC 1a4a4 8c 0 std::__ndk1::__tree<std::__ndk1::__value_type<std::__ndk1::basic_string<char, std::__ndk1::char_traits<char>, std::__ndk1::allocator<char> >, std::__ndk1::shared_ptr<geode::Hook> >, std::__ndk1::__map_value_compare<std::__ndk1::basic_string<char, std::__ndk1::char_traits<char>, std::__ndk1::allocator<char> >, std::__ndk1::__value_type<std::__ndk1::basic_string<char, std::__ndk1::char_traits<char>, std::__ndk1::allocator<char> >, std::__ndk1::shared_ptr<geode::Hook> >, std::__ndk1::less<std::__ndk1::basic_string<char, std::__ndk1::char_traits<char>, std::__ndk1::allocator<char> > >, true>, std::__ndk1::allocator<std::__ndk1::__value_type<std::__ndk1::basic_string<char, std::__ndk1::char_traits<char>, std::__ndk1::allocator<char> >, std::__ndk1::shared_ptr<geode::Hook> > > >::destroy(std::__ndk1::__tree_node<std::__ndk1::__value_type<std::__ndk1::basic_string<char, std::__ndk1::char_traits<char>, std::__ndk1::allocator<char> >, std::__ndk1::shared_ptr<geode::Hook> >, void*>*)
FUNC 1a530 224 0 geode::modifier::AsStaticFunction_init<hook7<(anonymous namespace)::hook7Parent>, bool (hook7<(anonymous namespace)::hook7Parent>::*)(GJGameLevel*, bool)>::Impl<bool (hook7<(anonymous namespace)::hook7Parent>::*)(GJGameLevel*, bool)>::function(hook7<(anonymous namespace)::hook7Parent>*, GJGameLevel*, bool)
FUNC 1a754 50 0 std::__ndk1::shared_ptr<tulip::hook::CallingConvention>::~shared_ptr[abi:ne180000]()
FUNC 1a7a4 64 0 tulip::hook::HandlerMetadata::~HandlerMetadata()
FUNC 1a808 104 0 std::__ndk1::__tree<std::__ndk1::__value_type<std::__ndk1::basic_string<char, std::__ndk1::char_traits<char>, std::__ndk1::allocator<char> >, std::__ndk1::shared_ptr<geode::Hook> >, std::__ndk1::__map_value_compare<std::__ndk1::basic_string<char, std::__ndk1::char_traits<char>, std::__ndk1::allocator<char> >, std::__ndk1::__value_type<std::__ndk1::basic_string<char, std::__ndk1::char_traits<char>, std::__ndk1::allocator<char> >, std::__ndk1::shared_ptr<geode::Hook> >, std::__ndk1::less<std::__ndk1::basic_string<char, std::__ndk1::char_traits<char>, std::__ndk1::allocator<char> > >, true>, std::__ndk1::allocator<std::__ndk1::__value_type<std::__ndk1::basic_string<char, std::__ndk1::char_traits<char>, std::__ndk1::allocator<char> >, std::__ndk1::shared_ptr<geode::Hook> > > >::__find_equal<std::__ndk1::basic_string<char, std::__ndk1::char_traits<char>, std::__ndk1::allocator<char> > >(std::__ndk1::__tree_end_node<std::__ndk1::__tree_node_base<void*>*>*&, std::__ndk1::basic_string<char, std::__ndk1::char_traits<char>, std::__ndk1::allocator<char> > const&)
FUNC 1a90c 19c 0 std::__ndk1::__tree_balance_after_insert[abi:ne180000]<std::__ndk1::__tree_node_base<void*>*>(std::__ndk1::__tree_node_base<void*>*, std::__ndk1::__tree_node_base<void*>*)
FUNC 1aaa8 400 0 __cxx_global_var_init
FUNC 1aea8 1c 0 geode::modifier::ModifyBase<geode::modifier::ModifyDerive<hook7<(anonymous namespace)::hook7Parent>, MenuLayer> >::~ModifyBase()
FUNC 1aec4 35c 0 geode::modifier::ModifyDerive<hook7<(anonymous namespace)::hook7Parent>, MenuLayer>::apply()
FUNC 1b220 4 0 geode::modifier::ModifyBase<geode::modifier::ModifyDerive<hook7<(anonymous namespace)::hook7Parent>, MenuLayer> >::apply()
FUNC 1b224 a8 0 geode::addresser::getVirtual<bool (MenuLayer::*)()>(bool (MenuLayer::*)())
FUNC 1b2cc 224 0 geode::modifier::AsStaticFunction_init<hook7<(anonymous namespace)::hook7Parent>, bool (hook7<(anonymous namespace)::hook7Parent>::*)()>::Impl<bool (hook7<(anonymous namespace)::hook7Parent>::*)()>::function(hook7<(anonymous namespace)::hook7Parent>*)
FUNC 1b4f0 9c 0 MenuLayer::MenuLayer(geode::ZeroConstructorType)
FUNC 1b58c 400 0 __cxx_global_var_init
FUNC 1b98c 1c 0 geode::modifier::ModifyBase<geode::modifier::ModifyDerive<hook7<(anonymous namespace)::hook7Parent>, CreatorLayer> >::~ModifyBase()
FUNC 1b9a8 368 0 geode::modifier::ModifyDerive<hook7<(anonymous namespace)::hook7Parent>, CreatorLayer>::apply()
FUNC 1bd10 4 0 geode::modifier::ModifyBase<geode::modifier::ModifyDerive<hook7<(anonymous namespace)::hook7Parent>, CreatorLayer> >::apply()
FUNC 1bd14 a8 0 geode::addresser::getVirtual<bool (CreatorLayer::*)()>(bool (CreatorLayer::*)())
FUNC 1bdbc 224 0 geode::modifier::AsStaticFunction_init<hook7<(anonymous namespace)::hook7Parent>, bool (hook7<(anonymous namespace)::hook7Parent>::*)()>::Impl<bool (hook7<(anonymous namespace)::hook7Parent>::*)()>::function(hook7<(anonymous namespace)::hook7Parent>*)
FUNC 1bfe0 98 0 CreatorLayer::CreatorLayer(geode::ZeroConstructorType)
FUNC 1c078 400 0 __cxx_global_var_init
FUNC 1c478 1c 0 geode::modifier::ModifyBase<geode::modifier::ModifyDerive<hook8<(anonymous namespace)::hook8Parent>, LevelSearchLayer> >::~ModifyBase()
FUNC 1c494 3b4 0 geode::modifier::ModifyDerive<hook8<(anonymous namespace)::hook8Parent>, LevelSearchLayer>::apply()
FUNC 1c848 30 0 geode::Mod::get<void>()
FUNC 1c878 4 0 geode::modifier::ModifyBase<geode::modifier::ModifyDerive<hook8<(anonymous namespace)::hook8Parent>, LevelSearchLayer> >::apply()
FUNC 1c87c e78 0 geode::modifier::AsStaticFunction_init<hook8<(anonymous namespace)::hook8Parent>, bool (hook8<(anonymous namespace)::hook8Parent>::*)(int)>::Impl<bool (hook8<(anonymous namespace)::hook8Parent>::*)(int)>::function(hook8<(anonymous namespace)::hook8Parent>*, int)
FUNC 1d6f4 118 0 geode::Mod::getSettingValue<long>(std::__ndk1::basic_string_view<char, std::__ndk1::char_traits<char> >) const
FUNC 1d80c 134 0 geode::Mod::getSettingValue<bool>(std::__ndk1::basic_string_view<char, std::__ndk1::char_traits<char> >) const
FUNC 1d940 2c 0 geode::cast::typeinfo_cast<cocos2d::extension::CCScale9Sprite*, cocos2d::CCNode*>(cocos2d::CCNode*)
FUNC 1d96c e4 0 geode::cast::traverseTypeinfoFor(void*, geode::cast::ClassTypeinfoType const*, char const*)
FUNC 1da50 400 0 __cxx_global_var_init
FUNC 1de50 1c 0 geode::modifier::ModifyBase<geode::modifier::ModifyDerive<hook7<(anonymous namespace)::hook7Parent>, LevelBrowserLayer> >::~ModifyBase()
FUNC 1de6c 3d4 0 geode::modifier::ModifyDerive<hook7<(anonymous namespace)::hook7Parent>, LevelBrowserLayer>::apply()
FUNC 1e240 4 0 geode::modifier::ModifyBase<geode::modifier::ModifyDerive<hook7<(anonymous namespace)::hook7Parent>, LevelBrowserLayer> >::apply()
FUNC 1e244 224 0 geode::modifier::AsStaticFunction_init<hook7<(anonymous namespace)::hook7Parent>, bool (hook7<(anonymous namespace)::hook7Parent>::*)(GJSearchObject*)>::Impl<bool (hook7<(anonymous namespace)::hook7Parent>::*)(GJSearchObject*)>::function(hook7<(anonymous namespace)::hook7Parent>*, GJSearchObject*)
FUNC 1e468 400 0 __cxx_global_var_init
FUNC 1e868 1c 0 geode::modifier::ModifyBase<geode::modifier::ModifyDerive<hook8<(anonymous namespace)::hook8Parent>, EditLevelLayer> >::~ModifyBase()
FUNC 1e884 3c0 0 geode::modifier::ModifyDerive<hook8<(anonymous namespace)::hook8Parent>, EditLevelLayer>::apply()
FUNC 1ec44 4 0 geode::modifier::ModifyBase<geode::modifier::ModifyDerive<hook8<(anonymous namespace)::hook8Parent>, EditLevelLayer> >::apply()
FUNC 1ec48 ab8 0 geode::modifier::AsStaticFunction_init<hook8<(anonymous namespace)::hook8Parent>, bool (hook8<(anonymous namespace)::hook8Parent>::*)(GJGameLevel*)>::Impl<bool (hook8<(anonymous namespace)::hook8Parent>::*)(GJGameLevel*)>::function(hook8<(anonymous namespace)::hook8Parent>*, GJGameLevel*)
FUNC 1f700 400 0 __cxx_global_var_init
FUNC 1fb00 1c 0 geode::modifier::ModifyBase<geode::modifier::ModifyDerive<hook7<(anonymous namespace)::hook7Parent>, LeaderboardsLayer> >::~ModifyBase()
FUNC 1fb1c 3d4 0 geode::modifier::ModifyDerive<hook7<(anonymous namespace)::hook7Parent>, LeaderboardsLayer>::apply()
FUNC 1fef0 4 0 geode::modifier::ModifyBase<geode::modifier::ModifyDerive<hook7<(anonymous namespace)::hook7Parent>, LeaderboardsLayer> >::apply()
FUNC 1fef4 224 0 geode::modifier::AsStaticFunction_init<hook7<(anonymous namespace)::hook7Parent>, bool (hook7<(anonymous namespace)::hook7Parent>::*)(LeaderboardState)>::Impl<bool (hook7<(anonymous namespace)::hook7Parent>::*)(LeaderboardState)>::function(hook7<(anonymous namespace)::hook7Parent>*, LeaderboardState)
FUNC 20118 400 0 __cxx_global_var_init
FUNC 20518 1c 0 geode::modifier::ModifyBase<geode::modifier::ModifyDerive<hook7<(anonymous namespace)::hook7Parent>, LevelSelectLayer> >::~ModifyBase()
FUNC 20534 3b4 0 geode::modifier::ModifyDerive<hook7<(anonymous namespace)::hook7Parent>, LevelSelectLayer>::apply()
FUNC 208e8 4 0 geode::modifier::ModifyBase<geode::modifier::ModifyDerive<hook7<(anonymous namespace)::hook7Parent>, LevelSelectLayer> >::apply()
FUNC 208ec 24c 0 geode::modifier::AsStaticFunction_init<hook7<(anonymous namespace)::hook7Parent>, bool (hook7<(anonymous namespace)::hook7Parent>::*)(int)>::Impl<bool (hook7<(anonymous namespace)::hook7Parent>::*)(int)>::function(hook7<(anonymous namespace)::hook7Parent>*, int)
FUNC 20b38 400 0 __cxx_global_var_init
FUNC 20f38 1c 0 geode::modifier::ModifyBase<geode::modifier::ModifyDerive<hook8<(anonymous namespace)::hook8Parent>, LevelAreaLayer> >::~ModifyBase()
FUNC 20f54 370 0 geode::modifier::ModifyDerive<hook8<(anonymous namespace)::hook8Parent>, LevelAreaLayer>::apply()
FUNC 212c4 4 0 geode::modifier::ModifyBase<geode::modifier::ModifyDerive<hook8<(anonymous namespace)::hook8Parent>, LevelAreaLayer> >::apply()
FUNC 212c8 a8 0 geode::addresser::getVirtual<bool (LevelAreaLayer::*)()>(bool (LevelAreaLayer::*)())
FUNC 21370 938 0 geode::modifier::AsStaticFunction_init<hook8<(anonymous namespace)::hook8Parent>, bool (hook8<(anonymous namespace)::hook8Parent>::*)()>::Impl<bool (hook8<(anonymous namespace)::hook8Parent>::*)()>::function(hook8<(anonymous namespace)::hook8Parent>*)
FUNC 21ca8 90 0 LevelAreaLayer::LevelAreaLayer(geode::ZeroConstructorType)
FUNC 21d38 400 0 __cxx_global_var_init
FUNC 22138 1c 0 geode::modifier::ModifyBase<geode::modifier::ModifyDerive<hook7<(anonymous namespace)::hook7Parent>, DailyLevelPage> >::~ModifyBase()
FUNC 22154 3c0 0 geode::modifier::ModifyDerive<hook7<(anonymous namespace)::hook7Parent>, DailyLevelPage>::apply()
FUNC 22514 4 0 geode::modifier::ModifyBase<geode::modifier::ModifyDerive<hook7<(anonymous namespace)::hook7Parent>, DailyLevelPage> >::apply()
FUNC 22518 144 0 geode::modifier::AsStaticFunction_init<hook7<(anonymous namespace)::hook7Parent>, bool (hook7<(anonymous namespace)::hook7Parent>::*)(GJTimedLevelType)>::Impl<bool (hook7<(anonymous namespace)::hook7Parent>::*)(GJTimedLevelType)>::function(hook7<(anonymous namespace)::hook7Parent>*, GJTimedLevelType)
FUNC 2265c 400 0 __cxx_global_var_init
FUNC 22a5c 1c 0 geode::modifier::ModifyBase<geode::modifier::ModifyDerive<hook7<(anonymous namespace)::hook7Parent>, ProfilePage> >::~ModifyBase()
FUNC 22a78 3f4 0 geode::modifier::ModifyDerive<hook7<(anonymous namespace)::hook7Parent>, ProfilePage>::apply()
FUNC 22e6c 4 0 geode::modifier::ModifyBase<geode::modifier::ModifyDerive<hook7<(anonymous namespace)::hook7Parent>, ProfilePage> >::apply()
FUNC 22e70 144 0 geode::modifier::AsStaticFunction_init<hook7<(anonymous namespace)::hook7Parent>, bool (hook7<(anonymous namespace)::hook7Parent>::*)(int, bool)>::Impl<bool (hook7<(anonymous namespace)::hook7Parent>::*)(int, bool)>::function(hook7<(anonymous namespace)::hook7Parent>*, int, bool)
FUNC 22fb4 400 0 __cxx_global_var_init
FUNC 233b4 1c 0 geode::modifier::ModifyBase<geode::modifier::ModifyDerive<hook7<(anonymous namespace)::hook7Parent>, RewardsPage> >::~ModifyBase()
FUNC 233d0 360 0 geode::modifier::ModifyDerive<hook7<(anonymous namespace)::hook7Parent>, RewardsPage>::apply()
FUNC 23730 4 0 geode::modifier::ModifyBase<geode::modifier::ModifyDerive<hook7<(anonymous namespace)::hook7Parent>, RewardsPage> >::apply()
FUNC 23734 a8 0 geode::addresser::getVirtual<bool (RewardsPage::*)()>(bool (RewardsPage::*)())
FUNC 237dc 144 0 geode::modifier::AsStaticFunction_init<hook7<(anonymous namespace)::hook7Parent>, bool (hook7<(anonymous namespace)::hook7Parent>::*)()>::Impl<bool (hook7<(anonymous namespace)::hook7Parent>::*)()>::function(hook7<(anonymous namespace)::hook7Parent>*)
FUNC 23920 94 0 RewardsPage::RewardsPage(geode::ZeroConstructorType)
FUNC 239b4 400 0 __cxx_global_var_init
FUNC 23db4 1c 0 geode::modifier::ModifyBase<geode::modifier::ModifyDerive<hook7<(anonymous namespace)::hook7Parent>, ChallengesPage> >::~ModifyBase()
FUNC 23dd0 370 0 geode::modifier::ModifyDerive<hook7<(anonymous namespace)::hook7Parent>, ChallengesPage>::apply()
FUNC 24140 4 0 geode::modifier::ModifyBase<geode::modifier::ModifyDerive<hook7<(anonymous namespace)::hook7Parent>, ChallengesPage> >::apply()
FUNC 24144 a8 0 geode::addresser::getVirtual<bool (ChallengesPage::*)()>(bool (ChallengesPage::*)())
FUNC 241ec 144 0 geode::modifier::AsStaticFunction_init<hook7<(anonymous namespace)::hook7Parent>, bool (hook7<(anonymous namespace)::hook7Parent>::*)()>::Impl<bool (hook7<(anonymous namespace)::hook7Parent>::*)()>::function(hook7<(anonymous namespace)::hook7Parent>*)
FUNC 24330 9c 0 ChallengesPage::ChallengesPage(geode::ZeroConstructorType)
FUNC 243cc 400 0 __cxx_global_var_init
FUNC 247cc 1c 0 geode::modifier::ModifyBase<geode::modifier::ModifyDerive<hook7<(anonymous namespace)::hook7Parent>, MoreSearchLayer> >::~ModifyBase()
FUNC 247e8 364 0 geode::modifier::ModifyDerive<hook7<(anonymous namespace)::hook7Parent>, MoreSearchLayer>::apply()
FUNC 24b4c 4 0 geode::modifier::ModifyBase<geode::modifier::ModifyDerive<hook7<(anonymous namespace)::hook7Parent>, MoreSearchLayer> >::apply()
FUNC 24b50 a8 0 geode::addresser::getVirtual<bool (MoreSearchLayer::*)()>(bool (MoreSearchLayer::*)())
FUNC 24bf8 144 0 geode::modifier::AsStaticFunction_init<hook7<(anonymous namespace)::hook7Parent>, bool (hook7<(anonymous namespace)::hook7Parent>::*)()>::Impl<bool (hook7<(anonymous namespace)::hook7Parent>::*)()>::function(hook7<(anonymous namespace)::hook7Parent>*)
FUNC 24d3c 8c 0 MoreSearchLayer::MoreSearchLayer(geode::ZeroConstructorType)
FUNC 24dc8 400 0 __cxx_global_var_init
FUNC 251c8 1c 0 geode::modifier::ModifyBase<geode::modifier::ModifyDerive<hook7<(anonymous namespace)::hook7Parent>, InfoLayer> >::~ModifyBase()
FUNC 251e4 3fc 0 geode::modifier::ModifyDerive<hook7<(anonymous namespace)::hook7Parent>, InfoLayer>::apply()
FUNC 255e0 4 0 geode::modifier::ModifyBase<geode::modifier::ModifyDerive<hook7<(anonymous namespace)::hook7Parent>, InfoLayer> >::apply()
FUNC 255e4 144 0 geode::modifier::AsStaticFunction_init<hook7<(anonymous namespace)::hook7Parent>, bool (hook7<(anonymous namespace)::hook7Parent>::*)(GJGameLevel*, GJUserScore*, GJLevelList*)>::Impl<bool (hook7<(anonymous namespace)::hook7Parent>::*)(GJGameLevel*, GJUserScore*, GJLevelList*)>::function(hook7<(anonymous namespace)::hook7Parent>*, GJGameLevel*, GJUserScore*, GJLevelList*)
FUNC 25728 400 0 __cxx_global_var_init
FUNC 25b28 1c 0 geode::modifier::ModifyBase<geode::modifier::ModifyDerive<hook7<(anonymous namespace)::hook7Parent>, LevelLeaderboard> >::~ModifyBase()
FUNC 25b44 40c 0 geode::modifier::ModifyDerive<hook7<(anonymous namespace)::hook7Parent>, LevelLeaderboard>::apply()
FUNC 25f50 4 0 geode::modifier::ModifyBase<geode::modifier::ModifyDerive<hook7<(anonymous namespace)::hook7Parent>, LevelLeaderboard> >::apply()
FUNC 25f54 144 0 geode::modifier::AsStaticFunction_init<hook7<(anonymous namespace)::hook7Parent>, bool (hook7<(anonymous namespace)::hook7Parent>::*)(GJGameLevel*, LevelLeaderboardType, LevelLeaderboardMode)>::Impl<bool (hook7<(anonymous namespace)::hook7Parent>::*)(GJGameLevel*, LevelLeaderboardType, LevelLeaderboardMode)>::function(hook7<(anonymous namespace)::hook7Parent>*, GJGameLevel*, LevelLeaderboardType, LevelLeaderboardMode)
FUNC 26098 400 0 __cxx_global_var_init
FUNC 26498 1c 0 geode::modifier::ModifyBase<geode::modifier::ModifyDerive<hook7<(anonymous namespace)::hook7Parent>, MessagesProfilePage> >::~ModifyBase()
FUNC 264b4 3dc 0 geode::modifier::ModifyDerive<hook7<(anonymous namespace)::hook7Parent>, MessagesProfilePage>::apply()
FUNC 26890 4 0 geode::modifier::ModifyBase<geode::modifier::ModifyDerive<hook7<(anonymous namespace)::hook7Parent>, MessagesProfilePage> >::apply()
FUNC 26894 144 0 geode::modifier::AsStaticFunction_init<hook7<(anonymous namespace)::hook7Parent>, bool (hook7<(anonymous namespace)::hook7Parent>::*)(bool)>::Impl<bool (hook7<(anonymous namespace)::hook7Parent>::*)(bool)>::function(hook7<(anonymous namespace)::hook7Parent>*, bool)
FUNC 269d8 400 0 __cxx_global_var_init
FUNC 26dd8 1c 0 geode::modifier::ModifyBase<geode::modifier::ModifyDerive<hook7<(anonymous namespace)::hook7Parent>, FriendsProfilePage> >::~ModifyBase()
FUNC 26df4 3d4 0 geode::modifier::ModifyDerive<hook7<(anonymous namespace)::hook7Parent>, FriendsProfilePage>::apply()
FUNC 271c8 4 0 geode::modifier::ModifyBase<geode::modifier::ModifyDerive<hook7<(anonymous namespace)::hook7Parent>, FriendsProfilePage> >::apply()
FUNC 271cc 144 0 geode::modifier::AsStaticFunction_init<hook7<(anonymous namespace)::hook7Parent>, bool (hook7<(anonymous namespace)::hook7Parent>::*)(UserListType)>::Impl<bool (hook7<(anonymous namespace)::hook7Parent>::*)(UserListType)>::function(hook7<(anonymous namespace)::hook7Parent>*, UserListType)
FUNC 27310 400 0 __cxx_global_var_init
FUNC 27710 1c 0 geode::modifier::ModifyBase<geode::modifier::ModifyDerive<hook7<(anonymous namespace)::hook7Parent>, FRequestProfilePage> >::~ModifyBase()
FUNC 2772c 3dc 0 geode::modifier::ModifyDerive<hook7<(anonymous namespace)::hook7Parent>, FRequestProfilePage>::apply()
FUNC 27b08 4 0 geode::modifier::ModifyBase<geode::modifier::ModifyDerive<hook7<(anonymous namespace)::hook7Parent>, FRequestProfilePage> >::apply()
FUNC 27b0c 144 0 geode::modifier::AsStaticFunction_init<hook7<(anonymous namespace)::hook7Parent>, bool (hook7<(anonymous namespace)::hook7Parent>::*)(bool)>::Impl<bool (hook7<(anonymous namespace)::hook7Parent>::*)(bool)>::function(hook7<(anonymous namespace)::hook7Parent>*, bool)
FUNC 27c50 400 0 __cxx_global_var_init
FUNC 28050 1c 0 geode::modifier::ModifyBase<geode::modifier::ModifyDerive<hook7<(anonymous namespace)::hook7Parent>, GJAccountSettingsLayer> >::~ModifyBase()
FUNC 2806c 3dc 0 geode::modifier::ModifyDerive<hook7<(anonymous namespace)::hook7Parent>, GJAccountSettingsLayer>::apply()
FUNC 28448 4 0 geode::modifier::ModifyBase<geode::modifier::ModifyDerive<hook7<(anonymous namespace)::hook7Parent>, GJAccountSettingsLayer> >::apply()
FUNC 2844c 144 0 geode::modifier::AsStaticFunction_init<hook7<(anonymous namespace)::hook7Parent>, bool (hook7<(anonymous namespace)::hook7Parent>::*)(int)>::Impl<bool (hook7<(anonymous namespace)::hook7Parent>::*)(int)>::function(hook7<(anonymous namespace)::hook7Parent>*, int)
FUNC 28590 400 0 __cxx_global_var_init
FUNC 28990 1c 0 geode::modifier::ModifyBase<geode::modifier::ModifyDerive<hook7<(anonymous namespace)::hook7Parent>, RateDemonLayer> >::~ModifyBase()
FUNC 289ac 3c0 0 geode::modifier::ModifyDerive<hook7<(anonymous namespace)::hook7Parent>, RateDemonLayer>::apply()
FUNC 28d6c 4 0 geode::modifier::ModifyBase<geode::modifier::ModifyDerive<hook7<(anonymous namespace)::hook7Parent>, RateDemonLayer> >::apply()
FUNC 28d70 144 0 geode::modifier::AsStaticFunction_init<hook7<(anonymous namespace)::hook7Parent>, bool (hook7<(anonymous namespace)::hook7Parent>::*)(int)>::Impl<bool (hook7<(anonymous namespace)::hook7Parent>::*)(int)>::function(hook7<(anonymous namespace)::hook7Parent>*, int)
FUNC 28eb4 400 0 __cxx_global_var_init
FUNC 292b4 1c 0 geode::modifier::ModifyBase<geode::modifier::ModifyDerive<hook7<(anonymous namespace)::hook7Parent>, DemonInfoPopup> >::~ModifyBase()
FUNC 292d0 ecc 0 geode::modifier::ModifyDerive<hook7<(anonymous namespace)::hook7Parent>, DemonInfoPopup>::apply()
FUNC 2a19c 4 0 geode::modifier::ModifyBase<geode::modifier::ModifyDerive<hook7<(anonymous namespace)::hook7Parent>, DemonInfoPopup> >::apply()
FUNC 2a1a0 16c 0 geode::modifier::AsStaticFunction_init<hook7<(anonymous namespace)::hook7Parent>, bool (hook7<(anonymous namespace)::hook7Parent>::*)(int, int, int, int, int, int, int, int, int, int, int, int)>::Impl<bool (hook7<(anonymous namespace)::hook7Parent>::*)(int, int, int, int, int, int, int, int, int, int, int, int)>::function(hook7<(anonymous namespace)::hook7Parent>*, int, int, int, int, int, int, int, int, int, int, int, int)
FUNC 2a30c 14 0 std::__ndk1::vector<tulip::hook::AbstractType, std::__ndk1::allocator<tulip::hook::AbstractType> >::__throw_length_error[abi:ne180000]() const
FUNC 2a320 400 0 __cxx_global_var_init
FUNC 2a720 1c 0 geode::modifier::ModifyBase<geode::modifier::ModifyDerive<hook7<(anonymous namespace)::hook7Parent>, StarInfoPopup> >::~ModifyBase()
FUNC 2a73c cd8 0 geode::modifier::ModifyDerive<hook7<(anonymous namespace)::hook7Parent>, StarInfoPopup>::apply()
FUNC 2b414 4 0 geode::modifier::ModifyBase<geode::modifier::ModifyDerive<hook7<(anonymous namespace)::hook7Parent>, StarInfoPopup> >::apply()
FUNC 2b418 15c 0 geode::modifier::AsStaticFunction_init<hook7<(anonymous namespace)::hook7Parent>, bool (hook7<(anonymous namespace)::hook7Parent>::*)(int, int, int, int, int, int, int, int, int, bool)>::Impl<bool (hook7<(anonymous namespace)::hook7Parent>::*)(int, int, int, int, int, int, int, int, int, bool)>::function(hook7<(anonymous namespace)::hook7Parent>*, int, int, int, int, int, int, int, int, int, bool)
FUNC 2b574 400 0 __cxx_global_var_init
FUNC 2b974 1c 0 geode::modifier::ModifyBase<geode::modifier::ModifyDerive<hook7<(anonymous namespace)::hook7Parent>, MoreOptionsLayer> >::~ModifyBase()
FUNC 2b990 364 0 geode::modifier::ModifyDerive<hook7<(anonymous namespace)::hook7Parent>, MoreOptionsLayer>::apply()
FUNC 2bcf4 4 0 geode::modifier::ModifyBase<geode::modifier::ModifyDerive<hook7<(anonymous namespace)::hook7Parent>, MoreOptionsLayer> >::apply()
FUNC 2bcf8 a8 0 geode::addresser::getVirtual<bool (MoreOptionsLayer::*)()>(bool (MoreOptionsLayer::*)())
FUNC 2bda0 144 0 geode::modifier::AsStaticFunction_init<hook7<(anonymous namespace)::hook7Parent>, bool (hook7<(anonymous namespace)::hook7Parent>::*)()>::Impl<bool (hook7<(anonymous namespace)::hook7Parent>::*)()>::function(hook7<(anonymous namespace)::hook7Parent>*)
FUNC 2bee4 9c 0 MoreOptionsLayer::MoreOptionsLayer(geode::ZeroConstructorType)
FUNC 2bf80 400 0 __cxx_global_var_init
FUNC 2c380 1c 0 geode::modifier::ModifyBase<geode::modifier::ModifyDerive<hook7<(anonymous namespace)::hook7Parent>, VideoOptionsLayer> >::~ModifyBase()
FUNC 2c39c 384 0 geode::modifier::ModifyDerive<hook7<(anonymous namespace)::hook7Parent>, VideoOptionsLayer>::apply()
FUNC 2c720 4 0 geode::modifier::ModifyBase<geode::modifier::ModifyDerive<hook7<(anonymous namespace)::hook7Parent>, VideoOptionsLayer> >::apply()
FUNC 2c724 a8 0 geode::addresser::getVirtual<bool (VideoOptionsLayer::*)()>(bool (VideoOptionsLayer::*)())
FUNC 2c7cc 144 0 geode::modifier::AsStaticFunction_init<hook7<(anonymous namespace)::hook7Parent>, bool (hook7<(anonymous namespace)::hook7Parent>::*)()>::Impl<bool (hook7<(anonymous namespace)::hook7Parent>::*)()>::function(hook7<(anonymous namespace)::hook7Parent>*)
FUNC 2c910 84 0 VideoOptionsLayer::VideoOptionsLayer(geode::ZeroConstructorType)
FUNC 2c994 400 0 __cxx_global_var_init
FUNC 2cd94 1c 0 geode::modifier::ModifyBase<geode::modifier::ModifyDerive<hook7<(anonymous namespace)::hook7Parent>, TutorialLayer> >::~ModifyBase()
FUNC 2cdb0 370 0 geode::modifier::ModifyDerive<hook7<(anonymous namespace)::hook7Parent>, TutorialLayer>::apply()
FUNC 2d120 4 0 geode::modifier::ModifyBase<geode::modifier::ModifyDerive<hook7<(anonymous namespace)::hook7Parent>, TutorialLayer> >::apply()
FUNC 2d124 a8 0 geode::addresser::getVirtual<bool (TutorialLayer::*)()>(bool (TutorialLayer::*)())
FUNC 2d1cc 144 0 geode::modifier::AsStaticFunction_init<hook7<(anonymous namespace)::hook7Parent>, bool (hook7<(anonymous namespace)::hook7Parent>::*)()>::Impl<bool (hook7<(anonymous namespace)::hook7Parent>::*)()>::function(hook7<(anonymous namespace)::hook7Parent>*)
FUNC 2d310 84 0 TutorialLayer::TutorialLayer(geode::ZeroConstructorType)
FUNC 2d394 400 0 __cxx_global_var_init
FUNC 2d794 1c 0 geode::modifier::ModifyBase<geode::modifier::ModifyDerive<hook7<(anonymous namespace)::hook7Parent>, LevelListLayer> >::~ModifyBase()
FUNC 2d7b0 3c0 0 geode::modifier::ModifyDerive<hook7<(anonymous namespace)::hook7Parent>, LevelListLayer>::apply()
FUNC 2db70 4 0 geode::modifier::ModifyBase<geode::modifier::ModifyDerive<hook7<(anonymous namespace)::hook7Parent>, LevelListLayer> >::apply()
FUNC 2db74 224 0 geode::modifier::AsStaticFunction_init<hook7<(anonymous namespace)::hook7Parent>, bool (hook7<(anonymous namespace)::hook7Parent>::*)(GJLevelList*)>::Impl<bool (hook7<(anonymous namespace)::hook7Parent>::*)(GJLevelList*)>::function(hook7<(anonymous namespace)::hook7Parent>*, GJLevelList*)
FUNC 2dd98 400 0 __cxx_global_var_init
FUNC 2e198 1c 0 geode::modifier::ModifyBase<geode::modifier::ModifyDerive<hook7<(anonymous namespace)::hook7Parent>, GJPathsLayer> >::~ModifyBase()
FUNC 2e1b4 368 0 geode::modifier::ModifyDerive<hook7<(anonymous namespace)::hook7Parent>, GJPathsLayer>::apply()
FUNC 2e51c 4 0 geode::modifier::ModifyBase<geode::modifier::ModifyDerive<hook7<(anonymous namespace)::hook7Parent>, GJPathsLayer> >::apply()
FUNC 2e520 a8 0 geode::addresser::getVirtual<bool (GJPathsLayer::*)()>(bool (GJPathsLayer::*)())
FUNC 2e5c8 144 0 geode::modifier::AsStaticFunction_init<hook7<(anonymous namespace)::hook7Parent>, bool (hook7<(anonymous namespace)::hook7Parent>::*)()>::Impl<bool (hook7<(anonymous namespace)::hook7Parent>::*)()>::function(hook7<(anonymous namespace)::hook7Parent>*)
FUNC 2e70c 8c 0 GJPathsLayer::GJPathsLayer(geode::ZeroConstructorType)
FUNC 2e798 400 0 __cxx_global_var_init
FUNC 2eb98 1c 0 geode::modifier::ModifyBase<geode::modifier::ModifyDerive<hook7<(anonymous namespace)::hook7Parent>, MoreVideoOptionsLayer> >::~ModifyBase()
FUNC 2ebb4 38c 0 geode::modifier::ModifyDerive<hook7<(anonymous namespace)::hook7Parent>, MoreVideoOptionsLayer>::apply()
FUNC 2ef40 4 0 geode::modifier::ModifyBase<geode::modifier::ModifyDerive<hook7<(anonymous namespace)::hook7Parent>, MoreVideoOptionsLayer> >::apply()
FUNC 2ef44 a8 0 geode::addresser::getVirtual<bool (MoreVideoOptionsLayer::*)()>(bool (MoreVideoOptionsLayer::*)())
FUNC 2efec 144 0 geode::modifier::AsStaticFunction_init<hook7<(anonymous namespace)::hook7Parent>, bool (hook7<(anonymous namespace)::hook7Parent>::*)()>::Impl<bool (hook7<(anonymous namespace)::hook7Parent>::*)()>::function(hook7<(anonymous namespace)::hook7Parent>*)
FUNC 2f130 8c 0 MoreVideoOptionsLayer::MoreVideoOptionsLayer(geode::ZeroConstructorType)
FUNC 2f1bc 400 0 __cxx_global_var_init
FUNC 2f5bc 1c 0 geode::modifier::ModifyBase<geode::modifier::ModifyDerive<hook7<(anonymous namespace)::hook7Parent>, LikeItemLayer> >::~ModifyBase()
FUNC 2f5d8 40c 0 geode::modifier::ModifyDerive<hook7<(anonymous namespace)::hook7Parent>, LikeItemLayer>::apply()
FUNC 2f9e4 4 0 geode::modifier::ModifyBase<geode::modifier::ModifyDerive<hook7<(anonymous namespace)::hook7Parent>, LikeItemLayer> >::apply()
FUNC 2f9e8 144 0 geode::modifier::AsStaticFunction_init<hook7<(anonymous namespace)::hook7Parent>, bool (hook7<(anonymous namespace)::hook7Parent>::*)(LikeItemType, int, int)>::Impl<bool (hook7<(anonymous namespace)::hook7Parent>::*)(LikeItemType, int, int)>::function(hook7<(anonymous namespace)::hook7Parent>*, LikeItemType, int, int)
FUNC 2fb2c 400 0 __cxx_global_var_init
FUNC 2ff2c 1c 0 geode::modifier::ModifyBase<geode::modifier::ModifyDerive<hook7<(anonymous namespace)::hook7Parent>, RateStarsLayer> >::~ModifyBase()
FUNC 2ff48 40c 0 geode::modifier::ModifyDerive<hook7<(anonymous namespace)::hook7Parent>, RateStarsLayer>::apply()
FUNC 30354 4 0 geode::modifier::ModifyBase<geode::modifier::ModifyDerive<hook7<(anonymous namespace)::hook7Parent>, RateStarsLayer> >::apply()
FUNC 30358 144 0 geode::modifier::AsStaticFunction_init<hook7<(anonymous namespace)::hook7Parent>, bool (hook7<(anonymous namespace)::hook7Parent>::*)(int, bool, bool)>::Impl<bool (hook7<(anonymous namespace)::hook7Parent>::*)(int, bool, bool)>::function(hook7<(anonymous namespace)::hook7Parent>*, int, bool, bool)
FUNC 3049c 400 0 __cxx_global_var_init
FUNC 3089c 1c 0 geode::modifier::ModifyBase<geode::modifier::ModifyDerive<hook7<(anonymous namespace)::hook7Parent>, UploadActionPopup> >::~ModifyBase()
FUNC 308b8 428 0 geode::modifier::ModifyDerive<hook7<(anonymous namespace)::hook7Parent>, UploadActionPopup>::apply()
FUNC 30ce0 4 0 geode::modifier::ModifyBase<geode::modifier::ModifyDerive<hook7<(anonymous namespace)::hook7Parent>, UploadActionPopup> >::apply()
FUNC 30ce4 1a0 0 geode::modifier::AsStaticFunction_init<hook7<(anonymous namespace)::hook7Parent>, bool (hook7<(anonymous namespace)::hook7Parent>::*)(UploadPopupDelegate*, gd::string)>::Impl<bool (hook7<(anonymous namespace)::hook7Parent>::*)(UploadPopupDelegate*, gd::string)>::function(hook7<(anonymous namespace)::hook7Parent>*, UploadPopupDelegate*, gd::string)
FUNC 30e84 400 0 __cxx_global_var_init
FUNC 31284 1c 0 geode::modifier::ModifyBase<geode::modifier::ModifyDerive<hook7<(anonymous namespace)::hook7Parent>, ShareLevelLayer> >::~ModifyBase()
FUNC 312a0 3b4 0 geode::modifier::ModifyDerive<hook7<(anonymous namespace)::hook7Parent>, ShareLevelLayer>::apply()
FUNC 31654 4 0 geode::modifier::ModifyBase<geode::modifier::ModifyDerive<hook7<(anonymous namespace)::hook7Parent>, ShareLevelLayer> >::apply()
FUNC 31658 144 0 geode::modifier::AsStaticFunction_init<hook7<(anonymous namespace)::hook7Parent>, bool (hook7<(anonymous namespace)::hook7Parent>::*)(GJGameLevel*)>::Impl<bool (hook7<(anonymous namespace)::hook7Parent>::*)(GJGameLevel*)>::function(hook7<(anonymous namespace)::hook7Parent>*, GJGameLevel*)
FUNC 3179c 400 0 __cxx_global_var_init
FUNC 31b9c 1c 0 geode::modifier::ModifyBase<geode::modifier::ModifyDerive<hook7<(anonymous namespace)::hook7Parent>, ShareLevelSettingsLayer> >::~ModifyBase()
FUNC 31bb8 3dc 0 geode::modifier::ModifyDerive<hook7<(anonymous namespace)::hook7Parent>, ShareLevelSettingsLayer>::apply()
FUNC 31f94 4 0 geode::modifier::ModifyBase<geode::modifier::ModifyDerive<hook7<(anonymous namespace)::hook7Parent>, ShareLevelSettingsLayer> >::apply()
FUNC 31f98 144 0 geode::modifier::AsStaticFunction_init<hook7<(anonymous namespace)::hook7Parent>, bool (hook7<(anonymous namespace)::hook7Parent>::*)(GJGameLevel*)>::Impl<bool (hook7<(anonymous namespace)::hook7Parent>::*)(GJGameLevel*)>::function(hook7<(anonymous namespace)::hook7Parent>*, GJGameLevel*)
FUNC 320dc 400 0 __cxx_global_var_init
FUNC 324dc 1c 0 geode::modifier::ModifyBase<geode::modifier::ModifyDerive<hook7<(anonymous namespace)::hook7Parent>, GJPromoPopup> >::~ModifyBase()
FUNC 324f8 3c8 0 geode::modifier::ModifyDerive<hook7<(anonymous namespace)::hook7Parent>, GJPromoPopup>::apply()
FUNC 328c0 4 0 geode::modifier::ModifyBase<geode::modifier::ModifyDerive<hook7<(anonymous namespace)::hook7Parent>, GJPromoPopup> >::apply()
FUNC 328c4 194 0 geode::modifier::AsStaticFunction_init<hook7<(anonymous namespace)::hook7Parent>, bool (hook7<(anonymous namespace)::hook7Parent>::*)(gd::string)>::Impl<bool (hook7<(anonymous namespace)::hook7Parent>::*)(gd::string)>::function(hook7<(anonymous namespace)::hook7Parent>*, gd::string)
FUNC 32a58 400 0 __cxx_global_var_init
FUNC 32e58 1c 0 geode::modifier::ModifyBase<geode::modifier::ModifyDerive<hook7<(anonymous namespace)::hook7Parent>, ShareCommentLayer> >::~ModifyBase()
FUNC 32e74 480 0 geode::modifier::ModifyDerive<hook7<(anonymous namespace)::hook7Parent>, ShareCommentLayer>::apply()
FUNC 332f4 4 0 geode::modifier::ModifyBase<geode::modifier::ModifyDerive<hook7<(anonymous namespace)::hook7Parent>, ShareCommentLayer> >::apply()
FUNC 332f8 204 0 geode::modifier::AsStaticFunction_init<hook7<(anonymous namespace)::hook7Parent>, bool (hook7<(anonymous namespace)::hook7Parent>::*)(gd::string, int, CommentType, int, gd::string)>::Impl<bool (hook7<(anonymous namespace)::hook7Parent>::*)(gd::string, int, CommentType, int, gd::string)>::function(hook7<(anonymous namespace)::hook7Parent>*, gd::string, int, CommentType, int, gd::string)
FUNC 334fc e3c 0 DayAndNightSystem::init()
FUNC 34338 8c 0 std::__ndk1::basic_string<char, std::__ndk1::char_traits<char>, std::__ndk1::allocator<char> >::basic_string[abi:ne180000]<0>()
FUNC 343c4 790 0 DayAndNightSystemOverlay::init()
FUNC 34b54 8 0 cocos2d::CCCopying::copyWithZone(cocos2d::CCZone*)
FUNC 34b5c 24 0 DayAndNightSystem::~DayAndNightSystem()
FUNC 34b80 24 0 DayAndNightSystemOverlay::~DayAndNightSystemOverlay()
FUNC 34ba4 30 0 geodeImplicitEntry
FUNC 34bd4 4c 0 std::__ndk1::unordered_map<void*, bool, std::__ndk1::hash<void*>, std::__ndk1::equal_to<void*>, std::__ndk1::allocator<std::__ndk1::pair<void* const, bool> > >::~unordered_map[abi:ne180000]()
FUNC 34c20 134 0 wrapFunction(unsigned long, tulip::hook::WrapperMetadata const&)
FUNC 34d54 78 0 geode::impl::ResultData<void*, std::__ndk1::basic_string<char, std::__ndk1::char_traits<char>, std::__ndk1::allocator<char> > >::unwrapErr() &
FUNC 34dcc 74 0 geode::impl::ResultData<void*, std::__ndk1::basic_string<char, std::__ndk1::char_traits<char>, std::__ndk1::allocator<char> > >::~ResultData()
FUNC 34e40 64 0 tulip::hook::WrapperMetadata::~WrapperMetadata()
FUNC 34ea4 24 0 cocos2d::CCObject::~CCObject()
FUNC 34ec8 25c 0 cocos2d::CCNode::CCNode()
FUNC 35124 24 0 cocos2d::CCNode::~CCNode()
FUNC 35148 180 0 GJPromoPopup::init(gd::string)
FUNC 352c8 a4 0 tulip::hook::AbstractFunction::from<bool, GJPromoPopup*, gd::string>(bool (*)(GJPromoPopup*, gd::string))
FUNC 3536c 1cc 0 ShareCommentLayer::init(gd::string, int, CommentType, int, gd::string)
FUNC 35538 470 0 tulip::hook::AbstractFunction::from<bool, ShareCommentLayer*, gd::string, int, CommentType, int, gd::string>(bool (*)(ShareCommentLayer*, gd::string, int, CommentType, int, gd::string))
FUNC 359a8 190 0 UploadActionPopup::init(UploadPopupDelegate*, gd::string)
FUNC 35b38 fc 0 tulip::hook::AbstractFunction::from<bool, UploadActionPopup*, UploadPopupDelegate*, gd::string>(bool (*)(UploadActionPopup*, UploadPopupDelegate*, gd::string))
FUNC 35c34 4 0 cocos2d::CCObject::update(float)
FUNC 35c38 2a8 0 cocos2d::CCNode::~CCNode()
FUNC 35ee0 4c4 0 cocos2d::CCObject::~CCObject()
FUNC 363a4 154 0 _ZN5geode15UnwrapExceptionC2IRPvQsr4implE18IsStringStreamableIT_EEENS_4impl5OkTagEOS4_
FUNC 364f8 168 0 _ZN5geode15UnwrapExceptionC2IRNSt6__ndk112basic_stringIcNS2_11char_traitsIcEENS2_9allocatorIcEEEEQsr4implE18IsStringStreamableIT_EEENS_4impl6ErrTagEOSA_
FUNC 36660 4 0 std::__ndk1::__variant_detail::__visitation::__base::__dispatcher<(unsigned long)0>::__dispatch[abi:ne180000]<std::__ndk1::__variant_detail::__dtor<std::__ndk1::__variant_detail::__traits<void*, std::__ndk1::basic_string<char, std::__ndk1::char_traits<char>, std::__ndk1::allocator<char> > >, (std::__ndk1::__variant_detail::_Trait)1>::__destroy[abi:ne180000]()::{lambda(auto:1&)#1}, std::__ndk1::__variant_detail::__base<(std::__ndk1::__variant_detail::__traits<void*, std::__ndk1::basic_string<char, std::__ndk1::char_traits<char>, std::__ndk1::allocator<char> > >)1, std::__ndk1::__variant_detail::__traits, std::__ndk1::allocator<char> >&>(std::__ndk1::__variant_detail::__dtor<std::__ndk1::__variant_detail::__traits<void*, std::__ndk1::basic_string<char, std::__ndk1::char_traits<char>, std::__ndk1::allocator<char> > >, (std::__ndk1::__variant_detail::_Trait)1>, std::__ndk1::__variant_detail::__base<(std::__ndk1::__variant_detail::__traits<void*, std::__ndk1::basic_string<char, std::__ndk1::char_traits<char>, std::__ndk1::allocator<char> > >)1, std::__ndk1::__variant_detail::__traits, std::__ndk1::allocator<char> >&)
FUNC 36664 14 0 std::__ndk1::__variant_detail::__visitation::__base::__dispatcher<(unsigned long)1>::__dispatch[abi:ne180000]<std::__ndk1::__variant_detail::__dtor<std::__ndk1::__variant_detail::__traits<void*, std::__ndk1::basic_string<char, std::__ndk1::char_traits<char>, std::__ndk1::allocator<char> > >, (std::__ndk1::__variant_detail::_Trait)1>::__destroy[abi:ne180000]()::{lambda(auto:1&)#1}, std::__ndk1::__variant_detail::__base<(std::__ndk1::__variant_detail::__traits<void*, std::__ndk1::basic_string<char, std::__ndk1::char_traits<char>, std::__ndk1::allocator<char> > >)1, std::__ndk1::__variant_detail::__traits, std::__ndk1::allocator<char> >&>(std::__ndk1::__variant_detail::__dtor<std::__ndk1::__variant_detail::__traits<void*, std::__ndk1::basic_string<char, std::__ndk1::char_traits<char>, std::__ndk1::allocator<char> > >, (std::__ndk1::__variant_detail::_Trait)1>, std::__ndk1::__variant_detail::__base<(std::__ndk1::__variant_detail::__traits<void*, std::__ndk1::basic_string<char, std::__ndk1::char_traits<char>, std::__ndk1::allocator<char> > >)1, std::__ndk1::__variant_detail::__traits, std::__ndk1::allocator<char> >&)
FUNC 36678 43c 0 std::__ndk1::__hash_table<std::__ndk1::__hash_value_type<void*, bool>, std::__ndk1::__unordered_map_hasher<void*, std::__ndk1::__hash_value_type<void*, bool>, std::__ndk1::hash<void*>, std::__ndk1::equal_to<void*>, true>, std::__ndk1::__unordered_map_equal<void*, std::__ndk1::__hash_value_type<void*, bool>, std::__ndk1::equal_to<void*>, std::__ndk1::hash<void*>, true>, std::__ndk1::allocator<std::__ndk1::__hash_value_type<void*, bool> > >::__emplace_unique_key_args<void*, std::__ndk1::piecewise_construct_t const&, std::__ndk1::tuple<void* const&>, std::__ndk1::tuple<> >(void* const&, std::__ndk1::piecewise_construct_t const&, std::__ndk1::tuple<void* const&>, std::__ndk1::tuple<>)
PUBLIC 36ac0 0 <.plt ELF section in ninsam.day_and_night_system.android64.so>
STACK CFI INIT 14330 10 .cfa: sp 0 +
STACK CFI INIT 14340 8 .cfa: sp 0 +
STACK CFI INIT 14348 8 .cfa: sp 0 +
STACK CFI INIT 14350 14 .cfa: sp 0 +
STACK CFI INIT 14364 1c .cfa: sp 0 +
STACK CFI INIT 14380 10 .cfa: sp 0 +
STACK CFI INIT 14390 134 .cfa: sp 0 +
STACK CFI INIT 144c4 84 .cfa: sp 0 +
STACK CFI INIT 14548 f4 .cfa: sp 0 +
STACK CFI INIT 1463c a8 .cfa: sp 0 +
STACK CFI INIT 146e4 7c .cfa: sp 0 +
STACK CFI INIT 14760 14 .cfa: sp 0 +
STACK CFI INIT 14774 40 .cfa: sp 0 +
STACK CFI INIT 147b4 28 .cfa: sp 0 +
STACK CFI INIT 147dc 190 .cfa: sp 0 +
STACK CFI INIT 1496c 2c8 .cfa: sp 0 +
STACK CFI INIT 14c34 8 .cfa: sp 0 +
STACK CFI INIT 14c3c 8 .cfa: sp 0 +
STACK CFI INIT 14c44 44 .cfa: sp 0 +
STACK CFI INIT 14c88 e8 .cfa: sp 0 +
STACK CFI INIT 14d70 e8 .cfa: sp 0 +
STACK CFI INIT 14e58 14 .cfa: sp 0 +
STACK CFI INIT 14e6c 10 .cfa: sp 0 +
STACK CFI INIT 14e7c 10 .cfa: sp 0 +
STACK CFI INIT 14e8c f0 .cfa: sp 0 +
STACK CFI INIT 14f7c 44 .cfa: sp 0 +
STACK CFI INIT 14fc0 c .cfa: sp 0 +
STACK CFI INIT 14fcc c .cfa: sp 0 +
STACK CFI INIT 14fd8 2c .cfa: sp 0 +
STACK CFI INIT 15004 280 .cfa: sp 0 +
STACK CFI INIT 15284 c .cfa: sp 0 +
STACK CFI INIT 15290 120 .cfa: sp 0 +
STACK CFI INIT 153b0 488 .cfa: sp 0 +
STACK CFI INIT 15838 c48 .cfa: sp 0 +
STACK CFI INIT 16480 134 .cfa: sp 0 +
STACK CFI INIT 165b4 210 .cfa: sp 0 +
STACK CFI INIT 167c4 38c .cfa: sp 0 +
STACK CFI INIT 16b50 1c8 .cfa: sp 0 +
STACK CFI INIT 16d18 9bc .cfa: sp 0 +
STACK CFI INIT 176d4 2d4 .cfa: sp 0 +
STACK CFI INIT 179a8 134 .cfa: sp 0 +
STACK CFI INIT 17adc 120 .cfa: sp 0 +
STACK CFI INIT 17bfc 1c8 .cfa: sp 0 +
STACK CFI INIT 17dc4 168 .cfa: sp 0 +
STACK CFI INIT 17f2c fc .cfa: sp 0 +
STACK CFI INIT 18028 30 .cfa: sp 0 +
STACK CFI INIT 18190 30 .cfa: sp 0 +
STACK CFI INIT 181c0 98 .cfa: sp 0 +
STACK CFI INIT 18258 59c .cfa: sp 0 +
STACK CFI INIT 187f4 8c .cfa: sp 0 +
STACK CFI INIT 18880 30 .cfa: sp 0 +
STACK CFI INIT 18cb0 1c .cfa: sp 0 +
STACK CFI INIT 190d0 50 .cfa: sp 0 +
STACK CFI 190d4 .cfa: sp 32 +
STACK CFI 190dc .cfa: x29 32 + x19: .cfa -16 + ^ .ra: .cfa -24 + ^ x29: .cfa -32 + ^
STACK CFI 190f4 .cfa: sp 32 +
STACK CFI 190fc .cfa: sp 0 +
STACK CFI 19100 .cfa: x29 32 +
STACK CFI 19114 .cfa: sp 32 +
STACK CFI 1911c .cfa: sp 0 +
STACK CFI INIT 19194 7c .cfa: sp 0 +
STACK CFI 19198 .cfa: sp 48 +
STACK CFI 191a4 .cfa: x29 48 + x19: .cfa -8 + ^ x20: .cfa -16 + ^ x21: .cfa -32 + ^ .ra: .cfa -40 + ^ x29: .cfa -48 + ^
STACK CFI 191f0 .cfa: sp 48 +
STACK CFI 191fc .cfa: sp 0 +
STACK CFI 19200 .cfa: sp 48 +
STACK CFI 1920c .cfa: sp 0 +
STACK CFI INIT 19210 4 .cfa: sp 0 +
STACK CFI INIT 19214 10 .cfa: sp 0 +
STACK CFI 19218 .cfa: sp 16 +
STACK CFI 1921c .cfa: x29 16 + .ra: .cfa -8 + ^ x29: .cfa -16 + ^
STACK CFI INIT 19378 34 .cfa: sp 0 +
STACK CFI 1937c .cfa: sp 16 +
STACK CFI 19380 .cfa: x29 16 + .ra: .cfa -8 + ^ x29: .cfa -16 + ^
STACK CFI INIT 194d0 80 .cfa: sp 0 +
STACK CFI 194d4 .cfa: sp 48 +
STACK CFI 194e0 .cfa: x29 48 + x19: .cfa -8 + ^ x20: .cfa -16 + ^ x21: .cfa -32 + ^ .ra: .cfa -40 + ^ x29: .cfa -48 + ^
STACK CFI 19540 .cfa: sp 48 +
STACK CFI 1954c .cfa: sp 0 +
STACK CFI INIT 19550 24 .cfa: sp 0 +
STACK CFI 19554 .cfa: sp 32 +
STACK CFI 1955c .cfa: x29 32 + x19: .cfa -16 + ^ .ra: .cfa -24 + ^ x29: .cfa -32 + ^
STACK CFI 19568 .cfa: sp 32 +
STACK CFI 19570 .cfa: sp 0 +
STACK CFI INIT 198c0 14 .cfa: sp 0 +
STACK CFI 198c4 .cfa: sp 16 +
STACK CFI 198c8 .cfa: x29 16 + .ra: .cfa -8 + ^ x29: .cfa -16 + ^
STACK CFI INIT 19924 30 .cfa: sp 0 +
STACK CFI 19928 .cfa: sp 32 +
STACK CFI 19930 .cfa: x29 32 + x19: .cfa -16 + ^ .ra: .cfa -24 + ^ x29: .cfa -32 + ^
STACK CFI 19948 .cfa: sp 32 +
STACK CFI 19950 .cfa: sp 0 +
STACK CFI INIT 19954 34 .cfa: sp 0 +
STACK CFI 19958 .cfa: sp 32 +
STACK CFI 19960 .cfa: x29 32 + x19: .cfa -16 + ^ .ra: .cfa -24 + ^ x29: .cfa -32 + ^
STACK CFI INIT 19ae4 148 .cfa: sp 0 +
STACK CFI 19ae8 .cfa: sp 48 +
STACK CFI 19af4 .cfa: x29 48 + x19: .cfa -8 + ^ x20: .cfa -16 + ^ x21: .cfa -32 + ^ .ra: .cfa -40 + ^ x29: .cfa -48 + ^
STACK CFI 19c1c .cfa: sp 48 +
STACK CFI 19c28 .cfa: sp 0 +
STACK CFI INIT 19e48 70 .cfa: sp 0 +
STACK CFI 19e4c .cfa: sp 48 +
STACK CFI 19e58 .cfa: x29 48 + x19: .cfa -8 + ^ x20: .cfa -16 + ^ x21: .cfa -24 + ^ x22: .cfa -32 + ^ .ra: .cfa -40 + ^ x29: .cfa -48 + ^
STACK CFI 19ea0 .cfa: sp 48 +
STACK CFI 19eac .cfa: sp 0 +
STACK CFI 19eb0 .cfa: x29 48 +
STACK CFI INIT 19eb8 68 .cfa: sp 0 +
STACK CFI 19ebc .cfa: sp 32 +
STACK CFI 19ec4 .cfa: x29 32 + x19: .cfa -8 + ^ x20: .cfa -16 + ^ .ra: .cfa -24 + ^ x29: .cfa -32 + ^
STACK CFI 19edc .cfa: sp 32 +
STACK CFI 19ee4 .cfa: sp 0 +
STACK CFI 19ee8 .cfa: x29 32 +
STACK CFI 19f14 .cfa: sp 32 +
STACK CFI 19f1c .cfa: sp 0 +
STACK CFI INIT 19f20 14 .cfa: sp 0 +
STACK CFI 19f24 .cfa: sp 16 +
STACK CFI 19f28 .cfa: x29 16 + .ra: .cfa -8 + ^ x29: .cfa -16 + ^
STACK CFI INIT 19f34 4 .cfa: sp 0 +
STACK CFI INIT 19f38 14 .cfa: sp 0 +
STACK CFI INIT 19f4c fc .cfa: sp 0 +
STACK CFI 19f50 .cfa: sp 64 +
STACK CFI 19f60 .cfa: x29 64 + x19: .cfa -8 + ^ x20: .cfa -16 + ^ x21: .cfa -24 + ^ x22: .cfa -32 + ^ x23: .cfa -40 + ^ x24: .cfa -48 + ^ .ra: .cfa -56 + ^ x29: .cfa -64 + ^
STACK CFI 1a034 .cfa: sp 64 +
STACK CFI 1a044 .cfa: sp 0 +
STACK CFI INIT 1a048 d4 .cfa: sp 0 +
STACK CFI 1a04c .cfa: sp 48 +
STACK CFI 1a058 .cfa: x29 48 + x19: .cfa -8 + ^ x20: .cfa -16 + ^ x21: .cfa -32 + ^ .ra: .cfa -40 + ^ x29: .cfa -48 + ^
STACK CFI 1a0e8 .cfa: sp 48 +
STACK CFI 1a0f4 .cfa: sp 0 +
STACK CFI 1a0f8 .cfa: x29 48 +
STACK CFI INIT 1a11c 388 .cfa: sp 0 +
STACK CFI INIT 1a4a4 8c .cfa: sp 0 +
STACK CFI 1a4ac .cfa: sp 32 +
STACK CFI 1a4b4 .cfa: x29 32 + x19: .cfa -8 + ^ x20: .cfa -16 + ^ .ra: .cfa -24 + ^ x29: .cfa -32 + ^
STACK CFI 1a4fc .cfa: sp 32 +
STACK CFI 1a504 .cfa: sp 0 +
STACK CFI 1a50c .cfa: x29 32 +
STACK CFI INIT 1a754 50 .cfa: sp 0 +
STACK CFI 1a758 .cfa: sp 32 +
STACK CFI 1a760 .cfa: x29 32 + x19: .cfa -16 + ^ .ra: .cfa -24 + ^ x29: .cfa -32 + ^
STACK CFI 1a778 .cfa: sp 32 +
STACK CFI 1a780 .cfa: sp 0 +
STACK CFI 1a784 .cfa: x29 32 +
STACK CFI 1a798 .cfa: sp 32 +
STACK CFI 1a7a0 .cfa: sp 0 +
STACK CFI INIT 1a7a4 64 .cfa: sp 0 +
STACK CFI 1a7a8 .cfa: sp 32 +
STACK CFI 1a7b0 .cfa: x29 32 + x19: .cfa -16 + ^ .ra: .cfa -24 + ^ x29: .cfa -32 + ^
STACK CFI 1a7dc .cfa: sp 32 +
STACK CFI 1a7e4 .cfa: sp 0 +
STACK CFI 1a7e8 .cfa: x29 32 +
STACK CFI 1a7fc .cfa: sp 32 +
STACK CFI 1a804 .cfa: sp 0 +
STACK CFI INIT 1a808 104 .cfa: sp 0 +
STACK CFI 1a80c .cfa: sp 80 +
STACK CFI 1a820 .cfa: x29 80 + x19: .cfa -8 + ^ x20: .cfa -16 + ^ x21: .cfa -24 + ^ x22: .cfa -32 + ^ x23: .cfa -40 + ^ x24: .cfa -48 + ^ x25: .cfa -56 + ^ x26: .cfa -64 + ^ .ra: .cfa -72 + ^ x29: .cfa -80 + ^
STACK CFI 1a8f4 .cfa: sp 80 +
STACK CFI 1a908 .cfa: sp 0 +
STACK CFI INIT 1a90c 19c .cfa: sp 0 +
STACK CFI INIT 1aea8 1c .cfa: sp 0 +
STACK CFI INIT 1b220 4 .cfa: sp 0 +
STACK CFI INIT 1b4f0 9c .cfa: sp 0 +
STACK CFI INIT 1b98c 1c .cfa: sp 0 +
STACK CFI INIT 1bd10 4 .cfa: sp 0 +
STACK CFI INIT 1bfe0 98 .cfa: sp 0 +
STACK CFI INIT 1c478 1c .cfa: sp 0 +
STACK CFI INIT 1c848 30 .cfa: sp 0 +
STACK CFI 1c84c .cfa: sp 32 +
STACK CFI 1c854 .cfa: x29 32 + x19: .cfa -16 + ^ .ra: .cfa -24 + ^ x29: .cfa -32 + ^
STACK CFI 1c86c .cfa: sp 32 +
STACK CFI 1c874 .cfa: sp 0 +
STACK CFI INIT 1c878 4 .cfa: sp 0 +
STACK CFI INIT 1d940 2c .cfa: sp 0 +
STACK CFI INIT 1d96c e4 .cfa: sp 0 +
STACK CFI 1d970 .cfa: sp 64 +
STACK CFI 1d980 .cfa: x29 64 + x19: .cfa -8 + ^ x20: .cfa -16 + ^ x21: .cfa -24 + ^ x22: .cfa -32 + ^ x23: .cfa -48 + ^ .ra: .cfa -56 + ^ x29: .cfa -64 + ^
STACK CFI 1d9f8 .cfa: sp 64 +
STACK CFI 1da08 .cfa: sp 0 +
STACK CFI 1da0c .cfa: x29 64 +
STACK CFI INIT 1de50 1c .cfa: sp 0 +
STACK CFI INIT 1e240 4 .cfa: sp 0 +
STACK CFI INIT 1e868 1c .cfa: sp 0 +
STACK CFI INIT 1ec44 4 .cfa: sp 0 +
STACK CFI INIT 1fb00 1c .cfa: sp 0 +
STACK CFI INIT 1fef0 4 .cfa: sp 0 +
STACK CFI INIT 20518 1c .cfa: sp 0 +
STACK CFI INIT 208e8 4 .cfa: sp 0 +
STACK CFI INIT 20f38 1c .cfa: sp 0 +
STACK CFI INIT 212c4 4 .cfa: sp 0 +
STACK CFI INIT 21ca8 90 .cfa: sp 0 +
STACK CFI INIT 22138 1c .cfa: sp 0 +
STACK CFI INIT 22514 4 .cfa: sp 0 +
STACK CFI INIT 22a5c 1c .cfa: sp 0 +
STACK CFI INIT 22e6c 4 .cfa: sp 0 +
STACK CFI INIT 233b4 1c .cfa: sp 0 +
STACK CFI INIT 23730 4 .cfa: sp 0 +
STACK CFI INIT 23920 94 .cfa: sp 0 +
STACK CFI 23924 .cfa: sp 32 +
STACK CFI 2392c .cfa: x29 32 + x19: .cfa -16 + ^ .ra: .cfa -24 + ^ x29: .cfa -32 + ^
STACK CFI 239a8 .cfa: sp 32 +
STACK CFI 239b0 .cfa: sp 0 +
STACK CFI INIT 23db4 1c .cfa: sp 0 +
STACK CFI INIT 24140 4 .cfa: sp 0 +
STACK CFI INIT 24330 9c .cfa: sp 0 +
STACK CFI 24334 .cfa: sp 32 +
STACK CFI 2433c .cfa: x29 32 + x19: .cfa -16 + ^ .ra: .cfa -24 + ^ x29: .cfa -32 + ^
STACK CFI 243c0 .cfa: sp 32 +
STACK CFI 243c8 .cfa: sp 0 +
STACK CFI INIT 247cc 1c .cfa: sp 0 +
STACK CFI INIT 24b4c 4 .cfa: sp 0 +
STACK CFI INIT 24d3c 8c .cfa: sp 0 +
STACK CFI 24d40 .cfa: sp 32 +
STACK CFI 24d48 .cfa: x29 32 + x19: .cfa -16 + ^ .ra: .cfa -24 + ^ x29: .cfa -32 + ^
STACK CFI 24dbc .cfa: sp 32 +
STACK CFI 24dc4 .cfa: sp 0 +
STACK CFI INIT 251c8 1c .cfa: sp 0 +
STACK CFI INIT 255e0 4 .cfa: sp 0 +
STACK CFI INIT 25b28 1c .cfa: sp 0 +
STACK CFI INIT 25f50 4 .cfa: sp 0 +
STACK CFI INIT 26498 1c .cfa: sp 0 +
STACK CFI INIT 26890 4 .cfa: sp 0 +
STACK CFI INIT 26dd8 1c .cfa: sp 0 +
STACK CFI INIT 271c8 4 .cfa: sp 0 +
STACK CFI INIT 27710 1c .cfa: sp 0 +
STACK CFI INIT 27b08 4 .cfa: sp 0 +
STACK CFI INIT 28050 1c .cfa: sp 0 +
STACK CFI INIT 28448 4 .cfa: sp 0 +
STACK CFI INIT 28990 1c .cfa: sp 0 +
STACK CFI INIT 28d6c 4 .cfa: sp 0 +
STACK CFI INIT 292b4 1c .cfa: sp 0 +
STACK CFI INIT 2a19c 4 .cfa: sp 0 +
STACK CFI INIT 2a30c 14 .cfa: sp 0 +
STACK CFI 2a310 .cfa: sp 16 +
STACK CFI 2a314 .cfa: x29 16 + .ra: .cfa -8 + ^ x29: .cfa -16 + ^
STACK CFI INIT 2a720 1c .cfa: sp 0 +
STACK CFI INIT 2b414 4 .cfa: sp 0 +
STACK CFI INIT 2b974 1c .cfa: sp 0 +
STACK CFI INIT 2bcf4 4 .cfa: sp 0 +
STACK CFI INIT 2bee4 9c .cfa: sp 0 +
STACK CFI 2bee8 .cfa: sp 32 +
STACK CFI 2bef0 .cfa: x29 32 + x19: .cfa -16 + ^ .ra: .cfa -24 + ^ x29: .cfa -32 + ^
STACK CFI 2bf74 .cfa: sp 32 +
STACK CFI 2bf7c .cfa: sp 0 +
STACK CFI INIT 2c380 1c .cfa: sp 0 +
STACK CFI INIT 2c720 4 .cfa: sp 0 +
STACK CFI INIT 2c910 84 .cfa: sp 0 +
STACK CFI 2c914 .cfa: sp 32 +
STACK CFI 2c91c .cfa: x29 32 + x19: .cfa -16 + ^ .ra: .cfa -24 + ^ x29: .cfa -32 + ^
STACK CFI 2c988 .cfa: sp 32 +
STACK CFI 2c990 .cfa: sp 0 +
STACK CFI INIT 2cd94 1c .cfa: sp 0 +
STACK CFI INIT 2d120 4 .cfa: sp 0 +
STACK CFI INIT 2d310 84 .cfa: sp 0 +
STACK CFI 2d314 .cfa: sp 32 +
STACK CFI 2d31c .cfa: x29 32 + x19: .cfa -16 + ^ .ra: .cfa -24 + ^ x29: .cfa -32 + ^
STACK CFI 2d388 .cfa: sp 32 +
STACK CFI 2d390 .cfa: sp 0 +
STACK CFI INIT 2d794 1c .cfa: sp 0 +
STACK CFI INIT 2db70 4 .cfa: sp 0 +
STACK CFI INIT 2e198 1c .cfa: sp 0 +
STACK CFI INIT 2e51c 4 .cfa: sp 0 +
STACK CFI INIT 2e70c 8c .cfa: sp 0 +
STACK CFI 2e710 .cfa: sp 32 +
STACK CFI 2e718 .cfa: x29 32 + x19: .cfa -16 + ^ .ra: .cfa -24 + ^ x29: .cfa -32 + ^
STACK CFI 2e78c .cfa: sp 32 +
STACK CFI 2e794 .cfa: sp 0 +
STACK CFI INIT 2eb98 1c .cfa: sp 0 +
STACK CFI INIT 2ef40 4 .cfa: sp 0 +
STACK CFI INIT 2f130 8c .cfa: sp 0 +
STACK CFI 2f134 .cfa: sp 32 +
STACK CFI 2f13c .cfa: x29 32 + x19: .cfa -16 + ^ .ra: .cfa -24 + ^ x29: .cfa -32 + ^
STACK CFI 2f1b0 .cfa: sp 32 +
STACK CFI 2f1b8 .cfa: sp 0 +
STACK CFI INIT 2f5bc 1c .cfa: sp 0 +
STACK CFI INIT 2f9e4 4 .cfa: sp 0 +
STACK CFI INIT 2ff2c 1c .cfa: sp 0 +
STACK CFI INIT 30354 4 .cfa: sp 0 +
STACK CFI INIT 3089c 1c .cfa: sp 0 +
STACK CFI INIT 30ce0 4 .cfa: sp 0 +
STACK CFI INIT 31284 1c .cfa: sp 0 +
STACK CFI INIT 31654 4 .cfa: sp 0 +
STACK CFI INIT 31b9c 1c .cfa: sp 0 +
STACK CFI INIT 31f94 4 .cfa: sp 0 +
STACK CFI INIT 324dc 1c .cfa: sp 0 +
STACK CFI INIT 328c0 4 .cfa: sp 0 +
STACK CFI INIT 32e58 1c .cfa: sp 0 +
STACK CFI INIT 332f4 4 .cfa: sp 0 +
STACK CFI INIT 34338 8c .cfa: sp 0 +
STACK CFI 3433c .cfa: sp 48 +
STACK CFI 34348 .cfa: x29 48 + x19: .cfa -8 + ^ x20: .cfa -16 + ^ x21: .cfa -24 + ^ x22: .cfa -32 + ^ .ra: .cfa -40 + ^ x29: .cfa -48 + ^
STACK CFI 343ac .cfa: sp 48 +
STACK CFI 343b8 .cfa: sp 0 +
STACK CFI 343bc .cfa: x29 48 +
STACK CFI INIT 34b54 8 .cfa: sp 0 +
STACK CFI INIT 34b5c 24 .cfa: sp 0 +
STACK CFI 34b60 .cfa: sp 32 +
STACK CFI 34b68 .cfa: x29 32 + x19: .cfa -16 + ^ .ra: .cfa -24 + ^ x29: .cfa -32 + ^
STACK CFI 34b74 .cfa: sp 32 +
STACK CFI 34b7c .cfa: sp 0 +
STACK CFI INIT 34b80 24 .cfa: sp 0 +
STACK CFI 34b84 .cfa: sp 32 +
STACK CFI 34b8c .cfa: x29 32 + x19: .cfa -16 + ^ .ra: .cfa -24 + ^ x29: .cfa -32 + ^
STACK CFI 34b98 .cfa: sp 32 +
STACK CFI 34ba0 .cfa: sp 0 +
STACK CFI INIT 34ba4 30 .cfa: sp 0 +
STACK CFI 34ba8 .cfa: sp 32 +
STACK CFI 34bb0 .cfa: x29 32 + x19: .cfa -16 + ^ .ra: .cfa -24 + ^ x29: .cfa -32 + ^
STACK CFI 34bc8 .cfa: sp 32 +
STACK CFI 34bd0 .cfa: sp 0 +
STACK CFI INIT 34bd4 4c .cfa: sp 0 +
STACK CFI 34bd8 .cfa: sp 32 +
STACK CFI 34be0 .cfa: x29 32 + x19: .cfa -8 + ^ x20: .cfa -16 + ^ .ra: .cfa -24 + ^ x29: .cfa -32 + ^
STACK CFI 34c08 .cfa: sp 32 +
STACK CFI 34c10 .cfa: sp 0 +
STACK CFI 34c14 .cfa: sp 32 +
STACK CFI 34c1c .cfa: sp 0 +
STACK CFI INIT 34e40 64 .cfa: sp 0 +
STACK CFI 34e44 .cfa: sp 32 +
STACK CFI 34e4c .cfa: x29 32 + x19: .cfa -16 + ^ .ra: .cfa -24 + ^ x29: .cfa -32 + ^
STACK CFI 34e78 .cfa: sp 32 +
STACK CFI 34e80 .cfa: sp 0 +
STACK CFI 34e84 .cfa: x29 32 +
STACK CFI 34e98 .cfa: sp 32 +
STACK CFI 34ea0 .cfa: sp 0 +
STACK CFI INIT 34ea4 24 .cfa: sp 0 +
STACK CFI 34ea8 .cfa: sp 32 +
STACK CFI 34eb0 .cfa: x29 32 + x19: .cfa -16 + ^ .ra: .cfa -24 + ^ x29: .cfa -32 + ^
STACK CFI 34ebc .cfa: sp 32 +
STACK CFI 34ec4 .cfa: sp 0 +
STACK CFI INIT 35124 24 .cfa: sp 0 +
STACK CFI 35128 .cfa: sp 32 +
STACK CFI 35130 .cfa: x29 32 + x19: .cfa -16 + ^ .ra: .cfa -24 + ^ x29: .cfa -32 + ^
STACK CFI 3513c .cfa: sp 32 +
STACK CFI 35144 .cfa: sp 0 +
STACK CFI INIT 35c34 4 .cfa: sp 0 +
STACK CFI INIT 36660 4 .cfa: sp 0 +
STACK CFI INIT 36664 14 .cfa: sp 0 +
STACK CFI INIT 188b0 400 .cfa: sp 0 +
STACK CFI 188b4 .cfa: sp 224 +
STACK CFI 188d0 .cfa: x29 96 + x19: .cfa -8 + ^ x20: .cfa -16 + ^ x21: .cfa -24 + ^ x22: .cfa -32 + ^ x23: .cfa -40 + ^ x24: .cfa -48 + ^ x25: .cfa -56 + ^ x26: .cfa -64 + ^ x27: .cfa -72 + ^ x28: .cfa -80 + ^ .ra: .cfa -88 + ^ x29: .cfa -96 + ^
STACK CFI 18ba8 .cfa: sp 224 +
STACK CFI 18bc4 .cfa: sp 0 +
STACK CFI 18bc8 .cfa: x29 96 +
STACK CFI INIT 18ccc 404 .cfa: sp 0 +
STACK CFI 18cd0 .cfa: sp 224 +
STACK CFI 18ce4 .cfa: x29 64 + x19: .cfa -8 + ^ x20: .cfa -16 + ^ x21: .cfa -24 + ^ x22: .cfa -32 + ^ x23: .cfa -48 + ^ .ra: .cfa -56 + ^ x29: .cfa -64 + ^
STACK CFI 18fa4 .cfa: sp 224 +
STACK CFI 18fb8 .cfa: sp 0 +
STACK CFI 18fbc .cfa: x29 64 +
STACK CFI INIT 19120 74 .cfa: sp 0 +
STACK CFI 19124 .cfa: sp 48 +
STACK CFI 19130 .cfa: x29 32 + x19: .cfa -8 + ^ x20: .cfa -16 + ^ .ra: .cfa -24 + ^ x29: .cfa -32 + ^
STACK CFI 1917c .cfa: sp 48 +
STACK CFI 19188 .cfa: sp 0 +
STACK CFI 1918c .cfa: x29 32 +
STACK CFI INIT 19224 154 .cfa: sp 0 +
STACK CFI 19228 .cfa: sp 384 +
STACK CFI 1923c .cfa: x29 64 + x19: .cfa -8 + ^ x20: .cfa -16 + ^ x21: .cfa -24 + ^ x22: .cfa -32 + ^ x23: .cfa -40 + ^ x28: .cfa -48 + ^ .ra: .cfa -56 + ^ x29: .cfa -64 + ^
STACK CFI 19320 .cfa: sp 384 +
STACK CFI 19334 .cfa: sp 0 +
STACK CFI 19338 .cfa: x29 64 +
STACK CFI INIT 193ac 124 .cfa: sp 0 +
STACK CFI 193b0 .cfa: sp 80 +
STACK CFI 193c4 .cfa: x29 80 + x19: .cfa -8 + ^ x20: .cfa -16 + ^ x21: .cfa -24 + ^ x22: .cfa -32 + ^ x23: .cfa -40 + ^ x24: .cfa -48 + ^ x25: .cfa -56 + ^ x26: .cfa -64 + ^ .ra: .cfa -72 + ^ x29: .cfa -80 + ^
STACK CFI 19490 .cfa: sp 80 +
STACK CFI 194a4 .cfa: sp 0 +
STACK CFI 194a8 .cfa: x29 80 +
STACK CFI INIT 19574 198 .cfa: sp 0 +
STACK CFI 19578 .cfa: sp 112 +
STACK CFI 19590 .cfa: x29 80 + x19: .cfa -8 + ^ x20: .cfa -16 + ^ x21: .cfa -24 + ^ x22: .cfa -32 + ^ x23: .cfa -40 + ^ x24: .cfa -48 + ^ x25: .cfa -56 + ^ x26: .cfa -64 + ^ .ra: .cfa -72 + ^ x29: .cfa -80 + ^
STACK CFI 19680 .cfa: sp 112 +
STACK CFI 19698 .cfa: sp 0 +
STACK CFI 1969c .cfa: x29 80 +
STACK CFI INIT 1970c 1b4 .cfa: sp 0 +
STACK CFI 19710 .cfa: sp 128 +
STACK CFI 1972c .cfa: x29 96 + x19: .cfa -8 + ^ x20: .cfa -16 + ^ x21: .cfa -24 + ^ x22: .cfa -32 + ^ x23: .cfa -40 + ^ x24: .cfa -48 + ^ x25: .cfa -56 + ^ x26: .cfa -64 + ^ x27: .cfa -80 + ^ .ra: .cfa -88 + ^ x29: .cfa -96 + ^
STACK CFI 19870 .cfa: sp 128 +
STACK CFI 1988c .cfa: sp 0 +
STACK CFI 19890 .cfa: x29 96 +
STACK CFI INIT 198d4 50 .cfa: sp 0 +
STACK CFI 198d8 .cfa: sp 32 +
STACK CFI 198e0 .cfa: x29 32 + x19: .cfa -8 + ^ x20: .cfa -16 + ^ .ra: .cfa -24 + ^ x29: .cfa -32 + ^
STACK CFI INIT 19988 15c .cfa: sp 0 +
STACK CFI 1998c .cfa: sp 80 +
STACK CFI 199a0 .cfa: x29 80 + x19: .cfa -8 + ^ x20: .cfa -16 + ^ x21: .cfa -24 + ^ x22: .cfa -32 + ^ x23: .cfa -40 + ^ x24: .cfa -48 + ^ x25: .cfa -64 + ^ .ra: .cfa -72 + ^ x29: .cfa -80 + ^
STACK CFI 19ab0 .cfa: sp 80 +
STACK CFI 19ac4 .cfa: sp 0 +
STACK CFI 19ac8 .cfa: x29 80 +
STACK CFI INIT 19c2c 21c .cfa: sp 0 +
STACK CFI 19c30 .cfa: sp 128 +
STACK CFI 19c48 .cfa: x29 80 + x19: .cfa -8 + ^ x20: .cfa -16 + ^ x21: .cfa -24 + ^ x22: .cfa -32 + ^ x23: .cfa -40 + ^ x24: .cfa -48 + ^ x25: .cfa -64 + ^ .ra: .cfa -72 + ^ x29: .cfa -80 + ^
STACK CFI 19dd8 .cfa: sp 128 +
STACK CFI 19df0 .cfa: sp 0 +
STACK CFI 19df4 .cfa: x29 80 +
STACK CFI INIT 1a530 224 .cfa: sp 0 +
STACK CFI 1a534 .cfa: sp 80 +
STACK CFI 1a544 .cfa: x29 48 + x19: .cfa -8 + ^ x20: .cfa -16 + ^ x21: .cfa -24 + ^ x22: .cfa -32 + ^ .ra: .cfa -40 + ^ x29: .cfa -48 + ^
STACK CFI 1a6fc .cfa: sp 80 +
STACK CFI 1a70c .cfa: sp 0 +
STACK CFI 1a710 .cfa: x29 48 +
STACK CFI INIT 1aaa8 400 .cfa: sp 0 +
STACK CFI 1aaac .cfa: sp 224 +
STACK CFI 1aac8 .cfa: x29 96 + x19: .cfa -8 + ^ x20: .cfa -16 + ^ x21: .cfa -24 + ^ x22: .cfa -32 + ^ x23: .cfa -40 + ^ x24: .cfa -48 + ^ x25: .cfa -56 + ^ x26: .cfa -64 + ^ x27: .cfa -72 + ^ x28: .cfa -80 + ^ .ra: .cfa -88 + ^ x29: .cfa -96 + ^
STACK CFI 1ada0 .cfa: sp 224 +
STACK CFI 1adbc .cfa: sp 0 +
STACK CFI 1adc0 .cfa: x29 96 +
STACK CFI INIT 1aec4 35c .cfa: sp 0 +
STACK CFI 1aec8 .cfa: sp 176 +
STACK CFI 1aedc .cfa: x29 64 + x19: .cfa -8 + ^ x20: .cfa -16 + ^ x21: .cfa -24 + ^ x22: .cfa -32 + ^ x23: .cfa -48 + ^ .ra: .cfa -56 + ^ x29: .cfa -64 + ^
STACK CFI 1b11c .cfa: sp 176 +
STACK CFI 1b130 .cfa: sp 0 +
STACK CFI 1b134 .cfa: x29 64 +
STACK CFI INIT 1b224 a8 .cfa: sp 0 +
STACK CFI 1b228 .cfa: sp 32 +
STACK CFI 1b230 .cfa: x29 32 + x19: .cfa -8 + ^ x20: .cfa -16 + ^ .ra: .cfa -24 + ^ x29: .cfa -32 + ^
STACK CFI 1b264 .cfa: sp 32 +
STACK CFI 1b26c .cfa: sp 0 +
STACK CFI 1b270 .cfa: x29 32 +
STACK CFI 1b274 .cfa: sp 32 +
STACK CFI 1b27c .cfa: sp 0 +
STACK CFI 1b280 .cfa: x29 32 +
STACK CFI INIT 1b2cc 224 .cfa: sp 0 +
STACK CFI 1b2d0 .cfa: sp 80 +
STACK CFI 1b2e0 .cfa: x29 48 + x19: .cfa -8 + ^ x20: .cfa -16 + ^ x21: .cfa -24 + ^ x22: .cfa -32 + ^ .ra: .cfa -40 + ^ x29: .cfa -48 + ^
STACK CFI 1b498 .cfa: sp 80 +
STACK CFI 1b4a8 .cfa: sp 0 +
STACK CFI 1b4ac .cfa: x29 48 +
STACK CFI INIT 1b58c 400 .cfa: sp 0 +
STACK CFI 1b590 .cfa: sp 224 +
STACK CFI 1b5ac .cfa: x29 96 + x19: .cfa -8 + ^ x20: .cfa -16 + ^ x21: .cfa -24 + ^ x22: .cfa -32 + ^ x23: .cfa -40 + ^ x24: .cfa -48 + ^ x25: .cfa -56 + ^ x26: .cfa -64 + ^ x27: .cfa -72 + ^ x28: .cfa -80 + ^ .ra: .cfa -88 + ^ x29: .cfa -96 + ^
STACK CFI 1b884 .cfa: sp 224 +
STACK CFI 1b8a0 .cfa: sp 0 +
STACK CFI 1b8a4 .cfa: x29 96 +
STACK CFI INIT 1b9a8 368 .cfa: sp 0 +
STACK CFI 1b9ac .cfa: sp 192 +
STACK CFI 1b9c0 .cfa: x29 64 + x19: .cfa -8 + ^ x20: .cfa -16 + ^ x21: .cfa -24 + ^ x22: .cfa -32 + ^ x23: .cfa -48 + ^ .ra: .cfa -56 + ^ x29: .cfa -64 + ^
STACK CFI 1bc0c .cfa: sp 192 +
STACK CFI 1bc20 .cfa: sp 0 +
STACK CFI 1bc24 .cfa: x29 64 +
STACK CFI INIT 1bd14 a8 .cfa: sp 0 +
STACK CFI 1bd18 .cfa: sp 32 +
STACK CFI 1bd20 .cfa: x29 32 + x19: .cfa -8 + ^ x20: .cfa -16 + ^ .ra: .cfa -24 + ^ x29: .cfa -32 + ^
STACK CFI 1bd54 .cfa: sp 32 +
STACK CFI 1bd5c .cfa: sp 0 +
STACK CFI 1bd60 .cfa: x29 32 +
STACK CFI 1bd64 .cfa: sp 32 +
STACK CFI 1bd6c .cfa: sp 0 +
STACK CFI 1bd70 .cfa: x29 32 +
STACK CFI INIT 1bdbc 224 .cfa: sp 0 +
STACK CFI 1bdc0 .cfa: sp 80 +
STACK CFI 1bdd0 .cfa: x29 48 + x19: .cfa -8 + ^ x20: .cfa -16 + ^ x21: .cfa -24 + ^ x22: .cfa -32 + ^ .ra: .cfa -40 + ^ x29: .cfa -48 + ^
STACK CFI 1bf88 .cfa: sp 80 +
STACK CFI 1bf98 .cfa: sp 0 +
STACK CFI 1bf9c .cfa: x29 48 +
STACK CFI INIT 1c078 400 .cfa: sp 0 +
STACK CFI 1c07c .cfa: sp 224 +
STACK CFI 1c098 .cfa: x29 96 + x19: .cfa -8 + ^ x20: .cfa -16 + ^ x21: .cfa -24 + ^ x22: .cfa -32 + ^ x23: .cfa -40 + ^ x24: .cfa -48 + ^ x25: .cfa -56 + ^ x26: .cfa -64 + ^ x27: .cfa -72 + ^ x28: .cfa -80 + ^ .ra: .cfa -88 + ^ x29: .cfa -96 + ^
STACK CFI 1c370 .cfa: sp 224 +
STACK CFI 1c38c .cfa: sp 0 +
STACK CFI 1c390 .cfa: x29 96 +
STACK CFI INIT 1c494 3b4 .cfa: sp 0 +
STACK CFI 1c498 .cfa: sp 192 +
STACK CFI 1c4ac .cfa: x29 64 + x19: .cfa -8 + ^ x20: .cfa -16 + ^ x21: .cfa -24 + ^ x22: .cfa -32 + ^ x23: .cfa -40 + ^ x24: .cfa -48 + ^ .ra: .cfa -56 + ^ x29: .cfa -64 + ^
STACK CFI 1c728 .cfa: sp 192 +
STACK CFI 1c73c .cfa: sp 0 +
STACK CFI 1c740 .cfa: x29 64 +
STACK CFI INIT 1c87c e78 .cfa: sp 0 +
STACK CFI 1c880 .cfa: sp 304 +
STACK CFI 1c8a0 .cfa: x29 96 + x19: .cfa -8 + ^ x20: .cfa -16 + ^ x21: .cfa -24 + ^ x22: .cfa -32 + ^ x23: .cfa -40 + ^ x24: .cfa -48 + ^ x25: .cfa -56 + ^ x26: .cfa -64 + ^ x27: .cfa -72 + ^ x28: .cfa -80 + ^ .ra: .cfa -88 + ^ x29: .cfa -96 + ^ v8: .cfa -104 + ^ v9: .cfa -112 + ^
STACK CFI 1d278 .cfa: sp 304 +
STACK CFI 1d298 .cfa: sp 0 +
STACK CFI 1d29c .cfa: x29 96 +
STACK CFI INIT 1d6f4 118 .cfa: sp 0 +
STACK CFI 1d6f8 .cfa: sp 80 +
STACK CFI 1d708 .cfa: x29 48 + x19: .cfa -8 + ^ x20: .cfa -16 + ^ x21: .cfa -24 + ^ x22: .cfa -32 + ^ .ra: .cfa -40 + ^ x29: .cfa -48 + ^
STACK CFI 1d7f0 .cfa: sp 80 +
STACK CFI 1d800 .cfa: sp 0 +
STACK CFI 1d804 .cfa: x29 48 +
STACK CFI INIT 1d80c 134 .cfa: sp 0 +
STACK CFI 1d810 .cfa: sp 80 +
STACK CFI 1d820 .cfa: x29 48 + x19: .cfa -8 + ^ x20: .cfa -16 + ^ x21: .cfa -24 + ^ x22: .cfa -32 + ^ .ra: .cfa -40 + ^ x29: .cfa -48 + ^
STACK CFI 1d924 .cfa: sp 80 +
STACK CFI 1d934 .cfa: sp 0 +
STACK CFI 1d938 .cfa: x29 48 +
STACK CFI INIT 1da50 400 .cfa: sp 0 +
STACK CFI 1da54 .cfa: sp 224 +
STACK CFI 1da70 .cfa: x29 96 + x19: .cfa -8 + ^ x20: .cfa -16 + ^ x21: .cfa -24 + ^ x22: .cfa -32 + ^ x23: .cfa -40 + ^ x24: .cfa -48 + ^ x25: .cfa -56 + ^ x26: .cfa -64 + ^ x27: .cfa -72 + ^ x28: .cfa -80 + ^ .ra: .cfa -88 + ^ x29: .cfa -96 + ^
STACK CFI 1dd48 .cfa: sp 224 +
STACK CFI 1dd64 .cfa: sp 0 +
STACK CFI 1dd68 .cfa: x29 96 +
STACK CFI INIT 1de6c 3d4 .cfa: sp 0 +
STACK CFI 1de70 .cfa: sp 240 +
STACK CFI 1de84 .cfa: x29 64 + x19: .cfa -8 + ^ x20: .cfa -16 + ^ x21: .cfa -24 + ^ x22: .cfa -32 + ^ x23: .cfa -40 + ^ x24: .cfa -48 + ^ .ra: .cfa -56 + ^ x29: .cfa -64 + ^
STACK CFI 1e118 .cfa: sp 240 +
STACK CFI 1e12c .cfa: sp 0 +
STACK CFI 1e130 .cfa: x29 64 +
STACK CFI INIT 1e244 224 .cfa: sp 0 +
STACK CFI 1e248 .cfa: sp 80 +
STACK CFI 1e258 .cfa: x29 48 + x19: .cfa -8 + ^ x20: .cfa -16 + ^ x21: .cfa -24 + ^ x22: .cfa -32 + ^ .ra: .cfa -40 + ^ x29: .cfa -48 + ^
STACK CFI 1e410 .cfa: sp 80 +
STACK CFI 1e420 .cfa: sp 0 +
STACK CFI 1e424 .cfa: x29 48 +
STACK CFI INIT 1e468 400 .cfa: sp 0 +
STACK CFI 1e46c .cfa: sp 224 +
STACK CFI 1e488 .cfa: x29 96 + x19: .cfa -8 + ^ x20: .cfa -16 + ^ x21: .cfa -24 + ^ x22: .cfa -32 + ^ x23: .cfa -40 + ^ x24: .cfa -48 + ^ x25: .cfa -56 + ^ x26: .cfa -64 + ^ x27: .cfa -72 + ^ x28: .cfa -80 + ^ .ra: .cfa -88 + ^ x29: .cfa -96 + ^
STACK CFI 1e760 .cfa: sp 224 +
STACK CFI 1e77c .cfa: sp 0 +
STACK CFI 1e780 .cfa: x29 96 +
STACK CFI INIT 1e884 3c0 .cfa: sp 0 +
STACK CFI 1e888 .cfa: sp 208 +
STACK CFI 1e89c .cfa: x29 64 + x19: .cfa -8 + ^ x20: .cfa -16 + ^ x21: .cfa -24 + ^ x22: .cfa -32 + ^ x23: .cfa -48 + ^ .ra: .cfa -56 + ^ x29: .cfa -64 + ^
STACK CFI 1eb24 .cfa: sp 208 +
STACK CFI 1eb38 .cfa: sp 0 +
STACK CFI 1eb3c .cfa: x29 64 +
STACK CFI INIT 1ec48 ab8 .cfa: sp 0 +
STACK CFI 1ec4c .cfa: sp 304 +
STACK CFI 1ec6c .cfa: x29 96 + x19: .cfa -8 + ^ x20: .cfa -16 + ^ x21: .cfa -24 + ^ x22: .cfa -32 + ^ x23: .cfa -40 + ^ x24: .cfa -48 + ^ x25: .cfa -56 + ^ x26: .cfa -64 + ^ x27: .cfa -72 + ^ x28: .cfa -80 + ^ .ra: .cfa -88 + ^ x29: .cfa -96 + ^ v8: .cfa -104 + ^ v9: .cfa -112 + ^
STACK CFI 1f430 .cfa: sp 304 +
STACK CFI 1f450 .cfa: sp 0 +
STACK CFI 1f454 .cfa: x29 96 +
STACK CFI INIT 1f700 400 .cfa: sp 0 +
STACK CFI 1f704 .cfa: sp 224 +
STACK CFI 1f720 .cfa: x29 96 + x19: .cfa -8 + ^ x20: .cfa -16 + ^ x21: .cfa -24 + ^ x22: .cfa -32 + ^ x23: .cfa -40 + ^ x24: .cfa -48 + ^ x25: .cfa -56 + ^ x26: .cfa -64 + ^ x27: .cfa -72 + ^ x28: .cfa -80 + ^ .ra: .cfa -88 + ^ x29: .cfa -96 + ^
STACK CFI 1f9f8 .cfa: sp 224 +
STACK CFI 1fa14 .cfa: sp 0 +
STACK CFI 1fa18 .cfa: x29 96 +
STACK CFI INIT 1fb1c 3d4 .cfa: sp 0 +
STACK CFI 1fb20 .cfa: sp 224 +
STACK CFI 1fb34 .cfa: x29 64 + x19: .cfa -8 + ^ x20: .cfa -16 + ^ x21: .cfa -24 + ^ x22: .cfa -32 + ^ x23: .cfa -40 + ^ x24: .cfa -48 + ^ .ra: .cfa -56 + ^ x29: .cfa -64 + ^
STACK CFI 1fdc8 .cfa: sp 224 +
STACK CFI 1fddc .cfa: sp 0 +
STACK CFI 1fde0 .cfa: x29 64 +
STACK CFI INIT 1fef4 224 .cfa: sp 0 +
STACK CFI 1fef8 .cfa: sp 80 +
STACK CFI 1ff08 .cfa: x29 48 + x19: .cfa -8 + ^ x20: .cfa -16 + ^ x21: .cfa -24 + ^ x22: .cfa -32 + ^ .ra: .cfa -40 + ^ x29: .cfa -48 + ^
STACK CFI 200c0 .cfa: sp 80 +
STACK CFI 200d0 .cfa: sp 0 +
STACK CFI 200d4 .cfa: x29 48 +
STACK CFI INIT 20118 400 .cfa: sp 0 +
STACK CFI 2011c .cfa: sp 224 +
STACK CFI 20138 .cfa: x29 96 + x19: .cfa -8 + ^ x20: .cfa -16 + ^ x21: .cfa -24 + ^ x22: .cfa -32 + ^ x23: .cfa -40 + ^ x24: .cfa -48 + ^ x25: .cfa -56 + ^ x26: .cfa -64 + ^ x27: .cfa -72 + ^ x28: .cfa -80 + ^ .ra: .cfa -88 + ^ x29: .cfa -96 + ^
STACK CFI 20410 .cfa: sp 224 +
STACK CFI 2042c .cfa: sp 0 +
STACK CFI 20430 .cfa: x29 96 +
STACK CFI INIT 20534 3b4 .cfa: sp 0 +
STACK CFI 20538 .cfa: sp 192 +
STACK CFI 2054c .cfa: x29 64 + x19: .cfa -8 + ^ x20: .cfa -16 + ^ x21: .cfa -24 + ^ x22: .cfa -32 + ^ x23: .cfa -40 + ^ x24: .cfa -48 + ^ .ra: .cfa -56 + ^ x29: .cfa -64 + ^
STACK CFI 207c8 .cfa: sp 192 +
STACK CFI 207dc .cfa: sp 0 +
STACK CFI 207e0 .cfa: x29 64 +
STACK CFI INIT 208ec 24c .cfa: sp 0 +
STACK CFI 208f0 .cfa: sp 80 +
STACK CFI 20900 .cfa: x29 48 + x19: .cfa -8 + ^ x20: .cfa -16 + ^ x21: .cfa -24 + ^ x22: .cfa -32 + ^ .ra: .cfa -40 + ^ x29: .cfa -48 + ^
STACK CFI 20ae0 .cfa: sp 80 +
STACK CFI 20af0 .cfa: sp 0 +
STACK CFI 20af4 .cfa: x29 48 +
STACK CFI INIT 20b38 400 .cfa: sp 0 +
STACK CFI 20b3c .cfa: sp 224 +
STACK CFI 20b58 .cfa: x29 96 + x19: .cfa -8 + ^ x20: .cfa -16 + ^ x21: .cfa -24 + ^ x22: .cfa -32 + ^ x23: .cfa -40 + ^ x24: .cfa -48 + ^ x25: .cfa -56 + ^ x26: .cfa -64 + ^ x27: .cfa -72 + ^ x28: .cfa -80 + ^ .ra: .cfa -88 + ^ x29: .cfa -96 + ^
STACK CFI 20e30 .cfa: sp 224 +
STACK CFI 20e4c .cfa: sp 0 +
STACK CFI 20e50 .cfa: x29 96 +
STACK CFI INIT 20f54 370 .cfa: sp 0 +
STACK CFI 20f58 .cfa: sp 192 +
STACK CFI 20f6c .cfa: x29 64 + x19: .cfa -8 + ^ x20: .cfa -16 + ^ x21: .cfa -24 + ^ x22: .cfa -32 + ^ x23: .cfa -48 + ^ .ra: .cfa -56 + ^ x29: .cfa -64 + ^
STACK CFI 211c0 .cfa: sp 192 +
STACK CFI 211d4 .cfa: sp 0 +
STACK CFI 211d8 .cfa: x29 64 +
STACK CFI INIT 212c8 a8 .cfa: sp 0 +
STACK CFI 212cc .cfa: sp 32 +
STACK CFI 212d4 .cfa: x29 32 + x19: .cfa -8 + ^ x20: .cfa -16 + ^ .ra: .cfa -24 + ^ x29: .cfa -32 + ^
STACK CFI 21308 .cfa: sp 32 +
STACK CFI 21310 .cfa: sp 0 +
STACK CFI 21314 .cfa: x29 32 +
STACK CFI 21318 .cfa: sp 32 +
STACK CFI 21320 .cfa: sp 0 +
STACK CFI 21324 .cfa: x29 32 +
STACK CFI INIT 21370 938 .cfa: sp 0 +
STACK CFI 21374 .cfa: sp 256 +
STACK CFI 21390 .cfa: x29 96 + x19: .cfa -8 + ^ x20: .cfa -16 + ^ x21: .cfa -24 + ^ x22: .cfa -32 + ^ x23: .cfa -40 + ^ x24: .cfa -48 + ^ x25: .cfa -56 + ^ x26: .cfa -64 + ^ x27: .cfa -72 + ^ x28: .cfa -80 + ^ .ra: .cfa -88 + ^ x29: .cfa -96 + ^
STACK CFI 2198c .cfa: sp 256 +
STACK CFI 219a8 .cfa: sp 0 +
STACK CFI 219ac .cfa: x29 96 +
STACK CFI INIT 21d38 400 .cfa: sp 0 +
STACK CFI 21d3c .cfa: sp 224 +
STACK CFI 21d58 .cfa: x29 96 + x19: .cfa -8 + ^ x20: .cfa -16 + ^ x21: .cfa -24 + ^ x22: .cfa -32 + ^ x23: .cfa -40 + ^ x24: .cfa -48 + ^ x25: .cfa -56 + ^ x26: .cfa -64 + ^ x27: .cfa -72 + ^ x28: .cfa -80 + ^ .ra: .cfa -88 + ^ x29: .cfa -96 + ^
STACK CFI 22030 .cfa: sp 224 +
STACK CFI 2204c .cfa: sp 0 +
STACK CFI 22050 .cfa: x29 96 +
STACK CFI INIT 22154 3c0 .cfa: sp 0 +
STACK CFI 22158 .cfa: sp 192 +
STACK CFI 2216c .cfa: x29 64 + x19: .cfa -8 + ^ x20: .cfa -16 + ^ x21: .cfa -24 + ^ x22: .cfa -32 + ^ x23: .cfa -48 + ^ .ra: .cfa -56 + ^ x29: .cfa -64 + ^
STACK CFI 223f4 .cfa: sp 192 +
STACK CFI 22408 .cfa: sp 0 +
STACK CFI 2240c .cfa: x29 64 +
STACK CFI INIT 22518 144 .cfa: sp 0 +
STACK CFI 2251c .cfa: sp 80 +
STACK CFI 2252c .cfa: x29 48 + x19: .cfa -8 + ^ x20: .cfa -16 + ^ x21: .cfa -24 + ^ x22: .cfa -32 + ^ .ra: .cfa -40 + ^ x29: .cfa -48 + ^
STACK CFI 2260c .cfa: sp 80 +
STACK CFI 2261c .cfa: sp 0 +
STACK CFI 22620 .cfa: x29 48 +
STACK CFI INIT 2265c 400 .cfa: sp 0 +
STACK CFI 22660 .cfa: sp 224 +
STACK CFI 2267c .cfa: x29 96 + x19: .cfa -8 + ^ x20: .cfa -16 + ^ x21: .cfa -24 + ^ x22: .cfa -32 + ^ x23: .cfa -40 + ^ x24: .cfa -48 + ^ x25: .cfa -56 + ^ x26: .cfa -64 + ^ x27: .cfa -72 + ^ x28: .cfa -80 + ^ .ra: .cfa -88 + ^ x29: .cfa -96 + ^
STACK CFI 22954 .cfa: sp 224 +
STACK CFI 22970 .cfa: sp 0 +
STACK CFI 22974 .cfa: x29 96 +
STACK CFI INIT 22a78 3f4 .cfa: sp 0 +
STACK CFI 22a7c .cfa: sp 208 +
STACK CFI 22a90 .cfa: x29 64 + x19: .cfa -8 + ^ x20: .cfa -16 + ^ x21: .cfa -24 + ^ x22: .cfa -32 + ^ x23: .cfa -48 + ^ .ra: .cfa -56 + ^ x29: .cfa -64 + ^
STACK CFI 22d40 .cfa: sp 208 +
STACK CFI 22d54 .cfa: sp 0 +
STACK CFI 22d58 .cfa: x29 64 +
STACK CFI INIT 22e70 144 .cfa: sp 0 +
STACK CFI 22e74 .cfa: sp 80 +
STACK CFI 22e84 .cfa: x29 48 + x19: .cfa -8 + ^ x20: .cfa -16 + ^ x21: .cfa -24 + ^ x22: .cfa -32 + ^ .ra: .cfa -40 + ^ x29: .cfa -48 + ^
STACK CFI 22f64 .cfa: sp 80 +
STACK CFI 22f74 .cfa: sp 0 +
STACK CFI 22f78 .cfa: x29 48 +
STACK CFI INIT 22fb4 400 .cfa: sp 0 +
STACK CFI 22fb8 .cfa: sp 224 +
STACK CFI 22fd4 .cfa: x29 96 + x19: .cfa -8 + ^ x20: .cfa -16 + ^ x21: .cfa -24 + ^ x22: .cfa -32 + ^ x23: .cfa -40 + ^ x24: .cfa -48 + ^ x25: .cfa -56 + ^ x26: .cfa -64 + ^ x27: .cfa -72 + ^ x28: .cfa -80 + ^ .ra: .cfa -88 + ^ x29: .cfa -96 + ^
STACK CFI 232ac .cfa: sp 224 +
STACK CFI 232c8 .cfa: sp 0 +
STACK CFI 232cc .cfa: x29 96 +
STACK CFI INIT 233d0 360 .cfa: sp 0 +
STACK CFI 233d4 .cfa: sp 192 +
STACK CFI 233e8 .cfa: x29 64 + x19: .cfa -8 + ^ x20: .cfa -16 + ^ x21: .cfa -24 + ^ x22: .cfa -32 + ^ x23: .cfa -48 + ^ .ra: .cfa -56 + ^ x29: .cfa -64 + ^
STACK CFI 2362c .cfa: sp 192 +
STACK CFI 23640 .cfa: sp 0 +
STACK CFI 23644 .cfa: x29 64 +
STACK CFI INIT 23734 a8 .cfa: sp 0 +
STACK CFI 23738 .cfa: sp 32 +
STACK CFI 23740 .cfa: x29 32 + x19: .cfa -8 + ^ x20: .cfa -16 + ^ .ra: .cfa -24 + ^ x29: .cfa -32 + ^
STACK CFI 23774 .cfa: sp 32 +
STACK CFI 2377c .cfa: sp 0 +
STACK CFI 23780 .cfa: x29 32 +
STACK CFI 23784 .cfa: sp 32 +
STACK CFI 2378c .cfa: sp 0 +
STACK CFI 23790 .cfa: x29 32 +
STACK CFI INIT 237dc 144 .cfa: sp 0 +
STACK CFI 237e0 .cfa: sp 80 +
STACK CFI 237f0 .cfa: x29 48 + x19: .cfa -8 + ^ x20: .cfa -16 + ^ x21: .cfa -24 + ^ x22: .cfa -32 + ^ .ra: .cfa -40 + ^ x29: .cfa -48 + ^
STACK CFI 238d0 .cfa: sp 80 +
STACK CFI 238e0 .cfa: sp 0 +
STACK CFI 238e4 .cfa: x29 48 +
STACK CFI INIT 239b4 400 .cfa: sp 0 +
STACK CFI 239b8 .cfa: sp 224 +
STACK CFI 239d4 .cfa: x29 96 + x19: .cfa -8 + ^ x20: .cfa -16 + ^ x21: .cfa -24 + ^ x22: .cfa -32 + ^ x23: .cfa -40 + ^ x24: .cfa -48 + ^ x25: .cfa -56 + ^ x26: .cfa -64 + ^ x27: .cfa -72 + ^ x28: .cfa -80 + ^ .ra: .cfa -88 + ^ x29: .cfa -96 + ^
STACK CFI 23cac .cfa: sp 224 +
STACK CFI 23cc8 .cfa: sp 0 +
STACK CFI 23ccc .cfa: x29 96 +
STACK CFI INIT 23dd0 370 .cfa: sp 0 +
STACK CFI 23dd4 .cfa: sp 192 +
STACK CFI 23de8 .cfa: x29 64 + x19: .cfa -8 + ^ x20: .cfa -16 + ^ x21: .cfa -24 + ^ x22: .cfa -32 + ^ x23: .cfa -48 + ^ .ra: .cfa -56 + ^ x29: .cfa -64 + ^
STACK CFI 2403c .cfa: sp 192 +
STACK CFI 24050 .cfa: sp 0 +
STACK CFI 24054 .cfa: x29 64 +
STACK CFI INIT 24144 a8 .cfa: sp 0 +
STACK CFI 24148 .cfa: sp 32 +
STACK CFI 24150 .cfa: x29 32 + x19: .cfa -8 + ^ x20: .cfa -16 + ^ .ra: .cfa -24 + ^ x29: .cfa -32 + ^
STACK CFI 24184 .cfa: sp 32 +
STACK CFI 2418c .cfa: sp 0 +
STACK CFI 24190 .cfa: x29 32 +
STACK CFI 24194 .cfa: sp 32 +
STACK CFI 2419c .cfa: sp 0 +
STACK CFI 241a0 .cfa: x29 32 +
STACK CFI INIT 241ec 144 .cfa: sp 0 +
STACK CFI 241f0 .cfa: sp 80 +
STACK CFI 24200 .cfa: x29 48 + x19: .cfa -8 + ^ x20: .cfa -16 + ^ x21: .cfa -24 + ^ x22: .cfa -32 + ^ .ra: .cfa -40 + ^ x29: .cfa -48 + ^
STACK CFI 242e0 .cfa: sp 80 +
STACK CFI 242f0 .cfa: sp 0 +
STACK CFI 242f4 .cfa: x29 48 +
STACK CFI INIT 243cc 400 .cfa: sp 0 +
STACK CFI 243d0 .cfa: sp 224 +
STACK CFI 243ec .cfa: x29 96 + x19: .cfa -8 + ^ x20: .cfa -16 + ^ x21: .cfa -24 + ^ x22: .cfa -32 + ^ x23: .cfa -40 + ^ x24: .cfa -48 + ^ x25: .cfa -56 + ^ x26: .cfa -64 + ^ x27: .cfa -72 + ^ x28: .cfa -80 + ^ .ra: .cfa -88 + ^ x29: .cfa -96 + ^
STACK CFI 246c4 .cfa: sp 224 +
STACK CFI 246e0 .cfa: sp 0 +
STACK CFI 246e4 .cfa: x29 96 +
STACK CFI INIT 247e8 364 .cfa: sp 0 +
STACK CFI 247ec .cfa: sp 192 +
STACK CFI 24800 .cfa: x29 64 + x19: .cfa -8 + ^ x20: .cfa -16 + ^ x21: .cfa -24 + ^ x22: .cfa -32 + ^ x23: .cfa -48 + ^ .ra: .cfa -56 + ^ x29: .cfa -64 + ^
STACK CFI 24a48 .cfa: sp 192 +
STACK CFI 24a5c .cfa: sp 0 +
STACK CFI 24a60 .cfa: x29 64 +
STACK CFI INIT 24b50 a8 .cfa: sp 0 +
STACK CFI 24b54 .cfa: sp 32 +
STACK CFI 24b5c .cfa: x29 32 + x19: .cfa -8 + ^ x20: .cfa -16 + ^ .ra: .cfa -24 + ^ x29: .cfa -32 + ^
STACK CFI 24b90 .cfa: sp 32 +
STACK CFI 24b98 .cfa: sp 0 +
STACK CFI 24b9c .cfa: x29 32 +
STACK CFI 24ba0 .cfa: sp 32 +
STACK CFI 24ba8 .cfa: sp 0 +
STACK CFI 24bac .cfa: x29 32 +
STACK CFI INIT 24bf8 144 .cfa: sp 0 +
STACK CFI 24bfc .cfa: sp 80 +
STACK CFI 24c0c .cfa: x29 48 + x19: .cfa -8 + ^ x20: .cfa -16 + ^ x21: .cfa -24 + ^ x22: .cfa -32 + ^ .ra: .cfa -40 + ^ x29: .cfa -48 + ^
STACK CFI 24cec .cfa: sp 80 +
STACK CFI 24cfc .cfa: sp 0 +
STACK CFI 24d00 .cfa: x29 48 +
STACK CFI INIT 24dc8 400 .cfa: sp 0 +
STACK CFI 24dcc .cfa: sp 224 +
STACK CFI 24de8 .cfa: x29 96 + x19: .cfa -8 + ^ x20: .cfa -16 + ^ x21: .cfa -24 + ^ x22: .cfa -32 + ^ x23: .cfa -40 + ^ x24: .cfa -48 + ^ x25: .cfa -56 + ^ x26: .cfa -64 + ^ x27: .cfa -72 + ^ x28: .cfa -80 + ^ .ra: .cfa -88 + ^ x29: .cfa -96 + ^
STACK CFI 250c0 .cfa: sp 224 +
STACK CFI 250dc .cfa: sp 0 +
STACK CFI 250e0 .cfa: x29 96 +
STACK CFI INIT 251e4 3fc .cfa: sp 0 +
STACK CFI 251e8 .cfa: sp 208 +
STACK CFI 25200 .cfa: x29 80 + x19: .cfa -8 + ^ x20: .cfa -16 + ^ x21: .cfa -24 + ^ x22: .cfa -32 + ^ x23: .cfa -40 + ^ x24: .cfa -48 + ^ x25: .cfa -56 + ^ x26: .cfa -64 + ^ .ra: .cfa -72 + ^ x29: .cfa -80 + ^
STACK CFI 254b0 .cfa: sp 208 +
STACK CFI 254c8 .cfa: sp 0 +
STACK CFI 254cc .cfa: x29 80 +
STACK CFI INIT 255e4 144 .cfa: sp 0 +
STACK CFI 255e8 .cfa: sp 80 +
STACK CFI 255f8 .cfa: x29 48 + x19: .cfa -8 + ^ x20: .cfa -16 + ^ x21: .cfa -24 + ^ x22: .cfa -32 + ^ .ra: .cfa -40 + ^ x29: .cfa -48 + ^
STACK CFI 256d8 .cfa: sp 80 +
STACK CFI 256e8 .cfa: sp 0 +
STACK CFI 256ec .cfa: x29 48 +
STACK CFI INIT 25728 400 .cfa: sp 0 +
STACK CFI 2572c .cfa: sp 224 +
STACK CFI 25748 .cfa: x29 96 + x19: .cfa -8 + ^ x20: .cfa -16 + ^ x21: .cfa -24 + ^ x22: .cfa -32 + ^ x23: .cfa -40 + ^ x24: .cfa -48 + ^ x25: .cfa -56 + ^ x26: .cfa -64 + ^ x27: .cfa -72 + ^ x28: .cfa -80 + ^ .ra: .cfa -88 + ^ x29: .cfa -96 + ^
STACK CFI 25a20 .cfa: sp 224 +
STACK CFI 25a3c .cfa: sp 0 +
STACK CFI 25a40 .cfa: x29 96 +
STACK CFI INIT 25b44 40c .cfa: sp 0 +
STACK CFI 25b48 .cfa: sp 224 +
STACK CFI 25b60 .cfa: x29 80 + x19: .cfa -8 + ^ x20: .cfa -16 + ^ x21: .cfa -24 + ^ x22: .cfa -32 + ^ x23: .cfa -40 + ^ x24: .cfa -48 + ^ x25: .cfa -64 + ^ .ra: .cfa -72 + ^ x29: .cfa -80 + ^
STACK CFI 25e20 .cfa: sp 224 +
STACK CFI 25e38 .cfa: sp 0 +
STACK CFI 25e3c .cfa: x29 80 +
STACK CFI INIT 25f54 144 .cfa: sp 0 +
STACK CFI 25f58 .cfa: sp 80 +
STACK CFI 25f68 .cfa: x29 48 + x19: .cfa -8 + ^ x20: .cfa -16 + ^ x21: .cfa -24 + ^ x22: .cfa -32 + ^ .ra: .cfa -40 + ^ x29: .cfa -48 + ^
STACK CFI 26048 .cfa: sp 80 +
STACK CFI 26058 .cfa: sp 0 +
STACK CFI 2605c .cfa: x29 48 +
STACK CFI INIT 26098 400 .cfa: sp 0 +
STACK CFI 2609c .cfa: sp 224 +
STACK CFI 260b8 .cfa: x29 96 + x19: .cfa -8 + ^ x20: .cfa -16 + ^ x21: .cfa -24 + ^ x22: .cfa -32 + ^ x23: .cfa -40 + ^ x24: .cfa -48 + ^ x25: .cfa -56 + ^ x26: .cfa -64 + ^ x27: .cfa -72 + ^ x28: .cfa -80 + ^ .ra: .cfa -88 + ^ x29: .cfa -96 + ^
STACK CFI 26390 .cfa: sp 224 +
STACK CFI 263ac .cfa: sp 0 +
STACK CFI 263b0 .cfa: x29 96 +
STACK CFI INIT 264b4 3dc .cfa: sp 0 +
STACK CFI 264b8 .cfa: sp 256 +
STACK CFI 264cc .cfa: x29 64 + x19: .cfa -8 + ^ x20: .cfa -16 + ^ x21: .cfa -24 + ^ x22: .cfa -32 + ^ x23: .cfa -48 + ^ .ra: .cfa -56 + ^ x29: .cfa -64 + ^
STACK CFI 26768 .cfa: sp 256 +
STACK CFI 2677c .cfa: sp 0 +
STACK CFI 26780 .cfa: x29 64 +
STACK CFI INIT 26894 144 .cfa: sp 0 +
STACK CFI 26898 .cfa: sp 80 +
STACK CFI 268a8 .cfa: x29 48 + x19: .cfa -8 + ^ x20: .cfa -16 + ^ x21: .cfa -24 + ^ x22: .cfa -32 + ^ .ra: .cfa -40 + ^ x29: .cfa -48 + ^
STACK CFI 26988 .cfa: sp 80 +
STACK CFI 26998 .cfa: sp 0 +
STACK CFI 2699c .cfa: x29 48 +
STACK CFI INIT 269d8 400 .cfa: sp 0 +
STACK CFI 269dc .cfa: sp 224 +
STACK CFI 269f8 .cfa: x29 96 + x19: .cfa -8 + ^ x20: .cfa -16 + ^ x21: .cfa -24 + ^ x22: .cfa -32 + ^ x23: .cfa -40 + ^ x24: .cfa -48 + ^ x25: .cfa -56 + ^ x26: .cfa -64 + ^ x27: .cfa -72 + ^ x28: .cfa -80 + ^ .ra: .cfa -88 + ^ x29: .cfa -96 + ^
STACK CFI 26cd0 .cfa: sp 224 +
STACK CFI 26cec .cfa: sp 0 +
STACK CFI 26cf0 .cfa: x29 96 +
STACK CFI INIT 26df4 3d4 .cfa: sp 0 +
STACK CFI 26df8 .cfa: sp 224 +
STACK CFI 26e0c .cfa: x29 64 + x19: .cfa -8 + ^ x20: .cfa -16 + ^ x21: .cfa -24 + ^ x22: .cfa -32 + ^ x23: .cfa -40 + ^ x24: .cfa -48 + ^ .ra: .cfa -56 + ^ x29: .cfa -64 + ^
STACK CFI 270a0 .cfa: sp 224 +
STACK CFI 270b4 .cfa: sp 0 +
STACK CFI 270b8 .cfa: x29 64 +
STACK CFI INIT 271cc 144 .cfa: sp 0 +
STACK CFI 271d0 .cfa: sp 80 +
STACK CFI 271e0 .cfa: x29 48 + x19: .cfa -8 + ^ x20: .cfa -16 + ^ x21: .cfa -24 + ^ x22: .cfa -32 + ^ .ra: .cfa -40 + ^ x29: .cfa -48 + ^
STACK CFI 272c0 .cfa: sp 80 +
STACK CFI 272d0 .cfa: sp 0 +
STACK CFI 272d4 .cfa: x29 48 +
STACK CFI INIT 27310 400 .cfa: sp 0 +
STACK CFI 27314 .cfa: sp 224 +
STACK CFI 27330 .cfa: x29 96 + x19: .cfa -8 + ^ x20: .cfa -16 + ^ x21: .cfa -24 + ^ x22: .cfa -32 + ^ x23: .cfa -40 + ^ x24: .cfa -48 + ^ x25: .cfa -56 + ^ x26: .cfa -64 + ^ x27: .cfa -72 + ^ x28: .cfa -80 + ^ .ra: .cfa -88 + ^ x29: .cfa -96 + ^
STACK CFI 27608 .cfa: sp 224 +
STACK CFI 27624 .cfa: sp 0 +
STACK CFI 27628 .cfa: x29 96 +
STACK CFI INIT 2772c 3dc .cfa: sp 0 +
STACK CFI 27730 .cfa: sp 256 +
STACK CFI 27744 .cfa: x29 64 + x19: .cfa -8 + ^ x20: .cfa -16 + ^ x21: .cfa -24 + ^ x22: .cfa -32 + ^ x23: .cfa -48 + ^ .ra: .cfa -56 + ^ x29: .cfa -64 + ^
STACK CFI 279e0 .cfa: sp 256 +
STACK CFI 279f4 .cfa: sp 0 +
STACK CFI 279f8 .cfa: x29 64 +
STACK CFI INIT 27b0c 144 .cfa: sp 0 +
STACK CFI 27b10 .cfa: sp 80 +
STACK CFI 27b20 .cfa: x29 48 + x19: .cfa -8 + ^ x20: .cfa -16 + ^ x21: .cfa -24 + ^ x22: .cfa -32 + ^ .ra: .cfa -40 + ^ x29: .cfa -48 + ^
STACK CFI 27c00 .cfa: sp 80 +
STACK CFI 27c10 .cfa: sp 0 +
STACK CFI 27c14 .cfa: x29 48 +
STACK CFI INIT 27c50 400 .cfa: sp 0 +
STACK CFI 27c54 .cfa: sp 224 +
STACK CFI 27c70 .cfa: x29 96 + x19: .cfa -8 + ^ x20: .cfa -16 + ^ x21: .cfa -24 + ^ x22: .cfa -32 + ^ x23: .cfa -40 + ^ x24: .cfa -48 + ^ x25: .cfa -56 + ^ x26: .cfa -64 + ^ x27: .cfa -72 + ^ x28: .cfa -80 + ^ .ra: .cfa -88 + ^ x29: .cfa -96 + ^
STACK CFI 27f48 .cfa: sp 224 +
STACK CFI 27f64 .cfa: sp 0 +
STACK CFI 27f68 .cfa: x29 96 +
STACK CFI INIT 2806c 3dc .cfa: sp 0 +
STACK CFI 28070 .cfa: sp 240 +
STACK CFI 28084 .cfa: x29 64 + x19: .cfa -8 + ^ x20: .cfa -16 + ^ x21: .cfa -24 + ^ x22: .cfa -32 + ^ x23: .cfa -48 + ^ .ra: .cfa -56 + ^ x29: .cfa -64 + ^
STACK CFI 28320 .cfa: sp 240 +
STACK CFI 28334 .cfa: sp 0 +
STACK CFI 28338 .cfa: x29 64 +
STACK CFI INIT 2844c 144 .cfa: sp 0 +
STACK CFI 28450 .cfa: sp 80 +
STACK CFI 28460 .cfa: x29 48 + x19: .cfa -8 + ^ x20: .cfa -16 + ^ x21: .cfa -24 + ^ x22: .cfa -32 + ^ .ra: .cfa -40 + ^ x29: .cfa -48 + ^
STACK CFI 28540 .cfa: sp 80 +
STACK CFI 28550 .cfa: sp 0 +
STACK CFI 28554 .cfa: x29 48 +
STACK CFI INIT 28590 400 .cfa: sp 0 +
STACK CFI 28594 .cfa: sp 224 +
STACK CFI 285b0 .cfa: x29 96 + x19: .cfa -8 + ^ x20: .cfa -16 + ^ x21: .cfa -24 + ^ x22: .cfa -32 + ^ x23: .cfa -40 + ^ x24: .cfa -48 + ^ x25: .cfa -56 + ^ x26: .cfa -64 + ^ x27: .cfa -72 + ^ x28: .cfa -80 + ^ .ra: .cfa -88 + ^ x29: .cfa -96 + ^
STACK CFI 28888 .cfa: sp 224 +
STACK CFI 288a4 .cfa: sp 0 +
STACK CFI 288a8 .cfa: x29 96 +
STACK CFI INIT 289ac 3c0 .cfa: sp 0 +
STACK CFI 289b0 .cfa: sp 192 +
STACK CFI 289c4 .cfa: x29 64 + x19: .cfa -8 + ^ x20: .cfa -16 + ^ x21: .cfa -24 + ^ x22: .cfa -32 + ^ x23: .cfa -48 + ^ .ra: .cfa -56 + ^ x29: .cfa -64 + ^
STACK CFI 28c4c .cfa: sp 192 +
STACK CFI 28c60 .cfa: sp 0 +
STACK CFI 28c64 .cfa: x29 64 +
STACK CFI INIT 28d70 144 .cfa: sp 0 +
STACK CFI 28d74 .cfa: sp 80 +
STACK CFI 28d84 .cfa: x29 48 + x19: .cfa -8 + ^ x20: .cfa -16 + ^ x21: .cfa -24 + ^ x22: .cfa -32 + ^ .ra: .cfa -40 + ^ x29: .cfa -48 + ^
STACK CFI 28e64 .cfa: sp 80 +
STACK CFI 28e74 .cfa: sp 0 +
STACK CFI 28e78 .cfa: x29 48 +
STACK CFI INIT 28eb4 400 .cfa: sp 0 +
STACK CFI 28eb8 .cfa: sp 224 +
STACK CFI 28ed4 .cfa: x29 96 + x19: .cfa -8 + ^ x20: .cfa -16 + ^ x21: .cfa -24 + ^ x22: .cfa -32 + ^ x23: .cfa -40 + ^ x24: .cfa -48 + ^ x25: .cfa -56 + ^ x26: .cfa -64 + ^ x27: .cfa -72 + ^ x28: .cfa -80 + ^ .ra: .cfa -88 + ^ x29: .cfa -96 + ^
STACK CFI 291ac .cfa: sp 224 +
STACK CFI 291c8 .cfa: sp 0 +
STACK CFI 291cc .cfa: x29 96 +
STACK CFI INIT 292d0 ecc .cfa: sp 0 +
STACK CFI 292d4 .cfa: sp 240 +
STACK CFI 292f0 .cfa: x29 96 + x19: .cfa -8 + ^ x20: .cfa -16 + ^ x21: .cfa -24 + ^ x22: .cfa -32 + ^ x23: .cfa -40 + ^ x24: .cfa -48 + ^ x25: .cfa -56 + ^ x26: .cfa -64 + ^ x27: .cfa -80 + ^ .ra: .cfa -88 + ^ x29: .cfa -96 + ^
STACK CFI 29e5c .cfa: sp 240 +
STACK CFI 29e78 .cfa: sp 0 +
STACK CFI 29e7c .cfa: x29 96 +
STACK CFI INIT 2a1a0 16c .cfa: sp 0 +
STACK CFI 2a1a4 .cfa: sp 128 +
STACK CFI 2a1b4 .cfa: x29 48 + x19: .cfa -8 + ^ x20: .cfa -16 + ^ x21: .cfa -24 + ^ x22: .cfa -32 + ^ .ra: .cfa -40 + ^ x29: .cfa -48 + ^
STACK CFI 2a2bc .cfa: sp 128 +
STACK CFI 2a2cc .cfa: sp 0 +
STACK CFI 2a2d0 .cfa: x29 48 +
STACK CFI INIT 2a320 400 .cfa: sp 0 +
STACK CFI 2a324 .cfa: sp 224 +
STACK CFI 2a340 .cfa: x29 96 + x19: .cfa -8 + ^ x20: .cfa -16 + ^ x21: .cfa -24 + ^ x22: .cfa -32 + ^ x23: .cfa -40 + ^ x24: .cfa -48 + ^ x25: .cfa -56 + ^ x26: .cfa -64 + ^ x27: .cfa -72 + ^ x28: .cfa -80 + ^ .ra: .cfa -88 + ^ x29: .cfa -96 + ^
STACK CFI 2a618 .cfa: sp 224 +
STACK CFI 2a634 .cfa: sp 0 +
STACK CFI 2a638 .cfa: x29 96 +
STACK CFI INIT 2a73c cd8 .cfa: sp 0 +
STACK CFI 2a740 .cfa: sp 256 +
STACK CFI 2a75c .cfa: x29 96 + x19: .cfa -8 + ^ x20: .cfa -16 + ^ x21: .cfa -24 + ^ x22: .cfa -32 + ^ x23: .cfa -40 + ^ x24: .cfa -48 + ^ x25: .cfa -56 + ^ x26: .cfa -64 + ^ x27: .cfa -80 + ^ .ra: .cfa -88 + ^ x29: .cfa -96 + ^
STACK CFI 2b134 .cfa: sp 256 +
STACK CFI 2b150 .cfa: sp 0 +
STACK CFI 2b154 .cfa: x29 96 +
STACK CFI INIT 2b418 15c .cfa: sp 0 +
STACK CFI 2b41c .cfa: sp 112 +
STACK CFI 2b42c .cfa: x29 48 + x19: .cfa -8 + ^ x20: .cfa -16 + ^ x21: .cfa -24 + ^ x22: .cfa -32 + ^ .ra: .cfa -40 + ^ x29: .cfa -48 + ^
STACK CFI 2b524 .cfa: sp 112 +
STACK CFI 2b534 .cfa: sp 0 +
STACK CFI 2b538 .cfa: x29 48 +
STACK CFI INIT 2b574 400 .cfa: sp 0 +
STACK CFI 2b578 .cfa: sp 224 +
STACK CFI 2b594 .cfa: x29 96 + x19: .cfa -8 + ^ x20: .cfa -16 + ^ x21: .cfa -24 + ^ x22: .cfa -32 + ^ x23: .cfa -40 + ^ x24: .cfa -48 + ^ x25: .cfa -56 + ^ x26: .cfa -64 + ^ x27: .cfa -72 + ^ x28: .cfa -80 + ^ .ra: .cfa -88 + ^ x29: .cfa -96 + ^
STACK CFI 2b86c .cfa: sp 224 +
STACK CFI 2b888 .cfa: sp 0 +
STACK CFI 2b88c .cfa: x29 96 +
STACK CFI INIT 2b990 364 .cfa: sp 0 +
STACK CFI 2b994 .cfa: sp 192 +
STACK CFI 2b9a8 .cfa: x29 64 + x19: .cfa -8 + ^ x20: .cfa -16 + ^ x21: .cfa -24 + ^ x22: .cfa -32 + ^ x23: .cfa -48 + ^ .ra: .cfa -56 + ^ x29: .cfa -64 + ^
STACK CFI 2bbf0 .cfa: sp 192 +
STACK CFI 2bc04 .cfa: sp 0 +
STACK CFI 2bc08 .cfa: x29 64 +
STACK CFI INIT 2bcf8 a8 .cfa: sp 0 +
STACK CFI 2bcfc .cfa: sp 32 +
STACK CFI 2bd04 .cfa: x29 32 + x19: .cfa -8 + ^ x20: .cfa -16 + ^ .ra: .cfa -24 + ^ x29: .cfa -32 + ^
STACK CFI 2bd38 .cfa: sp 32 +
STACK CFI 2bd40 .cfa: sp 0 +
STACK CFI 2bd44 .cfa: x29 32 +
STACK CFI 2bd48 .cfa: sp 32 +
STACK CFI 2bd50 .cfa: sp 0 +
STACK CFI 2bd54 .cfa: x29 32 +
STACK CFI INIT 2bda0 144 .cfa: sp 0 +
STACK CFI 2bda4 .cfa: sp 80 +
STACK CFI 2bdb4 .cfa: x29 48 + x19: .cfa -8 + ^ x20: .cfa -16 + ^ x21: .cfa -24 + ^ x22: .cfa -32 + ^ .ra: .cfa -40 + ^ x29: .cfa -48 + ^
STACK CFI 2be94 .cfa: sp 80 +
STACK CFI 2bea4 .cfa: sp 0 +
STACK CFI 2bea8 .cfa: x29 48 +
STACK CFI INIT 2bf80 400 .cfa: sp 0 +
STACK CFI 2bf84 .cfa: sp 224 +
STACK CFI 2bfa0 .cfa: x29 96 + x19: .cfa -8 + ^ x20: .cfa -16 + ^ x21: .cfa -24 + ^ x22: .cfa -32 + ^ x23: .cfa -40 + ^ x24: .cfa -48 + ^ x25: .cfa -56 + ^ x26: .cfa -64 + ^ x27: .cfa -72 + ^ x28: .cfa -80 + ^ .ra: .cfa -88 + ^ x29: .cfa -96 + ^
STACK CFI 2c278 .cfa: sp 224 +
STACK CFI 2c294 .cfa: sp 0 +
STACK CFI 2c298 .cfa: x29 96 +
STACK CFI INIT 2c39c 384 .cfa: sp 0 +
STACK CFI 2c3a0 .cfa: sp 224 +
STACK CFI 2c3b4 .cfa: x29 64 + x19: .cfa -8 + ^ x20: .cfa -16 + ^ x21: .cfa -24 + ^ x22: .cfa -32 + ^ x23: .cfa -48 + ^ .ra: .cfa -56 + ^ x29: .cfa -64 + ^
STACK CFI 2c614 .cfa: sp 224 +
STACK CFI 2c628 .cfa: sp 0 +
STACK CFI 2c62c .cfa: x29 64 +
STACK CFI INIT 2c724 a8 .cfa: sp 0 +
STACK CFI 2c728 .cfa: sp 32 +
STACK CFI 2c730 .cfa: x29 32 + x19: .cfa -8 + ^ x20: .cfa -16 + ^ .ra: .cfa -24 + ^ x29: .cfa -32 + ^
STACK CFI 2c764 .cfa: sp 32 +
STACK CFI 2c76c .cfa: sp 0 +
STACK CFI 2c770 .cfa: x29 32 +
STACK CFI 2c774 .cfa: sp 32 +
STACK CFI 2c77c .cfa: sp 0 +
STACK CFI 2c780 .cfa: x29 32 +
STACK CFI INIT 2c7cc 144 .cfa: sp 0 +
STACK CFI 2c7d0 .cfa: sp 80 +
STACK CFI 2c7e0 .cfa: x29 48 + x19: .cfa -8 + ^ x20: .cfa -16 + ^ x21: .cfa -24 + ^ x22: .cfa -32 + ^ .ra: .cfa -40 + ^ x29: .cfa -48 + ^
STACK CFI 2c8c0 .cfa: sp 80 +
STACK CFI 2c8d0 .cfa: sp 0 +
STACK CFI 2c8d4 .cfa: x29 48 +
STACK CFI INIT 2c994 400 .cfa: sp 0 +
STACK CFI 2c998 .cfa: sp 224 +
STACK CFI 2c9b4 .cfa: x29 96 + x19: .cfa -8 + ^ x20: .cfa -16 + ^ x21: .cfa -24 + ^ x22: .cfa -32 + ^ x23: .cfa -40 + ^ x24: .cfa -48 + ^ x25: .cfa -56 + ^ x26: .cfa -64 + ^ x27: .cfa -72 + ^ x28: .cfa -80 + ^ .ra: .cfa -88 + ^ x29: .cfa -96 + ^
STACK CFI 2cc8c .cfa: sp 224 +
STACK CFI 2cca8 .cfa: sp 0 +
STACK CFI 2ccac .cfa: x29 96 +
STACK CFI INIT 2cdb0 370 .cfa: sp 0 +
STACK CFI 2cdb4 .cfa: sp 192 +
STACK CFI 2cdc8 .cfa: x29 64 + x19: .cfa -8 + ^ x20: .cfa -16 + ^ x21: .cfa -24 + ^ x22: .cfa -32 + ^ x23: .cfa -48 + ^ .ra: .cfa -56 + ^ x29: .cfa -64 + ^
STACK CFI 2d01c .cfa: sp 192 +
STACK CFI 2d030 .cfa: sp 0 +
STACK CFI 2d034 .cfa: x29 64 +
STACK CFI INIT 2d124 a8 .cfa: sp 0 +
STACK CFI 2d128 .cfa: sp 32 +
STACK CFI 2d130 .cfa: x29 32 + x19: .cfa -8 + ^ x20: .cfa -16 + ^ .ra: .cfa -24 + ^ x29: .cfa -32 + ^
STACK CFI 2d164 .cfa: sp 32 +
STACK CFI 2d16c .cfa: sp 0 +
STACK CFI 2d170 .cfa: x29 32 +
STACK CFI 2d174 .cfa: sp 32 +
STACK CFI 2d17c .cfa: sp 0 +
STACK CFI 2d180 .cfa: x29 32 +
STACK CFI INIT 2d1cc 144 .cfa: sp 0 +
STACK CFI 2d1d0 .cfa: sp 80 +
STACK CFI 2d1e0 .cfa: x29 48 + x19: .cfa -8 + ^ x20: .cfa -16 + ^ x21: .cfa -24 + ^ x22: .cfa -32 + ^ .ra: .cfa -40 + ^ x29: .cfa -48 + ^
STACK CFI 2d2c0 .cfa: sp 80 +
STACK CFI 2d2d0 .cfa: sp 0 +
STACK CFI 2d2d4 .cfa: x29 48 +
STACK CFI INIT 2d394 400 .cfa: sp 0 +
STACK CFI 2d398 .cfa: sp 224 +
STACK CFI 2d3b4 .cfa: x29 96 + x19: .cfa -8 + ^ x20: .cfa -16 + ^ x21: .cfa -24 + ^ x22: .cfa -32 + ^ x23: .cfa -40 + ^ x24: .cfa -48 + ^ x25: .cfa -56 + ^ x26: .cfa -64 + ^ x27: .cfa -72 + ^ x28: .cfa -80 + ^ .ra: .cfa -88 + ^ x29: .cfa -96 + ^
STACK CFI 2d68c .cfa: sp 224 +
STACK CFI 2d6a8 .cfa: sp 0 +
STACK CFI 2d6ac .cfa: x29 96 +
STACK CFI INIT 2d7b0 3c0 .cfa: sp 0 +
STACK CFI 2d7b4 .cfa: sp 208 +
STACK CFI 2d7c8 .cfa: x29 64 + x19: .cfa -8 + ^ x20: .cfa -16 + ^ x21: .cfa -24 + ^ x22: .cfa -32 + ^ x23: .cfa -48 + ^ .ra: .cfa -56 + ^ x29: .cfa -64 + ^
STACK CFI 2da50 .cfa: sp 208 +
STACK CFI 2da64 .cfa: sp 0 +
STACK CFI 2da68 .cfa: x29 64 +
STACK CFI INIT 2db74 224 .cfa: sp 0 +
STACK CFI 2db78 .cfa: sp 80 +
STACK CFI 2db88 .cfa: x29 48 + x19: .cfa -8 + ^ x20: .cfa -16 + ^ x21: .cfa -24 + ^ x22: .cfa -32 + ^ .ra: .cfa -40 + ^ x29: .cfa -48 + ^
STACK CFI 2dd40 .cfa: sp 80 +
STACK CFI 2dd50 .cfa: sp 0 +
STACK CFI 2dd54 .cfa: x29 48 +
STACK CFI INIT 2dd98 400 .cfa: sp 0 +
STACK CFI 2dd9c .cfa: sp 224 +
STACK CFI 2ddb8 .cfa: x29 96 + x19: .cfa -8 + ^ x20: .cfa -16 + ^ x21: .cfa -24 + ^ x22: .cfa -32 + ^ x23: .cfa -40 + ^ x24: .cfa -48 + ^ x25: .cfa -56 + ^ x26: .cfa -64 + ^ x27: .cfa -72 + ^ x28: .cfa -80 + ^ .ra: .cfa -88 + ^ x29: .cfa -96 + ^
STACK CFI 2e090 .cfa: sp 224 +
STACK CFI 2e0ac .cfa: sp 0 +
STACK CFI 2e0b0 .cfa: x29 96 +
STACK CFI INIT 2e1b4 368 .cfa: sp 0 +
STACK CFI 2e1b8 .cfa: sp 192 +
STACK CFI 2e1cc .cfa: x29 64 + x19: .cfa -8 + ^ x20: .cfa -16 + ^ x21: .cfa -24 + ^ x22: .cfa -32 + ^ x23: .cfa -48 + ^ .ra: .cfa -56 + ^ x29: .cfa -64 + ^
STACK CFI 2e418 .cfa: sp 192 +
STACK CFI 2e42c .cfa: sp 0 +
STACK CFI 2e430 .cfa: x29 64 +
STACK CFI INIT 2e520 a8 .cfa: sp 0 +
STACK CFI 2e524 .cfa: sp 32 +
STACK CFI 2e52c .cfa: x29 32 + x19: .cfa -8 + ^ x20: .cfa -16 + ^ .ra: .cfa -24 + ^ x29: .cfa -32 + ^
STACK CFI 2e560 .cfa: sp 32 +
STACK CFI 2e568 .cfa: sp 0 +
STACK CFI 2e56c .cfa: x29 32 +
STACK CFI 2e570 .cfa: sp 32 +
STACK CFI 2e578 .cfa: sp 0 +
STACK CFI 2e57c .cfa: x29 32 +
STACK CFI INIT 2e5c8 144 .cfa: sp 0 +
STACK CFI 2e5cc .cfa: sp 80 +
STACK CFI 2e5dc .cfa: x29 48 + x19: .cfa -8 + ^ x20: .cfa -16 + ^ x21: .cfa -24 + ^ x22: .cfa -32 + ^ .ra: .cfa -40 + ^ x29: .cfa -48 + ^
STACK CFI 2e6bc .cfa: sp 80 +
STACK CFI 2e6cc .cfa: sp 0 +
STACK CFI 2e6d0 .cfa: x29 48 +
STACK CFI INIT 2e798 400 .cfa: sp 0 +
STACK CFI 2e79c .cfa: sp 224 +
STACK CFI 2e7b8 .cfa: x29 96 + x19: .cfa -8 + ^ x20: .cfa -16 + ^ x21: .cfa -24 + ^ x22: .cfa -32 + ^ x23: .cfa -40 + ^ x24: .cfa -48 + ^ x25: .cfa -56 + ^ x26: .cfa -64 + ^ x27: .cfa -72 + ^ x28: .cfa -80 + ^ .ra: .cfa -88 + ^ x29: .cfa -96 + ^
STACK CFI 2ea90 .cfa: sp 224 +
STACK CFI 2eaac .cfa: sp 0 +
STACK CFI 2eab0 .cfa: x29 96 +
STACK CFI INIT 2ebb4 38c .cfa: sp 0 +
STACK CFI 2ebb8 .cfa: sp 240 +
STACK CFI 2ebcc .cfa: x29 64 + x19: .cfa -8 + ^ x20: .cfa -16 + ^ x21: .cfa -24 + ^ x22: .cfa -32 + ^ x23: .cfa -48 + ^ .ra: .cfa -56 + ^ x29: .cfa -64 + ^
STACK CFI 2ee34 .cfa: sp 240 +
STACK CFI 2ee48 .cfa: sp 0 +
STACK CFI 2ee4c .cfa: x29 64 +
STACK CFI INIT 2ef44 a8 .cfa: sp 0 +
STACK CFI 2ef48 .cfa: sp 32 +
STACK CFI 2ef50 .cfa: x29 32 + x19: .cfa -8 + ^ x20: .cfa -16 + ^ .ra: .cfa -24 + ^ x29: .cfa -32 + ^
STACK CFI 2ef84 .cfa: sp 32 +
STACK CFI 2ef8c .cfa: sp 0 +
STACK CFI 2ef90 .cfa: x29 32 +
STACK CFI 2ef94 .cfa: sp 32 +
STACK CFI 2ef9c .cfa: sp 0 +
STACK CFI 2efa0 .cfa: x29 32 +
STACK CFI INIT 2efec 144 .cfa: sp 0 +
STACK CFI 2eff0 .cfa: sp 80 +
STACK CFI 2f000 .cfa: x29 48 + x19: .cfa -8 + ^ x20: .cfa -16 + ^ x21: .cfa -24 + ^ x22: .cfa -32 + ^ .ra: .cfa -40 + ^ x29: .cfa -48 + ^
STACK CFI 2f0e0 .cfa: sp 80 +
STACK CFI 2f0f0 .cfa: sp 0 +
STACK CFI 2f0f4 .cfa: x29 48 +
STACK CFI INIT 2f1bc 400 .cfa: sp 0 +
STACK CFI 2f1c0 .cfa: sp 224 +
STACK CFI 2f1dc .cfa: x29 96 + x19: .cfa -8 + ^ x20: .cfa -16 + ^ x21: .cfa -24 + ^ x22: .cfa -32 + ^ x23: .cfa -40 + ^ x24: .cfa -48 + ^ x25: .cfa -56 + ^ x26: .cfa -64 + ^ x27: .cfa -72 + ^ x28: .cfa -80 + ^ .ra: .cfa -88 + ^ x29: .cfa -96 + ^
STACK CFI 2f4b4 .cfa: sp 224 +
STACK CFI 2f4d0 .cfa: sp 0 +
STACK CFI 2f4d4 .cfa: x29 96 +
STACK CFI INIT 2f5d8 40c .cfa: sp 0 +
STACK CFI 2f5dc .cfa: sp 208 +
STACK CFI 2f5f0 .cfa: x29 64 + x19: .cfa -8 + ^ x20: .cfa -16 + ^ x21: .cfa -24 + ^ x22: .cfa -32 + ^ x23: .cfa -40 + ^ x24: .cfa -48 + ^ .ra: .cfa -56 + ^ x29: .cfa -64 + ^
STACK CFI 2f8b8 .cfa: sp 208 +
STACK CFI 2f8cc .cfa: sp 0 +
STACK CFI 2f8d0 .cfa: x29 64 +
STACK CFI INIT 2f9e8 144 .cfa: sp 0 +
STACK CFI 2f9ec .cfa: sp 80 +
STACK CFI 2f9fc .cfa: x29 48 + x19: .cfa -8 + ^ x20: .cfa -16 + ^ x21: .cfa -24 + ^ x22: .cfa -32 + ^ .ra: .cfa -40 + ^ x29: .cfa -48 + ^
STACK CFI 2fadc .cfa: sp 80 +
STACK CFI 2faec .cfa: sp 0 +
STACK CFI 2faf0 .cfa: x29 48 +
STACK CFI INIT 2fb2c 400 .cfa: sp 0 +
STACK CFI 2fb30 .cfa: sp 224 +
STACK CFI 2fb4c .cfa: x29 96 + x19: .cfa -8 + ^ x20: .cfa -16 + ^ x21: .cfa -24 + ^ x22: .cfa -32 + ^ x23: .cfa -40 + ^ x24: .cfa -48 + ^ x25: .cfa -56 + ^ x26: .cfa -64 + ^ x27: .cfa -72 + ^ x28: .cfa -80 + ^ .ra: .cfa -88 + ^ x29: .cfa -96 + ^
STACK CFI 2fe24 .cfa: sp 224 +
STACK CFI 2fe40 .cfa: sp 0 +
STACK CFI 2fe44 .cfa: x29 96 +
STACK CFI INIT 2ff48 40c .cfa: sp 0 +
STACK CFI 2ff4c .cfa: sp 208 +
STACK CFI 2ff60 .cfa: x29 64 + x19: .cfa -8 + ^ x20: .cfa -16 + ^ x21: .cfa -24 + ^ x22: .cfa -32 + ^ x23: .cfa -40 + ^ x24: .cfa -48 + ^ .ra: .cfa -56 + ^ x29: .cfa -64 + ^
STACK CFI 30228 .cfa: sp 208 +
STACK CFI 3023c .cfa: sp 0 +
STACK CFI 30240 .cfa: x29 64 +
STACK CFI INIT 30358 144 .cfa: sp 0 +
STACK CFI 3035c .cfa: sp 80 +
STACK CFI 3036c .cfa: x29 48 + x19: .cfa -8 + ^ x20: .cfa -16 + ^ x21: .cfa -24 + ^ x22: .cfa -32 + ^ .ra: .cfa -40 + ^ x29: .cfa -48 + ^
STACK CFI 3044c .cfa: sp 80 +
STACK CFI 3045c .cfa: sp 0 +
STACK CFI 30460 .cfa: x29 48 +
STACK CFI INIT 3049c 400 .cfa: sp 0 +
STACK CFI 304a0 .cfa: sp 224 +
STACK CFI 304bc .cfa: x29 96 + x19: .cfa -8 + ^ x20: .cfa -16 + ^ x21: .cfa -24 + ^ x22: .cfa -32 + ^ x23: .cfa -40 + ^ x24: .cfa -48 + ^ x25: .cfa -56 + ^ x26: .cfa -64 + ^ x27: .cfa -72 + ^ x28: .cfa -80 + ^ .ra: .cfa -88 + ^ x29: .cfa -96 + ^
STACK CFI 30794 .cfa: sp 224 +
STACK CFI 307b0 .cfa: sp 0 +
STACK CFI 307b4 .cfa: x29 96 +
STACK CFI INIT 308b8 428 .cfa: sp 0 +
STACK CFI 308bc .cfa: sp 240 +
STACK CFI 308d0 .cfa: x29 64 + x19: .cfa -8 + ^ x20: .cfa -16 + ^ x21: .cfa -24 + ^ x22: .cfa -32 + ^ x23: .cfa -40 + ^ x24: .cfa -48 + ^ .ra: .cfa -56 + ^ x29: .cfa -64 + ^
STACK CFI 30b9c .cfa: sp 240 +
STACK CFI 30bb0 .cfa: sp 0 +
STACK CFI 30bb4 .cfa: x29 64 +
STACK CFI INIT 30ce4 1a0 .cfa: sp 0 +
STACK CFI 30ce8 .cfa: sp 112 +
STACK CFI 30cf8 .cfa: x29 48 + x19: .cfa -8 + ^ x20: .cfa -16 + ^ x21: .cfa -24 + ^ x22: .cfa -32 + ^ .ra: .cfa -40 + ^ x29: .cfa -48 + ^
STACK CFI 30e10 .cfa: sp 112 +
STACK CFI 30e20 .cfa: sp 0 +
STACK CFI 30e24 .cfa: x29 48 +
STACK CFI INIT 30e84 400 .cfa: sp 0 +
STACK CFI 30e88 .cfa: sp 224 +
STACK CFI 30ea4 .cfa: x29 96 + x19: .cfa -8 + ^ x20: .cfa -16 + ^ x21: .cfa -24 + ^ x22: .cfa -32 + ^ x23: .cfa -40 + ^ x24: .cfa -48 + ^ x25: .cfa -56 + ^ x26: .cfa -64 + ^ x27: .cfa -72 + ^ x28: .cfa -80 + ^ .ra: .cfa -88 + ^ x29: .cfa -96 + ^
STACK CFI 3117c .cfa: sp 224 +
STACK CFI 31198 .cfa: sp 0 +
STACK CFI 3119c .cfa: x29 96 +
STACK CFI INIT 312a0 3b4 .cfa: sp 0 +
STACK CFI 312a4 .cfa: sp 208 +
STACK CFI 312b8 .cfa: x29 64 + x19: .cfa -8 + ^ x20: .cfa -16 + ^ x21: .cfa -24 + ^ x22: .cfa -32 + ^ x23: .cfa -40 + ^ x24: .cfa -48 + ^ .ra: .cfa -56 + ^ x29: .cfa -64 + ^
STACK CFI 31534 .cfa: sp 208 +
STACK CFI 31548 .cfa: sp 0 +
STACK CFI 3154c .cfa: x29 64 +
STACK CFI INIT 31658 144 .cfa: sp 0 +
STACK CFI 3165c .cfa: sp 80 +
STACK CFI 3166c .cfa: x29 48 + x19: .cfa -8 + ^ x20: .cfa -16 + ^ x21: .cfa -24 + ^ x22: .cfa -32 + ^ .ra: .cfa -40 + ^ x29: .cfa -48 + ^
STACK CFI 3174c .cfa: sp 80 +
STACK CFI 3175c .cfa: sp 0 +
STACK CFI 31760 .cfa: x29 48 +
STACK CFI INIT 3179c 400 .cfa: sp 0 +
STACK CFI 317a0 .cfa: sp 224 +
STACK CFI 317bc .cfa: x29 96 + x19: .cfa -8 + ^ x20: .cfa -16 + ^ x21: .cfa -24 + ^ x22: .cfa -32 + ^ x23: .cfa -40 + ^ x24: .cfa -48 + ^ x25: .cfa -56 + ^ x26: .cfa -64 + ^ x27: .cfa -72 + ^ x28: .cfa -80 + ^ .ra: .cfa -88 + ^ x29: .cfa -96 + ^
STACK CFI 31a94 .cfa: sp 224 +
STACK CFI 31ab0 .cfa: sp 0 +
STACK CFI 31ab4 .cfa: x29 96 +
STACK CFI INIT 31bb8 3dc .cfa: sp 0 +
STACK CFI 31bbc .cfa: sp 256 +
STACK CFI 31bd0 .cfa: x29 64 + x19: .cfa -8 + ^ x20: .cfa -16 + ^ x21: .cfa -24 + ^ x22: .cfa -32 + ^ x23: .cfa -48 + ^ .ra: .cfa -56 + ^ x29: .cfa -64 + ^
STACK CFI 31e6c .cfa: sp 256 +
STACK CFI 31e80 .cfa: sp 0 +
STACK CFI 31e84 .cfa: x29 64 +
STACK CFI INIT 31f98 144 .cfa: sp 0 +
STACK CFI 31f9c .cfa: sp 80 +
STACK CFI 31fac .cfa: x29 48 + x19: .cfa -8 + ^ x20: .cfa -16 + ^ x21: .cfa -24 + ^ x22: .cfa -32 + ^ .ra: .cfa -40 + ^ x29: .cfa -48 + ^
STACK CFI 3208c .cfa: sp 80 +
STACK CFI 3209c .cfa: sp 0 +
STACK CFI 320a0 .cfa: x29 48 +
STACK CFI INIT 320dc 400 .cfa: sp 0 +
STACK CFI 320e0 .cfa: sp 224 +
STACK CFI 320fc .cfa: x29 96 + x19: .cfa -8 + ^ x20: .cfa -16 + ^ x21: .cfa -24 + ^ x22: .cfa -32 + ^ x23: .cfa -40 + ^ x24: .cfa -48 + ^ x25: .cfa -56 + ^ x26: .cfa -64 + ^ x27: .cfa -72 + ^ x28: .cfa -80 + ^ .ra: .cfa -88 + ^ x29: .cfa -96 + ^
STACK CFI 323d4 .cfa: sp 224 +
STACK CFI 323f0 .cfa: sp 0 +
STACK CFI 323f4 .cfa: x29 96 +
STACK CFI INIT 324f8 3c8 .cfa: sp 0 +
STACK CFI 324fc .cfa: sp 192 +
STACK CFI 32510 .cfa: x29 64 + x19: .cfa -8 + ^ x20: .cfa -16 + ^ x21: .cfa -24 + ^ x22: .cfa -32 + ^ x23: .cfa -48 + ^ .ra: .cfa -56 + ^ x29: .cfa -64 + ^
STACK CFI 32790 .cfa: sp 192 +
STACK CFI 327a4 .cfa: sp 0 +
STACK CFI 327a8 .cfa: x29 64 +
STACK CFI INIT 328c4 194 .cfa: sp 0 +
STACK CFI 328c8 .cfa: sp 112 +
STACK CFI 328d8 .cfa: x29 48 + x19: .cfa -8 + ^ x20: .cfa -16 + ^ x21: .cfa -24 + ^ x22: .cfa -32 + ^ .ra: .cfa -40 + ^ x29: .cfa -48 + ^
STACK CFI 329e4 .cfa: sp 112 +
STACK CFI 329f4 .cfa: sp 0 +
STACK CFI 329f8 .cfa: x29 48 +
STACK CFI INIT 32a58 400 .cfa: sp 0 +
STACK CFI 32a5c .cfa: sp 224 +
STACK CFI 32a78 .cfa: x29 96 + x19: .cfa -8 + ^ x20: .cfa -16 + ^ x21: .cfa -24 + ^ x22: .cfa -32 + ^ x23: .cfa -40 + ^ x24: .cfa -48 + ^ x25: .cfa -56 + ^ x26: .cfa -64 + ^ x27: .cfa -72 + ^ x28: .cfa -80 + ^ .ra: .cfa -88 + ^ x29: .cfa -96 + ^
STACK CFI 32d50 .cfa: sp 224 +
STACK CFI 32d6c .cfa: sp 0 +
STACK CFI 32d70 .cfa: x29 96 +
STACK CFI INIT 32e74 480 .cfa: sp 0 +
STACK CFI 32e78 .cfa: sp 256 +
STACK CFI 32e8c .cfa: x29 64 + x19: .cfa -8 + ^ x20: .cfa -16 + ^ x21: .cfa -24 + ^ x22: .cfa -32 + ^ x23: .cfa -40 + ^ x24: .cfa -48 + ^ .ra: .cfa -56 + ^ x29: .cfa -64 + ^
STACK CFI 331ac .cfa: sp 256 +
STACK CFI 331c0 .cfa: sp 0 +
STACK CFI 331c4 .cfa: x29 64 +
STACK CFI INIT 332f8 204 .cfa: sp 0 +
STACK CFI 332fc .cfa: sp 128 +
STACK CFI 33310 .cfa: x29 64 + x19: .cfa -8 + ^ x20: .cfa -16 + ^ x21: .cfa -24 + ^ x22: .cfa -32 + ^ x23: .cfa -40 + ^ x24: .cfa -48 + ^ .ra: .cfa -56 + ^ x29: .cfa -64 + ^
STACK CFI 33464 .cfa: sp 128 +
STACK CFI 33478 .cfa: sp 0 +
STACK CFI 3347c .cfa: x29 64 +
STACK CFI INIT 334fc e3c .cfa: sp 0 +
STACK CFI 33500 .cfa: sp 288 +
STACK CFI 33520 .cfa: x29 96 + x19: .cfa -8 + ^ x20: .cfa -16 + ^ x21: .cfa -24 + ^ x22: .cfa -32 + ^ x23: .cfa -40 + ^ x24: .cfa -48 + ^ x25: .cfa -56 + ^ x26: .cfa -64 + ^ x27: .cfa -72 + ^ x28: .cfa -80 + ^ .ra: .cfa -88 + ^ x29: .cfa -96 + ^ v8: .cfa -104 + ^ v9: .cfa -112 + ^
STACK CFI 33b54 .cfa: sp 288 +
STACK CFI 33b74 .cfa: sp 0 +
STACK CFI 33b78 .cfa: x29 96 +
STACK CFI INIT 343c4 790 .cfa: sp 0 +
STACK CFI 343c8 .cfa: sp 272 +
STACK CFI 343e8 .cfa: x29 96 + x19: .cfa -8 + ^ x20: .cfa -16 + ^ x21: .cfa -24 + ^ x22: .cfa -32 + ^ x23: .cfa -40 + ^ x24: .cfa -48 + ^ x25: .cfa -56 + ^ x26: .cfa -64 + ^ x27: .cfa -72 + ^ x28: .cfa -80 + ^ .ra: .cfa -88 + ^ x29: .cfa -96 + ^ v8: .cfa -104 + ^ v9: .cfa -112 + ^
STACK CFI 34af8 .cfa: sp 272 +
STACK CFI 34b18 .cfa: sp 0 +
STACK CFI 34b1c .cfa: x29 96 +
STACK CFI INIT 34c20 134 .cfa: sp 0 +
STACK CFI 34c24 .cfa: sp 80 +
STACK CFI 34c30 .cfa: x29 32 + x19: .cfa -8 + ^ x20: .cfa -16 + ^ .ra: .cfa -24 + ^ x29: .cfa -32 + ^
STACK CFI 34c60 .cfa: sp 80 +
STACK CFI 34c6c .cfa: sp 0 +
STACK CFI 34c70 .cfa: x29 32 +
STACK CFI INIT 34d54 78 .cfa: sp 0 +
STACK CFI 34d58 .cfa: sp 32 +
STACK CFI 34d60 .cfa: x29 32 + x19: .cfa -8 + ^ x20: .cfa -16 + ^ .ra: .cfa -24 + ^ x29: .cfa -32 + ^
STACK CFI 34d6c .cfa: sp 32 +
STACK CFI 34d74 .cfa: sp 0 +
STACK CFI 34d78 .cfa: x29 32 +
STACK CFI INIT 34dcc 74 .cfa: sp 0 +
STACK CFI 34dd0 .cfa: sp 48 +
STACK CFI 34ddc .cfa: x29 32 + x19: .cfa -8 + ^ x20: .cfa -16 + ^ .ra: .cfa -24 + ^ x29: .cfa -32 + ^
STACK CFI 34e28 .cfa: sp 48 +
STACK CFI 34e34 .cfa: sp 0 +
STACK CFI 34e38 .cfa: x29 32 +
STACK CFI INIT 34ec8 25c .cfa: sp 0 +
STACK CFI 34ecc .cfa: sp 128 +
STACK CFI 34edc .cfa: x29 48 + x19: .cfa -8 + ^ x20: .cfa -16 + ^ x21: .cfa -32 + ^ .ra: .cfa -40 + ^ x29: .cfa -48 + ^
STACK CFI 34fc4 .cfa: sp 128 +
STACK CFI 34fd4 .cfa: sp 0 +
STACK CFI 34fd8 .cfa: x29 48 +
STACK CFI INIT 35148 180 .cfa: sp 0 +
STACK CFI 3514c .cfa: sp 128 +
STACK CFI 3515c .cfa: x29 48 + x19: .cfa -8 + ^ x20: .cfa -16 + ^ x21: .cfa -24 + ^ x22: .cfa -32 + ^ .ra: .cfa -40 + ^ x29: .cfa -48 + ^
STACK CFI 351c0 .cfa: sp 128 +
STACK CFI 351d0 .cfa: sp 0 +
STACK CFI 351d4 .cfa: x29 48 +
STACK CFI INIT 352c8 a4 .cfa: sp 0 +
STACK CFI 352cc .cfa: sp 48 +
STACK CFI 352d8 .cfa: x29 48 + x19: .cfa -8 + ^ x20: .cfa -16 + ^ x21: .cfa -32 + ^ .ra: .cfa -40 + ^ x29: .cfa -48 + ^
STACK CFI 35344 .cfa: sp 48 +
STACK CFI 35350 .cfa: sp 0 +
STACK CFI 35354 .cfa: x29 48 +
STACK CFI INIT 3536c 1cc .cfa: sp 0 +
STACK CFI 35370 .cfa: sp 176 +
STACK CFI 35388 .cfa: x29 80 + x19: .cfa -8 + ^ x20: .cfa -16 + ^ x21: .cfa -24 + ^ x22: .cfa -32 + ^ x23: .cfa -40 + ^ x24: .cfa -48 + ^ x25: .cfa -56 + ^ x26: .cfa -64 + ^ .ra: .cfa -72 + ^ x29: .cfa -80 + ^
STACK CFI 35420 .cfa: sp 176 +
STACK CFI 35438 .cfa: sp 0 +
STACK CFI 3543c .cfa: x29 80 +
STACK CFI INIT 35538 470 .cfa: sp 0 +
STACK CFI 3553c .cfa: sp 96 +
STACK CFI 35554 .cfa: x29 80 + x19: .cfa -8 + ^ x20: .cfa -16 + ^ x21: .cfa -24 + ^ x22: .cfa -32 + ^ x23: .cfa -40 + ^ x24: .cfa -48 + ^ x25: .cfa -64 + ^ .ra: .cfa -72 + ^ x29: .cfa -80 + ^
STACK CFI 35924 .cfa: sp 96 +
STACK CFI 3593c .cfa: sp 0 +
STACK CFI 35940 .cfa: x29 80 +
STACK CFI INIT 359a8 190 .cfa: sp 0 +
STACK CFI 359ac .cfa: sp 144 +
STACK CFI 359c0 .cfa: x29 64 + x19: .cfa -8 + ^ x20: .cfa -16 + ^ x21: .cfa -24 + ^ x22: .cfa -32 + ^ x23: .cfa -48 + ^ .ra: .cfa -56 + ^ x29: .cfa -64 + ^
STACK CFI 35a2c .cfa: sp 144 +
STACK CFI 35a40 .cfa: sp 0 +
STACK CFI 35a44 .cfa: x29 64 +
STACK CFI INIT 35b38 fc .cfa: sp 0 +
STACK CFI 35b3c .cfa: sp 64 +
STACK CFI 35b4c .cfa: x29 48 + x19: .cfa -8 + ^ x20: .cfa -16 + ^ x21: .cfa -24 + ^ x22: .cfa -32 + ^ .ra: .cfa -40 + ^ x29: .cfa -48 + ^
STACK CFI 35bfc .cfa: sp 64 +
STACK CFI 35c0c .cfa: sp 0 +
STACK CFI 35c10 .cfa: x29 48 +
STACK CFI INIT 35c38 2a8 .cfa: sp 0 +
STACK CFI 35c3c .cfa: sp 144 +
STACK CFI 35c50 .cfa: x29 64 + x19: .cfa -8 + ^ x20: .cfa -16 + ^ x21: .cfa -24 + ^ x22: .cfa -32 + ^ x23: .cfa -48 + ^ .ra: .cfa -56 + ^ x29: .cfa -64 + ^
STACK CFI 35d84 .cfa: sp 144 +
STACK CFI 35d98 .cfa: sp 0 +
STACK CFI 35d9c .cfa: x29 64 +
STACK CFI INIT 35ee0 4c4 .cfa: sp 0 +
STACK CFI 35ee4 .cfa: sp 144 +
STACK CFI 35ef8 .cfa: x29 64 + x19: .cfa -8 + ^ x20: .cfa -16 + ^ x21: .cfa -24 + ^ x22: .cfa -32 + ^ x23: .cfa -48 + ^ .ra: .cfa -56 + ^ x29: .cfa -64 + ^
STACK CFI 361f4 .cfa: sp 144 +
STACK CFI 36208 .cfa: sp 0 +
STACK CFI 3620c .cfa: x29 64 +
STACK CFI INIT 363a4 154 .cfa: sp 0 +
STACK CFI 363a8 .cfa: sp 384 +
STACK CFI 363bc .cfa: x29 64 + x19: .cfa -8 + ^ x20: .cfa -16 + ^ x21: .cfa -24 + ^ x22: .cfa -32 + ^ x23: .cfa -40 + ^ x28: .cfa -48 + ^ .ra: .cfa -56 + ^ x29: .cfa -64 + ^
STACK CFI 364a0 .cfa: sp 384 +
STACK CFI 364b4 .cfa: sp 0 +
STACK CFI 364b8 .cfa: x29 64 +
STACK CFI INIT 364f8 168 .cfa: sp 0 +
STACK CFI 364fc .cfa: sp 384 +
STACK CFI 36510 .cfa: x29 64 + x19: .cfa -8 + ^ x20: .cfa -16 + ^ x21: .cfa -24 + ^ x22: .cfa -32 + ^ x23: .cfa -40 + ^ x28: .cfa -48 + ^ .ra: .cfa -56 + ^ x29: .cfa -64 + ^
STACK CFI 36608 .cfa: sp 384 +
STACK CFI 3661c .cfa: sp 0 +
STACK CFI 36620 .cfa: x29 64 +
STACK CFI INIT 36678 43c .cfa: sp 0 +
STACK CFI 3667c .cfa: sp 64 +
STACK CFI 3668c .cfa: x29 64 + x19: .cfa -8 + ^ x20: .cfa -16 + ^ x21: .cfa -24 + ^ x22: .cfa -32 + ^ x23: .cfa -40 + ^ x24: .cfa -48 + ^ .ra: .cfa -56 + ^ x29: .cfa -64 + ^
STACK CFI 36a44 .cfa: sp 64 +
STACK CFI 36a54 .cfa: sp 0 +
STACK CFI 36a58 .cfa: x29 64 +
