MODULE Linux arm64 9096E5B66E65F100FC31E9BFA3595D540 hbg1010.iconsteal.android64.so
INFO CODE_ID B6E59690656E00F1FC31E9BFA3595D540D83708F
INFO GENERATOR mozilla/dump_syms 2.3.4
PUBLIC 16c30 0 __on_dlclose
PUBLIC 16c40 0 __emutls_unregister_key
PUBLIC 16c48 0 __on_dlclose_late
PUBLIC 16c50 0 __atexit_handler_wrapper
PUBLIC 16c64 0 atexit
PUBLIC 16c80 0 pthread_atfork
PUBLIC 16c90 0 unwind_phase2
PUBLIC 16dc4 0 _Unwind_Resume
PUBLIC 16e48 0 unwind_phase2_forced
PUBLIC m 16f3c 0 __unw_init_local
PUBLIC m 16fe4 0 __unw_get_reg
PUBLIC 17060 0 __unw_step_stage2
PUBLIC m 17074 0 __unw_get_proc_info
PUBLIC m 170b4 0 __unw_resume
PUBLIC 170dc 0 libunwind::CFI_Parser<libunwind::LocalAddressSpace>::decodeFDE(libunwind::LocalAddressSpace&, unsigned long, libunwind::CFI_Parser<libunwind::LocalAddressSpace>::FDE_Info*, libunwind::CFI_Parser<libunwind::LocalAddressSpace>::CIE_Info*, bool)
PUBLIC 1726c 0 libunwind::CFI_Parser<libunwind::LocalAddressSpace>::parseCIE(libunwind::LocalAddressSpace&, unsigned long, libunwind::CFI_Parser<libunwind::LocalAddressSpace>::CIE_Info*)
PUBLIC 17534 0 libunwind::AbstractUnwindCursor::~AbstractUnwindCursor()
PUBLIC 1753c 0 libunwind::UnwindCursor<libunwind::LocalAddressSpace, libunwind::Registers_arm64>::~UnwindCursor()
PUBLIC 17544 0 libunwind::UnwindCursor<libunwind::LocalAddressSpace, libunwind::Registers_arm64>::validReg(int)
PUBLIC 17588 0 libunwind::UnwindCursor<libunwind::LocalAddressSpace, libunwind::Registers_arm64>::getReg(int)
PUBLIC 17670 0 libunwind::UnwindCursor<libunwind::LocalAddressSpace, libunwind::Registers_arm64>::setReg(int, unsigned long)
PUBLIC 17758 0 libunwind::UnwindCursor<libunwind::LocalAddressSpace, libunwind::Registers_arm64>::validFloatReg(int)
PUBLIC 1776c 0 libunwind::UnwindCursor<libunwind::LocalAddressSpace, libunwind::Registers_arm64>::getFloatReg(int)
PUBLIC 1777c 0 libunwind::UnwindCursor<libunwind::LocalAddressSpace, libunwind::Registers_arm64>::setFloatReg(int, double)
PUBLIC 1778c 0 libunwind::UnwindCursor<libunwind::LocalAddressSpace, libunwind::Registers_arm64>::step(bool)
PUBLIC 1787c 0 libunwind::UnwindCursor<libunwind::LocalAddressSpace, libunwind::Registers_arm64>::getInfo(unw_proc_info_t*)
PUBLIC 178c0 0 libunwind::UnwindCursor<libunwind::LocalAddressSpace, libunwind::Registers_arm64>::jumpto()
PUBLIC 178cc 0 libunwind::UnwindCursor<libunwind::LocalAddressSpace, libunwind::Registers_arm64>::isSignalFrame()
PUBLIC 178d8 0 libunwind::UnwindCursor<libunwind::LocalAddressSpace, libunwind::Registers_arm64>::getFunctionName(char*, unsigned long, unsigned long*)
PUBLIC 17904 0 libunwind::UnwindCursor<libunwind::LocalAddressSpace, libunwind::Registers_arm64>::setInfoBasedOnIPRegister(bool)
PUBLIC 17b40 0 libunwind::UnwindCursor<libunwind::LocalAddressSpace, libunwind::Registers_arm64>::getRegisterName(int)
PUBLIC 17b4c 0 libunwind::UnwindCursor<libunwind::LocalAddressSpace, libunwind::Registers_arm64>::stepThroughSigReturn(libunwind::Registers_arm64&)
PUBLIC 17c6c 0 libunwind::DwarfInstructions<libunwind::LocalAddressSpace, libunwind::Registers_arm64>::stepWithDwarf(libunwind::LocalAddressSpace&, unsigned long, unsigned long, libunwind::Registers_arm64&, bool&, bool)
PUBLIC 18100 0 libunwind::CFI_Parser<libunwind::LocalAddressSpace>::parseFDEInstructions(libunwind::LocalAddressSpace&, libunwind::CFI_Parser<libunwind::LocalAddressSpace>::FDE_Info const&, libunwind::CFI_Parser<libunwind::LocalAddressSpace>::CIE_Info const&, unsigned long, int, libunwind::CFI_Parser<libunwind::LocalAddressSpace>::PrologInfo*)
PUBLIC 18c78 0 libunwind::DwarfInstructions<libunwind::LocalAddressSpace, libunwind::Registers_arm64>::getCFA(libunwind::LocalAddressSpace&, libunwind::CFI_Parser<libunwind::LocalAddressSpace>::PrologInfo const&, libunwind::Registers_arm64 const&)
PUBLIC 18dac 0 libunwind::DwarfInstructions<libunwind::LocalAddressSpace, libunwind::Registers_arm64>::getSavedRegister(libunwind::LocalAddressSpace&, libunwind::Registers_arm64 const&, unsigned long, libunwind::CFI_Parser<libunwind::LocalAddressSpace>::RegisterLocation const&)
PUBLIC 18fbc 0 libunwind::LocalAddressSpace::getEncodedP(unsigned long&, unsigned long, unsigned char, unsigned long)
PUBLIC 19348 0 libunwind::LocalAddressSpace::getULEB128(unsigned long&, unsigned long)
PUBLIC 19510 0 libunwind::DwarfInstructions<libunwind::LocalAddressSpace, libunwind::Registers_arm64>::evaluateExpression(unsigned long, libunwind::LocalAddressSpace&, libunwind::Registers_arm64 const&, unsigned long)
PUBLIC 19ed4 0 libunwind::UnwindCursor<libunwind::LocalAddressSpace, libunwind::Registers_arm64>::getInfoFromDwarfSection(unsigned long, libunwind::UnwindInfoSections const&, unsigned int)
PUBLIC 1a1a8 0 libunwind::findUnwindSectionsByPhdr(dl_phdr_info*, unsigned long, void*)
PUBLIC 1a2d8 0 libunwind::EHHeaderParser<libunwind::LocalAddressSpace>::decodeEHHdr(libunwind::LocalAddressSpace&, unsigned long, unsigned long, libunwind::EHHeaderParser<libunwind::LocalAddressSpace>::EHHeaderInfo&)
PUBLIC 1a3f8 0 libunwind::CFI_Parser<libunwind::LocalAddressSpace>::findFDE(libunwind::LocalAddressSpace&, unsigned long, unsigned long, unsigned long, unsigned long, libunwind::CFI_Parser<libunwind::LocalAddressSpace>::FDE_Info*, libunwind::CFI_Parser<libunwind::LocalAddressSpace>::CIE_Info*)
PUBLIC 1a5c0 0 libunwind::EHHeaderParser<libunwind::LocalAddressSpace>::findFDE(libunwind::LocalAddressSpace&, unsigned long, unsigned long, unsigned int, libunwind::CFI_Parser<libunwind::LocalAddressSpace>::FDE_Info*, libunwind::CFI_Parser<libunwind::LocalAddressSpace>::CIE_Info*)
PUBLIC 1a728 0 libunwind::EHHeaderParser<libunwind::LocalAddressSpace>::getTableEntrySize(unsigned char)
PUBLIC 1a824 0 libunwind::Registers_arm64::getRegisterName(int)
PUBLIC 1a854 0 __libunwind_Registers_arm64_jumpto
PUBLIC m 1a8e4 0 __unw_getcontext
PUBLIC 1a980 0 __aarch64_ldadd8_relax
PUBLIC 1a9b0 0 init_have_lse_atomics
PUBLIC 1aa48 0 __init_cpu_features_constructor
PUBLIC 1acf4 0 __init_cpu_features
PUBLIC 1ad80 0 __aarch64_ldadd8_acq_rel
PUBLIC 1adb0 0 CopyPlusPopup::create(GJUserScore* const&)
PUBLIC 1af34 0 geode::Popup<GJUserScore* const&>::~Popup()
PUBLIC 1afa0 0 CopyPlusPopup::createFormatted(char const*)
PUBLIC 1b348 0 CopyPlusPopup::onSelect(cocos2d::CCObject*)
PUBLIC 1b700 0 CopyPlusPopup::createTextButton(char const*)
PUBLIC 1b87c 0 CopyPlusPopup::setup(GJUserScore* const&)
PUBLIC 1c3d4 0 geode::Mod::getSettingValue<bool>(std::__ndk1::basic_string_view<char, std::__ndk1::char_traits<char> >) const
PUBLIC 1c500 0 CopyPlusPopup::lockObject(int)
PUBLIC 1c6c8 0 CopyPlusPopup::setIcons(cocos2d::CCObject*)
PUBLIC 1ca74 0 CopyPlusPopup::createInfoPopup(cocos2d::CCObject*)
PUBLIC 1cb74 0 geode::Popup<GJUserScore* const&>::onClose(cocos2d::CCObject*)
PUBLIC 1cca8 0 cocos2d::CCCopying::copyWithZone(cocos2d::CCZone*)
PUBLIC 1ccb0 0 CopyPlusPopup::~CopyPlusPopup()
PUBLIC 1cd24 0 geode::Popup<GJUserScore* const&>::registerWithTouchDispatcher()
PUBLIC 1cd50 0 geode::Popup<GJUserScore* const&>::keyDown(cocos2d::enumKeyCodes)
PUBLIC 1cd78 0 cocos2d::CCLayerRGBA::setOpacityModifyRGB(bool)
PUBLIC 1cd7c 0 cocos2d::CCLayerRGBA::isOpacityModifyRGB()
PUBLIC 1cd84 0 {virtual override thunk({offset(-320)}, CopyPlusPopup::~CopyPlusPopup())}
PUBLIC 1cdf0 0 {virtual override thunk({offset(-320)}, CopyPlusPopup::~CopyPlusPopup())}
PUBLIC 1ce64 0 {virtual override thunk({offset(-344)}, geode::Popup<GJUserScore* const&>::keyDown(cocos2d::enumKeyCodes))}
PUBLIC 1ce90 0 cocos2d::CCKeyboardDelegate::keyUp(cocos2d::enumKeyCodes)
PUBLIC 1ce94 0 cocos2d::CCMouseDelegate::rightKeyDown()
PUBLIC 1ce98 0 cocos2d::CCMouseDelegate::rightKeyUp()
PUBLIC 1ce9c 0 cocos2d::CCMouseDelegate::scrollWheel(float, float)
PUBLIC 1cea0 0 {virtual override thunk({offset(-408)}, cocos2d::CCLayerRGBA::setOpacityModifyRGB(bool))}
PUBLIC 1cea4 0 {virtual override thunk({offset(-408)}, cocos2d::CCLayerRGBA::isOpacityModifyRGB())}
PUBLIC 1ceac 0 geode::Popup<GJUserScore* const&>::~Popup()
PUBLIC 1ceb0 0 {virtual override thunk({offset(-320)}, geode::Popup<GJUserScore* const&>::~Popup())}
PUBLIC 1cf1c 0 {virtual override thunk({offset(-320)}, geode::Popup<GJUserScore* const&>::~Popup())}
PUBLIC 1cf20 0 __clang_call_terminate
PUBLIC 1cf30 0 std::__ndk1::basic_string<char, std::__ndk1::char_traits<char>, std::__ndk1::allocator<char> >::__throw_length_error[abi:ne190000]() const
PUBLIC 1cf44 0 std::__ndk1::__throw_length_error[abi:ne190000](char const*)
PUBLIC 1cf94 0 std::length_error::length_error[abi:ne190000](char const*)
PUBLIC 1cfc4 0 std::__ndk1::basic_string<char, std::__ndk1::char_traits<char>, std::__ndk1::allocator<char> >::__throw_out_of_range[abi:ne190000]() const
PUBLIC 1cfd0 0 std::__ndk1::__throw_out_of_range[abi:ne190000](char const*)
PUBLIC 1d020 0 std::out_of_range::out_of_range[abi:ne190000](char const*)
PUBLIC 1d050 0 geode::Popup<GJUserScore* const&>::initBase(float, float, GJUserScore* const&, char const*, cocos2d::CCRect, bool)
PUBLIC 1d360 0 geode::cast::traverseTypeinfoFor(void*, geode::cast::ClassTypeinfoType const*, char const*)
PUBLIC 1d464 0 geode::Popup<GJUserScore* const&>::CloseEvent::~CloseEvent()
PUBLIC 1d4c4 0 geode::Popup<GJUserScore* const&>::CloseEvent::~CloseEvent()
PUBLIC 1d534 0 std::__ndk1::__shared_ptr_emplace<geode::Popup<GJUserScore* const&>::CloseEvent::Impl, std::__ndk1::allocator<geode::Popup<GJUserScore* const&>::CloseEvent::Impl> >::~__shared_ptr_emplace()
PUBLIC 1d544 0 std::__ndk1::__shared_ptr_emplace<geode::Popup<GJUserScore* const&>::CloseEvent::Impl, std::__ndk1::allocator<geode::Popup<GJUserScore* const&>::CloseEvent::Impl> >::~__shared_ptr_emplace()
PUBLIC 1d574 0 std::__ndk1::__shared_ptr_emplace<geode::Popup<GJUserScore* const&>::CloseEvent::Impl, std::__ndk1::allocator<geode::Popup<GJUserScore* const&>::CloseEvent::Impl> >::__on_zero_shared()
PUBLIC 1d578 0 std::__ndk1::__shared_ptr_emplace<geode::Popup<GJUserScore* const&>::CloseEvent::Impl, std::__ndk1::allocator<geode::Popup<GJUserScore* const&>::CloseEvent::Impl> >::__on_zero_shared_weak()
PUBLIC 1d57c 0 __cxx_global_var_init
PUBLIC 1e0d4 0 geode::modifier::ModifyBase<geode::modifier::ModifyDerive<copyIcons, ProfilePage> >::~ModifyBase()
PUBLIC 1e0ec 0 geode::modifier::ModifyDerive<copyIcons, ProfilePage>::apply()
PUBLIC 1e55c 0 std::__ndk1::shared_ptr<geode::Hook>::~shared_ptr[abi:ne190000]()
PUBLIC 1e5ac 0 geode::impl::ResultData<geode::Hook*, std::__ndk1::basic_string<char, std::__ndk1::char_traits<char>, std::__ndk1::allocator<char> > >::~ResultData()
PUBLIC 1e620 0 std::__ndk1::vector<std::__ndk1::basic_string<char, std::__ndk1::char_traits<char>, std::__ndk1::allocator<char> >, std::__ndk1::allocator<std::__ndk1::basic_string<char, std::__ndk1::char_traits<char>, std::__ndk1::allocator<char> > > >::~vector[abi:ne190000]()
PUBLIC 1e69c 0 geode::modifier::ModifyBase<geode::modifier::ModifyDerive<copyIcons, ProfilePage> >::apply()
PUBLIC 1e6a0 0 _ZN5geode15UnwrapExceptionC2IRPNS_4HookEQsr4implE18IsStringStreamableIT_EEENS_4impl5OkTagEOS5_
PUBLIC 1e7f4 0 std::__ndk1::__throw_bad_variant_access[abi:ne190000]()
PUBLIC 1e828 0 std::__ndk1::basic_stringstream<char, std::__ndk1::char_traits<char>, std::__ndk1::allocator<char> >::basic_stringstream[abi:ne190000]()
PUBLIC m 1e95c 0 std::__ndk1::basic_stringstream<char, std::__ndk1::char_traits<char>, std::__ndk1::allocator<char> >::~basic_stringstream()
PUBLIC 1e9dc 0 geode::UnwrapException::~UnwrapException()
PUBLIC 1ea00 0 std::__ndk1::__put_character_sequence[abi:ne190000]<char, std::__ndk1::char_traits<char> >(std::__ndk1::basic_ostream<char, std::__ndk1::char_traits<char> >, std::__ndk1::basic_ostream const*, unsigned long)
PUBLIC 1eba4 0 std::__ndk1::__pad_and_output[abi:ne190000]<char, std::__ndk1::char_traits<char> >(std::__ndk1::char_traits<char>, std::__ndk1::ostreambuf_iterator const*, std::__ndk1::ostreambuf_iterator const, std::__ndk1::ostreambuf_iterator const, std::__ndk1::ios_base&, std::__ndk1::ostreambuf_iterator)
PUBLIC 1ed90 0 std::__throw_bad_array_new_length([abi:ne190000], void)
PUBLIC 1edc4 0 std::__ndk1::basic_stringbuf<char, std::__ndk1::char_traits<char>, std::__ndk1::allocator<char> >::str[abi:ne190000]() &&
PUBLIC 1ef34 0 std::__ndk1::basic_stringbuf<char, std::__ndk1::char_traits<char>, std::__ndk1::allocator<char> >::__init_buf_ptrs[abi:ne190000]()
PUBLIC 1f07c 0 std::__ndk1::basic_string<char, std::__ndk1::char_traits<char>, std::__ndk1::allocator<char> >::__erase_external_with_move(unsigned long, unsigned long)
PUBLIC 1f104 0 std::__ndk1::basic_string<char, std::__ndk1::char_traits<char>, std::__ndk1::allocator<char> >::__init_copy_ctor_external(char const*, unsigned long)
PUBLIC 1f198 0 std::__ndk1::__split_buffer<std::__ndk1::basic_string<char, std::__ndk1::char_traits<char>, std::__ndk1::allocator<char> >, std::__ndk1::allocator<std::__ndk1::basic_string<char, std::__ndk1::char_traits<char>, std::__ndk1::allocator<char> > >&>::~__split_buffer()
PUBLIC 1f200 0 std::__ndk1::vector<std::__ndk1::basic_string<char, std::__ndk1::char_traits<char>, std::__ndk1::allocator<char> >, std::__ndk1::allocator<std::__ndk1::basic_string<char, std::__ndk1::char_traits<char>, std::__ndk1::allocator<char> > > >::__throw_length_error[abi:ne190000]() const
PUBLIC 1f214 0 std::__ndk1::__variant_detail::__visitation::__base::__dispatcher<(unsigned long)0>::__dispatch[abi:ne190000]<std::__ndk1::__variant_detail::__dtor<std::__ndk1::__variant_detail::__traits<geode::Hook*, std::__ndk1::basic_string<char, std::__ndk1::char_traits<char>, std::__ndk1::allocator<char> > >, (std::__ndk1::__variant_detail::_Trait)1>::__destroy[abi:ne190000]()::{lambda(auto:1&)#1}, std::__ndk1::__variant_detail::__base<(std::__ndk1::__variant_detail::__traits<geode::Hook*, std::__ndk1::basic_string<char, std::__ndk1::char_traits<char>, std::__ndk1::allocator<char> > >)1, geode::Hook, std::__ndk1::allocator<char> >&>(std::__ndk1::__variant_detail::__dtor<std::__ndk1::__variant_detail::__traits<geode::Hook*, std::__ndk1::basic_string<char, std::__ndk1::char_traits<char>, std::__ndk1::allocator<char> > >, (std::__ndk1::__variant_detail::_Trait)1>, std::__ndk1::__variant_detail::__base<(std::__ndk1::__variant_detail::__traits<geode::Hook*, std::__ndk1::basic_string<char, std::__ndk1::char_traits<char>, std::__ndk1::allocator<char> > >)1, geode::Hook, std::__ndk1::allocator<char> >&)
PUBLIC 1f218 0 std::__ndk1::__variant_detail::__visitation::__base::__dispatcher<(unsigned long)1>::__dispatch[abi:ne190000]<std::__ndk1::__variant_detail::__dtor<std::__ndk1::__variant_detail::__traits<geode::Hook*, std::__ndk1::basic_string<char, std::__ndk1::char_traits<char>, std::__ndk1::allocator<char> > >, (std::__ndk1::__variant_detail::_Trait)1>::__destroy[abi:ne190000]()::{lambda(auto:1&)#1}, std::__ndk1::__variant_detail::__base<(std::__ndk1::__variant_detail::__traits<geode::Hook*, std::__ndk1::basic_string<char, std::__ndk1::char_traits<char>, std::__ndk1::allocator<char> > >)1, geode::Hook, std::__ndk1::allocator<char> >&>(std::__ndk1::__variant_detail::__dtor<std::__ndk1::__variant_detail::__traits<geode::Hook*, std::__ndk1::basic_string<char, std::__ndk1::char_traits<char>, std::__ndk1::allocator<char> > >, (std::__ndk1::__variant_detail::_Trait)1>, std::__ndk1::__variant_detail::__base<(std::__ndk1::__variant_detail::__traits<geode::Hook*, std::__ndk1::basic_string<char, std::__ndk1::char_traits<char>, std::__ndk1::allocator<char> > >)1, geode::Hook, std::__ndk1::allocator<char> >&)
PUBLIC 1f22c 0 std::__ndk1::__tree<std::__ndk1::__value_type<std::__ndk1::basic_string<char, std::__ndk1::char_traits<char>, std::__ndk1::allocator<char> >, std::__ndk1::shared_ptr<geode::Hook> >, std::__ndk1::__map_value_compare<std::__ndk1::basic_string<char, std::__ndk1::char_traits<char>, std::__ndk1::allocator<char> >, std::__ndk1::__value_type<std::__ndk1::basic_string<char, std::__ndk1::char_traits<char>, std::__ndk1::allocator<char> >, std::__ndk1::shared_ptr<geode::Hook> >, std::__ndk1::less<std::__ndk1::basic_string<char, std::__ndk1::char_traits<char>, std::__ndk1::allocator<char> > >, true>, std::__ndk1::allocator<std::__ndk1::__value_type<std::__ndk1::basic_string<char, std::__ndk1::char_traits<char>, std::__ndk1::allocator<char> >, std::__ndk1::shared_ptr<geode::Hook> > > >::destroy(std::__ndk1::__tree_node<std::__ndk1::__value_type<std::__ndk1::basic_string<char, std::__ndk1::char_traits<char>, std::__ndk1::allocator<char> >, std::__ndk1::shared_ptr<geode::Hook> >, void*>*)
PUBLIC 1f2b0 0 geode::modifier::AsStaticFunction_loadPageFromUserInfo<copyIcons, void (copyIcons::*)(GJUserScore*)>::Impl<void (copyIcons::*)(GJUserScore*)>::function(copyIcons*, GJUserScore*)
PUBLIC 1f554 0 std::__ndk1::shared_ptr<tulip::hook::CallingConvention>::~shared_ptr[abi:ne190000]()
PUBLIC 1f5a4 0 tulip::hook::HandlerMetadata::~HandlerMetadata()
PUBLIC 1f608 0 copyIcons::setIcons(cocos2d::CCObject*)
PUBLIC 1fd28 0 copyIcons::createCopyPlusLayer(cocos2d::CCObject*)
PUBLIC 1fe04 0 std::__ndk1::__tree_balance_after_insert[abi:ne190000]<std::__ndk1::__tree_node_base<void*>*>(std::__ndk1::__tree_node_base<void*>*, std::__ndk1::__tree_node_base<void*>*)
PUBLIC 1ffac 0 geode::getMod()
PUBLIC m 1ffe8 0 geodeImplicitEntry
PUBLIC 20024 0 std::__ndk1::unordered_map<void*, bool, std::__ndk1::hash<void*>, std::__ndk1::equal_to<void*>, std::__ndk1::allocator<std::__ndk1::pair<void* const, bool> > >::~unordered_map[abi:ne190000]()
PUBLIC 20070 0 wrapFunction(unsigned long, tulip::hook::WrapperMetadata const&)
PUBLIC 201a4 0 geode::impl::ResultData<void*, std::__ndk1::basic_string<char, std::__ndk1::char_traits<char>, std::__ndk1::allocator<char> > >::unwrapErr() &
PUBLIC 2021c 0 geode::impl::ResultData<void*, std::__ndk1::basic_string<char, std::__ndk1::char_traits<char>, std::__ndk1::allocator<char> > >::~ResultData()
PUBLIC 20290 0 tulip::hook::WrapperMetadata::~WrapperMetadata()
PUBLIC 202f4 0 cocos2d::CCObject::~CCObject()
PUBLIC 20318 0 cocos2d::CCNode::~CCNode()
PUBLIC 2033c 0 {virtual override thunk({offset(-320)}, cocos2d::CCLayer::~CCLayer())}
PUBLIC 20344 0 cocos2d::CCLayer::~CCLayer()
PUBLIC 20368 0 {virtual override thunk({offset(-320)}, cocos2d::CCLayer::~CCLayer())}
PUBLIC 20390 0 cocos2d::CCLayerRGBA::~CCLayerRGBA()
PUBLIC 20668 0 {virtual override thunk({offset(-320)}, cocos2d::CCLayerRGBA::~CCLayerRGBA())}
PUBLIC 20670 0 cocos2d::CCLayerRGBA::~CCLayerRGBA()
PUBLIC 20694 0 {virtual override thunk({offset(-320)}, cocos2d::CCLayerRGBA::~CCLayerRGBA())}
PUBLIC 206bc 0 cocos2d::CCLayerColor::CCLayerColor()
PUBLIC 2090c 0 {virtual override thunk({offset(-320)}, cocos2d::CCLayerColor::~CCLayerColor())}
PUBLIC 20914 0 cocos2d::CCLayerColor::~CCLayerColor()
PUBLIC 20938 0 {virtual override thunk({offset(-320)}, cocos2d::CCLayerColor::~CCLayerColor())}
PUBLIC 20960 0 FLAlertLayer::FLAlertLayer()
PUBLIC 209fc 0 {virtual override thunk({offset(-320)}, FLAlertLayer::~FLAlertLayer())}
PUBLIC 20a04 0 FLAlertLayer::~FLAlertLayer()
PUBLIC 20a28 0 {virtual override thunk({offset(-320)}, FLAlertLayer::~FLAlertLayer())}
PUBLIC 20a50 0 FLAlertLayer::create(FLAlertLayerProtocol*, char const*, gd::string, char const*, char const*, float)
PUBLIC 20c08 0 tulip::hook::AbstractFunction::from<FLAlertLayer*, FLAlertLayerProtocol*, char const*, gd::string, char const*, char const*, float>(FLAlertLayer* (*)(FLAlertLayerProtocol*, char const*, gd::string, char const*, char const*, float))
PUBLIC 20d6c 0 FLAlertLayer::create(char const*, gd::string const&, char const*)
PUBLIC 20e18 0 ButtonSprite::create(char const*)
PUBLIC 20e40 0 ButtonSprite::create(char const*, char const*, char const*)
PUBLIC 20e60 0 CCMenuItemSpriteExtra::create(cocos2d::CCNode*, cocos2d::CCObject*, void (cocos2d::CCObject::*)(cocos2d::CCObject*))
PUBLIC 20e74 0 CCMenuItemSpriteExtra::setSprite(cocos2d::CCSprite*)
PUBLIC 20f48 0 GameLevelManager::get()
PUBLIC 20f4c 0 GameManager::setPlayerBall(int)
PUBLIC 20f60 0 GameManager::setPlayerBird(int)
PUBLIC 20f74 0 GameManager::setPlayerColor(int)
PUBLIC 20f88 0 GameManager::setPlayerColor2(int)
PUBLIC 20f9c 0 GameManager::setPlayerColor3(int)
PUBLIC 20fb0 0 GameManager::setPlayerDart(int)
PUBLIC 20fc4 0 GameManager::setPlayerFrame(int)
PUBLIC 20fd8 0 GameManager::setPlayerGlow(bool)
PUBLIC 20fe0 0 GameManager::setPlayerJetpack(int)
PUBLIC 20ff4 0 GameManager::setPlayerRobot(int)
PUBLIC 21008 0 GameManager::setPlayerShip(int)
PUBLIC 2101c 0 GameManager::setPlayerSpider(int)
PUBLIC 21030 0 GameManager::setPlayerStreak(int)
PUBLIC 21044 0 GameManager::setPlayerSwing(int)
PUBLIC 21058 0 cocos2d::CCObject::update(float)
PUBLIC 2105c 0 cocos2d::CCLayerColor::~CCLayerColor()
PUBLIC 21318 0 cocos2d::CCLayer::~CCLayer()
PUBLIC 215e0 0 cocos2d::CCNode::~CCNode()
PUBLIC 21858 0 FLAlertLayer::~FLAlertLayer()
PUBLIC 21b14 0 cocos2d::CCObject::~CCObject()
PUBLIC 21fe0 0 _ZN5geode15UnwrapExceptionC2IRPvQsr4implE18IsStringStreamableIT_EEENS_4impl5OkTagEOS4_
PUBLIC 22134 0 _ZN5geode15UnwrapExceptionC2IRNSt6__ndk112basic_stringIcNS2_11char_traitsIcEENS2_9allocatorIcEEEEQsr4implE18IsStringStreamableIT_EEENS_4impl6ErrTagEOSA_
PUBLIC 2229c 0 std::__ndk1::__variant_detail::__visitation::__base::__dispatcher<(unsigned long)0>::__dispatch[abi:ne190000]<std::__ndk1::__variant_detail::__dtor<std::__ndk1::__variant_detail::__traits<void*, std::__ndk1::basic_string<char, std::__ndk1::char_traits<char>, std::__ndk1::allocator<char> > >, (std::__ndk1::__variant_detail::_Trait)1>::__destroy[abi:ne190000]()::{lambda(auto:1&)#1}, std::__ndk1::__variant_detail::__base<(std::__ndk1::__variant_detail::__traits<void*, std::__ndk1::basic_string<char, std::__ndk1::char_traits<char>, std::__ndk1::allocator<char> > >)1, std::__ndk1::__variant_detail::__traits, std::__ndk1::allocator<char> >&>(std::__ndk1::__variant_detail::__dtor<std::__ndk1::__variant_detail::__traits<void*, std::__ndk1::basic_string<char, std::__ndk1::char_traits<char>, std::__ndk1::allocator<char> > >, (std::__ndk1::__variant_detail::_Trait)1>, std::__ndk1::__variant_detail::__base<(std::__ndk1::__variant_detail::__traits<void*, std::__ndk1::basic_string<char, std::__ndk1::char_traits<char>, std::__ndk1::allocator<char> > >)1, std::__ndk1::__variant_detail::__traits, std::__ndk1::allocator<char> >&)
PUBLIC 222a0 0 std::__ndk1::__variant_detail::__visitation::__base::__dispatcher<(unsigned long)1>::__dispatch[abi:ne190000]<std::__ndk1::__variant_detail::__dtor<std::__ndk1::__variant_detail::__traits<void*, std::__ndk1::basic_string<char, std::__ndk1::char_traits<char>, std::__ndk1::allocator<char> > >, (std::__ndk1::__variant_detail::_Trait)1>::__destroy[abi:ne190000]()::{lambda(auto:1&)#1}, std::__ndk1::__variant_detail::__base<(std::__ndk1::__variant_detail::__traits<void*, std::__ndk1::basic_string<char, std::__ndk1::char_traits<char>, std::__ndk1::allocator<char> > >)1, std::__ndk1::__variant_detail::__traits, std::__ndk1::allocator<char> >&>(std::__ndk1::__variant_detail::__dtor<std::__ndk1::__variant_detail::__traits<void*, std::__ndk1::basic_string<char, std::__ndk1::char_traits<char>, std::__ndk1::allocator<char> > >, (std::__ndk1::__variant_detail::_Trait)1>, std::__ndk1::__variant_detail::__base<(std::__ndk1::__variant_detail::__traits<void*, std::__ndk1::basic_string<char, std::__ndk1::char_traits<char>, std::__ndk1::allocator<char> > >)1, std::__ndk1::__variant_detail::__traits, std::__ndk1::allocator<char> >&)
PUBLIC 222b4 0 std::__ndk1::__hash_table<std::__ndk1::__hash_value_type<void*, bool>, std::__ndk1::__unordered_map_hasher<void*, std::__ndk1::__hash_value_type<void*, bool>, std::__ndk1::hash<void*>, std::__ndk1::equal_to<void*>, true>, std::__ndk1::__unordered_map_equal<void*, std::__ndk1::__hash_value_type<void*, bool>, std::__ndk1::equal_to<void*>, std::__ndk1::hash<void*>, true>, std::__ndk1::allocator<std::__ndk1::__hash_value_type<void*, bool> > >::__emplace_unique_key_args<void*, std::__ndk1::piecewise_construct_t const&, std::__ndk1::tuple<void* const&>, std::__ndk1::tuple<> >(void* const&, std::__ndk1::piecewise_construct_t const&, std::__ndk1::tuple<void* const&>, std::__ndk1::tuple<>)
PUBLIC 22794 0 __udivti3
PUBLIC 227a0 0 __udivmodti4
PUBLIC m 229ec 0 __eqtf2
PUBLIC 22a8c 0 __unordtf2
PUBLIC 22ac4 0 fmt::v11::detail::write_loc(fmt::v11::basic_appender<char>, fmt::v11::loc_value, fmt::v11::format_specs const&, fmt::v11::detail::locale_ref)
PUBLIC 22d58 0 fmt::v11::format_facet<std::__ndk1::locale>::~format_facet()
PUBLIC 22dd4 0 fmt::v11::report_error(char const*)
PUBLIC 22e24 0 fmt::v11::format_error::runtime_error(char const*)
PUBLIC 22e50 0 fmt::v11::format_facet<std::__ndk1::locale>::do_put(fmt::v11::basic_appender<char>, fmt::v11::loc_value, fmt::v11::format_specs const&) const
PUBLIC 23610 0 fmt::v11::detail::loc_writer<char>::~loc_writer()
PUBLIC 23674 0 fmt::v11::vformat(fmt::v11::basic_string_view<char>, fmt::v11::basic_format_args<fmt::v11::context>)
PUBLIC 237c0 0 fmt::v11::detail::vformat_to<char>(fmt::v11::detail::buffer<char>&, fmt::v11::basic_string_view<char>, fmt::v11::detail::vformat_args<char>::type, fmt::v11::detail::locale_ref)
PUBLIC 23d30 0 fmt::v11::detail::is_printable(unsigned int)
PUBLIC 23f58 0 fmt::v11::detail::dragonbox::to_decimal<float>(float)
PUBLIC 24234 0 fmt::v11::detail::dragonbox::to_decimal<double>(double)
PUBLIC 24770 0 fmt::v11::basic_memory_buffer<char, (unsigned long)500, std::__ndk1::allocator<char> >::grow(fmt::v11::detail::buffer<char>&, unsigned long)
PUBLIC 247e8 0 fmt::v11::format_facet<std::__ndk1::locale>::~format_facet()
PUBLIC 24874 0 fmt::v11::format_error::~format_error()
PUBLIC 24898 0 fmt::v11::detail::copy_noinline<char, char const*, fmt::v11::basic_appender<char> >(char const*, char const*, fmt::v11::basic_appender<char>)
PUBLIC 249e8 0 fmt::v11::detail::default_arg_formatter<char>::operator()<bool>(bool)
PUBLIC 24a50 0 fmt::v11::detail::default_arg_formatter<char>::operator()<char>(char)
PUBLIC 24ae0 0 fmt::v11::detail::default_arg_formatter<char>::operator()<float>(float)
PUBLIC 24bcc 0 fmt::v11::detail::default_arg_formatter<char>::operator()<double>(double)
PUBLIC 24cb8 0 fmt::v11::detail::default_arg_formatter<char>::operator()<char const*>(char const*)
PUBLIC 24d00 0 fmt::v11::detail::default_arg_formatter<char>::operator()<void const*>(void const*)
PUBLIC 24d98 0 _ZN3fmt3v116detail5writeIcNS0_14basic_appenderIcEEiTnNSt6__ndk19enable_ifIXaaaasr11is_integralIT1_EE5valuentsr3std7is_sameIS7_bEE5valuentsr3std7is_sameIS7_T_EE5valueEiE4typeELi0EEET0_SB_S7_
PUBLIC 24ff8 0 fmt::v11::detail::copy_noinline<char, char*, fmt::v11::basic_appender<char> >(char*, char*, fmt::v11::basic_appender<char>)
PUBLIC 25148 0 _ZN3fmt3v116detail5writeIcNS0_14basic_appenderIcEEjTnNSt6__ndk19enable_ifIXaaaasr11is_integralIT1_EE5valuentsr3std7is_sameIS7_bEE5valuentsr3std7is_sameIS7_T_EE5valueEiE4typeELi0EEET0_SB_S7_
PUBLIC 25328 0 _ZN3fmt3v116detail5writeIcNS0_14basic_appenderIcEExTnNSt6__ndk19enable_ifIXaaaasr11is_integralIT1_EE5valuentsr3std7is_sameIS7_bEE5valuentsr3std7is_sameIS7_T_EE5valueEiE4typeELi0EEET0_SB_S7_
PUBLIC 255ac 0 _ZN3fmt3v116detail5writeIcNS0_14basic_appenderIcEEyTnNSt6__ndk19enable_ifIXaaaasr11is_integralIT1_EE5valuentsr3std7is_sameIS7_bEE5valuentsr3std7is_sameIS7_T_EE5valueEiE4typeELi0EEET0_SB_S7_
PUBLIC 257b4 0 _ZN3fmt3v116detail5writeIcNS0_14basic_appenderIcEEnTnNSt6__ndk19enable_ifIXaaaasr11is_integralIT1_EE5valuentsr3std7is_sameIS7_bEE5valuentsr3std7is_sameIS7_T_EE5valueEiE4typeELi0EEET0_SB_S7_
PUBLIC 25b14 0 _ZN3fmt3v116detail5writeIcNS0_14basic_appenderIcEEoTnNSt6__ndk19enable_ifIXaaaasr11is_integralIT1_EE5valuentsr3std7is_sameIS7_bEE5valuentsr3std7is_sameIS7_T_EE5valueEiE4typeELi0EEET0_SB_S7_
PUBLIC 25e28 0 _ZN3fmt3v116detail5writeIcNS0_14basic_appenderIcEEbTnNSt6__ndk19enable_ifIXsr3std7is_sameIT1_bEE5valueEiE4typeELi0EEET0_SA_S7_RKNS0_12format_specsENS1_10locale_refE
PUBLIC 260b8 0 fmt::v11::detail::write_int_noinline<char, fmt::v11::basic_appender<char>, unsigned int>(fmt::v11::basic_appender<char>, fmt::v11::detail::write_int_arg<unsigned int>, fmt::v11::format_specs const&, fmt::v11::detail::locale_ref)
PUBLIC 26e80 0 fmt::v11::detail::fill<char, fmt::v11::basic_appender<char> >(fmt::v11::basic_appender<char>, unsigned long, fmt::v11::detail::fill_t const&)
PUBLIC 27050 0 fmt::v11::detail::write_padded<char, (fmt::v11::align::type)1, fmt::v11::basic_appender<char>, fmt::v11::detail::write_char<char, fmt::v11::basic_appender<char> >(fmt::v11::basic_appender<char>, char, fmt::v11::format_specs const&)::{lambda(fmt::v11::basic_appender<char>&)#1}>(fmt::v11::basic_appender<char>, fmt::v11::format_specs const&, unsigned long, unsigned long, fmt::v11::detail::write_char<char, fmt::v11::basic_appender<char> >(fmt::v11::basic_appender<char>, char, fmt::v11::format_specs const&)::{lambda(fmt::v11::basic_appender<char>&)#1})
PUBLIC 2728c 0 fmt::v11::detail::write_escaped_cp<fmt::v11::basic_appender<char>, char>(fmt::v11::basic_appender<char>, fmt::v11::detail::find_escape_result<char> const&)
PUBLIC 27598 0 fmt::v11::detail::write_codepoint<(unsigned long)2, char, fmt::v11::basic_appender<char> >(fmt::v11::basic_appender<char>, char, unsigned int)
PUBLIC 27710 0 fmt::v11::detail::write_codepoint<(unsigned long)8, char, fmt::v11::basic_appender<char> >(fmt::v11::basic_appender<char>, char, unsigned int)
PUBLIC 27888 0 fmt::v11::detail::write_padded<char, (fmt::v11::align::type)1, fmt::v11::basic_appender<char>, fmt::v11::detail::write_nonfinite<char, fmt::v11::basic_appender<char> >(fmt::v11::basic_appender<char>, bool, fmt::v11::format_specs, fmt::v11::sign::type)::{lambda(fmt::v11::basic_appender<char>&)#1}>(fmt::v11::basic_appender<char>, fmt::v11::format_specs const&, unsigned long, unsigned long, fmt::v11::detail::write_nonfinite<char, fmt::v11::basic_appender<char> >(fmt::v11::basic_appender<char>, bool, fmt::v11::format_specs, fmt::v11::sign::type)::{lambda(fmt::v11::basic_appender<char>&)#1})
PUBLIC 27ac8 0 fmt::v11::detail::do_write_float<char, fmt::v11::basic_appender<char>, fmt::v11::detail::dragonbox::decimal_fp<float>, fmt::v11::detail::digit_grouping<char> >(fmt::v11::basic_appender<char>, fmt::v11::detail::dragonbox::decimal_fp<float> const&, fmt::v11::format_specs const&, fmt::v11::detail::float_specs, fmt::v11::detail::locale_ref)
PUBLIC 2873c 0 fmt::v11::detail::do_write_float<char, fmt::v11::basic_appender<char>, fmt::v11::detail::dragonbox::decimal_fp<float>, fmt::v11::detail::digit_grouping<char> >(fmt::v11::basic_appender<char>, fmt::v11::detail::dragonbox::decimal_fp<float> const&, fmt::v11::format_specs const&, fmt::v11::detail::float_specs, fmt::v11::detail::locale_ref)::{lambda(fmt::v11::basic_appender<char>(fmt::v11::basic_appender<char>))#1}::operator() const
PUBLIC 28890 0 fmt::v11::detail::digit_grouping<char>::digit_grouping(fmt::v11::detail::locale_ref, bool)
PUBLIC 28af8 0 fmt::v11::detail::digit_grouping<char>::~digit_grouping()
PUBLIC 28b3c 0 fmt::v11::detail::write_exponent<char, fmt::v11::basic_appender<char> >(int, fmt::v11::basic_appender<char>)
PUBLIC 28d0c 0 _ZN3fmt3v116detail17write_significandIcjTnNSt6__ndk19enable_ifIXsr3std11is_integralIT0_EE5valueEiE4typeELi0EEEPT_S9_S5_iiS8_
PUBLIC 28e88 0 std::__ndk1::basic_string<char, std::__ndk1::char_traits<char>, std::__ndk1::allocator<char> >::__assign_no_alias<true>(char const*, unsigned long)
PUBLIC 28f34 0 std::__ndk1::basic_string<char, std::__ndk1::char_traits<char>, std::__ndk1::allocator<char> >::__assign_no_alias<false>(char const*, unsigned long)
PUBLIC 29070 0 fmt::v11::detail::digit_grouping<char>::apply<fmt::v11::basic_appender<char>, char>(fmt::v11::basic_appender<char>, fmt::v11::basic_string_view<char>) const
PUBLIC 29428 0 fmt::v11::basic_memory_buffer<int, (unsigned long)500, std::__ndk1::allocator<int> >::grow(fmt::v11::detail::buffer<int>&, unsigned long)
PUBLIC 294c8 0 fmt::v11::detail::do_write_float<char, fmt::v11::basic_appender<char>, fmt::v11::detail::dragonbox::decimal_fp<double>, fmt::v11::detail::digit_grouping<char> >(fmt::v11::basic_appender<char>, fmt::v11::detail::dragonbox::decimal_fp<double> const&, fmt::v11::format_specs const&, fmt::v11::detail::float_specs, fmt::v11::detail::locale_ref)
PUBLIC 2a178 0 fmt::v11::detail::do_write_float<char, fmt::v11::basic_appender<char>, fmt::v11::detail::dragonbox::decimal_fp<double>, fmt::v11::detail::digit_grouping<char> >(fmt::v11::basic_appender<char>, fmt::v11::detail::dragonbox::decimal_fp<double> const&, fmt::v11::format_specs const&, fmt::v11::detail::float_specs, fmt::v11::detail::locale_ref)::{lambda(fmt::v11::basic_appender<char>(fmt::v11::basic_appender<char>))#1}::operator() const
PUBLIC 2a2d0 0 _ZN3fmt3v116detail17write_significandIcmTnNSt6__ndk19enable_ifIXsr3std11is_integralIT0_EE5valueEiE4typeELi0EEEPT_S9_S5_iiS8_
PUBLIC 2a460 0 fmt::v11::detail::write_float<char, fmt::v11::basic_appender<char>, long double>(fmt::v11::basic_appender<char>, long double, fmt::v11::format_specs, fmt::v11::detail::locale_ref)
PUBLIC 2af44 0 fmt::v11::detail::write_padded<char, (fmt::v11::align::type)2, fmt::v11::basic_appender<char>, fmt::v11::detail::write_bytes<char, (fmt::v11::align::type)2, fmt::v11::basic_appender<char> >(fmt::v11::basic_appender<char>, fmt::v11::basic_string_view<char>, fmt::v11::format_specs const&)::{lambda(fmt::v11::basic_appender<char>&)#1}>(fmt::v11::basic_appender<char>, fmt::v11::format_specs const&, unsigned long, unsigned long, fmt::v11::detail::write_bytes<char, (fmt::v11::align::type)2, fmt::v11::basic_appender<char> >(fmt::v11::basic_appender<char>, fmt::v11::basic_string_view<char>, fmt::v11::format_specs const&)::{lambda(fmt::v11::basic_appender<char>&)#1})
PUBLIC 2b120 0 fmt::v11::detail::format_dragon(fmt::v11::detail::basic_fp<unsigned __int128>, unsigned int, int, fmt::v11::detail::buffer<char>&, int&)
PUBLIC 2c544 0 fmt::v11::detail::bigint::operator<<=(int)
PUBLIC 2c668 0 fmt::v11::detail::bigint::assign_pow10(int)
PUBLIC 2cdc4 0 fmt::v11::detail::bigint::divmod_assign(fmt::v11::detail::bigint const&)
PUBLIC 2d0e8 0 fmt::v11::basic_memory_buffer<unsigned int, (unsigned long)32, std::__ndk1::allocator<unsigned int> >::grow(fmt::v11::detail::buffer<unsigned int>&, unsigned long)
PUBLIC 2d188 0 fmt::v11::detail::do_write_float<char, fmt::v11::basic_appender<char>, fmt::v11::detail::big_decimal_fp, fmt::v11::detail::digit_grouping<char> >(fmt::v11::basic_appender<char>, fmt::v11::detail::big_decimal_fp const&, fmt::v11::format_specs const&, fmt::v11::detail::float_specs, fmt::v11::detail::locale_ref)
PUBLIC 2e034 0 fmt::v11::detail::do_write_float<char, fmt::v11::basic_appender<char>, fmt::v11::detail::big_decimal_fp, fmt::v11::detail::digit_grouping<char> >(fmt::v11::basic_appender<char>, fmt::v11::detail::big_decimal_fp const&, fmt::v11::format_specs const&, fmt::v11::detail::float_specs, fmt::v11::detail::locale_ref)::{lambda(fmt::v11::basic_appender<char>(fmt::v11::basic_appender<char>))#1}::operator() const
PUBLIC 2e194 0 fmt::v11::detail::write_padded<char, (fmt::v11::align::type)2, fmt::v11::basic_appender<char>, fmt::v11::detail::write_ptr<char, fmt::v11::basic_appender<char>, unsigned long>(fmt::v11::basic_appender<char>, unsigned long, fmt::v11::format_specs const*)::{lambda(fmt::v11::basic_appender<char>&)#1}>(fmt::v11::basic_appender<char>, fmt::v11::format_specs const&, unsigned long, unsigned long, fmt::v11::detail::write_ptr<char, fmt::v11::basic_appender<char>, unsigned long>(fmt::v11::basic_appender<char>, unsigned long, fmt::v11::format_specs const*)::{lambda(fmt::v11::basic_appender<char>&)#1})
PUBLIC 2e3a8 0 fmt::v11::detail::parse_replacement_field<char, fmt::v11::detail::vformat_to<char>(fmt::v11::detail::buffer<char>&, fmt::v11::basic_string_view<char>, fmt::v11::detail::vformat_args<char>::type, fmt::v11::detail::locale_ref)::format_handler&>(char const*, char const*, fmt::v11::detail::vformat_to<char>(fmt::v11::detail::buffer<char>&, fmt::v11::basic_string_view<char>, fmt::v11::detail::vformat_args<char>::type, fmt::v11::detail::locale_ref)::format_handler&)
PUBLIC 3000c 0 fmt::v11::detail::parse_dynamic_spec<char>(char const*, char const*, int&, fmt::v11::detail::arg_ref<char>&, fmt::v11::basic_format_parse_context<char>&)
PUBLIC 3029c 0 fmt::v11::basic_format_args<fmt::v11::context>::get<char>(fmt::v11::basic_string_view<char>) const
PUBLIC 303d0 0 fmt::v11::detail::write_int_noinline<char, fmt::v11::basic_appender<char>, unsigned long>(fmt::v11::basic_appender<char>, fmt::v11::detail::write_int_arg<unsigned long>, fmt::v11::format_specs const&, fmt::v11::detail::locale_ref)
PUBLIC 3121c 0 fmt::v11::detail::write_int_noinline<char, fmt::v11::basic_appender<char>, unsigned __int128>(fmt::v11::basic_appender<char>, fmt::v11::detail::write_int_arg<unsigned __int128>, fmt::v11::format_specs const&, fmt::v11::detail::locale_ref)
PUBLIC 32284 0 _ZN3fmt3v116detail15format_hexfloatIdTnNSt6__ndk19enable_ifIXntsr16is_double_doubleIT_EE5valueEiE4typeELi0EEEvS5_NS0_12format_specsERNS1_6bufferIcEE
PUBLIC 327a4 0 fmt::v11::detail::format_float<double>(double, int, fmt::v11::detail::float_specs, fmt::v11::detail::buffer<char>&)
PUBLIC 331f0 0 fmt::v11::detail::write<char, fmt::v11::basic_appender<char> >(fmt::v11::basic_appender<char>, fmt::v11::basic_string_view<char>, fmt::v11::format_specs const&)
PUBLIC 344cc 0 fmt::v11::detail::for_each_codepoint<fmt::v11::detail::compute_width(fmt::v11::basic_string_view<char>)::count_code_points>(fmt::v11::basic_string_view<char>, fmt::v11::detail::compute_width(fmt::v11::basic_string_view<char>)::count_code_points)::{lambda(char const*, char const*)#1}::operator()(char const*, char const*) const
PUBLIC 34684 0 fmt::v11::detail::write_int<fmt::v11::basic_appender<char>, unsigned long, char>(fmt::v11::basic_appender<char>, unsigned long, unsigned int, fmt::v11::format_specs const&, fmt::v11::detail::digit_grouping<char> const&)
PUBLIC 34c00 0 fmt::v11::detail::write_int<fmt::v11::basic_appender<char>, unsigned __int128, char>(fmt::v11::basic_appender<char>, unsigned __int128, unsigned int, fmt::v11::format_specs const&, fmt::v11::detail::digit_grouping<char> const&)
PUBLIC 35280 0 <.plt ELF section in hbg1010.iconsteal.android64.so>
STACK CFI INIT 16c30 10 .cfa: sp 0 +
STACK CFI INIT 16c40 8 .cfa: sp 0 +
STACK CFI INIT 16c48 8 .cfa: sp 0 +
STACK CFI INIT 16c50 14 .cfa: sp 0 +
STACK CFI INIT 16c64 1c .cfa: sp 0 +
STACK CFI INIT 16c80 10 .cfa: sp 0 +
STACK CFI INIT 16c90 134 .cfa: sp 0 +
STACK CFI INIT 16dc4 84 .cfa: sp 0 +
STACK CFI INIT 16e48 f4 .cfa: sp 0 +
STACK CFI INIT 16f3c a8 .cfa: sp 0 +
STACK CFI INIT 16fe4 7c .cfa: sp 0 +
STACK CFI INIT 17060 14 .cfa: sp 0 +
STACK CFI INIT 17074 40 .cfa: sp 0 +
STACK CFI INIT 170b4 28 .cfa: sp 0 +
STACK CFI INIT 170dc 190 .cfa: sp 0 +
STACK CFI INIT 1726c 2c8 .cfa: sp 0 +
STACK CFI INIT 17534 8 .cfa: sp 0 +
STACK CFI INIT 1753c 8 .cfa: sp 0 +
STACK CFI INIT 17544 44 .cfa: sp 0 +
STACK CFI INIT 17588 e8 .cfa: sp 0 +
STACK CFI INIT 17670 e8 .cfa: sp 0 +
STACK CFI INIT 17758 14 .cfa: sp 0 +
STACK CFI INIT 1776c 10 .cfa: sp 0 +
STACK CFI INIT 1777c 10 .cfa: sp 0 +
STACK CFI INIT 1778c f0 .cfa: sp 0 +
STACK CFI INIT 1787c 44 .cfa: sp 0 +
STACK CFI INIT 178c0 c .cfa: sp 0 +
STACK CFI INIT 178cc c .cfa: sp 0 +
STACK CFI INIT 178d8 2c .cfa: sp 0 +
STACK CFI INIT 17904 23c .cfa: sp 0 +
STACK CFI INIT 17b40 c .cfa: sp 0 +
STACK CFI INIT 17b4c 120 .cfa: sp 0 +
STACK CFI INIT 17c6c 494 .cfa: sp 0 +
STACK CFI INIT 18100 b78 .cfa: sp 0 +
STACK CFI INIT 18c78 134 .cfa: sp 0 +
STACK CFI INIT 18dac 210 .cfa: sp 0 +
STACK CFI INIT 18fbc 38c .cfa: sp 0 +
STACK CFI INIT 19348 1c8 .cfa: sp 0 +
STACK CFI INIT 19510 9c4 .cfa: sp 0 +
STACK CFI INIT 19ed4 2d4 .cfa: sp 0 +
STACK CFI INIT 1a1a8 130 .cfa: sp 0 +
STACK CFI INIT 1a2d8 120 .cfa: sp 0 +
STACK CFI INIT 1a3f8 1c8 .cfa: sp 0 +
STACK CFI INIT 1a5c0 168 .cfa: sp 0 +
STACK CFI INIT 1a728 fc .cfa: sp 0 +
STACK CFI INIT 1a824 30 .cfa: sp 0 +
STACK CFI INIT 1a980 30 .cfa: sp 0 +
STACK CFI INIT 1a9b0 98 .cfa: sp 0 +
STACK CFI INIT 1aa48 2ac .cfa: sp 0 +
STACK CFI INIT 1acf4 8c .cfa: sp 0 +
STACK CFI INIT 1ad80 30 .cfa: sp 0 +
STACK CFI INIT 1c500 1c8 .cfa: sp 0 +
STACK CFI 1c504 .cfa: sp 64 +
STACK CFI 1c514 .cfa: x29 48 + x19: .cfa -8 + ^ x20: .cfa -16 + ^ x21: .cfa -32 + ^ .ra: .cfa -40 + ^ x29: .cfa -48 + ^
STACK CFI 1c6b0 .cfa: sp 64 +
STACK CFI 1c6c0 .cfa: sp 0 +
STACK CFI 1c6c4 .cfa: x29 48 +
STACK CFI INIT 1cca8 8 .cfa: sp 0 +
STACK CFI INIT 1cd24 2c .cfa: sp 0 +
STACK CFI 1cd28 .cfa: sp 32 +
STACK CFI 1cd30 .cfa: x29 32 + x19: .cfa -16 + ^ .ra: .cfa -24 + ^ x29: .cfa -32 + ^
STACK CFI 1cd44 .cfa: sp 32 +
STACK CFI 1cd4c .cfa: sp 0 +
STACK CFI INIT 1cd50 28 .cfa: sp 0 +
STACK CFI INIT 1cd78 4 .cfa: sp 0 +
STACK CFI INIT 1cd7c 8 .cfa: sp 0 +
STACK CFI INIT 1ce64 2c .cfa: sp 0 +
STACK CFI INIT 1ce90 4 .cfa: sp 0 +
STACK CFI INIT 1ce94 4 .cfa: sp 0 +
STACK CFI INIT 1ce98 4 .cfa: sp 0 +
STACK CFI INIT 1ce9c 4 .cfa: sp 0 +
STACK CFI INIT 1cea0 4 .cfa: sp 0 +
STACK CFI INIT 1cea4 8 .cfa: sp 0 +
STACK CFI INIT 1ceac 4 .cfa: sp 0 +
STACK CFI INIT 1cf1c 4 .cfa: sp 0 +
STACK CFI INIT 1cf20 10 .cfa: sp 0 +
STACK CFI 1cf24 .cfa: sp 16 +
STACK CFI 1cf28 .cfa: x29 16 + .ra: .cfa -8 + ^ x29: .cfa -16 + ^
STACK CFI INIT 1cf30 14 .cfa: sp 0 +
STACK CFI 1cf34 .cfa: sp 16 +
STACK CFI 1cf38 .cfa: x29 16 + .ra: .cfa -8 + ^ x29: .cfa -16 + ^
STACK CFI INIT 1cf94 30 .cfa: sp 0 +
STACK CFI 1cf98 .cfa: sp 32 +
STACK CFI 1cfa0 .cfa: x29 32 + x19: .cfa -16 + ^ .ra: .cfa -24 + ^ x29: .cfa -32 + ^
STACK CFI 1cfb8 .cfa: sp 32 +
STACK CFI 1cfc0 .cfa: sp 0 +
STACK CFI INIT 1cfc4 c .cfa: sp 0 +
STACK CFI 1cfc8 .cfa: sp 16 +
STACK CFI 1cfcc .cfa: x29 16 + .ra: .cfa -8 + ^ x29: .cfa -16 + ^
STACK CFI INIT 1d020 30 .cfa: sp 0 +
STACK CFI 1d024 .cfa: sp 32 +
STACK CFI 1d02c .cfa: x29 32 + x19: .cfa -16 + ^ .ra: .cfa -24 + ^ x29: .cfa -32 + ^
STACK CFI 1d044 .cfa: sp 32 +
STACK CFI 1d04c .cfa: sp 0 +
STACK CFI INIT 1d050 310 .cfa: sp 0 +
STACK CFI 1d054 .cfa: sp 128 +
STACK CFI 1d06c .cfa: x29 64 + x19: .cfa -8 + ^ x20: .cfa -16 + ^ x21: .cfa -24 + ^ x22: .cfa -32 + ^ x23: .cfa -40 + ^ x24: .cfa -48 + ^ .ra: .cfa -56 + ^ x29: .cfa -64 + ^ v8: .cfa -72 + ^ v9: .cfa -80 + ^
STACK CFI 1d2a4 .cfa: sp 128 +
STACK CFI 1d2bc .cfa: sp 0 +
STACK CFI 1d2c0 .cfa: x29 64 +
STACK CFI INIT 1d360 104 .cfa: sp 0 +
STACK CFI 1d364 .cfa: sp 64 +
STACK CFI 1d374 .cfa: x29 64 + x19: .cfa -8 + ^ x20: .cfa -16 + ^ x21: .cfa -24 + ^ x22: .cfa -32 + ^ x23: .cfa -48 + ^ .ra: .cfa -56 + ^ x29: .cfa -64 + ^
STACK CFI 1d3d0 .cfa: sp 64 +
STACK CFI 1d3e0 .cfa: sp 0 +
STACK CFI 1d3e4 .cfa: x29 64 +
STACK CFI 1d400 .cfa: sp 64 +
STACK CFI 1d410 .cfa: sp 0 +
STACK CFI 1d414 .cfa: x29 64 +
STACK CFI 1d450 .cfa: sp 64 +
STACK CFI 1d460 .cfa: sp 0 +
STACK CFI INIT 1d464 60 .cfa: sp 0 +
STACK CFI 1d468 .cfa: sp 32 +
STACK CFI 1d470 .cfa: x29 32 + x19: .cfa -8 + ^ x20: .cfa -16 + ^ .ra: .cfa -24 + ^ x29: .cfa -32 + ^
STACK CFI 1d490 .cfa: sp 32 +
STACK CFI 1d498 .cfa: sp 0 +
STACK CFI 1d49c .cfa: x29 32 +
STACK CFI 1d4b8 .cfa: sp 32 +
STACK CFI 1d4c0 .cfa: sp 0 +
STACK CFI INIT 1d4c4 70 .cfa: sp 0 +
STACK CFI 1d4c8 .cfa: sp 32 +
STACK CFI 1d4d0 .cfa: x29 32 + x19: .cfa -8 + ^ x20: .cfa -16 + ^ .ra: .cfa -24 + ^ x29: .cfa -32 + ^
STACK CFI 1d4f8 .cfa: sp 32 +
STACK CFI 1d500 .cfa: sp 0 +
STACK CFI 1d504 .cfa: x29 32 +
STACK CFI 1d528 .cfa: sp 32 +
STACK CFI 1d530 .cfa: sp 0 +
STACK CFI INIT 1d534 10 .cfa: sp 0 +
STACK CFI INIT 1d544 30 .cfa: sp 0 +
STACK CFI 1d548 .cfa: sp 32 +
STACK CFI 1d550 .cfa: x29 32 + x19: .cfa -16 + ^ .ra: .cfa -24 + ^ x29: .cfa -32 + ^
STACK CFI 1d568 .cfa: sp 32 +
STACK CFI 1d570 .cfa: sp 0 +
STACK CFI INIT 1d574 4 .cfa: sp 0 +
STACK CFI INIT 1d578 4 .cfa: sp 0 +
STACK CFI INIT 1e0d4 18 .cfa: sp 0 +
STACK CFI INIT 1e55c 50 .cfa: sp 0 +
STACK CFI 1e560 .cfa: sp 32 +
STACK CFI 1e568 .cfa: x29 32 + x19: .cfa -16 + ^ .ra: .cfa -24 + ^ x29: .cfa -32 + ^
STACK CFI 1e580 .cfa: sp 32 +
STACK CFI 1e588 .cfa: sp 0 +
STACK CFI 1e58c .cfa: x29 32 +
STACK CFI 1e5a0 .cfa: sp 32 +
STACK CFI 1e5a8 .cfa: sp 0 +
STACK CFI INIT 1e620 7c .cfa: sp 0 +
STACK CFI 1e624 .cfa: sp 48 +
STACK CFI 1e630 .cfa: x29 48 + x19: .cfa -8 + ^ x20: .cfa -16 + ^ x21: .cfa -32 + ^ .ra: .cfa -40 + ^ x29: .cfa -48 + ^
STACK CFI 1e67c .cfa: sp 48 +
STACK CFI 1e688 .cfa: sp 0 +
STACK CFI 1e68c .cfa: sp 48 +
STACK CFI 1e698 .cfa: sp 0 +
STACK CFI INIT 1e69c 4 .cfa: sp 0 +
STACK CFI INIT 1e7f4 34 .cfa: sp 0 +
STACK CFI 1e7f8 .cfa: sp 16 +
STACK CFI 1e7fc .cfa: x29 16 + .ra: .cfa -8 + ^ x29: .cfa -16 + ^
STACK CFI INIT 1e95c 80 .cfa: sp 0 +
STACK CFI 1e960 .cfa: sp 48 +
STACK CFI 1e96c .cfa: x29 48 + x19: .cfa -8 + ^ x20: .cfa -16 + ^ x21: .cfa -32 + ^ .ra: .cfa -40 + ^ x29: .cfa -48 + ^
STACK CFI 1e9cc .cfa: sp 48 +
STACK CFI 1e9d8 .cfa: sp 0 +
STACK CFI INIT 1e9dc 24 .cfa: sp 0 +
STACK CFI 1e9e0 .cfa: sp 32 +
STACK CFI 1e9e8 .cfa: x29 32 + x19: .cfa -16 + ^ .ra: .cfa -24 + ^ x29: .cfa -32 + ^
STACK CFI 1e9f4 .cfa: sp 32 +
STACK CFI 1e9fc .cfa: sp 0 +
STACK CFI INIT 1ed90 34 .cfa: sp 0 +
STACK CFI 1ed94 .cfa: sp 32 +
STACK CFI 1ed9c .cfa: x29 32 + x19: .cfa -16 + ^ .ra: .cfa -24 + ^ x29: .cfa -32 + ^
STACK CFI INIT 1ef34 148 .cfa: sp 0 +
STACK CFI 1ef38 .cfa: sp 48 +
STACK CFI 1ef44 .cfa: x29 48 + x19: .cfa -8 + ^ x20: .cfa -16 + ^ x21: .cfa -32 + ^ .ra: .cfa -40 + ^ x29: .cfa -48 + ^
STACK CFI 1f06c .cfa: sp 48 +
STACK CFI 1f078 .cfa: sp 0 +
STACK CFI INIT 1f07c 88 .cfa: sp 0 +
STACK CFI 1f084 .cfa: sp 48 +
STACK CFI 1f090 .cfa: x29 48 + x19: .cfa -8 + ^ x20: .cfa -16 + ^ x21: .cfa -24 + ^ x22: .cfa -32 + ^ .ra: .cfa -40 + ^ x29: .cfa -48 + ^
STACK CFI 1f0f4 .cfa: sp 48 +
STACK CFI 1f100 .cfa: sp 0 +
STACK CFI INIT 1f104 94 .cfa: sp 0 +
STACK CFI 1f108 .cfa: sp 48 +
STACK CFI 1f114 .cfa: x29 48 + x19: .cfa -8 + ^ x20: .cfa -16 + ^ x21: .cfa -24 + ^ x22: .cfa -32 + ^ .ra: .cfa -40 + ^ x29: .cfa -48 + ^
STACK CFI 1f12c .cfa: sp 48 +
STACK CFI 1f138 .cfa: sp 0 +
STACK CFI 1f13c .cfa: x29 48 +
STACK CFI 1f180 .cfa: sp 48 +
STACK CFI 1f18c .cfa: sp 0 +
STACK CFI 1f190 .cfa: x29 48 +
STACK CFI INIT 1f198 68 .cfa: sp 0 +
STACK CFI 1f19c .cfa: sp 32 +
STACK CFI 1f1a4 .cfa: x29 32 + x19: .cfa -8 + ^ x20: .cfa -16 + ^ .ra: .cfa -24 + ^ x29: .cfa -32 + ^
STACK CFI 1f1bc .cfa: sp 32 +
STACK CFI 1f1c4 .cfa: sp 0 +
STACK CFI 1f1c8 .cfa: x29 32 +
STACK CFI 1f1f4 .cfa: sp 32 +
STACK CFI 1f1fc .cfa: sp 0 +
STACK CFI INIT 1f200 14 .cfa: sp 0 +
STACK CFI 1f204 .cfa: sp 16 +
STACK CFI 1f208 .cfa: x29 16 + .ra: .cfa -8 + ^ x29: .cfa -16 + ^
STACK CFI INIT 1f214 4 .cfa: sp 0 +
STACK CFI INIT 1f218 14 .cfa: sp 0 +
STACK CFI INIT 1f22c 84 .cfa: sp 0 +
STACK CFI 1f234 .cfa: sp 32 +
STACK CFI 1f23c .cfa: x29 32 + x19: .cfa -8 + ^ x20: .cfa -16 + ^ .ra: .cfa -24 + ^ x29: .cfa -32 + ^
STACK CFI 1f27c .cfa: sp 32 +
STACK CFI 1f284 .cfa: sp 0 +
STACK CFI 1f28c .cfa: x29 32 +
STACK CFI INIT 1f554 50 .cfa: sp 0 +
STACK CFI 1f558 .cfa: sp 32 +
STACK CFI 1f560 .cfa: x29 32 + x19: .cfa -16 + ^ .ra: .cfa -24 + ^ x29: .cfa -32 + ^
STACK CFI 1f578 .cfa: sp 32 +
STACK CFI 1f580 .cfa: sp 0 +
STACK CFI 1f584 .cfa: x29 32 +
STACK CFI 1f598 .cfa: sp 32 +
STACK CFI 1f5a0 .cfa: sp 0 +
STACK CFI INIT 1f5a4 64 .cfa: sp 0 +
STACK CFI 1f5a8 .cfa: sp 32 +
STACK CFI 1f5b0 .cfa: x29 32 + x19: .cfa -16 + ^ .ra: .cfa -24 + ^ x29: .cfa -32 + ^
STACK CFI 1f5dc .cfa: sp 32 +
STACK CFI 1f5e4 .cfa: sp 0 +
STACK CFI 1f5e8 .cfa: x29 32 +
STACK CFI 1f5fc .cfa: sp 32 +
STACK CFI 1f604 .cfa: sp 0 +
STACK CFI INIT 1fe04 1a8 .cfa: sp 0 +
STACK CFI INIT 1ffac 3c .cfa: sp 0 +
STACK CFI 1ffb0 .cfa: sp 32 +
STACK CFI 1ffb8 .cfa: x29 32 + x19: .cfa -16 + ^ .ra: .cfa -24 + ^ x29: .cfa -32 + ^
STACK CFI 1ffc4 .cfa: sp 32 +
STACK CFI 1ffcc .cfa: sp 0 +
STACK CFI 1ffd0 .cfa: x29 32 +
STACK CFI 1ffdc .cfa: sp 32 +
STACK CFI 1ffe4 .cfa: sp 0 +
STACK CFI INIT 1ffe8 3c .cfa: sp 0 +
STACK CFI 1ffec .cfa: sp 32 +
STACK CFI 1fff4 .cfa: x29 32 + x19: .cfa -16 + ^ .ra: .cfa -24 + ^ x29: .cfa -32 + ^
STACK CFI 20000 .cfa: sp 32 +
STACK CFI 20008 .cfa: sp 0 +
STACK CFI 2000c .cfa: x29 32 +
STACK CFI 20018 .cfa: sp 32 +
STACK CFI 20020 .cfa: sp 0 +
STACK CFI INIT 20024 4c .cfa: sp 0 +
STACK CFI 20028 .cfa: sp 32 +
STACK CFI 20030 .cfa: x29 32 + x19: .cfa -8 + ^ x20: .cfa -16 + ^ .ra: .cfa -24 + ^ x29: .cfa -32 + ^
STACK CFI 20058 .cfa: sp 32 +
STACK CFI 20060 .cfa: sp 0 +
STACK CFI 20064 .cfa: sp 32 +
STACK CFI 2006c .cfa: sp 0 +
STACK CFI INIT 20290 64 .cfa: sp 0 +
STACK CFI 20294 .cfa: sp 32 +
STACK CFI 2029c .cfa: x29 32 + x19: .cfa -16 + ^ .ra: .cfa -24 + ^ x29: .cfa -32 + ^
STACK CFI 202c8 .cfa: sp 32 +
STACK CFI 202d0 .cfa: sp 0 +
STACK CFI 202d4 .cfa: x29 32 +
STACK CFI 202e8 .cfa: sp 32 +
STACK CFI 202f0 .cfa: sp 0 +
STACK CFI INIT 202f4 24 .cfa: sp 0 +
STACK CFI 202f8 .cfa: sp 32 +
STACK CFI 20300 .cfa: x29 32 + x19: .cfa -16 + ^ .ra: .cfa -24 + ^ x29: .cfa -32 + ^
STACK CFI 2030c .cfa: sp 32 +
STACK CFI 20314 .cfa: sp 0 +
STACK CFI INIT 20318 24 .cfa: sp 0 +
STACK CFI 2031c .cfa: sp 32 +
STACK CFI 20324 .cfa: x29 32 + x19: .cfa -16 + ^ .ra: .cfa -24 + ^ x29: .cfa -32 + ^
STACK CFI 20330 .cfa: sp 32 +
STACK CFI 20338 .cfa: sp 0 +
STACK CFI INIT 2033c 8 .cfa: sp 0 +
STACK CFI INIT 20344 24 .cfa: sp 0 +
STACK CFI 20348 .cfa: sp 32 +
STACK CFI 20350 .cfa: x29 32 + x19: .cfa -16 + ^ .ra: .cfa -24 + ^ x29: .cfa -32 + ^
STACK CFI 2035c .cfa: sp 32 +
STACK CFI 20364 .cfa: sp 0 +
STACK CFI INIT 20368 28 .cfa: sp 0 +
STACK CFI 2036c .cfa: sp 32 +
STACK CFI 20374 .cfa: x29 32 + x19: .cfa -16 + ^ .ra: .cfa -24 + ^ x29: .cfa -32 + ^
STACK CFI 20384 .cfa: sp 32 +
STACK CFI 2038c .cfa: sp 0 +
STACK CFI INIT 20668 8 .cfa: sp 0 +
STACK CFI INIT 20670 24 .cfa: sp 0 +
STACK CFI 20674 .cfa: sp 32 +
STACK CFI 2067c .cfa: x29 32 + x19: .cfa -16 + ^ .ra: .cfa -24 + ^ x29: .cfa -32 + ^
STACK CFI 20688 .cfa: sp 32 +
STACK CFI 20690 .cfa: sp 0 +
STACK CFI INIT 20694 28 .cfa: sp 0 +
STACK CFI 20698 .cfa: sp 32 +
STACK CFI 206a0 .cfa: x29 32 + x19: .cfa -16 + ^ .ra: .cfa -24 + ^ x29: .cfa -32 + ^
STACK CFI 206b0 .cfa: sp 32 +
STACK CFI 206b8 .cfa: sp 0 +
STACK CFI INIT 2090c 8 .cfa: sp 0 +
STACK CFI INIT 20914 24 .cfa: sp 0 +
STACK CFI 20918 .cfa: sp 32 +
STACK CFI 20920 .cfa: x29 32 + x19: .cfa -16 + ^ .ra: .cfa -24 + ^ x29: .cfa -32 + ^
STACK CFI 2092c .cfa: sp 32 +
STACK CFI 20934 .cfa: sp 0 +
STACK CFI INIT 20938 28 .cfa: sp 0 +
STACK CFI 2093c .cfa: sp 32 +
STACK CFI 20944 .cfa: x29 32 + x19: .cfa -16 + ^ .ra: .cfa -24 + ^ x29: .cfa -32 + ^
STACK CFI 20954 .cfa: sp 32 +
STACK CFI 2095c .cfa: sp 0 +
STACK CFI INIT 20960 9c .cfa: sp 0 +
STACK CFI 20964 .cfa: sp 32 +
STACK CFI 2096c .cfa: x29 32 + x19: .cfa -16 + ^ .ra: .cfa -24 + ^ x29: .cfa -32 + ^
STACK CFI 209f0 .cfa: sp 32 +
STACK CFI 209f8 .cfa: sp 0 +
STACK CFI INIT 209fc 8 .cfa: sp 0 +
STACK CFI INIT 20a04 24 .cfa: sp 0 +
STACK CFI 20a08 .cfa: sp 32 +
STACK CFI 20a10 .cfa: x29 32 + x19: .cfa -16 + ^ .ra: .cfa -24 + ^ x29: .cfa -32 + ^
STACK CFI 20a1c .cfa: sp 32 +
STACK CFI 20a24 .cfa: sp 0 +
STACK CFI INIT 20a28 28 .cfa: sp 0 +
STACK CFI 20a2c .cfa: sp 32 +
STACK CFI 20a34 .cfa: x29 32 + x19: .cfa -16 + ^ .ra: .cfa -24 + ^ x29: .cfa -32 + ^
STACK CFI 20a44 .cfa: sp 32 +
STACK CFI 20a4c .cfa: sp 0 +
STACK CFI INIT 20e18 28 .cfa: sp 0 +
STACK CFI INIT 20e40 20 .cfa: sp 0 +
STACK CFI INIT 20e60 14 .cfa: sp 0 +
STACK CFI INIT 20e74 d4 .cfa: sp 0 +
STACK CFI 20e78 .cfa: sp 80 +
STACK CFI 20e8c .cfa: x29 40 + x19: .cfa -8 + ^ x20: .cfa -16 + ^ x21: .cfa -24 + ^ .ra: .cfa -32 + ^ x29: .cfa -40 + ^ v8: .cfa -48 + ^
STACK CFI 20f2c .cfa: sp 80 +
STACK CFI 20f40 .cfa: sp 0 +
STACK CFI 20f44 .cfa: x29 40 +
STACK CFI INIT 20f48 4 .cfa: sp 0 +
STACK CFI INIT 20f4c 14 .cfa: sp 0 +
STACK CFI INIT 20f60 14 .cfa: sp 0 +
STACK CFI INIT 20f74 14 .cfa: sp 0 +
STACK CFI INIT 20f88 14 .cfa: sp 0 +
STACK CFI INIT 20f9c 14 .cfa: sp 0 +
STACK CFI INIT 20fb0 14 .cfa: sp 0 +
STACK CFI INIT 20fc4 14 .cfa: sp 0 +
STACK CFI INIT 20fd8 8 .cfa: sp 0 +
STACK CFI INIT 20fe0 14 .cfa: sp 0 +
STACK CFI INIT 20ff4 14 .cfa: sp 0 +
STACK CFI INIT 21008 14 .cfa: sp 0 +
STACK CFI INIT 2101c 14 .cfa: sp 0 +
STACK CFI INIT 21030 14 .cfa: sp 0 +
STACK CFI INIT 21044 14 .cfa: sp 0 +
STACK CFI INIT 21058 4 .cfa: sp 0 +
STACK CFI INIT 2229c 4 .cfa: sp 0 +
STACK CFI INIT 222a0 14 .cfa: sp 0 +
STACK CFI INIT 22794 c .cfa: sp 0 +
STACK CFI INIT 227a0 24c .cfa: sp 0 +
STACK CFI INIT 229ec a0 .cfa: sp 0 +
STACK CFI 229f8 .cfa: sp 32 +
STACK CFI 22a50 .cfa: sp 0 +
STACK CFI 22a54 .cfa: sp 32 +
STACK CFI 22a5c .cfa: sp 0 +
STACK CFI 22a60 .cfa: sp 32 +
STACK CFI 22a74 .cfa: sp 0 +
STACK CFI 22a78 .cfa: sp 32 +
STACK CFI 22a88 .cfa: sp 0 +
STACK CFI INIT 22a8c 38 .cfa: sp 0 +
STACK CFI 22a98 .cfa: sp 32 +
STACK CFI 22ac0 .cfa: sp 0 +
STACK CFI INIT 22d58 7c .cfa: sp 0 +
STACK CFI 22d5c .cfa: sp 32 +
STACK CFI 22d64 .cfa: x29 32 + x19: .cfa -16 + ^ .ra: .cfa -24 + ^ x29: .cfa -32 + ^
STACK CFI 22d90 .cfa: sp 32 +
STACK CFI 22d98 .cfa: sp 0 +
STACK CFI 22d9c .cfa: x29 32 +
STACK CFI 22dc8 .cfa: sp 32 +
STACK CFI 22dd0 .cfa: sp 0 +
STACK CFI INIT 22e24 2c .cfa: sp 0 +
STACK CFI 22e28 .cfa: sp 32 +
STACK CFI 22e30 .cfa: x29 32 + x19: .cfa -16 + ^ .ra: .cfa -24 + ^ x29: .cfa -32 + ^
STACK CFI 22e44 .cfa: sp 32 +
STACK CFI 22e4c .cfa: sp 0 +
STACK CFI INIT 23610 64 .cfa: sp 0 +
STACK CFI 23614 .cfa: sp 32 +
STACK CFI 2361c .cfa: x29 32 + x19: .cfa -16 + ^ .ra: .cfa -24 + ^ x29: .cfa -32 + ^
STACK CFI 23638 .cfa: sp 32 +
STACK CFI 23640 .cfa: sp 0 +
STACK CFI 23644 .cfa: x29 32 +
STACK CFI 23668 .cfa: sp 32 +
STACK CFI 23670 .cfa: sp 0 +
STACK CFI INIT 237c0 570 .cfa: sp 0 +
STACK CFI 237c4 .cfa: sp 176 +
STACK CFI 237d8 .cfa: x29 64 + x19: .cfa -8 + ^ x20: .cfa -16 + ^ x21: .cfa -24 + ^ x22: .cfa -32 + ^ x23: .cfa -40 + ^ x24: .cfa -48 + ^ .ra: .cfa -56 + ^ x29: .cfa -64 + ^
STACK CFI 23a08 .cfa: sp 176 +
STACK CFI 23a1c .cfa: sp 0 +
STACK CFI 23a20 .cfa: x29 64 +
STACK CFI 23a6c .cfa: sp 176 +
STACK CFI 23a80 .cfa: sp 0 +
STACK CFI 23a84 .cfa: x29 64 +
STACK CFI 23abc .cfa: sp 176 +
STACK CFI 23ad0 .cfa: sp 0 +
STACK CFI 23ad4 .cfa: x29 64 +
STACK CFI 23aec .cfa: sp 176 +
STACK CFI 23b00 .cfa: sp 0 +
STACK CFI 23b04 .cfa: x29 64 +
STACK CFI 23b24 .cfa: sp 176 +
STACK CFI 23b38 .cfa: sp 0 +
STACK CFI 23b3c .cfa: x29 64 +
STACK CFI 23b54 .cfa: sp 176 +
STACK CFI 23b68 .cfa: sp 0 +
STACK CFI 23b6c .cfa: x29 64 +
STACK CFI 23b80 .cfa: sp 176 +
STACK CFI 23b94 .cfa: sp 0 +
STACK CFI 23b98 .cfa: x29 64 +
STACK CFI 23bac .cfa: sp 176 +
STACK CFI 23bc0 .cfa: sp 0 +
STACK CFI 23bc4 .cfa: x29 64 +
STACK CFI 23bd4 .cfa: sp 176 +
STACK CFI 23be8 .cfa: sp 0 +
STACK CFI 23bec .cfa: x29 64 +
STACK CFI 23bfc .cfa: sp 176 +
STACK CFI 23c10 .cfa: sp 0 +
STACK CFI 23c14 .cfa: x29 64 +
STACK CFI 23c2c .cfa: sp 176 +
STACK CFI 23c40 .cfa: sp 0 +
STACK CFI 23c44 .cfa: x29 64 +
STACK CFI 23c58 .cfa: sp 176 +
STACK CFI 23c6c .cfa: sp 0 +
STACK CFI 23c70 .cfa: x29 64 +
STACK CFI 23c88 .cfa: sp 176 +
STACK CFI 23c9c .cfa: sp 0 +
STACK CFI 23ca0 .cfa: x29 64 +
STACK CFI 23ccc .cfa: sp 176 +
STACK CFI 23ce0 .cfa: sp 0 +
STACK CFI 23ce4 .cfa: x29 64 +
STACK CFI 23cf8 .cfa: sp 176 +
STACK CFI 23d0c .cfa: sp 0 +
STACK CFI 23d10 .cfa: x29 64 +
STACK CFI INIT 23d30 228 .cfa: sp 0 +
STACK CFI INIT 23f58 2dc .cfa: sp 0 +
STACK CFI INIT 24234 53c .cfa: sp 0 +
STACK CFI INIT 24770 78 .cfa: sp 0 +
STACK CFI 24774 .cfa: sp 48 +
STACK CFI 24780 .cfa: x29 48 + x19: .cfa -8 + ^ x20: .cfa -16 + ^ x21: .cfa -24 + ^ x22: .cfa -32 + ^ .ra: .cfa -40 + ^ x29: .cfa -48 + ^
STACK CFI 247c8 .cfa: sp 48 +
STACK CFI 247d4 .cfa: sp 0 +
STACK CFI 247d8 .cfa: sp 48 +
STACK CFI 247e4 .cfa: sp 0 +
STACK CFI INIT 247e8 8c .cfa: sp 0 +
STACK CFI 247ec .cfa: sp 32 +
STACK CFI 247f4 .cfa: x29 32 + x19: .cfa -16 + ^ .ra: .cfa -24 + ^ x29: .cfa -32 + ^
STACK CFI 24828 .cfa: sp 32 +
STACK CFI 24830 .cfa: sp 0 +
STACK CFI 24834 .cfa: x29 32 +
STACK CFI 24868 .cfa: sp 32 +
STACK CFI 24870 .cfa: sp 0 +
STACK CFI INIT 24874 24 .cfa: sp 0 +
STACK CFI 24878 .cfa: sp 32 +
STACK CFI 24880 .cfa: x29 32 + x19: .cfa -16 + ^ .ra: .cfa -24 + ^ x29: .cfa -32 + ^
STACK CFI 2488c .cfa: sp 32 +
STACK CFI 24894 .cfa: sp 0 +
STACK CFI INIT 24898 150 .cfa: sp 0 +
STACK CFI 2489c .cfa: sp 48 +
STACK CFI 248a8 .cfa: x29 48 + x19: .cfa -8 + ^ x20: .cfa -16 + ^ x21: .cfa -24 + ^ x22: .cfa -32 + ^ .ra: .cfa -40 + ^ x29: .cfa -48 + ^
STACK CFI 249d8 .cfa: sp 48 +
STACK CFI 249e4 .cfa: sp 0 +
STACK CFI INIT 249e8 68 .cfa: sp 0 +
STACK CFI 249ec .cfa: sp 64 +
STACK CFI 249f8 .cfa: x29 32 + x19: .cfa -16 + ^ .ra: .cfa -24 + ^ x29: .cfa -32 + ^
STACK CFI 24a3c .cfa: sp 64 +
STACK CFI 24a48 .cfa: sp 0 +
STACK CFI 24a4c .cfa: x29 32 +
STACK CFI INIT 24a50 90 .cfa: sp 0 +
STACK CFI 24a54 .cfa: sp 32 +
STACK CFI 24a5c .cfa: x29 32 + x19: .cfa -8 + ^ x20: .cfa -16 + ^ .ra: .cfa -24 + ^ x29: .cfa -32 + ^
STACK CFI 24a88 .cfa: sp 32 +
STACK CFI 24a90 .cfa: sp 0 +
STACK CFI 24a94 .cfa: x29 32 +
STACK CFI 24ad4 .cfa: sp 32 +
STACK CFI 24adc .cfa: sp 0 +
STACK CFI INIT 24ae0 ec .cfa: sp 0 +
STACK CFI 24ae4 .cfa: sp 112 +
STACK CFI 24af4 .cfa: x29 48 + x19: .cfa -8 + ^ x20: .cfa -16 + ^ x21: .cfa -32 + ^ .ra: .cfa -40 + ^ x29: .cfa -48 + ^
STACK CFI 24bb4 .cfa: sp 112 +
STACK CFI 24bc4 .cfa: sp 0 +
STACK CFI 24bc8 .cfa: x29 48 +
STACK CFI INIT 24bcc ec .cfa: sp 0 +
STACK CFI 24bd0 .cfa: sp 112 +
STACK CFI 24be0 .cfa: x29 48 + x19: .cfa -8 + ^ x20: .cfa -16 + ^ x21: .cfa -32 + ^ .ra: .cfa -40 + ^ x29: .cfa -48 + ^
STACK CFI 24ca0 .cfa: sp 112 +
STACK CFI 24cb0 .cfa: sp 0 +
STACK CFI 24cb4 .cfa: x29 48 +
STACK CFI INIT 24cb8 48 .cfa: sp 0 +
STACK CFI 24cbc .cfa: sp 32 +
STACK CFI 24cc4 .cfa: x29 32 + x19: .cfa -8 + ^ x20: .cfa -16 + ^ .ra: .cfa -24 + ^ x29: .cfa -32 + ^
STACK CFI 24ce8 .cfa: sp 32 +
STACK CFI 24cf0 .cfa: sp 0 +
STACK CFI 24cf4 .cfa: x29 32 +
STACK CFI INIT 24d00 98 .cfa: sp 0 +
STACK CFI 24d04 .cfa: sp 80 +
STACK CFI 24d10 .cfa: x29 32 + x19: .cfa -16 + ^ .ra: .cfa -24 + ^ x29: .cfa -32 + ^
STACK CFI 24d84 .cfa: sp 80 +
STACK CFI 24d90 .cfa: sp 0 +
STACK CFI 24d94 .cfa: x29 32 +
STACK CFI INIT 24d98 260 .cfa: sp 0 +
STACK CFI 24d9c .cfa: sp 112 +
STACK CFI 24db4 .cfa: x29 80 + x19: .cfa -8 + ^ x20: .cfa -16 + ^ x21: .cfa -24 + ^ x22: .cfa -32 + ^ x23: .cfa -40 + ^ x24: .cfa -48 + ^ x25: .cfa -64 + ^ .ra: .cfa -72 + ^ x29: .cfa -80 + ^
STACK CFI 24f98 .cfa: sp 112 +
STACK CFI 24fb0 .cfa: sp 0 +
STACK CFI 24fb4 .cfa: x29 80 +
STACK CFI INIT 24ff8 150 .cfa: sp 0 +
STACK CFI 24ffc .cfa: sp 48 +
STACK CFI 25008 .cfa: x29 48 + x19: .cfa -8 + ^ x20: .cfa -16 + ^ x21: .cfa -24 + ^ x22: .cfa -32 + ^ .ra: .cfa -40 + ^ x29: .cfa -48 + ^
STACK CFI 25138 .cfa: sp 48 +
STACK CFI 25144 .cfa: sp 0 +
STACK CFI INIT 25148 1e0 .cfa: sp 0 +
STACK CFI 2514c .cfa: sp 96 +
STACK CFI 25160 .cfa: x29 64 + x19: .cfa -8 + ^ x20: .cfa -16 + ^ x21: .cfa -24 + ^ x22: .cfa -32 + ^ x23: .cfa -40 + ^ x24: .cfa -48 + ^ .ra: .cfa -56 + ^ x29: .cfa -64 + ^
STACK CFI 252e0 .cfa: sp 96 +
STACK CFI 252f4 .cfa: sp 0 +
STACK CFI 252f8 .cfa: x29 64 +
STACK CFI INIT 25328 284 .cfa: sp 0 +
STACK CFI 2532c .cfa: sp 112 +
STACK CFI 25344 .cfa: x29 80 + x19: .cfa -8 + ^ x20: .cfa -16 + ^ x21: .cfa -24 + ^ x22: .cfa -32 + ^ x23: .cfa -40 + ^ x24: .cfa -48 + ^ x25: .cfa -64 + ^ .ra: .cfa -72 + ^ x29: .cfa -80 + ^
STACK CFI 2554c .cfa: sp 112 +
STACK CFI 25564 .cfa: sp 0 +
STACK CFI 25568 .cfa: x29 80 +
STACK CFI INIT 255ac 208 .cfa: sp 0 +
STACK CFI 255b0 .cfa: sp 96 +
STACK CFI 255c4 .cfa: x29 64 + x19: .cfa -8 + ^ x20: .cfa -16 + ^ x21: .cfa -24 + ^ x22: .cfa -32 + ^ x23: .cfa -40 + ^ x24: .cfa -48 + ^ .ra: .cfa -56 + ^ x29: .cfa -64 + ^
STACK CFI 2576c .cfa: sp 96 +
STACK CFI 25780 .cfa: sp 0 +
STACK CFI 25784 .cfa: x29 64 +
STACK CFI INIT 257b4 360 .cfa: sp 0 +
STACK CFI 257b8 .cfa: sp 160 +
STACK CFI 257d4 .cfa: x29 96 + x19: .cfa -8 + ^ x20: .cfa -16 + ^ x21: .cfa -24 + ^ x22: .cfa -32 + ^ x23: .cfa -40 + ^ x24: .cfa -48 + ^ x25: .cfa -56 + ^ x26: .cfa -64 + ^ x27: .cfa -72 + ^ x28: .cfa -80 + ^ .ra: .cfa -88 + ^ x29: .cfa -96 + ^
STACK CFI 25aa0 .cfa: sp 160 +
STACK CFI 25abc .cfa: sp 0 +
STACK CFI 25ac0 .cfa: x29 96 +
STACK CFI INIT 25b14 314 .cfa: sp 0 +
STACK CFI 25b18 .cfa: sp 144 +
STACK CFI 25b34 .cfa: x29 96 + x19: .cfa -8 + ^ x20: .cfa -16 + ^ x21: .cfa -24 + ^ x22: .cfa -32 + ^ x23: .cfa -40 + ^ x24: .cfa -48 + ^ x25: .cfa -56 + ^ x26: .cfa -64 + ^ x27: .cfa -72 + ^ x28: .cfa -80 + ^ .ra: .cfa -88 + ^ x29: .cfa -96 + ^
STACK CFI 25db0 .cfa: sp 144 +
STACK CFI 25dcc .cfa: sp 0 +
STACK CFI 25dd0 .cfa: x29 96 +
STACK CFI INIT 25e28 290 .cfa: sp 0 +
STACK CFI 25e2c .cfa: sp 128 +
STACK CFI 25e44 .cfa: x29 80 + x19: .cfa -8 + ^ x20: .cfa -16 + ^ x21: .cfa -24 + ^ x22: .cfa -32 + ^ x23: .cfa -40 + ^ x24: .cfa -48 + ^ x25: .cfa -56 + ^ x26: .cfa -64 + ^ .ra: .cfa -72 + ^ x29: .cfa -80 + ^
STACK CFI 26098 .cfa: sp 128 +
STACK CFI 260b0 .cfa: sp 0 +
STACK CFI 260b4 .cfa: x29 80 +
STACK CFI INIT 260b8 dc8 .cfa: sp 0 +
STACK CFI 260bc .cfa: sp 144 +
STACK CFI 260d8 .cfa: x29 96 + x19: .cfa -8 + ^ x20: .cfa -16 + ^ x21: .cfa -24 + ^ x22: .cfa -32 + ^ x23: .cfa -40 + ^ x24: .cfa -48 + ^ x25: .cfa -56 + ^ x26: .cfa -64 + ^ x27: .cfa -72 + ^ x28: .cfa -80 + ^ .ra: .cfa -88 + ^ x29: .cfa -96 + ^
STACK CFI 26d58 .cfa: sp 144 +
STACK CFI 26d74 .cfa: sp 0 +
STACK CFI 26d78 .cfa: x29 96 +
STACK CFI INIT 26e80 1d0 .cfa: sp 0 +
STACK CFI 26e84 .cfa: sp 80 +
STACK CFI 26e98 .cfa: x29 80 + x19: .cfa -8 + ^ x20: .cfa -16 + ^ x21: .cfa -24 + ^ x22: .cfa -32 + ^ x23: .cfa -40 + ^ x24: .cfa -48 + ^ x25: .cfa -64 + ^ .ra: .cfa -72 + ^ x29: .cfa -80 + ^
STACK CFI 27038 .cfa: sp 80 +
STACK CFI 2704c .cfa: sp 0 +
STACK CFI INIT 27050 23c .cfa: sp 0 +
STACK CFI 27054 .cfa: sp 112 +
STACK CFI 27068 .cfa: x29 64 + x19: .cfa -8 + ^ x20: .cfa -16 + ^ x21: .cfa -24 + ^ x22: .cfa -32 + ^ x23: .cfa -40 + ^ x24: .cfa -48 + ^ .ra: .cfa -56 + ^ x29: .cfa -64 + ^
STACK CFI 27244 .cfa: sp 112 +
STACK CFI 27258 .cfa: sp 0 +
STACK CFI 2725c .cfa: x29 64 +
STACK CFI INIT 2728c 30c .cfa: sp 0 +
STACK CFI 27290 .cfa: sp 80 +
STACK CFI 272a4 .cfa: x29 64 + x19: .cfa -8 + ^ x20: .cfa -16 + ^ x21: .cfa -24 + ^ x22: .cfa -32 + ^ x23: .cfa -40 + ^ x24: .cfa -48 + ^ .ra: .cfa -56 + ^ x29: .cfa -64 + ^
STACK CFI 27420 .cfa: sp 80 +
STACK CFI 27434 .cfa: sp 0 +
STACK CFI 27438 .cfa: x29 64 +
STACK CFI INIT 27598 178 .cfa: sp 0 +
STACK CFI 2759c .cfa: sp 80 +
STACK CFI 275b0 .cfa: x29 64 + x19: .cfa -8 + ^ x20: .cfa -16 + ^ x21: .cfa -24 + ^ x22: .cfa -32 + ^ x23: .cfa -40 + ^ x24: .cfa -48 + ^ .ra: .cfa -56 + ^ x29: .cfa -64 + ^
STACK CFI 276f4 .cfa: sp 80 +
STACK CFI 27708 .cfa: sp 0 +
STACK CFI 2770c .cfa: x29 64 +
STACK CFI INIT 27710 178 .cfa: sp 0 +
STACK CFI 27714 .cfa: sp 80 +
STACK CFI 27728 .cfa: x29 64 + x19: .cfa -8 + ^ x20: .cfa -16 + ^ x21: .cfa -24 + ^ x22: .cfa -32 + ^ x23: .cfa -40 + ^ x24: .cfa -48 + ^ .ra: .cfa -56 + ^ x29: .cfa -64 + ^
STACK CFI 2786c .cfa: sp 80 +
STACK CFI 27880 .cfa: sp 0 +
STACK CFI 27884 .cfa: x29 64 +
STACK CFI INIT 27888 240 .cfa: sp 0 +
STACK CFI 2788c .cfa: sp 96 +
STACK CFI 278a4 .cfa: x29 96 + x19: .cfa -8 + ^ x20: .cfa -16 + ^ x21: .cfa -24 + ^ x22: .cfa -32 + ^ x23: .cfa -40 + ^ x24: .cfa -48 + ^ x25: .cfa -56 + ^ x26: .cfa -64 + ^ x27: .cfa -72 + ^ x28: .cfa -80 + ^ .ra: .cfa -88 + ^ x29: .cfa -96 + ^
STACK CFI 27aac .cfa: sp 96 +
STACK CFI 27ac4 .cfa: sp 0 +
STACK CFI INIT 2873c 154 .cfa: sp 0 +
STACK CFI 28740 .cfa: sp 96 +
STACK CFI 28754 .cfa: x29 64 + x19: .cfa -8 + ^ x20: .cfa -16 + ^ x21: .cfa -24 + ^ x22: .cfa -32 + ^ x23: .cfa -48 + ^ .ra: .cfa -56 + ^ x29: .cfa -64 + ^
STACK CFI 28834 .cfa: sp 96 +
STACK CFI 28848 .cfa: sp 0 +
STACK CFI 2884c .cfa: x29 64 +
STACK CFI INIT 28af8 44 .cfa: sp 0 +
STACK CFI 28afc .cfa: sp 32 +
STACK CFI 28b04 .cfa: x29 32 + x19: .cfa -16 + ^ .ra: .cfa -24 + ^ x29: .cfa -32 + ^
STACK CFI 28b20 .cfa: sp 32 +
STACK CFI 28b28 .cfa: sp 0 +
STACK CFI 28b2c .cfa: x29 32 +
STACK CFI 28b30 .cfa: sp 32 +
STACK CFI 28b38 .cfa: sp 0 +
STACK CFI INIT 28b3c 1d0 .cfa: sp 0 +
STACK CFI 28b40 .cfa: sp 64 +
STACK CFI 28b50 .cfa: x29 64 + x19: .cfa -8 + ^ x20: .cfa -16 + ^ x21: .cfa -24 + ^ x22: .cfa -32 + ^ x23: .cfa -40 + ^ x24: .cfa -48 + ^ .ra: .cfa -56 + ^ x29: .cfa -64 + ^
STACK CFI 28c10 .cfa: sp 64 +
STACK CFI 28c20 .cfa: sp 0 +
STACK CFI 28c24 .cfa: x29 64 +
STACK CFI INIT 28d0c 17c .cfa: sp 0 +
STACK CFI INIT 28e88 ac .cfa: sp 0 +
STACK CFI 28e8c .cfa: sp 64 +
STACK CFI 28e9c .cfa: x29 64 + x19: .cfa -8 + ^ x20: .cfa -16 + ^ x21: .cfa -24 + ^ x22: .cfa -32 + ^ x23: .cfa -48 + ^ .ra: .cfa -56 + ^ x29: .cfa -64 + ^
STACK CFI 28f18 .cfa: sp 64 +
STACK CFI 28f28 .cfa: sp 0 +
STACK CFI 28f2c .cfa: x29 64 +
STACK CFI INIT 28f34 13c .cfa: sp 0 +
STACK CFI 28f38 .cfa: sp 64 +
STACK CFI 28f48 .cfa: x29 64 + x19: .cfa -8 + ^ x20: .cfa -16 + ^ x21: .cfa -24 + ^ x22: .cfa -32 + ^ x23: .cfa -40 + ^ x24: .cfa -48 + ^ .ra: .cfa -56 + ^ x29: .cfa -64 + ^
STACK CFI 29028 .cfa: sp 64 +
STACK CFI 29038 .cfa: sp 0 +
STACK CFI 2903c .cfa: x29 64 +
STACK CFI INIT 29428 a0 .cfa: sp 0 +
STACK CFI 2942c .cfa: sp 48 +
STACK CFI 29438 .cfa: x29 48 + x19: .cfa -8 + ^ x20: .cfa -16 + ^ x21: .cfa -24 + ^ x22: .cfa -32 + ^ .ra: .cfa -40 + ^ x29: .cfa -48 + ^
STACK CFI 294a4 .cfa: sp 48 +
STACK CFI 294b0 .cfa: sp 0 +
STACK CFI 294b4 .cfa: sp 48 +
STACK CFI 294c0 .cfa: sp 0 +
STACK CFI 294c4 .cfa: x29 48 +
STACK CFI INIT 2a178 158 .cfa: sp 0 +
STACK CFI 2a17c .cfa: sp 96 +
STACK CFI 2a190 .cfa: x29 64 + x19: .cfa -8 + ^ x20: .cfa -16 + ^ x21: .cfa -24 + ^ x22: .cfa -32 + ^ x23: .cfa -48 + ^ .ra: .cfa -56 + ^ x29: .cfa -64 + ^
STACK CFI 2a274 .cfa: sp 96 +
STACK CFI 2a288 .cfa: sp 0 +
STACK CFI 2a28c .cfa: x29 64 +
STACK CFI INIT 2a2d0 190 .cfa: sp 0 +
STACK CFI INIT 2af44 1dc .cfa: sp 0 +
STACK CFI 2af48 .cfa: sp 80 +
STACK CFI 2af5c .cfa: x29 80 + x19: .cfa -8 + ^ x20: .cfa -16 + ^ x21: .cfa -24 + ^ x22: .cfa -32 + ^ x23: .cfa -40 + ^ x24: .cfa -48 + ^ x25: .cfa -64 + ^ .ra: .cfa -72 + ^ x29: .cfa -80 + ^
STACK CFI 2b108 .cfa: sp 80 +
STACK CFI 2b11c .cfa: sp 0 +
STACK CFI INIT 2c544 124 .cfa: sp 0 +
STACK CFI 2c574 .cfa: sp 32 +
STACK CFI 2c57c .cfa: x29 32 + x19: .cfa -8 + ^ x20: .cfa -16 + ^ .ra: .cfa -24 + ^ x29: .cfa -32 + ^
STACK CFI 2c65c .cfa: sp 32 +
STACK CFI 2c664 .cfa: sp 0 +
STACK CFI INIT 2cdc4 324 .cfa: sp 0 +
STACK CFI 2cdc8 .cfa: sp 64 +
STACK CFI 2cdd8 .cfa: x29 64 + x19: .cfa -8 + ^ x20: .cfa -16 + ^ x21: .cfa -24 + ^ x22: .cfa -32 + ^ x23: .cfa -40 + ^ x24: .cfa -48 + ^ .ra: .cfa -56 + ^ x29: .cfa -64 + ^
STACK CFI 2ce54 .cfa: sp 64 +
STACK CFI 2ce64 .cfa: sp 0 +
STACK CFI 2ce68 .cfa: x29 64 +
STACK CFI 2d040 .cfa: sp 64 +
STACK CFI 2d050 .cfa: sp 0 +
STACK CFI 2d054 .cfa: x29 64 +
STACK CFI 2d064 .cfa: sp 64 +
STACK CFI 2d074 .cfa: sp 0 +
STACK CFI 2d078 .cfa: x29 64 +
STACK CFI INIT 2d0e8 a0 .cfa: sp 0 +
STACK CFI 2d0ec .cfa: sp 48 +
STACK CFI 2d0f8 .cfa: x29 48 + x19: .cfa -8 + ^ x20: .cfa -16 + ^ x21: .cfa -24 + ^ x22: .cfa -32 + ^ .ra: .cfa -40 + ^ x29: .cfa -48 + ^
STACK CFI 2d164 .cfa: sp 48 +
STACK CFI 2d170 .cfa: sp 0 +
STACK CFI 2d174 .cfa: sp 48 +
STACK CFI 2d180 .cfa: sp 0 +
STACK CFI 2d184 .cfa: x29 48 +
STACK CFI INIT 2e034 160 .cfa: sp 0 +
STACK CFI 2e038 .cfa: sp 64 +
STACK CFI 2e048 .cfa: x29 64 + x19: .cfa -8 + ^ x20: .cfa -16 + ^ x21: .cfa -24 + ^ x22: .cfa -32 + ^ x23: .cfa -48 + ^ .ra: .cfa -56 + ^ x29: .cfa -64 + ^
STACK CFI 2e140 .cfa: sp 64 +
STACK CFI 2e150 .cfa: sp 0 +
STACK CFI 2e154 .cfa: x29 64 +
STACK CFI INIT 2e194 214 .cfa: sp 0 +
STACK CFI 2e198 .cfa: sp 128 +
STACK CFI 2e1b4 .cfa: x29 96 + x19: .cfa -8 + ^ x20: .cfa -16 + ^ x21: .cfa -24 + ^ x22: .cfa -32 + ^ x23: .cfa -40 + ^ x24: .cfa -48 + ^ x25: .cfa -56 + ^ x26: .cfa -64 + ^ x27: .cfa -80 + ^ .ra: .cfa -88 + ^ x29: .cfa -96 + ^
STACK CFI 2e330 .cfa: sp 128 +
STACK CFI 2e34c .cfa: sp 0 +
STACK CFI 2e350 .cfa: x29 96 +
STACK CFI INIT 3000c 290 .cfa: sp 0 +
STACK CFI 30010 .cfa: sp 16 +
STACK CFI 30014 .cfa: x29 16 + .ra: .cfa -8 + ^ x29: .cfa -16 + ^
STACK CFI 300a0 .cfa: sp 16 +
STACK CFI 300a4 .cfa: sp 0 +
STACK CFI 300a8 .cfa: x29 16 +
STACK CFI 300f8 .cfa: sp 16 +
STACK CFI 300fc .cfa: sp 0 +
STACK CFI 30100 .cfa: x29 16 +
STACK CFI 30264 .cfa: sp 16 +
STACK CFI 30268 .cfa: sp 0 +
STACK CFI 3026c .cfa: x29 16 +
STACK CFI INIT 3029c 134 .cfa: sp 0 +
STACK CFI 302a0 .cfa: sp 96 +
STACK CFI 302b8 .cfa: x29 96 + x19: .cfa -8 + ^ x20: .cfa -16 + ^ x21: .cfa -24 + ^ x22: .cfa -32 + ^ x23: .cfa -40 + ^ x24: .cfa -48 + ^ x25: .cfa -56 + ^ x26: .cfa -64 + ^ x27: .cfa -72 + ^ x28: .cfa -80 + ^ .ra: .cfa -88 + ^ x29: .cfa -96 + ^
STACK CFI 30388 .cfa: sp 96 +
STACK CFI 3038c .cfa: x29 96 +
STACK CFI 30390 .cfa: sp 96 +
STACK CFI 303a8 .cfa: sp 0 +
STACK CFI 303ac .cfa: x29 96 +
STACK CFI 303cc .cfa: sp 96 +
STACK CFI INIT 303d0 e4c .cfa: sp 0 +
STACK CFI 303d4 .cfa: sp 192 +
STACK CFI 303f0 .cfa: x29 96 + x19: .cfa -8 + ^ x20: .cfa -16 + ^ x21: .cfa -24 + ^ x22: .cfa -32 + ^ x23: .cfa -40 + ^ x24: .cfa -48 + ^ x25: .cfa -56 + ^ x26: .cfa -64 + ^ x27: .cfa -72 + ^ x28: .cfa -80 + ^ .ra: .cfa -88 + ^ x29: .cfa -96 + ^
STACK CFI 31104 .cfa: sp 192 +
STACK CFI 31120 .cfa: sp 0 +
STACK CFI 31124 .cfa: x29 96 +
STACK CFI INIT 3121c 1068 .cfa: sp 0 +
STACK CFI 31220 .cfa: sp 288 +
STACK CFI 3123c .cfa: x29 96 + x19: .cfa -8 + ^ x20: .cfa -16 + ^ x21: .cfa -24 + ^ x22: .cfa -32 + ^ x23: .cfa -40 + ^ x24: .cfa -48 + ^ x25: .cfa -56 + ^ x26: .cfa -64 + ^ x27: .cfa -72 + ^ x28: .cfa -80 + ^ .ra: .cfa -88 + ^ x29: .cfa -96 + ^
STACK CFI 31fcc .cfa: sp 288 +
STACK CFI 31fe8 .cfa: sp 0 +
STACK CFI 31fec .cfa: x29 96 +
STACK CFI INIT 32284 520 .cfa: sp 0 +
STACK CFI 32288 .cfa: sp 144 +
STACK CFI 322a4 .cfa: x29 96 + x19: .cfa -8 + ^ x20: .cfa -16 + ^ x21: .cfa -24 + ^ x22: .cfa -32 + ^ x23: .cfa -40 + ^ x24: .cfa -48 + ^ x25: .cfa -56 + ^ x26: .cfa -64 + ^ x27: .cfa -72 + ^ x28: .cfa -80 + ^ .ra: .cfa -88 + ^ x29: .cfa -96 + ^
STACK CFI 32780 .cfa: sp 144 +
STACK CFI 3279c .cfa: sp 0 +
STACK CFI 327a0 .cfa: x29 96 +
STACK CFI INIT 331f0 12dc .cfa: sp 0 +
STACK CFI 331f4 .cfa: sp 208 +
STACK CFI 33210 .cfa: x29 96 + x19: .cfa -8 + ^ x20: .cfa -16 + ^ x21: .cfa -24 + ^ x22: .cfa -32 + ^ x23: .cfa -40 + ^ x24: .cfa -48 + ^ x25: .cfa -56 + ^ x26: .cfa -64 + ^ x27: .cfa -72 + ^ x28: .cfa -80 + ^ .ra: .cfa -88 + ^ x29: .cfa -96 + ^
STACK CFI 344a8 .cfa: sp 208 +
STACK CFI 344c4 .cfa: sp 0 +
STACK CFI 344c8 .cfa: x29 96 +
STACK CFI INIT 344cc 1b8 .cfa: sp 0 +
STACK CFI INIT 1adb0 184 .cfa: sp 0 +
STACK CFI 1adb4 .cfa: sp 80 +
STACK CFI 1adc4 .cfa: x29 48 + x19: .cfa -8 + ^ x20: .cfa -16 + ^ x21: .cfa -32 + ^ .ra: .cfa -40 + ^ x29: .cfa -48 + ^
STACK CFI 1aef4 .cfa: sp 80 +
STACK CFI 1af04 .cfa: sp 0 +
STACK CFI 1af08 .cfa: x29 48 +
STACK CFI INIT 1af34 6c .cfa: sp 0 +
STACK CFI 1af38 .cfa: sp 32 +
STACK CFI 1af40 .cfa: x29 32 + x19: .cfa -16 + ^ .ra: .cfa -24 + ^ x29: .cfa -32 + ^
STACK CFI 1af90 .cfa: sp 32 +
STACK CFI 1af98 .cfa: sp 0 +
STACK CFI 1af9c .cfa: x29 32 +
STACK CFI INIT 1afa0 3a8 .cfa: sp 0 +
STACK CFI 1afa4 .cfa: sp 208 +
STACK CFI 1afc0 .cfa: x29 96 + x19: .cfa -8 + ^ x20: .cfa -16 + ^ x21: .cfa -24 + ^ x22: .cfa -32 + ^ x23: .cfa -40 + ^ x24: .cfa -48 + ^ x25: .cfa -56 + ^ x26: .cfa -64 + ^ x27: .cfa -72 + ^ x28: .cfa -80 + ^ .ra: .cfa -88 + ^ x29: .cfa -96 + ^
STACK CFI 1b1f0 .cfa: sp 208 +
STACK CFI 1b20c .cfa: sp 0 +
STACK CFI 1b210 .cfa: x29 96 +
STACK CFI INIT 1b348 3b8 .cfa: sp 0 +
STACK CFI 1b34c .cfa: sp 208 +
STACK CFI 1b364 .cfa: x29 80 + x19: .cfa -8 + ^ x20: .cfa -16 + ^ x21: .cfa -24 + ^ x22: .cfa -32 + ^ x23: .cfa -40 + ^ x24: .cfa -48 + ^ x25: .cfa -56 + ^ x26: .cfa -64 + ^ .ra: .cfa -72 + ^ x29: .cfa -80 + ^
STACK CFI 1b480 .cfa: sp 208 +
STACK CFI 1b498 .cfa: sp 0 +
STACK CFI 1b49c .cfa: x29 80 +
STACK CFI 1b610 .cfa: sp 208 +
STACK CFI 1b628 .cfa: sp 0 +
STACK CFI 1b62c .cfa: x29 80 +
STACK CFI INIT 1b700 17c .cfa: sp 0 +
STACK CFI 1b704 .cfa: sp 96 +
STACK CFI 1b718 .cfa: x29 64 + x19: .cfa -8 + ^ x20: .cfa -16 + ^ x21: .cfa -24 + ^ x22: .cfa -32 + ^ x23: .cfa -40 + ^ x24: .cfa -48 + ^ .ra: .cfa -56 + ^ x29: .cfa -64 + ^
STACK CFI 1b81c .cfa: sp 96 +
STACK CFI 1b830 .cfa: sp 0 +
STACK CFI 1b834 .cfa: x29 64 +
STACK CFI INIT 1b87c b58 .cfa: sp 0 +
STACK CFI 1b880 .cfa: sp 160 +
STACK CFI 1b8a0 .cfa: x29 88 + x19: .cfa -8 + ^ x20: .cfa -16 + ^ x21: .cfa -24 + ^ x22: .cfa -32 + ^ x23: .cfa -40 + ^ x24: .cfa -48 + ^ x25: .cfa -56 + ^ x26: .cfa -64 + ^ x27: .cfa -72 + ^ .ra: .cfa -80 + ^ x29: .cfa -88 + ^ v8: .cfa -96 + ^
STACK CFI 1c1f8 .cfa: sp 160 +
STACK CFI 1c218 .cfa: sp 0 +
STACK CFI 1c21c .cfa: x29 88 +
STACK CFI INIT 1c3d4 12c .cfa: sp 0 +
STACK CFI 1c3d8 .cfa: sp 80 +
STACK CFI 1c3e8 .cfa: x29 48 + x19: .cfa -8 + ^ x20: .cfa -16 + ^ x21: .cfa -24 + ^ x22: .cfa -32 + ^ .ra: .cfa -40 + ^ x29: .cfa -48 + ^
STACK CFI 1c4e4 .cfa: sp 80 +
STACK CFI 1c4f4 .cfa: sp 0 +
STACK CFI 1c4f8 .cfa: x29 48 +
STACK CFI INIT 1c6c8 3ac .cfa: sp 0 +
STACK CFI 1c6cc .cfa: sp 144 +
STACK CFI 1c6e0 .cfa: x29 64 + x19: .cfa -8 + ^ x20: .cfa -16 + ^ x21: .cfa -24 + ^ x22: .cfa -32 + ^ x23: .cfa -40 + ^ x24: .cfa -48 + ^ .ra: .cfa -56 + ^ x29: .cfa -64 + ^
STACK CFI 1c9f4 .cfa: sp 144 +
STACK CFI 1ca08 .cfa: sp 0 +
STACK CFI 1ca0c .cfa: x29 64 +
STACK CFI INIT 1ca74 100 .cfa: sp 0 +
STACK CFI 1ca78 .cfa: sp 64 +
STACK CFI 1ca84 .cfa: x29 32 + x19: .cfa -8 + ^ x20: .cfa -16 + ^ .ra: .cfa -24 + ^ x29: .cfa -32 + ^
STACK CFI 1cb24 .cfa: sp 64 +
STACK CFI 1cb30 .cfa: sp 0 +
STACK CFI 1cb34 .cfa: x29 32 +
STACK CFI INIT 1cb74 134 .cfa: sp 0 +
STACK CFI 1cb78 .cfa: sp 96 +
STACK CFI 1cb88 .cfa: x29 48 + x19: .cfa -8 + ^ x20: .cfa -16 + ^ x21: .cfa -32 + ^ .ra: .cfa -40 + ^ x29: .cfa -48 + ^
STACK CFI 1cc5c .cfa: sp 96 +
STACK CFI 1cc6c .cfa: sp 0 +
STACK CFI 1cc70 .cfa: x29 48 +
STACK CFI INIT 1ccb0 74 .cfa: sp 0 +
STACK CFI 1ccb4 .cfa: sp 32 +
STACK CFI 1ccbc .cfa: x29 32 + x19: .cfa -16 + ^ .ra: .cfa -24 + ^ x29: .cfa -32 + ^
STACK CFI 1cd14 .cfa: sp 32 +
STACK CFI 1cd1c .cfa: sp 0 +
STACK CFI 1cd20 .cfa: x29 32 +
STACK CFI INIT 1cd84 6c .cfa: sp 0 +
STACK CFI 1cd88 .cfa: sp 32 +
STACK CFI 1cd90 .cfa: x29 32 + x19: .cfa -16 + ^ .ra: .cfa -24 + ^ x29: .cfa -32 + ^
STACK CFI 1cde0 .cfa: sp 32 +
STACK CFI 1cde8 .cfa: sp 0 +
STACK CFI 1cdec .cfa: x29 32 +
STACK CFI INIT 1cdf0 74 .cfa: sp 0 +
STACK CFI 1cdf4 .cfa: sp 32 +
STACK CFI 1cdfc .cfa: x29 32 + x19: .cfa -16 + ^ .ra: .cfa -24 + ^ x29: .cfa -32 + ^
STACK CFI 1ce54 .cfa: sp 32 +
STACK CFI 1ce5c .cfa: sp 0 +
STACK CFI 1ce60 .cfa: x29 32 +
STACK CFI INIT 1ceb0 6c .cfa: sp 0 +
STACK CFI 1ceb4 .cfa: sp 32 +
STACK CFI 1cebc .cfa: x29 32 + x19: .cfa -16 + ^ .ra: .cfa -24 + ^ x29: .cfa -32 + ^
STACK CFI 1cf0c .cfa: sp 32 +
STACK CFI 1cf14 .cfa: sp 0 +
STACK CFI 1cf18 .cfa: x29 32 +
STACK CFI INIT 1cf44 50 .cfa: sp 0 +
STACK CFI 1cf48 .cfa: sp 32 +
STACK CFI 1cf50 .cfa: x29 32 + x19: .cfa -8 + ^ x20: .cfa -16 + ^ .ra: .cfa -24 + ^ x29: .cfa -32 + ^
STACK CFI INIT 1cfd0 50 .cfa: sp 0 +
STACK CFI 1cfd4 .cfa: sp 32 +
STACK CFI 1cfdc .cfa: x29 32 + x19: .cfa -8 + ^ x20: .cfa -16 + ^ .ra: .cfa -24 + ^ x29: .cfa -32 + ^
STACK CFI INIT 1d57c b58 .cfa: sp 0 +
STACK CFI 1d580 .cfa: sp 240 +
STACK CFI 1d59c .cfa: x29 96 + x19: .cfa -8 + ^ x20: .cfa -16 + ^ x21: .cfa -24 + ^ x22: .cfa -32 + ^ x23: .cfa -40 + ^ x24: .cfa -48 + ^ x25: .cfa -56 + ^ x26: .cfa -64 + ^ x27: .cfa -72 + ^ x28: .cfa -80 + ^ .ra: .cfa -88 + ^ x29: .cfa -96 + ^
STACK CFI 1d8ec .cfa: sp 240 +
STACK CFI 1d908 .cfa: sp 0 +
STACK CFI 1d90c .cfa: x29 96 +
STACK CFI 1df7c .cfa: sp 240 +
STACK CFI 1df98 .cfa: sp 0 +
STACK CFI 1df9c .cfa: x29 96 +
STACK CFI INIT 1e0ec 470 .cfa: sp 0 +
STACK CFI 1e0f0 .cfa: sp 304 +
STACK CFI 1e10c .cfa: x29 96 + x19: .cfa -8 + ^ x20: .cfa -16 + ^ x21: .cfa -24 + ^ x22: .cfa -32 + ^ x23: .cfa -40 + ^ x24: .cfa -48 + ^ x25: .cfa -56 + ^ x26: .cfa -64 + ^ x27: .cfa -72 + ^ x28: .cfa -80 + ^ .ra: .cfa -88 + ^ x29: .cfa -96 + ^
STACK CFI 1e41c .cfa: sp 304 +
STACK CFI 1e438 .cfa: sp 0 +
STACK CFI 1e43c .cfa: x29 96 +
STACK CFI INIT 1e5ac 74 .cfa: sp 0 +
STACK CFI 1e5b0 .cfa: sp 48 +
STACK CFI 1e5bc .cfa: x29 32 + x19: .cfa -8 + ^ x20: .cfa -16 + ^ .ra: .cfa -24 + ^ x29: .cfa -32 + ^
STACK CFI 1e608 .cfa: sp 48 +
STACK CFI 1e614 .cfa: sp 0 +
STACK CFI 1e618 .cfa: x29 32 +
STACK CFI INIT 1e6a0 154 .cfa: sp 0 +
STACK CFI 1e6a4 .cfa: sp 384 +
STACK CFI 1e6b8 .cfa: x29 64 + x19: .cfa -8 + ^ x20: .cfa -16 + ^ x21: .cfa -24 + ^ x22: .cfa -32 + ^ x23: .cfa -40 + ^ x28: .cfa -48 + ^ .ra: .cfa -56 + ^ x29: .cfa -64 + ^
STACK CFI 1e79c .cfa: sp 384 +
STACK CFI 1e7b0 .cfa: sp 0 +
STACK CFI 1e7b4 .cfa: x29 64 +
STACK CFI INIT 1e828 134 .cfa: sp 0 +
STACK CFI 1e82c .cfa: sp 80 +
STACK CFI 1e840 .cfa: x29 80 + x19: .cfa -8 + ^ x20: .cfa -16 + ^ x21: .cfa -24 + ^ x22: .cfa -32 + ^ x23: .cfa -40 + ^ x24: .cfa -48 + ^ x25: .cfa -56 + ^ x26: .cfa -64 + ^ .ra: .cfa -72 + ^ x29: .cfa -80 + ^
STACK CFI 1e910 .cfa: sp 80 +
STACK CFI 1e924 .cfa: sp 0 +
STACK CFI 1e928 .cfa: x29 80 +
STACK CFI INIT 1ea00 1a4 .cfa: sp 0 +
STACK CFI 1ea04 .cfa: sp 112 +
STACK CFI 1ea1c .cfa: x29 80 + x19: .cfa -8 + ^ x20: .cfa -16 + ^ x21: .cfa -24 + ^ x22: .cfa -32 + ^ x23: .cfa -40 + ^ x24: .cfa -48 + ^ x25: .cfa -56 + ^ x26: .cfa -64 + ^ .ra: .cfa -72 + ^ x29: .cfa -80 + ^
STACK CFI 1eb0c .cfa: sp 112 +
STACK CFI 1eb24 .cfa: sp 0 +
STACK CFI 1eb28 .cfa: x29 80 +
STACK CFI INIT 1eba4 1ec .cfa: sp 0 +
STACK CFI 1eba8 .cfa: sp 128 +
STACK CFI 1ebc4 .cfa: x29 96 + x19: .cfa -8 + ^ x20: .cfa -16 + ^ x21: .cfa -24 + ^ x22: .cfa -32 + ^ x23: .cfa -40 + ^ x24: .cfa -48 + ^ x25: .cfa -56 + ^ x26: .cfa -64 + ^ x27: .cfa -80 + ^ .ra: .cfa -88 + ^ x29: .cfa -96 + ^
STACK CFI 1ed40 .cfa: sp 128 +
STACK CFI 1ed5c .cfa: sp 0 +
STACK CFI 1ed60 .cfa: x29 96 +
STACK CFI INIT 1edc4 170 .cfa: sp 0 +
STACK CFI 1edc8 .cfa: sp 48 +
STACK CFI 1edd4 .cfa: x29 48 + x19: .cfa -8 + ^ x20: .cfa -16 + ^ x21: .cfa -32 + ^ .ra: .cfa -40 + ^ x29: .cfa -48 + ^
STACK CFI 1ef08 .cfa: sp 48 +
STACK CFI 1ef14 .cfa: sp 0 +
STACK CFI 1ef18 .cfa: x29 48 +
STACK CFI INIT 1f2b0 2a4 .cfa: sp 0 +
STACK CFI 1f2b4 .cfa: sp 96 +
STACK CFI 1f2c8 .cfa: x29 64 + x19: .cfa -8 + ^ x20: .cfa -16 + ^ x21: .cfa -24 + ^ x22: .cfa -32 + ^ x23: .cfa -48 + ^ .ra: .cfa -56 + ^ x29: .cfa -64 + ^
STACK CFI 1f508 .cfa: sp 96 +
STACK CFI 1f51c .cfa: sp 0 +
STACK CFI 1f520 .cfa: x29 64 +
STACK CFI INIT 1f608 720 .cfa: sp 0 +
STACK CFI 1f60c .cfa: sp 144 +
STACK CFI 1f620 .cfa: x29 64 + x19: .cfa -8 + ^ x20: .cfa -16 + ^ x21: .cfa -24 + ^ x22: .cfa -32 + ^ x23: .cfa -40 + ^ x24: .cfa -48 + ^ .ra: .cfa -56 + ^ x29: .cfa -64 + ^
STACK CFI 1fc40 .cfa: sp 144 +
STACK CFI 1fc54 .cfa: sp 0 +
STACK CFI 1fc58 .cfa: x29 64 +
STACK CFI INIT 1fd28 dc .cfa: sp 0 +
STACK CFI 1fd2c .cfa: sp 64 +
STACK CFI 1fd38 .cfa: x29 32 + x19: .cfa -8 + ^ x20: .cfa -16 + ^ .ra: .cfa -24 + ^ x29: .cfa -32 + ^
STACK CFI 1fdc4 .cfa: sp 64 +
STACK CFI 1fdd0 .cfa: sp 0 +
STACK CFI 1fdd4 .cfa: x29 32 +
STACK CFI INIT 20070 134 .cfa: sp 0 +
STACK CFI 20074 .cfa: sp 80 +
STACK CFI 20080 .cfa: x29 32 + x19: .cfa -8 + ^ x20: .cfa -16 + ^ .ra: .cfa -24 + ^ x29: .cfa -32 + ^
STACK CFI 200b0 .cfa: sp 80 +
STACK CFI 200bc .cfa: sp 0 +
STACK CFI 200c0 .cfa: x29 32 +
STACK CFI INIT 201a4 78 .cfa: sp 0 +
STACK CFI 201a8 .cfa: sp 32 +
STACK CFI 201b0 .cfa: x29 32 + x19: .cfa -8 + ^ x20: .cfa -16 + ^ .ra: .cfa -24 + ^ x29: .cfa -32 + ^
STACK CFI 201bc .cfa: sp 32 +
STACK CFI 201c4 .cfa: sp 0 +
STACK CFI 201c8 .cfa: x29 32 +
STACK CFI INIT 2021c 74 .cfa: sp 0 +
STACK CFI 20220 .cfa: sp 48 +
STACK CFI 2022c .cfa: x29 32 + x19: .cfa -8 + ^ x20: .cfa -16 + ^ .ra: .cfa -24 + ^ x29: .cfa -32 + ^
STACK CFI 20278 .cfa: sp 48 +
STACK CFI 20284 .cfa: sp 0 +
STACK CFI 20288 .cfa: x29 32 +
STACK CFI INIT 20390 2d8 .cfa: sp 0 +
STACK CFI 20394 .cfa: sp 128 +
STACK CFI 203a8 .cfa: x29 64 + x19: .cfa -8 + ^ x20: .cfa -16 + ^ x21: .cfa -24 + ^ x22: .cfa -32 + ^ x23: .cfa -48 + ^ .ra: .cfa -56 + ^ x29: .cfa -64 + ^
STACK CFI 20514 .cfa: sp 128 +
STACK CFI 20528 .cfa: sp 0 +
STACK CFI 2052c .cfa: x29 64 +
STACK CFI INIT 206bc 250 .cfa: sp 0 +
STACK CFI 206c0 .cfa: sp 112 +
STACK CFI 206d0 .cfa: x29 48 + x19: .cfa -8 + ^ x20: .cfa -16 + ^ x21: .cfa -32 + ^ .ra: .cfa -40 + ^ x29: .cfa -48 + ^
STACK CFI 207b4 .cfa: sp 112 +
STACK CFI 207c4 .cfa: sp 0 +
STACK CFI 207c8 .cfa: x29 48 +
STACK CFI INIT 20a50 1b8 .cfa: sp 0 +
STACK CFI 20a54 .cfa: sp 160 +
STACK CFI 20a70 .cfa: x29 72 + x19: .cfa -8 + ^ x20: .cfa -16 + ^ x21: .cfa -24 + ^ x22: .cfa -32 + ^ x23: .cfa -40 + ^ x24: .cfa -48 + ^ x25: .cfa -56 + ^ .ra: .cfa -64 + ^ x29: .cfa -72 + ^ v8: .cfa -80 + ^
STACK CFI 20af4 .cfa: sp 160 +
STACK CFI 20b10 .cfa: sp 0 +
STACK CFI 20b14 .cfa: x29 72 +
STACK CFI INIT 20c08 164 .cfa: sp 0 +
STACK CFI 20c0c .cfa: sp 64 +
STACK CFI 20c1c .cfa: x29 48 + x19: .cfa -8 + ^ x20: .cfa -16 + ^ x21: .cfa -24 + ^ x22: .cfa -32 + ^ .ra: .cfa -40 + ^ x29: .cfa -48 + ^
STACK CFI 20d0c .cfa: sp 64 +
STACK CFI 20d1c .cfa: sp 0 +
STACK CFI 20d20 .cfa: x29 48 +
STACK CFI INIT 20d6c ac .cfa: sp 0 +
STACK CFI 20d70 .cfa: sp 64 +
STACK CFI 20d80 .cfa: x29 48 + x19: .cfa -8 + ^ x20: .cfa -16 + ^ x21: .cfa -32 + ^ .ra: .cfa -40 + ^ x29: .cfa -48 + ^
STACK CFI 20ddc .cfa: sp 64 +
STACK CFI 20dec .cfa: sp 0 +
STACK CFI 20df0 .cfa: x29 48 +
STACK CFI INIT 2105c 2bc .cfa: sp 0 +
STACK CFI 21060 .cfa: sp 128 +
STACK CFI 21074 .cfa: x29 64 + x19: .cfa -8 + ^ x20: .cfa -16 + ^ x21: .cfa -24 + ^ x22: .cfa -32 + ^ x23: .cfa -48 + ^ .ra: .cfa -56 + ^ x29: .cfa -64 + ^
STACK CFI 211c4 .cfa: sp 128 +
STACK CFI 211d8 .cfa: sp 0 +
STACK CFI 211dc .cfa: x29 64 +
STACK CFI INIT 21318 2c8 .cfa: sp 0 +
STACK CFI 2131c .cfa: sp 128 +
STACK CFI 21330 .cfa: x29 64 + x19: .cfa -8 + ^ x20: .cfa -16 + ^ x21: .cfa -24 + ^ x22: .cfa -32 + ^ x23: .cfa -48 + ^ .ra: .cfa -56 + ^ x29: .cfa -64 + ^
STACK CFI 2148c .cfa: sp 128 +
STACK CFI 214a0 .cfa: sp 0 +
STACK CFI 214a4 .cfa: x29 64 +
STACK CFI INIT 215e0 278 .cfa: sp 0 +
STACK CFI 215e4 .cfa: sp 128 +
STACK CFI 215f8 .cfa: x29 64 + x19: .cfa -8 + ^ x20: .cfa -16 + ^ x21: .cfa -24 + ^ x22: .cfa -32 + ^ x23: .cfa -48 + ^ .ra: .cfa -56 + ^ x29: .cfa -64 + ^
STACK CFI 21704 .cfa: sp 128 +
STACK CFI 21718 .cfa: sp 0 +
STACK CFI 2171c .cfa: x29 64 +
STACK CFI INIT 21858 2bc .cfa: sp 0 +
STACK CFI 2185c .cfa: sp 128 +
STACK CFI 21870 .cfa: x29 64 + x19: .cfa -8 + ^ x20: .cfa -16 + ^ x21: .cfa -24 + ^ x22: .cfa -32 + ^ x23: .cfa -48 + ^ .ra: .cfa -56 + ^ x29: .cfa -64 + ^
STACK CFI 219c0 .cfa: sp 128 +
STACK CFI 219d4 .cfa: sp 0 +
STACK CFI 219d8 .cfa: x29 64 +
STACK CFI INIT 21b14 4cc .cfa: sp 0 +
STACK CFI 21b18 .cfa: sp 128 +
STACK CFI 21b2c .cfa: x29 64 + x19: .cfa -8 + ^ x20: .cfa -16 + ^ x21: .cfa -24 + ^ x22: .cfa -32 + ^ x23: .cfa -48 + ^ .ra: .cfa -56 + ^ x29: .cfa -64 + ^
STACK CFI 21e38 .cfa: sp 128 +
STACK CFI 21e4c .cfa: sp 0 +
STACK CFI 21e50 .cfa: x29 64 +
STACK CFI INIT 21fe0 154 .cfa: sp 0 +
STACK CFI 21fe4 .cfa: sp 384 +
STACK CFI 21ff8 .cfa: x29 64 + x19: .cfa -8 + ^ x20: .cfa -16 + ^ x21: .cfa -24 + ^ x22: .cfa -32 + ^ x23: .cfa -40 + ^ x28: .cfa -48 + ^ .ra: .cfa -56 + ^ x29: .cfa -64 + ^
STACK CFI 220dc .cfa: sp 384 +
STACK CFI 220f0 .cfa: sp 0 +
STACK CFI 220f4 .cfa: x29 64 +
STACK CFI INIT 22134 168 .cfa: sp 0 +
STACK CFI 22138 .cfa: sp 384 +
STACK CFI 2214c .cfa: x29 64 + x19: .cfa -8 + ^ x20: .cfa -16 + ^ x21: .cfa -24 + ^ x22: .cfa -32 + ^ x23: .cfa -40 + ^ x28: .cfa -48 + ^ .ra: .cfa -56 + ^ x29: .cfa -64 + ^
STACK CFI 22244 .cfa: sp 384 +
STACK CFI 22258 .cfa: sp 0 +
STACK CFI 2225c .cfa: x29 64 +
STACK CFI INIT 222b4 4e0 .cfa: sp 0 +
STACK CFI 222b8 .cfa: sp 64 +
STACK CFI 222c8 .cfa: x29 64 + x19: .cfa -8 + ^ x20: .cfa -16 + ^ x21: .cfa -24 + ^ x22: .cfa -32 + ^ x23: .cfa -40 + ^ x24: .cfa -48 + ^ .ra: .cfa -56 + ^ x29: .cfa -64 + ^
STACK CFI 22768 .cfa: sp 64 +
STACK CFI 22778 .cfa: sp 0 +
STACK CFI 2277c .cfa: x29 64 +
STACK CFI INIT 22ac4 294 .cfa: sp 0 +
STACK CFI 22ac8 .cfa: sp 240 +
STACK CFI 22ae0 .cfa: x29 80 + x19: .cfa -8 + ^ x20: .cfa -16 + ^ x21: .cfa -24 + ^ x22: .cfa -32 + ^ x23: .cfa -40 + ^ x24: .cfa -48 + ^ x25: .cfa -64 + ^ .ra: .cfa -72 + ^ x29: .cfa -80 + ^
STACK CFI 22c80 .cfa: sp 240 +
STACK CFI 22c98 .cfa: sp 0 +
STACK CFI 22c9c .cfa: x29 80 +
STACK CFI INIT 22dd4 50 .cfa: sp 0 +
STACK CFI 22dd8 .cfa: sp 32 +
STACK CFI 22de0 .cfa: x29 32 + x19: .cfa -8 + ^ x20: .cfa -16 + ^ .ra: .cfa -24 + ^ x29: .cfa -32 + ^
STACK CFI INIT 22e50 7c0 .cfa: sp 0 +
STACK CFI 22e54 .cfa: sp 320 +
STACK CFI 22e70 .cfa: x29 96 + x19: .cfa -8 + ^ x20: .cfa -16 + ^ x21: .cfa -24 + ^ x22: .cfa -32 + ^ x23: .cfa -40 + ^ x24: .cfa -48 + ^ x25: .cfa -56 + ^ x26: .cfa -64 + ^ x27: .cfa -72 + ^ x28: .cfa -80 + ^ .ra: .cfa -88 + ^ x29: .cfa -96 + ^
STACK CFI 234c0 .cfa: sp 320 +
STACK CFI 234dc .cfa: sp 0 +
STACK CFI 234e0 .cfa: x29 96 +
STACK CFI INIT 23674 14c .cfa: sp 0 +
STACK CFI 23678 .cfa: sp 80 +
STACK CFI 2368c .cfa: x29 80 + x19: .cfa -8 + ^ x20: .cfa -16 + ^ x21: .cfa -24 + ^ x22: .cfa -32 + ^ x23: .cfa -40 + ^ x24: .cfa -48 + ^ x28: .cfa -64 + ^ .ra: .cfa -72 + ^ x29: .cfa -80 + ^
STACK CFI 23720 .cfa: sp 80 +
STACK CFI 23734 .cfa: sp 0 +
STACK CFI 23738 .cfa: x29 80 +
STACK CFI INIT 27ac8 c74 .cfa: sp 0 +
STACK CFI 27acc .cfa: sp 96 +
STACK CFI 27ae4 .cfa: x29 96 + x19: .cfa -8 + ^ x20: .cfa -16 + ^ x21: .cfa -24 + ^ x22: .cfa -32 + ^ x23: .cfa -40 + ^ x24: .cfa -48 + ^ x25: .cfa -56 + ^ x26: .cfa -64 + ^ x27: .cfa -72 + ^ x28: .cfa -80 + ^ .ra: .cfa -88 + ^ x29: .cfa -96 + ^
STACK CFI 28558 .cfa: sp 96 +
STACK CFI 28570 .cfa: sp 0 +
STACK CFI 28574 .cfa: x29 96 +
STACK CFI INIT 28890 268 .cfa: sp 0 +
STACK CFI 28894 .cfa: sp 128 +
STACK CFI 288a4 .cfa: x29 48 + x19: .cfa -8 + ^ x20: .cfa -16 + ^ x21: .cfa -24 + ^ x22: .cfa -32 + ^ .ra: .cfa -40 + ^ x29: .cfa -48 + ^
STACK CFI 28a44 .cfa: sp 128 +
STACK CFI 28a54 .cfa: sp 0 +
STACK CFI 28a58 .cfa: x29 48 +
STACK CFI INIT 29070 3b8 .cfa: sp 0 +
STACK CFI 29074 .cfa: sp 96 +
STACK CFI 2908c .cfa: x29 96 + x19: .cfa -8 + ^ x20: .cfa -16 + ^ x21: .cfa -24 + ^ x22: .cfa -32 + ^ x23: .cfa -40 + ^ x24: .cfa -48 + ^ x25: .cfa -56 + ^ x26: .cfa -64 + ^ x27: .cfa -72 + ^ x28: .cfa -80 + ^ .ra: .cfa -88 + ^ x29: .cfa -96 + ^
STACK CFI 293c8 .cfa: sp 96 +
STACK CFI 293e0 .cfa: sp 0 +
STACK CFI 293e4 .cfa: x29 96 +
STACK CFI INIT 294c8 cb0 .cfa: sp 0 +
STACK CFI 294cc .cfa: sp 96 +
STACK CFI 294e4 .cfa: x29 96 + x19: .cfa -8 + ^ x20: .cfa -16 + ^ x21: .cfa -24 + ^ x22: .cfa -32 + ^ x23: .cfa -40 + ^ x24: .cfa -48 + ^ x25: .cfa -56 + ^ x26: .cfa -64 + ^ x27: .cfa -72 + ^ x28: .cfa -80 + ^ .ra: .cfa -88 + ^ x29: .cfa -96 + ^
STACK CFI 29f88 .cfa: sp 96 +
STACK CFI 29fa0 .cfa: sp 0 +
STACK CFI 29fa4 .cfa: x29 96 +
STACK CFI INIT 2a460 ae4 .cfa: sp 0 +
STACK CFI 2a464 .cfa: sp 96 +
STACK CFI 2a47c .cfa: x29 96 + x19: .cfa -8 + ^ x20: .cfa -16 + ^ x21: .cfa -24 + ^ x22: .cfa -32 + ^ x23: .cfa -40 + ^ x24: .cfa -48 + ^ x25: .cfa -56 + ^ x26: .cfa -64 + ^ x27: .cfa -72 + ^ x28: .cfa -80 + ^ .ra: .cfa -88 + ^ x29: .cfa -96 + ^
STACK CFI 2aeb8 .cfa: sp 96 +
STACK CFI 2aed0 .cfa: sp 0 +
STACK CFI 2aed4 .cfa: x29 96 +
STACK CFI INIT 2b120 1424 .cfa: sp 0 +
STACK CFI 2b124 .cfa: sp 96 +
STACK CFI 2b13c .cfa: x29 96 + x19: .cfa -8 + ^ x20: .cfa -16 + ^ x21: .cfa -24 + ^ x22: .cfa -32 + ^ x23: .cfa -40 + ^ x24: .cfa -48 + ^ x25: .cfa -56 + ^ x26: .cfa -64 + ^ x27: .cfa -72 + ^ x28: .cfa -80 + ^ .ra: .cfa -88 + ^ x29: .cfa -96 + ^
STACK CFI 2c3d4 .cfa: sp 96 +
STACK CFI 2c3ec .cfa: sp 0 +
STACK CFI 2c3f0 .cfa: x29 96 +
STACK CFI INIT 2c668 75c .cfa: sp 0 +
STACK CFI 2c66c .cfa: sp 368 +
STACK CFI 2c688 .cfa: x29 96 + x19: .cfa -8 + ^ x20: .cfa -16 + ^ x21: .cfa -24 + ^ x22: .cfa -32 + ^ x23: .cfa -40 + ^ x24: .cfa -48 + ^ x25: .cfa -56 + ^ x26: .cfa -64 + ^ x27: .cfa -72 + ^ x28: .cfa -80 + ^ .ra: .cfa -88 + ^ x29: .cfa -96 + ^
STACK CFI 2c73c .cfa: sp 368 +
STACK CFI 2c758 .cfa: sp 0 +
STACK CFI 2c75c .cfa: x29 96 +
STACK CFI 2c7b0 .cfa: sp 368 +
STACK CFI 2c7cc .cfa: sp 0 +
STACK CFI 2c7d0 .cfa: x29 96 +
STACK CFI INIT 2d188 eac .cfa: sp 0 +
STACK CFI 2d18c .cfa: sp 96 +
STACK CFI 2d1a4 .cfa: x29 96 + x19: .cfa -8 + ^ x20: .cfa -16 + ^ x21: .cfa -24 + ^ x22: .cfa -32 + ^ x23: .cfa -40 + ^ x24: .cfa -48 + ^ x25: .cfa -56 + ^ x26: .cfa -64 + ^ x27: .cfa -72 + ^ x28: .cfa -80 + ^ .ra: .cfa -88 + ^ x29: .cfa -96 + ^
STACK CFI 2de48 .cfa: sp 96 +
STACK CFI 2de60 .cfa: sp 0 +
STACK CFI 2de64 .cfa: x29 96 +
STACK CFI INIT 2e3a8 1c64 .cfa: sp 0 +
STACK CFI 2e3ac .cfa: sp 112 +
STACK CFI 2e3c8 .cfa: x29 96 + x19: .cfa -8 + ^ x20: .cfa -16 + ^ x21: .cfa -24 + ^ x22: .cfa -32 + ^ x23: .cfa -40 + ^ x24: .cfa -48 + ^ x25: .cfa -56 + ^ x26: .cfa -64 + ^ x27: .cfa -72 + ^ x28: .cfa -80 + ^ .ra: .cfa -88 + ^ x29: .cfa -96 + ^ v8: .cfa -112 + ^
STACK CFI 2e79c .cfa: sp 112 +
STACK CFI 2e7b8 .cfa: sp 0 +
STACK CFI 2e7bc .cfa: x29 96 +
STACK CFI INIT 327a4 a4c .cfa: sp 0 +
STACK CFI 327a8 .cfa: sp 144 +
STACK CFI 327c0 .cfa: x29 80 + x19: .cfa -8 + ^ x20: .cfa -16 + ^ x21: .cfa -24 + ^ x22: .cfa -32 + ^ x23: .cfa -40 + ^ x24: .cfa -48 + ^ x25: .cfa -64 + ^ .ra: .cfa -72 + ^ x29: .cfa -80 + ^
STACK CFI 33148 .cfa: sp 144 +
STACK CFI 33160 .cfa: sp 0 +
STACK CFI 33164 .cfa: x29 80 +
STACK CFI INIT 34684 57c .cfa: sp 0 +
STACK CFI 34688 .cfa: sp 96 +
STACK CFI 346a0 .cfa: x29 96 + x19: .cfa -8 + ^ x20: .cfa -16 + ^ x21: .cfa -24 + ^ x22: .cfa -32 + ^ x23: .cfa -40 + ^ x24: .cfa -48 + ^ x25: .cfa -56 + ^ x26: .cfa -64 + ^ x27: .cfa -72 + ^ x28: .cfa -80 + ^ .ra: .cfa -88 + ^ x29: .cfa -96 + ^
STACK CFI 34b64 .cfa: sp 96 +
STACK CFI 34b7c .cfa: sp 0 +
STACK CFI 34b80 .cfa: x29 96 +
STACK CFI INIT 34c00 67c .cfa: sp 0 +
STACK CFI 34c04 .cfa: sp 96 +
STACK CFI 34c1c .cfa: x29 96 + x19: .cfa -8 + ^ x20: .cfa -16 + ^ x21: .cfa -24 + ^ x22: .cfa -32 + ^ x23: .cfa -40 + ^ x24: .cfa -48 + ^ x25: .cfa -56 + ^ x26: .cfa -64 + ^ x27: .cfa -72 + ^ x28: .cfa -80 + ^ .ra: .cfa -88 + ^ x29: .cfa -96 + ^
STACK CFI 351e0 .cfa: sp 96 +
STACK CFI 351f8 .cfa: sp 0 +
STACK CFI 351fc .cfa: x29 96 +
