MODULE Linux arm64 D97E9A5A6DC900FCFFDD43ED6E06D50B0 alphalaneous.unlog.android64.so
INFO CODE_ID 5A9A7ED9C96DFC00FFDD43ED6E06D50BBF2A6E72
INFO GENERATOR mozilla/dump_syms 2.3.4
PUBLIC 15310 0 __on_dlclose
PUBLIC 15320 0 __emutls_unregister_key
PUBLIC 15328 0 __on_dlclose_late
PUBLIC 15330 0 __atexit_handler_wrapper
PUBLIC 15344 0 atexit
PUBLIC 15360 0 pthread_atfork
PUBLIC 15370 0 ModItem::init(geode::Mod*, cocos2d::CCSize const&)
PUBLIC 15908 0 geode::cocos::CCMenuItemExt::createSpriteExtra(cocos2d::CCNode*, std::__ndk1::function<void (CCMenuItemSpriteExtra*)>)
PUBLIC 15a44 0 ModItem::onToggle(cocos2d::CCObject*)
PUBLIC 15c94 0 std::__ndk1::basic_string<char, std::__ndk1::char_traits<char>, std::__ndk1::allocator<char> >::__throw_length_error[abi:ne180000]() const
PUBLIC 15ca8 0 std::__ndk1::__throw_length_error[abi:ne180000](char const*)
PUBLIC 15cf8 0 std::length_error::length_error[abi:ne180000](char const*)
PUBLIC 15d28 0 __clang_call_terminate
PUBLIC 15d38 0 geode::cocos::CCMenuItemExt::assignCallback<CCMenuItemSpriteExtra>(cocos2d::CCMenuItem*, std::__ndk1::function<void (CCMenuItemSpriteExtra*)>)
PUBLIC 15ecc 0 geode::cocos::CCMenuItemExt::LambdaCallback<CCMenuItemSpriteExtra>::create(std::__ndk1::function<void (CCMenuItemSpriteExtra*)>)
PUBLIC 16094 0 geode::cocos::CCMenuItemExt::LambdaCallback<CCMenuItemSpriteExtra>::execute(cocos2d::CCNode*)
PUBLIC 16104 0 cocos2d::CCCopying::copyWithZone(cocos2d::CCZone*)
PUBLIC 1610c 0 geode::cocos::CCMenuItemExt::LambdaCallback<CCMenuItemSpriteExtra>::~LambdaCallback()
PUBLIC 16168 0 geode::cocos::CCMenuItemExt::LambdaCallback<CCMenuItemSpriteExtra>::~LambdaCallback()
PUBLIC 161cc 0 cocos2d::CCObject::update(float)
PUBLIC 161d0 0 std::__ndk1::__throw_bad_function_call[abi:ne180000]()
PUBLIC 16204 0 std::__ndk1::bad_function_call::~bad_function_call()
PUBLIC 16228 0 ModItem::~ModItem()
PUBLIC 1624c 0 std::__ndk1::__function::__base<void (CCMenuItemSpriteExtra*)>::~__base()
PUBLIC 16250 0 std::__ndk1::__function::__func<ModItem::init(geode::Mod*, cocos2d::CCSize const&)::$_0, std::__ndk1::allocator<ModItem::init(geode::Mod*, cocos2d::CCSize const&)::$_0>, void (CCMenuItemSpriteExtra*)>::~__func()
PUBLIC 16254 0 std::__ndk1::__function::__func<ModItem::init(geode::Mod*, cocos2d::CCSize const&)::$_0, std::__ndk1::allocator<ModItem::init(geode::Mod*, cocos2d::CCSize const&)::$_0>, void (CCMenuItemSpriteExtra*)>::__clone() const
PUBLIC 16288 0 std::__ndk1::__function::__func<ModItem::init(geode::Mod*, cocos2d::CCSize const&)::$_0, std::__ndk1::allocator<ModItem::init(geode::Mod*, cocos2d::CCSize const&)::$_0>, void (CCMenuItemSpriteExtra*)>::__clone(std::__ndk1::__function::__base<void (CCMenuItemSpriteExtra*)>*) const
PUBLIC 1629c 0 std::__ndk1::__function::__func<ModItem::init(geode::Mod*, cocos2d::CCSize const&)::$_0, std::__ndk1::allocator<ModItem::init(geode::Mod*, cocos2d::CCSize const&)::$_0>, void (CCMenuItemSpriteExtra*)>::destroy()
PUBLIC 162a0 0 std::__ndk1::__function::__func<ModItem::init(geode::Mod*, cocos2d::CCSize const&)::$_0, std::__ndk1::allocator<ModItem::init(geode::Mod*, cocos2d::CCSize const&)::$_0>, void (CCMenuItemSpriteExtra*)>::destroy_deallocate()
PUBLIC 162a4 0 std::__ndk1::__function::__func<ModItem::init(geode::Mod*, cocos2d::CCSize const&)::$_0, std::__ndk1::allocator<ModItem::init(geode::Mod*, cocos2d::CCSize const&)::$_0>, void (CCMenuItemSpriteExtra*)>::operator()(CCMenuItemSpriteExtra*&&)
PUBLIC 162ac 0 std::__ndk1::__function::__func<ModItem::init(geode::Mod*, cocos2d::CCSize const&)::$_0, std::__ndk1::allocator<ModItem::init(geode::Mod*, cocos2d::CCSize const&)::$_0>, void (CCMenuItemSpriteExtra*)>::target(std::type_info const&) const
PUBLIC 162c8 0 std::__ndk1::__function::__func<ModItem::init(geode::Mod*, cocos2d::CCSize const&)::$_0, std::__ndk1::allocator<ModItem::init(geode::Mod*, cocos2d::CCSize const&)::$_0>, void (CCMenuItemSpriteExtra*)>::target_type() const
PUBLIC 162d4 0 geode::impl::ResultData<matjson::Value&, std::__ndk1::basic_string<char, std::__ndk1::char_traits<char>, std::__ndk1::allocator<char> > >::~ResultData()
PUBLIC 16348 0 std::__ndk1::__throw_bad_variant_access[abi:ne180000]()
PUBLIC 1637c 0 std::__ndk1::basic_string<char, std::__ndk1::char_traits<char>, std::__ndk1::allocator<char> >::__init_copy_ctor_external(char const*, unsigned long)
PUBLIC 163fc 0 std::__ndk1::__variant_detail::__visitation::__base::__dispatcher<(unsigned long)0>::__dispatch[abi:ne180000]<std::__ndk1::__variant_detail::__dtor<std::__ndk1::__variant_detail::__traits<std::__ndk1::reference_wrapper<matjson::Value>, std::__ndk1::basic_string<char, std::__ndk1::char_traits<char>, std::__ndk1::allocator<char> > >, (std::__ndk1::__variant_detail::_Trait)1>::__destroy[abi:ne180000]()::{lambda(auto:1&)#1}, std::__ndk1::__variant_detail::__base<(std::__ndk1::__variant_detail::__traits<std::__ndk1::reference_wrapper<matjson::Value>, std::__ndk1::basic_string<char, std::__ndk1::char_traits<char>, std::__ndk1::allocator<char> > >)1, matjson::Value, std::__ndk1::allocator<char> >&>(std::__ndk1::__variant_detail::__dtor<std::__ndk1::__variant_detail::__traits<std::__ndk1::reference_wrapper<matjson::Value>, std::__ndk1::basic_string<char, std::__ndk1::char_traits<char>, std::__ndk1::allocator<char> > >, (std::__ndk1::__variant_detail::_Trait)1>, std::__ndk1::__variant_detail::__base<(std::__ndk1::__variant_detail::__traits<std::__ndk1::reference_wrapper<matjson::Value>, std::__ndk1::basic_string<char, std::__ndk1::char_traits<char>, std::__ndk1::allocator<char> > >)1, matjson::Value, std::__ndk1::allocator<char> >&)
PUBLIC 16400 0 std::__ndk1::__variant_detail::__visitation::__base::__dispatcher<(unsigned long)1>::__dispatch[abi:ne180000]<std::__ndk1::__variant_detail::__dtor<std::__ndk1::__variant_detail::__traits<std::__ndk1::reference_wrapper<matjson::Value>, std::__ndk1::basic_string<char, std::__ndk1::char_traits<char>, std::__ndk1::allocator<char> > >, (std::__ndk1::__variant_detail::_Trait)1>::__destroy[abi:ne180000]()::{lambda(auto:1&)#1}, std::__ndk1::__variant_detail::__base<(std::__ndk1::__variant_detail::__traits<std::__ndk1::reference_wrapper<matjson::Value>, std::__ndk1::basic_string<char, std::__ndk1::char_traits<char>, std::__ndk1::allocator<char> > >)1, matjson::Value, std::__ndk1::allocator<char> >&>(std::__ndk1::__variant_detail::__dtor<std::__ndk1::__variant_detail::__traits<std::__ndk1::reference_wrapper<matjson::Value>, std::__ndk1::basic_string<char, std::__ndk1::char_traits<char>, std::__ndk1::allocator<char> > >, (std::__ndk1::__variant_detail::_Trait)1>, std::__ndk1::__variant_detail::__base<(std::__ndk1::__variant_detail::__traits<std::__ndk1::reference_wrapper<matjson::Value>, std::__ndk1::basic_string<char, std::__ndk1::char_traits<char>, std::__ndk1::allocator<char> > >)1, matjson::Value, std::__ndk1::allocator<char> >&)
PUBLIC 16414 0 std::__ndk1::__variant_detail::__visitation::__base::__dispatcher<(unsigned long)0>::__dispatch[abi:ne180000]<std::__ndk1::__variant_detail::__dtor<std::__ndk1::__variant_detail::__traits<bool, std::__ndk1::basic_string<char, std::__ndk1::char_traits<char>, std::__ndk1::allocator<char> > >, (std::__ndk1::__variant_detail::_Trait)1>::__destroy[abi:ne180000]()::{lambda(auto:1&)#1}, std::__ndk1::__variant_detail::__base<(std::__ndk1::__variant_detail::__traits<bool, std::__ndk1::basic_string<char, std::__ndk1::char_traits<char>, std::__ndk1::allocator<char> > >)1, bool, std::__ndk1::allocator<char> >&>(std::__ndk1::__variant_detail::__dtor<std::__ndk1::__variant_detail::__traits<bool, std::__ndk1::basic_string<char, std::__ndk1::char_traits<char>, std::__ndk1::allocator<char> > >, (std::__ndk1::__variant_detail::_Trait)1>, std::__ndk1::__variant_detail::__base<(std::__ndk1::__variant_detail::__traits<bool, std::__ndk1::basic_string<char, std::__ndk1::char_traits<char>, std::__ndk1::allocator<char> > >)1, bool, std::__ndk1::allocator<char> >&)
PUBLIC 16418 0 std::__ndk1::__variant_detail::__visitation::__base::__dispatcher<(unsigned long)1>::__dispatch[abi:ne180000]<std::__ndk1::__variant_detail::__dtor<std::__ndk1::__variant_detail::__traits<bool, std::__ndk1::basic_string<char, std::__ndk1::char_traits<char>, std::__ndk1::allocator<char> > >, (std::__ndk1::__variant_detail::_Trait)1>::__destroy[abi:ne180000]()::{lambda(auto:1&)#1}, std::__ndk1::__variant_detail::__base<(std::__ndk1::__variant_detail::__traits<bool, std::__ndk1::basic_string<char, std::__ndk1::char_traits<char>, std::__ndk1::allocator<char> > >)1, bool, std::__ndk1::allocator<char> >&>(std::__ndk1::__variant_detail::__dtor<std::__ndk1::__variant_detail::__traits<bool, std::__ndk1::basic_string<char, std::__ndk1::char_traits<char>, std::__ndk1::allocator<char> > >, (std::__ndk1::__variant_detail::_Trait)1>, std::__ndk1::__variant_detail::__base<(std::__ndk1::__variant_detail::__traits<bool, std::__ndk1::basic_string<char, std::__ndk1::char_traits<char>, std::__ndk1::allocator<char> > >)1, bool, std::__ndk1::allocator<char> >&)
PUBLIC 1642c 0 ModList::init(std::__ndk1::vector<geode::Mod*, std::__ndk1::allocator<geode::Mod*> >, cocos2d::CCSize const&)
PUBLIC 16748 0 ModList::create(std::__ndk1::vector<geode::Mod*, std::__ndk1::allocator<geode::Mod*> >, cocos2d::CCSize const&)
PUBLIC 168c8 0 std::__ndk1::__introsort<std::__ndk1::_ClassicAlgPolicy, ModList::init(std::__ndk1::vector<geode::Mod*, std::__ndk1::allocator<geode::Mod*> >, cocos2d::CCSize const&)::$_0&, geode::Mod**, false>(geode::Mod**, geode::Mod**, ModList::init(std::__ndk1::vector<geode::Mod*, std::__ndk1::allocator<geode::Mod*> >, cocos2d::CCSize const&)::$_0&, std::__ndk1::iterator_traits<geode::Mod**>::difference_type, bool)
PUBLIC 16fd0 0 ModList::init(std::__ndk1::vector<geode::Mod*, std::__ndk1::allocator<geode::Mod*> >, cocos2d::CCSize const&)::$_0::operator()(geode::Mod const*, geode::Mod const*) const
PUBLIC 1752c 0 _ZNSt6__ndk124__sort5_maybe_branchlessB8ne180000INS_17_ClassicAlgPolicyERZN7ModList4initENS_6vectorIPN5geode3ModENS_9allocatorIS6_EEEERKN7cocos2d6CCSizeEE3$_0PS6_TnNS_9enable_ifIXntsr21__use_branchless_sortIT0_T1_EE5valueEiE4typeELi0EEEvSJ_SJ_SJ_SJ_SJ_SI_
PUBLIC 1764c 0 std::__ndk1::__sort3[abi:ne180000]<std::__ndk1::_ClassicAlgPolicy, ModList::init(std::__ndk1::vector<geode::Mod*, std::__ndk1::allocator<geode::Mod> >, cocos2d::CCSize const&)::$_0&, geode::Mod*>(geode::Mod*, geode::Mod*, geode::Mod*, ModList::init(std::__ndk1::vector<geode::Mod*, std::__ndk1::allocator<geode::Mod> >, cocos2d::CCSize const&)::$_0&)
PUBLIC 1772c 0 std::__ndk1::__insertion_sort_incomplete[abi:ne180000]<std::__ndk1::_ClassicAlgPolicy, ModList::init(std::__ndk1::vector<geode::Mod*, std::__ndk1::allocator<geode::Mod> >, cocos2d::CCSize const&)::$_0&, geode::Mod*>(geode::Mod*, geode::Mod*, ModList::init(std::__ndk1::vector<geode::Mod*, std::__ndk1::allocator<geode::Mod> >, cocos2d::CCSize const&)::$_0&)
PUBLIC 17924 0 ModList::~ModList()
PUBLIC 17948 0 std::__ndk1::vector<geode::Mod*, std::__ndk1::allocator<geode::Mod*> >::__throw_length_error[abi:ne180000]() const
PUBLIC 17960 0 __aarch64_ldadd8_relax
PUBLIC 17990 0 init_have_lse_atomics
PUBLIC 17a28 0 __init_cpu_features_constructor
PUBLIC 17fc4 0 __init_cpu_features
PUBLIC 18050 0 __aarch64_ldadd8_acq_rel
PUBLIC 18080 0 ModListPopup::init(float, float)
PUBLIC 181e0 0 geode::Mod::getSettingValue<bool>(std::__ndk1::basic_string_view<char, std::__ndk1::char_traits<char> >) const
PUBLIC 18314 0 geode::Popup<>::setCloseButtonSpr(cocos2d::CCSprite*, float)
PUBLIC 18460 0 ModListPopup::setup()
PUBLIC 186c8 0 ModListPopup::onClose(cocos2d::CCObject*)
PUBLIC 18718 0 ModListPopup::create()
PUBLIC 18834 0 geode::Popup<>::~Popup()
PUBLIC 188a0 0 ModListPopup::~ModListPopup()
PUBLIC 18914 0 geode::Popup<>::registerWithTouchDispatcher()
PUBLIC 18940 0 geode::Popup<>::keyDown(cocos2d::enumKeyCodes)
PUBLIC 18968 0 cocos2d::CCLayerRGBA::setOpacityModifyRGB(bool)
PUBLIC 1896c 0 cocos2d::CCLayerRGBA::isOpacityModifyRGB()
PUBLIC 18974 0 {virtual override thunk({offset(-320)}, ModListPopup::~ModListPopup())}
PUBLIC 189e0 0 {virtual override thunk({offset(-320)}, ModListPopup::~ModListPopup())}
PUBLIC 18a54 0 {virtual override thunk({offset(-344)}, geode::Popup<>::keyDown(cocos2d::enumKeyCodes))}
PUBLIC 18a80 0 cocos2d::CCKeyboardDelegate::keyUp(cocos2d::enumKeyCodes)
PUBLIC 18a84 0 cocos2d::CCMouseDelegate::rightKeyDown()
PUBLIC 18a88 0 cocos2d::CCMouseDelegate::rightKeyUp()
PUBLIC 18a8c 0 cocos2d::CCMouseDelegate::scrollWheel(float, float)
PUBLIC 18a90 0 {virtual override thunk({offset(-408)}, cocos2d::CCLayerRGBA::setOpacityModifyRGB(bool))}
PUBLIC 18a94 0 {virtual override thunk({offset(-408)}, cocos2d::CCLayerRGBA::isOpacityModifyRGB())}
PUBLIC 18a9c 0 geode::Popup<>::~Popup()
PUBLIC 18aa0 0 geode::Popup<>::onClose(cocos2d::CCObject*)
PUBLIC 18be8 0 {virtual override thunk({offset(-320)}, geode::Popup<>::~Popup())}
PUBLIC 18c54 0 {virtual override thunk({offset(-320)}, geode::Popup<>::~Popup())}
PUBLIC 18c58 0 geode::Popup<>::CloseEvent::~CloseEvent()
PUBLIC 18cb8 0 geode::Popup<>::CloseEvent::~CloseEvent()
PUBLIC 18d28 0 std::__ndk1::__shared_ptr_emplace<geode::Popup<>::CloseEvent::Impl, std::__ndk1::allocator<geode::Popup<>::CloseEvent::Impl> >::~__shared_ptr_emplace()
PUBLIC 18d38 0 std::__ndk1::__shared_ptr_emplace<geode::Popup<>::CloseEvent::Impl, std::__ndk1::allocator<geode::Popup<>::CloseEvent::Impl> >::~__shared_ptr_emplace()
PUBLIC 18d68 0 std::__ndk1::__shared_ptr_emplace<geode::Popup<>::CloseEvent::Impl, std::__ndk1::allocator<geode::Popup<>::CloseEvent::Impl> >::__on_zero_shared()
PUBLIC 18d6c 0 std::__ndk1::__shared_ptr_emplace<geode::Popup<>::CloseEvent::Impl, std::__ndk1::allocator<geode::Popup<>::CloseEvent::Impl> >::__on_zero_shared_weak()
PUBLIC 18d70 0 geode::cast::traverseTypeinfoFor(void*, geode::cast::ClassTypeinfoType const*, char const*)
PUBLIC 18e74 0 geode::Popup<>::initBase(float, float, char const*, cocos2d::CCRect, bool)
PUBLIC 1917c 0 geode::Ref<cocos2d::CCNode>::~Ref()
PUBLIC 19198 0 geodeExecFunction40<(anonymous namespace)::ExecFuncUnique40>(geode::ModStateEvent*)
PUBLIC 194bc 0 __cxx_global_var_init.1
PUBLIC 1a090 0 geode::modifier::ModifyBase<geode::modifier::ModifyDerive<ModsLayerExt, cocos2d::CCLayer> >::~ModifyBase()
PUBLIC 1a0a8 0 geode::modifier::ModifyDerive<ModsLayerExt, cocos2d::CCLayer>::apply()
PUBLIC 1a4b8 0 std::__ndk1::shared_ptr<geode::Hook>::~shared_ptr[abi:ne180000]()
PUBLIC 1a508 0 geode::impl::ResultData<geode::Hook*, std::__ndk1::basic_string<char, std::__ndk1::char_traits<char>, std::__ndk1::allocator<char> > >::~ResultData()
PUBLIC 1a57c 0 std::__ndk1::vector<std::__ndk1::basic_string<char, std::__ndk1::char_traits<char>, std::__ndk1::allocator<char> >, std::__ndk1::allocator<std::__ndk1::basic_string<char, std::__ndk1::char_traits<char>, std::__ndk1::allocator<char> > > >::~vector[abi:ne180000]()
PUBLIC 1a5f8 0 geode::modifier::ModifyBase<geode::modifier::ModifyDerive<ModsLayerExt, cocos2d::CCLayer> >::apply()
PUBLIC 1a5fc 0 _ZN5geode15UnwrapExceptionC2IRPNS_4HookEQsr4implE18IsStringStreamableIT_EEENS_4impl5OkTagEOS5_
PUBLIC 1a750 0 std::__ndk1::basic_stringstream<char, std::__ndk1::char_traits<char>, std::__ndk1::allocator<char> >::basic_stringstream[abi:ne180000]()
PUBLIC m 1a87c 0 std::__ndk1::basic_stringstream<char, std::__ndk1::char_traits<char>, std::__ndk1::allocator<char> >::~basic_stringstream()
PUBLIC 1a8fc 0 geode::UnwrapException::~UnwrapException()
PUBLIC 1a920 0 std::__ndk1::__put_character_sequence[abi:ne180000]<char, std::__ndk1::char_traits<char> >(std::__ndk1::basic_ostream<char, std::__ndk1::char_traits<char> >, std::__ndk1::basic_ostream const*, unsigned long)
PUBLIC 1aac4 0 std::__ndk1::__pad_and_output[abi:ne180000]<char, std::__ndk1::char_traits<char> >(std::__ndk1::char_traits<char>, std::__ndk1::ostreambuf_iterator const*, std::__ndk1::ostreambuf_iterator const, std::__ndk1::ostreambuf_iterator const, std::__ndk1::ios_base&, std::__ndk1::ostreambuf_iterator)
PUBLIC 1aca0 0 std::__throw_bad_array_new_length([abi:ne180000], void)
PUBLIC 1acd4 0 std::__ndk1::basic_stringbuf<char, std::__ndk1::char_traits<char>, std::__ndk1::allocator<char> >::str[abi:ne180000]() &&
PUBLIC 1ae4c 0 std::__ndk1::basic_stringbuf<char, std::__ndk1::char_traits<char>, std::__ndk1::allocator<char> >::__init_buf_ptrs[abi:ne180000]()
PUBLIC 1af94 0 std::__ndk1::__split_buffer<std::__ndk1::basic_string<char, std::__ndk1::char_traits<char>, std::__ndk1::allocator<char> >, std::__ndk1::allocator<std::__ndk1::basic_string<char, std::__ndk1::char_traits<char>, std::__ndk1::allocator<char> > >&>::~__split_buffer()
PUBLIC 1affc 0 std::__ndk1::vector<std::__ndk1::basic_string<char, std::__ndk1::char_traits<char>, std::__ndk1::allocator<char> >, std::__ndk1::allocator<std::__ndk1::basic_string<char, std::__ndk1::char_traits<char>, std::__ndk1::allocator<char> > > >::__throw_length_error[abi:ne180000]() const
PUBLIC 1b010 0 std::__ndk1::__variant_detail::__visitation::__base::__dispatcher<(unsigned long)0>::__dispatch[abi:ne180000]<std::__ndk1::__variant_detail::__dtor<std::__ndk1::__variant_detail::__traits<geode::Hook*, std::__ndk1::basic_string<char, std::__ndk1::char_traits<char>, std::__ndk1::allocator<char> > >, (std::__ndk1::__variant_detail::_Trait)1>::__destroy[abi:ne180000]()::{lambda(auto:1&)#1}, std::__ndk1::__variant_detail::__base<(std::__ndk1::__variant_detail::__traits<geode::Hook*, std::__ndk1::basic_string<char, std::__ndk1::char_traits<char>, std::__ndk1::allocator<char> > >)1, geode::Hook, std::__ndk1::allocator<char> >&>(std::__ndk1::__variant_detail::__dtor<std::__ndk1::__variant_detail::__traits<geode::Hook*, std::__ndk1::basic_string<char, std::__ndk1::char_traits<char>, std::__ndk1::allocator<char> > >, (std::__ndk1::__variant_detail::_Trait)1>, std::__ndk1::__variant_detail::__base<(std::__ndk1::__variant_detail::__traits<geode::Hook*, std::__ndk1::basic_string<char, std::__ndk1::char_traits<char>, std::__ndk1::allocator<char> > >)1, geode::Hook, std::__ndk1::allocator<char> >&)
PUBLIC 1b014 0 std::__ndk1::__variant_detail::__visitation::__base::__dispatcher<(unsigned long)1>::__dispatch[abi:ne180000]<std::__ndk1::__variant_detail::__dtor<std::__ndk1::__variant_detail::__traits<geode::Hook*, std::__ndk1::basic_string<char, std::__ndk1::char_traits<char>, std::__ndk1::allocator<char> > >, (std::__ndk1::__variant_detail::_Trait)1>::__destroy[abi:ne180000]()::{lambda(auto:1&)#1}, std::__ndk1::__variant_detail::__base<(std::__ndk1::__variant_detail::__traits<geode::Hook*, std::__ndk1::basic_string<char, std::__ndk1::char_traits<char>, std::__ndk1::allocator<char> > >)1, geode::Hook, std::__ndk1::allocator<char> >&>(std::__ndk1::__variant_detail::__dtor<std::__ndk1::__variant_detail::__traits<geode::Hook*, std::__ndk1::basic_string<char, std::__ndk1::char_traits<char>, std::__ndk1::allocator<char> > >, (std::__ndk1::__variant_detail::_Trait)1>, std::__ndk1::__variant_detail::__base<(std::__ndk1::__variant_detail::__traits<geode::Hook*, std::__ndk1::basic_string<char, std::__ndk1::char_traits<char>, std::__ndk1::allocator<char> > >)1, geode::Hook, std::__ndk1::allocator<char> >&)
PUBLIC 1b028 0 std::__ndk1::__tree<std::__ndk1::__value_type<std::__ndk1::basic_string<char, std::__ndk1::char_traits<char>, std::__ndk1::allocator<char> >, std::__ndk1::shared_ptr<geode::Hook> >, std::__ndk1::__map_value_compare<std::__ndk1::basic_string<char, std::__ndk1::char_traits<char>, std::__ndk1::allocator<char> >, std::__ndk1::__value_type<std::__ndk1::basic_string<char, std::__ndk1::char_traits<char>, std::__ndk1::allocator<char> >, std::__ndk1::shared_ptr<geode::Hook> >, std::__ndk1::less<std::__ndk1::basic_string<char, std::__ndk1::char_traits<char>, std::__ndk1::allocator<char> > >, true>, std::__ndk1::allocator<std::__ndk1::__value_type<std::__ndk1::basic_string<char, std::__ndk1::char_traits<char>, std::__ndk1::allocator<char> >, std::__ndk1::shared_ptr<geode::Hook> > > >::destroy(std::__ndk1::__tree_node<std::__ndk1::__value_type<std::__ndk1::basic_string<char, std::__ndk1::char_traits<char>, std::__ndk1::allocator<char> >, std::__ndk1::shared_ptr<geode::Hook> >, void*>*)
PUBLIC 1b0ac 0 geode::modifier::AsStaticFunction_init<ModsLayerExt, bool (ModsLayerExt::*)()>::Impl<bool (ModsLayerExt::*)()>::function(ModsLayerExt*)
PUBLIC 1b1cc 0 geode::addresser::Addresser::addressOfVirtual<bool, cocos2d::CCLayer, >(bool (cocos2d::CCLayer::*)())
PUBLIC 1b274 0 cocos2d::CCLayer::CCLayer(geode::ZeroConstructorType)
PUBLIC 1b2fc 0 std::__ndk1::shared_ptr<tulip::hook::CallingConvention>::~shared_ptr[abi:ne180000]()
PUBLIC 1b34c 0 tulip::hook::HandlerMetadata::~HandlerMetadata()
PUBLIC 1b3b0 0 std::__ndk1::__function::__base<void ()>::~__base()
PUBLIC 1b3b4 0 std::__ndk1::__function::__func<ModsLayerExt::init()::{lambda()#1}, std::__ndk1::allocator<ModsLayerExt::init()::{lambda()#1}>, void ()>::~__func()
PUBLIC 1b3b8 0 std::__ndk1::__function::__func<ModsLayerExt::init()::{lambda()#1}, std::__ndk1::allocator<ModsLayerExt::init()::{lambda()#1}>, void ()>::__clone() const
PUBLIC 1b3ec 0 std::__ndk1::__function::__func<ModsLayerExt::init()::{lambda()#1}, std::__ndk1::allocator<ModsLayerExt::init()::{lambda()#1}>, void ()>::__clone(std::__ndk1::__function::__base<void ()>*) const
PUBLIC 1b400 0 std::__ndk1::__function::__func<ModsLayerExt::init()::{lambda()#1}, std::__ndk1::allocator<ModsLayerExt::init()::{lambda()#1}>, void ()>::destroy()
PUBLIC 1b404 0 std::__ndk1::__function::__func<ModsLayerExt::init()::{lambda()#1}, std::__ndk1::allocator<ModsLayerExt::init()::{lambda()#1}>, void ()>::destroy_deallocate()
PUBLIC 1b408 0 std::__ndk1::__function::__func<ModsLayerExt::init()::{lambda()#1}, std::__ndk1::allocator<ModsLayerExt::init()::{lambda()#1}>, void ()>::operator()()
PUBLIC 1b658 0 std::__ndk1::__function::__func<ModsLayerExt::init()::{lambda()#1}, std::__ndk1::allocator<ModsLayerExt::init()::{lambda()#1}>, void ()>::target(std::type_info const&) const
PUBLIC 1b674 0 std::__ndk1::__function::__func<ModsLayerExt::init()::{lambda()#1}, std::__ndk1::allocator<ModsLayerExt::init()::{lambda()#1}>, void ()>::target_type() const
PUBLIC 1b680 0 std::__ndk1::__function::__func<ModsLayerExt::init()::{lambda()#1}::operator()() const::{lambda(cocos2d::CCNode*)#1}, std::__ndk1::allocator<ModsLayerExt::init()::{lambda()#1}::operator()() const::{lambda(cocos2d::CCNode*)#1}>, void (CCMenuItemSpriteExtra*)>::~__func()
PUBLIC 1b684 0 std::__ndk1::__function::__func<ModsLayerExt::init()::{lambda()#1}::operator()() const::{lambda(cocos2d::CCNode*)#1}, std::__ndk1::allocator<ModsLayerExt::init()::{lambda()#1}::operator()() const::{lambda(cocos2d::CCNode*)#1}>, void (CCMenuItemSpriteExtra*)>::__clone() const
PUBLIC 1b6a8 0 std::__ndk1::__function::__func<ModsLayerExt::init()::{lambda()#1}::operator()() const::{lambda(cocos2d::CCNode*)#1}, std::__ndk1::allocator<ModsLayerExt::init()::{lambda()#1}::operator()() const::{lambda(cocos2d::CCNode*)#1}>, void (CCMenuItemSpriteExtra*)>::__clone(std::__ndk1::__function::__base<void (CCMenuItemSpriteExtra*)>*) const
PUBLIC 1b6b8 0 std::__ndk1::__function::__func<ModsLayerExt::init()::{lambda()#1}::operator()() const::{lambda(cocos2d::CCNode*)#1}, std::__ndk1::allocator<ModsLayerExt::init()::{lambda()#1}::operator()() const::{lambda(cocos2d::CCNode*)#1}>, void (CCMenuItemSpriteExtra*)>::destroy()
PUBLIC 1b6bc 0 std::__ndk1::__function::__func<ModsLayerExt::init()::{lambda()#1}::operator()() const::{lambda(cocos2d::CCNode*)#1}, std::__ndk1::allocator<ModsLayerExt::init()::{lambda()#1}::operator()() const::{lambda(cocos2d::CCNode*)#1}>, void (CCMenuItemSpriteExtra*)>::destroy_deallocate()
PUBLIC 1b6c0 0 std::__ndk1::__function::__func<ModsLayerExt::init()::{lambda()#1}::operator()() const::{lambda(cocos2d::CCNode*)#1}, std::__ndk1::allocator<ModsLayerExt::init()::{lambda()#1}::operator()() const::{lambda(cocos2d::CCNode*)#1}>, void (CCMenuItemSpriteExtra*)>::operator()(CCMenuItemSpriteExtra*&&)
PUBLIC 1b6dc 0 std::__ndk1::__function::__func<ModsLayerExt::init()::{lambda()#1}::operator()() const::{lambda(cocos2d::CCNode*)#1}, std::__ndk1::allocator<ModsLayerExt::init()::{lambda()#1}::operator()() const::{lambda(cocos2d::CCNode*)#1}>, void (CCMenuItemSpriteExtra*)>::target(std::type_info const&) const
PUBLIC 1b6f8 0 std::__ndk1::__function::__func<ModsLayerExt::init()::{lambda()#1}::operator()() const::{lambda(cocos2d::CCNode*)#1}, std::__ndk1::allocator<ModsLayerExt::init()::{lambda()#1}::operator()() const::{lambda(cocos2d::CCNode*)#1}>, void (CCMenuItemSpriteExtra*)>::target_type() const
PUBLIC 1b704 0 std::__ndk1::__tree_balance_after_insert[abi:ne180000]<std::__ndk1::__tree_node_base<void*>*>(std::__ndk1::__tree_node_base<void*>*, std::__ndk1::__tree_node_base<void*>*)
PUBLIC 1b8b4 0 geode::EventListener<geode::ModStateFilter>::getPool() const
PUBLIC 1b8b8 0 geode::EventListener<geode::ModStateFilter>::handle(geode::Event*)
PUBLIC 1ba2c 0 geode::EventListener<geode::ModStateFilter>::~EventListener()
PUBLIC 1ba88 0 geode::EventListener<geode::ModStateFilter>::~EventListener()
PUBLIC 1baec 0 std::__ndk1::__function::__base<void (geode::ModStateEvent*)>::~__base()
PUBLIC 1baf0 0 std::__ndk1::__function::__func<void (*)(geode::ModStateEvent*), std::__ndk1::allocator<void (*)(geode::ModStateEvent*)>, void (geode::ModStateEvent*)>::~__func()
PUBLIC 1baf4 0 std::__ndk1::__function::__func<void (*)(geode::ModStateEvent*), std::__ndk1::allocator<void (*)(geode::ModStateEvent*)>, void (geode::ModStateEvent*)>::__clone() const
PUBLIC 1bb28 0 std::__ndk1::__function::__func<void (*)(geode::ModStateEvent*), std::__ndk1::allocator<void (*)(geode::ModStateEvent*)>, void (geode::ModStateEvent*)>::__clone(std::__ndk1::__function::__base<void (geode::ModStateEvent*)>*) const
PUBLIC 1bb3c 0 std::__ndk1::__function::__func<void (*)(geode::ModStateEvent*), std::__ndk1::allocator<void (*)(geode::ModStateEvent*)>, void (geode::ModStateEvent*)>::destroy()
PUBLIC 1bb40 0 std::__ndk1::__function::__func<void (*)(geode::ModStateEvent*), std::__ndk1::allocator<void (*)(geode::ModStateEvent*)>, void (geode::ModStateEvent*)>::destroy_deallocate()
PUBLIC 1bb44 0 std::__ndk1::__function::__func<void (*)(geode::ModStateEvent*), std::__ndk1::allocator<void (*)(geode::ModStateEvent*)>, void (geode::ModStateEvent*)>::operator()(geode::ModStateEvent*&&)
PUBLIC 1bb54 0 std::__ndk1::__function::__func<void (*)(geode::ModStateEvent*), std::__ndk1::allocator<void (*)(geode::ModStateEvent*)>, void (geode::ModStateEvent*)>::target(std::type_info const&) const
PUBLIC 1bb70 0 std::__ndk1::__function::__func<void (*)(geode::ModStateEvent*), std::__ndk1::allocator<void (*)(geode::ModStateEvent*)>, void (geode::ModStateEvent*)>::target_type() const
PUBLIC 1bb7c 0 _GLOBAL__sub_I_main.cpp
PUBLIC m 1bca8 0 geodeImplicitEntry
PUBLIC 1bce4 0 std::__ndk1::unordered_map<void*, bool, std::__ndk1::hash<void*>, std::__ndk1::equal_to<void*>, std::__ndk1::allocator<std::__ndk1::pair<void* const, bool> > >::~unordered_map[abi:ne180000]()
PUBLIC 1bd30 0 wrapFunction(unsigned long, tulip::hook::WrapperMetadata const&)
PUBLIC 1be64 0 geode::impl::ResultData<void*, std::__ndk1::basic_string<char, std::__ndk1::char_traits<char>, std::__ndk1::allocator<char> > >::unwrapErr() &
PUBLIC 1bedc 0 geode::impl::ResultData<void*, std::__ndk1::basic_string<char, std::__ndk1::char_traits<char>, std::__ndk1::allocator<char> > >::~ResultData()
PUBLIC 1bf50 0 tulip::hook::WrapperMetadata::~WrapperMetadata()
PUBLIC 1bfb4 0 cocos2d::CCObject::CCObject()
PUBLIC 1c1d8 0 cocos2d::CCObject::~CCObject()
PUBLIC 1c1fc 0 cocos2d::CCNode::CCNode()
PUBLIC 1c458 0 cocos2d::CCNode::~CCNode()
PUBLIC 1c47c 0 {virtual override thunk({offset(-320)}, cocos2d::CCLayer::~CCLayer())}
PUBLIC 1c484 0 cocos2d::CCLayer::~CCLayer()
PUBLIC 1c4a8 0 {virtual override thunk({offset(-320)}, cocos2d::CCLayer::~CCLayer())}
PUBLIC 1c4d0 0 cocos2d::CCLayerRGBA::~CCLayerRGBA()
PUBLIC 1c7d0 0 {virtual override thunk({offset(-320)}, cocos2d::CCLayerRGBA::~CCLayerRGBA())}
PUBLIC 1c7d8 0 cocos2d::CCLayerRGBA::~CCLayerRGBA()
PUBLIC 1c7fc 0 {virtual override thunk({offset(-320)}, cocos2d::CCLayerRGBA::~CCLayerRGBA())}
PUBLIC 1c824 0 cocos2d::CCLayerColor::CCLayerColor()
PUBLIC 1ca88 0 {virtual override thunk({offset(-320)}, cocos2d::CCLayerColor::~CCLayerColor())}
PUBLIC 1ca90 0 cocos2d::CCLayerColor::~CCLayerColor()
PUBLIC 1cab4 0 {virtual override thunk({offset(-320)}, cocos2d::CCLayerColor::~CCLayerColor())}
PUBLIC 1cadc 0 {virtual override thunk({offset(-320)}, FLAlertLayer::~FLAlertLayer())}
PUBLIC 1cae4 0 FLAlertLayer::~FLAlertLayer()
PUBLIC 1cb08 0 {virtual override thunk({offset(-320)}, FLAlertLayer::~FLAlertLayer())}
PUBLIC 1cb30 0 CCMenuItemToggler::createWithStandardSprites(cocos2d::CCObject*, void (cocos2d::CCObject::*)(cocos2d::CCObject*), float)
PUBLIC 1cd28 0 cocos2d::CCLayerColor::~CCLayerColor()
PUBLIC 1d00c 0 cocos2d::CCLayer::~CCLayer()
PUBLIC 1d2fc 0 cocos2d::CCNode::~CCNode()
PUBLIC 1d59c 0 FLAlertLayer::~FLAlertLayer()
PUBLIC 1d880 0 cocos2d::CCObject::~CCObject()
PUBLIC 1dd74 0 _ZN5geode15UnwrapExceptionC2IRPvQsr4implE18IsStringStreamableIT_EEENS_4impl5OkTagEOS4_
PUBLIC 1dec8 0 _ZN5geode15UnwrapExceptionC2IRNSt6__ndk112basic_stringIcNS2_11char_traitsIcEENS2_9allocatorIcEEEEQsr4implE18IsStringStreamableIT_EEENS_4impl6ErrTagEOSA_
PUBLIC 1e030 0 std::__ndk1::__variant_detail::__visitation::__base::__dispatcher<(unsigned long)0>::__dispatch[abi:ne180000]<std::__ndk1::__variant_detail::__dtor<std::__ndk1::__variant_detail::__traits<void*, std::__ndk1::basic_string<char, std::__ndk1::char_traits<char>, std::__ndk1::allocator<char> > >, (std::__ndk1::__variant_detail::_Trait)1>::__destroy[abi:ne180000]()::{lambda(auto:1&)#1}, std::__ndk1::__variant_detail::__base<(std::__ndk1::__variant_detail::__traits<void*, std::__ndk1::basic_string<char, std::__ndk1::char_traits<char>, std::__ndk1::allocator<char> > >)1, std::__ndk1::__variant_detail::__traits, std::__ndk1::allocator<char> >&>(std::__ndk1::__variant_detail::__dtor<std::__ndk1::__variant_detail::__traits<void*, std::__ndk1::basic_string<char, std::__ndk1::char_traits<char>, std::__ndk1::allocator<char> > >, (std::__ndk1::__variant_detail::_Trait)1>, std::__ndk1::__variant_detail::__base<(std::__ndk1::__variant_detail::__traits<void*, std::__ndk1::basic_string<char, std::__ndk1::char_traits<char>, std::__ndk1::allocator<char> > >)1, std::__ndk1::__variant_detail::__traits, std::__ndk1::allocator<char> >&)
PUBLIC 1e034 0 std::__ndk1::__variant_detail::__visitation::__base::__dispatcher<(unsigned long)1>::__dispatch[abi:ne180000]<std::__ndk1::__variant_detail::__dtor<std::__ndk1::__variant_detail::__traits<void*, std::__ndk1::basic_string<char, std::__ndk1::char_traits<char>, std::__ndk1::allocator<char> > >, (std::__ndk1::__variant_detail::_Trait)1>::__destroy[abi:ne180000]()::{lambda(auto:1&)#1}, std::__ndk1::__variant_detail::__base<(std::__ndk1::__variant_detail::__traits<void*, std::__ndk1::basic_string<char, std::__ndk1::char_traits<char>, std::__ndk1::allocator<char> > >)1, std::__ndk1::__variant_detail::__traits, std::__ndk1::allocator<char> >&>(std::__ndk1::__variant_detail::__dtor<std::__ndk1::__variant_detail::__traits<void*, std::__ndk1::basic_string<char, std::__ndk1::char_traits<char>, std::__ndk1::allocator<char> > >, (std::__ndk1::__variant_detail::_Trait)1>, std::__ndk1::__variant_detail::__base<(std::__ndk1::__variant_detail::__traits<void*, std::__ndk1::basic_string<char, std::__ndk1::char_traits<char>, std::__ndk1::allocator<char> > >)1, std::__ndk1::__variant_detail::__traits, std::__ndk1::allocator<char> >&)
PUBLIC 1e048 0 std::__ndk1::__hash_table<std::__ndk1::__hash_value_type<void*, bool>, std::__ndk1::__unordered_map_hasher<void*, std::__ndk1::__hash_value_type<void*, bool>, std::__ndk1::hash<void*>, std::__ndk1::equal_to<void*>, true>, std::__ndk1::__unordered_map_equal<void*, std::__ndk1::__hash_value_type<void*, bool>, std::__ndk1::equal_to<void*>, std::__ndk1::hash<void*>, true>, std::__ndk1::allocator<std::__ndk1::__hash_value_type<void*, bool> > >::__emplace_unique_key_args<void*, std::__ndk1::piecewise_construct_t const&, std::__ndk1::tuple<void* const&>, std::__ndk1::tuple<> >(void* const&, std::__ndk1::piecewise_construct_t const&, std::__ndk1::tuple<void* const&>, std::__ndk1::tuple<>)
PUBLIC 1e560 0 <.plt ELF section in alphalaneous.unlog.android64.so>
STACK CFI INIT 15310 10 .cfa: sp 0 +
STACK CFI INIT 15320 8 .cfa: sp 0 +
STACK CFI INIT 15328 8 .cfa: sp 0 +
STACK CFI INIT 15330 14 .cfa: sp 0 +
STACK CFI INIT 15344 1c .cfa: sp 0 +
STACK CFI INIT 15360 10 .cfa: sp 0 +
STACK CFI INIT 15c94 14 .cfa: sp 0 +
STACK CFI 15c98 .cfa: sp 16 +
STACK CFI 15c9c .cfa: x29 16 + .ra: .cfa -8 + ^ x29: .cfa -16 + ^
STACK CFI INIT 15cf8 30 .cfa: sp 0 +
STACK CFI 15cfc .cfa: sp 32 +
STACK CFI 15d04 .cfa: x29 32 + x19: .cfa -16 + ^ .ra: .cfa -24 + ^ x29: .cfa -32 + ^
STACK CFI 15d1c .cfa: sp 32 +
STACK CFI 15d24 .cfa: sp 0 +
STACK CFI INIT 15d28 10 .cfa: sp 0 +
STACK CFI 15d2c .cfa: sp 16 +
STACK CFI 15d30 .cfa: x29 16 + .ra: .cfa -8 + ^ x29: .cfa -16 + ^
STACK CFI INIT 16094 70 .cfa: sp 0 +
STACK CFI 16098 .cfa: sp 48 +
STACK CFI 160a4 .cfa: x29 32 + x19: .cfa -16 + ^ .ra: .cfa -24 + ^ x29: .cfa -32 + ^
STACK CFI 160dc .cfa: sp 48 +
STACK CFI 160e8 .cfa: sp 0 +
STACK CFI 160ec .cfa: x29 32 +
STACK CFI INIT 16104 8 .cfa: sp 0 +
STACK CFI INIT 1610c 5c .cfa: sp 0 +
STACK CFI 16110 .cfa: sp 32 +
STACK CFI 16118 .cfa: x29 32 + x19: .cfa -16 + ^ .ra: .cfa -24 + ^ x29: .cfa -32 + ^
STACK CFI 1615c .cfa: sp 32 +
STACK CFI 16164 .cfa: sp 0 +
STACK CFI INIT 16168 64 .cfa: sp 0 +
STACK CFI 1616c .cfa: sp 32 +
STACK CFI 16174 .cfa: x29 32 + x19: .cfa -16 + ^ .ra: .cfa -24 + ^ x29: .cfa -32 + ^
STACK CFI 161c0 .cfa: sp 32 +
STACK CFI 161c8 .cfa: sp 0 +
STACK CFI INIT 161cc 4 .cfa: sp 0 +
STACK CFI INIT 161d0 34 .cfa: sp 0 +
STACK CFI 161d4 .cfa: sp 16 +
STACK CFI 161d8 .cfa: x29 16 + .ra: .cfa -8 + ^ x29: .cfa -16 + ^
STACK CFI INIT 16204 24 .cfa: sp 0 +
STACK CFI 16208 .cfa: sp 32 +
STACK CFI 16210 .cfa: x29 32 + x19: .cfa -16 + ^ .ra: .cfa -24 + ^ x29: .cfa -32 + ^
STACK CFI 1621c .cfa: sp 32 +
STACK CFI 16224 .cfa: sp 0 +
STACK CFI INIT 16228 24 .cfa: sp 0 +
STACK CFI 1622c .cfa: sp 32 +
STACK CFI 16234 .cfa: x29 32 + x19: .cfa -16 + ^ .ra: .cfa -24 + ^ x29: .cfa -32 + ^
STACK CFI 16240 .cfa: sp 32 +
STACK CFI 16248 .cfa: sp 0 +
STACK CFI INIT 1624c 4 .cfa: sp 0 +
STACK CFI INIT 16250 4 .cfa: sp 0 +
STACK CFI INIT 16254 34 .cfa: sp 0 +
STACK CFI 16258 .cfa: sp 32 +
STACK CFI 16260 .cfa: x29 32 + x19: .cfa -16 + ^ .ra: .cfa -24 + ^ x29: .cfa -32 + ^
STACK CFI 1627c .cfa: sp 32 +
STACK CFI 16284 .cfa: sp 0 +
STACK CFI INIT 16288 14 .cfa: sp 0 +
STACK CFI INIT 1629c 4 .cfa: sp 0 +
STACK CFI INIT 162a0 4 .cfa: sp 0 +
STACK CFI INIT 162a4 8 .cfa: sp 0 +
STACK CFI INIT 162ac 1c .cfa: sp 0 +
STACK CFI INIT 162c8 c .cfa: sp 0 +
STACK CFI INIT 16348 34 .cfa: sp 0 +
STACK CFI 1634c .cfa: sp 16 +
STACK CFI 16350 .cfa: x29 16 + .ra: .cfa -8 + ^ x29: .cfa -16 + ^
STACK CFI INIT 1637c 80 .cfa: sp 0 +
STACK CFI 16380 .cfa: sp 48 +
STACK CFI 1638c .cfa: x29 48 + x19: .cfa -8 + ^ x20: .cfa -16 + ^ x21: .cfa -24 + ^ x22: .cfa -32 + ^ .ra: .cfa -40 + ^ x29: .cfa -48 + ^
STACK CFI 163a4 .cfa: sp 48 +
STACK CFI 163b0 .cfa: sp 0 +
STACK CFI 163b4 .cfa: x29 48 +
STACK CFI 163e4 .cfa: sp 48 +
STACK CFI 163f0 .cfa: sp 0 +
STACK CFI 163f4 .cfa: x29 48 +
STACK CFI INIT 163fc 4 .cfa: sp 0 +
STACK CFI INIT 16400 14 .cfa: sp 0 +
STACK CFI INIT 16414 4 .cfa: sp 0 +
STACK CFI INIT 16418 14 .cfa: sp 0 +
STACK CFI INIT 168c8 708 .cfa: sp 0 +
STACK CFI 168cc .cfa: sp 112 +
STACK CFI 168e8 .cfa: x29 96 + x19: .cfa -8 + ^ x20: .cfa -16 + ^ x21: .cfa -24 + ^ x22: .cfa -32 + ^ x23: .cfa -40 + ^ x24: .cfa -48 + ^ x25: .cfa -56 + ^ x26: .cfa -64 + ^ x27: .cfa -72 + ^ x28: .cfa -80 + ^ .ra: .cfa -88 + ^ x29: .cfa -96 + ^
STACK CFI 16c04 .cfa: sp 112 +
STACK CFI 16c20 .cfa: sp 0 +
STACK CFI 16c24 .cfa: x29 96 +
STACK CFI 16c54 .cfa: sp 112 +
STACK CFI 16c70 .cfa: sp 0 +
STACK CFI 16c74 .cfa: x29 96 +
STACK CFI 16f68 .cfa: sp 112 +
STACK CFI 16f84 .cfa: sp 0 +
STACK CFI 16f88 .cfa: x29 96 +
STACK CFI INIT 1752c 120 .cfa: sp 0 +
STACK CFI 17530 .cfa: sp 64 +
STACK CFI 17540 .cfa: x29 64 + x19: .cfa -8 + ^ x20: .cfa -16 + ^ x21: .cfa -24 + ^ x22: .cfa -32 + ^ x23: .cfa -48 + ^ .ra: .cfa -56 + ^ x29: .cfa -64 + ^
STACK CFI 17638 .cfa: sp 64 +
STACK CFI 17648 .cfa: sp 0 +
STACK CFI INIT 1764c e0 .cfa: sp 0 +
STACK CFI 17650 .cfa: sp 48 +
STACK CFI 1765c .cfa: x29 48 + x19: .cfa -8 + ^ x20: .cfa -16 + ^ x21: .cfa -24 + ^ x22: .cfa -32 + ^ .ra: .cfa -40 + ^ x29: .cfa -48 + ^
STACK CFI 176a0 .cfa: sp 48 +
STACK CFI 176ac .cfa: sp 0 +
STACK CFI 176b0 .cfa: x29 48 +
STACK CFI 176e4 .cfa: sp 48 +
STACK CFI 176f0 .cfa: sp 0 +
STACK CFI 176f4 .cfa: x29 48 +
STACK CFI 1771c .cfa: sp 48 +
STACK CFI 17728 .cfa: sp 0 +
STACK CFI INIT 1772c 1f8 .cfa: sp 0 +
STACK CFI 17730 .cfa: sp 80 +
STACK CFI 17744 .cfa: x29 80 + x19: .cfa -8 + ^ x20: .cfa -16 + ^ x21: .cfa -24 + ^ x22: .cfa -32 + ^ x23: .cfa -40 + ^ x24: .cfa -48 + ^ x25: .cfa -64 + ^ .ra: .cfa -72 + ^ x29: .cfa -80 + ^
STACK CFI 178e8 .cfa: sp 80 +
STACK CFI 178fc .cfa: sp 0 +
STACK CFI 17900 .cfa: x29 80 +
STACK CFI 1790c .cfa: sp 80 +
STACK CFI 17920 .cfa: sp 0 +
STACK CFI INIT 17924 24 .cfa: sp 0 +
STACK CFI 17928 .cfa: sp 32 +
STACK CFI 17930 .cfa: x29 32 + x19: .cfa -16 + ^ .ra: .cfa -24 + ^ x29: .cfa -32 + ^
STACK CFI 1793c .cfa: sp 32 +
STACK CFI 17944 .cfa: sp 0 +
STACK CFI INIT 17948 14 .cfa: sp 0 +
STACK CFI 1794c .cfa: sp 16 +
STACK CFI 17950 .cfa: x29 16 + .ra: .cfa -8 + ^ x29: .cfa -16 + ^
STACK CFI INIT 17960 30 .cfa: sp 0 +
STACK CFI INIT 17990 98 .cfa: sp 0 +
STACK CFI INIT 17a28 59c .cfa: sp 0 +
STACK CFI INIT 17fc4 8c .cfa: sp 0 +
STACK CFI INIT 18050 30 .cfa: sp 0 +
STACK CFI INIT 186c8 50 .cfa: sp 0 +
STACK CFI 186cc .cfa: sp 32 +
STACK CFI 186d4 .cfa: x29 32 + x19: .cfa -16 + ^ .ra: .cfa -24 + ^ x29: .cfa -32 + ^
STACK CFI 1870c .cfa: sp 32 +
STACK CFI 18714 .cfa: sp 0 +
STACK CFI INIT 18914 2c .cfa: sp 0 +
STACK CFI 18918 .cfa: sp 32 +
STACK CFI 18920 .cfa: x29 32 + x19: .cfa -16 + ^ .ra: .cfa -24 + ^ x29: .cfa -32 + ^
STACK CFI 18934 .cfa: sp 32 +
STACK CFI 1893c .cfa: sp 0 +
STACK CFI INIT 18940 28 .cfa: sp 0 +
STACK CFI INIT 18968 4 .cfa: sp 0 +
STACK CFI INIT 1896c 8 .cfa: sp 0 +
STACK CFI INIT 18a54 2c .cfa: sp 0 +
STACK CFI INIT 18a80 4 .cfa: sp 0 +
STACK CFI INIT 18a84 4 .cfa: sp 0 +
STACK CFI INIT 18a88 4 .cfa: sp 0 +
STACK CFI INIT 18a8c 4 .cfa: sp 0 +
STACK CFI INIT 18a90 4 .cfa: sp 0 +
STACK CFI INIT 18a94 8 .cfa: sp 0 +
STACK CFI INIT 18a9c 4 .cfa: sp 0 +
STACK CFI INIT 18c54 4 .cfa: sp 0 +
STACK CFI INIT 18c58 60 .cfa: sp 0 +
STACK CFI 18c5c .cfa: sp 32 +
STACK CFI 18c64 .cfa: x29 32 + x19: .cfa -8 + ^ x20: .cfa -16 + ^ .ra: .cfa -24 + ^ x29: .cfa -32 + ^
STACK CFI 18c84 .cfa: sp 32 +
STACK CFI 18c8c .cfa: sp 0 +
STACK CFI 18c90 .cfa: x29 32 +
STACK CFI 18cac .cfa: sp 32 +
STACK CFI 18cb4 .cfa: sp 0 +
STACK CFI INIT 18cb8 70 .cfa: sp 0 +
STACK CFI 18cbc .cfa: sp 32 +
STACK CFI 18cc4 .cfa: x29 32 + x19: .cfa -8 + ^ x20: .cfa -16 + ^ .ra: .cfa -24 + ^ x29: .cfa -32 + ^
STACK CFI 18cec .cfa: sp 32 +
STACK CFI 18cf4 .cfa: sp 0 +
STACK CFI 18cf8 .cfa: x29 32 +
STACK CFI 18d1c .cfa: sp 32 +
STACK CFI 18d24 .cfa: sp 0 +
STACK CFI INIT 18d28 10 .cfa: sp 0 +
STACK CFI INIT 18d38 30 .cfa: sp 0 +
STACK CFI 18d3c .cfa: sp 32 +
STACK CFI 18d44 .cfa: x29 32 + x19: .cfa -16 + ^ .ra: .cfa -24 + ^ x29: .cfa -32 + ^
STACK CFI 18d5c .cfa: sp 32 +
STACK CFI 18d64 .cfa: sp 0 +
STACK CFI INIT 18d68 4 .cfa: sp 0 +
STACK CFI INIT 18d6c 4 .cfa: sp 0 +
STACK CFI INIT 18d70 104 .cfa: sp 0 +
STACK CFI 18d74 .cfa: sp 64 +
STACK CFI 18d84 .cfa: x29 64 + x19: .cfa -8 + ^ x20: .cfa -16 + ^ x21: .cfa -24 + ^ x22: .cfa -32 + ^ x23: .cfa -48 + ^ .ra: .cfa -56 + ^ x29: .cfa -64 + ^
STACK CFI 18de0 .cfa: sp 64 +
STACK CFI 18df0 .cfa: sp 0 +
STACK CFI 18df4 .cfa: x29 64 +
STACK CFI 18e10 .cfa: sp 64 +
STACK CFI 18e20 .cfa: sp 0 +
STACK CFI 18e24 .cfa: x29 64 +
STACK CFI 18e60 .cfa: sp 64 +
STACK CFI 18e70 .cfa: sp 0 +
STACK CFI INIT 18e74 308 .cfa: sp 0 +
STACK CFI 18e78 .cfa: sp 128 +
STACK CFI 18e90 .cfa: x29 64 + x19: .cfa -8 + ^ x20: .cfa -16 + ^ x21: .cfa -24 + ^ x22: .cfa -32 + ^ x23: .cfa -48 + ^ .ra: .cfa -56 + ^ x29: .cfa -64 + ^ v8: .cfa -72 + ^ v9: .cfa -80 + ^
STACK CFI 190c4 .cfa: sp 128 +
STACK CFI 190dc .cfa: sp 0 +
STACK CFI 190e0 .cfa: x29 64 +
STACK CFI INIT 1a090 18 .cfa: sp 0 +
STACK CFI INIT 1a4b8 50 .cfa: sp 0 +
STACK CFI 1a4bc .cfa: sp 32 +
STACK CFI 1a4c4 .cfa: x29 32 + x19: .cfa -16 + ^ .ra: .cfa -24 + ^ x29: .cfa -32 + ^
STACK CFI 1a4dc .cfa: sp 32 +
STACK CFI 1a4e4 .cfa: sp 0 +
STACK CFI 1a4e8 .cfa: x29 32 +
STACK CFI 1a4fc .cfa: sp 32 +
STACK CFI 1a504 .cfa: sp 0 +
STACK CFI INIT 1a57c 7c .cfa: sp 0 +
STACK CFI 1a580 .cfa: sp 48 +
STACK CFI 1a58c .cfa: x29 48 + x19: .cfa -8 + ^ x20: .cfa -16 + ^ x21: .cfa -32 + ^ .ra: .cfa -40 + ^ x29: .cfa -48 + ^
STACK CFI 1a5d8 .cfa: sp 48 +
STACK CFI 1a5e4 .cfa: sp 0 +
STACK CFI 1a5e8 .cfa: sp 48 +
STACK CFI 1a5f4 .cfa: sp 0 +
STACK CFI INIT 1a5f8 4 .cfa: sp 0 +
STACK CFI INIT 1a87c 80 .cfa: sp 0 +
STACK CFI 1a880 .cfa: sp 48 +
STACK CFI 1a88c .cfa: x29 48 + x19: .cfa -8 + ^ x20: .cfa -16 + ^ x21: .cfa -32 + ^ .ra: .cfa -40 + ^ x29: .cfa -48 + ^
STACK CFI 1a8ec .cfa: sp 48 +
STACK CFI 1a8f8 .cfa: sp 0 +
STACK CFI INIT 1a8fc 24 .cfa: sp 0 +
STACK CFI 1a900 .cfa: sp 32 +
STACK CFI 1a908 .cfa: x29 32 + x19: .cfa -16 + ^ .ra: .cfa -24 + ^ x29: .cfa -32 + ^
STACK CFI 1a914 .cfa: sp 32 +
STACK CFI 1a91c .cfa: sp 0 +
STACK CFI INIT 1aca0 34 .cfa: sp 0 +
STACK CFI 1aca4 .cfa: sp 32 +
STACK CFI 1acac .cfa: x29 32 + x19: .cfa -16 + ^ .ra: .cfa -24 + ^ x29: .cfa -32 + ^
STACK CFI INIT 1ae4c 148 .cfa: sp 0 +
STACK CFI 1ae50 .cfa: sp 48 +
STACK CFI 1ae5c .cfa: x29 48 + x19: .cfa -8 + ^ x20: .cfa -16 + ^ x21: .cfa -32 + ^ .ra: .cfa -40 + ^ x29: .cfa -48 + ^
STACK CFI 1af84 .cfa: sp 48 +
STACK CFI 1af90 .cfa: sp 0 +
STACK CFI INIT 1af94 68 .cfa: sp 0 +
STACK CFI 1af98 .cfa: sp 32 +
STACK CFI 1afa0 .cfa: x29 32 + x19: .cfa -8 + ^ x20: .cfa -16 + ^ .ra: .cfa -24 + ^ x29: .cfa -32 + ^
STACK CFI 1afb8 .cfa: sp 32 +
STACK CFI 1afc0 .cfa: sp 0 +
STACK CFI 1afc4 .cfa: x29 32 +
STACK CFI 1aff0 .cfa: sp 32 +
STACK CFI 1aff8 .cfa: sp 0 +
STACK CFI INIT 1affc 14 .cfa: sp 0 +
STACK CFI 1b000 .cfa: sp 16 +
STACK CFI 1b004 .cfa: x29 16 + .ra: .cfa -8 + ^ x29: .cfa -16 + ^
STACK CFI INIT 1b010 4 .cfa: sp 0 +
STACK CFI INIT 1b014 14 .cfa: sp 0 +
STACK CFI INIT 1b028 84 .cfa: sp 0 +
STACK CFI 1b030 .cfa: sp 32 +
STACK CFI 1b038 .cfa: x29 32 + x19: .cfa -8 + ^ x20: .cfa -16 + ^ .ra: .cfa -24 + ^ x29: .cfa -32 + ^
STACK CFI 1b078 .cfa: sp 32 +
STACK CFI 1b080 .cfa: sp 0 +
STACK CFI 1b088 .cfa: x29 32 +
STACK CFI INIT 1b274 88 .cfa: sp 0 +
STACK CFI INIT 1b2fc 50 .cfa: sp 0 +
STACK CFI 1b300 .cfa: sp 32 +
STACK CFI 1b308 .cfa: x29 32 + x19: .cfa -16 + ^ .ra: .cfa -24 + ^ x29: .cfa -32 + ^
STACK CFI 1b320 .cfa: sp 32 +
STACK CFI 1b328 .cfa: sp 0 +
STACK CFI 1b32c .cfa: x29 32 +
STACK CFI 1b340 .cfa: sp 32 +
STACK CFI 1b348 .cfa: sp 0 +
STACK CFI INIT 1b34c 64 .cfa: sp 0 +
STACK CFI 1b350 .cfa: sp 32 +
STACK CFI 1b358 .cfa: x29 32 + x19: .cfa -16 + ^ .ra: .cfa -24 + ^ x29: .cfa -32 + ^
STACK CFI 1b384 .cfa: sp 32 +
STACK CFI 1b38c .cfa: sp 0 +
STACK CFI 1b390 .cfa: x29 32 +
STACK CFI 1b3a4 .cfa: sp 32 +
STACK CFI 1b3ac .cfa: sp 0 +
STACK CFI INIT 1b3b0 4 .cfa: sp 0 +
STACK CFI INIT 1b3b4 4 .cfa: sp 0 +
STACK CFI INIT 1b3b8 34 .cfa: sp 0 +
STACK CFI 1b3bc .cfa: sp 32 +
STACK CFI 1b3c4 .cfa: x29 32 + x19: .cfa -16 + ^ .ra: .cfa -24 + ^ x29: .cfa -32 + ^
STACK CFI 1b3e0 .cfa: sp 32 +
STACK CFI 1b3e8 .cfa: sp 0 +
STACK CFI INIT 1b3ec 14 .cfa: sp 0 +
STACK CFI INIT 1b400 4 .cfa: sp 0 +
STACK CFI INIT 1b404 4 .cfa: sp 0 +
STACK CFI INIT 1b658 1c .cfa: sp 0 +
STACK CFI INIT 1b674 c .cfa: sp 0 +
STACK CFI INIT 1b680 4 .cfa: sp 0 +
STACK CFI INIT 1b684 24 .cfa: sp 0 +
STACK CFI 1b688 .cfa: sp 16 +
STACK CFI 1b68c .cfa: x29 16 + .ra: .cfa -8 + ^ x29: .cfa -16 + ^
STACK CFI 1b6a0 .cfa: sp 16 +
STACK CFI 1b6a4 .cfa: sp 0 +
STACK CFI INIT 1b6a8 10 .cfa: sp 0 +
STACK CFI INIT 1b6b8 4 .cfa: sp 0 +
STACK CFI INIT 1b6bc 4 .cfa: sp 0 +
STACK CFI INIT 1b6c0 1c .cfa: sp 0 +
STACK CFI 1b6c4 .cfa: sp 16 +
STACK CFI 1b6c8 .cfa: x29 16 + .ra: .cfa -8 + ^ x29: .cfa -16 + ^
STACK CFI 1b6d4 .cfa: sp 16 +
STACK CFI 1b6d8 .cfa: sp 0 +
STACK CFI INIT 1b6dc 1c .cfa: sp 0 +
STACK CFI INIT 1b6f8 c .cfa: sp 0 +
STACK CFI INIT 1b704 1b0 .cfa: sp 0 +
STACK CFI INIT 1b8b4 4 .cfa: sp 0 +
STACK CFI INIT 1ba2c 5c .cfa: sp 0 +
STACK CFI 1ba30 .cfa: sp 32 +
STACK CFI 1ba38 .cfa: x29 32 + x19: .cfa -16 + ^ .ra: .cfa -24 + ^ x29: .cfa -32 + ^
STACK CFI 1ba7c .cfa: sp 32 +
STACK CFI 1ba84 .cfa: sp 0 +
STACK CFI INIT 1ba88 64 .cfa: sp 0 +
STACK CFI 1ba8c .cfa: sp 32 +
STACK CFI 1ba94 .cfa: x29 32 + x19: .cfa -16 + ^ .ra: .cfa -24 + ^ x29: .cfa -32 + ^
STACK CFI 1bae0 .cfa: sp 32 +
STACK CFI 1bae8 .cfa: sp 0 +
STACK CFI INIT 1baec 4 .cfa: sp 0 +
STACK CFI INIT 1baf0 4 .cfa: sp 0 +
STACK CFI INIT 1baf4 34 .cfa: sp 0 +
STACK CFI 1baf8 .cfa: sp 32 +
STACK CFI 1bb00 .cfa: x29 32 + x19: .cfa -16 + ^ .ra: .cfa -24 + ^ x29: .cfa -32 + ^
STACK CFI 1bb1c .cfa: sp 32 +
STACK CFI 1bb24 .cfa: sp 0 +
STACK CFI INIT 1bb28 14 .cfa: sp 0 +
STACK CFI INIT 1bb3c 4 .cfa: sp 0 +
STACK CFI INIT 1bb40 4 .cfa: sp 0 +
STACK CFI INIT 1bb44 10 .cfa: sp 0 +
STACK CFI INIT 1bb54 1c .cfa: sp 0 +
STACK CFI INIT 1bb70 c .cfa: sp 0 +
STACK CFI INIT 1bca8 3c .cfa: sp 0 +
STACK CFI 1bcac .cfa: sp 32 +
STACK CFI 1bcb4 .cfa: x29 32 + x19: .cfa -16 + ^ .ra: .cfa -24 + ^ x29: .cfa -32 + ^
STACK CFI 1bcc0 .cfa: sp 32 +
STACK CFI 1bcc8 .cfa: sp 0 +
STACK CFI 1bccc .cfa: x29 32 +
STACK CFI 1bcd8 .cfa: sp 32 +
STACK CFI 1bce0 .cfa: sp 0 +
STACK CFI INIT 1bce4 4c .cfa: sp 0 +
STACK CFI 1bce8 .cfa: sp 32 +
STACK CFI 1bcf0 .cfa: x29 32 + x19: .cfa -8 + ^ x20: .cfa -16 + ^ .ra: .cfa -24 + ^ x29: .cfa -32 + ^
STACK CFI 1bd18 .cfa: sp 32 +
STACK CFI 1bd20 .cfa: sp 0 +
STACK CFI 1bd24 .cfa: sp 32 +
STACK CFI 1bd2c .cfa: sp 0 +
STACK CFI INIT 1bf50 64 .cfa: sp 0 +
STACK CFI 1bf54 .cfa: sp 32 +
STACK CFI 1bf5c .cfa: x29 32 + x19: .cfa -16 + ^ .ra: .cfa -24 + ^ x29: .cfa -32 + ^
STACK CFI 1bf88 .cfa: sp 32 +
STACK CFI 1bf90 .cfa: sp 0 +
STACK CFI 1bf94 .cfa: x29 32 +
STACK CFI 1bfa8 .cfa: sp 32 +
STACK CFI 1bfb0 .cfa: sp 0 +
STACK CFI INIT 1c1d8 24 .cfa: sp 0 +
STACK CFI 1c1dc .cfa: sp 32 +
STACK CFI 1c1e4 .cfa: x29 32 + x19: .cfa -16 + ^ .ra: .cfa -24 + ^ x29: .cfa -32 + ^
STACK CFI 1c1f0 .cfa: sp 32 +
STACK CFI 1c1f8 .cfa: sp 0 +
STACK CFI INIT 1c458 24 .cfa: sp 0 +
STACK CFI 1c45c .cfa: sp 32 +
STACK CFI 1c464 .cfa: x29 32 + x19: .cfa -16 + ^ .ra: .cfa -24 + ^ x29: .cfa -32 + ^
STACK CFI 1c470 .cfa: sp 32 +
STACK CFI 1c478 .cfa: sp 0 +
STACK CFI INIT 1c47c 8 .cfa: sp 0 +
STACK CFI INIT 1c484 24 .cfa: sp 0 +
STACK CFI 1c488 .cfa: sp 32 +
STACK CFI 1c490 .cfa: x29 32 + x19: .cfa -16 + ^ .ra: .cfa -24 + ^ x29: .cfa -32 + ^
STACK CFI 1c49c .cfa: sp 32 +
STACK CFI 1c4a4 .cfa: sp 0 +
STACK CFI INIT 1c4a8 28 .cfa: sp 0 +
STACK CFI 1c4ac .cfa: sp 32 +
STACK CFI 1c4b4 .cfa: x29 32 + x19: .cfa -16 + ^ .ra: .cfa -24 + ^ x29: .cfa -32 + ^
STACK CFI 1c4c4 .cfa: sp 32 +
STACK CFI 1c4cc .cfa: sp 0 +
STACK CFI INIT 1c7d0 8 .cfa: sp 0 +
STACK CFI INIT 1c7d8 24 .cfa: sp 0 +
STACK CFI 1c7dc .cfa: sp 32 +
STACK CFI 1c7e4 .cfa: x29 32 + x19: .cfa -16 + ^ .ra: .cfa -24 + ^ x29: .cfa -32 + ^
STACK CFI 1c7f0 .cfa: sp 32 +
STACK CFI 1c7f8 .cfa: sp 0 +
STACK CFI INIT 1c7fc 28 .cfa: sp 0 +
STACK CFI 1c800 .cfa: sp 32 +
STACK CFI 1c808 .cfa: x29 32 + x19: .cfa -16 + ^ .ra: .cfa -24 + ^ x29: .cfa -32 + ^
STACK CFI 1c818 .cfa: sp 32 +
STACK CFI 1c820 .cfa: sp 0 +
STACK CFI INIT 1ca88 8 .cfa: sp 0 +
STACK CFI INIT 1ca90 24 .cfa: sp 0 +
STACK CFI 1ca94 .cfa: sp 32 +
STACK CFI 1ca9c .cfa: x29 32 + x19: .cfa -16 + ^ .ra: .cfa -24 + ^ x29: .cfa -32 + ^
STACK CFI 1caa8 .cfa: sp 32 +
STACK CFI 1cab0 .cfa: sp 0 +
STACK CFI INIT 1cab4 28 .cfa: sp 0 +
STACK CFI 1cab8 .cfa: sp 32 +
STACK CFI 1cac0 .cfa: x29 32 + x19: .cfa -16 + ^ .ra: .cfa -24 + ^ x29: .cfa -32 + ^
STACK CFI 1cad0 .cfa: sp 32 +
STACK CFI 1cad8 .cfa: sp 0 +
STACK CFI INIT 1cadc 8 .cfa: sp 0 +
STACK CFI INIT 1cae4 24 .cfa: sp 0 +
STACK CFI 1cae8 .cfa: sp 32 +
STACK CFI 1caf0 .cfa: x29 32 + x19: .cfa -16 + ^ .ra: .cfa -24 + ^ x29: .cfa -32 + ^
STACK CFI 1cafc .cfa: sp 32 +
STACK CFI 1cb04 .cfa: sp 0 +
STACK CFI INIT 1cb08 28 .cfa: sp 0 +
STACK CFI 1cb0c .cfa: sp 32 +
STACK CFI 1cb14 .cfa: x29 32 + x19: .cfa -16 + ^ .ra: .cfa -24 + ^ x29: .cfa -32 + ^
STACK CFI 1cb24 .cfa: sp 32 +
STACK CFI 1cb2c .cfa: sp 0 +
STACK CFI INIT 1cb30 1f8 .cfa: sp 0 +
STACK CFI 1cb34 .cfa: sp 112 +
STACK CFI 1cb54 .cfa: x29 72 + x19: .cfa -8 + ^ x20: .cfa -16 + ^ x21: .cfa -24 + ^ x22: .cfa -32 + ^ x23: .cfa -40 + ^ x24: .cfa -48 + ^ x25: .cfa -56 + ^ .ra: .cfa -64 + ^ x29: .cfa -72 + ^ v8: .cfa -80 + ^ v9: .cfa -88 + ^ v10: .cfa -96 + ^
STACK CFI 1cd00 .cfa: sp 112 +
STACK CFI 1cd20 .cfa: sp 0 +
STACK CFI 1cd24 .cfa: x29 72 +
STACK CFI INIT 1e030 4 .cfa: sp 0 +
STACK CFI INIT 1e034 14 .cfa: sp 0 +
STACK CFI INIT 15370 598 .cfa: sp 0 +
STACK CFI 15374 .cfa: sp 192 +
STACK CFI 15390 .cfa: x29 80 + x19: .cfa -8 + ^ x20: .cfa -16 + ^ x21: .cfa -24 + ^ x22: .cfa -32 + ^ x23: .cfa -40 + ^ x24: .cfa -48 + ^ x25: .cfa -64 + ^ .ra: .cfa -72 + ^ x29: .cfa -80 + ^ v8: .cfa -88 + ^ v9: .cfa -96 + ^
STACK CFI 15878 .cfa: sp 192 +
STACK CFI 15894 .cfa: sp 0 +
STACK CFI 15898 .cfa: x29 80 +
STACK CFI INIT 15908 13c .cfa: sp 0 +
STACK CFI 1590c .cfa: sp 112 +
STACK CFI 1591c .cfa: x29 48 + x19: .cfa -8 + ^ x20: .cfa -16 + ^ x21: .cfa -32 + ^ .ra: .cfa -40 + ^ x29: .cfa -48 + ^
STACK CFI 159dc .cfa: sp 112 +
STACK CFI 159ec .cfa: sp 0 +
STACK CFI 159f0 .cfa: x29 48 +
STACK CFI INIT 15a44 250 .cfa: sp 0 +
STACK CFI 15a48 .cfa: sp 208 +
STACK CFI 15a5c .cfa: x29 64 + x19: .cfa -8 + ^ x20: .cfa -16 + ^ x21: .cfa -24 + ^ x22: .cfa -32 + ^ x23: .cfa -40 + ^ x24: .cfa -48 + ^ .ra: .cfa -56 + ^ x29: .cfa -64 + ^
STACK CFI 15c0c .cfa: sp 208 +
STACK CFI 15c20 .cfa: sp 0 +
STACK CFI 15c24 .cfa: x29 64 +
STACK CFI INIT 15ca8 50 .cfa: sp 0 +
STACK CFI 15cac .cfa: sp 32 +
STACK CFI 15cb4 .cfa: x29 32 + x19: .cfa -8 + ^ x20: .cfa -16 + ^ .ra: .cfa -24 + ^ x29: .cfa -32 + ^
STACK CFI INIT 15d38 194 .cfa: sp 0 +
STACK CFI 15d3c .cfa: sp 144 +
STACK CFI 15d4c .cfa: x29 48 + x19: .cfa -8 + ^ x20: .cfa -16 + ^ x21: .cfa -24 + ^ x22: .cfa -32 + ^ .ra: .cfa -40 + ^ x29: .cfa -48 + ^
STACK CFI 15e4c .cfa: sp 144 +
STACK CFI 15e5c .cfa: sp 0 +
STACK CFI 15e60 .cfa: x29 48 +
STACK CFI INIT 15ecc 1c8 .cfa: sp 0 +
STACK CFI 15ed0 .cfa: sp 112 +
STACK CFI 15ee0 .cfa: x29 48 + x19: .cfa -8 + ^ x20: .cfa -16 + ^ x21: .cfa -24 + ^ x22: .cfa -32 + ^ .ra: .cfa -40 + ^ x29: .cfa -48 + ^
STACK CFI 16034 .cfa: sp 112 +
STACK CFI 16044 .cfa: sp 0 +
STACK CFI 16048 .cfa: x29 48 +
STACK CFI INIT 162d4 74 .cfa: sp 0 +
STACK CFI 162d8 .cfa: sp 48 +
STACK CFI 162e4 .cfa: x29 32 + x19: .cfa -8 + ^ x20: .cfa -16 + ^ .ra: .cfa -24 + ^ x29: .cfa -32 + ^
STACK CFI 16330 .cfa: sp 48 +
STACK CFI 1633c .cfa: sp 0 +
STACK CFI 16340 .cfa: x29 32 +
STACK CFI INIT 1642c 31c .cfa: sp 0 +
STACK CFI 16430 .cfa: sp 112 +
STACK CFI 16448 .cfa: x29 80 + x19: .cfa -8 + ^ x20: .cfa -16 + ^ x21: .cfa -24 + ^ x22: .cfa -32 + ^ x23: .cfa -40 + ^ x24: .cfa -48 + ^ x25: .cfa -56 + ^ x26: .cfa -64 + ^ .ra: .cfa -72 + ^ x29: .cfa -80 + ^
STACK CFI 16704 .cfa: sp 112 +
STACK CFI 1671c .cfa: sp 0 +
STACK CFI 16720 .cfa: x29 80 +
STACK CFI INIT 16748 180 .cfa: sp 0 +
STACK CFI 1674c .cfa: sp 112 +
STACK CFI 16764 .cfa: x29 80 + x19: .cfa -8 + ^ x20: .cfa -16 + ^ x21: .cfa -24 + ^ x22: .cfa -32 + ^ x23: .cfa -40 + ^ x24: .cfa -48 + ^ x25: .cfa -64 + ^ .ra: .cfa -72 + ^ x29: .cfa -80 + ^
STACK CFI 16844 .cfa: sp 112 +
STACK CFI 1685c .cfa: sp 0 +
STACK CFI 16860 .cfa: x29 80 +
STACK CFI INIT 16fd0 55c .cfa: sp 0 +
STACK CFI 16fd4 .cfa: sp 176 +
STACK CFI 16fe8 .cfa: x29 64 + x19: .cfa -8 + ^ x20: .cfa -16 + ^ x21: .cfa -24 + ^ x22: .cfa -32 + ^ x23: .cfa -40 + ^ x24: .cfa -48 + ^ .ra: .cfa -56 + ^ x29: .cfa -64 + ^
STACK CFI 17460 .cfa: sp 176 +
STACK CFI 17474 .cfa: sp 0 +
STACK CFI 17478 .cfa: x29 64 +
STACK CFI INIT 18080 160 .cfa: sp 0 +
STACK CFI 18084 .cfa: sp 96 +
STACK CFI 18098 .cfa: x29 48 + x19: .cfa -8 + ^ x20: .cfa -16 + ^ x21: .cfa -24 + ^ x22: .cfa -32 + ^ .ra: .cfa -40 + ^ x29: .cfa -48 + ^ v8: .cfa -56 + ^ v9: .cfa -64 + ^
STACK CFI 18198 .cfa: sp 96 +
STACK CFI 181ac .cfa: sp 0 +
STACK CFI 181b0 .cfa: x29 48 +
STACK CFI INIT 181e0 134 .cfa: sp 0 +
STACK CFI 181e4 .cfa: sp 80 +
STACK CFI 181f4 .cfa: x29 48 + x19: .cfa -8 + ^ x20: .cfa -16 + ^ x21: .cfa -24 + ^ x22: .cfa -32 + ^ .ra: .cfa -40 + ^ x29: .cfa -48 + ^
STACK CFI 182f8 .cfa: sp 80 +
STACK CFI 18308 .cfa: sp 0 +
STACK CFI 1830c .cfa: x29 48 +
STACK CFI INIT 18314 14c .cfa: sp 0 +
STACK CFI 18318 .cfa: sp 80 +
STACK CFI 1832c .cfa: x29 48 + x19: .cfa -8 + ^ x20: .cfa -16 + ^ x21: .cfa -24 + ^ x22: .cfa -32 + ^ .ra: .cfa -40 + ^ x29: .cfa -48 + ^ v8: .cfa -64 + ^
STACK CFI 1841c .cfa: sp 80 +
STACK CFI 18430 .cfa: sp 0 +
STACK CFI 18434 .cfa: x29 48 +
STACK CFI INIT 18460 268 .cfa: sp 0 +
STACK CFI 18464 .cfa: sp 128 +
STACK CFI 18474 .cfa: x29 48 + x19: .cfa -8 + ^ x20: .cfa -16 + ^ x21: .cfa -32 + ^ .ra: .cfa -40 + ^ x29: .cfa -48 + ^
STACK CFI 1866c .cfa: sp 128 +
STACK CFI 1867c .cfa: sp 0 +
STACK CFI 18680 .cfa: x29 48 +
STACK CFI INIT 18718 11c .cfa: sp 0 +
STACK CFI 1871c .cfa: sp 32 +
STACK CFI 18724 .cfa: x29 32 + x19: .cfa -8 + ^ x20: .cfa -16 + ^ .ra: .cfa -24 + ^ x29: .cfa -32 + ^
STACK CFI 187f0 .cfa: sp 32 +
STACK CFI 187f8 .cfa: sp 0 +
STACK CFI 187fc .cfa: x29 32 +
STACK CFI 18814 .cfa: sp 32 +
STACK CFI 1881c .cfa: sp 0 +
STACK CFI 18820 .cfa: x29 32 +
STACK CFI INIT 18834 6c .cfa: sp 0 +
STACK CFI 18838 .cfa: sp 32 +
STACK CFI 18840 .cfa: x29 32 + x19: .cfa -16 + ^ .ra: .cfa -24 + ^ x29: .cfa -32 + ^
STACK CFI 18890 .cfa: sp 32 +
STACK CFI 18898 .cfa: sp 0 +
STACK CFI 1889c .cfa: x29 32 +
STACK CFI INIT 188a0 74 .cfa: sp 0 +
STACK CFI 188a4 .cfa: sp 32 +
STACK CFI 188ac .cfa: x29 32 + x19: .cfa -16 + ^ .ra: .cfa -24 + ^ x29: .cfa -32 + ^
STACK CFI 18904 .cfa: sp 32 +
STACK CFI 1890c .cfa: sp 0 +
STACK CFI 18910 .cfa: x29 32 +
STACK CFI INIT 18974 6c .cfa: sp 0 +
STACK CFI 18978 .cfa: sp 32 +
STACK CFI 18980 .cfa: x29 32 + x19: .cfa -16 + ^ .ra: .cfa -24 + ^ x29: .cfa -32 + ^
STACK CFI 189d0 .cfa: sp 32 +
STACK CFI 189d8 .cfa: sp 0 +
STACK CFI 189dc .cfa: x29 32 +
STACK CFI INIT 189e0 74 .cfa: sp 0 +
STACK CFI 189e4 .cfa: sp 32 +
STACK CFI 189ec .cfa: x29 32 + x19: .cfa -16 + ^ .ra: .cfa -24 + ^ x29: .cfa -32 + ^
STACK CFI 18a44 .cfa: sp 32 +
STACK CFI 18a4c .cfa: sp 0 +
STACK CFI 18a50 .cfa: x29 32 +
STACK CFI INIT 18aa0 148 .cfa: sp 0 +
STACK CFI 18aa4 .cfa: sp 96 +
STACK CFI 18ab4 .cfa: x29 48 + x19: .cfa -8 + ^ x20: .cfa -16 + ^ x21: .cfa -32 + ^ .ra: .cfa -40 + ^ x29: .cfa -48 + ^
STACK CFI 18b9c .cfa: sp 96 +
STACK CFI 18bac .cfa: sp 0 +
STACK CFI 18bb0 .cfa: x29 48 +
STACK CFI INIT 18be8 6c .cfa: sp 0 +
STACK CFI 18bec .cfa: sp 32 +
STACK CFI 18bf4 .cfa: x29 32 + x19: .cfa -16 + ^ .ra: .cfa -24 + ^ x29: .cfa -32 + ^
STACK CFI 18c44 .cfa: sp 32 +
STACK CFI 18c4c .cfa: sp 0 +
STACK CFI 18c50 .cfa: x29 32 +
STACK CFI INIT 1917c 1c .cfa: sp 0 +
STACK CFI 19180 .cfa: sp 16 +
STACK CFI 19184 .cfa: x29 16 + .ra: .cfa -8 + ^ x29: .cfa -16 + ^
STACK CFI 1918c .cfa: sp 16 +
STACK CFI 19190 .cfa: sp 0 +
STACK CFI 19194 .cfa: x29 16 +
STACK CFI INIT 19198 324 .cfa: sp 0 +
STACK CFI 1919c .cfa: sp 288 +
STACK CFI 191b8 .cfa: x29 96 + x19: .cfa -8 + ^ x20: .cfa -16 + ^ x21: .cfa -24 + ^ x22: .cfa -32 + ^ x23: .cfa -40 + ^ x24: .cfa -48 + ^ x25: .cfa -56 + ^ x26: .cfa -64 + ^ x27: .cfa -72 + ^ x28: .cfa -80 + ^ .ra: .cfa -88 + ^ x29: .cfa -96 + ^
STACK CFI 193cc .cfa: sp 288 +
STACK CFI 193e8 .cfa: sp 0 +
STACK CFI 193ec .cfa: x29 96 +
STACK CFI INIT 194bc bd4 .cfa: sp 0 +
STACK CFI 194c0 .cfa: sp 240 +
STACK CFI 194dc .cfa: x29 96 + x19: .cfa -8 + ^ x20: .cfa -16 + ^ x21: .cfa -24 + ^ x22: .cfa -32 + ^ x23: .cfa -40 + ^ x24: .cfa -48 + ^ x25: .cfa -56 + ^ x26: .cfa -64 + ^ x27: .cfa -72 + ^ x28: .cfa -80 + ^ .ra: .cfa -88 + ^ x29: .cfa -96 + ^
STACK CFI 198b8 .cfa: sp 240 +
STACK CFI 198d4 .cfa: sp 0 +
STACK CFI 198d8 .cfa: x29 96 +
STACK CFI 19f38 .cfa: sp 240 +
STACK CFI 19f54 .cfa: sp 0 +
STACK CFI 19f58 .cfa: x29 96 +
STACK CFI INIT 1a0a8 410 .cfa: sp 0 +
STACK CFI 1a0ac .cfa: sp 224 +
STACK CFI 1a0c8 .cfa: x29 96 + x19: .cfa -8 + ^ x20: .cfa -16 + ^ x21: .cfa -24 + ^ x22: .cfa -32 + ^ x23: .cfa -40 + ^ x24: .cfa -48 + ^ x25: .cfa -56 + ^ x26: .cfa -64 + ^ x27: .cfa -80 + ^ .ra: .cfa -88 + ^ x29: .cfa -96 + ^
STACK CFI 1a3a4 .cfa: sp 224 +
STACK CFI 1a3c0 .cfa: sp 0 +
STACK CFI 1a3c4 .cfa: x29 96 +
STACK CFI INIT 1a508 74 .cfa: sp 0 +
STACK CFI 1a50c .cfa: sp 48 +
STACK CFI 1a518 .cfa: x29 32 + x19: .cfa -8 + ^ x20: .cfa -16 + ^ .ra: .cfa -24 + ^ x29: .cfa -32 + ^
STACK CFI 1a564 .cfa: sp 48 +
STACK CFI 1a570 .cfa: sp 0 +
STACK CFI 1a574 .cfa: x29 32 +
STACK CFI INIT 1a5fc 154 .cfa: sp 0 +
STACK CFI 1a600 .cfa: sp 384 +
STACK CFI 1a614 .cfa: x29 64 + x19: .cfa -8 + ^ x20: .cfa -16 + ^ x21: .cfa -24 + ^ x22: .cfa -32 + ^ x23: .cfa -40 + ^ x28: .cfa -48 + ^ .ra: .cfa -56 + ^ x29: .cfa -64 + ^
STACK CFI 1a6f8 .cfa: sp 384 +
STACK CFI 1a70c .cfa: sp 0 +
STACK CFI 1a710 .cfa: x29 64 +
STACK CFI INIT 1a750 12c .cfa: sp 0 +
STACK CFI 1a754 .cfa: sp 80 +
STACK CFI 1a768 .cfa: x29 80 + x19: .cfa -8 + ^ x20: .cfa -16 + ^ x21: .cfa -24 + ^ x22: .cfa -32 + ^ x23: .cfa -40 + ^ x24: .cfa -48 + ^ x25: .cfa -56 + ^ x26: .cfa -64 + ^ .ra: .cfa -72 + ^ x29: .cfa -80 + ^
STACK CFI 1a830 .cfa: sp 80 +
STACK CFI 1a844 .cfa: sp 0 +
STACK CFI 1a848 .cfa: x29 80 +
STACK CFI INIT 1a920 1a4 .cfa: sp 0 +
STACK CFI 1a924 .cfa: sp 112 +
STACK CFI 1a93c .cfa: x29 80 + x19: .cfa -8 + ^ x20: .cfa -16 + ^ x21: .cfa -24 + ^ x22: .cfa -32 + ^ x23: .cfa -40 + ^ x24: .cfa -48 + ^ x25: .cfa -56 + ^ x26: .cfa -64 + ^ .ra: .cfa -72 + ^ x29: .cfa -80 + ^
STACK CFI 1aa2c .cfa: sp 112 +
STACK CFI 1aa44 .cfa: sp 0 +
STACK CFI 1aa48 .cfa: x29 80 +
STACK CFI INIT 1aac4 1dc .cfa: sp 0 +
STACK CFI 1aac8 .cfa: sp 128 +
STACK CFI 1aae4 .cfa: x29 96 + x19: .cfa -8 + ^ x20: .cfa -16 + ^ x21: .cfa -24 + ^ x22: .cfa -32 + ^ x23: .cfa -40 + ^ x24: .cfa -48 + ^ x25: .cfa -56 + ^ x26: .cfa -64 + ^ x27: .cfa -80 + ^ .ra: .cfa -88 + ^ x29: .cfa -96 + ^
STACK CFI 1ac50 .cfa: sp 128 +
STACK CFI 1ac6c .cfa: sp 0 +
STACK CFI 1ac70 .cfa: x29 96 +
STACK CFI INIT 1acd4 178 .cfa: sp 0 +
STACK CFI 1acd8 .cfa: sp 80 +
STACK CFI 1acec .cfa: x29 80 + x19: .cfa -8 + ^ x20: .cfa -16 + ^ x21: .cfa -24 + ^ x22: .cfa -32 + ^ x23: .cfa -40 + ^ x24: .cfa -48 + ^ x25: .cfa -64 + ^ .ra: .cfa -72 + ^ x29: .cfa -80 + ^
STACK CFI 1ae18 .cfa: sp 80 +
STACK CFI 1ae2c .cfa: sp 0 +
STACK CFI 1ae30 .cfa: x29 80 +
STACK CFI INIT 1b0ac 120 .cfa: sp 0 +
STACK CFI 1b0b0 .cfa: sp 112 +
STACK CFI 1b0c0 .cfa: x29 48 + x19: .cfa -8 + ^ x20: .cfa -16 + ^ x21: .cfa -24 + ^ x22: .cfa -32 + ^ .ra: .cfa -40 + ^ x29: .cfa -48 + ^
STACK CFI 1b168 .cfa: sp 112 +
STACK CFI 1b178 .cfa: sp 0 +
STACK CFI 1b17c .cfa: x29 48 +
STACK CFI INIT 1b1cc a8 .cfa: sp 0 +
STACK CFI 1b1d0 .cfa: sp 32 +
STACK CFI 1b1d8 .cfa: x29 32 + x19: .cfa -16 + ^ .ra: .cfa -24 + ^ x29: .cfa -32 + ^
STACK CFI 1b20c .cfa: sp 32 +
STACK CFI 1b214 .cfa: sp 0 +
STACK CFI 1b218 .cfa: x29 32 +
STACK CFI 1b21c .cfa: sp 32 +
STACK CFI 1b224 .cfa: sp 0 +
STACK CFI 1b228 .cfa: x29 32 +
STACK CFI INIT 1b408 250 .cfa: sp 0 +
STACK CFI 1b40c .cfa: sp 144 +
STACK CFI 1b41c .cfa: x29 48 + x19: .cfa -8 + ^ x20: .cfa -16 + ^ x21: .cfa -24 + ^ x22: .cfa -32 + ^ .ra: .cfa -40 + ^ x29: .cfa -48 + ^
STACK CFI 1b5c8 .cfa: sp 144 +
STACK CFI 1b5d8 .cfa: sp 0 +
STACK CFI 1b5dc .cfa: x29 48 +
STACK CFI INIT 1b8b8 174 .cfa: sp 0 +
STACK CFI 1b8bc .cfa: sp 112 +
STACK CFI 1b8cc .cfa: x29 48 + x19: .cfa -8 + ^ x20: .cfa -16 + ^ x21: .cfa -32 + ^ .ra: .cfa -40 + ^ x29: .cfa -48 + ^
STACK CFI 1b9c8 .cfa: sp 112 +
STACK CFI 1b9d8 .cfa: sp 0 +
STACK CFI 1b9dc .cfa: x29 48 +
STACK CFI INIT 1bb7c 12c .cfa: sp 0 +
STACK CFI 1bb80 .cfa: sp 80 +
STACK CFI 1bb90 .cfa: x29 48 + x19: .cfa -8 + ^ x20: .cfa -16 + ^ x21: .cfa -32 + ^ .ra: .cfa -40 + ^ x29: .cfa -48 + ^
STACK CFI 1bc28 .cfa: sp 80 +
STACK CFI 1bc38 .cfa: sp 0 +
STACK CFI 1bc3c .cfa: x29 48 +
STACK CFI INIT 1bd30 134 .cfa: sp 0 +
STACK CFI 1bd34 .cfa: sp 80 +
STACK CFI 1bd40 .cfa: x29 32 + x19: .cfa -8 + ^ x20: .cfa -16 + ^ .ra: .cfa -24 + ^ x29: .cfa -32 + ^
STACK CFI 1bd70 .cfa: sp 80 +
STACK CFI 1bd7c .cfa: sp 0 +
STACK CFI 1bd80 .cfa: x29 32 +
STACK CFI INIT 1be64 78 .cfa: sp 0 +
STACK CFI 1be68 .cfa: sp 32 +
STACK CFI 1be70 .cfa: x29 32 + x19: .cfa -8 + ^ x20: .cfa -16 + ^ .ra: .cfa -24 + ^ x29: .cfa -32 + ^
STACK CFI 1be7c .cfa: sp 32 +
STACK CFI 1be84 .cfa: sp 0 +
STACK CFI 1be88 .cfa: x29 32 +
STACK CFI INIT 1bedc 74 .cfa: sp 0 +
STACK CFI 1bee0 .cfa: sp 48 +
STACK CFI 1beec .cfa: x29 32 + x19: .cfa -8 + ^ x20: .cfa -16 + ^ .ra: .cfa -24 + ^ x29: .cfa -32 + ^
STACK CFI 1bf38 .cfa: sp 48 +
STACK CFI 1bf44 .cfa: sp 0 +
STACK CFI 1bf48 .cfa: x29 32 +
STACK CFI INIT 1bfb4 224 .cfa: sp 0 +
STACK CFI 1bfb8 .cfa: sp 128 +
STACK CFI 1bfc8 .cfa: x29 48 + x19: .cfa -8 + ^ x20: .cfa -16 + ^ x21: .cfa -32 + ^ .ra: .cfa -40 + ^ x29: .cfa -48 + ^
STACK CFI 1c078 .cfa: sp 128 +
STACK CFI 1c088 .cfa: sp 0 +
STACK CFI 1c08c .cfa: x29 48 +
STACK CFI INIT 1c1fc 25c .cfa: sp 0 +
STACK CFI 1c200 .cfa: sp 128 +
STACK CFI 1c210 .cfa: x29 48 + x19: .cfa -8 + ^ x20: .cfa -16 + ^ x21: .cfa -32 + ^ .ra: .cfa -40 + ^ x29: .cfa -48 + ^
STACK CFI 1c2f8 .cfa: sp 128 +
STACK CFI 1c308 .cfa: sp 0 +
STACK CFI 1c30c .cfa: x29 48 +
STACK CFI INIT 1c4d0 300 .cfa: sp 0 +
STACK CFI 1c4d4 .cfa: sp 144 +
STACK CFI 1c4e8 .cfa: x29 64 + x19: .cfa -8 + ^ x20: .cfa -16 + ^ x21: .cfa -24 + ^ x22: .cfa -32 + ^ x23: .cfa -48 + ^ .ra: .cfa -56 + ^ x29: .cfa -64 + ^
STACK CFI 1c67c .cfa: sp 144 +
STACK CFI 1c690 .cfa: sp 0 +
STACK CFI 1c694 .cfa: x29 64 +
STACK CFI INIT 1c824 264 .cfa: sp 0 +
STACK CFI 1c828 .cfa: sp 128 +
STACK CFI 1c838 .cfa: x29 48 + x19: .cfa -8 + ^ x20: .cfa -16 + ^ x21: .cfa -32 + ^ .ra: .cfa -40 + ^ x29: .cfa -48 + ^
STACK CFI 1c930 .cfa: sp 128 +
STACK CFI 1c940 .cfa: sp 0 +
STACK CFI 1c944 .cfa: x29 48 +
STACK CFI INIT 1cd28 2e4 .cfa: sp 0 +
STACK CFI 1cd2c .cfa: sp 144 +
STACK CFI 1cd40 .cfa: x29 64 + x19: .cfa -8 + ^ x20: .cfa -16 + ^ x21: .cfa -24 + ^ x22: .cfa -32 + ^ x23: .cfa -48 + ^ .ra: .cfa -56 + ^ x29: .cfa -64 + ^
STACK CFI 1ceb8 .cfa: sp 144 +
STACK CFI 1cecc .cfa: sp 0 +
STACK CFI 1ced0 .cfa: x29 64 +
STACK CFI INIT 1d00c 2f0 .cfa: sp 0 +
STACK CFI 1d010 .cfa: sp 144 +
STACK CFI 1d024 .cfa: x29 64 + x19: .cfa -8 + ^ x20: .cfa -16 + ^ x21: .cfa -24 + ^ x22: .cfa -32 + ^ x23: .cfa -48 + ^ .ra: .cfa -56 + ^ x29: .cfa -64 + ^
STACK CFI 1d1a8 .cfa: sp 144 +
STACK CFI 1d1bc .cfa: sp 0 +
STACK CFI 1d1c0 .cfa: x29 64 +
STACK CFI INIT 1d2fc 2a0 .cfa: sp 0 +
STACK CFI 1d300 .cfa: sp 144 +
STACK CFI 1d314 .cfa: x29 64 + x19: .cfa -8 + ^ x20: .cfa -16 + ^ x21: .cfa -24 + ^ x22: .cfa -32 + ^ x23: .cfa -48 + ^ .ra: .cfa -56 + ^ x29: .cfa -64 + ^
STACK CFI 1d448 .cfa: sp 144 +
STACK CFI 1d45c .cfa: sp 0 +
STACK CFI 1d460 .cfa: x29 64 +
STACK CFI INIT 1d59c 2e4 .cfa: sp 0 +
STACK CFI 1d5a0 .cfa: sp 144 +
STACK CFI 1d5b4 .cfa: x29 64 + x19: .cfa -8 + ^ x20: .cfa -16 + ^ x21: .cfa -24 + ^ x22: .cfa -32 + ^ x23: .cfa -48 + ^ .ra: .cfa -56 + ^ x29: .cfa -64 + ^
STACK CFI 1d72c .cfa: sp 144 +
STACK CFI 1d740 .cfa: sp 0 +
STACK CFI 1d744 .cfa: x29 64 +
STACK CFI INIT 1d880 4f4 .cfa: sp 0 +
STACK CFI 1d884 .cfa: sp 144 +
STACK CFI 1d898 .cfa: x29 64 + x19: .cfa -8 + ^ x20: .cfa -16 + ^ x21: .cfa -24 + ^ x22: .cfa -32 + ^ x23: .cfa -48 + ^ .ra: .cfa -56 + ^ x29: .cfa -64 + ^
STACK CFI 1dbcc .cfa: sp 144 +
STACK CFI 1dbe0 .cfa: sp 0 +
STACK CFI 1dbe4 .cfa: x29 64 +
STACK CFI INIT 1dd74 154 .cfa: sp 0 +
STACK CFI 1dd78 .cfa: sp 384 +
STACK CFI 1dd8c .cfa: x29 64 + x19: .cfa -8 + ^ x20: .cfa -16 + ^ x21: .cfa -24 + ^ x22: .cfa -32 + ^ x23: .cfa -40 + ^ x28: .cfa -48 + ^ .ra: .cfa -56 + ^ x29: .cfa -64 + ^
STACK CFI 1de70 .cfa: sp 384 +
STACK CFI 1de84 .cfa: sp 0 +
STACK CFI 1de88 .cfa: x29 64 +
STACK CFI INIT 1dec8 168 .cfa: sp 0 +
STACK CFI 1decc .cfa: sp 384 +
STACK CFI 1dee0 .cfa: x29 64 + x19: .cfa -8 + ^ x20: .cfa -16 + ^ x21: .cfa -24 + ^ x22: .cfa -32 + ^ x23: .cfa -40 + ^ x28: .cfa -48 + ^ .ra: .cfa -56 + ^ x29: .cfa -64 + ^
STACK CFI 1dfd8 .cfa: sp 384 +
STACK CFI 1dfec .cfa: sp 0 +
STACK CFI 1dff0 .cfa: x29 64 +
STACK CFI INIT 1e048 50c .cfa: sp 0 +
STACK CFI 1e04c .cfa: sp 64 +
STACK CFI 1e05c .cfa: x29 64 + x19: .cfa -8 + ^ x20: .cfa -16 + ^ x21: .cfa -24 + ^ x22: .cfa -32 + ^ x23: .cfa -40 + ^ x24: .cfa -48 + ^ .ra: .cfa -56 + ^ x29: .cfa -64 + ^
STACK CFI 1e17c .cfa: sp 64 +
STACK CFI 1e18c .cfa: sp 0 +
STACK CFI 1e190 .cfa: x29 64 +
STACK CFI 1e528 .cfa: sp 64 +
STACK CFI 1e538 .cfa: sp 0 +
STACK CFI 1e53c .cfa: x29 64 +
