MODULE Linux arm64 1E71060F596A43C252188D73D379981F0 alphalaneous.improved_song_browser.android64.so
INFO CODE_ID 0F06711E6A59C24352188D73D379981F1E090E05
INFO GENERATOR mozilla/dump_syms 2.3.4
PUBLIC 11650 0 __on_dlclose
PUBLIC 11660 0 __emutls_unregister_key
PUBLIC 11668 0 __on_dlclose_late
PUBLIC 11670 0 __atexit_handler_wrapper
PUBLIC 11684 0 atexit
PUBLIC 116a0 0 pthread_atfork
PUBLIC 116b0 0 unwind_phase2
PUBLIC 117e4 0 _Unwind_Resume
PUBLIC 11868 0 unwind_phase2_forced
PUBLIC m 1195c 0 __unw_init_local
PUBLIC m 11a04 0 __unw_get_reg
PUBLIC 11a80 0 __unw_step_stage2
PUBLIC m 11a94 0 __unw_get_proc_info
PUBLIC m 11ad4 0 __unw_resume
PUBLIC 11afc 0 libunwind::CFI_Parser<libunwind::LocalAddressSpace>::decodeFDE(libunwind::LocalAddressSpace&, unsigned long, libunwind::CFI_Parser<libunwind::LocalAddressSpace>::FDE_Info*, libunwind::CFI_Parser<libunwind::LocalAddressSpace>::CIE_Info*, bool)
PUBLIC 11c8c 0 libunwind::CFI_Parser<libunwind::LocalAddressSpace>::parseCIE(libunwind::LocalAddressSpace&, unsigned long, libunwind::CFI_Parser<libunwind::LocalAddressSpace>::CIE_Info*)
PUBLIC 11f54 0 libunwind::AbstractUnwindCursor::~AbstractUnwindCursor()
PUBLIC 11f5c 0 libunwind::UnwindCursor<libunwind::LocalAddressSpace, libunwind::Registers_arm64>::~UnwindCursor()
PUBLIC 11f64 0 libunwind::UnwindCursor<libunwind::LocalAddressSpace, libunwind::Registers_arm64>::validReg(int)
PUBLIC 11fa8 0 libunwind::UnwindCursor<libunwind::LocalAddressSpace, libunwind::Registers_arm64>::getReg(int)
PUBLIC 12090 0 libunwind::UnwindCursor<libunwind::LocalAddressSpace, libunwind::Registers_arm64>::setReg(int, unsigned long)
PUBLIC 12178 0 libunwind::UnwindCursor<libunwind::LocalAddressSpace, libunwind::Registers_arm64>::validFloatReg(int)
PUBLIC 1218c 0 libunwind::UnwindCursor<libunwind::LocalAddressSpace, libunwind::Registers_arm64>::getFloatReg(int)
PUBLIC 1219c 0 libunwind::UnwindCursor<libunwind::LocalAddressSpace, libunwind::Registers_arm64>::setFloatReg(int, double)
PUBLIC 121ac 0 libunwind::UnwindCursor<libunwind::LocalAddressSpace, libunwind::Registers_arm64>::step(bool)
PUBLIC 1229c 0 libunwind::UnwindCursor<libunwind::LocalAddressSpace, libunwind::Registers_arm64>::getInfo(unw_proc_info_t*)
PUBLIC 122e0 0 libunwind::UnwindCursor<libunwind::LocalAddressSpace, libunwind::Registers_arm64>::jumpto()
PUBLIC 122ec 0 libunwind::UnwindCursor<libunwind::LocalAddressSpace, libunwind::Registers_arm64>::isSignalFrame()
PUBLIC 122f8 0 libunwind::UnwindCursor<libunwind::LocalAddressSpace, libunwind::Registers_arm64>::getFunctionName(char*, unsigned long, unsigned long*)
PUBLIC 12324 0 libunwind::UnwindCursor<libunwind::LocalAddressSpace, libunwind::Registers_arm64>::setInfoBasedOnIPRegister(bool)
PUBLIC 125a4 0 libunwind::UnwindCursor<libunwind::LocalAddressSpace, libunwind::Registers_arm64>::getRegisterName(int)
PUBLIC 125b0 0 libunwind::UnwindCursor<libunwind::LocalAddressSpace, libunwind::Registers_arm64>::stepThroughSigReturn(libunwind::Registers_arm64&)
PUBLIC 126d0 0 libunwind::DwarfInstructions<libunwind::LocalAddressSpace, libunwind::Registers_arm64>::stepWithDwarf(libunwind::LocalAddressSpace&, unsigned long, unsigned long, libunwind::Registers_arm64&, bool&, bool)
PUBLIC 12b58 0 libunwind::CFI_Parser<libunwind::LocalAddressSpace>::parseFDEInstructions(libunwind::LocalAddressSpace&, libunwind::CFI_Parser<libunwind::LocalAddressSpace>::FDE_Info const&, libunwind::CFI_Parser<libunwind::LocalAddressSpace>::CIE_Info const&, unsigned long, int, libunwind::CFI_Parser<libunwind::LocalAddressSpace>::PrologInfo*)
PUBLIC 137a0 0 libunwind::DwarfInstructions<libunwind::LocalAddressSpace, libunwind::Registers_arm64>::getCFA(libunwind::LocalAddressSpace&, libunwind::CFI_Parser<libunwind::LocalAddressSpace>::PrologInfo const&, libunwind::Registers_arm64 const&)
PUBLIC 138d4 0 libunwind::DwarfInstructions<libunwind::LocalAddressSpace, libunwind::Registers_arm64>::getSavedRegister(libunwind::LocalAddressSpace&, libunwind::Registers_arm64 const&, unsigned long, libunwind::CFI_Parser<libunwind::LocalAddressSpace>::RegisterLocation const&)
PUBLIC 13ae4 0 libunwind::LocalAddressSpace::getEncodedP(unsigned long&, unsigned long, unsigned char, unsigned long)
PUBLIC 13e70 0 libunwind::LocalAddressSpace::getULEB128(unsigned long&, unsigned long)
PUBLIC 14038 0 libunwind::DwarfInstructions<libunwind::LocalAddressSpace, libunwind::Registers_arm64>::evaluateExpression(unsigned long, libunwind::LocalAddressSpace&, libunwind::Registers_arm64 const&, unsigned long)
PUBLIC 149f4 0 libunwind::UnwindCursor<libunwind::LocalAddressSpace, libunwind::Registers_arm64>::getInfoFromDwarfSection(unsigned long, libunwind::UnwindInfoSections const&, unsigned int)
PUBLIC 14cc8 0 libunwind::findUnwindSectionsByPhdr(dl_phdr_info*, unsigned long, void*)
PUBLIC 14dfc 0 libunwind::EHHeaderParser<libunwind::LocalAddressSpace>::decodeEHHdr(libunwind::LocalAddressSpace&, unsigned long, unsigned long, libunwind::EHHeaderParser<libunwind::LocalAddressSpace>::EHHeaderInfo&)
PUBLIC 14f1c 0 libunwind::CFI_Parser<libunwind::LocalAddressSpace>::findFDE(libunwind::LocalAddressSpace&, unsigned long, unsigned long, unsigned long, unsigned long, libunwind::CFI_Parser<libunwind::LocalAddressSpace>::FDE_Info*, libunwind::CFI_Parser<libunwind::LocalAddressSpace>::CIE_Info*)
PUBLIC 150e4 0 libunwind::EHHeaderParser<libunwind::LocalAddressSpace>::findFDE(libunwind::LocalAddressSpace&, unsigned long, unsigned long, unsigned int, libunwind::CFI_Parser<libunwind::LocalAddressSpace>::FDE_Info*, libunwind::CFI_Parser<libunwind::LocalAddressSpace>::CIE_Info*)
PUBLIC 1524c 0 libunwind::EHHeaderParser<libunwind::LocalAddressSpace>::getTableEntrySize(unsigned char)
PUBLIC 15348 0 libunwind::Registers_arm64::getRegisterName(int)
PUBLIC 15378 0 __libunwind_Registers_arm64_jumpto
PUBLIC m 15408 0 __unw_getcontext
PUBLIC 154a4 0 SongItem::init(SongData, bool)
PUBLIC 158f4 0 SongItem::create(SongData, bool)
PUBLIC 15ab8 0 SongData::~SongData()
PUBLIC 15afc 0 std::__ndk1::basic_string<char, std::__ndk1::char_traits<char>, std::__ndk1::allocator<char> >::__throw_length_error[abi:ne180000]() const
PUBLIC 15b10 0 std::__ndk1::__throw_length_error[abi:ne180000](char const*)
PUBLIC 15b60 0 std::length_error::length_error[abi:ne180000](char const*)
PUBLIC 15b90 0 cocos2d::CCCopying::copyWithZone(cocos2d::CCZone*)
PUBLIC 15b98 0 SongItem::~SongItem()
PUBLIC 15bbc 0 std::__ndk1::basic_string<char, std::__ndk1::char_traits<char>, std::__ndk1::allocator<char> >::__init_copy_ctor_external(char const*, unsigned long)
PUBLIC 15c3c 0 geode::cast::traverseTypeinfoFor(void*, geode::cast::ClassTypeinfoType const*, char const*)
PUBLIC 15d40 0 SongList::init(std::__ndk1::vector<SongData, std::__ndk1::allocator<SongData> >)
PUBLIC 16058 0 SongList::create(std::__ndk1::vector<SongData, std::__ndk1::allocator<SongData> >)
PUBLIC 16238 0 std::__ndk1::vector<SongData, std::__ndk1::allocator<SongData> >::~vector[abi:ne180000]()
PUBLIC 162dc 0 SongList::~SongList()
PUBLIC 16300 0 std::__ndk1::__exception_guard_exceptions<std::__ndk1::vector<SongData, std::__ndk1::allocator<SongData> >::__destroy_vector>::~__exception_guard_exceptions[abi:ne180000]()
PUBLIC 163b4 0 std::__ndk1::vector<SongData, std::__ndk1::allocator<SongData> >::__throw_length_error[abi:ne180000]() const
PUBLIC 163c8 0 std::__ndk1::__uninitialized_allocator_copy_impl[abi:ne180000]<std::__ndk1::allocator<SongData>, std::__ndk1::allocator*, std::__ndk1::allocator<SongData>, std::__ndk1::allocator<SongData> >(std::__ndk1::allocator<SongData>&, std::__ndk1::allocator*, std::__ndk1::allocator<SongData>, std::__ndk1::allocator*)
PUBLIC 1650c 0 std::__ndk1::__exception_guard_exceptions<std::__ndk1::_AllocatorDestroyRangeReverse<std::__ndk1::allocator<SongData>, SongData*> >::~__exception_guard_exceptions[abi:ne180000]()
PUBLIC 16570 0 __aarch64_ldadd8_relax
PUBLIC 165a0 0 init_have_lse_atomics
PUBLIC 16638 0 __init_cpu_features_constructor
PUBLIC 16bd4 0 __init_cpu_features
PUBLIC 16c60 0 __aarch64_ldadd8_acq_rel
PUBLIC 16c90 0 __cxx_global_var_init
PUBLIC 17114 0 geode::modifier::ModifyBase<geode::modifier::ModifyDerive<MyCCTextInputNopde, CCTextInputNode> >::~ModifyBase()
PUBLIC 1712c 0 __cxx_global_var_init.1
PUBLIC 175b0 0 geode::modifier::ModifyBase<geode::modifier::ModifyDerive<MyCustomSongWidget, CustomSongWidget> >::~ModifyBase()
PUBLIC 175c8 0 __cxx_global_var_init.2
PUBLIC 17a4c 0 geode::modifier::ModifyBase<geode::modifier::ModifyDerive<MyGJSongBrowser, GJSongBrowser> >::~ModifyBase()
PUBLIC 17a64 0 geode::modifier::ModifyDerive<MyCCTextInputNopde, CCTextInputNode>::apply()
PUBLIC 17e1c 0 std::__ndk1::shared_ptr<geode::Hook>::~shared_ptr[abi:ne180000]()
PUBLIC 17e6c 0 geode::impl::ResultData<geode::Hook*, std::__ndk1::basic_string<char, std::__ndk1::char_traits<char>, std::__ndk1::allocator<char> > >::~ResultData()
PUBLIC 17ee0 0 std::__ndk1::vector<std::__ndk1::basic_string<char, std::__ndk1::char_traits<char>, std::__ndk1::allocator<char> >, std::__ndk1::allocator<std::__ndk1::basic_string<char, std::__ndk1::char_traits<char>, std::__ndk1::allocator<char> > > >::~vector[abi:ne180000]()
PUBLIC 17f5c 0 geode::modifier::ModifyBase<geode::modifier::ModifyDerive<MyCCTextInputNopde, CCTextInputNode> >::apply()
PUBLIC 17f60 0 __clang_call_terminate
PUBLIC 17f70 0 _ZN5geode15UnwrapExceptionC2IRPNS_4HookEQsr4implE18IsStringStreamableIT_EEENS_4impl5OkTagEOS5_
PUBLIC 180c4 0 std::__ndk1::__throw_bad_variant_access[abi:ne180000]()
PUBLIC 180f8 0 std::__ndk1::basic_stringstream<char, std::__ndk1::char_traits<char>, std::__ndk1::allocator<char> >::basic_stringstream[abi:ne180000]()
PUBLIC m 18224 0 std::__ndk1::basic_stringstream<char, std::__ndk1::char_traits<char>, std::__ndk1::allocator<char> >::~basic_stringstream()
PUBLIC 182a4 0 geode::UnwrapException::~UnwrapException()
PUBLIC 182c8 0 std::__ndk1::__put_character_sequence[abi:ne180000]<char, std::__ndk1::char_traits<char> >(std::__ndk1::basic_ostream<char, std::__ndk1::char_traits<char> >, std::__ndk1::basic_ostream const*, unsigned long)
PUBLIC 1846c 0 std::__ndk1::__pad_and_output[abi:ne180000]<char, std::__ndk1::char_traits<char> >(std::__ndk1::char_traits<char>, std::__ndk1::ostreambuf_iterator const*, std::__ndk1::ostreambuf_iterator const, std::__ndk1::ostreambuf_iterator const, std::__ndk1::ios_base&, std::__ndk1::ostreambuf_iterator)
PUBLIC 18648 0 std::__throw_bad_array_new_length([abi:ne180000], void)
PUBLIC 1867c 0 std::__ndk1::basic_stringbuf<char, std::__ndk1::char_traits<char>, std::__ndk1::allocator<char> >::str[abi:ne180000]() &&
PUBLIC 187f4 0 std::__ndk1::basic_stringbuf<char, std::__ndk1::char_traits<char>, std::__ndk1::allocator<char> >::__init_buf_ptrs[abi:ne180000]()
PUBLIC 1893c 0 std::__ndk1::vector<std::__ndk1::basic_string<char, std::__ndk1::char_traits<char>, std::__ndk1::allocator<char> >, std::__ndk1::allocator<std::__ndk1::basic_string<char, std::__ndk1::char_traits<char>, std::__ndk1::allocator<char> > > >::__push_back_slow_path<std::__ndk1::basic_string<char, std::__ndk1::char_traits<char>, std::__ndk1::allocator<char> > const&>(std::__ndk1::basic_string<char, std::__ndk1::char_traits<char>, std::__ndk1::allocator<char> > const&)
PUBLIC 18b60 0 std::__ndk1::__split_buffer<std::__ndk1::basic_string<char, std::__ndk1::char_traits<char>, std::__ndk1::allocator<char> >, std::__ndk1::allocator<std::__ndk1::basic_string<char, std::__ndk1::char_traits<char>, std::__ndk1::allocator<char> > >&>::~__split_buffer()
PUBLIC 18bc8 0 std::__ndk1::vector<std::__ndk1::basic_string<char, std::__ndk1::char_traits<char>, std::__ndk1::allocator<char> >, std::__ndk1::allocator<std::__ndk1::basic_string<char, std::__ndk1::char_traits<char>, std::__ndk1::allocator<char> > > >::__throw_length_error[abi:ne180000]() const
PUBLIC 18bdc 0 std::__ndk1::__variant_detail::__visitation::__base::__dispatcher<(unsigned long)0>::__dispatch[abi:ne180000]<std::__ndk1::__variant_detail::__dtor<std::__ndk1::__variant_detail::__traits<geode::Hook*, std::__ndk1::basic_string<char, std::__ndk1::char_traits<char>, std::__ndk1::allocator<char> > >, (std::__ndk1::__variant_detail::_Trait)1>::__destroy[abi:ne180000]()::{lambda(auto:1&)#1}, std::__ndk1::__variant_detail::__base<(std::__ndk1::__variant_detail::__traits<geode::Hook*, std::__ndk1::basic_string<char, std::__ndk1::char_traits<char>, std::__ndk1::allocator<char> > >)1, geode::Hook, std::__ndk1::allocator<char> >&>(std::__ndk1::__variant_detail::__dtor<std::__ndk1::__variant_detail::__traits<geode::Hook*, std::__ndk1::basic_string<char, std::__ndk1::char_traits<char>, std::__ndk1::allocator<char> > >, (std::__ndk1::__variant_detail::_Trait)1>, std::__ndk1::__variant_detail::__base<(std::__ndk1::__variant_detail::__traits<geode::Hook*, std::__ndk1::basic_string<char, std::__ndk1::char_traits<char>, std::__ndk1::allocator<char> > >)1, geode::Hook, std::__ndk1::allocator<char> >&)
PUBLIC 18be0 0 std::__ndk1::__variant_detail::__visitation::__base::__dispatcher<(unsigned long)1>::__dispatch[abi:ne180000]<std::__ndk1::__variant_detail::__dtor<std::__ndk1::__variant_detail::__traits<geode::Hook*, std::__ndk1::basic_string<char, std::__ndk1::char_traits<char>, std::__ndk1::allocator<char> > >, (std::__ndk1::__variant_detail::_Trait)1>::__destroy[abi:ne180000]()::{lambda(auto:1&)#1}, std::__ndk1::__variant_detail::__base<(std::__ndk1::__variant_detail::__traits<geode::Hook*, std::__ndk1::basic_string<char, std::__ndk1::char_traits<char>, std::__ndk1::allocator<char> > >)1, geode::Hook, std::__ndk1::allocator<char> >&>(std::__ndk1::__variant_detail::__dtor<std::__ndk1::__variant_detail::__traits<geode::Hook*, std::__ndk1::basic_string<char, std::__ndk1::char_traits<char>, std::__ndk1::allocator<char> > >, (std::__ndk1::__variant_detail::_Trait)1>, std::__ndk1::__variant_detail::__base<(std::__ndk1::__variant_detail::__traits<geode::Hook*, std::__ndk1::basic_string<char, std::__ndk1::char_traits<char>, std::__ndk1::allocator<char> > >)1, geode::Hook, std::__ndk1::allocator<char> >&)
PUBLIC 18bf4 0 std::__ndk1::__tree<std::__ndk1::__value_type<std::__ndk1::basic_string<char, std::__ndk1::char_traits<char>, std::__ndk1::allocator<char> >, std::__ndk1::shared_ptr<geode::Hook> >, std::__ndk1::__map_value_compare<std::__ndk1::basic_string<char, std::__ndk1::char_traits<char>, std::__ndk1::allocator<char> >, std::__ndk1::__value_type<std::__ndk1::basic_string<char, std::__ndk1::char_traits<char>, std::__ndk1::allocator<char> >, std::__ndk1::shared_ptr<geode::Hook> >, std::__ndk1::less<std::__ndk1::basic_string<char, std::__ndk1::char_traits<char>, std::__ndk1::allocator<char> > >, true>, std::__ndk1::allocator<std::__ndk1::__value_type<std::__ndk1::basic_string<char, std::__ndk1::char_traits<char>, std::__ndk1::allocator<char> >, std::__ndk1::shared_ptr<geode::Hook> > > >::find<std::__ndk1::basic_string<char, std::__ndk1::char_traits<char>, std::__ndk1::allocator<char> > >(std::__ndk1::basic_string<char, std::__ndk1::char_traits<char>, std::__ndk1::allocator<char> > const&)
PUBLIC 18d14 0 std::__ndk1::__tree<std::__ndk1::__value_type<std::__ndk1::basic_string<char, std::__ndk1::char_traits<char>, std::__ndk1::allocator<char> >, std::__ndk1::shared_ptr<geode::Hook> >, std::__ndk1::__map_value_compare<std::__ndk1::basic_string<char, std::__ndk1::char_traits<char>, std::__ndk1::allocator<char> >, std::__ndk1::__value_type<std::__ndk1::basic_string<char, std::__ndk1::char_traits<char>, std::__ndk1::allocator<char> >, std::__ndk1::shared_ptr<geode::Hook> >, std::__ndk1::less<std::__ndk1::basic_string<char, std::__ndk1::char_traits<char>, std::__ndk1::allocator<char> > >, true>, std::__ndk1::allocator<std::__ndk1::__value_type<std::__ndk1::basic_string<char, std::__ndk1::char_traits<char>, std::__ndk1::allocator<char> >, std::__ndk1::shared_ptr<geode::Hook> > > >::erase(std::__ndk1::__tree_const_iterator<std::__ndk1::__value_type<std::__ndk1::basic_string<char, std::__ndk1::char_traits<char>, std::__ndk1::allocator<char> >, std::__ndk1::shared_ptr<geode::Hook> >, std::__ndk1::__tree_node<std::__ndk1::__value_type<std::__ndk1::basic_string<char, std::__ndk1::char_traits<char>, std::__ndk1::allocator<char> >, std::__ndk1::shared_ptr<geode::Hook> >, void*>*, long>)
PUBLIC 191b8 0 std::__ndk1::__tree<std::__ndk1::__value_type<std::__ndk1::basic_string<char, std::__ndk1::char_traits<char>, std::__ndk1::allocator<char> >, std::__ndk1::shared_ptr<geode::Hook> >, std::__ndk1::__map_value_compare<std::__ndk1::basic_string<char, std::__ndk1::char_traits<char>, std::__ndk1::allocator<char> >, std::__ndk1::__value_type<std::__ndk1::basic_string<char, std::__ndk1::char_traits<char>, std::__ndk1::allocator<char> >, std::__ndk1::shared_ptr<geode::Hook> >, std::__ndk1::less<std::__ndk1::basic_string<char, std::__ndk1::char_traits<char>, std::__ndk1::allocator<char> > >, true>, std::__ndk1::allocator<std::__ndk1::__value_type<std::__ndk1::basic_string<char, std::__ndk1::char_traits<char>, std::__ndk1::allocator<char> >, std::__ndk1::shared_ptr<geode::Hook> > > >::destroy(std::__ndk1::__tree_node<std::__ndk1::__value_type<std::__ndk1::basic_string<char, std::__ndk1::char_traits<char>, std::__ndk1::allocator<char> >, std::__ndk1::shared_ptr<geode::Hook> >, void*>*)
PUBLIC 1923c 0 geode::modifier::AsStaticFunction_updateCursorPosition<MyCCTextInputNopde, void (MyCCTextInputNopde::*)(cocos2d::CCPoint, cocos2d::CCRect)>::Impl<void (MyCCTextInputNopde::*)(cocos2d::CCPoint, cocos2d::CCRect)>::function(MyCCTextInputNopde*, cocos2d::CCPoint, cocos2d::CCRect)
PUBLIC 193dc 0 std::__ndk1::shared_ptr<tulip::hook::CallingConvention>::~shared_ptr[abi:ne180000]()
PUBLIC 1942c 0 tulip::hook::HandlerMetadata::~HandlerMetadata()
PUBLIC 19490 0 std::__ndk1::vector<tulip::hook::AbstractType, std::__ndk1::allocator<tulip::hook::AbstractType> >::__throw_length_error[abi:ne180000]() const
PUBLIC 194a4 0 std::__ndk1::__tree<std::__ndk1::__value_type<std::__ndk1::basic_string<char, std::__ndk1::char_traits<char>, std::__ndk1::allocator<char> >, std::__ndk1::shared_ptr<geode::Hook> >, std::__ndk1::__map_value_compare<std::__ndk1::basic_string<char, std::__ndk1::char_traits<char>, std::__ndk1::allocator<char> >, std::__ndk1::__value_type<std::__ndk1::basic_string<char, std::__ndk1::char_traits<char>, std::__ndk1::allocator<char> >, std::__ndk1::shared_ptr<geode::Hook> >, std::__ndk1::less<std::__ndk1::basic_string<char, std::__ndk1::char_traits<char>, std::__ndk1::allocator<char> > >, true>, std::__ndk1::allocator<std::__ndk1::__value_type<std::__ndk1::basic_string<char, std::__ndk1::char_traits<char>, std::__ndk1::allocator<char> >, std::__ndk1::shared_ptr<geode::Hook> > > >::__emplace_unique_key_args<std::__ndk1::basic_string<char, std::__ndk1::char_traits<char>, std::__ndk1::allocator<char> >, std::__ndk1::piecewise_construct_t const&, std::__ndk1::tuple<std::__ndk1::basic_string<char, std::__ndk1::char_traits<char>, std::__ndk1::allocator<char> >&&>, std::__ndk1::tuple<> >(std::__ndk1::basic_string<char, std::__ndk1::char_traits<char>, std::__ndk1::allocator<char> > const&, std::__ndk1::piecewise_construct_t const&, std::__ndk1::tuple<std::__ndk1::basic_string<char, std::__ndk1::char_traits<char>, std::__ndk1::allocator<char> >&&>, std::__ndk1::tuple<>)
PUBLIC 1960c 0 std::__ndk1::__tree_balance_after_insert[abi:ne180000]<std::__ndk1::__tree_node_base<void*>*>(std::__ndk1::__tree_node_base<void*>*, std::__ndk1::__tree_node_base<void*>*)
PUBLIC 197bc 0 geode::modifier::ModifyDerive<MyCustomSongWidget, CustomSongWidget>::apply()
PUBLIC 1aa80 0 geode::modifier::ModifyBase<geode::modifier::ModifyDerive<MyCustomSongWidget, CustomSongWidget> >::apply()
PUBLIC 1aa84 0 geode::modifier::AsStaticFunction_songStateChanged<MyCustomSongWidget, void (MyCustomSongWidget::*)()>::Impl<void (MyCustomSongWidget::*)()>::function(MyCustomSongWidget*)
PUBLIC 1ae24 0 geode::modifier::AsStaticFunction_init<MyCustomSongWidget, bool (MyCustomSongWidget::*)(SongInfoObject*, CustomSongDelegate*, bool, bool, bool, bool, bool, bool, int)>::Impl<bool (MyCustomSongWidget::*)(SongInfoObject*, CustomSongDelegate*, bool, bool, bool, bool, bool, bool, int)>::function(MyCustomSongWidget*, SongInfoObject*, CustomSongDelegate*, bool, bool, bool, bool, bool, bool, int)
PUBLIC 1b630 0 geode::Hook::create<void (*)(MyCustomSongWidget*, cocos2d::CCObject*)>(void*, void (*)(MyCustomSongWidget*, cocos2d::CCObject*), std::__ndk1::basic_string<char, std::__ndk1::char_traits<char>, std::__ndk1::allocator<char> > const&, tulip::hook::TulipConvention, tulip::hook::HookMetadata const&)
PUBLIC 1b7b4 0 geode::modifier::AsStaticFunction_onPlayback<MyCustomSongWidget, void (MyCustomSongWidget::*)(cocos2d::CCObject*)>::Impl<void (MyCustomSongWidget::*)(cocos2d::CCObject*)>::function(MyCustomSongWidget*, cocos2d::CCObject*)
PUBLIC 1b7cc 0 geode::modifier::AsStaticFunction_onSelect<MyCustomSongWidget, void (MyCustomSongWidget::*)(cocos2d::CCObject*)>::Impl<void (MyCustomSongWidget::*)(cocos2d::CCObject*)>::function(MyCustomSongWidget*, cocos2d::CCObject*)
PUBLIC 1bc0c 0 geode::addresser::Addresser::addressOfVirtual<void, CustomSongWidget, >(void (CustomSongWidget::*)())
PUBLIC 1bcb4 0 CustomSongWidget::CustomSongWidget(geode::ZeroConstructorType)
PUBLIC 1bd44 0 geode::modifier::FieldIntermediate<MyCustomSongWidget, CustomSongWidget>::self()
PUBLIC 1bed0 0 geode::modifier::FieldContainer::getField(unsigned long)
PUBLIC 1c314 0 geode::modifier::FieldContainer::setField(unsigned long, unsigned long, std::__ndk1::function<void (void*)>)
PUBLIC 1c420 0 geode::modifier::FieldIntermediate<MyCustomSongWidget, CustomSongWidget>::fieldDestructor(void*)
PUBLIC 1c424 0 std::__ndk1::vector<void*, std::__ndk1::allocator<void*> >::__throw_length_error[abi:ne180000]() const
PUBLIC 1c438 0 std::__ndk1::vector<std::__ndk1::function<void (void*)>, std::__ndk1::allocator<std::__ndk1::function<void (void*)> > >::__throw_length_error[abi:ne180000]() const
PUBLIC 1c44c 0 std::__ndk1::vector<void*, std::__ndk1::allocator<void*> >::__throw_out_of_range[abi:ne180000]() const
PUBLIC 1c458 0 std::__ndk1::__throw_out_of_range[abi:ne180000](char const*)
PUBLIC 1c4a8 0 std::out_of_range::out_of_range[abi:ne180000](char const*)
PUBLIC 1c4d8 0 std::__ndk1::vector<std::__ndk1::function<void (void*)>, std::__ndk1::allocator<std::__ndk1::function<void (void*)> > >::__throw_out_of_range[abi:ne180000]() const
PUBLIC 1c4e4 0 std::__ndk1::__function::__base<void (void*)>::~__base()
PUBLIC 1c4e8 0 std::__ndk1::__function::__func<void (*)(void*), std::__ndk1::allocator<void (*)(void*)>, void (void*)>::~__func()
PUBLIC 1c4ec 0 std::__ndk1::__function::__func<void (*)(void*), std::__ndk1::allocator<void (*)(void*)>, void (void*)>::__clone() const
PUBLIC 1c524 0 std::__ndk1::__function::__func<void (*)(void*), std::__ndk1::allocator<void (*)(void*)>, void (void*)>::__clone(std::__ndk1::__function::__base<void (void*)>*) const
PUBLIC 1c53c 0 std::__ndk1::__function::__func<void (*)(void*), std::__ndk1::allocator<void (*)(void*)>, void (void*)>::destroy()
PUBLIC 1c540 0 std::__ndk1::__function::__func<void (*)(void*), std::__ndk1::allocator<void (*)(void*)>, void (void*)>::destroy_deallocate()
PUBLIC 1c544 0 std::__ndk1::__function::__func<void (*)(void*), std::__ndk1::allocator<void (*)(void*)>, void (void*)>::operator()(void*&&)
PUBLIC 1c554 0 std::__ndk1::__function::__func<void (*)(void*), std::__ndk1::allocator<void (*)(void*)>, void (void*)>::target(std::type_info const&) const
PUBLIC 1c570 0 std::__ndk1::__function::__func<void (*)(void*), std::__ndk1::allocator<void (*)(void*)>, void (void*)>::target_type() const
PUBLIC 1c57c 0 std::__ndk1::__variant_detail::__visitation::__base::__dispatcher<(unsigned long)0>::__dispatch[abi:ne180000]<std::__ndk1::__variant_detail::__dtor<std::__ndk1::__variant_detail::__traits<int, std::__ndk1::basic_string<char, std::__ndk1::char_traits<char>, std::__ndk1::allocator<char> > >, (std::__ndk1::__variant_detail::_Trait)1>::__destroy[abi:ne180000]()::{lambda(auto:1&)#1}, std::__ndk1::__variant_detail::__base<(std::__ndk1::__variant_detail::__traits<int, std::__ndk1::basic_string<char, std::__ndk1::char_traits<char>, std::__ndk1::allocator<char> > >)1, int, std::__ndk1::allocator<char> >&>(std::__ndk1::__variant_detail::__dtor<std::__ndk1::__variant_detail::__traits<int, std::__ndk1::basic_string<char, std::__ndk1::char_traits<char>, std::__ndk1::allocator<char> > >, (std::__ndk1::__variant_detail::_Trait)1>, std::__ndk1::__variant_detail::__base<(std::__ndk1::__variant_detail::__traits<int, std::__ndk1::basic_string<char, std::__ndk1::char_traits<char>, std::__ndk1::allocator<char> > >)1, int, std::__ndk1::allocator<char> >&)
PUBLIC 1c580 0 std::__ndk1::__variant_detail::__visitation::__base::__dispatcher<(unsigned long)1>::__dispatch[abi:ne180000]<std::__ndk1::__variant_detail::__dtor<std::__ndk1::__variant_detail::__traits<int, std::__ndk1::basic_string<char, std::__ndk1::char_traits<char>, std::__ndk1::allocator<char> > >, (std::__ndk1::__variant_detail::_Trait)1>::__destroy[abi:ne180000]()::{lambda(auto:1&)#1}, std::__ndk1::__variant_detail::__base<(std::__ndk1::__variant_detail::__traits<int, std::__ndk1::basic_string<char, std::__ndk1::char_traits<char>, std::__ndk1::allocator<char> > >)1, int, std::__ndk1::allocator<char> >&>(std::__ndk1::__variant_detail::__dtor<std::__ndk1::__variant_detail::__traits<int, std::__ndk1::basic_string<char, std::__ndk1::char_traits<char>, std::__ndk1::allocator<char> > >, (std::__ndk1::__variant_detail::_Trait)1>, std::__ndk1::__variant_detail::__base<(std::__ndk1::__variant_detail::__traits<int, std::__ndk1::basic_string<char, std::__ndk1::char_traits<char>, std::__ndk1::allocator<char> > >)1, int, std::__ndk1::allocator<char> >&)
PUBLIC 1c594 0 std::__ndk1::__function::__func<MyCustomSongWidget::init(SongInfoObject*, CustomSongDelegate*, bool, bool, bool, bool, bool, bool, int)::{lambda()#1}, std::__ndk1::allocator<MyCustomSongWidget::init(SongInfoObject*, CustomSongDelegate*, bool, bool, bool, bool, bool, bool, int)::{lambda()#1}>, void ()>::~__func()
PUBLIC 1c598 0 std::__ndk1::__function::__func<MyCustomSongWidget::init(SongInfoObject*, CustomSongDelegate*, bool, bool, bool, bool, bool, bool, int)::{lambda()#1}, std::__ndk1::allocator<MyCustomSongWidget::init(SongInfoObject*, CustomSongDelegate*, bool, bool, bool, bool, bool, bool, int)::{lambda()#1}>, void ()>::__clone() const
PUBLIC 1c5cc 0 std::__ndk1::__function::__func<MyCustomSongWidget::init(SongInfoObject*, CustomSongDelegate*, bool, bool, bool, bool, bool, bool, int)::{lambda()#1}, std::__ndk1::allocator<MyCustomSongWidget::init(SongInfoObject*, CustomSongDelegate*, bool, bool, bool, bool, bool, bool, int)::{lambda()#1}>, void ()>::__clone(std::__ndk1::__function::__base<void ()>*) const
PUBLIC 1c5e0 0 std::__ndk1::__function::__func<MyCustomSongWidget::init(SongInfoObject*, CustomSongDelegate*, bool, bool, bool, bool, bool, bool, int)::{lambda()#1}, std::__ndk1::allocator<MyCustomSongWidget::init(SongInfoObject*, CustomSongDelegate*, bool, bool, bool, bool, bool, bool, int)::{lambda()#1}>, void ()>::destroy()
PUBLIC 1c5e4 0 std::__ndk1::__function::__func<MyCustomSongWidget::init(SongInfoObject*, CustomSongDelegate*, bool, bool, bool, bool, bool, bool, int)::{lambda()#1}, std::__ndk1::allocator<MyCustomSongWidget::init(SongInfoObject*, CustomSongDelegate*, bool, bool, bool, bool, bool, bool, int)::{lambda()#1}>, void ()>::destroy_deallocate()
PUBLIC 1c5e8 0 std::__ndk1::__function::__func<MyCustomSongWidget::init(SongInfoObject*, CustomSongDelegate*, bool, bool, bool, bool, bool, bool, int)::{lambda()#1}, std::__ndk1::allocator<MyCustomSongWidget::init(SongInfoObject*, CustomSongDelegate*, bool, bool, bool, bool, bool, bool, int)::{lambda()#1}>, void ()>::operator()()
PUBLIC 1c5f8 0 std::__ndk1::__function::__func<MyCustomSongWidget::init(SongInfoObject*, CustomSongDelegate*, bool, bool, bool, bool, bool, bool, int)::{lambda()#1}, std::__ndk1::allocator<MyCustomSongWidget::init(SongInfoObject*, CustomSongDelegate*, bool, bool, bool, bool, bool, bool, int)::{lambda()#1}>, void ()>::target(std::type_info const&) const
PUBLIC 1c614 0 std::__ndk1::__function::__func<MyCustomSongWidget::init(SongInfoObject*, CustomSongDelegate*, bool, bool, bool, bool, bool, bool, int)::{lambda()#1}, std::__ndk1::allocator<MyCustomSongWidget::init(SongInfoObject*, CustomSongDelegate*, bool, bool, bool, bool, bool, bool, int)::{lambda()#1}>, void ()>::target_type() const
PUBLIC 1c620 0 geode::modifier::ModifyDerive<MyGJSongBrowser, GJSongBrowser>::apply()
PUBLIC 1c944 0 geode::modifier::ModifyBase<geode::modifier::ModifyDerive<MyGJSongBrowser, GJSongBrowser> >::apply()
PUBLIC 1c948 0 geode::modifier::AsStaticFunction_customSetup<MyGJSongBrowser, void (MyGJSongBrowser::*)()>::Impl<void (MyGJSongBrowser::*)()>::function(MyGJSongBrowser*)
PUBLIC 1d5b4 0 geode::addresser::Addresser::addressOfVirtual<void, GJSongBrowser, >(void (GJSongBrowser::*)())
PUBLIC 1d65c 0 GJSongBrowser::GJSongBrowser(geode::ZeroConstructorType)
PUBLIC 1d6f4 0 MyGJSongBrowser::createToggler(std::__ndk1::basic_string<char, std::__ndk1::char_traits<char>, std::__ndk1::allocator<char> >, std::__ndk1::basic_string<char, std::__ndk1::char_traits<char>, std::__ndk1::allocator<char> >, void (cocos2d::CCObject::*)(cocos2d::CCObject*), bool, float, bool)
PUBLIC 1d9fc 0 MyGJSongBrowser::toggleAscend(cocos2d::CCObject*)
PUBLIC 1da5c 0 MyGJSongBrowser::toggleRecent(cocos2d::CCObject*)
PUBLIC 1da68 0 MyGJSongBrowser::toggleName(cocos2d::CCObject*)
PUBLIC 1da74 0 MyGJSongBrowser::toggleArtist(cocos2d::CCObject*)
PUBLIC 1da80 0 MyGJSongBrowser::toggleID(cocos2d::CCObject*)
PUBLIC 1dab8 0 geode::cocos::CCArrayExt<CCMenuItemToggler*>::~CCArrayExt()
PUBLIC 1dad4 0 MyGJSongBrowser::sortMusic(SortMode, bool)
PUBLIC 1dce8 0 MyGJSongBrowser::onPrev(cocos2d::CCObject*)
PUBLIC 1dd6c 0 MyGJSongBrowser::onNext(cocos2d::CCObject*)
PUBLIC 1df20 0 geode::modifier::FieldIntermediate<MyGJSongBrowser, GJSongBrowser>::self()
PUBLIC 1e0bc 0 geode::modifier::FieldIntermediate<MyGJSongBrowser, GJSongBrowser>::fieldDestructor(void*)
PUBLIC 1e1e4 0 std::__ndk1::vector<SongData, std::__ndk1::allocator<SongData> >::__push_back_slow_path<SongData const&>(SongData const&)
PUBLIC 1e450 0 std::__ndk1::__split_buffer<SongData, std::__ndk1::allocator<SongData>&>::~__split_buffer()
PUBLIC 1e4cc 0 MyGJSongBrowser::setupListOfSongs()
PUBLIC 1eaa0 0 std::__ndk1::vector<SongData, std::__ndk1::allocator<SongData> >::__assign_with_size[abi:ne180000]<SongData*, std::__ndk1::vector<SongData, std::__ndk1::allocator<SongData> >::__assign_with_size[abi:ne180000]>(SongData*, std::__ndk1::vector<SongData, std::__ndk1::allocator<SongData> >::__assign_with_size[abi:ne180000], long)
PUBLIC 1ecc0 0 SongData::operator=(SongData const&)
PUBLIC 1edec 0 std::__ndk1::basic_string<char, std::__ndk1::char_traits<char>, std::__ndk1::allocator<char> >::__assign_no_alias<true>(char const*, unsigned long)
PUBLIC 1ee98 0 std::__ndk1::basic_string<char, std::__ndk1::char_traits<char>, std::__ndk1::allocator<char> >::__assign_no_alias<false>(char const*, unsigned long)
PUBLIC 1efa8 0 std::__ndk1::vector<SongData, std::__ndk1::allocator<SongData> >::__throw_out_of_range[abi:ne180000]() const
PUBLIC 1efb4 0 MyGJSongBrowser::setMode(SortMode, cocos2d::CCObject*)
PUBLIC 1f18c 0 MyGJSongBrowser::handleSearch(std::__ndk1::basic_string<char, std::__ndk1::char_traits<char>, std::__ndk1::allocator<char> >)
PUBLIC 1fd9c 0 std::__ndk1::pair<int, SongData>::~pair()
PUBLIC 1fde0 0 MyGJSongBrowser::updateCountText()
PUBLIC 200b4 0 std::__ndk1::vector<std::__ndk1::pair<int, SongData>, std::__ndk1::allocator<std::__ndk1::pair<int, SongData> > >::~vector[abi:ne180000]()
PUBLIC 20158 0 fts::fuzzy_internal::fuzzy_match_recursive(char const*, char const*, int&, char const*, unsigned char const*, unsigned char*, int, int, int&, int)
PUBLIC 20614 0 std::__ndk1::vector<std::__ndk1::pair<int, SongData>, std::__ndk1::allocator<std::__ndk1::pair<int, SongData> > >::__throw_length_error[abi:ne180000]() const
PUBLIC 20628 0 std::__ndk1::__introsort<std::__ndk1::_ClassicAlgPolicy, MyGJSongBrowser::handleSearch(std::__ndk1::basic_string<char, std::__ndk1::char_traits<char>, std::__ndk1::allocator<char> >)::{lambda(auto:1 const, auto:2 const)#1}&, std::__ndk1::pair<int, SongData>*, false>(std::__ndk1::pair<int, SongData>*, std::__ndk1::pair<int, SongData>*, MyGJSongBrowser::handleSearch(std::__ndk1::basic_string<char, std::__ndk1::char_traits<char>, std::__ndk1::allocator<char> >)::{lambda(auto:1 const, auto:2 const)#1}&, std::__ndk1::iterator_traits<std::__ndk1::pair<int, SongData>*>::difference_type, bool)
PUBLIC 219cc 0 std::__ndk1::__insertion_sort_incomplete[abi:ne180000]<std::__ndk1::_ClassicAlgPolicy, MyGJSongBrowser::handleSearch(std::__ndk1::basic_string<char, std::__ndk1::char_traits<char>, std::__ndk1::allocator<char> >)::{lambda(auto:1 const, auto:2 const)#1}&, std::__ndk1::pair<int, SongData>*>(std::__ndk1::pair<int, SongData>*, std::__ndk1::pair<int, SongData>*, std::__ndk1::_ClassicAlgPolicy const&)
PUBLIC 21e0c 0 std::__ndk1::pair<int, SongData>::swap[abi:ne180000](std::__ndk1::pair<int, SongData>&)
PUBLIC 21f74 0 std::__ndk1::__sort4[abi:ne180000]<std::__ndk1::_ClassicAlgPolicy, MyGJSongBrowser::handleSearch(std::__ndk1::basic_string<char, std::__ndk1::char_traits<char>, std::__ndk1::allocator<char> >)::{lambda(auto:1 const, auto:2 const)#1}&, std::__ndk1::pair<int, SongData>*>(std::__ndk1::pair<int, SongData>*, std::__ndk1::pair<int, SongData>*, std::__ndk1::pair<int, SongData>*, std::__ndk1::pair<int, SongData>*, std::__ndk1::_ClassicAlgPolicy const&)
PUBLIC 22078 0 std::__ndk1::__introsort<std::__ndk1::_ClassicAlgPolicy, MyGJSongBrowser::sortMusic(SortMode, bool)::{lambda(SongData const, SongData const)#1}&, SongData*, false>(SongData*, SongData*, MyGJSongBrowser::sortMusic(SortMode, bool)::{lambda(SongData const, SongData const)#1}&, std::__ndk1::iterator_traits<SongData*>::difference_type, bool)
PUBLIC 23154 0 MyGJSongBrowser::sortMusic(SortMode, bool)::{lambda(SongData const&, SongData const&)#1}::operator()(SongData const&, SongData const&) const
PUBLIC 232e8 0 std::__ndk1::_IterOps<std::__ndk1::_ClassicAlgPolicy>::iter_swap[abi:ne180000]<SongData*&, SongData*>(SongData*&, SongData*&&)
PUBLIC 23444 0 std::__ndk1::__sort3[abi:ne180000]<std::__ndk1::_ClassicAlgPolicy, MyGJSongBrowser::sortMusic(SortMode, bool)::{lambda(SongData const, SongData const)#1}&, SortMode*>(SortMode*, SortMode*, SortMode*, MyGJSongBrowser::sortMusic(SortMode, bool)::{lambda(SongData const, SongData const)#1}&)
PUBLIC 23544 0 std::__ndk1::__insertion_sort_incomplete[abi:ne180000]<std::__ndk1::_ClassicAlgPolicy, MyGJSongBrowser::sortMusic(SortMode, bool)::{lambda(SongData const, SongData const)#1}&, SortMode*>(SortMode*, SortMode*, MyGJSongBrowser::sortMusic(SortMode, bool)::{lambda(SongData const, SongData const)#1}&)
PUBLIC 238e4 0 std::__ndk1::__sort4[abi:ne180000]<std::__ndk1::_ClassicAlgPolicy, MyGJSongBrowser::sortMusic(SortMode, bool)::{lambda(SongData const, SongData const)#1}&, SortMode*>(SortMode*, SortMode*, SortMode*, SortMode*, MyGJSongBrowser::sortMusic(SortMode, bool)::{lambda(SongData const, SongData const)#1}&)
PUBLIC 23998 0 std::__ndk1::__sort5[abi:ne180000]<std::__ndk1::_ClassicAlgPolicy, MyGJSongBrowser::sortMusic(SortMode, bool)::{lambda(SongData const, SongData const)#1}&, SortMode*>(SortMode*, SortMode*, SortMode*, SortMode*, SortMode*, MyGJSongBrowser::sortMusic(SortMode, bool)::{lambda(SongData const, SongData const)#1}&)
PUBLIC 23a70 0 std::__ndk1::__function::__base<void ()>::~__base()
PUBLIC 23a74 0 std::__ndk1::__function::__func<MyGJSongBrowser::customSetup()::{lambda()#1}, std::__ndk1::allocator<MyGJSongBrowser::customSetup()::{lambda()#1}>, void ()>::~__func()
PUBLIC 23a78 0 std::__ndk1::__function::__func<MyGJSongBrowser::customSetup()::{lambda()#1}, std::__ndk1::allocator<MyGJSongBrowser::customSetup()::{lambda()#1}>, void ()>::__clone() const
PUBLIC 23ab4 0 std::__ndk1::__function::__func<MyGJSongBrowser::customSetup()::{lambda()#1}, std::__ndk1::allocator<MyGJSongBrowser::customSetup()::{lambda()#1}>, void ()>::__clone(std::__ndk1::__function::__base<void ()>*) const
PUBLIC 23ad0 0 std::__ndk1::__function::__func<MyGJSongBrowser::customSetup()::{lambda()#1}, std::__ndk1::allocator<MyGJSongBrowser::customSetup()::{lambda()#1}>, void ()>::destroy()
PUBLIC 23ad4 0 std::__ndk1::__function::__func<MyGJSongBrowser::customSetup()::{lambda()#1}, std::__ndk1::allocator<MyGJSongBrowser::customSetup()::{lambda()#1}>, void ()>::destroy_deallocate()
PUBLIC 23ad8 0 std::__ndk1::__function::__func<MyGJSongBrowser::customSetup()::{lambda()#1}, std::__ndk1::allocator<MyGJSongBrowser::customSetup()::{lambda()#1}>, void ()>::operator()()
PUBLIC 24320 0 std::__ndk1::__function::__func<MyGJSongBrowser::customSetup()::{lambda()#1}, std::__ndk1::allocator<MyGJSongBrowser::customSetup()::{lambda()#1}>, void ()>::target(std::type_info const&) const
PUBLIC 2433c 0 std::__ndk1::__function::__func<MyGJSongBrowser::customSetup()::{lambda()#1}, std::__ndk1::allocator<MyGJSongBrowser::customSetup()::{lambda()#1}>, void ()>::target_type() const
PUBLIC 24348 0 MyGJSongBrowser::clearSearch(cocos2d::CCObject*)
PUBLIC 243e0 0 std::__ndk1::__function::__base<void (std::__ndk1::basic_string<char, std::__ndk1::char_traits<char>, std::__ndk1::allocator<char> > const&)>::~__base()
PUBLIC 243e4 0 std::__ndk1::__function::__func<MyGJSongBrowser::customSetup()::{lambda()#1}::operator()() const::{lambda(std::__ndk1::basic_string<char, std::__ndk1::char_traits<char>, std::__ndk1::allocator<char> >)#1}, std::__ndk1::allocator<MyGJSongBrowser::customSetup()::{lambda()#1}::operator()() const::{lambda(std::__ndk1::basic_string<char, std::__ndk1::char_traits<char>, std::__ndk1::allocator<char> >)#1}>, void (std::__ndk1::basic_string<char, std::__ndk1::char_traits<char>, std::__ndk1::allocator<char> > const&)>::~__func()
PUBLIC 243e8 0 std::__ndk1::__function::__func<MyGJSongBrowser::customSetup()::{lambda()#1}::operator()() const::{lambda(std::__ndk1::basic_string<char, std::__ndk1::char_traits<char>, std::__ndk1::allocator<char> >)#1}, std::__ndk1::allocator<MyGJSongBrowser::customSetup()::{lambda()#1}::operator()() const::{lambda(std::__ndk1::basic_string<char, std::__ndk1::char_traits<char>, std::__ndk1::allocator<char> >)#1}>, void (std::__ndk1::basic_string<char, std::__ndk1::char_traits<char>, std::__ndk1::allocator<char> > const&)>::__clone() const
PUBLIC 2441c 0 std::__ndk1::__function::__func<MyGJSongBrowser::customSetup()::{lambda()#1}::operator()() const::{lambda(std::__ndk1::basic_string<char, std::__ndk1::char_traits<char>, std::__ndk1::allocator<char> >)#1}, std::__ndk1::allocator<MyGJSongBrowser::customSetup()::{lambda()#1}::operator()() const::{lambda(std::__ndk1::basic_string<char, std::__ndk1::char_traits<char>, std::__ndk1::allocator<char> >)#1}>, void (std::__ndk1::basic_string<char, std::__ndk1::char_traits<char>, std::__ndk1::allocator<char> > const&)>::__clone(std::__ndk1::__function::__base<void (std::__ndk1::basic_string<char, std::__ndk1::char_traits<char>, std::__ndk1::allocator<char> > const&)>*) const
PUBLIC 24430 0 std::__ndk1::__function::__func<MyGJSongBrowser::customSetup()::{lambda()#1}::operator()() const::{lambda(std::__ndk1::basic_string<char, std::__ndk1::char_traits<char>, std::__ndk1::allocator<char> >)#1}, std::__ndk1::allocator<MyGJSongBrowser::customSetup()::{lambda()#1}::operator()() const::{lambda(std::__ndk1::basic_string<char, std::__ndk1::char_traits<char>, std::__ndk1::allocator<char> >)#1}>, void (std::__ndk1::basic_string<char, std::__ndk1::char_traits<char>, std::__ndk1::allocator<char> > const&)>::destroy()
PUBLIC 24434 0 std::__ndk1::__function::__func<MyGJSongBrowser::customSetup()::{lambda()#1}::operator()() const::{lambda(std::__ndk1::basic_string<char, std::__ndk1::char_traits<char>, std::__ndk1::allocator<char> >)#1}, std::__ndk1::allocator<MyGJSongBrowser::customSetup()::{lambda()#1}::operator()() const::{lambda(std::__ndk1::basic_string<char, std::__ndk1::char_traits<char>, std::__ndk1::allocator<char> >)#1}>, void (std::__ndk1::basic_string<char, std::__ndk1::char_traits<char>, std::__ndk1::allocator<char> > const&)>::destroy_deallocate()
PUBLIC 24438 0 std::__ndk1::__function::__func<MyGJSongBrowser::customSetup()::{lambda()#1}::operator()() const::{lambda(std::__ndk1::basic_string<char, std::__ndk1::char_traits<char>, std::__ndk1::allocator<char> >)#1}, std::__ndk1::allocator<MyGJSongBrowser::customSetup()::{lambda()#1}::operator()() const::{lambda(std::__ndk1::basic_string<char, std::__ndk1::char_traits<char>, std::__ndk1::allocator<char> >)#1}>, void (std::__ndk1::basic_string<char, std::__ndk1::char_traits<char>, std::__ndk1::allocator<char> > const&)>::operator()(std::__ndk1::basic_string<char, std::__ndk1::char_traits<char>, std::__ndk1::allocator<char> > const&)
PUBLIC 24588 0 std::__ndk1::__function::__func<MyGJSongBrowser::customSetup()::{lambda()#1}::operator()() const::{lambda(std::__ndk1::basic_string<char, std::__ndk1::char_traits<char>, std::__ndk1::allocator<char> >)#1}, std::__ndk1::allocator<MyGJSongBrowser::customSetup()::{lambda()#1}::operator()() const::{lambda(std::__ndk1::basic_string<char, std::__ndk1::char_traits<char>, std::__ndk1::allocator<char> >)#1}>, void (std::__ndk1::basic_string<char, std::__ndk1::char_traits<char>, std::__ndk1::allocator<char> > const&)>::target(std::type_info const&) const
PUBLIC 245a4 0 std::__ndk1::__function::__func<MyGJSongBrowser::customSetup()::{lambda()#1}::operator()() const::{lambda(std::__ndk1::basic_string<char, std::__ndk1::char_traits<char>, std::__ndk1::allocator<char> >)#1}, std::__ndk1::allocator<MyGJSongBrowser::customSetup()::{lambda()#1}::operator()() const::{lambda(std::__ndk1::basic_string<char, std::__ndk1::char_traits<char>, std::__ndk1::allocator<char> >)#1}>, void (std::__ndk1::basic_string<char, std::__ndk1::char_traits<char>, std::__ndk1::allocator<char> > const&)>::target_type() const
PUBLIC m 245b0 0 geodeImplicitEntry
PUBLIC 245ec 0 std::__ndk1::unordered_map<void*, bool, std::__ndk1::hash<void*>, std::__ndk1::equal_to<void*>, std::__ndk1::allocator<std::__ndk1::pair<void* const, bool> > >::~unordered_map[abi:ne180000]()
PUBLIC 24638 0 wrapFunction(unsigned long, tulip::hook::WrapperMetadata const&)
PUBLIC 2476c 0 geode::impl::ResultData<void*, std::__ndk1::basic_string<char, std::__ndk1::char_traits<char>, std::__ndk1::allocator<char> > >::unwrapErr() &
PUBLIC 247e4 0 geode::impl::ResultData<void*, std::__ndk1::basic_string<char, std::__ndk1::char_traits<char>, std::__ndk1::allocator<char> > >::~ResultData()
PUBLIC 24858 0 tulip::hook::WrapperMetadata::~WrapperMetadata()
PUBLIC 248bc 0 cocos2d::CCObject::~CCObject()
PUBLIC 248e0 0 cocos2d::CCNode::CCNode()
PUBLIC 24b3c 0 cocos2d::CCNode::~CCNode()
PUBLIC 24b60 0 cocos2d::CCObject::update(float)
PUBLIC 24b64 0 cocos2d::CCNode::~CCNode()
PUBLIC 24e04 0 cocos2d::CCObject::~CCObject()
PUBLIC 252f8 0 _ZN5geode15UnwrapExceptionC2IRPvQsr4implE18IsStringStreamableIT_EEENS_4impl5OkTagEOS4_
PUBLIC 2544c 0 _ZN5geode15UnwrapExceptionC2IRNSt6__ndk112basic_stringIcNS2_11char_traitsIcEENS2_9allocatorIcEEEEQsr4implE18IsStringStreamableIT_EEENS_4impl6ErrTagEOSA_
PUBLIC 255b4 0 std::__ndk1::__variant_detail::__visitation::__base::__dispatcher<(unsigned long)0>::__dispatch[abi:ne180000]<std::__ndk1::__variant_detail::__dtor<std::__ndk1::__variant_detail::__traits<void*, std::__ndk1::basic_string<char, std::__ndk1::char_traits<char>, std::__ndk1::allocator<char> > >, (std::__ndk1::__variant_detail::_Trait)1>::__destroy[abi:ne180000]()::{lambda(auto:1&)#1}, std::__ndk1::__variant_detail::__base<(std::__ndk1::__variant_detail::__traits<void*, std::__ndk1::basic_string<char, std::__ndk1::char_traits<char>, std::__ndk1::allocator<char> > >)1, std::__ndk1::__variant_detail::__traits, std::__ndk1::allocator<char> >&>(std::__ndk1::__variant_detail::__dtor<std::__ndk1::__variant_detail::__traits<void*, std::__ndk1::basic_string<char, std::__ndk1::char_traits<char>, std::__ndk1::allocator<char> > >, (std::__ndk1::__variant_detail::_Trait)1>, std::__ndk1::__variant_detail::__base<(std::__ndk1::__variant_detail::__traits<void*, std::__ndk1::basic_string<char, std::__ndk1::char_traits<char>, std::__ndk1::allocator<char> > >)1, std::__ndk1::__variant_detail::__traits, std::__ndk1::allocator<char> >&)
PUBLIC 255b8 0 std::__ndk1::__variant_detail::__visitation::__base::__dispatcher<(unsigned long)1>::__dispatch[abi:ne180000]<std::__ndk1::__variant_detail::__dtor<std::__ndk1::__variant_detail::__traits<void*, std::__ndk1::basic_string<char, std::__ndk1::char_traits<char>, std::__ndk1::allocator<char> > >, (std::__ndk1::__variant_detail::_Trait)1>::__destroy[abi:ne180000]()::{lambda(auto:1&)#1}, std::__ndk1::__variant_detail::__base<(std::__ndk1::__variant_detail::__traits<void*, std::__ndk1::basic_string<char, std::__ndk1::char_traits<char>, std::__ndk1::allocator<char> > >)1, std::__ndk1::__variant_detail::__traits, std::__ndk1::allocator<char> >&>(std::__ndk1::__variant_detail::__dtor<std::__ndk1::__variant_detail::__traits<void*, std::__ndk1::basic_string<char, std::__ndk1::char_traits<char>, std::__ndk1::allocator<char> > >, (std::__ndk1::__variant_detail::_Trait)1>, std::__ndk1::__variant_detail::__base<(std::__ndk1::__variant_detail::__traits<void*, std::__ndk1::basic_string<char, std::__ndk1::char_traits<char>, std::__ndk1::allocator<char> > >)1, std::__ndk1::__variant_detail::__traits, std::__ndk1::allocator<char> >&)
PUBLIC 255cc 0 std::__ndk1::__hash_table<std::__ndk1::__hash_value_type<void*, bool>, std::__ndk1::__unordered_map_hasher<void*, std::__ndk1::__hash_value_type<void*, bool>, std::__ndk1::hash<void*>, std::__ndk1::equal_to<void*>, true>, std::__ndk1::__unordered_map_equal<void*, std::__ndk1::__hash_value_type<void*, bool>, std::__ndk1::equal_to<void*>, std::__ndk1::hash<void*>, true>, std::__ndk1::allocator<std::__ndk1::__hash_value_type<void*, bool> > >::__emplace_unique_key_args<void*, std::__ndk1::piecewise_construct_t const&, std::__ndk1::tuple<void* const&>, std::__ndk1::tuple<> >(void* const&, std::__ndk1::piecewise_construct_t const&, std::__ndk1::tuple<void* const&>, std::__ndk1::tuple<>)
PUBLIC 25ad8 0 __udivti3
PUBLIC 25ae4 0 __udivmodti4
PUBLIC m 25d30 0 __eqtf2
PUBLIC 25dd0 0 __unordtf2
PUBLIC 25e08 0 fmt::v11::detail::write_loc(fmt::v11::basic_appender<char>, fmt::v11::loc_value, fmt::v11::format_specs const&, fmt::v11::detail::locale_ref)
PUBLIC 2609c 0 fmt::v11::format_facet<std::__ndk1::locale>::~format_facet()
PUBLIC 26118 0 fmt::v11::report_error(char const*)
PUBLIC 26168 0 fmt::v11::format_error::runtime_error(char const*)
PUBLIC 26194 0 fmt::v11::format_facet<std::__ndk1::locale>::do_put(fmt::v11::basic_appender<char>, fmt::v11::loc_value, fmt::v11::format_specs const&) const
PUBLIC 26954 0 fmt::v11::detail::loc_writer<char>::~loc_writer()
PUBLIC 269b8 0 fmt::v11::detail::vformat_to<char>(fmt::v11::detail::buffer<char>&, fmt::v11::basic_string_view<char>, fmt::v11::detail::vformat_args<char>::type, fmt::v11::detail::locale_ref)
PUBLIC 26f28 0 fmt::v11::detail::is_printable(unsigned int)
PUBLIC 27150 0 fmt::v11::detail::dragonbox::to_decimal<float>(float)
PUBLIC 2742c 0 fmt::v11::detail::dragonbox::to_decimal<double>(double)
PUBLIC 27968 0 fmt::v11::basic_memory_buffer<char, (unsigned long)500, std::__ndk1::allocator<char> >::grow(fmt::v11::detail::buffer<char>&, unsigned long)
PUBLIC 279e0 0 fmt::v11::format_facet<std::__ndk1::locale>::~format_facet()
PUBLIC 27a6c 0 fmt::v11::format_error::~format_error()
PUBLIC 27a90 0 fmt::v11::detail::copy_noinline<char, char const*, fmt::v11::basic_appender<char> >(char const*, char const*, fmt::v11::basic_appender<char>)
PUBLIC 27be0 0 fmt::v11::detail::default_arg_formatter<char>::operator()<bool>(bool)
PUBLIC 27c48 0 fmt::v11::detail::default_arg_formatter<char>::operator()<char>(char)
PUBLIC 27cd8 0 fmt::v11::detail::default_arg_formatter<char>::operator()<float>(float)
PUBLIC 27dc4 0 fmt::v11::detail::default_arg_formatter<char>::operator()<double>(double)
PUBLIC 27eb0 0 fmt::v11::detail::default_arg_formatter<char>::operator()<char const*>(char const*)
PUBLIC 27ef8 0 fmt::v11::detail::default_arg_formatter<char>::operator()<void const*>(void const*)
PUBLIC 27f90 0 _ZN3fmt3v116detail5writeIcNS0_14basic_appenderIcEEiTnNSt6__ndk19enable_ifIXaaaasr11is_integralIT1_EE5valuentsr3std7is_sameIS7_bEE5valuentsr3std7is_sameIS7_T_EE5valueEiE4typeELi0EEET0_SB_S7_
PUBLIC 281f0 0 fmt::v11::detail::copy_noinline<char, char*, fmt::v11::basic_appender<char> >(char*, char*, fmt::v11::basic_appender<char>)
PUBLIC 28340 0 _ZN3fmt3v116detail5writeIcNS0_14basic_appenderIcEEjTnNSt6__ndk19enable_ifIXaaaasr11is_integralIT1_EE5valuentsr3std7is_sameIS7_bEE5valuentsr3std7is_sameIS7_T_EE5valueEiE4typeELi0EEET0_SB_S7_
PUBLIC 28520 0 _ZN3fmt3v116detail5writeIcNS0_14basic_appenderIcEExTnNSt6__ndk19enable_ifIXaaaasr11is_integralIT1_EE5valuentsr3std7is_sameIS7_bEE5valuentsr3std7is_sameIS7_T_EE5valueEiE4typeELi0EEET0_SB_S7_
PUBLIC 287a4 0 _ZN3fmt3v116detail5writeIcNS0_14basic_appenderIcEEyTnNSt6__ndk19enable_ifIXaaaasr11is_integralIT1_EE5valuentsr3std7is_sameIS7_bEE5valuentsr3std7is_sameIS7_T_EE5valueEiE4typeELi0EEET0_SB_S7_
PUBLIC 289ac 0 _ZN3fmt3v116detail5writeIcNS0_14basic_appenderIcEEnTnNSt6__ndk19enable_ifIXaaaasr11is_integralIT1_EE5valuentsr3std7is_sameIS7_bEE5valuentsr3std7is_sameIS7_T_EE5valueEiE4typeELi0EEET0_SB_S7_
PUBLIC 28d0c 0 _ZN3fmt3v116detail5writeIcNS0_14basic_appenderIcEEoTnNSt6__ndk19enable_ifIXaaaasr11is_integralIT1_EE5valuentsr3std7is_sameIS7_bEE5valuentsr3std7is_sameIS7_T_EE5valueEiE4typeELi0EEET0_SB_S7_
PUBLIC 29020 0 _ZN3fmt3v116detail5writeIcNS0_14basic_appenderIcEEbTnNSt6__ndk19enable_ifIXsr3std7is_sameIT1_bEE5valueEiE4typeELi0EEET0_SA_S7_RKNS0_12format_specsENS1_10locale_refE
PUBLIC 292b0 0 fmt::v11::detail::write_int_noinline<char, fmt::v11::basic_appender<char>, unsigned int>(fmt::v11::basic_appender<char>, fmt::v11::detail::write_int_arg<unsigned int>, fmt::v11::format_specs const&, fmt::v11::detail::locale_ref)
PUBLIC 2a08c 0 fmt::v11::detail::fill<char, fmt::v11::basic_appender<char> >(fmt::v11::basic_appender<char>, unsigned long, fmt::v11::detail::fill_t const&)
PUBLIC 2a25c 0 fmt::v11::detail::write_padded<char, (fmt::v11::align::type)1, fmt::v11::basic_appender<char>, fmt::v11::detail::write_char<char, fmt::v11::basic_appender<char> >(fmt::v11::basic_appender<char>, char, fmt::v11::format_specs const&)::{lambda(fmt::v11::basic_appender<char>&)#1}>(fmt::v11::basic_appender<char>, fmt::v11::format_specs const&, unsigned long, unsigned long, fmt::v11::detail::write_char<char, fmt::v11::basic_appender<char> >(fmt::v11::basic_appender<char>, char, fmt::v11::format_specs const&)::{lambda(fmt::v11::basic_appender<char>&)#1})
PUBLIC 2a498 0 fmt::v11::detail::write_escaped_cp<fmt::v11::basic_appender<char>, char>(fmt::v11::basic_appender<char>, fmt::v11::detail::find_escape_result<char> const&)
PUBLIC 2a7a4 0 fmt::v11::detail::write_codepoint<(unsigned long)2, char, fmt::v11::basic_appender<char> >(fmt::v11::basic_appender<char>, char, unsigned int)
PUBLIC 2a91c 0 fmt::v11::detail::write_codepoint<(unsigned long)8, char, fmt::v11::basic_appender<char> >(fmt::v11::basic_appender<char>, char, unsigned int)
PUBLIC 2aa94 0 fmt::v11::detail::write_padded<char, (fmt::v11::align::type)1, fmt::v11::basic_appender<char>, fmt::v11::detail::write_nonfinite<char, fmt::v11::basic_appender<char> >(fmt::v11::basic_appender<char>, bool, fmt::v11::format_specs, fmt::v11::sign::type)::{lambda(fmt::v11::basic_appender<char>&)#1}>(fmt::v11::basic_appender<char>, fmt::v11::format_specs const&, unsigned long, unsigned long, fmt::v11::detail::write_nonfinite<char, fmt::v11::basic_appender<char> >(fmt::v11::basic_appender<char>, bool, fmt::v11::format_specs, fmt::v11::sign::type)::{lambda(fmt::v11::basic_appender<char>&)#1})
PUBLIC 2acd4 0 fmt::v11::detail::do_write_float<char, fmt::v11::basic_appender<char>, fmt::v11::detail::dragonbox::decimal_fp<float>, fmt::v11::detail::digit_grouping<char> >(fmt::v11::basic_appender<char>, fmt::v11::detail::dragonbox::decimal_fp<float> const&, fmt::v11::format_specs const&, fmt::v11::detail::float_specs, fmt::v11::detail::locale_ref)
PUBLIC 2b948 0 fmt::v11::detail::do_write_float<char, fmt::v11::basic_appender<char>, fmt::v11::detail::dragonbox::decimal_fp<float>, fmt::v11::detail::digit_grouping<char> >(fmt::v11::basic_appender<char>, fmt::v11::detail::dragonbox::decimal_fp<float> const&, fmt::v11::format_specs const&, fmt::v11::detail::float_specs, fmt::v11::detail::locale_ref)::{lambda(fmt::v11::basic_appender<char>(fmt::v11::basic_appender<char>))#1}::operator() const
PUBLIC 2ba9c 0 fmt::v11::detail::digit_grouping<char>::digit_grouping(fmt::v11::detail::locale_ref, bool)
PUBLIC 2bd08 0 fmt::v11::detail::digit_grouping<char>::~digit_grouping()
PUBLIC 2bd4c 0 fmt::v11::detail::write_exponent<char, fmt::v11::basic_appender<char> >(int, fmt::v11::basic_appender<char>)
PUBLIC 2bf1c 0 _ZN3fmt3v116detail17write_significandIcjTnNSt6__ndk19enable_ifIXsr3std11is_integralIT0_EE5valueEiE4typeELi0EEEPT_S9_S5_iiS8_
PUBLIC 2c098 0 fmt::v11::detail::digit_grouping<char>::apply<fmt::v11::basic_appender<char>, char>(fmt::v11::basic_appender<char>, fmt::v11::basic_string_view<char>) const
PUBLIC 2c450 0 fmt::v11::basic_memory_buffer<int, (unsigned long)500, std::__ndk1::allocator<int> >::grow(fmt::v11::detail::buffer<int>&, unsigned long)
PUBLIC 2c4f0 0 fmt::v11::detail::do_write_float<char, fmt::v11::basic_appender<char>, fmt::v11::detail::dragonbox::decimal_fp<double>, fmt::v11::detail::digit_grouping<char> >(fmt::v11::basic_appender<char>, fmt::v11::detail::dragonbox::decimal_fp<double> const&, fmt::v11::format_specs const&, fmt::v11::detail::float_specs, fmt::v11::detail::locale_ref)
PUBLIC 2d1a4 0 fmt::v11::detail::do_write_float<char, fmt::v11::basic_appender<char>, fmt::v11::detail::dragonbox::decimal_fp<double>, fmt::v11::detail::digit_grouping<char> >(fmt::v11::basic_appender<char>, fmt::v11::detail::dragonbox::decimal_fp<double> const&, fmt::v11::format_specs const&, fmt::v11::detail::float_specs, fmt::v11::detail::locale_ref)::{lambda(fmt::v11::basic_appender<char>(fmt::v11::basic_appender<char>))#1}::operator() const
PUBLIC 2d2fc 0 _ZN3fmt3v116detail17write_significandIcmTnNSt6__ndk19enable_ifIXsr3std11is_integralIT0_EE5valueEiE4typeELi0EEEPT_S9_S5_iiS8_
PUBLIC 2d48c 0 fmt::v11::detail::write_float<char, fmt::v11::basic_appender<char>, long double>(fmt::v11::basic_appender<char>, long double, fmt::v11::format_specs, fmt::v11::detail::locale_ref)
PUBLIC 2df88 0 fmt::v11::detail::write_padded<char, (fmt::v11::align::type)2, fmt::v11::basic_appender<char>, fmt::v11::detail::write_bytes<char, (fmt::v11::align::type)2, fmt::v11::basic_appender<char> >(fmt::v11::basic_appender<char>, fmt::v11::basic_string_view<char>, fmt::v11::format_specs const&)::{lambda(fmt::v11::basic_appender<char>&)#1}>(fmt::v11::basic_appender<char>, fmt::v11::format_specs const&, unsigned long, unsigned long, fmt::v11::detail::write_bytes<char, (fmt::v11::align::type)2, fmt::v11::basic_appender<char> >(fmt::v11::basic_appender<char>, fmt::v11::basic_string_view<char>, fmt::v11::format_specs const&)::{lambda(fmt::v11::basic_appender<char>&)#1})
PUBLIC 2e164 0 fmt::v11::detail::format_dragon(fmt::v11::detail::basic_fp<unsigned __int128>, unsigned int, int, fmt::v11::detail::buffer<char>&, int&)
PUBLIC 2f594 0 fmt::v11::detail::bigint::operator<<=(int)
PUBLIC 2f6b8 0 fmt::v11::detail::bigint::assign_pow10(int)
PUBLIC 2fe14 0 fmt::v11::detail::bigint::divmod_assign(fmt::v11::detail::bigint const&)
PUBLIC 30134 0 fmt::v11::basic_memory_buffer<unsigned int, (unsigned long)32, std::__ndk1::allocator<unsigned int> >::grow(fmt::v11::detail::buffer<unsigned int>&, unsigned long)
PUBLIC 301d4 0 fmt::v11::detail::do_write_float<char, fmt::v11::basic_appender<char>, fmt::v11::detail::big_decimal_fp, fmt::v11::detail::digit_grouping<char> >(fmt::v11::basic_appender<char>, fmt::v11::detail::big_decimal_fp const&, fmt::v11::format_specs const&, fmt::v11::detail::float_specs, fmt::v11::detail::locale_ref)
PUBLIC 31084 0 fmt::v11::detail::do_write_float<char, fmt::v11::basic_appender<char>, fmt::v11::detail::big_decimal_fp, fmt::v11::detail::digit_grouping<char> >(fmt::v11::basic_appender<char>, fmt::v11::detail::big_decimal_fp const&, fmt::v11::format_specs const&, fmt::v11::detail::float_specs, fmt::v11::detail::locale_ref)::{lambda(fmt::v11::basic_appender<char>(fmt::v11::basic_appender<char>))#1}::operator() const
PUBLIC 311e4 0 fmt::v11::detail::write_padded<char, (fmt::v11::align::type)2, fmt::v11::basic_appender<char>, fmt::v11::detail::write_ptr<char, fmt::v11::basic_appender<char>, unsigned long>(fmt::v11::basic_appender<char>, unsigned long, fmt::v11::format_specs const*)::{lambda(fmt::v11::basic_appender<char>&)#1}>(fmt::v11::basic_appender<char>, fmt::v11::format_specs const&, unsigned long, unsigned long, fmt::v11::detail::write_ptr<char, fmt::v11::basic_appender<char>, unsigned long>(fmt::v11::basic_appender<char>, unsigned long, fmt::v11::format_specs const*)::{lambda(fmt::v11::basic_appender<char>&)#1})
PUBLIC 313f8 0 fmt::v11::detail::parse_replacement_field<char, fmt::v11::detail::vformat_to<char>(fmt::v11::detail::buffer<char>&, fmt::v11::basic_string_view<char>, fmt::v11::detail::vformat_args<char>::type, fmt::v11::detail::locale_ref)::format_handler&>(char const*, char const*, fmt::v11::detail::vformat_to<char>(fmt::v11::detail::buffer<char>&, fmt::v11::basic_string_view<char>, fmt::v11::detail::vformat_args<char>::type, fmt::v11::detail::locale_ref)::format_handler&)
PUBLIC 33094 0 fmt::v11::detail::parse_dynamic_spec<char>(char const*, char const*, int&, fmt::v11::detail::arg_ref<char>&, fmt::v11::basic_format_parse_context<char>&)
PUBLIC 33324 0 fmt::v11::basic_format_args<fmt::v11::context>::get<char>(fmt::v11::basic_string_view<char>) const
PUBLIC 3347c 0 fmt::v11::detail::write_int_noinline<char, fmt::v11::basic_appender<char>, unsigned long>(fmt::v11::basic_appender<char>, fmt::v11::detail::write_int_arg<unsigned long>, fmt::v11::format_specs const&, fmt::v11::detail::locale_ref)
PUBLIC 342d0 0 fmt::v11::detail::write_int_noinline<char, fmt::v11::basic_appender<char>, unsigned __int128>(fmt::v11::basic_appender<char>, fmt::v11::detail::write_int_arg<unsigned __int128>, fmt::v11::format_specs const&, fmt::v11::detail::locale_ref)
PUBLIC 35338 0 _ZN3fmt3v116detail15format_hexfloatIdTnNSt6__ndk19enable_ifIXntsr16is_double_doubleIT_EE5valueEiE4typeELi0EEEvS5_NS0_12format_specsERNS1_6bufferIcEE
PUBLIC 35858 0 fmt::v11::detail::format_float<double>(double, int, fmt::v11::detail::float_specs, fmt::v11::detail::buffer<char>&)
PUBLIC 361f8 0 fmt::v11::detail::write<char, fmt::v11::basic_appender<char> >(fmt::v11::basic_appender<char>, fmt::v11::basic_string_view<char>, fmt::v11::format_specs const&)
PUBLIC 37564 0 fmt::v11::detail::for_each_codepoint<fmt::v11::detail::compute_width(fmt::v11::basic_string_view<char>)::count_code_points>(fmt::v11::basic_string_view<char>, fmt::v11::detail::compute_width(fmt::v11::basic_string_view<char>)::count_code_points)::{lambda(char const*, char const*)#1}::operator()(char const*, char const*) const
PUBLIC 3771c 0 fmt::v11::detail::write_int<fmt::v11::basic_appender<char>, unsigned long, char>(fmt::v11::basic_appender<char>, unsigned long, unsigned int, fmt::v11::format_specs const&, fmt::v11::detail::digit_grouping<char> const&)
PUBLIC 37c98 0 fmt::v11::detail::write_int<fmt::v11::basic_appender<char>, unsigned __int128, char>(fmt::v11::basic_appender<char>, unsigned __int128, unsigned int, fmt::v11::format_specs const&, fmt::v11::detail::digit_grouping<char> const&)
PUBLIC 38320 0 <.plt ELF section in alphalaneous.improved_song_browser.android64.so>
STACK CFI INIT 11650 10 .cfa: sp 0 +
STACK CFI INIT 11660 8 .cfa: sp 0 +
STACK CFI INIT 11668 8 .cfa: sp 0 +
STACK CFI INIT 11670 14 .cfa: sp 0 +
STACK CFI INIT 11684 1c .cfa: sp 0 +
STACK CFI INIT 116a0 10 .cfa: sp 0 +
STACK CFI INIT 116b0 134 .cfa: sp 0 +
STACK CFI INIT 117e4 84 .cfa: sp 0 +
STACK CFI INIT 11868 f4 .cfa: sp 0 +
STACK CFI INIT 1195c a8 .cfa: sp 0 +
STACK CFI INIT 11a04 7c .cfa: sp 0 +
STACK CFI INIT 11a80 14 .cfa: sp 0 +
STACK CFI INIT 11a94 40 .cfa: sp 0 +
STACK CFI INIT 11ad4 28 .cfa: sp 0 +
STACK CFI INIT 11afc 190 .cfa: sp 0 +
STACK CFI INIT 11c8c 2c8 .cfa: sp 0 +
STACK CFI INIT 11f54 8 .cfa: sp 0 +
STACK CFI INIT 11f5c 8 .cfa: sp 0 +
STACK CFI INIT 11f64 44 .cfa: sp 0 +
STACK CFI INIT 11fa8 e8 .cfa: sp 0 +
STACK CFI INIT 12090 e8 .cfa: sp 0 +
STACK CFI INIT 12178 14 .cfa: sp 0 +
STACK CFI INIT 1218c 10 .cfa: sp 0 +
STACK CFI INIT 1219c 10 .cfa: sp 0 +
STACK CFI INIT 121ac f0 .cfa: sp 0 +
STACK CFI INIT 1229c 44 .cfa: sp 0 +
STACK CFI INIT 122e0 c .cfa: sp 0 +
STACK CFI INIT 122ec c .cfa: sp 0 +
STACK CFI INIT 122f8 2c .cfa: sp 0 +
STACK CFI INIT 12324 280 .cfa: sp 0 +
STACK CFI INIT 125a4 c .cfa: sp 0 +
STACK CFI INIT 125b0 120 .cfa: sp 0 +
STACK CFI INIT 126d0 488 .cfa: sp 0 +
STACK CFI INIT 12b58 c48 .cfa: sp 0 +
STACK CFI INIT 137a0 134 .cfa: sp 0 +
STACK CFI INIT 138d4 210 .cfa: sp 0 +
STACK CFI INIT 13ae4 38c .cfa: sp 0 +
STACK CFI INIT 13e70 1c8 .cfa: sp 0 +
STACK CFI INIT 14038 9bc .cfa: sp 0 +
STACK CFI INIT 149f4 2d4 .cfa: sp 0 +
STACK CFI INIT 14cc8 134 .cfa: sp 0 +
STACK CFI INIT 14dfc 120 .cfa: sp 0 +
STACK CFI INIT 14f1c 1c8 .cfa: sp 0 +
STACK CFI INIT 150e4 168 .cfa: sp 0 +
STACK CFI INIT 1524c fc .cfa: sp 0 +
STACK CFI INIT 15348 30 .cfa: sp 0 +
STACK CFI INIT 15ab8 44 .cfa: sp 0 +
STACK CFI 15abc .cfa: sp 32 +
STACK CFI 15ac4 .cfa: x29 32 + x19: .cfa -16 + ^ .ra: .cfa -24 + ^ x29: .cfa -32 + ^
STACK CFI 15ae0 .cfa: sp 32 +
STACK CFI 15ae8 .cfa: sp 0 +
STACK CFI 15aec .cfa: x29 32 +
STACK CFI 15af0 .cfa: sp 32 +
STACK CFI 15af8 .cfa: sp 0 +
STACK CFI INIT 15afc 14 .cfa: sp 0 +
STACK CFI 15b00 .cfa: sp 16 +
STACK CFI 15b04 .cfa: x29 16 + .ra: .cfa -8 + ^ x29: .cfa -16 + ^
STACK CFI INIT 15b60 30 .cfa: sp 0 +
STACK CFI 15b64 .cfa: sp 32 +
STACK CFI 15b6c .cfa: x29 32 + x19: .cfa -16 + ^ .ra: .cfa -24 + ^ x29: .cfa -32 + ^
STACK CFI 15b84 .cfa: sp 32 +
STACK CFI 15b8c .cfa: sp 0 +
STACK CFI INIT 15b90 8 .cfa: sp 0 +
STACK CFI INIT 15b98 24 .cfa: sp 0 +
STACK CFI 15b9c .cfa: sp 32 +
STACK CFI 15ba4 .cfa: x29 32 + x19: .cfa -16 + ^ .ra: .cfa -24 + ^ x29: .cfa -32 + ^
STACK CFI 15bb0 .cfa: sp 32 +
STACK CFI 15bb8 .cfa: sp 0 +
STACK CFI INIT 15bbc 80 .cfa: sp 0 +
STACK CFI 15bc0 .cfa: sp 48 +
STACK CFI 15bcc .cfa: x29 48 + x19: .cfa -8 + ^ x20: .cfa -16 + ^ x21: .cfa -24 + ^ x22: .cfa -32 + ^ .ra: .cfa -40 + ^ x29: .cfa -48 + ^
STACK CFI 15be4 .cfa: sp 48 +
STACK CFI 15bf0 .cfa: sp 0 +
STACK CFI 15bf4 .cfa: x29 48 +
STACK CFI 15c24 .cfa: sp 48 +
STACK CFI 15c30 .cfa: sp 0 +
STACK CFI 15c34 .cfa: x29 48 +
STACK CFI INIT 15c3c 104 .cfa: sp 0 +
STACK CFI 15c40 .cfa: sp 64 +
STACK CFI 15c50 .cfa: x29 64 + x19: .cfa -8 + ^ x20: .cfa -16 + ^ x21: .cfa -24 + ^ x22: .cfa -32 + ^ x23: .cfa -48 + ^ .ra: .cfa -56 + ^ x29: .cfa -64 + ^
STACK CFI 15cac .cfa: sp 64 +
STACK CFI 15cbc .cfa: sp 0 +
STACK CFI 15cc0 .cfa: x29 64 +
STACK CFI 15cdc .cfa: sp 64 +
STACK CFI 15cec .cfa: sp 0 +
STACK CFI 15cf0 .cfa: x29 64 +
STACK CFI 15d2c .cfa: sp 64 +
STACK CFI 15d3c .cfa: sp 0 +
STACK CFI INIT 16238 a4 .cfa: sp 0 +
STACK CFI 1623c .cfa: sp 48 +
STACK CFI 16248 .cfa: x29 48 + x19: .cfa -8 + ^ x20: .cfa -16 + ^ x21: .cfa -32 + ^ .ra: .cfa -40 + ^ x29: .cfa -48 + ^
STACK CFI 16268 .cfa: sp 48 +
STACK CFI 16274 .cfa: sp 0 +
STACK CFI 16278 .cfa: x29 48 +
STACK CFI 162bc .cfa: sp 48 +
STACK CFI 162c8 .cfa: sp 0 +
STACK CFI 162cc .cfa: sp 48 +
STACK CFI 162d8 .cfa: sp 0 +
STACK CFI INIT 162dc 24 .cfa: sp 0 +
STACK CFI 162e0 .cfa: sp 32 +
STACK CFI 162e8 .cfa: x29 32 + x19: .cfa -16 + ^ .ra: .cfa -24 + ^ x29: .cfa -32 + ^
STACK CFI 162f4 .cfa: sp 32 +
STACK CFI 162fc .cfa: sp 0 +
STACK CFI INIT 16300 b4 .cfa: sp 0 +
STACK CFI 16304 .cfa: sp 48 +
STACK CFI 16310 .cfa: x29 48 + x19: .cfa -8 + ^ x20: .cfa -16 + ^ x21: .cfa -24 + ^ x22: .cfa -32 + ^ .ra: .cfa -40 + ^ x29: .cfa -48 + ^
STACK CFI 16318 .cfa: sp 48 +
STACK CFI 16324 .cfa: sp 0 +
STACK CFI 16328 .cfa: x29 48 +
STACK CFI 1634c .cfa: sp 48 +
STACK CFI 16358 .cfa: sp 0 +
STACK CFI 1635c .cfa: x29 48 +
STACK CFI 163a4 .cfa: sp 48 +
STACK CFI 163b0 .cfa: sp 0 +
STACK CFI INIT 163b4 14 .cfa: sp 0 +
STACK CFI 163b8 .cfa: sp 16 +
STACK CFI 163bc .cfa: x29 16 + .ra: .cfa -8 + ^ x29: .cfa -16 + ^
STACK CFI INIT 1650c 64 .cfa: sp 0 +
STACK CFI 1651c .cfa: sp 32 +
STACK CFI 16524 .cfa: x29 32 + x19: .cfa -8 + ^ x20: .cfa -16 + ^ .ra: .cfa -24 + ^ x29: .cfa -32 + ^
STACK CFI 16564 .cfa: sp 32 +
STACK CFI 1656c .cfa: sp 0 +
STACK CFI INIT 16570 30 .cfa: sp 0 +
STACK CFI INIT 165a0 98 .cfa: sp 0 +
STACK CFI INIT 16638 59c .cfa: sp 0 +
STACK CFI INIT 16bd4 8c .cfa: sp 0 +
STACK CFI INIT 16c60 30 .cfa: sp 0 +
STACK CFI INIT 17114 18 .cfa: sp 0 +
STACK CFI INIT 175b0 18 .cfa: sp 0 +
STACK CFI INIT 17a4c 18 .cfa: sp 0 +
STACK CFI INIT 17e1c 50 .cfa: sp 0 +
STACK CFI 17e20 .cfa: sp 32 +
STACK CFI 17e28 .cfa: x29 32 + x19: .cfa -16 + ^ .ra: .cfa -24 + ^ x29: .cfa -32 + ^
STACK CFI 17e40 .cfa: sp 32 +
STACK CFI 17e48 .cfa: sp 0 +
STACK CFI 17e4c .cfa: x29 32 +
STACK CFI 17e60 .cfa: sp 32 +
STACK CFI 17e68 .cfa: sp 0 +
STACK CFI INIT 17ee0 7c .cfa: sp 0 +
STACK CFI 17ee4 .cfa: sp 48 +
STACK CFI 17ef0 .cfa: x29 48 + x19: .cfa -8 + ^ x20: .cfa -16 + ^ x21: .cfa -32 + ^ .ra: .cfa -40 + ^ x29: .cfa -48 + ^
STACK CFI 17f3c .cfa: sp 48 +
STACK CFI 17f48 .cfa: sp 0 +
STACK CFI 17f4c .cfa: sp 48 +
STACK CFI 17f58 .cfa: sp 0 +
STACK CFI INIT 17f5c 4 .cfa: sp 0 +
STACK CFI INIT 17f60 10 .cfa: sp 0 +
STACK CFI 17f64 .cfa: sp 16 +
STACK CFI 17f68 .cfa: x29 16 + .ra: .cfa -8 + ^ x29: .cfa -16 + ^
STACK CFI INIT 180c4 34 .cfa: sp 0 +
STACK CFI 180c8 .cfa: sp 16 +
STACK CFI 180cc .cfa: x29 16 + .ra: .cfa -8 + ^ x29: .cfa -16 + ^
STACK CFI INIT 18224 80 .cfa: sp 0 +
STACK CFI 18228 .cfa: sp 48 +
STACK CFI 18234 .cfa: x29 48 + x19: .cfa -8 + ^ x20: .cfa -16 + ^ x21: .cfa -32 + ^ .ra: .cfa -40 + ^ x29: .cfa -48 + ^
STACK CFI 18294 .cfa: sp 48 +
STACK CFI 182a0 .cfa: sp 0 +
STACK CFI INIT 182a4 24 .cfa: sp 0 +
STACK CFI 182a8 .cfa: sp 32 +
STACK CFI 182b0 .cfa: x29 32 + x19: .cfa -16 + ^ .ra: .cfa -24 + ^ x29: .cfa -32 + ^
STACK CFI 182bc .cfa: sp 32 +
STACK CFI 182c4 .cfa: sp 0 +
STACK CFI INIT 18648 34 .cfa: sp 0 +
STACK CFI 1864c .cfa: sp 32 +
STACK CFI 18654 .cfa: x29 32 + x19: .cfa -16 + ^ .ra: .cfa -24 + ^ x29: .cfa -32 + ^
STACK CFI INIT 187f4 148 .cfa: sp 0 +
STACK CFI 187f8 .cfa: sp 48 +
STACK CFI 18804 .cfa: x29 48 + x19: .cfa -8 + ^ x20: .cfa -16 + ^ x21: .cfa -32 + ^ .ra: .cfa -40 + ^ x29: .cfa -48 + ^
STACK CFI 1892c .cfa: sp 48 +
STACK CFI 18938 .cfa: sp 0 +
STACK CFI INIT 18b60 68 .cfa: sp 0 +
STACK CFI 18b64 .cfa: sp 32 +
STACK CFI 18b6c .cfa: x29 32 + x19: .cfa -8 + ^ x20: .cfa -16 + ^ .ra: .cfa -24 + ^ x29: .cfa -32 + ^
STACK CFI 18b84 .cfa: sp 32 +
STACK CFI 18b8c .cfa: sp 0 +
STACK CFI 18b90 .cfa: x29 32 +
STACK CFI 18bbc .cfa: sp 32 +
STACK CFI 18bc4 .cfa: sp 0 +
STACK CFI INIT 18bc8 14 .cfa: sp 0 +
STACK CFI 18bcc .cfa: sp 16 +
STACK CFI 18bd0 .cfa: x29 16 + .ra: .cfa -8 + ^ x29: .cfa -16 + ^
STACK CFI INIT 18bdc 4 .cfa: sp 0 +
STACK CFI INIT 18be0 14 .cfa: sp 0 +
STACK CFI INIT 18bf4 120 .cfa: sp 0 +
STACK CFI 18bf8 .cfa: sp 64 +
STACK CFI 18c08 .cfa: x29 64 + x19: .cfa -8 + ^ x20: .cfa -16 + ^ x21: .cfa -24 + ^ x22: .cfa -32 + ^ x23: .cfa -40 + ^ x24: .cfa -48 + ^ .ra: .cfa -56 + ^ x29: .cfa -64 + ^
STACK CFI 18d00 .cfa: sp 64 +
STACK CFI 18d10 .cfa: sp 0 +
STACK CFI INIT 18d14 4a4 .cfa: sp 0 +
STACK CFI 18d18 .cfa: sp 32 +
STACK CFI 18d20 .cfa: x29 32 + x19: .cfa -8 + ^ x20: .cfa -16 + ^ .ra: .cfa -24 + ^ x29: .cfa -32 + ^
STACK CFI 19100 .cfa: sp 32 +
STACK CFI 19108 .cfa: sp 0 +
STACK CFI 1910c .cfa: x29 32 +
STACK CFI INIT 191b8 84 .cfa: sp 0 +
STACK CFI 191c0 .cfa: sp 32 +
STACK CFI 191c8 .cfa: x29 32 + x19: .cfa -8 + ^ x20: .cfa -16 + ^ .ra: .cfa -24 + ^ x29: .cfa -32 + ^
STACK CFI 19208 .cfa: sp 32 +
STACK CFI 19210 .cfa: sp 0 +
STACK CFI 19218 .cfa: x29 32 +
STACK CFI INIT 193dc 50 .cfa: sp 0 +
STACK CFI 193e0 .cfa: sp 32 +
STACK CFI 193e8 .cfa: x29 32 + x19: .cfa -16 + ^ .ra: .cfa -24 + ^ x29: .cfa -32 + ^
STACK CFI 19400 .cfa: sp 32 +
STACK CFI 19408 .cfa: sp 0 +
STACK CFI 1940c .cfa: x29 32 +
STACK CFI 19420 .cfa: sp 32 +
STACK CFI 19428 .cfa: sp 0 +
STACK CFI INIT 1942c 64 .cfa: sp 0 +
STACK CFI 19430 .cfa: sp 32 +
STACK CFI 19438 .cfa: x29 32 + x19: .cfa -16 + ^ .ra: .cfa -24 + ^ x29: .cfa -32 + ^
STACK CFI 19464 .cfa: sp 32 +
STACK CFI 1946c .cfa: sp 0 +
STACK CFI 19470 .cfa: x29 32 +
STACK CFI 19484 .cfa: sp 32 +
STACK CFI 1948c .cfa: sp 0 +
STACK CFI INIT 19490 14 .cfa: sp 0 +
STACK CFI 19494 .cfa: sp 16 +
STACK CFI 19498 .cfa: x29 16 + .ra: .cfa -8 + ^ x29: .cfa -16 + ^
STACK CFI INIT 194a4 168 .cfa: sp 0 +
STACK CFI 194a8 .cfa: sp 80 +
STACK CFI 194bc .cfa: x29 80 + x19: .cfa -8 + ^ x20: .cfa -16 + ^ x21: .cfa -24 + ^ x22: .cfa -32 + ^ x23: .cfa -40 + ^ x24: .cfa -48 + ^ x25: .cfa -56 + ^ x26: .cfa -64 + ^ .ra: .cfa -72 + ^ x29: .cfa -80 + ^
STACK CFI 195f4 .cfa: sp 80 +
STACK CFI 19608 .cfa: sp 0 +
STACK CFI INIT 1960c 1b0 .cfa: sp 0 +
STACK CFI INIT 1aa80 4 .cfa: sp 0 +
STACK CFI INIT 1aa84 3a0 .cfa: sp 0 +
STACK CFI 1aa88 .cfa: sp 112 +
STACK CFI 1aaa0 .cfa: x29 64 + x19: .cfa -8 + ^ x20: .cfa -16 + ^ x21: .cfa -24 + ^ x22: .cfa -32 + ^ x23: .cfa -40 + ^ x24: .cfa -48 + ^ .ra: .cfa -56 + ^ x29: .cfa -64 + ^ v8: .cfa -80 + ^
STACK CFI 1ae04 .cfa: sp 112 +
STACK CFI 1ae1c .cfa: sp 0 +
STACK CFI 1ae20 .cfa: x29 64 +
STACK CFI INIT 1b7b4 18 .cfa: sp 0 +
STACK CFI 1b7b8 .cfa: sp 16 +
STACK CFI 1b7bc .cfa: x29 16 + .ra: .cfa -8 + ^ x29: .cfa -16 + ^
STACK CFI 1b7c4 .cfa: sp 16 +
STACK CFI 1b7c8 .cfa: sp 0 +
STACK CFI INIT 1b7cc 440 .cfa: sp 0 +
STACK CFI 1b7d0 .cfa: sp 64 +
STACK CFI 1b7e0 .cfa: x29 64 + x19: .cfa -8 + ^ x20: .cfa -16 + ^ x21: .cfa -24 + ^ x22: .cfa -32 + ^ x23: .cfa -48 + ^ .ra: .cfa -56 + ^ x29: .cfa -64 + ^
STACK CFI 1bbf8 .cfa: sp 64 +
STACK CFI 1bc08 .cfa: sp 0 +
STACK CFI INIT 1bcb4 90 .cfa: sp 0 +
STACK CFI 1bcb8 .cfa: sp 32 +
STACK CFI 1bcc0 .cfa: x29 32 + x19: .cfa -16 + ^ .ra: .cfa -24 + ^ x29: .cfa -32 + ^
STACK CFI 1bd38 .cfa: sp 32 +
STACK CFI 1bd40 .cfa: sp 0 +
STACK CFI INIT 1c420 4 .cfa: sp 0 +
STACK CFI INIT 1c424 14 .cfa: sp 0 +
STACK CFI 1c428 .cfa: sp 16 +
STACK CFI 1c42c .cfa: x29 16 + .ra: .cfa -8 + ^ x29: .cfa -16 + ^
STACK CFI INIT 1c438 14 .cfa: sp 0 +
STACK CFI 1c43c .cfa: sp 16 +
STACK CFI 1c440 .cfa: x29 16 + .ra: .cfa -8 + ^ x29: .cfa -16 + ^
STACK CFI INIT 1c44c c .cfa: sp 0 +
STACK CFI 1c450 .cfa: sp 16 +
STACK CFI 1c454 .cfa: x29 16 + .ra: .cfa -8 + ^ x29: .cfa -16 + ^
STACK CFI INIT 1c4a8 30 .cfa: sp 0 +
STACK CFI 1c4ac .cfa: sp 32 +
STACK CFI 1c4b4 .cfa: x29 32 + x19: .cfa -16 + ^ .ra: .cfa -24 + ^ x29: .cfa -32 + ^
STACK CFI 1c4cc .cfa: sp 32 +
STACK CFI 1c4d4 .cfa: sp 0 +
STACK CFI INIT 1c4d8 c .cfa: sp 0 +
STACK CFI 1c4dc .cfa: sp 16 +
STACK CFI 1c4e0 .cfa: x29 16 + .ra: .cfa -8 + ^ x29: .cfa -16 + ^
STACK CFI INIT 1c4e4 4 .cfa: sp 0 +
STACK CFI INIT 1c4e8 4 .cfa: sp 0 +
STACK CFI INIT 1c4ec 38 .cfa: sp 0 +
STACK CFI 1c4f0 .cfa: sp 32 +
STACK CFI 1c4f8 .cfa: x29 32 + x19: .cfa -16 + ^ .ra: .cfa -24 + ^ x29: .cfa -32 + ^
STACK CFI 1c518 .cfa: sp 32 +
STACK CFI 1c520 .cfa: sp 0 +
STACK CFI INIT 1c524 18 .cfa: sp 0 +
STACK CFI INIT 1c53c 4 .cfa: sp 0 +
STACK CFI INIT 1c540 4 .cfa: sp 0 +
STACK CFI INIT 1c544 10 .cfa: sp 0 +
STACK CFI INIT 1c554 1c .cfa: sp 0 +
STACK CFI INIT 1c570 c .cfa: sp 0 +
STACK CFI INIT 1c57c 4 .cfa: sp 0 +
STACK CFI INIT 1c580 14 .cfa: sp 0 +
STACK CFI INIT 1c594 4 .cfa: sp 0 +
STACK CFI INIT 1c598 34 .cfa: sp 0 +
STACK CFI 1c59c .cfa: sp 32 +
STACK CFI 1c5a4 .cfa: x29 32 + x19: .cfa -16 + ^ .ra: .cfa -24 + ^ x29: .cfa -32 + ^
STACK CFI 1c5c0 .cfa: sp 32 +
STACK CFI 1c5c8 .cfa: sp 0 +
STACK CFI INIT 1c5cc 14 .cfa: sp 0 +
STACK CFI INIT 1c5e0 4 .cfa: sp 0 +
STACK CFI INIT 1c5e4 4 .cfa: sp 0 +
STACK CFI INIT 1c5e8 10 .cfa: sp 0 +
STACK CFI INIT 1c5f8 1c .cfa: sp 0 +
STACK CFI INIT 1c614 c .cfa: sp 0 +
STACK CFI INIT 1c944 4 .cfa: sp 0 +
STACK CFI INIT 1d65c 98 .cfa: sp 0 +
STACK CFI 1d660 .cfa: sp 32 +
STACK CFI 1d668 .cfa: x29 32 + x19: .cfa -16 + ^ .ra: .cfa -24 + ^ x29: .cfa -32 + ^
STACK CFI 1d6e8 .cfa: sp 32 +
STACK CFI 1d6f0 .cfa: sp 0 +
STACK CFI INIT 1d9fc 60 .cfa: sp 0 +
STACK CFI 1da00 .cfa: sp 32 +
STACK CFI 1da08 .cfa: x29 32 + x19: .cfa -8 + ^ x20: .cfa -16 + ^ .ra: .cfa -24 + ^ x29: .cfa -32 + ^
STACK CFI 1da50 .cfa: sp 32 +
STACK CFI 1da58 .cfa: sp 0 +
STACK CFI INIT 1da5c c .cfa: sp 0 +
STACK CFI INIT 1da68 c .cfa: sp 0 +
STACK CFI INIT 1da74 c .cfa: sp 0 +
STACK CFI INIT 1da80 38 .cfa: sp 0 +
STACK CFI 1da84 .cfa: sp 32 +
STACK CFI 1da8c .cfa: x29 32 + x19: .cfa -16 + ^ .ra: .cfa -24 + ^ x29: .cfa -32 + ^
STACK CFI 1daac .cfa: sp 32 +
STACK CFI 1dab4 .cfa: sp 0 +
STACK CFI INIT 1dad4 214 .cfa: sp 0 +
STACK CFI 1dad8 .cfa: sp 160 +
STACK CFI 1daf4 .cfa: x29 96 + x19: .cfa -8 + ^ x20: .cfa -16 + ^ x21: .cfa -24 + ^ x22: .cfa -32 + ^ x23: .cfa -40 + ^ x24: .cfa -48 + ^ x25: .cfa -56 + ^ x26: .cfa -64 + ^ x27: .cfa -72 + ^ x28: .cfa -80 + ^ .ra: .cfa -88 + ^ x29: .cfa -96 + ^
STACK CFI 1dcc4 .cfa: sp 160 +
STACK CFI 1dce0 .cfa: sp 0 +
STACK CFI 1dce4 .cfa: x29 96 +
STACK CFI INIT 1dce8 84 .cfa: sp 0 +
STACK CFI 1dcec .cfa: sp 32 +
STACK CFI 1dcf4 .cfa: x29 32 + x19: .cfa -16 + ^ .ra: .cfa -24 + ^ x29: .cfa -32 + ^
STACK CFI 1dd30 .cfa: sp 32 +
STACK CFI 1dd38 .cfa: sp 0 +
STACK CFI 1dd3c .cfa: x29 32 +
STACK CFI 1dd60 .cfa: sp 32 +
STACK CFI 1dd68 .cfa: sp 0 +
STACK CFI INIT 1e450 7c .cfa: sp 0 +
STACK CFI 1e454 .cfa: sp 48 +
STACK CFI 1e460 .cfa: x29 48 + x19: .cfa -8 + ^ x20: .cfa -16 + ^ x21: .cfa -32 + ^ .ra: .cfa -40 + ^ x29: .cfa -48 + ^
STACK CFI 1e4ac .cfa: sp 48 +
STACK CFI 1e4b8 .cfa: sp 0 +
STACK CFI 1e4bc .cfa: sp 48 +
STACK CFI 1e4c8 .cfa: sp 0 +
STACK CFI INIT 1ecc0 12c .cfa: sp 0 +
STACK CFI 1ecc4 .cfa: sp 32 +
STACK CFI 1eccc .cfa: x29 32 + x19: .cfa -8 + ^ x20: .cfa -16 + ^ .ra: .cfa -24 + ^ x29: .cfa -32 + ^
STACK CFI 1ed70 .cfa: sp 32 +
STACK CFI 1ed78 .cfa: sp 0 +
STACK CFI 1ed7c .cfa: x29 32 +
STACK CFI 1edc0 .cfa: sp 32 +
STACK CFI 1edc8 .cfa: sp 0 +
STACK CFI 1edcc .cfa: x29 32 +
STACK CFI 1ede0 .cfa: sp 32 +
STACK CFI 1ede8 .cfa: sp 0 +
STACK CFI INIT 1edec ac .cfa: sp 0 +
STACK CFI 1edf0 .cfa: sp 64 +
STACK CFI 1ee00 .cfa: x29 64 + x19: .cfa -8 + ^ x20: .cfa -16 + ^ x21: .cfa -24 + ^ x22: .cfa -32 + ^ x23: .cfa -48 + ^ .ra: .cfa -56 + ^ x29: .cfa -64 + ^
STACK CFI 1ee7c .cfa: sp 64 +
STACK CFI 1ee8c .cfa: sp 0 +
STACK CFI 1ee90 .cfa: x29 64 +
STACK CFI INIT 1ee98 110 .cfa: sp 0 +
STACK CFI 1ee9c .cfa: sp 64 +
STACK CFI 1eeac .cfa: x29 64 + x19: .cfa -8 + ^ x20: .cfa -16 + ^ x21: .cfa -24 + ^ x22: .cfa -32 + ^ x23: .cfa -40 + ^ x24: .cfa -48 + ^ .ra: .cfa -56 + ^ x29: .cfa -64 + ^
STACK CFI 1ef8c .cfa: sp 64 +
STACK CFI 1ef9c .cfa: sp 0 +
STACK CFI 1efa0 .cfa: x29 64 +
STACK CFI INIT 1efa8 c .cfa: sp 0 +
STACK CFI 1efac .cfa: sp 16 +
STACK CFI 1efb0 .cfa: x29 16 + .ra: .cfa -8 + ^ x29: .cfa -16 + ^
STACK CFI INIT 1fd9c 44 .cfa: sp 0 +
STACK CFI 1fda0 .cfa: sp 32 +
STACK CFI 1fda8 .cfa: x29 32 + x19: .cfa -16 + ^ .ra: .cfa -24 + ^ x29: .cfa -32 + ^
STACK CFI 1fdc4 .cfa: sp 32 +
STACK CFI 1fdcc .cfa: sp 0 +
STACK CFI 1fdd0 .cfa: x29 32 +
STACK CFI 1fdd4 .cfa: sp 32 +
STACK CFI 1fddc .cfa: sp 0 +
STACK CFI INIT 200b4 a4 .cfa: sp 0 +
STACK CFI 200b8 .cfa: sp 48 +
STACK CFI 200c4 .cfa: x29 48 + x19: .cfa -8 + ^ x20: .cfa -16 + ^ x21: .cfa -32 + ^ .ra: .cfa -40 + ^ x29: .cfa -48 + ^
STACK CFI 200e4 .cfa: sp 48 +
STACK CFI 200f0 .cfa: sp 0 +
STACK CFI 200f4 .cfa: x29 48 +
STACK CFI 20138 .cfa: sp 48 +
STACK CFI 20144 .cfa: sp 0 +
STACK CFI 20148 .cfa: sp 48 +
STACK CFI 20154 .cfa: sp 0 +
STACK CFI INIT 20158 4bc .cfa: sp 0 +
STACK CFI 2015c .cfa: sp 96 +
STACK CFI 20174 .cfa: x29 96 + x19: .cfa -8 + ^ x20: .cfa -16 + ^ x21: .cfa -24 + ^ x22: .cfa -32 + ^ x23: .cfa -40 + ^ x24: .cfa -48 + ^ x25: .cfa -56 + ^ x26: .cfa -64 + ^ x27: .cfa -72 + ^ x28: .cfa -80 + ^ .ra: .cfa -88 + ^ x29: .cfa -96 + ^
STACK CFI 20430 .cfa: sp 96 +
STACK CFI 20448 .cfa: sp 0 +
STACK CFI 2044c .cfa: x29 96 +
STACK CFI INIT 20614 14 .cfa: sp 0 +
STACK CFI 20618 .cfa: sp 16 +
STACK CFI 2061c .cfa: x29 16 + .ra: .cfa -8 + ^ x29: .cfa -16 + ^
STACK CFI INIT 20628 13a4 .cfa: sp 0 +
STACK CFI 2062c .cfa: sp 304 +
STACK CFI 20648 .cfa: x29 96 + x19: .cfa -8 + ^ x20: .cfa -16 + ^ x21: .cfa -24 + ^ x22: .cfa -32 + ^ x23: .cfa -40 + ^ x24: .cfa -48 + ^ x25: .cfa -56 + ^ x26: .cfa -64 + ^ x27: .cfa -72 + ^ x28: .cfa -80 + ^ .ra: .cfa -88 + ^ x29: .cfa -96 + ^
STACK CFI 20e44 .cfa: sp 304 +
STACK CFI 20e48 .cfa: x29 96 +
STACK CFI 20e98 .cfa: sp 304 +
STACK CFI 20eb4 .cfa: sp 0 +
STACK CFI 20eb8 .cfa: x29 96 +
STACK CFI 20edc .cfa: sp 304 +
STACK CFI 20ef8 .cfa: sp 0 +
STACK CFI 20efc .cfa: x29 96 +
STACK CFI 217dc .cfa: sp 304 +
STACK CFI 217e0 .cfa: x29 96 +
STACK CFI 219a8 .cfa: sp 304 +
STACK CFI 219c4 .cfa: sp 0 +
STACK CFI 219c8 .cfa: x29 96 +
STACK CFI INIT 219cc 440 .cfa: sp 0 +
STACK CFI 219d0 .cfa: sp 192 +
STACK CFI 219ec .cfa: x29 96 + x19: .cfa -8 + ^ x20: .cfa -16 + ^ x21: .cfa -24 + ^ x22: .cfa -32 + ^ x23: .cfa -40 + ^ x24: .cfa -48 + ^ x25: .cfa -56 + ^ x26: .cfa -64 + ^ x27: .cfa -72 + ^ x28: .cfa -80 + ^ .ra: .cfa -88 + ^ x29: .cfa -96 + ^
STACK CFI 21de8 .cfa: sp 192 +
STACK CFI 21e04 .cfa: sp 0 +
STACK CFI 21e08 .cfa: x29 96 +
STACK CFI INIT 21e0c 168 .cfa: sp 0 +
STACK CFI 21e10 .cfa: sp 144 +
STACK CFI 21e2c .cfa: x29 96 + x19: .cfa -8 + ^ x20: .cfa -16 + ^ x21: .cfa -24 + ^ x22: .cfa -32 + ^ x23: .cfa -40 + ^ x24: .cfa -48 + ^ x25: .cfa -56 + ^ x26: .cfa -64 + ^ x27: .cfa -72 + ^ x28: .cfa -80 + ^ .ra: .cfa -88 + ^ x29: .cfa -96 + ^
STACK CFI 21f50 .cfa: sp 144 +
STACK CFI 21f6c .cfa: sp 0 +
STACK CFI 21f70 .cfa: x29 96 +
STACK CFI INIT 21f74 104 .cfa: sp 0 +
STACK CFI 21f78 .cfa: sp 48 +
STACK CFI 21f84 .cfa: x29 48 + x19: .cfa -8 + ^ x20: .cfa -16 + ^ x21: .cfa -24 + ^ x22: .cfa -32 + ^ .ra: .cfa -40 + ^ x29: .cfa -48 + ^
STACK CFI 22058 .cfa: sp 48 +
STACK CFI 22064 .cfa: sp 0 +
STACK CFI 22068 .cfa: sp 48 +
STACK CFI 22074 .cfa: sp 0 +
STACK CFI INIT 232e8 15c .cfa: sp 0 +
STACK CFI 232ec .cfa: sp 144 +
STACK CFI 23308 .cfa: x29 96 + x19: .cfa -8 + ^ x20: .cfa -16 + ^ x21: .cfa -24 + ^ x22: .cfa -32 + ^ x23: .cfa -40 + ^ x24: .cfa -48 + ^ x25: .cfa -56 + ^ x26: .cfa -64 + ^ x27: .cfa -72 + ^ x28: .cfa -80 + ^ .ra: .cfa -88 + ^ x29: .cfa -96 + ^
STACK CFI 23420 .cfa: sp 144 +
STACK CFI 2343c .cfa: sp 0 +
STACK CFI 23440 .cfa: x29 96 +
STACK CFI INIT 23444 100 .cfa: sp 0 +
STACK CFI 23448 .cfa: sp 64 +
STACK CFI 23458 .cfa: x29 64 + x19: .cfa -8 + ^ x20: .cfa -16 + ^ x21: .cfa -24 + ^ x22: .cfa -32 + ^ x23: .cfa -48 + ^ .ra: .cfa -56 + ^ x29: .cfa -64 + ^
STACK CFI 234a0 .cfa: sp 64 +
STACK CFI 234b0 .cfa: sp 0 +
STACK CFI 234b4 .cfa: x29 64 +
STACK CFI 234e0 .cfa: sp 64 +
STACK CFI 234f0 .cfa: sp 0 +
STACK CFI 234f4 .cfa: x29 64 +
STACK CFI 2351c .cfa: sp 64 +
STACK CFI 2352c .cfa: sp 0 +
STACK CFI 23530 .cfa: sp 64 +
STACK CFI 23540 .cfa: sp 0 +
STACK CFI INIT 238e4 b4 .cfa: sp 0 +
STACK CFI 238e8 .cfa: sp 64 +
STACK CFI 238f8 .cfa: x29 64 + x19: .cfa -8 + ^ x20: .cfa -16 + ^ x21: .cfa -24 + ^ x22: .cfa -32 + ^ x23: .cfa -48 + ^ .ra: .cfa -56 + ^ x29: .cfa -64 + ^
STACK CFI 23970 .cfa: sp 64 +
STACK CFI 23980 .cfa: sp 0 +
STACK CFI 23984 .cfa: sp 64 +
STACK CFI 23994 .cfa: sp 0 +
STACK CFI INIT 23998 d8 .cfa: sp 0 +
STACK CFI 2399c .cfa: sp 64 +
STACK CFI 239ac .cfa: x29 64 + x19: .cfa -8 + ^ x20: .cfa -16 + ^ x21: .cfa -24 + ^ x22: .cfa -32 + ^ x23: .cfa -40 + ^ x24: .cfa -48 + ^ .ra: .cfa -56 + ^ x29: .cfa -64 + ^
STACK CFI 23a48 .cfa: sp 64 +
STACK CFI 23a58 .cfa: sp 0 +
STACK CFI 23a5c .cfa: sp 64 +
STACK CFI 23a6c .cfa: sp 0 +
STACK CFI INIT 23a70 4 .cfa: sp 0 +
STACK CFI INIT 23a74 4 .cfa: sp 0 +
STACK CFI INIT 23a78 3c .cfa: sp 0 +
STACK CFI 23a7c .cfa: sp 32 +
STACK CFI 23a84 .cfa: x29 32 + x19: .cfa -16 + ^ .ra: .cfa -24 + ^ x29: .cfa -32 + ^
STACK CFI 23aa8 .cfa: sp 32 +
STACK CFI 23ab0 .cfa: sp 0 +
STACK CFI INIT 23ab4 1c .cfa: sp 0 +
STACK CFI INIT 23ad0 4 .cfa: sp 0 +
STACK CFI INIT 23ad4 4 .cfa: sp 0 +
STACK CFI INIT 24320 1c .cfa: sp 0 +
STACK CFI INIT 2433c c .cfa: sp 0 +
STACK CFI INIT 243e0 4 .cfa: sp 0 +
STACK CFI INIT 243e4 4 .cfa: sp 0 +
STACK CFI INIT 243e8 34 .cfa: sp 0 +
STACK CFI 243ec .cfa: sp 32 +
STACK CFI 243f4 .cfa: x29 32 + x19: .cfa -16 + ^ .ra: .cfa -24 + ^ x29: .cfa -32 + ^
STACK CFI 24410 .cfa: sp 32 +
STACK CFI 24418 .cfa: sp 0 +
STACK CFI INIT 2441c 14 .cfa: sp 0 +
STACK CFI INIT 24430 4 .cfa: sp 0 +
STACK CFI INIT 24434 4 .cfa: sp 0 +
STACK CFI INIT 24588 1c .cfa: sp 0 +
STACK CFI INIT 245a4 c .cfa: sp 0 +
STACK CFI INIT 245b0 3c .cfa: sp 0 +
STACK CFI 245b4 .cfa: sp 32 +
STACK CFI 245bc .cfa: x29 32 + x19: .cfa -16 + ^ .ra: .cfa -24 + ^ x29: .cfa -32 + ^
STACK CFI 245c8 .cfa: sp 32 +
STACK CFI 245d0 .cfa: sp 0 +
STACK CFI 245d4 .cfa: x29 32 +
STACK CFI 245e0 .cfa: sp 32 +
STACK CFI 245e8 .cfa: sp 0 +
STACK CFI INIT 245ec 4c .cfa: sp 0 +
STACK CFI 245f0 .cfa: sp 32 +
STACK CFI 245f8 .cfa: x29 32 + x19: .cfa -8 + ^ x20: .cfa -16 + ^ .ra: .cfa -24 + ^ x29: .cfa -32 + ^
STACK CFI 24620 .cfa: sp 32 +
STACK CFI 24628 .cfa: sp 0 +
STACK CFI 2462c .cfa: sp 32 +
STACK CFI 24634 .cfa: sp 0 +
STACK CFI INIT 24858 64 .cfa: sp 0 +
STACK CFI 2485c .cfa: sp 32 +
STACK CFI 24864 .cfa: x29 32 + x19: .cfa -16 + ^ .ra: .cfa -24 + ^ x29: .cfa -32 + ^
STACK CFI 24890 .cfa: sp 32 +
STACK CFI 24898 .cfa: sp 0 +
STACK CFI 2489c .cfa: x29 32 +
STACK CFI 248b0 .cfa: sp 32 +
STACK CFI 248b8 .cfa: sp 0 +
STACK CFI INIT 248bc 24 .cfa: sp 0 +
STACK CFI 248c0 .cfa: sp 32 +
STACK CFI 248c8 .cfa: x29 32 + x19: .cfa -16 + ^ .ra: .cfa -24 + ^ x29: .cfa -32 + ^
STACK CFI 248d4 .cfa: sp 32 +
STACK CFI 248dc .cfa: sp 0 +
STACK CFI INIT 24b3c 24 .cfa: sp 0 +
STACK CFI 24b40 .cfa: sp 32 +
STACK CFI 24b48 .cfa: x29 32 + x19: .cfa -16 + ^ .ra: .cfa -24 + ^ x29: .cfa -32 + ^
STACK CFI 24b54 .cfa: sp 32 +
STACK CFI 24b5c .cfa: sp 0 +
STACK CFI INIT 24b60 4 .cfa: sp 0 +
STACK CFI INIT 255b4 4 .cfa: sp 0 +
STACK CFI INIT 255b8 14 .cfa: sp 0 +
STACK CFI INIT 25ad8 c .cfa: sp 0 +
STACK CFI INIT 25ae4 24c .cfa: sp 0 +
STACK CFI INIT 25d30 a0 .cfa: sp 0 +
STACK CFI 25d3c .cfa: sp 32 +
STACK CFI 25d94 .cfa: sp 0 +
STACK CFI 25d98 .cfa: sp 32 +
STACK CFI 25da0 .cfa: sp 0 +
STACK CFI 25da4 .cfa: sp 32 +
STACK CFI 25db8 .cfa: sp 0 +
STACK CFI 25dbc .cfa: sp 32 +
STACK CFI 25dcc .cfa: sp 0 +
STACK CFI INIT 25dd0 38 .cfa: sp 0 +
STACK CFI 25ddc .cfa: sp 32 +
STACK CFI 25e04 .cfa: sp 0 +
STACK CFI INIT 2609c 7c .cfa: sp 0 +
STACK CFI 260a0 .cfa: sp 32 +
STACK CFI 260a8 .cfa: x29 32 + x19: .cfa -16 + ^ .ra: .cfa -24 + ^ x29: .cfa -32 + ^
STACK CFI 260d4 .cfa: sp 32 +
STACK CFI 260dc .cfa: sp 0 +
STACK CFI 260e0 .cfa: x29 32 +
STACK CFI 2610c .cfa: sp 32 +
STACK CFI 26114 .cfa: sp 0 +
STACK CFI INIT 26168 2c .cfa: sp 0 +
STACK CFI 2616c .cfa: sp 32 +
STACK CFI 26174 .cfa: x29 32 + x19: .cfa -16 + ^ .ra: .cfa -24 + ^ x29: .cfa -32 + ^
STACK CFI 26188 .cfa: sp 32 +
STACK CFI 26190 .cfa: sp 0 +
STACK CFI INIT 26954 64 .cfa: sp 0 +
STACK CFI 26958 .cfa: sp 32 +
STACK CFI 26960 .cfa: x29 32 + x19: .cfa -16 + ^ .ra: .cfa -24 + ^ x29: .cfa -32 + ^
STACK CFI 2697c .cfa: sp 32 +
STACK CFI 26984 .cfa: sp 0 +
STACK CFI 26988 .cfa: x29 32 +
STACK CFI 269ac .cfa: sp 32 +
STACK CFI 269b4 .cfa: sp 0 +
STACK CFI INIT 269b8 570 .cfa: sp 0 +
STACK CFI 269bc .cfa: sp 176 +
STACK CFI 269d0 .cfa: x29 64 + x19: .cfa -8 + ^ x20: .cfa -16 + ^ x21: .cfa -24 + ^ x22: .cfa -32 + ^ x23: .cfa -40 + ^ x24: .cfa -48 + ^ .ra: .cfa -56 + ^ x29: .cfa -64 + ^
STACK CFI 26c00 .cfa: sp 176 +
STACK CFI 26c14 .cfa: sp 0 +
STACK CFI 26c18 .cfa: x29 64 +
STACK CFI 26c64 .cfa: sp 176 +
STACK CFI 26c78 .cfa: sp 0 +
STACK CFI 26c7c .cfa: x29 64 +
STACK CFI 26cb4 .cfa: sp 176 +
STACK CFI 26cc8 .cfa: sp 0 +
STACK CFI 26ccc .cfa: x29 64 +
STACK CFI 26ce4 .cfa: sp 176 +
STACK CFI 26cf8 .cfa: sp 0 +
STACK CFI 26cfc .cfa: x29 64 +
STACK CFI 26d1c .cfa: sp 176 +
STACK CFI 26d30 .cfa: sp 0 +
STACK CFI 26d34 .cfa: x29 64 +
STACK CFI 26d4c .cfa: sp 176 +
STACK CFI 26d60 .cfa: sp 0 +
STACK CFI 26d64 .cfa: x29 64 +
STACK CFI 26d78 .cfa: sp 176 +
STACK CFI 26d8c .cfa: sp 0 +
STACK CFI 26d90 .cfa: x29 64 +
STACK CFI 26da4 .cfa: sp 176 +
STACK CFI 26db8 .cfa: sp 0 +
STACK CFI 26dbc .cfa: x29 64 +
STACK CFI 26dcc .cfa: sp 176 +
STACK CFI 26de0 .cfa: sp 0 +
STACK CFI 26de4 .cfa: x29 64 +
STACK CFI 26df4 .cfa: sp 176 +
STACK CFI 26e08 .cfa: sp 0 +
STACK CFI 26e0c .cfa: x29 64 +
STACK CFI 26e24 .cfa: sp 176 +
STACK CFI 26e38 .cfa: sp 0 +
STACK CFI 26e3c .cfa: x29 64 +
STACK CFI 26e50 .cfa: sp 176 +
STACK CFI 26e64 .cfa: sp 0 +
STACK CFI 26e68 .cfa: x29 64 +
STACK CFI 26e80 .cfa: sp 176 +
STACK CFI 26e94 .cfa: sp 0 +
STACK CFI 26e98 .cfa: x29 64 +
STACK CFI 26ec4 .cfa: sp 176 +
STACK CFI 26ed8 .cfa: sp 0 +
STACK CFI 26edc .cfa: x29 64 +
STACK CFI 26ef0 .cfa: sp 176 +
STACK CFI 26f04 .cfa: sp 0 +
STACK CFI 26f08 .cfa: x29 64 +
STACK CFI INIT 26f28 228 .cfa: sp 0 +
STACK CFI INIT 27150 2dc .cfa: sp 0 +
STACK CFI INIT 2742c 53c .cfa: sp 0 +
STACK CFI INIT 27968 78 .cfa: sp 0 +
STACK CFI 2796c .cfa: sp 48 +
STACK CFI 27978 .cfa: x29 48 + x19: .cfa -8 + ^ x20: .cfa -16 + ^ x21: .cfa -24 + ^ x22: .cfa -32 + ^ .ra: .cfa -40 + ^ x29: .cfa -48 + ^
STACK CFI 279c0 .cfa: sp 48 +
STACK CFI 279cc .cfa: sp 0 +
STACK CFI 279d0 .cfa: sp 48 +
STACK CFI 279dc .cfa: sp 0 +
STACK CFI INIT 279e0 8c .cfa: sp 0 +
STACK CFI 279e4 .cfa: sp 32 +
STACK CFI 279ec .cfa: x29 32 + x19: .cfa -16 + ^ .ra: .cfa -24 + ^ x29: .cfa -32 + ^
STACK CFI 27a20 .cfa: sp 32 +
STACK CFI 27a28 .cfa: sp 0 +
STACK CFI 27a2c .cfa: x29 32 +
STACK CFI 27a60 .cfa: sp 32 +
STACK CFI 27a68 .cfa: sp 0 +
STACK CFI INIT 27a6c 24 .cfa: sp 0 +
STACK CFI 27a70 .cfa: sp 32 +
STACK CFI 27a78 .cfa: x29 32 + x19: .cfa -16 + ^ .ra: .cfa -24 + ^ x29: .cfa -32 + ^
STACK CFI 27a84 .cfa: sp 32 +
STACK CFI 27a8c .cfa: sp 0 +
STACK CFI INIT 27a90 150 .cfa: sp 0 +
STACK CFI 27a94 .cfa: sp 48 +
STACK CFI 27aa0 .cfa: x29 48 + x19: .cfa -8 + ^ x20: .cfa -16 + ^ x21: .cfa -24 + ^ x22: .cfa -32 + ^ .ra: .cfa -40 + ^ x29: .cfa -48 + ^
STACK CFI 27bd0 .cfa: sp 48 +
STACK CFI 27bdc .cfa: sp 0 +
STACK CFI INIT 27be0 68 .cfa: sp 0 +
STACK CFI 27be4 .cfa: sp 64 +
STACK CFI 27bf0 .cfa: x29 32 + x19: .cfa -16 + ^ .ra: .cfa -24 + ^ x29: .cfa -32 + ^
STACK CFI 27c34 .cfa: sp 64 +
STACK CFI 27c40 .cfa: sp 0 +
STACK CFI 27c44 .cfa: x29 32 +
STACK CFI INIT 27c48 90 .cfa: sp 0 +
STACK CFI 27c4c .cfa: sp 32 +
STACK CFI 27c54 .cfa: x29 32 + x19: .cfa -8 + ^ x20: .cfa -16 + ^ .ra: .cfa -24 + ^ x29: .cfa -32 + ^
STACK CFI 27c80 .cfa: sp 32 +
STACK CFI 27c88 .cfa: sp 0 +
STACK CFI 27c8c .cfa: x29 32 +
STACK CFI 27ccc .cfa: sp 32 +
STACK CFI 27cd4 .cfa: sp 0 +
STACK CFI INIT 27cd8 ec .cfa: sp 0 +
STACK CFI 27cdc .cfa: sp 112 +
STACK CFI 27cec .cfa: x29 48 + x19: .cfa -8 + ^ x20: .cfa -16 + ^ x21: .cfa -32 + ^ .ra: .cfa -40 + ^ x29: .cfa -48 + ^
STACK CFI 27dac .cfa: sp 112 +
STACK CFI 27dbc .cfa: sp 0 +
STACK CFI 27dc0 .cfa: x29 48 +
STACK CFI INIT 27dc4 ec .cfa: sp 0 +
STACK CFI 27dc8 .cfa: sp 112 +
STACK CFI 27dd8 .cfa: x29 48 + x19: .cfa -8 + ^ x20: .cfa -16 + ^ x21: .cfa -32 + ^ .ra: .cfa -40 + ^ x29: .cfa -48 + ^
STACK CFI 27e98 .cfa: sp 112 +
STACK CFI 27ea8 .cfa: sp 0 +
STACK CFI 27eac .cfa: x29 48 +
STACK CFI INIT 27eb0 48 .cfa: sp 0 +
STACK CFI 27eb4 .cfa: sp 32 +
STACK CFI 27ebc .cfa: x29 32 + x19: .cfa -8 + ^ x20: .cfa -16 + ^ .ra: .cfa -24 + ^ x29: .cfa -32 + ^
STACK CFI 27ee0 .cfa: sp 32 +
STACK CFI 27ee8 .cfa: sp 0 +
STACK CFI 27eec .cfa: x29 32 +
STACK CFI INIT 27ef8 98 .cfa: sp 0 +
STACK CFI 27efc .cfa: sp 80 +
STACK CFI 27f08 .cfa: x29 32 + x19: .cfa -16 + ^ .ra: .cfa -24 + ^ x29: .cfa -32 + ^
STACK CFI 27f7c .cfa: sp 80 +
STACK CFI 27f88 .cfa: sp 0 +
STACK CFI 27f8c .cfa: x29 32 +
STACK CFI INIT 27f90 260 .cfa: sp 0 +
STACK CFI 27f94 .cfa: sp 112 +
STACK CFI 27fac .cfa: x29 80 + x19: .cfa -8 + ^ x20: .cfa -16 + ^ x21: .cfa -24 + ^ x22: .cfa -32 + ^ x23: .cfa -40 + ^ x24: .cfa -48 + ^ x25: .cfa -64 + ^ .ra: .cfa -72 + ^ x29: .cfa -80 + ^
STACK CFI 28190 .cfa: sp 112 +
STACK CFI 281a8 .cfa: sp 0 +
STACK CFI 281ac .cfa: x29 80 +
STACK CFI INIT 281f0 150 .cfa: sp 0 +
STACK CFI 281f4 .cfa: sp 48 +
STACK CFI 28200 .cfa: x29 48 + x19: .cfa -8 + ^ x20: .cfa -16 + ^ x21: .cfa -24 + ^ x22: .cfa -32 + ^ .ra: .cfa -40 + ^ x29: .cfa -48 + ^
STACK CFI 28330 .cfa: sp 48 +
STACK CFI 2833c .cfa: sp 0 +
STACK CFI INIT 28340 1e0 .cfa: sp 0 +
STACK CFI 28344 .cfa: sp 96 +
STACK CFI 28358 .cfa: x29 64 + x19: .cfa -8 + ^ x20: .cfa -16 + ^ x21: .cfa -24 + ^ x22: .cfa -32 + ^ x23: .cfa -40 + ^ x24: .cfa -48 + ^ .ra: .cfa -56 + ^ x29: .cfa -64 + ^
STACK CFI 284d8 .cfa: sp 96 +
STACK CFI 284ec .cfa: sp 0 +
STACK CFI 284f0 .cfa: x29 64 +
STACK CFI INIT 28520 284 .cfa: sp 0 +
STACK CFI 28524 .cfa: sp 112 +
STACK CFI 2853c .cfa: x29 80 + x19: .cfa -8 + ^ x20: .cfa -16 + ^ x21: .cfa -24 + ^ x22: .cfa -32 + ^ x23: .cfa -40 + ^ x24: .cfa -48 + ^ x25: .cfa -64 + ^ .ra: .cfa -72 + ^ x29: .cfa -80 + ^
STACK CFI 28744 .cfa: sp 112 +
STACK CFI 2875c .cfa: sp 0 +
STACK CFI 28760 .cfa: x29 80 +
STACK CFI INIT 287a4 208 .cfa: sp 0 +
STACK CFI 287a8 .cfa: sp 96 +
STACK CFI 287bc .cfa: x29 64 + x19: .cfa -8 + ^ x20: .cfa -16 + ^ x21: .cfa -24 + ^ x22: .cfa -32 + ^ x23: .cfa -40 + ^ x24: .cfa -48 + ^ .ra: .cfa -56 + ^ x29: .cfa -64 + ^
STACK CFI 28964 .cfa: sp 96 +
STACK CFI 28978 .cfa: sp 0 +
STACK CFI 2897c .cfa: x29 64 +
STACK CFI INIT 289ac 360 .cfa: sp 0 +
STACK CFI 289b0 .cfa: sp 160 +
STACK CFI 289cc .cfa: x29 96 + x19: .cfa -8 + ^ x20: .cfa -16 + ^ x21: .cfa -24 + ^ x22: .cfa -32 + ^ x23: .cfa -40 + ^ x24: .cfa -48 + ^ x25: .cfa -56 + ^ x26: .cfa -64 + ^ x27: .cfa -72 + ^ x28: .cfa -80 + ^ .ra: .cfa -88 + ^ x29: .cfa -96 + ^
STACK CFI 28c98 .cfa: sp 160 +
STACK CFI 28cb4 .cfa: sp 0 +
STACK CFI 28cb8 .cfa: x29 96 +
STACK CFI INIT 28d0c 314 .cfa: sp 0 +
STACK CFI 28d10 .cfa: sp 144 +
STACK CFI 28d2c .cfa: x29 96 + x19: .cfa -8 + ^ x20: .cfa -16 + ^ x21: .cfa -24 + ^ x22: .cfa -32 + ^ x23: .cfa -40 + ^ x24: .cfa -48 + ^ x25: .cfa -56 + ^ x26: .cfa -64 + ^ x27: .cfa -72 + ^ x28: .cfa -80 + ^ .ra: .cfa -88 + ^ x29: .cfa -96 + ^
STACK CFI 28fa8 .cfa: sp 144 +
STACK CFI 28fc4 .cfa: sp 0 +
STACK CFI 28fc8 .cfa: x29 96 +
STACK CFI INIT 29020 290 .cfa: sp 0 +
STACK CFI 29024 .cfa: sp 128 +
STACK CFI 2903c .cfa: x29 80 + x19: .cfa -8 + ^ x20: .cfa -16 + ^ x21: .cfa -24 + ^ x22: .cfa -32 + ^ x23: .cfa -40 + ^ x24: .cfa -48 + ^ x25: .cfa -56 + ^ x26: .cfa -64 + ^ .ra: .cfa -72 + ^ x29: .cfa -80 + ^
STACK CFI 29290 .cfa: sp 128 +
STACK CFI 292a8 .cfa: sp 0 +
STACK CFI 292ac .cfa: x29 80 +
STACK CFI INIT 292b0 ddc .cfa: sp 0 +
STACK CFI 292b4 .cfa: sp 144 +
STACK CFI 292d0 .cfa: x29 96 + x19: .cfa -8 + ^ x20: .cfa -16 + ^ x21: .cfa -24 + ^ x22: .cfa -32 + ^ x23: .cfa -40 + ^ x24: .cfa -48 + ^ x25: .cfa -56 + ^ x26: .cfa -64 + ^ x27: .cfa -72 + ^ x28: .cfa -80 + ^ .ra: .cfa -88 + ^ x29: .cfa -96 + ^
STACK CFI 29f64 .cfa: sp 144 +
STACK CFI 29f80 .cfa: sp 0 +
STACK CFI 29f84 .cfa: x29 96 +
STACK CFI INIT 2a08c 1d0 .cfa: sp 0 +
STACK CFI 2a090 .cfa: sp 80 +
STACK CFI 2a0a4 .cfa: x29 80 + x19: .cfa -8 + ^ x20: .cfa -16 + ^ x21: .cfa -24 + ^ x22: .cfa -32 + ^ x23: .cfa -40 + ^ x24: .cfa -48 + ^ x25: .cfa -64 + ^ .ra: .cfa -72 + ^ x29: .cfa -80 + ^
STACK CFI 2a244 .cfa: sp 80 +
STACK CFI 2a258 .cfa: sp 0 +
STACK CFI INIT 2a25c 23c .cfa: sp 0 +
STACK CFI 2a260 .cfa: sp 112 +
STACK CFI 2a274 .cfa: x29 64 + x19: .cfa -8 + ^ x20: .cfa -16 + ^ x21: .cfa -24 + ^ x22: .cfa -32 + ^ x23: .cfa -40 + ^ x24: .cfa -48 + ^ .ra: .cfa -56 + ^ x29: .cfa -64 + ^
STACK CFI 2a450 .cfa: sp 112 +
STACK CFI 2a464 .cfa: sp 0 +
STACK CFI 2a468 .cfa: x29 64 +
STACK CFI INIT 2a498 30c .cfa: sp 0 +
STACK CFI 2a49c .cfa: sp 80 +
STACK CFI 2a4b0 .cfa: x29 64 + x19: .cfa -8 + ^ x20: .cfa -16 + ^ x21: .cfa -24 + ^ x22: .cfa -32 + ^ x23: .cfa -40 + ^ x24: .cfa -48 + ^ .ra: .cfa -56 + ^ x29: .cfa -64 + ^
STACK CFI 2a62c .cfa: sp 80 +
STACK CFI 2a640 .cfa: sp 0 +
STACK CFI 2a644 .cfa: x29 64 +
STACK CFI INIT 2a7a4 178 .cfa: sp 0 +
STACK CFI 2a7a8 .cfa: sp 80 +
STACK CFI 2a7bc .cfa: x29 64 + x19: .cfa -8 + ^ x20: .cfa -16 + ^ x21: .cfa -24 + ^ x22: .cfa -32 + ^ x23: .cfa -40 + ^ x24: .cfa -48 + ^ .ra: .cfa -56 + ^ x29: .cfa -64 + ^
STACK CFI 2a900 .cfa: sp 80 +
STACK CFI 2a914 .cfa: sp 0 +
STACK CFI 2a918 .cfa: x29 64 +
STACK CFI INIT 2a91c 178 .cfa: sp 0 +
STACK CFI 2a920 .cfa: sp 80 +
STACK CFI 2a934 .cfa: x29 64 + x19: .cfa -8 + ^ x20: .cfa -16 + ^ x21: .cfa -24 + ^ x22: .cfa -32 + ^ x23: .cfa -40 + ^ x24: .cfa -48 + ^ .ra: .cfa -56 + ^ x29: .cfa -64 + ^
STACK CFI 2aa78 .cfa: sp 80 +
STACK CFI 2aa8c .cfa: sp 0 +
STACK CFI 2aa90 .cfa: x29 64 +
STACK CFI INIT 2aa94 240 .cfa: sp 0 +
STACK CFI 2aa98 .cfa: sp 96 +
STACK CFI 2aab0 .cfa: x29 96 + x19: .cfa -8 + ^ x20: .cfa -16 + ^ x21: .cfa -24 + ^ x22: .cfa -32 + ^ x23: .cfa -40 + ^ x24: .cfa -48 + ^ x25: .cfa -56 + ^ x26: .cfa -64 + ^ x27: .cfa -72 + ^ x28: .cfa -80 + ^ .ra: .cfa -88 + ^ x29: .cfa -96 + ^
STACK CFI 2acb8 .cfa: sp 96 +
STACK CFI 2acd0 .cfa: sp 0 +
STACK CFI INIT 2b948 154 .cfa: sp 0 +
STACK CFI 2b94c .cfa: sp 96 +
STACK CFI 2b960 .cfa: x29 64 + x19: .cfa -8 + ^ x20: .cfa -16 + ^ x21: .cfa -24 + ^ x22: .cfa -32 + ^ x23: .cfa -48 + ^ .ra: .cfa -56 + ^ x29: .cfa -64 + ^
STACK CFI 2ba40 .cfa: sp 96 +
STACK CFI 2ba54 .cfa: sp 0 +
STACK CFI 2ba58 .cfa: x29 64 +
STACK CFI INIT 2bd08 44 .cfa: sp 0 +
STACK CFI 2bd0c .cfa: sp 32 +
STACK CFI 2bd14 .cfa: x29 32 + x19: .cfa -16 + ^ .ra: .cfa -24 + ^ x29: .cfa -32 + ^
STACK CFI 2bd30 .cfa: sp 32 +
STACK CFI 2bd38 .cfa: sp 0 +
STACK CFI 2bd3c .cfa: x29 32 +
STACK CFI 2bd40 .cfa: sp 32 +
STACK CFI 2bd48 .cfa: sp 0 +
STACK CFI INIT 2bd4c 1d0 .cfa: sp 0 +
STACK CFI 2bd50 .cfa: sp 64 +
STACK CFI 2bd60 .cfa: x29 64 + x19: .cfa -8 + ^ x20: .cfa -16 + ^ x21: .cfa -24 + ^ x22: .cfa -32 + ^ x23: .cfa -40 + ^ x24: .cfa -48 + ^ .ra: .cfa -56 + ^ x29: .cfa -64 + ^
STACK CFI 2be20 .cfa: sp 64 +
STACK CFI 2be30 .cfa: sp 0 +
STACK CFI 2be34 .cfa: x29 64 +
STACK CFI INIT 2bf1c 17c .cfa: sp 0 +
STACK CFI INIT 2c450 a0 .cfa: sp 0 +
STACK CFI 2c454 .cfa: sp 48 +
STACK CFI 2c460 .cfa: x29 48 + x19: .cfa -8 + ^ x20: .cfa -16 + ^ x21: .cfa -24 + ^ x22: .cfa -32 + ^ .ra: .cfa -40 + ^ x29: .cfa -48 + ^
STACK CFI 2c4cc .cfa: sp 48 +
STACK CFI 2c4d8 .cfa: sp 0 +
STACK CFI 2c4dc .cfa: sp 48 +
STACK CFI 2c4e8 .cfa: sp 0 +
STACK CFI 2c4ec .cfa: x29 48 +
STACK CFI INIT 2d1a4 158 .cfa: sp 0 +
STACK CFI 2d1a8 .cfa: sp 96 +
STACK CFI 2d1bc .cfa: x29 64 + x19: .cfa -8 + ^ x20: .cfa -16 + ^ x21: .cfa -24 + ^ x22: .cfa -32 + ^ x23: .cfa -48 + ^ .ra: .cfa -56 + ^ x29: .cfa -64 + ^
STACK CFI 2d2a0 .cfa: sp 96 +
STACK CFI 2d2b4 .cfa: sp 0 +
STACK CFI 2d2b8 .cfa: x29 64 +
STACK CFI INIT 2d2fc 190 .cfa: sp 0 +
STACK CFI INIT 2df88 1dc .cfa: sp 0 +
STACK CFI 2df8c .cfa: sp 80 +
STACK CFI 2dfa0 .cfa: x29 80 + x19: .cfa -8 + ^ x20: .cfa -16 + ^ x21: .cfa -24 + ^ x22: .cfa -32 + ^ x23: .cfa -40 + ^ x24: .cfa -48 + ^ x25: .cfa -64 + ^ .ra: .cfa -72 + ^ x29: .cfa -80 + ^
STACK CFI 2e14c .cfa: sp 80 +
STACK CFI 2e160 .cfa: sp 0 +
STACK CFI INIT 2f594 124 .cfa: sp 0 +
STACK CFI 2f5c4 .cfa: sp 32 +
STACK CFI 2f5cc .cfa: x29 32 + x19: .cfa -8 + ^ x20: .cfa -16 + ^ .ra: .cfa -24 + ^ x29: .cfa -32 + ^
STACK CFI 2f6ac .cfa: sp 32 +
STACK CFI 2f6b4 .cfa: sp 0 +
STACK CFI INIT 2fe14 320 .cfa: sp 0 +
STACK CFI 2fe18 .cfa: sp 64 +
STACK CFI 2fe28 .cfa: x29 64 + x19: .cfa -8 + ^ x20: .cfa -16 + ^ x21: .cfa -24 + ^ x22: .cfa -32 + ^ x23: .cfa -40 + ^ x24: .cfa -48 + ^ .ra: .cfa -56 + ^ x29: .cfa -64 + ^
STACK CFI 2fea4 .cfa: sp 64 +
STACK CFI 2feb4 .cfa: sp 0 +
STACK CFI 2feb8 .cfa: x29 64 +
STACK CFI 3008c .cfa: sp 64 +
STACK CFI 3009c .cfa: sp 0 +
STACK CFI 300a0 .cfa: x29 64 +
STACK CFI 300b0 .cfa: sp 64 +
STACK CFI 300c0 .cfa: sp 0 +
STACK CFI 300c4 .cfa: x29 64 +
STACK CFI INIT 30134 a0 .cfa: sp 0 +
STACK CFI 30138 .cfa: sp 48 +
STACK CFI 30144 .cfa: x29 48 + x19: .cfa -8 + ^ x20: .cfa -16 + ^ x21: .cfa -24 + ^ x22: .cfa -32 + ^ .ra: .cfa -40 + ^ x29: .cfa -48 + ^
STACK CFI 301b0 .cfa: sp 48 +
STACK CFI 301bc .cfa: sp 0 +
STACK CFI 301c0 .cfa: sp 48 +
STACK CFI 301cc .cfa: sp 0 +
STACK CFI 301d0 .cfa: x29 48 +
STACK CFI INIT 31084 160 .cfa: sp 0 +
STACK CFI 31088 .cfa: sp 64 +
STACK CFI 31098 .cfa: x29 64 + x19: .cfa -8 + ^ x20: .cfa -16 + ^ x21: .cfa -24 + ^ x22: .cfa -32 + ^ x23: .cfa -48 + ^ .ra: .cfa -56 + ^ x29: .cfa -64 + ^
STACK CFI 31190 .cfa: sp 64 +
STACK CFI 311a0 .cfa: sp 0 +
STACK CFI 311a4 .cfa: x29 64 +
STACK CFI INIT 311e4 214 .cfa: sp 0 +
STACK CFI 311e8 .cfa: sp 128 +
STACK CFI 31204 .cfa: x29 96 + x19: .cfa -8 + ^ x20: .cfa -16 + ^ x21: .cfa -24 + ^ x22: .cfa -32 + ^ x23: .cfa -40 + ^ x24: .cfa -48 + ^ x25: .cfa -56 + ^ x26: .cfa -64 + ^ x27: .cfa -80 + ^ .ra: .cfa -88 + ^ x29: .cfa -96 + ^
STACK CFI 31380 .cfa: sp 128 +
STACK CFI 3139c .cfa: sp 0 +
STACK CFI 313a0 .cfa: x29 96 +
STACK CFI INIT 33094 290 .cfa: sp 0 +
STACK CFI 33098 .cfa: sp 16 +
STACK CFI 3309c .cfa: x29 16 + .ra: .cfa -8 + ^ x29: .cfa -16 + ^
STACK CFI 33128 .cfa: sp 16 +
STACK CFI 3312c .cfa: sp 0 +
STACK CFI 33130 .cfa: x29 16 +
STACK CFI 33180 .cfa: sp 16 +
STACK CFI 33184 .cfa: sp 0 +
STACK CFI 33188 .cfa: x29 16 +
STACK CFI 332ec .cfa: sp 16 +
STACK CFI 332f0 .cfa: sp 0 +
STACK CFI 332f4 .cfa: x29 16 +
STACK CFI INIT 33324 158 .cfa: sp 0 +
STACK CFI 33328 .cfa: sp 112 +
STACK CFI 33344 .cfa: x29 96 + x19: .cfa -8 + ^ x20: .cfa -16 + ^ x21: .cfa -24 + ^ x22: .cfa -32 + ^ x23: .cfa -40 + ^ x24: .cfa -48 + ^ x25: .cfa -56 + ^ x26: .cfa -64 + ^ x27: .cfa -72 + ^ x28: .cfa -80 + ^ .ra: .cfa -88 + ^ x29: .cfa -96 + ^
STACK CFI 3342c .cfa: sp 112 +
STACK CFI 33430 .cfa: x29 96 +
STACK CFI 33438 .cfa: sp 112 +
STACK CFI 33454 .cfa: sp 0 +
STACK CFI 33458 .cfa: x29 96 +
STACK CFI 33478 .cfa: sp 112 +
STACK CFI INIT 3347c e54 .cfa: sp 0 +
STACK CFI 33480 .cfa: sp 192 +
STACK CFI 3349c .cfa: x29 96 + x19: .cfa -8 + ^ x20: .cfa -16 + ^ x21: .cfa -24 + ^ x22: .cfa -32 + ^ x23: .cfa -40 + ^ x24: .cfa -48 + ^ x25: .cfa -56 + ^ x26: .cfa -64 + ^ x27: .cfa -72 + ^ x28: .cfa -80 + ^ .ra: .cfa -88 + ^ x29: .cfa -96 + ^
STACK CFI 341b8 .cfa: sp 192 +
STACK CFI 341d4 .cfa: sp 0 +
STACK CFI 341d8 .cfa: x29 96 +
STACK CFI INIT 342d0 1068 .cfa: sp 0 +
STACK CFI 342d4 .cfa: sp 288 +
STACK CFI 342f0 .cfa: x29 96 + x19: .cfa -8 + ^ x20: .cfa -16 + ^ x21: .cfa -24 + ^ x22: .cfa -32 + ^ x23: .cfa -40 + ^ x24: .cfa -48 + ^ x25: .cfa -56 + ^ x26: .cfa -64 + ^ x27: .cfa -72 + ^ x28: .cfa -80 + ^ .ra: .cfa -88 + ^ x29: .cfa -96 + ^
STACK CFI 35080 .cfa: sp 288 +
STACK CFI 3509c .cfa: sp 0 +
STACK CFI 350a0 .cfa: x29 96 +
STACK CFI INIT 35338 520 .cfa: sp 0 +
STACK CFI 3533c .cfa: sp 144 +
STACK CFI 35358 .cfa: x29 96 + x19: .cfa -8 + ^ x20: .cfa -16 + ^ x21: .cfa -24 + ^ x22: .cfa -32 + ^ x23: .cfa -40 + ^ x24: .cfa -48 + ^ x25: .cfa -56 + ^ x26: .cfa -64 + ^ x27: .cfa -72 + ^ x28: .cfa -80 + ^ .ra: .cfa -88 + ^ x29: .cfa -96 + ^
STACK CFI 35834 .cfa: sp 144 +
STACK CFI 35850 .cfa: sp 0 +
STACK CFI 35854 .cfa: x29 96 +
STACK CFI INIT 361f8 136c .cfa: sp 0 +
STACK CFI 361fc .cfa: sp 224 +
STACK CFI 36218 .cfa: x29 96 + x19: .cfa -8 + ^ x20: .cfa -16 + ^ x21: .cfa -24 + ^ x22: .cfa -32 + ^ x23: .cfa -40 + ^ x24: .cfa -48 + ^ x25: .cfa -56 + ^ x26: .cfa -64 + ^ x27: .cfa -72 + ^ x28: .cfa -80 + ^ .ra: .cfa -88 + ^ x29: .cfa -96 + ^
STACK CFI 37540 .cfa: sp 224 +
STACK CFI 3755c .cfa: sp 0 +
STACK CFI 37560 .cfa: x29 96 +
STACK CFI INIT 37564 1b8 .cfa: sp 0 +
STACK CFI INIT 154a4 450 .cfa: sp 0 +
STACK CFI 154a8 .cfa: sp 96 +
STACK CFI 154c0 .cfa: x29 96 + x19: .cfa -8 + ^ x20: .cfa -16 + ^ x21: .cfa -24 + ^ x22: .cfa -32 + ^ x23: .cfa -40 + ^ x24: .cfa -48 + ^ x25: .cfa -56 + ^ x26: .cfa -64 + ^ x27: .cfa -72 + ^ x28: .cfa -80 + ^ .ra: .cfa -88 + ^ x29: .cfa -96 + ^
STACK CFI 15878 .cfa: sp 96 +
STACK CFI 15890 .cfa: sp 0 +
STACK CFI 15894 .cfa: x29 96 +
STACK CFI INIT 158f4 1c4 .cfa: sp 0 +
STACK CFI 158f8 .cfa: sp 128 +
STACK CFI 15908 .cfa: x29 48 + x19: .cfa -8 + ^ x20: .cfa -16 + ^ x21: .cfa -24 + ^ x22: .cfa -32 + ^ .ra: .cfa -40 + ^ x29: .cfa -48 + ^
STACK CFI 15a58 .cfa: sp 128 +
STACK CFI 15a68 .cfa: sp 0 +
STACK CFI 15a6c .cfa: x29 48 +
STACK CFI INIT 15b10 50 .cfa: sp 0 +
STACK CFI 15b14 .cfa: sp 32 +
STACK CFI 15b1c .cfa: x29 32 + x19: .cfa -8 + ^ x20: .cfa -16 + ^ .ra: .cfa -24 + ^ x29: .cfa -32 + ^
STACK CFI INIT 15d40 318 .cfa: sp 0 +
STACK CFI 15d44 .cfa: sp 240 +
STACK CFI 15d5c .cfa: x29 80 + x19: .cfa -8 + ^ x20: .cfa -16 + ^ x21: .cfa -24 + ^ x22: .cfa -32 + ^ x23: .cfa -40 + ^ x24: .cfa -48 + ^ x25: .cfa -56 + ^ x26: .cfa -64 + ^ .ra: .cfa -72 + ^ x29: .cfa -80 + ^
STACK CFI 15fd4 .cfa: sp 240 +
STACK CFI 15fec .cfa: sp 0 +
STACK CFI 15ff0 .cfa: x29 80 +
STACK CFI INIT 16058 1e0 .cfa: sp 0 +
STACK CFI 1605c .cfa: sp 128 +
STACK CFI 16074 .cfa: x29 80 + x19: .cfa -8 + ^ x20: .cfa -16 + ^ x21: .cfa -24 + ^ x22: .cfa -32 + ^ x23: .cfa -40 + ^ x24: .cfa -48 + ^ x25: .cfa -64 + ^ .ra: .cfa -72 + ^ x29: .cfa -80 + ^
STACK CFI 161b0 .cfa: sp 128 +
STACK CFI 161c8 .cfa: sp 0 +
STACK CFI 161cc .cfa: x29 80 +
STACK CFI INIT 163c8 144 .cfa: sp 0 +
STACK CFI 163cc .cfa: sp 128 +
STACK CFI 163e0 .cfa: x29 64 + x19: .cfa -8 + ^ x20: .cfa -16 + ^ x21: .cfa -24 + ^ x22: .cfa -32 + ^ x23: .cfa -48 + ^ .ra: .cfa -56 + ^ x29: .cfa -64 + ^
STACK CFI 164b4 .cfa: sp 128 +
STACK CFI 164c8 .cfa: sp 0 +
STACK CFI 164cc .cfa: x29 64 +
STACK CFI INIT 16c90 484 .cfa: sp 0 +
STACK CFI 16c94 .cfa: sp 224 +
STACK CFI 16cb0 .cfa: x29 96 + x19: .cfa -8 + ^ x20: .cfa -16 + ^ x21: .cfa -24 + ^ x22: .cfa -32 + ^ x23: .cfa -40 + ^ x24: .cfa -48 + ^ x25: .cfa -56 + ^ x26: .cfa -64 + ^ x27: .cfa -72 + ^ x28: .cfa -80 + ^ .ra: .cfa -88 + ^ x29: .cfa -96 + ^
STACK CFI 16f20 .cfa: sp 224 +
STACK CFI 16f3c .cfa: sp 0 +
STACK CFI 16f40 .cfa: x29 96 +
STACK CFI 1700c .cfa: sp 224 +
STACK CFI 17028 .cfa: sp 0 +
STACK CFI 1702c .cfa: x29 96 +
STACK CFI INIT 1712c 484 .cfa: sp 0 +
STACK CFI 17130 .cfa: sp 224 +
STACK CFI 1714c .cfa: x29 96 + x19: .cfa -8 + ^ x20: .cfa -16 + ^ x21: .cfa -24 + ^ x22: .cfa -32 + ^ x23: .cfa -40 + ^ x24: .cfa -48 + ^ x25: .cfa -56 + ^ x26: .cfa -64 + ^ x27: .cfa -72 + ^ x28: .cfa -80 + ^ .ra: .cfa -88 + ^ x29: .cfa -96 + ^
STACK CFI 173bc .cfa: sp 224 +
STACK CFI 173d8 .cfa: sp 0 +
STACK CFI 173dc .cfa: x29 96 +
STACK CFI 174a8 .cfa: sp 224 +
STACK CFI 174c4 .cfa: sp 0 +
STACK CFI 174c8 .cfa: x29 96 +
STACK CFI INIT 175c8 484 .cfa: sp 0 +
STACK CFI 175cc .cfa: sp 224 +
STACK CFI 175e8 .cfa: x29 96 + x19: .cfa -8 + ^ x20: .cfa -16 + ^ x21: .cfa -24 + ^ x22: .cfa -32 + ^ x23: .cfa -40 + ^ x24: .cfa -48 + ^ x25: .cfa -56 + ^ x26: .cfa -64 + ^ x27: .cfa -72 + ^ x28: .cfa -80 + ^ .ra: .cfa -88 + ^ x29: .cfa -96 + ^
STACK CFI 17858 .cfa: sp 224 +
STACK CFI 17874 .cfa: sp 0 +
STACK CFI 17878 .cfa: x29 96 +
STACK CFI 17944 .cfa: sp 224 +
STACK CFI 17960 .cfa: sp 0 +
STACK CFI 17964 .cfa: x29 96 +
STACK CFI INIT 17a64 3b8 .cfa: sp 0 +
STACK CFI 17a68 .cfa: sp 240 +
STACK CFI 17a7c .cfa: x29 64 + x19: .cfa -8 + ^ x20: .cfa -16 + ^ x21: .cfa -24 + ^ x22: .cfa -32 + ^ x23: .cfa -40 + ^ x24: .cfa -48 + ^ .ra: .cfa -56 + ^ x29: .cfa -64 + ^
STACK CFI 17ce4 .cfa: sp 240 +
STACK CFI 17cf8 .cfa: sp 0 +
STACK CFI 17cfc .cfa: x29 64 +
STACK CFI INIT 17e6c 74 .cfa: sp 0 +
STACK CFI 17e70 .cfa: sp 48 +
STACK CFI 17e7c .cfa: x29 32 + x19: .cfa -8 + ^ x20: .cfa -16 + ^ .ra: .cfa -24 + ^ x29: .cfa -32 + ^
STACK CFI 17ec8 .cfa: sp 48 +
STACK CFI 17ed4 .cfa: sp 0 +
STACK CFI 17ed8 .cfa: x29 32 +
STACK CFI INIT 17f70 154 .cfa: sp 0 +
STACK CFI 17f74 .cfa: sp 384 +
STACK CFI 17f88 .cfa: x29 64 + x19: .cfa -8 + ^ x20: .cfa -16 + ^ x21: .cfa -24 + ^ x22: .cfa -32 + ^ x23: .cfa -40 + ^ x28: .cfa -48 + ^ .ra: .cfa -56 + ^ x29: .cfa -64 + ^
STACK CFI 1806c .cfa: sp 384 +
STACK CFI 18080 .cfa: sp 0 +
STACK CFI 18084 .cfa: x29 64 +
STACK CFI INIT 180f8 12c .cfa: sp 0 +
STACK CFI 180fc .cfa: sp 80 +
STACK CFI 18110 .cfa: x29 80 + x19: .cfa -8 + ^ x20: .cfa -16 + ^ x21: .cfa -24 + ^ x22: .cfa -32 + ^ x23: .cfa -40 + ^ x24: .cfa -48 + ^ x25: .cfa -56 + ^ x26: .cfa -64 + ^ .ra: .cfa -72 + ^ x29: .cfa -80 + ^
STACK CFI 181d8 .cfa: sp 80 +
STACK CFI 181ec .cfa: sp 0 +
STACK CFI 181f0 .cfa: x29 80 +
STACK CFI INIT 182c8 1a4 .cfa: sp 0 +
STACK CFI 182cc .cfa: sp 112 +
STACK CFI 182e4 .cfa: x29 80 + x19: .cfa -8 + ^ x20: .cfa -16 + ^ x21: .cfa -24 + ^ x22: .cfa -32 + ^ x23: .cfa -40 + ^ x24: .cfa -48 + ^ x25: .cfa -56 + ^ x26: .cfa -64 + ^ .ra: .cfa -72 + ^ x29: .cfa -80 + ^
STACK CFI 183d4 .cfa: sp 112 +
STACK CFI 183ec .cfa: sp 0 +
STACK CFI 183f0 .cfa: x29 80 +
STACK CFI INIT 1846c 1dc .cfa: sp 0 +
STACK CFI 18470 .cfa: sp 128 +
STACK CFI 1848c .cfa: x29 96 + x19: .cfa -8 + ^ x20: .cfa -16 + ^ x21: .cfa -24 + ^ x22: .cfa -32 + ^ x23: .cfa -40 + ^ x24: .cfa -48 + ^ x25: .cfa -56 + ^ x26: .cfa -64 + ^ x27: .cfa -80 + ^ .ra: .cfa -88 + ^ x29: .cfa -96 + ^
STACK CFI 185f8 .cfa: sp 128 +
STACK CFI 18614 .cfa: sp 0 +
STACK CFI 18618 .cfa: x29 96 +
STACK CFI INIT 1867c 178 .cfa: sp 0 +
STACK CFI 18680 .cfa: sp 80 +
STACK CFI 18694 .cfa: x29 80 + x19: .cfa -8 + ^ x20: .cfa -16 + ^ x21: .cfa -24 + ^ x22: .cfa -32 + ^ x23: .cfa -40 + ^ x24: .cfa -48 + ^ x25: .cfa -64 + ^ .ra: .cfa -72 + ^ x29: .cfa -80 + ^
STACK CFI 187c0 .cfa: sp 80 +
STACK CFI 187d4 .cfa: sp 0 +
STACK CFI 187d8 .cfa: x29 80 +
STACK CFI INIT 1893c 224 .cfa: sp 0 +
STACK CFI 18940 .cfa: sp 128 +
STACK CFI 18958 .cfa: x29 80 + x19: .cfa -8 + ^ x20: .cfa -16 + ^ x21: .cfa -24 + ^ x22: .cfa -32 + ^ x23: .cfa -40 + ^ x24: .cfa -48 + ^ x25: .cfa -64 + ^ .ra: .cfa -72 + ^ x29: .cfa -80 + ^
STACK CFI 18af4 .cfa: sp 128 +
STACK CFI 18b0c .cfa: sp 0 +
STACK CFI 18b10 .cfa: x29 80 +
STACK CFI INIT 1923c 1a0 .cfa: sp 0 +
STACK CFI 19240 .cfa: sp 144 +
STACK CFI 1925c .cfa: x29 48 + x19: .cfa -8 + ^ x20: .cfa -16 + ^ x21: .cfa -32 + ^ .ra: .cfa -40 + ^ x29: .cfa -48 + ^ v8: .cfa -56 + ^ v9: .cfa -64 + ^ v10: .cfa -72 + ^ v11: .cfa -80 + ^ v12: .cfa -88 + ^ v13: .cfa -96 + ^
STACK CFI 1938c .cfa: sp 144 +
STACK CFI 193a8 .cfa: sp 0 +
STACK CFI 193ac .cfa: x29 48 +
STACK CFI INIT 197bc 12c4 .cfa: sp 0 +
STACK CFI 197c0 .cfa: sp 288 +
STACK CFI 197dc .cfa: x29 96 + x19: .cfa -8 + ^ x20: .cfa -16 + ^ x21: .cfa -24 + ^ x22: .cfa -32 + ^ x23: .cfa -40 + ^ x24: .cfa -48 + ^ x25: .cfa -56 + ^ x26: .cfa -64 + ^ x27: .cfa -72 + ^ x28: .cfa -80 + ^ .ra: .cfa -88 + ^ x29: .cfa -96 + ^
STACK CFI 1a658 .cfa: sp 288 +
STACK CFI 1a674 .cfa: sp 0 +
STACK CFI 1a678 .cfa: x29 96 +
STACK CFI INIT 1ae24 80c .cfa: sp 0 +
STACK CFI 1ae28 .cfa: sp 256 +
STACK CFI 1ae48 .cfa: x29 96 + x19: .cfa -8 + ^ x20: .cfa -16 + ^ x21: .cfa -24 + ^ x22: .cfa -32 + ^ x23: .cfa -40 + ^ x24: .cfa -48 + ^ x25: .cfa -56 + ^ x26: .cfa -64 + ^ x27: .cfa -72 + ^ x28: .cfa -80 + ^ .ra: .cfa -88 + ^ x29: .cfa -96 + ^ v8: .cfa -104 + ^ v9: .cfa -112 + ^
STACK CFI 1b21c .cfa: sp 256 +
STACK CFI 1b23c .cfa: sp 0 +
STACK CFI 1b240 .cfa: x29 96 +
STACK CFI INIT 1b630 184 .cfa: sp 0 +
STACK CFI 1b634 .cfa: sp 160 +
STACK CFI 1b64c .cfa: x29 80 + x19: .cfa -8 + ^ x20: .cfa -16 + ^ x21: .cfa -24 + ^ x22: .cfa -32 + ^ x23: .cfa -40 + ^ x24: .cfa -48 + ^ x25: .cfa -56 + ^ x26: .cfa -64 + ^ .ra: .cfa -72 + ^ x29: .cfa -80 + ^
STACK CFI 1b74c .cfa: sp 160 +
STACK CFI 1b764 .cfa: sp 0 +
STACK CFI 1b768 .cfa: x29 80 +
STACK CFI INIT 1bc0c a8 .cfa: sp 0 +
STACK CFI 1bc10 .cfa: sp 32 +
STACK CFI 1bc18 .cfa: x29 32 + x19: .cfa -16 + ^ .ra: .cfa -24 + ^ x29: .cfa -32 + ^
STACK CFI 1bc4c .cfa: sp 32 +
STACK CFI 1bc54 .cfa: sp 0 +
STACK CFI 1bc58 .cfa: x29 32 +
STACK CFI 1bc5c .cfa: sp 32 +
STACK CFI 1bc64 .cfa: sp 0 +
STACK CFI 1bc68 .cfa: x29 32 +
STACK CFI INIT 1bd44 18c .cfa: sp 0 +
STACK CFI 1bd48 .cfa: sp 112 +
STACK CFI 1bd58 .cfa: x29 48 + x19: .cfa -8 + ^ x20: .cfa -16 + ^ x21: .cfa -32 + ^ .ra: .cfa -40 + ^ x29: .cfa -48 + ^
STACK CFI 1be28 .cfa: sp 112 +
STACK CFI 1be38 .cfa: sp 0 +
STACK CFI 1be3c .cfa: x29 48 +
STACK CFI INIT 1bed0 444 .cfa: sp 0 +
STACK CFI 1bed4 .cfa: sp 176 +
STACK CFI 1bef0 .cfa: x29 96 + x19: .cfa -8 + ^ x20: .cfa -16 + ^ x21: .cfa -24 + ^ x22: .cfa -32 + ^ x23: .cfa -40 + ^ x24: .cfa -48 + ^ x25: .cfa -56 + ^ x26: .cfa -64 + ^ x27: .cfa -72 + ^ x28: .cfa -80 + ^ .ra: .cfa -88 + ^ x29: .cfa -96 + ^
STACK CFI 1bf30 .cfa: sp 176 +
STACK CFI 1bf4c .cfa: sp 0 +
STACK CFI 1bf50 .cfa: x29 96 +
STACK CFI INIT 1c314 10c .cfa: sp 0 +
STACK CFI 1c318 .cfa: sp 64 +
STACK CFI 1c328 .cfa: x29 64 + x19: .cfa -8 + ^ x20: .cfa -16 + ^ x21: .cfa -24 + ^ x22: .cfa -32 + ^ x23: .cfa -48 + ^ .ra: .cfa -56 + ^ x29: .cfa -64 + ^
STACK CFI 1c400 .cfa: sp 64 +
STACK CFI 1c410 .cfa: sp 0 +
STACK CFI 1c414 .cfa: x29 64 +
STACK CFI INIT 1c458 50 .cfa: sp 0 +
STACK CFI 1c45c .cfa: sp 32 +
STACK CFI 1c464 .cfa: x29 32 + x19: .cfa -8 + ^ x20: .cfa -16 + ^ .ra: .cfa -24 + ^ x29: .cfa -32 + ^
STACK CFI INIT 1c620 324 .cfa: sp 0 +
STACK CFI 1c624 .cfa: sp 240 +
STACK CFI 1c638 .cfa: x29 64 + x19: .cfa -8 + ^ x20: .cfa -16 + ^ x21: .cfa -24 + ^ x22: .cfa -32 + ^ x23: .cfa -48 + ^ .ra: .cfa -56 + ^ x29: .cfa -64 + ^
STACK CFI 1c834 .cfa: sp 240 +
STACK CFI 1c848 .cfa: sp 0 +
STACK CFI 1c84c .cfa: x29 64 +
STACK CFI INIT 1c948 c6c .cfa: sp 0 +
STACK CFI 1c94c .cfa: sp 496 +
STACK CFI 1c96c .cfa: x29 96 + x19: .cfa -8 + ^ x20: .cfa -16 + ^ x21: .cfa -24 + ^ x22: .cfa -32 + ^ x23: .cfa -40 + ^ x24: .cfa -48 + ^ x25: .cfa -56 + ^ x26: .cfa -64 + ^ x27: .cfa -72 + ^ x28: .cfa -80 + ^ .ra: .cfa -88 + ^ x29: .cfa -96 + ^ v8: .cfa -112 + ^
STACK CFI 1d3ac .cfa: sp 496 +
STACK CFI 1d3cc .cfa: sp 0 +
STACK CFI 1d3d0 .cfa: x29 96 +
STACK CFI INIT 1d5b4 a8 .cfa: sp 0 +
STACK CFI 1d5b8 .cfa: sp 32 +
STACK CFI 1d5c0 .cfa: x29 32 + x19: .cfa -16 + ^ .ra: .cfa -24 + ^ x29: .cfa -32 + ^
STACK CFI 1d5f4 .cfa: sp 32 +
STACK CFI 1d5fc .cfa: sp 0 +
STACK CFI 1d600 .cfa: x29 32 +
STACK CFI 1d604 .cfa: sp 32 +
STACK CFI 1d60c .cfa: sp 0 +
STACK CFI 1d610 .cfa: x29 32 +
STACK CFI INIT 1d6f4 308 .cfa: sp 0 +
STACK CFI 1d6f8 .cfa: sp 176 +
STACK CFI 1d718 .cfa: x29 88 + x19: .cfa -8 + ^ x20: .cfa -16 + ^ x21: .cfa -24 + ^ x22: .cfa -32 + ^ x23: .cfa -40 + ^ x24: .cfa -48 + ^ x25: .cfa -56 + ^ x26: .cfa -64 + ^ x27: .cfa -72 + ^ .ra: .cfa -80 + ^ x29: .cfa -88 + ^ v8: .cfa -96 + ^
STACK CFI 1d970 .cfa: sp 176 +
STACK CFI 1d990 .cfa: sp 0 +
STACK CFI 1d994 .cfa: x29 88 +
STACK CFI INIT 1dab8 1c .cfa: sp 0 +
STACK CFI 1dabc .cfa: sp 16 +
STACK CFI 1dac0 .cfa: x29 16 + .ra: .cfa -8 + ^ x29: .cfa -16 + ^
STACK CFI 1dac8 .cfa: sp 16 +
STACK CFI 1dacc .cfa: sp 0 +
STACK CFI 1dad0 .cfa: x29 16 +
STACK CFI INIT 1dd6c 1b4 .cfa: sp 0 +
STACK CFI 1dd70 .cfa: sp 80 +
STACK CFI 1dd80 .cfa: x29 48 + x19: .cfa -8 + ^ x20: .cfa -16 + ^ x21: .cfa -32 + ^ .ra: .cfa -40 + ^ x29: .cfa -48 + ^
STACK CFI 1dee0 .cfa: sp 80 +
STACK CFI 1def0 .cfa: sp 0 +
STACK CFI 1def4 .cfa: x29 48 +
STACK CFI INIT 1df20 19c .cfa: sp 0 +
STACK CFI 1df24 .cfa: sp 112 +
STACK CFI 1df34 .cfa: x29 48 + x19: .cfa -8 + ^ x20: .cfa -16 + ^ x21: .cfa -32 + ^ .ra: .cfa -40 + ^ x29: .cfa -48 + ^
STACK CFI 1e014 .cfa: sp 112 +
STACK CFI 1e024 .cfa: sp 0 +
STACK CFI 1e028 .cfa: x29 48 +
STACK CFI INIT 1e0bc 128 .cfa: sp 0 +
STACK CFI 1e0c0 .cfa: sp 48 +
STACK CFI 1e0cc .cfa: x29 48 + x19: .cfa -8 + ^ x20: .cfa -16 + ^ x21: .cfa -32 + ^ .ra: .cfa -40 + ^ x29: .cfa -48 + ^
STACK CFI 1e168 .cfa: sp 48 +
STACK CFI 1e174 .cfa: sp 0 +
STACK CFI 1e178 .cfa: x29 48 +
STACK CFI 1e1bc .cfa: sp 48 +
STACK CFI 1e1c8 .cfa: sp 0 +
STACK CFI 1e1cc .cfa: sp 48 +
STACK CFI 1e1d8 .cfa: sp 0 +
STACK CFI 1e1dc .cfa: x29 48 +
STACK CFI INIT 1e1e4 26c .cfa: sp 0 +
STACK CFI 1e1e8 .cfa: sp 112 +
STACK CFI 1e1fc .cfa: x29 64 + x19: .cfa -8 + ^ x20: .cfa -16 + ^ x21: .cfa -24 + ^ x22: .cfa -32 + ^ x23: .cfa -40 + ^ x24: .cfa -48 + ^ .ra: .cfa -56 + ^ x29: .cfa -64 + ^
STACK CFI 1e3cc .cfa: sp 112 +
STACK CFI 1e3e0 .cfa: sp 0 +
STACK CFI 1e3e4 .cfa: x29 64 +
STACK CFI INIT 1e4cc 5d4 .cfa: sp 0 +
STACK CFI 1e4d0 .cfa: sp 192 +
STACK CFI 1e4e8 .cfa: x29 80 + x19: .cfa -8 + ^ x20: .cfa -16 + ^ x21: .cfa -24 + ^ x22: .cfa -32 + ^ x23: .cfa -40 + ^ x24: .cfa -48 + ^ x25: .cfa -56 + ^ x26: .cfa -64 + ^ .ra: .cfa -72 + ^ x29: .cfa -80 + ^
STACK CFI 1e9a4 .cfa: sp 192 +
STACK CFI 1e9bc .cfa: sp 0 +
STACK CFI 1e9c0 .cfa: x29 80 +
STACK CFI INIT 1eaa0 220 .cfa: sp 0 +
STACK CFI 1eaa4 .cfa: sp 80 +
STACK CFI 1eab8 .cfa: x29 80 + x19: .cfa -8 + ^ x20: .cfa -16 + ^ x21: .cfa -24 + ^ x22: .cfa -32 + ^ x23: .cfa -40 + ^ x24: .cfa -48 + ^ x25: .cfa -56 + ^ x26: .cfa -64 + ^ .ra: .cfa -72 + ^ x29: .cfa -80 + ^
STACK CFI 1ec3c .cfa: sp 80 +
STACK CFI 1ec50 .cfa: sp 0 +
STACK CFI 1ec54 .cfa: x29 80 +
STACK CFI 1ec90 .cfa: sp 80 +
STACK CFI 1eca4 .cfa: sp 0 +
STACK CFI 1eca8 .cfa: x29 80 +
STACK CFI INIT 1efb4 1d8 .cfa: sp 0 +
STACK CFI 1efb8 .cfa: sp 128 +
STACK CFI 1efcc .cfa: x29 64 + x19: .cfa -8 + ^ x20: .cfa -16 + ^ x21: .cfa -24 + ^ x22: .cfa -32 + ^ x23: .cfa -40 + ^ x24: .cfa -48 + ^ .ra: .cfa -56 + ^ x29: .cfa -64 + ^
STACK CFI 1f12c .cfa: sp 128 +
STACK CFI 1f140 .cfa: sp 0 +
STACK CFI 1f144 .cfa: x29 64 +
STACK CFI INIT 1f18c c10 .cfa: sp 0 +
STACK CFI 1f190 .cfa: sp 96 +
STACK CFI 1f1a8 .cfa: x29 96 + x19: .cfa -8 + ^ x20: .cfa -16 + ^ x21: .cfa -24 + ^ x22: .cfa -32 + ^ x23: .cfa -40 + ^ x24: .cfa -48 + ^ x25: .cfa -56 + ^ x26: .cfa -64 + ^ x27: .cfa -72 + ^ x28: .cfa -80 + ^ .ra: .cfa -88 + ^ x29: .cfa -96 + ^
STACK CFI 1fc5c .cfa: sp 96 +
STACK CFI 1fc74 .cfa: sp 0 +
STACK CFI 1fc78 .cfa: x29 96 +
STACK CFI INIT 1fde0 2d4 .cfa: sp 0 +
STACK CFI 1fde4 .cfa: sp 80 +
STACK CFI 1fdf8 .cfa: x29 80 + x19: .cfa -8 + ^ x20: .cfa -16 + ^ x21: .cfa -24 + ^ x22: .cfa -32 + ^ x23: .cfa -40 + ^ x24: .cfa -48 + ^ x25: .cfa -56 + ^ x28: .cfa -64 + ^ .ra: .cfa -72 + ^ x29: .cfa -80 + ^
STACK CFI 1fff8 .cfa: sp 80 +
STACK CFI 2000c .cfa: sp 0 +
STACK CFI 20010 .cfa: x29 80 +
STACK CFI INIT 22078 10dc .cfa: sp 0 +
STACK CFI 2207c .cfa: sp 256 +
STACK CFI 22098 .cfa: x29 96 + x19: .cfa -8 + ^ x20: .cfa -16 + ^ x21: .cfa -24 + ^ x22: .cfa -32 + ^ x23: .cfa -40 + ^ x24: .cfa -48 + ^ x25: .cfa -56 + ^ x26: .cfa -64 + ^ x27: .cfa -72 + ^ x28: .cfa -80 + ^ .ra: .cfa -88 + ^ x29: .cfa -96 + ^
STACK CFI 230a4 .cfa: sp 256 +
STACK CFI 230c0 .cfa: sp 0 +
STACK CFI 230c4 .cfa: x29 96 +
STACK CFI INIT 23154 194 .cfa: sp 0 +
STACK CFI 23158 .cfa: sp 128 +
STACK CFI 2316c .cfa: x29 64 + x19: .cfa -8 + ^ x20: .cfa -16 + ^ x21: .cfa -24 + ^ x22: .cfa -32 + ^ x23: .cfa -40 + ^ x24: .cfa -48 + ^ .ra: .cfa -56 + ^ x29: .cfa -64 + ^
STACK CFI 2329c .cfa: sp 128 +
STACK CFI 232b0 .cfa: sp 0 +
STACK CFI 232b4 .cfa: x29 64 +
STACK CFI INIT 23544 3a0 .cfa: sp 0 +
STACK CFI 23548 .cfa: sp 176 +
STACK CFI 23564 .cfa: x29 96 + x19: .cfa -8 + ^ x20: .cfa -16 + ^ x21: .cfa -24 + ^ x22: .cfa -32 + ^ x23: .cfa -40 + ^ x24: .cfa -48 + ^ x25: .cfa -56 + ^ x26: .cfa -64 + ^ x27: .cfa -72 + ^ x28: .cfa -80 + ^ .ra: .cfa -88 + ^ x29: .cfa -96 + ^
STACK CFI 23898 .cfa: sp 176 +
STACK CFI 238b4 .cfa: sp 0 +
STACK CFI 238b8 .cfa: x29 96 +
STACK CFI INIT 23ad8 848 .cfa: sp 0 +
STACK CFI 23adc .cfa: sp 176 +
STACK CFI 23af4 .cfa: x29 64 + x19: .cfa -8 + ^ x20: .cfa -16 + ^ x21: .cfa -24 + ^ x22: .cfa -32 + ^ x23: .cfa -40 + ^ x24: .cfa -48 + ^ .ra: .cfa -56 + ^ x29: .cfa -64 + ^ v8: .cfa -80 + ^
STACK CFI 2425c .cfa: sp 176 +
STACK CFI 24274 .cfa: sp 0 +
STACK CFI 24278 .cfa: x29 64 +
STACK CFI INIT 24348 98 .cfa: sp 0 +
STACK CFI 2434c .cfa: sp 64 +
STACK CFI 24358 .cfa: x29 32 + x19: .cfa -8 + ^ x20: .cfa -16 + ^ .ra: .cfa -24 + ^ x29: .cfa -32 + ^
STACK CFI 243a0 .cfa: sp 64 +
STACK CFI 243ac .cfa: sp 0 +
STACK CFI 243b0 .cfa: x29 32 +
STACK CFI INIT 24438 150 .cfa: sp 0 +
STACK CFI 2443c .cfa: sp 96 +
STACK CFI 24448 .cfa: x29 32 + x19: .cfa -8 + ^ x20: .cfa -16 + ^ .ra: .cfa -24 + ^ x29: .cfa -32 + ^
STACK CFI 24510 .cfa: sp 96 +
STACK CFI 2451c .cfa: sp 0 +
STACK CFI 24520 .cfa: x29 32 +
STACK CFI INIT 24638 134 .cfa: sp 0 +
STACK CFI 2463c .cfa: sp 80 +
STACK CFI 24648 .cfa: x29 32 + x19: .cfa -8 + ^ x20: .cfa -16 + ^ .ra: .cfa -24 + ^ x29: .cfa -32 + ^
STACK CFI 24678 .cfa: sp 80 +
STACK CFI 24684 .cfa: sp 0 +
STACK CFI 24688 .cfa: x29 32 +
STACK CFI INIT 2476c 78 .cfa: sp 0 +
STACK CFI 24770 .cfa: sp 32 +
STACK CFI 24778 .cfa: x29 32 + x19: .cfa -8 + ^ x20: .cfa -16 + ^ .ra: .cfa -24 + ^ x29: .cfa -32 + ^
STACK CFI 24784 .cfa: sp 32 +
STACK CFI 2478c .cfa: sp 0 +
STACK CFI 24790 .cfa: x29 32 +
STACK CFI INIT 247e4 74 .cfa: sp 0 +
STACK CFI 247e8 .cfa: sp 48 +
STACK CFI 247f4 .cfa: x29 32 + x19: .cfa -8 + ^ x20: .cfa -16 + ^ .ra: .cfa -24 + ^ x29: .cfa -32 + ^
STACK CFI 24840 .cfa: sp 48 +
STACK CFI 2484c .cfa: sp 0 +
STACK CFI 24850 .cfa: x29 32 +
STACK CFI INIT 248e0 25c .cfa: sp 0 +
STACK CFI 248e4 .cfa: sp 128 +
STACK CFI 248f4 .cfa: x29 48 + x19: .cfa -8 + ^ x20: .cfa -16 + ^ x21: .cfa -32 + ^ .ra: .cfa -40 + ^ x29: .cfa -48 + ^
STACK CFI 249dc .cfa: sp 128 +
STACK CFI 249ec .cfa: sp 0 +
STACK CFI 249f0 .cfa: x29 48 +
STACK CFI INIT 24b64 2a0 .cfa: sp 0 +
STACK CFI 24b68 .cfa: sp 144 +
STACK CFI 24b7c .cfa: x29 64 + x19: .cfa -8 + ^ x20: .cfa -16 + ^ x21: .cfa -24 + ^ x22: .cfa -32 + ^ x23: .cfa -48 + ^ .ra: .cfa -56 + ^ x29: .cfa -64 + ^
STACK CFI 24cb0 .cfa: sp 144 +
STACK CFI 24cc4 .cfa: sp 0 +
STACK CFI 24cc8 .cfa: x29 64 +
STACK CFI INIT 24e04 4f4 .cfa: sp 0 +
STACK CFI 24e08 .cfa: sp 144 +
STACK CFI 24e1c .cfa: x29 64 + x19: .cfa -8 + ^ x20: .cfa -16 + ^ x21: .cfa -24 + ^ x22: .cfa -32 + ^ x23: .cfa -48 + ^ .ra: .cfa -56 + ^ x29: .cfa -64 + ^
STACK CFI 25150 .cfa: sp 144 +
STACK CFI 25164 .cfa: sp 0 +
STACK CFI 25168 .cfa: x29 64 +
STACK CFI INIT 252f8 154 .cfa: sp 0 +
STACK CFI 252fc .cfa: sp 384 +
STACK CFI 25310 .cfa: x29 64 + x19: .cfa -8 + ^ x20: .cfa -16 + ^ x21: .cfa -24 + ^ x22: .cfa -32 + ^ x23: .cfa -40 + ^ x28: .cfa -48 + ^ .ra: .cfa -56 + ^ x29: .cfa -64 + ^
STACK CFI 253f4 .cfa: sp 384 +
STACK CFI 25408 .cfa: sp 0 +
STACK CFI 2540c .cfa: x29 64 +
STACK CFI INIT 2544c 168 .cfa: sp 0 +
STACK CFI 25450 .cfa: sp 384 +
STACK CFI 25464 .cfa: x29 64 + x19: .cfa -8 + ^ x20: .cfa -16 + ^ x21: .cfa -24 + ^ x22: .cfa -32 + ^ x23: .cfa -40 + ^ x28: .cfa -48 + ^ .ra: .cfa -56 + ^ x29: .cfa -64 + ^
STACK CFI 2555c .cfa: sp 384 +
STACK CFI 25570 .cfa: sp 0 +
STACK CFI 25574 .cfa: x29 64 +
STACK CFI INIT 255cc 50c .cfa: sp 0 +
STACK CFI 255d0 .cfa: sp 64 +
STACK CFI 255e0 .cfa: x29 64 + x19: .cfa -8 + ^ x20: .cfa -16 + ^ x21: .cfa -24 + ^ x22: .cfa -32 + ^ x23: .cfa -40 + ^ x24: .cfa -48 + ^ .ra: .cfa -56 + ^ x29: .cfa -64 + ^
STACK CFI 25700 .cfa: sp 64 +
STACK CFI 25710 .cfa: sp 0 +
STACK CFI 25714 .cfa: x29 64 +
STACK CFI 25aac .cfa: sp 64 +
STACK CFI 25abc .cfa: sp 0 +
STACK CFI 25ac0 .cfa: x29 64 +
STACK CFI INIT 25e08 294 .cfa: sp 0 +
STACK CFI 25e0c .cfa: sp 240 +
STACK CFI 25e24 .cfa: x29 80 + x19: .cfa -8 + ^ x20: .cfa -16 + ^ x21: .cfa -24 + ^ x22: .cfa -32 + ^ x23: .cfa -40 + ^ x24: .cfa -48 + ^ x25: .cfa -64 + ^ .ra: .cfa -72 + ^ x29: .cfa -80 + ^
STACK CFI 25fc4 .cfa: sp 240 +
STACK CFI 25fdc .cfa: sp 0 +
STACK CFI 25fe0 .cfa: x29 80 +
STACK CFI INIT 26118 50 .cfa: sp 0 +
STACK CFI 2611c .cfa: sp 32 +
STACK CFI 26124 .cfa: x29 32 + x19: .cfa -8 + ^ x20: .cfa -16 + ^ .ra: .cfa -24 + ^ x29: .cfa -32 + ^
STACK CFI INIT 26194 7c0 .cfa: sp 0 +
STACK CFI 26198 .cfa: sp 320 +
STACK CFI 261b4 .cfa: x29 96 + x19: .cfa -8 + ^ x20: .cfa -16 + ^ x21: .cfa -24 + ^ x22: .cfa -32 + ^ x23: .cfa -40 + ^ x24: .cfa -48 + ^ x25: .cfa -56 + ^ x26: .cfa -64 + ^ x27: .cfa -72 + ^ x28: .cfa -80 + ^ .ra: .cfa -88 + ^ x29: .cfa -96 + ^
STACK CFI 26804 .cfa: sp 320 +
STACK CFI 26820 .cfa: sp 0 +
STACK CFI 26824 .cfa: x29 96 +
STACK CFI INIT 2acd4 c74 .cfa: sp 0 +
STACK CFI 2acd8 .cfa: sp 96 +
STACK CFI 2acf0 .cfa: x29 96 + x19: .cfa -8 + ^ x20: .cfa -16 + ^ x21: .cfa -24 + ^ x22: .cfa -32 + ^ x23: .cfa -40 + ^ x24: .cfa -48 + ^ x25: .cfa -56 + ^ x26: .cfa -64 + ^ x27: .cfa -72 + ^ x28: .cfa -80 + ^ .ra: .cfa -88 + ^ x29: .cfa -96 + ^
STACK CFI 2b768 .cfa: sp 96 +
STACK CFI 2b780 .cfa: sp 0 +
STACK CFI 2b784 .cfa: x29 96 +
STACK CFI INIT 2ba9c 26c .cfa: sp 0 +
STACK CFI 2baa0 .cfa: sp 128 +
STACK CFI 2bab0 .cfa: x29 48 + x19: .cfa -8 + ^ x20: .cfa -16 + ^ x21: .cfa -24 + ^ x22: .cfa -32 + ^ .ra: .cfa -40 + ^ x29: .cfa -48 + ^
STACK CFI 2bc54 .cfa: sp 128 +
STACK CFI 2bc64 .cfa: sp 0 +
STACK CFI 2bc68 .cfa: x29 48 +
STACK CFI INIT 2c098 3b8 .cfa: sp 0 +
STACK CFI 2c09c .cfa: sp 96 +
STACK CFI 2c0b4 .cfa: x29 96 + x19: .cfa -8 + ^ x20: .cfa -16 + ^ x21: .cfa -24 + ^ x22: .cfa -32 + ^ x23: .cfa -40 + ^ x24: .cfa -48 + ^ x25: .cfa -56 + ^ x26: .cfa -64 + ^ x27: .cfa -72 + ^ x28: .cfa -80 + ^ .ra: .cfa -88 + ^ x29: .cfa -96 + ^
STACK CFI 2c3f0 .cfa: sp 96 +
STACK CFI 2c408 .cfa: sp 0 +
STACK CFI 2c40c .cfa: x29 96 +
STACK CFI INIT 2c4f0 cb4 .cfa: sp 0 +
STACK CFI 2c4f4 .cfa: sp 96 +
STACK CFI 2c50c .cfa: x29 96 + x19: .cfa -8 + ^ x20: .cfa -16 + ^ x21: .cfa -24 + ^ x22: .cfa -32 + ^ x23: .cfa -40 + ^ x24: .cfa -48 + ^ x25: .cfa -56 + ^ x26: .cfa -64 + ^ x27: .cfa -72 + ^ x28: .cfa -80 + ^ .ra: .cfa -88 + ^ x29: .cfa -96 + ^
STACK CFI 2cfb4 .cfa: sp 96 +
STACK CFI 2cfcc .cfa: sp 0 +
STACK CFI 2cfd0 .cfa: x29 96 +
STACK CFI INIT 2d48c afc .cfa: sp 0 +
STACK CFI 2d490 .cfa: sp 96 +
STACK CFI 2d4a8 .cfa: x29 96 + x19: .cfa -8 + ^ x20: .cfa -16 + ^ x21: .cfa -24 + ^ x22: .cfa -32 + ^ x23: .cfa -40 + ^ x24: .cfa -48 + ^ x25: .cfa -56 + ^ x26: .cfa -64 + ^ x27: .cfa -72 + ^ x28: .cfa -80 + ^ .ra: .cfa -88 + ^ x29: .cfa -96 + ^
STACK CFI 2defc .cfa: sp 96 +
STACK CFI 2df14 .cfa: sp 0 +
STACK CFI 2df18 .cfa: x29 96 +
STACK CFI INIT 2e164 1430 .cfa: sp 0 +
STACK CFI 2e168 .cfa: sp 96 +
STACK CFI 2e180 .cfa: x29 96 + x19: .cfa -8 + ^ x20: .cfa -16 + ^ x21: .cfa -24 + ^ x22: .cfa -32 + ^ x23: .cfa -40 + ^ x24: .cfa -48 + ^ x25: .cfa -56 + ^ x26: .cfa -64 + ^ x27: .cfa -72 + ^ x28: .cfa -80 + ^ .ra: .cfa -88 + ^ x29: .cfa -96 + ^
STACK CFI 2f41c .cfa: sp 96 +
STACK CFI 2f434 .cfa: sp 0 +
STACK CFI 2f438 .cfa: x29 96 +
STACK CFI INIT 2f6b8 75c .cfa: sp 0 +
STACK CFI 2f6bc .cfa: sp 368 +
STACK CFI 2f6d8 .cfa: x29 96 + x19: .cfa -8 + ^ x20: .cfa -16 + ^ x21: .cfa -24 + ^ x22: .cfa -32 + ^ x23: .cfa -40 + ^ x24: .cfa -48 + ^ x25: .cfa -56 + ^ x26: .cfa -64 + ^ x27: .cfa -72 + ^ x28: .cfa -80 + ^ .ra: .cfa -88 + ^ x29: .cfa -96 + ^
STACK CFI 2f78c .cfa: sp 368 +
STACK CFI 2f7a8 .cfa: sp 0 +
STACK CFI 2f7ac .cfa: x29 96 +
STACK CFI 2f800 .cfa: sp 368 +
STACK CFI 2f81c .cfa: sp 0 +
STACK CFI 2f820 .cfa: x29 96 +
STACK CFI INIT 301d4 eb0 .cfa: sp 0 +
STACK CFI 301d8 .cfa: sp 96 +
STACK CFI 301f0 .cfa: x29 96 + x19: .cfa -8 + ^ x20: .cfa -16 + ^ x21: .cfa -24 + ^ x22: .cfa -32 + ^ x23: .cfa -40 + ^ x24: .cfa -48 + ^ x25: .cfa -56 + ^ x26: .cfa -64 + ^ x27: .cfa -72 + ^ x28: .cfa -80 + ^ .ra: .cfa -88 + ^ x29: .cfa -96 + ^
STACK CFI 30e98 .cfa: sp 96 +
STACK CFI 30eb0 .cfa: sp 0 +
STACK CFI 30eb4 .cfa: x29 96 +
STACK CFI INIT 313f8 1c9c .cfa: sp 0 +
STACK CFI 313fc .cfa: sp 112 +
STACK CFI 31418 .cfa: x29 96 + x19: .cfa -8 + ^ x20: .cfa -16 + ^ x21: .cfa -24 + ^ x22: .cfa -32 + ^ x23: .cfa -40 + ^ x24: .cfa -48 + ^ x25: .cfa -56 + ^ x26: .cfa -64 + ^ x27: .cfa -72 + ^ x28: .cfa -80 + ^ .ra: .cfa -88 + ^ x29: .cfa -96 + ^ v8: .cfa -112 + ^
STACK CFI 31800 .cfa: sp 112 +
STACK CFI 3181c .cfa: sp 0 +
STACK CFI 31820 .cfa: x29 96 +
STACK CFI INIT 35858 9a0 .cfa: sp 0 +
STACK CFI 3585c .cfa: sp 144 +
STACK CFI 35874 .cfa: x29 80 + x19: .cfa -8 + ^ x20: .cfa -16 + ^ x21: .cfa -24 + ^ x22: .cfa -32 + ^ x23: .cfa -40 + ^ x24: .cfa -48 + ^ x25: .cfa -64 + ^ .ra: .cfa -72 + ^ x29: .cfa -80 + ^
STACK CFI 36174 .cfa: sp 144 +
STACK CFI 3618c .cfa: sp 0 +
STACK CFI 36190 .cfa: x29 80 +
STACK CFI INIT 3771c 57c .cfa: sp 0 +
STACK CFI 37720 .cfa: sp 96 +
STACK CFI 37738 .cfa: x29 96 + x19: .cfa -8 + ^ x20: .cfa -16 + ^ x21: .cfa -24 + ^ x22: .cfa -32 + ^ x23: .cfa -40 + ^ x24: .cfa -48 + ^ x25: .cfa -56 + ^ x26: .cfa -64 + ^ x27: .cfa -72 + ^ x28: .cfa -80 + ^ .ra: .cfa -88 + ^ x29: .cfa -96 + ^
STACK CFI 37bfc .cfa: sp 96 +
STACK CFI 37c14 .cfa: sp 0 +
STACK CFI 37c18 .cfa: x29 96 +
STACK CFI INIT 37c98 67c .cfa: sp 0 +
STACK CFI 37c9c .cfa: sp 96 +
STACK CFI 37cb4 .cfa: x29 96 + x19: .cfa -8 + ^ x20: .cfa -16 + ^ x21: .cfa -24 + ^ x22: .cfa -32 + ^ x23: .cfa -40 + ^ x24: .cfa -48 + ^ x25: .cfa -56 + ^ x26: .cfa -64 + ^ x27: .cfa -72 + ^ x28: .cfa -80 + ^ .ra: .cfa -88 + ^ x29: .cfa -96 + ^
STACK CFI 38278 .cfa: sp 96 +
STACK CFI 38290 .cfa: sp 0 +
STACK CFI 38294 .cfa: x29 96 +
