MODULE Linux arm 15051384665A1545C145F71F6C1ACB900 mishpro.comments_in_pause_menu.android32.so
INFO CODE_ID 841305155A664515C145F71F6C1ACB9087A40483
INFO GENERATOR mozilla/dump_syms 2.3.4
FILE 0 /home/runner/work/infoinpause/infoinpause/geode-sdk-clone/loader/include/Geode/utils/addresser.hpp
FILE 1 /home/runner/work/infoinpause/infoinpause/geode-sdk-clone/loader/include/Geode/platform/ItaniumCast.hpp
FILE 2 /usr/local/lib/android/sdk/ndk/27.2.12479018/toolchains/llvm/prebuilt/linux-x86_64/sysroot/usr/include/c++/v1/ostream
FILE 3 /usr/local/lib/android/sdk/ndk/27.2.12479018/toolchains/llvm/prebuilt/linux-x86_64/sysroot/usr/include/c++/v1/variant
FILE 4 /usr/local/lib/android/sdk/ndk/27.2.12479018/toolchains/llvm/prebuilt/linux-x86_64/sysroot/usr/include/c++/v1/locale
FILE 5 /usr/local/lib/android/sdk/ndk/27.2.12479018/toolchains/llvm/prebuilt/linux-x86_64/sysroot/usr/include/c++/v1/stdexcept
FILE 6 /usr/local/lib/android/sdk/ndk/27.2.12479018/toolchains/llvm/prebuilt/linux-x86_64/sysroot/usr/include/c++/v1/__tree
FILE 7 /usr/local/lib/android/sdk/ndk/27.2.12479018/toolchains/llvm/prebuilt/linux-x86_64/sysroot/usr/include/c++/v1/new
FILE 8 /home/runner/work/infoinpause/infoinpause/build/bindings/bindings/Geode/modify/PauseLayer.hpp
FILE 9 /home/runner/work/infoinpause/infoinpause/build/bindings/bindings/Geode/modify/LevelInfoLayer.hpp
FILE 10 /home/runner/work/infoinpause/infoinpause/build/bindings/bindings/Geode/modify/PlayLayer.hpp
FILE 11 /home/runner/work/infoinpause/infoinpause/build/bindings/bindings/Geode/modify/CCLayer.hpp
FILE 12 /home/runner/work/infoinpause/infoinpause/geode-sdk-clone/loader/include/Geode/modify/Modify.hpp
FILE 13 /usr/local/lib/android/sdk/ndk/27.2.12479018/toolchains/llvm/prebuilt/linux-x86_64/sysroot/usr/include/c++/v1/__memory/shared_ptr.h
FILE 14 /home/runner/work/infoinpause/infoinpause/cpm-cache/result/28b1b03e0682509636d5e5825265ce2421aac4dc/include/Geode/Result.hpp
FILE 15 /usr/local/lib/android/sdk/ndk/27.2.12479018/toolchains/llvm/prebuilt/linux-x86_64/sysroot/usr/include/c++/v1/vector
FILE 16 /usr/local/lib/android/sdk/ndk/27.2.12479018/toolchains/llvm/prebuilt/linux-x86_64/sysroot/usr/include/c++/v1/sstream
FILE 17 /usr/local/lib/android/sdk/ndk/27.2.12479018/toolchains/llvm/prebuilt/linux-x86_64/sysroot/usr/include/c++/v1/string
FILE 18 /usr/local/lib/android/sdk/ndk/27.2.12479018/toolchains/llvm/prebuilt/linux-x86_64/sysroot/usr/include/c++/v1/__split_buffer
FILE 19 /home/runner/work/infoinpause/infoinpause/build/bindings/bindings/Geode/binding/PauseLayer.hpp
FILE 20 /home/runner/work/infoinpause/infoinpause/cpm-cache/tuliphook/727bc6fdab39f84eb52f1519195d5488a312e77e/include/tulip/HandlerData.hpp
FILE 21 /home/runner/work/infoinpause/infoinpause/src/main.cpp
FILE 22 /home/runner/work/infoinpause/infoinpause/geode-sdk-clone/loader/include/Geode/loader/Hook.hpp
FILE 23 /home/runner/work/infoinpause/infoinpause/geode-sdk-clone/loader/include/Geode/cocos/layers_scenes_transitions_nodes/CCLayer.h
FILE 24 /usr/local/lib/android/sdk/ndk/27.2.12479018/toolchains/llvm/prebuilt/linux-x86_64/sysroot/usr/include/c++/v1/__functional/function.h
FILE 25 /home/runner/work/infoinpause/infoinpause/geode-sdk-clone/loader/include/Geode/utils/cocos.hpp
FILE 26 /home/runner/work/infoinpause/infoinpause/geode-sdk-clone/entry.cpp
FILE 27 /home/runner/work/infoinpause/infoinpause/build/bindings/bindings/Geode/GeneratedSource.cpp
FILE 28 /usr/local/lib/android/sdk/ndk/27.2.12479018/toolchains/llvm/prebuilt/linux-x86_64/sysroot/usr/include/c++/v1/unordered_map
FILE 29 /home/runner/work/infoinpause/infoinpause/cpm-cache/tuliphook/727bc6fdab39f84eb52f1519195d5488a312e77e/include/tulip/WrapperData.hpp
FILE 30 /home/runner/work/infoinpause/infoinpause/cpm-cache/tuliphook/727bc6fdab39f84eb52f1519195d5488a312e77e/include/tulip/AbstractFunction.hpp
FILE 31 /home/runner/work/infoinpause/infoinpause/geode-sdk-clone/loader/include/Geode/cocos/cocoa/CCObject.h
FILE 32 /home/runner/work/infoinpause/infoinpause/geode-sdk-clone/loader/include/Geode/cocos/robtop/keyboard_dispatcher/CCKeyboardDelegate.h
FILE 33 /home/runner/work/infoinpause/infoinpause/geode-sdk-clone/loader/include/Geode/cocos/robtop/mouse_dispatcher/CCMouseDelegate.h
FILE 34 /usr/local/lib/android/sdk/ndk/27.2.12479018/toolchains/llvm/prebuilt/linux-x86_64/sysroot/usr/include/c++/v1/__hash_table
PUBLIC 6110 0 __on_dlclose
PUBLIC 6120 0 __emutls_unregister_key
PUBLIC 6124 0 __on_dlclose_late
PUBLIC 6128 0 __atexit_handler_wrapper
PUBLIC 6134 0 atexit
PUBLIC 6154 0 pthread_atfork
FUNC 6164 2f4 0 __cxx_global_var_init
6184 2d4 387 12
FUNC 6458 1c 0 geode::modifier::ModifyBase<geode::modifier::ModifyDerive<MyPauseLayer, PauseLayer> >::~ModifyBase()
6458 1c 141 12
FUNC 6474 2c4 0 __cxx_global_var_init.1
647e 2ba 387 12
FUNC 6738 1c 0 geode::modifier::ModifyBase<geode::modifier::ModifyDerive<hook32<(anonymous namespace)::hook32Parent>, LevelInfoLayer> >::~ModifyBase()
6738 1c 141 12
FUNC 6754 54 0 __cxx_global_var_init.2
675c 4c 387 12
FUNC 67a8 1c 0 geode::modifier::ModifyBase<geode::modifier::ModifyDerive<FixedPlayLayer, PlayLayer> >::~ModifyBase()
67a8 1c 141 12
FUNC 67c4 2f4 0 __cxx_global_var_init.3
67e4 2d4 387 12
FUNC 6ab8 1c 0 geode::modifier::ModifyBase<geode::modifier::ModifyDerive<MyCCLayer, cocos2d::CCLayer> >::~ModifyBase()
6ab8 1c 141 12
FUNC 6ad4 2d0 0 geode::modifier::ModifyDerive<MyPauseLayer, PauseLayer>::apply()
6ad4 c 281 8
6ae0 228 287 8
6d08 e 311 8
6d16 8e 287 8
FUNC 6da4 3a 0 std::__ndk1::shared_ptr<geode::Hook>::~shared_ptr[abi:ne180000]()
6da4 4 643 13
6da8 4 644 13
6dac 1a 645 13
6dc6 4 646 13
6dca 12 645 13
6ddc 2 646 13
FUNC 6de0 60 0 geode::impl::ResultData<geode::Hook*, std::__ndk1::basic_string<char, std::__ndk1::char_traits<char>, std::__ndk1::allocator<char> > >::~ResultData()
6de0 60 334 14
FUNC 6e40 3e 0 std::__ndk1::vector<std::__ndk1::basic_string<char, std::__ndk1::char_traits<char>, std::__ndk1::allocator<char> >, std::__ndk1::allocator<std::__ndk1::basic_string<char, std::__ndk1::char_traits<char>, std::__ndk1::allocator<char> > > >::~vector[abi:ne180000]()
6e40 3e 501 15
FUNC 6e7e 2 0 geode::modifier::ModifyBase<geode::modifier::ModifyDerive<MyPauseLayer, PauseLayer> >::apply()
6e7e 2 357 12
PUBLIC 6e81 0 __clang_call_terminate
FUNC 6e8c f8 0 _ZN5geode15UnwrapExceptionC2IRPNS_4HookEQsr4implE18IsStringStreamableIT_EEENS_4impl5OkTagEOS5_
6e8c 1a 316 14
6ea6 2c 315 14
6ed2 5a 314 14
6f2c 24 316 14
6f50 34 314 14
FUNC 6f84 34 0 std::__ndk1::__throw_bad_variant_access[abi:ne180000]()
6f84 4 285 3
6f88 30 287 3
FUNC 6fb8 d8 0 std::__ndk1::basic_stringstream<char, std::__ndk1::char_traits<char>, std::__ndk1::allocator<char> >::basic_stringstream[abi:ne180000]()
6fb8 d8 1010 16
FUNC 7090 68 0 std::__ndk1::basic_stringstream<char, std::__ndk1::char_traits<char>, std::__ndk1::allocator<char> >::~basic_stringstream()
7090 68 1102 16
FUNC 70f8 10 0 geode::UnwrapException::~UnwrapException()
70f8 10 325 14
FUNC 7108 108 0 std::__ndk1::__put_character_sequence[abi:ne180000]<char, std::__ndk1::char_traits<char> >(std::__ndk1::basic_ostream<char, std::__ndk1::char_traits<char> >, std::__ndk1::basic_ostream const*, unsigned int)
7108 1c 665 2
7124 6 669 2
712a 6 670 2
7130 c 673 2
713c 2 678 2
713e 4 675 2
7142 4 673 2
7146 2a 678 2
7170 2 672 2
7172 4 675 2
7176 4 672 2
717a 8 675 2
7182 4 672 2
7186 4 675 2
718a 6 672 2
7190 16 680 2
71a6 10 683 2
71b6 16 687 2
71cc a 678 2
71d6 e 683 2
71e4 e 684 2
71f2 1e 685 2
FUNC 7210 110 0 std::__ndk1::__pad_and_output[abi:ne180000]<char, std::__ndk1::char_traits<char> >(std::__ndk1::char_traits<char>, std::__ndk1::ostreambuf_iterator const*, std::__ndk1::ostreambuf_iterator const, std::__ndk1::ostreambuf_iterator const, std::__ndk1::ios_base&, std::__ndk1::ostreambuf_iterator)
7210 10 1246 4
7220 12 1247 4
7232 2 1249 4
7234 6 1255 4
723a 4 1250 4
723e 6 1251 4
7244 4 1256 4
7248 e 1257 4
7256 a 1262 4
7260 3a 1263 4
729a 2 1264 4
729c 2 1263 4
729e 18 1264 4
72b6 12 1268 4
72c8 4 1269 4
72cc 4 1270 4
72d0 12 1271 4
72e2 14 1276 4
72f6 10 1278 4
7306 1a 1268 4
FUNC 7320 10 0 std::__ndk1::basic_string<char, std::__ndk1::char_traits<char>, std::__ndk1::allocator<char> >::__throw_length_error[abi:ne180000]() const
7320 4 2118 17
7324 c 2119 17
FUNC 7330 38 0 std::__ndk1::__throw_length_error[abi:ne180000](char const*)
7330 6 239 5
7336 32 241 5
FUNC 7368 18 0 std::length_error::length_error[abi:ne180000](char const*)
7368 18 152 5
FUNC 7380 28 0 std::__throw_bad_array_new_length([abi:ne180000], void)
7380 4 172 7
7384 24 174 7
FUNC 73a8 ce 0 std::__ndk1::basic_stringbuf<char, std::__ndk1::char_traits<char>, std::__ndk1::allocator<char> >::str[abi:ne180000]() &&
73a8 a 396 16
73b2 2a 397 16
73dc 1e 398 16
73fa 8 402 16
7402 4 401 16
7406 42 402 16
7448 12 403 16
745a 6 404 16
7460 16 406 16
FUNC 7476 e0 0 std::__ndk1::basic_stringbuf<char, std::__ndk1::char_traits<char>, std::__ndk1::allocator<char> >::__init_buf_ptrs[abi:ne180000]()
7476 8 626 16
747e c 628 16
748a 4 629 16
748e 2 630 16
7490 2 628 16
7492 2 627 16
7494 4 628 16
7498 8 629 16
74a0 4 628 16
74a4 2 630 16
74a6 6 631 16
74ac 6 632 16
74b2 2 631 16
74b4 4 634 16
74b8 2 636 16
74ba 6 635 16
74c0 42 636 16
7502 4 637 16
7506 4 638 16
750a c 637 16
7516 2 638 16
7518 4 637 16
751c 2 638 16
751e 6 639 16
7524 6 643 16
752a 6 647 16
7530 c 641 16
753c e 639 16
754a 6 644 16
7550 6 647 16
FUNC 7558 160 0 std::__ndk1::vector<std::__ndk1::basic_string<char, std::__ndk1::char_traits<char>, std::__ndk1::allocator<char> >, std::__ndk1::allocator<std::__ndk1::basic_string<char, std::__ndk1::char_traits<char>, std::__ndk1::allocator<char> > > >::__push_back_slow_path<std::__ndk1::basic_string<char, std::__ndk1::char_traits<char>, std::__ndk1::allocator<char> > const&>(std::__ndk1::basic_string<char, std::__ndk1::char_traits<char>, std::__ndk1::allocator<char> > const&)
7558 20 1449 15
7578 5c 1451 15
75d4 4 1453 15
75d8 12 1451 15
75ea 2 1453 15
75ec 2 1451 15
75ee 1c 1453 15
760a 8 1455 15
7612 4 1454 15
7616 30 1455 15
7646 2 1457 15
7648 12 1455 15
765a 44 1457 15
769e a 1451 15
76a8 10 1457 15
FUNC 76b8 46 0 std::__ndk1::basic_string<char, std::__ndk1::char_traits<char>, std::__ndk1::allocator<char> >::__init_copy_ctor_external(char const*, unsigned int)
76b8 a 2232 17
76c2 4 2237 17
76c6 a 2239 17
76d0 6 2241 17
76d6 c 2243 17
76e2 8 2247 17
76ea 2 2246 17
76ec 6 2250 17
76f2 6 2252 17
76f8 6 2242 17
FUNC 76fe 3c 0 std::__ndk1::__split_buffer<std::__ndk1::basic_string<char, std::__ndk1::char_traits<char>, std::__ndk1::allocator<char> >, std::__ndk1::allocator<std::__ndk1::basic_string<char, std::__ndk1::char_traits<char>, std::__ndk1::allocator<char> > >&>::~__split_buffer()
76fe 6 352 18
7704 8 353 18
770c 4 354 18
7710 6 355 18
7716 4 356 18
771a 20 353 18
FUNC 773c 10 0 std::__ndk1::vector<std::__ndk1::basic_string<char, std::__ndk1::char_traits<char>, std::__ndk1::allocator<char> >, std::__ndk1::allocator<std::__ndk1::basic_string<char, std::__ndk1::char_traits<char>, std::__ndk1::allocator<char> > > >::__throw_length_error[abi:ne180000]() const
773c 10 940 15
FUNC 774c 2 0 std::__ndk1::__variant_detail::__visitation::__base::__dispatcher<(unsigned int)0>::__dispatch[abi:ne180000]<std::__ndk1::__variant_detail::__dtor<std::__ndk1::__variant_detail::__traits<geode::Hook*, std::__ndk1::basic_string<char, std::__ndk1::char_traits<char>, std::__ndk1::allocator<char> > >, (std::__ndk1::__variant_detail::_Trait)1>::__destroy[abi:ne180000]()::{lambda(auto:1&)#1}, std::__ndk1::__variant_detail::__base<(std::__ndk1::__variant_detail::__traits<geode::Hook*, std::__ndk1::basic_string<char, std::__ndk1::char_traits<char>, std::__ndk1::allocator<char> > >)1, geode::Hook, std::__ndk1::allocator<char> >&>(std::__ndk1::__variant_detail::__dtor<std::__ndk1::__variant_detail::__traits<geode::Hook*, std::__ndk1::basic_string<char, std::__ndk1::char_traits<char>, std::__ndk1::allocator<char> > >, (std::__ndk1::__variant_detail::_Trait)1>, std::__ndk1::__variant_detail::__base<(std::__ndk1::__variant_detail::__traits<geode::Hook*, std::__ndk1::basic_string<char, std::__ndk1::char_traits<char>, std::__ndk1::allocator<char> > >)1, geode::Hook, std::__ndk1::allocator<char> >&)
774c 2 526 3
FUNC 774e e 0 std::__ndk1::__variant_detail::__visitation::__base::__dispatcher<(unsigned int)1>::__dispatch[abi:ne180000]<std::__ndk1::__variant_detail::__dtor<std::__ndk1::__variant_detail::__traits<geode::Hook*, std::__ndk1::basic_string<char, std::__ndk1::char_traits<char>, std::__ndk1::allocator<char> > >, (std::__ndk1::__variant_detail::_Trait)1>::__destroy[abi:ne180000]()::{lambda(auto:1&)#1}, std::__ndk1::__variant_detail::__base<(std::__ndk1::__variant_detail::__traits<geode::Hook*, std::__ndk1::basic_string<char, std::__ndk1::char_traits<char>, std::__ndk1::allocator<char> > >)1, geode::Hook, std::__ndk1::allocator<char> >&>(std::__ndk1::__variant_detail::__dtor<std::__ndk1::__variant_detail::__traits<geode::Hook*, std::__ndk1::basic_string<char, std::__ndk1::char_traits<char>, std::__ndk1::allocator<char> > >, (std::__ndk1::__variant_detail::_Trait)1>, std::__ndk1::__variant_detail::__base<(std::__ndk1::__variant_detail::__traits<geode::Hook*, std::__ndk1::basic_string<char, std::__ndk1::char_traits<char>, std::__ndk1::allocator<char> > >)1, geode::Hook, std::__ndk1::allocator<char> >&)
774e e 526 3
FUNC 775c c0 0 std::__ndk1::__tree<std::__ndk1::__value_type<std::__ndk1::basic_string<char, std::__ndk1::char_traits<char>, std::__ndk1::allocator<char> >, std::__ndk1::shared_ptr<geode::Hook> >, std::__ndk1::__map_value_compare<std::__ndk1::basic_string<char, std::__ndk1::char_traits<char>, std::__ndk1::allocator<char> >, std::__ndk1::__value_type<std::__ndk1::basic_string<char, std::__ndk1::char_traits<char>, std::__ndk1::allocator<char> >, std::__ndk1::shared_ptr<geode::Hook> >, std::__ndk1::less<std::__ndk1::basic_string<char, std::__ndk1::char_traits<char>, std::__ndk1::allocator<char> > >, true>, std::__ndk1::allocator<std::__ndk1::__value_type<std::__ndk1::basic_string<char, std::__ndk1::char_traits<char>, std::__ndk1::allocator<char> >, std::__ndk1::shared_ptr<geode::Hook> > > >::find<std::__ndk1::basic_string<char, std::__ndk1::char_traits<char>, std::__ndk1::allocator<char> > >(std::__ndk1::basic_string<char, std::__ndk1::char_traits<char>, std::__ndk1::allocator<char> > const&)
775c a 2087 6
7766 6c 2088 6
77d2 42 2089 6
7814 8 2092 6
FUNC 781c 2ba 0 std::__ndk1::__tree<std::__ndk1::__value_type<std::__ndk1::basic_string<char, std::__ndk1::char_traits<char>, std::__ndk1::allocator<char> >, std::__ndk1::shared_ptr<geode::Hook> >, std::__ndk1::__map_value_compare<std::__ndk1::basic_string<char, std::__ndk1::char_traits<char>, std::__ndk1::allocator<char> >, std::__ndk1::__value_type<std::__ndk1::basic_string<char, std::__ndk1::char_traits<char>, std::__ndk1::allocator<char> >, std::__ndk1::shared_ptr<geode::Hook> >, std::__ndk1::less<std::__ndk1::basic_string<char, std::__ndk1::char_traits<char>, std::__ndk1::allocator<char> > >, true>, std::__ndk1::allocator<std::__ndk1::__value_type<std::__ndk1::basic_string<char, std::__ndk1::char_traits<char>, std::__ndk1::allocator<char> >, std::__ndk1::shared_ptr<geode::Hook> > > >::erase(std::__ndk1::__tree_const_iterator<std::__ndk1::__value_type<std::__ndk1::basic_string<char, std::__ndk1::char_traits<char>, std::__ndk1::allocator<char> >, std::__ndk1::shared_ptr<geode::Hook> >, std::__ndk1::__tree_node<std::__ndk1::__value_type<std::__ndk1::basic_string<char, std::__ndk1::char_traits<char>, std::__ndk1::allocator<char> >, std::__ndk1::shared_ptr<geode::Hook> >, void*>*, int>)
781c 8 2046 6
7824 b4 2048 6
78d8 3e 2050 6
7916 e 2051 6
7924 1b2 2048 6
FUNC 7ad6 5a 0 std::__ndk1::__tree<std::__ndk1::__value_type<std::__ndk1::basic_string<char, std::__ndk1::char_traits<char>, std::__ndk1::allocator<char> >, std::__ndk1::shared_ptr<geode::Hook> >, std::__ndk1::__map_value_compare<std::__ndk1::basic_string<char, std::__ndk1::char_traits<char>, std::__ndk1::allocator<char> >, std::__ndk1::__value_type<std::__ndk1::basic_string<char, std::__ndk1::char_traits<char>, std::__ndk1::allocator<char> >, std::__ndk1::shared_ptr<geode::Hook> >, std::__ndk1::less<std::__ndk1::basic_string<char, std::__ndk1::char_traits<char>, std::__ndk1::allocator<char> > >, true>, std::__ndk1::allocator<std::__ndk1::__value_type<std::__ndk1::basic_string<char, std::__ndk1::char_traits<char>, std::__ndk1::allocator<char> >, std::__ndk1::shared_ptr<geode::Hook> > > >::destroy(std::__ndk1::__tree_node<std::__ndk1::__value_type<std::__ndk1::basic_string<char, std::__ndk1::char_traits<char>, std::__ndk1::allocator<char> >, std::__ndk1::shared_ptr<geode::Hook> >, void*>*)
7ad6 2 1544 6
7ad8 a 1551 6
7ae2 6 1545 6
7ae8 6 1546 6
7aee 38 1548 6
7b26 a 1549 6
FUNC 7b30 7c 0 geode::addresser::getVirtual<void (PauseLayer::*)()>(void (PauseLayer::*)())
7b30 4 169 0
7b34 78 170 0
FUNC 7bac 100 0 geode::modifier::AsStaticFunction_customSetup<MyPauseLayer, void (MyPauseLayer::*)()>::Impl<void (MyPauseLayer::*)()>::function(MyPauseLayer*)
7bac 100 25 8
FUNC 7cac 78 0 PauseLayer::PauseLayer(geode::ZeroConstructorType)
7cac 78 17 19
FUNC 7d24 3a 0 std::__ndk1::shared_ptr<tulip::hook::CallingConvention>::~shared_ptr[abi:ne180000]()
7d24 4 643 13
7d28 4 644 13
7d2c 1a 645 13
7d46 4 646 13
7d4a 12 645 13
7d5c 2 646 13
FUNC 7d5e 46 0 tulip::hook::HandlerMetadata::~HandlerMetadata()
7d5e 46 12 20
FUNC 7da4 a8 0 MyPauseLayer::onCommentsButton(cocos2d::CCObject*)
7da4 8 20 21
7dac 64 21 21
7e10 8 22 21
7e18 2 23 21
7e1a 6 24 21
7e20 4 25 21
7e24 6 29 21
7e2a 8 26 21
7e32 4 27 21
7e36 16 28 21
FUNC 7e4c 88 0 geode::cast::traverseTypeinfoFor(void*, geode::cast::ClassTypeinfoType const*, char const*)
7e4c a 57 1
7e56 4 59 1
7e5a e 60 1
7e68 2 64 1
7e6a 2 65 1
7e6c 6 64 1
7e72 8 65 1
7e7a 2 67 1
7e7c 2 60 1
7e7e 2 59 1
7e80 a 60 1
7e8a 6 80 1
7e90 e 69 1
7e9e 6 80 1
7ea4 a 71 1
7eae 6 74 1
7eb4 4 73 1
7eb8 8 74 1
7ec0 6 71 1
7ec6 e 80 1
FUNC 7ed4 ba 0 std::__ndk1::__tree<std::__ndk1::__value_type<std::__ndk1::basic_string<char, std::__ndk1::char_traits<char>, std::__ndk1::allocator<char> >, std::__ndk1::shared_ptr<geode::Hook> >, std::__ndk1::__map_value_compare<std::__ndk1::basic_string<char, std::__ndk1::char_traits<char>, std::__ndk1::allocator<char> >, std::__ndk1::__value_type<std::__ndk1::basic_string<char, std::__ndk1::char_traits<char>, std::__ndk1::allocator<char> >, std::__ndk1::shared_ptr<geode::Hook> >, std::__ndk1::less<std::__ndk1::basic_string<char, std::__ndk1::char_traits<char>, std::__ndk1::allocator<char> > >, true>, std::__ndk1::allocator<std::__ndk1::__value_type<std::__ndk1::basic_string<char, std::__ndk1::char_traits<char>, std::__ndk1::allocator<char> >, std::__ndk1::shared_ptr<geode::Hook> > > >::__find_equal<std::__ndk1::basic_string<char, std::__ndk1::char_traits<char>, std::__ndk1::allocator<char> > >(std::__ndk1::__tree_end_node<std::__ndk1::__tree_node_base<void*>*>*&, std::__ndk1::basic_string<char, std::__ndk1::char_traits<char>, std::__ndk1::allocator<char> > const&)
7ed4 e 1682 6
7ee2 4 1683 6
7ee6 1a 1685 6
7f00 8 1688 6
7f08 44 1687 6
7f4c 26 1695 6
7f72 12 1696 6
7f84 a 1711 6
FUNC 7f8e 14a 0 std::__ndk1::__tree_balance_after_insert[abi:ne180000]<std::__ndk1::__tree_node_base<void*>*>(std::__ndk1::__tree_node_base<void*>*, std::__ndk1::__tree_node_base<void*>*)
7f8e c 285 6
7f9a 28 330 6
7fc2 a 286 6
7fcc c 288 6
7fd8 c 310 6
7fe4 4 289 6
7fe8 a 290 6
7ff2 6 297 6
7ff8 28 299 6
8020 4 303 6
8024 2 299 6
8026 6 305 6
802c a 317 6
8036 22 319 6
8058 4 323 6
805c 2 319 6
805e 6 325 6
8064 4 322 6
8068 4 324 6
806c 2e 325 6
809a 6 330 6
80a0 4 302 6
80a4 2 305 6
80a6 4 304 6
80aa 2c 305 6
80d6 2 330 6
FUNC 80d8 470 0 geode::modifier::ModifyDerive<hook32<(anonymous namespace)::hook32Parent>, LevelInfoLayer>::apply()
80d8 c 646 9
80e4 1b6 689 9
829a 1b6 707 9
8450 e 711 9
845e 36 689 9
8494 32 707 9
84c6 82 689 9
FUNC 8548 2 0 geode::modifier::ModifyBase<geode::modifier::ModifyDerive<hook32<(anonymous namespace)::hook32Parent>, LevelInfoLayer> >::apply()
8548 2 357 12
FUNC 8550 108 0 geode::Hook::create<void (*)(hook32<(anonymous namespace)::hook32Parent>*, cocos2d::CCObject*)>(void*, void (*)(hook32<(anonymous namespace)::hook32Parent>*, cocos2d::CCObject*), std::__ndk1::basic_string<char, std::__ndk1::char_traits<char>, std::__ndk1::allocator<char> > const&, tulip::hook::TulipConvention, tulip::hook::HookMetadata const&)
8550 10 58 22
8560 18 60 22
8578 40 61 22
85b8 12 63 22
85ca 5c 70 22
8626 c 61 22
8632 26 59 22
FUNC 8658 118 0 geode::modifier::AsStaticFunction_onPlay<hook32<(anonymous namespace)::hook32Parent>, void (hook32<(anonymous namespace)::hook32Parent>::*)(cocos2d::CCObject*)>::Impl<void (hook32<(anonymous namespace)::hook32Parent>::*)(cocos2d::CCObject*)>::function(hook32<(anonymous namespace)::hook32Parent>*, cocos2d::CCObject*)
8658 118 215 9
FUNC 8770 114 0 geode::modifier::AsStaticFunction_tryCloneLevel<hook32<(anonymous namespace)::hook32Parent>, void (hook32<(anonymous namespace)::hook32Parent>::*)(cocos2d::CCObject*)>::Impl<void (hook32<(anonymous namespace)::hook32Parent>::*)(cocos2d::CCObject*)>::function(hook32<(anonymous namespace)::hook32Parent>*, cocos2d::CCObject*)
8770 114 305 9
FUNC 8884 2 0 geode::modifier::ModifyDerive<FixedPlayLayer, PlayLayer>::apply()
8884 2 1408 10
FUNC 8886 2 0 geode::modifier::ModifyBase<geode::modifier::ModifyDerive<FixedPlayLayer, PlayLayer> >::apply()
8886 2 357 12
FUNC 8888 2d0 0 geode::modifier::ModifyDerive<MyCCLayer, cocos2d::CCLayer>::apply()
8888 c 466 11
8894 228 481 11
8abc e 516 11
8aca 8e 481 11
FUNC 8b58 2 0 geode::modifier::ModifyBase<geode::modifier::ModifyDerive<MyCCLayer, cocos2d::CCLayer> >::apply()
8b58 2 357 12
FUNC 8b5c 7c 0 geode::addresser::getVirtual<void (cocos2d::CCLayer::*)()>(void (cocos2d::CCLayer::*)())
8b5c 4 169 0
8b60 78 170 0
FUNC 8bd8 f4 0 geode::modifier::AsStaticFunction_onEnter<MyCCLayer, void (MyCCLayer::*)()>::Impl<void (MyCCLayer::*)()>::function(MyCCLayer*)
8bd8 f4 60 11
FUNC 8ccc 5c 0 cocos2d::CCLayer::CCLayer(geode::ZeroConstructorType)
8ccc 5c 76 23
FUNC 8d28 16 0 FixedPlayLayer::onEnterH()::{lambda()#1}::~{lambda()#1}()
8d28 16 69 21
FUNC 8d40 24 0 std::__ndk1::__function::__func<FixedPlayLayer::onEnterH()::{lambda()#1}, std::__ndk1::allocator<FixedPlayLayer::onEnterH()::{lambda()#1}>, void ()>::~__func()
8d40 24 250 24
FUNC 8d64 2c 0 std::__ndk1::__function::__func<FixedPlayLayer::onEnterH()::{lambda()#1}, std::__ndk1::allocator<FixedPlayLayer::onEnterH()::{lambda()#1}>, void ()>::~__func()
8d64 26 250 24
8d8a 6 261 25
FUNC 8d90 34 0 std::__ndk1::__function::__func<FixedPlayLayer::onEnterH()::{lambda()#1}, std::__ndk1::allocator<FixedPlayLayer::onEnterH()::{lambda()#1}>, void ()>::__clone() const
8d90 6 277 24
8d96 6 282 24
8d9c 2 283 24
8d9e 2 282 24
8da0 12 283 24
8db2 12 285 24
FUNC 8dc4 1c 0 std::__ndk1::__function::__func<FixedPlayLayer::onEnterH()::{lambda()#1}, std::__ndk1::allocator<FixedPlayLayer::onEnterH()::{lambda()#1}>, void ()>::__clone(std::__ndk1::__function::__base<void ()>*) const
8dc4 10 289 24
8dd4 4 290 24
8dd8 8 289 24
FUNC 8de0 16 0 std::__ndk1::__function::__func<FixedPlayLayer::onEnterH()::{lambda()#1}, std::__ndk1::allocator<FixedPlayLayer::onEnterH()::{lambda()#1}>, void ()>::destroy()
8de0 4 293 24
8de4 4 294 24
8de8 4 295 24
8dec 4 294 24
8df0 2 295 24
8df2 4 294 24
FUNC 8df6 1c 0 std::__ndk1::__function::__func<FixedPlayLayer::onEnterH()::{lambda()#1}, std::__ndk1::allocator<FixedPlayLayer::onEnterH()::{lambda()#1}>, void ()>::destroy_deallocate()
8df6 6 298 24
8dfc 8 302 24
8e04 a 303 24
8e0e 4 302 24
FUNC 8e14 dc 0 std::__ndk1::__function::__func<FixedPlayLayer::onEnterH()::{lambda()#1}, std::__ndk1::allocator<FixedPlayLayer::onEnterH()::{lambda()#1}>, void ()>::operator()()
8e14 16 307 24
8e2a c6 308 24
FUNC 8ef0 18 0 std::__ndk1::__function::__func<FixedPlayLayer::onEnterH()::{lambda()#1}, std::__ndk1::allocator<FixedPlayLayer::onEnterH()::{lambda()#1}>, void ()>::target(std::type_info const&) const
8ef0 e 315 24
8efe a 318 24
FUNC 8f08 c 0 std::__ndk1::__function::__func<FixedPlayLayer::onEnterH()::{lambda()#1}, std::__ndk1::allocator<FixedPlayLayer::onEnterH()::{lambda()#1}>, void ()>::target_type() const
8f08 c 322 24
FUNC 8f14 16 0 geode::cocos::CCArrayExt<cocos2d::CCNode*>::~CCArrayExt()
8f14 16 1009 25
FUNC 8f2c 20 0 geodeImplicitEntry
8f2c 4 16 26
8f30 8 18 26
8f38 4 19 26
8f3c a 18 26
8f46 6 19 26
FUNC 8f4c 28 0 std::__ndk1::unordered_map<void*, bool, std::__ndk1::hash<void*>, std::__ndk1::equal_to<void*>, std::__ndk1::allocator<std::__ndk1::pair<void* const, bool> > >::~unordered_map[abi:ne180000]()
8f4c 6 1178 28
8f52 22 1180 28
FUNC 8f74 cc 0 wrapFunction(unsigned int, tulip::hook::WrapperMetadata const&)
8f74 16 27 27
8f8a 4 28 27
8f8e 4 29 27
8f92 2 33 27
8f94 2 32 27
8f96 24 33 27
8fba 4 29 27
8fbe 24 30 27
8fe2 36 32 27
9018 28 33 27
FUNC 9040 48 0 geode::impl::ResultData<void*, std::__ndk1::basic_string<char, std::__ndk1::char_traits<char>, std::__ndk1::allocator<char> > >::unwrapErr() &
9040 4 472 14
9044 4 473 14
9048 6 474 14
904e 3a 477 14
FUNC 9088 60 0 geode::impl::ResultData<void*, std::__ndk1::basic_string<char, std::__ndk1::char_traits<char>, std::__ndk1::allocator<char> > >::~ResultData()
9088 60 334 14
FUNC 90e8 46 0 tulip::hook::WrapperMetadata::~WrapperMetadata()
90e8 46 10 29
FUNC 912e 10 0 cocos2d::CCObject::~CCObject()
912e 10 76 27
FUNC 913e 10 0 cocos2d::CCNode::~CCNode()
913e 10 106 27
FUNC 914e 8 0 {virtual override thunk({offset(-264)}, cocos2d::CCLayer::~CCLayer())}
FUNC 9156 10 0 cocos2d::CCLayer::~CCLayer()
9156 10 447 27
FUNC 9166 14 0 {virtual override thunk({offset(-264)}, cocos2d::CCLayer::~CCLayer())}
FUNC 917c 11c 0 FLAlertLayer::create(FLAlertLayerProtocol*, char const*, gd::string, char const*, char const*, float)
917c 12 1341 27
918e 22 1343 27
91b0 4e 1347 27
91fe 22 1343 27
9220 8 1344 27
9228 4 1343 27
922c 8 1345 27
9234 38 1343 27
926c 2c 1347 27
FUNC 92a0 100 0 tulip::hook::AbstractFunction::from<FLAlertLayer*, FLAlertLayerProtocol*, char const*, gd::string, char const*, char const*, float>(FLAlertLayer* (*)(FLAlertLayerProtocol*, char const*, gd::string, char const*, char const*, float))
92a0 10 39 30
92b0 4 41 30
92b4 6 40 30
92ba b0 42 30
936a 36 45 30
FUNC 93a0 4 0 cocos2d::CCCopying::copyWithZone(cocos2d::CCZone*)
93a0 4 72 31
FUNC 93a4 2 0 cocos2d::CCObject::update(float)
93a4 2 139 31
FUNC 93a6 2 0 cocos2d::CCKeyboardDelegate::keyUp(cocos2d::enumKeyCodes)
93a6 2 209 32
FUNC 93a8 2 0 cocos2d::CCMouseDelegate::rightKeyDown()
93a8 2 13 33
FUNC 93aa 2 0 cocos2d::CCMouseDelegate::rightKeyUp()
93aa 2 15 33
FUNC 93ac 2 0 cocos2d::CCMouseDelegate::scrollWheel(float, float)
93ac 2 17 33
FUNC 93b0 214 0 cocos2d::CCNode::~CCNode()
93b0 14 106 27
93c4 4 109 27
93c8 2 106 27
93ca 2 109 27
93cc 10 106 27
93dc 2e 109 27
940a 12 111 27
941c 6 115 27
9422 a 118 27
942c 4 119 27
9430 8 118 27
9438 2 119 27
943a e 118 27
9448 4 119 27
944c 4 118 27
9450 2 119 27
9452 8 118 27
945a 18 119 27
9472 2a 120 27
949c 34 109 27
94d0 30 119 27
9500 22 111 27
9522 c 112 27
952e 26 113 27
9554 1c 111 27
9570 54 109 27
FUNC 95c4 25c 0 cocos2d::CCLayer::~CCLayer()
95c4 14 447 27
95d8 4 450 27
95dc 2 447 27
95de 2 450 27
95e0 38 447 27
9618 2e 450 27
9646 12 452 27
9658 6 456 27
965e a 459 27
9668 4 460 27
966c 6 459 27
9672 2 460 27
9674 2a 459 27
969e 4 460 27
96a2 4 459 27
96a6 2 460 27
96a8 a 459 27
96b2 16 460 27
96c8 2a 461 27
96f2 34 450 27
9726 32 460 27
9758 26 452 27
977e a 453 27
9788 22 454 27
97aa 22 452 27
97cc 54 450 27
FUNC 9820 410 0 cocos2d::CCObject::~CCObject()
9820 14 76 27
9834 4 79 27
9838 2 76 27
983a 2 79 27
983c 10 76 27
984c 30 79 27
987c 14 81 27
9890 6 85 27
9896 2 89 27
9898 6 88 27
989e 2 89 27
98a0 4 88 27
98a4 4 89 27
98a8 6 88 27
98ae 2 89 27
98b0 4 88 27
98b4 2 89 27
98b6 a 88 27
98c0 18 89 27
98d8 1e2 90 27
9aba 34 79 27
9aee 34 90 27
9b22 30 89 27
9b52 24 81 27
9b76 c 82 27
9b82 26 83 27
9ba8 1c 81 27
9bc4 6c 79 27
FUNC 9c30 f8 0 _ZN5geode15UnwrapExceptionC2IRPvQsr4implE18IsStringStreamableIT_EEENS_4impl5OkTagEOS4_
9c30 1a 316 14
9c4a 2c 315 14
9c76 5a 314 14
9cd0 24 316 14
9cf4 34 314 14
FUNC 9d28 104 0 _ZN5geode15UnwrapExceptionC2IRNSt6__ndk112basic_stringIcNS2_11char_traitsIcEENS2_9allocatorIcEEEEQsr4implE18IsStringStreamableIT_EEENS_4impl6ErrTagEOSA_
9d28 1a 304 14
9d42 3a 303 14
9d7c 5a 302 14
9dd6 24 304 14
9dfa 32 302 14
FUNC 9e2c 2 0 std::__ndk1::__variant_detail::__visitation::__base::__dispatcher<(unsigned int)0>::__dispatch[abi:ne180000]<std::__ndk1::__variant_detail::__dtor<std::__ndk1::__variant_detail::__traits<void*, std::__ndk1::basic_string<char, std::__ndk1::char_traits<char>, std::__ndk1::allocator<char> > >, (std::__ndk1::__variant_detail::_Trait)1>::__destroy[abi:ne180000]()::{lambda(auto:1&)#1}, std::__ndk1::__variant_detail::__base<(std::__ndk1::__variant_detail::__traits<void*, std::__ndk1::basic_string<char, std::__ndk1::char_traits<char>, std::__ndk1::allocator<char> > >)1, std::__ndk1::__variant_detail::__traits, std::__ndk1::allocator<char> >&>(std::__ndk1::__variant_detail::__dtor<std::__ndk1::__variant_detail::__traits<void*, std::__ndk1::basic_string<char, std::__ndk1::char_traits<char>, std::__ndk1::allocator<char> > >, (std::__ndk1::__variant_detail::_Trait)1>, std::__ndk1::__variant_detail::__base<(std::__ndk1::__variant_detail::__traits<void*, std::__ndk1::basic_string<char, std::__ndk1::char_traits<char>, std::__ndk1::allocator<char> > >)1, std::__ndk1::__variant_detail::__traits, std::__ndk1::allocator<char> >&)
9e2c 2 526 3
FUNC 9e2e e 0 std::__ndk1::__variant_detail::__visitation::__base::__dispatcher<(unsigned int)1>::__dispatch[abi:ne180000]<std::__ndk1::__variant_detail::__dtor<std::__ndk1::__variant_detail::__traits<void*, std::__ndk1::basic_string<char, std::__ndk1::char_traits<char>, std::__ndk1::allocator<char> > >, (std::__ndk1::__variant_detail::_Trait)1>::__destroy[abi:ne180000]()::{lambda(auto:1&)#1}, std::__ndk1::__variant_detail::__base<(std::__ndk1::__variant_detail::__traits<void*, std::__ndk1::basic_string<char, std::__ndk1::char_traits<char>, std::__ndk1::allocator<char> > >)1, std::__ndk1::__variant_detail::__traits, std::__ndk1::allocator<char> >&>(std::__ndk1::__variant_detail::__dtor<std::__ndk1::__variant_detail::__traits<void*, std::__ndk1::basic_string<char, std::__ndk1::char_traits<char>, std::__ndk1::allocator<char> > >, (std::__ndk1::__variant_detail::_Trait)1>, std::__ndk1::__variant_detail::__base<(std::__ndk1::__variant_detail::__traits<void*, std::__ndk1::basic_string<char, std::__ndk1::char_traits<char>, std::__ndk1::allocator<char> > >)1, std::__ndk1::__variant_detail::__traits, std::__ndk1::allocator<char> >&)
9e2e e 526 3
FUNC 9e3c 3f2 0 std::__ndk1::__hash_table<std::__ndk1::__hash_value_type<void*, bool>, std::__ndk1::__unordered_map_hasher<void*, std::__ndk1::__hash_value_type<void*, bool>, std::__ndk1::hash<void*>, std::__ndk1::equal_to<void*>, true>, std::__ndk1::__unordered_map_equal<void*, std::__ndk1::__hash_value_type<void*, bool>, std::__ndk1::equal_to<void*>, std::__ndk1::hash<void*>, true>, std::__ndk1::allocator<std::__ndk1::__hash_value_type<void*, bool> > >::__emplace_unique_key_args<void*, std::__ndk1::piecewise_construct_t const&, std::__ndk1::tuple<void* const&>, std::__ndk1::tuple<> >(void* const&, std::__ndk1::piecewise_construct_t const&, std::__ndk1::tuple<void* const&>, std::__ndk1::tuple<>)
9e3c a 1473 34
9e46 1c 1474 34
9e62 4 1475 34
9e66 6 1479 34
9e6c 18 1474 34
9e84 c 1479 34
9e90 4c 1480 34
9edc 8 1481 34
9ee4 6 1482 34
9eea 8 1484 34
9ef2 6 1492 34
9ef8 4 1493 34
9efc 6 1492 34
9f02 2 1493 34
9f04 2 1492 34
9f06 c 1493 34
9f12 4 1492 34
9f16 4 1493 34
9f1a a 1492 34
9f24 22 1493 34
9f46 3a 1495 34
9f80 12c 1494 34
a0ac a 1486 34
a0b6 24 1484 34
a0da e 1483 34
a0e8 ae 1494 34
a196 4 1496 34
a19a 1c 1497 34
a1b6 8 1500 34
a1be 2 1501 34
a1c0 8 1510 34
a1c8 4 1503 34
a1cc 2 1504 34
a1ce 4 1506 34
a1d2 4 1507 34
a1d6 26 1508 34
a1fc c 1515 34
a208 8 1519 34
a210 10 1520 34
a220 4 1494 34
a224 a 1517 34
PUBLIC a231 0 __ThumbV7PILongThunk___cxa_atexit
PUBLIC a23d 0 __ThumbV7PILongThunk__ZdlPv
PUBLIC a249 0 __ThumbV7PILongThunk__ZN5geode9addresser9Addresser19followThunkFunctionEi
PUBLIC a255 0 __ThumbV7PILongThunk__ZN14LevelInfoLayer6onPlayEPN7cocos2d8CCObjectE
PUBLIC a261 0 __ThumbV7PILongThunk__ZN14LevelInfoLayer13tryCloneLevelEPN7cocos2d8CCObjectE
PUBLIC a26d 0 __ThumbV7PILongThunk__ZN7cocos2d7CCLayer7onEnterEv
PUBLIC a279 0 __ThumbV7PILongThunk__ZN7cocos2d8CCObject6retainEv
PUBLIC a290 0 <.plt ELF section in mishpro.comments_in_pause_menu.android32.so>
STACK CFI INIT 6164 2f4 .cfa: sp 0 +
STACK CFI 6166 .cfa: sp 20 + .ra: .cfa -4 + ^ r7: .cfa -8 + ^ r6: .cfa -12 + ^ r5: .cfa -16 + ^ r4: .cfa -20 + ^
STACK CFI 6168 .cfa: r7 8 +
STACK CFI 616c r11: .cfa -24 + ^ r10: .cfa -28 + ^ r9: .cfa -32 + ^ r8: .cfa -36 + ^
STACK CFI INIT 6458 1c .cfa: sp 0 +
STACK CFI 645a .cfa: sp 16 + .ra: .cfa -4 + ^ r7: .cfa -8 + ^ r6: .cfa -12 + ^ r4: .cfa -16 + ^
STACK CFI 645c .cfa: r7 8 +
STACK CFI INIT 6474 2c4 .cfa: sp 0 +
STACK CFI 6476 .cfa: sp 20 + .ra: .cfa -4 + ^ r7: .cfa -8 + ^ r6: .cfa -12 + ^ r5: .cfa -16 + ^ r4: .cfa -20 + ^
STACK CFI 6478 .cfa: r7 8 +
STACK CFI 647c r11: .cfa -24 + ^ r10: .cfa -28 + ^ r9: .cfa -32 + ^ r8: .cfa -36 + ^
STACK CFI INIT 6738 1c .cfa: sp 0 +
STACK CFI 673a .cfa: sp 16 + .ra: .cfa -4 + ^ r7: .cfa -8 + ^ r6: .cfa -12 + ^ r4: .cfa -16 + ^
STACK CFI 673c .cfa: r7 8 +
STACK CFI INIT 6754 54 .cfa: sp 0 +
STACK CFI 6762 .cfa: sp 16 + .ra: .cfa -4 + ^ r7: .cfa -8 + ^ r5: .cfa -12 + ^ r4: .cfa -16 + ^
STACK CFI 6764 .cfa: r7 8 +
STACK CFI INIT 67a8 1c .cfa: sp 0 +
STACK CFI 67aa .cfa: sp 16 + .ra: .cfa -4 + ^ r7: .cfa -8 + ^ r6: .cfa -12 + ^ r4: .cfa -16 + ^
STACK CFI 67ac .cfa: r7 8 +
STACK CFI INIT 67c4 2f4 .cfa: sp 0 +
STACK CFI 67c6 .cfa: sp 20 + .ra: .cfa -4 + ^ r7: .cfa -8 + ^ r6: .cfa -12 + ^ r5: .cfa -16 + ^ r4: .cfa -20 + ^
STACK CFI 67c8 .cfa: r7 8 +
STACK CFI 67cc r11: .cfa -24 + ^ r10: .cfa -28 + ^ r9: .cfa -32 + ^ r8: .cfa -36 + ^
STACK CFI INIT 6ab8 1c .cfa: sp 0 +
STACK CFI 6aba .cfa: sp 16 + .ra: .cfa -4 + ^ r7: .cfa -8 + ^ r6: .cfa -12 + ^ r4: .cfa -16 + ^
STACK CFI 6abc .cfa: r7 8 +
STACK CFI INIT 6ad4 2d0 .cfa: sp 0 +
STACK CFI 6ad6 .cfa: sp 20 + .ra: .cfa -4 + ^ r7: .cfa -8 + ^ r6: .cfa -12 + ^ r5: .cfa -16 + ^ r4: .cfa -20 + ^
STACK CFI 6ad8 .cfa: r7 8 +
STACK CFI 6adc r11: .cfa -24 + ^ r9: .cfa -28 + ^ r8: .cfa -32 + ^
STACK CFI INIT 6da4 3a .cfa: sp 0 +
STACK CFI 6da6 .cfa: sp 16 + .ra: .cfa -4 + ^ r7: .cfa -8 + ^ r5: .cfa -12 + ^ r4: .cfa -16 + ^
STACK CFI 6da8 .cfa: r7 8 +
STACK CFI INIT 6de0 60 .cfa: sp 0 +
STACK CFI 6de2 .cfa: sp 16 + .ra: .cfa -4 + ^ r7: .cfa -8 + ^ r6: .cfa -12 + ^ r4: .cfa -16 + ^
STACK CFI 6de4 .cfa: r7 8 +
STACK CFI INIT 6e40 3e .cfa: sp 0 +
STACK CFI 6e42 .cfa: sp 20 + .ra: .cfa -4 + ^ r7: .cfa -8 + ^ r6: .cfa -12 + ^ r5: .cfa -16 + ^ r4: .cfa -20 + ^
STACK CFI 6e44 .cfa: r7 8 +
STACK CFI 6e48 r11: .cfa -24 + ^
STACK CFI INIT 6e7e 2 .cfa: sp 0 +
STACK CFI INIT 6e80 c .cfa: sp 0 +
STACK CFI 6e82 .cfa: sp 8 + .ra: .cfa -4 + ^ r7: .cfa -8 + ^
STACK CFI 6e84 .cfa: r7 8 +
STACK CFI INIT 6e8c f8 .cfa: sp 0 +
STACK CFI 6e8e .cfa: sp 20 + .ra: .cfa -4 + ^ r7: .cfa -8 + ^ r6: .cfa -12 + ^ r5: .cfa -16 + ^ r4: .cfa -20 + ^
STACK CFI 6e90 .cfa: r7 8 +
STACK CFI 6e94 r8: .cfa -24 + ^
STACK CFI INIT 6f84 34 .cfa: sp 0 +
STACK CFI 6f86 .cfa: sp 8 + .ra: .cfa -4 + ^ r7: .cfa -8 + ^
STACK CFI 6f88 .cfa: r7 8 +
STACK CFI INIT 6fb8 d8 .cfa: sp 0 +
STACK CFI 6fba .cfa: sp 20 + .ra: .cfa -4 + ^ r7: .cfa -8 + ^ r6: .cfa -12 + ^ r5: .cfa -16 + ^ r4: .cfa -20 + ^
STACK CFI 6fbc .cfa: r7 8 +
STACK CFI 6fc0 r11: .cfa -24 + ^ r10: .cfa -28 + ^ r9: .cfa -32 + ^ r8: .cfa -36 + ^
STACK CFI INIT 7090 68 .cfa: sp 0 +
STACK CFI 7092 .cfa: sp 20 + .ra: .cfa -4 + ^ r7: .cfa -8 + ^ r6: .cfa -12 + ^ r5: .cfa -16 + ^ r4: .cfa -20 + ^
STACK CFI 7094 .cfa: r7 8 +
STACK CFI 7098 r11: .cfa -24 + ^
STACK CFI INIT 70f8 10 .cfa: sp 0 +
STACK CFI 70fa .cfa: sp 8 + .ra: .cfa -4 + ^ r7: .cfa -8 + ^
STACK CFI 70fc .cfa: r7 8 +
STACK CFI INIT 7108 108 .cfa: sp 0 +
STACK CFI 710a .cfa: sp 20 + .ra: .cfa -4 + ^ r7: .cfa -8 + ^ r6: .cfa -12 + ^ r5: .cfa -16 + ^ r4: .cfa -20 + ^
STACK CFI 710c .cfa: r7 8 +
STACK CFI 7110 r11: .cfa -24 + ^ r10: .cfa -28 + ^ r9: .cfa -32 + ^ r8: .cfa -36 + ^
STACK CFI INIT 7210 110 .cfa: sp 0 +
STACK CFI 7212 .cfa: sp 20 + .ra: .cfa -4 + ^ r7: .cfa -8 + ^ r6: .cfa -12 + ^ r5: .cfa -16 + ^ r4: .cfa -20 + ^
STACK CFI 7214 .cfa: r7 8 +
STACK CFI 7218 r11: .cfa -24 + ^ r10: .cfa -28 + ^ r9: .cfa -32 + ^ r8: .cfa -36 + ^
STACK CFI INIT 7320 10 .cfa: sp 0 +
STACK CFI 7322 .cfa: sp 8 + .ra: .cfa -4 + ^ r7: .cfa -8 + ^
STACK CFI 7324 .cfa: r7 8 +
STACK CFI INIT 7330 38 .cfa: sp 0 +
STACK CFI 7332 .cfa: sp 16 + .ra: .cfa -4 + ^ r7: .cfa -8 + ^ r5: .cfa -12 + ^ r4: .cfa -16 + ^
STACK CFI 7334 .cfa: r7 8 +
STACK CFI INIT 7368 18 .cfa: sp 0 +
STACK CFI 736a .cfa: sp 8 + .ra: .cfa -4 + ^ r7: .cfa -8 + ^
STACK CFI 736c .cfa: r7 8 +
STACK CFI INIT 7380 28 .cfa: sp 0 +
STACK CFI 7382 .cfa: sp 8 + .ra: .cfa -4 + ^ r7: .cfa -8 + ^
STACK CFI 7384 .cfa: r7 8 +
STACK CFI INIT 73a8 ce .cfa: sp 0 +
STACK CFI 73aa .cfa: sp 20 + .ra: .cfa -4 + ^ r7: .cfa -8 + ^ r6: .cfa -12 + ^ r5: .cfa -16 + ^ r4: .cfa -20 + ^
STACK CFI 73ac .cfa: r7 8 +
STACK CFI 73b0 r10: .cfa -24 + ^ r9: .cfa -28 + ^ r8: .cfa -32 + ^
STACK CFI INIT 7476 e0 .cfa: sp 0 +
STACK CFI 7478 .cfa: sp 20 + .ra: .cfa -4 + ^ r7: .cfa -8 + ^ r6: .cfa -12 + ^ r5: .cfa -16 + ^ r4: .cfa -20 + ^
STACK CFI 747a .cfa: r7 8 +
STACK CFI 747e r11: .cfa -24 + ^ r9: .cfa -28 + ^ r8: .cfa -32 + ^
STACK CFI INIT 7558 160 .cfa: sp 0 +
STACK CFI 755a .cfa: sp 20 + .ra: .cfa -4 + ^ r7: .cfa -8 + ^ r6: .cfa -12 + ^ r5: .cfa -16 + ^ r4: .cfa -20 + ^
STACK CFI 755c .cfa: r7 8 +
STACK CFI 7560 r10: .cfa -24 + ^ r9: .cfa -28 + ^ r8: .cfa -32 + ^
STACK CFI INIT 76b8 46 .cfa: sp 0 +
STACK CFI 76ba .cfa: sp 20 + .ra: .cfa -4 + ^ r7: .cfa -8 + ^ r6: .cfa -12 + ^ r5: .cfa -16 + ^ r4: .cfa -20 + ^
STACK CFI 76bc .cfa: r7 8 +
STACK CFI 76c0 r8: .cfa -24 + ^
STACK CFI INIT 76fe 3c .cfa: sp 0 +
STACK CFI 7700 .cfa: sp 16 + .ra: .cfa -4 + ^ r7: .cfa -8 + ^ r5: .cfa -12 + ^ r4: .cfa -16 + ^
STACK CFI 7702 .cfa: r7 8 +
STACK CFI INIT 773c 10 .cfa: sp 0 +
STACK CFI 773e .cfa: sp 8 + .ra: .cfa -4 + ^ r7: .cfa -8 + ^
STACK CFI 7740 .cfa: r7 8 +
STACK CFI INIT 774c 2 .cfa: sp 0 +
STACK CFI INIT 774e e .cfa: sp 0 +
STACK CFI INIT 775c c0 .cfa: sp 0 +
STACK CFI 775e .cfa: sp 20 + .ra: .cfa -4 + ^ r7: .cfa -8 + ^ r6: .cfa -12 + ^ r5: .cfa -16 + ^ r4: .cfa -20 + ^
STACK CFI 7760 .cfa: r7 8 +
STACK CFI 7764 r10: .cfa -24 + ^ r9: .cfa -28 + ^ r8: .cfa -32 + ^
STACK CFI INIT 781c 2ba .cfa: sp 0 +
STACK CFI 781e .cfa: sp 20 + .ra: .cfa -4 + ^ r7: .cfa -8 + ^ r6: .cfa -12 + ^ r5: .cfa -16 + ^ r4: .cfa -20 + ^
STACK CFI 7820 .cfa: r7 8 +
STACK CFI 7824 r8: .cfa -24 + ^
STACK CFI INIT 7ad6 5a .cfa: sp 0 +
STACK CFI 7ade .cfa: sp 16 + .ra: .cfa -4 + ^ r7: .cfa -8 + ^ r5: .cfa -12 + ^ r4: .cfa -16 + ^
STACK CFI 7ae0 .cfa: r7 8 +
STACK CFI INIT 7b30 7c .cfa: sp 0 +
STACK CFI 7b32 .cfa: sp 16 + .ra: .cfa -4 + ^ r7: .cfa -8 + ^ r6: .cfa -12 + ^ r4: .cfa -16 + ^
STACK CFI 7b34 .cfa: r7 8 +
STACK CFI INIT 7bac 100 .cfa: sp 0 +
STACK CFI 7bae .cfa: sp 20 + .ra: .cfa -4 + ^ r7: .cfa -8 + ^ r6: .cfa -12 + ^ r5: .cfa -16 + ^ r4: .cfa -20 + ^
STACK CFI 7bb0 .cfa: r7 8 +
STACK CFI 7bb4 r8: .cfa -24 + ^
STACK CFI INIT 7cac 78 .cfa: sp 0 +
STACK CFI 7cae .cfa: sp 16 + .ra: .cfa -4 + ^ r7: .cfa -8 + ^ r6: .cfa -12 + ^ r4: .cfa -16 + ^
STACK CFI 7cb0 .cfa: r7 8 +
STACK CFI INIT 7d24 3a .cfa: sp 0 +
STACK CFI 7d26 .cfa: sp 16 + .ra: .cfa -4 + ^ r7: .cfa -8 + ^ r5: .cfa -12 + ^ r4: .cfa -16 + ^
STACK CFI 7d28 .cfa: r7 8 +
STACK CFI INIT 7d5e 46 .cfa: sp 0 +
STACK CFI 7d60 .cfa: sp 16 + .ra: .cfa -4 + ^ r7: .cfa -8 + ^ r5: .cfa -12 + ^ r4: .cfa -16 + ^
STACK CFI 7d62 .cfa: r7 8 +
STACK CFI INIT 7da4 a8 .cfa: sp 0 +
STACK CFI 7da6 .cfa: sp 20 + .ra: .cfa -4 + ^ r7: .cfa -8 + ^ r6: .cfa -12 + ^ r5: .cfa -16 + ^ r4: .cfa -20 + ^
STACK CFI 7da8 .cfa: r7 8 +
STACK CFI 7dac r11: .cfa -24 + ^
STACK CFI INIT 7e4c 88 .cfa: sp 0 +
STACK CFI 7e4e .cfa: sp 20 + .ra: .cfa -4 + ^ r7: .cfa -8 + ^ r6: .cfa -12 + ^ r5: .cfa -16 + ^ r4: .cfa -20 + ^
STACK CFI 7e50 .cfa: r7 8 +
STACK CFI 7e54 r11: .cfa -24 + ^ r9: .cfa -28 + ^ r8: .cfa -32 + ^
STACK CFI INIT 7ed4 ba .cfa: sp 0 +
STACK CFI 7ed6 .cfa: sp 20 + .ra: .cfa -4 + ^ r7: .cfa -8 + ^ r6: .cfa -12 + ^ r5: .cfa -16 + ^ r4: .cfa -20 + ^
STACK CFI 7ed8 .cfa: r7 8 +
STACK CFI 7edc r11: .cfa -24 + ^ r10: .cfa -28 + ^ r9: .cfa -32 + ^ r8: .cfa -36 + ^
STACK CFI INIT 7f8e 14a .cfa: sp 0 +
STACK CFI 7fa0 .cfa: sp 16 + .ra: .cfa -4 + ^ r7: .cfa -8 + ^ r6: .cfa -12 + ^ r4: .cfa -16 + ^
STACK CFI 7fa2 .cfa: r7 8 +
STACK CFI INIT 80d8 470 .cfa: sp 0 +
STACK CFI 80da .cfa: sp 20 + .ra: .cfa -4 + ^ r7: .cfa -8 + ^ r6: .cfa -12 + ^ r5: .cfa -16 + ^ r4: .cfa -20 + ^
STACK CFI 80dc .cfa: r7 8 +
STACK CFI 80e0 r11: .cfa -24 + ^ r9: .cfa -28 + ^ r8: .cfa -32 + ^
STACK CFI INIT 8548 2 .cfa: sp 0 +
STACK CFI INIT 8550 108 .cfa: sp 0 +
STACK CFI 8552 .cfa: sp 20 + .ra: .cfa -4 + ^ r7: .cfa -8 + ^ r6: .cfa -12 + ^ r5: .cfa -16 + ^ r4: .cfa -20 + ^
STACK CFI 8554 .cfa: r7 8 +
STACK CFI 8558 r11: .cfa -24 + ^ r10: .cfa -28 + ^ r9: .cfa -32 + ^ r8: .cfa -36 + ^
STACK CFI INIT 8658 118 .cfa: sp 0 +
STACK CFI 865a .cfa: sp 16 + .ra: .cfa -4 + ^ r7: .cfa -8 + ^ r5: .cfa -12 + ^ r4: .cfa -16 + ^
STACK CFI 865c .cfa: r7 8 +
STACK CFI INIT 8770 114 .cfa: sp 0 +
STACK CFI 8772 .cfa: sp 16 + .ra: .cfa -4 + ^ r7: .cfa -8 + ^ r5: .cfa -12 + ^ r4: .cfa -16 + ^
STACK CFI 8774 .cfa: r7 8 +
STACK CFI INIT 8884 2 .cfa: sp 0 +
STACK CFI INIT 8886 2 .cfa: sp 0 +
STACK CFI INIT 8888 2d0 .cfa: sp 0 +
STACK CFI 888a .cfa: sp 20 + .ra: .cfa -4 + ^ r7: .cfa -8 + ^ r6: .cfa -12 + ^ r5: .cfa -16 + ^ r4: .cfa -20 + ^
STACK CFI 888c .cfa: r7 8 +
STACK CFI 8890 r11: .cfa -24 + ^ r9: .cfa -28 + ^ r8: .cfa -32 + ^
STACK CFI INIT 8b58 2 .cfa: sp 0 +
STACK CFI INIT 8b5c 7c .cfa: sp 0 +
STACK CFI 8b5e .cfa: sp 16 + .ra: .cfa -4 + ^ r7: .cfa -8 + ^ r6: .cfa -12 + ^ r4: .cfa -16 + ^
STACK CFI 8b60 .cfa: r7 8 +
STACK CFI INIT 8bd8 f4 .cfa: sp 0 +
STACK CFI 8bda .cfa: sp 20 + .ra: .cfa -4 + ^ r7: .cfa -8 + ^ r6: .cfa -12 + ^ r5: .cfa -16 + ^ r4: .cfa -20 + ^
STACK CFI 8bdc .cfa: r7 8 +
STACK CFI 8be0 r11: .cfa -24 + ^
STACK CFI INIT 8ccc 5c .cfa: sp 0 +
STACK CFI 8cce .cfa: sp 16 + .ra: .cfa -4 + ^ r7: .cfa -8 + ^ r5: .cfa -12 + ^ r4: .cfa -16 + ^
STACK CFI 8cd0 .cfa: r7 8 +
STACK CFI INIT 8d28 16 .cfa: sp 0 +
STACK CFI 8d2a .cfa: sp 16 + .ra: .cfa -4 + ^ r7: .cfa -8 + ^ r6: .cfa -12 + ^ r4: .cfa -16 + ^
STACK CFI 8d2c .cfa: r7 8 +
STACK CFI INIT 8d40 24 .cfa: sp 0 +
STACK CFI 8d42 .cfa: sp 16 + .ra: .cfa -4 + ^ r7: .cfa -8 + ^ r6: .cfa -12 + ^ r4: .cfa -16 + ^
STACK CFI 8d44 .cfa: r7 8 +
STACK CFI INIT 8d64 2c .cfa: sp 0 +
STACK CFI 8d66 .cfa: sp 16 + .ra: .cfa -4 + ^ r7: .cfa -8 + ^ r6: .cfa -12 + ^ r4: .cfa -16 + ^
STACK CFI 8d68 .cfa: r7 8 +
STACK CFI INIT 8d90 34 .cfa: sp 0 +
STACK CFI 8d92 .cfa: sp 16 + .ra: .cfa -4 + ^ r7: .cfa -8 + ^ r5: .cfa -12 + ^ r4: .cfa -16 + ^
STACK CFI 8d94 .cfa: r7 8 +
STACK CFI INIT 8dc4 1c .cfa: sp 0 +
STACK CFI INIT 8de0 16 .cfa: sp 0 +
STACK CFI 8de2 .cfa: sp 8 + .ra: .cfa -4 + ^ r7: .cfa -8 + ^
STACK CFI 8de4 .cfa: r7 8 +
STACK CFI INIT 8df6 1c .cfa: sp 0 +
STACK CFI 8df8 .cfa: sp 16 + .ra: .cfa -4 + ^ r7: .cfa -8 + ^ r6: .cfa -12 + ^ r4: .cfa -16 + ^
STACK CFI 8dfa .cfa: r7 8 +
STACK CFI INIT 8e14 dc .cfa: sp 0 +
STACK CFI 8e16 .cfa: sp 20 + .ra: .cfa -4 + ^ r7: .cfa -8 + ^ r6: .cfa -12 + ^ r5: .cfa -16 + ^ r4: .cfa -20 + ^
STACK CFI 8e18 .cfa: r7 8 +
STACK CFI 8e1c r11: .cfa -24 + ^ r9: .cfa -28 + ^ r8: .cfa -32 + ^
STACK CFI INIT 8ef0 18 .cfa: sp 0 +
STACK CFI INIT 8f08 c .cfa: sp 0 +
STACK CFI INIT 8f14 16 .cfa: sp 0 +
STACK CFI 8f16 .cfa: sp 16 + .ra: .cfa -4 + ^ r7: .cfa -8 + ^ r6: .cfa -12 + ^ r4: .cfa -16 + ^
STACK CFI 8f18 .cfa: r7 8 +
STACK CFI INIT 0 20 .cfa: sp 0 +
STACK CFI 2 .cfa: sp 16 + .ra: .cfa -4 + ^ r7: .cfa -8 + ^ r6: .cfa -12 + ^ r4: .cfa -16 + ^
STACK CFI 4 .cfa: r7 8 +
STACK CFI INIT 8f2c 20 .cfa: sp 0 +
STACK CFI 8f2e .cfa: sp 16 + .ra: .cfa -4 + ^ r7: .cfa -8 + ^ r6: .cfa -12 + ^ r4: .cfa -16 + ^
STACK CFI 8f30 .cfa: r7 8 +
STACK CFI INIT 8f4c 28 .cfa: sp 0 +
STACK CFI 8f4e .cfa: sp 16 + .ra: .cfa -4 + ^ r7: .cfa -8 + ^ r5: .cfa -12 + ^ r4: .cfa -16 + ^
STACK CFI 8f50 .cfa: r7 8 +
STACK CFI INIT 8f74 cc .cfa: sp 0 +
STACK CFI 8f76 .cfa: sp 16 + .ra: .cfa -4 + ^ r7: .cfa -8 + ^ r6: .cfa -12 + ^ r4: .cfa -16 + ^
STACK CFI 8f78 .cfa: r7 8 +
STACK CFI INIT 9040 48 .cfa: sp 0 +
STACK CFI 9042 .cfa: sp 16 + .ra: .cfa -4 + ^ r7: .cfa -8 + ^ r5: .cfa -12 + ^ r4: .cfa -16 + ^
STACK CFI 9044 .cfa: r7 8 +
STACK CFI INIT 9088 60 .cfa: sp 0 +
STACK CFI 908a .cfa: sp 16 + .ra: .cfa -4 + ^ r7: .cfa -8 + ^ r6: .cfa -12 + ^ r4: .cfa -16 + ^
STACK CFI 908c .cfa: r7 8 +
STACK CFI INIT 90e8 46 .cfa: sp 0 +
STACK CFI 90ea .cfa: sp 16 + .ra: .cfa -4 + ^ r7: .cfa -8 + ^ r5: .cfa -12 + ^ r4: .cfa -16 + ^
STACK CFI 90ec .cfa: r7 8 +
STACK CFI INIT 912e 10 .cfa: sp 0 +
STACK CFI 9130 .cfa: sp 8 + .ra: .cfa -4 + ^ r7: .cfa -8 + ^
STACK CFI 9132 .cfa: r7 8 +
STACK CFI INIT 913e 10 .cfa: sp 0 +
STACK CFI 9140 .cfa: sp 8 + .ra: .cfa -4 + ^ r7: .cfa -8 + ^
STACK CFI 9142 .cfa: r7 8 +
STACK CFI INIT 914e 8 .cfa: sp 0 +
STACK CFI INIT 9156 10 .cfa: sp 0 +
STACK CFI 9158 .cfa: sp 8 + .ra: .cfa -4 + ^ r7: .cfa -8 + ^
STACK CFI 915a .cfa: r7 8 +
STACK CFI INIT 9166 14 .cfa: sp 0 +
STACK CFI 9168 .cfa: sp 8 + .ra: .cfa -4 + ^ r7: .cfa -8 + ^
STACK CFI 916a .cfa: r7 8 +
STACK CFI INIT 917c 11c .cfa: sp 0 +
STACK CFI 917e .cfa: sp 20 + .ra: .cfa -4 + ^ r7: .cfa -8 + ^ r6: .cfa -12 + ^ r5: .cfa -16 + ^ r4: .cfa -20 + ^
STACK CFI 9180 .cfa: r7 8 +
STACK CFI 9184 r11: .cfa -24 + ^ r10: .cfa -28 + ^ r9: .cfa -32 + ^ r8: .cfa -36 + ^
STACK CFI INIT 92a0 100 .cfa: sp 0 +
STACK CFI 92a2 .cfa: sp 20 + .ra: .cfa -4 + ^ r7: .cfa -8 + ^ r6: .cfa -12 + ^ r5: .cfa -16 + ^ r4: .cfa -20 + ^
STACK CFI 92a4 .cfa: r7 8 +
STACK CFI 92a8 r10: .cfa -24 + ^ r9: .cfa -28 + ^ r8: .cfa -32 + ^
STACK CFI INIT 0 70 .cfa: sp 0 +
STACK CFI 2 .cfa: sp 20 + .ra: .cfa -4 + ^ r7: .cfa -8 + ^ r6: .cfa -12 + ^ r5: .cfa -16 + ^ r4: .cfa -20 + ^
STACK CFI 4 .cfa: r7 8 +
STACK CFI 8 r11: .cfa -24 + ^
STACK CFI INIT 0 18 .cfa: sp 0 +
STACK CFI 2 .cfa: sp 8 + .ra: .cfa -4 + ^ r7: .cfa -8 + ^
STACK CFI 4 .cfa: r7 8 +
STACK CFI INIT 0 e .cfa: sp 0 +
STACK CFI 2 .cfa: sp 8 + .ra: .cfa -4 + ^ r7: .cfa -8 + ^
STACK CFI 4 .cfa: r7 8 +
STACK CFI INIT 93a0 4 .cfa: sp 0 +
STACK CFI INIT 93a4 2 .cfa: sp 0 +
STACK CFI INIT 93a6 2 .cfa: sp 0 +
STACK CFI INIT 93a8 2 .cfa: sp 0 +
STACK CFI INIT 93aa 2 .cfa: sp 0 +
STACK CFI INIT 93ac 2 .cfa: sp 0 +
STACK CFI INIT 93b0 214 .cfa: sp 0 +
STACK CFI 93b2 .cfa: sp 20 + .ra: .cfa -4 + ^ r7: .cfa -8 + ^ r6: .cfa -12 + ^ r5: .cfa -16 + ^ r4: .cfa -20 + ^
STACK CFI 93b4 .cfa: r7 8 +
STACK CFI 93b8 r11: .cfa -24 + ^ r10: .cfa -28 + ^ r9: .cfa -32 + ^ r8: .cfa -36 + ^
STACK CFI INIT 95c4 25c .cfa: sp 0 +
STACK CFI 95c6 .cfa: sp 20 + .ra: .cfa -4 + ^ r7: .cfa -8 + ^ r6: .cfa -12 + ^ r5: .cfa -16 + ^ r4: .cfa -20 + ^
STACK CFI 95c8 .cfa: r7 8 +
STACK CFI 95cc r11: .cfa -24 + ^ r10: .cfa -28 + ^ r9: .cfa -32 + ^ r8: .cfa -36 + ^
STACK CFI INIT 9820 410 .cfa: sp 0 +
STACK CFI 9822 .cfa: sp 20 + .ra: .cfa -4 + ^ r7: .cfa -8 + ^ r6: .cfa -12 + ^ r5: .cfa -16 + ^ r4: .cfa -20 + ^
STACK CFI 9824 .cfa: r7 8 +
STACK CFI 9828 r11: .cfa -24 + ^ r10: .cfa -28 + ^ r9: .cfa -32 + ^ r8: .cfa -36 + ^
STACK CFI INIT 9c30 f8 .cfa: sp 0 +
STACK CFI 9c32 .cfa: sp 20 + .ra: .cfa -4 + ^ r7: .cfa -8 + ^ r6: .cfa -12 + ^ r5: .cfa -16 + ^ r4: .cfa -20 + ^
STACK CFI 9c34 .cfa: r7 8 +
STACK CFI 9c38 r8: .cfa -24 + ^
STACK CFI INIT 9d28 104 .cfa: sp 0 +
STACK CFI 9d2a .cfa: sp 20 + .ra: .cfa -4 + ^ r7: .cfa -8 + ^ r6: .cfa -12 + ^ r5: .cfa -16 + ^ r4: .cfa -20 + ^
STACK CFI 9d2c .cfa: r7 8 +
STACK CFI 9d30 r8: .cfa -24 + ^
STACK CFI INIT 9e2c 2 .cfa: sp 0 +
STACK CFI INIT 9e2e e .cfa: sp 0 +
STACK CFI INIT 9e3c 3f2 .cfa: sp 0 +
STACK CFI 9e3e .cfa: sp 20 + .ra: .cfa -4 + ^ r7: .cfa -8 + ^ r6: .cfa -12 + ^ r5: .cfa -16 + ^ r4: .cfa -20 + ^
STACK CFI 9e40 .cfa: r7 8 +
STACK CFI 9e44 r11: .cfa -24 + ^ r10: .cfa -28 + ^ r9: .cfa -32 + ^ r8: .cfa -36 + ^
