MODULE Linux arm64 D72BE8FAF766CBBBD55D8714EA338D390 kampwski.level_tags.android64.so
INFO CODE_ID FAE82BD766F7BBCBD55D8714EA338D39E05C0462
INFO GENERATOR mozilla/dump_syms 2.3.4
PUBLIC 277c0 0 __on_dlclose
PUBLIC 277d0 0 __emutls_unregister_key
PUBLIC 277d8 0 __on_dlclose_late
PUBLIC 277e0 0 __atexit_handler_wrapper
PUBLIC 277f4 0 atexit
PUBLIC 27810 0 pthread_atfork
PUBLIC 27820 0 unwind_phase2
PUBLIC 27954 0 _Unwind_Resume
PUBLIC 279d8 0 unwind_phase2_forced
PUBLIC m 27acc 0 __unw_init_local
PUBLIC m 27b74 0 __unw_get_reg
PUBLIC 27bf0 0 __unw_step_stage2
PUBLIC m 27c04 0 __unw_get_proc_info
PUBLIC m 27c44 0 __unw_resume
PUBLIC 27c6c 0 libunwind::CFI_Parser<libunwind::LocalAddressSpace>::decodeFDE(libunwind::LocalAddressSpace&, unsigned long, libunwind::CFI_Parser<libunwind::LocalAddressSpace>::FDE_Info*, libunwind::CFI_Parser<libunwind::LocalAddressSpace>::CIE_Info*, bool)
PUBLIC 27dfc 0 libunwind::CFI_Parser<libunwind::LocalAddressSpace>::parseCIE(libunwind::LocalAddressSpace&, unsigned long, libunwind::CFI_Parser<libunwind::LocalAddressSpace>::CIE_Info*)
PUBLIC 280c4 0 libunwind::AbstractUnwindCursor::~AbstractUnwindCursor()
PUBLIC 280cc 0 libunwind::UnwindCursor<libunwind::LocalAddressSpace, libunwind::Registers_arm64>::~UnwindCursor()
PUBLIC 280d4 0 libunwind::UnwindCursor<libunwind::LocalAddressSpace, libunwind::Registers_arm64>::validReg(int)
PUBLIC 28118 0 libunwind::UnwindCursor<libunwind::LocalAddressSpace, libunwind::Registers_arm64>::getReg(int)
PUBLIC 28200 0 libunwind::UnwindCursor<libunwind::LocalAddressSpace, libunwind::Registers_arm64>::setReg(int, unsigned long)
PUBLIC 282e8 0 libunwind::UnwindCursor<libunwind::LocalAddressSpace, libunwind::Registers_arm64>::validFloatReg(int)
PUBLIC 282fc 0 libunwind::UnwindCursor<libunwind::LocalAddressSpace, libunwind::Registers_arm64>::getFloatReg(int)
PUBLIC 2830c 0 libunwind::UnwindCursor<libunwind::LocalAddressSpace, libunwind::Registers_arm64>::setFloatReg(int, double)
PUBLIC 2831c 0 libunwind::UnwindCursor<libunwind::LocalAddressSpace, libunwind::Registers_arm64>::step(bool)
PUBLIC 2840c 0 libunwind::UnwindCursor<libunwind::LocalAddressSpace, libunwind::Registers_arm64>::getInfo(unw_proc_info_t*)
PUBLIC 28450 0 libunwind::UnwindCursor<libunwind::LocalAddressSpace, libunwind::Registers_arm64>::jumpto()
PUBLIC 2845c 0 libunwind::UnwindCursor<libunwind::LocalAddressSpace, libunwind::Registers_arm64>::isSignalFrame()
PUBLIC 28468 0 libunwind::UnwindCursor<libunwind::LocalAddressSpace, libunwind::Registers_arm64>::getFunctionName(char*, unsigned long, unsigned long*)
PUBLIC 28494 0 libunwind::UnwindCursor<libunwind::LocalAddressSpace, libunwind::Registers_arm64>::setInfoBasedOnIPRegister(bool)
PUBLIC 28714 0 libunwind::UnwindCursor<libunwind::LocalAddressSpace, libunwind::Registers_arm64>::getRegisterName(int)
PUBLIC 28720 0 libunwind::UnwindCursor<libunwind::LocalAddressSpace, libunwind::Registers_arm64>::stepThroughSigReturn(libunwind::Registers_arm64&)
PUBLIC 28840 0 libunwind::DwarfInstructions<libunwind::LocalAddressSpace, libunwind::Registers_arm64>::stepWithDwarf(libunwind::LocalAddressSpace&, unsigned long, unsigned long, libunwind::Registers_arm64&, bool&, bool)
PUBLIC 28cc8 0 libunwind::CFI_Parser<libunwind::LocalAddressSpace>::parseFDEInstructions(libunwind::LocalAddressSpace&, libunwind::CFI_Parser<libunwind::LocalAddressSpace>::FDE_Info const&, libunwind::CFI_Parser<libunwind::LocalAddressSpace>::CIE_Info const&, unsigned long, int, libunwind::CFI_Parser<libunwind::LocalAddressSpace>::PrologInfo*)
PUBLIC 29910 0 libunwind::DwarfInstructions<libunwind::LocalAddressSpace, libunwind::Registers_arm64>::getCFA(libunwind::LocalAddressSpace&, libunwind::CFI_Parser<libunwind::LocalAddressSpace>::PrologInfo const&, libunwind::Registers_arm64 const&)
PUBLIC 29a44 0 libunwind::DwarfInstructions<libunwind::LocalAddressSpace, libunwind::Registers_arm64>::getSavedRegister(libunwind::LocalAddressSpace&, libunwind::Registers_arm64 const&, unsigned long, libunwind::CFI_Parser<libunwind::LocalAddressSpace>::RegisterLocation const&)
PUBLIC 29c54 0 libunwind::LocalAddressSpace::getEncodedP(unsigned long&, unsigned long, unsigned char, unsigned long)
PUBLIC 29fe0 0 libunwind::LocalAddressSpace::getULEB128(unsigned long&, unsigned long)
PUBLIC 2a1a8 0 libunwind::DwarfInstructions<libunwind::LocalAddressSpace, libunwind::Registers_arm64>::evaluateExpression(unsigned long, libunwind::LocalAddressSpace&, libunwind::Registers_arm64 const&, unsigned long)
PUBLIC 2ab64 0 libunwind::UnwindCursor<libunwind::LocalAddressSpace, libunwind::Registers_arm64>::getInfoFromDwarfSection(unsigned long, libunwind::UnwindInfoSections const&, unsigned int)
PUBLIC 2ae38 0 libunwind::findUnwindSectionsByPhdr(dl_phdr_info*, unsigned long, void*)
PUBLIC 2af6c 0 libunwind::EHHeaderParser<libunwind::LocalAddressSpace>::decodeEHHdr(libunwind::LocalAddressSpace&, unsigned long, unsigned long, libunwind::EHHeaderParser<libunwind::LocalAddressSpace>::EHHeaderInfo&)
PUBLIC 2b08c 0 libunwind::CFI_Parser<libunwind::LocalAddressSpace>::findFDE(libunwind::LocalAddressSpace&, unsigned long, unsigned long, unsigned long, unsigned long, libunwind::CFI_Parser<libunwind::LocalAddressSpace>::FDE_Info*, libunwind::CFI_Parser<libunwind::LocalAddressSpace>::CIE_Info*)
PUBLIC 2b254 0 libunwind::EHHeaderParser<libunwind::LocalAddressSpace>::findFDE(libunwind::LocalAddressSpace&, unsigned long, unsigned long, unsigned int, libunwind::CFI_Parser<libunwind::LocalAddressSpace>::FDE_Info*, libunwind::CFI_Parser<libunwind::LocalAddressSpace>::CIE_Info*)
PUBLIC 2b3bc 0 libunwind::EHHeaderParser<libunwind::LocalAddressSpace>::getTableEntrySize(unsigned char)
PUBLIC 2b4b8 0 libunwind::Registers_arm64::getRegisterName(int)
PUBLIC 2b4e8 0 __libunwind_Registers_arm64_jumpto
PUBLIC m 2b578 0 __unw_getcontext
PUBLIC 2b620 0 __aarch64_ldadd8_relax
PUBLIC 2b650 0 init_have_lse_atomics
PUBLIC 2b6e8 0 __init_cpu_features_constructor
PUBLIC 2bc84 0 __init_cpu_features
PUBLIC 2bd10 0 __aarch64_ldadd8_acq_rel
PUBLIC 2bd40 0 __cxx_global_var_init
PUBLIC 2bdcc 0 __cxx_global_var_init.1
PUBLIC 2be58 0 BetaSearch::setup(std::__ndk1::basic_string<char, std::__ndk1::char_traits<char>, std::__ndk1::allocator<char> >)
PUBLIC 2d4e8 0 BetaSearch::tagMenuChange(cocos2d::CCObject*)
PUBLIC 2d65c 0 BetaSearch::info(cocos2d::CCObject*)
PUBLIC 2d8c0 0 BetaSearch::sortPageDown(cocos2d::CCObject*)
PUBLIC 2d934 0 BetaSearch::sortPageUp(cocos2d::CCObject*)
PUBLIC 2d9a4 0 BetaSearch::search(cocos2d::CCObject*)
PUBLIC 2dbf0 0 BetaSearch::makeVisible(cocos2d::CCObject*)
PUBLIC 2dc04 0 BetaSearch::menuChange(cocos2d::CCObject*)
PUBLIC 2dcfc 0 BetaSearch::category(cocos2d::CCObject*)
PUBLIC 2dddc 0 BetaSearch::createMenu(std::__ndk1::basic_string<char, std::__ndk1::char_traits<char>, std::__ndk1::allocator<char> >)
PUBLIC 2e040 0 geode::Task<geode::utils::web::WebResponse, geode::utils::web::WebProgress>::~Task()
PUBLIC 2e090 0 BetaSearch::btn(cocos2d::CCObject*)
PUBLIC 2e5b4 0 std::__ndk1::remove[abi:ne180000]<std::__ndk1::__wrap_iter<std::__ndk1::basic_string<char, std::__ndk1::char_traits<char>, std::__ndk1::allocator<char> >*>, std::__ndk1::allocator<char> >(std::__ndk1::__wrap_iter<std::__ndk1::basic_string<char, std::__ndk1::char_traits<char>, std::__ndk1::allocator<char> >*>, std::__ndk1::__wrap_iter<std::__ndk1::basic_string<char, std::__ndk1::char_traits<char>, std::__ndk1::allocator<char> >*>, std::__ndk1::allocator<char> const&)
PUBLIC 2e77c 0 BetaSearch::addTagsList(int, std::__ndk1::vector<std::__ndk1::basic_string<char, std::__ndk1::char_traits<char>, std::__ndk1::allocator<char> >, std::__ndk1::allocator<std::__ndk1::basic_string<char, std::__ndk1::char_traits<char>, std::__ndk1::allocator<char> > > >)
PUBLIC 2e9f4 0 BetaSearch::create(std::__ndk1::basic_string<char, std::__ndk1::char_traits<char>, std::__ndk1::allocator<char> >)
PUBLIC 2eb90 0 BetaSearch::BetaSearch()
PUBLIC 2ed34 0 cocos2d::CCCopying::copyWithZone(cocos2d::CCZone*)
PUBLIC 2ed3c 0 BetaSearch::~BetaSearch()
PUBLIC 2ef18 0 BetaSearch::~BetaSearch()
PUBLIC 2ef3c 0 geode::Popup<std::__ndk1::basic_string<char, std::__ndk1::char_traits<char>, std::__ndk1::allocator<char> > >::registerWithTouchDispatcher()
PUBLIC 2ef68 0 geode::Popup<std::__ndk1::basic_string<char, std::__ndk1::char_traits<char>, std::__ndk1::allocator<char> > >::keyDown(cocos2d::enumKeyCodes)
PUBLIC 2ef90 0 cocos2d::CCLayerRGBA::setOpacityModifyRGB(bool)
PUBLIC 2ef94 0 cocos2d::CCLayerRGBA::isOpacityModifyRGB()
PUBLIC 2ef9c 0 geode::Popup<std::__ndk1::basic_string<char, std::__ndk1::char_traits<char>, std::__ndk1::allocator<char> > >::onClose(cocos2d::CCObject*)
PUBLIC 2f0e4 0 {virtual override thunk({offset(-320)}, BetaSearch::~BetaSearch())}
PUBLIC 2f0ec 0 {virtual override thunk({offset(-320)}, BetaSearch::~BetaSearch())}
PUBLIC 2f114 0 {virtual override thunk({offset(-344)}, geode::Popup<std::__ndk1::basic_string<char, std::__ndk1::char_traits<char>, std::__ndk1::allocator<char> > >::keyDown(cocos2d::enumKeyCodes))}
PUBLIC 2f140 0 cocos2d::CCKeyboardDelegate::keyUp(cocos2d::enumKeyCodes)
PUBLIC 2f144 0 cocos2d::CCMouseDelegate::rightKeyDown()
PUBLIC 2f148 0 cocos2d::CCMouseDelegate::rightKeyUp()
PUBLIC 2f14c 0 cocos2d::CCMouseDelegate::scrollWheel(float, float)
PUBLIC 2f150 0 {virtual override thunk({offset(-408)}, cocos2d::CCLayerRGBA::setOpacityModifyRGB(bool))}
PUBLIC 2f154 0 {virtual override thunk({offset(-408)}, cocos2d::CCLayerRGBA::isOpacityModifyRGB())}
PUBLIC 2f15c 0 std::__ndk1::basic_string<char, std::__ndk1::char_traits<char>, std::__ndk1::allocator<char> >::__throw_length_error[abi:ne180000]() const
PUBLIC 2f170 0 std::__ndk1::__throw_length_error[abi:ne180000](char const*)
PUBLIC 2f1c0 0 std::length_error::length_error[abi:ne180000](char const*)
PUBLIC 2f1f0 0 std::__throw_bad_array_new_length([abi:ne180000], void)
PUBLIC 2f224 0 __clang_call_terminate
PUBLIC 2f234 0 std::__ndk1::__throw_bad_variant_access[abi:ne180000]()
PUBLIC 2f268 0 std::__ndk1::__variant_detail::__visitation::__base::__dispatcher<(unsigned long)0>::__dispatch[abi:ne180000]<std::__ndk1::__variant_detail::__dtor<std::__ndk1::__variant_detail::__traits<matjson::Value, std::__ndk1::__variant_detail::__traits::ParseError>, (std::__ndk1::__variant_detail::_Trait)1>::__destroy[abi:ne180000]()::{lambda(auto:1&)#1}, std::__ndk1::__variant_detail::__base<(std::__ndk1::__variant_detail::__traits<matjson::Value, std::__ndk1::__variant_detail::__traits::ParseError>)1, matjson, matjson::Value>&>(std::__ndk1::__variant_detail::__dtor<std::__ndk1::__variant_detail::__traits<matjson::Value, std::__ndk1::__variant_detail::__traits::ParseError>, (std::__ndk1::__variant_detail::_Trait)1>, std::__ndk1::__variant_detail::__base<(std::__ndk1::__variant_detail::__traits<matjson::Value, std::__ndk1::__variant_detail::__traits::ParseError>)1, matjson, matjson::Value>&)
PUBLIC 2f270 0 std::__ndk1::__variant_detail::__visitation::__base::__dispatcher<(unsigned long)1>::__dispatch[abi:ne180000]<std::__ndk1::__variant_detail::__dtor<std::__ndk1::__variant_detail::__traits<matjson::Value, std::__ndk1::__variant_detail::__traits::ParseError>, (std::__ndk1::__variant_detail::_Trait)1>::__destroy[abi:ne180000]()::{lambda(auto:1&)#1}, std::__ndk1::__variant_detail::__base<(std::__ndk1::__variant_detail::__traits<matjson::Value, std::__ndk1::__variant_detail::__traits::ParseError>)1, matjson, matjson::Value>&>(std::__ndk1::__variant_detail::__dtor<std::__ndk1::__variant_detail::__traits<matjson::Value, std::__ndk1::__variant_detail::__traits::ParseError>, (std::__ndk1::__variant_detail::_Trait)1>, std::__ndk1::__variant_detail::__base<(std::__ndk1::__variant_detail::__traits<matjson::Value, std::__ndk1::__variant_detail::__traits::ParseError>)1, matjson, matjson::Value>&)
PUBLIC 2f284 0 std::__ndk1::basic_string<char, std::__ndk1::char_traits<char>, std::__ndk1::allocator<char> >::__init_copy_ctor_external(char const*, unsigned long)
PUBLIC 2f304 0 std::__ndk1::vector<std::__ndk1::basic_string<char, std::__ndk1::char_traits<char>, std::__ndk1::allocator<char> >, std::__ndk1::allocator<std::__ndk1::basic_string<char, std::__ndk1::char_traits<char>, std::__ndk1::allocator<char> > > >::__push_back_slow_path<std::__ndk1::basic_string<char, std::__ndk1::char_traits<char>, std::__ndk1::allocator<char> > const&>(std::__ndk1::basic_string<char, std::__ndk1::char_traits<char>, std::__ndk1::allocator<char> > const&)
PUBLIC 2f52c 0 std::__ndk1::__split_buffer<std::__ndk1::basic_string<char, std::__ndk1::char_traits<char>, std::__ndk1::allocator<char> >, std::__ndk1::allocator<std::__ndk1::basic_string<char, std::__ndk1::char_traits<char>, std::__ndk1::allocator<char> > >&>::~__split_buffer()
PUBLIC 2f594 0 std::__ndk1::vector<std::__ndk1::basic_string<char, std::__ndk1::char_traits<char>, std::__ndk1::allocator<char> >, std::__ndk1::allocator<std::__ndk1::basic_string<char, std::__ndk1::char_traits<char>, std::__ndk1::allocator<char> > > >::__throw_length_error[abi:ne180000]() const
PUBLIC 2f5a8 0 geode::Popup<std::__ndk1::basic_string<char, std::__ndk1::char_traits<char>, std::__ndk1::allocator<char> > >::~Popup()
PUBLIC 2f614 0 geode::Popup<std::__ndk1::basic_string<char, std::__ndk1::char_traits<char>, std::__ndk1::allocator<char> > >::~Popup()
PUBLIC 2f618 0 {virtual override thunk({offset(-320)}, geode::Popup<std::__ndk1::basic_string<char, std::__ndk1::char_traits<char>, std::__ndk1::allocator<char> > >::~Popup())}
PUBLIC 2f684 0 {virtual override thunk({offset(-320)}, geode::Popup<std::__ndk1::basic_string<char, std::__ndk1::char_traits<char>, std::__ndk1::allocator<char> > >::~Popup())}
PUBLIC 2f688 0 geode::Task<geode::utils::web::WebResponse, geode::utils::web::WebProgress>::setListener(geode::EventListenerProtocol*)
PUBLIC 2f8a4 0 geode::EventListener<geode::Task<geode::utils::web::WebResponse, geode::utils::web::WebProgress> >::getPool() const
PUBLIC 2f8a8 0 geode::EventListener<geode::Task<geode::utils::web::WebResponse, geode::utils::web::WebProgress> >::handle(geode::Event*)
PUBLIC 2fa74 0 geode::EventListener<geode::Task<geode::utils::web::WebResponse, geode::utils::web::WebProgress> >::~EventListener()
PUBLIC 2fb10 0 geode::EventListener<geode::Task<geode::utils::web::WebResponse, geode::utils::web::WebProgress> >::~EventListener()
PUBLIC 2fbb4 0 geode::Task<geode::utils::web::WebResponse, geode::utils::web::WebProgress>::setListener(geode::EventListenerProtocol*)::{lambda()#1}::~{lambda()#1}()
PUBLIC 2fc04 0 geode::Task<geode::utils::web::WebResponse, geode::utils::web::WebProgress>::setListener(geode::EventListenerProtocol*)::{lambda()#2}::~{lambda()#2}()
PUBLIC 2fc54 0 std::__ndk1::__function::__func<geode::Task<geode::utils::web::WebResponse, geode::utils::web::WebProgress>::setListener(geode::EventListenerProtocol*)::{lambda()#1}, std::__ndk1::allocator<geode::Task<geode::utils::web::WebResponse, geode::utils::web::WebProgress>::setListener(geode::EventListenerProtocol*)::{lambda()#1}>, void ()>::~__func()
PUBLIC 2fcb0 0 std::__ndk1::__function::__func<geode::Task<geode::utils::web::WebResponse, geode::utils::web::WebProgress>::setListener(geode::EventListenerProtocol*)::{lambda()#1}, std::__ndk1::allocator<geode::Task<geode::utils::web::WebResponse, geode::utils::web::WebProgress>::setListener(geode::EventListenerProtocol*)::{lambda()#1}>, void ()>::~__func()
PUBLIC 2fd1c 0 std::__ndk1::__function::__func<geode::Task<geode::utils::web::WebResponse, geode::utils::web::WebProgress>::setListener(geode::EventListenerProtocol*)::{lambda()#1}, std::__ndk1::allocator<geode::Task<geode::utils::web::WebResponse, geode::utils::web::WebProgress>::setListener(geode::EventListenerProtocol*)::{lambda()#1}>, void ()>::__clone() const
PUBLIC 2fd74 0 std::__ndk1::__function::__func<geode::Task<geode::utils::web::WebResponse, geode::utils::web::WebProgress>::setListener(geode::EventListenerProtocol*)::{lambda()#1}, std::__ndk1::allocator<geode::Task<geode::utils::web::WebResponse, geode::utils::web::WebProgress>::setListener(geode::EventListenerProtocol*)::{lambda()#1}>, void ()>::__clone(std::__ndk1::__function::__base<void ()>*) const
PUBLIC 2fdc0 0 std::__ndk1::__function::__func<geode::Task<geode::utils::web::WebResponse, geode::utils::web::WebProgress>::setListener(geode::EventListenerProtocol*)::{lambda()#1}, std::__ndk1::allocator<geode::Task<geode::utils::web::WebResponse, geode::utils::web::WebProgress>::setListener(geode::EventListenerProtocol*)::{lambda()#1}>, void ()>::destroy()
PUBLIC 2fe10 0 std::__ndk1::__function::__func<geode::Task<geode::utils::web::WebResponse, geode::utils::web::WebProgress>::setListener(geode::EventListenerProtocol*)::{lambda()#1}, std::__ndk1::allocator<geode::Task<geode::utils::web::WebResponse, geode::utils::web::WebProgress>::setListener(geode::EventListenerProtocol*)::{lambda()#1}>, void ()>::destroy_deallocate()
PUBLIC 2fe70 0 std::__ndk1::__function::__func<geode::Task<geode::utils::web::WebResponse, geode::utils::web::WebProgress>::setListener(geode::EventListenerProtocol*)::{lambda()#1}, std::__ndk1::allocator<geode::Task<geode::utils::web::WebResponse, geode::utils::web::WebProgress>::setListener(geode::EventListenerProtocol*)::{lambda()#1}>, void ()>::operator()()
PUBLIC 2fe78 0 std::__ndk1::__function::__func<geode::Task<geode::utils::web::WebResponse, geode::utils::web::WebProgress>::setListener(geode::EventListenerProtocol*)::{lambda()#1}, std::__ndk1::allocator<geode::Task<geode::utils::web::WebResponse, geode::utils::web::WebProgress>::setListener(geode::EventListenerProtocol*)::{lambda()#1}>, void ()>::target(std::type_info const&) const
PUBLIC 2fe94 0 std::__ndk1::__function::__func<geode::Task<geode::utils::web::WebResponse, geode::utils::web::WebProgress>::setListener(geode::EventListenerProtocol*)::{lambda()#1}, std::__ndk1::allocator<geode::Task<geode::utils::web::WebResponse, geode::utils::web::WebProgress>::setListener(geode::EventListenerProtocol*)::{lambda()#1}>, void ()>::target_type() const
PUBLIC 2fea0 0 geode::Task<geode::utils::web::WebResponse, geode::utils::web::WebProgress>::setListener(geode::EventListenerProtocol*)::{lambda()#1}::operator()() const
PUBLIC 30070 0 geode::Task<geode::utils::web::WebResponse, geode::utils::web::WebProgress>::Event::~Event()
PUBLIC 300d0 0 geode::Task<geode::utils::web::WebResponse, geode::utils::web::WebProgress>::Event::~Event()
PUBLIC 30140 0 std::__ndk1::__function::__func<geode::Task<geode::utils::web::WebResponse, geode::utils::web::WebProgress>::setListener(geode::EventListenerProtocol*)::{lambda()#2}, std::__ndk1::allocator<geode::Task<geode::utils::web::WebResponse, geode::utils::web::WebProgress>::setListener(geode::EventListenerProtocol*)::{lambda()#2}>, void ()>::~__func()
PUBLIC 3019c 0 std::__ndk1::__function::__func<geode::Task<geode::utils::web::WebResponse, geode::utils::web::WebProgress>::setListener(geode::EventListenerProtocol*)::{lambda()#2}, std::__ndk1::allocator<geode::Task<geode::utils::web::WebResponse, geode::utils::web::WebProgress>::setListener(geode::EventListenerProtocol*)::{lambda()#2}>, void ()>::~__func()
PUBLIC 30208 0 std::__ndk1::__function::__func<geode::Task<geode::utils::web::WebResponse, geode::utils::web::WebProgress>::setListener(geode::EventListenerProtocol*)::{lambda()#2}, std::__ndk1::allocator<geode::Task<geode::utils::web::WebResponse, geode::utils::web::WebProgress>::setListener(geode::EventListenerProtocol*)::{lambda()#2}>, void ()>::__clone() const
PUBLIC 30260 0 std::__ndk1::__function::__func<geode::Task<geode::utils::web::WebResponse, geode::utils::web::WebProgress>::setListener(geode::EventListenerProtocol*)::{lambda()#2}, std::__ndk1::allocator<geode::Task<geode::utils::web::WebResponse, geode::utils::web::WebProgress>::setListener(geode::EventListenerProtocol*)::{lambda()#2}>, void ()>::__clone(std::__ndk1::__function::__base<void ()>*) const
PUBLIC 302ac 0 std::__ndk1::__function::__func<geode::Task<geode::utils::web::WebResponse, geode::utils::web::WebProgress>::setListener(geode::EventListenerProtocol*)::{lambda()#2}, std::__ndk1::allocator<geode::Task<geode::utils::web::WebResponse, geode::utils::web::WebProgress>::setListener(geode::EventListenerProtocol*)::{lambda()#2}>, void ()>::destroy()
PUBLIC 302fc 0 std::__ndk1::__function::__func<geode::Task<geode::utils::web::WebResponse, geode::utils::web::WebProgress>::setListener(geode::EventListenerProtocol*)::{lambda()#2}, std::__ndk1::allocator<geode::Task<geode::utils::web::WebResponse, geode::utils::web::WebProgress>::setListener(geode::EventListenerProtocol*)::{lambda()#2}>, void ()>::destroy_deallocate()
PUBLIC 3035c 0 std::__ndk1::__function::__func<geode::Task<geode::utils::web::WebResponse, geode::utils::web::WebProgress>::setListener(geode::EventListenerProtocol*)::{lambda()#2}, std::__ndk1::allocator<geode::Task<geode::utils::web::WebResponse, geode::utils::web::WebProgress>::setListener(geode::EventListenerProtocol*)::{lambda()#2}>, void ()>::operator()()
PUBLIC 30364 0 std::__ndk1::__function::__func<geode::Task<geode::utils::web::WebResponse, geode::utils::web::WebProgress>::setListener(geode::EventListenerProtocol*)::{lambda()#2}, std::__ndk1::allocator<geode::Task<geode::utils::web::WebResponse, geode::utils::web::WebProgress>::setListener(geode::EventListenerProtocol*)::{lambda()#2}>, void ()>::target(std::type_info const&) const
PUBLIC 30380 0 std::__ndk1::__function::__func<geode::Task<geode::utils::web::WebResponse, geode::utils::web::WebProgress>::setListener(geode::EventListenerProtocol*)::{lambda()#2}, std::__ndk1::allocator<geode::Task<geode::utils::web::WebResponse, geode::utils::web::WebProgress>::setListener(geode::EventListenerProtocol*)::{lambda()#2}>, void ()>::target_type() const
PUBLIC 3038c 0 geode::Task<geode::utils::web::WebResponse, geode::utils::web::WebProgress>::setListener(geode::EventListenerProtocol*)::{lambda()#2}::operator()() const
PUBLIC 30550 0 geode::cast::traverseTypeinfoFor(void*, geode::cast::ClassTypeinfoType const*, char const*)
PUBLIC 30654 0 std::__ndk1::__throw_bad_function_call[abi:ne180000]()
PUBLIC 30688 0 std::__ndk1::bad_function_call::~bad_function_call()
PUBLIC 306ac 0 std::__ndk1::vector<std::__ndk1::basic_string<char, std::__ndk1::char_traits<char>, std::__ndk1::allocator<char> >, std::__ndk1::allocator<std::__ndk1::basic_string<char, std::__ndk1::char_traits<char>, std::__ndk1::allocator<char> > > >::~vector[abi:ne180000]()
PUBLIC 30728 0 std::__ndk1::__function::__value_func<void (geode::Task<geode::utils::web::WebResponse, geode::utils::web::WebProgress>::Event*)>::swap[abi:ne180000](std::__ndk1::__function::__value_func<void (geode::Task<geode::utils::web::WebResponse, geode::utils::web::WebProgress>::Event*)>&)
PUBLIC 308c0 0 std::__ndk1::__function::__func<BetaSearch::setup(std::__ndk1::basic_string<char, std::__ndk1::char_traits<char>, std::__ndk1::allocator<char> >)::$_0, std::__ndk1::allocator<BetaSearch::setup(std::__ndk1::basic_string<char, std::__ndk1::char_traits<char>, std::__ndk1::allocator<char> >)::$_0>, void (geode::Task<geode::utils::web::WebResponse, geode::utils::web::WebProgress>::Event*)>::~__func()
PUBLIC 308c4 0 std::__ndk1::__function::__func<BetaSearch::setup(std::__ndk1::basic_string<char, std::__ndk1::char_traits<char>, std::__ndk1::allocator<char> >)::$_0, std::__ndk1::allocator<BetaSearch::setup(std::__ndk1::basic_string<char, std::__ndk1::char_traits<char>, std::__ndk1::allocator<char> >)::$_0>, void (geode::Task<geode::utils::web::WebResponse, geode::utils::web::WebProgress>::Event*)>::__clone() const
PUBLIC 308fc 0 std::__ndk1::__function::__func<BetaSearch::setup(std::__ndk1::basic_string<char, std::__ndk1::char_traits<char>, std::__ndk1::allocator<char> >)::$_0, std::__ndk1::allocator<BetaSearch::setup(std::__ndk1::basic_string<char, std::__ndk1::char_traits<char>, std::__ndk1::allocator<char> >)::$_0>, void (geode::Task<geode::utils::web::WebResponse, geode::utils::web::WebProgress>::Event*)>::__clone(std::__ndk1::__function::__base<void (geode::Task<geode::utils::web::WebResponse, geode::utils::web::WebProgress>::Event*)>*) const
PUBLIC 30914 0 std::__ndk1::__function::__func<BetaSearch::setup(std::__ndk1::basic_string<char, std::__ndk1::char_traits<char>, std::__ndk1::allocator<char> >)::$_0, std::__ndk1::allocator<BetaSearch::setup(std::__ndk1::basic_string<char, std::__ndk1::char_traits<char>, std::__ndk1::allocator<char> >)::$_0>, void (geode::Task<geode::utils::web::WebResponse, geode::utils::web::WebProgress>::Event*)>::destroy()
PUBLIC 30918 0 std::__ndk1::__function::__func<BetaSearch::setup(std::__ndk1::basic_string<char, std::__ndk1::char_traits<char>, std::__ndk1::allocator<char> >)::$_0, std::__ndk1::allocator<BetaSearch::setup(std::__ndk1::basic_string<char, std::__ndk1::char_traits<char>, std::__ndk1::allocator<char> >)::$_0>, void (geode::Task<geode::utils::web::WebResponse, geode::utils::web::WebProgress>::Event*)>::destroy_deallocate()
PUBLIC 3091c 0 std::__ndk1::__function::__func<BetaSearch::setup(std::__ndk1::basic_string<char, std::__ndk1::char_traits<char>, std::__ndk1::allocator<char> >)::$_0, std::__ndk1::allocator<BetaSearch::setup(std::__ndk1::basic_string<char, std::__ndk1::char_traits<char>, std::__ndk1::allocator<char> >)::$_0>, void (geode::Task<geode::utils::web::WebResponse, geode::utils::web::WebProgress>::Event*)>::operator()(geode::Task<geode::utils::web::WebResponse, geode::utils::web::WebProgress>::Event*&&)
PUBLIC 3118c 0 std::__ndk1::__function::__func<BetaSearch::setup(std::__ndk1::basic_string<char, std::__ndk1::char_traits<char>, std::__ndk1::allocator<char> >)::$_0, std::__ndk1::allocator<BetaSearch::setup(std::__ndk1::basic_string<char, std::__ndk1::char_traits<char>, std::__ndk1::allocator<char> >)::$_0>, void (geode::Task<geode::utils::web::WebResponse, geode::utils::web::WebProgress>::Event*)>::target(std::type_info const&) const
PUBLIC 311a8 0 std::__ndk1::__function::__func<BetaSearch::setup(std::__ndk1::basic_string<char, std::__ndk1::char_traits<char>, std::__ndk1::allocator<char> >)::$_0, std::__ndk1::allocator<BetaSearch::setup(std::__ndk1::basic_string<char, std::__ndk1::char_traits<char>, std::__ndk1::allocator<char> >)::$_0>, void (geode::Task<geode::utils::web::WebResponse, geode::utils::web::WebProgress>::Event*)>::target_type() const
PUBLIC 311b4 0 geode::impl::ResultData<std::__ndk1::basic_string<char, std::__ndk1::char_traits<char>, std::__ndk1::allocator<char> >, std::__ndk1::basic_string<char, std::__ndk1::char_traits<char>, std::__ndk1::allocator<char> > >::~ResultData()
PUBLIC 31228 0 geode::impl::ResultData<std::__ndk1::vector<std::__ndk1::basic_string<char, std::__ndk1::char_traits<char>, std::__ndk1::allocator<char> >, std::__ndk1::allocator<std::__ndk1::basic_string<char, std::__ndk1::char_traits<char>, std::__ndk1::allocator<char> > > >, std::__ndk1::basic_string<char, std::__ndk1::char_traits<char>, std::__ndk1::allocator<char> > >::unwrap() &&
PUBLIC 312a0 0 geode::impl::ResultData<std::__ndk1::vector<std::__ndk1::basic_string<char, std::__ndk1::char_traits<char>, std::__ndk1::allocator<char> >, std::__ndk1::allocator<std::__ndk1::basic_string<char, std::__ndk1::char_traits<char>, std::__ndk1::allocator<char> > > >, std::__ndk1::basic_string<char, std::__ndk1::char_traits<char>, std::__ndk1::allocator<char> > >::~ResultData()
PUBLIC 31314 0 std::__ndk1::unordered_set<std::__ndk1::basic_string<char, std::__ndk1::char_traits<char>, std::__ndk1::allocator<char> >, std::__ndk1::hash<std::__ndk1::basic_string<char, std::__ndk1::char_traits<char>, std::__ndk1::allocator<char> > >, std::__ndk1::equal_to<std::__ndk1::basic_string<char, std::__ndk1::char_traits<char>, std::__ndk1::allocator<char> > >, std::__ndk1::allocator<std::__ndk1::basic_string<char, std::__ndk1::char_traits<char>, std::__ndk1::allocator<char> > > >::unordered_set<std::__ndk1::__wrap_iter<std::__ndk1::basic_string<char, std::__ndk1::char_traits<char>, std::__ndk1::allocator<char> >*> >(std::__ndk1::__wrap_iter<std::__ndk1::basic_string<char, std::__ndk1::char_traits<char>, std::__ndk1::allocator<char> >*>)
PUBLIC 31388 0 std::__ndk1::unordered_set<std::__ndk1::basic_string<char, std::__ndk1::char_traits<char>, std::__ndk1::allocator<char> >, std::__ndk1::hash<std::__ndk1::basic_string<char, std::__ndk1::char_traits<char>, std::__ndk1::allocator<char> > >, std::__ndk1::equal_to<std::__ndk1::basic_string<char, std::__ndk1::char_traits<char>, std::__ndk1::allocator<char> > >, std::__ndk1::allocator<std::__ndk1::basic_string<char, std::__ndk1::char_traits<char>, std::__ndk1::allocator<char> > > >::~unordered_set[abi:ne180000]()
PUBLIC 313f8 0 std::__ndk1::__variant_detail::__visitation::__base::__dispatcher<(unsigned long)0>::__dispatch[abi:ne180000]<std::__ndk1::__variant_detail::__dtor<std::__ndk1::__variant_detail::__traits<std::__ndk1::basic_string<char, std::__ndk1::char_traits<char>, std::__ndk1::allocator<char> >, std::__ndk1::allocator<char> >, (std::__ndk1::__variant_detail::_Trait)1>::__destroy[abi:ne180000]()::{lambda(auto:1&)#1}, std::__ndk1::__variant_detail::__base<(std::__ndk1::__variant_detail::__traits<std::__ndk1::basic_string<char, std::__ndk1::char_traits<char>, std::__ndk1::allocator<char> >, std::__ndk1::allocator<char> >)1, std::__ndk1::allocator<char>, std::__ndk1::allocator<char> >&>(std::__ndk1::__variant_detail::__dtor<std::__ndk1::__variant_detail::__traits<std::__ndk1::basic_string<char, std::__ndk1::char_traits<char>, std::__ndk1::allocator<char> >, std::__ndk1::allocator<char> >, (std::__ndk1::__variant_detail::_Trait)1>, std::__ndk1::__variant_detail::__base<(std::__ndk1::__variant_detail::__traits<std::__ndk1::basic_string<char, std::__ndk1::char_traits<char>, std::__ndk1::allocator<char> >, std::__ndk1::allocator<char> >)1, std::__ndk1::allocator<char>, std::__ndk1::allocator<char> >&)
PUBLIC 3140c 0 std::__ndk1::__variant_detail::__visitation::__base::__dispatcher<(unsigned long)1>::__dispatch[abi:ne180000]<std::__ndk1::__variant_detail::__dtor<std::__ndk1::__variant_detail::__traits<std::__ndk1::basic_string<char, std::__ndk1::char_traits<char>, std::__ndk1::allocator<char> >, std::__ndk1::allocator<char> >, (std::__ndk1::__variant_detail::_Trait)1>::__destroy[abi:ne180000]()::{lambda(auto:1&)#1}, std::__ndk1::__variant_detail::__base<(std::__ndk1::__variant_detail::__traits<std::__ndk1::basic_string<char, std::__ndk1::char_traits<char>, std::__ndk1::allocator<char> >, std::__ndk1::allocator<char> >)1, std::__ndk1::allocator<char>, std::__ndk1::allocator<char> >&>(std::__ndk1::__variant_detail::__dtor<std::__ndk1::__variant_detail::__traits<std::__ndk1::basic_string<char, std::__ndk1::char_traits<char>, std::__ndk1::allocator<char> >, std::__ndk1::allocator<char> >, (std::__ndk1::__variant_detail::_Trait)1>, std::__ndk1::__variant_detail::__base<(std::__ndk1::__variant_detail::__traits<std::__ndk1::basic_string<char, std::__ndk1::char_traits<char>, std::__ndk1::allocator<char> >, std::__ndk1::allocator<char> >)1, std::__ndk1::allocator<char>, std::__ndk1::allocator<char> >&)
PUBLIC 31420 0 _ZN7matjson9SerializeINSt6__ndk16vectorINS1_12basic_stringIcNS1_11char_traitsIcEENS1_9allocatorIcEEEENS6_IS8_EEEEE8fromJsonERKNS_5ValueEQrQSE__Xcldtfp_2asIT_EEE
PUBLIC 31754 0 std::__ndk1::vector<std::__ndk1::basic_string<char, std::__ndk1::char_traits<char>, std::__ndk1::allocator<char> >, std::__ndk1::allocator<std::__ndk1::basic_string<char, std::__ndk1::char_traits<char>, std::__ndk1::allocator<char> > > >::reserve(unsigned long)
PUBLIC 31868 0 std::__ndk1::basic_stringstream<char, std::__ndk1::char_traits<char>, std::__ndk1::allocator<char> >::basic_stringstream[abi:ne180000]()
PUBLIC m 31994 0 std::__ndk1::basic_stringstream<char, std::__ndk1::char_traits<char>, std::__ndk1::allocator<char> >::~basic_stringstream()
PUBLIC 31a14 0 geode::UnwrapException::~UnwrapException()
PUBLIC 31a38 0 std::__ndk1::__put_character_sequence[abi:ne180000]<char, std::__ndk1::char_traits<char> >(std::__ndk1::basic_ostream<char, std::__ndk1::char_traits<char> >, std::__ndk1::basic_ostream const*, unsigned long)
PUBLIC 31bdc 0 std::__ndk1::__pad_and_output[abi:ne180000]<char, std::__ndk1::char_traits<char> >(std::__ndk1::char_traits<char>, std::__ndk1::ostreambuf_iterator const*, std::__ndk1::ostreambuf_iterator const, std::__ndk1::ostreambuf_iterator const, std::__ndk1::ios_base&, std::__ndk1::ostreambuf_iterator)
PUBLIC 31db8 0 std::__ndk1::basic_stringbuf<char, std::__ndk1::char_traits<char>, std::__ndk1::allocator<char> >::str[abi:ne180000]() &&
PUBLIC 31f30 0 std::__ndk1::basic_stringbuf<char, std::__ndk1::char_traits<char>, std::__ndk1::allocator<char> >::__init_buf_ptrs[abi:ne180000]()
PUBLIC 32078 0 _ZN5geode15UnwrapExceptionC2IRNSt6__ndk112basic_stringIcNS2_11char_traitsIcEENS2_9allocatorIcEEEEQsr4implE18IsStringStreamableIT_EEENS_4impl6ErrTagEOSA_
PUBLIC 321e0 0 std::__ndk1::vector<std::__ndk1::basic_string<char, std::__ndk1::char_traits<char>, std::__ndk1::allocator<char> >, std::__ndk1::allocator<std::__ndk1::basic_string<char, std::__ndk1::char_traits<char>, std::__ndk1::allocator<char> > > >::__emplace_back_slow_path<std::__ndk1::basic_string<char, std::__ndk1::char_traits<char>, std::__ndk1::allocator<char> > >(std::__ndk1::basic_string<char, std::__ndk1::char_traits<char>, std::__ndk1::allocator<char> >&&)
PUBLIC 32348 0 std::__ndk1::__variant_detail::__visitation::__base::__dispatcher<(unsigned long)0>::__dispatch[abi:ne180000]<std::__ndk1::__variant_detail::__dtor<std::__ndk1::__variant_detail::__traits<std::__ndk1::vector<std::__ndk1::basic_string<char, std::__ndk1::char_traits<char>, std::__ndk1::allocator<char> >, std::__ndk1::char_traits<char><std::__ndk1::allocator<char> > >, std::__ndk1::allocator<char> >, (std::__ndk1::__variant_detail::_Trait)1>::__destroy[abi:ne180000]()::{lambda(auto:1&)#1}, std::__ndk1::__variant_detail::__base<(std::__ndk1::__variant_detail::__traits<std::__ndk1::vector<std::__ndk1::basic_string<char, std::__ndk1::char_traits<char>, std::__ndk1::allocator<char> >, std::__ndk1::char_traits<char><std::__ndk1::allocator<char> > >, std::__ndk1::allocator<char> >)1, std::__ndk1::char_traits<char><std::__ndk1::allocator<char> >, std::__ndk1::allocator<char> >&>(std::__ndk1::__variant_detail::__dtor<std::__ndk1::__variant_detail::__traits<std::__ndk1::vector<std::__ndk1::basic_string<char, std::__ndk1::char_traits<char>, std::__ndk1::allocator<char> >, std::__ndk1::char_traits<char><std::__ndk1::allocator<char> > >, std::__ndk1::allocator<char> >, (std::__ndk1::__variant_detail::_Trait)1>, std::__ndk1::__variant_detail::__base<(std::__ndk1::__variant_detail::__traits<std::__ndk1::vector<std::__ndk1::basic_string<char, std::__ndk1::char_traits<char>, std::__ndk1::allocator<char> >, std::__ndk1::char_traits<char><std::__ndk1::allocator<char> > >, std::__ndk1::allocator<char> >)1, std::__ndk1::char_traits<char><std::__ndk1::allocator<char> >, std::__ndk1::allocator<char> >&)
PUBLIC 323c4 0 std::__ndk1::__variant_detail::__visitation::__base::__dispatcher<(unsigned long)1>::__dispatch[abi:ne180000]<std::__ndk1::__variant_detail::__dtor<std::__ndk1::__variant_detail::__traits<std::__ndk1::vector<std::__ndk1::basic_string<char, std::__ndk1::char_traits<char>, std::__ndk1::allocator<char> >, std::__ndk1::char_traits<char><std::__ndk1::allocator<char> > >, std::__ndk1::allocator<char> >, (std::__ndk1::__variant_detail::_Trait)1>::__destroy[abi:ne180000]()::{lambda(auto:1&)#1}, std::__ndk1::__variant_detail::__base<(std::__ndk1::__variant_detail::__traits<std::__ndk1::vector<std::__ndk1::basic_string<char, std::__ndk1::char_traits<char>, std::__ndk1::allocator<char> >, std::__ndk1::char_traits<char><std::__ndk1::allocator<char> > >, std::__ndk1::allocator<char> >)1, std::__ndk1::char_traits<char><std::__ndk1::allocator<char> >, std::__ndk1::allocator<char> >&>(std::__ndk1::__variant_detail::__dtor<std::__ndk1::__variant_detail::__traits<std::__ndk1::vector<std::__ndk1::basic_string<char, std::__ndk1::char_traits<char>, std::__ndk1::allocator<char> >, std::__ndk1::char_traits<char><std::__ndk1::allocator<char> > >, std::__ndk1::allocator<char> >, (std::__ndk1::__variant_detail::_Trait)1>, std::__ndk1::__variant_detail::__base<(std::__ndk1::__variant_detail::__traits<std::__ndk1::vector<std::__ndk1::basic_string<char, std::__ndk1::char_traits<char>, std::__ndk1::allocator<char> >, std::__ndk1::char_traits<char><std::__ndk1::allocator<char> > >, std::__ndk1::allocator<char> >)1, std::__ndk1::char_traits<char><std::__ndk1::allocator<char> >, std::__ndk1::allocator<char> >&)
PUBLIC 323d8 0 std::__ndk1::__hash_table<std::__ndk1::basic_string<char, std::__ndk1::char_traits<char>, std::__ndk1::allocator<char> >, std::__ndk1::hash<std::__ndk1::basic_string<char, std::__ndk1::char_traits<char>, std::__ndk1::allocator<char> > >, std::__ndk1::equal_to<std::__ndk1::basic_string<char, std::__ndk1::char_traits<char>, std::__ndk1::allocator<char> > >, std::__ndk1::allocator<std::__ndk1::basic_string<char, std::__ndk1::char_traits<char>, std::__ndk1::allocator<char> > > >::~__hash_table()
PUBLIC 32448 0 std::__ndk1::__hash_table<std::__ndk1::basic_string<char, std::__ndk1::char_traits<char>, std::__ndk1::allocator<char> >, std::__ndk1::hash<std::__ndk1::basic_string<char, std::__ndk1::char_traits<char>, std::__ndk1::allocator<char> > >, std::__ndk1::equal_to<std::__ndk1::basic_string<char, std::__ndk1::char_traits<char>, std::__ndk1::allocator<char> > >, std::__ndk1::allocator<std::__ndk1::basic_string<char, std::__ndk1::char_traits<char>, std::__ndk1::allocator<char> > > >::__emplace_unique_key_args<std::__ndk1::basic_string<char, std::__ndk1::char_traits<char>, std::__ndk1::allocator<char> >, std::__ndk1::basic_string<char, std::__ndk1::char_traits<char>, std::__ndk1::allocator<char> > const&>(std::__ndk1::basic_string<char, std::__ndk1::char_traits<char>, std::__ndk1::allocator<char> > const&, std::__ndk1::basic_string<char, std::__ndk1::char_traits<char>, std::__ndk1::allocator<char> > const&)
PUBLIC 328fc 0 std::__ndk1::unique_ptr<std::__ndk1::__hash_node<std::__ndk1::basic_string<char, std::__ndk1::char_traits<char>, std::__ndk1::allocator<char> >, void*>, std::__ndk1::__hash_node_destructor<std::__ndk1::allocator<std::__ndk1::__hash_node<std::__ndk1::basic_string<char, std::__ndk1::char_traits<char>, std::__ndk1::allocator<char> >, void*> > > >::~unique_ptr[abi:ne180000]()
PUBLIC 3294c 0 std::__ndk1::__murmur2_or_cityhash<unsigned long, (unsigned long)64>::operator()[abi:ne180000](void const*, unsigned long) const
PUBLIC 32d98 0 std::__ndk1::__hash_table<std::__ndk1::basic_string<char, std::__ndk1::char_traits<char>, std::__ndk1::allocator<char> >, std::__ndk1::hash<std::__ndk1::basic_string<char, std::__ndk1::char_traits<char>, std::__ndk1::allocator<char> > >, std::__ndk1::equal_to<std::__ndk1::basic_string<char, std::__ndk1::char_traits<char>, std::__ndk1::allocator<char> > >, std::__ndk1::allocator<std::__ndk1::basic_string<char, std::__ndk1::char_traits<char>, std::__ndk1::allocator<char> > > >::__do_rehash<true>(unsigned long)
PUBLIC 32f44 0 std::__ndk1::vector<std::__ndk1::basic_string<char, std::__ndk1::char_traits<char>, std::__ndk1::allocator<char> >, std::__ndk1::allocator<std::__ndk1::basic_string<char, std::__ndk1::char_traits<char>, std::__ndk1::allocator<char> > > >::__init_with_size[abi:ne180000]<std::__ndk1::basic_string<char, std::__ndk1::char_traits<char>, std::__ndk1::allocator<char> >*, std::__ndk1::vector<std::__ndk1::basic_string<char, std::__ndk1::char_traits<char>, std::__ndk1::allocator<char> >, std::__ndk1::allocator<std::__ndk1::basic_string<char, std::__ndk1::char_traits<char>, std::__ndk1::allocator<char> > > >::__init_with_size[abi:ne180000]>(std::__ndk1::basic_string<char, std::__ndk1::char_traits<char>, std::__ndk1::allocator<char> >*, std::__ndk1::vector<std::__ndk1::basic_string<char, std::__ndk1::char_traits<char>, std::__ndk1::allocator<char> >, std::__ndk1::allocator<std::__ndk1::basic_string<char, std::__ndk1::char_traits<char>, std::__ndk1::allocator<char> > > >::__init_with_size[abi:ne180000], unsigned long)
PUBLIC 330b0 0 std::__ndk1::__exception_guard_exceptions<std::__ndk1::vector<std::__ndk1::basic_string<char, std::__ndk1::char_traits<char>, std::__ndk1::allocator<char> >, std::__ndk1::allocator<std::__ndk1::basic_string<char, std::__ndk1::char_traits<char>, std::__ndk1::allocator<char> > > >::__destroy_vector>::~__exception_guard_exceptions[abi:ne180000]()
PUBLIC 3313c 0 std::__ndk1::__exception_guard_exceptions<std::__ndk1::_AllocatorDestroyRangeReverse<std::__ndk1::allocator<std::__ndk1::basic_string<char, std::__ndk1::char_traits<char>, std::__ndk1::allocator<char> > >, std::__ndk1::basic_string<char, std::__ndk1::char_traits<char>, std::__ndk1::allocator<char> >*> >::~__exception_guard_exceptions[abi:ne180000]()
PUBLIC 3319c 0 std::__ndk1::__function::__base<void (geode::Task<geode::utils::web::WebResponse, geode::utils::web::WebProgress>::Event*)>::~__base()
PUBLIC 331a0 0 std::__ndk1::__function::__func<BetaSearch::search(cocos2d::CCObject*)::$_0, std::__ndk1::allocator<BetaSearch::search(cocos2d::CCObject*)::$_0>, void (geode::Task<geode::utils::web::WebResponse, geode::utils::web::WebProgress>::Event*)>::~__func()
PUBLIC 331a4 0 std::__ndk1::__function::__func<BetaSearch::search(cocos2d::CCObject*)::$_0, std::__ndk1::allocator<BetaSearch::search(cocos2d::CCObject*)::$_0>, void (geode::Task<geode::utils::web::WebResponse, geode::utils::web::WebProgress>::Event*)>::__clone() const
PUBLIC 331dc 0 std::__ndk1::__function::__func<BetaSearch::search(cocos2d::CCObject*)::$_0, std::__ndk1::allocator<BetaSearch::search(cocos2d::CCObject*)::$_0>, void (geode::Task<geode::utils::web::WebResponse, geode::utils::web::WebProgress>::Event*)>::__clone(std::__ndk1::__function::__base<void (geode::Task<geode::utils::web::WebResponse, geode::utils::web::WebProgress>::Event*)>*) const
PUBLIC 331f4 0 std::__ndk1::__function::__func<BetaSearch::search(cocos2d::CCObject*)::$_0, std::__ndk1::allocator<BetaSearch::search(cocos2d::CCObject*)::$_0>, void (geode::Task<geode::utils::web::WebResponse, geode::utils::web::WebProgress>::Event*)>::destroy()
PUBLIC 331f8 0 std::__ndk1::__function::__func<BetaSearch::search(cocos2d::CCObject*)::$_0, std::__ndk1::allocator<BetaSearch::search(cocos2d::CCObject*)::$_0>, void (geode::Task<geode::utils::web::WebResponse, geode::utils::web::WebProgress>::Event*)>::destroy_deallocate()
PUBLIC 331fc 0 std::__ndk1::__function::__func<BetaSearch::search(cocos2d::CCObject*)::$_0, std::__ndk1::allocator<BetaSearch::search(cocos2d::CCObject*)::$_0>, void (geode::Task<geode::utils::web::WebResponse, geode::utils::web::WebProgress>::Event*)>::operator()(geode::Task<geode::utils::web::WebResponse, geode::utils::web::WebProgress>::Event*&&)
PUBLIC 34208 0 std::__ndk1::__function::__func<BetaSearch::search(cocos2d::CCObject*)::$_0, std::__ndk1::allocator<BetaSearch::search(cocos2d::CCObject*)::$_0>, void (geode::Task<geode::utils::web::WebResponse, geode::utils::web::WebProgress>::Event*)>::target(std::type_info const&) const
PUBLIC 34224 0 std::__ndk1::__function::__func<BetaSearch::search(cocos2d::CCObject*)::$_0, std::__ndk1::allocator<BetaSearch::search(cocos2d::CCObject*)::$_0>, void (geode::Task<geode::utils::web::WebResponse, geode::utils::web::WebProgress>::Event*)>::target_type() const
PUBLIC 34230 0 std::__ndk1::vector<std::__ndk1::pair<int, std::__ndk1::basic_string<char, std::__ndk1::char_traits<char>, std::__ndk1::allocator<char> > >, std::__ndk1::allocator<std::__ndk1::pair<int, std::__ndk1::basic_string<char, std::__ndk1::char_traits<char>, std::__ndk1::allocator<char> > > > >::~vector[abi:ne180000]()
PUBLIC 342b8 0 std::__ndk1::__split_buffer<std::__ndk1::pair<int, std::__ndk1::basic_string<char, std::__ndk1::char_traits<char>, std::__ndk1::allocator<char> > >, std::__ndk1::allocator<std::__ndk1::pair<int, std::__ndk1::basic_string<char, std::__ndk1::char_traits<char>, std::__ndk1::allocator<char> > > >&>::~__split_buffer()
PUBLIC 34320 0 std::__ndk1::vector<std::__ndk1::pair<int, std::__ndk1::basic_string<char, std::__ndk1::char_traits<char>, std::__ndk1::allocator<char> > >, std::__ndk1::allocator<std::__ndk1::pair<int, std::__ndk1::basic_string<char, std::__ndk1::char_traits<char>, std::__ndk1::allocator<char> > > > >::__throw_length_error[abi:ne180000]() const
PUBLIC 34334 0 std::__ndk1::__introsort<std::__ndk1::_ClassicAlgPolicy, std::__ndk1::__less<void, void>&, std::__ndk1::reverse_iterator<std::__ndk1::__wrap_iter<std::__ndk1::pair<int, std::__ndk1::basic_string<char, std::__ndk1::char_traits<char>, std::__ndk1::allocator<char> > >*> >, false>(std::__ndk1::reverse_iterator<std::__ndk1::__wrap_iter<std::__ndk1::pair<int, std::__ndk1::basic_string<char, std::__ndk1::char_traits<char>, std::__ndk1::allocator<char> > >*> >, std::__ndk1::reverse_iterator<std::__ndk1::__wrap_iter<std::__ndk1::pair<int, std::__ndk1::basic_string<char, std::__ndk1::char_traits<char>, std::__ndk1::allocator<char> > >*> >, std::__ndk1::__less<void, void>&, std::__ndk1::iterator_traits<std::__ndk1::reverse_iterator<std::__ndk1::__wrap_iter<std::__ndk1::pair<int, std::__ndk1::basic_string<char, std::__ndk1::char_traits<char>, std::__ndk1::allocator<char> > >*> > >::difference_type, bool)
PUBLIC 358b8 0 std::__ndk1::__sort3[abi:ne180000]<std::__ndk1::_ClassicAlgPolicy, std::__ndk1::__less<void, void>&, std::__ndk1::reverse_iterator<std::__ndk1::__wrap_iter<std::__ndk1::pair<int, std::__ndk1::basic_string<char, std::__ndk1::char_traits<char>, std::__ndk1::allocator<char> > >*> > >(std::__ndk1::reverse_iterator<std::__ndk1::__wrap_iter<std::__ndk1::pair<int, std::__ndk1::basic_string<char, std::__ndk1::char_traits<char>, std::__ndk1::allocator<char> > >*> >, std::__ndk1::reverse_iterator<std::__ndk1::__wrap_iter<std::__ndk1::pair<int, std::__ndk1::basic_string<char, std::__ndk1::char_traits<char>, std::__ndk1::allocator<char> > >*> >, std::__ndk1::reverse_iterator<std::__ndk1::__wrap_iter<std::__ndk1::pair<int, std::__ndk1::basic_string<char, std::__ndk1::char_traits<char>, std::__ndk1::allocator<char> > >*> >, std::__ndk1::__less<void, void>&)
PUBLIC 35c1c 0 std::__ndk1::__insertion_sort_incomplete[abi:ne180000]<std::__ndk1::_ClassicAlgPolicy, std::__ndk1::__less<void, void>&, std::__ndk1::reverse_iterator<std::__ndk1::__wrap_iter<std::__ndk1::pair<int, std::__ndk1::basic_string<char, std::__ndk1::char_traits<char>, std::__ndk1::allocator<char> > >*> > >(std::__ndk1::reverse_iterator<std::__ndk1::__wrap_iter<std::__ndk1::pair<int, std::__ndk1::basic_string<char, std::__ndk1::char_traits<char>, std::__ndk1::allocator<char> > >*> >, std::__ndk1::reverse_iterator<std::__ndk1::__wrap_iter<std::__ndk1::pair<int, std::__ndk1::basic_string<char, std::__ndk1::char_traits<char>, std::__ndk1::allocator<char> > >*> >, std::__ndk1::__less<void, void>&)
PUBLIC 36078 0 std::__ndk1::__sort4[abi:ne180000]<std::__ndk1::_ClassicAlgPolicy, std::__ndk1::__less<void, void>&, std::__ndk1::reverse_iterator<std::__ndk1::__wrap_iter<std::__ndk1::pair<int, std::__ndk1::basic_string<char, std::__ndk1::char_traits<char>, std::__ndk1::allocator<char> > >*> > >(std::__ndk1::reverse_iterator<std::__ndk1::__wrap_iter<std::__ndk1::pair<int, std::__ndk1::basic_string<char, std::__ndk1::char_traits<char>, std::__ndk1::allocator<char> > >*> >, std::__ndk1::reverse_iterator<std::__ndk1::__wrap_iter<std::__ndk1::pair<int, std::__ndk1::basic_string<char, std::__ndk1::char_traits<char>, std::__ndk1::allocator<char> > >*> >, std::__ndk1::reverse_iterator<std::__ndk1::__wrap_iter<std::__ndk1::pair<int, std::__ndk1::basic_string<char, std::__ndk1::char_traits<char>, std::__ndk1::allocator<char> > >*> >, std::__ndk1::reverse_iterator<std::__ndk1::__wrap_iter<std::__ndk1::pair<int, std::__ndk1::basic_string<char, std::__ndk1::char_traits<char>, std::__ndk1::allocator<char> > >*> >, std::__ndk1::__less<void, void>&)
PUBLIC 362bc 0 std::__ndk1::__sort5[abi:ne180000]<std::__ndk1::_ClassicAlgPolicy, std::__ndk1::__less<void, void>&, std::__ndk1::reverse_iterator<std::__ndk1::__wrap_iter<std::__ndk1::pair<int, std::__ndk1::basic_string<char, std::__ndk1::char_traits<char>, std::__ndk1::allocator<char> > >*> > >(std::__ndk1::reverse_iterator<std::__ndk1::__wrap_iter<std::__ndk1::pair<int, std::__ndk1::basic_string<char, std::__ndk1::char_traits<char>, std::__ndk1::allocator<char> > >*> >, std::__ndk1::reverse_iterator<std::__ndk1::__wrap_iter<std::__ndk1::pair<int, std::__ndk1::basic_string<char, std::__ndk1::char_traits<char>, std::__ndk1::allocator<char> > >*> >, std::__ndk1::reverse_iterator<std::__ndk1::__wrap_iter<std::__ndk1::pair<int, std::__ndk1::basic_string<char, std::__ndk1::char_traits<char>, std::__ndk1::allocator<char> > >*> >, std::__ndk1::reverse_iterator<std::__ndk1::__wrap_iter<std::__ndk1::pair<int, std::__ndk1::basic_string<char, std::__ndk1::char_traits<char>, std::__ndk1::allocator<char> > >*> >, std::__ndk1::reverse_iterator<std::__ndk1::__wrap_iter<std::__ndk1::pair<int, std::__ndk1::basic_string<char, std::__ndk1::char_traits<char>, std::__ndk1::allocator<char> > >*> >, std::__ndk1::__less<void, void>&)
PUBLIC 365a0 0 std::__ndk1::__introsort<std::__ndk1::_ClassicAlgPolicy, std::__ndk1::__less<void, void>&, std::__ndk1::pair<int, std::__ndk1::basic_string<char, std::__ndk1::char_traits<char>, std::__ndk1::allocator<char> > >*, false>(std::__ndk1::pair<int, std::__ndk1::basic_string<char, std::__ndk1::char_traits<char>, std::__ndk1::allocator<char> > >*, std::__ndk1::pair<int, std::__ndk1::basic_string<char, std::__ndk1::char_traits<char>, std::__ndk1::allocator<char> > >*, std::__ndk1::__less<void, void>&, std::__ndk1::iterator_traits<std::__ndk1::pair<int, std::__ndk1::basic_string<char, std::__ndk1::char_traits<char>, std::__ndk1::allocator<char> > >*>::difference_type, bool)
PUBLIC 37bec 0 std::__ndk1::__sort3[abi:ne180000]<std::__ndk1::_ClassicAlgPolicy, std::__ndk1::__less<void, void>&, std::__ndk1::pair<int, std::__ndk1::basic_string<char, std::__ndk1::char_traits<char>, std::__ndk1::allocator<char> > >*>(std::__ndk1::pair<int, std::__ndk1::basic_string<char, std::__ndk1::char_traits<char>, std::__ndk1::allocator<char> > >*, std::__ndk1::pair<int, std::__ndk1::basic_string<char, std::__ndk1::char_traits<char>, std::__ndk1::allocator<char> > >*, std::__ndk1::pair<int, std::__ndk1::basic_string<char, std::__ndk1::char_traits<char>, std::__ndk1::allocator<char> > >*, std::__ndk1::__less<void, void>&)
PUBLIC 37f40 0 std::__ndk1::__insertion_sort_incomplete[abi:ne180000]<std::__ndk1::_ClassicAlgPolicy, std::__ndk1::__less<void, void>&, std::__ndk1::pair<int, std::__ndk1::basic_string<char, std::__ndk1::char_traits<char>, std::__ndk1::allocator<char> > >*>(std::__ndk1::pair<int, std::__ndk1::basic_string<char, std::__ndk1::char_traits<char>, std::__ndk1::allocator<char> > >*, std::__ndk1::pair<int, std::__ndk1::basic_string<char, std::__ndk1::char_traits<char>, std::__ndk1::allocator<char> > >*, std::__ndk1::__less<void, void>&)
PUBLIC 38364 0 std::__ndk1::__sort4[abi:ne180000]<std::__ndk1::_ClassicAlgPolicy, std::__ndk1::__less<void, void>&, std::__ndk1::pair<int, std::__ndk1::basic_string<char, std::__ndk1::char_traits<char>, std::__ndk1::allocator<char> > >*>(std::__ndk1::pair<int, std::__ndk1::basic_string<char, std::__ndk1::char_traits<char>, std::__ndk1::allocator<char> > >*, std::__ndk1::pair<int, std::__ndk1::basic_string<char, std::__ndk1::char_traits<char>, std::__ndk1::allocator<char> > >*, std::__ndk1::pair<int, std::__ndk1::basic_string<char, std::__ndk1::char_traits<char>, std::__ndk1::allocator<char> > >*, std::__ndk1::pair<int, std::__ndk1::basic_string<char, std::__ndk1::char_traits<char>, std::__ndk1::allocator<char> > >*, std::__ndk1::__less<void, void>&)
PUBLIC 385a0 0 std::__ndk1::__sort5[abi:ne180000]<std::__ndk1::_ClassicAlgPolicy, std::__ndk1::__less<void, void>&, std::__ndk1::pair<int, std::__ndk1::basic_string<char, std::__ndk1::char_traits<char>, std::__ndk1::allocator<char> > >*>(std::__ndk1::pair<int, std::__ndk1::basic_string<char, std::__ndk1::char_traits<char>, std::__ndk1::allocator<char> > >*, std::__ndk1::pair<int, std::__ndk1::basic_string<char, std::__ndk1::char_traits<char>, std::__ndk1::allocator<char> > >*, std::__ndk1::pair<int, std::__ndk1::basic_string<char, std::__ndk1::char_traits<char>, std::__ndk1::allocator<char> > >*, std::__ndk1::pair<int, std::__ndk1::basic_string<char, std::__ndk1::char_traits<char>, std::__ndk1::allocator<char> > >*, std::__ndk1::pair<int, std::__ndk1::basic_string<char, std::__ndk1::char_traits<char>, std::__ndk1::allocator<char> > >*, std::__ndk1::__less<void, void>&)
PUBLIC 38878 0 std::__ndk1::__independent_bits_engine<std::__ndk1::mersenne_twister_engine<unsigned long, (unsigned long)32, (unsigned long)624, (unsigned long)397, (unsigned long)31, (unsigned long)2567483615, (unsigned long)11, (unsigned long)4294967295, (unsigned long)7, (unsigned long)2636928640, (unsigned long)15, (unsigned long)4022730752, (unsigned long)18, (unsigned long)1812433253>, unsigned long>::__eval(std::__ndk1::integral_constant<bool, true>)
PUBLIC 38a78 0 geode::Popup<std::__ndk1::basic_string<char, std::__ndk1::char_traits<char>, std::__ndk1::allocator<char> > >::initBase(float, float, std::__ndk1::basic_string<char, std::__ndk1::char_traits<char>, std::__ndk1::allocator<char> >, char const*, cocos2d::CCRect, bool)
PUBLIC 38dc4 0 geode::Popup<std::__ndk1::basic_string<char, std::__ndk1::char_traits<char>, std::__ndk1::allocator<char> > >::CloseEvent::~CloseEvent()
PUBLIC 38e24 0 geode::Popup<std::__ndk1::basic_string<char, std::__ndk1::char_traits<char>, std::__ndk1::allocator<char> > >::CloseEvent::~CloseEvent()
PUBLIC 38e94 0 std::__ndk1::__shared_ptr_emplace<geode::Popup<std::__ndk1::basic_string<char, std::__ndk1::char_traits<char>, std::__ndk1::allocator<char> > >::CloseEvent::Impl, std::__ndk1::allocator<geode::Popup<std::__ndk1::basic_string<char, std::__ndk1::char_traits<char>, std::__ndk1::allocator<char> > >::CloseEvent::Impl> >::~__shared_ptr_emplace()
PUBLIC 38ea4 0 std::__ndk1::__shared_ptr_emplace<geode::Popup<std::__ndk1::basic_string<char, std::__ndk1::char_traits<char>, std::__ndk1::allocator<char> > >::CloseEvent::Impl, std::__ndk1::allocator<geode::Popup<std::__ndk1::basic_string<char, std::__ndk1::char_traits<char>, std::__ndk1::allocator<char> > >::CloseEvent::Impl> >::~__shared_ptr_emplace()
PUBLIC 38ed4 0 std::__ndk1::__shared_ptr_emplace<geode::Popup<std::__ndk1::basic_string<char, std::__ndk1::char_traits<char>, std::__ndk1::allocator<char> > >::CloseEvent::Impl, std::__ndk1::allocator<geode::Popup<std::__ndk1::basic_string<char, std::__ndk1::char_traits<char>, std::__ndk1::allocator<char> > >::CloseEvent::Impl> >::__on_zero_shared()
PUBLIC 38ed8 0 std::__ndk1::__shared_ptr_emplace<geode::Popup<std::__ndk1::basic_string<char, std::__ndk1::char_traits<char>, std::__ndk1::allocator<char> > >::CloseEvent::Impl, std::__ndk1::allocator<geode::Popup<std::__ndk1::basic_string<char, std::__ndk1::char_traits<char>, std::__ndk1::allocator<char> > >::CloseEvent::Impl> >::__on_zero_shared_weak()
PUBLIC 38edc 0 __cxx_global_var_init.2
PUBLIC 38f3c 0 geode::modifier::ModifyBase<geode::modifier::ModifyDerive<TagsLevelCell, LevelCell> >::~ModifyBase()
PUBLIC 38f58 0 geode::modifier::ModifyBase<geode::modifier::ModifyDerive<TagsLevelCell, LevelCell> >::ModifyBase()
PUBLIC 39354 0 geode::modifier::ModifyDerive<TagsLevelCell, LevelCell>::apply()
PUBLIC 395f4 0 std::__ndk1::shared_ptr<geode::Hook>::~shared_ptr[abi:ne180000]()
PUBLIC 39644 0 geode::impl::ResultData<geode::Hook*, std::__ndk1::basic_string<char, std::__ndk1::char_traits<char>, std::__ndk1::allocator<char> > >::~ResultData()
PUBLIC 396b8 0 geode::modifier::ModifyBase<geode::modifier::ModifyDerive<TagsLevelCell, LevelCell> >::apply()
PUBLIC 396bc 0 _ZN5geode15UnwrapExceptionC2IRPNS_4HookEQsr4implE18IsStringStreamableIT_EEENS_4impl5OkTagEOS5_
PUBLIC 39810 0 std::__ndk1::__variant_detail::__visitation::__base::__dispatcher<(unsigned long)0>::__dispatch[abi:ne180000]<std::__ndk1::__variant_detail::__dtor<std::__ndk1::__variant_detail::__traits<geode::Hook*, std::__ndk1::basic_string<char, std::__ndk1::char_traits<char>, std::__ndk1::allocator<char> > >, (std::__ndk1::__variant_detail::_Trait)1>::__destroy[abi:ne180000]()::{lambda(auto:1&)#1}, std::__ndk1::__variant_detail::__base<(std::__ndk1::__variant_detail::__traits<geode::Hook*, std::__ndk1::basic_string<char, std::__ndk1::char_traits<char>, std::__ndk1::allocator<char> > >)1, geode::Hook, std::__ndk1::allocator<char> >&>(std::__ndk1::__variant_detail::__dtor<std::__ndk1::__variant_detail::__traits<geode::Hook*, std::__ndk1::basic_string<char, std::__ndk1::char_traits<char>, std::__ndk1::allocator<char> > >, (std::__ndk1::__variant_detail::_Trait)1>, std::__ndk1::__variant_detail::__base<(std::__ndk1::__variant_detail::__traits<geode::Hook*, std::__ndk1::basic_string<char, std::__ndk1::char_traits<char>, std::__ndk1::allocator<char> > >)1, geode::Hook, std::__ndk1::allocator<char> >&)
PUBLIC 39814 0 std::__ndk1::__variant_detail::__visitation::__base::__dispatcher<(unsigned long)1>::__dispatch[abi:ne180000]<std::__ndk1::__variant_detail::__dtor<std::__ndk1::__variant_detail::__traits<geode::Hook*, std::__ndk1::basic_string<char, std::__ndk1::char_traits<char>, std::__ndk1::allocator<char> > >, (std::__ndk1::__variant_detail::_Trait)1>::__destroy[abi:ne180000]()::{lambda(auto:1&)#1}, std::__ndk1::__variant_detail::__base<(std::__ndk1::__variant_detail::__traits<geode::Hook*, std::__ndk1::basic_string<char, std::__ndk1::char_traits<char>, std::__ndk1::allocator<char> > >)1, geode::Hook, std::__ndk1::allocator<char> >&>(std::__ndk1::__variant_detail::__dtor<std::__ndk1::__variant_detail::__traits<geode::Hook*, std::__ndk1::basic_string<char, std::__ndk1::char_traits<char>, std::__ndk1::allocator<char> > >, (std::__ndk1::__variant_detail::_Trait)1>, std::__ndk1::__variant_detail::__base<(std::__ndk1::__variant_detail::__traits<geode::Hook*, std::__ndk1::basic_string<char, std::__ndk1::char_traits<char>, std::__ndk1::allocator<char> > >)1, geode::Hook, std::__ndk1::allocator<char> >&)
PUBLIC 39828 0 std::__ndk1::__tree<std::__ndk1::__value_type<std::__ndk1::basic_string<char, std::__ndk1::char_traits<char>, std::__ndk1::allocator<char> >, std::__ndk1::shared_ptr<geode::Hook> >, std::__ndk1::__map_value_compare<std::__ndk1::basic_string<char, std::__ndk1::char_traits<char>, std::__ndk1::allocator<char> >, std::__ndk1::__value_type<std::__ndk1::basic_string<char, std::__ndk1::char_traits<char>, std::__ndk1::allocator<char> >, std::__ndk1::shared_ptr<geode::Hook> >, std::__ndk1::less<std::__ndk1::basic_string<char, std::__ndk1::char_traits<char>, std::__ndk1::allocator<char> > >, true>, std::__ndk1::allocator<std::__ndk1::__value_type<std::__ndk1::basic_string<char, std::__ndk1::char_traits<char>, std::__ndk1::allocator<char> >, std::__ndk1::shared_ptr<geode::Hook> > > >::find<std::__ndk1::basic_string<char, std::__ndk1::char_traits<char>, std::__ndk1::allocator<char> > >(std::__ndk1::basic_string<char, std::__ndk1::char_traits<char>, std::__ndk1::allocator<char> > const&)
PUBLIC 39948 0 std::__ndk1::__tree<std::__ndk1::__value_type<std::__ndk1::basic_string<char, std::__ndk1::char_traits<char>, std::__ndk1::allocator<char> >, std::__ndk1::shared_ptr<geode::Hook> >, std::__ndk1::__map_value_compare<std::__ndk1::basic_string<char, std::__ndk1::char_traits<char>, std::__ndk1::allocator<char> >, std::__ndk1::__value_type<std::__ndk1::basic_string<char, std::__ndk1::char_traits<char>, std::__ndk1::allocator<char> >, std::__ndk1::shared_ptr<geode::Hook> >, std::__ndk1::less<std::__ndk1::basic_string<char, std::__ndk1::char_traits<char>, std::__ndk1::allocator<char> > >, true>, std::__ndk1::allocator<std::__ndk1::__value_type<std::__ndk1::basic_string<char, std::__ndk1::char_traits<char>, std::__ndk1::allocator<char> >, std::__ndk1::shared_ptr<geode::Hook> > > >::erase(std::__ndk1::__tree_const_iterator<std::__ndk1::__value_type<std::__ndk1::basic_string<char, std::__ndk1::char_traits<char>, std::__ndk1::allocator<char> >, std::__ndk1::shared_ptr<geode::Hook> >, std::__ndk1::__tree_node<std::__ndk1::__value_type<std::__ndk1::basic_string<char, std::__ndk1::char_traits<char>, std::__ndk1::allocator<char> >, std::__ndk1::shared_ptr<geode::Hook> >, void*>*, long>)
PUBLIC 39a1c 0 std::__ndk1::__tree_remove[abi:ne180000]<std::__ndk1::__tree_node_base<void*>*>(std::__ndk1::__tree_node_base<void*>*, std::__ndk1::__tree_node_base<void*>*)
PUBLIC 39de4 0 std::__ndk1::__tree<std::__ndk1::__value_type<std::__ndk1::basic_string<char, std::__ndk1::char_traits<char>, std::__ndk1::allocator<char> >, std::__ndk1::shared_ptr<geode::Hook> >, std::__ndk1::__map_value_compare<std::__ndk1::basic_string<char, std::__ndk1::char_traits<char>, std::__ndk1::allocator<char> >, std::__ndk1::__value_type<std::__ndk1::basic_string<char, std::__ndk1::char_traits<char>, std::__ndk1::allocator<char> >, std::__ndk1::shared_ptr<geode::Hook> >, std::__ndk1::less<std::__ndk1::basic_string<char, std::__ndk1::char_traits<char>, std::__ndk1::allocator<char> > >, true>, std::__ndk1::allocator<std::__ndk1::__value_type<std::__ndk1::basic_string<char, std::__ndk1::char_traits<char>, std::__ndk1::allocator<char> >, std::__ndk1::shared_ptr<geode::Hook> > > >::destroy(std::__ndk1::__tree_node<std::__ndk1::__value_type<std::__ndk1::basic_string<char, std::__ndk1::char_traits<char>, std::__ndk1::allocator<char> >, std::__ndk1::shared_ptr<geode::Hook> >, void*>*)
PUBLIC 39e70 0 geode::Hook::create<void (*)(TagsLevelCell*)>(void*, void (*)(TagsLevelCell*), std::__ndk1::basic_string<char, std::__ndk1::char_traits<char>, std::__ndk1::allocator<char> > const&, tulip::hook::TulipConvention, tulip::hook::HookMetadata const&)
PUBLIC 39fa4 0 geode::modifier::AsStaticFunction_loadCustomLevelCell<TagsLevelCell, void (TagsLevelCell::*)()>::Impl<void (TagsLevelCell::*)()>::function(TagsLevelCell*)
PUBLIC 39fa8 0 std::__ndk1::shared_ptr<tulip::hook::CallingConvention>::~shared_ptr[abi:ne180000]()
PUBLIC 39ff8 0 tulip::hook::HandlerMetadata::~HandlerMetadata()
PUBLIC 3a05c 0 TagsLevelCell::loadCustomLevelCell()
PUBLIC 3a520 0 geode::Mod::getSettingValue<bool>(std::__ndk1::basic_string_view<char, std::__ndk1::char_traits<char> >) const
PUBLIC 3a654 0 TagsLevelCell::adjustPositions()
PUBLIC 3aa6c 0 TagsLevelCell::updateTags(bool)
PUBLIC 3b3d8 0 geode::modifier::FieldIntermediate<TagsLevelCell, LevelCell>::self()
PUBLIC 3b55c 0 geode::modifier::FieldContainer::getField(unsigned long)
PUBLIC 3b814 0 geode::modifier::FieldContainer::setField(unsigned long, unsigned long, std::__ndk1::function<void (void*)>)
PUBLIC 3b928 0 geode::modifier::FieldIntermediate<TagsLevelCell, LevelCell>::fieldDestructor(void*)
PUBLIC 3b9cc 0 geode::modifier::FieldIntermediate<TagsLevelCell, LevelCell>::fieldConstructor(void*)
PUBLIC 3baec 0 std::__ndk1::vector<void*, std::__ndk1::allocator<void*> >::__throw_length_error[abi:ne180000]() const
PUBLIC 3bb00 0 std::__ndk1::vector<std::__ndk1::function<void (void*)>, std::__ndk1::allocator<std::__ndk1::function<void (void*)> > >::__push_back_slow_path<std::__ndk1::function<void (void*)> >(std::__ndk1::function<void (void*)>&&)
PUBLIC 3bd2c 0 std::__ndk1::vector<std::__ndk1::function<void (void*)>, std::__ndk1::allocator<std::__ndk1::function<void (void*)> > >::__throw_length_error[abi:ne180000]() const
PUBLIC 3bd40 0 std::__ndk1::vector<void*, std::__ndk1::allocator<void*> >::__throw_out_of_range[abi:ne180000]() const
PUBLIC 3bd54 0 std::__ndk1::__throw_out_of_range[abi:ne180000](char const*)
PUBLIC 3bda4 0 std::out_of_range::out_of_range[abi:ne180000](char const*)
PUBLIC 3bdd4 0 std::__ndk1::vector<std::__ndk1::function<void (void*)>, std::__ndk1::allocator<std::__ndk1::function<void (void*)> > >::__throw_out_of_range[abi:ne180000]() const
PUBLIC 3bde8 0 std::__ndk1::__function::__base<void (void*)>::~__base()
PUBLIC 3bdec 0 std::__ndk1::__function::__func<void (*)(void*), std::__ndk1::allocator<void (*)(void*)>, void (void*)>::~__func()
PUBLIC 3bdf0 0 std::__ndk1::__function::__func<void (*)(void*), std::__ndk1::allocator<void (*)(void*)>, void (void*)>::__clone() const
PUBLIC 3be28 0 std::__ndk1::__function::__func<void (*)(void*), std::__ndk1::allocator<void (*)(void*)>, void (void*)>::__clone(std::__ndk1::__function::__base<void (void*)>*) const
PUBLIC 3be40 0 std::__ndk1::__function::__func<void (*)(void*), std::__ndk1::allocator<void (*)(void*)>, void (void*)>::destroy()
PUBLIC 3be44 0 std::__ndk1::__function::__func<void (*)(void*), std::__ndk1::allocator<void (*)(void*)>, void (void*)>::destroy_deallocate()
PUBLIC 3be48 0 std::__ndk1::__function::__func<void (*)(void*), std::__ndk1::allocator<void (*)(void*)>, void (void*)>::operator()(void*&&)
PUBLIC 3be58 0 std::__ndk1::__function::__func<void (*)(void*), std::__ndk1::allocator<void (*)(void*)>, void (void*)>::target(std::type_info const&) const
PUBLIC 3be74 0 std::__ndk1::__function::__func<void (*)(void*), std::__ndk1::allocator<void (*)(void*)>, void (void*)>::target_type() const
PUBLIC 3be80 0 TagsLevelCell::createTagContainer(bool)
PUBLIC 3c068 0 TagsLevelCell::setExpand(cocos2d::CCObject*)
PUBLIC 3c260 0 std::__ndk1::__function::__func<TagsLevelCell::loadCustomLevelCell()::{lambda(geode::Task<geode::utils::web::WebResponse, geode::utils::web::WebProgress>::Event*)#1}, std::__ndk1::allocator<TagsLevelCell::loadCustomLevelCell()::{lambda(geode::Task<geode::utils::web::WebResponse, geode::utils::web::WebProgress>::Event*)#1}>, void (geode::Task<geode::utils::web::WebResponse, geode::utils::web::WebProgress>::Event*)>::~__func()
PUBLIC 3c264 0 std::__ndk1::__function::__func<TagsLevelCell::loadCustomLevelCell()::{lambda(geode::Task<geode::utils::web::WebResponse, geode::utils::web::WebProgress>::Event*)#1}, std::__ndk1::allocator<TagsLevelCell::loadCustomLevelCell()::{lambda(geode::Task<geode::utils::web::WebResponse, geode::utils::web::WebProgress>::Event*)#1}>, void (geode::Task<geode::utils::web::WebResponse, geode::utils::web::WebProgress>::Event*)>::__clone() const
PUBLIC 3c298 0 std::__ndk1::__function::__func<TagsLevelCell::loadCustomLevelCell()::{lambda(geode::Task<geode::utils::web::WebResponse, geode::utils::web::WebProgress>::Event*)#1}, std::__ndk1::allocator<TagsLevelCell::loadCustomLevelCell()::{lambda(geode::Task<geode::utils::web::WebResponse, geode::utils::web::WebProgress>::Event*)#1}>, void (geode::Task<geode::utils::web::WebResponse, geode::utils::web::WebProgress>::Event*)>::__clone(std::__ndk1::__function::__base<void (geode::Task<geode::utils::web::WebResponse, geode::utils::web::WebProgress>::Event*)>*) const
PUBLIC 3c2ac 0 std::__ndk1::__function::__func<TagsLevelCell::loadCustomLevelCell()::{lambda(geode::Task<geode::utils::web::WebResponse, geode::utils::web::WebProgress>::Event*)#1}, std::__ndk1::allocator<TagsLevelCell::loadCustomLevelCell()::{lambda(geode::Task<geode::utils::web::WebResponse, geode::utils::web::WebProgress>::Event*)#1}>, void (geode::Task<geode::utils::web::WebResponse, geode::utils::web::WebProgress>::Event*)>::destroy()
PUBLIC 3c2b0 0 std::__ndk1::__function::__func<TagsLevelCell::loadCustomLevelCell()::{lambda(geode::Task<geode::utils::web::WebResponse, geode::utils::web::WebProgress>::Event*)#1}, std::__ndk1::allocator<TagsLevelCell::loadCustomLevelCell()::{lambda(geode::Task<geode::utils::web::WebResponse, geode::utils::web::WebProgress>::Event*)#1}>, void (geode::Task<geode::utils::web::WebResponse, geode::utils::web::WebProgress>::Event*)>::destroy_deallocate()
PUBLIC 3c2b4 0 std::__ndk1::__function::__func<TagsLevelCell::loadCustomLevelCell()::{lambda(geode::Task<geode::utils::web::WebResponse, geode::utils::web::WebProgress>::Event*)#1}, std::__ndk1::allocator<TagsLevelCell::loadCustomLevelCell()::{lambda(geode::Task<geode::utils::web::WebResponse, geode::utils::web::WebProgress>::Event*)#1}>, void (geode::Task<geode::utils::web::WebResponse, geode::utils::web::WebProgress>::Event*)>::operator()(geode::Task<geode::utils::web::WebResponse, geode::utils::web::WebProgress>::Event*&&)
PUBLIC 3c2c0 0 std::__ndk1::__function::__func<TagsLevelCell::loadCustomLevelCell()::{lambda(geode::Task<geode::utils::web::WebResponse, geode::utils::web::WebProgress>::Event*)#1}, std::__ndk1::allocator<TagsLevelCell::loadCustomLevelCell()::{lambda(geode::Task<geode::utils::web::WebResponse, geode::utils::web::WebProgress>::Event*)#1}>, void (geode::Task<geode::utils::web::WebResponse, geode::utils::web::WebProgress>::Event*)>::target(std::type_info const&) const
PUBLIC 3c2dc 0 std::__ndk1::__function::__func<TagsLevelCell::loadCustomLevelCell()::{lambda(geode::Task<geode::utils::web::WebResponse, geode::utils::web::WebProgress>::Event*)#1}, std::__ndk1::allocator<TagsLevelCell::loadCustomLevelCell()::{lambda(geode::Task<geode::utils::web::WebResponse, geode::utils::web::WebProgress>::Event*)#1}>, void (geode::Task<geode::utils::web::WebResponse, geode::utils::web::WebProgress>::Event*)>::target_type() const
PUBLIC 3c2e8 0 TagsLevelCell::loadCustomLevelCell()::{lambda(geode::Task<geode::utils::web::WebResponse, geode::utils::web::WebProgress>::Event*)#1}::operator()(geode::Task<geode::utils::web::WebResponse, geode::utils::web::WebProgress>::Event*) const
PUBLIC 3c5a8 0 std::__ndk1::__tree<std::__ndk1::__value_type<std::__ndk1::basic_string<char, std::__ndk1::char_traits<char>, std::__ndk1::allocator<char> >, std::__ndk1::shared_ptr<geode::Hook> >, std::__ndk1::__map_value_compare<std::__ndk1::basic_string<char, std::__ndk1::char_traits<char>, std::__ndk1::allocator<char> >, std::__ndk1::__value_type<std::__ndk1::basic_string<char, std::__ndk1::char_traits<char>, std::__ndk1::allocator<char> >, std::__ndk1::shared_ptr<geode::Hook> >, std::__ndk1::less<std::__ndk1::basic_string<char, std::__ndk1::char_traits<char>, std::__ndk1::allocator<char> > >, true>, std::__ndk1::allocator<std::__ndk1::__value_type<std::__ndk1::basic_string<char, std::__ndk1::char_traits<char>, std::__ndk1::allocator<char> >, std::__ndk1::shared_ptr<geode::Hook> > > >::__emplace_unique_key_args<std::__ndk1::basic_string<char, std::__ndk1::char_traits<char>, std::__ndk1::allocator<char> >, std::__ndk1::piecewise_construct_t const&, std::__ndk1::tuple<std::__ndk1::basic_string<char, std::__ndk1::char_traits<char>, std::__ndk1::allocator<char> >&&>, std::__ndk1::tuple<> >(std::__ndk1::basic_string<char, std::__ndk1::char_traits<char>, std::__ndk1::allocator<char> > const&, std::__ndk1::piecewise_construct_t const&, std::__ndk1::tuple<std::__ndk1::basic_string<char, std::__ndk1::char_traits<char>, std::__ndk1::allocator<char> >&&>, std::__ndk1::tuple<>)
PUBLIC 3c720 0 std::__ndk1::__tree_balance_after_insert[abi:ne180000]<std::__ndk1::__tree_node_base<void*>*>(std::__ndk1::__tree_node_base<void*>*, std::__ndk1::__tree_node_base<void*>*)
PUBLIC 3c8d0 0 __cxx_global_var_init.2
PUBLIC 3c930 0 geode::modifier::ModifyBase<geode::modifier::ModifyDerive<TagsLevelInfoLayer, LevelInfoLayer> >::~ModifyBase()
PUBLIC 3c94c 0 geode::modifier::ModifyBase<geode::modifier::ModifyDerive<TagsLevelInfoLayer, LevelInfoLayer> >::ModifyBase()
PUBLIC 3cd48 0 geode::modifier::ModifyDerive<TagsLevelInfoLayer, LevelInfoLayer>::apply()
PUBLIC 3cfc8 0 geode::modifier::ModifyBase<geode::modifier::ModifyDerive<TagsLevelInfoLayer, LevelInfoLayer> >::apply()
PUBLIC 3cfcc 0 geode::Hook::create<bool (*)(TagsLevelInfoLayer*, GJGameLevel*, bool)>(void*, bool (*)(TagsLevelInfoLayer*, GJGameLevel*, bool), std::__ndk1::basic_string<char, std::__ndk1::char_traits<char>, std::__ndk1::allocator<char> > const&, tulip::hook::TulipConvention, tulip::hook::HookMetadata const&)
PUBLIC 3d0e4 0 geode::modifier::AsStaticFunction_init<TagsLevelInfoLayer, bool (TagsLevelInfoLayer::*)(GJGameLevel*, bool)>::Impl<bool (TagsLevelInfoLayer::*)(GJGameLevel*, bool)>::function(TagsLevelInfoLayer*, GJGameLevel*, bool)
PUBLIC 3d0e8 0 tulip::hook::AbstractFunction::from<bool, TagsLevelInfoLayer*, GJGameLevel*, bool>(bool (*)(TagsLevelInfoLayer*, GJGameLevel*, bool))
PUBLIC 3d1f4 0 TagsLevelInfoLayer::init(GJGameLevel*, bool)
PUBLIC 3d384 0 TagsLevelInfoLayer::request(cocos2d::CCObject*)
PUBLIC 3d56c 0 TagsLevelInfoLayer::loadCustomLevelInfoLayer()
PUBLIC 3da08 0 std::__ndk1::vector<std::__ndk1::variant<std::__ndk1::basic_string<char, std::__ndk1::char_traits<char>, std::__ndk1::allocator<char> >, bool>, std::__ndk1::allocator<std::__ndk1::variant<std::__ndk1::basic_string<char, std::__ndk1::char_traits<char>, std::__ndk1::allocator<char> >, bool> > >::vector[abi:ne180000](std::initializer_list<std::__ndk1::variant<std::__ndk1::basic_string<char, std::__ndk1::char_traits<char>, std::__ndk1::allocator<char> >, bool> >)
PUBLIC 3db78 0 std::__ndk1::vector<std::__ndk1::variant<std::__ndk1::basic_string<char, std::__ndk1::char_traits<char>, std::__ndk1::allocator<char> >, bool>, std::__ndk1::allocator<std::__ndk1::variant<std::__ndk1::basic_string<char, std::__ndk1::char_traits<char>, std::__ndk1::allocator<char> >, bool> > >::~vector[abi:ne180000]()
PUBLIC 3dc40 0 std::__ndk1::variant<std::__ndk1::basic_string<char, std::__ndk1::char_traits<char>, std::__ndk1::allocator<char> >, bool>::~variant[abi:ne180000]()
PUBLIC 3dcb4 0 std::__ndk1::__exception_guard_exceptions<std::__ndk1::vector<std::__ndk1::variant<std::__ndk1::basic_string<char, std::__ndk1::char_traits<char>, std::__ndk1::allocator<char> >, bool>, std::__ndk1::allocator<std::__ndk1::variant<std::__ndk1::basic_string<char, std::__ndk1::char_traits<char>, std::__ndk1::allocator<char> >, bool> > >::__destroy_vector>::~__exception_guard_exceptions[abi:ne180000]()
PUBLIC 3dd8c 0 std::__ndk1::vector<std::__ndk1::variant<std::__ndk1::basic_string<char, std::__ndk1::char_traits<char>, std::__ndk1::allocator<char> >, bool>, std::__ndk1::allocator<std::__ndk1::variant<std::__ndk1::basic_string<char, std::__ndk1::char_traits<char>, std::__ndk1::allocator<char> >, bool> > >::__throw_length_error[abi:ne180000]() const
PUBLIC 3dda0 0 std::__ndk1::__exception_guard_exceptions<std::__ndk1::_AllocatorDestroyRangeReverse<std::__ndk1::allocator<std::__ndk1::variant<std::__ndk1::basic_string<char, std::__ndk1::char_traits<char>, std::__ndk1::allocator<char> >, bool> >, std::__ndk1::variant<std::__ndk1::basic_string<char, std::__ndk1::char_traits<char>, std::__ndk1::allocator<char> >, bool>*> >::~__exception_guard_exceptions[abi:ne180000]()
PUBLIC 3de54 0 std::__ndk1::__variant_detail::__visitation::__base::__dispatcher<(unsigned long)0>::__dispatch[abi:ne180000]<std::__ndk1::__variant_detail::__dtor<std::__ndk1::__variant_detail::__traits<std::__ndk1::basic_string<char, std::__ndk1::char_traits<char>, std::__ndk1::allocator<char> >, bool>, (std::__ndk1::__variant_detail::_Trait)1>::__destroy[abi:ne180000]()::{lambda(auto:1&)#1}, std::__ndk1::__variant_detail::__base<(std::__ndk1::__variant_detail::__traits<std::__ndk1::basic_string<char, std::__ndk1::char_traits<char>, std::__ndk1::allocator<char> >, bool>)1, std::__ndk1::allocator<char>, bool>&>(std::__ndk1::__variant_detail::__dtor<std::__ndk1::__variant_detail::__traits<std::__ndk1::basic_string<char, std::__ndk1::char_traits<char>, std::__ndk1::allocator<char> >, bool>, (std::__ndk1::__variant_detail::_Trait)1>, std::__ndk1::__variant_detail::__base<(std::__ndk1::__variant_detail::__traits<std::__ndk1::basic_string<char, std::__ndk1::char_traits<char>, std::__ndk1::allocator<char> >, bool>)1, std::__ndk1::allocator<char>, bool>&)
PUBLIC 3de68 0 std::__ndk1::__variant_detail::__visitation::__base::__dispatcher<(unsigned long)1>::__dispatch[abi:ne180000]<std::__ndk1::__variant_detail::__dtor<std::__ndk1::__variant_detail::__traits<std::__ndk1::basic_string<char, std::__ndk1::char_traits<char>, std::__ndk1::allocator<char> >, bool>, (std::__ndk1::__variant_detail::_Trait)1>::__destroy[abi:ne180000]()::{lambda(auto:1&)#1}, std::__ndk1::__variant_detail::__base<(std::__ndk1::__variant_detail::__traits<std::__ndk1::basic_string<char, std::__ndk1::char_traits<char>, std::__ndk1::allocator<char> >, bool>)1, std::__ndk1::allocator<char>, bool>&>(std::__ndk1::__variant_detail::__dtor<std::__ndk1::__variant_detail::__traits<std::__ndk1::basic_string<char, std::__ndk1::char_traits<char>, std::__ndk1::allocator<char> >, bool>, (std::__ndk1::__variant_detail::_Trait)1>, std::__ndk1::__variant_detail::__base<(std::__ndk1::__variant_detail::__traits<std::__ndk1::basic_string<char, std::__ndk1::char_traits<char>, std::__ndk1::allocator<char> >, bool>)1, std::__ndk1::allocator<char>, bool>&)
PUBLIC 3de6c 0 std::__ndk1::__variant_detail::__visitation::__base::__dispatcher<(unsigned long)0, (unsigned long)0>::__dispatch[abi:ne180000]<std::__ndk1::__variant_detail::__ctor<std::__ndk1::__variant_detail::__traits<std::__ndk1::basic_string<char, std::__ndk1::char_traits<char>, std::__ndk1::allocator<char> >, bool> >::__generic_construct[abi:ne180000]<std::__ndk1::__variant_detail::__copy_constructor<std::__ndk1::basic_string<char, std::__ndk1::char_traits<char>, std::__ndk1::allocator<char> >, (std::__ndk1::__variant_detail::_Trait)1> const&>(std::__ndk1::__variant_detail::__traits<std::__ndk1::basic_string<char, std::__ndk1::char_traits<char>, std::__ndk1::allocator<char> >, bool>&, std::__ndk1::__variant_detail::__copy_constructor<std::__ndk1::basic_string<char, std::__ndk1::char_traits<char>, std::__ndk1::allocator<char> >, (std::__ndk1::__variant_detail::_Trait)1> const&)::{lambda(std::__ndk1::__variant_detail::__copy_constructor<std::__ndk1::basic_string<char, std::__ndk1::char_traits<char>, std::__ndk1::allocator<char> >, (std::__ndk1::__variant_detail::_Trait)1> const&, auto:2&&)#1}, std::__ndk1::__variant_detail::__base<(std::__ndk1::__variant_detail::__ctor<std::__ndk1::__variant_detail::__traits<std::__ndk1::basic_string<char, std::__ndk1::char_traits<char>, std::__ndk1::allocator<char> >, bool> >::__generic_construct[abi:ne180000])1, std::__ndk1::allocator<char>, bool>&, std::__ndk1::__variant_detail::__ctor<std::__ndk1::__variant_detail::__traits<std::__ndk1::basic_string<char, std::__ndk1::char_traits<char>, std::__ndk1::allocator<char> >, bool> >::__generic_construct[abi:ne180000]<std::__ndk1::__variant_detail::__copy_constructor<std::__ndk1::basic_string<char, std::__ndk1::char_traits<char>, std::__ndk1::allocator<char> >, (std::__ndk1::__variant_detail::_Trait)1> const&>(std::__ndk1::__variant_detail::__traits<std::__ndk1::basic_string<char, std::__ndk1::char_traits<char>, std::__ndk1::allocator<char> >, bool>&, std::__ndk1::__variant_detail::__copy_constructor<std::__ndk1::basic_string<char, std::__ndk1::char_traits<char>, std::__ndk1::allocator<char> >, (std::__ndk1::__variant_detail::_Trait)1> const&)::{lambda(std::__ndk1::__variant_detail::__copy_constructor<std::__ndk1::basic_string<char, std::__ndk1::char_traits<char>, std::__ndk1::allocator<char> >, (std::__ndk1::__variant_detail::_Trait)1> const&, auto:2&&)#1} const&>(std::__ndk1::__variant_detail::__copy_constructor<std::__ndk1::basic_string<char, std::__ndk1::char_traits<char>, std::__ndk1::allocator<char> >, (std::__ndk1::__variant_detail::_Trait)1> const&, std::__ndk1::__variant_detail::__base<(std::__ndk1::__variant_detail::__ctor<std::__ndk1::__variant_detail::__traits<std::__ndk1::basic_string<char, std::__ndk1::char_traits<char>, std::__ndk1::allocator<char> >, bool> >::__generic_construct[abi:ne180000])1, std::__ndk1::allocator<char>, bool>&, std::__ndk1::__variant_detail::__ctor<std::__ndk1::__variant_detail::__traits<std::__ndk1::basic_string<char, std::__ndk1::char_traits<char>, std::__ndk1::allocator<char> >, bool> >::__generic_construct[abi:ne180000]<std::__ndk1::__variant_detail::__copy_constructor<std::__ndk1::basic_string<char, std::__ndk1::char_traits<char>, std::__ndk1::allocator<char> >, (std::__ndk1::__variant_detail::_Trait)1> const&>(std::__ndk1::__variant_detail::__traits<std::__ndk1::basic_string<char, std::__ndk1::char_traits<char>, std::__ndk1::allocator<char> >, bool>&, std::__ndk1::__variant_detail::__copy_constructor<std::__ndk1::basic_string<char, std::__ndk1::char_traits<char>, std::__ndk1::allocator<char> >, (std::__ndk1::__variant_detail::_Trait)1> const&)::{lambda(std::__ndk1::__variant_detail::__copy_constructor<std::__ndk1::basic_string<char, std::__ndk1::char_traits<char>, std::__ndk1::allocator<char> >, (std::__ndk1::__variant_detail::_Trait)1> const&, auto:2&&)#1} const&)
PUBLIC 3de98 0 std::__ndk1::__variant_detail::__visitation::__base::__dispatcher<(unsigned long)1, (unsigned long)1>::__dispatch[abi:ne180000]<std::__ndk1::__variant_detail::__ctor<std::__ndk1::__variant_detail::__traits<std::__ndk1::basic_string<char, std::__ndk1::char_traits<char>, std::__ndk1::allocator<char> >, bool> >::__generic_construct[abi:ne180000]<std::__ndk1::__variant_detail::__copy_constructor<std::__ndk1::basic_string<char, std::__ndk1::char_traits<char>, std::__ndk1::allocator<char> >, (std::__ndk1::__variant_detail::_Trait)1> const&>(std::__ndk1::__variant_detail::__traits<std::__ndk1::basic_string<char, std::__ndk1::char_traits<char>, std::__ndk1::allocator<char> >, bool>&, std::__ndk1::__variant_detail::__copy_constructor<std::__ndk1::basic_string<char, std::__ndk1::char_traits<char>, std::__ndk1::allocator<char> >, (std::__ndk1::__variant_detail::_Trait)1> const&)::{lambda(std::__ndk1::__variant_detail::__copy_constructor<std::__ndk1::basic_string<char, std::__ndk1::char_traits<char>, std::__ndk1::allocator<char> >, (std::__ndk1::__variant_detail::_Trait)1> const&, auto:2&&)#1}, std::__ndk1::__variant_detail::__base<(std::__ndk1::__variant_detail::__ctor<std::__ndk1::__variant_detail::__traits<std::__ndk1::basic_string<char, std::__ndk1::char_traits<char>, std::__ndk1::allocator<char> >, bool> >::__generic_construct[abi:ne180000])1, std::__ndk1::allocator<char>, bool>&, std::__ndk1::__variant_detail::__ctor<std::__ndk1::__variant_detail::__traits<std::__ndk1::basic_string<char, std::__ndk1::char_traits<char>, std::__ndk1::allocator<char> >, bool> >::__generic_construct[abi:ne180000]<std::__ndk1::__variant_detail::__copy_constructor<std::__ndk1::basic_string<char, std::__ndk1::char_traits<char>, std::__ndk1::allocator<char> >, (std::__ndk1::__variant_detail::_Trait)1> const&>(std::__ndk1::__variant_detail::__traits<std::__ndk1::basic_string<char, std::__ndk1::char_traits<char>, std::__ndk1::allocator<char> >, bool>&, std::__ndk1::__variant_detail::__copy_constructor<std::__ndk1::basic_string<char, std::__ndk1::char_traits<char>, std::__ndk1::allocator<char> >, (std::__ndk1::__variant_detail::_Trait)1> const&)::{lambda(std::__ndk1::__variant_detail::__copy_constructor<std::__ndk1::basic_string<char, std::__ndk1::char_traits<char>, std::__ndk1::allocator<char> >, (std::__ndk1::__variant_detail::_Trait)1> const&, auto:2&&)#1} const&>(std::__ndk1::__variant_detail::__copy_constructor<std::__ndk1::basic_string<char, std::__ndk1::char_traits<char>, std::__ndk1::allocator<char> >, (std::__ndk1::__variant_detail::_Trait)1> const&, std::__ndk1::__variant_detail::__base<(std::__ndk1::__variant_detail::__ctor<std::__ndk1::__variant_detail::__traits<std::__ndk1::basic_string<char, std::__ndk1::char_traits<char>, std::__ndk1::allocator<char> >, bool> >::__generic_construct[abi:ne180000])1, std::__ndk1::allocator<char>, bool>&, std::__ndk1::__variant_detail::__ctor<std::__ndk1::__variant_detail::__traits<std::__ndk1::basic_string<char, std::__ndk1::char_traits<char>, std::__ndk1::allocator<char> >, bool> >::__generic_construct[abi:ne180000]<std::__ndk1::__variant_detail::__copy_constructor<std::__ndk1::basic_string<char, std::__ndk1::char_traits<char>, std::__ndk1::allocator<char> >, (std::__ndk1::__variant_detail::_Trait)1> const&>(std::__ndk1::__variant_detail::__traits<std::__ndk1::basic_string<char, std::__ndk1::char_traits<char>, std::__ndk1::allocator<char> >, bool>&, std::__ndk1::__variant_detail::__copy_constructor<std::__ndk1::basic_string<char, std::__ndk1::char_traits<char>, std::__ndk1::allocator<char> >, (std::__ndk1::__variant_detail::_Trait)1> const&)::{lambda(std::__ndk1::__variant_detail::__copy_constructor<std::__ndk1::basic_string<char, std::__ndk1::char_traits<char>, std::__ndk1::allocator<char> >, (std::__ndk1::__variant_detail::_Trait)1> const&, auto:2&&)#1} const&)
PUBLIC 3dea4 0 std::__ndk1::__variant_detail::__dtor<std::__ndk1::__variant_detail::__traits<std::__ndk1::basic_string<char, std::__ndk1::char_traits<char>, std::__ndk1::allocator<char> >, bool>, (std::__ndk1::__variant_detail::_Trait)1>::~__dtor()
PUBLIC 3df18 0 TagsLevelInfoLayer::updateTags()
PUBLIC 3e2c0 0 geode::modifier::FieldIntermediate<TagsLevelInfoLayer, LevelInfoLayer>::self()
PUBLIC 3e444 0 geode::modifier::FieldIntermediate<TagsLevelInfoLayer, LevelInfoLayer>::fieldDestructor(void*)
PUBLIC 3e4e8 0 geode::modifier::FieldIntermediate<TagsLevelInfoLayer, LevelInfoLayer>::fieldConstructor(void*)
PUBLIC 3e604 0 TagsLevelInfoLayer::createTagContainer()
PUBLIC 3e728 0 TagsLevelInfoLayer::moreTags(cocos2d::CCObject*)
PUBLIC 3e7c4 0 std::__ndk1::__function::__func<TagsLevelInfoLayer::loadCustomLevelInfoLayer()::{lambda(geode::Task<geode::utils::web::WebResponse, geode::utils::web::WebProgress>::Event*)#1}, std::__ndk1::allocator<TagsLevelInfoLayer::loadCustomLevelInfoLayer()::{lambda(geode::Task<geode::utils::web::WebResponse, geode::utils::web::WebProgress>::Event*)#1}>, void (geode::Task<geode::utils::web::WebResponse, geode::utils::web::WebProgress>::Event*)>::~__func()
PUBLIC 3e7c8 0 std::__ndk1::__function::__func<TagsLevelInfoLayer::loadCustomLevelInfoLayer()::{lambda(geode::Task<geode::utils::web::WebResponse, geode::utils::web::WebProgress>::Event*)#1}, std::__ndk1::allocator<TagsLevelInfoLayer::loadCustomLevelInfoLayer()::{lambda(geode::Task<geode::utils::web::WebResponse, geode::utils::web::WebProgress>::Event*)#1}>, void (geode::Task<geode::utils::web::WebResponse, geode::utils::web::WebProgress>::Event*)>::__clone() const
PUBLIC 3e7fc 0 std::__ndk1::__function::__func<TagsLevelInfoLayer::loadCustomLevelInfoLayer()::{lambda(geode::Task<geode::utils::web::WebResponse, geode::utils::web::WebProgress>::Event*)#1}, std::__ndk1::allocator<TagsLevelInfoLayer::loadCustomLevelInfoLayer()::{lambda(geode::Task<geode::utils::web::WebResponse, geode::utils::web::WebProgress>::Event*)#1}>, void (geode::Task<geode::utils::web::WebResponse, geode::utils::web::WebProgress>::Event*)>::__clone(std::__ndk1::__function::__base<void (geode::Task<geode::utils::web::WebResponse, geode::utils::web::WebProgress>::Event*)>*) const
PUBLIC 3e810 0 std::__ndk1::__function::__func<TagsLevelInfoLayer::loadCustomLevelInfoLayer()::{lambda(geode::Task<geode::utils::web::WebResponse, geode::utils::web::WebProgress>::Event*)#1}, std::__ndk1::allocator<TagsLevelInfoLayer::loadCustomLevelInfoLayer()::{lambda(geode::Task<geode::utils::web::WebResponse, geode::utils::web::WebProgress>::Event*)#1}>, void (geode::Task<geode::utils::web::WebResponse, geode::utils::web::WebProgress>::Event*)>::destroy()
PUBLIC 3e814 0 std::__ndk1::__function::__func<TagsLevelInfoLayer::loadCustomLevelInfoLayer()::{lambda(geode::Task<geode::utils::web::WebResponse, geode::utils::web::WebProgress>::Event*)#1}, std::__ndk1::allocator<TagsLevelInfoLayer::loadCustomLevelInfoLayer()::{lambda(geode::Task<geode::utils::web::WebResponse, geode::utils::web::WebProgress>::Event*)#1}>, void (geode::Task<geode::utils::web::WebResponse, geode::utils::web::WebProgress>::Event*)>::destroy_deallocate()
PUBLIC 3e818 0 std::__ndk1::__function::__func<TagsLevelInfoLayer::loadCustomLevelInfoLayer()::{lambda(geode::Task<geode::utils::web::WebResponse, geode::utils::web::WebProgress>::Event*)#1}, std::__ndk1::allocator<TagsLevelInfoLayer::loadCustomLevelInfoLayer()::{lambda(geode::Task<geode::utils::web::WebResponse, geode::utils::web::WebProgress>::Event*)#1}>, void (geode::Task<geode::utils::web::WebResponse, geode::utils::web::WebProgress>::Event*)>::operator()(geode::Task<geode::utils::web::WebResponse, geode::utils::web::WebProgress>::Event*&&)
PUBLIC 3e824 0 std::__ndk1::__function::__func<TagsLevelInfoLayer::loadCustomLevelInfoLayer()::{lambda(geode::Task<geode::utils::web::WebResponse, geode::utils::web::WebProgress>::Event*)#1}, std::__ndk1::allocator<TagsLevelInfoLayer::loadCustomLevelInfoLayer()::{lambda(geode::Task<geode::utils::web::WebResponse, geode::utils::web::WebProgress>::Event*)#1}>, void (geode::Task<geode::utils::web::WebResponse, geode::utils::web::WebProgress>::Event*)>::target(std::type_info const&) const
PUBLIC 3e840 0 std::__ndk1::__function::__func<TagsLevelInfoLayer::loadCustomLevelInfoLayer()::{lambda(geode::Task<geode::utils::web::WebResponse, geode::utils::web::WebProgress>::Event*)#1}, std::__ndk1::allocator<TagsLevelInfoLayer::loadCustomLevelInfoLayer()::{lambda(geode::Task<geode::utils::web::WebResponse, geode::utils::web::WebProgress>::Event*)#1}>, void (geode::Task<geode::utils::web::WebResponse, geode::utils::web::WebProgress>::Event*)>::target_type() const
PUBLIC 3e84c 0 TagsLevelInfoLayer::loadCustomLevelInfoLayer()::{lambda(geode::Task<geode::utils::web::WebResponse, geode::utils::web::WebProgress>::Event*)#1}::operator()(geode::Task<geode::utils::web::WebResponse, geode::utils::web::WebProgress>::Event*) const
PUBLIC 3eb00 0 __cxx_global_var_init.4
PUBLIC 3ef80 0 geode::modifier::ModifyBase<geode::modifier::ModifyDerive<TagsLevelSearchLayer, LevelSearchLayer> >::~ModifyBase()
PUBLIC 3ef9c 0 geode::modifier::ModifyDerive<TagsLevelSearchLayer, LevelSearchLayer>::apply()
PUBLIC 3f2fc 0 geode::modifier::ModifyBase<geode::modifier::ModifyDerive<TagsLevelSearchLayer, LevelSearchLayer> >::apply()
PUBLIC 3f300 0 geode::modifier::AsStaticFunction_init<TagsLevelSearchLayer, bool (TagsLevelSearchLayer::*)(int)>::Impl<bool (TagsLevelSearchLayer::*)(int)>::function(TagsLevelSearchLayer*, int)
PUBLIC 3f3fc 0 TagsLevelSearchLayer::menu(cocos2d::CCObject*)
PUBLIC 3f450 0 MoreTags::setup(matjson::Value)
PUBLIC 3f8b8 0 MoreTags::create(matjson::Value)
PUBLIC 3fa6c 0 geode::Popup<matjson::Value>::~Popup()
PUBLIC 3fad8 0 MoreTags::~MoreTags()
PUBLIC 3fb4c 0 geode::Popup<matjson::Value>::registerWithTouchDispatcher()
PUBLIC 3fb78 0 geode::Popup<matjson::Value>::keyDown(cocos2d::enumKeyCodes)
PUBLIC 3fba0 0 geode::Popup<matjson::Value>::onClose(cocos2d::CCObject*)
PUBLIC 3fce8 0 {virtual override thunk({offset(-320)}, MoreTags::~MoreTags())}
PUBLIC 3fd54 0 {virtual override thunk({offset(-320)}, MoreTags::~MoreTags())}
PUBLIC 3fdc8 0 {virtual override thunk({offset(-344)}, geode::Popup<matjson::Value>::keyDown(cocos2d::enumKeyCodes))}
PUBLIC 3fdf4 0 geode::Popup<matjson::Value>::~Popup()
PUBLIC 3fdf8 0 {virtual override thunk({offset(-320)}, geode::Popup<matjson::Value>::~Popup())}
PUBLIC 3fe64 0 {virtual override thunk({offset(-320)}, geode::Popup<matjson::Value>::~Popup())}
PUBLIC 3fe68 0 geode::Popup<matjson::Value>::initBase(float, float, matjson::Value, char const*, cocos2d::CCRect, bool)
PUBLIC 40198 0 geode::Popup<matjson::Value>::CloseEvent::~CloseEvent()
PUBLIC 401f8 0 geode::Popup<matjson::Value>::CloseEvent::~CloseEvent()
PUBLIC 40268 0 std::__ndk1::__shared_ptr_emplace<geode::Popup<matjson::Value>::CloseEvent::Impl, std::__ndk1::allocator<geode::Popup<matjson::Value>::CloseEvent::Impl> >::~__shared_ptr_emplace()
PUBLIC 40278 0 std::__ndk1::__shared_ptr_emplace<geode::Popup<matjson::Value>::CloseEvent::Impl, std::__ndk1::allocator<geode::Popup<matjson::Value>::CloseEvent::Impl> >::~__shared_ptr_emplace()
PUBLIC 402a8 0 std::__ndk1::__shared_ptr_emplace<geode::Popup<matjson::Value>::CloseEvent::Impl, std::__ndk1::allocator<geode::Popup<matjson::Value>::CloseEvent::Impl> >::__on_zero_shared()
PUBLIC 402ac 0 std::__ndk1::__shared_ptr_emplace<geode::Popup<matjson::Value>::CloseEvent::Impl, std::__ndk1::allocator<geode::Popup<matjson::Value>::CloseEvent::Impl> >::__on_zero_shared_weak()
PUBLIC 402b0 0 __cxx_global_var_init.2
PUBLIC 40730 0 geode::modifier::ModifyBase<geode::modifier::ModifyDerive<TagsPauseLayer, PauseLayer> >::~ModifyBase()
PUBLIC 4074c 0 geode::modifier::ModifyDerive<TagsPauseLayer, PauseLayer>::apply()
PUBLIC 40a7c 0 geode::modifier::ModifyBase<geode::modifier::ModifyDerive<TagsPauseLayer, PauseLayer> >::apply()
PUBLIC 40a80 0 geode::modifier::AsStaticFunction_customSetup<TagsPauseLayer, void (TagsPauseLayer::*)()>::Impl<void (TagsPauseLayer::*)()>::function(TagsPauseLayer*)
PUBLIC 40f0c 0 geode::addresser::Addresser::addressOfVirtual<void, PauseLayer, >(void (PauseLayer::*)())
PUBLIC 40fb4 0 PauseLayer::PauseLayer(geode::ZeroConstructorType)
PUBLIC 41040 0 TagsPauseLayer::updateTags()
PUBLIC 41468 0 geode::modifier::FieldIntermediate<TagsPauseLayer, PauseLayer>::self()
PUBLIC 416d4 0 geode::modifier::FieldIntermediate<TagsPauseLayer, PauseLayer>::fieldDestructor(void*)
PUBLIC 41778 0 TagsPauseLayer::moreTags(cocos2d::CCObject*)
PUBLIC 41814 0 std::__ndk1::__function::__func<TagsPauseLayer::customSetup()::{lambda(geode::Task<geode::utils::web::WebResponse, geode::utils::web::WebProgress>::Event*)#1}, std::__ndk1::allocator<TagsPauseLayer::customSetup()::{lambda(geode::Task<geode::utils::web::WebResponse, geode::utils::web::WebProgress>::Event*)#1}>, void (geode::Task<geode::utils::web::WebResponse, geode::utils::web::WebProgress>::Event*)>::~__func()
PUBLIC 41818 0 std::__ndk1::__function::__func<TagsPauseLayer::customSetup()::{lambda(geode::Task<geode::utils::web::WebResponse, geode::utils::web::WebProgress>::Event*)#1}, std::__ndk1::allocator<TagsPauseLayer::customSetup()::{lambda(geode::Task<geode::utils::web::WebResponse, geode::utils::web::WebProgress>::Event*)#1}>, void (geode::Task<geode::utils::web::WebResponse, geode::utils::web::WebProgress>::Event*)>::__clone() const
PUBLIC 4184c 0 std::__ndk1::__function::__func<TagsPauseLayer::customSetup()::{lambda(geode::Task<geode::utils::web::WebResponse, geode::utils::web::WebProgress>::Event*)#1}, std::__ndk1::allocator<TagsPauseLayer::customSetup()::{lambda(geode::Task<geode::utils::web::WebResponse, geode::utils::web::WebProgress>::Event*)#1}>, void (geode::Task<geode::utils::web::WebResponse, geode::utils::web::WebProgress>::Event*)>::__clone(std::__ndk1::__function::__base<void (geode::Task<geode::utils::web::WebResponse, geode::utils::web::WebProgress>::Event*)>*) const
PUBLIC 41860 0 std::__ndk1::__function::__func<TagsPauseLayer::customSetup()::{lambda(geode::Task<geode::utils::web::WebResponse, geode::utils::web::WebProgress>::Event*)#1}, std::__ndk1::allocator<TagsPauseLayer::customSetup()::{lambda(geode::Task<geode::utils::web::WebResponse, geode::utils::web::WebProgress>::Event*)#1}>, void (geode::Task<geode::utils::web::WebResponse, geode::utils::web::WebProgress>::Event*)>::destroy()
PUBLIC 41864 0 std::__ndk1::__function::__func<TagsPauseLayer::customSetup()::{lambda(geode::Task<geode::utils::web::WebResponse, geode::utils::web::WebProgress>::Event*)#1}, std::__ndk1::allocator<TagsPauseLayer::customSetup()::{lambda(geode::Task<geode::utils::web::WebResponse, geode::utils::web::WebProgress>::Event*)#1}>, void (geode::Task<geode::utils::web::WebResponse, geode::utils::web::WebProgress>::Event*)>::destroy_deallocate()
PUBLIC 41868 0 std::__ndk1::__function::__func<TagsPauseLayer::customSetup()::{lambda(geode::Task<geode::utils::web::WebResponse, geode::utils::web::WebProgress>::Event*)#1}, std::__ndk1::allocator<TagsPauseLayer::customSetup()::{lambda(geode::Task<geode::utils::web::WebResponse, geode::utils::web::WebProgress>::Event*)#1}>, void (geode::Task<geode::utils::web::WebResponse, geode::utils::web::WebProgress>::Event*)>::operator()(geode::Task<geode::utils::web::WebResponse, geode::utils::web::WebProgress>::Event*&&)
PUBLIC 41b10 0 std::__ndk1::__function::__func<TagsPauseLayer::customSetup()::{lambda(geode::Task<geode::utils::web::WebResponse, geode::utils::web::WebProgress>::Event*)#1}, std::__ndk1::allocator<TagsPauseLayer::customSetup()::{lambda(geode::Task<geode::utils::web::WebResponse, geode::utils::web::WebProgress>::Event*)#1}>, void (geode::Task<geode::utils::web::WebResponse, geode::utils::web::WebProgress>::Event*)>::target(std::type_info const&) const
PUBLIC 41b2c 0 std::__ndk1::__function::__func<TagsPauseLayer::customSetup()::{lambda(geode::Task<geode::utils::web::WebResponse, geode::utils::web::WebProgress>::Event*)#1}, std::__ndk1::allocator<TagsPauseLayer::customSetup()::{lambda(geode::Task<geode::utils::web::WebResponse, geode::utils::web::WebProgress>::Event*)#1}>, void (geode::Task<geode::utils::web::WebResponse, geode::utils::web::WebProgress>::Event*)>::target_type() const
PUBLIC 41b38 0 RequestTag::setup(std::__ndk1::vector<std::__ndk1::variant<std::__ndk1::basic_string<char, std::__ndk1::char_traits<char>, std::__ndk1::allocator<char> >, bool>, std::__ndk1::allocator<std::__ndk1::variant<std::__ndk1::basic_string<char, std::__ndk1::char_traits<char>, std::__ndk1::allocator<char> >, bool> > >)
PUBLIC 420b4 0 RequestTag::discord(cocos2d::CCObject*)
PUBLIC 4216c 0 RequestTag::create(std::__ndk1::vector<std::__ndk1::variant<std::__ndk1::basic_string<char, std::__ndk1::char_traits<char>, std::__ndk1::allocator<char> >, bool>, std::__ndk1::allocator<std::__ndk1::variant<std::__ndk1::basic_string<char, std::__ndk1::char_traits<char>, std::__ndk1::allocator<char> >, bool> > >)
PUBLIC 42388 0 geode::Popup<std::__ndk1::vector<std::__ndk1::variant<std::__ndk1::basic_string<char, std::__ndk1::char_traits<char>, std::__ndk1::allocator<char> >, bool>, std::__ndk1::allocator<std::__ndk1::variant<std::__ndk1::basic_string<char, std::__ndk1::char_traits<char>, std::__ndk1::allocator<char> >, bool> > > >::initAnchored(float, float, std::__ndk1::vector<std::__ndk1::variant<std::__ndk1::basic_string<char, std::__ndk1::char_traits<char>, std::__ndk1::allocator<char> >, bool>, std::__ndk1::allocator<std::__ndk1::variant<std::__ndk1::basic_string<char, std::__ndk1::char_traits<char>, std::__ndk1::allocator<char> >, bool> > >, char const*, cocos2d::CCRect)
PUBLIC 424a4 0 geode::Popup<std::__ndk1::vector<std::__ndk1::variant<std::__ndk1::basic_string<char, std::__ndk1::char_traits<char>, std::__ndk1::allocator<char> >, bool>, std::__ndk1::allocator<std::__ndk1::variant<std::__ndk1::basic_string<char, std::__ndk1::char_traits<char>, std::__ndk1::allocator<char> >, bool> > > >::~Popup()
PUBLIC 42510 0 RequestTag::~RequestTag()
PUBLIC 42584 0 geode::Popup<std::__ndk1::vector<std::__ndk1::variant<std::__ndk1::basic_string<char, std::__ndk1::char_traits<char>, std::__ndk1::allocator<char> >, bool>, std::__ndk1::allocator<std::__ndk1::variant<std::__ndk1::basic_string<char, std::__ndk1::char_traits<char>, std::__ndk1::allocator<char> >, bool> > > >::registerWithTouchDispatcher()
PUBLIC 425b0 0 geode::Popup<std::__ndk1::vector<std::__ndk1::variant<std::__ndk1::basic_string<char, std::__ndk1::char_traits<char>, std::__ndk1::allocator<char> >, bool>, std::__ndk1::allocator<std::__ndk1::variant<std::__ndk1::basic_string<char, std::__ndk1::char_traits<char>, std::__ndk1::allocator<char> >, bool> > > >::keyDown(cocos2d::enumKeyCodes)
PUBLIC 425d8 0 geode::Popup<std::__ndk1::vector<std::__ndk1::variant<std::__ndk1::basic_string<char, std::__ndk1::char_traits<char>, std::__ndk1::allocator<char> >, bool>, std::__ndk1::allocator<std::__ndk1::variant<std::__ndk1::basic_string<char, std::__ndk1::char_traits<char>, std::__ndk1::allocator<char> >, bool> > > >::onClose(cocos2d::CCObject*)
PUBLIC 42720 0 {virtual override thunk({offset(-320)}, RequestTag::~RequestTag())}
PUBLIC 4278c 0 {virtual override thunk({offset(-320)}, RequestTag::~RequestTag())}
PUBLIC 42800 0 {virtual override thunk({offset(-344)}, geode::Popup<std::__ndk1::vector<std::__ndk1::variant<std::__ndk1::basic_string<char, std::__ndk1::char_traits<char>, std::__ndk1::allocator<char> >, bool>, std::__ndk1::allocator<std::__ndk1::variant<std::__ndk1::basic_string<char, std::__ndk1::char_traits<char>, std::__ndk1::allocator<char> >, bool> > > >::keyDown(cocos2d::enumKeyCodes))}
PUBLIC 4282c 0 geode::Popup<std::__ndk1::vector<std::__ndk1::variant<std::__ndk1::basic_string<char, std::__ndk1::char_traits<char>, std::__ndk1::allocator<char> >, bool>, std::__ndk1::allocator<std::__ndk1::variant<std::__ndk1::basic_string<char, std::__ndk1::char_traits<char>, std::__ndk1::allocator<char> >, bool> > > >::~Popup()
PUBLIC 42830 0 {virtual override thunk({offset(-320)}, geode::Popup<std::__ndk1::vector<std::__ndk1::variant<std::__ndk1::basic_string<char, std::__ndk1::char_traits<char>, std::__ndk1::allocator<char> >, bool>, std::__ndk1::allocator<std::__ndk1::variant<std::__ndk1::basic_string<char, std::__ndk1::char_traits<char>, std::__ndk1::allocator<char> >, bool> > > >::~Popup())}
PUBLIC 4289c 0 {virtual override thunk({offset(-320)}, geode::Popup<std::__ndk1::vector<std::__ndk1::variant<std::__ndk1::basic_string<char, std::__ndk1::char_traits<char>, std::__ndk1::allocator<char> >, bool>, std::__ndk1::allocator<std::__ndk1::variant<std::__ndk1::basic_string<char, std::__ndk1::char_traits<char>, std::__ndk1::allocator<char> >, bool> > > >::~Popup())}
PUBLIC 428a0 0 std::__ndk1::vector<std::__ndk1::variant<std::__ndk1::basic_string<char, std::__ndk1::char_traits<char>, std::__ndk1::allocator<char> >, bool>, std::__ndk1::allocator<std::__ndk1::variant<std::__ndk1::basic_string<char, std::__ndk1::char_traits<char>, std::__ndk1::allocator<char> >, bool> > >::__init_with_size[abi:ne180000]<std::__ndk1::variant<std::__ndk1::basic_string<char, std::__ndk1::char_traits<char>, std::__ndk1::allocator<char> >, bool>*, std::__ndk1::vector<std::__ndk1::variant<std::__ndk1::basic_string<char, std::__ndk1::char_traits<char>, std::__ndk1::allocator<char> >, bool>, std::__ndk1::allocator<std::__ndk1::variant<std::__ndk1::basic_string<char, std::__ndk1::char_traits<char>, std::__ndk1::allocator<char> >, bool> > >::__init_with_size[abi:ne180000]>(std::__ndk1::variant<std::__ndk1::basic_string<char, std::__ndk1::char_traits<char>, std::__ndk1::allocator<char> >, bool>*, std::__ndk1::vector<std::__ndk1::variant<std::__ndk1::basic_string<char, std::__ndk1::char_traits<char>, std::__ndk1::allocator<char> >, bool>, std::__ndk1::allocator<std::__ndk1::variant<std::__ndk1::basic_string<char, std::__ndk1::char_traits<char>, std::__ndk1::allocator<char> >, bool> > >::__init_with_size[abi:ne180000], unsigned long)
PUBLIC 42a18 0 geode::Popup<std::__ndk1::vector<std::__ndk1::variant<std::__ndk1::basic_string<char, std::__ndk1::char_traits<char>, std::__ndk1::allocator<char> >, bool>, std::__ndk1::allocator<std::__ndk1::variant<std::__ndk1::basic_string<char, std::__ndk1::char_traits<char>, std::__ndk1::allocator<char> >, bool> > > >::initBase(float, float, std::__ndk1::vector<std::__ndk1::variant<std::__ndk1::basic_string<char, std::__ndk1::char_traits<char>, std::__ndk1::allocator<char> >, bool>, std::__ndk1::allocator<std::__ndk1::variant<std::__ndk1::basic_string<char, std::__ndk1::char_traits<char>, std::__ndk1::allocator<char> >, bool> > >, char const*, cocos2d::CCRect, bool)
PUBLIC 42dc0 0 geode::Popup<std::__ndk1::vector<std::__ndk1::variant<std::__ndk1::basic_string<char, std::__ndk1::char_traits<char>, std::__ndk1::allocator<char> >, bool>, std::__ndk1::allocator<std::__ndk1::variant<std::__ndk1::basic_string<char, std::__ndk1::char_traits<char>, std::__ndk1::allocator<char> >, bool> > > >::CloseEvent::~CloseEvent()
PUBLIC 42e20 0 geode::Popup<std::__ndk1::vector<std::__ndk1::variant<std::__ndk1::basic_string<char, std::__ndk1::char_traits<char>, std::__ndk1::allocator<char> >, bool>, std::__ndk1::allocator<std::__ndk1::variant<std::__ndk1::basic_string<char, std::__ndk1::char_traits<char>, std::__ndk1::allocator<char> >, bool> > > >::CloseEvent::~CloseEvent()
PUBLIC 42e90 0 std::__ndk1::__shared_ptr_emplace<geode::Popup<std::__ndk1::vector<std::__ndk1::variant<std::__ndk1::basic_string<char, std::__ndk1::char_traits<char>, std::__ndk1::allocator<char> >, bool>, std::__ndk1::allocator<std::__ndk1::variant<std::__ndk1::basic_string<char, std::__ndk1::char_traits<char>, std::__ndk1::allocator<char> >, bool> > > >::CloseEvent::Impl, std::__ndk1::allocator<geode::Popup<std::__ndk1::vector<std::__ndk1::variant<std::__ndk1::basic_string<char, std::__ndk1::char_traits<char>, std::__ndk1::allocator<char> >, bool>, std::__ndk1::allocator<std::__ndk1::variant<std::__ndk1::basic_string<char, std::__ndk1::char_traits<char>, std::__ndk1::allocator<char> >, bool> > > >::CloseEvent::Impl> >::~__shared_ptr_emplace()
PUBLIC 42ea0 0 std::__ndk1::__shared_ptr_emplace<geode::Popup<std::__ndk1::vector<std::__ndk1::variant<std::__ndk1::basic_string<char, std::__ndk1::char_traits<char>, std::__ndk1::allocator<char> >, bool>, std::__ndk1::allocator<std::__ndk1::variant<std::__ndk1::basic_string<char, std::__ndk1::char_traits<char>, std::__ndk1::allocator<char> >, bool> > > >::CloseEvent::Impl, std::__ndk1::allocator<geode::Popup<std::__ndk1::vector<std::__ndk1::variant<std::__ndk1::basic_string<char, std::__ndk1::char_traits<char>, std::__ndk1::allocator<char> >, bool>, std::__ndk1::allocator<std::__ndk1::variant<std::__ndk1::basic_string<char, std::__ndk1::char_traits<char>, std::__ndk1::allocator<char> >, bool> > > >::CloseEvent::Impl> >::~__shared_ptr_emplace()
PUBLIC 42ed0 0 std::__ndk1::__shared_ptr_emplace<geode::Popup<std::__ndk1::vector<std::__ndk1::variant<std::__ndk1::basic_string<char, std::__ndk1::char_traits<char>, std::__ndk1::allocator<char> >, bool>, std::__ndk1::allocator<std::__ndk1::variant<std::__ndk1::basic_string<char, std::__ndk1::char_traits<char>, std::__ndk1::allocator<char> >, bool> > > >::CloseEvent::Impl, std::__ndk1::allocator<geode::Popup<std::__ndk1::vector<std::__ndk1::variant<std::__ndk1::basic_string<char, std::__ndk1::char_traits<char>, std::__ndk1::allocator<char> >, bool>, std::__ndk1::allocator<std::__ndk1::variant<std::__ndk1::basic_string<char, std::__ndk1::char_traits<char>, std::__ndk1::allocator<char> >, bool> > > >::CloseEvent::Impl> >::__on_zero_shared()
PUBLIC 42ed4 0 std::__ndk1::__shared_ptr_emplace<geode::Popup<std::__ndk1::vector<std::__ndk1::variant<std::__ndk1::basic_string<char, std::__ndk1::char_traits<char>, std::__ndk1::allocator<char> >, bool>, std::__ndk1::allocator<std::__ndk1::variant<std::__ndk1::basic_string<char, std::__ndk1::char_traits<char>, std::__ndk1::allocator<char> >, bool> > > >::CloseEvent::Impl, std::__ndk1::allocator<geode::Popup<std::__ndk1::vector<std::__ndk1::variant<std::__ndk1::basic_string<char, std::__ndk1::char_traits<char>, std::__ndk1::allocator<char> >, bool>, std::__ndk1::allocator<std::__ndk1::variant<std::__ndk1::basic_string<char, std::__ndk1::char_traits<char>, std::__ndk1::allocator<char> >, bool> > > >::CloseEvent::Impl> >::__on_zero_shared_weak()
PUBLIC 42ed8 0 TagDesc::setup(std::__ndk1::basic_string<char, std::__ndk1::char_traits<char>, std::__ndk1::allocator<char> >)
PUBLIC 43890 0 TagDesc::createDesc(std::__ndk1::basic_string<char, std::__ndk1::char_traits<char>, std::__ndk1::allocator<char> >, matjson::Value)
PUBLIC 43c4c 0 TagDesc::create(std::__ndk1::basic_string<char, std::__ndk1::char_traits<char>, std::__ndk1::allocator<char> >)
PUBLIC 43de8 0 TagDesc::TagDesc()
PUBLIC 43f6c 0 TagDesc::open(cocos2d::CCObject*)
PUBLIC 440c4 0 TagDesc::~TagDesc()
PUBLIC 441f0 0 TagDesc::~TagDesc()
PUBLIC 44214 0 {virtual override thunk({offset(-320)}, TagDesc::~TagDesc())}
PUBLIC 4421c 0 {virtual override thunk({offset(-320)}, TagDesc::~TagDesc())}
PUBLIC 44244 0 std::__ndk1::basic_string<char, std::__ndk1::char_traits<char>, std::__ndk1::allocator<char> >::__assign_external(char const*, unsigned long)
PUBLIC 44344 0 std::__ndk1::__function::__func<TagDesc::setup(std::__ndk1::basic_string<char, std::__ndk1::char_traits<char>, std::__ndk1::allocator<char> >)::$_0, std::__ndk1::allocator<TagDesc::setup(std::__ndk1::basic_string<char, std::__ndk1::char_traits<char>, std::__ndk1::allocator<char> >)::$_0>, void (geode::Task<geode::utils::web::WebResponse, geode::utils::web::WebProgress>::Event*)>::~__func()
PUBLIC 44364 0 std::__ndk1::__function::__func<TagDesc::setup(std::__ndk1::basic_string<char, std::__ndk1::char_traits<char>, std::__ndk1::allocator<char> >)::$_0, std::__ndk1::allocator<TagDesc::setup(std::__ndk1::basic_string<char, std::__ndk1::char_traits<char>, std::__ndk1::allocator<char> >)::$_0>, void (geode::Task<geode::utils::web::WebResponse, geode::utils::web::WebProgress>::Event*)>::~__func()
PUBLIC 443a4 0 std::__ndk1::__function::__func<TagDesc::setup(std::__ndk1::basic_string<char, std::__ndk1::char_traits<char>, std::__ndk1::allocator<char> >)::$_0, std::__ndk1::allocator<TagDesc::setup(std::__ndk1::basic_string<char, std::__ndk1::char_traits<char>, std::__ndk1::allocator<char> >)::$_0>, void (geode::Task<geode::utils::web::WebResponse, geode::utils::web::WebProgress>::Event*)>::__clone() const
PUBLIC 44430 0 std::__ndk1::__function::__func<TagDesc::setup(std::__ndk1::basic_string<char, std::__ndk1::char_traits<char>, std::__ndk1::allocator<char> >)::$_0, std::__ndk1::allocator<TagDesc::setup(std::__ndk1::basic_string<char, std::__ndk1::char_traits<char>, std::__ndk1::allocator<char> >)::$_0>, void (geode::Task<geode::utils::web::WebResponse, geode::utils::web::WebProgress>::Event*)>::__clone(std::__ndk1::__function::__base<void (geode::Task<geode::utils::web::WebResponse, geode::utils::web::WebProgress>::Event*)>*) const
PUBLIC 44474 0 std::__ndk1::__function::__func<TagDesc::setup(std::__ndk1::basic_string<char, std::__ndk1::char_traits<char>, std::__ndk1::allocator<char> >)::$_0, std::__ndk1::allocator<TagDesc::setup(std::__ndk1::basic_string<char, std::__ndk1::char_traits<char>, std::__ndk1::allocator<char> >)::$_0>, void (geode::Task<geode::utils::web::WebResponse, geode::utils::web::WebProgress>::Event*)>::destroy()
PUBLIC 44488 0 std::__ndk1::__function::__func<TagDesc::setup(std::__ndk1::basic_string<char, std::__ndk1::char_traits<char>, std::__ndk1::allocator<char> >)::$_0, std::__ndk1::allocator<TagDesc::setup(std::__ndk1::basic_string<char, std::__ndk1::char_traits<char>, std::__ndk1::allocator<char> >)::$_0>, void (geode::Task<geode::utils::web::WebResponse, geode::utils::web::WebProgress>::Event*)>::destroy_deallocate()
PUBLIC 444bc 0 std::__ndk1::__function::__func<TagDesc::setup(std::__ndk1::basic_string<char, std::__ndk1::char_traits<char>, std::__ndk1::allocator<char> >)::$_0, std::__ndk1::allocator<TagDesc::setup(std::__ndk1::basic_string<char, std::__ndk1::char_traits<char>, std::__ndk1::allocator<char> >)::$_0>, void (geode::Task<geode::utils::web::WebResponse, geode::utils::web::WebProgress>::Event*)>::operator()(geode::Task<geode::utils::web::WebResponse, geode::utils::web::WebProgress>::Event*&&)
PUBLIC 44744 0 std::__ndk1::__function::__func<TagDesc::setup(std::__ndk1::basic_string<char, std::__ndk1::char_traits<char>, std::__ndk1::allocator<char> >)::$_0, std::__ndk1::allocator<TagDesc::setup(std::__ndk1::basic_string<char, std::__ndk1::char_traits<char>, std::__ndk1::allocator<char> >)::$_0>, void (geode::Task<geode::utils::web::WebResponse, geode::utils::web::WebProgress>::Event*)>::target(std::type_info const&) const
PUBLIC 44760 0 std::__ndk1::__function::__func<TagDesc::setup(std::__ndk1::basic_string<char, std::__ndk1::char_traits<char>, std::__ndk1::allocator<char> >)::$_0, std::__ndk1::allocator<TagDesc::setup(std::__ndk1::basic_string<char, std::__ndk1::char_traits<char>, std::__ndk1::allocator<char> >)::$_0>, void (geode::Task<geode::utils::web::WebResponse, geode::utils::web::WebProgress>::Event*)>::target_type() const
PUBLIC 4476c 0 TagInfo::setup(std::__ndk1::basic_string<char, std::__ndk1::char_traits<char>, std::__ndk1::allocator<char> >)
PUBLIC 45514 0 TagInfo::category(cocos2d::CCObject*)
PUBLIC 455f4 0 TagInfo::createMenu(std::__ndk1::basic_string<char, std::__ndk1::char_traits<char>, std::__ndk1::allocator<char> >)
PUBLIC 45858 0 TagInfo::addTagsList(int, std::__ndk1::vector<std::__ndk1::basic_string<char, std::__ndk1::char_traits<char>, std::__ndk1::allocator<char> >, std::__ndk1::allocator<std::__ndk1::basic_string<char, std::__ndk1::char_traits<char>, std::__ndk1::allocator<char> > > >)
PUBLIC 45acc 0 TagInfo::btn(cocos2d::CCObject*)
PUBLIC 45b8c 0 TagInfo::create(std::__ndk1::basic_string<char, std::__ndk1::char_traits<char>, std::__ndk1::allocator<char> >)
PUBLIC 45d28 0 TagInfo::TagInfo()
PUBLIC 45ec4 0 TagInfo::~TagInfo()
PUBLIC 46090 0 TagInfo::~TagInfo()
PUBLIC 460b4 0 {virtual override thunk({offset(-320)}, TagInfo::~TagInfo())}
PUBLIC 460bc 0 {virtual override thunk({offset(-320)}, TagInfo::~TagInfo())}
PUBLIC 460e4 0 TagsManager::sharedState()
PUBLIC 46200 0 TagsManager::sortTags(matjson::Value)
PUBLIC 469e8 0 TagsManager::getTagSprite(std::__ndk1::basic_string<char, std::__ndk1::char_traits<char>, std::__ndk1::allocator<char> >)
PUBLIC 46db0 0 TagsManager::addTag(std::__ndk1::basic_string<char, std::__ndk1::char_traits<char>, std::__ndk1::allocator<char> >, float)
PUBLIC 46f6c 0 std::__ndk1::vector<std::__ndk1::basic_string<char, std::__ndk1::char_traits<char>, std::__ndk1::allocator<char> >, std::__ndk1::allocator<std::__ndk1::basic_string<char, std::__ndk1::char_traits<char>, std::__ndk1::allocator<char> > > >::__assign_with_size[abi:ne180000]<std::__ndk1::basic_string<char, std::__ndk1::char_traits<char>, std::__ndk1::allocator<char> > const*, std::__ndk1::basic_string<char, std::__ndk1::char_traits<char>, std::__ndk1::allocator<char> > const>(std::__ndk1::basic_string<char, std::__ndk1::char_traits<char>, std::__ndk1::allocator<char> > const*, std::__ndk1::basic_string<char, std::__ndk1::char_traits<char>, std::__ndk1::allocator<char> > const, long)
PUBLIC 4734c 0 std::__ndk1::basic_string<char, std::__ndk1::char_traits<char>, std::__ndk1::allocator<char> >::__assign_no_alias<true>(char const*, unsigned long)
PUBLIC 473f8 0 std::__ndk1::basic_string<char, std::__ndk1::char_traits<char>, std::__ndk1::allocator<char> >::__assign_no_alias<false>(char const*, unsigned long)
PUBLIC 47508 0 std::__ndk1::shared_ptr<geode::StringSettingV3>::~shared_ptr[abi:ne180000]()
PUBLIC m 47558 0 geodeImplicitEntry
PUBLIC 47594 0 std::__ndk1::unordered_map<void*, bool, std::__ndk1::hash<void*>, std::__ndk1::equal_to<void*>, std::__ndk1::allocator<std::__ndk1::pair<void* const, bool> > >::~unordered_map[abi:ne180000]()
PUBLIC 475e0 0 wrapFunction(unsigned long, tulip::hook::WrapperMetadata const&)
PUBLIC 47714 0 geode::impl::ResultData<void*, std::__ndk1::basic_string<char, std::__ndk1::char_traits<char>, std::__ndk1::allocator<char> > >::unwrapErr() &
PUBLIC 4778c 0 geode::impl::ResultData<void*, std::__ndk1::basic_string<char, std::__ndk1::char_traits<char>, std::__ndk1::allocator<char> > >::~ResultData()
PUBLIC 47800 0 tulip::hook::WrapperMetadata::~WrapperMetadata()
PUBLIC 47864 0 cocos2d::CCObject::~CCObject()
PUBLIC 47888 0 cocos2d::CCNode::~CCNode()
PUBLIC 478ac 0 {virtual override thunk({offset(-320)}, cocos2d::CCLayer::~CCLayer())}
PUBLIC 478b4 0 cocos2d::CCLayer::~CCLayer()
PUBLIC 478d8 0 {virtual override thunk({offset(-320)}, cocos2d::CCLayer::~CCLayer())}
PUBLIC 47900 0 cocos2d::CCLayerRGBA::~CCLayerRGBA()
PUBLIC 47bd8 0 {virtual override thunk({offset(-320)}, cocos2d::CCLayerRGBA::~CCLayerRGBA())}
PUBLIC 47be0 0 cocos2d::CCLayerRGBA::~CCLayerRGBA()
PUBLIC 47c04 0 {virtual override thunk({offset(-320)}, cocos2d::CCLayerRGBA::~CCLayerRGBA())}
PUBLIC 47c2c 0 cocos2d::CCLayerColor::CCLayerColor()
PUBLIC 47e7c 0 {virtual override thunk({offset(-320)}, cocos2d::CCLayerColor::~CCLayerColor())}
PUBLIC 47e84 0 cocos2d::CCLayerColor::~CCLayerColor()
PUBLIC 47ea8 0 {virtual override thunk({offset(-320)}, cocos2d::CCLayerColor::~CCLayerColor())}
PUBLIC 47ed0 0 {virtual override thunk({offset(-320)}, FLAlertLayer::~FLAlertLayer())}
PUBLIC 47ed8 0 FLAlertLayer::~FLAlertLayer()
PUBLIC 47efc 0 {virtual override thunk({offset(-320)}, FLAlertLayer::~FLAlertLayer())}
PUBLIC 47f24 0 GJSearchObject::create(SearchType, gd::string)
PUBLIC 480a4 0 tulip::hook::AbstractFunction::from<GJSearchObject*, SearchType, gd::string>(GJSearchObject* (*)(SearchType, gd::string))
PUBLIC 48148 0 cocos2d::CCObject::update(float)
PUBLIC 4814c 0 cocos2d::CCLayerColor::~CCLayerColor()
PUBLIC 48408 0 FLAlertLayer::~FLAlertLayer()
PUBLIC 486c4 0 cocos2d::CCNode::~CCNode()
PUBLIC 4893c 0 cocos2d::CCLayer::~CCLayer()
PUBLIC 48c04 0 cocos2d::CCObject::~CCObject()
PUBLIC 490c0 0 _ZN5geode15UnwrapExceptionC2IRPvQsr4implE18IsStringStreamableIT_EEENS_4impl5OkTagEOS4_
PUBLIC 49214 0 std::__ndk1::__variant_detail::__visitation::__base::__dispatcher<(unsigned long)0>::__dispatch[abi:ne180000]<std::__ndk1::__variant_detail::__dtor<std::__ndk1::__variant_detail::__traits<void*, std::__ndk1::basic_string<char, std::__ndk1::char_traits<char>, std::__ndk1::allocator<char> > >, (std::__ndk1::__variant_detail::_Trait)1>::__destroy[abi:ne180000]()::{lambda(auto:1&)#1}, std::__ndk1::__variant_detail::__base<(std::__ndk1::__variant_detail::__traits<void*, std::__ndk1::basic_string<char, std::__ndk1::char_traits<char>, std::__ndk1::allocator<char> > >)1, std::__ndk1::__variant_detail::__traits, std::__ndk1::allocator<char> >&>(std::__ndk1::__variant_detail::__dtor<std::__ndk1::__variant_detail::__traits<void*, std::__ndk1::basic_string<char, std::__ndk1::char_traits<char>, std::__ndk1::allocator<char> > >, (std::__ndk1::__variant_detail::_Trait)1>, std::__ndk1::__variant_detail::__base<(std::__ndk1::__variant_detail::__traits<void*, std::__ndk1::basic_string<char, std::__ndk1::char_traits<char>, std::__ndk1::allocator<char> > >)1, std::__ndk1::__variant_detail::__traits, std::__ndk1::allocator<char> >&)
PUBLIC 49218 0 std::__ndk1::__variant_detail::__visitation::__base::__dispatcher<(unsigned long)1>::__dispatch[abi:ne180000]<std::__ndk1::__variant_detail::__dtor<std::__ndk1::__variant_detail::__traits<void*, std::__ndk1::basic_string<char, std::__ndk1::char_traits<char>, std::__ndk1::allocator<char> > >, (std::__ndk1::__variant_detail::_Trait)1>::__destroy[abi:ne180000]()::{lambda(auto:1&)#1}, std::__ndk1::__variant_detail::__base<(std::__ndk1::__variant_detail::__traits<void*, std::__ndk1::basic_string<char, std::__ndk1::char_traits<char>, std::__ndk1::allocator<char> > >)1, std::__ndk1::__variant_detail::__traits, std::__ndk1::allocator<char> >&>(std::__ndk1::__variant_detail::__dtor<std::__ndk1::__variant_detail::__traits<void*, std::__ndk1::basic_string<char, std::__ndk1::char_traits<char>, std::__ndk1::allocator<char> > >, (std::__ndk1::__variant_detail::_Trait)1>, std::__ndk1::__variant_detail::__base<(std::__ndk1::__variant_detail::__traits<void*, std::__ndk1::basic_string<char, std::__ndk1::char_traits<char>, std::__ndk1::allocator<char> > >)1, std::__ndk1::__variant_detail::__traits, std::__ndk1::allocator<char> >&)
PUBLIC 4922c 0 std::__ndk1::__hash_table<std::__ndk1::__hash_value_type<void*, bool>, std::__ndk1::__unordered_map_hasher<void*, std::__ndk1::__hash_value_type<void*, bool>, std::__ndk1::hash<void*>, std::__ndk1::equal_to<void*>, true>, std::__ndk1::__unordered_map_equal<void*, std::__ndk1::__hash_value_type<void*, bool>, std::__ndk1::equal_to<void*>, std::__ndk1::hash<void*>, true>, std::__ndk1::allocator<std::__ndk1::__hash_value_type<void*, bool> > >::__emplace_unique_key_args<void*, std::__ndk1::piecewise_construct_t const&, std::__ndk1::tuple<void* const&>, std::__ndk1::tuple<> >(void* const&, std::__ndk1::piecewise_construct_t const&, std::__ndk1::tuple<void* const&>, std::__ndk1::tuple<>)
PUBLIC 4970c 0 __udivti3
PUBLIC 49718 0 __udivmodti4
PUBLIC m 49964 0 __eqtf2
PUBLIC 49a04 0 __unordtf2
PUBLIC 49a3c 0 fmt::v11::detail::write_loc(fmt::v11::basic_appender<char>, fmt::v11::loc_value, fmt::v11::format_specs const&, fmt::v11::detail::locale_ref)
PUBLIC 49cd0 0 fmt::v11::format_facet<std::__ndk1::locale>::~format_facet()
PUBLIC 49d4c 0 fmt::v11::report_error(char const*)
PUBLIC 49d9c 0 fmt::v11::format_error::runtime_error(char const*)
PUBLIC 49dc8 0 fmt::v11::format_facet<std::__ndk1::locale>::do_put(fmt::v11::basic_appender<char>, fmt::v11::loc_value, fmt::v11::format_specs const&) const
PUBLIC 4a588 0 fmt::v11::detail::loc_writer<char>::~loc_writer()
PUBLIC 4a5ec 0 fmt::v11::detail::vformat_to<char>(fmt::v11::detail::buffer<char>&, fmt::v11::basic_string_view<char>, fmt::v11::detail::vformat_args<char>::type, fmt::v11::detail::locale_ref)
PUBLIC 4ab5c 0 fmt::v11::detail::is_printable(unsigned int)
PUBLIC 4ad84 0 fmt::v11::detail::dragonbox::to_decimal<float>(float)
PUBLIC 4b060 0 fmt::v11::detail::dragonbox::to_decimal<double>(double)
PUBLIC 4b59c 0 fmt::v11::basic_memory_buffer<char, (unsigned long)500, std::__ndk1::allocator<char> >::grow(fmt::v11::detail::buffer<char>&, unsigned long)
PUBLIC 4b614 0 fmt::v11::format_facet<std::__ndk1::locale>::~format_facet()
PUBLIC 4b6a0 0 fmt::v11::format_error::~format_error()
PUBLIC 4b6c4 0 fmt::v11::detail::copy_noinline<char, char const*, fmt::v11::basic_appender<char> >(char const*, char const*, fmt::v11::basic_appender<char>)
PUBLIC 4b814 0 fmt::v11::detail::default_arg_formatter<char>::operator()<bool>(bool)
PUBLIC 4b87c 0 fmt::v11::detail::default_arg_formatter<char>::operator()<char>(char)
PUBLIC 4b90c 0 fmt::v11::detail::default_arg_formatter<char>::operator()<float>(float)
PUBLIC 4b9f8 0 fmt::v11::detail::default_arg_formatter<char>::operator()<double>(double)
PUBLIC 4bae4 0 fmt::v11::detail::default_arg_formatter<char>::operator()<char const*>(char const*)
PUBLIC 4bb2c 0 fmt::v11::detail::default_arg_formatter<char>::operator()<void const*>(void const*)
PUBLIC 4bbc4 0 _ZN3fmt3v116detail5writeIcNS0_14basic_appenderIcEEiTnNSt6__ndk19enable_ifIXaaaasr11is_integralIT1_EE5valuentsr3std7is_sameIS7_bEE5valuentsr3std7is_sameIS7_T_EE5valueEiE4typeELi0EEET0_SB_S7_
PUBLIC 4be24 0 fmt::v11::detail::copy_noinline<char, char*, fmt::v11::basic_appender<char> >(char*, char*, fmt::v11::basic_appender<char>)
PUBLIC 4bf74 0 _ZN3fmt3v116detail5writeIcNS0_14basic_appenderIcEEjTnNSt6__ndk19enable_ifIXaaaasr11is_integralIT1_EE5valuentsr3std7is_sameIS7_bEE5valuentsr3std7is_sameIS7_T_EE5valueEiE4typeELi0EEET0_SB_S7_
PUBLIC 4c154 0 _ZN3fmt3v116detail5writeIcNS0_14basic_appenderIcEExTnNSt6__ndk19enable_ifIXaaaasr11is_integralIT1_EE5valuentsr3std7is_sameIS7_bEE5valuentsr3std7is_sameIS7_T_EE5valueEiE4typeELi0EEET0_SB_S7_
PUBLIC 4c3d8 0 _ZN3fmt3v116detail5writeIcNS0_14basic_appenderIcEEyTnNSt6__ndk19enable_ifIXaaaasr11is_integralIT1_EE5valuentsr3std7is_sameIS7_bEE5valuentsr3std7is_sameIS7_T_EE5valueEiE4typeELi0EEET0_SB_S7_
PUBLIC 4c5e0 0 _ZN3fmt3v116detail5writeIcNS0_14basic_appenderIcEEnTnNSt6__ndk19enable_ifIXaaaasr11is_integralIT1_EE5valuentsr3std7is_sameIS7_bEE5valuentsr3std7is_sameIS7_T_EE5valueEiE4typeELi0EEET0_SB_S7_
PUBLIC 4c940 0 _ZN3fmt3v116detail5writeIcNS0_14basic_appenderIcEEoTnNSt6__ndk19enable_ifIXaaaasr11is_integralIT1_EE5valuentsr3std7is_sameIS7_bEE5valuentsr3std7is_sameIS7_T_EE5valueEiE4typeELi0EEET0_SB_S7_
PUBLIC 4cc54 0 _ZN3fmt3v116detail5writeIcNS0_14basic_appenderIcEEbTnNSt6__ndk19enable_ifIXsr3std7is_sameIT1_bEE5valueEiE4typeELi0EEET0_SA_S7_RKNS0_12format_specsENS1_10locale_refE
PUBLIC 4cee4 0 fmt::v11::detail::write_int_noinline<char, fmt::v11::basic_appender<char>, unsigned int>(fmt::v11::basic_appender<char>, fmt::v11::detail::write_int_arg<unsigned int>, fmt::v11::format_specs const&, fmt::v11::detail::locale_ref)
PUBLIC 4dcc0 0 fmt::v11::detail::fill<char, fmt::v11::basic_appender<char> >(fmt::v11::basic_appender<char>, unsigned long, fmt::v11::detail::fill_t const&)
PUBLIC 4de90 0 fmt::v11::detail::write_padded<char, (fmt::v11::align::type)1, fmt::v11::basic_appender<char>, fmt::v11::detail::write_char<char, fmt::v11::basic_appender<char> >(fmt::v11::basic_appender<char>, char, fmt::v11::format_specs const&)::{lambda(fmt::v11::basic_appender<char>&)#1}>(fmt::v11::basic_appender<char>, fmt::v11::format_specs const&, unsigned long, unsigned long, fmt::v11::detail::write_char<char, fmt::v11::basic_appender<char> >(fmt::v11::basic_appender<char>, char, fmt::v11::format_specs const&)::{lambda(fmt::v11::basic_appender<char>&)#1})
PUBLIC 4e0cc 0 fmt::v11::detail::write_escaped_cp<fmt::v11::basic_appender<char>, char>(fmt::v11::basic_appender<char>, fmt::v11::detail::find_escape_result<char> const&)
PUBLIC 4e3d8 0 fmt::v11::detail::write_codepoint<(unsigned long)2, char, fmt::v11::basic_appender<char> >(fmt::v11::basic_appender<char>, char, unsigned int)
PUBLIC 4e550 0 fmt::v11::detail::write_codepoint<(unsigned long)8, char, fmt::v11::basic_appender<char> >(fmt::v11::basic_appender<char>, char, unsigned int)
PUBLIC 4e6c8 0 fmt::v11::detail::write_padded<char, (fmt::v11::align::type)1, fmt::v11::basic_appender<char>, fmt::v11::detail::write_nonfinite<char, fmt::v11::basic_appender<char> >(fmt::v11::basic_appender<char>, bool, fmt::v11::format_specs, fmt::v11::sign::type)::{lambda(fmt::v11::basic_appender<char>&)#1}>(fmt::v11::basic_appender<char>, fmt::v11::format_specs const&, unsigned long, unsigned long, fmt::v11::detail::write_nonfinite<char, fmt::v11::basic_appender<char> >(fmt::v11::basic_appender<char>, bool, fmt::v11::format_specs, fmt::v11::sign::type)::{lambda(fmt::v11::basic_appender<char>&)#1})
PUBLIC 4e908 0 fmt::v11::detail::do_write_float<char, fmt::v11::basic_appender<char>, fmt::v11::detail::dragonbox::decimal_fp<float>, fmt::v11::detail::digit_grouping<char> >(fmt::v11::basic_appender<char>, fmt::v11::detail::dragonbox::decimal_fp<float> const&, fmt::v11::format_specs const&, fmt::v11::detail::float_specs, fmt::v11::detail::locale_ref)
PUBLIC 4f57c 0 fmt::v11::detail::do_write_float<char, fmt::v11::basic_appender<char>, fmt::v11::detail::dragonbox::decimal_fp<float>, fmt::v11::detail::digit_grouping<char> >(fmt::v11::basic_appender<char>, fmt::v11::detail::dragonbox::decimal_fp<float> const&, fmt::v11::format_specs const&, fmt::v11::detail::float_specs, fmt::v11::detail::locale_ref)::{lambda(fmt::v11::basic_appender<char>(fmt::v11::basic_appender<char>))#1}::operator() const
PUBLIC 4f6d0 0 fmt::v11::detail::digit_grouping<char>::digit_grouping(fmt::v11::detail::locale_ref, bool)
PUBLIC 4f93c 0 fmt::v11::detail::digit_grouping<char>::~digit_grouping()
PUBLIC 4f980 0 fmt::v11::detail::write_exponent<char, fmt::v11::basic_appender<char> >(int, fmt::v11::basic_appender<char>)
PUBLIC 4fb50 0 _ZN3fmt3v116detail17write_significandIcjTnNSt6__ndk19enable_ifIXsr3std11is_integralIT0_EE5valueEiE4typeELi0EEEPT_S9_S5_iiS8_
PUBLIC 4fccc 0 fmt::v11::detail::digit_grouping<char>::apply<fmt::v11::basic_appender<char>, char>(fmt::v11::basic_appender<char>, fmt::v11::basic_string_view<char>) const
PUBLIC 50084 0 fmt::v11::basic_memory_buffer<int, (unsigned long)500, std::__ndk1::allocator<int> >::grow(fmt::v11::detail::buffer<int>&, unsigned long)
PUBLIC 50124 0 fmt::v11::detail::do_write_float<char, fmt::v11::basic_appender<char>, fmt::v11::detail::dragonbox::decimal_fp<double>, fmt::v11::detail::digit_grouping<char> >(fmt::v11::basic_appender<char>, fmt::v11::detail::dragonbox::decimal_fp<double> const&, fmt::v11::format_specs const&, fmt::v11::detail::float_specs, fmt::v11::detail::locale_ref)
PUBLIC 50dd8 0 fmt::v11::detail::do_write_float<char, fmt::v11::basic_appender<char>, fmt::v11::detail::dragonbox::decimal_fp<double>, fmt::v11::detail::digit_grouping<char> >(fmt::v11::basic_appender<char>, fmt::v11::detail::dragonbox::decimal_fp<double> const&, fmt::v11::format_specs const&, fmt::v11::detail::float_specs, fmt::v11::detail::locale_ref)::{lambda(fmt::v11::basic_appender<char>(fmt::v11::basic_appender<char>))#1}::operator() const
PUBLIC 50f30 0 _ZN3fmt3v116detail17write_significandIcmTnNSt6__ndk19enable_ifIXsr3std11is_integralIT0_EE5valueEiE4typeELi0EEEPT_S9_S5_iiS8_
PUBLIC 510c0 0 fmt::v11::detail::write_float<char, fmt::v11::basic_appender<char>, long double>(fmt::v11::basic_appender<char>, long double, fmt::v11::format_specs, fmt::v11::detail::locale_ref)
PUBLIC 51bbc 0 fmt::v11::detail::write_padded<char, (fmt::v11::align::type)2, fmt::v11::basic_appender<char>, fmt::v11::detail::write_bytes<char, (fmt::v11::align::type)2, fmt::v11::basic_appender<char> >(fmt::v11::basic_appender<char>, fmt::v11::basic_string_view<char>, fmt::v11::format_specs const&)::{lambda(fmt::v11::basic_appender<char>&)#1}>(fmt::v11::basic_appender<char>, fmt::v11::format_specs const&, unsigned long, unsigned long, fmt::v11::detail::write_bytes<char, (fmt::v11::align::type)2, fmt::v11::basic_appender<char> >(fmt::v11::basic_appender<char>, fmt::v11::basic_string_view<char>, fmt::v11::format_specs const&)::{lambda(fmt::v11::basic_appender<char>&)#1})
PUBLIC 51d98 0 fmt::v11::detail::format_dragon(fmt::v11::detail::basic_fp<unsigned __int128>, unsigned int, int, fmt::v11::detail::buffer<char>&, int&)
PUBLIC 531c8 0 fmt::v11::detail::bigint::operator<<=(int)
PUBLIC 532ec 0 fmt::v11::detail::bigint::assign_pow10(int)
PUBLIC 53a48 0 fmt::v11::detail::bigint::divmod_assign(fmt::v11::detail::bigint const&)
PUBLIC 53d68 0 fmt::v11::basic_memory_buffer<unsigned int, (unsigned long)32, std::__ndk1::allocator<unsigned int> >::grow(fmt::v11::detail::buffer<unsigned int>&, unsigned long)
PUBLIC 53e08 0 fmt::v11::detail::do_write_float<char, fmt::v11::basic_appender<char>, fmt::v11::detail::big_decimal_fp, fmt::v11::detail::digit_grouping<char> >(fmt::v11::basic_appender<char>, fmt::v11::detail::big_decimal_fp const&, fmt::v11::format_specs const&, fmt::v11::detail::float_specs, fmt::v11::detail::locale_ref)
PUBLIC 54cb8 0 fmt::v11::detail::do_write_float<char, fmt::v11::basic_appender<char>, fmt::v11::detail::big_decimal_fp, fmt::v11::detail::digit_grouping<char> >(fmt::v11::basic_appender<char>, fmt::v11::detail::big_decimal_fp const&, fmt::v11::format_specs const&, fmt::v11::detail::float_specs, fmt::v11::detail::locale_ref)::{lambda(fmt::v11::basic_appender<char>(fmt::v11::basic_appender<char>))#1}::operator() const
PUBLIC 54e18 0 fmt::v11::detail::write_padded<char, (fmt::v11::align::type)2, fmt::v11::basic_appender<char>, fmt::v11::detail::write_ptr<char, fmt::v11::basic_appender<char>, unsigned long>(fmt::v11::basic_appender<char>, unsigned long, fmt::v11::format_specs const*)::{lambda(fmt::v11::basic_appender<char>&)#1}>(fmt::v11::basic_appender<char>, fmt::v11::format_specs const&, unsigned long, unsigned long, fmt::v11::detail::write_ptr<char, fmt::v11::basic_appender<char>, unsigned long>(fmt::v11::basic_appender<char>, unsigned long, fmt::v11::format_specs const*)::{lambda(fmt::v11::basic_appender<char>&)#1})
PUBLIC 5502c 0 fmt::v11::detail::parse_replacement_field<char, fmt::v11::detail::vformat_to<char>(fmt::v11::detail::buffer<char>&, fmt::v11::basic_string_view<char>, fmt::v11::detail::vformat_args<char>::type, fmt::v11::detail::locale_ref)::format_handler&>(char const*, char const*, fmt::v11::detail::vformat_to<char>(fmt::v11::detail::buffer<char>&, fmt::v11::basic_string_view<char>, fmt::v11::detail::vformat_args<char>::type, fmt::v11::detail::locale_ref)::format_handler&)
PUBLIC 56cc8 0 fmt::v11::detail::parse_dynamic_spec<char>(char const*, char const*, int&, fmt::v11::detail::arg_ref<char>&, fmt::v11::basic_format_parse_context<char>&)
PUBLIC 56f58 0 fmt::v11::basic_format_args<fmt::v11::context>::get<char>(fmt::v11::basic_string_view<char>) const
PUBLIC 570b0 0 fmt::v11::detail::write_int_noinline<char, fmt::v11::basic_appender<char>, unsigned long>(fmt::v11::basic_appender<char>, fmt::v11::detail::write_int_arg<unsigned long>, fmt::v11::format_specs const&, fmt::v11::detail::locale_ref)
PUBLIC 57f04 0 fmt::v11::detail::write_int_noinline<char, fmt::v11::basic_appender<char>, unsigned __int128>(fmt::v11::basic_appender<char>, fmt::v11::detail::write_int_arg<unsigned __int128>, fmt::v11::format_specs const&, fmt::v11::detail::locale_ref)
PUBLIC 58f6c 0 _ZN3fmt3v116detail15format_hexfloatIdTnNSt6__ndk19enable_ifIXntsr16is_double_doubleIT_EE5valueEiE4typeELi0EEEvS5_NS0_12format_specsERNS1_6bufferIcEE
PUBLIC 5948c 0 fmt::v11::detail::format_float<double>(double, int, fmt::v11::detail::float_specs, fmt::v11::detail::buffer<char>&)
PUBLIC 59e2c 0 fmt::v11::detail::write<char, fmt::v11::basic_appender<char> >(fmt::v11::basic_appender<char>, fmt::v11::basic_string_view<char>, fmt::v11::format_specs const&)
PUBLIC 5b1a0 0 fmt::v11::detail::for_each_codepoint<fmt::v11::detail::compute_width(fmt::v11::basic_string_view<char>)::count_code_points>(fmt::v11::basic_string_view<char>, fmt::v11::detail::compute_width(fmt::v11::basic_string_view<char>)::count_code_points)::{lambda(char const*, char const*)#1}::operator()(char const*, char const*) const
PUBLIC 5b358 0 fmt::v11::detail::write_int<fmt::v11::basic_appender<char>, unsigned long, char>(fmt::v11::basic_appender<char>, unsigned long, unsigned int, fmt::v11::format_specs const&, fmt::v11::detail::digit_grouping<char> const&)
PUBLIC 5b8d4 0 fmt::v11::detail::write_int<fmt::v11::basic_appender<char>, unsigned __int128, char>(fmt::v11::basic_appender<char>, unsigned __int128, unsigned int, fmt::v11::format_specs const&, fmt::v11::detail::digit_grouping<char> const&)
PUBLIC 5bf50 0 <.plt ELF section in kampwski.level_tags.android64.so>
STACK CFI INIT 277c0 10 .cfa: sp 0 +
STACK CFI INIT 277d0 8 .cfa: sp 0 +
STACK CFI INIT 277d8 8 .cfa: sp 0 +
STACK CFI INIT 277e0 14 .cfa: sp 0 +
STACK CFI INIT 277f4 1c .cfa: sp 0 +
STACK CFI INIT 27810 10 .cfa: sp 0 +
STACK CFI INIT 27820 134 .cfa: sp 0 +
STACK CFI INIT 27954 84 .cfa: sp 0 +
STACK CFI INIT 279d8 f4 .cfa: sp 0 +
STACK CFI INIT 27acc a8 .cfa: sp 0 +
STACK CFI INIT 27b74 7c .cfa: sp 0 +
STACK CFI INIT 27bf0 14 .cfa: sp 0 +
STACK CFI INIT 27c04 40 .cfa: sp 0 +
STACK CFI INIT 27c44 28 .cfa: sp 0 +
STACK CFI INIT 27c6c 190 .cfa: sp 0 +
STACK CFI INIT 27dfc 2c8 .cfa: sp 0 +
STACK CFI INIT 280c4 8 .cfa: sp 0 +
STACK CFI INIT 280cc 8 .cfa: sp 0 +
STACK CFI INIT 280d4 44 .cfa: sp 0 +
STACK CFI INIT 28118 e8 .cfa: sp 0 +
STACK CFI INIT 28200 e8 .cfa: sp 0 +
STACK CFI INIT 282e8 14 .cfa: sp 0 +
STACK CFI INIT 282fc 10 .cfa: sp 0 +
STACK CFI INIT 2830c 10 .cfa: sp 0 +
STACK CFI INIT 2831c f0 .cfa: sp 0 +
STACK CFI INIT 2840c 44 .cfa: sp 0 +
STACK CFI INIT 28450 c .cfa: sp 0 +
STACK CFI INIT 2845c c .cfa: sp 0 +
STACK CFI INIT 28468 2c .cfa: sp 0 +
STACK CFI INIT 28494 280 .cfa: sp 0 +
STACK CFI INIT 28714 c .cfa: sp 0 +
STACK CFI INIT 28720 120 .cfa: sp 0 +
STACK CFI INIT 28840 488 .cfa: sp 0 +
STACK CFI INIT 28cc8 c48 .cfa: sp 0 +
STACK CFI INIT 29910 134 .cfa: sp 0 +
STACK CFI INIT 29a44 210 .cfa: sp 0 +
STACK CFI INIT 29c54 38c .cfa: sp 0 +
STACK CFI INIT 29fe0 1c8 .cfa: sp 0 +
STACK CFI INIT 2a1a8 9bc .cfa: sp 0 +
STACK CFI INIT 2ab64 2d4 .cfa: sp 0 +
STACK CFI INIT 2ae38 134 .cfa: sp 0 +
STACK CFI INIT 2af6c 120 .cfa: sp 0 +
STACK CFI INIT 2b08c 1c8 .cfa: sp 0 +
STACK CFI INIT 2b254 168 .cfa: sp 0 +
STACK CFI INIT 2b3bc fc .cfa: sp 0 +
STACK CFI INIT 2b4b8 30 .cfa: sp 0 +
STACK CFI INIT 2b620 30 .cfa: sp 0 +
STACK CFI INIT 2b650 98 .cfa: sp 0 +
STACK CFI INIT 2b6e8 59c .cfa: sp 0 +
STACK CFI INIT 2bc84 8c .cfa: sp 0 +
STACK CFI INIT 2bd10 30 .cfa: sp 0 +
STACK CFI INIT 2d4e8 174 .cfa: sp 0 +
STACK CFI 2d4ec .cfa: sp 32 +
STACK CFI 2d4f4 .cfa: x29 32 + x19: .cfa -8 + ^ x20: .cfa -16 + ^ .ra: .cfa -24 + ^ x29: .cfa -32 + ^
STACK CFI 2d5b0 .cfa: sp 32 +
STACK CFI 2d5b8 .cfa: sp 0 +
STACK CFI 2d5bc .cfa: x29 32 +
STACK CFI 2d600 .cfa: sp 32 +
STACK CFI 2d608 .cfa: sp 0 +
STACK CFI 2d60c .cfa: x29 32 +
STACK CFI 2d650 .cfa: sp 32 +
STACK CFI 2d658 .cfa: sp 0 +
STACK CFI INIT 2d8c0 74 .cfa: sp 0 +
STACK CFI INIT 2d934 70 .cfa: sp 0 +
STACK CFI INIT 2dbf0 14 .cfa: sp 0 +
STACK CFI INIT 2dc04 f8 .cfa: sp 0 +
STACK CFI 2dc08 .cfa: sp 32 +
STACK CFI 2dc10 .cfa: x29 32 + x19: .cfa -16 + ^ .ra: .cfa -24 + ^ x29: .cfa -32 + ^
STACK CFI 2dc88 .cfa: sp 32 +
STACK CFI 2dc90 .cfa: sp 0 +
STACK CFI 2dc94 .cfa: x29 32 +
STACK CFI 2dce4 .cfa: sp 32 +
STACK CFI 2dcec .cfa: sp 0 +
STACK CFI 2dcf0 .cfa: sp 32 +
STACK CFI 2dcf8 .cfa: sp 0 +
STACK CFI INIT 2dcfc e0 .cfa: sp 0 +
STACK CFI 2dd00 .cfa: sp 32 +
STACK CFI 2dd08 .cfa: x29 32 + x19: .cfa -8 + ^ x20: .cfa -16 + ^ .ra: .cfa -24 + ^ x29: .cfa -32 + ^
STACK CFI 2dda8 .cfa: sp 32 +
STACK CFI 2ddb0 .cfa: sp 0 +
STACK CFI 2ddb4 .cfa: x29 32 +
STACK CFI 2ddd0 .cfa: sp 32 +
STACK CFI 2ddd8 .cfa: sp 0 +
STACK CFI INIT 2e040 50 .cfa: sp 0 +
STACK CFI 2e044 .cfa: sp 32 +
STACK CFI 2e04c .cfa: x29 32 + x19: .cfa -16 + ^ .ra: .cfa -24 + ^ x29: .cfa -32 + ^
STACK CFI 2e064 .cfa: sp 32 +
STACK CFI 2e06c .cfa: sp 0 +
STACK CFI 2e070 .cfa: x29 32 +
STACK CFI 2e084 .cfa: sp 32 +
STACK CFI 2e08c .cfa: sp 0 +
STACK CFI INIT 2e5b4 1c8 .cfa: sp 0 +
STACK CFI 2e5b8 .cfa: sp 64 +
STACK CFI 2e5c8 .cfa: x29 64 + x19: .cfa -8 + ^ x20: .cfa -16 + ^ x21: .cfa -24 + ^ x22: .cfa -32 + ^ x23: .cfa -40 + ^ x24: .cfa -48 + ^ .ra: .cfa -56 + ^ x29: .cfa -64 + ^
STACK CFI 2e74c .cfa: sp 64 +
STACK CFI 2e75c .cfa: sp 0 +
STACK CFI 2e760 .cfa: x29 64 +
STACK CFI 2e768 .cfa: sp 64 +
STACK CFI 2e778 .cfa: sp 0 +
STACK CFI INIT 2ed34 8 .cfa: sp 0 +
STACK CFI INIT 2ef18 24 .cfa: sp 0 +
STACK CFI 2ef1c .cfa: sp 32 +
STACK CFI 2ef24 .cfa: x29 32 + x19: .cfa -16 + ^ .ra: .cfa -24 + ^ x29: .cfa -32 + ^
STACK CFI 2ef30 .cfa: sp 32 +
STACK CFI 2ef38 .cfa: sp 0 +
STACK CFI INIT 2ef3c 2c .cfa: sp 0 +
STACK CFI 2ef40 .cfa: sp 32 +
STACK CFI 2ef48 .cfa: x29 32 + x19: .cfa -16 + ^ .ra: .cfa -24 + ^ x29: .cfa -32 + ^
STACK CFI 2ef5c .cfa: sp 32 +
STACK CFI 2ef64 .cfa: sp 0 +
STACK CFI INIT 2ef68 28 .cfa: sp 0 +
STACK CFI INIT 2ef90 4 .cfa: sp 0 +
STACK CFI INIT 2ef94 8 .cfa: sp 0 +
STACK CFI INIT 2f0e4 8 .cfa: sp 0 +
STACK CFI INIT 2f0ec 28 .cfa: sp 0 +
STACK CFI 2f0f0 .cfa: sp 32 +
STACK CFI 2f0f8 .cfa: x29 32 + x19: .cfa -16 + ^ .ra: .cfa -24 + ^ x29: .cfa -32 + ^
STACK CFI 2f108 .cfa: sp 32 +
STACK CFI 2f110 .cfa: sp 0 +
STACK CFI INIT 2f114 2c .cfa: sp 0 +
STACK CFI INIT 2f140 4 .cfa: sp 0 +
STACK CFI INIT 2f144 4 .cfa: sp 0 +
STACK CFI INIT 2f148 4 .cfa: sp 0 +
STACK CFI INIT 2f14c 4 .cfa: sp 0 +
STACK CFI INIT 2f150 4 .cfa: sp 0 +
STACK CFI INIT 2f154 8 .cfa: sp 0 +
STACK CFI INIT 2f15c 14 .cfa: sp 0 +
STACK CFI 2f160 .cfa: sp 16 +
STACK CFI 2f164 .cfa: x29 16 + .ra: .cfa -8 + ^ x29: .cfa -16 + ^
STACK CFI INIT 2f1c0 30 .cfa: sp 0 +
STACK CFI 2f1c4 .cfa: sp 32 +
STACK CFI 2f1cc .cfa: x29 32 + x19: .cfa -16 + ^ .ra: .cfa -24 + ^ x29: .cfa -32 + ^
STACK CFI 2f1e4 .cfa: sp 32 +
STACK CFI 2f1ec .cfa: sp 0 +
STACK CFI INIT 2f1f0 34 .cfa: sp 0 +
STACK CFI 2f1f4 .cfa: sp 32 +
STACK CFI 2f1fc .cfa: x29 32 + x19: .cfa -16 + ^ .ra: .cfa -24 + ^ x29: .cfa -32 + ^
STACK CFI INIT 2f224 10 .cfa: sp 0 +
STACK CFI 2f228 .cfa: sp 16 +
STACK CFI 2f22c .cfa: x29 16 + .ra: .cfa -8 + ^ x29: .cfa -16 + ^
STACK CFI INIT 2f234 34 .cfa: sp 0 +
STACK CFI 2f238 .cfa: sp 16 +
STACK CFI 2f23c .cfa: x29 16 + .ra: .cfa -8 + ^ x29: .cfa -16 + ^
STACK CFI INIT 2f268 8 .cfa: sp 0 +
STACK CFI INIT 2f270 14 .cfa: sp 0 +
STACK CFI INIT 2f284 80 .cfa: sp 0 +
STACK CFI 2f288 .cfa: sp 48 +
STACK CFI 2f294 .cfa: x29 48 + x19: .cfa -8 + ^ x20: .cfa -16 + ^ x21: .cfa -24 + ^ x22: .cfa -32 + ^ .ra: .cfa -40 + ^ x29: .cfa -48 + ^
STACK CFI 2f2ac .cfa: sp 48 +
STACK CFI 2f2b8 .cfa: sp 0 +
STACK CFI 2f2bc .cfa: x29 48 +
STACK CFI 2f2ec .cfa: sp 48 +
STACK CFI 2f2f8 .cfa: sp 0 +
STACK CFI 2f2fc .cfa: x29 48 +
STACK CFI INIT 2f52c 68 .cfa: sp 0 +
STACK CFI 2f530 .cfa: sp 32 +
STACK CFI 2f538 .cfa: x29 32 + x19: .cfa -8 + ^ x20: .cfa -16 + ^ .ra: .cfa -24 + ^ x29: .cfa -32 + ^
STACK CFI 2f550 .cfa: sp 32 +
STACK CFI 2f558 .cfa: sp 0 +
STACK CFI 2f55c .cfa: x29 32 +
STACK CFI 2f588 .cfa: sp 32 +
STACK CFI 2f590 .cfa: sp 0 +
STACK CFI INIT 2f594 14 .cfa: sp 0 +
STACK CFI 2f598 .cfa: sp 16 +
STACK CFI 2f59c .cfa: x29 16 + .ra: .cfa -8 + ^ x29: .cfa -16 + ^
STACK CFI INIT 2f614 4 .cfa: sp 0 +
STACK CFI INIT 2f684 4 .cfa: sp 0 +
STACK CFI INIT 2f8a4 4 .cfa: sp 0 +
STACK CFI INIT 2fa74 9c .cfa: sp 0 +
STACK CFI 2fa78 .cfa: sp 32 +
STACK CFI 2fa80 .cfa: x29 32 + x19: .cfa -8 + ^ x20: .cfa -16 + ^ .ra: .cfa -24 + ^ x29: .cfa -32 + ^
STACK CFI 2fb04 .cfa: sp 32 +
STACK CFI 2fb0c .cfa: sp 0 +
STACK CFI INIT 2fb10 a4 .cfa: sp 0 +
STACK CFI 2fb14 .cfa: sp 32 +
STACK CFI 2fb1c .cfa: x29 32 + x19: .cfa -8 + ^ x20: .cfa -16 + ^ .ra: .cfa -24 + ^ x29: .cfa -32 + ^
STACK CFI 2fba8 .cfa: sp 32 +
STACK CFI 2fbb0 .cfa: sp 0 +
STACK CFI INIT 2fbb4 50 .cfa: sp 0 +
STACK CFI 2fbb8 .cfa: sp 32 +
STACK CFI 2fbc0 .cfa: x29 32 + x19: .cfa -16 + ^ .ra: .cfa -24 + ^ x29: .cfa -32 + ^
STACK CFI 2fbd8 .cfa: sp 32 +
STACK CFI 2fbe0 .cfa: sp 0 +
STACK CFI 2fbe4 .cfa: x29 32 +
STACK CFI 2fbf8 .cfa: sp 32 +
STACK CFI 2fc00 .cfa: sp 0 +
STACK CFI INIT 2fc04 50 .cfa: sp 0 +
STACK CFI 2fc08 .cfa: sp 32 +
STACK CFI 2fc10 .cfa: x29 32 + x19: .cfa -16 + ^ .ra: .cfa -24 + ^ x29: .cfa -32 + ^
STACK CFI 2fc28 .cfa: sp 32 +
STACK CFI 2fc30 .cfa: sp 0 +
STACK CFI 2fc34 .cfa: x29 32 +
STACK CFI 2fc48 .cfa: sp 32 +
STACK CFI 2fc50 .cfa: sp 0 +
STACK CFI INIT 2fc54 5c .cfa: sp 0 +
STACK CFI 2fc58 .cfa: sp 32 +
STACK CFI 2fc60 .cfa: x29 32 + x19: .cfa -16 + ^ .ra: .cfa -24 + ^ x29: .cfa -32 + ^
STACK CFI 2fc84 .cfa: sp 32 +
STACK CFI 2fc8c .cfa: sp 0 +
STACK CFI 2fc90 .cfa: x29 32 +
STACK CFI 2fca4 .cfa: sp 32 +
STACK CFI 2fcac .cfa: sp 0 +
STACK CFI INIT 2fcb0 6c .cfa: sp 0 +
STACK CFI 2fcb4 .cfa: sp 32 +
STACK CFI 2fcbc .cfa: x29 32 + x19: .cfa -8 + ^ x20: .cfa -16 + ^ .ra: .cfa -24 + ^ x29: .cfa -32 + ^
STACK CFI 2fce8 .cfa: sp 32 +
STACK CFI 2fcf0 .cfa: sp 0 +
STACK CFI 2fcf4 .cfa: x29 32 +
STACK CFI 2fd10 .cfa: sp 32 +
STACK CFI 2fd18 .cfa: sp 0 +
STACK CFI INIT 2fd1c 58 .cfa: sp 0 +
STACK CFI 2fd20 .cfa: sp 32 +
STACK CFI 2fd28 .cfa: x29 32 + x19: .cfa -8 + ^ x20: .cfa -16 + ^ .ra: .cfa -24 + ^ x29: .cfa -32 + ^
STACK CFI 2fd68 .cfa: sp 32 +
STACK CFI 2fd70 .cfa: sp 0 +
STACK CFI INIT 2fd74 4c .cfa: sp 0 +
STACK CFI 2fd78 .cfa: sp 32 +
STACK CFI 2fd80 .cfa: x29 32 + x19: .cfa -8 + ^ x20: .cfa -16 + ^ .ra: .cfa -24 + ^ x29: .cfa -32 + ^
STACK CFI 2fdb4 .cfa: sp 32 +
STACK CFI 2fdbc .cfa: sp 0 +
STACK CFI INIT 2fdc0 50 .cfa: sp 0 +
STACK CFI 2fdc4 .cfa: sp 32 +
STACK CFI 2fdcc .cfa: x29 32 + x19: .cfa -16 + ^ .ra: .cfa -24 + ^ x29: .cfa -32 + ^
STACK CFI 2fde4 .cfa: sp 32 +
STACK CFI 2fdec .cfa: sp 0 +
STACK CFI 2fdf0 .cfa: x29 32 +
STACK CFI 2fe04 .cfa: sp 32 +
STACK CFI 2fe0c .cfa: sp 0 +
STACK CFI INIT 2fe10 60 .cfa: sp 0 +
STACK CFI 2fe14 .cfa: sp 32 +
STACK CFI 2fe1c .cfa: x29 32 + x19: .cfa -8 + ^ x20: .cfa -16 + ^ .ra: .cfa -24 + ^ x29: .cfa -32 + ^
STACK CFI 2fe3c .cfa: sp 32 +
STACK CFI 2fe44 .cfa: sp 0 +
STACK CFI 2fe48 .cfa: x29 32 +
STACK CFI 2fe64 .cfa: sp 32 +
STACK CFI 2fe6c .cfa: sp 0 +
STACK CFI INIT 2fe70 8 .cfa: sp 0 +
STACK CFI INIT 2fe78 1c .cfa: sp 0 +
STACK CFI INIT 2fe94 c .cfa: sp 0 +
STACK CFI INIT 30070 60 .cfa: sp 0 +
STACK CFI 30074 .cfa: sp 32 +
STACK CFI 3007c .cfa: x29 32 + x19: .cfa -8 + ^ x20: .cfa -16 + ^ .ra: .cfa -24 + ^ x29: .cfa -32 + ^
STACK CFI 3009c .cfa: sp 32 +
STACK CFI 300a4 .cfa: sp 0 +
STACK CFI 300a8 .cfa: x29 32 +
STACK CFI 300c4 .cfa: sp 32 +
STACK CFI 300cc .cfa: sp 0 +
STACK CFI INIT 300d0 70 .cfa: sp 0 +
STACK CFI 300d4 .cfa: sp 32 +
STACK CFI 300dc .cfa: x29 32 + x19: .cfa -8 + ^ x20: .cfa -16 + ^ .ra: .cfa -24 + ^ x29: .cfa -32 + ^
STACK CFI 30104 .cfa: sp 32 +
STACK CFI 3010c .cfa: sp 0 +
STACK CFI 30110 .cfa: x29 32 +
STACK CFI 30134 .cfa: sp 32 +
STACK CFI 3013c .cfa: sp 0 +
STACK CFI INIT 30140 5c .cfa: sp 0 +
STACK CFI 30144 .cfa: sp 32 +
STACK CFI 3014c .cfa: x29 32 + x19: .cfa -16 + ^ .ra: .cfa -24 + ^ x29: .cfa -32 + ^
STACK CFI 30170 .cfa: sp 32 +
STACK CFI 30178 .cfa: sp 0 +
STACK CFI 3017c .cfa: x29 32 +
STACK CFI 30190 .cfa: sp 32 +
STACK CFI 30198 .cfa: sp 0 +
STACK CFI INIT 3019c 6c .cfa: sp 0 +
STACK CFI 301a0 .cfa: sp 32 +
STACK CFI 301a8 .cfa: x29 32 + x19: .cfa -8 + ^ x20: .cfa -16 + ^ .ra: .cfa -24 + ^ x29: .cfa -32 + ^
STACK CFI 301d4 .cfa: sp 32 +
STACK CFI 301dc .cfa: sp 0 +
STACK CFI 301e0 .cfa: x29 32 +
STACK CFI 301fc .cfa: sp 32 +
STACK CFI 30204 .cfa: sp 0 +
STACK CFI INIT 30208 58 .cfa: sp 0 +
STACK CFI 3020c .cfa: sp 32 +
STACK CFI 30214 .cfa: x29 32 + x19: .cfa -8 + ^ x20: .cfa -16 + ^ .ra: .cfa -24 + ^ x29: .cfa -32 + ^
STACK CFI 30254 .cfa: sp 32 +
STACK CFI 3025c .cfa: sp 0 +
STACK CFI INIT 30260 4c .cfa: sp 0 +
STACK CFI 30264 .cfa: sp 32 +
STACK CFI 3026c .cfa: x29 32 + x19: .cfa -8 + ^ x20: .cfa -16 + ^ .ra: .cfa -24 + ^ x29: .cfa -32 + ^
STACK CFI 302a0 .cfa: sp 32 +
STACK CFI 302a8 .cfa: sp 0 +
STACK CFI INIT 302ac 50 .cfa: sp 0 +
STACK CFI 302b0 .cfa: sp 32 +
STACK CFI 302b8 .cfa: x29 32 + x19: .cfa -16 + ^ .ra: .cfa -24 + ^ x29: .cfa -32 + ^
STACK CFI 302d0 .cfa: sp 32 +
STACK CFI 302d8 .cfa: sp 0 +
STACK CFI 302dc .cfa: x29 32 +
STACK CFI 302f0 .cfa: sp 32 +
STACK CFI 302f8 .cfa: sp 0 +
STACK CFI INIT 302fc 60 .cfa: sp 0 +
STACK CFI 30300 .cfa: sp 32 +
STACK CFI 30308 .cfa: x29 32 + x19: .cfa -8 + ^ x20: .cfa -16 + ^ .ra: .cfa -24 + ^ x29: .cfa -32 + ^
STACK CFI 30328 .cfa: sp 32 +
STACK CFI 30330 .cfa: sp 0 +
STACK CFI 30334 .cfa: x29 32 +
STACK CFI 30350 .cfa: sp 32 +
STACK CFI 30358 .cfa: sp 0 +
STACK CFI INIT 3035c 8 .cfa: sp 0 +
STACK CFI INIT 30364 1c .cfa: sp 0 +
STACK CFI INIT 30380 c .cfa: sp 0 +
STACK CFI INIT 30550 104 .cfa: sp 0 +
STACK CFI 30554 .cfa: sp 64 +
STACK CFI 30564 .cfa: x29 64 + x19: .cfa -8 + ^ x20: .cfa -16 + ^ x21: .cfa -24 + ^ x22: .cfa -32 + ^ x23: .cfa -48 + ^ .ra: .cfa -56 + ^ x29: .cfa -64 + ^
STACK CFI 305c0 .cfa: sp 64 +
STACK CFI 305d0 .cfa: sp 0 +
STACK CFI 305d4 .cfa: x29 64 +
STACK CFI 305f0 .cfa: sp 64 +
STACK CFI 30600 .cfa: sp 0 +
STACK CFI 30604 .cfa: x29 64 +
STACK CFI 30640 .cfa: sp 64 +
STACK CFI 30650 .cfa: sp 0 +
STACK CFI INIT 30654 34 .cfa: sp 0 +
STACK CFI 30658 .cfa: sp 16 +
STACK CFI 3065c .cfa: x29 16 + .ra: .cfa -8 + ^ x29: .cfa -16 + ^
STACK CFI INIT 30688 24 .cfa: sp 0 +
STACK CFI 3068c .cfa: sp 32 +
STACK CFI 30694 .cfa: x29 32 + x19: .cfa -16 + ^ .ra: .cfa -24 + ^ x29: .cfa -32 + ^
STACK CFI 306a0 .cfa: sp 32 +
STACK CFI 306a8 .cfa: sp 0 +
STACK CFI INIT 306ac 7c .cfa: sp 0 +
STACK CFI 306b0 .cfa: sp 48 +
STACK CFI 306bc .cfa: x29 48 + x19: .cfa -8 + ^ x20: .cfa -16 + ^ x21: .cfa -32 + ^ .ra: .cfa -40 + ^ x29: .cfa -48 + ^
STACK CFI 30708 .cfa: sp 48 +
STACK CFI 30714 .cfa: sp 0 +
STACK CFI 30718 .cfa: sp 48 +
STACK CFI 30724 .cfa: sp 0 +
STACK CFI INIT 308c0 4 .cfa: sp 0 +
STACK CFI INIT 308c4 38 .cfa: sp 0 +
STACK CFI 308c8 .cfa: sp 32 +
STACK CFI 308d0 .cfa: x29 32 + x19: .cfa -16 + ^ .ra: .cfa -24 + ^ x29: .cfa -32 + ^
STACK CFI 308f0 .cfa: sp 32 +
STACK CFI 308f8 .cfa: sp 0 +
STACK CFI INIT 308fc 18 .cfa: sp 0 +
STACK CFI INIT 30914 4 .cfa: sp 0 +
STACK CFI INIT 30918 4 .cfa: sp 0 +
STACK CFI INIT 3118c 1c .cfa: sp 0 +
STACK CFI INIT 311a8 c .cfa: sp 0 +
STACK CFI INIT 31388 70 .cfa: sp 0 +
STACK CFI 3138c .cfa: sp 48 +
STACK CFI 31398 .cfa: x29 48 + x19: .cfa -8 + ^ x20: .cfa -16 + ^ x21: .cfa -32 + ^ .ra: .cfa -40 + ^ x29: .cfa -48 + ^
STACK CFI 313b0 .cfa: sp 48 +
STACK CFI 313bc .cfa: sp 0 +
STACK CFI 313c0 .cfa: x29 48 +
STACK CFI 313e8 .cfa: sp 48 +
STACK CFI 313f4 .cfa: sp 0 +
STACK CFI INIT 313f8 14 .cfa: sp 0 +
STACK CFI INIT 3140c 14 .cfa: sp 0 +
STACK CFI INIT 31754 114 .cfa: sp 0 +
STACK CFI 31758 .cfa: sp 48 +
STACK CFI 31764 .cfa: x29 48 + x19: .cfa -8 + ^ x20: .cfa -16 + ^ x21: .cfa -24 + ^ x22: .cfa -32 + ^ .ra: .cfa -40 + ^ x29: .cfa -48 + ^
STACK CFI 31840 .cfa: sp 48 +
STACK CFI 3184c .cfa: sp 0 +
STACK CFI 31850 .cfa: sp 48 +
STACK CFI 3185c .cfa: sp 0 +
STACK CFI 31860 .cfa: x29 48 +
STACK CFI INIT 31994 80 .cfa: sp 0 +
STACK CFI 31998 .cfa: sp 48 +
STACK CFI 319a4 .cfa: x29 48 + x19: .cfa -8 + ^ x20: .cfa -16 + ^ x21: .cfa -32 + ^ .ra: .cfa -40 + ^ x29: .cfa -48 + ^
STACK CFI 31a04 .cfa: sp 48 +
STACK CFI 31a10 .cfa: sp 0 +
STACK CFI INIT 31a14 24 .cfa: sp 0 +
STACK CFI 31a18 .cfa: sp 32 +
STACK CFI 31a20 .cfa: x29 32 + x19: .cfa -16 + ^ .ra: .cfa -24 + ^ x29: .cfa -32 + ^
STACK CFI 31a2c .cfa: sp 32 +
STACK CFI 31a34 .cfa: sp 0 +
STACK CFI INIT 31f30 148 .cfa: sp 0 +
STACK CFI 31f34 .cfa: sp 48 +
STACK CFI 31f40 .cfa: x29 48 + x19: .cfa -8 + ^ x20: .cfa -16 + ^ x21: .cfa -32 + ^ .ra: .cfa -40 + ^ x29: .cfa -48 + ^
STACK CFI 32068 .cfa: sp 48 +
STACK CFI 32074 .cfa: sp 0 +
STACK CFI INIT 321e0 168 .cfa: sp 0 +
STACK CFI 321e4 .cfa: sp 48 +
STACK CFI 321f0 .cfa: x29 48 + x19: .cfa -8 + ^ x20: .cfa -16 + ^ x21: .cfa -24 + ^ x22: .cfa -32 + ^ .ra: .cfa -40 + ^ x29: .cfa -48 + ^
STACK CFI 3232c .cfa: sp 48 +
STACK CFI 32338 .cfa: sp 0 +
STACK CFI 3233c .cfa: x29 48 +
STACK CFI INIT 32348 7c .cfa: sp 0 +
STACK CFI 3234c .cfa: sp 48 +
STACK CFI 32358 .cfa: x29 48 + x19: .cfa -8 + ^ x20: .cfa -16 + ^ x21: .cfa -32 + ^ .ra: .cfa -40 + ^ x29: .cfa -48 + ^
STACK CFI 323a4 .cfa: sp 48 +
STACK CFI 323b0 .cfa: sp 0 +
STACK CFI 323b4 .cfa: sp 48 +
STACK CFI 323c0 .cfa: sp 0 +
STACK CFI INIT 323c4 14 .cfa: sp 0 +
STACK CFI INIT 323d8 70 .cfa: sp 0 +
STACK CFI 323dc .cfa: sp 48 +
STACK CFI 323e8 .cfa: x29 48 + x19: .cfa -8 + ^ x20: .cfa -16 + ^ x21: .cfa -32 + ^ .ra: .cfa -40 + ^ x29: .cfa -48 + ^
STACK CFI 32400 .cfa: sp 48 +
STACK CFI 3240c .cfa: sp 0 +
STACK CFI 32410 .cfa: x29 48 +
STACK CFI 32438 .cfa: sp 48 +
STACK CFI 32444 .cfa: sp 0 +
STACK CFI INIT 328fc 50 .cfa: sp 0 +
STACK CFI 32920 .cfa: sp 32 +
STACK CFI 32928 .cfa: x29 32 + x19: .cfa -16 + ^ .ra: .cfa -24 + ^ x29: .cfa -32 + ^
STACK CFI 3293c .cfa: sp 32 +
STACK CFI 32944 .cfa: sp 0 +
STACK CFI INIT 3294c 44c .cfa: sp 0 +
STACK CFI INIT 32d98 1ac .cfa: sp 0 +
STACK CFI 32d9c .cfa: sp 32 +
STACK CFI 32da4 .cfa: x29 32 + x19: .cfa -8 + ^ x20: .cfa -16 + ^ .ra: .cfa -24 + ^ x29: .cfa -32 + ^
STACK CFI 32e94 .cfa: sp 32 +
STACK CFI 32e9c .cfa: sp 0 +
STACK CFI 32ea0 .cfa: x29 32 +
STACK CFI INIT 330b0 8c .cfa: sp 0 +
STACK CFI 330b4 .cfa: sp 48 +
STACK CFI 330c0 .cfa: x29 48 + x19: .cfa -8 + ^ x20: .cfa -16 + ^ x21: .cfa -24 + ^ x22: .cfa -32 + ^ .ra: .cfa -40 + ^ x29: .cfa -48 + ^
STACK CFI 330c8 .cfa: sp 48 +
STACK CFI 330d4 .cfa: sp 0 +
STACK CFI 330d8 .cfa: x29 48 +
STACK CFI 3312c .cfa: sp 48 +
STACK CFI 33138 .cfa: sp 0 +
STACK CFI INIT 3313c 60 .cfa: sp 0 +
STACK CFI 3314c .cfa: sp 32 +
STACK CFI 33154 .cfa: x29 32 + x19: .cfa -8 + ^ x20: .cfa -16 + ^ .ra: .cfa -24 + ^ x29: .cfa -32 + ^
STACK CFI 33190 .cfa: sp 32 +
STACK CFI 33198 .cfa: sp 0 +
STACK CFI INIT 3319c 4 .cfa: sp 0 +
STACK CFI INIT 331a0 4 .cfa: sp 0 +
STACK CFI INIT 331a4 38 .cfa: sp 0 +
STACK CFI 331a8 .cfa: sp 32 +
STACK CFI 331b0 .cfa: x29 32 + x19: .cfa -16 + ^ .ra: .cfa -24 + ^ x29: .cfa -32 + ^
STACK CFI 331d0 .cfa: sp 32 +
STACK CFI 331d8 .cfa: sp 0 +
STACK CFI INIT 331dc 18 .cfa: sp 0 +
STACK CFI INIT 331f4 4 .cfa: sp 0 +
STACK CFI INIT 331f8 4 .cfa: sp 0 +
STACK CFI INIT 34208 1c .cfa: sp 0 +
STACK CFI INIT 34224 c .cfa: sp 0 +
STACK CFI INIT 34230 88 .cfa: sp 0 +
STACK CFI 34234 .cfa: sp 48 +
STACK CFI 34240 .cfa: x29 48 + x19: .cfa -8 + ^ x20: .cfa -16 + ^ x21: .cfa -32 + ^ .ra: .cfa -40 + ^ x29: .cfa -48 + ^
STACK CFI 34260 .cfa: sp 48 +
STACK CFI 3426c .cfa: sp 0 +
STACK CFI 34270 .cfa: x29 48 +
STACK CFI 34298 .cfa: sp 48 +
STACK CFI 342a4 .cfa: sp 0 +
STACK CFI 342a8 .cfa: sp 48 +
STACK CFI 342b4 .cfa: sp 0 +
STACK CFI INIT 342b8 68 .cfa: sp 0 +
STACK CFI 342bc .cfa: sp 32 +
STACK CFI 342c4 .cfa: x29 32 + x19: .cfa -8 + ^ x20: .cfa -16 + ^ .ra: .cfa -24 + ^ x29: .cfa -32 + ^
STACK CFI 342dc .cfa: sp 32 +
STACK CFI 342e4 .cfa: sp 0 +
STACK CFI 342e8 .cfa: x29 32 +
STACK CFI 34314 .cfa: sp 32 +
STACK CFI 3431c .cfa: sp 0 +
STACK CFI INIT 34320 14 .cfa: sp 0 +
STACK CFI 34324 .cfa: sp 16 +
STACK CFI 34328 .cfa: x29 16 + .ra: .cfa -8 + ^ x29: .cfa -16 + ^
STACK CFI INIT 34334 1584 .cfa: sp 0 +
STACK CFI 34338 .cfa: sp 272 +
STACK CFI 34354 .cfa: x29 96 + x19: .cfa -8 + ^ x20: .cfa -16 + ^ x21: .cfa -24 + ^ x22: .cfa -32 + ^ x23: .cfa -40 + ^ x24: .cfa -48 + ^ x25: .cfa -56 + ^ x26: .cfa -64 + ^ x27: .cfa -72 + ^ x28: .cfa -80 + ^ .ra: .cfa -88 + ^ x29: .cfa -96 + ^
STACK CFI 34d18 .cfa: sp 272 +
STACK CFI 34d34 .cfa: sp 0 +
STACK CFI 34d38 .cfa: x29 96 +
STACK CFI 34ddc .cfa: sp 272 +
STACK CFI 34de0 .cfa: x29 96 +
STACK CFI 34e0c .cfa: sp 272 +
STACK CFI 34e28 .cfa: sp 0 +
STACK CFI 34e2c .cfa: x29 96 +
STACK CFI 35894 .cfa: sp 272 +
STACK CFI 358b0 .cfa: sp 0 +
STACK CFI 358b4 .cfa: x29 96 +
STACK CFI INIT 358b8 364 .cfa: sp 0 +
STACK CFI 358bc .cfa: sp 256 +
STACK CFI 358d8 .cfa: x29 96 + x19: .cfa -8 + ^ x20: .cfa -16 + ^ x21: .cfa -24 + ^ x22: .cfa -32 + ^ x23: .cfa -40 + ^ x24: .cfa -48 + ^ x25: .cfa -56 + ^ x26: .cfa -64 + ^ x27: .cfa -80 + ^ .ra: .cfa -88 + ^ x29: .cfa -96 + ^
STACK CFI 35bf8 .cfa: sp 256 +
STACK CFI 35c14 .cfa: sp 0 +
STACK CFI 35c18 .cfa: x29 96 +
STACK CFI INIT 35c1c 45c .cfa: sp 0 +
STACK CFI 35c20 .cfa: sp 224 +
STACK CFI 35c3c .cfa: x29 96 + x19: .cfa -8 + ^ x20: .cfa -16 + ^ x21: .cfa -24 + ^ x22: .cfa -32 + ^ x23: .cfa -40 + ^ x24: .cfa -48 + ^ x25: .cfa -56 + ^ x26: .cfa -64 + ^ x27: .cfa -72 + ^ x28: .cfa -80 + ^ .ra: .cfa -88 + ^ x29: .cfa -96 + ^
STACK CFI 35c7c .cfa: sp 224 +
STACK CFI 35c98 .cfa: sp 0 +
STACK CFI 35c9c .cfa: x29 96 +
STACK CFI INIT 36078 244 .cfa: sp 0 +
STACK CFI 3607c .cfa: sp 192 +
STACK CFI 36098 .cfa: x29 96 + x19: .cfa -8 + ^ x20: .cfa -16 + ^ x21: .cfa -24 + ^ x22: .cfa -32 + ^ x23: .cfa -40 + ^ x24: .cfa -48 + ^ x25: .cfa -56 + ^ x26: .cfa -64 + ^ x27: .cfa -80 + ^ .ra: .cfa -88 + ^ x29: .cfa -96 + ^
STACK CFI 3628c .cfa: sp 192 +
STACK CFI 362a8 .cfa: sp 0 +
STACK CFI 362ac .cfa: x29 96 +
STACK CFI INIT 362bc 2e4 .cfa: sp 0 +
STACK CFI 362c0 .cfa: sp 224 +
STACK CFI 362dc .cfa: x29 96 + x19: .cfa -8 + ^ x20: .cfa -16 + ^ x21: .cfa -24 + ^ x22: .cfa -32 + ^ x23: .cfa -40 + ^ x24: .cfa -48 + ^ x25: .cfa -56 + ^ x26: .cfa -64 + ^ x27: .cfa -72 + ^ x28: .cfa -80 + ^ .ra: .cfa -88 + ^ x29: .cfa -96 + ^
STACK CFI 36570 .cfa: sp 224 +
STACK CFI 3658c .cfa: sp 0 +
STACK CFI 36590 .cfa: x29 96 +
STACK CFI INIT 365a0 164c .cfa: sp 0 +
STACK CFI 365a4 .cfa: sp 240 +
STACK CFI 365c0 .cfa: x29 96 + x19: .cfa -8 + ^ x20: .cfa -16 + ^ x21: .cfa -24 + ^ x22: .cfa -32 + ^ x23: .cfa -40 + ^ x24: .cfa -48 + ^ x25: .cfa -56 + ^ x26: .cfa -64 + ^ x27: .cfa -72 + ^ x28: .cfa -80 + ^ .ra: .cfa -88 + ^ x29: .cfa -96 + ^
STACK CFI 36f18 .cfa: sp 240 +
STACK CFI 36f34 .cfa: sp 0 +
STACK CFI 36f38 .cfa: x29 96 +
STACK CFI 36fb8 .cfa: sp 240 +
STACK CFI 36fd4 .cfa: sp 0 +
STACK CFI 36fd8 .cfa: x29 96 +
STACK CFI 36ffc .cfa: sp 240 +
STACK CFI 37018 .cfa: sp 0 +
STACK CFI 3701c .cfa: x29 96 +
STACK CFI 37bc8 .cfa: sp 240 +
STACK CFI 37be4 .cfa: sp 0 +
STACK CFI 37be8 .cfa: x29 96 +
STACK CFI INIT 37bec 354 .cfa: sp 0 +
STACK CFI 37bf0 .cfa: sp 256 +
STACK CFI 37c0c .cfa: x29 96 + x19: .cfa -8 + ^ x20: .cfa -16 + ^ x21: .cfa -24 + ^ x22: .cfa -32 + ^ x23: .cfa -40 + ^ x24: .cfa -48 + ^ x25: .cfa -56 + ^ x26: .cfa -64 + ^ x27: .cfa -80 + ^ .ra: .cfa -88 + ^ x29: .cfa -96 + ^
STACK CFI 37f1c .cfa: sp 256 +
STACK CFI 37f38 .cfa: sp 0 +
STACK CFI 37f3c .cfa: x29 96 +
STACK CFI INIT 37f40 424 .cfa: sp 0 +
STACK CFI 37f44 .cfa: sp 208 +
STACK CFI 37f60 .cfa: x29 96 + x19: .cfa -8 + ^ x20: .cfa -16 + ^ x21: .cfa -24 + ^ x22: .cfa -32 + ^ x23: .cfa -40 + ^ x24: .cfa -48 + ^ x25: .cfa -56 + ^ x26: .cfa -64 + ^ x27: .cfa -72 + ^ x28: .cfa -80 + ^ .ra: .cfa -88 + ^ x29: .cfa -96 + ^
STACK CFI 37f9c .cfa: sp 208 +
STACK CFI 37fb8 .cfa: sp 0 +
STACK CFI 37fbc .cfa: x29 96 +
STACK CFI INIT 38364 23c .cfa: sp 0 +
STACK CFI 38368 .cfa: sp 192 +
STACK CFI 38384 .cfa: x29 96 + x19: .cfa -8 + ^ x20: .cfa -16 + ^ x21: .cfa -24 + ^ x22: .cfa -32 + ^ x23: .cfa -40 + ^ x24: .cfa -48 + ^ x25: .cfa -56 + ^ x26: .cfa -64 + ^ x27: .cfa -80 + ^ .ra: .cfa -88 + ^ x29: .cfa -96 + ^
STACK CFI 38570 .cfa: sp 192 +
STACK CFI 3858c .cfa: sp 0 +
STACK CFI 38590 .cfa: x29 96 +
STACK CFI INIT 385a0 2d8 .cfa: sp 0 +
STACK CFI 385a4 .cfa: sp 224 +
STACK CFI 385c0 .cfa: x29 96 + x19: .cfa -8 + ^ x20: .cfa -16 + ^ x21: .cfa -24 + ^ x22: .cfa -32 + ^ x23: .cfa -40 + ^ x24: .cfa -48 + ^ x25: .cfa -56 + ^ x26: .cfa -64 + ^ x27: .cfa -72 + ^ x28: .cfa -80 + ^ .ra: .cfa -88 + ^ x29: .cfa -96 + ^
STACK CFI 38848 .cfa: sp 224 +
STACK CFI 38864 .cfa: sp 0 +
STACK CFI 38868 .cfa: x29 96 +
STACK CFI INIT 38878 200 .cfa: sp 0 +
STACK CFI INIT 38dc4 60 .cfa: sp 0 +
STACK CFI 38dc8 .cfa: sp 32 +
STACK CFI 38dd0 .cfa: x29 32 + x19: .cfa -8 + ^ x20: .cfa -16 + ^ .ra: .cfa -24 + ^ x29: .cfa -32 + ^
STACK CFI 38df0 .cfa: sp 32 +
STACK CFI 38df8 .cfa: sp 0 +
STACK CFI 38dfc .cfa: x29 32 +
STACK CFI 38e18 .cfa: sp 32 +
STACK CFI 38e20 .cfa: sp 0 +
STACK CFI INIT 38e24 70 .cfa: sp 0 +
STACK CFI 38e28 .cfa: sp 32 +
STACK CFI 38e30 .cfa: x29 32 + x19: .cfa -8 + ^ x20: .cfa -16 + ^ .ra: .cfa -24 + ^ x29: .cfa -32 + ^
STACK CFI 38e58 .cfa: sp 32 +
STACK CFI 38e60 .cfa: sp 0 +
STACK CFI 38e64 .cfa: x29 32 +
STACK CFI 38e88 .cfa: sp 32 +
STACK CFI 38e90 .cfa: sp 0 +
STACK CFI INIT 38e94 10 .cfa: sp 0 +
STACK CFI INIT 38ea4 30 .cfa: sp 0 +
STACK CFI 38ea8 .cfa: sp 32 +
STACK CFI 38eb0 .cfa: x29 32 + x19: .cfa -16 + ^ .ra: .cfa -24 + ^ x29: .cfa -32 + ^
STACK CFI 38ec8 .cfa: sp 32 +
STACK CFI 38ed0 .cfa: sp 0 +
STACK CFI INIT 38ed4 4 .cfa: sp 0 +
STACK CFI INIT 38ed8 4 .cfa: sp 0 +
STACK CFI INIT 38edc 60 .cfa: sp 0 +
STACK CFI 38eec .cfa: sp 32 +
STACK CFI 38ef4 .cfa: x29 32 + x19: .cfa -16 + ^ .ra: .cfa -24 + ^ x29: .cfa -32 + ^
STACK CFI 38f2c .cfa: sp 32 +
STACK CFI 38f34 .cfa: sp 0 +
STACK CFI INIT 38f3c 1c .cfa: sp 0 +
STACK CFI INIT 395f4 50 .cfa: sp 0 +
STACK CFI 395f8 .cfa: sp 32 +
STACK CFI 39600 .cfa: x29 32 + x19: .cfa -16 + ^ .ra: .cfa -24 + ^ x29: .cfa -32 + ^
STACK CFI 39618 .cfa: sp 32 +
STACK CFI 39620 .cfa: sp 0 +
STACK CFI 39624 .cfa: x29 32 +
STACK CFI 39638 .cfa: sp 32 +
STACK CFI 39640 .cfa: sp 0 +
STACK CFI INIT 396b8 4 .cfa: sp 0 +
STACK CFI INIT 39810 4 .cfa: sp 0 +
STACK CFI INIT 39814 14 .cfa: sp 0 +
STACK CFI INIT 39828 120 .cfa: sp 0 +
STACK CFI 3982c .cfa: sp 64 +
STACK CFI 3983c .cfa: x29 64 + x19: .cfa -8 + ^ x20: .cfa -16 + ^ x21: .cfa -24 + ^ x22: .cfa -32 + ^ x23: .cfa -40 + ^ x24: .cfa -48 + ^ .ra: .cfa -56 + ^ x29: .cfa -64 + ^
STACK CFI 39934 .cfa: sp 64 +
STACK CFI 39944 .cfa: sp 0 +
STACK CFI INIT 39948 d4 .cfa: sp 0 +
STACK CFI 3994c .cfa: sp 48 +
STACK CFI 39958 .cfa: x29 48 + x19: .cfa -8 + ^ x20: .cfa -16 + ^ x21: .cfa -32 + ^ .ra: .cfa -40 + ^ x29: .cfa -48 + ^
STACK CFI 399e8 .cfa: sp 48 +
STACK CFI 399f4 .cfa: sp 0 +
STACK CFI 399f8 .cfa: x29 48 +
STACK CFI INIT 39a1c 3c8 .cfa: sp 0 +
STACK CFI INIT 39de4 8c .cfa: sp 0 +
STACK CFI 39dec .cfa: sp 32 +
STACK CFI 39df4 .cfa: x29 32 + x19: .cfa -8 + ^ x20: .cfa -16 + ^ .ra: .cfa -24 + ^ x29: .cfa -32 + ^
STACK CFI 39e3c .cfa: sp 32 +
STACK CFI 39e44 .cfa: sp 0 +
STACK CFI 39e4c .cfa: x29 32 +
STACK CFI INIT 39fa4 4 .cfa: sp 0 +
STACK CFI INIT 39fa8 50 .cfa: sp 0 +
STACK CFI 39fac .cfa: sp 32 +
STACK CFI 39fb4 .cfa: x29 32 + x19: .cfa -16 + ^ .ra: .cfa -24 + ^ x29: .cfa -32 + ^
STACK CFI 39fcc .cfa: sp 32 +
STACK CFI 39fd4 .cfa: sp 0 +
STACK CFI 39fd8 .cfa: x29 32 +
STACK CFI 39fec .cfa: sp 32 +
STACK CFI 39ff4 .cfa: sp 0 +
STACK CFI INIT 39ff8 64 .cfa: sp 0 +
STACK CFI 39ffc .cfa: sp 32 +
STACK CFI 3a004 .cfa: x29 32 + x19: .cfa -16 + ^ .ra: .cfa -24 + ^ x29: .cfa -32 + ^
STACK CFI 3a030 .cfa: sp 32 +
STACK CFI 3a038 .cfa: sp 0 +
STACK CFI 3a03c .cfa: x29 32 +
STACK CFI 3a050 .cfa: sp 32 +
STACK CFI 3a058 .cfa: sp 0 +
STACK CFI INIT 3a654 418 .cfa: sp 0 +
STACK CFI 3a658 .cfa: sp 32 +
STACK CFI 3a660 .cfa: x29 32 + x19: .cfa -8 + ^ x20: .cfa -16 + ^ .ra: .cfa -24 + ^ x29: .cfa -32 + ^
STACK CFI 3aa54 .cfa: sp 32 +
STACK CFI 3aa5c .cfa: sp 0 +
STACK CFI 3aa60 .cfa: sp 32 +
STACK CFI 3aa68 .cfa: sp 0 +
STACK CFI INIT 3b928 a4 .cfa: sp 0 +
STACK CFI 3b92c .cfa: sp 32 +
STACK CFI 3b934 .cfa: x29 32 + x19: .cfa -8 + ^ x20: .cfa -16 + ^ .ra: .cfa -24 + ^ x29: .cfa -32 + ^
STACK CFI 3b9c0 .cfa: sp 32 +
STACK CFI 3b9c8 .cfa: sp 0 +
STACK CFI INIT 3baec 14 .cfa: sp 0 +
STACK CFI 3baf0 .cfa: sp 16 +
STACK CFI 3baf4 .cfa: x29 16 + .ra: .cfa -8 + ^ x29: .cfa -16 + ^
STACK CFI INIT 3bd2c 14 .cfa: sp 0 +
STACK CFI 3bd30 .cfa: sp 16 +
STACK CFI 3bd34 .cfa: x29 16 + .ra: .cfa -8 + ^ x29: .cfa -16 + ^
STACK CFI INIT 3bd40 14 .cfa: sp 0 +
STACK CFI 3bd44 .cfa: sp 16 +
STACK CFI 3bd48 .cfa: x29 16 + .ra: .cfa -8 + ^ x29: .cfa -16 + ^
STACK CFI INIT 3bda4 30 .cfa: sp 0 +
STACK CFI 3bda8 .cfa: sp 32 +
STACK CFI 3bdb0 .cfa: x29 32 + x19: .cfa -16 + ^ .ra: .cfa -24 + ^ x29: .cfa -32 + ^
STACK CFI 3bdc8 .cfa: sp 32 +
STACK CFI 3bdd0 .cfa: sp 0 +
STACK CFI INIT 3bdd4 14 .cfa: sp 0 +
STACK CFI 3bdd8 .cfa: sp 16 +
STACK CFI 3bddc .cfa: x29 16 + .ra: .cfa -8 + ^ x29: .cfa -16 + ^
STACK CFI INIT 3bde8 4 .cfa: sp 0 +
STACK CFI INIT 3bdec 4 .cfa: sp 0 +
STACK CFI INIT 3bdf0 38 .cfa: sp 0 +
STACK CFI 3bdf4 .cfa: sp 32 +
STACK CFI 3bdfc .cfa: x29 32 + x19: .cfa -16 + ^ .ra: .cfa -24 + ^ x29: .cfa -32 + ^
STACK CFI 3be1c .cfa: sp 32 +
STACK CFI 3be24 .cfa: sp 0 +
STACK CFI INIT 3be28 18 .cfa: sp 0 +
STACK CFI INIT 3be40 4 .cfa: sp 0 +
STACK CFI INIT 3be44 4 .cfa: sp 0 +
STACK CFI INIT 3be48 10 .cfa: sp 0 +
STACK CFI INIT 3be58 1c .cfa: sp 0 +
STACK CFI INIT 3be74 c .cfa: sp 0 +
STACK CFI INIT 3c068 1f8 .cfa: sp 0 +
STACK CFI 3c06c .cfa: sp 32 +
STACK CFI 3c074 .cfa: x29 32 + x19: .cfa -8 + ^ x20: .cfa -16 + ^ .ra: .cfa -24 + ^ x29: .cfa -32 + ^
STACK CFI 3c254 .cfa: sp 32 +
STACK CFI 3c25c .cfa: sp 0 +
STACK CFI INIT 3c260 4 .cfa: sp 0 +
STACK CFI INIT 3c264 34 .cfa: sp 0 +
STACK CFI 3c268 .cfa: sp 32 +
STACK CFI 3c270 .cfa: x29 32 + x19: .cfa -16 + ^ .ra: .cfa -24 + ^ x29: .cfa -32 + ^
STACK CFI 3c28c .cfa: sp 32 +
STACK CFI 3c294 .cfa: sp 0 +
STACK CFI INIT 3c298 14 .cfa: sp 0 +
STACK CFI INIT 3c2ac 4 .cfa: sp 0 +
STACK CFI INIT 3c2b0 4 .cfa: sp 0 +
STACK CFI INIT 3c2b4 c .cfa: sp 0 +
STACK CFI INIT 3c2c0 1c .cfa: sp 0 +
STACK CFI INIT 3c2dc c .cfa: sp 0 +
STACK CFI INIT 3c5a8 178 .cfa: sp 0 +
STACK CFI 3c5ac .cfa: sp 80 +
STACK CFI 3c5c0 .cfa: x29 80 + x19: .cfa -8 + ^ x20: .cfa -16 + ^ x21: .cfa -24 + ^ x22: .cfa -32 + ^ x23: .cfa -40 + ^ x24: .cfa -48 + ^ x25: .cfa -56 + ^ x26: .cfa -64 + ^ .ra: .cfa -72 + ^ x29: .cfa -80 + ^
STACK CFI 3c708 .cfa: sp 80 +
STACK CFI 3c71c .cfa: sp 0 +
STACK CFI INIT 3c720 1b0 .cfa: sp 0 +
STACK CFI INIT 3c8d0 60 .cfa: sp 0 +
STACK CFI 3c8e0 .cfa: sp 32 +
STACK CFI 3c8e8 .cfa: x29 32 + x19: .cfa -16 + ^ .ra: .cfa -24 + ^ x29: .cfa -32 + ^
STACK CFI 3c920 .cfa: sp 32 +
STACK CFI 3c928 .cfa: sp 0 +
STACK CFI INIT 3c930 1c .cfa: sp 0 +
STACK CFI INIT 3cfc8 4 .cfa: sp 0 +
STACK CFI INIT 3d0e4 4 .cfa: sp 0 +
STACK CFI INIT 3dd8c 14 .cfa: sp 0 +
STACK CFI 3dd90 .cfa: sp 16 +
STACK CFI 3dd94 .cfa: x29 16 + .ra: .cfa -8 + ^ x29: .cfa -16 + ^
STACK CFI INIT 3de54 14 .cfa: sp 0 +
STACK CFI INIT 3de68 4 .cfa: sp 0 +
STACK CFI INIT 3de6c 2c .cfa: sp 0 +
STACK CFI INIT 3de98 c .cfa: sp 0 +
STACK CFI INIT 3e444 a4 .cfa: sp 0 +
STACK CFI 3e448 .cfa: sp 32 +
STACK CFI 3e450 .cfa: x29 32 + x19: .cfa -8 + ^ x20: .cfa -16 + ^ .ra: .cfa -24 + ^ x29: .cfa -32 + ^
STACK CFI 3e4dc .cfa: sp 32 +
STACK CFI 3e4e4 .cfa: sp 0 +
STACK CFI INIT 3e7c4 4 .cfa: sp 0 +
STACK CFI INIT 3e7c8 34 .cfa: sp 0 +
STACK CFI 3e7cc .cfa: sp 32 +
STACK CFI 3e7d4 .cfa: x29 32 + x19: .cfa -16 + ^ .ra: .cfa -24 + ^ x29: .cfa -32 + ^
STACK CFI 3e7f0 .cfa: sp 32 +
STACK CFI 3e7f8 .cfa: sp 0 +
STACK CFI INIT 3e7fc 14 .cfa: sp 0 +
STACK CFI INIT 3e810 4 .cfa: sp 0 +
STACK CFI INIT 3e814 4 .cfa: sp 0 +
STACK CFI INIT 3e818 c .cfa: sp 0 +
STACK CFI INIT 3e824 1c .cfa: sp 0 +
STACK CFI INIT 3e840 c .cfa: sp 0 +
STACK CFI INIT 3ef80 1c .cfa: sp 0 +
STACK CFI INIT 3f2fc 4 .cfa: sp 0 +
STACK CFI INIT 3f300 fc .cfa: sp 0 +
STACK CFI 3f304 .cfa: sp 48 +
STACK CFI 3f310 .cfa: x29 48 + x19: .cfa -8 + ^ x20: .cfa -16 + ^ x21: .cfa -32 + ^ .ra: .cfa -40 + ^ x29: .cfa -48 + ^
STACK CFI 3f344 .cfa: sp 48 +
STACK CFI 3f350 .cfa: sp 0 +
STACK CFI 3f354 .cfa: x29 48 +
STACK CFI 3f3ec .cfa: sp 48 +
STACK CFI 3f3f8 .cfa: sp 0 +
STACK CFI INIT 3f3fc 54 .cfa: sp 0 +
STACK CFI 3f400 .cfa: sp 64 +
STACK CFI 3f40c .cfa: x29 32 + x19: .cfa -16 + ^ .ra: .cfa -24 + ^ x29: .cfa -32 + ^
STACK CFI 3f43c .cfa: sp 64 +
STACK CFI 3f448 .cfa: sp 0 +
STACK CFI 3f44c .cfa: x29 32 +
STACK CFI INIT 3fb4c 2c .cfa: sp 0 +
STACK CFI 3fb50 .cfa: sp 32 +
STACK CFI 3fb58 .cfa: x29 32 + x19: .cfa -16 + ^ .ra: .cfa -24 + ^ x29: .cfa -32 + ^
STACK CFI 3fb6c .cfa: sp 32 +
STACK CFI 3fb74 .cfa: sp 0 +
STACK CFI INIT 3fb78 28 .cfa: sp 0 +
STACK CFI INIT 3fdc8 2c .cfa: sp 0 +
STACK CFI INIT 3fdf4 4 .cfa: sp 0 +
STACK CFI INIT 3fe64 4 .cfa: sp 0 +
STACK CFI INIT 40198 60 .cfa: sp 0 +
STACK CFI 4019c .cfa: sp 32 +
STACK CFI 401a4 .cfa: x29 32 + x19: .cfa -8 + ^ x20: .cfa -16 + ^ .ra: .cfa -24 + ^ x29: .cfa -32 + ^
STACK CFI 401c4 .cfa: sp 32 +
STACK CFI 401cc .cfa: sp 0 +
STACK CFI 401d0 .cfa: x29 32 +
STACK CFI 401ec .cfa: sp 32 +
STACK CFI 401f4 .cfa: sp 0 +
STACK CFI INIT 401f8 70 .cfa: sp 0 +
STACK CFI 401fc .cfa: sp 32 +
STACK CFI 40204 .cfa: x29 32 + x19: .cfa -8 + ^ x20: .cfa -16 + ^ .ra: .cfa -24 + ^ x29: .cfa -32 + ^
STACK CFI 4022c .cfa: sp 32 +
STACK CFI 40234 .cfa: sp 0 +
STACK CFI 40238 .cfa: x29 32 +
STACK CFI 4025c .cfa: sp 32 +
STACK CFI 40264 .cfa: sp 0 +
STACK CFI INIT 40268 10 .cfa: sp 0 +
STACK CFI INIT 40278 30 .cfa: sp 0 +
STACK CFI 4027c .cfa: sp 32 +
STACK CFI 40284 .cfa: x29 32 + x19: .cfa -16 + ^ .ra: .cfa -24 + ^ x29: .cfa -32 + ^
STACK CFI 4029c .cfa: sp 32 +
STACK CFI 402a4 .cfa: sp 0 +
STACK CFI INIT 402a8 4 .cfa: sp 0 +
STACK CFI INIT 402ac 4 .cfa: sp 0 +
STACK CFI INIT 40730 1c .cfa: sp 0 +
STACK CFI INIT 40a7c 4 .cfa: sp 0 +
STACK CFI INIT 40fb4 8c .cfa: sp 0 +
STACK CFI 40fb8 .cfa: sp 32 +
STACK CFI 40fc0 .cfa: x29 32 + x19: .cfa -16 + ^ .ra: .cfa -24 + ^ x29: .cfa -32 + ^
STACK CFI 41034 .cfa: sp 32 +
STACK CFI 4103c .cfa: sp 0 +
STACK CFI INIT 416d4 a4 .cfa: sp 0 +
STACK CFI 416d8 .cfa: sp 32 +
STACK CFI 416e0 .cfa: x29 32 + x19: .cfa -8 + ^ x20: .cfa -16 + ^ .ra: .cfa -24 + ^ x29: .cfa -32 + ^
STACK CFI 4176c .cfa: sp 32 +
STACK CFI 41774 .cfa: sp 0 +
STACK CFI INIT 41814 4 .cfa: sp 0 +
STACK CFI INIT 41818 34 .cfa: sp 0 +
STACK CFI 4181c .cfa: sp 32 +
STACK CFI 41824 .cfa: x29 32 + x19: .cfa -16 + ^ .ra: .cfa -24 + ^ x29: .cfa -32 + ^
STACK CFI 41840 .cfa: sp 32 +
STACK CFI 41848 .cfa: sp 0 +
STACK CFI INIT 4184c 14 .cfa: sp 0 +
STACK CFI INIT 41860 4 .cfa: sp 0 +
STACK CFI INIT 41864 4 .cfa: sp 0 +
STACK CFI INIT 41b10 1c .cfa: sp 0 +
STACK CFI INIT 41b2c c .cfa: sp 0 +
STACK CFI INIT 42584 2c .cfa: sp 0 +
STACK CFI 42588 .cfa: sp 32 +
STACK CFI 42590 .cfa: x29 32 + x19: .cfa -16 + ^ .ra: .cfa -24 + ^ x29: .cfa -32 + ^
STACK CFI 425a4 .cfa: sp 32 +
STACK CFI 425ac .cfa: sp 0 +
STACK CFI INIT 425b0 28 .cfa: sp 0 +
STACK CFI INIT 42800 2c .cfa: sp 0 +
STACK CFI INIT 4282c 4 .cfa: sp 0 +
STACK CFI INIT 4289c 4 .cfa: sp 0 +
STACK CFI INIT 42dc0 60 .cfa: sp 0 +
STACK CFI 42dc4 .cfa: sp 32 +
STACK CFI 42dcc .cfa: x29 32 + x19: .cfa -8 + ^ x20: .cfa -16 + ^ .ra: .cfa -24 + ^ x29: .cfa -32 + ^
STACK CFI 42dec .cfa: sp 32 +
STACK CFI 42df4 .cfa: sp 0 +
STACK CFI 42df8 .cfa: x29 32 +
STACK CFI 42e14 .cfa: sp 32 +
STACK CFI 42e1c .cfa: sp 0 +
STACK CFI INIT 42e20 70 .cfa: sp 0 +
STACK CFI 42e24 .cfa: sp 32 +
STACK CFI 42e2c .cfa: x29 32 + x19: .cfa -8 + ^ x20: .cfa -16 + ^ .ra: .cfa -24 + ^ x29: .cfa -32 + ^
STACK CFI 42e54 .cfa: sp 32 +
STACK CFI 42e5c .cfa: sp 0 +
STACK CFI 42e60 .cfa: x29 32 +
STACK CFI 42e84 .cfa: sp 32 +
STACK CFI 42e8c .cfa: sp 0 +
STACK CFI INIT 42e90 10 .cfa: sp 0 +
STACK CFI INIT 42ea0 30 .cfa: sp 0 +
STACK CFI 42ea4 .cfa: sp 32 +
STACK CFI 42eac .cfa: x29 32 + x19: .cfa -16 + ^ .ra: .cfa -24 + ^ x29: .cfa -32 + ^
STACK CFI 42ec4 .cfa: sp 32 +
STACK CFI 42ecc .cfa: sp 0 +
STACK CFI INIT 42ed0 4 .cfa: sp 0 +
STACK CFI INIT 42ed4 4 .cfa: sp 0 +
STACK CFI INIT 441f0 24 .cfa: sp 0 +
STACK CFI 441f4 .cfa: sp 32 +
STACK CFI 441fc .cfa: x29 32 + x19: .cfa -16 + ^ .ra: .cfa -24 + ^ x29: .cfa -32 + ^
STACK CFI 44208 .cfa: sp 32 +
STACK CFI 44210 .cfa: sp 0 +
STACK CFI INIT 44214 8 .cfa: sp 0 +
STACK CFI INIT 4421c 28 .cfa: sp 0 +
STACK CFI 44220 .cfa: sp 32 +
STACK CFI 44228 .cfa: x29 32 + x19: .cfa -16 + ^ .ra: .cfa -24 + ^ x29: .cfa -32 + ^
STACK CFI 44238 .cfa: sp 32 +
STACK CFI 44240 .cfa: sp 0 +
STACK CFI INIT 44244 100 .cfa: sp 0 +
STACK CFI 44248 .cfa: sp 64 +
STACK CFI 44258 .cfa: x29 64 + x19: .cfa -8 + ^ x20: .cfa -16 + ^ x21: .cfa -24 + ^ x22: .cfa -32 + ^ x23: .cfa -40 + ^ x24: .cfa -48 + ^ .ra: .cfa -56 + ^ x29: .cfa -64 + ^
STACK CFI 44330 .cfa: sp 64 +
STACK CFI 44340 .cfa: sp 0 +
STACK CFI INIT 44344 20 .cfa: sp 0 +
STACK CFI INIT 44364 40 .cfa: sp 0 +
STACK CFI 4437c .cfa: sp 32 +
STACK CFI 44384 .cfa: x29 32 + x19: .cfa -16 + ^ .ra: .cfa -24 + ^ x29: .cfa -32 + ^
STACK CFI 44398 .cfa: sp 32 +
STACK CFI 443a0 .cfa: sp 0 +
STACK CFI INIT 44430 44 .cfa: sp 0 +
STACK CFI INIT 44474 14 .cfa: sp 0 +
STACK CFI INIT 44488 34 .cfa: sp 0 +
STACK CFI 44494 .cfa: sp 32 +
STACK CFI 4449c .cfa: x29 32 + x19: .cfa -16 + ^ .ra: .cfa -24 + ^ x29: .cfa -32 + ^
STACK CFI 444b0 .cfa: sp 32 +
STACK CFI 444b8 .cfa: sp 0 +
STACK CFI INIT 44744 1c .cfa: sp 0 +
STACK CFI INIT 44760 c .cfa: sp 0 +
STACK CFI INIT 45514 e0 .cfa: sp 0 +
STACK CFI 45518 .cfa: sp 32 +
STACK CFI 45520 .cfa: x29 32 + x19: .cfa -8 + ^ x20: .cfa -16 + ^ .ra: .cfa -24 + ^ x29: .cfa -32 + ^
STACK CFI 455c0 .cfa: sp 32 +
STACK CFI 455c8 .cfa: sp 0 +
STACK CFI 455cc .cfa: x29 32 +
STACK CFI 455e8 .cfa: sp 32 +
STACK CFI 455f0 .cfa: sp 0 +
STACK CFI INIT 46090 24 .cfa: sp 0 +
STACK CFI 46094 .cfa: sp 32 +
STACK CFI 4609c .cfa: x29 32 + x19: .cfa -16 + ^ .ra: .cfa -24 + ^ x29: .cfa -32 + ^
STACK CFI 460a8 .cfa: sp 32 +
STACK CFI 460b0 .cfa: sp 0 +
STACK CFI INIT 460b4 8 .cfa: sp 0 +
STACK CFI INIT 460bc 28 .cfa: sp 0 +
STACK CFI 460c0 .cfa: sp 32 +
STACK CFI 460c8 .cfa: x29 32 + x19: .cfa -16 + ^ .ra: .cfa -24 + ^ x29: .cfa -32 + ^
STACK CFI 460d8 .cfa: sp 32 +
STACK CFI 460e0 .cfa: sp 0 +
STACK CFI INIT 4734c ac .cfa: sp 0 +
STACK CFI 47350 .cfa: sp 64 +
STACK CFI 47360 .cfa: x29 64 + x19: .cfa -8 + ^ x20: .cfa -16 + ^ x21: .cfa -24 + ^ x22: .cfa -32 + ^ x23: .cfa -48 + ^ .ra: .cfa -56 + ^ x29: .cfa -64 + ^
STACK CFI 473dc .cfa: sp 64 +
STACK CFI 473ec .cfa: sp 0 +
STACK CFI 473f0 .cfa: x29 64 +
STACK CFI INIT 473f8 110 .cfa: sp 0 +
STACK CFI 473fc .cfa: sp 64 +
STACK CFI 4740c .cfa: x29 64 + x19: .cfa -8 + ^ x20: .cfa -16 + ^ x21: .cfa -24 + ^ x22: .cfa -32 + ^ x23: .cfa -40 + ^ x24: .cfa -48 + ^ .ra: .cfa -56 + ^ x29: .cfa -64 + ^
STACK CFI 474ec .cfa: sp 64 +
STACK CFI 474fc .cfa: sp 0 +
STACK CFI 47500 .cfa: x29 64 +
STACK CFI INIT 47508 50 .cfa: sp 0 +
STACK CFI 4750c .cfa: sp 32 +
STACK CFI 47514 .cfa: x29 32 + x19: .cfa -16 + ^ .ra: .cfa -24 + ^ x29: .cfa -32 + ^
STACK CFI 4752c .cfa: sp 32 +
STACK CFI 47534 .cfa: sp 0 +
STACK CFI 47538 .cfa: x29 32 +
STACK CFI 4754c .cfa: sp 32 +
STACK CFI 47554 .cfa: sp 0 +
STACK CFI INIT 47558 3c .cfa: sp 0 +
STACK CFI 4755c .cfa: sp 32 +
STACK CFI 47564 .cfa: x29 32 + x19: .cfa -16 + ^ .ra: .cfa -24 + ^ x29: .cfa -32 + ^
STACK CFI 47570 .cfa: sp 32 +
STACK CFI 47578 .cfa: sp 0 +
STACK CFI 4757c .cfa: x29 32 +
STACK CFI 47588 .cfa: sp 32 +
STACK CFI 47590 .cfa: sp 0 +
STACK CFI INIT 47594 4c .cfa: sp 0 +
STACK CFI 47598 .cfa: sp 32 +
STACK CFI 475a0 .cfa: x29 32 + x19: .cfa -8 + ^ x20: .cfa -16 + ^ .ra: .cfa -24 + ^ x29: .cfa -32 + ^
STACK CFI 475c8 .cfa: sp 32 +
STACK CFI 475d0 .cfa: sp 0 +
STACK CFI 475d4 .cfa: sp 32 +
STACK CFI 475dc .cfa: sp 0 +
STACK CFI INIT 47800 64 .cfa: sp 0 +
STACK CFI 47804 .cfa: sp 32 +
STACK CFI 4780c .cfa: x29 32 + x19: .cfa -16 + ^ .ra: .cfa -24 + ^ x29: .cfa -32 + ^
STACK CFI 47838 .cfa: sp 32 +
STACK CFI 47840 .cfa: sp 0 +
STACK CFI 47844 .cfa: x29 32 +
STACK CFI 47858 .cfa: sp 32 +
STACK CFI 47860 .cfa: sp 0 +
STACK CFI INIT 47864 24 .cfa: sp 0 +
STACK CFI 47868 .cfa: sp 32 +
STACK CFI 47870 .cfa: x29 32 + x19: .cfa -16 + ^ .ra: .cfa -24 + ^ x29: .cfa -32 + ^
STACK CFI 4787c .cfa: sp 32 +
STACK CFI 47884 .cfa: sp 0 +
STACK CFI INIT 47888 24 .cfa: sp 0 +
STACK CFI 4788c .cfa: sp 32 +
STACK CFI 47894 .cfa: x29 32 + x19: .cfa -16 + ^ .ra: .cfa -24 + ^ x29: .cfa -32 + ^
STACK CFI 478a0 .cfa: sp 32 +
STACK CFI 478a8 .cfa: sp 0 +
STACK CFI INIT 478ac 8 .cfa: sp 0 +
STACK CFI INIT 478b4 24 .cfa: sp 0 +
STACK CFI 478b8 .cfa: sp 32 +
STACK CFI 478c0 .cfa: x29 32 + x19: .cfa -16 + ^ .ra: .cfa -24 + ^ x29: .cfa -32 + ^
STACK CFI 478cc .cfa: sp 32 +
STACK CFI 478d4 .cfa: sp 0 +
STACK CFI INIT 478d8 28 .cfa: sp 0 +
STACK CFI 478dc .cfa: sp 32 +
STACK CFI 478e4 .cfa: x29 32 + x19: .cfa -16 + ^ .ra: .cfa -24 + ^ x29: .cfa -32 + ^
STACK CFI 478f4 .cfa: sp 32 +
STACK CFI 478fc .cfa: sp 0 +
STACK CFI INIT 47bd8 8 .cfa: sp 0 +
STACK CFI INIT 47be0 24 .cfa: sp 0 +
STACK CFI 47be4 .cfa: sp 32 +
STACK CFI 47bec .cfa: x29 32 + x19: .cfa -16 + ^ .ra: .cfa -24 + ^ x29: .cfa -32 + ^
STACK CFI 47bf8 .cfa: sp 32 +
STACK CFI 47c00 .cfa: sp 0 +
STACK CFI INIT 47c04 28 .cfa: sp 0 +
STACK CFI 47c08 .cfa: sp 32 +
STACK CFI 47c10 .cfa: x29 32 + x19: .cfa -16 + ^ .ra: .cfa -24 + ^ x29: .cfa -32 + ^
STACK CFI 47c20 .cfa: sp 32 +
STACK CFI 47c28 .cfa: sp 0 +
STACK CFI INIT 47e7c 8 .cfa: sp 0 +
STACK CFI INIT 47e84 24 .cfa: sp 0 +
STACK CFI 47e88 .cfa: sp 32 +
STACK CFI 47e90 .cfa: x29 32 + x19: .cfa -16 + ^ .ra: .cfa -24 + ^ x29: .cfa -32 + ^
STACK CFI 47e9c .cfa: sp 32 +
STACK CFI 47ea4 .cfa: sp 0 +
STACK CFI INIT 47ea8 28 .cfa: sp 0 +
STACK CFI 47eac .cfa: sp 32 +
STACK CFI 47eb4 .cfa: x29 32 + x19: .cfa -16 + ^ .ra: .cfa -24 + ^ x29: .cfa -32 + ^
STACK CFI 47ec4 .cfa: sp 32 +
STACK CFI 47ecc .cfa: sp 0 +
STACK CFI INIT 47ed0 8 .cfa: sp 0 +
STACK CFI INIT 47ed8 24 .cfa: sp 0 +
STACK CFI 47edc .cfa: sp 32 +
STACK CFI 47ee4 .cfa: x29 32 + x19: .cfa -16 + ^ .ra: .cfa -24 + ^ x29: .cfa -32 + ^
STACK CFI 47ef0 .cfa: sp 32 +
STACK CFI 47ef8 .cfa: sp 0 +
STACK CFI INIT 47efc 28 .cfa: sp 0 +
STACK CFI 47f00 .cfa: sp 32 +
STACK CFI 47f08 .cfa: x29 32 + x19: .cfa -16 + ^ .ra: .cfa -24 + ^ x29: .cfa -32 + ^
STACK CFI 47f18 .cfa: sp 32 +
STACK CFI 47f20 .cfa: sp 0 +
STACK CFI INIT 48148 4 .cfa: sp 0 +
STACK CFI INIT 49214 4 .cfa: sp 0 +
STACK CFI INIT 49218 14 .cfa: sp 0 +
STACK CFI INIT 4970c c .cfa: sp 0 +
STACK CFI INIT 49718 24c .cfa: sp 0 +
STACK CFI INIT 49964 a0 .cfa: sp 0 +
STACK CFI 49970 .cfa: sp 32 +
STACK CFI 499c8 .cfa: sp 0 +
STACK CFI 499cc .cfa: sp 32 +
STACK CFI 499d4 .cfa: sp 0 +
STACK CFI 499d8 .cfa: sp 32 +
STACK CFI 499ec .cfa: sp 0 +
STACK CFI 499f0 .cfa: sp 32 +
STACK CFI 49a00 .cfa: sp 0 +
STACK CFI INIT 49a04 38 .cfa: sp 0 +
STACK CFI 49a10 .cfa: sp 32 +
STACK CFI 49a38 .cfa: sp 0 +
STACK CFI INIT 49cd0 7c .cfa: sp 0 +
STACK CFI 49cd4 .cfa: sp 32 +
STACK CFI 49cdc .cfa: x29 32 + x19: .cfa -16 + ^ .ra: .cfa -24 + ^ x29: .cfa -32 + ^
STACK CFI 49d08 .cfa: sp 32 +
STACK CFI 49d10 .cfa: sp 0 +
STACK CFI 49d14 .cfa: x29 32 +
STACK CFI 49d40 .cfa: sp 32 +
STACK CFI 49d48 .cfa: sp 0 +
STACK CFI INIT 49d9c 2c .cfa: sp 0 +
STACK CFI 49da0 .cfa: sp 32 +
STACK CFI 49da8 .cfa: x29 32 + x19: .cfa -16 + ^ .ra: .cfa -24 + ^ x29: .cfa -32 + ^
STACK CFI 49dbc .cfa: sp 32 +
STACK CFI 49dc4 .cfa: sp 0 +
STACK CFI INIT 4a588 64 .cfa: sp 0 +
STACK CFI 4a58c .cfa: sp 32 +
STACK CFI 4a594 .cfa: x29 32 + x19: .cfa -16 + ^ .ra: .cfa -24 + ^ x29: .cfa -32 + ^
STACK CFI 4a5b0 .cfa: sp 32 +
STACK CFI 4a5b8 .cfa: sp 0 +
STACK CFI 4a5bc .cfa: x29 32 +
STACK CFI 4a5e0 .cfa: sp 32 +
STACK CFI 4a5e8 .cfa: sp 0 +
STACK CFI INIT 4a5ec 570 .cfa: sp 0 +
STACK CFI 4a5f0 .cfa: sp 176 +
STACK CFI 4a604 .cfa: x29 64 + x19: .cfa -8 + ^ x20: .cfa -16 + ^ x21: .cfa -24 + ^ x22: .cfa -32 + ^ x23: .cfa -40 + ^ x24: .cfa -48 + ^ .ra: .cfa -56 + ^ x29: .cfa -64 + ^
STACK CFI 4a834 .cfa: sp 176 +
STACK CFI 4a848 .cfa: sp 0 +
STACK CFI 4a84c .cfa: x29 64 +
STACK CFI 4a898 .cfa: sp 176 +
STACK CFI 4a8ac .cfa: sp 0 +
STACK CFI 4a8b0 .cfa: x29 64 +
STACK CFI 4a8e8 .cfa: sp 176 +
STACK CFI 4a8fc .cfa: sp 0 +
STACK CFI 4a900 .cfa: x29 64 +
STACK CFI 4a918 .cfa: sp 176 +
STACK CFI 4a92c .cfa: sp 0 +
STACK CFI 4a930 .cfa: x29 64 +
STACK CFI 4a950 .cfa: sp 176 +
STACK CFI 4a964 .cfa: sp 0 +
STACK CFI 4a968 .cfa: x29 64 +
STACK CFI 4a980 .cfa: sp 176 +
STACK CFI 4a994 .cfa: sp 0 +
STACK CFI 4a998 .cfa: x29 64 +
STACK CFI 4a9ac .cfa: sp 176 +
STACK CFI 4a9c0 .cfa: sp 0 +
STACK CFI 4a9c4 .cfa: x29 64 +
STACK CFI 4a9d8 .cfa: sp 176 +
STACK CFI 4a9ec .cfa: sp 0 +
STACK CFI 4a9f0 .cfa: x29 64 +
STACK CFI 4aa00 .cfa: sp 176 +
STACK CFI 4aa14 .cfa: sp 0 +
STACK CFI 4aa18 .cfa: x29 64 +
STACK CFI 4aa28 .cfa: sp 176 +
STACK CFI 4aa3c .cfa: sp 0 +
STACK CFI 4aa40 .cfa: x29 64 +
STACK CFI 4aa58 .cfa: sp 176 +
STACK CFI 4aa6c .cfa: sp 0 +
STACK CFI 4aa70 .cfa: x29 64 +
STACK CFI 4aa84 .cfa: sp 176 +
STACK CFI 4aa98 .cfa: sp 0 +
STACK CFI 4aa9c .cfa: x29 64 +
STACK CFI 4aab4 .cfa: sp 176 +
STACK CFI 4aac8 .cfa: sp 0 +
STACK CFI 4aacc .cfa: x29 64 +
STACK CFI 4aaf8 .cfa: sp 176 +
STACK CFI 4ab0c .cfa: sp 0 +
STACK CFI 4ab10 .cfa: x29 64 +
STACK CFI 4ab24 .cfa: sp 176 +
STACK CFI 4ab38 .cfa: sp 0 +
STACK CFI 4ab3c .cfa: x29 64 +
STACK CFI INIT 4ab5c 228 .cfa: sp 0 +
STACK CFI INIT 4ad84 2dc .cfa: sp 0 +
STACK CFI INIT 4b060 53c .cfa: sp 0 +
STACK CFI INIT 4b59c 78 .cfa: sp 0 +
STACK CFI 4b5a0 .cfa: sp 48 +
STACK CFI 4b5ac .cfa: x29 48 + x19: .cfa -8 + ^ x20: .cfa -16 + ^ x21: .cfa -24 + ^ x22: .cfa -32 + ^ .ra: .cfa -40 + ^ x29: .cfa -48 + ^
STACK CFI 4b5f4 .cfa: sp 48 +
STACK CFI 4b600 .cfa: sp 0 +
STACK CFI 4b604 .cfa: sp 48 +
STACK CFI 4b610 .cfa: sp 0 +
STACK CFI INIT 4b614 8c .cfa: sp 0 +
STACK CFI 4b618 .cfa: sp 32 +
STACK CFI 4b620 .cfa: x29 32 + x19: .cfa -16 + ^ .ra: .cfa -24 + ^ x29: .cfa -32 + ^
STACK CFI 4b654 .cfa: sp 32 +
STACK CFI 4b65c .cfa: sp 0 +
STACK CFI 4b660 .cfa: x29 32 +
STACK CFI 4b694 .cfa: sp 32 +
STACK CFI 4b69c .cfa: sp 0 +
STACK CFI INIT 4b6a0 24 .cfa: sp 0 +
STACK CFI 4b6a4 .cfa: sp 32 +
STACK CFI 4b6ac .cfa: x29 32 + x19: .cfa -16 + ^ .ra: .cfa -24 + ^ x29: .cfa -32 + ^
STACK CFI 4b6b8 .cfa: sp 32 +
STACK CFI 4b6c0 .cfa: sp 0 +
STACK CFI INIT 4b6c4 150 .cfa: sp 0 +
STACK CFI 4b6c8 .cfa: sp 48 +
STACK CFI 4b6d4 .cfa: x29 48 + x19: .cfa -8 + ^ x20: .cfa -16 + ^ x21: .cfa -24 + ^ x22: .cfa -32 + ^ .ra: .cfa -40 + ^ x29: .cfa -48 + ^
STACK CFI 4b804 .cfa: sp 48 +
STACK CFI 4b810 .cfa: sp 0 +
STACK CFI INIT 4b814 68 .cfa: sp 0 +
STACK CFI 4b818 .cfa: sp 64 +
STACK CFI 4b824 .cfa: x29 32 + x19: .cfa -16 + ^ .ra: .cfa -24 + ^ x29: .cfa -32 + ^
STACK CFI 4b868 .cfa: sp 64 +
STACK CFI 4b874 .cfa: sp 0 +
STACK CFI 4b878 .cfa: x29 32 +
STACK CFI INIT 4b87c 90 .cfa: sp 0 +
STACK CFI 4b880 .cfa: sp 32 +
STACK CFI 4b888 .cfa: x29 32 + x19: .cfa -8 + ^ x20: .cfa -16 + ^ .ra: .cfa -24 + ^ x29: .cfa -32 + ^
STACK CFI 4b8b4 .cfa: sp 32 +
STACK CFI 4b8bc .cfa: sp 0 +
STACK CFI 4b8c0 .cfa: x29 32 +
STACK CFI 4b900 .cfa: sp 32 +
STACK CFI 4b908 .cfa: sp 0 +
STACK CFI INIT 4b90c ec .cfa: sp 0 +
STACK CFI 4b910 .cfa: sp 112 +
STACK CFI 4b920 .cfa: x29 48 + x19: .cfa -8 + ^ x20: .cfa -16 + ^ x21: .cfa -32 + ^ .ra: .cfa -40 + ^ x29: .cfa -48 + ^
STACK CFI 4b9e0 .cfa: sp 112 +
STACK CFI 4b9f0 .cfa: sp 0 +
STACK CFI 4b9f4 .cfa: x29 48 +
STACK CFI INIT 4b9f8 ec .cfa: sp 0 +
STACK CFI 4b9fc .cfa: sp 112 +
STACK CFI 4ba0c .cfa: x29 48 + x19: .cfa -8 + ^ x20: .cfa -16 + ^ x21: .cfa -32 + ^ .ra: .cfa -40 + ^ x29: .cfa -48 + ^
STACK CFI 4bacc .cfa: sp 112 +
STACK CFI 4badc .cfa: sp 0 +
STACK CFI 4bae0 .cfa: x29 48 +
STACK CFI INIT 4bae4 48 .cfa: sp 0 +
STACK CFI 4bae8 .cfa: sp 32 +
STACK CFI 4baf0 .cfa: x29 32 + x19: .cfa -8 + ^ x20: .cfa -16 + ^ .ra: .cfa -24 + ^ x29: .cfa -32 + ^
STACK CFI 4bb14 .cfa: sp 32 +
STACK CFI 4bb1c .cfa: sp 0 +
STACK CFI 4bb20 .cfa: x29 32 +
STACK CFI INIT 4bb2c 98 .cfa: sp 0 +
STACK CFI 4bb30 .cfa: sp 80 +
STACK CFI 4bb3c .cfa: x29 32 + x19: .cfa -16 + ^ .ra: .cfa -24 + ^ x29: .cfa -32 + ^
STACK CFI 4bbb0 .cfa: sp 80 +
STACK CFI 4bbbc .cfa: sp 0 +
STACK CFI 4bbc0 .cfa: x29 32 +
STACK CFI INIT 4bbc4 260 .cfa: sp 0 +
STACK CFI 4bbc8 .cfa: sp 112 +
STACK CFI 4bbe0 .cfa: x29 80 + x19: .cfa -8 + ^ x20: .cfa -16 + ^ x21: .cfa -24 + ^ x22: .cfa -32 + ^ x23: .cfa -40 + ^ x24: .cfa -48 + ^ x25: .cfa -64 + ^ .ra: .cfa -72 + ^ x29: .cfa -80 + ^
STACK CFI 4bdc4 .cfa: sp 112 +
STACK CFI 4bddc .cfa: sp 0 +
STACK CFI 4bde0 .cfa: x29 80 +
STACK CFI INIT 4be24 150 .cfa: sp 0 +
STACK CFI 4be28 .cfa: sp 48 +
STACK CFI 4be34 .cfa: x29 48 + x19: .cfa -8 + ^ x20: .cfa -16 + ^ x21: .cfa -24 + ^ x22: .cfa -32 + ^ .ra: .cfa -40 + ^ x29: .cfa -48 + ^
STACK CFI 4bf64 .cfa: sp 48 +
STACK CFI 4bf70 .cfa: sp 0 +
STACK CFI INIT 4bf74 1e0 .cfa: sp 0 +
STACK CFI 4bf78 .cfa: sp 96 +
STACK CFI 4bf8c .cfa: x29 64 + x19: .cfa -8 + ^ x20: .cfa -16 + ^ x21: .cfa -24 + ^ x22: .cfa -32 + ^ x23: .cfa -40 + ^ x24: .cfa -48 + ^ .ra: .cfa -56 + ^ x29: .cfa -64 + ^
STACK CFI 4c10c .cfa: sp 96 +
STACK CFI 4c120 .cfa: sp 0 +
STACK CFI 4c124 .cfa: x29 64 +
STACK CFI INIT 4c154 284 .cfa: sp 0 +
STACK CFI 4c158 .cfa: sp 112 +
STACK CFI 4c170 .cfa: x29 80 + x19: .cfa -8 + ^ x20: .cfa -16 + ^ x21: .cfa -24 + ^ x22: .cfa -32 + ^ x23: .cfa -40 + ^ x24: .cfa -48 + ^ x25: .cfa -64 + ^ .ra: .cfa -72 + ^ x29: .cfa -80 + ^
STACK CFI 4c378 .cfa: sp 112 +
STACK CFI 4c390 .cfa: sp 0 +
STACK CFI 4c394 .cfa: x29 80 +
STACK CFI INIT 4c3d8 208 .cfa: sp 0 +
STACK CFI 4c3dc .cfa: sp 96 +
STACK CFI 4c3f0 .cfa: x29 64 + x19: .cfa -8 + ^ x20: .cfa -16 + ^ x21: .cfa -24 + ^ x22: .cfa -32 + ^ x23: .cfa -40 + ^ x24: .cfa -48 + ^ .ra: .cfa -56 + ^ x29: .cfa -64 + ^
STACK CFI 4c598 .cfa: sp 96 +
STACK CFI 4c5ac .cfa: sp 0 +
STACK CFI 4c5b0 .cfa: x29 64 +
STACK CFI INIT 4c5e0 360 .cfa: sp 0 +
STACK CFI 4c5e4 .cfa: sp 160 +
STACK CFI 4c600 .cfa: x29 96 + x19: .cfa -8 + ^ x20: .cfa -16 + ^ x21: .cfa -24 + ^ x22: .cfa -32 + ^ x23: .cfa -40 + ^ x24: .cfa -48 + ^ x25: .cfa -56 + ^ x26: .cfa -64 + ^ x27: .cfa -72 + ^ x28: .cfa -80 + ^ .ra: .cfa -88 + ^ x29: .cfa -96 + ^
STACK CFI 4c8cc .cfa: sp 160 +
STACK CFI 4c8e8 .cfa: sp 0 +
STACK CFI 4c8ec .cfa: x29 96 +
STACK CFI INIT 4c940 314 .cfa: sp 0 +
STACK CFI 4c944 .cfa: sp 144 +
STACK CFI 4c960 .cfa: x29 96 + x19: .cfa -8 + ^ x20: .cfa -16 + ^ x21: .cfa -24 + ^ x22: .cfa -32 + ^ x23: .cfa -40 + ^ x24: .cfa -48 + ^ x25: .cfa -56 + ^ x26: .cfa -64 + ^ x27: .cfa -72 + ^ x28: .cfa -80 + ^ .ra: .cfa -88 + ^ x29: .cfa -96 + ^
STACK CFI 4cbdc .cfa: sp 144 +
STACK CFI 4cbf8 .cfa: sp 0 +
STACK CFI 4cbfc .cfa: x29 96 +
STACK CFI INIT 4cc54 290 .cfa: sp 0 +
STACK CFI 4cc58 .cfa: sp 128 +
STACK CFI 4cc70 .cfa: x29 80 + x19: .cfa -8 + ^ x20: .cfa -16 + ^ x21: .cfa -24 + ^ x22: .cfa -32 + ^ x23: .cfa -40 + ^ x24: .cfa -48 + ^ x25: .cfa -56 + ^ x26: .cfa -64 + ^ .ra: .cfa -72 + ^ x29: .cfa -80 + ^
STACK CFI 4cec4 .cfa: sp 128 +
STACK CFI 4cedc .cfa: sp 0 +
STACK CFI 4cee0 .cfa: x29 80 +
STACK CFI INIT 4cee4 ddc .cfa: sp 0 +
STACK CFI 4cee8 .cfa: sp 144 +
STACK CFI 4cf04 .cfa: x29 96 + x19: .cfa -8 + ^ x20: .cfa -16 + ^ x21: .cfa -24 + ^ x22: .cfa -32 + ^ x23: .cfa -40 + ^ x24: .cfa -48 + ^ x25: .cfa -56 + ^ x26: .cfa -64 + ^ x27: .cfa -72 + ^ x28: .cfa -80 + ^ .ra: .cfa -88 + ^ x29: .cfa -96 + ^
STACK CFI 4db98 .cfa: sp 144 +
STACK CFI 4dbb4 .cfa: sp 0 +
STACK CFI 4dbb8 .cfa: x29 96 +
STACK CFI INIT 4dcc0 1d0 .cfa: sp 0 +
STACK CFI 4dcc4 .cfa: sp 80 +
STACK CFI 4dcd8 .cfa: x29 80 + x19: .cfa -8 + ^ x20: .cfa -16 + ^ x21: .cfa -24 + ^ x22: .cfa -32 + ^ x23: .cfa -40 + ^ x24: .cfa -48 + ^ x25: .cfa -64 + ^ .ra: .cfa -72 + ^ x29: .cfa -80 + ^
STACK CFI 4de78 .cfa: sp 80 +
STACK CFI 4de8c .cfa: sp 0 +
STACK CFI INIT 4de90 23c .cfa: sp 0 +
STACK CFI 4de94 .cfa: sp 112 +
STACK CFI 4dea8 .cfa: x29 64 + x19: .cfa -8 + ^ x20: .cfa -16 + ^ x21: .cfa -24 + ^ x22: .cfa -32 + ^ x23: .cfa -40 + ^ x24: .cfa -48 + ^ .ra: .cfa -56 + ^ x29: .cfa -64 + ^
STACK CFI 4e084 .cfa: sp 112 +
STACK CFI 4e098 .cfa: sp 0 +
STACK CFI 4e09c .cfa: x29 64 +
STACK CFI INIT 4e0cc 30c .cfa: sp 0 +
STACK CFI 4e0d0 .cfa: sp 80 +
STACK CFI 4e0e4 .cfa: x29 64 + x19: .cfa -8 + ^ x20: .cfa -16 + ^ x21: .cfa -24 + ^ x22: .cfa -32 + ^ x23: .cfa -40 + ^ x24: .cfa -48 + ^ .ra: .cfa -56 + ^ x29: .cfa -64 + ^
STACK CFI 4e260 .cfa: sp 80 +
STACK CFI 4e274 .cfa: sp 0 +
STACK CFI 4e278 .cfa: x29 64 +
STACK CFI INIT 4e3d8 178 .cfa: sp 0 +
STACK CFI 4e3dc .cfa: sp 80 +
STACK CFI 4e3f0 .cfa: x29 64 + x19: .cfa -8 + ^ x20: .cfa -16 + ^ x21: .cfa -24 + ^ x22: .cfa -32 + ^ x23: .cfa -40 + ^ x24: .cfa -48 + ^ .ra: .cfa -56 + ^ x29: .cfa -64 + ^
STACK CFI 4e534 .cfa: sp 80 +
STACK CFI 4e548 .cfa: sp 0 +
STACK CFI 4e54c .cfa: x29 64 +
STACK CFI INIT 4e550 178 .cfa: sp 0 +
STACK CFI 4e554 .cfa: sp 80 +
STACK CFI 4e568 .cfa: x29 64 + x19: .cfa -8 + ^ x20: .cfa -16 + ^ x21: .cfa -24 + ^ x22: .cfa -32 + ^ x23: .cfa -40 + ^ x24: .cfa -48 + ^ .ra: .cfa -56 + ^ x29: .cfa -64 + ^
STACK CFI 4e6ac .cfa: sp 80 +
STACK CFI 4e6c0 .cfa: sp 0 +
STACK CFI 4e6c4 .cfa: x29 64 +
STACK CFI INIT 4e6c8 240 .cfa: sp 0 +
STACK CFI 4e6cc .cfa: sp 96 +
STACK CFI 4e6e4 .cfa: x29 96 + x19: .cfa -8 + ^ x20: .cfa -16 + ^ x21: .cfa -24 + ^ x22: .cfa -32 + ^ x23: .cfa -40 + ^ x24: .cfa -48 + ^ x25: .cfa -56 + ^ x26: .cfa -64 + ^ x27: .cfa -72 + ^ x28: .cfa -80 + ^ .ra: .cfa -88 + ^ x29: .cfa -96 + ^
STACK CFI 4e8ec .cfa: sp 96 +
STACK CFI 4e904 .cfa: sp 0 +
STACK CFI INIT 4f57c 154 .cfa: sp 0 +
STACK CFI 4f580 .cfa: sp 96 +
STACK CFI 4f594 .cfa: x29 64 + x19: .cfa -8 + ^ x20: .cfa -16 + ^ x21: .cfa -24 + ^ x22: .cfa -32 + ^ x23: .cfa -48 + ^ .ra: .cfa -56 + ^ x29: .cfa -64 + ^
STACK CFI 4f674 .cfa: sp 96 +
STACK CFI 4f688 .cfa: sp 0 +
STACK CFI 4f68c .cfa: x29 64 +
STACK CFI INIT 4f93c 44 .cfa: sp 0 +
STACK CFI 4f940 .cfa: sp 32 +
STACK CFI 4f948 .cfa: x29 32 + x19: .cfa -16 + ^ .ra: .cfa -24 + ^ x29: .cfa -32 + ^
STACK CFI 4f964 .cfa: sp 32 +
STACK CFI 4f96c .cfa: sp 0 +
STACK CFI 4f970 .cfa: x29 32 +
STACK CFI 4f974 .cfa: sp 32 +
STACK CFI 4f97c .cfa: sp 0 +
STACK CFI INIT 4f980 1d0 .cfa: sp 0 +
STACK CFI 4f984 .cfa: sp 64 +
STACK CFI 4f994 .cfa: x29 64 + x19: .cfa -8 + ^ x20: .cfa -16 + ^ x21: .cfa -24 + ^ x22: .cfa -32 + ^ x23: .cfa -40 + ^ x24: .cfa -48 + ^ .ra: .cfa -56 + ^ x29: .cfa -64 + ^
STACK CFI 4fa54 .cfa: sp 64 +
STACK CFI 4fa64 .cfa: sp 0 +
STACK CFI 4fa68 .cfa: x29 64 +
STACK CFI INIT 4fb50 17c .cfa: sp 0 +
STACK CFI INIT 50084 a0 .cfa: sp 0 +
STACK CFI 50088 .cfa: sp 48 +
STACK CFI 50094 .cfa: x29 48 + x19: .cfa -8 + ^ x20: .cfa -16 + ^ x21: .cfa -24 + ^ x22: .cfa -32 + ^ .ra: .cfa -40 + ^ x29: .cfa -48 + ^
STACK CFI 50100 .cfa: sp 48 +
STACK CFI 5010c .cfa: sp 0 +
STACK CFI 50110 .cfa: sp 48 +
STACK CFI 5011c .cfa: sp 0 +
STACK CFI 50120 .cfa: x29 48 +
STACK CFI INIT 50dd8 158 .cfa: sp 0 +
STACK CFI 50ddc .cfa: sp 96 +
STACK CFI 50df0 .cfa: x29 64 + x19: .cfa -8 + ^ x20: .cfa -16 + ^ x21: .cfa -24 + ^ x22: .cfa -32 + ^ x23: .cfa -48 + ^ .ra: .cfa -56 + ^ x29: .cfa -64 + ^
STACK CFI 50ed4 .cfa: sp 96 +
STACK CFI 50ee8 .cfa: sp 0 +
STACK CFI 50eec .cfa: x29 64 +
STACK CFI INIT 50f30 190 .cfa: sp 0 +
STACK CFI INIT 51bbc 1dc .cfa: sp 0 +
STACK CFI 51bc0 .cfa: sp 80 +
STACK CFI 51bd4 .cfa: x29 80 + x19: .cfa -8 + ^ x20: .cfa -16 + ^ x21: .cfa -24 + ^ x22: .cfa -32 + ^ x23: .cfa -40 + ^ x24: .cfa -48 + ^ x25: .cfa -64 + ^ .ra: .cfa -72 + ^ x29: .cfa -80 + ^
STACK CFI 51d80 .cfa: sp 80 +
STACK CFI 51d94 .cfa: sp 0 +
STACK CFI INIT 531c8 124 .cfa: sp 0 +
STACK CFI 531f8 .cfa: sp 32 +
STACK CFI 53200 .cfa: x29 32 + x19: .cfa -8 + ^ x20: .cfa -16 + ^ .ra: .cfa -24 + ^ x29: .cfa -32 + ^
STACK CFI 532e0 .cfa: sp 32 +
STACK CFI 532e8 .cfa: sp 0 +
STACK CFI INIT 53a48 320 .cfa: sp 0 +
STACK CFI 53a4c .cfa: sp 64 +
STACK CFI 53a5c .cfa: x29 64 + x19: .cfa -8 + ^ x20: .cfa -16 + ^ x21: .cfa -24 + ^ x22: .cfa -32 + ^ x23: .cfa -40 + ^ x24: .cfa -48 + ^ .ra: .cfa -56 + ^ x29: .cfa -64 + ^
STACK CFI 53ad8 .cfa: sp 64 +
STACK CFI 53ae8 .cfa: sp 0 +
STACK CFI 53aec .cfa: x29 64 +
STACK CFI 53cc0 .cfa: sp 64 +
STACK CFI 53cd0 .cfa: sp 0 +
STACK CFI 53cd4 .cfa: x29 64 +
STACK CFI 53ce4 .cfa: sp 64 +
STACK CFI 53cf4 .cfa: sp 0 +
STACK CFI 53cf8 .cfa: x29 64 +
STACK CFI INIT 53d68 a0 .cfa: sp 0 +
STACK CFI 53d6c .cfa: sp 48 +
STACK CFI 53d78 .cfa: x29 48 + x19: .cfa -8 + ^ x20: .cfa -16 + ^ x21: .cfa -24 + ^ x22: .cfa -32 + ^ .ra: .cfa -40 + ^ x29: .cfa -48 + ^
STACK CFI 53de4 .cfa: sp 48 +
STACK CFI 53df0 .cfa: sp 0 +
STACK CFI 53df4 .cfa: sp 48 +
STACK CFI 53e00 .cfa: sp 0 +
STACK CFI 53e04 .cfa: x29 48 +
STACK CFI INIT 54cb8 160 .cfa: sp 0 +
STACK CFI 54cbc .cfa: sp 64 +
STACK CFI 54ccc .cfa: x29 64 + x19: .cfa -8 + ^ x20: .cfa -16 + ^ x21: .cfa -24 + ^ x22: .cfa -32 + ^ x23: .cfa -48 + ^ .ra: .cfa -56 + ^ x29: .cfa -64 + ^
STACK CFI 54dc4 .cfa: sp 64 +
STACK CFI 54dd4 .cfa: sp 0 +
STACK CFI 54dd8 .cfa: x29 64 +
STACK CFI INIT 54e18 214 .cfa: sp 0 +
STACK CFI 54e1c .cfa: sp 128 +
STACK CFI 54e38 .cfa: x29 96 + x19: .cfa -8 + ^ x20: .cfa -16 + ^ x21: .cfa -24 + ^ x22: .cfa -32 + ^ x23: .cfa -40 + ^ x24: .cfa -48 + ^ x25: .cfa -56 + ^ x26: .cfa -64 + ^ x27: .cfa -80 + ^ .ra: .cfa -88 + ^ x29: .cfa -96 + ^
STACK CFI 54fb4 .cfa: sp 128 +
STACK CFI 54fd0 .cfa: sp 0 +
STACK CFI 54fd4 .cfa: x29 96 +
STACK CFI INIT 56cc8 290 .cfa: sp 0 +
STACK CFI 56ccc .cfa: sp 16 +
STACK CFI 56cd0 .cfa: x29 16 + .ra: .cfa -8 + ^ x29: .cfa -16 + ^
STACK CFI 56d5c .cfa: sp 16 +
STACK CFI 56d60 .cfa: sp 0 +
STACK CFI 56d64 .cfa: x29 16 +
STACK CFI 56db4 .cfa: sp 16 +
STACK CFI 56db8 .cfa: sp 0 +
STACK CFI 56dbc .cfa: x29 16 +
STACK CFI 56f20 .cfa: sp 16 +
STACK CFI 56f24 .cfa: sp 0 +
STACK CFI 56f28 .cfa: x29 16 +
STACK CFI INIT 56f58 158 .cfa: sp 0 +
STACK CFI 56f5c .cfa: sp 112 +
STACK CFI 56f78 .cfa: x29 96 + x19: .cfa -8 + ^ x20: .cfa -16 + ^ x21: .cfa -24 + ^ x22: .cfa -32 + ^ x23: .cfa -40 + ^ x24: .cfa -48 + ^ x25: .cfa -56 + ^ x26: .cfa -64 + ^ x27: .cfa -72 + ^ x28: .cfa -80 + ^ .ra: .cfa -88 + ^ x29: .cfa -96 + ^
STACK CFI 57060 .cfa: sp 112 +
STACK CFI 57064 .cfa: x29 96 +
STACK CFI 5706c .cfa: sp 112 +
STACK CFI 57088 .cfa: sp 0 +
STACK CFI 5708c .cfa: x29 96 +
STACK CFI 570ac .cfa: sp 112 +
STACK CFI INIT 570b0 e54 .cfa: sp 0 +
STACK CFI 570b4 .cfa: sp 192 +
STACK CFI 570d0 .cfa: x29 96 + x19: .cfa -8 + ^ x20: .cfa -16 + ^ x21: .cfa -24 + ^ x22: .cfa -32 + ^ x23: .cfa -40 + ^ x24: .cfa -48 + ^ x25: .cfa -56 + ^ x26: .cfa -64 + ^ x27: .cfa -72 + ^ x28: .cfa -80 + ^ .ra: .cfa -88 + ^ x29: .cfa -96 + ^
STACK CFI 57dec .cfa: sp 192 +
STACK CFI 57e08 .cfa: sp 0 +
STACK CFI 57e0c .cfa: x29 96 +
STACK CFI INIT 57f04 1068 .cfa: sp 0 +
STACK CFI 57f08 .cfa: sp 288 +
STACK CFI 57f24 .cfa: x29 96 + x19: .cfa -8 + ^ x20: .cfa -16 + ^ x21: .cfa -24 + ^ x22: .cfa -32 + ^ x23: .cfa -40 + ^ x24: .cfa -48 + ^ x25: .cfa -56 + ^ x26: .cfa -64 + ^ x27: .cfa -72 + ^ x28: .cfa -80 + ^ .ra: .cfa -88 + ^ x29: .cfa -96 + ^
STACK CFI 58cb4 .cfa: sp 288 +
STACK CFI 58cd0 .cfa: sp 0 +
STACK CFI 58cd4 .cfa: x29 96 +
STACK CFI INIT 58f6c 520 .cfa: sp 0 +
STACK CFI 58f70 .cfa: sp 144 +
STACK CFI 58f8c .cfa: x29 96 + x19: .cfa -8 + ^ x20: .cfa -16 + ^ x21: .cfa -24 + ^ x22: .cfa -32 + ^ x23: .cfa -40 + ^ x24: .cfa -48 + ^ x25: .cfa -56 + ^ x26: .cfa -64 + ^ x27: .cfa -72 + ^ x28: .cfa -80 + ^ .ra: .cfa -88 + ^ x29: .cfa -96 + ^
STACK CFI 59468 .cfa: sp 144 +
STACK CFI 59484 .cfa: sp 0 +
STACK CFI 59488 .cfa: x29 96 +
STACK CFI INIT 59e2c 1374 .cfa: sp 0 +
STACK CFI 59e30 .cfa: sp 224 +
STACK CFI 59e4c .cfa: x29 96 + x19: .cfa -8 + ^ x20: .cfa -16 + ^ x21: .cfa -24 + ^ x22: .cfa -32 + ^ x23: .cfa -40 + ^ x24: .cfa -48 + ^ x25: .cfa -56 + ^ x26: .cfa -64 + ^ x27: .cfa -72 + ^ x28: .cfa -80 + ^ .ra: .cfa -88 + ^ x29: .cfa -96 + ^
STACK CFI 5b17c .cfa: sp 224 +
STACK CFI 5b198 .cfa: sp 0 +
STACK CFI 5b19c .cfa: x29 96 +
STACK CFI INIT 5b1a0 1b8 .cfa: sp 0 +
STACK CFI INIT 2bd40 8c .cfa: sp 0 +
STACK CFI 2bd44 .cfa: sp 32 +
STACK CFI 2bd4c .cfa: x29 32 + x19: .cfa -16 + ^ .ra: .cfa -24 + ^ x29: .cfa -32 + ^
STACK CFI 2bd9c .cfa: sp 32 +
STACK CFI 2bda4 .cfa: sp 0 +
STACK CFI 2bda8 .cfa: sp 32 +
STACK CFI 2bdb0 .cfa: sp 0 +
STACK CFI 2bdb4 .cfa: x29 32 +
STACK CFI INIT 2bdcc 8c .cfa: sp 0 +
STACK CFI 2bdd0 .cfa: sp 32 +
STACK CFI 2bdd8 .cfa: x29 32 + x19: .cfa -16 + ^ .ra: .cfa -24 + ^ x29: .cfa -32 + ^
STACK CFI 2be28 .cfa: sp 32 +
STACK CFI 2be30 .cfa: sp 0 +
STACK CFI 2be34 .cfa: sp 32 +
STACK CFI 2be3c .cfa: sp 0 +
STACK CFI 2be40 .cfa: x29 32 +
STACK CFI INIT 2be58 1690 .cfa: sp 0 +
STACK CFI 2be5c .cfa: sp 368 +
STACK CFI 2be80 .cfa: x29 88 + x19: .cfa -8 + ^ x20: .cfa -16 + ^ x21: .cfa -24 + ^ x22: .cfa -32 + ^ x23: .cfa -40 + ^ x24: .cfa -48 + ^ x25: .cfa -56 + ^ x26: .cfa -64 + ^ x28: .cfa -72 + ^ .ra: .cfa -80 + ^ x29: .cfa -88 + ^ v8: .cfa -96 + ^ v9: .cfa -104 + ^ v10: .cfa -112 + ^
STACK CFI 2d3e4 .cfa: sp 368 +
STACK CFI 2d408 .cfa: sp 0 +
STACK CFI 2d40c .cfa: x29 88 +
STACK CFI INIT 2d65c 264 .cfa: sp 0 +
STACK CFI 2d660 .cfa: sp 144 +
STACK CFI 2d66c .cfa: x29 32 + x19: .cfa -8 + ^ x20: .cfa -16 + ^ .ra: .cfa -24 + ^ x29: .cfa -32 + ^
STACK CFI 2d81c .cfa: sp 144 +
STACK CFI 2d828 .cfa: sp 0 +
STACK CFI 2d82c .cfa: x29 32 +
STACK CFI INIT 2d9a4 24c .cfa: sp 0 +
STACK CFI 2d9a8 .cfa: sp 208 +
STACK CFI 2d9bc .cfa: x29 64 + x19: .cfa -8 + ^ x20: .cfa -16 + ^ x21: .cfa -24 + ^ x22: .cfa -32 + ^ x23: .cfa -40 + ^ x24: .cfa -48 + ^ .ra: .cfa -56 + ^ x29: .cfa -64 + ^
STACK CFI 2dba0 .cfa: sp 208 +
STACK CFI 2dbb4 .cfa: sp 0 +
STACK CFI 2dbb8 .cfa: x29 64 +
STACK CFI INIT 2dddc 264 .cfa: sp 0 +
STACK CFI 2dde0 .cfa: sp 80 +
STACK CFI 2ddf4 .cfa: x29 80 + x19: .cfa -8 + ^ x20: .cfa -16 + ^ x21: .cfa -24 + ^ x22: .cfa -32 + ^ x23: .cfa -40 + ^ x24: .cfa -48 + ^ x25: .cfa -56 + ^ x28: .cfa -64 + ^ .ra: .cfa -72 + ^ x29: .cfa -80 + ^
STACK CFI 2df9c .cfa: sp 80 +
STACK CFI 2dfb0 .cfa: sp 0 +
STACK CFI 2dfb4 .cfa: x29 80 +
STACK CFI INIT 2e090 524 .cfa: sp 0 +
STACK CFI 2e094 .cfa: sp 80 +
STACK CFI 2e0a8 .cfa: x29 80 + x19: .cfa -8 + ^ x20: .cfa -16 + ^ x21: .cfa -24 + ^ x22: .cfa -32 + ^ x23: .cfa -40 + ^ x24: .cfa -48 + ^ x25: .cfa -64 + ^ .ra: .cfa -72 + ^ x29: .cfa -80 + ^
STACK CFI 2e550 .cfa: sp 80 +
STACK CFI 2e564 .cfa: sp 0 +
STACK CFI 2e568 .cfa: x29 80 +
STACK CFI INIT 2e77c 278 .cfa: sp 0 +
STACK CFI 2e780 .cfa: sp 192 +
STACK CFI 2e79c .cfa: x29 96 + x19: .cfa -8 + ^ x20: .cfa -16 + ^ x21: .cfa -24 + ^ x22: .cfa -32 + ^ x23: .cfa -40 + ^ x24: .cfa -48 + ^ x25: .cfa -56 + ^ x26: .cfa -64 + ^ x27: .cfa -72 + ^ x28: .cfa -80 + ^ .ra: .cfa -88 + ^ x29: .cfa -96 + ^
STACK CFI 2e984 .cfa: sp 192 +
STACK CFI 2e9a0 .cfa: sp 0 +
STACK CFI 2e9a4 .cfa: x29 96 +
STACK CFI INIT 2e9f4 19c .cfa: sp 0 +
STACK CFI 2e9f8 .cfa: sp 128 +
STACK CFI 2ea08 .cfa: x29 48 + x19: .cfa -8 + ^ x20: .cfa -16 + ^ x21: .cfa -32 + ^ .ra: .cfa -40 + ^ x29: .cfa -48 + ^
STACK CFI 2eb18 .cfa: sp 128 +
STACK CFI 2eb28 .cfa: sp 0 +
STACK CFI 2eb2c .cfa: x29 48 +
STACK CFI INIT 2eb90 1a4 .cfa: sp 0 +
STACK CFI 2eb94 .cfa: sp 80 +
STACK CFI 2eba4 .cfa: x29 48 + x19: .cfa -8 + ^ x20: .cfa -16 + ^ x21: .cfa -24 + ^ x22: .cfa -32 + ^ .ra: .cfa -40 + ^ x29: .cfa -48 + ^
STACK CFI 2ecac .cfa: sp 80 +
STACK CFI 2ecbc .cfa: sp 0 +
STACK CFI 2ecc0 .cfa: x29 48 +
STACK CFI INIT 2ed3c 1dc .cfa: sp 0 +
STACK CFI 2ed40 .cfa: sp 48 +
STACK CFI 2ed4c .cfa: x29 48 + x19: .cfa -8 + ^ x20: .cfa -16 + ^ x21: .cfa -32 + ^ .ra: .cfa -40 + ^ x29: .cfa -48 + ^
STACK CFI 2ef04 .cfa: sp 48 +
STACK CFI 2ef10 .cfa: sp 0 +
STACK CFI 2ef14 .cfa: x29 48 +
STACK CFI INIT 2ef9c 148 .cfa: sp 0 +
STACK CFI 2efa0 .cfa: sp 96 +
STACK CFI 2efb0 .cfa: x29 48 + x19: .cfa -8 + ^ x20: .cfa -16 + ^ x21: .cfa -32 + ^ .ra: .cfa -40 + ^ x29: .cfa -48 + ^
STACK CFI 2f098 .cfa: sp 96 +
STACK CFI 2f0a8 .cfa: sp 0 +
STACK CFI 2f0ac .cfa: x29 48 +
STACK CFI INIT 2f170 50 .cfa: sp 0 +
STACK CFI 2f174 .cfa: sp 32 +
STACK CFI 2f17c .cfa: x29 32 + x19: .cfa -8 + ^ x20: .cfa -16 + ^ .ra: .cfa -24 + ^ x29: .cfa -32 + ^
STACK CFI INIT 2f304 228 .cfa: sp 0 +
STACK CFI 2f308 .cfa: sp 128 +
STACK CFI 2f320 .cfa: x29 80 + x19: .cfa -8 + ^ x20: .cfa -16 + ^ x21: .cfa -24 + ^ x22: .cfa -32 + ^ x23: .cfa -40 + ^ x24: .cfa -48 + ^ x25: .cfa -64 + ^ .ra: .cfa -72 + ^ x29: .cfa -80 + ^
STACK CFI 2f4bc .cfa: sp 128 +
STACK CFI 2f4d4 .cfa: sp 0 +
STACK CFI 2f4d8 .cfa: x29 80 +
STACK CFI INIT 2f5a8 6c .cfa: sp 0 +
STACK CFI 2f5ac .cfa: sp 32 +
STACK CFI 2f5b4 .cfa: x29 32 + x19: .cfa -16 + ^ .ra: .cfa -24 + ^ x29: .cfa -32 + ^
STACK CFI 2f604 .cfa: sp 32 +
STACK CFI 2f60c .cfa: sp 0 +
STACK CFI 2f610 .cfa: x29 32 +
STACK CFI INIT 2f618 6c .cfa: sp 0 +
STACK CFI 2f61c .cfa: sp 32 +
STACK CFI 2f624 .cfa: x29 32 + x19: .cfa -16 + ^ .ra: .cfa -24 + ^ x29: .cfa -32 + ^
STACK CFI 2f674 .cfa: sp 32 +
STACK CFI 2f67c .cfa: sp 0 +
STACK CFI 2f680 .cfa: x29 32 +
STACK CFI INIT 2f688 21c .cfa: sp 0 +
STACK CFI 2f68c .cfa: sp 192 +
STACK CFI 2f6a0 .cfa: x29 64 + x19: .cfa -8 + ^ x20: .cfa -16 + ^ x21: .cfa -24 + ^ x22: .cfa -32 + ^ x23: .cfa -48 + ^ .ra: .cfa -56 + ^ x29: .cfa -64 + ^
STACK CFI 2f7e0 .cfa: sp 192 +
STACK CFI 2f7f4 .cfa: sp 0 +
STACK CFI 2f7f8 .cfa: x29 64 +
STACK CFI INIT 2f8a8 1cc .cfa: sp 0 +
STACK CFI 2f8ac .cfa: sp 128 +
STACK CFI 2f8bc .cfa: x29 48 + x19: .cfa -8 + ^ x20: .cfa -16 + ^ x21: .cfa -32 + ^ .ra: .cfa -40 + ^ x29: .cfa -48 + ^
STACK CFI 2f9f8 .cfa: sp 128 +
STACK CFI 2fa08 .cfa: sp 0 +
STACK CFI 2fa0c .cfa: x29 48 +
STACK CFI INIT 2fea0 1d0 .cfa: sp 0 +
STACK CFI 2fea4 .cfa: sp 128 +
STACK CFI 2feb8 .cfa: x29 64 + x19: .cfa -8 + ^ x20: .cfa -16 + ^ x21: .cfa -24 + ^ x22: .cfa -32 + ^ x23: .cfa -48 + ^ .ra: .cfa -56 + ^ x29: .cfa -64 + ^
STACK CFI 30030 .cfa: sp 128 +
STACK CFI 30044 .cfa: sp 0 +
STACK CFI 30048 .cfa: x29 64 +
STACK CFI INIT 3038c 1c4 .cfa: sp 0 +
STACK CFI 30390 .cfa: sp 112 +
STACK CFI 303a0 .cfa: x29 48 + x19: .cfa -8 + ^ x20: .cfa -16 + ^ x21: .cfa -24 + ^ x22: .cfa -32 + ^ .ra: .cfa -40 + ^ x29: .cfa -48 + ^
STACK CFI 30514 .cfa: sp 112 +
STACK CFI 30524 .cfa: sp 0 +
STACK CFI 30528 .cfa: x29 48 +
STACK CFI INIT 30728 198 .cfa: sp 0 +
STACK CFI 3072c .cfa: sp 96 +
STACK CFI 3073c .cfa: x29 48 + x19: .cfa -8 + ^ x20: .cfa -16 + ^ x21: .cfa -32 + ^ .ra: .cfa -40 + ^ x29: .cfa -48 + ^
STACK CFI 30818 .cfa: sp 96 +
STACK CFI 30828 .cfa: sp 0 +
STACK CFI 3082c .cfa: x29 48 +
STACK CFI INIT 3091c 870 .cfa: sp 0 +
STACK CFI 30920 .cfa: sp 384 +
STACK CFI 30938 .cfa: x29 80 + x19: .cfa -8 + ^ x20: .cfa -16 + ^ x21: .cfa -24 + ^ x22: .cfa -32 + ^ x23: .cfa -40 + ^ x24: .cfa -48 + ^ x25: .cfa -56 + ^ x28: .cfa -64 + ^ .ra: .cfa -72 + ^ x29: .cfa -80 + ^
STACK CFI 30c50 .cfa: sp 384 +
STACK CFI 30c68 .cfa: sp 0 +
STACK CFI 30c6c .cfa: x29 80 +
STACK CFI INIT 311b4 74 .cfa: sp 0 +
STACK CFI 311b8 .cfa: sp 48 +
STACK CFI 311c4 .cfa: x29 32 + x19: .cfa -8 + ^ x20: .cfa -16 + ^ .ra: .cfa -24 + ^ x29: .cfa -32 + ^
STACK CFI 31210 .cfa: sp 48 +
STACK CFI 3121c .cfa: sp 0 +
STACK CFI 31220 .cfa: x29 32 +
STACK CFI INIT 31228 78 .cfa: sp 0 +
STACK CFI 3122c .cfa: sp 32 +
STACK CFI 31234 .cfa: x29 32 + x19: .cfa -8 + ^ x20: .cfa -16 + ^ .ra: .cfa -24 + ^ x29: .cfa -32 + ^
STACK CFI 3123c .cfa: sp 32 +
STACK CFI 31244 .cfa: sp 0 +
STACK CFI 31248 .cfa: x29 32 +
STACK CFI INIT 312a0 74 .cfa: sp 0 +
STACK CFI 312a4 .cfa: sp 48 +
STACK CFI 312b0 .cfa: x29 32 + x19: .cfa -8 + ^ x20: .cfa -16 + ^ .ra: .cfa -24 + ^ x29: .cfa -32 + ^
STACK CFI 312fc .cfa: sp 48 +
STACK CFI 31308 .cfa: sp 0 +
STACK CFI 3130c .cfa: x29 32 +
STACK CFI INIT 31314 74 .cfa: sp 0 +
STACK CFI 31318 .cfa: sp 48 +
STACK CFI 31324 .cfa: x29 48 + x19: .cfa -8 + ^ x20: .cfa -16 + ^ x21: .cfa -32 + ^ .ra: .cfa -40 + ^ x29: .cfa -48 + ^
STACK CFI 31364 .cfa: sp 48 +
STACK CFI 31370 .cfa: sp 0 +
STACK CFI 31374 .cfa: x29 48 +
STACK CFI INIT 31420 334 .cfa: sp 0 +
STACK CFI 31424 .cfa: sp 176 +
STACK CFI 3143c .cfa: x29 80 + x19: .cfa -8 + ^ x20: .cfa -16 + ^ x21: .cfa -24 + ^ x22: .cfa -32 + ^ x23: .cfa -40 + ^ x24: .cfa -48 + ^ x25: .cfa -56 + ^ x26: .cfa -64 + ^ .ra: .cfa -72 + ^ x29: .cfa -80 + ^
STACK CFI 31664 .cfa: sp 176 +
STACK CFI 3167c .cfa: sp 0 +
STACK CFI 31680 .cfa: x29 80 +
STACK CFI INIT 31868 12c .cfa: sp 0 +
STACK CFI 3186c .cfa: sp 80 +
STACK CFI 31880 .cfa: x29 80 + x19: .cfa -8 + ^ x20: .cfa -16 + ^ x21: .cfa -24 + ^ x22: .cfa -32 + ^ x23: .cfa -40 + ^ x24: .cfa -48 + ^ x25: .cfa -56 + ^ x26: .cfa -64 + ^ .ra: .cfa -72 + ^ x29: .cfa -80 + ^
STACK CFI 31948 .cfa: sp 80 +
STACK CFI 3195c .cfa: sp 0 +
STACK CFI 31960 .cfa: x29 80 +
STACK CFI INIT 31a38 1a4 .cfa: sp 0 +
STACK CFI 31a3c .cfa: sp 112 +
STACK CFI 31a54 .cfa: x29 80 + x19: .cfa -8 + ^ x20: .cfa -16 + ^ x21: .cfa -24 + ^ x22: .cfa -32 + ^ x23: .cfa -40 + ^ x24: .cfa -48 + ^ x25: .cfa -56 + ^ x26: .cfa -64 + ^ .ra: .cfa -72 + ^ x29: .cfa -80 + ^
STACK CFI 31b44 .cfa: sp 112 +
STACK CFI 31b5c .cfa: sp 0 +
STACK CFI 31b60 .cfa: x29 80 +
STACK CFI INIT 31bdc 1dc .cfa: sp 0 +
STACK CFI 31be0 .cfa: sp 128 +
STACK CFI 31bfc .cfa: x29 96 + x19: .cfa -8 + ^ x20: .cfa -16 + ^ x21: .cfa -24 + ^ x22: .cfa -32 + ^ x23: .cfa -40 + ^ x24: .cfa -48 + ^ x25: .cfa -56 + ^ x26: .cfa -64 + ^ x27: .cfa -80 + ^ .ra: .cfa -88 + ^ x29: .cfa -96 + ^
STACK CFI 31d68 .cfa: sp 128 +
STACK CFI 31d84 .cfa: sp 0 +
STACK CFI 31d88 .cfa: x29 96 +
STACK CFI INIT 31db8 178 .cfa: sp 0 +
STACK CFI 31dbc .cfa: sp 80 +
STACK CFI 31dd0 .cfa: x29 80 + x19: .cfa -8 + ^ x20: .cfa -16 + ^ x21: .cfa -24 + ^ x22: .cfa -32 + ^ x23: .cfa -40 + ^ x24: .cfa -48 + ^ x25: .cfa -64 + ^ .ra: .cfa -72 + ^ x29: .cfa -80 + ^
STACK CFI 31efc .cfa: sp 80 +
STACK CFI 31f10 .cfa: sp 0 +
STACK CFI 31f14 .cfa: x29 80 +
STACK CFI INIT 32078 168 .cfa: sp 0 +
STACK CFI 3207c .cfa: sp 384 +
STACK CFI 32090 .cfa: x29 64 + x19: .cfa -8 + ^ x20: .cfa -16 + ^ x21: .cfa -24 + ^ x22: .cfa -32 + ^ x23: .cfa -40 + ^ x28: .cfa -48 + ^ .ra: .cfa -56 + ^ x29: .cfa -64 + ^
STACK CFI 32188 .cfa: sp 384 +
STACK CFI 3219c .cfa: sp 0 +
STACK CFI 321a0 .cfa: x29 64 +
STACK CFI INIT 32448 4b4 .cfa: sp 0 +
STACK CFI 3244c .cfa: sp 128 +
STACK CFI 32468 .cfa: x29 96 + x19: .cfa -8 + ^ x20: .cfa -16 + ^ x21: .cfa -24 + ^ x22: .cfa -32 + ^ x23: .cfa -40 + ^ x24: .cfa -48 + ^ x25: .cfa -56 + ^ x26: .cfa -64 + ^ x27: .cfa -72 + ^ x28: .cfa -80 + ^ .ra: .cfa -88 + ^ x29: .cfa -96 + ^
STACK CFI 328ac .cfa: sp 128 +
STACK CFI 328c8 .cfa: sp 0 +
STACK CFI 328cc .cfa: x29 96 +
STACK CFI INIT 32f44 16c .cfa: sp 0 +
STACK CFI 32f48 .cfa: sp 144 +
STACK CFI 32f5c .cfa: x29 64 + x19: .cfa -8 + ^ x20: .cfa -16 + ^ x21: .cfa -24 + ^ x22: .cfa -32 + ^ x23: .cfa -40 + ^ x24: .cfa -48 + ^ .ra: .cfa -56 + ^ x29: .cfa -64 + ^
STACK CFI 33044 .cfa: sp 144 +
STACK CFI 33058 .cfa: sp 0 +
STACK CFI 3305c .cfa: x29 64 +
STACK CFI INIT 331fc 100c .cfa: sp 0 +
STACK CFI 33200 .cfa: sp 96 +
STACK CFI 33218 .cfa: x29 96 + x19: .cfa -8 + ^ x20: .cfa -16 + ^ x21: .cfa -24 + ^ x22: .cfa -32 + ^ x23: .cfa -40 + ^ x24: .cfa -48 + ^ x25: .cfa -56 + ^ x26: .cfa -64 + ^ x27: .cfa -72 + ^ x28: .cfa -80 + ^ .ra: .cfa -88 + ^ x29: .cfa -96 + ^
STACK CFI 34010 .cfa: sp 96 +
STACK CFI 34028 .cfa: sp 0 +
STACK CFI 3402c .cfa: x29 96 +
STACK CFI INIT 38a78 34c .cfa: sp 0 +
STACK CFI 38a7c .cfa: sp 144 +
STACK CFI 38a94 .cfa: x29 64 + x19: .cfa -8 + ^ x20: .cfa -16 + ^ x21: .cfa -24 + ^ x22: .cfa -32 + ^ x23: .cfa -40 + ^ x24: .cfa -48 + ^ .ra: .cfa -56 + ^ x29: .cfa -64 + ^ v8: .cfa -72 + ^ v9: .cfa -80 + ^
STACK CFI 38d78 .cfa: sp 144 +
STACK CFI 38d90 .cfa: sp 0 +
STACK CFI 38d94 .cfa: x29 64 +
STACK CFI INIT 38f58 3fc .cfa: sp 0 +
STACK CFI 38f5c .cfa: sp 224 +
STACK CFI 38f78 .cfa: x29 96 + x19: .cfa -8 + ^ x20: .cfa -16 + ^ x21: .cfa -24 + ^ x22: .cfa -32 + ^ x23: .cfa -40 + ^ x24: .cfa -48 + ^ x25: .cfa -56 + ^ x26: .cfa -64 + ^ x27: .cfa -72 + ^ x28: .cfa -80 + ^ .ra: .cfa -88 + ^ x29: .cfa -96 + ^
STACK CFI 39250 .cfa: sp 224 +
STACK CFI 3926c .cfa: sp 0 +
STACK CFI 39270 .cfa: x29 96 +
STACK CFI INIT 39354 2a0 .cfa: sp 0 +
STACK CFI 39358 .cfa: sp 176 +
STACK CFI 3936c .cfa: x29 64 + x19: .cfa -8 + ^ x20: .cfa -16 + ^ x21: .cfa -24 + ^ x22: .cfa -32 + ^ x23: .cfa -48 + ^ .ra: .cfa -56 + ^ x29: .cfa -64 + ^
STACK CFI 3951c .cfa: sp 176 +
STACK CFI 39530 .cfa: sp 0 +
STACK CFI 39534 .cfa: x29 64 +
STACK CFI INIT 39644 74 .cfa: sp 0 +
STACK CFI 39648 .cfa: sp 48 +
STACK CFI 39654 .cfa: x29 32 + x19: .cfa -8 + ^ x20: .cfa -16 + ^ .ra: .cfa -24 + ^ x29: .cfa -32 + ^
STACK CFI 396a0 .cfa: sp 48 +
STACK CFI 396ac .cfa: sp 0 +
STACK CFI 396b0 .cfa: x29 32 +
STACK CFI INIT 396bc 154 .cfa: sp 0 +
STACK CFI 396c0 .cfa: sp 384 +
STACK CFI 396d4 .cfa: x29 64 + x19: .cfa -8 + ^ x20: .cfa -16 + ^ x21: .cfa -24 + ^ x22: .cfa -32 + ^ x23: .cfa -40 + ^ x28: .cfa -48 + ^ .ra: .cfa -56 + ^ x29: .cfa -64 + ^
STACK CFI 397b8 .cfa: sp 384 +
STACK CFI 397cc .cfa: sp 0 +
STACK CFI 397d0 .cfa: x29 64 +
STACK CFI INIT 39e70 134 .cfa: sp 0 +
STACK CFI 39e74 .cfa: sp 128 +
STACK CFI 39e88 .cfa: x29 64 + x19: .cfa -8 + ^ x20: .cfa -16 + ^ x21: .cfa -24 + ^ x22: .cfa -32 + ^ x23: .cfa -40 + ^ x24: .cfa -48 + ^ .ra: .cfa -56 + ^ x29: .cfa -64 + ^
STACK CFI 39f54 .cfa: sp 128 +
STACK CFI 39f68 .cfa: sp 0 +
STACK CFI 39f6c .cfa: x29 64 +
STACK CFI INIT 3a05c 4c4 .cfa: sp 0 +
STACK CFI 3a060 .cfa: sp 80 +
STACK CFI 3a074 .cfa: x29 80 + x19: .cfa -8 + ^ x20: .cfa -16 + ^ x21: .cfa -24 + ^ x22: .cfa -32 + ^ x23: .cfa -40 + ^ x24: .cfa -48 + ^ x25: .cfa -56 + ^ x28: .cfa -64 + ^ .ra: .cfa -72 + ^ x29: .cfa -80 + ^
STACK CFI 3a1f8 .cfa: sp 80 +
STACK CFI 3a20c .cfa: sp 0 +
STACK CFI 3a210 .cfa: x29 80 +
STACK CFI INIT 3a520 134 .cfa: sp 0 +
STACK CFI 3a524 .cfa: sp 80 +
STACK CFI 3a534 .cfa: x29 48 + x19: .cfa -8 + ^ x20: .cfa -16 + ^ x21: .cfa -24 + ^ x22: .cfa -32 + ^ .ra: .cfa -40 + ^ x29: .cfa -48 + ^
STACK CFI 3a638 .cfa: sp 80 +
STACK CFI 3a648 .cfa: sp 0 +
STACK CFI 3a64c .cfa: x29 48 +
STACK CFI INIT 3aa6c 96c .cfa: sp 0 +
STACK CFI 3aa70 .cfa: sp 224 +
STACK CFI 3aa90 .cfa: x29 96 + x19: .cfa -8 + ^ x20: .cfa -16 + ^ x21: .cfa -24 + ^ x22: .cfa -32 + ^ x23: .cfa -40 + ^ x24: .cfa -48 + ^ x25: .cfa -56 + ^ x26: .cfa -64 + ^ x27: .cfa -72 + ^ x28: .cfa -80 + ^ .ra: .cfa -88 + ^ x29: .cfa -96 + ^ v8: .cfa -104 + ^ v9: .cfa -112 + ^
STACK CFI 3b360 .cfa: sp 224 +
STACK CFI 3b380 .cfa: sp 0 +
STACK CFI 3b384 .cfa: x29 96 +
STACK CFI INIT 3b3d8 184 .cfa: sp 0 +
STACK CFI 3b3dc .cfa: sp 112 +
STACK CFI 3b3ec .cfa: x29 48 + x19: .cfa -8 + ^ x20: .cfa -16 + ^ x21: .cfa -24 + ^ x22: .cfa -32 + ^ .ra: .cfa -40 + ^ x29: .cfa -48 + ^
STACK CFI 3b4b8 .cfa: sp 112 +
STACK CFI 3b4c8 .cfa: sp 0 +
STACK CFI 3b4cc .cfa: x29 48 +
STACK CFI INIT 3b55c 2b8 .cfa: sp 0 +
STACK CFI 3b560 .cfa: sp 160 +
STACK CFI 3b57c .cfa: x29 96 + x19: .cfa -8 + ^ x20: .cfa -16 + ^ x21: .cfa -24 + ^ x22: .cfa -32 + ^ x23: .cfa -40 + ^ x24: .cfa -48 + ^ x25: .cfa -56 + ^ x26: .cfa -64 + ^ x27: .cfa -72 + ^ x28: .cfa -80 + ^ .ra: .cfa -88 + ^ x29: .cfa -96 + ^
STACK CFI 3b5b4 .cfa: sp 160 +
STACK CFI 3b5d0 .cfa: sp 0 +
STACK CFI 3b5d4 .cfa: x29 96 +
STACK CFI INIT 3b814 114 .cfa: sp 0 +
STACK CFI 3b818 .cfa: sp 64 +
STACK CFI 3b828 .cfa: x29 64 + x19: .cfa -8 + ^ x20: .cfa -16 + ^ x21: .cfa -24 + ^ x22: .cfa -32 + ^ x23: .cfa -48 + ^ .ra: .cfa -56 + ^ x29: .cfa -64 + ^
STACK CFI 3b904 .cfa: sp 64 +
STACK CFI 3b914 .cfa: sp 0 +
STACK CFI 3b918 .cfa: x29 64 +
STACK CFI INIT 3b9cc 120 .cfa: sp 0 +
STACK CFI 3b9d0 .cfa: sp 80 +
STACK CFI 3b9e0 .cfa: x29 48 + x19: .cfa -8 + ^ x20: .cfa -16 + ^ x21: .cfa -24 + ^ x22: .cfa -32 + ^ .ra: .cfa -40 + ^ x29: .cfa -48 + ^
STACK CFI 3ba5c .cfa: sp 80 +
STACK CFI 3ba6c .cfa: sp 0 +
STACK CFI 3ba70 .cfa: x29 48 +
STACK CFI INIT 3bb00 22c .cfa: sp 0 +
STACK CFI 3bb04 .cfa: sp 96 +
STACK CFI 3bb1c .cfa: x29 96 + x19: .cfa -8 + ^ x20: .cfa -16 + ^ x21: .cfa -24 + ^ x22: .cfa -32 + ^ x23: .cfa -40 + ^ x24: .cfa -48 + ^ x25: .cfa -56 + ^ x26: .cfa -64 + ^ x27: .cfa -80 + ^ .ra: .cfa -88 + ^ x29: .cfa -96 + ^
STACK CFI 3bcc0 .cfa: sp 96 +
STACK CFI 3bcd8 .cfa: sp 0 +
STACK CFI 3bcdc .cfa: x29 96 +
STACK CFI INIT 3bd54 50 .cfa: sp 0 +
STACK CFI 3bd58 .cfa: sp 32 +
STACK CFI 3bd60 .cfa: x29 32 + x19: .cfa -8 + ^ x20: .cfa -16 + ^ .ra: .cfa -24 + ^ x29: .cfa -32 + ^
STACK CFI INIT 3be80 1e8 .cfa: sp 0 +
STACK CFI 3be84 .cfa: sp 80 +
STACK CFI 3be94 .cfa: x29 48 + x19: .cfa -8 + ^ x20: .cfa -16 + ^ x21: .cfa -24 + ^ x22: .cfa -32 + ^ .ra: .cfa -40 + ^ x29: .cfa -48 + ^
STACK CFI 3c024 .cfa: sp 80 +
STACK CFI 3c034 .cfa: sp 0 +
STACK CFI 3c038 .cfa: x29 48 +
STACK CFI INIT 3c2e8 2c0 .cfa: sp 0 +
STACK CFI 3c2ec .cfa: sp 176 +
STACK CFI 3c2fc .cfa: x29 48 + x19: .cfa -8 + ^ x20: .cfa -16 + ^ x21: .cfa -32 + ^ .ra: .cfa -40 + ^ x29: .cfa -48 + ^
STACK CFI 3c4fc .cfa: sp 176 +
STACK CFI 3c50c .cfa: sp 0 +
STACK CFI 3c510 .cfa: x29 48 +
STACK CFI INIT 3c94c 3fc .cfa: sp 0 +
STACK CFI 3c950 .cfa: sp 224 +
STACK CFI 3c96c .cfa: x29 96 + x19: .cfa -8 + ^ x20: .cfa -16 + ^ x21: .cfa -24 + ^ x22: .cfa -32 + ^ x23: .cfa -40 + ^ x24: .cfa -48 + ^ x25: .cfa -56 + ^ x26: .cfa -64 + ^ x27: .cfa -72 + ^ x28: .cfa -80 + ^ .ra: .cfa -88 + ^ x29: .cfa -96 + ^
STACK CFI 3cc44 .cfa: sp 224 +
STACK CFI 3cc60 .cfa: sp 0 +
STACK CFI 3cc64 .cfa: x29 96 +
STACK CFI INIT 3cd48 280 .cfa: sp 0 +
STACK CFI 3cd4c .cfa: sp 144 +
STACK CFI 3cd60 .cfa: x29 64 + x19: .cfa -8 + ^ x20: .cfa -16 + ^ x21: .cfa -24 + ^ x22: .cfa -32 + ^ x23: .cfa -48 + ^ .ra: .cfa -56 + ^ x29: .cfa -64 + ^
STACK CFI 3cef8 .cfa: sp 144 +
STACK CFI 3cf0c .cfa: sp 0 +
STACK CFI 3cf10 .cfa: x29 64 +
STACK CFI INIT 3cfcc 118 .cfa: sp 0 +
STACK CFI 3cfd0 .cfa: sp 144 +
STACK CFI 3cfe8 .cfa: x29 80 + x19: .cfa -8 + ^ x20: .cfa -16 + ^ x21: .cfa -24 + ^ x22: .cfa -32 + ^ x23: .cfa -40 + ^ x24: .cfa -48 + ^ x25: .cfa -64 + ^ .ra: .cfa -72 + ^ x29: .cfa -80 + ^
STACK CFI 3d090 .cfa: sp 144 +
STACK CFI 3d0a8 .cfa: sp 0 +
STACK CFI 3d0ac .cfa: x29 80 +
STACK CFI INIT 3d0e8 10c .cfa: sp 0 +
STACK CFI 3d0ec .cfa: sp 80 +
STACK CFI 3d0fc .cfa: x29 48 + x19: .cfa -8 + ^ x20: .cfa -16 + ^ x21: .cfa -24 + ^ x22: .cfa -32 + ^ .ra: .cfa -40 + ^ x29: .cfa -48 + ^
STACK CFI 3d1ac .cfa: sp 80 +
STACK CFI 3d1bc .cfa: sp 0 +
STACK CFI 3d1c0 .cfa: x29 48 +
STACK CFI INIT 3d1f4 190 .cfa: sp 0 +
STACK CFI 3d1f8 .cfa: sp 96 +
STACK CFI 3d20c .cfa: x29 64 + x19: .cfa -8 + ^ x20: .cfa -16 + ^ x21: .cfa -24 + ^ x22: .cfa -32 + ^ x23: .cfa -48 + ^ .ra: .cfa -56 + ^ x29: .cfa -64 + ^
STACK CFI 3d33c .cfa: sp 96 +
STACK CFI 3d350 .cfa: sp 0 +
STACK CFI 3d354 .cfa: x29 64 +
STACK CFI INIT 3d384 1e8 .cfa: sp 0 +
STACK CFI 3d388 .cfa: sp 224 +
STACK CFI 3d3a0 .cfa: x29 80 + x19: .cfa -8 + ^ x20: .cfa -16 + ^ x21: .cfa -24 + ^ x22: .cfa -32 + ^ x23: .cfa -40 + ^ x24: .cfa -48 + ^ x25: .cfa -64 + ^ .ra: .cfa -72 + ^ x29: .cfa -80 + ^
STACK CFI 3d4f8 .cfa: sp 224 +
STACK CFI 3d510 .cfa: sp 0 +
STACK CFI 3d514 .cfa: x29 80 +
STACK CFI INIT 3d56c 49c .cfa: sp 0 +
STACK CFI 3d570 .cfa: sp 80 +
STACK CFI 3d584 .cfa: x29 80 + x19: .cfa -8 + ^ x20: .cfa -16 + ^ x21: .cfa -24 + ^ x22: .cfa -32 + ^ x23: .cfa -40 + ^ x24: .cfa -48 + ^ x25: .cfa -56 + ^ x28: .cfa -64 + ^ .ra: .cfa -72 + ^ x29: .cfa -80 + ^
STACK CFI 3d6fc .cfa: sp 80 +
STACK CFI 3d710 .cfa: sp 0 +
STACK CFI 3d714 .cfa: x29 80 +
STACK CFI INIT 3da08 170 .cfa: sp 0 +
STACK CFI 3da0c .cfa: sp 160 +
STACK CFI 3da24 .cfa: x29 80 + x19: .cfa -8 + ^ x20: .cfa -16 + ^ x21: .cfa -24 + ^ x22: .cfa -32 + ^ x23: .cfa -40 + ^ x24: .cfa -48 + ^ x25: .cfa -56 + ^ x26: .cfa -64 + ^ .ra: .cfa -72 + ^ x29: .cfa -80 + ^
STACK CFI 3db00 .cfa: sp 160 +
STACK CFI 3db18 .cfa: sp 0 +
STACK CFI 3db1c .cfa: x29 80 +
STACK CFI INIT 3db78 c8 .cfa: sp 0 +
STACK CFI 3db7c .cfa: sp 96 +
STACK CFI 3db94 .cfa: x29 80 + x19: .cfa -8 + ^ x20: .cfa -16 + ^ x21: .cfa -24 + ^ x22: .cfa -32 + ^ x23: .cfa -40 + ^ x24: .cfa -48 + ^ x25: .cfa -64 + ^ .ra: .cfa -72 + ^ x29: .cfa -80 + ^
STACK CFI 3dc1c .cfa: sp 96 +
STACK CFI 3dc34 .cfa: sp 0 +
STACK CFI 3dc38 .cfa: x29 80 +
STACK CFI INIT 3dc40 74 .cfa: sp 0 +
STACK CFI 3dc44 .cfa: sp 48 +
STACK CFI 3dc50 .cfa: x29 32 + x19: .cfa -8 + ^ x20: .cfa -16 + ^ .ra: .cfa -24 + ^ x29: .cfa -32 + ^
STACK CFI 3dc9c .cfa: sp 48 +
STACK CFI 3dca8 .cfa: sp 0 +
STACK CFI 3dcac .cfa: x29 32 +
STACK CFI INIT 3dcb4 d8 .cfa: sp 0 +
STACK CFI 3dcb8 .cfa: sp 96 +
STACK CFI 3dcd0 .cfa: x29 80 + x19: .cfa -8 + ^ x20: .cfa -16 + ^ x21: .cfa -24 + ^ x22: .cfa -32 + ^ x23: .cfa -40 + ^ x24: .cfa -48 + ^ x25: .cfa -56 + ^ x26: .cfa -64 + ^ .ra: .cfa -72 + ^ x29: .cfa -80 + ^
STACK CFI 3dd68 .cfa: sp 96 +
STACK CFI 3dd80 .cfa: sp 0 +
STACK CFI 3dd84 .cfa: x29 80 +
STACK CFI INIT 3dda0 b4 .cfa: sp 0 +
STACK CFI 3dda4 .cfa: sp 80 +
STACK CFI 3ddb8 .cfa: x29 64 + x19: .cfa -8 + ^ x20: .cfa -16 + ^ x21: .cfa -24 + ^ x22: .cfa -32 + ^ x23: .cfa -40 + ^ x24: .cfa -48 + ^ .ra: .cfa -56 + ^ x29: .cfa -64 + ^
STACK CFI 3dddc .cfa: sp 80 +
STACK CFI 3ddf0 .cfa: sp 0 +
STACK CFI 3ddf4 .cfa: x29 64 +
STACK CFI INIT 3dea4 74 .cfa: sp 0 +
STACK CFI 3dea8 .cfa: sp 48 +
STACK CFI 3deb4 .cfa: x29 32 + x19: .cfa -8 + ^ x20: .cfa -16 + ^ .ra: .cfa -24 + ^ x29: .cfa -32 + ^
STACK CFI 3df00 .cfa: sp 48 +
STACK CFI 3df0c .cfa: sp 0 +
STACK CFI 3df10 .cfa: x29 32 +
STACK CFI INIT 3df18 3a8 .cfa: sp 0 +
STACK CFI 3df1c .cfa: sp 208 +
STACK CFI 3df3c .cfa: x29 88 + x19: .cfa -8 + ^ x20: .cfa -16 + ^ x21: .cfa -24 + ^ x22: .cfa -32 + ^ x23: .cfa -40 + ^ x24: .cfa -48 + ^ x25: .cfa -56 + ^ x26: .cfa -64 + ^ x27: .cfa -72 + ^ .ra: .cfa -80 + ^ x29: .cfa -88 + ^ v8: .cfa -96 + ^
STACK CFI 3e248 .cfa: sp 208 +
STACK CFI 3e268 .cfa: sp 0 +
STACK CFI 3e26c .cfa: x29 88 +
STACK CFI INIT 3e2c0 184 .cfa: sp 0 +
STACK CFI 3e2c4 .cfa: sp 112 +
STACK CFI 3e2d4 .cfa: x29 48 + x19: .cfa -8 + ^ x20: .cfa -16 + ^ x21: .cfa -24 + ^ x22: .cfa -32 + ^ .ra: .cfa -40 + ^ x29: .cfa -48 + ^
STACK CFI 3e3a0 .cfa: sp 112 +
STACK CFI 3e3b0 .cfa: sp 0 +
STACK CFI 3e3b4 .cfa: x29 48 +
STACK CFI INIT 3e4e8 11c .cfa: sp 0 +
STACK CFI 3e4ec .cfa: sp 80 +
STACK CFI 3e4fc .cfa: x29 48 + x19: .cfa -8 + ^ x20: .cfa -16 + ^ x21: .cfa -24 + ^ x22: .cfa -32 + ^ .ra: .cfa -40 + ^ x29: .cfa -48 + ^
STACK CFI 3e574 .cfa: sp 80 +
STACK CFI 3e584 .cfa: sp 0 +
STACK CFI 3e588 .cfa: x29 48 +
STACK CFI INIT 3e604 124 .cfa: sp 0 +
STACK CFI 3e608 .cfa: sp 80 +
STACK CFI 3e614 .cfa: x29 32 + x19: .cfa -8 + ^ x20: .cfa -16 + ^ .ra: .cfa -24 + ^ x29: .cfa -32 + ^
STACK CFI 3e6e8 .cfa: sp 80 +
STACK CFI 3e6f4 .cfa: sp 0 +
STACK CFI 3e6f8 .cfa: x29 32 +
STACK CFI INIT 3e728 9c .cfa: sp 0 +
STACK CFI 3e72c .cfa: sp 48 +
STACK CFI 3e738 .cfa: x29 32 + x19: .cfa -8 + ^ x20: .cfa -16 + ^ .ra: .cfa -24 + ^ x29: .cfa -32 + ^
STACK CFI 3e788 .cfa: sp 48 +
STACK CFI 3e794 .cfa: sp 0 +
STACK CFI 3e798 .cfa: x29 32 +
STACK CFI INIT 3e84c 2b4 .cfa: sp 0 +
STACK CFI 3e850 .cfa: sp 176 +
STACK CFI 3e860 .cfa: x29 48 + x19: .cfa -8 + ^ x20: .cfa -16 + ^ x21: .cfa -32 + ^ .ra: .cfa -40 + ^ x29: .cfa -48 + ^
STACK CFI 3ea54 .cfa: sp 176 +
STACK CFI 3ea64 .cfa: sp 0 +
STACK CFI 3ea68 .cfa: x29 48 +
STACK CFI INIT 3eb00 480 .cfa: sp 0 +
STACK CFI 3eb04 .cfa: sp 224 +
STACK CFI 3eb20 .cfa: x29 96 + x19: .cfa -8 + ^ x20: .cfa -16 + ^ x21: .cfa -24 + ^ x22: .cfa -32 + ^ x23: .cfa -40 + ^ x24: .cfa -48 + ^ x25: .cfa -56 + ^ x26: .cfa -64 + ^ x27: .cfa -80 + ^ .ra: .cfa -88 + ^ x29: .cfa -96 + ^
STACK CFI 3ed8c .cfa: sp 224 +
STACK CFI 3eda8 .cfa: sp 0 +
STACK CFI 3edac .cfa: x29 96 +
STACK CFI 3ee78 .cfa: sp 224 +
STACK CFI 3ee94 .cfa: sp 0 +
STACK CFI 3ee98 .cfa: x29 96 +
STACK CFI INIT 3ef9c 360 .cfa: sp 0 +
STACK CFI 3efa0 .cfa: sp 192 +
STACK CFI 3efb4 .cfa: x29 64 + x19: .cfa -8 + ^ x20: .cfa -16 + ^ x21: .cfa -24 + ^ x22: .cfa -32 + ^ x23: .cfa -40 + ^ x24: .cfa -48 + ^ .ra: .cfa -56 + ^ x29: .cfa -64 + ^
STACK CFI 3f1d8 .cfa: sp 192 +
STACK CFI 3f1ec .cfa: sp 0 +
STACK CFI 3f1f0 .cfa: x29 64 +
STACK CFI INIT 3f450 468 .cfa: sp 0 +
STACK CFI 3f454 .cfa: sp 224 +
STACK CFI 3f474 .cfa: x29 96 + x19: .cfa -8 + ^ x20: .cfa -16 + ^ x21: .cfa -24 + ^ x22: .cfa -32 + ^ x23: .cfa -40 + ^ x24: .cfa -48 + ^ x25: .cfa -56 + ^ x26: .cfa -64 + ^ x27: .cfa -80 + ^ .ra: .cfa -88 + ^ x29: .cfa -96 + ^ v8: .cfa -104 + ^ v9: .cfa -112 + ^
STACK CFI 3f828 .cfa: sp 224 +
STACK CFI 3f848 .cfa: sp 0 +
STACK CFI 3f84c .cfa: x29 96 +
STACK CFI INIT 3f8b8 1b4 .cfa: sp 0 +
STACK CFI 3f8bc .cfa: sp 96 +
STACK CFI 3f8cc .cfa: x29 48 + x19: .cfa -8 + ^ x20: .cfa -16 + ^ x21: .cfa -32 + ^ .ra: .cfa -40 + ^ x29: .cfa -48 + ^
STACK CFI 3fa18 .cfa: sp 96 +
STACK CFI 3fa28 .cfa: sp 0 +
STACK CFI 3fa2c .cfa: x29 48 +
STACK CFI INIT 3fa6c 6c .cfa: sp 0 +
STACK CFI 3fa70 .cfa: sp 32 +
STACK CFI 3fa78 .cfa: x29 32 + x19: .cfa -16 + ^ .ra: .cfa -24 + ^ x29: .cfa -32 + ^
STACK CFI 3fac8 .cfa: sp 32 +
STACK CFI 3fad0 .cfa: sp 0 +
STACK CFI 3fad4 .cfa: x29 32 +
STACK CFI INIT 3fad8 74 .cfa: sp 0 +
STACK CFI 3fadc .cfa: sp 32 +
STACK CFI 3fae4 .cfa: x29 32 + x19: .cfa -16 + ^ .ra: .cfa -24 + ^ x29: .cfa -32 + ^
STACK CFI 3fb3c .cfa: sp 32 +
STACK CFI 3fb44 .cfa: sp 0 +
STACK CFI 3fb48 .cfa: x29 32 +
STACK CFI INIT 3fba0 148 .cfa: sp 0 +
STACK CFI 3fba4 .cfa: sp 96 +
STACK CFI 3fbb4 .cfa: x29 48 + x19: .cfa -8 + ^ x20: .cfa -16 + ^ x21: .cfa -32 + ^ .ra: .cfa -40 + ^ x29: .cfa -48 + ^
STACK CFI 3fc9c .cfa: sp 96 +
STACK CFI 3fcac .cfa: sp 0 +
STACK CFI 3fcb0 .cfa: x29 48 +
STACK CFI INIT 3fce8 6c .cfa: sp 0 +
STACK CFI 3fcec .cfa: sp 32 +
STACK CFI 3fcf4 .cfa: x29 32 + x19: .cfa -16 + ^ .ra: .cfa -24 + ^ x29: .cfa -32 + ^
STACK CFI 3fd44 .cfa: sp 32 +
STACK CFI 3fd4c .cfa: sp 0 +
STACK CFI 3fd50 .cfa: x29 32 +
STACK CFI INIT 3fd54 74 .cfa: sp 0 +
STACK CFI 3fd58 .cfa: sp 32 +
STACK CFI 3fd60 .cfa: x29 32 + x19: .cfa -16 + ^ .ra: .cfa -24 + ^ x29: .cfa -32 + ^
STACK CFI 3fdb8 .cfa: sp 32 +
STACK CFI 3fdc0 .cfa: sp 0 +
STACK CFI 3fdc4 .cfa: x29 32 +
STACK CFI INIT 3fdf8 6c .cfa: sp 0 +
STACK CFI 3fdfc .cfa: sp 32 +
STACK CFI 3fe04 .cfa: x29 32 + x19: .cfa -16 + ^ .ra: .cfa -24 + ^ x29: .cfa -32 + ^
STACK CFI 3fe54 .cfa: sp 32 +
STACK CFI 3fe5c .cfa: sp 0 +
STACK CFI 3fe60 .cfa: x29 32 +
STACK CFI INIT 3fe68 330 .cfa: sp 0 +
STACK CFI 3fe6c .cfa: sp 128 +
STACK CFI 3fe84 .cfa: x29 64 + x19: .cfa -8 + ^ x20: .cfa -16 + ^ x21: .cfa -24 + ^ x22: .cfa -32 + ^ x23: .cfa -40 + ^ x24: .cfa -48 + ^ .ra: .cfa -56 + ^ x29: .cfa -64 + ^ v8: .cfa -72 + ^ v9: .cfa -80 + ^
STACK CFI 40154 .cfa: sp 128 +
STACK CFI 4016c .cfa: sp 0 +
STACK CFI 40170 .cfa: x29 64 +
STACK CFI INIT 402b0 480 .cfa: sp 0 +
STACK CFI 402b4 .cfa: sp 224 +
STACK CFI 402d0 .cfa: x29 96 + x19: .cfa -8 + ^ x20: .cfa -16 + ^ x21: .cfa -24 + ^ x22: .cfa -32 + ^ x23: .cfa -40 + ^ x24: .cfa -48 + ^ x25: .cfa -56 + ^ x26: .cfa -64 + ^ x27: .cfa -80 + ^ .ra: .cfa -88 + ^ x29: .cfa -96 + ^
STACK CFI 4053c .cfa: sp 224 +
STACK CFI 40558 .cfa: sp 0 +
STACK CFI 4055c .cfa: x29 96 +
STACK CFI 40628 .cfa: sp 224 +
STACK CFI 40644 .cfa: sp 0 +
STACK CFI 40648 .cfa: x29 96 +
STACK CFI INIT 4074c 330 .cfa: sp 0 +
STACK CFI 40750 .cfa: sp 224 +
STACK CFI 40764 .cfa: x29 64 + x19: .cfa -8 + ^ x20: .cfa -16 + ^ x21: .cfa -24 + ^ x22: .cfa -32 + ^ x23: .cfa -48 + ^ .ra: .cfa -56 + ^ x29: .cfa -64 + ^
STACK CFI 4096c .cfa: sp 224 +
STACK CFI 40980 .cfa: sp 0 +
STACK CFI 40984 .cfa: x29 64 +
STACK CFI INIT 40a80 48c .cfa: sp 0 +
STACK CFI 40a84 .cfa: sp 80 +
STACK CFI 40a98 .cfa: x29 80 + x19: .cfa -8 + ^ x20: .cfa -16 + ^ x21: .cfa -24 + ^ x22: .cfa -32 + ^ x23: .cfa -40 + ^ x24: .cfa -48 + ^ x25: .cfa -56 + ^ x28: .cfa -64 + ^ .ra: .cfa -72 + ^ x29: .cfa -80 + ^
STACK CFI 40c00 .cfa: sp 80 +
STACK CFI 40c14 .cfa: sp 0 +
STACK CFI 40c18 .cfa: x29 80 +
STACK CFI INIT 40f0c a8 .cfa: sp 0 +
STACK CFI 40f10 .cfa: sp 32 +
STACK CFI 40f18 .cfa: x29 32 + x19: .cfa -16 + ^ .ra: .cfa -24 + ^ x29: .cfa -32 + ^
STACK CFI 40f4c .cfa: sp 32 +
STACK CFI 40f54 .cfa: sp 0 +
STACK CFI 40f58 .cfa: x29 32 +
STACK CFI 40f5c .cfa: sp 32 +
STACK CFI 40f64 .cfa: sp 0 +
STACK CFI 40f68 .cfa: x29 32 +
STACK CFI INIT 41040 428 .cfa: sp 0 +
STACK CFI 41044 .cfa: sp 208 +
STACK CFI 41064 .cfa: x29 88 + x19: .cfa -8 + ^ x20: .cfa -16 + ^ x21: .cfa -24 + ^ x22: .cfa -32 + ^ x23: .cfa -40 + ^ x24: .cfa -48 + ^ x25: .cfa -56 + ^ x26: .cfa -64 + ^ x27: .cfa -72 + ^ .ra: .cfa -80 + ^ x29: .cfa -88 + ^ v8: .cfa -96 + ^
STACK CFI 413d8 .cfa: sp 208 +
STACK CFI 413f8 .cfa: sp 0 +
STACK CFI 413fc .cfa: x29 88 +
STACK CFI INIT 41468 26c .cfa: sp 0 +
STACK CFI 4146c .cfa: sp 160 +
STACK CFI 41480 .cfa: x29 64 + x19: .cfa -8 + ^ x20: .cfa -16 + ^ x21: .cfa -24 + ^ x22: .cfa -32 + ^ x23: .cfa -48 + ^ .ra: .cfa -56 + ^ x29: .cfa -64 + ^
STACK CFI 415c4 .cfa: sp 160 +
STACK CFI 415d8 .cfa: sp 0 +
STACK CFI 415dc .cfa: x29 64 +
STACK CFI INIT 41778 9c .cfa: sp 0 +
STACK CFI 4177c .cfa: sp 48 +
STACK CFI 41788 .cfa: x29 32 + x19: .cfa -8 + ^ x20: .cfa -16 + ^ .ra: .cfa -24 + ^ x29: .cfa -32 + ^
STACK CFI 417d8 .cfa: sp 48 +
STACK CFI 417e4 .cfa: sp 0 +
STACK CFI 417e8 .cfa: x29 32 +
STACK CFI INIT 41868 2a8 .cfa: sp 0 +
STACK CFI 4186c .cfa: sp 160 +
STACK CFI 4187c .cfa: x29 48 + x19: .cfa -8 + ^ x20: .cfa -16 + ^ x21: .cfa -32 + ^ .ra: .cfa -40 + ^ x29: .cfa -48 + ^
STACK CFI 41a68 .cfa: sp 160 +
STACK CFI 41a78 .cfa: sp 0 +
STACK CFI 41a7c .cfa: x29 48 +
STACK CFI INIT 41b38 57c .cfa: sp 0 +
STACK CFI 41b3c .cfa: sp 144 +
STACK CFI 41b50 .cfa: x29 48 + x19: .cfa -8 + ^ x20: .cfa -16 + ^ x21: .cfa -24 + ^ x22: .cfa -32 + ^ .ra: .cfa -40 + ^ x29: .cfa -48 + ^ v8: .cfa -64 + ^
STACK CFI 42018 .cfa: sp 144 +
STACK CFI 4202c .cfa: sp 0 +
STACK CFI 42030 .cfa: x29 48 +
STACK CFI INIT 420b4 b8 .cfa: sp 0 +
STACK CFI 420b8 .cfa: sp 64 +
STACK CFI 420c4 .cfa: x29 32 + x19: .cfa -8 + ^ x20: .cfa -16 + ^ .ra: .cfa -24 + ^ x29: .cfa -32 + ^
STACK CFI 4212c .cfa: sp 64 +
STACK CFI 42138 .cfa: sp 0 +
STACK CFI 4213c .cfa: x29 32 +
STACK CFI INIT 4216c 21c .cfa: sp 0 +
STACK CFI 42170 .cfa: sp 144 +
STACK CFI 42188 .cfa: x29 80 + x19: .cfa -8 + ^ x20: .cfa -16 + ^ x21: .cfa -24 + ^ x22: .cfa -32 + ^ x23: .cfa -40 + ^ x24: .cfa -48 + ^ x25: .cfa -56 + ^ x26: .cfa -64 + ^ .ra: .cfa -72 + ^ x29: .cfa -80 + ^
STACK CFI 42330 .cfa: sp 144 +
STACK CFI 42348 .cfa: sp 0 +
STACK CFI 4234c .cfa: x29 80 +
STACK CFI INIT 42388 11c .cfa: sp 0 +
STACK CFI 4238c .cfa: sp 144 +
STACK CFI 423a4 .cfa: x29 80 + x19: .cfa -8 + ^ x20: .cfa -16 + ^ x21: .cfa -24 + ^ x22: .cfa -32 + ^ x23: .cfa -40 + ^ x24: .cfa -48 + ^ x25: .cfa -64 + ^ .ra: .cfa -72 + ^ x29: .cfa -80 + ^
STACK CFI 4245c .cfa: sp 144 +
STACK CFI 42474 .cfa: sp 0 +
STACK CFI 42478 .cfa: x29 80 +
STACK CFI INIT 424a4 6c .cfa: sp 0 +
STACK CFI 424a8 .cfa: sp 32 +
STACK CFI 424b0 .cfa: x29 32 + x19: .cfa -16 + ^ .ra: .cfa -24 + ^ x29: .cfa -32 + ^
STACK CFI 42500 .cfa: sp 32 +
STACK CFI 42508 .cfa: sp 0 +
STACK CFI 4250c .cfa: x29 32 +
STACK CFI INIT 42510 74 .cfa: sp 0 +
STACK CFI 42514 .cfa: sp 32 +
STACK CFI 4251c .cfa: x29 32 + x19: .cfa -16 + ^ .ra: .cfa -24 + ^ x29: .cfa -32 + ^
STACK CFI 42574 .cfa: sp 32 +
STACK CFI 4257c .cfa: sp 0 +
STACK CFI 42580 .cfa: x29 32 +
STACK CFI INIT 425d8 148 .cfa: sp 0 +
STACK CFI 425dc .cfa: sp 96 +
STACK CFI 425ec .cfa: x29 48 + x19: .cfa -8 + ^ x20: .cfa -16 + ^ x21: .cfa -32 + ^ .ra: .cfa -40 + ^ x29: .cfa -48 + ^
STACK CFI 426d4 .cfa: sp 96 +
STACK CFI 426e4 .cfa: sp 0 +
STACK CFI 426e8 .cfa: x29 48 +
STACK CFI INIT 42720 6c .cfa: sp 0 +
STACK CFI 42724 .cfa: sp 32 +
STACK CFI 4272c .cfa: x29 32 + x19: .cfa -16 + ^ .ra: .cfa -24 + ^ x29: .cfa -32 + ^
STACK CFI 4277c .cfa: sp 32 +
STACK CFI 42784 .cfa: sp 0 +
STACK CFI 42788 .cfa: x29 32 +
STACK CFI INIT 4278c 74 .cfa: sp 0 +
STACK CFI 42790 .cfa: sp 32 +
STACK CFI 42798 .cfa: x29 32 + x19: .cfa -16 + ^ .ra: .cfa -24 + ^ x29: .cfa -32 + ^
STACK CFI 427f0 .cfa: sp 32 +
STACK CFI 427f8 .cfa: sp 0 +
STACK CFI 427fc .cfa: x29 32 +
STACK CFI INIT 42830 6c .cfa: sp 0 +
STACK CFI 42834 .cfa: sp 32 +
STACK CFI 4283c .cfa: x29 32 + x19: .cfa -16 + ^ .ra: .cfa -24 + ^ x29: .cfa -32 + ^
STACK CFI 4288c .cfa: sp 32 +
STACK CFI 42894 .cfa: sp 0 +
STACK CFI 42898 .cfa: x29 32 +
STACK CFI INIT 428a0 178 .cfa: sp 0 +
STACK CFI 428a4 .cfa: sp 160 +
STACK CFI 428bc .cfa: x29 80 + x19: .cfa -8 + ^ x20: .cfa -16 + ^ x21: .cfa -24 + ^ x22: .cfa -32 + ^ x23: .cfa -40 + ^ x24: .cfa -48 + ^ x25: .cfa -56 + ^ x26: .cfa -64 + ^ .ra: .cfa -72 + ^ x29: .cfa -80 + ^
STACK CFI 429a0 .cfa: sp 160 +
STACK CFI 429b8 .cfa: sp 0 +
STACK CFI 429bc .cfa: x29 80 +
STACK CFI INIT 42a18 3a8 .cfa: sp 0 +
STACK CFI 42a1c .cfa: sp 160 +
STACK CFI 42a38 .cfa: x29 80 + x19: .cfa -8 + ^ x20: .cfa -16 + ^ x21: .cfa -24 + ^ x22: .cfa -32 + ^ x23: .cfa -40 + ^ x24: .cfa -48 + ^ x25: .cfa -56 + ^ x26: .cfa -64 + ^ .ra: .cfa -72 + ^ x29: .cfa -80 + ^ v8: .cfa -88 + ^ v9: .cfa -96 + ^
STACK CFI 42d74 .cfa: sp 160 +
STACK CFI 42d90 .cfa: sp 0 +
STACK CFI 42d94 .cfa: x29 80 +
STACK CFI INIT 42ed8 9b8 .cfa: sp 0 +
STACK CFI 42edc .cfa: sp 112 +
STACK CFI 42ef8 .cfa: x29 96 + x19: .cfa -8 + ^ x20: .cfa -16 + ^ x21: .cfa -24 + ^ x22: .cfa -32 + ^ x23: .cfa -40 + ^ x24: .cfa -48 + ^ x25: .cfa -56 + ^ x26: .cfa -64 + ^ x27: .cfa -72 + ^ x28: .cfa -80 + ^ .ra: .cfa -88 + ^ x29: .cfa -96 + ^ v8: .cfa -112 + ^
STACK CFI 43758 .cfa: sp 112 +
STACK CFI 43774 .cfa: sp 0 +
STACK CFI 43778 .cfa: x29 96 +
STACK CFI INIT 43890 3bc .cfa: sp 0 +
STACK CFI 43894 .cfa: sp 176 +
STACK CFI 438ac .cfa: x29 80 + x19: .cfa -8 + ^ x20: .cfa -16 + ^ x21: .cfa -24 + ^ x22: .cfa -32 + ^ x23: .cfa -40 + ^ x24: .cfa -48 + ^ x25: .cfa -64 + ^ .ra: .cfa -72 + ^ x29: .cfa -80 + ^
STACK CFI 43b78 .cfa: sp 176 +
STACK CFI 43b90 .cfa: sp 0 +
STACK CFI 43b94 .cfa: x29 80 +
STACK CFI INIT 43c4c 19c .cfa: sp 0 +
STACK CFI 43c50 .cfa: sp 128 +
STACK CFI 43c60 .cfa: x29 48 + x19: .cfa -8 + ^ x20: .cfa -16 + ^ x21: .cfa -32 + ^ .ra: .cfa -40 + ^ x29: .cfa -48 + ^
STACK CFI 43d70 .cfa: sp 128 +
STACK CFI 43d80 .cfa: sp 0 +
STACK CFI 43d84 .cfa: x29 48 +
STACK CFI INIT 43de8 184 .cfa: sp 0 +
STACK CFI 43dec .cfa: sp 80 +
STACK CFI 43dfc .cfa: x29 48 + x19: .cfa -8 + ^ x20: .cfa -16 + ^ x21: .cfa -24 + ^ x22: .cfa -32 + ^ .ra: .cfa -40 + ^ x29: .cfa -48 + ^
STACK CFI 43ee4 .cfa: sp 80 +
STACK CFI 43ef4 .cfa: sp 0 +
STACK CFI 43ef8 .cfa: x29 48 +
STACK CFI INIT 43f6c 158 .cfa: sp 0 +
STACK CFI 43f70 .cfa: sp 96 +
STACK CFI 43f84 .cfa: x29 64 + x19: .cfa -8 + ^ x20: .cfa -16 + ^ x21: .cfa -24 + ^ x22: .cfa -32 + ^ x23: .cfa -48 + ^ .ra: .cfa -56 + ^ x29: .cfa -64 + ^
STACK CFI 44038 .cfa: sp 96 +
STACK CFI 4404c .cfa: sp 0 +
STACK CFI 44050 .cfa: x29 64 +
STACK CFI 44064 .cfa: sp 96 +
STACK CFI 44078 .cfa: sp 0 +
STACK CFI 4407c .cfa: x29 64 +
STACK CFI INIT 440c4 12c .cfa: sp 0 +
STACK CFI 440c8 .cfa: sp 32 +
STACK CFI 440d0 .cfa: x29 32 + x19: .cfa -8 + ^ x20: .cfa -16 + ^ .ra: .cfa -24 + ^ x29: .cfa -32 + ^
STACK CFI 441e0 .cfa: sp 32 +
STACK CFI 441e8 .cfa: sp 0 +
STACK CFI 441ec .cfa: x29 32 +
STACK CFI INIT 443a4 8c .cfa: sp 0 +
STACK CFI 443a8 .cfa: sp 32 +
STACK CFI 443b0 .cfa: x29 32 + x19: .cfa -8 + ^ x20: .cfa -16 + ^ .ra: .cfa -24 + ^ x29: .cfa -32 + ^
STACK CFI 443f4 .cfa: sp 32 +
STACK CFI 443fc .cfa: sp 0 +
STACK CFI 44400 .cfa: x29 32 +
STACK CFI 44410 .cfa: sp 32 +
STACK CFI 44418 .cfa: sp 0 +
STACK CFI 4441c .cfa: x29 32 +
STACK CFI INIT 444bc 288 .cfa: sp 0 +
STACK CFI 444c0 .cfa: sp 176 +
STACK CFI 444d0 .cfa: x29 48 + x19: .cfa -8 + ^ x20: .cfa -16 + ^ x21: .cfa -24 + ^ x22: .cfa -32 + ^ .ra: .cfa -40 + ^ x29: .cfa -48 + ^
STACK CFI 446ac .cfa: sp 176 +
STACK CFI 446bc .cfa: sp 0 +
STACK CFI 446c0 .cfa: x29 48 +
STACK CFI INIT 4476c da8 .cfa: sp 0 +
STACK CFI 44770 .cfa: sp 96 +
STACK CFI 44788 .cfa: x29 80 + x19: .cfa -8 + ^ x20: .cfa -16 + ^ x21: .cfa -24 + ^ x22: .cfa -32 + ^ x23: .cfa -40 + ^ x24: .cfa -48 + ^ x25: .cfa -56 + ^ x28: .cfa -64 + ^ .ra: .cfa -72 + ^ x29: .cfa -80 + ^ v8: .cfa -88 + ^ v9: .cfa -96 + ^
STACK CFI 44fe8 .cfa: sp 96 +
STACK CFI 45000 .cfa: sp 0 +
STACK CFI 45004 .cfa: x29 80 +
STACK CFI INIT 455f4 264 .cfa: sp 0 +
STACK CFI 455f8 .cfa: sp 80 +
STACK CFI 4560c .cfa: x29 80 + x19: .cfa -8 + ^ x20: .cfa -16 + ^ x21: .cfa -24 + ^ x22: .cfa -32 + ^ x23: .cfa -40 + ^ x24: .cfa -48 + ^ x25: .cfa -56 + ^ x28: .cfa -64 + ^ .ra: .cfa -72 + ^ x29: .cfa -80 + ^
STACK CFI 457b4 .cfa: sp 80 +
STACK CFI 457c8 .cfa: sp 0 +
STACK CFI 457cc .cfa: x29 80 +
STACK CFI INIT 45858 274 .cfa: sp 0 +
STACK CFI 4585c .cfa: sp 192 +
STACK CFI 45878 .cfa: x29 96 + x19: .cfa -8 + ^ x20: .cfa -16 + ^ x21: .cfa -24 + ^ x22: .cfa -32 + ^ x23: .cfa -40 + ^ x24: .cfa -48 + ^ x25: .cfa -56 + ^ x26: .cfa -64 + ^ x27: .cfa -72 + ^ x28: .cfa -80 + ^ .ra: .cfa -88 + ^ x29: .cfa -96 + ^
STACK CFI 45a5c .cfa: sp 192 +
STACK CFI 45a78 .cfa: sp 0 +
STACK CFI 45a7c .cfa: x29 96 +
STACK CFI INIT 45acc c0 .cfa: sp 0 +
STACK CFI 45ad0 .cfa: sp 64 +
STACK CFI 45adc .cfa: x29 32 + x19: .cfa -8 + ^ x20: .cfa -16 + ^ .ra: .cfa -24 + ^ x29: .cfa -32 + ^
STACK CFI 45b4c .cfa: sp 64 +
STACK CFI 45b58 .cfa: sp 0 +
STACK CFI 45b5c .cfa: x29 32 +
STACK CFI INIT 45b8c 19c .cfa: sp 0 +
STACK CFI 45b90 .cfa: sp 128 +
STACK CFI 45ba0 .cfa: x29 48 + x19: .cfa -8 + ^ x20: .cfa -16 + ^ x21: .cfa -32 + ^ .ra: .cfa -40 + ^ x29: .cfa -48 + ^
STACK CFI 45cb0 .cfa: sp 128 +
STACK CFI 45cc0 .cfa: sp 0 +
STACK CFI 45cc4 .cfa: x29 48 +
STACK CFI INIT 45d28 19c .cfa: sp 0 +
STACK CFI 45d2c .cfa: sp 80 +
STACK CFI 45d3c .cfa: x29 48 + x19: .cfa -8 + ^ x20: .cfa -16 + ^ x21: .cfa -24 + ^ x22: .cfa -32 + ^ .ra: .cfa -40 + ^ x29: .cfa -48 + ^
STACK CFI 45e3c .cfa: sp 80 +
STACK CFI 45e4c .cfa: sp 0 +
STACK CFI 45e50 .cfa: x29 48 +
STACK CFI INIT 45ec4 1cc .cfa: sp 0 +
STACK CFI 45ec8 .cfa: sp 48 +
STACK CFI 45ed4 .cfa: x29 48 + x19: .cfa -8 + ^ x20: .cfa -16 + ^ x21: .cfa -32 + ^ .ra: .cfa -40 + ^ x29: .cfa -48 + ^
STACK CFI 4607c .cfa: sp 48 +
STACK CFI 46088 .cfa: sp 0 +
STACK CFI 4608c .cfa: x29 48 +
STACK CFI INIT 460e4 11c .cfa: sp 0 +
STACK CFI 460e8 .cfa: sp 96 +
STACK CFI 460fc .cfa: x29 64 + x19: .cfa -8 + ^ x20: .cfa -16 + ^ x21: .cfa -24 + ^ x22: .cfa -32 + ^ x23: .cfa -48 + ^ .ra: .cfa -56 + ^ x29: .cfa -64 + ^
STACK CFI 46174 .cfa: sp 96 +
STACK CFI 46188 .cfa: sp 0 +
STACK CFI 4618c .cfa: x29 64 +
STACK CFI INIT 46200 7e8 .cfa: sp 0 +
STACK CFI 46204 .cfa: sp 320 +
STACK CFI 46220 .cfa: x29 96 + x19: .cfa -8 + ^ x20: .cfa -16 + ^ x21: .cfa -24 + ^ x22: .cfa -32 + ^ x23: .cfa -40 + ^ x24: .cfa -48 + ^ x25: .cfa -56 + ^ x26: .cfa -64 + ^ x28: .cfa -80 + ^ .ra: .cfa -88 + ^ x29: .cfa -96 + ^
STACK CFI 46804 .cfa: sp 320 +
STACK CFI 46820 .cfa: sp 0 +
STACK CFI 46824 .cfa: x29 96 +
STACK CFI INIT 469e8 3c8 .cfa: sp 0 +
STACK CFI 469ec .cfa: sp 80 +
STACK CFI 46a00 .cfa: x29 80 + x19: .cfa -8 + ^ x20: .cfa -16 + ^ x21: .cfa -24 + ^ x22: .cfa -32 + ^ x23: .cfa -40 + ^ x24: .cfa -48 + ^ x25: .cfa -56 + ^ x28: .cfa -64 + ^ .ra: .cfa -72 + ^ x29: .cfa -80 + ^
STACK CFI 46d10 .cfa: sp 80 +
STACK CFI 46d24 .cfa: sp 0 +
STACK CFI 46d28 .cfa: x29 80 +
STACK CFI INIT 46db0 1bc .cfa: sp 0 +
STACK CFI 46db4 .cfa: sp 112 +
STACK CFI 46dc8 .cfa: x29 48 + x19: .cfa -8 + ^ x20: .cfa -16 + ^ x21: .cfa -24 + ^ x22: .cfa -32 + ^ .ra: .cfa -40 + ^ x29: .cfa -48 + ^ v8: .cfa -64 + ^
STACK CFI 46f20 .cfa: sp 112 +
STACK CFI 46f34 .cfa: sp 0 +
STACK CFI 46f38 .cfa: x29 48 +
STACK CFI INIT 46f6c 3e0 .cfa: sp 0 +
STACK CFI 46f70 .cfa: sp 160 +
STACK CFI 46f8c .cfa: x29 96 + x19: .cfa -8 + ^ x20: .cfa -16 + ^ x21: .cfa -24 + ^ x22: .cfa -32 + ^ x23: .cfa -40 + ^ x24: .cfa -48 + ^ x25: .cfa -56 + ^ x26: .cfa -64 + ^ x27: .cfa -80 + ^ .ra: .cfa -88 + ^ x29: .cfa -96 + ^
STACK CFI 472e4 .cfa: sp 160 +
STACK CFI 47300 .cfa: sp 0 +
STACK CFI 47304 .cfa: x29 96 +
STACK CFI INIT 475e0 134 .cfa: sp 0 +
STACK CFI 475e4 .cfa: sp 80 +
STACK CFI 475f0 .cfa: x29 32 + x19: .cfa -8 + ^ x20: .cfa -16 + ^ .ra: .cfa -24 + ^ x29: .cfa -32 + ^
STACK CFI 47620 .cfa: sp 80 +
STACK CFI 4762c .cfa: sp 0 +
STACK CFI 47630 .cfa: x29 32 +
STACK CFI INIT 47714 78 .cfa: sp 0 +
STACK CFI 47718 .cfa: sp 32 +
STACK CFI 47720 .cfa: x29 32 + x19: .cfa -8 + ^ x20: .cfa -16 + ^ .ra: .cfa -24 + ^ x29: .cfa -32 + ^
STACK CFI 4772c .cfa: sp 32 +
STACK CFI 47734 .cfa: sp 0 +
STACK CFI 47738 .cfa: x29 32 +
STACK CFI INIT 4778c 74 .cfa: sp 0 +
STACK CFI 47790 .cfa: sp 48 +
STACK CFI 4779c .cfa: x29 32 + x19: .cfa -8 + ^ x20: .cfa -16 + ^ .ra: .cfa -24 + ^ x29: .cfa -32 + ^
STACK CFI 477e8 .cfa: sp 48 +
STACK CFI 477f4 .cfa: sp 0 +
STACK CFI 477f8 .cfa: x29 32 +
STACK CFI INIT 47900 2d8 .cfa: sp 0 +
STACK CFI 47904 .cfa: sp 128 +
STACK CFI 47918 .cfa: x29 64 + x19: .cfa -8 + ^ x20: .cfa -16 + ^ x21: .cfa -24 + ^ x22: .cfa -32 + ^ x23: .cfa -48 + ^ .ra: .cfa -56 + ^ x29: .cfa -64 + ^
STACK CFI 47a84 .cfa: sp 128 +
STACK CFI 47a98 .cfa: sp 0 +
STACK CFI 47a9c .cfa: x29 64 +
STACK CFI INIT 47c2c 250 .cfa: sp 0 +
STACK CFI 47c30 .cfa: sp 112 +
STACK CFI 47c40 .cfa: x29 48 + x19: .cfa -8 + ^ x20: .cfa -16 + ^ x21: .cfa -32 + ^ .ra: .cfa -40 + ^ x29: .cfa -48 + ^
STACK CFI 47d24 .cfa: sp 112 +
STACK CFI 47d34 .cfa: sp 0 +
STACK CFI 47d38 .cfa: x29 48 +
STACK CFI INIT 47f24 180 .cfa: sp 0 +
STACK CFI 47f28 .cfa: sp 128 +
STACK CFI 47f38 .cfa: x29 48 + x19: .cfa -8 + ^ x20: .cfa -16 + ^ x21: .cfa -24 + ^ x22: .cfa -32 + ^ .ra: .cfa -40 + ^ x29: .cfa -48 + ^
STACK CFI 47f9c .cfa: sp 128 +
STACK CFI 47fac .cfa: sp 0 +
STACK CFI 47fb0 .cfa: x29 48 +
STACK CFI INIT 480a4 a4 .cfa: sp 0 +
STACK CFI 480a8 .cfa: sp 48 +
STACK CFI 480b4 .cfa: x29 48 + x19: .cfa -8 + ^ x20: .cfa -16 + ^ x21: .cfa -32 + ^ .ra: .cfa -40 + ^ x29: .cfa -48 + ^
STACK CFI 48120 .cfa: sp 48 +
STACK CFI 4812c .cfa: sp 0 +
STACK CFI 48130 .cfa: x29 48 +
STACK CFI INIT 4814c 2bc .cfa: sp 0 +
STACK CFI 48150 .cfa: sp 128 +
STACK CFI 48164 .cfa: x29 64 + x19: .cfa -8 + ^ x20: .cfa -16 + ^ x21: .cfa -24 + ^ x22: .cfa -32 + ^ x23: .cfa -48 + ^ .ra: .cfa -56 + ^ x29: .cfa -64 + ^
STACK CFI 482b4 .cfa: sp 128 +
STACK CFI 482c8 .cfa: sp 0 +
STACK CFI 482cc .cfa: x29 64 +
STACK CFI INIT 48408 2bc .cfa: sp 0 +
STACK CFI 4840c .cfa: sp 128 +
STACK CFI 48420 .cfa: x29 64 + x19: .cfa -8 + ^ x20: .cfa -16 + ^ x21: .cfa -24 + ^ x22: .cfa -32 + ^ x23: .cfa -48 + ^ .ra: .cfa -56 + ^ x29: .cfa -64 + ^
STACK CFI 48570 .cfa: sp 128 +
STACK CFI 48584 .cfa: sp 0 +
STACK CFI 48588 .cfa: x29 64 +
STACK CFI INIT 486c4 278 .cfa: sp 0 +
STACK CFI 486c8 .cfa: sp 128 +
STACK CFI 486dc .cfa: x29 64 + x19: .cfa -8 + ^ x20: .cfa -16 + ^ x21: .cfa -24 + ^ x22: .cfa -32 + ^ x23: .cfa -48 + ^ .ra: .cfa -56 + ^ x29: .cfa -64 + ^
STACK CFI 487e8 .cfa: sp 128 +
STACK CFI 487fc .cfa: sp 0 +
STACK CFI 48800 .cfa: x29 64 +
STACK CFI INIT 4893c 2c8 .cfa: sp 0 +
STACK CFI 48940 .cfa: sp 128 +
STACK CFI 48954 .cfa: x29 64 + x19: .cfa -8 + ^ x20: .cfa -16 + ^ x21: .cfa -24 + ^ x22: .cfa -32 + ^ x23: .cfa -48 + ^ .ra: .cfa -56 + ^ x29: .cfa -64 + ^
STACK CFI 48ab0 .cfa: sp 128 +
STACK CFI 48ac4 .cfa: sp 0 +
STACK CFI 48ac8 .cfa: x29 64 +
STACK CFI INIT 48c04 4bc .cfa: sp 0 +
STACK CFI 48c08 .cfa: sp 128 +
STACK CFI 48c1c .cfa: x29 64 + x19: .cfa -8 + ^ x20: .cfa -16 + ^ x21: .cfa -24 + ^ x22: .cfa -32 + ^ x23: .cfa -48 + ^ .ra: .cfa -56 + ^ x29: .cfa -64 + ^
STACK CFI 48f18 .cfa: sp 128 +
STACK CFI 48f2c .cfa: sp 0 +
STACK CFI 48f30 .cfa: x29 64 +
STACK CFI INIT 490c0 154 .cfa: sp 0 +
STACK CFI 490c4 .cfa: sp 384 +
STACK CFI 490d8 .cfa: x29 64 + x19: .cfa -8 + ^ x20: .cfa -16 + ^ x21: .cfa -24 + ^ x22: .cfa -32 + ^ x23: .cfa -40 + ^ x28: .cfa -48 + ^ .ra: .cfa -56 + ^ x29: .cfa -64 + ^
STACK CFI 491bc .cfa: sp 384 +
STACK CFI 491d0 .cfa: sp 0 +
STACK CFI 491d4 .cfa: x29 64 +
STACK CFI INIT 4922c 4e0 .cfa: sp 0 +
STACK CFI 49230 .cfa: sp 64 +
STACK CFI 49240 .cfa: x29 64 + x19: .cfa -8 + ^ x20: .cfa -16 + ^ x21: .cfa -24 + ^ x22: .cfa -32 + ^ x23: .cfa -40 + ^ x24: .cfa -48 + ^ .ra: .cfa -56 + ^ x29: .cfa -64 + ^
STACK CFI 496e0 .cfa: sp 64 +
STACK CFI 496f0 .cfa: sp 0 +
STACK CFI 496f4 .cfa: x29 64 +
STACK CFI INIT 49a3c 294 .cfa: sp 0 +
STACK CFI 49a40 .cfa: sp 240 +
STACK CFI 49a58 .cfa: x29 80 + x19: .cfa -8 + ^ x20: .cfa -16 + ^ x21: .cfa -24 + ^ x22: .cfa -32 + ^ x23: .cfa -40 + ^ x24: .cfa -48 + ^ x25: .cfa -64 + ^ .ra: .cfa -72 + ^ x29: .cfa -80 + ^
STACK CFI 49bf8 .cfa: sp 240 +
STACK CFI 49c10 .cfa: sp 0 +
STACK CFI 49c14 .cfa: x29 80 +
STACK CFI INIT 49d4c 50 .cfa: sp 0 +
STACK CFI 49d50 .cfa: sp 32 +
STACK CFI 49d58 .cfa: x29 32 + x19: .cfa -8 + ^ x20: .cfa -16 + ^ .ra: .cfa -24 + ^ x29: .cfa -32 + ^
STACK CFI INIT 49dc8 7c0 .cfa: sp 0 +
STACK CFI 49dcc .cfa: sp 320 +
STACK CFI 49de8 .cfa: x29 96 + x19: .cfa -8 + ^ x20: .cfa -16 + ^ x21: .cfa -24 + ^ x22: .cfa -32 + ^ x23: .cfa -40 + ^ x24: .cfa -48 + ^ x25: .cfa -56 + ^ x26: .cfa -64 + ^ x27: .cfa -72 + ^ x28: .cfa -80 + ^ .ra: .cfa -88 + ^ x29: .cfa -96 + ^
STACK CFI 4a438 .cfa: sp 320 +
STACK CFI 4a454 .cfa: sp 0 +
STACK CFI 4a458 .cfa: x29 96 +
STACK CFI INIT 4e908 c74 .cfa: sp 0 +
STACK CFI 4e90c .cfa: sp 96 +
STACK CFI 4e924 .cfa: x29 96 + x19: .cfa -8 + ^ x20: .cfa -16 + ^ x21: .cfa -24 + ^ x22: .cfa -32 + ^ x23: .cfa -40 + ^ x24: .cfa -48 + ^ x25: .cfa -56 + ^ x26: .cfa -64 + ^ x27: .cfa -72 + ^ x28: .cfa -80 + ^ .ra: .cfa -88 + ^ x29: .cfa -96 + ^
STACK CFI 4f39c .cfa: sp 96 +
STACK CFI 4f3b4 .cfa: sp 0 +
STACK CFI 4f3b8 .cfa: x29 96 +
STACK CFI INIT 4f6d0 26c .cfa: sp 0 +
STACK CFI 4f6d4 .cfa: sp 128 +
STACK CFI 4f6e4 .cfa: x29 48 + x19: .cfa -8 + ^ x20: .cfa -16 + ^ x21: .cfa -24 + ^ x22: .cfa -32 + ^ .ra: .cfa -40 + ^ x29: .cfa -48 + ^
STACK CFI 4f888 .cfa: sp 128 +
STACK CFI 4f898 .cfa: sp 0 +
STACK CFI 4f89c .cfa: x29 48 +
STACK CFI INIT 4fccc 3b8 .cfa: sp 0 +
STACK CFI 4fcd0 .cfa: sp 96 +
STACK CFI 4fce8 .cfa: x29 96 + x19: .cfa -8 + ^ x20: .cfa -16 + ^ x21: .cfa -24 + ^ x22: .cfa -32 + ^ x23: .cfa -40 + ^ x24: .cfa -48 + ^ x25: .cfa -56 + ^ x26: .cfa -64 + ^ x27: .cfa -72 + ^ x28: .cfa -80 + ^ .ra: .cfa -88 + ^ x29: .cfa -96 + ^
STACK CFI 50024 .cfa: sp 96 +
STACK CFI 5003c .cfa: sp 0 +
STACK CFI 50040 .cfa: x29 96 +
STACK CFI INIT 50124 cb4 .cfa: sp 0 +
STACK CFI 50128 .cfa: sp 96 +
STACK CFI 50140 .cfa: x29 96 + x19: .cfa -8 + ^ x20: .cfa -16 + ^ x21: .cfa -24 + ^ x22: .cfa -32 + ^ x23: .cfa -40 + ^ x24: .cfa -48 + ^ x25: .cfa -56 + ^ x26: .cfa -64 + ^ x27: .cfa -72 + ^ x28: .cfa -80 + ^ .ra: .cfa -88 + ^ x29: .cfa -96 + ^
STACK CFI 50be8 .cfa: sp 96 +
STACK CFI 50c00 .cfa: sp 0 +
STACK CFI 50c04 .cfa: x29 96 +
STACK CFI INIT 510c0 afc .cfa: sp 0 +
STACK CFI 510c4 .cfa: sp 96 +
STACK CFI 510dc .cfa: x29 96 + x19: .cfa -8 + ^ x20: .cfa -16 + ^ x21: .cfa -24 + ^ x22: .cfa -32 + ^ x23: .cfa -40 + ^ x24: .cfa -48 + ^ x25: .cfa -56 + ^ x26: .cfa -64 + ^ x27: .cfa -72 + ^ x28: .cfa -80 + ^ .ra: .cfa -88 + ^ x29: .cfa -96 + ^
STACK CFI 51b30 .cfa: sp 96 +
STACK CFI 51b48 .cfa: sp 0 +
STACK CFI 51b4c .cfa: x29 96 +
STACK CFI INIT 51d98 1430 .cfa: sp 0 +
STACK CFI 51d9c .cfa: sp 96 +
STACK CFI 51db4 .cfa: x29 96 + x19: .cfa -8 + ^ x20: .cfa -16 + ^ x21: .cfa -24 + ^ x22: .cfa -32 + ^ x23: .cfa -40 + ^ x24: .cfa -48 + ^ x25: .cfa -56 + ^ x26: .cfa -64 + ^ x27: .cfa -72 + ^ x28: .cfa -80 + ^ .ra: .cfa -88 + ^ x29: .cfa -96 + ^
STACK CFI 53050 .cfa: sp 96 +
STACK CFI 53068 .cfa: sp 0 +
STACK CFI 5306c .cfa: x29 96 +
STACK CFI INIT 532ec 75c .cfa: sp 0 +
STACK CFI 532f0 .cfa: sp 368 +
STACK CFI 5330c .cfa: x29 96 + x19: .cfa -8 + ^ x20: .cfa -16 + ^ x21: .cfa -24 + ^ x22: .cfa -32 + ^ x23: .cfa -40 + ^ x24: .cfa -48 + ^ x25: .cfa -56 + ^ x26: .cfa -64 + ^ x27: .cfa -72 + ^ x28: .cfa -80 + ^ .ra: .cfa -88 + ^ x29: .cfa -96 + ^
STACK CFI 533c0 .cfa: sp 368 +
STACK CFI 533dc .cfa: sp 0 +
STACK CFI 533e0 .cfa: x29 96 +
STACK CFI 53434 .cfa: sp 368 +
STACK CFI 53450 .cfa: sp 0 +
STACK CFI 53454 .cfa: x29 96 +
STACK CFI INIT 53e08 eb0 .cfa: sp 0 +
STACK CFI 53e0c .cfa: sp 96 +
STACK CFI 53e24 .cfa: x29 96 + x19: .cfa -8 + ^ x20: .cfa -16 + ^ x21: .cfa -24 + ^ x22: .cfa -32 + ^ x23: .cfa -40 + ^ x24: .cfa -48 + ^ x25: .cfa -56 + ^ x26: .cfa -64 + ^ x27: .cfa -72 + ^ x28: .cfa -80 + ^ .ra: .cfa -88 + ^ x29: .cfa -96 + ^
STACK CFI 54acc .cfa: sp 96 +
STACK CFI 54ae4 .cfa: sp 0 +
STACK CFI 54ae8 .cfa: x29 96 +
STACK CFI INIT 5502c 1c9c .cfa: sp 0 +
STACK CFI 55030 .cfa: sp 112 +
STACK CFI 5504c .cfa: x29 96 + x19: .cfa -8 + ^ x20: .cfa -16 + ^ x21: .cfa -24 + ^ x22: .cfa -32 + ^ x23: .cfa -40 + ^ x24: .cfa -48 + ^ x25: .cfa -56 + ^ x26: .cfa -64 + ^ x27: .cfa -72 + ^ x28: .cfa -80 + ^ .ra: .cfa -88 + ^ x29: .cfa -96 + ^ v8: .cfa -112 + ^
STACK CFI 55434 .cfa: sp 112 +
STACK CFI 55450 .cfa: sp 0 +
STACK CFI 55454 .cfa: x29 96 +
STACK CFI INIT 5948c 9a0 .cfa: sp 0 +
STACK CFI 59490 .cfa: sp 144 +
STACK CFI 594a8 .cfa: x29 80 + x19: .cfa -8 + ^ x20: .cfa -16 + ^ x21: .cfa -24 + ^ x22: .cfa -32 + ^ x23: .cfa -40 + ^ x24: .cfa -48 + ^ x25: .cfa -64 + ^ .ra: .cfa -72 + ^ x29: .cfa -80 + ^
STACK CFI 59da8 .cfa: sp 144 +
STACK CFI 59dc0 .cfa: sp 0 +
STACK CFI 59dc4 .cfa: x29 80 +
STACK CFI INIT 5b358 57c .cfa: sp 0 +
STACK CFI 5b35c .cfa: sp 96 +
STACK CFI 5b374 .cfa: x29 96 + x19: .cfa -8 + ^ x20: .cfa -16 + ^ x21: .cfa -24 + ^ x22: .cfa -32 + ^ x23: .cfa -40 + ^ x24: .cfa -48 + ^ x25: .cfa -56 + ^ x26: .cfa -64 + ^ x27: .cfa -72 + ^ x28: .cfa -80 + ^ .ra: .cfa -88 + ^ x29: .cfa -96 + ^
STACK CFI 5b838 .cfa: sp 96 +
STACK CFI 5b850 .cfa: sp 0 +
STACK CFI 5b854 .cfa: x29 96 +
STACK CFI INIT 5b8d4 67c .cfa: sp 0 +
STACK CFI 5b8d8 .cfa: sp 96 +
STACK CFI 5b8f0 .cfa: x29 96 + x19: .cfa -8 + ^ x20: .cfa -16 + ^ x21: .cfa -24 + ^ x22: .cfa -32 + ^ x23: .cfa -40 + ^ x24: .cfa -48 + ^ x25: .cfa -56 + ^ x26: .cfa -64 + ^ x27: .cfa -72 + ^ x28: .cfa -80 + ^ .ra: .cfa -88 + ^ x29: .cfa -96 + ^
STACK CFI 5beb4 .cfa: sp 96 +
STACK CFI 5becc .cfa: sp 0 +
STACK CFI 5bed0 .cfa: x29 96 +
