MODULE Linux arm64 DD7FDE78B40AF271606B89C2CAD0BF5B0 sawblade.dim_mode.android64.so
INFO CODE_ID 78DE7FDD0AB471F2606B89C2CAD0BF5B4F8DA323
INFO GENERATOR mozilla/dump_syms 2.3.4
PUBLIC c5b0 0 __on_dlclose
PUBLIC c5c0 0 __emutls_unregister_key
PUBLIC c5c8 0 __on_dlclose_late
PUBLIC c5d0 0 __atexit_handler_wrapper
PUBLIC c5e4 0 atexit
PUBLIC c600 0 pthread_atfork
PUBLIC c610 0 unwind_phase2
PUBLIC c744 0 _Unwind_Resume
PUBLIC c7c8 0 unwind_phase2_forced
PUBLIC m c8bc 0 __unw_init_local
PUBLIC m c964 0 __unw_get_reg
PUBLIC c9e0 0 __unw_step_stage2
PUBLIC m c9f4 0 __unw_get_proc_info
PUBLIC m ca34 0 __unw_resume
PUBLIC ca5c 0 libunwind::CFI_Parser<libunwind::LocalAddressSpace>::decodeFDE(libunwind::LocalAddressSpace&, unsigned long, libunwind::CFI_Parser<libunwind::LocalAddressSpace>::FDE_Info*, libunwind::CFI_Parser<libunwind::LocalAddressSpace>::CIE_Info*, bool)
PUBLIC cbec 0 libunwind::CFI_Parser<libunwind::LocalAddressSpace>::parseCIE(libunwind::LocalAddressSpace&, unsigned long, libunwind::CFI_Parser<libunwind::LocalAddressSpace>::CIE_Info*)
PUBLIC ceb4 0 libunwind::AbstractUnwindCursor::~AbstractUnwindCursor()
PUBLIC cebc 0 libunwind::UnwindCursor<libunwind::LocalAddressSpace, libunwind::Registers_arm64>::~UnwindCursor()
PUBLIC cec4 0 libunwind::UnwindCursor<libunwind::LocalAddressSpace, libunwind::Registers_arm64>::validReg(int)
PUBLIC cf08 0 libunwind::UnwindCursor<libunwind::LocalAddressSpace, libunwind::Registers_arm64>::getReg(int)
PUBLIC cff0 0 libunwind::UnwindCursor<libunwind::LocalAddressSpace, libunwind::Registers_arm64>::setReg(int, unsigned long)
PUBLIC d0d8 0 libunwind::UnwindCursor<libunwind::LocalAddressSpace, libunwind::Registers_arm64>::validFloatReg(int)
PUBLIC d0ec 0 libunwind::UnwindCursor<libunwind::LocalAddressSpace, libunwind::Registers_arm64>::getFloatReg(int)
PUBLIC d0fc 0 libunwind::UnwindCursor<libunwind::LocalAddressSpace, libunwind::Registers_arm64>::setFloatReg(int, double)
PUBLIC d10c 0 libunwind::UnwindCursor<libunwind::LocalAddressSpace, libunwind::Registers_arm64>::step(bool)
PUBLIC d1fc 0 libunwind::UnwindCursor<libunwind::LocalAddressSpace, libunwind::Registers_arm64>::getInfo(unw_proc_info_t*)
PUBLIC d240 0 libunwind::UnwindCursor<libunwind::LocalAddressSpace, libunwind::Registers_arm64>::jumpto()
PUBLIC d24c 0 libunwind::UnwindCursor<libunwind::LocalAddressSpace, libunwind::Registers_arm64>::isSignalFrame()
PUBLIC d258 0 libunwind::UnwindCursor<libunwind::LocalAddressSpace, libunwind::Registers_arm64>::getFunctionName(char*, unsigned long, unsigned long*)
PUBLIC d284 0 libunwind::UnwindCursor<libunwind::LocalAddressSpace, libunwind::Registers_arm64>::setInfoBasedOnIPRegister(bool)
PUBLIC d504 0 libunwind::UnwindCursor<libunwind::LocalAddressSpace, libunwind::Registers_arm64>::getRegisterName(int)
PUBLIC d510 0 libunwind::UnwindCursor<libunwind::LocalAddressSpace, libunwind::Registers_arm64>::stepThroughSigReturn(libunwind::Registers_arm64&)
PUBLIC d630 0 libunwind::DwarfInstructions<libunwind::LocalAddressSpace, libunwind::Registers_arm64>::stepWithDwarf(libunwind::LocalAddressSpace&, unsigned long, unsigned long, libunwind::Registers_arm64&, bool&, bool)
PUBLIC dab8 0 libunwind::CFI_Parser<libunwind::LocalAddressSpace>::parseFDEInstructions(libunwind::LocalAddressSpace&, libunwind::CFI_Parser<libunwind::LocalAddressSpace>::FDE_Info const&, libunwind::CFI_Parser<libunwind::LocalAddressSpace>::CIE_Info const&, unsigned long, int, libunwind::CFI_Parser<libunwind::LocalAddressSpace>::PrologInfo*)
PUBLIC e700 0 libunwind::DwarfInstructions<libunwind::LocalAddressSpace, libunwind::Registers_arm64>::getCFA(libunwind::LocalAddressSpace&, libunwind::CFI_Parser<libunwind::LocalAddressSpace>::PrologInfo const&, libunwind::Registers_arm64 const&)
PUBLIC e834 0 libunwind::DwarfInstructions<libunwind::LocalAddressSpace, libunwind::Registers_arm64>::getSavedRegister(libunwind::LocalAddressSpace&, libunwind::Registers_arm64 const&, unsigned long, libunwind::CFI_Parser<libunwind::LocalAddressSpace>::RegisterLocation const&)
PUBLIC ea44 0 libunwind::LocalAddressSpace::getEncodedP(unsigned long&, unsigned long, unsigned char, unsigned long)
PUBLIC edd0 0 libunwind::LocalAddressSpace::getULEB128(unsigned long&, unsigned long)
PUBLIC ef98 0 libunwind::DwarfInstructions<libunwind::LocalAddressSpace, libunwind::Registers_arm64>::evaluateExpression(unsigned long, libunwind::LocalAddressSpace&, libunwind::Registers_arm64 const&, unsigned long)
PUBLIC f954 0 libunwind::UnwindCursor<libunwind::LocalAddressSpace, libunwind::Registers_arm64>::getInfoFromDwarfSection(unsigned long, libunwind::UnwindInfoSections const&, unsigned int)
PUBLIC fc28 0 libunwind::findUnwindSectionsByPhdr(dl_phdr_info*, unsigned long, void*)
PUBLIC fd5c 0 libunwind::EHHeaderParser<libunwind::LocalAddressSpace>::decodeEHHdr(libunwind::LocalAddressSpace&, unsigned long, unsigned long, libunwind::EHHeaderParser<libunwind::LocalAddressSpace>::EHHeaderInfo&)
PUBLIC fe7c 0 libunwind::CFI_Parser<libunwind::LocalAddressSpace>::findFDE(libunwind::LocalAddressSpace&, unsigned long, unsigned long, unsigned long, unsigned long, libunwind::CFI_Parser<libunwind::LocalAddressSpace>::FDE_Info*, libunwind::CFI_Parser<libunwind::LocalAddressSpace>::CIE_Info*)
PUBLIC 10044 0 libunwind::EHHeaderParser<libunwind::LocalAddressSpace>::findFDE(libunwind::LocalAddressSpace&, unsigned long, unsigned long, unsigned int, libunwind::CFI_Parser<libunwind::LocalAddressSpace>::FDE_Info*, libunwind::CFI_Parser<libunwind::LocalAddressSpace>::CIE_Info*)
PUBLIC 101ac 0 libunwind::EHHeaderParser<libunwind::LocalAddressSpace>::getTableEntrySize(unsigned char)
PUBLIC 102a8 0 libunwind::Registers_arm64::getRegisterName(int)
PUBLIC 102d8 0 __libunwind_Registers_arm64_jumpto
PUBLIC m 10368 0 __unw_getcontext
PUBLIC 10410 0 __aarch64_ldadd8_relax
PUBLIC 10440 0 init_have_lse_atomics
PUBLIC 104d8 0 __init_cpu_features_constructor
PUBLIC 10a74 0 __init_cpu_features
PUBLIC 10b00 0 __aarch64_ldadd8_acq_rel
PUBLIC 10b30 0 geode::Mod::getSettingValue<long>(std::__ndk1::basic_string_view<char, std::__ndk1::char_traits<char> >) const
PUBLIC 10c50 0 createRGB(bool, float, cocos2d::CCLayerColor*)
PUBLIC 10e70 0 cocos2d::CCSequence::create(cocos2d::CCFiniteTimeAction*, ...)
PUBLIC 10f08 0 geode::Mod::getSettingValue<cocos2d::_ccColor3B>(std::__ndk1::basic_string_view<char, std::__ndk1::char_traits<char> >) const
PUBLIC 11030 0 updateOpacityLabel()
PUBLIC 11250 0 __cxx_global_var_init.3
PUBLIC 116d4 0 geode::modifier::ModifyBase<geode::modifier::ModifyDerive<dimSettings, PauseLayer> >::~ModifyBase()
PUBLIC 116ec 0 __cxx_global_var_init.4
PUBLIC 11b48 0 _GLOBAL__sub_I_main.cpp
PUBLIC 12eac 0 geode::modifier::ModifyBase<geode::modifier::ModifyDerive<hook93<(anonymous namespace)::hook93Parent>, PlayLayer> >::~ModifyBase()
PUBLIC 12ec4 0 __clang_call_terminate
PUBLIC 12ed4 0 std::__ndk1::shared_ptr<geode::SettingV3>::~shared_ptr[abi:ne180000]()
PUBLIC 12f24 0 std::__ndk1::shared_ptr<geode::IntSettingV3>::~shared_ptr[abi:ne180000]()
PUBLIC 12f74 0 geode::cast::traverseTypeinfoFor(void*, geode::cast::ClassTypeinfoType const*, char const*)
PUBLIC 1306c 0 std::__ndk1::shared_ptr<geode::Color3BSettingV3>::~shared_ptr[abi:ne180000]()
PUBLIC 130bc 0 geode::modifier::ModifyDerive<dimSettings, PauseLayer>::apply()
PUBLIC 13408 0 std::__ndk1::shared_ptr<geode::Hook>::~shared_ptr[abi:ne180000]()
PUBLIC 13458 0 geode::impl::ResultData<geode::Hook*, std::__ndk1::basic_string<char, std::__ndk1::char_traits<char>, std::__ndk1::allocator<char> > >::~ResultData()
PUBLIC 134cc 0 std::__ndk1::vector<std::__ndk1::basic_string<char, std::__ndk1::char_traits<char>, std::__ndk1::allocator<char> >, std::__ndk1::allocator<std::__ndk1::basic_string<char, std::__ndk1::char_traits<char>, std::__ndk1::allocator<char> > > >::~vector[abi:ne180000]()
PUBLIC 13548 0 geode::modifier::ModifyBase<geode::modifier::ModifyDerive<dimSettings, PauseLayer> >::apply()
PUBLIC 1354c 0 _ZN5geode15UnwrapExceptionC2IRPNS_4HookEQsr4implE18IsStringStreamableIT_EEENS_4impl5OkTagEOS5_
PUBLIC 136a0 0 std::__ndk1::__throw_bad_variant_access[abi:ne180000]()
PUBLIC 136d4 0 std::__ndk1::basic_stringstream<char, std::__ndk1::char_traits<char>, std::__ndk1::allocator<char> >::basic_stringstream[abi:ne180000]()
PUBLIC m 13800 0 std::__ndk1::basic_stringstream<char, std::__ndk1::char_traits<char>, std::__ndk1::allocator<char> >::~basic_stringstream()
PUBLIC 13880 0 geode::UnwrapException::~UnwrapException()
PUBLIC 138a4 0 std::__ndk1::__put_character_sequence[abi:ne180000]<char, std::__ndk1::char_traits<char> >(std::__ndk1::basic_ostream<char, std::__ndk1::char_traits<char> >, std::__ndk1::basic_ostream const*, unsigned long)
PUBLIC 13a48 0 std::__ndk1::__pad_and_output[abi:ne180000]<char, std::__ndk1::char_traits<char> >(std::__ndk1::char_traits<char>, std::__ndk1::ostreambuf_iterator const*, std::__ndk1::ostreambuf_iterator const, std::__ndk1::ostreambuf_iterator const, std::__ndk1::ios_base&, std::__ndk1::ostreambuf_iterator)
PUBLIC 13c24 0 std::__ndk1::basic_string<char, std::__ndk1::char_traits<char>, std::__ndk1::allocator<char> >::__throw_length_error[abi:ne180000]() const
PUBLIC 13c38 0 std::__ndk1::__throw_length_error[abi:ne180000](char const*)
PUBLIC 13c88 0 std::length_error::length_error[abi:ne180000](char const*)
PUBLIC 13cb8 0 std::__throw_bad_array_new_length([abi:ne180000], void)
PUBLIC 13cec 0 std::__ndk1::basic_stringbuf<char, std::__ndk1::char_traits<char>, std::__ndk1::allocator<char> >::str[abi:ne180000]() &&
PUBLIC 13e64 0 std::__ndk1::basic_stringbuf<char, std::__ndk1::char_traits<char>, std::__ndk1::allocator<char> >::__init_buf_ptrs[abi:ne180000]()
PUBLIC 13fac 0 std::__ndk1::vector<std::__ndk1::basic_string<char, std::__ndk1::char_traits<char>, std::__ndk1::allocator<char> >, std::__ndk1::allocator<std::__ndk1::basic_string<char, std::__ndk1::char_traits<char>, std::__ndk1::allocator<char> > > >::__push_back_slow_path<std::__ndk1::basic_string<char, std::__ndk1::char_traits<char>, std::__ndk1::allocator<char> > const&>(std::__ndk1::basic_string<char, std::__ndk1::char_traits<char>, std::__ndk1::allocator<char> > const&)
PUBLIC 141d0 0 std::__ndk1::basic_string<char, std::__ndk1::char_traits<char>, std::__ndk1::allocator<char> >::__init_copy_ctor_external(char const*, unsigned long)
PUBLIC 14250 0 std::__ndk1::__split_buffer<std::__ndk1::basic_string<char, std::__ndk1::char_traits<char>, std::__ndk1::allocator<char> >, std::__ndk1::allocator<std::__ndk1::basic_string<char, std::__ndk1::char_traits<char>, std::__ndk1::allocator<char> > >&>::~__split_buffer()
PUBLIC 142b8 0 std::__ndk1::vector<std::__ndk1::basic_string<char, std::__ndk1::char_traits<char>, std::__ndk1::allocator<char> >, std::__ndk1::allocator<std::__ndk1::basic_string<char, std::__ndk1::char_traits<char>, std::__ndk1::allocator<char> > > >::__throw_length_error[abi:ne180000]() const
PUBLIC 142cc 0 std::__ndk1::__variant_detail::__visitation::__base::__dispatcher<(unsigned long)0>::__dispatch[abi:ne180000]<std::__ndk1::__variant_detail::__dtor<std::__ndk1::__variant_detail::__traits<geode::Hook*, std::__ndk1::basic_string<char, std::__ndk1::char_traits<char>, std::__ndk1::allocator<char> > >, (std::__ndk1::__variant_detail::_Trait)1>::__destroy[abi:ne180000]()::{lambda(auto:1&)#1}, std::__ndk1::__variant_detail::__base<(std::__ndk1::__variant_detail::__traits<geode::Hook*, std::__ndk1::basic_string<char, std::__ndk1::char_traits<char>, std::__ndk1::allocator<char> > >)1, geode::Hook, std::__ndk1::allocator<char> >&>(std::__ndk1::__variant_detail::__dtor<std::__ndk1::__variant_detail::__traits<geode::Hook*, std::__ndk1::basic_string<char, std::__ndk1::char_traits<char>, std::__ndk1::allocator<char> > >, (std::__ndk1::__variant_detail::_Trait)1>, std::__ndk1::__variant_detail::__base<(std::__ndk1::__variant_detail::__traits<geode::Hook*, std::__ndk1::basic_string<char, std::__ndk1::char_traits<char>, std::__ndk1::allocator<char> > >)1, geode::Hook, std::__ndk1::allocator<char> >&)
PUBLIC 142d0 0 std::__ndk1::__variant_detail::__visitation::__base::__dispatcher<(unsigned long)1>::__dispatch[abi:ne180000]<std::__ndk1::__variant_detail::__dtor<std::__ndk1::__variant_detail::__traits<geode::Hook*, std::__ndk1::basic_string<char, std::__ndk1::char_traits<char>, std::__ndk1::allocator<char> > >, (std::__ndk1::__variant_detail::_Trait)1>::__destroy[abi:ne180000]()::{lambda(auto:1&)#1}, std::__ndk1::__variant_detail::__base<(std::__ndk1::__variant_detail::__traits<geode::Hook*, std::__ndk1::basic_string<char, std::__ndk1::char_traits<char>, std::__ndk1::allocator<char> > >)1, geode::Hook, std::__ndk1::allocator<char> >&>(std::__ndk1::__variant_detail::__dtor<std::__ndk1::__variant_detail::__traits<geode::Hook*, std::__ndk1::basic_string<char, std::__ndk1::char_traits<char>, std::__ndk1::allocator<char> > >, (std::__ndk1::__variant_detail::_Trait)1>, std::__ndk1::__variant_detail::__base<(std::__ndk1::__variant_detail::__traits<geode::Hook*, std::__ndk1::basic_string<char, std::__ndk1::char_traits<char>, std::__ndk1::allocator<char> > >)1, geode::Hook, std::__ndk1::allocator<char> >&)
PUBLIC 142e4 0 std::__ndk1::__tree<std::__ndk1::__value_type<std::__ndk1::basic_string<char, std::__ndk1::char_traits<char>, std::__ndk1::allocator<char> >, std::__ndk1::shared_ptr<geode::Hook> >, std::__ndk1::__map_value_compare<std::__ndk1::basic_string<char, std::__ndk1::char_traits<char>, std::__ndk1::allocator<char> >, std::__ndk1::__value_type<std::__ndk1::basic_string<char, std::__ndk1::char_traits<char>, std::__ndk1::allocator<char> >, std::__ndk1::shared_ptr<geode::Hook> >, std::__ndk1::less<std::__ndk1::basic_string<char, std::__ndk1::char_traits<char>, std::__ndk1::allocator<char> > >, true>, std::__ndk1::allocator<std::__ndk1::__value_type<std::__ndk1::basic_string<char, std::__ndk1::char_traits<char>, std::__ndk1::allocator<char> >, std::__ndk1::shared_ptr<geode::Hook> > > >::find<std::__ndk1::basic_string<char, std::__ndk1::char_traits<char>, std::__ndk1::allocator<char> > >(std::__ndk1::basic_string<char, std::__ndk1::char_traits<char>, std::__ndk1::allocator<char> > const&)
PUBLIC 14404 0 std::__ndk1::__tree<std::__ndk1::__value_type<std::__ndk1::basic_string<char, std::__ndk1::char_traits<char>, std::__ndk1::allocator<char> >, std::__ndk1::shared_ptr<geode::Hook> >, std::__ndk1::__map_value_compare<std::__ndk1::basic_string<char, std::__ndk1::char_traits<char>, std::__ndk1::allocator<char> >, std::__ndk1::__value_type<std::__ndk1::basic_string<char, std::__ndk1::char_traits<char>, std::__ndk1::allocator<char> >, std::__ndk1::shared_ptr<geode::Hook> >, std::__ndk1::less<std::__ndk1::basic_string<char, std::__ndk1::char_traits<char>, std::__ndk1::allocator<char> > >, true>, std::__ndk1::allocator<std::__ndk1::__value_type<std::__ndk1::basic_string<char, std::__ndk1::char_traits<char>, std::__ndk1::allocator<char> >, std::__ndk1::shared_ptr<geode::Hook> > > >::erase(std::__ndk1::__tree_const_iterator<std::__ndk1::__value_type<std::__ndk1::basic_string<char, std::__ndk1::char_traits<char>, std::__ndk1::allocator<char> >, std::__ndk1::shared_ptr<geode::Hook> >, std::__ndk1::__tree_node<std::__ndk1::__value_type<std::__ndk1::basic_string<char, std::__ndk1::char_traits<char>, std::__ndk1::allocator<char> >, std::__ndk1::shared_ptr<geode::Hook> >, void*>*, long>)
PUBLIC 148a8 0 std::__ndk1::__tree<std::__ndk1::__value_type<std::__ndk1::basic_string<char, std::__ndk1::char_traits<char>, std::__ndk1::allocator<char> >, std::__ndk1::shared_ptr<geode::Hook> >, std::__ndk1::__map_value_compare<std::__ndk1::basic_string<char, std::__ndk1::char_traits<char>, std::__ndk1::allocator<char> >, std::__ndk1::__value_type<std::__ndk1::basic_string<char, std::__ndk1::char_traits<char>, std::__ndk1::allocator<char> >, std::__ndk1::shared_ptr<geode::Hook> >, std::__ndk1::less<std::__ndk1::basic_string<char, std::__ndk1::char_traits<char>, std::__ndk1::allocator<char> > >, true>, std::__ndk1::allocator<std::__ndk1::__value_type<std::__ndk1::basic_string<char, std::__ndk1::char_traits<char>, std::__ndk1::allocator<char> >, std::__ndk1::shared_ptr<geode::Hook> > > >::destroy(std::__ndk1::__tree_node<std::__ndk1::__value_type<std::__ndk1::basic_string<char, std::__ndk1::char_traits<char>, std::__ndk1::allocator<char> >, std::__ndk1::shared_ptr<geode::Hook> >, void*>*)
PUBLIC 1492c 0 geode::modifier::AsStaticFunction_onSettings<dimSettings, void (dimSettings::*)(cocos2d::CCObject*)>::Impl<void (dimSettings::*)(cocos2d::CCObject*)>::function(dimSettings*, cocos2d::CCObject*)
PUBLIC 14ba0 0 std::__ndk1::shared_ptr<tulip::hook::CallingConvention>::~shared_ptr[abi:ne180000]()
PUBLIC 14bf0 0 tulip::hook::HandlerMetadata::~HandlerMetadata()
PUBLIC 14c54 0 geode::Mod::getSettingValue<bool>(std::__ndk1::basic_string_view<char, std::__ndk1::char_traits<char> >) const
PUBLIC 14d84 0 dimSettings::openSettings(cocos2d::CCObject*)
PUBLIC 14e64 0 std::__ndk1::shared_ptr<geode::BoolSettingV3>::~shared_ptr[abi:ne180000]()
PUBLIC 14eb4 0 std::__ndk1::__tree<std::__ndk1::__value_type<std::__ndk1::basic_string<char, std::__ndk1::char_traits<char>, std::__ndk1::allocator<char> >, std::__ndk1::shared_ptr<geode::Hook> >, std::__ndk1::__map_value_compare<std::__ndk1::basic_string<char, std::__ndk1::char_traits<char>, std::__ndk1::allocator<char> >, std::__ndk1::__value_type<std::__ndk1::basic_string<char, std::__ndk1::char_traits<char>, std::__ndk1::allocator<char> >, std::__ndk1::shared_ptr<geode::Hook> >, std::__ndk1::less<std::__ndk1::basic_string<char, std::__ndk1::char_traits<char>, std::__ndk1::allocator<char> > >, true>, std::__ndk1::allocator<std::__ndk1::__value_type<std::__ndk1::basic_string<char, std::__ndk1::char_traits<char>, std::__ndk1::allocator<char> >, std::__ndk1::shared_ptr<geode::Hook> > > >::__emplace_unique_key_args<std::__ndk1::basic_string<char, std::__ndk1::char_traits<char>, std::__ndk1::allocator<char> >, std::__ndk1::piecewise_construct_t const&, std::__ndk1::tuple<std::__ndk1::basic_string<char, std::__ndk1::char_traits<char>, std::__ndk1::allocator<char> >&&>, std::__ndk1::tuple<> >(std::__ndk1::basic_string<char, std::__ndk1::char_traits<char>, std::__ndk1::allocator<char> > const&, std::__ndk1::piecewise_construct_t const&, std::__ndk1::tuple<std::__ndk1::basic_string<char, std::__ndk1::char_traits<char>, std::__ndk1::allocator<char> >&&>, std::__ndk1::tuple<>)
PUBLIC 1501c 0 std::__ndk1::__tree_balance_after_insert[abi:ne180000]<std::__ndk1::__tree_node_base<void*>*>(std::__ndk1::__tree_node_base<void*>*, std::__ndk1::__tree_node_base<void*>*)
PUBLIC 151cc 0 geode::modifier::ModifyDerive<hook93<(anonymous namespace)::hook93Parent>, PlayLayer>::apply()
PUBLIC 157ec 0 geode::modifier::ModifyBase<geode::modifier::ModifyDerive<hook93<(anonymous namespace)::hook93Parent>, PlayLayer> >::apply()
PUBLIC 157f0 0 geode::modifier::AsStaticFunction_init<hook93<(anonymous namespace)::hook93Parent>, bool (hook93<(anonymous namespace)::hook93Parent>::*)(GJGameLevel*, bool, bool)>::Impl<bool (hook93<(anonymous namespace)::hook93Parent>::*)(GJGameLevel*, bool, bool)>::function(hook93<(anonymous namespace)::hook93Parent>*, GJGameLevel*, bool, bool)
PUBLIC 15a78 0 geode::modifier::AsStaticFunction_setupHasCompleted<hook93<(anonymous namespace)::hook93Parent>, void (hook93<(anonymous namespace)::hook93Parent>::*)()>::Impl<void (hook93<(anonymous namespace)::hook93Parent>::*)()>::function(hook93<(anonymous namespace)::hook93Parent>*)
PUBLIC 15e58 0 cocos2d::CCNode::addEventListener<keybinds::InvokeBindFilter, char const*>(std::__ndk1::function<keybinds::InvokeBindFilter::Callback>, char const*&&)
PUBLIC 162cc 0 geode::EventListener<keybinds::InvokeBindFilter>::getPool() const
PUBLIC 162d0 0 geode::EventListener<keybinds::InvokeBindFilter>::handle(geode::Event*)
PUBLIC 16434 0 geode::EventListener<keybinds::InvokeBindFilter>::~EventListener()
PUBLIC 164a0 0 geode::EventListener<keybinds::InvokeBindFilter>::~EventListener()
PUBLIC 16514 0 std::__ndk1::__function::__func<hook93<(anonymous namespace)::hook93Parent>::init(GJGameLevel*, bool, bool)::{lambda(keybinds::InvokeBindEvent*)#1}, std::__ndk1::allocator<hook93<(anonymous namespace)::hook93Parent>::init(GJGameLevel*, bool, bool)::{lambda(keybinds::InvokeBindEvent*)#1}>, geode::ListenerResult(keybinds::InvokeBindEvent*)>::~__func()
PUBLIC 16518 0 std::__ndk1::__function::__func<hook93<(anonymous namespace)::hook93Parent>::init(GJGameLevel*, bool, bool)::{lambda(keybinds::InvokeBindEvent*)#1}, std::__ndk1::allocator<hook93<(anonymous namespace)::hook93Parent>::init(GJGameLevel*, bool, bool)::{lambda(keybinds::InvokeBindEvent*)#1}>, geode::ListenerResult(keybinds::InvokeBindEvent*)>::__clone() const
PUBLIC 1653c 0 std::__ndk1::__function::__func<hook93<(anonymous namespace)::hook93Parent>::init(GJGameLevel*, bool, bool)::{lambda(keybinds::InvokeBindEvent*)#1}, std::__ndk1::allocator<hook93<(anonymous namespace)::hook93Parent>::init(GJGameLevel*, bool, bool)::{lambda(keybinds::InvokeBindEvent*)#1}>, geode::ListenerResult(keybinds::InvokeBindEvent*)>::__clone(std::__ndk1::__function::__base<geode::ListenerResult(keybinds::InvokeBindEvent*)>*) const
PUBLIC 1654c 0 std::__ndk1::__function::__func<hook93<(anonymous namespace)::hook93Parent>::init(GJGameLevel*, bool, bool)::{lambda(keybinds::InvokeBindEvent*)#1}, std::__ndk1::allocator<hook93<(anonymous namespace)::hook93Parent>::init(GJGameLevel*, bool, bool)::{lambda(keybinds::InvokeBindEvent*)#1}>, geode::ListenerResult(keybinds::InvokeBindEvent*)>::destroy()
PUBLIC 16550 0 std::__ndk1::__function::__func<hook93<(anonymous namespace)::hook93Parent>::init(GJGameLevel*, bool, bool)::{lambda(keybinds::InvokeBindEvent*)#1}, std::__ndk1::allocator<hook93<(anonymous namespace)::hook93Parent>::init(GJGameLevel*, bool, bool)::{lambda(keybinds::InvokeBindEvent*)#1}>, geode::ListenerResult(keybinds::InvokeBindEvent*)>::destroy_deallocate()
PUBLIC 16554 0 std::__ndk1::__function::__func<hook93<(anonymous namespace)::hook93Parent>::init(GJGameLevel*, bool, bool)::{lambda(keybinds::InvokeBindEvent*)#1}, std::__ndk1::allocator<hook93<(anonymous namespace)::hook93Parent>::init(GJGameLevel*, bool, bool)::{lambda(keybinds::InvokeBindEvent*)#1}>, geode::ListenerResult(keybinds::InvokeBindEvent*)>::operator()(keybinds::InvokeBindEvent*&&)
PUBLIC 166d8 0 std::__ndk1::__function::__func<hook93<(anonymous namespace)::hook93Parent>::init(GJGameLevel*, bool, bool)::{lambda(keybinds::InvokeBindEvent*)#1}, std::__ndk1::allocator<hook93<(anonymous namespace)::hook93Parent>::init(GJGameLevel*, bool, bool)::{lambda(keybinds::InvokeBindEvent*)#1}>, geode::ListenerResult(keybinds::InvokeBindEvent*)>::target(std::type_info const&) const
PUBLIC 166f4 0 std::__ndk1::__function::__func<hook93<(anonymous namespace)::hook93Parent>::init(GJGameLevel*, bool, bool)::{lambda(keybinds::InvokeBindEvent*)#1}, std::__ndk1::allocator<hook93<(anonymous namespace)::hook93Parent>::init(GJGameLevel*, bool, bool)::{lambda(keybinds::InvokeBindEvent*)#1}>, geode::ListenerResult(keybinds::InvokeBindEvent*)>::target_type() const
PUBLIC 16700 0 geode::Mod::setSettingValue<bool>(std::__ndk1::basic_string_view<char, std::__ndk1::char_traits<char> >, bool const&)
PUBLIC 168a4 0 std::__ndk1::__variant_detail::__visitation::__base::__dispatcher<(unsigned long)0>::__dispatch[abi:ne180000]<std::__ndk1::__variant_detail::__dtor<std::__ndk1::__variant_detail::__traits<std::__ndk1::monostate, std::__ndk1::basic_string<char, std::__ndk1::char_traits<char>, std::__ndk1::allocator<char> > >, (std::__ndk1::__variant_detail::_Trait)1>::__destroy[abi:ne180000]()::{lambda(auto:1&)#1}, std::__ndk1::__variant_detail::__base<(std::__ndk1::__variant_detail::__traits<std::__ndk1::monostate, std::__ndk1::basic_string<char, std::__ndk1::char_traits<char>, std::__ndk1::allocator<char> > >)1, std::__ndk1::__variant_detail::__traits, std::__ndk1::allocator<char> >&>(std::__ndk1::__variant_detail::__dtor<std::__ndk1::__variant_detail::__traits<std::__ndk1::monostate, std::__ndk1::basic_string<char, std::__ndk1::char_traits<char>, std::__ndk1::allocator<char> > >, (std::__ndk1::__variant_detail::_Trait)1>, std::__ndk1::__variant_detail::__base<(std::__ndk1::__variant_detail::__traits<std::__ndk1::monostate, std::__ndk1::basic_string<char, std::__ndk1::char_traits<char>, std::__ndk1::allocator<char> > >)1, std::__ndk1::__variant_detail::__traits, std::__ndk1::allocator<char> >&)
PUBLIC 168a8 0 std::__ndk1::__variant_detail::__visitation::__base::__dispatcher<(unsigned long)1>::__dispatch[abi:ne180000]<std::__ndk1::__variant_detail::__dtor<std::__ndk1::__variant_detail::__traits<std::__ndk1::monostate, std::__ndk1::basic_string<char, std::__ndk1::char_traits<char>, std::__ndk1::allocator<char> > >, (std::__ndk1::__variant_detail::_Trait)1>::__destroy[abi:ne180000]()::{lambda(auto:1&)#1}, std::__ndk1::__variant_detail::__base<(std::__ndk1::__variant_detail::__traits<std::__ndk1::monostate, std::__ndk1::basic_string<char, std::__ndk1::char_traits<char>, std::__ndk1::allocator<char> > >)1, std::__ndk1::__variant_detail::__traits, std::__ndk1::allocator<char> >&>(std::__ndk1::__variant_detail::__dtor<std::__ndk1::__variant_detail::__traits<std::__ndk1::monostate, std::__ndk1::basic_string<char, std::__ndk1::char_traits<char>, std::__ndk1::allocator<char> > >, (std::__ndk1::__variant_detail::_Trait)1>, std::__ndk1::__variant_detail::__base<(std::__ndk1::__variant_detail::__traits<std::__ndk1::monostate, std::__ndk1::basic_string<char, std::__ndk1::char_traits<char>, std::__ndk1::allocator<char> > >)1, std::__ndk1::__variant_detail::__traits, std::__ndk1::allocator<char> >&)
PUBLIC 168bc 0 std::__ndk1::__function::__func<hook93<(anonymous namespace)::hook93Parent>::init(GJGameLevel*, bool, bool)::{lambda(keybinds::InvokeBindEvent*)#2}, std::__ndk1::allocator<hook93<(anonymous namespace)::hook93Parent>::init(GJGameLevel*, bool, bool)::{lambda(keybinds::InvokeBindEvent*)#2}>, geode::ListenerResult(keybinds::InvokeBindEvent*)>::~__func()
PUBLIC 168c0 0 std::__ndk1::__function::__func<hook93<(anonymous namespace)::hook93Parent>::init(GJGameLevel*, bool, bool)::{lambda(keybinds::InvokeBindEvent*)#2}, std::__ndk1::allocator<hook93<(anonymous namespace)::hook93Parent>::init(GJGameLevel*, bool, bool)::{lambda(keybinds::InvokeBindEvent*)#2}>, geode::ListenerResult(keybinds::InvokeBindEvent*)>::__clone() const
PUBLIC 168e4 0 std::__ndk1::__function::__func<hook93<(anonymous namespace)::hook93Parent>::init(GJGameLevel*, bool, bool)::{lambda(keybinds::InvokeBindEvent*)#2}, std::__ndk1::allocator<hook93<(anonymous namespace)::hook93Parent>::init(GJGameLevel*, bool, bool)::{lambda(keybinds::InvokeBindEvent*)#2}>, geode::ListenerResult(keybinds::InvokeBindEvent*)>::__clone(std::__ndk1::__function::__base<geode::ListenerResult(keybinds::InvokeBindEvent*)>*) const
PUBLIC 168f4 0 std::__ndk1::__function::__func<hook93<(anonymous namespace)::hook93Parent>::init(GJGameLevel*, bool, bool)::{lambda(keybinds::InvokeBindEvent*)#2}, std::__ndk1::allocator<hook93<(anonymous namespace)::hook93Parent>::init(GJGameLevel*, bool, bool)::{lambda(keybinds::InvokeBindEvent*)#2}>, geode::ListenerResult(keybinds::InvokeBindEvent*)>::destroy()
PUBLIC 168f8 0 std::__ndk1::__function::__func<hook93<(anonymous namespace)::hook93Parent>::init(GJGameLevel*, bool, bool)::{lambda(keybinds::InvokeBindEvent*)#2}, std::__ndk1::allocator<hook93<(anonymous namespace)::hook93Parent>::init(GJGameLevel*, bool, bool)::{lambda(keybinds::InvokeBindEvent*)#2}>, geode::ListenerResult(keybinds::InvokeBindEvent*)>::destroy_deallocate()
PUBLIC 168fc 0 std::__ndk1::__function::__func<hook93<(anonymous namespace)::hook93Parent>::init(GJGameLevel*, bool, bool)::{lambda(keybinds::InvokeBindEvent*)#2}, std::__ndk1::allocator<hook93<(anonymous namespace)::hook93Parent>::init(GJGameLevel*, bool, bool)::{lambda(keybinds::InvokeBindEvent*)#2}>, geode::ListenerResult(keybinds::InvokeBindEvent*)>::operator()(keybinds::InvokeBindEvent*&&)
PUBLIC 16a0c 0 std::__ndk1::__function::__func<hook93<(anonymous namespace)::hook93Parent>::init(GJGameLevel*, bool, bool)::{lambda(keybinds::InvokeBindEvent*)#2}, std::__ndk1::allocator<hook93<(anonymous namespace)::hook93Parent>::init(GJGameLevel*, bool, bool)::{lambda(keybinds::InvokeBindEvent*)#2}>, geode::ListenerResult(keybinds::InvokeBindEvent*)>::target(std::type_info const&) const
PUBLIC 16a28 0 std::__ndk1::__function::__func<hook93<(anonymous namespace)::hook93Parent>::init(GJGameLevel*, bool, bool)::{lambda(keybinds::InvokeBindEvent*)#2}, std::__ndk1::allocator<hook93<(anonymous namespace)::hook93Parent>::init(GJGameLevel*, bool, bool)::{lambda(keybinds::InvokeBindEvent*)#2}>, geode::ListenerResult(keybinds::InvokeBindEvent*)>::target_type() const
PUBLIC 16a34 0 std::__ndk1::__function::__func<hook93<(anonymous namespace)::hook93Parent>::init(GJGameLevel*, bool, bool)::{lambda(keybinds::InvokeBindEvent*)#3}, std::__ndk1::allocator<hook93<(anonymous namespace)::hook93Parent>::init(GJGameLevel*, bool, bool)::{lambda(keybinds::InvokeBindEvent*)#3}>, geode::ListenerResult(keybinds::InvokeBindEvent*)>::~__func()
PUBLIC 16a38 0 std::__ndk1::__function::__func<hook93<(anonymous namespace)::hook93Parent>::init(GJGameLevel*, bool, bool)::{lambda(keybinds::InvokeBindEvent*)#3}, std::__ndk1::allocator<hook93<(anonymous namespace)::hook93Parent>::init(GJGameLevel*, bool, bool)::{lambda(keybinds::InvokeBindEvent*)#3}>, geode::ListenerResult(keybinds::InvokeBindEvent*)>::__clone() const
PUBLIC 16a5c 0 std::__ndk1::__function::__func<hook93<(anonymous namespace)::hook93Parent>::init(GJGameLevel*, bool, bool)::{lambda(keybinds::InvokeBindEvent*)#3}, std::__ndk1::allocator<hook93<(anonymous namespace)::hook93Parent>::init(GJGameLevel*, bool, bool)::{lambda(keybinds::InvokeBindEvent*)#3}>, geode::ListenerResult(keybinds::InvokeBindEvent*)>::__clone(std::__ndk1::__function::__base<geode::ListenerResult(keybinds::InvokeBindEvent*)>*) const
PUBLIC 16a6c 0 std::__ndk1::__function::__func<hook93<(anonymous namespace)::hook93Parent>::init(GJGameLevel*, bool, bool)::{lambda(keybinds::InvokeBindEvent*)#3}, std::__ndk1::allocator<hook93<(anonymous namespace)::hook93Parent>::init(GJGameLevel*, bool, bool)::{lambda(keybinds::InvokeBindEvent*)#3}>, geode::ListenerResult(keybinds::InvokeBindEvent*)>::destroy()
PUBLIC 16a70 0 std::__ndk1::__function::__func<hook93<(anonymous namespace)::hook93Parent>::init(GJGameLevel*, bool, bool)::{lambda(keybinds::InvokeBindEvent*)#3}, std::__ndk1::allocator<hook93<(anonymous namespace)::hook93Parent>::init(GJGameLevel*, bool, bool)::{lambda(keybinds::InvokeBindEvent*)#3}>, geode::ListenerResult(keybinds::InvokeBindEvent*)>::destroy_deallocate()
PUBLIC 16a74 0 std::__ndk1::__function::__func<hook93<(anonymous namespace)::hook93Parent>::init(GJGameLevel*, bool, bool)::{lambda(keybinds::InvokeBindEvent*)#3}, std::__ndk1::allocator<hook93<(anonymous namespace)::hook93Parent>::init(GJGameLevel*, bool, bool)::{lambda(keybinds::InvokeBindEvent*)#3}>, geode::ListenerResult(keybinds::InvokeBindEvent*)>::operator()(keybinds::InvokeBindEvent*&&)
PUBLIC 16b6c 0 std::__ndk1::__function::__func<hook93<(anonymous namespace)::hook93Parent>::init(GJGameLevel*, bool, bool)::{lambda(keybinds::InvokeBindEvent*)#3}, std::__ndk1::allocator<hook93<(anonymous namespace)::hook93Parent>::init(GJGameLevel*, bool, bool)::{lambda(keybinds::InvokeBindEvent*)#3}>, geode::ListenerResult(keybinds::InvokeBindEvent*)>::target(std::type_info const&) const
PUBLIC 16b88 0 std::__ndk1::__function::__func<hook93<(anonymous namespace)::hook93Parent>::init(GJGameLevel*, bool, bool)::{lambda(keybinds::InvokeBindEvent*)#3}, std::__ndk1::allocator<hook93<(anonymous namespace)::hook93Parent>::init(GJGameLevel*, bool, bool)::{lambda(keybinds::InvokeBindEvent*)#3}>, geode::ListenerResult(keybinds::InvokeBindEvent*)>::target_type() const
PUBLIC 16b94 0 geode::Mod::setSettingValue<long>(std::__ndk1::basic_string_view<char, std::__ndk1::char_traits<char> >, long const&)
PUBLIC 16d44 0 std::__ndk1::__function::__base<geode::ListenerResult(keybinds::InvokeBindEvent*)>::~__base()
PUBLIC 16d48 0 std::__ndk1::__function::__func<hook93<(anonymous namespace)::hook93Parent>::init(GJGameLevel*, bool, bool)::{lambda(keybinds::InvokeBindEvent*)#4}, std::__ndk1::allocator<hook93<(anonymous namespace)::hook93Parent>::init(GJGameLevel*, bool, bool)::{lambda(keybinds::InvokeBindEvent*)#4}>, geode::ListenerResult(keybinds::InvokeBindEvent*)>::~__func()
PUBLIC 16d4c 0 std::__ndk1::__function::__func<hook93<(anonymous namespace)::hook93Parent>::init(GJGameLevel*, bool, bool)::{lambda(keybinds::InvokeBindEvent*)#4}, std::__ndk1::allocator<hook93<(anonymous namespace)::hook93Parent>::init(GJGameLevel*, bool, bool)::{lambda(keybinds::InvokeBindEvent*)#4}>, geode::ListenerResult(keybinds::InvokeBindEvent*)>::__clone() const
PUBLIC 16d70 0 std::__ndk1::__function::__func<hook93<(anonymous namespace)::hook93Parent>::init(GJGameLevel*, bool, bool)::{lambda(keybinds::InvokeBindEvent*)#4}, std::__ndk1::allocator<hook93<(anonymous namespace)::hook93Parent>::init(GJGameLevel*, bool, bool)::{lambda(keybinds::InvokeBindEvent*)#4}>, geode::ListenerResult(keybinds::InvokeBindEvent*)>::__clone(std::__ndk1::__function::__base<geode::ListenerResult(keybinds::InvokeBindEvent*)>*) const
PUBLIC 16d80 0 std::__ndk1::__function::__func<hook93<(anonymous namespace)::hook93Parent>::init(GJGameLevel*, bool, bool)::{lambda(keybinds::InvokeBindEvent*)#4}, std::__ndk1::allocator<hook93<(anonymous namespace)::hook93Parent>::init(GJGameLevel*, bool, bool)::{lambda(keybinds::InvokeBindEvent*)#4}>, geode::ListenerResult(keybinds::InvokeBindEvent*)>::destroy()
PUBLIC 16d84 0 std::__ndk1::__function::__func<hook93<(anonymous namespace)::hook93Parent>::init(GJGameLevel*, bool, bool)::{lambda(keybinds::InvokeBindEvent*)#4}, std::__ndk1::allocator<hook93<(anonymous namespace)::hook93Parent>::init(GJGameLevel*, bool, bool)::{lambda(keybinds::InvokeBindEvent*)#4}>, geode::ListenerResult(keybinds::InvokeBindEvent*)>::destroy_deallocate()
PUBLIC 16d88 0 std::__ndk1::__function::__func<hook93<(anonymous namespace)::hook93Parent>::init(GJGameLevel*, bool, bool)::{lambda(keybinds::InvokeBindEvent*)#4}, std::__ndk1::allocator<hook93<(anonymous namespace)::hook93Parent>::init(GJGameLevel*, bool, bool)::{lambda(keybinds::InvokeBindEvent*)#4}>, geode::ListenerResult(keybinds::InvokeBindEvent*)>::operator()(keybinds::InvokeBindEvent*&&)
PUBLIC 16e80 0 std::__ndk1::__function::__func<hook93<(anonymous namespace)::hook93Parent>::init(GJGameLevel*, bool, bool)::{lambda(keybinds::InvokeBindEvent*)#4}, std::__ndk1::allocator<hook93<(anonymous namespace)::hook93Parent>::init(GJGameLevel*, bool, bool)::{lambda(keybinds::InvokeBindEvent*)#4}>, geode::ListenerResult(keybinds::InvokeBindEvent*)>::target(std::type_info const&) const
PUBLIC 16e9c 0 std::__ndk1::__function::__func<hook93<(anonymous namespace)::hook93Parent>::init(GJGameLevel*, bool, bool)::{lambda(keybinds::InvokeBindEvent*)#4}, std::__ndk1::allocator<hook93<(anonymous namespace)::hook93Parent>::init(GJGameLevel*, bool, bool)::{lambda(keybinds::InvokeBindEvent*)#4}>, geode::ListenerResult(keybinds::InvokeBindEvent*)>::target_type() const
PUBLIC 16ea8 0 geode::Mod::getSettingValue<double>(std::__ndk1::basic_string_view<char, std::__ndk1::char_traits<char> >) const
PUBLIC 16fe0 0 std::__ndk1::shared_ptr<geode::FloatSettingV3>::~shared_ptr[abi:ne180000]()
PUBLIC 17030 0 geode::Ref<keybinds::Bind>::~Ref()
PUBLIC m 1704c 0 keybinds::BindableAction::~BindableAction()
PUBLIC 17110 0 std::__ndk1::vector<geode::Ref<keybinds::Bind>, std::__ndk1::allocator<geode::Ref<keybinds::Bind> > >::~vector[abi:ne180000]()
PUBLIC 17194 0 geode::EventListener<geode::SettingChangedFilterV3>::EventListener(std::__ndk1::function<void (std::__ndk1::shared_ptr<geode::SettingV3>)>, geode::SettingChangedFilterV3)
PUBLIC 1728c 0 geode::SettingChangedFilterV3::~SettingChangedFilterV3()
PUBLIC 172dc 0 std::__ndk1::__function::__func<geode::listenForSettingChangesV3<long, void (*)(long)>(std::__ndk1::basic_string_view<char, std::__ndk1::char_traits<char> >, void (*&&)(long), geode::Mod*)::{lambda(std::__ndk1::shared_ptr<geode::SettingV3>)#1}, std::__ndk1::allocator<geode::listenForSettingChangesV3<long, void (*)(long)>(std::__ndk1::basic_string_view<char, std::__ndk1::char_traits<char> >, void (*&&)(long), geode::Mod*)::{lambda(std::__ndk1::shared_ptr<geode::SettingV3>)#1}>, void (std::__ndk1::shared_ptr<geode::SettingV3>)>::~__func()
PUBLIC 172e0 0 std::__ndk1::__function::__func<geode::listenForSettingChangesV3<long, void (*)(long)>(std::__ndk1::basic_string_view<char, std::__ndk1::char_traits<char> >, void (*&&)(long), geode::Mod*)::{lambda(std::__ndk1::shared_ptr<geode::SettingV3>)#1}, std::__ndk1::allocator<geode::listenForSettingChangesV3<long, void (*)(long)>(std::__ndk1::basic_string_view<char, std::__ndk1::char_traits<char> >, void (*&&)(long), geode::Mod*)::{lambda(std::__ndk1::shared_ptr<geode::SettingV3>)#1}>, void (std::__ndk1::shared_ptr<geode::SettingV3>)>::__clone() const
PUBLIC 17314 0 std::__ndk1::__function::__func<geode::listenForSettingChangesV3<long, void (*)(long)>(std::__ndk1::basic_string_view<char, std::__ndk1::char_traits<char> >, void (*&&)(long), geode::Mod*)::{lambda(std::__ndk1::shared_ptr<geode::SettingV3>)#1}, std::__ndk1::allocator<geode::listenForSettingChangesV3<long, void (*)(long)>(std::__ndk1::basic_string_view<char, std::__ndk1::char_traits<char> >, void (*&&)(long), geode::Mod*)::{lambda(std::__ndk1::shared_ptr<geode::SettingV3>)#1}>, void (std::__ndk1::shared_ptr<geode::SettingV3>)>::__clone(std::__ndk1::__function::__base<void (std::__ndk1::shared_ptr<geode::SettingV3>)>*) const
PUBLIC 17328 0 std::__ndk1::__function::__func<geode::listenForSettingChangesV3<long, void (*)(long)>(std::__ndk1::basic_string_view<char, std::__ndk1::char_traits<char> >, void (*&&)(long), geode::Mod*)::{lambda(std::__ndk1::shared_ptr<geode::SettingV3>)#1}, std::__ndk1::allocator<geode::listenForSettingChangesV3<long, void (*)(long)>(std::__ndk1::basic_string_view<char, std::__ndk1::char_traits<char> >, void (*&&)(long), geode::Mod*)::{lambda(std::__ndk1::shared_ptr<geode::SettingV3>)#1}>, void (std::__ndk1::shared_ptr<geode::SettingV3>)>::destroy()
PUBLIC 1732c 0 std::__ndk1::__function::__func<geode::listenForSettingChangesV3<long, void (*)(long)>(std::__ndk1::basic_string_view<char, std::__ndk1::char_traits<char> >, void (*&&)(long), geode::Mod*)::{lambda(std::__ndk1::shared_ptr<geode::SettingV3>)#1}, std::__ndk1::allocator<geode::listenForSettingChangesV3<long, void (*)(long)>(std::__ndk1::basic_string_view<char, std::__ndk1::char_traits<char> >, void (*&&)(long), geode::Mod*)::{lambda(std::__ndk1::shared_ptr<geode::SettingV3>)#1}>, void (std::__ndk1::shared_ptr<geode::SettingV3>)>::destroy_deallocate()
PUBLIC 17330 0 std::__ndk1::__function::__func<geode::listenForSettingChangesV3<long, void (*)(long)>(std::__ndk1::basic_string_view<char, std::__ndk1::char_traits<char> >, void (*&&)(long), geode::Mod*)::{lambda(std::__ndk1::shared_ptr<geode::SettingV3>)#1}, std::__ndk1::allocator<geode::listenForSettingChangesV3<long, void (*)(long)>(std::__ndk1::basic_string_view<char, std::__ndk1::char_traits<char> >, void (*&&)(long), geode::Mod*)::{lambda(std::__ndk1::shared_ptr<geode::SettingV3>)#1}>, void (std::__ndk1::shared_ptr<geode::SettingV3>)>::operator()(std::__ndk1::shared_ptr<geode::SettingV3>&&)
PUBLIC 17448 0 std::__ndk1::__function::__func<geode::listenForSettingChangesV3<long, void (*)(long)>(std::__ndk1::basic_string_view<char, std::__ndk1::char_traits<char> >, void (*&&)(long), geode::Mod*)::{lambda(std::__ndk1::shared_ptr<geode::SettingV3>)#1}, std::__ndk1::allocator<geode::listenForSettingChangesV3<long, void (*)(long)>(std::__ndk1::basic_string_view<char, std::__ndk1::char_traits<char> >, void (*&&)(long), geode::Mod*)::{lambda(std::__ndk1::shared_ptr<geode::SettingV3>)#1}>, void (std::__ndk1::shared_ptr<geode::SettingV3>)>::target(std::type_info const&) const
PUBLIC 17464 0 std::__ndk1::__function::__func<geode::listenForSettingChangesV3<long, void (*)(long)>(std::__ndk1::basic_string_view<char, std::__ndk1::char_traits<char> >, void (*&&)(long), geode::Mod*)::{lambda(std::__ndk1::shared_ptr<geode::SettingV3>)#1}, std::__ndk1::allocator<geode::listenForSettingChangesV3<long, void (*)(long)>(std::__ndk1::basic_string_view<char, std::__ndk1::char_traits<char> >, void (*&&)(long), geode::Mod*)::{lambda(std::__ndk1::shared_ptr<geode::SettingV3>)#1}>, void (std::__ndk1::shared_ptr<geode::SettingV3>)>::target_type() const
PUBLIC 17470 0 geode::EventListener<geode::SettingChangedFilterV3>::getPool() const
PUBLIC 17474 0 geode::EventListener<geode::SettingChangedFilterV3>::handle(geode::Event*)
PUBLIC 175d8 0 geode::EventListener<geode::SettingChangedFilterV3>::~EventListener()
PUBLIC 17674 0 geode::EventListener<geode::SettingChangedFilterV3>::~EventListener()
PUBLIC 17718 0 geodeExecFunction174<(anonymous namespace)::ExecFuncUnique174>()::{lambda(long)#1}::__invoke(long)
PUBLIC 17868 0 std::__ndk1::__function::__func<geode::listenForSettingChangesV3<cocos2d::_ccColor3B, void (*)(cocos2d::_ccColor3B)>(std::__ndk1::basic_string_view<char, std::__ndk1::char_traits<char> >, void (*&&)(cocos2d::_ccColor3B), geode::Mod*)::{lambda(std::__ndk1::shared_ptr<geode::SettingV3>)#1}, std::__ndk1::allocator<geode::listenForSettingChangesV3<cocos2d::_ccColor3B, void (*)(cocos2d::_ccColor3B)>(std::__ndk1::basic_string_view<char, std::__ndk1::char_traits<char> >, void (*&&)(cocos2d::_ccColor3B), geode::Mod*)::{lambda(std::__ndk1::shared_ptr<geode::SettingV3>)#1}>, void (std::__ndk1::shared_ptr<geode::SettingV3>)>::~__func()
PUBLIC 1786c 0 std::__ndk1::__function::__func<geode::listenForSettingChangesV3<cocos2d::_ccColor3B, void (*)(cocos2d::_ccColor3B)>(std::__ndk1::basic_string_view<char, std::__ndk1::char_traits<char> >, void (*&&)(cocos2d::_ccColor3B), geode::Mod*)::{lambda(std::__ndk1::shared_ptr<geode::SettingV3>)#1}, std::__ndk1::allocator<geode::listenForSettingChangesV3<cocos2d::_ccColor3B, void (*)(cocos2d::_ccColor3B)>(std::__ndk1::basic_string_view<char, std::__ndk1::char_traits<char> >, void (*&&)(cocos2d::_ccColor3B), geode::Mod*)::{lambda(std::__ndk1::shared_ptr<geode::SettingV3>)#1}>, void (std::__ndk1::shared_ptr<geode::SettingV3>)>::__clone() const
PUBLIC 178a0 0 std::__ndk1::__function::__func<geode::listenForSettingChangesV3<cocos2d::_ccColor3B, void (*)(cocos2d::_ccColor3B)>(std::__ndk1::basic_string_view<char, std::__ndk1::char_traits<char> >, void (*&&)(cocos2d::_ccColor3B), geode::Mod*)::{lambda(std::__ndk1::shared_ptr<geode::SettingV3>)#1}, std::__ndk1::allocator<geode::listenForSettingChangesV3<cocos2d::_ccColor3B, void (*)(cocos2d::_ccColor3B)>(std::__ndk1::basic_string_view<char, std::__ndk1::char_traits<char> >, void (*&&)(cocos2d::_ccColor3B), geode::Mod*)::{lambda(std::__ndk1::shared_ptr<geode::SettingV3>)#1}>, void (std::__ndk1::shared_ptr<geode::SettingV3>)>::__clone(std::__ndk1::__function::__base<void (std::__ndk1::shared_ptr<geode::SettingV3>)>*) const
PUBLIC 178b4 0 std::__ndk1::__function::__func<geode::listenForSettingChangesV3<cocos2d::_ccColor3B, void (*)(cocos2d::_ccColor3B)>(std::__ndk1::basic_string_view<char, std::__ndk1::char_traits<char> >, void (*&&)(cocos2d::_ccColor3B), geode::Mod*)::{lambda(std::__ndk1::shared_ptr<geode::SettingV3>)#1}, std::__ndk1::allocator<geode::listenForSettingChangesV3<cocos2d::_ccColor3B, void (*)(cocos2d::_ccColor3B)>(std::__ndk1::basic_string_view<char, std::__ndk1::char_traits<char> >, void (*&&)(cocos2d::_ccColor3B), geode::Mod*)::{lambda(std::__ndk1::shared_ptr<geode::SettingV3>)#1}>, void (std::__ndk1::shared_ptr<geode::SettingV3>)>::destroy()
PUBLIC 178b8 0 std::__ndk1::__function::__func<geode::listenForSettingChangesV3<cocos2d::_ccColor3B, void (*)(cocos2d::_ccColor3B)>(std::__ndk1::basic_string_view<char, std::__ndk1::char_traits<char> >, void (*&&)(cocos2d::_ccColor3B), geode::Mod*)::{lambda(std::__ndk1::shared_ptr<geode::SettingV3>)#1}, std::__ndk1::allocator<geode::listenForSettingChangesV3<cocos2d::_ccColor3B, void (*)(cocos2d::_ccColor3B)>(std::__ndk1::basic_string_view<char, std::__ndk1::char_traits<char> >, void (*&&)(cocos2d::_ccColor3B), geode::Mod*)::{lambda(std::__ndk1::shared_ptr<geode::SettingV3>)#1}>, void (std::__ndk1::shared_ptr<geode::SettingV3>)>::destroy_deallocate()
PUBLIC 178bc 0 std::__ndk1::__function::__func<geode::listenForSettingChangesV3<cocos2d::_ccColor3B, void (*)(cocos2d::_ccColor3B)>(std::__ndk1::basic_string_view<char, std::__ndk1::char_traits<char> >, void (*&&)(cocos2d::_ccColor3B), geode::Mod*)::{lambda(std::__ndk1::shared_ptr<geode::SettingV3>)#1}, std::__ndk1::allocator<geode::listenForSettingChangesV3<cocos2d::_ccColor3B, void (*)(cocos2d::_ccColor3B)>(std::__ndk1::basic_string_view<char, std::__ndk1::char_traits<char> >, void (*&&)(cocos2d::_ccColor3B), geode::Mod*)::{lambda(std::__ndk1::shared_ptr<geode::SettingV3>)#1}>, void (std::__ndk1::shared_ptr<geode::SettingV3>)>::operator()(std::__ndk1::shared_ptr<geode::SettingV3>&&)
PUBLIC 179dc 0 std::__ndk1::__function::__func<geode::listenForSettingChangesV3<cocos2d::_ccColor3B, void (*)(cocos2d::_ccColor3B)>(std::__ndk1::basic_string_view<char, std::__ndk1::char_traits<char> >, void (*&&)(cocos2d::_ccColor3B), geode::Mod*)::{lambda(std::__ndk1::shared_ptr<geode::SettingV3>)#1}, std::__ndk1::allocator<geode::listenForSettingChangesV3<cocos2d::_ccColor3B, void (*)(cocos2d::_ccColor3B)>(std::__ndk1::basic_string_view<char, std::__ndk1::char_traits<char> >, void (*&&)(cocos2d::_ccColor3B), geode::Mod*)::{lambda(std::__ndk1::shared_ptr<geode::SettingV3>)#1}>, void (std::__ndk1::shared_ptr<geode::SettingV3>)>::target(std::type_info const&) const
PUBLIC 179f8 0 std::__ndk1::__function::__func<geode::listenForSettingChangesV3<cocos2d::_ccColor3B, void (*)(cocos2d::_ccColor3B)>(std::__ndk1::basic_string_view<char, std::__ndk1::char_traits<char> >, void (*&&)(cocos2d::_ccColor3B), geode::Mod*)::{lambda(std::__ndk1::shared_ptr<geode::SettingV3>)#1}, std::__ndk1::allocator<geode::listenForSettingChangesV3<cocos2d::_ccColor3B, void (*)(cocos2d::_ccColor3B)>(std::__ndk1::basic_string_view<char, std::__ndk1::char_traits<char> >, void (*&&)(cocos2d::_ccColor3B), geode::Mod*)::{lambda(std::__ndk1::shared_ptr<geode::SettingV3>)#1}>, void (std::__ndk1::shared_ptr<geode::SettingV3>)>::target_type() const
PUBLIC 17a04 0 geodeExecFunction174<(anonymous namespace)::ExecFuncUnique174>()::{lambda(cocos2d::_ccColor3B(cocos2d::_ccColor3B))#1}::__invoke
PUBLIC 17b30 0 geode::listenForSettingChangesV3<bool, void (*)(bool)>(std::__ndk1::basic_string_view<char, std::__ndk1::char_traits<char> >, void (*&&)(bool), geode::Mod*)
PUBLIC 17d7c 0 std::__ndk1::__function::__func<geode::listenForSettingChangesV3<bool, void (*)(bool)>(std::__ndk1::basic_string_view<char, std::__ndk1::char_traits<char> >, void (*&&)(bool), geode::Mod*)::{lambda(std::__ndk1::shared_ptr<geode::SettingV3>)#1}, std::__ndk1::allocator<geode::listenForSettingChangesV3<bool, void (*)(bool)>(std::__ndk1::basic_string_view<char, std::__ndk1::char_traits<char> >, void (*&&)(bool), geode::Mod*)::{lambda(std::__ndk1::shared_ptr<geode::SettingV3>)#1}>, void (std::__ndk1::shared_ptr<geode::SettingV3>)>::~__func()
PUBLIC 17d80 0 std::__ndk1::__function::__func<geode::listenForSettingChangesV3<bool, void (*)(bool)>(std::__ndk1::basic_string_view<char, std::__ndk1::char_traits<char> >, void (*&&)(bool), geode::Mod*)::{lambda(std::__ndk1::shared_ptr<geode::SettingV3>)#1}, std::__ndk1::allocator<geode::listenForSettingChangesV3<bool, void (*)(bool)>(std::__ndk1::basic_string_view<char, std::__ndk1::char_traits<char> >, void (*&&)(bool), geode::Mod*)::{lambda(std::__ndk1::shared_ptr<geode::SettingV3>)#1}>, void (std::__ndk1::shared_ptr<geode::SettingV3>)>::__clone() const
PUBLIC 17db4 0 std::__ndk1::__function::__func<geode::listenForSettingChangesV3<bool, void (*)(bool)>(std::__ndk1::basic_string_view<char, std::__ndk1::char_traits<char> >, void (*&&)(bool), geode::Mod*)::{lambda(std::__ndk1::shared_ptr<geode::SettingV3>)#1}, std::__ndk1::allocator<geode::listenForSettingChangesV3<bool, void (*)(bool)>(std::__ndk1::basic_string_view<char, std::__ndk1::char_traits<char> >, void (*&&)(bool), geode::Mod*)::{lambda(std::__ndk1::shared_ptr<geode::SettingV3>)#1}>, void (std::__ndk1::shared_ptr<geode::SettingV3>)>::__clone(std::__ndk1::__function::__base<void (std::__ndk1::shared_ptr<geode::SettingV3>)>*) const
PUBLIC 17dc8 0 std::__ndk1::__function::__func<geode::listenForSettingChangesV3<bool, void (*)(bool)>(std::__ndk1::basic_string_view<char, std::__ndk1::char_traits<char> >, void (*&&)(bool), geode::Mod*)::{lambda(std::__ndk1::shared_ptr<geode::SettingV3>)#1}, std::__ndk1::allocator<geode::listenForSettingChangesV3<bool, void (*)(bool)>(std::__ndk1::basic_string_view<char, std::__ndk1::char_traits<char> >, void (*&&)(bool), geode::Mod*)::{lambda(std::__ndk1::shared_ptr<geode::SettingV3>)#1}>, void (std::__ndk1::shared_ptr<geode::SettingV3>)>::destroy()
PUBLIC 17dcc 0 std::__ndk1::__function::__func<geode::listenForSettingChangesV3<bool, void (*)(bool)>(std::__ndk1::basic_string_view<char, std::__ndk1::char_traits<char> >, void (*&&)(bool), geode::Mod*)::{lambda(std::__ndk1::shared_ptr<geode::SettingV3>)#1}, std::__ndk1::allocator<geode::listenForSettingChangesV3<bool, void (*)(bool)>(std::__ndk1::basic_string_view<char, std::__ndk1::char_traits<char> >, void (*&&)(bool), geode::Mod*)::{lambda(std::__ndk1::shared_ptr<geode::SettingV3>)#1}>, void (std::__ndk1::shared_ptr<geode::SettingV3>)>::destroy_deallocate()
PUBLIC 17dd0 0 std::__ndk1::__function::__func<geode::listenForSettingChangesV3<bool, void (*)(bool)>(std::__ndk1::basic_string_view<char, std::__ndk1::char_traits<char> >, void (*&&)(bool), geode::Mod*)::{lambda(std::__ndk1::shared_ptr<geode::SettingV3>)#1}, std::__ndk1::allocator<geode::listenForSettingChangesV3<bool, void (*)(bool)>(std::__ndk1::basic_string_view<char, std::__ndk1::char_traits<char> >, void (*&&)(bool), geode::Mod*)::{lambda(std::__ndk1::shared_ptr<geode::SettingV3>)#1}>, void (std::__ndk1::shared_ptr<geode::SettingV3>)>::operator()(std::__ndk1::shared_ptr<geode::SettingV3>&&)
PUBLIC 17ee8 0 std::__ndk1::__function::__func<geode::listenForSettingChangesV3<bool, void (*)(bool)>(std::__ndk1::basic_string_view<char, std::__ndk1::char_traits<char> >, void (*&&)(bool), geode::Mod*)::{lambda(std::__ndk1::shared_ptr<geode::SettingV3>)#1}, std::__ndk1::allocator<geode::listenForSettingChangesV3<bool, void (*)(bool)>(std::__ndk1::basic_string_view<char, std::__ndk1::char_traits<char> >, void (*&&)(bool), geode::Mod*)::{lambda(std::__ndk1::shared_ptr<geode::SettingV3>)#1}>, void (std::__ndk1::shared_ptr<geode::SettingV3>)>::target(std::type_info const&) const
PUBLIC 17f04 0 std::__ndk1::__function::__func<geode::listenForSettingChangesV3<bool, void (*)(bool)>(std::__ndk1::basic_string_view<char, std::__ndk1::char_traits<char> >, void (*&&)(bool), geode::Mod*)::{lambda(std::__ndk1::shared_ptr<geode::SettingV3>)#1}, std::__ndk1::allocator<geode::listenForSettingChangesV3<bool, void (*)(bool)>(std::__ndk1::basic_string_view<char, std::__ndk1::char_traits<char> >, void (*&&)(bool), geode::Mod*)::{lambda(std::__ndk1::shared_ptr<geode::SettingV3>)#1}>, void (std::__ndk1::shared_ptr<geode::SettingV3>)>::target_type() const
PUBLIC 17f10 0 geodeExecFunction174<(anonymous namespace)::ExecFuncUnique174>()::{lambda(bool)#1}::__invoke(bool)
PUBLIC 17fb4 0 geodeExecFunction174<(anonymous namespace)::ExecFuncUnique174>()::{lambda(bool)#2}::__invoke(bool)
PUBLIC 18064 0 std::__ndk1::__function::__base<void (std::__ndk1::shared_ptr<geode::SettingV3>)>::~__base()
PUBLIC 18068 0 std::__ndk1::__function::__func<geode::listenForSettingChangesV3<double, void (*)(double)>(std::__ndk1::basic_string_view<char, std::__ndk1::char_traits<char> >, void (*&&)(double), geode::Mod*)::{lambda(std::__ndk1::shared_ptr<geode::SettingV3>)#1}, std::__ndk1::allocator<geode::listenForSettingChangesV3<double, void (*)(double)>(std::__ndk1::basic_string_view<char, std::__ndk1::char_traits<char> >, void (*&&)(double), geode::Mod*)::{lambda(std::__ndk1::shared_ptr<geode::SettingV3>)#1}>, void (std::__ndk1::shared_ptr<geode::SettingV3>)>::~__func()
PUBLIC 1806c 0 std::__ndk1::__function::__func<geode::listenForSettingChangesV3<double, void (*)(double)>(std::__ndk1::basic_string_view<char, std::__ndk1::char_traits<char> >, void (*&&)(double), geode::Mod*)::{lambda(std::__ndk1::shared_ptr<geode::SettingV3>)#1}, std::__ndk1::allocator<geode::listenForSettingChangesV3<double, void (*)(double)>(std::__ndk1::basic_string_view<char, std::__ndk1::char_traits<char> >, void (*&&)(double), geode::Mod*)::{lambda(std::__ndk1::shared_ptr<geode::SettingV3>)#1}>, void (std::__ndk1::shared_ptr<geode::SettingV3>)>::__clone() const
PUBLIC 180a0 0 std::__ndk1::__function::__func<geode::listenForSettingChangesV3<double, void (*)(double)>(std::__ndk1::basic_string_view<char, std::__ndk1::char_traits<char> >, void (*&&)(double), geode::Mod*)::{lambda(std::__ndk1::shared_ptr<geode::SettingV3>)#1}, std::__ndk1::allocator<geode::listenForSettingChangesV3<double, void (*)(double)>(std::__ndk1::basic_string_view<char, std::__ndk1::char_traits<char> >, void (*&&)(double), geode::Mod*)::{lambda(std::__ndk1::shared_ptr<geode::SettingV3>)#1}>, void (std::__ndk1::shared_ptr<geode::SettingV3>)>::__clone(std::__ndk1::__function::__base<void (std::__ndk1::shared_ptr<geode::SettingV3>)>*) const
PUBLIC 180b4 0 std::__ndk1::__function::__func<geode::listenForSettingChangesV3<double, void (*)(double)>(std::__ndk1::basic_string_view<char, std::__ndk1::char_traits<char> >, void (*&&)(double), geode::Mod*)::{lambda(std::__ndk1::shared_ptr<geode::SettingV3>)#1}, std::__ndk1::allocator<geode::listenForSettingChangesV3<double, void (*)(double)>(std::__ndk1::basic_string_view<char, std::__ndk1::char_traits<char> >, void (*&&)(double), geode::Mod*)::{lambda(std::__ndk1::shared_ptr<geode::SettingV3>)#1}>, void (std::__ndk1::shared_ptr<geode::SettingV3>)>::destroy()
PUBLIC 180b8 0 std::__ndk1::__function::__func<geode::listenForSettingChangesV3<double, void (*)(double)>(std::__ndk1::basic_string_view<char, std::__ndk1::char_traits<char> >, void (*&&)(double), geode::Mod*)::{lambda(std::__ndk1::shared_ptr<geode::SettingV3>)#1}, std::__ndk1::allocator<geode::listenForSettingChangesV3<double, void (*)(double)>(std::__ndk1::basic_string_view<char, std::__ndk1::char_traits<char> >, void (*&&)(double), geode::Mod*)::{lambda(std::__ndk1::shared_ptr<geode::SettingV3>)#1}>, void (std::__ndk1::shared_ptr<geode::SettingV3>)>::destroy_deallocate()
PUBLIC 180bc 0 std::__ndk1::__function::__func<geode::listenForSettingChangesV3<double, void (*)(double)>(std::__ndk1::basic_string_view<char, std::__ndk1::char_traits<char> >, void (*&&)(double), geode::Mod*)::{lambda(std::__ndk1::shared_ptr<geode::SettingV3>)#1}, std::__ndk1::allocator<geode::listenForSettingChangesV3<double, void (*)(double)>(std::__ndk1::basic_string_view<char, std::__ndk1::char_traits<char> >, void (*&&)(double), geode::Mod*)::{lambda(std::__ndk1::shared_ptr<geode::SettingV3>)#1}>, void (std::__ndk1::shared_ptr<geode::SettingV3>)>::operator()(std::__ndk1::shared_ptr<geode::SettingV3>&&)
PUBLIC 181d4 0 std::__ndk1::__function::__func<geode::listenForSettingChangesV3<double, void (*)(double)>(std::__ndk1::basic_string_view<char, std::__ndk1::char_traits<char> >, void (*&&)(double), geode::Mod*)::{lambda(std::__ndk1::shared_ptr<geode::SettingV3>)#1}, std::__ndk1::allocator<geode::listenForSettingChangesV3<double, void (*)(double)>(std::__ndk1::basic_string_view<char, std::__ndk1::char_traits<char> >, void (*&&)(double), geode::Mod*)::{lambda(std::__ndk1::shared_ptr<geode::SettingV3>)#1}>, void (std::__ndk1::shared_ptr<geode::SettingV3>)>::target(std::type_info const&) const
PUBLIC 181f0 0 std::__ndk1::__function::__func<geode::listenForSettingChangesV3<double, void (*)(double)>(std::__ndk1::basic_string_view<char, std::__ndk1::char_traits<char> >, void (*&&)(double), geode::Mod*)::{lambda(std::__ndk1::shared_ptr<geode::SettingV3>)#1}, std::__ndk1::allocator<geode::listenForSettingChangesV3<double, void (*)(double)>(std::__ndk1::basic_string_view<char, std::__ndk1::char_traits<char> >, void (*&&)(double), geode::Mod*)::{lambda(std::__ndk1::shared_ptr<geode::SettingV3>)#1}>, void (std::__ndk1::shared_ptr<geode::SettingV3>)>::target_type() const
PUBLIC 181fc 0 geodeExecFunction174<(anonymous namespace)::ExecFuncUnique174>()::{lambda(double)#1}::__invoke(double)
PUBLIC 182d0 0 std::__ndk1::__exception_guard_exceptions<std::__ndk1::vector<geode::Ref<keybinds::Bind>, std::__ndk1::allocator<geode::Ref<keybinds::Bind> > >::__destroy_vector>::~__exception_guard_exceptions[abi:ne180000]()
PUBLIC 18364 0 std::__ndk1::__exception_guard_exceptions<std::__ndk1::_AllocatorDestroyRangeReverse<std::__ndk1::allocator<geode::Ref<keybinds::Bind> >, geode::Ref<keybinds::Bind>*> >::~__exception_guard_exceptions[abi:ne180000]()
PUBLIC m 183ac 0 geodeImplicitEntry
PUBLIC 183e8 0 __udivti3
PUBLIC 183f4 0 __udivmodti4
PUBLIC m 18640 0 __eqtf2
PUBLIC 186e0 0 __unordtf2
PUBLIC 18718 0 fmt::v11::detail::write_loc(fmt::v11::basic_appender<char>, fmt::v11::loc_value, fmt::v11::format_specs const&, fmt::v11::detail::locale_ref)
PUBLIC 189ac 0 fmt::v11::format_facet<std::__ndk1::locale>::~format_facet()
PUBLIC 18a28 0 fmt::v11::report_error(char const*)
PUBLIC 18a78 0 fmt::v11::format_error::runtime_error(char const*)
PUBLIC 18aa4 0 fmt::v11::format_facet<std::__ndk1::locale>::do_put(fmt::v11::basic_appender<char>, fmt::v11::loc_value, fmt::v11::format_specs const&) const
PUBLIC 19264 0 fmt::v11::detail::loc_writer<char>::~loc_writer()
PUBLIC 192c8 0 fmt::v11::detail::vformat_to<char>(fmt::v11::detail::buffer<char>&, fmt::v11::basic_string_view<char>, fmt::v11::detail::vformat_args<char>::type, fmt::v11::detail::locale_ref)
PUBLIC 19838 0 fmt::v11::detail::is_printable(unsigned int)
PUBLIC 19a60 0 fmt::v11::detail::dragonbox::to_decimal<float>(float)
PUBLIC 19d3c 0 fmt::v11::detail::dragonbox::to_decimal<double>(double)
PUBLIC 1a278 0 fmt::v11::basic_memory_buffer<char, (unsigned long)500, std::__ndk1::allocator<char> >::grow(fmt::v11::detail::buffer<char>&, unsigned long)
PUBLIC 1a2f0 0 fmt::v11::format_facet<std::__ndk1::locale>::~format_facet()
PUBLIC 1a37c 0 fmt::v11::format_error::~format_error()
PUBLIC 1a3a0 0 fmt::v11::detail::copy_noinline<char, char const*, fmt::v11::basic_appender<char> >(char const*, char const*, fmt::v11::basic_appender<char>)
PUBLIC 1a4f0 0 fmt::v11::detail::default_arg_formatter<char>::operator()<bool>(bool)
PUBLIC 1a558 0 fmt::v11::detail::default_arg_formatter<char>::operator()<char>(char)
PUBLIC 1a5e8 0 fmt::v11::detail::default_arg_formatter<char>::operator()<float>(float)
PUBLIC 1a6d4 0 fmt::v11::detail::default_arg_formatter<char>::operator()<double>(double)
PUBLIC 1a7c0 0 fmt::v11::detail::default_arg_formatter<char>::operator()<char const*>(char const*)
PUBLIC 1a808 0 fmt::v11::detail::default_arg_formatter<char>::operator()<void const*>(void const*)
PUBLIC 1a8a0 0 _ZN3fmt3v116detail5writeIcNS0_14basic_appenderIcEEiTnNSt6__ndk19enable_ifIXaaaasr11is_integralIT1_EE5valuentsr3std7is_sameIS7_bEE5valuentsr3std7is_sameIS7_T_EE5valueEiE4typeELi0EEET0_SB_S7_
PUBLIC 1ab00 0 fmt::v11::detail::copy_noinline<char, char*, fmt::v11::basic_appender<char> >(char*, char*, fmt::v11::basic_appender<char>)
PUBLIC 1ac50 0 _ZN3fmt3v116detail5writeIcNS0_14basic_appenderIcEEjTnNSt6__ndk19enable_ifIXaaaasr11is_integralIT1_EE5valuentsr3std7is_sameIS7_bEE5valuentsr3std7is_sameIS7_T_EE5valueEiE4typeELi0EEET0_SB_S7_
PUBLIC 1ae30 0 _ZN3fmt3v116detail5writeIcNS0_14basic_appenderIcEExTnNSt6__ndk19enable_ifIXaaaasr11is_integralIT1_EE5valuentsr3std7is_sameIS7_bEE5valuentsr3std7is_sameIS7_T_EE5valueEiE4typeELi0EEET0_SB_S7_
PUBLIC 1b0b4 0 _ZN3fmt3v116detail5writeIcNS0_14basic_appenderIcEEyTnNSt6__ndk19enable_ifIXaaaasr11is_integralIT1_EE5valuentsr3std7is_sameIS7_bEE5valuentsr3std7is_sameIS7_T_EE5valueEiE4typeELi0EEET0_SB_S7_
PUBLIC 1b2bc 0 _ZN3fmt3v116detail5writeIcNS0_14basic_appenderIcEEnTnNSt6__ndk19enable_ifIXaaaasr11is_integralIT1_EE5valuentsr3std7is_sameIS7_bEE5valuentsr3std7is_sameIS7_T_EE5valueEiE4typeELi0EEET0_SB_S7_
PUBLIC 1b61c 0 _ZN3fmt3v116detail5writeIcNS0_14basic_appenderIcEEoTnNSt6__ndk19enable_ifIXaaaasr11is_integralIT1_EE5valuentsr3std7is_sameIS7_bEE5valuentsr3std7is_sameIS7_T_EE5valueEiE4typeELi0EEET0_SB_S7_
PUBLIC 1b930 0 _ZN3fmt3v116detail5writeIcNS0_14basic_appenderIcEEbTnNSt6__ndk19enable_ifIXsr3std7is_sameIT1_bEE5valueEiE4typeELi0EEET0_SA_S7_RKNS0_12format_specsENS1_10locale_refE
PUBLIC 1bbc0 0 fmt::v11::detail::write_int_noinline<char, fmt::v11::basic_appender<char>, unsigned int>(fmt::v11::basic_appender<char>, fmt::v11::detail::write_int_arg<unsigned int>, fmt::v11::format_specs const&, fmt::v11::detail::locale_ref)
PUBLIC 1c99c 0 fmt::v11::detail::fill<char, fmt::v11::basic_appender<char> >(fmt::v11::basic_appender<char>, unsigned long, fmt::v11::detail::fill_t const&)
PUBLIC 1cb6c 0 fmt::v11::detail::write_padded<char, (fmt::v11::align::type)1, fmt::v11::basic_appender<char>, fmt::v11::detail::write_char<char, fmt::v11::basic_appender<char> >(fmt::v11::basic_appender<char>, char, fmt::v11::format_specs const&)::{lambda(fmt::v11::basic_appender<char>&)#1}>(fmt::v11::basic_appender<char>, fmt::v11::format_specs const&, unsigned long, unsigned long, fmt::v11::detail::write_char<char, fmt::v11::basic_appender<char> >(fmt::v11::basic_appender<char>, char, fmt::v11::format_specs const&)::{lambda(fmt::v11::basic_appender<char>&)#1})
PUBLIC 1cda8 0 fmt::v11::detail::write_escaped_cp<fmt::v11::basic_appender<char>, char>(fmt::v11::basic_appender<char>, fmt::v11::detail::find_escape_result<char> const&)
PUBLIC 1d0b4 0 fmt::v11::detail::write_codepoint<(unsigned long)2, char, fmt::v11::basic_appender<char> >(fmt::v11::basic_appender<char>, char, unsigned int)
PUBLIC 1d22c 0 fmt::v11::detail::write_codepoint<(unsigned long)8, char, fmt::v11::basic_appender<char> >(fmt::v11::basic_appender<char>, char, unsigned int)
PUBLIC 1d3a4 0 fmt::v11::detail::write_padded<char, (fmt::v11::align::type)1, fmt::v11::basic_appender<char>, fmt::v11::detail::write_nonfinite<char, fmt::v11::basic_appender<char> >(fmt::v11::basic_appender<char>, bool, fmt::v11::format_specs, fmt::v11::sign::type)::{lambda(fmt::v11::basic_appender<char>&)#1}>(fmt::v11::basic_appender<char>, fmt::v11::format_specs const&, unsigned long, unsigned long, fmt::v11::detail::write_nonfinite<char, fmt::v11::basic_appender<char> >(fmt::v11::basic_appender<char>, bool, fmt::v11::format_specs, fmt::v11::sign::type)::{lambda(fmt::v11::basic_appender<char>&)#1})
PUBLIC 1d5e4 0 fmt::v11::detail::do_write_float<char, fmt::v11::basic_appender<char>, fmt::v11::detail::dragonbox::decimal_fp<float>, fmt::v11::detail::digit_grouping<char> >(fmt::v11::basic_appender<char>, fmt::v11::detail::dragonbox::decimal_fp<float> const&, fmt::v11::format_specs const&, fmt::v11::detail::float_specs, fmt::v11::detail::locale_ref)
PUBLIC 1e258 0 fmt::v11::detail::do_write_float<char, fmt::v11::basic_appender<char>, fmt::v11::detail::dragonbox::decimal_fp<float>, fmt::v11::detail::digit_grouping<char> >(fmt::v11::basic_appender<char>, fmt::v11::detail::dragonbox::decimal_fp<float> const&, fmt::v11::format_specs const&, fmt::v11::detail::float_specs, fmt::v11::detail::locale_ref)::{lambda(fmt::v11::basic_appender<char>(fmt::v11::basic_appender<char>))#1}::operator() const
PUBLIC 1e3ac 0 fmt::v11::detail::digit_grouping<char>::digit_grouping(fmt::v11::detail::locale_ref, bool)
PUBLIC 1e618 0 fmt::v11::detail::digit_grouping<char>::~digit_grouping()
PUBLIC 1e65c 0 fmt::v11::detail::write_exponent<char, fmt::v11::basic_appender<char> >(int, fmt::v11::basic_appender<char>)
PUBLIC 1e82c 0 _ZN3fmt3v116detail17write_significandIcjTnNSt6__ndk19enable_ifIXsr3std11is_integralIT0_EE5valueEiE4typeELi0EEEPT_S9_S5_iiS8_
PUBLIC 1e9a8 0 std::__ndk1::basic_string<char, std::__ndk1::char_traits<char>, std::__ndk1::allocator<char> >::__assign_no_alias<true>(char const*, unsigned long)
PUBLIC 1ea54 0 std::__ndk1::basic_string<char, std::__ndk1::char_traits<char>, std::__ndk1::allocator<char> >::__assign_no_alias<false>(char const*, unsigned long)
PUBLIC 1eb64 0 fmt::v11::detail::digit_grouping<char>::apply<fmt::v11::basic_appender<char>, char>(fmt::v11::basic_appender<char>, fmt::v11::basic_string_view<char>) const
PUBLIC 1ef1c 0 fmt::v11::basic_memory_buffer<int, (unsigned long)500, std::__ndk1::allocator<int> >::grow(fmt::v11::detail::buffer<int>&, unsigned long)
PUBLIC 1efbc 0 fmt::v11::detail::do_write_float<char, fmt::v11::basic_appender<char>, fmt::v11::detail::dragonbox::decimal_fp<double>, fmt::v11::detail::digit_grouping<char> >(fmt::v11::basic_appender<char>, fmt::v11::detail::dragonbox::decimal_fp<double> const&, fmt::v11::format_specs const&, fmt::v11::detail::float_specs, fmt::v11::detail::locale_ref)
PUBLIC 1fc70 0 fmt::v11::detail::do_write_float<char, fmt::v11::basic_appender<char>, fmt::v11::detail::dragonbox::decimal_fp<double>, fmt::v11::detail::digit_grouping<char> >(fmt::v11::basic_appender<char>, fmt::v11::detail::dragonbox::decimal_fp<double> const&, fmt::v11::format_specs const&, fmt::v11::detail::float_specs, fmt::v11::detail::locale_ref)::{lambda(fmt::v11::basic_appender<char>(fmt::v11::basic_appender<char>))#1}::operator() const
PUBLIC 1fdc8 0 _ZN3fmt3v116detail17write_significandIcmTnNSt6__ndk19enable_ifIXsr3std11is_integralIT0_EE5valueEiE4typeELi0EEEPT_S9_S5_iiS8_
PUBLIC 1ff58 0 fmt::v11::detail::write_float<char, fmt::v11::basic_appender<char>, long double>(fmt::v11::basic_appender<char>, long double, fmt::v11::format_specs, fmt::v11::detail::locale_ref)
PUBLIC 20a54 0 fmt::v11::detail::write_padded<char, (fmt::v11::align::type)2, fmt::v11::basic_appender<char>, fmt::v11::detail::write_bytes<char, (fmt::v11::align::type)2, fmt::v11::basic_appender<char> >(fmt::v11::basic_appender<char>, fmt::v11::basic_string_view<char>, fmt::v11::format_specs const&)::{lambda(fmt::v11::basic_appender<char>&)#1}>(fmt::v11::basic_appender<char>, fmt::v11::format_specs const&, unsigned long, unsigned long, fmt::v11::detail::write_bytes<char, (fmt::v11::align::type)2, fmt::v11::basic_appender<char> >(fmt::v11::basic_appender<char>, fmt::v11::basic_string_view<char>, fmt::v11::format_specs const&)::{lambda(fmt::v11::basic_appender<char>&)#1})
PUBLIC 20c30 0 fmt::v11::detail::format_dragon(fmt::v11::detail::basic_fp<unsigned __int128>, unsigned int, int, fmt::v11::detail::buffer<char>&, int&)
PUBLIC 22060 0 fmt::v11::detail::bigint::operator<<=(int)
PUBLIC 22184 0 fmt::v11::detail::bigint::assign_pow10(int)
PUBLIC 228e0 0 fmt::v11::detail::bigint::divmod_assign(fmt::v11::detail::bigint const&)
PUBLIC 22c00 0 fmt::v11::basic_memory_buffer<unsigned int, (unsigned long)32, std::__ndk1::allocator<unsigned int> >::grow(fmt::v11::detail::buffer<unsigned int>&, unsigned long)
PUBLIC 22ca0 0 fmt::v11::detail::do_write_float<char, fmt::v11::basic_appender<char>, fmt::v11::detail::big_decimal_fp, fmt::v11::detail::digit_grouping<char> >(fmt::v11::basic_appender<char>, fmt::v11::detail::big_decimal_fp const&, fmt::v11::format_specs const&, fmt::v11::detail::float_specs, fmt::v11::detail::locale_ref)
PUBLIC 23b50 0 fmt::v11::detail::do_write_float<char, fmt::v11::basic_appender<char>, fmt::v11::detail::big_decimal_fp, fmt::v11::detail::digit_grouping<char> >(fmt::v11::basic_appender<char>, fmt::v11::detail::big_decimal_fp const&, fmt::v11::format_specs const&, fmt::v11::detail::float_specs, fmt::v11::detail::locale_ref)::{lambda(fmt::v11::basic_appender<char>(fmt::v11::basic_appender<char>))#1}::operator() const
PUBLIC 23cb0 0 fmt::v11::detail::write_padded<char, (fmt::v11::align::type)2, fmt::v11::basic_appender<char>, fmt::v11::detail::write_ptr<char, fmt::v11::basic_appender<char>, unsigned long>(fmt::v11::basic_appender<char>, unsigned long, fmt::v11::format_specs const*)::{lambda(fmt::v11::basic_appender<char>&)#1}>(fmt::v11::basic_appender<char>, fmt::v11::format_specs const&, unsigned long, unsigned long, fmt::v11::detail::write_ptr<char, fmt::v11::basic_appender<char>, unsigned long>(fmt::v11::basic_appender<char>, unsigned long, fmt::v11::format_specs const*)::{lambda(fmt::v11::basic_appender<char>&)#1})
PUBLIC 23ec4 0 fmt::v11::detail::parse_replacement_field<char, fmt::v11::detail::vformat_to<char>(fmt::v11::detail::buffer<char>&, fmt::v11::basic_string_view<char>, fmt::v11::detail::vformat_args<char>::type, fmt::v11::detail::locale_ref)::format_handler&>(char const*, char const*, fmt::v11::detail::vformat_to<char>(fmt::v11::detail::buffer<char>&, fmt::v11::basic_string_view<char>, fmt::v11::detail::vformat_args<char>::type, fmt::v11::detail::locale_ref)::format_handler&)
PUBLIC 25b60 0 fmt::v11::detail::parse_dynamic_spec<char>(char const*, char const*, int&, fmt::v11::detail::arg_ref<char>&, fmt::v11::basic_format_parse_context<char>&)
PUBLIC 25df0 0 fmt::v11::basic_format_args<fmt::v11::context>::get<char>(fmt::v11::basic_string_view<char>) const
PUBLIC 25f48 0 fmt::v11::detail::write_int_noinline<char, fmt::v11::basic_appender<char>, unsigned long>(fmt::v11::basic_appender<char>, fmt::v11::detail::write_int_arg<unsigned long>, fmt::v11::format_specs const&, fmt::v11::detail::locale_ref)
PUBLIC 26d9c 0 fmt::v11::detail::write_int_noinline<char, fmt::v11::basic_appender<char>, unsigned __int128>(fmt::v11::basic_appender<char>, fmt::v11::detail::write_int_arg<unsigned __int128>, fmt::v11::format_specs const&, fmt::v11::detail::locale_ref)
PUBLIC 27e04 0 _ZN3fmt3v116detail15format_hexfloatIdTnNSt6__ndk19enable_ifIXntsr16is_double_doubleIT_EE5valueEiE4typeELi0EEEvS5_NS0_12format_specsERNS1_6bufferIcEE
PUBLIC 28324 0 fmt::v11::detail::format_float<double>(double, int, fmt::v11::detail::float_specs, fmt::v11::detail::buffer<char>&)
PUBLIC 28cc4 0 fmt::v11::detail::write<char, fmt::v11::basic_appender<char> >(fmt::v11::basic_appender<char>, fmt::v11::basic_string_view<char>, fmt::v11::format_specs const&)
PUBLIC 2a030 0 fmt::v11::detail::for_each_codepoint<fmt::v11::detail::compute_width(fmt::v11::basic_string_view<char>)::count_code_points>(fmt::v11::basic_string_view<char>, fmt::v11::detail::compute_width(fmt::v11::basic_string_view<char>)::count_code_points)::{lambda(char const*, char const*)#1}::operator()(char const*, char const*) const
PUBLIC 2a1e8 0 fmt::v11::detail::write_int<fmt::v11::basic_appender<char>, unsigned long, char>(fmt::v11::basic_appender<char>, unsigned long, unsigned int, fmt::v11::format_specs const&, fmt::v11::detail::digit_grouping<char> const&)
PUBLIC 2a764 0 fmt::v11::detail::write_int<fmt::v11::basic_appender<char>, unsigned __int128, char>(fmt::v11::basic_appender<char>, unsigned __int128, unsigned int, fmt::v11::format_specs const&, fmt::v11::detail::digit_grouping<char> const&)
PUBLIC 2ade0 0 <.plt ELF section in sawblade.dim_mode.android64.so>
STACK CFI INIT c5b0 10 .cfa: sp 0 +
STACK CFI INIT c5c0 8 .cfa: sp 0 +
STACK CFI INIT c5c8 8 .cfa: sp 0 +
STACK CFI INIT c5d0 14 .cfa: sp 0 +
STACK CFI INIT c5e4 1c .cfa: sp 0 +
STACK CFI INIT c600 10 .cfa: sp 0 +
STACK CFI INIT c610 134 .cfa: sp 0 +
STACK CFI INIT c744 84 .cfa: sp 0 +
STACK CFI INIT c7c8 f4 .cfa: sp 0 +
STACK CFI INIT c8bc a8 .cfa: sp 0 +
STACK CFI INIT c964 7c .cfa: sp 0 +
STACK CFI INIT c9e0 14 .cfa: sp 0 +
STACK CFI INIT c9f4 40 .cfa: sp 0 +
STACK CFI INIT ca34 28 .cfa: sp 0 +
STACK CFI INIT ca5c 190 .cfa: sp 0 +
STACK CFI INIT cbec 2c8 .cfa: sp 0 +
STACK CFI INIT ceb4 8 .cfa: sp 0 +
STACK CFI INIT cebc 8 .cfa: sp 0 +
STACK CFI INIT cec4 44 .cfa: sp 0 +
STACK CFI INIT cf08 e8 .cfa: sp 0 +
STACK CFI INIT cff0 e8 .cfa: sp 0 +
STACK CFI INIT d0d8 14 .cfa: sp 0 +
STACK CFI INIT d0ec 10 .cfa: sp 0 +
STACK CFI INIT d0fc 10 .cfa: sp 0 +
STACK CFI INIT d10c f0 .cfa: sp 0 +
STACK CFI INIT d1fc 44 .cfa: sp 0 +
STACK CFI INIT d240 c .cfa: sp 0 +
STACK CFI INIT d24c c .cfa: sp 0 +
STACK CFI INIT d258 2c .cfa: sp 0 +
STACK CFI INIT d284 280 .cfa: sp 0 +
STACK CFI INIT d504 c .cfa: sp 0 +
STACK CFI INIT d510 120 .cfa: sp 0 +
STACK CFI INIT d630 488 .cfa: sp 0 +
STACK CFI INIT dab8 c48 .cfa: sp 0 +
STACK CFI INIT e700 134 .cfa: sp 0 +
STACK CFI INIT e834 210 .cfa: sp 0 +
STACK CFI INIT ea44 38c .cfa: sp 0 +
STACK CFI INIT edd0 1c8 .cfa: sp 0 +
STACK CFI INIT ef98 9bc .cfa: sp 0 +
STACK CFI INIT f954 2d4 .cfa: sp 0 +
STACK CFI INIT fc28 134 .cfa: sp 0 +
STACK CFI INIT fd5c 120 .cfa: sp 0 +
STACK CFI INIT fe7c 1c8 .cfa: sp 0 +
STACK CFI INIT 10044 168 .cfa: sp 0 +
STACK CFI INIT 101ac fc .cfa: sp 0 +
STACK CFI INIT 102a8 30 .cfa: sp 0 +
STACK CFI INIT 10410 30 .cfa: sp 0 +
STACK CFI INIT 10440 98 .cfa: sp 0 +
STACK CFI INIT 104d8 59c .cfa: sp 0 +
STACK CFI INIT 10a74 8c .cfa: sp 0 +
STACK CFI INIT 10b00 30 .cfa: sp 0 +
STACK CFI INIT 10b30 120 .cfa: sp 0 +
STACK CFI 10b34 .cfa: sp 80 +
STACK CFI 10b44 .cfa: x29 48 + x19: .cfa -8 + ^ x20: .cfa -16 + ^ x21: .cfa -24 + ^ x22: .cfa -32 + ^ .ra: .cfa -40 + ^ x29: .cfa -48 + ^
STACK CFI 10c38 .cfa: sp 80 +
STACK CFI 10c48 .cfa: sp 0 +
STACK CFI 10c4c .cfa: x29 48 +
STACK CFI INIT 10c50 220 .cfa: sp 0 +
STACK CFI 10c54 .cfa: sp 96 +
STACK CFI 10c6c .cfa: x29 80 + x19: .cfa -8 + ^ x20: .cfa -16 + ^ x21: .cfa -24 + ^ x22: .cfa -32 + ^ x23: .cfa -40 + ^ x24: .cfa -48 + ^ x25: .cfa -56 + ^ x26: .cfa -64 + ^ .ra: .cfa -72 + ^ x29: .cfa -80 + ^ v8: .cfa -88 + ^ v9: .cfa -96 + ^
STACK CFI 10e54 .cfa: sp 96 +
STACK CFI 10e6c .cfa: sp 0 +
STACK CFI INIT 10e70 98 .cfa: sp 0 +
STACK CFI 10e74 .cfa: sp 304 +
STACK CFI 10e80 .cfa: x29 32 + x19: .cfa -8 + ^ x28: .cfa -16 + ^ .ra: .cfa -24 + ^ x29: .cfa -32 + ^
STACK CFI 10ef4 .cfa: sp 304 +
STACK CFI 10f00 .cfa: sp 0 +
STACK CFI 10f04 .cfa: x29 32 +
STACK CFI INIT 10f08 128 .cfa: sp 0 +
STACK CFI 10f0c .cfa: sp 80 +
STACK CFI 10f1c .cfa: x29 48 + x19: .cfa -8 + ^ x20: .cfa -16 + ^ x21: .cfa -24 + ^ x22: .cfa -32 + ^ .ra: .cfa -40 + ^ x29: .cfa -48 + ^
STACK CFI 11018 .cfa: sp 80 +
STACK CFI 11028 .cfa: sp 0 +
STACK CFI 1102c .cfa: x29 48 +
STACK CFI INIT 116d4 18 .cfa: sp 0 +
STACK CFI INIT 12eac 18 .cfa: sp 0 +
STACK CFI INIT 12ec4 10 .cfa: sp 0 +
STACK CFI 12ec8 .cfa: sp 16 +
STACK CFI 12ecc .cfa: x29 16 + .ra: .cfa -8 + ^ x29: .cfa -16 + ^
STACK CFI INIT 12ed4 50 .cfa: sp 0 +
STACK CFI 12ed8 .cfa: sp 32 +
STACK CFI 12ee0 .cfa: x29 32 + x19: .cfa -16 + ^ .ra: .cfa -24 + ^ x29: .cfa -32 + ^
STACK CFI 12ef8 .cfa: sp 32 +
STACK CFI 12f00 .cfa: sp 0 +
STACK CFI 12f04 .cfa: x29 32 +
STACK CFI 12f18 .cfa: sp 32 +
STACK CFI 12f20 .cfa: sp 0 +
STACK CFI INIT 12f24 50 .cfa: sp 0 +
STACK CFI 12f28 .cfa: sp 32 +
STACK CFI 12f30 .cfa: x29 32 + x19: .cfa -16 + ^ .ra: .cfa -24 + ^ x29: .cfa -32 + ^
STACK CFI 12f48 .cfa: sp 32 +
STACK CFI 12f50 .cfa: sp 0 +
STACK CFI 12f54 .cfa: x29 32 +
STACK CFI 12f68 .cfa: sp 32 +
STACK CFI 12f70 .cfa: sp 0 +
STACK CFI INIT 12f74 f8 .cfa: sp 0 +
STACK CFI 12f78 .cfa: sp 64 +
STACK CFI 12f88 .cfa: x29 64 + x19: .cfa -8 + ^ x20: .cfa -16 + ^ x21: .cfa -24 + ^ x22: .cfa -32 + ^ x23: .cfa -48 + ^ .ra: .cfa -56 + ^ x29: .cfa -64 + ^
STACK CFI 12fe4 .cfa: sp 64 +
STACK CFI 12ff4 .cfa: sp 0 +
STACK CFI 12ff8 .cfa: x29 64 +
STACK CFI 13014 .cfa: sp 64 +
STACK CFI 13024 .cfa: sp 0 +
STACK CFI 13028 .cfa: x29 64 +
STACK CFI 13058 .cfa: sp 64 +
STACK CFI 13068 .cfa: sp 0 +
STACK CFI INIT 1306c 50 .cfa: sp 0 +
STACK CFI 13070 .cfa: sp 32 +
STACK CFI 13078 .cfa: x29 32 + x19: .cfa -16 + ^ .ra: .cfa -24 + ^ x29: .cfa -32 + ^
STACK CFI 13090 .cfa: sp 32 +
STACK CFI 13098 .cfa: sp 0 +
STACK CFI 1309c .cfa: x29 32 +
STACK CFI 130b0 .cfa: sp 32 +
STACK CFI 130b8 .cfa: sp 0 +
STACK CFI INIT 13408 50 .cfa: sp 0 +
STACK CFI 1340c .cfa: sp 32 +
STACK CFI 13414 .cfa: x29 32 + x19: .cfa -16 + ^ .ra: .cfa -24 + ^ x29: .cfa -32 + ^
STACK CFI 1342c .cfa: sp 32 +
STACK CFI 13434 .cfa: sp 0 +
STACK CFI 13438 .cfa: x29 32 +
STACK CFI 1344c .cfa: sp 32 +
STACK CFI 13454 .cfa: sp 0 +
STACK CFI INIT 134cc 7c .cfa: sp 0 +
STACK CFI 134d0 .cfa: sp 48 +
STACK CFI 134dc .cfa: x29 48 + x19: .cfa -8 + ^ x20: .cfa -16 + ^ x21: .cfa -32 + ^ .ra: .cfa -40 + ^ x29: .cfa -48 + ^
STACK CFI 13528 .cfa: sp 48 +
STACK CFI 13534 .cfa: sp 0 +
STACK CFI 13538 .cfa: sp 48 +
STACK CFI 13544 .cfa: sp 0 +
STACK CFI INIT 13548 4 .cfa: sp 0 +
STACK CFI INIT 136a0 34 .cfa: sp 0 +
STACK CFI 136a4 .cfa: sp 16 +
STACK CFI 136a8 .cfa: x29 16 + .ra: .cfa -8 + ^ x29: .cfa -16 + ^
STACK CFI INIT 13800 80 .cfa: sp 0 +
STACK CFI 13804 .cfa: sp 48 +
STACK CFI 13810 .cfa: x29 48 + x19: .cfa -8 + ^ x20: .cfa -16 + ^ x21: .cfa -32 + ^ .ra: .cfa -40 + ^ x29: .cfa -48 + ^
STACK CFI 13870 .cfa: sp 48 +
STACK CFI 1387c .cfa: sp 0 +
STACK CFI INIT 13880 24 .cfa: sp 0 +
STACK CFI 13884 .cfa: sp 32 +
STACK CFI 1388c .cfa: x29 32 + x19: .cfa -16 + ^ .ra: .cfa -24 + ^ x29: .cfa -32 + ^
STACK CFI 13898 .cfa: sp 32 +
STACK CFI 138a0 .cfa: sp 0 +
STACK CFI INIT 13c24 14 .cfa: sp 0 +
STACK CFI 13c28 .cfa: sp 16 +
STACK CFI 13c2c .cfa: x29 16 + .ra: .cfa -8 + ^ x29: .cfa -16 + ^
STACK CFI INIT 13c88 30 .cfa: sp 0 +
STACK CFI 13c8c .cfa: sp 32 +
STACK CFI 13c94 .cfa: x29 32 + x19: .cfa -16 + ^ .ra: .cfa -24 + ^ x29: .cfa -32 + ^
STACK CFI 13cac .cfa: sp 32 +
STACK CFI 13cb4 .cfa: sp 0 +
STACK CFI INIT 13cb8 34 .cfa: sp 0 +
STACK CFI 13cbc .cfa: sp 32 +
STACK CFI 13cc4 .cfa: x29 32 + x19: .cfa -16 + ^ .ra: .cfa -24 + ^ x29: .cfa -32 + ^
STACK CFI INIT 13e64 148 .cfa: sp 0 +
STACK CFI 13e68 .cfa: sp 48 +
STACK CFI 13e74 .cfa: x29 48 + x19: .cfa -8 + ^ x20: .cfa -16 + ^ x21: .cfa -32 + ^ .ra: .cfa -40 + ^ x29: .cfa -48 + ^
STACK CFI 13f9c .cfa: sp 48 +
STACK CFI 13fa8 .cfa: sp 0 +
STACK CFI INIT 141d0 80 .cfa: sp 0 +
STACK CFI 141d4 .cfa: sp 48 +
STACK CFI 141e0 .cfa: x29 48 + x19: .cfa -8 + ^ x20: .cfa -16 + ^ x21: .cfa -24 + ^ x22: .cfa -32 + ^ .ra: .cfa -40 + ^ x29: .cfa -48 + ^
STACK CFI 141f8 .cfa: sp 48 +
STACK CFI 14204 .cfa: sp 0 +
STACK CFI 14208 .cfa: x29 48 +
STACK CFI 14238 .cfa: sp 48 +
STACK CFI 14244 .cfa: sp 0 +
STACK CFI 14248 .cfa: x29 48 +
STACK CFI INIT 14250 68 .cfa: sp 0 +
STACK CFI 14254 .cfa: sp 32 +
STACK CFI 1425c .cfa: x29 32 + x19: .cfa -8 + ^ x20: .cfa -16 + ^ .ra: .cfa -24 + ^ x29: .cfa -32 + ^
STACK CFI 14274 .cfa: sp 32 +
STACK CFI 1427c .cfa: sp 0 +
STACK CFI 14280 .cfa: x29 32 +
STACK CFI 142ac .cfa: sp 32 +
STACK CFI 142b4 .cfa: sp 0 +
STACK CFI INIT 142b8 14 .cfa: sp 0 +
STACK CFI 142bc .cfa: sp 16 +
STACK CFI 142c0 .cfa: x29 16 + .ra: .cfa -8 + ^ x29: .cfa -16 + ^
STACK CFI INIT 142cc 4 .cfa: sp 0 +
STACK CFI INIT 142d0 14 .cfa: sp 0 +
STACK CFI INIT 142e4 120 .cfa: sp 0 +
STACK CFI 142e8 .cfa: sp 64 +
STACK CFI 142f8 .cfa: x29 64 + x19: .cfa -8 + ^ x20: .cfa -16 + ^ x21: .cfa -24 + ^ x22: .cfa -32 + ^ x23: .cfa -40 + ^ x24: .cfa -48 + ^ .ra: .cfa -56 + ^ x29: .cfa -64 + ^
STACK CFI 143f0 .cfa: sp 64 +
STACK CFI 14400 .cfa: sp 0 +
STACK CFI INIT 14404 4a4 .cfa: sp 0 +
STACK CFI 14408 .cfa: sp 32 +
STACK CFI 14410 .cfa: x29 32 + x19: .cfa -8 + ^ x20: .cfa -16 + ^ .ra: .cfa -24 + ^ x29: .cfa -32 + ^
STACK CFI 147f0 .cfa: sp 32 +
STACK CFI 147f8 .cfa: sp 0 +
STACK CFI 147fc .cfa: x29 32 +
STACK CFI INIT 148a8 84 .cfa: sp 0 +
STACK CFI 148b0 .cfa: sp 32 +
STACK CFI 148b8 .cfa: x29 32 + x19: .cfa -8 + ^ x20: .cfa -16 + ^ .ra: .cfa -24 + ^ x29: .cfa -32 + ^
STACK CFI 148f8 .cfa: sp 32 +
STACK CFI 14900 .cfa: sp 0 +
STACK CFI 14908 .cfa: x29 32 +
STACK CFI INIT 1492c 274 .cfa: sp 0 +
STACK CFI 14930 .cfa: sp 80 +
STACK CFI 14944 .cfa: x29 64 + x19: .cfa -8 + ^ x20: .cfa -16 + ^ x21: .cfa -24 + ^ x22: .cfa -32 + ^ x23: .cfa -40 + ^ x24: .cfa -48 + ^ .ra: .cfa -56 + ^ x29: .cfa -64 + ^
STACK CFI 14b7c .cfa: sp 80 +
STACK CFI 14b90 .cfa: sp 0 +
STACK CFI 14b94 .cfa: x29 64 +
STACK CFI INIT 14ba0 50 .cfa: sp 0 +
STACK CFI 14ba4 .cfa: sp 32 +
STACK CFI 14bac .cfa: x29 32 + x19: .cfa -16 + ^ .ra: .cfa -24 + ^ x29: .cfa -32 + ^
STACK CFI 14bc4 .cfa: sp 32 +
STACK CFI 14bcc .cfa: sp 0 +
STACK CFI 14bd0 .cfa: x29 32 +
STACK CFI 14be4 .cfa: sp 32 +
STACK CFI 14bec .cfa: sp 0 +
STACK CFI INIT 14bf0 64 .cfa: sp 0 +
STACK CFI 14bf4 .cfa: sp 32 +
STACK CFI 14bfc .cfa: x29 32 + x19: .cfa -16 + ^ .ra: .cfa -24 + ^ x29: .cfa -32 + ^
STACK CFI 14c28 .cfa: sp 32 +
STACK CFI 14c30 .cfa: sp 0 +
STACK CFI 14c34 .cfa: x29 32 +
STACK CFI 14c48 .cfa: sp 32 +
STACK CFI 14c50 .cfa: sp 0 +
STACK CFI INIT 14c54 130 .cfa: sp 0 +
STACK CFI 14c58 .cfa: sp 80 +
STACK CFI 14c68 .cfa: x29 48 + x19: .cfa -8 + ^ x20: .cfa -16 + ^ x21: .cfa -24 + ^ x22: .cfa -32 + ^ .ra: .cfa -40 + ^ x29: .cfa -48 + ^
STACK CFI 14d6c .cfa: sp 80 +
STACK CFI 14d7c .cfa: sp 0 +
STACK CFI 14d80 .cfa: x29 48 +
STACK CFI INIT 14e64 50 .cfa: sp 0 +
STACK CFI 14e68 .cfa: sp 32 +
STACK CFI 14e70 .cfa: x29 32 + x19: .cfa -16 + ^ .ra: .cfa -24 + ^ x29: .cfa -32 + ^
STACK CFI 14e88 .cfa: sp 32 +
STACK CFI 14e90 .cfa: sp 0 +
STACK CFI 14e94 .cfa: x29 32 +
STACK CFI 14ea8 .cfa: sp 32 +
STACK CFI 14eb0 .cfa: sp 0 +
STACK CFI INIT 14eb4 168 .cfa: sp 0 +
STACK CFI 14eb8 .cfa: sp 80 +
STACK CFI 14ecc .cfa: x29 80 + x19: .cfa -8 + ^ x20: .cfa -16 + ^ x21: .cfa -24 + ^ x22: .cfa -32 + ^ x23: .cfa -40 + ^ x24: .cfa -48 + ^ x25: .cfa -56 + ^ x26: .cfa -64 + ^ .ra: .cfa -72 + ^ x29: .cfa -80 + ^
STACK CFI 15004 .cfa: sp 80 +
STACK CFI 15018 .cfa: sp 0 +
STACK CFI INIT 1501c 1b0 .cfa: sp 0 +
STACK CFI INIT 157ec 4 .cfa: sp 0 +
STACK CFI INIT 162cc 4 .cfa: sp 0 +
STACK CFI INIT 16434 6c .cfa: sp 0 +
STACK CFI 16438 .cfa: sp 32 +
STACK CFI 16440 .cfa: x29 32 + x19: .cfa -16 + ^ .ra: .cfa -24 + ^ x29: .cfa -32 + ^
STACK CFI 16494 .cfa: sp 32 +
STACK CFI 1649c .cfa: sp 0 +
STACK CFI INIT 164a0 74 .cfa: sp 0 +
STACK CFI 164a4 .cfa: sp 32 +
STACK CFI 164ac .cfa: x29 32 + x19: .cfa -16 + ^ .ra: .cfa -24 + ^ x29: .cfa -32 + ^
STACK CFI 16508 .cfa: sp 32 +
STACK CFI 16510 .cfa: sp 0 +
STACK CFI INIT 16514 4 .cfa: sp 0 +
STACK CFI INIT 16518 24 .cfa: sp 0 +
STACK CFI 1651c .cfa: sp 16 +
STACK CFI 16520 .cfa: x29 16 + .ra: .cfa -8 + ^ x29: .cfa -16 + ^
STACK CFI 16534 .cfa: sp 16 +
STACK CFI 16538 .cfa: sp 0 +
STACK CFI INIT 1653c 10 .cfa: sp 0 +
STACK CFI INIT 1654c 4 .cfa: sp 0 +
STACK CFI INIT 16550 4 .cfa: sp 0 +
STACK CFI INIT 16554 184 .cfa: sp 0 +
STACK CFI 16558 .cfa: sp 64 +
STACK CFI 16568 .cfa: x29 48 + x19: .cfa -8 + ^ x20: .cfa -16 + ^ x21: .cfa -32 + ^ .ra: .cfa -40 + ^ x29: .cfa -48 + ^
STACK CFI 166c0 .cfa: sp 64 +
STACK CFI 166d0 .cfa: sp 0 +
STACK CFI 166d4 .cfa: x29 48 +
STACK CFI INIT 166d8 1c .cfa: sp 0 +
STACK CFI INIT 166f4 c .cfa: sp 0 +
STACK CFI INIT 168a4 4 .cfa: sp 0 +
STACK CFI INIT 168a8 14 .cfa: sp 0 +
STACK CFI INIT 168bc 4 .cfa: sp 0 +
STACK CFI INIT 168c0 24 .cfa: sp 0 +
STACK CFI 168c4 .cfa: sp 16 +
STACK CFI 168c8 .cfa: x29 16 + .ra: .cfa -8 + ^ x29: .cfa -16 + ^
STACK CFI 168dc .cfa: sp 16 +
STACK CFI 168e0 .cfa: sp 0 +
STACK CFI INIT 168e4 10 .cfa: sp 0 +
STACK CFI INIT 168f4 4 .cfa: sp 0 +
STACK CFI INIT 168f8 4 .cfa: sp 0 +
STACK CFI INIT 168fc 110 .cfa: sp 0 +
STACK CFI 16900 .cfa: sp 64 +
STACK CFI 16910 .cfa: x29 48 + x19: .cfa -8 + ^ x20: .cfa -16 + ^ x21: .cfa -32 + ^ .ra: .cfa -40 + ^ x29: .cfa -48 + ^
STACK CFI 169f4 .cfa: sp 64 +
STACK CFI 16a04 .cfa: sp 0 +
STACK CFI 16a08 .cfa: x29 48 +
STACK CFI INIT 16a0c 1c .cfa: sp 0 +
STACK CFI INIT 16a28 c .cfa: sp 0 +
STACK CFI INIT 16a34 4 .cfa: sp 0 +
STACK CFI INIT 16a38 24 .cfa: sp 0 +
STACK CFI 16a3c .cfa: sp 16 +
STACK CFI 16a40 .cfa: x29 16 + .ra: .cfa -8 + ^ x29: .cfa -16 + ^
STACK CFI 16a54 .cfa: sp 16 +
STACK CFI 16a58 .cfa: sp 0 +
STACK CFI INIT 16a5c 10 .cfa: sp 0 +
STACK CFI INIT 16a6c 4 .cfa: sp 0 +
STACK CFI INIT 16a70 4 .cfa: sp 0 +
STACK CFI INIT 16a74 f8 .cfa: sp 0 +
STACK CFI 16a78 .cfa: sp 48 +
STACK CFI 16a84 .cfa: x29 32 + x19: .cfa -8 + ^ x20: .cfa -16 + ^ .ra: .cfa -24 + ^ x29: .cfa -32 + ^
STACK CFI 16b58 .cfa: sp 48 +
STACK CFI 16b64 .cfa: sp 0 +
STACK CFI 16b68 .cfa: x29 32 +
STACK CFI INIT 16b6c 1c .cfa: sp 0 +
STACK CFI INIT 16b88 c .cfa: sp 0 +
STACK CFI INIT 16d44 4 .cfa: sp 0 +
STACK CFI INIT 16d48 4 .cfa: sp 0 +
STACK CFI INIT 16d4c 24 .cfa: sp 0 +
STACK CFI 16d50 .cfa: sp 16 +
STACK CFI 16d54 .cfa: x29 16 + .ra: .cfa -8 + ^ x29: .cfa -16 + ^
STACK CFI 16d68 .cfa: sp 16 +
STACK CFI 16d6c .cfa: sp 0 +
STACK CFI INIT 16d70 10 .cfa: sp 0 +
STACK CFI INIT 16d80 4 .cfa: sp 0 +
STACK CFI INIT 16d84 4 .cfa: sp 0 +
STACK CFI INIT 16d88 f8 .cfa: sp 0 +
STACK CFI 16d8c .cfa: sp 48 +
STACK CFI 16d98 .cfa: x29 32 + x19: .cfa -8 + ^ x20: .cfa -16 + ^ .ra: .cfa -24 + ^ x29: .cfa -32 + ^
STACK CFI 16e6c .cfa: sp 48 +
STACK CFI 16e78 .cfa: sp 0 +
STACK CFI 16e7c .cfa: x29 32 +
STACK CFI INIT 16e80 1c .cfa: sp 0 +
STACK CFI INIT 16e9c c .cfa: sp 0 +
STACK CFI INIT 16ea8 138 .cfa: sp 0 +
STACK CFI 16eac .cfa: sp 96 +
STACK CFI 16ec0 .cfa: x29 48 + x19: .cfa -8 + ^ x20: .cfa -16 + ^ x21: .cfa -24 + ^ x22: .cfa -32 + ^ .ra: .cfa -40 + ^ x29: .cfa -48 + ^ v8: .cfa -64 + ^
STACK CFI 16fc4 .cfa: sp 96 +
STACK CFI 16fd8 .cfa: sp 0 +
STACK CFI 16fdc .cfa: x29 48 +
STACK CFI INIT 16fe0 50 .cfa: sp 0 +
STACK CFI 16fe4 .cfa: sp 32 +
STACK CFI 16fec .cfa: x29 32 + x19: .cfa -16 + ^ .ra: .cfa -24 + ^ x29: .cfa -32 + ^
STACK CFI 17004 .cfa: sp 32 +
STACK CFI 1700c .cfa: sp 0 +
STACK CFI 17010 .cfa: x29 32 +
STACK CFI 17024 .cfa: sp 32 +
STACK CFI 1702c .cfa: sp 0 +
STACK CFI INIT 1728c 50 .cfa: sp 0 +
STACK CFI 17290 .cfa: sp 32 +
STACK CFI 17298 .cfa: x29 32 + x19: .cfa -16 + ^ .ra: .cfa -24 + ^ x29: .cfa -32 + ^
STACK CFI 172b0 .cfa: sp 32 +
STACK CFI 172b8 .cfa: sp 0 +
STACK CFI 172bc .cfa: x29 32 +
STACK CFI 172d0 .cfa: sp 32 +
STACK CFI 172d8 .cfa: sp 0 +
STACK CFI INIT 172dc 4 .cfa: sp 0 +
STACK CFI INIT 172e0 34 .cfa: sp 0 +
STACK CFI 172e4 .cfa: sp 32 +
STACK CFI 172ec .cfa: x29 32 + x19: .cfa -16 + ^ .ra: .cfa -24 + ^ x29: .cfa -32 + ^
STACK CFI 17308 .cfa: sp 32 +
STACK CFI 17310 .cfa: sp 0 +
STACK CFI INIT 17314 14 .cfa: sp 0 +
STACK CFI INIT 17328 4 .cfa: sp 0 +
STACK CFI INIT 1732c 4 .cfa: sp 0 +
STACK CFI INIT 17448 1c .cfa: sp 0 +
STACK CFI INIT 17464 c .cfa: sp 0 +
STACK CFI INIT 17470 4 .cfa: sp 0 +
STACK CFI INIT 175d8 9c .cfa: sp 0 +
STACK CFI 175dc .cfa: sp 32 +
STACK CFI 175e4 .cfa: x29 32 + x19: .cfa -8 + ^ x20: .cfa -16 + ^ .ra: .cfa -24 + ^ x29: .cfa -32 + ^
STACK CFI 17668 .cfa: sp 32 +
STACK CFI 17670 .cfa: sp 0 +
STACK CFI INIT 17674 a4 .cfa: sp 0 +
STACK CFI 17678 .cfa: sp 32 +
STACK CFI 17680 .cfa: x29 32 + x19: .cfa -8 + ^ x20: .cfa -16 + ^ .ra: .cfa -24 + ^ x29: .cfa -32 + ^
STACK CFI 1770c .cfa: sp 32 +
STACK CFI 17714 .cfa: sp 0 +
STACK CFI INIT 17718 150 .cfa: sp 0 +
STACK CFI 1771c .cfa: sp 48 +
STACK CFI 17728 .cfa: x29 48 + x19: .cfa -8 + ^ x20: .cfa -16 + ^ x21: .cfa -32 + ^ .ra: .cfa -40 + ^ x29: .cfa -48 + ^
STACK CFI 17828 .cfa: sp 48 +
STACK CFI 17834 .cfa: sp 0 +
STACK CFI 17838 .cfa: x29 48 +
STACK CFI 17858 .cfa: sp 48 +
STACK CFI 17864 .cfa: sp 0 +
STACK CFI INIT 17868 4 .cfa: sp 0 +
STACK CFI INIT 1786c 34 .cfa: sp 0 +
STACK CFI 17870 .cfa: sp 32 +
STACK CFI 17878 .cfa: x29 32 + x19: .cfa -16 + ^ .ra: .cfa -24 + ^ x29: .cfa -32 + ^
STACK CFI 17894 .cfa: sp 32 +
STACK CFI 1789c .cfa: sp 0 +
STACK CFI INIT 178a0 14 .cfa: sp 0 +
STACK CFI INIT 178b4 4 .cfa: sp 0 +
STACK CFI INIT 178b8 4 .cfa: sp 0 +
STACK CFI INIT 179dc 1c .cfa: sp 0 +
STACK CFI INIT 179f8 c .cfa: sp 0 +
STACK CFI INIT 17a04 12c .cfa: sp 0 +
STACK CFI 17a08 .cfa: sp 80 +
STACK CFI 17a1c .cfa: x29 64 + x19: .cfa -8 + ^ x20: .cfa -16 + ^ x21: .cfa -24 + ^ x22: .cfa -32 + ^ x23: .cfa -40 + ^ x24: .cfa -48 + ^ .ra: .cfa -56 + ^ x29: .cfa -64 + ^
STACK CFI 17b14 .cfa: sp 80 +
STACK CFI 17b28 .cfa: sp 0 +
STACK CFI 17b2c .cfa: x29 64 +
STACK CFI INIT 17d7c 4 .cfa: sp 0 +
STACK CFI INIT 17d80 34 .cfa: sp 0 +
STACK CFI 17d84 .cfa: sp 32 +
STACK CFI 17d8c .cfa: x29 32 + x19: .cfa -16 + ^ .ra: .cfa -24 + ^ x29: .cfa -32 + ^
STACK CFI 17da8 .cfa: sp 32 +
STACK CFI 17db0 .cfa: sp 0 +
STACK CFI INIT 17db4 14 .cfa: sp 0 +
STACK CFI INIT 17dc8 4 .cfa: sp 0 +
STACK CFI INIT 17dcc 4 .cfa: sp 0 +
STACK CFI INIT 17ee8 1c .cfa: sp 0 +
STACK CFI INIT 17f04 c .cfa: sp 0 +
STACK CFI INIT 17f10 a4 .cfa: sp 0 +
STACK CFI 17f14 .cfa: sp 32 +
STACK CFI 17f1c .cfa: x29 32 + x19: .cfa -8 + ^ x20: .cfa -16 + ^ .ra: .cfa -24 + ^ x29: .cfa -32 + ^
STACK CFI 17f84 .cfa: sp 32 +
STACK CFI 17f8c .cfa: sp 0 +
STACK CFI 17f90 .cfa: sp 32 +
STACK CFI 17f98 .cfa: sp 0 +
STACK CFI 17f9c .cfa: x29 32 +
STACK CFI 17fa8 .cfa: sp 32 +
STACK CFI 17fb0 .cfa: sp 0 +
STACK CFI INIT 17fb4 b0 .cfa: sp 0 +
STACK CFI 17fb8 .cfa: sp 48 +
STACK CFI 17fc4 .cfa: x29 48 + x19: .cfa -8 + ^ x20: .cfa -16 + ^ x21: .cfa -32 + ^ .ra: .cfa -40 + ^ x29: .cfa -48 + ^
STACK CFI 18044 .cfa: sp 48 +
STACK CFI 18050 .cfa: sp 0 +
STACK CFI 18054 .cfa: sp 48 +
STACK CFI 18060 .cfa: sp 0 +
STACK CFI INIT 18064 4 .cfa: sp 0 +
STACK CFI INIT 18068 4 .cfa: sp 0 +
STACK CFI INIT 1806c 34 .cfa: sp 0 +
STACK CFI 18070 .cfa: sp 32 +
STACK CFI 18078 .cfa: x29 32 + x19: .cfa -16 + ^ .ra: .cfa -24 + ^ x29: .cfa -32 + ^
STACK CFI 18094 .cfa: sp 32 +
STACK CFI 1809c .cfa: sp 0 +
STACK CFI INIT 180a0 14 .cfa: sp 0 +
STACK CFI INIT 180b4 4 .cfa: sp 0 +
STACK CFI INIT 180b8 4 .cfa: sp 0 +
STACK CFI INIT 181d4 1c .cfa: sp 0 +
STACK CFI INIT 181f0 c .cfa: sp 0 +
STACK CFI INIT 181fc d4 .cfa: sp 0 +
STACK CFI 18200 .cfa: sp 48 +
STACK CFI 1820c .cfa: x29 32 + x19: .cfa -8 + ^ x20: .cfa -16 + ^ .ra: .cfa -24 + ^ x29: .cfa -32 + ^ v8: .cfa -48 + ^
STACK CFI 18290 .cfa: sp 48 +
STACK CFI 1829c .cfa: sp 0 +
STACK CFI 182a0 .cfa: x29 32 +
STACK CFI 182c0 .cfa: sp 48 +
STACK CFI 182cc .cfa: sp 0 +
STACK CFI INIT 183ac 3c .cfa: sp 0 +
STACK CFI 183b0 .cfa: sp 32 +
STACK CFI 183b8 .cfa: x29 32 + x19: .cfa -16 + ^ .ra: .cfa -24 + ^ x29: .cfa -32 + ^
STACK CFI 183c4 .cfa: sp 32 +
STACK CFI 183cc .cfa: sp 0 +
STACK CFI 183d0 .cfa: x29 32 +
STACK CFI 183dc .cfa: sp 32 +
STACK CFI 183e4 .cfa: sp 0 +
STACK CFI INIT 183e8 c .cfa: sp 0 +
STACK CFI INIT 183f4 24c .cfa: sp 0 +
STACK CFI INIT 18640 a0 .cfa: sp 0 +
STACK CFI 1864c .cfa: sp 32 +
STACK CFI 186a4 .cfa: sp 0 +
STACK CFI 186a8 .cfa: sp 32 +
STACK CFI 186b0 .cfa: sp 0 +
STACK CFI 186b4 .cfa: sp 32 +
STACK CFI 186c8 .cfa: sp 0 +
STACK CFI 186cc .cfa: sp 32 +
STACK CFI 186dc .cfa: sp 0 +
STACK CFI INIT 186e0 38 .cfa: sp 0 +
STACK CFI 186ec .cfa: sp 32 +
STACK CFI 18714 .cfa: sp 0 +
STACK CFI INIT 189ac 7c .cfa: sp 0 +
STACK CFI 189b0 .cfa: sp 32 +
STACK CFI 189b8 .cfa: x29 32 + x19: .cfa -16 + ^ .ra: .cfa -24 + ^ x29: .cfa -32 + ^
STACK CFI 189e4 .cfa: sp 32 +
STACK CFI 189ec .cfa: sp 0 +
STACK CFI 189f0 .cfa: x29 32 +
STACK CFI 18a1c .cfa: sp 32 +
STACK CFI 18a24 .cfa: sp 0 +
STACK CFI INIT 18a78 2c .cfa: sp 0 +
STACK CFI 18a7c .cfa: sp 32 +
STACK CFI 18a84 .cfa: x29 32 + x19: .cfa -16 + ^ .ra: .cfa -24 + ^ x29: .cfa -32 + ^
STACK CFI 18a98 .cfa: sp 32 +
STACK CFI 18aa0 .cfa: sp 0 +
STACK CFI INIT 19264 64 .cfa: sp 0 +
STACK CFI 19268 .cfa: sp 32 +
STACK CFI 19270 .cfa: x29 32 + x19: .cfa -16 + ^ .ra: .cfa -24 + ^ x29: .cfa -32 + ^
STACK CFI 1928c .cfa: sp 32 +
STACK CFI 19294 .cfa: sp 0 +
STACK CFI 19298 .cfa: x29 32 +
STACK CFI 192bc .cfa: sp 32 +
STACK CFI 192c4 .cfa: sp 0 +
STACK CFI INIT 192c8 570 .cfa: sp 0 +
STACK CFI 192cc .cfa: sp 176 +
STACK CFI 192e0 .cfa: x29 64 + x19: .cfa -8 + ^ x20: .cfa -16 + ^ x21: .cfa -24 + ^ x22: .cfa -32 + ^ x23: .cfa -40 + ^ x24: .cfa -48 + ^ .ra: .cfa -56 + ^ x29: .cfa -64 + ^
STACK CFI 19510 .cfa: sp 176 +
STACK CFI 19524 .cfa: sp 0 +
STACK CFI 19528 .cfa: x29 64 +
STACK CFI 19574 .cfa: sp 176 +
STACK CFI 19588 .cfa: sp 0 +
STACK CFI 1958c .cfa: x29 64 +
STACK CFI 195c4 .cfa: sp 176 +
STACK CFI 195d8 .cfa: sp 0 +
STACK CFI 195dc .cfa: x29 64 +
STACK CFI 195f4 .cfa: sp 176 +
STACK CFI 19608 .cfa: sp 0 +
STACK CFI 1960c .cfa: x29 64 +
STACK CFI 1962c .cfa: sp 176 +
STACK CFI 19640 .cfa: sp 0 +
STACK CFI 19644 .cfa: x29 64 +
STACK CFI 1965c .cfa: sp 176 +
STACK CFI 19670 .cfa: sp 0 +
STACK CFI 19674 .cfa: x29 64 +
STACK CFI 19688 .cfa: sp 176 +
STACK CFI 1969c .cfa: sp 0 +
STACK CFI 196a0 .cfa: x29 64 +
STACK CFI 196b4 .cfa: sp 176 +
STACK CFI 196c8 .cfa: sp 0 +
STACK CFI 196cc .cfa: x29 64 +
STACK CFI 196dc .cfa: sp 176 +
STACK CFI 196f0 .cfa: sp 0 +
STACK CFI 196f4 .cfa: x29 64 +
STACK CFI 19704 .cfa: sp 176 +
STACK CFI 19718 .cfa: sp 0 +
STACK CFI 1971c .cfa: x29 64 +
STACK CFI 19734 .cfa: sp 176 +
STACK CFI 19748 .cfa: sp 0 +
STACK CFI 1974c .cfa: x29 64 +
STACK CFI 19760 .cfa: sp 176 +
STACK CFI 19774 .cfa: sp 0 +
STACK CFI 19778 .cfa: x29 64 +
STACK CFI 19790 .cfa: sp 176 +
STACK CFI 197a4 .cfa: sp 0 +
STACK CFI 197a8 .cfa: x29 64 +
STACK CFI 197d4 .cfa: sp 176 +
STACK CFI 197e8 .cfa: sp 0 +
STACK CFI 197ec .cfa: x29 64 +
STACK CFI 19800 .cfa: sp 176 +
STACK CFI 19814 .cfa: sp 0 +
STACK CFI 19818 .cfa: x29 64 +
STACK CFI INIT 19838 228 .cfa: sp 0 +
STACK CFI INIT 19a60 2dc .cfa: sp 0 +
STACK CFI INIT 19d3c 53c .cfa: sp 0 +
STACK CFI INIT 1a278 78 .cfa: sp 0 +
STACK CFI 1a27c .cfa: sp 48 +
STACK CFI 1a288 .cfa: x29 48 + x19: .cfa -8 + ^ x20: .cfa -16 + ^ x21: .cfa -24 + ^ x22: .cfa -32 + ^ .ra: .cfa -40 + ^ x29: .cfa -48 + ^
STACK CFI 1a2d0 .cfa: sp 48 +
STACK CFI 1a2dc .cfa: sp 0 +
STACK CFI 1a2e0 .cfa: sp 48 +
STACK CFI 1a2ec .cfa: sp 0 +
STACK CFI INIT 1a2f0 8c .cfa: sp 0 +
STACK CFI 1a2f4 .cfa: sp 32 +
STACK CFI 1a2fc .cfa: x29 32 + x19: .cfa -16 + ^ .ra: .cfa -24 + ^ x29: .cfa -32 + ^
STACK CFI 1a330 .cfa: sp 32 +
STACK CFI 1a338 .cfa: sp 0 +
STACK CFI 1a33c .cfa: x29 32 +
STACK CFI 1a370 .cfa: sp 32 +
STACK CFI 1a378 .cfa: sp 0 +
STACK CFI INIT 1a37c 24 .cfa: sp 0 +
STACK CFI 1a380 .cfa: sp 32 +
STACK CFI 1a388 .cfa: x29 32 + x19: .cfa -16 + ^ .ra: .cfa -24 + ^ x29: .cfa -32 + ^
STACK CFI 1a394 .cfa: sp 32 +
STACK CFI 1a39c .cfa: sp 0 +
STACK CFI INIT 1a3a0 150 .cfa: sp 0 +
STACK CFI 1a3a4 .cfa: sp 48 +
STACK CFI 1a3b0 .cfa: x29 48 + x19: .cfa -8 + ^ x20: .cfa -16 + ^ x21: .cfa -24 + ^ x22: .cfa -32 + ^ .ra: .cfa -40 + ^ x29: .cfa -48 + ^
STACK CFI 1a4e0 .cfa: sp 48 +
STACK CFI 1a4ec .cfa: sp 0 +
STACK CFI INIT 1a4f0 68 .cfa: sp 0 +
STACK CFI 1a4f4 .cfa: sp 64 +
STACK CFI 1a500 .cfa: x29 32 + x19: .cfa -16 + ^ .ra: .cfa -24 + ^ x29: .cfa -32 + ^
STACK CFI 1a544 .cfa: sp 64 +
STACK CFI 1a550 .cfa: sp 0 +
STACK CFI 1a554 .cfa: x29 32 +
STACK CFI INIT 1a558 90 .cfa: sp 0 +
STACK CFI 1a55c .cfa: sp 32 +
STACK CFI 1a564 .cfa: x29 32 + x19: .cfa -8 + ^ x20: .cfa -16 + ^ .ra: .cfa -24 + ^ x29: .cfa -32 + ^
STACK CFI 1a590 .cfa: sp 32 +
STACK CFI 1a598 .cfa: sp 0 +
STACK CFI 1a59c .cfa: x29 32 +
STACK CFI 1a5dc .cfa: sp 32 +
STACK CFI 1a5e4 .cfa: sp 0 +
STACK CFI INIT 1a5e8 ec .cfa: sp 0 +
STACK CFI 1a5ec .cfa: sp 112 +
STACK CFI 1a5fc .cfa: x29 48 + x19: .cfa -8 + ^ x20: .cfa -16 + ^ x21: .cfa -32 + ^ .ra: .cfa -40 + ^ x29: .cfa -48 + ^
STACK CFI 1a6bc .cfa: sp 112 +
STACK CFI 1a6cc .cfa: sp 0 +
STACK CFI 1a6d0 .cfa: x29 48 +
STACK CFI INIT 1a6d4 ec .cfa: sp 0 +
STACK CFI 1a6d8 .cfa: sp 112 +
STACK CFI 1a6e8 .cfa: x29 48 + x19: .cfa -8 + ^ x20: .cfa -16 + ^ x21: .cfa -32 + ^ .ra: .cfa -40 + ^ x29: .cfa -48 + ^
STACK CFI 1a7a8 .cfa: sp 112 +
STACK CFI 1a7b8 .cfa: sp 0 +
STACK CFI 1a7bc .cfa: x29 48 +
STACK CFI INIT 1a7c0 48 .cfa: sp 0 +
STACK CFI 1a7c4 .cfa: sp 32 +
STACK CFI 1a7cc .cfa: x29 32 + x19: .cfa -8 + ^ x20: .cfa -16 + ^ .ra: .cfa -24 + ^ x29: .cfa -32 + ^
STACK CFI 1a7f0 .cfa: sp 32 +
STACK CFI 1a7f8 .cfa: sp 0 +
STACK CFI 1a7fc .cfa: x29 32 +
STACK CFI INIT 1a808 98 .cfa: sp 0 +
STACK CFI 1a80c .cfa: sp 80 +
STACK CFI 1a818 .cfa: x29 32 + x19: .cfa -16 + ^ .ra: .cfa -24 + ^ x29: .cfa -32 + ^
STACK CFI 1a88c .cfa: sp 80 +
STACK CFI 1a898 .cfa: sp 0 +
STACK CFI 1a89c .cfa: x29 32 +
STACK CFI INIT 1a8a0 260 .cfa: sp 0 +
STACK CFI 1a8a4 .cfa: sp 112 +
STACK CFI 1a8bc .cfa: x29 80 + x19: .cfa -8 + ^ x20: .cfa -16 + ^ x21: .cfa -24 + ^ x22: .cfa -32 + ^ x23: .cfa -40 + ^ x24: .cfa -48 + ^ x25: .cfa -64 + ^ .ra: .cfa -72 + ^ x29: .cfa -80 + ^
STACK CFI 1aaa0 .cfa: sp 112 +
STACK CFI 1aab8 .cfa: sp 0 +
STACK CFI 1aabc .cfa: x29 80 +
STACK CFI INIT 1ab00 150 .cfa: sp 0 +
STACK CFI 1ab04 .cfa: sp 48 +
STACK CFI 1ab10 .cfa: x29 48 + x19: .cfa -8 + ^ x20: .cfa -16 + ^ x21: .cfa -24 + ^ x22: .cfa -32 + ^ .ra: .cfa -40 + ^ x29: .cfa -48 + ^
STACK CFI 1ac40 .cfa: sp 48 +
STACK CFI 1ac4c .cfa: sp 0 +
STACK CFI INIT 1ac50 1e0 .cfa: sp 0 +
STACK CFI 1ac54 .cfa: sp 96 +
STACK CFI 1ac68 .cfa: x29 64 + x19: .cfa -8 + ^ x20: .cfa -16 + ^ x21: .cfa -24 + ^ x22: .cfa -32 + ^ x23: .cfa -40 + ^ x24: .cfa -48 + ^ .ra: .cfa -56 + ^ x29: .cfa -64 + ^
STACK CFI 1ade8 .cfa: sp 96 +
STACK CFI 1adfc .cfa: sp 0 +
STACK CFI 1ae00 .cfa: x29 64 +
STACK CFI INIT 1ae30 284 .cfa: sp 0 +
STACK CFI 1ae34 .cfa: sp 112 +
STACK CFI 1ae4c .cfa: x29 80 + x19: .cfa -8 + ^ x20: .cfa -16 + ^ x21: .cfa -24 + ^ x22: .cfa -32 + ^ x23: .cfa -40 + ^ x24: .cfa -48 + ^ x25: .cfa -64 + ^ .ra: .cfa -72 + ^ x29: .cfa -80 + ^
STACK CFI 1b054 .cfa: sp 112 +
STACK CFI 1b06c .cfa: sp 0 +
STACK CFI 1b070 .cfa: x29 80 +
STACK CFI INIT 1b0b4 208 .cfa: sp 0 +
STACK CFI 1b0b8 .cfa: sp 96 +
STACK CFI 1b0cc .cfa: x29 64 + x19: .cfa -8 + ^ x20: .cfa -16 + ^ x21: .cfa -24 + ^ x22: .cfa -32 + ^ x23: .cfa -40 + ^ x24: .cfa -48 + ^ .ra: .cfa -56 + ^ x29: .cfa -64 + ^
STACK CFI 1b274 .cfa: sp 96 +
STACK CFI 1b288 .cfa: sp 0 +
STACK CFI 1b28c .cfa: x29 64 +
STACK CFI INIT 1b2bc 360 .cfa: sp 0 +
STACK CFI 1b2c0 .cfa: sp 160 +
STACK CFI 1b2dc .cfa: x29 96 + x19: .cfa -8 + ^ x20: .cfa -16 + ^ x21: .cfa -24 + ^ x22: .cfa -32 + ^ x23: .cfa -40 + ^ x24: .cfa -48 + ^ x25: .cfa -56 + ^ x26: .cfa -64 + ^ x27: .cfa -72 + ^ x28: .cfa -80 + ^ .ra: .cfa -88 + ^ x29: .cfa -96 + ^
STACK CFI 1b5a8 .cfa: sp 160 +
STACK CFI 1b5c4 .cfa: sp 0 +
STACK CFI 1b5c8 .cfa: x29 96 +
STACK CFI INIT 1b61c 314 .cfa: sp 0 +
STACK CFI 1b620 .cfa: sp 144 +
STACK CFI 1b63c .cfa: x29 96 + x19: .cfa -8 + ^ x20: .cfa -16 + ^ x21: .cfa -24 + ^ x22: .cfa -32 + ^ x23: .cfa -40 + ^ x24: .cfa -48 + ^ x25: .cfa -56 + ^ x26: .cfa -64 + ^ x27: .cfa -72 + ^ x28: .cfa -80 + ^ .ra: .cfa -88 + ^ x29: .cfa -96 + ^
STACK CFI 1b8b8 .cfa: sp 144 +
STACK CFI 1b8d4 .cfa: sp 0 +
STACK CFI 1b8d8 .cfa: x29 96 +
STACK CFI INIT 1b930 290 .cfa: sp 0 +
STACK CFI 1b934 .cfa: sp 128 +
STACK CFI 1b94c .cfa: x29 80 + x19: .cfa -8 + ^ x20: .cfa -16 + ^ x21: .cfa -24 + ^ x22: .cfa -32 + ^ x23: .cfa -40 + ^ x24: .cfa -48 + ^ x25: .cfa -56 + ^ x26: .cfa -64 + ^ .ra: .cfa -72 + ^ x29: .cfa -80 + ^
STACK CFI 1bba0 .cfa: sp 128 +
STACK CFI 1bbb8 .cfa: sp 0 +
STACK CFI 1bbbc .cfa: x29 80 +
STACK CFI INIT 1bbc0 ddc .cfa: sp 0 +
STACK CFI 1bbc4 .cfa: sp 144 +
STACK CFI 1bbe0 .cfa: x29 96 + x19: .cfa -8 + ^ x20: .cfa -16 + ^ x21: .cfa -24 + ^ x22: .cfa -32 + ^ x23: .cfa -40 + ^ x24: .cfa -48 + ^ x25: .cfa -56 + ^ x26: .cfa -64 + ^ x27: .cfa -72 + ^ x28: .cfa -80 + ^ .ra: .cfa -88 + ^ x29: .cfa -96 + ^
STACK CFI 1c874 .cfa: sp 144 +
STACK CFI 1c890 .cfa: sp 0 +
STACK CFI 1c894 .cfa: x29 96 +
STACK CFI INIT 1c99c 1d0 .cfa: sp 0 +
STACK CFI 1c9a0 .cfa: sp 80 +
STACK CFI 1c9b4 .cfa: x29 80 + x19: .cfa -8 + ^ x20: .cfa -16 + ^ x21: .cfa -24 + ^ x22: .cfa -32 + ^ x23: .cfa -40 + ^ x24: .cfa -48 + ^ x25: .cfa -64 + ^ .ra: .cfa -72 + ^ x29: .cfa -80 + ^
STACK CFI 1cb54 .cfa: sp 80 +
STACK CFI 1cb68 .cfa: sp 0 +
STACK CFI INIT 1cb6c 23c .cfa: sp 0 +
STACK CFI 1cb70 .cfa: sp 112 +
STACK CFI 1cb84 .cfa: x29 64 + x19: .cfa -8 + ^ x20: .cfa -16 + ^ x21: .cfa -24 + ^ x22: .cfa -32 + ^ x23: .cfa -40 + ^ x24: .cfa -48 + ^ .ra: .cfa -56 + ^ x29: .cfa -64 + ^
STACK CFI 1cd60 .cfa: sp 112 +
STACK CFI 1cd74 .cfa: sp 0 +
STACK CFI 1cd78 .cfa: x29 64 +
STACK CFI INIT 1cda8 30c .cfa: sp 0 +
STACK CFI 1cdac .cfa: sp 80 +
STACK CFI 1cdc0 .cfa: x29 64 + x19: .cfa -8 + ^ x20: .cfa -16 + ^ x21: .cfa -24 + ^ x22: .cfa -32 + ^ x23: .cfa -40 + ^ x24: .cfa -48 + ^ .ra: .cfa -56 + ^ x29: .cfa -64 + ^
STACK CFI 1cf3c .cfa: sp 80 +
STACK CFI 1cf50 .cfa: sp 0 +
STACK CFI 1cf54 .cfa: x29 64 +
STACK CFI INIT 1d0b4 178 .cfa: sp 0 +
STACK CFI 1d0b8 .cfa: sp 80 +
STACK CFI 1d0cc .cfa: x29 64 + x19: .cfa -8 + ^ x20: .cfa -16 + ^ x21: .cfa -24 + ^ x22: .cfa -32 + ^ x23: .cfa -40 + ^ x24: .cfa -48 + ^ .ra: .cfa -56 + ^ x29: .cfa -64 + ^
STACK CFI 1d210 .cfa: sp 80 +
STACK CFI 1d224 .cfa: sp 0 +
STACK CFI 1d228 .cfa: x29 64 +
STACK CFI INIT 1d22c 178 .cfa: sp 0 +
STACK CFI 1d230 .cfa: sp 80 +
STACK CFI 1d244 .cfa: x29 64 + x19: .cfa -8 + ^ x20: .cfa -16 + ^ x21: .cfa -24 + ^ x22: .cfa -32 + ^ x23: .cfa -40 + ^ x24: .cfa -48 + ^ .ra: .cfa -56 + ^ x29: .cfa -64 + ^
STACK CFI 1d388 .cfa: sp 80 +
STACK CFI 1d39c .cfa: sp 0 +
STACK CFI 1d3a0 .cfa: x29 64 +
STACK CFI INIT 1d3a4 240 .cfa: sp 0 +
STACK CFI 1d3a8 .cfa: sp 96 +
STACK CFI 1d3c0 .cfa: x29 96 + x19: .cfa -8 + ^ x20: .cfa -16 + ^ x21: .cfa -24 + ^ x22: .cfa -32 + ^ x23: .cfa -40 + ^ x24: .cfa -48 + ^ x25: .cfa -56 + ^ x26: .cfa -64 + ^ x27: .cfa -72 + ^ x28: .cfa -80 + ^ .ra: .cfa -88 + ^ x29: .cfa -96 + ^
STACK CFI 1d5c8 .cfa: sp 96 +
STACK CFI 1d5e0 .cfa: sp 0 +
STACK CFI INIT 1e258 154 .cfa: sp 0 +
STACK CFI 1e25c .cfa: sp 96 +
STACK CFI 1e270 .cfa: x29 64 + x19: .cfa -8 + ^ x20: .cfa -16 + ^ x21: .cfa -24 + ^ x22: .cfa -32 + ^ x23: .cfa -48 + ^ .ra: .cfa -56 + ^ x29: .cfa -64 + ^
STACK CFI 1e350 .cfa: sp 96 +
STACK CFI 1e364 .cfa: sp 0 +
STACK CFI 1e368 .cfa: x29 64 +
STACK CFI INIT 1e618 44 .cfa: sp 0 +
STACK CFI 1e61c .cfa: sp 32 +
STACK CFI 1e624 .cfa: x29 32 + x19: .cfa -16 + ^ .ra: .cfa -24 + ^ x29: .cfa -32 + ^
STACK CFI 1e640 .cfa: sp 32 +
STACK CFI 1e648 .cfa: sp 0 +
STACK CFI 1e64c .cfa: x29 32 +
STACK CFI 1e650 .cfa: sp 32 +
STACK CFI 1e658 .cfa: sp 0 +
STACK CFI INIT 1e65c 1d0 .cfa: sp 0 +
STACK CFI 1e660 .cfa: sp 64 +
STACK CFI 1e670 .cfa: x29 64 + x19: .cfa -8 + ^ x20: .cfa -16 + ^ x21: .cfa -24 + ^ x22: .cfa -32 + ^ x23: .cfa -40 + ^ x24: .cfa -48 + ^ .ra: .cfa -56 + ^ x29: .cfa -64 + ^
STACK CFI 1e730 .cfa: sp 64 +
STACK CFI 1e740 .cfa: sp 0 +
STACK CFI 1e744 .cfa: x29 64 +
STACK CFI INIT 1e82c 17c .cfa: sp 0 +
STACK CFI INIT 1e9a8 ac .cfa: sp 0 +
STACK CFI 1e9ac .cfa: sp 64 +
STACK CFI 1e9bc .cfa: x29 64 + x19: .cfa -8 + ^ x20: .cfa -16 + ^ x21: .cfa -24 + ^ x22: .cfa -32 + ^ x23: .cfa -48 + ^ .ra: .cfa -56 + ^ x29: .cfa -64 + ^
STACK CFI 1ea38 .cfa: sp 64 +
STACK CFI 1ea48 .cfa: sp 0 +
STACK CFI 1ea4c .cfa: x29 64 +
STACK CFI INIT 1ea54 110 .cfa: sp 0 +
STACK CFI 1ea58 .cfa: sp 64 +
STACK CFI 1ea68 .cfa: x29 64 + x19: .cfa -8 + ^ x20: .cfa -16 + ^ x21: .cfa -24 + ^ x22: .cfa -32 + ^ x23: .cfa -40 + ^ x24: .cfa -48 + ^ .ra: .cfa -56 + ^ x29: .cfa -64 + ^
STACK CFI 1eb48 .cfa: sp 64 +
STACK CFI 1eb58 .cfa: sp 0 +
STACK CFI 1eb5c .cfa: x29 64 +
STACK CFI INIT 1ef1c a0 .cfa: sp 0 +
STACK CFI 1ef20 .cfa: sp 48 +
STACK CFI 1ef2c .cfa: x29 48 + x19: .cfa -8 + ^ x20: .cfa -16 + ^ x21: .cfa -24 + ^ x22: .cfa -32 + ^ .ra: .cfa -40 + ^ x29: .cfa -48 + ^
STACK CFI 1ef98 .cfa: sp 48 +
STACK CFI 1efa4 .cfa: sp 0 +
STACK CFI 1efa8 .cfa: sp 48 +
STACK CFI 1efb4 .cfa: sp 0 +
STACK CFI 1efb8 .cfa: x29 48 +
STACK CFI INIT 1fc70 158 .cfa: sp 0 +
STACK CFI 1fc74 .cfa: sp 96 +
STACK CFI 1fc88 .cfa: x29 64 + x19: .cfa -8 + ^ x20: .cfa -16 + ^ x21: .cfa -24 + ^ x22: .cfa -32 + ^ x23: .cfa -48 + ^ .ra: .cfa -56 + ^ x29: .cfa -64 + ^
STACK CFI 1fd6c .cfa: sp 96 +
STACK CFI 1fd80 .cfa: sp 0 +
STACK CFI 1fd84 .cfa: x29 64 +
STACK CFI INIT 1fdc8 190 .cfa: sp 0 +
STACK CFI INIT 20a54 1dc .cfa: sp 0 +
STACK CFI 20a58 .cfa: sp 80 +
STACK CFI 20a6c .cfa: x29 80 + x19: .cfa -8 + ^ x20: .cfa -16 + ^ x21: .cfa -24 + ^ x22: .cfa -32 + ^ x23: .cfa -40 + ^ x24: .cfa -48 + ^ x25: .cfa -64 + ^ .ra: .cfa -72 + ^ x29: .cfa -80 + ^
STACK CFI 20c18 .cfa: sp 80 +
STACK CFI 20c2c .cfa: sp 0 +
STACK CFI INIT 22060 124 .cfa: sp 0 +
STACK CFI 22090 .cfa: sp 32 +
STACK CFI 22098 .cfa: x29 32 + x19: .cfa -8 + ^ x20: .cfa -16 + ^ .ra: .cfa -24 + ^ x29: .cfa -32 + ^
STACK CFI 22178 .cfa: sp 32 +
STACK CFI 22180 .cfa: sp 0 +
STACK CFI INIT 228e0 320 .cfa: sp 0 +
STACK CFI 228e4 .cfa: sp 64 +
STACK CFI 228f4 .cfa: x29 64 + x19: .cfa -8 + ^ x20: .cfa -16 + ^ x21: .cfa -24 + ^ x22: .cfa -32 + ^ x23: .cfa -40 + ^ x24: .cfa -48 + ^ .ra: .cfa -56 + ^ x29: .cfa -64 + ^
STACK CFI 22970 .cfa: sp 64 +
STACK CFI 22980 .cfa: sp 0 +
STACK CFI 22984 .cfa: x29 64 +
STACK CFI 22b58 .cfa: sp 64 +
STACK CFI 22b68 .cfa: sp 0 +
STACK CFI 22b6c .cfa: x29 64 +
STACK CFI 22b7c .cfa: sp 64 +
STACK CFI 22b8c .cfa: sp 0 +
STACK CFI 22b90 .cfa: x29 64 +
STACK CFI INIT 22c00 a0 .cfa: sp 0 +
STACK CFI 22c04 .cfa: sp 48 +
STACK CFI 22c10 .cfa: x29 48 + x19: .cfa -8 + ^ x20: .cfa -16 + ^ x21: .cfa -24 + ^ x22: .cfa -32 + ^ .ra: .cfa -40 + ^ x29: .cfa -48 + ^
STACK CFI 22c7c .cfa: sp 48 +
STACK CFI 22c88 .cfa: sp 0 +
STACK CFI 22c8c .cfa: sp 48 +
STACK CFI 22c98 .cfa: sp 0 +
STACK CFI 22c9c .cfa: x29 48 +
STACK CFI INIT 23b50 160 .cfa: sp 0 +
STACK CFI 23b54 .cfa: sp 64 +
STACK CFI 23b64 .cfa: x29 64 + x19: .cfa -8 + ^ x20: .cfa -16 + ^ x21: .cfa -24 + ^ x22: .cfa -32 + ^ x23: .cfa -48 + ^ .ra: .cfa -56 + ^ x29: .cfa -64 + ^
STACK CFI 23c5c .cfa: sp 64 +
STACK CFI 23c6c .cfa: sp 0 +
STACK CFI 23c70 .cfa: x29 64 +
STACK CFI INIT 23cb0 214 .cfa: sp 0 +
STACK CFI 23cb4 .cfa: sp 128 +
STACK CFI 23cd0 .cfa: x29 96 + x19: .cfa -8 + ^ x20: .cfa -16 + ^ x21: .cfa -24 + ^ x22: .cfa -32 + ^ x23: .cfa -40 + ^ x24: .cfa -48 + ^ x25: .cfa -56 + ^ x26: .cfa -64 + ^ x27: .cfa -80 + ^ .ra: .cfa -88 + ^ x29: .cfa -96 + ^
STACK CFI 23e4c .cfa: sp 128 +
STACK CFI 23e68 .cfa: sp 0 +
STACK CFI 23e6c .cfa: x29 96 +
STACK CFI INIT 25b60 290 .cfa: sp 0 +
STACK CFI 25b64 .cfa: sp 16 +
STACK CFI 25b68 .cfa: x29 16 + .ra: .cfa -8 + ^ x29: .cfa -16 + ^
STACK CFI 25bf4 .cfa: sp 16 +
STACK CFI 25bf8 .cfa: sp 0 +
STACK CFI 25bfc .cfa: x29 16 +
STACK CFI 25c4c .cfa: sp 16 +
STACK CFI 25c50 .cfa: sp 0 +
STACK CFI 25c54 .cfa: x29 16 +
STACK CFI 25db8 .cfa: sp 16 +
STACK CFI 25dbc .cfa: sp 0 +
STACK CFI 25dc0 .cfa: x29 16 +
STACK CFI INIT 25df0 158 .cfa: sp 0 +
STACK CFI 25df4 .cfa: sp 112 +
STACK CFI 25e10 .cfa: x29 96 + x19: .cfa -8 + ^ x20: .cfa -16 + ^ x21: .cfa -24 + ^ x22: .cfa -32 + ^ x23: .cfa -40 + ^ x24: .cfa -48 + ^ x25: .cfa -56 + ^ x26: .cfa -64 + ^ x27: .cfa -72 + ^ x28: .cfa -80 + ^ .ra: .cfa -88 + ^ x29: .cfa -96 + ^
STACK CFI 25ef8 .cfa: sp 112 +
STACK CFI 25efc .cfa: x29 96 +
STACK CFI 25f04 .cfa: sp 112 +
STACK CFI 25f20 .cfa: sp 0 +
STACK CFI 25f24 .cfa: x29 96 +
STACK CFI 25f44 .cfa: sp 112 +
STACK CFI INIT 25f48 e54 .cfa: sp 0 +
STACK CFI 25f4c .cfa: sp 192 +
STACK CFI 25f68 .cfa: x29 96 + x19: .cfa -8 + ^ x20: .cfa -16 + ^ x21: .cfa -24 + ^ x22: .cfa -32 + ^ x23: .cfa -40 + ^ x24: .cfa -48 + ^ x25: .cfa -56 + ^ x26: .cfa -64 + ^ x27: .cfa -72 + ^ x28: .cfa -80 + ^ .ra: .cfa -88 + ^ x29: .cfa -96 + ^
STACK CFI 26c84 .cfa: sp 192 +
STACK CFI 26ca0 .cfa: sp 0 +
STACK CFI 26ca4 .cfa: x29 96 +
STACK CFI INIT 26d9c 1068 .cfa: sp 0 +
STACK CFI 26da0 .cfa: sp 288 +
STACK CFI 26dbc .cfa: x29 96 + x19: .cfa -8 + ^ x20: .cfa -16 + ^ x21: .cfa -24 + ^ x22: .cfa -32 + ^ x23: .cfa -40 + ^ x24: .cfa -48 + ^ x25: .cfa -56 + ^ x26: .cfa -64 + ^ x27: .cfa -72 + ^ x28: .cfa -80 + ^ .ra: .cfa -88 + ^ x29: .cfa -96 + ^
STACK CFI 27b4c .cfa: sp 288 +
STACK CFI 27b68 .cfa: sp 0 +
STACK CFI 27b6c .cfa: x29 96 +
STACK CFI INIT 27e04 520 .cfa: sp 0 +
STACK CFI 27e08 .cfa: sp 144 +
STACK CFI 27e24 .cfa: x29 96 + x19: .cfa -8 + ^ x20: .cfa -16 + ^ x21: .cfa -24 + ^ x22: .cfa -32 + ^ x23: .cfa -40 + ^ x24: .cfa -48 + ^ x25: .cfa -56 + ^ x26: .cfa -64 + ^ x27: .cfa -72 + ^ x28: .cfa -80 + ^ .ra: .cfa -88 + ^ x29: .cfa -96 + ^
STACK CFI 28300 .cfa: sp 144 +
STACK CFI 2831c .cfa: sp 0 +
STACK CFI 28320 .cfa: x29 96 +
STACK CFI INIT 28cc4 136c .cfa: sp 0 +
STACK CFI 28cc8 .cfa: sp 224 +
STACK CFI 28ce4 .cfa: x29 96 + x19: .cfa -8 + ^ x20: .cfa -16 + ^ x21: .cfa -24 + ^ x22: .cfa -32 + ^ x23: .cfa -40 + ^ x24: .cfa -48 + ^ x25: .cfa -56 + ^ x26: .cfa -64 + ^ x27: .cfa -72 + ^ x28: .cfa -80 + ^ .ra: .cfa -88 + ^ x29: .cfa -96 + ^
STACK CFI 2a00c .cfa: sp 224 +
STACK CFI 2a028 .cfa: sp 0 +
STACK CFI 2a02c .cfa: x29 96 +
STACK CFI INIT 2a030 1b8 .cfa: sp 0 +
STACK CFI INIT 11030 220 .cfa: sp 0 +
STACK CFI 11034 .cfa: sp 80 +
STACK CFI 11048 .cfa: x29 80 + x19: .cfa -8 + ^ x20: .cfa -16 + ^ x21: .cfa -24 + ^ x22: .cfa -32 + ^ x23: .cfa -40 + ^ x24: .cfa -48 + ^ x25: .cfa -56 + ^ x28: .cfa -64 + ^ .ra: .cfa -72 + ^ x29: .cfa -80 + ^
STACK CFI 111ac .cfa: sp 80 +
STACK CFI 111c0 .cfa: sp 0 +
STACK CFI 111c4 .cfa: x29 80 +
STACK CFI INIT 11250 484 .cfa: sp 0 +
STACK CFI 11254 .cfa: sp 224 +
STACK CFI 11270 .cfa: x29 96 + x19: .cfa -8 + ^ x20: .cfa -16 + ^ x21: .cfa -24 + ^ x22: .cfa -32 + ^ x23: .cfa -40 + ^ x24: .cfa -48 + ^ x25: .cfa -56 + ^ x26: .cfa -64 + ^ x27: .cfa -72 + ^ x28: .cfa -80 + ^ .ra: .cfa -88 + ^ x29: .cfa -96 + ^
STACK CFI 114e0 .cfa: sp 224 +
STACK CFI 114fc .cfa: sp 0 +
STACK CFI 11500 .cfa: x29 96 +
STACK CFI 115cc .cfa: sp 224 +
STACK CFI 115e8 .cfa: sp 0 +
STACK CFI 115ec .cfa: x29 96 +
STACK CFI INIT 116ec 45c .cfa: sp 0 +
STACK CFI 116f0 .cfa: sp 224 +
STACK CFI 1170c .cfa: x29 96 + x19: .cfa -8 + ^ x20: .cfa -16 + ^ x21: .cfa -24 + ^ x22: .cfa -32 + ^ x23: .cfa -40 + ^ x24: .cfa -48 + ^ x25: .cfa -56 + ^ x26: .cfa -64 + ^ x27: .cfa -72 + ^ x28: .cfa -80 + ^ .ra: .cfa -88 + ^ x29: .cfa -96 + ^
STACK CFI 11a30 .cfa: sp 224 +
STACK CFI 11a4c .cfa: sp 0 +
STACK CFI 11a50 .cfa: x29 96 +
STACK CFI INIT 130bc 34c .cfa: sp 0 +
STACK CFI 130c0 .cfa: sp 208 +
STACK CFI 130d4 .cfa: x29 64 + x19: .cfa -8 + ^ x20: .cfa -16 + ^ x21: .cfa -24 + ^ x22: .cfa -32 + ^ x23: .cfa -40 + ^ x24: .cfa -48 + ^ .ra: .cfa -56 + ^ x29: .cfa -64 + ^
STACK CFI 132e4 .cfa: sp 208 +
STACK CFI 132f8 .cfa: sp 0 +
STACK CFI 132fc .cfa: x29 64 +
STACK CFI INIT 13458 74 .cfa: sp 0 +
STACK CFI 1345c .cfa: sp 48 +
STACK CFI 13468 .cfa: x29 32 + x19: .cfa -8 + ^ x20: .cfa -16 + ^ .ra: .cfa -24 + ^ x29: .cfa -32 + ^
STACK CFI 134b4 .cfa: sp 48 +
STACK CFI 134c0 .cfa: sp 0 +
STACK CFI 134c4 .cfa: x29 32 +
STACK CFI INIT 1354c 154 .cfa: sp 0 +
STACK CFI 13550 .cfa: sp 384 +
STACK CFI 13564 .cfa: x29 64 + x19: .cfa -8 + ^ x20: .cfa -16 + ^ x21: .cfa -24 + ^ x22: .cfa -32 + ^ x23: .cfa -40 + ^ x28: .cfa -48 + ^ .ra: .cfa -56 + ^ x29: .cfa -64 + ^
STACK CFI 13648 .cfa: sp 384 +
STACK CFI 1365c .cfa: sp 0 +
STACK CFI 13660 .cfa: x29 64 +
STACK CFI INIT 136d4 12c .cfa: sp 0 +
STACK CFI 136d8 .cfa: sp 80 +
STACK CFI 136ec .cfa: x29 80 + x19: .cfa -8 + ^ x20: .cfa -16 + ^ x21: .cfa -24 + ^ x22: .cfa -32 + ^ x23: .cfa -40 + ^ x24: .cfa -48 + ^ x25: .cfa -56 + ^ x26: .cfa -64 + ^ .ra: .cfa -72 + ^ x29: .cfa -80 + ^
STACK CFI 137b4 .cfa: sp 80 +
STACK CFI 137c8 .cfa: sp 0 +
STACK CFI 137cc .cfa: x29 80 +
STACK CFI INIT 138a4 1a4 .cfa: sp 0 +
STACK CFI 138a8 .cfa: sp 112 +
STACK CFI 138c0 .cfa: x29 80 + x19: .cfa -8 + ^ x20: .cfa -16 + ^ x21: .cfa -24 + ^ x22: .cfa -32 + ^ x23: .cfa -40 + ^ x24: .cfa -48 + ^ x25: .cfa -56 + ^ x26: .cfa -64 + ^ .ra: .cfa -72 + ^ x29: .cfa -80 + ^
STACK CFI 139b0 .cfa: sp 112 +
STACK CFI 139c8 .cfa: sp 0 +
STACK CFI 139cc .cfa: x29 80 +
STACK CFI INIT 13a48 1dc .cfa: sp 0 +
STACK CFI 13a4c .cfa: sp 128 +
STACK CFI 13a68 .cfa: x29 96 + x19: .cfa -8 + ^ x20: .cfa -16 + ^ x21: .cfa -24 + ^ x22: .cfa -32 + ^ x23: .cfa -40 + ^ x24: .cfa -48 + ^ x25: .cfa -56 + ^ x26: .cfa -64 + ^ x27: .cfa -80 + ^ .ra: .cfa -88 + ^ x29: .cfa -96 + ^
STACK CFI 13bd4 .cfa: sp 128 +
STACK CFI 13bf0 .cfa: sp 0 +
STACK CFI 13bf4 .cfa: x29 96 +
STACK CFI INIT 13c38 50 .cfa: sp 0 +
STACK CFI 13c3c .cfa: sp 32 +
STACK CFI 13c44 .cfa: x29 32 + x19: .cfa -8 + ^ x20: .cfa -16 + ^ .ra: .cfa -24 + ^ x29: .cfa -32 + ^
STACK CFI INIT 13cec 178 .cfa: sp 0 +
STACK CFI 13cf0 .cfa: sp 80 +
STACK CFI 13d04 .cfa: x29 80 + x19: .cfa -8 + ^ x20: .cfa -16 + ^ x21: .cfa -24 + ^ x22: .cfa -32 + ^ x23: .cfa -40 + ^ x24: .cfa -48 + ^ x25: .cfa -64 + ^ .ra: .cfa -72 + ^ x29: .cfa -80 + ^
STACK CFI 13e30 .cfa: sp 80 +
STACK CFI 13e44 .cfa: sp 0 +
STACK CFI 13e48 .cfa: x29 80 +
STACK CFI INIT 13fac 224 .cfa: sp 0 +
STACK CFI 13fb0 .cfa: sp 128 +
STACK CFI 13fc8 .cfa: x29 80 + x19: .cfa -8 + ^ x20: .cfa -16 + ^ x21: .cfa -24 + ^ x22: .cfa -32 + ^ x23: .cfa -40 + ^ x24: .cfa -48 + ^ x25: .cfa -64 + ^ .ra: .cfa -72 + ^ x29: .cfa -80 + ^
STACK CFI 14164 .cfa: sp 128 +
STACK CFI 1417c .cfa: sp 0 +
STACK CFI 14180 .cfa: x29 80 +
STACK CFI INIT 14d84 e0 .cfa: sp 0 +
STACK CFI 14d88 .cfa: sp 64 +
STACK CFI 14d94 .cfa: x29 32 + x19: .cfa -8 + ^ x20: .cfa -16 + ^ .ra: .cfa -24 + ^ x29: .cfa -32 + ^
STACK CFI 14e24 .cfa: sp 64 +
STACK CFI 14e30 .cfa: sp 0 +
STACK CFI 14e34 .cfa: x29 32 +
STACK CFI INIT 151cc 620 .cfa: sp 0 +
STACK CFI 151d0 .cfa: sp 288 +
STACK CFI 151ec .cfa: x29 96 + x19: .cfa -8 + ^ x20: .cfa -16 + ^ x21: .cfa -24 + ^ x22: .cfa -32 + ^ x23: .cfa -40 + ^ x24: .cfa -48 + ^ x25: .cfa -56 + ^ x26: .cfa -64 + ^ x27: .cfa -72 + ^ x28: .cfa -80 + ^ .ra: .cfa -88 + ^ x29: .cfa -96 + ^
STACK CFI 15610 .cfa: sp 288 +
STACK CFI 1562c .cfa: sp 0 +
STACK CFI 15630 .cfa: x29 96 +
STACK CFI INIT 157f0 288 .cfa: sp 0 +
STACK CFI 157f4 .cfa: sp 304 +
STACK CFI 1580c .cfa: x29 80 + x19: .cfa -8 + ^ x20: .cfa -16 + ^ x21: .cfa -24 + ^ x22: .cfa -32 + ^ x23: .cfa -40 + ^ x24: .cfa -48 + ^ x28: .cfa -64 + ^ .ra: .cfa -72 + ^ x29: .cfa -80 + ^
STACK CFI 159b8 .cfa: sp 304 +
STACK CFI 159d0 .cfa: sp 0 +
STACK CFI 159d4 .cfa: x29 80 +
STACK CFI INIT 15a78 3e0 .cfa: sp 0 +
STACK CFI 15a7c .cfa: sp 144 +
STACK CFI 15a98 .cfa: x29 80 + x19: .cfa -8 + ^ x20: .cfa -16 + ^ x21: .cfa -24 + ^ x22: .cfa -32 + ^ x23: .cfa -40 + ^ x24: .cfa -48 + ^ x25: .cfa -64 + ^ .ra: .cfa -72 + ^ x29: .cfa -80 + ^ v8: .cfa -88 + ^ v9: .cfa -96 + ^
STACK CFI 15e04 .cfa: sp 144 +
STACK CFI 15e20 .cfa: sp 0 +
STACK CFI 15e24 .cfa: x29 80 +
STACK CFI INIT 15e58 474 .cfa: sp 0 +
STACK CFI 15e5c .cfa: sp 288 +
STACK CFI 15e74 .cfa: x29 80 + x19: .cfa -8 + ^ x20: .cfa -16 + ^ x21: .cfa -24 + ^ x22: .cfa -32 + ^ x23: .cfa -40 + ^ x24: .cfa -48 + ^ x25: .cfa -56 + ^ x28: .cfa -64 + ^ .ra: .cfa -72 + ^ x29: .cfa -80 + ^
STACK CFI 160f0 .cfa: sp 288 +
STACK CFI 16108 .cfa: sp 0 +
STACK CFI 1610c .cfa: x29 80 +
STACK CFI INIT 162d0 164 .cfa: sp 0 +
STACK CFI 162d4 .cfa: sp 112 +
STACK CFI 162e4 .cfa: x29 48 + x19: .cfa -8 + ^ x20: .cfa -16 + ^ x21: .cfa -24 + ^ x22: .cfa -32 + ^ .ra: .cfa -40 + ^ x29: .cfa -48 + ^
STACK CFI 163d0 .cfa: sp 112 +
STACK CFI 163e0 .cfa: sp 0 +
STACK CFI 163e4 .cfa: x29 48 +
STACK CFI INIT 16700 1a4 .cfa: sp 0 +
STACK CFI 16704 .cfa: sp 112 +
STACK CFI 16718 .cfa: x29 64 + x19: .cfa -8 + ^ x20: .cfa -16 + ^ x21: .cfa -24 + ^ x22: .cfa -32 + ^ x23: .cfa -48 + ^ .ra: .cfa -56 + ^ x29: .cfa -64 + ^
STACK CFI 16840 .cfa: sp 112 +
STACK CFI 16854 .cfa: sp 0 +
STACK CFI 16858 .cfa: x29 64 +
STACK CFI INIT 16b94 1b0 .cfa: sp 0 +
STACK CFI 16b98 .cfa: sp 112 +
STACK CFI 16bac .cfa: x29 64 + x19: .cfa -8 + ^ x20: .cfa -16 + ^ x21: .cfa -24 + ^ x22: .cfa -32 + ^ x23: .cfa -48 + ^ .ra: .cfa -56 + ^ x29: .cfa -64 + ^
STACK CFI 16ce0 .cfa: sp 112 +
STACK CFI 16cf4 .cfa: sp 0 +
STACK CFI 16cf8 .cfa: x29 64 +
STACK CFI INIT 17030 1c .cfa: sp 0 +
STACK CFI 17034 .cfa: sp 16 +
STACK CFI 17038 .cfa: x29 16 + .ra: .cfa -8 + ^ x29: .cfa -16 + ^
STACK CFI 17040 .cfa: sp 16 +
STACK CFI 17044 .cfa: sp 0 +
STACK CFI 17048 .cfa: x29 16 +
STACK CFI INIT 1704c c4 .cfa: sp 0 +
STACK CFI 17050 .cfa: sp 48 +
STACK CFI 1705c .cfa: x29 48 + x19: .cfa -8 + ^ x20: .cfa -16 + ^ x21: .cfa -32 + ^ .ra: .cfa -40 + ^ x29: .cfa -48 + ^
STACK CFI 170c8 .cfa: sp 48 +
STACK CFI 170d4 .cfa: sp 0 +
STACK CFI 170d8 .cfa: x29 48 +
STACK CFI 170fc .cfa: sp 48 +
STACK CFI 17108 .cfa: sp 0 +
STACK CFI 1710c .cfa: x29 48 +
STACK CFI INIT 17110 84 .cfa: sp 0 +
STACK CFI 17114 .cfa: sp 48 +
STACK CFI 17120 .cfa: x29 48 + x19: .cfa -8 + ^ x20: .cfa -16 + ^ x21: .cfa -32 + ^ .ra: .cfa -40 + ^ x29: .cfa -48 + ^
STACK CFI 17140 .cfa: sp 48 +
STACK CFI 1714c .cfa: sp 0 +
STACK CFI 17150 .cfa: x29 48 +
STACK CFI 17170 .cfa: sp 48 +
STACK CFI 1717c .cfa: sp 0 +
STACK CFI 17180 .cfa: sp 48 +
STACK CFI 1718c .cfa: sp 0 +
STACK CFI 17190 .cfa: x29 48 +
STACK CFI INIT 17194 f8 .cfa: sp 0 +
STACK CFI 17198 .cfa: sp 48 +
STACK CFI 171a4 .cfa: x29 48 + x19: .cfa -8 + ^ x20: .cfa -16 + ^ x21: .cfa -32 + ^ .ra: .cfa -40 + ^ x29: .cfa -48 + ^
STACK CFI 17210 .cfa: sp 48 +
STACK CFI 1721c .cfa: sp 0 +
STACK CFI 17220 .cfa: x29 48 +
STACK CFI INIT 17330 118 .cfa: sp 0 +
STACK CFI 17334 .cfa: sp 48 +
STACK CFI 17340 .cfa: x29 48 + x19: .cfa -8 + ^ x20: .cfa -16 + ^ x21: .cfa -32 + ^ .ra: .cfa -40 + ^ x29: .cfa -48 + ^
STACK CFI 173c4 .cfa: sp 48 +
STACK CFI 173d0 .cfa: sp 0 +
STACK CFI 173d4 .cfa: x29 48 +
STACK CFI 1741c .cfa: sp 48 +
STACK CFI 17428 .cfa: sp 0 +
STACK CFI 1742c .cfa: x29 48 +
STACK CFI INIT 17474 164 .cfa: sp 0 +
STACK CFI 17478 .cfa: sp 112 +
STACK CFI 17488 .cfa: x29 48 + x19: .cfa -8 + ^ x20: .cfa -16 + ^ x21: .cfa -24 + ^ x22: .cfa -32 + ^ .ra: .cfa -40 + ^ x29: .cfa -48 + ^
STACK CFI 17574 .cfa: sp 112 +
STACK CFI 17584 .cfa: sp 0 +
STACK CFI 17588 .cfa: x29 48 +
STACK CFI INIT 178bc 120 .cfa: sp 0 +
STACK CFI 178c0 .cfa: sp 48 +
STACK CFI 178cc .cfa: x29 48 + x19: .cfa -8 + ^ x20: .cfa -16 + ^ x21: .cfa -32 + ^ .ra: .cfa -40 + ^ x29: .cfa -48 + ^
STACK CFI 17958 .cfa: sp 48 +
STACK CFI 17964 .cfa: sp 0 +
STACK CFI 17968 .cfa: x29 48 +
STACK CFI 179b0 .cfa: sp 48 +
STACK CFI 179bc .cfa: sp 0 +
STACK CFI 179c0 .cfa: x29 48 +
STACK CFI INIT 17b30 24c .cfa: sp 0 +
STACK CFI 17b34 .cfa: sp 224 +
STACK CFI 17b4c .cfa: x29 80 + x19: .cfa -8 + ^ x20: .cfa -16 + ^ x21: .cfa -24 + ^ x22: .cfa -32 + ^ x23: .cfa -40 + ^ x24: .cfa -48 + ^ x25: .cfa -64 + ^ .ra: .cfa -72 + ^ x29: .cfa -80 + ^
STACK CFI 17cbc .cfa: sp 224 +
STACK CFI 17cd4 .cfa: sp 0 +
STACK CFI 17cd8 .cfa: x29 80 +
STACK CFI INIT 17dd0 118 .cfa: sp 0 +
STACK CFI 17dd4 .cfa: sp 48 +
STACK CFI 17de0 .cfa: x29 48 + x19: .cfa -8 + ^ x20: .cfa -16 + ^ x21: .cfa -32 + ^ .ra: .cfa -40 + ^ x29: .cfa -48 + ^
STACK CFI 17e64 .cfa: sp 48 +
STACK CFI 17e70 .cfa: sp 0 +
STACK CFI 17e74 .cfa: x29 48 +
STACK CFI 17ebc .cfa: sp 48 +
STACK CFI 17ec8 .cfa: sp 0 +
STACK CFI 17ecc .cfa: x29 48 +
STACK CFI INIT 180bc 118 .cfa: sp 0 +
STACK CFI 180c0 .cfa: sp 48 +
STACK CFI 180cc .cfa: x29 48 + x19: .cfa -8 + ^ x20: .cfa -16 + ^ x21: .cfa -32 + ^ .ra: .cfa -40 + ^ x29: .cfa -48 + ^
STACK CFI 18150 .cfa: sp 48 +
STACK CFI 1815c .cfa: sp 0 +
STACK CFI 18160 .cfa: x29 48 +
STACK CFI 181a8 .cfa: sp 48 +
STACK CFI 181b4 .cfa: sp 0 +
STACK CFI 181b8 .cfa: x29 48 +
STACK CFI INIT 182d0 94 .cfa: sp 0 +
STACK CFI 182d4 .cfa: sp 48 +
STACK CFI 182e0 .cfa: x29 48 + x19: .cfa -8 + ^ x20: .cfa -16 + ^ x21: .cfa -24 + ^ x22: .cfa -32 + ^ .ra: .cfa -40 + ^ x29: .cfa -48 + ^
STACK CFI 182e8 .cfa: sp 48 +
STACK CFI 182f4 .cfa: sp 0 +
STACK CFI 182f8 .cfa: x29 48 +
STACK CFI 1831c .cfa: sp 48 +
STACK CFI 18328 .cfa: sp 0 +
STACK CFI 1832c .cfa: x29 48 +
STACK CFI 18350 .cfa: sp 48 +
STACK CFI 1835c .cfa: sp 0 +
STACK CFI 18360 .cfa: x29 48 +
STACK CFI INIT 18364 48 .cfa: sp 0 +
STACK CFI 18368 .cfa: sp 32 +
STACK CFI 18370 .cfa: x29 32 + x19: .cfa -8 + ^ x20: .cfa -16 + ^ .ra: .cfa -24 + ^ x29: .cfa -32 + ^
STACK CFI 18378 .cfa: sp 32 +
STACK CFI 18380 .cfa: sp 0 +
STACK CFI 18384 .cfa: x29 32 +
STACK CFI INIT 11b48 1364 .cfa: sp 0 +
STACK CFI 11b4c .cfa: sp 80 +
STACK CFI 11b60 .cfa: x29 80 + x19: .cfa -8 + ^ x20: .cfa -16 + ^ x21: .cfa -24 + ^ x22: .cfa -32 + ^ x23: .cfa -40 + ^ x24: .cfa -48 + ^ x25: .cfa -56 + ^ x28: .cfa -64 + ^ .ra: .cfa -72 + ^ x29: .cfa -80 + ^
STACK CFI 12c10 .cfa: sp 80 +
STACK CFI 12c24 .cfa: sp 0 +
STACK CFI 12c28 .cfa: x29 80 +
STACK CFI INIT 18718 294 .cfa: sp 0 +
STACK CFI 1871c .cfa: sp 240 +
STACK CFI 18734 .cfa: x29 80 + x19: .cfa -8 + ^ x20: .cfa -16 + ^ x21: .cfa -24 + ^ x22: .cfa -32 + ^ x23: .cfa -40 + ^ x24: .cfa -48 + ^ x25: .cfa -64 + ^ .ra: .cfa -72 + ^ x29: .cfa -80 + ^
STACK CFI 188d4 .cfa: sp 240 +
STACK CFI 188ec .cfa: sp 0 +
STACK CFI 188f0 .cfa: x29 80 +
STACK CFI INIT 18a28 50 .cfa: sp 0 +
STACK CFI 18a2c .cfa: sp 32 +
STACK CFI 18a34 .cfa: x29 32 + x19: .cfa -8 + ^ x20: .cfa -16 + ^ .ra: .cfa -24 + ^ x29: .cfa -32 + ^
STACK CFI INIT 18aa4 7c0 .cfa: sp 0 +
STACK CFI 18aa8 .cfa: sp 320 +
STACK CFI 18ac4 .cfa: x29 96 + x19: .cfa -8 + ^ x20: .cfa -16 + ^ x21: .cfa -24 + ^ x22: .cfa -32 + ^ x23: .cfa -40 + ^ x24: .cfa -48 + ^ x25: .cfa -56 + ^ x26: .cfa -64 + ^ x27: .cfa -72 + ^ x28: .cfa -80 + ^ .ra: .cfa -88 + ^ x29: .cfa -96 + ^
STACK CFI 19114 .cfa: sp 320 +
STACK CFI 19130 .cfa: sp 0 +
STACK CFI 19134 .cfa: x29 96 +
STACK CFI INIT 1d5e4 c74 .cfa: sp 0 +
STACK CFI 1d5e8 .cfa: sp 96 +
STACK CFI 1d600 .cfa: x29 96 + x19: .cfa -8 + ^ x20: .cfa -16 + ^ x21: .cfa -24 + ^ x22: .cfa -32 + ^ x23: .cfa -40 + ^ x24: .cfa -48 + ^ x25: .cfa -56 + ^ x26: .cfa -64 + ^ x27: .cfa -72 + ^ x28: .cfa -80 + ^ .ra: .cfa -88 + ^ x29: .cfa -96 + ^
STACK CFI 1e078 .cfa: sp 96 +
STACK CFI 1e090 .cfa: sp 0 +
STACK CFI 1e094 .cfa: x29 96 +
STACK CFI INIT 1e3ac 26c .cfa: sp 0 +
STACK CFI 1e3b0 .cfa: sp 128 +
STACK CFI 1e3c0 .cfa: x29 48 + x19: .cfa -8 + ^ x20: .cfa -16 + ^ x21: .cfa -24 + ^ x22: .cfa -32 + ^ .ra: .cfa -40 + ^ x29: .cfa -48 + ^
STACK CFI 1e564 .cfa: sp 128 +
STACK CFI 1e574 .cfa: sp 0 +
STACK CFI 1e578 .cfa: x29 48 +
STACK CFI INIT 1eb64 3b8 .cfa: sp 0 +
STACK CFI 1eb68 .cfa: sp 96 +
STACK CFI 1eb80 .cfa: x29 96 + x19: .cfa -8 + ^ x20: .cfa -16 + ^ x21: .cfa -24 + ^ x22: .cfa -32 + ^ x23: .cfa -40 + ^ x24: .cfa -48 + ^ x25: .cfa -56 + ^ x26: .cfa -64 + ^ x27: .cfa -72 + ^ x28: .cfa -80 + ^ .ra: .cfa -88 + ^ x29: .cfa -96 + ^
STACK CFI 1eebc .cfa: sp 96 +
STACK CFI 1eed4 .cfa: sp 0 +
STACK CFI 1eed8 .cfa: x29 96 +
STACK CFI INIT 1efbc cb4 .cfa: sp 0 +
STACK CFI 1efc0 .cfa: sp 96 +
STACK CFI 1efd8 .cfa: x29 96 + x19: .cfa -8 + ^ x20: .cfa -16 + ^ x21: .cfa -24 + ^ x22: .cfa -32 + ^ x23: .cfa -40 + ^ x24: .cfa -48 + ^ x25: .cfa -56 + ^ x26: .cfa -64 + ^ x27: .cfa -72 + ^ x28: .cfa -80 + ^ .ra: .cfa -88 + ^ x29: .cfa -96 + ^
STACK CFI 1fa80 .cfa: sp 96 +
STACK CFI 1fa98 .cfa: sp 0 +
STACK CFI 1fa9c .cfa: x29 96 +
STACK CFI INIT 1ff58 afc .cfa: sp 0 +
STACK CFI 1ff5c .cfa: sp 96 +
STACK CFI 1ff74 .cfa: x29 96 + x19: .cfa -8 + ^ x20: .cfa -16 + ^ x21: .cfa -24 + ^ x22: .cfa -32 + ^ x23: .cfa -40 + ^ x24: .cfa -48 + ^ x25: .cfa -56 + ^ x26: .cfa -64 + ^ x27: .cfa -72 + ^ x28: .cfa -80 + ^ .ra: .cfa -88 + ^ x29: .cfa -96 + ^
STACK CFI 209c8 .cfa: sp 96 +
STACK CFI 209e0 .cfa: sp 0 +
STACK CFI 209e4 .cfa: x29 96 +
STACK CFI INIT 20c30 1430 .cfa: sp 0 +
STACK CFI 20c34 .cfa: sp 96 +
STACK CFI 20c4c .cfa: x29 96 + x19: .cfa -8 + ^ x20: .cfa -16 + ^ x21: .cfa -24 + ^ x22: .cfa -32 + ^ x23: .cfa -40 + ^ x24: .cfa -48 + ^ x25: .cfa -56 + ^ x26: .cfa -64 + ^ x27: .cfa -72 + ^ x28: .cfa -80 + ^ .ra: .cfa -88 + ^ x29: .cfa -96 + ^
STACK CFI 21ee8 .cfa: sp 96 +
STACK CFI 21f00 .cfa: sp 0 +
STACK CFI 21f04 .cfa: x29 96 +
STACK CFI INIT 22184 75c .cfa: sp 0 +
STACK CFI 22188 .cfa: sp 368 +
STACK CFI 221a4 .cfa: x29 96 + x19: .cfa -8 + ^ x20: .cfa -16 + ^ x21: .cfa -24 + ^ x22: .cfa -32 + ^ x23: .cfa -40 + ^ x24: .cfa -48 + ^ x25: .cfa -56 + ^ x26: .cfa -64 + ^ x27: .cfa -72 + ^ x28: .cfa -80 + ^ .ra: .cfa -88 + ^ x29: .cfa -96 + ^
STACK CFI 22258 .cfa: sp 368 +
STACK CFI 22274 .cfa: sp 0 +
STACK CFI 22278 .cfa: x29 96 +
STACK CFI 222cc .cfa: sp 368 +
STACK CFI 222e8 .cfa: sp 0 +
STACK CFI 222ec .cfa: x29 96 +
STACK CFI INIT 22ca0 eb0 .cfa: sp 0 +
STACK CFI 22ca4 .cfa: sp 96 +
STACK CFI 22cbc .cfa: x29 96 + x19: .cfa -8 + ^ x20: .cfa -16 + ^ x21: .cfa -24 + ^ x22: .cfa -32 + ^ x23: .cfa -40 + ^ x24: .cfa -48 + ^ x25: .cfa -56 + ^ x26: .cfa -64 + ^ x27: .cfa -72 + ^ x28: .cfa -80 + ^ .ra: .cfa -88 + ^ x29: .cfa -96 + ^
STACK CFI 23964 .cfa: sp 96 +
STACK CFI 2397c .cfa: sp 0 +
STACK CFI 23980 .cfa: x29 96 +
STACK CFI INIT 23ec4 1c9c .cfa: sp 0 +
STACK CFI 23ec8 .cfa: sp 112 +
STACK CFI 23ee4 .cfa: x29 96 + x19: .cfa -8 + ^ x20: .cfa -16 + ^ x21: .cfa -24 + ^ x22: .cfa -32 + ^ x23: .cfa -40 + ^ x24: .cfa -48 + ^ x25: .cfa -56 + ^ x26: .cfa -64 + ^ x27: .cfa -72 + ^ x28: .cfa -80 + ^ .ra: .cfa -88 + ^ x29: .cfa -96 + ^ v8: .cfa -112 + ^
STACK CFI 242cc .cfa: sp 112 +
STACK CFI 242e8 .cfa: sp 0 +
STACK CFI 242ec .cfa: x29 96 +
STACK CFI INIT 28324 9a0 .cfa: sp 0 +
STACK CFI 28328 .cfa: sp 144 +
STACK CFI 28340 .cfa: x29 80 + x19: .cfa -8 + ^ x20: .cfa -16 + ^ x21: .cfa -24 + ^ x22: .cfa -32 + ^ x23: .cfa -40 + ^ x24: .cfa -48 + ^ x25: .cfa -64 + ^ .ra: .cfa -72 + ^ x29: .cfa -80 + ^
STACK CFI 28c40 .cfa: sp 144 +
STACK CFI 28c58 .cfa: sp 0 +
STACK CFI 28c5c .cfa: x29 80 +
STACK CFI INIT 2a1e8 57c .cfa: sp 0 +
STACK CFI 2a1ec .cfa: sp 96 +
STACK CFI 2a204 .cfa: x29 96 + x19: .cfa -8 + ^ x20: .cfa -16 + ^ x21: .cfa -24 + ^ x22: .cfa -32 + ^ x23: .cfa -40 + ^ x24: .cfa -48 + ^ x25: .cfa -56 + ^ x26: .cfa -64 + ^ x27: .cfa -72 + ^ x28: .cfa -80 + ^ .ra: .cfa -88 + ^ x29: .cfa -96 + ^
STACK CFI 2a6c8 .cfa: sp 96 +
STACK CFI 2a6e0 .cfa: sp 0 +
STACK CFI 2a6e4 .cfa: x29 96 +
STACK CFI INIT 2a764 67c .cfa: sp 0 +
STACK CFI 2a768 .cfa: sp 96 +
STACK CFI 2a780 .cfa: x29 96 + x19: .cfa -8 + ^ x20: .cfa -16 + ^ x21: .cfa -24 + ^ x22: .cfa -32 + ^ x23: .cfa -40 + ^ x24: .cfa -48 + ^ x25: .cfa -56 + ^ x26: .cfa -64 + ^ x27: .cfa -72 + ^ x28: .cfa -80 + ^ .ra: .cfa -88 + ^ x29: .cfa -96 + ^
STACK CFI 2ad44 .cfa: sp 96 +
STACK CFI 2ad5c .cfa: sp 0 +
STACK CFI 2ad60 .cfa: x29 96 +
