MODULE Linux arm64 E7F6D7C75740761F4783ABF47B3829E40 jecket.gauntlets_position_fix.android64.so
INFO CODE_ID C7D7F6E740571F764783ABF47B3829E43EBBEFA2
INFO GENERATOR mozilla/dump_syms 2.3.4
PUBLIC 30c0 0 __on_dlclose
PUBLIC 30d0 0 __emutls_unregister_key
PUBLIC 30d8 0 __on_dlclose_late
PUBLIC 30e0 0 __atexit_handler_wrapper
PUBLIC 30f4 0 atexit
PUBLIC 3110 0 pthread_atfork
PUBLIC 3120 0 __aarch64_ldadd8_relax
PUBLIC 3150 0 init_have_lse_atomics
PUBLIC 31e8 0 __init_cpu_features_constructor
PUBLIC 3784 0 __init_cpu_features
PUBLIC 3810 0 __aarch64_ldadd8_acq_rel
PUBLIC 3840 0 __cxx_global_var_init
PUBLIC 4414 0 geode::modifier::ModifyBase<geode::modifier::ModifyDerive<GauntletSelectLayerFix, GauntletSelectLayer> >::~ModifyBase()
PUBLIC 442c 0 geode::modifier::ModifyDerive<GauntletSelectLayerFix, GauntletSelectLayer>::apply()
PUBLIC 4a38 0 std::__ndk1::shared_ptr<geode::Hook>::~shared_ptr[abi:ne180000]()
PUBLIC 4a88 0 geode::impl::ResultData<geode::Hook*, std::__ndk1::basic_string<char, std::__ndk1::char_traits<char>, std::__ndk1::allocator<char> > >::~ResultData()
PUBLIC 4afc 0 std::__ndk1::vector<std::__ndk1::basic_string<char, std::__ndk1::char_traits<char>, std::__ndk1::allocator<char> >, std::__ndk1::allocator<std::__ndk1::basic_string<char, std::__ndk1::char_traits<char>, std::__ndk1::allocator<char> > > >::~vector[abi:ne180000]()
PUBLIC 4b78 0 geode::modifier::ModifyBase<geode::modifier::ModifyDerive<GauntletSelectLayerFix, GauntletSelectLayer> >::apply()
PUBLIC 4b7c 0 __clang_call_terminate
PUBLIC 4b8c 0 _ZN5geode15UnwrapExceptionC2IRPNS_4HookEQsr4implE18IsStringStreamableIT_EEENS_4impl5OkTagEOS5_
PUBLIC 5288 0 std::__ndk1::__throw_bad_variant_access[abi:ne180000]()
PUBLIC m 52bc 0 std::__ndk1::basic_stringstream<char, std::__ndk1::char_traits<char>, std::__ndk1::allocator<char> >::~basic_stringstream()
PUBLIC 533c 0 geode::UnwrapException::~UnwrapException()
PUBLIC 5360 0 std::__ndk1::basic_string<char, std::__ndk1::char_traits<char>, std::__ndk1::allocator<char> >::__throw_length_error[abi:ne180000]() const
PUBLIC 5374 0 std::__ndk1::__throw_length_error[abi:ne180000](char const*)
PUBLIC 53c4 0 std::length_error::length_error[abi:ne180000](char const*)
PUBLIC 53f4 0 std::__throw_bad_array_new_length([abi:ne180000], void)
PUBLIC 5428 0 std::__ndk1::basic_string<char, std::__ndk1::char_traits<char>, std::__ndk1::allocator<char> >::__init_copy_ctor_external(char const*, unsigned long)
PUBLIC 54a4 0 std::__ndk1::__split_buffer<std::__ndk1::basic_string<char, std::__ndk1::char_traits<char>, std::__ndk1::allocator<char> >, std::__ndk1::allocator<std::__ndk1::basic_string<char, std::__ndk1::char_traits<char>, std::__ndk1::allocator<char> > >&>::~__split_buffer()
PUBLIC 550c 0 std::__ndk1::vector<std::__ndk1::basic_string<char, std::__ndk1::char_traits<char>, std::__ndk1::allocator<char> >, std::__ndk1::allocator<std::__ndk1::basic_string<char, std::__ndk1::char_traits<char>, std::__ndk1::allocator<char> > > >::__throw_length_error[abi:ne180000]() const
PUBLIC 5520 0 std::__ndk1::__variant_detail::__visitation::__base::__dispatcher<(unsigned long)0>::__dispatch[abi:ne180000]<std::__ndk1::__variant_detail::__dtor<std::__ndk1::__variant_detail::__traits<geode::Hook*, std::__ndk1::basic_string<char, std::__ndk1::char_traits<char>, std::__ndk1::allocator<char> > >, (std::__ndk1::__variant_detail::_Trait)1>::__destroy[abi:ne180000]()::{lambda(auto:1&)#1}, std::__ndk1::__variant_detail::__base<(std::__ndk1::__variant_detail::__traits<geode::Hook*, std::__ndk1::basic_string<char, std::__ndk1::char_traits<char>, std::__ndk1::allocator<char> > >)1, geode::Hook, std::__ndk1::allocator<char> >&>(std::__ndk1::__variant_detail::__dtor<std::__ndk1::__variant_detail::__traits<geode::Hook*, std::__ndk1::basic_string<char, std::__ndk1::char_traits<char>, std::__ndk1::allocator<char> > >, (std::__ndk1::__variant_detail::_Trait)1>, std::__ndk1::__variant_detail::__base<(std::__ndk1::__variant_detail::__traits<geode::Hook*, std::__ndk1::basic_string<char, std::__ndk1::char_traits<char>, std::__ndk1::allocator<char> > >)1, geode::Hook, std::__ndk1::allocator<char> >&)
PUBLIC 5524 0 std::__ndk1::__variant_detail::__visitation::__base::__dispatcher<(unsigned long)1>::__dispatch[abi:ne180000]<std::__ndk1::__variant_detail::__dtor<std::__ndk1::__variant_detail::__traits<geode::Hook*, std::__ndk1::basic_string<char, std::__ndk1::char_traits<char>, std::__ndk1::allocator<char> > >, (std::__ndk1::__variant_detail::_Trait)1>::__destroy[abi:ne180000]()::{lambda(auto:1&)#1}, std::__ndk1::__variant_detail::__base<(std::__ndk1::__variant_detail::__traits<geode::Hook*, std::__ndk1::basic_string<char, std::__ndk1::char_traits<char>, std::__ndk1::allocator<char> > >)1, geode::Hook, std::__ndk1::allocator<char> >&>(std::__ndk1::__variant_detail::__dtor<std::__ndk1::__variant_detail::__traits<geode::Hook*, std::__ndk1::basic_string<char, std::__ndk1::char_traits<char>, std::__ndk1::allocator<char> > >, (std::__ndk1::__variant_detail::_Trait)1>, std::__ndk1::__variant_detail::__base<(std::__ndk1::__variant_detail::__traits<geode::Hook*, std::__ndk1::basic_string<char, std::__ndk1::char_traits<char>, std::__ndk1::allocator<char> > >)1, geode::Hook, std::__ndk1::allocator<char> >&)
PUBLIC 5538 0 std::__ndk1::__tree<std::__ndk1::__value_type<std::__ndk1::basic_string<char, std::__ndk1::char_traits<char>, std::__ndk1::allocator<char> >, std::__ndk1::shared_ptr<geode::Hook> >, std::__ndk1::__map_value_compare<std::__ndk1::basic_string<char, std::__ndk1::char_traits<char>, std::__ndk1::allocator<char> >, std::__ndk1::__value_type<std::__ndk1::basic_string<char, std::__ndk1::char_traits<char>, std::__ndk1::allocator<char> >, std::__ndk1::shared_ptr<geode::Hook> >, std::__ndk1::less<std::__ndk1::basic_string<char, std::__ndk1::char_traits<char>, std::__ndk1::allocator<char> > >, true>, std::__ndk1::allocator<std::__ndk1::__value_type<std::__ndk1::basic_string<char, std::__ndk1::char_traits<char>, std::__ndk1::allocator<char> >, std::__ndk1::shared_ptr<geode::Hook> > > >::destroy(std::__ndk1::__tree_node<std::__ndk1::__value_type<std::__ndk1::basic_string<char, std::__ndk1::char_traits<char>, std::__ndk1::allocator<char> >, std::__ndk1::shared_ptr<geode::Hook> >, void*>*)
PUBLIC 55bc 0 geode::modifier::AsStaticFunction_setupGauntlets<GauntletSelectLayerFix, void (GauntletSelectLayerFix::*)()>::Impl<void (GauntletSelectLayerFix::*)()>::function(GauntletSelectLayerFix*)
PUBLIC 56a4 0 std::__ndk1::shared_ptr<tulip::hook::CallingConvention>::~shared_ptr[abi:ne180000]()
PUBLIC 56f4 0 tulip::hook::HandlerMetadata::~HandlerMetadata()
PUBLIC 5758 0 geode::cocos::findFirstChildRecursive<ExtendedLayer>(cocos2d::CCNode*, std::__ndk1::function<bool (ExtendedLayer*)>)
PUBLIC 5954 0 geode::cast::traverseTypeinfoFor(void*, geode::cast::ClassTypeinfoType const*, char const*)
PUBLIC 5a4c 0 std::__ndk1::__throw_bad_function_call[abi:ne180000]()
PUBLIC 5a80 0 std::__ndk1::bad_function_call::~bad_function_call()
PUBLIC 5aa4 0 std::__ndk1::__function::__base<bool (ExtendedLayer*)>::~__base()
PUBLIC 5aa8 0 std::__ndk1::__function::__func<GauntletSelectLayerFix::setupGauntlets()::{lambda(ExtendedLayer*)#1}, std::__ndk1::allocator<GauntletSelectLayerFix::setupGauntlets()::{lambda(ExtendedLayer*)#1}>, bool (ExtendedLayer*)>::~__func()
PUBLIC 5aac 0 std::__ndk1::__function::__func<GauntletSelectLayerFix::setupGauntlets()::{lambda(ExtendedLayer*)#1}, std::__ndk1::allocator<GauntletSelectLayerFix::setupGauntlets()::{lambda(ExtendedLayer*)#1}>, bool (ExtendedLayer*)>::__clone() const
PUBLIC 5ad0 0 std::__ndk1::__function::__func<GauntletSelectLayerFix::setupGauntlets()::{lambda(ExtendedLayer*)#1}, std::__ndk1::allocator<GauntletSelectLayerFix::setupGauntlets()::{lambda(ExtendedLayer*)#1}>, bool (ExtendedLayer*)>::__clone(std::__ndk1::__function::__base<bool (ExtendedLayer*)>*) const
PUBLIC 5ae0 0 std::__ndk1::__function::__func<GauntletSelectLayerFix::setupGauntlets()::{lambda(ExtendedLayer*)#1}, std::__ndk1::allocator<GauntletSelectLayerFix::setupGauntlets()::{lambda(ExtendedLayer*)#1}>, bool (ExtendedLayer*)>::destroy()
PUBLIC 5ae4 0 std::__ndk1::__function::__func<GauntletSelectLayerFix::setupGauntlets()::{lambda(ExtendedLayer*)#1}, std::__ndk1::allocator<GauntletSelectLayerFix::setupGauntlets()::{lambda(ExtendedLayer*)#1}>, bool (ExtendedLayer*)>::destroy_deallocate()
PUBLIC 5ae8 0 std::__ndk1::__function::__func<GauntletSelectLayerFix::setupGauntlets()::{lambda(ExtendedLayer*)#1}, std::__ndk1::allocator<GauntletSelectLayerFix::setupGauntlets()::{lambda(ExtendedLayer*)#1}>, bool (ExtendedLayer*)>::operator()(ExtendedLayer*&&)
PUBLIC 5b8c 0 std::__ndk1::__function::__func<GauntletSelectLayerFix::setupGauntlets()::{lambda(ExtendedLayer*)#1}, std::__ndk1::allocator<GauntletSelectLayerFix::setupGauntlets()::{lambda(ExtendedLayer*)#1}>, bool (ExtendedLayer*)>::target(std::type_info const&) const
PUBLIC 5ba8 0 std::__ndk1::__function::__func<GauntletSelectLayerFix::setupGauntlets()::{lambda(ExtendedLayer*)#1}, std::__ndk1::allocator<GauntletSelectLayerFix::setupGauntlets()::{lambda(ExtendedLayer*)#1}>, bool (ExtendedLayer*)>::target_type() const
PUBLIC m 5bb4 0 geodeImplicitEntry
PUBLIC 5bf0 0 <.plt ELF section in jecket.gauntlets_position_fix.android64.so>
STACK CFI INIT 30c0 10 .cfa: sp 0 +
STACK CFI INIT 30d0 8 .cfa: sp 0 +
STACK CFI INIT 30d8 8 .cfa: sp 0 +
STACK CFI INIT 30e0 14 .cfa: sp 0 +
STACK CFI INIT 30f4 1c .cfa: sp 0 +
STACK CFI INIT 3110 10 .cfa: sp 0 +
STACK CFI INIT 3120 30 .cfa: sp 0 +
STACK CFI INIT 3150 98 .cfa: sp 0 +
STACK CFI INIT 31e8 59c .cfa: sp 0 +
STACK CFI INIT 3784 8c .cfa: sp 0 +
STACK CFI INIT 3810 30 .cfa: sp 0 +
STACK CFI INIT 4414 18 .cfa: sp 0 +
STACK CFI INIT 4a38 50 .cfa: sp 0 +
STACK CFI 4a3c .cfa: sp 32 +
STACK CFI 4a44 .cfa: x29 32 + x19: .cfa -16 + ^ .ra: .cfa -24 + ^ x29: .cfa -32 + ^
STACK CFI 4a5c .cfa: sp 32 +
STACK CFI 4a64 .cfa: sp 0 +
STACK CFI 4a68 .cfa: x29 32 +
STACK CFI 4a7c .cfa: sp 32 +
STACK CFI 4a84 .cfa: sp 0 +
STACK CFI INIT 4afc 7c .cfa: sp 0 +
STACK CFI 4b00 .cfa: sp 48 +
STACK CFI 4b0c .cfa: x29 48 + x19: .cfa -8 + ^ x20: .cfa -16 + ^ x21: .cfa -32 + ^ .ra: .cfa -40 + ^ x29: .cfa -48 + ^
STACK CFI 4b58 .cfa: sp 48 +
STACK CFI 4b64 .cfa: sp 0 +
STACK CFI 4b68 .cfa: sp 48 +
STACK CFI 4b74 .cfa: sp 0 +
STACK CFI INIT 4b78 4 .cfa: sp 0 +
STACK CFI INIT 4b7c 10 .cfa: sp 0 +
STACK CFI 4b80 .cfa: sp 16 +
STACK CFI 4b84 .cfa: x29 16 + .ra: .cfa -8 + ^ x29: .cfa -16 + ^
STACK CFI INIT 5288 34 .cfa: sp 0 +
STACK CFI 528c .cfa: sp 16 +
STACK CFI 5290 .cfa: x29 16 + .ra: .cfa -8 + ^ x29: .cfa -16 + ^
STACK CFI INIT 52bc 80 .cfa: sp 0 +
STACK CFI 52c0 .cfa: sp 48 +
STACK CFI 52cc .cfa: x29 48 + x19: .cfa -8 + ^ x20: .cfa -16 + ^ x21: .cfa -32 + ^ .ra: .cfa -40 + ^ x29: .cfa -48 + ^
STACK CFI 532c .cfa: sp 48 +
STACK CFI 5338 .cfa: sp 0 +
STACK CFI INIT 533c 24 .cfa: sp 0 +
STACK CFI 5340 .cfa: sp 32 +
STACK CFI 5348 .cfa: x29 32 + x19: .cfa -16 + ^ .ra: .cfa -24 + ^ x29: .cfa -32 + ^
STACK CFI 5354 .cfa: sp 32 +
STACK CFI 535c .cfa: sp 0 +
STACK CFI INIT 5360 14 .cfa: sp 0 +
STACK CFI 5364 .cfa: sp 16 +
STACK CFI 5368 .cfa: x29 16 + .ra: .cfa -8 + ^ x29: .cfa -16 + ^
STACK CFI INIT 53c4 30 .cfa: sp 0 +
STACK CFI 53c8 .cfa: sp 32 +
STACK CFI 53d0 .cfa: x29 32 + x19: .cfa -16 + ^ .ra: .cfa -24 + ^ x29: .cfa -32 + ^
STACK CFI 53e8 .cfa: sp 32 +
STACK CFI 53f0 .cfa: sp 0 +
STACK CFI INIT 53f4 34 .cfa: sp 0 +
STACK CFI 53f8 .cfa: sp 32 +
STACK CFI 5400 .cfa: x29 32 + x19: .cfa -16 + ^ .ra: .cfa -24 + ^ x29: .cfa -32 + ^
STACK CFI INIT 5428 7c .cfa: sp 0 +
STACK CFI 542c .cfa: sp 48 +
STACK CFI 5438 .cfa: x29 48 + x19: .cfa -8 + ^ x20: .cfa -16 + ^ x21: .cfa -24 + ^ x22: .cfa -32 + ^ .ra: .cfa -40 + ^ x29: .cfa -48 + ^
STACK CFI 5450 .cfa: sp 48 +
STACK CFI 545c .cfa: sp 0 +
STACK CFI 5460 .cfa: x29 48 +
STACK CFI 5490 .cfa: sp 48 +
STACK CFI 549c .cfa: sp 0 +
STACK CFI 54a0 .cfa: x29 48 +
STACK CFI INIT 54a4 68 .cfa: sp 0 +
STACK CFI 54a8 .cfa: sp 32 +
STACK CFI 54b0 .cfa: x29 32 + x19: .cfa -8 + ^ x20: .cfa -16 + ^ .ra: .cfa -24 + ^ x29: .cfa -32 + ^
STACK CFI 54c8 .cfa: sp 32 +
STACK CFI 54d0 .cfa: sp 0 +
STACK CFI 54d4 .cfa: x29 32 +
STACK CFI 5500 .cfa: sp 32 +
STACK CFI 5508 .cfa: sp 0 +
STACK CFI INIT 550c 14 .cfa: sp 0 +
STACK CFI 5510 .cfa: sp 16 +
STACK CFI 5514 .cfa: x29 16 + .ra: .cfa -8 + ^ x29: .cfa -16 + ^
STACK CFI INIT 5520 4 .cfa: sp 0 +
STACK CFI INIT 5524 14 .cfa: sp 0 +
STACK CFI INIT 5538 84 .cfa: sp 0 +
STACK CFI 5540 .cfa: sp 32 +
STACK CFI 5548 .cfa: x29 32 + x19: .cfa -8 + ^ x20: .cfa -16 + ^ .ra: .cfa -24 + ^ x29: .cfa -32 + ^
STACK CFI 5588 .cfa: sp 32 +
STACK CFI 5590 .cfa: sp 0 +
STACK CFI 5598 .cfa: x29 32 +
STACK CFI INIT 56a4 50 .cfa: sp 0 +
STACK CFI 56a8 .cfa: sp 32 +
STACK CFI 56b0 .cfa: x29 32 + x19: .cfa -16 + ^ .ra: .cfa -24 + ^ x29: .cfa -32 + ^
STACK CFI 56c8 .cfa: sp 32 +
STACK CFI 56d0 .cfa: sp 0 +
STACK CFI 56d4 .cfa: x29 32 +
STACK CFI 56e8 .cfa: sp 32 +
STACK CFI 56f0 .cfa: sp 0 +
STACK CFI INIT 56f4 64 .cfa: sp 0 +
STACK CFI 56f8 .cfa: sp 32 +
STACK CFI 5700 .cfa: x29 32 + x19: .cfa -16 + ^ .ra: .cfa -24 + ^ x29: .cfa -32 + ^
STACK CFI 572c .cfa: sp 32 +
STACK CFI 5734 .cfa: sp 0 +
STACK CFI 5738 .cfa: x29 32 +
STACK CFI 574c .cfa: sp 32 +
STACK CFI 5754 .cfa: sp 0 +
STACK CFI INIT 5954 f8 .cfa: sp 0 +
STACK CFI 5958 .cfa: sp 64 +
STACK CFI 5968 .cfa: x29 64 + x19: .cfa -8 + ^ x20: .cfa -16 + ^ x21: .cfa -24 + ^ x22: .cfa -32 + ^ x23: .cfa -48 + ^ .ra: .cfa -56 + ^ x29: .cfa -64 + ^
STACK CFI 59c4 .cfa: sp 64 +
STACK CFI 59d4 .cfa: sp 0 +
STACK CFI 59d8 .cfa: x29 64 +
STACK CFI 59f4 .cfa: sp 64 +
STACK CFI 5a04 .cfa: sp 0 +
STACK CFI 5a08 .cfa: x29 64 +
STACK CFI 5a38 .cfa: sp 64 +
STACK CFI 5a48 .cfa: sp 0 +
STACK CFI INIT 5a4c 34 .cfa: sp 0 +
STACK CFI 5a50 .cfa: sp 16 +
STACK CFI 5a54 .cfa: x29 16 + .ra: .cfa -8 + ^ x29: .cfa -16 + ^
STACK CFI INIT 5a80 24 .cfa: sp 0 +
STACK CFI 5a84 .cfa: sp 32 +
STACK CFI 5a8c .cfa: x29 32 + x19: .cfa -16 + ^ .ra: .cfa -24 + ^ x29: .cfa -32 + ^
STACK CFI 5a98 .cfa: sp 32 +
STACK CFI 5aa0 .cfa: sp 0 +
STACK CFI INIT 5aa4 4 .cfa: sp 0 +
STACK CFI INIT 5aa8 4 .cfa: sp 0 +
STACK CFI INIT 5aac 24 .cfa: sp 0 +
STACK CFI 5ab0 .cfa: sp 16 +
STACK CFI 5ab4 .cfa: x29 16 + .ra: .cfa -8 + ^ x29: .cfa -16 + ^
STACK CFI 5ac8 .cfa: sp 16 +
STACK CFI 5acc .cfa: sp 0 +
STACK CFI INIT 5ad0 10 .cfa: sp 0 +
STACK CFI INIT 5ae0 4 .cfa: sp 0 +
STACK CFI INIT 5ae4 4 .cfa: sp 0 +
STACK CFI INIT 5ae8 a4 .cfa: sp 0 +
STACK CFI 5aec .cfa: sp 64 +
STACK CFI 5afc .cfa: x29 48 + x19: .cfa -8 + ^ x20: .cfa -16 + ^ x21: .cfa -32 + ^ .ra: .cfa -40 + ^ x29: .cfa -48 + ^
STACK CFI 5b74 .cfa: sp 64 +
STACK CFI 5b84 .cfa: sp 0 +
STACK CFI 5b88 .cfa: x29 48 +
STACK CFI INIT 5b8c 1c .cfa: sp 0 +
STACK CFI INIT 5ba8 c .cfa: sp 0 +
STACK CFI INIT 5bb4 3c .cfa: sp 0 +
STACK CFI 5bb8 .cfa: sp 32 +
STACK CFI 5bc0 .cfa: x29 32 + x19: .cfa -16 + ^ .ra: .cfa -24 + ^ x29: .cfa -32 + ^
STACK CFI 5bcc .cfa: sp 32 +
STACK CFI 5bd4 .cfa: sp 0 +
STACK CFI 5bd8 .cfa: x29 32 +
STACK CFI 5be4 .cfa: sp 32 +
STACK CFI 5bec .cfa: sp 0 +
STACK CFI INIT 3840 bd4 .cfa: sp 0 +
STACK CFI 3844 .cfa: sp 240 +
STACK CFI 3860 .cfa: x29 96 + x19: .cfa -8 + ^ x20: .cfa -16 + ^ x21: .cfa -24 + ^ x22: .cfa -32 + ^ x23: .cfa -40 + ^ x24: .cfa -48 + ^ x25: .cfa -56 + ^ x26: .cfa -64 + ^ x27: .cfa -72 + ^ x28: .cfa -80 + ^ .ra: .cfa -88 + ^ x29: .cfa -96 + ^
STACK CFI 3c3c .cfa: sp 240 +
STACK CFI 3c58 .cfa: sp 0 +
STACK CFI 3c5c .cfa: x29 96 +
STACK CFI 42bc .cfa: sp 240 +
STACK CFI 42d8 .cfa: sp 0 +
STACK CFI 42dc .cfa: x29 96 +
STACK CFI INIT 442c 60c .cfa: sp 0 +
STACK CFI 4430 .cfa: sp 304 +
STACK CFI 444c .cfa: x29 96 + x19: .cfa -8 + ^ x20: .cfa -16 + ^ x21: .cfa -24 + ^ x22: .cfa -32 + ^ x23: .cfa -40 + ^ x24: .cfa -48 + ^ x25: .cfa -56 + ^ x26: .cfa -64 + ^ x27: .cfa -72 + ^ x28: .cfa -80 + ^ .ra: .cfa -88 + ^ x29: .cfa -96 + ^
STACK CFI 490c .cfa: sp 304 +
STACK CFI 4928 .cfa: sp 0 +
STACK CFI 492c .cfa: x29 96 +
STACK CFI INIT 4a88 74 .cfa: sp 0 +
STACK CFI 4a8c .cfa: sp 48 +
STACK CFI 4a98 .cfa: x29 32 + x19: .cfa -8 + ^ x20: .cfa -16 + ^ .ra: .cfa -24 + ^ x29: .cfa -32 + ^
STACK CFI 4ae4 .cfa: sp 48 +
STACK CFI 4af0 .cfa: sp 0 +
STACK CFI 4af4 .cfa: x29 32 +
STACK CFI INIT 4b8c 6fc .cfa: sp 0 +
STACK CFI 4b90 .cfa: sp 496 +
STACK CFI 4bac .cfa: x29 96 + x19: .cfa -8 + ^ x20: .cfa -16 + ^ x21: .cfa -24 + ^ x22: .cfa -32 + ^ x23: .cfa -40 + ^ x24: .cfa -48 + ^ x25: .cfa -56 + ^ x26: .cfa -64 + ^ x27: .cfa -72 + ^ x28: .cfa -80 + ^ .ra: .cfa -88 + ^ x29: .cfa -96 + ^
STACK CFI 515c .cfa: sp 496 +
STACK CFI 5178 .cfa: sp 0 +
STACK CFI 517c .cfa: x29 96 +
STACK CFI INIT 5374 50 .cfa: sp 0 +
STACK CFI 5378 .cfa: sp 32 +
STACK CFI 5380 .cfa: x29 32 + x19: .cfa -8 + ^ x20: .cfa -16 + ^ .ra: .cfa -24 + ^ x29: .cfa -32 + ^
STACK CFI INIT 55bc e8 .cfa: sp 0 +
STACK CFI 55c0 .cfa: sp 112 +
STACK CFI 55d0 .cfa: x29 48 + x19: .cfa -8 + ^ x20: .cfa -16 + ^ x21: .cfa -32 + ^ .ra: .cfa -40 + ^ x29: .cfa -48 + ^
STACK CFI 5640 .cfa: sp 112 +
STACK CFI 5650 .cfa: sp 0 +
STACK CFI 5654 .cfa: x29 48 +
STACK CFI INIT 5758 1fc .cfa: sp 0 +
STACK CFI 575c .cfa: sp 144 +
STACK CFI 5770 .cfa: x29 64 + x19: .cfa -8 + ^ x20: .cfa -16 + ^ x21: .cfa -24 + ^ x22: .cfa -32 + ^ x23: .cfa -40 + ^ x24: .cfa -48 + ^ .ra: .cfa -56 + ^ x29: .cfa -64 + ^
STACK CFI 58c0 .cfa: sp 144 +
STACK CFI 58d4 .cfa: sp 0 +
STACK CFI 58d8 .cfa: x29 64 +
