MODULE Linux arm64 E587BF11E1CED4DA5677EAE0EB19EE6B0 kittenchilly.pity_title_screen_secret_icons.android64.so
INFO CODE_ID 11BF87E5CEE1DAD45677EAE0EB19EE6B8EC70F0B
INFO GENERATOR mozilla/dump_syms 2.3.4
PUBLIC 2a30 0 __on_dlclose
PUBLIC 2a40 0 __emutls_unregister_key
PUBLIC 2a48 0 __on_dlclose_late
PUBLIC 2a50 0 __atexit_handler_wrapper
PUBLIC 2a64 0 atexit
PUBLIC 2a80 0 pthread_atfork
PUBLIC 2a90 0 __aarch64_ldadd8_relax
PUBLIC 2ac0 0 init_have_lse_atomics
PUBLIC 2b58 0 __init_cpu_features_constructor
PUBLIC 30f4 0 __init_cpu_features
PUBLIC 3180 0 __aarch64_ldadd8_acq_rel
PUBLIC 31b0 0 __cxx_global_var_init
PUBLIC 3d50 0 geode::modifier::ModifyBase<geode::modifier::ModifyDerive<hook6<(anonymous namespace)::hook6Parent>, MenuGameLayer> >::~ModifyBase()
PUBLIC 3d68 0 geode::modifier::ModifyDerive<hook6<(anonymous namespace)::hook6Parent>, MenuGameLayer>::apply()
PUBLIC 4368 0 std::__ndk1::shared_ptr<geode::Hook>::~shared_ptr[abi:ne180000]()
PUBLIC 43b8 0 geode::impl::ResultData<geode::Hook*, std::__ndk1::basic_string<char, std::__ndk1::char_traits<char>, std::__ndk1::allocator<char> > >::~ResultData()
PUBLIC 442c 0 std::__ndk1::vector<std::__ndk1::basic_string<char, std::__ndk1::char_traits<char>, std::__ndk1::allocator<char> >, std::__ndk1::allocator<std::__ndk1::basic_string<char, std::__ndk1::char_traits<char>, std::__ndk1::allocator<char> > > >::~vector[abi:ne180000]()
PUBLIC 44a8 0 geode::modifier::ModifyBase<geode::modifier::ModifyDerive<hook6<(anonymous namespace)::hook6Parent>, MenuGameLayer> >::apply()
PUBLIC 44ac 0 __clang_call_terminate
PUBLIC 44bc 0 _ZN5geode15UnwrapExceptionC2IRPNS_4HookEQsr4implE18IsStringStreamableIT_EEENS_4impl5OkTagEOS5_
PUBLIC 4bb8 0 std::__ndk1::__throw_bad_variant_access[abi:ne180000]()
PUBLIC m 4bec 0 std::__ndk1::basic_stringstream<char, std::__ndk1::char_traits<char>, std::__ndk1::allocator<char> >::~basic_stringstream()
PUBLIC 4c6c 0 geode::UnwrapException::~UnwrapException()
PUBLIC 4c90 0 std::__ndk1::basic_string<char, std::__ndk1::char_traits<char>, std::__ndk1::allocator<char> >::__throw_length_error[abi:ne180000]() const
PUBLIC 4ca4 0 std::__ndk1::__throw_length_error[abi:ne180000](char const*)
PUBLIC 4cf4 0 std::length_error::length_error[abi:ne180000](char const*)
PUBLIC 4d24 0 std::__throw_bad_array_new_length([abi:ne180000], void)
PUBLIC 4d58 0 std::__ndk1::basic_string<char, std::__ndk1::char_traits<char>, std::__ndk1::allocator<char> >::__init_copy_ctor_external(char const*, unsigned long)
PUBLIC 4dd4 0 std::__ndk1::__split_buffer<std::__ndk1::basic_string<char, std::__ndk1::char_traits<char>, std::__ndk1::allocator<char> >, std::__ndk1::allocator<std::__ndk1::basic_string<char, std::__ndk1::char_traits<char>, std::__ndk1::allocator<char> > >&>::~__split_buffer()
PUBLIC 4e3c 0 std::__ndk1::vector<std::__ndk1::basic_string<char, std::__ndk1::char_traits<char>, std::__ndk1::allocator<char> >, std::__ndk1::allocator<std::__ndk1::basic_string<char, std::__ndk1::char_traits<char>, std::__ndk1::allocator<char> > > >::__throw_length_error[abi:ne180000]() const
PUBLIC 4e50 0 std::__ndk1::__variant_detail::__visitation::__base::__dispatcher<(unsigned long)0>::__dispatch[abi:ne180000]<std::__ndk1::__variant_detail::__dtor<std::__ndk1::__variant_detail::__traits<geode::Hook*, std::__ndk1::basic_string<char, std::__ndk1::char_traits<char>, std::__ndk1::allocator<char> > >, (std::__ndk1::__variant_detail::_Trait)1>::__destroy[abi:ne180000]()::{lambda(auto:1&)#1}, std::__ndk1::__variant_detail::__base<(std::__ndk1::__variant_detail::__traits<geode::Hook*, std::__ndk1::basic_string<char, std::__ndk1::char_traits<char>, std::__ndk1::allocator<char> > >)1, geode::Hook, std::__ndk1::allocator<char> >&>(std::__ndk1::__variant_detail::__dtor<std::__ndk1::__variant_detail::__traits<geode::Hook*, std::__ndk1::basic_string<char, std::__ndk1::char_traits<char>, std::__ndk1::allocator<char> > >, (std::__ndk1::__variant_detail::_Trait)1>, std::__ndk1::__variant_detail::__base<(std::__ndk1::__variant_detail::__traits<geode::Hook*, std::__ndk1::basic_string<char, std::__ndk1::char_traits<char>, std::__ndk1::allocator<char> > >)1, geode::Hook, std::__ndk1::allocator<char> >&)
PUBLIC 4e54 0 std::__ndk1::__variant_detail::__visitation::__base::__dispatcher<(unsigned long)1>::__dispatch[abi:ne180000]<std::__ndk1::__variant_detail::__dtor<std::__ndk1::__variant_detail::__traits<geode::Hook*, std::__ndk1::basic_string<char, std::__ndk1::char_traits<char>, std::__ndk1::allocator<char> > >, (std::__ndk1::__variant_detail::_Trait)1>::__destroy[abi:ne180000]()::{lambda(auto:1&)#1}, std::__ndk1::__variant_detail::__base<(std::__ndk1::__variant_detail::__traits<geode::Hook*, std::__ndk1::basic_string<char, std::__ndk1::char_traits<char>, std::__ndk1::allocator<char> > >)1, geode::Hook, std::__ndk1::allocator<char> >&>(std::__ndk1::__variant_detail::__dtor<std::__ndk1::__variant_detail::__traits<geode::Hook*, std::__ndk1::basic_string<char, std::__ndk1::char_traits<char>, std::__ndk1::allocator<char> > >, (std::__ndk1::__variant_detail::_Trait)1>, std::__ndk1::__variant_detail::__base<(std::__ndk1::__variant_detail::__traits<geode::Hook*, std::__ndk1::basic_string<char, std::__ndk1::char_traits<char>, std::__ndk1::allocator<char> > >)1, geode::Hook, std::__ndk1::allocator<char> >&)
PUBLIC 4e68 0 std::__ndk1::__tree<std::__ndk1::__value_type<std::__ndk1::basic_string<char, std::__ndk1::char_traits<char>, std::__ndk1::allocator<char> >, std::__ndk1::shared_ptr<geode::Hook> >, std::__ndk1::__map_value_compare<std::__ndk1::basic_string<char, std::__ndk1::char_traits<char>, std::__ndk1::allocator<char> >, std::__ndk1::__value_type<std::__ndk1::basic_string<char, std::__ndk1::char_traits<char>, std::__ndk1::allocator<char> >, std::__ndk1::shared_ptr<geode::Hook> >, std::__ndk1::less<std::__ndk1::basic_string<char, std::__ndk1::char_traits<char>, std::__ndk1::allocator<char> > >, true>, std::__ndk1::allocator<std::__ndk1::__value_type<std::__ndk1::basic_string<char, std::__ndk1::char_traits<char>, std::__ndk1::allocator<char> >, std::__ndk1::shared_ptr<geode::Hook> > > >::destroy(std::__ndk1::__tree_node<std::__ndk1::__value_type<std::__ndk1::basic_string<char, std::__ndk1::char_traits<char>, std::__ndk1::allocator<char> >, std::__ndk1::shared_ptr<geode::Hook> >, void*>*)
PUBLIC 4eec 0 geode::modifier::AsStaticFunction_resetPlayer<hook6<(anonymous namespace)::hook6Parent>, void (hook6<(anonymous namespace)::hook6Parent>::*)()>::Impl<void (hook6<(anonymous namespace)::hook6Parent>::*)()>::function(hook6<(anonymous namespace)::hook6Parent>*)
PUBLIC 4fcc 0 std::__ndk1::shared_ptr<tulip::hook::CallingConvention>::~shared_ptr[abi:ne180000]()
PUBLIC 501c 0 tulip::hook::HandlerMetadata::~HandlerMetadata()
PUBLIC m 5080 0 geodeImplicitEntry
PUBLIC 50c0 0 <.plt ELF section in kittenchilly.pity_title_screen_secret_icons.android64.so>
STACK CFI INIT 2a30 10 .cfa: sp 0 +
STACK CFI INIT 2a40 8 .cfa: sp 0 +
STACK CFI INIT 2a48 8 .cfa: sp 0 +
STACK CFI INIT 2a50 14 .cfa: sp 0 +
STACK CFI INIT 2a64 1c .cfa: sp 0 +
STACK CFI INIT 2a80 10 .cfa: sp 0 +
STACK CFI INIT 2a90 30 .cfa: sp 0 +
STACK CFI INIT 2ac0 98 .cfa: sp 0 +
STACK CFI INIT 2b58 59c .cfa: sp 0 +
STACK CFI INIT 30f4 8c .cfa: sp 0 +
STACK CFI INIT 3180 30 .cfa: sp 0 +
STACK CFI INIT 3d50 18 .cfa: sp 0 +
STACK CFI INIT 4368 50 .cfa: sp 0 +
STACK CFI 436c .cfa: sp 32 +
STACK CFI 4374 .cfa: x29 32 + x19: .cfa -16 + ^ .ra: .cfa -24 + ^ x29: .cfa -32 + ^
STACK CFI 438c .cfa: sp 32 +
STACK CFI 4394 .cfa: sp 0 +
STACK CFI 4398 .cfa: x29 32 +
STACK CFI 43ac .cfa: sp 32 +
STACK CFI 43b4 .cfa: sp 0 +
STACK CFI INIT 442c 7c .cfa: sp 0 +
STACK CFI 4430 .cfa: sp 48 +
STACK CFI 443c .cfa: x29 48 + x19: .cfa -8 + ^ x20: .cfa -16 + ^ x21: .cfa -32 + ^ .ra: .cfa -40 + ^ x29: .cfa -48 + ^
STACK CFI 4488 .cfa: sp 48 +
STACK CFI 4494 .cfa: sp 0 +
STACK CFI 4498 .cfa: sp 48 +
STACK CFI 44a4 .cfa: sp 0 +
STACK CFI INIT 44a8 4 .cfa: sp 0 +
STACK CFI INIT 44ac 10 .cfa: sp 0 +
STACK CFI 44b0 .cfa: sp 16 +
STACK CFI 44b4 .cfa: x29 16 + .ra: .cfa -8 + ^ x29: .cfa -16 + ^
STACK CFI INIT 4bb8 34 .cfa: sp 0 +
STACK CFI 4bbc .cfa: sp 16 +
STACK CFI 4bc0 .cfa: x29 16 + .ra: .cfa -8 + ^ x29: .cfa -16 + ^
STACK CFI INIT 4bec 80 .cfa: sp 0 +
STACK CFI 4bf0 .cfa: sp 48 +
STACK CFI 4bfc .cfa: x29 48 + x19: .cfa -8 + ^ x20: .cfa -16 + ^ x21: .cfa -32 + ^ .ra: .cfa -40 + ^ x29: .cfa -48 + ^
STACK CFI 4c5c .cfa: sp 48 +
STACK CFI 4c68 .cfa: sp 0 +
STACK CFI INIT 4c6c 24 .cfa: sp 0 +
STACK CFI 4c70 .cfa: sp 32 +
STACK CFI 4c78 .cfa: x29 32 + x19: .cfa -16 + ^ .ra: .cfa -24 + ^ x29: .cfa -32 + ^
STACK CFI 4c84 .cfa: sp 32 +
STACK CFI 4c8c .cfa: sp 0 +
STACK CFI INIT 4c90 14 .cfa: sp 0 +
STACK CFI 4c94 .cfa: sp 16 +
STACK CFI 4c98 .cfa: x29 16 + .ra: .cfa -8 + ^ x29: .cfa -16 + ^
STACK CFI INIT 4cf4 30 .cfa: sp 0 +
STACK CFI 4cf8 .cfa: sp 32 +
STACK CFI 4d00 .cfa: x29 32 + x19: .cfa -16 + ^ .ra: .cfa -24 + ^ x29: .cfa -32 + ^
STACK CFI 4d18 .cfa: sp 32 +
STACK CFI 4d20 .cfa: sp 0 +
STACK CFI INIT 4d24 34 .cfa: sp 0 +
STACK CFI 4d28 .cfa: sp 32 +
STACK CFI 4d30 .cfa: x29 32 + x19: .cfa -16 + ^ .ra: .cfa -24 + ^ x29: .cfa -32 + ^
STACK CFI INIT 4d58 7c .cfa: sp 0 +
STACK CFI 4d5c .cfa: sp 48 +
STACK CFI 4d68 .cfa: x29 48 + x19: .cfa -8 + ^ x20: .cfa -16 + ^ x21: .cfa -24 + ^ x22: .cfa -32 + ^ .ra: .cfa -40 + ^ x29: .cfa -48 + ^
STACK CFI 4d80 .cfa: sp 48 +
STACK CFI 4d8c .cfa: sp 0 +
STACK CFI 4d90 .cfa: x29 48 +
STACK CFI 4dc0 .cfa: sp 48 +
STACK CFI 4dcc .cfa: sp 0 +
STACK CFI 4dd0 .cfa: x29 48 +
STACK CFI INIT 4dd4 68 .cfa: sp 0 +
STACK CFI 4dd8 .cfa: sp 32 +
STACK CFI 4de0 .cfa: x29 32 + x19: .cfa -8 + ^ x20: .cfa -16 + ^ .ra: .cfa -24 + ^ x29: .cfa -32 + ^
STACK CFI 4df8 .cfa: sp 32 +
STACK CFI 4e00 .cfa: sp 0 +
STACK CFI 4e04 .cfa: x29 32 +
STACK CFI 4e30 .cfa: sp 32 +
STACK CFI 4e38 .cfa: sp 0 +
STACK CFI INIT 4e3c 14 .cfa: sp 0 +
STACK CFI 4e40 .cfa: sp 16 +
STACK CFI 4e44 .cfa: x29 16 + .ra: .cfa -8 + ^ x29: .cfa -16 + ^
STACK CFI INIT 4e50 4 .cfa: sp 0 +
STACK CFI INIT 4e54 14 .cfa: sp 0 +
STACK CFI INIT 4e68 84 .cfa: sp 0 +
STACK CFI 4e70 .cfa: sp 32 +
STACK CFI 4e78 .cfa: x29 32 + x19: .cfa -8 + ^ x20: .cfa -16 + ^ .ra: .cfa -24 + ^ x29: .cfa -32 + ^
STACK CFI 4eb8 .cfa: sp 32 +
STACK CFI 4ec0 .cfa: sp 0 +
STACK CFI 4ec8 .cfa: x29 32 +
STACK CFI INIT 4eec e0 .cfa: sp 0 +
STACK CFI 4ef0 .cfa: sp 48 +
STACK CFI 4efc .cfa: x29 48 + x19: .cfa -8 + ^ x20: .cfa -16 + ^ x21: .cfa -32 + ^ .ra: .cfa -40 + ^ x29: .cfa -48 + ^
STACK CFI 4f8c .cfa: sp 48 +
STACK CFI 4f98 .cfa: sp 0 +
STACK CFI 4f9c .cfa: x29 48 +
STACK CFI 4fa4 .cfa: sp 48 +
STACK CFI 4fb0 .cfa: sp 0 +
STACK CFI 4fb4 .cfa: x29 48 +
STACK CFI 4fbc .cfa: sp 48 +
STACK CFI 4fc8 .cfa: sp 0 +
STACK CFI INIT 4fcc 50 .cfa: sp 0 +
STACK CFI 4fd0 .cfa: sp 32 +
STACK CFI 4fd8 .cfa: x29 32 + x19: .cfa -16 + ^ .ra: .cfa -24 + ^ x29: .cfa -32 + ^
STACK CFI 4ff0 .cfa: sp 32 +
STACK CFI 4ff8 .cfa: sp 0 +
STACK CFI 4ffc .cfa: x29 32 +
STACK CFI 5010 .cfa: sp 32 +
STACK CFI 5018 .cfa: sp 0 +
STACK CFI INIT 501c 64 .cfa: sp 0 +
STACK CFI 5020 .cfa: sp 32 +
STACK CFI 5028 .cfa: x29 32 + x19: .cfa -16 + ^ .ra: .cfa -24 + ^ x29: .cfa -32 + ^
STACK CFI 5054 .cfa: sp 32 +
STACK CFI 505c .cfa: sp 0 +
STACK CFI 5060 .cfa: x29 32 +
STACK CFI 5074 .cfa: sp 32 +
STACK CFI 507c .cfa: sp 0 +
STACK CFI INIT 5080 3c .cfa: sp 0 +
STACK CFI 5084 .cfa: sp 32 +
STACK CFI 508c .cfa: x29 32 + x19: .cfa -16 + ^ .ra: .cfa -24 + ^ x29: .cfa -32 + ^
STACK CFI 5098 .cfa: sp 32 +
STACK CFI 50a0 .cfa: sp 0 +
STACK CFI 50a4 .cfa: x29 32 +
STACK CFI 50b0 .cfa: sp 32 +
STACK CFI 50b8 .cfa: sp 0 +
STACK CFI INIT 31b0 ba0 .cfa: sp 0 +
STACK CFI 31b4 .cfa: sp 240 +
STACK CFI 31d0 .cfa: x29 96 + x19: .cfa -8 + ^ x20: .cfa -16 + ^ x21: .cfa -24 + ^ x22: .cfa -32 + ^ x23: .cfa -40 + ^ x24: .cfa -48 + ^ x25: .cfa -56 + ^ x26: .cfa -64 + ^ x27: .cfa -72 + ^ x28: .cfa -80 + ^ .ra: .cfa -88 + ^ x29: .cfa -96 + ^
STACK CFI 3bf8 .cfa: sp 240 +
STACK CFI 3c14 .cfa: sp 0 +
STACK CFI 3c18 .cfa: x29 96 +
STACK CFI INIT 3d68 600 .cfa: sp 0 +
STACK CFI 3d6c .cfa: sp 304 +
STACK CFI 3d88 .cfa: x29 96 + x19: .cfa -8 + ^ x20: .cfa -16 + ^ x21: .cfa -24 + ^ x22: .cfa -32 + ^ x23: .cfa -40 + ^ x24: .cfa -48 + ^ x25: .cfa -56 + ^ x26: .cfa -64 + ^ x27: .cfa -72 + ^ x28: .cfa -80 + ^ .ra: .cfa -88 + ^ x29: .cfa -96 + ^
STACK CFI 423c .cfa: sp 304 +
STACK CFI 4258 .cfa: sp 0 +
STACK CFI 425c .cfa: x29 96 +
STACK CFI INIT 43b8 74 .cfa: sp 0 +
STACK CFI 43bc .cfa: sp 48 +
STACK CFI 43c8 .cfa: x29 32 + x19: .cfa -8 + ^ x20: .cfa -16 + ^ .ra: .cfa -24 + ^ x29: .cfa -32 + ^
STACK CFI 4414 .cfa: sp 48 +
STACK CFI 4420 .cfa: sp 0 +
STACK CFI 4424 .cfa: x29 32 +
STACK CFI INIT 44bc 6fc .cfa: sp 0 +
STACK CFI 44c0 .cfa: sp 496 +
STACK CFI 44dc .cfa: x29 96 + x19: .cfa -8 + ^ x20: .cfa -16 + ^ x21: .cfa -24 + ^ x22: .cfa -32 + ^ x23: .cfa -40 + ^ x24: .cfa -48 + ^ x25: .cfa -56 + ^ x26: .cfa -64 + ^ x27: .cfa -72 + ^ x28: .cfa -80 + ^ .ra: .cfa -88 + ^ x29: .cfa -96 + ^
STACK CFI 4a8c .cfa: sp 496 +
STACK CFI 4aa8 .cfa: sp 0 +
STACK CFI 4aac .cfa: x29 96 +
STACK CFI INIT 4ca4 50 .cfa: sp 0 +
STACK CFI 4ca8 .cfa: sp 32 +
STACK CFI 4cb0 .cfa: x29 32 + x19: .cfa -8 + ^ x20: .cfa -16 + ^ .ra: .cfa -24 + ^ x29: .cfa -32 + ^
