MODULE Linux arm F13ECA1126032C1172276847420DD7BA0 ninsam.to_the_recent_taaaab.android32.so
INFO CODE_ID 11CA3EF10326112C72276847420DD7BAC9398B0D
INFO GENERATOR mozilla/dump_syms 2.3.4
FILE 0 /home/runner/work/To-The-Recent-TAAAAB/To-The-Recent-TAAAAB/geode-sdk-clone/loader/include/Geode/platform/ItaniumCast.hpp
FILE 1 /usr/local/lib/android/sdk/ndk/27.2.12479018/toolchains/llvm/prebuilt/linux-x86_64/sysroot/usr/include/c++/v1/ostream
FILE 2 /usr/local/lib/android/sdk/ndk/27.2.12479018/toolchains/llvm/prebuilt/linux-x86_64/sysroot/usr/include/c++/v1/variant
FILE 3 /usr/local/lib/android/sdk/ndk/27.2.12479018/toolchains/llvm/prebuilt/linux-x86_64/sysroot/usr/include/c++/v1/locale
FILE 4 /usr/local/lib/android/sdk/ndk/27.2.12479018/toolchains/llvm/prebuilt/linux-x86_64/sysroot/usr/include/c++/v1/stdexcept
FILE 5 /usr/local/lib/android/sdk/ndk/27.2.12479018/toolchains/llvm/prebuilt/linux-x86_64/sysroot/usr/include/c++/v1/__tree
FILE 6 /usr/local/lib/android/sdk/ndk/27.2.12479018/toolchains/llvm/prebuilt/linux-x86_64/sysroot/usr/include/c++/v1/new
FILE 7 /home/runner/work/To-The-Recent-TAAAAB/To-The-Recent-TAAAAB/build/bindings/bindings/Geode/modify/LevelSearchLayer.hpp
FILE 8 /home/runner/work/To-The-Recent-TAAAAB/To-The-Recent-TAAAAB/geode-sdk-clone/loader/include/Geode/modify/Modify.hpp
FILE 9 /usr/local/lib/android/sdk/ndk/27.2.12479018/toolchains/llvm/prebuilt/linux-x86_64/sysroot/usr/include/c++/v1/__memory/shared_ptr.h
FILE 10 /home/runner/work/To-The-Recent-TAAAAB/To-The-Recent-TAAAAB/cpm-cache/result/a5380f9e23f94b98200baa461086514f602899cb/include/Geode/Result.hpp
FILE 11 /usr/local/lib/android/sdk/ndk/27.2.12479018/toolchains/llvm/prebuilt/linux-x86_64/sysroot/usr/include/c++/v1/vector
FILE 12 /usr/local/lib/android/sdk/ndk/27.2.12479018/toolchains/llvm/prebuilt/linux-x86_64/sysroot/usr/include/c++/v1/sstream
FILE 13 /usr/local/lib/android/sdk/ndk/27.2.12479018/toolchains/llvm/prebuilt/linux-x86_64/sysroot/usr/include/c++/v1/string
FILE 14 /usr/local/lib/android/sdk/ndk/27.2.12479018/toolchains/llvm/prebuilt/linux-x86_64/sysroot/usr/include/c++/v1/__split_buffer
FILE 15 /home/runner/work/To-The-Recent-TAAAAB/To-The-Recent-TAAAAB/cpm-cache/tuliphook/8d0d2aa407f52cdee9f79187fca5c9affddf8dd5/include/tulip/HandlerData.hpp
FILE 16 /home/runner/work/To-The-Recent-TAAAAB/To-The-Recent-TAAAAB/geode-sdk-clone/entry.cpp
FILE 17 /home/runner/work/To-The-Recent-TAAAAB/To-The-Recent-TAAAAB/build/bindings/bindings/Geode/GeneratedSource.cpp
FILE 18 /home/runner/work/To-The-Recent-TAAAAB/To-The-Recent-TAAAAB/cpm-cache/tuliphook/8d0d2aa407f52cdee9f79187fca5c9affddf8dd5/include/tulip/WrapperData.hpp
FILE 19 /home/runner/work/To-The-Recent-TAAAAB/To-The-Recent-TAAAAB/cpm-cache/tuliphook/8d0d2aa407f52cdee9f79187fca5c9affddf8dd5/include/tulip/AbstractFunction.hpp
PUBLIC 2030 0 __on_dlclose
PUBLIC 2040 0 __emutls_unregister_key
PUBLIC 2044 0 __on_dlclose_late
PUBLIC 2048 0 __atexit_handler_wrapper
PUBLIC 2054 0 atexit
PUBLIC 2074 0 pthread_atfork
FUNC 2084 798 0 __cxx_global_var_init
208e 78e 446 8
FUNC 281c 1c 0 geode::modifier::ModifyBase<geode::modifier::ModifyDerive<hook7<(anonymous namespace)::hook7Parent>, LevelSearchLayer> >::~ModifyBase()
281c 1c 200 8
FUNC 2840 390 0 geode::modifier::ModifyDerive<hook7<(anonymous namespace)::hook7Parent>, LevelSearchLayer>::apply()
2840 c 416 7
284c 2b8 444 7
2b04 e 458 7
2b12 be 444 7
FUNC 2bd0 3a 0 std::__ndk1::shared_ptr<geode::Hook>::~shared_ptr[abi:ne180000]()
2bd0 4 643 9
2bd4 4 644 9
2bd8 1a 645 9
2bf2 4 646 9
2bf6 12 645 9
2c08 2 646 9
FUNC 2c0c 60 0 geode::impl::ResultData<geode::Hook*, std::__ndk1::basic_string<char, std::__ndk1::char_traits<char>, std::__ndk1::allocator<char> > >::~ResultData()
2c0c 60 422 10
FUNC 2c6c 3e 0 std::__ndk1::vector<std::__ndk1::basic_string<char, std::__ndk1::char_traits<char>, std::__ndk1::allocator<char> >, std::__ndk1::allocator<std::__ndk1::basic_string<char, std::__ndk1::char_traits<char>, std::__ndk1::allocator<char> > > >::~vector[abi:ne180000]()
2c6c 3e 501 11
FUNC 2caa 2 0 geode::modifier::ModifyBase<geode::modifier::ModifyDerive<hook7<(anonymous namespace)::hook7Parent>, LevelSearchLayer> >::apply()
2caa 2 416 8
PUBLIC 2cad 0 __clang_call_terminate
FUNC 2cb8 f8 0 _ZN5geode15UnwrapExceptionC2IRPNS_4HookEQsr4implE18IsStringStreamableIT_EEENS_4impl5OkTagEOS5_
2cb8 1a 404 10
2cd2 2c 403 10
2cfe 5a 402 10
2d58 24 404 10
2d7c 34 402 10
FUNC 2db0 34 0 std::__ndk1::__throw_bad_variant_access[abi:ne180000]()
2db0 4 285 2
2db4 30 287 2
FUNC 2de4 d8 0 std::__ndk1::basic_stringstream<char, std::__ndk1::char_traits<char>, std::__ndk1::allocator<char> >::basic_stringstream[abi:ne180000]()
2de4 d8 1010 12
FUNC 2ebc 68 0 std::__ndk1::basic_stringstream<char, std::__ndk1::char_traits<char>, std::__ndk1::allocator<char> >::~basic_stringstream()
2ebc 68 1102 12
FUNC 2f24 10 0 geode::UnwrapException::~UnwrapException()
2f24 10 413 10
FUNC 2f34 108 0 std::__ndk1::__put_character_sequence[abi:ne180000]<char, std::__ndk1::char_traits<char> >(std::__ndk1::basic_ostream<char, std::__ndk1::char_traits<char> >, std::__ndk1::basic_ostream const*, unsigned int)
2f34 1c 665 1
2f50 6 669 1
2f56 6 670 1
2f5c c 673 1
2f68 2 678 1
2f6a 4 675 1
2f6e 4 673 1
2f72 2a 678 1
2f9c 2 672 1
2f9e 4 675 1
2fa2 4 672 1
2fa6 8 675 1
2fae 4 672 1
2fb2 4 675 1
2fb6 6 672 1
2fbc 16 680 1
2fd2 10 683 1
2fe2 16 687 1
2ff8 a 678 1
3002 e 683 1
3010 e 684 1
301e 1e 685 1
FUNC 303c 110 0 std::__ndk1::__pad_and_output[abi:ne180000]<char, std::__ndk1::char_traits<char> >(std::__ndk1::char_traits<char>, std::__ndk1::ostreambuf_iterator const*, std::__ndk1::ostreambuf_iterator const, std::__ndk1::ostreambuf_iterator const, std::__ndk1::ios_base&, std::__ndk1::ostreambuf_iterator)
303c 10 1246 3
304c 12 1247 3
305e 2 1249 3
3060 6 1255 3
3066 4 1250 3
306a 6 1251 3
3070 4 1256 3
3074 e 1257 3
3082 a 1262 3
308c 3a 1263 3
30c6 2 1264 3
30c8 2 1263 3
30ca 18 1264 3
30e2 12 1268 3
30f4 4 1269 3
30f8 4 1270 3
30fc 12 1271 3
310e 14 1276 3
3122 10 1278 3
3132 1a 1268 3
FUNC 314c 10 0 std::__ndk1::basic_string<char, std::__ndk1::char_traits<char>, std::__ndk1::allocator<char> >::__throw_length_error[abi:ne180000]() const
314c 4 2118 13
3150 c 2119 13
FUNC 315c 38 0 std::__ndk1::__throw_length_error[abi:ne180000](char const*)
315c 6 239 4
3162 32 241 4
FUNC 3194 18 0 std::length_error::length_error[abi:ne180000](char const*)
3194 18 152 4
FUNC 31ac 28 0 std::__throw_bad_array_new_length([abi:ne180000], void)
31ac 4 172 6
31b0 24 174 6
FUNC 31d4 ce 0 std::__ndk1::basic_stringbuf<char, std::__ndk1::char_traits<char>, std::__ndk1::allocator<char> >::str[abi:ne180000]() &&
31d4 a 396 12
31de 2a 397 12
3208 1e 398 12
3226 8 402 12
322e 4 401 12
3232 42 402 12
3274 12 403 12
3286 6 404 12
328c 16 406 12
FUNC 32a2 e0 0 std::__ndk1::basic_stringbuf<char, std::__ndk1::char_traits<char>, std::__ndk1::allocator<char> >::__init_buf_ptrs[abi:ne180000]()
32a2 8 626 12
32aa c 628 12
32b6 4 629 12
32ba 2 630 12
32bc 2 628 12
32be 2 627 12
32c0 4 628 12
32c4 8 629 12
32cc 4 628 12
32d0 2 630 12
32d2 6 631 12
32d8 6 632 12
32de 2 631 12
32e0 4 634 12
32e4 2 636 12
32e6 6 635 12
32ec 42 636 12
332e 4 637 12
3332 4 638 12
3336 c 637 12
3342 2 638 12
3344 4 637 12
3348 2 638 12
334a 6 639 12
3350 6 643 12
3356 6 647 12
335c c 641 12
3368 e 639 12
3376 6 644 12
337c 6 647 12
FUNC 3382 46 0 std::__ndk1::basic_string<char, std::__ndk1::char_traits<char>, std::__ndk1::allocator<char> >::__init_copy_ctor_external(char const*, unsigned int)
3382 a 2232 13
338c 4 2237 13
3390 a 2239 13
339a 6 2241 13
33a0 c 2243 13
33ac 8 2247 13
33b4 2 2246 13
33b6 6 2250 13
33bc 6 2252 13
33c2 6 2242 13
FUNC 33c8 3c 0 std::__ndk1::__split_buffer<std::__ndk1::basic_string<char, std::__ndk1::char_traits<char>, std::__ndk1::allocator<char> >, std::__ndk1::allocator<std::__ndk1::basic_string<char, std::__ndk1::char_traits<char>, std::__ndk1::allocator<char> > >&>::~__split_buffer()
33c8 6 352 14
33ce 8 353 14
33d6 4 354 14
33da 6 355 14
33e0 4 356 14
33e4 20 353 14
FUNC 3404 10 0 std::__ndk1::vector<std::__ndk1::basic_string<char, std::__ndk1::char_traits<char>, std::__ndk1::allocator<char> >, std::__ndk1::allocator<std::__ndk1::basic_string<char, std::__ndk1::char_traits<char>, std::__ndk1::allocator<char> > > >::__throw_length_error[abi:ne180000]() const
3404 10 940 11
FUNC 3414 2 0 std::__ndk1::__variant_detail::__visitation::__base::__dispatcher<(unsigned int)0>::__dispatch[abi:ne180000]<std::__ndk1::__variant_detail::__dtor<std::__ndk1::__variant_detail::__traits<geode::Hook*, std::__ndk1::basic_string<char, std::__ndk1::char_traits<char>, std::__ndk1::allocator<char> > >, (std::__ndk1::__variant_detail::_Trait)1>::__destroy[abi:ne180000]()::{lambda(auto:1&)#1}, std::__ndk1::__variant_detail::__base<(std::__ndk1::__variant_detail::__traits<geode::Hook*, std::__ndk1::basic_string<char, std::__ndk1::char_traits<char>, std::__ndk1::allocator<char> > >)1, geode::Hook, std::__ndk1::allocator<char> >&>(std::__ndk1::__variant_detail::__dtor<std::__ndk1::__variant_detail::__traits<geode::Hook*, std::__ndk1::basic_string<char, std::__ndk1::char_traits<char>, std::__ndk1::allocator<char> > >, (std::__ndk1::__variant_detail::_Trait)1>, std::__ndk1::__variant_detail::__base<(std::__ndk1::__variant_detail::__traits<geode::Hook*, std::__ndk1::basic_string<char, std::__ndk1::char_traits<char>, std::__ndk1::allocator<char> > >)1, geode::Hook, std::__ndk1::allocator<char> >&)
3414 2 526 2
FUNC 3416 e 0 std::__ndk1::__variant_detail::__visitation::__base::__dispatcher<(unsigned int)1>::__dispatch[abi:ne180000]<std::__ndk1::__variant_detail::__dtor<std::__ndk1::__variant_detail::__traits<geode::Hook*, std::__ndk1::basic_string<char, std::__ndk1::char_traits<char>, std::__ndk1::allocator<char> > >, (std::__ndk1::__variant_detail::_Trait)1>::__destroy[abi:ne180000]()::{lambda(auto:1&)#1}, std::__ndk1::__variant_detail::__base<(std::__ndk1::__variant_detail::__traits<geode::Hook*, std::__ndk1::basic_string<char, std::__ndk1::char_traits<char>, std::__ndk1::allocator<char> > >)1, geode::Hook, std::__ndk1::allocator<char> >&>(std::__ndk1::__variant_detail::__dtor<std::__ndk1::__variant_detail::__traits<geode::Hook*, std::__ndk1::basic_string<char, std::__ndk1::char_traits<char>, std::__ndk1::allocator<char> > >, (std::__ndk1::__variant_detail::_Trait)1>, std::__ndk1::__variant_detail::__base<(std::__ndk1::__variant_detail::__traits<geode::Hook*, std::__ndk1::basic_string<char, std::__ndk1::char_traits<char>, std::__ndk1::allocator<char> > >)1, geode::Hook, std::__ndk1::allocator<char> >&)
3416 e 526 2
FUNC 3424 5a 0 std::__ndk1::__tree<std::__ndk1::__value_type<std::__ndk1::basic_string<char, std::__ndk1::char_traits<char>, std::__ndk1::allocator<char> >, std::__ndk1::shared_ptr<geode::Hook> >, std::__ndk1::__map_value_compare<std::__ndk1::basic_string<char, std::__ndk1::char_traits<char>, std::__ndk1::allocator<char> >, std::__ndk1::__value_type<std::__ndk1::basic_string<char, std::__ndk1::char_traits<char>, std::__ndk1::allocator<char> >, std::__ndk1::shared_ptr<geode::Hook> >, std::__ndk1::less<std::__ndk1::basic_string<char, std::__ndk1::char_traits<char>, std::__ndk1::allocator<char> > >, true>, std::__ndk1::allocator<std::__ndk1::__value_type<std::__ndk1::basic_string<char, std::__ndk1::char_traits<char>, std::__ndk1::allocator<char> >, std::__ndk1::shared_ptr<geode::Hook> > > >::destroy(std::__ndk1::__tree_node<std::__ndk1::__value_type<std::__ndk1::basic_string<char, std::__ndk1::char_traits<char>, std::__ndk1::allocator<char> >, std::__ndk1::shared_ptr<geode::Hook> >, void*>*)
3424 2 1544 5
3426 a 1551 5
3430 6 1545 5
3436 6 1546 5
343c 38 1548 5
3474 a 1549 5
FUNC 3480 1b8 0 geode::modifier::AsStaticFunction_onMostRecent<hook7<(anonymous namespace)::hook7Parent>, void (hook7<(anonymous namespace)::hook7Parent>::*)(cocos2d::CCObject*)>::Impl<void (hook7<(anonymous namespace)::hook7Parent>::*)(cocos2d::CCObject*)>::function(hook7<(anonymous namespace)::hook7Parent>*, cocos2d::CCObject*)
3480 1b8 140 7
FUNC 3638 3a 0 std::__ndk1::shared_ptr<tulip::hook::CallingConvention>::~shared_ptr[abi:ne180000]()
3638 4 643 9
363c 4 644 9
3640 1a 645 9
365a 4 646 9
365e 12 645 9
3670 2 646 9
FUNC 3672 46 0 tulip::hook::HandlerMetadata::~HandlerMetadata()
3672 46 12 15
FUNC 36b8 88 0 geode::cast::traverseTypeinfoFor(void*, geode::cast::ClassTypeinfoType const*, char const*)
36b8 a 57 0
36c2 4 59 0
36c6 e 60 0
36d4 2 64 0
36d6 2 65 0
36d8 6 64 0
36de 8 65 0
36e6 2 67 0
36e8 2 60 0
36ea 2 59 0
36ec a 60 0
36f6 6 80 0
36fc e 69 0
370a 6 80 0
3710 a 71 0
371a 6 74 0
3720 4 73 0
3724 8 74 0
372c 6 71 0
3732 e 80 0
FUNC 3740 14a 0 std::__ndk1::__tree_balance_after_insert[abi:ne180000]<std::__ndk1::__tree_node_base<void*>*>(std::__ndk1::__tree_node_base<void*>*, std::__ndk1::__tree_node_base<void*>*)
3740 c 285 5
374c 28 330 5
3774 a 286 5
377e c 288 5
378a c 310 5
3796 4 289 5
379a a 290 5
37a4 6 297 5
37aa 28 299 5
37d2 4 303 5
37d6 2 299 5
37d8 6 305 5
37de a 317 5
37e8 22 319 5
380a 4 323 5
380e 2 319 5
3810 6 325 5
3816 4 322 5
381a 4 324 5
381e 2e 325 5
384c 6 330 5
3852 4 302 5
3856 2 305 5
3858 4 304 5
385c 2c 305 5
3888 2 330 5
FUNC 388c 20 0 geodeImplicitEntry
388c 4 16 16
3890 8 18 16
3898 4 19 16
389c a 18 16
38a6 6 19 16
FUNC 38ac cc 0 wrapFunction(unsigned int, tulip::hook::WrapperMetadata const&)
38ac 16 27 17
38c2 4 28 17
38c6 4 29 17
38ca 2 33 17
38cc 2 32 17
38ce 24 33 17
38f2 4 29 17
38f6 24 30 17
391a 36 32 17
3950 28 33 17
FUNC 3978 48 0 geode::impl::ResultData<void*, std::__ndk1::basic_string<char, std::__ndk1::char_traits<char>, std::__ndk1::allocator<char> > >::unwrapErr() &
3978 4 560 10
397c 4 561 10
3980 6 562 10
3986 3a 565 10
FUNC 39c0 60 0 geode::impl::ResultData<void*, std::__ndk1::basic_string<char, std::__ndk1::char_traits<char>, std::__ndk1::allocator<char> > >::~ResultData()
39c0 60 422 10
FUNC 3a20 46 0 tulip::hook::WrapperMetadata::~WrapperMetadata()
3a20 46 10 18
FUNC 3a68 f8 0 FMODAudioEngine::playEffect(gd::string)
3a68 c 3615 17
3a74 1e 3617 17
3a92 2e 3621 17
3ac0 26 3617 17
3ae6 8 3618 17
3aee 4 3617 17
3af2 8 3619 17
3afa 3a 3617 17
3b34 2c 3621 17
FUNC 3b60 70 0 tulip::hook::AbstractFunction::from<void, FMODAudioEngine*, gd::string>(void (*)(FMODAudioEngine*, gd::string))
3b60 e 39 19
3b6e 4 40 19
3b72 4 41 19
3b76 2 42 19
3b78 2 40 19
3b7a 34 42 19
3bae 22 45 19
FUNC 3bd0 f8 0 _ZN5geode15UnwrapExceptionC2IRPvQsr4implE18IsStringStreamableIT_EEENS_4impl5OkTagEOS4_
3bd0 1a 404 10
3bea 2c 403 10
3c16 5a 402 10
3c70 24 404 10
3c94 34 402 10
FUNC 3cc8 104 0 _ZN5geode15UnwrapExceptionC2IRNSt6__ndk112basic_stringIcNS2_11char_traitsIcEENS2_9allocatorIcEEEEQsr4implE18IsStringStreamableIT_EEENS_4impl6ErrTagEOSA_
3cc8 1a 392 10
3ce2 3a 391 10
3d1c 5a 390 10
3d76 24 392 10
3d9a 32 390 10
FUNC 3dcc 2 0 std::__ndk1::__variant_detail::__visitation::__base::__dispatcher<(unsigned int)0>::__dispatch[abi:ne180000]<std::__ndk1::__variant_detail::__dtor<std::__ndk1::__variant_detail::__traits<void*, std::__ndk1::basic_string<char, std::__ndk1::char_traits<char>, std::__ndk1::allocator<char> > >, (std::__ndk1::__variant_detail::_Trait)1>::__destroy[abi:ne180000]()::{lambda(auto:1&)#1}, std::__ndk1::__variant_detail::__base<(std::__ndk1::__variant_detail::__traits<void*, std::__ndk1::basic_string<char, std::__ndk1::char_traits<char>, std::__ndk1::allocator<char> > >)1, std::__ndk1::__variant_detail::__traits, std::__ndk1::allocator<char> >&>(std::__ndk1::__variant_detail::__dtor<std::__ndk1::__variant_detail::__traits<void*, std::__ndk1::basic_string<char, std::__ndk1::char_traits<char>, std::__ndk1::allocator<char> > >, (std::__ndk1::__variant_detail::_Trait)1>, std::__ndk1::__variant_detail::__base<(std::__ndk1::__variant_detail::__traits<void*, std::__ndk1::basic_string<char, std::__ndk1::char_traits<char>, std::__ndk1::allocator<char> > >)1, std::__ndk1::__variant_detail::__traits, std::__ndk1::allocator<char> >&)
3dcc 2 526 2
FUNC 3dce e 0 std::__ndk1::__variant_detail::__visitation::__base::__dispatcher<(unsigned int)1>::__dispatch[abi:ne180000]<std::__ndk1::__variant_detail::__dtor<std::__ndk1::__variant_detail::__traits<void*, std::__ndk1::basic_string<char, std::__ndk1::char_traits<char>, std::__ndk1::allocator<char> > >, (std::__ndk1::__variant_detail::_Trait)1>::__destroy[abi:ne180000]()::{lambda(auto:1&)#1}, std::__ndk1::__variant_detail::__base<(std::__ndk1::__variant_detail::__traits<void*, std::__ndk1::basic_string<char, std::__ndk1::char_traits<char>, std::__ndk1::allocator<char> > >)1, std::__ndk1::__variant_detail::__traits, std::__ndk1::allocator<char> >&>(std::__ndk1::__variant_detail::__dtor<std::__ndk1::__variant_detail::__traits<void*, std::__ndk1::basic_string<char, std::__ndk1::char_traits<char>, std::__ndk1::allocator<char> > >, (std::__ndk1::__variant_detail::_Trait)1>, std::__ndk1::__variant_detail::__base<(std::__ndk1::__variant_detail::__traits<void*, std::__ndk1::basic_string<char, std::__ndk1::char_traits<char>, std::__ndk1::allocator<char> > >)1, std::__ndk1::__variant_detail::__traits, std::__ndk1::allocator<char> >&)
3dce e 526 2
PUBLIC 3ddd 0 __ThumbV7PILongThunk__ZdlPv
PUBLIC 3df0 0 <.plt ELF section in ninsam.to_the_recent_taaaab.android32.so>
STACK CFI INIT 2084 798 .cfa: sp 0 +
STACK CFI 2086 .cfa: sp 20 + .ra: .cfa -4 + ^ r7: .cfa -8 + ^ r6: .cfa -12 + ^ r5: .cfa -16 + ^ r4: .cfa -20 + ^
STACK CFI 2088 .cfa: r7 8 +
STACK CFI 208c r11: .cfa -24 + ^ r10: .cfa -28 + ^ r9: .cfa -32 + ^ r8: .cfa -36 + ^
STACK CFI INIT 281c 1c .cfa: sp 0 +
STACK CFI 281e .cfa: sp 16 + .ra: .cfa -4 + ^ r7: .cfa -8 + ^ r6: .cfa -12 + ^ r4: .cfa -16 + ^
STACK CFI 2820 .cfa: r7 8 +
STACK CFI INIT 2840 390 .cfa: sp 0 +
STACK CFI 2842 .cfa: sp 20 + .ra: .cfa -4 + ^ r7: .cfa -8 + ^ r6: .cfa -12 + ^ r5: .cfa -16 + ^ r4: .cfa -20 + ^
STACK CFI 2844 .cfa: r7 8 +
STACK CFI 2848 r10: .cfa -24 + ^ r9: .cfa -28 + ^ r8: .cfa -32 + ^
STACK CFI INIT 2bd0 3a .cfa: sp 0 +
STACK CFI 2bd2 .cfa: sp 16 + .ra: .cfa -4 + ^ r7: .cfa -8 + ^ r5: .cfa -12 + ^ r4: .cfa -16 + ^
STACK CFI 2bd4 .cfa: r7 8 +
STACK CFI INIT 2c0c 60 .cfa: sp 0 +
STACK CFI 2c0e .cfa: sp 16 + .ra: .cfa -4 + ^ r7: .cfa -8 + ^ r6: .cfa -12 + ^ r4: .cfa -16 + ^
STACK CFI 2c10 .cfa: r7 8 +
STACK CFI INIT 2c6c 3e .cfa: sp 0 +
STACK CFI 2c6e .cfa: sp 20 + .ra: .cfa -4 + ^ r7: .cfa -8 + ^ r6: .cfa -12 + ^ r5: .cfa -16 + ^ r4: .cfa -20 + ^
STACK CFI 2c70 .cfa: r7 8 +
STACK CFI 2c74 r11: .cfa -24 + ^
STACK CFI INIT 2caa 2 .cfa: sp 0 +
STACK CFI INIT 2cac c .cfa: sp 0 +
STACK CFI 2cae .cfa: sp 8 + .ra: .cfa -4 + ^ r7: .cfa -8 + ^
STACK CFI 2cb0 .cfa: r7 8 +
STACK CFI INIT 2cb8 f8 .cfa: sp 0 +
STACK CFI 2cba .cfa: sp 20 + .ra: .cfa -4 + ^ r7: .cfa -8 + ^ r6: .cfa -12 + ^ r5: .cfa -16 + ^ r4: .cfa -20 + ^
STACK CFI 2cbc .cfa: r7 8 +
STACK CFI 2cc0 r8: .cfa -24 + ^
STACK CFI INIT 2db0 34 .cfa: sp 0 +
STACK CFI 2db2 .cfa: sp 8 + .ra: .cfa -4 + ^ r7: .cfa -8 + ^
STACK CFI 2db4 .cfa: r7 8 +
STACK CFI INIT 2de4 d8 .cfa: sp 0 +
STACK CFI 2de6 .cfa: sp 20 + .ra: .cfa -4 + ^ r7: .cfa -8 + ^ r6: .cfa -12 + ^ r5: .cfa -16 + ^ r4: .cfa -20 + ^
STACK CFI 2de8 .cfa: r7 8 +
STACK CFI 2dec r11: .cfa -24 + ^ r10: .cfa -28 + ^ r9: .cfa -32 + ^ r8: .cfa -36 + ^
STACK CFI INIT 2ebc 68 .cfa: sp 0 +
STACK CFI 2ebe .cfa: sp 20 + .ra: .cfa -4 + ^ r7: .cfa -8 + ^ r6: .cfa -12 + ^ r5: .cfa -16 + ^ r4: .cfa -20 + ^
STACK CFI 2ec0 .cfa: r7 8 +
STACK CFI 2ec4 r11: .cfa -24 + ^
STACK CFI INIT 2f24 10 .cfa: sp 0 +
STACK CFI 2f26 .cfa: sp 8 + .ra: .cfa -4 + ^ r7: .cfa -8 + ^
STACK CFI 2f28 .cfa: r7 8 +
STACK CFI INIT 2f34 108 .cfa: sp 0 +
STACK CFI 2f36 .cfa: sp 20 + .ra: .cfa -4 + ^ r7: .cfa -8 + ^ r6: .cfa -12 + ^ r5: .cfa -16 + ^ r4: .cfa -20 + ^
STACK CFI 2f38 .cfa: r7 8 +
STACK CFI 2f3c r11: .cfa -24 + ^ r10: .cfa -28 + ^ r9: .cfa -32 + ^ r8: .cfa -36 + ^
STACK CFI INIT 303c 110 .cfa: sp 0 +
STACK CFI 303e .cfa: sp 20 + .ra: .cfa -4 + ^ r7: .cfa -8 + ^ r6: .cfa -12 + ^ r5: .cfa -16 + ^ r4: .cfa -20 + ^
STACK CFI 3040 .cfa: r7 8 +
STACK CFI 3044 r11: .cfa -24 + ^ r10: .cfa -28 + ^ r9: .cfa -32 + ^ r8: .cfa -36 + ^
STACK CFI INIT 314c 10 .cfa: sp 0 +
STACK CFI 314e .cfa: sp 8 + .ra: .cfa -4 + ^ r7: .cfa -8 + ^
STACK CFI 3150 .cfa: r7 8 +
STACK CFI INIT 315c 38 .cfa: sp 0 +
STACK CFI 315e .cfa: sp 16 + .ra: .cfa -4 + ^ r7: .cfa -8 + ^ r5: .cfa -12 + ^ r4: .cfa -16 + ^
STACK CFI 3160 .cfa: r7 8 +
STACK CFI INIT 3194 18 .cfa: sp 0 +
STACK CFI 3196 .cfa: sp 8 + .ra: .cfa -4 + ^ r7: .cfa -8 + ^
STACK CFI 3198 .cfa: r7 8 +
STACK CFI INIT 31ac 28 .cfa: sp 0 +
STACK CFI 31ae .cfa: sp 8 + .ra: .cfa -4 + ^ r7: .cfa -8 + ^
STACK CFI 31b0 .cfa: r7 8 +
STACK CFI INIT 31d4 ce .cfa: sp 0 +
STACK CFI 31d6 .cfa: sp 20 + .ra: .cfa -4 + ^ r7: .cfa -8 + ^ r6: .cfa -12 + ^ r5: .cfa -16 + ^ r4: .cfa -20 + ^
STACK CFI 31d8 .cfa: r7 8 +
STACK CFI 31dc r10: .cfa -24 + ^ r9: .cfa -28 + ^ r8: .cfa -32 + ^
STACK CFI INIT 32a2 e0 .cfa: sp 0 +
STACK CFI 32a4 .cfa: sp 20 + .ra: .cfa -4 + ^ r7: .cfa -8 + ^ r6: .cfa -12 + ^ r5: .cfa -16 + ^ r4: .cfa -20 + ^
STACK CFI 32a6 .cfa: r7 8 +
STACK CFI 32aa r11: .cfa -24 + ^ r9: .cfa -28 + ^ r8: .cfa -32 + ^
STACK CFI INIT 3382 46 .cfa: sp 0 +
STACK CFI 3384 .cfa: sp 20 + .ra: .cfa -4 + ^ r7: .cfa -8 + ^ r6: .cfa -12 + ^ r5: .cfa -16 + ^ r4: .cfa -20 + ^
STACK CFI 3386 .cfa: r7 8 +
STACK CFI 338a r8: .cfa -24 + ^
STACK CFI INIT 33c8 3c .cfa: sp 0 +
STACK CFI 33ca .cfa: sp 16 + .ra: .cfa -4 + ^ r7: .cfa -8 + ^ r5: .cfa -12 + ^ r4: .cfa -16 + ^
STACK CFI 33cc .cfa: r7 8 +
STACK CFI INIT 3404 10 .cfa: sp 0 +
STACK CFI 3406 .cfa: sp 8 + .ra: .cfa -4 + ^ r7: .cfa -8 + ^
STACK CFI 3408 .cfa: r7 8 +
STACK CFI INIT 3414 2 .cfa: sp 0 +
STACK CFI INIT 3416 e .cfa: sp 0 +
STACK CFI INIT 3424 5a .cfa: sp 0 +
STACK CFI 342c .cfa: sp 16 + .ra: .cfa -4 + ^ r7: .cfa -8 + ^ r5: .cfa -12 + ^ r4: .cfa -16 + ^
STACK CFI 342e .cfa: r7 8 +
STACK CFI INIT 3480 1b8 .cfa: sp 0 +
STACK CFI 3482 .cfa: sp 20 + .ra: .cfa -4 + ^ r7: .cfa -8 + ^ r6: .cfa -12 + ^ r5: .cfa -16 + ^ r4: .cfa -20 + ^
STACK CFI 3484 .cfa: r7 8 +
STACK CFI 3488 r11: .cfa -24 + ^
STACK CFI INIT 3638 3a .cfa: sp 0 +
STACK CFI 363a .cfa: sp 16 + .ra: .cfa -4 + ^ r7: .cfa -8 + ^ r5: .cfa -12 + ^ r4: .cfa -16 + ^
STACK CFI 363c .cfa: r7 8 +
STACK CFI INIT 3672 46 .cfa: sp 0 +
STACK CFI 3674 .cfa: sp 16 + .ra: .cfa -4 + ^ r7: .cfa -8 + ^ r5: .cfa -12 + ^ r4: .cfa -16 + ^
STACK CFI 3676 .cfa: r7 8 +
STACK CFI INIT 36b8 88 .cfa: sp 0 +
STACK CFI 36ba .cfa: sp 20 + .ra: .cfa -4 + ^ r7: .cfa -8 + ^ r6: .cfa -12 + ^ r5: .cfa -16 + ^ r4: .cfa -20 + ^
STACK CFI 36bc .cfa: r7 8 +
STACK CFI 36c0 r11: .cfa -24 + ^ r9: .cfa -28 + ^ r8: .cfa -32 + ^
STACK CFI INIT 3740 14a .cfa: sp 0 +
STACK CFI 3752 .cfa: sp 16 + .ra: .cfa -4 + ^ r7: .cfa -8 + ^ r6: .cfa -12 + ^ r4: .cfa -16 + ^
STACK CFI 3754 .cfa: r7 8 +
STACK CFI INIT 0 20 .cfa: sp 0 +
STACK CFI 2 .cfa: sp 16 + .ra: .cfa -4 + ^ r7: .cfa -8 + ^ r6: .cfa -12 + ^ r4: .cfa -16 + ^
STACK CFI 4 .cfa: r7 8 +
STACK CFI INIT 388c 20 .cfa: sp 0 +
STACK CFI 388e .cfa: sp 16 + .ra: .cfa -4 + ^ r7: .cfa -8 + ^ r6: .cfa -12 + ^ r4: .cfa -16 + ^
STACK CFI 3890 .cfa: r7 8 +
STACK CFI INIT 38ac cc .cfa: sp 0 +
STACK CFI 38ae .cfa: sp 16 + .ra: .cfa -4 + ^ r7: .cfa -8 + ^ r6: .cfa -12 + ^ r4: .cfa -16 + ^
STACK CFI 38b0 .cfa: r7 8 +
STACK CFI INIT 3978 48 .cfa: sp 0 +
STACK CFI 397a .cfa: sp 16 + .ra: .cfa -4 + ^ r7: .cfa -8 + ^ r5: .cfa -12 + ^ r4: .cfa -16 + ^
STACK CFI 397c .cfa: r7 8 +
STACK CFI INIT 39c0 60 .cfa: sp 0 +
STACK CFI 39c2 .cfa: sp 16 + .ra: .cfa -4 + ^ r7: .cfa -8 + ^ r6: .cfa -12 + ^ r4: .cfa -16 + ^
STACK CFI 39c4 .cfa: r7 8 +
STACK CFI INIT 3a20 46 .cfa: sp 0 +
STACK CFI 3a22 .cfa: sp 16 + .ra: .cfa -4 + ^ r7: .cfa -8 + ^ r5: .cfa -12 + ^ r4: .cfa -16 + ^
STACK CFI 3a24 .cfa: r7 8 +
STACK CFI INIT 3a68 f8 .cfa: sp 0 +
STACK CFI 3a6a .cfa: sp 20 + .ra: .cfa -4 + ^ r7: .cfa -8 + ^ r6: .cfa -12 + ^ r5: .cfa -16 + ^ r4: .cfa -20 + ^
STACK CFI 3a6c .cfa: r7 8 +
STACK CFI 3a70 r11: .cfa -24 + ^ r9: .cfa -28 + ^ r8: .cfa -32 + ^
STACK CFI INIT 3b60 70 .cfa: sp 0 +
STACK CFI 3b62 .cfa: sp 20 + .ra: .cfa -4 + ^ r7: .cfa -8 + ^ r6: .cfa -12 + ^ r5: .cfa -16 + ^ r4: .cfa -20 + ^
STACK CFI 3b64 .cfa: r7 8 +
STACK CFI 3b68 r11: .cfa -24 + ^
STACK CFI INIT 3bd0 f8 .cfa: sp 0 +
STACK CFI 3bd2 .cfa: sp 20 + .ra: .cfa -4 + ^ r7: .cfa -8 + ^ r6: .cfa -12 + ^ r5: .cfa -16 + ^ r4: .cfa -20 + ^
STACK CFI 3bd4 .cfa: r7 8 +
STACK CFI 3bd8 r8: .cfa -24 + ^
STACK CFI INIT 3cc8 104 .cfa: sp 0 +
STACK CFI 3cca .cfa: sp 20 + .ra: .cfa -4 + ^ r7: .cfa -8 + ^ r6: .cfa -12 + ^ r5: .cfa -16 + ^ r4: .cfa -20 + ^
STACK CFI 3ccc .cfa: r7 8 +
STACK CFI 3cd0 r8: .cfa -24 + ^
STACK CFI INIT 3dcc 2 .cfa: sp 0 +
STACK CFI INIT 3dce e .cfa: sp 0 +
