MODULE Linux arm64 B0FB7DFA8A52B8AC6FE5E7AB601171F00 m336.autoleaderboard.android64.so
INFO CODE_ID FA7DFBB0528AACB86FE5E7AB601171F0A5497D77
INFO GENERATOR mozilla/dump_syms 2.3.4
PUBLIC 3d30 0 __on_dlclose
PUBLIC 3d40 0 __emutls_unregister_key
PUBLIC 3d48 0 __on_dlclose_late
PUBLIC 3d50 0 __atexit_handler_wrapper
PUBLIC 3d64 0 atexit
PUBLIC 3d80 0 pthread_atfork
PUBLIC 3d90 0 __aarch64_ldadd8_relax
PUBLIC 3dc0 0 init_have_lse_atomics
PUBLIC 3e58 0 __init_cpu_features_constructor
PUBLIC 43f4 0 __init_cpu_features
PUBLIC 4480 0 __aarch64_ldadd8_acq_rel
PUBLIC 44b0 0 __cxx_global_var_init
PUBLIC 4934 0 geode::modifier::ModifyBase<geode::modifier::ModifyDerive<ModGJGameLevel, GJGameLevel> >::~ModifyBase()
PUBLIC 494c 0 __cxx_global_var_init.1
PUBLIC 4da8 0 __cxx_global_var_init.2
PUBLIC 5204 0 geode::modifier::ModifyBase<geode::modifier::ModifyDerive<hook40<(anonymous namespace)::hook40Parent>, PlayLayer> >::~ModifyBase()
PUBLIC 521c 0 geode::modifier::ModifyBase<geode::modifier::ModifyDerive<hook61<(anonymous namespace)::hook61Parent>, GameLevelManager> >::~ModifyBase()
PUBLIC 5234 0 geode::modifier::ModifyDerive<ModGJGameLevel, GJGameLevel>::apply()
PUBLIC 5640 0 std::__ndk1::shared_ptr<geode::Hook>::~shared_ptr[abi:ne180000]()
PUBLIC 5690 0 geode::impl::ResultData<geode::Hook*, std::__ndk1::basic_string<char, std::__ndk1::char_traits<char>, std::__ndk1::allocator<char> > >::~ResultData()
PUBLIC 5704 0 std::__ndk1::vector<std::__ndk1::basic_string<char, std::__ndk1::char_traits<char>, std::__ndk1::allocator<char> >, std::__ndk1::allocator<std::__ndk1::basic_string<char, std::__ndk1::char_traits<char>, std::__ndk1::allocator<char> > > >::~vector[abi:ne180000]()
PUBLIC 5780 0 geode::modifier::ModifyBase<geode::modifier::ModifyDerive<ModGJGameLevel, GJGameLevel> >::apply()
PUBLIC 5784 0 __clang_call_terminate
PUBLIC 5794 0 _ZN5geode15UnwrapExceptionC2IRPNS_4HookEQsr4implE18IsStringStreamableIT_EEENS_4impl5OkTagEOS5_
PUBLIC 58e8 0 std::__ndk1::__throw_bad_variant_access[abi:ne180000]()
PUBLIC 591c 0 std::__ndk1::basic_stringstream<char, std::__ndk1::char_traits<char>, std::__ndk1::allocator<char> >::basic_stringstream[abi:ne180000]()
PUBLIC m 5a48 0 std::__ndk1::basic_stringstream<char, std::__ndk1::char_traits<char>, std::__ndk1::allocator<char> >::~basic_stringstream()
PUBLIC 5ac8 0 geode::UnwrapException::~UnwrapException()
PUBLIC 5aec 0 std::__ndk1::__put_character_sequence[abi:ne180000]<char, std::__ndk1::char_traits<char> >(std::__ndk1::basic_ostream<char, std::__ndk1::char_traits<char> >, std::__ndk1::basic_ostream const*, unsigned long)
PUBLIC 5c90 0 std::__ndk1::__pad_and_output[abi:ne180000]<char, std::__ndk1::char_traits<char> >(std::__ndk1::char_traits<char>, std::__ndk1::ostreambuf_iterator const*, std::__ndk1::ostreambuf_iterator const, std::__ndk1::ostreambuf_iterator const, std::__ndk1::ios_base&, std::__ndk1::ostreambuf_iterator)
PUBLIC 5e6c 0 std::__ndk1::basic_string<char, std::__ndk1::char_traits<char>, std::__ndk1::allocator<char> >::__throw_length_error[abi:ne180000]() const
PUBLIC 5e80 0 std::__ndk1::__throw_length_error[abi:ne180000](char const*)
PUBLIC 5ed0 0 std::length_error::length_error[abi:ne180000](char const*)
PUBLIC 5f00 0 std::__throw_bad_array_new_length([abi:ne180000], void)
PUBLIC 5f34 0 std::__ndk1::basic_stringbuf<char, std::__ndk1::char_traits<char>, std::__ndk1::allocator<char> >::str[abi:ne180000]() &&
PUBLIC 60ac 0 std::__ndk1::basic_stringbuf<char, std::__ndk1::char_traits<char>, std::__ndk1::allocator<char> >::__init_buf_ptrs[abi:ne180000]()
PUBLIC 61f4 0 std::__ndk1::vector<std::__ndk1::basic_string<char, std::__ndk1::char_traits<char>, std::__ndk1::allocator<char> >, std::__ndk1::allocator<std::__ndk1::basic_string<char, std::__ndk1::char_traits<char>, std::__ndk1::allocator<char> > > >::__push_back_slow_path<std::__ndk1::basic_string<char, std::__ndk1::char_traits<char>, std::__ndk1::allocator<char> > const&>(std::__ndk1::basic_string<char, std::__ndk1::char_traits<char>, std::__ndk1::allocator<char> > const&)
PUBLIC 6418 0 std::__ndk1::basic_string<char, std::__ndk1::char_traits<char>, std::__ndk1::allocator<char> >::__init_copy_ctor_external(char const*, unsigned long)
PUBLIC 6498 0 std::__ndk1::__split_buffer<std::__ndk1::basic_string<char, std::__ndk1::char_traits<char>, std::__ndk1::allocator<char> >, std::__ndk1::allocator<std::__ndk1::basic_string<char, std::__ndk1::char_traits<char>, std::__ndk1::allocator<char> > >&>::~__split_buffer()
PUBLIC 6500 0 std::__ndk1::vector<std::__ndk1::basic_string<char, std::__ndk1::char_traits<char>, std::__ndk1::allocator<char> >, std::__ndk1::allocator<std::__ndk1::basic_string<char, std::__ndk1::char_traits<char>, std::__ndk1::allocator<char> > > >::__throw_length_error[abi:ne180000]() const
PUBLIC 6514 0 std::__ndk1::__variant_detail::__visitation::__base::__dispatcher<(unsigned long)0>::__dispatch[abi:ne180000]<std::__ndk1::__variant_detail::__dtor<std::__ndk1::__variant_detail::__traits<geode::Hook*, std::__ndk1::basic_string<char, std::__ndk1::char_traits<char>, std::__ndk1::allocator<char> > >, (std::__ndk1::__variant_detail::_Trait)1>::__destroy[abi:ne180000]()::{lambda(auto:1&)#1}, std::__ndk1::__variant_detail::__base<(std::__ndk1::__variant_detail::__traits<geode::Hook*, std::__ndk1::basic_string<char, std::__ndk1::char_traits<char>, std::__ndk1::allocator<char> > >)1, geode::Hook, std::__ndk1::allocator<char> >&>(std::__ndk1::__variant_detail::__dtor<std::__ndk1::__variant_detail::__traits<geode::Hook*, std::__ndk1::basic_string<char, std::__ndk1::char_traits<char>, std::__ndk1::allocator<char> > >, (std::__ndk1::__variant_detail::_Trait)1>, std::__ndk1::__variant_detail::__base<(std::__ndk1::__variant_detail::__traits<geode::Hook*, std::__ndk1::basic_string<char, std::__ndk1::char_traits<char>, std::__ndk1::allocator<char> > >)1, geode::Hook, std::__ndk1::allocator<char> >&)
PUBLIC 6518 0 std::__ndk1::__variant_detail::__visitation::__base::__dispatcher<(unsigned long)1>::__dispatch[abi:ne180000]<std::__ndk1::__variant_detail::__dtor<std::__ndk1::__variant_detail::__traits<geode::Hook*, std::__ndk1::basic_string<char, std::__ndk1::char_traits<char>, std::__ndk1::allocator<char> > >, (std::__ndk1::__variant_detail::_Trait)1>::__destroy[abi:ne180000]()::{lambda(auto:1&)#1}, std::__ndk1::__variant_detail::__base<(std::__ndk1::__variant_detail::__traits<geode::Hook*, std::__ndk1::basic_string<char, std::__ndk1::char_traits<char>, std::__ndk1::allocator<char> > >)1, geode::Hook, std::__ndk1::allocator<char> >&>(std::__ndk1::__variant_detail::__dtor<std::__ndk1::__variant_detail::__traits<geode::Hook*, std::__ndk1::basic_string<char, std::__ndk1::char_traits<char>, std::__ndk1::allocator<char> > >, (std::__ndk1::__variant_detail::_Trait)1>, std::__ndk1::__variant_detail::__base<(std::__ndk1::__variant_detail::__traits<geode::Hook*, std::__ndk1::basic_string<char, std::__ndk1::char_traits<char>, std::__ndk1::allocator<char> > >)1, geode::Hook, std::__ndk1::allocator<char> >&)
PUBLIC 652c 0 std::__ndk1::__tree<std::__ndk1::__value_type<std::__ndk1::basic_string<char, std::__ndk1::char_traits<char>, std::__ndk1::allocator<char> >, std::__ndk1::shared_ptr<geode::Hook> >, std::__ndk1::__map_value_compare<std::__ndk1::basic_string<char, std::__ndk1::char_traits<char>, std::__ndk1::allocator<char> >, std::__ndk1::__value_type<std::__ndk1::basic_string<char, std::__ndk1::char_traits<char>, std::__ndk1::allocator<char> >, std::__ndk1::shared_ptr<geode::Hook> >, std::__ndk1::less<std::__ndk1::basic_string<char, std::__ndk1::char_traits<char>, std::__ndk1::allocator<char> > >, true>, std::__ndk1::allocator<std::__ndk1::__value_type<std::__ndk1::basic_string<char, std::__ndk1::char_traits<char>, std::__ndk1::allocator<char> >, std::__ndk1::shared_ptr<geode::Hook> > > >::find<std::__ndk1::basic_string<char, std::__ndk1::char_traits<char>, std::__ndk1::allocator<char> > >(std::__ndk1::basic_string<char, std::__ndk1::char_traits<char>, std::__ndk1::allocator<char> > const&)
PUBLIC 664c 0 std::__ndk1::__tree<std::__ndk1::__value_type<std::__ndk1::basic_string<char, std::__ndk1::char_traits<char>, std::__ndk1::allocator<char> >, std::__ndk1::shared_ptr<geode::Hook> >, std::__ndk1::__map_value_compare<std::__ndk1::basic_string<char, std::__ndk1::char_traits<char>, std::__ndk1::allocator<char> >, std::__ndk1::__value_type<std::__ndk1::basic_string<char, std::__ndk1::char_traits<char>, std::__ndk1::allocator<char> >, std::__ndk1::shared_ptr<geode::Hook> >, std::__ndk1::less<std::__ndk1::basic_string<char, std::__ndk1::char_traits<char>, std::__ndk1::allocator<char> > >, true>, std::__ndk1::allocator<std::__ndk1::__value_type<std::__ndk1::basic_string<char, std::__ndk1::char_traits<char>, std::__ndk1::allocator<char> >, std::__ndk1::shared_ptr<geode::Hook> > > >::erase(std::__ndk1::__tree_const_iterator<std::__ndk1::__value_type<std::__ndk1::basic_string<char, std::__ndk1::char_traits<char>, std::__ndk1::allocator<char> >, std::__ndk1::shared_ptr<geode::Hook> >, std::__ndk1::__tree_node<std::__ndk1::__value_type<std::__ndk1::basic_string<char, std::__ndk1::char_traits<char>, std::__ndk1::allocator<char> >, std::__ndk1::shared_ptr<geode::Hook> >, void*>*, long>)
PUBLIC 6af0 0 std::__ndk1::__tree<std::__ndk1::__value_type<std::__ndk1::basic_string<char, std::__ndk1::char_traits<char>, std::__ndk1::allocator<char> >, std::__ndk1::shared_ptr<geode::Hook> >, std::__ndk1::__map_value_compare<std::__ndk1::basic_string<char, std::__ndk1::char_traits<char>, std::__ndk1::allocator<char> >, std::__ndk1::__value_type<std::__ndk1::basic_string<char, std::__ndk1::char_traits<char>, std::__ndk1::allocator<char> >, std::__ndk1::shared_ptr<geode::Hook> >, std::__ndk1::less<std::__ndk1::basic_string<char, std::__ndk1::char_traits<char>, std::__ndk1::allocator<char> > >, true>, std::__ndk1::allocator<std::__ndk1::__value_type<std::__ndk1::basic_string<char, std::__ndk1::char_traits<char>, std::__ndk1::allocator<char> >, std::__ndk1::shared_ptr<geode::Hook> > > >::destroy(std::__ndk1::__tree_node<std::__ndk1::__value_type<std::__ndk1::basic_string<char, std::__ndk1::char_traits<char>, std::__ndk1::allocator<char> >, std::__ndk1::shared_ptr<geode::Hook> >, void*>*)
PUBLIC 6b74 0 geode::modifier::AsStaticFunction_savePercentage<ModGJGameLevel, void (ModGJGameLevel::*)(int, bool, int, int, bool)>::Impl<void (ModGJGameLevel::*)(int, bool, int, int, bool)>::function(ModGJGameLevel*, int, bool, int, int, bool)
PUBLIC 6bd4 0 std::__ndk1::shared_ptr<tulip::hook::CallingConvention>::~shared_ptr[abi:ne180000]()
PUBLIC 6c24 0 tulip::hook::HandlerMetadata::~HandlerMetadata()
PUBLIC 6c88 0 std::__ndk1::vector<tulip::hook::AbstractType, std::__ndk1::allocator<tulip::hook::AbstractType> >::__throw_length_error[abi:ne180000]() const
PUBLIC 6c9c 0 ModGJGameLevel::updateLeaderboard()
PUBLIC 6d58 0 std::__ndk1::__tree<std::__ndk1::__value_type<std::__ndk1::basic_string<char, std::__ndk1::char_traits<char>, std::__ndk1::allocator<char> >, std::__ndk1::shared_ptr<geode::Hook> >, std::__ndk1::__map_value_compare<std::__ndk1::basic_string<char, std::__ndk1::char_traits<char>, std::__ndk1::allocator<char> >, std::__ndk1::__value_type<std::__ndk1::basic_string<char, std::__ndk1::char_traits<char>, std::__ndk1::allocator<char> >, std::__ndk1::shared_ptr<geode::Hook> >, std::__ndk1::less<std::__ndk1::basic_string<char, std::__ndk1::char_traits<char>, std::__ndk1::allocator<char> > >, true>, std::__ndk1::allocator<std::__ndk1::__value_type<std::__ndk1::basic_string<char, std::__ndk1::char_traits<char>, std::__ndk1::allocator<char> >, std::__ndk1::shared_ptr<geode::Hook> > > >::__emplace_unique_key_args<std::__ndk1::basic_string<char, std::__ndk1::char_traits<char>, std::__ndk1::allocator<char> >, std::__ndk1::piecewise_construct_t const&, std::__ndk1::tuple<std::__ndk1::basic_string<char, std::__ndk1::char_traits<char>, std::__ndk1::allocator<char> >&&>, std::__ndk1::tuple<> >(std::__ndk1::basic_string<char, std::__ndk1::char_traits<char>, std::__ndk1::allocator<char> > const&, std::__ndk1::piecewise_construct_t const&, std::__ndk1::tuple<std::__ndk1::basic_string<char, std::__ndk1::char_traits<char>, std::__ndk1::allocator<char> >&&>, std::__ndk1::tuple<>)
PUBLIC 6ec0 0 std::__ndk1::__tree_balance_after_insert[abi:ne180000]<std::__ndk1::__tree_node_base<void*>*>(std::__ndk1::__tree_node_base<void*>*, std::__ndk1::__tree_node_base<void*>*)
PUBLIC 7070 0 geode::modifier::ModifyDerive<hook40<(anonymous namespace)::hook40Parent>, PlayLayer>::apply()
PUBLIC 7394 0 geode::modifier::ModifyBase<geode::modifier::ModifyDerive<hook40<(anonymous namespace)::hook40Parent>, PlayLayer> >::apply()
PUBLIC 7398 0 geode::modifier::AsStaticFunction_levelComplete<hook40<(anonymous namespace)::hook40Parent>, void (hook40<(anonymous namespace)::hook40Parent>::*)()>::Impl<void (hook40<(anonymous namespace)::hook40Parent>::*)()>::function(hook40<(anonymous namespace)::hook40Parent>*)
PUBLIC 73fc 0 geode::modifier::ModifyDerive<hook61<(anonymous namespace)::hook61Parent>, GameLevelManager>::apply()
PUBLIC 7810 0 geode::modifier::ModifyBase<geode::modifier::ModifyDerive<hook61<(anonymous namespace)::hook61Parent>, GameLevelManager> >::apply()
PUBLIC 7814 0 geode::modifier::AsStaticFunction_handleIt<hook61<(anonymous namespace)::hook61Parent>, void (hook61<(anonymous namespace)::hook61Parent>::*)(bool, gd::string, gd::string, GJHttpType)>::Impl<void (hook61<(anonymous namespace)::hook61Parent>::*)(bool, gd::string, gd::string, GJHttpType)>::function(hook61<(anonymous namespace)::hook61Parent>*, bool, gd::string, gd::string, GJHttpType)
PUBLIC m 7950 0 geodeImplicitEntry
PUBLIC 798c 0 wrapFunction(unsigned long, tulip::hook::WrapperMetadata const&)
PUBLIC 7ac0 0 geode::impl::ResultData<void*, std::__ndk1::basic_string<char, std::__ndk1::char_traits<char>, std::__ndk1::allocator<char> > >::unwrapErr() &
PUBLIC 7b38 0 geode::impl::ResultData<void*, std::__ndk1::basic_string<char, std::__ndk1::char_traits<char>, std::__ndk1::allocator<char> > >::~ResultData()
PUBLIC 7bac 0 tulip::hook::WrapperMetadata::~WrapperMetadata()
PUBLIC 7c10 0 cocos2d::CCDictionary::removeObjectForKey(gd::string const&)
PUBLIC 7d60 0 tulip::hook::AbstractFunction::from<void, cocos2d::CCDictionary*, gd::string const&>(void (*)(cocos2d::CCDictionary*, gd::string const&))
PUBLIC 7e0c 0 GameLevelManager::handleIt(bool, gd::string, gd::string, GJHttpType)
PUBLIC 7fc8 0 tulip::hook::AbstractFunction::from<void, GameLevelManager*, bool, gd::string, gd::string, GJHttpType>(void (*)(GameLevelManager*, bool, gd::string, gd::string, GJHttpType))
PUBLIC 8388 0 _ZN5geode15UnwrapExceptionC2IRPvQsr4implE18IsStringStreamableIT_EEENS_4impl5OkTagEOS4_
PUBLIC 84dc 0 _ZN5geode15UnwrapExceptionC2IRNSt6__ndk112basic_stringIcNS2_11char_traitsIcEENS2_9allocatorIcEEEEQsr4implE18IsStringStreamableIT_EEENS_4impl6ErrTagEOSA_
PUBLIC 8644 0 std::__ndk1::__variant_detail::__visitation::__base::__dispatcher<(unsigned long)0>::__dispatch[abi:ne180000]<std::__ndk1::__variant_detail::__dtor<std::__ndk1::__variant_detail::__traits<void*, std::__ndk1::basic_string<char, std::__ndk1::char_traits<char>, std::__ndk1::allocator<char> > >, (std::__ndk1::__variant_detail::_Trait)1>::__destroy[abi:ne180000]()::{lambda(auto:1&)#1}, std::__ndk1::__variant_detail::__base<(std::__ndk1::__variant_detail::__traits<void*, std::__ndk1::basic_string<char, std::__ndk1::char_traits<char>, std::__ndk1::allocator<char> > >)1, std::__ndk1::__variant_detail::__traits, std::__ndk1::allocator<char> >&>(std::__ndk1::__variant_detail::__dtor<std::__ndk1::__variant_detail::__traits<void*, std::__ndk1::basic_string<char, std::__ndk1::char_traits<char>, std::__ndk1::allocator<char> > >, (std::__ndk1::__variant_detail::_Trait)1>, std::__ndk1::__variant_detail::__base<(std::__ndk1::__variant_detail::__traits<void*, std::__ndk1::basic_string<char, std::__ndk1::char_traits<char>, std::__ndk1::allocator<char> > >)1, std::__ndk1::__variant_detail::__traits, std::__ndk1::allocator<char> >&)
PUBLIC 8648 0 std::__ndk1::__variant_detail::__visitation::__base::__dispatcher<(unsigned long)1>::__dispatch[abi:ne180000]<std::__ndk1::__variant_detail::__dtor<std::__ndk1::__variant_detail::__traits<void*, std::__ndk1::basic_string<char, std::__ndk1::char_traits<char>, std::__ndk1::allocator<char> > >, (std::__ndk1::__variant_detail::_Trait)1>::__destroy[abi:ne180000]()::{lambda(auto:1&)#1}, std::__ndk1::__variant_detail::__base<(std::__ndk1::__variant_detail::__traits<void*, std::__ndk1::basic_string<char, std::__ndk1::char_traits<char>, std::__ndk1::allocator<char> > >)1, std::__ndk1::__variant_detail::__traits, std::__ndk1::allocator<char> >&>(std::__ndk1::__variant_detail::__dtor<std::__ndk1::__variant_detail::__traits<void*, std::__ndk1::basic_string<char, std::__ndk1::char_traits<char>, std::__ndk1::allocator<char> > >, (std::__ndk1::__variant_detail::_Trait)1>, std::__ndk1::__variant_detail::__base<(std::__ndk1::__variant_detail::__traits<void*, std::__ndk1::basic_string<char, std::__ndk1::char_traits<char>, std::__ndk1::allocator<char> > >)1, std::__ndk1::__variant_detail::__traits, std::__ndk1::allocator<char> >&)
PUBLIC 8660 0 <.plt ELF section in m336.autoleaderboard.android64.so>
STACK CFI INIT 3d30 10 .cfa: sp 0 +
STACK CFI INIT 3d40 8 .cfa: sp 0 +
STACK CFI INIT 3d48 8 .cfa: sp 0 +
STACK CFI INIT 3d50 14 .cfa: sp 0 +
STACK CFI INIT 3d64 1c .cfa: sp 0 +
STACK CFI INIT 3d80 10 .cfa: sp 0 +
STACK CFI INIT 3d90 30 .cfa: sp 0 +
STACK CFI INIT 3dc0 98 .cfa: sp 0 +
STACK CFI INIT 3e58 59c .cfa: sp 0 +
STACK CFI INIT 43f4 8c .cfa: sp 0 +
STACK CFI INIT 4480 30 .cfa: sp 0 +
STACK CFI INIT 4934 18 .cfa: sp 0 +
STACK CFI INIT 5204 18 .cfa: sp 0 +
STACK CFI INIT 521c 18 .cfa: sp 0 +
STACK CFI INIT 5640 50 .cfa: sp 0 +
STACK CFI 5644 .cfa: sp 32 +
STACK CFI 564c .cfa: x29 32 + x19: .cfa -16 + ^ .ra: .cfa -24 + ^ x29: .cfa -32 + ^
STACK CFI 5664 .cfa: sp 32 +
STACK CFI 566c .cfa: sp 0 +
STACK CFI 5670 .cfa: x29 32 +
STACK CFI 5684 .cfa: sp 32 +
STACK CFI 568c .cfa: sp 0 +
STACK CFI INIT 5704 7c .cfa: sp 0 +
STACK CFI 5708 .cfa: sp 48 +
STACK CFI 5714 .cfa: x29 48 + x19: .cfa -8 + ^ x20: .cfa -16 + ^ x21: .cfa -32 + ^ .ra: .cfa -40 + ^ x29: .cfa -48 + ^
STACK CFI 5760 .cfa: sp 48 +
STACK CFI 576c .cfa: sp 0 +
STACK CFI 5770 .cfa: sp 48 +
STACK CFI 577c .cfa: sp 0 +
STACK CFI INIT 5780 4 .cfa: sp 0 +
STACK CFI INIT 5784 10 .cfa: sp 0 +
STACK CFI 5788 .cfa: sp 16 +
STACK CFI 578c .cfa: x29 16 + .ra: .cfa -8 + ^ x29: .cfa -16 + ^
STACK CFI INIT 58e8 34 .cfa: sp 0 +
STACK CFI 58ec .cfa: sp 16 +
STACK CFI 58f0 .cfa: x29 16 + .ra: .cfa -8 + ^ x29: .cfa -16 + ^
STACK CFI INIT 5a48 80 .cfa: sp 0 +
STACK CFI 5a4c .cfa: sp 48 +
STACK CFI 5a58 .cfa: x29 48 + x19: .cfa -8 + ^ x20: .cfa -16 + ^ x21: .cfa -32 + ^ .ra: .cfa -40 + ^ x29: .cfa -48 + ^
STACK CFI 5ab8 .cfa: sp 48 +
STACK CFI 5ac4 .cfa: sp 0 +
STACK CFI INIT 5ac8 24 .cfa: sp 0 +
STACK CFI 5acc .cfa: sp 32 +
STACK CFI 5ad4 .cfa: x29 32 + x19: .cfa -16 + ^ .ra: .cfa -24 + ^ x29: .cfa -32 + ^
STACK CFI 5ae0 .cfa: sp 32 +
STACK CFI 5ae8 .cfa: sp 0 +
STACK CFI INIT 5e6c 14 .cfa: sp 0 +
STACK CFI 5e70 .cfa: sp 16 +
STACK CFI 5e74 .cfa: x29 16 + .ra: .cfa -8 + ^ x29: .cfa -16 + ^
STACK CFI INIT 5ed0 30 .cfa: sp 0 +
STACK CFI 5ed4 .cfa: sp 32 +
STACK CFI 5edc .cfa: x29 32 + x19: .cfa -16 + ^ .ra: .cfa -24 + ^ x29: .cfa -32 + ^
STACK CFI 5ef4 .cfa: sp 32 +
STACK CFI 5efc .cfa: sp 0 +
STACK CFI INIT 5f00 34 .cfa: sp 0 +
STACK CFI 5f04 .cfa: sp 32 +
STACK CFI 5f0c .cfa: x29 32 + x19: .cfa -16 + ^ .ra: .cfa -24 + ^ x29: .cfa -32 + ^
STACK CFI INIT 60ac 148 .cfa: sp 0 +
STACK CFI 60b0 .cfa: sp 48 +
STACK CFI 60bc .cfa: x29 48 + x19: .cfa -8 + ^ x20: .cfa -16 + ^ x21: .cfa -32 + ^ .ra: .cfa -40 + ^ x29: .cfa -48 + ^
STACK CFI 61e4 .cfa: sp 48 +
STACK CFI 61f0 .cfa: sp 0 +
STACK CFI INIT 6418 80 .cfa: sp 0 +
STACK CFI 641c .cfa: sp 48 +
STACK CFI 6428 .cfa: x29 48 + x19: .cfa -8 + ^ x20: .cfa -16 + ^ x21: .cfa -24 + ^ x22: .cfa -32 + ^ .ra: .cfa -40 + ^ x29: .cfa -48 + ^
STACK CFI 6440 .cfa: sp 48 +
STACK CFI 644c .cfa: sp 0 +
STACK CFI 6450 .cfa: x29 48 +
STACK CFI 6480 .cfa: sp 48 +
STACK CFI 648c .cfa: sp 0 +
STACK CFI 6490 .cfa: x29 48 +
STACK CFI INIT 6498 68 .cfa: sp 0 +
STACK CFI 649c .cfa: sp 32 +
STACK CFI 64a4 .cfa: x29 32 + x19: .cfa -8 + ^ x20: .cfa -16 + ^ .ra: .cfa -24 + ^ x29: .cfa -32 + ^
STACK CFI 64bc .cfa: sp 32 +
STACK CFI 64c4 .cfa: sp 0 +
STACK CFI 64c8 .cfa: x29 32 +
STACK CFI 64f4 .cfa: sp 32 +
STACK CFI 64fc .cfa: sp 0 +
STACK CFI INIT 6500 14 .cfa: sp 0 +
STACK CFI 6504 .cfa: sp 16 +
STACK CFI 6508 .cfa: x29 16 + .ra: .cfa -8 + ^ x29: .cfa -16 + ^
STACK CFI INIT 6514 4 .cfa: sp 0 +
STACK CFI INIT 6518 14 .cfa: sp 0 +
STACK CFI INIT 652c 120 .cfa: sp 0 +
STACK CFI 6530 .cfa: sp 64 +
STACK CFI 6540 .cfa: x29 64 + x19: .cfa -8 + ^ x20: .cfa -16 + ^ x21: .cfa -24 + ^ x22: .cfa -32 + ^ x23: .cfa -40 + ^ x24: .cfa -48 + ^ .ra: .cfa -56 + ^ x29: .cfa -64 + ^
STACK CFI 6638 .cfa: sp 64 +
STACK CFI 6648 .cfa: sp 0 +
STACK CFI INIT 664c 4a4 .cfa: sp 0 +
STACK CFI 6650 .cfa: sp 32 +
STACK CFI 6658 .cfa: x29 32 + x19: .cfa -8 + ^ x20: .cfa -16 + ^ .ra: .cfa -24 + ^ x29: .cfa -32 + ^
STACK CFI 6a38 .cfa: sp 32 +
STACK CFI 6a40 .cfa: sp 0 +
STACK CFI 6a44 .cfa: x29 32 +
STACK CFI INIT 6af0 84 .cfa: sp 0 +
STACK CFI 6af8 .cfa: sp 32 +
STACK CFI 6b00 .cfa: x29 32 + x19: .cfa -8 + ^ x20: .cfa -16 + ^ .ra: .cfa -24 + ^ x29: .cfa -32 + ^
STACK CFI 6b40 .cfa: sp 32 +
STACK CFI 6b48 .cfa: sp 0 +
STACK CFI 6b50 .cfa: x29 32 +
STACK CFI INIT 6b74 60 .cfa: sp 0 +
STACK CFI 6b78 .cfa: sp 48 +
STACK CFI 6b84 .cfa: x29 48 + x19: .cfa -8 + ^ x20: .cfa -16 + ^ x21: .cfa -32 + ^ .ra: .cfa -40 + ^ x29: .cfa -48 + ^
STACK CFI 6bb4 .cfa: sp 48 +
STACK CFI 6bc0 .cfa: sp 0 +
STACK CFI 6bc4 .cfa: sp 48 +
STACK CFI 6bd0 .cfa: sp 0 +
STACK CFI INIT 6bd4 50 .cfa: sp 0 +
STACK CFI 6bd8 .cfa: sp 32 +
STACK CFI 6be0 .cfa: x29 32 + x19: .cfa -16 + ^ .ra: .cfa -24 + ^ x29: .cfa -32 + ^
STACK CFI 6bf8 .cfa: sp 32 +
STACK CFI 6c00 .cfa: sp 0 +
STACK CFI 6c04 .cfa: x29 32 +
STACK CFI 6c18 .cfa: sp 32 +
STACK CFI 6c20 .cfa: sp 0 +
STACK CFI INIT 6c24 64 .cfa: sp 0 +
STACK CFI 6c28 .cfa: sp 32 +
STACK CFI 6c30 .cfa: x29 32 + x19: .cfa -16 + ^ .ra: .cfa -24 + ^ x29: .cfa -32 + ^
STACK CFI 6c5c .cfa: sp 32 +
STACK CFI 6c64 .cfa: sp 0 +
STACK CFI 6c68 .cfa: x29 32 +
STACK CFI 6c7c .cfa: sp 32 +
STACK CFI 6c84 .cfa: sp 0 +
STACK CFI INIT 6c88 14 .cfa: sp 0 +
STACK CFI 6c8c .cfa: sp 16 +
STACK CFI 6c90 .cfa: x29 16 + .ra: .cfa -8 + ^ x29: .cfa -16 + ^
STACK CFI INIT 6c9c bc .cfa: sp 0 +
STACK CFI 6ca0 .cfa: sp 64 +
STACK CFI 6cb0 .cfa: x29 64 + x19: .cfa -8 + ^ x20: .cfa -16 + ^ x21: .cfa -24 + ^ x22: .cfa -32 + ^ x23: .cfa -48 + ^ .ra: .cfa -56 + ^ x29: .cfa -64 + ^
STACK CFI 6d44 .cfa: sp 64 +
STACK CFI 6d54 .cfa: sp 0 +
STACK CFI INIT 6d58 168 .cfa: sp 0 +
STACK CFI 6d5c .cfa: sp 80 +
STACK CFI 6d70 .cfa: x29 80 + x19: .cfa -8 + ^ x20: .cfa -16 + ^ x21: .cfa -24 + ^ x22: .cfa -32 + ^ x23: .cfa -40 + ^ x24: .cfa -48 + ^ x25: .cfa -56 + ^ x26: .cfa -64 + ^ .ra: .cfa -72 + ^ x29: .cfa -80 + ^
STACK CFI 6ea8 .cfa: sp 80 +
STACK CFI 6ebc .cfa: sp 0 +
STACK CFI INIT 6ec0 1b0 .cfa: sp 0 +
STACK CFI INIT 7394 4 .cfa: sp 0 +
STACK CFI INIT 7398 64 .cfa: sp 0 +
STACK CFI 739c .cfa: sp 32 +
STACK CFI 73a4 .cfa: x29 32 + x19: .cfa -8 + ^ x20: .cfa -16 + ^ .ra: .cfa -24 + ^ x29: .cfa -32 + ^
STACK CFI 73e4 .cfa: sp 32 +
STACK CFI 73ec .cfa: sp 0 +
STACK CFI 73f0 .cfa: sp 32 +
STACK CFI 73f8 .cfa: sp 0 +
STACK CFI INIT 7810 4 .cfa: sp 0 +
STACK CFI INIT 7950 3c .cfa: sp 0 +
STACK CFI 7954 .cfa: sp 32 +
STACK CFI 795c .cfa: x29 32 + x19: .cfa -16 + ^ .ra: .cfa -24 + ^ x29: .cfa -32 + ^
STACK CFI 7968 .cfa: sp 32 +
STACK CFI 7970 .cfa: sp 0 +
STACK CFI 7974 .cfa: x29 32 +
STACK CFI 7980 .cfa: sp 32 +
STACK CFI 7988 .cfa: sp 0 +
STACK CFI INIT 7bac 64 .cfa: sp 0 +
STACK CFI 7bb0 .cfa: sp 32 +
STACK CFI 7bb8 .cfa: x29 32 + x19: .cfa -16 + ^ .ra: .cfa -24 + ^ x29: .cfa -32 + ^
STACK CFI 7be4 .cfa: sp 32 +
STACK CFI 7bec .cfa: sp 0 +
STACK CFI 7bf0 .cfa: x29 32 +
STACK CFI 7c04 .cfa: sp 32 +
STACK CFI 7c0c .cfa: sp 0 +
STACK CFI INIT 8644 4 .cfa: sp 0 +
STACK CFI INIT 8648 14 .cfa: sp 0 +
STACK CFI INIT 44b0 484 .cfa: sp 0 +
STACK CFI 44b4 .cfa: sp 224 +
STACK CFI 44d0 .cfa: x29 96 + x19: .cfa -8 + ^ x20: .cfa -16 + ^ x21: .cfa -24 + ^ x22: .cfa -32 + ^ x23: .cfa -40 + ^ x24: .cfa -48 + ^ x25: .cfa -56 + ^ x26: .cfa -64 + ^ x27: .cfa -72 + ^ x28: .cfa -80 + ^ .ra: .cfa -88 + ^ x29: .cfa -96 + ^
STACK CFI 4740 .cfa: sp 224 +
STACK CFI 475c .cfa: sp 0 +
STACK CFI 4760 .cfa: x29 96 +
STACK CFI 482c .cfa: sp 224 +
STACK CFI 4848 .cfa: sp 0 +
STACK CFI 484c .cfa: x29 96 +
STACK CFI INIT 494c 45c .cfa: sp 0 +
STACK CFI 4950 .cfa: sp 224 +
STACK CFI 496c .cfa: x29 96 + x19: .cfa -8 + ^ x20: .cfa -16 + ^ x21: .cfa -24 + ^ x22: .cfa -32 + ^ x23: .cfa -40 + ^ x24: .cfa -48 + ^ x25: .cfa -56 + ^ x26: .cfa -64 + ^ x27: .cfa -72 + ^ x28: .cfa -80 + ^ .ra: .cfa -88 + ^ x29: .cfa -96 + ^
STACK CFI 4c90 .cfa: sp 224 +
STACK CFI 4cac .cfa: sp 0 +
STACK CFI 4cb0 .cfa: x29 96 +
STACK CFI INIT 4da8 45c .cfa: sp 0 +
STACK CFI 4dac .cfa: sp 224 +
STACK CFI 4dc8 .cfa: x29 96 + x19: .cfa -8 + ^ x20: .cfa -16 + ^ x21: .cfa -24 + ^ x22: .cfa -32 + ^ x23: .cfa -40 + ^ x24: .cfa -48 + ^ x25: .cfa -56 + ^ x26: .cfa -64 + ^ x27: .cfa -72 + ^ x28: .cfa -80 + ^ .ra: .cfa -88 + ^ x29: .cfa -96 + ^
STACK CFI 50ec .cfa: sp 224 +
STACK CFI 5108 .cfa: sp 0 +
STACK CFI 510c .cfa: x29 96 +
STACK CFI INIT 5234 40c .cfa: sp 0 +
STACK CFI 5238 .cfa: sp 272 +
STACK CFI 524c .cfa: x29 64 + x19: .cfa -8 + ^ x20: .cfa -16 + ^ x21: .cfa -24 + ^ x22: .cfa -32 + ^ x23: .cfa -40 + ^ x28: .cfa -48 + ^ .ra: .cfa -56 + ^ x29: .cfa -64 + ^
STACK CFI 5504 .cfa: sp 272 +
STACK CFI 5518 .cfa: sp 0 +
STACK CFI 551c .cfa: x29 64 +
STACK CFI INIT 5690 74 .cfa: sp 0 +
STACK CFI 5694 .cfa: sp 48 +
STACK CFI 56a0 .cfa: x29 32 + x19: .cfa -8 + ^ x20: .cfa -16 + ^ .ra: .cfa -24 + ^ x29: .cfa -32 + ^
STACK CFI 56ec .cfa: sp 48 +
STACK CFI 56f8 .cfa: sp 0 +
STACK CFI 56fc .cfa: x29 32 +
STACK CFI INIT 5794 154 .cfa: sp 0 +
STACK CFI 5798 .cfa: sp 384 +
STACK CFI 57ac .cfa: x29 64 + x19: .cfa -8 + ^ x20: .cfa -16 + ^ x21: .cfa -24 + ^ x22: .cfa -32 + ^ x23: .cfa -40 + ^ x28: .cfa -48 + ^ .ra: .cfa -56 + ^ x29: .cfa -64 + ^
STACK CFI 5890 .cfa: sp 384 +
STACK CFI 58a4 .cfa: sp 0 +
STACK CFI 58a8 .cfa: x29 64 +
STACK CFI INIT 591c 12c .cfa: sp 0 +
STACK CFI 5920 .cfa: sp 80 +
STACK CFI 5934 .cfa: x29 80 + x19: .cfa -8 + ^ x20: .cfa -16 + ^ x21: .cfa -24 + ^ x22: .cfa -32 + ^ x23: .cfa -40 + ^ x24: .cfa -48 + ^ x25: .cfa -56 + ^ x26: .cfa -64 + ^ .ra: .cfa -72 + ^ x29: .cfa -80 + ^
STACK CFI 59fc .cfa: sp 80 +
STACK CFI 5a10 .cfa: sp 0 +
STACK CFI 5a14 .cfa: x29 80 +
STACK CFI INIT 5aec 1a4 .cfa: sp 0 +
STACK CFI 5af0 .cfa: sp 112 +
STACK CFI 5b08 .cfa: x29 80 + x19: .cfa -8 + ^ x20: .cfa -16 + ^ x21: .cfa -24 + ^ x22: .cfa -32 + ^ x23: .cfa -40 + ^ x24: .cfa -48 + ^ x25: .cfa -56 + ^ x26: .cfa -64 + ^ .ra: .cfa -72 + ^ x29: .cfa -80 + ^
STACK CFI 5bf8 .cfa: sp 112 +
STACK CFI 5c10 .cfa: sp 0 +
STACK CFI 5c14 .cfa: x29 80 +
STACK CFI INIT 5c90 1dc .cfa: sp 0 +
STACK CFI 5c94 .cfa: sp 128 +
STACK CFI 5cb0 .cfa: x29 96 + x19: .cfa -8 + ^ x20: .cfa -16 + ^ x21: .cfa -24 + ^ x22: .cfa -32 + ^ x23: .cfa -40 + ^ x24: .cfa -48 + ^ x25: .cfa -56 + ^ x26: .cfa -64 + ^ x27: .cfa -80 + ^ .ra: .cfa -88 + ^ x29: .cfa -96 + ^
STACK CFI 5e1c .cfa: sp 128 +
STACK CFI 5e38 .cfa: sp 0 +
STACK CFI 5e3c .cfa: x29 96 +
STACK CFI INIT 5e80 50 .cfa: sp 0 +
STACK CFI 5e84 .cfa: sp 32 +
STACK CFI 5e8c .cfa: x29 32 + x19: .cfa -8 + ^ x20: .cfa -16 + ^ .ra: .cfa -24 + ^ x29: .cfa -32 + ^
STACK CFI INIT 5f34 178 .cfa: sp 0 +
STACK CFI 5f38 .cfa: sp 80 +
STACK CFI 5f4c .cfa: x29 80 + x19: .cfa -8 + ^ x20: .cfa -16 + ^ x21: .cfa -24 + ^ x22: .cfa -32 + ^ x23: .cfa -40 + ^ x24: .cfa -48 + ^ x25: .cfa -64 + ^ .ra: .cfa -72 + ^ x29: .cfa -80 + ^
STACK CFI 6078 .cfa: sp 80 +
STACK CFI 608c .cfa: sp 0 +
STACK CFI 6090 .cfa: x29 80 +
STACK CFI INIT 61f4 224 .cfa: sp 0 +
STACK CFI 61f8 .cfa: sp 128 +
STACK CFI 6210 .cfa: x29 80 + x19: .cfa -8 + ^ x20: .cfa -16 + ^ x21: .cfa -24 + ^ x22: .cfa -32 + ^ x23: .cfa -40 + ^ x24: .cfa -48 + ^ x25: .cfa -64 + ^ .ra: .cfa -72 + ^ x29: .cfa -80 + ^
STACK CFI 63ac .cfa: sp 128 +
STACK CFI 63c4 .cfa: sp 0 +
STACK CFI 63c8 .cfa: x29 80 +
STACK CFI INIT 7070 324 .cfa: sp 0 +
STACK CFI 7074 .cfa: sp 224 +
STACK CFI 7088 .cfa: x29 64 + x19: .cfa -8 + ^ x20: .cfa -16 + ^ x21: .cfa -24 + ^ x22: .cfa -32 + ^ x23: .cfa -48 + ^ .ra: .cfa -56 + ^ x29: .cfa -64 + ^
STACK CFI 727c .cfa: sp 224 +
STACK CFI 7290 .cfa: sp 0 +
STACK CFI 7294 .cfa: x29 64 +
STACK CFI INIT 73fc 414 .cfa: sp 0 +
STACK CFI 7400 .cfa: sp 256 +
STACK CFI 7414 .cfa: x29 64 + x19: .cfa -8 + ^ x20: .cfa -16 + ^ x21: .cfa -24 + ^ x22: .cfa -32 + ^ x23: .cfa -48 + ^ .ra: .cfa -56 + ^ x29: .cfa -64 + ^
STACK CFI 76c4 .cfa: sp 256 +
STACK CFI 76d8 .cfa: sp 0 +
STACK CFI 76dc .cfa: x29 64 +
STACK CFI INIT 7814 13c .cfa: sp 0 +
STACK CFI 7818 .cfa: sp 112 +
STACK CFI 782c .cfa: x29 64 + x19: .cfa -8 + ^ x20: .cfa -16 + ^ x21: .cfa -24 + ^ x22: .cfa -32 + ^ x23: .cfa -48 + ^ .ra: .cfa -56 + ^ x29: .cfa -64 + ^
STACK CFI 78e0 .cfa: sp 112 +
STACK CFI 78f4 .cfa: sp 0 +
STACK CFI 78f8 .cfa: x29 64 +
STACK CFI INIT 798c 134 .cfa: sp 0 +
STACK CFI 7990 .cfa: sp 80 +
STACK CFI 799c .cfa: x29 32 + x19: .cfa -8 + ^ x20: .cfa -16 + ^ .ra: .cfa -24 + ^ x29: .cfa -32 + ^
STACK CFI 79cc .cfa: sp 80 +
STACK CFI 79d8 .cfa: sp 0 +
STACK CFI 79dc .cfa: x29 32 +
STACK CFI INIT 7ac0 78 .cfa: sp 0 +
STACK CFI 7ac4 .cfa: sp 32 +
STACK CFI 7acc .cfa: x29 32 + x19: .cfa -8 + ^ x20: .cfa -16 + ^ .ra: .cfa -24 + ^ x29: .cfa -32 + ^
STACK CFI 7ad8 .cfa: sp 32 +
STACK CFI 7ae0 .cfa: sp 0 +
STACK CFI 7ae4 .cfa: x29 32 +
STACK CFI INIT 7b38 74 .cfa: sp 0 +
STACK CFI 7b3c .cfa: sp 48 +
STACK CFI 7b48 .cfa: x29 32 + x19: .cfa -8 + ^ x20: .cfa -16 + ^ .ra: .cfa -24 + ^ x29: .cfa -32 + ^
STACK CFI 7b94 .cfa: sp 48 +
STACK CFI 7ba0 .cfa: sp 0 +
STACK CFI 7ba4 .cfa: x29 32 +
STACK CFI INIT 7c10 150 .cfa: sp 0 +
STACK CFI 7c14 .cfa: sp 128 +
STACK CFI 7c24 .cfa: x29 48 + x19: .cfa -8 + ^ x20: .cfa -16 + ^ x21: .cfa -24 + ^ x22: .cfa -32 + ^ .ra: .cfa -40 + ^ x29: .cfa -48 + ^
STACK CFI 7c6c .cfa: sp 128 +
STACK CFI 7c7c .cfa: sp 0 +
STACK CFI 7c80 .cfa: x29 48 +
STACK CFI INIT 7d60 ac .cfa: sp 0 +
STACK CFI 7d64 .cfa: sp 64 +
STACK CFI 7d74 .cfa: x29 48 + x19: .cfa -8 + ^ x20: .cfa -16 + ^ x21: .cfa -32 + ^ .ra: .cfa -40 + ^ x29: .cfa -48 + ^
STACK CFI 7de0 .cfa: sp 64 +
STACK CFI 7df0 .cfa: sp 0 +
STACK CFI 7df4 .cfa: x29 48 +
STACK CFI INIT 7e0c 1bc .cfa: sp 0 +
STACK CFI 7e10 .cfa: sp 176 +
STACK CFI 7e28 .cfa: x29 80 + x19: .cfa -8 + ^ x20: .cfa -16 + ^ x21: .cfa -24 + ^ x22: .cfa -32 + ^ x23: .cfa -40 + ^ x24: .cfa -48 + ^ x25: .cfa -64 + ^ .ra: .cfa -72 + ^ x29: .cfa -80 + ^
STACK CFI 7eb0 .cfa: sp 176 +
STACK CFI 7ec8 .cfa: sp 0 +
STACK CFI 7ecc .cfa: x29 80 +
STACK CFI INIT 7fc8 3c0 .cfa: sp 0 +
STACK CFI 7fcc .cfa: sp 96 +
STACK CFI 7fe4 .cfa: x29 80 + x19: .cfa -8 + ^ x20: .cfa -16 + ^ x21: .cfa -24 + ^ x22: .cfa -32 + ^ x23: .cfa -40 + ^ x24: .cfa -48 + ^ x25: .cfa -64 + ^ .ra: .cfa -72 + ^ x29: .cfa -80 + ^
STACK CFI 8314 .cfa: sp 96 +
STACK CFI 832c .cfa: sp 0 +
STACK CFI 8330 .cfa: x29 80 +
STACK CFI INIT 8388 154 .cfa: sp 0 +
STACK CFI 838c .cfa: sp 384 +
STACK CFI 83a0 .cfa: x29 64 + x19: .cfa -8 + ^ x20: .cfa -16 + ^ x21: .cfa -24 + ^ x22: .cfa -32 + ^ x23: .cfa -40 + ^ x28: .cfa -48 + ^ .ra: .cfa -56 + ^ x29: .cfa -64 + ^
STACK CFI 8484 .cfa: sp 384 +
STACK CFI 8498 .cfa: sp 0 +
STACK CFI 849c .cfa: x29 64 +
STACK CFI INIT 84dc 168 .cfa: sp 0 +
STACK CFI 84e0 .cfa: sp 384 +
STACK CFI 84f4 .cfa: x29 64 + x19: .cfa -8 + ^ x20: .cfa -16 + ^ x21: .cfa -24 + ^ x22: .cfa -32 + ^ x23: .cfa -40 + ^ x28: .cfa -48 + ^ .ra: .cfa -56 + ^ x29: .cfa -64 + ^
STACK CFI 85ec .cfa: sp 384 +
STACK CFI 8600 .cfa: sp 0 +
STACK CFI 8604 .cfa: x29 64 +
