MODULE Linux arm64 CA720AB8CB1D36C6F1EAFBD6B198BB0E0 crewly.comboburst.android64.so
INFO CODE_ID B80A72CA1DCBC636F1EAFBD6B198BB0E019883C6
INFO GENERATOR mozilla/dump_syms 2.3.4
PUBLIC 19660 0 __on_dlclose
PUBLIC 19670 0 __emutls_unregister_key
PUBLIC 19678 0 __on_dlclose_late
PUBLIC 19680 0 __atexit_handler_wrapper
PUBLIC 19694 0 atexit
PUBLIC 196b0 0 pthread_atfork
PUBLIC 196c0 0 unwind_phase2
PUBLIC 197f4 0 _Unwind_Resume
PUBLIC 19878 0 unwind_phase2_forced
PUBLIC m 1996c 0 __unw_init_local
PUBLIC m 19a14 0 __unw_get_reg
PUBLIC 19a90 0 __unw_step_stage2
PUBLIC m 19aa4 0 __unw_get_proc_info
PUBLIC m 19ae4 0 __unw_resume
PUBLIC 19b0c 0 libunwind::CFI_Parser<libunwind::LocalAddressSpace>::decodeFDE(libunwind::LocalAddressSpace&, unsigned long, libunwind::CFI_Parser<libunwind::LocalAddressSpace>::FDE_Info*, libunwind::CFI_Parser<libunwind::LocalAddressSpace>::CIE_Info*, bool)
PUBLIC 19c9c 0 libunwind::CFI_Parser<libunwind::LocalAddressSpace>::parseCIE(libunwind::LocalAddressSpace&, unsigned long, libunwind::CFI_Parser<libunwind::LocalAddressSpace>::CIE_Info*)
PUBLIC 19f64 0 libunwind::AbstractUnwindCursor::~AbstractUnwindCursor()
PUBLIC 19f6c 0 libunwind::UnwindCursor<libunwind::LocalAddressSpace, libunwind::Registers_arm64>::~UnwindCursor()
PUBLIC 19f74 0 libunwind::UnwindCursor<libunwind::LocalAddressSpace, libunwind::Registers_arm64>::validReg(int)
PUBLIC 19fb8 0 libunwind::UnwindCursor<libunwind::LocalAddressSpace, libunwind::Registers_arm64>::getReg(int)
PUBLIC 1a0a0 0 libunwind::UnwindCursor<libunwind::LocalAddressSpace, libunwind::Registers_arm64>::setReg(int, unsigned long)
PUBLIC 1a188 0 libunwind::UnwindCursor<libunwind::LocalAddressSpace, libunwind::Registers_arm64>::validFloatReg(int)
PUBLIC 1a19c 0 libunwind::UnwindCursor<libunwind::LocalAddressSpace, libunwind::Registers_arm64>::getFloatReg(int)
PUBLIC 1a1ac 0 libunwind::UnwindCursor<libunwind::LocalAddressSpace, libunwind::Registers_arm64>::setFloatReg(int, double)
PUBLIC 1a1bc 0 libunwind::UnwindCursor<libunwind::LocalAddressSpace, libunwind::Registers_arm64>::step(bool)
PUBLIC 1a2ac 0 libunwind::UnwindCursor<libunwind::LocalAddressSpace, libunwind::Registers_arm64>::getInfo(unw_proc_info_t*)
PUBLIC 1a2f0 0 libunwind::UnwindCursor<libunwind::LocalAddressSpace, libunwind::Registers_arm64>::jumpto()
PUBLIC 1a2fc 0 libunwind::UnwindCursor<libunwind::LocalAddressSpace, libunwind::Registers_arm64>::isSignalFrame()
PUBLIC 1a308 0 libunwind::UnwindCursor<libunwind::LocalAddressSpace, libunwind::Registers_arm64>::getFunctionName(char*, unsigned long, unsigned long*)
PUBLIC 1a334 0 libunwind::UnwindCursor<libunwind::LocalAddressSpace, libunwind::Registers_arm64>::setInfoBasedOnIPRegister(bool)
PUBLIC 1a5b4 0 libunwind::UnwindCursor<libunwind::LocalAddressSpace, libunwind::Registers_arm64>::getRegisterName(int)
PUBLIC 1a5c0 0 libunwind::UnwindCursor<libunwind::LocalAddressSpace, libunwind::Registers_arm64>::stepThroughSigReturn(libunwind::Registers_arm64&)
PUBLIC 1a6e0 0 libunwind::DwarfInstructions<libunwind::LocalAddressSpace, libunwind::Registers_arm64>::stepWithDwarf(libunwind::LocalAddressSpace&, unsigned long, unsigned long, libunwind::Registers_arm64&, bool&, bool)
PUBLIC 1ab68 0 libunwind::CFI_Parser<libunwind::LocalAddressSpace>::parseFDEInstructions(libunwind::LocalAddressSpace&, libunwind::CFI_Parser<libunwind::LocalAddressSpace>::FDE_Info const&, libunwind::CFI_Parser<libunwind::LocalAddressSpace>::CIE_Info const&, unsigned long, int, libunwind::CFI_Parser<libunwind::LocalAddressSpace>::PrologInfo*)
PUBLIC 1b7b0 0 libunwind::DwarfInstructions<libunwind::LocalAddressSpace, libunwind::Registers_arm64>::getCFA(libunwind::LocalAddressSpace&, libunwind::CFI_Parser<libunwind::LocalAddressSpace>::PrologInfo const&, libunwind::Registers_arm64 const&)
PUBLIC 1b8e4 0 libunwind::DwarfInstructions<libunwind::LocalAddressSpace, libunwind::Registers_arm64>::getSavedRegister(libunwind::LocalAddressSpace&, libunwind::Registers_arm64 const&, unsigned long, libunwind::CFI_Parser<libunwind::LocalAddressSpace>::RegisterLocation const&)
PUBLIC 1baf4 0 libunwind::LocalAddressSpace::getEncodedP(unsigned long&, unsigned long, unsigned char, unsigned long)
PUBLIC 1be80 0 libunwind::LocalAddressSpace::getULEB128(unsigned long&, unsigned long)
PUBLIC 1c048 0 libunwind::DwarfInstructions<libunwind::LocalAddressSpace, libunwind::Registers_arm64>::evaluateExpression(unsigned long, libunwind::LocalAddressSpace&, libunwind::Registers_arm64 const&, unsigned long)
PUBLIC 1ca04 0 libunwind::UnwindCursor<libunwind::LocalAddressSpace, libunwind::Registers_arm64>::getInfoFromDwarfSection(unsigned long, libunwind::UnwindInfoSections const&, unsigned int)
PUBLIC 1ccd8 0 libunwind::findUnwindSectionsByPhdr(dl_phdr_info*, unsigned long, void*)
PUBLIC 1ce0c 0 libunwind::EHHeaderParser<libunwind::LocalAddressSpace>::decodeEHHdr(libunwind::LocalAddressSpace&, unsigned long, unsigned long, libunwind::EHHeaderParser<libunwind::LocalAddressSpace>::EHHeaderInfo&)
PUBLIC 1cf2c 0 libunwind::CFI_Parser<libunwind::LocalAddressSpace>::findFDE(libunwind::LocalAddressSpace&, unsigned long, unsigned long, unsigned long, unsigned long, libunwind::CFI_Parser<libunwind::LocalAddressSpace>::FDE_Info*, libunwind::CFI_Parser<libunwind::LocalAddressSpace>::CIE_Info*)
PUBLIC 1d0f4 0 libunwind::EHHeaderParser<libunwind::LocalAddressSpace>::findFDE(libunwind::LocalAddressSpace&, unsigned long, unsigned long, unsigned int, libunwind::CFI_Parser<libunwind::LocalAddressSpace>::FDE_Info*, libunwind::CFI_Parser<libunwind::LocalAddressSpace>::CIE_Info*)
PUBLIC 1d25c 0 libunwind::EHHeaderParser<libunwind::LocalAddressSpace>::getTableEntrySize(unsigned char)
PUBLIC 1d358 0 libunwind::Registers_arm64::getRegisterName(int)
PUBLIC 1d388 0 __libunwind_Registers_arm64_jumpto
PUBLIC m 1d418 0 __unw_getcontext
PUBLIC 1d4c0 0 __aarch64_ldadd8_relax
PUBLIC 1d4f0 0 init_have_lse_atomics
PUBLIC 1d588 0 __init_cpu_features_constructor
PUBLIC 1db24 0 __init_cpu_features
PUBLIC 1dbb0 0 __aarch64_ldadd8_acq_rel
PUBLIC 1dbe0 0 geodeExecFunction20<(anonymous namespace)::ExecFuncUnique20>(geode::ModStateEvent*)
PUBLIC 1dce4 0 __cxx_global_var_init.1
PUBLIC 1dd98 0 __cxx_global_var_init.2
PUBLIC 1e218 0 geode::modifier::ModifyBase<geode::modifier::ModifyDerive<MyPauseLayer, PauseLayer> >::~ModifyBase()
PUBLIC 1e234 0 std::__ndk1::basic_string<char, std::__ndk1::char_traits<char>, std::__ndk1::allocator<char> >::__throw_length_error[abi:ne180000]() const
PUBLIC 1e248 0 std::__ndk1::__throw_length_error[abi:ne180000](char const*)
PUBLIC 1e298 0 std::length_error::length_error[abi:ne180000](char const*)
PUBLIC 1e2c8 0 std::__throw_bad_array_new_length([abi:ne180000], void)
PUBLIC 1e2fc 0 __clang_call_terminate
PUBLIC 1e30c 0 getSpriteDir()
PUBLIC 1e614 0 geode::log::error<char const*>(fmt::v11::basic_format_string<char, fmt::v11::type_identity<std::__ndk1::conditional<IsWrappedCocos<char const*>, decltype ((wrapCocosObj<char const*>)((std::declval<char const*>)())), char const*>::type>::type>, char const*&&)
PUBLIC 1e6ac 0 std::__ndk1::__fs::filesystem::path::operator/=[abi:ne180000](std::__ndk1::__fs::filesystem::path const&)
PUBLIC 1e794 0 std::__ndk1::basic_string<char, std::__ndk1::char_traits<char>, std::__ndk1::allocator<char> >::__init_copy_ctor_external(char const*, unsigned long)
PUBLIC 1e814 0 std::__ndk1::basic_string<char, std::__ndk1::char_traits<char>, std::__ndk1::allocator<char> >::__assign_no_alias<true>(char const*, unsigned long)
PUBLIC 1e8c0 0 std::__ndk1::basic_string<char, std::__ndk1::char_traits<char>, std::__ndk1::allocator<char> >::__assign_no_alias<false>(char const*, unsigned long)
PUBLIC 1e9d0 0 _ZNSt6__ndk112basic_stringIcNS_11char_traitsIcEENS_9allocatorIcEEE6appendB8ne180000IPKcTnNS_9enable_ifIXsr31__has_forward_iterator_categoryIT_EE5valueEiE4typeELi0EEERS5_SA_SA_
PUBLIC 1ecd4 0 std::__ndk1::basic_string<char8_t, std::__ndk1::char_traits<char8_t>, std::__ndk1::allocator<char8_t> >::__throw_length_error[abi:ne180000]() const
PUBLIC 1ece8 0 geode::EventListener<geode::ModStateFilter>::getPool() const
PUBLIC 1ecec 0 geode::EventListener<geode::ModStateFilter>::handle(geode::Event*)
PUBLIC 1ee60 0 geode::EventListener<geode::ModStateFilter>::~EventListener()
PUBLIC 1eebc 0 geode::EventListener<geode::ModStateFilter>::~EventListener()
PUBLIC 1ef20 0 std::__ndk1::__function::__base<void (geode::ModStateEvent*)>::~__base()
PUBLIC 1ef24 0 std::__ndk1::__function::__func<void (*)(geode::ModStateEvent*), std::__ndk1::allocator<void (*)(geode::ModStateEvent*)>, void (geode::ModStateEvent*)>::~__func()
PUBLIC 1ef28 0 std::__ndk1::__function::__func<void (*)(geode::ModStateEvent*), std::__ndk1::allocator<void (*)(geode::ModStateEvent*)>, void (geode::ModStateEvent*)>::__clone() const
PUBLIC 1ef5c 0 std::__ndk1::__function::__func<void (*)(geode::ModStateEvent*), std::__ndk1::allocator<void (*)(geode::ModStateEvent*)>, void (geode::ModStateEvent*)>::__clone(std::__ndk1::__function::__base<void (geode::ModStateEvent*)>*) const
PUBLIC 1ef70 0 std::__ndk1::__function::__func<void (*)(geode::ModStateEvent*), std::__ndk1::allocator<void (*)(geode::ModStateEvent*)>, void (geode::ModStateEvent*)>::destroy()
PUBLIC 1ef74 0 std::__ndk1::__function::__func<void (*)(geode::ModStateEvent*), std::__ndk1::allocator<void (*)(geode::ModStateEvent*)>, void (geode::ModStateEvent*)>::destroy_deallocate()
PUBLIC 1ef78 0 std::__ndk1::__function::__func<void (*)(geode::ModStateEvent*), std::__ndk1::allocator<void (*)(geode::ModStateEvent*)>, void (geode::ModStateEvent*)>::operator()(geode::ModStateEvent*&&)
PUBLIC 1ef88 0 std::__ndk1::__function::__func<void (*)(geode::ModStateEvent*), std::__ndk1::allocator<void (*)(geode::ModStateEvent*)>, void (geode::ModStateEvent*)>::target(std::type_info const&) const
PUBLIC 1efa4 0 std::__ndk1::__function::__func<void (*)(geode::ModStateEvent*), std::__ndk1::allocator<void (*)(geode::ModStateEvent*)>, void (geode::ModStateEvent*)>::target_type() const
PUBLIC 1efb0 0 geode::cast::traverseTypeinfoFor(void*, geode::cast::ClassTypeinfoType const*, char const*)
PUBLIC 1f0b4 0 geode::modifier::ModifyDerive<MyPauseLayer, PauseLayer>::apply()
PUBLIC 1f7cc 0 std::__ndk1::shared_ptr<geode::Hook>::~shared_ptr[abi:ne180000]()
PUBLIC 1f81c 0 geode::impl::ResultData<geode::Hook*, std::__ndk1::basic_string<char, std::__ndk1::char_traits<char>, std::__ndk1::allocator<char> > >::~ResultData()
PUBLIC 1f890 0 std::__ndk1::vector<std::__ndk1::basic_string<char, std::__ndk1::char_traits<char>, std::__ndk1::allocator<char> >, std::__ndk1::allocator<std::__ndk1::basic_string<char, std::__ndk1::char_traits<char>, std::__ndk1::allocator<char> > > >::~vector[abi:ne180000]()
PUBLIC 1f90c 0 geode::modifier::ModifyBase<geode::modifier::ModifyDerive<MyPauseLayer, PauseLayer> >::apply()
PUBLIC 1f910 0 _ZN5geode15UnwrapExceptionC2IRPNS_4HookEQsr4implE18IsStringStreamableIT_EEENS_4impl5OkTagEOS5_
PUBLIC 1fa64 0 std::__ndk1::__throw_bad_variant_access[abi:ne180000]()
PUBLIC 1fa98 0 std::__ndk1::basic_stringstream<char, std::__ndk1::char_traits<char>, std::__ndk1::allocator<char> >::basic_stringstream[abi:ne180000]()
PUBLIC m 1fbc4 0 std::__ndk1::basic_stringstream<char, std::__ndk1::char_traits<char>, std::__ndk1::allocator<char> >::~basic_stringstream()
PUBLIC 1fc44 0 geode::UnwrapException::~UnwrapException()
PUBLIC 1fc68 0 std::__ndk1::__put_character_sequence[abi:ne180000]<char, std::__ndk1::char_traits<char> >(std::__ndk1::basic_ostream<char, std::__ndk1::char_traits<char> >, std::__ndk1::basic_ostream const*, unsigned long)
PUBLIC 1fe0c 0 std::__ndk1::__pad_and_output[abi:ne180000]<char, std::__ndk1::char_traits<char> >(std::__ndk1::char_traits<char>, std::__ndk1::ostreambuf_iterator const*, std::__ndk1::ostreambuf_iterator const, std::__ndk1::ostreambuf_iterator const, std::__ndk1::ios_base&, std::__ndk1::ostreambuf_iterator)
PUBLIC 1ffe8 0 std::__ndk1::basic_stringbuf<char, std::__ndk1::char_traits<char>, std::__ndk1::allocator<char> >::str[abi:ne180000]() &&
PUBLIC 20160 0 std::__ndk1::basic_stringbuf<char, std::__ndk1::char_traits<char>, std::__ndk1::allocator<char> >::__init_buf_ptrs[abi:ne180000]()
PUBLIC 202a8 0 std::__ndk1::vector<std::__ndk1::basic_string<char, std::__ndk1::char_traits<char>, std::__ndk1::allocator<char> >, std::__ndk1::allocator<std::__ndk1::basic_string<char, std::__ndk1::char_traits<char>, std::__ndk1::allocator<char> > > >::__push_back_slow_path<std::__ndk1::basic_string<char, std::__ndk1::char_traits<char>, std::__ndk1::allocator<char> > const&>(std::__ndk1::basic_string<char, std::__ndk1::char_traits<char>, std::__ndk1::allocator<char> > const&)
PUBLIC 204d0 0 std::__ndk1::__split_buffer<std::__ndk1::basic_string<char, std::__ndk1::char_traits<char>, std::__ndk1::allocator<char> >, std::__ndk1::allocator<std::__ndk1::basic_string<char, std::__ndk1::char_traits<char>, std::__ndk1::allocator<char> > >&>::~__split_buffer()
PUBLIC 20538 0 std::__ndk1::vector<std::__ndk1::basic_string<char, std::__ndk1::char_traits<char>, std::__ndk1::allocator<char> >, std::__ndk1::allocator<std::__ndk1::basic_string<char, std::__ndk1::char_traits<char>, std::__ndk1::allocator<char> > > >::__throw_length_error[abi:ne180000]() const
PUBLIC 2054c 0 std::__ndk1::__variant_detail::__visitation::__base::__dispatcher<(unsigned long)0>::__dispatch[abi:ne180000]<std::__ndk1::__variant_detail::__dtor<std::__ndk1::__variant_detail::__traits<geode::Hook*, std::__ndk1::basic_string<char, std::__ndk1::char_traits<char>, std::__ndk1::allocator<char> > >, (std::__ndk1::__variant_detail::_Trait)1>::__destroy[abi:ne180000]()::{lambda(auto:1&)#1}, std::__ndk1::__variant_detail::__base<(std::__ndk1::__variant_detail::__traits<geode::Hook*, std::__ndk1::basic_string<char, std::__ndk1::char_traits<char>, std::__ndk1::allocator<char> > >)1, geode::Hook, std::__ndk1::allocator<char> >&>(std::__ndk1::__variant_detail::__dtor<std::__ndk1::__variant_detail::__traits<geode::Hook*, std::__ndk1::basic_string<char, std::__ndk1::char_traits<char>, std::__ndk1::allocator<char> > >, (std::__ndk1::__variant_detail::_Trait)1>, std::__ndk1::__variant_detail::__base<(std::__ndk1::__variant_detail::__traits<geode::Hook*, std::__ndk1::basic_string<char, std::__ndk1::char_traits<char>, std::__ndk1::allocator<char> > >)1, geode::Hook, std::__ndk1::allocator<char> >&)
PUBLIC 20550 0 std::__ndk1::__variant_detail::__visitation::__base::__dispatcher<(unsigned long)1>::__dispatch[abi:ne180000]<std::__ndk1::__variant_detail::__dtor<std::__ndk1::__variant_detail::__traits<geode::Hook*, std::__ndk1::basic_string<char, std::__ndk1::char_traits<char>, std::__ndk1::allocator<char> > >, (std::__ndk1::__variant_detail::_Trait)1>::__destroy[abi:ne180000]()::{lambda(auto:1&)#1}, std::__ndk1::__variant_detail::__base<(std::__ndk1::__variant_detail::__traits<geode::Hook*, std::__ndk1::basic_string<char, std::__ndk1::char_traits<char>, std::__ndk1::allocator<char> > >)1, geode::Hook, std::__ndk1::allocator<char> >&>(std::__ndk1::__variant_detail::__dtor<std::__ndk1::__variant_detail::__traits<geode::Hook*, std::__ndk1::basic_string<char, std::__ndk1::char_traits<char>, std::__ndk1::allocator<char> > >, (std::__ndk1::__variant_detail::_Trait)1>, std::__ndk1::__variant_detail::__base<(std::__ndk1::__variant_detail::__traits<geode::Hook*, std::__ndk1::basic_string<char, std::__ndk1::char_traits<char>, std::__ndk1::allocator<char> > >)1, geode::Hook, std::__ndk1::allocator<char> >&)
PUBLIC 20564 0 std::__ndk1::__tree<std::__ndk1::__value_type<std::__ndk1::basic_string<char, std::__ndk1::char_traits<char>, std::__ndk1::allocator<char> >, std::__ndk1::shared_ptr<geode::Hook> >, std::__ndk1::__map_value_compare<std::__ndk1::basic_string<char, std::__ndk1::char_traits<char>, std::__ndk1::allocator<char> >, std::__ndk1::__value_type<std::__ndk1::basic_string<char, std::__ndk1::char_traits<char>, std::__ndk1::allocator<char> >, std::__ndk1::shared_ptr<geode::Hook> >, std::__ndk1::less<std::__ndk1::basic_string<char, std::__ndk1::char_traits<char>, std::__ndk1::allocator<char> > >, true>, std::__ndk1::allocator<std::__ndk1::__value_type<std::__ndk1::basic_string<char, std::__ndk1::char_traits<char>, std::__ndk1::allocator<char> >, std::__ndk1::shared_ptr<geode::Hook> > > >::find<std::__ndk1::basic_string<char, std::__ndk1::char_traits<char>, std::__ndk1::allocator<char> > >(std::__ndk1::basic_string<char, std::__ndk1::char_traits<char>, std::__ndk1::allocator<char> > const&)
PUBLIC 20684 0 std::__ndk1::__tree<std::__ndk1::__value_type<std::__ndk1::basic_string<char, std::__ndk1::char_traits<char>, std::__ndk1::allocator<char> >, std::__ndk1::shared_ptr<geode::Hook> >, std::__ndk1::__map_value_compare<std::__ndk1::basic_string<char, std::__ndk1::char_traits<char>, std::__ndk1::allocator<char> >, std::__ndk1::__value_type<std::__ndk1::basic_string<char, std::__ndk1::char_traits<char>, std::__ndk1::allocator<char> >, std::__ndk1::shared_ptr<geode::Hook> >, std::__ndk1::less<std::__ndk1::basic_string<char, std::__ndk1::char_traits<char>, std::__ndk1::allocator<char> > >, true>, std::__ndk1::allocator<std::__ndk1::__value_type<std::__ndk1::basic_string<char, std::__ndk1::char_traits<char>, std::__ndk1::allocator<char> >, std::__ndk1::shared_ptr<geode::Hook> > > >::erase(std::__ndk1::__tree_const_iterator<std::__ndk1::__value_type<std::__ndk1::basic_string<char, std::__ndk1::char_traits<char>, std::__ndk1::allocator<char> >, std::__ndk1::shared_ptr<geode::Hook> >, std::__ndk1::__tree_node<std::__ndk1::__value_type<std::__ndk1::basic_string<char, std::__ndk1::char_traits<char>, std::__ndk1::allocator<char> >, std::__ndk1::shared_ptr<geode::Hook> >, void*>*, long>)
PUBLIC 20758 0 std::__ndk1::__tree_remove[abi:ne180000]<std::__ndk1::__tree_node_base<void*>*>(std::__ndk1::__tree_node_base<void*>*, std::__ndk1::__tree_node_base<void*>*)
PUBLIC 20b20 0 std::__ndk1::__tree<std::__ndk1::__value_type<std::__ndk1::basic_string<char, std::__ndk1::char_traits<char>, std::__ndk1::allocator<char> >, std::__ndk1::shared_ptr<geode::Hook> >, std::__ndk1::__map_value_compare<std::__ndk1::basic_string<char, std::__ndk1::char_traits<char>, std::__ndk1::allocator<char> >, std::__ndk1::__value_type<std::__ndk1::basic_string<char, std::__ndk1::char_traits<char>, std::__ndk1::allocator<char> >, std::__ndk1::shared_ptr<geode::Hook> >, std::__ndk1::less<std::__ndk1::basic_string<char, std::__ndk1::char_traits<char>, std::__ndk1::allocator<char> > >, true>, std::__ndk1::allocator<std::__ndk1::__value_type<std::__ndk1::basic_string<char, std::__ndk1::char_traits<char>, std::__ndk1::allocator<char> >, std::__ndk1::shared_ptr<geode::Hook> > > >::destroy(std::__ndk1::__tree_node<std::__ndk1::__value_type<std::__ndk1::basic_string<char, std::__ndk1::char_traits<char>, std::__ndk1::allocator<char> >, std::__ndk1::shared_ptr<geode::Hook> >, void*>*)
PUBLIC 20bac 0 geode::modifier::AsStaticFunction_customSetup<MyPauseLayer, void (MyPauseLayer::*)()>::Impl<void (MyPauseLayer::*)()>::function(MyPauseLayer*)
PUBLIC 20c90 0 geode::Hook::create<void (*)(MyPauseLayer*, cocos2d::CCObject*)>(void*, void (*)(MyPauseLayer*, cocos2d::CCObject*), std::__ndk1::basic_string<char, std::__ndk1::char_traits<char>, std::__ndk1::allocator<char> > const&, tulip::hook::TulipConvention, tulip::hook::HookMetadata const&)
PUBLIC 20e14 0 geode::modifier::AsStaticFunction_onQuit<MyPauseLayer, void (MyPauseLayer::*)(cocos2d::CCObject*)>::Impl<void (MyPauseLayer::*)(cocos2d::CCObject*)>::function(MyPauseLayer*, cocos2d::CCObject*)
PUBLIC 20e3c 0 geode::modifier::AsStaticFunction_onResume<MyPauseLayer, void (MyPauseLayer::*)(cocos2d::CCObject*)>::Impl<void (MyPauseLayer::*)(cocos2d::CCObject*)>::function(MyPauseLayer*, cocos2d::CCObject*)
PUBLIC 20e68 0 geode::addresser::Addresser::addressOfVirtual<void, PauseLayer, >(void (PauseLayer::*)())
PUBLIC 20f10 0 PauseLayer::PauseLayer(geode::ZeroConstructorType)
PUBLIC 20f9c 0 std::__ndk1::shared_ptr<tulip::hook::CallingConvention>::~shared_ptr[abi:ne180000]()
PUBLIC 20fec 0 tulip::hook::HandlerMetadata::~HandlerMetadata()
PUBLIC 21050 0 geode::Mod::getSettingValue<bool>(std::__ndk1::basic_string_view<char, std::__ndk1::char_traits<char> >) const
PUBLIC 21184 0 MyPauseLayer::onClick(cocos2d::CCObject*)
PUBLIC 211c0 0 std::__ndk1::__tree<std::__ndk1::__value_type<std::__ndk1::basic_string<char, std::__ndk1::char_traits<char>, std::__ndk1::allocator<char> >, std::__ndk1::shared_ptr<geode::Hook> >, std::__ndk1::__map_value_compare<std::__ndk1::basic_string<char, std::__ndk1::char_traits<char>, std::__ndk1::allocator<char> >, std::__ndk1::__value_type<std::__ndk1::basic_string<char, std::__ndk1::char_traits<char>, std::__ndk1::allocator<char> >, std::__ndk1::shared_ptr<geode::Hook> >, std::__ndk1::less<std::__ndk1::basic_string<char, std::__ndk1::char_traits<char>, std::__ndk1::allocator<char> > >, true>, std::__ndk1::allocator<std::__ndk1::__value_type<std::__ndk1::basic_string<char, std::__ndk1::char_traits<char>, std::__ndk1::allocator<char> >, std::__ndk1::shared_ptr<geode::Hook> > > >::__emplace_unique_key_args<std::__ndk1::basic_string<char, std::__ndk1::char_traits<char>, std::__ndk1::allocator<char> >, std::__ndk1::piecewise_construct_t const&, std::__ndk1::tuple<std::__ndk1::basic_string<char, std::__ndk1::char_traits<char>, std::__ndk1::allocator<char> >&&>, std::__ndk1::tuple<> >(std::__ndk1::basic_string<char, std::__ndk1::char_traits<char>, std::__ndk1::allocator<char> > const&, std::__ndk1::piecewise_construct_t const&, std::__ndk1::tuple<std::__ndk1::basic_string<char, std::__ndk1::char_traits<char>, std::__ndk1::allocator<char> >&&>, std::__ndk1::tuple<>)
PUBLIC 21338 0 std::__ndk1::__tree_balance_after_insert[abi:ne180000]<std::__ndk1::__tree_node_base<void*>*>(std::__ndk1::__tree_node_base<void*>*, std::__ndk1::__tree_node_base<void*>*)
PUBLIC 214e8 0 _GLOBAL__sub_I_PauseLayer.cpp
PUBLIC 21614 0 geodeExecFunction20<(anonymous namespace)::ExecFuncUnique20>(geode::ModStateEvent*)
PUBLIC 21718 0 ComboBurst::loadSprites()
PUBLIC 22960 0 __cxx_global_var_init.3
PUBLIC 22de0 0 geode::modifier::ModifyBase<geode::modifier::ModifyDerive<MyPlayLayer, PlayLayer> >::~ModifyBase()
PUBLIC 22dfc 0 geode::modifier::FieldIntermediate<MyPlayLayer, PlayLayer>::self()
PUBLIC 2343c 0 geode::modifier::FieldIntermediate<MyPlayLayer, PlayLayer>::fieldDestructor(void*)
PUBLIC 23440 0 std::__ndk1::vector<void*, std::__ndk1::allocator<void*> >::__throw_length_error[abi:ne180000]() const
PUBLIC 23454 0 std::__ndk1::vector<std::__ndk1::function<void (void*)>, std::__ndk1::allocator<std::__ndk1::function<void (void*)> > >::__throw_length_error[abi:ne180000]() const
PUBLIC 23468 0 std::__ndk1::vector<void*, std::__ndk1::allocator<void*> >::__throw_out_of_range[abi:ne180000]() const
PUBLIC 23474 0 std::__ndk1::__throw_out_of_range[abi:ne180000](char const*)
PUBLIC 234c4 0 std::out_of_range::out_of_range[abi:ne180000](char const*)
PUBLIC 234f4 0 std::__ndk1::vector<std::__ndk1::function<void (void*)>, std::__ndk1::allocator<std::__ndk1::function<void (void*)> > >::__throw_out_of_range[abi:ne180000]() const
PUBLIC 23500 0 std::__ndk1::__function::__base<void (void*)>::~__base()
PUBLIC 23504 0 std::__ndk1::__function::__func<void (*)(void*), std::__ndk1::allocator<void (*)(void*)>, void (void*)>::~__func()
PUBLIC 23508 0 std::__ndk1::__function::__func<void (*)(void*), std::__ndk1::allocator<void (*)(void*)>, void (void*)>::__clone() const
PUBLIC 23540 0 std::__ndk1::__function::__func<void (*)(void*), std::__ndk1::allocator<void (*)(void*)>, void (void*)>::__clone(std::__ndk1::__function::__base<void (void*)>*) const
PUBLIC 23558 0 std::__ndk1::__function::__func<void (*)(void*), std::__ndk1::allocator<void (*)(void*)>, void (void*)>::destroy()
PUBLIC 2355c 0 std::__ndk1::__function::__func<void (*)(void*), std::__ndk1::allocator<void (*)(void*)>, void (void*)>::destroy_deallocate()
PUBLIC 23560 0 std::__ndk1::__function::__func<void (*)(void*), std::__ndk1::allocator<void (*)(void*)>, void (void*)>::operator()(void*&&)
PUBLIC 23570 0 std::__ndk1::__function::__func<void (*)(void*), std::__ndk1::allocator<void (*)(void*)>, void (void*)>::target(std::type_info const&) const
PUBLIC 2358c 0 std::__ndk1::__function::__func<void (*)(void*), std::__ndk1::allocator<void (*)(void*)>, void (void*)>::target_type() const
PUBLIC 23598 0 geode::Mod::getSettingValue<std::__ndk1::basic_string<char, std::__ndk1::char_traits<char>, std::__ndk1::allocator<char> > >(std::__ndk1::basic_string_view<char, std::__ndk1::char_traits<char> >) const
PUBLIC 2372c 0 ComboBurst::getSpritePackID()
PUBLIC 23880 0 ComboBurst::getSoundFile(std::__ndk1::basic_string<char, std::__ndk1::char_traits<char>, std::__ndk1::allocator<char> >)
PUBLIC 23dcc 0 std::__ndk1::__tree<std::__ndk1::__value_type<std::__ndk1::basic_string<char, std::__ndk1::char_traits<char>, std::__ndk1::allocator<char> >, ComboBurst::PopupEffect>, std::__ndk1::__map_value_compare<std::__ndk1::basic_string<char, std::__ndk1::char_traits<char>, std::__ndk1::allocator<char> >, std::__ndk1::__value_type<std::__ndk1::basic_string<char, std::__ndk1::char_traits<char>, std::__ndk1::allocator<char> >, ComboBurst::PopupEffect>, std::__ndk1::less<std::__ndk1::basic_string<char, std::__ndk1::char_traits<char>, std::__ndk1::allocator<char> > >, true>, std::__ndk1::allocator<std::__ndk1::__value_type<std::__ndk1::basic_string<char, std::__ndk1::char_traits<char>, std::__ndk1::allocator<char> >, ComboBurst::PopupEffect> > >::__emplace_unique_key_args<std::__ndk1::basic_string<char, std::__ndk1::char_traits<char>, std::__ndk1::allocator<char> >, std::__ndk1::piecewise_construct_t const&, std::__ndk1::tuple<std::__ndk1::basic_string<char, std::__ndk1::char_traits<char>, std::__ndk1::allocator<char> > const&>, std::__ndk1::tuple<> >(std::__ndk1::basic_string<char, std::__ndk1::char_traits<char>, std::__ndk1::allocator<char> > const&, std::__ndk1::piecewise_construct_t const&, std::__ndk1::tuple<std::__ndk1::basic_string<char, std::__ndk1::char_traits<char>, std::__ndk1::allocator<char> > const&>, std::__ndk1::tuple<>)
PUBLIC 23fa0 0 std::__ndk1::unique_ptr<std::__ndk1::__tree_node<std::__ndk1::__value_type<std::__ndk1::basic_string<char, std::__ndk1::char_traits<char>, std::__ndk1::allocator<char> >, ComboBurst::PopupEffect>, void*>, std::__ndk1::__tree_node_destructor<std::__ndk1::allocator<std::__ndk1::__tree_node<std::__ndk1::__value_type<std::__ndk1::basic_string<char, std::__ndk1::char_traits<char>, std::__ndk1::allocator<char> >, ComboBurst::PopupEffect>, void*> > > >::~unique_ptr[abi:ne180000]()
PUBLIC 23ff0 0 std::__ndk1::shared_ptr<geode::SettingV3>::~shared_ptr[abi:ne180000]()
PUBLIC 24040 0 std::__ndk1::shared_ptr<geode::StringSettingV3>::~shared_ptr[abi:ne180000]()
PUBLIC 24090 0 std::__ndk1::__exception_guard_exceptions<std::__ndk1::vector<std::__ndk1::basic_string<char, std::__ndk1::char_traits<char>, std::__ndk1::allocator<char> >, std::__ndk1::allocator<std::__ndk1::basic_string<char, std::__ndk1::char_traits<char>, std::__ndk1::allocator<char> > > >::__destroy_vector>::~__exception_guard_exceptions[abi:ne180000]()
PUBLIC 2411c 0 std::__ndk1::shared_ptr<geode::BoolSettingV3>::~shared_ptr[abi:ne180000]()
PUBLIC 2416c 0 std::__ndk1::shared_ptr<geode::FloatSettingV3>::~shared_ptr[abi:ne180000]()
PUBLIC 241bc 0 std::__ndk1::vector<std::__ndk1::basic_string<char, std::__ndk1::char_traits<char>, std::__ndk1::allocator<char> >, std::__ndk1::allocator<std::__ndk1::basic_string<char, std::__ndk1::char_traits<char>, std::__ndk1::allocator<char> > > >::__push_back_slow_path<std::__ndk1::basic_string<char, std::__ndk1::char_traits<char>, std::__ndk1::allocator<char> > >(std::__ndk1::basic_string<char, std::__ndk1::char_traits<char>, std::__ndk1::allocator<char> >&&)
PUBLIC 24324 0 geode::modifier::ModifyDerive<MyPlayLayer, PlayLayer>::apply()
PUBLIC 24db8 0 geode::modifier::ModifyBase<geode::modifier::ModifyDerive<MyPlayLayer, PlayLayer> >::apply()
PUBLIC 24dbc 0 geode::modifier::AsStaticFunction_checkpointActivated<MyPlayLayer, void (MyPlayLayer::*)(CheckpointGameObject*)>::Impl<void (MyPlayLayer::*)(CheckpointGameObject*)>::function(MyPlayLayer*, CheckpointGameObject*)
PUBLIC 24e64 0 geode::modifier::AsStaticFunction_init<MyPlayLayer, bool (MyPlayLayer::*)(GJGameLevel*, bool, bool)>::Impl<bool (MyPlayLayer::*)(GJGameLevel*, bool, bool)>::function(MyPlayLayer*, GJGameLevel*, bool, bool)
PUBLIC 24f98 0 geode::Hook::create<void (*)(MyPlayLayer*)>(void*, void (*)(MyPlayLayer*), std::__ndk1::basic_string<char, std::__ndk1::char_traits<char>, std::__ndk1::allocator<char> > const&, tulip::hook::TulipConvention, tulip::hook::HookMetadata const&)
PUBLIC 250cc 0 geode::modifier::AsStaticFunction_resetLevel<MyPlayLayer, void (MyPlayLayer::*)()>::Impl<void (MyPlayLayer::*)()>::function(MyPlayLayer*)
PUBLIC 25124 0 geode::modifier::AsStaticFunction_updateProgressbar<MyPlayLayer, void (MyPlayLayer::*)()>::Impl<void (MyPlayLayer::*)()>::function(MyPlayLayer*)
PUBLIC 25228 0 geode::addresser::Addresser::addressOfVirtual<void, PlayLayer, CheckpointGameObject*>(void (PlayLayer::*)(CheckpointGameObject*))
PUBLIC 252f0 0 PlayLayer::PlayLayer(geode::ZeroConstructorType)
PUBLIC 25b0c 0 GJGameState::GJGameState()
PUBLIC 26084 0 geode::stl::unordered_map<int, int, geode::stl::hash<int>, geode::stl::equal_to<int>, std::__ndk1::allocator<std::__ndk1::pair<int const, int> > >::~unordered_map()
PUBLIC 260fc 0 geode::stl::unordered_set<int, geode::stl::hash<int>, geode::stl::equal_to<int>, std::__ndk1::allocator<int> >::~unordered_set()
PUBLIC 26174 0 geode::stl::unordered_map<int, gd::string, geode::stl::hash<int>, geode::stl::equal_to<int>, std::__ndk1::allocator<std::__ndk1::pair<int const, gd::string> > >::~unordered_map()
PUBLIC 261f8 0 gd::map<std::__ndk1::pair<int, int>, int>::~map()
PUBLIC 26214 0 geode::stl::unordered_map<int, gd::vector<LabelGameObject*>, geode::stl::hash<int>, geode::stl::equal_to<int>, std::__ndk1::allocator<std::__ndk1::pair<int const, gd::vector<LabelGameObject*> > > >::~unordered_map()
PUBLIC 262a0 0 geode::stl::unordered_map<int, std::__ndk1::pair<int, int>, geode::stl::hash<int>, geode::stl::equal_to<int>, std::__ndk1::allocator<std::__ndk1::pair<int const, std::__ndk1::pair<int, int> > > >::~unordered_map()
PUBLIC 26318 0 geode::stl::unordered_map<int, gd::vector<GameObject*>, geode::stl::hash<int>, geode::stl::equal_to<int>, std::__ndk1::allocator<std::__ndk1::pair<int const, gd::vector<GameObject*> > > >::~unordered_map()
PUBLIC 263a4 0 geode::stl::unordered_map<int, cocos2d::CCPoint, geode::stl::hash<int>, geode::stl::equal_to<int>, std::__ndk1::allocator<std::__ndk1::pair<int const, cocos2d::CCPoint> > >::~unordered_map()
PUBLIC 2641c 0 gd::vector<geode::stl::unordered_map<int, int, geode::stl::hash<int>, geode::stl::equal_to<int>, std::__ndk1::allocator<std::__ndk1::pair<int const, int> > > >::~vector()
PUBLIC 26520 0 GJGameState::~GJGameState()
PUBLIC 26918 0 cocos2d::CCCopying::copyWithZone(cocos2d::CCZone*)
PUBLIC 26920 0 geode::stl::unordered_map<int, SongChannelState, geode::stl::hash<int>, geode::stl::equal_to<int>, std::__ndk1::allocator<std::__ndk1::pair<int const, SongChannelState> > >::~unordered_map()
PUBLIC 26998 0 gd::map<std::__ndk1::pair<int, int>, SFXTriggerInstance>::~map()
PUBLIC 269b4 0 geode::stl::unordered_map<int, std::__ndk1::vector<int, std::__ndk1::allocator<int> >, geode::stl::hash<int>, geode::stl::equal_to<int>, std::__ndk1::allocator<std::__ndk1::pair<int const, std::__ndk1::vector<int, std::__ndk1::allocator<int> > > > >::~unordered_map()
PUBLIC 26a44 0 gd::vector<EnterEffectInstance>::~vector()
PUBLIC 26adc 0 geode::stl::unordered_map<int, std::__ndk1::vector<EnterEffectInstance, std::__ndk1::allocator<EnterEffectInstance> >, geode::stl::hash<int>, geode::stl::equal_to<int>, std::__ndk1::allocator<std::__ndk1::pair<int const, std::__ndk1::vector<EnterEffectInstance, std::__ndk1::allocator<EnterEffectInstance> > > > >::~unordered_map()
PUBLIC 26b18 0 gd::map<std::__ndk1::pair<GJGameEvent, int>, int>::~map()
PUBLIC 26b34 0 gd::map<std::__ndk1::pair<GJGameEvent, int>, gd::vector<EventTriggerInstance> >::~map()
PUBLIC 26b50 0 geode::stl::unordered_map<int, EnhancedGameObject*, geode::stl::hash<int>, geode::stl::equal_to<int>, std::__ndk1::allocator<std::__ndk1::pair<int const, EnhancedGameObject*> > >::~unordered_map()
PUBLIC 26bc8 0 geode::stl::unordered_map<int, GameObjectPhysics, geode::stl::hash<int>, geode::stl::equal_to<int>, std::__ndk1::allocator<std::__ndk1::pair<int const, GameObjectPhysics> > >::~unordered_map()
PUBLIC 26c40 0 geode::stl::unordered_map<int, GJValueTween, geode::stl::hash<int>, geode::stl::equal_to<int>, std::__ndk1::allocator<std::__ndk1::pair<int const, GJValueTween> > >::~unordered_map()
PUBLIC 26cb8 0 geode::stl::unordered_map<int, bool, geode::stl::hash<int>, geode::stl::equal_to<int>, std::__ndk1::allocator<std::__ndk1::pair<int const, bool> > >::~unordered_map()
PUBLIC 26d30 0 gd::map<std::__ndk1::pair<GJGameEvent, int>, gd::vector<EventTriggerInstance> >::map(std::__ndk1::map<std::__ndk1::pair<GJGameEvent, int>, gd::vector<EventTriggerInstance>, std::__ndk1::less<std::__ndk1::pair<GJGameEvent, int> >, std::__ndk1::allocator<std::__ndk1::pair<std::__ndk1::pair<GJGameEvent, int> const, gd::vector<EventTriggerInstance> > > >)
PUBLIC 26efc 0 gd::map<std::__ndk1::pair<GJGameEvent, int>, gd::vector<EventTriggerInstance> >::insert_pair(std::__ndk1::pair<std::__ndk1::pair<GJGameEvent, int>, gd::vector<EventTriggerInstance> > const&)
PUBLIC 271b4 0 std::__ndk1::pair<std::__ndk1::pair<GJGameEvent, int>, gd::vector<EventTriggerInstance> >::~pair()
PUBLIC 27234 0 std::__ndk1::pair<std::__ndk1::pair<GJGameEvent, int> const, gd::vector<EventTriggerInstance> >::~pair()
PUBLIC 272b4 0 gd::vector<EventTriggerInstance>::vector(gd::vector<EventTriggerInstance> const&)
PUBLIC 27454 0 geode::stl::_rb_insert_rebalance(bool, geode::stl::_rb_tree_base*, geode::stl::_rb_tree_base*, geode::stl::_rb_tree_base&)
PUBLIC 2770c 0 gd::vector<EventTriggerInstance>::operator=(gd::vector<EventTriggerInstance> const&)
PUBLIC 278c8 0 gd::vector<EventTriggerInstance>::~vector()
PUBLIC 27948 0 std::__ndk1::__tree<std::__ndk1::__value_type<std::__ndk1::pair<GJGameEvent, int>, gd::vector<EventTriggerInstance> >, std::__ndk1::__map_value_compare<std::__ndk1::pair<GJGameEvent, int>, std::__ndk1::__value_type<std::__ndk1::pair<GJGameEvent, int>, gd::vector<EventTriggerInstance> >, std::__ndk1::less<std::__ndk1::pair<GJGameEvent, int> >, true>, std::__ndk1::allocator<std::__ndk1::__value_type<std::__ndk1::pair<GJGameEvent, int>, gd::vector<EventTriggerInstance> > > >::destroy(std::__ndk1::__tree_node<std::__ndk1::__value_type<std::__ndk1::pair<GJGameEvent, int>, gd::vector<EventTriggerInstance> >, void*>*)
PUBLIC 279e0 0 gd::map<std::__ndk1::pair<int, int>, SFXTriggerInstance>::erase(geode::stl::_rb_tree_node<std::__ndk1::pair<std::__ndk1::pair<int, int>, SFXTriggerInstance> >*)
PUBLIC 27a34 0 gd::map<int, EnterEffectAnimValue>::erase(geode::stl::_rb_tree_node<std::__ndk1::pair<int, EnterEffectAnimValue> >*)
PUBLIC 27a88 0 geode::stl::_Hashtable<int, std::__ndk1::pair<int const, std::__ndk1::vector<EnterEffectInstance, std::__ndk1::allocator<EnterEffectInstance> > >, std::__ndk1::allocator<std::__ndk1::pair<int const, std::__ndk1::vector<EnterEffectInstance, std::__ndk1::allocator<EnterEffectInstance> > > >, geode::stl::__detail::_Select1st, geode::stl::equal_to<int>, geode::stl::hash<int>, geode::stl::__detail::_Mod_range_hashing, geode::stl::__detail::_Default_ranged_hash, geode::stl::__detail::_Prime_rehash_policy, geode::stl::__detail::_Hashtable_traits<false, false, true> >::clear()
PUBLIC 27b30 0 gd::map<std::__ndk1::pair<GJGameEvent, int>, int>::erase(geode::stl::_rb_tree_node<std::__ndk1::pair<std::__ndk1::pair<GJGameEvent, int>, int> >*)
PUBLIC 27b84 0 gd::map<std::__ndk1::pair<GJGameEvent, int>, gd::vector<EventTriggerInstance> >::erase(geode::stl::_rb_tree_node<std::__ndk1::pair<std::__ndk1::pair<GJGameEvent, int>, gd::vector<EventTriggerInstance> > >*)
PUBLIC 27c2c 0 gd::map<std::__ndk1::pair<int, int>, int>::erase(geode::stl::_rb_tree_node<std::__ndk1::pair<std::__ndk1::pair<int, int>, int> >*)
PUBLIC 27c80 0 std::__ndk1::vector<tulip::hook::AbstractType, std::__ndk1::allocator<tulip::hook::AbstractType> >::__throw_length_error[abi:ne180000]() const
PUBLIC 27c94 0 ComboBurst::charBurst()
PUBLIC 285f4 0 geode::Mod::getSettingValue<long>(std::__ndk1::basic_string_view<char, std::__ndk1::char_traits<char> >) const
PUBLIC 2870c 0 ComboBurst::actionEnd()
PUBLIC 28718 0 cocos2d::CCSequence::create(cocos2d::CCFiniteTimeAction*, ...)
PUBLIC 287b0 0 std::__ndk1::shared_ptr<geode::IntSettingV3>::~shared_ptr[abi:ne180000]()
PUBLIC 28800 0 ComboBurst::ComboBurst()
PUBLIC 28a84 0 ComboBurst::init(PlayLayer*)
PUBLIC 28c20 0 ComboBurst::~ComboBurst()
PUBLIC 28cd0 0 ComboBurst::~ComboBurst()
PUBLIC 28d88 0 std::__ndk1::__tree<std::__ndk1::__value_type<std::__ndk1::basic_string<char, std::__ndk1::char_traits<char>, std::__ndk1::allocator<char> >, ComboBurst::PopupEffect>, std::__ndk1::__map_value_compare<std::__ndk1::basic_string<char, std::__ndk1::char_traits<char>, std::__ndk1::allocator<char> >, std::__ndk1::__value_type<std::__ndk1::basic_string<char, std::__ndk1::char_traits<char>, std::__ndk1::allocator<char> >, ComboBurst::PopupEffect>, std::__ndk1::less<std::__ndk1::basic_string<char, std::__ndk1::char_traits<char>, std::__ndk1::allocator<char> > >, true>, std::__ndk1::allocator<std::__ndk1::__value_type<std::__ndk1::basic_string<char, std::__ndk1::char_traits<char>, std::__ndk1::allocator<char> >, ComboBurst::PopupEffect> > >::__emplace_hint_unique_key_args<std::__ndk1::basic_string<char, std::__ndk1::char_traits<char>, std::__ndk1::allocator<char> >, std::__ndk1::pair<std::__ndk1::basic_string<char, std::__ndk1::char_traits<char>, std::__ndk1::allocator<char> > const, ComboBurst::PopupEffect> const&>(std::__ndk1::__tree_const_iterator<std::__ndk1::__value_type<std::__ndk1::basic_string<char, std::__ndk1::char_traits<char>, std::__ndk1::allocator<char> >, ComboBurst::PopupEffect>, std::__ndk1::__tree_node<std::__ndk1::__value_type<std::__ndk1::basic_string<char, std::__ndk1::char_traits<char>, std::__ndk1::allocator<char> >, ComboBurst::PopupEffect>, void*>*, long>, std::__ndk1::basic_string<char, std::__ndk1::char_traits<char>, std::__ndk1::allocator<char> > const&, std::__ndk1::pair<std::__ndk1::basic_string<char, std::__ndk1::char_traits<char>, std::__ndk1::allocator<char> > const, ComboBurst::PopupEffect> const&)
PUBLIC 291e4 0 std::__ndk1::__tree<std::__ndk1::__value_type<std::__ndk1::basic_string<char, std::__ndk1::char_traits<char>, std::__ndk1::allocator<char> >, ComboBurst::PopupEffect>, std::__ndk1::__map_value_compare<std::__ndk1::basic_string<char, std::__ndk1::char_traits<char>, std::__ndk1::allocator<char> >, std::__ndk1::__value_type<std::__ndk1::basic_string<char, std::__ndk1::char_traits<char>, std::__ndk1::allocator<char> >, ComboBurst::PopupEffect>, std::__ndk1::less<std::__ndk1::basic_string<char, std::__ndk1::char_traits<char>, std::__ndk1::allocator<char> > >, true>, std::__ndk1::allocator<std::__ndk1::__value_type<std::__ndk1::basic_string<char, std::__ndk1::char_traits<char>, std::__ndk1::allocator<char> >, ComboBurst::PopupEffect> > >::destroy(std::__ndk1::__tree_node<std::__ndk1::__value_type<std::__ndk1::basic_string<char, std::__ndk1::char_traits<char>, std::__ndk1::allocator<char> >, ComboBurst::PopupEffect>, void*>*)
PUBLIC 2922c 0 geode::EventListener<geode::SettingChangedFilterV3>::EventListener(std::__ndk1::function<void (std::__ndk1::shared_ptr<geode::SettingV3>)>, geode::SettingChangedFilterV3)
PUBLIC 29324 0 geode::SettingChangedFilterV3::~SettingChangedFilterV3()
PUBLIC 29374 0 std::__ndk1::__function::__func<geode::listenForSettingChangesV3<std::__ndk1::basic_string<char, std::__ndk1::char_traits<char>, std::__ndk1::allocator<char> >, geodeExecFunction85<(anonymous namespace)::ExecFuncUnique85>()::{lambda(std::__ndk1::basic_string<char, std::__ndk1::char_traits<char>, std::__ndk1::allocator<char> >)#1}>(std::__ndk1::basic_string_view<char, std::__ndk1::char_traits<char> >, geodeExecFunction85<(anonymous namespace)::ExecFuncUnique85>()::{lambda(std::__ndk1::basic_string<char, std::__ndk1::char_traits<char>, std::__ndk1::allocator<char> >&&)#1}, geode::Mod*)::{lambda(std::__ndk1::shared_ptr<geode::SettingV3>)#1}, std::__ndk1::allocator<geode::listenForSettingChangesV3<std::__ndk1::basic_string<char, std::__ndk1::char_traits<char>, std::__ndk1::allocator<char> >, geodeExecFunction85<(anonymous namespace)::ExecFuncUnique85>()::{lambda(std::__ndk1::basic_string<char, std::__ndk1::char_traits<char>, std::__ndk1::allocator<char> >)#1}>(std::__ndk1::basic_string_view<char, std::__ndk1::char_traits<char> >, geodeExecFunction85<(anonymous namespace)::ExecFuncUnique85>()::{lambda(std::__ndk1::basic_string<char, std::__ndk1::char_traits<char>, std::__ndk1::allocator<char> >&&)#1}, geode::Mod*)::{lambda(std::__ndk1::shared_ptr<geode::SettingV3>)#1}>, void (std::__ndk1::shared_ptr<geode::SettingV3>)>::~__func()
PUBLIC 29378 0 std::__ndk1::__function::__func<geode::listenForSettingChangesV3<std::__ndk1::basic_string<char, std::__ndk1::char_traits<char>, std::__ndk1::allocator<char> >, geodeExecFunction85<(anonymous namespace)::ExecFuncUnique85>()::{lambda(std::__ndk1::basic_string<char, std::__ndk1::char_traits<char>, std::__ndk1::allocator<char> >)#1}>(std::__ndk1::basic_string_view<char, std::__ndk1::char_traits<char> >, geodeExecFunction85<(anonymous namespace)::ExecFuncUnique85>()::{lambda(std::__ndk1::basic_string<char, std::__ndk1::char_traits<char>, std::__ndk1::allocator<char> >&&)#1}, geode::Mod*)::{lambda(std::__ndk1::shared_ptr<geode::SettingV3>)#1}, std::__ndk1::allocator<geode::listenForSettingChangesV3<std::__ndk1::basic_string<char, std::__ndk1::char_traits<char>, std::__ndk1::allocator<char> >, geodeExecFunction85<(anonymous namespace)::ExecFuncUnique85>()::{lambda(std::__ndk1::basic_string<char, std::__ndk1::char_traits<char>, std::__ndk1::allocator<char> >)#1}>(std::__ndk1::basic_string_view<char, std::__ndk1::char_traits<char> >, geodeExecFunction85<(anonymous namespace)::ExecFuncUnique85>()::{lambda(std::__ndk1::basic_string<char, std::__ndk1::char_traits<char>, std::__ndk1::allocator<char> >&&)#1}, geode::Mod*)::{lambda(std::__ndk1::shared_ptr<geode::SettingV3>)#1}>, void (std::__ndk1::shared_ptr<geode::SettingV3>)>::__clone() const
PUBLIC 293b0 0 std::__ndk1::__function::__func<geode::listenForSettingChangesV3<std::__ndk1::basic_string<char, std::__ndk1::char_traits<char>, std::__ndk1::allocator<char> >, geodeExecFunction85<(anonymous namespace)::ExecFuncUnique85>()::{lambda(std::__ndk1::basic_string<char, std::__ndk1::char_traits<char>, std::__ndk1::allocator<char> >)#1}>(std::__ndk1::basic_string_view<char, std::__ndk1::char_traits<char> >, geodeExecFunction85<(anonymous namespace)::ExecFuncUnique85>()::{lambda(std::__ndk1::basic_string<char, std::__ndk1::char_traits<char>, std::__ndk1::allocator<char> >&&)#1}, geode::Mod*)::{lambda(std::__ndk1::shared_ptr<geode::SettingV3>)#1}, std::__ndk1::allocator<geode::listenForSettingChangesV3<std::__ndk1::basic_string<char, std::__ndk1::char_traits<char>, std::__ndk1::allocator<char> >, geodeExecFunction85<(anonymous namespace)::ExecFuncUnique85>()::{lambda(std::__ndk1::basic_string<char, std::__ndk1::char_traits<char>, std::__ndk1::allocator<char> >)#1}>(std::__ndk1::basic_string_view<char, std::__ndk1::char_traits<char> >, geodeExecFunction85<(anonymous namespace)::ExecFuncUnique85>()::{lambda(std::__ndk1::basic_string<char, std::__ndk1::char_traits<char>, std::__ndk1::allocator<char> >&&)#1}, geode::Mod*)::{lambda(std::__ndk1::shared_ptr<geode::SettingV3>)#1}>, void (std::__ndk1::shared_ptr<geode::SettingV3>)>::__clone(std::__ndk1::__function::__base<void (std::__ndk1::shared_ptr<geode::SettingV3>)>*) const
PUBLIC 293c8 0 std::__ndk1::__function::__func<geode::listenForSettingChangesV3<std::__ndk1::basic_string<char, std::__ndk1::char_traits<char>, std::__ndk1::allocator<char> >, geodeExecFunction85<(anonymous namespace)::ExecFuncUnique85>()::{lambda(std::__ndk1::basic_string<char, std::__ndk1::char_traits<char>, std::__ndk1::allocator<char> >)#1}>(std::__ndk1::basic_string_view<char, std::__ndk1::char_traits<char> >, geodeExecFunction85<(anonymous namespace)::ExecFuncUnique85>()::{lambda(std::__ndk1::basic_string<char, std::__ndk1::char_traits<char>, std::__ndk1::allocator<char> >&&)#1}, geode::Mod*)::{lambda(std::__ndk1::shared_ptr<geode::SettingV3>)#1}, std::__ndk1::allocator<geode::listenForSettingChangesV3<std::__ndk1::basic_string<char, std::__ndk1::char_traits<char>, std::__ndk1::allocator<char> >, geodeExecFunction85<(anonymous namespace)::ExecFuncUnique85>()::{lambda(std::__ndk1::basic_string<char, std::__ndk1::char_traits<char>, std::__ndk1::allocator<char> >)#1}>(std::__ndk1::basic_string_view<char, std::__ndk1::char_traits<char> >, geodeExecFunction85<(anonymous namespace)::ExecFuncUnique85>()::{lambda(std::__ndk1::basic_string<char, std::__ndk1::char_traits<char>, std::__ndk1::allocator<char> >&&)#1}, geode::Mod*)::{lambda(std::__ndk1::shared_ptr<geode::SettingV3>)#1}>, void (std::__ndk1::shared_ptr<geode::SettingV3>)>::destroy()
PUBLIC 293cc 0 std::__ndk1::__function::__func<geode::listenForSettingChangesV3<std::__ndk1::basic_string<char, std::__ndk1::char_traits<char>, std::__ndk1::allocator<char> >, geodeExecFunction85<(anonymous namespace)::ExecFuncUnique85>()::{lambda(std::__ndk1::basic_string<char, std::__ndk1::char_traits<char>, std::__ndk1::allocator<char> >)#1}>(std::__ndk1::basic_string_view<char, std::__ndk1::char_traits<char> >, geodeExecFunction85<(anonymous namespace)::ExecFuncUnique85>()::{lambda(std::__ndk1::basic_string<char, std::__ndk1::char_traits<char>, std::__ndk1::allocator<char> >&&)#1}, geode::Mod*)::{lambda(std::__ndk1::shared_ptr<geode::SettingV3>)#1}, std::__ndk1::allocator<geode::listenForSettingChangesV3<std::__ndk1::basic_string<char, std::__ndk1::char_traits<char>, std::__ndk1::allocator<char> >, geodeExecFunction85<(anonymous namespace)::ExecFuncUnique85>()::{lambda(std::__ndk1::basic_string<char, std::__ndk1::char_traits<char>, std::__ndk1::allocator<char> >)#1}>(std::__ndk1::basic_string_view<char, std::__ndk1::char_traits<char> >, geodeExecFunction85<(anonymous namespace)::ExecFuncUnique85>()::{lambda(std::__ndk1::basic_string<char, std::__ndk1::char_traits<char>, std::__ndk1::allocator<char> >&&)#1}, geode::Mod*)::{lambda(std::__ndk1::shared_ptr<geode::SettingV3>)#1}>, void (std::__ndk1::shared_ptr<geode::SettingV3>)>::destroy_deallocate()
PUBLIC 293d0 0 std::__ndk1::__function::__func<geode::listenForSettingChangesV3<std::__ndk1::basic_string<char, std::__ndk1::char_traits<char>, std::__ndk1::allocator<char> >, geodeExecFunction85<(anonymous namespace)::ExecFuncUnique85>()::{lambda(std::__ndk1::basic_string<char, std::__ndk1::char_traits<char>, std::__ndk1::allocator<char> >)#1}>(std::__ndk1::basic_string_view<char, std::__ndk1::char_traits<char> >, geodeExecFunction85<(anonymous namespace)::ExecFuncUnique85>()::{lambda(std::__ndk1::basic_string<char, std::__ndk1::char_traits<char>, std::__ndk1::allocator<char> >&&)#1}, geode::Mod*)::{lambda(std::__ndk1::shared_ptr<geode::SettingV3>)#1}, std::__ndk1::allocator<geode::listenForSettingChangesV3<std::__ndk1::basic_string<char, std::__ndk1::char_traits<char>, std::__ndk1::allocator<char> >, geodeExecFunction85<(anonymous namespace)::ExecFuncUnique85>()::{lambda(std::__ndk1::basic_string<char, std::__ndk1::char_traits<char>, std::__ndk1::allocator<char> >)#1}>(std::__ndk1::basic_string_view<char, std::__ndk1::char_traits<char> >, geodeExecFunction85<(anonymous namespace)::ExecFuncUnique85>()::{lambda(std::__ndk1::basic_string<char, std::__ndk1::char_traits<char>, std::__ndk1::allocator<char> >&&)#1}, geode::Mod*)::{lambda(std::__ndk1::shared_ptr<geode::SettingV3>)#1}>, void (std::__ndk1::shared_ptr<geode::SettingV3>)>::operator()(std::__ndk1::shared_ptr<geode::SettingV3>&&)
PUBLIC 2959c 0 std::__ndk1::__function::__func<geode::listenForSettingChangesV3<std::__ndk1::basic_string<char, std::__ndk1::char_traits<char>, std::__ndk1::allocator<char> >, geodeExecFunction85<(anonymous namespace)::ExecFuncUnique85>()::{lambda(std::__ndk1::basic_string<char, std::__ndk1::char_traits<char>, std::__ndk1::allocator<char> >)#1}>(std::__ndk1::basic_string_view<char, std::__ndk1::char_traits<char> >, geodeExecFunction85<(anonymous namespace)::ExecFuncUnique85>()::{lambda(std::__ndk1::basic_string<char, std::__ndk1::char_traits<char>, std::__ndk1::allocator<char> >&&)#1}, geode::Mod*)::{lambda(std::__ndk1::shared_ptr<geode::SettingV3>)#1}, std::__ndk1::allocator<geode::listenForSettingChangesV3<std::__ndk1::basic_string<char, std::__ndk1::char_traits<char>, std::__ndk1::allocator<char> >, geodeExecFunction85<(anonymous namespace)::ExecFuncUnique85>()::{lambda(std::__ndk1::basic_string<char, std::__ndk1::char_traits<char>, std::__ndk1::allocator<char> >)#1}>(std::__ndk1::basic_string_view<char, std::__ndk1::char_traits<char> >, geodeExecFunction85<(anonymous namespace)::ExecFuncUnique85>()::{lambda(std::__ndk1::basic_string<char, std::__ndk1::char_traits<char>, std::__ndk1::allocator<char> >&&)#1}, geode::Mod*)::{lambda(std::__ndk1::shared_ptr<geode::SettingV3>)#1}>, void (std::__ndk1::shared_ptr<geode::SettingV3>)>::target(std::type_info const&) const
PUBLIC 295b8 0 std::__ndk1::__function::__func<geode::listenForSettingChangesV3<std::__ndk1::basic_string<char, std::__ndk1::char_traits<char>, std::__ndk1::allocator<char> >, geodeExecFunction85<(anonymous namespace)::ExecFuncUnique85>()::{lambda(std::__ndk1::basic_string<char, std::__ndk1::char_traits<char>, std::__ndk1::allocator<char> >)#1}>(std::__ndk1::basic_string_view<char, std::__ndk1::char_traits<char> >, geodeExecFunction85<(anonymous namespace)::ExecFuncUnique85>()::{lambda(std::__ndk1::basic_string<char, std::__ndk1::char_traits<char>, std::__ndk1::allocator<char> >&&)#1}, geode::Mod*)::{lambda(std::__ndk1::shared_ptr<geode::SettingV3>)#1}, std::__ndk1::allocator<geode::listenForSettingChangesV3<std::__ndk1::basic_string<char, std::__ndk1::char_traits<char>, std::__ndk1::allocator<char> >, geodeExecFunction85<(anonymous namespace)::ExecFuncUnique85>()::{lambda(std::__ndk1::basic_string<char, std::__ndk1::char_traits<char>, std::__ndk1::allocator<char> >)#1}>(std::__ndk1::basic_string_view<char, std::__ndk1::char_traits<char> >, geodeExecFunction85<(anonymous namespace)::ExecFuncUnique85>()::{lambda(std::__ndk1::basic_string<char, std::__ndk1::char_traits<char>, std::__ndk1::allocator<char> >&&)#1}, geode::Mod*)::{lambda(std::__ndk1::shared_ptr<geode::SettingV3>)#1}>, void (std::__ndk1::shared_ptr<geode::SettingV3>)>::target_type() const
PUBLIC 295c4 0 geode::EventListener<geode::SettingChangedFilterV3>::getPool() const
PUBLIC 295c8 0 geode::EventListener<geode::SettingChangedFilterV3>::handle(geode::Event*)
PUBLIC 2973c 0 geode::EventListener<geode::SettingChangedFilterV3>::~EventListener()
PUBLIC 297d8 0 geode::EventListener<geode::SettingChangedFilterV3>::~EventListener()
PUBLIC 2987c 0 std::__ndk1::__function::__func<geode::listenForSettingChangesV3<bool, geodeExecFunction85<(anonymous namespace)::ExecFuncUnique85>()::{lambda(bool)#1}>(std::__ndk1::basic_string_view<char, std::__ndk1::char_traits<char> >, geodeExecFunction85<(anonymous namespace)::ExecFuncUnique85>()::{lambda(bool)#1}&&, geode::Mod*)::{lambda(std::__ndk1::shared_ptr<geode::SettingV3>)#1}, std::__ndk1::allocator<geode::listenForSettingChangesV3<bool, geodeExecFunction85<(anonymous namespace)::ExecFuncUnique85>()::{lambda(bool)#1}>(std::__ndk1::basic_string_view<char, std::__ndk1::char_traits<char> >, geodeExecFunction85<(anonymous namespace)::ExecFuncUnique85>()::{lambda(bool)#1}&&, geode::Mod*)::{lambda(std::__ndk1::shared_ptr<geode::SettingV3>)#1}>, void (std::__ndk1::shared_ptr<geode::SettingV3>)>::~__func()
PUBLIC 29880 0 std::__ndk1::__function::__func<geode::listenForSettingChangesV3<bool, geodeExecFunction85<(anonymous namespace)::ExecFuncUnique85>()::{lambda(bool)#1}>(std::__ndk1::basic_string_view<char, std::__ndk1::char_traits<char> >, geodeExecFunction85<(anonymous namespace)::ExecFuncUnique85>()::{lambda(bool)#1}&&, geode::Mod*)::{lambda(std::__ndk1::shared_ptr<geode::SettingV3>)#1}, std::__ndk1::allocator<geode::listenForSettingChangesV3<bool, geodeExecFunction85<(anonymous namespace)::ExecFuncUnique85>()::{lambda(bool)#1}>(std::__ndk1::basic_string_view<char, std::__ndk1::char_traits<char> >, geodeExecFunction85<(anonymous namespace)::ExecFuncUnique85>()::{lambda(bool)#1}&&, geode::Mod*)::{lambda(std::__ndk1::shared_ptr<geode::SettingV3>)#1}>, void (std::__ndk1::shared_ptr<geode::SettingV3>)>::__clone() const
PUBLIC 298b8 0 std::__ndk1::__function::__func<geode::listenForSettingChangesV3<bool, geodeExecFunction85<(anonymous namespace)::ExecFuncUnique85>()::{lambda(bool)#1}>(std::__ndk1::basic_string_view<char, std::__ndk1::char_traits<char> >, geodeExecFunction85<(anonymous namespace)::ExecFuncUnique85>()::{lambda(bool)#1}&&, geode::Mod*)::{lambda(std::__ndk1::shared_ptr<geode::SettingV3>)#1}, std::__ndk1::allocator<geode::listenForSettingChangesV3<bool, geodeExecFunction85<(anonymous namespace)::ExecFuncUnique85>()::{lambda(bool)#1}>(std::__ndk1::basic_string_view<char, std::__ndk1::char_traits<char> >, geodeExecFunction85<(anonymous namespace)::ExecFuncUnique85>()::{lambda(bool)#1}&&, geode::Mod*)::{lambda(std::__ndk1::shared_ptr<geode::SettingV3>)#1}>, void (std::__ndk1::shared_ptr<geode::SettingV3>)>::__clone(std::__ndk1::__function::__base<void (std::__ndk1::shared_ptr<geode::SettingV3>)>*) const
PUBLIC 298d0 0 std::__ndk1::__function::__func<geode::listenForSettingChangesV3<bool, geodeExecFunction85<(anonymous namespace)::ExecFuncUnique85>()::{lambda(bool)#1}>(std::__ndk1::basic_string_view<char, std::__ndk1::char_traits<char> >, geodeExecFunction85<(anonymous namespace)::ExecFuncUnique85>()::{lambda(bool)#1}&&, geode::Mod*)::{lambda(std::__ndk1::shared_ptr<geode::SettingV3>)#1}, std::__ndk1::allocator<geode::listenForSettingChangesV3<bool, geodeExecFunction85<(anonymous namespace)::ExecFuncUnique85>()::{lambda(bool)#1}>(std::__ndk1::basic_string_view<char, std::__ndk1::char_traits<char> >, geodeExecFunction85<(anonymous namespace)::ExecFuncUnique85>()::{lambda(bool)#1}&&, geode::Mod*)::{lambda(std::__ndk1::shared_ptr<geode::SettingV3>)#1}>, void (std::__ndk1::shared_ptr<geode::SettingV3>)>::destroy()
PUBLIC 298d4 0 std::__ndk1::__function::__func<geode::listenForSettingChangesV3<bool, geodeExecFunction85<(anonymous namespace)::ExecFuncUnique85>()::{lambda(bool)#1}>(std::__ndk1::basic_string_view<char, std::__ndk1::char_traits<char> >, geodeExecFunction85<(anonymous namespace)::ExecFuncUnique85>()::{lambda(bool)#1}&&, geode::Mod*)::{lambda(std::__ndk1::shared_ptr<geode::SettingV3>)#1}, std::__ndk1::allocator<geode::listenForSettingChangesV3<bool, geodeExecFunction85<(anonymous namespace)::ExecFuncUnique85>()::{lambda(bool)#1}>(std::__ndk1::basic_string_view<char, std::__ndk1::char_traits<char> >, geodeExecFunction85<(anonymous namespace)::ExecFuncUnique85>()::{lambda(bool)#1}&&, geode::Mod*)::{lambda(std::__ndk1::shared_ptr<geode::SettingV3>)#1}>, void (std::__ndk1::shared_ptr<geode::SettingV3>)>::destroy_deallocate()
PUBLIC 298d8 0 std::__ndk1::__function::__func<geode::listenForSettingChangesV3<bool, geodeExecFunction85<(anonymous namespace)::ExecFuncUnique85>()::{lambda(bool)#1}>(std::__ndk1::basic_string_view<char, std::__ndk1::char_traits<char> >, geodeExecFunction85<(anonymous namespace)::ExecFuncUnique85>()::{lambda(bool)#1}&&, geode::Mod*)::{lambda(std::__ndk1::shared_ptr<geode::SettingV3>)#1}, std::__ndk1::allocator<geode::listenForSettingChangesV3<bool, geodeExecFunction85<(anonymous namespace)::ExecFuncUnique85>()::{lambda(bool)#1}>(std::__ndk1::basic_string_view<char, std::__ndk1::char_traits<char> >, geodeExecFunction85<(anonymous namespace)::ExecFuncUnique85>()::{lambda(bool)#1}&&, geode::Mod*)::{lambda(std::__ndk1::shared_ptr<geode::SettingV3>)#1}>, void (std::__ndk1::shared_ptr<geode::SettingV3>)>::operator()(std::__ndk1::shared_ptr<geode::SettingV3>&&)
PUBLIC 29b44 0 std::__ndk1::__function::__func<geode::listenForSettingChangesV3<bool, geodeExecFunction85<(anonymous namespace)::ExecFuncUnique85>()::{lambda(bool)#1}>(std::__ndk1::basic_string_view<char, std::__ndk1::char_traits<char> >, geodeExecFunction85<(anonymous namespace)::ExecFuncUnique85>()::{lambda(bool)#1}&&, geode::Mod*)::{lambda(std::__ndk1::shared_ptr<geode::SettingV3>)#1}, std::__ndk1::allocator<geode::listenForSettingChangesV3<bool, geodeExecFunction85<(anonymous namespace)::ExecFuncUnique85>()::{lambda(bool)#1}>(std::__ndk1::basic_string_view<char, std::__ndk1::char_traits<char> >, geodeExecFunction85<(anonymous namespace)::ExecFuncUnique85>()::{lambda(bool)#1}&&, geode::Mod*)::{lambda(std::__ndk1::shared_ptr<geode::SettingV3>)#1}>, void (std::__ndk1::shared_ptr<geode::SettingV3>)>::target(std::type_info const&) const
PUBLIC 29b60 0 std::__ndk1::__function::__func<geode::listenForSettingChangesV3<bool, geodeExecFunction85<(anonymous namespace)::ExecFuncUnique85>()::{lambda(bool)#1}>(std::__ndk1::basic_string_view<char, std::__ndk1::char_traits<char> >, geodeExecFunction85<(anonymous namespace)::ExecFuncUnique85>()::{lambda(bool)#1}&&, geode::Mod*)::{lambda(std::__ndk1::shared_ptr<geode::SettingV3>)#1}, std::__ndk1::allocator<geode::listenForSettingChangesV3<bool, geodeExecFunction85<(anonymous namespace)::ExecFuncUnique85>()::{lambda(bool)#1}>(std::__ndk1::basic_string_view<char, std::__ndk1::char_traits<char> >, geodeExecFunction85<(anonymous namespace)::ExecFuncUnique85>()::{lambda(bool)#1}&&, geode::Mod*)::{lambda(std::__ndk1::shared_ptr<geode::SettingV3>)#1}>, void (std::__ndk1::shared_ptr<geode::SettingV3>)>::target_type() const
PUBLIC 29b6c 0 std::__ndk1::__function::__func<geode::listenForSettingChangesV3<double, geodeExecFunction85<(anonymous namespace)::ExecFuncUnique85>()::{lambda(double)#1}>(std::__ndk1::basic_string_view<char, std::__ndk1::char_traits<char> >, geodeExecFunction85<(anonymous namespace)::ExecFuncUnique85>()::{lambda(double)#1}&&, geode::Mod*)::{lambda(std::__ndk1::shared_ptr<geode::SettingV3>)#1}, std::__ndk1::allocator<geode::listenForSettingChangesV3<double, geodeExecFunction85<(anonymous namespace)::ExecFuncUnique85>()::{lambda(double)#1}>(std::__ndk1::basic_string_view<char, std::__ndk1::char_traits<char> >, geodeExecFunction85<(anonymous namespace)::ExecFuncUnique85>()::{lambda(double)#1}&&, geode::Mod*)::{lambda(std::__ndk1::shared_ptr<geode::SettingV3>)#1}>, void (std::__ndk1::shared_ptr<geode::SettingV3>)>::~__func()
PUBLIC 29b70 0 std::__ndk1::__function::__func<geode::listenForSettingChangesV3<double, geodeExecFunction85<(anonymous namespace)::ExecFuncUnique85>()::{lambda(double)#1}>(std::__ndk1::basic_string_view<char, std::__ndk1::char_traits<char> >, geodeExecFunction85<(anonymous namespace)::ExecFuncUnique85>()::{lambda(double)#1}&&, geode::Mod*)::{lambda(std::__ndk1::shared_ptr<geode::SettingV3>)#1}, std::__ndk1::allocator<geode::listenForSettingChangesV3<double, geodeExecFunction85<(anonymous namespace)::ExecFuncUnique85>()::{lambda(double)#1}>(std::__ndk1::basic_string_view<char, std::__ndk1::char_traits<char> >, geodeExecFunction85<(anonymous namespace)::ExecFuncUnique85>()::{lambda(double)#1}&&, geode::Mod*)::{lambda(std::__ndk1::shared_ptr<geode::SettingV3>)#1}>, void (std::__ndk1::shared_ptr<geode::SettingV3>)>::__clone() const
PUBLIC 29ba8 0 std::__ndk1::__function::__func<geode::listenForSettingChangesV3<double, geodeExecFunction85<(anonymous namespace)::ExecFuncUnique85>()::{lambda(double)#1}>(std::__ndk1::basic_string_view<char, std::__ndk1::char_traits<char> >, geodeExecFunction85<(anonymous namespace)::ExecFuncUnique85>()::{lambda(double)#1}&&, geode::Mod*)::{lambda(std::__ndk1::shared_ptr<geode::SettingV3>)#1}, std::__ndk1::allocator<geode::listenForSettingChangesV3<double, geodeExecFunction85<(anonymous namespace)::ExecFuncUnique85>()::{lambda(double)#1}>(std::__ndk1::basic_string_view<char, std::__ndk1::char_traits<char> >, geodeExecFunction85<(anonymous namespace)::ExecFuncUnique85>()::{lambda(double)#1}&&, geode::Mod*)::{lambda(std::__ndk1::shared_ptr<geode::SettingV3>)#1}>, void (std::__ndk1::shared_ptr<geode::SettingV3>)>::__clone(std::__ndk1::__function::__base<void (std::__ndk1::shared_ptr<geode::SettingV3>)>*) const
PUBLIC 29bc0 0 std::__ndk1::__function::__func<geode::listenForSettingChangesV3<double, geodeExecFunction85<(anonymous namespace)::ExecFuncUnique85>()::{lambda(double)#1}>(std::__ndk1::basic_string_view<char, std::__ndk1::char_traits<char> >, geodeExecFunction85<(anonymous namespace)::ExecFuncUnique85>()::{lambda(double)#1}&&, geode::Mod*)::{lambda(std::__ndk1::shared_ptr<geode::SettingV3>)#1}, std::__ndk1::allocator<geode::listenForSettingChangesV3<double, geodeExecFunction85<(anonymous namespace)::ExecFuncUnique85>()::{lambda(double)#1}>(std::__ndk1::basic_string_view<char, std::__ndk1::char_traits<char> >, geodeExecFunction85<(anonymous namespace)::ExecFuncUnique85>()::{lambda(double)#1}&&, geode::Mod*)::{lambda(std::__ndk1::shared_ptr<geode::SettingV3>)#1}>, void (std::__ndk1::shared_ptr<geode::SettingV3>)>::destroy()
PUBLIC 29bc4 0 std::__ndk1::__function::__func<geode::listenForSettingChangesV3<double, geodeExecFunction85<(anonymous namespace)::ExecFuncUnique85>()::{lambda(double)#1}>(std::__ndk1::basic_string_view<char, std::__ndk1::char_traits<char> >, geodeExecFunction85<(anonymous namespace)::ExecFuncUnique85>()::{lambda(double)#1}&&, geode::Mod*)::{lambda(std::__ndk1::shared_ptr<geode::SettingV3>)#1}, std::__ndk1::allocator<geode::listenForSettingChangesV3<double, geodeExecFunction85<(anonymous namespace)::ExecFuncUnique85>()::{lambda(double)#1}>(std::__ndk1::basic_string_view<char, std::__ndk1::char_traits<char> >, geodeExecFunction85<(anonymous namespace)::ExecFuncUnique85>()::{lambda(double)#1}&&, geode::Mod*)::{lambda(std::__ndk1::shared_ptr<geode::SettingV3>)#1}>, void (std::__ndk1::shared_ptr<geode::SettingV3>)>::destroy_deallocate()
PUBLIC 29bc8 0 std::__ndk1::__function::__func<geode::listenForSettingChangesV3<double, geodeExecFunction85<(anonymous namespace)::ExecFuncUnique85>()::{lambda(double)#1}>(std::__ndk1::basic_string_view<char, std::__ndk1::char_traits<char> >, geodeExecFunction85<(anonymous namespace)::ExecFuncUnique85>()::{lambda(double)#1}&&, geode::Mod*)::{lambda(std::__ndk1::shared_ptr<geode::SettingV3>)#1}, std::__ndk1::allocator<geode::listenForSettingChangesV3<double, geodeExecFunction85<(anonymous namespace)::ExecFuncUnique85>()::{lambda(double)#1}>(std::__ndk1::basic_string_view<char, std::__ndk1::char_traits<char> >, geodeExecFunction85<(anonymous namespace)::ExecFuncUnique85>()::{lambda(double)#1}&&, geode::Mod*)::{lambda(std::__ndk1::shared_ptr<geode::SettingV3>)#1}>, void (std::__ndk1::shared_ptr<geode::SettingV3>)>::operator()(std::__ndk1::shared_ptr<geode::SettingV3>&&)
PUBLIC 29d00 0 std::__ndk1::__function::__func<geode::listenForSettingChangesV3<double, geodeExecFunction85<(anonymous namespace)::ExecFuncUnique85>()::{lambda(double)#1}>(std::__ndk1::basic_string_view<char, std::__ndk1::char_traits<char> >, geodeExecFunction85<(anonymous namespace)::ExecFuncUnique85>()::{lambda(double)#1}&&, geode::Mod*)::{lambda(std::__ndk1::shared_ptr<geode::SettingV3>)#1}, std::__ndk1::allocator<geode::listenForSettingChangesV3<double, geodeExecFunction85<(anonymous namespace)::ExecFuncUnique85>()::{lambda(double)#1}>(std::__ndk1::basic_string_view<char, std::__ndk1::char_traits<char> >, geodeExecFunction85<(anonymous namespace)::ExecFuncUnique85>()::{lambda(double)#1}&&, geode::Mod*)::{lambda(std::__ndk1::shared_ptr<geode::SettingV3>)#1}>, void (std::__ndk1::shared_ptr<geode::SettingV3>)>::target(std::type_info const&) const
PUBLIC 29d1c 0 std::__ndk1::__function::__func<geode::listenForSettingChangesV3<double, geodeExecFunction85<(anonymous namespace)::ExecFuncUnique85>()::{lambda(double)#1}>(std::__ndk1::basic_string_view<char, std::__ndk1::char_traits<char> >, geodeExecFunction85<(anonymous namespace)::ExecFuncUnique85>()::{lambda(double)#1}&&, geode::Mod*)::{lambda(std::__ndk1::shared_ptr<geode::SettingV3>)#1}, std::__ndk1::allocator<geode::listenForSettingChangesV3<double, geodeExecFunction85<(anonymous namespace)::ExecFuncUnique85>()::{lambda(double)#1}>(std::__ndk1::basic_string_view<char, std::__ndk1::char_traits<char> >, geodeExecFunction85<(anonymous namespace)::ExecFuncUnique85>()::{lambda(double)#1}&&, geode::Mod*)::{lambda(std::__ndk1::shared_ptr<geode::SettingV3>)#1}>, void (std::__ndk1::shared_ptr<geode::SettingV3>)>::target_type() const
PUBLIC 29d28 0 std::__ndk1::__function::__func<geode::listenForSettingChangesV3<long, geodeExecFunction85<(anonymous namespace)::ExecFuncUnique85>()::{lambda(long)#1}>(std::__ndk1::basic_string_view<char, std::__ndk1::char_traits<char> >, geodeExecFunction85<(anonymous namespace)::ExecFuncUnique85>()::{lambda(long)#1}&&, geode::Mod*)::{lambda(std::__ndk1::shared_ptr<geode::SettingV3>)#1}, std::__ndk1::allocator<geode::listenForSettingChangesV3<long, geodeExecFunction85<(anonymous namespace)::ExecFuncUnique85>()::{lambda(long)#1}>(std::__ndk1::basic_string_view<char, std::__ndk1::char_traits<char> >, geodeExecFunction85<(anonymous namespace)::ExecFuncUnique85>()::{lambda(long)#1}&&, geode::Mod*)::{lambda(std::__ndk1::shared_ptr<geode::SettingV3>)#1}>, void (std::__ndk1::shared_ptr<geode::SettingV3>)>::~__func()
PUBLIC 29d2c 0 std::__ndk1::__function::__func<geode::listenForSettingChangesV3<long, geodeExecFunction85<(anonymous namespace)::ExecFuncUnique85>()::{lambda(long)#1}>(std::__ndk1::basic_string_view<char, std::__ndk1::char_traits<char> >, geodeExecFunction85<(anonymous namespace)::ExecFuncUnique85>()::{lambda(long)#1}&&, geode::Mod*)::{lambda(std::__ndk1::shared_ptr<geode::SettingV3>)#1}, std::__ndk1::allocator<geode::listenForSettingChangesV3<long, geodeExecFunction85<(anonymous namespace)::ExecFuncUnique85>()::{lambda(long)#1}>(std::__ndk1::basic_string_view<char, std::__ndk1::char_traits<char> >, geodeExecFunction85<(anonymous namespace)::ExecFuncUnique85>()::{lambda(long)#1}&&, geode::Mod*)::{lambda(std::__ndk1::shared_ptr<geode::SettingV3>)#1}>, void (std::__ndk1::shared_ptr<geode::SettingV3>)>::__clone() const
PUBLIC 29d64 0 std::__ndk1::__function::__func<geode::listenForSettingChangesV3<long, geodeExecFunction85<(anonymous namespace)::ExecFuncUnique85>()::{lambda(long)#1}>(std::__ndk1::basic_string_view<char, std::__ndk1::char_traits<char> >, geodeExecFunction85<(anonymous namespace)::ExecFuncUnique85>()::{lambda(long)#1}&&, geode::Mod*)::{lambda(std::__ndk1::shared_ptr<geode::SettingV3>)#1}, std::__ndk1::allocator<geode::listenForSettingChangesV3<long, geodeExecFunction85<(anonymous namespace)::ExecFuncUnique85>()::{lambda(long)#1}>(std::__ndk1::basic_string_view<char, std::__ndk1::char_traits<char> >, geodeExecFunction85<(anonymous namespace)::ExecFuncUnique85>()::{lambda(long)#1}&&, geode::Mod*)::{lambda(std::__ndk1::shared_ptr<geode::SettingV3>)#1}>, void (std::__ndk1::shared_ptr<geode::SettingV3>)>::__clone(std::__ndk1::__function::__base<void (std::__ndk1::shared_ptr<geode::SettingV3>)>*) const
PUBLIC 29d7c 0 std::__ndk1::__function::__func<geode::listenForSettingChangesV3<long, geodeExecFunction85<(anonymous namespace)::ExecFuncUnique85>()::{lambda(long)#1}>(std::__ndk1::basic_string_view<char, std::__ndk1::char_traits<char> >, geodeExecFunction85<(anonymous namespace)::ExecFuncUnique85>()::{lambda(long)#1}&&, geode::Mod*)::{lambda(std::__ndk1::shared_ptr<geode::SettingV3>)#1}, std::__ndk1::allocator<geode::listenForSettingChangesV3<long, geodeExecFunction85<(anonymous namespace)::ExecFuncUnique85>()::{lambda(long)#1}>(std::__ndk1::basic_string_view<char, std::__ndk1::char_traits<char> >, geodeExecFunction85<(anonymous namespace)::ExecFuncUnique85>()::{lambda(long)#1}&&, geode::Mod*)::{lambda(std::__ndk1::shared_ptr<geode::SettingV3>)#1}>, void (std::__ndk1::shared_ptr<geode::SettingV3>)>::destroy()
PUBLIC 29d80 0 std::__ndk1::__function::__func<geode::listenForSettingChangesV3<long, geodeExecFunction85<(anonymous namespace)::ExecFuncUnique85>()::{lambda(long)#1}>(std::__ndk1::basic_string_view<char, std::__ndk1::char_traits<char> >, geodeExecFunction85<(anonymous namespace)::ExecFuncUnique85>()::{lambda(long)#1}&&, geode::Mod*)::{lambda(std::__ndk1::shared_ptr<geode::SettingV3>)#1}, std::__ndk1::allocator<geode::listenForSettingChangesV3<long, geodeExecFunction85<(anonymous namespace)::ExecFuncUnique85>()::{lambda(long)#1}>(std::__ndk1::basic_string_view<char, std::__ndk1::char_traits<char> >, geodeExecFunction85<(anonymous namespace)::ExecFuncUnique85>()::{lambda(long)#1}&&, geode::Mod*)::{lambda(std::__ndk1::shared_ptr<geode::SettingV3>)#1}>, void (std::__ndk1::shared_ptr<geode::SettingV3>)>::destroy_deallocate()
PUBLIC 29d84 0 std::__ndk1::__function::__func<geode::listenForSettingChangesV3<long, geodeExecFunction85<(anonymous namespace)::ExecFuncUnique85>()::{lambda(long)#1}>(std::__ndk1::basic_string_view<char, std::__ndk1::char_traits<char> >, geodeExecFunction85<(anonymous namespace)::ExecFuncUnique85>()::{lambda(long)#1}&&, geode::Mod*)::{lambda(std::__ndk1::shared_ptr<geode::SettingV3>)#1}, std::__ndk1::allocator<geode::listenForSettingChangesV3<long, geodeExecFunction85<(anonymous namespace)::ExecFuncUnique85>()::{lambda(long)#1}>(std::__ndk1::basic_string_view<char, std::__ndk1::char_traits<char> >, geodeExecFunction85<(anonymous namespace)::ExecFuncUnique85>()::{lambda(long)#1}&&, geode::Mod*)::{lambda(std::__ndk1::shared_ptr<geode::SettingV3>)#1}>, void (std::__ndk1::shared_ptr<geode::SettingV3>)>::operator()(std::__ndk1::shared_ptr<geode::SettingV3>&&)
PUBLIC 29ebc 0 std::__ndk1::__function::__func<geode::listenForSettingChangesV3<long, geodeExecFunction85<(anonymous namespace)::ExecFuncUnique85>()::{lambda(long)#1}>(std::__ndk1::basic_string_view<char, std::__ndk1::char_traits<char> >, geodeExecFunction85<(anonymous namespace)::ExecFuncUnique85>()::{lambda(long)#1}&&, geode::Mod*)::{lambda(std::__ndk1::shared_ptr<geode::SettingV3>)#1}, std::__ndk1::allocator<geode::listenForSettingChangesV3<long, geodeExecFunction85<(anonymous namespace)::ExecFuncUnique85>()::{lambda(long)#1}>(std::__ndk1::basic_string_view<char, std::__ndk1::char_traits<char> >, geodeExecFunction85<(anonymous namespace)::ExecFuncUnique85>()::{lambda(long)#1}&&, geode::Mod*)::{lambda(std::__ndk1::shared_ptr<geode::SettingV3>)#1}>, void (std::__ndk1::shared_ptr<geode::SettingV3>)>::target(std::type_info const&) const
PUBLIC 29ed8 0 std::__ndk1::__function::__func<geode::listenForSettingChangesV3<long, geodeExecFunction85<(anonymous namespace)::ExecFuncUnique85>()::{lambda(long)#1}>(std::__ndk1::basic_string_view<char, std::__ndk1::char_traits<char> >, geodeExecFunction85<(anonymous namespace)::ExecFuncUnique85>()::{lambda(long)#1}&&, geode::Mod*)::{lambda(std::__ndk1::shared_ptr<geode::SettingV3>)#1}, std::__ndk1::allocator<geode::listenForSettingChangesV3<long, geodeExecFunction85<(anonymous namespace)::ExecFuncUnique85>()::{lambda(long)#1}>(std::__ndk1::basic_string_view<char, std::__ndk1::char_traits<char> >, geodeExecFunction85<(anonymous namespace)::ExecFuncUnique85>()::{lambda(long)#1}&&, geode::Mod*)::{lambda(std::__ndk1::shared_ptr<geode::SettingV3>)#1}>, void (std::__ndk1::shared_ptr<geode::SettingV3>)>::target_type() const
PUBLIC 29ee4 0 std::__ndk1::__function::__base<void (std::__ndk1::shared_ptr<geode::SettingV3>)>::~__base()
PUBLIC 29ee8 0 std::__ndk1::__function::__func<geode::listenForSettingChangesV3<std::__ndk1::basic_string<char, std::__ndk1::char_traits<char>, std::__ndk1::allocator<char> >, geodeExecFunction85<(anonymous namespace)::ExecFuncUnique85>()::{lambda(std::__ndk1::basic_string<char, std::__ndk1::char_traits<char>, std::__ndk1::allocator<char> >)#2}>(std::__ndk1::basic_string_view<char, std::__ndk1::char_traits<char> >, geodeExecFunction85<(anonymous namespace)::ExecFuncUnique85>()::{lambda(std::__ndk1::basic_string<char, std::__ndk1::char_traits<char>, std::__ndk1::allocator<char> >&&)#2}, geode::Mod*)::{lambda(std::__ndk1::shared_ptr<geode::SettingV3>)#1}, std::__ndk1::allocator<geode::listenForSettingChangesV3<std::__ndk1::basic_string<char, std::__ndk1::char_traits<char>, std::__ndk1::allocator<char> >, geodeExecFunction85<(anonymous namespace)::ExecFuncUnique85>()::{lambda(std::__ndk1::basic_string<char, std::__ndk1::char_traits<char>, std::__ndk1::allocator<char> >)#2}>(std::__ndk1::basic_string_view<char, std::__ndk1::char_traits<char> >, geodeExecFunction85<(anonymous namespace)::ExecFuncUnique85>()::{lambda(std::__ndk1::basic_string<char, std::__ndk1::char_traits<char>, std::__ndk1::allocator<char> >&&)#2}, geode::Mod*)::{lambda(std::__ndk1::shared_ptr<geode::SettingV3>)#1}>, void (std::__ndk1::shared_ptr<geode::SettingV3>)>::~__func()
PUBLIC 29eec 0 std::__ndk1::__function::__func<geode::listenForSettingChangesV3<std::__ndk1::basic_string<char, std::__ndk1::char_traits<char>, std::__ndk1::allocator<char> >, geodeExecFunction85<(anonymous namespace)::ExecFuncUnique85>()::{lambda(std::__ndk1::basic_string<char, std::__ndk1::char_traits<char>, std::__ndk1::allocator<char> >)#2}>(std::__ndk1::basic_string_view<char, std::__ndk1::char_traits<char> >, geodeExecFunction85<(anonymous namespace)::ExecFuncUnique85>()::{lambda(std::__ndk1::basic_string<char, std::__ndk1::char_traits<char>, std::__ndk1::allocator<char> >&&)#2}, geode::Mod*)::{lambda(std::__ndk1::shared_ptr<geode::SettingV3>)#1}, std::__ndk1::allocator<geode::listenForSettingChangesV3<std::__ndk1::basic_string<char, std::__ndk1::char_traits<char>, std::__ndk1::allocator<char> >, geodeExecFunction85<(anonymous namespace)::ExecFuncUnique85>()::{lambda(std::__ndk1::basic_string<char, std::__ndk1::char_traits<char>, std::__ndk1::allocator<char> >)#2}>(std::__ndk1::basic_string_view<char, std::__ndk1::char_traits<char> >, geodeExecFunction85<(anonymous namespace)::ExecFuncUnique85>()::{lambda(std::__ndk1::basic_string<char, std::__ndk1::char_traits<char>, std::__ndk1::allocator<char> >&&)#2}, geode::Mod*)::{lambda(std::__ndk1::shared_ptr<geode::SettingV3>)#1}>, void (std::__ndk1::shared_ptr<geode::SettingV3>)>::__clone() const
PUBLIC 29f24 0 std::__ndk1::__function::__func<geode::listenForSettingChangesV3<std::__ndk1::basic_string<char, std::__ndk1::char_traits<char>, std::__ndk1::allocator<char> >, geodeExecFunction85<(anonymous namespace)::ExecFuncUnique85>()::{lambda(std::__ndk1::basic_string<char, std::__ndk1::char_traits<char>, std::__ndk1::allocator<char> >)#2}>(std::__ndk1::basic_string_view<char, std::__ndk1::char_traits<char> >, geodeExecFunction85<(anonymous namespace)::ExecFuncUnique85>()::{lambda(std::__ndk1::basic_string<char, std::__ndk1::char_traits<char>, std::__ndk1::allocator<char> >&&)#2}, geode::Mod*)::{lambda(std::__ndk1::shared_ptr<geode::SettingV3>)#1}, std::__ndk1::allocator<geode::listenForSettingChangesV3<std::__ndk1::basic_string<char, std::__ndk1::char_traits<char>, std::__ndk1::allocator<char> >, geodeExecFunction85<(anonymous namespace)::ExecFuncUnique85>()::{lambda(std::__ndk1::basic_string<char, std::__ndk1::char_traits<char>, std::__ndk1::allocator<char> >)#2}>(std::__ndk1::basic_string_view<char, std::__ndk1::char_traits<char> >, geodeExecFunction85<(anonymous namespace)::ExecFuncUnique85>()::{lambda(std::__ndk1::basic_string<char, std::__ndk1::char_traits<char>, std::__ndk1::allocator<char> >&&)#2}, geode::Mod*)::{lambda(std::__ndk1::shared_ptr<geode::SettingV3>)#1}>, void (std::__ndk1::shared_ptr<geode::SettingV3>)>::__clone(std::__ndk1::__function::__base<void (std::__ndk1::shared_ptr<geode::SettingV3>)>*) const
PUBLIC 29f3c 0 std::__ndk1::__function::__func<geode::listenForSettingChangesV3<std::__ndk1::basic_string<char, std::__ndk1::char_traits<char>, std::__ndk1::allocator<char> >, geodeExecFunction85<(anonymous namespace)::ExecFuncUnique85>()::{lambda(std::__ndk1::basic_string<char, std::__ndk1::char_traits<char>, std::__ndk1::allocator<char> >)#2}>(std::__ndk1::basic_string_view<char, std::__ndk1::char_traits<char> >, geodeExecFunction85<(anonymous namespace)::ExecFuncUnique85>()::{lambda(std::__ndk1::basic_string<char, std::__ndk1::char_traits<char>, std::__ndk1::allocator<char> >&&)#2}, geode::Mod*)::{lambda(std::__ndk1::shared_ptr<geode::SettingV3>)#1}, std::__ndk1::allocator<geode::listenForSettingChangesV3<std::__ndk1::basic_string<char, std::__ndk1::char_traits<char>, std::__ndk1::allocator<char> >, geodeExecFunction85<(anonymous namespace)::ExecFuncUnique85>()::{lambda(std::__ndk1::basic_string<char, std::__ndk1::char_traits<char>, std::__ndk1::allocator<char> >)#2}>(std::__ndk1::basic_string_view<char, std::__ndk1::char_traits<char> >, geodeExecFunction85<(anonymous namespace)::ExecFuncUnique85>()::{lambda(std::__ndk1::basic_string<char, std::__ndk1::char_traits<char>, std::__ndk1::allocator<char> >&&)#2}, geode::Mod*)::{lambda(std::__ndk1::shared_ptr<geode::SettingV3>)#1}>, void (std::__ndk1::shared_ptr<geode::SettingV3>)>::destroy()
PUBLIC 29f40 0 std::__ndk1::__function::__func<geode::listenForSettingChangesV3<std::__ndk1::basic_string<char, std::__ndk1::char_traits<char>, std::__ndk1::allocator<char> >, geodeExecFunction85<(anonymous namespace)::ExecFuncUnique85>()::{lambda(std::__ndk1::basic_string<char, std::__ndk1::char_traits<char>, std::__ndk1::allocator<char> >)#2}>(std::__ndk1::basic_string_view<char, std::__ndk1::char_traits<char> >, geodeExecFunction85<(anonymous namespace)::ExecFuncUnique85>()::{lambda(std::__ndk1::basic_string<char, std::__ndk1::char_traits<char>, std::__ndk1::allocator<char> >&&)#2}, geode::Mod*)::{lambda(std::__ndk1::shared_ptr<geode::SettingV3>)#1}, std::__ndk1::allocator<geode::listenForSettingChangesV3<std::__ndk1::basic_string<char, std::__ndk1::char_traits<char>, std::__ndk1::allocator<char> >, geodeExecFunction85<(anonymous namespace)::ExecFuncUnique85>()::{lambda(std::__ndk1::basic_string<char, std::__ndk1::char_traits<char>, std::__ndk1::allocator<char> >)#2}>(std::__ndk1::basic_string_view<char, std::__ndk1::char_traits<char> >, geodeExecFunction85<(anonymous namespace)::ExecFuncUnique85>()::{lambda(std::__ndk1::basic_string<char, std::__ndk1::char_traits<char>, std::__ndk1::allocator<char> >&&)#2}, geode::Mod*)::{lambda(std::__ndk1::shared_ptr<geode::SettingV3>)#1}>, void (std::__ndk1::shared_ptr<geode::SettingV3>)>::destroy_deallocate()
PUBLIC 29f44 0 std::__ndk1::__function::__func<geode::listenForSettingChangesV3<std::__ndk1::basic_string<char, std::__ndk1::char_traits<char>, std::__ndk1::allocator<char> >, geodeExecFunction85<(anonymous namespace)::ExecFuncUnique85>()::{lambda(std::__ndk1::basic_string<char, std::__ndk1::char_traits<char>, std::__ndk1::allocator<char> >)#2}>(std::__ndk1::basic_string_view<char, std::__ndk1::char_traits<char> >, geodeExecFunction85<(anonymous namespace)::ExecFuncUnique85>()::{lambda(std::__ndk1::basic_string<char, std::__ndk1::char_traits<char>, std::__ndk1::allocator<char> >&&)#2}, geode::Mod*)::{lambda(std::__ndk1::shared_ptr<geode::SettingV3>)#1}, std::__ndk1::allocator<geode::listenForSettingChangesV3<std::__ndk1::basic_string<char, std::__ndk1::char_traits<char>, std::__ndk1::allocator<char> >, geodeExecFunction85<(anonymous namespace)::ExecFuncUnique85>()::{lambda(std::__ndk1::basic_string<char, std::__ndk1::char_traits<char>, std::__ndk1::allocator<char> >)#2}>(std::__ndk1::basic_string_view<char, std::__ndk1::char_traits<char> >, geodeExecFunction85<(anonymous namespace)::ExecFuncUnique85>()::{lambda(std::__ndk1::basic_string<char, std::__ndk1::char_traits<char>, std::__ndk1::allocator<char> >&&)#2}, geode::Mod*)::{lambda(std::__ndk1::shared_ptr<geode::SettingV3>)#1}>, void (std::__ndk1::shared_ptr<geode::SettingV3>)>::operator()(std::__ndk1::shared_ptr<geode::SettingV3>&&)
PUBLIC 2a174 0 std::__ndk1::__function::__func<geode::listenForSettingChangesV3<std::__ndk1::basic_string<char, std::__ndk1::char_traits<char>, std::__ndk1::allocator<char> >, geodeExecFunction85<(anonymous namespace)::ExecFuncUnique85>()::{lambda(std::__ndk1::basic_string<char, std::__ndk1::char_traits<char>, std::__ndk1::allocator<char> >)#2}>(std::__ndk1::basic_string_view<char, std::__ndk1::char_traits<char> >, geodeExecFunction85<(anonymous namespace)::ExecFuncUnique85>()::{lambda(std::__ndk1::basic_string<char, std::__ndk1::char_traits<char>, std::__ndk1::allocator<char> >&&)#2}, geode::Mod*)::{lambda(std::__ndk1::shared_ptr<geode::SettingV3>)#1}, std::__ndk1::allocator<geode::listenForSettingChangesV3<std::__ndk1::basic_string<char, std::__ndk1::char_traits<char>, std::__ndk1::allocator<char> >, geodeExecFunction85<(anonymous namespace)::ExecFuncUnique85>()::{lambda(std::__ndk1::basic_string<char, std::__ndk1::char_traits<char>, std::__ndk1::allocator<char> >)#2}>(std::__ndk1::basic_string_view<char, std::__ndk1::char_traits<char> >, geodeExecFunction85<(anonymous namespace)::ExecFuncUnique85>()::{lambda(std::__ndk1::basic_string<char, std::__ndk1::char_traits<char>, std::__ndk1::allocator<char> >&&)#2}, geode::Mod*)::{lambda(std::__ndk1::shared_ptr<geode::SettingV3>)#1}>, void (std::__ndk1::shared_ptr<geode::SettingV3>)>::target(std::type_info const&) const
PUBLIC 2a190 0 std::__ndk1::__function::__func<geode::listenForSettingChangesV3<std::__ndk1::basic_string<char, std::__ndk1::char_traits<char>, std::__ndk1::allocator<char> >, geodeExecFunction85<(anonymous namespace)::ExecFuncUnique85>()::{lambda(std::__ndk1::basic_string<char, std::__ndk1::char_traits<char>, std::__ndk1::allocator<char> >)#2}>(std::__ndk1::basic_string_view<char, std::__ndk1::char_traits<char> >, geodeExecFunction85<(anonymous namespace)::ExecFuncUnique85>()::{lambda(std::__ndk1::basic_string<char, std::__ndk1::char_traits<char>, std::__ndk1::allocator<char> >&&)#2}, geode::Mod*)::{lambda(std::__ndk1::shared_ptr<geode::SettingV3>)#1}, std::__ndk1::allocator<geode::listenForSettingChangesV3<std::__ndk1::basic_string<char, std::__ndk1::char_traits<char>, std::__ndk1::allocator<char> >, geodeExecFunction85<(anonymous namespace)::ExecFuncUnique85>()::{lambda(std::__ndk1::basic_string<char, std::__ndk1::char_traits<char>, std::__ndk1::allocator<char> >)#2}>(std::__ndk1::basic_string_view<char, std::__ndk1::char_traits<char> >, geodeExecFunction85<(anonymous namespace)::ExecFuncUnique85>()::{lambda(std::__ndk1::basic_string<char, std::__ndk1::char_traits<char>, std::__ndk1::allocator<char> >&&)#2}, geode::Mod*)::{lambda(std::__ndk1::shared_ptr<geode::SettingV3>)#1}>, void (std::__ndk1::shared_ptr<geode::SettingV3>)>::target_type() const
PUBLIC 2a19c 0 _GLOBAL__sub_I_PlayLayer.cpp
PUBLIC m 2a8b8 0 geodeImplicitEntry
PUBLIC 2a8f4 0 std::__ndk1::unordered_map<void*, bool, std::__ndk1::hash<void*>, std::__ndk1::equal_to<void*>, std::__ndk1::allocator<std::__ndk1::pair<void* const, bool> > >::~unordered_map[abi:ne180000]()
PUBLIC 2a940 0 wrapFunction(unsigned long, tulip::hook::WrapperMetadata const&)
PUBLIC 2aa74 0 geode::impl::ResultData<void*, std::__ndk1::basic_string<char, std::__ndk1::char_traits<char>, std::__ndk1::allocator<char> > >::unwrapErr() &
PUBLIC 2aaec 0 geode::impl::ResultData<void*, std::__ndk1::basic_string<char, std::__ndk1::char_traits<char>, std::__ndk1::allocator<char> > >::~ResultData()
PUBLIC 2ab60 0 tulip::hook::WrapperMetadata::~WrapperMetadata()
PUBLIC 2abc4 0 cocos2d::CCObject::~CCObject()
PUBLIC 2abe8 0 cocos2d::CCNode::CCNode()
PUBLIC 2ae44 0 cocos2d::CCNode::~CCNode()
PUBLIC 2ae68 0 {virtual override thunk({offset(-320)}, cocos2d::CCLayer::~CCLayer())}
PUBLIC 2ae70 0 cocos2d::CCLayer::~CCLayer()
PUBLIC 2ae94 0 {virtual override thunk({offset(-320)}, cocos2d::CCLayer::~CCLayer())}
PUBLIC 2aebc 0 FMODAudioEngine::playEffect(gd::string)
PUBLIC 2b034 0 tulip::hook::AbstractFunction::from<void, FMODAudioEngine*, gd::string>(void (*)(FMODAudioEngine*, gd::string))
PUBLIC 2b0d8 0 GJBaseGameLayer::~GJBaseGameLayer()
PUBLIC 2b914 0 GJBaseGameLayer::GJBaseGameLayer(geode::CutoffConstructorType, unsigned long)
PUBLIC 2c0c4 0 {virtual override thunk({offset(-320)}, GJBaseGameLayer::~GJBaseGameLayer())}
PUBLIC 2c0cc 0 GJBaseGameLayer::~GJBaseGameLayer()
PUBLIC 2c0f0 0 {virtual override thunk({offset(-320)}, GJBaseGameLayer::~GJBaseGameLayer())}
PUBLIC 2c118 0 GJBaseGameLayer::toggleGroupTriggered(int, bool, gd::vector<int> const&, int, int)
PUBLIC 2c284 0 tulip::hook::AbstractFunction::from<void, GJBaseGameLayer*, int, bool, gd::vector<int> const&, int, int>(void (*)(GJBaseGameLayer*, int, bool, gd::vector<int> const&, int, int))
PUBLIC 2c730 0 {virtual override thunk({offset(-408)}, GJBaseGameLayer::toggleGroupTriggered(int, bool, gd::vector<int> const&, int, int))}
PUBLIC 2c738 0 GJBaseGameLayer::spawnGroup(int, bool, double, gd::vector<int> const&, int, int)
PUBLIC 2c8b4 0 tulip::hook::AbstractFunction::from<void, GJBaseGameLayer*, int, bool, double, gd::vector<int> const&, int, int>(void (*)(GJBaseGameLayer*, int, bool, double, gd::vector<int> const&, int, int))
PUBLIC 2ce60 0 {virtual override thunk({offset(-408)}, GJBaseGameLayer::spawnGroup(int, bool, double, gd::vector<int> const&, int, int))}
PUBLIC 2ce68 0 GJBaseGameLayer::spawnObject(GameObject*, double, gd::vector<int> const&)
PUBLIC 2cfc4 0 tulip::hook::AbstractFunction::from<void, GJBaseGameLayer*, GameObject*, double, gd::vector<int> const&>(void (*)(GJBaseGameLayer*, GameObject*, double, gd::vector<int> const&))
PUBLIC 2d298 0 {virtual override thunk({offset(-408)}, GJBaseGameLayer::spawnObject(GameObject*, double, gd::vector<int> const&))}
PUBLIC 2d2a0 0 GJBaseGameLayer::activatePlatformerEndTrigger(EndTriggerGameObject*, gd::vector<int> const&)
PUBLIC 2d3ec 0 tulip::hook::AbstractFunction::from<void, GJBaseGameLayer*, EndTriggerGameObject*, gd::vector<int> const&>(void (*)(GJBaseGameLayer*, EndTriggerGameObject*, gd::vector<int> const&))
PUBLIC 2d4f4 0 GJBaseGameLayer::toggleGlitter(bool)
PUBLIC 2d4f8 0 GJBaseGameLayer::timeForPos(cocos2d::CCPoint, int, int, bool, int)
PUBLIC 2d500 0 GJBaseGameLayer::posForTime(float)
PUBLIC 2d508 0 GJBaseGameLayer::resetSPTriggered()
PUBLIC 2d50c 0 GJBaseGameLayer::createCustomParticle(gd::string const&, cocos2d::ParticleStruct const&, int, bool)
PUBLIC 2d670 0 tulip::hook::AbstractFunction::from<TodoReturnPlaceholder, GJBaseGameLayer*, gd::string const&, cocos2d::ParticleStruct const&, int, bool>(TodoReturnPlaceholder (*)(GJBaseGameLayer*, gd::string const&, cocos2d::ParticleStruct const&, int, bool))
PUBLIC 2da44 0 GJBaseGameLayer::claimCustomParticle(gd::string const&, cocos2d::ParticleStruct const&, int, int, int, bool)
PUBLIC 2dbc0 0 tulip::hook::AbstractFunction::from<TodoReturnPlaceholder, GJBaseGameLayer*, gd::string const&, cocos2d::ParticleStruct const&, int, int, int, bool>(TodoReturnPlaceholder (*)(GJBaseGameLayer*, gd::string const&, cocos2d::ParticleStruct const&, int, int, int, bool))
PUBLIC 2e194 0 GJBaseGameLayer::unclaimCustomParticle(gd::string const&, cocos2d::CCParticleSystemQuad*)
PUBLIC 2e2e0 0 tulip::hook::AbstractFunction::from<TodoReturnPlaceholder, GJBaseGameLayer*, gd::string const&, cocos2d::CCParticleSystemQuad*>(TodoReturnPlaceholder (*)(GJBaseGameLayer*, gd::string const&, cocos2d::CCParticleSystemQuad*))
PUBLIC 2e3e8 0 PlayLayer::~PlayLayer()
PUBLIC 2e714 0 {virtual override thunk({offset(-320)}, PlayLayer::~PlayLayer())}
PUBLIC 2e71c 0 PlayLayer::~PlayLayer()
PUBLIC 2e740 0 {virtual override thunk({offset(-320)}, PlayLayer::~PlayLayer())}
PUBLIC 2e768 0 PlayLayer::activatePlatformerEndTrigger(EndTriggerGameObject*, gd::vector<int> const&)
PUBLIC 2e8b4 0 tulip::hook::AbstractFunction::from<void, PlayLayer*, EndTriggerGameObject*, gd::vector<int> const&>(void (*)(PlayLayer*, EndTriggerGameObject*, gd::vector<int> const&))
PUBLIC 2e9bc 0 cocos2d::CCObject::update(float)
PUBLIC 2e9c0 0 cocos2d::CCKeyboardDelegate::keyUp(cocos2d::enumKeyCodes)
PUBLIC 2e9c4 0 cocos2d::CCMouseDelegate::rightKeyDown()
PUBLIC 2e9c8 0 cocos2d::CCMouseDelegate::rightKeyUp()
PUBLIC 2e9cc 0 cocos2d::CCMouseDelegate::scrollWheel(float, float)
PUBLIC 2e9d0 0 cocos2d::CCNode::~CCNode()
PUBLIC 2ec70 0 cocos2d::CCLayer::~CCLayer()
PUBLIC 2ef60 0 cocos2d::CCObject::~CCObject()
PUBLIC 2f454 0 _ZN5geode15UnwrapExceptionC2IRPvQsr4implE18IsStringStreamableIT_EEENS_4impl5OkTagEOS4_
PUBLIC 2f5a8 0 _ZN5geode15UnwrapExceptionC2IRNSt6__ndk112basic_stringIcNS2_11char_traitsIcEENS2_9allocatorIcEEEEQsr4implE18IsStringStreamableIT_EEENS_4impl6ErrTagEOSA_
PUBLIC 2f710 0 std::__ndk1::__variant_detail::__visitation::__base::__dispatcher<(unsigned long)0>::__dispatch[abi:ne180000]<std::__ndk1::__variant_detail::__dtor<std::__ndk1::__variant_detail::__traits<void*, std::__ndk1::basic_string<char, std::__ndk1::char_traits<char>, std::__ndk1::allocator<char> > >, (std::__ndk1::__variant_detail::_Trait)1>::__destroy[abi:ne180000]()::{lambda(auto:1&)#1}, std::__ndk1::__variant_detail::__base<(std::__ndk1::__variant_detail::__traits<void*, std::__ndk1::basic_string<char, std::__ndk1::char_traits<char>, std::__ndk1::allocator<char> > >)1, std::__ndk1::__variant_detail::__traits, std::__ndk1::allocator<char> >&>(std::__ndk1::__variant_detail::__dtor<std::__ndk1::__variant_detail::__traits<void*, std::__ndk1::basic_string<char, std::__ndk1::char_traits<char>, std::__ndk1::allocator<char> > >, (std::__ndk1::__variant_detail::_Trait)1>, std::__ndk1::__variant_detail::__base<(std::__ndk1::__variant_detail::__traits<void*, std::__ndk1::basic_string<char, std::__ndk1::char_traits<char>, std::__ndk1::allocator<char> > >)1, std::__ndk1::__variant_detail::__traits, std::__ndk1::allocator<char> >&)
PUBLIC 2f714 0 std::__ndk1::__variant_detail::__visitation::__base::__dispatcher<(unsigned long)1>::__dispatch[abi:ne180000]<std::__ndk1::__variant_detail::__dtor<std::__ndk1::__variant_detail::__traits<void*, std::__ndk1::basic_string<char, std::__ndk1::char_traits<char>, std::__ndk1::allocator<char> > >, (std::__ndk1::__variant_detail::_Trait)1>::__destroy[abi:ne180000]()::{lambda(auto:1&)#1}, std::__ndk1::__variant_detail::__base<(std::__ndk1::__variant_detail::__traits<void*, std::__ndk1::basic_string<char, std::__ndk1::char_traits<char>, std::__ndk1::allocator<char> > >)1, std::__ndk1::__variant_detail::__traits, std::__ndk1::allocator<char> >&>(std::__ndk1::__variant_detail::__dtor<std::__ndk1::__variant_detail::__traits<void*, std::__ndk1::basic_string<char, std::__ndk1::char_traits<char>, std::__ndk1::allocator<char> > >, (std::__ndk1::__variant_detail::_Trait)1>, std::__ndk1::__variant_detail::__base<(std::__ndk1::__variant_detail::__traits<void*, std::__ndk1::basic_string<char, std::__ndk1::char_traits<char>, std::__ndk1::allocator<char> > >)1, std::__ndk1::__variant_detail::__traits, std::__ndk1::allocator<char> >&)
PUBLIC 2f728 0 std::__ndk1::__hash_table<std::__ndk1::__hash_value_type<void*, bool>, std::__ndk1::__unordered_map_hasher<void*, std::__ndk1::__hash_value_type<void*, bool>, std::__ndk1::hash<void*>, std::__ndk1::equal_to<void*>, true>, std::__ndk1::__unordered_map_equal<void*, std::__ndk1::__hash_value_type<void*, bool>, std::__ndk1::equal_to<void*>, std::__ndk1::hash<void*>, true>, std::__ndk1::allocator<std::__ndk1::__hash_value_type<void*, bool> > >::__emplace_unique_key_args<void*, std::__ndk1::piecewise_construct_t const&, std::__ndk1::tuple<void* const&>, std::__ndk1::tuple<> >(void* const&, std::__ndk1::piecewise_construct_t const&, std::__ndk1::tuple<void* const&>, std::__ndk1::tuple<>)
PUBLIC 2fc34 0 __udivti3
PUBLIC 2fc40 0 __udivmodti4
PUBLIC m 2fe8c 0 __eqtf2
PUBLIC 2ff2c 0 __unordtf2
PUBLIC 2ff64 0 fmt::v11::detail::write_loc(fmt::v11::basic_appender<char>, fmt::v11::loc_value, fmt::v11::format_specs const&, fmt::v11::detail::locale_ref)
PUBLIC 301f8 0 fmt::v11::format_facet<std::__ndk1::locale>::~format_facet()
PUBLIC 30274 0 fmt::v11::report_error(char const*)
PUBLIC 302c4 0 fmt::v11::format_error::runtime_error(char const*)
PUBLIC 302f0 0 fmt::v11::format_facet<std::__ndk1::locale>::do_put(fmt::v11::basic_appender<char>, fmt::v11::loc_value, fmt::v11::format_specs const&) const
PUBLIC 30ab0 0 fmt::v11::detail::loc_writer<char>::~loc_writer()
PUBLIC 30b14 0 fmt::v11::detail::vformat_to<char>(fmt::v11::detail::buffer<char>&, fmt::v11::basic_string_view<char>, fmt::v11::detail::vformat_args<char>::type, fmt::v11::detail::locale_ref)
PUBLIC 31084 0 fmt::v11::detail::is_printable(unsigned int)
PUBLIC 312ac 0 fmt::v11::detail::dragonbox::to_decimal<float>(float)
PUBLIC 31588 0 fmt::v11::detail::dragonbox::to_decimal<double>(double)
PUBLIC 31ac4 0 fmt::v11::basic_memory_buffer<char, (unsigned long)500, std::__ndk1::allocator<char> >::grow(fmt::v11::detail::buffer<char>&, unsigned long)
PUBLIC 31b3c 0 fmt::v11::format_facet<std::__ndk1::locale>::~format_facet()
PUBLIC 31bc8 0 fmt::v11::format_error::~format_error()
PUBLIC 31bec 0 fmt::v11::detail::copy_noinline<char, char const*, fmt::v11::basic_appender<char> >(char const*, char const*, fmt::v11::basic_appender<char>)
PUBLIC 31d3c 0 fmt::v11::detail::default_arg_formatter<char>::operator()<bool>(bool)
PUBLIC 31da4 0 fmt::v11::detail::default_arg_formatter<char>::operator()<char>(char)
PUBLIC 31e34 0 fmt::v11::detail::default_arg_formatter<char>::operator()<float>(float)
PUBLIC 31f20 0 fmt::v11::detail::default_arg_formatter<char>::operator()<double>(double)
PUBLIC 3200c 0 fmt::v11::detail::default_arg_formatter<char>::operator()<char const*>(char const*)
PUBLIC 32054 0 fmt::v11::detail::default_arg_formatter<char>::operator()<void const*>(void const*)
PUBLIC 320ec 0 _ZN3fmt3v116detail5writeIcNS0_14basic_appenderIcEEiTnNSt6__ndk19enable_ifIXaaaasr11is_integralIT1_EE5valuentsr3std7is_sameIS7_bEE5valuentsr3std7is_sameIS7_T_EE5valueEiE4typeELi0EEET0_SB_S7_
PUBLIC 3234c 0 fmt::v11::detail::copy_noinline<char, char*, fmt::v11::basic_appender<char> >(char*, char*, fmt::v11::basic_appender<char>)
PUBLIC 3249c 0 _ZN3fmt3v116detail5writeIcNS0_14basic_appenderIcEEjTnNSt6__ndk19enable_ifIXaaaasr11is_integralIT1_EE5valuentsr3std7is_sameIS7_bEE5valuentsr3std7is_sameIS7_T_EE5valueEiE4typeELi0EEET0_SB_S7_
PUBLIC 3267c 0 _ZN3fmt3v116detail5writeIcNS0_14basic_appenderIcEExTnNSt6__ndk19enable_ifIXaaaasr11is_integralIT1_EE5valuentsr3std7is_sameIS7_bEE5valuentsr3std7is_sameIS7_T_EE5valueEiE4typeELi0EEET0_SB_S7_
PUBLIC 32900 0 _ZN3fmt3v116detail5writeIcNS0_14basic_appenderIcEEyTnNSt6__ndk19enable_ifIXaaaasr11is_integralIT1_EE5valuentsr3std7is_sameIS7_bEE5valuentsr3std7is_sameIS7_T_EE5valueEiE4typeELi0EEET0_SB_S7_
PUBLIC 32b08 0 _ZN3fmt3v116detail5writeIcNS0_14basic_appenderIcEEnTnNSt6__ndk19enable_ifIXaaaasr11is_integralIT1_EE5valuentsr3std7is_sameIS7_bEE5valuentsr3std7is_sameIS7_T_EE5valueEiE4typeELi0EEET0_SB_S7_
PUBLIC 32e68 0 _ZN3fmt3v116detail5writeIcNS0_14basic_appenderIcEEoTnNSt6__ndk19enable_ifIXaaaasr11is_integralIT1_EE5valuentsr3std7is_sameIS7_bEE5valuentsr3std7is_sameIS7_T_EE5valueEiE4typeELi0EEET0_SB_S7_
PUBLIC 3317c 0 _ZN3fmt3v116detail5writeIcNS0_14basic_appenderIcEEbTnNSt6__ndk19enable_ifIXsr3std7is_sameIT1_bEE5valueEiE4typeELi0EEET0_SA_S7_RKNS0_12format_specsENS1_10locale_refE
PUBLIC 3340c 0 fmt::v11::detail::write_int_noinline<char, fmt::v11::basic_appender<char>, unsigned int>(fmt::v11::basic_appender<char>, fmt::v11::detail::write_int_arg<unsigned int>, fmt::v11::format_specs const&, fmt::v11::detail::locale_ref)
PUBLIC 341e8 0 fmt::v11::detail::fill<char, fmt::v11::basic_appender<char> >(fmt::v11::basic_appender<char>, unsigned long, fmt::v11::detail::fill_t const&)
PUBLIC 343b8 0 fmt::v11::detail::write_padded<char, (fmt::v11::align::type)1, fmt::v11::basic_appender<char>, fmt::v11::detail::write_char<char, fmt::v11::basic_appender<char> >(fmt::v11::basic_appender<char>, char, fmt::v11::format_specs const&)::{lambda(fmt::v11::basic_appender<char>&)#1}>(fmt::v11::basic_appender<char>, fmt::v11::format_specs const&, unsigned long, unsigned long, fmt::v11::detail::write_char<char, fmt::v11::basic_appender<char> >(fmt::v11::basic_appender<char>, char, fmt::v11::format_specs const&)::{lambda(fmt::v11::basic_appender<char>&)#1})
PUBLIC 345f4 0 fmt::v11::detail::write_escaped_cp<fmt::v11::basic_appender<char>, char>(fmt::v11::basic_appender<char>, fmt::v11::detail::find_escape_result<char> const&)
PUBLIC 34900 0 fmt::v11::detail::write_codepoint<(unsigned long)2, char, fmt::v11::basic_appender<char> >(fmt::v11::basic_appender<char>, char, unsigned int)
PUBLIC 34a78 0 fmt::v11::detail::write_codepoint<(unsigned long)8, char, fmt::v11::basic_appender<char> >(fmt::v11::basic_appender<char>, char, unsigned int)
PUBLIC 34bf0 0 fmt::v11::detail::write_padded<char, (fmt::v11::align::type)1, fmt::v11::basic_appender<char>, fmt::v11::detail::write_nonfinite<char, fmt::v11::basic_appender<char> >(fmt::v11::basic_appender<char>, bool, fmt::v11::format_specs, fmt::v11::sign::type)::{lambda(fmt::v11::basic_appender<char>&)#1}>(fmt::v11::basic_appender<char>, fmt::v11::format_specs const&, unsigned long, unsigned long, fmt::v11::detail::write_nonfinite<char, fmt::v11::basic_appender<char> >(fmt::v11::basic_appender<char>, bool, fmt::v11::format_specs, fmt::v11::sign::type)::{lambda(fmt::v11::basic_appender<char>&)#1})
PUBLIC 34e30 0 fmt::v11::detail::do_write_float<char, fmt::v11::basic_appender<char>, fmt::v11::detail::dragonbox::decimal_fp<float>, fmt::v11::detail::digit_grouping<char> >(fmt::v11::basic_appender<char>, fmt::v11::detail::dragonbox::decimal_fp<float> const&, fmt::v11::format_specs const&, fmt::v11::detail::float_specs, fmt::v11::detail::locale_ref)
PUBLIC 35aa4 0 fmt::v11::detail::do_write_float<char, fmt::v11::basic_appender<char>, fmt::v11::detail::dragonbox::decimal_fp<float>, fmt::v11::detail::digit_grouping<char> >(fmt::v11::basic_appender<char>, fmt::v11::detail::dragonbox::decimal_fp<float> const&, fmt::v11::format_specs const&, fmt::v11::detail::float_specs, fmt::v11::detail::locale_ref)::{lambda(fmt::v11::basic_appender<char>(fmt::v11::basic_appender<char>))#1}::operator() const
PUBLIC 35bf8 0 fmt::v11::detail::digit_grouping<char>::digit_grouping(fmt::v11::detail::locale_ref, bool)
PUBLIC 35e64 0 fmt::v11::detail::digit_grouping<char>::~digit_grouping()
PUBLIC 35ea8 0 fmt::v11::detail::write_exponent<char, fmt::v11::basic_appender<char> >(int, fmt::v11::basic_appender<char>)
PUBLIC 36078 0 _ZN3fmt3v116detail17write_significandIcjTnNSt6__ndk19enable_ifIXsr3std11is_integralIT0_EE5valueEiE4typeELi0EEEPT_S9_S5_iiS8_
PUBLIC 361f4 0 fmt::v11::detail::digit_grouping<char>::apply<fmt::v11::basic_appender<char>, char>(fmt::v11::basic_appender<char>, fmt::v11::basic_string_view<char>) const
PUBLIC 365ac 0 fmt::v11::basic_memory_buffer<int, (unsigned long)500, std::__ndk1::allocator<int> >::grow(fmt::v11::detail::buffer<int>&, unsigned long)
PUBLIC 3664c 0 fmt::v11::detail::do_write_float<char, fmt::v11::basic_appender<char>, fmt::v11::detail::dragonbox::decimal_fp<double>, fmt::v11::detail::digit_grouping<char> >(fmt::v11::basic_appender<char>, fmt::v11::detail::dragonbox::decimal_fp<double> const&, fmt::v11::format_specs const&, fmt::v11::detail::float_specs, fmt::v11::detail::locale_ref)
PUBLIC 37300 0 fmt::v11::detail::do_write_float<char, fmt::v11::basic_appender<char>, fmt::v11::detail::dragonbox::decimal_fp<double>, fmt::v11::detail::digit_grouping<char> >(fmt::v11::basic_appender<char>, fmt::v11::detail::dragonbox::decimal_fp<double> const&, fmt::v11::format_specs const&, fmt::v11::detail::float_specs, fmt::v11::detail::locale_ref)::{lambda(fmt::v11::basic_appender<char>(fmt::v11::basic_appender<char>))#1}::operator() const
PUBLIC 37458 0 _ZN3fmt3v116detail17write_significandIcmTnNSt6__ndk19enable_ifIXsr3std11is_integralIT0_EE5valueEiE4typeELi0EEEPT_S9_S5_iiS8_
PUBLIC 375e8 0 fmt::v11::detail::write_float<char, fmt::v11::basic_appender<char>, long double>(fmt::v11::basic_appender<char>, long double, fmt::v11::format_specs, fmt::v11::detail::locale_ref)
PUBLIC 380e4 0 fmt::v11::detail::write_padded<char, (fmt::v11::align::type)2, fmt::v11::basic_appender<char>, fmt::v11::detail::write_bytes<char, (fmt::v11::align::type)2, fmt::v11::basic_appender<char> >(fmt::v11::basic_appender<char>, fmt::v11::basic_string_view<char>, fmt::v11::format_specs const&)::{lambda(fmt::v11::basic_appender<char>&)#1}>(fmt::v11::basic_appender<char>, fmt::v11::format_specs const&, unsigned long, unsigned long, fmt::v11::detail::write_bytes<char, (fmt::v11::align::type)2, fmt::v11::basic_appender<char> >(fmt::v11::basic_appender<char>, fmt::v11::basic_string_view<char>, fmt::v11::format_specs const&)::{lambda(fmt::v11::basic_appender<char>&)#1})
PUBLIC 382c0 0 fmt::v11::detail::format_dragon(fmt::v11::detail::basic_fp<unsigned __int128>, unsigned int, int, fmt::v11::detail::buffer<char>&, int&)
PUBLIC 396f0 0 fmt::v11::detail::bigint::operator<<=(int)
PUBLIC 39814 0 fmt::v11::detail::bigint::assign_pow10(int)
PUBLIC 39f70 0 fmt::v11::detail::bigint::divmod_assign(fmt::v11::detail::bigint const&)
PUBLIC 3a290 0 fmt::v11::basic_memory_buffer<unsigned int, (unsigned long)32, std::__ndk1::allocator<unsigned int> >::grow(fmt::v11::detail::buffer<unsigned int>&, unsigned long)
PUBLIC 3a330 0 fmt::v11::detail::do_write_float<char, fmt::v11::basic_appender<char>, fmt::v11::detail::big_decimal_fp, fmt::v11::detail::digit_grouping<char> >(fmt::v11::basic_appender<char>, fmt::v11::detail::big_decimal_fp const&, fmt::v11::format_specs const&, fmt::v11::detail::float_specs, fmt::v11::detail::locale_ref)
PUBLIC 3b1e0 0 fmt::v11::detail::do_write_float<char, fmt::v11::basic_appender<char>, fmt::v11::detail::big_decimal_fp, fmt::v11::detail::digit_grouping<char> >(fmt::v11::basic_appender<char>, fmt::v11::detail::big_decimal_fp const&, fmt::v11::format_specs const&, fmt::v11::detail::float_specs, fmt::v11::detail::locale_ref)::{lambda(fmt::v11::basic_appender<char>(fmt::v11::basic_appender<char>))#1}::operator() const
PUBLIC 3b340 0 fmt::v11::detail::write_padded<char, (fmt::v11::align::type)2, fmt::v11::basic_appender<char>, fmt::v11::detail::write_ptr<char, fmt::v11::basic_appender<char>, unsigned long>(fmt::v11::basic_appender<char>, unsigned long, fmt::v11::format_specs const*)::{lambda(fmt::v11::basic_appender<char>&)#1}>(fmt::v11::basic_appender<char>, fmt::v11::format_specs const&, unsigned long, unsigned long, fmt::v11::detail::write_ptr<char, fmt::v11::basic_appender<char>, unsigned long>(fmt::v11::basic_appender<char>, unsigned long, fmt::v11::format_specs const*)::{lambda(fmt::v11::basic_appender<char>&)#1})
PUBLIC 3b554 0 fmt::v11::detail::parse_replacement_field<char, fmt::v11::detail::vformat_to<char>(fmt::v11::detail::buffer<char>&, fmt::v11::basic_string_view<char>, fmt::v11::detail::vformat_args<char>::type, fmt::v11::detail::locale_ref)::format_handler&>(char const*, char const*, fmt::v11::detail::vformat_to<char>(fmt::v11::detail::buffer<char>&, fmt::v11::basic_string_view<char>, fmt::v11::detail::vformat_args<char>::type, fmt::v11::detail::locale_ref)::format_handler&)
PUBLIC 3d1f0 0 fmt::v11::detail::parse_dynamic_spec<char>(char const*, char const*, int&, fmt::v11::detail::arg_ref<char>&, fmt::v11::basic_format_parse_context<char>&)
PUBLIC 3d480 0 fmt::v11::basic_format_args<fmt::v11::context>::get<char>(fmt::v11::basic_string_view<char>) const
PUBLIC 3d5d8 0 fmt::v11::detail::write_int_noinline<char, fmt::v11::basic_appender<char>, unsigned long>(fmt::v11::basic_appender<char>, fmt::v11::detail::write_int_arg<unsigned long>, fmt::v11::format_specs const&, fmt::v11::detail::locale_ref)
PUBLIC 3e42c 0 fmt::v11::detail::write_int_noinline<char, fmt::v11::basic_appender<char>, unsigned __int128>(fmt::v11::basic_appender<char>, fmt::v11::detail::write_int_arg<unsigned __int128>, fmt::v11::format_specs const&, fmt::v11::detail::locale_ref)
PUBLIC 3f494 0 _ZN3fmt3v116detail15format_hexfloatIdTnNSt6__ndk19enable_ifIXntsr16is_double_doubleIT_EE5valueEiE4typeELi0EEEvS5_NS0_12format_specsERNS1_6bufferIcEE
PUBLIC 3f9b4 0 fmt::v11::detail::format_float<double>(double, int, fmt::v11::detail::float_specs, fmt::v11::detail::buffer<char>&)
PUBLIC 40354 0 fmt::v11::detail::write<char, fmt::v11::basic_appender<char> >(fmt::v11::basic_appender<char>, fmt::v11::basic_string_view<char>, fmt::v11::format_specs const&)
PUBLIC 416c0 0 fmt::v11::detail::for_each_codepoint<fmt::v11::detail::compute_width(fmt::v11::basic_string_view<char>)::count_code_points>(fmt::v11::basic_string_view<char>, fmt::v11::detail::compute_width(fmt::v11::basic_string_view<char>)::count_code_points)::{lambda(char const*, char const*)#1}::operator()(char const*, char const*) const
PUBLIC 41878 0 fmt::v11::detail::write_int<fmt::v11::basic_appender<char>, unsigned long, char>(fmt::v11::basic_appender<char>, unsigned long, unsigned int, fmt::v11::format_specs const&, fmt::v11::detail::digit_grouping<char> const&)
PUBLIC 41df4 0 fmt::v11::detail::write_int<fmt::v11::basic_appender<char>, unsigned __int128, char>(fmt::v11::basic_appender<char>, unsigned __int128, unsigned int, fmt::v11::format_specs const&, fmt::v11::detail::digit_grouping<char> const&)
PUBLIC 42470 0 __CortexA53843419_25000
PUBLIC 42480 0 <.plt ELF section in crewly.comboburst.android64.so>
STACK CFI INIT 19660 10 .cfa: sp 0 +
STACK CFI INIT 19670 8 .cfa: sp 0 +
STACK CFI INIT 19678 8 .cfa: sp 0 +
STACK CFI INIT 19680 14 .cfa: sp 0 +
STACK CFI INIT 19694 1c .cfa: sp 0 +
STACK CFI INIT 196b0 10 .cfa: sp 0 +
STACK CFI INIT 196c0 134 .cfa: sp 0 +
STACK CFI INIT 197f4 84 .cfa: sp 0 +
STACK CFI INIT 19878 f4 .cfa: sp 0 +
STACK CFI INIT 1996c a8 .cfa: sp 0 +
STACK CFI INIT 19a14 7c .cfa: sp 0 +
STACK CFI INIT 19a90 14 .cfa: sp 0 +
STACK CFI INIT 19aa4 40 .cfa: sp 0 +
STACK CFI INIT 19ae4 28 .cfa: sp 0 +
STACK CFI INIT 19b0c 190 .cfa: sp 0 +
STACK CFI INIT 19c9c 2c8 .cfa: sp 0 +
STACK CFI INIT 19f64 8 .cfa: sp 0 +
STACK CFI INIT 19f6c 8 .cfa: sp 0 +
STACK CFI INIT 19f74 44 .cfa: sp 0 +
STACK CFI INIT 19fb8 e8 .cfa: sp 0 +
STACK CFI INIT 1a0a0 e8 .cfa: sp 0 +
STACK CFI INIT 1a188 14 .cfa: sp 0 +
STACK CFI INIT 1a19c 10 .cfa: sp 0 +
STACK CFI INIT 1a1ac 10 .cfa: sp 0 +
STACK CFI INIT 1a1bc f0 .cfa: sp 0 +
STACK CFI INIT 1a2ac 44 .cfa: sp 0 +
STACK CFI INIT 1a2f0 c .cfa: sp 0 +
STACK CFI INIT 1a2fc c .cfa: sp 0 +
STACK CFI INIT 1a308 2c .cfa: sp 0 +
STACK CFI INIT 1a334 280 .cfa: sp 0 +
STACK CFI INIT 1a5b4 c .cfa: sp 0 +
STACK CFI INIT 1a5c0 120 .cfa: sp 0 +
STACK CFI INIT 1a6e0 488 .cfa: sp 0 +
STACK CFI INIT 1ab68 c48 .cfa: sp 0 +
STACK CFI INIT 1b7b0 134 .cfa: sp 0 +
STACK CFI INIT 1b8e4 210 .cfa: sp 0 +
STACK CFI INIT 1baf4 38c .cfa: sp 0 +
STACK CFI INIT 1be80 1c8 .cfa: sp 0 +
STACK CFI INIT 1c048 9bc .cfa: sp 0 +
STACK CFI INIT 1ca04 2d4 .cfa: sp 0 +
STACK CFI INIT 1ccd8 134 .cfa: sp 0 +
STACK CFI INIT 1ce0c 120 .cfa: sp 0 +
STACK CFI INIT 1cf2c 1c8 .cfa: sp 0 +
STACK CFI INIT 1d0f4 168 .cfa: sp 0 +
STACK CFI INIT 1d25c fc .cfa: sp 0 +
STACK CFI INIT 1d358 30 .cfa: sp 0 +
STACK CFI INIT 1d4c0 30 .cfa: sp 0 +
STACK CFI INIT 1d4f0 98 .cfa: sp 0 +
STACK CFI INIT 1d588 59c .cfa: sp 0 +
STACK CFI INIT 1db24 8c .cfa: sp 0 +
STACK CFI INIT 1dbb0 30 .cfa: sp 0 +
STACK CFI INIT 1e218 1c .cfa: sp 0 +
STACK CFI INIT 1e234 14 .cfa: sp 0 +
STACK CFI 1e238 .cfa: sp 16 +
STACK CFI 1e23c .cfa: x29 16 + .ra: .cfa -8 + ^ x29: .cfa -16 + ^
STACK CFI INIT 1e298 30 .cfa: sp 0 +
STACK CFI 1e29c .cfa: sp 32 +
STACK CFI 1e2a4 .cfa: x29 32 + x19: .cfa -16 + ^ .ra: .cfa -24 + ^ x29: .cfa -32 + ^
STACK CFI 1e2bc .cfa: sp 32 +
STACK CFI 1e2c4 .cfa: sp 0 +
STACK CFI INIT 1e2c8 34 .cfa: sp 0 +
STACK CFI 1e2cc .cfa: sp 32 +
STACK CFI 1e2d4 .cfa: x29 32 + x19: .cfa -16 + ^ .ra: .cfa -24 + ^ x29: .cfa -32 + ^
STACK CFI INIT 1e2fc 10 .cfa: sp 0 +
STACK CFI 1e300 .cfa: sp 16 +
STACK CFI 1e304 .cfa: x29 16 + .ra: .cfa -8 + ^ x29: .cfa -16 + ^
STACK CFI INIT 1e614 98 .cfa: sp 0 +
STACK CFI 1e618 .cfa: sp 96 +
STACK CFI 1e62c .cfa: x29 64 + x19: .cfa -8 + ^ x20: .cfa -16 + ^ x21: .cfa -24 + ^ x22: .cfa -32 + ^ x23: .cfa -48 + ^ .ra: .cfa -56 + ^ x29: .cfa -64 + ^
STACK CFI 1e690 .cfa: sp 96 +
STACK CFI 1e6a4 .cfa: sp 0 +
STACK CFI 1e6a8 .cfa: x29 64 +
STACK CFI INIT 1e6ac e8 .cfa: sp 0 +
STACK CFI 1e6b0 .cfa: sp 32 +
STACK CFI 1e6b8 .cfa: x29 32 + x19: .cfa -8 + ^ x20: .cfa -16 + ^ .ra: .cfa -24 + ^ x29: .cfa -32 + ^
STACK CFI 1e6f8 .cfa: sp 32 +
STACK CFI 1e700 .cfa: sp 0 +
STACK CFI 1e704 .cfa: x29 32 +
STACK CFI 1e740 .cfa: sp 32 +
STACK CFI 1e748 .cfa: sp 0 +
STACK CFI 1e74c .cfa: x29 32 +
STACK CFI 1e76c .cfa: sp 32 +
STACK CFI 1e774 .cfa: sp 0 +
STACK CFI 1e778 .cfa: x29 32 +
STACK CFI 1e788 .cfa: sp 32 +
STACK CFI 1e790 .cfa: sp 0 +
STACK CFI INIT 1e794 80 .cfa: sp 0 +
STACK CFI 1e798 .cfa: sp 48 +
STACK CFI 1e7a4 .cfa: x29 48 + x19: .cfa -8 + ^ x20: .cfa -16 + ^ x21: .cfa -24 + ^ x22: .cfa -32 + ^ .ra: .cfa -40 + ^ x29: .cfa -48 + ^
STACK CFI 1e7bc .cfa: sp 48 +
STACK CFI 1e7c8 .cfa: sp 0 +
STACK CFI 1e7cc .cfa: x29 48 +
STACK CFI 1e7fc .cfa: sp 48 +
STACK CFI 1e808 .cfa: sp 0 +
STACK CFI 1e80c .cfa: x29 48 +
STACK CFI INIT 1e814 ac .cfa: sp 0 +
STACK CFI 1e818 .cfa: sp 64 +
STACK CFI 1e828 .cfa: x29 64 + x19: .cfa -8 + ^ x20: .cfa -16 + ^ x21: .cfa -24 + ^ x22: .cfa -32 + ^ x23: .cfa -48 + ^ .ra: .cfa -56 + ^ x29: .cfa -64 + ^
STACK CFI 1e8a4 .cfa: sp 64 +
STACK CFI 1e8b4 .cfa: sp 0 +
STACK CFI 1e8b8 .cfa: x29 64 +
STACK CFI INIT 1e8c0 110 .cfa: sp 0 +
STACK CFI 1e8c4 .cfa: sp 64 +
STACK CFI 1e8d4 .cfa: x29 64 + x19: .cfa -8 + ^ x20: .cfa -16 + ^ x21: .cfa -24 + ^ x22: .cfa -32 + ^ x23: .cfa -40 + ^ x24: .cfa -48 + ^ .ra: .cfa -56 + ^ x29: .cfa -64 + ^
STACK CFI 1e9b4 .cfa: sp 64 +
STACK CFI 1e9c4 .cfa: sp 0 +
STACK CFI 1e9c8 .cfa: x29 64 +
STACK CFI INIT 1ecd4 14 .cfa: sp 0 +
STACK CFI 1ecd8 .cfa: sp 16 +
STACK CFI 1ecdc .cfa: x29 16 + .ra: .cfa -8 + ^ x29: .cfa -16 + ^
STACK CFI INIT 1ece8 4 .cfa: sp 0 +
STACK CFI INIT 1ee60 5c .cfa: sp 0 +
STACK CFI 1ee64 .cfa: sp 32 +
STACK CFI 1ee6c .cfa: x29 32 + x19: .cfa -16 + ^ .ra: .cfa -24 + ^ x29: .cfa -32 + ^
STACK CFI 1eeb0 .cfa: sp 32 +
STACK CFI 1eeb8 .cfa: sp 0 +
STACK CFI INIT 1eebc 64 .cfa: sp 0 +
STACK CFI 1eec0 .cfa: sp 32 +
STACK CFI 1eec8 .cfa: x29 32 + x19: .cfa -16 + ^ .ra: .cfa -24 + ^ x29: .cfa -32 + ^
STACK CFI 1ef14 .cfa: sp 32 +
STACK CFI 1ef1c .cfa: sp 0 +
STACK CFI INIT 1ef20 4 .cfa: sp 0 +
STACK CFI INIT 1ef24 4 .cfa: sp 0 +
STACK CFI INIT 1ef28 34 .cfa: sp 0 +
STACK CFI 1ef2c .cfa: sp 32 +
STACK CFI 1ef34 .cfa: x29 32 + x19: .cfa -16 + ^ .ra: .cfa -24 + ^ x29: .cfa -32 + ^
STACK CFI 1ef50 .cfa: sp 32 +
STACK CFI 1ef58 .cfa: sp 0 +
STACK CFI INIT 1ef5c 14 .cfa: sp 0 +
STACK CFI INIT 1ef70 4 .cfa: sp 0 +
STACK CFI INIT 1ef74 4 .cfa: sp 0 +
STACK CFI INIT 1ef78 10 .cfa: sp 0 +
STACK CFI INIT 1ef88 1c .cfa: sp 0 +
STACK CFI INIT 1efa4 c .cfa: sp 0 +
STACK CFI INIT 1efb0 104 .cfa: sp 0 +
STACK CFI 1efb4 .cfa: sp 64 +
STACK CFI 1efc4 .cfa: x29 64 + x19: .cfa -8 + ^ x20: .cfa -16 + ^ x21: .cfa -24 + ^ x22: .cfa -32 + ^ x23: .cfa -48 + ^ .ra: .cfa -56 + ^ x29: .cfa -64 + ^
STACK CFI 1f020 .cfa: sp 64 +
STACK CFI 1f030 .cfa: sp 0 +
STACK CFI 1f034 .cfa: x29 64 +
STACK CFI 1f050 .cfa: sp 64 +
STACK CFI 1f060 .cfa: sp 0 +
STACK CFI 1f064 .cfa: x29 64 +
STACK CFI 1f0a0 .cfa: sp 64 +
STACK CFI 1f0b0 .cfa: sp 0 +
STACK CFI INIT 1f7cc 50 .cfa: sp 0 +
STACK CFI 1f7d0 .cfa: sp 32 +
STACK CFI 1f7d8 .cfa: x29 32 + x19: .cfa -16 + ^ .ra: .cfa -24 + ^ x29: .cfa -32 + ^
STACK CFI 1f7f0 .cfa: sp 32 +
STACK CFI 1f7f8 .cfa: sp 0 +
STACK CFI 1f7fc .cfa: x29 32 +
STACK CFI 1f810 .cfa: sp 32 +
STACK CFI 1f818 .cfa: sp 0 +
STACK CFI INIT 1f890 7c .cfa: sp 0 +
STACK CFI 1f894 .cfa: sp 48 +
STACK CFI 1f8a0 .cfa: x29 48 + x19: .cfa -8 + ^ x20: .cfa -16 + ^ x21: .cfa -32 + ^ .ra: .cfa -40 + ^ x29: .cfa -48 + ^
STACK CFI 1f8ec .cfa: sp 48 +
STACK CFI 1f8f8 .cfa: sp 0 +
STACK CFI 1f8fc .cfa: sp 48 +
STACK CFI 1f908 .cfa: sp 0 +
STACK CFI INIT 1f90c 4 .cfa: sp 0 +
STACK CFI INIT 1fa64 34 .cfa: sp 0 +
STACK CFI 1fa68 .cfa: sp 16 +
STACK CFI 1fa6c .cfa: x29 16 + .ra: .cfa -8 + ^ x29: .cfa -16 + ^
STACK CFI INIT 1fbc4 80 .cfa: sp 0 +
STACK CFI 1fbc8 .cfa: sp 48 +
STACK CFI 1fbd4 .cfa: x29 48 + x19: .cfa -8 + ^ x20: .cfa -16 + ^ x21: .cfa -32 + ^ .ra: .cfa -40 + ^ x29: .cfa -48 + ^
STACK CFI 1fc34 .cfa: sp 48 +
STACK CFI 1fc40 .cfa: sp 0 +
STACK CFI INIT 1fc44 24 .cfa: sp 0 +
STACK CFI 1fc48 .cfa: sp 32 +
STACK CFI 1fc50 .cfa: x29 32 + x19: .cfa -16 + ^ .ra: .cfa -24 + ^ x29: .cfa -32 + ^
STACK CFI 1fc5c .cfa: sp 32 +
STACK CFI 1fc64 .cfa: sp 0 +
STACK CFI INIT 20160 148 .cfa: sp 0 +
STACK CFI 20164 .cfa: sp 48 +
STACK CFI 20170 .cfa: x29 48 + x19: .cfa -8 + ^ x20: .cfa -16 + ^ x21: .cfa -32 + ^ .ra: .cfa -40 + ^ x29: .cfa -48 + ^
STACK CFI 20298 .cfa: sp 48 +
STACK CFI 202a4 .cfa: sp 0 +
STACK CFI INIT 204d0 68 .cfa: sp 0 +
STACK CFI 204d4 .cfa: sp 32 +
STACK CFI 204dc .cfa: x29 32 + x19: .cfa -8 + ^ x20: .cfa -16 + ^ .ra: .cfa -24 + ^ x29: .cfa -32 + ^
STACK CFI 204f4 .cfa: sp 32 +
STACK CFI 204fc .cfa: sp 0 +
STACK CFI 20500 .cfa: x29 32 +
STACK CFI 2052c .cfa: sp 32 +
STACK CFI 20534 .cfa: sp 0 +
STACK CFI INIT 20538 14 .cfa: sp 0 +
STACK CFI 2053c .cfa: sp 16 +
STACK CFI 20540 .cfa: x29 16 + .ra: .cfa -8 + ^ x29: .cfa -16 + ^
STACK CFI INIT 2054c 4 .cfa: sp 0 +
STACK CFI INIT 20550 14 .cfa: sp 0 +
STACK CFI INIT 20564 120 .cfa: sp 0 +
STACK CFI 20568 .cfa: sp 64 +
STACK CFI 20578 .cfa: x29 64 + x19: .cfa -8 + ^ x20: .cfa -16 + ^ x21: .cfa -24 + ^ x22: .cfa -32 + ^ x23: .cfa -40 + ^ x24: .cfa -48 + ^ .ra: .cfa -56 + ^ x29: .cfa -64 + ^
STACK CFI 20670 .cfa: sp 64 +
STACK CFI 20680 .cfa: sp 0 +
STACK CFI INIT 20684 d4 .cfa: sp 0 +
STACK CFI 20688 .cfa: sp 48 +
STACK CFI 20694 .cfa: x29 48 + x19: .cfa -8 + ^ x20: .cfa -16 + ^ x21: .cfa -32 + ^ .ra: .cfa -40 + ^ x29: .cfa -48 + ^
STACK CFI 20724 .cfa: sp 48 +
STACK CFI 20730 .cfa: sp 0 +
STACK CFI 20734 .cfa: x29 48 +
STACK CFI INIT 20758 3c8 .cfa: sp 0 +
STACK CFI INIT 20b20 8c .cfa: sp 0 +
STACK CFI 20b28 .cfa: sp 32 +
STACK CFI 20b30 .cfa: x29 32 + x19: .cfa -8 + ^ x20: .cfa -16 + ^ .ra: .cfa -24 + ^ x29: .cfa -32 + ^
STACK CFI 20b78 .cfa: sp 32 +
STACK CFI 20b80 .cfa: sp 0 +
STACK CFI 20b88 .cfa: x29 32 +
STACK CFI INIT 20bac e4 .cfa: sp 0 +
STACK CFI 20bb0 .cfa: sp 32 +
STACK CFI 20bb8 .cfa: x29 32 + x19: .cfa -8 + ^ x20: .cfa -16 + ^ .ra: .cfa -24 + ^ x29: .cfa -32 + ^
STACK CFI 20c58 .cfa: sp 32 +
STACK CFI 20c60 .cfa: sp 0 +
STACK CFI 20c64 .cfa: x29 32 +
STACK CFI 20c84 .cfa: sp 32 +
STACK CFI 20c8c .cfa: sp 0 +
STACK CFI INIT 20e14 28 .cfa: sp 0 +
STACK CFI 20e18 .cfa: sp 16 +
STACK CFI 20e1c .cfa: x29 16 + .ra: .cfa -8 + ^ x29: .cfa -16 + ^
STACK CFI 20e2c .cfa: sp 16 +
STACK CFI 20e30 .cfa: sp 0 +
STACK CFI 20e34 .cfa: sp 16 +
STACK CFI 20e38 .cfa: sp 0 +
STACK CFI INIT 20e3c 2c .cfa: sp 0 +
STACK CFI 20e40 .cfa: sp 16 +
STACK CFI 20e44 .cfa: x29 16 + .ra: .cfa -8 + ^ x29: .cfa -16 + ^
STACK CFI 20e58 .cfa: sp 16 +
STACK CFI 20e5c .cfa: sp 0 +
STACK CFI 20e60 .cfa: sp 16 +
STACK CFI 20e64 .cfa: sp 0 +
STACK CFI INIT 20f10 8c .cfa: sp 0 +
STACK CFI 20f14 .cfa: sp 32 +
STACK CFI 20f1c .cfa: x29 32 + x19: .cfa -16 + ^ .ra: .cfa -24 + ^ x29: .cfa -32 + ^
STACK CFI 20f90 .cfa: sp 32 +
STACK CFI 20f98 .cfa: sp 0 +
STACK CFI INIT 20f9c 50 .cfa: sp 0 +
STACK CFI 20fa0 .cfa: sp 32 +
STACK CFI 20fa8 .cfa: x29 32 + x19: .cfa -16 + ^ .ra: .cfa -24 + ^ x29: .cfa -32 + ^
STACK CFI 20fc0 .cfa: sp 32 +
STACK CFI 20fc8 .cfa: sp 0 +
STACK CFI 20fcc .cfa: x29 32 +
STACK CFI 20fe0 .cfa: sp 32 +
STACK CFI 20fe8 .cfa: sp 0 +
STACK CFI INIT 20fec 64 .cfa: sp 0 +
STACK CFI 20ff0 .cfa: sp 32 +
STACK CFI 20ff8 .cfa: x29 32 + x19: .cfa -16 + ^ .ra: .cfa -24 + ^ x29: .cfa -32 + ^
STACK CFI 21024 .cfa: sp 32 +
STACK CFI 2102c .cfa: sp 0 +
STACK CFI 21030 .cfa: x29 32 +
STACK CFI 21044 .cfa: sp 32 +
STACK CFI 2104c .cfa: sp 0 +
STACK CFI INIT 21184 3c .cfa: sp 0 +
STACK CFI 21188 .cfa: sp 32 +
STACK CFI 21190 .cfa: x29 32 + x19: .cfa -16 + ^ .ra: .cfa -24 + ^ x29: .cfa -32 + ^
STACK CFI 2119c .cfa: sp 32 +
STACK CFI 211a4 .cfa: sp 0 +
STACK CFI 211a8 .cfa: x29 32 +
STACK CFI 211b4 .cfa: sp 32 +
STACK CFI 211bc .cfa: sp 0 +
STACK CFI INIT 211c0 178 .cfa: sp 0 +
STACK CFI 211c4 .cfa: sp 80 +
STACK CFI 211d8 .cfa: x29 80 + x19: .cfa -8 + ^ x20: .cfa -16 + ^ x21: .cfa -24 + ^ x22: .cfa -32 + ^ x23: .cfa -40 + ^ x24: .cfa -48 + ^ x25: .cfa -56 + ^ x26: .cfa -64 + ^ .ra: .cfa -72 + ^ x29: .cfa -80 + ^
STACK CFI 21320 .cfa: sp 80 +
STACK CFI 21334 .cfa: sp 0 +
STACK CFI INIT 21338 1b0 .cfa: sp 0 +
STACK CFI INIT 22de0 1c .cfa: sp 0 +
STACK CFI INIT 2343c 4 .cfa: sp 0 +
STACK CFI INIT 23440 14 .cfa: sp 0 +
STACK CFI 23444 .cfa: sp 16 +
STACK CFI 23448 .cfa: x29 16 + .ra: .cfa -8 + ^ x29: .cfa -16 + ^
STACK CFI INIT 23454 14 .cfa: sp 0 +
STACK CFI 23458 .cfa: sp 16 +
STACK CFI 2345c .cfa: x29 16 + .ra: .cfa -8 + ^ x29: .cfa -16 + ^
STACK CFI INIT 23468 c .cfa: sp 0 +
STACK CFI 2346c .cfa: sp 16 +
STACK CFI 23470 .cfa: x29 16 + .ra: .cfa -8 + ^ x29: .cfa -16 + ^
STACK CFI INIT 234c4 30 .cfa: sp 0 +
STACK CFI 234c8 .cfa: sp 32 +
STACK CFI 234d0 .cfa: x29 32 + x19: .cfa -16 + ^ .ra: .cfa -24 + ^ x29: .cfa -32 + ^
STACK CFI 234e8 .cfa: sp 32 +
STACK CFI 234f0 .cfa: sp 0 +
STACK CFI INIT 234f4 c .cfa: sp 0 +
STACK CFI 234f8 .cfa: sp 16 +
STACK CFI 234fc .cfa: x29 16 + .ra: .cfa -8 + ^ x29: .cfa -16 + ^
STACK CFI INIT 23500 4 .cfa: sp 0 +
STACK CFI INIT 23504 4 .cfa: sp 0 +
STACK CFI INIT 23508 38 .cfa: sp 0 +
STACK CFI 2350c .cfa: sp 32 +
STACK CFI 23514 .cfa: x29 32 + x19: .cfa -16 + ^ .ra: .cfa -24 + ^ x29: .cfa -32 + ^
STACK CFI 23534 .cfa: sp 32 +
STACK CFI 2353c .cfa: sp 0 +
STACK CFI INIT 23540 18 .cfa: sp 0 +
STACK CFI INIT 23558 4 .cfa: sp 0 +
STACK CFI INIT 2355c 4 .cfa: sp 0 +
STACK CFI INIT 23560 10 .cfa: sp 0 +
STACK CFI INIT 23570 1c .cfa: sp 0 +
STACK CFI INIT 2358c c .cfa: sp 0 +
STACK CFI INIT 2372c 154 .cfa: sp 0 +
STACK CFI 23730 .cfa: sp 80 +
STACK CFI 23740 .cfa: x29 48 + x19: .cfa -8 + ^ x20: .cfa -16 + ^ x21: .cfa -32 + ^ .ra: .cfa -40 + ^ x29: .cfa -48 + ^
STACK CFI 23858 .cfa: sp 80 +
STACK CFI 23868 .cfa: sp 0 +
STACK CFI 2386c .cfa: x29 48 +
STACK CFI INIT 23fa0 50 .cfa: sp 0 +
STACK CFI 23fc4 .cfa: sp 32 +
STACK CFI 23fcc .cfa: x29 32 + x19: .cfa -16 + ^ .ra: .cfa -24 + ^ x29: .cfa -32 + ^
STACK CFI 23fe0 .cfa: sp 32 +
STACK CFI 23fe8 .cfa: sp 0 +
STACK CFI INIT 23ff0 50 .cfa: sp 0 +
STACK CFI 23ff4 .cfa: sp 32 +
STACK CFI 23ffc .cfa: x29 32 + x19: .cfa -16 + ^ .ra: .cfa -24 + ^ x29: .cfa -32 + ^
STACK CFI 24014 .cfa: sp 32 +
STACK CFI 2401c .cfa: sp 0 +
STACK CFI 24020 .cfa: x29 32 +
STACK CFI 24034 .cfa: sp 32 +
STACK CFI 2403c .cfa: sp 0 +
STACK CFI INIT 24040 50 .cfa: sp 0 +
STACK CFI 24044 .cfa: sp 32 +
STACK CFI 2404c .cfa: x29 32 + x19: .cfa -16 + ^ .ra: .cfa -24 + ^ x29: .cfa -32 + ^
STACK CFI 24064 .cfa: sp 32 +
STACK CFI 2406c .cfa: sp 0 +
STACK CFI 24070 .cfa: x29 32 +
STACK CFI 24084 .cfa: sp 32 +
STACK CFI 2408c .cfa: sp 0 +
STACK CFI INIT 24090 8c .cfa: sp 0 +
STACK CFI 24094 .cfa: sp 48 +
STACK CFI 240a0 .cfa: x29 48 + x19: .cfa -8 + ^ x20: .cfa -16 + ^ x21: .cfa -24 + ^ x22: .cfa -32 + ^ .ra: .cfa -40 + ^ x29: .cfa -48 + ^
STACK CFI 240a8 .cfa: sp 48 +
STACK CFI 240b4 .cfa: sp 0 +
STACK CFI 240b8 .cfa: x29 48 +
STACK CFI 2410c .cfa: sp 48 +
STACK CFI 24118 .cfa: sp 0 +
STACK CFI INIT 2411c 50 .cfa: sp 0 +
STACK CFI 24120 .cfa: sp 32 +
STACK CFI 24128 .cfa: x29 32 + x19: .cfa -16 + ^ .ra: .cfa -24 + ^ x29: .cfa -32 + ^
STACK CFI 24140 .cfa: sp 32 +
STACK CFI 24148 .cfa: sp 0 +
STACK CFI 2414c .cfa: x29 32 +
STACK CFI 24160 .cfa: sp 32 +
STACK CFI 24168 .cfa: sp 0 +
STACK CFI INIT 2416c 50 .cfa: sp 0 +
STACK CFI 24170 .cfa: sp 32 +
STACK CFI 24178 .cfa: x29 32 + x19: .cfa -16 + ^ .ra: .cfa -24 + ^ x29: .cfa -32 + ^
STACK CFI 24190 .cfa: sp 32 +
STACK CFI 24198 .cfa: sp 0 +
STACK CFI 2419c .cfa: x29 32 +
STACK CFI 241b0 .cfa: sp 32 +
STACK CFI 241b8 .cfa: sp 0 +
STACK CFI INIT 241bc 168 .cfa: sp 0 +
STACK CFI 241c0 .cfa: sp 48 +
STACK CFI 241cc .cfa: x29 48 + x19: .cfa -8 + ^ x20: .cfa -16 + ^ x21: .cfa -24 + ^ x22: .cfa -32 + ^ .ra: .cfa -40 + ^ x29: .cfa -48 + ^
STACK CFI 24308 .cfa: sp 48 +
STACK CFI 24314 .cfa: sp 0 +
STACK CFI 24318 .cfa: x29 48 +
STACK CFI INIT 24db8 4 .cfa: sp 0 +
STACK CFI INIT 24dbc a8 .cfa: sp 0 +
STACK CFI 24dc0 .cfa: sp 48 +
STACK CFI 24dcc .cfa: x29 48 + x19: .cfa -8 + ^ x20: .cfa -16 + ^ x21: .cfa -32 + ^ .ra: .cfa -40 + ^ x29: .cfa -48 + ^
STACK CFI 24e24 .cfa: sp 48 +
STACK CFI 24e30 .cfa: sp 0 +
STACK CFI 24e34 .cfa: x29 48 +
STACK CFI 24e54 .cfa: sp 48 +
STACK CFI 24e60 .cfa: sp 0 +
STACK CFI INIT 250cc 58 .cfa: sp 0 +
STACK CFI 250d0 .cfa: sp 48 +
STACK CFI 250dc .cfa: x29 48 + x19: .cfa -8 + ^ x20: .cfa -16 + ^ x21: .cfa -32 + ^ .ra: .cfa -40 + ^ x29: .cfa -48 + ^
STACK CFI 25114 .cfa: sp 48 +
STACK CFI 25120 .cfa: sp 0 +
STACK CFI INIT 25124 104 .cfa: sp 0 +
STACK CFI 25128 .cfa: sp 48 +
STACK CFI 25134 .cfa: x29 48 + x19: .cfa -8 + ^ x20: .cfa -16 + ^ x21: .cfa -24 + ^ x22: .cfa -32 + ^ .ra: .cfa -40 + ^ x29: .cfa -48 + ^
STACK CFI 25160 .cfa: sp 48 +
STACK CFI 2516c .cfa: sp 0 +
STACK CFI 25170 .cfa: x29 48 +
STACK CFI 25218 .cfa: sp 48 +
STACK CFI 25224 .cfa: sp 0 +
STACK CFI INIT 26084 78 .cfa: sp 0 +
STACK CFI 26088 .cfa: sp 48 +
STACK CFI 26094 .cfa: x29 48 + x19: .cfa -8 + ^ x20: .cfa -16 + ^ x21: .cfa -32 + ^ .ra: .cfa -40 + ^ x29: .cfa -48 + ^
STACK CFI 260dc .cfa: sp 48 +
STACK CFI 260e8 .cfa: sp 0 +
STACK CFI 260ec .cfa: sp 48 +
STACK CFI 260f8 .cfa: sp 0 +
STACK CFI INIT 260fc 78 .cfa: sp 0 +
STACK CFI 26100 .cfa: sp 48 +
STACK CFI 2610c .cfa: x29 48 + x19: .cfa -8 + ^ x20: .cfa -16 + ^ x21: .cfa -32 + ^ .ra: .cfa -40 + ^ x29: .cfa -48 + ^
STACK CFI 26154 .cfa: sp 48 +
STACK CFI 26160 .cfa: sp 0 +
STACK CFI 26164 .cfa: sp 48 +
STACK CFI 26170 .cfa: sp 0 +
STACK CFI INIT 26174 84 .cfa: sp 0 +
STACK CFI 26178 .cfa: sp 48 +
STACK CFI 26184 .cfa: x29 48 + x19: .cfa -8 + ^ x20: .cfa -16 + ^ x21: .cfa -24 + ^ x22: .cfa -32 + ^ .ra: .cfa -40 + ^ x29: .cfa -48 + ^
STACK CFI 261d8 .cfa: sp 48 +
STACK CFI 261e4 .cfa: sp 0 +
STACK CFI 261e8 .cfa: sp 48 +
STACK CFI 261f4 .cfa: sp 0 +
STACK CFI INIT 26214 8c .cfa: sp 0 +
STACK CFI 26218 .cfa: sp 48 +
STACK CFI 26224 .cfa: x29 48 + x19: .cfa -8 + ^ x20: .cfa -16 + ^ x21: .cfa -24 + ^ x22: .cfa -32 + ^ .ra: .cfa -40 + ^ x29: .cfa -48 + ^
STACK CFI 2625c .cfa: sp 48 +
STACK CFI 26268 .cfa: sp 0 +
STACK CFI 2626c .cfa: x29 48 +
STACK CFI 26290 .cfa: sp 48 +
STACK CFI 2629c .cfa: sp 0 +
STACK CFI INIT 262a0 78 .cfa: sp 0 +
STACK CFI 262a4 .cfa: sp 48 +
STACK CFI 262b0 .cfa: x29 48 + x19: .cfa -8 + ^ x20: .cfa -16 + ^ x21: .cfa -32 + ^ .ra: .cfa -40 + ^ x29: .cfa -48 + ^
STACK CFI 262f8 .cfa: sp 48 +
STACK CFI 26304 .cfa: sp 0 +
STACK CFI 26308 .cfa: sp 48 +
STACK CFI 26314 .cfa: sp 0 +
STACK CFI INIT 26318 8c .cfa: sp 0 +
STACK CFI 2631c .cfa: sp 48 +
STACK CFI 26328 .cfa: x29 48 + x19: .cfa -8 + ^ x20: .cfa -16 + ^ x21: .cfa -24 + ^ x22: .cfa -32 + ^ .ra: .cfa -40 + ^ x29: .cfa -48 + ^
STACK CFI 26360 .cfa: sp 48 +
STACK CFI 2636c .cfa: sp 0 +
STACK CFI 26370 .cfa: x29 48 +
STACK CFI 26394 .cfa: sp 48 +
STACK CFI 263a0 .cfa: sp 0 +
STACK CFI INIT 263a4 78 .cfa: sp 0 +
STACK CFI 263a8 .cfa: sp 48 +
STACK CFI 263b4 .cfa: x29 48 + x19: .cfa -8 + ^ x20: .cfa -16 + ^ x21: .cfa -32 + ^ .ra: .cfa -40 + ^ x29: .cfa -48 + ^
STACK CFI 263fc .cfa: sp 48 +
STACK CFI 26408 .cfa: sp 0 +
STACK CFI 2640c .cfa: sp 48 +
STACK CFI 26418 .cfa: sp 0 +
STACK CFI INIT 2641c 104 .cfa: sp 0 +
STACK CFI 26420 .cfa: sp 64 +
STACK CFI 26430 .cfa: x29 64 + x19: .cfa -8 + ^ x20: .cfa -16 + ^ x21: .cfa -24 + ^ x22: .cfa -32 + ^ x23: .cfa -48 + ^ .ra: .cfa -56 + ^ x29: .cfa -64 + ^
STACK CFI 264f8 .cfa: sp 64 +
STACK CFI 26508 .cfa: sp 0 +
STACK CFI 2650c .cfa: sp 64 +
STACK CFI 2651c .cfa: sp 0 +
STACK CFI INIT 26918 8 .cfa: sp 0 +
STACK CFI INIT 26920 78 .cfa: sp 0 +
STACK CFI 26924 .cfa: sp 48 +
STACK CFI 26930 .cfa: x29 48 + x19: .cfa -8 + ^ x20: .cfa -16 + ^ x21: .cfa -32 + ^ .ra: .cfa -40 + ^ x29: .cfa -48 + ^
STACK CFI 26978 .cfa: sp 48 +
STACK CFI 26984 .cfa: sp 0 +
STACK CFI 26988 .cfa: sp 48 +
STACK CFI 26994 .cfa: sp 0 +
STACK CFI INIT 269b4 90 .cfa: sp 0 +
STACK CFI 269b8 .cfa: sp 48 +
STACK CFI 269c4 .cfa: x29 48 + x19: .cfa -8 + ^ x20: .cfa -16 + ^ x21: .cfa -24 + ^ x22: .cfa -32 + ^ .ra: .cfa -40 + ^ x29: .cfa -48 + ^
STACK CFI 269fc .cfa: sp 48 +
STACK CFI 26a08 .cfa: sp 0 +
STACK CFI 26a0c .cfa: x29 48 +
STACK CFI 26a34 .cfa: sp 48 +
STACK CFI 26a40 .cfa: sp 0 +
STACK CFI INIT 26adc 3c .cfa: sp 0 +
STACK CFI 26ae0 .cfa: sp 32 +
STACK CFI 26ae8 .cfa: x29 32 + x19: .cfa -16 + ^ .ra: .cfa -24 + ^ x29: .cfa -32 + ^
STACK CFI 26b00 .cfa: sp 32 +
STACK CFI 26b08 .cfa: sp 0 +
STACK CFI 26b0c .cfa: sp 32 +
STACK CFI 26b14 .cfa: sp 0 +
STACK CFI INIT 26b50 78 .cfa: sp 0 +
STACK CFI 26b54 .cfa: sp 48 +
STACK CFI 26b60 .cfa: x29 48 + x19: .cfa -8 + ^ x20: .cfa -16 + ^ x21: .cfa -32 + ^ .ra: .cfa -40 + ^ x29: .cfa -48 + ^
STACK CFI 26ba8 .cfa: sp 48 +
STACK CFI 26bb4 .cfa: sp 0 +
STACK CFI 26bb8 .cfa: sp 48 +
STACK CFI 26bc4 .cfa: sp 0 +
STACK CFI INIT 26bc8 78 .cfa: sp 0 +
STACK CFI 26bcc .cfa: sp 48 +
STACK CFI 26bd8 .cfa: x29 48 + x19: .cfa -8 + ^ x20: .cfa -16 + ^ x21: .cfa -32 + ^ .ra: .cfa -40 + ^ x29: .cfa -48 + ^
STACK CFI 26c20 .cfa: sp 48 +
STACK CFI 26c2c .cfa: sp 0 +
STACK CFI 26c30 .cfa: sp 48 +
STACK CFI 26c3c .cfa: sp 0 +
STACK CFI INIT 26c40 78 .cfa: sp 0 +
STACK CFI 26c44 .cfa: sp 48 +
STACK CFI 26c50 .cfa: x29 48 + x19: .cfa -8 + ^ x20: .cfa -16 + ^ x21: .cfa -32 + ^ .ra: .cfa -40 + ^ x29: .cfa -48 + ^
STACK CFI 26c98 .cfa: sp 48 +
STACK CFI 26ca4 .cfa: sp 0 +
STACK CFI 26ca8 .cfa: sp 48 +
STACK CFI 26cb4 .cfa: sp 0 +
STACK CFI INIT 26cb8 78 .cfa: sp 0 +
STACK CFI 26cbc .cfa: sp 48 +
STACK CFI 26cc8 .cfa: x29 48 + x19: .cfa -8 + ^ x20: .cfa -16 + ^ x21: .cfa -32 + ^ .ra: .cfa -40 + ^ x29: .cfa -48 + ^
STACK CFI 26d10 .cfa: sp 48 +
STACK CFI 26d1c .cfa: sp 0 +
STACK CFI 26d20 .cfa: sp 48 +
STACK CFI 26d2c .cfa: sp 0 +
STACK CFI INIT 26efc 2b8 .cfa: sp 0 +
STACK CFI 26f00 .cfa: sp 80 +
STACK CFI 26f14 .cfa: x29 80 + x19: .cfa -8 + ^ x20: .cfa -16 + ^ x21: .cfa -24 + ^ x22: .cfa -32 + ^ x23: .cfa -40 + ^ x24: .cfa -48 + ^ x25: .cfa -64 + ^ .ra: .cfa -72 + ^ x29: .cfa -80 + ^
STACK CFI 270c0 .cfa: sp 80 +
STACK CFI 270d4 .cfa: sp 0 +
STACK CFI 270d8 .cfa: x29 80 +
STACK CFI 2719c .cfa: sp 80 +
STACK CFI 271b0 .cfa: sp 0 +
STACK CFI INIT 271b4 80 .cfa: sp 0 +
STACK CFI 271b8 .cfa: sp 48 +
STACK CFI 271c4 .cfa: x29 48 + x19: .cfa -8 + ^ x20: .cfa -16 + ^ x21: .cfa -32 + ^ .ra: .cfa -40 + ^ x29: .cfa -48 + ^
STACK CFI 27214 .cfa: sp 48 +
STACK CFI 27220 .cfa: sp 0 +
STACK CFI 27224 .cfa: sp 48 +
STACK CFI 27230 .cfa: sp 0 +
STACK CFI INIT 27234 80 .cfa: sp 0 +
STACK CFI 27238 .cfa: sp 48 +
STACK CFI 27244 .cfa: x29 48 + x19: .cfa -8 + ^ x20: .cfa -16 + ^ x21: .cfa -32 + ^ .ra: .cfa -40 + ^ x29: .cfa -48 + ^
STACK CFI 27294 .cfa: sp 48 +
STACK CFI 272a0 .cfa: sp 0 +
STACK CFI 272a4 .cfa: sp 48 +
STACK CFI 272b0 .cfa: sp 0 +
STACK CFI INIT 27454 2b8 .cfa: sp 0 +
STACK CFI INIT 2770c 1bc .cfa: sp 0 +
STACK CFI 27710 .cfa: sp 64 +
STACK CFI 27720 .cfa: x29 64 + x19: .cfa -8 + ^ x20: .cfa -16 + ^ x21: .cfa -24 + ^ x22: .cfa -32 + ^ x23: .cfa -48 + ^ .ra: .cfa -56 + ^ x29: .cfa -64 + ^
STACK CFI 27824 .cfa: sp 64 +
STACK CFI 27834 .cfa: sp 0 +
STACK CFI 27838 .cfa: x29 64 +
STACK CFI INIT 278c8 80 .cfa: sp 0 +
STACK CFI 278cc .cfa: sp 48 +
STACK CFI 278d8 .cfa: x29 48 + x19: .cfa -8 + ^ x20: .cfa -16 + ^ x21: .cfa -32 + ^ .ra: .cfa -40 + ^ x29: .cfa -48 + ^
STACK CFI 27928 .cfa: sp 48 +
STACK CFI 27934 .cfa: sp 0 +
STACK CFI 27938 .cfa: sp 48 +
STACK CFI 27944 .cfa: sp 0 +
STACK CFI INIT 27948 98 .cfa: sp 0 +
STACK CFI 27950 .cfa: sp 48 +
STACK CFI 2795c .cfa: x29 48 + x19: .cfa -8 + ^ x20: .cfa -16 + ^ x21: .cfa -32 + ^ .ra: .cfa -40 + ^ x29: .cfa -48 + ^
STACK CFI 279ac .cfa: sp 0 + x19: x19 x20: x20 x21: x21 .ra: x30 x29: x29
STACK CFI 279b0 .cfa: x29 48 + x19: .cfa -8 + ^ x20: .cfa -16 + ^ x21: .cfa -32 + ^ .ra: .cfa -40 + ^ x29: .cfa -48 + ^
STACK CFI 279d0 .cfa: sp 48 +
STACK CFI 279dc .cfa: sp 0 +
STACK CFI INIT 279e0 54 .cfa: sp 0 +
STACK CFI 279e8 .cfa: sp 32 +
STACK CFI 279f0 .cfa: x29 32 + x19: .cfa -8 + ^ x20: .cfa -16 + ^ .ra: .cfa -24 + ^ x29: .cfa -32 + ^
STACK CFI 27a28 .cfa: sp 32 +
STACK CFI 27a30 .cfa: sp 0 +
STACK CFI INIT 27a34 54 .cfa: sp 0 +
STACK CFI 27a3c .cfa: sp 32 +
STACK CFI 27a44 .cfa: x29 32 + x19: .cfa -8 + ^ x20: .cfa -16 + ^ .ra: .cfa -24 + ^ x29: .cfa -32 + ^
STACK CFI 27a7c .cfa: sp 32 +
STACK CFI 27a84 .cfa: sp 0 +
STACK CFI INIT 27b30 54 .cfa: sp 0 +
STACK CFI 27b38 .cfa: sp 32 +
STACK CFI 27b40 .cfa: x29 32 + x19: .cfa -8 + ^ x20: .cfa -16 + ^ .ra: .cfa -24 + ^ x29: .cfa -32 + ^
STACK CFI 27b78 .cfa: sp 32 +
STACK CFI 27b80 .cfa: sp 0 +
STACK CFI INIT 27b84 a8 .cfa: sp 0 +
STACK CFI 27b8c .cfa: sp 48 +
STACK CFI 27b98 .cfa: x29 48 + x19: .cfa -8 + ^ x20: .cfa -16 + ^ x21: .cfa -24 + ^ x22: .cfa -32 + ^ .ra: .cfa -40 + ^ x29: .cfa -48 + ^
STACK CFI 27c1c .cfa: sp 48 +
STACK CFI 27c28 .cfa: sp 0 +
STACK CFI INIT 27c2c 54 .cfa: sp 0 +
STACK CFI 27c34 .cfa: sp 32 +
STACK CFI 27c3c .cfa: x29 32 + x19: .cfa -8 + ^ x20: .cfa -16 + ^ .ra: .cfa -24 + ^ x29: .cfa -32 + ^
STACK CFI 27c74 .cfa: sp 32 +
STACK CFI 27c7c .cfa: sp 0 +
STACK CFI INIT 27c80 14 .cfa: sp 0 +
STACK CFI 27c84 .cfa: sp 16 +
STACK CFI 27c88 .cfa: x29 16 + .ra: .cfa -8 + ^ x29: .cfa -16 + ^
STACK CFI INIT 2870c c .cfa: sp 0 +
STACK CFI INIT 28718 98 .cfa: sp 0 +
STACK CFI 2871c .cfa: sp 304 +
STACK CFI 28728 .cfa: x29 32 + x19: .cfa -8 + ^ x28: .cfa -16 + ^ .ra: .cfa -24 + ^ x29: .cfa -32 + ^
STACK CFI 2879c .cfa: sp 304 +
STACK CFI 287a8 .cfa: sp 0 +
STACK CFI 287ac .cfa: x29 32 +
STACK CFI INIT 287b0 50 .cfa: sp 0 +
STACK CFI 287b4 .cfa: sp 32 +
STACK CFI 287bc .cfa: x29 32 + x19: .cfa -16 + ^ .ra: .cfa -24 + ^ x29: .cfa -32 + ^
STACK CFI 287d4 .cfa: sp 32 +
STACK CFI 287dc .cfa: sp 0 +
STACK CFI 287e0 .cfa: x29 32 +
STACK CFI 287f4 .cfa: sp 32 +
STACK CFI 287fc .cfa: sp 0 +
STACK CFI INIT 28c20 b0 .cfa: sp 0 +
STACK CFI 28c24 .cfa: sp 48 +
STACK CFI 28c30 .cfa: x29 48 + x19: .cfa -8 + ^ x20: .cfa -16 + ^ x21: .cfa -24 + ^ x22: .cfa -32 + ^ .ra: .cfa -40 + ^ x29: .cfa -48 + ^
STACK CFI 28cc0 .cfa: sp 48 +
STACK CFI 28ccc .cfa: sp 0 +
STACK CFI INIT 28cd0 b8 .cfa: sp 0 +
STACK CFI 28cd4 .cfa: sp 48 +
STACK CFI 28ce0 .cfa: x29 48 + x19: .cfa -8 + ^ x20: .cfa -16 + ^ x21: .cfa -24 + ^ x22: .cfa -32 + ^ .ra: .cfa -40 + ^ x29: .cfa -48 + ^
STACK CFI 28d78 .cfa: sp 48 +
STACK CFI 28d84 .cfa: sp 0 +
STACK CFI INIT 291e4 48 .cfa: sp 0 +
STACK CFI 291ec .cfa: sp 32 +
STACK CFI 291f4 .cfa: x29 32 + x19: .cfa -16 + ^ .ra: .cfa -24 + ^ x29: .cfa -32 + ^
STACK CFI 2921c .cfa: sp 32 +
STACK CFI 29224 .cfa: sp 0 +
STACK CFI INIT 29324 50 .cfa: sp 0 +
STACK CFI 29328 .cfa: sp 32 +
STACK CFI 29330 .cfa: x29 32 + x19: .cfa -16 + ^ .ra: .cfa -24 + ^ x29: .cfa -32 + ^
STACK CFI 29348 .cfa: sp 32 +
STACK CFI 29350 .cfa: sp 0 +
STACK CFI 29354 .cfa: x29 32 +
STACK CFI 29368 .cfa: sp 32 +
STACK CFI 29370 .cfa: sp 0 +
STACK CFI INIT 29374 4 .cfa: sp 0 +
STACK CFI INIT 29378 38 .cfa: sp 0 +
STACK CFI 2937c .cfa: sp 32 +
STACK CFI 29384 .cfa: x29 32 + x19: .cfa -16 + ^ .ra: .cfa -24 + ^ x29: .cfa -32 + ^
STACK CFI 293a4 .cfa: sp 32 +
STACK CFI 293ac .cfa: sp 0 +
STACK CFI INIT 293b0 18 .cfa: sp 0 +
STACK CFI INIT 293c8 4 .cfa: sp 0 +
STACK CFI INIT 293cc 4 .cfa: sp 0 +
STACK CFI INIT 2959c 1c .cfa: sp 0 +
STACK CFI INIT 295b8 c .cfa: sp 0 +
STACK CFI INIT 295c4 4 .cfa: sp 0 +
STACK CFI INIT 2973c 9c .cfa: sp 0 +
STACK CFI 29740 .cfa: sp 32 +
STACK CFI 29748 .cfa: x29 32 + x19: .cfa -8 + ^ x20: .cfa -16 + ^ .ra: .cfa -24 + ^ x29: .cfa -32 + ^
STACK CFI 297cc .cfa: sp 32 +
STACK CFI 297d4 .cfa: sp 0 +
STACK CFI INIT 297d8 a4 .cfa: sp 0 +
STACK CFI 297dc .cfa: sp 32 +
STACK CFI 297e4 .cfa: x29 32 + x19: .cfa -8 + ^ x20: .cfa -16 + ^ .ra: .cfa -24 + ^ x29: .cfa -32 + ^
STACK CFI 29870 .cfa: sp 32 +
STACK CFI 29878 .cfa: sp 0 +
STACK CFI INIT 2987c 4 .cfa: sp 0 +
STACK CFI INIT 29880 38 .cfa: sp 0 +
STACK CFI 29884 .cfa: sp 32 +
STACK CFI 2988c .cfa: x29 32 + x19: .cfa -16 + ^ .ra: .cfa -24 + ^ x29: .cfa -32 + ^
STACK CFI 298ac .cfa: sp 32 +
STACK CFI 298b4 .cfa: sp 0 +
STACK CFI INIT 298b8 18 .cfa: sp 0 +
STACK CFI INIT 298d0 4 .cfa: sp 0 +
STACK CFI INIT 298d4 4 .cfa: sp 0 +
STACK CFI INIT 29b44 1c .cfa: sp 0 +
STACK CFI INIT 29b60 c .cfa: sp 0 +
STACK CFI INIT 29b6c 4 .cfa: sp 0 +
STACK CFI INIT 29b70 38 .cfa: sp 0 +
STACK CFI 29b74 .cfa: sp 32 +
STACK CFI 29b7c .cfa: x29 32 + x19: .cfa -16 + ^ .ra: .cfa -24 + ^ x29: .cfa -32 + ^
STACK CFI 29b9c .cfa: sp 32 +
STACK CFI 29ba4 .cfa: sp 0 +
STACK CFI INIT 29ba8 18 .cfa: sp 0 +
STACK CFI INIT 29bc0 4 .cfa: sp 0 +
STACK CFI INIT 29bc4 4 .cfa: sp 0 +
STACK CFI INIT 29d00 1c .cfa: sp 0 +
STACK CFI INIT 29d1c c .cfa: sp 0 +
STACK CFI INIT 29d28 4 .cfa: sp 0 +
STACK CFI INIT 29d2c 38 .cfa: sp 0 +
STACK CFI 29d30 .cfa: sp 32 +
STACK CFI 29d38 .cfa: x29 32 + x19: .cfa -16 + ^ .ra: .cfa -24 + ^ x29: .cfa -32 + ^
STACK CFI 29d58 .cfa: sp 32 +
STACK CFI 29d60 .cfa: sp 0 +
STACK CFI INIT 29d64 18 .cfa: sp 0 +
STACK CFI INIT 29d7c 4 .cfa: sp 0 +
STACK CFI INIT 29d80 4 .cfa: sp 0 +
STACK CFI INIT 29ebc 1c .cfa: sp 0 +
STACK CFI INIT 29ed8 c .cfa: sp 0 +
STACK CFI INIT 29ee4 4 .cfa: sp 0 +
STACK CFI INIT 29ee8 4 .cfa: sp 0 +
STACK CFI INIT 29eec 38 .cfa: sp 0 +
STACK CFI 29ef0 .cfa: sp 32 +
STACK CFI 29ef8 .cfa: x29 32 + x19: .cfa -16 + ^ .ra: .cfa -24 + ^ x29: .cfa -32 + ^
STACK CFI 29f18 .cfa: sp 32 +
STACK CFI 29f20 .cfa: sp 0 +
STACK CFI INIT 29f24 18 .cfa: sp 0 +
STACK CFI INIT 29f3c 4 .cfa: sp 0 +
STACK CFI INIT 29f40 4 .cfa: sp 0 +
STACK CFI INIT 2a174 1c .cfa: sp 0 +
STACK CFI INIT 2a190 c .cfa: sp 0 +
STACK CFI INIT 2a8b8 3c .cfa: sp 0 +
STACK CFI 2a8bc .cfa: sp 32 +
STACK CFI 2a8c4 .cfa: x29 32 + x19: .cfa -16 + ^ .ra: .cfa -24 + ^ x29: .cfa -32 + ^
STACK CFI 2a8d0 .cfa: sp 32 +
STACK CFI 2a8d8 .cfa: sp 0 +
STACK CFI 2a8dc .cfa: x29 32 +
STACK CFI 2a8e8 .cfa: sp 32 +
STACK CFI 2a8f0 .cfa: sp 0 +
STACK CFI INIT 2a8f4 4c .cfa: sp 0 +
STACK CFI 2a8f8 .cfa: sp 32 +
STACK CFI 2a900 .cfa: x29 32 + x19: .cfa -8 + ^ x20: .cfa -16 + ^ .ra: .cfa -24 + ^ x29: .cfa -32 + ^
STACK CFI 2a928 .cfa: sp 32 +
STACK CFI 2a930 .cfa: sp 0 +
STACK CFI 2a934 .cfa: sp 32 +
STACK CFI 2a93c .cfa: sp 0 +
STACK CFI INIT 2ab60 64 .cfa: sp 0 +
STACK CFI 2ab64 .cfa: sp 32 +
STACK CFI 2ab6c .cfa: x29 32 + x19: .cfa -16 + ^ .ra: .cfa -24 + ^ x29: .cfa -32 + ^
STACK CFI 2ab98 .cfa: sp 32 +
STACK CFI 2aba0 .cfa: sp 0 +
STACK CFI 2aba4 .cfa: x29 32 +
STACK CFI 2abb8 .cfa: sp 32 +
STACK CFI 2abc0 .cfa: sp 0 +
STACK CFI INIT 2abc4 24 .cfa: sp 0 +
STACK CFI 2abc8 .cfa: sp 32 +
STACK CFI 2abd0 .cfa: x29 32 + x19: .cfa -16 + ^ .ra: .cfa -24 + ^ x29: .cfa -32 + ^
STACK CFI 2abdc .cfa: sp 32 +
STACK CFI 2abe4 .cfa: sp 0 +
STACK CFI INIT 2ae44 24 .cfa: sp 0 +
STACK CFI 2ae48 .cfa: sp 32 +
STACK CFI 2ae50 .cfa: x29 32 + x19: .cfa -16 + ^ .ra: .cfa -24 + ^ x29: .cfa -32 + ^
STACK CFI 2ae5c .cfa: sp 32 +
STACK CFI 2ae64 .cfa: sp 0 +
STACK CFI INIT 2ae68 8 .cfa: sp 0 +
STACK CFI INIT 2ae70 24 .cfa: sp 0 +
STACK CFI 2ae74 .cfa: sp 32 +
STACK CFI 2ae7c .cfa: x29 32 + x19: .cfa -16 + ^ .ra: .cfa -24 + ^ x29: .cfa -32 + ^
STACK CFI 2ae88 .cfa: sp 32 +
STACK CFI 2ae90 .cfa: sp 0 +
STACK CFI INIT 2ae94 28 .cfa: sp 0 +
STACK CFI 2ae98 .cfa: sp 32 +
STACK CFI 2aea0 .cfa: x29 32 + x19: .cfa -16 + ^ .ra: .cfa -24 + ^ x29: .cfa -32 + ^
STACK CFI 2aeb0 .cfa: sp 32 +
STACK CFI 2aeb8 .cfa: sp 0 +
STACK CFI INIT 2c0c4 8 .cfa: sp 0 +
STACK CFI INIT 2c0cc 24 .cfa: sp 0 +
STACK CFI 2c0d0 .cfa: sp 32 +
STACK CFI 2c0d8 .cfa: x29 32 + x19: .cfa -16 + ^ .ra: .cfa -24 + ^ x29: .cfa -32 + ^
STACK CFI 2c0e4 .cfa: sp 32 +
STACK CFI 2c0ec .cfa: sp 0 +
STACK CFI INIT 2c0f0 28 .cfa: sp 0 +
STACK CFI 2c0f4 .cfa: sp 32 +
STACK CFI 2c0fc .cfa: x29 32 + x19: .cfa -16 + ^ .ra: .cfa -24 + ^ x29: .cfa -32 + ^
STACK CFI 2c10c .cfa: sp 32 +
STACK CFI 2c114 .cfa: sp 0 +
STACK CFI INIT 2c730 8 .cfa: sp 0 +
STACK CFI INIT 2ce60 8 .cfa: sp 0 +
STACK CFI INIT 2d298 8 .cfa: sp 0 +
STACK CFI INIT 2d4f4 4 .cfa: sp 0 +
STACK CFI INIT 2d4f8 8 .cfa: sp 0 +
STACK CFI INIT 2d500 8 .cfa: sp 0 +
STACK CFI INIT 2d508 4 .cfa: sp 0 +
STACK CFI INIT 2e714 8 .cfa: sp 0 +
STACK CFI INIT 2e71c 24 .cfa: sp 0 +
STACK CFI 2e720 .cfa: sp 32 +
STACK CFI 2e728 .cfa: x29 32 + x19: .cfa -16 + ^ .ra: .cfa -24 + ^ x29: .cfa -32 + ^
STACK CFI 2e734 .cfa: sp 32 +
STACK CFI 2e73c .cfa: sp 0 +
STACK CFI INIT 2e740 28 .cfa: sp 0 +
STACK CFI 2e744 .cfa: sp 32 +
STACK CFI 2e74c .cfa: x29 32 + x19: .cfa -16 + ^ .ra: .cfa -24 + ^ x29: .cfa -32 + ^
STACK CFI 2e75c .cfa: sp 32 +
STACK CFI 2e764 .cfa: sp 0 +
STACK CFI INIT 2e9bc 4 .cfa: sp 0 +
STACK CFI INIT 2e9c0 4 .cfa: sp 0 +
STACK CFI INIT 2e9c4 4 .cfa: sp 0 +
STACK CFI INIT 2e9c8 4 .cfa: sp 0 +
STACK CFI INIT 2e9cc 4 .cfa: sp 0 +
STACK CFI INIT 2f710 4 .cfa: sp 0 +
STACK CFI INIT 2f714 14 .cfa: sp 0 +
STACK CFI INIT 2fc34 c .cfa: sp 0 +
STACK CFI INIT 2fc40 24c .cfa: sp 0 +
STACK CFI INIT 2fe8c a0 .cfa: sp 0 +
STACK CFI 2fe98 .cfa: sp 32 +
STACK CFI 2fef0 .cfa: sp 0 +
STACK CFI 2fef4 .cfa: sp 32 +
STACK CFI 2fefc .cfa: sp 0 +
STACK CFI 2ff00 .cfa: sp 32 +
STACK CFI 2ff14 .cfa: sp 0 +
STACK CFI 2ff18 .cfa: sp 32 +
STACK CFI 2ff28 .cfa: sp 0 +
STACK CFI INIT 2ff2c 38 .cfa: sp 0 +
STACK CFI 2ff38 .cfa: sp 32 +
STACK CFI 2ff60 .cfa: sp 0 +
STACK CFI INIT 301f8 7c .cfa: sp 0 +
STACK CFI 301fc .cfa: sp 32 +
STACK CFI 30204 .cfa: x29 32 + x19: .cfa -16 + ^ .ra: .cfa -24 + ^ x29: .cfa -32 + ^
STACK CFI 30230 .cfa: sp 32 +
STACK CFI 30238 .cfa: sp 0 +
STACK CFI 3023c .cfa: x29 32 +
STACK CFI 30268 .cfa: sp 32 +
STACK CFI 30270 .cfa: sp 0 +
STACK CFI INIT 302c4 2c .cfa: sp 0 +
STACK CFI 302c8 .cfa: sp 32 +
STACK CFI 302d0 .cfa: x29 32 + x19: .cfa -16 + ^ .ra: .cfa -24 + ^ x29: .cfa -32 + ^
STACK CFI 302e4 .cfa: sp 32 +
STACK CFI 302ec .cfa: sp 0 +
STACK CFI INIT 30ab0 64 .cfa: sp 0 +
STACK CFI 30ab4 .cfa: sp 32 +
STACK CFI 30abc .cfa: x29 32 + x19: .cfa -16 + ^ .ra: .cfa -24 + ^ x29: .cfa -32 + ^
STACK CFI 30ad8 .cfa: sp 32 +
STACK CFI 30ae0 .cfa: sp 0 +
STACK CFI 30ae4 .cfa: x29 32 +
STACK CFI 30b08 .cfa: sp 32 +
STACK CFI 30b10 .cfa: sp 0 +
STACK CFI INIT 30b14 570 .cfa: sp 0 +
STACK CFI 30b18 .cfa: sp 176 +
STACK CFI 30b2c .cfa: x29 64 + x19: .cfa -8 + ^ x20: .cfa -16 + ^ x21: .cfa -24 + ^ x22: .cfa -32 + ^ x23: .cfa -40 + ^ x24: .cfa -48 + ^ .ra: .cfa -56 + ^ x29: .cfa -64 + ^
STACK CFI 30d5c .cfa: sp 176 +
STACK CFI 30d70 .cfa: sp 0 +
STACK CFI 30d74 .cfa: x29 64 +
STACK CFI 30dc0 .cfa: sp 176 +
STACK CFI 30dd4 .cfa: sp 0 +
STACK CFI 30dd8 .cfa: x29 64 +
STACK CFI 30e10 .cfa: sp 176 +
STACK CFI 30e24 .cfa: sp 0 +
STACK CFI 30e28 .cfa: x29 64 +
STACK CFI 30e40 .cfa: sp 176 +
STACK CFI 30e54 .cfa: sp 0 +
STACK CFI 30e58 .cfa: x29 64 +
STACK CFI 30e78 .cfa: sp 176 +
STACK CFI 30e8c .cfa: sp 0 +
STACK CFI 30e90 .cfa: x29 64 +
STACK CFI 30ea8 .cfa: sp 176 +
STACK CFI 30ebc .cfa: sp 0 +
STACK CFI 30ec0 .cfa: x29 64 +
STACK CFI 30ed4 .cfa: sp 176 +
STACK CFI 30ee8 .cfa: sp 0 +
STACK CFI 30eec .cfa: x29 64 +
STACK CFI 30f00 .cfa: sp 176 +
STACK CFI 30f14 .cfa: sp 0 +
STACK CFI 30f18 .cfa: x29 64 +
STACK CFI 30f28 .cfa: sp 176 +
STACK CFI 30f3c .cfa: sp 0 +
STACK CFI 30f40 .cfa: x29 64 +
STACK CFI 30f50 .cfa: sp 176 +
STACK CFI 30f64 .cfa: sp 0 +
STACK CFI 30f68 .cfa: x29 64 +
STACK CFI 30f80 .cfa: sp 176 +
STACK CFI 30f94 .cfa: sp 0 +
STACK CFI 30f98 .cfa: x29 64 +
STACK CFI 30fac .cfa: sp 176 +
STACK CFI 30fc0 .cfa: sp 0 +
STACK CFI 30fc4 .cfa: x29 64 +
STACK CFI 30fdc .cfa: sp 176 +
STACK CFI 30ff0 .cfa: sp 0 +
STACK CFI 30ff4 .cfa: x29 64 +
STACK CFI 31020 .cfa: sp 176 +
STACK CFI 31034 .cfa: sp 0 +
STACK CFI 31038 .cfa: x29 64 +
STACK CFI 3104c .cfa: sp 176 +
STACK CFI 31060 .cfa: sp 0 +
STACK CFI 31064 .cfa: x29 64 +
STACK CFI INIT 31084 228 .cfa: sp 0 +
STACK CFI INIT 312ac 2dc .cfa: sp 0 +
STACK CFI INIT 31588 53c .cfa: sp 0 +
STACK CFI INIT 31ac4 78 .cfa: sp 0 +
STACK CFI 31ac8 .cfa: sp 48 +
STACK CFI 31ad4 .cfa: x29 48 + x19: .cfa -8 + ^ x20: .cfa -16 + ^ x21: .cfa -24 + ^ x22: .cfa -32 + ^ .ra: .cfa -40 + ^ x29: .cfa -48 + ^
STACK CFI 31b1c .cfa: sp 48 +
STACK CFI 31b28 .cfa: sp 0 +
STACK CFI 31b2c .cfa: sp 48 +
STACK CFI 31b38 .cfa: sp 0 +
STACK CFI INIT 31b3c 8c .cfa: sp 0 +
STACK CFI 31b40 .cfa: sp 32 +
STACK CFI 31b48 .cfa: x29 32 + x19: .cfa -16 + ^ .ra: .cfa -24 + ^ x29: .cfa -32 + ^
STACK CFI 31b7c .cfa: sp 32 +
STACK CFI 31b84 .cfa: sp 0 +
STACK CFI 31b88 .cfa: x29 32 +
STACK CFI 31bbc .cfa: sp 32 +
STACK CFI 31bc4 .cfa: sp 0 +
STACK CFI INIT 31bc8 24 .cfa: sp 0 +
STACK CFI 31bcc .cfa: sp 32 +
STACK CFI 31bd4 .cfa: x29 32 + x19: .cfa -16 + ^ .ra: .cfa -24 + ^ x29: .cfa -32 + ^
STACK CFI 31be0 .cfa: sp 32 +
STACK CFI 31be8 .cfa: sp 0 +
STACK CFI INIT 31bec 150 .cfa: sp 0 +
STACK CFI 31bf0 .cfa: sp 48 +
STACK CFI 31bfc .cfa: x29 48 + x19: .cfa -8 + ^ x20: .cfa -16 + ^ x21: .cfa -24 + ^ x22: .cfa -32 + ^ .ra: .cfa -40 + ^ x29: .cfa -48 + ^
STACK CFI 31d2c .cfa: sp 48 +
STACK CFI 31d38 .cfa: sp 0 +
STACK CFI INIT 31d3c 68 .cfa: sp 0 +
STACK CFI 31d40 .cfa: sp 64 +
STACK CFI 31d4c .cfa: x29 32 + x19: .cfa -16 + ^ .ra: .cfa -24 + ^ x29: .cfa -32 + ^
STACK CFI 31d90 .cfa: sp 64 +
STACK CFI 31d9c .cfa: sp 0 +
STACK CFI 31da0 .cfa: x29 32 +
STACK CFI INIT 31da4 90 .cfa: sp 0 +
STACK CFI 31da8 .cfa: sp 32 +
STACK CFI 31db0 .cfa: x29 32 + x19: .cfa -8 + ^ x20: .cfa -16 + ^ .ra: .cfa -24 + ^ x29: .cfa -32 + ^
STACK CFI 31ddc .cfa: sp 32 +
STACK CFI 31de4 .cfa: sp 0 +
STACK CFI 31de8 .cfa: x29 32 +
STACK CFI 31e28 .cfa: sp 32 +
STACK CFI 31e30 .cfa: sp 0 +
STACK CFI INIT 31e34 ec .cfa: sp 0 +
STACK CFI 31e38 .cfa: sp 112 +
STACK CFI 31e48 .cfa: x29 48 + x19: .cfa -8 + ^ x20: .cfa -16 + ^ x21: .cfa -32 + ^ .ra: .cfa -40 + ^ x29: .cfa -48 + ^
STACK CFI 31f08 .cfa: sp 112 +
STACK CFI 31f18 .cfa: sp 0 +
STACK CFI 31f1c .cfa: x29 48 +
STACK CFI INIT 31f20 ec .cfa: sp 0 +
STACK CFI 31f24 .cfa: sp 112 +
STACK CFI 31f34 .cfa: x29 48 + x19: .cfa -8 + ^ x20: .cfa -16 + ^ x21: .cfa -32 + ^ .ra: .cfa -40 + ^ x29: .cfa -48 + ^
STACK CFI 31ff4 .cfa: sp 112 +
STACK CFI 32004 .cfa: sp 0 +
STACK CFI 32008 .cfa: x29 48 +
STACK CFI INIT 3200c 48 .cfa: sp 0 +
STACK CFI 32010 .cfa: sp 32 +
STACK CFI 32018 .cfa: x29 32 + x19: .cfa -8 + ^ x20: .cfa -16 + ^ .ra: .cfa -24 + ^ x29: .cfa -32 + ^
STACK CFI 3203c .cfa: sp 32 +
STACK CFI 32044 .cfa: sp 0 +
STACK CFI 32048 .cfa: x29 32 +
STACK CFI INIT 32054 98 .cfa: sp 0 +
STACK CFI 32058 .cfa: sp 80 +
STACK CFI 32064 .cfa: x29 32 + x19: .cfa -16 + ^ .ra: .cfa -24 + ^ x29: .cfa -32 + ^
STACK CFI 320d8 .cfa: sp 80 +
STACK CFI 320e4 .cfa: sp 0 +
STACK CFI 320e8 .cfa: x29 32 +
STACK CFI INIT 320ec 260 .cfa: sp 0 +
STACK CFI 320f0 .cfa: sp 112 +
STACK CFI 32108 .cfa: x29 80 + x19: .cfa -8 + ^ x20: .cfa -16 + ^ x21: .cfa -24 + ^ x22: .cfa -32 + ^ x23: .cfa -40 + ^ x24: .cfa -48 + ^ x25: .cfa -64 + ^ .ra: .cfa -72 + ^ x29: .cfa -80 + ^
STACK CFI 322ec .cfa: sp 112 +
STACK CFI 32304 .cfa: sp 0 +
STACK CFI 32308 .cfa: x29 80 +
STACK CFI INIT 3234c 150 .cfa: sp 0 +
STACK CFI 32350 .cfa: sp 48 +
STACK CFI 3235c .cfa: x29 48 + x19: .cfa -8 + ^ x20: .cfa -16 + ^ x21: .cfa -24 + ^ x22: .cfa -32 + ^ .ra: .cfa -40 + ^ x29: .cfa -48 + ^
STACK CFI 3248c .cfa: sp 48 +
STACK CFI 32498 .cfa: sp 0 +
STACK CFI INIT 3249c 1e0 .cfa: sp 0 +
STACK CFI 324a0 .cfa: sp 96 +
STACK CFI 324b4 .cfa: x29 64 + x19: .cfa -8 + ^ x20: .cfa -16 + ^ x21: .cfa -24 + ^ x22: .cfa -32 + ^ x23: .cfa -40 + ^ x24: .cfa -48 + ^ .ra: .cfa -56 + ^ x29: .cfa -64 + ^
STACK CFI 32634 .cfa: sp 96 +
STACK CFI 32648 .cfa: sp 0 +
STACK CFI 3264c .cfa: x29 64 +
STACK CFI INIT 3267c 284 .cfa: sp 0 +
STACK CFI 32680 .cfa: sp 112 +
STACK CFI 32698 .cfa: x29 80 + x19: .cfa -8 + ^ x20: .cfa -16 + ^ x21: .cfa -24 + ^ x22: .cfa -32 + ^ x23: .cfa -40 + ^ x24: .cfa -48 + ^ x25: .cfa -64 + ^ .ra: .cfa -72 + ^ x29: .cfa -80 + ^
STACK CFI 328a0 .cfa: sp 112 +
STACK CFI 328b8 .cfa: sp 0 +
STACK CFI 328bc .cfa: x29 80 +
STACK CFI INIT 32900 208 .cfa: sp 0 +
STACK CFI 32904 .cfa: sp 96 +
STACK CFI 32918 .cfa: x29 64 + x19: .cfa -8 + ^ x20: .cfa -16 + ^ x21: .cfa -24 + ^ x22: .cfa -32 + ^ x23: .cfa -40 + ^ x24: .cfa -48 + ^ .ra: .cfa -56 + ^ x29: .cfa -64 + ^
STACK CFI 32ac0 .cfa: sp 96 +
STACK CFI 32ad4 .cfa: sp 0 +
STACK CFI 32ad8 .cfa: x29 64 +
STACK CFI INIT 32b08 360 .cfa: sp 0 +
STACK CFI 32b0c .cfa: sp 160 +
STACK CFI 32b28 .cfa: x29 96 + x19: .cfa -8 + ^ x20: .cfa -16 + ^ x21: .cfa -24 + ^ x22: .cfa -32 + ^ x23: .cfa -40 + ^ x24: .cfa -48 + ^ x25: .cfa -56 + ^ x26: .cfa -64 + ^ x27: .cfa -72 + ^ x28: .cfa -80 + ^ .ra: .cfa -88 + ^ x29: .cfa -96 + ^
STACK CFI 32df4 .cfa: sp 160 +
STACK CFI 32e10 .cfa: sp 0 +
STACK CFI 32e14 .cfa: x29 96 +
STACK CFI INIT 32e68 314 .cfa: sp 0 +
STACK CFI 32e6c .cfa: sp 144 +
STACK CFI 32e88 .cfa: x29 96 + x19: .cfa -8 + ^ x20: .cfa -16 + ^ x21: .cfa -24 + ^ x22: .cfa -32 + ^ x23: .cfa -40 + ^ x24: .cfa -48 + ^ x25: .cfa -56 + ^ x26: .cfa -64 + ^ x27: .cfa -72 + ^ x28: .cfa -80 + ^ .ra: .cfa -88 + ^ x29: .cfa -96 + ^
STACK CFI 33104 .cfa: sp 144 +
STACK CFI 33120 .cfa: sp 0 +
STACK CFI 33124 .cfa: x29 96 +
STACK CFI INIT 3317c 290 .cfa: sp 0 +
STACK CFI 33180 .cfa: sp 128 +
STACK CFI 33198 .cfa: x29 80 + x19: .cfa -8 + ^ x20: .cfa -16 + ^ x21: .cfa -24 + ^ x22: .cfa -32 + ^ x23: .cfa -40 + ^ x24: .cfa -48 + ^ x25: .cfa -56 + ^ x26: .cfa -64 + ^ .ra: .cfa -72 + ^ x29: .cfa -80 + ^
STACK CFI 333ec .cfa: sp 128 +
STACK CFI 33404 .cfa: sp 0 +
STACK CFI 33408 .cfa: x29 80 +
STACK CFI INIT 3340c ddc .cfa: sp 0 +
STACK CFI 33410 .cfa: sp 144 +
STACK CFI 3342c .cfa: x29 96 + x19: .cfa -8 + ^ x20: .cfa -16 + ^ x21: .cfa -24 + ^ x22: .cfa -32 + ^ x23: .cfa -40 + ^ x24: .cfa -48 + ^ x25: .cfa -56 + ^ x26: .cfa -64 + ^ x27: .cfa -72 + ^ x28: .cfa -80 + ^ .ra: .cfa -88 + ^ x29: .cfa -96 + ^
STACK CFI 340c0 .cfa: sp 144 +
STACK CFI 340dc .cfa: sp 0 +
STACK CFI 340e0 .cfa: x29 96 +
STACK CFI INIT 341e8 1d0 .cfa: sp 0 +
STACK CFI 341ec .cfa: sp 80 +
STACK CFI 34200 .cfa: x29 80 + x19: .cfa -8 + ^ x20: .cfa -16 + ^ x21: .cfa -24 + ^ x22: .cfa -32 + ^ x23: .cfa -40 + ^ x24: .cfa -48 + ^ x25: .cfa -64 + ^ .ra: .cfa -72 + ^ x29: .cfa -80 + ^
STACK CFI 343a0 .cfa: sp 80 +
STACK CFI 343b4 .cfa: sp 0 +
STACK CFI INIT 343b8 23c .cfa: sp 0 +
STACK CFI 343bc .cfa: sp 112 +
STACK CFI 343d0 .cfa: x29 64 + x19: .cfa -8 + ^ x20: .cfa -16 + ^ x21: .cfa -24 + ^ x22: .cfa -32 + ^ x23: .cfa -40 + ^ x24: .cfa -48 + ^ .ra: .cfa -56 + ^ x29: .cfa -64 + ^
STACK CFI 345ac .cfa: sp 112 +
STACK CFI 345c0 .cfa: sp 0 +
STACK CFI 345c4 .cfa: x29 64 +
STACK CFI INIT 345f4 30c .cfa: sp 0 +
STACK CFI 345f8 .cfa: sp 80 +
STACK CFI 3460c .cfa: x29 64 + x19: .cfa -8 + ^ x20: .cfa -16 + ^ x21: .cfa -24 + ^ x22: .cfa -32 + ^ x23: .cfa -40 + ^ x24: .cfa -48 + ^ .ra: .cfa -56 + ^ x29: .cfa -64 + ^
STACK CFI 34788 .cfa: sp 80 +
STACK CFI 3479c .cfa: sp 0 +
STACK CFI 347a0 .cfa: x29 64 +
STACK CFI INIT 34900 178 .cfa: sp 0 +
STACK CFI 34904 .cfa: sp 80 +
STACK CFI 34918 .cfa: x29 64 + x19: .cfa -8 + ^ x20: .cfa -16 + ^ x21: .cfa -24 + ^ x22: .cfa -32 + ^ x23: .cfa -40 + ^ x24: .cfa -48 + ^ .ra: .cfa -56 + ^ x29: .cfa -64 + ^
STACK CFI 34a5c .cfa: sp 80 +
STACK CFI 34a70 .cfa: sp 0 +
STACK CFI 34a74 .cfa: x29 64 +
STACK CFI INIT 34a78 178 .cfa: sp 0 +
STACK CFI 34a7c .cfa: sp 80 +
STACK CFI 34a90 .cfa: x29 64 + x19: .cfa -8 + ^ x20: .cfa -16 + ^ x21: .cfa -24 + ^ x22: .cfa -32 + ^ x23: .cfa -40 + ^ x24: .cfa -48 + ^ .ra: .cfa -56 + ^ x29: .cfa -64 + ^
STACK CFI 34bd4 .cfa: sp 80 +
STACK CFI 34be8 .cfa: sp 0 +
STACK CFI 34bec .cfa: x29 64 +
STACK CFI INIT 34bf0 240 .cfa: sp 0 +
STACK CFI 34bf4 .cfa: sp 96 +
STACK CFI 34c0c .cfa: x29 96 + x19: .cfa -8 + ^ x20: .cfa -16 + ^ x21: .cfa -24 + ^ x22: .cfa -32 + ^ x23: .cfa -40 + ^ x24: .cfa -48 + ^ x25: .cfa -56 + ^ x26: .cfa -64 + ^ x27: .cfa -72 + ^ x28: .cfa -80 + ^ .ra: .cfa -88 + ^ x29: .cfa -96 + ^
STACK CFI 34e14 .cfa: sp 96 +
STACK CFI 34e2c .cfa: sp 0 +
STACK CFI INIT 35aa4 154 .cfa: sp 0 +
STACK CFI 35aa8 .cfa: sp 96 +
STACK CFI 35abc .cfa: x29 64 + x19: .cfa -8 + ^ x20: .cfa -16 + ^ x21: .cfa -24 + ^ x22: .cfa -32 + ^ x23: .cfa -48 + ^ .ra: .cfa -56 + ^ x29: .cfa -64 + ^
STACK CFI 35b9c .cfa: sp 96 +
STACK CFI 35bb0 .cfa: sp 0 +
STACK CFI 35bb4 .cfa: x29 64 +
STACK CFI INIT 35e64 44 .cfa: sp 0 +
STACK CFI 35e68 .cfa: sp 32 +
STACK CFI 35e70 .cfa: x29 32 + x19: .cfa -16 + ^ .ra: .cfa -24 + ^ x29: .cfa -32 + ^
STACK CFI 35e8c .cfa: sp 32 +
STACK CFI 35e94 .cfa: sp 0 +
STACK CFI 35e98 .cfa: x29 32 +
STACK CFI 35e9c .cfa: sp 32 +
STACK CFI 35ea4 .cfa: sp 0 +
STACK CFI INIT 35ea8 1d0 .cfa: sp 0 +
STACK CFI 35eac .cfa: sp 64 +
STACK CFI 35ebc .cfa: x29 64 + x19: .cfa -8 + ^ x20: .cfa -16 + ^ x21: .cfa -24 + ^ x22: .cfa -32 + ^ x23: .cfa -40 + ^ x24: .cfa -48 + ^ .ra: .cfa -56 + ^ x29: .cfa -64 + ^
STACK CFI 35f7c .cfa: sp 64 +
STACK CFI 35f8c .cfa: sp 0 +
STACK CFI 35f90 .cfa: x29 64 +
STACK CFI INIT 36078 17c .cfa: sp 0 +
STACK CFI INIT 365ac a0 .cfa: sp 0 +
STACK CFI 365b0 .cfa: sp 48 +
STACK CFI 365bc .cfa: x29 48 + x19: .cfa -8 + ^ x20: .cfa -16 + ^ x21: .cfa -24 + ^ x22: .cfa -32 + ^ .ra: .cfa -40 + ^ x29: .cfa -48 + ^
STACK CFI 36628 .cfa: sp 48 +
STACK CFI 36634 .cfa: sp 0 +
STACK CFI 36638 .cfa: sp 48 +
STACK CFI 36644 .cfa: sp 0 +
STACK CFI 36648 .cfa: x29 48 +
STACK CFI INIT 37300 158 .cfa: sp 0 +
STACK CFI 37304 .cfa: sp 96 +
STACK CFI 37318 .cfa: x29 64 + x19: .cfa -8 + ^ x20: .cfa -16 + ^ x21: .cfa -24 + ^ x22: .cfa -32 + ^ x23: .cfa -48 + ^ .ra: .cfa -56 + ^ x29: .cfa -64 + ^
STACK CFI 373fc .cfa: sp 96 +
STACK CFI 37410 .cfa: sp 0 +
STACK CFI 37414 .cfa: x29 64 +
STACK CFI INIT 37458 190 .cfa: sp 0 +
STACK CFI INIT 380e4 1dc .cfa: sp 0 +
STACK CFI 380e8 .cfa: sp 80 +
STACK CFI 380fc .cfa: x29 80 + x19: .cfa -8 + ^ x20: .cfa -16 + ^ x21: .cfa -24 + ^ x22: .cfa -32 + ^ x23: .cfa -40 + ^ x24: .cfa -48 + ^ x25: .cfa -64 + ^ .ra: .cfa -72 + ^ x29: .cfa -80 + ^
STACK CFI 382a8 .cfa: sp 80 +
STACK CFI 382bc .cfa: sp 0 +
STACK CFI INIT 396f0 124 .cfa: sp 0 +
STACK CFI 39720 .cfa: sp 32 +
STACK CFI 39728 .cfa: x29 32 + x19: .cfa -8 + ^ x20: .cfa -16 + ^ .ra: .cfa -24 + ^ x29: .cfa -32 + ^
STACK CFI 39808 .cfa: sp 32 +
STACK CFI 39810 .cfa: sp 0 +
STACK CFI INIT 39f70 320 .cfa: sp 0 +
STACK CFI 39f74 .cfa: sp 64 +
STACK CFI 39f84 .cfa: x29 64 + x19: .cfa -8 + ^ x20: .cfa -16 + ^ x21: .cfa -24 + ^ x22: .cfa -32 + ^ x23: .cfa -40 + ^ x24: .cfa -48 + ^ .ra: .cfa -56 + ^ x29: .cfa -64 + ^
STACK CFI 3a000 .cfa: sp 64 +
STACK CFI 3a010 .cfa: sp 0 +
STACK CFI 3a014 .cfa: x29 64 +
STACK CFI 3a1e8 .cfa: sp 64 +
STACK CFI 3a1f8 .cfa: sp 0 +
STACK CFI 3a1fc .cfa: x29 64 +
STACK CFI 3a20c .cfa: sp 64 +
STACK CFI 3a21c .cfa: sp 0 +
STACK CFI 3a220 .cfa: x29 64 +
STACK CFI INIT 3a290 a0 .cfa: sp 0 +
STACK CFI 3a294 .cfa: sp 48 +
STACK CFI 3a2a0 .cfa: x29 48 + x19: .cfa -8 + ^ x20: .cfa -16 + ^ x21: .cfa -24 + ^ x22: .cfa -32 + ^ .ra: .cfa -40 + ^ x29: .cfa -48 + ^
STACK CFI 3a30c .cfa: sp 48 +
STACK CFI 3a318 .cfa: sp 0 +
STACK CFI 3a31c .cfa: sp 48 +
STACK CFI 3a328 .cfa: sp 0 +
STACK CFI 3a32c .cfa: x29 48 +
STACK CFI INIT 3b1e0 160 .cfa: sp 0 +
STACK CFI 3b1e4 .cfa: sp 64 +
STACK CFI 3b1f4 .cfa: x29 64 + x19: .cfa -8 + ^ x20: .cfa -16 + ^ x21: .cfa -24 + ^ x22: .cfa -32 + ^ x23: .cfa -48 + ^ .ra: .cfa -56 + ^ x29: .cfa -64 + ^
STACK CFI 3b2ec .cfa: sp 64 +
STACK CFI 3b2fc .cfa: sp 0 +
STACK CFI 3b300 .cfa: x29 64 +
STACK CFI INIT 3b340 214 .cfa: sp 0 +
STACK CFI 3b344 .cfa: sp 128 +
STACK CFI 3b360 .cfa: x29 96 + x19: .cfa -8 + ^ x20: .cfa -16 + ^ x21: .cfa -24 + ^ x22: .cfa -32 + ^ x23: .cfa -40 + ^ x24: .cfa -48 + ^ x25: .cfa -56 + ^ x26: .cfa -64 + ^ x27: .cfa -80 + ^ .ra: .cfa -88 + ^ x29: .cfa -96 + ^
STACK CFI 3b4dc .cfa: sp 128 +
STACK CFI 3b4f8 .cfa: sp 0 +
STACK CFI 3b4fc .cfa: x29 96 +
STACK CFI INIT 3d1f0 290 .cfa: sp 0 +
STACK CFI 3d1f4 .cfa: sp 16 +
STACK CFI 3d1f8 .cfa: x29 16 + .ra: .cfa -8 + ^ x29: .cfa -16 + ^
STACK CFI 3d284 .cfa: sp 16 +
STACK CFI 3d288 .cfa: sp 0 +
STACK CFI 3d28c .cfa: x29 16 +
STACK CFI 3d2dc .cfa: sp 16 +
STACK CFI 3d2e0 .cfa: sp 0 +
STACK CFI 3d2e4 .cfa: x29 16 +
STACK CFI 3d448 .cfa: sp 16 +
STACK CFI 3d44c .cfa: sp 0 +
STACK CFI 3d450 .cfa: x29 16 +
STACK CFI INIT 3d480 158 .cfa: sp 0 +
STACK CFI 3d484 .cfa: sp 112 +
STACK CFI 3d4a0 .cfa: x29 96 + x19: .cfa -8 + ^ x20: .cfa -16 + ^ x21: .cfa -24 + ^ x22: .cfa -32 + ^ x23: .cfa -40 + ^ x24: .cfa -48 + ^ x25: .cfa -56 + ^ x26: .cfa -64 + ^ x27: .cfa -72 + ^ x28: .cfa -80 + ^ .ra: .cfa -88 + ^ x29: .cfa -96 + ^
STACK CFI 3d588 .cfa: sp 112 +
STACK CFI 3d58c .cfa: x29 96 +
STACK CFI 3d594 .cfa: sp 112 +
STACK CFI 3d5b0 .cfa: sp 0 +
STACK CFI 3d5b4 .cfa: x29 96 +
STACK CFI 3d5d4 .cfa: sp 112 +
STACK CFI INIT 3d5d8 e54 .cfa: sp 0 +
STACK CFI 3d5dc .cfa: sp 192 +
STACK CFI 3d5f8 .cfa: x29 96 + x19: .cfa -8 + ^ x20: .cfa -16 + ^ x21: .cfa -24 + ^ x22: .cfa -32 + ^ x23: .cfa -40 + ^ x24: .cfa -48 + ^ x25: .cfa -56 + ^ x26: .cfa -64 + ^ x27: .cfa -72 + ^ x28: .cfa -80 + ^ .ra: .cfa -88 + ^ x29: .cfa -96 + ^
STACK CFI 3e314 .cfa: sp 192 +
STACK CFI 3e330 .cfa: sp 0 +
STACK CFI 3e334 .cfa: x29 96 +
STACK CFI INIT 3e42c 1068 .cfa: sp 0 +
STACK CFI 3e430 .cfa: sp 288 +
STACK CFI 3e44c .cfa: x29 96 + x19: .cfa -8 + ^ x20: .cfa -16 + ^ x21: .cfa -24 + ^ x22: .cfa -32 + ^ x23: .cfa -40 + ^ x24: .cfa -48 + ^ x25: .cfa -56 + ^ x26: .cfa -64 + ^ x27: .cfa -72 + ^ x28: .cfa -80 + ^ .ra: .cfa -88 + ^ x29: .cfa -96 + ^
STACK CFI 3f1dc .cfa: sp 288 +
STACK CFI 3f1f8 .cfa: sp 0 +
STACK CFI 3f1fc .cfa: x29 96 +
STACK CFI INIT 3f494 520 .cfa: sp 0 +
STACK CFI 3f498 .cfa: sp 144 +
STACK CFI 3f4b4 .cfa: x29 96 + x19: .cfa -8 + ^ x20: .cfa -16 + ^ x21: .cfa -24 + ^ x22: .cfa -32 + ^ x23: .cfa -40 + ^ x24: .cfa -48 + ^ x25: .cfa -56 + ^ x26: .cfa -64 + ^ x27: .cfa -72 + ^ x28: .cfa -80 + ^ .ra: .cfa -88 + ^ x29: .cfa -96 + ^
STACK CFI 3f990 .cfa: sp 144 +
STACK CFI 3f9ac .cfa: sp 0 +
STACK CFI 3f9b0 .cfa: x29 96 +
STACK CFI INIT 40354 136c .cfa: sp 0 +
STACK CFI 40358 .cfa: sp 224 +
STACK CFI 40374 .cfa: x29 96 + x19: .cfa -8 + ^ x20: .cfa -16 + ^ x21: .cfa -24 + ^ x22: .cfa -32 + ^ x23: .cfa -40 + ^ x24: .cfa -48 + ^ x25: .cfa -56 + ^ x26: .cfa -64 + ^ x27: .cfa -72 + ^ x28: .cfa -80 + ^ .ra: .cfa -88 + ^ x29: .cfa -96 + ^
STACK CFI 4169c .cfa: sp 224 +
STACK CFI 416b8 .cfa: sp 0 +
STACK CFI 416bc .cfa: x29 96 +
STACK CFI INIT 416c0 1b8 .cfa: sp 0 +
STACK CFI INIT 1dbe0 104 .cfa: sp 0 +
STACK CFI 1dbe4 .cfa: sp 80 +
STACK CFI 1dbf0 .cfa: x29 32 + x19: .cfa -8 + ^ x20: .cfa -16 + ^ .ra: .cfa -24 + ^ x29: .cfa -32 + ^
STACK CFI 1dc50 .cfa: sp 80 +
STACK CFI 1dc5c .cfa: sp 0 +
STACK CFI 1dc60 .cfa: x29 32 +
STACK CFI INIT 1dce4 b4 .cfa: sp 0 +
STACK CFI 1dce8 .cfa: sp 32 +
STACK CFI 1dcf0 .cfa: x29 32 + x19: .cfa -16 + ^ .ra: .cfa -24 + ^ x29: .cfa -32 + ^
STACK CFI 1dd68 .cfa: sp 32 +
STACK CFI 1dd70 .cfa: sp 0 +
STACK CFI 1dd74 .cfa: sp 32 +
STACK CFI 1dd7c .cfa: sp 0 +
STACK CFI 1dd80 .cfa: x29 32 +
STACK CFI INIT 1dd98 480 .cfa: sp 0 +
STACK CFI 1dd9c .cfa: sp 224 +
STACK CFI 1ddb8 .cfa: x29 96 + x19: .cfa -8 + ^ x20: .cfa -16 + ^ x21: .cfa -24 + ^ x22: .cfa -32 + ^ x23: .cfa -40 + ^ x24: .cfa -48 + ^ x25: .cfa -56 + ^ x26: .cfa -64 + ^ x27: .cfa -80 + ^ .ra: .cfa -88 + ^ x29: .cfa -96 + ^
STACK CFI 1e024 .cfa: sp 224 +
STACK CFI 1e040 .cfa: sp 0 +
STACK CFI 1e044 .cfa: x29 96 +
STACK CFI 1e110 .cfa: sp 224 +
STACK CFI 1e12c .cfa: sp 0 +
STACK CFI 1e130 .cfa: x29 96 +
STACK CFI INIT 1e248 50 .cfa: sp 0 +
STACK CFI 1e24c .cfa: sp 32 +
STACK CFI 1e254 .cfa: x29 32 + x19: .cfa -8 + ^ x20: .cfa -16 + ^ .ra: .cfa -24 + ^ x29: .cfa -32 + ^
STACK CFI INIT 1e30c 308 .cfa: sp 0 +
STACK CFI 1e310 .cfa: sp 144 +
STACK CFI 1e324 .cfa: x29 64 + x19: .cfa -8 + ^ x20: .cfa -16 + ^ x21: .cfa -24 + ^ x22: .cfa -32 + ^ x23: .cfa -48 + ^ .ra: .cfa -56 + ^ x29: .cfa -64 + ^
STACK CFI 1e524 .cfa: sp 144 +
STACK CFI 1e538 .cfa: sp 0 +
STACK CFI 1e53c .cfa: x29 64 +
STACK CFI INIT 1e9d0 304 .cfa: sp 0 +
STACK CFI 1e9d4 .cfa: sp 128 +
STACK CFI 1e9f0 .cfa: x29 96 + x19: .cfa -8 + ^ x20: .cfa -16 + ^ x21: .cfa -24 + ^ x22: .cfa -32 + ^ x23: .cfa -40 + ^ x24: .cfa -48 + ^ x25: .cfa -56 + ^ x26: .cfa -64 + ^ x27: .cfa -72 + ^ x28: .cfa -80 + ^ .ra: .cfa -88 + ^ x29: .cfa -96 + ^
STACK CFI 1ec54 .cfa: sp 128 +
STACK CFI 1ec70 .cfa: sp 0 +
STACK CFI 1ec74 .cfa: x29 96 +
STACK CFI INIT 1ecec 174 .cfa: sp 0 +
STACK CFI 1ecf0 .cfa: sp 112 +
STACK CFI 1ed00 .cfa: x29 48 + x19: .cfa -8 + ^ x20: .cfa -16 + ^ x21: .cfa -32 + ^ .ra: .cfa -40 + ^ x29: .cfa -48 + ^
STACK CFI 1edfc .cfa: sp 112 +
STACK CFI 1ee0c .cfa: sp 0 +
STACK CFI 1ee10 .cfa: x29 48 +
STACK CFI INIT 1f0b4 718 .cfa: sp 0 +
STACK CFI 1f0b8 .cfa: sp 224 +
STACK CFI 1f0cc .cfa: x29 64 + x19: .cfa -8 + ^ x20: .cfa -16 + ^ x21: .cfa -24 + ^ x22: .cfa -32 + ^ x23: .cfa -40 + ^ x24: .cfa -48 + ^ .ra: .cfa -56 + ^ x29: .cfa -64 + ^
STACK CFI 1f5ac .cfa: sp 224 +
STACK CFI 1f5c0 .cfa: sp 0 +
STACK CFI 1f5c4 .cfa: x29 64 +
STACK CFI INIT 1f81c 74 .cfa: sp 0 +
STACK CFI 1f820 .cfa: sp 48 +
STACK CFI 1f82c .cfa: x29 32 + x19: .cfa -8 + ^ x20: .cfa -16 + ^ .ra: .cfa -24 + ^ x29: .cfa -32 + ^
STACK CFI 1f878 .cfa: sp 48 +
STACK CFI 1f884 .cfa: sp 0 +
STACK CFI 1f888 .cfa: x29 32 +
STACK CFI INIT 1f910 154 .cfa: sp 0 +
STACK CFI 1f914 .cfa: sp 384 +
STACK CFI 1f928 .cfa: x29 64 + x19: .cfa -8 + ^ x20: .cfa -16 + ^ x21: .cfa -24 + ^ x22: .cfa -32 + ^ x23: .cfa -40 + ^ x28: .cfa -48 + ^ .ra: .cfa -56 + ^ x29: .cfa -64 + ^
STACK CFI 1fa0c .cfa: sp 384 +
STACK CFI 1fa20 .cfa: sp 0 +
STACK CFI 1fa24 .cfa: x29 64 +
STACK CFI INIT 1fa98 12c .cfa: sp 0 +
STACK CFI 1fa9c .cfa: sp 80 +
STACK CFI 1fab0 .cfa: x29 80 + x19: .cfa -8 + ^ x20: .cfa -16 + ^ x21: .cfa -24 + ^ x22: .cfa -32 + ^ x23: .cfa -40 + ^ x24: .cfa -48 + ^ x25: .cfa -56 + ^ x26: .cfa -64 + ^ .ra: .cfa -72 + ^ x29: .cfa -80 + ^
STACK CFI 1fb78 .cfa: sp 80 +
STACK CFI 1fb8c .cfa: sp 0 +
STACK CFI 1fb90 .cfa: x29 80 +
STACK CFI INIT 1fc68 1a4 .cfa: sp 0 +
STACK CFI 1fc6c .cfa: sp 112 +
STACK CFI 1fc84 .cfa: x29 80 + x19: .cfa -8 + ^ x20: .cfa -16 + ^ x21: .cfa -24 + ^ x22: .cfa -32 + ^ x23: .cfa -40 + ^ x24: .cfa -48 + ^ x25: .cfa -56 + ^ x26: .cfa -64 + ^ .ra: .cfa -72 + ^ x29: .cfa -80 + ^
STACK CFI 1fd74 .cfa: sp 112 +
STACK CFI 1fd8c .cfa: sp 0 +
STACK CFI 1fd90 .cfa: x29 80 +
STACK CFI INIT 1fe0c 1dc .cfa: sp 0 +
STACK CFI 1fe10 .cfa: sp 128 +
STACK CFI 1fe2c .cfa: x29 96 + x19: .cfa -8 + ^ x20: .cfa -16 + ^ x21: .cfa -24 + ^ x22: .cfa -32 + ^ x23: .cfa -40 + ^ x24: .cfa -48 + ^ x25: .cfa -56 + ^ x26: .cfa -64 + ^ x27: .cfa -80 + ^ .ra: .cfa -88 + ^ x29: .cfa -96 + ^
STACK CFI 1ff98 .cfa: sp 128 +
STACK CFI 1ffb4 .cfa: sp 0 +
STACK CFI 1ffb8 .cfa: x29 96 +
STACK CFI INIT 1ffe8 178 .cfa: sp 0 +
STACK CFI 1ffec .cfa: sp 80 +
STACK CFI 20000 .cfa: x29 80 + x19: .cfa -8 + ^ x20: .cfa -16 + ^ x21: .cfa -24 + ^ x22: .cfa -32 + ^ x23: .cfa -40 + ^ x24: .cfa -48 + ^ x25: .cfa -64 + ^ .ra: .cfa -72 + ^ x29: .cfa -80 + ^
STACK CFI 2012c .cfa: sp 80 +
STACK CFI 20140 .cfa: sp 0 +
STACK CFI 20144 .cfa: x29 80 +
STACK CFI INIT 202a8 228 .cfa: sp 0 +
STACK CFI 202ac .cfa: sp 128 +
STACK CFI 202c4 .cfa: x29 80 + x19: .cfa -8 + ^ x20: .cfa -16 + ^ x21: .cfa -24 + ^ x22: .cfa -32 + ^ x23: .cfa -40 + ^ x24: .cfa -48 + ^ x25: .cfa -64 + ^ .ra: .cfa -72 + ^ x29: .cfa -80 + ^
STACK CFI 20460 .cfa: sp 128 +
STACK CFI 20478 .cfa: sp 0 +
STACK CFI 2047c .cfa: x29 80 +
STACK CFI INIT 20c90 184 .cfa: sp 0 +
STACK CFI 20c94 .cfa: sp 160 +
STACK CFI 20cac .cfa: x29 80 + x19: .cfa -8 + ^ x20: .cfa -16 + ^ x21: .cfa -24 + ^ x22: .cfa -32 + ^ x23: .cfa -40 + ^ x24: .cfa -48 + ^ x25: .cfa -56 + ^ x26: .cfa -64 + ^ .ra: .cfa -72 + ^ x29: .cfa -80 + ^
STACK CFI 20dac .cfa: sp 160 +
STACK CFI 20dc4 .cfa: sp 0 +
STACK CFI 20dc8 .cfa: x29 80 +
STACK CFI INIT 20e68 a8 .cfa: sp 0 +
STACK CFI 20e6c .cfa: sp 32 +
STACK CFI 20e74 .cfa: x29 32 + x19: .cfa -16 + ^ .ra: .cfa -24 + ^ x29: .cfa -32 + ^
STACK CFI 20ea8 .cfa: sp 32 +
STACK CFI 20eb0 .cfa: sp 0 +
STACK CFI 20eb4 .cfa: x29 32 +
STACK CFI 20eb8 .cfa: sp 32 +
STACK CFI 20ec0 .cfa: sp 0 +
STACK CFI 20ec4 .cfa: x29 32 +
STACK CFI INIT 21050 134 .cfa: sp 0 +
STACK CFI 21054 .cfa: sp 80 +
STACK CFI 21064 .cfa: x29 48 + x19: .cfa -8 + ^ x20: .cfa -16 + ^ x21: .cfa -24 + ^ x22: .cfa -32 + ^ .ra: .cfa -40 + ^ x29: .cfa -48 + ^
STACK CFI 21168 .cfa: sp 80 +
STACK CFI 21178 .cfa: sp 0 +
STACK CFI 2117c .cfa: x29 48 +
STACK CFI INIT 214e8 12c .cfa: sp 0 +
STACK CFI 214ec .cfa: sp 80 +
STACK CFI 214fc .cfa: x29 48 + x19: .cfa -8 + ^ x20: .cfa -16 + ^ x21: .cfa -32 + ^ .ra: .cfa -40 + ^ x29: .cfa -48 + ^
STACK CFI 21594 .cfa: sp 80 +
STACK CFI 215a4 .cfa: sp 0 +
STACK CFI 215a8 .cfa: x29 48 +
STACK CFI INIT 21614 104 .cfa: sp 0 +
STACK CFI 21618 .cfa: sp 80 +
STACK CFI 21624 .cfa: x29 32 + x19: .cfa -8 + ^ x20: .cfa -16 + ^ .ra: .cfa -24 + ^ x29: .cfa -32 + ^
STACK CFI 21684 .cfa: sp 80 +
STACK CFI 21690 .cfa: sp 0 +
STACK CFI 21694 .cfa: x29 32 +
STACK CFI INIT 21718 1248 .cfa: sp 0 +
STACK CFI 2171c .cfa: sp 112 +
STACK CFI 21738 .cfa: x29 96 + x19: .cfa -8 + ^ x20: .cfa -16 + ^ x21: .cfa -24 + ^ x22: .cfa -32 + ^ x23: .cfa -40 + ^ x24: .cfa -48 + ^ x25: .cfa -56 + ^ x26: .cfa -64 + ^ x27: .cfa -72 + ^ x28: .cfa -80 + ^ .ra: .cfa -88 + ^ x29: .cfa -96 + ^ v8: .cfa -104 + ^ v9: .cfa -112 + ^
STACK CFI 226b4 .cfa: sp 112 +
STACK CFI 226d0 .cfa: sp 0 +
STACK CFI 226d4 .cfa: x29 96 +
STACK CFI INIT 22960 480 .cfa: sp 0 +
STACK CFI 22964 .cfa: sp 224 +
STACK CFI 22980 .cfa: x29 96 + x19: .cfa -8 + ^ x20: .cfa -16 + ^ x21: .cfa -24 + ^ x22: .cfa -32 + ^ x23: .cfa -40 + ^ x24: .cfa -48 + ^ x25: .cfa -56 + ^ x26: .cfa -64 + ^ x27: .cfa -80 + ^ .ra: .cfa -88 + ^ x29: .cfa -96 + ^
STACK CFI 22bec .cfa: sp 224 +
STACK CFI 22c08 .cfa: sp 0 +
STACK CFI 22c0c .cfa: x29 96 +
STACK CFI 22cd8 .cfa: sp 224 +
STACK CFI 22cf4 .cfa: sp 0 +
STACK CFI 22cf8 .cfa: x29 96 +
STACK CFI INIT 22dfc 640 .cfa: sp 0 +
STACK CFI 22e00 .cfa: sp 224 +
STACK CFI 22e1c .cfa: x29 96 + x19: .cfa -8 + ^ x20: .cfa -16 + ^ x21: .cfa -24 + ^ x22: .cfa -32 + ^ x23: .cfa -40 + ^ x24: .cfa -48 + ^ x25: .cfa -56 + ^ x26: .cfa -64 + ^ x27: .cfa -72 + ^ x28: .cfa -80 + ^ .ra: .cfa -88 + ^ x29: .cfa -96 + ^
STACK CFI 232c8 .cfa: sp 224 +
STACK CFI 232e4 .cfa: sp 0 +
STACK CFI 232e8 .cfa: x29 96 +
STACK CFI INIT 23474 50 .cfa: sp 0 +
STACK CFI 23478 .cfa: sp 32 +
STACK CFI 23480 .cfa: x29 32 + x19: .cfa -8 + ^ x20: .cfa -16 + ^ .ra: .cfa -24 + ^ x29: .cfa -32 + ^
STACK CFI INIT 23598 194 .cfa: sp 0 +
STACK CFI 2359c .cfa: sp 96 +
STACK CFI 235b0 .cfa: x29 64 + x19: .cfa -8 + ^ x20: .cfa -16 + ^ x21: .cfa -24 + ^ x22: .cfa -32 + ^ x23: .cfa -48 + ^ .ra: .cfa -56 + ^ x29: .cfa -64 + ^
STACK CFI 236a8 .cfa: sp 96 +
STACK CFI 236bc .cfa: sp 0 +
STACK CFI 236c0 .cfa: x29 64 +
STACK CFI INIT 23880 54c .cfa: sp 0 +
STACK CFI 23884 .cfa: sp 96 +
STACK CFI 2389c .cfa: x29 96 + x19: .cfa -8 + ^ x20: .cfa -16 + ^ x21: .cfa -24 + ^ x22: .cfa -32 + ^ x23: .cfa -40 + ^ x24: .cfa -48 + ^ x25: .cfa -56 + ^ x26: .cfa -64 + ^ x27: .cfa -72 + ^ x28: .cfa -80 + ^ .ra: .cfa -88 + ^ x29: .cfa -96 + ^
STACK CFI 23cbc .cfa: sp 96 +
STACK CFI 23cd4 .cfa: sp 0 +
STACK CFI 23cd8 .cfa: x29 96 +
STACK CFI INIT 23dcc 1d4 .cfa: sp 0 +
STACK CFI 23dd0 .cfa: sp 128 +
STACK CFI 23dec .cfa: x29 96 + x19: .cfa -8 + ^ x20: .cfa -16 + ^ x21: .cfa -24 + ^ x22: .cfa -32 + ^ x23: .cfa -40 + ^ x24: .cfa -48 + ^ x25: .cfa -56 + ^ x26: .cfa -64 + ^ x27: .cfa -72 + ^ x28: .cfa -80 + ^ .ra: .cfa -88 + ^ x29: .cfa -96 + ^
STACK CFI 23f58 .cfa: sp 128 +
STACK CFI 23f74 .cfa: sp 0 +
STACK CFI 23f78 .cfa: x29 96 +
STACK CFI INIT 24324 a94 .cfa: sp 0 +
STACK CFI 24328 .cfa: sp 288 +
STACK CFI 24344 .cfa: x29 96 + x19: .cfa -8 + ^ x20: .cfa -16 + ^ x21: .cfa -24 + ^ x22: .cfa -32 + ^ x23: .cfa -40 + ^ x24: .cfa -48 + ^ x25: .cfa -56 + ^ x26: .cfa -64 + ^ x28: .cfa -80 + ^ .ra: .cfa -88 + ^ x29: .cfa -96 + ^
STACK CFI 24ab8 .cfa: sp 288 +
STACK CFI 24ad4 .cfa: sp 0 +
STACK CFI 24ad8 .cfa: x29 96 +
STACK CFI INIT 24e64 134 .cfa: sp 0 +
STACK CFI 24e68 .cfa: sp 64 +
STACK CFI 24e78 .cfa: x29 64 + x19: .cfa -8 + ^ x20: .cfa -16 + ^ x21: .cfa -24 + ^ x22: .cfa -32 + ^ x23: .cfa -48 + ^ .ra: .cfa -56 + ^ x29: .cfa -64 + ^
STACK CFI 24ed4 .cfa: sp 64 +
STACK CFI 24ee4 .cfa: sp 0 +
STACK CFI 24ee8 .cfa: x29 64 +
STACK CFI 24f68 .cfa: sp 64 +
STACK CFI 24f78 .cfa: sp 0 +
STACK CFI 24f7c .cfa: x29 64 +
STACK CFI INIT 24f98 134 .cfa: sp 0 +
STACK CFI 24f9c .cfa: sp 128 +
STACK CFI 24fb0 .cfa: x29 64 + x19: .cfa -8 + ^ x20: .cfa -16 + ^ x21: .cfa -24 + ^ x22: .cfa -32 + ^ x23: .cfa -40 + ^ x24: .cfa -48 + ^ .ra: .cfa -56 + ^ x29: .cfa -64 + ^
STACK CFI 2507c .cfa: sp 128 +
STACK CFI 25090 .cfa: sp 0 +
STACK CFI 25094 .cfa: x29 64 +
STACK CFI INIT 25228 c8 .cfa: sp 0 +
STACK CFI 2522c .cfa: sp 32 +
STACK CFI 25234 .cfa: x29 32 + x19: .cfa -8 + ^ x20: .cfa -16 + ^ .ra: .cfa -24 + ^ x29: .cfa -32 + ^
STACK CFI 25268 .cfa: sp 32 +
STACK CFI 25270 .cfa: sp 0 +
STACK CFI 25274 .cfa: x29 32 +
STACK CFI 25278 .cfa: sp 32 +
STACK CFI 25280 .cfa: sp 0 +
STACK CFI 25284 .cfa: x29 32 +
STACK CFI INIT 252f0 81c .cfa: sp 0 +
STACK CFI 252f4 .cfa: sp 80 +
STACK CFI 25308 .cfa: x29 80 + x19: .cfa -8 + ^ x20: .cfa -16 + ^ x21: .cfa -24 + ^ x22: .cfa -32 + ^ x23: .cfa -40 + ^ x24: .cfa -48 + ^ x25: .cfa -56 + ^ x26: .cfa -64 + ^ .ra: .cfa -72 + ^ x29: .cfa -80 + ^
STACK CFI 25790 .cfa: sp 80 +
STACK CFI 257a4 .cfa: sp 0 +
STACK CFI 257a8 .cfa: x29 80 +
STACK CFI INIT 25b0c 578 .cfa: sp 0 +
STACK CFI 25b10 .cfa: sp 96 +
STACK CFI 25b24 .cfa: x29 64 + x19: .cfa -8 + ^ x20: .cfa -16 + ^ x21: .cfa -24 + ^ x22: .cfa -32 + ^ x23: .cfa -48 + ^ .ra: .cfa -56 + ^ x29: .cfa -64 + ^
STACK CFI 25ec4 .cfa: sp 96 +
STACK CFI 25ed8 .cfa: sp 0 +
STACK CFI 25edc .cfa: x29 64 +
STACK CFI INIT 261f8 1c .cfa: sp 0 +
STACK CFI 261fc .cfa: sp 16 +
STACK CFI 26200 .cfa: x29 16 + .ra: .cfa -8 + ^ x29: .cfa -16 + ^
STACK CFI 26208 .cfa: sp 16 +
STACK CFI 2620c .cfa: sp 0 +
STACK CFI 26210 .cfa: x29 16 +
STACK CFI INIT 26520 3f8 .cfa: sp 0 +
STACK CFI 26524 .cfa: sp 48 +
STACK CFI 26530 .cfa: x29 48 + x19: .cfa -8 + ^ x20: .cfa -16 + ^ x21: .cfa -24 + ^ x22: .cfa -32 + ^ .ra: .cfa -40 + ^ x29: .cfa -48 + ^
STACK CFI 26898 .cfa: sp 48 +
STACK CFI 268a4 .cfa: sp 0 +
STACK CFI 268a8 .cfa: x29 48 +
STACK CFI 268f8 .cfa: sp 48 +
STACK CFI 26904 .cfa: sp 0 +
STACK CFI 26908 .cfa: x29 48 +
STACK CFI INIT 26998 1c .cfa: sp 0 +
STACK CFI 2699c .cfa: sp 16 +
STACK CFI 269a0 .cfa: x29 16 + .ra: .cfa -8 + ^ x29: .cfa -16 + ^
STACK CFI 269a8 .cfa: sp 16 +
STACK CFI 269ac .cfa: sp 0 +
STACK CFI 269b0 .cfa: x29 16 +
STACK CFI INIT 26a44 98 .cfa: sp 0 +
STACK CFI 26a48 .cfa: sp 48 +
STACK CFI 26a54 .cfa: x29 48 + x19: .cfa -8 + ^ x20: .cfa -16 + ^ x21: .cfa -32 + ^ .ra: .cfa -40 + ^ x29: .cfa -48 + ^
STACK CFI 26ab4 .cfa: sp 48 +
STACK CFI 26ac0 .cfa: sp 0 +
STACK CFI 26ac4 .cfa: sp 48 +
STACK CFI 26ad0 .cfa: sp 0 +
STACK CFI 26ad4 .cfa: x29 48 +
STACK CFI INIT 26b18 1c .cfa: sp 0 +
STACK CFI 26b1c .cfa: sp 16 +
STACK CFI 26b20 .cfa: x29 16 + .ra: .cfa -8 + ^ x29: .cfa -16 + ^
STACK CFI 26b28 .cfa: sp 16 +
STACK CFI 26b2c .cfa: sp 0 +
STACK CFI 26b30 .cfa: x29 16 +
STACK CFI INIT 26b34 1c .cfa: sp 0 +
STACK CFI 26b38 .cfa: sp 16 +
STACK CFI 26b3c .cfa: x29 16 + .ra: .cfa -8 + ^ x29: .cfa -16 + ^
STACK CFI 26b44 .cfa: sp 16 +
STACK CFI 26b48 .cfa: sp 0 +
STACK CFI 26b4c .cfa: x29 16 +
STACK CFI INIT 26d30 1cc .cfa: sp 0 +
STACK CFI 26d34 .cfa: sp 160 +
STACK CFI 26d4c .cfa: x29 80 + x19: .cfa -8 + ^ x20: .cfa -16 + ^ x21: .cfa -24 + ^ x22: .cfa -32 + ^ x23: .cfa -40 + ^ x24: .cfa -48 + ^ x25: .cfa -56 + ^ x26: .cfa -64 + ^ .ra: .cfa -72 + ^ x29: .cfa -80 + ^
STACK CFI 26ea8 .cfa: sp 160 +
STACK CFI 26ec0 .cfa: sp 0 +
STACK CFI 26ec4 .cfa: x29 80 +
STACK CFI INIT 272b4 1a0 .cfa: sp 0 +
STACK CFI 272b8 .cfa: sp 64 +
STACK CFI 272c8 .cfa: x29 64 + x19: .cfa -8 + ^ x20: .cfa -16 + ^ x21: .cfa -24 + ^ x22: .cfa -32 + ^ x23: .cfa -48 + ^ .ra: .cfa -56 + ^ x29: .cfa -64 + ^
STACK CFI 2738c .cfa: sp 64 +
STACK CFI 2739c .cfa: sp 0 +
STACK CFI 273a0 .cfa: x29 64 +
STACK CFI INIT 27a88 a8 .cfa: sp 0 +
STACK CFI 27a8c .cfa: sp 64 +
STACK CFI 27a9c .cfa: x29 64 + x19: .cfa -8 + ^ x20: .cfa -16 + ^ x21: .cfa -24 + ^ x22: .cfa -32 + ^ x23: .cfa -40 + ^ x24: .cfa -48 + ^ .ra: .cfa -56 + ^ x29: .cfa -64 + ^
STACK CFI 27ac0 .cfa: sp 64 +
STACK CFI 27ad0 .cfa: sp 0 +
STACK CFI 27ad4 .cfa: x29 64 +
STACK CFI INIT 27c94 960 .cfa: sp 0 +
STACK CFI 27c98 .cfa: sp 112 +
STACK CFI 27cb4 .cfa: x29 96 + x19: .cfa -8 + ^ x20: .cfa -16 + ^ x21: .cfa -24 + ^ x22: .cfa -32 + ^ x23: .cfa -40 + ^ x24: .cfa -48 + ^ x25: .cfa -56 + ^ x26: .cfa -64 + ^ x27: .cfa -72 + ^ x28: .cfa -80 + ^ .ra: .cfa -88 + ^ x29: .cfa -96 + ^ v8: .cfa -104 + ^ v9: .cfa -112 + ^
STACK CFI 2847c .cfa: sp 112 +
STACK CFI 28498 .cfa: sp 0 +
STACK CFI 2849c .cfa: x29 96 +
STACK CFI INIT 285f4 118 .cfa: sp 0 +
STACK CFI 285f8 .cfa: sp 80 +
STACK CFI 28608 .cfa: x29 48 + x19: .cfa -8 + ^ x20: .cfa -16 + ^ x21: .cfa -24 + ^ x22: .cfa -32 + ^ .ra: .cfa -40 + ^ x29: .cfa -48 + ^
STACK CFI 286f0 .cfa: sp 80 +
STACK CFI 28700 .cfa: sp 0 +
STACK CFI 28704 .cfa: x29 48 +
STACK CFI INIT 28800 284 .cfa: sp 0 +
STACK CFI 28804 .cfa: sp 256 +
STACK CFI 28814 .cfa: x29 48 + x19: .cfa -8 + ^ x20: .cfa -16 + ^ x21: .cfa -24 + ^ x22: .cfa -32 + ^ .ra: .cfa -40 + ^ x29: .cfa -48 + ^
STACK CFI 28a3c .cfa: sp 256 +
STACK CFI 28a4c .cfa: sp 0 +
STACK CFI 28a50 .cfa: x29 48 +
STACK CFI INIT 28a84 19c .cfa: sp 0 +
STACK CFI 28a88 .cfa: sp 96 +
STACK CFI 28a98 .cfa: x29 48 + x19: .cfa -8 + ^ x20: .cfa -16 + ^ x21: .cfa -24 + ^ x22: .cfa -32 + ^ .ra: .cfa -40 + ^ x29: .cfa -48 + ^
STACK CFI 28bc8 .cfa: sp 96 +
STACK CFI 28bd8 .cfa: sp 0 +
STACK CFI 28bdc .cfa: x29 48 +
STACK CFI INIT 28d88 45c .cfa: sp 0 +
STACK CFI 28d8c .cfa: sp 144 +
STACK CFI 28da8 .cfa: x29 96 + x19: .cfa -8 + ^ x20: .cfa -16 + ^ x21: .cfa -24 + ^ x22: .cfa -32 + ^ x23: .cfa -40 + ^ x24: .cfa -48 + ^ x25: .cfa -56 + ^ x26: .cfa -64 + ^ x27: .cfa -72 + ^ x28: .cfa -80 + ^ .ra: .cfa -88 + ^ x29: .cfa -96 + ^
STACK CFI 29198 .cfa: sp 144 +
STACK CFI 291b4 .cfa: sp 0 +
STACK CFI 291b8 .cfa: x29 96 +
STACK CFI INIT 2922c f8 .cfa: sp 0 +
STACK CFI 29230 .cfa: sp 48 +
STACK CFI 2923c .cfa: x29 48 + x19: .cfa -8 + ^ x20: .cfa -16 + ^ x21: .cfa -32 + ^ .ra: .cfa -40 + ^ x29: .cfa -48 + ^
STACK CFI 292a8 .cfa: sp 48 +
STACK CFI 292b4 .cfa: sp 0 +
STACK CFI 292b8 .cfa: x29 48 +
STACK CFI INIT 293d0 1cc .cfa: sp 0 +
STACK CFI 293d4 .cfa: sp 80 +
STACK CFI 293e4 .cfa: x29 48 + x19: .cfa -8 + ^ x20: .cfa -16 + ^ x21: .cfa -24 + ^ x22: .cfa -32 + ^ .ra: .cfa -40 + ^ x29: .cfa -48 + ^
STACK CFI 294ec .cfa: sp 80 +
STACK CFI 294fc .cfa: sp 0 +
STACK CFI 29500 .cfa: x29 48 +
STACK CFI INIT 295c8 174 .cfa: sp 0 +
STACK CFI 295cc .cfa: sp 112 +
STACK CFI 295dc .cfa: x29 48 + x19: .cfa -8 + ^ x20: .cfa -16 + ^ x21: .cfa -32 + ^ .ra: .cfa -40 + ^ x29: .cfa -48 + ^
STACK CFI 296d8 .cfa: sp 112 +
STACK CFI 296e8 .cfa: sp 0 +
STACK CFI 296ec .cfa: x29 48 +
STACK CFI INIT 298d8 26c .cfa: sp 0 +
STACK CFI 298dc .cfa: sp 64 +
STACK CFI 298ec .cfa: x29 64 + x19: .cfa -8 + ^ x20: .cfa -16 + ^ x21: .cfa -24 + ^ x22: .cfa -32 + ^ x23: .cfa -48 + ^ .ra: .cfa -56 + ^ x29: .cfa -64 + ^
STACK CFI 29a54 .cfa: sp 64 +
STACK CFI 29a64 .cfa: sp 0 +
STACK CFI 29a68 .cfa: x29 64 +
STACK CFI 29ae4 .cfa: sp 64 +
STACK CFI 29af4 .cfa: sp 0 +
STACK CFI 29af8 .cfa: x29 64 +
STACK CFI INIT 29bc8 138 .cfa: sp 0 +
STACK CFI 29bcc .cfa: sp 48 +
STACK CFI 29bd8 .cfa: x29 48 + x19: .cfa -8 + ^ x20: .cfa -16 + ^ x21: .cfa -32 + ^ .ra: .cfa -40 + ^ x29: .cfa -48 + ^
STACK CFI 29c78 .cfa: sp 48 +
STACK CFI 29c84 .cfa: sp 0 +
STACK CFI 29c88 .cfa: x29 48 +
STACK CFI 29cd0 .cfa: sp 48 +
STACK CFI 29cdc .cfa: sp 0 +
STACK CFI 29ce0 .cfa: x29 48 +
STACK CFI INIT 29d84 138 .cfa: sp 0 +
STACK CFI 29d88 .cfa: sp 48 +
STACK CFI 29d94 .cfa: x29 48 + x19: .cfa -8 + ^ x20: .cfa -16 + ^ x21: .cfa -32 + ^ .ra: .cfa -40 + ^ x29: .cfa -48 + ^
STACK CFI 29e34 .cfa: sp 48 +
STACK CFI 29e40 .cfa: sp 0 +
STACK CFI 29e44 .cfa: x29 48 +
STACK CFI 29e8c .cfa: sp 48 +
STACK CFI 29e98 .cfa: sp 0 +
STACK CFI 29e9c .cfa: x29 48 +
STACK CFI INIT 29f44 230 .cfa: sp 0 +
STACK CFI 29f48 .cfa: sp 112 +
STACK CFI 29f58 .cfa: x29 48 + x19: .cfa -8 + ^ x20: .cfa -16 + ^ x21: .cfa -24 + ^ x22: .cfa -32 + ^ .ra: .cfa -40 + ^ x29: .cfa -48 + ^
STACK CFI 2a0ac .cfa: sp 112 +
STACK CFI 2a0bc .cfa: sp 0 +
STACK CFI 2a0c0 .cfa: x29 48 +
STACK CFI INIT 2a19c 71c .cfa: sp 0 +
STACK CFI 2a1a0 .cfa: sp 176 +
STACK CFI 2a1b0 .cfa: x29 48 + x19: .cfa -8 + ^ x20: .cfa -16 + ^ x21: .cfa -24 + ^ x22: .cfa -32 + ^ .ra: .cfa -40 + ^ x29: .cfa -48 + ^
STACK CFI 2a774 .cfa: sp 176 +
STACK CFI 2a784 .cfa: sp 0 +
STACK CFI 2a788 .cfa: x29 48 +
STACK CFI INIT 2a940 134 .cfa: sp 0 +
STACK CFI 2a944 .cfa: sp 80 +
STACK CFI 2a950 .cfa: x29 32 + x19: .cfa -8 + ^ x20: .cfa -16 + ^ .ra: .cfa -24 + ^ x29: .cfa -32 + ^
STACK CFI 2a980 .cfa: sp 80 +
STACK CFI 2a98c .cfa: sp 0 +
STACK CFI 2a990 .cfa: x29 32 +
STACK CFI INIT 2aa74 78 .cfa: sp 0 +
STACK CFI 2aa78 .cfa: sp 32 +
STACK CFI 2aa80 .cfa: x29 32 + x19: .cfa -8 + ^ x20: .cfa -16 + ^ .ra: .cfa -24 + ^ x29: .cfa -32 + ^
STACK CFI 2aa8c .cfa: sp 32 +
STACK CFI 2aa94 .cfa: sp 0 +
STACK CFI 2aa98 .cfa: x29 32 +
STACK CFI INIT 2aaec 74 .cfa: sp 0 +
STACK CFI 2aaf0 .cfa: sp 48 +
STACK CFI 2aafc .cfa: x29 32 + x19: .cfa -8 + ^ x20: .cfa -16 + ^ .ra: .cfa -24 + ^ x29: .cfa -32 + ^
STACK CFI 2ab48 .cfa: sp 48 +
STACK CFI 2ab54 .cfa: sp 0 +
STACK CFI 2ab58 .cfa: x29 32 +
STACK CFI INIT 2abe8 25c .cfa: sp 0 +
STACK CFI 2abec .cfa: sp 128 +
STACK CFI 2abfc .cfa: x29 48 + x19: .cfa -8 + ^ x20: .cfa -16 + ^ x21: .cfa -32 + ^ .ra: .cfa -40 + ^ x29: .cfa -48 + ^
STACK CFI 2ace4 .cfa: sp 128 +
STACK CFI 2acf4 .cfa: sp 0 +
STACK CFI 2acf8 .cfa: x29 48 +
STACK CFI INIT 2aebc 178 .cfa: sp 0 +
STACK CFI 2aec0 .cfa: sp 128 +
STACK CFI 2aed0 .cfa: x29 48 + x19: .cfa -8 + ^ x20: .cfa -16 + ^ x21: .cfa -24 + ^ x22: .cfa -32 + ^ .ra: .cfa -40 + ^ x29: .cfa -48 + ^
STACK CFI 2af2c .cfa: sp 128 +
STACK CFI 2af3c .cfa: sp 0 +
STACK CFI 2af40 .cfa: x29 48 +
STACK CFI INIT 2b034 a4 .cfa: sp 0 +
STACK CFI 2b038 .cfa: sp 48 +
STACK CFI 2b044 .cfa: x29 48 + x19: .cfa -8 + ^ x20: .cfa -16 + ^ x21: .cfa -32 + ^ .ra: .cfa -40 + ^ x29: .cfa -48 + ^
STACK CFI 2b0b0 .cfa: sp 48 +
STACK CFI 2b0bc .cfa: sp 0 +
STACK CFI 2b0c0 .cfa: x29 48 +
STACK CFI INIT 2b0d8 83c .cfa: sp 0 +
STACK CFI 2b0dc .cfa: sp 144 +
STACK CFI 2b0f0 .cfa: x29 64 + x19: .cfa -8 + ^ x20: .cfa -16 + ^ x21: .cfa -24 + ^ x22: .cfa -32 + ^ x23: .cfa -48 + ^ .ra: .cfa -56 + ^ x29: .cfa -64 + ^
STACK CFI 2b74c .cfa: sp 144 +
STACK CFI 2b760 .cfa: sp 0 +
STACK CFI 2b764 .cfa: x29 64 +
STACK CFI INIT 2b914 7b0 .cfa: sp 0 +
STACK CFI 2b918 .cfa: sp 80 +
STACK CFI 2b92c .cfa: x29 80 + x19: .cfa -8 + ^ x20: .cfa -16 + ^ x21: .cfa -24 + ^ x22: .cfa -32 + ^ x23: .cfa -40 + ^ x24: .cfa -48 + ^ x25: .cfa -56 + ^ x26: .cfa -64 + ^ .ra: .cfa -72 + ^ x29: .cfa -80 + ^
STACK CFI 2bd48 .cfa: sp 80 +
STACK CFI 2bd5c .cfa: sp 0 +
STACK CFI 2bd60 .cfa: x29 80 +
STACK CFI INIT 2c118 16c .cfa: sp 0 +
STACK CFI 2c11c .cfa: sp 160 +
STACK CFI 2c134 .cfa: x29 80 + x19: .cfa -8 + ^ x20: .cfa -16 + ^ x21: .cfa -24 + ^ x22: .cfa -32 + ^ x23: .cfa -40 + ^ x24: .cfa -48 + ^ x25: .cfa -56 + ^ x26: .cfa -64 + ^ .ra: .cfa -72 + ^ x29: .cfa -80 + ^
STACK CFI 2c19c .cfa: sp 160 +
STACK CFI 2c1b4 .cfa: sp 0 +
STACK CFI 2c1b8 .cfa: x29 80 +
STACK CFI INIT 2c284 4ac .cfa: sp 0 +
STACK CFI 2c288 .cfa: sp 128 +
STACK CFI 2c2a0 .cfa: x29 80 + x19: .cfa -8 + ^ x20: .cfa -16 + ^ x21: .cfa -24 + ^ x22: .cfa -32 + ^ x23: .cfa -40 + ^ x24: .cfa -48 + ^ x25: .cfa -64 + ^ .ra: .cfa -72 + ^ x29: .cfa -80 + ^
STACK CFI 2c6ac .cfa: sp 128 +
STACK CFI 2c6c4 .cfa: sp 0 +
STACK CFI 2c6c8 .cfa: x29 80 +
STACK CFI INIT 2c738 17c .cfa: sp 0 +
STACK CFI 2c73c .cfa: sp 176 +
STACK CFI 2c758 .cfa: x29 80 + x19: .cfa -8 + ^ x20: .cfa -16 + ^ x21: .cfa -24 + ^ x22: .cfa -32 + ^ x23: .cfa -40 + ^ x24: .cfa -48 + ^ x25: .cfa -56 + ^ x26: .cfa -64 + ^ .ra: .cfa -72 + ^ x29: .cfa -80 + ^ v8: .cfa -96 + ^
STACK CFI 2c7c8 .cfa: sp 176 +
STACK CFI 2c7e4 .cfa: sp 0 +
STACK CFI 2c7e8 .cfa: x29 80 +
STACK CFI INIT 2c8b4 5ac .cfa: sp 0 +
STACK CFI 2c8b8 .cfa: sp 128 +
STACK CFI 2c8d0 .cfa: x29 80 + x19: .cfa -8 + ^ x20: .cfa -16 + ^ x21: .cfa -24 + ^ x22: .cfa -32 + ^ x23: .cfa -40 + ^ x24: .cfa -48 + ^ x25: .cfa -64 + ^ .ra: .cfa -72 + ^ x29: .cfa -80 + ^
STACK CFI 2cdcc .cfa: sp 128 +
STACK CFI 2cde4 .cfa: sp 0 +
STACK CFI 2cde8 .cfa: x29 80 +
STACK CFI INIT 2ce68 15c .cfa: sp 0 +
STACK CFI 2ce6c .cfa: sp 144 +
STACK CFI 2ce84 .cfa: x29 56 + x19: .cfa -8 + ^ x20: .cfa -16 + ^ x21: .cfa -24 + ^ x22: .cfa -32 + ^ x23: .cfa -40 + ^ .ra: .cfa -48 + ^ x29: .cfa -56 + ^ v8: .cfa -64 + ^
STACK CFI 2cedc .cfa: sp 144 +
STACK CFI 2cef4 .cfa: sp 0 +
STACK CFI 2cef8 .cfa: x29 56 +
STACK CFI INIT 2cfc4 2d4 .cfa: sp 0 +
STACK CFI 2cfc8 .cfa: sp 96 +
STACK CFI 2cfe0 .cfa: x29 80 + x19: .cfa -8 + ^ x20: .cfa -16 + ^ x21: .cfa -24 + ^ x22: .cfa -32 + ^ x23: .cfa -40 + ^ x24: .cfa -48 + ^ x25: .cfa -64 + ^ .ra: .cfa -72 + ^ x29: .cfa -80 + ^
STACK CFI 2d234 .cfa: sp 96 +
STACK CFI 2d24c .cfa: sp 0 +
STACK CFI 2d250 .cfa: x29 80 +
STACK CFI INIT 2d2a0 14c .cfa: sp 0 +
STACK CFI 2d2a4 .cfa: sp 144 +
STACK CFI 2d2b8 .cfa: x29 64 + x19: .cfa -8 + ^ x20: .cfa -16 + ^ x21: .cfa -24 + ^ x22: .cfa -32 + ^ x23: .cfa -48 + ^ .ra: .cfa -56 + ^ x29: .cfa -64 + ^
STACK CFI 2d308 .cfa: sp 144 +
STACK CFI 2d31c .cfa: sp 0 +
STACK CFI 2d320 .cfa: x29 64 +
STACK CFI INIT 2d3ec 108 .cfa: sp 0 +
STACK CFI 2d3f0 .cfa: sp 64 +
STACK CFI 2d400 .cfa: x29 48 + x19: .cfa -8 + ^ x20: .cfa -16 + ^ x21: .cfa -24 + ^ x22: .cfa -32 + ^ .ra: .cfa -40 + ^ x29: .cfa -48 + ^
STACK CFI 2d4ac .cfa: sp 64 +
STACK CFI 2d4bc .cfa: sp 0 +
STACK CFI 2d4c0 .cfa: x29 48 +
STACK CFI INIT 2d50c 164 .cfa: sp 0 +
STACK CFI 2d510 .cfa: sp 160 +
STACK CFI 2d528 .cfa: x29 80 + x19: .cfa -8 + ^ x20: .cfa -16 + ^ x21: .cfa -24 + ^ x22: .cfa -32 + ^ x23: .cfa -40 + ^ x24: .cfa -48 + ^ x25: .cfa -64 + ^ .ra: .cfa -72 + ^ x29: .cfa -80 + ^
STACK CFI 2d588 .cfa: sp 160 +
STACK CFI 2d5a0 .cfa: sp 0 +
STACK CFI 2d5a4 .cfa: x29 80 +
STACK CFI INIT 2d670 3d4 .cfa: sp 0 +
STACK CFI 2d674 .cfa: sp 96 +
STACK CFI 2d68c .cfa: x29 80 + x19: .cfa -8 + ^ x20: .cfa -16 + ^ x21: .cfa -24 + ^ x22: .cfa -32 + ^ x23: .cfa -40 + ^ x24: .cfa -48 + ^ x25: .cfa -64 + ^ .ra: .cfa -72 + ^ x29: .cfa -80 + ^
STACK CFI 2d9d0 .cfa: sp 96 +
STACK CFI 2d9e8 .cfa: sp 0 +
STACK CFI 2d9ec .cfa: x29 80 +
STACK CFI INIT 2da44 17c .cfa: sp 0 +
STACK CFI 2da48 .cfa: sp 176 +
STACK CFI 2da64 .cfa: x29 96 + x19: .cfa -8 + ^ x20: .cfa -16 + ^ x21: .cfa -24 + ^ x22: .cfa -32 + ^ x23: .cfa -40 + ^ x24: .cfa -48 + ^ x25: .cfa -56 + ^ x26: .cfa -64 + ^ x27: .cfa -80 + ^ .ra: .cfa -88 + ^ x29: .cfa -96 + ^
STACK CFI 2dad4 .cfa: sp 176 +
STACK CFI 2daf0 .cfa: sp 0 +
STACK CFI 2daf4 .cfa: x29 96 +
STACK CFI INIT 2dbc0 5d4 .cfa: sp 0 +
STACK CFI 2dbc4 .cfa: sp 96 +
STACK CFI 2dbdc .cfa: x29 80 + x19: .cfa -8 + ^ x20: .cfa -16 + ^ x21: .cfa -24 + ^ x22: .cfa -32 + ^ x23: .cfa -40 + ^ x24: .cfa -48 + ^ x25: .cfa -64 + ^ .ra: .cfa -72 + ^ x29: .cfa -80 + ^
STACK CFI 2e100 .cfa: sp 96 +
STACK CFI 2e118 .cfa: sp 0 +
STACK CFI 2e11c .cfa: x29 80 +
STACK CFI INIT 2e194 14c .cfa: sp 0 +
STACK CFI 2e198 .cfa: sp 144 +
STACK CFI 2e1ac .cfa: x29 64 + x19: .cfa -8 + ^ x20: .cfa -16 + ^ x21: .cfa -24 + ^ x22: .cfa -32 + ^ x23: .cfa -48 + ^ .ra: .cfa -56 + ^ x29: .cfa -64 + ^
STACK CFI 2e1fc .cfa: sp 144 +
STACK CFI 2e210 .cfa: sp 0 +
STACK CFI 2e214 .cfa: x29 64 +
STACK CFI INIT 2e2e0 108 .cfa: sp 0 +
STACK CFI 2e2e4 .cfa: sp 64 +
STACK CFI 2e2f4 .cfa: x29 48 + x19: .cfa -8 + ^ x20: .cfa -16 + ^ x21: .cfa -24 + ^ x22: .cfa -32 + ^ .ra: .cfa -40 + ^ x29: .cfa -48 + ^
STACK CFI 2e3a0 .cfa: sp 64 +
STACK CFI 2e3b0 .cfa: sp 0 +
STACK CFI 2e3b4 .cfa: x29 48 +
STACK CFI INIT 2e3e8 32c .cfa: sp 0 +
STACK CFI 2e3ec .cfa: sp 144 +
STACK CFI 2e400 .cfa: x29 64 + x19: .cfa -8 + ^ x20: .cfa -16 + ^ x21: .cfa -24 + ^ x22: .cfa -32 + ^ x23: .cfa -48 + ^ .ra: .cfa -56 + ^ x29: .cfa -64 + ^
STACK CFI 2e5c0 .cfa: sp 144 +
STACK CFI 2e5d4 .cfa: sp 0 +
STACK CFI 2e5d8 .cfa: x29 64 +
STACK CFI INIT 2e768 14c .cfa: sp 0 +
STACK CFI 2e76c .cfa: sp 144 +
STACK CFI 2e780 .cfa: x29 64 + x19: .cfa -8 + ^ x20: .cfa -16 + ^ x21: .cfa -24 + ^ x22: .cfa -32 + ^ x23: .cfa -48 + ^ .ra: .cfa -56 + ^ x29: .cfa -64 + ^
STACK CFI 2e7d0 .cfa: sp 144 +
STACK CFI 2e7e4 .cfa: sp 0 +
STACK CFI 2e7e8 .cfa: x29 64 +
STACK CFI INIT 2e8b4 108 .cfa: sp 0 +
STACK CFI 2e8b8 .cfa: sp 64 +
STACK CFI 2e8c8 .cfa: x29 48 + x19: .cfa -8 + ^ x20: .cfa -16 + ^ x21: .cfa -24 + ^ x22: .cfa -32 + ^ .ra: .cfa -40 + ^ x29: .cfa -48 + ^
STACK CFI 2e974 .cfa: sp 64 +
STACK CFI 2e984 .cfa: sp 0 +
STACK CFI 2e988 .cfa: x29 48 +
STACK CFI INIT 2e9d0 2a0 .cfa: sp 0 +
STACK CFI 2e9d4 .cfa: sp 144 +
STACK CFI 2e9e8 .cfa: x29 64 + x19: .cfa -8 + ^ x20: .cfa -16 + ^ x21: .cfa -24 + ^ x22: .cfa -32 + ^ x23: .cfa -48 + ^ .ra: .cfa -56 + ^ x29: .cfa -64 + ^
STACK CFI 2eb1c .cfa: sp 144 +
STACK CFI 2eb30 .cfa: sp 0 +
STACK CFI 2eb34 .cfa: x29 64 +
STACK CFI INIT 2ec70 2f0 .cfa: sp 0 +
STACK CFI 2ec74 .cfa: sp 144 +
STACK CFI 2ec88 .cfa: x29 64 + x19: .cfa -8 + ^ x20: .cfa -16 + ^ x21: .cfa -24 + ^ x22: .cfa -32 + ^ x23: .cfa -48 + ^ .ra: .cfa -56 + ^ x29: .cfa -64 + ^
STACK CFI 2ee0c .cfa: sp 144 +
STACK CFI 2ee20 .cfa: sp 0 +
STACK CFI 2ee24 .cfa: x29 64 +
STACK CFI INIT 2ef60 4f4 .cfa: sp 0 +
STACK CFI 2ef64 .cfa: sp 144 +
STACK CFI 2ef78 .cfa: x29 64 + x19: .cfa -8 + ^ x20: .cfa -16 + ^ x21: .cfa -24 + ^ x22: .cfa -32 + ^ x23: .cfa -48 + ^ .ra: .cfa -56 + ^ x29: .cfa -64 + ^
STACK CFI 2f2ac .cfa: sp 144 +
STACK CFI 2f2c0 .cfa: sp 0 +
STACK CFI 2f2c4 .cfa: x29 64 +
STACK CFI INIT 2f454 154 .cfa: sp 0 +
STACK CFI 2f458 .cfa: sp 384 +
STACK CFI 2f46c .cfa: x29 64 + x19: .cfa -8 + ^ x20: .cfa -16 + ^ x21: .cfa -24 + ^ x22: .cfa -32 + ^ x23: .cfa -40 + ^ x28: .cfa -48 + ^ .ra: .cfa -56 + ^ x29: .cfa -64 + ^
STACK CFI 2f550 .cfa: sp 384 +
STACK CFI 2f564 .cfa: sp 0 +
STACK CFI 2f568 .cfa: x29 64 +
STACK CFI INIT 2f5a8 168 .cfa: sp 0 +
STACK CFI 2f5ac .cfa: sp 384 +
STACK CFI 2f5c0 .cfa: x29 64 + x19: .cfa -8 + ^ x20: .cfa -16 + ^ x21: .cfa -24 + ^ x22: .cfa -32 + ^ x23: .cfa -40 + ^ x28: .cfa -48 + ^ .ra: .cfa -56 + ^ x29: .cfa -64 + ^
STACK CFI 2f6b8 .cfa: sp 384 +
STACK CFI 2f6cc .cfa: sp 0 +
STACK CFI 2f6d0 .cfa: x29 64 +
STACK CFI INIT 2f728 50c .cfa: sp 0 +
STACK CFI 2f72c .cfa: sp 64 +
STACK CFI 2f73c .cfa: x29 64 + x19: .cfa -8 + ^ x20: .cfa -16 + ^ x21: .cfa -24 + ^ x22: .cfa -32 + ^ x23: .cfa -40 + ^ x24: .cfa -48 + ^ .ra: .cfa -56 + ^ x29: .cfa -64 + ^
STACK CFI 2f85c .cfa: sp 64 +
STACK CFI 2f86c .cfa: sp 0 +
STACK CFI 2f870 .cfa: x29 64 +
STACK CFI 2fc08 .cfa: sp 64 +
STACK CFI 2fc18 .cfa: sp 0 +
STACK CFI 2fc1c .cfa: x29 64 +
STACK CFI INIT 2ff64 294 .cfa: sp 0 +
STACK CFI 2ff68 .cfa: sp 240 +
STACK CFI 2ff80 .cfa: x29 80 + x19: .cfa -8 + ^ x20: .cfa -16 + ^ x21: .cfa -24 + ^ x22: .cfa -32 + ^ x23: .cfa -40 + ^ x24: .cfa -48 + ^ x25: .cfa -64 + ^ .ra: .cfa -72 + ^ x29: .cfa -80 + ^
STACK CFI 30120 .cfa: sp 240 +
STACK CFI 30138 .cfa: sp 0 +
STACK CFI 3013c .cfa: x29 80 +
STACK CFI INIT 30274 50 .cfa: sp 0 +
STACK CFI 30278 .cfa: sp 32 +
STACK CFI 30280 .cfa: x29 32 + x19: .cfa -8 + ^ x20: .cfa -16 + ^ .ra: .cfa -24 + ^ x29: .cfa -32 + ^
STACK CFI INIT 302f0 7c0 .cfa: sp 0 +
STACK CFI 302f4 .cfa: sp 320 +
STACK CFI 30310 .cfa: x29 96 + x19: .cfa -8 + ^ x20: .cfa -16 + ^ x21: .cfa -24 + ^ x22: .cfa -32 + ^ x23: .cfa -40 + ^ x24: .cfa -48 + ^ x25: .cfa -56 + ^ x26: .cfa -64 + ^ x27: .cfa -72 + ^ x28: .cfa -80 + ^ .ra: .cfa -88 + ^ x29: .cfa -96 + ^
STACK CFI 30960 .cfa: sp 320 +
STACK CFI 3097c .cfa: sp 0 +
STACK CFI 30980 .cfa: x29 96 +
STACK CFI INIT 34e30 c74 .cfa: sp 0 +
STACK CFI 34e34 .cfa: sp 96 +
STACK CFI 34e4c .cfa: x29 96 + x19: .cfa -8 + ^ x20: .cfa -16 + ^ x21: .cfa -24 + ^ x22: .cfa -32 + ^ x23: .cfa -40 + ^ x24: .cfa -48 + ^ x25: .cfa -56 + ^ x26: .cfa -64 + ^ x27: .cfa -72 + ^ x28: .cfa -80 + ^ .ra: .cfa -88 + ^ x29: .cfa -96 + ^
STACK CFI 358c4 .cfa: sp 96 +
STACK CFI 358dc .cfa: sp 0 +
STACK CFI 358e0 .cfa: x29 96 +
STACK CFI INIT 35bf8 26c .cfa: sp 0 +
STACK CFI 35bfc .cfa: sp 128 +
STACK CFI 35c0c .cfa: x29 48 + x19: .cfa -8 + ^ x20: .cfa -16 + ^ x21: .cfa -24 + ^ x22: .cfa -32 + ^ .ra: .cfa -40 + ^ x29: .cfa -48 + ^
STACK CFI 35db0 .cfa: sp 128 +
STACK CFI 35dc0 .cfa: sp 0 +
STACK CFI 35dc4 .cfa: x29 48 +
STACK CFI INIT 361f4 3b8 .cfa: sp 0 +
STACK CFI 361f8 .cfa: sp 96 +
STACK CFI 36210 .cfa: x29 96 + x19: .cfa -8 + ^ x20: .cfa -16 + ^ x21: .cfa -24 + ^ x22: .cfa -32 + ^ x23: .cfa -40 + ^ x24: .cfa -48 + ^ x25: .cfa -56 + ^ x26: .cfa -64 + ^ x27: .cfa -72 + ^ x28: .cfa -80 + ^ .ra: .cfa -88 + ^ x29: .cfa -96 + ^
STACK CFI 3654c .cfa: sp 96 +
STACK CFI 36564 .cfa: sp 0 +
STACK CFI 36568 .cfa: x29 96 +
STACK CFI INIT 3664c cb4 .cfa: sp 0 +
STACK CFI 36650 .cfa: sp 96 +
STACK CFI 36668 .cfa: x29 96 + x19: .cfa -8 + ^ x20: .cfa -16 + ^ x21: .cfa -24 + ^ x22: .cfa -32 + ^ x23: .cfa -40 + ^ x24: .cfa -48 + ^ x25: .cfa -56 + ^ x26: .cfa -64 + ^ x27: .cfa -72 + ^ x28: .cfa -80 + ^ .ra: .cfa -88 + ^ x29: .cfa -96 + ^
STACK CFI 37110 .cfa: sp 96 +
STACK CFI 37128 .cfa: sp 0 +
STACK CFI 3712c .cfa: x29 96 +
STACK CFI INIT 375e8 afc .cfa: sp 0 +
STACK CFI 375ec .cfa: sp 96 +
STACK CFI 37604 .cfa: x29 96 + x19: .cfa -8 + ^ x20: .cfa -16 + ^ x21: .cfa -24 + ^ x22: .cfa -32 + ^ x23: .cfa -40 + ^ x24: .cfa -48 + ^ x25: .cfa -56 + ^ x26: .cfa -64 + ^ x27: .cfa -72 + ^ x28: .cfa -80 + ^ .ra: .cfa -88 + ^ x29: .cfa -96 + ^
STACK CFI 38058 .cfa: sp 96 +
STACK CFI 38070 .cfa: sp 0 +
STACK CFI 38074 .cfa: x29 96 +
STACK CFI INIT 382c0 1430 .cfa: sp 0 +
STACK CFI 382c4 .cfa: sp 96 +
STACK CFI 382dc .cfa: x29 96 + x19: .cfa -8 + ^ x20: .cfa -16 + ^ x21: .cfa -24 + ^ x22: .cfa -32 + ^ x23: .cfa -40 + ^ x24: .cfa -48 + ^ x25: .cfa -56 + ^ x26: .cfa -64 + ^ x27: .cfa -72 + ^ x28: .cfa -80 + ^ .ra: .cfa -88 + ^ x29: .cfa -96 + ^
STACK CFI 39578 .cfa: sp 96 +
STACK CFI 39590 .cfa: sp 0 +
STACK CFI 39594 .cfa: x29 96 +
STACK CFI INIT 39814 75c .cfa: sp 0 +
STACK CFI 39818 .cfa: sp 368 +
STACK CFI 39834 .cfa: x29 96 + x19: .cfa -8 + ^ x20: .cfa -16 + ^ x21: .cfa -24 + ^ x22: .cfa -32 + ^ x23: .cfa -40 + ^ x24: .cfa -48 + ^ x25: .cfa -56 + ^ x26: .cfa -64 + ^ x27: .cfa -72 + ^ x28: .cfa -80 + ^ .ra: .cfa -88 + ^ x29: .cfa -96 + ^
STACK CFI 398e8 .cfa: sp 368 +
STACK CFI 39904 .cfa: sp 0 +
STACK CFI 39908 .cfa: x29 96 +
STACK CFI 3995c .cfa: sp 368 +
STACK CFI 39978 .cfa: sp 0 +
STACK CFI 3997c .cfa: x29 96 +
STACK CFI INIT 3a330 eb0 .cfa: sp 0 +
STACK CFI 3a334 .cfa: sp 96 +
STACK CFI 3a34c .cfa: x29 96 + x19: .cfa -8 + ^ x20: .cfa -16 + ^ x21: .cfa -24 + ^ x22: .cfa -32 + ^ x23: .cfa -40 + ^ x24: .cfa -48 + ^ x25: .cfa -56 + ^ x26: .cfa -64 + ^ x27: .cfa -72 + ^ x28: .cfa -80 + ^ .ra: .cfa -88 + ^ x29: .cfa -96 + ^
STACK CFI 3aff4 .cfa: sp 96 +
STACK CFI 3b00c .cfa: sp 0 +
STACK CFI 3b010 .cfa: x29 96 +
STACK CFI INIT 3b554 1c9c .cfa: sp 0 +
STACK CFI 3b558 .cfa: sp 112 +
STACK CFI 3b574 .cfa: x29 96 + x19: .cfa -8 + ^ x20: .cfa -16 + ^ x21: .cfa -24 + ^ x22: .cfa -32 + ^ x23: .cfa -40 + ^ x24: .cfa -48 + ^ x25: .cfa -56 + ^ x26: .cfa -64 + ^ x27: .cfa -72 + ^ x28: .cfa -80 + ^ .ra: .cfa -88 + ^ x29: .cfa -96 + ^ v8: .cfa -112 + ^
STACK CFI 3b95c .cfa: sp 112 +
STACK CFI 3b978 .cfa: sp 0 +
STACK CFI 3b97c .cfa: x29 96 +
STACK CFI INIT 3f9b4 9a0 .cfa: sp 0 +
STACK CFI 3f9b8 .cfa: sp 144 +
STACK CFI 3f9d0 .cfa: x29 80 + x19: .cfa -8 + ^ x20: .cfa -16 + ^ x21: .cfa -24 + ^ x22: .cfa -32 + ^ x23: .cfa -40 + ^ x24: .cfa -48 + ^ x25: .cfa -64 + ^ .ra: .cfa -72 + ^ x29: .cfa -80 + ^
STACK CFI 402d0 .cfa: sp 144 +
STACK CFI 402e8 .cfa: sp 0 +
STACK CFI 402ec .cfa: x29 80 +
STACK CFI INIT 41878 57c .cfa: sp 0 +
STACK CFI 4187c .cfa: sp 96 +
STACK CFI 41894 .cfa: x29 96 + x19: .cfa -8 + ^ x20: .cfa -16 + ^ x21: .cfa -24 + ^ x22: .cfa -32 + ^ x23: .cfa -40 + ^ x24: .cfa -48 + ^ x25: .cfa -56 + ^ x26: .cfa -64 + ^ x27: .cfa -72 + ^ x28: .cfa -80 + ^ .ra: .cfa -88 + ^ x29: .cfa -96 + ^
STACK CFI 41d58 .cfa: sp 96 +
STACK CFI 41d70 .cfa: sp 0 +
STACK CFI 41d74 .cfa: x29 96 +
STACK CFI INIT 41df4 67c .cfa: sp 0 +
STACK CFI 41df8 .cfa: sp 96 +
STACK CFI 41e10 .cfa: x29 96 + x19: .cfa -8 + ^ x20: .cfa -16 + ^ x21: .cfa -24 + ^ x22: .cfa -32 + ^ x23: .cfa -40 + ^ x24: .cfa -48 + ^ x25: .cfa -56 + ^ x26: .cfa -64 + ^ x27: .cfa -72 + ^ x28: .cfa -80 + ^ .ra: .cfa -88 + ^ x29: .cfa -96 + ^
STACK CFI 423d4 .cfa: sp 96 +
STACK CFI 423ec .cfa: sp 0 +
STACK CFI 423f0 .cfa: x29 96 +
