MODULE Linux arm64 B2C484E7498AC4F1E029C74D928049290 raydeeux.neutralizebadsongs.android64.so
INFO CODE_ID E784C4B28A49F1C4E029C74D928049293074D39C
INFO GENERATOR mozilla/dump_syms 2.3.4
PUBLIC 122f0 0 __on_dlclose
PUBLIC 12300 0 __emutls_unregister_key
PUBLIC 12308 0 __on_dlclose_late
PUBLIC 12310 0 __atexit_handler_wrapper
PUBLIC 12324 0 atexit
PUBLIC 12340 0 pthread_atfork
PUBLIC 12350 0 __aarch64_ldadd8_relax
PUBLIC 12380 0 init_have_lse_atomics
PUBLIC 12418 0 __init_cpu_features_constructor
PUBLIC 129b4 0 __init_cpu_features
PUBLIC 12a40 0 __aarch64_ldadd8_acq_rel
PUBLIC 12a70 0 MyButtonSettingV3::createNode(float)
PUBLIC 13284 0 std::__ndk1::shared_ptr<MyButtonSettingV3>::~shared_ptr[abi:ne180000]()
PUBLIC 132d4 0 std::__ndk1::shared_ptr<geode::SettingV3>::~shared_ptr[abi:ne180000]()
PUBLIC 13324 0 MyButtonSettingV3::~MyButtonSettingV3()
PUBLIC 13348 0 MyButtonSettingV3::load(matjson::Value const&)
PUBLIC 13350 0 MyButtonSettingV3::save(matjson::Value&) const
PUBLIC 13358 0 MyButtonSettingV3::isDefaultValue() const
PUBLIC 13360 0 MyButtonSettingV3::reset()
PUBLIC 13364 0 cocos2d::CCCopying::copyWithZone(cocos2d::CCZone*)
PUBLIC 1336c 0 MyButtonSettingNodeV3::~MyButtonSettingNodeV3()
PUBLIC 13428 0 MyButtonSettingNodeV3::~MyButtonSettingNodeV3()
PUBLIC 134f4 0 MyButtonSettingNodeV3::onCommit()
PUBLIC 134f8 0 MyButtonSettingNodeV3::onResetToDefault()
PUBLIC 134fc 0 MyButtonSettingNodeV3::hasUncommittedChanges() const
PUBLIC 13504 0 MyButtonSettingNodeV3::hasNonDefaultValue() const
PUBLIC 1350c 0 __clang_call_terminate
PUBLIC 1351c 0 MyButtonSettingNodeV3::onSettingsButton(cocos2d::CCObject*)
PUBLIC 137c4 0 std::__ndk1::__throw_bad_optional_access[abi:ne180000]()
PUBLIC 137f8 0 std::__ndk1::__throw_bad_weak_ptr[abi:ne180000]()
PUBLIC 1382c 0 Utils::getBool(std::__ndk1::basic_string<char, std::__ndk1::char_traits<char>, std::__ndk1::allocator<char> > const&)
PUBLIC 1387c 0 Utils::getString(std::__ndk1::basic_string<char, std::__ndk1::char_traits<char>, std::__ndk1::allocator<char> > const&, bool)
PUBLIC 13a90 0 Utils::modEnabled()
PUBLIC 13b60 0 Utils::isIDFromJukebox(int const&, MusicDownloadManager*)
PUBLIC 13ccc 0 Utils::isBadArtist(std::__ndk1::basic_string<char, std::__ndk1::char_traits<char>, std::__ndk1::allocator<char> > const&, Manager*)
PUBLIC 13ddc 0 Utils::isInNeitherBanList(int const&, std::__ndk1::basic_string<char, std::__ndk1::char_traits<char>, std::__ndk1::allocator<char> > const&)
PUBLIC 13ee4 0 Utils::showAlert(std::__ndk1::basic_string<char, std::__ndk1::char_traits<char>, std::__ndk1::allocator<char> > const&, std::__ndk1::basic_string<char, std::__ndk1::char_traits<char>, std::__ndk1::allocator<char> > const&)
PUBLIC 141ec 0 Utils::addBadSongID(int const&, std::__ndk1::basic_string_view<char, std::__ndk1::char_traits<char> >, Manager*)
PUBLIC 14da8 0 Utils::addBadArtist(int const&, std::__ndk1::basic_string<char, std::__ndk1::char_traits<char>, std::__ndk1::allocator<char> > const&, std::__ndk1::basic_string_view<char, std::__ndk1::char_traits<char> >, bool const&, Manager*)
PUBLIC 15b40 0 Utils::addDirToReplacementSongPool(std::__ndk1::vector<std::__ndk1::basic_string<char, std::__ndk1::char_traits<char>, std::__ndk1::allocator<char> >, std::__ndk1::allocator<std::__ndk1::basic_string<char, std::__ndk1::char_traits<char>, std::__ndk1::allocator<char> > > >&, std::__ndk1::__fs::filesystem::path const&)
PUBLIC 15f88 0 std::__ndk1::__fs::filesystem::directory_iterator::~directory_iterator[abi:ne180000]()
PUBLIC 15fd8 0 Utils::refreshReplacementPool(Manager*)
PUBLIC 1628c 0 Utils::readTextFiles(Manager*)
PUBLIC m 174dc 0 std::__ndk1::basic_ifstream<char, std::__ndk1::char_traits<char> >::~basic_ifstream()
PUBLIC 1752c 0 Utils::randomSongFromConfigDir(Manager*)
PUBLIC 17ae4 0 std::__ndk1::basic_string<char, std::__ndk1::char_traits<char>, std::__ndk1::allocator<char> >::__throw_length_error[abi:ne180000]() const
PUBLIC 17af8 0 std::__ndk1::__throw_length_error[abi:ne180000](char const*)
PUBLIC 17b48 0 std::length_error::length_error[abi:ne180000](char const*)
PUBLIC 17b78 0 std::__throw_bad_array_new_length([abi:ne180000], void)
PUBLIC 17bac 0 std::__ndk1::vector<int, std::__ndk1::allocator<int> >::__throw_length_error[abi:ne180000]() const
PUBLIC 17bc0 0 std::__ndk1::vector<std::__ndk1::basic_string<char, std::__ndk1::char_traits<char>, std::__ndk1::allocator<char> >, std::__ndk1::allocator<std::__ndk1::basic_string<char, std::__ndk1::char_traits<char>, std::__ndk1::allocator<char> > > >::__push_back_slow_path<std::__ndk1::basic_string<char, std::__ndk1::char_traits<char>, std::__ndk1::allocator<char> > const&>(std::__ndk1::basic_string<char, std::__ndk1::char_traits<char>, std::__ndk1::allocator<char> > const&)
PUBLIC 17de8 0 std::__ndk1::__split_buffer<std::__ndk1::basic_string<char, std::__ndk1::char_traits<char>, std::__ndk1::allocator<char> >, std::__ndk1::allocator<std::__ndk1::basic_string<char, std::__ndk1::char_traits<char>, std::__ndk1::allocator<char> > >&>::~__split_buffer()
PUBLIC 17e50 0 std::__ndk1::vector<std::__ndk1::basic_string<char, std::__ndk1::char_traits<char>, std::__ndk1::allocator<char> >, std::__ndk1::allocator<std::__ndk1::basic_string<char, std::__ndk1::char_traits<char>, std::__ndk1::allocator<char> > > >::__throw_length_error[abi:ne180000]() const
PUBLIC 17e64 0 std::__ndk1::basic_string<char, std::__ndk1::char_traits<char>, std::__ndk1::allocator<char> >::__init_copy_ctor_external(char const*, unsigned long)
PUBLIC 17ee4 0 std::__ndk1::__fs::filesystem::path::operator/=[abi:ne180000](std::__ndk1::__fs::filesystem::path const&)
PUBLIC 17fcc 0 std::__ndk1::basic_string<char, std::__ndk1::char_traits<char>, std::__ndk1::allocator<char> >::__assign_no_alias<true>(char const*, unsigned long)
PUBLIC 18078 0 std::__ndk1::basic_string<char, std::__ndk1::char_traits<char>, std::__ndk1::allocator<char> >::__assign_no_alias<false>(char const*, unsigned long)
PUBLIC 18188 0 std::__ndk1::__variant_detail::__visitation::__base::__dispatcher<(unsigned long)0>::__dispatch[abi:ne180000]<std::__ndk1::__variant_detail::__dtor<std::__ndk1::__variant_detail::__traits<std::__ndk1::monostate, std::__ndk1::basic_string<char, std::__ndk1::char_traits<char>, std::__ndk1::allocator<char> > >, (std::__ndk1::__variant_detail::_Trait)1>::__destroy[abi:ne180000]()::{lambda(auto:1&)#1}, std::__ndk1::__variant_detail::__base<(std::__ndk1::__variant_detail::__traits<std::__ndk1::monostate, std::__ndk1::basic_string<char, std::__ndk1::char_traits<char>, std::__ndk1::allocator<char> > >)1, std::__ndk1::__variant_detail::__traits, std::__ndk1::allocator<char> >&>(std::__ndk1::__variant_detail::__dtor<std::__ndk1::__variant_detail::__traits<std::__ndk1::monostate, std::__ndk1::basic_string<char, std::__ndk1::char_traits<char>, std::__ndk1::allocator<char> > >, (std::__ndk1::__variant_detail::_Trait)1>, std::__ndk1::__variant_detail::__base<(std::__ndk1::__variant_detail::__traits<std::__ndk1::monostate, std::__ndk1::basic_string<char, std::__ndk1::char_traits<char>, std::__ndk1::allocator<char> > >)1, std::__ndk1::__variant_detail::__traits, std::__ndk1::allocator<char> >&)
PUBLIC 1818c 0 std::__ndk1::__variant_detail::__visitation::__base::__dispatcher<(unsigned long)1>::__dispatch[abi:ne180000]<std::__ndk1::__variant_detail::__dtor<std::__ndk1::__variant_detail::__traits<std::__ndk1::monostate, std::__ndk1::basic_string<char, std::__ndk1::char_traits<char>, std::__ndk1::allocator<char> > >, (std::__ndk1::__variant_detail::_Trait)1>::__destroy[abi:ne180000]()::{lambda(auto:1&)#1}, std::__ndk1::__variant_detail::__base<(std::__ndk1::__variant_detail::__traits<std::__ndk1::monostate, std::__ndk1::basic_string<char, std::__ndk1::char_traits<char>, std::__ndk1::allocator<char> > >)1, std::__ndk1::__variant_detail::__traits, std::__ndk1::allocator<char> >&>(std::__ndk1::__variant_detail::__dtor<std::__ndk1::__variant_detail::__traits<std::__ndk1::monostate, std::__ndk1::basic_string<char, std::__ndk1::char_traits<char>, std::__ndk1::allocator<char> > >, (std::__ndk1::__variant_detail::_Trait)1>, std::__ndk1::__variant_detail::__base<(std::__ndk1::__variant_detail::__traits<std::__ndk1::monostate, std::__ndk1::basic_string<char, std::__ndk1::char_traits<char>, std::__ndk1::allocator<char> > >)1, std::__ndk1::__variant_detail::__traits, std::__ndk1::allocator<char> >&)
PUBLIC 181a0 0 std::__ndk1::__variant_detail::__visitation::__base::__dispatcher<(unsigned long)0>::__dispatch[abi:ne180000]<std::__ndk1::__variant_detail::__dtor<std::__ndk1::__variant_detail::__traits<int, std::__ndk1::basic_string<char, std::__ndk1::char_traits<char>, std::__ndk1::allocator<char> > >, (std::__ndk1::__variant_detail::_Trait)1>::__destroy[abi:ne180000]()::{lambda(auto:1&)#1}, std::__ndk1::__variant_detail::__base<(std::__ndk1::__variant_detail::__traits<int, std::__ndk1::basic_string<char, std::__ndk1::char_traits<char>, std::__ndk1::allocator<char> > >)1, int, std::__ndk1::allocator<char> >&>(std::__ndk1::__variant_detail::__dtor<std::__ndk1::__variant_detail::__traits<int, std::__ndk1::basic_string<char, std::__ndk1::char_traits<char>, std::__ndk1::allocator<char> > >, (std::__ndk1::__variant_detail::_Trait)1>, std::__ndk1::__variant_detail::__base<(std::__ndk1::__variant_detail::__traits<int, std::__ndk1::basic_string<char, std::__ndk1::char_traits<char>, std::__ndk1::allocator<char> > >)1, int, std::__ndk1::allocator<char> >&)
PUBLIC 181a4 0 std::__ndk1::__variant_detail::__visitation::__base::__dispatcher<(unsigned long)1>::__dispatch[abi:ne180000]<std::__ndk1::__variant_detail::__dtor<std::__ndk1::__variant_detail::__traits<int, std::__ndk1::basic_string<char, std::__ndk1::char_traits<char>, std::__ndk1::allocator<char> > >, (std::__ndk1::__variant_detail::_Trait)1>::__destroy[abi:ne180000]()::{lambda(auto:1&)#1}, std::__ndk1::__variant_detail::__base<(std::__ndk1::__variant_detail::__traits<int, std::__ndk1::basic_string<char, std::__ndk1::char_traits<char>, std::__ndk1::allocator<char> > >)1, int, std::__ndk1::allocator<char> >&>(std::__ndk1::__variant_detail::__dtor<std::__ndk1::__variant_detail::__traits<int, std::__ndk1::basic_string<char, std::__ndk1::char_traits<char>, std::__ndk1::allocator<char> > >, (std::__ndk1::__variant_detail::_Trait)1>, std::__ndk1::__variant_detail::__base<(std::__ndk1::__variant_detail::__traits<int, std::__ndk1::basic_string<char, std::__ndk1::char_traits<char>, std::__ndk1::allocator<char> > >)1, int, std::__ndk1::allocator<char> >&)
PUBLIC 181b8 0 geode::Mod::getSettingValue<bool>(std::__ndk1::basic_string_view<char, std::__ndk1::char_traits<char> >) const
PUBLIC 182ec 0 geode::cast::traverseTypeinfoFor(void*, geode::cast::ClassTypeinfoType const*, char const*)
PUBLIC 183f0 0 std::__ndk1::shared_ptr<geode::StringSettingV3>::~shared_ptr[abi:ne180000]()
PUBLIC 18440 0 std::__ndk1::shared_ptr<geode::FileSettingV3>::~shared_ptr[abi:ne180000]()
PUBLIC m 18490 0 std::__ndk1::basic_ofstream<char, std::__ndk1::char_traits<char> >::~basic_ofstream()
PUBLIC 184e0 0 _ZNSt6__ndk112basic_stringIcNS_11char_traitsIcEENS_9allocatorIcEEE6appendB8ne180000IPKcTnNS_9enable_ifIXsr31__has_forward_iterator_categoryIT_EE5valueEiE4typeELi0EEERS5_SA_SA_
PUBLIC 187e4 0 std::__ndk1::__put_character_sequence[abi:ne180000]<char, std::__ndk1::char_traits<char> >(std::__ndk1::basic_ostream<char, std::__ndk1::char_traits<char> >, std::__ndk1::basic_ostream const*, unsigned long)
PUBLIC 18988 0 std::__ndk1::__pad_and_output[abi:ne180000]<char, std::__ndk1::char_traits<char> >(std::__ndk1::char_traits<char>, std::__ndk1::ostreambuf_iterator const*, std::__ndk1::ostreambuf_iterator const, std::__ndk1::ostreambuf_iterator const, std::__ndk1::ios_base&, std::__ndk1::ostreambuf_iterator)
PUBLIC 18b64 0 std::__ndk1::__tree<std::__ndk1::__value_type<int, std::__ndk1::basic_string<char, std::__ndk1::char_traits<char>, std::__ndk1::allocator<char> > >, std::__ndk1::__map_value_compare<int, std::__ndk1::__value_type<int, std::__ndk1::basic_string<char, std::__ndk1::char_traits<char>, std::__ndk1::allocator<char> > >, std::__ndk1::less<int>, true>, std::__ndk1::allocator<std::__ndk1::__value_type<int, std::__ndk1::basic_string<char, std::__ndk1::char_traits<char>, std::__ndk1::allocator<char> > > > >::destroy(std::__ndk1::__tree_node<std::__ndk1::__value_type<int, std::__ndk1::basic_string<char, std::__ndk1::char_traits<char>, std::__ndk1::allocator<char> > >, void*>*)
PUBLIC 18bb4 0 std::__ndk1::basic_ifstream<char, std::__ndk1::char_traits<char> >::basic_ifstream(char const*, unsigned int)
PUBLIC 18cc4 0 std::__ndk1::getline[abi:ne180000]<char, std::__ndk1::char_traits<char>, std::__ndk1::allocator<char> >(std::__ndk1::basic_istream<char, std::__ndk1::char_traits<char> >, std::__ndk1::basic_string<std::__ndk1::basic_istream, char, std::__ndk1::allocator<char> >&, std::__ndk1::basic_istream)
PUBLIC 18e78 0 geodeExecFunction13<(anonymous namespace)::ExecFuncUnique13>(geode::ModStateEvent*)
PUBLIC 194bc 0 __cxx_global_var_init.1
PUBLIC 19ab4 0 geode::modifier::ModifyBase<geode::modifier::ModifyDerive<MyMusicDownloadManager, MusicDownloadManager> >::~ModifyBase()
PUBLIC 19acc 0 __cxx_global_var_init.2
PUBLIC 19fc8 0 geode::modifier::ModifyBase<geode::modifier::ModifyDerive<MyCustomSongWidget, CustomSongWidget> >::~ModifyBase()
PUBLIC 19fe0 0 __cxx_global_var_init.3
PUBLIC 1a464 0 geode::modifier::ModifyBase<geode::modifier::ModifyDerive<MyPlayLayer, PlayLayer> >::~ModifyBase()
PUBLIC 1a47c 0 MyButtonSettingV3::parse(std::__ndk1::basic_string<char, std::__ndk1::char_traits<char>, std::__ndk1::allocator<char> > const&, std::__ndk1::basic_string<char, std::__ndk1::char_traits<char>, std::__ndk1::allocator<char> > const&, matjson::Value const&)
PUBLIC 1a800 0 geode::impl::ResultData<void, std::__ndk1::basic_string<char, std::__ndk1::char_traits<char>, std::__ndk1::allocator<char> > >::~ResultData()
PUBLIC 1a874 0 std::__ndk1::__shared_ptr_emplace<MyButtonSettingV3, std::__ndk1::allocator<MyButtonSettingV3> >::~__shared_ptr_emplace()
PUBLIC 1a884 0 std::__ndk1::__shared_ptr_emplace<MyButtonSettingV3, std::__ndk1::allocator<MyButtonSettingV3> >::~__shared_ptr_emplace()
PUBLIC 1a8b4 0 std::__ndk1::__shared_ptr_emplace<MyButtonSettingV3, std::__ndk1::allocator<MyButtonSettingV3> >::__on_zero_shared()
PUBLIC 1a8c0 0 std::__ndk1::__shared_ptr_emplace<MyButtonSettingV3, std::__ndk1::allocator<MyButtonSettingV3> >::__on_zero_shared_weak()
PUBLIC 1a8c4 0 std::__ndk1::__throw_bad_variant_access[abi:ne180000]()
PUBLIC 1a8f8 0 geode::UnwrapException::~UnwrapException()
PUBLIC 1a91c 0 std::__ndk1::__function::__base<geode::Result<std::__ndk1::shared_ptr<geode::SettingV3>, std::__ndk1::basic_string<char, std::__ndk1::char_traits<char>, std::__ndk1::allocator<char> > >(std::__ndk1::basic_string<char, std::__ndk1::char_traits<char>, std::__ndk1::allocator<char> > const&, std::__ndk1::basic_string<char, std::__ndk1::char_traits<char>, std::__ndk1::allocator<char> > const&, matjson::Value const&)>::~__base()
PUBLIC 1a920 0 std::__ndk1::__function::__func<geode::Result<std::__ndk1::shared_ptr<geode::SettingV3>, std::__ndk1::basic_string<char, std::__ndk1::char_traits<char>, std::__ndk1::allocator<char> > > (*)(std::__ndk1::basic_string<char, std::__ndk1::char_traits<char>, std::__ndk1::allocator<char> > const&, std::__ndk1::basic_string<char, std::__ndk1::char_traits<char>, std::__ndk1::allocator<char> > const&, matjson::Value const&), std::__ndk1::allocator<geode::Result<std::__ndk1::shared_ptr<geode::SettingV3>, std::__ndk1::basic_string<char, std::__ndk1::char_traits<char>, std::__ndk1::allocator<char> > > (*)(std::__ndk1::basic_string<char, std::__ndk1::char_traits<char>, std::__ndk1::allocator<char> > const&, std::__ndk1::basic_string<char, std::__ndk1::char_traits<char>, std::__ndk1::allocator<char> > const&, matjson::Value const&)>, geode::Result<std::__ndk1::shared_ptr<geode::SettingV3>, std::__ndk1::basic_string<char, std::__ndk1::char_traits<char>, std::__ndk1::allocator<char> > >(std::__ndk1::basic_string<char, std::__ndk1::char_traits<char>, std::__ndk1::allocator<char> > const&, std::__ndk1::basic_string<char, std::__ndk1::char_traits<char>, std::__ndk1::allocator<char> > const&, matjson::Value const&)>::~__func()
PUBLIC 1a924 0 std::__ndk1::__function::__func<geode::Result<std::__ndk1::shared_ptr<geode::SettingV3>, std::__ndk1::basic_string<char, std::__ndk1::char_traits<char>, std::__ndk1::allocator<char> > > (*)(std::__ndk1::basic_string<char, std::__ndk1::char_traits<char>, std::__ndk1::allocator<char> > const&, std::__ndk1::basic_string<char, std::__ndk1::char_traits<char>, std::__ndk1::allocator<char> > const&, matjson::Value const&), std::__ndk1::allocator<geode::Result<std::__ndk1::shared_ptr<geode::SettingV3>, std::__ndk1::basic_string<char, std::__ndk1::char_traits<char>, std::__ndk1::allocator<char> > > (*)(std::__ndk1::basic_string<char, std::__ndk1::char_traits<char>, std::__ndk1::allocator<char> > const&, std::__ndk1::basic_string<char, std::__ndk1::char_traits<char>, std::__ndk1::allocator<char> > const&, matjson::Value const&)>, geode::Result<std::__ndk1::shared_ptr<geode::SettingV3>, std::__ndk1::basic_string<char, std::__ndk1::char_traits<char>, std::__ndk1::allocator<char> > >(std::__ndk1::basic_string<char, std::__ndk1::char_traits<char>, std::__ndk1::allocator<char> > const&, std::__ndk1::basic_string<char, std::__ndk1::char_traits<char>, std::__ndk1::allocator<char> > const&, matjson::Value const&)>::__clone() const
PUBLIC 1a958 0 std::__ndk1::__function::__func<geode::Result<std::__ndk1::shared_ptr<geode::SettingV3>, std::__ndk1::basic_string<char, std::__ndk1::char_traits<char>, std::__ndk1::allocator<char> > > (*)(std::__ndk1::basic_string<char, std::__ndk1::char_traits<char>, std::__ndk1::allocator<char> > const&, std::__ndk1::basic_string<char, std::__ndk1::char_traits<char>, std::__ndk1::allocator<char> > const&, matjson::Value const&), std::__ndk1::allocator<geode::Result<std::__ndk1::shared_ptr<geode::SettingV3>, std::__ndk1::basic_string<char, std::__ndk1::char_traits<char>, std::__ndk1::allocator<char> > > (*)(std::__ndk1::basic_string<char, std::__ndk1::char_traits<char>, std::__ndk1::allocator<char> > const&, std::__ndk1::basic_string<char, std::__ndk1::char_traits<char>, std::__ndk1::allocator<char> > const&, matjson::Value const&)>, geode::Result<std::__ndk1::shared_ptr<geode::SettingV3>, std::__ndk1::basic_string<char, std::__ndk1::char_traits<char>, std::__ndk1::allocator<char> > >(std::__ndk1::basic_string<char, std::__ndk1::char_traits<char>, std::__ndk1::allocator<char> > const&, std::__ndk1::basic_string<char, std::__ndk1::char_traits<char>, std::__ndk1::allocator<char> > const&, matjson::Value const&)>::__clone(std::__ndk1::__function::__base<geode::Result<std::__ndk1::shared_ptr<geode::SettingV3>, std::__ndk1::basic_string<char, std::__ndk1::char_traits<char>, std::__ndk1::allocator<char> > >(std::__ndk1::basic_string<char, std::__ndk1::char_traits<char>, std::__ndk1::allocator<char> > const&, std::__ndk1::basic_string<char, std::__ndk1::char_traits<char>, std::__ndk1::allocator<char> > const&, matjson::Value const&)>*) const
PUBLIC 1a96c 0 std::__ndk1::__function::__func<geode::Result<std::__ndk1::shared_ptr<geode::SettingV3>, std::__ndk1::basic_string<char, std::__ndk1::char_traits<char>, std::__ndk1::allocator<char> > > (*)(std::__ndk1::basic_string<char, std::__ndk1::char_traits<char>, std::__ndk1::allocator<char> > const&, std::__ndk1::basic_string<char, std::__ndk1::char_traits<char>, std::__ndk1::allocator<char> > const&, matjson::Value const&), std::__ndk1::allocator<geode::Result<std::__ndk1::shared_ptr<geode::SettingV3>, std::__ndk1::basic_string<char, std::__ndk1::char_traits<char>, std::__ndk1::allocator<char> > > (*)(std::__ndk1::basic_string<char, std::__ndk1::char_traits<char>, std::__ndk1::allocator<char> > const&, std::__ndk1::basic_string<char, std::__ndk1::char_traits<char>, std::__ndk1::allocator<char> > const&, matjson::Value const&)>, geode::Result<std::__ndk1::shared_ptr<geode::SettingV3>, std::__ndk1::basic_string<char, std::__ndk1::char_traits<char>, std::__ndk1::allocator<char> > >(std::__ndk1::basic_string<char, std::__ndk1::char_traits<char>, std::__ndk1::allocator<char> > const&, std::__ndk1::basic_string<char, std::__ndk1::char_traits<char>, std::__ndk1::allocator<char> > const&, matjson::Value const&)>::destroy()
PUBLIC 1a970 0 std::__ndk1::__function::__func<geode::Result<std::__ndk1::shared_ptr<geode::SettingV3>, std::__ndk1::basic_string<char, std::__ndk1::char_traits<char>, std::__ndk1::allocator<char> > > (*)(std::__ndk1::basic_string<char, std::__ndk1::char_traits<char>, std::__ndk1::allocator<char> > const&, std::__ndk1::basic_string<char, std::__ndk1::char_traits<char>, std::__ndk1::allocator<char> > const&, matjson::Value const&), std::__ndk1::allocator<geode::Result<std::__ndk1::shared_ptr<geode::SettingV3>, std::__ndk1::basic_string<char, std::__ndk1::char_traits<char>, std::__ndk1::allocator<char> > > (*)(std::__ndk1::basic_string<char, std::__ndk1::char_traits<char>, std::__ndk1::allocator<char> > const&, std::__ndk1::basic_string<char, std::__ndk1::char_traits<char>, std::__ndk1::allocator<char> > const&, matjson::Value const&)>, geode::Result<std::__ndk1::shared_ptr<geode::SettingV3>, std::__ndk1::basic_string<char, std::__ndk1::char_traits<char>, std::__ndk1::allocator<char> > >(std::__ndk1::basic_string<char, std::__ndk1::char_traits<char>, std::__ndk1::allocator<char> > const&, std::__ndk1::basic_string<char, std::__ndk1::char_traits<char>, std::__ndk1::allocator<char> > const&, matjson::Value const&)>::destroy_deallocate()
PUBLIC 1a974 0 std::__ndk1::__function::__func<geode::Result<std::__ndk1::shared_ptr<geode::SettingV3>, std::__ndk1::basic_string<char, std::__ndk1::char_traits<char>, std::__ndk1::allocator<char> > > (*)(std::__ndk1::basic_string<char, std::__ndk1::char_traits<char>, std::__ndk1::allocator<char> > const&, std::__ndk1::basic_string<char, std::__ndk1::char_traits<char>, std::__ndk1::allocator<char> > const&, matjson::Value const&), std::__ndk1::allocator<geode::Result<std::__ndk1::shared_ptr<geode::SettingV3>, std::__ndk1::basic_string<char, std::__ndk1::char_traits<char>, std::__ndk1::allocator<char> > > (*)(std::__ndk1::basic_string<char, std::__ndk1::char_traits<char>, std::__ndk1::allocator<char> > const&, std::__ndk1::basic_string<char, std::__ndk1::char_traits<char>, std::__ndk1::allocator<char> > const&, matjson::Value const&)>, geode::Result<std::__ndk1::shared_ptr<geode::SettingV3>, std::__ndk1::basic_string<char, std::__ndk1::char_traits<char>, std::__ndk1::allocator<char> > >(std::__ndk1::basic_string<char, std::__ndk1::char_traits<char>, std::__ndk1::allocator<char> > const&, std::__ndk1::basic_string<char, std::__ndk1::char_traits<char>, std::__ndk1::allocator<char> > const&, matjson::Value const&)>::operator()(std::__ndk1::basic_string<char, std::__ndk1::char_traits<char>, std::__ndk1::allocator<char> > const&, std::__ndk1::basic_string<char, std::__ndk1::char_traits<char>, std::__ndk1::allocator<char> > const&, matjson::Value const&)
PUBLIC 1a988 0 std::__ndk1::__function::__func<geode::Result<std::__ndk1::shared_ptr<geode::SettingV3>, std::__ndk1::basic_string<char, std::__ndk1::char_traits<char>, std::__ndk1::allocator<char> > > (*)(std::__ndk1::basic_string<char, std::__ndk1::char_traits<char>, std::__ndk1::allocator<char> > const&, std::__ndk1::basic_string<char, std::__ndk1::char_traits<char>, std::__ndk1::allocator<char> > const&, matjson::Value const&), std::__ndk1::allocator<geode::Result<std::__ndk1::shared_ptr<geode::SettingV3>, std::__ndk1::basic_string<char, std::__ndk1::char_traits<char>, std::__ndk1::allocator<char> > > (*)(std::__ndk1::basic_string<char, std::__ndk1::char_traits<char>, std::__ndk1::allocator<char> > const&, std::__ndk1::basic_string<char, std::__ndk1::char_traits<char>, std::__ndk1::allocator<char> > const&, matjson::Value const&)>, geode::Result<std::__ndk1::shared_ptr<geode::SettingV3>, std::__ndk1::basic_string<char, std::__ndk1::char_traits<char>, std::__ndk1::allocator<char> > >(std::__ndk1::basic_string<char, std::__ndk1::char_traits<char>, std::__ndk1::allocator<char> > const&, std::__ndk1::basic_string<char, std::__ndk1::char_traits<char>, std::__ndk1::allocator<char> > const&, matjson::Value const&)>::target(std::type_info const&) const
PUBLIC 1a9a4 0 std::__ndk1::__function::__func<geode::Result<std::__ndk1::shared_ptr<geode::SettingV3>, std::__ndk1::basic_string<char, std::__ndk1::char_traits<char>, std::__ndk1::allocator<char> > > (*)(std::__ndk1::basic_string<char, std::__ndk1::char_traits<char>, std::__ndk1::allocator<char> > const&, std::__ndk1::basic_string<char, std::__ndk1::char_traits<char>, std::__ndk1::allocator<char> > const&, matjson::Value const&), std::__ndk1::allocator<geode::Result<std::__ndk1::shared_ptr<geode::SettingV3>, std::__ndk1::basic_string<char, std::__ndk1::char_traits<char>, std::__ndk1::allocator<char> > > (*)(std::__ndk1::basic_string<char, std::__ndk1::char_traits<char>, std::__ndk1::allocator<char> > const&, std::__ndk1::basic_string<char, std::__ndk1::char_traits<char>, std::__ndk1::allocator<char> > const&, matjson::Value const&)>, geode::Result<std::__ndk1::shared_ptr<geode::SettingV3>, std::__ndk1::basic_string<char, std::__ndk1::char_traits<char>, std::__ndk1::allocator<char> > >(std::__ndk1::basic_string<char, std::__ndk1::char_traits<char>, std::__ndk1::allocator<char> > const&, std::__ndk1::basic_string<char, std::__ndk1::char_traits<char>, std::__ndk1::allocator<char> > const&, matjson::Value const&)>::target_type() const
PUBLIC 1a9b0 0 geode::EventListener<geode::SettingChangedFilterV3>::EventListener(std::__ndk1::function<void (std::__ndk1::shared_ptr<geode::SettingV3>)>, geode::SettingChangedFilterV3)
PUBLIC 1aaa8 0 geode::SettingChangedFilterV3::~SettingChangedFilterV3()
PUBLIC 1aaf8 0 std::__ndk1::__function::__func<geode::listenForSettingChangesV3<std::__ndk1::basic_string<char, std::__ndk1::char_traits<char>, std::__ndk1::allocator<char> >, geodeExecFunction13<(anonymous namespace)::ExecFuncUnique13>(geode::ModStateEvent*)::{lambda(std::__ndk1::basic_string<char, std::__ndk1::char_traits<char>, std::__ndk1::allocator<char> >)#1}>(std::__ndk1::basic_string_view<char, std::__ndk1::char_traits<char> >, geodeExecFunction13<(anonymous namespace)::ExecFuncUnique13>(geode::ModStateEvent*)::{lambda(std::__ndk1::basic_string<char, std::__ndk1::char_traits<char>, std::__ndk1::allocator<char> >&&)#1}, geode::Mod*)::{lambda(std::__ndk1::shared_ptr<geode::SettingV3>)#1}, std::__ndk1::allocator<geode::listenForSettingChangesV3<std::__ndk1::basic_string<char, std::__ndk1::char_traits<char>, std::__ndk1::allocator<char> >, geodeExecFunction13<(anonymous namespace)::ExecFuncUnique13>(geode::ModStateEvent*)::{lambda(std::__ndk1::basic_string<char, std::__ndk1::char_traits<char>, std::__ndk1::allocator<char> >)#1}>(std::__ndk1::basic_string_view<char, std::__ndk1::char_traits<char> >, geodeExecFunction13<(anonymous namespace)::ExecFuncUnique13>(geode::ModStateEvent*)::{lambda(std::__ndk1::basic_string<char, std::__ndk1::char_traits<char>, std::__ndk1::allocator<char> >&&)#1}, geode::Mod*)::{lambda(std::__ndk1::shared_ptr<geode::SettingV3>)#1}>, void (std::__ndk1::shared_ptr<geode::SettingV3>)>::~__func()
PUBLIC 1aafc 0 std::__ndk1::__function::__func<geode::listenForSettingChangesV3<std::__ndk1::basic_string<char, std::__ndk1::char_traits<char>, std::__ndk1::allocator<char> >, geodeExecFunction13<(anonymous namespace)::ExecFuncUnique13>(geode::ModStateEvent*)::{lambda(std::__ndk1::basic_string<char, std::__ndk1::char_traits<char>, std::__ndk1::allocator<char> >)#1}>(std::__ndk1::basic_string_view<char, std::__ndk1::char_traits<char> >, geodeExecFunction13<(anonymous namespace)::ExecFuncUnique13>(geode::ModStateEvent*)::{lambda(std::__ndk1::basic_string<char, std::__ndk1::char_traits<char>, std::__ndk1::allocator<char> >&&)#1}, geode::Mod*)::{lambda(std::__ndk1::shared_ptr<geode::SettingV3>)#1}, std::__ndk1::allocator<geode::listenForSettingChangesV3<std::__ndk1::basic_string<char, std::__ndk1::char_traits<char>, std::__ndk1::allocator<char> >, geodeExecFunction13<(anonymous namespace)::ExecFuncUnique13>(geode::ModStateEvent*)::{lambda(std::__ndk1::basic_string<char, std::__ndk1::char_traits<char>, std::__ndk1::allocator<char> >)#1}>(std::__ndk1::basic_string_view<char, std::__ndk1::char_traits<char> >, geodeExecFunction13<(anonymous namespace)::ExecFuncUnique13>(geode::ModStateEvent*)::{lambda(std::__ndk1::basic_string<char, std::__ndk1::char_traits<char>, std::__ndk1::allocator<char> >&&)#1}, geode::Mod*)::{lambda(std::__ndk1::shared_ptr<geode::SettingV3>)#1}>, void (std::__ndk1::shared_ptr<geode::SettingV3>)>::__clone() const
PUBLIC 1ab34 0 std::__ndk1::__function::__func<geode::listenForSettingChangesV3<std::__ndk1::basic_string<char, std::__ndk1::char_traits<char>, std::__ndk1::allocator<char> >, geodeExecFunction13<(anonymous namespace)::ExecFuncUnique13>(geode::ModStateEvent*)::{lambda(std::__ndk1::basic_string<char, std::__ndk1::char_traits<char>, std::__ndk1::allocator<char> >)#1}>(std::__ndk1::basic_string_view<char, std::__ndk1::char_traits<char> >, geodeExecFunction13<(anonymous namespace)::ExecFuncUnique13>(geode::ModStateEvent*)::{lambda(std::__ndk1::basic_string<char, std::__ndk1::char_traits<char>, std::__ndk1::allocator<char> >&&)#1}, geode::Mod*)::{lambda(std::__ndk1::shared_ptr<geode::SettingV3>)#1}, std::__ndk1::allocator<geode::listenForSettingChangesV3<std::__ndk1::basic_string<char, std::__ndk1::char_traits<char>, std::__ndk1::allocator<char> >, geodeExecFunction13<(anonymous namespace)::ExecFuncUnique13>(geode::ModStateEvent*)::{lambda(std::__ndk1::basic_string<char, std::__ndk1::char_traits<char>, std::__ndk1::allocator<char> >)#1}>(std::__ndk1::basic_string_view<char, std::__ndk1::char_traits<char> >, geodeExecFunction13<(anonymous namespace)::ExecFuncUnique13>(geode::ModStateEvent*)::{lambda(std::__ndk1::basic_string<char, std::__ndk1::char_traits<char>, std::__ndk1::allocator<char> >&&)#1}, geode::Mod*)::{lambda(std::__ndk1::shared_ptr<geode::SettingV3>)#1}>, void (std::__ndk1::shared_ptr<geode::SettingV3>)>::__clone(std::__ndk1::__function::__base<void (std::__ndk1::shared_ptr<geode::SettingV3>)>*) const
PUBLIC 1ab4c 0 std::__ndk1::__function::__func<geode::listenForSettingChangesV3<std::__ndk1::basic_string<char, std::__ndk1::char_traits<char>, std::__ndk1::allocator<char> >, geodeExecFunction13<(anonymous namespace)::ExecFuncUnique13>(geode::ModStateEvent*)::{lambda(std::__ndk1::basic_string<char, std::__ndk1::char_traits<char>, std::__ndk1::allocator<char> >)#1}>(std::__ndk1::basic_string_view<char, std::__ndk1::char_traits<char> >, geodeExecFunction13<(anonymous namespace)::ExecFuncUnique13>(geode::ModStateEvent*)::{lambda(std::__ndk1::basic_string<char, std::__ndk1::char_traits<char>, std::__ndk1::allocator<char> >&&)#1}, geode::Mod*)::{lambda(std::__ndk1::shared_ptr<geode::SettingV3>)#1}, std::__ndk1::allocator<geode::listenForSettingChangesV3<std::__ndk1::basic_string<char, std::__ndk1::char_traits<char>, std::__ndk1::allocator<char> >, geodeExecFunction13<(anonymous namespace)::ExecFuncUnique13>(geode::ModStateEvent*)::{lambda(std::__ndk1::basic_string<char, std::__ndk1::char_traits<char>, std::__ndk1::allocator<char> >)#1}>(std::__ndk1::basic_string_view<char, std::__ndk1::char_traits<char> >, geodeExecFunction13<(anonymous namespace)::ExecFuncUnique13>(geode::ModStateEvent*)::{lambda(std::__ndk1::basic_string<char, std::__ndk1::char_traits<char>, std::__ndk1::allocator<char> >&&)#1}, geode::Mod*)::{lambda(std::__ndk1::shared_ptr<geode::SettingV3>)#1}>, void (std::__ndk1::shared_ptr<geode::SettingV3>)>::destroy()
PUBLIC 1ab50 0 std::__ndk1::__function::__func<geode::listenForSettingChangesV3<std::__ndk1::basic_string<char, std::__ndk1::char_traits<char>, std::__ndk1::allocator<char> >, geodeExecFunction13<(anonymous namespace)::ExecFuncUnique13>(geode::ModStateEvent*)::{lambda(std::__ndk1::basic_string<char, std::__ndk1::char_traits<char>, std::__ndk1::allocator<char> >)#1}>(std::__ndk1::basic_string_view<char, std::__ndk1::char_traits<char> >, geodeExecFunction13<(anonymous namespace)::ExecFuncUnique13>(geode::ModStateEvent*)::{lambda(std::__ndk1::basic_string<char, std::__ndk1::char_traits<char>, std::__ndk1::allocator<char> >&&)#1}, geode::Mod*)::{lambda(std::__ndk1::shared_ptr<geode::SettingV3>)#1}, std::__ndk1::allocator<geode::listenForSettingChangesV3<std::__ndk1::basic_string<char, std::__ndk1::char_traits<char>, std::__ndk1::allocator<char> >, geodeExecFunction13<(anonymous namespace)::ExecFuncUnique13>(geode::ModStateEvent*)::{lambda(std::__ndk1::basic_string<char, std::__ndk1::char_traits<char>, std::__ndk1::allocator<char> >)#1}>(std::__ndk1::basic_string_view<char, std::__ndk1::char_traits<char> >, geodeExecFunction13<(anonymous namespace)::ExecFuncUnique13>(geode::ModStateEvent*)::{lambda(std::__ndk1::basic_string<char, std::__ndk1::char_traits<char>, std::__ndk1::allocator<char> >&&)#1}, geode::Mod*)::{lambda(std::__ndk1::shared_ptr<geode::SettingV3>)#1}>, void (std::__ndk1::shared_ptr<geode::SettingV3>)>::destroy_deallocate()
PUBLIC 1ab54 0 std::__ndk1::__function::__func<geode::listenForSettingChangesV3<std::__ndk1::basic_string<char, std::__ndk1::char_traits<char>, std::__ndk1::allocator<char> >, geodeExecFunction13<(anonymous namespace)::ExecFuncUnique13>(geode::ModStateEvent*)::{lambda(std::__ndk1::basic_string<char, std::__ndk1::char_traits<char>, std::__ndk1::allocator<char> >)#1}>(std::__ndk1::basic_string_view<char, std::__ndk1::char_traits<char> >, geodeExecFunction13<(anonymous namespace)::ExecFuncUnique13>(geode::ModStateEvent*)::{lambda(std::__ndk1::basic_string<char, std::__ndk1::char_traits<char>, std::__ndk1::allocator<char> >&&)#1}, geode::Mod*)::{lambda(std::__ndk1::shared_ptr<geode::SettingV3>)#1}, std::__ndk1::allocator<geode::listenForSettingChangesV3<std::__ndk1::basic_string<char, std::__ndk1::char_traits<char>, std::__ndk1::allocator<char> >, geodeExecFunction13<(anonymous namespace)::ExecFuncUnique13>(geode::ModStateEvent*)::{lambda(std::__ndk1::basic_string<char, std::__ndk1::char_traits<char>, std::__ndk1::allocator<char> >)#1}>(std::__ndk1::basic_string_view<char, std::__ndk1::char_traits<char> >, geodeExecFunction13<(anonymous namespace)::ExecFuncUnique13>(geode::ModStateEvent*)::{lambda(std::__ndk1::basic_string<char, std::__ndk1::char_traits<char>, std::__ndk1::allocator<char> >&&)#1}, geode::Mod*)::{lambda(std::__ndk1::shared_ptr<geode::SettingV3>)#1}>, void (std::__ndk1::shared_ptr<geode::SettingV3>)>::operator()(std::__ndk1::shared_ptr<geode::SettingV3>&&)
PUBLIC 1ad58 0 std::__ndk1::__function::__func<geode::listenForSettingChangesV3<std::__ndk1::basic_string<char, std::__ndk1::char_traits<char>, std::__ndk1::allocator<char> >, geodeExecFunction13<(anonymous namespace)::ExecFuncUnique13>(geode::ModStateEvent*)::{lambda(std::__ndk1::basic_string<char, std::__ndk1::char_traits<char>, std::__ndk1::allocator<char> >)#1}>(std::__ndk1::basic_string_view<char, std::__ndk1::char_traits<char> >, geodeExecFunction13<(anonymous namespace)::ExecFuncUnique13>(geode::ModStateEvent*)::{lambda(std::__ndk1::basic_string<char, std::__ndk1::char_traits<char>, std::__ndk1::allocator<char> >&&)#1}, geode::Mod*)::{lambda(std::__ndk1::shared_ptr<geode::SettingV3>)#1}, std::__ndk1::allocator<geode::listenForSettingChangesV3<std::__ndk1::basic_string<char, std::__ndk1::char_traits<char>, std::__ndk1::allocator<char> >, geodeExecFunction13<(anonymous namespace)::ExecFuncUnique13>(geode::ModStateEvent*)::{lambda(std::__ndk1::basic_string<char, std::__ndk1::char_traits<char>, std::__ndk1::allocator<char> >)#1}>(std::__ndk1::basic_string_view<char, std::__ndk1::char_traits<char> >, geodeExecFunction13<(anonymous namespace)::ExecFuncUnique13>(geode::ModStateEvent*)::{lambda(std::__ndk1::basic_string<char, std::__ndk1::char_traits<char>, std::__ndk1::allocator<char> >&&)#1}, geode::Mod*)::{lambda(std::__ndk1::shared_ptr<geode::SettingV3>)#1}>, void (std::__ndk1::shared_ptr<geode::SettingV3>)>::target(std::type_info const&) const
PUBLIC 1ad74 0 std::__ndk1::__function::__func<geode::listenForSettingChangesV3<std::__ndk1::basic_string<char, std::__ndk1::char_traits<char>, std::__ndk1::allocator<char> >, geodeExecFunction13<(anonymous namespace)::ExecFuncUnique13>(geode::ModStateEvent*)::{lambda(std::__ndk1::basic_string<char, std::__ndk1::char_traits<char>, std::__ndk1::allocator<char> >)#1}>(std::__ndk1::basic_string_view<char, std::__ndk1::char_traits<char> >, geodeExecFunction13<(anonymous namespace)::ExecFuncUnique13>(geode::ModStateEvent*)::{lambda(std::__ndk1::basic_string<char, std::__ndk1::char_traits<char>, std::__ndk1::allocator<char> >&&)#1}, geode::Mod*)::{lambda(std::__ndk1::shared_ptr<geode::SettingV3>)#1}, std::__ndk1::allocator<geode::listenForSettingChangesV3<std::__ndk1::basic_string<char, std::__ndk1::char_traits<char>, std::__ndk1::allocator<char> >, geodeExecFunction13<(anonymous namespace)::ExecFuncUnique13>(geode::ModStateEvent*)::{lambda(std::__ndk1::basic_string<char, std::__ndk1::char_traits<char>, std::__ndk1::allocator<char> >)#1}>(std::__ndk1::basic_string_view<char, std::__ndk1::char_traits<char> >, geodeExecFunction13<(anonymous namespace)::ExecFuncUnique13>(geode::ModStateEvent*)::{lambda(std::__ndk1::basic_string<char, std::__ndk1::char_traits<char>, std::__ndk1::allocator<char> >&&)#1}, geode::Mod*)::{lambda(std::__ndk1::shared_ptr<geode::SettingV3>)#1}>, void (std::__ndk1::shared_ptr<geode::SettingV3>)>::target_type() const
PUBLIC 1ad80 0 geode::EventListener<geode::SettingChangedFilterV3>::getPool() const
PUBLIC 1ad84 0 geode::EventListener<geode::SettingChangedFilterV3>::handle(geode::Event*)
PUBLIC 1aef8 0 geode::EventListener<geode::SettingChangedFilterV3>::~EventListener()
PUBLIC 1af94 0 geode::EventListener<geode::SettingChangedFilterV3>::~EventListener()
PUBLIC 1b038 0 std::__ndk1::__function::__func<geode::listenForSettingChangesV3<bool, geodeExecFunction13<(anonymous namespace)::ExecFuncUnique13>(geode::ModStateEvent*)::{lambda(bool)#1}>(std::__ndk1::basic_string_view<char, std::__ndk1::char_traits<char> >, geodeExecFunction13<(anonymous namespace)::ExecFuncUnique13>(geode::ModStateEvent*)::{lambda(bool)#1}&&, geode::Mod*)::{lambda(std::__ndk1::shared_ptr<geode::SettingV3>)#1}, std::__ndk1::allocator<geode::listenForSettingChangesV3<bool, geodeExecFunction13<(anonymous namespace)::ExecFuncUnique13>(geode::ModStateEvent*)::{lambda(bool)#1}>(std::__ndk1::basic_string_view<char, std::__ndk1::char_traits<char> >, geodeExecFunction13<(anonymous namespace)::ExecFuncUnique13>(geode::ModStateEvent*)::{lambda(bool)#1}&&, geode::Mod*)::{lambda(std::__ndk1::shared_ptr<geode::SettingV3>)#1}>, void (std::__ndk1::shared_ptr<geode::SettingV3>)>::~__func()
PUBLIC 1b03c 0 std::__ndk1::__function::__func<geode::listenForSettingChangesV3<bool, geodeExecFunction13<(anonymous namespace)::ExecFuncUnique13>(geode::ModStateEvent*)::{lambda(bool)#1}>(std::__ndk1::basic_string_view<char, std::__ndk1::char_traits<char> >, geodeExecFunction13<(anonymous namespace)::ExecFuncUnique13>(geode::ModStateEvent*)::{lambda(bool)#1}&&, geode::Mod*)::{lambda(std::__ndk1::shared_ptr<geode::SettingV3>)#1}, std::__ndk1::allocator<geode::listenForSettingChangesV3<bool, geodeExecFunction13<(anonymous namespace)::ExecFuncUnique13>(geode::ModStateEvent*)::{lambda(bool)#1}>(std::__ndk1::basic_string_view<char, std::__ndk1::char_traits<char> >, geodeExecFunction13<(anonymous namespace)::ExecFuncUnique13>(geode::ModStateEvent*)::{lambda(bool)#1}&&, geode::Mod*)::{lambda(std::__ndk1::shared_ptr<geode::SettingV3>)#1}>, void (std::__ndk1::shared_ptr<geode::SettingV3>)>::__clone() const
PUBLIC 1b074 0 std::__ndk1::__function::__func<geode::listenForSettingChangesV3<bool, geodeExecFunction13<(anonymous namespace)::ExecFuncUnique13>(geode::ModStateEvent*)::{lambda(bool)#1}>(std::__ndk1::basic_string_view<char, std::__ndk1::char_traits<char> >, geodeExecFunction13<(anonymous namespace)::ExecFuncUnique13>(geode::ModStateEvent*)::{lambda(bool)#1}&&, geode::Mod*)::{lambda(std::__ndk1::shared_ptr<geode::SettingV3>)#1}, std::__ndk1::allocator<geode::listenForSettingChangesV3<bool, geodeExecFunction13<(anonymous namespace)::ExecFuncUnique13>(geode::ModStateEvent*)::{lambda(bool)#1}>(std::__ndk1::basic_string_view<char, std::__ndk1::char_traits<char> >, geodeExecFunction13<(anonymous namespace)::ExecFuncUnique13>(geode::ModStateEvent*)::{lambda(bool)#1}&&, geode::Mod*)::{lambda(std::__ndk1::shared_ptr<geode::SettingV3>)#1}>, void (std::__ndk1::shared_ptr<geode::SettingV3>)>::__clone(std::__ndk1::__function::__base<void (std::__ndk1::shared_ptr<geode::SettingV3>)>*) const
PUBLIC 1b08c 0 std::__ndk1::__function::__func<geode::listenForSettingChangesV3<bool, geodeExecFunction13<(anonymous namespace)::ExecFuncUnique13>(geode::ModStateEvent*)::{lambda(bool)#1}>(std::__ndk1::basic_string_view<char, std::__ndk1::char_traits<char> >, geodeExecFunction13<(anonymous namespace)::ExecFuncUnique13>(geode::ModStateEvent*)::{lambda(bool)#1}&&, geode::Mod*)::{lambda(std::__ndk1::shared_ptr<geode::SettingV3>)#1}, std::__ndk1::allocator<geode::listenForSettingChangesV3<bool, geodeExecFunction13<(anonymous namespace)::ExecFuncUnique13>(geode::ModStateEvent*)::{lambda(bool)#1}>(std::__ndk1::basic_string_view<char, std::__ndk1::char_traits<char> >, geodeExecFunction13<(anonymous namespace)::ExecFuncUnique13>(geode::ModStateEvent*)::{lambda(bool)#1}&&, geode::Mod*)::{lambda(std::__ndk1::shared_ptr<geode::SettingV3>)#1}>, void (std::__ndk1::shared_ptr<geode::SettingV3>)>::destroy()
PUBLIC 1b090 0 std::__ndk1::__function::__func<geode::listenForSettingChangesV3<bool, geodeExecFunction13<(anonymous namespace)::ExecFuncUnique13>(geode::ModStateEvent*)::{lambda(bool)#1}>(std::__ndk1::basic_string_view<char, std::__ndk1::char_traits<char> >, geodeExecFunction13<(anonymous namespace)::ExecFuncUnique13>(geode::ModStateEvent*)::{lambda(bool)#1}&&, geode::Mod*)::{lambda(std::__ndk1::shared_ptr<geode::SettingV3>)#1}, std::__ndk1::allocator<geode::listenForSettingChangesV3<bool, geodeExecFunction13<(anonymous namespace)::ExecFuncUnique13>(geode::ModStateEvent*)::{lambda(bool)#1}>(std::__ndk1::basic_string_view<char, std::__ndk1::char_traits<char> >, geodeExecFunction13<(anonymous namespace)::ExecFuncUnique13>(geode::ModStateEvent*)::{lambda(bool)#1}&&, geode::Mod*)::{lambda(std::__ndk1::shared_ptr<geode::SettingV3>)#1}>, void (std::__ndk1::shared_ptr<geode::SettingV3>)>::destroy_deallocate()
PUBLIC 1b094 0 std::__ndk1::__function::__func<geode::listenForSettingChangesV3<bool, geodeExecFunction13<(anonymous namespace)::ExecFuncUnique13>(geode::ModStateEvent*)::{lambda(bool)#1}>(std::__ndk1::basic_string_view<char, std::__ndk1::char_traits<char> >, geodeExecFunction13<(anonymous namespace)::ExecFuncUnique13>(geode::ModStateEvent*)::{lambda(bool)#1}&&, geode::Mod*)::{lambda(std::__ndk1::shared_ptr<geode::SettingV3>)#1}, std::__ndk1::allocator<geode::listenForSettingChangesV3<bool, geodeExecFunction13<(anonymous namespace)::ExecFuncUnique13>(geode::ModStateEvent*)::{lambda(bool)#1}>(std::__ndk1::basic_string_view<char, std::__ndk1::char_traits<char> >, geodeExecFunction13<(anonymous namespace)::ExecFuncUnique13>(geode::ModStateEvent*)::{lambda(bool)#1}&&, geode::Mod*)::{lambda(std::__ndk1::shared_ptr<geode::SettingV3>)#1}>, void (std::__ndk1::shared_ptr<geode::SettingV3>)>::operator()(std::__ndk1::shared_ptr<geode::SettingV3>&&)
PUBLIC 1b25c 0 std::__ndk1::__function::__func<geode::listenForSettingChangesV3<bool, geodeExecFunction13<(anonymous namespace)::ExecFuncUnique13>(geode::ModStateEvent*)::{lambda(bool)#1}>(std::__ndk1::basic_string_view<char, std::__ndk1::char_traits<char> >, geodeExecFunction13<(anonymous namespace)::ExecFuncUnique13>(geode::ModStateEvent*)::{lambda(bool)#1}&&, geode::Mod*)::{lambda(std::__ndk1::shared_ptr<geode::SettingV3>)#1}, std::__ndk1::allocator<geode::listenForSettingChangesV3<bool, geodeExecFunction13<(anonymous namespace)::ExecFuncUnique13>(geode::ModStateEvent*)::{lambda(bool)#1}>(std::__ndk1::basic_string_view<char, std::__ndk1::char_traits<char> >, geodeExecFunction13<(anonymous namespace)::ExecFuncUnique13>(geode::ModStateEvent*)::{lambda(bool)#1}&&, geode::Mod*)::{lambda(std::__ndk1::shared_ptr<geode::SettingV3>)#1}>, void (std::__ndk1::shared_ptr<geode::SettingV3>)>::target(std::type_info const&) const
PUBLIC 1b278 0 std::__ndk1::__function::__func<geode::listenForSettingChangesV3<bool, geodeExecFunction13<(anonymous namespace)::ExecFuncUnique13>(geode::ModStateEvent*)::{lambda(bool)#1}>(std::__ndk1::basic_string_view<char, std::__ndk1::char_traits<char> >, geodeExecFunction13<(anonymous namespace)::ExecFuncUnique13>(geode::ModStateEvent*)::{lambda(bool)#1}&&, geode::Mod*)::{lambda(std::__ndk1::shared_ptr<geode::SettingV3>)#1}, std::__ndk1::allocator<geode::listenForSettingChangesV3<bool, geodeExecFunction13<(anonymous namespace)::ExecFuncUnique13>(geode::ModStateEvent*)::{lambda(bool)#1}>(std::__ndk1::basic_string_view<char, std::__ndk1::char_traits<char> >, geodeExecFunction13<(anonymous namespace)::ExecFuncUnique13>(geode::ModStateEvent*)::{lambda(bool)#1}&&, geode::Mod*)::{lambda(std::__ndk1::shared_ptr<geode::SettingV3>)#1}>, void (std::__ndk1::shared_ptr<geode::SettingV3>)>::target_type() const
PUBLIC 1b284 0 std::__ndk1::shared_ptr<geode::BoolSettingV3>::~shared_ptr[abi:ne180000]()
PUBLIC 1b2d4 0 std::__ndk1::__function::__base<void (std::__ndk1::shared_ptr<geode::SettingV3>)>::~__base()
PUBLIC 1b2d8 0 std::__ndk1::__function::__func<geode::listenForSettingChangesV3<std::__ndk1::__fs::filesystem::path, geodeExecFunction13<(anonymous namespace)::ExecFuncUnique13>(geode::ModStateEvent*)::{lambda(std::__ndk1::__fs::filesystem::path)#1}>(std::__ndk1::basic_string_view<char, std::__ndk1::char_traits<char> >, geodeExecFunction13<(anonymous namespace)::ExecFuncUnique13>(geode::ModStateEvent*)::{lambda(std::__ndk1::__fs::filesystem::path&&)#1}, geode::Mod*)::{lambda(std::__ndk1::shared_ptr<geode::SettingV3>)#1}, std::__ndk1::allocator<geode::listenForSettingChangesV3<std::__ndk1::__fs::filesystem::path, geodeExecFunction13<(anonymous namespace)::ExecFuncUnique13>(geode::ModStateEvent*)::{lambda(std::__ndk1::__fs::filesystem::path)#1}>(std::__ndk1::basic_string_view<char, std::__ndk1::char_traits<char> >, geodeExecFunction13<(anonymous namespace)::ExecFuncUnique13>(geode::ModStateEvent*)::{lambda(std::__ndk1::__fs::filesystem::path&&)#1}, geode::Mod*)::{lambda(std::__ndk1::shared_ptr<geode::SettingV3>)#1}>, void (std::__ndk1::shared_ptr<geode::SettingV3>)>::~__func()
PUBLIC 1b2dc 0 std::__ndk1::__function::__func<geode::listenForSettingChangesV3<std::__ndk1::__fs::filesystem::path, geodeExecFunction13<(anonymous namespace)::ExecFuncUnique13>(geode::ModStateEvent*)::{lambda(std::__ndk1::__fs::filesystem::path)#1}>(std::__ndk1::basic_string_view<char, std::__ndk1::char_traits<char> >, geodeExecFunction13<(anonymous namespace)::ExecFuncUnique13>(geode::ModStateEvent*)::{lambda(std::__ndk1::__fs::filesystem::path&&)#1}, geode::Mod*)::{lambda(std::__ndk1::shared_ptr<geode::SettingV3>)#1}, std::__ndk1::allocator<geode::listenForSettingChangesV3<std::__ndk1::__fs::filesystem::path, geodeExecFunction13<(anonymous namespace)::ExecFuncUnique13>(geode::ModStateEvent*)::{lambda(std::__ndk1::__fs::filesystem::path)#1}>(std::__ndk1::basic_string_view<char, std::__ndk1::char_traits<char> >, geodeExecFunction13<(anonymous namespace)::ExecFuncUnique13>(geode::ModStateEvent*)::{lambda(std::__ndk1::__fs::filesystem::path&&)#1}, geode::Mod*)::{lambda(std::__ndk1::shared_ptr<geode::SettingV3>)#1}>, void (std::__ndk1::shared_ptr<geode::SettingV3>)>::__clone() const
PUBLIC 1b314 0 std::__ndk1::__function::__func<geode::listenForSettingChangesV3<std::__ndk1::__fs::filesystem::path, geodeExecFunction13<(anonymous namespace)::ExecFuncUnique13>(geode::ModStateEvent*)::{lambda(std::__ndk1::__fs::filesystem::path)#1}>(std::__ndk1::basic_string_view<char, std::__ndk1::char_traits<char> >, geodeExecFunction13<(anonymous namespace)::ExecFuncUnique13>(geode::ModStateEvent*)::{lambda(std::__ndk1::__fs::filesystem::path&&)#1}, geode::Mod*)::{lambda(std::__ndk1::shared_ptr<geode::SettingV3>)#1}, std::__ndk1::allocator<geode::listenForSettingChangesV3<std::__ndk1::__fs::filesystem::path, geodeExecFunction13<(anonymous namespace)::ExecFuncUnique13>(geode::ModStateEvent*)::{lambda(std::__ndk1::__fs::filesystem::path)#1}>(std::__ndk1::basic_string_view<char, std::__ndk1::char_traits<char> >, geodeExecFunction13<(anonymous namespace)::ExecFuncUnique13>(geode::ModStateEvent*)::{lambda(std::__ndk1::__fs::filesystem::path&&)#1}, geode::Mod*)::{lambda(std::__ndk1::shared_ptr<geode::SettingV3>)#1}>, void (std::__ndk1::shared_ptr<geode::SettingV3>)>::__clone(std::__ndk1::__function::__base<void (std::__ndk1::shared_ptr<geode::SettingV3>)>*) const
PUBLIC 1b32c 0 std::__ndk1::__function::__func<geode::listenForSettingChangesV3<std::__ndk1::__fs::filesystem::path, geodeExecFunction13<(anonymous namespace)::ExecFuncUnique13>(geode::ModStateEvent*)::{lambda(std::__ndk1::__fs::filesystem::path)#1}>(std::__ndk1::basic_string_view<char, std::__ndk1::char_traits<char> >, geodeExecFunction13<(anonymous namespace)::ExecFuncUnique13>(geode::ModStateEvent*)::{lambda(std::__ndk1::__fs::filesystem::path&&)#1}, geode::Mod*)::{lambda(std::__ndk1::shared_ptr<geode::SettingV3>)#1}, std::__ndk1::allocator<geode::listenForSettingChangesV3<std::__ndk1::__fs::filesystem::path, geodeExecFunction13<(anonymous namespace)::ExecFuncUnique13>(geode::ModStateEvent*)::{lambda(std::__ndk1::__fs::filesystem::path)#1}>(std::__ndk1::basic_string_view<char, std::__ndk1::char_traits<char> >, geodeExecFunction13<(anonymous namespace)::ExecFuncUnique13>(geode::ModStateEvent*)::{lambda(std::__ndk1::__fs::filesystem::path&&)#1}, geode::Mod*)::{lambda(std::__ndk1::shared_ptr<geode::SettingV3>)#1}>, void (std::__ndk1::shared_ptr<geode::SettingV3>)>::destroy()
PUBLIC 1b330 0 std::__ndk1::__function::__func<geode::listenForSettingChangesV3<std::__ndk1::__fs::filesystem::path, geodeExecFunction13<(anonymous namespace)::ExecFuncUnique13>(geode::ModStateEvent*)::{lambda(std::__ndk1::__fs::filesystem::path)#1}>(std::__ndk1::basic_string_view<char, std::__ndk1::char_traits<char> >, geodeExecFunction13<(anonymous namespace)::ExecFuncUnique13>(geode::ModStateEvent*)::{lambda(std::__ndk1::__fs::filesystem::path&&)#1}, geode::Mod*)::{lambda(std::__ndk1::shared_ptr<geode::SettingV3>)#1}, std::__ndk1::allocator<geode::listenForSettingChangesV3<std::__ndk1::__fs::filesystem::path, geodeExecFunction13<(anonymous namespace)::ExecFuncUnique13>(geode::ModStateEvent*)::{lambda(std::__ndk1::__fs::filesystem::path)#1}>(std::__ndk1::basic_string_view<char, std::__ndk1::char_traits<char> >, geodeExecFunction13<(anonymous namespace)::ExecFuncUnique13>(geode::ModStateEvent*)::{lambda(std::__ndk1::__fs::filesystem::path&&)#1}, geode::Mod*)::{lambda(std::__ndk1::shared_ptr<geode::SettingV3>)#1}>, void (std::__ndk1::shared_ptr<geode::SettingV3>)>::destroy_deallocate()
PUBLIC 1b334 0 std::__ndk1::__function::__func<geode::listenForSettingChangesV3<std::__ndk1::__fs::filesystem::path, geodeExecFunction13<(anonymous namespace)::ExecFuncUnique13>(geode::ModStateEvent*)::{lambda(std::__ndk1::__fs::filesystem::path)#1}>(std::__ndk1::basic_string_view<char, std::__ndk1::char_traits<char> >, geodeExecFunction13<(anonymous namespace)::ExecFuncUnique13>(geode::ModStateEvent*)::{lambda(std::__ndk1::__fs::filesystem::path&&)#1}, geode::Mod*)::{lambda(std::__ndk1::shared_ptr<geode::SettingV3>)#1}, std::__ndk1::allocator<geode::listenForSettingChangesV3<std::__ndk1::__fs::filesystem::path, geodeExecFunction13<(anonymous namespace)::ExecFuncUnique13>(geode::ModStateEvent*)::{lambda(std::__ndk1::__fs::filesystem::path)#1}>(std::__ndk1::basic_string_view<char, std::__ndk1::char_traits<char> >, geodeExecFunction13<(anonymous namespace)::ExecFuncUnique13>(geode::ModStateEvent*)::{lambda(std::__ndk1::__fs::filesystem::path&&)#1}, geode::Mod*)::{lambda(std::__ndk1::shared_ptr<geode::SettingV3>)#1}>, void (std::__ndk1::shared_ptr<geode::SettingV3>)>::operator()(std::__ndk1::shared_ptr<geode::SettingV3>&&)
PUBLIC 1b6ac 0 std::__ndk1::__function::__func<geode::listenForSettingChangesV3<std::__ndk1::__fs::filesystem::path, geodeExecFunction13<(anonymous namespace)::ExecFuncUnique13>(geode::ModStateEvent*)::{lambda(std::__ndk1::__fs::filesystem::path)#1}>(std::__ndk1::basic_string_view<char, std::__ndk1::char_traits<char> >, geodeExecFunction13<(anonymous namespace)::ExecFuncUnique13>(geode::ModStateEvent*)::{lambda(std::__ndk1::__fs::filesystem::path&&)#1}, geode::Mod*)::{lambda(std::__ndk1::shared_ptr<geode::SettingV3>)#1}, std::__ndk1::allocator<geode::listenForSettingChangesV3<std::__ndk1::__fs::filesystem::path, geodeExecFunction13<(anonymous namespace)::ExecFuncUnique13>(geode::ModStateEvent*)::{lambda(std::__ndk1::__fs::filesystem::path)#1}>(std::__ndk1::basic_string_view<char, std::__ndk1::char_traits<char> >, geodeExecFunction13<(anonymous namespace)::ExecFuncUnique13>(geode::ModStateEvent*)::{lambda(std::__ndk1::__fs::filesystem::path&&)#1}, geode::Mod*)::{lambda(std::__ndk1::shared_ptr<geode::SettingV3>)#1}>, void (std::__ndk1::shared_ptr<geode::SettingV3>)>::target(std::type_info const&) const
PUBLIC 1b6c8 0 std::__ndk1::__function::__func<geode::listenForSettingChangesV3<std::__ndk1::__fs::filesystem::path, geodeExecFunction13<(anonymous namespace)::ExecFuncUnique13>(geode::ModStateEvent*)::{lambda(std::__ndk1::__fs::filesystem::path)#1}>(std::__ndk1::basic_string_view<char, std::__ndk1::char_traits<char> >, geodeExecFunction13<(anonymous namespace)::ExecFuncUnique13>(geode::ModStateEvent*)::{lambda(std::__ndk1::__fs::filesystem::path&&)#1}, geode::Mod*)::{lambda(std::__ndk1::shared_ptr<geode::SettingV3>)#1}, std::__ndk1::allocator<geode::listenForSettingChangesV3<std::__ndk1::__fs::filesystem::path, geodeExecFunction13<(anonymous namespace)::ExecFuncUnique13>(geode::ModStateEvent*)::{lambda(std::__ndk1::__fs::filesystem::path)#1}>(std::__ndk1::basic_string_view<char, std::__ndk1::char_traits<char> >, geodeExecFunction13<(anonymous namespace)::ExecFuncUnique13>(geode::ModStateEvent*)::{lambda(std::__ndk1::__fs::filesystem::path&&)#1}, geode::Mod*)::{lambda(std::__ndk1::shared_ptr<geode::SettingV3>)#1}>, void (std::__ndk1::shared_ptr<geode::SettingV3>)>::target_type() const
PUBLIC 1b6d4 0 geode::EventListener<geode::ModStateFilter>::getPool() const
PUBLIC 1b6d8 0 geode::EventListener<geode::ModStateFilter>::handle(geode::Event*)
PUBLIC 1b84c 0 geode::EventListener<geode::ModStateFilter>::~EventListener()
PUBLIC 1b8a8 0 geode::EventListener<geode::ModStateFilter>::~EventListener()
PUBLIC 1b90c 0 std::__ndk1::__function::__base<void (geode::ModStateEvent*)>::~__base()
PUBLIC 1b910 0 std::__ndk1::__function::__func<void (*)(geode::ModStateEvent*), std::__ndk1::allocator<void (*)(geode::ModStateEvent*)>, void (geode::ModStateEvent*)>::~__func()
PUBLIC 1b914 0 std::__ndk1::__function::__func<void (*)(geode::ModStateEvent*), std::__ndk1::allocator<void (*)(geode::ModStateEvent*)>, void (geode::ModStateEvent*)>::__clone() const
PUBLIC 1b948 0 std::__ndk1::__function::__func<void (*)(geode::ModStateEvent*), std::__ndk1::allocator<void (*)(geode::ModStateEvent*)>, void (geode::ModStateEvent*)>::__clone(std::__ndk1::__function::__base<void (geode::ModStateEvent*)>*) const
PUBLIC 1b95c 0 std::__ndk1::__function::__func<void (*)(geode::ModStateEvent*), std::__ndk1::allocator<void (*)(geode::ModStateEvent*)>, void (geode::ModStateEvent*)>::destroy()
PUBLIC 1b960 0 std::__ndk1::__function::__func<void (*)(geode::ModStateEvent*), std::__ndk1::allocator<void (*)(geode::ModStateEvent*)>, void (geode::ModStateEvent*)>::destroy_deallocate()
PUBLIC 1b964 0 std::__ndk1::__function::__func<void (*)(geode::ModStateEvent*), std::__ndk1::allocator<void (*)(geode::ModStateEvent*)>, void (geode::ModStateEvent*)>::operator()(geode::ModStateEvent*&&)
PUBLIC 1b974 0 std::__ndk1::__function::__func<void (*)(geode::ModStateEvent*), std::__ndk1::allocator<void (*)(geode::ModStateEvent*)>, void (geode::ModStateEvent*)>::target(std::type_info const&) const
PUBLIC 1b990 0 std::__ndk1::__function::__func<void (*)(geode::ModStateEvent*), std::__ndk1::allocator<void (*)(geode::ModStateEvent*)>, void (geode::ModStateEvent*)>::target_type() const
PUBLIC 1b99c 0 geode::modifier::ModifyDerive<MyMusicDownloadManager, MusicDownloadManager>::apply()
PUBLIC 1bd0c 0 std::__ndk1::shared_ptr<geode::Hook>::~shared_ptr[abi:ne180000]()
PUBLIC 1bd5c 0 geode::impl::ResultData<geode::Hook*, std::__ndk1::basic_string<char, std::__ndk1::char_traits<char>, std::__ndk1::allocator<char> > >::~ResultData()
PUBLIC 1bdd0 0 std::__ndk1::vector<std::__ndk1::basic_string<char, std::__ndk1::char_traits<char>, std::__ndk1::allocator<char> >, std::__ndk1::allocator<std::__ndk1::basic_string<char, std::__ndk1::char_traits<char>, std::__ndk1::allocator<char> > > >::~vector[abi:ne180000]()
PUBLIC 1be4c 0 geode::modifier::ModifyBase<geode::modifier::ModifyDerive<MyMusicDownloadManager, MusicDownloadManager> >::apply()
PUBLIC 1be50 0 std::__ndk1::__tree<std::__ndk1::__value_type<std::__ndk1::basic_string<char, std::__ndk1::char_traits<char>, std::__ndk1::allocator<char> >, std::__ndk1::shared_ptr<geode::Hook> >, std::__ndk1::__map_value_compare<std::__ndk1::basic_string<char, std::__ndk1::char_traits<char>, std::__ndk1::allocator<char> >, std::__ndk1::__value_type<std::__ndk1::basic_string<char, std::__ndk1::char_traits<char>, std::__ndk1::allocator<char> >, std::__ndk1::shared_ptr<geode::Hook> >, std::__ndk1::less<std::__ndk1::basic_string<char, std::__ndk1::char_traits<char>, std::__ndk1::allocator<char> > >, true>, std::__ndk1::allocator<std::__ndk1::__value_type<std::__ndk1::basic_string<char, std::__ndk1::char_traits<char>, std::__ndk1::allocator<char> >, std::__ndk1::shared_ptr<geode::Hook> > > >::find<std::__ndk1::basic_string<char, std::__ndk1::char_traits<char>, std::__ndk1::allocator<char> > >(std::__ndk1::basic_string<char, std::__ndk1::char_traits<char>, std::__ndk1::allocator<char> > const&)
PUBLIC 1bf70 0 std::__ndk1::__tree<std::__ndk1::__value_type<std::__ndk1::basic_string<char, std::__ndk1::char_traits<char>, std::__ndk1::allocator<char> >, std::__ndk1::shared_ptr<geode::Hook> >, std::__ndk1::__map_value_compare<std::__ndk1::basic_string<char, std::__ndk1::char_traits<char>, std::__ndk1::allocator<char> >, std::__ndk1::__value_type<std::__ndk1::basic_string<char, std::__ndk1::char_traits<char>, std::__ndk1::allocator<char> >, std::__ndk1::shared_ptr<geode::Hook> >, std::__ndk1::less<std::__ndk1::basic_string<char, std::__ndk1::char_traits<char>, std::__ndk1::allocator<char> > >, true>, std::__ndk1::allocator<std::__ndk1::__value_type<std::__ndk1::basic_string<char, std::__ndk1::char_traits<char>, std::__ndk1::allocator<char> >, std::__ndk1::shared_ptr<geode::Hook> > > >::__emplace_unique_key_args<std::__ndk1::basic_string<char, std::__ndk1::char_traits<char>, std::__ndk1::allocator<char> >, std::__ndk1::piecewise_construct_t const&, std::__ndk1::tuple<std::__ndk1::basic_string<char, std::__ndk1::char_traits<char>, std::__ndk1::allocator<char> > const&>, std::__ndk1::tuple<> >(std::__ndk1::basic_string<char, std::__ndk1::char_traits<char>, std::__ndk1::allocator<char> > const&, std::__ndk1::piecewise_construct_t const&, std::__ndk1::tuple<std::__ndk1::basic_string<char, std::__ndk1::char_traits<char>, std::__ndk1::allocator<char> > const&>, std::__ndk1::tuple<>)
PUBLIC 1c144 0 std::__ndk1::unique_ptr<std::__ndk1::__tree_node<std::__ndk1::__value_type<std::__ndk1::basic_string<char, std::__ndk1::char_traits<char>, std::__ndk1::allocator<char> >, std::__ndk1::shared_ptr<geode::Hook> >, void*>, std::__ndk1::__tree_node_destructor<std::__ndk1::allocator<std::__ndk1::__tree_node<std::__ndk1::__value_type<std::__ndk1::basic_string<char, std::__ndk1::char_traits<char>, std::__ndk1::allocator<char> >, std::__ndk1::shared_ptr<geode::Hook> >, void*> > > >::~unique_ptr[abi:ne180000]()
PUBLIC 1c1c0 0 std::__ndk1::__tree_balance_after_insert[abi:ne180000]<std::__ndk1::__tree_node_base<void*>*>(std::__ndk1::__tree_node_base<void*>*, std::__ndk1::__tree_node_base<void*>*)
PUBLIC 1c370 0 _ZN5geode15UnwrapExceptionC2IRPNS_4HookEQsr4implE18IsStringStreamableIT_EEENS_4impl5OkTagEOS5_
PUBLIC 1c4c4 0 std::__ndk1::basic_stringstream<char, std::__ndk1::char_traits<char>, std::__ndk1::allocator<char> >::basic_stringstream[abi:ne180000]()
PUBLIC m 1c5f0 0 std::__ndk1::basic_stringstream<char, std::__ndk1::char_traits<char>, std::__ndk1::allocator<char> >::~basic_stringstream()
PUBLIC 1c670 0 std::__ndk1::basic_stringbuf<char, std::__ndk1::char_traits<char>, std::__ndk1::allocator<char> >::str[abi:ne180000]() &&
PUBLIC 1c7e8 0 std::__ndk1::basic_stringbuf<char, std::__ndk1::char_traits<char>, std::__ndk1::allocator<char> >::__init_buf_ptrs[abi:ne180000]()
PUBLIC 1c930 0 _ZN5geode15UnwrapExceptionC2IRNSt6__ndk112basic_stringIcNS2_11char_traitsIcEENS2_9allocatorIcEEEEQsr4implE18IsStringStreamableIT_EEENS_4impl6ErrTagEOSA_
PUBLIC 1ca98 0 std::__ndk1::__variant_detail::__visitation::__base::__dispatcher<(unsigned long)0>::__dispatch[abi:ne180000]<std::__ndk1::__variant_detail::__dtor<std::__ndk1::__variant_detail::__traits<geode::Hook*, std::__ndk1::basic_string<char, std::__ndk1::char_traits<char>, std::__ndk1::allocator<char> > >, (std::__ndk1::__variant_detail::_Trait)1>::__destroy[abi:ne180000]()::{lambda(auto:1&)#1}, std::__ndk1::__variant_detail::__base<(std::__ndk1::__variant_detail::__traits<geode::Hook*, std::__ndk1::basic_string<char, std::__ndk1::char_traits<char>, std::__ndk1::allocator<char> > >)1, geode::Hook, std::__ndk1::allocator<char> >&>(std::__ndk1::__variant_detail::__dtor<std::__ndk1::__variant_detail::__traits<geode::Hook*, std::__ndk1::basic_string<char, std::__ndk1::char_traits<char>, std::__ndk1::allocator<char> > >, (std::__ndk1::__variant_detail::_Trait)1>, std::__ndk1::__variant_detail::__base<(std::__ndk1::__variant_detail::__traits<geode::Hook*, std::__ndk1::basic_string<char, std::__ndk1::char_traits<char>, std::__ndk1::allocator<char> > >)1, geode::Hook, std::__ndk1::allocator<char> >&)
PUBLIC 1ca9c 0 std::__ndk1::__variant_detail::__visitation::__base::__dispatcher<(unsigned long)1>::__dispatch[abi:ne180000]<std::__ndk1::__variant_detail::__dtor<std::__ndk1::__variant_detail::__traits<geode::Hook*, std::__ndk1::basic_string<char, std::__ndk1::char_traits<char>, std::__ndk1::allocator<char> > >, (std::__ndk1::__variant_detail::_Trait)1>::__destroy[abi:ne180000]()::{lambda(auto:1&)#1}, std::__ndk1::__variant_detail::__base<(std::__ndk1::__variant_detail::__traits<geode::Hook*, std::__ndk1::basic_string<char, std::__ndk1::char_traits<char>, std::__ndk1::allocator<char> > >)1, geode::Hook, std::__ndk1::allocator<char> >&>(std::__ndk1::__variant_detail::__dtor<std::__ndk1::__variant_detail::__traits<geode::Hook*, std::__ndk1::basic_string<char, std::__ndk1::char_traits<char>, std::__ndk1::allocator<char> > >, (std::__ndk1::__variant_detail::_Trait)1>, std::__ndk1::__variant_detail::__base<(std::__ndk1::__variant_detail::__traits<geode::Hook*, std::__ndk1::basic_string<char, std::__ndk1::char_traits<char>, std::__ndk1::allocator<char> > >)1, geode::Hook, std::__ndk1::allocator<char> >&)
PUBLIC 1cab0 0 std::__ndk1::__tree<std::__ndk1::__value_type<std::__ndk1::basic_string<char, std::__ndk1::char_traits<char>, std::__ndk1::allocator<char> >, std::__ndk1::shared_ptr<geode::Hook> >, std::__ndk1::__map_value_compare<std::__ndk1::basic_string<char, std::__ndk1::char_traits<char>, std::__ndk1::allocator<char> >, std::__ndk1::__value_type<std::__ndk1::basic_string<char, std::__ndk1::char_traits<char>, std::__ndk1::allocator<char> >, std::__ndk1::shared_ptr<geode::Hook> >, std::__ndk1::less<std::__ndk1::basic_string<char, std::__ndk1::char_traits<char>, std::__ndk1::allocator<char> > >, true>, std::__ndk1::allocator<std::__ndk1::__value_type<std::__ndk1::basic_string<char, std::__ndk1::char_traits<char>, std::__ndk1::allocator<char> >, std::__ndk1::shared_ptr<geode::Hook> > > >::erase(std::__ndk1::__tree_const_iterator<std::__ndk1::__value_type<std::__ndk1::basic_string<char, std::__ndk1::char_traits<char>, std::__ndk1::allocator<char> >, std::__ndk1::shared_ptr<geode::Hook> >, std::__ndk1::__tree_node<std::__ndk1::__value_type<std::__ndk1::basic_string<char, std::__ndk1::char_traits<char>, std::__ndk1::allocator<char> >, std::__ndk1::shared_ptr<geode::Hook> >, void*>*, long>)
PUBLIC 1cf54 0 std::__ndk1::__tree<std::__ndk1::__value_type<std::__ndk1::basic_string<char, std::__ndk1::char_traits<char>, std::__ndk1::allocator<char> >, std::__ndk1::shared_ptr<geode::Hook> >, std::__ndk1::__map_value_compare<std::__ndk1::basic_string<char, std::__ndk1::char_traits<char>, std::__ndk1::allocator<char> >, std::__ndk1::__value_type<std::__ndk1::basic_string<char, std::__ndk1::char_traits<char>, std::__ndk1::allocator<char> >, std::__ndk1::shared_ptr<geode::Hook> >, std::__ndk1::less<std::__ndk1::basic_string<char, std::__ndk1::char_traits<char>, std::__ndk1::allocator<char> > >, true>, std::__ndk1::allocator<std::__ndk1::__value_type<std::__ndk1::basic_string<char, std::__ndk1::char_traits<char>, std::__ndk1::allocator<char> >, std::__ndk1::shared_ptr<geode::Hook> > > >::destroy(std::__ndk1::__tree_node<std::__ndk1::__value_type<std::__ndk1::basic_string<char, std::__ndk1::char_traits<char>, std::__ndk1::allocator<char> >, std::__ndk1::shared_ptr<geode::Hook> >, void*>*)
PUBLIC 1cfd8 0 geode::modifier::AsStaticFunction_pathForSong<MyMusicDownloadManager, gd::string (MyMusicDownloadManager::*)(int)>::Impl<gd::string (MyMusicDownloadManager::*)(int)>::function(MyMusicDownloadManager*, int)
PUBLIC 1d670 0 std::__ndk1::shared_ptr<tulip::hook::CallingConvention>::~shared_ptr[abi:ne180000]()
PUBLIC 1d6c0 0 tulip::hook::HandlerMetadata::~HandlerMetadata()
PUBLIC 1d724 0 std::__ndk1::vector<tulip::hook::AbstractType, std::__ndk1::allocator<tulip::hook::AbstractType> >::__throw_length_error[abi:ne180000]() const
PUBLIC 1d738 0 std::__ndk1::__fs::filesystem::path::path[abi:ne180000]<std::__ndk1::basic_string<char, std::__ndk1::char_traits<char>, std::__ndk1::allocator<char> >, void>(std::__ndk1::__fs::filesystem::path::format)
PUBLIC 1d798 0 std::__ndk1::map<int, std::__ndk1::basic_string<char, std::__ndk1::char_traits<char>, std::__ndk1::allocator<char> >, std::__ndk1::less<int>, std::__ndk1::allocator<std::__ndk1::pair<int const, std::__ndk1::basic_string<char, std::__ndk1::char_traits<char>, std::__ndk1::allocator<char> > > > >::insert[abi:ne180000](std::__ndk1::pair<int const, std::__ndk1::basic_string<char, std::__ndk1::char_traits<char>, std::__ndk1::allocator<char> > >&&)
PUBLIC 1d870 0 std::__ndk1::__tree<std::__ndk1::__value_type<std::__ndk1::basic_string<char, std::__ndk1::char_traits<char>, std::__ndk1::allocator<char> >, std::__ndk1::shared_ptr<geode::Hook> >, std::__ndk1::__map_value_compare<std::__ndk1::basic_string<char, std::__ndk1::char_traits<char>, std::__ndk1::allocator<char> >, std::__ndk1::__value_type<std::__ndk1::basic_string<char, std::__ndk1::char_traits<char>, std::__ndk1::allocator<char> >, std::__ndk1::shared_ptr<geode::Hook> >, std::__ndk1::less<std::__ndk1::basic_string<char, std::__ndk1::char_traits<char>, std::__ndk1::allocator<char> > >, true>, std::__ndk1::allocator<std::__ndk1::__value_type<std::__ndk1::basic_string<char, std::__ndk1::char_traits<char>, std::__ndk1::allocator<char> >, std::__ndk1::shared_ptr<geode::Hook> > > >::__emplace_unique_key_args<std::__ndk1::basic_string<char, std::__ndk1::char_traits<char>, std::__ndk1::allocator<char> >, std::__ndk1::piecewise_construct_t const&, std::__ndk1::tuple<std::__ndk1::basic_string<char, std::__ndk1::char_traits<char>, std::__ndk1::allocator<char> >&&>, std::__ndk1::tuple<> >(std::__ndk1::basic_string<char, std::__ndk1::char_traits<char>, std::__ndk1::allocator<char> > const&, std::__ndk1::piecewise_construct_t const&, std::__ndk1::tuple<std::__ndk1::basic_string<char, std::__ndk1::char_traits<char>, std::__ndk1::allocator<char> >&&>, std::__ndk1::tuple<>)
PUBLIC 1d9d8 0 geode::modifier::ModifyDerive<MyCustomSongWidget, CustomSongWidget>::apply()
PUBLIC 1e8f8 0 geode::modifier::ModifyBase<geode::modifier::ModifyDerive<MyCustomSongWidget, CustomSongWidget> >::apply()
PUBLIC 1e8fc 0 geode::modifier::ModifyBase<geode::modifier::ModifyDerive<MyCustomSongWidget, CustomSongWidget> >::setHookPriority(std::__ndk1::basic_string_view<char, std::__ndk1::char_traits<char> >, int)
PUBLIC 1eb34 0 geode::modifier::AsStaticFunction_init<MyCustomSongWidget, bool (MyCustomSongWidget::*)(SongInfoObject*, CustomSongDelegate*, bool, bool, bool, bool, bool, bool, int)>::Impl<bool (MyCustomSongWidget::*)(SongInfoObject*, CustomSongDelegate*, bool, bool, bool, bool, bool, bool, int)>::function(MyCustomSongWidget*, SongInfoObject*, CustomSongDelegate*, bool, bool, bool, bool, bool, bool, int)
PUBLIC 1ecf8 0 geode::modifier::AsStaticFunction_updateSongInfo<MyCustomSongWidget, void (MyCustomSongWidget::*)()>::Impl<void (MyCustomSongWidget::*)()>::function(MyCustomSongWidget*)
PUBLIC 1f21c 0 geode::modifier::FieldIntermediate<MyCustomSongWidget, CustomSongWidget>::self()
PUBLIC 1f868 0 geode::modifier::FieldIntermediate<MyCustomSongWidget, CustomSongWidget>::fieldDestructor(void*)
PUBLIC 1f8cc 0 std::__ndk1::vector<void*, std::__ndk1::allocator<void*> >::__throw_length_error[abi:ne180000]() const
PUBLIC 1f8e0 0 std::__ndk1::vector<std::__ndk1::function<void (void*)>, std::__ndk1::allocator<std::__ndk1::function<void (void*)> > >::__throw_length_error[abi:ne180000]() const
PUBLIC 1f8f4 0 std::__ndk1::vector<void*, std::__ndk1::allocator<void*> >::__throw_out_of_range[abi:ne180000]() const
PUBLIC 1f900 0 std::__ndk1::__throw_out_of_range[abi:ne180000](char const*)
PUBLIC 1f950 0 std::out_of_range::out_of_range[abi:ne180000](char const*)
PUBLIC 1f980 0 std::__ndk1::vector<std::__ndk1::function<void (void*)>, std::__ndk1::allocator<std::__ndk1::function<void (void*)> > >::__throw_out_of_range[abi:ne180000]() const
PUBLIC 1f98c 0 std::__ndk1::__function::__base<void (void*)>::~__base()
PUBLIC 1f990 0 std::__ndk1::__function::__func<void (*)(void*), std::__ndk1::allocator<void (*)(void*)>, void (void*)>::~__func()
PUBLIC 1f994 0 std::__ndk1::__function::__func<void (*)(void*), std::__ndk1::allocator<void (*)(void*)>, void (void*)>::__clone() const
PUBLIC 1f9cc 0 std::__ndk1::__function::__func<void (*)(void*), std::__ndk1::allocator<void (*)(void*)>, void (void*)>::__clone(std::__ndk1::__function::__base<void (void*)>*) const
PUBLIC 1f9e4 0 std::__ndk1::__function::__func<void (*)(void*), std::__ndk1::allocator<void (*)(void*)>, void (void*)>::destroy()
PUBLIC 1f9e8 0 std::__ndk1::__function::__func<void (*)(void*), std::__ndk1::allocator<void (*)(void*)>, void (void*)>::destroy_deallocate()
PUBLIC 1f9ec 0 std::__ndk1::__function::__func<void (*)(void*), std::__ndk1::allocator<void (*)(void*)>, void (void*)>::operator()(void*&&)
PUBLIC 1f9fc 0 std::__ndk1::__function::__func<void (*)(void*), std::__ndk1::allocator<void (*)(void*)>, void (void*)>::target(std::type_info const&) const
PUBLIC 1fa18 0 std::__ndk1::__function::__func<void (*)(void*), std::__ndk1::allocator<void (*)(void*)>, void (void*)>::target_type() const
PUBLIC 1fa24 0 std::__ndk1::basic_string<char, std::__ndk1::char_traits<char>, std::__ndk1::allocator<char> >::__assign_external(char const*, unsigned long)
PUBLIC 1fb4c 0 MyCustomSongWidget::createBanButton(std::__ndk1::basic_string_view<char, std::__ndk1::char_traits<char> >, void (cocos2d::CCObject::*)(cocos2d::CCObject*))
PUBLIC 20054 0 MyCustomSongWidget::onSettingsNBSAA(cocos2d::CCObject*)
PUBLIC 200a4 0 MyCustomSongWidget::onBanArtistNBSAA(cocos2d::CCObject*)
PUBLIC 20438 0 MyCustomSongWidget::onBanSongNBSAA(cocos2d::CCObject*)
PUBLIC 20798 0 MyCustomSongWidget::cleanupBanMenu(std::__ndk1::basic_string<char, std::__ndk1::char_traits<char>, std::__ndk1::allocator<char> >&&)
PUBLIC 208bc 0 geode::modifier::ModifyDerive<MyPlayLayer, PlayLayer>::apply()
PUBLIC 20bbc 0 geode::modifier::ModifyBase<geode::modifier::ModifyDerive<MyPlayLayer, PlayLayer> >::apply()
PUBLIC 20bc0 0 geode::modifier::AsStaticFunction_onQuit<MyPlayLayer, void (MyPlayLayer::*)()>::Impl<void (MyPlayLayer::*)()>::function(MyPlayLayer*)
PUBLIC 20c48 0 _GLOBAL__sub_I_main.cpp
PUBLIC m 20d74 0 geodeImplicitEntry
PUBLIC 20db0 0 std::__ndk1::unordered_map<void*, bool, std::__ndk1::hash<void*>, std::__ndk1::equal_to<void*>, std::__ndk1::allocator<std::__ndk1::pair<void* const, bool> > >::~unordered_map[abi:ne180000]()
PUBLIC 20dfc 0 wrapFunction(unsigned long, tulip::hook::WrapperMetadata const&)
PUBLIC 20f30 0 geode::impl::ResultData<void*, std::__ndk1::basic_string<char, std::__ndk1::char_traits<char>, std::__ndk1::allocator<char> > >::unwrapErr() &
PUBLIC 20fa8 0 geode::impl::ResultData<void*, std::__ndk1::basic_string<char, std::__ndk1::char_traits<char>, std::__ndk1::allocator<char> > >::~ResultData()
PUBLIC 2101c 0 tulip::hook::WrapperMetadata::~WrapperMetadata()
PUBLIC 21080 0 cocos2d::CCObject::~CCObject()
PUBLIC 210a4 0 cocos2d::CCNode::CCNode()
PUBLIC 21300 0 cocos2d::CCNode::~CCNode()
PUBLIC 21324 0 FLAlertLayer::create(FLAlertLayerProtocol*, char const*, gd::string, char const*, char const*, float)
PUBLIC 214dc 0 tulip::hook::AbstractFunction::from<FLAlertLayer*, FLAlertLayerProtocol*, char const*, gd::string, char const*, char const*, float>(FLAlertLayer* (*)(FLAlertLayerProtocol*, char const*, gd::string, char const*, char const*, float))
PUBLIC 219c0 0 cocos2d::CCObject::update(float)
PUBLIC 219c4 0 cocos2d::CCNode::~CCNode()
PUBLIC 21c64 0 cocos2d::CCObject::~CCObject()
PUBLIC 22158 0 _ZN5geode15UnwrapExceptionC2IRPvQsr4implE18IsStringStreamableIT_EEENS_4impl5OkTagEOS4_
PUBLIC 222ac 0 std::__ndk1::__variant_detail::__visitation::__base::__dispatcher<(unsigned long)0>::__dispatch[abi:ne180000]<std::__ndk1::__variant_detail::__dtor<std::__ndk1::__variant_detail::__traits<void*, std::__ndk1::basic_string<char, std::__ndk1::char_traits<char>, std::__ndk1::allocator<char> > >, (std::__ndk1::__variant_detail::_Trait)1>::__destroy[abi:ne180000]()::{lambda(auto:1&)#1}, std::__ndk1::__variant_detail::__base<(std::__ndk1::__variant_detail::__traits<void*, std::__ndk1::basic_string<char, std::__ndk1::char_traits<char>, std::__ndk1::allocator<char> > >)1, std::__ndk1::__variant_detail::__traits, std::__ndk1::allocator<char> >&>(std::__ndk1::__variant_detail::__dtor<std::__ndk1::__variant_detail::__traits<void*, std::__ndk1::basic_string<char, std::__ndk1::char_traits<char>, std::__ndk1::allocator<char> > >, (std::__ndk1::__variant_detail::_Trait)1>, std::__ndk1::__variant_detail::__base<(std::__ndk1::__variant_detail::__traits<void*, std::__ndk1::basic_string<char, std::__ndk1::char_traits<char>, std::__ndk1::allocator<char> > >)1, std::__ndk1::__variant_detail::__traits, std::__ndk1::allocator<char> >&)
PUBLIC 222b0 0 std::__ndk1::__variant_detail::__visitation::__base::__dispatcher<(unsigned long)1>::__dispatch[abi:ne180000]<std::__ndk1::__variant_detail::__dtor<std::__ndk1::__variant_detail::__traits<void*, std::__ndk1::basic_string<char, std::__ndk1::char_traits<char>, std::__ndk1::allocator<char> > >, (std::__ndk1::__variant_detail::_Trait)1>::__destroy[abi:ne180000]()::{lambda(auto:1&)#1}, std::__ndk1::__variant_detail::__base<(std::__ndk1::__variant_detail::__traits<void*, std::__ndk1::basic_string<char, std::__ndk1::char_traits<char>, std::__ndk1::allocator<char> > >)1, std::__ndk1::__variant_detail::__traits, std::__ndk1::allocator<char> >&>(std::__ndk1::__variant_detail::__dtor<std::__ndk1::__variant_detail::__traits<void*, std::__ndk1::basic_string<char, std::__ndk1::char_traits<char>, std::__ndk1::allocator<char> > >, (std::__ndk1::__variant_detail::_Trait)1>, std::__ndk1::__variant_detail::__base<(std::__ndk1::__variant_detail::__traits<void*, std::__ndk1::basic_string<char, std::__ndk1::char_traits<char>, std::__ndk1::allocator<char> > >)1, std::__ndk1::__variant_detail::__traits, std::__ndk1::allocator<char> >&)
PUBLIC 222c4 0 std::__ndk1::__hash_table<std::__ndk1::__hash_value_type<void*, bool>, std::__ndk1::__unordered_map_hasher<void*, std::__ndk1::__hash_value_type<void*, bool>, std::__ndk1::hash<void*>, std::__ndk1::equal_to<void*>, true>, std::__ndk1::__unordered_map_equal<void*, std::__ndk1::__hash_value_type<void*, bool>, std::__ndk1::equal_to<void*>, std::__ndk1::hash<void*>, true>, std::__ndk1::allocator<std::__ndk1::__hash_value_type<void*, bool> > >::__emplace_unique_key_args<void*, std::__ndk1::piecewise_construct_t const&, std::__ndk1::tuple<void* const&>, std::__ndk1::tuple<> >(void* const&, std::__ndk1::piecewise_construct_t const&, std::__ndk1::tuple<void* const&>, std::__ndk1::tuple<>)
PUBLIC 227d0 0 __udivti3
PUBLIC 227dc 0 __udivmodti4
PUBLIC m 22a28 0 __eqtf2
PUBLIC 22ac8 0 __unordtf2
PUBLIC 22b00 0 fmt::v11::detail::write_loc(fmt::v11::basic_appender<char>, fmt::v11::loc_value, fmt::v11::format_specs const&, fmt::v11::detail::locale_ref)
PUBLIC 22d94 0 fmt::v11::format_facet<std::__ndk1::locale>::~format_facet()
PUBLIC 22e10 0 fmt::v11::report_error(char const*)
PUBLIC 22e60 0 fmt::v11::format_error::runtime_error(char const*)
PUBLIC 22e8c 0 fmt::v11::format_facet<std::__ndk1::locale>::do_put(fmt::v11::basic_appender<char>, fmt::v11::loc_value, fmt::v11::format_specs const&) const
PUBLIC 2364c 0 fmt::v11::detail::loc_writer<char>::~loc_writer()
PUBLIC 236b0 0 fmt::v11::detail::vformat_to<char>(fmt::v11::detail::buffer<char>&, fmt::v11::basic_string_view<char>, fmt::v11::detail::vformat_args<char>::type, fmt::v11::detail::locale_ref)
PUBLIC 23c20 0 fmt::v11::detail::is_printable(unsigned int)
PUBLIC 23e48 0 fmt::v11::detail::dragonbox::to_decimal<float>(float)
PUBLIC 24124 0 fmt::v11::detail::dragonbox::to_decimal<double>(double)
PUBLIC 24660 0 fmt::v11::basic_memory_buffer<char, (unsigned long)500, std::__ndk1::allocator<char> >::grow(fmt::v11::detail::buffer<char>&, unsigned long)
PUBLIC 246d8 0 fmt::v11::format_facet<std::__ndk1::locale>::~format_facet()
PUBLIC 24764 0 fmt::v11::format_error::~format_error()
PUBLIC 24788 0 fmt::v11::detail::copy_noinline<char, char const*, fmt::v11::basic_appender<char> >(char const*, char const*, fmt::v11::basic_appender<char>)
PUBLIC 248d8 0 fmt::v11::detail::default_arg_formatter<char>::operator()<bool>(bool)
PUBLIC 24940 0 fmt::v11::detail::default_arg_formatter<char>::operator()<char>(char)
PUBLIC 249d0 0 fmt::v11::detail::default_arg_formatter<char>::operator()<float>(float)
PUBLIC 24abc 0 fmt::v11::detail::default_arg_formatter<char>::operator()<double>(double)
PUBLIC 24ba8 0 fmt::v11::detail::default_arg_formatter<char>::operator()<char const*>(char const*)
PUBLIC 24bf0 0 fmt::v11::detail::default_arg_formatter<char>::operator()<void const*>(void const*)
PUBLIC 24c88 0 _ZN3fmt3v116detail5writeIcNS0_14basic_appenderIcEEiTnNSt6__ndk19enable_ifIXaaaasr11is_integralIT1_EE5valuentsr3std7is_sameIS7_bEE5valuentsr3std7is_sameIS7_T_EE5valueEiE4typeELi0EEET0_SB_S7_
PUBLIC 24ee8 0 fmt::v11::detail::copy_noinline<char, char*, fmt::v11::basic_appender<char> >(char*, char*, fmt::v11::basic_appender<char>)
PUBLIC 25038 0 _ZN3fmt3v116detail5writeIcNS0_14basic_appenderIcEEjTnNSt6__ndk19enable_ifIXaaaasr11is_integralIT1_EE5valuentsr3std7is_sameIS7_bEE5valuentsr3std7is_sameIS7_T_EE5valueEiE4typeELi0EEET0_SB_S7_
PUBLIC 25218 0 _ZN3fmt3v116detail5writeIcNS0_14basic_appenderIcEExTnNSt6__ndk19enable_ifIXaaaasr11is_integralIT1_EE5valuentsr3std7is_sameIS7_bEE5valuentsr3std7is_sameIS7_T_EE5valueEiE4typeELi0EEET0_SB_S7_
PUBLIC 2549c 0 _ZN3fmt3v116detail5writeIcNS0_14basic_appenderIcEEyTnNSt6__ndk19enable_ifIXaaaasr11is_integralIT1_EE5valuentsr3std7is_sameIS7_bEE5valuentsr3std7is_sameIS7_T_EE5valueEiE4typeELi0EEET0_SB_S7_
PUBLIC 256a4 0 _ZN3fmt3v116detail5writeIcNS0_14basic_appenderIcEEnTnNSt6__ndk19enable_ifIXaaaasr11is_integralIT1_EE5valuentsr3std7is_sameIS7_bEE5valuentsr3std7is_sameIS7_T_EE5valueEiE4typeELi0EEET0_SB_S7_
PUBLIC 25a04 0 _ZN3fmt3v116detail5writeIcNS0_14basic_appenderIcEEoTnNSt6__ndk19enable_ifIXaaaasr11is_integralIT1_EE5valuentsr3std7is_sameIS7_bEE5valuentsr3std7is_sameIS7_T_EE5valueEiE4typeELi0EEET0_SB_S7_
PUBLIC 25d18 0 _ZN3fmt3v116detail5writeIcNS0_14basic_appenderIcEEbTnNSt6__ndk19enable_ifIXsr3std7is_sameIT1_bEE5valueEiE4typeELi0EEET0_SA_S7_RKNS0_12format_specsENS1_10locale_refE
PUBLIC 25fa8 0 fmt::v11::detail::write_int_noinline<char, fmt::v11::basic_appender<char>, unsigned int>(fmt::v11::basic_appender<char>, fmt::v11::detail::write_int_arg<unsigned int>, fmt::v11::format_specs const&, fmt::v11::detail::locale_ref)
PUBLIC 26d84 0 fmt::v11::detail::fill<char, fmt::v11::basic_appender<char> >(fmt::v11::basic_appender<char>, unsigned long, fmt::v11::detail::fill_t const&)
PUBLIC 26f54 0 fmt::v11::detail::write_padded<char, (fmt::v11::align::type)1, fmt::v11::basic_appender<char>, fmt::v11::detail::write_char<char, fmt::v11::basic_appender<char> >(fmt::v11::basic_appender<char>, char, fmt::v11::format_specs const&)::{lambda(fmt::v11::basic_appender<char>&)#1}>(fmt::v11::basic_appender<char>, fmt::v11::format_specs const&, unsigned long, unsigned long, fmt::v11::detail::write_char<char, fmt::v11::basic_appender<char> >(fmt::v11::basic_appender<char>, char, fmt::v11::format_specs const&)::{lambda(fmt::v11::basic_appender<char>&)#1})
PUBLIC 27190 0 fmt::v11::detail::write_escaped_cp<fmt::v11::basic_appender<char>, char>(fmt::v11::basic_appender<char>, fmt::v11::detail::find_escape_result<char> const&)
PUBLIC 2749c 0 fmt::v11::detail::write_codepoint<(unsigned long)2, char, fmt::v11::basic_appender<char> >(fmt::v11::basic_appender<char>, char, unsigned int)
PUBLIC 27614 0 fmt::v11::detail::write_codepoint<(unsigned long)8, char, fmt::v11::basic_appender<char> >(fmt::v11::basic_appender<char>, char, unsigned int)
PUBLIC 2778c 0 fmt::v11::detail::write_padded<char, (fmt::v11::align::type)1, fmt::v11::basic_appender<char>, fmt::v11::detail::write_nonfinite<char, fmt::v11::basic_appender<char> >(fmt::v11::basic_appender<char>, bool, fmt::v11::format_specs, fmt::v11::sign::type)::{lambda(fmt::v11::basic_appender<char>&)#1}>(fmt::v11::basic_appender<char>, fmt::v11::format_specs const&, unsigned long, unsigned long, fmt::v11::detail::write_nonfinite<char, fmt::v11::basic_appender<char> >(fmt::v11::basic_appender<char>, bool, fmt::v11::format_specs, fmt::v11::sign::type)::{lambda(fmt::v11::basic_appender<char>&)#1})
PUBLIC 279cc 0 fmt::v11::detail::do_write_float<char, fmt::v11::basic_appender<char>, fmt::v11::detail::dragonbox::decimal_fp<float>, fmt::v11::detail::digit_grouping<char> >(fmt::v11::basic_appender<char>, fmt::v11::detail::dragonbox::decimal_fp<float> const&, fmt::v11::format_specs const&, fmt::v11::detail::float_specs, fmt::v11::detail::locale_ref)
PUBLIC 28640 0 fmt::v11::detail::do_write_float<char, fmt::v11::basic_appender<char>, fmt::v11::detail::dragonbox::decimal_fp<float>, fmt::v11::detail::digit_grouping<char> >(fmt::v11::basic_appender<char>, fmt::v11::detail::dragonbox::decimal_fp<float> const&, fmt::v11::format_specs const&, fmt::v11::detail::float_specs, fmt::v11::detail::locale_ref)::{lambda(fmt::v11::basic_appender<char>(fmt::v11::basic_appender<char>))#1}::operator() const
PUBLIC 28794 0 fmt::v11::detail::digit_grouping<char>::digit_grouping(fmt::v11::detail::locale_ref, bool)
PUBLIC 28a00 0 fmt::v11::detail::digit_grouping<char>::~digit_grouping()
PUBLIC 28a44 0 fmt::v11::detail::write_exponent<char, fmt::v11::basic_appender<char> >(int, fmt::v11::basic_appender<char>)
PUBLIC 28c14 0 _ZN3fmt3v116detail17write_significandIcjTnNSt6__ndk19enable_ifIXsr3std11is_integralIT0_EE5valueEiE4typeELi0EEEPT_S9_S5_iiS8_
PUBLIC 28d90 0 fmt::v11::detail::digit_grouping<char>::apply<fmt::v11::basic_appender<char>, char>(fmt::v11::basic_appender<char>, fmt::v11::basic_string_view<char>) const
PUBLIC 29148 0 fmt::v11::basic_memory_buffer<int, (unsigned long)500, std::__ndk1::allocator<int> >::grow(fmt::v11::detail::buffer<int>&, unsigned long)
PUBLIC 291e8 0 fmt::v11::detail::do_write_float<char, fmt::v11::basic_appender<char>, fmt::v11::detail::dragonbox::decimal_fp<double>, fmt::v11::detail::digit_grouping<char> >(fmt::v11::basic_appender<char>, fmt::v11::detail::dragonbox::decimal_fp<double> const&, fmt::v11::format_specs const&, fmt::v11::detail::float_specs, fmt::v11::detail::locale_ref)
PUBLIC 29e9c 0 fmt::v11::detail::do_write_float<char, fmt::v11::basic_appender<char>, fmt::v11::detail::dragonbox::decimal_fp<double>, fmt::v11::detail::digit_grouping<char> >(fmt::v11::basic_appender<char>, fmt::v11::detail::dragonbox::decimal_fp<double> const&, fmt::v11::format_specs const&, fmt::v11::detail::float_specs, fmt::v11::detail::locale_ref)::{lambda(fmt::v11::basic_appender<char>(fmt::v11::basic_appender<char>))#1}::operator() const
PUBLIC 29ff4 0 _ZN3fmt3v116detail17write_significandIcmTnNSt6__ndk19enable_ifIXsr3std11is_integralIT0_EE5valueEiE4typeELi0EEEPT_S9_S5_iiS8_
PUBLIC 2a184 0 fmt::v11::detail::write_float<char, fmt::v11::basic_appender<char>, long double>(fmt::v11::basic_appender<char>, long double, fmt::v11::format_specs, fmt::v11::detail::locale_ref)
PUBLIC 2ac80 0 fmt::v11::detail::write_padded<char, (fmt::v11::align::type)2, fmt::v11::basic_appender<char>, fmt::v11::detail::write_bytes<char, (fmt::v11::align::type)2, fmt::v11::basic_appender<char> >(fmt::v11::basic_appender<char>, fmt::v11::basic_string_view<char>, fmt::v11::format_specs const&)::{lambda(fmt::v11::basic_appender<char>&)#1}>(fmt::v11::basic_appender<char>, fmt::v11::format_specs const&, unsigned long, unsigned long, fmt::v11::detail::write_bytes<char, (fmt::v11::align::type)2, fmt::v11::basic_appender<char> >(fmt::v11::basic_appender<char>, fmt::v11::basic_string_view<char>, fmt::v11::format_specs const&)::{lambda(fmt::v11::basic_appender<char>&)#1})
PUBLIC 2ae5c 0 fmt::v11::detail::format_dragon(fmt::v11::detail::basic_fp<unsigned __int128>, unsigned int, int, fmt::v11::detail::buffer<char>&, int&)
PUBLIC 2c28c 0 fmt::v11::detail::bigint::operator<<=(int)
PUBLIC 2c3b0 0 fmt::v11::detail::bigint::assign_pow10(int)
PUBLIC 2cb0c 0 fmt::v11::detail::bigint::divmod_assign(fmt::v11::detail::bigint const&)
PUBLIC 2ce2c 0 fmt::v11::basic_memory_buffer<unsigned int, (unsigned long)32, std::__ndk1::allocator<unsigned int> >::grow(fmt::v11::detail::buffer<unsigned int>&, unsigned long)
PUBLIC 2cecc 0 fmt::v11::detail::do_write_float<char, fmt::v11::basic_appender<char>, fmt::v11::detail::big_decimal_fp, fmt::v11::detail::digit_grouping<char> >(fmt::v11::basic_appender<char>, fmt::v11::detail::big_decimal_fp const&, fmt::v11::format_specs const&, fmt::v11::detail::float_specs, fmt::v11::detail::locale_ref)
PUBLIC 2dd7c 0 fmt::v11::detail::do_write_float<char, fmt::v11::basic_appender<char>, fmt::v11::detail::big_decimal_fp, fmt::v11::detail::digit_grouping<char> >(fmt::v11::basic_appender<char>, fmt::v11::detail::big_decimal_fp const&, fmt::v11::format_specs const&, fmt::v11::detail::float_specs, fmt::v11::detail::locale_ref)::{lambda(fmt::v11::basic_appender<char>(fmt::v11::basic_appender<char>))#1}::operator() const
PUBLIC 2dedc 0 fmt::v11::detail::write_padded<char, (fmt::v11::align::type)2, fmt::v11::basic_appender<char>, fmt::v11::detail::write_ptr<char, fmt::v11::basic_appender<char>, unsigned long>(fmt::v11::basic_appender<char>, unsigned long, fmt::v11::format_specs const*)::{lambda(fmt::v11::basic_appender<char>&)#1}>(fmt::v11::basic_appender<char>, fmt::v11::format_specs const&, unsigned long, unsigned long, fmt::v11::detail::write_ptr<char, fmt::v11::basic_appender<char>, unsigned long>(fmt::v11::basic_appender<char>, unsigned long, fmt::v11::format_specs const*)::{lambda(fmt::v11::basic_appender<char>&)#1})
PUBLIC 2e0f0 0 fmt::v11::detail::parse_replacement_field<char, fmt::v11::detail::vformat_to<char>(fmt::v11::detail::buffer<char>&, fmt::v11::basic_string_view<char>, fmt::v11::detail::vformat_args<char>::type, fmt::v11::detail::locale_ref)::format_handler&>(char const*, char const*, fmt::v11::detail::vformat_to<char>(fmt::v11::detail::buffer<char>&, fmt::v11::basic_string_view<char>, fmt::v11::detail::vformat_args<char>::type, fmt::v11::detail::locale_ref)::format_handler&)
PUBLIC 2fd8c 0 fmt::v11::detail::parse_dynamic_spec<char>(char const*, char const*, int&, fmt::v11::detail::arg_ref<char>&, fmt::v11::basic_format_parse_context<char>&)
PUBLIC 3001c 0 fmt::v11::basic_format_args<fmt::v11::context>::get<char>(fmt::v11::basic_string_view<char>) const
PUBLIC 30174 0 fmt::v11::detail::write_int_noinline<char, fmt::v11::basic_appender<char>, unsigned long>(fmt::v11::basic_appender<char>, fmt::v11::detail::write_int_arg<unsigned long>, fmt::v11::format_specs const&, fmt::v11::detail::locale_ref)
PUBLIC 30fc8 0 fmt::v11::detail::write_int_noinline<char, fmt::v11::basic_appender<char>, unsigned __int128>(fmt::v11::basic_appender<char>, fmt::v11::detail::write_int_arg<unsigned __int128>, fmt::v11::format_specs const&, fmt::v11::detail::locale_ref)
PUBLIC 32030 0 _ZN3fmt3v116detail15format_hexfloatIdTnNSt6__ndk19enable_ifIXntsr16is_double_doubleIT_EE5valueEiE4typeELi0EEEvS5_NS0_12format_specsERNS1_6bufferIcEE
PUBLIC 32550 0 fmt::v11::detail::format_float<double>(double, int, fmt::v11::detail::float_specs, fmt::v11::detail::buffer<char>&)
PUBLIC 32ef0 0 fmt::v11::detail::write<char, fmt::v11::basic_appender<char> >(fmt::v11::basic_appender<char>, fmt::v11::basic_string_view<char>, fmt::v11::format_specs const&)
PUBLIC 3425c 0 fmt::v11::detail::for_each_codepoint<fmt::v11::detail::compute_width(fmt::v11::basic_string_view<char>)::count_code_points>(fmt::v11::basic_string_view<char>, fmt::v11::detail::compute_width(fmt::v11::basic_string_view<char>)::count_code_points)::{lambda(char const*, char const*)#1}::operator()(char const*, char const*) const
PUBLIC 34414 0 fmt::v11::detail::write_int<fmt::v11::basic_appender<char>, unsigned long, char>(fmt::v11::basic_appender<char>, unsigned long, unsigned int, fmt::v11::format_specs const&, fmt::v11::detail::digit_grouping<char> const&)
PUBLIC 34990 0 fmt::v11::detail::write_int<fmt::v11::basic_appender<char>, unsigned __int128, char>(fmt::v11::basic_appender<char>, unsigned __int128, unsigned int, fmt::v11::format_specs const&, fmt::v11::detail::digit_grouping<char> const&)
PUBLIC 35010 0 <.plt ELF section in raydeeux.neutralizebadsongs.android64.so>
STACK CFI INIT 122f0 10 .cfa: sp 0 +
STACK CFI INIT 12300 8 .cfa: sp 0 +
STACK CFI INIT 12308 8 .cfa: sp 0 +
STACK CFI INIT 12310 14 .cfa: sp 0 +
STACK CFI INIT 12324 1c .cfa: sp 0 +
STACK CFI INIT 12340 10 .cfa: sp 0 +
STACK CFI INIT 12350 30 .cfa: sp 0 +
STACK CFI INIT 12380 98 .cfa: sp 0 +
STACK CFI INIT 12418 59c .cfa: sp 0 +
STACK CFI INIT 129b4 8c .cfa: sp 0 +
STACK CFI INIT 12a40 30 .cfa: sp 0 +
STACK CFI INIT 13284 50 .cfa: sp 0 +
STACK CFI 13288 .cfa: sp 32 +
STACK CFI 13290 .cfa: x29 32 + x19: .cfa -16 + ^ .ra: .cfa -24 + ^ x29: .cfa -32 + ^
STACK CFI 132a8 .cfa: sp 32 +
STACK CFI 132b0 .cfa: sp 0 +
STACK CFI 132b4 .cfa: x29 32 +
STACK CFI 132c8 .cfa: sp 32 +
STACK CFI 132d0 .cfa: sp 0 +
STACK CFI INIT 132d4 50 .cfa: sp 0 +
STACK CFI 132d8 .cfa: sp 32 +
STACK CFI 132e0 .cfa: x29 32 + x19: .cfa -16 + ^ .ra: .cfa -24 + ^ x29: .cfa -32 + ^
STACK CFI 132f8 .cfa: sp 32 +
STACK CFI 13300 .cfa: sp 0 +
STACK CFI 13304 .cfa: x29 32 +
STACK CFI 13318 .cfa: sp 32 +
STACK CFI 13320 .cfa: sp 0 +
STACK CFI INIT 13324 24 .cfa: sp 0 +
STACK CFI 13328 .cfa: sp 32 +
STACK CFI 13330 .cfa: x29 32 + x19: .cfa -16 + ^ .ra: .cfa -24 + ^ x29: .cfa -32 + ^
STACK CFI 1333c .cfa: sp 32 +
STACK CFI 13344 .cfa: sp 0 +
STACK CFI INIT 13348 8 .cfa: sp 0 +
STACK CFI INIT 13350 8 .cfa: sp 0 +
STACK CFI INIT 13358 8 .cfa: sp 0 +
STACK CFI INIT 13360 4 .cfa: sp 0 +
STACK CFI INIT 13364 8 .cfa: sp 0 +
STACK CFI INIT 1336c bc .cfa: sp 0 +
STACK CFI 13370 .cfa: sp 32 +
STACK CFI 13378 .cfa: x29 32 + x19: .cfa -8 + ^ x20: .cfa -16 + ^ .ra: .cfa -24 + ^ x29: .cfa -32 + ^
STACK CFI 133b4 .cfa: sp 32 +
STACK CFI 133bc .cfa: sp 0 +
STACK CFI 133c0 .cfa: x29 32 +
STACK CFI 1341c .cfa: sp 32 +
STACK CFI 13424 .cfa: sp 0 +
STACK CFI INIT 13428 cc .cfa: sp 0 +
STACK CFI 1342c .cfa: sp 32 +
STACK CFI 13434 .cfa: x29 32 + x19: .cfa -8 + ^ x20: .cfa -16 + ^ .ra: .cfa -24 + ^ x29: .cfa -32 + ^
STACK CFI 13478 .cfa: sp 32 +
STACK CFI 13480 .cfa: sp 0 +
STACK CFI 13484 .cfa: x29 32 +
STACK CFI 134e8 .cfa: sp 32 +
STACK CFI 134f0 .cfa: sp 0 +
STACK CFI INIT 134f4 4 .cfa: sp 0 +
STACK CFI INIT 134f8 4 .cfa: sp 0 +
STACK CFI INIT 134fc 8 .cfa: sp 0 +
STACK CFI INIT 13504 8 .cfa: sp 0 +
STACK CFI INIT 1350c 10 .cfa: sp 0 +
STACK CFI 13510 .cfa: sp 16 +
STACK CFI 13514 .cfa: x29 16 + .ra: .cfa -8 + ^ x29: .cfa -16 + ^
STACK CFI INIT 137c4 34 .cfa: sp 0 +
STACK CFI 137c8 .cfa: sp 16 +
STACK CFI 137cc .cfa: x29 16 + .ra: .cfa -8 + ^ x29: .cfa -16 + ^
STACK CFI INIT 137f8 34 .cfa: sp 0 +
STACK CFI 137fc .cfa: sp 16 +
STACK CFI 13800 .cfa: x29 16 + .ra: .cfa -8 + ^ x29: .cfa -16 + ^
STACK CFI INIT 1382c 50 .cfa: sp 0 +
STACK CFI 13830 .cfa: sp 32 +
STACK CFI 13838 .cfa: x29 32 + x19: .cfa -8 + ^ x20: .cfa -16 + ^ .ra: .cfa -24 + ^ x29: .cfa -32 + ^
STACK CFI 13870 .cfa: sp 32 +
STACK CFI 13878 .cfa: sp 0 +
STACK CFI INIT 13ccc 110 .cfa: sp 0 +
STACK CFI 13cd0 .cfa: sp 96 +
STACK CFI 13ce4 .cfa: x29 64 + x19: .cfa -8 + ^ x20: .cfa -16 + ^ x21: .cfa -24 + ^ x22: .cfa -32 + ^ x23: .cfa -40 + ^ x24: .cfa -48 + ^ .ra: .cfa -56 + ^ x29: .cfa -64 + ^
STACK CFI 13db4 .cfa: sp 96 +
STACK CFI 13dc8 .cfa: sp 0 +
STACK CFI 13dcc .cfa: x29 64 +
STACK CFI INIT 13ddc 108 .cfa: sp 0 +
STACK CFI 13de0 .cfa: sp 48 +
STACK CFI 13dec .cfa: x29 48 + x19: .cfa -8 + ^ x20: .cfa -16 + ^ x21: .cfa -32 + ^ .ra: .cfa -40 + ^ x29: .cfa -48 + ^
STACK CFI 13e68 .cfa: sp 48 +
STACK CFI 13e74 .cfa: sp 0 +
STACK CFI 13e78 .cfa: x29 48 +
STACK CFI 13ed4 .cfa: sp 48 +
STACK CFI 13ee0 .cfa: sp 0 +
STACK CFI INIT 15f88 50 .cfa: sp 0 +
STACK CFI 15f8c .cfa: sp 32 +
STACK CFI 15f94 .cfa: x29 32 + x19: .cfa -16 + ^ .ra: .cfa -24 + ^ x29: .cfa -32 + ^
STACK CFI 15fac .cfa: sp 32 +
STACK CFI 15fb4 .cfa: sp 0 +
STACK CFI 15fb8 .cfa: x29 32 +
STACK CFI 15fcc .cfa: sp 32 +
STACK CFI 15fd4 .cfa: sp 0 +
STACK CFI INIT 174dc 50 .cfa: sp 0 +
STACK CFI 174e0 .cfa: sp 32 +
STACK CFI 174e8 .cfa: x29 32 + x19: .cfa -8 + ^ x20: .cfa -16 + ^ .ra: .cfa -24 + ^ x29: .cfa -32 + ^
STACK CFI 17520 .cfa: sp 32 +
STACK CFI 17528 .cfa: sp 0 +
STACK CFI INIT 17ae4 14 .cfa: sp 0 +
STACK CFI 17ae8 .cfa: sp 16 +
STACK CFI 17aec .cfa: x29 16 + .ra: .cfa -8 + ^ x29: .cfa -16 + ^
STACK CFI INIT 17b48 30 .cfa: sp 0 +
STACK CFI 17b4c .cfa: sp 32 +
STACK CFI 17b54 .cfa: x29 32 + x19: .cfa -16 + ^ .ra: .cfa -24 + ^ x29: .cfa -32 + ^
STACK CFI 17b6c .cfa: sp 32 +
STACK CFI 17b74 .cfa: sp 0 +
STACK CFI INIT 17b78 34 .cfa: sp 0 +
STACK CFI 17b7c .cfa: sp 32 +
STACK CFI 17b84 .cfa: x29 32 + x19: .cfa -16 + ^ .ra: .cfa -24 + ^ x29: .cfa -32 + ^
STACK CFI INIT 17bac 14 .cfa: sp 0 +
STACK CFI 17bb0 .cfa: sp 16 +
STACK CFI 17bb4 .cfa: x29 16 + .ra: .cfa -8 + ^ x29: .cfa -16 + ^
STACK CFI INIT 17de8 68 .cfa: sp 0 +
STACK CFI 17dec .cfa: sp 32 +
STACK CFI 17df4 .cfa: x29 32 + x19: .cfa -8 + ^ x20: .cfa -16 + ^ .ra: .cfa -24 + ^ x29: .cfa -32 + ^
STACK CFI 17e0c .cfa: sp 32 +
STACK CFI 17e14 .cfa: sp 0 +
STACK CFI 17e18 .cfa: x29 32 +
STACK CFI 17e44 .cfa: sp 32 +
STACK CFI 17e4c .cfa: sp 0 +
STACK CFI INIT 17e50 14 .cfa: sp 0 +
STACK CFI 17e54 .cfa: sp 16 +
STACK CFI 17e58 .cfa: x29 16 + .ra: .cfa -8 + ^ x29: .cfa -16 + ^
STACK CFI INIT 17e64 80 .cfa: sp 0 +
STACK CFI 17e68 .cfa: sp 48 +
STACK CFI 17e74 .cfa: x29 48 + x19: .cfa -8 + ^ x20: .cfa -16 + ^ x21: .cfa -24 + ^ x22: .cfa -32 + ^ .ra: .cfa -40 + ^ x29: .cfa -48 + ^
STACK CFI 17e8c .cfa: sp 48 +
STACK CFI 17e98 .cfa: sp 0 +
STACK CFI 17e9c .cfa: x29 48 +
STACK CFI 17ecc .cfa: sp 48 +
STACK CFI 17ed8 .cfa: sp 0 +
STACK CFI 17edc .cfa: x29 48 +
STACK CFI INIT 17ee4 e8 .cfa: sp 0 +
STACK CFI 17ee8 .cfa: sp 32 +
STACK CFI 17ef0 .cfa: x29 32 + x19: .cfa -8 + ^ x20: .cfa -16 + ^ .ra: .cfa -24 + ^ x29: .cfa -32 + ^
STACK CFI 17f30 .cfa: sp 32 +
STACK CFI 17f38 .cfa: sp 0 +
STACK CFI 17f3c .cfa: x29 32 +
STACK CFI 17f78 .cfa: sp 32 +
STACK CFI 17f80 .cfa: sp 0 +
STACK CFI 17f84 .cfa: x29 32 +
STACK CFI 17fa4 .cfa: sp 32 +
STACK CFI 17fac .cfa: sp 0 +
STACK CFI 17fb0 .cfa: x29 32 +
STACK CFI 17fc0 .cfa: sp 32 +
STACK CFI 17fc8 .cfa: sp 0 +
STACK CFI INIT 17fcc ac .cfa: sp 0 +
STACK CFI 17fd0 .cfa: sp 64 +
STACK CFI 17fe0 .cfa: x29 64 + x19: .cfa -8 + ^ x20: .cfa -16 + ^ x21: .cfa -24 + ^ x22: .cfa -32 + ^ x23: .cfa -48 + ^ .ra: .cfa -56 + ^ x29: .cfa -64 + ^
STACK CFI 1805c .cfa: sp 64 +
STACK CFI 1806c .cfa: sp 0 +
STACK CFI 18070 .cfa: x29 64 +
STACK CFI INIT 18078 110 .cfa: sp 0 +
STACK CFI 1807c .cfa: sp 64 +
STACK CFI 1808c .cfa: x29 64 + x19: .cfa -8 + ^ x20: .cfa -16 + ^ x21: .cfa -24 + ^ x22: .cfa -32 + ^ x23: .cfa -40 + ^ x24: .cfa -48 + ^ .ra: .cfa -56 + ^ x29: .cfa -64 + ^
STACK CFI 1816c .cfa: sp 64 +
STACK CFI 1817c .cfa: sp 0 +
STACK CFI 18180 .cfa: x29 64 +
STACK CFI INIT 18188 4 .cfa: sp 0 +
STACK CFI INIT 1818c 14 .cfa: sp 0 +
STACK CFI INIT 181a0 4 .cfa: sp 0 +
STACK CFI INIT 181a4 14 .cfa: sp 0 +
STACK CFI INIT 182ec 104 .cfa: sp 0 +
STACK CFI 182f0 .cfa: sp 64 +
STACK CFI 18300 .cfa: x29 64 + x19: .cfa -8 + ^ x20: .cfa -16 + ^ x21: .cfa -24 + ^ x22: .cfa -32 + ^ x23: .cfa -48 + ^ .ra: .cfa -56 + ^ x29: .cfa -64 + ^
STACK CFI 1835c .cfa: sp 64 +
STACK CFI 1836c .cfa: sp 0 +
STACK CFI 18370 .cfa: x29 64 +
STACK CFI 1838c .cfa: sp 64 +
STACK CFI 1839c .cfa: sp 0 +
STACK CFI 183a0 .cfa: x29 64 +
STACK CFI 183dc .cfa: sp 64 +
STACK CFI 183ec .cfa: sp 0 +
STACK CFI INIT 183f0 50 .cfa: sp 0 +
STACK CFI 183f4 .cfa: sp 32 +
STACK CFI 183fc .cfa: x29 32 + x19: .cfa -16 + ^ .ra: .cfa -24 + ^ x29: .cfa -32 + ^
STACK CFI 18414 .cfa: sp 32 +
STACK CFI 1841c .cfa: sp 0 +
STACK CFI 18420 .cfa: x29 32 +
STACK CFI 18434 .cfa: sp 32 +
STACK CFI 1843c .cfa: sp 0 +
STACK CFI INIT 18440 50 .cfa: sp 0 +
STACK CFI 18444 .cfa: sp 32 +
STACK CFI 1844c .cfa: x29 32 + x19: .cfa -16 + ^ .ra: .cfa -24 + ^ x29: .cfa -32 + ^
STACK CFI 18464 .cfa: sp 32 +
STACK CFI 1846c .cfa: sp 0 +
STACK CFI 18470 .cfa: x29 32 +
STACK CFI 18484 .cfa: sp 32 +
STACK CFI 1848c .cfa: sp 0 +
STACK CFI INIT 18490 50 .cfa: sp 0 +
STACK CFI 18494 .cfa: sp 32 +
STACK CFI 1849c .cfa: x29 32 + x19: .cfa -8 + ^ x20: .cfa -16 + ^ .ra: .cfa -24 + ^ x29: .cfa -32 + ^
STACK CFI 184d4 .cfa: sp 32 +
STACK CFI 184dc .cfa: sp 0 +
STACK CFI INIT 18b64 50 .cfa: sp 0 +
STACK CFI 18b6c .cfa: sp 32 +
STACK CFI 18b74 .cfa: x29 32 + x19: .cfa -8 + ^ x20: .cfa -16 + ^ .ra: .cfa -24 + ^ x29: .cfa -32 + ^
STACK CFI 18ba4 .cfa: sp 32 +
STACK CFI 18bac .cfa: sp 0 +
STACK CFI INIT 19ab4 18 .cfa: sp 0 +
STACK CFI INIT 19fc8 18 .cfa: sp 0 +
STACK CFI INIT 1a464 18 .cfa: sp 0 +
STACK CFI INIT 1a874 10 .cfa: sp 0 +
STACK CFI INIT 1a884 30 .cfa: sp 0 +
STACK CFI 1a888 .cfa: sp 32 +
STACK CFI 1a890 .cfa: x29 32 + x19: .cfa -16 + ^ .ra: .cfa -24 + ^ x29: .cfa -32 + ^
STACK CFI 1a8a8 .cfa: sp 32 +
STACK CFI 1a8b0 .cfa: sp 0 +
STACK CFI INIT 1a8b4 c .cfa: sp 0 +
STACK CFI INIT 1a8c0 4 .cfa: sp 0 +
STACK CFI INIT 1a8c4 34 .cfa: sp 0 +
STACK CFI 1a8c8 .cfa: sp 16 +
STACK CFI 1a8cc .cfa: x29 16 + .ra: .cfa -8 + ^ x29: .cfa -16 + ^
STACK CFI INIT 1a8f8 24 .cfa: sp 0 +
STACK CFI 1a8fc .cfa: sp 32 +
STACK CFI 1a904 .cfa: x29 32 + x19: .cfa -16 + ^ .ra: .cfa -24 + ^ x29: .cfa -32 + ^
STACK CFI 1a910 .cfa: sp 32 +
STACK CFI 1a918 .cfa: sp 0 +
STACK CFI INIT 1a91c 4 .cfa: sp 0 +
STACK CFI INIT 1a920 4 .cfa: sp 0 +
STACK CFI INIT 1a924 34 .cfa: sp 0 +
STACK CFI 1a928 .cfa: sp 32 +
STACK CFI 1a930 .cfa: x29 32 + x19: .cfa -16 + ^ .ra: .cfa -24 + ^ x29: .cfa -32 + ^
STACK CFI 1a94c .cfa: sp 32 +
STACK CFI 1a954 .cfa: sp 0 +
STACK CFI INIT 1a958 14 .cfa: sp 0 +
STACK CFI INIT 1a96c 4 .cfa: sp 0 +
STACK CFI INIT 1a970 4 .cfa: sp 0 +
STACK CFI INIT 1a974 14 .cfa: sp 0 +
STACK CFI INIT 1a988 1c .cfa: sp 0 +
STACK CFI INIT 1a9a4 c .cfa: sp 0 +
STACK CFI INIT 1aaa8 50 .cfa: sp 0 +
STACK CFI 1aaac .cfa: sp 32 +
STACK CFI 1aab4 .cfa: x29 32 + x19: .cfa -16 + ^ .ra: .cfa -24 + ^ x29: .cfa -32 + ^
STACK CFI 1aacc .cfa: sp 32 +
STACK CFI 1aad4 .cfa: sp 0 +
STACK CFI 1aad8 .cfa: x29 32 +
STACK CFI 1aaec .cfa: sp 32 +
STACK CFI 1aaf4 .cfa: sp 0 +
STACK CFI INIT 1aaf8 4 .cfa: sp 0 +
STACK CFI INIT 1aafc 38 .cfa: sp 0 +
STACK CFI 1ab00 .cfa: sp 32 +
STACK CFI 1ab08 .cfa: x29 32 + x19: .cfa -16 + ^ .ra: .cfa -24 + ^ x29: .cfa -32 + ^
STACK CFI 1ab28 .cfa: sp 32 +
STACK CFI 1ab30 .cfa: sp 0 +
STACK CFI INIT 1ab34 18 .cfa: sp 0 +
STACK CFI INIT 1ab4c 4 .cfa: sp 0 +
STACK CFI INIT 1ab50 4 .cfa: sp 0 +
STACK CFI INIT 1ad58 1c .cfa: sp 0 +
STACK CFI INIT 1ad74 c .cfa: sp 0 +
STACK CFI INIT 1ad80 4 .cfa: sp 0 +
STACK CFI INIT 1aef8 9c .cfa: sp 0 +
STACK CFI 1aefc .cfa: sp 32 +
STACK CFI 1af04 .cfa: x29 32 + x19: .cfa -8 + ^ x20: .cfa -16 + ^ .ra: .cfa -24 + ^ x29: .cfa -32 + ^
STACK CFI 1af88 .cfa: sp 32 +
STACK CFI 1af90 .cfa: sp 0 +
STACK CFI INIT 1af94 a4 .cfa: sp 0 +
STACK CFI 1af98 .cfa: sp 32 +
STACK CFI 1afa0 .cfa: x29 32 + x19: .cfa -8 + ^ x20: .cfa -16 + ^ .ra: .cfa -24 + ^ x29: .cfa -32 + ^
STACK CFI 1b02c .cfa: sp 32 +
STACK CFI 1b034 .cfa: sp 0 +
STACK CFI INIT 1b038 4 .cfa: sp 0 +
STACK CFI INIT 1b03c 38 .cfa: sp 0 +
STACK CFI 1b040 .cfa: sp 32 +
STACK CFI 1b048 .cfa: x29 32 + x19: .cfa -16 + ^ .ra: .cfa -24 + ^ x29: .cfa -32 + ^
STACK CFI 1b068 .cfa: sp 32 +
STACK CFI 1b070 .cfa: sp 0 +
STACK CFI INIT 1b074 18 .cfa: sp 0 +
STACK CFI INIT 1b08c 4 .cfa: sp 0 +
STACK CFI INIT 1b090 4 .cfa: sp 0 +
STACK CFI INIT 1b25c 1c .cfa: sp 0 +
STACK CFI INIT 1b278 c .cfa: sp 0 +
STACK CFI INIT 1b284 50 .cfa: sp 0 +
STACK CFI 1b288 .cfa: sp 32 +
STACK CFI 1b290 .cfa: x29 32 + x19: .cfa -16 + ^ .ra: .cfa -24 + ^ x29: .cfa -32 + ^
STACK CFI 1b2a8 .cfa: sp 32 +
STACK CFI 1b2b0 .cfa: sp 0 +
STACK CFI 1b2b4 .cfa: x29 32 +
STACK CFI 1b2c8 .cfa: sp 32 +
STACK CFI 1b2d0 .cfa: sp 0 +
STACK CFI INIT 1b2d4 4 .cfa: sp 0 +
STACK CFI INIT 1b2d8 4 .cfa: sp 0 +
STACK CFI INIT 1b2dc 38 .cfa: sp 0 +
STACK CFI 1b2e0 .cfa: sp 32 +
STACK CFI 1b2e8 .cfa: x29 32 + x19: .cfa -16 + ^ .ra: .cfa -24 + ^ x29: .cfa -32 + ^
STACK CFI 1b308 .cfa: sp 32 +
STACK CFI 1b310 .cfa: sp 0 +
STACK CFI INIT 1b314 18 .cfa: sp 0 +
STACK CFI INIT 1b32c 4 .cfa: sp 0 +
STACK CFI INIT 1b330 4 .cfa: sp 0 +
STACK CFI INIT 1b6ac 1c .cfa: sp 0 +
STACK CFI INIT 1b6c8 c .cfa: sp 0 +
STACK CFI INIT 1b6d4 4 .cfa: sp 0 +
STACK CFI INIT 1b84c 5c .cfa: sp 0 +
STACK CFI 1b850 .cfa: sp 32 +
STACK CFI 1b858 .cfa: x29 32 + x19: .cfa -16 + ^ .ra: .cfa -24 + ^ x29: .cfa -32 + ^
STACK CFI 1b89c .cfa: sp 32 +
STACK CFI 1b8a4 .cfa: sp 0 +
STACK CFI INIT 1b8a8 64 .cfa: sp 0 +
STACK CFI 1b8ac .cfa: sp 32 +
STACK CFI 1b8b4 .cfa: x29 32 + x19: .cfa -16 + ^ .ra: .cfa -24 + ^ x29: .cfa -32 + ^
STACK CFI 1b900 .cfa: sp 32 +
STACK CFI 1b908 .cfa: sp 0 +
STACK CFI INIT 1b90c 4 .cfa: sp 0 +
STACK CFI INIT 1b910 4 .cfa: sp 0 +
STACK CFI INIT 1b914 34 .cfa: sp 0 +
STACK CFI 1b918 .cfa: sp 32 +
STACK CFI 1b920 .cfa: x29 32 + x19: .cfa -16 + ^ .ra: .cfa -24 + ^ x29: .cfa -32 + ^
STACK CFI 1b93c .cfa: sp 32 +
STACK CFI 1b944 .cfa: sp 0 +
STACK CFI INIT 1b948 14 .cfa: sp 0 +
STACK CFI INIT 1b95c 4 .cfa: sp 0 +
STACK CFI INIT 1b960 4 .cfa: sp 0 +
STACK CFI INIT 1b964 10 .cfa: sp 0 +
STACK CFI INIT 1b974 1c .cfa: sp 0 +
STACK CFI INIT 1b990 c .cfa: sp 0 +
STACK CFI INIT 1bd0c 50 .cfa: sp 0 +
STACK CFI 1bd10 .cfa: sp 32 +
STACK CFI 1bd18 .cfa: x29 32 + x19: .cfa -16 + ^ .ra: .cfa -24 + ^ x29: .cfa -32 + ^
STACK CFI 1bd30 .cfa: sp 32 +
STACK CFI 1bd38 .cfa: sp 0 +
STACK CFI 1bd3c .cfa: x29 32 +
STACK CFI 1bd50 .cfa: sp 32 +
STACK CFI 1bd58 .cfa: sp 0 +
STACK CFI INIT 1bdd0 7c .cfa: sp 0 +
STACK CFI 1bdd4 .cfa: sp 48 +
STACK CFI 1bde0 .cfa: x29 48 + x19: .cfa -8 + ^ x20: .cfa -16 + ^ x21: .cfa -32 + ^ .ra: .cfa -40 + ^ x29: .cfa -48 + ^
STACK CFI 1be2c .cfa: sp 48 +
STACK CFI 1be38 .cfa: sp 0 +
STACK CFI 1be3c .cfa: sp 48 +
STACK CFI 1be48 .cfa: sp 0 +
STACK CFI INIT 1be4c 4 .cfa: sp 0 +
STACK CFI INIT 1be50 120 .cfa: sp 0 +
STACK CFI 1be54 .cfa: sp 64 +
STACK CFI 1be64 .cfa: x29 64 + x19: .cfa -8 + ^ x20: .cfa -16 + ^ x21: .cfa -24 + ^ x22: .cfa -32 + ^ x23: .cfa -40 + ^ x24: .cfa -48 + ^ .ra: .cfa -56 + ^ x29: .cfa -64 + ^
STACK CFI 1bf5c .cfa: sp 64 +
STACK CFI 1bf6c .cfa: sp 0 +
STACK CFI INIT 1c144 7c .cfa: sp 0 +
STACK CFI 1c148 .cfa: sp 32 +
STACK CFI 1c150 .cfa: x29 32 + x19: .cfa -8 + ^ x20: .cfa -16 + ^ .ra: .cfa -24 + ^ x29: .cfa -32 + ^
STACK CFI 1c1a8 .cfa: sp 32 +
STACK CFI 1c1b0 .cfa: sp 0 +
STACK CFI 1c1b4 .cfa: sp 32 +
STACK CFI 1c1bc .cfa: sp 0 +
STACK CFI INIT 1c1c0 1b0 .cfa: sp 0 +
STACK CFI INIT 1c5f0 80 .cfa: sp 0 +
STACK CFI 1c5f4 .cfa: sp 48 +
STACK CFI 1c600 .cfa: x29 48 + x19: .cfa -8 + ^ x20: .cfa -16 + ^ x21: .cfa -32 + ^ .ra: .cfa -40 + ^ x29: .cfa -48 + ^
STACK CFI 1c660 .cfa: sp 48 +
STACK CFI 1c66c .cfa: sp 0 +
STACK CFI INIT 1c7e8 148 .cfa: sp 0 +
STACK CFI 1c7ec .cfa: sp 48 +
STACK CFI 1c7f8 .cfa: x29 48 + x19: .cfa -8 + ^ x20: .cfa -16 + ^ x21: .cfa -32 + ^ .ra: .cfa -40 + ^ x29: .cfa -48 + ^
STACK CFI 1c920 .cfa: sp 48 +
STACK CFI 1c92c .cfa: sp 0 +
STACK CFI INIT 1ca98 4 .cfa: sp 0 +
STACK CFI INIT 1ca9c 14 .cfa: sp 0 +
STACK CFI INIT 1cab0 4a4 .cfa: sp 0 +
STACK CFI 1cab4 .cfa: sp 32 +
STACK CFI 1cabc .cfa: x29 32 + x19: .cfa -8 + ^ x20: .cfa -16 + ^ .ra: .cfa -24 + ^ x29: .cfa -32 + ^
STACK CFI 1ce9c .cfa: sp 32 +
STACK CFI 1cea4 .cfa: sp 0 +
STACK CFI 1cea8 .cfa: x29 32 +
STACK CFI INIT 1cf54 84 .cfa: sp 0 +
STACK CFI 1cf5c .cfa: sp 32 +
STACK CFI 1cf64 .cfa: x29 32 + x19: .cfa -8 + ^ x20: .cfa -16 + ^ .ra: .cfa -24 + ^ x29: .cfa -32 + ^
STACK CFI 1cfa4 .cfa: sp 32 +
STACK CFI 1cfac .cfa: sp 0 +
STACK CFI 1cfb4 .cfa: x29 32 +
STACK CFI INIT 1d670 50 .cfa: sp 0 +
STACK CFI 1d674 .cfa: sp 32 +
STACK CFI 1d67c .cfa: x29 32 + x19: .cfa -16 + ^ .ra: .cfa -24 + ^ x29: .cfa -32 + ^
STACK CFI 1d694 .cfa: sp 32 +
STACK CFI 1d69c .cfa: sp 0 +
STACK CFI 1d6a0 .cfa: x29 32 +
STACK CFI 1d6b4 .cfa: sp 32 +
STACK CFI 1d6bc .cfa: sp 0 +
STACK CFI INIT 1d6c0 64 .cfa: sp 0 +
STACK CFI 1d6c4 .cfa: sp 32 +
STACK CFI 1d6cc .cfa: x29 32 + x19: .cfa -16 + ^ .ra: .cfa -24 + ^ x29: .cfa -32 + ^
STACK CFI 1d6f8 .cfa: sp 32 +
STACK CFI 1d700 .cfa: sp 0 +
STACK CFI 1d704 .cfa: x29 32 +
STACK CFI 1d718 .cfa: sp 32 +
STACK CFI 1d720 .cfa: sp 0 +
STACK CFI INIT 1d724 14 .cfa: sp 0 +
STACK CFI 1d728 .cfa: sp 16 +
STACK CFI 1d72c .cfa: x29 16 + .ra: .cfa -8 + ^ x29: .cfa -16 + ^
STACK CFI INIT 1d798 d8 .cfa: sp 0 +
STACK CFI 1d79c .cfa: sp 64 +
STACK CFI 1d7ac .cfa: x29 64 + x19: .cfa -8 + ^ x20: .cfa -16 + ^ x21: .cfa -24 + ^ x22: .cfa -32 + ^ x23: .cfa -48 + ^ .ra: .cfa -56 + ^ x29: .cfa -64 + ^
STACK CFI 1d85c .cfa: sp 64 +
STACK CFI 1d86c .cfa: sp 0 +
STACK CFI INIT 1d870 168 .cfa: sp 0 +
STACK CFI 1d874 .cfa: sp 80 +
STACK CFI 1d888 .cfa: x29 80 + x19: .cfa -8 + ^ x20: .cfa -16 + ^ x21: .cfa -24 + ^ x22: .cfa -32 + ^ x23: .cfa -40 + ^ x24: .cfa -48 + ^ x25: .cfa -56 + ^ x26: .cfa -64 + ^ .ra: .cfa -72 + ^ x29: .cfa -80 + ^
STACK CFI 1d9c0 .cfa: sp 80 +
STACK CFI 1d9d4 .cfa: sp 0 +
STACK CFI INIT 1e8f8 4 .cfa: sp 0 +
STACK CFI INIT 1f868 64 .cfa: sp 0 +
STACK CFI 1f86c .cfa: sp 32 +
STACK CFI 1f874 .cfa: x29 32 + x19: .cfa -16 + ^ .ra: .cfa -24 + ^ x29: .cfa -32 + ^
STACK CFI 1f890 .cfa: sp 32 +
STACK CFI 1f898 .cfa: sp 0 +
STACK CFI 1f89c .cfa: x29 32 +
STACK CFI 1f8c0 .cfa: sp 32 +
STACK CFI 1f8c8 .cfa: sp 0 +
STACK CFI INIT 1f8cc 14 .cfa: sp 0 +
STACK CFI 1f8d0 .cfa: sp 16 +
STACK CFI 1f8d4 .cfa: x29 16 + .ra: .cfa -8 + ^ x29: .cfa -16 + ^
STACK CFI INIT 1f8e0 14 .cfa: sp 0 +
STACK CFI 1f8e4 .cfa: sp 16 +
STACK CFI 1f8e8 .cfa: x29 16 + .ra: .cfa -8 + ^ x29: .cfa -16 + ^
STACK CFI INIT 1f8f4 c .cfa: sp 0 +
STACK CFI 1f8f8 .cfa: sp 16 +
STACK CFI 1f8fc .cfa: x29 16 + .ra: .cfa -8 + ^ x29: .cfa -16 + ^
STACK CFI INIT 1f950 30 .cfa: sp 0 +
STACK CFI 1f954 .cfa: sp 32 +
STACK CFI 1f95c .cfa: x29 32 + x19: .cfa -16 + ^ .ra: .cfa -24 + ^ x29: .cfa -32 + ^
STACK CFI 1f974 .cfa: sp 32 +
STACK CFI 1f97c .cfa: sp 0 +
STACK CFI INIT 1f980 c .cfa: sp 0 +
STACK CFI 1f984 .cfa: sp 16 +
STACK CFI 1f988 .cfa: x29 16 + .ra: .cfa -8 + ^ x29: .cfa -16 + ^
STACK CFI INIT 1f98c 4 .cfa: sp 0 +
STACK CFI INIT 1f990 4 .cfa: sp 0 +
STACK CFI INIT 1f994 38 .cfa: sp 0 +
STACK CFI 1f998 .cfa: sp 32 +
STACK CFI 1f9a0 .cfa: x29 32 + x19: .cfa -16 + ^ .ra: .cfa -24 + ^ x29: .cfa -32 + ^
STACK CFI 1f9c0 .cfa: sp 32 +
STACK CFI 1f9c8 .cfa: sp 0 +
STACK CFI INIT 1f9cc 18 .cfa: sp 0 +
STACK CFI INIT 1f9e4 4 .cfa: sp 0 +
STACK CFI INIT 1f9e8 4 .cfa: sp 0 +
STACK CFI INIT 1f9ec 10 .cfa: sp 0 +
STACK CFI INIT 1f9fc 1c .cfa: sp 0 +
STACK CFI INIT 1fa18 c .cfa: sp 0 +
STACK CFI INIT 1fa24 128 .cfa: sp 0 +
STACK CFI 1fa28 .cfa: sp 80 +
STACK CFI 1fa3c .cfa: x29 80 + x19: .cfa -8 + ^ x20: .cfa -16 + ^ x21: .cfa -24 + ^ x22: .cfa -32 + ^ x23: .cfa -40 + ^ x24: .cfa -48 + ^ x25: .cfa -64 + ^ .ra: .cfa -72 + ^ x29: .cfa -80 + ^
STACK CFI 1fb2c .cfa: sp 80 +
STACK CFI 1fb40 .cfa: sp 0 +
STACK CFI 1fb44 .cfa: x29 80 +
STACK CFI INIT 20054 50 .cfa: sp 0 +
STACK CFI 20058 .cfa: sp 32 +
STACK CFI 20060 .cfa: x29 32 + x19: .cfa -16 + ^ .ra: .cfa -24 + ^ x29: .cfa -32 + ^
STACK CFI 20074 .cfa: sp 32 +
STACK CFI 2007c .cfa: sp 0 +
STACK CFI 20080 .cfa: sp 32 +
STACK CFI 20088 .cfa: sp 0 +
STACK CFI 2008c .cfa: x29 32 +
STACK CFI 20098 .cfa: sp 32 +
STACK CFI 200a0 .cfa: sp 0 +
STACK CFI INIT 20798 124 .cfa: sp 0 +
STACK CFI 2079c .cfa: sp 64 +
STACK CFI 207ac .cfa: x29 48 + x19: .cfa -8 + ^ x20: .cfa -16 + ^ x21: .cfa -32 + ^ .ra: .cfa -40 + ^ x29: .cfa -48 + ^
STACK CFI 20820 .cfa: sp 64 +
STACK CFI 20830 .cfa: sp 0 +
STACK CFI 20834 .cfa: x29 48 +
STACK CFI INIT 20bbc 4 .cfa: sp 0 +
STACK CFI INIT 20bc0 88 .cfa: sp 0 +
STACK CFI 20bc4 .cfa: sp 48 +
STACK CFI 20bd0 .cfa: x29 48 + x19: .cfa -8 + ^ x20: .cfa -16 + ^ x21: .cfa -32 + ^ .ra: .cfa -40 + ^ x29: .cfa -48 + ^
STACK CFI 20c38 .cfa: sp 48 +
STACK CFI 20c44 .cfa: sp 0 +
STACK CFI INIT 20d74 3c .cfa: sp 0 +
STACK CFI 20d78 .cfa: sp 32 +
STACK CFI 20d80 .cfa: x29 32 + x19: .cfa -16 + ^ .ra: .cfa -24 + ^ x29: .cfa -32 + ^
STACK CFI 20d8c .cfa: sp 32 +
STACK CFI 20d94 .cfa: sp 0 +
STACK CFI 20d98 .cfa: x29 32 +
STACK CFI 20da4 .cfa: sp 32 +
STACK CFI 20dac .cfa: sp 0 +
STACK CFI INIT 20db0 4c .cfa: sp 0 +
STACK CFI 20db4 .cfa: sp 32 +
STACK CFI 20dbc .cfa: x29 32 + x19: .cfa -8 + ^ x20: .cfa -16 + ^ .ra: .cfa -24 + ^ x29: .cfa -32 + ^
STACK CFI 20de4 .cfa: sp 32 +
STACK CFI 20dec .cfa: sp 0 +
STACK CFI 20df0 .cfa: sp 32 +
STACK CFI 20df8 .cfa: sp 0 +
STACK CFI INIT 2101c 64 .cfa: sp 0 +
STACK CFI 21020 .cfa: sp 32 +
STACK CFI 21028 .cfa: x29 32 + x19: .cfa -16 + ^ .ra: .cfa -24 + ^ x29: .cfa -32 + ^
STACK CFI 21054 .cfa: sp 32 +
STACK CFI 2105c .cfa: sp 0 +
STACK CFI 21060 .cfa: x29 32 +
STACK CFI 21074 .cfa: sp 32 +
STACK CFI 2107c .cfa: sp 0 +
STACK CFI INIT 21080 24 .cfa: sp 0 +
STACK CFI 21084 .cfa: sp 32 +
STACK CFI 2108c .cfa: x29 32 + x19: .cfa -16 + ^ .ra: .cfa -24 + ^ x29: .cfa -32 + ^
STACK CFI 21098 .cfa: sp 32 +
STACK CFI 210a0 .cfa: sp 0 +
STACK CFI INIT 21300 24 .cfa: sp 0 +
STACK CFI 21304 .cfa: sp 32 +
STACK CFI 2130c .cfa: x29 32 + x19: .cfa -16 + ^ .ra: .cfa -24 + ^ x29: .cfa -32 + ^
STACK CFI 21318 .cfa: sp 32 +
STACK CFI 21320 .cfa: sp 0 +
STACK CFI INIT 219c0 4 .cfa: sp 0 +
STACK CFI INIT 222ac 4 .cfa: sp 0 +
STACK CFI INIT 222b0 14 .cfa: sp 0 +
STACK CFI INIT 227d0 c .cfa: sp 0 +
STACK CFI INIT 227dc 24c .cfa: sp 0 +
STACK CFI INIT 22a28 a0 .cfa: sp 0 +
STACK CFI 22a34 .cfa: sp 32 +
STACK CFI 22a8c .cfa: sp 0 +
STACK CFI 22a90 .cfa: sp 32 +
STACK CFI 22a98 .cfa: sp 0 +
STACK CFI 22a9c .cfa: sp 32 +
STACK CFI 22ab0 .cfa: sp 0 +
STACK CFI 22ab4 .cfa: sp 32 +
STACK CFI 22ac4 .cfa: sp 0 +
STACK CFI INIT 22ac8 38 .cfa: sp 0 +
STACK CFI 22ad4 .cfa: sp 32 +
STACK CFI 22afc .cfa: sp 0 +
STACK CFI INIT 22d94 7c .cfa: sp 0 +
STACK CFI 22d98 .cfa: sp 32 +
STACK CFI 22da0 .cfa: x29 32 + x19: .cfa -16 + ^ .ra: .cfa -24 + ^ x29: .cfa -32 + ^
STACK CFI 22dcc .cfa: sp 32 +
STACK CFI 22dd4 .cfa: sp 0 +
STACK CFI 22dd8 .cfa: x29 32 +
STACK CFI 22e04 .cfa: sp 32 +
STACK CFI 22e0c .cfa: sp 0 +
STACK CFI INIT 22e60 2c .cfa: sp 0 +
STACK CFI 22e64 .cfa: sp 32 +
STACK CFI 22e6c .cfa: x29 32 + x19: .cfa -16 + ^ .ra: .cfa -24 + ^ x29: .cfa -32 + ^
STACK CFI 22e80 .cfa: sp 32 +
STACK CFI 22e88 .cfa: sp 0 +
STACK CFI INIT 2364c 64 .cfa: sp 0 +
STACK CFI 23650 .cfa: sp 32 +
STACK CFI 23658 .cfa: x29 32 + x19: .cfa -16 + ^ .ra: .cfa -24 + ^ x29: .cfa -32 + ^
STACK CFI 23674 .cfa: sp 32 +
STACK CFI 2367c .cfa: sp 0 +
STACK CFI 23680 .cfa: x29 32 +
STACK CFI 236a4 .cfa: sp 32 +
STACK CFI 236ac .cfa: sp 0 +
STACK CFI INIT 236b0 570 .cfa: sp 0 +
STACK CFI 236b4 .cfa: sp 176 +
STACK CFI 236c8 .cfa: x29 64 + x19: .cfa -8 + ^ x20: .cfa -16 + ^ x21: .cfa -24 + ^ x22: .cfa -32 + ^ x23: .cfa -40 + ^ x24: .cfa -48 + ^ .ra: .cfa -56 + ^ x29: .cfa -64 + ^
STACK CFI 238f8 .cfa: sp 176 +
STACK CFI 2390c .cfa: sp 0 +
STACK CFI 23910 .cfa: x29 64 +
STACK CFI 2395c .cfa: sp 176 +
STACK CFI 23970 .cfa: sp 0 +
STACK CFI 23974 .cfa: x29 64 +
STACK CFI 239ac .cfa: sp 176 +
STACK CFI 239c0 .cfa: sp 0 +
STACK CFI 239c4 .cfa: x29 64 +
STACK CFI 239dc .cfa: sp 176 +
STACK CFI 239f0 .cfa: sp 0 +
STACK CFI 239f4 .cfa: x29 64 +
STACK CFI 23a14 .cfa: sp 176 +
STACK CFI 23a28 .cfa: sp 0 +
STACK CFI 23a2c .cfa: x29 64 +
STACK CFI 23a44 .cfa: sp 176 +
STACK CFI 23a58 .cfa: sp 0 +
STACK CFI 23a5c .cfa: x29 64 +
STACK CFI 23a70 .cfa: sp 176 +
STACK CFI 23a84 .cfa: sp 0 +
STACK CFI 23a88 .cfa: x29 64 +
STACK CFI 23a9c .cfa: sp 176 +
STACK CFI 23ab0 .cfa: sp 0 +
STACK CFI 23ab4 .cfa: x29 64 +
STACK CFI 23ac4 .cfa: sp 176 +
STACK CFI 23ad8 .cfa: sp 0 +
STACK CFI 23adc .cfa: x29 64 +
STACK CFI 23aec .cfa: sp 176 +
STACK CFI 23b00 .cfa: sp 0 +
STACK CFI 23b04 .cfa: x29 64 +
STACK CFI 23b1c .cfa: sp 176 +
STACK CFI 23b30 .cfa: sp 0 +
STACK CFI 23b34 .cfa: x29 64 +
STACK CFI 23b48 .cfa: sp 176 +
STACK CFI 23b5c .cfa: sp 0 +
STACK CFI 23b60 .cfa: x29 64 +
STACK CFI 23b78 .cfa: sp 176 +
STACK CFI 23b8c .cfa: sp 0 +
STACK CFI 23b90 .cfa: x29 64 +
STACK CFI 23bbc .cfa: sp 176 +
STACK CFI 23bd0 .cfa: sp 0 +
STACK CFI 23bd4 .cfa: x29 64 +
STACK CFI 23be8 .cfa: sp 176 +
STACK CFI 23bfc .cfa: sp 0 +
STACK CFI 23c00 .cfa: x29 64 +
STACK CFI INIT 23c20 228 .cfa: sp 0 +
STACK CFI INIT 23e48 2dc .cfa: sp 0 +
STACK CFI INIT 24124 53c .cfa: sp 0 +
STACK CFI INIT 24660 78 .cfa: sp 0 +
STACK CFI 24664 .cfa: sp 48 +
STACK CFI 24670 .cfa: x29 48 + x19: .cfa -8 + ^ x20: .cfa -16 + ^ x21: .cfa -24 + ^ x22: .cfa -32 + ^ .ra: .cfa -40 + ^ x29: .cfa -48 + ^
STACK CFI 246b8 .cfa: sp 48 +
STACK CFI 246c4 .cfa: sp 0 +
STACK CFI 246c8 .cfa: sp 48 +
STACK CFI 246d4 .cfa: sp 0 +
STACK CFI INIT 246d8 8c .cfa: sp 0 +
STACK CFI 246dc .cfa: sp 32 +
STACK CFI 246e4 .cfa: x29 32 + x19: .cfa -16 + ^ .ra: .cfa -24 + ^ x29: .cfa -32 + ^
STACK CFI 24718 .cfa: sp 32 +
STACK CFI 24720 .cfa: sp 0 +
STACK CFI 24724 .cfa: x29 32 +
STACK CFI 24758 .cfa: sp 32 +
STACK CFI 24760 .cfa: sp 0 +
STACK CFI INIT 24764 24 .cfa: sp 0 +
STACK CFI 24768 .cfa: sp 32 +
STACK CFI 24770 .cfa: x29 32 + x19: .cfa -16 + ^ .ra: .cfa -24 + ^ x29: .cfa -32 + ^
STACK CFI 2477c .cfa: sp 32 +
STACK CFI 24784 .cfa: sp 0 +
STACK CFI INIT 24788 150 .cfa: sp 0 +
STACK CFI 2478c .cfa: sp 48 +
STACK CFI 24798 .cfa: x29 48 + x19: .cfa -8 + ^ x20: .cfa -16 + ^ x21: .cfa -24 + ^ x22: .cfa -32 + ^ .ra: .cfa -40 + ^ x29: .cfa -48 + ^
STACK CFI 248c8 .cfa: sp 48 +
STACK CFI 248d4 .cfa: sp 0 +
STACK CFI INIT 248d8 68 .cfa: sp 0 +
STACK CFI 248dc .cfa: sp 64 +
STACK CFI 248e8 .cfa: x29 32 + x19: .cfa -16 + ^ .ra: .cfa -24 + ^ x29: .cfa -32 + ^
STACK CFI 2492c .cfa: sp 64 +
STACK CFI 24938 .cfa: sp 0 +
STACK CFI 2493c .cfa: x29 32 +
STACK CFI INIT 24940 90 .cfa: sp 0 +
STACK CFI 24944 .cfa: sp 32 +
STACK CFI 2494c .cfa: x29 32 + x19: .cfa -8 + ^ x20: .cfa -16 + ^ .ra: .cfa -24 + ^ x29: .cfa -32 + ^
STACK CFI 24978 .cfa: sp 32 +
STACK CFI 24980 .cfa: sp 0 +
STACK CFI 24984 .cfa: x29 32 +
STACK CFI 249c4 .cfa: sp 32 +
STACK CFI 249cc .cfa: sp 0 +
STACK CFI INIT 249d0 ec .cfa: sp 0 +
STACK CFI 249d4 .cfa: sp 112 +
STACK CFI 249e4 .cfa: x29 48 + x19: .cfa -8 + ^ x20: .cfa -16 + ^ x21: .cfa -32 + ^ .ra: .cfa -40 + ^ x29: .cfa -48 + ^
STACK CFI 24aa4 .cfa: sp 112 +
STACK CFI 24ab4 .cfa: sp 0 +
STACK CFI 24ab8 .cfa: x29 48 +
STACK CFI INIT 24abc ec .cfa: sp 0 +
STACK CFI 24ac0 .cfa: sp 112 +
STACK CFI 24ad0 .cfa: x29 48 + x19: .cfa -8 + ^ x20: .cfa -16 + ^ x21: .cfa -32 + ^ .ra: .cfa -40 + ^ x29: .cfa -48 + ^
STACK CFI 24b90 .cfa: sp 112 +
STACK CFI 24ba0 .cfa: sp 0 +
STACK CFI 24ba4 .cfa: x29 48 +
STACK CFI INIT 24ba8 48 .cfa: sp 0 +
STACK CFI 24bac .cfa: sp 32 +
STACK CFI 24bb4 .cfa: x29 32 + x19: .cfa -8 + ^ x20: .cfa -16 + ^ .ra: .cfa -24 + ^ x29: .cfa -32 + ^
STACK CFI 24bd8 .cfa: sp 32 +
STACK CFI 24be0 .cfa: sp 0 +
STACK CFI 24be4 .cfa: x29 32 +
STACK CFI INIT 24bf0 98 .cfa: sp 0 +
STACK CFI 24bf4 .cfa: sp 80 +
STACK CFI 24c00 .cfa: x29 32 + x19: .cfa -16 + ^ .ra: .cfa -24 + ^ x29: .cfa -32 + ^
STACK CFI 24c74 .cfa: sp 80 +
STACK CFI 24c80 .cfa: sp 0 +
STACK CFI 24c84 .cfa: x29 32 +
STACK CFI INIT 24c88 260 .cfa: sp 0 +
STACK CFI 24c8c .cfa: sp 112 +
STACK CFI 24ca4 .cfa: x29 80 + x19: .cfa -8 + ^ x20: .cfa -16 + ^ x21: .cfa -24 + ^ x22: .cfa -32 + ^ x23: .cfa -40 + ^ x24: .cfa -48 + ^ x25: .cfa -64 + ^ .ra: .cfa -72 + ^ x29: .cfa -80 + ^
STACK CFI 24e88 .cfa: sp 112 +
STACK CFI 24ea0 .cfa: sp 0 +
STACK CFI 24ea4 .cfa: x29 80 +
STACK CFI INIT 24ee8 150 .cfa: sp 0 +
STACK CFI 24eec .cfa: sp 48 +
STACK CFI 24ef8 .cfa: x29 48 + x19: .cfa -8 + ^ x20: .cfa -16 + ^ x21: .cfa -24 + ^ x22: .cfa -32 + ^ .ra: .cfa -40 + ^ x29: .cfa -48 + ^
STACK CFI 25028 .cfa: sp 48 +
STACK CFI 25034 .cfa: sp 0 +
STACK CFI INIT 25038 1e0 .cfa: sp 0 +
STACK CFI 2503c .cfa: sp 96 +
STACK CFI 25050 .cfa: x29 64 + x19: .cfa -8 + ^ x20: .cfa -16 + ^ x21: .cfa -24 + ^ x22: .cfa -32 + ^ x23: .cfa -40 + ^ x24: .cfa -48 + ^ .ra: .cfa -56 + ^ x29: .cfa -64 + ^
STACK CFI 251d0 .cfa: sp 96 +
STACK CFI 251e4 .cfa: sp 0 +
STACK CFI 251e8 .cfa: x29 64 +
STACK CFI INIT 25218 284 .cfa: sp 0 +
STACK CFI 2521c .cfa: sp 112 +
STACK CFI 25234 .cfa: x29 80 + x19: .cfa -8 + ^ x20: .cfa -16 + ^ x21: .cfa -24 + ^ x22: .cfa -32 + ^ x23: .cfa -40 + ^ x24: .cfa -48 + ^ x25: .cfa -64 + ^ .ra: .cfa -72 + ^ x29: .cfa -80 + ^
STACK CFI 2543c .cfa: sp 112 +
STACK CFI 25454 .cfa: sp 0 +
STACK CFI 25458 .cfa: x29 80 +
STACK CFI INIT 2549c 208 .cfa: sp 0 +
STACK CFI 254a0 .cfa: sp 96 +
STACK CFI 254b4 .cfa: x29 64 + x19: .cfa -8 + ^ x20: .cfa -16 + ^ x21: .cfa -24 + ^ x22: .cfa -32 + ^ x23: .cfa -40 + ^ x24: .cfa -48 + ^ .ra: .cfa -56 + ^ x29: .cfa -64 + ^
STACK CFI 2565c .cfa: sp 96 +
STACK CFI 25670 .cfa: sp 0 +
STACK CFI 25674 .cfa: x29 64 +
STACK CFI INIT 256a4 360 .cfa: sp 0 +
STACK CFI 256a8 .cfa: sp 160 +
STACK CFI 256c4 .cfa: x29 96 + x19: .cfa -8 + ^ x20: .cfa -16 + ^ x21: .cfa -24 + ^ x22: .cfa -32 + ^ x23: .cfa -40 + ^ x24: .cfa -48 + ^ x25: .cfa -56 + ^ x26: .cfa -64 + ^ x27: .cfa -72 + ^ x28: .cfa -80 + ^ .ra: .cfa -88 + ^ x29: .cfa -96 + ^
STACK CFI 25990 .cfa: sp 160 +
STACK CFI 259ac .cfa: sp 0 +
STACK CFI 259b0 .cfa: x29 96 +
STACK CFI INIT 25a04 314 .cfa: sp 0 +
STACK CFI 25a08 .cfa: sp 144 +
STACK CFI 25a24 .cfa: x29 96 + x19: .cfa -8 + ^ x20: .cfa -16 + ^ x21: .cfa -24 + ^ x22: .cfa -32 + ^ x23: .cfa -40 + ^ x24: .cfa -48 + ^ x25: .cfa -56 + ^ x26: .cfa -64 + ^ x27: .cfa -72 + ^ x28: .cfa -80 + ^ .ra: .cfa -88 + ^ x29: .cfa -96 + ^
STACK CFI 25ca0 .cfa: sp 144 +
STACK CFI 25cbc .cfa: sp 0 +
STACK CFI 25cc0 .cfa: x29 96 +
STACK CFI INIT 25d18 290 .cfa: sp 0 +
STACK CFI 25d1c .cfa: sp 128 +
STACK CFI 25d34 .cfa: x29 80 + x19: .cfa -8 + ^ x20: .cfa -16 + ^ x21: .cfa -24 + ^ x22: .cfa -32 + ^ x23: .cfa -40 + ^ x24: .cfa -48 + ^ x25: .cfa -56 + ^ x26: .cfa -64 + ^ .ra: .cfa -72 + ^ x29: .cfa -80 + ^
STACK CFI 25f88 .cfa: sp 128 +
STACK CFI 25fa0 .cfa: sp 0 +
STACK CFI 25fa4 .cfa: x29 80 +
STACK CFI INIT 25fa8 ddc .cfa: sp 0 +
STACK CFI 25fac .cfa: sp 144 +
STACK CFI 25fc8 .cfa: x29 96 + x19: .cfa -8 + ^ x20: .cfa -16 + ^ x21: .cfa -24 + ^ x22: .cfa -32 + ^ x23: .cfa -40 + ^ x24: .cfa -48 + ^ x25: .cfa -56 + ^ x26: .cfa -64 + ^ x27: .cfa -72 + ^ x28: .cfa -80 + ^ .ra: .cfa -88 + ^ x29: .cfa -96 + ^
STACK CFI 26c5c .cfa: sp 144 +
STACK CFI 26c78 .cfa: sp 0 +
STACK CFI 26c7c .cfa: x29 96 +
STACK CFI INIT 26d84 1d0 .cfa: sp 0 +
STACK CFI 26d88 .cfa: sp 80 +
STACK CFI 26d9c .cfa: x29 80 + x19: .cfa -8 + ^ x20: .cfa -16 + ^ x21: .cfa -24 + ^ x22: .cfa -32 + ^ x23: .cfa -40 + ^ x24: .cfa -48 + ^ x25: .cfa -64 + ^ .ra: .cfa -72 + ^ x29: .cfa -80 + ^
STACK CFI 26f3c .cfa: sp 80 +
STACK CFI 26f50 .cfa: sp 0 +
STACK CFI INIT 26f54 23c .cfa: sp 0 +
STACK CFI 26f58 .cfa: sp 112 +
STACK CFI 26f6c .cfa: x29 64 + x19: .cfa -8 + ^ x20: .cfa -16 + ^ x21: .cfa -24 + ^ x22: .cfa -32 + ^ x23: .cfa -40 + ^ x24: .cfa -48 + ^ .ra: .cfa -56 + ^ x29: .cfa -64 + ^
STACK CFI 27148 .cfa: sp 112 +
STACK CFI 2715c .cfa: sp 0 +
STACK CFI 27160 .cfa: x29 64 +
STACK CFI INIT 27190 30c .cfa: sp 0 +
STACK CFI 27194 .cfa: sp 80 +
STACK CFI 271a8 .cfa: x29 64 + x19: .cfa -8 + ^ x20: .cfa -16 + ^ x21: .cfa -24 + ^ x22: .cfa -32 + ^ x23: .cfa -40 + ^ x24: .cfa -48 + ^ .ra: .cfa -56 + ^ x29: .cfa -64 + ^
STACK CFI 27324 .cfa: sp 80 +
STACK CFI 27338 .cfa: sp 0 +
STACK CFI 2733c .cfa: x29 64 +
STACK CFI INIT 2749c 178 .cfa: sp 0 +
STACK CFI 274a0 .cfa: sp 80 +
STACK CFI 274b4 .cfa: x29 64 + x19: .cfa -8 + ^ x20: .cfa -16 + ^ x21: .cfa -24 + ^ x22: .cfa -32 + ^ x23: .cfa -40 + ^ x24: .cfa -48 + ^ .ra: .cfa -56 + ^ x29: .cfa -64 + ^
STACK CFI 275f8 .cfa: sp 80 +
STACK CFI 2760c .cfa: sp 0 +
STACK CFI 27610 .cfa: x29 64 +
STACK CFI INIT 27614 178 .cfa: sp 0 +
STACK CFI 27618 .cfa: sp 80 +
STACK CFI 2762c .cfa: x29 64 + x19: .cfa -8 + ^ x20: .cfa -16 + ^ x21: .cfa -24 + ^ x22: .cfa -32 + ^ x23: .cfa -40 + ^ x24: .cfa -48 + ^ .ra: .cfa -56 + ^ x29: .cfa -64 + ^
STACK CFI 27770 .cfa: sp 80 +
STACK CFI 27784 .cfa: sp 0 +
STACK CFI 27788 .cfa: x29 64 +
STACK CFI INIT 2778c 240 .cfa: sp 0 +
STACK CFI 27790 .cfa: sp 96 +
STACK CFI 277a8 .cfa: x29 96 + x19: .cfa -8 + ^ x20: .cfa -16 + ^ x21: .cfa -24 + ^ x22: .cfa -32 + ^ x23: .cfa -40 + ^ x24: .cfa -48 + ^ x25: .cfa -56 + ^ x26: .cfa -64 + ^ x27: .cfa -72 + ^ x28: .cfa -80 + ^ .ra: .cfa -88 + ^ x29: .cfa -96 + ^
STACK CFI 279b0 .cfa: sp 96 +
STACK CFI 279c8 .cfa: sp 0 +
STACK CFI INIT 28640 154 .cfa: sp 0 +
STACK CFI 28644 .cfa: sp 96 +
STACK CFI 28658 .cfa: x29 64 + x19: .cfa -8 + ^ x20: .cfa -16 + ^ x21: .cfa -24 + ^ x22: .cfa -32 + ^ x23: .cfa -48 + ^ .ra: .cfa -56 + ^ x29: .cfa -64 + ^
STACK CFI 28738 .cfa: sp 96 +
STACK CFI 2874c .cfa: sp 0 +
STACK CFI 28750 .cfa: x29 64 +
STACK CFI INIT 28a00 44 .cfa: sp 0 +
STACK CFI 28a04 .cfa: sp 32 +
STACK CFI 28a0c .cfa: x29 32 + x19: .cfa -16 + ^ .ra: .cfa -24 + ^ x29: .cfa -32 + ^
STACK CFI 28a28 .cfa: sp 32 +
STACK CFI 28a30 .cfa: sp 0 +
STACK CFI 28a34 .cfa: x29 32 +
STACK CFI 28a38 .cfa: sp 32 +
STACK CFI 28a40 .cfa: sp 0 +
STACK CFI INIT 28a44 1d0 .cfa: sp 0 +
STACK CFI 28a48 .cfa: sp 64 +
STACK CFI 28a58 .cfa: x29 64 + x19: .cfa -8 + ^ x20: .cfa -16 + ^ x21: .cfa -24 + ^ x22: .cfa -32 + ^ x23: .cfa -40 + ^ x24: .cfa -48 + ^ .ra: .cfa -56 + ^ x29: .cfa -64 + ^
STACK CFI 28b18 .cfa: sp 64 +
STACK CFI 28b28 .cfa: sp 0 +
STACK CFI 28b2c .cfa: x29 64 +
STACK CFI INIT 28c14 17c .cfa: sp 0 +
STACK CFI INIT 29148 a0 .cfa: sp 0 +
STACK CFI 2914c .cfa: sp 48 +
STACK CFI 29158 .cfa: x29 48 + x19: .cfa -8 + ^ x20: .cfa -16 + ^ x21: .cfa -24 + ^ x22: .cfa -32 + ^ .ra: .cfa -40 + ^ x29: .cfa -48 + ^
STACK CFI 291c4 .cfa: sp 48 +
STACK CFI 291d0 .cfa: sp 0 +
STACK CFI 291d4 .cfa: sp 48 +
STACK CFI 291e0 .cfa: sp 0 +
STACK CFI 291e4 .cfa: x29 48 +
STACK CFI INIT 29e9c 158 .cfa: sp 0 +
STACK CFI 29ea0 .cfa: sp 96 +
STACK CFI 29eb4 .cfa: x29 64 + x19: .cfa -8 + ^ x20: .cfa -16 + ^ x21: .cfa -24 + ^ x22: .cfa -32 + ^ x23: .cfa -48 + ^ .ra: .cfa -56 + ^ x29: .cfa -64 + ^
STACK CFI 29f98 .cfa: sp 96 +
STACK CFI 29fac .cfa: sp 0 +
STACK CFI 29fb0 .cfa: x29 64 +
STACK CFI INIT 29ff4 190 .cfa: sp 0 +
STACK CFI INIT 2ac80 1dc .cfa: sp 0 +
STACK CFI 2ac84 .cfa: sp 80 +
STACK CFI 2ac98 .cfa: x29 80 + x19: .cfa -8 + ^ x20: .cfa -16 + ^ x21: .cfa -24 + ^ x22: .cfa -32 + ^ x23: .cfa -40 + ^ x24: .cfa -48 + ^ x25: .cfa -64 + ^ .ra: .cfa -72 + ^ x29: .cfa -80 + ^
STACK CFI 2ae44 .cfa: sp 80 +
STACK CFI 2ae58 .cfa: sp 0 +
STACK CFI INIT 2c28c 124 .cfa: sp 0 +
STACK CFI 2c2bc .cfa: sp 32 +
STACK CFI 2c2c4 .cfa: x29 32 + x19: .cfa -8 + ^ x20: .cfa -16 + ^ .ra: .cfa -24 + ^ x29: .cfa -32 + ^
STACK CFI 2c3a4 .cfa: sp 32 +
STACK CFI 2c3ac .cfa: sp 0 +
STACK CFI INIT 2cb0c 320 .cfa: sp 0 +
STACK CFI 2cb10 .cfa: sp 64 +
STACK CFI 2cb20 .cfa: x29 64 + x19: .cfa -8 + ^ x20: .cfa -16 + ^ x21: .cfa -24 + ^ x22: .cfa -32 + ^ x23: .cfa -40 + ^ x24: .cfa -48 + ^ .ra: .cfa -56 + ^ x29: .cfa -64 + ^
STACK CFI 2cb9c .cfa: sp 64 +
STACK CFI 2cbac .cfa: sp 0 +
STACK CFI 2cbb0 .cfa: x29 64 +
STACK CFI 2cd84 .cfa: sp 64 +
STACK CFI 2cd94 .cfa: sp 0 +
STACK CFI 2cd98 .cfa: x29 64 +
STACK CFI 2cda8 .cfa: sp 64 +
STACK CFI 2cdb8 .cfa: sp 0 +
STACK CFI 2cdbc .cfa: x29 64 +
STACK CFI INIT 2ce2c a0 .cfa: sp 0 +
STACK CFI 2ce30 .cfa: sp 48 +
STACK CFI 2ce3c .cfa: x29 48 + x19: .cfa -8 + ^ x20: .cfa -16 + ^ x21: .cfa -24 + ^ x22: .cfa -32 + ^ .ra: .cfa -40 + ^ x29: .cfa -48 + ^
STACK CFI 2cea8 .cfa: sp 48 +
STACK CFI 2ceb4 .cfa: sp 0 +
STACK CFI 2ceb8 .cfa: sp 48 +
STACK CFI 2cec4 .cfa: sp 0 +
STACK CFI 2cec8 .cfa: x29 48 +
STACK CFI INIT 2dd7c 160 .cfa: sp 0 +
STACK CFI 2dd80 .cfa: sp 64 +
STACK CFI 2dd90 .cfa: x29 64 + x19: .cfa -8 + ^ x20: .cfa -16 + ^ x21: .cfa -24 + ^ x22: .cfa -32 + ^ x23: .cfa -48 + ^ .ra: .cfa -56 + ^ x29: .cfa -64 + ^
STACK CFI 2de88 .cfa: sp 64 +
STACK CFI 2de98 .cfa: sp 0 +
STACK CFI 2de9c .cfa: x29 64 +
STACK CFI INIT 2dedc 214 .cfa: sp 0 +
STACK CFI 2dee0 .cfa: sp 128 +
STACK CFI 2defc .cfa: x29 96 + x19: .cfa -8 + ^ x20: .cfa -16 + ^ x21: .cfa -24 + ^ x22: .cfa -32 + ^ x23: .cfa -40 + ^ x24: .cfa -48 + ^ x25: .cfa -56 + ^ x26: .cfa -64 + ^ x27: .cfa -80 + ^ .ra: .cfa -88 + ^ x29: .cfa -96 + ^
STACK CFI 2e078 .cfa: sp 128 +
STACK CFI 2e094 .cfa: sp 0 +
STACK CFI 2e098 .cfa: x29 96 +
STACK CFI INIT 2fd8c 290 .cfa: sp 0 +
STACK CFI 2fd90 .cfa: sp 16 +
STACK CFI 2fd94 .cfa: x29 16 + .ra: .cfa -8 + ^ x29: .cfa -16 + ^
STACK CFI 2fe20 .cfa: sp 16 +
STACK CFI 2fe24 .cfa: sp 0 +
STACK CFI 2fe28 .cfa: x29 16 +
STACK CFI 2fe78 .cfa: sp 16 +
STACK CFI 2fe7c .cfa: sp 0 +
STACK CFI 2fe80 .cfa: x29 16 +
STACK CFI 2ffe4 .cfa: sp 16 +
STACK CFI 2ffe8 .cfa: sp 0 +
STACK CFI 2ffec .cfa: x29 16 +
STACK CFI INIT 3001c 158 .cfa: sp 0 +
STACK CFI 30020 .cfa: sp 112 +
STACK CFI 3003c .cfa: x29 96 + x19: .cfa -8 + ^ x20: .cfa -16 + ^ x21: .cfa -24 + ^ x22: .cfa -32 + ^ x23: .cfa -40 + ^ x24: .cfa -48 + ^ x25: .cfa -56 + ^ x26: .cfa -64 + ^ x27: .cfa -72 + ^ x28: .cfa -80 + ^ .ra: .cfa -88 + ^ x29: .cfa -96 + ^
STACK CFI 30124 .cfa: sp 112 +
STACK CFI 30128 .cfa: x29 96 +
STACK CFI 30130 .cfa: sp 112 +
STACK CFI 3014c .cfa: sp 0 +
STACK CFI 30150 .cfa: x29 96 +
STACK CFI 30170 .cfa: sp 112 +
STACK CFI INIT 30174 e54 .cfa: sp 0 +
STACK CFI 30178 .cfa: sp 192 +
STACK CFI 30194 .cfa: x29 96 + x19: .cfa -8 + ^ x20: .cfa -16 + ^ x21: .cfa -24 + ^ x22: .cfa -32 + ^ x23: .cfa -40 + ^ x24: .cfa -48 + ^ x25: .cfa -56 + ^ x26: .cfa -64 + ^ x27: .cfa -72 + ^ x28: .cfa -80 + ^ .ra: .cfa -88 + ^ x29: .cfa -96 + ^
STACK CFI 30eb0 .cfa: sp 192 +
STACK CFI 30ecc .cfa: sp 0 +
STACK CFI 30ed0 .cfa: x29 96 +
STACK CFI INIT 30fc8 1068 .cfa: sp 0 +
STACK CFI 30fcc .cfa: sp 288 +
STACK CFI 30fe8 .cfa: x29 96 + x19: .cfa -8 + ^ x20: .cfa -16 + ^ x21: .cfa -24 + ^ x22: .cfa -32 + ^ x23: .cfa -40 + ^ x24: .cfa -48 + ^ x25: .cfa -56 + ^ x26: .cfa -64 + ^ x27: .cfa -72 + ^ x28: .cfa -80 + ^ .ra: .cfa -88 + ^ x29: .cfa -96 + ^
STACK CFI 31d78 .cfa: sp 288 +
STACK CFI 31d94 .cfa: sp 0 +
STACK CFI 31d98 .cfa: x29 96 +
STACK CFI INIT 32030 520 .cfa: sp 0 +
STACK CFI 32034 .cfa: sp 144 +
STACK CFI 32050 .cfa: x29 96 + x19: .cfa -8 + ^ x20: .cfa -16 + ^ x21: .cfa -24 + ^ x22: .cfa -32 + ^ x23: .cfa -40 + ^ x24: .cfa -48 + ^ x25: .cfa -56 + ^ x26: .cfa -64 + ^ x27: .cfa -72 + ^ x28: .cfa -80 + ^ .ra: .cfa -88 + ^ x29: .cfa -96 + ^
STACK CFI 3252c .cfa: sp 144 +
STACK CFI 32548 .cfa: sp 0 +
STACK CFI 3254c .cfa: x29 96 +
STACK CFI INIT 32ef0 136c .cfa: sp 0 +
STACK CFI 32ef4 .cfa: sp 224 +
STACK CFI 32f10 .cfa: x29 96 + x19: .cfa -8 + ^ x20: .cfa -16 + ^ x21: .cfa -24 + ^ x22: .cfa -32 + ^ x23: .cfa -40 + ^ x24: .cfa -48 + ^ x25: .cfa -56 + ^ x26: .cfa -64 + ^ x27: .cfa -72 + ^ x28: .cfa -80 + ^ .ra: .cfa -88 + ^ x29: .cfa -96 + ^
STACK CFI 34238 .cfa: sp 224 +
STACK CFI 34254 .cfa: sp 0 +
STACK CFI 34258 .cfa: x29 96 +
STACK CFI INIT 3425c 1b8 .cfa: sp 0 +
STACK CFI INIT 12a70 814 .cfa: sp 0 +
STACK CFI 12a74 .cfa: sp 112 +
STACK CFI 12a90 .cfa: x29 96 + x19: .cfa -8 + ^ x20: .cfa -16 + ^ x21: .cfa -24 + ^ x22: .cfa -32 + ^ x23: .cfa -40 + ^ x24: .cfa -48 + ^ x25: .cfa -56 + ^ x26: .cfa -64 + ^ x27: .cfa -72 + ^ x28: .cfa -80 + ^ .ra: .cfa -88 + ^ x29: .cfa -96 + ^ v8: .cfa -112 + ^
STACK CFI 130f8 .cfa: sp 112 +
STACK CFI 13114 .cfa: sp 0 +
STACK CFI 13118 .cfa: x29 96 +
STACK CFI INIT 1351c 2a8 .cfa: sp 0 +
STACK CFI 13520 .cfa: sp 80 +
STACK CFI 1352c .cfa: x29 32 + x19: .cfa -8 + ^ x20: .cfa -16 + ^ .ra: .cfa -24 + ^ x29: .cfa -32 + ^
STACK CFI 13668 .cfa: sp 80 +
STACK CFI 13674 .cfa: sp 0 +
STACK CFI 13678 .cfa: x29 32 +
STACK CFI INIT 1387c 214 .cfa: sp 0 +
STACK CFI 13880 .cfa: sp 112 +
STACK CFI 13890 .cfa: x29 48 + x19: .cfa -8 + ^ x20: .cfa -16 + ^ x21: .cfa -24 + ^ x22: .cfa -32 + ^ .ra: .cfa -40 + ^ x29: .cfa -48 + ^
STACK CFI 13a14 .cfa: sp 112 +
STACK CFI 13a24 .cfa: sp 0 +
STACK CFI 13a28 .cfa: x29 48 +
STACK CFI INIT 13a90 d0 .cfa: sp 0 +
STACK CFI 13a94 .cfa: sp 64 +
STACK CFI 13aa0 .cfa: x29 32 + x19: .cfa -8 + ^ x20: .cfa -16 + ^ .ra: .cfa -24 + ^ x29: .cfa -32 + ^
STACK CFI 13b20 .cfa: sp 64 +
STACK CFI 13b2c .cfa: sp 0 +
STACK CFI 13b30 .cfa: x29 32 +
STACK CFI INIT 13b60 16c .cfa: sp 0 +
STACK CFI 13b64 .cfa: sp 96 +
STACK CFI 13b70 .cfa: x29 32 + x19: .cfa -8 + ^ x20: .cfa -16 + ^ .ra: .cfa -24 + ^ x29: .cfa -32 + ^
STACK CFI 13c34 .cfa: sp 96 +
STACK CFI 13c40 .cfa: sp 0 +
STACK CFI 13c44 .cfa: x29 32 +
STACK CFI INIT 13ee4 308 .cfa: sp 0 +
STACK CFI 13ee8 .cfa: sp 80 +
STACK CFI 13efc .cfa: x29 80 + x19: .cfa -8 + ^ x20: .cfa -16 + ^ x21: .cfa -24 + ^ x22: .cfa -32 + ^ x23: .cfa -40 + ^ x24: .cfa -48 + ^ x28: .cfa -64 + ^ .ra: .cfa -72 + ^ x29: .cfa -80 + ^
STACK CFI 140e8 .cfa: sp 80 +
STACK CFI 140fc .cfa: sp 0 +
STACK CFI 14100 .cfa: x29 80 +
STACK CFI INIT 141ec bbc .cfa: sp 0 +
STACK CFI 141f0 .cfa: sp 96 +
STACK CFI 14208 .cfa: x29 96 + x19: .cfa -8 + ^ x20: .cfa -16 + ^ x21: .cfa -24 + ^ x22: .cfa -32 + ^ x23: .cfa -40 + ^ x24: .cfa -48 + ^ x25: .cfa -56 + ^ x26: .cfa -64 + ^ x27: .cfa -72 + ^ x28: .cfa -80 + ^ .ra: .cfa -88 + ^ x29: .cfa -96 + ^
STACK CFI 14718 .cfa: sp 96 +
STACK CFI 14730 .cfa: sp 0 +
STACK CFI 14734 .cfa: x29 96 +
STACK CFI INIT 14da8 d98 .cfa: sp 0 +
STACK CFI 14dac .cfa: sp 96 +
STACK CFI 14dc4 .cfa: x29 96 + x19: .cfa -8 + ^ x20: .cfa -16 + ^ x21: .cfa -24 + ^ x22: .cfa -32 + ^ x23: .cfa -40 + ^ x24: .cfa -48 + ^ x25: .cfa -56 + ^ x26: .cfa -64 + ^ x27: .cfa -72 + ^ x28: .cfa -80 + ^ .ra: .cfa -88 + ^ x29: .cfa -96 + ^
STACK CFI 15918 .cfa: sp 96 +
STACK CFI 15930 .cfa: sp 0 +
STACK CFI 15934 .cfa: x29 96 +
STACK CFI INIT 15b40 448 .cfa: sp 0 +
STACK CFI 15b44 .cfa: sp 224 +
STACK CFI 15b60 .cfa: x29 96 + x19: .cfa -8 + ^ x20: .cfa -16 + ^ x21: .cfa -24 + ^ x22: .cfa -32 + ^ x23: .cfa -40 + ^ x24: .cfa -48 + ^ x25: .cfa -56 + ^ x26: .cfa -64 + ^ x27: .cfa -72 + ^ x28: .cfa -80 + ^ .ra: .cfa -88 + ^ x29: .cfa -96 + ^
STACK CFI 15ebc .cfa: sp 224 +
STACK CFI 15ed8 .cfa: sp 0 +
STACK CFI 15edc .cfa: x29 96 +
STACK CFI INIT 15fd8 2b4 .cfa: sp 0 +
STACK CFI 15fdc .cfa: sp 144 +
STACK CFI 15ff0 .cfa: x29 64 + x19: .cfa -8 + ^ x20: .cfa -16 + ^ x21: .cfa -24 + ^ x22: .cfa -32 + ^ x23: .cfa -48 + ^ .ra: .cfa -56 + ^ x29: .cfa -64 + ^
STACK CFI 161d8 .cfa: sp 144 +
STACK CFI 161ec .cfa: sp 0 +
STACK CFI 161f0 .cfa: x29 64 +
STACK CFI INIT 1628c 1250 .cfa: sp 0 +
STACK CFI 16290 .cfa: sp 96 +
STACK CFI 162a8 .cfa: x29 96 + x19: .cfa -8 + ^ x20: .cfa -16 + ^ x21: .cfa -24 + ^ x22: .cfa -32 + ^ x23: .cfa -40 + ^ x24: .cfa -48 + ^ x25: .cfa -56 + ^ x26: .cfa -64 + ^ x27: .cfa -72 + ^ x28: .cfa -80 + ^ .ra: .cfa -88 + ^ x29: .cfa -96 + ^
STACK CFI 17198 .cfa: sp 96 +
STACK CFI 171b0 .cfa: sp 0 +
STACK CFI 171b4 .cfa: x29 96 +
STACK CFI INIT 1752c 5b8 .cfa: sp 0 +
STACK CFI 17530 .cfa: sp 96 +
STACK CFI 17548 .cfa: x29 96 + x19: .cfa -8 + ^ x20: .cfa -16 + ^ x21: .cfa -24 + ^ x22: .cfa -32 + ^ x23: .cfa -40 + ^ x24: .cfa -48 + ^ x25: .cfa -56 + ^ x26: .cfa -64 + ^ x27: .cfa -72 + ^ x28: .cfa -80 + ^ .ra: .cfa -88 + ^ x29: .cfa -96 + ^
STACK CFI 17a84 .cfa: sp 96 +
STACK CFI 17a9c .cfa: sp 0 +
STACK CFI 17aa0 .cfa: x29 96 +
STACK CFI INIT 17af8 50 .cfa: sp 0 +
STACK CFI 17afc .cfa: sp 32 +
STACK CFI 17b04 .cfa: x29 32 + x19: .cfa -8 + ^ x20: .cfa -16 + ^ .ra: .cfa -24 + ^ x29: .cfa -32 + ^
STACK CFI INIT 17bc0 228 .cfa: sp 0 +
STACK CFI 17bc4 .cfa: sp 128 +
STACK CFI 17bdc .cfa: x29 80 + x19: .cfa -8 + ^ x20: .cfa -16 + ^ x21: .cfa -24 + ^ x22: .cfa -32 + ^ x23: .cfa -40 + ^ x24: .cfa -48 + ^ x25: .cfa -64 + ^ .ra: .cfa -72 + ^ x29: .cfa -80 + ^
STACK CFI 17d78 .cfa: sp 128 +
STACK CFI 17d90 .cfa: sp 0 +
STACK CFI 17d94 .cfa: x29 80 +
STACK CFI INIT 181b8 134 .cfa: sp 0 +
STACK CFI 181bc .cfa: sp 80 +
STACK CFI 181cc .cfa: x29 48 + x19: .cfa -8 + ^ x20: .cfa -16 + ^ x21: .cfa -24 + ^ x22: .cfa -32 + ^ .ra: .cfa -40 + ^ x29: .cfa -48 + ^
STACK CFI 182d0 .cfa: sp 80 +
STACK CFI 182e0 .cfa: sp 0 +
STACK CFI 182e4 .cfa: x29 48 +
STACK CFI INIT 184e0 304 .cfa: sp 0 +
STACK CFI 184e4 .cfa: sp 128 +
STACK CFI 18500 .cfa: x29 96 + x19: .cfa -8 + ^ x20: .cfa -16 + ^ x21: .cfa -24 + ^ x22: .cfa -32 + ^ x23: .cfa -40 + ^ x24: .cfa -48 + ^ x25: .cfa -56 + ^ x26: .cfa -64 + ^ x27: .cfa -72 + ^ x28: .cfa -80 + ^ .ra: .cfa -88 + ^ x29: .cfa -96 + ^
STACK CFI 18764 .cfa: sp 128 +
STACK CFI 18780 .cfa: sp 0 +
STACK CFI 18784 .cfa: x29 96 +
STACK CFI INIT 187e4 1a4 .cfa: sp 0 +
STACK CFI 187e8 .cfa: sp 112 +
STACK CFI 18800 .cfa: x29 80 + x19: .cfa -8 + ^ x20: .cfa -16 + ^ x21: .cfa -24 + ^ x22: .cfa -32 + ^ x23: .cfa -40 + ^ x24: .cfa -48 + ^ x25: .cfa -56 + ^ x26: .cfa -64 + ^ .ra: .cfa -72 + ^ x29: .cfa -80 + ^
STACK CFI 188f0 .cfa: sp 112 +
STACK CFI 18908 .cfa: sp 0 +
STACK CFI 1890c .cfa: x29 80 +
STACK CFI INIT 18988 1dc .cfa: sp 0 +
STACK CFI 1898c .cfa: sp 128 +
STACK CFI 189a8 .cfa: x29 96 + x19: .cfa -8 + ^ x20: .cfa -16 + ^ x21: .cfa -24 + ^ x22: .cfa -32 + ^ x23: .cfa -40 + ^ x24: .cfa -48 + ^ x25: .cfa -56 + ^ x26: .cfa -64 + ^ x27: .cfa -80 + ^ .ra: .cfa -88 + ^ x29: .cfa -96 + ^
STACK CFI 18b14 .cfa: sp 128 +
STACK CFI 18b30 .cfa: sp 0 +
STACK CFI 18b34 .cfa: x29 96 +
STACK CFI INIT 18bb4 110 .cfa: sp 0 +
STACK CFI 18bb8 .cfa: sp 80 +
STACK CFI 18bcc .cfa: x29 80 + x19: .cfa -8 + ^ x20: .cfa -16 + ^ x21: .cfa -24 + ^ x22: .cfa -32 + ^ x23: .cfa -40 + ^ x24: .cfa -48 + ^ x25: .cfa -64 + ^ .ra: .cfa -72 + ^ x29: .cfa -80 + ^
STACK CFI 18c68 .cfa: sp 80 +
STACK CFI 18c7c .cfa: sp 0 +
STACK CFI 18c80 .cfa: x29 80 +
STACK CFI INIT 18cc4 1b4 .cfa: sp 0 +
STACK CFI 18cc8 .cfa: sp 80 +
STACK CFI 18cdc .cfa: x29 64 + x19: .cfa -8 + ^ x20: .cfa -16 + ^ x21: .cfa -24 + ^ x22: .cfa -32 + ^ x23: .cfa -40 + ^ x24: .cfa -48 + ^ .ra: .cfa -56 + ^ x29: .cfa -64 + ^
STACK CFI 18de8 .cfa: sp 80 +
STACK CFI 18dfc .cfa: sp 0 +
STACK CFI 18e00 .cfa: x29 64 +
STACK CFI INIT 18e78 644 .cfa: sp 0 +
STACK CFI 18e7c .cfa: sp 352 +
STACK CFI 18e90 .cfa: x29 64 + x19: .cfa -8 + ^ x20: .cfa -16 + ^ x21: .cfa -24 + ^ x22: .cfa -32 + ^ x23: .cfa -40 + ^ x28: .cfa -48 + ^ .ra: .cfa -56 + ^ x29: .cfa -64 + ^
STACK CFI 19384 .cfa: sp 352 +
STACK CFI 19398 .cfa: sp 0 +
STACK CFI 1939c .cfa: x29 64 +
STACK CFI INIT 194bc 5f8 .cfa: sp 0 +
STACK CFI 194c0 .cfa: sp 224 +
STACK CFI 194dc .cfa: x29 96 + x19: .cfa -8 + ^ x20: .cfa -16 + ^ x21: .cfa -24 + ^ x22: .cfa -32 + ^ x23: .cfa -40 + ^ x24: .cfa -48 + ^ x25: .cfa -56 + ^ x26: .cfa -64 + ^ x27: .cfa -72 + ^ x28: .cfa -80 + ^ .ra: .cfa -88 + ^ x29: .cfa -96 + ^
STACK CFI 195d8 .cfa: sp 224 +
STACK CFI 195f4 .cfa: sp 0 +
STACK CFI 195f8 .cfa: x29 96 +
STACK CFI 19980 .cfa: sp 224 +
STACK CFI 1999c .cfa: sp 0 +
STACK CFI 199a0 .cfa: x29 96 +
STACK CFI INIT 19acc 4fc .cfa: sp 0 +
STACK CFI 19ad0 .cfa: sp 224 +
STACK CFI 19aec .cfa: x29 96 + x19: .cfa -8 + ^ x20: .cfa -16 + ^ x21: .cfa -24 + ^ x22: .cfa -32 + ^ x23: .cfa -40 + ^ x24: .cfa -48 + ^ x25: .cfa -56 + ^ x26: .cfa -64 + ^ x27: .cfa -72 + ^ x28: .cfa -80 + ^ .ra: .cfa -88 + ^ x29: .cfa -96 + ^
STACK CFI 19dcc .cfa: sp 224 +
STACK CFI 19de8 .cfa: sp 0 +
STACK CFI 19dec .cfa: x29 96 +
STACK CFI 19eb8 .cfa: sp 224 +
STACK CFI 19ed4 .cfa: sp 0 +
STACK CFI 19ed8 .cfa: x29 96 +
STACK CFI INIT 19fe0 484 .cfa: sp 0 +
STACK CFI 19fe4 .cfa: sp 224 +
STACK CFI 1a000 .cfa: x29 96 + x19: .cfa -8 + ^ x20: .cfa -16 + ^ x21: .cfa -24 + ^ x22: .cfa -32 + ^ x23: .cfa -40 + ^ x24: .cfa -48 + ^ x25: .cfa -56 + ^ x26: .cfa -64 + ^ x27: .cfa -72 + ^ x28: .cfa -80 + ^ .ra: .cfa -88 + ^ x29: .cfa -96 + ^
STACK CFI 1a270 .cfa: sp 224 +
STACK CFI 1a28c .cfa: sp 0 +
STACK CFI 1a290 .cfa: x29 96 +
STACK CFI 1a35c .cfa: sp 224 +
STACK CFI 1a378 .cfa: sp 0 +
STACK CFI 1a37c .cfa: x29 96 +
STACK CFI INIT 1a47c 384 .cfa: sp 0 +
STACK CFI 1a480 .cfa: sp 192 +
STACK CFI 1a49c .cfa: x29 96 + x19: .cfa -8 + ^ x20: .cfa -16 + ^ x21: .cfa -24 + ^ x22: .cfa -32 + ^ x23: .cfa -40 + ^ x24: .cfa -48 + ^ x25: .cfa -56 + ^ x26: .cfa -64 + ^ x27: .cfa -80 + ^ .ra: .cfa -88 + ^ x29: .cfa -96 + ^
STACK CFI 1a6cc .cfa: sp 192 +
STACK CFI 1a6e8 .cfa: sp 0 +
STACK CFI 1a6ec .cfa: x29 96 +
STACK CFI INIT 1a800 74 .cfa: sp 0 +
STACK CFI 1a804 .cfa: sp 48 +
STACK CFI 1a810 .cfa: x29 32 + x19: .cfa -8 + ^ x20: .cfa -16 + ^ .ra: .cfa -24 + ^ x29: .cfa -32 + ^
STACK CFI 1a85c .cfa: sp 48 +
STACK CFI 1a868 .cfa: sp 0 +
STACK CFI 1a86c .cfa: x29 32 +
STACK CFI INIT 1a9b0 f8 .cfa: sp 0 +
STACK CFI 1a9b4 .cfa: sp 48 +
STACK CFI 1a9c0 .cfa: x29 48 + x19: .cfa -8 + ^ x20: .cfa -16 + ^ x21: .cfa -32 + ^ .ra: .cfa -40 + ^ x29: .cfa -48 + ^
STACK CFI 1aa2c .cfa: sp 48 +
STACK CFI 1aa38 .cfa: sp 0 +
STACK CFI 1aa3c .cfa: x29 48 +
STACK CFI INIT 1ab54 204 .cfa: sp 0 +
STACK CFI 1ab58 .cfa: sp 112 +
STACK CFI 1ab68 .cfa: x29 48 + x19: .cfa -8 + ^ x20: .cfa -16 + ^ x21: .cfa -32 + ^ .ra: .cfa -40 + ^ x29: .cfa -48 + ^
STACK CFI 1acf8 .cfa: sp 112 +
STACK CFI 1ad08 .cfa: sp 0 +
STACK CFI 1ad0c .cfa: x29 48 +
STACK CFI INIT 1ad84 174 .cfa: sp 0 +
STACK CFI 1ad88 .cfa: sp 112 +
STACK CFI 1ad98 .cfa: x29 48 + x19: .cfa -8 + ^ x20: .cfa -16 + ^ x21: .cfa -32 + ^ .ra: .cfa -40 + ^ x29: .cfa -48 + ^
STACK CFI 1ae94 .cfa: sp 112 +
STACK CFI 1aea4 .cfa: sp 0 +
STACK CFI 1aea8 .cfa: x29 48 +
STACK CFI INIT 1b094 1c8 .cfa: sp 0 +
STACK CFI 1b098 .cfa: sp 80 +
STACK CFI 1b0a8 .cfa: x29 48 + x19: .cfa -8 + ^ x20: .cfa -16 + ^ x21: .cfa -24 + ^ x22: .cfa -32 + ^ .ra: .cfa -40 + ^ x29: .cfa -48 + ^
STACK CFI 1b1b8 .cfa: sp 80 +
STACK CFI 1b1c8 .cfa: sp 0 +
STACK CFI 1b1cc .cfa: x29 48 +
STACK CFI 1b214 .cfa: sp 80 +
STACK CFI 1b224 .cfa: sp 0 +
STACK CFI 1b228 .cfa: x29 48 +
STACK CFI INIT 1b334 378 .cfa: sp 0 +
STACK CFI 1b338 .cfa: sp 160 +
STACK CFI 1b34c .cfa: x29 64 + x19: .cfa -8 + ^ x20: .cfa -16 + ^ x21: .cfa -24 + ^ x22: .cfa -32 + ^ x23: .cfa -48 + ^ .ra: .cfa -56 + ^ x29: .cfa -64 + ^
STACK CFI 1b5f0 .cfa: sp 160 +
STACK CFI 1b604 .cfa: sp 0 +
STACK CFI 1b608 .cfa: x29 64 +
STACK CFI INIT 1b6d8 174 .cfa: sp 0 +
STACK CFI 1b6dc .cfa: sp 112 +
STACK CFI 1b6ec .cfa: x29 48 + x19: .cfa -8 + ^ x20: .cfa -16 + ^ x21: .cfa -32 + ^ .ra: .cfa -40 + ^ x29: .cfa -48 + ^
STACK CFI 1b7e8 .cfa: sp 112 +
STACK CFI 1b7f8 .cfa: sp 0 +
STACK CFI 1b7fc .cfa: x29 48 +
STACK CFI INIT 1b99c 370 .cfa: sp 0 +
STACK CFI 1b9a0 .cfa: sp 240 +
STACK CFI 1b9b4 .cfa: x29 64 + x19: .cfa -8 + ^ x20: .cfa -16 + ^ x21: .cfa -24 + ^ x22: .cfa -32 + ^ x23: .cfa -48 + ^ .ra: .cfa -56 + ^ x29: .cfa -64 + ^
STACK CFI 1bbe0 .cfa: sp 240 +
STACK CFI 1bbf4 .cfa: sp 0 +
STACK CFI 1bbf8 .cfa: x29 64 +
STACK CFI INIT 1bd5c 74 .cfa: sp 0 +
STACK CFI 1bd60 .cfa: sp 48 +
STACK CFI 1bd6c .cfa: x29 32 + x19: .cfa -8 + ^ x20: .cfa -16 + ^ .ra: .cfa -24 + ^ x29: .cfa -32 + ^
STACK CFI 1bdb8 .cfa: sp 48 +
STACK CFI 1bdc4 .cfa: sp 0 +
STACK CFI 1bdc8 .cfa: x29 32 +
STACK CFI INIT 1bf70 1d4 .cfa: sp 0 +
STACK CFI 1bf74 .cfa: sp 128 +
STACK CFI 1bf90 .cfa: x29 96 + x19: .cfa -8 + ^ x20: .cfa -16 + ^ x21: .cfa -24 + ^ x22: .cfa -32 + ^ x23: .cfa -40 + ^ x24: .cfa -48 + ^ x25: .cfa -56 + ^ x26: .cfa -64 + ^ x27: .cfa -72 + ^ x28: .cfa -80 + ^ .ra: .cfa -88 + ^ x29: .cfa -96 + ^
STACK CFI 1c0fc .cfa: sp 128 +
STACK CFI 1c118 .cfa: sp 0 +
STACK CFI 1c11c .cfa: x29 96 +
STACK CFI INIT 1c370 154 .cfa: sp 0 +
STACK CFI 1c374 .cfa: sp 384 +
STACK CFI 1c388 .cfa: x29 64 + x19: .cfa -8 + ^ x20: .cfa -16 + ^ x21: .cfa -24 + ^ x22: .cfa -32 + ^ x23: .cfa -40 + ^ x28: .cfa -48 + ^ .ra: .cfa -56 + ^ x29: .cfa -64 + ^
STACK CFI 1c46c .cfa: sp 384 +
STACK CFI 1c480 .cfa: sp 0 +
STACK CFI 1c484 .cfa: x29 64 +
STACK CFI INIT 1c4c4 12c .cfa: sp 0 +
STACK CFI 1c4c8 .cfa: sp 80 +
STACK CFI 1c4dc .cfa: x29 80 + x19: .cfa -8 + ^ x20: .cfa -16 + ^ x21: .cfa -24 + ^ x22: .cfa -32 + ^ x23: .cfa -40 + ^ x24: .cfa -48 + ^ x25: .cfa -56 + ^ x26: .cfa -64 + ^ .ra: .cfa -72 + ^ x29: .cfa -80 + ^
STACK CFI 1c5a4 .cfa: sp 80 +
STACK CFI 1c5b8 .cfa: sp 0 +
STACK CFI 1c5bc .cfa: x29 80 +
STACK CFI INIT 1c670 178 .cfa: sp 0 +
STACK CFI 1c674 .cfa: sp 80 +
STACK CFI 1c688 .cfa: x29 80 + x19: .cfa -8 + ^ x20: .cfa -16 + ^ x21: .cfa -24 + ^ x22: .cfa -32 + ^ x23: .cfa -40 + ^ x24: .cfa -48 + ^ x25: .cfa -64 + ^ .ra: .cfa -72 + ^ x29: .cfa -80 + ^
STACK CFI 1c7b4 .cfa: sp 80 +
STACK CFI 1c7c8 .cfa: sp 0 +
STACK CFI 1c7cc .cfa: x29 80 +
STACK CFI INIT 1c930 168 .cfa: sp 0 +
STACK CFI 1c934 .cfa: sp 384 +
STACK CFI 1c948 .cfa: x29 64 + x19: .cfa -8 + ^ x20: .cfa -16 + ^ x21: .cfa -24 + ^ x22: .cfa -32 + ^ x23: .cfa -40 + ^ x28: .cfa -48 + ^ .ra: .cfa -56 + ^ x29: .cfa -64 + ^
STACK CFI 1ca40 .cfa: sp 384 +
STACK CFI 1ca54 .cfa: sp 0 +
STACK CFI 1ca58 .cfa: x29 64 +
STACK CFI INIT 1cfd8 698 .cfa: sp 0 +
STACK CFI 1cfdc .cfa: sp 240 +
STACK CFI 1cff4 .cfa: x29 80 + x19: .cfa -8 + ^ x20: .cfa -16 + ^ x21: .cfa -24 + ^ x22: .cfa -32 + ^ x23: .cfa -40 + ^ x24: .cfa -48 + ^ x25: .cfa -56 + ^ x26: .cfa -64 + ^ .ra: .cfa -72 + ^ x29: .cfa -80 + ^
STACK CFI 1d28c .cfa: sp 240 +
STACK CFI 1d2a4 .cfa: sp 0 +
STACK CFI 1d2a8 .cfa: x29 80 +
STACK CFI INIT 1d738 60 .cfa: sp 0 +
STACK CFI 1d73c .cfa: sp 32 +
STACK CFI 1d744 .cfa: x29 32 + x19: .cfa -8 + ^ x20: .cfa -16 + ^ .ra: .cfa -24 + ^ x29: .cfa -32 + ^
STACK CFI 1d770 .cfa: sp 32 +
STACK CFI 1d778 .cfa: sp 0 +
STACK CFI 1d77c .cfa: x29 32 +
STACK CFI INIT 1d9d8 f20 .cfa: sp 0 +
STACK CFI 1d9dc .cfa: sp 304 +
STACK CFI 1d9f8 .cfa: x29 96 + x19: .cfa -8 + ^ x20: .cfa -16 + ^ x21: .cfa -24 + ^ x22: .cfa -32 + ^ x23: .cfa -40 + ^ x24: .cfa -48 + ^ x25: .cfa -56 + ^ x26: .cfa -64 + ^ x27: .cfa -72 + ^ x28: .cfa -80 + ^ .ra: .cfa -88 + ^ x29: .cfa -96 + ^
STACK CFI 1e544 .cfa: sp 304 +
STACK CFI 1e560 .cfa: sp 0 +
STACK CFI 1e564 .cfa: x29 96 +
STACK CFI INIT 1e8fc 238 .cfa: sp 0 +
STACK CFI 1e900 .cfa: sp 128 +
STACK CFI 1e914 .cfa: x29 64 + x19: .cfa -8 + ^ x20: .cfa -16 + ^ x21: .cfa -24 + ^ x22: .cfa -32 + ^ x23: .cfa -48 + ^ .ra: .cfa -56 + ^ x29: .cfa -64 + ^
STACK CFI 1eabc .cfa: sp 128 +
STACK CFI 1ead0 .cfa: sp 0 +
STACK CFI 1ead4 .cfa: x29 64 +
STACK CFI INIT 1eb34 1c4 .cfa: sp 0 +
STACK CFI 1eb38 .cfa: sp 160 +
STACK CFI 1eb54 .cfa: x29 96 + x19: .cfa -8 + ^ x20: .cfa -16 + ^ x21: .cfa -24 + ^ x22: .cfa -32 + ^ x23: .cfa -40 + ^ x24: .cfa -48 + ^ x25: .cfa -56 + ^ x26: .cfa -64 + ^ x27: .cfa -72 + ^ x28: .cfa -80 + ^ .ra: .cfa -88 + ^ x29: .cfa -96 + ^
STACK CFI 1eca0 .cfa: sp 160 +
STACK CFI 1ecbc .cfa: sp 0 +
STACK CFI 1ecc0 .cfa: x29 96 +
STACK CFI INIT 1ecf8 524 .cfa: sp 0 +
STACK CFI 1ecfc .cfa: sp 128 +
STACK CFI 1ed18 .cfa: x29 96 + x19: .cfa -8 + ^ x20: .cfa -16 + ^ x21: .cfa -24 + ^ x22: .cfa -32 + ^ x23: .cfa -40 + ^ x24: .cfa -48 + ^ x25: .cfa -56 + ^ x26: .cfa -64 + ^ x27: .cfa -80 + ^ .ra: .cfa -88 + ^ x29: .cfa -96 + ^
STACK CFI 1efb4 .cfa: sp 128 +
STACK CFI 1efd0 .cfa: sp 0 +
STACK CFI 1efd4 .cfa: x29 96 +
STACK CFI 1f124 .cfa: sp 128 +
STACK CFI 1f140 .cfa: sp 0 +
STACK CFI 1f144 .cfa: x29 96 +
STACK CFI INIT 1f21c 64c .cfa: sp 0 +
STACK CFI 1f220 .cfa: sp 224 +
STACK CFI 1f23c .cfa: x29 96 + x19: .cfa -8 + ^ x20: .cfa -16 + ^ x21: .cfa -24 + ^ x22: .cfa -32 + ^ x23: .cfa -40 + ^ x24: .cfa -48 + ^ x25: .cfa -56 + ^ x26: .cfa -64 + ^ x27: .cfa -72 + ^ x28: .cfa -80 + ^ .ra: .cfa -88 + ^ x29: .cfa -96 + ^
STACK CFI 1f6f8 .cfa: sp 224 +
STACK CFI 1f714 .cfa: sp 0 +
STACK CFI 1f718 .cfa: x29 96 +
STACK CFI INIT 1f900 50 .cfa: sp 0 +
STACK CFI 1f904 .cfa: sp 32 +
STACK CFI 1f90c .cfa: x29 32 + x19: .cfa -8 + ^ x20: .cfa -16 + ^ .ra: .cfa -24 + ^ x29: .cfa -32 + ^
STACK CFI INIT 1fb4c 508 .cfa: sp 0 +
STACK CFI 1fb50 .cfa: sp 96 +
STACK CFI 1fb68 .cfa: x29 96 + x19: .cfa -8 + ^ x20: .cfa -16 + ^ x21: .cfa -24 + ^ x22: .cfa -32 + ^ x23: .cfa -40 + ^ x24: .cfa -48 + ^ x25: .cfa -56 + ^ x26: .cfa -64 + ^ x27: .cfa -72 + ^ x28: .cfa -80 + ^ .ra: .cfa -88 + ^ x29: .cfa -96 + ^
STACK CFI 1ffd4 .cfa: sp 96 +
STACK CFI 1ffec .cfa: sp 0 +
STACK CFI 1fff0 .cfa: x29 96 +
STACK CFI INIT 200a4 394 .cfa: sp 0 +
STACK CFI 200a8 .cfa: sp 80 +
STACK CFI 200bc .cfa: x29 80 + x19: .cfa -8 + ^ x20: .cfa -16 + ^ x21: .cfa -24 + ^ x22: .cfa -32 + ^ x23: .cfa -40 + ^ x24: .cfa -48 + ^ x25: .cfa -56 + ^ x28: .cfa -64 + ^ .ra: .cfa -72 + ^ x29: .cfa -80 + ^
STACK CFI 203c0 .cfa: sp 80 +
STACK CFI 203d4 .cfa: sp 0 +
STACK CFI 203d8 .cfa: x29 80 +
STACK CFI INIT 20438 360 .cfa: sp 0 +
STACK CFI 2043c .cfa: sp 80 +
STACK CFI 20450 .cfa: x29 80 + x19: .cfa -8 + ^ x20: .cfa -16 + ^ x21: .cfa -24 + ^ x22: .cfa -32 + ^ x23: .cfa -40 + ^ x24: .cfa -48 + ^ x25: .cfa -56 + ^ x28: .cfa -64 + ^ .ra: .cfa -72 + ^ x29: .cfa -80 + ^
STACK CFI 20720 .cfa: sp 80 +
STACK CFI 20734 .cfa: sp 0 +
STACK CFI 20738 .cfa: x29 80 +
STACK CFI INIT 208bc 300 .cfa: sp 0 +
STACK CFI 208c0 .cfa: sp 192 +
STACK CFI 208d4 .cfa: x29 64 + x19: .cfa -8 + ^ x20: .cfa -16 + ^ x21: .cfa -24 + ^ x22: .cfa -32 + ^ x23: .cfa -48 + ^ .ra: .cfa -56 + ^ x29: .cfa -64 + ^
STACK CFI 20aac .cfa: sp 192 +
STACK CFI 20ac0 .cfa: sp 0 +
STACK CFI 20ac4 .cfa: x29 64 +
STACK CFI INIT 20c48 12c .cfa: sp 0 +
STACK CFI 20c4c .cfa: sp 80 +
STACK CFI 20c5c .cfa: x29 48 + x19: .cfa -8 + ^ x20: .cfa -16 + ^ x21: .cfa -32 + ^ .ra: .cfa -40 + ^ x29: .cfa -48 + ^
STACK CFI 20cf4 .cfa: sp 80 +
STACK CFI 20d04 .cfa: sp 0 +
STACK CFI 20d08 .cfa: x29 48 +
STACK CFI INIT 20dfc 134 .cfa: sp 0 +
STACK CFI 20e00 .cfa: sp 80 +
STACK CFI 20e0c .cfa: x29 32 + x19: .cfa -8 + ^ x20: .cfa -16 + ^ .ra: .cfa -24 + ^ x29: .cfa -32 + ^
STACK CFI 20e3c .cfa: sp 80 +
STACK CFI 20e48 .cfa: sp 0 +
STACK CFI 20e4c .cfa: x29 32 +
STACK CFI INIT 20f30 78 .cfa: sp 0 +
STACK CFI 20f34 .cfa: sp 32 +
STACK CFI 20f3c .cfa: x29 32 + x19: .cfa -8 + ^ x20: .cfa -16 + ^ .ra: .cfa -24 + ^ x29: .cfa -32 + ^
STACK CFI 20f48 .cfa: sp 32 +
STACK CFI 20f50 .cfa: sp 0 +
STACK CFI 20f54 .cfa: x29 32 +
STACK CFI INIT 20fa8 74 .cfa: sp 0 +
STACK CFI 20fac .cfa: sp 48 +
STACK CFI 20fb8 .cfa: x29 32 + x19: .cfa -8 + ^ x20: .cfa -16 + ^ .ra: .cfa -24 + ^ x29: .cfa -32 + ^
STACK CFI 21004 .cfa: sp 48 +
STACK CFI 21010 .cfa: sp 0 +
STACK CFI 21014 .cfa: x29 32 +
STACK CFI INIT 210a4 25c .cfa: sp 0 +
STACK CFI 210a8 .cfa: sp 128 +
STACK CFI 210b8 .cfa: x29 48 + x19: .cfa -8 + ^ x20: .cfa -16 + ^ x21: .cfa -32 + ^ .ra: .cfa -40 + ^ x29: .cfa -48 + ^
STACK CFI 211a0 .cfa: sp 128 +
STACK CFI 211b0 .cfa: sp 0 +
STACK CFI 211b4 .cfa: x29 48 +
STACK CFI INIT 21324 1b8 .cfa: sp 0 +
STACK CFI 21328 .cfa: sp 160 +
STACK CFI 21344 .cfa: x29 72 + x19: .cfa -8 + ^ x20: .cfa -16 + ^ x21: .cfa -24 + ^ x22: .cfa -32 + ^ x23: .cfa -40 + ^ x24: .cfa -48 + ^ x25: .cfa -56 + ^ .ra: .cfa -64 + ^ x29: .cfa -72 + ^ v8: .cfa -80 + ^
STACK CFI 213c8 .cfa: sp 160 +
STACK CFI 213e4 .cfa: sp 0 +
STACK CFI 213e8 .cfa: x29 72 +
STACK CFI INIT 214dc 4e4 .cfa: sp 0 +
STACK CFI 214e0 .cfa: sp 96 +
STACK CFI 214f8 .cfa: x29 80 + x19: .cfa -8 + ^ x20: .cfa -16 + ^ x21: .cfa -24 + ^ x22: .cfa -32 + ^ x23: .cfa -40 + ^ x24: .cfa -48 + ^ x25: .cfa -64 + ^ .ra: .cfa -72 + ^ x29: .cfa -80 + ^
STACK CFI 2193c .cfa: sp 96 +
STACK CFI 21954 .cfa: sp 0 +
STACK CFI 21958 .cfa: x29 80 +
STACK CFI INIT 219c4 2a0 .cfa: sp 0 +
STACK CFI 219c8 .cfa: sp 144 +
STACK CFI 219dc .cfa: x29 64 + x19: .cfa -8 + ^ x20: .cfa -16 + ^ x21: .cfa -24 + ^ x22: .cfa -32 + ^ x23: .cfa -48 + ^ .ra: .cfa -56 + ^ x29: .cfa -64 + ^
STACK CFI 21b10 .cfa: sp 144 +
STACK CFI 21b24 .cfa: sp 0 +
STACK CFI 21b28 .cfa: x29 64 +
STACK CFI INIT 21c64 4f4 .cfa: sp 0 +
STACK CFI 21c68 .cfa: sp 144 +
STACK CFI 21c7c .cfa: x29 64 + x19: .cfa -8 + ^ x20: .cfa -16 + ^ x21: .cfa -24 + ^ x22: .cfa -32 + ^ x23: .cfa -48 + ^ .ra: .cfa -56 + ^ x29: .cfa -64 + ^
STACK CFI 21fb0 .cfa: sp 144 +
STACK CFI 21fc4 .cfa: sp 0 +
STACK CFI 21fc8 .cfa: x29 64 +
STACK CFI INIT 22158 154 .cfa: sp 0 +
STACK CFI 2215c .cfa: sp 384 +
STACK CFI 22170 .cfa: x29 64 + x19: .cfa -8 + ^ x20: .cfa -16 + ^ x21: .cfa -24 + ^ x22: .cfa -32 + ^ x23: .cfa -40 + ^ x28: .cfa -48 + ^ .ra: .cfa -56 + ^ x29: .cfa -64 + ^
STACK CFI 22254 .cfa: sp 384 +
STACK CFI 22268 .cfa: sp 0 +
STACK CFI 2226c .cfa: x29 64 +
STACK CFI INIT 222c4 50c .cfa: sp 0 +
STACK CFI 222c8 .cfa: sp 64 +
STACK CFI 222d8 .cfa: x29 64 + x19: .cfa -8 + ^ x20: .cfa -16 + ^ x21: .cfa -24 + ^ x22: .cfa -32 + ^ x23: .cfa -40 + ^ x24: .cfa -48 + ^ .ra: .cfa -56 + ^ x29: .cfa -64 + ^
STACK CFI 223f8 .cfa: sp 64 +
STACK CFI 22408 .cfa: sp 0 +
STACK CFI 2240c .cfa: x29 64 +
STACK CFI 227a4 .cfa: sp 64 +
STACK CFI 227b4 .cfa: sp 0 +
STACK CFI 227b8 .cfa: x29 64 +
STACK CFI INIT 22b00 294 .cfa: sp 0 +
STACK CFI 22b04 .cfa: sp 240 +
STACK CFI 22b1c .cfa: x29 80 + x19: .cfa -8 + ^ x20: .cfa -16 + ^ x21: .cfa -24 + ^ x22: .cfa -32 + ^ x23: .cfa -40 + ^ x24: .cfa -48 + ^ x25: .cfa -64 + ^ .ra: .cfa -72 + ^ x29: .cfa -80 + ^
STACK CFI 22cbc .cfa: sp 240 +
STACK CFI 22cd4 .cfa: sp 0 +
STACK CFI 22cd8 .cfa: x29 80 +
STACK CFI INIT 22e10 50 .cfa: sp 0 +
STACK CFI 22e14 .cfa: sp 32 +
STACK CFI 22e1c .cfa: x29 32 + x19: .cfa -8 + ^ x20: .cfa -16 + ^ .ra: .cfa -24 + ^ x29: .cfa -32 + ^
STACK CFI INIT 22e8c 7c0 .cfa: sp 0 +
STACK CFI 22e90 .cfa: sp 320 +
STACK CFI 22eac .cfa: x29 96 + x19: .cfa -8 + ^ x20: .cfa -16 + ^ x21: .cfa -24 + ^ x22: .cfa -32 + ^ x23: .cfa -40 + ^ x24: .cfa -48 + ^ x25: .cfa -56 + ^ x26: .cfa -64 + ^ x27: .cfa -72 + ^ x28: .cfa -80 + ^ .ra: .cfa -88 + ^ x29: .cfa -96 + ^
STACK CFI 234fc .cfa: sp 320 +
STACK CFI 23518 .cfa: sp 0 +
STACK CFI 2351c .cfa: x29 96 +
STACK CFI INIT 279cc c74 .cfa: sp 0 +
STACK CFI 279d0 .cfa: sp 96 +
STACK CFI 279e8 .cfa: x29 96 + x19: .cfa -8 + ^ x20: .cfa -16 + ^ x21: .cfa -24 + ^ x22: .cfa -32 + ^ x23: .cfa -40 + ^ x24: .cfa -48 + ^ x25: .cfa -56 + ^ x26: .cfa -64 + ^ x27: .cfa -72 + ^ x28: .cfa -80 + ^ .ra: .cfa -88 + ^ x29: .cfa -96 + ^
STACK CFI 28460 .cfa: sp 96 +
STACK CFI 28478 .cfa: sp 0 +
STACK CFI 2847c .cfa: x29 96 +
STACK CFI INIT 28794 26c .cfa: sp 0 +
STACK CFI 28798 .cfa: sp 128 +
STACK CFI 287a8 .cfa: x29 48 + x19: .cfa -8 + ^ x20: .cfa -16 + ^ x21: .cfa -24 + ^ x22: .cfa -32 + ^ .ra: .cfa -40 + ^ x29: .cfa -48 + ^
STACK CFI 2894c .cfa: sp 128 +
STACK CFI 2895c .cfa: sp 0 +
STACK CFI 28960 .cfa: x29 48 +
STACK CFI INIT 28d90 3b8 .cfa: sp 0 +
STACK CFI 28d94 .cfa: sp 96 +
STACK CFI 28dac .cfa: x29 96 + x19: .cfa -8 + ^ x20: .cfa -16 + ^ x21: .cfa -24 + ^ x22: .cfa -32 + ^ x23: .cfa -40 + ^ x24: .cfa -48 + ^ x25: .cfa -56 + ^ x26: .cfa -64 + ^ x27: .cfa -72 + ^ x28: .cfa -80 + ^ .ra: .cfa -88 + ^ x29: .cfa -96 + ^
STACK CFI 290e8 .cfa: sp 96 +
STACK CFI 29100 .cfa: sp 0 +
STACK CFI 29104 .cfa: x29 96 +
STACK CFI INIT 291e8 cb4 .cfa: sp 0 +
STACK CFI 291ec .cfa: sp 96 +
STACK CFI 29204 .cfa: x29 96 + x19: .cfa -8 + ^ x20: .cfa -16 + ^ x21: .cfa -24 + ^ x22: .cfa -32 + ^ x23: .cfa -40 + ^ x24: .cfa -48 + ^ x25: .cfa -56 + ^ x26: .cfa -64 + ^ x27: .cfa -72 + ^ x28: .cfa -80 + ^ .ra: .cfa -88 + ^ x29: .cfa -96 + ^
STACK CFI 29cac .cfa: sp 96 +
STACK CFI 29cc4 .cfa: sp 0 +
STACK CFI 29cc8 .cfa: x29 96 +
STACK CFI INIT 2a184 afc .cfa: sp 0 +
STACK CFI 2a188 .cfa: sp 96 +
STACK CFI 2a1a0 .cfa: x29 96 + x19: .cfa -8 + ^ x20: .cfa -16 + ^ x21: .cfa -24 + ^ x22: .cfa -32 + ^ x23: .cfa -40 + ^ x24: .cfa -48 + ^ x25: .cfa -56 + ^ x26: .cfa -64 + ^ x27: .cfa -72 + ^ x28: .cfa -80 + ^ .ra: .cfa -88 + ^ x29: .cfa -96 + ^
STACK CFI 2abf4 .cfa: sp 96 +
STACK CFI 2ac0c .cfa: sp 0 +
STACK CFI 2ac10 .cfa: x29 96 +
STACK CFI INIT 2ae5c 1430 .cfa: sp 0 +
STACK CFI 2ae60 .cfa: sp 96 +
STACK CFI 2ae78 .cfa: x29 96 + x19: .cfa -8 + ^ x20: .cfa -16 + ^ x21: .cfa -24 + ^ x22: .cfa -32 + ^ x23: .cfa -40 + ^ x24: .cfa -48 + ^ x25: .cfa -56 + ^ x26: .cfa -64 + ^ x27: .cfa -72 + ^ x28: .cfa -80 + ^ .ra: .cfa -88 + ^ x29: .cfa -96 + ^
STACK CFI 2c114 .cfa: sp 96 +
STACK CFI 2c12c .cfa: sp 0 +
STACK CFI 2c130 .cfa: x29 96 +
STACK CFI INIT 2c3b0 75c .cfa: sp 0 +
STACK CFI 2c3b4 .cfa: sp 368 +
STACK CFI 2c3d0 .cfa: x29 96 + x19: .cfa -8 + ^ x20: .cfa -16 + ^ x21: .cfa -24 + ^ x22: .cfa -32 + ^ x23: .cfa -40 + ^ x24: .cfa -48 + ^ x25: .cfa -56 + ^ x26: .cfa -64 + ^ x27: .cfa -72 + ^ x28: .cfa -80 + ^ .ra: .cfa -88 + ^ x29: .cfa -96 + ^
STACK CFI 2c484 .cfa: sp 368 +
STACK CFI 2c4a0 .cfa: sp 0 +
STACK CFI 2c4a4 .cfa: x29 96 +
STACK CFI 2c4f8 .cfa: sp 368 +
STACK CFI 2c514 .cfa: sp 0 +
STACK CFI 2c518 .cfa: x29 96 +
STACK CFI INIT 2cecc eb0 .cfa: sp 0 +
STACK CFI 2ced0 .cfa: sp 96 +
STACK CFI 2cee8 .cfa: x29 96 + x19: .cfa -8 + ^ x20: .cfa -16 + ^ x21: .cfa -24 + ^ x22: .cfa -32 + ^ x23: .cfa -40 + ^ x24: .cfa -48 + ^ x25: .cfa -56 + ^ x26: .cfa -64 + ^ x27: .cfa -72 + ^ x28: .cfa -80 + ^ .ra: .cfa -88 + ^ x29: .cfa -96 + ^
STACK CFI 2db90 .cfa: sp 96 +
STACK CFI 2dba8 .cfa: sp 0 +
STACK CFI 2dbac .cfa: x29 96 +
STACK CFI INIT 2e0f0 1c9c .cfa: sp 0 +
STACK CFI 2e0f4 .cfa: sp 112 +
STACK CFI 2e110 .cfa: x29 96 + x19: .cfa -8 + ^ x20: .cfa -16 + ^ x21: .cfa -24 + ^ x22: .cfa -32 + ^ x23: .cfa -40 + ^ x24: .cfa -48 + ^ x25: .cfa -56 + ^ x26: .cfa -64 + ^ x27: .cfa -72 + ^ x28: .cfa -80 + ^ .ra: .cfa -88 + ^ x29: .cfa -96 + ^ v8: .cfa -112 + ^
STACK CFI 2e4f8 .cfa: sp 112 +
STACK CFI 2e514 .cfa: sp 0 +
STACK CFI 2e518 .cfa: x29 96 +
STACK CFI INIT 32550 9a0 .cfa: sp 0 +
STACK CFI 32554 .cfa: sp 144 +
STACK CFI 3256c .cfa: x29 80 + x19: .cfa -8 + ^ x20: .cfa -16 + ^ x21: .cfa -24 + ^ x22: .cfa -32 + ^ x23: .cfa -40 + ^ x24: .cfa -48 + ^ x25: .cfa -64 + ^ .ra: .cfa -72 + ^ x29: .cfa -80 + ^
STACK CFI 32e6c .cfa: sp 144 +
STACK CFI 32e84 .cfa: sp 0 +
STACK CFI 32e88 .cfa: x29 80 +
STACK CFI INIT 34414 57c .cfa: sp 0 +
STACK CFI 34418 .cfa: sp 96 +
STACK CFI 34430 .cfa: x29 96 + x19: .cfa -8 + ^ x20: .cfa -16 + ^ x21: .cfa -24 + ^ x22: .cfa -32 + ^ x23: .cfa -40 + ^ x24: .cfa -48 + ^ x25: .cfa -56 + ^ x26: .cfa -64 + ^ x27: .cfa -72 + ^ x28: .cfa -80 + ^ .ra: .cfa -88 + ^ x29: .cfa -96 + ^
STACK CFI 348f4 .cfa: sp 96 +
STACK CFI 3490c .cfa: sp 0 +
STACK CFI 34910 .cfa: x29 96 +
STACK CFI INIT 34990 67c .cfa: sp 0 +
STACK CFI 34994 .cfa: sp 96 +
STACK CFI 349ac .cfa: x29 96 + x19: .cfa -8 + ^ x20: .cfa -16 + ^ x21: .cfa -24 + ^ x22: .cfa -32 + ^ x23: .cfa -40 + ^ x24: .cfa -48 + ^ x25: .cfa -56 + ^ x26: .cfa -64 + ^ x27: .cfa -72 + ^ x28: .cfa -80 + ^ .ra: .cfa -88 + ^ x29: .cfa -96 + ^
STACK CFI 34f70 .cfa: sp 96 +
STACK CFI 34f88 .cfa: sp 0 +
STACK CFI 34f8c .cfa: x29 96 +
