MODULE Linux arm64 43E11FBC3930BEDB73511C8E0BEA3AD00 n.robtop-jumpscare.android64.so
INFO CODE_ID BC1FE1433039DBBE73511C8E0BEA3AD037AE97AE
INFO GENERATOR mozilla/dump_syms 2.3.4
PUBLIC 3bc0 0 __on_dlclose
PUBLIC 3bd0 0 __emutls_unregister_key
PUBLIC 3bd8 0 __on_dlclose_late
PUBLIC 3be0 0 __atexit_handler_wrapper
PUBLIC 3bf4 0 atexit
PUBLIC 3c10 0 pthread_atfork
PUBLIC 3c20 0 __aarch64_ldadd8_relax
PUBLIC 3c50 0 init_have_lse_atomics
PUBLIC 3ce8 0 __init_cpu_features_constructor
PUBLIC 4284 0 __init_cpu_features
PUBLIC 4310 0 __aarch64_ldadd8_acq_rel
PUBLIC 4340 0 __cxx_global_var_init
PUBLIC 4ee0 0 geode::modifier::ModifyBase<geode::modifier::ModifyDerive<hook8<(anonymous namespace)::hook8Parent>, PlayerObject> >::~ModifyBase()
PUBLIC 4ef8 0 geode::modifier::ModifyDerive<hook8<(anonymous namespace)::hook8Parent>, PlayerObject>::apply()
PUBLIC 58f4 0 std::__ndk1::shared_ptr<geode::Hook>::~shared_ptr[abi:ne180000]()
PUBLIC 5944 0 geode::impl::ResultData<geode::Hook*, std::__ndk1::basic_string<char, std::__ndk1::char_traits<char>, std::__ndk1::allocator<char> > >::~ResultData()
PUBLIC 59b8 0 std::__ndk1::vector<std::__ndk1::basic_string<char, std::__ndk1::char_traits<char>, std::__ndk1::allocator<char> >, std::__ndk1::allocator<std::__ndk1::basic_string<char, std::__ndk1::char_traits<char>, std::__ndk1::allocator<char> > > >::~vector[abi:ne180000]()
PUBLIC 5a34 0 geode::modifier::ModifyBase<geode::modifier::ModifyDerive<hook8<(anonymous namespace)::hook8Parent>, PlayerObject> >::apply()
PUBLIC 5a38 0 __clang_call_terminate
PUBLIC 5a48 0 _ZN5geode15UnwrapExceptionC2IRPNS_4HookEQsr4implE18IsStringStreamableIT_EEENS_4impl5OkTagEOS5_
PUBLIC 5b9c 0 std::__ndk1::__throw_bad_variant_access[abi:ne180000]()
PUBLIC 5bd0 0 std::__ndk1::basic_stringstream<char, std::__ndk1::char_traits<char>, std::__ndk1::allocator<char> >::basic_stringstream[abi:ne180000]()
PUBLIC m 5cfc 0 std::__ndk1::basic_stringstream<char, std::__ndk1::char_traits<char>, std::__ndk1::allocator<char> >::~basic_stringstream()
PUBLIC 5d7c 0 geode::UnwrapException::~UnwrapException()
PUBLIC 5da0 0 std::__ndk1::__put_character_sequence[abi:ne180000]<char, std::__ndk1::char_traits<char> >(std::__ndk1::basic_ostream<char, std::__ndk1::char_traits<char> >, std::__ndk1::basic_ostream const*, unsigned long)
PUBLIC 5f44 0 std::__ndk1::__pad_and_output[abi:ne180000]<char, std::__ndk1::char_traits<char> >(std::__ndk1::char_traits<char>, std::__ndk1::ostreambuf_iterator const*, std::__ndk1::ostreambuf_iterator const, std::__ndk1::ostreambuf_iterator const, std::__ndk1::ios_base&, std::__ndk1::ostreambuf_iterator)
PUBLIC 6120 0 std::__ndk1::basic_string<char, std::__ndk1::char_traits<char>, std::__ndk1::allocator<char> >::__throw_length_error[abi:ne180000]() const
PUBLIC 6134 0 std::__ndk1::__throw_length_error[abi:ne180000](char const*)
PUBLIC 6184 0 std::length_error::length_error[abi:ne180000](char const*)
PUBLIC 61b4 0 std::__throw_bad_array_new_length([abi:ne180000], void)
PUBLIC 61e8 0 std::__ndk1::basic_stringbuf<char, std::__ndk1::char_traits<char>, std::__ndk1::allocator<char> >::str[abi:ne180000]() &&
PUBLIC 6360 0 std::__ndk1::basic_stringbuf<char, std::__ndk1::char_traits<char>, std::__ndk1::allocator<char> >::__init_buf_ptrs[abi:ne180000]()
PUBLIC 64a8 0 std::__ndk1::basic_string<char, std::__ndk1::char_traits<char>, std::__ndk1::allocator<char> >::__init_copy_ctor_external(char const*, unsigned long)
PUBLIC 6528 0 std::__ndk1::__split_buffer<std::__ndk1::basic_string<char, std::__ndk1::char_traits<char>, std::__ndk1::allocator<char> >, std::__ndk1::allocator<std::__ndk1::basic_string<char, std::__ndk1::char_traits<char>, std::__ndk1::allocator<char> > >&>::~__split_buffer()
PUBLIC 6590 0 std::__ndk1::vector<std::__ndk1::basic_string<char, std::__ndk1::char_traits<char>, std::__ndk1::allocator<char> >, std::__ndk1::allocator<std::__ndk1::basic_string<char, std::__ndk1::char_traits<char>, std::__ndk1::allocator<char> > > >::__throw_length_error[abi:ne180000]() const
PUBLIC 65a4 0 std::__ndk1::__variant_detail::__visitation::__base::__dispatcher<(unsigned long)0>::__dispatch[abi:ne180000]<std::__ndk1::__variant_detail::__dtor<std::__ndk1::__variant_detail::__traits<geode::Hook*, std::__ndk1::basic_string<char, std::__ndk1::char_traits<char>, std::__ndk1::allocator<char> > >, (std::__ndk1::__variant_detail::_Trait)1>::__destroy[abi:ne180000]()::{lambda(auto:1&)#1}, std::__ndk1::__variant_detail::__base<(std::__ndk1::__variant_detail::__traits<geode::Hook*, std::__ndk1::basic_string<char, std::__ndk1::char_traits<char>, std::__ndk1::allocator<char> > >)1, geode::Hook, std::__ndk1::allocator<char> >&>(std::__ndk1::__variant_detail::__dtor<std::__ndk1::__variant_detail::__traits<geode::Hook*, std::__ndk1::basic_string<char, std::__ndk1::char_traits<char>, std::__ndk1::allocator<char> > >, (std::__ndk1::__variant_detail::_Trait)1>, std::__ndk1::__variant_detail::__base<(std::__ndk1::__variant_detail::__traits<geode::Hook*, std::__ndk1::basic_string<char, std::__ndk1::char_traits<char>, std::__ndk1::allocator<char> > >)1, geode::Hook, std::__ndk1::allocator<char> >&)
PUBLIC 65a8 0 std::__ndk1::__variant_detail::__visitation::__base::__dispatcher<(unsigned long)1>::__dispatch[abi:ne180000]<std::__ndk1::__variant_detail::__dtor<std::__ndk1::__variant_detail::__traits<geode::Hook*, std::__ndk1::basic_string<char, std::__ndk1::char_traits<char>, std::__ndk1::allocator<char> > >, (std::__ndk1::__variant_detail::_Trait)1>::__destroy[abi:ne180000]()::{lambda(auto:1&)#1}, std::__ndk1::__variant_detail::__base<(std::__ndk1::__variant_detail::__traits<geode::Hook*, std::__ndk1::basic_string<char, std::__ndk1::char_traits<char>, std::__ndk1::allocator<char> > >)1, geode::Hook, std::__ndk1::allocator<char> >&>(std::__ndk1::__variant_detail::__dtor<std::__ndk1::__variant_detail::__traits<geode::Hook*, std::__ndk1::basic_string<char, std::__ndk1::char_traits<char>, std::__ndk1::allocator<char> > >, (std::__ndk1::__variant_detail::_Trait)1>, std::__ndk1::__variant_detail::__base<(std::__ndk1::__variant_detail::__traits<geode::Hook*, std::__ndk1::basic_string<char, std::__ndk1::char_traits<char>, std::__ndk1::allocator<char> > >)1, geode::Hook, std::__ndk1::allocator<char> >&)
PUBLIC 65bc 0 std::__ndk1::__tree<std::__ndk1::__value_type<std::__ndk1::basic_string<char, std::__ndk1::char_traits<char>, std::__ndk1::allocator<char> >, std::__ndk1::shared_ptr<geode::Hook> >, std::__ndk1::__map_value_compare<std::__ndk1::basic_string<char, std::__ndk1::char_traits<char>, std::__ndk1::allocator<char> >, std::__ndk1::__value_type<std::__ndk1::basic_string<char, std::__ndk1::char_traits<char>, std::__ndk1::allocator<char> >, std::__ndk1::shared_ptr<geode::Hook> >, std::__ndk1::less<std::__ndk1::basic_string<char, std::__ndk1::char_traits<char>, std::__ndk1::allocator<char> > >, true>, std::__ndk1::allocator<std::__ndk1::__value_type<std::__ndk1::basic_string<char, std::__ndk1::char_traits<char>, std::__ndk1::allocator<char> >, std::__ndk1::shared_ptr<geode::Hook> > > >::destroy(std::__ndk1::__tree_node<std::__ndk1::__value_type<std::__ndk1::basic_string<char, std::__ndk1::char_traits<char>, std::__ndk1::allocator<char> >, std::__ndk1::shared_ptr<geode::Hook> >, void*>*)
PUBLIC 6640 0 geode::modifier::AsStaticFunction_incrementJumps<hook8<(anonymous namespace)::hook8Parent>, void (hook8<(anonymous namespace)::hook8Parent>::*)()>::Impl<void (hook8<(anonymous namespace)::hook8Parent>::*)()>::function(hook8<(anonymous namespace)::hook8Parent>*)
PUBLIC 66c8 0 geode::modifier::AsStaticFunction_playerDestroyed<hook8<(anonymous namespace)::hook8Parent>, void (hook8<(anonymous namespace)::hook8Parent>::*)(bool)>::Impl<void (hook8<(anonymous namespace)::hook8Parent>::*)(bool)>::function(hook8<(anonymous namespace)::hook8Parent>*, bool)
PUBLIC 66e4 0 geode::Hook::create<bool (*)(hook8<(anonymous namespace)::hook8Parent>*, PlayerButton)>(void*, bool (*)(hook8<(anonymous namespace)::hook8Parent>*, PlayerButton), std::__ndk1::basic_string<char, std::__ndk1::char_traits<char>, std::__ndk1::allocator<char> > const&, tulip::hook::TulipConvention, tulip::hook::HookMetadata const&)
PUBLIC 6868 0 geode::modifier::AsStaticFunction_pushButton<hook8<(anonymous namespace)::hook8Parent>, bool (hook8<(anonymous namespace)::hook8Parent>::*)(PlayerButton)>::Impl<bool (hook8<(anonymous namespace)::hook8Parent>::*)(PlayerButton)>::function(hook8<(anonymous namespace)::hook8Parent>*, PlayerButton)
PUBLIC 6a2c 0 geode::modifier::AsStaticFunction_releaseButton<hook8<(anonymous namespace)::hook8Parent>, bool (hook8<(anonymous namespace)::hook8Parent>::*)(PlayerButton)>::Impl<bool (hook8<(anonymous namespace)::hook8Parent>::*)(PlayerButton)>::function(hook8<(anonymous namespace)::hook8Parent>*, PlayerButton)
PUBLIC 6a60 0 std::__ndk1::shared_ptr<tulip::hook::CallingConvention>::~shared_ptr[abi:ne180000]()
PUBLIC 6ab0 0 tulip::hook::HandlerMetadata::~HandlerMetadata()
PUBLIC 6b14 0 geode::Mod::getSettingValue<bool>(std::__ndk1::basic_string_view<char, std::__ndk1::char_traits<char> >) const
PUBLIC 6c50 0 hook8<(anonymous namespace)::hook8Parent>::jumpscare()
PUBLIC 6eb8 0 geode::cast::traverseTypeinfoFor(void*, geode::cast::ClassTypeinfoType const*, char const*)
PUBLIC 6fb0 0 std::__ndk1::__tree<std::__ndk1::__value_type<std::__ndk1::basic_string<char, std::__ndk1::char_traits<char>, std::__ndk1::allocator<char> >, std::__ndk1::shared_ptr<geode::Hook> >, std::__ndk1::__map_value_compare<std::__ndk1::basic_string<char, std::__ndk1::char_traits<char>, std::__ndk1::allocator<char> >, std::__ndk1::__value_type<std::__ndk1::basic_string<char, std::__ndk1::char_traits<char>, std::__ndk1::allocator<char> >, std::__ndk1::shared_ptr<geode::Hook> >, std::__ndk1::less<std::__ndk1::basic_string<char, std::__ndk1::char_traits<char>, std::__ndk1::allocator<char> > >, true>, std::__ndk1::allocator<std::__ndk1::__value_type<std::__ndk1::basic_string<char, std::__ndk1::char_traits<char>, std::__ndk1::allocator<char> >, std::__ndk1::shared_ptr<geode::Hook> > > >::__emplace_unique_key_args<std::__ndk1::basic_string<char, std::__ndk1::char_traits<char>, std::__ndk1::allocator<char> >, std::__ndk1::piecewise_construct_t const&, std::__ndk1::tuple<std::__ndk1::basic_string<char, std::__ndk1::char_traits<char>, std::__ndk1::allocator<char> >&&>, std::__ndk1::tuple<> >(std::__ndk1::basic_string<char, std::__ndk1::char_traits<char>, std::__ndk1::allocator<char> > const&, std::__ndk1::piecewise_construct_t const&, std::__ndk1::tuple<std::__ndk1::basic_string<char, std::__ndk1::char_traits<char>, std::__ndk1::allocator<char> >&&>, std::__ndk1::tuple<>)
PUBLIC 7118 0 std::__ndk1::__tree_balance_after_insert[abi:ne180000]<std::__ndk1::__tree_node_base<void*>*>(std::__ndk1::__tree_node_base<void*>*, std::__ndk1::__tree_node_base<void*>*)
PUBLIC m 72c8 0 geodeImplicitEntry
PUBLIC 7304 0 wrapFunction(unsigned long, tulip::hook::WrapperMetadata const&)
PUBLIC 7438 0 geode::impl::ResultData<void*, std::__ndk1::basic_string<char, std::__ndk1::char_traits<char>, std::__ndk1::allocator<char> > >::unwrapErr() &
PUBLIC 74b0 0 geode::impl::ResultData<void*, std::__ndk1::basic_string<char, std::__ndk1::char_traits<char>, std::__ndk1::allocator<char> > >::~ResultData()
PUBLIC 7524 0 tulip::hook::WrapperMetadata::~WrapperMetadata()
PUBLIC 7588 0 FMODAudioEngine::playEffect(gd::string)
PUBLIC 7700 0 tulip::hook::AbstractFunction::from<void, FMODAudioEngine*, gd::string>(void (*)(FMODAudioEngine*, gd::string))
PUBLIC 77a4 0 _ZN5geode15UnwrapExceptionC2IRPvQsr4implE18IsStringStreamableIT_EEENS_4impl5OkTagEOS4_
PUBLIC 78f8 0 _ZN5geode15UnwrapExceptionC2IRNSt6__ndk112basic_stringIcNS2_11char_traitsIcEENS2_9allocatorIcEEEEQsr4implE18IsStringStreamableIT_EEENS_4impl6ErrTagEOSA_
PUBLIC 7a60 0 std::__ndk1::__variant_detail::__visitation::__base::__dispatcher<(unsigned long)0>::__dispatch[abi:ne180000]<std::__ndk1::__variant_detail::__dtor<std::__ndk1::__variant_detail::__traits<void*, std::__ndk1::basic_string<char, std::__ndk1::char_traits<char>, std::__ndk1::allocator<char> > >, (std::__ndk1::__variant_detail::_Trait)1>::__destroy[abi:ne180000]()::{lambda(auto:1&)#1}, std::__ndk1::__variant_detail::__base<(std::__ndk1::__variant_detail::__traits<void*, std::__ndk1::basic_string<char, std::__ndk1::char_traits<char>, std::__ndk1::allocator<char> > >)1, std::__ndk1::__variant_detail::__traits, std::__ndk1::allocator<char> >&>(std::__ndk1::__variant_detail::__dtor<std::__ndk1::__variant_detail::__traits<void*, std::__ndk1::basic_string<char, std::__ndk1::char_traits<char>, std::__ndk1::allocator<char> > >, (std::__ndk1::__variant_detail::_Trait)1>, std::__ndk1::__variant_detail::__base<(std::__ndk1::__variant_detail::__traits<void*, std::__ndk1::basic_string<char, std::__ndk1::char_traits<char>, std::__ndk1::allocator<char> > >)1, std::__ndk1::__variant_detail::__traits, std::__ndk1::allocator<char> >&)
PUBLIC 7a64 0 std::__ndk1::__variant_detail::__visitation::__base::__dispatcher<(unsigned long)1>::__dispatch[abi:ne180000]<std::__ndk1::__variant_detail::__dtor<std::__ndk1::__variant_detail::__traits<void*, std::__ndk1::basic_string<char, std::__ndk1::char_traits<char>, std::__ndk1::allocator<char> > >, (std::__ndk1::__variant_detail::_Trait)1>::__destroy[abi:ne180000]()::{lambda(auto:1&)#1}, std::__ndk1::__variant_detail::__base<(std::__ndk1::__variant_detail::__traits<void*, std::__ndk1::basic_string<char, std::__ndk1::char_traits<char>, std::__ndk1::allocator<char> > >)1, std::__ndk1::__variant_detail::__traits, std::__ndk1::allocator<char> >&>(std::__ndk1::__variant_detail::__dtor<std::__ndk1::__variant_detail::__traits<void*, std::__ndk1::basic_string<char, std::__ndk1::char_traits<char>, std::__ndk1::allocator<char> > >, (std::__ndk1::__variant_detail::_Trait)1>, std::__ndk1::__variant_detail::__base<(std::__ndk1::__variant_detail::__traits<void*, std::__ndk1::basic_string<char, std::__ndk1::char_traits<char>, std::__ndk1::allocator<char> > >)1, std::__ndk1::__variant_detail::__traits, std::__ndk1::allocator<char> >&)
PUBLIC 7a80 0 <.plt ELF section in n.robtop-jumpscare.android64.so>
STACK CFI INIT 3bc0 10 .cfa: sp 0 +
STACK CFI INIT 3bd0 8 .cfa: sp 0 +
STACK CFI INIT 3bd8 8 .cfa: sp 0 +
STACK CFI INIT 3be0 14 .cfa: sp 0 +
STACK CFI INIT 3bf4 1c .cfa: sp 0 +
STACK CFI INIT 3c10 10 .cfa: sp 0 +
STACK CFI INIT 3c20 30 .cfa: sp 0 +
STACK CFI INIT 3c50 98 .cfa: sp 0 +
STACK CFI INIT 3ce8 59c .cfa: sp 0 +
STACK CFI INIT 4284 8c .cfa: sp 0 +
STACK CFI INIT 4310 30 .cfa: sp 0 +
STACK CFI INIT 4ee0 18 .cfa: sp 0 +
STACK CFI INIT 58f4 50 .cfa: sp 0 +
STACK CFI 58f8 .cfa: sp 32 +
STACK CFI 5900 .cfa: x29 32 + x19: .cfa -16 + ^ .ra: .cfa -24 + ^ x29: .cfa -32 + ^
STACK CFI 5918 .cfa: sp 32 +
STACK CFI 5920 .cfa: sp 0 +
STACK CFI 5924 .cfa: x29 32 +
STACK CFI 5938 .cfa: sp 32 +
STACK CFI 5940 .cfa: sp 0 +
STACK CFI INIT 59b8 7c .cfa: sp 0 +
STACK CFI 59bc .cfa: sp 48 +
STACK CFI 59c8 .cfa: x29 48 + x19: .cfa -8 + ^ x20: .cfa -16 + ^ x21: .cfa -32 + ^ .ra: .cfa -40 + ^ x29: .cfa -48 + ^
STACK CFI 5a14 .cfa: sp 48 +
STACK CFI 5a20 .cfa: sp 0 +
STACK CFI 5a24 .cfa: sp 48 +
STACK CFI 5a30 .cfa: sp 0 +
STACK CFI INIT 5a34 4 .cfa: sp 0 +
STACK CFI INIT 5a38 10 .cfa: sp 0 +
STACK CFI 5a3c .cfa: sp 16 +
STACK CFI 5a40 .cfa: x29 16 + .ra: .cfa -8 + ^ x29: .cfa -16 + ^
STACK CFI INIT 5b9c 34 .cfa: sp 0 +
STACK CFI 5ba0 .cfa: sp 16 +
STACK CFI 5ba4 .cfa: x29 16 + .ra: .cfa -8 + ^ x29: .cfa -16 + ^
STACK CFI INIT 5cfc 80 .cfa: sp 0 +
STACK CFI 5d00 .cfa: sp 48 +
STACK CFI 5d0c .cfa: x29 48 + x19: .cfa -8 + ^ x20: .cfa -16 + ^ x21: .cfa -32 + ^ .ra: .cfa -40 + ^ x29: .cfa -48 + ^
STACK CFI 5d6c .cfa: sp 48 +
STACK CFI 5d78 .cfa: sp 0 +
STACK CFI INIT 5d7c 24 .cfa: sp 0 +
STACK CFI 5d80 .cfa: sp 32 +
STACK CFI 5d88 .cfa: x29 32 + x19: .cfa -16 + ^ .ra: .cfa -24 + ^ x29: .cfa -32 + ^
STACK CFI 5d94 .cfa: sp 32 +
STACK CFI 5d9c .cfa: sp 0 +
STACK CFI INIT 6120 14 .cfa: sp 0 +
STACK CFI 6124 .cfa: sp 16 +
STACK CFI 6128 .cfa: x29 16 + .ra: .cfa -8 + ^ x29: .cfa -16 + ^
STACK CFI INIT 6184 30 .cfa: sp 0 +
STACK CFI 6188 .cfa: sp 32 +
STACK CFI 6190 .cfa: x29 32 + x19: .cfa -16 + ^ .ra: .cfa -24 + ^ x29: .cfa -32 + ^
STACK CFI 61a8 .cfa: sp 32 +
STACK CFI 61b0 .cfa: sp 0 +
STACK CFI INIT 61b4 34 .cfa: sp 0 +
STACK CFI 61b8 .cfa: sp 32 +
STACK CFI 61c0 .cfa: x29 32 + x19: .cfa -16 + ^ .ra: .cfa -24 + ^ x29: .cfa -32 + ^
STACK CFI INIT 6360 148 .cfa: sp 0 +
STACK CFI 6364 .cfa: sp 48 +
STACK CFI 6370 .cfa: x29 48 + x19: .cfa -8 + ^ x20: .cfa -16 + ^ x21: .cfa -32 + ^ .ra: .cfa -40 + ^ x29: .cfa -48 + ^
STACK CFI 6498 .cfa: sp 48 +
STACK CFI 64a4 .cfa: sp 0 +
STACK CFI INIT 64a8 80 .cfa: sp 0 +
STACK CFI 64ac .cfa: sp 48 +
STACK CFI 64b8 .cfa: x29 48 + x19: .cfa -8 + ^ x20: .cfa -16 + ^ x21: .cfa -24 + ^ x22: .cfa -32 + ^ .ra: .cfa -40 + ^ x29: .cfa -48 + ^
STACK CFI 64d0 .cfa: sp 48 +
STACK CFI 64dc .cfa: sp 0 +
STACK CFI 64e0 .cfa: x29 48 +
STACK CFI 6510 .cfa: sp 48 +
STACK CFI 651c .cfa: sp 0 +
STACK CFI 6520 .cfa: x29 48 +
STACK CFI INIT 6528 68 .cfa: sp 0 +
STACK CFI 652c .cfa: sp 32 +
STACK CFI 6534 .cfa: x29 32 + x19: .cfa -8 + ^ x20: .cfa -16 + ^ .ra: .cfa -24 + ^ x29: .cfa -32 + ^
STACK CFI 654c .cfa: sp 32 +
STACK CFI 6554 .cfa: sp 0 +
STACK CFI 6558 .cfa: x29 32 +
STACK CFI 6584 .cfa: sp 32 +
STACK CFI 658c .cfa: sp 0 +
STACK CFI INIT 6590 14 .cfa: sp 0 +
STACK CFI 6594 .cfa: sp 16 +
STACK CFI 6598 .cfa: x29 16 + .ra: .cfa -8 + ^ x29: .cfa -16 + ^
STACK CFI INIT 65a4 4 .cfa: sp 0 +
STACK CFI INIT 65a8 14 .cfa: sp 0 +
STACK CFI INIT 65bc 84 .cfa: sp 0 +
STACK CFI 65c4 .cfa: sp 32 +
STACK CFI 65cc .cfa: x29 32 + x19: .cfa -8 + ^ x20: .cfa -16 + ^ .ra: .cfa -24 + ^ x29: .cfa -32 + ^
STACK CFI 660c .cfa: sp 32 +
STACK CFI 6614 .cfa: sp 0 +
STACK CFI 661c .cfa: x29 32 +
STACK CFI INIT 6640 88 .cfa: sp 0 +
STACK CFI 6644 .cfa: sp 32 +
STACK CFI 664c .cfa: x29 32 + x19: .cfa -8 + ^ x20: .cfa -16 + ^ .ra: .cfa -24 + ^ x29: .cfa -32 + ^
STACK CFI 666c .cfa: sp 32 +
STACK CFI 6674 .cfa: sp 0 +
STACK CFI 6678 .cfa: x29 32 +
STACK CFI 66bc .cfa: sp 32 +
STACK CFI 66c4 .cfa: sp 0 +
STACK CFI INIT 66c8 1c .cfa: sp 0 +
STACK CFI 66cc .cfa: sp 16 +
STACK CFI 66d0 .cfa: x29 16 + .ra: .cfa -8 + ^ x29: .cfa -16 + ^
STACK CFI 66dc .cfa: sp 16 +
STACK CFI 66e0 .cfa: sp 0 +
STACK CFI INIT 6a2c 34 .cfa: sp 0 +
STACK CFI 6a30 .cfa: sp 32 +
STACK CFI 6a38 .cfa: x29 32 + x19: .cfa -16 + ^ .ra: .cfa -24 + ^ x29: .cfa -32 + ^
STACK CFI 6a54 .cfa: sp 32 +
STACK CFI 6a5c .cfa: sp 0 +
STACK CFI INIT 6a60 50 .cfa: sp 0 +
STACK CFI 6a64 .cfa: sp 32 +
STACK CFI 6a6c .cfa: x29 32 + x19: .cfa -16 + ^ .ra: .cfa -24 + ^ x29: .cfa -32 + ^
STACK CFI 6a84 .cfa: sp 32 +
STACK CFI 6a8c .cfa: sp 0 +
STACK CFI 6a90 .cfa: x29 32 +
STACK CFI 6aa4 .cfa: sp 32 +
STACK CFI 6aac .cfa: sp 0 +
STACK CFI INIT 6ab0 64 .cfa: sp 0 +
STACK CFI 6ab4 .cfa: sp 32 +
STACK CFI 6abc .cfa: x29 32 + x19: .cfa -16 + ^ .ra: .cfa -24 + ^ x29: .cfa -32 + ^
STACK CFI 6ae8 .cfa: sp 32 +
STACK CFI 6af0 .cfa: sp 0 +
STACK CFI 6af4 .cfa: x29 32 +
STACK CFI 6b08 .cfa: sp 32 +
STACK CFI 6b10 .cfa: sp 0 +
STACK CFI INIT 6b14 13c .cfa: sp 0 +
STACK CFI 6b18 .cfa: sp 80 +
STACK CFI 6b28 .cfa: x29 48 + x19: .cfa -8 + ^ x20: .cfa -16 + ^ x21: .cfa -24 + ^ x22: .cfa -32 + ^ .ra: .cfa -40 + ^ x29: .cfa -48 + ^
STACK CFI 6c38 .cfa: sp 80 +
STACK CFI 6c48 .cfa: sp 0 +
STACK CFI 6c4c .cfa: x29 48 +
STACK CFI INIT 6eb8 f8 .cfa: sp 0 +
STACK CFI 6ebc .cfa: sp 64 +
STACK CFI 6ecc .cfa: x29 64 + x19: .cfa -8 + ^ x20: .cfa -16 + ^ x21: .cfa -24 + ^ x22: .cfa -32 + ^ x23: .cfa -48 + ^ .ra: .cfa -56 + ^ x29: .cfa -64 + ^
STACK CFI 6f28 .cfa: sp 64 +
STACK CFI 6f38 .cfa: sp 0 +
STACK CFI 6f3c .cfa: x29 64 +
STACK CFI 6f58 .cfa: sp 64 +
STACK CFI 6f68 .cfa: sp 0 +
STACK CFI 6f6c .cfa: x29 64 +
STACK CFI 6f9c .cfa: sp 64 +
STACK CFI 6fac .cfa: sp 0 +
STACK CFI INIT 6fb0 168 .cfa: sp 0 +
STACK CFI 6fb4 .cfa: sp 80 +
STACK CFI 6fc8 .cfa: x29 80 + x19: .cfa -8 + ^ x20: .cfa -16 + ^ x21: .cfa -24 + ^ x22: .cfa -32 + ^ x23: .cfa -40 + ^ x24: .cfa -48 + ^ x25: .cfa -56 + ^ x26: .cfa -64 + ^ .ra: .cfa -72 + ^ x29: .cfa -80 + ^
STACK CFI 7100 .cfa: sp 80 +
STACK CFI 7114 .cfa: sp 0 +
STACK CFI INIT 7118 1b0 .cfa: sp 0 +
STACK CFI INIT 72c8 3c .cfa: sp 0 +
STACK CFI 72cc .cfa: sp 32 +
STACK CFI 72d4 .cfa: x29 32 + x19: .cfa -16 + ^ .ra: .cfa -24 + ^ x29: .cfa -32 + ^
STACK CFI 72e0 .cfa: sp 32 +
STACK CFI 72e8 .cfa: sp 0 +
STACK CFI 72ec .cfa: x29 32 +
STACK CFI 72f8 .cfa: sp 32 +
STACK CFI 7300 .cfa: sp 0 +
STACK CFI INIT 7524 64 .cfa: sp 0 +
STACK CFI 7528 .cfa: sp 32 +
STACK CFI 7530 .cfa: x29 32 + x19: .cfa -16 + ^ .ra: .cfa -24 + ^ x29: .cfa -32 + ^
STACK CFI 755c .cfa: sp 32 +
STACK CFI 7564 .cfa: sp 0 +
STACK CFI 7568 .cfa: x29 32 +
STACK CFI 757c .cfa: sp 32 +
STACK CFI 7584 .cfa: sp 0 +
STACK CFI INIT 7a60 4 .cfa: sp 0 +
STACK CFI INIT 7a64 14 .cfa: sp 0 +
STACK CFI INIT 4340 ba0 .cfa: sp 0 +
STACK CFI 4344 .cfa: sp 240 +
STACK CFI 4360 .cfa: x29 96 + x19: .cfa -8 + ^ x20: .cfa -16 + ^ x21: .cfa -24 + ^ x22: .cfa -32 + ^ x23: .cfa -40 + ^ x24: .cfa -48 + ^ x25: .cfa -56 + ^ x26: .cfa -64 + ^ x27: .cfa -72 + ^ x28: .cfa -80 + ^ .ra: .cfa -88 + ^ x29: .cfa -96 + ^
STACK CFI 4d88 .cfa: sp 240 +
STACK CFI 4da4 .cfa: sp 0 +
STACK CFI 4da8 .cfa: x29 96 +
STACK CFI INIT 4ef8 9fc .cfa: sp 0 +
STACK CFI 4efc .cfa: sp 288 +
STACK CFI 4f18 .cfa: x29 96 + x19: .cfa -8 + ^ x20: .cfa -16 + ^ x21: .cfa -24 + ^ x22: .cfa -32 + ^ x23: .cfa -40 + ^ x24: .cfa -48 + ^ x25: .cfa -56 + ^ x26: .cfa -64 + ^ x28: .cfa -80 + ^ .ra: .cfa -88 + ^ x29: .cfa -96 + ^
STACK CFI 5604 .cfa: sp 288 +
STACK CFI 5620 .cfa: sp 0 +
STACK CFI 5624 .cfa: x29 96 +
STACK CFI INIT 5944 74 .cfa: sp 0 +
STACK CFI 5948 .cfa: sp 48 +
STACK CFI 5954 .cfa: x29 32 + x19: .cfa -8 + ^ x20: .cfa -16 + ^ .ra: .cfa -24 + ^ x29: .cfa -32 + ^
STACK CFI 59a0 .cfa: sp 48 +
STACK CFI 59ac .cfa: sp 0 +
STACK CFI 59b0 .cfa: x29 32 +
STACK CFI INIT 5a48 154 .cfa: sp 0 +
STACK CFI 5a4c .cfa: sp 384 +
STACK CFI 5a60 .cfa: x29 64 + x19: .cfa -8 + ^ x20: .cfa -16 + ^ x21: .cfa -24 + ^ x22: .cfa -32 + ^ x23: .cfa -40 + ^ x28: .cfa -48 + ^ .ra: .cfa -56 + ^ x29: .cfa -64 + ^
STACK CFI 5b44 .cfa: sp 384 +
STACK CFI 5b58 .cfa: sp 0 +
STACK CFI 5b5c .cfa: x29 64 +
STACK CFI INIT 5bd0 12c .cfa: sp 0 +
STACK CFI 5bd4 .cfa: sp 80 +
STACK CFI 5be8 .cfa: x29 80 + x19: .cfa -8 + ^ x20: .cfa -16 + ^ x21: .cfa -24 + ^ x22: .cfa -32 + ^ x23: .cfa -40 + ^ x24: .cfa -48 + ^ x25: .cfa -56 + ^ x26: .cfa -64 + ^ .ra: .cfa -72 + ^ x29: .cfa -80 + ^
STACK CFI 5cb0 .cfa: sp 80 +
STACK CFI 5cc4 .cfa: sp 0 +
STACK CFI 5cc8 .cfa: x29 80 +
STACK CFI INIT 5da0 1a4 .cfa: sp 0 +
STACK CFI 5da4 .cfa: sp 112 +
STACK CFI 5dbc .cfa: x29 80 + x19: .cfa -8 + ^ x20: .cfa -16 + ^ x21: .cfa -24 + ^ x22: .cfa -32 + ^ x23: .cfa -40 + ^ x24: .cfa -48 + ^ x25: .cfa -56 + ^ x26: .cfa -64 + ^ .ra: .cfa -72 + ^ x29: .cfa -80 + ^
STACK CFI 5eac .cfa: sp 112 +
STACK CFI 5ec4 .cfa: sp 0 +
STACK CFI 5ec8 .cfa: x29 80 +
STACK CFI INIT 5f44 1dc .cfa: sp 0 +
STACK CFI 5f48 .cfa: sp 128 +
STACK CFI 5f64 .cfa: x29 96 + x19: .cfa -8 + ^ x20: .cfa -16 + ^ x21: .cfa -24 + ^ x22: .cfa -32 + ^ x23: .cfa -40 + ^ x24: .cfa -48 + ^ x25: .cfa -56 + ^ x26: .cfa -64 + ^ x27: .cfa -80 + ^ .ra: .cfa -88 + ^ x29: .cfa -96 + ^
STACK CFI 60d0 .cfa: sp 128 +
STACK CFI 60ec .cfa: sp 0 +
STACK CFI 60f0 .cfa: x29 96 +
STACK CFI INIT 6134 50 .cfa: sp 0 +
STACK CFI 6138 .cfa: sp 32 +
STACK CFI 6140 .cfa: x29 32 + x19: .cfa -8 + ^ x20: .cfa -16 + ^ .ra: .cfa -24 + ^ x29: .cfa -32 + ^
STACK CFI INIT 61e8 178 .cfa: sp 0 +
STACK CFI 61ec .cfa: sp 80 +
STACK CFI 6200 .cfa: x29 80 + x19: .cfa -8 + ^ x20: .cfa -16 + ^ x21: .cfa -24 + ^ x22: .cfa -32 + ^ x23: .cfa -40 + ^ x24: .cfa -48 + ^ x25: .cfa -64 + ^ .ra: .cfa -72 + ^ x29: .cfa -80 + ^
STACK CFI 632c .cfa: sp 80 +
STACK CFI 6340 .cfa: sp 0 +
STACK CFI 6344 .cfa: x29 80 +
STACK CFI INIT 66e4 184 .cfa: sp 0 +
STACK CFI 66e8 .cfa: sp 144 +
STACK CFI 6700 .cfa: x29 80 + x19: .cfa -8 + ^ x20: .cfa -16 + ^ x21: .cfa -24 + ^ x22: .cfa -32 + ^ x23: .cfa -40 + ^ x24: .cfa -48 + ^ x25: .cfa -56 + ^ x26: .cfa -64 + ^ .ra: .cfa -72 + ^ x29: .cfa -80 + ^
STACK CFI 6800 .cfa: sp 144 +
STACK CFI 6818 .cfa: sp 0 +
STACK CFI 681c .cfa: x29 80 +
STACK CFI INIT 6868 1c4 .cfa: sp 0 +
STACK CFI 686c .cfa: sp 112 +
STACK CFI 6884 .cfa: x29 56 + x19: .cfa -8 + ^ x20: .cfa -16 + ^ x21: .cfa -24 + ^ x22: .cfa -32 + ^ x23: .cfa -40 + ^ .ra: .cfa -48 + ^ x29: .cfa -56 + ^ v8: .cfa -64 + ^
STACK CFI 69e0 .cfa: sp 112 +
STACK CFI 69f8 .cfa: sp 0 +
STACK CFI 69fc .cfa: x29 56 +
STACK CFI INIT 6c50 268 .cfa: sp 0 +
STACK CFI 6c54 .cfa: sp 96 +
STACK CFI 6c6c .cfa: x29 56 + x19: .cfa -8 + ^ x20: .cfa -16 + ^ x21: .cfa -24 + ^ x22: .cfa -32 + ^ x23: .cfa -40 + ^ .ra: .cfa -48 + ^ x29: .cfa -56 + ^ v8: .cfa -64 + ^
STACK CFI 6e74 .cfa: sp 96 +
STACK CFI 6e8c .cfa: sp 0 +
STACK CFI 6e90 .cfa: x29 56 +
STACK CFI INIT 7304 134 .cfa: sp 0 +
STACK CFI 7308 .cfa: sp 80 +
STACK CFI 7314 .cfa: x29 32 + x19: .cfa -8 + ^ x20: .cfa -16 + ^ .ra: .cfa -24 + ^ x29: .cfa -32 + ^
STACK CFI 7344 .cfa: sp 80 +
STACK CFI 7350 .cfa: sp 0 +
STACK CFI 7354 .cfa: x29 32 +
STACK CFI INIT 7438 78 .cfa: sp 0 +
STACK CFI 743c .cfa: sp 32 +
STACK CFI 7444 .cfa: x29 32 + x19: .cfa -8 + ^ x20: .cfa -16 + ^ .ra: .cfa -24 + ^ x29: .cfa -32 + ^
STACK CFI 7450 .cfa: sp 32 +
STACK CFI 7458 .cfa: sp 0 +
STACK CFI 745c .cfa: x29 32 +
STACK CFI INIT 74b0 74 .cfa: sp 0 +
STACK CFI 74b4 .cfa: sp 48 +
STACK CFI 74c0 .cfa: x29 32 + x19: .cfa -8 + ^ x20: .cfa -16 + ^ .ra: .cfa -24 + ^ x29: .cfa -32 + ^
STACK CFI 750c .cfa: sp 48 +
STACK CFI 7518 .cfa: sp 0 +
STACK CFI 751c .cfa: x29 32 +
STACK CFI INIT 7588 178 .cfa: sp 0 +
STACK CFI 758c .cfa: sp 128 +
STACK CFI 759c .cfa: x29 48 + x19: .cfa -8 + ^ x20: .cfa -16 + ^ x21: .cfa -24 + ^ x22: .cfa -32 + ^ .ra: .cfa -40 + ^ x29: .cfa -48 + ^
STACK CFI 75f8 .cfa: sp 128 +
STACK CFI 7608 .cfa: sp 0 +
STACK CFI 760c .cfa: x29 48 +
STACK CFI INIT 7700 a4 .cfa: sp 0 +
STACK CFI 7704 .cfa: sp 48 +
STACK CFI 7710 .cfa: x29 48 + x19: .cfa -8 + ^ x20: .cfa -16 + ^ x21: .cfa -32 + ^ .ra: .cfa -40 + ^ x29: .cfa -48 + ^
STACK CFI 777c .cfa: sp 48 +
STACK CFI 7788 .cfa: sp 0 +
STACK CFI 778c .cfa: x29 48 +
STACK CFI INIT 77a4 154 .cfa: sp 0 +
STACK CFI 77a8 .cfa: sp 384 +
STACK CFI 77bc .cfa: x29 64 + x19: .cfa -8 + ^ x20: .cfa -16 + ^ x21: .cfa -24 + ^ x22: .cfa -32 + ^ x23: .cfa -40 + ^ x28: .cfa -48 + ^ .ra: .cfa -56 + ^ x29: .cfa -64 + ^
STACK CFI 78a0 .cfa: sp 384 +
STACK CFI 78b4 .cfa: sp 0 +
STACK CFI 78b8 .cfa: x29 64 +
STACK CFI INIT 78f8 168 .cfa: sp 0 +
STACK CFI 78fc .cfa: sp 384 +
STACK CFI 7910 .cfa: x29 64 + x19: .cfa -8 + ^ x20: .cfa -16 + ^ x21: .cfa -24 + ^ x22: .cfa -32 + ^ x23: .cfa -40 + ^ x28: .cfa -48 + ^ .ra: .cfa -56 + ^ x29: .cfa -64 + ^
STACK CFI 7a08 .cfa: sp 384 +
STACK CFI 7a1c .cfa: sp 0 +
STACK CFI 7a20 .cfa: x29 64 +
