MODULE Linux arm64 9954F59B9D9A36F02372FA3CE2C421D90 rgc_exists.swingcopter_flip.android64.so
INFO CODE_ID 9BF554999A9DF0362372FA3CE2C421D9CE12C3CC
INFO GENERATOR mozilla/dump_syms 2.3.4
PUBLIC 3b80 0 __on_dlclose
PUBLIC 3b90 0 __emutls_unregister_key
PUBLIC 3b98 0 __on_dlclose_late
PUBLIC 3ba0 0 __atexit_handler_wrapper
PUBLIC 3bb4 0 atexit
PUBLIC 3bd0 0 pthread_atfork
PUBLIC 3be0 0 __aarch64_ldadd8_relax
PUBLIC 3c10 0 init_have_lse_atomics
PUBLIC 3ca8 0 __init_cpu_features_constructor
PUBLIC 4244 0 __init_cpu_features
PUBLIC 42d0 0 __aarch64_ldadd8_acq_rel
PUBLIC 4300 0 __cxx_global_var_init
PUBLIC 4ea0 0 geode::modifier::ModifyBase<geode::modifier::ModifyDerive<hook13<(anonymous namespace)::hook13Parent>, PlayerObject> >::~ModifyBase()
PUBLIC 4eb8 0 geode::modifier::ModifyDerive<hook13<(anonymous namespace)::hook13Parent>, PlayerObject>::apply()
PUBLIC 5518 0 std::__ndk1::shared_ptr<geode::Hook>::~shared_ptr[abi:ne180000]()
PUBLIC 5568 0 geode::impl::ResultData<geode::Hook*, std::__ndk1::basic_string<char, std::__ndk1::char_traits<char>, std::__ndk1::allocator<char> > >::~ResultData()
PUBLIC 55dc 0 std::__ndk1::vector<std::__ndk1::basic_string<char, std::__ndk1::char_traits<char>, std::__ndk1::allocator<char> >, std::__ndk1::allocator<std::__ndk1::basic_string<char, std::__ndk1::char_traits<char>, std::__ndk1::allocator<char> > > >::~vector[abi:ne180000]()
PUBLIC 5658 0 geode::modifier::ModifyBase<geode::modifier::ModifyDerive<hook13<(anonymous namespace)::hook13Parent>, PlayerObject> >::apply()
PUBLIC 565c 0 __clang_call_terminate
PUBLIC 566c 0 _ZN5geode15UnwrapExceptionC2IRPNS_4HookEQsr4implE18IsStringStreamableIT_EEENS_4impl5OkTagEOS5_
PUBLIC 5d68 0 std::__ndk1::__throw_bad_variant_access[abi:ne180000]()
PUBLIC m 5d9c 0 std::__ndk1::basic_stringstream<char, std::__ndk1::char_traits<char>, std::__ndk1::allocator<char> >::~basic_stringstream()
PUBLIC 5e1c 0 geode::UnwrapException::~UnwrapException()
PUBLIC 5e40 0 std::__ndk1::basic_string<char, std::__ndk1::char_traits<char>, std::__ndk1::allocator<char> >::__throw_length_error[abi:ne180000]() const
PUBLIC 5e54 0 std::__ndk1::__throw_length_error[abi:ne180000](char const*)
PUBLIC 5ea4 0 std::length_error::length_error[abi:ne180000](char const*)
PUBLIC 5ed4 0 std::__throw_bad_array_new_length([abi:ne180000], void)
PUBLIC 5f08 0 std::__ndk1::basic_string<char, std::__ndk1::char_traits<char>, std::__ndk1::allocator<char> >::__init_copy_ctor_external(char const*, unsigned long)
PUBLIC 5f84 0 std::__ndk1::__split_buffer<std::__ndk1::basic_string<char, std::__ndk1::char_traits<char>, std::__ndk1::allocator<char> >, std::__ndk1::allocator<std::__ndk1::basic_string<char, std::__ndk1::char_traits<char>, std::__ndk1::allocator<char> > >&>::~__split_buffer()
PUBLIC 5fec 0 std::__ndk1::vector<std::__ndk1::basic_string<char, std::__ndk1::char_traits<char>, std::__ndk1::allocator<char> >, std::__ndk1::allocator<std::__ndk1::basic_string<char, std::__ndk1::char_traits<char>, std::__ndk1::allocator<char> > > >::__throw_length_error[abi:ne180000]() const
PUBLIC 6000 0 std::__ndk1::__variant_detail::__visitation::__base::__dispatcher<(unsigned long)0>::__dispatch[abi:ne180000]<std::__ndk1::__variant_detail::__dtor<std::__ndk1::__variant_detail::__traits<geode::Hook*, std::__ndk1::basic_string<char, std::__ndk1::char_traits<char>, std::__ndk1::allocator<char> > >, (std::__ndk1::__variant_detail::_Trait)1>::__destroy[abi:ne180000]()::{lambda(auto:1&)#1}, std::__ndk1::__variant_detail::__base<(std::__ndk1::__variant_detail::__traits<geode::Hook*, std::__ndk1::basic_string<char, std::__ndk1::char_traits<char>, std::__ndk1::allocator<char> > >)1, geode::Hook, std::__ndk1::allocator<char> >&>(std::__ndk1::__variant_detail::__dtor<std::__ndk1::__variant_detail::__traits<geode::Hook*, std::__ndk1::basic_string<char, std::__ndk1::char_traits<char>, std::__ndk1::allocator<char> > >, (std::__ndk1::__variant_detail::_Trait)1>, std::__ndk1::__variant_detail::__base<(std::__ndk1::__variant_detail::__traits<geode::Hook*, std::__ndk1::basic_string<char, std::__ndk1::char_traits<char>, std::__ndk1::allocator<char> > >)1, geode::Hook, std::__ndk1::allocator<char> >&)
PUBLIC 6004 0 std::__ndk1::__variant_detail::__visitation::__base::__dispatcher<(unsigned long)1>::__dispatch[abi:ne180000]<std::__ndk1::__variant_detail::__dtor<std::__ndk1::__variant_detail::__traits<geode::Hook*, std::__ndk1::basic_string<char, std::__ndk1::char_traits<char>, std::__ndk1::allocator<char> > >, (std::__ndk1::__variant_detail::_Trait)1>::__destroy[abi:ne180000]()::{lambda(auto:1&)#1}, std::__ndk1::__variant_detail::__base<(std::__ndk1::__variant_detail::__traits<geode::Hook*, std::__ndk1::basic_string<char, std::__ndk1::char_traits<char>, std::__ndk1::allocator<char> > >)1, geode::Hook, std::__ndk1::allocator<char> >&>(std::__ndk1::__variant_detail::__dtor<std::__ndk1::__variant_detail::__traits<geode::Hook*, std::__ndk1::basic_string<char, std::__ndk1::char_traits<char>, std::__ndk1::allocator<char> > >, (std::__ndk1::__variant_detail::_Trait)1>, std::__ndk1::__variant_detail::__base<(std::__ndk1::__variant_detail::__traits<geode::Hook*, std::__ndk1::basic_string<char, std::__ndk1::char_traits<char>, std::__ndk1::allocator<char> > >)1, geode::Hook, std::__ndk1::allocator<char> >&)
PUBLIC 6018 0 std::__ndk1::__tree<std::__ndk1::__value_type<std::__ndk1::basic_string<char, std::__ndk1::char_traits<char>, std::__ndk1::allocator<char> >, std::__ndk1::shared_ptr<geode::Hook> >, std::__ndk1::__map_value_compare<std::__ndk1::basic_string<char, std::__ndk1::char_traits<char>, std::__ndk1::allocator<char> >, std::__ndk1::__value_type<std::__ndk1::basic_string<char, std::__ndk1::char_traits<char>, std::__ndk1::allocator<char> >, std::__ndk1::shared_ptr<geode::Hook> >, std::__ndk1::less<std::__ndk1::basic_string<char, std::__ndk1::char_traits<char>, std::__ndk1::allocator<char> > >, true>, std::__ndk1::allocator<std::__ndk1::__value_type<std::__ndk1::basic_string<char, std::__ndk1::char_traits<char>, std::__ndk1::allocator<char> >, std::__ndk1::shared_ptr<geode::Hook> > > >::destroy(std::__ndk1::__tree_node<std::__ndk1::__value_type<std::__ndk1::basic_string<char, std::__ndk1::char_traits<char>, std::__ndk1::allocator<char> >, std::__ndk1::shared_ptr<geode::Hook> >, void*>*)
PUBLIC 609c 0 geode::modifier::AsStaticFunction_update<hook13<(anonymous namespace)::hook13Parent>, void (hook13<(anonymous namespace)::hook13Parent>::*)(float)>::Impl<void (hook13<(anonymous namespace)::hook13Parent>::*)(float)>::function(hook13<(anonymous namespace)::hook13Parent>*, float)
PUBLIC 6260 0 geode::modifier::AsStaticFunction_flipGravity<hook13<(anonymous namespace)::hook13Parent>, void (hook13<(anonymous namespace)::hook13Parent>::*)(bool, bool)>::Impl<void (hook13<(anonymous namespace)::hook13Parent>::*)(bool, bool)>::function(hook13<(anonymous namespace)::hook13Parent>*, bool, bool)
PUBLIC 6310 0 geode::addresser::Addresser::addressOfVirtual<void, PlayerObject, float>(void (PlayerObject::*)(float))
PUBLIC 63d8 0 PlayerObject::PlayerObject(geode::ZeroConstructorType)
PUBLIC 6698 0 geode::stl::unordered_set<int, geode::stl::hash<int>, geode::stl::equal_to<int>, std::__ndk1::allocator<int> >::~unordered_set()
PUBLIC 6710 0 geode::stl::unordered_map<int, GameObject*, geode::stl::hash<int>, geode::stl::equal_to<int>, std::__ndk1::allocator<std::__ndk1::pair<int const, GameObject*> > >::~unordered_map()
PUBLIC 6788 0 geode::stl::unordered_map<int, GJPointDouble, geode::stl::hash<int>, geode::stl::equal_to<int>, std::__ndk1::allocator<std::__ndk1::pair<int const, GJPointDouble> > >::~unordered_map()
PUBLIC 6800 0 GameObject::~GameObject()
PUBLIC 6848 0 gd::map<int, bool>::erase(geode::stl::_rb_tree_node<std::__ndk1::pair<int, bool> >*)
PUBLIC 6894 0 std::__ndk1::shared_ptr<tulip::hook::CallingConvention>::~shared_ptr[abi:ne180000]()
PUBLIC 68e4 0 tulip::hook::HandlerMetadata::~HandlerMetadata()
PUBLIC 6948 0 geode::Mod::getSettingValue<bool>(std::__ndk1::basic_string_view<char, std::__ndk1::char_traits<char> >) const
PUBLIC 6a78 0 geode::modifier::FieldIntermediate<hook13<(anonymous namespace)::hook13Parent>, PlayerObject>::operator->()
PUBLIC 70b4 0 hook13<(anonymous namespace)::hook13Parent>::flipSprites(bool)
PUBLIC 7134 0 geode::cast::traverseTypeinfoFor(void*, geode::cast::ClassTypeinfoType const*, char const*)
PUBLIC 722c 0 geode::modifier::FieldIntermediate<hook13<(anonymous namespace)::hook13Parent>, PlayerObject>::fieldDestructor(void*)
PUBLIC 7230 0 std::__ndk1::vector<void*, std::__ndk1::allocator<void*> >::__throw_length_error[abi:ne180000]() const
PUBLIC 7244 0 std::__ndk1::vector<std::__ndk1::function<void (void*)>, std::__ndk1::allocator<std::__ndk1::function<void (void*)> > >::__throw_length_error[abi:ne180000]() const
PUBLIC 7258 0 std::__ndk1::vector<void*, std::__ndk1::allocator<void*> >::__throw_out_of_range[abi:ne180000]() const
PUBLIC 7264 0 std::__ndk1::__throw_out_of_range[abi:ne180000](char const*)
PUBLIC 72ac 0 std::out_of_range::out_of_range[abi:ne180000](char const*)
PUBLIC 72e4 0 std::__ndk1::vector<std::__ndk1::function<void (void*)>, std::__ndk1::allocator<std::__ndk1::function<void (void*)> > >::__throw_out_of_range[abi:ne180000]() const
PUBLIC 72f0 0 std::__ndk1::__function::__base<void (void*)>::~__base()
PUBLIC 72f4 0 std::__ndk1::__function::__func<void (*)(void*), std::__ndk1::allocator<void (*)(void*)>, void (void*)>::~__func()
PUBLIC 72f8 0 std::__ndk1::__function::__func<void (*)(void*), std::__ndk1::allocator<void (*)(void*)>, void (void*)>::__clone() const
PUBLIC 7330 0 std::__ndk1::__function::__func<void (*)(void*), std::__ndk1::allocator<void (*)(void*)>, void (void*)>::__clone(std::__ndk1::__function::__base<void (void*)>*) const
PUBLIC 7348 0 std::__ndk1::__function::__func<void (*)(void*), std::__ndk1::allocator<void (*)(void*)>, void (void*)>::destroy()
PUBLIC 734c 0 std::__ndk1::__function::__func<void (*)(void*), std::__ndk1::allocator<void (*)(void*)>, void (void*)>::destroy_deallocate()
PUBLIC 7350 0 std::__ndk1::__function::__func<void (*)(void*), std::__ndk1::allocator<void (*)(void*)>, void (void*)>::operator()(void*&&)
PUBLIC 7360 0 std::__ndk1::__function::__func<void (*)(void*), std::__ndk1::allocator<void (*)(void*)>, void (void*)>::target(std::type_info const&) const
PUBLIC 737c 0 std::__ndk1::__function::__func<void (*)(void*), std::__ndk1::allocator<void (*)(void*)>, void (void*)>::target_type() const
PUBLIC 7388 0 std::__ndk1::__tree<std::__ndk1::__value_type<std::__ndk1::basic_string<char, std::__ndk1::char_traits<char>, std::__ndk1::allocator<char> >, std::__ndk1::shared_ptr<geode::Hook> >, std::__ndk1::__map_value_compare<std::__ndk1::basic_string<char, std::__ndk1::char_traits<char>, std::__ndk1::allocator<char> >, std::__ndk1::__value_type<std::__ndk1::basic_string<char, std::__ndk1::char_traits<char>, std::__ndk1::allocator<char> >, std::__ndk1::shared_ptr<geode::Hook> >, std::__ndk1::less<std::__ndk1::basic_string<char, std::__ndk1::char_traits<char>, std::__ndk1::allocator<char> > >, true>, std::__ndk1::allocator<std::__ndk1::__value_type<std::__ndk1::basic_string<char, std::__ndk1::char_traits<char>, std::__ndk1::allocator<char> >, std::__ndk1::shared_ptr<geode::Hook> > > >::__emplace_unique_key_args<std::__ndk1::basic_string<char, std::__ndk1::char_traits<char>, std::__ndk1::allocator<char> >, std::__ndk1::piecewise_construct_t const&, std::__ndk1::tuple<std::__ndk1::basic_string<char, std::__ndk1::char_traits<char>, std::__ndk1::allocator<char> >&&>, std::__ndk1::tuple<> >(std::__ndk1::basic_string<char, std::__ndk1::char_traits<char>, std::__ndk1::allocator<char> > const&, std::__ndk1::piecewise_construct_t const&, std::__ndk1::tuple<std::__ndk1::basic_string<char, std::__ndk1::char_traits<char>, std::__ndk1::allocator<char> >&&>, std::__ndk1::tuple<>)
PUBLIC m 769c 0 geodeImplicitEntry
PUBLIC 76e0 0 <.plt ELF section in rgc_exists.swingcopter_flip.android64.so>
STACK CFI INIT 3b80 10 .cfa: sp 0 +
STACK CFI INIT 3b90 8 .cfa: sp 0 +
STACK CFI INIT 3b98 8 .cfa: sp 0 +
STACK CFI INIT 3ba0 14 .cfa: sp 0 +
STACK CFI INIT 3bb4 1c .cfa: sp 0 +
STACK CFI INIT 3bd0 10 .cfa: sp 0 +
STACK CFI INIT 3be0 30 .cfa: sp 0 +
STACK CFI INIT 3c10 98 .cfa: sp 0 +
STACK CFI INIT 3ca8 59c .cfa: sp 0 +
STACK CFI INIT 4244 8c .cfa: sp 0 +
STACK CFI INIT 42d0 30 .cfa: sp 0 +
STACK CFI INIT 4ea0 18 .cfa: sp 0 +
STACK CFI INIT 5518 50 .cfa: sp 0 +
STACK CFI 551c .cfa: sp 32 +
STACK CFI 5524 .cfa: x29 32 + x19: .cfa -16 + ^ .ra: .cfa -24 + ^ x29: .cfa -32 + ^
STACK CFI 553c .cfa: sp 32 +
STACK CFI 5544 .cfa: sp 0 +
STACK CFI 5548 .cfa: x29 32 +
STACK CFI 555c .cfa: sp 32 +
STACK CFI 5564 .cfa: sp 0 +
STACK CFI INIT 55dc 7c .cfa: sp 0 +
STACK CFI 55e0 .cfa: sp 48 +
STACK CFI 55ec .cfa: x29 48 + x19: .cfa -8 + ^ x20: .cfa -16 + ^ x21: .cfa -32 + ^ .ra: .cfa -40 + ^ x29: .cfa -48 + ^
STACK CFI 5638 .cfa: sp 48 +
STACK CFI 5644 .cfa: sp 0 +
STACK CFI 5648 .cfa: sp 48 +
STACK CFI 5654 .cfa: sp 0 +
STACK CFI INIT 5658 4 .cfa: sp 0 +
STACK CFI INIT 565c 10 .cfa: sp 0 +
STACK CFI 5660 .cfa: sp 16 +
STACK CFI 5664 .cfa: x29 16 + .ra: .cfa -8 + ^ x29: .cfa -16 + ^
STACK CFI INIT 5d68 34 .cfa: sp 0 +
STACK CFI 5d6c .cfa: sp 16 +
STACK CFI 5d70 .cfa: x29 16 + .ra: .cfa -8 + ^ x29: .cfa -16 + ^
STACK CFI INIT 5d9c 80 .cfa: sp 0 +
STACK CFI 5da0 .cfa: sp 48 +
STACK CFI 5dac .cfa: x29 48 + x19: .cfa -8 + ^ x20: .cfa -16 + ^ x21: .cfa -32 + ^ .ra: .cfa -40 + ^ x29: .cfa -48 + ^
STACK CFI 5e0c .cfa: sp 48 +
STACK CFI 5e18 .cfa: sp 0 +
STACK CFI INIT 5e1c 24 .cfa: sp 0 +
STACK CFI 5e20 .cfa: sp 32 +
STACK CFI 5e28 .cfa: x29 32 + x19: .cfa -16 + ^ .ra: .cfa -24 + ^ x29: .cfa -32 + ^
STACK CFI 5e34 .cfa: sp 32 +
STACK CFI 5e3c .cfa: sp 0 +
STACK CFI INIT 5e40 14 .cfa: sp 0 +
STACK CFI 5e44 .cfa: sp 16 +
STACK CFI 5e48 .cfa: x29 16 + .ra: .cfa -8 + ^ x29: .cfa -16 + ^
STACK CFI INIT 5ea4 30 .cfa: sp 0 +
STACK CFI 5ea8 .cfa: sp 32 +
STACK CFI 5eb0 .cfa: x29 32 + x19: .cfa -16 + ^ .ra: .cfa -24 + ^ x29: .cfa -32 + ^
STACK CFI 5ec8 .cfa: sp 32 +
STACK CFI 5ed0 .cfa: sp 0 +
STACK CFI INIT 5ed4 34 .cfa: sp 0 +
STACK CFI 5ed8 .cfa: sp 32 +
STACK CFI 5ee0 .cfa: x29 32 + x19: .cfa -16 + ^ .ra: .cfa -24 + ^ x29: .cfa -32 + ^
STACK CFI INIT 5f08 7c .cfa: sp 0 +
STACK CFI 5f0c .cfa: sp 48 +
STACK CFI 5f18 .cfa: x29 48 + x19: .cfa -8 + ^ x20: .cfa -16 + ^ x21: .cfa -24 + ^ x22: .cfa -32 + ^ .ra: .cfa -40 + ^ x29: .cfa -48 + ^
STACK CFI 5f30 .cfa: sp 48 +
STACK CFI 5f3c .cfa: sp 0 +
STACK CFI 5f40 .cfa: x29 48 +
STACK CFI 5f70 .cfa: sp 48 +
STACK CFI 5f7c .cfa: sp 0 +
STACK CFI 5f80 .cfa: x29 48 +
STACK CFI INIT 5f84 68 .cfa: sp 0 +
STACK CFI 5f88 .cfa: sp 32 +
STACK CFI 5f90 .cfa: x29 32 + x19: .cfa -8 + ^ x20: .cfa -16 + ^ .ra: .cfa -24 + ^ x29: .cfa -32 + ^
STACK CFI 5fa8 .cfa: sp 32 +
STACK CFI 5fb0 .cfa: sp 0 +
STACK CFI 5fb4 .cfa: x29 32 +
STACK CFI 5fe0 .cfa: sp 32 +
STACK CFI 5fe8 .cfa: sp 0 +
STACK CFI INIT 5fec 14 .cfa: sp 0 +
STACK CFI 5ff0 .cfa: sp 16 +
STACK CFI 5ff4 .cfa: x29 16 + .ra: .cfa -8 + ^ x29: .cfa -16 + ^
STACK CFI INIT 6000 4 .cfa: sp 0 +
STACK CFI INIT 6004 14 .cfa: sp 0 +
STACK CFI INIT 6018 84 .cfa: sp 0 +
STACK CFI 6020 .cfa: sp 32 +
STACK CFI 6028 .cfa: x29 32 + x19: .cfa -8 + ^ x20: .cfa -16 + ^ .ra: .cfa -24 + ^ x29: .cfa -32 + ^
STACK CFI 6068 .cfa: sp 32 +
STACK CFI 6070 .cfa: sp 0 +
STACK CFI 6078 .cfa: x29 32 +
STACK CFI INIT 609c 1c4 .cfa: sp 0 +
STACK CFI 60a0 .cfa: sp 64 +
STACK CFI 60b0 .cfa: x29 48 + x19: .cfa -8 + ^ x20: .cfa -16 + ^ x21: .cfa -24 + ^ x22: .cfa -32 + ^ .ra: .cfa -40 + ^ x29: .cfa -48 + ^ v8: .cfa -64 + ^
STACK CFI 621c .cfa: sp 64 +
STACK CFI 622c .cfa: sp 0 +
STACK CFI 6230 .cfa: x29 48 +
STACK CFI 624c .cfa: sp 64 +
STACK CFI 625c .cfa: sp 0 +
STACK CFI INIT 6260 b0 .cfa: sp 0 +
STACK CFI 6264 .cfa: sp 64 +
STACK CFI 6274 .cfa: x29 48 + x19: .cfa -8 + ^ x20: .cfa -16 + ^ x21: .cfa -24 + ^ x22: .cfa -32 + ^ .ra: .cfa -40 + ^ x29: .cfa -48 + ^ v8: .cfa -64 + ^
STACK CFI 62fc .cfa: sp 64 +
STACK CFI 630c .cfa: sp 0 +
STACK CFI INIT 6698 78 .cfa: sp 0 +
STACK CFI 669c .cfa: sp 48 +
STACK CFI 66a8 .cfa: x29 48 + x19: .cfa -8 + ^ x20: .cfa -16 + ^ x21: .cfa -32 + ^ .ra: .cfa -40 + ^ x29: .cfa -48 + ^
STACK CFI 66f0 .cfa: sp 48 +
STACK CFI 66fc .cfa: sp 0 +
STACK CFI 6700 .cfa: sp 48 +
STACK CFI 670c .cfa: sp 0 +
STACK CFI INIT 6710 78 .cfa: sp 0 +
STACK CFI 6714 .cfa: sp 48 +
STACK CFI 6720 .cfa: x29 48 + x19: .cfa -8 + ^ x20: .cfa -16 + ^ x21: .cfa -32 + ^ .ra: .cfa -40 + ^ x29: .cfa -48 + ^
STACK CFI 6768 .cfa: sp 48 +
STACK CFI 6774 .cfa: sp 0 +
STACK CFI 6778 .cfa: sp 48 +
STACK CFI 6784 .cfa: sp 0 +
STACK CFI INIT 6788 78 .cfa: sp 0 +
STACK CFI 678c .cfa: sp 48 +
STACK CFI 6798 .cfa: x29 48 + x19: .cfa -8 + ^ x20: .cfa -16 + ^ x21: .cfa -32 + ^ .ra: .cfa -40 + ^ x29: .cfa -48 + ^
STACK CFI 67e0 .cfa: sp 48 +
STACK CFI 67ec .cfa: sp 0 +
STACK CFI 67f0 .cfa: sp 48 +
STACK CFI 67fc .cfa: sp 0 +
STACK CFI INIT 6800 48 .cfa: sp 0 +
STACK CFI 6804 .cfa: sp 32 +
STACK CFI 680c .cfa: x29 32 + x19: .cfa -16 + ^ .ra: .cfa -24 + ^ x29: .cfa -32 + ^
STACK CFI 683c .cfa: sp 32 +
STACK CFI 6844 .cfa: sp 0 +
STACK CFI INIT 6848 4c .cfa: sp 0 +
STACK CFI 6850 .cfa: sp 32 +
STACK CFI 6858 .cfa: x29 32 + x19: .cfa -16 + ^ .ra: .cfa -24 + ^ x29: .cfa -32 + ^
STACK CFI 6888 .cfa: sp 32 +
STACK CFI 6890 .cfa: sp 0 +
STACK CFI INIT 6894 50 .cfa: sp 0 +
STACK CFI 6898 .cfa: sp 32 +
STACK CFI 68a0 .cfa: x29 32 + x19: .cfa -16 + ^ .ra: .cfa -24 + ^ x29: .cfa -32 + ^
STACK CFI 68b8 .cfa: sp 32 +
STACK CFI 68c0 .cfa: sp 0 +
STACK CFI 68c4 .cfa: x29 32 +
STACK CFI 68d8 .cfa: sp 32 +
STACK CFI 68e0 .cfa: sp 0 +
STACK CFI INIT 68e4 64 .cfa: sp 0 +
STACK CFI 68e8 .cfa: sp 32 +
STACK CFI 68f0 .cfa: x29 32 + x19: .cfa -16 + ^ .ra: .cfa -24 + ^ x29: .cfa -32 + ^
STACK CFI 691c .cfa: sp 32 +
STACK CFI 6924 .cfa: sp 0 +
STACK CFI 6928 .cfa: x29 32 +
STACK CFI 693c .cfa: sp 32 +
STACK CFI 6944 .cfa: sp 0 +
STACK CFI INIT 6948 130 .cfa: sp 0 +
STACK CFI 694c .cfa: sp 80 +
STACK CFI 695c .cfa: x29 48 + x19: .cfa -8 + ^ x20: .cfa -16 + ^ x21: .cfa -24 + ^ x22: .cfa -32 + ^ .ra: .cfa -40 + ^ x29: .cfa -48 + ^
STACK CFI 6a60 .cfa: sp 80 +
STACK CFI 6a70 .cfa: sp 0 +
STACK CFI 6a74 .cfa: x29 48 +
STACK CFI INIT 70b4 80 .cfa: sp 0 +
STACK CFI 70b8 .cfa: sp 32 +
STACK CFI 70c0 .cfa: x29 32 + x19: .cfa -8 + ^ x20: .cfa -16 + ^ .ra: .cfa -24 + ^ x29: .cfa -32 + ^
STACK CFI 711c .cfa: sp 32 +
STACK CFI 7124 .cfa: sp 0 +
STACK CFI 7128 .cfa: sp 32 +
STACK CFI 7130 .cfa: sp 0 +
STACK CFI INIT 7134 f8 .cfa: sp 0 +
STACK CFI 7138 .cfa: sp 64 +
STACK CFI 7148 .cfa: x29 64 + x19: .cfa -8 + ^ x20: .cfa -16 + ^ x21: .cfa -24 + ^ x22: .cfa -32 + ^ x23: .cfa -48 + ^ .ra: .cfa -56 + ^ x29: .cfa -64 + ^
STACK CFI 71a4 .cfa: sp 64 +
STACK CFI 71b4 .cfa: sp 0 +
STACK CFI 71b8 .cfa: x29 64 +
STACK CFI 71d4 .cfa: sp 64 +
STACK CFI 71e4 .cfa: sp 0 +
STACK CFI 71e8 .cfa: x29 64 +
STACK CFI 7218 .cfa: sp 64 +
STACK CFI 7228 .cfa: sp 0 +
STACK CFI INIT 722c 4 .cfa: sp 0 +
STACK CFI INIT 7230 14 .cfa: sp 0 +
STACK CFI 7234 .cfa: sp 16 +
STACK CFI 7238 .cfa: x29 16 + .ra: .cfa -8 + ^ x29: .cfa -16 + ^
STACK CFI INIT 7244 14 .cfa: sp 0 +
STACK CFI 7248 .cfa: sp 16 +
STACK CFI 724c .cfa: x29 16 + .ra: .cfa -8 + ^ x29: .cfa -16 + ^
STACK CFI INIT 7258 c .cfa: sp 0 +
STACK CFI 725c .cfa: sp 16 +
STACK CFI 7260 .cfa: x29 16 + .ra: .cfa -8 + ^ x29: .cfa -16 + ^
STACK CFI INIT 72ac 38 .cfa: sp 0 +
STACK CFI 72b0 .cfa: sp 32 +
STACK CFI 72b8 .cfa: x29 32 + x19: .cfa -16 + ^ .ra: .cfa -24 + ^ x29: .cfa -32 + ^
STACK CFI 72d8 .cfa: sp 32 +
STACK CFI 72e0 .cfa: sp 0 +
STACK CFI INIT 72e4 c .cfa: sp 0 +
STACK CFI 72e8 .cfa: sp 16 +
STACK CFI 72ec .cfa: x29 16 + .ra: .cfa -8 + ^ x29: .cfa -16 + ^
STACK CFI INIT 72f0 4 .cfa: sp 0 +
STACK CFI INIT 72f4 4 .cfa: sp 0 +
STACK CFI INIT 72f8 38 .cfa: sp 0 +
STACK CFI 72fc .cfa: sp 32 +
STACK CFI 7304 .cfa: x29 32 + x19: .cfa -16 + ^ .ra: .cfa -24 + ^ x29: .cfa -32 + ^
STACK CFI 7324 .cfa: sp 32 +
STACK CFI 732c .cfa: sp 0 +
STACK CFI INIT 7330 18 .cfa: sp 0 +
STACK CFI INIT 7348 4 .cfa: sp 0 +
STACK CFI INIT 734c 4 .cfa: sp 0 +
STACK CFI INIT 7350 10 .cfa: sp 0 +
STACK CFI INIT 7360 1c .cfa: sp 0 +
STACK CFI INIT 737c c .cfa: sp 0 +
STACK CFI INIT 7388 314 .cfa: sp 0 +
STACK CFI 738c .cfa: sp 96 +
STACK CFI 73a4 .cfa: x29 96 + x19: .cfa -8 + ^ x20: .cfa -16 + ^ x21: .cfa -24 + ^ x22: .cfa -32 + ^ x23: .cfa -40 + ^ x24: .cfa -48 + ^ x25: .cfa -56 + ^ x26: .cfa -64 + ^ x27: .cfa -80 + ^ .ra: .cfa -88 + ^ x29: .cfa -96 + ^
STACK CFI 7660 .cfa: sp 96 +
STACK CFI 7678 .cfa: sp 0 +
STACK CFI 767c .cfa: x29 96 +
STACK CFI INIT 769c 3c .cfa: sp 0 +
STACK CFI 76a0 .cfa: sp 32 +
STACK CFI 76a8 .cfa: x29 32 + x19: .cfa -16 + ^ .ra: .cfa -24 + ^ x29: .cfa -32 + ^
STACK CFI 76b4 .cfa: sp 32 +
STACK CFI 76bc .cfa: sp 0 +
STACK CFI 76c0 .cfa: x29 32 +
STACK CFI 76cc .cfa: sp 32 +
STACK CFI 76d4 .cfa: sp 0 +
STACK CFI INIT 4300 ba0 .cfa: sp 0 +
STACK CFI 4304 .cfa: sp 240 +
STACK CFI 4320 .cfa: x29 96 + x19: .cfa -8 + ^ x20: .cfa -16 + ^ x21: .cfa -24 + ^ x22: .cfa -32 + ^ x23: .cfa -40 + ^ x24: .cfa -48 + ^ x25: .cfa -56 + ^ x26: .cfa -64 + ^ x27: .cfa -72 + ^ x28: .cfa -80 + ^ .ra: .cfa -88 + ^ x29: .cfa -96 + ^
STACK CFI 4d48 .cfa: sp 240 +
STACK CFI 4d64 .cfa: sp 0 +
STACK CFI 4d68 .cfa: x29 96 +
STACK CFI INIT 4eb8 660 .cfa: sp 0 +
STACK CFI 4ebc .cfa: sp 288 +
STACK CFI 4ed8 .cfa: x29 96 + x19: .cfa -8 + ^ x20: .cfa -16 + ^ x21: .cfa -24 + ^ x22: .cfa -32 + ^ x23: .cfa -40 + ^ x24: .cfa -48 + ^ x25: .cfa -56 + ^ x26: .cfa -64 + ^ x28: .cfa -80 + ^ .ra: .cfa -88 + ^ x29: .cfa -96 + ^
STACK CFI 5330 .cfa: sp 288 +
STACK CFI 534c .cfa: sp 0 +
STACK CFI 5350 .cfa: x29 96 +
STACK CFI INIT 5568 74 .cfa: sp 0 +
STACK CFI 556c .cfa: sp 48 +
STACK CFI 5578 .cfa: x29 32 + x19: .cfa -8 + ^ x20: .cfa -16 + ^ .ra: .cfa -24 + ^ x29: .cfa -32 + ^
STACK CFI 55c4 .cfa: sp 48 +
STACK CFI 55d0 .cfa: sp 0 +
STACK CFI 55d4 .cfa: x29 32 +
STACK CFI INIT 566c 6fc .cfa: sp 0 +
STACK CFI 5670 .cfa: sp 496 +
STACK CFI 568c .cfa: x29 96 + x19: .cfa -8 + ^ x20: .cfa -16 + ^ x21: .cfa -24 + ^ x22: .cfa -32 + ^ x23: .cfa -40 + ^ x24: .cfa -48 + ^ x25: .cfa -56 + ^ x26: .cfa -64 + ^ x27: .cfa -72 + ^ x28: .cfa -80 + ^ .ra: .cfa -88 + ^ x29: .cfa -96 + ^
STACK CFI 5c3c .cfa: sp 496 +
STACK CFI 5c58 .cfa: sp 0 +
STACK CFI 5c5c .cfa: x29 96 +
STACK CFI INIT 5e54 50 .cfa: sp 0 +
STACK CFI 5e58 .cfa: sp 32 +
STACK CFI 5e60 .cfa: x29 32 + x19: .cfa -8 + ^ x20: .cfa -16 + ^ .ra: .cfa -24 + ^ x29: .cfa -32 + ^
STACK CFI INIT 6310 c8 .cfa: sp 0 +
STACK CFI 6314 .cfa: sp 32 +
STACK CFI 631c .cfa: x29 32 + x19: .cfa -8 + ^ x20: .cfa -16 + ^ .ra: .cfa -24 + ^ x29: .cfa -32 + ^
STACK CFI 6350 .cfa: sp 32 +
STACK CFI 6358 .cfa: sp 0 +
STACK CFI 635c .cfa: x29 32 +
STACK CFI 6360 .cfa: sp 32 +
STACK CFI 6368 .cfa: sp 0 +
STACK CFI 636c .cfa: x29 32 +
STACK CFI INIT 63d8 2c0 .cfa: sp 0 +
STACK CFI 63dc .cfa: sp 48 +
STACK CFI 63e8 .cfa: x29 32 + x19: .cfa -8 + ^ x20: .cfa -16 + ^ .ra: .cfa -24 + ^ x29: .cfa -32 + ^ v8: .cfa -48 + ^
STACK CFI 65f4 .cfa: sp 48 +
STACK CFI 6600 .cfa: sp 0 +
STACK CFI 6604 .cfa: x29 32 +
STACK CFI INIT 6a78 63c .cfa: sp 0 +
STACK CFI 6a7c .cfa: sp 176 +
STACK CFI 6a98 .cfa: x29 96 + x19: .cfa -8 + ^ x20: .cfa -16 + ^ x21: .cfa -24 + ^ x22: .cfa -32 + ^ x23: .cfa -40 + ^ x24: .cfa -48 + ^ x25: .cfa -56 + ^ x26: .cfa -64 + ^ x27: .cfa -72 + ^ x28: .cfa -80 + ^ .ra: .cfa -88 + ^ x29: .cfa -96 + ^
STACK CFI 6f50 .cfa: sp 176 +
STACK CFI 6f6c .cfa: sp 0 +
STACK CFI 6f70 .cfa: x29 96 +
STACK CFI INIT 7264 48 .cfa: sp 0 +
STACK CFI 7268 .cfa: sp 32 +
STACK CFI 7270 .cfa: x29 32 + x19: .cfa -8 + ^ x20: .cfa -16 + ^ .ra: .cfa -24 + ^ x29: .cfa -32 + ^
