MODULE Linux arm64 86FD170B410F20FDD37F79615B605A9B0 bitz.customprofiles.android64.so
INFO CODE_ID 0B17FD860F41FD20D37F79615B605A9B90159846
INFO GENERATOR mozilla/dump_syms 2.3.4
PUBLIC 185a0 0 __on_dlclose
PUBLIC 185b0 0 __emutls_unregister_key
PUBLIC 185b8 0 __on_dlclose_late
PUBLIC 185c0 0 __atexit_handler_wrapper
PUBLIC 185d4 0 atexit
PUBLIC 185f0 0 pthread_atfork
PUBLIC 18600 0 unwind_phase2
PUBLIC 18734 0 _Unwind_Resume
PUBLIC 187b8 0 unwind_phase2_forced
PUBLIC m 188ac 0 __unw_init_local
PUBLIC m 18954 0 __unw_get_reg
PUBLIC 189d0 0 __unw_step_stage2
PUBLIC m 189e4 0 __unw_get_proc_info
PUBLIC m 18a24 0 __unw_resume
PUBLIC 18a4c 0 libunwind::CFI_Parser<libunwind::LocalAddressSpace>::decodeFDE(libunwind::LocalAddressSpace&, unsigned long, libunwind::CFI_Parser<libunwind::LocalAddressSpace>::FDE_Info*, libunwind::CFI_Parser<libunwind::LocalAddressSpace>::CIE_Info*, bool)
PUBLIC 18bdc 0 libunwind::CFI_Parser<libunwind::LocalAddressSpace>::parseCIE(libunwind::LocalAddressSpace&, unsigned long, libunwind::CFI_Parser<libunwind::LocalAddressSpace>::CIE_Info*)
PUBLIC 18ea4 0 libunwind::AbstractUnwindCursor::~AbstractUnwindCursor()
PUBLIC 18eac 0 libunwind::UnwindCursor<libunwind::LocalAddressSpace, libunwind::Registers_arm64>::~UnwindCursor()
PUBLIC 18eb4 0 libunwind::UnwindCursor<libunwind::LocalAddressSpace, libunwind::Registers_arm64>::validReg(int)
PUBLIC 18ef8 0 libunwind::UnwindCursor<libunwind::LocalAddressSpace, libunwind::Registers_arm64>::getReg(int)
PUBLIC 18fe0 0 libunwind::UnwindCursor<libunwind::LocalAddressSpace, libunwind::Registers_arm64>::setReg(int, unsigned long)
PUBLIC 190c8 0 libunwind::UnwindCursor<libunwind::LocalAddressSpace, libunwind::Registers_arm64>::validFloatReg(int)
PUBLIC 190dc 0 libunwind::UnwindCursor<libunwind::LocalAddressSpace, libunwind::Registers_arm64>::getFloatReg(int)
PUBLIC 190ec 0 libunwind::UnwindCursor<libunwind::LocalAddressSpace, libunwind::Registers_arm64>::setFloatReg(int, double)
PUBLIC 190fc 0 libunwind::UnwindCursor<libunwind::LocalAddressSpace, libunwind::Registers_arm64>::step(bool)
PUBLIC 191ec 0 libunwind::UnwindCursor<libunwind::LocalAddressSpace, libunwind::Registers_arm64>::getInfo(unw_proc_info_t*)
PUBLIC 19230 0 libunwind::UnwindCursor<libunwind::LocalAddressSpace, libunwind::Registers_arm64>::jumpto()
PUBLIC 1923c 0 libunwind::UnwindCursor<libunwind::LocalAddressSpace, libunwind::Registers_arm64>::isSignalFrame()
PUBLIC 19248 0 libunwind::UnwindCursor<libunwind::LocalAddressSpace, libunwind::Registers_arm64>::getFunctionName(char*, unsigned long, unsigned long*)
PUBLIC 19274 0 libunwind::UnwindCursor<libunwind::LocalAddressSpace, libunwind::Registers_arm64>::setInfoBasedOnIPRegister(bool)
PUBLIC 194f4 0 libunwind::UnwindCursor<libunwind::LocalAddressSpace, libunwind::Registers_arm64>::getRegisterName(int)
PUBLIC 19500 0 libunwind::UnwindCursor<libunwind::LocalAddressSpace, libunwind::Registers_arm64>::stepThroughSigReturn(libunwind::Registers_arm64&)
PUBLIC 19620 0 libunwind::DwarfInstructions<libunwind::LocalAddressSpace, libunwind::Registers_arm64>::stepWithDwarf(libunwind::LocalAddressSpace&, unsigned long, unsigned long, libunwind::Registers_arm64&, bool&, bool)
PUBLIC 19aa8 0 libunwind::CFI_Parser<libunwind::LocalAddressSpace>::parseFDEInstructions(libunwind::LocalAddressSpace&, libunwind::CFI_Parser<libunwind::LocalAddressSpace>::FDE_Info const&, libunwind::CFI_Parser<libunwind::LocalAddressSpace>::CIE_Info const&, unsigned long, int, libunwind::CFI_Parser<libunwind::LocalAddressSpace>::PrologInfo*)
PUBLIC 1a6f0 0 libunwind::DwarfInstructions<libunwind::LocalAddressSpace, libunwind::Registers_arm64>::getCFA(libunwind::LocalAddressSpace&, libunwind::CFI_Parser<libunwind::LocalAddressSpace>::PrologInfo const&, libunwind::Registers_arm64 const&)
PUBLIC 1a824 0 libunwind::DwarfInstructions<libunwind::LocalAddressSpace, libunwind::Registers_arm64>::getSavedRegister(libunwind::LocalAddressSpace&, libunwind::Registers_arm64 const&, unsigned long, libunwind::CFI_Parser<libunwind::LocalAddressSpace>::RegisterLocation const&)
PUBLIC 1aa34 0 libunwind::LocalAddressSpace::getEncodedP(unsigned long&, unsigned long, unsigned char, unsigned long)
PUBLIC 1adc0 0 libunwind::LocalAddressSpace::getULEB128(unsigned long&, unsigned long)
PUBLIC 1af88 0 libunwind::DwarfInstructions<libunwind::LocalAddressSpace, libunwind::Registers_arm64>::evaluateExpression(unsigned long, libunwind::LocalAddressSpace&, libunwind::Registers_arm64 const&, unsigned long)
PUBLIC 1b944 0 libunwind::UnwindCursor<libunwind::LocalAddressSpace, libunwind::Registers_arm64>::getInfoFromDwarfSection(unsigned long, libunwind::UnwindInfoSections const&, unsigned int)
PUBLIC 1bc18 0 libunwind::findUnwindSectionsByPhdr(dl_phdr_info*, unsigned long, void*)
PUBLIC 1bd4c 0 libunwind::EHHeaderParser<libunwind::LocalAddressSpace>::decodeEHHdr(libunwind::LocalAddressSpace&, unsigned long, unsigned long, libunwind::EHHeaderParser<libunwind::LocalAddressSpace>::EHHeaderInfo&)
PUBLIC 1be6c 0 libunwind::CFI_Parser<libunwind::LocalAddressSpace>::findFDE(libunwind::LocalAddressSpace&, unsigned long, unsigned long, unsigned long, unsigned long, libunwind::CFI_Parser<libunwind::LocalAddressSpace>::FDE_Info*, libunwind::CFI_Parser<libunwind::LocalAddressSpace>::CIE_Info*)
PUBLIC 1c034 0 libunwind::EHHeaderParser<libunwind::LocalAddressSpace>::findFDE(libunwind::LocalAddressSpace&, unsigned long, unsigned long, unsigned int, libunwind::CFI_Parser<libunwind::LocalAddressSpace>::FDE_Info*, libunwind::CFI_Parser<libunwind::LocalAddressSpace>::CIE_Info*)
PUBLIC 1c19c 0 libunwind::EHHeaderParser<libunwind::LocalAddressSpace>::getTableEntrySize(unsigned char)
PUBLIC 1c298 0 libunwind::Registers_arm64::getRegisterName(int)
PUBLIC 1c2c8 0 __libunwind_Registers_arm64_jumpto
PUBLIC m 1c358 0 __unw_getcontext
PUBLIC 1c400 0 __aarch64_ldadd8_relax
PUBLIC 1c430 0 init_have_lse_atomics
PUBLIC 1c4c8 0 __init_cpu_features_constructor
PUBLIC 1ca64 0 __init_cpu_features
PUBLIC 1caf0 0 __aarch64_ldadd8_acq_rel
PUBLIC 1cb20 0 __cxx_global_var_init
PUBLIC 1cf5c 0 geode::modifier::ModifyBase<geode::modifier::ModifyDerive<hook10<(anonymous namespace)::hook10Parent>, CommentCell> >::~ModifyBase()
PUBLIC 1cf78 0 geode::modifier::ModifyDerive<hook10<(anonymous namespace)::hook10Parent>, CommentCell>::apply()
PUBLIC 1d57c 0 std::__ndk1::shared_ptr<geode::Hook>::~shared_ptr[abi:ne180000]()
PUBLIC 1d5cc 0 geode::impl::ResultData<geode::Hook*, std::__ndk1::basic_string<char, std::__ndk1::char_traits<char>, std::__ndk1::allocator<char> > >::~ResultData()
PUBLIC 1d640 0 std::__ndk1::vector<std::__ndk1::basic_string<char, std::__ndk1::char_traits<char>, std::__ndk1::allocator<char> >, std::__ndk1::allocator<std::__ndk1::basic_string<char, std::__ndk1::char_traits<char>, std::__ndk1::allocator<char> > > >::~vector[abi:ne180000]()
PUBLIC 1d6bc 0 geode::modifier::ModifyBase<geode::modifier::ModifyDerive<hook10<(anonymous namespace)::hook10Parent>, CommentCell> >::apply()
PUBLIC 1d6c0 0 __clang_call_terminate
PUBLIC 1d6d0 0 _ZN5geode15UnwrapExceptionC2IRPNS_4HookEQsr4implE18IsStringStreamableIT_EEENS_4impl5OkTagEOS5_
PUBLIC 1d824 0 std::__ndk1::__throw_bad_variant_access[abi:ne180000]()
PUBLIC 1d858 0 std::__ndk1::basic_stringstream<char, std::__ndk1::char_traits<char>, std::__ndk1::allocator<char> >::basic_stringstream[abi:ne180000]()
PUBLIC m 1d984 0 std::__ndk1::basic_stringstream<char, std::__ndk1::char_traits<char>, std::__ndk1::allocator<char> >::~basic_stringstream()
PUBLIC 1da04 0 geode::UnwrapException::~UnwrapException()
PUBLIC 1da28 0 std::__ndk1::__put_character_sequence[abi:ne180000]<char, std::__ndk1::char_traits<char> >(std::__ndk1::basic_ostream<char, std::__ndk1::char_traits<char> >, std::__ndk1::basic_ostream const*, unsigned long)
PUBLIC 1dbcc 0 std::__ndk1::__pad_and_output[abi:ne180000]<char, std::__ndk1::char_traits<char> >(std::__ndk1::char_traits<char>, std::__ndk1::ostreambuf_iterator const*, std::__ndk1::ostreambuf_iterator const, std::__ndk1::ostreambuf_iterator const, std::__ndk1::ios_base&, std::__ndk1::ostreambuf_iterator)
PUBLIC 1dda8 0 std::__ndk1::basic_string<char, std::__ndk1::char_traits<char>, std::__ndk1::allocator<char> >::__throw_length_error[abi:ne180000]() const
PUBLIC 1ddbc 0 std::__ndk1::__throw_length_error[abi:ne180000](char const*)
PUBLIC 1de0c 0 std::length_error::length_error[abi:ne180000](char const*)
PUBLIC 1de3c 0 std::__throw_bad_array_new_length([abi:ne180000], void)
PUBLIC 1de70 0 std::__ndk1::basic_stringbuf<char, std::__ndk1::char_traits<char>, std::__ndk1::allocator<char> >::str[abi:ne180000]() &&
PUBLIC 1dfe8 0 std::__ndk1::basic_stringbuf<char, std::__ndk1::char_traits<char>, std::__ndk1::allocator<char> >::__init_buf_ptrs[abi:ne180000]()
PUBLIC 1e130 0 std::__ndk1::vector<std::__ndk1::basic_string<char, std::__ndk1::char_traits<char>, std::__ndk1::allocator<char> >, std::__ndk1::allocator<std::__ndk1::basic_string<char, std::__ndk1::char_traits<char>, std::__ndk1::allocator<char> > > >::__push_back_slow_path<std::__ndk1::basic_string<char, std::__ndk1::char_traits<char>, std::__ndk1::allocator<char> > const&>(std::__ndk1::basic_string<char, std::__ndk1::char_traits<char>, std::__ndk1::allocator<char> > const&)
PUBLIC 1e358 0 std::__ndk1::basic_string<char, std::__ndk1::char_traits<char>, std::__ndk1::allocator<char> >::__init_copy_ctor_external(char const*, unsigned long)
PUBLIC 1e3d8 0 std::__ndk1::__split_buffer<std::__ndk1::basic_string<char, std::__ndk1::char_traits<char>, std::__ndk1::allocator<char> >, std::__ndk1::allocator<std::__ndk1::basic_string<char, std::__ndk1::char_traits<char>, std::__ndk1::allocator<char> > >&>::~__split_buffer()
PUBLIC 1e440 0 std::__ndk1::vector<std::__ndk1::basic_string<char, std::__ndk1::char_traits<char>, std::__ndk1::allocator<char> >, std::__ndk1::allocator<std::__ndk1::basic_string<char, std::__ndk1::char_traits<char>, std::__ndk1::allocator<char> > > >::__throw_length_error[abi:ne180000]() const
PUBLIC 1e454 0 std::__ndk1::__variant_detail::__visitation::__base::__dispatcher<(unsigned long)0>::__dispatch[abi:ne180000]<std::__ndk1::__variant_detail::__dtor<std::__ndk1::__variant_detail::__traits<geode::Hook*, std::__ndk1::basic_string<char, std::__ndk1::char_traits<char>, std::__ndk1::allocator<char> > >, (std::__ndk1::__variant_detail::_Trait)1>::__destroy[abi:ne180000]()::{lambda(auto:1&)#1}, std::__ndk1::__variant_detail::__base<(std::__ndk1::__variant_detail::__traits<geode::Hook*, std::__ndk1::basic_string<char, std::__ndk1::char_traits<char>, std::__ndk1::allocator<char> > >)1, geode::Hook, std::__ndk1::allocator<char> >&>(std::__ndk1::__variant_detail::__dtor<std::__ndk1::__variant_detail::__traits<geode::Hook*, std::__ndk1::basic_string<char, std::__ndk1::char_traits<char>, std::__ndk1::allocator<char> > >, (std::__ndk1::__variant_detail::_Trait)1>, std::__ndk1::__variant_detail::__base<(std::__ndk1::__variant_detail::__traits<geode::Hook*, std::__ndk1::basic_string<char, std::__ndk1::char_traits<char>, std::__ndk1::allocator<char> > >)1, geode::Hook, std::__ndk1::allocator<char> >&)
PUBLIC 1e458 0 std::__ndk1::__variant_detail::__visitation::__base::__dispatcher<(unsigned long)1>::__dispatch[abi:ne180000]<std::__ndk1::__variant_detail::__dtor<std::__ndk1::__variant_detail::__traits<geode::Hook*, std::__ndk1::basic_string<char, std::__ndk1::char_traits<char>, std::__ndk1::allocator<char> > >, (std::__ndk1::__variant_detail::_Trait)1>::__destroy[abi:ne180000]()::{lambda(auto:1&)#1}, std::__ndk1::__variant_detail::__base<(std::__ndk1::__variant_detail::__traits<geode::Hook*, std::__ndk1::basic_string<char, std::__ndk1::char_traits<char>, std::__ndk1::allocator<char> > >)1, geode::Hook, std::__ndk1::allocator<char> >&>(std::__ndk1::__variant_detail::__dtor<std::__ndk1::__variant_detail::__traits<geode::Hook*, std::__ndk1::basic_string<char, std::__ndk1::char_traits<char>, std::__ndk1::allocator<char> > >, (std::__ndk1::__variant_detail::_Trait)1>, std::__ndk1::__variant_detail::__base<(std::__ndk1::__variant_detail::__traits<geode::Hook*, std::__ndk1::basic_string<char, std::__ndk1::char_traits<char>, std::__ndk1::allocator<char> > >)1, geode::Hook, std::__ndk1::allocator<char> >&)
PUBLIC 1e46c 0 std::__ndk1::__tree<std::__ndk1::__value_type<std::__ndk1::basic_string<char, std::__ndk1::char_traits<char>, std::__ndk1::allocator<char> >, std::__ndk1::shared_ptr<geode::Hook> >, std::__ndk1::__map_value_compare<std::__ndk1::basic_string<char, std::__ndk1::char_traits<char>, std::__ndk1::allocator<char> >, std::__ndk1::__value_type<std::__ndk1::basic_string<char, std::__ndk1::char_traits<char>, std::__ndk1::allocator<char> >, std::__ndk1::shared_ptr<geode::Hook> >, std::__ndk1::less<std::__ndk1::basic_string<char, std::__ndk1::char_traits<char>, std::__ndk1::allocator<char> > >, true>, std::__ndk1::allocator<std::__ndk1::__value_type<std::__ndk1::basic_string<char, std::__ndk1::char_traits<char>, std::__ndk1::allocator<char> >, std::__ndk1::shared_ptr<geode::Hook> > > >::find<std::__ndk1::basic_string<char, std::__ndk1::char_traits<char>, std::__ndk1::allocator<char> > >(std::__ndk1::basic_string<char, std::__ndk1::char_traits<char>, std::__ndk1::allocator<char> > const&)
PUBLIC 1e58c 0 std::__ndk1::__tree<std::__ndk1::__value_type<std::__ndk1::basic_string<char, std::__ndk1::char_traits<char>, std::__ndk1::allocator<char> >, std::__ndk1::shared_ptr<geode::Hook> >, std::__ndk1::__map_value_compare<std::__ndk1::basic_string<char, std::__ndk1::char_traits<char>, std::__ndk1::allocator<char> >, std::__ndk1::__value_type<std::__ndk1::basic_string<char, std::__ndk1::char_traits<char>, std::__ndk1::allocator<char> >, std::__ndk1::shared_ptr<geode::Hook> >, std::__ndk1::less<std::__ndk1::basic_string<char, std::__ndk1::char_traits<char>, std::__ndk1::allocator<char> > >, true>, std::__ndk1::allocator<std::__ndk1::__value_type<std::__ndk1::basic_string<char, std::__ndk1::char_traits<char>, std::__ndk1::allocator<char> >, std::__ndk1::shared_ptr<geode::Hook> > > >::erase(std::__ndk1::__tree_const_iterator<std::__ndk1::__value_type<std::__ndk1::basic_string<char, std::__ndk1::char_traits<char>, std::__ndk1::allocator<char> >, std::__ndk1::shared_ptr<geode::Hook> >, std::__ndk1::__tree_node<std::__ndk1::__value_type<std::__ndk1::basic_string<char, std::__ndk1::char_traits<char>, std::__ndk1::allocator<char> >, std::__ndk1::shared_ptr<geode::Hook> >, void*>*, long>)
PUBLIC 1e660 0 std::__ndk1::__tree_remove[abi:ne180000]<std::__ndk1::__tree_node_base<void*>*>(std::__ndk1::__tree_node_base<void*>*, std::__ndk1::__tree_node_base<void*>*)
PUBLIC 1ea28 0 std::__ndk1::__tree<std::__ndk1::__value_type<std::__ndk1::basic_string<char, std::__ndk1::char_traits<char>, std::__ndk1::allocator<char> >, std::__ndk1::shared_ptr<geode::Hook> >, std::__ndk1::__map_value_compare<std::__ndk1::basic_string<char, std::__ndk1::char_traits<char>, std::__ndk1::allocator<char> >, std::__ndk1::__value_type<std::__ndk1::basic_string<char, std::__ndk1::char_traits<char>, std::__ndk1::allocator<char> >, std::__ndk1::shared_ptr<geode::Hook> >, std::__ndk1::less<std::__ndk1::basic_string<char, std::__ndk1::char_traits<char>, std::__ndk1::allocator<char> > >, true>, std::__ndk1::allocator<std::__ndk1::__value_type<std::__ndk1::basic_string<char, std::__ndk1::char_traits<char>, std::__ndk1::allocator<char> >, std::__ndk1::shared_ptr<geode::Hook> > > >::destroy(std::__ndk1::__tree_node<std::__ndk1::__value_type<std::__ndk1::basic_string<char, std::__ndk1::char_traits<char>, std::__ndk1::allocator<char> >, std::__ndk1::shared_ptr<geode::Hook> >, void*>*)
PUBLIC 1eab4 0 geode::modifier::AsStaticFunction_loadFromComment<hook10<(anonymous namespace)::hook10Parent>, void (hook10<(anonymous namespace)::hook10Parent>::*)(GJComment*)>::Impl<void (hook10<(anonymous namespace)::hook10Parent>::*)(GJComment*)>::function(hook10<(anonymous namespace)::hook10Parent>*, GJComment*)
PUBLIC 1edd0 0 geode::modifier::AsStaticFunction_draw<hook10<(anonymous namespace)::hook10Parent>, void (hook10<(anonymous namespace)::hook10Parent>::*)()>::Impl<void (hook10<(anonymous namespace)::hook10Parent>::*)()>::function(hook10<(anonymous namespace)::hook10Parent>*)
PUBLIC 1ee18 0 std::__ndk1::shared_ptr<tulip::hook::CallingConvention>::~shared_ptr[abi:ne180000]()
PUBLIC 1ee68 0 tulip::hook::HandlerMetadata::~HandlerMetadata()
PUBLIC 1eecc 0 std::__ndk1::__tree<std::__ndk1::__value_type<std::__ndk1::basic_string<char, std::__ndk1::char_traits<char>, std::__ndk1::allocator<char> >, std::__ndk1::shared_ptr<geode::Hook> >, std::__ndk1::__map_value_compare<std::__ndk1::basic_string<char, std::__ndk1::char_traits<char>, std::__ndk1::allocator<char> >, std::__ndk1::__value_type<std::__ndk1::basic_string<char, std::__ndk1::char_traits<char>, std::__ndk1::allocator<char> >, std::__ndk1::shared_ptr<geode::Hook> >, std::__ndk1::less<std::__ndk1::basic_string<char, std::__ndk1::char_traits<char>, std::__ndk1::allocator<char> > >, true>, std::__ndk1::allocator<std::__ndk1::__value_type<std::__ndk1::basic_string<char, std::__ndk1::char_traits<char>, std::__ndk1::allocator<char> >, std::__ndk1::shared_ptr<geode::Hook> > > >::__emplace_unique_key_args<std::__ndk1::basic_string<char, std::__ndk1::char_traits<char>, std::__ndk1::allocator<char> >, std::__ndk1::piecewise_construct_t const&, std::__ndk1::tuple<std::__ndk1::basic_string<char, std::__ndk1::char_traits<char>, std::__ndk1::allocator<char> >&&>, std::__ndk1::tuple<> >(std::__ndk1::basic_string<char, std::__ndk1::char_traits<char>, std::__ndk1::allocator<char> > const&, std::__ndk1::piecewise_construct_t const&, std::__ndk1::tuple<std::__ndk1::basic_string<char, std::__ndk1::char_traits<char>, std::__ndk1::allocator<char> >&&>, std::__ndk1::tuple<>)
PUBLIC 1f044 0 std::__ndk1::__tree_balance_after_insert[abi:ne180000]<std::__ndk1::__tree_node_base<void*>*>(std::__ndk1::__tree_node_base<void*>*, std::__ndk1::__tree_node_base<void*>*)
PUBLIC 1f1f4 0 geode::addresser::Addresser::addressOfVirtual<void, CommentCell, >(void (CommentCell::*)())
PUBLIC 1f2bc 0 CommentCell::CommentCell(geode::ZeroConstructorType)
PUBLIC 1f3b8 0 cocos2d::CCCopying::copyWithZone(cocos2d::CCZone*)
PUBLIC 1f3c0 0 TableViewCell::~TableViewCell()
PUBLIC 1f41c 0 TableViewCell::~TableViewCell()
PUBLIC 1f480 0 {virtual override thunk({offset(-320)}, TableViewCell::~TableViewCell())}
PUBLIC 1f4e0 0 {virtual override thunk({offset(-320)}, TableViewCell::~TableViewCell())}
PUBLIC 1f548 0 cocos2d::CCKeyboardDelegate::keyUp(cocos2d::enumKeyCodes)
PUBLIC 1f54c 0 cocos2d::CCMouseDelegate::rightKeyDown()
PUBLIC 1f550 0 cocos2d::CCMouseDelegate::rightKeyUp()
PUBLIC 1f554 0 cocos2d::CCMouseDelegate::scrollWheel(float, float)
PUBLIC 1f558 0 __cxx_global_var_init
PUBLIC 1f994 0 geode::modifier::ModifyBase<geode::modifier::ModifyDerive<hook9<(anonymous namespace)::hook9Parent>, InfoLayer> >::~ModifyBase()
PUBLIC 1f9b0 0 geode::modifier::ModifyDerive<hook9<(anonymous namespace)::hook9Parent>, InfoLayer>::apply()
PUBLIC 2003c 0 geode::modifier::ModifyBase<geode::modifier::ModifyDerive<hook9<(anonymous namespace)::hook9Parent>, InfoLayer> >::apply()
PUBLIC 20040 0 geode::modifier::AsStaticFunction_init<hook9<(anonymous namespace)::hook9Parent>, bool (hook9<(anonymous namespace)::hook9Parent>::*)(GJGameLevel*, GJUserScore*, GJLevelList*)>::Impl<bool (hook9<(anonymous namespace)::hook9Parent>::*)(GJGameLevel*, GJUserScore*, GJLevelList*)>::function(hook9<(anonymous namespace)::hook9Parent>*, GJGameLevel*, GJUserScore*, GJLevelList*)
PUBLIC 208c4 0 geode::modifier::AsStaticFunction_setupCommentsBrowser<hook9<(anonymous namespace)::hook9Parent>, void (hook9<(anonymous namespace)::hook9Parent>::*)(cocos2d::CCArray*)>::Impl<void (hook9<(anonymous namespace)::hook9Parent>::*)(cocos2d::CCArray*)>::function(hook9<(anonymous namespace)::hook9Parent>*, cocos2d::CCArray*)
PUBLIC 2090c 0 geode::Mod::getSettingValue<SettingPosEnumColor>(std::__ndk1::basic_string_view<char, std::__ndk1::char_traits<char> >) const
PUBLIC 20a20 0 cocos2d::CCSequence::create(cocos2d::CCFiniteTimeAction*, ...)
PUBLIC 20ab8 0 geode::Mod::getSettingValue<SettingPosEnum>(std::__ndk1::basic_string_view<char, std::__ndk1::char_traits<char> >) const
PUBLIC 20bcc 0 geode::cast::traverseTypeinfoFor(void*, geode::cast::ClassTypeinfoType const*, char const*)
PUBLIC 20cd0 0 __cxx_global_var_init
PUBLIC 2110c 0 geode::modifier::ModifyBase<geode::modifier::ModifyDerive<hook7<(anonymous namespace)::hook7Parent>, ProfilePage> >::~ModifyBase()
PUBLIC 21128 0 geode::modifier::ModifyDerive<hook7<(anonymous namespace)::hook7Parent>, ProfilePage>::apply()
PUBLIC 2177c 0 geode::modifier::ModifyBase<geode::modifier::ModifyDerive<hook7<(anonymous namespace)::hook7Parent>, ProfilePage> >::apply()
PUBLIC 21780 0 geode::modifier::AsStaticFunction_loadPageFromUserInfo<hook7<(anonymous namespace)::hook7Parent>, void (hook7<(anonymous namespace)::hook7Parent>::*)(GJUserScore*)>::Impl<void (hook7<(anonymous namespace)::hook7Parent>::*)(GJUserScore*)>::function(hook7<(anonymous namespace)::hook7Parent>*, GJUserScore*)
PUBLIC 22308 0 geode::modifier::AsStaticFunction_setupCommentsBrowser<hook7<(anonymous namespace)::hook7Parent>, void (hook7<(anonymous namespace)::hook7Parent>::*)(cocos2d::CCArray*)>::Impl<void (hook7<(anonymous namespace)::hook7Parent>::*)(cocos2d::CCArray*)>::function(hook7<(anonymous namespace)::hook7Parent>*, cocos2d::CCArray*)
PUBLIC 22334 0 hook7<(anonymous namespace)::hook7Parent>::ownSt::SettingsPop(cocos2d::CCObject*)
PUBLIC 22370 0 geode::Mod::getSettingValue<bool>(std::__ndk1::basic_string_view<char, std::__ndk1::char_traits<char> >) const
PUBLIC 224b0 0 geodeExecFunction7<(anonymous namespace)::ExecFuncUnique7>(geode::ModStateEvent*)
PUBLIC 22974 0 __cxx_global_var_init.1
PUBLIC 22db0 0 _GLOBAL__sub_I_main.cpp
PUBLIC 22edc 0 geode::modifier::ModifyBase<geode::modifier::ModifyDerive<hook33<(anonymous namespace)::hook33Parent>, StatsCell> >::~ModifyBase()
PUBLIC 22ef8 0 SettingPosValue::parse(std::__ndk1::basic_string<char, std::__ndk1::char_traits<char>, std::__ndk1::allocator<char> > const&, std::__ndk1::basic_string<char, std::__ndk1::char_traits<char>, std::__ndk1::allocator<char> > const&, matjson::Value const&)
PUBLIC 23298 0 SettingPosValueColor::parse(std::__ndk1::basic_string<char, std::__ndk1::char_traits<char>, std::__ndk1::allocator<char> > const&, std::__ndk1::basic_string<char, std::__ndk1::char_traits<char>, std::__ndk1::allocator<char> > const&, matjson::Value const&)
PUBLIC 23638 0 SettingTestValue::parse(std::__ndk1::basic_string<char, std::__ndk1::char_traits<char>, std::__ndk1::allocator<char> > const&, std::__ndk1::basic_string<char, std::__ndk1::char_traits<char>, std::__ndk1::allocator<char> > const&, matjson::Value const&)
PUBLIC 238b8 0 geode::impl::ResultData<void, std::__ndk1::basic_string<char, std::__ndk1::char_traits<char>, std::__ndk1::allocator<char> > >::~ResultData()
PUBLIC 2392c 0 geode::JsonExpectedValue::ok<std::__ndk1::shared_ptr<geode::SettingV3> >(std::__ndk1::shared_ptr<geode::SettingV3>)
PUBLIC 23aa4 0 std::__ndk1::shared_ptr<geode::SettingV3>::~shared_ptr[abi:ne180000]()
PUBLIC 23af4 0 std::__ndk1::shared_ptr<SettingPosValue>::~shared_ptr[abi:ne180000]()
PUBLIC 23b44 0 std::__ndk1::__shared_ptr_emplace<SettingPosValue, std::__ndk1::allocator<SettingPosValue> >::~__shared_ptr_emplace()
PUBLIC 23b54 0 std::__ndk1::__shared_ptr_emplace<SettingPosValue, std::__ndk1::allocator<SettingPosValue> >::~__shared_ptr_emplace()
PUBLIC 23b84 0 std::__ndk1::__shared_ptr_emplace<SettingPosValue, std::__ndk1::allocator<SettingPosValue> >::__on_zero_shared()
PUBLIC 23b90 0 std::__ndk1::__shared_ptr_emplace<SettingPosValue, std::__ndk1::allocator<SettingPosValue> >::__on_zero_shared_weak()
PUBLIC 23b94 0 geode::SettingBaseValueV3<SettingPosEnum, SettingPosEnum>::~SettingBaseValueV3()
PUBLIC 23c00 0 geode::SettingBaseValueV3<SettingPosEnum, SettingPosEnum>::~SettingBaseValueV3()
PUBLIC 23c04 0 geode::SettingBaseValueV3<SettingPosEnum, SettingPosEnum>::load(matjson::Value const&)
PUBLIC 23d40 0 geode::SettingBaseValueV3<SettingPosEnum, SettingPosEnum>::save(matjson::Value&) const
PUBLIC 23dfc 0 geode::SettingBaseValueV3<SettingPosEnum, SettingPosEnum>::isDefaultValue() const
PUBLIC 23e10 0 geode::SettingBaseValueV3<SettingPosEnum, SettingPosEnum>::reset()
PUBLIC 23ec0 0 geode::SettingBaseValueV3<SettingPosEnum, SettingPosEnum>::isValid(SettingPosEnum) const
PUBLIC 23ec8 0 std::__ndk1::__shared_ptr_emplace<geode::SettingBaseValueV3<SettingPosEnum, SettingPosEnum>::Impl, std::__ndk1::allocator<geode::SettingBaseValueV3<SettingPosEnum, SettingPosEnum>::Impl> >::~__shared_ptr_emplace()
PUBLIC 23ed8 0 std::__ndk1::__shared_ptr_emplace<geode::SettingBaseValueV3<SettingPosEnum, SettingPosEnum>::Impl, std::__ndk1::allocator<geode::SettingBaseValueV3<SettingPosEnum, SettingPosEnum>::Impl> >::~__shared_ptr_emplace()
PUBLIC 23f08 0 std::__ndk1::__shared_ptr_emplace<geode::SettingBaseValueV3<SettingPosEnum, SettingPosEnum>::Impl, std::__ndk1::allocator<geode::SettingBaseValueV3<SettingPosEnum, SettingPosEnum>::Impl> >::__on_zero_shared()
PUBLIC 23f0c 0 std::__ndk1::__shared_ptr_emplace<geode::SettingBaseValueV3<SettingPosEnum, SettingPosEnum>::Impl, std::__ndk1::allocator<geode::SettingBaseValueV3<SettingPosEnum, SettingPosEnum>::Impl> >::__on_zero_shared_weak()
PUBLIC 23f10 0 geode::impl::ResultData<SettingPosEnum, std::__ndk1::basic_string<char, std::__ndk1::char_traits<char>, std::__ndk1::allocator<char> > >::~ResultData()
PUBLIC 23f84 0 matjson::Serialize<SettingPosEnum>::fromJson(matjson::Value const&)
PUBLIC 241d0 0 geode::impl::ResultData<long, std::__ndk1::basic_string<char, std::__ndk1::char_traits<char>, std::__ndk1::allocator<char> > >::~ResultData()
PUBLIC 24244 0 std::__ndk1::__variant_detail::__visitation::__base::__dispatcher<(unsigned long)0>::__dispatch[abi:ne180000]<std::__ndk1::__variant_detail::__dtor<std::__ndk1::__variant_detail::__traits<long, std::__ndk1::basic_string<char, std::__ndk1::char_traits<char>, std::__ndk1::allocator<char> > >, (std::__ndk1::__variant_detail::_Trait)1>::__destroy[abi:ne180000]()::{lambda(auto:1&)#1}, std::__ndk1::__variant_detail::__base<(std::__ndk1::__variant_detail::__traits<long, std::__ndk1::basic_string<char, std::__ndk1::char_traits<char>, std::__ndk1::allocator<char> > >)1, long, std::__ndk1::allocator<char> >&>(std::__ndk1::__variant_detail::__dtor<std::__ndk1::__variant_detail::__traits<long, std::__ndk1::basic_string<char, std::__ndk1::char_traits<char>, std::__ndk1::allocator<char> > >, (std::__ndk1::__variant_detail::_Trait)1>, std::__ndk1::__variant_detail::__base<(std::__ndk1::__variant_detail::__traits<long, std::__ndk1::basic_string<char, std::__ndk1::char_traits<char>, std::__ndk1::allocator<char> > >)1, long, std::__ndk1::allocator<char> >&)
PUBLIC 24248 0 std::__ndk1::__variant_detail::__visitation::__base::__dispatcher<(unsigned long)1>::__dispatch[abi:ne180000]<std::__ndk1::__variant_detail::__dtor<std::__ndk1::__variant_detail::__traits<long, std::__ndk1::basic_string<char, std::__ndk1::char_traits<char>, std::__ndk1::allocator<char> > >, (std::__ndk1::__variant_detail::_Trait)1>::__destroy[abi:ne180000]()::{lambda(auto:1&)#1}, std::__ndk1::__variant_detail::__base<(std::__ndk1::__variant_detail::__traits<long, std::__ndk1::basic_string<char, std::__ndk1::char_traits<char>, std::__ndk1::allocator<char> > >)1, long, std::__ndk1::allocator<char> >&>(std::__ndk1::__variant_detail::__dtor<std::__ndk1::__variant_detail::__traits<long, std::__ndk1::basic_string<char, std::__ndk1::char_traits<char>, std::__ndk1::allocator<char> > >, (std::__ndk1::__variant_detail::_Trait)1>, std::__ndk1::__variant_detail::__base<(std::__ndk1::__variant_detail::__traits<long, std::__ndk1::basic_string<char, std::__ndk1::char_traits<char>, std::__ndk1::allocator<char> > >)1, long, std::__ndk1::allocator<char> >&)
PUBLIC 2425c 0 _ZN5geode15UnwrapExceptionC2IRNSt6__ndk112basic_stringIcNS2_11char_traitsIcEENS2_9allocatorIcEEEEQsr4implE18IsStringStreamableIT_EEENS_4impl6ErrTagEOSA_
PUBLIC 243c4 0 std::__ndk1::__variant_detail::__visitation::__base::__dispatcher<(unsigned long)0>::__dispatch[abi:ne180000]<std::__ndk1::__variant_detail::__dtor<std::__ndk1::__variant_detail::__traits<SettingPosEnum, std::__ndk1::basic_string<char, std::__ndk1::char_traits<char>, std::__ndk1::allocator<char> > >, (std::__ndk1::__variant_detail::_Trait)1>::__destroy[abi:ne180000]()::{lambda(auto:1&)#1}, std::__ndk1::__variant_detail::__base<(std::__ndk1::__variant_detail::__traits<SettingPosEnum, std::__ndk1::basic_string<char, std::__ndk1::char_traits<char>, std::__ndk1::allocator<char> > >)1, std::__ndk1::__variant_detail::__traits, std::__ndk1::allocator<char> >&>(std::__ndk1::__variant_detail::__dtor<std::__ndk1::__variant_detail::__traits<SettingPosEnum, std::__ndk1::basic_string<char, std::__ndk1::char_traits<char>, std::__ndk1::allocator<char> > >, (std::__ndk1::__variant_detail::_Trait)1>, std::__ndk1::__variant_detail::__base<(std::__ndk1::__variant_detail::__traits<SettingPosEnum, std::__ndk1::basic_string<char, std::__ndk1::char_traits<char>, std::__ndk1::allocator<char> > >)1, std::__ndk1::__variant_detail::__traits, std::__ndk1::allocator<char> >&)
PUBLIC 243c8 0 std::__ndk1::__variant_detail::__visitation::__base::__dispatcher<(unsigned long)1>::__dispatch[abi:ne180000]<std::__ndk1::__variant_detail::__dtor<std::__ndk1::__variant_detail::__traits<SettingPosEnum, std::__ndk1::basic_string<char, std::__ndk1::char_traits<char>, std::__ndk1::allocator<char> > >, (std::__ndk1::__variant_detail::_Trait)1>::__destroy[abi:ne180000]()::{lambda(auto:1&)#1}, std::__ndk1::__variant_detail::__base<(std::__ndk1::__variant_detail::__traits<SettingPosEnum, std::__ndk1::basic_string<char, std::__ndk1::char_traits<char>, std::__ndk1::allocator<char> > >)1, std::__ndk1::__variant_detail::__traits, std::__ndk1::allocator<char> >&>(std::__ndk1::__variant_detail::__dtor<std::__ndk1::__variant_detail::__traits<SettingPosEnum, std::__ndk1::basic_string<char, std::__ndk1::char_traits<char>, std::__ndk1::allocator<char> > >, (std::__ndk1::__variant_detail::_Trait)1>, std::__ndk1::__variant_detail::__base<(std::__ndk1::__variant_detail::__traits<SettingPosEnum, std::__ndk1::basic_string<char, std::__ndk1::char_traits<char>, std::__ndk1::allocator<char> > >)1, std::__ndk1::__variant_detail::__traits, std::__ndk1::allocator<char> >&)
PUBLIC 243dc 0 geode::JsonExpectedValue::tryGet<SettingPosEnum>()
PUBLIC 24624 0 std::__ndk1::__function::__base<geode::Result<std::__ndk1::shared_ptr<geode::SettingV3>, std::__ndk1::basic_string<char, std::__ndk1::char_traits<char>, std::__ndk1::allocator<char> > >(std::__ndk1::basic_string<char, std::__ndk1::char_traits<char>, std::__ndk1::allocator<char> > const&, std::__ndk1::basic_string<char, std::__ndk1::char_traits<char>, std::__ndk1::allocator<char> > const&, matjson::Value const&)>::~__base()
PUBLIC 24628 0 std::__ndk1::__function::__func<geode::Result<std::__ndk1::shared_ptr<geode::SettingV3>, std::__ndk1::basic_string<char, std::__ndk1::char_traits<char>, std::__ndk1::allocator<char> > > (*)(std::__ndk1::basic_string<char, std::__ndk1::char_traits<char>, std::__ndk1::allocator<char> > const&, std::__ndk1::basic_string<char, std::__ndk1::char_traits<char>, std::__ndk1::allocator<char> > const&, matjson::Value const&), std::__ndk1::allocator<geode::Result<std::__ndk1::shared_ptr<geode::SettingV3>, std::__ndk1::basic_string<char, std::__ndk1::char_traits<char>, std::__ndk1::allocator<char> > > (*)(std::__ndk1::basic_string<char, std::__ndk1::char_traits<char>, std::__ndk1::allocator<char> > const&, std::__ndk1::basic_string<char, std::__ndk1::char_traits<char>, std::__ndk1::allocator<char> > const&, matjson::Value const&)>, geode::Result<std::__ndk1::shared_ptr<geode::SettingV3>, std::__ndk1::basic_string<char, std::__ndk1::char_traits<char>, std::__ndk1::allocator<char> > >(std::__ndk1::basic_string<char, std::__ndk1::char_traits<char>, std::__ndk1::allocator<char> > const&, std::__ndk1::basic_string<char, std::__ndk1::char_traits<char>, std::__ndk1::allocator<char> > const&, matjson::Value const&)>::~__func()
PUBLIC 2462c 0 std::__ndk1::__function::__func<geode::Result<std::__ndk1::shared_ptr<geode::SettingV3>, std::__ndk1::basic_string<char, std::__ndk1::char_traits<char>, std::__ndk1::allocator<char> > > (*)(std::__ndk1::basic_string<char, std::__ndk1::char_traits<char>, std::__ndk1::allocator<char> > const&, std::__ndk1::basic_string<char, std::__ndk1::char_traits<char>, std::__ndk1::allocator<char> > const&, matjson::Value const&), std::__ndk1::allocator<geode::Result<std::__ndk1::shared_ptr<geode::SettingV3>, std::__ndk1::basic_string<char, std::__ndk1::char_traits<char>, std::__ndk1::allocator<char> > > (*)(std::__ndk1::basic_string<char, std::__ndk1::char_traits<char>, std::__ndk1::allocator<char> > const&, std::__ndk1::basic_string<char, std::__ndk1::char_traits<char>, std::__ndk1::allocator<char> > const&, matjson::Value const&)>, geode::Result<std::__ndk1::shared_ptr<geode::SettingV3>, std::__ndk1::basic_string<char, std::__ndk1::char_traits<char>, std::__ndk1::allocator<char> > >(std::__ndk1::basic_string<char, std::__ndk1::char_traits<char>, std::__ndk1::allocator<char> > const&, std::__ndk1::basic_string<char, std::__ndk1::char_traits<char>, std::__ndk1::allocator<char> > const&, matjson::Value const&)>::__clone() const
PUBLIC 24660 0 std::__ndk1::__function::__func<geode::Result<std::__ndk1::shared_ptr<geode::SettingV3>, std::__ndk1::basic_string<char, std::__ndk1::char_traits<char>, std::__ndk1::allocator<char> > > (*)(std::__ndk1::basic_string<char, std::__ndk1::char_traits<char>, std::__ndk1::allocator<char> > const&, std::__ndk1::basic_string<char, std::__ndk1::char_traits<char>, std::__ndk1::allocator<char> > const&, matjson::Value const&), std::__ndk1::allocator<geode::Result<std::__ndk1::shared_ptr<geode::SettingV3>, std::__ndk1::basic_string<char, std::__ndk1::char_traits<char>, std::__ndk1::allocator<char> > > (*)(std::__ndk1::basic_string<char, std::__ndk1::char_traits<char>, std::__ndk1::allocator<char> > const&, std::__ndk1::basic_string<char, std::__ndk1::char_traits<char>, std::__ndk1::allocator<char> > const&, matjson::Value const&)>, geode::Result<std::__ndk1::shared_ptr<geode::SettingV3>, std::__ndk1::basic_string<char, std::__ndk1::char_traits<char>, std::__ndk1::allocator<char> > >(std::__ndk1::basic_string<char, std::__ndk1::char_traits<char>, std::__ndk1::allocator<char> > const&, std::__ndk1::basic_string<char, std::__ndk1::char_traits<char>, std::__ndk1::allocator<char> > const&, matjson::Value const&)>::__clone(std::__ndk1::__function::__base<geode::Result<std::__ndk1::shared_ptr<geode::SettingV3>, std::__ndk1::basic_string<char, std::__ndk1::char_traits<char>, std::__ndk1::allocator<char> > >(std::__ndk1::basic_string<char, std::__ndk1::char_traits<char>, std::__ndk1::allocator<char> > const&, std::__ndk1::basic_string<char, std::__ndk1::char_traits<char>, std::__ndk1::allocator<char> > const&, matjson::Value const&)>*) const
PUBLIC 24674 0 std::__ndk1::__function::__func<geode::Result<std::__ndk1::shared_ptr<geode::SettingV3>, std::__ndk1::basic_string<char, std::__ndk1::char_traits<char>, std::__ndk1::allocator<char> > > (*)(std::__ndk1::basic_string<char, std::__ndk1::char_traits<char>, std::__ndk1::allocator<char> > const&, std::__ndk1::basic_string<char, std::__ndk1::char_traits<char>, std::__ndk1::allocator<char> > const&, matjson::Value const&), std::__ndk1::allocator<geode::Result<std::__ndk1::shared_ptr<geode::SettingV3>, std::__ndk1::basic_string<char, std::__ndk1::char_traits<char>, std::__ndk1::allocator<char> > > (*)(std::__ndk1::basic_string<char, std::__ndk1::char_traits<char>, std::__ndk1::allocator<char> > const&, std::__ndk1::basic_string<char, std::__ndk1::char_traits<char>, std::__ndk1::allocator<char> > const&, matjson::Value const&)>, geode::Result<std::__ndk1::shared_ptr<geode::SettingV3>, std::__ndk1::basic_string<char, std::__ndk1::char_traits<char>, std::__ndk1::allocator<char> > >(std::__ndk1::basic_string<char, std::__ndk1::char_traits<char>, std::__ndk1::allocator<char> > const&, std::__ndk1::basic_string<char, std::__ndk1::char_traits<char>, std::__ndk1::allocator<char> > const&, matjson::Value const&)>::destroy()
PUBLIC 24678 0 std::__ndk1::__function::__func<geode::Result<std::__ndk1::shared_ptr<geode::SettingV3>, std::__ndk1::basic_string<char, std::__ndk1::char_traits<char>, std::__ndk1::allocator<char> > > (*)(std::__ndk1::basic_string<char, std::__ndk1::char_traits<char>, std::__ndk1::allocator<char> > const&, std::__ndk1::basic_string<char, std::__ndk1::char_traits<char>, std::__ndk1::allocator<char> > const&, matjson::Value const&), std::__ndk1::allocator<geode::Result<std::__ndk1::shared_ptr<geode::SettingV3>, std::__ndk1::basic_string<char, std::__ndk1::char_traits<char>, std::__ndk1::allocator<char> > > (*)(std::__ndk1::basic_string<char, std::__ndk1::char_traits<char>, std::__ndk1::allocator<char> > const&, std::__ndk1::basic_string<char, std::__ndk1::char_traits<char>, std::__ndk1::allocator<char> > const&, matjson::Value const&)>, geode::Result<std::__ndk1::shared_ptr<geode::SettingV3>, std::__ndk1::basic_string<char, std::__ndk1::char_traits<char>, std::__ndk1::allocator<char> > >(std::__ndk1::basic_string<char, std::__ndk1::char_traits<char>, std::__ndk1::allocator<char> > const&, std::__ndk1::basic_string<char, std::__ndk1::char_traits<char>, std::__ndk1::allocator<char> > const&, matjson::Value const&)>::destroy_deallocate()
PUBLIC 2467c 0 std::__ndk1::__function::__func<geode::Result<std::__ndk1::shared_ptr<geode::SettingV3>, std::__ndk1::basic_string<char, std::__ndk1::char_traits<char>, std::__ndk1::allocator<char> > > (*)(std::__ndk1::basic_string<char, std::__ndk1::char_traits<char>, std::__ndk1::allocator<char> > const&, std::__ndk1::basic_string<char, std::__ndk1::char_traits<char>, std::__ndk1::allocator<char> > const&, matjson::Value const&), std::__ndk1::allocator<geode::Result<std::__ndk1::shared_ptr<geode::SettingV3>, std::__ndk1::basic_string<char, std::__ndk1::char_traits<char>, std::__ndk1::allocator<char> > > (*)(std::__ndk1::basic_string<char, std::__ndk1::char_traits<char>, std::__ndk1::allocator<char> > const&, std::__ndk1::basic_string<char, std::__ndk1::char_traits<char>, std::__ndk1::allocator<char> > const&, matjson::Value const&)>, geode::Result<std::__ndk1::shared_ptr<geode::SettingV3>, std::__ndk1::basic_string<char, std::__ndk1::char_traits<char>, std::__ndk1::allocator<char> > >(std::__ndk1::basic_string<char, std::__ndk1::char_traits<char>, std::__ndk1::allocator<char> > const&, std::__ndk1::basic_string<char, std::__ndk1::char_traits<char>, std::__ndk1::allocator<char> > const&, matjson::Value const&)>::operator()(std::__ndk1::basic_string<char, std::__ndk1::char_traits<char>, std::__ndk1::allocator<char> > const&, std::__ndk1::basic_string<char, std::__ndk1::char_traits<char>, std::__ndk1::allocator<char> > const&, matjson::Value const&)
PUBLIC 24690 0 std::__ndk1::__function::__func<geode::Result<std::__ndk1::shared_ptr<geode::SettingV3>, std::__ndk1::basic_string<char, std::__ndk1::char_traits<char>, std::__ndk1::allocator<char> > > (*)(std::__ndk1::basic_string<char, std::__ndk1::char_traits<char>, std::__ndk1::allocator<char> > const&, std::__ndk1::basic_string<char, std::__ndk1::char_traits<char>, std::__ndk1::allocator<char> > const&, matjson::Value const&), std::__ndk1::allocator<geode::Result<std::__ndk1::shared_ptr<geode::SettingV3>, std::__ndk1::basic_string<char, std::__ndk1::char_traits<char>, std::__ndk1::allocator<char> > > (*)(std::__ndk1::basic_string<char, std::__ndk1::char_traits<char>, std::__ndk1::allocator<char> > const&, std::__ndk1::basic_string<char, std::__ndk1::char_traits<char>, std::__ndk1::allocator<char> > const&, matjson::Value const&)>, geode::Result<std::__ndk1::shared_ptr<geode::SettingV3>, std::__ndk1::basic_string<char, std::__ndk1::char_traits<char>, std::__ndk1::allocator<char> > >(std::__ndk1::basic_string<char, std::__ndk1::char_traits<char>, std::__ndk1::allocator<char> > const&, std::__ndk1::basic_string<char, std::__ndk1::char_traits<char>, std::__ndk1::allocator<char> > const&, matjson::Value const&)>::target(std::type_info const&) const
PUBLIC 246ac 0 std::__ndk1::__function::__func<geode::Result<std::__ndk1::shared_ptr<geode::SettingV3>, std::__ndk1::basic_string<char, std::__ndk1::char_traits<char>, std::__ndk1::allocator<char> > > (*)(std::__ndk1::basic_string<char, std::__ndk1::char_traits<char>, std::__ndk1::allocator<char> > const&, std::__ndk1::basic_string<char, std::__ndk1::char_traits<char>, std::__ndk1::allocator<char> > const&, matjson::Value const&), std::__ndk1::allocator<geode::Result<std::__ndk1::shared_ptr<geode::SettingV3>, std::__ndk1::basic_string<char, std::__ndk1::char_traits<char>, std::__ndk1::allocator<char> > > (*)(std::__ndk1::basic_string<char, std::__ndk1::char_traits<char>, std::__ndk1::allocator<char> > const&, std::__ndk1::basic_string<char, std::__ndk1::char_traits<char>, std::__ndk1::allocator<char> > const&, matjson::Value const&)>, geode::Result<std::__ndk1::shared_ptr<geode::SettingV3>, std::__ndk1::basic_string<char, std::__ndk1::char_traits<char>, std::__ndk1::allocator<char> > >(std::__ndk1::basic_string<char, std::__ndk1::char_traits<char>, std::__ndk1::allocator<char> > const&, std::__ndk1::basic_string<char, std::__ndk1::char_traits<char>, std::__ndk1::allocator<char> > const&, matjson::Value const&)>::target_type() const
PUBLIC 246b8 0 std::__ndk1::shared_ptr<SettingPosValueColor>::~shared_ptr[abi:ne180000]()
PUBLIC 24708 0 std::__ndk1::__shared_ptr_emplace<SettingPosValueColor, std::__ndk1::allocator<SettingPosValueColor> >::~__shared_ptr_emplace()
PUBLIC 24718 0 std::__ndk1::__shared_ptr_emplace<SettingPosValueColor, std::__ndk1::allocator<SettingPosValueColor> >::~__shared_ptr_emplace()
PUBLIC 24748 0 std::__ndk1::__shared_ptr_emplace<SettingPosValueColor, std::__ndk1::allocator<SettingPosValueColor> >::__on_zero_shared()
PUBLIC 24754 0 std::__ndk1::__shared_ptr_emplace<SettingPosValueColor, std::__ndk1::allocator<SettingPosValueColor> >::__on_zero_shared_weak()
PUBLIC 24758 0 geode::SettingBaseValueV3<SettingPosEnumColor, SettingPosEnumColor>::~SettingBaseValueV3()
PUBLIC 247c4 0 geode::SettingBaseValueV3<SettingPosEnumColor, SettingPosEnumColor>::~SettingBaseValueV3()
PUBLIC 247c8 0 geode::SettingBaseValueV3<SettingPosEnumColor, SettingPosEnumColor>::load(matjson::Value const&)
PUBLIC 24904 0 geode::SettingBaseValueV3<SettingPosEnumColor, SettingPosEnumColor>::save(matjson::Value&) const
PUBLIC 249c0 0 geode::SettingBaseValueV3<SettingPosEnumColor, SettingPosEnumColor>::isDefaultValue() const
PUBLIC 249d4 0 geode::SettingBaseValueV3<SettingPosEnumColor, SettingPosEnumColor>::reset()
PUBLIC 24a84 0 geode::SettingBaseValueV3<SettingPosEnumColor, SettingPosEnumColor>::isValid(SettingPosEnumColor) const
PUBLIC 24a8c 0 std::__ndk1::__shared_ptr_emplace<geode::SettingBaseValueV3<SettingPosEnumColor, SettingPosEnumColor>::Impl, std::__ndk1::allocator<geode::SettingBaseValueV3<SettingPosEnumColor, SettingPosEnumColor>::Impl> >::~__shared_ptr_emplace()
PUBLIC 24a9c 0 std::__ndk1::__shared_ptr_emplace<geode::SettingBaseValueV3<SettingPosEnumColor, SettingPosEnumColor>::Impl, std::__ndk1::allocator<geode::SettingBaseValueV3<SettingPosEnumColor, SettingPosEnumColor>::Impl> >::~__shared_ptr_emplace()
PUBLIC 24acc 0 std::__ndk1::__shared_ptr_emplace<geode::SettingBaseValueV3<SettingPosEnumColor, SettingPosEnumColor>::Impl, std::__ndk1::allocator<geode::SettingBaseValueV3<SettingPosEnumColor, SettingPosEnumColor>::Impl> >::__on_zero_shared()
PUBLIC 24ad0 0 std::__ndk1::__shared_ptr_emplace<geode::SettingBaseValueV3<SettingPosEnumColor, SettingPosEnumColor>::Impl, std::__ndk1::allocator<geode::SettingBaseValueV3<SettingPosEnumColor, SettingPosEnumColor>::Impl> >::__on_zero_shared_weak()
PUBLIC 24ad4 0 geode::impl::ResultData<SettingPosEnumColor, std::__ndk1::basic_string<char, std::__ndk1::char_traits<char>, std::__ndk1::allocator<char> > >::~ResultData()
PUBLIC 24b48 0 matjson::Serialize<SettingPosEnumColor>::fromJson(matjson::Value const&)
PUBLIC 24d94 0 std::__ndk1::__variant_detail::__visitation::__base::__dispatcher<(unsigned long)0>::__dispatch[abi:ne180000]<std::__ndk1::__variant_detail::__dtor<std::__ndk1::__variant_detail::__traits<SettingPosEnumColor, std::__ndk1::basic_string<char, std::__ndk1::char_traits<char>, std::__ndk1::allocator<char> > >, (std::__ndk1::__variant_detail::_Trait)1>::__destroy[abi:ne180000]()::{lambda(auto:1&)#1}, std::__ndk1::__variant_detail::__base<(std::__ndk1::__variant_detail::__traits<SettingPosEnumColor, std::__ndk1::basic_string<char, std::__ndk1::char_traits<char>, std::__ndk1::allocator<char> > >)1, std::__ndk1::__variant_detail::__traits, std::__ndk1::allocator<char> >&>(std::__ndk1::__variant_detail::__dtor<std::__ndk1::__variant_detail::__traits<SettingPosEnumColor, std::__ndk1::basic_string<char, std::__ndk1::char_traits<char>, std::__ndk1::allocator<char> > >, (std::__ndk1::__variant_detail::_Trait)1>, std::__ndk1::__variant_detail::__base<(std::__ndk1::__variant_detail::__traits<SettingPosEnumColor, std::__ndk1::basic_string<char, std::__ndk1::char_traits<char>, std::__ndk1::allocator<char> > >)1, std::__ndk1::__variant_detail::__traits, std::__ndk1::allocator<char> >&)
PUBLIC 24d98 0 std::__ndk1::__variant_detail::__visitation::__base::__dispatcher<(unsigned long)1>::__dispatch[abi:ne180000]<std::__ndk1::__variant_detail::__dtor<std::__ndk1::__variant_detail::__traits<SettingPosEnumColor, std::__ndk1::basic_string<char, std::__ndk1::char_traits<char>, std::__ndk1::allocator<char> > >, (std::__ndk1::__variant_detail::_Trait)1>::__destroy[abi:ne180000]()::{lambda(auto:1&)#1}, std::__ndk1::__variant_detail::__base<(std::__ndk1::__variant_detail::__traits<SettingPosEnumColor, std::__ndk1::basic_string<char, std::__ndk1::char_traits<char>, std::__ndk1::allocator<char> > >)1, std::__ndk1::__variant_detail::__traits, std::__ndk1::allocator<char> >&>(std::__ndk1::__variant_detail::__dtor<std::__ndk1::__variant_detail::__traits<SettingPosEnumColor, std::__ndk1::basic_string<char, std::__ndk1::char_traits<char>, std::__ndk1::allocator<char> > >, (std::__ndk1::__variant_detail::_Trait)1>, std::__ndk1::__variant_detail::__base<(std::__ndk1::__variant_detail::__traits<SettingPosEnumColor, std::__ndk1::basic_string<char, std::__ndk1::char_traits<char>, std::__ndk1::allocator<char> > >)1, std::__ndk1::__variant_detail::__traits, std::__ndk1::allocator<char> >&)
PUBLIC 24dac 0 geode::JsonExpectedValue::tryGet<SettingPosEnumColor>()
PUBLIC 24ff4 0 std::__ndk1::shared_ptr<SettingTestValue>::~shared_ptr[abi:ne180000]()
PUBLIC 25044 0 std::__ndk1::__shared_ptr_emplace<SettingTestValue, std::__ndk1::allocator<SettingTestValue> >::~__shared_ptr_emplace()
PUBLIC 25054 0 std::__ndk1::__shared_ptr_emplace<SettingTestValue, std::__ndk1::allocator<SettingTestValue> >::~__shared_ptr_emplace()
PUBLIC 25084 0 std::__ndk1::__shared_ptr_emplace<SettingTestValue, std::__ndk1::allocator<SettingTestValue> >::__on_zero_shared()
PUBLIC 25090 0 std::__ndk1::__shared_ptr_emplace<SettingTestValue, std::__ndk1::allocator<SettingTestValue> >::__on_zero_shared_weak()
PUBLIC 25094 0 std::__ndk1::__variant_detail::__visitation::__base::__dispatcher<(unsigned long)0>::__dispatch[abi:ne180000]<std::__ndk1::__variant_detail::__dtor<std::__ndk1::__variant_detail::__traits<std::__ndk1::monostate, std::__ndk1::basic_string<char, std::__ndk1::char_traits<char>, std::__ndk1::allocator<char> > >, (std::__ndk1::__variant_detail::_Trait)1>::__destroy[abi:ne180000]()::{lambda(auto:1&)#1}, std::__ndk1::__variant_detail::__base<(std::__ndk1::__variant_detail::__traits<std::__ndk1::monostate, std::__ndk1::basic_string<char, std::__ndk1::char_traits<char>, std::__ndk1::allocator<char> > >)1, std::__ndk1::__variant_detail::__traits, std::__ndk1::allocator<char> >&>(std::__ndk1::__variant_detail::__dtor<std::__ndk1::__variant_detail::__traits<std::__ndk1::monostate, std::__ndk1::basic_string<char, std::__ndk1::char_traits<char>, std::__ndk1::allocator<char> > >, (std::__ndk1::__variant_detail::_Trait)1>, std::__ndk1::__variant_detail::__base<(std::__ndk1::__variant_detail::__traits<std::__ndk1::monostate, std::__ndk1::basic_string<char, std::__ndk1::char_traits<char>, std::__ndk1::allocator<char> > >)1, std::__ndk1::__variant_detail::__traits, std::__ndk1::allocator<char> >&)
PUBLIC 25098 0 std::__ndk1::__variant_detail::__visitation::__base::__dispatcher<(unsigned long)1>::__dispatch[abi:ne180000]<std::__ndk1::__variant_detail::__dtor<std::__ndk1::__variant_detail::__traits<std::__ndk1::monostate, std::__ndk1::basic_string<char, std::__ndk1::char_traits<char>, std::__ndk1::allocator<char> > >, (std::__ndk1::__variant_detail::_Trait)1>::__destroy[abi:ne180000]()::{lambda(auto:1&)#1}, std::__ndk1::__variant_detail::__base<(std::__ndk1::__variant_detail::__traits<std::__ndk1::monostate, std::__ndk1::basic_string<char, std::__ndk1::char_traits<char>, std::__ndk1::allocator<char> > >)1, std::__ndk1::__variant_detail::__traits, std::__ndk1::allocator<char> >&>(std::__ndk1::__variant_detail::__dtor<std::__ndk1::__variant_detail::__traits<std::__ndk1::monostate, std::__ndk1::basic_string<char, std::__ndk1::char_traits<char>, std::__ndk1::allocator<char> > >, (std::__ndk1::__variant_detail::_Trait)1>, std::__ndk1::__variant_detail::__base<(std::__ndk1::__variant_detail::__traits<std::__ndk1::monostate, std::__ndk1::basic_string<char, std::__ndk1::char_traits<char>, std::__ndk1::allocator<char> > >)1, std::__ndk1::__variant_detail::__traits, std::__ndk1::allocator<char> >&)
PUBLIC 250ac 0 geode::EventListener<geode::ModStateFilter>::getPool() const
PUBLIC 250b0 0 geode::EventListener<geode::ModStateFilter>::handle(geode::Event*)
PUBLIC 25224 0 geode::EventListener<geode::ModStateFilter>::~EventListener()
PUBLIC 25280 0 geode::EventListener<geode::ModStateFilter>::~EventListener()
PUBLIC 252e4 0 std::__ndk1::__function::__base<void (geode::ModStateEvent*)>::~__base()
PUBLIC 252e8 0 std::__ndk1::__function::__func<void (*)(geode::ModStateEvent*), std::__ndk1::allocator<void (*)(geode::ModStateEvent*)>, void (geode::ModStateEvent*)>::~__func()
PUBLIC 252ec 0 std::__ndk1::__function::__func<void (*)(geode::ModStateEvent*), std::__ndk1::allocator<void (*)(geode::ModStateEvent*)>, void (geode::ModStateEvent*)>::__clone() const
PUBLIC 25320 0 std::__ndk1::__function::__func<void (*)(geode::ModStateEvent*), std::__ndk1::allocator<void (*)(geode::ModStateEvent*)>, void (geode::ModStateEvent*)>::__clone(std::__ndk1::__function::__base<void (geode::ModStateEvent*)>*) const
PUBLIC 25334 0 std::__ndk1::__function::__func<void (*)(geode::ModStateEvent*), std::__ndk1::allocator<void (*)(geode::ModStateEvent*)>, void (geode::ModStateEvent*)>::destroy()
PUBLIC 25338 0 std::__ndk1::__function::__func<void (*)(geode::ModStateEvent*), std::__ndk1::allocator<void (*)(geode::ModStateEvent*)>, void (geode::ModStateEvent*)>::destroy_deallocate()
PUBLIC 2533c 0 std::__ndk1::__function::__func<void (*)(geode::ModStateEvent*), std::__ndk1::allocator<void (*)(geode::ModStateEvent*)>, void (geode::ModStateEvent*)>::operator()(geode::ModStateEvent*&&)
PUBLIC 2534c 0 std::__ndk1::__function::__func<void (*)(geode::ModStateEvent*), std::__ndk1::allocator<void (*)(geode::ModStateEvent*)>, void (geode::ModStateEvent*)>::target(std::type_info const&) const
PUBLIC 25368 0 std::__ndk1::__function::__func<void (*)(geode::ModStateEvent*), std::__ndk1::allocator<void (*)(geode::ModStateEvent*)>, void (geode::ModStateEvent*)>::target_type() const
PUBLIC 25374 0 geode::modifier::ModifyDerive<hook33<(anonymous namespace)::hook33Parent>, StatsCell>::apply()
PUBLIC 2567c 0 geode::modifier::ModifyBase<geode::modifier::ModifyDerive<hook33<(anonymous namespace)::hook33Parent>, StatsCell> >::apply()
PUBLIC 25680 0 geode::modifier::AsStaticFunction_draw<hook33<(anonymous namespace)::hook33Parent>, void (hook33<(anonymous namespace)::hook33Parent>::*)()>::Impl<void (hook33<(anonymous namespace)::hook33Parent>::*)()>::function(hook33<(anonymous namespace)::hook33Parent>*)
PUBLIC 256c8 0 geode::addresser::Addresser::addressOfVirtual<void, StatsCell, >(void (StatsCell::*)())
PUBLIC 25790 0 StatsCell::StatsCell(geode::ZeroConstructorType)
PUBLIC 2587c 0 SettingTestValue::createNode(float)
PUBLIC 25c10 0 SettingPosValue::createNode(float)
PUBLIC 263dc 0 SettingPosValueColor::createNode(float)
PUBLIC 26ba8 0 SettingTestNode::onTestBtn(cocos2d::CCObject*)
PUBLIC 26bd0 0 SettingTestValue::~SettingTestValue()
PUBLIC 26bf4 0 SettingTestValue::load(matjson::Value const&)
PUBLIC 26bfc 0 SettingTestValue::save(matjson::Value&) const
PUBLIC 26c04 0 SettingTestValue::isDefaultValue() const
PUBLIC 26c0c 0 SettingTestValue::reset()
PUBLIC 26c10 0 SettingPosValue::~SettingPosValue()
PUBLIC 26c8c 0 SettingPosValueColor::~SettingPosValueColor()
PUBLIC 26d08 0 geode::SettingNodeV3::~SettingNodeV3()
PUBLIC 26d78 0 SettingTestNode::~SettingTestNode()
PUBLIC 26df8 0 SettingTestNode::onCommit()
PUBLIC 26dfc 0 SettingTestNode::onResetToDefault()
PUBLIC 26e00 0 SettingTestNode::hasUncommittedChanges() const
PUBLIC 26e08 0 SettingTestNode::hasNonDefaultValue() const
PUBLIC 26e10 0 geode::SettingValueNodeV3<SettingPosValue>::~SettingValueNodeV3()
PUBLIC 26ebc 0 SettingPosNode::~SettingPosNode()
PUBLIC 26f78 0 SettingPosNode::updateState(cocos2d::CCNode*)
PUBLIC 26f7c 0 geode::SettingValueNodeV3<SettingPosValue>::onCommit()
PUBLIC 270f8 0 SettingPosNode::onResetToDefault()
PUBLIC 27148 0 geode::SettingValueNodeV3<SettingPosValue>::hasUncommittedChanges() const
PUBLIC 271e0 0 geode::SettingValueNodeV3<SettingPosValue>::hasNonDefaultValue() const
PUBLIC 27278 0 geode::SettingValueNodeV3<SettingPosValue>::~SettingValueNodeV3()
PUBLIC 27334 0 geode::SettingValueNodeV3<SettingPosValue>::updateState(cocos2d::CCNode*)
PUBLIC 27544 0 geode::SettingValueNodeV3<SettingPosValue>::onResetToDefault()
PUBLIC 2760c 0 SettingPosNode::onCornerClick(cocos2d::CCObject*)
PUBLIC 27680 0 std::__ndk1::__shared_ptr_emplace<geode::SettingValueNodeV3<SettingPosValue>::Impl, std::__ndk1::allocator<geode::SettingValueNodeV3<SettingPosValue>::Impl> >::~__shared_ptr_emplace()
PUBLIC 27690 0 std::__ndk1::__shared_ptr_emplace<geode::SettingValueNodeV3<SettingPosValue>::Impl, std::__ndk1::allocator<geode::SettingValueNodeV3<SettingPosValue>::Impl> >::~__shared_ptr_emplace()
PUBLIC 276c0 0 std::__ndk1::__shared_ptr_emplace<geode::SettingValueNodeV3<SettingPosValue>::Impl, std::__ndk1::allocator<geode::SettingValueNodeV3<SettingPosValue>::Impl> >::__on_zero_shared()
PUBLIC 276c4 0 std::__ndk1::__shared_ptr_emplace<geode::SettingValueNodeV3<SettingPosValue>::Impl, std::__ndk1::allocator<geode::SettingValueNodeV3<SettingPosValue>::Impl> >::__on_zero_shared_weak()
PUBLIC 276c8 0 geode::SettingValueNodeV3<SettingPosValueColor>::~SettingValueNodeV3()
PUBLIC 27774 0 SettingPosNodeColor::~SettingPosNodeColor()
PUBLIC 27830 0 SettingPosNodeColor::updateState(cocos2d::CCNode*)
PUBLIC 27834 0 geode::SettingValueNodeV3<SettingPosValueColor>::onCommit()
PUBLIC 279b0 0 SettingPosNodeColor::onResetToDefault()
PUBLIC 27a04 0 geode::SettingValueNodeV3<SettingPosValueColor>::hasUncommittedChanges() const
PUBLIC 27a9c 0 geode::SettingValueNodeV3<SettingPosValueColor>::hasNonDefaultValue() const
PUBLIC 27b34 0 geode::SettingValueNodeV3<SettingPosValueColor>::~SettingValueNodeV3()
PUBLIC 27bf0 0 geode::SettingValueNodeV3<SettingPosValueColor>::updateState(cocos2d::CCNode*)
PUBLIC 27e00 0 geode::SettingValueNodeV3<SettingPosValueColor>::onResetToDefault()
PUBLIC 27ec8 0 SettingPosNodeColor::onColorClick(cocos2d::CCObject*)
PUBLIC 27f3c 0 std::__ndk1::__shared_ptr_emplace<geode::SettingValueNodeV3<SettingPosValueColor>::Impl, std::__ndk1::allocator<geode::SettingValueNodeV3<SettingPosValueColor>::Impl> >::~__shared_ptr_emplace()
PUBLIC 27f4c 0 std::__ndk1::__shared_ptr_emplace<geode::SettingValueNodeV3<SettingPosValueColor>::Impl, std::__ndk1::allocator<geode::SettingValueNodeV3<SettingPosValueColor>::Impl> >::~__shared_ptr_emplace()
PUBLIC 27f7c 0 std::__ndk1::__shared_ptr_emplace<geode::SettingValueNodeV3<SettingPosValueColor>::Impl, std::__ndk1::allocator<geode::SettingValueNodeV3<SettingPosValueColor>::Impl> >::__on_zero_shared()
PUBLIC 27f80 0 std::__ndk1::__shared_ptr_emplace<geode::SettingValueNodeV3<SettingPosValueColor>::Impl, std::__ndk1::allocator<geode::SettingValueNodeV3<SettingPosValueColor>::Impl> >::__on_zero_shared_weak()
PUBLIC 27f84 0 std::__ndk1::__throw_bad_weak_ptr[abi:ne180000]()
PUBLIC 27fb8 0 ownUtils::FixLayerv2(cocos2d::CCLayer*, int, int)
PUBLIC 280f0 0 ownUtils::FixLayer(cocos2d::CCLayer*, int, int)
PUBLIC m 28308 0 geodeImplicitEntry
PUBLIC 28344 0 cocos2d::CCDestructor::~CCDestructor()
PUBLIC 28440 0 wrapFunction(unsigned long, tulip::hook::WrapperMetadata const&)
PUBLIC 28574 0 geode::impl::ResultData<void*, std::__ndk1::basic_string<char, std::__ndk1::char_traits<char>, std::__ndk1::allocator<char> > >::unwrapErr() &
PUBLIC 285ec 0 geode::impl::ResultData<void*, std::__ndk1::basic_string<char, std::__ndk1::char_traits<char>, std::__ndk1::allocator<char> > >::~ResultData()
PUBLIC 28660 0 tulip::hook::WrapperMetadata::~WrapperMetadata()
PUBLIC 286c4 0 cocos2d::CCObject::CCObject()
PUBLIC 28838 0 cocos2d::CCNode::CCNode()
PUBLIC 289cc 0 cocos2d::CCNode::~CCNode()
PUBLIC 289f0 0 {virtual override thunk({offset(-320)}, cocos2d::CCLayer::~CCLayer())}
PUBLIC 289f8 0 cocos2d::CCLayer::~CCLayer()
PUBLIC 28a1c 0 {virtual override thunk({offset(-320)}, cocos2d::CCLayer::~CCLayer())}
PUBLIC 28a44 0 cocos2d::CCObject::~CCObject()
PUBLIC 28a68 0 cocos2d::CCObject::update(float)
PUBLIC 28a6c 0 cocos2d::CCLayer::~CCLayer()
PUBLIC 28cb0 0 CCIndexPath::~CCIndexPath()
PUBLIC 28cd4 0 cocos2d::CCNode::~CCNode()
PUBLIC 28ef8 0 cocos2d::CCObject::~CCObject()
PUBLIC 2911c 0 _ZN5geode15UnwrapExceptionC2IRPvQsr4implE18IsStringStreamableIT_EEENS_4impl5OkTagEOS4_
PUBLIC 29270 0 std::__ndk1::__variant_detail::__visitation::__base::__dispatcher<(unsigned long)0>::__dispatch[abi:ne180000]<std::__ndk1::__variant_detail::__dtor<std::__ndk1::__variant_detail::__traits<void*, std::__ndk1::basic_string<char, std::__ndk1::char_traits<char>, std::__ndk1::allocator<char> > >, (std::__ndk1::__variant_detail::_Trait)1>::__destroy[abi:ne180000]()::{lambda(auto:1&)#1}, std::__ndk1::__variant_detail::__base<(std::__ndk1::__variant_detail::__traits<void*, std::__ndk1::basic_string<char, std::__ndk1::char_traits<char>, std::__ndk1::allocator<char> > >)1, std::__ndk1::__variant_detail::__traits, std::__ndk1::allocator<char> >&>(std::__ndk1::__variant_detail::__dtor<std::__ndk1::__variant_detail::__traits<void*, std::__ndk1::basic_string<char, std::__ndk1::char_traits<char>, std::__ndk1::allocator<char> > >, (std::__ndk1::__variant_detail::_Trait)1>, std::__ndk1::__variant_detail::__base<(std::__ndk1::__variant_detail::__traits<void*, std::__ndk1::basic_string<char, std::__ndk1::char_traits<char>, std::__ndk1::allocator<char> > >)1, std::__ndk1::__variant_detail::__traits, std::__ndk1::allocator<char> >&)
PUBLIC 29274 0 std::__ndk1::__variant_detail::__visitation::__base::__dispatcher<(unsigned long)1>::__dispatch[abi:ne180000]<std::__ndk1::__variant_detail::__dtor<std::__ndk1::__variant_detail::__traits<void*, std::__ndk1::basic_string<char, std::__ndk1::char_traits<char>, std::__ndk1::allocator<char> > >, (std::__ndk1::__variant_detail::_Trait)1>::__destroy[abi:ne180000]()::{lambda(auto:1&)#1}, std::__ndk1::__variant_detail::__base<(std::__ndk1::__variant_detail::__traits<void*, std::__ndk1::basic_string<char, std::__ndk1::char_traits<char>, std::__ndk1::allocator<char> > >)1, std::__ndk1::__variant_detail::__traits, std::__ndk1::allocator<char> >&>(std::__ndk1::__variant_detail::__dtor<std::__ndk1::__variant_detail::__traits<void*, std::__ndk1::basic_string<char, std::__ndk1::char_traits<char>, std::__ndk1::allocator<char> > >, (std::__ndk1::__variant_detail::_Trait)1>, std::__ndk1::__variant_detail::__base<(std::__ndk1::__variant_detail::__traits<void*, std::__ndk1::basic_string<char, std::__ndk1::char_traits<char>, std::__ndk1::allocator<char> > >)1, std::__ndk1::__variant_detail::__traits, std::__ndk1::allocator<char> >&)
PUBLIC 29288 0 std::__ndk1::__hash_table<std::__ndk1::__hash_value_type<void*, bool>, std::__ndk1::__unordered_map_hasher<void*, std::__ndk1::__hash_value_type<void*, bool>, std::__ndk1::hash<void*>, std::__ndk1::equal_to<void*>, true>, std::__ndk1::__unordered_map_equal<void*, std::__ndk1::__hash_value_type<void*, bool>, std::__ndk1::equal_to<void*>, std::__ndk1::hash<void*>, true>, std::__ndk1::allocator<std::__ndk1::__hash_value_type<void*, bool> > >::__emplace_unique_key_args<void*, std::__ndk1::piecewise_construct_t const&, std::__ndk1::tuple<void* const&>, std::__ndk1::tuple<> >(void* const&, std::__ndk1::piecewise_construct_t const&, std::__ndk1::tuple<void* const&>, std::__ndk1::tuple<>)
PUBLIC 29768 0 std::__ndk1::__hash_table<std::__ndk1::__hash_value_type<void*, bool>, std::__ndk1::__unordered_map_hasher<void*, std::__ndk1::__hash_value_type<void*, bool>, std::__ndk1::hash<void*>, std::__ndk1::equal_to<void*>, true>, std::__ndk1::__unordered_map_equal<void*, std::__ndk1::__hash_value_type<void*, bool>, std::__ndk1::equal_to<void*>, std::__ndk1::hash<void*>, true>, std::__ndk1::allocator<std::__ndk1::__hash_value_type<void*, bool> > >::find<void*>(void* const&)
PUBLIC 29878 0 std::__ndk1::__hash_table<std::__ndk1::__hash_value_type<void*, bool>, std::__ndk1::__unordered_map_hasher<void*, std::__ndk1::__hash_value_type<void*, bool>, std::__ndk1::hash<void*>, std::__ndk1::equal_to<void*>, true>, std::__ndk1::__unordered_map_equal<void*, std::__ndk1::__hash_value_type<void*, bool>, std::__ndk1::equal_to<void*>, std::__ndk1::hash<void*>, true>, std::__ndk1::allocator<std::__ndk1::__hash_value_type<void*, bool> > >::remove(std::__ndk1::__hash_const_iterator<std::__ndk1::__hash_node<std::__ndk1::__hash_value_type<void*, bool>, void*>*>)
PUBLIC 299ac 0 __udivti3
PUBLIC 299b8 0 __udivmodti4
PUBLIC m 29c04 0 __eqtf2
PUBLIC 29ca4 0 __unordtf2
PUBLIC 29cdc 0 fmt::v11::detail::write_loc(fmt::v11::basic_appender<char>, fmt::v11::loc_value, fmt::v11::format_specs const&, fmt::v11::detail::locale_ref)
PUBLIC 29f70 0 fmt::v11::format_facet<std::__ndk1::locale>::~format_facet()
PUBLIC 29fec 0 fmt::v11::report_error(char const*)
PUBLIC 2a03c 0 fmt::v11::format_error::runtime_error(char const*)
PUBLIC 2a068 0 fmt::v11::format_facet<std::__ndk1::locale>::do_put(fmt::v11::basic_appender<char>, fmt::v11::loc_value, fmt::v11::format_specs const&) const
PUBLIC 2a828 0 fmt::v11::detail::loc_writer<char>::~loc_writer()
PUBLIC 2a88c 0 fmt::v11::detail::vformat_to<char>(fmt::v11::detail::buffer<char>&, fmt::v11::basic_string_view<char>, fmt::v11::detail::vformat_args<char>::type, fmt::v11::detail::locale_ref)
PUBLIC 2adfc 0 fmt::v11::detail::is_printable(unsigned int)
PUBLIC 2b024 0 fmt::v11::detail::dragonbox::to_decimal<float>(float)
PUBLIC 2b300 0 fmt::v11::detail::dragonbox::to_decimal<double>(double)
PUBLIC 2b83c 0 fmt::v11::basic_memory_buffer<char, (unsigned long)500, std::__ndk1::allocator<char> >::grow(fmt::v11::detail::buffer<char>&, unsigned long)
PUBLIC 2b8b4 0 fmt::v11::format_facet<std::__ndk1::locale>::~format_facet()
PUBLIC 2b940 0 fmt::v11::format_error::~format_error()
PUBLIC 2b964 0 fmt::v11::detail::copy_noinline<char, char const*, fmt::v11::basic_appender<char> >(char const*, char const*, fmt::v11::basic_appender<char>)
PUBLIC 2bab4 0 fmt::v11::detail::default_arg_formatter<char>::operator()<bool>(bool)
PUBLIC 2bb1c 0 fmt::v11::detail::default_arg_formatter<char>::operator()<char>(char)
PUBLIC 2bbac 0 fmt::v11::detail::default_arg_formatter<char>::operator()<float>(float)
PUBLIC 2bc98 0 fmt::v11::detail::default_arg_formatter<char>::operator()<double>(double)
PUBLIC 2bd84 0 fmt::v11::detail::default_arg_formatter<char>::operator()<char const*>(char const*)
PUBLIC 2bdcc 0 fmt::v11::detail::default_arg_formatter<char>::operator()<void const*>(void const*)
PUBLIC 2be64 0 _ZN3fmt3v116detail5writeIcNS0_14basic_appenderIcEEiTnNSt6__ndk19enable_ifIXaaaasr11is_integralIT1_EE5valuentsr3std7is_sameIS7_bEE5valuentsr3std7is_sameIS7_T_EE5valueEiE4typeELi0EEET0_SB_S7_
PUBLIC 2c0c4 0 fmt::v11::detail::copy_noinline<char, char*, fmt::v11::basic_appender<char> >(char*, char*, fmt::v11::basic_appender<char>)
PUBLIC 2c214 0 _ZN3fmt3v116detail5writeIcNS0_14basic_appenderIcEEjTnNSt6__ndk19enable_ifIXaaaasr11is_integralIT1_EE5valuentsr3std7is_sameIS7_bEE5valuentsr3std7is_sameIS7_T_EE5valueEiE4typeELi0EEET0_SB_S7_
PUBLIC 2c3f4 0 _ZN3fmt3v116detail5writeIcNS0_14basic_appenderIcEExTnNSt6__ndk19enable_ifIXaaaasr11is_integralIT1_EE5valuentsr3std7is_sameIS7_bEE5valuentsr3std7is_sameIS7_T_EE5valueEiE4typeELi0EEET0_SB_S7_
PUBLIC 2c678 0 _ZN3fmt3v116detail5writeIcNS0_14basic_appenderIcEEyTnNSt6__ndk19enable_ifIXaaaasr11is_integralIT1_EE5valuentsr3std7is_sameIS7_bEE5valuentsr3std7is_sameIS7_T_EE5valueEiE4typeELi0EEET0_SB_S7_
PUBLIC 2c880 0 _ZN3fmt3v116detail5writeIcNS0_14basic_appenderIcEEnTnNSt6__ndk19enable_ifIXaaaasr11is_integralIT1_EE5valuentsr3std7is_sameIS7_bEE5valuentsr3std7is_sameIS7_T_EE5valueEiE4typeELi0EEET0_SB_S7_
PUBLIC 2cbe0 0 _ZN3fmt3v116detail5writeIcNS0_14basic_appenderIcEEoTnNSt6__ndk19enable_ifIXaaaasr11is_integralIT1_EE5valuentsr3std7is_sameIS7_bEE5valuentsr3std7is_sameIS7_T_EE5valueEiE4typeELi0EEET0_SB_S7_
PUBLIC 2cef4 0 _ZN3fmt3v116detail5writeIcNS0_14basic_appenderIcEEbTnNSt6__ndk19enable_ifIXsr3std7is_sameIT1_bEE5valueEiE4typeELi0EEET0_SA_S7_RKNS0_12format_specsENS1_10locale_refE
PUBLIC 2d184 0 fmt::v11::detail::write_int_noinline<char, fmt::v11::basic_appender<char>, unsigned int>(fmt::v11::basic_appender<char>, fmt::v11::detail::write_int_arg<unsigned int>, fmt::v11::format_specs const&, fmt::v11::detail::locale_ref)
PUBLIC 2df60 0 fmt::v11::detail::fill<char, fmt::v11::basic_appender<char> >(fmt::v11::basic_appender<char>, unsigned long, fmt::v11::detail::fill_t const&)
PUBLIC 2e130 0 fmt::v11::detail::write_padded<char, (fmt::v11::align::type)1, fmt::v11::basic_appender<char>, fmt::v11::detail::write_char<char, fmt::v11::basic_appender<char> >(fmt::v11::basic_appender<char>, char, fmt::v11::format_specs const&)::{lambda(fmt::v11::basic_appender<char>&)#1}>(fmt::v11::basic_appender<char>, fmt::v11::format_specs const&, unsigned long, unsigned long, fmt::v11::detail::write_char<char, fmt::v11::basic_appender<char> >(fmt::v11::basic_appender<char>, char, fmt::v11::format_specs const&)::{lambda(fmt::v11::basic_appender<char>&)#1})
PUBLIC 2e36c 0 fmt::v11::detail::write_escaped_cp<fmt::v11::basic_appender<char>, char>(fmt::v11::basic_appender<char>, fmt::v11::detail::find_escape_result<char> const&)
PUBLIC 2e678 0 fmt::v11::detail::write_codepoint<(unsigned long)2, char, fmt::v11::basic_appender<char> >(fmt::v11::basic_appender<char>, char, unsigned int)
PUBLIC 2e7f0 0 fmt::v11::detail::write_codepoint<(unsigned long)8, char, fmt::v11::basic_appender<char> >(fmt::v11::basic_appender<char>, char, unsigned int)
PUBLIC 2e968 0 fmt::v11::detail::write_padded<char, (fmt::v11::align::type)1, fmt::v11::basic_appender<char>, fmt::v11::detail::write_nonfinite<char, fmt::v11::basic_appender<char> >(fmt::v11::basic_appender<char>, bool, fmt::v11::format_specs, fmt::v11::sign::type)::{lambda(fmt::v11::basic_appender<char>&)#1}>(fmt::v11::basic_appender<char>, fmt::v11::format_specs const&, unsigned long, unsigned long, fmt::v11::detail::write_nonfinite<char, fmt::v11::basic_appender<char> >(fmt::v11::basic_appender<char>, bool, fmt::v11::format_specs, fmt::v11::sign::type)::{lambda(fmt::v11::basic_appender<char>&)#1})
PUBLIC 2eba8 0 fmt::v11::detail::do_write_float<char, fmt::v11::basic_appender<char>, fmt::v11::detail::dragonbox::decimal_fp<float>, fmt::v11::detail::digit_grouping<char> >(fmt::v11::basic_appender<char>, fmt::v11::detail::dragonbox::decimal_fp<float> const&, fmt::v11::format_specs const&, fmt::v11::detail::float_specs, fmt::v11::detail::locale_ref)
PUBLIC 2f81c 0 fmt::v11::detail::do_write_float<char, fmt::v11::basic_appender<char>, fmt::v11::detail::dragonbox::decimal_fp<float>, fmt::v11::detail::digit_grouping<char> >(fmt::v11::basic_appender<char>, fmt::v11::detail::dragonbox::decimal_fp<float> const&, fmt::v11::format_specs const&, fmt::v11::detail::float_specs, fmt::v11::detail::locale_ref)::{lambda(fmt::v11::basic_appender<char>(fmt::v11::basic_appender<char>))#1}::operator() const
PUBLIC 2f970 0 fmt::v11::detail::digit_grouping<char>::digit_grouping(fmt::v11::detail::locale_ref, bool)
PUBLIC 2fbdc 0 fmt::v11::detail::digit_grouping<char>::~digit_grouping()
PUBLIC 2fc20 0 fmt::v11::detail::write_exponent<char, fmt::v11::basic_appender<char> >(int, fmt::v11::basic_appender<char>)
PUBLIC 2fdf0 0 _ZN3fmt3v116detail17write_significandIcjTnNSt6__ndk19enable_ifIXsr3std11is_integralIT0_EE5valueEiE4typeELi0EEEPT_S9_S5_iiS8_
PUBLIC 2ff6c 0 std::__ndk1::basic_string<char, std::__ndk1::char_traits<char>, std::__ndk1::allocator<char> >::__assign_no_alias<true>(char const*, unsigned long)
PUBLIC 30018 0 std::__ndk1::basic_string<char, std::__ndk1::char_traits<char>, std::__ndk1::allocator<char> >::__assign_no_alias<false>(char const*, unsigned long)
PUBLIC 30128 0 fmt::v11::detail::digit_grouping<char>::apply<fmt::v11::basic_appender<char>, char>(fmt::v11::basic_appender<char>, fmt::v11::basic_string_view<char>) const
PUBLIC 304e0 0 fmt::v11::basic_memory_buffer<int, (unsigned long)500, std::__ndk1::allocator<int> >::grow(fmt::v11::detail::buffer<int>&, unsigned long)
PUBLIC 30580 0 fmt::v11::detail::do_write_float<char, fmt::v11::basic_appender<char>, fmt::v11::detail::dragonbox::decimal_fp<double>, fmt::v11::detail::digit_grouping<char> >(fmt::v11::basic_appender<char>, fmt::v11::detail::dragonbox::decimal_fp<double> const&, fmt::v11::format_specs const&, fmt::v11::detail::float_specs, fmt::v11::detail::locale_ref)
PUBLIC 31234 0 fmt::v11::detail::do_write_float<char, fmt::v11::basic_appender<char>, fmt::v11::detail::dragonbox::decimal_fp<double>, fmt::v11::detail::digit_grouping<char> >(fmt::v11::basic_appender<char>, fmt::v11::detail::dragonbox::decimal_fp<double> const&, fmt::v11::format_specs const&, fmt::v11::detail::float_specs, fmt::v11::detail::locale_ref)::{lambda(fmt::v11::basic_appender<char>(fmt::v11::basic_appender<char>))#1}::operator() const
PUBLIC 3138c 0 _ZN3fmt3v116detail17write_significandIcmTnNSt6__ndk19enable_ifIXsr3std11is_integralIT0_EE5valueEiE4typeELi0EEEPT_S9_S5_iiS8_
PUBLIC 3151c 0 fmt::v11::detail::write_float<char, fmt::v11::basic_appender<char>, long double>(fmt::v11::basic_appender<char>, long double, fmt::v11::format_specs, fmt::v11::detail::locale_ref)
PUBLIC 32018 0 fmt::v11::detail::write_padded<char, (fmt::v11::align::type)2, fmt::v11::basic_appender<char>, fmt::v11::detail::write_bytes<char, (fmt::v11::align::type)2, fmt::v11::basic_appender<char> >(fmt::v11::basic_appender<char>, fmt::v11::basic_string_view<char>, fmt::v11::format_specs const&)::{lambda(fmt::v11::basic_appender<char>&)#1}>(fmt::v11::basic_appender<char>, fmt::v11::format_specs const&, unsigned long, unsigned long, fmt::v11::detail::write_bytes<char, (fmt::v11::align::type)2, fmt::v11::basic_appender<char> >(fmt::v11::basic_appender<char>, fmt::v11::basic_string_view<char>, fmt::v11::format_specs const&)::{lambda(fmt::v11::basic_appender<char>&)#1})
PUBLIC 321f4 0 fmt::v11::detail::format_dragon(fmt::v11::detail::basic_fp<unsigned __int128>, unsigned int, int, fmt::v11::detail::buffer<char>&, int&)
PUBLIC 33624 0 fmt::v11::detail::bigint::operator<<=(int)
PUBLIC 33748 0 fmt::v11::detail::bigint::assign_pow10(int)
PUBLIC 33ea4 0 fmt::v11::detail::bigint::divmod_assign(fmt::v11::detail::bigint const&)
PUBLIC 341c4 0 fmt::v11::basic_memory_buffer<unsigned int, (unsigned long)32, std::__ndk1::allocator<unsigned int> >::grow(fmt::v11::detail::buffer<unsigned int>&, unsigned long)
PUBLIC 34264 0 fmt::v11::detail::do_write_float<char, fmt::v11::basic_appender<char>, fmt::v11::detail::big_decimal_fp, fmt::v11::detail::digit_grouping<char> >(fmt::v11::basic_appender<char>, fmt::v11::detail::big_decimal_fp const&, fmt::v11::format_specs const&, fmt::v11::detail::float_specs, fmt::v11::detail::locale_ref)
PUBLIC 35114 0 fmt::v11::detail::do_write_float<char, fmt::v11::basic_appender<char>, fmt::v11::detail::big_decimal_fp, fmt::v11::detail::digit_grouping<char> >(fmt::v11::basic_appender<char>, fmt::v11::detail::big_decimal_fp const&, fmt::v11::format_specs const&, fmt::v11::detail::float_specs, fmt::v11::detail::locale_ref)::{lambda(fmt::v11::basic_appender<char>(fmt::v11::basic_appender<char>))#1}::operator() const
PUBLIC 35274 0 fmt::v11::detail::write_padded<char, (fmt::v11::align::type)2, fmt::v11::basic_appender<char>, fmt::v11::detail::write_ptr<char, fmt::v11::basic_appender<char>, unsigned long>(fmt::v11::basic_appender<char>, unsigned long, fmt::v11::format_specs const*)::{lambda(fmt::v11::basic_appender<char>&)#1}>(fmt::v11::basic_appender<char>, fmt::v11::format_specs const&, unsigned long, unsigned long, fmt::v11::detail::write_ptr<char, fmt::v11::basic_appender<char>, unsigned long>(fmt::v11::basic_appender<char>, unsigned long, fmt::v11::format_specs const*)::{lambda(fmt::v11::basic_appender<char>&)#1})
PUBLIC 35488 0 fmt::v11::detail::parse_replacement_field<char, fmt::v11::detail::vformat_to<char>(fmt::v11::detail::buffer<char>&, fmt::v11::basic_string_view<char>, fmt::v11::detail::vformat_args<char>::type, fmt::v11::detail::locale_ref)::format_handler&>(char const*, char const*, fmt::v11::detail::vformat_to<char>(fmt::v11::detail::buffer<char>&, fmt::v11::basic_string_view<char>, fmt::v11::detail::vformat_args<char>::type, fmt::v11::detail::locale_ref)::format_handler&)
PUBLIC 37124 0 fmt::v11::detail::parse_dynamic_spec<char>(char const*, char const*, int&, fmt::v11::detail::arg_ref<char>&, fmt::v11::basic_format_parse_context<char>&)
PUBLIC 373b4 0 fmt::v11::basic_format_args<fmt::v11::context>::get<char>(fmt::v11::basic_string_view<char>) const
PUBLIC 3750c 0 fmt::v11::detail::write_int_noinline<char, fmt::v11::basic_appender<char>, unsigned long>(fmt::v11::basic_appender<char>, fmt::v11::detail::write_int_arg<unsigned long>, fmt::v11::format_specs const&, fmt::v11::detail::locale_ref)
PUBLIC 38360 0 fmt::v11::detail::write_int_noinline<char, fmt::v11::basic_appender<char>, unsigned __int128>(fmt::v11::basic_appender<char>, fmt::v11::detail::write_int_arg<unsigned __int128>, fmt::v11::format_specs const&, fmt::v11::detail::locale_ref)
PUBLIC 393c8 0 _ZN3fmt3v116detail15format_hexfloatIdTnNSt6__ndk19enable_ifIXntsr16is_double_doubleIT_EE5valueEiE4typeELi0EEEvS5_NS0_12format_specsERNS1_6bufferIcEE
PUBLIC 398e8 0 fmt::v11::detail::format_float<double>(double, int, fmt::v11::detail::float_specs, fmt::v11::detail::buffer<char>&)
PUBLIC 3a288 0 fmt::v11::detail::write<char, fmt::v11::basic_appender<char> >(fmt::v11::basic_appender<char>, fmt::v11::basic_string_view<char>, fmt::v11::format_specs const&)
PUBLIC 3b5f4 0 fmt::v11::detail::for_each_codepoint<fmt::v11::detail::compute_width(fmt::v11::basic_string_view<char>)::count_code_points>(fmt::v11::basic_string_view<char>, fmt::v11::detail::compute_width(fmt::v11::basic_string_view<char>)::count_code_points)::{lambda(char const*, char const*)#1}::operator()(char const*, char const*) const
PUBLIC 3b7ac 0 fmt::v11::detail::write_int<fmt::v11::basic_appender<char>, unsigned long, char>(fmt::v11::basic_appender<char>, unsigned long, unsigned int, fmt::v11::format_specs const&, fmt::v11::detail::digit_grouping<char> const&)
PUBLIC 3bd28 0 fmt::v11::detail::write_int<fmt::v11::basic_appender<char>, unsigned __int128, char>(fmt::v11::basic_appender<char>, unsigned __int128, unsigned int, fmt::v11::format_specs const&, fmt::v11::detail::digit_grouping<char> const&)
PUBLIC 3c3b0 0 <.plt ELF section in bitz.customprofiles.android64.so>
STACK CFI INIT 185a0 10 .cfa: sp 0 +
STACK CFI INIT 185b0 8 .cfa: sp 0 +
STACK CFI INIT 185b8 8 .cfa: sp 0 +
STACK CFI INIT 185c0 14 .cfa: sp 0 +
STACK CFI INIT 185d4 1c .cfa: sp 0 +
STACK CFI INIT 185f0 10 .cfa: sp 0 +
STACK CFI INIT 18600 134 .cfa: sp 0 +
STACK CFI INIT 18734 84 .cfa: sp 0 +
STACK CFI INIT 187b8 f4 .cfa: sp 0 +
STACK CFI INIT 188ac a8 .cfa: sp 0 +
STACK CFI INIT 18954 7c .cfa: sp 0 +
STACK CFI INIT 189d0 14 .cfa: sp 0 +
STACK CFI INIT 189e4 40 .cfa: sp 0 +
STACK CFI INIT 18a24 28 .cfa: sp 0 +
STACK CFI INIT 18a4c 190 .cfa: sp 0 +
STACK CFI INIT 18bdc 2c8 .cfa: sp 0 +
STACK CFI INIT 18ea4 8 .cfa: sp 0 +
STACK CFI INIT 18eac 8 .cfa: sp 0 +
STACK CFI INIT 18eb4 44 .cfa: sp 0 +
STACK CFI INIT 18ef8 e8 .cfa: sp 0 +
STACK CFI INIT 18fe0 e8 .cfa: sp 0 +
STACK CFI INIT 190c8 14 .cfa: sp 0 +
STACK CFI INIT 190dc 10 .cfa: sp 0 +
STACK CFI INIT 190ec 10 .cfa: sp 0 +
STACK CFI INIT 190fc f0 .cfa: sp 0 +
STACK CFI INIT 191ec 44 .cfa: sp 0 +
STACK CFI INIT 19230 c .cfa: sp 0 +
STACK CFI INIT 1923c c .cfa: sp 0 +
STACK CFI INIT 19248 2c .cfa: sp 0 +
STACK CFI INIT 19274 280 .cfa: sp 0 +
STACK CFI INIT 194f4 c .cfa: sp 0 +
STACK CFI INIT 19500 120 .cfa: sp 0 +
STACK CFI INIT 19620 488 .cfa: sp 0 +
STACK CFI INIT 19aa8 c48 .cfa: sp 0 +
STACK CFI INIT 1a6f0 134 .cfa: sp 0 +
STACK CFI INIT 1a824 210 .cfa: sp 0 +
STACK CFI INIT 1aa34 38c .cfa: sp 0 +
STACK CFI INIT 1adc0 1c8 .cfa: sp 0 +
STACK CFI INIT 1af88 9bc .cfa: sp 0 +
STACK CFI INIT 1b944 2d4 .cfa: sp 0 +
STACK CFI INIT 1bc18 134 .cfa: sp 0 +
STACK CFI INIT 1bd4c 120 .cfa: sp 0 +
STACK CFI INIT 1be6c 1c8 .cfa: sp 0 +
STACK CFI INIT 1c034 168 .cfa: sp 0 +
STACK CFI INIT 1c19c fc .cfa: sp 0 +
STACK CFI INIT 1c298 30 .cfa: sp 0 +
STACK CFI INIT 1c400 30 .cfa: sp 0 +
STACK CFI INIT 1c430 98 .cfa: sp 0 +
STACK CFI INIT 1c4c8 59c .cfa: sp 0 +
STACK CFI INIT 1ca64 8c .cfa: sp 0 +
STACK CFI INIT 1caf0 30 .cfa: sp 0 +
STACK CFI INIT 1cf5c 1c .cfa: sp 0 +
STACK CFI INIT 1d57c 50 .cfa: sp 0 +
STACK CFI 1d580 .cfa: sp 32 +
STACK CFI 1d588 .cfa: x29 32 + x19: .cfa -16 + ^ .ra: .cfa -24 + ^ x29: .cfa -32 + ^
STACK CFI 1d5a0 .cfa: sp 32 +
STACK CFI 1d5a8 .cfa: sp 0 +
STACK CFI 1d5ac .cfa: x29 32 +
STACK CFI 1d5c0 .cfa: sp 32 +
STACK CFI 1d5c8 .cfa: sp 0 +
STACK CFI INIT 1d640 7c .cfa: sp 0 +
STACK CFI 1d644 .cfa: sp 48 +
STACK CFI 1d650 .cfa: x29 48 + x19: .cfa -8 + ^ x20: .cfa -16 + ^ x21: .cfa -32 + ^ .ra: .cfa -40 + ^ x29: .cfa -48 + ^
STACK CFI 1d69c .cfa: sp 48 +
STACK CFI 1d6a8 .cfa: sp 0 +
STACK CFI 1d6ac .cfa: sp 48 +
STACK CFI 1d6b8 .cfa: sp 0 +
STACK CFI INIT 1d6bc 4 .cfa: sp 0 +
STACK CFI INIT 1d6c0 10 .cfa: sp 0 +
STACK CFI 1d6c4 .cfa: sp 16 +
STACK CFI 1d6c8 .cfa: x29 16 + .ra: .cfa -8 + ^ x29: .cfa -16 + ^
STACK CFI INIT 1d824 34 .cfa: sp 0 +
STACK CFI 1d828 .cfa: sp 16 +
STACK CFI 1d82c .cfa: x29 16 + .ra: .cfa -8 + ^ x29: .cfa -16 + ^
STACK CFI INIT 1d984 80 .cfa: sp 0 +
STACK CFI 1d988 .cfa: sp 48 +
STACK CFI 1d994 .cfa: x29 48 + x19: .cfa -8 + ^ x20: .cfa -16 + ^ x21: .cfa -32 + ^ .ra: .cfa -40 + ^ x29: .cfa -48 + ^
STACK CFI 1d9f4 .cfa: sp 48 +
STACK CFI 1da00 .cfa: sp 0 +
STACK CFI INIT 1da04 24 .cfa: sp 0 +
STACK CFI 1da08 .cfa: sp 32 +
STACK CFI 1da10 .cfa: x29 32 + x19: .cfa -16 + ^ .ra: .cfa -24 + ^ x29: .cfa -32 + ^
STACK CFI 1da1c .cfa: sp 32 +
STACK CFI 1da24 .cfa: sp 0 +
STACK CFI INIT 1dda8 14 .cfa: sp 0 +
STACK CFI 1ddac .cfa: sp 16 +
STACK CFI 1ddb0 .cfa: x29 16 + .ra: .cfa -8 + ^ x29: .cfa -16 + ^
STACK CFI INIT 1de0c 30 .cfa: sp 0 +
STACK CFI 1de10 .cfa: sp 32 +
STACK CFI 1de18 .cfa: x29 32 + x19: .cfa -16 + ^ .ra: .cfa -24 + ^ x29: .cfa -32 + ^
STACK CFI 1de30 .cfa: sp 32 +
STACK CFI 1de38 .cfa: sp 0 +
STACK CFI INIT 1de3c 34 .cfa: sp 0 +
STACK CFI 1de40 .cfa: sp 32 +
STACK CFI 1de48 .cfa: x29 32 + x19: .cfa -16 + ^ .ra: .cfa -24 + ^ x29: .cfa -32 + ^
STACK CFI INIT 1dfe8 148 .cfa: sp 0 +
STACK CFI 1dfec .cfa: sp 48 +
STACK CFI 1dff8 .cfa: x29 48 + x19: .cfa -8 + ^ x20: .cfa -16 + ^ x21: .cfa -32 + ^ .ra: .cfa -40 + ^ x29: .cfa -48 + ^
STACK CFI 1e120 .cfa: sp 48 +
STACK CFI 1e12c .cfa: sp 0 +
STACK CFI INIT 1e358 80 .cfa: sp 0 +
STACK CFI 1e35c .cfa: sp 48 +
STACK CFI 1e368 .cfa: x29 48 + x19: .cfa -8 + ^ x20: .cfa -16 + ^ x21: .cfa -24 + ^ x22: .cfa -32 + ^ .ra: .cfa -40 + ^ x29: .cfa -48 + ^
STACK CFI 1e380 .cfa: sp 48 +
STACK CFI 1e38c .cfa: sp 0 +
STACK CFI 1e390 .cfa: x29 48 +
STACK CFI 1e3c0 .cfa: sp 48 +
STACK CFI 1e3cc .cfa: sp 0 +
STACK CFI 1e3d0 .cfa: x29 48 +
STACK CFI INIT 1e3d8 68 .cfa: sp 0 +
STACK CFI 1e3dc .cfa: sp 32 +
STACK CFI 1e3e4 .cfa: x29 32 + x19: .cfa -8 + ^ x20: .cfa -16 + ^ .ra: .cfa -24 + ^ x29: .cfa -32 + ^
STACK CFI 1e3fc .cfa: sp 32 +
STACK CFI 1e404 .cfa: sp 0 +
STACK CFI 1e408 .cfa: x29 32 +
STACK CFI 1e434 .cfa: sp 32 +
STACK CFI 1e43c .cfa: sp 0 +
STACK CFI INIT 1e440 14 .cfa: sp 0 +
STACK CFI 1e444 .cfa: sp 16 +
STACK CFI 1e448 .cfa: x29 16 + .ra: .cfa -8 + ^ x29: .cfa -16 + ^
STACK CFI INIT 1e454 4 .cfa: sp 0 +
STACK CFI INIT 1e458 14 .cfa: sp 0 +
STACK CFI INIT 1e46c 120 .cfa: sp 0 +
STACK CFI 1e470 .cfa: sp 64 +
STACK CFI 1e480 .cfa: x29 64 + x19: .cfa -8 + ^ x20: .cfa -16 + ^ x21: .cfa -24 + ^ x22: .cfa -32 + ^ x23: .cfa -40 + ^ x24: .cfa -48 + ^ .ra: .cfa -56 + ^ x29: .cfa -64 + ^
STACK CFI 1e578 .cfa: sp 64 +
STACK CFI 1e588 .cfa: sp 0 +
STACK CFI INIT 1e58c d4 .cfa: sp 0 +
STACK CFI 1e590 .cfa: sp 48 +
STACK CFI 1e59c .cfa: x29 48 + x19: .cfa -8 + ^ x20: .cfa -16 + ^ x21: .cfa -32 + ^ .ra: .cfa -40 + ^ x29: .cfa -48 + ^
STACK CFI 1e62c .cfa: sp 48 +
STACK CFI 1e638 .cfa: sp 0 +
STACK CFI 1e63c .cfa: x29 48 +
STACK CFI INIT 1e660 3c8 .cfa: sp 0 +
STACK CFI INIT 1ea28 8c .cfa: sp 0 +
STACK CFI 1ea30 .cfa: sp 32 +
STACK CFI 1ea38 .cfa: x29 32 + x19: .cfa -8 + ^ x20: .cfa -16 + ^ .ra: .cfa -24 + ^ x29: .cfa -32 + ^
STACK CFI 1ea80 .cfa: sp 32 +
STACK CFI 1ea88 .cfa: sp 0 +
STACK CFI 1ea90 .cfa: x29 32 +
STACK CFI INIT 1eab4 31c .cfa: sp 0 +
STACK CFI 1eab8 .cfa: sp 128 +
STACK CFI 1ead4 .cfa: x29 80 + x19: .cfa -8 + ^ x20: .cfa -16 + ^ x21: .cfa -24 + ^ x22: .cfa -32 + ^ x23: .cfa -40 + ^ x24: .cfa -48 + ^ x25: .cfa -64 + ^ .ra: .cfa -72 + ^ x29: .cfa -80 + ^ v8: .cfa -88 + ^ v9: .cfa -96 + ^
STACK CFI 1ec50 .cfa: sp 128 +
STACK CFI 1ec6c .cfa: sp 0 +
STACK CFI 1ec70 .cfa: x29 80 +
STACK CFI INIT 1edd0 48 .cfa: sp 0 +
STACK CFI 1edd4 .cfa: sp 32 +
STACK CFI 1eddc .cfa: x29 32 + x19: .cfa -16 + ^ .ra: .cfa -24 + ^ x29: .cfa -32 + ^
STACK CFI 1edfc .cfa: sp 32 +
STACK CFI 1ee04 .cfa: sp 0 +
STACK CFI 1ee08 .cfa: x29 32 +
STACK CFI 1ee0c .cfa: sp 32 +
STACK CFI 1ee14 .cfa: sp 0 +
STACK CFI INIT 1ee18 50 .cfa: sp 0 +
STACK CFI 1ee1c .cfa: sp 32 +
STACK CFI 1ee24 .cfa: x29 32 + x19: .cfa -16 + ^ .ra: .cfa -24 + ^ x29: .cfa -32 + ^
STACK CFI 1ee3c .cfa: sp 32 +
STACK CFI 1ee44 .cfa: sp 0 +
STACK CFI 1ee48 .cfa: x29 32 +
STACK CFI 1ee5c .cfa: sp 32 +
STACK CFI 1ee64 .cfa: sp 0 +
STACK CFI INIT 1ee68 64 .cfa: sp 0 +
STACK CFI 1ee6c .cfa: sp 32 +
STACK CFI 1ee74 .cfa: x29 32 + x19: .cfa -16 + ^ .ra: .cfa -24 + ^ x29: .cfa -32 + ^
STACK CFI 1eea0 .cfa: sp 32 +
STACK CFI 1eea8 .cfa: sp 0 +
STACK CFI 1eeac .cfa: x29 32 +
STACK CFI 1eec0 .cfa: sp 32 +
STACK CFI 1eec8 .cfa: sp 0 +
STACK CFI INIT 1eecc 178 .cfa: sp 0 +
STACK CFI 1eed0 .cfa: sp 80 +
STACK CFI 1eee4 .cfa: x29 80 + x19: .cfa -8 + ^ x20: .cfa -16 + ^ x21: .cfa -24 + ^ x22: .cfa -32 + ^ x23: .cfa -40 + ^ x24: .cfa -48 + ^ x25: .cfa -56 + ^ x26: .cfa -64 + ^ .ra: .cfa -72 + ^ x29: .cfa -80 + ^
STACK CFI 1f02c .cfa: sp 80 +
STACK CFI 1f040 .cfa: sp 0 +
STACK CFI INIT 1f044 1b0 .cfa: sp 0 +
STACK CFI INIT 1f3b8 8 .cfa: sp 0 +
STACK CFI INIT 1f3c0 5c .cfa: sp 0 +
STACK CFI 1f3c4 .cfa: sp 32 +
STACK CFI 1f3cc .cfa: x29 32 + x19: .cfa -16 + ^ .ra: .cfa -24 + ^ x29: .cfa -32 + ^
STACK CFI 1f410 .cfa: sp 32 +
STACK CFI 1f418 .cfa: sp 0 +
STACK CFI INIT 1f41c 64 .cfa: sp 0 +
STACK CFI 1f420 .cfa: sp 32 +
STACK CFI 1f428 .cfa: x29 32 + x19: .cfa -16 + ^ .ra: .cfa -24 + ^ x29: .cfa -32 + ^
STACK CFI 1f474 .cfa: sp 32 +
STACK CFI 1f47c .cfa: sp 0 +
STACK CFI INIT 1f480 60 .cfa: sp 0 +
STACK CFI 1f484 .cfa: sp 32 +
STACK CFI 1f48c .cfa: x29 32 + x19: .cfa -8 + ^ x20: .cfa -16 + ^ .ra: .cfa -24 + ^ x29: .cfa -32 + ^
STACK CFI 1f4d4 .cfa: sp 32 +
STACK CFI 1f4dc .cfa: sp 0 +
STACK CFI INIT 1f4e0 68 .cfa: sp 0 +
STACK CFI 1f4e4 .cfa: sp 32 +
STACK CFI 1f4ec .cfa: x29 32 + x19: .cfa -8 + ^ x20: .cfa -16 + ^ .ra: .cfa -24 + ^ x29: .cfa -32 + ^
STACK CFI 1f53c .cfa: sp 32 +
STACK CFI 1f544 .cfa: sp 0 +
STACK CFI INIT 1f548 4 .cfa: sp 0 +
STACK CFI INIT 1f54c 4 .cfa: sp 0 +
STACK CFI INIT 1f550 4 .cfa: sp 0 +
STACK CFI INIT 1f554 4 .cfa: sp 0 +
STACK CFI INIT 1f994 1c .cfa: sp 0 +
STACK CFI INIT 2003c 4 .cfa: sp 0 +
STACK CFI INIT 20040 884 .cfa: sp 0 +
STACK CFI 20044 .cfa: sp 240 +
STACK CFI 20068 .cfa: x29 96 + x19: .cfa -8 + ^ x20: .cfa -16 + ^ x21: .cfa -24 + ^ x22: .cfa -32 + ^ x23: .cfa -40 + ^ x24: .cfa -48 + ^ x25: .cfa -56 + ^ x26: .cfa -64 + ^ x27: .cfa -72 + ^ x28: .cfa -80 + ^ .ra: .cfa -88 + ^ x29: .cfa -96 + ^ v8: .cfa -104 + ^ v9: .cfa -112 + ^ v10: .cfa -128 + ^
STACK CFI 20898 .cfa: sp 240 +
STACK CFI 208bc .cfa: sp 0 +
STACK CFI 208c0 .cfa: x29 96 +
STACK CFI INIT 208c4 48 .cfa: sp 0 +
STACK CFI 208c8 .cfa: sp 32 +
STACK CFI 208d0 .cfa: x29 32 + x19: .cfa -16 + ^ .ra: .cfa -24 + ^ x29: .cfa -32 + ^
STACK CFI 208f4 .cfa: sp 32 +
STACK CFI 208fc .cfa: sp 0 +
STACK CFI 20900 .cfa: sp 32 +
STACK CFI 20908 .cfa: sp 0 +
STACK CFI INIT 20a20 98 .cfa: sp 0 +
STACK CFI 20a24 .cfa: sp 304 +
STACK CFI 20a30 .cfa: x29 32 + x19: .cfa -8 + ^ x28: .cfa -16 + ^ .ra: .cfa -24 + ^ x29: .cfa -32 + ^
STACK CFI 20aa4 .cfa: sp 304 +
STACK CFI 20ab0 .cfa: sp 0 +
STACK CFI 20ab4 .cfa: x29 32 +
STACK CFI INIT 20bcc 104 .cfa: sp 0 +
STACK CFI 20bd0 .cfa: sp 64 +
STACK CFI 20be0 .cfa: x29 64 + x19: .cfa -8 + ^ x20: .cfa -16 + ^ x21: .cfa -24 + ^ x22: .cfa -32 + ^ x23: .cfa -48 + ^ .ra: .cfa -56 + ^ x29: .cfa -64 + ^
STACK CFI 20c3c .cfa: sp 64 +
STACK CFI 20c4c .cfa: sp 0 +
STACK CFI 20c50 .cfa: x29 64 +
STACK CFI 20c6c .cfa: sp 64 +
STACK CFI 20c7c .cfa: sp 0 +
STACK CFI 20c80 .cfa: x29 64 +
STACK CFI 20cbc .cfa: sp 64 +
STACK CFI 20ccc .cfa: sp 0 +
STACK CFI INIT 2110c 1c .cfa: sp 0 +
STACK CFI INIT 2177c 4 .cfa: sp 0 +
STACK CFI INIT 22308 2c .cfa: sp 0 +
STACK CFI 2230c .cfa: sp 32 +
STACK CFI 22314 .cfa: x29 32 + x19: .cfa -16 + ^ .ra: .cfa -24 + ^ x29: .cfa -32 + ^
STACK CFI 22328 .cfa: sp 32 +
STACK CFI 22330 .cfa: sp 0 +
STACK CFI INIT 22334 3c .cfa: sp 0 +
STACK CFI 22338 .cfa: sp 32 +
STACK CFI 22340 .cfa: x29 32 + x19: .cfa -16 + ^ .ra: .cfa -24 + ^ x29: .cfa -32 + ^
STACK CFI 2234c .cfa: sp 32 +
STACK CFI 22354 .cfa: sp 0 +
STACK CFI 22358 .cfa: x29 32 +
STACK CFI 22364 .cfa: sp 32 +
STACK CFI 2236c .cfa: sp 0 +
STACK CFI INIT 22edc 1c .cfa: sp 0 +
STACK CFI INIT 23aa4 50 .cfa: sp 0 +
STACK CFI 23aa8 .cfa: sp 32 +
STACK CFI 23ab0 .cfa: x29 32 + x19: .cfa -16 + ^ .ra: .cfa -24 + ^ x29: .cfa -32 + ^
STACK CFI 23ac8 .cfa: sp 32 +
STACK CFI 23ad0 .cfa: sp 0 +
STACK CFI 23ad4 .cfa: x29 32 +
STACK CFI 23ae8 .cfa: sp 32 +
STACK CFI 23af0 .cfa: sp 0 +
STACK CFI INIT 23af4 50 .cfa: sp 0 +
STACK CFI 23af8 .cfa: sp 32 +
STACK CFI 23b00 .cfa: x29 32 + x19: .cfa -16 + ^ .ra: .cfa -24 + ^ x29: .cfa -32 + ^
STACK CFI 23b18 .cfa: sp 32 +
STACK CFI 23b20 .cfa: sp 0 +
STACK CFI 23b24 .cfa: x29 32 +
STACK CFI 23b38 .cfa: sp 32 +
STACK CFI 23b40 .cfa: sp 0 +
STACK CFI INIT 23b44 10 .cfa: sp 0 +
STACK CFI INIT 23b54 30 .cfa: sp 0 +
STACK CFI 23b58 .cfa: sp 32 +
STACK CFI 23b60 .cfa: x29 32 + x19: .cfa -16 + ^ .ra: .cfa -24 + ^ x29: .cfa -32 + ^
STACK CFI 23b78 .cfa: sp 32 +
STACK CFI 23b80 .cfa: sp 0 +
STACK CFI INIT 23b84 c .cfa: sp 0 +
STACK CFI INIT 23b90 4 .cfa: sp 0 +
STACK CFI INIT 23b94 6c .cfa: sp 0 +
STACK CFI 23b98 .cfa: sp 32 +
STACK CFI 23ba0 .cfa: x29 32 + x19: .cfa -8 + ^ x20: .cfa -16 + ^ .ra: .cfa -24 + ^ x29: .cfa -32 + ^
STACK CFI 23bcc .cfa: sp 32 +
STACK CFI 23bd4 .cfa: sp 0 +
STACK CFI 23bd8 .cfa: x29 32 +
STACK CFI 23bf4 .cfa: sp 32 +
STACK CFI 23bfc .cfa: sp 0 +
STACK CFI INIT 23c00 4 .cfa: sp 0 +
STACK CFI INIT 23dfc 14 .cfa: sp 0 +
STACK CFI INIT 23ec0 8 .cfa: sp 0 +
STACK CFI INIT 23ec8 10 .cfa: sp 0 +
STACK CFI INIT 23ed8 30 .cfa: sp 0 +
STACK CFI 23edc .cfa: sp 32 +
STACK CFI 23ee4 .cfa: x29 32 + x19: .cfa -16 + ^ .ra: .cfa -24 + ^ x29: .cfa -32 + ^
STACK CFI 23efc .cfa: sp 32 +
STACK CFI 23f04 .cfa: sp 0 +
STACK CFI INIT 23f08 4 .cfa: sp 0 +
STACK CFI INIT 23f0c 4 .cfa: sp 0 +
STACK CFI INIT 24244 4 .cfa: sp 0 +
STACK CFI INIT 24248 14 .cfa: sp 0 +
STACK CFI INIT 243c4 4 .cfa: sp 0 +
STACK CFI INIT 243c8 14 .cfa: sp 0 +
STACK CFI INIT 24624 4 .cfa: sp 0 +
STACK CFI INIT 24628 4 .cfa: sp 0 +
STACK CFI INIT 2462c 34 .cfa: sp 0 +
STACK CFI 24630 .cfa: sp 32 +
STACK CFI 24638 .cfa: x29 32 + x19: .cfa -16 + ^ .ra: .cfa -24 + ^ x29: .cfa -32 + ^
STACK CFI 24654 .cfa: sp 32 +
STACK CFI 2465c .cfa: sp 0 +
STACK CFI INIT 24660 14 .cfa: sp 0 +
STACK CFI INIT 24674 4 .cfa: sp 0 +
STACK CFI INIT 24678 4 .cfa: sp 0 +
STACK CFI INIT 2467c 14 .cfa: sp 0 +
STACK CFI INIT 24690 1c .cfa: sp 0 +
STACK CFI INIT 246ac c .cfa: sp 0 +
STACK CFI INIT 246b8 50 .cfa: sp 0 +
STACK CFI 246bc .cfa: sp 32 +
STACK CFI 246c4 .cfa: x29 32 + x19: .cfa -16 + ^ .ra: .cfa -24 + ^ x29: .cfa -32 + ^
STACK CFI 246dc .cfa: sp 32 +
STACK CFI 246e4 .cfa: sp 0 +
STACK CFI 246e8 .cfa: x29 32 +
STACK CFI 246fc .cfa: sp 32 +
STACK CFI 24704 .cfa: sp 0 +
STACK CFI INIT 24708 10 .cfa: sp 0 +
STACK CFI INIT 24718 30 .cfa: sp 0 +
STACK CFI 2471c .cfa: sp 32 +
STACK CFI 24724 .cfa: x29 32 + x19: .cfa -16 + ^ .ra: .cfa -24 + ^ x29: .cfa -32 + ^
STACK CFI 2473c .cfa: sp 32 +
STACK CFI 24744 .cfa: sp 0 +
STACK CFI INIT 24748 c .cfa: sp 0 +
STACK CFI INIT 24754 4 .cfa: sp 0 +
STACK CFI INIT 24758 6c .cfa: sp 0 +
STACK CFI 2475c .cfa: sp 32 +
STACK CFI 24764 .cfa: x29 32 + x19: .cfa -8 + ^ x20: .cfa -16 + ^ .ra: .cfa -24 + ^ x29: .cfa -32 + ^
STACK CFI 24790 .cfa: sp 32 +
STACK CFI 24798 .cfa: sp 0 +
STACK CFI 2479c .cfa: x29 32 +
STACK CFI 247b8 .cfa: sp 32 +
STACK CFI 247c0 .cfa: sp 0 +
STACK CFI INIT 247c4 4 .cfa: sp 0 +
STACK CFI INIT 249c0 14 .cfa: sp 0 +
STACK CFI INIT 24a84 8 .cfa: sp 0 +
STACK CFI INIT 24a8c 10 .cfa: sp 0 +
STACK CFI INIT 24a9c 30 .cfa: sp 0 +
STACK CFI 24aa0 .cfa: sp 32 +
STACK CFI 24aa8 .cfa: x29 32 + x19: .cfa -16 + ^ .ra: .cfa -24 + ^ x29: .cfa -32 + ^
STACK CFI 24ac0 .cfa: sp 32 +
STACK CFI 24ac8 .cfa: sp 0 +
STACK CFI INIT 24acc 4 .cfa: sp 0 +
STACK CFI INIT 24ad0 4 .cfa: sp 0 +
STACK CFI INIT 24d94 4 .cfa: sp 0 +
STACK CFI INIT 24d98 14 .cfa: sp 0 +
STACK CFI INIT 24ff4 50 .cfa: sp 0 +
STACK CFI 24ff8 .cfa: sp 32 +
STACK CFI 25000 .cfa: x29 32 + x19: .cfa -16 + ^ .ra: .cfa -24 + ^ x29: .cfa -32 + ^
STACK CFI 25018 .cfa: sp 32 +
STACK CFI 25020 .cfa: sp 0 +
STACK CFI 25024 .cfa: x29 32 +
STACK CFI 25038 .cfa: sp 32 +
STACK CFI 25040 .cfa: sp 0 +
STACK CFI INIT 25044 10 .cfa: sp 0 +
STACK CFI INIT 25054 30 .cfa: sp 0 +
STACK CFI 25058 .cfa: sp 32 +
STACK CFI 25060 .cfa: x29 32 + x19: .cfa -16 + ^ .ra: .cfa -24 + ^ x29: .cfa -32 + ^
STACK CFI 25078 .cfa: sp 32 +
STACK CFI 25080 .cfa: sp 0 +
STACK CFI INIT 25084 c .cfa: sp 0 +
STACK CFI INIT 25090 4 .cfa: sp 0 +
STACK CFI INIT 25094 4 .cfa: sp 0 +
STACK CFI INIT 25098 14 .cfa: sp 0 +
STACK CFI INIT 250ac 4 .cfa: sp 0 +
STACK CFI INIT 25224 5c .cfa: sp 0 +
STACK CFI 25228 .cfa: sp 32 +
STACK CFI 25230 .cfa: x29 32 + x19: .cfa -16 + ^ .ra: .cfa -24 + ^ x29: .cfa -32 + ^
STACK CFI 25274 .cfa: sp 32 +
STACK CFI 2527c .cfa: sp 0 +
STACK CFI INIT 25280 64 .cfa: sp 0 +
STACK CFI 25284 .cfa: sp 32 +
STACK CFI 2528c .cfa: x29 32 + x19: .cfa -16 + ^ .ra: .cfa -24 + ^ x29: .cfa -32 + ^
STACK CFI 252d8 .cfa: sp 32 +
STACK CFI 252e0 .cfa: sp 0 +
STACK CFI INIT 252e4 4 .cfa: sp 0 +
STACK CFI INIT 252e8 4 .cfa: sp 0 +
STACK CFI INIT 252ec 34 .cfa: sp 0 +
STACK CFI 252f0 .cfa: sp 32 +
STACK CFI 252f8 .cfa: x29 32 + x19: .cfa -16 + ^ .ra: .cfa -24 + ^ x29: .cfa -32 + ^
STACK CFI 25314 .cfa: sp 32 +
STACK CFI 2531c .cfa: sp 0 +
STACK CFI INIT 25320 14 .cfa: sp 0 +
STACK CFI INIT 25334 4 .cfa: sp 0 +
STACK CFI INIT 25338 4 .cfa: sp 0 +
STACK CFI INIT 2533c 10 .cfa: sp 0 +
STACK CFI INIT 2534c 1c .cfa: sp 0 +
STACK CFI INIT 25368 c .cfa: sp 0 +
STACK CFI INIT 2567c 4 .cfa: sp 0 +
STACK CFI INIT 25680 48 .cfa: sp 0 +
STACK CFI 25684 .cfa: sp 32 +
STACK CFI 2568c .cfa: x29 32 + x19: .cfa -16 + ^ .ra: .cfa -24 + ^ x29: .cfa -32 + ^
STACK CFI 256ac .cfa: sp 32 +
STACK CFI 256b4 .cfa: sp 0 +
STACK CFI 256b8 .cfa: x29 32 +
STACK CFI 256bc .cfa: sp 32 +
STACK CFI 256c4 .cfa: sp 0 +
STACK CFI INIT 26ba8 28 .cfa: sp 0 +
STACK CFI 26bac .cfa: sp 16 +
STACK CFI 26bb0 .cfa: x29 16 + .ra: .cfa -8 + ^ x29: .cfa -16 + ^
STACK CFI 26bc8 .cfa: sp 16 +
STACK CFI 26bcc .cfa: sp 0 +
STACK CFI INIT 26bd0 24 .cfa: sp 0 +
STACK CFI 26bd4 .cfa: sp 32 +
STACK CFI 26bdc .cfa: x29 32 + x19: .cfa -16 + ^ .ra: .cfa -24 + ^ x29: .cfa -32 + ^
STACK CFI 26be8 .cfa: sp 32 +
STACK CFI 26bf0 .cfa: sp 0 +
STACK CFI INIT 26bf4 8 .cfa: sp 0 +
STACK CFI INIT 26bfc 8 .cfa: sp 0 +
STACK CFI INIT 26c04 8 .cfa: sp 0 +
STACK CFI INIT 26c0c 4 .cfa: sp 0 +
STACK CFI INIT 26c10 7c .cfa: sp 0 +
STACK CFI 26c14 .cfa: sp 32 +
STACK CFI 26c1c .cfa: x29 32 + x19: .cfa -8 + ^ x20: .cfa -16 + ^ .ra: .cfa -24 + ^ x29: .cfa -32 + ^
STACK CFI 26c50 .cfa: sp 32 +
STACK CFI 26c58 .cfa: sp 0 +
STACK CFI 26c5c .cfa: x29 32 +
STACK CFI 26c80 .cfa: sp 32 +
STACK CFI 26c88 .cfa: sp 0 +
STACK CFI INIT 26c8c 7c .cfa: sp 0 +
STACK CFI 26c90 .cfa: sp 32 +
STACK CFI 26c98 .cfa: x29 32 + x19: .cfa -8 + ^ x20: .cfa -16 + ^ .ra: .cfa -24 + ^ x29: .cfa -32 + ^
STACK CFI 26ccc .cfa: sp 32 +
STACK CFI 26cd4 .cfa: sp 0 +
STACK CFI 26cd8 .cfa: x29 32 +
STACK CFI 26cfc .cfa: sp 32 +
STACK CFI 26d04 .cfa: sp 0 +
STACK CFI INIT 26d08 70 .cfa: sp 0 +
STACK CFI 26d0c .cfa: sp 32 +
STACK CFI 26d14 .cfa: x29 32 + x19: .cfa -8 + ^ x20: .cfa -16 + ^ .ra: .cfa -24 + ^ x29: .cfa -32 + ^
STACK CFI 26d44 .cfa: sp 32 +
STACK CFI 26d4c .cfa: sp 0 +
STACK CFI 26d50 .cfa: x29 32 +
STACK CFI 26d6c .cfa: sp 32 +
STACK CFI 26d74 .cfa: sp 0 +
STACK CFI INIT 26d78 80 .cfa: sp 0 +
STACK CFI 26d7c .cfa: sp 32 +
STACK CFI 26d84 .cfa: x29 32 + x19: .cfa -8 + ^ x20: .cfa -16 + ^ .ra: .cfa -24 + ^ x29: .cfa -32 + ^
STACK CFI 26dbc .cfa: sp 32 +
STACK CFI 26dc4 .cfa: sp 0 +
STACK CFI 26dc8 .cfa: x29 32 +
STACK CFI 26dec .cfa: sp 32 +
STACK CFI 26df4 .cfa: sp 0 +
STACK CFI INIT 26df8 4 .cfa: sp 0 +
STACK CFI INIT 26dfc 4 .cfa: sp 0 +
STACK CFI INIT 26e00 8 .cfa: sp 0 +
STACK CFI INIT 26e08 8 .cfa: sp 0 +
STACK CFI INIT 26e10 ac .cfa: sp 0 +
STACK CFI 26e14 .cfa: sp 32 +
STACK CFI 26e1c .cfa: x29 32 + x19: .cfa -8 + ^ x20: .cfa -16 + ^ .ra: .cfa -24 + ^ x29: .cfa -32 + ^
STACK CFI 26e88 .cfa: sp 32 +
STACK CFI 26e90 .cfa: sp 0 +
STACK CFI 26e94 .cfa: x29 32 +
STACK CFI 26eb0 .cfa: sp 32 +
STACK CFI 26eb8 .cfa: sp 0 +
STACK CFI INIT 26ebc bc .cfa: sp 0 +
STACK CFI 26ec0 .cfa: sp 32 +
STACK CFI 26ec8 .cfa: x29 32 + x19: .cfa -8 + ^ x20: .cfa -16 + ^ .ra: .cfa -24 + ^ x29: .cfa -32 + ^
STACK CFI 26f3c .cfa: sp 32 +
STACK CFI 26f44 .cfa: sp 0 +
STACK CFI 26f48 .cfa: x29 32 +
STACK CFI 26f6c .cfa: sp 32 +
STACK CFI 26f74 .cfa: sp 0 +
STACK CFI INIT 26f78 4 .cfa: sp 0 +
STACK CFI INIT 270f8 50 .cfa: sp 0 +
STACK CFI 270fc .cfa: sp 32 +
STACK CFI 27104 .cfa: x29 32 + x19: .cfa -16 + ^ .ra: .cfa -24 + ^ x29: .cfa -32 + ^
STACK CFI 2713c .cfa: sp 32 +
STACK CFI 27144 .cfa: sp 0 +
STACK CFI INIT 27148 98 .cfa: sp 0 +
STACK CFI 2714c .cfa: sp 80 +
STACK CFI 2715c .cfa: x29 48 + x19: .cfa -8 + ^ x20: .cfa -16 + ^ x21: .cfa -24 + ^ x22: .cfa -32 + ^ .ra: .cfa -40 + ^ x29: .cfa -48 + ^
STACK CFI 271c8 .cfa: sp 80 +
STACK CFI 271d8 .cfa: sp 0 +
STACK CFI 271dc .cfa: x29 48 +
STACK CFI INIT 271e0 98 .cfa: sp 0 +
STACK CFI 271e4 .cfa: sp 80 +
STACK CFI 271f4 .cfa: x29 48 + x19: .cfa -8 + ^ x20: .cfa -16 + ^ x21: .cfa -24 + ^ x22: .cfa -32 + ^ .ra: .cfa -40 + ^ x29: .cfa -48 + ^
STACK CFI 27260 .cfa: sp 80 +
STACK CFI 27270 .cfa: sp 0 +
STACK CFI 27274 .cfa: x29 48 +
STACK CFI INIT 27278 bc .cfa: sp 0 +
STACK CFI 2727c .cfa: sp 32 +
STACK CFI 27284 .cfa: x29 32 + x19: .cfa -8 + ^ x20: .cfa -16 + ^ .ra: .cfa -24 + ^ x29: .cfa -32 + ^
STACK CFI 272f8 .cfa: sp 32 +
STACK CFI 27300 .cfa: sp 0 +
STACK CFI 27304 .cfa: x29 32 +
STACK CFI 27328 .cfa: sp 32 +
STACK CFI 27330 .cfa: sp 0 +
STACK CFI INIT 2760c 74 .cfa: sp 0 +
STACK CFI 27610 .cfa: sp 32 +
STACK CFI 27618 .cfa: x29 32 + x19: .cfa -8 + ^ x20: .cfa -16 + ^ .ra: .cfa -24 + ^ x29: .cfa -32 + ^
STACK CFI 27674 .cfa: sp 32 +
STACK CFI 2767c .cfa: sp 0 +
STACK CFI INIT 27680 10 .cfa: sp 0 +
STACK CFI INIT 27690 30 .cfa: sp 0 +
STACK CFI 27694 .cfa: sp 32 +
STACK CFI 2769c .cfa: x29 32 + x19: .cfa -16 + ^ .ra: .cfa -24 + ^ x29: .cfa -32 + ^
STACK CFI 276b4 .cfa: sp 32 +
STACK CFI 276bc .cfa: sp 0 +
STACK CFI INIT 276c0 4 .cfa: sp 0 +
STACK CFI INIT 276c4 4 .cfa: sp 0 +
STACK CFI INIT 276c8 ac .cfa: sp 0 +
STACK CFI 276cc .cfa: sp 32 +
STACK CFI 276d4 .cfa: x29 32 + x19: .cfa -8 + ^ x20: .cfa -16 + ^ .ra: .cfa -24 + ^ x29: .cfa -32 + ^
STACK CFI 27740 .cfa: sp 32 +
STACK CFI 27748 .cfa: sp 0 +
STACK CFI 2774c .cfa: x29 32 +
STACK CFI 27768 .cfa: sp 32 +
STACK CFI 27770 .cfa: sp 0 +
STACK CFI INIT 27774 bc .cfa: sp 0 +
STACK CFI 27778 .cfa: sp 32 +
STACK CFI 27780 .cfa: x29 32 + x19: .cfa -8 + ^ x20: .cfa -16 + ^ .ra: .cfa -24 + ^ x29: .cfa -32 + ^
STACK CFI 277f4 .cfa: sp 32 +
STACK CFI 277fc .cfa: sp 0 +
STACK CFI 27800 .cfa: x29 32 +
STACK CFI 27824 .cfa: sp 32 +
STACK CFI 2782c .cfa: sp 0 +
STACK CFI INIT 27830 4 .cfa: sp 0 +
STACK CFI INIT 279b0 54 .cfa: sp 0 +
STACK CFI 279b4 .cfa: sp 32 +
STACK CFI 279bc .cfa: x29 32 + x19: .cfa -16 + ^ .ra: .cfa -24 + ^ x29: .cfa -32 + ^
STACK CFI 279f8 .cfa: sp 32 +
STACK CFI 27a00 .cfa: sp 0 +
STACK CFI INIT 27a04 98 .cfa: sp 0 +
STACK CFI 27a08 .cfa: sp 80 +
STACK CFI 27a18 .cfa: x29 48 + x19: .cfa -8 + ^ x20: .cfa -16 + ^ x21: .cfa -24 + ^ x22: .cfa -32 + ^ .ra: .cfa -40 + ^ x29: .cfa -48 + ^
STACK CFI 27a84 .cfa: sp 80 +
STACK CFI 27a94 .cfa: sp 0 +
STACK CFI 27a98 .cfa: x29 48 +
STACK CFI INIT 27a9c 98 .cfa: sp 0 +
STACK CFI 27aa0 .cfa: sp 80 +
STACK CFI 27ab0 .cfa: x29 48 + x19: .cfa -8 + ^ x20: .cfa -16 + ^ x21: .cfa -24 + ^ x22: .cfa -32 + ^ .ra: .cfa -40 + ^ x29: .cfa -48 + ^
STACK CFI 27b1c .cfa: sp 80 +
STACK CFI 27b2c .cfa: sp 0 +
STACK CFI 27b30 .cfa: x29 48 +
STACK CFI INIT 27b34 bc .cfa: sp 0 +
STACK CFI 27b38 .cfa: sp 32 +
STACK CFI 27b40 .cfa: x29 32 + x19: .cfa -8 + ^ x20: .cfa -16 + ^ .ra: .cfa -24 + ^ x29: .cfa -32 + ^
STACK CFI 27bb4 .cfa: sp 32 +
STACK CFI 27bbc .cfa: sp 0 +
STACK CFI 27bc0 .cfa: x29 32 +
STACK CFI 27be4 .cfa: sp 32 +
STACK CFI 27bec .cfa: sp 0 +
STACK CFI INIT 27ec8 74 .cfa: sp 0 +
STACK CFI 27ecc .cfa: sp 32 +
STACK CFI 27ed4 .cfa: x29 32 + x19: .cfa -8 + ^ x20: .cfa -16 + ^ .ra: .cfa -24 + ^ x29: .cfa -32 + ^
STACK CFI 27f30 .cfa: sp 32 +
STACK CFI 27f38 .cfa: sp 0 +
STACK CFI INIT 27f3c 10 .cfa: sp 0 +
STACK CFI INIT 27f4c 30 .cfa: sp 0 +
STACK CFI 27f50 .cfa: sp 32 +
STACK CFI 27f58 .cfa: x29 32 + x19: .cfa -16 + ^ .ra: .cfa -24 + ^ x29: .cfa -32 + ^
STACK CFI 27f70 .cfa: sp 32 +
STACK CFI 27f78 .cfa: sp 0 +
STACK CFI INIT 27f7c 4 .cfa: sp 0 +
STACK CFI INIT 27f80 4 .cfa: sp 0 +
STACK CFI INIT 27f84 34 .cfa: sp 0 +
STACK CFI 27f88 .cfa: sp 16 +
STACK CFI 27f8c .cfa: x29 16 + .ra: .cfa -8 + ^ x29: .cfa -16 + ^
STACK CFI INIT 27fb8 138 .cfa: sp 0 +
STACK CFI 27fbc .cfa: sp 80 +
STACK CFI 27fd0 .cfa: x29 64 + x19: .cfa -8 + ^ x20: .cfa -16 + ^ x21: .cfa -24 + ^ x22: .cfa -32 + ^ x23: .cfa -48 + ^ .ra: .cfa -56 + ^ x29: .cfa -64 + ^ v8: .cfa -72 + ^ v9: .cfa -80 + ^
STACK CFI 28060 .cfa: sp 80 +
STACK CFI 28074 .cfa: sp 0 +
STACK CFI 28078 .cfa: x29 64 +
STACK CFI INIT 280f0 218 .cfa: sp 0 +
STACK CFI 280f4 .cfa: sp 96 +
STACK CFI 2810c .cfa: x29 64 + x19: .cfa -8 + ^ x20: .cfa -16 + ^ x21: .cfa -24 + ^ x22: .cfa -32 + ^ x23: .cfa -40 + ^ x24: .cfa -48 + ^ .ra: .cfa -56 + ^ x29: .cfa -64 + ^ v8: .cfa -72 + ^ v9: .cfa -80 + ^
STACK CFI 281c4 .cfa: sp 96 +
STACK CFI 281dc .cfa: sp 0 +
STACK CFI 281e0 .cfa: x29 64 +
STACK CFI INIT 28308 3c .cfa: sp 0 +
STACK CFI 2830c .cfa: sp 32 +
STACK CFI 28314 .cfa: x29 32 + x19: .cfa -16 + ^ .ra: .cfa -24 + ^ x29: .cfa -32 + ^
STACK CFI 28320 .cfa: sp 32 +
STACK CFI 28328 .cfa: sp 0 +
STACK CFI 2832c .cfa: x29 32 +
STACK CFI 28338 .cfa: sp 32 +
STACK CFI 28340 .cfa: sp 0 +
STACK CFI INIT 28660 64 .cfa: sp 0 +
STACK CFI 28664 .cfa: sp 32 +
STACK CFI 2866c .cfa: x29 32 + x19: .cfa -16 + ^ .ra: .cfa -24 + ^ x29: .cfa -32 + ^
STACK CFI 28698 .cfa: sp 32 +
STACK CFI 286a0 .cfa: sp 0 +
STACK CFI 286a4 .cfa: x29 32 +
STACK CFI 286b8 .cfa: sp 32 +
STACK CFI 286c0 .cfa: sp 0 +
STACK CFI INIT 289cc 24 .cfa: sp 0 +
STACK CFI 289d0 .cfa: sp 32 +
STACK CFI 289d8 .cfa: x29 32 + x19: .cfa -16 + ^ .ra: .cfa -24 + ^ x29: .cfa -32 + ^
STACK CFI 289e4 .cfa: sp 32 +
STACK CFI 289ec .cfa: sp 0 +
STACK CFI INIT 289f0 8 .cfa: sp 0 +
STACK CFI INIT 289f8 24 .cfa: sp 0 +
STACK CFI 289fc .cfa: sp 32 +
STACK CFI 28a04 .cfa: x29 32 + x19: .cfa -16 + ^ .ra: .cfa -24 + ^ x29: .cfa -32 + ^
STACK CFI 28a10 .cfa: sp 32 +
STACK CFI 28a18 .cfa: sp 0 +
STACK CFI INIT 28a1c 28 .cfa: sp 0 +
STACK CFI 28a20 .cfa: sp 32 +
STACK CFI 28a28 .cfa: x29 32 + x19: .cfa -16 + ^ .ra: .cfa -24 + ^ x29: .cfa -32 + ^
STACK CFI 28a38 .cfa: sp 32 +
STACK CFI 28a40 .cfa: sp 0 +
STACK CFI INIT 28a44 24 .cfa: sp 0 +
STACK CFI 28a48 .cfa: sp 32 +
STACK CFI 28a50 .cfa: x29 32 + x19: .cfa -16 + ^ .ra: .cfa -24 + ^ x29: .cfa -32 + ^
STACK CFI 28a5c .cfa: sp 32 +
STACK CFI 28a64 .cfa: sp 0 +
STACK CFI INIT 28a68 4 .cfa: sp 0 +
STACK CFI INIT 28cb0 24 .cfa: sp 0 +
STACK CFI 28cb4 .cfa: sp 32 +
STACK CFI 28cbc .cfa: x29 32 + x19: .cfa -16 + ^ .ra: .cfa -24 + ^ x29: .cfa -32 + ^
STACK CFI 28cc8 .cfa: sp 32 +
STACK CFI 28cd0 .cfa: sp 0 +
STACK CFI INIT 29270 4 .cfa: sp 0 +
STACK CFI INIT 29274 14 .cfa: sp 0 +
STACK CFI INIT 29768 110 .cfa: sp 0 +
STACK CFI INIT 29878 134 .cfa: sp 0 +
STACK CFI INIT 299ac c .cfa: sp 0 +
STACK CFI INIT 299b8 24c .cfa: sp 0 +
STACK CFI INIT 29c04 a0 .cfa: sp 0 +
STACK CFI 29c10 .cfa: sp 32 +
STACK CFI 29c68 .cfa: sp 0 +
STACK CFI 29c6c .cfa: sp 32 +
STACK CFI 29c74 .cfa: sp 0 +
STACK CFI 29c78 .cfa: sp 32 +
STACK CFI 29c8c .cfa: sp 0 +
STACK CFI 29c90 .cfa: sp 32 +
STACK CFI 29ca0 .cfa: sp 0 +
STACK CFI INIT 29ca4 38 .cfa: sp 0 +
STACK CFI 29cb0 .cfa: sp 32 +
STACK CFI 29cd8 .cfa: sp 0 +
STACK CFI INIT 29f70 7c .cfa: sp 0 +
STACK CFI 29f74 .cfa: sp 32 +
STACK CFI 29f7c .cfa: x29 32 + x19: .cfa -16 + ^ .ra: .cfa -24 + ^ x29: .cfa -32 + ^
STACK CFI 29fa8 .cfa: sp 32 +
STACK CFI 29fb0 .cfa: sp 0 +
STACK CFI 29fb4 .cfa: x29 32 +
STACK CFI 29fe0 .cfa: sp 32 +
STACK CFI 29fe8 .cfa: sp 0 +
STACK CFI INIT 2a03c 2c .cfa: sp 0 +
STACK CFI 2a040 .cfa: sp 32 +
STACK CFI 2a048 .cfa: x29 32 + x19: .cfa -16 + ^ .ra: .cfa -24 + ^ x29: .cfa -32 + ^
STACK CFI 2a05c .cfa: sp 32 +
STACK CFI 2a064 .cfa: sp 0 +
STACK CFI INIT 2a828 64 .cfa: sp 0 +
STACK CFI 2a82c .cfa: sp 32 +
STACK CFI 2a834 .cfa: x29 32 + x19: .cfa -16 + ^ .ra: .cfa -24 + ^ x29: .cfa -32 + ^
STACK CFI 2a850 .cfa: sp 32 +
STACK CFI 2a858 .cfa: sp 0 +
STACK CFI 2a85c .cfa: x29 32 +
STACK CFI 2a880 .cfa: sp 32 +
STACK CFI 2a888 .cfa: sp 0 +
STACK CFI INIT 2a88c 570 .cfa: sp 0 +
STACK CFI 2a890 .cfa: sp 176 +
STACK CFI 2a8a4 .cfa: x29 64 + x19: .cfa -8 + ^ x20: .cfa -16 + ^ x21: .cfa -24 + ^ x22: .cfa -32 + ^ x23: .cfa -40 + ^ x24: .cfa -48 + ^ .ra: .cfa -56 + ^ x29: .cfa -64 + ^
STACK CFI 2aad4 .cfa: sp 176 +
STACK CFI 2aae8 .cfa: sp 0 +
STACK CFI 2aaec .cfa: x29 64 +
STACK CFI 2ab38 .cfa: sp 176 +
STACK CFI 2ab4c .cfa: sp 0 +
STACK CFI 2ab50 .cfa: x29 64 +
STACK CFI 2ab88 .cfa: sp 176 +
STACK CFI 2ab9c .cfa: sp 0 +
STACK CFI 2aba0 .cfa: x29 64 +
STACK CFI 2abb8 .cfa: sp 176 +
STACK CFI 2abcc .cfa: sp 0 +
STACK CFI 2abd0 .cfa: x29 64 +
STACK CFI 2abf0 .cfa: sp 176 +
STACK CFI 2ac04 .cfa: sp 0 +
STACK CFI 2ac08 .cfa: x29 64 +
STACK CFI 2ac20 .cfa: sp 176 +
STACK CFI 2ac34 .cfa: sp 0 +
STACK CFI 2ac38 .cfa: x29 64 +
STACK CFI 2ac4c .cfa: sp 176 +
STACK CFI 2ac60 .cfa: sp 0 +
STACK CFI 2ac64 .cfa: x29 64 +
STACK CFI 2ac78 .cfa: sp 176 +
STACK CFI 2ac8c .cfa: sp 0 +
STACK CFI 2ac90 .cfa: x29 64 +
STACK CFI 2aca0 .cfa: sp 176 +
STACK CFI 2acb4 .cfa: sp 0 +
STACK CFI 2acb8 .cfa: x29 64 +
STACK CFI 2acc8 .cfa: sp 176 +
STACK CFI 2acdc .cfa: sp 0 +
STACK CFI 2ace0 .cfa: x29 64 +
STACK CFI 2acf8 .cfa: sp 176 +
STACK CFI 2ad0c .cfa: sp 0 +
STACK CFI 2ad10 .cfa: x29 64 +
STACK CFI 2ad24 .cfa: sp 176 +
STACK CFI 2ad38 .cfa: sp 0 +
STACK CFI 2ad3c .cfa: x29 64 +
STACK CFI 2ad54 .cfa: sp 176 +
STACK CFI 2ad68 .cfa: sp 0 +
STACK CFI 2ad6c .cfa: x29 64 +
STACK CFI 2ad98 .cfa: sp 176 +
STACK CFI 2adac .cfa: sp 0 +
STACK CFI 2adb0 .cfa: x29 64 +
STACK CFI 2adc4 .cfa: sp 176 +
STACK CFI 2add8 .cfa: sp 0 +
STACK CFI 2addc .cfa: x29 64 +
STACK CFI INIT 2adfc 228 .cfa: sp 0 +
STACK CFI INIT 2b024 2dc .cfa: sp 0 +
STACK CFI INIT 2b300 53c .cfa: sp 0 +
STACK CFI INIT 2b83c 78 .cfa: sp 0 +
STACK CFI 2b840 .cfa: sp 48 +
STACK CFI 2b84c .cfa: x29 48 + x19: .cfa -8 + ^ x20: .cfa -16 + ^ x21: .cfa -24 + ^ x22: .cfa -32 + ^ .ra: .cfa -40 + ^ x29: .cfa -48 + ^
STACK CFI 2b894 .cfa: sp 48 +
STACK CFI 2b8a0 .cfa: sp 0 +
STACK CFI 2b8a4 .cfa: sp 48 +
STACK CFI 2b8b0 .cfa: sp 0 +
STACK CFI INIT 2b8b4 8c .cfa: sp 0 +
STACK CFI 2b8b8 .cfa: sp 32 +
STACK CFI 2b8c0 .cfa: x29 32 + x19: .cfa -16 + ^ .ra: .cfa -24 + ^ x29: .cfa -32 + ^
STACK CFI 2b8f4 .cfa: sp 32 +
STACK CFI 2b8fc .cfa: sp 0 +
STACK CFI 2b900 .cfa: x29 32 +
STACK CFI 2b934 .cfa: sp 32 +
STACK CFI 2b93c .cfa: sp 0 +
STACK CFI INIT 2b940 24 .cfa: sp 0 +
STACK CFI 2b944 .cfa: sp 32 +
STACK CFI 2b94c .cfa: x29 32 + x19: .cfa -16 + ^ .ra: .cfa -24 + ^ x29: .cfa -32 + ^
STACK CFI 2b958 .cfa: sp 32 +
STACK CFI 2b960 .cfa: sp 0 +
STACK CFI INIT 2b964 150 .cfa: sp 0 +
STACK CFI 2b968 .cfa: sp 48 +
STACK CFI 2b974 .cfa: x29 48 + x19: .cfa -8 + ^ x20: .cfa -16 + ^ x21: .cfa -24 + ^ x22: .cfa -32 + ^ .ra: .cfa -40 + ^ x29: .cfa -48 + ^
STACK CFI 2baa4 .cfa: sp 48 +
STACK CFI 2bab0 .cfa: sp 0 +
STACK CFI INIT 2bab4 68 .cfa: sp 0 +
STACK CFI 2bab8 .cfa: sp 64 +
STACK CFI 2bac4 .cfa: x29 32 + x19: .cfa -16 + ^ .ra: .cfa -24 + ^ x29: .cfa -32 + ^
STACK CFI 2bb08 .cfa: sp 64 +
STACK CFI 2bb14 .cfa: sp 0 +
STACK CFI 2bb18 .cfa: x29 32 +
STACK CFI INIT 2bb1c 90 .cfa: sp 0 +
STACK CFI 2bb20 .cfa: sp 32 +
STACK CFI 2bb28 .cfa: x29 32 + x19: .cfa -8 + ^ x20: .cfa -16 + ^ .ra: .cfa -24 + ^ x29: .cfa -32 + ^
STACK CFI 2bb54 .cfa: sp 32 +
STACK CFI 2bb5c .cfa: sp 0 +
STACK CFI 2bb60 .cfa: x29 32 +
STACK CFI 2bba0 .cfa: sp 32 +
STACK CFI 2bba8 .cfa: sp 0 +
STACK CFI INIT 2bbac ec .cfa: sp 0 +
STACK CFI 2bbb0 .cfa: sp 112 +
STACK CFI 2bbc0 .cfa: x29 48 + x19: .cfa -8 + ^ x20: .cfa -16 + ^ x21: .cfa -32 + ^ .ra: .cfa -40 + ^ x29: .cfa -48 + ^
STACK CFI 2bc80 .cfa: sp 112 +
STACK CFI 2bc90 .cfa: sp 0 +
STACK CFI 2bc94 .cfa: x29 48 +
STACK CFI INIT 2bc98 ec .cfa: sp 0 +
STACK CFI 2bc9c .cfa: sp 112 +
STACK CFI 2bcac .cfa: x29 48 + x19: .cfa -8 + ^ x20: .cfa -16 + ^ x21: .cfa -32 + ^ .ra: .cfa -40 + ^ x29: .cfa -48 + ^
STACK CFI 2bd6c .cfa: sp 112 +
STACK CFI 2bd7c .cfa: sp 0 +
STACK CFI 2bd80 .cfa: x29 48 +
STACK CFI INIT 2bd84 48 .cfa: sp 0 +
STACK CFI 2bd88 .cfa: sp 32 +
STACK CFI 2bd90 .cfa: x29 32 + x19: .cfa -8 + ^ x20: .cfa -16 + ^ .ra: .cfa -24 + ^ x29: .cfa -32 + ^
STACK CFI 2bdb4 .cfa: sp 32 +
STACK CFI 2bdbc .cfa: sp 0 +
STACK CFI 2bdc0 .cfa: x29 32 +
STACK CFI INIT 2bdcc 98 .cfa: sp 0 +
STACK CFI 2bdd0 .cfa: sp 80 +
STACK CFI 2bddc .cfa: x29 32 + x19: .cfa -16 + ^ .ra: .cfa -24 + ^ x29: .cfa -32 + ^
STACK CFI 2be50 .cfa: sp 80 +
STACK CFI 2be5c .cfa: sp 0 +
STACK CFI 2be60 .cfa: x29 32 +
STACK CFI INIT 2be64 260 .cfa: sp 0 +
STACK CFI 2be68 .cfa: sp 112 +
STACK CFI 2be80 .cfa: x29 80 + x19: .cfa -8 + ^ x20: .cfa -16 + ^ x21: .cfa -24 + ^ x22: .cfa -32 + ^ x23: .cfa -40 + ^ x24: .cfa -48 + ^ x25: .cfa -64 + ^ .ra: .cfa -72 + ^ x29: .cfa -80 + ^
STACK CFI 2c064 .cfa: sp 112 +
STACK CFI 2c07c .cfa: sp 0 +
STACK CFI 2c080 .cfa: x29 80 +
STACK CFI INIT 2c0c4 150 .cfa: sp 0 +
STACK CFI 2c0c8 .cfa: sp 48 +
STACK CFI 2c0d4 .cfa: x29 48 + x19: .cfa -8 + ^ x20: .cfa -16 + ^ x21: .cfa -24 + ^ x22: .cfa -32 + ^ .ra: .cfa -40 + ^ x29: .cfa -48 + ^
STACK CFI 2c204 .cfa: sp 48 +
STACK CFI 2c210 .cfa: sp 0 +
STACK CFI INIT 2c214 1e0 .cfa: sp 0 +
STACK CFI 2c218 .cfa: sp 96 +
STACK CFI 2c22c .cfa: x29 64 + x19: .cfa -8 + ^ x20: .cfa -16 + ^ x21: .cfa -24 + ^ x22: .cfa -32 + ^ x23: .cfa -40 + ^ x24: .cfa -48 + ^ .ra: .cfa -56 + ^ x29: .cfa -64 + ^
STACK CFI 2c3ac .cfa: sp 96 +
STACK CFI 2c3c0 .cfa: sp 0 +
STACK CFI 2c3c4 .cfa: x29 64 +
STACK CFI INIT 2c3f4 284 .cfa: sp 0 +
STACK CFI 2c3f8 .cfa: sp 112 +
STACK CFI 2c410 .cfa: x29 80 + x19: .cfa -8 + ^ x20: .cfa -16 + ^ x21: .cfa -24 + ^ x22: .cfa -32 + ^ x23: .cfa -40 + ^ x24: .cfa -48 + ^ x25: .cfa -64 + ^ .ra: .cfa -72 + ^ x29: .cfa -80 + ^
STACK CFI 2c618 .cfa: sp 112 +
STACK CFI 2c630 .cfa: sp 0 +
STACK CFI 2c634 .cfa: x29 80 +
STACK CFI INIT 2c678 208 .cfa: sp 0 +
STACK CFI 2c67c .cfa: sp 96 +
STACK CFI 2c690 .cfa: x29 64 + x19: .cfa -8 + ^ x20: .cfa -16 + ^ x21: .cfa -24 + ^ x22: .cfa -32 + ^ x23: .cfa -40 + ^ x24: .cfa -48 + ^ .ra: .cfa -56 + ^ x29: .cfa -64 + ^
STACK CFI 2c838 .cfa: sp 96 +
STACK CFI 2c84c .cfa: sp 0 +
STACK CFI 2c850 .cfa: x29 64 +
STACK CFI INIT 2c880 360 .cfa: sp 0 +
STACK CFI 2c884 .cfa: sp 160 +
STACK CFI 2c8a0 .cfa: x29 96 + x19: .cfa -8 + ^ x20: .cfa -16 + ^ x21: .cfa -24 + ^ x22: .cfa -32 + ^ x23: .cfa -40 + ^ x24: .cfa -48 + ^ x25: .cfa -56 + ^ x26: .cfa -64 + ^ x27: .cfa -72 + ^ x28: .cfa -80 + ^ .ra: .cfa -88 + ^ x29: .cfa -96 + ^
STACK CFI 2cb6c .cfa: sp 160 +
STACK CFI 2cb88 .cfa: sp 0 +
STACK CFI 2cb8c .cfa: x29 96 +
STACK CFI INIT 2cbe0 314 .cfa: sp 0 +
STACK CFI 2cbe4 .cfa: sp 144 +
STACK CFI 2cc00 .cfa: x29 96 + x19: .cfa -8 + ^ x20: .cfa -16 + ^ x21: .cfa -24 + ^ x22: .cfa -32 + ^ x23: .cfa -40 + ^ x24: .cfa -48 + ^ x25: .cfa -56 + ^ x26: .cfa -64 + ^ x27: .cfa -72 + ^ x28: .cfa -80 + ^ .ra: .cfa -88 + ^ x29: .cfa -96 + ^
STACK CFI 2ce7c .cfa: sp 144 +
STACK CFI 2ce98 .cfa: sp 0 +
STACK CFI 2ce9c .cfa: x29 96 +
STACK CFI INIT 2cef4 290 .cfa: sp 0 +
STACK CFI 2cef8 .cfa: sp 128 +
STACK CFI 2cf10 .cfa: x29 80 + x19: .cfa -8 + ^ x20: .cfa -16 + ^ x21: .cfa -24 + ^ x22: .cfa -32 + ^ x23: .cfa -40 + ^ x24: .cfa -48 + ^ x25: .cfa -56 + ^ x26: .cfa -64 + ^ .ra: .cfa -72 + ^ x29: .cfa -80 + ^
STACK CFI 2d164 .cfa: sp 128 +
STACK CFI 2d17c .cfa: sp 0 +
STACK CFI 2d180 .cfa: x29 80 +
STACK CFI INIT 2d184 ddc .cfa: sp 0 +
STACK CFI 2d188 .cfa: sp 144 +
STACK CFI 2d1a4 .cfa: x29 96 + x19: .cfa -8 + ^ x20: .cfa -16 + ^ x21: .cfa -24 + ^ x22: .cfa -32 + ^ x23: .cfa -40 + ^ x24: .cfa -48 + ^ x25: .cfa -56 + ^ x26: .cfa -64 + ^ x27: .cfa -72 + ^ x28: .cfa -80 + ^ .ra: .cfa -88 + ^ x29: .cfa -96 + ^
STACK CFI 2de38 .cfa: sp 144 +
STACK CFI 2de54 .cfa: sp 0 +
STACK CFI 2de58 .cfa: x29 96 +
STACK CFI INIT 2df60 1d0 .cfa: sp 0 +
STACK CFI 2df64 .cfa: sp 80 +
STACK CFI 2df78 .cfa: x29 80 + x19: .cfa -8 + ^ x20: .cfa -16 + ^ x21: .cfa -24 + ^ x22: .cfa -32 + ^ x23: .cfa -40 + ^ x24: .cfa -48 + ^ x25: .cfa -64 + ^ .ra: .cfa -72 + ^ x29: .cfa -80 + ^
STACK CFI 2e118 .cfa: sp 80 +
STACK CFI 2e12c .cfa: sp 0 +
STACK CFI INIT 2e130 23c .cfa: sp 0 +
STACK CFI 2e134 .cfa: sp 112 +
STACK CFI 2e148 .cfa: x29 64 + x19: .cfa -8 + ^ x20: .cfa -16 + ^ x21: .cfa -24 + ^ x22: .cfa -32 + ^ x23: .cfa -40 + ^ x24: .cfa -48 + ^ .ra: .cfa -56 + ^ x29: .cfa -64 + ^
STACK CFI 2e324 .cfa: sp 112 +
STACK CFI 2e338 .cfa: sp 0 +
STACK CFI 2e33c .cfa: x29 64 +
STACK CFI INIT 2e36c 30c .cfa: sp 0 +
STACK CFI 2e370 .cfa: sp 80 +
STACK CFI 2e384 .cfa: x29 64 + x19: .cfa -8 + ^ x20: .cfa -16 + ^ x21: .cfa -24 + ^ x22: .cfa -32 + ^ x23: .cfa -40 + ^ x24: .cfa -48 + ^ .ra: .cfa -56 + ^ x29: .cfa -64 + ^
STACK CFI 2e500 .cfa: sp 80 +
STACK CFI 2e514 .cfa: sp 0 +
STACK CFI 2e518 .cfa: x29 64 +
STACK CFI INIT 2e678 178 .cfa: sp 0 +
STACK CFI 2e67c .cfa: sp 80 +
STACK CFI 2e690 .cfa: x29 64 + x19: .cfa -8 + ^ x20: .cfa -16 + ^ x21: .cfa -24 + ^ x22: .cfa -32 + ^ x23: .cfa -40 + ^ x24: .cfa -48 + ^ .ra: .cfa -56 + ^ x29: .cfa -64 + ^
STACK CFI 2e7d4 .cfa: sp 80 +
STACK CFI 2e7e8 .cfa: sp 0 +
STACK CFI 2e7ec .cfa: x29 64 +
STACK CFI INIT 2e7f0 178 .cfa: sp 0 +
STACK CFI 2e7f4 .cfa: sp 80 +
STACK CFI 2e808 .cfa: x29 64 + x19: .cfa -8 + ^ x20: .cfa -16 + ^ x21: .cfa -24 + ^ x22: .cfa -32 + ^ x23: .cfa -40 + ^ x24: .cfa -48 + ^ .ra: .cfa -56 + ^ x29: .cfa -64 + ^
STACK CFI 2e94c .cfa: sp 80 +
STACK CFI 2e960 .cfa: sp 0 +
STACK CFI 2e964 .cfa: x29 64 +
STACK CFI INIT 2e968 240 .cfa: sp 0 +
STACK CFI 2e96c .cfa: sp 96 +
STACK CFI 2e984 .cfa: x29 96 + x19: .cfa -8 + ^ x20: .cfa -16 + ^ x21: .cfa -24 + ^ x22: .cfa -32 + ^ x23: .cfa -40 + ^ x24: .cfa -48 + ^ x25: .cfa -56 + ^ x26: .cfa -64 + ^ x27: .cfa -72 + ^ x28: .cfa -80 + ^ .ra: .cfa -88 + ^ x29: .cfa -96 + ^
STACK CFI 2eb8c .cfa: sp 96 +
STACK CFI 2eba4 .cfa: sp 0 +
STACK CFI INIT 2f81c 154 .cfa: sp 0 +
STACK CFI 2f820 .cfa: sp 96 +
STACK CFI 2f834 .cfa: x29 64 + x19: .cfa -8 + ^ x20: .cfa -16 + ^ x21: .cfa -24 + ^ x22: .cfa -32 + ^ x23: .cfa -48 + ^ .ra: .cfa -56 + ^ x29: .cfa -64 + ^
STACK CFI 2f914 .cfa: sp 96 +
STACK CFI 2f928 .cfa: sp 0 +
STACK CFI 2f92c .cfa: x29 64 +
STACK CFI INIT 2fbdc 44 .cfa: sp 0 +
STACK CFI 2fbe0 .cfa: sp 32 +
STACK CFI 2fbe8 .cfa: x29 32 + x19: .cfa -16 + ^ .ra: .cfa -24 + ^ x29: .cfa -32 + ^
STACK CFI 2fc04 .cfa: sp 32 +
STACK CFI 2fc0c .cfa: sp 0 +
STACK CFI 2fc10 .cfa: x29 32 +
STACK CFI 2fc14 .cfa: sp 32 +
STACK CFI 2fc1c .cfa: sp 0 +
STACK CFI INIT 2fc20 1d0 .cfa: sp 0 +
STACK CFI 2fc24 .cfa: sp 64 +
STACK CFI 2fc34 .cfa: x29 64 + x19: .cfa -8 + ^ x20: .cfa -16 + ^ x21: .cfa -24 + ^ x22: .cfa -32 + ^ x23: .cfa -40 + ^ x24: .cfa -48 + ^ .ra: .cfa -56 + ^ x29: .cfa -64 + ^
STACK CFI 2fcf4 .cfa: sp 64 +
STACK CFI 2fd04 .cfa: sp 0 +
STACK CFI 2fd08 .cfa: x29 64 +
STACK CFI INIT 2fdf0 17c .cfa: sp 0 +
STACK CFI INIT 2ff6c ac .cfa: sp 0 +
STACK CFI 2ff70 .cfa: sp 64 +
STACK CFI 2ff80 .cfa: x29 64 + x19: .cfa -8 + ^ x20: .cfa -16 + ^ x21: .cfa -24 + ^ x22: .cfa -32 + ^ x23: .cfa -48 + ^ .ra: .cfa -56 + ^ x29: .cfa -64 + ^
STACK CFI 2fffc .cfa: sp 64 +
STACK CFI 3000c .cfa: sp 0 +
STACK CFI 30010 .cfa: x29 64 +
STACK CFI INIT 30018 110 .cfa: sp 0 +
STACK CFI 3001c .cfa: sp 64 +
STACK CFI 3002c .cfa: x29 64 + x19: .cfa -8 + ^ x20: .cfa -16 + ^ x21: .cfa -24 + ^ x22: .cfa -32 + ^ x23: .cfa -40 + ^ x24: .cfa -48 + ^ .ra: .cfa -56 + ^ x29: .cfa -64 + ^
STACK CFI 3010c .cfa: sp 64 +
STACK CFI 3011c .cfa: sp 0 +
STACK CFI 30120 .cfa: x29 64 +
STACK CFI INIT 304e0 a0 .cfa: sp 0 +
STACK CFI 304e4 .cfa: sp 48 +
STACK CFI 304f0 .cfa: x29 48 + x19: .cfa -8 + ^ x20: .cfa -16 + ^ x21: .cfa -24 + ^ x22: .cfa -32 + ^ .ra: .cfa -40 + ^ x29: .cfa -48 + ^
STACK CFI 3055c .cfa: sp 48 +
STACK CFI 30568 .cfa: sp 0 +
STACK CFI 3056c .cfa: sp 48 +
STACK CFI 30578 .cfa: sp 0 +
STACK CFI 3057c .cfa: x29 48 +
STACK CFI INIT 31234 158 .cfa: sp 0 +
STACK CFI 31238 .cfa: sp 96 +
STACK CFI 3124c .cfa: x29 64 + x19: .cfa -8 + ^ x20: .cfa -16 + ^ x21: .cfa -24 + ^ x22: .cfa -32 + ^ x23: .cfa -48 + ^ .ra: .cfa -56 + ^ x29: .cfa -64 + ^
STACK CFI 31330 .cfa: sp 96 +
STACK CFI 31344 .cfa: sp 0 +
STACK CFI 31348 .cfa: x29 64 +
STACK CFI INIT 3138c 190 .cfa: sp 0 +
STACK CFI INIT 32018 1dc .cfa: sp 0 +
STACK CFI 3201c .cfa: sp 80 +
STACK CFI 32030 .cfa: x29 80 + x19: .cfa -8 + ^ x20: .cfa -16 + ^ x21: .cfa -24 + ^ x22: .cfa -32 + ^ x23: .cfa -40 + ^ x24: .cfa -48 + ^ x25: .cfa -64 + ^ .ra: .cfa -72 + ^ x29: .cfa -80 + ^
STACK CFI 321dc .cfa: sp 80 +
STACK CFI 321f0 .cfa: sp 0 +
STACK CFI INIT 33624 124 .cfa: sp 0 +
STACK CFI 33654 .cfa: sp 32 +
STACK CFI 3365c .cfa: x29 32 + x19: .cfa -8 + ^ x20: .cfa -16 + ^ .ra: .cfa -24 + ^ x29: .cfa -32 + ^
STACK CFI 3373c .cfa: sp 32 +
STACK CFI 33744 .cfa: sp 0 +
STACK CFI INIT 33ea4 320 .cfa: sp 0 +
STACK CFI 33ea8 .cfa: sp 64 +
STACK CFI 33eb8 .cfa: x29 64 + x19: .cfa -8 + ^ x20: .cfa -16 + ^ x21: .cfa -24 + ^ x22: .cfa -32 + ^ x23: .cfa -40 + ^ x24: .cfa -48 + ^ .ra: .cfa -56 + ^ x29: .cfa -64 + ^
STACK CFI 33f34 .cfa: sp 64 +
STACK CFI 33f44 .cfa: sp 0 +
STACK CFI 33f48 .cfa: x29 64 +
STACK CFI 3411c .cfa: sp 64 +
STACK CFI 3412c .cfa: sp 0 +
STACK CFI 34130 .cfa: x29 64 +
STACK CFI 34140 .cfa: sp 64 +
STACK CFI 34150 .cfa: sp 0 +
STACK CFI 34154 .cfa: x29 64 +
STACK CFI INIT 341c4 a0 .cfa: sp 0 +
STACK CFI 341c8 .cfa: sp 48 +
STACK CFI 341d4 .cfa: x29 48 + x19: .cfa -8 + ^ x20: .cfa -16 + ^ x21: .cfa -24 + ^ x22: .cfa -32 + ^ .ra: .cfa -40 + ^ x29: .cfa -48 + ^
STACK CFI 34240 .cfa: sp 48 +
STACK CFI 3424c .cfa: sp 0 +
STACK CFI 34250 .cfa: sp 48 +
STACK CFI 3425c .cfa: sp 0 +
STACK CFI 34260 .cfa: x29 48 +
STACK CFI INIT 35114 160 .cfa: sp 0 +
STACK CFI 35118 .cfa: sp 64 +
STACK CFI 35128 .cfa: x29 64 + x19: .cfa -8 + ^ x20: .cfa -16 + ^ x21: .cfa -24 + ^ x22: .cfa -32 + ^ x23: .cfa -48 + ^ .ra: .cfa -56 + ^ x29: .cfa -64 + ^
STACK CFI 35220 .cfa: sp 64 +
STACK CFI 35230 .cfa: sp 0 +
STACK CFI 35234 .cfa: x29 64 +
STACK CFI INIT 35274 214 .cfa: sp 0 +
STACK CFI 35278 .cfa: sp 128 +
STACK CFI 35294 .cfa: x29 96 + x19: .cfa -8 + ^ x20: .cfa -16 + ^ x21: .cfa -24 + ^ x22: .cfa -32 + ^ x23: .cfa -40 + ^ x24: .cfa -48 + ^ x25: .cfa -56 + ^ x26: .cfa -64 + ^ x27: .cfa -80 + ^ .ra: .cfa -88 + ^ x29: .cfa -96 + ^
STACK CFI 35410 .cfa: sp 128 +
STACK CFI 3542c .cfa: sp 0 +
STACK CFI 35430 .cfa: x29 96 +
STACK CFI INIT 37124 290 .cfa: sp 0 +
STACK CFI 37128 .cfa: sp 16 +
STACK CFI 3712c .cfa: x29 16 + .ra: .cfa -8 + ^ x29: .cfa -16 + ^
STACK CFI 371b8 .cfa: sp 16 +
STACK CFI 371bc .cfa: sp 0 +
STACK CFI 371c0 .cfa: x29 16 +
STACK CFI 37210 .cfa: sp 16 +
STACK CFI 37214 .cfa: sp 0 +
STACK CFI 37218 .cfa: x29 16 +
STACK CFI 3737c .cfa: sp 16 +
STACK CFI 37380 .cfa: sp 0 +
STACK CFI 37384 .cfa: x29 16 +
STACK CFI INIT 373b4 158 .cfa: sp 0 +
STACK CFI 373b8 .cfa: sp 112 +
STACK CFI 373d4 .cfa: x29 96 + x19: .cfa -8 + ^ x20: .cfa -16 + ^ x21: .cfa -24 + ^ x22: .cfa -32 + ^ x23: .cfa -40 + ^ x24: .cfa -48 + ^ x25: .cfa -56 + ^ x26: .cfa -64 + ^ x27: .cfa -72 + ^ x28: .cfa -80 + ^ .ra: .cfa -88 + ^ x29: .cfa -96 + ^
STACK CFI 374bc .cfa: sp 112 +
STACK CFI 374c0 .cfa: x29 96 +
STACK CFI 374c8 .cfa: sp 112 +
STACK CFI 374e4 .cfa: sp 0 +
STACK CFI 374e8 .cfa: x29 96 +
STACK CFI 37508 .cfa: sp 112 +
STACK CFI INIT 3750c e54 .cfa: sp 0 +
STACK CFI 37510 .cfa: sp 192 +
STACK CFI 3752c .cfa: x29 96 + x19: .cfa -8 + ^ x20: .cfa -16 + ^ x21: .cfa -24 + ^ x22: .cfa -32 + ^ x23: .cfa -40 + ^ x24: .cfa -48 + ^ x25: .cfa -56 + ^ x26: .cfa -64 + ^ x27: .cfa -72 + ^ x28: .cfa -80 + ^ .ra: .cfa -88 + ^ x29: .cfa -96 + ^
STACK CFI 38248 .cfa: sp 192 +
STACK CFI 38264 .cfa: sp 0 +
STACK CFI 38268 .cfa: x29 96 +
STACK CFI INIT 38360 1068 .cfa: sp 0 +
STACK CFI 38364 .cfa: sp 288 +
STACK CFI 38380 .cfa: x29 96 + x19: .cfa -8 + ^ x20: .cfa -16 + ^ x21: .cfa -24 + ^ x22: .cfa -32 + ^ x23: .cfa -40 + ^ x24: .cfa -48 + ^ x25: .cfa -56 + ^ x26: .cfa -64 + ^ x27: .cfa -72 + ^ x28: .cfa -80 + ^ .ra: .cfa -88 + ^ x29: .cfa -96 + ^
STACK CFI 39110 .cfa: sp 288 +
STACK CFI 3912c .cfa: sp 0 +
STACK CFI 39130 .cfa: x29 96 +
STACK CFI INIT 393c8 520 .cfa: sp 0 +
STACK CFI 393cc .cfa: sp 144 +
STACK CFI 393e8 .cfa: x29 96 + x19: .cfa -8 + ^ x20: .cfa -16 + ^ x21: .cfa -24 + ^ x22: .cfa -32 + ^ x23: .cfa -40 + ^ x24: .cfa -48 + ^ x25: .cfa -56 + ^ x26: .cfa -64 + ^ x27: .cfa -72 + ^ x28: .cfa -80 + ^ .ra: .cfa -88 + ^ x29: .cfa -96 + ^
STACK CFI 398c4 .cfa: sp 144 +
STACK CFI 398e0 .cfa: sp 0 +
STACK CFI 398e4 .cfa: x29 96 +
STACK CFI INIT 3a288 136c .cfa: sp 0 +
STACK CFI 3a28c .cfa: sp 224 +
STACK CFI 3a2a8 .cfa: x29 96 + x19: .cfa -8 + ^ x20: .cfa -16 + ^ x21: .cfa -24 + ^ x22: .cfa -32 + ^ x23: .cfa -40 + ^ x24: .cfa -48 + ^ x25: .cfa -56 + ^ x26: .cfa -64 + ^ x27: .cfa -72 + ^ x28: .cfa -80 + ^ .ra: .cfa -88 + ^ x29: .cfa -96 + ^
STACK CFI 3b5d0 .cfa: sp 224 +
STACK CFI 3b5ec .cfa: sp 0 +
STACK CFI 3b5f0 .cfa: x29 96 +
STACK CFI INIT 3b5f4 1b8 .cfa: sp 0 +
STACK CFI INIT 1cb20 43c .cfa: sp 0 +
STACK CFI 1cb24 .cfa: sp 224 +
STACK CFI 1cb40 .cfa: x29 96 + x19: .cfa -8 + ^ x20: .cfa -16 + ^ x21: .cfa -24 + ^ x22: .cfa -32 + ^ x23: .cfa -40 + ^ x24: .cfa -48 + ^ x25: .cfa -56 + ^ x26: .cfa -64 + ^ x27: .cfa -72 + ^ x28: .cfa -80 + ^ .ra: .cfa -88 + ^ x29: .cfa -96 + ^
STACK CFI 1ce54 .cfa: sp 224 +
STACK CFI 1ce70 .cfa: sp 0 +
STACK CFI 1ce74 .cfa: x29 96 +
STACK CFI INIT 1cf78 604 .cfa: sp 0 +
STACK CFI 1cf7c .cfa: sp 288 +
STACK CFI 1cf98 .cfa: x29 96 + x19: .cfa -8 + ^ x20: .cfa -16 + ^ x21: .cfa -24 + ^ x22: .cfa -32 + ^ x23: .cfa -40 + ^ x24: .cfa -48 + ^ x25: .cfa -56 + ^ x26: .cfa -64 + ^ x28: .cfa -80 + ^ .ra: .cfa -88 + ^ x29: .cfa -96 + ^
STACK CFI 1d3a8 .cfa: sp 288 +
STACK CFI 1d3c4 .cfa: sp 0 +
STACK CFI 1d3c8 .cfa: x29 96 +
STACK CFI INIT 1d5cc 74 .cfa: sp 0 +
STACK CFI 1d5d0 .cfa: sp 48 +
STACK CFI 1d5dc .cfa: x29 32 + x19: .cfa -8 + ^ x20: .cfa -16 + ^ .ra: .cfa -24 + ^ x29: .cfa -32 + ^
STACK CFI 1d628 .cfa: sp 48 +
STACK CFI 1d634 .cfa: sp 0 +
STACK CFI 1d638 .cfa: x29 32 +
STACK CFI INIT 1d6d0 154 .cfa: sp 0 +
STACK CFI 1d6d4 .cfa: sp 384 +
STACK CFI 1d6e8 .cfa: x29 64 + x19: .cfa -8 + ^ x20: .cfa -16 + ^ x21: .cfa -24 + ^ x22: .cfa -32 + ^ x23: .cfa -40 + ^ x28: .cfa -48 + ^ .ra: .cfa -56 + ^ x29: .cfa -64 + ^
STACK CFI 1d7cc .cfa: sp 384 +
STACK CFI 1d7e0 .cfa: sp 0 +
STACK CFI 1d7e4 .cfa: x29 64 +
STACK CFI INIT 1d858 12c .cfa: sp 0 +
STACK CFI 1d85c .cfa: sp 80 +
STACK CFI 1d870 .cfa: x29 80 + x19: .cfa -8 + ^ x20: .cfa -16 + ^ x21: .cfa -24 + ^ x22: .cfa -32 + ^ x23: .cfa -40 + ^ x24: .cfa -48 + ^ x25: .cfa -56 + ^ x26: .cfa -64 + ^ .ra: .cfa -72 + ^ x29: .cfa -80 + ^
STACK CFI 1d938 .cfa: sp 80 +
STACK CFI 1d94c .cfa: sp 0 +
STACK CFI 1d950 .cfa: x29 80 +
STACK CFI INIT 1da28 1a4 .cfa: sp 0 +
STACK CFI 1da2c .cfa: sp 112 +
STACK CFI 1da44 .cfa: x29 80 + x19: .cfa -8 + ^ x20: .cfa -16 + ^ x21: .cfa -24 + ^ x22: .cfa -32 + ^ x23: .cfa -40 + ^ x24: .cfa -48 + ^ x25: .cfa -56 + ^ x26: .cfa -64 + ^ .ra: .cfa -72 + ^ x29: .cfa -80 + ^
STACK CFI 1db34 .cfa: sp 112 +
STACK CFI 1db4c .cfa: sp 0 +
STACK CFI 1db50 .cfa: x29 80 +
STACK CFI INIT 1dbcc 1dc .cfa: sp 0 +
STACK CFI 1dbd0 .cfa: sp 128 +
STACK CFI 1dbec .cfa: x29 96 + x19: .cfa -8 + ^ x20: .cfa -16 + ^ x21: .cfa -24 + ^ x22: .cfa -32 + ^ x23: .cfa -40 + ^ x24: .cfa -48 + ^ x25: .cfa -56 + ^ x26: .cfa -64 + ^ x27: .cfa -80 + ^ .ra: .cfa -88 + ^ x29: .cfa -96 + ^
STACK CFI 1dd58 .cfa: sp 128 +
STACK CFI 1dd74 .cfa: sp 0 +
STACK CFI 1dd78 .cfa: x29 96 +
STACK CFI INIT 1ddbc 50 .cfa: sp 0 +
STACK CFI 1ddc0 .cfa: sp 32 +
STACK CFI 1ddc8 .cfa: x29 32 + x19: .cfa -8 + ^ x20: .cfa -16 + ^ .ra: .cfa -24 + ^ x29: .cfa -32 + ^
STACK CFI INIT 1de70 178 .cfa: sp 0 +
STACK CFI 1de74 .cfa: sp 80 +
STACK CFI 1de88 .cfa: x29 80 + x19: .cfa -8 + ^ x20: .cfa -16 + ^ x21: .cfa -24 + ^ x22: .cfa -32 + ^ x23: .cfa -40 + ^ x24: .cfa -48 + ^ x25: .cfa -64 + ^ .ra: .cfa -72 + ^ x29: .cfa -80 + ^
STACK CFI 1dfb4 .cfa: sp 80 +
STACK CFI 1dfc8 .cfa: sp 0 +
STACK CFI 1dfcc .cfa: x29 80 +
STACK CFI INIT 1e130 228 .cfa: sp 0 +
STACK CFI 1e134 .cfa: sp 128 +
STACK CFI 1e14c .cfa: x29 80 + x19: .cfa -8 + ^ x20: .cfa -16 + ^ x21: .cfa -24 + ^ x22: .cfa -32 + ^ x23: .cfa -40 + ^ x24: .cfa -48 + ^ x25: .cfa -64 + ^ .ra: .cfa -72 + ^ x29: .cfa -80 + ^
STACK CFI 1e2e8 .cfa: sp 128 +
STACK CFI 1e300 .cfa: sp 0 +
STACK CFI 1e304 .cfa: x29 80 +
STACK CFI INIT 1f1f4 c8 .cfa: sp 0 +
STACK CFI 1f1f8 .cfa: sp 32 +
STACK CFI 1f200 .cfa: x29 32 + x19: .cfa -8 + ^ x20: .cfa -16 + ^ .ra: .cfa -24 + ^ x29: .cfa -32 + ^
STACK CFI 1f234 .cfa: sp 32 +
STACK CFI 1f23c .cfa: sp 0 +
STACK CFI 1f240 .cfa: x29 32 +
STACK CFI 1f244 .cfa: sp 32 +
STACK CFI 1f24c .cfa: sp 0 +
STACK CFI 1f250 .cfa: x29 32 +
STACK CFI INIT 1f2bc fc .cfa: sp 0 +
STACK CFI 1f2c0 .cfa: sp 32 +
STACK CFI 1f2c8 .cfa: x29 32 + x19: .cfa -8 + ^ x20: .cfa -16 + ^ .ra: .cfa -24 + ^ x29: .cfa -32 + ^
STACK CFI 1f37c .cfa: sp 32 +
STACK CFI 1f384 .cfa: sp 0 +
STACK CFI 1f388 .cfa: x29 32 +
STACK CFI INIT 1f558 43c .cfa: sp 0 +
STACK CFI 1f55c .cfa: sp 224 +
STACK CFI 1f578 .cfa: x29 96 + x19: .cfa -8 + ^ x20: .cfa -16 + ^ x21: .cfa -24 + ^ x22: .cfa -32 + ^ x23: .cfa -40 + ^ x24: .cfa -48 + ^ x25: .cfa -56 + ^ x26: .cfa -64 + ^ x27: .cfa -72 + ^ x28: .cfa -80 + ^ .ra: .cfa -88 + ^ x29: .cfa -96 + ^
STACK CFI 1f88c .cfa: sp 224 +
STACK CFI 1f8a8 .cfa: sp 0 +
STACK CFI 1f8ac .cfa: x29 96 +
STACK CFI INIT 1f9b0 68c .cfa: sp 0 +
STACK CFI 1f9b4 .cfa: sp 304 +
STACK CFI 1f9d0 .cfa: x29 96 + x19: .cfa -8 + ^ x20: .cfa -16 + ^ x21: .cfa -24 + ^ x22: .cfa -32 + ^ x23: .cfa -40 + ^ x24: .cfa -48 + ^ x25: .cfa -56 + ^ x26: .cfa -64 + ^ x27: .cfa -72 + ^ x28: .cfa -80 + ^ .ra: .cfa -88 + ^ x29: .cfa -96 + ^
STACK CFI 1fe4c .cfa: sp 304 +
STACK CFI 1fe68 .cfa: sp 0 +
STACK CFI 1fe6c .cfa: x29 96 +
STACK CFI INIT 2090c 114 .cfa: sp 0 +
STACK CFI 20910 .cfa: sp 80 +
STACK CFI 20920 .cfa: x29 48 + x19: .cfa -8 + ^ x20: .cfa -16 + ^ x21: .cfa -24 + ^ x22: .cfa -32 + ^ .ra: .cfa -40 + ^ x29: .cfa -48 + ^
STACK CFI 20a04 .cfa: sp 80 +
STACK CFI 20a14 .cfa: sp 0 +
STACK CFI 20a18 .cfa: x29 48 +
STACK CFI INIT 20ab8 114 .cfa: sp 0 +
STACK CFI 20abc .cfa: sp 80 +
STACK CFI 20acc .cfa: x29 48 + x19: .cfa -8 + ^ x20: .cfa -16 + ^ x21: .cfa -24 + ^ x22: .cfa -32 + ^ .ra: .cfa -40 + ^ x29: .cfa -48 + ^
STACK CFI 20bb0 .cfa: sp 80 +
STACK CFI 20bc0 .cfa: sp 0 +
STACK CFI 20bc4 .cfa: x29 48 +
STACK CFI INIT 20cd0 43c .cfa: sp 0 +
STACK CFI 20cd4 .cfa: sp 224 +
STACK CFI 20cf0 .cfa: x29 96 + x19: .cfa -8 + ^ x20: .cfa -16 + ^ x21: .cfa -24 + ^ x22: .cfa -32 + ^ x23: .cfa -40 + ^ x24: .cfa -48 + ^ x25: .cfa -56 + ^ x26: .cfa -64 + ^ x27: .cfa -72 + ^ x28: .cfa -80 + ^ .ra: .cfa -88 + ^ x29: .cfa -96 + ^
STACK CFI 21004 .cfa: sp 224 +
STACK CFI 21020 .cfa: sp 0 +
STACK CFI 21024 .cfa: x29 96 +
STACK CFI INIT 21128 654 .cfa: sp 0 +
STACK CFI 2112c .cfa: sp 288 +
STACK CFI 21148 .cfa: x29 96 + x19: .cfa -8 + ^ x20: .cfa -16 + ^ x21: .cfa -24 + ^ x22: .cfa -32 + ^ x23: .cfa -40 + ^ x24: .cfa -48 + ^ x25: .cfa -56 + ^ x26: .cfa -64 + ^ x27: .cfa -72 + ^ x28: .cfa -80 + ^ .ra: .cfa -88 + ^ x29: .cfa -96 + ^
STACK CFI 215a4 .cfa: sp 288 +
STACK CFI 215c0 .cfa: sp 0 +
STACK CFI 215c4 .cfa: x29 96 +
STACK CFI INIT 21780 b88 .cfa: sp 0 +
STACK CFI 21784 .cfa: sp 240 +
STACK CFI 217a4 .cfa: x29 96 + x19: .cfa -8 + ^ x20: .cfa -16 + ^ x21: .cfa -24 + ^ x22: .cfa -32 + ^ x23: .cfa -40 + ^ x24: .cfa -48 + ^ x25: .cfa -56 + ^ x26: .cfa -64 + ^ x27: .cfa -80 + ^ .ra: .cfa -88 + ^ x29: .cfa -96 + ^ v8: .cfa -104 + ^ v9: .cfa -112 + ^
STACK CFI 222a8 .cfa: sp 240 +
STACK CFI 222c8 .cfa: sp 0 +
STACK CFI 222cc .cfa: x29 96 +
STACK CFI INIT 22370 140 .cfa: sp 0 +
STACK CFI 22374 .cfa: sp 80 +
STACK CFI 22384 .cfa: x29 48 + x19: .cfa -8 + ^ x20: .cfa -16 + ^ x21: .cfa -24 + ^ x22: .cfa -32 + ^ .ra: .cfa -40 + ^ x29: .cfa -48 + ^
STACK CFI 22494 .cfa: sp 80 +
STACK CFI 224a4 .cfa: sp 0 +
STACK CFI 224a8 .cfa: x29 48 +
STACK CFI INIT 224b0 4c4 .cfa: sp 0 +
STACK CFI 224b4 .cfa: sp 336 +
STACK CFI 224c8 .cfa: x29 64 + x19: .cfa -8 + ^ x20: .cfa -16 + ^ x21: .cfa -24 + ^ x22: .cfa -32 + ^ x28: .cfa -48 + ^ .ra: .cfa -56 + ^ x29: .cfa -64 + ^
STACK CFI 22770 .cfa: sp 336 +
STACK CFI 22784 .cfa: sp 0 +
STACK CFI 22788 .cfa: x29 64 +
STACK CFI INIT 22974 43c .cfa: sp 0 +
STACK CFI 22978 .cfa: sp 224 +
STACK CFI 22994 .cfa: x29 96 + x19: .cfa -8 + ^ x20: .cfa -16 + ^ x21: .cfa -24 + ^ x22: .cfa -32 + ^ x23: .cfa -40 + ^ x24: .cfa -48 + ^ x25: .cfa -56 + ^ x26: .cfa -64 + ^ x27: .cfa -72 + ^ x28: .cfa -80 + ^ .ra: .cfa -88 + ^ x29: .cfa -96 + ^
STACK CFI 22ca8 .cfa: sp 224 +
STACK CFI 22cc4 .cfa: sp 0 +
STACK CFI 22cc8 .cfa: x29 96 +
STACK CFI INIT 22ef8 3a0 .cfa: sp 0 +
STACK CFI 22efc .cfa: sp 160 +
STACK CFI 22f18 .cfa: x29 96 + x19: .cfa -8 + ^ x20: .cfa -16 + ^ x21: .cfa -24 + ^ x22: .cfa -32 + ^ x23: .cfa -40 + ^ x24: .cfa -48 + ^ x25: .cfa -56 + ^ x26: .cfa -64 + ^ x27: .cfa -80 + ^ .ra: .cfa -88 + ^ x29: .cfa -96 + ^
STACK CFI 231dc .cfa: sp 160 +
STACK CFI 231f8 .cfa: sp 0 +
STACK CFI 231fc .cfa: x29 96 +
STACK CFI INIT 23298 3a0 .cfa: sp 0 +
STACK CFI 2329c .cfa: sp 160 +
STACK CFI 232b8 .cfa: x29 96 + x19: .cfa -8 + ^ x20: .cfa -16 + ^ x21: .cfa -24 + ^ x22: .cfa -32 + ^ x23: .cfa -40 + ^ x24: .cfa -48 + ^ x25: .cfa -56 + ^ x26: .cfa -64 + ^ x27: .cfa -80 + ^ .ra: .cfa -88 + ^ x29: .cfa -96 + ^
STACK CFI 2357c .cfa: sp 160 +
STACK CFI 23598 .cfa: sp 0 +
STACK CFI 2359c .cfa: x29 96 +
STACK CFI INIT 23638 280 .cfa: sp 0 +
STACK CFI 2363c .cfa: sp 144 +
STACK CFI 23658 .cfa: x29 96 + x19: .cfa -8 + ^ x20: .cfa -16 + ^ x21: .cfa -24 + ^ x22: .cfa -32 + ^ x23: .cfa -40 + ^ x24: .cfa -48 + ^ x25: .cfa -56 + ^ x26: .cfa -64 + ^ x27: .cfa -80 + ^ .ra: .cfa -88 + ^ x29: .cfa -96 + ^
STACK CFI 23838 .cfa: sp 144 +
STACK CFI 23854 .cfa: sp 0 +
STACK CFI 23858 .cfa: x29 96 +
STACK CFI INIT 238b8 74 .cfa: sp 0 +
STACK CFI 238bc .cfa: sp 48 +
STACK CFI 238c8 .cfa: x29 32 + x19: .cfa -8 + ^ x20: .cfa -16 + ^ .ra: .cfa -24 + ^ x29: .cfa -32 + ^
STACK CFI 23914 .cfa: sp 48 +
STACK CFI 23920 .cfa: sp 0 +
STACK CFI 23924 .cfa: x29 32 +
STACK CFI INIT 2392c 178 .cfa: sp 0 +
STACK CFI 23930 .cfa: sp 96 +
STACK CFI 23940 .cfa: x29 48 + x19: .cfa -8 + ^ x20: .cfa -16 + ^ x21: .cfa -32 + ^ .ra: .cfa -40 + ^ x29: .cfa -48 + ^
STACK CFI 239c4 .cfa: sp 96 +
STACK CFI 239d4 .cfa: sp 0 +
STACK CFI 239d8 .cfa: x29 48 +
STACK CFI INIT 23c04 13c .cfa: sp 0 +
STACK CFI 23c08 .cfa: sp 112 +
STACK CFI 23c18 .cfa: x29 48 + x19: .cfa -8 + ^ x20: .cfa -16 + ^ x21: .cfa -32 + ^ .ra: .cfa -40 + ^ x29: .cfa -48 + ^
STACK CFI 23c80 .cfa: sp 112 +
STACK CFI 23c90 .cfa: sp 0 +
STACK CFI 23c94 .cfa: x29 48 +
STACK CFI INIT 23d40 bc .cfa: sp 0 +
STACK CFI 23d44 .cfa: sp 64 +
STACK CFI 23d50 .cfa: x29 32 + x19: .cfa -8 + ^ x20: .cfa -16 + ^ .ra: .cfa -24 + ^ x29: .cfa -32 + ^
STACK CFI 23db8 .cfa: sp 64 +
STACK CFI 23dc4 .cfa: sp 0 +
STACK CFI 23dc8 .cfa: x29 32 +
STACK CFI INIT 23e10 b0 .cfa: sp 0 +
STACK CFI 23e14 .cfa: sp 96 +
STACK CFI 23e24 .cfa: x29 48 + x19: .cfa -8 + ^ x20: .cfa -16 + ^ x21: .cfa -32 + ^ .ra: .cfa -40 + ^ x29: .cfa -48 + ^
STACK CFI 23ea4 .cfa: sp 96 +
STACK CFI 23eb4 .cfa: sp 0 +
STACK CFI 23eb8 .cfa: x29 48 +
STACK CFI INIT 23f10 74 .cfa: sp 0 +
STACK CFI 23f14 .cfa: sp 48 +
STACK CFI 23f20 .cfa: x29 32 + x19: .cfa -8 + ^ x20: .cfa -16 + ^ .ra: .cfa -24 + ^ x29: .cfa -32 + ^
STACK CFI 23f6c .cfa: sp 48 +
STACK CFI 23f78 .cfa: sp 0 +
STACK CFI 23f7c .cfa: x29 32 +
STACK CFI INIT 23f84 24c .cfa: sp 0 +
STACK CFI 23f88 .cfa: sp 80 +
STACK CFI 23f9c .cfa: x29 80 + x19: .cfa -8 + ^ x20: .cfa -16 + ^ x21: .cfa -24 + ^ x22: .cfa -32 + ^ x23: .cfa -40 + ^ x24: .cfa -48 + ^ x25: .cfa -56 + ^ x28: .cfa -64 + ^ .ra: .cfa -72 + ^ x29: .cfa -80 + ^
STACK CFI 240d4 .cfa: sp 80 +
STACK CFI 240e8 .cfa: sp 0 +
STACK CFI 240ec .cfa: x29 80 +
STACK CFI INIT 241d0 74 .cfa: sp 0 +
STACK CFI 241d4 .cfa: sp 48 +
STACK CFI 241e0 .cfa: x29 32 + x19: .cfa -8 + ^ x20: .cfa -16 + ^ .ra: .cfa -24 + ^ x29: .cfa -32 + ^
STACK CFI 2422c .cfa: sp 48 +
STACK CFI 24238 .cfa: sp 0 +
STACK CFI 2423c .cfa: x29 32 +
STACK CFI INIT 2425c 168 .cfa: sp 0 +
STACK CFI 24260 .cfa: sp 384 +
STACK CFI 24274 .cfa: x29 64 + x19: .cfa -8 + ^ x20: .cfa -16 + ^ x21: .cfa -24 + ^ x22: .cfa -32 + ^ x23: .cfa -40 + ^ x28: .cfa -48 + ^ .ra: .cfa -56 + ^ x29: .cfa -64 + ^
STACK CFI 2436c .cfa: sp 384 +
STACK CFI 24380 .cfa: sp 0 +
STACK CFI 24384 .cfa: x29 64 +
STACK CFI INIT 243dc 248 .cfa: sp 0 +
STACK CFI 243e0 .cfa: sp 96 +
STACK CFI 243f8 .cfa: x29 96 + x19: .cfa -8 + ^ x20: .cfa -16 + ^ x21: .cfa -24 + ^ x22: .cfa -32 + ^ x23: .cfa -40 + ^ x24: .cfa -48 + ^ x25: .cfa -56 + ^ x26: .cfa -64 + ^ x28: .cfa -80 + ^ .ra: .cfa -88 + ^ x29: .cfa -96 + ^
STACK CFI 245a8 .cfa: sp 96 +
STACK CFI 245c0 .cfa: sp 0 +
STACK CFI 245c4 .cfa: x29 96 +
STACK CFI INIT 247c8 13c .cfa: sp 0 +
STACK CFI 247cc .cfa: sp 112 +
STACK CFI 247dc .cfa: x29 48 + x19: .cfa -8 + ^ x20: .cfa -16 + ^ x21: .cfa -32 + ^ .ra: .cfa -40 + ^ x29: .cfa -48 + ^
STACK CFI 24844 .cfa: sp 112 +
STACK CFI 24854 .cfa: sp 0 +
STACK CFI 24858 .cfa: x29 48 +
STACK CFI INIT 24904 bc .cfa: sp 0 +
STACK CFI 24908 .cfa: sp 64 +
STACK CFI 24914 .cfa: x29 32 + x19: .cfa -8 + ^ x20: .cfa -16 + ^ .ra: .cfa -24 + ^ x29: .cfa -32 + ^
STACK CFI 2497c .cfa: sp 64 +
STACK CFI 24988 .cfa: sp 0 +
STACK CFI 2498c .cfa: x29 32 +
STACK CFI INIT 249d4 b0 .cfa: sp 0 +
STACK CFI 249d8 .cfa: sp 96 +
STACK CFI 249e8 .cfa: x29 48 + x19: .cfa -8 + ^ x20: .cfa -16 + ^ x21: .cfa -32 + ^ .ra: .cfa -40 + ^ x29: .cfa -48 + ^
STACK CFI 24a68 .cfa: sp 96 +
STACK CFI 24a78 .cfa: sp 0 +
STACK CFI 24a7c .cfa: x29 48 +
STACK CFI INIT 24ad4 74 .cfa: sp 0 +
STACK CFI 24ad8 .cfa: sp 48 +
STACK CFI 24ae4 .cfa: x29 32 + x19: .cfa -8 + ^ x20: .cfa -16 + ^ .ra: .cfa -24 + ^ x29: .cfa -32 + ^
STACK CFI 24b30 .cfa: sp 48 +
STACK CFI 24b3c .cfa: sp 0 +
STACK CFI 24b40 .cfa: x29 32 +
STACK CFI INIT 24b48 24c .cfa: sp 0 +
STACK CFI 24b4c .cfa: sp 80 +
STACK CFI 24b60 .cfa: x29 80 + x19: .cfa -8 + ^ x20: .cfa -16 + ^ x21: .cfa -24 + ^ x22: .cfa -32 + ^ x23: .cfa -40 + ^ x24: .cfa -48 + ^ x25: .cfa -56 + ^ x28: .cfa -64 + ^ .ra: .cfa -72 + ^ x29: .cfa -80 + ^
STACK CFI 24c98 .cfa: sp 80 +
STACK CFI 24cac .cfa: sp 0 +
STACK CFI 24cb0 .cfa: x29 80 +
STACK CFI INIT 24dac 248 .cfa: sp 0 +
STACK CFI 24db0 .cfa: sp 96 +
STACK CFI 24dc8 .cfa: x29 96 + x19: .cfa -8 + ^ x20: .cfa -16 + ^ x21: .cfa -24 + ^ x22: .cfa -32 + ^ x23: .cfa -40 + ^ x24: .cfa -48 + ^ x25: .cfa -56 + ^ x26: .cfa -64 + ^ x28: .cfa -80 + ^ .ra: .cfa -88 + ^ x29: .cfa -96 + ^
STACK CFI 24f78 .cfa: sp 96 +
STACK CFI 24f90 .cfa: sp 0 +
STACK CFI 24f94 .cfa: x29 96 +
STACK CFI INIT 250b0 174 .cfa: sp 0 +
STACK CFI 250b4 .cfa: sp 112 +
STACK CFI 250c4 .cfa: x29 48 + x19: .cfa -8 + ^ x20: .cfa -16 + ^ x21: .cfa -32 + ^ .ra: .cfa -40 + ^ x29: .cfa -48 + ^
STACK CFI 251c0 .cfa: sp 112 +
STACK CFI 251d0 .cfa: sp 0 +
STACK CFI 251d4 .cfa: x29 48 +
STACK CFI INIT 25374 308 .cfa: sp 0 +
STACK CFI 25378 .cfa: sp 176 +
STACK CFI 2538c .cfa: x29 64 + x19: .cfa -8 + ^ x20: .cfa -16 + ^ x21: .cfa -24 + ^ x22: .cfa -32 + ^ x23: .cfa -48 + ^ .ra: .cfa -56 + ^ x29: .cfa -64 + ^
STACK CFI 25574 .cfa: sp 176 +
STACK CFI 25588 .cfa: sp 0 +
STACK CFI 2558c .cfa: x29 64 +
STACK CFI INIT 256c8 c8 .cfa: sp 0 +
STACK CFI 256cc .cfa: sp 32 +
STACK CFI 256d4 .cfa: x29 32 + x19: .cfa -8 + ^ x20: .cfa -16 + ^ .ra: .cfa -24 + ^ x29: .cfa -32 + ^
STACK CFI 25708 .cfa: sp 32 +
STACK CFI 25710 .cfa: sp 0 +
STACK CFI 25714 .cfa: x29 32 +
STACK CFI 25718 .cfa: sp 32 +
STACK CFI 25720 .cfa: sp 0 +
STACK CFI 25724 .cfa: x29 32 +
STACK CFI INIT 25790 ec .cfa: sp 0 +
STACK CFI 25794 .cfa: sp 32 +
STACK CFI 2579c .cfa: x29 32 + x19: .cfa -8 + ^ x20: .cfa -16 + ^ .ra: .cfa -24 + ^ x29: .cfa -32 + ^
STACK CFI 25840 .cfa: sp 32 +
STACK CFI 25848 .cfa: sp 0 +
STACK CFI 2584c .cfa: x29 32 +
STACK CFI INIT 22db0 12c .cfa: sp 0 +
STACK CFI 22db4 .cfa: sp 80 +
STACK CFI 22dc4 .cfa: x29 48 + x19: .cfa -8 + ^ x20: .cfa -16 + ^ x21: .cfa -32 + ^ .ra: .cfa -40 + ^ x29: .cfa -48 + ^
STACK CFI 22e5c .cfa: sp 80 +
STACK CFI 22e6c .cfa: sp 0 +
STACK CFI 22e70 .cfa: x29 48 +
STACK CFI INIT 2587c 394 .cfa: sp 0 +
STACK CFI 25880 .cfa: sp 160 +
STACK CFI 25898 .cfa: x29 64 + x19: .cfa -8 + ^ x20: .cfa -16 + ^ x21: .cfa -24 + ^ x22: .cfa -32 + ^ x23: .cfa -40 + ^ x24: .cfa -48 + ^ .ra: .cfa -56 + ^ x29: .cfa -64 + ^ v8: .cfa -80 + ^
STACK CFI 25b80 .cfa: sp 160 +
STACK CFI 25b98 .cfa: sp 0 +
STACK CFI 25b9c .cfa: x29 64 +
STACK CFI INIT 25c10 7cc .cfa: sp 0 +
STACK CFI 25c14 .cfa: sp 192 +
STACK CFI 25c30 .cfa: x29 80 + x19: .cfa -8 + ^ x20: .cfa -16 + ^ x21: .cfa -24 + ^ x22: .cfa -32 + ^ x23: .cfa -40 + ^ x24: .cfa -48 + ^ x25: .cfa -56 + ^ x26: .cfa -64 + ^ .ra: .cfa -72 + ^ x29: .cfa -80 + ^ v8: .cfa -96 + ^
STACK CFI 26338 .cfa: sp 192 +
STACK CFI 26354 .cfa: sp 0 +
STACK CFI 26358 .cfa: x29 80 +
STACK CFI INIT 263dc 7cc .cfa: sp 0 +
STACK CFI 263e0 .cfa: sp 192 +
STACK CFI 263fc .cfa: x29 80 + x19: .cfa -8 + ^ x20: .cfa -16 + ^ x21: .cfa -24 + ^ x22: .cfa -32 + ^ x23: .cfa -40 + ^ x24: .cfa -48 + ^ x25: .cfa -56 + ^ x26: .cfa -64 + ^ .ra: .cfa -72 + ^ x29: .cfa -80 + ^ v8: .cfa -96 + ^
STACK CFI 26b04 .cfa: sp 192 +
STACK CFI 26b20 .cfa: sp 0 +
STACK CFI 26b24 .cfa: x29 80 +
STACK CFI INIT 26f7c 17c .cfa: sp 0 +
STACK CFI 26f80 .cfa: sp 128 +
STACK CFI 26f94 .cfa: x29 64 + x19: .cfa -8 + ^ x20: .cfa -16 + ^ x21: .cfa -24 + ^ x22: .cfa -32 + ^ x23: .cfa -48 + ^ .ra: .cfa -56 + ^ x29: .cfa -64 + ^
STACK CFI 270b0 .cfa: sp 128 +
STACK CFI 270c4 .cfa: sp 0 +
STACK CFI 270c8 .cfa: x29 64 +
STACK CFI INIT 27334 210 .cfa: sp 0 +
STACK CFI 27338 .cfa: sp 128 +
STACK CFI 27348 .cfa: x29 48 + x19: .cfa -8 + ^ x20: .cfa -16 + ^ x21: .cfa -32 + ^ .ra: .cfa -40 + ^ x29: .cfa -48 + ^
STACK CFI 27450 .cfa: sp 128 +
STACK CFI 27460 .cfa: sp 0 +
STACK CFI 27464 .cfa: x29 48 +
STACK CFI INIT 27544 c8 .cfa: sp 0 +
STACK CFI 27548 .cfa: sp 96 +
STACK CFI 27558 .cfa: x29 48 + x19: .cfa -8 + ^ x20: .cfa -16 + ^ x21: .cfa -32 + ^ .ra: .cfa -40 + ^ x29: .cfa -48 + ^
STACK CFI 275d0 .cfa: sp 96 +
STACK CFI 275e0 .cfa: sp 0 +
STACK CFI 275e4 .cfa: x29 48 +
STACK CFI INIT 27834 17c .cfa: sp 0 +
STACK CFI 27838 .cfa: sp 128 +
STACK CFI 2784c .cfa: x29 64 + x19: .cfa -8 + ^ x20: .cfa -16 + ^ x21: .cfa -24 + ^ x22: .cfa -32 + ^ x23: .cfa -48 + ^ .ra: .cfa -56 + ^ x29: .cfa -64 + ^
STACK CFI 27968 .cfa: sp 128 +
STACK CFI 2797c .cfa: sp 0 +
STACK CFI 27980 .cfa: x29 64 +
STACK CFI INIT 27bf0 210 .cfa: sp 0 +
STACK CFI 27bf4 .cfa: sp 128 +
STACK CFI 27c04 .cfa: x29 48 + x19: .cfa -8 + ^ x20: .cfa -16 + ^ x21: .cfa -32 + ^ .ra: .cfa -40 + ^ x29: .cfa -48 + ^
STACK CFI 27d0c .cfa: sp 128 +
STACK CFI 27d1c .cfa: sp 0 +
STACK CFI 27d20 .cfa: x29 48 +
STACK CFI INIT 27e00 c8 .cfa: sp 0 +
STACK CFI 27e04 .cfa: sp 96 +
STACK CFI 27e14 .cfa: x29 48 + x19: .cfa -8 + ^ x20: .cfa -16 + ^ x21: .cfa -32 + ^ .ra: .cfa -40 + ^ x29: .cfa -48 + ^
STACK CFI 27e8c .cfa: sp 96 +
STACK CFI 27e9c .cfa: sp 0 +
STACK CFI 27ea0 .cfa: x29 48 +
STACK CFI INIT 28344 fc .cfa: sp 0 +
STACK CFI 28348 .cfa: sp 96 +
STACK CFI 28358 .cfa: x29 48 + x19: .cfa -8 + ^ x20: .cfa -16 + ^ x21: .cfa -32 + ^ .ra: .cfa -40 + ^ x29: .cfa -48 + ^
STACK CFI 283d0 .cfa: sp 96 +
STACK CFI 283e0 .cfa: sp 0 +
STACK CFI 283e4 .cfa: x29 48 +
STACK CFI INIT 28440 134 .cfa: sp 0 +
STACK CFI 28444 .cfa: sp 80 +
STACK CFI 28450 .cfa: x29 32 + x19: .cfa -8 + ^ x20: .cfa -16 + ^ .ra: .cfa -24 + ^ x29: .cfa -32 + ^
STACK CFI 28480 .cfa: sp 80 +
STACK CFI 2848c .cfa: sp 0 +
STACK CFI 28490 .cfa: x29 32 +
STACK CFI INIT 28574 78 .cfa: sp 0 +
STACK CFI 28578 .cfa: sp 32 +
STACK CFI 28580 .cfa: x29 32 + x19: .cfa -8 + ^ x20: .cfa -16 + ^ .ra: .cfa -24 + ^ x29: .cfa -32 + ^
STACK CFI 2858c .cfa: sp 32 +
STACK CFI 28594 .cfa: sp 0 +
STACK CFI 28598 .cfa: x29 32 +
STACK CFI INIT 285ec 74 .cfa: sp 0 +
STACK CFI 285f0 .cfa: sp 48 +
STACK CFI 285fc .cfa: x29 32 + x19: .cfa -8 + ^ x20: .cfa -16 + ^ .ra: .cfa -24 + ^ x29: .cfa -32 + ^
STACK CFI 28648 .cfa: sp 48 +
STACK CFI 28654 .cfa: sp 0 +
STACK CFI 28658 .cfa: x29 32 +
STACK CFI INIT 286c4 174 .cfa: sp 0 +
STACK CFI 286c8 .cfa: sp 112 +
STACK CFI 286d8 .cfa: x29 48 + x19: .cfa -8 + ^ x20: .cfa -16 + ^ x21: .cfa -32 + ^ .ra: .cfa -40 + ^ x29: .cfa -48 + ^
STACK CFI 28724 .cfa: sp 112 +
STACK CFI 28734 .cfa: sp 0 +
STACK CFI 28738 .cfa: x29 48 +
STACK CFI INIT 28838 194 .cfa: sp 0 +
STACK CFI 2883c .cfa: sp 112 +
STACK CFI 2884c .cfa: x29 48 + x19: .cfa -8 + ^ x20: .cfa -16 + ^ x21: .cfa -32 + ^ .ra: .cfa -40 + ^ x29: .cfa -48 + ^
STACK CFI 288b8 .cfa: sp 112 +
STACK CFI 288c8 .cfa: sp 0 +
STACK CFI 288cc .cfa: x29 48 +
STACK CFI INIT 28a6c 244 .cfa: sp 0 +
STACK CFI 28a70 .cfa: sp 128 +
STACK CFI 28a84 .cfa: x29 64 + x19: .cfa -8 + ^ x20: .cfa -16 + ^ x21: .cfa -24 + ^ x22: .cfa -32 + ^ x23: .cfa -48 + ^ .ra: .cfa -56 + ^ x29: .cfa -64 + ^
STACK CFI 28b4c .cfa: sp 128 +
STACK CFI 28b60 .cfa: sp 0 +
STACK CFI 28b64 .cfa: x29 64 +
STACK CFI INIT 28cd4 224 .cfa: sp 0 +
STACK CFI 28cd8 .cfa: sp 128 +
STACK CFI 28cec .cfa: x29 64 + x19: .cfa -8 + ^ x20: .cfa -16 + ^ x21: .cfa -24 + ^ x22: .cfa -32 + ^ x23: .cfa -48 + ^ .ra: .cfa -56 + ^ x29: .cfa -64 + ^
STACK CFI 28d94 .cfa: sp 128 +
STACK CFI 28da8 .cfa: sp 0 +
STACK CFI 28dac .cfa: x29 64 +
STACK CFI INIT 28ef8 224 .cfa: sp 0 +
STACK CFI 28efc .cfa: sp 128 +
STACK CFI 28f10 .cfa: x29 64 + x19: .cfa -8 + ^ x20: .cfa -16 + ^ x21: .cfa -24 + ^ x22: .cfa -32 + ^ x23: .cfa -48 + ^ .ra: .cfa -56 + ^ x29: .cfa -64 + ^
STACK CFI 28fb8 .cfa: sp 128 +
STACK CFI 28fcc .cfa: sp 0 +
STACK CFI 28fd0 .cfa: x29 64 +
STACK CFI INIT 2911c 154 .cfa: sp 0 +
STACK CFI 29120 .cfa: sp 384 +
STACK CFI 29134 .cfa: x29 64 + x19: .cfa -8 + ^ x20: .cfa -16 + ^ x21: .cfa -24 + ^ x22: .cfa -32 + ^ x23: .cfa -40 + ^ x28: .cfa -48 + ^ .ra: .cfa -56 + ^ x29: .cfa -64 + ^
STACK CFI 29218 .cfa: sp 384 +
STACK CFI 2922c .cfa: sp 0 +
STACK CFI 29230 .cfa: x29 64 +
STACK CFI INIT 29288 4e0 .cfa: sp 0 +
STACK CFI 2928c .cfa: sp 64 +
STACK CFI 2929c .cfa: x29 64 + x19: .cfa -8 + ^ x20: .cfa -16 + ^ x21: .cfa -24 + ^ x22: .cfa -32 + ^ x23: .cfa -40 + ^ x24: .cfa -48 + ^ .ra: .cfa -56 + ^ x29: .cfa -64 + ^
STACK CFI 2973c .cfa: sp 64 +
STACK CFI 2974c .cfa: sp 0 +
STACK CFI 29750 .cfa: x29 64 +
STACK CFI INIT 29cdc 294 .cfa: sp 0 +
STACK CFI 29ce0 .cfa: sp 240 +
STACK CFI 29cf8 .cfa: x29 80 + x19: .cfa -8 + ^ x20: .cfa -16 + ^ x21: .cfa -24 + ^ x22: .cfa -32 + ^ x23: .cfa -40 + ^ x24: .cfa -48 + ^ x25: .cfa -64 + ^ .ra: .cfa -72 + ^ x29: .cfa -80 + ^
STACK CFI 29e98 .cfa: sp 240 +
STACK CFI 29eb0 .cfa: sp 0 +
STACK CFI 29eb4 .cfa: x29 80 +
STACK CFI INIT 29fec 50 .cfa: sp 0 +
STACK CFI 29ff0 .cfa: sp 32 +
STACK CFI 29ff8 .cfa: x29 32 + x19: .cfa -8 + ^ x20: .cfa -16 + ^ .ra: .cfa -24 + ^ x29: .cfa -32 + ^
STACK CFI INIT 2a068 7c0 .cfa: sp 0 +
STACK CFI 2a06c .cfa: sp 320 +
STACK CFI 2a088 .cfa: x29 96 + x19: .cfa -8 + ^ x20: .cfa -16 + ^ x21: .cfa -24 + ^ x22: .cfa -32 + ^ x23: .cfa -40 + ^ x24: .cfa -48 + ^ x25: .cfa -56 + ^ x26: .cfa -64 + ^ x27: .cfa -72 + ^ x28: .cfa -80 + ^ .ra: .cfa -88 + ^ x29: .cfa -96 + ^
STACK CFI 2a6d8 .cfa: sp 320 +
STACK CFI 2a6f4 .cfa: sp 0 +
STACK CFI 2a6f8 .cfa: x29 96 +
STACK CFI INIT 2eba8 c74 .cfa: sp 0 +
STACK CFI 2ebac .cfa: sp 96 +
STACK CFI 2ebc4 .cfa: x29 96 + x19: .cfa -8 + ^ x20: .cfa -16 + ^ x21: .cfa -24 + ^ x22: .cfa -32 + ^ x23: .cfa -40 + ^ x24: .cfa -48 + ^ x25: .cfa -56 + ^ x26: .cfa -64 + ^ x27: .cfa -72 + ^ x28: .cfa -80 + ^ .ra: .cfa -88 + ^ x29: .cfa -96 + ^
STACK CFI 2f63c .cfa: sp 96 +
STACK CFI 2f654 .cfa: sp 0 +
STACK CFI 2f658 .cfa: x29 96 +
STACK CFI INIT 2f970 26c .cfa: sp 0 +
STACK CFI 2f974 .cfa: sp 128 +
STACK CFI 2f984 .cfa: x29 48 + x19: .cfa -8 + ^ x20: .cfa -16 + ^ x21: .cfa -24 + ^ x22: .cfa -32 + ^ .ra: .cfa -40 + ^ x29: .cfa -48 + ^
STACK CFI 2fb28 .cfa: sp 128 +
STACK CFI 2fb38 .cfa: sp 0 +
STACK CFI 2fb3c .cfa: x29 48 +
STACK CFI INIT 30128 3b8 .cfa: sp 0 +
STACK CFI 3012c .cfa: sp 96 +
STACK CFI 30144 .cfa: x29 96 + x19: .cfa -8 + ^ x20: .cfa -16 + ^ x21: .cfa -24 + ^ x22: .cfa -32 + ^ x23: .cfa -40 + ^ x24: .cfa -48 + ^ x25: .cfa -56 + ^ x26: .cfa -64 + ^ x27: .cfa -72 + ^ x28: .cfa -80 + ^ .ra: .cfa -88 + ^ x29: .cfa -96 + ^
STACK CFI 30480 .cfa: sp 96 +
STACK CFI 30498 .cfa: sp 0 +
STACK CFI 3049c .cfa: x29 96 +
STACK CFI INIT 30580 cb4 .cfa: sp 0 +
STACK CFI 30584 .cfa: sp 96 +
STACK CFI 3059c .cfa: x29 96 + x19: .cfa -8 + ^ x20: .cfa -16 + ^ x21: .cfa -24 + ^ x22: .cfa -32 + ^ x23: .cfa -40 + ^ x24: .cfa -48 + ^ x25: .cfa -56 + ^ x26: .cfa -64 + ^ x27: .cfa -72 + ^ x28: .cfa -80 + ^ .ra: .cfa -88 + ^ x29: .cfa -96 + ^
STACK CFI 31044 .cfa: sp 96 +
STACK CFI 3105c .cfa: sp 0 +
STACK CFI 31060 .cfa: x29 96 +
STACK CFI INIT 3151c afc .cfa: sp 0 +
STACK CFI 31520 .cfa: sp 96 +
STACK CFI 31538 .cfa: x29 96 + x19: .cfa -8 + ^ x20: .cfa -16 + ^ x21: .cfa -24 + ^ x22: .cfa -32 + ^ x23: .cfa -40 + ^ x24: .cfa -48 + ^ x25: .cfa -56 + ^ x26: .cfa -64 + ^ x27: .cfa -72 + ^ x28: .cfa -80 + ^ .ra: .cfa -88 + ^ x29: .cfa -96 + ^
STACK CFI 31f8c .cfa: sp 96 +
STACK CFI 31fa4 .cfa: sp 0 +
STACK CFI 31fa8 .cfa: x29 96 +
STACK CFI INIT 321f4 1430 .cfa: sp 0 +
STACK CFI 321f8 .cfa: sp 96 +
STACK CFI 32210 .cfa: x29 96 + x19: .cfa -8 + ^ x20: .cfa -16 + ^ x21: .cfa -24 + ^ x22: .cfa -32 + ^ x23: .cfa -40 + ^ x24: .cfa -48 + ^ x25: .cfa -56 + ^ x26: .cfa -64 + ^ x27: .cfa -72 + ^ x28: .cfa -80 + ^ .ra: .cfa -88 + ^ x29: .cfa -96 + ^
STACK CFI 334ac .cfa: sp 96 +
STACK CFI 334c4 .cfa: sp 0 +
STACK CFI 334c8 .cfa: x29 96 +
STACK CFI INIT 33748 75c .cfa: sp 0 +
STACK CFI 3374c .cfa: sp 368 +
STACK CFI 33768 .cfa: x29 96 + x19: .cfa -8 + ^ x20: .cfa -16 + ^ x21: .cfa -24 + ^ x22: .cfa -32 + ^ x23: .cfa -40 + ^ x24: .cfa -48 + ^ x25: .cfa -56 + ^ x26: .cfa -64 + ^ x27: .cfa -72 + ^ x28: .cfa -80 + ^ .ra: .cfa -88 + ^ x29: .cfa -96 + ^
STACK CFI 3381c .cfa: sp 368 +
STACK CFI 33838 .cfa: sp 0 +
STACK CFI 3383c .cfa: x29 96 +
STACK CFI 33890 .cfa: sp 368 +
STACK CFI 338ac .cfa: sp 0 +
STACK CFI 338b0 .cfa: x29 96 +
STACK CFI INIT 34264 eb0 .cfa: sp 0 +
STACK CFI 34268 .cfa: sp 96 +
STACK CFI 34280 .cfa: x29 96 + x19: .cfa -8 + ^ x20: .cfa -16 + ^ x21: .cfa -24 + ^ x22: .cfa -32 + ^ x23: .cfa -40 + ^ x24: .cfa -48 + ^ x25: .cfa -56 + ^ x26: .cfa -64 + ^ x27: .cfa -72 + ^ x28: .cfa -80 + ^ .ra: .cfa -88 + ^ x29: .cfa -96 + ^
STACK CFI 34f28 .cfa: sp 96 +
STACK CFI 34f40 .cfa: sp 0 +
STACK CFI 34f44 .cfa: x29 96 +
STACK CFI INIT 35488 1c9c .cfa: sp 0 +
STACK CFI 3548c .cfa: sp 112 +
STACK CFI 354a8 .cfa: x29 96 + x19: .cfa -8 + ^ x20: .cfa -16 + ^ x21: .cfa -24 + ^ x22: .cfa -32 + ^ x23: .cfa -40 + ^ x24: .cfa -48 + ^ x25: .cfa -56 + ^ x26: .cfa -64 + ^ x27: .cfa -72 + ^ x28: .cfa -80 + ^ .ra: .cfa -88 + ^ x29: .cfa -96 + ^ v8: .cfa -112 + ^
STACK CFI 35890 .cfa: sp 112 +
STACK CFI 358ac .cfa: sp 0 +
STACK CFI 358b0 .cfa: x29 96 +
STACK CFI INIT 398e8 9a0 .cfa: sp 0 +
STACK CFI 398ec .cfa: sp 144 +
STACK CFI 39904 .cfa: x29 80 + x19: .cfa -8 + ^ x20: .cfa -16 + ^ x21: .cfa -24 + ^ x22: .cfa -32 + ^ x23: .cfa -40 + ^ x24: .cfa -48 + ^ x25: .cfa -64 + ^ .ra: .cfa -72 + ^ x29: .cfa -80 + ^
STACK CFI 3a204 .cfa: sp 144 +
STACK CFI 3a21c .cfa: sp 0 +
STACK CFI 3a220 .cfa: x29 80 +
STACK CFI INIT 3b7ac 57c .cfa: sp 0 +
STACK CFI 3b7b0 .cfa: sp 96 +
STACK CFI 3b7c8 .cfa: x29 96 + x19: .cfa -8 + ^ x20: .cfa -16 + ^ x21: .cfa -24 + ^ x22: .cfa -32 + ^ x23: .cfa -40 + ^ x24: .cfa -48 + ^ x25: .cfa -56 + ^ x26: .cfa -64 + ^ x27: .cfa -72 + ^ x28: .cfa -80 + ^ .ra: .cfa -88 + ^ x29: .cfa -96 + ^
STACK CFI 3bc8c .cfa: sp 96 +
STACK CFI 3bca4 .cfa: sp 0 +
STACK CFI 3bca8 .cfa: x29 96 +
STACK CFI INIT 3bd28 67c .cfa: sp 0 +
STACK CFI 3bd2c .cfa: sp 96 +
STACK CFI 3bd44 .cfa: x29 96 + x19: .cfa -8 + ^ x20: .cfa -16 + ^ x21: .cfa -24 + ^ x22: .cfa -32 + ^ x23: .cfa -40 + ^ x24: .cfa -48 + ^ x25: .cfa -56 + ^ x26: .cfa -64 + ^ x27: .cfa -72 + ^ x28: .cfa -80 + ^ .ra: .cfa -88 + ^ x29: .cfa -96 + ^
STACK CFI 3c308 .cfa: sp 96 +
STACK CFI 3c320 .cfa: sp 0 +
STACK CFI 3c324 .cfa: x29 96 +
