MODULE Linux arm64 F32B82BA193EF0735D4EFA81245451410 colon.bumpscosity.android64.so
INFO CODE_ID BA822BF33E1973F05D4EFA8124545141453E4369
INFO GENERATOR mozilla/dump_syms 2.3.4
PUBLIC 50e0 0 __on_dlclose
PUBLIC 50f0 0 __emutls_unregister_key
PUBLIC 50f8 0 __on_dlclose_late
PUBLIC 5100 0 __atexit_handler_wrapper
PUBLIC 5114 0 atexit
PUBLIC 5130 0 pthread_atfork
PUBLIC 5140 0 __aarch64_ldadd8_relax
PUBLIC 5170 0 init_have_lse_atomics
PUBLIC 5208 0 __init_cpu_features_constructor
PUBLIC 57a4 0 __init_cpu_features
PUBLIC 5830 0 __aarch64_ldadd8_acq_rel
PUBLIC 5860 0 __cxx_global_array_dtor
PUBLIC 5a84 0 _GLOBAL__sub_I_main.cpp
PUBLIC 5ec4 0 __cxx_global_var_init.15
PUBLIC 6348 0 geode::modifier::ModifyBase<geode::modifier::ModifyDerive<CustomMoreOptionsLayer, MoreOptionsLayer> >::~ModifyBase()
PUBLIC 6360 0 __cxx_global_var_init.16
PUBLIC 67e4 0 geode::modifier::ModifyBase<geode::modifier::ModifyDerive<CustomSecretLayer2, SecretLayer2> >::~ModifyBase()
PUBLIC 67fc 0 std::__ndk1::basic_string<char, std::__ndk1::char_traits<char>, std::__ndk1::allocator<char> >::__throw_length_error[abi:ne180000]() const
PUBLIC 6810 0 std::__ndk1::__throw_length_error[abi:ne180000](char const*)
PUBLIC 6860 0 std::length_error::length_error[abi:ne180000](char const*)
PUBLIC 6890 0 std::__throw_bad_array_new_length([abi:ne180000], void)
PUBLIC 68c4 0 __clang_call_terminate
PUBLIC 68d4 0 geode::modifier::ModifyDerive<CustomMoreOptionsLayer, MoreOptionsLayer>::apply()
PUBLIC 6bd0 0 std::__ndk1::shared_ptr<geode::Hook>::~shared_ptr[abi:ne180000]()
PUBLIC 6c20 0 geode::impl::ResultData<geode::Hook*, std::__ndk1::basic_string<char, std::__ndk1::char_traits<char>, std::__ndk1::allocator<char> > >::~ResultData()
PUBLIC 6c94 0 std::__ndk1::vector<std::__ndk1::basic_string<char, std::__ndk1::char_traits<char>, std::__ndk1::allocator<char> >, std::__ndk1::allocator<std::__ndk1::basic_string<char, std::__ndk1::char_traits<char>, std::__ndk1::allocator<char> > > >::~vector[abi:ne180000]()
PUBLIC 6d10 0 geode::modifier::ModifyBase<geode::modifier::ModifyDerive<CustomMoreOptionsLayer, MoreOptionsLayer> >::apply()
PUBLIC 6d14 0 _ZN5geode15UnwrapExceptionC2IRPNS_4HookEQsr4implE18IsStringStreamableIT_EEENS_4impl5OkTagEOS5_
PUBLIC 6e68 0 std::__ndk1::__throw_bad_variant_access[abi:ne180000]()
PUBLIC 6e9c 0 std::__ndk1::basic_stringstream<char, std::__ndk1::char_traits<char>, std::__ndk1::allocator<char> >::basic_stringstream[abi:ne180000]()
PUBLIC m 6fc8 0 std::__ndk1::basic_stringstream<char, std::__ndk1::char_traits<char>, std::__ndk1::allocator<char> >::~basic_stringstream()
PUBLIC 7048 0 geode::UnwrapException::~UnwrapException()
PUBLIC 706c 0 std::__ndk1::__put_character_sequence[abi:ne180000]<char, std::__ndk1::char_traits<char> >(std::__ndk1::basic_ostream<char, std::__ndk1::char_traits<char> >, std::__ndk1::basic_ostream const*, unsigned long)
PUBLIC 7210 0 std::__ndk1::__pad_and_output[abi:ne180000]<char, std::__ndk1::char_traits<char> >(std::__ndk1::char_traits<char>, std::__ndk1::ostreambuf_iterator const*, std::__ndk1::ostreambuf_iterator const, std::__ndk1::ostreambuf_iterator const, std::__ndk1::ios_base&, std::__ndk1::ostreambuf_iterator)
PUBLIC 73ec 0 std::__ndk1::basic_stringbuf<char, std::__ndk1::char_traits<char>, std::__ndk1::allocator<char> >::str[abi:ne180000]() &&
PUBLIC 7564 0 std::__ndk1::basic_stringbuf<char, std::__ndk1::char_traits<char>, std::__ndk1::allocator<char> >::__init_buf_ptrs[abi:ne180000]()
PUBLIC 76ac 0 std::__ndk1::vector<std::__ndk1::basic_string<char, std::__ndk1::char_traits<char>, std::__ndk1::allocator<char> >, std::__ndk1::allocator<std::__ndk1::basic_string<char, std::__ndk1::char_traits<char>, std::__ndk1::allocator<char> > > >::__push_back_slow_path<std::__ndk1::basic_string<char, std::__ndk1::char_traits<char>, std::__ndk1::allocator<char> > const&>(std::__ndk1::basic_string<char, std::__ndk1::char_traits<char>, std::__ndk1::allocator<char> > const&)
PUBLIC 78d0 0 std::__ndk1::basic_string<char, std::__ndk1::char_traits<char>, std::__ndk1::allocator<char> >::__init_copy_ctor_external(char const*, unsigned long)
PUBLIC 7950 0 std::__ndk1::__split_buffer<std::__ndk1::basic_string<char, std::__ndk1::char_traits<char>, std::__ndk1::allocator<char> >, std::__ndk1::allocator<std::__ndk1::basic_string<char, std::__ndk1::char_traits<char>, std::__ndk1::allocator<char> > >&>::~__split_buffer()
PUBLIC 79b8 0 std::__ndk1::vector<std::__ndk1::basic_string<char, std::__ndk1::char_traits<char>, std::__ndk1::allocator<char> >, std::__ndk1::allocator<std::__ndk1::basic_string<char, std::__ndk1::char_traits<char>, std::__ndk1::allocator<char> > > >::__throw_length_error[abi:ne180000]() const
PUBLIC 79cc 0 std::__ndk1::__variant_detail::__visitation::__base::__dispatcher<(unsigned long)0>::__dispatch[abi:ne180000]<std::__ndk1::__variant_detail::__dtor<std::__ndk1::__variant_detail::__traits<geode::Hook*, std::__ndk1::basic_string<char, std::__ndk1::char_traits<char>, std::__ndk1::allocator<char> > >, (std::__ndk1::__variant_detail::_Trait)1>::__destroy[abi:ne180000]()::{lambda(auto:1&)#1}, std::__ndk1::__variant_detail::__base<(std::__ndk1::__variant_detail::__traits<geode::Hook*, std::__ndk1::basic_string<char, std::__ndk1::char_traits<char>, std::__ndk1::allocator<char> > >)1, geode::Hook, std::__ndk1::allocator<char> >&>(std::__ndk1::__variant_detail::__dtor<std::__ndk1::__variant_detail::__traits<geode::Hook*, std::__ndk1::basic_string<char, std::__ndk1::char_traits<char>, std::__ndk1::allocator<char> > >, (std::__ndk1::__variant_detail::_Trait)1>, std::__ndk1::__variant_detail::__base<(std::__ndk1::__variant_detail::__traits<geode::Hook*, std::__ndk1::basic_string<char, std::__ndk1::char_traits<char>, std::__ndk1::allocator<char> > >)1, geode::Hook, std::__ndk1::allocator<char> >&)
PUBLIC 79d0 0 std::__ndk1::__variant_detail::__visitation::__base::__dispatcher<(unsigned long)1>::__dispatch[abi:ne180000]<std::__ndk1::__variant_detail::__dtor<std::__ndk1::__variant_detail::__traits<geode::Hook*, std::__ndk1::basic_string<char, std::__ndk1::char_traits<char>, std::__ndk1::allocator<char> > >, (std::__ndk1::__variant_detail::_Trait)1>::__destroy[abi:ne180000]()::{lambda(auto:1&)#1}, std::__ndk1::__variant_detail::__base<(std::__ndk1::__variant_detail::__traits<geode::Hook*, std::__ndk1::basic_string<char, std::__ndk1::char_traits<char>, std::__ndk1::allocator<char> > >)1, geode::Hook, std::__ndk1::allocator<char> >&>(std::__ndk1::__variant_detail::__dtor<std::__ndk1::__variant_detail::__traits<geode::Hook*, std::__ndk1::basic_string<char, std::__ndk1::char_traits<char>, std::__ndk1::allocator<char> > >, (std::__ndk1::__variant_detail::_Trait)1>, std::__ndk1::__variant_detail::__base<(std::__ndk1::__variant_detail::__traits<geode::Hook*, std::__ndk1::basic_string<char, std::__ndk1::char_traits<char>, std::__ndk1::allocator<char> > >)1, geode::Hook, std::__ndk1::allocator<char> >&)
PUBLIC 79e4 0 std::__ndk1::__tree<std::__ndk1::__value_type<std::__ndk1::basic_string<char, std::__ndk1::char_traits<char>, std::__ndk1::allocator<char> >, std::__ndk1::shared_ptr<geode::Hook> >, std::__ndk1::__map_value_compare<std::__ndk1::basic_string<char, std::__ndk1::char_traits<char>, std::__ndk1::allocator<char> >, std::__ndk1::__value_type<std::__ndk1::basic_string<char, std::__ndk1::char_traits<char>, std::__ndk1::allocator<char> >, std::__ndk1::shared_ptr<geode::Hook> >, std::__ndk1::less<std::__ndk1::basic_string<char, std::__ndk1::char_traits<char>, std::__ndk1::allocator<char> > >, true>, std::__ndk1::allocator<std::__ndk1::__value_type<std::__ndk1::basic_string<char, std::__ndk1::char_traits<char>, std::__ndk1::allocator<char> >, std::__ndk1::shared_ptr<geode::Hook> > > >::find<std::__ndk1::basic_string<char, std::__ndk1::char_traits<char>, std::__ndk1::allocator<char> > >(std::__ndk1::basic_string<char, std::__ndk1::char_traits<char>, std::__ndk1::allocator<char> > const&)
PUBLIC 7b04 0 std::__ndk1::__tree<std::__ndk1::__value_type<std::__ndk1::basic_string<char, std::__ndk1::char_traits<char>, std::__ndk1::allocator<char> >, std::__ndk1::shared_ptr<geode::Hook> >, std::__ndk1::__map_value_compare<std::__ndk1::basic_string<char, std::__ndk1::char_traits<char>, std::__ndk1::allocator<char> >, std::__ndk1::__value_type<std::__ndk1::basic_string<char, std::__ndk1::char_traits<char>, std::__ndk1::allocator<char> >, std::__ndk1::shared_ptr<geode::Hook> >, std::__ndk1::less<std::__ndk1::basic_string<char, std::__ndk1::char_traits<char>, std::__ndk1::allocator<char> > >, true>, std::__ndk1::allocator<std::__ndk1::__value_type<std::__ndk1::basic_string<char, std::__ndk1::char_traits<char>, std::__ndk1::allocator<char> >, std::__ndk1::shared_ptr<geode::Hook> > > >::erase(std::__ndk1::__tree_const_iterator<std::__ndk1::__value_type<std::__ndk1::basic_string<char, std::__ndk1::char_traits<char>, std::__ndk1::allocator<char> >, std::__ndk1::shared_ptr<geode::Hook> >, std::__ndk1::__tree_node<std::__ndk1::__value_type<std::__ndk1::basic_string<char, std::__ndk1::char_traits<char>, std::__ndk1::allocator<char> >, std::__ndk1::shared_ptr<geode::Hook> >, void*>*, long>)
PUBLIC 7fa8 0 std::__ndk1::__tree<std::__ndk1::__value_type<std::__ndk1::basic_string<char, std::__ndk1::char_traits<char>, std::__ndk1::allocator<char> >, std::__ndk1::shared_ptr<geode::Hook> >, std::__ndk1::__map_value_compare<std::__ndk1::basic_string<char, std::__ndk1::char_traits<char>, std::__ndk1::allocator<char> >, std::__ndk1::__value_type<std::__ndk1::basic_string<char, std::__ndk1::char_traits<char>, std::__ndk1::allocator<char> >, std::__ndk1::shared_ptr<geode::Hook> >, std::__ndk1::less<std::__ndk1::basic_string<char, std::__ndk1::char_traits<char>, std::__ndk1::allocator<char> > >, true>, std::__ndk1::allocator<std::__ndk1::__value_type<std::__ndk1::basic_string<char, std::__ndk1::char_traits<char>, std::__ndk1::allocator<char> >, std::__ndk1::shared_ptr<geode::Hook> > > >::destroy(std::__ndk1::__tree_node<std::__ndk1::__value_type<std::__ndk1::basic_string<char, std::__ndk1::char_traits<char>, std::__ndk1::allocator<char> >, std::__ndk1::shared_ptr<geode::Hook> >, void*>*)
PUBLIC 802c 0 geode::modifier::AsStaticFunction_init<CustomMoreOptionsLayer, bool (CustomMoreOptionsLayer::*)()>::Impl<bool (CustomMoreOptionsLayer::*)()>::function(CustomMoreOptionsLayer*)
PUBLIC 8208 0 geode::addresser::Addresser::addressOfVirtual<bool, MoreOptionsLayer, >(bool (MoreOptionsLayer::*)())
PUBLIC 82b0 0 MoreOptionsLayer::MoreOptionsLayer(geode::ZeroConstructorType)
PUBLIC 834c 0 std::__ndk1::shared_ptr<tulip::hook::CallingConvention>::~shared_ptr[abi:ne180000]()
PUBLIC 839c 0 tulip::hook::HandlerMetadata::~HandlerMetadata()
PUBLIC 8400 0 geode::Mod::getSavedValue<float>(std::__ndk1::basic_string_view<char, std::__ndk1::char_traits<char> >, float const&)
PUBLIC 85d8 0 CustomMoreOptionsLayer::onBumpscosityChange(cocos2d::CCObject*)
PUBLIC 87f8 0 CustomMoreOptionsLayer::setBumpscosityLabel(float)
PUBLIC 898c 0 geode::impl::ResultData<matjson::Value&, std::__ndk1::basic_string<char, std::__ndk1::char_traits<char>, std::__ndk1::allocator<char> > >::~ResultData()
PUBLIC 8a00 0 matjson::Value::as<float>() const
PUBLIC 8b0c 0 std::__ndk1::__variant_detail::__visitation::__base::__dispatcher<(unsigned long)0>::__dispatch[abi:ne180000]<std::__ndk1::__variant_detail::__dtor<std::__ndk1::__variant_detail::__traits<double, std::__ndk1::basic_string<char, std::__ndk1::char_traits<char>, std::__ndk1::allocator<char> > >, (std::__ndk1::__variant_detail::_Trait)1>::__destroy[abi:ne180000]()::{lambda(auto:1&)#1}, std::__ndk1::__variant_detail::__base<(std::__ndk1::__variant_detail::__traits<double, std::__ndk1::basic_string<char, std::__ndk1::char_traits<char>, std::__ndk1::allocator<char> > >)1, double, std::__ndk1::allocator<char> >&>(std::__ndk1::__variant_detail::__dtor<std::__ndk1::__variant_detail::__traits<double, std::__ndk1::basic_string<char, std::__ndk1::char_traits<char>, std::__ndk1::allocator<char> > >, (std::__ndk1::__variant_detail::_Trait)1>, std::__ndk1::__variant_detail::__base<(std::__ndk1::__variant_detail::__traits<double, std::__ndk1::basic_string<char, std::__ndk1::char_traits<char>, std::__ndk1::allocator<char> > >)1, double, std::__ndk1::allocator<char> >&)
PUBLIC 8b10 0 std::__ndk1::__variant_detail::__visitation::__base::__dispatcher<(unsigned long)1>::__dispatch[abi:ne180000]<std::__ndk1::__variant_detail::__dtor<std::__ndk1::__variant_detail::__traits<double, std::__ndk1::basic_string<char, std::__ndk1::char_traits<char>, std::__ndk1::allocator<char> > >, (std::__ndk1::__variant_detail::_Trait)1>::__destroy[abi:ne180000]()::{lambda(auto:1&)#1}, std::__ndk1::__variant_detail::__base<(std::__ndk1::__variant_detail::__traits<double, std::__ndk1::basic_string<char, std::__ndk1::char_traits<char>, std::__ndk1::allocator<char> > >)1, double, std::__ndk1::allocator<char> >&>(std::__ndk1::__variant_detail::__dtor<std::__ndk1::__variant_detail::__traits<double, std::__ndk1::basic_string<char, std::__ndk1::char_traits<char>, std::__ndk1::allocator<char> > >, (std::__ndk1::__variant_detail::_Trait)1>, std::__ndk1::__variant_detail::__base<(std::__ndk1::__variant_detail::__traits<double, std::__ndk1::basic_string<char, std::__ndk1::char_traits<char>, std::__ndk1::allocator<char> > >)1, double, std::__ndk1::allocator<char> >&)
PUBLIC 8b24 0 std::__ndk1::__variant_detail::__visitation::__base::__dispatcher<(unsigned long)0>::__dispatch[abi:ne180000]<std::__ndk1::__variant_detail::__dtor<std::__ndk1::__variant_detail::__traits<std::__ndk1::reference_wrapper<matjson::Value>, std::__ndk1::basic_string<char, std::__ndk1::char_traits<char>, std::__ndk1::allocator<char> > >, (std::__ndk1::__variant_detail::_Trait)1>::__destroy[abi:ne180000]()::{lambda(auto:1&)#1}, std::__ndk1::__variant_detail::__base<(std::__ndk1::__variant_detail::__traits<std::__ndk1::reference_wrapper<matjson::Value>, std::__ndk1::basic_string<char, std::__ndk1::char_traits<char>, std::__ndk1::allocator<char> > >)1, matjson::Value, std::__ndk1::allocator<char> >&>(std::__ndk1::__variant_detail::__dtor<std::__ndk1::__variant_detail::__traits<std::__ndk1::reference_wrapper<matjson::Value>, std::__ndk1::basic_string<char, std::__ndk1::char_traits<char>, std::__ndk1::allocator<char> > >, (std::__ndk1::__variant_detail::_Trait)1>, std::__ndk1::__variant_detail::__base<(std::__ndk1::__variant_detail::__traits<std::__ndk1::reference_wrapper<matjson::Value>, std::__ndk1::basic_string<char, std::__ndk1::char_traits<char>, std::__ndk1::allocator<char> > >)1, matjson::Value, std::__ndk1::allocator<char> >&)
PUBLIC 8b28 0 std::__ndk1::__variant_detail::__visitation::__base::__dispatcher<(unsigned long)1>::__dispatch[abi:ne180000]<std::__ndk1::__variant_detail::__dtor<std::__ndk1::__variant_detail::__traits<std::__ndk1::reference_wrapper<matjson::Value>, std::__ndk1::basic_string<char, std::__ndk1::char_traits<char>, std::__ndk1::allocator<char> > >, (std::__ndk1::__variant_detail::_Trait)1>::__destroy[abi:ne180000]()::{lambda(auto:1&)#1}, std::__ndk1::__variant_detail::__base<(std::__ndk1::__variant_detail::__traits<std::__ndk1::reference_wrapper<matjson::Value>, std::__ndk1::basic_string<char, std::__ndk1::char_traits<char>, std::__ndk1::allocator<char> > >)1, matjson::Value, std::__ndk1::allocator<char> >&>(std::__ndk1::__variant_detail::__dtor<std::__ndk1::__variant_detail::__traits<std::__ndk1::reference_wrapper<matjson::Value>, std::__ndk1::basic_string<char, std::__ndk1::char_traits<char>, std::__ndk1::allocator<char> > >, (std::__ndk1::__variant_detail::_Trait)1>, std::__ndk1::__variant_detail::__base<(std::__ndk1::__variant_detail::__traits<std::__ndk1::reference_wrapper<matjson::Value>, std::__ndk1::basic_string<char, std::__ndk1::char_traits<char>, std::__ndk1::allocator<char> > >)1, matjson::Value, std::__ndk1::allocator<char> >&)
PUBLIC 8b3c 0 std::__ndk1::__variant_detail::__visitation::__base::__dispatcher<(unsigned long)0>::__dispatch[abi:ne180000]<std::__ndk1::__variant_detail::__dtor<std::__ndk1::__variant_detail::__traits<float, std::__ndk1::basic_string<char, std::__ndk1::char_traits<char>, std::__ndk1::allocator<char> > >, (std::__ndk1::__variant_detail::_Trait)1>::__destroy[abi:ne180000]()::{lambda(auto:1&)#1}, std::__ndk1::__variant_detail::__base<(std::__ndk1::__variant_detail::__traits<float, std::__ndk1::basic_string<char, std::__ndk1::char_traits<char>, std::__ndk1::allocator<char> > >)1, float, std::__ndk1::allocator<char> >&>(std::__ndk1::__variant_detail::__dtor<std::__ndk1::__variant_detail::__traits<float, std::__ndk1::basic_string<char, std::__ndk1::char_traits<char>, std::__ndk1::allocator<char> > >, (std::__ndk1::__variant_detail::_Trait)1>, std::__ndk1::__variant_detail::__base<(std::__ndk1::__variant_detail::__traits<float, std::__ndk1::basic_string<char, std::__ndk1::char_traits<char>, std::__ndk1::allocator<char> > >)1, float, std::__ndk1::allocator<char> >&)
PUBLIC 8b40 0 std::__ndk1::__variant_detail::__visitation::__base::__dispatcher<(unsigned long)1>::__dispatch[abi:ne180000]<std::__ndk1::__variant_detail::__dtor<std::__ndk1::__variant_detail::__traits<float, std::__ndk1::basic_string<char, std::__ndk1::char_traits<char>, std::__ndk1::allocator<char> > >, (std::__ndk1::__variant_detail::_Trait)1>::__destroy[abi:ne180000]()::{lambda(auto:1&)#1}, std::__ndk1::__variant_detail::__base<(std::__ndk1::__variant_detail::__traits<float, std::__ndk1::basic_string<char, std::__ndk1::char_traits<char>, std::__ndk1::allocator<char> > >)1, float, std::__ndk1::allocator<char> >&>(std::__ndk1::__variant_detail::__dtor<std::__ndk1::__variant_detail::__traits<float, std::__ndk1::basic_string<char, std::__ndk1::char_traits<char>, std::__ndk1::allocator<char> > >, (std::__ndk1::__variant_detail::_Trait)1>, std::__ndk1::__variant_detail::__base<(std::__ndk1::__variant_detail::__traits<float, std::__ndk1::basic_string<char, std::__ndk1::char_traits<char>, std::__ndk1::allocator<char> > >)1, float, std::__ndk1::allocator<char> >&)
PUBLIC 8b54 0 geode::modifier::FieldIntermediate<CustomMoreOptionsLayer, MoreOptionsLayer>::self()
PUBLIC 9194 0 geode::modifier::FieldIntermediate<CustomMoreOptionsLayer, MoreOptionsLayer>::fieldDestructor(void*)
PUBLIC 9198 0 std::__ndk1::vector<void*, std::__ndk1::allocator<void*> >::__throw_length_error[abi:ne180000]() const
PUBLIC 91ac 0 std::__ndk1::vector<std::__ndk1::function<void (void*)>, std::__ndk1::allocator<std::__ndk1::function<void (void*)> > >::__throw_length_error[abi:ne180000]() const
PUBLIC 91c0 0 std::__ndk1::vector<void*, std::__ndk1::allocator<void*> >::__throw_out_of_range[abi:ne180000]() const
PUBLIC 91d4 0 std::__ndk1::__throw_out_of_range[abi:ne180000](char const*)
PUBLIC 9224 0 std::out_of_range::out_of_range[abi:ne180000](char const*)
PUBLIC 9254 0 std::__ndk1::vector<std::__ndk1::function<void (void*)>, std::__ndk1::allocator<std::__ndk1::function<void (void*)> > >::__throw_out_of_range[abi:ne180000]() const
PUBLIC 9268 0 std::__ndk1::__function::__base<void (void*)>::~__base()
PUBLIC 926c 0 std::__ndk1::__function::__func<void (*)(void*), std::__ndk1::allocator<void (*)(void*)>, void (void*)>::~__func()
PUBLIC 9270 0 std::__ndk1::__function::__func<void (*)(void*), std::__ndk1::allocator<void (*)(void*)>, void (void*)>::__clone() const
PUBLIC 92a8 0 std::__ndk1::__function::__func<void (*)(void*), std::__ndk1::allocator<void (*)(void*)>, void (void*)>::__clone(std::__ndk1::__function::__base<void (void*)>*) const
PUBLIC 92c0 0 std::__ndk1::__function::__func<void (*)(void*), std::__ndk1::allocator<void (*)(void*)>, void (void*)>::destroy()
PUBLIC 92c4 0 std::__ndk1::__function::__func<void (*)(void*), std::__ndk1::allocator<void (*)(void*)>, void (void*)>::destroy_deallocate()
PUBLIC 92c8 0 std::__ndk1::__function::__func<void (*)(void*), std::__ndk1::allocator<void (*)(void*)>, void (void*)>::operator()(void*&&)
PUBLIC 92d8 0 std::__ndk1::__function::__func<void (*)(void*), std::__ndk1::allocator<void (*)(void*)>, void (void*)>::target(std::type_info const&) const
PUBLIC 92f4 0 std::__ndk1::__function::__func<void (*)(void*), std::__ndk1::allocator<void (*)(void*)>, void (void*)>::target_type() const
PUBLIC 9300 0 std::__ndk1::__tree<std::__ndk1::__value_type<std::__ndk1::basic_string<char, std::__ndk1::char_traits<char>, std::__ndk1::allocator<char> >, std::__ndk1::shared_ptr<geode::Hook> >, std::__ndk1::__map_value_compare<std::__ndk1::basic_string<char, std::__ndk1::char_traits<char>, std::__ndk1::allocator<char> >, std::__ndk1::__value_type<std::__ndk1::basic_string<char, std::__ndk1::char_traits<char>, std::__ndk1::allocator<char> >, std::__ndk1::shared_ptr<geode::Hook> >, std::__ndk1::less<std::__ndk1::basic_string<char, std::__ndk1::char_traits<char>, std::__ndk1::allocator<char> > >, true>, std::__ndk1::allocator<std::__ndk1::__value_type<std::__ndk1::basic_string<char, std::__ndk1::char_traits<char>, std::__ndk1::allocator<char> >, std::__ndk1::shared_ptr<geode::Hook> > > >::__emplace_unique_key_args<std::__ndk1::basic_string<char, std::__ndk1::char_traits<char>, std::__ndk1::allocator<char> >, std::__ndk1::piecewise_construct_t const&, std::__ndk1::tuple<std::__ndk1::basic_string<char, std::__ndk1::char_traits<char>, std::__ndk1::allocator<char> >&&>, std::__ndk1::tuple<> >(std::__ndk1::basic_string<char, std::__ndk1::char_traits<char>, std::__ndk1::allocator<char> > const&, std::__ndk1::piecewise_construct_t const&, std::__ndk1::tuple<std::__ndk1::basic_string<char, std::__ndk1::char_traits<char>, std::__ndk1::allocator<char> >&&>, std::__ndk1::tuple<>)
PUBLIC 9468 0 std::__ndk1::__tree_balance_after_insert[abi:ne180000]<std::__ndk1::__tree_node_base<void*>*>(std::__ndk1::__tree_node_base<void*>*, std::__ndk1::__tree_node_base<void*>*)
PUBLIC 9618 0 geode::modifier::ModifyDerive<CustomSecretLayer2, SecretLayer2>::apply()
PUBLIC 9b9c 0 geode::modifier::ModifyBase<geode::modifier::ModifyDerive<CustomSecretLayer2, SecretLayer2> >::apply()
PUBLIC 9ba0 0 geode::modifier::AsStaticFunction_init<CustomSecretLayer2, bool (CustomSecretLayer2::*)()>::Impl<bool (CustomSecretLayer2::*)()>::function(CustomSecretLayer2*)
PUBLIC 9cbc 0 geode::modifier::AsStaticFunction_getBasicMessage<CustomSecretLayer2, gd::string (CustomSecretLayer2::*)()>::Impl<gd::string (CustomSecretLayer2::*)()>::function(CustomSecretLayer2*)
PUBLIC 9dfc 0 geode::addresser::Addresser::addressOfVirtual<bool, SecretLayer2, >(bool (SecretLayer2::*)())
PUBLIC 9ea4 0 SecretLayer2::SecretLayer2(geode::ZeroConstructorType)
PUBLIC m 9f44 0 geodeImplicitEntry
PUBLIC 9f80 0 wrapFunction(unsigned long, tulip::hook::WrapperMetadata const&)
PUBLIC a0b4 0 geode::impl::ResultData<void*, std::__ndk1::basic_string<char, std::__ndk1::char_traits<char>, std::__ndk1::allocator<char> > >::unwrapErr() &
PUBLIC a12c 0 geode::impl::ResultData<void*, std::__ndk1::basic_string<char, std::__ndk1::char_traits<char>, std::__ndk1::allocator<char> > >::~ResultData()
PUBLIC a1a0 0 tulip::hook::WrapperMetadata::~WrapperMetadata()
PUBLIC a204 0 SecretLayer2::updateMessageLabel(gd::string)
PUBLIC a37c 0 tulip::hook::AbstractFunction::from<void, SecretLayer2*, gd::string>(void (*)(SecretLayer2*, gd::string))
PUBLIC a420 0 _ZN5geode15UnwrapExceptionC2IRPvQsr4implE18IsStringStreamableIT_EEENS_4impl5OkTagEOS4_
PUBLIC a574 0 _ZN5geode15UnwrapExceptionC2IRNSt6__ndk112basic_stringIcNS2_11char_traitsIcEENS2_9allocatorIcEEEEQsr4implE18IsStringStreamableIT_EEENS_4impl6ErrTagEOSA_
PUBLIC a6dc 0 std::__ndk1::__variant_detail::__visitation::__base::__dispatcher<(unsigned long)0>::__dispatch[abi:ne180000]<std::__ndk1::__variant_detail::__dtor<std::__ndk1::__variant_detail::__traits<void*, std::__ndk1::basic_string<char, std::__ndk1::char_traits<char>, std::__ndk1::allocator<char> > >, (std::__ndk1::__variant_detail::_Trait)1>::__destroy[abi:ne180000]()::{lambda(auto:1&)#1}, std::__ndk1::__variant_detail::__base<(std::__ndk1::__variant_detail::__traits<void*, std::__ndk1::basic_string<char, std::__ndk1::char_traits<char>, std::__ndk1::allocator<char> > >)1, std::__ndk1::__variant_detail::__traits, std::__ndk1::allocator<char> >&>(std::__ndk1::__variant_detail::__dtor<std::__ndk1::__variant_detail::__traits<void*, std::__ndk1::basic_string<char, std::__ndk1::char_traits<char>, std::__ndk1::allocator<char> > >, (std::__ndk1::__variant_detail::_Trait)1>, std::__ndk1::__variant_detail::__base<(std::__ndk1::__variant_detail::__traits<void*, std::__ndk1::basic_string<char, std::__ndk1::char_traits<char>, std::__ndk1::allocator<char> > >)1, std::__ndk1::__variant_detail::__traits, std::__ndk1::allocator<char> >&)
PUBLIC a6e0 0 std::__ndk1::__variant_detail::__visitation::__base::__dispatcher<(unsigned long)1>::__dispatch[abi:ne180000]<std::__ndk1::__variant_detail::__dtor<std::__ndk1::__variant_detail::__traits<void*, std::__ndk1::basic_string<char, std::__ndk1::char_traits<char>, std::__ndk1::allocator<char> > >, (std::__ndk1::__variant_detail::_Trait)1>::__destroy[abi:ne180000]()::{lambda(auto:1&)#1}, std::__ndk1::__variant_detail::__base<(std::__ndk1::__variant_detail::__traits<void*, std::__ndk1::basic_string<char, std::__ndk1::char_traits<char>, std::__ndk1::allocator<char> > >)1, std::__ndk1::__variant_detail::__traits, std::__ndk1::allocator<char> >&>(std::__ndk1::__variant_detail::__dtor<std::__ndk1::__variant_detail::__traits<void*, std::__ndk1::basic_string<char, std::__ndk1::char_traits<char>, std::__ndk1::allocator<char> > >, (std::__ndk1::__variant_detail::_Trait)1>, std::__ndk1::__variant_detail::__base<(std::__ndk1::__variant_detail::__traits<void*, std::__ndk1::basic_string<char, std::__ndk1::char_traits<char>, std::__ndk1::allocator<char> > >)1, std::__ndk1::__variant_detail::__traits, std::__ndk1::allocator<char> >&)
PUBLIC a700 0 <.plt ELF section in colon.bumpscosity.android64.so>
STACK CFI INIT 50e0 10 .cfa: sp 0 +
STACK CFI INIT 50f0 8 .cfa: sp 0 +
STACK CFI INIT 50f8 8 .cfa: sp 0 +
STACK CFI INIT 5100 14 .cfa: sp 0 +
STACK CFI INIT 5114 1c .cfa: sp 0 +
STACK CFI INIT 5130 10 .cfa: sp 0 +
STACK CFI INIT 5140 30 .cfa: sp 0 +
STACK CFI INIT 5170 98 .cfa: sp 0 +
STACK CFI INIT 5208 59c .cfa: sp 0 +
STACK CFI INIT 57a4 8c .cfa: sp 0 +
STACK CFI INIT 5830 30 .cfa: sp 0 +
STACK CFI INIT 5860 224 .cfa: sp 0 +
STACK CFI 5864 .cfa: sp 16 +
STACK CFI 5868 .cfa: x29 16 + .ra: .cfa -8 + ^ x29: .cfa -16 + ^
STACK CFI 591c .cfa: sp 16 +
STACK CFI 5920 .cfa: sp 0 +
STACK CFI 5924 .cfa: x29 16 +
STACK CFI 5a7c .cfa: sp 16 +
STACK CFI 5a80 .cfa: sp 0 +
STACK CFI INIT 6348 18 .cfa: sp 0 +
STACK CFI INIT 67e4 18 .cfa: sp 0 +
STACK CFI INIT 67fc 14 .cfa: sp 0 +
STACK CFI 6800 .cfa: sp 16 +
STACK CFI 6804 .cfa: x29 16 + .ra: .cfa -8 + ^ x29: .cfa -16 + ^
STACK CFI INIT 6860 30 .cfa: sp 0 +
STACK CFI 6864 .cfa: sp 32 +
STACK CFI 686c .cfa: x29 32 + x19: .cfa -16 + ^ .ra: .cfa -24 + ^ x29: .cfa -32 + ^
STACK CFI 6884 .cfa: sp 32 +
STACK CFI 688c .cfa: sp 0 +
STACK CFI INIT 6890 34 .cfa: sp 0 +
STACK CFI 6894 .cfa: sp 32 +
STACK CFI 689c .cfa: x29 32 + x19: .cfa -16 + ^ .ra: .cfa -24 + ^ x29: .cfa -32 + ^
STACK CFI INIT 68c4 10 .cfa: sp 0 +
STACK CFI 68c8 .cfa: sp 16 +
STACK CFI 68cc .cfa: x29 16 + .ra: .cfa -8 + ^ x29: .cfa -16 + ^
STACK CFI INIT 6bd0 50 .cfa: sp 0 +
STACK CFI 6bd4 .cfa: sp 32 +
STACK CFI 6bdc .cfa: x29 32 + x19: .cfa -16 + ^ .ra: .cfa -24 + ^ x29: .cfa -32 + ^
STACK CFI 6bf4 .cfa: sp 32 +
STACK CFI 6bfc .cfa: sp 0 +
STACK CFI 6c00 .cfa: x29 32 +
STACK CFI 6c14 .cfa: sp 32 +
STACK CFI 6c1c .cfa: sp 0 +
STACK CFI INIT 6c94 7c .cfa: sp 0 +
STACK CFI 6c98 .cfa: sp 48 +
STACK CFI 6ca4 .cfa: x29 48 + x19: .cfa -8 + ^ x20: .cfa -16 + ^ x21: .cfa -32 + ^ .ra: .cfa -40 + ^ x29: .cfa -48 + ^
STACK CFI 6cf0 .cfa: sp 48 +
STACK CFI 6cfc .cfa: sp 0 +
STACK CFI 6d00 .cfa: sp 48 +
STACK CFI 6d0c .cfa: sp 0 +
STACK CFI INIT 6d10 4 .cfa: sp 0 +
STACK CFI INIT 6e68 34 .cfa: sp 0 +
STACK CFI 6e6c .cfa: sp 16 +
STACK CFI 6e70 .cfa: x29 16 + .ra: .cfa -8 + ^ x29: .cfa -16 + ^
STACK CFI INIT 6fc8 80 .cfa: sp 0 +
STACK CFI 6fcc .cfa: sp 48 +
STACK CFI 6fd8 .cfa: x29 48 + x19: .cfa -8 + ^ x20: .cfa -16 + ^ x21: .cfa -32 + ^ .ra: .cfa -40 + ^ x29: .cfa -48 + ^
STACK CFI 7038 .cfa: sp 48 +
STACK CFI 7044 .cfa: sp 0 +
STACK CFI INIT 7048 24 .cfa: sp 0 +
STACK CFI 704c .cfa: sp 32 +
STACK CFI 7054 .cfa: x29 32 + x19: .cfa -16 + ^ .ra: .cfa -24 + ^ x29: .cfa -32 + ^
STACK CFI 7060 .cfa: sp 32 +
STACK CFI 7068 .cfa: sp 0 +
STACK CFI INIT 7564 148 .cfa: sp 0 +
STACK CFI 7568 .cfa: sp 48 +
STACK CFI 7574 .cfa: x29 48 + x19: .cfa -8 + ^ x20: .cfa -16 + ^ x21: .cfa -32 + ^ .ra: .cfa -40 + ^ x29: .cfa -48 + ^
STACK CFI 769c .cfa: sp 48 +
STACK CFI 76a8 .cfa: sp 0 +
STACK CFI INIT 78d0 80 .cfa: sp 0 +
STACK CFI 78d4 .cfa: sp 48 +
STACK CFI 78e0 .cfa: x29 48 + x19: .cfa -8 + ^ x20: .cfa -16 + ^ x21: .cfa -24 + ^ x22: .cfa -32 + ^ .ra: .cfa -40 + ^ x29: .cfa -48 + ^
STACK CFI 78f8 .cfa: sp 48 +
STACK CFI 7904 .cfa: sp 0 +
STACK CFI 7908 .cfa: x29 48 +
STACK CFI 7938 .cfa: sp 48 +
STACK CFI 7944 .cfa: sp 0 +
STACK CFI 7948 .cfa: x29 48 +
STACK CFI INIT 7950 68 .cfa: sp 0 +
STACK CFI 7954 .cfa: sp 32 +
STACK CFI 795c .cfa: x29 32 + x19: .cfa -8 + ^ x20: .cfa -16 + ^ .ra: .cfa -24 + ^ x29: .cfa -32 + ^
STACK CFI 7974 .cfa: sp 32 +
STACK CFI 797c .cfa: sp 0 +
STACK CFI 7980 .cfa: x29 32 +
STACK CFI 79ac .cfa: sp 32 +
STACK CFI 79b4 .cfa: sp 0 +
STACK CFI INIT 79b8 14 .cfa: sp 0 +
STACK CFI 79bc .cfa: sp 16 +
STACK CFI 79c0 .cfa: x29 16 + .ra: .cfa -8 + ^ x29: .cfa -16 + ^
STACK CFI INIT 79cc 4 .cfa: sp 0 +
STACK CFI INIT 79d0 14 .cfa: sp 0 +
STACK CFI INIT 79e4 120 .cfa: sp 0 +
STACK CFI 79e8 .cfa: sp 64 +
STACK CFI 79f8 .cfa: x29 64 + x19: .cfa -8 + ^ x20: .cfa -16 + ^ x21: .cfa -24 + ^ x22: .cfa -32 + ^ x23: .cfa -40 + ^ x24: .cfa -48 + ^ .ra: .cfa -56 + ^ x29: .cfa -64 + ^
STACK CFI 7af0 .cfa: sp 64 +
STACK CFI 7b00 .cfa: sp 0 +
STACK CFI INIT 7b04 4a4 .cfa: sp 0 +
STACK CFI 7b08 .cfa: sp 32 +
STACK CFI 7b10 .cfa: x29 32 + x19: .cfa -8 + ^ x20: .cfa -16 + ^ .ra: .cfa -24 + ^ x29: .cfa -32 + ^
STACK CFI 7ef0 .cfa: sp 32 +
STACK CFI 7ef8 .cfa: sp 0 +
STACK CFI 7efc .cfa: x29 32 +
STACK CFI INIT 7fa8 84 .cfa: sp 0 +
STACK CFI 7fb0 .cfa: sp 32 +
STACK CFI 7fb8 .cfa: x29 32 + x19: .cfa -8 + ^ x20: .cfa -16 + ^ .ra: .cfa -24 + ^ x29: .cfa -32 + ^
STACK CFI 7ff8 .cfa: sp 32 +
STACK CFI 8000 .cfa: sp 0 +
STACK CFI 8008 .cfa: x29 32 +
STACK CFI INIT 802c 1dc .cfa: sp 0 +
STACK CFI 8030 .cfa: sp 112 +
STACK CFI 804c .cfa: x29 56 + x19: .cfa -8 + ^ x20: .cfa -16 + ^ x21: .cfa -24 + ^ x22: .cfa -32 + ^ x23: .cfa -40 + ^ .ra: .cfa -48 + ^ x29: .cfa -56 + ^ v8: .cfa -64 + ^ v9: .cfa -72 + ^ v10: .cfa -80 + ^
STACK CFI 81e4 .cfa: sp 112 +
STACK CFI 8200 .cfa: sp 0 +
STACK CFI 8204 .cfa: x29 56 +
STACK CFI INIT 82b0 9c .cfa: sp 0 +
STACK CFI 82b4 .cfa: sp 32 +
STACK CFI 82bc .cfa: x29 32 + x19: .cfa -16 + ^ .ra: .cfa -24 + ^ x29: .cfa -32 + ^
STACK CFI 8340 .cfa: sp 32 +
STACK CFI 8348 .cfa: sp 0 +
STACK CFI INIT 834c 50 .cfa: sp 0 +
STACK CFI 8350 .cfa: sp 32 +
STACK CFI 8358 .cfa: x29 32 + x19: .cfa -16 + ^ .ra: .cfa -24 + ^ x29: .cfa -32 + ^
STACK CFI 8370 .cfa: sp 32 +
STACK CFI 8378 .cfa: sp 0 +
STACK CFI 837c .cfa: x29 32 +
STACK CFI 8390 .cfa: sp 32 +
STACK CFI 8398 .cfa: sp 0 +
STACK CFI INIT 839c 64 .cfa: sp 0 +
STACK CFI 83a0 .cfa: sp 32 +
STACK CFI 83a8 .cfa: x29 32 + x19: .cfa -16 + ^ .ra: .cfa -24 + ^ x29: .cfa -32 + ^
STACK CFI 83d4 .cfa: sp 32 +
STACK CFI 83dc .cfa: sp 0 +
STACK CFI 83e0 .cfa: x29 32 +
STACK CFI 83f4 .cfa: sp 32 +
STACK CFI 83fc .cfa: sp 0 +
STACK CFI INIT 8b0c 4 .cfa: sp 0 +
STACK CFI INIT 8b10 14 .cfa: sp 0 +
STACK CFI INIT 8b24 4 .cfa: sp 0 +
STACK CFI INIT 8b28 14 .cfa: sp 0 +
STACK CFI INIT 8b3c 4 .cfa: sp 0 +
STACK CFI INIT 8b40 14 .cfa: sp 0 +
STACK CFI INIT 9194 4 .cfa: sp 0 +
STACK CFI INIT 9198 14 .cfa: sp 0 +
STACK CFI 919c .cfa: sp 16 +
STACK CFI 91a0 .cfa: x29 16 + .ra: .cfa -8 + ^ x29: .cfa -16 + ^
STACK CFI INIT 91ac 14 .cfa: sp 0 +
STACK CFI 91b0 .cfa: sp 16 +
STACK CFI 91b4 .cfa: x29 16 + .ra: .cfa -8 + ^ x29: .cfa -16 + ^
STACK CFI INIT 91c0 14 .cfa: sp 0 +
STACK CFI 91c4 .cfa: sp 16 +
STACK CFI 91c8 .cfa: x29 16 + .ra: .cfa -8 + ^ x29: .cfa -16 + ^
STACK CFI INIT 9224 30 .cfa: sp 0 +
STACK CFI 9228 .cfa: sp 32 +
STACK CFI 9230 .cfa: x29 32 + x19: .cfa -16 + ^ .ra: .cfa -24 + ^ x29: .cfa -32 + ^
STACK CFI 9248 .cfa: sp 32 +
STACK CFI 9250 .cfa: sp 0 +
STACK CFI INIT 9254 14 .cfa: sp 0 +
STACK CFI 9258 .cfa: sp 16 +
STACK CFI 925c .cfa: x29 16 + .ra: .cfa -8 + ^ x29: .cfa -16 + ^
STACK CFI INIT 9268 4 .cfa: sp 0 +
STACK CFI INIT 926c 4 .cfa: sp 0 +
STACK CFI INIT 9270 38 .cfa: sp 0 +
STACK CFI 9274 .cfa: sp 32 +
STACK CFI 927c .cfa: x29 32 + x19: .cfa -16 + ^ .ra: .cfa -24 + ^ x29: .cfa -32 + ^
STACK CFI 929c .cfa: sp 32 +
STACK CFI 92a4 .cfa: sp 0 +
STACK CFI INIT 92a8 18 .cfa: sp 0 +
STACK CFI INIT 92c0 4 .cfa: sp 0 +
STACK CFI INIT 92c4 4 .cfa: sp 0 +
STACK CFI INIT 92c8 10 .cfa: sp 0 +
STACK CFI INIT 92d8 1c .cfa: sp 0 +
STACK CFI INIT 92f4 c .cfa: sp 0 +
STACK CFI INIT 9300 168 .cfa: sp 0 +
STACK CFI 9304 .cfa: sp 80 +
STACK CFI 9318 .cfa: x29 80 + x19: .cfa -8 + ^ x20: .cfa -16 + ^ x21: .cfa -24 + ^ x22: .cfa -32 + ^ x23: .cfa -40 + ^ x24: .cfa -48 + ^ x25: .cfa -56 + ^ x26: .cfa -64 + ^ .ra: .cfa -72 + ^ x29: .cfa -80 + ^
STACK CFI 9450 .cfa: sp 80 +
STACK CFI 9464 .cfa: sp 0 +
STACK CFI INIT 9468 1b0 .cfa: sp 0 +
STACK CFI INIT 9b9c 4 .cfa: sp 0 +
STACK CFI INIT 9cbc 140 .cfa: sp 0 +
STACK CFI 9cc0 .cfa: sp 64 +
STACK CFI 9cd0 .cfa: x29 48 + x19: .cfa -8 + ^ x20: .cfa -16 + ^ x21: .cfa -32 + ^ .ra: .cfa -40 + ^ x29: .cfa -48 + ^
STACK CFI 9d24 .cfa: sp 64 +
STACK CFI 9d34 .cfa: sp 0 +
STACK CFI 9d38 .cfa: x29 48 +
STACK CFI 9dd0 .cfa: sp 64 +
STACK CFI 9de0 .cfa: sp 0 +
STACK CFI 9de4 .cfa: x29 48 +
STACK CFI INIT 9ea4 a0 .cfa: sp 0 +
STACK CFI INIT 9f44 3c .cfa: sp 0 +
STACK CFI 9f48 .cfa: sp 32 +
STACK CFI 9f50 .cfa: x29 32 + x19: .cfa -16 + ^ .ra: .cfa -24 + ^ x29: .cfa -32 + ^
STACK CFI 9f5c .cfa: sp 32 +
STACK CFI 9f64 .cfa: sp 0 +
STACK CFI 9f68 .cfa: x29 32 +
STACK CFI 9f74 .cfa: sp 32 +
STACK CFI 9f7c .cfa: sp 0 +
STACK CFI INIT a1a0 64 .cfa: sp 0 +
STACK CFI a1a4 .cfa: sp 32 +
STACK CFI a1ac .cfa: x29 32 + x19: .cfa -16 + ^ .ra: .cfa -24 + ^ x29: .cfa -32 + ^
STACK CFI a1d8 .cfa: sp 32 +
STACK CFI a1e0 .cfa: sp 0 +
STACK CFI a1e4 .cfa: x29 32 +
STACK CFI a1f8 .cfa: sp 32 +
STACK CFI a200 .cfa: sp 0 +
STACK CFI INIT a6dc 4 .cfa: sp 0 +
STACK CFI INIT a6e0 14 .cfa: sp 0 +
STACK CFI INIT 5ec4 484 .cfa: sp 0 +
STACK CFI 5ec8 .cfa: sp 224 +
STACK CFI 5ee4 .cfa: x29 96 + x19: .cfa -8 + ^ x20: .cfa -16 + ^ x21: .cfa -24 + ^ x22: .cfa -32 + ^ x23: .cfa -40 + ^ x24: .cfa -48 + ^ x25: .cfa -56 + ^ x26: .cfa -64 + ^ x27: .cfa -72 + ^ x28: .cfa -80 + ^ .ra: .cfa -88 + ^ x29: .cfa -96 + ^
STACK CFI 6154 .cfa: sp 224 +
STACK CFI 6170 .cfa: sp 0 +
STACK CFI 6174 .cfa: x29 96 +
STACK CFI 6240 .cfa: sp 224 +
STACK CFI 625c .cfa: sp 0 +
STACK CFI 6260 .cfa: x29 96 +
STACK CFI INIT 6360 484 .cfa: sp 0 +
STACK CFI 6364 .cfa: sp 224 +
STACK CFI 6380 .cfa: x29 96 + x19: .cfa -8 + ^ x20: .cfa -16 + ^ x21: .cfa -24 + ^ x22: .cfa -32 + ^ x23: .cfa -40 + ^ x24: .cfa -48 + ^ x25: .cfa -56 + ^ x26: .cfa -64 + ^ x27: .cfa -72 + ^ x28: .cfa -80 + ^ .ra: .cfa -88 + ^ x29: .cfa -96 + ^
STACK CFI 65f0 .cfa: sp 224 +
STACK CFI 660c .cfa: sp 0 +
STACK CFI 6610 .cfa: x29 96 +
STACK CFI 66dc .cfa: sp 224 +
STACK CFI 66f8 .cfa: sp 0 +
STACK CFI 66fc .cfa: x29 96 +
STACK CFI INIT 6810 50 .cfa: sp 0 +
STACK CFI 6814 .cfa: sp 32 +
STACK CFI 681c .cfa: x29 32 + x19: .cfa -8 + ^ x20: .cfa -16 + ^ .ra: .cfa -24 + ^ x29: .cfa -32 + ^
STACK CFI INIT 68d4 2fc .cfa: sp 0 +
STACK CFI 68d8 .cfa: sp 192 +
STACK CFI 68ec .cfa: x29 64 + x19: .cfa -8 + ^ x20: .cfa -16 + ^ x21: .cfa -24 + ^ x22: .cfa -32 + ^ x23: .cfa -48 + ^ .ra: .cfa -56 + ^ x29: .cfa -64 + ^
STACK CFI 6ac8 .cfa: sp 192 +
STACK CFI 6adc .cfa: sp 0 +
STACK CFI 6ae0 .cfa: x29 64 +
STACK CFI INIT 6c20 74 .cfa: sp 0 +
STACK CFI 6c24 .cfa: sp 48 +
STACK CFI 6c30 .cfa: x29 32 + x19: .cfa -8 + ^ x20: .cfa -16 + ^ .ra: .cfa -24 + ^ x29: .cfa -32 + ^
STACK CFI 6c7c .cfa: sp 48 +
STACK CFI 6c88 .cfa: sp 0 +
STACK CFI 6c8c .cfa: x29 32 +
STACK CFI INIT 6d14 154 .cfa: sp 0 +
STACK CFI 6d18 .cfa: sp 384 +
STACK CFI 6d2c .cfa: x29 64 + x19: .cfa -8 + ^ x20: .cfa -16 + ^ x21: .cfa -24 + ^ x22: .cfa -32 + ^ x23: .cfa -40 + ^ x28: .cfa -48 + ^ .ra: .cfa -56 + ^ x29: .cfa -64 + ^
STACK CFI 6e10 .cfa: sp 384 +
STACK CFI 6e24 .cfa: sp 0 +
STACK CFI 6e28 .cfa: x29 64 +
STACK CFI INIT 6e9c 12c .cfa: sp 0 +
STACK CFI 6ea0 .cfa: sp 80 +
STACK CFI 6eb4 .cfa: x29 80 + x19: .cfa -8 + ^ x20: .cfa -16 + ^ x21: .cfa -24 + ^ x22: .cfa -32 + ^ x23: .cfa -40 + ^ x24: .cfa -48 + ^ x25: .cfa -56 + ^ x26: .cfa -64 + ^ .ra: .cfa -72 + ^ x29: .cfa -80 + ^
STACK CFI 6f7c .cfa: sp 80 +
STACK CFI 6f90 .cfa: sp 0 +
STACK CFI 6f94 .cfa: x29 80 +
STACK CFI INIT 706c 1a4 .cfa: sp 0 +
STACK CFI 7070 .cfa: sp 112 +
STACK CFI 7088 .cfa: x29 80 + x19: .cfa -8 + ^ x20: .cfa -16 + ^ x21: .cfa -24 + ^ x22: .cfa -32 + ^ x23: .cfa -40 + ^ x24: .cfa -48 + ^ x25: .cfa -56 + ^ x26: .cfa -64 + ^ .ra: .cfa -72 + ^ x29: .cfa -80 + ^
STACK CFI 7178 .cfa: sp 112 +
STACK CFI 7190 .cfa: sp 0 +
STACK CFI 7194 .cfa: x29 80 +
STACK CFI INIT 7210 1dc .cfa: sp 0 +
STACK CFI 7214 .cfa: sp 128 +
STACK CFI 7230 .cfa: x29 96 + x19: .cfa -8 + ^ x20: .cfa -16 + ^ x21: .cfa -24 + ^ x22: .cfa -32 + ^ x23: .cfa -40 + ^ x24: .cfa -48 + ^ x25: .cfa -56 + ^ x26: .cfa -64 + ^ x27: .cfa -80 + ^ .ra: .cfa -88 + ^ x29: .cfa -96 + ^
STACK CFI 739c .cfa: sp 128 +
STACK CFI 73b8 .cfa: sp 0 +
STACK CFI 73bc .cfa: x29 96 +
STACK CFI INIT 73ec 178 .cfa: sp 0 +
STACK CFI 73f0 .cfa: sp 80 +
STACK CFI 7404 .cfa: x29 80 + x19: .cfa -8 + ^ x20: .cfa -16 + ^ x21: .cfa -24 + ^ x22: .cfa -32 + ^ x23: .cfa -40 + ^ x24: .cfa -48 + ^ x25: .cfa -64 + ^ .ra: .cfa -72 + ^ x29: .cfa -80 + ^
STACK CFI 7530 .cfa: sp 80 +
STACK CFI 7544 .cfa: sp 0 +
STACK CFI 7548 .cfa: x29 80 +
STACK CFI INIT 76ac 224 .cfa: sp 0 +
STACK CFI 76b0 .cfa: sp 128 +
STACK CFI 76c8 .cfa: x29 80 + x19: .cfa -8 + ^ x20: .cfa -16 + ^ x21: .cfa -24 + ^ x22: .cfa -32 + ^ x23: .cfa -40 + ^ x24: .cfa -48 + ^ x25: .cfa -64 + ^ .ra: .cfa -72 + ^ x29: .cfa -80 + ^
STACK CFI 7864 .cfa: sp 128 +
STACK CFI 787c .cfa: sp 0 +
STACK CFI 7880 .cfa: x29 80 +
STACK CFI INIT 8208 a8 .cfa: sp 0 +
STACK CFI 820c .cfa: sp 32 +
STACK CFI 8214 .cfa: x29 32 + x19: .cfa -16 + ^ .ra: .cfa -24 + ^ x29: .cfa -32 + ^
STACK CFI 8248 .cfa: sp 32 +
STACK CFI 8250 .cfa: sp 0 +
STACK CFI 8254 .cfa: x29 32 +
STACK CFI 8258 .cfa: sp 32 +
STACK CFI 8260 .cfa: sp 0 +
STACK CFI 8264 .cfa: x29 32 +
STACK CFI INIT 8400 1d8 .cfa: sp 0 +
STACK CFI 8404 .cfa: sp 192 +
STACK CFI 8418 .cfa: x29 48 + x19: .cfa -8 + ^ x20: .cfa -16 + ^ x21: .cfa -24 + ^ x22: .cfa -32 + ^ .ra: .cfa -40 + ^ x29: .cfa -48 + ^ v8: .cfa -64 + ^
STACK CFI 8568 .cfa: sp 192 +
STACK CFI 857c .cfa: sp 0 +
STACK CFI 8580 .cfa: x29 48 +
STACK CFI INIT 85d8 220 .cfa: sp 0 +
STACK CFI 85dc .cfa: sp 176 +
STACK CFI 85f0 .cfa: x29 48 + x19: .cfa -8 + ^ x20: .cfa -16 + ^ x21: .cfa -24 + ^ x22: .cfa -32 + ^ .ra: .cfa -40 + ^ x29: .cfa -48 + ^ v8: .cfa -56 + ^ v9: .cfa -64 + ^
STACK CFI 8788 .cfa: sp 176 +
STACK CFI 879c .cfa: sp 0 +
STACK CFI 87a0 .cfa: x29 48 +
STACK CFI INIT 87f8 194 .cfa: sp 0 +
STACK CFI 87fc .cfa: sp 112 +
STACK CFI 880c .cfa: x29 48 + x19: .cfa -8 + ^ x20: .cfa -16 + ^ x21: .cfa -32 + ^ .ra: .cfa -40 + ^ x29: .cfa -48 + ^
STACK CFI 8910 .cfa: sp 112 +
STACK CFI 8920 .cfa: sp 0 +
STACK CFI 8924 .cfa: x29 48 +
STACK CFI INIT 898c 74 .cfa: sp 0 +
STACK CFI 8990 .cfa: sp 48 +
STACK CFI 899c .cfa: x29 32 + x19: .cfa -8 + ^ x20: .cfa -16 + ^ .ra: .cfa -24 + ^ x29: .cfa -32 + ^
STACK CFI 89e8 .cfa: sp 48 +
STACK CFI 89f4 .cfa: sp 0 +
STACK CFI 89f8 .cfa: x29 32 +
STACK CFI INIT 8a00 10c .cfa: sp 0 +
STACK CFI 8a04 .cfa: sp 112 +
STACK CFI 8a10 .cfa: x29 32 + x19: .cfa -8 + ^ x20: .cfa -16 + ^ .ra: .cfa -24 + ^ x29: .cfa -32 + ^
STACK CFI 8adc .cfa: sp 112 +
STACK CFI 8ae8 .cfa: sp 0 +
STACK CFI 8aec .cfa: x29 32 +
STACK CFI INIT 8b54 640 .cfa: sp 0 +
STACK CFI 8b58 .cfa: sp 224 +
STACK CFI 8b74 .cfa: x29 96 + x19: .cfa -8 + ^ x20: .cfa -16 + ^ x21: .cfa -24 + ^ x22: .cfa -32 + ^ x23: .cfa -40 + ^ x24: .cfa -48 + ^ x25: .cfa -56 + ^ x26: .cfa -64 + ^ x27: .cfa -72 + ^ x28: .cfa -80 + ^ .ra: .cfa -88 + ^ x29: .cfa -96 + ^
STACK CFI 9024 .cfa: sp 224 +
STACK CFI 9040 .cfa: sp 0 +
STACK CFI 9044 .cfa: x29 96 +
STACK CFI INIT 91d4 50 .cfa: sp 0 +
STACK CFI 91d8 .cfa: sp 32 +
STACK CFI 91e0 .cfa: x29 32 + x19: .cfa -8 + ^ x20: .cfa -16 + ^ .ra: .cfa -24 + ^ x29: .cfa -32 + ^
STACK CFI INIT 9618 584 .cfa: sp 0 +
STACK CFI 961c .cfa: sp 256 +
STACK CFI 9634 .cfa: x29 80 + x19: .cfa -8 + ^ x20: .cfa -16 + ^ x21: .cfa -24 + ^ x22: .cfa -32 + ^ x23: .cfa -40 + ^ x24: .cfa -48 + ^ x25: .cfa -64 + ^ .ra: .cfa -72 + ^ x29: .cfa -80 + ^
STACK CFI 99ec .cfa: sp 256 +
STACK CFI 9a04 .cfa: sp 0 +
STACK CFI 9a08 .cfa: x29 80 +
STACK CFI INIT 9ba0 11c .cfa: sp 0 +
STACK CFI 9ba4 .cfa: sp 64 +
STACK CFI 9bb4 .cfa: x29 48 + x19: .cfa -8 + ^ x20: .cfa -16 + ^ x21: .cfa -32 + ^ .ra: .cfa -40 + ^ x29: .cfa -48 + ^
STACK CFI 9c80 .cfa: sp 64 +
STACK CFI 9c90 .cfa: sp 0 +
STACK CFI 9c94 .cfa: x29 48 +
STACK CFI INIT 9dfc a8 .cfa: sp 0 +
STACK CFI 9e00 .cfa: sp 32 +
STACK CFI 9e08 .cfa: x29 32 + x19: .cfa -16 + ^ .ra: .cfa -24 + ^ x29: .cfa -32 + ^
STACK CFI 9e3c .cfa: sp 32 +
STACK CFI 9e44 .cfa: sp 0 +
STACK CFI 9e48 .cfa: x29 32 +
STACK CFI 9e4c .cfa: sp 32 +
STACK CFI 9e54 .cfa: sp 0 +
STACK CFI 9e58 .cfa: x29 32 +
STACK CFI INIT 5a84 440 .cfa: sp 0 +
STACK CFI 5a88 .cfa: sp 80 +
STACK CFI 5a98 .cfa: x29 48 + x19: .cfa -8 + ^ x20: .cfa -16 + ^ x21: .cfa -24 + ^ x22: .cfa -32 + ^ .ra: .cfa -40 + ^ x29: .cfa -48 + ^
STACK CFI 5e7c .cfa: sp 80 +
STACK CFI 5e8c .cfa: sp 0 +
STACK CFI 5e90 .cfa: x29 48 +
STACK CFI INIT 9f80 134 .cfa: sp 0 +
STACK CFI 9f84 .cfa: sp 80 +
STACK CFI 9f90 .cfa: x29 32 + x19: .cfa -8 + ^ x20: .cfa -16 + ^ .ra: .cfa -24 + ^ x29: .cfa -32 + ^
STACK CFI 9fc0 .cfa: sp 80 +
STACK CFI 9fcc .cfa: sp 0 +
STACK CFI 9fd0 .cfa: x29 32 +
STACK CFI INIT a0b4 78 .cfa: sp 0 +
STACK CFI a0b8 .cfa: sp 32 +
STACK CFI a0c0 .cfa: x29 32 + x19: .cfa -8 + ^ x20: .cfa -16 + ^ .ra: .cfa -24 + ^ x29: .cfa -32 + ^
STACK CFI a0cc .cfa: sp 32 +
STACK CFI a0d4 .cfa: sp 0 +
STACK CFI a0d8 .cfa: x29 32 +
STACK CFI INIT a12c 74 .cfa: sp 0 +
STACK CFI a130 .cfa: sp 48 +
STACK CFI a13c .cfa: x29 32 + x19: .cfa -8 + ^ x20: .cfa -16 + ^ .ra: .cfa -24 + ^ x29: .cfa -32 + ^
STACK CFI a188 .cfa: sp 48 +
STACK CFI a194 .cfa: sp 0 +
STACK CFI a198 .cfa: x29 32 +
STACK CFI INIT a204 178 .cfa: sp 0 +
STACK CFI a208 .cfa: sp 128 +
STACK CFI a218 .cfa: x29 48 + x19: .cfa -8 + ^ x20: .cfa -16 + ^ x21: .cfa -24 + ^ x22: .cfa -32 + ^ .ra: .cfa -40 + ^ x29: .cfa -48 + ^
STACK CFI a274 .cfa: sp 128 +
STACK CFI a284 .cfa: sp 0 +
STACK CFI a288 .cfa: x29 48 +
STACK CFI INIT a37c a4 .cfa: sp 0 +
STACK CFI a380 .cfa: sp 48 +
STACK CFI a38c .cfa: x29 48 + x19: .cfa -8 + ^ x20: .cfa -16 + ^ x21: .cfa -32 + ^ .ra: .cfa -40 + ^ x29: .cfa -48 + ^
STACK CFI a3f8 .cfa: sp 48 +
STACK CFI a404 .cfa: sp 0 +
STACK CFI a408 .cfa: x29 48 +
STACK CFI INIT a420 154 .cfa: sp 0 +
STACK CFI a424 .cfa: sp 384 +
STACK CFI a438 .cfa: x29 64 + x19: .cfa -8 + ^ x20: .cfa -16 + ^ x21: .cfa -24 + ^ x22: .cfa -32 + ^ x23: .cfa -40 + ^ x28: .cfa -48 + ^ .ra: .cfa -56 + ^ x29: .cfa -64 + ^
STACK CFI a51c .cfa: sp 384 +
STACK CFI a530 .cfa: sp 0 +
STACK CFI a534 .cfa: x29 64 +
STACK CFI INIT a574 168 .cfa: sp 0 +
STACK CFI a578 .cfa: sp 384 +
STACK CFI a58c .cfa: x29 64 + x19: .cfa -8 + ^ x20: .cfa -16 + ^ x21: .cfa -24 + ^ x22: .cfa -32 + ^ x23: .cfa -40 + ^ x28: .cfa -48 + ^ .ra: .cfa -56 + ^ x29: .cfa -64 + ^
STACK CFI a684 .cfa: sp 384 +
STACK CFI a698 .cfa: sp 0 +
STACK CFI a69c .cfa: x29 64 +
