MODULE Linux arm64 E8F692D1523618A61C334957F1C8879F0 naxrin.progress_bar_color.android64.so
INFO CODE_ID D192F6E83652A6181C334957F1C8879F200F092F
INFO GENERATOR mozilla/dump_syms 2.3.4
PUBLIC 24840 0 __on_dlclose
PUBLIC 24850 0 __emutls_unregister_key
PUBLIC 24858 0 __on_dlclose_late
PUBLIC 24860 0 __atexit_handler_wrapper
PUBLIC 24874 0 atexit
PUBLIC 24890 0 pthread_atfork
PUBLIC 248a0 0 unwind_phase2
PUBLIC 249d4 0 _Unwind_Resume
PUBLIC 24a58 0 unwind_phase2_forced
PUBLIC m 24b4c 0 __unw_init_local
PUBLIC m 24bf4 0 __unw_get_reg
PUBLIC 24c70 0 __unw_step_stage2
PUBLIC m 24c84 0 __unw_get_proc_info
PUBLIC m 24cc4 0 __unw_resume
PUBLIC 24cec 0 libunwind::CFI_Parser<libunwind::LocalAddressSpace>::decodeFDE(libunwind::LocalAddressSpace&, unsigned long, libunwind::CFI_Parser<libunwind::LocalAddressSpace>::FDE_Info*, libunwind::CFI_Parser<libunwind::LocalAddressSpace>::CIE_Info*, bool)
PUBLIC 24e7c 0 libunwind::CFI_Parser<libunwind::LocalAddressSpace>::parseCIE(libunwind::LocalAddressSpace&, unsigned long, libunwind::CFI_Parser<libunwind::LocalAddressSpace>::CIE_Info*)
PUBLIC 25144 0 libunwind::AbstractUnwindCursor::~AbstractUnwindCursor()
PUBLIC 2514c 0 libunwind::UnwindCursor<libunwind::LocalAddressSpace, libunwind::Registers_arm64>::~UnwindCursor()
PUBLIC 25154 0 libunwind::UnwindCursor<libunwind::LocalAddressSpace, libunwind::Registers_arm64>::validReg(int)
PUBLIC 25198 0 libunwind::UnwindCursor<libunwind::LocalAddressSpace, libunwind::Registers_arm64>::getReg(int)
PUBLIC 25280 0 libunwind::UnwindCursor<libunwind::LocalAddressSpace, libunwind::Registers_arm64>::setReg(int, unsigned long)
PUBLIC 25368 0 libunwind::UnwindCursor<libunwind::LocalAddressSpace, libunwind::Registers_arm64>::validFloatReg(int)
PUBLIC 2537c 0 libunwind::UnwindCursor<libunwind::LocalAddressSpace, libunwind::Registers_arm64>::getFloatReg(int)
PUBLIC 2538c 0 libunwind::UnwindCursor<libunwind::LocalAddressSpace, libunwind::Registers_arm64>::setFloatReg(int, double)
PUBLIC 2539c 0 libunwind::UnwindCursor<libunwind::LocalAddressSpace, libunwind::Registers_arm64>::step(bool)
PUBLIC 2548c 0 libunwind::UnwindCursor<libunwind::LocalAddressSpace, libunwind::Registers_arm64>::getInfo(unw_proc_info_t*)
PUBLIC 254d0 0 libunwind::UnwindCursor<libunwind::LocalAddressSpace, libunwind::Registers_arm64>::jumpto()
PUBLIC 254dc 0 libunwind::UnwindCursor<libunwind::LocalAddressSpace, libunwind::Registers_arm64>::isSignalFrame()
PUBLIC 254e8 0 libunwind::UnwindCursor<libunwind::LocalAddressSpace, libunwind::Registers_arm64>::getFunctionName(char*, unsigned long, unsigned long*)
PUBLIC 25514 0 libunwind::UnwindCursor<libunwind::LocalAddressSpace, libunwind::Registers_arm64>::setInfoBasedOnIPRegister(bool)
PUBLIC 25794 0 libunwind::UnwindCursor<libunwind::LocalAddressSpace, libunwind::Registers_arm64>::getRegisterName(int)
PUBLIC 257a0 0 libunwind::UnwindCursor<libunwind::LocalAddressSpace, libunwind::Registers_arm64>::stepThroughSigReturn(libunwind::Registers_arm64&)
PUBLIC 258c0 0 libunwind::DwarfInstructions<libunwind::LocalAddressSpace, libunwind::Registers_arm64>::stepWithDwarf(libunwind::LocalAddressSpace&, unsigned long, unsigned long, libunwind::Registers_arm64&, bool&, bool)
PUBLIC 25d48 0 libunwind::CFI_Parser<libunwind::LocalAddressSpace>::parseFDEInstructions(libunwind::LocalAddressSpace&, libunwind::CFI_Parser<libunwind::LocalAddressSpace>::FDE_Info const&, libunwind::CFI_Parser<libunwind::LocalAddressSpace>::CIE_Info const&, unsigned long, int, libunwind::CFI_Parser<libunwind::LocalAddressSpace>::PrologInfo*)
PUBLIC 26990 0 libunwind::DwarfInstructions<libunwind::LocalAddressSpace, libunwind::Registers_arm64>::getCFA(libunwind::LocalAddressSpace&, libunwind::CFI_Parser<libunwind::LocalAddressSpace>::PrologInfo const&, libunwind::Registers_arm64 const&)
PUBLIC 26ac4 0 libunwind::DwarfInstructions<libunwind::LocalAddressSpace, libunwind::Registers_arm64>::getSavedRegister(libunwind::LocalAddressSpace&, libunwind::Registers_arm64 const&, unsigned long, libunwind::CFI_Parser<libunwind::LocalAddressSpace>::RegisterLocation const&)
PUBLIC 26cd4 0 libunwind::LocalAddressSpace::getEncodedP(unsigned long&, unsigned long, unsigned char, unsigned long)
PUBLIC 27060 0 libunwind::LocalAddressSpace::getULEB128(unsigned long&, unsigned long)
PUBLIC 27228 0 libunwind::DwarfInstructions<libunwind::LocalAddressSpace, libunwind::Registers_arm64>::evaluateExpression(unsigned long, libunwind::LocalAddressSpace&, libunwind::Registers_arm64 const&, unsigned long)
PUBLIC 27be4 0 libunwind::UnwindCursor<libunwind::LocalAddressSpace, libunwind::Registers_arm64>::getInfoFromDwarfSection(unsigned long, libunwind::UnwindInfoSections const&, unsigned int)
PUBLIC 27eb8 0 libunwind::findUnwindSectionsByPhdr(dl_phdr_info*, unsigned long, void*)
PUBLIC 27fec 0 libunwind::EHHeaderParser<libunwind::LocalAddressSpace>::decodeEHHdr(libunwind::LocalAddressSpace&, unsigned long, unsigned long, libunwind::EHHeaderParser<libunwind::LocalAddressSpace>::EHHeaderInfo&)
PUBLIC 2810c 0 libunwind::CFI_Parser<libunwind::LocalAddressSpace>::findFDE(libunwind::LocalAddressSpace&, unsigned long, unsigned long, unsigned long, unsigned long, libunwind::CFI_Parser<libunwind::LocalAddressSpace>::FDE_Info*, libunwind::CFI_Parser<libunwind::LocalAddressSpace>::CIE_Info*)
PUBLIC 282d4 0 libunwind::EHHeaderParser<libunwind::LocalAddressSpace>::findFDE(libunwind::LocalAddressSpace&, unsigned long, unsigned long, unsigned int, libunwind::CFI_Parser<libunwind::LocalAddressSpace>::FDE_Info*, libunwind::CFI_Parser<libunwind::LocalAddressSpace>::CIE_Info*)
PUBLIC 2843c 0 libunwind::EHHeaderParser<libunwind::LocalAddressSpace>::getTableEntrySize(unsigned char)
PUBLIC 28538 0 libunwind::Registers_arm64::getRegisterName(int)
PUBLIC 28568 0 __libunwind_Registers_arm64_jumpto
PUBLIC m 285f8 0 __unw_getcontext
PUBLIC 286a0 0 __aarch64_ldadd8_relax
PUBLIC 286d0 0 init_have_lse_atomics
PUBLIC 28768 0 __init_cpu_features_constructor
PUBLIC 28d04 0 __init_cpu_features
PUBLIC 28d90 0 __aarch64_ldadd8_acq_rel
PUBLIC 28dc0 0 __cxx_global_array_dtor
PUBLIC 28f0c 0 __cxx_global_var_init.21
PUBLIC 29368 0 __cxx_global_var_init.22
PUBLIC 297c4 0 __cxx_global_var_init.23
PUBLIC 29c20 0 __cxx_global_var_init.24
PUBLIC 2a07c 0 _GLOBAL__sub_I_main.cpp
PUBLIC 2a36c 0 paint(cocos2d::CCSprite*, std::__ndk1::basic_string<char, std::__ndk1::char_traits<char>, std::__ndk1::allocator<char> >, std::__ndk1::basic_string<char, std::__ndk1::char_traits<char>, std::__ndk1::allocator<char> >, int, bool)
PUBLIC 2b16c 0 geode::Mod::getSettingValue<std::__ndk1::basic_string<char, std::__ndk1::char_traits<char>, std::__ndk1::allocator<char> > >(std::__ndk1::basic_string_view<char, std::__ndk1::char_traits<char> >) const
PUBLIC 2b300 0 geode::Mod::getSettingValue<cocos2d::_ccColor3B>(std::__ndk1::basic_string_view<char, std::__ndk1::char_traits<char> >) const
PUBLIC 2b420 0 geode::Mod::getSavedValue<BarColor>(std::__ndk1::basic_string_view<char, std::__ndk1::char_traits<char> >, BarColor const&)
PUBLIC 2b620 0 geode::Mod::getSavedValue<long>(std::__ndk1::basic_string_view<char, std::__ndk1::char_traits<char> >)
PUBLIC 2b7a4 0 geode::modifier::ModifyBase<geode::modifier::ModifyDerive<hook107<(anonymous namespace)::hook107Parent>, PauseLayer> >::~ModifyBase()
PUBLIC 2b7bc 0 geode::modifier::ModifyBase<geode::modifier::ModifyDerive<hook129<(anonymous namespace)::hook129Parent>, LevelInfoLayer> >::~ModifyBase()
PUBLIC 2b7d4 0 geode::modifier::ModifyBase<geode::modifier::ModifyDerive<hook149<(anonymous namespace)::hook149Parent>, LevelSelectLayer> >::~ModifyBase()
PUBLIC 2b7ec 0 geode::modifier::ModifyBase<geode::modifier::ModifyDerive<hook209<(anonymous namespace)::hook209Parent>, ChallengeNode> >::~ModifyBase()
PUBLIC 2b804 0 std::__ndk1::basic_string<char, std::__ndk1::char_traits<char>, std::__ndk1::allocator<char> >::__throw_length_error[abi:ne180000]() const
PUBLIC 2b818 0 std::__ndk1::__throw_length_error[abi:ne180000](char const*)
PUBLIC 2b868 0 std::length_error::length_error[abi:ne180000](char const*)
PUBLIC 2b898 0 std::__throw_bad_array_new_length([abi:ne180000], void)
PUBLIC 2b8cc 0 __clang_call_terminate
PUBLIC 2b8dc 0 std::__ndk1::basic_string<char, std::__ndk1::char_traits<char>, std::__ndk1::allocator<char> >::__init_copy_ctor_external(char const*, unsigned long)
PUBLIC 2b95c 0 std::__ndk1::shared_ptr<geode::SettingV3>::~shared_ptr[abi:ne180000]()
PUBLIC 2b9ac 0 std::__ndk1::shared_ptr<geode::StringSettingV3>::~shared_ptr[abi:ne180000]()
PUBLIC 2b9fc 0 geode::cast::traverseTypeinfoFor(void*, geode::cast::ClassTypeinfoType const*, char const*)
PUBLIC 2bb00 0 geode::impl::ResultData<matjson::Value&, std::__ndk1::basic_string<char, std::__ndk1::char_traits<char>, std::__ndk1::allocator<char> > >::~ResultData()
PUBLIC 2bb74 0 geode::impl::ResultData<BarColor, std::__ndk1::basic_string<char, std::__ndk1::char_traits<char>, std::__ndk1::allocator<char> > >::~ResultData()
PUBLIC 2bbe8 0 matjson::Serialize<BarColor>::fromJson(matjson::Value const&)
PUBLIC 2c304 0 _ZNO5geode6ResultINSt6__ndk112basic_stringIcNS1_11char_traitsIcEENS1_9allocatorIcEEEES7_E7andThenIZN7matjson9SerializeI8BarColorE8fromJsonERKNSA_5ValueEEUlT_E_Qaaaasr3stdE9invocableITL0__SH_Esr4implE8IsResultINS1_13invoke_resultISJ_JSH_EE4typeEEsr3stdE14convertible_toIT0_NS_4impl12IsResultImplISM_E7ErrTypeEEEENSK_ISH_JS7_EE4typeEOSH_
PUBLIC 2c42c 0 _ZNO5geode6ResultINSt6__ndk112basic_stringIcNS1_11char_traitsIcEENS1_9allocatorIcEEEES7_E7andThenIZN7matjson9SerializeI8BarColorE8fromJsonERKNSA_5ValueEEUlT_E0_Qaaaasr3stdE9invocableITL0__SH_Esr4implE8IsResultINS1_13invoke_resultISJ_JSH_EE4typeEEsr3stdE14convertible_toIT0_NS_4impl12IsResultImplISM_E7ErrTypeEEEENSK_ISH_JS7_EE4typeEOSH_
PUBLIC 2c554 0 geode::impl::ResultData<cocos2d::_ccColor3B, std::__ndk1::basic_string<char, std::__ndk1::char_traits<char>, std::__ndk1::allocator<char> > >::~ResultData()
PUBLIC 2c5c8 0 geode::impl::ResultData<std::__ndk1::basic_string<char, std::__ndk1::char_traits<char>, std::__ndk1::allocator<char> >, std::__ndk1::basic_string<char, std::__ndk1::char_traits<char>, std::__ndk1::allocator<char> > >::~ResultData()
PUBLIC 2c63c 0 geode::impl::ResultData<long, std::__ndk1::basic_string<char, std::__ndk1::char_traits<char>, std::__ndk1::allocator<char> > >::~ResultData()
PUBLIC 2c6b0 0 _ZN5geode15UnwrapExceptionC2IRNSt6__ndk112basic_stringIcNS2_11char_traitsIcEENS2_9allocatorIcEEEEQsr4implE18IsStringStreamableIT_EEENS_4impl6ErrTagEOSA_
PUBLIC 2c818 0 std::__ndk1::__throw_bad_variant_access[abi:ne180000]()
PUBLIC 2c84c 0 std::__ndk1::basic_stringstream<char, std::__ndk1::char_traits<char>, std::__ndk1::allocator<char> >::basic_stringstream[abi:ne180000]()
PUBLIC m 2c978 0 std::__ndk1::basic_stringstream<char, std::__ndk1::char_traits<char>, std::__ndk1::allocator<char> >::~basic_stringstream()
PUBLIC 2c9f8 0 geode::UnwrapException::~UnwrapException()
PUBLIC 2ca1c 0 std::__ndk1::__put_character_sequence[abi:ne180000]<char, std::__ndk1::char_traits<char> >(std::__ndk1::basic_ostream<char, std::__ndk1::char_traits<char> >, std::__ndk1::basic_ostream const*, unsigned long)
PUBLIC 2cbc0 0 std::__ndk1::__pad_and_output[abi:ne180000]<char, std::__ndk1::char_traits<char> >(std::__ndk1::char_traits<char>, std::__ndk1::ostreambuf_iterator const*, std::__ndk1::ostreambuf_iterator const, std::__ndk1::ostreambuf_iterator const, std::__ndk1::ios_base&, std::__ndk1::ostreambuf_iterator)
PUBLIC 2cd9c 0 std::__ndk1::basic_stringbuf<char, std::__ndk1::char_traits<char>, std::__ndk1::allocator<char> >::str[abi:ne180000]() &&
PUBLIC 2cf14 0 std::__ndk1::basic_stringbuf<char, std::__ndk1::char_traits<char>, std::__ndk1::allocator<char> >::__init_buf_ptrs[abi:ne180000]()
PUBLIC 2d05c 0 std::__ndk1::__variant_detail::__visitation::__base::__dispatcher<(unsigned long)0>::__dispatch[abi:ne180000]<std::__ndk1::__variant_detail::__dtor<std::__ndk1::__variant_detail::__traits<cocos2d::_ccColor3B, std::__ndk1::basic_string<char, std::__ndk1::char_traits<char>, std::__ndk1::allocator<char> > >, (std::__ndk1::__variant_detail::_Trait)1>::__destroy[abi:ne180000]()::{lambda(auto:1&)#1}, std::__ndk1::__variant_detail::__base<(std::__ndk1::__variant_detail::__traits<cocos2d::_ccColor3B, std::__ndk1::basic_string<char, std::__ndk1::char_traits<char>, std::__ndk1::allocator<char> > >)1, cocos2d, std::__ndk1::allocator<char> >&>(std::__ndk1::__variant_detail::__dtor<std::__ndk1::__variant_detail::__traits<cocos2d::_ccColor3B, std::__ndk1::basic_string<char, std::__ndk1::char_traits<char>, std::__ndk1::allocator<char> > >, (std::__ndk1::__variant_detail::_Trait)1>, std::__ndk1::__variant_detail::__base<(std::__ndk1::__variant_detail::__traits<cocos2d::_ccColor3B, std::__ndk1::basic_string<char, std::__ndk1::char_traits<char>, std::__ndk1::allocator<char> > >)1, cocos2d, std::__ndk1::allocator<char> >&)
PUBLIC 2d060 0 std::__ndk1::__variant_detail::__visitation::__base::__dispatcher<(unsigned long)1>::__dispatch[abi:ne180000]<std::__ndk1::__variant_detail::__dtor<std::__ndk1::__variant_detail::__traits<cocos2d::_ccColor3B, std::__ndk1::basic_string<char, std::__ndk1::char_traits<char>, std::__ndk1::allocator<char> > >, (std::__ndk1::__variant_detail::_Trait)1>::__destroy[abi:ne180000]()::{lambda(auto:1&)#1}, std::__ndk1::__variant_detail::__base<(std::__ndk1::__variant_detail::__traits<cocos2d::_ccColor3B, std::__ndk1::basic_string<char, std::__ndk1::char_traits<char>, std::__ndk1::allocator<char> > >)1, cocos2d, std::__ndk1::allocator<char> >&>(std::__ndk1::__variant_detail::__dtor<std::__ndk1::__variant_detail::__traits<cocos2d::_ccColor3B, std::__ndk1::basic_string<char, std::__ndk1::char_traits<char>, std::__ndk1::allocator<char> > >, (std::__ndk1::__variant_detail::_Trait)1>, std::__ndk1::__variant_detail::__base<(std::__ndk1::__variant_detail::__traits<cocos2d::_ccColor3B, std::__ndk1::basic_string<char, std::__ndk1::char_traits<char>, std::__ndk1::allocator<char> > >)1, cocos2d, std::__ndk1::allocator<char> >&)
PUBLIC 2d074 0 std::__ndk1::__variant_detail::__visitation::__base::__dispatcher<(unsigned long)0>::__dispatch[abi:ne180000]<std::__ndk1::__variant_detail::__dtor<std::__ndk1::__variant_detail::__traits<std::__ndk1::basic_string<char, std::__ndk1::char_traits<char>, std::__ndk1::allocator<char> >, std::__ndk1::allocator<char> >, (std::__ndk1::__variant_detail::_Trait)1>::__destroy[abi:ne180000]()::{lambda(auto:1&)#1}, std::__ndk1::__variant_detail::__base<(std::__ndk1::__variant_detail::__traits<std::__ndk1::basic_string<char, std::__ndk1::char_traits<char>, std::__ndk1::allocator<char> >, std::__ndk1::allocator<char> >)1, std::__ndk1::allocator<char>, std::__ndk1::allocator<char> >&>(std::__ndk1::__variant_detail::__dtor<std::__ndk1::__variant_detail::__traits<std::__ndk1::basic_string<char, std::__ndk1::char_traits<char>, std::__ndk1::allocator<char> >, std::__ndk1::allocator<char> >, (std::__ndk1::__variant_detail::_Trait)1>, std::__ndk1::__variant_detail::__base<(std::__ndk1::__variant_detail::__traits<std::__ndk1::basic_string<char, std::__ndk1::char_traits<char>, std::__ndk1::allocator<char> >, std::__ndk1::allocator<char> >)1, std::__ndk1::allocator<char>, std::__ndk1::allocator<char> >&)
PUBLIC 2d088 0 std::__ndk1::__variant_detail::__visitation::__base::__dispatcher<(unsigned long)1>::__dispatch[abi:ne180000]<std::__ndk1::__variant_detail::__dtor<std::__ndk1::__variant_detail::__traits<std::__ndk1::basic_string<char, std::__ndk1::char_traits<char>, std::__ndk1::allocator<char> >, std::__ndk1::allocator<char> >, (std::__ndk1::__variant_detail::_Trait)1>::__destroy[abi:ne180000]()::{lambda(auto:1&)#1}, std::__ndk1::__variant_detail::__base<(std::__ndk1::__variant_detail::__traits<std::__ndk1::basic_string<char, std::__ndk1::char_traits<char>, std::__ndk1::allocator<char> >, std::__ndk1::allocator<char> >)1, std::__ndk1::allocator<char>, std::__ndk1::allocator<char> >&>(std::__ndk1::__variant_detail::__dtor<std::__ndk1::__variant_detail::__traits<std::__ndk1::basic_string<char, std::__ndk1::char_traits<char>, std::__ndk1::allocator<char> >, std::__ndk1::allocator<char> >, (std::__ndk1::__variant_detail::_Trait)1>, std::__ndk1::__variant_detail::__base<(std::__ndk1::__variant_detail::__traits<std::__ndk1::basic_string<char, std::__ndk1::char_traits<char>, std::__ndk1::allocator<char> >, std::__ndk1::allocator<char> >)1, std::__ndk1::allocator<char>, std::__ndk1::allocator<char> >&)
PUBLIC 2d09c 0 std::__ndk1::__variant_detail::__visitation::__base::__dispatcher<(unsigned long)0>::__dispatch[abi:ne180000]<std::__ndk1::__variant_detail::__dtor<std::__ndk1::__variant_detail::__traits<long, std::__ndk1::basic_string<char, std::__ndk1::char_traits<char>, std::__ndk1::allocator<char> > >, (std::__ndk1::__variant_detail::_Trait)1>::__destroy[abi:ne180000]()::{lambda(auto:1&)#1}, std::__ndk1::__variant_detail::__base<(std::__ndk1::__variant_detail::__traits<long, std::__ndk1::basic_string<char, std::__ndk1::char_traits<char>, std::__ndk1::allocator<char> > >)1, long, std::__ndk1::allocator<char> >&>(std::__ndk1::__variant_detail::__dtor<std::__ndk1::__variant_detail::__traits<long, std::__ndk1::basic_string<char, std::__ndk1::char_traits<char>, std::__ndk1::allocator<char> > >, (std::__ndk1::__variant_detail::_Trait)1>, std::__ndk1::__variant_detail::__base<(std::__ndk1::__variant_detail::__traits<long, std::__ndk1::basic_string<char, std::__ndk1::char_traits<char>, std::__ndk1::allocator<char> > >)1, long, std::__ndk1::allocator<char> >&)
PUBLIC 2d0a0 0 std::__ndk1::__variant_detail::__visitation::__base::__dispatcher<(unsigned long)1>::__dispatch[abi:ne180000]<std::__ndk1::__variant_detail::__dtor<std::__ndk1::__variant_detail::__traits<long, std::__ndk1::basic_string<char, std::__ndk1::char_traits<char>, std::__ndk1::allocator<char> > >, (std::__ndk1::__variant_detail::_Trait)1>::__destroy[abi:ne180000]()::{lambda(auto:1&)#1}, std::__ndk1::__variant_detail::__base<(std::__ndk1::__variant_detail::__traits<long, std::__ndk1::basic_string<char, std::__ndk1::char_traits<char>, std::__ndk1::allocator<char> > >)1, long, std::__ndk1::allocator<char> >&>(std::__ndk1::__variant_detail::__dtor<std::__ndk1::__variant_detail::__traits<long, std::__ndk1::basic_string<char, std::__ndk1::char_traits<char>, std::__ndk1::allocator<char> > >, (std::__ndk1::__variant_detail::_Trait)1>, std::__ndk1::__variant_detail::__base<(std::__ndk1::__variant_detail::__traits<long, std::__ndk1::basic_string<char, std::__ndk1::char_traits<char>, std::__ndk1::allocator<char> > >)1, long, std::__ndk1::allocator<char> >&)
PUBLIC 2d0b4 0 std::__ndk1::__variant_detail::__visitation::__base::__dispatcher<(unsigned long)0>::__dispatch[abi:ne180000]<std::__ndk1::__variant_detail::__dtor<std::__ndk1::__variant_detail::__traits<std::__ndk1::reference_wrapper<matjson::Value>, std::__ndk1::basic_string<char, std::__ndk1::char_traits<char>, std::__ndk1::allocator<char> > >, (std::__ndk1::__variant_detail::_Trait)1>::__destroy[abi:ne180000]()::{lambda(auto:1&)#1}, std::__ndk1::__variant_detail::__base<(std::__ndk1::__variant_detail::__traits<std::__ndk1::reference_wrapper<matjson::Value>, std::__ndk1::basic_string<char, std::__ndk1::char_traits<char>, std::__ndk1::allocator<char> > >)1, matjson::Value, std::__ndk1::allocator<char> >&>(std::__ndk1::__variant_detail::__dtor<std::__ndk1::__variant_detail::__traits<std::__ndk1::reference_wrapper<matjson::Value>, std::__ndk1::basic_string<char, std::__ndk1::char_traits<char>, std::__ndk1::allocator<char> > >, (std::__ndk1::__variant_detail::_Trait)1>, std::__ndk1::__variant_detail::__base<(std::__ndk1::__variant_detail::__traits<std::__ndk1::reference_wrapper<matjson::Value>, std::__ndk1::basic_string<char, std::__ndk1::char_traits<char>, std::__ndk1::allocator<char> > >)1, matjson::Value, std::__ndk1::allocator<char> >&)
PUBLIC 2d0b8 0 std::__ndk1::__variant_detail::__visitation::__base::__dispatcher<(unsigned long)1>::__dispatch[abi:ne180000]<std::__ndk1::__variant_detail::__dtor<std::__ndk1::__variant_detail::__traits<std::__ndk1::reference_wrapper<matjson::Value>, std::__ndk1::basic_string<char, std::__ndk1::char_traits<char>, std::__ndk1::allocator<char> > >, (std::__ndk1::__variant_detail::_Trait)1>::__destroy[abi:ne180000]()::{lambda(auto:1&)#1}, std::__ndk1::__variant_detail::__base<(std::__ndk1::__variant_detail::__traits<std::__ndk1::reference_wrapper<matjson::Value>, std::__ndk1::basic_string<char, std::__ndk1::char_traits<char>, std::__ndk1::allocator<char> > >)1, matjson::Value, std::__ndk1::allocator<char> >&>(std::__ndk1::__variant_detail::__dtor<std::__ndk1::__variant_detail::__traits<std::__ndk1::reference_wrapper<matjson::Value>, std::__ndk1::basic_string<char, std::__ndk1::char_traits<char>, std::__ndk1::allocator<char> > >, (std::__ndk1::__variant_detail::_Trait)1>, std::__ndk1::__variant_detail::__base<(std::__ndk1::__variant_detail::__traits<std::__ndk1::reference_wrapper<matjson::Value>, std::__ndk1::basic_string<char, std::__ndk1::char_traits<char>, std::__ndk1::allocator<char> > >)1, matjson::Value, std::__ndk1::allocator<char> >&)
PUBLIC 2d0cc 0 std::__ndk1::__variant_detail::__visitation::__base::__dispatcher<(unsigned long)0>::__dispatch[abi:ne180000]<std::__ndk1::__variant_detail::__dtor<std::__ndk1::__variant_detail::__traits<BarColor, std::__ndk1::basic_string<char, std::__ndk1::char_traits<char>, std::__ndk1::allocator<char> > >, (std::__ndk1::__variant_detail::_Trait)1>::__destroy[abi:ne180000]()::{lambda(auto:1&)#1}, std::__ndk1::__variant_detail::__base<(std::__ndk1::__variant_detail::__traits<BarColor, std::__ndk1::basic_string<char, std::__ndk1::char_traits<char>, std::__ndk1::allocator<char> > >)1, std::__ndk1::__variant_detail::__traits, std::__ndk1::allocator<char> >&>(std::__ndk1::__variant_detail::__dtor<std::__ndk1::__variant_detail::__traits<BarColor, std::__ndk1::basic_string<char, std::__ndk1::char_traits<char>, std::__ndk1::allocator<char> > >, (std::__ndk1::__variant_detail::_Trait)1>, std::__ndk1::__variant_detail::__base<(std::__ndk1::__variant_detail::__traits<BarColor, std::__ndk1::basic_string<char, std::__ndk1::char_traits<char>, std::__ndk1::allocator<char> > >)1, std::__ndk1::__variant_detail::__traits, std::__ndk1::allocator<char> >&)
PUBLIC 2d0d0 0 std::__ndk1::__variant_detail::__visitation::__base::__dispatcher<(unsigned long)1>::__dispatch[abi:ne180000]<std::__ndk1::__variant_detail::__dtor<std::__ndk1::__variant_detail::__traits<BarColor, std::__ndk1::basic_string<char, std::__ndk1::char_traits<char>, std::__ndk1::allocator<char> > >, (std::__ndk1::__variant_detail::_Trait)1>::__destroy[abi:ne180000]()::{lambda(auto:1&)#1}, std::__ndk1::__variant_detail::__base<(std::__ndk1::__variant_detail::__traits<BarColor, std::__ndk1::basic_string<char, std::__ndk1::char_traits<char>, std::__ndk1::allocator<char> > >)1, std::__ndk1::__variant_detail::__traits, std::__ndk1::allocator<char> >&>(std::__ndk1::__variant_detail::__dtor<std::__ndk1::__variant_detail::__traits<BarColor, std::__ndk1::basic_string<char, std::__ndk1::char_traits<char>, std::__ndk1::allocator<char> > >, (std::__ndk1::__variant_detail::_Trait)1>, std::__ndk1::__variant_detail::__base<(std::__ndk1::__variant_detail::__traits<BarColor, std::__ndk1::basic_string<char, std::__ndk1::char_traits<char>, std::__ndk1::allocator<char> > >)1, std::__ndk1::__variant_detail::__traits, std::__ndk1::allocator<char> >&)
PUBLIC 2d0e4 0 matjson::Serialize<BarColor>::toJson(BarColor const&)
PUBLIC 2d488 0 matjson::makeObject(std::initializer_list<std::__ndk1::pair<std::__ndk1::basic_string<char, std::__ndk1::char_traits<char>, std::__ndk1::allocator<char> >, matjson::Value> >)
PUBLIC 2d63c 0 _ZNSt6__ndk14pairINS_12basic_stringIcNS_11char_traitsIcEENS_9allocatorIcEEEEN7matjson5ValueEEC2B8ne180000IRA5_KcRKiTnNS_9enable_ifIXclsr10_CheckArgsE17__enable_implicitIT_T0_EEEiE4typeELi0EEEOSH_OSI_
PUBLIC 2d700 0 _ZNSt6__ndk14pairINS_12basic_stringIcNS_11char_traitsIcEENS_9allocatorIcEEEEN7matjson5ValueEEC2B8ne180000IRA9_KcRKiTnNS_9enable_ifIXclsr10_CheckArgsE17__enable_implicitIT_T0_EEEiE4typeELi0EEEOSH_OSI_
PUBLIC 2d7c4 0 _ZNSt6__ndk14pairINS_12basic_stringIcNS_11char_traitsIcEENS_9allocatorIcEEEEN7matjson5ValueEEC2B8ne180000IRA2_KcRKhTnNS_9enable_ifIXclsr10_CheckArgsE17__enable_implicitIT_T0_EEEiE4typeELi0EEEOSH_OSI_
PUBLIC 2d888 0 _ZNSt6__ndk14pairINS_12basic_stringIcNS_11char_traitsIcEENS_9allocatorIcEEEEN7matjson5ValueEEC2B8ne180000IRA5_KcS6_TnNS_9enable_ifIXclsr10_CheckArgsE17__enable_implicitIT_T0_EEEiE4typeELi0EEEOSF_OSG_
PUBLIC 2d9ec 0 std::__ndk1::pair<std::__ndk1::basic_string<char, std::__ndk1::char_traits<char>, std::__ndk1::allocator<char> >, matjson::Value>::~pair()
PUBLIC 2da28 0 std::__ndk1::vector<matjson::Value, std::__ndk1::allocator<matjson::Value> >::~vector[abi:ne180000]()
PUBLIC 2da90 0 std::__ndk1::vector<matjson::Value, std::__ndk1::allocator<matjson::Value> >::__emplace_back_slow_path<matjson::Value const&>(matjson::Value const&)
PUBLIC 2dc54 0 std::__ndk1::__split_buffer<matjson::Value, std::__ndk1::allocator<matjson::Value>&>::~__split_buffer()
PUBLIC 2dca8 0 std::__ndk1::vector<matjson::Value, std::__ndk1::allocator<matjson::Value> >::__throw_length_error[abi:ne180000]() const
PUBLIC 2dcbc 0 matjson::Value::as<long>() const
PUBLIC 2ddc0 0 std::__ndk1::uniform_int_distribution<int>::operator()<std::__ndk1::mersenne_twister_engine<unsigned long, (unsigned long)32, (unsigned long)624, (unsigned long)397, (unsigned long)31, (unsigned long)2567483615, (unsigned long)11, (unsigned long)4294967295, (unsigned long)7, (unsigned long)2636928640, (unsigned long)15, (unsigned long)4022730752, (unsigned long)18, (unsigned long)1812433253> >(std::__ndk1::mersenne_twister_engine<unsigned long, (unsigned long)32, (unsigned long)624, (unsigned long)397, (unsigned long)31, (unsigned long)2567483615, (unsigned long)11, (unsigned long)4294967295, (unsigned long)7, (unsigned long)2636928640, (unsigned long)15, (unsigned long)4022730752, (unsigned long)18, (unsigned long)1812433253>&, std::__ndk1::uniform_int_distribution<int>::param_type const&)
PUBLIC 2df08 0 std::__ndk1::__independent_bits_engine<std::__ndk1::mersenne_twister_engine<unsigned long, (unsigned long)32, (unsigned long)624, (unsigned long)397, (unsigned long)31, (unsigned long)2567483615, (unsigned long)11, (unsigned long)4294967295, (unsigned long)7, (unsigned long)2636928640, (unsigned long)15, (unsigned long)4022730752, (unsigned long)18, (unsigned long)1812433253>, unsigned int>::__eval(std::__ndk1::integral_constant<bool, true>)
PUBLIC 2e108 0 geode::modifier::ModifyDerive<hook107<(anonymous namespace)::hook107Parent>, PauseLayer>::apply()
PUBLIC 2e424 0 std::__ndk1::shared_ptr<geode::Hook>::~shared_ptr[abi:ne180000]()
PUBLIC 2e474 0 geode::impl::ResultData<geode::Hook*, std::__ndk1::basic_string<char, std::__ndk1::char_traits<char>, std::__ndk1::allocator<char> > >::~ResultData()
PUBLIC 2e4e8 0 std::__ndk1::vector<std::__ndk1::basic_string<char, std::__ndk1::char_traits<char>, std::__ndk1::allocator<char> >, std::__ndk1::allocator<std::__ndk1::basic_string<char, std::__ndk1::char_traits<char>, std::__ndk1::allocator<char> > > >::~vector[abi:ne180000]()
PUBLIC 2e564 0 geode::modifier::ModifyBase<geode::modifier::ModifyDerive<hook107<(anonymous namespace)::hook107Parent>, PauseLayer> >::apply()
PUBLIC 2e568 0 _ZN5geode15UnwrapExceptionC2IRPNS_4HookEQsr4implE18IsStringStreamableIT_EEENS_4impl5OkTagEOS5_
PUBLIC 2e6bc 0 std::__ndk1::vector<std::__ndk1::basic_string<char, std::__ndk1::char_traits<char>, std::__ndk1::allocator<char> >, std::__ndk1::allocator<std::__ndk1::basic_string<char, std::__ndk1::char_traits<char>, std::__ndk1::allocator<char> > > >::__push_back_slow_path<std::__ndk1::basic_string<char, std::__ndk1::char_traits<char>, std::__ndk1::allocator<char> > const&>(std::__ndk1::basic_string<char, std::__ndk1::char_traits<char>, std::__ndk1::allocator<char> > const&)
PUBLIC 2e8e0 0 std::__ndk1::__split_buffer<std::__ndk1::basic_string<char, std::__ndk1::char_traits<char>, std::__ndk1::allocator<char> >, std::__ndk1::allocator<std::__ndk1::basic_string<char, std::__ndk1::char_traits<char>, std::__ndk1::allocator<char> > >&>::~__split_buffer()
PUBLIC 2e948 0 std::__ndk1::vector<std::__ndk1::basic_string<char, std::__ndk1::char_traits<char>, std::__ndk1::allocator<char> >, std::__ndk1::allocator<std::__ndk1::basic_string<char, std::__ndk1::char_traits<char>, std::__ndk1::allocator<char> > > >::__throw_length_error[abi:ne180000]() const
PUBLIC 2e95c 0 std::__ndk1::__variant_detail::__visitation::__base::__dispatcher<(unsigned long)0>::__dispatch[abi:ne180000]<std::__ndk1::__variant_detail::__dtor<std::__ndk1::__variant_detail::__traits<geode::Hook*, std::__ndk1::basic_string<char, std::__ndk1::char_traits<char>, std::__ndk1::allocator<char> > >, (std::__ndk1::__variant_detail::_Trait)1>::__destroy[abi:ne180000]()::{lambda(auto:1&)#1}, std::__ndk1::__variant_detail::__base<(std::__ndk1::__variant_detail::__traits<geode::Hook*, std::__ndk1::basic_string<char, std::__ndk1::char_traits<char>, std::__ndk1::allocator<char> > >)1, geode::Hook, std::__ndk1::allocator<char> >&>(std::__ndk1::__variant_detail::__dtor<std::__ndk1::__variant_detail::__traits<geode::Hook*, std::__ndk1::basic_string<char, std::__ndk1::char_traits<char>, std::__ndk1::allocator<char> > >, (std::__ndk1::__variant_detail::_Trait)1>, std::__ndk1::__variant_detail::__base<(std::__ndk1::__variant_detail::__traits<geode::Hook*, std::__ndk1::basic_string<char, std::__ndk1::char_traits<char>, std::__ndk1::allocator<char> > >)1, geode::Hook, std::__ndk1::allocator<char> >&)
PUBLIC 2e960 0 std::__ndk1::__variant_detail::__visitation::__base::__dispatcher<(unsigned long)1>::__dispatch[abi:ne180000]<std::__ndk1::__variant_detail::__dtor<std::__ndk1::__variant_detail::__traits<geode::Hook*, std::__ndk1::basic_string<char, std::__ndk1::char_traits<char>, std::__ndk1::allocator<char> > >, (std::__ndk1::__variant_detail::_Trait)1>::__destroy[abi:ne180000]()::{lambda(auto:1&)#1}, std::__ndk1::__variant_detail::__base<(std::__ndk1::__variant_detail::__traits<geode::Hook*, std::__ndk1::basic_string<char, std::__ndk1::char_traits<char>, std::__ndk1::allocator<char> > >)1, geode::Hook, std::__ndk1::allocator<char> >&>(std::__ndk1::__variant_detail::__dtor<std::__ndk1::__variant_detail::__traits<geode::Hook*, std::__ndk1::basic_string<char, std::__ndk1::char_traits<char>, std::__ndk1::allocator<char> > >, (std::__ndk1::__variant_detail::_Trait)1>, std::__ndk1::__variant_detail::__base<(std::__ndk1::__variant_detail::__traits<geode::Hook*, std::__ndk1::basic_string<char, std::__ndk1::char_traits<char>, std::__ndk1::allocator<char> > >)1, geode::Hook, std::__ndk1::allocator<char> >&)
PUBLIC 2e974 0 std::__ndk1::__tree<std::__ndk1::__value_type<std::__ndk1::basic_string<char, std::__ndk1::char_traits<char>, std::__ndk1::allocator<char> >, std::__ndk1::shared_ptr<geode::Hook> >, std::__ndk1::__map_value_compare<std::__ndk1::basic_string<char, std::__ndk1::char_traits<char>, std::__ndk1::allocator<char> >, std::__ndk1::__value_type<std::__ndk1::basic_string<char, std::__ndk1::char_traits<char>, std::__ndk1::allocator<char> >, std::__ndk1::shared_ptr<geode::Hook> >, std::__ndk1::less<std::__ndk1::basic_string<char, std::__ndk1::char_traits<char>, std::__ndk1::allocator<char> > >, true>, std::__ndk1::allocator<std::__ndk1::__value_type<std::__ndk1::basic_string<char, std::__ndk1::char_traits<char>, std::__ndk1::allocator<char> >, std::__ndk1::shared_ptr<geode::Hook> > > >::find<std::__ndk1::basic_string<char, std::__ndk1::char_traits<char>, std::__ndk1::allocator<char> > >(std::__ndk1::basic_string<char, std::__ndk1::char_traits<char>, std::__ndk1::allocator<char> > const&)
PUBLIC 2ea94 0 std::__ndk1::__tree<std::__ndk1::__value_type<std::__ndk1::basic_string<char, std::__ndk1::char_traits<char>, std::__ndk1::allocator<char> >, std::__ndk1::shared_ptr<geode::Hook> >, std::__ndk1::__map_value_compare<std::__ndk1::basic_string<char, std::__ndk1::char_traits<char>, std::__ndk1::allocator<char> >, std::__ndk1::__value_type<std::__ndk1::basic_string<char, std::__ndk1::char_traits<char>, std::__ndk1::allocator<char> >, std::__ndk1::shared_ptr<geode::Hook> >, std::__ndk1::less<std::__ndk1::basic_string<char, std::__ndk1::char_traits<char>, std::__ndk1::allocator<char> > >, true>, std::__ndk1::allocator<std::__ndk1::__value_type<std::__ndk1::basic_string<char, std::__ndk1::char_traits<char>, std::__ndk1::allocator<char> >, std::__ndk1::shared_ptr<geode::Hook> > > >::erase(std::__ndk1::__tree_const_iterator<std::__ndk1::__value_type<std::__ndk1::basic_string<char, std::__ndk1::char_traits<char>, std::__ndk1::allocator<char> >, std::__ndk1::shared_ptr<geode::Hook> >, std::__ndk1::__tree_node<std::__ndk1::__value_type<std::__ndk1::basic_string<char, std::__ndk1::char_traits<char>, std::__ndk1::allocator<char> >, std::__ndk1::shared_ptr<geode::Hook> >, void*>*, long>)
PUBLIC 2ef38 0 std::__ndk1::__tree<std::__ndk1::__value_type<std::__ndk1::basic_string<char, std::__ndk1::char_traits<char>, std::__ndk1::allocator<char> >, std::__ndk1::shared_ptr<geode::Hook> >, std::__ndk1::__map_value_compare<std::__ndk1::basic_string<char, std::__ndk1::char_traits<char>, std::__ndk1::allocator<char> >, std::__ndk1::__value_type<std::__ndk1::basic_string<char, std::__ndk1::char_traits<char>, std::__ndk1::allocator<char> >, std::__ndk1::shared_ptr<geode::Hook> >, std::__ndk1::less<std::__ndk1::basic_string<char, std::__ndk1::char_traits<char>, std::__ndk1::allocator<char> > >, true>, std::__ndk1::allocator<std::__ndk1::__value_type<std::__ndk1::basic_string<char, std::__ndk1::char_traits<char>, std::__ndk1::allocator<char> >, std::__ndk1::shared_ptr<geode::Hook> > > >::destroy(std::__ndk1::__tree_node<std::__ndk1::__value_type<std::__ndk1::basic_string<char, std::__ndk1::char_traits<char>, std::__ndk1::allocator<char> >, std::__ndk1::shared_ptr<geode::Hook> >, void*>*)
PUBLIC 2efbc 0 geode::modifier::AsStaticFunction_customSetup<hook107<(anonymous namespace)::hook107Parent>, void (hook107<(anonymous namespace)::hook107Parent>::*)()>::Impl<void (hook107<(anonymous namespace)::hook107Parent>::*)()>::function(hook107<(anonymous namespace)::hook107Parent>*)
PUBLIC 2f2c8 0 geode::addresser::Addresser::addressOfVirtual<void, PauseLayer, >(void (PauseLayer::*)())
PUBLIC 2f370 0 PauseLayer::PauseLayer(geode::ZeroConstructorType)
PUBLIC 2f3fc 0 std::__ndk1::shared_ptr<tulip::hook::CallingConvention>::~shared_ptr[abi:ne180000]()
PUBLIC 2f44c 0 tulip::hook::HandlerMetadata::~HandlerMetadata()
PUBLIC 2f4b0 0 std::__ndk1::__tree<std::__ndk1::__value_type<std::__ndk1::basic_string<char, std::__ndk1::char_traits<char>, std::__ndk1::allocator<char> >, std::__ndk1::shared_ptr<geode::Hook> >, std::__ndk1::__map_value_compare<std::__ndk1::basic_string<char, std::__ndk1::char_traits<char>, std::__ndk1::allocator<char> >, std::__ndk1::__value_type<std::__ndk1::basic_string<char, std::__ndk1::char_traits<char>, std::__ndk1::allocator<char> >, std::__ndk1::shared_ptr<geode::Hook> >, std::__ndk1::less<std::__ndk1::basic_string<char, std::__ndk1::char_traits<char>, std::__ndk1::allocator<char> > >, true>, std::__ndk1::allocator<std::__ndk1::__value_type<std::__ndk1::basic_string<char, std::__ndk1::char_traits<char>, std::__ndk1::allocator<char> >, std::__ndk1::shared_ptr<geode::Hook> > > >::__emplace_unique_key_args<std::__ndk1::basic_string<char, std::__ndk1::char_traits<char>, std::__ndk1::allocator<char> >, std::__ndk1::piecewise_construct_t const&, std::__ndk1::tuple<std::__ndk1::basic_string<char, std::__ndk1::char_traits<char>, std::__ndk1::allocator<char> >&&>, std::__ndk1::tuple<> >(std::__ndk1::basic_string<char, std::__ndk1::char_traits<char>, std::__ndk1::allocator<char> > const&, std::__ndk1::piecewise_construct_t const&, std::__ndk1::tuple<std::__ndk1::basic_string<char, std::__ndk1::char_traits<char>, std::__ndk1::allocator<char> >&&>, std::__ndk1::tuple<>)
PUBLIC 2f618 0 std::__ndk1::__tree_balance_after_insert[abi:ne180000]<std::__ndk1::__tree_node_base<void*>*>(std::__ndk1::__tree_node_base<void*>*, std::__ndk1::__tree_node_base<void*>*)
PUBLIC 2f7c8 0 geode::modifier::ModifyDerive<hook129<(anonymous namespace)::hook129Parent>, LevelInfoLayer>::apply()
PUBLIC 2fb64 0 geode::modifier::ModifyBase<geode::modifier::ModifyDerive<hook129<(anonymous namespace)::hook129Parent>, LevelInfoLayer> >::apply()
PUBLIC 2fb68 0 geode::modifier::AsStaticFunction_init<hook129<(anonymous namespace)::hook129Parent>, bool (hook129<(anonymous namespace)::hook129Parent>::*)(GJGameLevel*, bool)>::Impl<bool (hook129<(anonymous namespace)::hook129Parent>::*)(GJGameLevel*, bool)>::function(hook129<(anonymous namespace)::hook129Parent>*, GJGameLevel*, bool)
PUBLIC 2fe84 0 geode::modifier::ModifyDerive<hook149<(anonymous namespace)::hook149Parent>, LevelSelectLayer>::apply()
PUBLIC 304a8 0 geode::modifier::ModifyBase<geode::modifier::ModifyDerive<hook149<(anonymous namespace)::hook149Parent>, LevelSelectLayer> >::apply()
PUBLIC 304ac 0 geode::modifier::AsStaticFunction_scrollLayerMoved<hook149<(anonymous namespace)::hook149Parent>, void (hook149<(anonymous namespace)::hook149Parent>::*)(cocos2d::CCPoint)>::Impl<void (hook149<(anonymous namespace)::hook149Parent>::*)(cocos2d::CCPoint)>::function(hook149<(anonymous namespace)::hook149Parent>*, cocos2d::CCPoint)
PUBLIC 30704 0 geode::modifier::AsStaticFunction_init<hook149<(anonymous namespace)::hook149Parent>, bool (hook149<(anonymous namespace)::hook149Parent>::*)(int)>::Impl<bool (hook149<(anonymous namespace)::hook149Parent>::*)(int)>::function(hook149<(anonymous namespace)::hook149Parent>*, int)
PUBLIC 30ba8 0 geode::addresser::Addresser::addressOfVirtual<void, LevelSelectLayer, cocos2d::CCPoint>(void (LevelSelectLayer::*)(cocos2d::CCPoint))
PUBLIC 30c50 0 LevelSelectLayer::LevelSelectLayer(geode::ZeroConstructorType)
PUBLIC 30cec 0 geode::modifier::FieldIntermediate<hook149<(anonymous namespace)::hook149Parent>, LevelSelectLayer>::operator->()
PUBLIC 31320 0 hook149<(anonymous namespace)::hook149Parent>::paintProgressBar(LevelPage*, int)
PUBLIC 314dc 0 geode::modifier::FieldIntermediate<hook149<(anonymous namespace)::hook149Parent>, LevelSelectLayer>::fieldDestructor(void*)
PUBLIC 314e0 0 std::__ndk1::vector<void*, std::__ndk1::allocator<void*> >::__throw_length_error[abi:ne180000]() const
PUBLIC 314f4 0 std::__ndk1::vector<std::__ndk1::function<void (void*)>, std::__ndk1::allocator<std::__ndk1::function<void (void*)> > >::__throw_length_error[abi:ne180000]() const
PUBLIC 31508 0 std::__ndk1::vector<void*, std::__ndk1::allocator<void*> >::__throw_out_of_range[abi:ne180000]() const
PUBLIC 31514 0 std::__ndk1::__throw_out_of_range[abi:ne180000](char const*)
PUBLIC 31564 0 std::out_of_range::out_of_range[abi:ne180000](char const*)
PUBLIC 31594 0 std::__ndk1::vector<std::__ndk1::function<void (void*)>, std::__ndk1::allocator<std::__ndk1::function<void (void*)> > >::__throw_out_of_range[abi:ne180000]() const
PUBLIC 315a0 0 std::__ndk1::__function::__base<void (void*)>::~__base()
PUBLIC 315a4 0 std::__ndk1::__function::__func<void (*)(void*), std::__ndk1::allocator<void (*)(void*)>, void (void*)>::~__func()
PUBLIC 315a8 0 std::__ndk1::__function::__func<void (*)(void*), std::__ndk1::allocator<void (*)(void*)>, void (void*)>::__clone() const
PUBLIC 315e0 0 std::__ndk1::__function::__func<void (*)(void*), std::__ndk1::allocator<void (*)(void*)>, void (void*)>::__clone(std::__ndk1::__function::__base<void (void*)>*) const
PUBLIC 315f8 0 std::__ndk1::__function::__func<void (*)(void*), std::__ndk1::allocator<void (*)(void*)>, void (void*)>::destroy()
PUBLIC 315fc 0 std::__ndk1::__function::__func<void (*)(void*), std::__ndk1::allocator<void (*)(void*)>, void (void*)>::destroy_deallocate()
PUBLIC 31600 0 std::__ndk1::__function::__func<void (*)(void*), std::__ndk1::allocator<void (*)(void*)>, void (void*)>::operator()(void*&&)
PUBLIC 31610 0 std::__ndk1::__function::__func<void (*)(void*), std::__ndk1::allocator<void (*)(void*)>, void (void*)>::target(std::type_info const&) const
PUBLIC 3162c 0 std::__ndk1::__function::__func<void (*)(void*), std::__ndk1::allocator<void (*)(void*)>, void (void*)>::target_type() const
PUBLIC 31638 0 geode::modifier::ModifyDerive<hook209<(anonymous namespace)::hook209Parent>, ChallengeNode>::apply()
PUBLIC 319dc 0 geode::modifier::ModifyBase<geode::modifier::ModifyDerive<hook209<(anonymous namespace)::hook209Parent>, ChallengeNode> >::apply()
PUBLIC 319e0 0 geode::modifier::AsStaticFunction_init<hook209<(anonymous namespace)::hook209Parent>, bool (hook209<(anonymous namespace)::hook209Parent>::*)(GJChallengeItem*, ChallengesPage*, bool)>::Impl<bool (hook209<(anonymous namespace)::hook209Parent>::*)(GJChallengeItem*, ChallengesPage*, bool)>::function(hook209<(anonymous namespace)::hook209Parent>*, GJChallengeItem*, ChallengesPage*, bool)
PUBLIC 31df0 0 AdvancedSetting::parse(std::__ndk1::basic_string<char, std::__ndk1::char_traits<char>, std::__ndk1::allocator<char> > const&, std::__ndk1::basic_string<char, std::__ndk1::char_traits<char>, std::__ndk1::allocator<char> > const&, matjson::Value const&)
PUBLIC 321cc 0 geode::impl::ResultData<void, std::__ndk1::basic_string<char, std::__ndk1::char_traits<char>, std::__ndk1::allocator<char> > >::~ResultData()
PUBLIC 32240 0 std::__ndk1::shared_ptr<AdvancedSetting>::~shared_ptr[abi:ne180000]()
PUBLIC 32290 0 std::__ndk1::__shared_ptr_emplace<AdvancedSetting, std::__ndk1::allocator<AdvancedSetting> >::~__shared_ptr_emplace()
PUBLIC 322a0 0 std::__ndk1::__shared_ptr_emplace<AdvancedSetting, std::__ndk1::allocator<AdvancedSetting> >::~__shared_ptr_emplace()
PUBLIC 322d0 0 std::__ndk1::__shared_ptr_emplace<AdvancedSetting, std::__ndk1::allocator<AdvancedSetting> >::__on_zero_shared()
PUBLIC 322dc 0 std::__ndk1::__shared_ptr_emplace<AdvancedSetting, std::__ndk1::allocator<AdvancedSetting> >::__on_zero_shared_weak()
PUBLIC 322e0 0 geode::SettingBaseValueV3<BarColor, BarColor>::~SettingBaseValueV3()
PUBLIC 3234c 0 geode::SettingBaseValueV3<BarColor, BarColor>::~SettingBaseValueV3()
PUBLIC 32350 0 geode::SettingBaseValueV3<BarColor, BarColor>::load(matjson::Value const&)
PUBLIC 324a8 0 geode::SettingBaseValueV3<BarColor, BarColor>::save(matjson::Value&) const
PUBLIC 32558 0 geode::SettingBaseValueV3<BarColor, BarColor>::isDefaultValue() const
PUBLIC 325b8 0 geode::SettingBaseValueV3<BarColor, BarColor>::reset()
PUBLIC 32680 0 geode::SettingBaseValueV3<BarColor, BarColor>::isValid(BarColor) const
PUBLIC 32688 0 std::__ndk1::__shared_ptr_emplace<geode::SettingBaseValueV3<BarColor, BarColor>::Impl, std::__ndk1::allocator<geode::SettingBaseValueV3<BarColor, BarColor>::Impl> >::~__shared_ptr_emplace()
PUBLIC 32698 0 std::__ndk1::__shared_ptr_emplace<geode::SettingBaseValueV3<BarColor, BarColor>::Impl, std::__ndk1::allocator<geode::SettingBaseValueV3<BarColor, BarColor>::Impl> >::~__shared_ptr_emplace()
PUBLIC 326c8 0 std::__ndk1::__shared_ptr_emplace<geode::SettingBaseValueV3<BarColor, BarColor>::Impl, std::__ndk1::allocator<geode::SettingBaseValueV3<BarColor, BarColor>::Impl> >::__on_zero_shared()
PUBLIC 326cc 0 std::__ndk1::__shared_ptr_emplace<geode::SettingBaseValueV3<BarColor, BarColor>::Impl, std::__ndk1::allocator<geode::SettingBaseValueV3<BarColor, BarColor>::Impl> >::__on_zero_shared_weak()
PUBLIC 326d0 0 std::__ndk1::__function::__base<geode::Result<std::__ndk1::shared_ptr<geode::SettingV3>, std::__ndk1::basic_string<char, std::__ndk1::char_traits<char>, std::__ndk1::allocator<char> > >(std::__ndk1::basic_string<char, std::__ndk1::char_traits<char>, std::__ndk1::allocator<char> > const&, std::__ndk1::basic_string<char, std::__ndk1::char_traits<char>, std::__ndk1::allocator<char> > const&, matjson::Value const&)>::~__base()
PUBLIC 326d4 0 std::__ndk1::__function::__func<geode::Result<std::__ndk1::shared_ptr<geode::SettingV3>, std::__ndk1::basic_string<char, std::__ndk1::char_traits<char>, std::__ndk1::allocator<char> > > (*)(std::__ndk1::basic_string<char, std::__ndk1::char_traits<char>, std::__ndk1::allocator<char> > const&, std::__ndk1::basic_string<char, std::__ndk1::char_traits<char>, std::__ndk1::allocator<char> > const&, matjson::Value const&), std::__ndk1::allocator<geode::Result<std::__ndk1::shared_ptr<geode::SettingV3>, std::__ndk1::basic_string<char, std::__ndk1::char_traits<char>, std::__ndk1::allocator<char> > > (*)(std::__ndk1::basic_string<char, std::__ndk1::char_traits<char>, std::__ndk1::allocator<char> > const&, std::__ndk1::basic_string<char, std::__ndk1::char_traits<char>, std::__ndk1::allocator<char> > const&, matjson::Value const&)>, geode::Result<std::__ndk1::shared_ptr<geode::SettingV3>, std::__ndk1::basic_string<char, std::__ndk1::char_traits<char>, std::__ndk1::allocator<char> > >(std::__ndk1::basic_string<char, std::__ndk1::char_traits<char>, std::__ndk1::allocator<char> > const&, std::__ndk1::basic_string<char, std::__ndk1::char_traits<char>, std::__ndk1::allocator<char> > const&, matjson::Value const&)>::~__func()
PUBLIC 326d8 0 std::__ndk1::__function::__func<geode::Result<std::__ndk1::shared_ptr<geode::SettingV3>, std::__ndk1::basic_string<char, std::__ndk1::char_traits<char>, std::__ndk1::allocator<char> > > (*)(std::__ndk1::basic_string<char, std::__ndk1::char_traits<char>, std::__ndk1::allocator<char> > const&, std::__ndk1::basic_string<char, std::__ndk1::char_traits<char>, std::__ndk1::allocator<char> > const&, matjson::Value const&), std::__ndk1::allocator<geode::Result<std::__ndk1::shared_ptr<geode::SettingV3>, std::__ndk1::basic_string<char, std::__ndk1::char_traits<char>, std::__ndk1::allocator<char> > > (*)(std::__ndk1::basic_string<char, std::__ndk1::char_traits<char>, std::__ndk1::allocator<char> > const&, std::__ndk1::basic_string<char, std::__ndk1::char_traits<char>, std::__ndk1::allocator<char> > const&, matjson::Value const&)>, geode::Result<std::__ndk1::shared_ptr<geode::SettingV3>, std::__ndk1::basic_string<char, std::__ndk1::char_traits<char>, std::__ndk1::allocator<char> > >(std::__ndk1::basic_string<char, std::__ndk1::char_traits<char>, std::__ndk1::allocator<char> > const&, std::__ndk1::basic_string<char, std::__ndk1::char_traits<char>, std::__ndk1::allocator<char> > const&, matjson::Value const&)>::__clone() const
PUBLIC 3270c 0 std::__ndk1::__function::__func<geode::Result<std::__ndk1::shared_ptr<geode::SettingV3>, std::__ndk1::basic_string<char, std::__ndk1::char_traits<char>, std::__ndk1::allocator<char> > > (*)(std::__ndk1::basic_string<char, std::__ndk1::char_traits<char>, std::__ndk1::allocator<char> > const&, std::__ndk1::basic_string<char, std::__ndk1::char_traits<char>, std::__ndk1::allocator<char> > const&, matjson::Value const&), std::__ndk1::allocator<geode::Result<std::__ndk1::shared_ptr<geode::SettingV3>, std::__ndk1::basic_string<char, std::__ndk1::char_traits<char>, std::__ndk1::allocator<char> > > (*)(std::__ndk1::basic_string<char, std::__ndk1::char_traits<char>, std::__ndk1::allocator<char> > const&, std::__ndk1::basic_string<char, std::__ndk1::char_traits<char>, std::__ndk1::allocator<char> > const&, matjson::Value const&)>, geode::Result<std::__ndk1::shared_ptr<geode::SettingV3>, std::__ndk1::basic_string<char, std::__ndk1::char_traits<char>, std::__ndk1::allocator<char> > >(std::__ndk1::basic_string<char, std::__ndk1::char_traits<char>, std::__ndk1::allocator<char> > const&, std::__ndk1::basic_string<char, std::__ndk1::char_traits<char>, std::__ndk1::allocator<char> > const&, matjson::Value const&)>::__clone(std::__ndk1::__function::__base<geode::Result<std::__ndk1::shared_ptr<geode::SettingV3>, std::__ndk1::basic_string<char, std::__ndk1::char_traits<char>, std::__ndk1::allocator<char> > >(std::__ndk1::basic_string<char, std::__ndk1::char_traits<char>, std::__ndk1::allocator<char> > const&, std::__ndk1::basic_string<char, std::__ndk1::char_traits<char>, std::__ndk1::allocator<char> > const&, matjson::Value const&)>*) const
PUBLIC 32720 0 std::__ndk1::__function::__func<geode::Result<std::__ndk1::shared_ptr<geode::SettingV3>, std::__ndk1::basic_string<char, std::__ndk1::char_traits<char>, std::__ndk1::allocator<char> > > (*)(std::__ndk1::basic_string<char, std::__ndk1::char_traits<char>, std::__ndk1::allocator<char> > const&, std::__ndk1::basic_string<char, std::__ndk1::char_traits<char>, std::__ndk1::allocator<char> > const&, matjson::Value const&), std::__ndk1::allocator<geode::Result<std::__ndk1::shared_ptr<geode::SettingV3>, std::__ndk1::basic_string<char, std::__ndk1::char_traits<char>, std::__ndk1::allocator<char> > > (*)(std::__ndk1::basic_string<char, std::__ndk1::char_traits<char>, std::__ndk1::allocator<char> > const&, std::__ndk1::basic_string<char, std::__ndk1::char_traits<char>, std::__ndk1::allocator<char> > const&, matjson::Value const&)>, geode::Result<std::__ndk1::shared_ptr<geode::SettingV3>, std::__ndk1::basic_string<char, std::__ndk1::char_traits<char>, std::__ndk1::allocator<char> > >(std::__ndk1::basic_string<char, std::__ndk1::char_traits<char>, std::__ndk1::allocator<char> > const&, std::__ndk1::basic_string<char, std::__ndk1::char_traits<char>, std::__ndk1::allocator<char> > const&, matjson::Value const&)>::destroy()
PUBLIC 32724 0 std::__ndk1::__function::__func<geode::Result<std::__ndk1::shared_ptr<geode::SettingV3>, std::__ndk1::basic_string<char, std::__ndk1::char_traits<char>, std::__ndk1::allocator<char> > > (*)(std::__ndk1::basic_string<char, std::__ndk1::char_traits<char>, std::__ndk1::allocator<char> > const&, std::__ndk1::basic_string<char, std::__ndk1::char_traits<char>, std::__ndk1::allocator<char> > const&, matjson::Value const&), std::__ndk1::allocator<geode::Result<std::__ndk1::shared_ptr<geode::SettingV3>, std::__ndk1::basic_string<char, std::__ndk1::char_traits<char>, std::__ndk1::allocator<char> > > (*)(std::__ndk1::basic_string<char, std::__ndk1::char_traits<char>, std::__ndk1::allocator<char> > const&, std::__ndk1::basic_string<char, std::__ndk1::char_traits<char>, std::__ndk1::allocator<char> > const&, matjson::Value const&)>, geode::Result<std::__ndk1::shared_ptr<geode::SettingV3>, std::__ndk1::basic_string<char, std::__ndk1::char_traits<char>, std::__ndk1::allocator<char> > >(std::__ndk1::basic_string<char, std::__ndk1::char_traits<char>, std::__ndk1::allocator<char> > const&, std::__ndk1::basic_string<char, std::__ndk1::char_traits<char>, std::__ndk1::allocator<char> > const&, matjson::Value const&)>::destroy_deallocate()
PUBLIC 32728 0 std::__ndk1::__function::__func<geode::Result<std::__ndk1::shared_ptr<geode::SettingV3>, std::__ndk1::basic_string<char, std::__ndk1::char_traits<char>, std::__ndk1::allocator<char> > > (*)(std::__ndk1::basic_string<char, std::__ndk1::char_traits<char>, std::__ndk1::allocator<char> > const&, std::__ndk1::basic_string<char, std::__ndk1::char_traits<char>, std::__ndk1::allocator<char> > const&, matjson::Value const&), std::__ndk1::allocator<geode::Result<std::__ndk1::shared_ptr<geode::SettingV3>, std::__ndk1::basic_string<char, std::__ndk1::char_traits<char>, std::__ndk1::allocator<char> > > (*)(std::__ndk1::basic_string<char, std::__ndk1::char_traits<char>, std::__ndk1::allocator<char> > const&, std::__ndk1::basic_string<char, std::__ndk1::char_traits<char>, std::__ndk1::allocator<char> > const&, matjson::Value const&)>, geode::Result<std::__ndk1::shared_ptr<geode::SettingV3>, std::__ndk1::basic_string<char, std::__ndk1::char_traits<char>, std::__ndk1::allocator<char> > >(std::__ndk1::basic_string<char, std::__ndk1::char_traits<char>, std::__ndk1::allocator<char> > const&, std::__ndk1::basic_string<char, std::__ndk1::char_traits<char>, std::__ndk1::allocator<char> > const&, matjson::Value const&)>::operator()(std::__ndk1::basic_string<char, std::__ndk1::char_traits<char>, std::__ndk1::allocator<char> > const&, std::__ndk1::basic_string<char, std::__ndk1::char_traits<char>, std::__ndk1::allocator<char> > const&, matjson::Value const&)
PUBLIC 3273c 0 std::__ndk1::__function::__func<geode::Result<std::__ndk1::shared_ptr<geode::SettingV3>, std::__ndk1::basic_string<char, std::__ndk1::char_traits<char>, std::__ndk1::allocator<char> > > (*)(std::__ndk1::basic_string<char, std::__ndk1::char_traits<char>, std::__ndk1::allocator<char> > const&, std::__ndk1::basic_string<char, std::__ndk1::char_traits<char>, std::__ndk1::allocator<char> > const&, matjson::Value const&), std::__ndk1::allocator<geode::Result<std::__ndk1::shared_ptr<geode::SettingV3>, std::__ndk1::basic_string<char, std::__ndk1::char_traits<char>, std::__ndk1::allocator<char> > > (*)(std::__ndk1::basic_string<char, std::__ndk1::char_traits<char>, std::__ndk1::allocator<char> > const&, std::__ndk1::basic_string<char, std::__ndk1::char_traits<char>, std::__ndk1::allocator<char> > const&, matjson::Value const&)>, geode::Result<std::__ndk1::shared_ptr<geode::SettingV3>, std::__ndk1::basic_string<char, std::__ndk1::char_traits<char>, std::__ndk1::allocator<char> > >(std::__ndk1::basic_string<char, std::__ndk1::char_traits<char>, std::__ndk1::allocator<char> > const&, std::__ndk1::basic_string<char, std::__ndk1::char_traits<char>, std::__ndk1::allocator<char> > const&, matjson::Value const&)>::target(std::type_info const&) const
PUBLIC 32758 0 std::__ndk1::__function::__func<geode::Result<std::__ndk1::shared_ptr<geode::SettingV3>, std::__ndk1::basic_string<char, std::__ndk1::char_traits<char>, std::__ndk1::allocator<char> > > (*)(std::__ndk1::basic_string<char, std::__ndk1::char_traits<char>, std::__ndk1::allocator<char> > const&, std::__ndk1::basic_string<char, std::__ndk1::char_traits<char>, std::__ndk1::allocator<char> > const&, matjson::Value const&), std::__ndk1::allocator<geode::Result<std::__ndk1::shared_ptr<geode::SettingV3>, std::__ndk1::basic_string<char, std::__ndk1::char_traits<char>, std::__ndk1::allocator<char> > > (*)(std::__ndk1::basic_string<char, std::__ndk1::char_traits<char>, std::__ndk1::allocator<char> > const&, std::__ndk1::basic_string<char, std::__ndk1::char_traits<char>, std::__ndk1::allocator<char> > const&, matjson::Value const&)>, geode::Result<std::__ndk1::shared_ptr<geode::SettingV3>, std::__ndk1::basic_string<char, std::__ndk1::char_traits<char>, std::__ndk1::allocator<char> > >(std::__ndk1::basic_string<char, std::__ndk1::char_traits<char>, std::__ndk1::allocator<char> > const&, std::__ndk1::basic_string<char, std::__ndk1::char_traits<char>, std::__ndk1::allocator<char> > const&, matjson::Value const&)>::target_type() const
PUBLIC 32764 0 std::__ndk1::__variant_detail::__visitation::__base::__dispatcher<(unsigned long)0>::__dispatch[abi:ne180000]<std::__ndk1::__variant_detail::__dtor<std::__ndk1::__variant_detail::__traits<std::__ndk1::monostate, std::__ndk1::basic_string<char, std::__ndk1::char_traits<char>, std::__ndk1::allocator<char> > >, (std::__ndk1::__variant_detail::_Trait)1>::__destroy[abi:ne180000]()::{lambda(auto:1&)#1}, std::__ndk1::__variant_detail::__base<(std::__ndk1::__variant_detail::__traits<std::__ndk1::monostate, std::__ndk1::basic_string<char, std::__ndk1::char_traits<char>, std::__ndk1::allocator<char> > >)1, std::__ndk1::__variant_detail::__traits, std::__ndk1::allocator<char> >&>(std::__ndk1::__variant_detail::__dtor<std::__ndk1::__variant_detail::__traits<std::__ndk1::monostate, std::__ndk1::basic_string<char, std::__ndk1::char_traits<char>, std::__ndk1::allocator<char> > >, (std::__ndk1::__variant_detail::_Trait)1>, std::__ndk1::__variant_detail::__base<(std::__ndk1::__variant_detail::__traits<std::__ndk1::monostate, std::__ndk1::basic_string<char, std::__ndk1::char_traits<char>, std::__ndk1::allocator<char> > >)1, std::__ndk1::__variant_detail::__traits, std::__ndk1::allocator<char> >&)
PUBLIC 32768 0 std::__ndk1::__variant_detail::__visitation::__base::__dispatcher<(unsigned long)1>::__dispatch[abi:ne180000]<std::__ndk1::__variant_detail::__dtor<std::__ndk1::__variant_detail::__traits<std::__ndk1::monostate, std::__ndk1::basic_string<char, std::__ndk1::char_traits<char>, std::__ndk1::allocator<char> > >, (std::__ndk1::__variant_detail::_Trait)1>::__destroy[abi:ne180000]()::{lambda(auto:1&)#1}, std::__ndk1::__variant_detail::__base<(std::__ndk1::__variant_detail::__traits<std::__ndk1::monostate, std::__ndk1::basic_string<char, std::__ndk1::char_traits<char>, std::__ndk1::allocator<char> > >)1, std::__ndk1::__variant_detail::__traits, std::__ndk1::allocator<char> >&>(std::__ndk1::__variant_detail::__dtor<std::__ndk1::__variant_detail::__traits<std::__ndk1::monostate, std::__ndk1::basic_string<char, std::__ndk1::char_traits<char>, std::__ndk1::allocator<char> > >, (std::__ndk1::__variant_detail::_Trait)1>, std::__ndk1::__variant_detail::__base<(std::__ndk1::__variant_detail::__traits<std::__ndk1::monostate, std::__ndk1::basic_string<char, std::__ndk1::char_traits<char>, std::__ndk1::allocator<char> > >)1, std::__ndk1::__variant_detail::__traits, std::__ndk1::allocator<char> >&)
PUBLIC 3277c 0 __cxx_global_array_dtor
PUBLIC 328c8 0 _GLOBAL__sub_I_custom.cpp
PUBLIC 32a90 0 ModeCell::setup()
PUBLIC 32cf4 0 ModeCell::onToggle(cocos2d::CCObject*)
PUBLIC 32da4 0 FollowerCell::setup()
PUBLIC 32ff4 0 FollowerCell::onArrow(cocos2d::CCObject*)
PUBLIC 33110 0 ColorCell::setup()
PUBLIC 33318 0 ColorCell::onButton(cocos2d::CCObject*)
PUBLIC 33360 0 MultiColorCell::setup()
PUBLIC 33670 0 MultiColorCell::onButton(cocos2d::CCObject*)
PUBLIC 336d8 0 AdvancedSetting::createNode(float)
PUBLIC 33a14 0 AdvancedMenu::setup()
PUBLIC 34a50 0 AdvancedMenu::onSwitchTab(cocos2d::CCObject*)
PUBLIC 34cf0 0 ModeCell::create(char const*)
PUBLIC 34e74 0 createHint(char const*)
PUBLIC 34f98 0 AdvancedMenu::initialize()
PUBLIC 35400 0 geode::cocos::CCArrayExt<cocos2d::CCNode*>::~CCArrayExt()
PUBLIC 3541c 0 geode::Mod::setSavedValue<BarColor>(std::__ndk1::basic_string_view<char, std::__ndk1::char_traits<char> >, BarColor const&)
PUBLIC 35634 0 cocos2d::CCSequence::create(cocos2d::CCFiniteTimeAction*, ...)
PUBLIC 356cc 0 AdvancedMenu::onClose(cocos2d::CCObject*)
PUBLIC 35774 0 geode::Popup<>::onClose(cocos2d::CCObject*)
PUBLIC 358bc 0 cocos2d::CCCopying::copyWithZone(cocos2d::CCZone*)
PUBLIC 358c4 0 ModeCell::~ModeCell()
PUBLIC 358e8 0 SetupCell::init()
PUBLIC 35984 0 cocos2d::CCMenu::setOpacityModifyRGB(bool)
PUBLIC 35988 0 cocos2d::CCMenu::isOpacityModifyRGB()
PUBLIC 35990 0 cocos2d::CCMenu::isEnabled()
PUBLIC 35998 0 cocos2d::CCMenu::setEnabled(bool)
PUBLIC 359a0 0 ModeCell::setVal(BarColor const&)
PUBLIC 35a78 0 {virtual override thunk({offset(-320)}, ModeCell::~ModeCell())}
PUBLIC 35a80 0 {virtual override thunk({offset(-320)}, ModeCell::~ModeCell())}
PUBLIC 35aa8 0 cocos2d::CCKeyboardDelegate::keyUp(cocos2d::enumKeyCodes)
PUBLIC 35aac 0 cocos2d::CCMouseDelegate::rightKeyDown()
PUBLIC 35ab0 0 cocos2d::CCMouseDelegate::rightKeyUp()
PUBLIC 35ab4 0 cocos2d::CCMouseDelegate::scrollWheel(float, float)
PUBLIC 35ab8 0 {virtual override thunk({offset(-408)}, cocos2d::CCMenu::setOpacityModifyRGB(bool))}
PUBLIC 35abc 0 {virtual override thunk({offset(-408)}, cocos2d::CCMenu::isOpacityModifyRGB())}
PUBLIC 35ac4 0 FollowerCell::~FollowerCell()
PUBLIC 35ae8 0 FollowerCell::setVal(BarColor const&)
PUBLIC 35b10 0 {virtual override thunk({offset(-320)}, FollowerCell::~FollowerCell())}
PUBLIC 35b18 0 {virtual override thunk({offset(-320)}, FollowerCell::~FollowerCell())}
PUBLIC 35b40 0 ColorCell::~ColorCell()
PUBLIC 35b64 0 ColorCell::setVal(BarColor const&)
PUBLIC 35b78 0 ColorCell::updateColor(cocos2d::_ccColor4B const&)
PUBLIC 35c5c 0 {virtual override thunk({offset(-320)}, ColorCell::~ColorCell())}
PUBLIC 35c64 0 {virtual override thunk({offset(-320)}, ColorCell::~ColorCell())}
PUBLIC 35c8c 0 {virtual override thunk({offset(-440)}, ColorCell::updateColor(cocos2d::_ccColor4B const&))}
PUBLIC 35c94 0 MultiColorCell::~MultiColorCell()
PUBLIC 35cb8 0 MultiColorCell::setVal(BarColor const&)
PUBLIC 35cfc 0 MultiColorCell::updateColor(cocos2d::_ccColor4B const&)
PUBLIC 35e04 0 {virtual override thunk({offset(-320)}, MultiColorCell::~MultiColorCell())}
PUBLIC 35e0c 0 {virtual override thunk({offset(-320)}, MultiColorCell::~MultiColorCell())}
PUBLIC 35e34 0 {virtual override thunk({offset(-440)}, MultiColorCell::updateColor(cocos2d::_ccColor4B const&))}
PUBLIC 35e3c 0 AdvancedMenu::~AdvancedMenu()
PUBLIC 35f6c 0 AdvancedMenu::~AdvancedMenu()
PUBLIC 35f90 0 geode::Popup<>::registerWithTouchDispatcher()
PUBLIC 35fbc 0 geode::Popup<>::keyDown(cocos2d::enumKeyCodes)
PUBLIC 35fe4 0 cocos2d::CCLayerRGBA::setOpacityModifyRGB(bool)
PUBLIC 35fe8 0 cocos2d::CCLayerRGBA::isOpacityModifyRGB()
PUBLIC 35ff0 0 {virtual override thunk({offset(-320)}, AdvancedMenu::~AdvancedMenu())}
PUBLIC 35ff8 0 {virtual override thunk({offset(-320)}, AdvancedMenu::~AdvancedMenu())}
PUBLIC 36020 0 {virtual override thunk({offset(-344)}, geode::Popup<>::keyDown(cocos2d::enumKeyCodes))}
PUBLIC 3604c 0 {virtual override thunk({offset(-408)}, cocos2d::CCLayerRGBA::setOpacityModifyRGB(bool))}
PUBLIC 36050 0 {virtual override thunk({offset(-408)}, cocos2d::CCLayerRGBA::isOpacityModifyRGB())}
PUBLIC 36058 0 AdvancedSetting::~AdvancedSetting()
PUBLIC 360d4 0 AdvancedSetting::load(matjson::Value const&)
PUBLIC 360dc 0 AdvancedSetting::save(matjson::Value&) const
PUBLIC 360e4 0 AdvancedSetting::isDefaultValue() const
PUBLIC 360ec 0 AdvancedSetting::reset()
PUBLIC 360f0 0 SignalEvent<int>::~SignalEvent()
PUBLIC 36114 0 geode::SettingNodeV3::~SettingNodeV3()
PUBLIC 36184 0 AdvancedSettingNode::~AdvancedSettingNode()
PUBLIC 36204 0 AdvancedSettingNode::updateState(cocos2d::CCNode*)
PUBLIC 36394 0 AdvancedSettingNode::onCommit()
PUBLIC 36398 0 AdvancedSettingNode::onResetToDefault()
PUBLIC 3639c 0 AdvancedSettingNode::hasUncommittedChanges() const
PUBLIC 363a4 0 AdvancedSettingNode::hasNonDefaultValue() const
PUBLIC 363ac 0 AdvancedSettingNode::onButton(cocos2d::CCObject*)
PUBLIC 368ec 0 geode::EventListener<geode::EventFilter<SignalEvent<int> > >::~EventListener()
PUBLIC 36948 0 geode::Popup<>::~Popup()
PUBLIC 369b4 0 geode::Popup<>::~Popup()
PUBLIC 369b8 0 {virtual override thunk({offset(-320)}, geode::Popup<>::~Popup())}
PUBLIC 36a24 0 {virtual override thunk({offset(-320)}, geode::Popup<>::~Popup())}
PUBLIC 36a28 0 std::__ndk1::__function::__base<geode::ListenerResult(SignalEvent<int>*)>::~__base()
PUBLIC 36a2c 0 std::__ndk1::__function::__func<AdvancedMenu::listenerInt::{lambda(SignalEvent<int>*)#1}, std::__ndk1::allocator<AdvancedMenu::listenerInt::{lambda(SignalEvent<int>*)#1}>, geode::ListenerResult(SignalEvent<int>*)>::~__func()
PUBLIC 36a30 0 std::__ndk1::__function::__func<AdvancedMenu::listenerInt::{lambda(SignalEvent<int>*)#1}, std::__ndk1::allocator<AdvancedMenu::listenerInt::{lambda(SignalEvent<int>*)#1}>, geode::ListenerResult(SignalEvent<int>*)>::__clone() const
PUBLIC 36a64 0 std::__ndk1::__function::__func<AdvancedMenu::listenerInt::{lambda(SignalEvent<int>*)#1}, std::__ndk1::allocator<AdvancedMenu::listenerInt::{lambda(SignalEvent<int>*)#1}>, geode::ListenerResult(SignalEvent<int>*)>::__clone(std::__ndk1::__function::__base<geode::ListenerResult(SignalEvent<int>*)>*) const
PUBLIC 36a78 0 std::__ndk1::__function::__func<AdvancedMenu::listenerInt::{lambda(SignalEvent<int>*)#1}, std::__ndk1::allocator<AdvancedMenu::listenerInt::{lambda(SignalEvent<int>*)#1}>, geode::ListenerResult(SignalEvent<int>*)>::destroy()
PUBLIC 36a7c 0 std::__ndk1::__function::__func<AdvancedMenu::listenerInt::{lambda(SignalEvent<int>*)#1}, std::__ndk1::allocator<AdvancedMenu::listenerInt::{lambda(SignalEvent<int>*)#1}>, geode::ListenerResult(SignalEvent<int>*)>::destroy_deallocate()
PUBLIC 36a80 0 std::__ndk1::__function::__func<AdvancedMenu::listenerInt::{lambda(SignalEvent<int>*)#1}, std::__ndk1::allocator<AdvancedMenu::listenerInt::{lambda(SignalEvent<int>*)#1}>, geode::ListenerResult(SignalEvent<int>*)>::operator()(SignalEvent<int>*&&)
PUBLIC 36f9c 0 std::__ndk1::__function::__func<AdvancedMenu::listenerInt::{lambda(SignalEvent<int>*)#1}, std::__ndk1::allocator<AdvancedMenu::listenerInt::{lambda(SignalEvent<int>*)#1}>, geode::ListenerResult(SignalEvent<int>*)>::target(std::type_info const&) const
PUBLIC 36fb8 0 std::__ndk1::__function::__func<AdvancedMenu::listenerInt::{lambda(SignalEvent<int>*)#1}, std::__ndk1::allocator<AdvancedMenu::listenerInt::{lambda(SignalEvent<int>*)#1}>, geode::ListenerResult(SignalEvent<int>*)>::target_type() const
PUBLIC 36fc4 0 geode::EventListener<geode::EventFilter<SignalEvent<int> > >::getPool() const
PUBLIC 36fc8 0 geode::EventListener<geode::EventFilter<SignalEvent<int> > >::handle(geode::Event*)
PUBLIC 37168 0 geode::EventListener<geode::EventFilter<SignalEvent<int> > >::~EventListener()
PUBLIC 371cc 0 std::__ndk1::__throw_bad_function_call[abi:ne180000]()
PUBLIC 37200 0 std::__ndk1::bad_function_call::~bad_function_call()
PUBLIC 37224 0 std::__ndk1::__function::__base<geode::ListenerResult(SignalEvent<cocos2d::_ccColor3B>*)>::~__base()
PUBLIC 37228 0 std::__ndk1::__function::__func<AdvancedMenu::listenerColor::{lambda(SignalEvent<cocos2d::_ccColor3B>*)#1}, std::__ndk1::allocator<AdvancedMenu::listenerColor::{lambda(SignalEvent<cocos2d::_ccColor3B>*)#1}>, geode::ListenerResult(SignalEvent<cocos2d::_ccColor3B>*)>::~__func()
PUBLIC 3722c 0 std::__ndk1::__function::__func<AdvancedMenu::listenerColor::{lambda(SignalEvent<cocos2d::_ccColor3B>*)#1}, std::__ndk1::allocator<AdvancedMenu::listenerColor::{lambda(SignalEvent<cocos2d::_ccColor3B>*)#1}>, geode::ListenerResult(SignalEvent<cocos2d::_ccColor3B>*)>::__clone() const
PUBLIC 37260 0 std::__ndk1::__function::__func<AdvancedMenu::listenerColor::{lambda(SignalEvent<cocos2d::_ccColor3B>*)#1}, std::__ndk1::allocator<AdvancedMenu::listenerColor::{lambda(SignalEvent<cocos2d::_ccColor3B>*)#1}>, geode::ListenerResult(SignalEvent<cocos2d::_ccColor3B>*)>::__clone(std::__ndk1::__function::__base<geode::ListenerResult(SignalEvent<cocos2d::_ccColor3B>*)>*) const
PUBLIC 37274 0 std::__ndk1::__function::__func<AdvancedMenu::listenerColor::{lambda(SignalEvent<cocos2d::_ccColor3B>*)#1}, std::__ndk1::allocator<AdvancedMenu::listenerColor::{lambda(SignalEvent<cocos2d::_ccColor3B>*)#1}>, geode::ListenerResult(SignalEvent<cocos2d::_ccColor3B>*)>::destroy()
PUBLIC 37278 0 std::__ndk1::__function::__func<AdvancedMenu::listenerColor::{lambda(SignalEvent<cocos2d::_ccColor3B>*)#1}, std::__ndk1::allocator<AdvancedMenu::listenerColor::{lambda(SignalEvent<cocos2d::_ccColor3B>*)#1}>, geode::ListenerResult(SignalEvent<cocos2d::_ccColor3B>*)>::destroy_deallocate()
PUBLIC 3727c 0 std::__ndk1::__function::__func<AdvancedMenu::listenerColor::{lambda(SignalEvent<cocos2d::_ccColor3B>*)#1}, std::__ndk1::allocator<AdvancedMenu::listenerColor::{lambda(SignalEvent<cocos2d::_ccColor3B>*)#1}>, geode::ListenerResult(SignalEvent<cocos2d::_ccColor3B>*)>::operator()(SignalEvent<cocos2d::_ccColor3B>*&&)
PUBLIC 372fc 0 std::__ndk1::__function::__func<AdvancedMenu::listenerColor::{lambda(SignalEvent<cocos2d::_ccColor3B>*)#1}, std::__ndk1::allocator<AdvancedMenu::listenerColor::{lambda(SignalEvent<cocos2d::_ccColor3B>*)#1}>, geode::ListenerResult(SignalEvent<cocos2d::_ccColor3B>*)>::target(std::type_info const&) const
PUBLIC 37318 0 std::__ndk1::__function::__func<AdvancedMenu::listenerColor::{lambda(SignalEvent<cocos2d::_ccColor3B>*)#1}, std::__ndk1::allocator<AdvancedMenu::listenerColor::{lambda(SignalEvent<cocos2d::_ccColor3B>*)#1}>, geode::ListenerResult(SignalEvent<cocos2d::_ccColor3B>*)>::target_type() const
PUBLIC 37324 0 geode::EventListener<geode::EventFilter<SignalEvent<cocos2d::_ccColor3B> > >::getPool() const
PUBLIC 37328 0 geode::EventListener<geode::EventFilter<SignalEvent<cocos2d::_ccColor3B> > >::handle(geode::Event*)
PUBLIC 374c8 0 geode::EventListener<geode::EventFilter<SignalEvent<cocos2d::_ccColor3B> > >::~EventListener()
PUBLIC 37524 0 geode::EventListener<geode::EventFilter<SignalEvent<cocos2d::_ccColor3B> > >::~EventListener()
PUBLIC 37588 0 SignalEvent<cocos2d::_ccColor3B>::~SignalEvent()
PUBLIC 375ac 0 std::__ndk1::__throw_bad_weak_ptr[abi:ne180000]()
PUBLIC 375e0 0 geode::Popup<>::CloseEvent::~CloseEvent()
PUBLIC 37640 0 geode::Popup<>::CloseEvent::~CloseEvent()
PUBLIC 376b0 0 std::__ndk1::__shared_ptr_emplace<geode::Popup<>::CloseEvent::Impl, std::__ndk1::allocator<geode::Popup<>::CloseEvent::Impl> >::~__shared_ptr_emplace()
PUBLIC 376c0 0 std::__ndk1::__shared_ptr_emplace<geode::Popup<>::CloseEvent::Impl, std::__ndk1::allocator<geode::Popup<>::CloseEvent::Impl> >::~__shared_ptr_emplace()
PUBLIC 376f0 0 std::__ndk1::__shared_ptr_emplace<geode::Popup<>::CloseEvent::Impl, std::__ndk1::allocator<geode::Popup<>::CloseEvent::Impl> >::__on_zero_shared()
PUBLIC 376f4 0 std::__ndk1::__shared_ptr_emplace<geode::Popup<>::CloseEvent::Impl, std::__ndk1::allocator<geode::Popup<>::CloseEvent::Impl> >::__on_zero_shared_weak()
PUBLIC m 376f8 0 geodeImplicitEntry
PUBLIC 37734 0 std::__ndk1::unordered_map<void*, bool, std::__ndk1::hash<void*>, std::__ndk1::equal_to<void*>, std::__ndk1::allocator<std::__ndk1::pair<void* const, bool> > >::~unordered_map[abi:ne180000]()
PUBLIC 37780 0 wrapFunction(unsigned long, tulip::hook::WrapperMetadata const&)
PUBLIC 378b4 0 geode::impl::ResultData<void*, std::__ndk1::basic_string<char, std::__ndk1::char_traits<char>, std::__ndk1::allocator<char> > >::unwrapErr() &
PUBLIC 3792c 0 geode::impl::ResultData<void*, std::__ndk1::basic_string<char, std::__ndk1::char_traits<char>, std::__ndk1::allocator<char> > >::~ResultData()
PUBLIC 379a0 0 tulip::hook::WrapperMetadata::~WrapperMetadata()
PUBLIC 37a04 0 cocos2d::CCObject::~CCObject()
PUBLIC 37a28 0 cocos2d::CCNode::CCNode()
PUBLIC 37c84 0 cocos2d::CCNode::~CCNode()
PUBLIC 37ca8 0 {virtual override thunk({offset(-320)}, cocos2d::CCLayer::~CCLayer())}
PUBLIC 37cb0 0 cocos2d::CCLayer::~CCLayer()
PUBLIC 37cd4 0 {virtual override thunk({offset(-320)}, cocos2d::CCLayer::~CCLayer())}
PUBLIC 37cfc 0 cocos2d::CCLayerRGBA::CCLayerRGBA()
PUBLIC 37f88 0 cocos2d::CCLayerRGBA::~CCLayerRGBA()
PUBLIC 38288 0 {virtual override thunk({offset(-320)}, cocos2d::CCLayerRGBA::~CCLayerRGBA())}
PUBLIC 38290 0 cocos2d::CCLayerRGBA::~CCLayerRGBA()
PUBLIC 382b4 0 {virtual override thunk({offset(-320)}, cocos2d::CCLayerRGBA::~CCLayerRGBA())}
PUBLIC 382dc 0 cocos2d::CCLayerColor::CCLayerColor()
PUBLIC 38540 0 {virtual override thunk({offset(-320)}, cocos2d::CCLayerColor::~CCLayerColor())}
PUBLIC 38548 0 cocos2d::CCLayerColor::~CCLayerColor()
PUBLIC 3856c 0 {virtual override thunk({offset(-320)}, cocos2d::CCLayerColor::~CCLayerColor())}
PUBLIC 38594 0 {virtual override thunk({offset(-320)}, FLAlertLayer::~FLAlertLayer())}
PUBLIC 3859c 0 FLAlertLayer::~FLAlertLayer()
PUBLIC 385c0 0 {virtual override thunk({offset(-320)}, FLAlertLayer::~FLAlertLayer())}
PUBLIC 385e8 0 CCMenuItemToggler::createWithStandardSprites(cocos2d::CCObject*, void (cocos2d::CCObject::*)(cocos2d::CCObject*), float)
PUBLIC 387e0 0 LevelSelectLayer::~LevelSelectLayer()
PUBLIC 38af0 0 {virtual override thunk({offset(-320)}, LevelSelectLayer::~LevelSelectLayer())}
PUBLIC 38af8 0 LevelSelectLayer::~LevelSelectLayer()
PUBLIC 38b1c 0 {virtual override thunk({offset(-320)}, LevelSelectLayer::~LevelSelectLayer())}
PUBLIC 38b44 0 cocos2d::CCObject::update(float)
PUBLIC 38b48 0 cocos2d::CCLayerColor::~CCLayerColor()
PUBLIC 38e2c 0 FLAlertLayer::~FLAlertLayer()
PUBLIC 39110 0 cocos2d::CCNode::~CCNode()
PUBLIC 393b0 0 cocos2d::CCLayer::~CCLayer()
PUBLIC 396a0 0 cocos2d::CCObject::~CCObject()
PUBLIC 39b94 0 _ZN5geode15UnwrapExceptionC2IRPvQsr4implE18IsStringStreamableIT_EEENS_4impl5OkTagEOS4_
PUBLIC 39ce8 0 std::__ndk1::__variant_detail::__visitation::__base::__dispatcher<(unsigned long)0>::__dispatch[abi:ne180000]<std::__ndk1::__variant_detail::__dtor<std::__ndk1::__variant_detail::__traits<void*, std::__ndk1::basic_string<char, std::__ndk1::char_traits<char>, std::__ndk1::allocator<char> > >, (std::__ndk1::__variant_detail::_Trait)1>::__destroy[abi:ne180000]()::{lambda(auto:1&)#1}, std::__ndk1::__variant_detail::__base<(std::__ndk1::__variant_detail::__traits<void*, std::__ndk1::basic_string<char, std::__ndk1::char_traits<char>, std::__ndk1::allocator<char> > >)1, std::__ndk1::__variant_detail::__traits, std::__ndk1::allocator<char> >&>(std::__ndk1::__variant_detail::__dtor<std::__ndk1::__variant_detail::__traits<void*, std::__ndk1::basic_string<char, std::__ndk1::char_traits<char>, std::__ndk1::allocator<char> > >, (std::__ndk1::__variant_detail::_Trait)1>, std::__ndk1::__variant_detail::__base<(std::__ndk1::__variant_detail::__traits<void*, std::__ndk1::basic_string<char, std::__ndk1::char_traits<char>, std::__ndk1::allocator<char> > >)1, std::__ndk1::__variant_detail::__traits, std::__ndk1::allocator<char> >&)
PUBLIC 39cec 0 std::__ndk1::__variant_detail::__visitation::__base::__dispatcher<(unsigned long)1>::__dispatch[abi:ne180000]<std::__ndk1::__variant_detail::__dtor<std::__ndk1::__variant_detail::__traits<void*, std::__ndk1::basic_string<char, std::__ndk1::char_traits<char>, std::__ndk1::allocator<char> > >, (std::__ndk1::__variant_detail::_Trait)1>::__destroy[abi:ne180000]()::{lambda(auto:1&)#1}, std::__ndk1::__variant_detail::__base<(std::__ndk1::__variant_detail::__traits<void*, std::__ndk1::basic_string<char, std::__ndk1::char_traits<char>, std::__ndk1::allocator<char> > >)1, std::__ndk1::__variant_detail::__traits, std::__ndk1::allocator<char> >&>(std::__ndk1::__variant_detail::__dtor<std::__ndk1::__variant_detail::__traits<void*, std::__ndk1::basic_string<char, std::__ndk1::char_traits<char>, std::__ndk1::allocator<char> > >, (std::__ndk1::__variant_detail::_Trait)1>, std::__ndk1::__variant_detail::__base<(std::__ndk1::__variant_detail::__traits<void*, std::__ndk1::basic_string<char, std::__ndk1::char_traits<char>, std::__ndk1::allocator<char> > >)1, std::__ndk1::__variant_detail::__traits, std::__ndk1::allocator<char> >&)
PUBLIC 39d00 0 std::__ndk1::__hash_table<std::__ndk1::__hash_value_type<void*, bool>, std::__ndk1::__unordered_map_hasher<void*, std::__ndk1::__hash_value_type<void*, bool>, std::__ndk1::hash<void*>, std::__ndk1::equal_to<void*>, true>, std::__ndk1::__unordered_map_equal<void*, std::__ndk1::__hash_value_type<void*, bool>, std::__ndk1::equal_to<void*>, std::__ndk1::hash<void*>, true>, std::__ndk1::allocator<std::__ndk1::__hash_value_type<void*, bool> > >::__emplace_unique_key_args<void*, std::__ndk1::piecewise_construct_t const&, std::__ndk1::tuple<void* const&>, std::__ndk1::tuple<> >(void* const&, std::__ndk1::piecewise_construct_t const&, std::__ndk1::tuple<void* const&>, std::__ndk1::tuple<>)
PUBLIC 3a20c 0 __udivti3
PUBLIC 3a218 0 __udivmodti4
PUBLIC m 3a464 0 __eqtf2
PUBLIC 3a504 0 __unordtf2
PUBLIC 3a53c 0 fmt::v11::detail::write_loc(fmt::v11::basic_appender<char>, fmt::v11::loc_value, fmt::v11::format_specs const&, fmt::v11::detail::locale_ref)
PUBLIC 3a7d0 0 fmt::v11::format_facet<std::__ndk1::locale>::~format_facet()
PUBLIC 3a84c 0 fmt::v11::report_error(char const*)
PUBLIC 3a89c 0 fmt::v11::format_error::runtime_error(char const*)
PUBLIC 3a8c8 0 fmt::v11::format_facet<std::__ndk1::locale>::do_put(fmt::v11::basic_appender<char>, fmt::v11::loc_value, fmt::v11::format_specs const&) const
PUBLIC 3b088 0 fmt::v11::detail::loc_writer<char>::~loc_writer()
PUBLIC 3b0ec 0 fmt::v11::detail::vformat_to<char>(fmt::v11::detail::buffer<char>&, fmt::v11::basic_string_view<char>, fmt::v11::detail::vformat_args<char>::type, fmt::v11::detail::locale_ref)
PUBLIC 3b65c 0 fmt::v11::detail::is_printable(unsigned int)
PUBLIC 3b884 0 fmt::v11::detail::dragonbox::to_decimal<float>(float)
PUBLIC 3bb60 0 fmt::v11::detail::dragonbox::to_decimal<double>(double)
PUBLIC 3c09c 0 fmt::v11::basic_memory_buffer<char, (unsigned long)500, std::__ndk1::allocator<char> >::grow(fmt::v11::detail::buffer<char>&, unsigned long)
PUBLIC 3c114 0 fmt::v11::format_facet<std::__ndk1::locale>::~format_facet()
PUBLIC 3c1a0 0 fmt::v11::format_error::~format_error()
PUBLIC 3c1c4 0 fmt::v11::detail::copy_noinline<char, char const*, fmt::v11::basic_appender<char> >(char const*, char const*, fmt::v11::basic_appender<char>)
PUBLIC 3c314 0 fmt::v11::detail::default_arg_formatter<char>::operator()<bool>(bool)
PUBLIC 3c37c 0 fmt::v11::detail::default_arg_formatter<char>::operator()<char>(char)
PUBLIC 3c40c 0 fmt::v11::detail::default_arg_formatter<char>::operator()<float>(float)
PUBLIC 3c4f8 0 fmt::v11::detail::default_arg_formatter<char>::operator()<double>(double)
PUBLIC 3c5e4 0 fmt::v11::detail::default_arg_formatter<char>::operator()<char const*>(char const*)
PUBLIC 3c62c 0 fmt::v11::detail::default_arg_formatter<char>::operator()<void const*>(void const*)
PUBLIC 3c6c4 0 _ZN3fmt3v116detail5writeIcNS0_14basic_appenderIcEEiTnNSt6__ndk19enable_ifIXaaaasr11is_integralIT1_EE5valuentsr3std7is_sameIS7_bEE5valuentsr3std7is_sameIS7_T_EE5valueEiE4typeELi0EEET0_SB_S7_
PUBLIC 3c924 0 fmt::v11::detail::copy_noinline<char, char*, fmt::v11::basic_appender<char> >(char*, char*, fmt::v11::basic_appender<char>)
PUBLIC 3ca74 0 _ZN3fmt3v116detail5writeIcNS0_14basic_appenderIcEEjTnNSt6__ndk19enable_ifIXaaaasr11is_integralIT1_EE5valuentsr3std7is_sameIS7_bEE5valuentsr3std7is_sameIS7_T_EE5valueEiE4typeELi0EEET0_SB_S7_
PUBLIC 3cc54 0 _ZN3fmt3v116detail5writeIcNS0_14basic_appenderIcEExTnNSt6__ndk19enable_ifIXaaaasr11is_integralIT1_EE5valuentsr3std7is_sameIS7_bEE5valuentsr3std7is_sameIS7_T_EE5valueEiE4typeELi0EEET0_SB_S7_
PUBLIC 3ced8 0 _ZN3fmt3v116detail5writeIcNS0_14basic_appenderIcEEyTnNSt6__ndk19enable_ifIXaaaasr11is_integralIT1_EE5valuentsr3std7is_sameIS7_bEE5valuentsr3std7is_sameIS7_T_EE5valueEiE4typeELi0EEET0_SB_S7_
PUBLIC 3d0e0 0 _ZN3fmt3v116detail5writeIcNS0_14basic_appenderIcEEnTnNSt6__ndk19enable_ifIXaaaasr11is_integralIT1_EE5valuentsr3std7is_sameIS7_bEE5valuentsr3std7is_sameIS7_T_EE5valueEiE4typeELi0EEET0_SB_S7_
PUBLIC 3d440 0 _ZN3fmt3v116detail5writeIcNS0_14basic_appenderIcEEoTnNSt6__ndk19enable_ifIXaaaasr11is_integralIT1_EE5valuentsr3std7is_sameIS7_bEE5valuentsr3std7is_sameIS7_T_EE5valueEiE4typeELi0EEET0_SB_S7_
PUBLIC 3d754 0 _ZN3fmt3v116detail5writeIcNS0_14basic_appenderIcEEbTnNSt6__ndk19enable_ifIXsr3std7is_sameIT1_bEE5valueEiE4typeELi0EEET0_SA_S7_RKNS0_12format_specsENS1_10locale_refE
PUBLIC 3d9e4 0 fmt::v11::detail::write_int_noinline<char, fmt::v11::basic_appender<char>, unsigned int>(fmt::v11::basic_appender<char>, fmt::v11::detail::write_int_arg<unsigned int>, fmt::v11::format_specs const&, fmt::v11::detail::locale_ref)
PUBLIC 3e7c0 0 fmt::v11::detail::fill<char, fmt::v11::basic_appender<char> >(fmt::v11::basic_appender<char>, unsigned long, fmt::v11::detail::fill_t const&)
PUBLIC 3e990 0 fmt::v11::detail::write_padded<char, (fmt::v11::align::type)1, fmt::v11::basic_appender<char>, fmt::v11::detail::write_char<char, fmt::v11::basic_appender<char> >(fmt::v11::basic_appender<char>, char, fmt::v11::format_specs const&)::{lambda(fmt::v11::basic_appender<char>&)#1}>(fmt::v11::basic_appender<char>, fmt::v11::format_specs const&, unsigned long, unsigned long, fmt::v11::detail::write_char<char, fmt::v11::basic_appender<char> >(fmt::v11::basic_appender<char>, char, fmt::v11::format_specs const&)::{lambda(fmt::v11::basic_appender<char>&)#1})
PUBLIC 3ebcc 0 fmt::v11::detail::write_escaped_cp<fmt::v11::basic_appender<char>, char>(fmt::v11::basic_appender<char>, fmt::v11::detail::find_escape_result<char> const&)
PUBLIC 3eed8 0 fmt::v11::detail::write_codepoint<(unsigned long)2, char, fmt::v11::basic_appender<char> >(fmt::v11::basic_appender<char>, char, unsigned int)
PUBLIC 3f050 0 fmt::v11::detail::write_codepoint<(unsigned long)8, char, fmt::v11::basic_appender<char> >(fmt::v11::basic_appender<char>, char, unsigned int)
PUBLIC 3f1c8 0 fmt::v11::detail::write_padded<char, (fmt::v11::align::type)1, fmt::v11::basic_appender<char>, fmt::v11::detail::write_nonfinite<char, fmt::v11::basic_appender<char> >(fmt::v11::basic_appender<char>, bool, fmt::v11::format_specs, fmt::v11::sign::type)::{lambda(fmt::v11::basic_appender<char>&)#1}>(fmt::v11::basic_appender<char>, fmt::v11::format_specs const&, unsigned long, unsigned long, fmt::v11::detail::write_nonfinite<char, fmt::v11::basic_appender<char> >(fmt::v11::basic_appender<char>, bool, fmt::v11::format_specs, fmt::v11::sign::type)::{lambda(fmt::v11::basic_appender<char>&)#1})
PUBLIC 3f408 0 fmt::v11::detail::do_write_float<char, fmt::v11::basic_appender<char>, fmt::v11::detail::dragonbox::decimal_fp<float>, fmt::v11::detail::digit_grouping<char> >(fmt::v11::basic_appender<char>, fmt::v11::detail::dragonbox::decimal_fp<float> const&, fmt::v11::format_specs const&, fmt::v11::detail::float_specs, fmt::v11::detail::locale_ref)
PUBLIC 4007c 0 fmt::v11::detail::do_write_float<char, fmt::v11::basic_appender<char>, fmt::v11::detail::dragonbox::decimal_fp<float>, fmt::v11::detail::digit_grouping<char> >(fmt::v11::basic_appender<char>, fmt::v11::detail::dragonbox::decimal_fp<float> const&, fmt::v11::format_specs const&, fmt::v11::detail::float_specs, fmt::v11::detail::locale_ref)::{lambda(fmt::v11::basic_appender<char>(fmt::v11::basic_appender<char>))#1}::operator() const
PUBLIC 401d0 0 fmt::v11::detail::digit_grouping<char>::digit_grouping(fmt::v11::detail::locale_ref, bool)
PUBLIC 4043c 0 fmt::v11::detail::digit_grouping<char>::~digit_grouping()
PUBLIC 40480 0 fmt::v11::detail::write_exponent<char, fmt::v11::basic_appender<char> >(int, fmt::v11::basic_appender<char>)
PUBLIC 40650 0 _ZN3fmt3v116detail17write_significandIcjTnNSt6__ndk19enable_ifIXsr3std11is_integralIT0_EE5valueEiE4typeELi0EEEPT_S9_S5_iiS8_
PUBLIC 407cc 0 std::__ndk1::basic_string<char, std::__ndk1::char_traits<char>, std::__ndk1::allocator<char> >::__assign_no_alias<true>(char const*, unsigned long)
PUBLIC 40878 0 std::__ndk1::basic_string<char, std::__ndk1::char_traits<char>, std::__ndk1::allocator<char> >::__assign_no_alias<false>(char const*, unsigned long)
PUBLIC 40988 0 fmt::v11::detail::digit_grouping<char>::apply<fmt::v11::basic_appender<char>, char>(fmt::v11::basic_appender<char>, fmt::v11::basic_string_view<char>) const
PUBLIC 40d40 0 fmt::v11::basic_memory_buffer<int, (unsigned long)500, std::__ndk1::allocator<int> >::grow(fmt::v11::detail::buffer<int>&, unsigned long)
PUBLIC 40de0 0 fmt::v11::detail::do_write_float<char, fmt::v11::basic_appender<char>, fmt::v11::detail::dragonbox::decimal_fp<double>, fmt::v11::detail::digit_grouping<char> >(fmt::v11::basic_appender<char>, fmt::v11::detail::dragonbox::decimal_fp<double> const&, fmt::v11::format_specs const&, fmt::v11::detail::float_specs, fmt::v11::detail::locale_ref)
PUBLIC 41a94 0 fmt::v11::detail::do_write_float<char, fmt::v11::basic_appender<char>, fmt::v11::detail::dragonbox::decimal_fp<double>, fmt::v11::detail::digit_grouping<char> >(fmt::v11::basic_appender<char>, fmt::v11::detail::dragonbox::decimal_fp<double> const&, fmt::v11::format_specs const&, fmt::v11::detail::float_specs, fmt::v11::detail::locale_ref)::{lambda(fmt::v11::basic_appender<char>(fmt::v11::basic_appender<char>))#1}::operator() const
PUBLIC 41bec 0 _ZN3fmt3v116detail17write_significandIcmTnNSt6__ndk19enable_ifIXsr3std11is_integralIT0_EE5valueEiE4typeELi0EEEPT_S9_S5_iiS8_
PUBLIC 41d7c 0 fmt::v11::detail::write_float<char, fmt::v11::basic_appender<char>, long double>(fmt::v11::basic_appender<char>, long double, fmt::v11::format_specs, fmt::v11::detail::locale_ref)
PUBLIC 42878 0 fmt::v11::detail::write_padded<char, (fmt::v11::align::type)2, fmt::v11::basic_appender<char>, fmt::v11::detail::write_bytes<char, (fmt::v11::align::type)2, fmt::v11::basic_appender<char> >(fmt::v11::basic_appender<char>, fmt::v11::basic_string_view<char>, fmt::v11::format_specs const&)::{lambda(fmt::v11::basic_appender<char>&)#1}>(fmt::v11::basic_appender<char>, fmt::v11::format_specs const&, unsigned long, unsigned long, fmt::v11::detail::write_bytes<char, (fmt::v11::align::type)2, fmt::v11::basic_appender<char> >(fmt::v11::basic_appender<char>, fmt::v11::basic_string_view<char>, fmt::v11::format_specs const&)::{lambda(fmt::v11::basic_appender<char>&)#1})
PUBLIC 42a54 0 fmt::v11::detail::format_dragon(fmt::v11::detail::basic_fp<unsigned __int128>, unsigned int, int, fmt::v11::detail::buffer<char>&, int&)
PUBLIC 43e84 0 fmt::v11::detail::bigint::operator<<=(int)
PUBLIC 43fa8 0 fmt::v11::detail::bigint::assign_pow10(int)
PUBLIC 44704 0 fmt::v11::detail::bigint::divmod_assign(fmt::v11::detail::bigint const&)
PUBLIC 44a24 0 fmt::v11::basic_memory_buffer<unsigned int, (unsigned long)32, std::__ndk1::allocator<unsigned int> >::grow(fmt::v11::detail::buffer<unsigned int>&, unsigned long)
PUBLIC 44ac4 0 fmt::v11::detail::do_write_float<char, fmt::v11::basic_appender<char>, fmt::v11::detail::big_decimal_fp, fmt::v11::detail::digit_grouping<char> >(fmt::v11::basic_appender<char>, fmt::v11::detail::big_decimal_fp const&, fmt::v11::format_specs const&, fmt::v11::detail::float_specs, fmt::v11::detail::locale_ref)
PUBLIC 45974 0 fmt::v11::detail::do_write_float<char, fmt::v11::basic_appender<char>, fmt::v11::detail::big_decimal_fp, fmt::v11::detail::digit_grouping<char> >(fmt::v11::basic_appender<char>, fmt::v11::detail::big_decimal_fp const&, fmt::v11::format_specs const&, fmt::v11::detail::float_specs, fmt::v11::detail::locale_ref)::{lambda(fmt::v11::basic_appender<char>(fmt::v11::basic_appender<char>))#1}::operator() const
PUBLIC 45ad4 0 fmt::v11::detail::write_padded<char, (fmt::v11::align::type)2, fmt::v11::basic_appender<char>, fmt::v11::detail::write_ptr<char, fmt::v11::basic_appender<char>, unsigned long>(fmt::v11::basic_appender<char>, unsigned long, fmt::v11::format_specs const*)::{lambda(fmt::v11::basic_appender<char>&)#1}>(fmt::v11::basic_appender<char>, fmt::v11::format_specs const&, unsigned long, unsigned long, fmt::v11::detail::write_ptr<char, fmt::v11::basic_appender<char>, unsigned long>(fmt::v11::basic_appender<char>, unsigned long, fmt::v11::format_specs const*)::{lambda(fmt::v11::basic_appender<char>&)#1})
PUBLIC 45ce8 0 fmt::v11::detail::parse_replacement_field<char, fmt::v11::detail::vformat_to<char>(fmt::v11::detail::buffer<char>&, fmt::v11::basic_string_view<char>, fmt::v11::detail::vformat_args<char>::type, fmt::v11::detail::locale_ref)::format_handler&>(char const*, char const*, fmt::v11::detail::vformat_to<char>(fmt::v11::detail::buffer<char>&, fmt::v11::basic_string_view<char>, fmt::v11::detail::vformat_args<char>::type, fmt::v11::detail::locale_ref)::format_handler&)
PUBLIC 47984 0 fmt::v11::detail::parse_dynamic_spec<char>(char const*, char const*, int&, fmt::v11::detail::arg_ref<char>&, fmt::v11::basic_format_parse_context<char>&)
PUBLIC 47c14 0 fmt::v11::basic_format_args<fmt::v11::context>::get<char>(fmt::v11::basic_string_view<char>) const
PUBLIC 47d6c 0 fmt::v11::detail::write_int_noinline<char, fmt::v11::basic_appender<char>, unsigned long>(fmt::v11::basic_appender<char>, fmt::v11::detail::write_int_arg<unsigned long>, fmt::v11::format_specs const&, fmt::v11::detail::locale_ref)
PUBLIC 48bc0 0 fmt::v11::detail::write_int_noinline<char, fmt::v11::basic_appender<char>, unsigned __int128>(fmt::v11::basic_appender<char>, fmt::v11::detail::write_int_arg<unsigned __int128>, fmt::v11::format_specs const&, fmt::v11::detail::locale_ref)
PUBLIC 49c28 0 _ZN3fmt3v116detail15format_hexfloatIdTnNSt6__ndk19enable_ifIXntsr16is_double_doubleIT_EE5valueEiE4typeELi0EEEvS5_NS0_12format_specsERNS1_6bufferIcEE
PUBLIC 4a148 0 fmt::v11::detail::format_float<double>(double, int, fmt::v11::detail::float_specs, fmt::v11::detail::buffer<char>&)
PUBLIC 4aae8 0 fmt::v11::detail::write<char, fmt::v11::basic_appender<char> >(fmt::v11::basic_appender<char>, fmt::v11::basic_string_view<char>, fmt::v11::format_specs const&)
PUBLIC 4be54 0 fmt::v11::detail::for_each_codepoint<fmt::v11::detail::compute_width(fmt::v11::basic_string_view<char>)::count_code_points>(fmt::v11::basic_string_view<char>, fmt::v11::detail::compute_width(fmt::v11::basic_string_view<char>)::count_code_points)::{lambda(char const*, char const*)#1}::operator()(char const*, char const*) const
PUBLIC 4c00c 0 fmt::v11::detail::write_int<fmt::v11::basic_appender<char>, unsigned long, char>(fmt::v11::basic_appender<char>, unsigned long, unsigned int, fmt::v11::format_specs const&, fmt::v11::detail::digit_grouping<char> const&)
PUBLIC 4c588 0 fmt::v11::detail::write_int<fmt::v11::basic_appender<char>, unsigned __int128, char>(fmt::v11::basic_appender<char>, unsigned __int128, unsigned int, fmt::v11::format_specs const&, fmt::v11::detail::digit_grouping<char> const&)
PUBLIC 4cc10 0 <.plt ELF section in naxrin.progress_bar_color.android64.so>
STACK CFI INIT 24840 10 .cfa: sp 0 +
STACK CFI INIT 24850 8 .cfa: sp 0 +
STACK CFI INIT 24858 8 .cfa: sp 0 +
STACK CFI INIT 24860 14 .cfa: sp 0 +
STACK CFI INIT 24874 1c .cfa: sp 0 +
STACK CFI INIT 24890 10 .cfa: sp 0 +
STACK CFI INIT 248a0 134 .cfa: sp 0 +
STACK CFI INIT 249d4 84 .cfa: sp 0 +
STACK CFI INIT 24a58 f4 .cfa: sp 0 +
STACK CFI INIT 24b4c a8 .cfa: sp 0 +
STACK CFI INIT 24bf4 7c .cfa: sp 0 +
STACK CFI INIT 24c70 14 .cfa: sp 0 +
STACK CFI INIT 24c84 40 .cfa: sp 0 +
STACK CFI INIT 24cc4 28 .cfa: sp 0 +
STACK CFI INIT 24cec 190 .cfa: sp 0 +
STACK CFI INIT 24e7c 2c8 .cfa: sp 0 +
STACK CFI INIT 25144 8 .cfa: sp 0 +
STACK CFI INIT 2514c 8 .cfa: sp 0 +
STACK CFI INIT 25154 44 .cfa: sp 0 +
STACK CFI INIT 25198 e8 .cfa: sp 0 +
STACK CFI INIT 25280 e8 .cfa: sp 0 +
STACK CFI INIT 25368 14 .cfa: sp 0 +
STACK CFI INIT 2537c 10 .cfa: sp 0 +
STACK CFI INIT 2538c 10 .cfa: sp 0 +
STACK CFI INIT 2539c f0 .cfa: sp 0 +
STACK CFI INIT 2548c 44 .cfa: sp 0 +
STACK CFI INIT 254d0 c .cfa: sp 0 +
STACK CFI INIT 254dc c .cfa: sp 0 +
STACK CFI INIT 254e8 2c .cfa: sp 0 +
STACK CFI INIT 25514 280 .cfa: sp 0 +
STACK CFI INIT 25794 c .cfa: sp 0 +
STACK CFI INIT 257a0 120 .cfa: sp 0 +
STACK CFI INIT 258c0 488 .cfa: sp 0 +
STACK CFI INIT 25d48 c48 .cfa: sp 0 +
STACK CFI INIT 26990 134 .cfa: sp 0 +
STACK CFI INIT 26ac4 210 .cfa: sp 0 +
STACK CFI INIT 26cd4 38c .cfa: sp 0 +
STACK CFI INIT 27060 1c8 .cfa: sp 0 +
STACK CFI INIT 27228 9bc .cfa: sp 0 +
STACK CFI INIT 27be4 2d4 .cfa: sp 0 +
STACK CFI INIT 27eb8 134 .cfa: sp 0 +
STACK CFI INIT 27fec 120 .cfa: sp 0 +
STACK CFI INIT 2810c 1c8 .cfa: sp 0 +
STACK CFI INIT 282d4 168 .cfa: sp 0 +
STACK CFI INIT 2843c fc .cfa: sp 0 +
STACK CFI INIT 28538 30 .cfa: sp 0 +
STACK CFI INIT 286a0 30 .cfa: sp 0 +
STACK CFI INIT 286d0 98 .cfa: sp 0 +
STACK CFI INIT 28768 59c .cfa: sp 0 +
STACK CFI INIT 28d04 8c .cfa: sp 0 +
STACK CFI INIT 28d90 30 .cfa: sp 0 +
STACK CFI INIT 28dc0 14c .cfa: sp 0 +
STACK CFI 28dc4 .cfa: sp 16 +
STACK CFI 28dc8 .cfa: x29 16 + .ra: .cfa -8 + ^ x29: .cfa -16 + ^
STACK CFI 28e34 .cfa: sp 16 +
STACK CFI 28e38 .cfa: sp 0 +
STACK CFI 28e3c .cfa: x29 16 +
STACK CFI 28f04 .cfa: sp 16 +
STACK CFI 28f08 .cfa: sp 0 +
STACK CFI INIT 2b7a4 18 .cfa: sp 0 +
STACK CFI INIT 2b7bc 18 .cfa: sp 0 +
STACK CFI INIT 2b7d4 18 .cfa: sp 0 +
STACK CFI INIT 2b7ec 18 .cfa: sp 0 +
STACK CFI INIT 2b804 14 .cfa: sp 0 +
STACK CFI 2b808 .cfa: sp 16 +
STACK CFI 2b80c .cfa: x29 16 + .ra: .cfa -8 + ^ x29: .cfa -16 + ^
STACK CFI INIT 2b868 30 .cfa: sp 0 +
STACK CFI 2b86c .cfa: sp 32 +
STACK CFI 2b874 .cfa: x29 32 + x19: .cfa -16 + ^ .ra: .cfa -24 + ^ x29: .cfa -32 + ^
STACK CFI 2b88c .cfa: sp 32 +
STACK CFI 2b894 .cfa: sp 0 +
STACK CFI INIT 2b898 34 .cfa: sp 0 +
STACK CFI 2b89c .cfa: sp 32 +
STACK CFI 2b8a4 .cfa: x29 32 + x19: .cfa -16 + ^ .ra: .cfa -24 + ^ x29: .cfa -32 + ^
STACK CFI INIT 2b8cc 10 .cfa: sp 0 +
STACK CFI 2b8d0 .cfa: sp 16 +
STACK CFI 2b8d4 .cfa: x29 16 + .ra: .cfa -8 + ^ x29: .cfa -16 + ^
STACK CFI INIT 2b8dc 80 .cfa: sp 0 +
STACK CFI 2b8e0 .cfa: sp 48 +
STACK CFI 2b8ec .cfa: x29 48 + x19: .cfa -8 + ^ x20: .cfa -16 + ^ x21: .cfa -24 + ^ x22: .cfa -32 + ^ .ra: .cfa -40 + ^ x29: .cfa -48 + ^
STACK CFI 2b904 .cfa: sp 48 +
STACK CFI 2b910 .cfa: sp 0 +
STACK CFI 2b914 .cfa: x29 48 +
STACK CFI 2b944 .cfa: sp 48 +
STACK CFI 2b950 .cfa: sp 0 +
STACK CFI 2b954 .cfa: x29 48 +
STACK CFI INIT 2b95c 50 .cfa: sp 0 +
STACK CFI 2b960 .cfa: sp 32 +
STACK CFI 2b968 .cfa: x29 32 + x19: .cfa -16 + ^ .ra: .cfa -24 + ^ x29: .cfa -32 + ^
STACK CFI 2b980 .cfa: sp 32 +
STACK CFI 2b988 .cfa: sp 0 +
STACK CFI 2b98c .cfa: x29 32 +
STACK CFI 2b9a0 .cfa: sp 32 +
STACK CFI 2b9a8 .cfa: sp 0 +
STACK CFI INIT 2b9ac 50 .cfa: sp 0 +
STACK CFI 2b9b0 .cfa: sp 32 +
STACK CFI 2b9b8 .cfa: x29 32 + x19: .cfa -16 + ^ .ra: .cfa -24 + ^ x29: .cfa -32 + ^
STACK CFI 2b9d0 .cfa: sp 32 +
STACK CFI 2b9d8 .cfa: sp 0 +
STACK CFI 2b9dc .cfa: x29 32 +
STACK CFI 2b9f0 .cfa: sp 32 +
STACK CFI 2b9f8 .cfa: sp 0 +
STACK CFI INIT 2b9fc 104 .cfa: sp 0 +
STACK CFI 2ba00 .cfa: sp 64 +
STACK CFI 2ba10 .cfa: x29 64 + x19: .cfa -8 + ^ x20: .cfa -16 + ^ x21: .cfa -24 + ^ x22: .cfa -32 + ^ x23: .cfa -48 + ^ .ra: .cfa -56 + ^ x29: .cfa -64 + ^
STACK CFI 2ba6c .cfa: sp 64 +
STACK CFI 2ba7c .cfa: sp 0 +
STACK CFI 2ba80 .cfa: x29 64 +
STACK CFI 2ba9c .cfa: sp 64 +
STACK CFI 2baac .cfa: sp 0 +
STACK CFI 2bab0 .cfa: x29 64 +
STACK CFI 2baec .cfa: sp 64 +
STACK CFI 2bafc .cfa: sp 0 +
STACK CFI INIT 2c818 34 .cfa: sp 0 +
STACK CFI 2c81c .cfa: sp 16 +
STACK CFI 2c820 .cfa: x29 16 + .ra: .cfa -8 + ^ x29: .cfa -16 + ^
STACK CFI INIT 2c978 80 .cfa: sp 0 +
STACK CFI 2c97c .cfa: sp 48 +
STACK CFI 2c988 .cfa: x29 48 + x19: .cfa -8 + ^ x20: .cfa -16 + ^ x21: .cfa -32 + ^ .ra: .cfa -40 + ^ x29: .cfa -48 + ^
STACK CFI 2c9e8 .cfa: sp 48 +
STACK CFI 2c9f4 .cfa: sp 0 +
STACK CFI INIT 2c9f8 24 .cfa: sp 0 +
STACK CFI 2c9fc .cfa: sp 32 +
STACK CFI 2ca04 .cfa: x29 32 + x19: .cfa -16 + ^ .ra: .cfa -24 + ^ x29: .cfa -32 + ^
STACK CFI 2ca10 .cfa: sp 32 +
STACK CFI 2ca18 .cfa: sp 0 +
STACK CFI INIT 2cf14 148 .cfa: sp 0 +
STACK CFI 2cf18 .cfa: sp 48 +
STACK CFI 2cf24 .cfa: x29 48 + x19: .cfa -8 + ^ x20: .cfa -16 + ^ x21: .cfa -32 + ^ .ra: .cfa -40 + ^ x29: .cfa -48 + ^
STACK CFI 2d04c .cfa: sp 48 +
STACK CFI 2d058 .cfa: sp 0 +
STACK CFI INIT 2d05c 4 .cfa: sp 0 +
STACK CFI INIT 2d060 14 .cfa: sp 0 +
STACK CFI INIT 2d074 14 .cfa: sp 0 +
STACK CFI INIT 2d088 14 .cfa: sp 0 +
STACK CFI INIT 2d09c 4 .cfa: sp 0 +
STACK CFI INIT 2d0a0 14 .cfa: sp 0 +
STACK CFI INIT 2d0b4 4 .cfa: sp 0 +
STACK CFI INIT 2d0b8 14 .cfa: sp 0 +
STACK CFI INIT 2d0cc 4 .cfa: sp 0 +
STACK CFI INIT 2d0d0 14 .cfa: sp 0 +
STACK CFI INIT 2d9ec 3c .cfa: sp 0 +
STACK CFI 2d9f0 .cfa: sp 32 +
STACK CFI 2d9f8 .cfa: x29 32 + x19: .cfa -16 + ^ .ra: .cfa -24 + ^ x29: .cfa -32 + ^
STACK CFI 2da0c .cfa: sp 32 +
STACK CFI 2da14 .cfa: sp 0 +
STACK CFI 2da18 .cfa: x29 32 +
STACK CFI 2da1c .cfa: sp 32 +
STACK CFI 2da24 .cfa: sp 0 +
STACK CFI INIT 2da28 68 .cfa: sp 0 +
STACK CFI 2da2c .cfa: sp 48 +
STACK CFI 2da38 .cfa: x29 48 + x19: .cfa -8 + ^ x20: .cfa -16 + ^ x21: .cfa -32 + ^ .ra: .cfa -40 + ^ x29: .cfa -48 + ^
STACK CFI 2da70 .cfa: sp 48 +
STACK CFI 2da7c .cfa: sp 0 +
STACK CFI 2da80 .cfa: sp 48 +
STACK CFI 2da8c .cfa: sp 0 +
STACK CFI INIT 2dc54 54 .cfa: sp 0 +
STACK CFI 2dc58 .cfa: sp 32 +
STACK CFI 2dc60 .cfa: x29 32 + x19: .cfa -8 + ^ x20: .cfa -16 + ^ .ra: .cfa -24 + ^ x29: .cfa -32 + ^
STACK CFI 2dc90 .cfa: sp 32 +
STACK CFI 2dc98 .cfa: sp 0 +
STACK CFI 2dc9c .cfa: sp 32 +
STACK CFI 2dca4 .cfa: sp 0 +
STACK CFI INIT 2dca8 14 .cfa: sp 0 +
STACK CFI 2dcac .cfa: sp 16 +
STACK CFI 2dcb0 .cfa: x29 16 + .ra: .cfa -8 + ^ x29: .cfa -16 + ^
STACK CFI INIT 2ddc0 148 .cfa: sp 0 +
STACK CFI 2ddc4 .cfa: sp 128 +
STACK CFI 2ddd4 .cfa: x29 48 + x19: .cfa -8 + ^ x20: .cfa -16 + ^ x21: .cfa -32 + ^ .ra: .cfa -40 + ^ x29: .cfa -48 + ^
STACK CFI 2dea0 .cfa: sp 128 +
STACK CFI 2deb0 .cfa: sp 0 +
STACK CFI 2deb4 .cfa: x29 48 +
STACK CFI INIT 2df08 200 .cfa: sp 0 +
STACK CFI INIT 2e424 50 .cfa: sp 0 +
STACK CFI 2e428 .cfa: sp 32 +
STACK CFI 2e430 .cfa: x29 32 + x19: .cfa -16 + ^ .ra: .cfa -24 + ^ x29: .cfa -32 + ^
STACK CFI 2e448 .cfa: sp 32 +
STACK CFI 2e450 .cfa: sp 0 +
STACK CFI 2e454 .cfa: x29 32 +
STACK CFI 2e468 .cfa: sp 32 +
STACK CFI 2e470 .cfa: sp 0 +
STACK CFI INIT 2e4e8 7c .cfa: sp 0 +
STACK CFI 2e4ec .cfa: sp 48 +
STACK CFI 2e4f8 .cfa: x29 48 + x19: .cfa -8 + ^ x20: .cfa -16 + ^ x21: .cfa -32 + ^ .ra: .cfa -40 + ^ x29: .cfa -48 + ^
STACK CFI 2e544 .cfa: sp 48 +
STACK CFI 2e550 .cfa: sp 0 +
STACK CFI 2e554 .cfa: sp 48 +
STACK CFI 2e560 .cfa: sp 0 +
STACK CFI INIT 2e564 4 .cfa: sp 0 +
STACK CFI INIT 2e8e0 68 .cfa: sp 0 +
STACK CFI 2e8e4 .cfa: sp 32 +
STACK CFI 2e8ec .cfa: x29 32 + x19: .cfa -8 + ^ x20: .cfa -16 + ^ .ra: .cfa -24 + ^ x29: .cfa -32 + ^
STACK CFI 2e904 .cfa: sp 32 +
STACK CFI 2e90c .cfa: sp 0 +
STACK CFI 2e910 .cfa: x29 32 +
STACK CFI 2e93c .cfa: sp 32 +
STACK CFI 2e944 .cfa: sp 0 +
STACK CFI INIT 2e948 14 .cfa: sp 0 +
STACK CFI 2e94c .cfa: sp 16 +
STACK CFI 2e950 .cfa: x29 16 + .ra: .cfa -8 + ^ x29: .cfa -16 + ^
STACK CFI INIT 2e95c 4 .cfa: sp 0 +
STACK CFI INIT 2e960 14 .cfa: sp 0 +
STACK CFI INIT 2e974 120 .cfa: sp 0 +
STACK CFI 2e978 .cfa: sp 64 +
STACK CFI 2e988 .cfa: x29 64 + x19: .cfa -8 + ^ x20: .cfa -16 + ^ x21: .cfa -24 + ^ x22: .cfa -32 + ^ x23: .cfa -40 + ^ x24: .cfa -48 + ^ .ra: .cfa -56 + ^ x29: .cfa -64 + ^
STACK CFI 2ea80 .cfa: sp 64 +
STACK CFI 2ea90 .cfa: sp 0 +
STACK CFI INIT 2ea94 4a4 .cfa: sp 0 +
STACK CFI 2ea98 .cfa: sp 32 +
STACK CFI 2eaa0 .cfa: x29 32 + x19: .cfa -8 + ^ x20: .cfa -16 + ^ .ra: .cfa -24 + ^ x29: .cfa -32 + ^
STACK CFI 2ee80 .cfa: sp 32 +
STACK CFI 2ee88 .cfa: sp 0 +
STACK CFI 2ee8c .cfa: x29 32 +
STACK CFI INIT 2ef38 84 .cfa: sp 0 +
STACK CFI 2ef40 .cfa: sp 32 +
STACK CFI 2ef48 .cfa: x29 32 + x19: .cfa -8 + ^ x20: .cfa -16 + ^ .ra: .cfa -24 + ^ x29: .cfa -32 + ^
STACK CFI 2ef88 .cfa: sp 32 +
STACK CFI 2ef90 .cfa: sp 0 +
STACK CFI 2ef98 .cfa: x29 32 +
STACK CFI INIT 2f370 8c .cfa: sp 0 +
STACK CFI 2f374 .cfa: sp 32 +
STACK CFI 2f37c .cfa: x29 32 + x19: .cfa -16 + ^ .ra: .cfa -24 + ^ x29: .cfa -32 + ^
STACK CFI 2f3f0 .cfa: sp 32 +
STACK CFI 2f3f8 .cfa: sp 0 +
STACK CFI INIT 2f3fc 50 .cfa: sp 0 +
STACK CFI 2f400 .cfa: sp 32 +
STACK CFI 2f408 .cfa: x29 32 + x19: .cfa -16 + ^ .ra: .cfa -24 + ^ x29: .cfa -32 + ^
STACK CFI 2f420 .cfa: sp 32 +
STACK CFI 2f428 .cfa: sp 0 +
STACK CFI 2f42c .cfa: x29 32 +
STACK CFI 2f440 .cfa: sp 32 +
STACK CFI 2f448 .cfa: sp 0 +
STACK CFI INIT 2f44c 64 .cfa: sp 0 +
STACK CFI 2f450 .cfa: sp 32 +
STACK CFI 2f458 .cfa: x29 32 + x19: .cfa -16 + ^ .ra: .cfa -24 + ^ x29: .cfa -32 + ^
STACK CFI 2f484 .cfa: sp 32 +
STACK CFI 2f48c .cfa: sp 0 +
STACK CFI 2f490 .cfa: x29 32 +
STACK CFI 2f4a4 .cfa: sp 32 +
STACK CFI 2f4ac .cfa: sp 0 +
STACK CFI INIT 2f4b0 168 .cfa: sp 0 +
STACK CFI 2f4b4 .cfa: sp 80 +
STACK CFI 2f4c8 .cfa: x29 80 + x19: .cfa -8 + ^ x20: .cfa -16 + ^ x21: .cfa -24 + ^ x22: .cfa -32 + ^ x23: .cfa -40 + ^ x24: .cfa -48 + ^ x25: .cfa -56 + ^ x26: .cfa -64 + ^ .ra: .cfa -72 + ^ x29: .cfa -80 + ^
STACK CFI 2f600 .cfa: sp 80 +
STACK CFI 2f614 .cfa: sp 0 +
STACK CFI INIT 2f618 1b0 .cfa: sp 0 +
STACK CFI INIT 2fb64 4 .cfa: sp 0 +
STACK CFI INIT 304a8 4 .cfa: sp 0 +
STACK CFI INIT 30c50 9c .cfa: sp 0 +
STACK CFI INIT 314dc 4 .cfa: sp 0 +
STACK CFI INIT 314e0 14 .cfa: sp 0 +
STACK CFI 314e4 .cfa: sp 16 +
STACK CFI 314e8 .cfa: x29 16 + .ra: .cfa -8 + ^ x29: .cfa -16 + ^
STACK CFI INIT 314f4 14 .cfa: sp 0 +
STACK CFI 314f8 .cfa: sp 16 +
STACK CFI 314fc .cfa: x29 16 + .ra: .cfa -8 + ^ x29: .cfa -16 + ^
STACK CFI INIT 31508 c .cfa: sp 0 +
STACK CFI 3150c .cfa: sp 16 +
STACK CFI 31510 .cfa: x29 16 + .ra: .cfa -8 + ^ x29: .cfa -16 + ^
STACK CFI INIT 31564 30 .cfa: sp 0 +
STACK CFI 31568 .cfa: sp 32 +
STACK CFI 31570 .cfa: x29 32 + x19: .cfa -16 + ^ .ra: .cfa -24 + ^ x29: .cfa -32 + ^
STACK CFI 31588 .cfa: sp 32 +
STACK CFI 31590 .cfa: sp 0 +
STACK CFI INIT 31594 c .cfa: sp 0 +
STACK CFI 31598 .cfa: sp 16 +
STACK CFI 3159c .cfa: x29 16 + .ra: .cfa -8 + ^ x29: .cfa -16 + ^
STACK CFI INIT 315a0 4 .cfa: sp 0 +
STACK CFI INIT 315a4 4 .cfa: sp 0 +
STACK CFI INIT 315a8 38 .cfa: sp 0 +
STACK CFI 315ac .cfa: sp 32 +
STACK CFI 315b4 .cfa: x29 32 + x19: .cfa -16 + ^ .ra: .cfa -24 + ^ x29: .cfa -32 + ^
STACK CFI 315d4 .cfa: sp 32 +
STACK CFI 315dc .cfa: sp 0 +
STACK CFI INIT 315e0 18 .cfa: sp 0 +
STACK CFI INIT 315f8 4 .cfa: sp 0 +
STACK CFI INIT 315fc 4 .cfa: sp 0 +
STACK CFI INIT 31600 10 .cfa: sp 0 +
STACK CFI INIT 31610 1c .cfa: sp 0 +
STACK CFI INIT 3162c c .cfa: sp 0 +
STACK CFI INIT 319dc 4 .cfa: sp 0 +
STACK CFI INIT 32240 50 .cfa: sp 0 +
STACK CFI 32244 .cfa: sp 32 +
STACK CFI 3224c .cfa: x29 32 + x19: .cfa -16 + ^ .ra: .cfa -24 + ^ x29: .cfa -32 + ^
STACK CFI 32264 .cfa: sp 32 +
STACK CFI 3226c .cfa: sp 0 +
STACK CFI 32270 .cfa: x29 32 +
STACK CFI 32284 .cfa: sp 32 +
STACK CFI 3228c .cfa: sp 0 +
STACK CFI INIT 32290 10 .cfa: sp 0 +
STACK CFI INIT 322a0 30 .cfa: sp 0 +
STACK CFI 322a4 .cfa: sp 32 +
STACK CFI 322ac .cfa: x29 32 + x19: .cfa -16 + ^ .ra: .cfa -24 + ^ x29: .cfa -32 + ^
STACK CFI 322c4 .cfa: sp 32 +
STACK CFI 322cc .cfa: sp 0 +
STACK CFI INIT 322d0 c .cfa: sp 0 +
STACK CFI INIT 322dc 4 .cfa: sp 0 +
STACK CFI INIT 322e0 6c .cfa: sp 0 +
STACK CFI 322e4 .cfa: sp 32 +
STACK CFI 322ec .cfa: x29 32 + x19: .cfa -8 + ^ x20: .cfa -16 + ^ .ra: .cfa -24 + ^ x29: .cfa -32 + ^
STACK CFI 32318 .cfa: sp 32 +
STACK CFI 32320 .cfa: sp 0 +
STACK CFI 32324 .cfa: x29 32 +
STACK CFI 32340 .cfa: sp 32 +
STACK CFI 32348 .cfa: sp 0 +
STACK CFI INIT 3234c 4 .cfa: sp 0 +
STACK CFI INIT 32558 60 .cfa: sp 0 +
STACK CFI INIT 32680 8 .cfa: sp 0 +
STACK CFI INIT 32688 10 .cfa: sp 0 +
STACK CFI INIT 32698 30 .cfa: sp 0 +
STACK CFI 3269c .cfa: sp 32 +
STACK CFI 326a4 .cfa: x29 32 + x19: .cfa -16 + ^ .ra: .cfa -24 + ^ x29: .cfa -32 + ^
STACK CFI 326bc .cfa: sp 32 +
STACK CFI 326c4 .cfa: sp 0 +
STACK CFI INIT 326c8 4 .cfa: sp 0 +
STACK CFI INIT 326cc 4 .cfa: sp 0 +
STACK CFI INIT 326d0 4 .cfa: sp 0 +
STACK CFI INIT 326d4 4 .cfa: sp 0 +
STACK CFI INIT 326d8 34 .cfa: sp 0 +
STACK CFI 326dc .cfa: sp 32 +
STACK CFI 326e4 .cfa: x29 32 + x19: .cfa -16 + ^ .ra: .cfa -24 + ^ x29: .cfa -32 + ^
STACK CFI 32700 .cfa: sp 32 +
STACK CFI 32708 .cfa: sp 0 +
STACK CFI INIT 3270c 14 .cfa: sp 0 +
STACK CFI INIT 32720 4 .cfa: sp 0 +
STACK CFI INIT 32724 4 .cfa: sp 0 +
STACK CFI INIT 32728 14 .cfa: sp 0 +
STACK CFI INIT 3273c 1c .cfa: sp 0 +
STACK CFI INIT 32758 c .cfa: sp 0 +
STACK CFI INIT 32764 4 .cfa: sp 0 +
STACK CFI INIT 32768 14 .cfa: sp 0 +
STACK CFI INIT 3277c 14c .cfa: sp 0 +
STACK CFI 32780 .cfa: sp 16 +
STACK CFI 32784 .cfa: x29 16 + .ra: .cfa -8 + ^ x29: .cfa -16 + ^
STACK CFI 327f0 .cfa: sp 16 +
STACK CFI 327f4 .cfa: sp 0 +
STACK CFI 327f8 .cfa: x29 16 +
STACK CFI 328c0 .cfa: sp 16 +
STACK CFI 328c4 .cfa: sp 0 +
STACK CFI INIT 33318 48 .cfa: sp 0 +
STACK CFI 3331c .cfa: sp 32 +
STACK CFI 33324 .cfa: x29 32 + x19: .cfa -8 + ^ x20: .cfa -16 + ^ .ra: .cfa -24 + ^ x29: .cfa -32 + ^
STACK CFI 33354 .cfa: sp 32 +
STACK CFI 3335c .cfa: sp 0 +
STACK CFI INIT 33670 68 .cfa: sp 0 +
STACK CFI 33674 .cfa: sp 32 +
STACK CFI 3367c .cfa: x29 32 + x19: .cfa -8 + ^ x20: .cfa -16 + ^ .ra: .cfa -24 + ^ x29: .cfa -32 + ^
STACK CFI 336cc .cfa: sp 32 +
STACK CFI 336d4 .cfa: sp 0 +
STACK CFI INIT 34a50 2a0 .cfa: sp 0 +
STACK CFI 34a54 .cfa: sp 144 +
STACK CFI 34a74 .cfa: x29 96 + x19: .cfa -8 + ^ x20: .cfa -16 + ^ x21: .cfa -24 + ^ x22: .cfa -32 + ^ x23: .cfa -40 + ^ x24: .cfa -48 + ^ x25: .cfa -56 + ^ x26: .cfa -64 + ^ x27: .cfa -72 + ^ x28: .cfa -80 + ^ .ra: .cfa -88 + ^ x29: .cfa -96 + ^ v8: .cfa -112 + ^
STACK CFI 34cc8 .cfa: sp 144 +
STACK CFI 34ce8 .cfa: sp 0 +
STACK CFI 34cec .cfa: x29 96 +
STACK CFI INIT 35634 98 .cfa: sp 0 +
STACK CFI 35638 .cfa: sp 304 +
STACK CFI 35644 .cfa: x29 32 + x19: .cfa -8 + ^ x28: .cfa -16 + ^ .ra: .cfa -24 + ^ x29: .cfa -32 + ^
STACK CFI 356b8 .cfa: sp 304 +
STACK CFI 356c4 .cfa: sp 0 +
STACK CFI 356c8 .cfa: x29 32 +
STACK CFI INIT 356cc a8 .cfa: sp 0 +
STACK CFI 356d0 .cfa: sp 80 +
STACK CFI 356e0 .cfa: x29 48 + x19: .cfa -8 + ^ x20: .cfa -16 + ^ x21: .cfa -32 + ^ .ra: .cfa -40 + ^ x29: .cfa -48 + ^
STACK CFI 3575c .cfa: sp 80 +
STACK CFI 3576c .cfa: sp 0 +
STACK CFI 35770 .cfa: x29 48 +
STACK CFI INIT 358bc 8 .cfa: sp 0 +
STACK CFI INIT 358c4 24 .cfa: sp 0 +
STACK CFI 358c8 .cfa: sp 32 +
STACK CFI 358d0 .cfa: x29 32 + x19: .cfa -16 + ^ .ra: .cfa -24 + ^ x29: .cfa -32 + ^
STACK CFI 358dc .cfa: sp 32 +
STACK CFI 358e4 .cfa: sp 0 +
STACK CFI INIT 358e8 9c .cfa: sp 0 +
STACK CFI 358ec .cfa: sp 48 +
STACK CFI 358f8 .cfa: x29 32 + x19: .cfa -8 + ^ x20: .cfa -16 + ^ .ra: .cfa -24 + ^ x29: .cfa -32 + ^
STACK CFI 35970 .cfa: sp 48 +
STACK CFI 3597c .cfa: sp 0 +
STACK CFI 35980 .cfa: x29 32 +
STACK CFI INIT 35984 4 .cfa: sp 0 +
STACK CFI INIT 35988 8 .cfa: sp 0 +
STACK CFI INIT 35990 8 .cfa: sp 0 +
STACK CFI INIT 35998 8 .cfa: sp 0 +
STACK CFI INIT 359a0 d8 .cfa: sp 0 +
STACK CFI 359a4 .cfa: sp 64 +
STACK CFI 359b4 .cfa: x29 48 + x19: .cfa -8 + ^ x20: .cfa -16 + ^ x21: .cfa -24 + ^ x22: .cfa -32 + ^ .ra: .cfa -40 + ^ x29: .cfa -48 + ^
STACK CFI 35a60 .cfa: sp 64 +
STACK CFI 35a70 .cfa: sp 0 +
STACK CFI 35a74 .cfa: x29 48 +
STACK CFI INIT 35a78 8 .cfa: sp 0 +
STACK CFI INIT 35a80 28 .cfa: sp 0 +
STACK CFI 35a84 .cfa: sp 32 +
STACK CFI 35a8c .cfa: x29 32 + x19: .cfa -16 + ^ .ra: .cfa -24 + ^ x29: .cfa -32 + ^
STACK CFI 35a9c .cfa: sp 32 +
STACK CFI 35aa4 .cfa: sp 0 +
STACK CFI INIT 35aa8 4 .cfa: sp 0 +
STACK CFI INIT 35aac 4 .cfa: sp 0 +
STACK CFI INIT 35ab0 4 .cfa: sp 0 +
STACK CFI INIT 35ab4 4 .cfa: sp 0 +
STACK CFI INIT 35ab8 4 .cfa: sp 0 +
STACK CFI INIT 35abc 8 .cfa: sp 0 +
STACK CFI INIT 35ac4 24 .cfa: sp 0 +
STACK CFI 35ac8 .cfa: sp 32 +
STACK CFI 35ad0 .cfa: x29 32 + x19: .cfa -16 + ^ .ra: .cfa -24 + ^ x29: .cfa -32 + ^
STACK CFI 35adc .cfa: sp 32 +
STACK CFI 35ae4 .cfa: sp 0 +
STACK CFI INIT 35ae8 28 .cfa: sp 0 +
STACK CFI INIT 35b10 8 .cfa: sp 0 +
STACK CFI INIT 35b18 28 .cfa: sp 0 +
STACK CFI 35b1c .cfa: sp 32 +
STACK CFI 35b24 .cfa: x29 32 + x19: .cfa -16 + ^ .ra: .cfa -24 + ^ x29: .cfa -32 + ^
STACK CFI 35b34 .cfa: sp 32 +
STACK CFI 35b3c .cfa: sp 0 +
STACK CFI INIT 35b40 24 .cfa: sp 0 +
STACK CFI 35b44 .cfa: sp 32 +
STACK CFI 35b4c .cfa: x29 32 + x19: .cfa -16 + ^ .ra: .cfa -24 + ^ x29: .cfa -32 + ^
STACK CFI 35b58 .cfa: sp 32 +
STACK CFI 35b60 .cfa: sp 0 +
STACK CFI INIT 35b64 14 .cfa: sp 0 +
STACK CFI INIT 35c5c 8 .cfa: sp 0 +
STACK CFI INIT 35c64 28 .cfa: sp 0 +
STACK CFI 35c68 .cfa: sp 32 +
STACK CFI 35c70 .cfa: x29 32 + x19: .cfa -16 + ^ .ra: .cfa -24 + ^ x29: .cfa -32 + ^
STACK CFI 35c80 .cfa: sp 32 +
STACK CFI 35c88 .cfa: sp 0 +
STACK CFI INIT 35c8c 8 .cfa: sp 0 +
STACK CFI INIT 35c94 24 .cfa: sp 0 +
STACK CFI 35c98 .cfa: sp 32 +
STACK CFI 35ca0 .cfa: x29 32 + x19: .cfa -16 + ^ .ra: .cfa -24 + ^ x29: .cfa -32 + ^
STACK CFI 35cac .cfa: sp 32 +
STACK CFI 35cb4 .cfa: sp 0 +
STACK CFI INIT 35cb8 44 .cfa: sp 0 +
STACK CFI 35cbc .cfa: sp 32 +
STACK CFI 35cc4 .cfa: x29 32 + x19: .cfa -8 + ^ x20: .cfa -16 + ^ .ra: .cfa -24 + ^ x29: .cfa -32 + ^
STACK CFI 35cf0 .cfa: sp 32 +
STACK CFI 35cf8 .cfa: sp 0 +
STACK CFI INIT 35e04 8 .cfa: sp 0 +
STACK CFI INIT 35e0c 28 .cfa: sp 0 +
STACK CFI 35e10 .cfa: sp 32 +
STACK CFI 35e18 .cfa: x29 32 + x19: .cfa -16 + ^ .ra: .cfa -24 + ^ x29: .cfa -32 + ^
STACK CFI 35e28 .cfa: sp 32 +
STACK CFI 35e30 .cfa: sp 0 +
STACK CFI INIT 35e34 8 .cfa: sp 0 +
STACK CFI INIT 35f6c 24 .cfa: sp 0 +
STACK CFI 35f70 .cfa: sp 32 +
STACK CFI 35f78 .cfa: x29 32 + x19: .cfa -16 + ^ .ra: .cfa -24 + ^ x29: .cfa -32 + ^
STACK CFI 35f84 .cfa: sp 32 +
STACK CFI 35f8c .cfa: sp 0 +
STACK CFI INIT 35f90 2c .cfa: sp 0 +
STACK CFI 35f94 .cfa: sp 32 +
STACK CFI 35f9c .cfa: x29 32 + x19: .cfa -16 + ^ .ra: .cfa -24 + ^ x29: .cfa -32 + ^
STACK CFI 35fb0 .cfa: sp 32 +
STACK CFI 35fb8 .cfa: sp 0 +
STACK CFI INIT 35fbc 28 .cfa: sp 0 +
STACK CFI INIT 35fe4 4 .cfa: sp 0 +
STACK CFI INIT 35fe8 8 .cfa: sp 0 +
STACK CFI INIT 35ff0 8 .cfa: sp 0 +
STACK CFI INIT 35ff8 28 .cfa: sp 0 +
STACK CFI 35ffc .cfa: sp 32 +
STACK CFI 36004 .cfa: x29 32 + x19: .cfa -16 + ^ .ra: .cfa -24 + ^ x29: .cfa -32 + ^
STACK CFI 36014 .cfa: sp 32 +
STACK CFI 3601c .cfa: sp 0 +
STACK CFI INIT 36020 2c .cfa: sp 0 +
STACK CFI INIT 3604c 4 .cfa: sp 0 +
STACK CFI INIT 36050 8 .cfa: sp 0 +
STACK CFI INIT 36058 7c .cfa: sp 0 +
STACK CFI 3605c .cfa: sp 32 +
STACK CFI 36064 .cfa: x29 32 + x19: .cfa -8 + ^ x20: .cfa -16 + ^ .ra: .cfa -24 + ^ x29: .cfa -32 + ^
STACK CFI 36098 .cfa: sp 32 +
STACK CFI 360a0 .cfa: sp 0 +
STACK CFI 360a4 .cfa: x29 32 +
STACK CFI 360c8 .cfa: sp 32 +
STACK CFI 360d0 .cfa: sp 0 +
STACK CFI INIT 360d4 8 .cfa: sp 0 +
STACK CFI INIT 360dc 8 .cfa: sp 0 +
STACK CFI INIT 360e4 8 .cfa: sp 0 +
STACK CFI INIT 360ec 4 .cfa: sp 0 +
STACK CFI INIT 360f0 24 .cfa: sp 0 +
STACK CFI 360f4 .cfa: sp 32 +
STACK CFI 360fc .cfa: x29 32 + x19: .cfa -16 + ^ .ra: .cfa -24 + ^ x29: .cfa -32 + ^
STACK CFI 36108 .cfa: sp 32 +
STACK CFI 36110 .cfa: sp 0 +
STACK CFI INIT 36114 70 .cfa: sp 0 +
STACK CFI 36118 .cfa: sp 32 +
STACK CFI 36120 .cfa: x29 32 + x19: .cfa -8 + ^ x20: .cfa -16 + ^ .ra: .cfa -24 + ^ x29: .cfa -32 + ^
STACK CFI 36150 .cfa: sp 32 +
STACK CFI 36158 .cfa: sp 0 +
STACK CFI 3615c .cfa: x29 32 +
STACK CFI 36178 .cfa: sp 32 +
STACK CFI 36180 .cfa: sp 0 +
STACK CFI INIT 36184 80 .cfa: sp 0 +
STACK CFI 36188 .cfa: sp 32 +
STACK CFI 36190 .cfa: x29 32 + x19: .cfa -8 + ^ x20: .cfa -16 + ^ .ra: .cfa -24 + ^ x29: .cfa -32 + ^
STACK CFI 361c8 .cfa: sp 32 +
STACK CFI 361d0 .cfa: sp 0 +
STACK CFI 361d4 .cfa: x29 32 +
STACK CFI 361f8 .cfa: sp 32 +
STACK CFI 36200 .cfa: sp 0 +
STACK CFI INIT 36394 4 .cfa: sp 0 +
STACK CFI INIT 36398 4 .cfa: sp 0 +
STACK CFI INIT 3639c 8 .cfa: sp 0 +
STACK CFI INIT 363a4 8 .cfa: sp 0 +
STACK CFI INIT 368ec 5c .cfa: sp 0 +
STACK CFI 368f0 .cfa: sp 32 +
STACK CFI 368f8 .cfa: x29 32 + x19: .cfa -16 + ^ .ra: .cfa -24 + ^ x29: .cfa -32 + ^
STACK CFI 3693c .cfa: sp 32 +
STACK CFI 36944 .cfa: sp 0 +
STACK CFI INIT 369b4 4 .cfa: sp 0 +
STACK CFI INIT 36a24 4 .cfa: sp 0 +
STACK CFI INIT 36a28 4 .cfa: sp 0 +
STACK CFI INIT 36a2c 4 .cfa: sp 0 +
STACK CFI INIT 36a30 34 .cfa: sp 0 +
STACK CFI 36a34 .cfa: sp 32 +
STACK CFI 36a3c .cfa: x29 32 + x19: .cfa -16 + ^ .ra: .cfa -24 + ^ x29: .cfa -32 + ^
STACK CFI 36a58 .cfa: sp 32 +
STACK CFI 36a60 .cfa: sp 0 +
STACK CFI INIT 36a64 14 .cfa: sp 0 +
STACK CFI INIT 36a78 4 .cfa: sp 0 +
STACK CFI INIT 36a7c 4 .cfa: sp 0 +
STACK CFI INIT 36f9c 1c .cfa: sp 0 +
STACK CFI INIT 36fb8 c .cfa: sp 0 +
STACK CFI INIT 36fc4 4 .cfa: sp 0 +
STACK CFI INIT 37168 64 .cfa: sp 0 +
STACK CFI 3716c .cfa: sp 32 +
STACK CFI 37174 .cfa: x29 32 + x19: .cfa -16 + ^ .ra: .cfa -24 + ^ x29: .cfa -32 + ^
STACK CFI 371c0 .cfa: sp 32 +
STACK CFI 371c8 .cfa: sp 0 +
STACK CFI INIT 371cc 34 .cfa: sp 0 +
STACK CFI 371d0 .cfa: sp 16 +
STACK CFI 371d4 .cfa: x29 16 + .ra: .cfa -8 + ^ x29: .cfa -16 + ^
STACK CFI INIT 37200 24 .cfa: sp 0 +
STACK CFI 37204 .cfa: sp 32 +
STACK CFI 3720c .cfa: x29 32 + x19: .cfa -16 + ^ .ra: .cfa -24 + ^ x29: .cfa -32 + ^
STACK CFI 37218 .cfa: sp 32 +
STACK CFI 37220 .cfa: sp 0 +
STACK CFI INIT 37224 4 .cfa: sp 0 +
STACK CFI INIT 37228 4 .cfa: sp 0 +
STACK CFI INIT 3722c 34 .cfa: sp 0 +
STACK CFI 37230 .cfa: sp 32 +
STACK CFI 37238 .cfa: x29 32 + x19: .cfa -16 + ^ .ra: .cfa -24 + ^ x29: .cfa -32 + ^
STACK CFI 37254 .cfa: sp 32 +
STACK CFI 3725c .cfa: sp 0 +
STACK CFI INIT 37260 14 .cfa: sp 0 +
STACK CFI INIT 37274 4 .cfa: sp 0 +
STACK CFI INIT 37278 4 .cfa: sp 0 +
STACK CFI INIT 3727c 80 .cfa: sp 0 +
STACK CFI INIT 372fc 1c .cfa: sp 0 +
STACK CFI INIT 37318 c .cfa: sp 0 +
STACK CFI INIT 37324 4 .cfa: sp 0 +
STACK CFI INIT 374c8 5c .cfa: sp 0 +
STACK CFI 374cc .cfa: sp 32 +
STACK CFI 374d4 .cfa: x29 32 + x19: .cfa -16 + ^ .ra: .cfa -24 + ^ x29: .cfa -32 + ^
STACK CFI 37518 .cfa: sp 32 +
STACK CFI 37520 .cfa: sp 0 +
STACK CFI INIT 37524 64 .cfa: sp 0 +
STACK CFI 37528 .cfa: sp 32 +
STACK CFI 37530 .cfa: x29 32 + x19: .cfa -16 + ^ .ra: .cfa -24 + ^ x29: .cfa -32 + ^
STACK CFI 3757c .cfa: sp 32 +
STACK CFI 37584 .cfa: sp 0 +
STACK CFI INIT 37588 24 .cfa: sp 0 +
STACK CFI 3758c .cfa: sp 32 +
STACK CFI 37594 .cfa: x29 32 + x19: .cfa -16 + ^ .ra: .cfa -24 + ^ x29: .cfa -32 + ^
STACK CFI 375a0 .cfa: sp 32 +
STACK CFI 375a8 .cfa: sp 0 +
STACK CFI INIT 375ac 34 .cfa: sp 0 +
STACK CFI 375b0 .cfa: sp 16 +
STACK CFI 375b4 .cfa: x29 16 + .ra: .cfa -8 + ^ x29: .cfa -16 + ^
STACK CFI INIT 375e0 60 .cfa: sp 0 +
STACK CFI 375e4 .cfa: sp 32 +
STACK CFI 375ec .cfa: x29 32 + x19: .cfa -8 + ^ x20: .cfa -16 + ^ .ra: .cfa -24 + ^ x29: .cfa -32 + ^
STACK CFI 3760c .cfa: sp 32 +
STACK CFI 37614 .cfa: sp 0 +
STACK CFI 37618 .cfa: x29 32 +
STACK CFI 37634 .cfa: sp 32 +
STACK CFI 3763c .cfa: sp 0 +
STACK CFI INIT 37640 70 .cfa: sp 0 +
STACK CFI 37644 .cfa: sp 32 +
STACK CFI 3764c .cfa: x29 32 + x19: .cfa -8 + ^ x20: .cfa -16 + ^ .ra: .cfa -24 + ^ x29: .cfa -32 + ^
STACK CFI 37674 .cfa: sp 32 +
STACK CFI 3767c .cfa: sp 0 +
STACK CFI 37680 .cfa: x29 32 +
STACK CFI 376a4 .cfa: sp 32 +
STACK CFI 376ac .cfa: sp 0 +
STACK CFI INIT 376b0 10 .cfa: sp 0 +
STACK CFI INIT 376c0 30 .cfa: sp 0 +
STACK CFI 376c4 .cfa: sp 32 +
STACK CFI 376cc .cfa: x29 32 + x19: .cfa -16 + ^ .ra: .cfa -24 + ^ x29: .cfa -32 + ^
STACK CFI 376e4 .cfa: sp 32 +
STACK CFI 376ec .cfa: sp 0 +
STACK CFI INIT 376f0 4 .cfa: sp 0 +
STACK CFI INIT 376f4 4 .cfa: sp 0 +
STACK CFI INIT 328c8 1c8 .cfa: sp 0 +
STACK CFI 328cc .cfa: sp 32 +
STACK CFI 328d4 .cfa: x29 32 + x19: .cfa -16 + ^ .ra: .cfa -24 + ^ x29: .cfa -32 + ^
STACK CFI 32a84 .cfa: sp 32 +
STACK CFI 32a8c .cfa: sp 0 +
STACK CFI INIT 376f8 3c .cfa: sp 0 +
STACK CFI 376fc .cfa: sp 32 +
STACK CFI 37704 .cfa: x29 32 + x19: .cfa -16 + ^ .ra: .cfa -24 + ^ x29: .cfa -32 + ^
STACK CFI 37710 .cfa: sp 32 +
STACK CFI 37718 .cfa: sp 0 +
STACK CFI 3771c .cfa: x29 32 +
STACK CFI 37728 .cfa: sp 32 +
STACK CFI 37730 .cfa: sp 0 +
STACK CFI INIT 37734 4c .cfa: sp 0 +
STACK CFI 37738 .cfa: sp 32 +
STACK CFI 37740 .cfa: x29 32 + x19: .cfa -8 + ^ x20: .cfa -16 + ^ .ra: .cfa -24 + ^ x29: .cfa -32 + ^
STACK CFI 37768 .cfa: sp 32 +
STACK CFI 37770 .cfa: sp 0 +
STACK CFI 37774 .cfa: sp 32 +
STACK CFI 3777c .cfa: sp 0 +
STACK CFI INIT 379a0 64 .cfa: sp 0 +
STACK CFI 379a4 .cfa: sp 32 +
STACK CFI 379ac .cfa: x29 32 + x19: .cfa -16 + ^ .ra: .cfa -24 + ^ x29: .cfa -32 + ^
STACK CFI 379d8 .cfa: sp 32 +
STACK CFI 379e0 .cfa: sp 0 +
STACK CFI 379e4 .cfa: x29 32 +
STACK CFI 379f8 .cfa: sp 32 +
STACK CFI 37a00 .cfa: sp 0 +
STACK CFI INIT 37a04 24 .cfa: sp 0 +
STACK CFI 37a08 .cfa: sp 32 +
STACK CFI 37a10 .cfa: x29 32 + x19: .cfa -16 + ^ .ra: .cfa -24 + ^ x29: .cfa -32 + ^
STACK CFI 37a1c .cfa: sp 32 +
STACK CFI 37a24 .cfa: sp 0 +
STACK CFI INIT 37c84 24 .cfa: sp 0 +
STACK CFI 37c88 .cfa: sp 32 +
STACK CFI 37c90 .cfa: x29 32 + x19: .cfa -16 + ^ .ra: .cfa -24 + ^ x29: .cfa -32 + ^
STACK CFI 37c9c .cfa: sp 32 +
STACK CFI 37ca4 .cfa: sp 0 +
STACK CFI INIT 37ca8 8 .cfa: sp 0 +
STACK CFI INIT 37cb0 24 .cfa: sp 0 +
STACK CFI 37cb4 .cfa: sp 32 +
STACK CFI 37cbc .cfa: x29 32 + x19: .cfa -16 + ^ .ra: .cfa -24 + ^ x29: .cfa -32 + ^
STACK CFI 37cc8 .cfa: sp 32 +
STACK CFI 37cd0 .cfa: sp 0 +
STACK CFI INIT 37cd4 28 .cfa: sp 0 +
STACK CFI 37cd8 .cfa: sp 32 +
STACK CFI 37ce0 .cfa: x29 32 + x19: .cfa -16 + ^ .ra: .cfa -24 + ^ x29: .cfa -32 + ^
STACK CFI 37cf0 .cfa: sp 32 +
STACK CFI 37cf8 .cfa: sp 0 +
STACK CFI INIT 38288 8 .cfa: sp 0 +
STACK CFI INIT 38290 24 .cfa: sp 0 +
STACK CFI 38294 .cfa: sp 32 +
STACK CFI 3829c .cfa: x29 32 + x19: .cfa -16 + ^ .ra: .cfa -24 + ^ x29: .cfa -32 + ^
STACK CFI 382a8 .cfa: sp 32 +
STACK CFI 382b0 .cfa: sp 0 +
STACK CFI INIT 382b4 28 .cfa: sp 0 +
STACK CFI 382b8 .cfa: sp 32 +
STACK CFI 382c0 .cfa: x29 32 + x19: .cfa -16 + ^ .ra: .cfa -24 + ^ x29: .cfa -32 + ^
STACK CFI 382d0 .cfa: sp 32 +
STACK CFI 382d8 .cfa: sp 0 +
STACK CFI INIT 38540 8 .cfa: sp 0 +
STACK CFI INIT 38548 24 .cfa: sp 0 +
STACK CFI 3854c .cfa: sp 32 +
STACK CFI 38554 .cfa: x29 32 + x19: .cfa -16 + ^ .ra: .cfa -24 + ^ x29: .cfa -32 + ^
STACK CFI 38560 .cfa: sp 32 +
STACK CFI 38568 .cfa: sp 0 +
STACK CFI INIT 3856c 28 .cfa: sp 0 +
STACK CFI 38570 .cfa: sp 32 +
STACK CFI 38578 .cfa: x29 32 + x19: .cfa -16 + ^ .ra: .cfa -24 + ^ x29: .cfa -32 + ^
STACK CFI 38588 .cfa: sp 32 +
STACK CFI 38590 .cfa: sp 0 +
STACK CFI INIT 38594 8 .cfa: sp 0 +
STACK CFI INIT 3859c 24 .cfa: sp 0 +
STACK CFI 385a0 .cfa: sp 32 +
STACK CFI 385a8 .cfa: x29 32 + x19: .cfa -16 + ^ .ra: .cfa -24 + ^ x29: .cfa -32 + ^
STACK CFI 385b4 .cfa: sp 32 +
STACK CFI 385bc .cfa: sp 0 +
STACK CFI INIT 385c0 28 .cfa: sp 0 +
STACK CFI 385c4 .cfa: sp 32 +
STACK CFI 385cc .cfa: x29 32 + x19: .cfa -16 + ^ .ra: .cfa -24 + ^ x29: .cfa -32 + ^
STACK CFI 385dc .cfa: sp 32 +
STACK CFI 385e4 .cfa: sp 0 +
STACK CFI INIT 385e8 1f8 .cfa: sp 0 +
STACK CFI 385ec .cfa: sp 112 +
STACK CFI 3860c .cfa: x29 72 + x19: .cfa -8 + ^ x20: .cfa -16 + ^ x21: .cfa -24 + ^ x22: .cfa -32 + ^ x23: .cfa -40 + ^ x24: .cfa -48 + ^ x25: .cfa -56 + ^ .ra: .cfa -64 + ^ x29: .cfa -72 + ^ v8: .cfa -80 + ^ v9: .cfa -88 + ^ v10: .cfa -96 + ^
STACK CFI 387b8 .cfa: sp 112 +
STACK CFI 387d8 .cfa: sp 0 +
STACK CFI 387dc .cfa: x29 72 +
STACK CFI INIT 38af0 8 .cfa: sp 0 +
STACK CFI INIT 38af8 24 .cfa: sp 0 +
STACK CFI 38afc .cfa: sp 32 +
STACK CFI 38b04 .cfa: x29 32 + x19: .cfa -16 + ^ .ra: .cfa -24 + ^ x29: .cfa -32 + ^
STACK CFI 38b10 .cfa: sp 32 +
STACK CFI 38b18 .cfa: sp 0 +
STACK CFI INIT 38b1c 28 .cfa: sp 0 +
STACK CFI 38b20 .cfa: sp 32 +
STACK CFI 38b28 .cfa: x29 32 + x19: .cfa -16 + ^ .ra: .cfa -24 + ^ x29: .cfa -32 + ^
STACK CFI 38b38 .cfa: sp 32 +
STACK CFI 38b40 .cfa: sp 0 +
STACK CFI INIT 38b44 4 .cfa: sp 0 +
STACK CFI INIT 39ce8 4 .cfa: sp 0 +
STACK CFI INIT 39cec 14 .cfa: sp 0 +
STACK CFI INIT 3a20c c .cfa: sp 0 +
STACK CFI INIT 3a218 24c .cfa: sp 0 +
STACK CFI INIT 3a464 a0 .cfa: sp 0 +
STACK CFI 3a470 .cfa: sp 32 +
STACK CFI 3a4c8 .cfa: sp 0 +
STACK CFI 3a4cc .cfa: sp 32 +
STACK CFI 3a4d4 .cfa: sp 0 +
STACK CFI 3a4d8 .cfa: sp 32 +
STACK CFI 3a4ec .cfa: sp 0 +
STACK CFI 3a4f0 .cfa: sp 32 +
STACK CFI 3a500 .cfa: sp 0 +
STACK CFI INIT 3a504 38 .cfa: sp 0 +
STACK CFI 3a510 .cfa: sp 32 +
STACK CFI 3a538 .cfa: sp 0 +
STACK CFI INIT 3a7d0 7c .cfa: sp 0 +
STACK CFI 3a7d4 .cfa: sp 32 +
STACK CFI 3a7dc .cfa: x29 32 + x19: .cfa -16 + ^ .ra: .cfa -24 + ^ x29: .cfa -32 + ^
STACK CFI 3a808 .cfa: sp 32 +
STACK CFI 3a810 .cfa: sp 0 +
STACK CFI 3a814 .cfa: x29 32 +
STACK CFI 3a840 .cfa: sp 32 +
STACK CFI 3a848 .cfa: sp 0 +
STACK CFI INIT 3a89c 2c .cfa: sp 0 +
STACK CFI 3a8a0 .cfa: sp 32 +
STACK CFI 3a8a8 .cfa: x29 32 + x19: .cfa -16 + ^ .ra: .cfa -24 + ^ x29: .cfa -32 + ^
STACK CFI 3a8bc .cfa: sp 32 +
STACK CFI 3a8c4 .cfa: sp 0 +
STACK CFI INIT 3b088 64 .cfa: sp 0 +
STACK CFI 3b08c .cfa: sp 32 +
STACK CFI 3b094 .cfa: x29 32 + x19: .cfa -16 + ^ .ra: .cfa -24 + ^ x29: .cfa -32 + ^
STACK CFI 3b0b0 .cfa: sp 32 +
STACK CFI 3b0b8 .cfa: sp 0 +
STACK CFI 3b0bc .cfa: x29 32 +
STACK CFI 3b0e0 .cfa: sp 32 +
STACK CFI 3b0e8 .cfa: sp 0 +
STACK CFI INIT 3b0ec 570 .cfa: sp 0 +
STACK CFI 3b0f0 .cfa: sp 176 +
STACK CFI 3b104 .cfa: x29 64 + x19: .cfa -8 + ^ x20: .cfa -16 + ^ x21: .cfa -24 + ^ x22: .cfa -32 + ^ x23: .cfa -40 + ^ x24: .cfa -48 + ^ .ra: .cfa -56 + ^ x29: .cfa -64 + ^
STACK CFI 3b334 .cfa: sp 176 +
STACK CFI 3b348 .cfa: sp 0 +
STACK CFI 3b34c .cfa: x29 64 +
STACK CFI 3b398 .cfa: sp 176 +
STACK CFI 3b3ac .cfa: sp 0 +
STACK CFI 3b3b0 .cfa: x29 64 +
STACK CFI 3b3e8 .cfa: sp 176 +
STACK CFI 3b3fc .cfa: sp 0 +
STACK CFI 3b400 .cfa: x29 64 +
STACK CFI 3b418 .cfa: sp 176 +
STACK CFI 3b42c .cfa: sp 0 +
STACK CFI 3b430 .cfa: x29 64 +
STACK CFI 3b450 .cfa: sp 176 +
STACK CFI 3b464 .cfa: sp 0 +
STACK CFI 3b468 .cfa: x29 64 +
STACK CFI 3b480 .cfa: sp 176 +
STACK CFI 3b494 .cfa: sp 0 +
STACK CFI 3b498 .cfa: x29 64 +
STACK CFI 3b4ac .cfa: sp 176 +
STACK CFI 3b4c0 .cfa: sp 0 +
STACK CFI 3b4c4 .cfa: x29 64 +
STACK CFI 3b4d8 .cfa: sp 176 +
STACK CFI 3b4ec .cfa: sp 0 +
STACK CFI 3b4f0 .cfa: x29 64 +
STACK CFI 3b500 .cfa: sp 176 +
STACK CFI 3b514 .cfa: sp 0 +
STACK CFI 3b518 .cfa: x29 64 +
STACK CFI 3b528 .cfa: sp 176 +
STACK CFI 3b53c .cfa: sp 0 +
STACK CFI 3b540 .cfa: x29 64 +
STACK CFI 3b558 .cfa: sp 176 +
STACK CFI 3b56c .cfa: sp 0 +
STACK CFI 3b570 .cfa: x29 64 +
STACK CFI 3b584 .cfa: sp 176 +
STACK CFI 3b598 .cfa: sp 0 +
STACK CFI 3b59c .cfa: x29 64 +
STACK CFI 3b5b4 .cfa: sp 176 +
STACK CFI 3b5c8 .cfa: sp 0 +
STACK CFI 3b5cc .cfa: x29 64 +
STACK CFI 3b5f8 .cfa: sp 176 +
STACK CFI 3b60c .cfa: sp 0 +
STACK CFI 3b610 .cfa: x29 64 +
STACK CFI 3b624 .cfa: sp 176 +
STACK CFI 3b638 .cfa: sp 0 +
STACK CFI 3b63c .cfa: x29 64 +
STACK CFI INIT 3b65c 228 .cfa: sp 0 +
STACK CFI INIT 3b884 2dc .cfa: sp 0 +
STACK CFI INIT 3bb60 53c .cfa: sp 0 +
STACK CFI INIT 3c09c 78 .cfa: sp 0 +
STACK CFI 3c0a0 .cfa: sp 48 +
STACK CFI 3c0ac .cfa: x29 48 + x19: .cfa -8 + ^ x20: .cfa -16 + ^ x21: .cfa -24 + ^ x22: .cfa -32 + ^ .ra: .cfa -40 + ^ x29: .cfa -48 + ^
STACK CFI 3c0f4 .cfa: sp 48 +
STACK CFI 3c100 .cfa: sp 0 +
STACK CFI 3c104 .cfa: sp 48 +
STACK CFI 3c110 .cfa: sp 0 +
STACK CFI INIT 3c114 8c .cfa: sp 0 +
STACK CFI 3c118 .cfa: sp 32 +
STACK CFI 3c120 .cfa: x29 32 + x19: .cfa -16 + ^ .ra: .cfa -24 + ^ x29: .cfa -32 + ^
STACK CFI 3c154 .cfa: sp 32 +
STACK CFI 3c15c .cfa: sp 0 +
STACK CFI 3c160 .cfa: x29 32 +
STACK CFI 3c194 .cfa: sp 32 +
STACK CFI 3c19c .cfa: sp 0 +
STACK CFI INIT 3c1a0 24 .cfa: sp 0 +
STACK CFI 3c1a4 .cfa: sp 32 +
STACK CFI 3c1ac .cfa: x29 32 + x19: .cfa -16 + ^ .ra: .cfa -24 + ^ x29: .cfa -32 + ^
STACK CFI 3c1b8 .cfa: sp 32 +
STACK CFI 3c1c0 .cfa: sp 0 +
STACK CFI INIT 3c1c4 150 .cfa: sp 0 +
STACK CFI 3c1c8 .cfa: sp 48 +
STACK CFI 3c1d4 .cfa: x29 48 + x19: .cfa -8 + ^ x20: .cfa -16 + ^ x21: .cfa -24 + ^ x22: .cfa -32 + ^ .ra: .cfa -40 + ^ x29: .cfa -48 + ^
STACK CFI 3c304 .cfa: sp 48 +
STACK CFI 3c310 .cfa: sp 0 +
STACK CFI INIT 3c314 68 .cfa: sp 0 +
STACK CFI 3c318 .cfa: sp 64 +
STACK CFI 3c324 .cfa: x29 32 + x19: .cfa -16 + ^ .ra: .cfa -24 + ^ x29: .cfa -32 + ^
STACK CFI 3c368 .cfa: sp 64 +
STACK CFI 3c374 .cfa: sp 0 +
STACK CFI 3c378 .cfa: x29 32 +
STACK CFI INIT 3c37c 90 .cfa: sp 0 +
STACK CFI 3c380 .cfa: sp 32 +
STACK CFI 3c388 .cfa: x29 32 + x19: .cfa -8 + ^ x20: .cfa -16 + ^ .ra: .cfa -24 + ^ x29: .cfa -32 + ^
STACK CFI 3c3b4 .cfa: sp 32 +
STACK CFI 3c3bc .cfa: sp 0 +
STACK CFI 3c3c0 .cfa: x29 32 +
STACK CFI 3c400 .cfa: sp 32 +
STACK CFI 3c408 .cfa: sp 0 +
STACK CFI INIT 3c40c ec .cfa: sp 0 +
STACK CFI 3c410 .cfa: sp 112 +
STACK CFI 3c420 .cfa: x29 48 + x19: .cfa -8 + ^ x20: .cfa -16 + ^ x21: .cfa -32 + ^ .ra: .cfa -40 + ^ x29: .cfa -48 + ^
STACK CFI 3c4e0 .cfa: sp 112 +
STACK CFI 3c4f0 .cfa: sp 0 +
STACK CFI 3c4f4 .cfa: x29 48 +
STACK CFI INIT 3c4f8 ec .cfa: sp 0 +
STACK CFI 3c4fc .cfa: sp 112 +
STACK CFI 3c50c .cfa: x29 48 + x19: .cfa -8 + ^ x20: .cfa -16 + ^ x21: .cfa -32 + ^ .ra: .cfa -40 + ^ x29: .cfa -48 + ^
STACK CFI 3c5cc .cfa: sp 112 +
STACK CFI 3c5dc .cfa: sp 0 +
STACK CFI 3c5e0 .cfa: x29 48 +
STACK CFI INIT 3c5e4 48 .cfa: sp 0 +
STACK CFI 3c5e8 .cfa: sp 32 +
STACK CFI 3c5f0 .cfa: x29 32 + x19: .cfa -8 + ^ x20: .cfa -16 + ^ .ra: .cfa -24 + ^ x29: .cfa -32 + ^
STACK CFI 3c614 .cfa: sp 32 +
STACK CFI 3c61c .cfa: sp 0 +
STACK CFI 3c620 .cfa: x29 32 +
STACK CFI INIT 3c62c 98 .cfa: sp 0 +
STACK CFI 3c630 .cfa: sp 80 +
STACK CFI 3c63c .cfa: x29 32 + x19: .cfa -16 + ^ .ra: .cfa -24 + ^ x29: .cfa -32 + ^
STACK CFI 3c6b0 .cfa: sp 80 +
STACK CFI 3c6bc .cfa: sp 0 +
STACK CFI 3c6c0 .cfa: x29 32 +
STACK CFI INIT 3c6c4 260 .cfa: sp 0 +
STACK CFI 3c6c8 .cfa: sp 112 +
STACK CFI 3c6e0 .cfa: x29 80 + x19: .cfa -8 + ^ x20: .cfa -16 + ^ x21: .cfa -24 + ^ x22: .cfa -32 + ^ x23: .cfa -40 + ^ x24: .cfa -48 + ^ x25: .cfa -64 + ^ .ra: .cfa -72 + ^ x29: .cfa -80 + ^
STACK CFI 3c8c4 .cfa: sp 112 +
STACK CFI 3c8dc .cfa: sp 0 +
STACK CFI 3c8e0 .cfa: x29 80 +
STACK CFI INIT 3c924 150 .cfa: sp 0 +
STACK CFI 3c928 .cfa: sp 48 +
STACK CFI 3c934 .cfa: x29 48 + x19: .cfa -8 + ^ x20: .cfa -16 + ^ x21: .cfa -24 + ^ x22: .cfa -32 + ^ .ra: .cfa -40 + ^ x29: .cfa -48 + ^
STACK CFI 3ca64 .cfa: sp 48 +
STACK CFI 3ca70 .cfa: sp 0 +
STACK CFI INIT 3ca74 1e0 .cfa: sp 0 +
STACK CFI 3ca78 .cfa: sp 96 +
STACK CFI 3ca8c .cfa: x29 64 + x19: .cfa -8 + ^ x20: .cfa -16 + ^ x21: .cfa -24 + ^ x22: .cfa -32 + ^ x23: .cfa -40 + ^ x24: .cfa -48 + ^ .ra: .cfa -56 + ^ x29: .cfa -64 + ^
STACK CFI 3cc0c .cfa: sp 96 +
STACK CFI 3cc20 .cfa: sp 0 +
STACK CFI 3cc24 .cfa: x29 64 +
STACK CFI INIT 3cc54 284 .cfa: sp 0 +
STACK CFI 3cc58 .cfa: sp 112 +
STACK CFI 3cc70 .cfa: x29 80 + x19: .cfa -8 + ^ x20: .cfa -16 + ^ x21: .cfa -24 + ^ x22: .cfa -32 + ^ x23: .cfa -40 + ^ x24: .cfa -48 + ^ x25: .cfa -64 + ^ .ra: .cfa -72 + ^ x29: .cfa -80 + ^
STACK CFI 3ce78 .cfa: sp 112 +
STACK CFI 3ce90 .cfa: sp 0 +
STACK CFI 3ce94 .cfa: x29 80 +
STACK CFI INIT 3ced8 208 .cfa: sp 0 +
STACK CFI 3cedc .cfa: sp 96 +
STACK CFI 3cef0 .cfa: x29 64 + x19: .cfa -8 + ^ x20: .cfa -16 + ^ x21: .cfa -24 + ^ x22: .cfa -32 + ^ x23: .cfa -40 + ^ x24: .cfa -48 + ^ .ra: .cfa -56 + ^ x29: .cfa -64 + ^
STACK CFI 3d098 .cfa: sp 96 +
STACK CFI 3d0ac .cfa: sp 0 +
STACK CFI 3d0b0 .cfa: x29 64 +
STACK CFI INIT 3d0e0 360 .cfa: sp 0 +
STACK CFI 3d0e4 .cfa: sp 160 +
STACK CFI 3d100 .cfa: x29 96 + x19: .cfa -8 + ^ x20: .cfa -16 + ^ x21: .cfa -24 + ^ x22: .cfa -32 + ^ x23: .cfa -40 + ^ x24: .cfa -48 + ^ x25: .cfa -56 + ^ x26: .cfa -64 + ^ x27: .cfa -72 + ^ x28: .cfa -80 + ^ .ra: .cfa -88 + ^ x29: .cfa -96 + ^
STACK CFI 3d3cc .cfa: sp 160 +
STACK CFI 3d3e8 .cfa: sp 0 +
STACK CFI 3d3ec .cfa: x29 96 +
STACK CFI INIT 3d440 314 .cfa: sp 0 +
STACK CFI 3d444 .cfa: sp 144 +
STACK CFI 3d460 .cfa: x29 96 + x19: .cfa -8 + ^ x20: .cfa -16 + ^ x21: .cfa -24 + ^ x22: .cfa -32 + ^ x23: .cfa -40 + ^ x24: .cfa -48 + ^ x25: .cfa -56 + ^ x26: .cfa -64 + ^ x27: .cfa -72 + ^ x28: .cfa -80 + ^ .ra: .cfa -88 + ^ x29: .cfa -96 + ^
STACK CFI 3d6dc .cfa: sp 144 +
STACK CFI 3d6f8 .cfa: sp 0 +
STACK CFI 3d6fc .cfa: x29 96 +
STACK CFI INIT 3d754 290 .cfa: sp 0 +
STACK CFI 3d758 .cfa: sp 128 +
STACK CFI 3d770 .cfa: x29 80 + x19: .cfa -8 + ^ x20: .cfa -16 + ^ x21: .cfa -24 + ^ x22: .cfa -32 + ^ x23: .cfa -40 + ^ x24: .cfa -48 + ^ x25: .cfa -56 + ^ x26: .cfa -64 + ^ .ra: .cfa -72 + ^ x29: .cfa -80 + ^
STACK CFI 3d9c4 .cfa: sp 128 +
STACK CFI 3d9dc .cfa: sp 0 +
STACK CFI 3d9e0 .cfa: x29 80 +
STACK CFI INIT 3d9e4 ddc .cfa: sp 0 +
STACK CFI 3d9e8 .cfa: sp 144 +
STACK CFI 3da04 .cfa: x29 96 + x19: .cfa -8 + ^ x20: .cfa -16 + ^ x21: .cfa -24 + ^ x22: .cfa -32 + ^ x23: .cfa -40 + ^ x24: .cfa -48 + ^ x25: .cfa -56 + ^ x26: .cfa -64 + ^ x27: .cfa -72 + ^ x28: .cfa -80 + ^ .ra: .cfa -88 + ^ x29: .cfa -96 + ^
STACK CFI 3e698 .cfa: sp 144 +
STACK CFI 3e6b4 .cfa: sp 0 +
STACK CFI 3e6b8 .cfa: x29 96 +
STACK CFI INIT 3e7c0 1d0 .cfa: sp 0 +
STACK CFI 3e7c4 .cfa: sp 80 +
STACK CFI 3e7d8 .cfa: x29 80 + x19: .cfa -8 + ^ x20: .cfa -16 + ^ x21: .cfa -24 + ^ x22: .cfa -32 + ^ x23: .cfa -40 + ^ x24: .cfa -48 + ^ x25: .cfa -64 + ^ .ra: .cfa -72 + ^ x29: .cfa -80 + ^
STACK CFI 3e978 .cfa: sp 80 +
STACK CFI 3e98c .cfa: sp 0 +
STACK CFI INIT 3e990 23c .cfa: sp 0 +
STACK CFI 3e994 .cfa: sp 112 +
STACK CFI 3e9a8 .cfa: x29 64 + x19: .cfa -8 + ^ x20: .cfa -16 + ^ x21: .cfa -24 + ^ x22: .cfa -32 + ^ x23: .cfa -40 + ^ x24: .cfa -48 + ^ .ra: .cfa -56 + ^ x29: .cfa -64 + ^
STACK CFI 3eb84 .cfa: sp 112 +
STACK CFI 3eb98 .cfa: sp 0 +
STACK CFI 3eb9c .cfa: x29 64 +
STACK CFI INIT 3ebcc 30c .cfa: sp 0 +
STACK CFI 3ebd0 .cfa: sp 80 +
STACK CFI 3ebe4 .cfa: x29 64 + x19: .cfa -8 + ^ x20: .cfa -16 + ^ x21: .cfa -24 + ^ x22: .cfa -32 + ^ x23: .cfa -40 + ^ x24: .cfa -48 + ^ .ra: .cfa -56 + ^ x29: .cfa -64 + ^
STACK CFI 3ed60 .cfa: sp 80 +
STACK CFI 3ed74 .cfa: sp 0 +
STACK CFI 3ed78 .cfa: x29 64 +
STACK CFI INIT 3eed8 178 .cfa: sp 0 +
STACK CFI 3eedc .cfa: sp 80 +
STACK CFI 3eef0 .cfa: x29 64 + x19: .cfa -8 + ^ x20: .cfa -16 + ^ x21: .cfa -24 + ^ x22: .cfa -32 + ^ x23: .cfa -40 + ^ x24: .cfa -48 + ^ .ra: .cfa -56 + ^ x29: .cfa -64 + ^
STACK CFI 3f034 .cfa: sp 80 +
STACK CFI 3f048 .cfa: sp 0 +
STACK CFI 3f04c .cfa: x29 64 +
STACK CFI INIT 3f050 178 .cfa: sp 0 +
STACK CFI 3f054 .cfa: sp 80 +
STACK CFI 3f068 .cfa: x29 64 + x19: .cfa -8 + ^ x20: .cfa -16 + ^ x21: .cfa -24 + ^ x22: .cfa -32 + ^ x23: .cfa -40 + ^ x24: .cfa -48 + ^ .ra: .cfa -56 + ^ x29: .cfa -64 + ^
STACK CFI 3f1ac .cfa: sp 80 +
STACK CFI 3f1c0 .cfa: sp 0 +
STACK CFI 3f1c4 .cfa: x29 64 +
STACK CFI INIT 3f1c8 240 .cfa: sp 0 +
STACK CFI 3f1cc .cfa: sp 96 +
STACK CFI 3f1e4 .cfa: x29 96 + x19: .cfa -8 + ^ x20: .cfa -16 + ^ x21: .cfa -24 + ^ x22: .cfa -32 + ^ x23: .cfa -40 + ^ x24: .cfa -48 + ^ x25: .cfa -56 + ^ x26: .cfa -64 + ^ x27: .cfa -72 + ^ x28: .cfa -80 + ^ .ra: .cfa -88 + ^ x29: .cfa -96 + ^
STACK CFI 3f3ec .cfa: sp 96 +
STACK CFI 3f404 .cfa: sp 0 +
STACK CFI INIT 4007c 154 .cfa: sp 0 +
STACK CFI 40080 .cfa: sp 96 +
STACK CFI 40094 .cfa: x29 64 + x19: .cfa -8 + ^ x20: .cfa -16 + ^ x21: .cfa -24 + ^ x22: .cfa -32 + ^ x23: .cfa -48 + ^ .ra: .cfa -56 + ^ x29: .cfa -64 + ^
STACK CFI 40174 .cfa: sp 96 +
STACK CFI 40188 .cfa: sp 0 +
STACK CFI 4018c .cfa: x29 64 +
STACK CFI INIT 4043c 44 .cfa: sp 0 +
STACK CFI 40440 .cfa: sp 32 +
STACK CFI 40448 .cfa: x29 32 + x19: .cfa -16 + ^ .ra: .cfa -24 + ^ x29: .cfa -32 + ^
STACK CFI 40464 .cfa: sp 32 +
STACK CFI 4046c .cfa: sp 0 +
STACK CFI 40470 .cfa: x29 32 +
STACK CFI 40474 .cfa: sp 32 +
STACK CFI 4047c .cfa: sp 0 +
STACK CFI INIT 40480 1d0 .cfa: sp 0 +
STACK CFI 40484 .cfa: sp 64 +
STACK CFI 40494 .cfa: x29 64 + x19: .cfa -8 + ^ x20: .cfa -16 + ^ x21: .cfa -24 + ^ x22: .cfa -32 + ^ x23: .cfa -40 + ^ x24: .cfa -48 + ^ .ra: .cfa -56 + ^ x29: .cfa -64 + ^
STACK CFI 40554 .cfa: sp 64 +
STACK CFI 40564 .cfa: sp 0 +
STACK CFI 40568 .cfa: x29 64 +
STACK CFI INIT 40650 17c .cfa: sp 0 +
STACK CFI INIT 407cc ac .cfa: sp 0 +
STACK CFI 407d0 .cfa: sp 64 +
STACK CFI 407e0 .cfa: x29 64 + x19: .cfa -8 + ^ x20: .cfa -16 + ^ x21: .cfa -24 + ^ x22: .cfa -32 + ^ x23: .cfa -48 + ^ .ra: .cfa -56 + ^ x29: .cfa -64 + ^
STACK CFI 4085c .cfa: sp 64 +
STACK CFI 4086c .cfa: sp 0 +
STACK CFI 40870 .cfa: x29 64 +
STACK CFI INIT 40878 110 .cfa: sp 0 +
STACK CFI 4087c .cfa: sp 64 +
STACK CFI 4088c .cfa: x29 64 + x19: .cfa -8 + ^ x20: .cfa -16 + ^ x21: .cfa -24 + ^ x22: .cfa -32 + ^ x23: .cfa -40 + ^ x24: .cfa -48 + ^ .ra: .cfa -56 + ^ x29: .cfa -64 + ^
STACK CFI 4096c .cfa: sp 64 +
STACK CFI 4097c .cfa: sp 0 +
STACK CFI 40980 .cfa: x29 64 +
STACK CFI INIT 40d40 a0 .cfa: sp 0 +
STACK CFI 40d44 .cfa: sp 48 +
STACK CFI 40d50 .cfa: x29 48 + x19: .cfa -8 + ^ x20: .cfa -16 + ^ x21: .cfa -24 + ^ x22: .cfa -32 + ^ .ra: .cfa -40 + ^ x29: .cfa -48 + ^
STACK CFI 40dbc .cfa: sp 48 +
STACK CFI 40dc8 .cfa: sp 0 +
STACK CFI 40dcc .cfa: sp 48 +
STACK CFI 40dd8 .cfa: sp 0 +
STACK CFI 40ddc .cfa: x29 48 +
STACK CFI INIT 41a94 158 .cfa: sp 0 +
STACK CFI 41a98 .cfa: sp 96 +
STACK CFI 41aac .cfa: x29 64 + x19: .cfa -8 + ^ x20: .cfa -16 + ^ x21: .cfa -24 + ^ x22: .cfa -32 + ^ x23: .cfa -48 + ^ .ra: .cfa -56 + ^ x29: .cfa -64 + ^
STACK CFI 41b90 .cfa: sp 96 +
STACK CFI 41ba4 .cfa: sp 0 +
STACK CFI 41ba8 .cfa: x29 64 +
STACK CFI INIT 41bec 190 .cfa: sp 0 +
STACK CFI INIT 42878 1dc .cfa: sp 0 +
STACK CFI 4287c .cfa: sp 80 +
STACK CFI 42890 .cfa: x29 80 + x19: .cfa -8 + ^ x20: .cfa -16 + ^ x21: .cfa -24 + ^ x22: .cfa -32 + ^ x23: .cfa -40 + ^ x24: .cfa -48 + ^ x25: .cfa -64 + ^ .ra: .cfa -72 + ^ x29: .cfa -80 + ^
STACK CFI 42a3c .cfa: sp 80 +
STACK CFI 42a50 .cfa: sp 0 +
STACK CFI INIT 43e84 124 .cfa: sp 0 +
STACK CFI 43eb4 .cfa: sp 32 +
STACK CFI 43ebc .cfa: x29 32 + x19: .cfa -8 + ^ x20: .cfa -16 + ^ .ra: .cfa -24 + ^ x29: .cfa -32 + ^
STACK CFI 43f9c .cfa: sp 32 +
STACK CFI 43fa4 .cfa: sp 0 +
STACK CFI INIT 44704 320 .cfa: sp 0 +
STACK CFI 44708 .cfa: sp 64 +
STACK CFI 44718 .cfa: x29 64 + x19: .cfa -8 + ^ x20: .cfa -16 + ^ x21: .cfa -24 + ^ x22: .cfa -32 + ^ x23: .cfa -40 + ^ x24: .cfa -48 + ^ .ra: .cfa -56 + ^ x29: .cfa -64 + ^
STACK CFI 44794 .cfa: sp 64 +
STACK CFI 447a4 .cfa: sp 0 +
STACK CFI 447a8 .cfa: x29 64 +
STACK CFI 4497c .cfa: sp 64 +
STACK CFI 4498c .cfa: sp 0 +
STACK CFI 44990 .cfa: x29 64 +
STACK CFI 449a0 .cfa: sp 64 +
STACK CFI 449b0 .cfa: sp 0 +
STACK CFI 449b4 .cfa: x29 64 +
STACK CFI INIT 44a24 a0 .cfa: sp 0 +
STACK CFI 44a28 .cfa: sp 48 +
STACK CFI 44a34 .cfa: x29 48 + x19: .cfa -8 + ^ x20: .cfa -16 + ^ x21: .cfa -24 + ^ x22: .cfa -32 + ^ .ra: .cfa -40 + ^ x29: .cfa -48 + ^
STACK CFI 44aa0 .cfa: sp 48 +
STACK CFI 44aac .cfa: sp 0 +
STACK CFI 44ab0 .cfa: sp 48 +
STACK CFI 44abc .cfa: sp 0 +
STACK CFI 44ac0 .cfa: x29 48 +
STACK CFI INIT 45974 160 .cfa: sp 0 +
STACK CFI 45978 .cfa: sp 64 +
STACK CFI 45988 .cfa: x29 64 + x19: .cfa -8 + ^ x20: .cfa -16 + ^ x21: .cfa -24 + ^ x22: .cfa -32 + ^ x23: .cfa -48 + ^ .ra: .cfa -56 + ^ x29: .cfa -64 + ^
STACK CFI 45a80 .cfa: sp 64 +
STACK CFI 45a90 .cfa: sp 0 +
STACK CFI 45a94 .cfa: x29 64 +
STACK CFI INIT 45ad4 214 .cfa: sp 0 +
STACK CFI 45ad8 .cfa: sp 128 +
STACK CFI 45af4 .cfa: x29 96 + x19: .cfa -8 + ^ x20: .cfa -16 + ^ x21: .cfa -24 + ^ x22: .cfa -32 + ^ x23: .cfa -40 + ^ x24: .cfa -48 + ^ x25: .cfa -56 + ^ x26: .cfa -64 + ^ x27: .cfa -80 + ^ .ra: .cfa -88 + ^ x29: .cfa -96 + ^
STACK CFI 45c70 .cfa: sp 128 +
STACK CFI 45c8c .cfa: sp 0 +
STACK CFI 45c90 .cfa: x29 96 +
STACK CFI INIT 47984 290 .cfa: sp 0 +
STACK CFI 47988 .cfa: sp 16 +
STACK CFI 4798c .cfa: x29 16 + .ra: .cfa -8 + ^ x29: .cfa -16 + ^
STACK CFI 47a18 .cfa: sp 16 +
STACK CFI 47a1c .cfa: sp 0 +
STACK CFI 47a20 .cfa: x29 16 +
STACK CFI 47a70 .cfa: sp 16 +
STACK CFI 47a74 .cfa: sp 0 +
STACK CFI 47a78 .cfa: x29 16 +
STACK CFI 47bdc .cfa: sp 16 +
STACK CFI 47be0 .cfa: sp 0 +
STACK CFI 47be4 .cfa: x29 16 +
STACK CFI INIT 47c14 158 .cfa: sp 0 +
STACK CFI 47c18 .cfa: sp 112 +
STACK CFI 47c34 .cfa: x29 96 + x19: .cfa -8 + ^ x20: .cfa -16 + ^ x21: .cfa -24 + ^ x22: .cfa -32 + ^ x23: .cfa -40 + ^ x24: .cfa -48 + ^ x25: .cfa -56 + ^ x26: .cfa -64 + ^ x27: .cfa -72 + ^ x28: .cfa -80 + ^ .ra: .cfa -88 + ^ x29: .cfa -96 + ^
STACK CFI 47d1c .cfa: sp 112 +
STACK CFI 47d20 .cfa: x29 96 +
STACK CFI 47d28 .cfa: sp 112 +
STACK CFI 47d44 .cfa: sp 0 +
STACK CFI 47d48 .cfa: x29 96 +
STACK CFI 47d68 .cfa: sp 112 +
STACK CFI INIT 47d6c e54 .cfa: sp 0 +
STACK CFI 47d70 .cfa: sp 192 +
STACK CFI 47d8c .cfa: x29 96 + x19: .cfa -8 + ^ x20: .cfa -16 + ^ x21: .cfa -24 + ^ x22: .cfa -32 + ^ x23: .cfa -40 + ^ x24: .cfa -48 + ^ x25: .cfa -56 + ^ x26: .cfa -64 + ^ x27: .cfa -72 + ^ x28: .cfa -80 + ^ .ra: .cfa -88 + ^ x29: .cfa -96 + ^
STACK CFI 48aa8 .cfa: sp 192 +
STACK CFI 48ac4 .cfa: sp 0 +
STACK CFI 48ac8 .cfa: x29 96 +
STACK CFI INIT 48bc0 1068 .cfa: sp 0 +
STACK CFI 48bc4 .cfa: sp 288 +
STACK CFI 48be0 .cfa: x29 96 + x19: .cfa -8 + ^ x20: .cfa -16 + ^ x21: .cfa -24 + ^ x22: .cfa -32 + ^ x23: .cfa -40 + ^ x24: .cfa -48 + ^ x25: .cfa -56 + ^ x26: .cfa -64 + ^ x27: .cfa -72 + ^ x28: .cfa -80 + ^ .ra: .cfa -88 + ^ x29: .cfa -96 + ^
STACK CFI 49970 .cfa: sp 288 +
STACK CFI 4998c .cfa: sp 0 +
STACK CFI 49990 .cfa: x29 96 +
STACK CFI INIT 49c28 520 .cfa: sp 0 +
STACK CFI 49c2c .cfa: sp 144 +
STACK CFI 49c48 .cfa: x29 96 + x19: .cfa -8 + ^ x20: .cfa -16 + ^ x21: .cfa -24 + ^ x22: .cfa -32 + ^ x23: .cfa -40 + ^ x24: .cfa -48 + ^ x25: .cfa -56 + ^ x26: .cfa -64 + ^ x27: .cfa -72 + ^ x28: .cfa -80 + ^ .ra: .cfa -88 + ^ x29: .cfa -96 + ^
STACK CFI 4a124 .cfa: sp 144 +
STACK CFI 4a140 .cfa: sp 0 +
STACK CFI 4a144 .cfa: x29 96 +
STACK CFI INIT 4aae8 136c .cfa: sp 0 +
STACK CFI 4aaec .cfa: sp 224 +
STACK CFI 4ab08 .cfa: x29 96 + x19: .cfa -8 + ^ x20: .cfa -16 + ^ x21: .cfa -24 + ^ x22: .cfa -32 + ^ x23: .cfa -40 + ^ x24: .cfa -48 + ^ x25: .cfa -56 + ^ x26: .cfa -64 + ^ x27: .cfa -72 + ^ x28: .cfa -80 + ^ .ra: .cfa -88 + ^ x29: .cfa -96 + ^
STACK CFI 4be30 .cfa: sp 224 +
STACK CFI 4be4c .cfa: sp 0 +
STACK CFI 4be50 .cfa: x29 96 +
STACK CFI INIT 4be54 1b8 .cfa: sp 0 +
STACK CFI INIT 2a36c e00 .cfa: sp 0 +
STACK CFI 2a370 .cfa: sp 96 +
STACK CFI 2a388 .cfa: x29 96 + x19: .cfa -8 + ^ x20: .cfa -16 + ^ x21: .cfa -24 + ^ x22: .cfa -32 + ^ x23: .cfa -40 + ^ x24: .cfa -48 + ^ x25: .cfa -56 + ^ x26: .cfa -64 + ^ x27: .cfa -72 + ^ x28: .cfa -80 + ^ .ra: .cfa -88 + ^ x29: .cfa -96 + ^
STACK CFI 2ae14 .cfa: sp 96 +
STACK CFI 2ae2c .cfa: sp 0 +
STACK CFI 2ae30 .cfa: x29 96 +
STACK CFI INIT 2b16c 194 .cfa: sp 0 +
STACK CFI 2b170 .cfa: sp 96 +
STACK CFI 2b184 .cfa: x29 64 + x19: .cfa -8 + ^ x20: .cfa -16 + ^ x21: .cfa -24 + ^ x22: .cfa -32 + ^ x23: .cfa -48 + ^ .ra: .cfa -56 + ^ x29: .cfa -64 + ^
STACK CFI 2b27c .cfa: sp 96 +
STACK CFI 2b290 .cfa: sp 0 +
STACK CFI 2b294 .cfa: x29 64 +
STACK CFI INIT 2b300 120 .cfa: sp 0 +
STACK CFI 2b304 .cfa: sp 80 +
STACK CFI 2b314 .cfa: x29 48 + x19: .cfa -8 + ^ x20: .cfa -16 + ^ x21: .cfa -24 + ^ x22: .cfa -32 + ^ .ra: .cfa -40 + ^ x29: .cfa -48 + ^
STACK CFI 2b404 .cfa: sp 80 +
STACK CFI 2b414 .cfa: sp 0 +
STACK CFI 2b418 .cfa: x29 48 +
STACK CFI INIT 2b420 200 .cfa: sp 0 +
STACK CFI 2b424 .cfa: sp 192 +
STACK CFI 2b438 .cfa: x29 64 + x19: .cfa -8 + ^ x20: .cfa -16 + ^ x21: .cfa -24 + ^ x22: .cfa -32 + ^ x23: .cfa -40 + ^ x24: .cfa -48 + ^ .ra: .cfa -56 + ^ x29: .cfa -64 + ^
STACK CFI 2b5a4 .cfa: sp 192 +
STACK CFI 2b5b8 .cfa: sp 0 +
STACK CFI 2b5bc .cfa: x29 64 +
STACK CFI INIT 2b620 184 .cfa: sp 0 +
STACK CFI 2b624 .cfa: sp 160 +
STACK CFI 2b634 .cfa: x29 48 + x19: .cfa -8 + ^ x20: .cfa -16 + ^ x21: .cfa -32 + ^ .ra: .cfa -40 + ^ x29: .cfa -48 + ^
STACK CFI 2b748 .cfa: sp 160 +
STACK CFI 2b758 .cfa: sp 0 +
STACK CFI 2b75c .cfa: x29 48 +
STACK CFI INIT 28f0c 45c .cfa: sp 0 +
STACK CFI 28f10 .cfa: sp 224 +
STACK CFI 28f2c .cfa: x29 96 + x19: .cfa -8 + ^ x20: .cfa -16 + ^ x21: .cfa -24 + ^ x22: .cfa -32 + ^ x23: .cfa -40 + ^ x24: .cfa -48 + ^ x25: .cfa -56 + ^ x26: .cfa -64 + ^ x27: .cfa -72 + ^ x28: .cfa -80 + ^ .ra: .cfa -88 + ^ x29: .cfa -96 + ^
STACK CFI 29250 .cfa: sp 224 +
STACK CFI 2926c .cfa: sp 0 +
STACK CFI 29270 .cfa: x29 96 +
STACK CFI INIT 29368 45c .cfa: sp 0 +
STACK CFI 2936c .cfa: sp 224 +
STACK CFI 29388 .cfa: x29 96 + x19: .cfa -8 + ^ x20: .cfa -16 + ^ x21: .cfa -24 + ^ x22: .cfa -32 + ^ x23: .cfa -40 + ^ x24: .cfa -48 + ^ x25: .cfa -56 + ^ x26: .cfa -64 + ^ x27: .cfa -72 + ^ x28: .cfa -80 + ^ .ra: .cfa -88 + ^ x29: .cfa -96 + ^
STACK CFI 296ac .cfa: sp 224 +
STACK CFI 296c8 .cfa: sp 0 +
STACK CFI 296cc .cfa: x29 96 +
STACK CFI INIT 297c4 45c .cfa: sp 0 +
STACK CFI 297c8 .cfa: sp 224 +
STACK CFI 297e4 .cfa: x29 96 + x19: .cfa -8 + ^ x20: .cfa -16 + ^ x21: .cfa -24 + ^ x22: .cfa -32 + ^ x23: .cfa -40 + ^ x24: .cfa -48 + ^ x25: .cfa -56 + ^ x26: .cfa -64 + ^ x27: .cfa -72 + ^ x28: .cfa -80 + ^ .ra: .cfa -88 + ^ x29: .cfa -96 + ^
STACK CFI 29b08 .cfa: sp 224 +
STACK CFI 29b24 .cfa: sp 0 +
STACK CFI 29b28 .cfa: x29 96 +
STACK CFI INIT 29c20 45c .cfa: sp 0 +
STACK CFI 29c24 .cfa: sp 224 +
STACK CFI 29c40 .cfa: x29 96 + x19: .cfa -8 + ^ x20: .cfa -16 + ^ x21: .cfa -24 + ^ x22: .cfa -32 + ^ x23: .cfa -40 + ^ x24: .cfa -48 + ^ x25: .cfa -56 + ^ x26: .cfa -64 + ^ x27: .cfa -72 + ^ x28: .cfa -80 + ^ .ra: .cfa -88 + ^ x29: .cfa -96 + ^
STACK CFI 29f64 .cfa: sp 224 +
STACK CFI 29f80 .cfa: sp 0 +
STACK CFI 29f84 .cfa: x29 96 +
STACK CFI INIT 2b818 50 .cfa: sp 0 +
STACK CFI 2b81c .cfa: sp 32 +
STACK CFI 2b824 .cfa: x29 32 + x19: .cfa -8 + ^ x20: .cfa -16 + ^ .ra: .cfa -24 + ^ x29: .cfa -32 + ^
STACK CFI INIT 2bb00 74 .cfa: sp 0 +
STACK CFI 2bb04 .cfa: sp 48 +
STACK CFI 2bb10 .cfa: x29 32 + x19: .cfa -8 + ^ x20: .cfa -16 + ^ .ra: .cfa -24 + ^ x29: .cfa -32 + ^
STACK CFI 2bb5c .cfa: sp 48 +
STACK CFI 2bb68 .cfa: sp 0 +
STACK CFI 2bb6c .cfa: x29 32 +
STACK CFI INIT 2bb74 74 .cfa: sp 0 +
STACK CFI 2bb78 .cfa: sp 48 +
STACK CFI 2bb84 .cfa: x29 32 + x19: .cfa -8 + ^ x20: .cfa -16 + ^ .ra: .cfa -24 + ^ x29: .cfa -32 + ^
STACK CFI 2bbd0 .cfa: sp 48 +
STACK CFI 2bbdc .cfa: sp 0 +
STACK CFI 2bbe0 .cfa: x29 32 +
STACK CFI INIT 2bbe8 71c .cfa: sp 0 +
STACK CFI 2bbec .cfa: sp 416 +
STACK CFI 2bc08 .cfa: x29 96 + x19: .cfa -8 + ^ x20: .cfa -16 + ^ x21: .cfa -24 + ^ x22: .cfa -32 + ^ x23: .cfa -40 + ^ x24: .cfa -48 + ^ x25: .cfa -56 + ^ x26: .cfa -64 + ^ x27: .cfa -72 + ^ x28: .cfa -80 + ^ .ra: .cfa -88 + ^ x29: .cfa -96 + ^
STACK CFI 2bfa4 .cfa: sp 416 +
STACK CFI 2bfc0 .cfa: sp 0 +
STACK CFI 2bfc4 .cfa: x29 96 +
STACK CFI INIT 2c304 128 .cfa: sp 0 +
STACK CFI 2c308 .cfa: sp 112 +
STACK CFI 2c314 .cfa: x29 32 + x19: .cfa -8 + ^ x20: .cfa -16 + ^ .ra: .cfa -24 + ^ x29: .cfa -32 + ^
STACK CFI 2c3d4 .cfa: sp 112 +
STACK CFI 2c3e0 .cfa: sp 0 +
STACK CFI 2c3e4 .cfa: x29 32 +
STACK CFI INIT 2c42c 128 .cfa: sp 0 +
STACK CFI 2c430 .cfa: sp 112 +
STACK CFI 2c43c .cfa: x29 32 + x19: .cfa -8 + ^ x20: .cfa -16 + ^ .ra: .cfa -24 + ^ x29: .cfa -32 + ^
STACK CFI 2c4fc .cfa: sp 112 +
STACK CFI 2c508 .cfa: sp 0 +
STACK CFI 2c50c .cfa: x29 32 +
STACK CFI INIT 2c554 74 .cfa: sp 0 +
STACK CFI 2c558 .cfa: sp 48 +
STACK CFI 2c564 .cfa: x29 32 + x19: .cfa -8 + ^ x20: .cfa -16 + ^ .ra: .cfa -24 + ^ x29: .cfa -32 + ^
STACK CFI 2c5b0 .cfa: sp 48 +
STACK CFI 2c5bc .cfa: sp 0 +
STACK CFI 2c5c0 .cfa: x29 32 +
STACK CFI INIT 2c5c8 74 .cfa: sp 0 +
STACK CFI 2c5cc .cfa: sp 48 +
STACK CFI 2c5d8 .cfa: x29 32 + x19: .cfa -8 + ^ x20: .cfa -16 + ^ .ra: .cfa -24 + ^ x29: .cfa -32 + ^
STACK CFI 2c624 .cfa: sp 48 +
STACK CFI 2c630 .cfa: sp 0 +
STACK CFI 2c634 .cfa: x29 32 +
STACK CFI INIT 2c63c 74 .cfa: sp 0 +
STACK CFI 2c640 .cfa: sp 48 +
STACK CFI 2c64c .cfa: x29 32 + x19: .cfa -8 + ^ x20: .cfa -16 + ^ .ra: .cfa -24 + ^ x29: .cfa -32 + ^
STACK CFI 2c698 .cfa: sp 48 +
STACK CFI 2c6a4 .cfa: sp 0 +
STACK CFI 2c6a8 .cfa: x29 32 +
STACK CFI INIT 2c6b0 168 .cfa: sp 0 +
STACK CFI 2c6b4 .cfa: sp 384 +
STACK CFI 2c6c8 .cfa: x29 64 + x19: .cfa -8 + ^ x20: .cfa -16 + ^ x21: .cfa -24 + ^ x22: .cfa -32 + ^ x23: .cfa -40 + ^ x28: .cfa -48 + ^ .ra: .cfa -56 + ^ x29: .cfa -64 + ^
STACK CFI 2c7c0 .cfa: sp 384 +
STACK CFI 2c7d4 .cfa: sp 0 +
STACK CFI 2c7d8 .cfa: x29 64 +
STACK CFI INIT 2c84c 12c .cfa: sp 0 +
STACK CFI 2c850 .cfa: sp 80 +
STACK CFI 2c864 .cfa: x29 80 + x19: .cfa -8 + ^ x20: .cfa -16 + ^ x21: .cfa -24 + ^ x22: .cfa -32 + ^ x23: .cfa -40 + ^ x24: .cfa -48 + ^ x25: .cfa -56 + ^ x26: .cfa -64 + ^ .ra: .cfa -72 + ^ x29: .cfa -80 + ^
STACK CFI 2c92c .cfa: sp 80 +
STACK CFI 2c940 .cfa: sp 0 +
STACK CFI 2c944 .cfa: x29 80 +
STACK CFI INIT 2ca1c 1a4 .cfa: sp 0 +
STACK CFI 2ca20 .cfa: sp 112 +
STACK CFI 2ca38 .cfa: x29 80 + x19: .cfa -8 + ^ x20: .cfa -16 + ^ x21: .cfa -24 + ^ x22: .cfa -32 + ^ x23: .cfa -40 + ^ x24: .cfa -48 + ^ x25: .cfa -56 + ^ x26: .cfa -64 + ^ .ra: .cfa -72 + ^ x29: .cfa -80 + ^
STACK CFI 2cb28 .cfa: sp 112 +
STACK CFI 2cb40 .cfa: sp 0 +
STACK CFI 2cb44 .cfa: x29 80 +
STACK CFI INIT 2cbc0 1dc .cfa: sp 0 +
STACK CFI 2cbc4 .cfa: sp 128 +
STACK CFI 2cbe0 .cfa: x29 96 + x19: .cfa -8 + ^ x20: .cfa -16 + ^ x21: .cfa -24 + ^ x22: .cfa -32 + ^ x23: .cfa -40 + ^ x24: .cfa -48 + ^ x25: .cfa -56 + ^ x26: .cfa -64 + ^ x27: .cfa -80 + ^ .ra: .cfa -88 + ^ x29: .cfa -96 + ^
STACK CFI 2cd4c .cfa: sp 128 +
STACK CFI 2cd68 .cfa: sp 0 +
STACK CFI 2cd6c .cfa: x29 96 +
STACK CFI INIT 2cd9c 178 .cfa: sp 0 +
STACK CFI 2cda0 .cfa: sp 80 +
STACK CFI 2cdb4 .cfa: x29 80 + x19: .cfa -8 + ^ x20: .cfa -16 + ^ x21: .cfa -24 + ^ x22: .cfa -32 + ^ x23: .cfa -40 + ^ x24: .cfa -48 + ^ x25: .cfa -64 + ^ .ra: .cfa -72 + ^ x29: .cfa -80 + ^
STACK CFI 2cee0 .cfa: sp 80 +
STACK CFI 2cef4 .cfa: sp 0 +
STACK CFI 2cef8 .cfa: x29 80 +
STACK CFI INIT 2d0e4 3a4 .cfa: sp 0 +
STACK CFI 2d0e8 .cfa: sp 384 +
STACK CFI 2d104 .cfa: x29 96 + x19: .cfa -8 + ^ x20: .cfa -16 + ^ x21: .cfa -24 + ^ x22: .cfa -32 + ^ x23: .cfa -40 + ^ x24: .cfa -48 + ^ x25: .cfa -56 + ^ x26: .cfa -64 + ^ x27: .cfa -72 + ^ x28: .cfa -80 + ^ .ra: .cfa -88 + ^ x29: .cfa -96 + ^
STACK CFI 2d378 .cfa: sp 384 +
STACK CFI 2d394 .cfa: sp 0 +
STACK CFI 2d398 .cfa: x29 96 +
STACK CFI INIT 2d488 1b4 .cfa: sp 0 +
STACK CFI 2d48c .cfa: sp 128 +
STACK CFI 2d4a0 .cfa: x29 64 + x19: .cfa -8 + ^ x20: .cfa -16 + ^ x21: .cfa -24 + ^ x22: .cfa -32 + ^ x23: .cfa -48 + ^ .ra: .cfa -56 + ^ x29: .cfa -64 + ^
STACK CFI 2d5e0 .cfa: sp 128 +
STACK CFI 2d5f4 .cfa: sp 0 +
STACK CFI 2d5f8 .cfa: x29 64 +
STACK CFI INIT 2d63c c4 .cfa: sp 0 +
STACK CFI 2d640 .cfa: sp 64 +
STACK CFI 2d650 .cfa: x29 64 + x19: .cfa -8 + ^ x20: .cfa -16 + ^ x21: .cfa -24 + ^ x22: .cfa -32 + ^ x23: .cfa -40 + ^ x24: .cfa -48 + ^ .ra: .cfa -56 + ^ x29: .cfa -64 + ^
STACK CFI 2d6c8 .cfa: sp 64 +
STACK CFI 2d6d8 .cfa: sp 0 +
STACK CFI 2d6dc .cfa: x29 64 +
STACK CFI INIT 2d700 c4 .cfa: sp 0 +
STACK CFI 2d704 .cfa: sp 64 +
STACK CFI 2d714 .cfa: x29 64 + x19: .cfa -8 + ^ x20: .cfa -16 + ^ x21: .cfa -24 + ^ x22: .cfa -32 + ^ x23: .cfa -40 + ^ x24: .cfa -48 + ^ .ra: .cfa -56 + ^ x29: .cfa -64 + ^
STACK CFI 2d78c .cfa: sp 64 +
STACK CFI 2d79c .cfa: sp 0 +
STACK CFI 2d7a0 .cfa: x29 64 +
STACK CFI INIT 2d7c4 c4 .cfa: sp 0 +
STACK CFI 2d7c8 .cfa: sp 64 +
STACK CFI 2d7d8 .cfa: x29 64 + x19: .cfa -8 + ^ x20: .cfa -16 + ^ x21: .cfa -24 + ^ x22: .cfa -32 + ^ x23: .cfa -40 + ^ x24: .cfa -48 + ^ .ra: .cfa -56 + ^ x29: .cfa -64 + ^
STACK CFI 2d850 .cfa: sp 64 +
STACK CFI 2d860 .cfa: sp 0 +
STACK CFI 2d864 .cfa: x29 64 +
STACK CFI INIT 2d888 164 .cfa: sp 0 +
STACK CFI 2d88c .cfa: sp 112 +
STACK CFI 2d8a4 .cfa: x29 80 + x19: .cfa -8 + ^ x20: .cfa -16 + ^ x21: .cfa -24 + ^ x22: .cfa -32 + ^ x23: .cfa -40 + ^ x24: .cfa -48 + ^ x25: .cfa -64 + ^ .ra: .cfa -72 + ^ x29: .cfa -80 + ^
STACK CFI 2d960 .cfa: sp 112 +
STACK CFI 2d978 .cfa: sp 0 +
STACK CFI 2d97c .cfa: x29 80 +
STACK CFI INIT 2da90 1c4 .cfa: sp 0 +
STACK CFI 2da94 .cfa: sp 128 +
STACK CFI 2daa8 .cfa: x29 64 + x19: .cfa -8 + ^ x20: .cfa -16 + ^ x21: .cfa -24 + ^ x22: .cfa -32 + ^ x23: .cfa -40 + ^ x24: .cfa -48 + ^ .ra: .cfa -56 + ^ x29: .cfa -64 + ^
STACK CFI 2dbc4 .cfa: sp 128 +
STACK CFI 2dbd8 .cfa: sp 0 +
STACK CFI 2dbdc .cfa: x29 64 +
STACK CFI INIT 2dcbc 104 .cfa: sp 0 +
STACK CFI 2dcc0 .cfa: sp 112 +
STACK CFI 2dccc .cfa: x29 32 + x19: .cfa -8 + ^ x20: .cfa -16 + ^ .ra: .cfa -24 + ^ x29: .cfa -32 + ^
STACK CFI 2dd90 .cfa: sp 112 +
STACK CFI 2dd9c .cfa: sp 0 +
STACK CFI 2dda0 .cfa: x29 32 +
STACK CFI INIT 2e108 31c .cfa: sp 0 +
STACK CFI 2e10c .cfa: sp 224 +
STACK CFI 2e120 .cfa: x29 64 + x19: .cfa -8 + ^ x20: .cfa -16 + ^ x21: .cfa -24 + ^ x22: .cfa -32 + ^ x23: .cfa -48 + ^ .ra: .cfa -56 + ^ x29: .cfa -64 + ^
STACK CFI 2e314 .cfa: sp 224 +
STACK CFI 2e328 .cfa: sp 0 +
STACK CFI 2e32c .cfa: x29 64 +
STACK CFI INIT 2e474 74 .cfa: sp 0 +
STACK CFI 2e478 .cfa: sp 48 +
STACK CFI 2e484 .cfa: x29 32 + x19: .cfa -8 + ^ x20: .cfa -16 + ^ .ra: .cfa -24 + ^ x29: .cfa -32 + ^
STACK CFI 2e4d0 .cfa: sp 48 +
STACK CFI 2e4dc .cfa: sp 0 +
STACK CFI 2e4e0 .cfa: x29 32 +
STACK CFI INIT 2e568 154 .cfa: sp 0 +
STACK CFI 2e56c .cfa: sp 384 +
STACK CFI 2e580 .cfa: x29 64 + x19: .cfa -8 + ^ x20: .cfa -16 + ^ x21: .cfa -24 + ^ x22: .cfa -32 + ^ x23: .cfa -40 + ^ x28: .cfa -48 + ^ .ra: .cfa -56 + ^ x29: .cfa -64 + ^
STACK CFI 2e664 .cfa: sp 384 +
STACK CFI 2e678 .cfa: sp 0 +
STACK CFI 2e67c .cfa: x29 64 +
STACK CFI INIT 2e6bc 224 .cfa: sp 0 +
STACK CFI 2e6c0 .cfa: sp 128 +
STACK CFI 2e6d8 .cfa: x29 80 + x19: .cfa -8 + ^ x20: .cfa -16 + ^ x21: .cfa -24 + ^ x22: .cfa -32 + ^ x23: .cfa -40 + ^ x24: .cfa -48 + ^ x25: .cfa -64 + ^ .ra: .cfa -72 + ^ x29: .cfa -80 + ^
STACK CFI 2e874 .cfa: sp 128 +
STACK CFI 2e88c .cfa: sp 0 +
STACK CFI 2e890 .cfa: x29 80 +
STACK CFI INIT 2efbc 30c .cfa: sp 0 +
STACK CFI 2efc0 .cfa: sp 192 +
STACK CFI 2efd8 .cfa: x29 80 + x19: .cfa -8 + ^ x20: .cfa -16 + ^ x21: .cfa -24 + ^ x22: .cfa -32 + ^ x23: .cfa -40 + ^ x24: .cfa -48 + ^ x25: .cfa -64 + ^ .ra: .cfa -72 + ^ x29: .cfa -80 + ^
STACK CFI 2f274 .cfa: sp 192 +
STACK CFI 2f28c .cfa: sp 0 +
STACK CFI 2f290 .cfa: x29 80 +
STACK CFI INIT 2f2c8 a8 .cfa: sp 0 +
STACK CFI 2f2cc .cfa: sp 32 +
STACK CFI 2f2d4 .cfa: x29 32 + x19: .cfa -16 + ^ .ra: .cfa -24 + ^ x29: .cfa -32 + ^
STACK CFI 2f308 .cfa: sp 32 +
STACK CFI 2f310 .cfa: sp 0 +
STACK CFI 2f314 .cfa: x29 32 +
STACK CFI 2f318 .cfa: sp 32 +
STACK CFI 2f320 .cfa: sp 0 +
STACK CFI 2f324 .cfa: x29 32 +
STACK CFI INIT 2f7c8 39c .cfa: sp 0 +
STACK CFI 2f7cc .cfa: sp 224 +
STACK CFI 2f7e0 .cfa: x29 64 + x19: .cfa -8 + ^ x20: .cfa -16 + ^ x21: .cfa -24 + ^ x22: .cfa -32 + ^ x23: .cfa -48 + ^ .ra: .cfa -56 + ^ x29: .cfa -64 + ^
STACK CFI 2fa34 .cfa: sp 224 +
STACK CFI 2fa48 .cfa: sp 0 +
STACK CFI 2fa4c .cfa: x29 64 +
STACK CFI INIT 2fb68 31c .cfa: sp 0 +
STACK CFI 2fb6c .cfa: sp 192 +
STACK CFI 2fb84 .cfa: x29 80 + x19: .cfa -8 + ^ x20: .cfa -16 + ^ x21: .cfa -24 + ^ x22: .cfa -32 + ^ x23: .cfa -40 + ^ x24: .cfa -48 + ^ x25: .cfa -56 + ^ x26: .cfa -64 + ^ .ra: .cfa -72 + ^ x29: .cfa -80 + ^
STACK CFI 2fe30 .cfa: sp 192 +
STACK CFI 2fe48 .cfa: sp 0 +
STACK CFI 2fe4c .cfa: x29 80 +
STACK CFI INIT 2fe84 624 .cfa: sp 0 +
STACK CFI 2fe88 .cfa: sp 256 +
STACK CFI 2fea0 .cfa: x29 80 + x19: .cfa -8 + ^ x20: .cfa -16 + ^ x21: .cfa -24 + ^ x22: .cfa -32 + ^ x23: .cfa -40 + ^ x24: .cfa -48 + ^ x25: .cfa -56 + ^ x26: .cfa -64 + ^ .ra: .cfa -72 + ^ x29: .cfa -80 + ^
STACK CFI 302c4 .cfa: sp 256 +
STACK CFI 302dc .cfa: sp 0 +
STACK CFI 302e0 .cfa: x29 80 +
STACK CFI INIT 304ac 258 .cfa: sp 0 +
STACK CFI 304b0 .cfa: sp 96 +
STACK CFI 304c8 .cfa: x29 96 + x19: .cfa -8 + ^ x20: .cfa -16 + ^ x21: .cfa -24 + ^ x22: .cfa -32 + ^ x23: .cfa -40 + ^ x24: .cfa -48 + ^ x25: .cfa -56 + ^ x26: .cfa -64 + ^ x27: .cfa -72 + ^ x28: .cfa -80 + ^ .ra: .cfa -88 + ^ x29: .cfa -96 + ^
STACK CFI 306a0 .cfa: sp 96 +
STACK CFI 306b8 .cfa: sp 0 +
STACK CFI 306bc .cfa: x29 96 +
STACK CFI INIT 30704 4a4 .cfa: sp 0 +
STACK CFI 30708 .cfa: sp 96 +
STACK CFI 30720 .cfa: x29 96 + x19: .cfa -8 + ^ x20: .cfa -16 + ^ x21: .cfa -24 + ^ x22: .cfa -32 + ^ x23: .cfa -40 + ^ x24: .cfa -48 + ^ x25: .cfa -56 + ^ x26: .cfa -64 + ^ x27: .cfa -72 + ^ x28: .cfa -80 + ^ .ra: .cfa -88 + ^ x29: .cfa -96 + ^
STACK CFI 30a5c .cfa: sp 96 +
STACK CFI 30a74 .cfa: sp 0 +
STACK CFI 30a78 .cfa: x29 96 +
STACK CFI INIT 30ba8 a8 .cfa: sp 0 +
STACK CFI 30bac .cfa: sp 32 +
STACK CFI 30bb4 .cfa: x29 32 + x19: .cfa -16 + ^ .ra: .cfa -24 + ^ x29: .cfa -32 + ^
STACK CFI 30be8 .cfa: sp 32 +
STACK CFI 30bf0 .cfa: sp 0 +
STACK CFI 30bf4 .cfa: x29 32 +
STACK CFI 30bf8 .cfa: sp 32 +
STACK CFI 30c00 .cfa: sp 0 +
STACK CFI 30c04 .cfa: x29 32 +
STACK CFI INIT 30cec 634 .cfa: sp 0 +
STACK CFI 30cf0 .cfa: sp 176 +
STACK CFI 30d0c .cfa: x29 96 + x19: .cfa -8 + ^ x20: .cfa -16 + ^ x21: .cfa -24 + ^ x22: .cfa -32 + ^ x23: .cfa -40 + ^ x24: .cfa -48 + ^ x25: .cfa -56 + ^ x26: .cfa -64 + ^ x27: .cfa -72 + ^ x28: .cfa -80 + ^ .ra: .cfa -88 + ^ x29: .cfa -96 + ^
STACK CFI 311b8 .cfa: sp 176 +
STACK CFI 311d4 .cfa: sp 0 +
STACK CFI 311d8 .cfa: x29 96 +
STACK CFI INIT 31320 1bc .cfa: sp 0 +
STACK CFI 31324 .cfa: sp 160 +
STACK CFI 31334 .cfa: x29 48 + x19: .cfa -8 + ^ x20: .cfa -16 + ^ x21: .cfa -24 + ^ x22: .cfa -32 + ^ .ra: .cfa -40 + ^ x29: .cfa -48 + ^
STACK CFI 31480 .cfa: sp 160 +
STACK CFI 31490 .cfa: sp 0 +
STACK CFI 31494 .cfa: x29 48 +
STACK CFI INIT 31514 50 .cfa: sp 0 +
STACK CFI 31518 .cfa: sp 32 +
STACK CFI 31520 .cfa: x29 32 + x19: .cfa -8 + ^ x20: .cfa -16 + ^ .ra: .cfa -24 + ^ x29: .cfa -32 + ^
STACK CFI INIT 31638 3a4 .cfa: sp 0 +
STACK CFI 3163c .cfa: sp 224 +
STACK CFI 31650 .cfa: x29 64 + x19: .cfa -8 + ^ x20: .cfa -16 + ^ x21: .cfa -24 + ^ x22: .cfa -32 + ^ x23: .cfa -40 + ^ x24: .cfa -48 + ^ .ra: .cfa -56 + ^ x29: .cfa -64 + ^
STACK CFI 318ac .cfa: sp 224 +
STACK CFI 318c0 .cfa: sp 0 +
STACK CFI 318c4 .cfa: x29 64 +
STACK CFI INIT 319e0 410 .cfa: sp 0 +
STACK CFI 319e4 .cfa: sp 256 +
STACK CFI 31a00 .cfa: x29 96 + x19: .cfa -8 + ^ x20: .cfa -16 + ^ x21: .cfa -24 + ^ x22: .cfa -32 + ^ x23: .cfa -40 + ^ x24: .cfa -48 + ^ x25: .cfa -56 + ^ x26: .cfa -64 + ^ x27: .cfa -80 + ^ .ra: .cfa -88 + ^ x29: .cfa -96 + ^
STACK CFI 31cb4 .cfa: sp 256 +
STACK CFI 31cd0 .cfa: sp 0 +
STACK CFI 31cd4 .cfa: x29 96 +
STACK CFI INIT 31df0 3dc .cfa: sp 0 +
STACK CFI 31df4 .cfa: sp 192 +
STACK CFI 31e10 .cfa: x29 96 + x19: .cfa -8 + ^ x20: .cfa -16 + ^ x21: .cfa -24 + ^ x22: .cfa -32 + ^ x23: .cfa -40 + ^ x24: .cfa -48 + ^ x25: .cfa -56 + ^ x26: .cfa -64 + ^ x27: .cfa -80 + ^ .ra: .cfa -88 + ^ x29: .cfa -96 + ^
STACK CFI 32088 .cfa: sp 192 +
STACK CFI 320a4 .cfa: sp 0 +
STACK CFI 320a8 .cfa: x29 96 +
STACK CFI INIT 321cc 74 .cfa: sp 0 +
STACK CFI 321d0 .cfa: sp 48 +
STACK CFI 321dc .cfa: x29 32 + x19: .cfa -8 + ^ x20: .cfa -16 + ^ .ra: .cfa -24 + ^ x29: .cfa -32 + ^
STACK CFI 32228 .cfa: sp 48 +
STACK CFI 32234 .cfa: sp 0 +
STACK CFI 32238 .cfa: x29 32 +
STACK CFI INIT 32350 158 .cfa: sp 0 +
STACK CFI 32354 .cfa: sp 112 +
STACK CFI 32364 .cfa: x29 48 + x19: .cfa -8 + ^ x20: .cfa -16 + ^ x21: .cfa -32 + ^ .ra: .cfa -40 + ^ x29: .cfa -48 + ^
STACK CFI 323e8 .cfa: sp 112 +
STACK CFI 323f8 .cfa: sp 0 +
STACK CFI 323fc .cfa: x29 48 +
STACK CFI INIT 324a8 b0 .cfa: sp 0 +
STACK CFI 324ac .cfa: sp 64 +
STACK CFI 324b8 .cfa: x29 32 + x19: .cfa -8 + ^ x20: .cfa -16 + ^ .ra: .cfa -24 + ^ x29: .cfa -32 + ^
STACK CFI 32514 .cfa: sp 64 +
STACK CFI 32520 .cfa: sp 0 +
STACK CFI 32524 .cfa: x29 32 +
STACK CFI INIT 325b8 c8 .cfa: sp 0 +
STACK CFI 325bc .cfa: sp 128 +
STACK CFI 325c8 .cfa: x29 32 + x19: .cfa -8 + ^ x20: .cfa -16 + ^ .ra: .cfa -24 + ^ x29: .cfa -32 + ^
STACK CFI 32668 .cfa: sp 128 +
STACK CFI 32674 .cfa: sp 0 +
STACK CFI 32678 .cfa: x29 32 +
STACK CFI INIT 2a07c 2f0 .cfa: sp 0 +
STACK CFI 2a080 .cfa: sp 160 +
STACK CFI 2a090 .cfa: x29 48 + x19: .cfa -8 + ^ x20: .cfa -16 + ^ x21: .cfa -32 + ^ .ra: .cfa -40 + ^ x29: .cfa -48 + ^
STACK CFI 2a304 .cfa: sp 160 +
STACK CFI 2a314 .cfa: sp 0 +
STACK CFI 2a318 .cfa: x29 48 +
STACK CFI INIT 32a90 264 .cfa: sp 0 +
STACK CFI 32a94 .cfa: sp 64 +
STACK CFI 32aa0 .cfa: x29 32 + x19: .cfa -8 + ^ x20: .cfa -16 + ^ .ra: .cfa -24 + ^ x29: .cfa -32 + ^
STACK CFI 32cac .cfa: sp 64 +
STACK CFI 32cb8 .cfa: sp 0 +
STACK CFI 32cbc .cfa: x29 32 +
STACK CFI INIT 32cf4 b0 .cfa: sp 0 +
STACK CFI 32cf8 .cfa: sp 64 +
STACK CFI 32d04 .cfa: x29 32 + x19: .cfa -8 + ^ x20: .cfa -16 + ^ .ra: .cfa -24 + ^ x29: .cfa -32 + ^
STACK CFI 32d68 .cfa: sp 64 +
STACK CFI 32d74 .cfa: sp 0 +
STACK CFI 32d78 .cfa: x29 32 +
STACK CFI INIT 32da4 250 .cfa: sp 0 +
STACK CFI 32da8 .cfa: sp 96 +
STACK CFI 32dbc .cfa: x29 64 + x19: .cfa -8 + ^ x20: .cfa -16 + ^ x21: .cfa -24 + ^ x22: .cfa -32 + ^ x23: .cfa -48 + ^ .ra: .cfa -56 + ^ x29: .cfa -64 + ^
STACK CFI 32fac .cfa: sp 96 +
STACK CFI 32fc0 .cfa: sp 0 +
STACK CFI 32fc4 .cfa: x29 64 +
STACK CFI INIT 32ff4 11c .cfa: sp 0 +
STACK CFI 32ff8 .cfa: sp 80 +
STACK CFI 33008 .cfa: x29 48 + x19: .cfa -8 + ^ x20: .cfa -16 + ^ x21: .cfa -32 + ^ .ra: .cfa -40 + ^ x29: .cfa -48 + ^
STACK CFI 330d4 .cfa: sp 80 +
STACK CFI 330e4 .cfa: sp 0 +
STACK CFI 330e8 .cfa: x29 48 +
STACK CFI INIT 33110 208 .cfa: sp 0 +
STACK CFI 33114 .cfa: sp 80 +
STACK CFI 33124 .cfa: x29 48 + x19: .cfa -8 + ^ x20: .cfa -16 + ^ x21: .cfa -32 + ^ .ra: .cfa -40 + ^ x29: .cfa -48 + ^
STACK CFI 332d0 .cfa: sp 80 +
STACK CFI 332e0 .cfa: sp 0 +
STACK CFI 332e4 .cfa: x29 48 +
STACK CFI INIT 33360 310 .cfa: sp 0 +
STACK CFI 33364 .cfa: sp 80 +
STACK CFI 33378 .cfa: x29 40 + x19: .cfa -8 + ^ x20: .cfa -16 + ^ x21: .cfa -24 + ^ .ra: .cfa -32 + ^ x29: .cfa -40 + ^ v8: .cfa -48 + ^
STACK CFI 33624 .cfa: sp 80 +
STACK CFI 33638 .cfa: sp 0 +
STACK CFI 3363c .cfa: x29 40 +
STACK CFI INIT 336d8 33c .cfa: sp 0 +
STACK CFI 336dc .cfa: sp 144 +
STACK CFI 336f0 .cfa: x29 48 + x19: .cfa -8 + ^ x20: .cfa -16 + ^ x21: .cfa -24 + ^ x22: .cfa -32 + ^ .ra: .cfa -40 + ^ x29: .cfa -48 + ^ v8: .cfa -64 + ^
STACK CFI 33988 .cfa: sp 144 +
STACK CFI 3399c .cfa: sp 0 +
STACK CFI 339a0 .cfa: x29 48 +
STACK CFI INIT 33a14 103c .cfa: sp 0 +
STACK CFI 33a18 .cfa: sp 240 +
STACK CFI 33a38 .cfa: x29 96 + x19: .cfa -8 + ^ x20: .cfa -16 + ^ x21: .cfa -24 + ^ x22: .cfa -32 + ^ x23: .cfa -40 + ^ x24: .cfa -48 + ^ x25: .cfa -56 + ^ x26: .cfa -64 + ^ x27: .cfa -72 + ^ x28: .cfa -80 + ^ .ra: .cfa -88 + ^ x29: .cfa -96 + ^ v8: .cfa -104 + ^ v9: .cfa -112 + ^
STACK CFI 34988 .cfa: sp 240 +
STACK CFI 349a8 .cfa: sp 0 +
STACK CFI 349ac .cfa: x29 96 +
STACK CFI INIT 34cf0 184 .cfa: sp 0 +
STACK CFI 34cf4 .cfa: sp 64 +
STACK CFI 34d04 .cfa: x29 48 + x19: .cfa -8 + ^ x20: .cfa -16 + ^ x21: .cfa -32 + ^ .ra: .cfa -40 + ^ x29: .cfa -48 + ^
STACK CFI 34e38 .cfa: sp 64 +
STACK CFI 34e48 .cfa: sp 0 +
STACK CFI 34e4c .cfa: x29 48 +
STACK CFI INIT 34e74 124 .cfa: sp 0 +
STACK CFI 34e78 .cfa: sp 64 +
STACK CFI 34e84 .cfa: x29 32 + x19: .cfa -8 + ^ x20: .cfa -16 + ^ .ra: .cfa -24 + ^ x29: .cfa -32 + ^
STACK CFI 34f58 .cfa: sp 64 +
STACK CFI 34f64 .cfa: sp 0 +
STACK CFI 34f68 .cfa: x29 32 +
STACK CFI INIT 34f98 468 .cfa: sp 0 +
STACK CFI 34f9c .cfa: sp 176 +
STACK CFI 34fbc .cfa: x29 96 + x19: .cfa -8 + ^ x20: .cfa -16 + ^ x21: .cfa -24 + ^ x22: .cfa -32 + ^ x23: .cfa -40 + ^ x24: .cfa -48 + ^ x25: .cfa -56 + ^ x26: .cfa -64 + ^ x27: .cfa -72 + ^ x28: .cfa -80 + ^ .ra: .cfa -88 + ^ x29: .cfa -96 + ^ v8: .cfa -104 + ^ v9: .cfa -112 + ^
STACK CFI 35334 .cfa: sp 176 +
STACK CFI 35354 .cfa: sp 0 +
STACK CFI 35358 .cfa: x29 96 +
STACK CFI INIT 35400 1c .cfa: sp 0 +
STACK CFI 35404 .cfa: sp 16 +
STACK CFI 35408 .cfa: x29 16 + .ra: .cfa -8 + ^ x29: .cfa -16 + ^
STACK CFI 35410 .cfa: sp 16 +
STACK CFI 35414 .cfa: sp 0 +
STACK CFI 35418 .cfa: x29 16 +
STACK CFI INIT 3541c 218 .cfa: sp 0 +
STACK CFI 35420 .cfa: sp 208 +
STACK CFI 35438 .cfa: x29 80 + x19: .cfa -8 + ^ x20: .cfa -16 + ^ x21: .cfa -24 + ^ x22: .cfa -32 + ^ x23: .cfa -40 + ^ x24: .cfa -48 + ^ x25: .cfa -64 + ^ .ra: .cfa -72 + ^ x29: .cfa -80 + ^
STACK CFI 355b4 .cfa: sp 208 +
STACK CFI 355cc .cfa: sp 0 +
STACK CFI 355d0 .cfa: x29 80 +
STACK CFI INIT 35774 148 .cfa: sp 0 +
STACK CFI 35778 .cfa: sp 96 +
STACK CFI 35788 .cfa: x29 48 + x19: .cfa -8 + ^ x20: .cfa -16 + ^ x21: .cfa -32 + ^ .ra: .cfa -40 + ^ x29: .cfa -48 + ^
STACK CFI 35870 .cfa: sp 96 +
STACK CFI 35880 .cfa: sp 0 +
STACK CFI 35884 .cfa: x29 48 +
STACK CFI INIT 35b78 e4 .cfa: sp 0 +
STACK CFI 35b7c .cfa: sp 80 +
STACK CFI 35b8c .cfa: x29 48 + x19: .cfa -8 + ^ x20: .cfa -16 + ^ x21: .cfa -32 + ^ .ra: .cfa -40 + ^ x29: .cfa -48 + ^
STACK CFI 35c20 .cfa: sp 80 +
STACK CFI 35c30 .cfa: sp 0 +
STACK CFI 35c34 .cfa: x29 48 +
STACK CFI INIT 35cfc 108 .cfa: sp 0 +
STACK CFI 35d00 .cfa: sp 80 +
STACK CFI 35d10 .cfa: x29 48 + x19: .cfa -8 + ^ x20: .cfa -16 + ^ x21: .cfa -32 + ^ .ra: .cfa -40 + ^ x29: .cfa -48 + ^
STACK CFI 35dc8 .cfa: sp 80 +
STACK CFI 35dd8 .cfa: sp 0 +
STACK CFI 35ddc .cfa: x29 48 +
STACK CFI INIT 35e3c 130 .cfa: sp 0 +
STACK CFI 35e40 .cfa: sp 32 +
STACK CFI 35e48 .cfa: x29 32 + x19: .cfa -16 + ^ .ra: .cfa -24 + ^ x29: .cfa -32 + ^
STACK CFI 35f5c .cfa: sp 32 +
STACK CFI 35f64 .cfa: sp 0 +
STACK CFI 35f68 .cfa: x29 32 +
STACK CFI INIT 36204 190 .cfa: sp 0 +
STACK CFI 36208 .cfa: sp 96 +
STACK CFI 36218 .cfa: x29 48 + x19: .cfa -8 + ^ x20: .cfa -16 + ^ x21: .cfa -24 + ^ x22: .cfa -32 + ^ .ra: .cfa -40 + ^ x29: .cfa -48 + ^
STACK CFI 36358 .cfa: sp 96 +
STACK CFI 36368 .cfa: sp 0 +
STACK CFI 3636c .cfa: x29 48 +
STACK CFI INIT 363ac 540 .cfa: sp 0 +
STACK CFI 363b0 .cfa: sp 192 +
STACK CFI 363c4 .cfa: x29 64 + x19: .cfa -8 + ^ x20: .cfa -16 + ^ x21: .cfa -24 + ^ x22: .cfa -32 + ^ x23: .cfa -40 + ^ x24: .cfa -48 + ^ .ra: .cfa -56 + ^ x29: .cfa -64 + ^
STACK CFI 367a8 .cfa: sp 192 +
STACK CFI 367bc .cfa: sp 0 +
STACK CFI 367c0 .cfa: x29 64 +
STACK CFI INIT 36948 6c .cfa: sp 0 +
STACK CFI 3694c .cfa: sp 32 +
STACK CFI 36954 .cfa: x29 32 + x19: .cfa -16 + ^ .ra: .cfa -24 + ^ x29: .cfa -32 + ^
STACK CFI 369a4 .cfa: sp 32 +
STACK CFI 369ac .cfa: sp 0 +
STACK CFI 369b0 .cfa: x29 32 +
STACK CFI INIT 369b8 6c .cfa: sp 0 +
STACK CFI 369bc .cfa: sp 32 +
STACK CFI 369c4 .cfa: x29 32 + x19: .cfa -16 + ^ .ra: .cfa -24 + ^ x29: .cfa -32 + ^
STACK CFI 36a14 .cfa: sp 32 +
STACK CFI 36a1c .cfa: sp 0 +
STACK CFI 36a20 .cfa: x29 32 +
STACK CFI INIT 36a80 51c .cfa: sp 0 +
STACK CFI 36a84 .cfa: sp 144 +
STACK CFI 36aa4 .cfa: x29 96 + x19: .cfa -8 + ^ x20: .cfa -16 + ^ x21: .cfa -24 + ^ x22: .cfa -32 + ^ x23: .cfa -40 + ^ x24: .cfa -48 + ^ x25: .cfa -56 + ^ x26: .cfa -64 + ^ x27: .cfa -72 + ^ x28: .cfa -80 + ^ .ra: .cfa -88 + ^ x29: .cfa -96 + ^ v8: .cfa -104 + ^ v9: .cfa -112 + ^
STACK CFI 36f40 .cfa: sp 144 +
STACK CFI 36f60 .cfa: sp 0 +
STACK CFI 36f64 .cfa: x29 96 +
STACK CFI INIT 36fc8 1a0 .cfa: sp 0 +
STACK CFI 36fcc .cfa: sp 128 +
STACK CFI 36fdc .cfa: x29 48 + x19: .cfa -8 + ^ x20: .cfa -16 + ^ x21: .cfa -32 + ^ .ra: .cfa -40 + ^ x29: .cfa -48 + ^
STACK CFI 370e4 .cfa: sp 128 +
STACK CFI 370f4 .cfa: sp 0 +
STACK CFI 370f8 .cfa: x29 48 +
STACK CFI INIT 37328 1a0 .cfa: sp 0 +
STACK CFI 3732c .cfa: sp 128 +
STACK CFI 3733c .cfa: x29 48 + x19: .cfa -8 + ^ x20: .cfa -16 + ^ x21: .cfa -32 + ^ .ra: .cfa -40 + ^ x29: .cfa -48 + ^
STACK CFI 37444 .cfa: sp 128 +
STACK CFI 37454 .cfa: sp 0 +
STACK CFI 37458 .cfa: x29 48 +
STACK CFI INIT 37780 134 .cfa: sp 0 +
STACK CFI 37784 .cfa: sp 80 +
STACK CFI 37790 .cfa: x29 32 + x19: .cfa -8 + ^ x20: .cfa -16 + ^ .ra: .cfa -24 + ^ x29: .cfa -32 + ^
STACK CFI 377c0 .cfa: sp 80 +
STACK CFI 377cc .cfa: sp 0 +
STACK CFI 377d0 .cfa: x29 32 +
STACK CFI INIT 378b4 78 .cfa: sp 0 +
STACK CFI 378b8 .cfa: sp 32 +
STACK CFI 378c0 .cfa: x29 32 + x19: .cfa -8 + ^ x20: .cfa -16 + ^ .ra: .cfa -24 + ^ x29: .cfa -32 + ^
STACK CFI 378cc .cfa: sp 32 +
STACK CFI 378d4 .cfa: sp 0 +
STACK CFI 378d8 .cfa: x29 32 +
STACK CFI INIT 3792c 74 .cfa: sp 0 +
STACK CFI 37930 .cfa: sp 48 +
STACK CFI 3793c .cfa: x29 32 + x19: .cfa -8 + ^ x20: .cfa -16 + ^ .ra: .cfa -24 + ^ x29: .cfa -32 + ^
STACK CFI 37988 .cfa: sp 48 +
STACK CFI 37994 .cfa: sp 0 +
STACK CFI 37998 .cfa: x29 32 +
STACK CFI INIT 37a28 25c .cfa: sp 0 +
STACK CFI 37a2c .cfa: sp 128 +
STACK CFI 37a3c .cfa: x29 48 + x19: .cfa -8 + ^ x20: .cfa -16 + ^ x21: .cfa -32 + ^ .ra: .cfa -40 + ^ x29: .cfa -48 + ^
STACK CFI 37b24 .cfa: sp 128 +
STACK CFI 37b34 .cfa: sp 0 +
STACK CFI 37b38 .cfa: x29 48 +
STACK CFI INIT 37cfc 28c .cfa: sp 0 +
STACK CFI 37d00 .cfa: sp 128 +
STACK CFI 37d10 .cfa: x29 48 + x19: .cfa -8 + ^ x20: .cfa -16 + ^ x21: .cfa -32 + ^ .ra: .cfa -40 + ^ x29: .cfa -48 + ^
STACK CFI 37e30 .cfa: sp 128 +
STACK CFI 37e40 .cfa: sp 0 +
STACK CFI 37e44 .cfa: x29 48 +
STACK CFI INIT 37f88 300 .cfa: sp 0 +
STACK CFI 37f8c .cfa: sp 144 +
STACK CFI 37fa0 .cfa: x29 64 + x19: .cfa -8 + ^ x20: .cfa -16 + ^ x21: .cfa -24 + ^ x22: .cfa -32 + ^ x23: .cfa -48 + ^ .ra: .cfa -56 + ^ x29: .cfa -64 + ^
STACK CFI 38134 .cfa: sp 144 +
STACK CFI 38148 .cfa: sp 0 +
STACK CFI 3814c .cfa: x29 64 +
STACK CFI INIT 382dc 264 .cfa: sp 0 +
STACK CFI 382e0 .cfa: sp 128 +
STACK CFI 382f0 .cfa: x29 48 + x19: .cfa -8 + ^ x20: .cfa -16 + ^ x21: .cfa -32 + ^ .ra: .cfa -40 + ^ x29: .cfa -48 + ^
STACK CFI 383e8 .cfa: sp 128 +
STACK CFI 383f8 .cfa: sp 0 +
STACK CFI 383fc .cfa: x29 48 +
STACK CFI INIT 387e0 310 .cfa: sp 0 +
STACK CFI 387e4 .cfa: sp 144 +
STACK CFI 387f8 .cfa: x29 64 + x19: .cfa -8 + ^ x20: .cfa -16 + ^ x21: .cfa -24 + ^ x22: .cfa -32 + ^ x23: .cfa -48 + ^ .ra: .cfa -56 + ^ x29: .cfa -64 + ^
STACK CFI 3899c .cfa: sp 144 +
STACK CFI 389b0 .cfa: sp 0 +
STACK CFI 389b4 .cfa: x29 64 +
STACK CFI INIT 38b48 2e4 .cfa: sp 0 +
STACK CFI 38b4c .cfa: sp 144 +
STACK CFI 38b60 .cfa: x29 64 + x19: .cfa -8 + ^ x20: .cfa -16 + ^ x21: .cfa -24 + ^ x22: .cfa -32 + ^ x23: .cfa -48 + ^ .ra: .cfa -56 + ^ x29: .cfa -64 + ^
STACK CFI 38cd8 .cfa: sp 144 +
STACK CFI 38cec .cfa: sp 0 +
STACK CFI 38cf0 .cfa: x29 64 +
STACK CFI INIT 38e2c 2e4 .cfa: sp 0 +
STACK CFI 38e30 .cfa: sp 144 +
STACK CFI 38e44 .cfa: x29 64 + x19: .cfa -8 + ^ x20: .cfa -16 + ^ x21: .cfa -24 + ^ x22: .cfa -32 + ^ x23: .cfa -48 + ^ .ra: .cfa -56 + ^ x29: .cfa -64 + ^
STACK CFI 38fbc .cfa: sp 144 +
STACK CFI 38fd0 .cfa: sp 0 +
STACK CFI 38fd4 .cfa: x29 64 +
STACK CFI INIT 39110 2a0 .cfa: sp 0 +
STACK CFI 39114 .cfa: sp 144 +
STACK CFI 39128 .cfa: x29 64 + x19: .cfa -8 + ^ x20: .cfa -16 + ^ x21: .cfa -24 + ^ x22: .cfa -32 + ^ x23: .cfa -48 + ^ .ra: .cfa -56 + ^ x29: .cfa -64 + ^
STACK CFI 3925c .cfa: sp 144 +
STACK CFI 39270 .cfa: sp 0 +
STACK CFI 39274 .cfa: x29 64 +
STACK CFI INIT 393b0 2f0 .cfa: sp 0 +
STACK CFI 393b4 .cfa: sp 144 +
STACK CFI 393c8 .cfa: x29 64 + x19: .cfa -8 + ^ x20: .cfa -16 + ^ x21: .cfa -24 + ^ x22: .cfa -32 + ^ x23: .cfa -48 + ^ .ra: .cfa -56 + ^ x29: .cfa -64 + ^
STACK CFI 3954c .cfa: sp 144 +
STACK CFI 39560 .cfa: sp 0 +
STACK CFI 39564 .cfa: x29 64 +
STACK CFI INIT 396a0 4f4 .cfa: sp 0 +
STACK CFI 396a4 .cfa: sp 144 +
STACK CFI 396b8 .cfa: x29 64 + x19: .cfa -8 + ^ x20: .cfa -16 + ^ x21: .cfa -24 + ^ x22: .cfa -32 + ^ x23: .cfa -48 + ^ .ra: .cfa -56 + ^ x29: .cfa -64 + ^
STACK CFI 399ec .cfa: sp 144 +
STACK CFI 39a00 .cfa: sp 0 +
STACK CFI 39a04 .cfa: x29 64 +
STACK CFI INIT 39b94 154 .cfa: sp 0 +
STACK CFI 39b98 .cfa: sp 384 +
STACK CFI 39bac .cfa: x29 64 + x19: .cfa -8 + ^ x20: .cfa -16 + ^ x21: .cfa -24 + ^ x22: .cfa -32 + ^ x23: .cfa -40 + ^ x28: .cfa -48 + ^ .ra: .cfa -56 + ^ x29: .cfa -64 + ^
STACK CFI 39c90 .cfa: sp 384 +
STACK CFI 39ca4 .cfa: sp 0 +
STACK CFI 39ca8 .cfa: x29 64 +
STACK CFI INIT 39d00 50c .cfa: sp 0 +
STACK CFI 39d04 .cfa: sp 64 +
STACK CFI 39d14 .cfa: x29 64 + x19: .cfa -8 + ^ x20: .cfa -16 + ^ x21: .cfa -24 + ^ x22: .cfa -32 + ^ x23: .cfa -40 + ^ x24: .cfa -48 + ^ .ra: .cfa -56 + ^ x29: .cfa -64 + ^
STACK CFI 39e34 .cfa: sp 64 +
STACK CFI 39e44 .cfa: sp 0 +
STACK CFI 39e48 .cfa: x29 64 +
STACK CFI 3a1e0 .cfa: sp 64 +
STACK CFI 3a1f0 .cfa: sp 0 +
STACK CFI 3a1f4 .cfa: x29 64 +
STACK CFI INIT 3a53c 294 .cfa: sp 0 +
STACK CFI 3a540 .cfa: sp 240 +
STACK CFI 3a558 .cfa: x29 80 + x19: .cfa -8 + ^ x20: .cfa -16 + ^ x21: .cfa -24 + ^ x22: .cfa -32 + ^ x23: .cfa -40 + ^ x24: .cfa -48 + ^ x25: .cfa -64 + ^ .ra: .cfa -72 + ^ x29: .cfa -80 + ^
STACK CFI 3a6f8 .cfa: sp 240 +
STACK CFI 3a710 .cfa: sp 0 +
STACK CFI 3a714 .cfa: x29 80 +
STACK CFI INIT 3a84c 50 .cfa: sp 0 +
STACK CFI 3a850 .cfa: sp 32 +
STACK CFI 3a858 .cfa: x29 32 + x19: .cfa -8 + ^ x20: .cfa -16 + ^ .ra: .cfa -24 + ^ x29: .cfa -32 + ^
STACK CFI INIT 3a8c8 7c0 .cfa: sp 0 +
STACK CFI 3a8cc .cfa: sp 320 +
STACK CFI 3a8e8 .cfa: x29 96 + x19: .cfa -8 + ^ x20: .cfa -16 + ^ x21: .cfa -24 + ^ x22: .cfa -32 + ^ x23: .cfa -40 + ^ x24: .cfa -48 + ^ x25: .cfa -56 + ^ x26: .cfa -64 + ^ x27: .cfa -72 + ^ x28: .cfa -80 + ^ .ra: .cfa -88 + ^ x29: .cfa -96 + ^
STACK CFI 3af38 .cfa: sp 320 +
STACK CFI 3af54 .cfa: sp 0 +
STACK CFI 3af58 .cfa: x29 96 +
STACK CFI INIT 3f408 c74 .cfa: sp 0 +
STACK CFI 3f40c .cfa: sp 96 +
STACK CFI 3f424 .cfa: x29 96 + x19: .cfa -8 + ^ x20: .cfa -16 + ^ x21: .cfa -24 + ^ x22: .cfa -32 + ^ x23: .cfa -40 + ^ x24: .cfa -48 + ^ x25: .cfa -56 + ^ x26: .cfa -64 + ^ x27: .cfa -72 + ^ x28: .cfa -80 + ^ .ra: .cfa -88 + ^ x29: .cfa -96 + ^
STACK CFI 3fe9c .cfa: sp 96 +
STACK CFI 3feb4 .cfa: sp 0 +
STACK CFI 3feb8 .cfa: x29 96 +
STACK CFI INIT 401d0 26c .cfa: sp 0 +
STACK CFI 401d4 .cfa: sp 128 +
STACK CFI 401e4 .cfa: x29 48 + x19: .cfa -8 + ^ x20: .cfa -16 + ^ x21: .cfa -24 + ^ x22: .cfa -32 + ^ .ra: .cfa -40 + ^ x29: .cfa -48 + ^
STACK CFI 40388 .cfa: sp 128 +
STACK CFI 40398 .cfa: sp 0 +
STACK CFI 4039c .cfa: x29 48 +
STACK CFI INIT 40988 3b8 .cfa: sp 0 +
STACK CFI 4098c .cfa: sp 96 +
STACK CFI 409a4 .cfa: x29 96 + x19: .cfa -8 + ^ x20: .cfa -16 + ^ x21: .cfa -24 + ^ x22: .cfa -32 + ^ x23: .cfa -40 + ^ x24: .cfa -48 + ^ x25: .cfa -56 + ^ x26: .cfa -64 + ^ x27: .cfa -72 + ^ x28: .cfa -80 + ^ .ra: .cfa -88 + ^ x29: .cfa -96 + ^
STACK CFI 40ce0 .cfa: sp 96 +
STACK CFI 40cf8 .cfa: sp 0 +
STACK CFI 40cfc .cfa: x29 96 +
STACK CFI INIT 40de0 cb4 .cfa: sp 0 +
STACK CFI 40de4 .cfa: sp 96 +
STACK CFI 40dfc .cfa: x29 96 + x19: .cfa -8 + ^ x20: .cfa -16 + ^ x21: .cfa -24 + ^ x22: .cfa -32 + ^ x23: .cfa -40 + ^ x24: .cfa -48 + ^ x25: .cfa -56 + ^ x26: .cfa -64 + ^ x27: .cfa -72 + ^ x28: .cfa -80 + ^ .ra: .cfa -88 + ^ x29: .cfa -96 + ^
STACK CFI 418a4 .cfa: sp 96 +
STACK CFI 418bc .cfa: sp 0 +
STACK CFI 418c0 .cfa: x29 96 +
STACK CFI INIT 41d7c afc .cfa: sp 0 +
STACK CFI 41d80 .cfa: sp 96 +
STACK CFI 41d98 .cfa: x29 96 + x19: .cfa -8 + ^ x20: .cfa -16 + ^ x21: .cfa -24 + ^ x22: .cfa -32 + ^ x23: .cfa -40 + ^ x24: .cfa -48 + ^ x25: .cfa -56 + ^ x26: .cfa -64 + ^ x27: .cfa -72 + ^ x28: .cfa -80 + ^ .ra: .cfa -88 + ^ x29: .cfa -96 + ^
STACK CFI 427ec .cfa: sp 96 +
STACK CFI 42804 .cfa: sp 0 +
STACK CFI 42808 .cfa: x29 96 +
STACK CFI INIT 42a54 1430 .cfa: sp 0 +
STACK CFI 42a58 .cfa: sp 96 +
STACK CFI 42a70 .cfa: x29 96 + x19: .cfa -8 + ^ x20: .cfa -16 + ^ x21: .cfa -24 + ^ x22: .cfa -32 + ^ x23: .cfa -40 + ^ x24: .cfa -48 + ^ x25: .cfa -56 + ^ x26: .cfa -64 + ^ x27: .cfa -72 + ^ x28: .cfa -80 + ^ .ra: .cfa -88 + ^ x29: .cfa -96 + ^
STACK CFI 43d0c .cfa: sp 96 +
STACK CFI 43d24 .cfa: sp 0 +
STACK CFI 43d28 .cfa: x29 96 +
STACK CFI INIT 43fa8 75c .cfa: sp 0 +
STACK CFI 43fac .cfa: sp 368 +
STACK CFI 43fc8 .cfa: x29 96 + x19: .cfa -8 + ^ x20: .cfa -16 + ^ x21: .cfa -24 + ^ x22: .cfa -32 + ^ x23: .cfa -40 + ^ x24: .cfa -48 + ^ x25: .cfa -56 + ^ x26: .cfa -64 + ^ x27: .cfa -72 + ^ x28: .cfa -80 + ^ .ra: .cfa -88 + ^ x29: .cfa -96 + ^
STACK CFI 4407c .cfa: sp 368 +
STACK CFI 44098 .cfa: sp 0 +
STACK CFI 4409c .cfa: x29 96 +
STACK CFI 440f0 .cfa: sp 368 +
STACK CFI 4410c .cfa: sp 0 +
STACK CFI 44110 .cfa: x29 96 +
STACK CFI INIT 44ac4 eb0 .cfa: sp 0 +
STACK CFI 44ac8 .cfa: sp 96 +
STACK CFI 44ae0 .cfa: x29 96 + x19: .cfa -8 + ^ x20: .cfa -16 + ^ x21: .cfa -24 + ^ x22: .cfa -32 + ^ x23: .cfa -40 + ^ x24: .cfa -48 + ^ x25: .cfa -56 + ^ x26: .cfa -64 + ^ x27: .cfa -72 + ^ x28: .cfa -80 + ^ .ra: .cfa -88 + ^ x29: .cfa -96 + ^
STACK CFI 45788 .cfa: sp 96 +
STACK CFI 457a0 .cfa: sp 0 +
STACK CFI 457a4 .cfa: x29 96 +
STACK CFI INIT 45ce8 1c9c .cfa: sp 0 +
STACK CFI 45cec .cfa: sp 112 +
STACK CFI 45d08 .cfa: x29 96 + x19: .cfa -8 + ^ x20: .cfa -16 + ^ x21: .cfa -24 + ^ x22: .cfa -32 + ^ x23: .cfa -40 + ^ x24: .cfa -48 + ^ x25: .cfa -56 + ^ x26: .cfa -64 + ^ x27: .cfa -72 + ^ x28: .cfa -80 + ^ .ra: .cfa -88 + ^ x29: .cfa -96 + ^ v8: .cfa -112 + ^
STACK CFI 460f0 .cfa: sp 112 +
STACK CFI 4610c .cfa: sp 0 +
STACK CFI 46110 .cfa: x29 96 +
STACK CFI INIT 4a148 9a0 .cfa: sp 0 +
STACK CFI 4a14c .cfa: sp 144 +
STACK CFI 4a164 .cfa: x29 80 + x19: .cfa -8 + ^ x20: .cfa -16 + ^ x21: .cfa -24 + ^ x22: .cfa -32 + ^ x23: .cfa -40 + ^ x24: .cfa -48 + ^ x25: .cfa -64 + ^ .ra: .cfa -72 + ^ x29: .cfa -80 + ^
STACK CFI 4aa64 .cfa: sp 144 +
STACK CFI 4aa7c .cfa: sp 0 +
STACK CFI 4aa80 .cfa: x29 80 +
STACK CFI INIT 4c00c 57c .cfa: sp 0 +
STACK CFI 4c010 .cfa: sp 96 +
STACK CFI 4c028 .cfa: x29 96 + x19: .cfa -8 + ^ x20: .cfa -16 + ^ x21: .cfa -24 + ^ x22: .cfa -32 + ^ x23: .cfa -40 + ^ x24: .cfa -48 + ^ x25: .cfa -56 + ^ x26: .cfa -64 + ^ x27: .cfa -72 + ^ x28: .cfa -80 + ^ .ra: .cfa -88 + ^ x29: .cfa -96 + ^
STACK CFI 4c4ec .cfa: sp 96 +
STACK CFI 4c504 .cfa: sp 0 +
STACK CFI 4c508 .cfa: x29 96 +
STACK CFI INIT 4c588 67c .cfa: sp 0 +
STACK CFI 4c58c .cfa: sp 96 +
STACK CFI 4c5a4 .cfa: x29 96 + x19: .cfa -8 + ^ x20: .cfa -16 + ^ x21: .cfa -24 + ^ x22: .cfa -32 + ^ x23: .cfa -40 + ^ x24: .cfa -48 + ^ x25: .cfa -56 + ^ x26: .cfa -64 + ^ x27: .cfa -72 + ^ x28: .cfa -80 + ^ .ra: .cfa -88 + ^ x29: .cfa -96 + ^
STACK CFI 4cb68 .cfa: sp 96 +
STACK CFI 4cb80 .cfa: sp 0 +
STACK CFI 4cb84 .cfa: x29 96 +
