MODULE Linux arm64 DC76F9D57D613202917E11657684E0860 iandyhd3.known_players.android64.so
INFO CODE_ID D5F976DC617D0232917E11657684E086A74B6443
INFO GENERATOR mozilla/dump_syms 2.3.4
PUBLIC 75b0 0 __on_dlclose
PUBLIC 75c0 0 __emutls_unregister_key
PUBLIC 75c8 0 __on_dlclose_late
PUBLIC 75d0 0 __atexit_handler_wrapper
PUBLIC 75e4 0 atexit
PUBLIC 7600 0 pthread_atfork
PUBLIC 7610 0 __aarch64_ldadd8_relax
PUBLIC 7640 0 init_have_lse_atomics
PUBLIC 76d8 0 __init_cpu_features_constructor
PUBLIC 7c74 0 __init_cpu_features
PUBLIC 7d00 0 __aarch64_ldadd8_acq_rel
PUBLIC 7d30 0 std::__ndk1::random_device::random_device[abi:ne180000]()
PUBLIC 7de4 0 modifyPlayer(PlayerObject*, known_players::PlayerData*)
PUBLIC 8bf0 0 __cxx_global_var_init.1
PUBLIC 97c4 0 geode::modifier::ModifyBase<geode::modifier::ModifyDerive<MGMHook, MenuGameLayer> >::~ModifyBase()
PUBLIC 97dc 0 std::__ndk1::basic_string<char, std::__ndk1::char_traits<char>, std::__ndk1::allocator<char> >::__throw_length_error[abi:ne180000]() const
PUBLIC 97f0 0 std::__ndk1::__throw_length_error[abi:ne180000](char const*)
PUBLIC 9840 0 std::length_error::length_error[abi:ne180000](char const*)
PUBLIC 9870 0 std::__throw_bad_array_new_length([abi:ne180000], void)
PUBLIC 98a4 0 __clang_call_terminate
PUBLIC 98b4 0 std::__ndk1::vector<IconType, std::__ndk1::allocator<IconType> >::__throw_length_error[abi:ne180000]() const
PUBLIC 98c8 0 std::__ndk1::vector<IconType, std::__ndk1::allocator<IconType> >::__throw_out_of_range[abi:ne180000]() const
PUBLIC 98d4 0 std::__ndk1::__throw_out_of_range[abi:ne180000](char const*)
PUBLIC 991c 0 std::out_of_range::out_of_range[abi:ne180000](char const*)
PUBLIC 9954 0 std::__ndk1::__independent_bits_engine<std::__ndk1::mersenne_twister_engine<unsigned long, (unsigned long)32, (unsigned long)624, (unsigned long)397, (unsigned long)31, (unsigned long)2567483615, (unsigned long)11, (unsigned long)4294967295, (unsigned long)7, (unsigned long)2636928640, (unsigned long)15, (unsigned long)4022730752, (unsigned long)18, (unsigned long)1812433253>, unsigned int>::__eval(std::__ndk1::integral_constant<bool, true>)
PUBLIC 9b54 0 geode::modifier::ModifyDerive<MGMHook, MenuGameLayer>::apply()
PUBLIC 9fc8 0 std::__ndk1::shared_ptr<geode::Hook>::~shared_ptr[abi:ne180000]()
PUBLIC a018 0 geode::impl::ResultData<geode::Hook*, std::__ndk1::basic_string<char, std::__ndk1::char_traits<char>, std::__ndk1::allocator<char> > >::~ResultData()
PUBLIC a08c 0 std::__ndk1::vector<std::__ndk1::basic_string<char, std::__ndk1::char_traits<char>, std::__ndk1::allocator<char> >, std::__ndk1::allocator<std::__ndk1::basic_string<char, std::__ndk1::char_traits<char>, std::__ndk1::allocator<char> > > >::~vector[abi:ne180000]()
PUBLIC a108 0 geode::modifier::ModifyBase<geode::modifier::ModifyDerive<MGMHook, MenuGameLayer> >::apply()
PUBLIC a10c 0 _ZN5geode15UnwrapExceptionC2IRPNS_4HookEQsr4implE18IsStringStreamableIT_EEENS_4impl5OkTagEOS5_
PUBLIC a808 0 std::__ndk1::__throw_bad_variant_access[abi:ne180000]()
PUBLIC m a83c 0 std::__ndk1::basic_stringstream<char, std::__ndk1::char_traits<char>, std::__ndk1::allocator<char> >::~basic_stringstream()
PUBLIC a8bc 0 geode::UnwrapException::~UnwrapException()
PUBLIC a8e0 0 std::__ndk1::basic_string<char, std::__ndk1::char_traits<char>, std::__ndk1::allocator<char> >::__init_copy_ctor_external(char const*, unsigned long)
PUBLIC a95c 0 std::__ndk1::__split_buffer<std::__ndk1::basic_string<char, std::__ndk1::char_traits<char>, std::__ndk1::allocator<char> >, std::__ndk1::allocator<std::__ndk1::basic_string<char, std::__ndk1::char_traits<char>, std::__ndk1::allocator<char> > >&>::~__split_buffer()
PUBLIC a9c4 0 std::__ndk1::vector<std::__ndk1::basic_string<char, std::__ndk1::char_traits<char>, std::__ndk1::allocator<char> >, std::__ndk1::allocator<std::__ndk1::basic_string<char, std::__ndk1::char_traits<char>, std::__ndk1::allocator<char> > > >::__throw_length_error[abi:ne180000]() const
PUBLIC a9d8 0 std::__ndk1::__variant_detail::__visitation::__base::__dispatcher<(unsigned long)0>::__dispatch[abi:ne180000]<std::__ndk1::__variant_detail::__dtor<std::__ndk1::__variant_detail::__traits<geode::Hook*, std::__ndk1::basic_string<char, std::__ndk1::char_traits<char>, std::__ndk1::allocator<char> > >, (std::__ndk1::__variant_detail::_Trait)1>::__destroy[abi:ne180000]()::{lambda(auto:1&)#1}, std::__ndk1::__variant_detail::__base<(std::__ndk1::__variant_detail::__traits<geode::Hook*, std::__ndk1::basic_string<char, std::__ndk1::char_traits<char>, std::__ndk1::allocator<char> > >)1, geode::Hook, std::__ndk1::allocator<char> >&>(std::__ndk1::__variant_detail::__dtor<std::__ndk1::__variant_detail::__traits<geode::Hook*, std::__ndk1::basic_string<char, std::__ndk1::char_traits<char>, std::__ndk1::allocator<char> > >, (std::__ndk1::__variant_detail::_Trait)1>, std::__ndk1::__variant_detail::__base<(std::__ndk1::__variant_detail::__traits<geode::Hook*, std::__ndk1::basic_string<char, std::__ndk1::char_traits<char>, std::__ndk1::allocator<char> > >)1, geode::Hook, std::__ndk1::allocator<char> >&)
PUBLIC a9dc 0 std::__ndk1::__variant_detail::__visitation::__base::__dispatcher<(unsigned long)1>::__dispatch[abi:ne180000]<std::__ndk1::__variant_detail::__dtor<std::__ndk1::__variant_detail::__traits<geode::Hook*, std::__ndk1::basic_string<char, std::__ndk1::char_traits<char>, std::__ndk1::allocator<char> > >, (std::__ndk1::__variant_detail::_Trait)1>::__destroy[abi:ne180000]()::{lambda(auto:1&)#1}, std::__ndk1::__variant_detail::__base<(std::__ndk1::__variant_detail::__traits<geode::Hook*, std::__ndk1::basic_string<char, std::__ndk1::char_traits<char>, std::__ndk1::allocator<char> > >)1, geode::Hook, std::__ndk1::allocator<char> >&>(std::__ndk1::__variant_detail::__dtor<std::__ndk1::__variant_detail::__traits<geode::Hook*, std::__ndk1::basic_string<char, std::__ndk1::char_traits<char>, std::__ndk1::allocator<char> > >, (std::__ndk1::__variant_detail::_Trait)1>, std::__ndk1::__variant_detail::__base<(std::__ndk1::__variant_detail::__traits<geode::Hook*, std::__ndk1::basic_string<char, std::__ndk1::char_traits<char>, std::__ndk1::allocator<char> > >)1, geode::Hook, std::__ndk1::allocator<char> >&)
PUBLIC a9f0 0 std::__ndk1::__tree<std::__ndk1::__value_type<std::__ndk1::basic_string<char, std::__ndk1::char_traits<char>, std::__ndk1::allocator<char> >, std::__ndk1::shared_ptr<geode::Hook> >, std::__ndk1::__map_value_compare<std::__ndk1::basic_string<char, std::__ndk1::char_traits<char>, std::__ndk1::allocator<char> >, std::__ndk1::__value_type<std::__ndk1::basic_string<char, std::__ndk1::char_traits<char>, std::__ndk1::allocator<char> >, std::__ndk1::shared_ptr<geode::Hook> >, std::__ndk1::less<std::__ndk1::basic_string<char, std::__ndk1::char_traits<char>, std::__ndk1::allocator<char> > >, true>, std::__ndk1::allocator<std::__ndk1::__value_type<std::__ndk1::basic_string<char, std::__ndk1::char_traits<char>, std::__ndk1::allocator<char> >, std::__ndk1::shared_ptr<geode::Hook> > > >::destroy(std::__ndk1::__tree_node<std::__ndk1::__value_type<std::__ndk1::basic_string<char, std::__ndk1::char_traits<char>, std::__ndk1::allocator<char> >, std::__ndk1::shared_ptr<geode::Hook> >, void*>*)
PUBLIC aa74 0 geode::Hook::create<void (*)(MGMHook*)>(void*, void (*)(MGMHook*), std::__ndk1::basic_string<char, std::__ndk1::char_traits<char>, std::__ndk1::allocator<char> > const&, tulip::hook::TulipConvention, tulip::hook::HookMetadata const&)
PUBLIC abac 0 geode::modifier::AsStaticFunction_destroyPlayer<MGMHook, void (MGMHook::*)()>::Impl<void (MGMHook::*)()>::function(MGMHook*)
PUBLIC ae00 0 geode::modifier::AsStaticFunction_resetPlayer<MGMHook, void (MGMHook::*)()>::Impl<void (MGMHook::*)()>::function(MGMHook*)
PUBLIC af0c 0 std::__ndk1::shared_ptr<tulip::hook::CallingConvention>::~shared_ptr[abi:ne180000]()
PUBLIC af5c 0 tulip::hook::HandlerMetadata::~HandlerMetadata()
PUBLIC afc0 0 geode::cast::traverseTypeinfoFor(void*, geode::cast::ClassTypeinfoType const*, char const*)
PUBLIC b0b8 0 PlayerChooser::~PlayerChooser()
PUBLIC b15c 0 std::__ndk1::__tree<std::__ndk1::__value_type<std::__ndk1::basic_string<char, std::__ndk1::char_traits<char>, std::__ndk1::allocator<char> >, std::__ndk1::shared_ptr<geode::Hook> >, std::__ndk1::__map_value_compare<std::__ndk1::basic_string<char, std::__ndk1::char_traits<char>, std::__ndk1::allocator<char> >, std::__ndk1::__value_type<std::__ndk1::basic_string<char, std::__ndk1::char_traits<char>, std::__ndk1::allocator<char> >, std::__ndk1::shared_ptr<geode::Hook> >, std::__ndk1::less<std::__ndk1::basic_string<char, std::__ndk1::char_traits<char>, std::__ndk1::allocator<char> > >, true>, std::__ndk1::allocator<std::__ndk1::__value_type<std::__ndk1::basic_string<char, std::__ndk1::char_traits<char>, std::__ndk1::allocator<char> >, std::__ndk1::shared_ptr<geode::Hook> > > >::__emplace_unique_key_args<std::__ndk1::basic_string<char, std::__ndk1::char_traits<char>, std::__ndk1::allocator<char> >, std::__ndk1::piecewise_construct_t const&, std::__ndk1::tuple<std::__ndk1::basic_string<char, std::__ndk1::char_traits<char>, std::__ndk1::allocator<char> >&&>, std::__ndk1::tuple<> >(std::__ndk1::basic_string<char, std::__ndk1::char_traits<char>, std::__ndk1::allocator<char> > const&, std::__ndk1::piecewise_construct_t const&, std::__ndk1::tuple<std::__ndk1::basic_string<char, std::__ndk1::char_traits<char>, std::__ndk1::allocator<char> >&&>, std::__ndk1::tuple<>)
PUBLIC b470 0 PlayerChooser::next()
PUBLIC m d4fc 0 std::__ndk1::basic_ifstream<char, std::__ndk1::char_traits<char> >::~basic_ifstream()
PUBLIC d54c 0 std::__ndk1::__fs::filesystem::path::operator/=[abi:ne180000](std::__ndk1::__fs::filesystem::path const&)
PUBLIC d62c 0 std::__ndk1::basic_string<char, std::__ndk1::char_traits<char>, std::__ndk1::allocator<char> >::__assign_no_alias<true>(char const*, unsigned long)
PUBLIC d6d4 0 std::__ndk1::basic_string<char, std::__ndk1::char_traits<char>, std::__ndk1::allocator<char> >::__assign_no_alias<false>(char const*, unsigned long)
PUBLIC d7e0 0 _ZNSt6__ndk112basic_stringIcNS_11char_traitsIcEENS_9allocatorIcEEE6appendB8ne180000IPKcTnNS_9enable_ifIXsr31__has_forward_iterator_categoryIT_EE5valueEiE4typeELi0EEERS5_SA_SA_
PUBLIC dac8 0 std::__ndk1::basic_string<char, std::__ndk1::char_traits<char>, std::__ndk1::allocator<char> >::__assign_external(char const*, unsigned long)
PUBLIC dbec 0 _ZN3glz6detail9from_jsonIN13known_players10PlayerDataEE2opITnDaXtlNS_4optsELj10ELh0ELh1ELh1ELh1ELh0ELh0ELc32ELh3ELh1ELh0ELh1ELh0ELh0ELh0ELh0ELh0ELNS_15float_precisionE0ELh0ELh0ELh0ELh0ELh0ELh0ELh0ELh1ELh0ELh0ELh1ELh1ELj36EEETnNS_14string_literalEXtlNS8_ILm1EEEEERS3_TkNS_10is_contextERNS_7contextERPKcSF_EEvOT1_OT2_OT3_OT4_
PUBLIC eb0c 0 _ZN3glz6detail9parse_intImLb1EcmQsr3stdE13is_unsigned_vIT_EEEbRT2_RPKT1_
PUBLIC fb6c 0 std::__ndk1::vector<known_players::PlayerData, std::__ndk1::allocator<known_players::PlayerData> >::__throw_length_error[abi:ne180000]() const
PUBLIC fb80 0 std::__ndk1::vector<int, std::__ndk1::allocator<int> >::__throw_length_error[abi:ne180000]() const
PUBLIC fb94 0 std::__ndk1::vector<known_players::PlayerData, std::__ndk1::allocator<known_players::PlayerData> >::__throw_out_of_range[abi:ne180000]() const
PUBLIC fba0 0 geodeExecFunction285<(anonymous namespace)::ExecFuncUnique285>()::{lambda(known_players::events::NextIcon*)#1}::__invoke(known_players::events::NextIcon*)
PUBLIC fc70 0 std::__ndk1::__throw_bad_function_call[abi:ne180000]()
PUBLIC fca4 0 std::__ndk1::bad_function_call::~bad_function_call()
PUBLIC fcc8 0 geode::EventListener<geode::EventFilter<known_players::events::NextIcon> >::getPool() const
PUBLIC fccc 0 geode::EventListener<geode::EventFilter<known_players::events::NextIcon> >::handle(geode::Event*)
PUBLIC fe58 0 geode::EventListener<geode::EventFilter<known_players::events::NextIcon> >::~EventListener()
PUBLIC feb4 0 geode::EventListener<geode::EventFilter<known_players::events::NextIcon> >::~EventListener()
PUBLIC ff18 0 std::__ndk1::__function::__base<geode::ListenerResult(known_players::events::NextIcon*)>::~__base()
PUBLIC ff1c 0 std::__ndk1::__function::__func<geode::ListenerResult (*)(known_players::events::NextIcon*), std::__ndk1::allocator<geode::ListenerResult (*)(known_players::events::NextIcon*)>, geode::ListenerResult(known_players::events::NextIcon*)>::~__func()
PUBLIC ff20 0 std::__ndk1::__function::__func<geode::ListenerResult (*)(known_players::events::NextIcon*), std::__ndk1::allocator<geode::ListenerResult (*)(known_players::events::NextIcon*)>, geode::ListenerResult(known_players::events::NextIcon*)>::__clone() const
PUBLIC ff54 0 std::__ndk1::__function::__func<geode::ListenerResult (*)(known_players::events::NextIcon*), std::__ndk1::allocator<geode::ListenerResult (*)(known_players::events::NextIcon*)>, geode::ListenerResult(known_players::events::NextIcon*)>::__clone(std::__ndk1::__function::__base<geode::ListenerResult(known_players::events::NextIcon*)>*) const
PUBLIC ff68 0 std::__ndk1::__function::__func<geode::ListenerResult (*)(known_players::events::NextIcon*), std::__ndk1::allocator<geode::ListenerResult (*)(known_players::events::NextIcon*)>, geode::ListenerResult(known_players::events::NextIcon*)>::destroy()
PUBLIC ff6c 0 std::__ndk1::__function::__func<geode::ListenerResult (*)(known_players::events::NextIcon*), std::__ndk1::allocator<geode::ListenerResult (*)(known_players::events::NextIcon*)>, geode::ListenerResult(known_players::events::NextIcon*)>::destroy_deallocate()
PUBLIC ff70 0 std::__ndk1::__function::__func<geode::ListenerResult (*)(known_players::events::NextIcon*), std::__ndk1::allocator<geode::ListenerResult (*)(known_players::events::NextIcon*)>, geode::ListenerResult(known_players::events::NextIcon*)>::operator()(known_players::events::NextIcon*&&)
PUBLIC ff80 0 std::__ndk1::__function::__func<geode::ListenerResult (*)(known_players::events::NextIcon*), std::__ndk1::allocator<geode::ListenerResult (*)(known_players::events::NextIcon*)>, geode::ListenerResult(known_players::events::NextIcon*)>::target(std::type_info const&) const
PUBLIC ff9c 0 std::__ndk1::__function::__func<geode::ListenerResult (*)(known_players::events::NextIcon*), std::__ndk1::allocator<geode::ListenerResult (*)(known_players::events::NextIcon*)>, geode::ListenerResult(known_players::events::NextIcon*)>::target_type() const
PUBLIC ffa8 0 geodeExecFunction285<(anonymous namespace)::ExecFuncUnique285>()::{lambda(known_players::events::CurrentIcon*)#1}::__invoke(known_players::events::CurrentIcon*)
PUBLIC 10084 0 geode::EventListener<geode::EventFilter<known_players::events::CurrentIcon> >::getPool() const
PUBLIC 10088 0 geode::EventListener<geode::EventFilter<known_players::events::CurrentIcon> >::handle(geode::Event*)
PUBLIC 10214 0 geode::EventListener<geode::EventFilter<known_players::events::CurrentIcon> >::~EventListener()
PUBLIC 10270 0 geode::EventListener<geode::EventFilter<known_players::events::CurrentIcon> >::~EventListener()
PUBLIC 102d4 0 std::__ndk1::__function::__base<geode::ListenerResult(known_players::events::CurrentIcon*)>::~__base()
PUBLIC 102d8 0 std::__ndk1::__function::__func<geode::ListenerResult (*)(known_players::events::CurrentIcon*), std::__ndk1::allocator<geode::ListenerResult (*)(known_players::events::CurrentIcon*)>, geode::ListenerResult(known_players::events::CurrentIcon*)>::~__func()
PUBLIC 102dc 0 std::__ndk1::__function::__func<geode::ListenerResult (*)(known_players::events::CurrentIcon*), std::__ndk1::allocator<geode::ListenerResult (*)(known_players::events::CurrentIcon*)>, geode::ListenerResult(known_players::events::CurrentIcon*)>::__clone() const
PUBLIC 10310 0 std::__ndk1::__function::__func<geode::ListenerResult (*)(known_players::events::CurrentIcon*), std::__ndk1::allocator<geode::ListenerResult (*)(known_players::events::CurrentIcon*)>, geode::ListenerResult(known_players::events::CurrentIcon*)>::__clone(std::__ndk1::__function::__base<geode::ListenerResult(known_players::events::CurrentIcon*)>*) const
PUBLIC 10324 0 std::__ndk1::__function::__func<geode::ListenerResult (*)(known_players::events::CurrentIcon*), std::__ndk1::allocator<geode::ListenerResult (*)(known_players::events::CurrentIcon*)>, geode::ListenerResult(known_players::events::CurrentIcon*)>::destroy()
PUBLIC 10328 0 std::__ndk1::__function::__func<geode::ListenerResult (*)(known_players::events::CurrentIcon*), std::__ndk1::allocator<geode::ListenerResult (*)(known_players::events::CurrentIcon*)>, geode::ListenerResult(known_players::events::CurrentIcon*)>::destroy_deallocate()
PUBLIC 1032c 0 std::__ndk1::__function::__func<geode::ListenerResult (*)(known_players::events::CurrentIcon*), std::__ndk1::allocator<geode::ListenerResult (*)(known_players::events::CurrentIcon*)>, geode::ListenerResult(known_players::events::CurrentIcon*)>::operator()(known_players::events::CurrentIcon*&&)
PUBLIC 1033c 0 std::__ndk1::__function::__func<geode::ListenerResult (*)(known_players::events::CurrentIcon*), std::__ndk1::allocator<geode::ListenerResult (*)(known_players::events::CurrentIcon*)>, geode::ListenerResult(known_players::events::CurrentIcon*)>::target(std::type_info const&) const
PUBLIC 10358 0 std::__ndk1::__function::__func<geode::ListenerResult (*)(known_players::events::CurrentIcon*), std::__ndk1::allocator<geode::ListenerResult (*)(known_players::events::CurrentIcon*)>, geode::ListenerResult(known_players::events::CurrentIcon*)>::target_type() const
PUBLIC 10364 0 geodeExecFunction285<(anonymous namespace)::ExecFuncUnique285>()::{lambda(known_players::events::NextIconModifyPlayerObject*)#1}::__invoke(known_players::events::NextIconModifyPlayerObject*)
PUBLIC 103f0 0 geode::EventListener<geode::EventFilter<known_players::events::NextIconModifyPlayerObject> >::getPool() const
PUBLIC 103f4 0 geode::EventListener<geode::EventFilter<known_players::events::NextIconModifyPlayerObject> >::handle(geode::Event*)
PUBLIC 10580 0 geode::EventListener<geode::EventFilter<known_players::events::NextIconModifyPlayerObject> >::~EventListener()
PUBLIC 105dc 0 geode::EventListener<geode::EventFilter<known_players::events::NextIconModifyPlayerObject> >::~EventListener()
PUBLIC 10640 0 std::__ndk1::__function::__base<geode::ListenerResult(known_players::events::NextIconModifyPlayerObject*)>::~__base()
PUBLIC 10644 0 std::__ndk1::__function::__func<geode::ListenerResult (*)(known_players::events::NextIconModifyPlayerObject*), std::__ndk1::allocator<geode::ListenerResult (*)(known_players::events::NextIconModifyPlayerObject*)>, geode::ListenerResult(known_players::events::NextIconModifyPlayerObject*)>::~__func()
PUBLIC 10648 0 std::__ndk1::__function::__func<geode::ListenerResult (*)(known_players::events::NextIconModifyPlayerObject*), std::__ndk1::allocator<geode::ListenerResult (*)(known_players::events::NextIconModifyPlayerObject*)>, geode::ListenerResult(known_players::events::NextIconModifyPlayerObject*)>::__clone() const
PUBLIC 1067c 0 std::__ndk1::__function::__func<geode::ListenerResult (*)(known_players::events::NextIconModifyPlayerObject*), std::__ndk1::allocator<geode::ListenerResult (*)(known_players::events::NextIconModifyPlayerObject*)>, geode::ListenerResult(known_players::events::NextIconModifyPlayerObject*)>::__clone(std::__ndk1::__function::__base<geode::ListenerResult(known_players::events::NextIconModifyPlayerObject*)>*) const
PUBLIC 10690 0 std::__ndk1::__function::__func<geode::ListenerResult (*)(known_players::events::NextIconModifyPlayerObject*), std::__ndk1::allocator<geode::ListenerResult (*)(known_players::events::NextIconModifyPlayerObject*)>, geode::ListenerResult(known_players::events::NextIconModifyPlayerObject*)>::destroy()
PUBLIC 10694 0 std::__ndk1::__function::__func<geode::ListenerResult (*)(known_players::events::NextIconModifyPlayerObject*), std::__ndk1::allocator<geode::ListenerResult (*)(known_players::events::NextIconModifyPlayerObject*)>, geode::ListenerResult(known_players::events::NextIconModifyPlayerObject*)>::destroy_deallocate()
PUBLIC 10698 0 std::__ndk1::__function::__func<geode::ListenerResult (*)(known_players::events::NextIconModifyPlayerObject*), std::__ndk1::allocator<geode::ListenerResult (*)(known_players::events::NextIconModifyPlayerObject*)>, geode::ListenerResult(known_players::events::NextIconModifyPlayerObject*)>::operator()(known_players::events::NextIconModifyPlayerObject*&&)
PUBLIC 106a8 0 std::__ndk1::__function::__func<geode::ListenerResult (*)(known_players::events::NextIconModifyPlayerObject*), std::__ndk1::allocator<geode::ListenerResult (*)(known_players::events::NextIconModifyPlayerObject*)>, geode::ListenerResult(known_players::events::NextIconModifyPlayerObject*)>::target(std::type_info const&) const
PUBLIC 106c4 0 std::__ndk1::__function::__func<geode::ListenerResult (*)(known_players::events::NextIconModifyPlayerObject*), std::__ndk1::allocator<geode::ListenerResult (*)(known_players::events::NextIconModifyPlayerObject*)>, geode::ListenerResult(known_players::events::NextIconModifyPlayerObject*)>::target_type() const
PUBLIC 106d0 0 geodeExecFunction285<(anonymous namespace)::ExecFuncUnique285>()::{lambda(known_players::events::CurrentIconModifyPlayerObject*)#1}::__invoke(known_players::events::CurrentIconModifyPlayerObject*)
PUBLIC 1075c 0 geode::EventListener<geode::EventFilter<known_players::events::CurrentIconModifyPlayerObject> >::getPool() const
PUBLIC 10760 0 geode::EventListener<geode::EventFilter<known_players::events::CurrentIconModifyPlayerObject> >::handle(geode::Event*)
PUBLIC 108ec 0 geode::EventListener<geode::EventFilter<known_players::events::CurrentIconModifyPlayerObject> >::~EventListener()
PUBLIC 10948 0 geode::EventListener<geode::EventFilter<known_players::events::CurrentIconModifyPlayerObject> >::~EventListener()
PUBLIC 109ac 0 std::__ndk1::__function::__base<geode::ListenerResult(known_players::events::CurrentIconModifyPlayerObject*)>::~__base()
PUBLIC 109b0 0 std::__ndk1::__function::__func<geode::ListenerResult (*)(known_players::events::CurrentIconModifyPlayerObject*), std::__ndk1::allocator<geode::ListenerResult (*)(known_players::events::CurrentIconModifyPlayerObject*)>, geode::ListenerResult(known_players::events::CurrentIconModifyPlayerObject*)>::~__func()
PUBLIC 109b4 0 std::__ndk1::__function::__func<geode::ListenerResult (*)(known_players::events::CurrentIconModifyPlayerObject*), std::__ndk1::allocator<geode::ListenerResult (*)(known_players::events::CurrentIconModifyPlayerObject*)>, geode::ListenerResult(known_players::events::CurrentIconModifyPlayerObject*)>::__clone() const
PUBLIC 109e8 0 std::__ndk1::__function::__func<geode::ListenerResult (*)(known_players::events::CurrentIconModifyPlayerObject*), std::__ndk1::allocator<geode::ListenerResult (*)(known_players::events::CurrentIconModifyPlayerObject*)>, geode::ListenerResult(known_players::events::CurrentIconModifyPlayerObject*)>::__clone(std::__ndk1::__function::__base<geode::ListenerResult(known_players::events::CurrentIconModifyPlayerObject*)>*) const
PUBLIC 109fc 0 std::__ndk1::__function::__func<geode::ListenerResult (*)(known_players::events::CurrentIconModifyPlayerObject*), std::__ndk1::allocator<geode::ListenerResult (*)(known_players::events::CurrentIconModifyPlayerObject*)>, geode::ListenerResult(known_players::events::CurrentIconModifyPlayerObject*)>::destroy()
PUBLIC 10a00 0 std::__ndk1::__function::__func<geode::ListenerResult (*)(known_players::events::CurrentIconModifyPlayerObject*), std::__ndk1::allocator<geode::ListenerResult (*)(known_players::events::CurrentIconModifyPlayerObject*)>, geode::ListenerResult(known_players::events::CurrentIconModifyPlayerObject*)>::destroy_deallocate()
PUBLIC 10a04 0 std::__ndk1::__function::__func<geode::ListenerResult (*)(known_players::events::CurrentIconModifyPlayerObject*), std::__ndk1::allocator<geode::ListenerResult (*)(known_players::events::CurrentIconModifyPlayerObject*)>, geode::ListenerResult(known_players::events::CurrentIconModifyPlayerObject*)>::operator()(known_players::events::CurrentIconModifyPlayerObject*&&)
PUBLIC 10a14 0 std::__ndk1::__function::__func<geode::ListenerResult (*)(known_players::events::CurrentIconModifyPlayerObject*), std::__ndk1::allocator<geode::ListenerResult (*)(known_players::events::CurrentIconModifyPlayerObject*)>, geode::ListenerResult(known_players::events::CurrentIconModifyPlayerObject*)>::target(std::type_info const&) const
PUBLIC 10a30 0 std::__ndk1::__function::__func<geode::ListenerResult (*)(known_players::events::CurrentIconModifyPlayerObject*), std::__ndk1::allocator<geode::ListenerResult (*)(known_players::events::CurrentIconModifyPlayerObject*)>, geode::ListenerResult(known_players::events::CurrentIconModifyPlayerObject*)>::target_type() const
PUBLIC 10a3c 0 _GLOBAL__sub_I_main.cpp
PUBLIC m 10be0 0 geodeImplicitEntry
PUBLIC 10c20 0 <.plt ELF section in iandyhd3.known_players.android64.so>
STACK CFI INIT 75b0 10 .cfa: sp 0 +
STACK CFI INIT 75c0 8 .cfa: sp 0 +
STACK CFI INIT 75c8 8 .cfa: sp 0 +
STACK CFI INIT 75d0 14 .cfa: sp 0 +
STACK CFI INIT 75e4 1c .cfa: sp 0 +
STACK CFI INIT 7600 10 .cfa: sp 0 +
STACK CFI INIT 7610 30 .cfa: sp 0 +
STACK CFI INIT 7640 98 .cfa: sp 0 +
STACK CFI INIT 76d8 59c .cfa: sp 0 +
STACK CFI INIT 7c74 8c .cfa: sp 0 +
STACK CFI INIT 7d00 30 .cfa: sp 0 +
STACK CFI INIT 97c4 18 .cfa: sp 0 +
STACK CFI INIT 97dc 14 .cfa: sp 0 +
STACK CFI 97e0 .cfa: sp 16 +
STACK CFI 97e4 .cfa: x29 16 + .ra: .cfa -8 + ^ x29: .cfa -16 + ^
STACK CFI INIT 9840 30 .cfa: sp 0 +
STACK CFI 9844 .cfa: sp 32 +
STACK CFI 984c .cfa: x29 32 + x19: .cfa -16 + ^ .ra: .cfa -24 + ^ x29: .cfa -32 + ^
STACK CFI 9864 .cfa: sp 32 +
STACK CFI 986c .cfa: sp 0 +
STACK CFI INIT 9870 34 .cfa: sp 0 +
STACK CFI 9874 .cfa: sp 32 +
STACK CFI 987c .cfa: x29 32 + x19: .cfa -16 + ^ .ra: .cfa -24 + ^ x29: .cfa -32 + ^
STACK CFI INIT 98a4 10 .cfa: sp 0 +
STACK CFI 98a8 .cfa: sp 16 +
STACK CFI 98ac .cfa: x29 16 + .ra: .cfa -8 + ^ x29: .cfa -16 + ^
STACK CFI INIT 98b4 14 .cfa: sp 0 +
STACK CFI 98b8 .cfa: sp 16 +
STACK CFI 98bc .cfa: x29 16 + .ra: .cfa -8 + ^ x29: .cfa -16 + ^
STACK CFI INIT 98c8 c .cfa: sp 0 +
STACK CFI 98cc .cfa: sp 16 +
STACK CFI 98d0 .cfa: x29 16 + .ra: .cfa -8 + ^ x29: .cfa -16 + ^
STACK CFI INIT 991c 38 .cfa: sp 0 +
STACK CFI 9920 .cfa: sp 32 +
STACK CFI 9928 .cfa: x29 32 + x19: .cfa -16 + ^ .ra: .cfa -24 + ^ x29: .cfa -32 + ^
STACK CFI 9948 .cfa: sp 32 +
STACK CFI 9950 .cfa: sp 0 +
STACK CFI INIT 9954 200 .cfa: sp 0 +
STACK CFI INIT 9fc8 50 .cfa: sp 0 +
STACK CFI 9fcc .cfa: sp 32 +
STACK CFI 9fd4 .cfa: x29 32 + x19: .cfa -16 + ^ .ra: .cfa -24 + ^ x29: .cfa -32 + ^
STACK CFI 9fec .cfa: sp 32 +
STACK CFI 9ff4 .cfa: sp 0 +
STACK CFI 9ff8 .cfa: x29 32 +
STACK CFI a00c .cfa: sp 32 +
STACK CFI a014 .cfa: sp 0 +
STACK CFI INIT a08c 7c .cfa: sp 0 +
STACK CFI a090 .cfa: sp 48 +
STACK CFI a09c .cfa: x29 48 + x19: .cfa -8 + ^ x20: .cfa -16 + ^ x21: .cfa -32 + ^ .ra: .cfa -40 + ^ x29: .cfa -48 + ^
STACK CFI a0e8 .cfa: sp 48 +
STACK CFI a0f4 .cfa: sp 0 +
STACK CFI a0f8 .cfa: sp 48 +
STACK CFI a104 .cfa: sp 0 +
STACK CFI INIT a108 4 .cfa: sp 0 +
STACK CFI INIT a808 34 .cfa: sp 0 +
STACK CFI a80c .cfa: sp 16 +
STACK CFI a810 .cfa: x29 16 + .ra: .cfa -8 + ^ x29: .cfa -16 + ^
STACK CFI INIT a83c 80 .cfa: sp 0 +
STACK CFI a840 .cfa: sp 48 +
STACK CFI a84c .cfa: x29 48 + x19: .cfa -8 + ^ x20: .cfa -16 + ^ x21: .cfa -32 + ^ .ra: .cfa -40 + ^ x29: .cfa -48 + ^
STACK CFI a8ac .cfa: sp 48 +
STACK CFI a8b8 .cfa: sp 0 +
STACK CFI INIT a8bc 24 .cfa: sp 0 +
STACK CFI a8c0 .cfa: sp 32 +
STACK CFI a8c8 .cfa: x29 32 + x19: .cfa -16 + ^ .ra: .cfa -24 + ^ x29: .cfa -32 + ^
STACK CFI a8d4 .cfa: sp 32 +
STACK CFI a8dc .cfa: sp 0 +
STACK CFI INIT a8e0 7c .cfa: sp 0 +
STACK CFI a8e4 .cfa: sp 48 +
STACK CFI a8f0 .cfa: x29 48 + x19: .cfa -8 + ^ x20: .cfa -16 + ^ x21: .cfa -24 + ^ x22: .cfa -32 + ^ .ra: .cfa -40 + ^ x29: .cfa -48 + ^
STACK CFI a908 .cfa: sp 48 +
STACK CFI a914 .cfa: sp 0 +
STACK CFI a918 .cfa: x29 48 +
STACK CFI a948 .cfa: sp 48 +
STACK CFI a954 .cfa: sp 0 +
STACK CFI a958 .cfa: x29 48 +
STACK CFI INIT a95c 68 .cfa: sp 0 +
STACK CFI a960 .cfa: sp 32 +
STACK CFI a968 .cfa: x29 32 + x19: .cfa -8 + ^ x20: .cfa -16 + ^ .ra: .cfa -24 + ^ x29: .cfa -32 + ^
STACK CFI a980 .cfa: sp 32 +
STACK CFI a988 .cfa: sp 0 +
STACK CFI a98c .cfa: x29 32 +
STACK CFI a9b8 .cfa: sp 32 +
STACK CFI a9c0 .cfa: sp 0 +
STACK CFI INIT a9c4 14 .cfa: sp 0 +
STACK CFI a9c8 .cfa: sp 16 +
STACK CFI a9cc .cfa: x29 16 + .ra: .cfa -8 + ^ x29: .cfa -16 + ^
STACK CFI INIT a9d8 4 .cfa: sp 0 +
STACK CFI INIT a9dc 14 .cfa: sp 0 +
STACK CFI INIT a9f0 84 .cfa: sp 0 +
STACK CFI a9f8 .cfa: sp 32 +
STACK CFI aa00 .cfa: x29 32 + x19: .cfa -8 + ^ x20: .cfa -16 + ^ .ra: .cfa -24 + ^ x29: .cfa -32 + ^
STACK CFI aa40 .cfa: sp 32 +
STACK CFI aa48 .cfa: sp 0 +
STACK CFI aa50 .cfa: x29 32 +
STACK CFI INIT abac 254 .cfa: sp 0 +
STACK CFI abb0 .cfa: sp 96 +
STACK CFI abc8 .cfa: x29 56 + x19: .cfa -8 + ^ x20: .cfa -16 + ^ x21: .cfa -24 + ^ x22: .cfa -32 + ^ x23: .cfa -40 + ^ .ra: .cfa -48 + ^ x29: .cfa -56 + ^ v8: .cfa -64 + ^
STACK CFI ad50 .cfa: sp 96 +
STACK CFI ad68 .cfa: sp 0 +
STACK CFI ad6c .cfa: x29 56 +
STACK CFI ada8 .cfa: sp 96 +
STACK CFI adc0 .cfa: sp 0 +
STACK CFI adc4 .cfa: x29 56 +
STACK CFI INIT ae00 10c .cfa: sp 0 +
STACK CFI ae04 .cfa: sp 80 +
STACK CFI ae14 .cfa: x29 48 + x19: .cfa -8 + ^ x20: .cfa -16 + ^ x21: .cfa -32 + ^ .ra: .cfa -40 + ^ x29: .cfa -48 + ^
STACK CFI ae60 .cfa: sp 80 +
STACK CFI ae70 .cfa: sp 0 +
STACK CFI ae74 .cfa: x29 48 +
STACK CFI aebc .cfa: sp 80 +
STACK CFI aecc .cfa: sp 0 +
STACK CFI aed0 .cfa: x29 48 +
STACK CFI INIT af0c 50 .cfa: sp 0 +
STACK CFI af10 .cfa: sp 32 +
STACK CFI af18 .cfa: x29 32 + x19: .cfa -16 + ^ .ra: .cfa -24 + ^ x29: .cfa -32 + ^
STACK CFI af30 .cfa: sp 32 +
STACK CFI af38 .cfa: sp 0 +
STACK CFI af3c .cfa: x29 32 +
STACK CFI af50 .cfa: sp 32 +
STACK CFI af58 .cfa: sp 0 +
STACK CFI INIT af5c 64 .cfa: sp 0 +
STACK CFI af60 .cfa: sp 32 +
STACK CFI af68 .cfa: x29 32 + x19: .cfa -16 + ^ .ra: .cfa -24 + ^ x29: .cfa -32 + ^
STACK CFI af94 .cfa: sp 32 +
STACK CFI af9c .cfa: sp 0 +
STACK CFI afa0 .cfa: x29 32 +
STACK CFI afb4 .cfa: sp 32 +
STACK CFI afbc .cfa: sp 0 +
STACK CFI INIT afc0 f8 .cfa: sp 0 +
STACK CFI afc4 .cfa: sp 64 +
STACK CFI afd4 .cfa: x29 64 + x19: .cfa -8 + ^ x20: .cfa -16 + ^ x21: .cfa -24 + ^ x22: .cfa -32 + ^ x23: .cfa -48 + ^ .ra: .cfa -56 + ^ x29: .cfa -64 + ^
STACK CFI b030 .cfa: sp 64 +
STACK CFI b040 .cfa: sp 0 +
STACK CFI b044 .cfa: x29 64 +
STACK CFI b060 .cfa: sp 64 +
STACK CFI b070 .cfa: sp 0 +
STACK CFI b074 .cfa: x29 64 +
STACK CFI b0a4 .cfa: sp 64 +
STACK CFI b0b4 .cfa: sp 0 +
STACK CFI INIT b0b8 a4 .cfa: sp 0 +
STACK CFI b0bc .cfa: sp 48 +
STACK CFI b0c8 .cfa: x29 48 + x19: .cfa -8 + ^ x20: .cfa -16 + ^ x21: .cfa -32 + ^ .ra: .cfa -40 + ^ x29: .cfa -48 + ^
STACK CFI b138 .cfa: sp 48 +
STACK CFI b144 .cfa: sp 0 +
STACK CFI b148 .cfa: x29 48 +
STACK CFI b14c .cfa: sp 48 +
STACK CFI b158 .cfa: sp 0 +
STACK CFI INIT b15c 314 .cfa: sp 0 +
STACK CFI b160 .cfa: sp 96 +
STACK CFI b178 .cfa: x29 96 + x19: .cfa -8 + ^ x20: .cfa -16 + ^ x21: .cfa -24 + ^ x22: .cfa -32 + ^ x23: .cfa -40 + ^ x24: .cfa -48 + ^ x25: .cfa -56 + ^ x26: .cfa -64 + ^ x27: .cfa -80 + ^ .ra: .cfa -88 + ^ x29: .cfa -96 + ^
STACK CFI b434 .cfa: sp 96 +
STACK CFI b44c .cfa: sp 0 +
STACK CFI b450 .cfa: x29 96 +
STACK CFI INIT d4fc 50 .cfa: sp 0 +
STACK CFI d500 .cfa: sp 32 +
STACK CFI d508 .cfa: x29 32 + x19: .cfa -8 + ^ x20: .cfa -16 + ^ .ra: .cfa -24 + ^ x29: .cfa -32 + ^
STACK CFI d540 .cfa: sp 32 +
STACK CFI d548 .cfa: sp 0 +
STACK CFI INIT d54c e0 .cfa: sp 0 +
STACK CFI d550 .cfa: sp 32 +
STACK CFI d558 .cfa: x29 32 + x19: .cfa -8 + ^ x20: .cfa -16 + ^ .ra: .cfa -24 + ^ x29: .cfa -32 + ^
STACK CFI d598 .cfa: sp 32 +
STACK CFI d5a0 .cfa: sp 0 +
STACK CFI d5a4 .cfa: x29 32 +
STACK CFI d5e0 .cfa: sp 32 +
STACK CFI d5e8 .cfa: sp 0 +
STACK CFI d5ec .cfa: x29 32 +
STACK CFI d608 .cfa: sp 32 +
STACK CFI d610 .cfa: sp 0 +
STACK CFI d614 .cfa: x29 32 +
STACK CFI d620 .cfa: sp 32 +
STACK CFI d628 .cfa: sp 0 +
STACK CFI INIT d62c a8 .cfa: sp 0 +
STACK CFI d630 .cfa: sp 64 +
STACK CFI d640 .cfa: x29 64 + x19: .cfa -8 + ^ x20: .cfa -16 + ^ x21: .cfa -24 + ^ x22: .cfa -32 + ^ x23: .cfa -48 + ^ .ra: .cfa -56 + ^ x29: .cfa -64 + ^
STACK CFI d6bc .cfa: sp 64 +
STACK CFI d6cc .cfa: sp 0 +
STACK CFI d6d0 .cfa: x29 64 +
STACK CFI INIT d6d4 10c .cfa: sp 0 +
STACK CFI d6d8 .cfa: sp 64 +
STACK CFI d6e8 .cfa: x29 64 + x19: .cfa -8 + ^ x20: .cfa -16 + ^ x21: .cfa -24 + ^ x22: .cfa -32 + ^ x23: .cfa -40 + ^ x24: .cfa -48 + ^ .ra: .cfa -56 + ^ x29: .cfa -64 + ^
STACK CFI d7c8 .cfa: sp 64 +
STACK CFI d7d8 .cfa: sp 0 +
STACK CFI d7dc .cfa: x29 64 +
STACK CFI INIT dac8 124 .cfa: sp 0 +
STACK CFI dacc .cfa: sp 80 +
STACK CFI dae0 .cfa: x29 80 + x19: .cfa -8 + ^ x20: .cfa -16 + ^ x21: .cfa -24 + ^ x22: .cfa -32 + ^ x23: .cfa -40 + ^ x24: .cfa -48 + ^ x25: .cfa -64 + ^ .ra: .cfa -72 + ^ x29: .cfa -80 + ^
STACK CFI dbd0 .cfa: sp 80 +
STACK CFI dbe4 .cfa: sp 0 +
STACK CFI dbe8 .cfa: x29 80 +
STACK CFI INIT eb0c 1060 .cfa: sp 0 +
STACK CFI INIT fb6c 14 .cfa: sp 0 +
STACK CFI fb70 .cfa: sp 16 +
STACK CFI fb74 .cfa: x29 16 + .ra: .cfa -8 + ^ x29: .cfa -16 + ^
STACK CFI INIT fb80 14 .cfa: sp 0 +
STACK CFI fb84 .cfa: sp 16 +
STACK CFI fb88 .cfa: x29 16 + .ra: .cfa -8 + ^ x29: .cfa -16 + ^
STACK CFI INIT fb94 c .cfa: sp 0 +
STACK CFI fb98 .cfa: sp 16 +
STACK CFI fb9c .cfa: x29 16 + .ra: .cfa -8 + ^ x29: .cfa -16 + ^
STACK CFI INIT fba0 d0 .cfa: sp 0 +
STACK CFI fba4 .cfa: sp 64 +
STACK CFI fbb4 .cfa: x29 48 + x19: .cfa -8 + ^ x20: .cfa -16 + ^ x21: .cfa -32 + ^ .ra: .cfa -40 + ^ x29: .cfa -48 + ^
STACK CFI fc0c .cfa: sp 64 +
STACK CFI fc1c .cfa: sp 0 +
STACK CFI fc20 .cfa: x29 48 +
STACK CFI INIT fc70 34 .cfa: sp 0 +
STACK CFI fc74 .cfa: sp 16 +
STACK CFI fc78 .cfa: x29 16 + .ra: .cfa -8 + ^ x29: .cfa -16 + ^
STACK CFI INIT fca4 24 .cfa: sp 0 +
STACK CFI fca8 .cfa: sp 32 +
STACK CFI fcb0 .cfa: x29 32 + x19: .cfa -16 + ^ .ra: .cfa -24 + ^ x29: .cfa -32 + ^
STACK CFI fcbc .cfa: sp 32 +
STACK CFI fcc4 .cfa: sp 0 +
STACK CFI INIT fcc8 4 .cfa: sp 0 +
STACK CFI INIT fe58 5c .cfa: sp 0 +
STACK CFI fe5c .cfa: sp 32 +
STACK CFI fe64 .cfa: x29 32 + x19: .cfa -16 + ^ .ra: .cfa -24 + ^ x29: .cfa -32 + ^
STACK CFI fea8 .cfa: sp 32 +
STACK CFI feb0 .cfa: sp 0 +
STACK CFI INIT feb4 64 .cfa: sp 0 +
STACK CFI feb8 .cfa: sp 32 +
STACK CFI fec0 .cfa: x29 32 + x19: .cfa -16 + ^ .ra: .cfa -24 + ^ x29: .cfa -32 + ^
STACK CFI ff0c .cfa: sp 32 +
STACK CFI ff14 .cfa: sp 0 +
STACK CFI INIT ff18 4 .cfa: sp 0 +
STACK CFI INIT ff1c 4 .cfa: sp 0 +
STACK CFI INIT ff20 34 .cfa: sp 0 +
STACK CFI ff24 .cfa: sp 32 +
STACK CFI ff2c .cfa: x29 32 + x19: .cfa -16 + ^ .ra: .cfa -24 + ^ x29: .cfa -32 + ^
STACK CFI ff48 .cfa: sp 32 +
STACK CFI ff50 .cfa: sp 0 +
STACK CFI INIT ff54 14 .cfa: sp 0 +
STACK CFI INIT ff68 4 .cfa: sp 0 +
STACK CFI INIT ff6c 4 .cfa: sp 0 +
STACK CFI INIT ff70 10 .cfa: sp 0 +
STACK CFI INIT ff80 1c .cfa: sp 0 +
STACK CFI INIT ff9c c .cfa: sp 0 +
STACK CFI INIT ffa8 dc .cfa: sp 0 +
STACK CFI ffac .cfa: sp 64 +
STACK CFI ffbc .cfa: x29 48 + x19: .cfa -8 + ^ x20: .cfa -16 + ^ x21: .cfa -32 + ^ .ra: .cfa -40 + ^ x29: .cfa -48 + ^
STACK CFI 10010 .cfa: sp 64 +
STACK CFI 10020 .cfa: sp 0 +
STACK CFI 10024 .cfa: x29 48 +
STACK CFI INIT 10084 4 .cfa: sp 0 +
STACK CFI INIT 10214 5c .cfa: sp 0 +
STACK CFI 10218 .cfa: sp 32 +
STACK CFI 10220 .cfa: x29 32 + x19: .cfa -16 + ^ .ra: .cfa -24 + ^ x29: .cfa -32 + ^
STACK CFI 10264 .cfa: sp 32 +
STACK CFI 1026c .cfa: sp 0 +
STACK CFI INIT 10270 64 .cfa: sp 0 +
STACK CFI 10274 .cfa: sp 32 +
STACK CFI 1027c .cfa: x29 32 + x19: .cfa -16 + ^ .ra: .cfa -24 + ^ x29: .cfa -32 + ^
STACK CFI 102c8 .cfa: sp 32 +
STACK CFI 102d0 .cfa: sp 0 +
STACK CFI INIT 102d4 4 .cfa: sp 0 +
STACK CFI INIT 102d8 4 .cfa: sp 0 +
STACK CFI INIT 102dc 34 .cfa: sp 0 +
STACK CFI 102e0 .cfa: sp 32 +
STACK CFI 102e8 .cfa: x29 32 + x19: .cfa -16 + ^ .ra: .cfa -24 + ^ x29: .cfa -32 + ^
STACK CFI 10304 .cfa: sp 32 +
STACK CFI 1030c .cfa: sp 0 +
STACK CFI INIT 10310 14 .cfa: sp 0 +
STACK CFI INIT 10324 4 .cfa: sp 0 +
STACK CFI INIT 10328 4 .cfa: sp 0 +
STACK CFI INIT 1032c 10 .cfa: sp 0 +
STACK CFI INIT 1033c 1c .cfa: sp 0 +
STACK CFI INIT 10358 c .cfa: sp 0 +
STACK CFI INIT 10364 8c .cfa: sp 0 +
STACK CFI 10368 .cfa: sp 48 +
STACK CFI 10374 .cfa: x29 48 + x19: .cfa -8 + ^ x20: .cfa -16 + ^ x21: .cfa -32 + ^ .ra: .cfa -40 + ^ x29: .cfa -48 + ^
STACK CFI 103a8 .cfa: sp 48 +
STACK CFI 103b4 .cfa: sp 0 +
STACK CFI 103b8 .cfa: x29 48 +
STACK CFI INIT 103f0 4 .cfa: sp 0 +
STACK CFI INIT 10580 5c .cfa: sp 0 +
STACK CFI 10584 .cfa: sp 32 +
STACK CFI 1058c .cfa: x29 32 + x19: .cfa -16 + ^ .ra: .cfa -24 + ^ x29: .cfa -32 + ^
STACK CFI 105d0 .cfa: sp 32 +
STACK CFI 105d8 .cfa: sp 0 +
STACK CFI INIT 105dc 64 .cfa: sp 0 +
STACK CFI 105e0 .cfa: sp 32 +
STACK CFI 105e8 .cfa: x29 32 + x19: .cfa -16 + ^ .ra: .cfa -24 + ^ x29: .cfa -32 + ^
STACK CFI 10634 .cfa: sp 32 +
STACK CFI 1063c .cfa: sp 0 +
STACK CFI INIT 10640 4 .cfa: sp 0 +
STACK CFI INIT 10644 4 .cfa: sp 0 +
STACK CFI INIT 10648 34 .cfa: sp 0 +
STACK CFI 1064c .cfa: sp 32 +
STACK CFI 10654 .cfa: x29 32 + x19: .cfa -16 + ^ .ra: .cfa -24 + ^ x29: .cfa -32 + ^
STACK CFI 10670 .cfa: sp 32 +
STACK CFI 10678 .cfa: sp 0 +
STACK CFI INIT 1067c 14 .cfa: sp 0 +
STACK CFI INIT 10690 4 .cfa: sp 0 +
STACK CFI INIT 10694 4 .cfa: sp 0 +
STACK CFI INIT 10698 10 .cfa: sp 0 +
STACK CFI INIT 106a8 1c .cfa: sp 0 +
STACK CFI INIT 106c4 c .cfa: sp 0 +
STACK CFI INIT 106d0 8c .cfa: sp 0 +
STACK CFI 106d4 .cfa: sp 48 +
STACK CFI 106e0 .cfa: x29 48 + x19: .cfa -8 + ^ x20: .cfa -16 + ^ x21: .cfa -32 + ^ .ra: .cfa -40 + ^ x29: .cfa -48 + ^
STACK CFI 10714 .cfa: sp 48 +
STACK CFI 10720 .cfa: sp 0 +
STACK CFI 10724 .cfa: x29 48 +
STACK CFI INIT 1075c 4 .cfa: sp 0 +
STACK CFI INIT 108ec 5c .cfa: sp 0 +
STACK CFI 108f0 .cfa: sp 32 +
STACK CFI 108f8 .cfa: x29 32 + x19: .cfa -16 + ^ .ra: .cfa -24 + ^ x29: .cfa -32 + ^
STACK CFI 1093c .cfa: sp 32 +
STACK CFI 10944 .cfa: sp 0 +
STACK CFI INIT 10948 64 .cfa: sp 0 +
STACK CFI 1094c .cfa: sp 32 +
STACK CFI 10954 .cfa: x29 32 + x19: .cfa -16 + ^ .ra: .cfa -24 + ^ x29: .cfa -32 + ^
STACK CFI 109a0 .cfa: sp 32 +
STACK CFI 109a8 .cfa: sp 0 +
STACK CFI INIT 109ac 4 .cfa: sp 0 +
STACK CFI INIT 109b0 4 .cfa: sp 0 +
STACK CFI INIT 109b4 34 .cfa: sp 0 +
STACK CFI 109b8 .cfa: sp 32 +
STACK CFI 109c0 .cfa: x29 32 + x19: .cfa -16 + ^ .ra: .cfa -24 + ^ x29: .cfa -32 + ^
STACK CFI 109dc .cfa: sp 32 +
STACK CFI 109e4 .cfa: sp 0 +
STACK CFI INIT 109e8 14 .cfa: sp 0 +
STACK CFI INIT 109fc 4 .cfa: sp 0 +
STACK CFI INIT 10a00 4 .cfa: sp 0 +
STACK CFI INIT 10a04 10 .cfa: sp 0 +
STACK CFI INIT 10a14 1c .cfa: sp 0 +
STACK CFI INIT 10a30 c .cfa: sp 0 +
STACK CFI INIT 10be0 3c .cfa: sp 0 +
STACK CFI 10be4 .cfa: sp 32 +
STACK CFI 10bec .cfa: x29 32 + x19: .cfa -16 + ^ .ra: .cfa -24 + ^ x29: .cfa -32 + ^
STACK CFI 10bf8 .cfa: sp 32 +
STACK CFI 10c00 .cfa: sp 0 +
STACK CFI 10c04 .cfa: x29 32 +
STACK CFI 10c10 .cfa: sp 32 +
STACK CFI 10c18 .cfa: sp 0 +
STACK CFI INIT 7d30 b4 .cfa: sp 0 +
STACK CFI 7d34 .cfa: sp 64 +
STACK CFI 7d40 .cfa: x29 32 + x19: .cfa -8 + ^ x20: .cfa -16 + ^ .ra: .cfa -24 + ^ x29: .cfa -32 + ^
STACK CFI 7da4 .cfa: sp 64 +
STACK CFI 7db0 .cfa: sp 0 +
STACK CFI 7db4 .cfa: x29 32 +
STACK CFI INIT 7de4 e0c .cfa: sp 0 +
STACK CFI 7de8 .cfa: sp 192 +
STACK CFI 7e04 .cfa: x29 96 + x19: .cfa -8 + ^ x20: .cfa -16 + ^ x21: .cfa -24 + ^ x22: .cfa -32 + ^ x23: .cfa -40 + ^ x24: .cfa -48 + ^ x25: .cfa -56 + ^ x26: .cfa -64 + ^ x27: .cfa -72 + ^ x28: .cfa -80 + ^ .ra: .cfa -88 + ^ x29: .cfa -96 + ^
STACK CFI 88a0 .cfa: sp 192 +
STACK CFI 88bc .cfa: sp 0 +
STACK CFI 88c0 .cfa: x29 96 +
STACK CFI INIT 8bf0 bd4 .cfa: sp 0 +
STACK CFI 8bf4 .cfa: sp 240 +
STACK CFI 8c10 .cfa: x29 96 + x19: .cfa -8 + ^ x20: .cfa -16 + ^ x21: .cfa -24 + ^ x22: .cfa -32 + ^ x23: .cfa -40 + ^ x24: .cfa -48 + ^ x25: .cfa -56 + ^ x26: .cfa -64 + ^ x27: .cfa -72 + ^ x28: .cfa -80 + ^ .ra: .cfa -88 + ^ x29: .cfa -96 + ^
STACK CFI 8fec .cfa: sp 240 +
STACK CFI 9008 .cfa: sp 0 +
STACK CFI 900c .cfa: x29 96 +
STACK CFI 966c .cfa: sp 240 +
STACK CFI 9688 .cfa: sp 0 +
STACK CFI 968c .cfa: x29 96 +
STACK CFI INIT 97f0 50 .cfa: sp 0 +
STACK CFI 97f4 .cfa: sp 32 +
STACK CFI 97fc .cfa: x29 32 + x19: .cfa -8 + ^ x20: .cfa -16 + ^ .ra: .cfa -24 + ^ x29: .cfa -32 + ^
STACK CFI INIT 98d4 48 .cfa: sp 0 +
STACK CFI 98d8 .cfa: sp 32 +
STACK CFI 98e0 .cfa: x29 32 + x19: .cfa -8 + ^ x20: .cfa -16 + ^ .ra: .cfa -24 + ^ x29: .cfa -32 + ^
STACK CFI INIT 9b54 474 .cfa: sp 0 +
STACK CFI 9b58 .cfa: sp 176 +
STACK CFI 9b6c .cfa: x29 64 + x19: .cfa -8 + ^ x20: .cfa -16 + ^ x21: .cfa -24 + ^ x22: .cfa -32 + ^ x23: .cfa -40 + ^ x24: .cfa -48 + ^ .ra: .cfa -56 + ^ x29: .cfa -64 + ^
STACK CFI 9e74 .cfa: sp 176 +
STACK CFI 9e88 .cfa: sp 0 +
STACK CFI 9e8c .cfa: x29 64 +
STACK CFI INIT a018 74 .cfa: sp 0 +
STACK CFI a01c .cfa: sp 48 +
STACK CFI a028 .cfa: x29 32 + x19: .cfa -8 + ^ x20: .cfa -16 + ^ .ra: .cfa -24 + ^ x29: .cfa -32 + ^
STACK CFI a074 .cfa: sp 48 +
STACK CFI a080 .cfa: sp 0 +
STACK CFI a084 .cfa: x29 32 +
STACK CFI INIT a10c 6fc .cfa: sp 0 +
STACK CFI a110 .cfa: sp 496 +
STACK CFI a12c .cfa: x29 96 + x19: .cfa -8 + ^ x20: .cfa -16 + ^ x21: .cfa -24 + ^ x22: .cfa -32 + ^ x23: .cfa -40 + ^ x24: .cfa -48 + ^ x25: .cfa -56 + ^ x26: .cfa -64 + ^ x27: .cfa -72 + ^ x28: .cfa -80 + ^ .ra: .cfa -88 + ^ x29: .cfa -96 + ^
STACK CFI a6dc .cfa: sp 496 +
STACK CFI a6f8 .cfa: sp 0 +
STACK CFI a6fc .cfa: x29 96 +
STACK CFI INIT aa74 138 .cfa: sp 0 +
STACK CFI aa78 .cfa: sp 128 +
STACK CFI aa8c .cfa: x29 64 + x19: .cfa -8 + ^ x20: .cfa -16 + ^ x21: .cfa -24 + ^ x22: .cfa -32 + ^ x23: .cfa -40 + ^ x24: .cfa -48 + ^ .ra: .cfa -56 + ^ x29: .cfa -64 + ^
STACK CFI ab58 .cfa: sp 128 +
STACK CFI ab6c .cfa: sp 0 +
STACK CFI ab70 .cfa: x29 64 +
STACK CFI INIT b470 208c .cfa: sp 0 +
STACK CFI b474 .cfa: sp 96 +
STACK CFI b48c .cfa: x29 96 + x19: .cfa -8 + ^ x20: .cfa -16 + ^ x21: .cfa -24 + ^ x22: .cfa -32 + ^ x23: .cfa -40 + ^ x24: .cfa -48 + ^ x25: .cfa -56 + ^ x26: .cfa -64 + ^ x27: .cfa -72 + ^ x28: .cfa -80 + ^ .ra: .cfa -88 + ^ x29: .cfa -96 + ^
STACK CFI d1c0 .cfa: sp 96 +
STACK CFI d1d8 .cfa: sp 0 +
STACK CFI d1dc .cfa: x29 96 +
STACK CFI INIT d7e0 2e8 .cfa: sp 0 +
STACK CFI d7e4 .cfa: sp 128 +
STACK CFI d800 .cfa: x29 96 + x19: .cfa -8 + ^ x20: .cfa -16 + ^ x21: .cfa -24 + ^ x22: .cfa -32 + ^ x23: .cfa -40 + ^ x24: .cfa -48 + ^ x25: .cfa -56 + ^ x26: .cfa -64 + ^ x27: .cfa -72 + ^ x28: .cfa -80 + ^ .ra: .cfa -88 + ^ x29: .cfa -96 + ^
STACK CFI da64 .cfa: sp 128 +
STACK CFI da80 .cfa: sp 0 +
STACK CFI da84 .cfa: x29 96 +
STACK CFI INIT dbec f20 .cfa: sp 0 +
STACK CFI dbf0 .cfa: sp 96 +
STACK CFI dc08 .cfa: x29 96 + x19: .cfa -8 + ^ x20: .cfa -16 + ^ x21: .cfa -24 + ^ x22: .cfa -32 + ^ x23: .cfa -40 + ^ x24: .cfa -48 + ^ x25: .cfa -56 + ^ x26: .cfa -64 + ^ x27: .cfa -72 + ^ x28: .cfa -80 + ^ .ra: .cfa -88 + ^ x29: .cfa -96 + ^
STACK CFI ea48 .cfa: sp 96 +
STACK CFI ea60 .cfa: sp 0 +
STACK CFI ea64 .cfa: x29 96 +
STACK CFI INIT fccc 18c .cfa: sp 0 +
STACK CFI fcd0 .cfa: sp 128 +
STACK CFI fce0 .cfa: x29 48 + x19: .cfa -8 + ^ x20: .cfa -16 + ^ x21: .cfa -24 + ^ x22: .cfa -32 + ^ .ra: .cfa -40 + ^ x29: .cfa -48 + ^
STACK CFI fdf0 .cfa: sp 128 +
STACK CFI fe00 .cfa: sp 0 +
STACK CFI fe04 .cfa: x29 48 +
STACK CFI INIT 10088 18c .cfa: sp 0 +
STACK CFI 1008c .cfa: sp 128 +
STACK CFI 1009c .cfa: x29 48 + x19: .cfa -8 + ^ x20: .cfa -16 + ^ x21: .cfa -24 + ^ x22: .cfa -32 + ^ .ra: .cfa -40 + ^ x29: .cfa -48 + ^
STACK CFI 101ac .cfa: sp 128 +
STACK CFI 101bc .cfa: sp 0 +
STACK CFI 101c0 .cfa: x29 48 +
STACK CFI INIT 103f4 18c .cfa: sp 0 +
STACK CFI 103f8 .cfa: sp 128 +
STACK CFI 10408 .cfa: x29 48 + x19: .cfa -8 + ^ x20: .cfa -16 + ^ x21: .cfa -24 + ^ x22: .cfa -32 + ^ .ra: .cfa -40 + ^ x29: .cfa -48 + ^
STACK CFI 10518 .cfa: sp 128 +
STACK CFI 10528 .cfa: sp 0 +
STACK CFI 1052c .cfa: x29 48 +
STACK CFI INIT 10760 18c .cfa: sp 0 +
STACK CFI 10764 .cfa: sp 128 +
STACK CFI 10774 .cfa: x29 48 + x19: .cfa -8 + ^ x20: .cfa -16 + ^ x21: .cfa -24 + ^ x22: .cfa -32 + ^ .ra: .cfa -40 + ^ x29: .cfa -48 + ^
STACK CFI 10884 .cfa: sp 128 +
STACK CFI 10894 .cfa: sp 0 +
STACK CFI 10898 .cfa: x29 48 +
STACK CFI INIT 10a3c 1a4 .cfa: sp 0 +
STACK CFI 10a40 .cfa: sp 48 +
STACK CFI 10a4c .cfa: x29 48 + x19: .cfa -8 + ^ x20: .cfa -16 + ^ x21: .cfa -32 + ^ .ra: .cfa -40 + ^ x29: .cfa -48 + ^
STACK CFI 10b4c .cfa: sp 48 +
STACK CFI 10b58 .cfa: sp 0 +
STACK CFI 10b5c .cfa: x29 48 +
