MODULE Linux arm64 5249B1616A9D86C0A23695CE5288EF7E0 undefined0.editormusic.android64.so
INFO CODE_ID 61B149529D6AC086A23695CE5288EF7E5D9F3BA5
INFO GENERATOR mozilla/dump_syms 2.3.4
PUBLIC 3ae00 0 __on_dlclose
PUBLIC 3ae10 0 __emutls_unregister_key
PUBLIC 3ae18 0 __on_dlclose_late
PUBLIC 3ae20 0 __atexit_handler_wrapper
PUBLIC 3ae34 0 atexit
PUBLIC 3ae50 0 pthread_atfork
PUBLIC 3ae60 0 unwind_phase2
PUBLIC 3af94 0 _Unwind_Resume
PUBLIC 3b018 0 unwind_phase2_forced
PUBLIC m 3b10c 0 __unw_init_local
PUBLIC m 3b1b4 0 __unw_get_reg
PUBLIC 3b230 0 __unw_step_stage2
PUBLIC m 3b244 0 __unw_get_proc_info
PUBLIC m 3b284 0 __unw_resume
PUBLIC 3b2ac 0 libunwind::CFI_Parser<libunwind::LocalAddressSpace>::decodeFDE(libunwind::LocalAddressSpace&, unsigned long, libunwind::CFI_Parser<libunwind::LocalAddressSpace>::FDE_Info*, libunwind::CFI_Parser<libunwind::LocalAddressSpace>::CIE_Info*, bool)
PUBLIC 3b43c 0 libunwind::CFI_Parser<libunwind::LocalAddressSpace>::parseCIE(libunwind::LocalAddressSpace&, unsigned long, libunwind::CFI_Parser<libunwind::LocalAddressSpace>::CIE_Info*)
PUBLIC 3b704 0 libunwind::AbstractUnwindCursor::~AbstractUnwindCursor()
PUBLIC 3b70c 0 libunwind::UnwindCursor<libunwind::LocalAddressSpace, libunwind::Registers_arm64>::~UnwindCursor()
PUBLIC 3b714 0 libunwind::UnwindCursor<libunwind::LocalAddressSpace, libunwind::Registers_arm64>::validReg(int)
PUBLIC 3b758 0 libunwind::UnwindCursor<libunwind::LocalAddressSpace, libunwind::Registers_arm64>::getReg(int)
PUBLIC 3b840 0 libunwind::UnwindCursor<libunwind::LocalAddressSpace, libunwind::Registers_arm64>::setReg(int, unsigned long)
PUBLIC 3b928 0 libunwind::UnwindCursor<libunwind::LocalAddressSpace, libunwind::Registers_arm64>::validFloatReg(int)
PUBLIC 3b93c 0 libunwind::UnwindCursor<libunwind::LocalAddressSpace, libunwind::Registers_arm64>::getFloatReg(int)
PUBLIC 3b94c 0 libunwind::UnwindCursor<libunwind::LocalAddressSpace, libunwind::Registers_arm64>::setFloatReg(int, double)
PUBLIC 3b95c 0 libunwind::UnwindCursor<libunwind::LocalAddressSpace, libunwind::Registers_arm64>::step(bool)
PUBLIC 3ba4c 0 libunwind::UnwindCursor<libunwind::LocalAddressSpace, libunwind::Registers_arm64>::getInfo(unw_proc_info_t*)
PUBLIC 3ba90 0 libunwind::UnwindCursor<libunwind::LocalAddressSpace, libunwind::Registers_arm64>::jumpto()
PUBLIC 3ba9c 0 libunwind::UnwindCursor<libunwind::LocalAddressSpace, libunwind::Registers_arm64>::isSignalFrame()
PUBLIC 3baa8 0 libunwind::UnwindCursor<libunwind::LocalAddressSpace, libunwind::Registers_arm64>::getFunctionName(char*, unsigned long, unsigned long*)
PUBLIC 3bad4 0 libunwind::UnwindCursor<libunwind::LocalAddressSpace, libunwind::Registers_arm64>::setInfoBasedOnIPRegister(bool)
PUBLIC 3bd10 0 libunwind::UnwindCursor<libunwind::LocalAddressSpace, libunwind::Registers_arm64>::getRegisterName(int)
PUBLIC 3bd1c 0 libunwind::UnwindCursor<libunwind::LocalAddressSpace, libunwind::Registers_arm64>::stepThroughSigReturn(libunwind::Registers_arm64&)
PUBLIC 3be3c 0 libunwind::DwarfInstructions<libunwind::LocalAddressSpace, libunwind::Registers_arm64>::stepWithDwarf(libunwind::LocalAddressSpace&, unsigned long, unsigned long, libunwind::Registers_arm64&, bool&, bool)
PUBLIC 3c2d0 0 libunwind::CFI_Parser<libunwind::LocalAddressSpace>::parseFDEInstructions(libunwind::LocalAddressSpace&, libunwind::CFI_Parser<libunwind::LocalAddressSpace>::FDE_Info const&, libunwind::CFI_Parser<libunwind::LocalAddressSpace>::CIE_Info const&, unsigned long, int, libunwind::CFI_Parser<libunwind::LocalAddressSpace>::PrologInfo*)
PUBLIC 3ce48 0 libunwind::DwarfInstructions<libunwind::LocalAddressSpace, libunwind::Registers_arm64>::getCFA(libunwind::LocalAddressSpace&, libunwind::CFI_Parser<libunwind::LocalAddressSpace>::PrologInfo const&, libunwind::Registers_arm64 const&)
PUBLIC 3cf7c 0 libunwind::DwarfInstructions<libunwind::LocalAddressSpace, libunwind::Registers_arm64>::getSavedRegister(libunwind::LocalAddressSpace&, libunwind::Registers_arm64 const&, unsigned long, libunwind::CFI_Parser<libunwind::LocalAddressSpace>::RegisterLocation const&)
PUBLIC 3d18c 0 libunwind::LocalAddressSpace::getEncodedP(unsigned long&, unsigned long, unsigned char, unsigned long)
PUBLIC 3d518 0 libunwind::LocalAddressSpace::getULEB128(unsigned long&, unsigned long)
PUBLIC 3d6e0 0 libunwind::DwarfInstructions<libunwind::LocalAddressSpace, libunwind::Registers_arm64>::evaluateExpression(unsigned long, libunwind::LocalAddressSpace&, libunwind::Registers_arm64 const&, unsigned long)
PUBLIC 3e0a4 0 libunwind::UnwindCursor<libunwind::LocalAddressSpace, libunwind::Registers_arm64>::getInfoFromDwarfSection(unsigned long, libunwind::UnwindInfoSections const&, unsigned int)
PUBLIC 3e378 0 libunwind::findUnwindSectionsByPhdr(dl_phdr_info*, unsigned long, void*)
PUBLIC 3e4a8 0 libunwind::EHHeaderParser<libunwind::LocalAddressSpace>::decodeEHHdr(libunwind::LocalAddressSpace&, unsigned long, unsigned long, libunwind::EHHeaderParser<libunwind::LocalAddressSpace>::EHHeaderInfo&)
PUBLIC 3e5c8 0 libunwind::CFI_Parser<libunwind::LocalAddressSpace>::findFDE(libunwind::LocalAddressSpace&, unsigned long, unsigned long, unsigned long, unsigned long, libunwind::CFI_Parser<libunwind::LocalAddressSpace>::FDE_Info*, libunwind::CFI_Parser<libunwind::LocalAddressSpace>::CIE_Info*)
PUBLIC 3e790 0 libunwind::EHHeaderParser<libunwind::LocalAddressSpace>::findFDE(libunwind::LocalAddressSpace&, unsigned long, unsigned long, unsigned int, libunwind::CFI_Parser<libunwind::LocalAddressSpace>::FDE_Info*, libunwind::CFI_Parser<libunwind::LocalAddressSpace>::CIE_Info*)
PUBLIC 3e8f8 0 libunwind::EHHeaderParser<libunwind::LocalAddressSpace>::getTableEntrySize(unsigned char)
PUBLIC 3e9f4 0 libunwind::Registers_arm64::getRegisterName(int)
PUBLIC 3ea24 0 __libunwind_Registers_arm64_jumpto
PUBLIC m 3eab4 0 __unw_getcontext
PUBLIC 3eb50 0 __aarch64_ldadd8_acq_rel
PUBLIC 3eb80 0 init_have_lse_atomics
PUBLIC 3ec18 0 __init_cpu_features_constructor
PUBLIC 3eec4 0 __init_cpu_features
PUBLIC 3ef50 0 __aarch64_ldadd8_relax
PUBLIC 3ef80 0 __cxx_global_var_init
PUBLIC 3f034 0 AudioManager::get()
PUBLIC 3f0d4 0 AudioManager::~AudioManager()
PUBLIC 3f17c 0 AudioManager::AudioManager()
PUBLIC 3f320 0 std::__ndk1::vector<std::__ndk1::shared_ptr<AudioSource>, std::__ndk1::allocator<std::__ndk1::shared_ptr<AudioSource> > >::~vector[abi:ne190000]()
PUBLIC 3f3c8 0 std::__ndk1::deque<std::__ndk1::shared_ptr<AudioSource>, std::__ndk1::allocator<std::__ndk1::shared_ptr<AudioSource> > >::~deque[abi:ne190000]()
PUBLIC 3f584 0 AudioManager::init()
PUBLIC 3f5bc 0 AudioManager::populateSongs()
PUBLIC 3f9c4 0 AudioManager::populateSongsThread()
PUBLIC 3fe24 0 AudioManager::setupPreloadUIFromPath(std::__ndk1::__fs::filesystem::path)
PUBLIC 401f8 0 geode::Mod::getSettingValue<std::__ndk1::__fs::filesystem::path>(std::__ndk1::basic_string_view<char, std::__ndk1::char_traits<char> >) const
PUBLIC 4039c 0 AudioManager::populateSongsFromPath(std::__ndk1::__fs::filesystem::path)
PUBLIC 40acc 0 AudioManager::checkQueueLength()
PUBLIC 41188 0 AudioManager::checkSongPreload()
PUBLIC 41408 0 std::__ndk1::__fs::filesystem::directory_iterator::~directory_iterator[abi:ne190000]()
PUBLIC 41458 0 AudioManager::isValidAudioFile(std::__ndk1::__fs::filesystem::path)
PUBLIC 41894 0 AudioManager::populateAudioSourceInfo(std::__ndk1::shared_ptr<AudioSource>)
PUBLIC 42f58 0 std::__ndk1::shared_ptr<AudioSource>::~shared_ptr[abi:ne190000]()
PUBLIC 42fa8 0 _ZNSt6__ndk14pairIKNS_12basic_stringIcNS_11char_traitsIcEENS_9allocatorIcEEEES6_EC2B8ne190000IRA5_KcSC_TnNS_9enable_ifIXclsr10_CheckArgsE23__is_pair_constructibleIT_T0_EEEiE4typeELi0EEEOSE_OSF_
PUBLIC 43104 0 std::__ndk1::pair<std::__ndk1::basic_string<char, std::__ndk1::char_traits<char>, std::__ndk1::allocator<char> > const, std::__ndk1::basic_string<char, std::__ndk1::char_traits<char>, std::__ndk1::allocator<char> > >::~pair()
PUBLIC 43148 0 std::__ndk1::map<std::__ndk1::basic_string<char, std::__ndk1::char_traits<char>, std::__ndk1::allocator<char> >, std::__ndk1::basic_string<char, std::__ndk1::char_traits<char>, std::__ndk1::allocator<char> >, std::__ndk1::less<std::__ndk1::basic_string<char, std::__ndk1::char_traits<char>, std::__ndk1::allocator<char> > >, std::__ndk1::allocator<std::__ndk1::pair<std::__ndk1::basic_string<char, std::__ndk1::char_traits<char>, std::__ndk1::allocator<char> > const, std::__ndk1::basic_string<char, std::__ndk1::char_traits<char>, std::__ndk1::allocator<char> > > > >::map[abi:ne190000](std::initializer_list<std::__ndk1::pair<std::__ndk1::basic_string<char, std::__ndk1::char_traits<char>, std::__ndk1::allocator<char> > const, std::__ndk1::basic_string<char, std::__ndk1::char_traits<char>, std::__ndk1::allocator<char> > > >, std::__ndk1::less<std::__ndk1::basic_string<char, std::__ndk1::char_traits<char>, std::__ndk1::allocator<char> > > const&)
PUBLIC 43448 0 AudioManager::figureOutFallbackName(std::__ndk1::__fs::filesystem::path)
PUBLIC 43608 0 AudioManager::populateStringTag(FMOD_TAG, bool, std::__ndk1::shared_ptr<AudioSource>)
PUBLIC 43d24 0 AudioManager::filterNameThruRegex(std::__ndk1::basic_string<char, std::__ndk1::char_traits<char>, std::__ndk1::allocator<char> >)
PUBLIC 4449c 0 geode::log::NestScope::~NestScope()
PUBLIC 444c0 0 std::__ndk1::basic_regex<char, std::__ndk1::regex_traits<char> >::~basic_regex()
PUBLIC 44520 0 AudioManager::nextSong()
PUBLIC 44810 0 AudioManager::shouldAllowAudioFunctions()
PUBLIC 4484c 0 AudioManager::getCurrentSong()
PUBLIC 448ac 0 AudioManager::startPlayingCurrentSong()
PUBLIC 450c4 0 AudioManager::prevSong()
PUBLIC 4576c 0 AudioManager::rewind()
PUBLIC 45814 0 AudioManager::getCurrentSongPosition()
PUBLIC 45868 0 AudioManager::fastForward()
PUBLIC 459ac 0 AudioManager::getCurrentSongLength()
PUBLIC 45a58 0 AudioManager::togglePause()
PUBLIC 45a68 0 AudioManager::setPaused(bool)
PUBLIC 45b78 0 AudioManager::update(float)
PUBLIC 46594 0 AudioManager::exitEditor()
PUBLIC 4683c 0 geode::Mod::getSettingValue<bool>(std::__ndk1::basic_string_view<char, std::__ndk1::char_traits<char> >) const
PUBLIC 46968 0 AudioManager::updateLowPassFilter()
PUBLIC 46c70 0 AudioManager::enterEditor()
PUBLIC 46d20 0 geode::Mod::getSavedValue<bool>(std::__ndk1::basic_string_view<char, std::__ndk1::char_traits<char> >, bool const&)
PUBLIC 46efc 0 std::__ndk1::basic_string<char, std::__ndk1::char_traits<char>, std::__ndk1::allocator<char> >::__throw_length_error[abi:ne190000]() const
PUBLIC 46f10 0 std::__ndk1::__throw_length_error[abi:ne190000](char const*)
PUBLIC 46f60 0 std::length_error::length_error[abi:ne190000](char const*)
PUBLIC 46f90 0 std::__throw_bad_array_new_length([abi:ne190000], void)
PUBLIC 46fc4 0 __clang_call_terminate
PUBLIC 46fd4 0 std::__ndk1::vector<std::__ndk1::shared_ptr<AudioSource>, std::__ndk1::allocator<std::__ndk1::shared_ptr<AudioSource> > >::__throw_length_error[abi:ne190000]() const
PUBLIC 46fe8 0 std::__ndk1::vector<Easer, std::__ndk1::allocator<Easer> >::__throw_length_error[abi:ne190000]() const
PUBLIC 46ffc 0 std::__ndk1::basic_string<char, std::__ndk1::char_traits<char>, std::__ndk1::allocator<char> >::__init_copy_ctor_external(char const*, unsigned long)
PUBLIC 47090 0 std::__ndk1::basic_string<char, std::__ndk1::char_traits<char>, std::__ndk1::allocator<char> >::__throw_out_of_range[abi:ne190000]() const
PUBLIC 470a4 0 std::__ndk1::__throw_out_of_range[abi:ne190000](char const*)
PUBLIC 470f4 0 std::out_of_range::out_of_range[abi:ne190000](char const*)
PUBLIC 47124 0 std::__ndk1::shared_ptr<std::__ndk1::__empty_state<char> >::~shared_ptr[abi:ne190000]()
PUBLIC 47174 0 std::__ndk1::vector<Easer*, std::__ndk1::allocator<Easer*> >::__throw_length_error[abi:ne190000]() const
PUBLIC 47188 0 std::__ndk1::__split_buffer<std::__ndk1::shared_ptr<AudioSource>*, std::__ndk1::allocator<std::__ndk1::shared_ptr<AudioSource>*> >::~__split_buffer()
PUBLIC 471b8 0 std::__ndk1::deque<std::__ndk1::shared_ptr<AudioSource>, std::__ndk1::allocator<std::__ndk1::shared_ptr<AudioSource> > >::__add_back_capacity(unsigned long)
PUBLIC 47b84 0 std::__ndk1::__split_buffer<std::__ndk1::shared_ptr<AudioSource>*, std::__ndk1::allocator<std::__ndk1::shared_ptr<AudioSource>*> >::push_back(std::__ndk1::shared_ptr<AudioSource>*&&)
PUBLIC 47d0c 0 std::__ndk1::__split_buffer<std::__ndk1::shared_ptr<AudioSource>*, std::__ndk1::allocator<std::__ndk1::shared_ptr<AudioSource>*> >::push_front(std::__ndk1::shared_ptr<AudioSource>*&&)
PUBLIC 47e98 0 std::__ndk1::__thread_proxy[abi:ne190000]<std::__ndk1::tuple<std::__ndk1::unique_ptr<std::__ndk1::__thread_struct, std::__ndk1::default_delete<std::__ndk1::unique_ptr> >, void (AudioManager::*)(), std::__ndk1::unique_ptr<std::__ndk1::__thread_struct, std::__ndk1::default_delete<std::__ndk1::unique_ptr> >*> >(std::__ndk1::tuple<std::__ndk1::unique_ptr<std::__ndk1::__thread_struct, std::__ndk1::default_delete<std::__ndk1::unique_ptr> >, void (AudioManager::*)(), std::__ndk1::unique_ptr<std::__ndk1::__thread_struct, std::__ndk1::default_delete<std::__ndk1::unique_ptr> >*>)
PUBLIC 47f64 0 std::__ndk1::unique_ptr<std::__ndk1::tuple<std::__ndk1::unique_ptr<std::__ndk1::__thread_struct, std::__ndk1::default_delete<std::__ndk1::__thread_struct> >, void (AudioManager::*)(), AudioManager*>, std::__ndk1::default_delete<std::__ndk1::tuple<std::__ndk1::unique_ptr<std::__ndk1::__thread_struct, std::__ndk1::default_delete<std::__ndk1::__thread_struct> >, void (AudioManager::*)(), AudioManager*> > >::~unique_ptr[abi:ne190000]()
PUBLIC 47fb4 0 std::__ndk1::unique_ptr<std::__ndk1::__thread_struct, std::__ndk1::default_delete<std::__ndk1::__thread_struct> >::~unique_ptr[abi:ne190000]()
PUBLIC 47ff0 0 std::__ndk1::shared_ptr<geode::FileSettingV3>::~shared_ptr[abi:ne190000]()
PUBLIC 48040 0 geode::cast::traverseTypeinfoFor(void*, geode::cast::ClassTypeinfoType const*, char const*)
PUBLIC 48144 0 std::__ndk1::__function::__base<void ()>::~__base()
PUBLIC 48148 0 std::__ndk1::__function::__func<AudioManager::populateSongsThread()::$_0, std::__ndk1::allocator<AudioManager::populateSongsThread()::$_0>, void ()>::~__func()
PUBLIC 4814c 0 std::__ndk1::__function::__func<AudioManager::populateSongsThread()::$_0, std::__ndk1::allocator<AudioManager::populateSongsThread()::$_0>, void ()>::__clone() const
PUBLIC 48180 0 std::__ndk1::__function::__func<AudioManager::populateSongsThread()::$_0, std::__ndk1::allocator<AudioManager::populateSongsThread()::$_0>, void ()>::__clone(std::__ndk1::__function::__base<void ()>*) const
PUBLIC 48194 0 std::__ndk1::__function::__func<AudioManager::populateSongsThread()::$_0, std::__ndk1::allocator<AudioManager::populateSongsThread()::$_0>, void ()>::destroy()
PUBLIC 48198 0 std::__ndk1::__function::__func<AudioManager::populateSongsThread()::$_0, std::__ndk1::allocator<AudioManager::populateSongsThread()::$_0>, void ()>::destroy_deallocate()
PUBLIC 4819c 0 std::__ndk1::__function::__func<AudioManager::populateSongsThread()::$_0, std::__ndk1::allocator<AudioManager::populateSongsThread()::$_0>, void ()>::operator()()
PUBLIC 481c4 0 std::__ndk1::__function::__func<AudioManager::populateSongsThread()::$_0, std::__ndk1::allocator<AudioManager::populateSongsThread()::$_0>, void ()>::target(std::type_info const&) const
PUBLIC 481e0 0 std::__ndk1::__function::__func<AudioManager::populateSongsThread()::$_0, std::__ndk1::allocator<AudioManager::populateSongsThread()::$_0>, void ()>::target_type() const
PUBLIC 481ec 0 eclipse::events::SetRiftVariableEvent<long>::~SetRiftVariableEvent()
PUBLIC 48210 0 std::__ndk1::__shared_ptr_emplace<AudioSource, std::__ndk1::allocator<AudioSource> >::~__shared_ptr_emplace()
PUBLIC 48220 0 std::__ndk1::__shared_ptr_emplace<AudioSource, std::__ndk1::allocator<AudioSource> >::~__shared_ptr_emplace()
PUBLIC 48250 0 std::__ndk1::__shared_ptr_emplace<AudioSource, std::__ndk1::allocator<AudioSource> >::__on_zero_shared()
PUBLIC 48258 0 std::__ndk1::__shared_ptr_emplace<AudioSource, std::__ndk1::allocator<AudioSource> >::__on_zero_shared_weak()
PUBLIC 4825c 0 std::__ndk1::__function::__func<AudioManager::populateSongsFromPath(std::__ndk1::__fs::filesystem::path)::$_0, std::__ndk1::allocator<AudioManager::populateSongsFromPath(std::__ndk1::__fs::filesystem::path)::$_0>, void ()>::~__func()
PUBLIC 482b8 0 std::__ndk1::__function::__func<AudioManager::populateSongsFromPath(std::__ndk1::__fs::filesystem::path)::$_0, std::__ndk1::allocator<AudioManager::populateSongsFromPath(std::__ndk1::__fs::filesystem::path)::$_0>, void ()>::~__func()
PUBLIC 48324 0 std::__ndk1::__function::__func<AudioManager::populateSongsFromPath(std::__ndk1::__fs::filesystem::path)::$_0, std::__ndk1::allocator<AudioManager::populateSongsFromPath(std::__ndk1::__fs::filesystem::path)::$_0>, void ()>::__clone() const
PUBLIC 4837c 0 std::__ndk1::__function::__func<AudioManager::populateSongsFromPath(std::__ndk1::__fs::filesystem::path)::$_0, std::__ndk1::allocator<AudioManager::populateSongsFromPath(std::__ndk1::__fs::filesystem::path)::$_0>, void ()>::__clone(std::__ndk1::__function::__base<void ()>*) const
PUBLIC 483b8 0 std::__ndk1::__function::__func<AudioManager::populateSongsFromPath(std::__ndk1::__fs::filesystem::path)::$_0, std::__ndk1::allocator<AudioManager::populateSongsFromPath(std::__ndk1::__fs::filesystem::path)::$_0>, void ()>::destroy()
PUBLIC 48408 0 std::__ndk1::__function::__func<AudioManager::populateSongsFromPath(std::__ndk1::__fs::filesystem::path)::$_0, std::__ndk1::allocator<AudioManager::populateSongsFromPath(std::__ndk1::__fs::filesystem::path)::$_0>, void ()>::destroy_deallocate()
PUBLIC 48468 0 std::__ndk1::__function::__func<AudioManager::populateSongsFromPath(std::__ndk1::__fs::filesystem::path)::$_0, std::__ndk1::allocator<AudioManager::populateSongsFromPath(std::__ndk1::__fs::filesystem::path)::$_0>, void ()>::operator()()
PUBLIC 48524 0 std::__ndk1::__function::__func<AudioManager::populateSongsFromPath(std::__ndk1::__fs::filesystem::path)::$_0, std::__ndk1::allocator<AudioManager::populateSongsFromPath(std::__ndk1::__fs::filesystem::path)::$_0>, void ()>::target(std::type_info const&) const
PUBLIC 48540 0 std::__ndk1::__function::__func<AudioManager::populateSongsFromPath(std::__ndk1::__fs::filesystem::path)::$_0, std::__ndk1::allocator<AudioManager::populateSongsFromPath(std::__ndk1::__fs::filesystem::path)::$_0>, void ()>::target_type() const
PUBLIC 4854c 0 std::__ndk1::unique_ptr<std::__ndk1::__tree_node<std::__ndk1::__value_type<std::__ndk1::basic_string<char, std::__ndk1::char_traits<char>, std::__ndk1::allocator<char> >, std::__ndk1::basic_string<char, std::__ndk1::char_traits<char>, std::__ndk1::allocator<char> > >, void*>, std::__ndk1::__tree_node_destructor<std::__ndk1::allocator<std::__ndk1::__tree_node<std::__ndk1::__value_type<std::__ndk1::basic_string<char, std::__ndk1::char_traits<char>, std::__ndk1::allocator<char> >, std::__ndk1::basic_string<char, std::__ndk1::char_traits<char>, std::__ndk1::allocator<char> > >, void*> > > >::~unique_ptr[abi:ne190000]()
PUBLIC 485a8 0 std::__ndk1::__tree_balance_after_insert[abi:ne190000]<std::__ndk1::__tree_node_base<void*>*>(std::__ndk1::__tree_node_base<void*>*, std::__ndk1::__tree_node_base<void*>*)
PUBLIC 48750 0 std::__ndk1::__tree<std::__ndk1::__value_type<std::__ndk1::basic_string<char, std::__ndk1::char_traits<char>, std::__ndk1::allocator<char> >, std::__ndk1::basic_string<char, std::__ndk1::char_traits<char>, std::__ndk1::allocator<char> > >, std::__ndk1::__map_value_compare<std::__ndk1::basic_string<char, std::__ndk1::char_traits<char>, std::__ndk1::allocator<char> >, std::__ndk1::__value_type<std::__ndk1::basic_string<char, std::__ndk1::char_traits<char>, std::__ndk1::allocator<char> >, std::__ndk1::basic_string<char, std::__ndk1::char_traits<char>, std::__ndk1::allocator<char> > >, std::__ndk1::less<std::__ndk1::basic_string<char, std::__ndk1::char_traits<char>, std::__ndk1::allocator<char> > >, true>, std::__ndk1::allocator<std::__ndk1::__value_type<std::__ndk1::basic_string<char, std::__ndk1::char_traits<char>, std::__ndk1::allocator<char> >, std::__ndk1::basic_string<char, std::__ndk1::char_traits<char>, std::__ndk1::allocator<char> > > > >::destroy(std::__ndk1::__tree_node<std::__ndk1::__value_type<std::__ndk1::basic_string<char, std::__ndk1::char_traits<char>, std::__ndk1::allocator<char> >, std::__ndk1::basic_string<char, std::__ndk1::char_traits<char>, std::__ndk1::allocator<char> > >, void*>*)
PUBLIC 487c0 0 std::__ndk1::__tree<std::__ndk1::__value_type<std::__ndk1::basic_string<char, std::__ndk1::char_traits<char>, std::__ndk1::allocator<char> >, std::__ndk1::basic_string<char, std::__ndk1::char_traits<char>, std::__ndk1::allocator<char> > >, std::__ndk1::__map_value_compare<std::__ndk1::basic_string<char, std::__ndk1::char_traits<char>, std::__ndk1::allocator<char> >, std::__ndk1::__value_type<std::__ndk1::basic_string<char, std::__ndk1::char_traits<char>, std::__ndk1::allocator<char> >, std::__ndk1::basic_string<char, std::__ndk1::char_traits<char>, std::__ndk1::allocator<char> > >, std::__ndk1::less<std::__ndk1::basic_string<char, std::__ndk1::char_traits<char>, std::__ndk1::allocator<char> > >, true>, std::__ndk1::allocator<std::__ndk1::__value_type<std::__ndk1::basic_string<char, std::__ndk1::char_traits<char>, std::__ndk1::allocator<char> >, std::__ndk1::basic_string<char, std::__ndk1::char_traits<char>, std::__ndk1::allocator<char> > > > >::__emplace_unique_key_args<std::__ndk1::basic_string<char, std::__ndk1::char_traits<char>, std::__ndk1::allocator<char> >, std::__ndk1::piecewise_construct_t const&, std::__ndk1::tuple<std::__ndk1::basic_string<char, std::__ndk1::char_traits<char>, std::__ndk1::allocator<char> >&&>, std::__ndk1::tuple<> >(std::__ndk1::basic_string<char, std::__ndk1::char_traits<char>, std::__ndk1::allocator<char> > const&, std::__ndk1::piecewise_construct_t const&, std::__ndk1::tuple<std::__ndk1::basic_string<char, std::__ndk1::char_traits<char>, std::__ndk1::allocator<char> >&&>, std::__ndk1::tuple<>)
PUBLIC 48928 0 std::__ndk1::__function::__func<AudioManager::populateAlbumCover(std::__ndk1::shared_ptr<AudioSource>, FMOD_TAG)::$_0, std::__ndk1::allocator<AudioManager::populateAlbumCover(std::__ndk1::shared_ptr<AudioSource>, FMOD_TAG)::$_0>, void ()>::~__func()
PUBLIC 48984 0 std::__ndk1::__function::__func<AudioManager::populateAlbumCover(std::__ndk1::shared_ptr<AudioSource>, FMOD_TAG)::$_0, std::__ndk1::allocator<AudioManager::populateAlbumCover(std::__ndk1::shared_ptr<AudioSource>, FMOD_TAG)::$_0>, void ()>::~__func()
PUBLIC 489f0 0 std::__ndk1::__function::__func<AudioManager::populateAlbumCover(std::__ndk1::shared_ptr<AudioSource>, FMOD_TAG)::$_0, std::__ndk1::allocator<AudioManager::populateAlbumCover(std::__ndk1::shared_ptr<AudioSource>, FMOD_TAG)::$_0>, void ()>::__clone() const
PUBLIC 48a48 0 std::__ndk1::__function::__func<AudioManager::populateAlbumCover(std::__ndk1::shared_ptr<AudioSource>, FMOD_TAG)::$_0, std::__ndk1::allocator<AudioManager::populateAlbumCover(std::__ndk1::shared_ptr<AudioSource>, FMOD_TAG)::$_0>, void ()>::__clone(std::__ndk1::__function::__base<void ()>*) const
PUBLIC 48a94 0 std::__ndk1::__function::__func<AudioManager::populateAlbumCover(std::__ndk1::shared_ptr<AudioSource>, FMOD_TAG)::$_0, std::__ndk1::allocator<AudioManager::populateAlbumCover(std::__ndk1::shared_ptr<AudioSource>, FMOD_TAG)::$_0>, void ()>::destroy()
PUBLIC 48ae4 0 std::__ndk1::__function::__func<AudioManager::populateAlbumCover(std::__ndk1::shared_ptr<AudioSource>, FMOD_TAG)::$_0, std::__ndk1::allocator<AudioManager::populateAlbumCover(std::__ndk1::shared_ptr<AudioSource>, FMOD_TAG)::$_0>, void ()>::destroy_deallocate()
PUBLIC 48b44 0 std::__ndk1::__function::__func<AudioManager::populateAlbumCover(std::__ndk1::shared_ptr<AudioSource>, FMOD_TAG)::$_0, std::__ndk1::allocator<AudioManager::populateAlbumCover(std::__ndk1::shared_ptr<AudioSource>, FMOD_TAG)::$_0>, void ()>::operator()()
PUBLIC 48d20 0 std::__ndk1::__function::__func<AudioManager::populateAlbumCover(std::__ndk1::shared_ptr<AudioSource>, FMOD_TAG)::$_0, std::__ndk1::allocator<AudioManager::populateAlbumCover(std::__ndk1::shared_ptr<AudioSource>, FMOD_TAG)::$_0>, void ()>::target(std::type_info const&) const
PUBLIC 48d3c 0 std::__ndk1::__function::__func<AudioManager::populateAlbumCover(std::__ndk1::shared_ptr<AudioSource>, FMOD_TAG)::$_0, std::__ndk1::allocator<AudioManager::populateAlbumCover(std::__ndk1::shared_ptr<AudioSource>, FMOD_TAG)::$_0>, void ()>::target_type() const
PUBLIC 48d48 0 std::__ndk1::basic_regex<char, std::__ndk1::regex_traits<char> >::__parse<char const*>(char const*, char const*)
PUBLIC 4940c 0 std::__ndk1::__throw_regex_error[abi:ne190000]<(std::__ndk1::regex_constants::error_type)17>()
PUBLIC 49458 0 std::__ndk1::basic_regex<char, std::__ndk1::regex_traits<char> >::__parse_ecma_exp<char const*>(char const*, char const*)
PUBLIC 496c4 0 std::__ndk1::basic_regex<char, std::__ndk1::regex_traits<char> >::__parse_basic_reg_exp<char const*>(char const*, char const*)
PUBLIC 4986c 0 std::__ndk1::basic_regex<char, std::__ndk1::regex_traits<char> >::__parse_extended_reg_exp<char const*>(char const*, char const*)
PUBLIC 499dc 0 std::__ndk1::__throw_regex_error[abi:ne190000]<(std::__ndk1::regex_constants::error_type)14>()
PUBLIC 49a28 0 std::__ndk1::__end_state<char>::~__end_state()
PUBLIC 49a2c 0 std::__ndk1::__end_state<char>::__exec(std::__ndk1::__state<char>&) const
PUBLIC 49a38 0 std::__ndk1::__node<char>::__exec_split(bool, std::__ndk1::__state<char>&) const
PUBLIC 49a3c 0 std::__ndk1::__node<char>::__exec(std::__ndk1::__state<char>&) const
PUBLIC 49a40 0 std::__ndk1::__shared_ptr_pointer<std::__ndk1::__empty_state<char>*, std::__ndk1::shared_ptr<std::__ndk1::__empty_state<char> >::__shared_ptr_default_delete<std::__ndk1::__empty_state<char>, std::__ndk1::__empty_state<char> >, std::__ndk1::allocator<std::__ndk1::__empty_state<char> > >::~__shared_ptr_pointer()
PUBLIC 49a64 0 std::__ndk1::__shared_ptr_pointer<std::__ndk1::__empty_state<char>*, std::__ndk1::shared_ptr<std::__ndk1::__empty_state<char> >::__shared_ptr_default_delete<std::__ndk1::__empty_state<char>, std::__ndk1::__empty_state<char> >, std::__ndk1::allocator<std::__ndk1::__empty_state<char> > >::__on_zero_shared()
PUBLIC 49a7c 0 std::__ndk1::__shared_ptr_pointer<std::__ndk1::__empty_state<char>*, std::__ndk1::shared_ptr<std::__ndk1::__empty_state<char> >::__shared_ptr_default_delete<std::__ndk1::__empty_state<char>, std::__ndk1::__empty_state<char> >, std::__ndk1::allocator<std::__ndk1::__empty_state<char> > >::__get_deleter(std::type_info const&) const
PUBLIC 49a98 0 std::__ndk1::__shared_ptr_pointer<std::__ndk1::__empty_state<char>*, std::__ndk1::shared_ptr<std::__ndk1::__empty_state<char> >::__shared_ptr_default_delete<std::__ndk1::__empty_state<char>, std::__ndk1::__empty_state<char> >, std::__ndk1::allocator<std::__ndk1::__empty_state<char> > >::__on_zero_shared_weak()
PUBLIC 49a9c 0 std::__ndk1::__empty_state<char>::~__empty_state()
PUBLIC 49ae4 0 std::__ndk1::__empty_state<char>::__exec(std::__ndk1::__state<char>&) const
PUBLIC 49af8 0 std::__ndk1::__owns_one_state<char>::~__owns_one_state()
PUBLIC 49b40 0 std::__ndk1::basic_regex<char, std::__ndk1::regex_traits<char> >::__parse_assertion<char const*>(char const*, char const*)
PUBLIC 49ea4 0 std::__ndk1::basic_regex<char, std::__ndk1::regex_traits<char> >::__parse_atom<char const*>(char const*, char const*)
PUBLIC 4a4e8 0 std::__ndk1::basic_regex<char, std::__ndk1::regex_traits<char> >::__parse_ERE_dupl_symbol<char const*>(char const*, char const*, std::__ndk1::__owns_one_state<char>*, unsigned int, unsigned int)
PUBLIC 4a8dc 0 std::__ndk1::basic_regex<char, std::__ndk1::regex_traits<char> >::basic_regex[abi:ne190000]()
PUBLIC 4a948 0 std::__ndk1::basic_regex<char, std::__ndk1::regex_traits<char> >::__push_lookahead(std::__ndk1::basic_regex<char, std::__ndk1::regex_traits<char> > const&, bool, unsigned int)
PUBLIC 4a9fc 0 std::__ndk1::__throw_regex_error[abi:ne190000]<(std::__ndk1::regex_constants::error_type)6>()
PUBLIC 4aa48 0 std::__ndk1::__l_anchor_multiline<char>::~__l_anchor_multiline()
PUBLIC 4aa90 0 std::__ndk1::__l_anchor_multiline<char>::__exec(std::__ndk1::__state<char>&) const
PUBLIC 4aaf4 0 std::__ndk1::__r_anchor_multiline<char>::~__r_anchor_multiline()
PUBLIC 4ab3c 0 std::__ndk1::__r_anchor_multiline<char>::__exec(std::__ndk1::__state<char>&) const
PUBLIC 4ab90 0 std::__ndk1::__word_boundary<char, std::__ndk1::regex_traits<char> >::~__word_boundary()
PUBLIC 4abec 0 std::__ndk1::__word_boundary<char, std::__ndk1::regex_traits<char> >::~__word_boundary()
PUBLIC 4ac44 0 std::__ndk1::__word_boundary<char, std::__ndk1::regex_traits<char> >::__exec(std::__ndk1::__state<char>&) const
PUBLIC 4ad54 0 std::__ndk1::__lookahead<char, std::__ndk1::regex_traits<char> >::~__lookahead()
PUBLIC 4ade4 0 std::__ndk1::__lookahead<char, std::__ndk1::regex_traits<char> >::~__lookahead()
PUBLIC 4ae70 0 std::__ndk1::__lookahead<char, std::__ndk1::regex_traits<char> >::__exec(std::__ndk1::__state<char>&) const
PUBLIC 4b040 0 std::__ndk1::basic_regex<char, std::__ndk1::regex_traits<char> >::__match_at_start_ecma<std::__ndk1::allocator<std::__ndk1::sub_match<char const*> > >(char const*, char const*, std::__ndk1::match_results<char const*, std::__ndk1::allocator<std::__ndk1::sub_match<char const*> > >&, std::__ndk1::regex_constants::match_flag_type, bool) const
PUBLIC 4b48c 0 std::__ndk1::vector<std::__ndk1::sub_match<char const*>, std::__ndk1::allocator<std::__ndk1::sub_match<char const*> > >::assign(unsigned long, std::__ndk1::sub_match<char const*> const&)
PUBLIC 4b65c 0 std::__ndk1::vector<std::__ndk1::sub_match<char const*>, std::__ndk1::allocator<std::__ndk1::sub_match<char const*> > >::__throw_length_error[abi:ne190000]() const
PUBLIC 4b670 0 std::__ndk1::__state<char>::~__state()
PUBLIC 4b6b4 0 std::__ndk1::__throw_regex_error[abi:ne190000]<(std::__ndk1::regex_constants::error_type)12>()
PUBLIC 4b700 0 std::__ndk1::__state<char>::__state(std::__ndk1::__state<char> const&)
PUBLIC 4b870 0 std::__ndk1::__throw_regex_error[abi:ne190000]<(std::__ndk1::regex_constants::error_type)16>()
PUBLIC 4b8bc 0 std::__ndk1::vector<std::__ndk1::__state<char>, std::__ndk1::allocator<std::__ndk1::__state<char> > >::~vector[abi:ne190000]()
PUBLIC 4b954 0 std::__ndk1::vector<std::__ndk1::__state<char>, std::__ndk1::allocator<std::__ndk1::__state<char> > >::__push_back_slow_path<std::__ndk1::__state<char> >(std::__ndk1::__state<char>&&)
PUBLIC 4bb20 0 std::__ndk1::vector<std::__ndk1::__state<char>, std::__ndk1::allocator<std::__ndk1::__state<char> > >::__throw_length_error[abi:ne190000]() const
PUBLIC 4bb34 0 std::__ndk1::vector<std::__ndk1::sub_match<char const*>, std::__ndk1::allocator<std::__ndk1::sub_match<char const*> > >::__append(unsigned long, std::__ndk1::sub_match<char const*> const&)
PUBLIC 4bcbc 0 std::__ndk1::vector<std::__ndk1::pair<unsigned long, char const*>, std::__ndk1::allocator<std::__ndk1::pair<unsigned long, char const*> > >::__append(unsigned long)
PUBLIC 4bde4 0 std::__ndk1::vector<std::__ndk1::pair<unsigned long, char const*>, std::__ndk1::allocator<std::__ndk1::pair<unsigned long, char const*> > >::__throw_length_error[abi:ne190000]() const
PUBLIC 4bdf8 0 std::__ndk1::basic_regex<char, std::__ndk1::regex_traits<char> >::__parse_bracket_expression<char const*>(char const*, char const*)
PUBLIC 4cf0c 0 std::__ndk1::__throw_regex_error[abi:ne190000]<(std::__ndk1::regex_constants::error_type)11>()
PUBLIC 4cf58 0 std::__ndk1::__match_any_but_newline<char>::~__match_any_but_newline()
PUBLIC 4cfa0 0 std::__ndk1::__throw_regex_error[abi:ne190000]<(std::__ndk1::regex_constants::error_type)3>()
PUBLIC 4cfec 0 std::__ndk1::basic_regex<char, std::__ndk1::regex_traits<char> >::__parse_character_escape<char const*>(char const*, char const*, std::__ndk1::basic_string<char, std::__ndk1::char_traits<char>, std::__ndk1::allocator<char> >*)
PUBLIC 4d4f8 0 std::__ndk1::basic_regex<char, std::__ndk1::regex_traits<char> >::__push_char(char)
PUBLIC 4d638 0 std::__ndk1::__throw_regex_error[abi:ne190000]<(std::__ndk1::regex_constants::error_type)4>()
PUBLIC 4d684 0 std::__ndk1::basic_regex<char, std::__ndk1::regex_traits<char> >::__push_back_ref(int)
PUBLIC 4d74c 0 std::__ndk1::__match_char_icase<char, std::__ndk1::regex_traits<char> >::~__match_char_icase()
PUBLIC 4d7a8 0 std::__ndk1::__match_char_icase<char, std::__ndk1::regex_traits<char> >::~__match_char_icase()
PUBLIC 4d800 0 std::__ndk1::__match_char_icase<char, std::__ndk1::regex_traits<char> >::__exec(std::__ndk1::__state<char>&) const
PUBLIC 4d880 0 std::__ndk1::__match_char_collate<char, std::__ndk1::regex_traits<char> >::~__match_char_collate()
PUBLIC 4d8dc 0 std::__ndk1::__match_char_collate<char, std::__ndk1::regex_traits<char> >::~__match_char_collate()
PUBLIC 4d934 0 std::__ndk1::__match_char_collate<char, std::__ndk1::regex_traits<char> >::__exec(std::__ndk1::__state<char>&) const
PUBLIC 4d97c 0 std::__ndk1::__match_char<char>::~__match_char()
PUBLIC 4d9c4 0 std::__ndk1::__match_char<char>::__exec(std::__ndk1::__state<char>&) const
PUBLIC 4da0c 0 std::__ndk1::__back_ref_icase<char, std::__ndk1::regex_traits<char> >::~__back_ref_icase()
PUBLIC 4da68 0 std::__ndk1::__back_ref_icase<char, std::__ndk1::regex_traits<char> >::~__back_ref_icase()
PUBLIC 4dac0 0 std::__ndk1::__back_ref_icase<char, std::__ndk1::regex_traits<char> >::__exec(std::__ndk1::__state<char>&) const
PUBLIC 4dbb8 0 std::__ndk1::__back_ref_collate<char, std::__ndk1::regex_traits<char> >::~__back_ref_collate()
PUBLIC 4dc14 0 std::__ndk1::__back_ref_collate<char, std::__ndk1::regex_traits<char> >::~__back_ref_collate()
PUBLIC 4dc6c 0 std::__ndk1::__back_ref_collate<char, std::__ndk1::regex_traits<char> >::__exec(std::__ndk1::__state<char>&) const
PUBLIC 4dcf4 0 std::__ndk1::__back_ref<char>::~__back_ref()
PUBLIC 4dd3c 0 std::__ndk1::__back_ref<char>::__exec(std::__ndk1::__state<char>&) const
PUBLIC 4de04 0 std::__ndk1::__bracket_expression<char, std::__ndk1::regex_traits<char> >::__add_char[abi:ne190000](char)
PUBLIC 4df88 0 std::__ndk1::__bracket_expression<char, std::__ndk1::regex_traits<char> >::__bracket_expression[abi:ne190000](std::__ndk1::regex_traits<char> const&, std::__ndk1::__node<char>*, bool, bool, bool)
PUBLIC 4e160 0 std::__ndk1::vector<std::__ndk1::basic_string<char, std::__ndk1::char_traits<char>, std::__ndk1::allocator<char> >, std::__ndk1::allocator<std::__ndk1::basic_string<char, std::__ndk1::char_traits<char>, std::__ndk1::allocator<char> > > >::~vector[abi:ne190000]()
PUBLIC 4e1dc 0 std::__ndk1::vector<std::__ndk1::pair<std::__ndk1::basic_string<char, std::__ndk1::char_traits<char>, std::__ndk1::allocator<char> >, std::__ndk1::basic_string<char, std::__ndk1::char_traits<char>, std::__ndk1::allocator<char> > >, std::__ndk1::allocator<std::__ndk1::pair<std::__ndk1::basic_string<char, std::__ndk1::char_traits<char>, std::__ndk1::allocator<char> >, std::__ndk1::basic_string<char, std::__ndk1::char_traits<char>, std::__ndk1::allocator<char> > > > >::~vector[abi:ne190000]()
PUBLIC 4e288 0 std::__ndk1::__bracket_expression<char, std::__ndk1::regex_traits<char> >::~__bracket_expression()
PUBLIC 4e3dc 0 std::__ndk1::__bracket_expression<char, std::__ndk1::regex_traits<char> >::~__bracket_expression()
PUBLIC 4e400 0 std::__ndk1::__bracket_expression<char, std::__ndk1::regex_traits<char> >::__exec(std::__ndk1::__state<char>&) const
PUBLIC 4f034 0 std::__ndk1::pair<std::__ndk1::basic_string<char, std::__ndk1::char_traits<char>, std::__ndk1::allocator<char> >, std::__ndk1::basic_string<char, std::__ndk1::char_traits<char>, std::__ndk1::allocator<char> > >::~pair()
PUBLIC 4f078 0 std::__ndk1::basic_string<char, std::__ndk1::char_traits<char>, std::__ndk1::allocator<char> >::__assign_no_alias<true>(char const*, unsigned long)
PUBLIC 4f124 0 std::__ndk1::basic_string<char, std::__ndk1::char_traits<char>, std::__ndk1::allocator<char> >::__assign_no_alias<false>(char const*, unsigned long)
PUBLIC 4f260 0 std::__ndk1::regex_traits<char>::__transform_primary<char*>(char*, char*, char) const
PUBLIC 4f434 0 std::__ndk1::vector<char, std::__ndk1::allocator<char> >::__throw_length_error[abi:ne190000]() const
PUBLIC 4f448 0 std::__ndk1::__throw_regex_error[abi:ne190000]<(std::__ndk1::regex_constants::error_type)5>()
PUBLIC 4f494 0 std::__ndk1::basic_regex<char, std::__ndk1::regex_traits<char> >::__parse_class_escape<char const*>(char const*, char const*, std::__ndk1::basic_string<char, std::__ndk1::char_traits<char>, std::__ndk1::allocator<char> >&, std::__ndk1::__bracket_expression<char, std::__ndk1::regex_traits<char> >*)
PUBLIC 4f7a4 0 std::__ndk1::basic_regex<char, std::__ndk1::regex_traits<char> >::__parse_awk_escape<char const*>(char const*, char const*, std::__ndk1::basic_string<char, std::__ndk1::char_traits<char>, std::__ndk1::allocator<char> >*)
PUBLIC 4fc68 0 std::__ndk1::__bracket_expression<char, std::__ndk1::regex_traits<char> >::__add_digraph[abi:ne190000](char, char)
PUBLIC 4fe80 0 std::__ndk1::__throw_regex_error[abi:ne190000]<(std::__ndk1::regex_constants::error_type)1>()
PUBLIC 4fecc 0 std::__ndk1::regex_traits<char>::__lookup_collatename<char const*>(char const*, char const*, char) const
PUBLIC 50194 0 std::__ndk1::vector<std::__ndk1::basic_string<char, std::__ndk1::char_traits<char>, std::__ndk1::allocator<char> >, std::__ndk1::allocator<std::__ndk1::basic_string<char, std::__ndk1::char_traits<char>, std::__ndk1::allocator<char> > > >::__push_back_slow_path<std::__ndk1::basic_string<char, std::__ndk1::char_traits<char>, std::__ndk1::allocator<char> > const&>(std::__ndk1::basic_string<char, std::__ndk1::char_traits<char>, std::__ndk1::allocator<char> > const&)
PUBLIC 50344 0 std::__ndk1::__split_buffer<std::__ndk1::basic_string<char, std::__ndk1::char_traits<char>, std::__ndk1::allocator<char> >, std::__ndk1::allocator<std::__ndk1::basic_string<char, std::__ndk1::char_traits<char>, std::__ndk1::allocator<char> > >&>::~__split_buffer()
PUBLIC 503ac 0 std::__ndk1::vector<std::__ndk1::basic_string<char, std::__ndk1::char_traits<char>, std::__ndk1::allocator<char> >, std::__ndk1::allocator<std::__ndk1::basic_string<char, std::__ndk1::char_traits<char>, std::__ndk1::allocator<char> > > >::__throw_length_error[abi:ne190000]() const
PUBLIC 503c0 0 std::__ndk1::__throw_regex_error[abi:ne190000]<(std::__ndk1::regex_constants::error_type)2>()
PUBLIC 5040c 0 std::__ndk1::regex_traits<char>::transform<std::__ndk1::__wrap_iter<char*> >(std::__ndk1::__wrap_iter<char*>, std::__ndk1::__wrap_iter<char*>) const
PUBLIC 505d0 0 std::__ndk1::__throw_regex_error[abi:ne190000]<(std::__ndk1::regex_constants::error_type)9>()
PUBLIC 5061c 0 std::__ndk1::vector<std::__ndk1::pair<std::__ndk1::basic_string<char, std::__ndk1::char_traits<char>, std::__ndk1::allocator<char> >, std::__ndk1::basic_string<char, std::__ndk1::char_traits<char>, std::__ndk1::allocator<char> > >, std::__ndk1::allocator<std::__ndk1::pair<std::__ndk1::basic_string<char, std::__ndk1::char_traits<char>, std::__ndk1::allocator<char> >, std::__ndk1::basic_string<char, std::__ndk1::char_traits<char>, std::__ndk1::allocator<char> > > > >::__push_back_slow_path<std::__ndk1::pair<std::__ndk1::basic_string<char, std::__ndk1::char_traits<char>, std::__ndk1::allocator<char> >, std::__ndk1::basic_string<char, std::__ndk1::char_traits<char>, std::__ndk1::allocator<char> > > >(std::__ndk1::pair<std::__ndk1::basic_string<char, std::__ndk1::char_traits<char>, std::__ndk1::allocator<char> >, std::__ndk1::basic_string<char, std::__ndk1::char_traits<char>, std::__ndk1::allocator<char> > >&&)
PUBLIC 507c4 0 std::__ndk1::vector<std::__ndk1::pair<std::__ndk1::basic_string<char, std::__ndk1::char_traits<char>, std::__ndk1::allocator<char> >, std::__ndk1::basic_string<char, std::__ndk1::char_traits<char>, std::__ndk1::allocator<char> > >, std::__ndk1::allocator<std::__ndk1::pair<std::__ndk1::basic_string<char, std::__ndk1::char_traits<char>, std::__ndk1::allocator<char> >, std::__ndk1::basic_string<char, std::__ndk1::char_traits<char>, std::__ndk1::allocator<char> > > > >::__throw_length_error[abi:ne190000]() const
PUBLIC 507d8 0 std::__ndk1::vector<std::__ndk1::pair<char, char>, std::__ndk1::allocator<std::__ndk1::pair<char, char> > >::__throw_length_error[abi:ne190000]() const
PUBLIC 507ec 0 std::__ndk1::__begin_marked_subexpression<char>::~__begin_marked_subexpression()
PUBLIC 50834 0 std::__ndk1::__begin_marked_subexpression<char>::__exec(std::__ndk1::__state<char>&) const
PUBLIC 50864 0 std::__ndk1::__end_marked_subexpression<char>::~__end_marked_subexpression()
PUBLIC 508ac 0 std::__ndk1::__end_marked_subexpression<char>::__exec(std::__ndk1::__state<char>&) const
PUBLIC 508e4 0 std::__ndk1::basic_regex<char, std::__ndk1::regex_traits<char> >::__push_loop(unsigned long, unsigned long, std::__ndk1::__owns_one_state<char>*, unsigned long, unsigned long, bool)
PUBLIC 50a24 0 std::__ndk1::__throw_regex_error[abi:ne190000]<(std::__ndk1::regex_constants::error_type)8>()
PUBLIC 50a70 0 std::__ndk1::__throw_regex_error[abi:ne190000]<(std::__ndk1::regex_constants::error_type)7>()
PUBLIC 50abc 0 std::__ndk1::__loop<char>::~__loop()
PUBLIC 50b24 0 std::__ndk1::__loop<char>::__exec(std::__ndk1::__state<char>&) const
PUBLIC 50ce8 0 std::__ndk1::__loop<char>::__exec_split(bool, std::__ndk1::__state<char>&) const
PUBLIC 50dac 0 std::__ndk1::__owns_two_states<char>::~__owns_two_states()
PUBLIC 50e14 0 std::__ndk1::__repeat_one_loop<char>::~__repeat_one_loop()
PUBLIC 50e18 0 std::__ndk1::__repeat_one_loop<char>::__exec(std::__ndk1::__state<char>&) const
PUBLIC 50e2c 0 std::__ndk1::__owns_two_states<char>::~__owns_two_states()
PUBLIC 50e98 0 std::__ndk1::__alternate<char>::~__alternate()
PUBLIC 50f00 0 std::__ndk1::__alternate<char>::__exec(std::__ndk1::__state<char>&) const
PUBLIC 50f0c 0 std::__ndk1::__alternate<char>::__exec_split(bool, std::__ndk1::__state<char>&) const
PUBLIC 50f30 0 std::__ndk1::__node<char>::~__node()
PUBLIC 50f34 0 std::__ndk1::__empty_non_own_state<char>::~__empty_non_own_state()
PUBLIC 50f38 0 std::__ndk1::__empty_non_own_state<char>::__exec(std::__ndk1::__state<char>&) const
PUBLIC 50f4c 0 std::__ndk1::__throw_regex_error[abi:ne190000]<(std::__ndk1::regex_constants::error_type)15>()
PUBLIC 50f98 0 std::__ndk1::basic_regex<char, std::__ndk1::regex_traits<char> >::__parse_nondupl_RE<char const*>(char const*, char const*)
PUBLIC 51294 0 std::__ndk1::basic_regex<char, std::__ndk1::regex_traits<char> >::__parse_RE_dupl_symbol<char const*>(char const*, char const*, std::__ndk1::__owns_one_state<char>*, unsigned int, unsigned int)
PUBLIC 51504 0 std::__ndk1::__owns_one_state<char>::~__owns_one_state()
PUBLIC 51530 0 std::__ndk1::__match_any<char>::~__match_any()
PUBLIC 51578 0 std::__ndk1::__match_any<char>::__exec(std::__ndk1::__state<char>&) const
PUBLIC 515b8 0 std::__ndk1::basic_regex<char, std::__ndk1::regex_traits<char> >::__test_back_ref(char)
PUBLIC 51618 0 std::__ndk1::basic_regex<char, std::__ndk1::regex_traits<char> >::__parse_ERE_expression<char const*>(char const*, char const*)
PUBLIC 51964 0 std::__ndk1::basic_regex<char, std::__ndk1::regex_traits<char> >::__search<std::__ndk1::allocator<std::__ndk1::sub_match<char const*> > >(char const*, char const*, std::__ndk1::match_results<char const*, std::__ndk1::allocator<std::__ndk1::sub_match<char const*> > >&, std::__ndk1::regex_constants::match_flag_type) const
PUBLIC 51c6c 0 std::__ndk1::match_results<std::__ndk1::__wrap_iter<char const*>, std::__ndk1::allocator<std::__ndk1::sub_match<std::__ndk1::__wrap_iter<char const*> > > >::__assign[abi:ne190000]<char const*, std::__ndk1::allocator<std::__ndk1::sub_match<char const*> > >(std::__ndk1::__wrap_iter<char const*>, std::__ndk1::__wrap_iter<char const*>, std::__ndk1::match_results<char const*, std::__ndk1::allocator<std::__ndk1::sub_match<char const*> > > const&, bool)
PUBLIC 51f68 0 std::__ndk1::basic_regex<char, std::__ndk1::regex_traits<char> >::__match_at_start_posix_nosubs<std::__ndk1::allocator<std::__ndk1::sub_match<char const*> > >(char const*, char const*, std::__ndk1::match_results<char const*, std::__ndk1::allocator<std::__ndk1::sub_match<char const*> > >&, std::__ndk1::regex_constants::match_flag_type, bool) const
PUBLIC 52e1c 0 std::__ndk1::basic_regex<char, std::__ndk1::regex_traits<char> >::__match_at_start_posix_subs<std::__ndk1::allocator<std::__ndk1::sub_match<char const*> > >(char const*, char const*, std::__ndk1::match_results<char const*, std::__ndk1::allocator<std::__ndk1::sub_match<char const*> > >&, std::__ndk1::regex_constants::match_flag_type, bool) const
PUBLIC 53804 0 std::__ndk1::deque<std::__ndk1::__state<char>, std::__ndk1::allocator<std::__ndk1::__state<char> > >::~deque[abi:ne190000]()
PUBLIC 539cc 0 std::__ndk1::deque<std::__ndk1::__state<char>, std::__ndk1::allocator<std::__ndk1::__state<char> > >::__add_back_capacity()
PUBLIC 53fa4 0 std::__ndk1::__split_buffer<std::__ndk1::__state<char>*, std::__ndk1::allocator<std::__ndk1::__state<char>*> >::push_back(std::__ndk1::__state<char>*&&)
PUBLIC 5412c 0 std::__ndk1::__split_buffer<std::__ndk1::__state<char>*, std::__ndk1::allocator<std::__ndk1::__state<char>*> >::push_front(std::__ndk1::__state<char>*&&)
PUBLIC 542b8 0 std::__ndk1::__split_buffer<std::__ndk1::__state<char>*, std::__ndk1::allocator<std::__ndk1::__state<char>*> >::push_front(std::__ndk1::__state<char>* const&)
PUBLIC 54444 0 std::__ndk1::vector<std::__ndk1::sub_match<std::__ndk1::__wrap_iter<char const*> >, std::__ndk1::allocator<std::__ndk1::sub_match<std::__ndk1::__wrap_iter<char const*> > > >::__throw_length_error[abi:ne190000]() const
PUBLIC 54458 0 std::__ndk1::deque<std::__ndk1::shared_ptr<AudioSource>, std::__ndk1::allocator<std::__ndk1::shared_ptr<AudioSource> > >::__add_back_capacity()
PUBLIC 54a30 0 std::__ndk1::__split_buffer<std::__ndk1::shared_ptr<AudioSource>*, std::__ndk1::allocator<std::__ndk1::shared_ptr<AudioSource>*> >::push_front(std::__ndk1::shared_ptr<AudioSource>* const&)
PUBLIC 54bbc 0 geode::Mod::getSavedValue<bool>(std::__ndk1::basic_string_view<char, std::__ndk1::char_traits<char> >)
PUBLIC 54d44 0 geode::impl::ResultData<matjson::Value&, std::__ndk1::basic_string<char, std::__ndk1::char_traits<char>, std::__ndk1::allocator<char> > >::~ResultData()
PUBLIC 54db8 0 std::__ndk1::__throw_bad_variant_access[abi:ne190000]()
PUBLIC 54dec 0 std::__ndk1::__variant_detail::__visitation::__base::__dispatcher<(unsigned long)0>::__dispatch[abi:ne190000]<std::__ndk1::__variant_detail::__dtor<std::__ndk1::__variant_detail::__traits<std::__ndk1::reference_wrapper<matjson::Value>, std::__ndk1::basic_string<char, std::__ndk1::char_traits<char>, std::__ndk1::allocator<char> > >, (std::__ndk1::__variant_detail::_Trait)1>::__destroy[abi:ne190000]()::{lambda(auto:1&)#1}, std::__ndk1::__variant_detail::__base<(std::__ndk1::__variant_detail::__traits<std::__ndk1::reference_wrapper<matjson::Value>, std::__ndk1::basic_string<char, std::__ndk1::char_traits<char>, std::__ndk1::allocator<char> > >)1, matjson::Value, std::__ndk1::allocator<char> >&>(std::__ndk1::__variant_detail::__dtor<std::__ndk1::__variant_detail::__traits<std::__ndk1::reference_wrapper<matjson::Value>, std::__ndk1::basic_string<char, std::__ndk1::char_traits<char>, std::__ndk1::allocator<char> > >, (std::__ndk1::__variant_detail::_Trait)1>, std::__ndk1::__variant_detail::__base<(std::__ndk1::__variant_detail::__traits<std::__ndk1::reference_wrapper<matjson::Value>, std::__ndk1::basic_string<char, std::__ndk1::char_traits<char>, std::__ndk1::allocator<char> > >)1, matjson::Value, std::__ndk1::allocator<char> >&)
PUBLIC 54df0 0 std::__ndk1::__variant_detail::__visitation::__base::__dispatcher<(unsigned long)1>::__dispatch[abi:ne190000]<std::__ndk1::__variant_detail::__dtor<std::__ndk1::__variant_detail::__traits<std::__ndk1::reference_wrapper<matjson::Value>, std::__ndk1::basic_string<char, std::__ndk1::char_traits<char>, std::__ndk1::allocator<char> > >, (std::__ndk1::__variant_detail::_Trait)1>::__destroy[abi:ne190000]()::{lambda(auto:1&)#1}, std::__ndk1::__variant_detail::__base<(std::__ndk1::__variant_detail::__traits<std::__ndk1::reference_wrapper<matjson::Value>, std::__ndk1::basic_string<char, std::__ndk1::char_traits<char>, std::__ndk1::allocator<char> > >)1, matjson::Value, std::__ndk1::allocator<char> >&>(std::__ndk1::__variant_detail::__dtor<std::__ndk1::__variant_detail::__traits<std::__ndk1::reference_wrapper<matjson::Value>, std::__ndk1::basic_string<char, std::__ndk1::char_traits<char>, std::__ndk1::allocator<char> > >, (std::__ndk1::__variant_detail::_Trait)1>, std::__ndk1::__variant_detail::__base<(std::__ndk1::__variant_detail::__traits<std::__ndk1::reference_wrapper<matjson::Value>, std::__ndk1::basic_string<char, std::__ndk1::char_traits<char>, std::__ndk1::allocator<char> > >)1, matjson::Value, std::__ndk1::allocator<char> >&)
PUBLIC 54e04 0 std::__ndk1::__variant_detail::__visitation::__base::__dispatcher<(unsigned long)0>::__dispatch[abi:ne190000]<std::__ndk1::__variant_detail::__dtor<std::__ndk1::__variant_detail::__traits<bool, std::__ndk1::basic_string<char, std::__ndk1::char_traits<char>, std::__ndk1::allocator<char> > >, (std::__ndk1::__variant_detail::_Trait)1>::__destroy[abi:ne190000]()::{lambda(auto:1&)#1}, std::__ndk1::__variant_detail::__base<(std::__ndk1::__variant_detail::__traits<bool, std::__ndk1::basic_string<char, std::__ndk1::char_traits<char>, std::__ndk1::allocator<char> > >)1, bool, std::__ndk1::allocator<char> >&>(std::__ndk1::__variant_detail::__dtor<std::__ndk1::__variant_detail::__traits<bool, std::__ndk1::basic_string<char, std::__ndk1::char_traits<char>, std::__ndk1::allocator<char> > >, (std::__ndk1::__variant_detail::_Trait)1>, std::__ndk1::__variant_detail::__base<(std::__ndk1::__variant_detail::__traits<bool, std::__ndk1::basic_string<char, std::__ndk1::char_traits<char>, std::__ndk1::allocator<char> > >)1, bool, std::__ndk1::allocator<char> >&)
PUBLIC 54e08 0 std::__ndk1::__variant_detail::__visitation::__base::__dispatcher<(unsigned long)1>::__dispatch[abi:ne190000]<std::__ndk1::__variant_detail::__dtor<std::__ndk1::__variant_detail::__traits<bool, std::__ndk1::basic_string<char, std::__ndk1::char_traits<char>, std::__ndk1::allocator<char> > >, (std::__ndk1::__variant_detail::_Trait)1>::__destroy[abi:ne190000]()::{lambda(auto:1&)#1}, std::__ndk1::__variant_detail::__base<(std::__ndk1::__variant_detail::__traits<bool, std::__ndk1::basic_string<char, std::__ndk1::char_traits<char>, std::__ndk1::allocator<char> > >)1, bool, std::__ndk1::allocator<char> >&>(std::__ndk1::__variant_detail::__dtor<std::__ndk1::__variant_detail::__traits<bool, std::__ndk1::basic_string<char, std::__ndk1::char_traits<char>, std::__ndk1::allocator<char> > >, (std::__ndk1::__variant_detail::_Trait)1>, std::__ndk1::__variant_detail::__base<(std::__ndk1::__variant_detail::__traits<bool, std::__ndk1::basic_string<char, std::__ndk1::char_traits<char>, std::__ndk1::allocator<char> > >)1, bool, std::__ndk1::allocator<char> >&)
PUBLIC 54e1c 0 _ZN7eclipse5label11setVariableITkNS0_13SupportedTypeENSt6__ndk112basic_stringIcNS2_11char_traitsIcEENS2_9allocatorIcEEEEEEvNS2_17basic_string_viewIcS5_EET_
PUBLIC 54f70 0 eclipse::events::SetRiftVariableEvent<std::__ndk1::basic_string<char, std::__ndk1::char_traits<char>, std::__ndk1::allocator<char> > >::~SetRiftVariableEvent()
PUBLIC 54fa4 0 eclipse::events::SetRiftVariableEvent<std::__ndk1::basic_string<char, std::__ndk1::char_traits<char>, std::__ndk1::allocator<char> > >::~SetRiftVariableEvent()
PUBLIC 54fdc 0 AudioSource::AudioSource(std::__ndk1::__fs::filesystem::path)
PUBLIC 55068 0 AudioSource::~AudioSource()
PUBLIC 550dc 0 AudioSource::loadAudioThreaded()
PUBLIC 55174 0 AudioSource::loadAudio()
PUBLIC 552c8 0 _ZNSt6__ndk16threadC2IM11AudioSourceFvvEJPS2_ETnNS_9enable_ifIXntsr7is_sameIu14__remove_cvrefIT_ES0_EE5valueEiE4typeELi0EEEOS7_DpOT0_
PUBLIC 553d4 0 AudioSource::getCombinedSongName()
PUBLIC 55514 0 std::__ndk1::__thread_proxy[abi:ne190000]<std::__ndk1::tuple<std::__ndk1::unique_ptr<std::__ndk1::__thread_struct, std::__ndk1::default_delete<std::__ndk1::unique_ptr> >, void (AudioSource::*)(), std::__ndk1::unique_ptr<std::__ndk1::__thread_struct, std::__ndk1::default_delete<std::__ndk1::unique_ptr> >*> >(std::__ndk1::tuple<std::__ndk1::unique_ptr<std::__ndk1::__thread_struct, std::__ndk1::default_delete<std::__ndk1::unique_ptr> >, void (AudioSource::*)(), std::__ndk1::unique_ptr<std::__ndk1::__thread_struct, std::__ndk1::default_delete<std::__ndk1::unique_ptr> >*>)
PUBLIC 555e0 0 std::__ndk1::unique_ptr<std::__ndk1::tuple<std::__ndk1::unique_ptr<std::__ndk1::__thread_struct, std::__ndk1::default_delete<std::__ndk1::__thread_struct> >, void (AudioSource::*)(), AudioSource*>, std::__ndk1::default_delete<std::__ndk1::tuple<std::__ndk1::unique_ptr<std::__ndk1::__thread_struct, std::__ndk1::default_delete<std::__ndk1::__thread_struct> >, void (AudioSource::*)(), AudioSource*> > >::~unique_ptr[abi:ne190000]()
PUBLIC 55630 0 Easer::Easer(float*, float, float, float)
PUBLIC 55648 0 Easer::update(float)
PUBLIC 5570c 0 cocos2d::CCCopying::copyWithZone(cocos2d::CCZone*)
PUBLIC 55714 0 __cxx_global_var_init
PUBLIC 55b84 0 geode::modifier::ModifyBase<geode::modifier::ModifyDerive<HookedCCScheduler, cocos2d::CCScheduler> >::~ModifyBase()
PUBLIC 55ba0 0 geode::modifier::ModifyDerive<HookedCCScheduler, cocos2d::CCScheduler>::apply()
PUBLIC 55f0c 0 std::__ndk1::shared_ptr<geode::Hook>::~shared_ptr[abi:ne190000]()
PUBLIC 55f5c 0 geode::impl::ResultData<geode::Hook*, std::__ndk1::basic_string<char, std::__ndk1::char_traits<char>, std::__ndk1::allocator<char> > >::~ResultData()
PUBLIC 55fd0 0 geode::modifier::ModifyBase<geode::modifier::ModifyDerive<HookedCCScheduler, cocos2d::CCScheduler> >::apply()
PUBLIC 55fd4 0 _ZN5geode15UnwrapExceptionC2IRPNS_4HookEQsr4implE18IsStringStreamableIT_EEENS_4impl5OkTagEOS5_
PUBLIC 56128 0 std::__ndk1::basic_stringstream<char, std::__ndk1::char_traits<char>, std::__ndk1::allocator<char> >::basic_stringstream[abi:ne190000]()
PUBLIC m 5625c 0 std::__ndk1::basic_stringstream<char, std::__ndk1::char_traits<char>, std::__ndk1::allocator<char> >::~basic_stringstream()
PUBLIC 562dc 0 geode::UnwrapException::~UnwrapException()
PUBLIC 56300 0 std::__ndk1::__put_character_sequence[abi:ne190000]<char, std::__ndk1::char_traits<char> >(std::__ndk1::basic_ostream<char, std::__ndk1::char_traits<char> >, std::__ndk1::basic_ostream const*, unsigned long)
PUBLIC 564a4 0 std::__ndk1::__pad_and_output[abi:ne190000]<char, std::__ndk1::char_traits<char> >(std::__ndk1::char_traits<char>, std::__ndk1::ostreambuf_iterator const*, std::__ndk1::ostreambuf_iterator const, std::__ndk1::ostreambuf_iterator const, std::__ndk1::ios_base&, std::__ndk1::ostreambuf_iterator)
PUBLIC 56690 0 std::__ndk1::basic_stringbuf<char, std::__ndk1::char_traits<char>, std::__ndk1::allocator<char> >::str[abi:ne190000]() &&
PUBLIC 56800 0 std::__ndk1::basic_stringbuf<char, std::__ndk1::char_traits<char>, std::__ndk1::allocator<char> >::__init_buf_ptrs[abi:ne190000]()
PUBLIC 56948 0 std::__ndk1::basic_string<char, std::__ndk1::char_traits<char>, std::__ndk1::allocator<char> >::__erase_external_with_move(unsigned long, unsigned long)
PUBLIC 569d0 0 std::__ndk1::__variant_detail::__visitation::__base::__dispatcher<(unsigned long)0>::__dispatch[abi:ne190000]<std::__ndk1::__variant_detail::__dtor<std::__ndk1::__variant_detail::__traits<geode::Hook*, std::__ndk1::basic_string<char, std::__ndk1::char_traits<char>, std::__ndk1::allocator<char> > >, (std::__ndk1::__variant_detail::_Trait)1>::__destroy[abi:ne190000]()::{lambda(auto:1&)#1}, std::__ndk1::__variant_detail::__base<(std::__ndk1::__variant_detail::__traits<geode::Hook*, std::__ndk1::basic_string<char, std::__ndk1::char_traits<char>, std::__ndk1::allocator<char> > >)1, geode::Hook, std::__ndk1::allocator<char> >&>(std::__ndk1::__variant_detail::__dtor<std::__ndk1::__variant_detail::__traits<geode::Hook*, std::__ndk1::basic_string<char, std::__ndk1::char_traits<char>, std::__ndk1::allocator<char> > >, (std::__ndk1::__variant_detail::_Trait)1>, std::__ndk1::__variant_detail::__base<(std::__ndk1::__variant_detail::__traits<geode::Hook*, std::__ndk1::basic_string<char, std::__ndk1::char_traits<char>, std::__ndk1::allocator<char> > >)1, geode::Hook, std::__ndk1::allocator<char> >&)
PUBLIC 569d4 0 std::__ndk1::__variant_detail::__visitation::__base::__dispatcher<(unsigned long)1>::__dispatch[abi:ne190000]<std::__ndk1::__variant_detail::__dtor<std::__ndk1::__variant_detail::__traits<geode::Hook*, std::__ndk1::basic_string<char, std::__ndk1::char_traits<char>, std::__ndk1::allocator<char> > >, (std::__ndk1::__variant_detail::_Trait)1>::__destroy[abi:ne190000]()::{lambda(auto:1&)#1}, std::__ndk1::__variant_detail::__base<(std::__ndk1::__variant_detail::__traits<geode::Hook*, std::__ndk1::basic_string<char, std::__ndk1::char_traits<char>, std::__ndk1::allocator<char> > >)1, geode::Hook, std::__ndk1::allocator<char> >&>(std::__ndk1::__variant_detail::__dtor<std::__ndk1::__variant_detail::__traits<geode::Hook*, std::__ndk1::basic_string<char, std::__ndk1::char_traits<char>, std::__ndk1::allocator<char> > >, (std::__ndk1::__variant_detail::_Trait)1>, std::__ndk1::__variant_detail::__base<(std::__ndk1::__variant_detail::__traits<geode::Hook*, std::__ndk1::basic_string<char, std::__ndk1::char_traits<char>, std::__ndk1::allocator<char> > >)1, geode::Hook, std::__ndk1::allocator<char> >&)
PUBLIC 569e8 0 std::__ndk1::__tree<std::__ndk1::__value_type<std::__ndk1::basic_string<char, std::__ndk1::char_traits<char>, std::__ndk1::allocator<char> >, std::__ndk1::shared_ptr<geode::Hook> >, std::__ndk1::__map_value_compare<std::__ndk1::basic_string<char, std::__ndk1::char_traits<char>, std::__ndk1::allocator<char> >, std::__ndk1::__value_type<std::__ndk1::basic_string<char, std::__ndk1::char_traits<char>, std::__ndk1::allocator<char> >, std::__ndk1::shared_ptr<geode::Hook> >, std::__ndk1::less<std::__ndk1::basic_string<char, std::__ndk1::char_traits<char>, std::__ndk1::allocator<char> > >, true>, std::__ndk1::allocator<std::__ndk1::__value_type<std::__ndk1::basic_string<char, std::__ndk1::char_traits<char>, std::__ndk1::allocator<char> >, std::__ndk1::shared_ptr<geode::Hook> > > >::find<std::__ndk1::basic_string<char, std::__ndk1::char_traits<char>, std::__ndk1::allocator<char> > >(std::__ndk1::basic_string<char, std::__ndk1::char_traits<char>, std::__ndk1::allocator<char> > const&)
PUBLIC 56b10 0 std::__ndk1::__tree<std::__ndk1::__value_type<std::__ndk1::basic_string<char, std::__ndk1::char_traits<char>, std::__ndk1::allocator<char> >, std::__ndk1::shared_ptr<geode::Hook> >, std::__ndk1::__map_value_compare<std::__ndk1::basic_string<char, std::__ndk1::char_traits<char>, std::__ndk1::allocator<char> >, std::__ndk1::__value_type<std::__ndk1::basic_string<char, std::__ndk1::char_traits<char>, std::__ndk1::allocator<char> >, std::__ndk1::shared_ptr<geode::Hook> >, std::__ndk1::less<std::__ndk1::basic_string<char, std::__ndk1::char_traits<char>, std::__ndk1::allocator<char> > >, true>, std::__ndk1::allocator<std::__ndk1::__value_type<std::__ndk1::basic_string<char, std::__ndk1::char_traits<char>, std::__ndk1::allocator<char> >, std::__ndk1::shared_ptr<geode::Hook> > > >::erase(std::__ndk1::__tree_const_iterator<std::__ndk1::__value_type<std::__ndk1::basic_string<char, std::__ndk1::char_traits<char>, std::__ndk1::allocator<char> >, std::__ndk1::shared_ptr<geode::Hook> >, std::__ndk1::__tree_node<std::__ndk1::__value_type<std::__ndk1::basic_string<char, std::__ndk1::char_traits<char>, std::__ndk1::allocator<char> >, std::__ndk1::shared_ptr<geode::Hook> >, void*>*, long>)
PUBLIC 56be4 0 std::__ndk1::__tree_remove[abi:ne190000]<std::__ndk1::__tree_node_base<void*>*>(std::__ndk1::__tree_node_base<void*>*, std::__ndk1::__tree_node_base<void*>*)
PUBLIC 56fac 0 std::__ndk1::__tree<std::__ndk1::__value_type<std::__ndk1::basic_string<char, std::__ndk1::char_traits<char>, std::__ndk1::allocator<char> >, std::__ndk1::shared_ptr<geode::Hook> >, std::__ndk1::__map_value_compare<std::__ndk1::basic_string<char, std::__ndk1::char_traits<char>, std::__ndk1::allocator<char> >, std::__ndk1::__value_type<std::__ndk1::basic_string<char, std::__ndk1::char_traits<char>, std::__ndk1::allocator<char> >, std::__ndk1::shared_ptr<geode::Hook> >, std::__ndk1::less<std::__ndk1::basic_string<char, std::__ndk1::char_traits<char>, std::__ndk1::allocator<char> > >, true>, std::__ndk1::allocator<std::__ndk1::__value_type<std::__ndk1::basic_string<char, std::__ndk1::char_traits<char>, std::__ndk1::allocator<char> >, std::__ndk1::shared_ptr<geode::Hook> > > >::destroy(std::__ndk1::__tree_node<std::__ndk1::__value_type<std::__ndk1::basic_string<char, std::__ndk1::char_traits<char>, std::__ndk1::allocator<char> >, std::__ndk1::shared_ptr<geode::Hook> >, void*>*)
PUBLIC 57038 0 geode::modifier::AsStaticFunction_update<HookedCCScheduler, void (HookedCCScheduler::*)(float)>::Impl<void (HookedCCScheduler::*)(float)>::function(HookedCCScheduler*, float)
PUBLIC 57060 0 geode::addresser::Addresser::addressOfVirtual<void, cocos2d::CCScheduler, float>(void (cocos2d::CCScheduler::*)(float))
PUBLIC 57138 0 std::__ndk1::shared_ptr<tulip::hook::CallingConvention>::~shared_ptr[abi:ne190000]()
PUBLIC 57188 0 tulip::hook::HandlerMetadata::~HandlerMetadata()
PUBLIC 571ec 0 std::__ndk1::__tree<std::__ndk1::__value_type<std::__ndk1::basic_string<char, std::__ndk1::char_traits<char>, std::__ndk1::allocator<char> >, std::__ndk1::shared_ptr<geode::Hook> >, std::__ndk1::__map_value_compare<std::__ndk1::basic_string<char, std::__ndk1::char_traits<char>, std::__ndk1::allocator<char> >, std::__ndk1::__value_type<std::__ndk1::basic_string<char, std::__ndk1::char_traits<char>, std::__ndk1::allocator<char> >, std::__ndk1::shared_ptr<geode::Hook> >, std::__ndk1::less<std::__ndk1::basic_string<char, std::__ndk1::char_traits<char>, std::__ndk1::allocator<char> > >, true>, std::__ndk1::allocator<std::__ndk1::__value_type<std::__ndk1::basic_string<char, std::__ndk1::char_traits<char>, std::__ndk1::allocator<char> >, std::__ndk1::shared_ptr<geode::Hook> > > >::__emplace_unique_key_args<std::__ndk1::basic_string<char, std::__ndk1::char_traits<char>, std::__ndk1::allocator<char> >, std::__ndk1::piecewise_construct_t const&, std::__ndk1::tuple<std::__ndk1::basic_string<char, std::__ndk1::char_traits<char>, std::__ndk1::allocator<char> >&&>, std::__ndk1::tuple<> >(std::__ndk1::basic_string<char, std::__ndk1::char_traits<char>, std::__ndk1::allocator<char> > const&, std::__ndk1::piecewise_construct_t const&, std::__ndk1::tuple<std::__ndk1::basic_string<char, std::__ndk1::char_traits<char>, std::__ndk1::allocator<char> >&&>, std::__ndk1::tuple<>)
PUBLIC 57364 0 __cxx_global_var_init
PUBLIC 57d5c 0 geode::modifier::ModifyBase<geode::modifier::ModifyDerive<HookedEditorPauseLayer, EditorPauseLayer> >::~ModifyBase()
PUBLIC 57d78 0 geode::modifier::ModifyDerive<HookedEditorPauseLayer, EditorPauseLayer>::apply()
PUBLIC 586c0 0 geode::modifier::ModifyBase<geode::modifier::ModifyDerive<HookedEditorPauseLayer, EditorPauseLayer> >::apply()
PUBLIC 586c4 0 geode::modifier::ModifyBase<geode::modifier::ModifyDerive<HookedEditorPauseLayer, EditorPauseLayer> >::setHookPriorityBefore(std::__ndk1::basic_string_view<char, std::__ndk1::char_traits<char> >, geode::Mod*)::{lambda(geode::ModStateEvent*)#1}::operator()(geode::ModStateEvent*) const
PUBLIC 587d4 0 std::__ndk1::unique_ptr<std::__ndk1::__tree_node<std::__ndk1::__value_type<std::__ndk1::basic_string<char, std::__ndk1::char_traits<char>, std::__ndk1::allocator<char> >, std::__ndk1::shared_ptr<geode::Hook> >, void*>, std::__ndk1::__tree_node_destructor<std::__ndk1::allocator<std::__ndk1::__tree_node<std::__ndk1::__value_type<std::__ndk1::basic_string<char, std::__ndk1::char_traits<char>, std::__ndk1::allocator<char> >, std::__ndk1::shared_ptr<geode::Hook> >, void*> > > >::~unique_ptr[abi:ne190000]()
PUBLIC 58850 0 _ZN5geode15UnwrapExceptionC2IRNSt6__ndk112basic_stringIcNS2_11char_traitsIcEENS2_9allocatorIcEEEEQsr4implE18IsStringStreamableIT_EEENS_4impl6ErrTagEOSA_
PUBLIC 589b8 0 std::__ndk1::__function::__base<void (geode::ModStateEvent*)>::~__base()
PUBLIC 589bc 0 std::__ndk1::__function::__func<geode::modifier::ModifyBase<geode::modifier::ModifyDerive<HookedEditorPauseLayer, EditorPauseLayer> >::setHookPriorityBefore(std::__ndk1::basic_string_view<char, std::__ndk1::char_traits<char> >, geode::Mod*)::{lambda(geode::ModStateEvent*)#1}, std::__ndk1::allocator<geode::modifier::ModifyBase<geode::modifier::ModifyDerive<HookedEditorPauseLayer, EditorPauseLayer> >::setHookPriorityBefore(std::__ndk1::basic_string_view<char, std::__ndk1::char_traits<char> >, geode::Mod*)::{lambda(geode::ModStateEvent*)#1}>, void (geode::ModStateEvent*)>::~__func()
PUBLIC 589c0 0 std::__ndk1::__function::__func<geode::modifier::ModifyBase<geode::modifier::ModifyDerive<HookedEditorPauseLayer, EditorPauseLayer> >::setHookPriorityBefore(std::__ndk1::basic_string_view<char, std::__ndk1::char_traits<char> >, geode::Mod*)::{lambda(geode::ModStateEvent*)#1}, std::__ndk1::allocator<geode::modifier::ModifyBase<geode::modifier::ModifyDerive<HookedEditorPauseLayer, EditorPauseLayer> >::setHookPriorityBefore(std::__ndk1::basic_string_view<char, std::__ndk1::char_traits<char> >, geode::Mod*)::{lambda(geode::ModStateEvent*)#1}>, void (geode::ModStateEvent*)>::__clone() const
PUBLIC 589f8 0 std::__ndk1::__function::__func<geode::modifier::ModifyBase<geode::modifier::ModifyDerive<HookedEditorPauseLayer, EditorPauseLayer> >::setHookPriorityBefore(std::__ndk1::basic_string_view<char, std::__ndk1::char_traits<char> >, geode::Mod*)::{lambda(geode::ModStateEvent*)#1}, std::__ndk1::allocator<geode::modifier::ModifyBase<geode::modifier::ModifyDerive<HookedEditorPauseLayer, EditorPauseLayer> >::setHookPriorityBefore(std::__ndk1::basic_string_view<char, std::__ndk1::char_traits<char> >, geode::Mod*)::{lambda(geode::ModStateEvent*)#1}>, void (geode::ModStateEvent*)>::__clone(std::__ndk1::__function::__base<void (geode::ModStateEvent*)>*) const
PUBLIC 58a10 0 std::__ndk1::__function::__func<geode::modifier::ModifyBase<geode::modifier::ModifyDerive<HookedEditorPauseLayer, EditorPauseLayer> >::setHookPriorityBefore(std::__ndk1::basic_string_view<char, std::__ndk1::char_traits<char> >, geode::Mod*)::{lambda(geode::ModStateEvent*)#1}, std::__ndk1::allocator<geode::modifier::ModifyBase<geode::modifier::ModifyDerive<HookedEditorPauseLayer, EditorPauseLayer> >::setHookPriorityBefore(std::__ndk1::basic_string_view<char, std::__ndk1::char_traits<char> >, geode::Mod*)::{lambda(geode::ModStateEvent*)#1}>, void (geode::ModStateEvent*)>::destroy()
PUBLIC 58a14 0 std::__ndk1::__function::__func<geode::modifier::ModifyBase<geode::modifier::ModifyDerive<HookedEditorPauseLayer, EditorPauseLayer> >::setHookPriorityBefore(std::__ndk1::basic_string_view<char, std::__ndk1::char_traits<char> >, geode::Mod*)::{lambda(geode::ModStateEvent*)#1}, std::__ndk1::allocator<geode::modifier::ModifyBase<geode::modifier::ModifyDerive<HookedEditorPauseLayer, EditorPauseLayer> >::setHookPriorityBefore(std::__ndk1::basic_string_view<char, std::__ndk1::char_traits<char> >, geode::Mod*)::{lambda(geode::ModStateEvent*)#1}>, void (geode::ModStateEvent*)>::destroy_deallocate()
PUBLIC 58a18 0 std::__ndk1::__function::__func<geode::modifier::ModifyBase<geode::modifier::ModifyDerive<HookedEditorPauseLayer, EditorPauseLayer> >::setHookPriorityBefore(std::__ndk1::basic_string_view<char, std::__ndk1::char_traits<char> >, geode::Mod*)::{lambda(geode::ModStateEvent*)#1}, std::__ndk1::allocator<geode::modifier::ModifyBase<geode::modifier::ModifyDerive<HookedEditorPauseLayer, EditorPauseLayer> >::setHookPriorityBefore(std::__ndk1::basic_string_view<char, std::__ndk1::char_traits<char> >, geode::Mod*)::{lambda(geode::ModStateEvent*)#1}>, void (geode::ModStateEvent*)>::operator()(geode::ModStateEvent*&&)
PUBLIC 58a20 0 std::__ndk1::__function::__func<geode::modifier::ModifyBase<geode::modifier::ModifyDerive<HookedEditorPauseLayer, EditorPauseLayer> >::setHookPriorityBefore(std::__ndk1::basic_string_view<char, std::__ndk1::char_traits<char> >, geode::Mod*)::{lambda(geode::ModStateEvent*)#1}, std::__ndk1::allocator<geode::modifier::ModifyBase<geode::modifier::ModifyDerive<HookedEditorPauseLayer, EditorPauseLayer> >::setHookPriorityBefore(std::__ndk1::basic_string_view<char, std::__ndk1::char_traits<char> >, geode::Mod*)::{lambda(geode::ModStateEvent*)#1}>, void (geode::ModStateEvent*)>::target(std::type_info const&) const
PUBLIC 58a3c 0 std::__ndk1::__function::__func<geode::modifier::ModifyBase<geode::modifier::ModifyDerive<HookedEditorPauseLayer, EditorPauseLayer> >::setHookPriorityBefore(std::__ndk1::basic_string_view<char, std::__ndk1::char_traits<char> >, geode::Mod*)::{lambda(geode::ModStateEvent*)#1}, std::__ndk1::allocator<geode::modifier::ModifyBase<geode::modifier::ModifyDerive<HookedEditorPauseLayer, EditorPauseLayer> >::setHookPriorityBefore(std::__ndk1::basic_string_view<char, std::__ndk1::char_traits<char> >, geode::Mod*)::{lambda(geode::ModStateEvent*)#1}>, void (geode::ModStateEvent*)>::target_type() const
PUBLIC 58a48 0 geode::EventListener<geode::ModStateFilter>::getPool() const
PUBLIC 58a4c 0 geode::EventListener<geode::ModStateFilter>::handle(geode::Event*)
PUBLIC 58bc0 0 geode::EventListener<geode::ModStateFilter>::~EventListener()
PUBLIC 58c1c 0 geode::EventListener<geode::ModStateFilter>::~EventListener()
PUBLIC 58c80 0 std::__ndk1::__variant_detail::__visitation::__base::__dispatcher<(unsigned long)0>::__dispatch[abi:ne190000]<std::__ndk1::__variant_detail::__dtor<std::__ndk1::__variant_detail::__traits<std::__ndk1::monostate, std::__ndk1::basic_string<char, std::__ndk1::char_traits<char>, std::__ndk1::allocator<char> > >, (std::__ndk1::__variant_detail::_Trait)1>::__destroy[abi:ne190000]()::{lambda(auto:1&)#1}, std::__ndk1::__variant_detail::__base<(std::__ndk1::__variant_detail::__traits<std::__ndk1::monostate, std::__ndk1::basic_string<char, std::__ndk1::char_traits<char>, std::__ndk1::allocator<char> > >)1, std::__ndk1::__variant_detail::__traits, std::__ndk1::allocator<char> >&>(std::__ndk1::__variant_detail::__dtor<std::__ndk1::__variant_detail::__traits<std::__ndk1::monostate, std::__ndk1::basic_string<char, std::__ndk1::char_traits<char>, std::__ndk1::allocator<char> > >, (std::__ndk1::__variant_detail::_Trait)1>, std::__ndk1::__variant_detail::__base<(std::__ndk1::__variant_detail::__traits<std::__ndk1::monostate, std::__ndk1::basic_string<char, std::__ndk1::char_traits<char>, std::__ndk1::allocator<char> > >)1, std::__ndk1::__variant_detail::__traits, std::__ndk1::allocator<char> >&)
PUBLIC 58c84 0 std::__ndk1::__variant_detail::__visitation::__base::__dispatcher<(unsigned long)1>::__dispatch[abi:ne190000]<std::__ndk1::__variant_detail::__dtor<std::__ndk1::__variant_detail::__traits<std::__ndk1::monostate, std::__ndk1::basic_string<char, std::__ndk1::char_traits<char>, std::__ndk1::allocator<char> > >, (std::__ndk1::__variant_detail::_Trait)1>::__destroy[abi:ne190000]()::{lambda(auto:1&)#1}, std::__ndk1::__variant_detail::__base<(std::__ndk1::__variant_detail::__traits<std::__ndk1::monostate, std::__ndk1::basic_string<char, std::__ndk1::char_traits<char>, std::__ndk1::allocator<char> > >)1, std::__ndk1::__variant_detail::__traits, std::__ndk1::allocator<char> >&>(std::__ndk1::__variant_detail::__dtor<std::__ndk1::__variant_detail::__traits<std::__ndk1::monostate, std::__ndk1::basic_string<char, std::__ndk1::char_traits<char>, std::__ndk1::allocator<char> > >, (std::__ndk1::__variant_detail::_Trait)1>, std::__ndk1::__variant_detail::__base<(std::__ndk1::__variant_detail::__traits<std::__ndk1::monostate, std::__ndk1::basic_string<char, std::__ndk1::char_traits<char>, std::__ndk1::allocator<char> > >)1, std::__ndk1::__variant_detail::__traits, std::__ndk1::allocator<char> >&)
PUBLIC 58c98 0 geode::modifier::AsStaticFunction_init<HookedEditorPauseLayer, bool (HookedEditorPauseLayer::*)(LevelEditorLayer*)>::Impl<bool (HookedEditorPauseLayer::*)(LevelEditorLayer*)>::function(HookedEditorPauseLayer*, LevelEditorLayer*)
PUBLIC 58e70 0 geode::Hook::create<void (*)(HookedEditorPauseLayer*, cocos2d::CCObject*)>(void*, void (*)(HookedEditorPauseLayer*, cocos2d::CCObject*), std::__ndk1::basic_string<char, std::__ndk1::char_traits<char>, std::__ndk1::allocator<char> > const&, tulip::hook::TulipConvention, tulip::hook::HookMetadata const&)
PUBLIC 58ff4 0 geode::modifier::AsStaticFunction_onExitEditor<HookedEditorPauseLayer, void (HookedEditorPauseLayer::*)(cocos2d::CCObject*)>::Impl<void (HookedEditorPauseLayer::*)(cocos2d::CCObject*)>::function(HookedEditorPauseLayer*, cocos2d::CCObject*)
PUBLIC 590c4 0 geode::modifier::AsStaticFunction_onSaveAndExit<HookedEditorPauseLayer, void (HookedEditorPauseLayer::*)(cocos2d::CCObject*)>::Impl<void (HookedEditorPauseLayer::*)(cocos2d::CCObject*)>::function(HookedEditorPauseLayer*, cocos2d::CCObject*)
PUBLIC 59194 0 geode::modifier::AsStaticFunction_onSaveAndPlay<HookedEditorPauseLayer, void (HookedEditorPauseLayer::*)(cocos2d::CCObject*)>::Impl<void (HookedEditorPauseLayer::*)(cocos2d::CCObject*)>::function(HookedEditorPauseLayer*, cocos2d::CCObject*)
PUBLIC 59264 0 geode::modifier::FieldIntermediate<HookedLevelEditorLayer, LevelEditorLayer>::self()
PUBLIC 59838 0 cocos2d::CCNode::addEventListener<keybinds::InvokeBindFilter, char const*>(std::__ndk1::function<keybinds::InvokeBindFilter::Callback>, char const*&&)
PUBLIC 59cbc 0 cocos2d::CCSequence::create(cocos2d::CCFiniteTimeAction*, ...)
PUBLIC 59d54 0 __cxx_global_var_init
PUBLIC 5a1c4 0 geode::modifier::ModifyBase<geode::modifier::ModifyDerive<HookedLevelEditorLayer, LevelEditorLayer> >::~ModifyBase()
PUBLIC 5a1e0 0 geode::modifier::FieldIntermediate<HookedLevelEditorLayer, LevelEditorLayer>::fieldDestructor(void*)
PUBLIC 5a230 0 std::__ndk1::vector<void*, std::__ndk1::allocator<void*> >::__throw_length_error[abi:ne190000]() const
PUBLIC 5a244 0 std::__ndk1::vector<std::__ndk1::function<void (void*)>, std::__ndk1::allocator<std::__ndk1::function<void (void*)> > >::__throw_length_error[abi:ne190000]() const
PUBLIC 5a258 0 std::__ndk1::vector<void*, std::__ndk1::allocator<void*> >::__throw_out_of_range[abi:ne190000]() const
PUBLIC 5a26c 0 std::__ndk1::vector<std::__ndk1::function<void (void*)>, std::__ndk1::allocator<std::__ndk1::function<void (void*)> > >::__throw_out_of_range[abi:ne190000]() const
PUBLIC 5a280 0 std::__ndk1::__function::__base<void (void*)>::~__base()
PUBLIC 5a284 0 std::__ndk1::__function::__func<void (*)(void*), std::__ndk1::allocator<void (*)(void*)>, void (void*)>::~__func()
PUBLIC 5a288 0 std::__ndk1::__function::__func<void (*)(void*), std::__ndk1::allocator<void (*)(void*)>, void (void*)>::__clone() const
PUBLIC 5a2c0 0 std::__ndk1::__function::__func<void (*)(void*), std::__ndk1::allocator<void (*)(void*)>, void (void*)>::__clone(std::__ndk1::__function::__base<void (void*)>*) const
PUBLIC 5a2d8 0 std::__ndk1::__function::__func<void (*)(void*), std::__ndk1::allocator<void (*)(void*)>, void (void*)>::destroy()
PUBLIC 5a2dc 0 std::__ndk1::__function::__func<void (*)(void*), std::__ndk1::allocator<void (*)(void*)>, void (void*)>::destroy_deallocate()
PUBLIC 5a2e0 0 std::__ndk1::__function::__func<void (*)(void*), std::__ndk1::allocator<void (*)(void*)>, void (void*)>::operator()(void*&&)
PUBLIC 5a2f0 0 std::__ndk1::__function::__func<void (*)(void*), std::__ndk1::allocator<void (*)(void*)>, void (void*)>::target(std::type_info const&) const
PUBLIC 5a30c 0 std::__ndk1::__function::__func<void (*)(void*), std::__ndk1::allocator<void (*)(void*)>, void (void*)>::target_type() const
PUBLIC 5a318 0 geode::modifier::ModifyDerive<HookedLevelEditorLayer, LevelEditorLayer>::apply()
PUBLIC 5a97c 0 geode::modifier::ModifyBase<geode::modifier::ModifyDerive<HookedLevelEditorLayer, LevelEditorLayer> >::apply()
PUBLIC 5a980 0 geode::modifier::AsStaticFunction_init<HookedLevelEditorLayer, bool (HookedLevelEditorLayer::*)(GJGameLevel*, bool)>::Impl<bool (HookedLevelEditorLayer::*)(GJGameLevel*, bool)>::function(HookedLevelEditorLayer*, GJGameLevel*, bool)
PUBLIC 5ae30 0 geode::modifier::AsStaticFunction_updateEditor<HookedLevelEditorLayer, void (HookedLevelEditorLayer::*)(float)>::Impl<void (HookedLevelEditorLayer::*)(float)>::function(HookedLevelEditorLayer*, float)
PUBLIC 5b15c 0 geode::EventListener<keybinds::InvokeBindFilter>::getPool() const
PUBLIC 5b160 0 geode::EventListener<keybinds::InvokeBindFilter>::handle(geode::Event*)
PUBLIC 5b2d4 0 geode::EventListener<keybinds::InvokeBindFilter>::~EventListener()
PUBLIC 5b340 0 geode::EventListener<keybinds::InvokeBindFilter>::~EventListener()
PUBLIC 5b3b4 0 std::__ndk1::__function::__func<HookedLevelEditorLayer::init(GJGameLevel*, bool)::$_0, std::__ndk1::allocator<HookedLevelEditorLayer::init(GJGameLevel*, bool)::$_0>, geode::ListenerResult(keybinds::InvokeBindEvent*)>::~__func()
PUBLIC 5b3b8 0 std::__ndk1::__function::__func<HookedLevelEditorLayer::init(GJGameLevel*, bool)::$_0, std::__ndk1::allocator<HookedLevelEditorLayer::init(GJGameLevel*, bool)::$_0>, geode::ListenerResult(keybinds::InvokeBindEvent*)>::__clone() const
PUBLIC 5b3dc 0 std::__ndk1::__function::__func<HookedLevelEditorLayer::init(GJGameLevel*, bool)::$_0, std::__ndk1::allocator<HookedLevelEditorLayer::init(GJGameLevel*, bool)::$_0>, geode::ListenerResult(keybinds::InvokeBindEvent*)>::__clone(std::__ndk1::__function::__base<geode::ListenerResult(keybinds::InvokeBindEvent*)>*) const
PUBLIC 5b3ec 0 std::__ndk1::__function::__func<HookedLevelEditorLayer::init(GJGameLevel*, bool)::$_0, std::__ndk1::allocator<HookedLevelEditorLayer::init(GJGameLevel*, bool)::$_0>, geode::ListenerResult(keybinds::InvokeBindEvent*)>::destroy()
PUBLIC 5b3f0 0 std::__ndk1::__function::__func<HookedLevelEditorLayer::init(GJGameLevel*, bool)::$_0, std::__ndk1::allocator<HookedLevelEditorLayer::init(GJGameLevel*, bool)::$_0>, geode::ListenerResult(keybinds::InvokeBindEvent*)>::destroy_deallocate()
PUBLIC 5b3f4 0 std::__ndk1::__function::__func<HookedLevelEditorLayer::init(GJGameLevel*, bool)::$_0, std::__ndk1::allocator<HookedLevelEditorLayer::init(GJGameLevel*, bool)::$_0>, geode::ListenerResult(keybinds::InvokeBindEvent*)>::operator()(keybinds::InvokeBindEvent*&&)
PUBLIC 5b4b4 0 std::__ndk1::__function::__func<HookedLevelEditorLayer::init(GJGameLevel*, bool)::$_0, std::__ndk1::allocator<HookedLevelEditorLayer::init(GJGameLevel*, bool)::$_0>, geode::ListenerResult(keybinds::InvokeBindEvent*)>::target(std::type_info const&) const
PUBLIC 5b4d0 0 std::__ndk1::__function::__func<HookedLevelEditorLayer::init(GJGameLevel*, bool)::$_0, std::__ndk1::allocator<HookedLevelEditorLayer::init(GJGameLevel*, bool)::$_0>, geode::ListenerResult(keybinds::InvokeBindEvent*)>::target_type() const
PUBLIC 5b4dc 0 std::__ndk1::__function::__func<HookedLevelEditorLayer::init(GJGameLevel*, bool)::$_1, std::__ndk1::allocator<HookedLevelEditorLayer::init(GJGameLevel*, bool)::$_1>, geode::ListenerResult(keybinds::InvokeBindEvent*)>::~__func()
PUBLIC 5b4e0 0 std::__ndk1::__function::__func<HookedLevelEditorLayer::init(GJGameLevel*, bool)::$_1, std::__ndk1::allocator<HookedLevelEditorLayer::init(GJGameLevel*, bool)::$_1>, geode::ListenerResult(keybinds::InvokeBindEvent*)>::__clone() const
PUBLIC 5b504 0 std::__ndk1::__function::__func<HookedLevelEditorLayer::init(GJGameLevel*, bool)::$_1, std::__ndk1::allocator<HookedLevelEditorLayer::init(GJGameLevel*, bool)::$_1>, geode::ListenerResult(keybinds::InvokeBindEvent*)>::__clone(std::__ndk1::__function::__base<geode::ListenerResult(keybinds::InvokeBindEvent*)>*) const
PUBLIC 5b514 0 std::__ndk1::__function::__func<HookedLevelEditorLayer::init(GJGameLevel*, bool)::$_1, std::__ndk1::allocator<HookedLevelEditorLayer::init(GJGameLevel*, bool)::$_1>, geode::ListenerResult(keybinds::InvokeBindEvent*)>::destroy()
PUBLIC 5b518 0 std::__ndk1::__function::__func<HookedLevelEditorLayer::init(GJGameLevel*, bool)::$_1, std::__ndk1::allocator<HookedLevelEditorLayer::init(GJGameLevel*, bool)::$_1>, geode::ListenerResult(keybinds::InvokeBindEvent*)>::destroy_deallocate()
PUBLIC 5b51c 0 std::__ndk1::__function::__func<HookedLevelEditorLayer::init(GJGameLevel*, bool)::$_1, std::__ndk1::allocator<HookedLevelEditorLayer::init(GJGameLevel*, bool)::$_1>, geode::ListenerResult(keybinds::InvokeBindEvent*)>::operator()(keybinds::InvokeBindEvent*&&)
PUBLIC 5b5dc 0 std::__ndk1::__function::__func<HookedLevelEditorLayer::init(GJGameLevel*, bool)::$_1, std::__ndk1::allocator<HookedLevelEditorLayer::init(GJGameLevel*, bool)::$_1>, geode::ListenerResult(keybinds::InvokeBindEvent*)>::target(std::type_info const&) const
PUBLIC 5b5f8 0 std::__ndk1::__function::__func<HookedLevelEditorLayer::init(GJGameLevel*, bool)::$_1, std::__ndk1::allocator<HookedLevelEditorLayer::init(GJGameLevel*, bool)::$_1>, geode::ListenerResult(keybinds::InvokeBindEvent*)>::target_type() const
PUBLIC 5b604 0 std::__ndk1::__function::__base<geode::ListenerResult(keybinds::InvokeBindEvent*)>::~__base()
PUBLIC 5b608 0 std::__ndk1::__function::__func<HookedLevelEditorLayer::init(GJGameLevel*, bool)::$_2, std::__ndk1::allocator<HookedLevelEditorLayer::init(GJGameLevel*, bool)::$_2>, geode::ListenerResult(keybinds::InvokeBindEvent*)>::~__func()
PUBLIC 5b60c 0 std::__ndk1::__function::__func<HookedLevelEditorLayer::init(GJGameLevel*, bool)::$_2, std::__ndk1::allocator<HookedLevelEditorLayer::init(GJGameLevel*, bool)::$_2>, geode::ListenerResult(keybinds::InvokeBindEvent*)>::__clone() const
PUBLIC 5b630 0 std::__ndk1::__function::__func<HookedLevelEditorLayer::init(GJGameLevel*, bool)::$_2, std::__ndk1::allocator<HookedLevelEditorLayer::init(GJGameLevel*, bool)::$_2>, geode::ListenerResult(keybinds::InvokeBindEvent*)>::__clone(std::__ndk1::__function::__base<geode::ListenerResult(keybinds::InvokeBindEvent*)>*) const
PUBLIC 5b640 0 std::__ndk1::__function::__func<HookedLevelEditorLayer::init(GJGameLevel*, bool)::$_2, std::__ndk1::allocator<HookedLevelEditorLayer::init(GJGameLevel*, bool)::$_2>, geode::ListenerResult(keybinds::InvokeBindEvent*)>::destroy()
PUBLIC 5b644 0 std::__ndk1::__function::__func<HookedLevelEditorLayer::init(GJGameLevel*, bool)::$_2, std::__ndk1::allocator<HookedLevelEditorLayer::init(GJGameLevel*, bool)::$_2>, geode::ListenerResult(keybinds::InvokeBindEvent*)>::destroy_deallocate()
PUBLIC 5b648 0 std::__ndk1::__function::__func<HookedLevelEditorLayer::init(GJGameLevel*, bool)::$_2, std::__ndk1::allocator<HookedLevelEditorLayer::init(GJGameLevel*, bool)::$_2>, geode::ListenerResult(keybinds::InvokeBindEvent*)>::operator()(keybinds::InvokeBindEvent*&&)
PUBLIC 5b708 0 std::__ndk1::__function::__func<HookedLevelEditorLayer::init(GJGameLevel*, bool)::$_2, std::__ndk1::allocator<HookedLevelEditorLayer::init(GJGameLevel*, bool)::$_2>, geode::ListenerResult(keybinds::InvokeBindEvent*)>::target(std::type_info const&) const
PUBLIC 5b724 0 std::__ndk1::__function::__func<HookedLevelEditorLayer::init(GJGameLevel*, bool)::$_2, std::__ndk1::allocator<HookedLevelEditorLayer::init(GJGameLevel*, bool)::$_2>, geode::ListenerResult(keybinds::InvokeBindEvent*)>::target_type() const
PUBLIC 5b730 0 __cxx_global_var_init
PUBLIC 5bba0 0 geode::modifier::ModifyBase<geode::modifier::ModifyDerive<HookedLoadingLayer, LoadingLayer> >::~ModifyBase()
PUBLIC 5bbbc 0 geode::modifier::ModifyDerive<HookedLoadingLayer, LoadingLayer>::apply()
PUBLIC 5bf0c 0 geode::modifier::ModifyBase<geode::modifier::ModifyDerive<HookedLoadingLayer, LoadingLayer> >::apply()
PUBLIC 5bf10 0 geode::modifier::AsStaticFunction_init<HookedLoadingLayer, bool (HookedLoadingLayer::*)(bool)>::Impl<bool (HookedLoadingLayer::*)(bool)>::function(HookedLoadingLayer*, bool)
PUBLIC 5c010 0 std::__ndk1::__function::__func<HookedLoadingLayer::init(bool)::$_0, std::__ndk1::allocator<HookedLoadingLayer::init(bool)::$_0>, void ()>::~__func()
PUBLIC 5c014 0 std::__ndk1::__function::__func<HookedLoadingLayer::init(bool)::$_0, std::__ndk1::allocator<HookedLoadingLayer::init(bool)::$_0>, void ()>::__clone() const
PUBLIC 5c038 0 std::__ndk1::__function::__func<HookedLoadingLayer::init(bool)::$_0, std::__ndk1::allocator<HookedLoadingLayer::init(bool)::$_0>, void ()>::__clone(std::__ndk1::__function::__base<void ()>*) const
PUBLIC 5c048 0 std::__ndk1::__function::__func<HookedLoadingLayer::init(bool)::$_0, std::__ndk1::allocator<HookedLoadingLayer::init(bool)::$_0>, void ()>::destroy()
PUBLIC 5c04c 0 std::__ndk1::__function::__func<HookedLoadingLayer::init(bool)::$_0, std::__ndk1::allocator<HookedLoadingLayer::init(bool)::$_0>, void ()>::destroy_deallocate()
PUBLIC 5c050 0 std::__ndk1::__function::__func<HookedLoadingLayer::init(bool)::$_0, std::__ndk1::allocator<HookedLoadingLayer::init(bool)::$_0>, void ()>::operator()()
PUBLIC 5c128 0 std::__ndk1::__function::__func<HookedLoadingLayer::init(bool)::$_0, std::__ndk1::allocator<HookedLoadingLayer::init(bool)::$_0>, void ()>::target(std::type_info const&) const
PUBLIC 5c144 0 std::__ndk1::__function::__func<HookedLoadingLayer::init(bool)::$_0, std::__ndk1::allocator<HookedLoadingLayer::init(bool)::$_0>, void ()>::target_type() const
PUBLIC 5c150 0 std::__ndk1::__function::__func<HookedLoadingLayer::init(bool)::$_0::operator()() const::{lambda()#1}, std::__ndk1::allocator<HookedLoadingLayer::init(bool)::$_0::operator()() const::{lambda()#1}>, void ()>::~__func()
PUBLIC 5c154 0 std::__ndk1::__function::__func<HookedLoadingLayer::init(bool)::$_0::operator()() const::{lambda()#1}, std::__ndk1::allocator<HookedLoadingLayer::init(bool)::$_0::operator()() const::{lambda()#1}>, void ()>::__clone() const
PUBLIC 5c178 0 std::__ndk1::__function::__func<HookedLoadingLayer::init(bool)::$_0::operator()() const::{lambda()#1}, std::__ndk1::allocator<HookedLoadingLayer::init(bool)::$_0::operator()() const::{lambda()#1}>, void ()>::__clone(std::__ndk1::__function::__base<void ()>*) const
PUBLIC 5c188 0 std::__ndk1::__function::__func<HookedLoadingLayer::init(bool)::$_0::operator()() const::{lambda()#1}, std::__ndk1::allocator<HookedLoadingLayer::init(bool)::$_0::operator()() const::{lambda()#1}>, void ()>::destroy()
PUBLIC 5c18c 0 std::__ndk1::__function::__func<HookedLoadingLayer::init(bool)::$_0::operator()() const::{lambda()#1}, std::__ndk1::allocator<HookedLoadingLayer::init(bool)::$_0::operator()() const::{lambda()#1}>, void ()>::destroy_deallocate()
PUBLIC 5c190 0 std::__ndk1::__function::__func<HookedLoadingLayer::init(bool)::$_0::operator()() const::{lambda()#1}, std::__ndk1::allocator<HookedLoadingLayer::init(bool)::$_0::operator()() const::{lambda()#1}>, void ()>::operator()()
PUBLIC 5c1a4 0 std::__ndk1::__function::__func<HookedLoadingLayer::init(bool)::$_0::operator()() const::{lambda()#1}, std::__ndk1::allocator<HookedLoadingLayer::init(bool)::$_0::operator()() const::{lambda()#1}>, void ()>::target(std::type_info const&) const
PUBLIC 5c1c0 0 std::__ndk1::__function::__func<HookedLoadingLayer::init(bool)::$_0::operator()() const::{lambda()#1}, std::__ndk1::allocator<HookedLoadingLayer::init(bool)::$_0::operator()() const::{lambda()#1}>, void ()>::target_type() const
PUBLIC 5c1cc 0 geodeExecFunction3<(anonymous namespace)::ExecFuncUnique3>(geode::ModStateEvent*)
PUBLIC 5cbcc 0 geode::Ref<keybinds::Bind>::~Ref()
PUBLIC 5cbe8 0 keybinds::BindableAction::~BindableAction()
PUBLIC 5ccac 0 std::__ndk1::vector<geode::Ref<keybinds::Bind>, std::__ndk1::allocator<geode::Ref<keybinds::Bind> > >::~vector[abi:ne190000]()
PUBLIC 5cd30 0 std::__ndk1::__exception_guard_exceptions<std::__ndk1::vector<geode::Ref<keybinds::Bind>, std::__ndk1::allocator<geode::Ref<keybinds::Bind> > >::__destroy_vector>::~__exception_guard_exceptions[abi:ne190000]()
PUBLIC 5cdc4 0 std::__ndk1::__exception_guard_exceptions<std::__ndk1::_AllocatorDestroyRangeReverse<std::__ndk1::allocator<geode::Ref<keybinds::Bind> >, geode::Ref<keybinds::Bind>*> >::~__exception_guard_exceptions[abi:ne190000]()
PUBLIC 5ce0c 0 std::__ndk1::__function::__func<void (*)(geode::ModStateEvent*), std::__ndk1::allocator<void (*)(geode::ModStateEvent*)>, void (geode::ModStateEvent*)>::~__func()
PUBLIC 5ce10 0 std::__ndk1::__function::__func<void (*)(geode::ModStateEvent*), std::__ndk1::allocator<void (*)(geode::ModStateEvent*)>, void (geode::ModStateEvent*)>::__clone() const
PUBLIC 5ce44 0 std::__ndk1::__function::__func<void (*)(geode::ModStateEvent*), std::__ndk1::allocator<void (*)(geode::ModStateEvent*)>, void (geode::ModStateEvent*)>::__clone(std::__ndk1::__function::__base<void (geode::ModStateEvent*)>*) const
PUBLIC 5ce58 0 std::__ndk1::__function::__func<void (*)(geode::ModStateEvent*), std::__ndk1::allocator<void (*)(geode::ModStateEvent*)>, void (geode::ModStateEvent*)>::destroy()
PUBLIC 5ce5c 0 std::__ndk1::__function::__func<void (*)(geode::ModStateEvent*), std::__ndk1::allocator<void (*)(geode::ModStateEvent*)>, void (geode::ModStateEvent*)>::destroy_deallocate()
PUBLIC 5ce60 0 std::__ndk1::__function::__func<void (*)(geode::ModStateEvent*), std::__ndk1::allocator<void (*)(geode::ModStateEvent*)>, void (geode::ModStateEvent*)>::operator()(geode::ModStateEvent*&&)
PUBLIC 5ce70 0 std::__ndk1::__function::__func<void (*)(geode::ModStateEvent*), std::__ndk1::allocator<void (*)(geode::ModStateEvent*)>, void (geode::ModStateEvent*)>::target(std::type_info const&) const
PUBLIC 5ce8c 0 std::__ndk1::__function::__func<void (*)(geode::ModStateEvent*), std::__ndk1::allocator<void (*)(geode::ModStateEvent*)>, void (geode::ModStateEvent*)>::target_type() const
PUBLIC 5ce98 0 _GLOBAL__sub_I_keybinds.cpp
PUBLIC 5cfb0 0 geodeExecFunction7<(anonymous namespace)::ExecFuncUnique7>(geode::ModStateEvent*)
PUBLIC 5d63c 0 geode::EventListener<geode::SettingChangedFilterV3>::EventListener(std::__ndk1::function<void (std::__ndk1::shared_ptr<geode::SettingV3>)>, geode::SettingChangedFilterV3)
PUBLIC 5d734 0 geode::SettingChangedFilterV3::~SettingChangedFilterV3()
PUBLIC 5d784 0 std::__ndk1::__function::__func<geode::listenForSettingChangesV3<bool, geodeExecFunction7<(anonymous namespace)::ExecFuncUnique7>(geode::ModStateEvent*)::{lambda(bool)#1}>(std::__ndk1::basic_string_view<char, std::__ndk1::char_traits<char> >, geodeExecFunction7<(anonymous namespace)::ExecFuncUnique7>(geode::ModStateEvent*)::{lambda(bool)#1}&&, geode::Mod*)::{lambda(std::__ndk1::shared_ptr<geode::SettingV3>)#1}, std::__ndk1::allocator<geode::listenForSettingChangesV3<bool, geodeExecFunction7<(anonymous namespace)::ExecFuncUnique7>(geode::ModStateEvent*)::{lambda(bool)#1}>(std::__ndk1::basic_string_view<char, std::__ndk1::char_traits<char> >, geodeExecFunction7<(anonymous namespace)::ExecFuncUnique7>(geode::ModStateEvent*)::{lambda(bool)#1}&&, geode::Mod*)::{lambda(std::__ndk1::shared_ptr<geode::SettingV3>)#1}>, void (std::__ndk1::shared_ptr<geode::SettingV3>)>::~__func()
PUBLIC 5d788 0 std::__ndk1::__function::__func<geode::listenForSettingChangesV3<bool, geodeExecFunction7<(anonymous namespace)::ExecFuncUnique7>(geode::ModStateEvent*)::{lambda(bool)#1}>(std::__ndk1::basic_string_view<char, std::__ndk1::char_traits<char> >, geodeExecFunction7<(anonymous namespace)::ExecFuncUnique7>(geode::ModStateEvent*)::{lambda(bool)#1}&&, geode::Mod*)::{lambda(std::__ndk1::shared_ptr<geode::SettingV3>)#1}, std::__ndk1::allocator<geode::listenForSettingChangesV3<bool, geodeExecFunction7<(anonymous namespace)::ExecFuncUnique7>(geode::ModStateEvent*)::{lambda(bool)#1}>(std::__ndk1::basic_string_view<char, std::__ndk1::char_traits<char> >, geodeExecFunction7<(anonymous namespace)::ExecFuncUnique7>(geode::ModStateEvent*)::{lambda(bool)#1}&&, geode::Mod*)::{lambda(std::__ndk1::shared_ptr<geode::SettingV3>)#1}>, void (std::__ndk1::shared_ptr<geode::SettingV3>)>::__clone() const
PUBLIC 5d7c0 0 std::__ndk1::__function::__func<geode::listenForSettingChangesV3<bool, geodeExecFunction7<(anonymous namespace)::ExecFuncUnique7>(geode::ModStateEvent*)::{lambda(bool)#1}>(std::__ndk1::basic_string_view<char, std::__ndk1::char_traits<char> >, geodeExecFunction7<(anonymous namespace)::ExecFuncUnique7>(geode::ModStateEvent*)::{lambda(bool)#1}&&, geode::Mod*)::{lambda(std::__ndk1::shared_ptr<geode::SettingV3>)#1}, std::__ndk1::allocator<geode::listenForSettingChangesV3<bool, geodeExecFunction7<(anonymous namespace)::ExecFuncUnique7>(geode::ModStateEvent*)::{lambda(bool)#1}>(std::__ndk1::basic_string_view<char, std::__ndk1::char_traits<char> >, geodeExecFunction7<(anonymous namespace)::ExecFuncUnique7>(geode::ModStateEvent*)::{lambda(bool)#1}&&, geode::Mod*)::{lambda(std::__ndk1::shared_ptr<geode::SettingV3>)#1}>, void (std::__ndk1::shared_ptr<geode::SettingV3>)>::__clone(std::__ndk1::__function::__base<void (std::__ndk1::shared_ptr<geode::SettingV3>)>*) const
PUBLIC 5d7d8 0 std::__ndk1::__function::__func<geode::listenForSettingChangesV3<bool, geodeExecFunction7<(anonymous namespace)::ExecFuncUnique7>(geode::ModStateEvent*)::{lambda(bool)#1}>(std::__ndk1::basic_string_view<char, std::__ndk1::char_traits<char> >, geodeExecFunction7<(anonymous namespace)::ExecFuncUnique7>(geode::ModStateEvent*)::{lambda(bool)#1}&&, geode::Mod*)::{lambda(std::__ndk1::shared_ptr<geode::SettingV3>)#1}, std::__ndk1::allocator<geode::listenForSettingChangesV3<bool, geodeExecFunction7<(anonymous namespace)::ExecFuncUnique7>(geode::ModStateEvent*)::{lambda(bool)#1}>(std::__ndk1::basic_string_view<char, std::__ndk1::char_traits<char> >, geodeExecFunction7<(anonymous namespace)::ExecFuncUnique7>(geode::ModStateEvent*)::{lambda(bool)#1}&&, geode::Mod*)::{lambda(std::__ndk1::shared_ptr<geode::SettingV3>)#1}>, void (std::__ndk1::shared_ptr<geode::SettingV3>)>::destroy()
PUBLIC 5d7dc 0 std::__ndk1::__function::__func<geode::listenForSettingChangesV3<bool, geodeExecFunction7<(anonymous namespace)::ExecFuncUnique7>(geode::ModStateEvent*)::{lambda(bool)#1}>(std::__ndk1::basic_string_view<char, std::__ndk1::char_traits<char> >, geodeExecFunction7<(anonymous namespace)::ExecFuncUnique7>(geode::ModStateEvent*)::{lambda(bool)#1}&&, geode::Mod*)::{lambda(std::__ndk1::shared_ptr<geode::SettingV3>)#1}, std::__ndk1::allocator<geode::listenForSettingChangesV3<bool, geodeExecFunction7<(anonymous namespace)::ExecFuncUnique7>(geode::ModStateEvent*)::{lambda(bool)#1}>(std::__ndk1::basic_string_view<char, std::__ndk1::char_traits<char> >, geodeExecFunction7<(anonymous namespace)::ExecFuncUnique7>(geode::ModStateEvent*)::{lambda(bool)#1}&&, geode::Mod*)::{lambda(std::__ndk1::shared_ptr<geode::SettingV3>)#1}>, void (std::__ndk1::shared_ptr<geode::SettingV3>)>::destroy_deallocate()
PUBLIC 5d7e0 0 std::__ndk1::__function::__func<geode::listenForSettingChangesV3<bool, geodeExecFunction7<(anonymous namespace)::ExecFuncUnique7>(geode::ModStateEvent*)::{lambda(bool)#1}>(std::__ndk1::basic_string_view<char, std::__ndk1::char_traits<char> >, geodeExecFunction7<(anonymous namespace)::ExecFuncUnique7>(geode::ModStateEvent*)::{lambda(bool)#1}&&, geode::Mod*)::{lambda(std::__ndk1::shared_ptr<geode::SettingV3>)#1}, std::__ndk1::allocator<geode::listenForSettingChangesV3<bool, geodeExecFunction7<(anonymous namespace)::ExecFuncUnique7>(geode::ModStateEvent*)::{lambda(bool)#1}>(std::__ndk1::basic_string_view<char, std::__ndk1::char_traits<char> >, geodeExecFunction7<(anonymous namespace)::ExecFuncUnique7>(geode::ModStateEvent*)::{lambda(bool)#1}&&, geode::Mod*)::{lambda(std::__ndk1::shared_ptr<geode::SettingV3>)#1}>, void (std::__ndk1::shared_ptr<geode::SettingV3>)>::operator()(std::__ndk1::shared_ptr<geode::SettingV3>&&)
PUBLIC 5d9f0 0 std::__ndk1::__function::__func<geode::listenForSettingChangesV3<bool, geodeExecFunction7<(anonymous namespace)::ExecFuncUnique7>(geode::ModStateEvent*)::{lambda(bool)#1}>(std::__ndk1::basic_string_view<char, std::__ndk1::char_traits<char> >, geodeExecFunction7<(anonymous namespace)::ExecFuncUnique7>(geode::ModStateEvent*)::{lambda(bool)#1}&&, geode::Mod*)::{lambda(std::__ndk1::shared_ptr<geode::SettingV3>)#1}, std::__ndk1::allocator<geode::listenForSettingChangesV3<bool, geodeExecFunction7<(anonymous namespace)::ExecFuncUnique7>(geode::ModStateEvent*)::{lambda(bool)#1}>(std::__ndk1::basic_string_view<char, std::__ndk1::char_traits<char> >, geodeExecFunction7<(anonymous namespace)::ExecFuncUnique7>(geode::ModStateEvent*)::{lambda(bool)#1}&&, geode::Mod*)::{lambda(std::__ndk1::shared_ptr<geode::SettingV3>)#1}>, void (std::__ndk1::shared_ptr<geode::SettingV3>)>::target(std::type_info const&) const
PUBLIC 5da0c 0 std::__ndk1::__function::__func<geode::listenForSettingChangesV3<bool, geodeExecFunction7<(anonymous namespace)::ExecFuncUnique7>(geode::ModStateEvent*)::{lambda(bool)#1}>(std::__ndk1::basic_string_view<char, std::__ndk1::char_traits<char> >, geodeExecFunction7<(anonymous namespace)::ExecFuncUnique7>(geode::ModStateEvent*)::{lambda(bool)#1}&&, geode::Mod*)::{lambda(std::__ndk1::shared_ptr<geode::SettingV3>)#1}, std::__ndk1::allocator<geode::listenForSettingChangesV3<bool, geodeExecFunction7<(anonymous namespace)::ExecFuncUnique7>(geode::ModStateEvent*)::{lambda(bool)#1}>(std::__ndk1::basic_string_view<char, std::__ndk1::char_traits<char> >, geodeExecFunction7<(anonymous namespace)::ExecFuncUnique7>(geode::ModStateEvent*)::{lambda(bool)#1}&&, geode::Mod*)::{lambda(std::__ndk1::shared_ptr<geode::SettingV3>)#1}>, void (std::__ndk1::shared_ptr<geode::SettingV3>)>::target_type() const
PUBLIC 5da18 0 std::__ndk1::shared_ptr<geode::SettingV3>::~shared_ptr[abi:ne190000]()
PUBLIC 5da68 0 std::__ndk1::shared_ptr<geode::BoolSettingV3>::~shared_ptr[abi:ne190000]()
PUBLIC 5dab8 0 AudioManager::AudioManager(AudioManager const&)
PUBLIC 5ddd8 0 std::__ndk1::deque<std::__ndk1::shared_ptr<AudioSource>, std::__ndk1::allocator<std::__ndk1::shared_ptr<AudioSource> > >::__append_with_size[abi:ne190000]<std::__ndk1::__deque_iterator<std::__ndk1::shared_ptr<AudioSource>, std::__ndk1::shared_ptr<AudioSource> const*, std::__ndk1::__deque_iterator&, std::__ndk1::shared_ptr<AudioSource> const const*, long, (long)256> >(std::__ndk1::__deque_iterator<std::__ndk1::shared_ptr<AudioSource>, std::__ndk1::shared_ptr<AudioSource> const*, std::__ndk1::__deque_iterator&, std::__ndk1::shared_ptr<AudioSource> const const*, long, (long)256>, unsigned long)
PUBLIC 5df74 0 std::__ndk1::__exception_guard_exceptions<std::__ndk1::vector<std::__ndk1::shared_ptr<AudioSource>, std::__ndk1::allocator<std::__ndk1::shared_ptr<AudioSource> > >::__destroy_vector>::~__exception_guard_exceptions[abi:ne190000]()
PUBLIC 5e03c 0 geode::EventListener<geode::SettingChangedFilterV3>::getPool() const
PUBLIC 5e040 0 geode::EventListener<geode::SettingChangedFilterV3>::handle(geode::Event*)
PUBLIC 5e1b4 0 geode::EventListener<geode::SettingChangedFilterV3>::~EventListener()
PUBLIC 5e250 0 geode::EventListener<geode::SettingChangedFilterV3>::~EventListener()
PUBLIC 5e2f4 0 std::__ndk1::__function::__func<geode::listenForSettingChangesV3<std::__ndk1::basic_string<char, std::__ndk1::char_traits<char>, std::__ndk1::allocator<char> >, geodeExecFunction7<(anonymous namespace)::ExecFuncUnique7>(geode::ModStateEvent*)::{lambda(std::__ndk1::basic_string<char, std::__ndk1::char_traits<char>, std::__ndk1::allocator<char> >)#1}>(std::__ndk1::basic_string_view<char, std::__ndk1::char_traits<char> >, geodeExecFunction7<(anonymous namespace)::ExecFuncUnique7>(geode::ModStateEvent*)::{lambda(std::__ndk1::basic_string<char, std::__ndk1::char_traits<char>, std::__ndk1::allocator<char> >&&)#1}, geode::Mod*)::{lambda(std::__ndk1::shared_ptr<geode::SettingV3>)#1}, std::__ndk1::allocator<geode::listenForSettingChangesV3<std::__ndk1::basic_string<char, std::__ndk1::char_traits<char>, std::__ndk1::allocator<char> >, geodeExecFunction7<(anonymous namespace)::ExecFuncUnique7>(geode::ModStateEvent*)::{lambda(std::__ndk1::basic_string<char, std::__ndk1::char_traits<char>, std::__ndk1::allocator<char> >)#1}>(std::__ndk1::basic_string_view<char, std::__ndk1::char_traits<char> >, geodeExecFunction7<(anonymous namespace)::ExecFuncUnique7>(geode::ModStateEvent*)::{lambda(std::__ndk1::basic_string<char, std::__ndk1::char_traits<char>, std::__ndk1::allocator<char> >&&)#1}, geode::Mod*)::{lambda(std::__ndk1::shared_ptr<geode::SettingV3>)#1}>, void (std::__ndk1::shared_ptr<geode::SettingV3>)>::~__func()
PUBLIC 5e2f8 0 std::__ndk1::__function::__func<geode::listenForSettingChangesV3<std::__ndk1::basic_string<char, std::__ndk1::char_traits<char>, std::__ndk1::allocator<char> >, geodeExecFunction7<(anonymous namespace)::ExecFuncUnique7>(geode::ModStateEvent*)::{lambda(std::__ndk1::basic_string<char, std::__ndk1::char_traits<char>, std::__ndk1::allocator<char> >)#1}>(std::__ndk1::basic_string_view<char, std::__ndk1::char_traits<char> >, geodeExecFunction7<(anonymous namespace)::ExecFuncUnique7>(geode::ModStateEvent*)::{lambda(std::__ndk1::basic_string<char, std::__ndk1::char_traits<char>, std::__ndk1::allocator<char> >&&)#1}, geode::Mod*)::{lambda(std::__ndk1::shared_ptr<geode::SettingV3>)#1}, std::__ndk1::allocator<geode::listenForSettingChangesV3<std::__ndk1::basic_string<char, std::__ndk1::char_traits<char>, std::__ndk1::allocator<char> >, geodeExecFunction7<(anonymous namespace)::ExecFuncUnique7>(geode::ModStateEvent*)::{lambda(std::__ndk1::basic_string<char, std::__ndk1::char_traits<char>, std::__ndk1::allocator<char> >)#1}>(std::__ndk1::basic_string_view<char, std::__ndk1::char_traits<char> >, geodeExecFunction7<(anonymous namespace)::ExecFuncUnique7>(geode::ModStateEvent*)::{lambda(std::__ndk1::basic_string<char, std::__ndk1::char_traits<char>, std::__ndk1::allocator<char> >&&)#1}, geode::Mod*)::{lambda(std::__ndk1::shared_ptr<geode::SettingV3>)#1}>, void (std::__ndk1::shared_ptr<geode::SettingV3>)>::__clone() const
PUBLIC 5e330 0 std::__ndk1::__function::__func<geode::listenForSettingChangesV3<std::__ndk1::basic_string<char, std::__ndk1::char_traits<char>, std::__ndk1::allocator<char> >, geodeExecFunction7<(anonymous namespace)::ExecFuncUnique7>(geode::ModStateEvent*)::{lambda(std::__ndk1::basic_string<char, std::__ndk1::char_traits<char>, std::__ndk1::allocator<char> >)#1}>(std::__ndk1::basic_string_view<char, std::__ndk1::char_traits<char> >, geodeExecFunction7<(anonymous namespace)::ExecFuncUnique7>(geode::ModStateEvent*)::{lambda(std::__ndk1::basic_string<char, std::__ndk1::char_traits<char>, std::__ndk1::allocator<char> >&&)#1}, geode::Mod*)::{lambda(std::__ndk1::shared_ptr<geode::SettingV3>)#1}, std::__ndk1::allocator<geode::listenForSettingChangesV3<std::__ndk1::basic_string<char, std::__ndk1::char_traits<char>, std::__ndk1::allocator<char> >, geodeExecFunction7<(anonymous namespace)::ExecFuncUnique7>(geode::ModStateEvent*)::{lambda(std::__ndk1::basic_string<char, std::__ndk1::char_traits<char>, std::__ndk1::allocator<char> >)#1}>(std::__ndk1::basic_string_view<char, std::__ndk1::char_traits<char> >, geodeExecFunction7<(anonymous namespace)::ExecFuncUnique7>(geode::ModStateEvent*)::{lambda(std::__ndk1::basic_string<char, std::__ndk1::char_traits<char>, std::__ndk1::allocator<char> >&&)#1}, geode::Mod*)::{lambda(std::__ndk1::shared_ptr<geode::SettingV3>)#1}>, void (std::__ndk1::shared_ptr<geode::SettingV3>)>::__clone(std::__ndk1::__function::__base<void (std::__ndk1::shared_ptr<geode::SettingV3>)>*) const
PUBLIC 5e348 0 std::__ndk1::__function::__func<geode::listenForSettingChangesV3<std::__ndk1::basic_string<char, std::__ndk1::char_traits<char>, std::__ndk1::allocator<char> >, geodeExecFunction7<(anonymous namespace)::ExecFuncUnique7>(geode::ModStateEvent*)::{lambda(std::__ndk1::basic_string<char, std::__ndk1::char_traits<char>, std::__ndk1::allocator<char> >)#1}>(std::__ndk1::basic_string_view<char, std::__ndk1::char_traits<char> >, geodeExecFunction7<(anonymous namespace)::ExecFuncUnique7>(geode::ModStateEvent*)::{lambda(std::__ndk1::basic_string<char, std::__ndk1::char_traits<char>, std::__ndk1::allocator<char> >&&)#1}, geode::Mod*)::{lambda(std::__ndk1::shared_ptr<geode::SettingV3>)#1}, std::__ndk1::allocator<geode::listenForSettingChangesV3<std::__ndk1::basic_string<char, std::__ndk1::char_traits<char>, std::__ndk1::allocator<char> >, geodeExecFunction7<(anonymous namespace)::ExecFuncUnique7>(geode::ModStateEvent*)::{lambda(std::__ndk1::basic_string<char, std::__ndk1::char_traits<char>, std::__ndk1::allocator<char> >)#1}>(std::__ndk1::basic_string_view<char, std::__ndk1::char_traits<char> >, geodeExecFunction7<(anonymous namespace)::ExecFuncUnique7>(geode::ModStateEvent*)::{lambda(std::__ndk1::basic_string<char, std::__ndk1::char_traits<char>, std::__ndk1::allocator<char> >&&)#1}, geode::Mod*)::{lambda(std::__ndk1::shared_ptr<geode::SettingV3>)#1}>, void (std::__ndk1::shared_ptr<geode::SettingV3>)>::destroy()
PUBLIC 5e34c 0 std::__ndk1::__function::__func<geode::listenForSettingChangesV3<std::__ndk1::basic_string<char, std::__ndk1::char_traits<char>, std::__ndk1::allocator<char> >, geodeExecFunction7<(anonymous namespace)::ExecFuncUnique7>(geode::ModStateEvent*)::{lambda(std::__ndk1::basic_string<char, std::__ndk1::char_traits<char>, std::__ndk1::allocator<char> >)#1}>(std::__ndk1::basic_string_view<char, std::__ndk1::char_traits<char> >, geodeExecFunction7<(anonymous namespace)::ExecFuncUnique7>(geode::ModStateEvent*)::{lambda(std::__ndk1::basic_string<char, std::__ndk1::char_traits<char>, std::__ndk1::allocator<char> >&&)#1}, geode::Mod*)::{lambda(std::__ndk1::shared_ptr<geode::SettingV3>)#1}, std::__ndk1::allocator<geode::listenForSettingChangesV3<std::__ndk1::basic_string<char, std::__ndk1::char_traits<char>, std::__ndk1::allocator<char> >, geodeExecFunction7<(anonymous namespace)::ExecFuncUnique7>(geode::ModStateEvent*)::{lambda(std::__ndk1::basic_string<char, std::__ndk1::char_traits<char>, std::__ndk1::allocator<char> >)#1}>(std::__ndk1::basic_string_view<char, std::__ndk1::char_traits<char> >, geodeExecFunction7<(anonymous namespace)::ExecFuncUnique7>(geode::ModStateEvent*)::{lambda(std::__ndk1::basic_string<char, std::__ndk1::char_traits<char>, std::__ndk1::allocator<char> >&&)#1}, geode::Mod*)::{lambda(std::__ndk1::shared_ptr<geode::SettingV3>)#1}>, void (std::__ndk1::shared_ptr<geode::SettingV3>)>::destroy_deallocate()
PUBLIC 5e350 0 std::__ndk1::__function::__func<geode::listenForSettingChangesV3<std::__ndk1::basic_string<char, std::__ndk1::char_traits<char>, std::__ndk1::allocator<char> >, geodeExecFunction7<(anonymous namespace)::ExecFuncUnique7>(geode::ModStateEvent*)::{lambda(std::__ndk1::basic_string<char, std::__ndk1::char_traits<char>, std::__ndk1::allocator<char> >)#1}>(std::__ndk1::basic_string_view<char, std::__ndk1::char_traits<char> >, geodeExecFunction7<(anonymous namespace)::ExecFuncUnique7>(geode::ModStateEvent*)::{lambda(std::__ndk1::basic_string<char, std::__ndk1::char_traits<char>, std::__ndk1::allocator<char> >&&)#1}, geode::Mod*)::{lambda(std::__ndk1::shared_ptr<geode::SettingV3>)#1}, std::__ndk1::allocator<geode::listenForSettingChangesV3<std::__ndk1::basic_string<char, std::__ndk1::char_traits<char>, std::__ndk1::allocator<char> >, geodeExecFunction7<(anonymous namespace)::ExecFuncUnique7>(geode::ModStateEvent*)::{lambda(std::__ndk1::basic_string<char, std::__ndk1::char_traits<char>, std::__ndk1::allocator<char> >)#1}>(std::__ndk1::basic_string_view<char, std::__ndk1::char_traits<char> >, geodeExecFunction7<(anonymous namespace)::ExecFuncUnique7>(geode::ModStateEvent*)::{lambda(std::__ndk1::basic_string<char, std::__ndk1::char_traits<char>, std::__ndk1::allocator<char> >&&)#1}, geode::Mod*)::{lambda(std::__ndk1::shared_ptr<geode::SettingV3>)#1}>, void (std::__ndk1::shared_ptr<geode::SettingV3>)>::operator()(std::__ndk1::shared_ptr<geode::SettingV3>&&)
PUBLIC 5e4ec 0 std::__ndk1::__function::__func<geode::listenForSettingChangesV3<std::__ndk1::basic_string<char, std::__ndk1::char_traits<char>, std::__ndk1::allocator<char> >, geodeExecFunction7<(anonymous namespace)::ExecFuncUnique7>(geode::ModStateEvent*)::{lambda(std::__ndk1::basic_string<char, std::__ndk1::char_traits<char>, std::__ndk1::allocator<char> >)#1}>(std::__ndk1::basic_string_view<char, std::__ndk1::char_traits<char> >, geodeExecFunction7<(anonymous namespace)::ExecFuncUnique7>(geode::ModStateEvent*)::{lambda(std::__ndk1::basic_string<char, std::__ndk1::char_traits<char>, std::__ndk1::allocator<char> >&&)#1}, geode::Mod*)::{lambda(std::__ndk1::shared_ptr<geode::SettingV3>)#1}, std::__ndk1::allocator<geode::listenForSettingChangesV3<std::__ndk1::basic_string<char, std::__ndk1::char_traits<char>, std::__ndk1::allocator<char> >, geodeExecFunction7<(anonymous namespace)::ExecFuncUnique7>(geode::ModStateEvent*)::{lambda(std::__ndk1::basic_string<char, std::__ndk1::char_traits<char>, std::__ndk1::allocator<char> >)#1}>(std::__ndk1::basic_string_view<char, std::__ndk1::char_traits<char> >, geodeExecFunction7<(anonymous namespace)::ExecFuncUnique7>(geode::ModStateEvent*)::{lambda(std::__ndk1::basic_string<char, std::__ndk1::char_traits<char>, std::__ndk1::allocator<char> >&&)#1}, geode::Mod*)::{lambda(std::__ndk1::shared_ptr<geode::SettingV3>)#1}>, void (std::__ndk1::shared_ptr<geode::SettingV3>)>::target(std::type_info const&) const
PUBLIC 5e508 0 std::__ndk1::__function::__func<geode::listenForSettingChangesV3<std::__ndk1::basic_string<char, std::__ndk1::char_traits<char>, std::__ndk1::allocator<char> >, geodeExecFunction7<(anonymous namespace)::ExecFuncUnique7>(geode::ModStateEvent*)::{lambda(std::__ndk1::basic_string<char, std::__ndk1::char_traits<char>, std::__ndk1::allocator<char> >)#1}>(std::__ndk1::basic_string_view<char, std::__ndk1::char_traits<char> >, geodeExecFunction7<(anonymous namespace)::ExecFuncUnique7>(geode::ModStateEvent*)::{lambda(std::__ndk1::basic_string<char, std::__ndk1::char_traits<char>, std::__ndk1::allocator<char> >&&)#1}, geode::Mod*)::{lambda(std::__ndk1::shared_ptr<geode::SettingV3>)#1}, std::__ndk1::allocator<geode::listenForSettingChangesV3<std::__ndk1::basic_string<char, std::__ndk1::char_traits<char>, std::__ndk1::allocator<char> >, geodeExecFunction7<(anonymous namespace)::ExecFuncUnique7>(geode::ModStateEvent*)::{lambda(std::__ndk1::basic_string<char, std::__ndk1::char_traits<char>, std::__ndk1::allocator<char> >)#1}>(std::__ndk1::basic_string_view<char, std::__ndk1::char_traits<char> >, geodeExecFunction7<(anonymous namespace)::ExecFuncUnique7>(geode::ModStateEvent*)::{lambda(std::__ndk1::basic_string<char, std::__ndk1::char_traits<char>, std::__ndk1::allocator<char> >&&)#1}, geode::Mod*)::{lambda(std::__ndk1::shared_ptr<geode::SettingV3>)#1}>, void (std::__ndk1::shared_ptr<geode::SettingV3>)>::target_type() const
PUBLIC 5e514 0 std::__ndk1::shared_ptr<geode::StringSettingV3>::~shared_ptr[abi:ne190000]()
PUBLIC 5e564 0 std::__ndk1::__function::__func<geode::listenForSettingChangesV3<std::__ndk1::basic_string<char, std::__ndk1::char_traits<char>, std::__ndk1::allocator<char> >, geodeExecFunction7<(anonymous namespace)::ExecFuncUnique7>(geode::ModStateEvent*)::{lambda(std::__ndk1::basic_string<char, std::__ndk1::char_traits<char>, std::__ndk1::allocator<char> >)#2}>(std::__ndk1::basic_string_view<char, std::__ndk1::char_traits<char> >, geodeExecFunction7<(anonymous namespace)::ExecFuncUnique7>(geode::ModStateEvent*)::{lambda(std::__ndk1::basic_string<char, std::__ndk1::char_traits<char>, std::__ndk1::allocator<char> >&&)#2}, geode::Mod*)::{lambda(std::__ndk1::shared_ptr<geode::SettingV3>)#1}, std::__ndk1::allocator<geode::listenForSettingChangesV3<std::__ndk1::basic_string<char, std::__ndk1::char_traits<char>, std::__ndk1::allocator<char> >, geodeExecFunction7<(anonymous namespace)::ExecFuncUnique7>(geode::ModStateEvent*)::{lambda(std::__ndk1::basic_string<char, std::__ndk1::char_traits<char>, std::__ndk1::allocator<char> >)#2}>(std::__ndk1::basic_string_view<char, std::__ndk1::char_traits<char> >, geodeExecFunction7<(anonymous namespace)::ExecFuncUnique7>(geode::ModStateEvent*)::{lambda(std::__ndk1::basic_string<char, std::__ndk1::char_traits<char>, std::__ndk1::allocator<char> >&&)#2}, geode::Mod*)::{lambda(std::__ndk1::shared_ptr<geode::SettingV3>)#1}>, void (std::__ndk1::shared_ptr<geode::SettingV3>)>::~__func()
PUBLIC 5e568 0 std::__ndk1::__function::__func<geode::listenForSettingChangesV3<std::__ndk1::basic_string<char, std::__ndk1::char_traits<char>, std::__ndk1::allocator<char> >, geodeExecFunction7<(anonymous namespace)::ExecFuncUnique7>(geode::ModStateEvent*)::{lambda(std::__ndk1::basic_string<char, std::__ndk1::char_traits<char>, std::__ndk1::allocator<char> >)#2}>(std::__ndk1::basic_string_view<char, std::__ndk1::char_traits<char> >, geodeExecFunction7<(anonymous namespace)::ExecFuncUnique7>(geode::ModStateEvent*)::{lambda(std::__ndk1::basic_string<char, std::__ndk1::char_traits<char>, std::__ndk1::allocator<char> >&&)#2}, geode::Mod*)::{lambda(std::__ndk1::shared_ptr<geode::SettingV3>)#1}, std::__ndk1::allocator<geode::listenForSettingChangesV3<std::__ndk1::basic_string<char, std::__ndk1::char_traits<char>, std::__ndk1::allocator<char> >, geodeExecFunction7<(anonymous namespace)::ExecFuncUnique7>(geode::ModStateEvent*)::{lambda(std::__ndk1::basic_string<char, std::__ndk1::char_traits<char>, std::__ndk1::allocator<char> >)#2}>(std::__ndk1::basic_string_view<char, std::__ndk1::char_traits<char> >, geodeExecFunction7<(anonymous namespace)::ExecFuncUnique7>(geode::ModStateEvent*)::{lambda(std::__ndk1::basic_string<char, std::__ndk1::char_traits<char>, std::__ndk1::allocator<char> >&&)#2}, geode::Mod*)::{lambda(std::__ndk1::shared_ptr<geode::SettingV3>)#1}>, void (std::__ndk1::shared_ptr<geode::SettingV3>)>::__clone() const
PUBLIC 5e5a0 0 std::__ndk1::__function::__func<geode::listenForSettingChangesV3<std::__ndk1::basic_string<char, std::__ndk1::char_traits<char>, std::__ndk1::allocator<char> >, geodeExecFunction7<(anonymous namespace)::ExecFuncUnique7>(geode::ModStateEvent*)::{lambda(std::__ndk1::basic_string<char, std::__ndk1::char_traits<char>, std::__ndk1::allocator<char> >)#2}>(std::__ndk1::basic_string_view<char, std::__ndk1::char_traits<char> >, geodeExecFunction7<(anonymous namespace)::ExecFuncUnique7>(geode::ModStateEvent*)::{lambda(std::__ndk1::basic_string<char, std::__ndk1::char_traits<char>, std::__ndk1::allocator<char> >&&)#2}, geode::Mod*)::{lambda(std::__ndk1::shared_ptr<geode::SettingV3>)#1}, std::__ndk1::allocator<geode::listenForSettingChangesV3<std::__ndk1::basic_string<char, std::__ndk1::char_traits<char>, std::__ndk1::allocator<char> >, geodeExecFunction7<(anonymous namespace)::ExecFuncUnique7>(geode::ModStateEvent*)::{lambda(std::__ndk1::basic_string<char, std::__ndk1::char_traits<char>, std::__ndk1::allocator<char> >)#2}>(std::__ndk1::basic_string_view<char, std::__ndk1::char_traits<char> >, geodeExecFunction7<(anonymous namespace)::ExecFuncUnique7>(geode::ModStateEvent*)::{lambda(std::__ndk1::basic_string<char, std::__ndk1::char_traits<char>, std::__ndk1::allocator<char> >&&)#2}, geode::Mod*)::{lambda(std::__ndk1::shared_ptr<geode::SettingV3>)#1}>, void (std::__ndk1::shared_ptr<geode::SettingV3>)>::__clone(std::__ndk1::__function::__base<void (std::__ndk1::shared_ptr<geode::SettingV3>)>*) const
PUBLIC 5e5b8 0 std::__ndk1::__function::__func<geode::listenForSettingChangesV3<std::__ndk1::basic_string<char, std::__ndk1::char_traits<char>, std::__ndk1::allocator<char> >, geodeExecFunction7<(anonymous namespace)::ExecFuncUnique7>(geode::ModStateEvent*)::{lambda(std::__ndk1::basic_string<char, std::__ndk1::char_traits<char>, std::__ndk1::allocator<char> >)#2}>(std::__ndk1::basic_string_view<char, std::__ndk1::char_traits<char> >, geodeExecFunction7<(anonymous namespace)::ExecFuncUnique7>(geode::ModStateEvent*)::{lambda(std::__ndk1::basic_string<char, std::__ndk1::char_traits<char>, std::__ndk1::allocator<char> >&&)#2}, geode::Mod*)::{lambda(std::__ndk1::shared_ptr<geode::SettingV3>)#1}, std::__ndk1::allocator<geode::listenForSettingChangesV3<std::__ndk1::basic_string<char, std::__ndk1::char_traits<char>, std::__ndk1::allocator<char> >, geodeExecFunction7<(anonymous namespace)::ExecFuncUnique7>(geode::ModStateEvent*)::{lambda(std::__ndk1::basic_string<char, std::__ndk1::char_traits<char>, std::__ndk1::allocator<char> >)#2}>(std::__ndk1::basic_string_view<char, std::__ndk1::char_traits<char> >, geodeExecFunction7<(anonymous namespace)::ExecFuncUnique7>(geode::ModStateEvent*)::{lambda(std::__ndk1::basic_string<char, std::__ndk1::char_traits<char>, std::__ndk1::allocator<char> >&&)#2}, geode::Mod*)::{lambda(std::__ndk1::shared_ptr<geode::SettingV3>)#1}>, void (std::__ndk1::shared_ptr<geode::SettingV3>)>::destroy()
PUBLIC 5e5bc 0 std::__ndk1::__function::__func<geode::listenForSettingChangesV3<std::__ndk1::basic_string<char, std::__ndk1::char_traits<char>, std::__ndk1::allocator<char> >, geodeExecFunction7<(anonymous namespace)::ExecFuncUnique7>(geode::ModStateEvent*)::{lambda(std::__ndk1::basic_string<char, std::__ndk1::char_traits<char>, std::__ndk1::allocator<char> >)#2}>(std::__ndk1::basic_string_view<char, std::__ndk1::char_traits<char> >, geodeExecFunction7<(anonymous namespace)::ExecFuncUnique7>(geode::ModStateEvent*)::{lambda(std::__ndk1::basic_string<char, std::__ndk1::char_traits<char>, std::__ndk1::allocator<char> >&&)#2}, geode::Mod*)::{lambda(std::__ndk1::shared_ptr<geode::SettingV3>)#1}, std::__ndk1::allocator<geode::listenForSettingChangesV3<std::__ndk1::basic_string<char, std::__ndk1::char_traits<char>, std::__ndk1::allocator<char> >, geodeExecFunction7<(anonymous namespace)::ExecFuncUnique7>(geode::ModStateEvent*)::{lambda(std::__ndk1::basic_string<char, std::__ndk1::char_traits<char>, std::__ndk1::allocator<char> >)#2}>(std::__ndk1::basic_string_view<char, std::__ndk1::char_traits<char> >, geodeExecFunction7<(anonymous namespace)::ExecFuncUnique7>(geode::ModStateEvent*)::{lambda(std::__ndk1::basic_string<char, std::__ndk1::char_traits<char>, std::__ndk1::allocator<char> >&&)#2}, geode::Mod*)::{lambda(std::__ndk1::shared_ptr<geode::SettingV3>)#1}>, void (std::__ndk1::shared_ptr<geode::SettingV3>)>::destroy_deallocate()
PUBLIC 5e5c0 0 std::__ndk1::__function::__func<geode::listenForSettingChangesV3<std::__ndk1::basic_string<char, std::__ndk1::char_traits<char>, std::__ndk1::allocator<char> >, geodeExecFunction7<(anonymous namespace)::ExecFuncUnique7>(geode::ModStateEvent*)::{lambda(std::__ndk1::basic_string<char, std::__ndk1::char_traits<char>, std::__ndk1::allocator<char> >)#2}>(std::__ndk1::basic_string_view<char, std::__ndk1::char_traits<char> >, geodeExecFunction7<(anonymous namespace)::ExecFuncUnique7>(geode::ModStateEvent*)::{lambda(std::__ndk1::basic_string<char, std::__ndk1::char_traits<char>, std::__ndk1::allocator<char> >&&)#2}, geode::Mod*)::{lambda(std::__ndk1::shared_ptr<geode::SettingV3>)#1}, std::__ndk1::allocator<geode::listenForSettingChangesV3<std::__ndk1::basic_string<char, std::__ndk1::char_traits<char>, std::__ndk1::allocator<char> >, geodeExecFunction7<(anonymous namespace)::ExecFuncUnique7>(geode::ModStateEvent*)::{lambda(std::__ndk1::basic_string<char, std::__ndk1::char_traits<char>, std::__ndk1::allocator<char> >)#2}>(std::__ndk1::basic_string_view<char, std::__ndk1::char_traits<char> >, geodeExecFunction7<(anonymous namespace)::ExecFuncUnique7>(geode::ModStateEvent*)::{lambda(std::__ndk1::basic_string<char, std::__ndk1::char_traits<char>, std::__ndk1::allocator<char> >&&)#2}, geode::Mod*)::{lambda(std::__ndk1::shared_ptr<geode::SettingV3>)#1}>, void (std::__ndk1::shared_ptr<geode::SettingV3>)>::operator()(std::__ndk1::shared_ptr<geode::SettingV3>&&)
PUBLIC 5e75c 0 std::__ndk1::__function::__func<geode::listenForSettingChangesV3<std::__ndk1::basic_string<char, std::__ndk1::char_traits<char>, std::__ndk1::allocator<char> >, geodeExecFunction7<(anonymous namespace)::ExecFuncUnique7>(geode::ModStateEvent*)::{lambda(std::__ndk1::basic_string<char, std::__ndk1::char_traits<char>, std::__ndk1::allocator<char> >)#2}>(std::__ndk1::basic_string_view<char, std::__ndk1::char_traits<char> >, geodeExecFunction7<(anonymous namespace)::ExecFuncUnique7>(geode::ModStateEvent*)::{lambda(std::__ndk1::basic_string<char, std::__ndk1::char_traits<char>, std::__ndk1::allocator<char> >&&)#2}, geode::Mod*)::{lambda(std::__ndk1::shared_ptr<geode::SettingV3>)#1}, std::__ndk1::allocator<geode::listenForSettingChangesV3<std::__ndk1::basic_string<char, std::__ndk1::char_traits<char>, std::__ndk1::allocator<char> >, geodeExecFunction7<(anonymous namespace)::ExecFuncUnique7>(geode::ModStateEvent*)::{lambda(std::__ndk1::basic_string<char, std::__ndk1::char_traits<char>, std::__ndk1::allocator<char> >)#2}>(std::__ndk1::basic_string_view<char, std::__ndk1::char_traits<char> >, geodeExecFunction7<(anonymous namespace)::ExecFuncUnique7>(geode::ModStateEvent*)::{lambda(std::__ndk1::basic_string<char, std::__ndk1::char_traits<char>, std::__ndk1::allocator<char> >&&)#2}, geode::Mod*)::{lambda(std::__ndk1::shared_ptr<geode::SettingV3>)#1}>, void (std::__ndk1::shared_ptr<geode::SettingV3>)>::target(std::type_info const&) const
PUBLIC 5e778 0 std::__ndk1::__function::__func<geode::listenForSettingChangesV3<std::__ndk1::basic_string<char, std::__ndk1::char_traits<char>, std::__ndk1::allocator<char> >, geodeExecFunction7<(anonymous namespace)::ExecFuncUnique7>(geode::ModStateEvent*)::{lambda(std::__ndk1::basic_string<char, std::__ndk1::char_traits<char>, std::__ndk1::allocator<char> >)#2}>(std::__ndk1::basic_string_view<char, std::__ndk1::char_traits<char> >, geodeExecFunction7<(anonymous namespace)::ExecFuncUnique7>(geode::ModStateEvent*)::{lambda(std::__ndk1::basic_string<char, std::__ndk1::char_traits<char>, std::__ndk1::allocator<char> >&&)#2}, geode::Mod*)::{lambda(std::__ndk1::shared_ptr<geode::SettingV3>)#1}, std::__ndk1::allocator<geode::listenForSettingChangesV3<std::__ndk1::basic_string<char, std::__ndk1::char_traits<char>, std::__ndk1::allocator<char> >, geodeExecFunction7<(anonymous namespace)::ExecFuncUnique7>(geode::ModStateEvent*)::{lambda(std::__ndk1::basic_string<char, std::__ndk1::char_traits<char>, std::__ndk1::allocator<char> >)#2}>(std::__ndk1::basic_string_view<char, std::__ndk1::char_traits<char> >, geodeExecFunction7<(anonymous namespace)::ExecFuncUnique7>(geode::ModStateEvent*)::{lambda(std::__ndk1::basic_string<char, std::__ndk1::char_traits<char>, std::__ndk1::allocator<char> >&&)#2}, geode::Mod*)::{lambda(std::__ndk1::shared_ptr<geode::SettingV3>)#1}>, void (std::__ndk1::shared_ptr<geode::SettingV3>)>::target_type() const
PUBLIC 5e784 0 std::__ndk1::__function::__base<void (std::__ndk1::shared_ptr<geode::SettingV3>)>::~__base()
PUBLIC 5e788 0 std::__ndk1::__function::__func<geode::listenForSettingChangesV3<std::__ndk1::__fs::filesystem::path, geodeExecFunction7<(anonymous namespace)::ExecFuncUnique7>(geode::ModStateEvent*)::{lambda(std::__ndk1::__fs::filesystem::path)#1}>(std::__ndk1::basic_string_view<char, std::__ndk1::char_traits<char> >, geodeExecFunction7<(anonymous namespace)::ExecFuncUnique7>(geode::ModStateEvent*)::{lambda(std::__ndk1::__fs::filesystem::path&&)#1}, geode::Mod*)::{lambda(std::__ndk1::shared_ptr<geode::SettingV3>)#1}, std::__ndk1::allocator<geode::listenForSettingChangesV3<std::__ndk1::__fs::filesystem::path, geodeExecFunction7<(anonymous namespace)::ExecFuncUnique7>(geode::ModStateEvent*)::{lambda(std::__ndk1::__fs::filesystem::path)#1}>(std::__ndk1::basic_string_view<char, std::__ndk1::char_traits<char> >, geodeExecFunction7<(anonymous namespace)::ExecFuncUnique7>(geode::ModStateEvent*)::{lambda(std::__ndk1::__fs::filesystem::path&&)#1}, geode::Mod*)::{lambda(std::__ndk1::shared_ptr<geode::SettingV3>)#1}>, void (std::__ndk1::shared_ptr<geode::SettingV3>)>::~__func()
PUBLIC 5e78c 0 std::__ndk1::__function::__func<geode::listenForSettingChangesV3<std::__ndk1::__fs::filesystem::path, geodeExecFunction7<(anonymous namespace)::ExecFuncUnique7>(geode::ModStateEvent*)::{lambda(std::__ndk1::__fs::filesystem::path)#1}>(std::__ndk1::basic_string_view<char, std::__ndk1::char_traits<char> >, geodeExecFunction7<(anonymous namespace)::ExecFuncUnique7>(geode::ModStateEvent*)::{lambda(std::__ndk1::__fs::filesystem::path&&)#1}, geode::Mod*)::{lambda(std::__ndk1::shared_ptr<geode::SettingV3>)#1}, std::__ndk1::allocator<geode::listenForSettingChangesV3<std::__ndk1::__fs::filesystem::path, geodeExecFunction7<(anonymous namespace)::ExecFuncUnique7>(geode::ModStateEvent*)::{lambda(std::__ndk1::__fs::filesystem::path)#1}>(std::__ndk1::basic_string_view<char, std::__ndk1::char_traits<char> >, geodeExecFunction7<(anonymous namespace)::ExecFuncUnique7>(geode::ModStateEvent*)::{lambda(std::__ndk1::__fs::filesystem::path&&)#1}, geode::Mod*)::{lambda(std::__ndk1::shared_ptr<geode::SettingV3>)#1}>, void (std::__ndk1::shared_ptr<geode::SettingV3>)>::__clone() const
PUBLIC 5e7c4 0 std::__ndk1::__function::__func<geode::listenForSettingChangesV3<std::__ndk1::__fs::filesystem::path, geodeExecFunction7<(anonymous namespace)::ExecFuncUnique7>(geode::ModStateEvent*)::{lambda(std::__ndk1::__fs::filesystem::path)#1}>(std::__ndk1::basic_string_view<char, std::__ndk1::char_traits<char> >, geodeExecFunction7<(anonymous namespace)::ExecFuncUnique7>(geode::ModStateEvent*)::{lambda(std::__ndk1::__fs::filesystem::path&&)#1}, geode::Mod*)::{lambda(std::__ndk1::shared_ptr<geode::SettingV3>)#1}, std::__ndk1::allocator<geode::listenForSettingChangesV3<std::__ndk1::__fs::filesystem::path, geodeExecFunction7<(anonymous namespace)::ExecFuncUnique7>(geode::ModStateEvent*)::{lambda(std::__ndk1::__fs::filesystem::path)#1}>(std::__ndk1::basic_string_view<char, std::__ndk1::char_traits<char> >, geodeExecFunction7<(anonymous namespace)::ExecFuncUnique7>(geode::ModStateEvent*)::{lambda(std::__ndk1::__fs::filesystem::path&&)#1}, geode::Mod*)::{lambda(std::__ndk1::shared_ptr<geode::SettingV3>)#1}>, void (std::__ndk1::shared_ptr<geode::SettingV3>)>::__clone(std::__ndk1::__function::__base<void (std::__ndk1::shared_ptr<geode::SettingV3>)>*) const
PUBLIC 5e7dc 0 std::__ndk1::__function::__func<geode::listenForSettingChangesV3<std::__ndk1::__fs::filesystem::path, geodeExecFunction7<(anonymous namespace)::ExecFuncUnique7>(geode::ModStateEvent*)::{lambda(std::__ndk1::__fs::filesystem::path)#1}>(std::__ndk1::basic_string_view<char, std::__ndk1::char_traits<char> >, geodeExecFunction7<(anonymous namespace)::ExecFuncUnique7>(geode::ModStateEvent*)::{lambda(std::__ndk1::__fs::filesystem::path&&)#1}, geode::Mod*)::{lambda(std::__ndk1::shared_ptr<geode::SettingV3>)#1}, std::__ndk1::allocator<geode::listenForSettingChangesV3<std::__ndk1::__fs::filesystem::path, geodeExecFunction7<(anonymous namespace)::ExecFuncUnique7>(geode::ModStateEvent*)::{lambda(std::__ndk1::__fs::filesystem::path)#1}>(std::__ndk1::basic_string_view<char, std::__ndk1::char_traits<char> >, geodeExecFunction7<(anonymous namespace)::ExecFuncUnique7>(geode::ModStateEvent*)::{lambda(std::__ndk1::__fs::filesystem::path&&)#1}, geode::Mod*)::{lambda(std::__ndk1::shared_ptr<geode::SettingV3>)#1}>, void (std::__ndk1::shared_ptr<geode::SettingV3>)>::destroy()
PUBLIC 5e7e0 0 std::__ndk1::__function::__func<geode::listenForSettingChangesV3<std::__ndk1::__fs::filesystem::path, geodeExecFunction7<(anonymous namespace)::ExecFuncUnique7>(geode::ModStateEvent*)::{lambda(std::__ndk1::__fs::filesystem::path)#1}>(std::__ndk1::basic_string_view<char, std::__ndk1::char_traits<char> >, geodeExecFunction7<(anonymous namespace)::ExecFuncUnique7>(geode::ModStateEvent*)::{lambda(std::__ndk1::__fs::filesystem::path&&)#1}, geode::Mod*)::{lambda(std::__ndk1::shared_ptr<geode::SettingV3>)#1}, std::__ndk1::allocator<geode::listenForSettingChangesV3<std::__ndk1::__fs::filesystem::path, geodeExecFunction7<(anonymous namespace)::ExecFuncUnique7>(geode::ModStateEvent*)::{lambda(std::__ndk1::__fs::filesystem::path)#1}>(std::__ndk1::basic_string_view<char, std::__ndk1::char_traits<char> >, geodeExecFunction7<(anonymous namespace)::ExecFuncUnique7>(geode::ModStateEvent*)::{lambda(std::__ndk1::__fs::filesystem::path&&)#1}, geode::Mod*)::{lambda(std::__ndk1::shared_ptr<geode::SettingV3>)#1}>, void (std::__ndk1::shared_ptr<geode::SettingV3>)>::destroy_deallocate()
PUBLIC 5e7e4 0 std::__ndk1::__function::__func<geode::listenForSettingChangesV3<std::__ndk1::__fs::filesystem::path, geodeExecFunction7<(anonymous namespace)::ExecFuncUnique7>(geode::ModStateEvent*)::{lambda(std::__ndk1::__fs::filesystem::path)#1}>(std::__ndk1::basic_string_view<char, std::__ndk1::char_traits<char> >, geodeExecFunction7<(anonymous namespace)::ExecFuncUnique7>(geode::ModStateEvent*)::{lambda(std::__ndk1::__fs::filesystem::path&&)#1}, geode::Mod*)::{lambda(std::__ndk1::shared_ptr<geode::SettingV3>)#1}, std::__ndk1::allocator<geode::listenForSettingChangesV3<std::__ndk1::__fs::filesystem::path, geodeExecFunction7<(anonymous namespace)::ExecFuncUnique7>(geode::ModStateEvent*)::{lambda(std::__ndk1::__fs::filesystem::path)#1}>(std::__ndk1::basic_string_view<char, std::__ndk1::char_traits<char> >, geodeExecFunction7<(anonymous namespace)::ExecFuncUnique7>(geode::ModStateEvent*)::{lambda(std::__ndk1::__fs::filesystem::path&&)#1}, geode::Mod*)::{lambda(std::__ndk1::shared_ptr<geode::SettingV3>)#1}>, void (std::__ndk1::shared_ptr<geode::SettingV3>)>::operator()(std::__ndk1::shared_ptr<geode::SettingV3>&&)
PUBLIC 5e97c 0 std::__ndk1::__function::__func<geode::listenForSettingChangesV3<std::__ndk1::__fs::filesystem::path, geodeExecFunction7<(anonymous namespace)::ExecFuncUnique7>(geode::ModStateEvent*)::{lambda(std::__ndk1::__fs::filesystem::path)#1}>(std::__ndk1::basic_string_view<char, std::__ndk1::char_traits<char> >, geodeExecFunction7<(anonymous namespace)::ExecFuncUnique7>(geode::ModStateEvent*)::{lambda(std::__ndk1::__fs::filesystem::path&&)#1}, geode::Mod*)::{lambda(std::__ndk1::shared_ptr<geode::SettingV3>)#1}, std::__ndk1::allocator<geode::listenForSettingChangesV3<std::__ndk1::__fs::filesystem::path, geodeExecFunction7<(anonymous namespace)::ExecFuncUnique7>(geode::ModStateEvent*)::{lambda(std::__ndk1::__fs::filesystem::path)#1}>(std::__ndk1::basic_string_view<char, std::__ndk1::char_traits<char> >, geodeExecFunction7<(anonymous namespace)::ExecFuncUnique7>(geode::ModStateEvent*)::{lambda(std::__ndk1::__fs::filesystem::path&&)#1}, geode::Mod*)::{lambda(std::__ndk1::shared_ptr<geode::SettingV3>)#1}>, void (std::__ndk1::shared_ptr<geode::SettingV3>)>::target(std::type_info const&) const
PUBLIC 5e998 0 std::__ndk1::__function::__func<geode::listenForSettingChangesV3<std::__ndk1::__fs::filesystem::path, geodeExecFunction7<(anonymous namespace)::ExecFuncUnique7>(geode::ModStateEvent*)::{lambda(std::__ndk1::__fs::filesystem::path)#1}>(std::__ndk1::basic_string_view<char, std::__ndk1::char_traits<char> >, geodeExecFunction7<(anonymous namespace)::ExecFuncUnique7>(geode::ModStateEvent*)::{lambda(std::__ndk1::__fs::filesystem::path&&)#1}, geode::Mod*)::{lambda(std::__ndk1::shared_ptr<geode::SettingV3>)#1}, std::__ndk1::allocator<geode::listenForSettingChangesV3<std::__ndk1::__fs::filesystem::path, geodeExecFunction7<(anonymous namespace)::ExecFuncUnique7>(geode::ModStateEvent*)::{lambda(std::__ndk1::__fs::filesystem::path)#1}>(std::__ndk1::basic_string_view<char, std::__ndk1::char_traits<char> >, geodeExecFunction7<(anonymous namespace)::ExecFuncUnique7>(geode::ModStateEvent*)::{lambda(std::__ndk1::__fs::filesystem::path&&)#1}, geode::Mod*)::{lambda(std::__ndk1::shared_ptr<geode::SettingV3>)#1}>, void (std::__ndk1::shared_ptr<geode::SettingV3>)>::target_type() const
PUBLIC 5e9a4 0 std::__ndk1::__function::__base<geode::Result<std::__ndk1::shared_ptr<geode::SettingV3>, std::__ndk1::basic_string<char, std::__ndk1::char_traits<char>, std::__ndk1::allocator<char> > >(std::__ndk1::basic_string<char, std::__ndk1::char_traits<char>, std::__ndk1::allocator<char> > const&, std::__ndk1::basic_string<char, std::__ndk1::char_traits<char>, std::__ndk1::allocator<char> > const&, matjson::Value const&)>::~__base()
PUBLIC 5e9a8 0 std::__ndk1::__function::__func<geode::Result<std::__ndk1::shared_ptr<geode::SettingV3>, std::__ndk1::basic_string<char, std::__ndk1::char_traits<char>, std::__ndk1::allocator<char> > > (*)(std::__ndk1::basic_string<char, std::__ndk1::char_traits<char>, std::__ndk1::allocator<char> > const&, std::__ndk1::basic_string<char, std::__ndk1::char_traits<char>, std::__ndk1::allocator<char> > const&, matjson::Value const&), std::__ndk1::allocator<geode::Result<std::__ndk1::shared_ptr<geode::SettingV3>, std::__ndk1::basic_string<char, std::__ndk1::char_traits<char>, std::__ndk1::allocator<char> > > (*)(std::__ndk1::basic_string<char, std::__ndk1::char_traits<char>, std::__ndk1::allocator<char> > const&, std::__ndk1::basic_string<char, std::__ndk1::char_traits<char>, std::__ndk1::allocator<char> > const&, matjson::Value const&)>, geode::Result<std::__ndk1::shared_ptr<geode::SettingV3>, std::__ndk1::basic_string<char, std::__ndk1::char_traits<char>, std::__ndk1::allocator<char> > >(std::__ndk1::basic_string<char, std::__ndk1::char_traits<char>, std::__ndk1::allocator<char> > const&, std::__ndk1::basic_string<char, std::__ndk1::char_traits<char>, std::__ndk1::allocator<char> > const&, matjson::Value const&)>::~__func()
PUBLIC 5e9ac 0 std::__ndk1::__function::__func<geode::Result<std::__ndk1::shared_ptr<geode::SettingV3>, std::__ndk1::basic_string<char, std::__ndk1::char_traits<char>, std::__ndk1::allocator<char> > > (*)(std::__ndk1::basic_string<char, std::__ndk1::char_traits<char>, std::__ndk1::allocator<char> > const&, std::__ndk1::basic_string<char, std::__ndk1::char_traits<char>, std::__ndk1::allocator<char> > const&, matjson::Value const&), std::__ndk1::allocator<geode::Result<std::__ndk1::shared_ptr<geode::SettingV3>, std::__ndk1::basic_string<char, std::__ndk1::char_traits<char>, std::__ndk1::allocator<char> > > (*)(std::__ndk1::basic_string<char, std::__ndk1::char_traits<char>, std::__ndk1::allocator<char> > const&, std::__ndk1::basic_string<char, std::__ndk1::char_traits<char>, std::__ndk1::allocator<char> > const&, matjson::Value const&)>, geode::Result<std::__ndk1::shared_ptr<geode::SettingV3>, std::__ndk1::basic_string<char, std::__ndk1::char_traits<char>, std::__ndk1::allocator<char> > >(std::__ndk1::basic_string<char, std::__ndk1::char_traits<char>, std::__ndk1::allocator<char> > const&, std::__ndk1::basic_string<char, std::__ndk1::char_traits<char>, std::__ndk1::allocator<char> > const&, matjson::Value const&)>::__clone() const
PUBLIC 5e9e0 0 std::__ndk1::__function::__func<geode::Result<std::__ndk1::shared_ptr<geode::SettingV3>, std::__ndk1::basic_string<char, std::__ndk1::char_traits<char>, std::__ndk1::allocator<char> > > (*)(std::__ndk1::basic_string<char, std::__ndk1::char_traits<char>, std::__ndk1::allocator<char> > const&, std::__ndk1::basic_string<char, std::__ndk1::char_traits<char>, std::__ndk1::allocator<char> > const&, matjson::Value const&), std::__ndk1::allocator<geode::Result<std::__ndk1::shared_ptr<geode::SettingV3>, std::__ndk1::basic_string<char, std::__ndk1::char_traits<char>, std::__ndk1::allocator<char> > > (*)(std::__ndk1::basic_string<char, std::__ndk1::char_traits<char>, std::__ndk1::allocator<char> > const&, std::__ndk1::basic_string<char, std::__ndk1::char_traits<char>, std::__ndk1::allocator<char> > const&, matjson::Value const&)>, geode::Result<std::__ndk1::shared_ptr<geode::SettingV3>, std::__ndk1::basic_string<char, std::__ndk1::char_traits<char>, std::__ndk1::allocator<char> > >(std::__ndk1::basic_string<char, std::__ndk1::char_traits<char>, std::__ndk1::allocator<char> > const&, std::__ndk1::basic_string<char, std::__ndk1::char_traits<char>, std::__ndk1::allocator<char> > const&, matjson::Value const&)>::__clone(std::__ndk1::__function::__base<geode::Result<std::__ndk1::shared_ptr<geode::SettingV3>, std::__ndk1::basic_string<char, std::__ndk1::char_traits<char>, std::__ndk1::allocator<char> > >(std::__ndk1::basic_string<char, std::__ndk1::char_traits<char>, std::__ndk1::allocator<char> > const&, std::__ndk1::basic_string<char, std::__ndk1::char_traits<char>, std::__ndk1::allocator<char> > const&, matjson::Value const&)>*) const
PUBLIC 5e9f4 0 std::__ndk1::__function::__func<geode::Result<std::__ndk1::shared_ptr<geode::SettingV3>, std::__ndk1::basic_string<char, std::__ndk1::char_traits<char>, std::__ndk1::allocator<char> > > (*)(std::__ndk1::basic_string<char, std::__ndk1::char_traits<char>, std::__ndk1::allocator<char> > const&, std::__ndk1::basic_string<char, std::__ndk1::char_traits<char>, std::__ndk1::allocator<char> > const&, matjson::Value const&), std::__ndk1::allocator<geode::Result<std::__ndk1::shared_ptr<geode::SettingV3>, std::__ndk1::basic_string<char, std::__ndk1::char_traits<char>, std::__ndk1::allocator<char> > > (*)(std::__ndk1::basic_string<char, std::__ndk1::char_traits<char>, std::__ndk1::allocator<char> > const&, std::__ndk1::basic_string<char, std::__ndk1::char_traits<char>, std::__ndk1::allocator<char> > const&, matjson::Value const&)>, geode::Result<std::__ndk1::shared_ptr<geode::SettingV3>, std::__ndk1::basic_string<char, std::__ndk1::char_traits<char>, std::__ndk1::allocator<char> > >(std::__ndk1::basic_string<char, std::__ndk1::char_traits<char>, std::__ndk1::allocator<char> > const&, std::__ndk1::basic_string<char, std::__ndk1::char_traits<char>, std::__ndk1::allocator<char> > const&, matjson::Value const&)>::destroy()
PUBLIC 5e9f8 0 std::__ndk1::__function::__func<geode::Result<std::__ndk1::shared_ptr<geode::SettingV3>, std::__ndk1::basic_string<char, std::__ndk1::char_traits<char>, std::__ndk1::allocator<char> > > (*)(std::__ndk1::basic_string<char, std::__ndk1::char_traits<char>, std::__ndk1::allocator<char> > const&, std::__ndk1::basic_string<char, std::__ndk1::char_traits<char>, std::__ndk1::allocator<char> > const&, matjson::Value const&), std::__ndk1::allocator<geode::Result<std::__ndk1::shared_ptr<geode::SettingV3>, std::__ndk1::basic_string<char, std::__ndk1::char_traits<char>, std::__ndk1::allocator<char> > > (*)(std::__ndk1::basic_string<char, std::__ndk1::char_traits<char>, std::__ndk1::allocator<char> > const&, std::__ndk1::basic_string<char, std::__ndk1::char_traits<char>, std::__ndk1::allocator<char> > const&, matjson::Value const&)>, geode::Result<std::__ndk1::shared_ptr<geode::SettingV3>, std::__ndk1::basic_string<char, std::__ndk1::char_traits<char>, std::__ndk1::allocator<char> > >(std::__ndk1::basic_string<char, std::__ndk1::char_traits<char>, std::__ndk1::allocator<char> > const&, std::__ndk1::basic_string<char, std::__ndk1::char_traits<char>, std::__ndk1::allocator<char> > const&, matjson::Value const&)>::destroy_deallocate()
PUBLIC 5e9fc 0 std::__ndk1::__function::__func<geode::Result<std::__ndk1::shared_ptr<geode::SettingV3>, std::__ndk1::basic_string<char, std::__ndk1::char_traits<char>, std::__ndk1::allocator<char> > > (*)(std::__ndk1::basic_string<char, std::__ndk1::char_traits<char>, std::__ndk1::allocator<char> > const&, std::__ndk1::basic_string<char, std::__ndk1::char_traits<char>, std::__ndk1::allocator<char> > const&, matjson::Value const&), std::__ndk1::allocator<geode::Result<std::__ndk1::shared_ptr<geode::SettingV3>, std::__ndk1::basic_string<char, std::__ndk1::char_traits<char>, std::__ndk1::allocator<char> > > (*)(std::__ndk1::basic_string<char, std::__ndk1::char_traits<char>, std::__ndk1::allocator<char> > const&, std::__ndk1::basic_string<char, std::__ndk1::char_traits<char>, std::__ndk1::allocator<char> > const&, matjson::Value const&)>, geode::Result<std::__ndk1::shared_ptr<geode::SettingV3>, std::__ndk1::basic_string<char, std::__ndk1::char_traits<char>, std::__ndk1::allocator<char> > >(std::__ndk1::basic_string<char, std::__ndk1::char_traits<char>, std::__ndk1::allocator<char> > const&, std::__ndk1::basic_string<char, std::__ndk1::char_traits<char>, std::__ndk1::allocator<char> > const&, matjson::Value const&)>::operator()(std::__ndk1::basic_string<char, std::__ndk1::char_traits<char>, std::__ndk1::allocator<char> > const&, std::__ndk1::basic_string<char, std::__ndk1::char_traits<char>, std::__ndk1::allocator<char> > const&, matjson::Value const&)
PUBLIC 5ea10 0 std::__ndk1::__function::__func<geode::Result<std::__ndk1::shared_ptr<geode::SettingV3>, std::__ndk1::basic_string<char, std::__ndk1::char_traits<char>, std::__ndk1::allocator<char> > > (*)(std::__ndk1::basic_string<char, std::__ndk1::char_traits<char>, std::__ndk1::allocator<char> > const&, std::__ndk1::basic_string<char, std::__ndk1::char_traits<char>, std::__ndk1::allocator<char> > const&, matjson::Value const&), std::__ndk1::allocator<geode::Result<std::__ndk1::shared_ptr<geode::SettingV3>, std::__ndk1::basic_string<char, std::__ndk1::char_traits<char>, std::__ndk1::allocator<char> > > (*)(std::__ndk1::basic_string<char, std::__ndk1::char_traits<char>, std::__ndk1::allocator<char> > const&, std::__ndk1::basic_string<char, std::__ndk1::char_traits<char>, std::__ndk1::allocator<char> > const&, matjson::Value const&)>, geode::Result<std::__ndk1::shared_ptr<geode::SettingV3>, std::__ndk1::basic_string<char, std::__ndk1::char_traits<char>, std::__ndk1::allocator<char> > >(std::__ndk1::basic_string<char, std::__ndk1::char_traits<char>, std::__ndk1::allocator<char> > const&, std::__ndk1::basic_string<char, std::__ndk1::char_traits<char>, std::__ndk1::allocator<char> > const&, matjson::Value const&)>::target(std::type_info const&) const
PUBLIC 5ea2c 0 std::__ndk1::__function::__func<geode::Result<std::__ndk1::shared_ptr<geode::SettingV3>, std::__ndk1::basic_string<char, std::__ndk1::char_traits<char>, std::__ndk1::allocator<char> > > (*)(std::__ndk1::basic_string<char, std::__ndk1::char_traits<char>, std::__ndk1::allocator<char> > const&, std::__ndk1::basic_string<char, std::__ndk1::char_traits<char>, std::__ndk1::allocator<char> > const&, matjson::Value const&), std::__ndk1::allocator<geode::Result<std::__ndk1::shared_ptr<geode::SettingV3>, std::__ndk1::basic_string<char, std::__ndk1::char_traits<char>, std::__ndk1::allocator<char> > > (*)(std::__ndk1::basic_string<char, std::__ndk1::char_traits<char>, std::__ndk1::allocator<char> > const&, std::__ndk1::basic_string<char, std::__ndk1::char_traits<char>, std::__ndk1::allocator<char> > const&, matjson::Value const&)>, geode::Result<std::__ndk1::shared_ptr<geode::SettingV3>, std::__ndk1::basic_string<char, std::__ndk1::char_traits<char>, std::__ndk1::allocator<char> > >(std::__ndk1::basic_string<char, std::__ndk1::char_traits<char>, std::__ndk1::allocator<char> > const&, std::__ndk1::basic_string<char, std::__ndk1::char_traits<char>, std::__ndk1::allocator<char> > const&, matjson::Value const&)>::target_type() const
PUBLIC 5ea38 0 _GLOBAL__sub_I_main.cpp
PUBLIC 5eb50 0 ReloadSongNode::create(std::__ndk1::shared_ptr<ReloadSongSetting>, float)
PUBLIC 5ec80 0 ReloadSongNode::init(std::__ndk1::shared_ptr<ReloadSongSetting>, float)
PUBLIC 5edd8 0 std::__ndk1::shared_ptr<ReloadSongSetting>::~shared_ptr[abi:ne190000]()
PUBLIC 5ee28 0 ReloadSongNode::onButton(cocos2d::CCObject*)
PUBLIC 5ee3c 0 ReloadSongNode::onCommit()
PUBLIC 5ee40 0 ReloadSongNode::onResetToDefault()
PUBLIC 5ee44 0 ReloadSongNode::hasUncommittedChanges() const
PUBLIC 5ee4c 0 ReloadSongNode::hasNonDefaultValue() const
PUBLIC 5ee54 0 geode::SettingNodeV3::~SettingNodeV3()
PUBLIC 5eec4 0 ReloadSongNode::~ReloadSongNode()
PUBLIC 5ef44 0 ReloadSongSetting::parse(std::__ndk1::basic_string<char, std::__ndk1::char_traits<char>, std::__ndk1::allocator<char> > const&, std::__ndk1::basic_string<char, std::__ndk1::char_traits<char>, std::__ndk1::allocator<char> > const&, matjson::Value const&)
PUBLIC 5f2d0 0 ReloadSongSetting::load(matjson::Value const&)
PUBLIC 5f2d8 0 ReloadSongSetting::save(matjson::Value&) const
PUBLIC 5f2e0 0 ReloadSongSetting::isDefaultValue() const
PUBLIC 5f2e8 0 ReloadSongSetting::reset()
PUBLIC 5f2ec 0 ReloadSongSetting::createNode(float)
PUBLIC 5f410 0 ReloadSongSetting::~ReloadSongSetting()
PUBLIC 5f434 0 std::__ndk1::__shared_ptr_emplace<ReloadSongSetting, std::__ndk1::allocator<ReloadSongSetting> >::~__shared_ptr_emplace()
PUBLIC 5f444 0 std::__ndk1::__shared_ptr_emplace<ReloadSongSetting, std::__ndk1::allocator<ReloadSongSetting> >::~__shared_ptr_emplace()
PUBLIC 5f474 0 std::__ndk1::__shared_ptr_emplace<ReloadSongSetting, std::__ndk1::allocator<ReloadSongSetting> >::__on_zero_shared()
PUBLIC 5f480 0 std::__ndk1::__shared_ptr_emplace<ReloadSongSetting, std::__ndk1::allocator<ReloadSongSetting> >::__on_zero_shared_weak()
PUBLIC 5f484 0 geode::impl::ResultData<void, std::__ndk1::basic_string<char, std::__ndk1::char_traits<char>, std::__ndk1::allocator<char> > >::~ResultData()
PUBLIC 5f4f8 0 std::__ndk1::__throw_bad_weak_ptr[abi:ne190000]()
PUBLIC 5f52c 0 CurrentSongNode::create()
PUBLIC 5f5b4 0 CurrentSongNode::init()
PUBLIC 5fb48 0 CurrentSongNode::onButton(cocos2d::CCObject*)
PUBLIC 5fc50 0 CurrentSongNode::update(float)
PUBLIC 6007c 0 CurrentSongNode::~CurrentSongNode()
PUBLIC 600e8 0 CurrentSongNode::~CurrentSongNode()
PUBLIC 60164 0 PreloadUI::create()
PUBLIC 601f4 0 PreloadUI::init()
PUBLIC 60654 0 PreloadUI::addToSceneAndAnimate()
PUBLIC 606d4 0 PreloadUI::increment(std::__ndk1::basic_string<char, std::__ndk1::char_traits<char>, std::__ndk1::allocator<char> >)
PUBLIC 60818 0 PreloadUI::runCompleteAnimationAndRemove()
PUBLIC 60a50 0 PreloadUI::~PreloadUI()
PUBLIC 60a74 0 cocos2d::CCNodeRGBA::setOpacityModifyRGB(bool)
PUBLIC 60a78 0 cocos2d::CCNodeRGBA::isOpacityModifyRGB()
PUBLIC 60a80 0 {virtual override thunk({offset(-320)}, cocos2d::CCNodeRGBA::setOpacityModifyRGB(bool))}
PUBLIC 60a84 0 {virtual override thunk({offset(-320)}, cocos2d::CCNodeRGBA::isOpacityModifyRGB())}
PUBLIC 60a8c 0 ProgressBar::create(float)
PUBLIC 60b2c 0 ProgressBar::init(float)
PUBLIC 60f10 0 ProgressBar::setValue(float)
PUBLIC 60fdc 0 ProgressBar::~ProgressBar()
PUBLIC 61000 0 SongInfoPopup::create()
PUBLIC 61120 0 SongInfoPopup::get()
PUBLIC 611ec 0 SongInfoPopup::setup()
PUBLIC 62428 0 geode::Popup<>::setTitle(std::__ndk1::basic_string<char, std::__ndk1::char_traits<char>, std::__ndk1::allocator<char> > const&, char const*, float, float)
PUBLIC 62578 0 SongInfoPopup::onNoSongsRefresh(cocos2d::CCObject*)
PUBLIC 625b0 0 SongInfoPopup::onSettings(cocos2d::CCObject*)
PUBLIC 625f4 0 SongInfoPopup::onPlayPause(cocos2d::CCObject*)
PUBLIC 62608 0 SongInfoPopup::onPrev(cocos2d::CCObject*)
PUBLIC 6261c 0 SongInfoPopup::onNext(cocos2d::CCObject*)
PUBLIC 62630 0 SongInfoPopup::onRewind(cocos2d::CCObject*)
PUBLIC 62644 0 SongInfoPopup::onFastForward(cocos2d::CCObject*)
PUBLIC 62658 0 SongInfoPopup::updateCustomizableUI()
PUBLIC 628e0 0 SongInfoPopup::update(float)
PUBLIC 6320c 0 geode::Mod::getSettingValue<std::__ndk1::basic_string<char, std::__ndk1::char_traits<char>, std::__ndk1::allocator<char> > >(std::__ndk1::basic_string_view<char, std::__ndk1::char_traits<char> >) const
PUBLIC 6339c 0 std::__ndk1::array<std::__ndk1::basic_string<char, std::__ndk1::char_traits<char>, std::__ndk1::allocator<char> >, (unsigned long)7>::~array()
PUBLIC 63460 0 SongInfoPopup::close()
PUBLIC 63470 0 SongInfoPopup::~SongInfoPopup()
PUBLIC 63548 0 SongInfoPopup::~SongInfoPopup()
PUBLIC 63628 0 geode::Popup<>::registerWithTouchDispatcher()
PUBLIC 63654 0 geode::Popup<>::keyDown(cocos2d::enumKeyCodes)
PUBLIC 6367c 0 cocos2d::CCLayerRGBA::setOpacityModifyRGB(bool)
PUBLIC 63680 0 cocos2d::CCLayerRGBA::isOpacityModifyRGB()
PUBLIC 63688 0 geode::Popup<>::onClose(cocos2d::CCObject*)
PUBLIC 637bc 0 {virtual override thunk({offset(-320)}, SongInfoPopup::~SongInfoPopup())}
PUBLIC 638a0 0 {virtual override thunk({offset(-320)}, SongInfoPopup::~SongInfoPopup())}
PUBLIC 6398c 0 {virtual override thunk({offset(-344)}, geode::Popup<>::keyDown(cocos2d::enumKeyCodes))}
PUBLIC 639b8 0 cocos2d::CCKeyboardDelegate::keyUp(cocos2d::enumKeyCodes)
PUBLIC 639bc 0 cocos2d::CCMouseDelegate::rightKeyDown()
PUBLIC 639c0 0 cocos2d::CCMouseDelegate::rightKeyUp()
PUBLIC 639c4 0 cocos2d::CCMouseDelegate::scrollWheel(float, float)
PUBLIC 639c8 0 {virtual override thunk({offset(-408)}, cocos2d::CCLayerRGBA::setOpacityModifyRGB(bool))}
PUBLIC 639cc 0 {virtual override thunk({offset(-408)}, cocos2d::CCLayerRGBA::isOpacityModifyRGB())}
PUBLIC 639d4 0 geode::Popup<>::~Popup()
PUBLIC 63a40 0 geode::Popup<>::~Popup()
PUBLIC 63a44 0 {virtual override thunk({offset(-320)}, geode::Popup<>::~Popup())}
PUBLIC 63ab0 0 {virtual override thunk({offset(-320)}, geode::Popup<>::~Popup())}
PUBLIC 63ab4 0 geode::Popup<>::initBase(float, float, char const*, cocos2d::CCRect, bool)
PUBLIC 63db8 0 geode::Popup<>::CloseEvent::~CloseEvent()
PUBLIC 63e18 0 geode::Popup<>::CloseEvent::~CloseEvent()
PUBLIC 63e88 0 std::__ndk1::__shared_ptr_emplace<geode::Popup<>::CloseEvent::Impl, std::__ndk1::allocator<geode::Popup<>::CloseEvent::Impl> >::~__shared_ptr_emplace()
PUBLIC 63e98 0 std::__ndk1::__shared_ptr_emplace<geode::Popup<>::CloseEvent::Impl, std::__ndk1::allocator<geode::Popup<>::CloseEvent::Impl> >::~__shared_ptr_emplace()
PUBLIC 63ec8 0 std::__ndk1::__shared_ptr_emplace<geode::Popup<>::CloseEvent::Impl, std::__ndk1::allocator<geode::Popup<>::CloseEvent::Impl> >::__on_zero_shared()
PUBLIC 63ecc 0 std::__ndk1::__shared_ptr_emplace<geode::Popup<>::CloseEvent::Impl, std::__ndk1::allocator<geode::Popup<>::CloseEvent::Impl> >::__on_zero_shared_weak()
PUBLIC 63ed0 0 em::utils::formatTime(unsigned int)
PUBLIC 63fa4 0 em::utils::mimeTypeToFormat(std::__ndk1::basic_string<char, std::__ndk1::char_traits<char>, std::__ndk1::allocator<char> >)
PUBLIC 64364 0 em::utils::isMusicPlayerCentered()
PUBLIC 644bc 0 em::utils::showMusicPlayerAlbumCover()
PUBLIC 645fc 0 std::__ndk1::__hash_table<std::__ndk1::__hash_value_type<std::__ndk1::basic_string<char, std::__ndk1::char_traits<char>, std::__ndk1::allocator<char> >, cocos2d::CCImage::EImageFormat>, std::__ndk1::__unordered_map_hasher<std::__ndk1::basic_string<char, std::__ndk1::char_traits<char>, std::__ndk1::allocator<char> >, std::__ndk1::__hash_value_type<std::__ndk1::basic_string<char, std::__ndk1::char_traits<char>, std::__ndk1::allocator<char> >, cocos2d::CCImage::EImageFormat>, std::__ndk1::hash<std::__ndk1::basic_string<char, std::__ndk1::char_traits<char>, std::__ndk1::allocator<char> > >, std::__ndk1::equal_to<std::__ndk1::basic_string<char, std::__ndk1::char_traits<char>, std::__ndk1::allocator<char> > >, true>, std::__ndk1::__unordered_map_equal<std::__ndk1::basic_string<char, std::__ndk1::char_traits<char>, std::__ndk1::allocator<char> >, std::__ndk1::__hash_value_type<std::__ndk1::basic_string<char, std::__ndk1::char_traits<char>, std::__ndk1::allocator<char> >, cocos2d::CCImage::EImageFormat>, std::__ndk1::equal_to<std::__ndk1::basic_string<char, std::__ndk1::char_traits<char>, std::__ndk1::allocator<char> > >, std::__ndk1::hash<std::__ndk1::basic_string<char, std::__ndk1::char_traits<char>, std::__ndk1::allocator<char> > >, true>, std::__ndk1::allocator<std::__ndk1::__hash_value_type<std::__ndk1::basic_string<char, std::__ndk1::char_traits<char>, std::__ndk1::allocator<char> >, cocos2d::CCImage::EImageFormat> > >::~__hash_table()
PUBLIC 6466c 0 std::__ndk1::__hash_table<std::__ndk1::__hash_value_type<std::__ndk1::basic_string<char, std::__ndk1::char_traits<char>, std::__ndk1::allocator<char> >, cocos2d::CCImage::EImageFormat>, std::__ndk1::__unordered_map_hasher<std::__ndk1::basic_string<char, std::__ndk1::char_traits<char>, std::__ndk1::allocator<char> >, std::__ndk1::__hash_value_type<std::__ndk1::basic_string<char, std::__ndk1::char_traits<char>, std::__ndk1::allocator<char> >, cocos2d::CCImage::EImageFormat>, std::__ndk1::hash<std::__ndk1::basic_string<char, std::__ndk1::char_traits<char>, std::__ndk1::allocator<char> > >, std::__ndk1::equal_to<std::__ndk1::basic_string<char, std::__ndk1::char_traits<char>, std::__ndk1::allocator<char> > >, true>, std::__ndk1::__unordered_map_equal<std::__ndk1::basic_string<char, std::__ndk1::char_traits<char>, std::__ndk1::allocator<char> >, std::__ndk1::__hash_value_type<std::__ndk1::basic_string<char, std::__ndk1::char_traits<char>, std::__ndk1::allocator<char> >, cocos2d::CCImage::EImageFormat>, std::__ndk1::equal_to<std::__ndk1::basic_string<char, std::__ndk1::char_traits<char>, std::__ndk1::allocator<char> > >, std::__ndk1::hash<std::__ndk1::basic_string<char, std::__ndk1::char_traits<char>, std::__ndk1::allocator<char> > >, true>, std::__ndk1::allocator<std::__ndk1::__hash_value_type<std::__ndk1::basic_string<char, std::__ndk1::char_traits<char>, std::__ndk1::allocator<char> >, cocos2d::CCImage::EImageFormat> > >::__emplace_unique_key_args<std::__ndk1::basic_string<char, std::__ndk1::char_traits<char>, std::__ndk1::allocator<char> >, std::__ndk1::pair<std::__ndk1::basic_string<char, std::__ndk1::char_traits<char>, std::__ndk1::allocator<char> > const, cocos2d::CCImage::EImageFormat> const&>(std::__ndk1::basic_string<char, std::__ndk1::char_traits<char>, std::__ndk1::allocator<char> > const&, std::__ndk1::pair<std::__ndk1::basic_string<char, std::__ndk1::char_traits<char>, std::__ndk1::allocator<char> > const, cocos2d::CCImage::EImageFormat> const&)
PUBLIC 64c84 0 std::__ndk1::unique_ptr<std::__ndk1::__hash_node<std::__ndk1::__hash_value_type<std::__ndk1::basic_string<char, std::__ndk1::char_traits<char>, std::__ndk1::allocator<char> >, cocos2d::CCImage::EImageFormat>, void*>, std::__ndk1::__hash_node_destructor<std::__ndk1::allocator<std::__ndk1::__hash_node<std::__ndk1::__hash_value_type<std::__ndk1::basic_string<char, std::__ndk1::char_traits<char>, std::__ndk1::allocator<char> >, cocos2d::CCImage::EImageFormat>, void*> > > >::~unique_ptr[abi:ne190000]()
PUBLIC 64cd4 0 std::__ndk1::__murmur2_or_cityhash<unsigned long, (unsigned long)64>::operator()[abi:ne190000](void const*, unsigned long) const
PUBLIC 6512c 0 geode::getMod()
PUBLIC m 65168 0 geodeImplicitEntry
PUBLIC 651a4 0 simdutf::implementation::autodetect_encoding(char const*, unsigned long) const
PUBLIC 65334 0 simdutf::convert_utf16le_to_utf8_with_errors(char16_t const*, unsigned long, char*)
PUBLIC 653fc 0 simdutf::convert_utf16be_to_utf8_with_errors(char16_t const*, unsigned long, char*)
PUBLIC 654c4 0 simdutf::arm64::implementation::detect_encodings(char const*, unsigned long) const
PUBLIC 65838 0 simdutf::arm64::implementation::validate_utf8(char const*, unsigned long) const
PUBLIC 65c20 0 simdutf::arm64::implementation::validate_utf16le(char16_t const*, unsigned long) const
PUBLIC 65d5c 0 simdutf::arm64::implementation::validate_utf32(char32_t const*, unsigned long) const
PUBLIC 65e60 0 simdutf::arm64::implementation::validate_utf8_with_errors(char const*, unsigned long) const
PUBLIC 662d0 0 simdutf::arm64::implementation::validate_ascii(char const*, unsigned long) const
PUBLIC 663d8 0 simdutf::arm64::implementation::validate_ascii_with_errors(char const*, unsigned long) const
PUBLIC 66654 0 simdutf::arm64::implementation::validate_utf16be(char16_t const*, unsigned long) const
PUBLIC 667a0 0 simdutf::arm64::implementation::validate_utf16le_with_errors(char16_t const*, unsigned long) const
PUBLIC 6690c 0 simdutf::arm64::implementation::validate_utf16be_with_errors(char16_t const*, unsigned long) const
PUBLIC 66a88 0 simdutf::arm64::implementation::validate_utf32_with_errors(char32_t const*, unsigned long) const
PUBLIC 66bec 0 simdutf::arm64::implementation::convert_latin1_to_utf8(char const*, unsigned long, char*) const
PUBLIC 66eb4 0 simdutf::arm64::implementation::convert_latin1_to_utf16le(char const*, unsigned long, char16_t*) const
PUBLIC 66fb8 0 simdutf::arm64::implementation::convert_latin1_to_utf16be(char const*, unsigned long, char16_t*) const
PUBLIC 670c8 0 simdutf::arm64::implementation::convert_latin1_to_utf32(char const*, unsigned long, char32_t*) const
PUBLIC 6721c 0 simdutf::arm64::implementation::convert_utf8_to_latin1(char const*, unsigned long, char*) const
PUBLIC 67660 0 simdutf::arm64::implementation::convert_utf8_to_latin1_with_errors(char const*, unsigned long, char*) const
PUBLIC 679a0 0 simdutf::arm64::implementation::convert_valid_utf8_to_latin1(char const*, unsigned long, char*) const
PUBLIC 67cb0 0 simdutf::arm64::implementation::convert_utf8_to_utf16le(char const*, unsigned long, char16_t*) const
PUBLIC 68510 0 simdutf::arm64::implementation::convert_utf8_to_utf16be(char const*, unsigned long, char16_t*) const
PUBLIC 68dd8 0 simdutf::arm64::implementation::convert_utf8_to_utf16le_with_errors(char const*, unsigned long, char16_t*) const
PUBLIC 6941c 0 simdutf::arm64::implementation::convert_utf8_to_utf16be_with_errors(char const*, unsigned long, char16_t*) const
PUBLIC 69a78 0 simdutf::arm64::implementation::convert_valid_utf8_to_utf16le(char const*, unsigned long, char16_t*) const
PUBLIC 6a01c 0 simdutf::arm64::implementation::convert_valid_utf8_to_utf16be(char const*, unsigned long, char16_t*) const
PUBLIC 6a60c 0 simdutf::arm64::implementation::convert_utf8_to_utf32(char const*, unsigned long, char32_t*) const
PUBLIC 6ad9c 0 simdutf::arm64::implementation::convert_utf8_to_utf32_with_errors(char const*, unsigned long, char32_t*) const
PUBLIC 6b340 0 simdutf::arm64::implementation::convert_valid_utf8_to_utf32(char const*, unsigned long, char32_t*) const
PUBLIC 6b800 0 simdutf::arm64::implementation::convert_utf16le_to_latin1(char16_t const*, unsigned long, char*) const
PUBLIC 6b964 0 simdutf::arm64::implementation::convert_utf16be_to_latin1(char16_t const*, unsigned long, char*) const
PUBLIC 6bae4 0 simdutf::arm64::implementation::convert_utf16le_to_latin1_with_errors(char16_t const*, unsigned long, char*) const
PUBLIC 6bda8 0 simdutf::arm64::implementation::convert_utf16be_to_latin1_with_errors(char16_t const*, unsigned long, char*) const
PUBLIC 6c0fc 0 simdutf::arm64::implementation::convert_valid_utf16be_to_latin1(char16_t const*, unsigned long, char*) const
PUBLIC 6c27c 0 simdutf::arm64::implementation::convert_valid_utf16le_to_latin1(char16_t const*, unsigned long, char*) const
PUBLIC 6c3e0 0 simdutf::arm64::implementation::convert_utf16le_to_utf8(char16_t const*, unsigned long, char*) const
PUBLIC 6c890 0 simdutf::arm64::implementation::convert_utf16be_to_utf8(char16_t const*, unsigned long, char*) const
PUBLIC 6cd7c 0 simdutf::arm64::implementation::convert_utf16le_to_utf8_with_errors(char16_t const*, unsigned long, char*) const
PUBLIC 6d254 0 simdutf::arm64::implementation::convert_utf16be_to_utf8_with_errors(char16_t const*, unsigned long, char*) const
PUBLIC 6d768 0 simdutf::arm64::implementation::convert_valid_utf16le_to_utf8(char16_t const*, unsigned long, char*) const
PUBLIC 6d76c 0 simdutf::arm64::implementation::convert_valid_utf16be_to_utf8(char16_t const*, unsigned long, char*) const
PUBLIC 6d770 0 simdutf::arm64::implementation::convert_utf32_to_utf8(char32_t const*, unsigned long, char*) const
PUBLIC 6dbf8 0 simdutf::arm64::implementation::convert_utf32_to_utf8_with_errors(char32_t const*, unsigned long, char*) const
PUBLIC 6e0b8 0 simdutf::arm64::implementation::convert_utf16le_to_utf32(char16_t const*, unsigned long, char32_t*) const
PUBLIC 6e26c 0 simdutf::arm64::implementation::convert_utf16be_to_utf32(char16_t const*, unsigned long, char32_t*) const
PUBLIC 6e43c 0 simdutf::arm64::implementation::convert_utf16le_to_utf32_with_errors(char16_t const*, unsigned long, char32_t*) const
PUBLIC 6e604 0 simdutf::arm64::implementation::convert_utf16be_to_utf32_with_errors(char16_t const*, unsigned long, char32_t*) const
PUBLIC 6e7e4 0 simdutf::arm64::implementation::convert_utf32_to_latin1(char32_t const*, unsigned long, char*) const
PUBLIC 6e990 0 simdutf::arm64::implementation::convert_utf32_to_latin1_with_errors(char32_t const*, unsigned long, char*) const
PUBLIC 6eb94 0 simdutf::arm64::implementation::convert_valid_utf32_to_latin1(char32_t const*, unsigned long, char*) const
PUBLIC 6ec90 0 simdutf::arm64::implementation::convert_valid_utf32_to_utf8(char32_t const*, unsigned long, char*) const
PUBLIC 6ec94 0 simdutf::arm64::implementation::convert_utf32_to_utf16le(char32_t const*, unsigned long, char16_t*) const
PUBLIC 6ee4c 0 simdutf::arm64::implementation::convert_utf32_to_utf16be(char32_t const*, unsigned long, char16_t*) const
PUBLIC 6f030 0 simdutf::arm64::implementation::convert_utf32_to_utf16le_with_errors(char32_t const*, unsigned long, char16_t*) const
PUBLIC 6f294 0 simdutf::arm64::implementation::convert_utf32_to_utf16be_with_errors(char32_t const*, unsigned long, char16_t*) const
PUBLIC 6f54c 0 simdutf::arm64::implementation::convert_valid_utf32_to_utf16le(char32_t const*, unsigned long, char16_t*) const
PUBLIC 6f550 0 simdutf::arm64::implementation::convert_valid_utf32_to_utf16be(char32_t const*, unsigned long, char16_t*) const
PUBLIC 6f554 0 simdutf::arm64::implementation::convert_valid_utf16le_to_utf32(char16_t const*, unsigned long, char32_t*) const
PUBLIC 6f558 0 simdutf::arm64::implementation::convert_valid_utf16be_to_utf32(char16_t const*, unsigned long, char32_t*) const
PUBLIC 6f55c 0 simdutf::arm64::implementation::change_endianness_utf16(char16_t const*, unsigned long, char16_t*) const
PUBLIC 6f63c 0 simdutf::arm64::implementation::count_utf16le(char16_t const*, unsigned long) const
PUBLIC 6f83c 0 simdutf::arm64::implementation::count_utf16be(char16_t const*, unsigned long) const
PUBLIC 6fa48 0 simdutf::arm64::implementation::count_utf8(char const*, unsigned long) const
PUBLIC 6fda4 0 simdutf::arm64::implementation::latin1_length_from_utf8(char const*, unsigned long) const
PUBLIC 7010c 0 simdutf::arm64::implementation::latin1_length_from_utf16(unsigned long) const
PUBLIC 70114 0 simdutf::arm64::implementation::latin1_length_from_utf32(unsigned long) const
PUBLIC 7011c 0 simdutf::arm64::implementation::utf8_length_from_latin1(char const*, unsigned long) const
PUBLIC 70174 0 simdutf::arm64::implementation::utf8_length_from_utf16le(char16_t const*, unsigned long) const
PUBLIC 7057c 0 simdutf::arm64::implementation::utf8_length_from_utf16be(char16_t const*, unsigned long) const
PUBLIC 709a8 0 simdutf::arm64::implementation::utf16_length_from_latin1(unsigned long) const
PUBLIC 709b0 0 simdutf::arm64::implementation::utf32_length_from_latin1(unsigned long) const
PUBLIC 709b8 0 simdutf::arm64::implementation::utf32_length_from_utf16le(char16_t const*, unsigned long) const
PUBLIC 70bb8 0 simdutf::arm64::implementation::utf32_length_from_utf16be(char16_t const*, unsigned long) const
PUBLIC 70dc4 0 simdutf::arm64::implementation::utf16_length_from_utf8(char const*, unsigned long) const
PUBLIC 71160 0 simdutf::arm64::implementation::utf8_length_from_utf32(char32_t const*, unsigned long) const
PUBLIC 7138c 0 simdutf::arm64::implementation::utf16_length_from_utf32(char32_t const*, unsigned long) const
PUBLIC 714dc 0 simdutf::arm64::implementation::utf32_length_from_utf8(char const*, unsigned long) const
PUBLIC 71838 0 simdutf::arm64::implementation::maximal_binary_length_from_base64(char const*, unsigned long) const
PUBLIC 71898 0 simdutf::arm64::implementation::base64_to_binary(char const*, unsigned long, char*, simdutf::base64_options, simdutf::last_chunk_handling_options) const
PUBLIC 71950 0 simdutf::arm64::(anonymous namespace)::compress_decode_base64<true, true, char>(char*, char const*, unsigned long, simdutf::base64_options, simdutf::last_chunk_handling_options)
PUBLIC 72140 0 simdutf::arm64::(anonymous namespace)::compress_decode_base64<true, false, char>(char*, char const*, unsigned long, simdutf::base64_options, simdutf::last_chunk_handling_options)
PUBLIC 72a98 0 simdutf::arm64::(anonymous namespace)::compress_decode_base64<false, true, char>(char*, char const*, unsigned long, simdutf::base64_options, simdutf::last_chunk_handling_options)
PUBLIC 7324c 0 simdutf::arm64::(anonymous namespace)::compress_decode_base64<false, false, char>(char*, char const*, unsigned long, simdutf::base64_options, simdutf::last_chunk_handling_options)
PUBLIC 73b68 0 simdutf::arm64::implementation::base64_to_binary_details(char const*, unsigned long, char*, simdutf::base64_options, simdutf::last_chunk_handling_options) const
PUBLIC 73ba8 0 simdutf::arm64::implementation::maximal_binary_length_from_base64(char16_t const*, unsigned long) const
PUBLIC 73c08 0 simdutf::arm64::implementation::base64_to_binary(char16_t const*, unsigned long, char*, simdutf::base64_options, simdutf::last_chunk_handling_options) const
PUBLIC 73cc0 0 simdutf::arm64::(anonymous namespace)::compress_decode_base64<true, true, char16_t>(char*, char16_t const*, unsigned long, simdutf::base64_options, simdutf::last_chunk_handling_options)
PUBLIC 744e8 0 simdutf::arm64::(anonymous namespace)::compress_decode_base64<true, false, char16_t>(char*, char16_t const*, unsigned long, simdutf::base64_options, simdutf::last_chunk_handling_options)
PUBLIC 74ee4 0 simdutf::arm64::(anonymous namespace)::compress_decode_base64<false, true, char16_t>(char*, char16_t const*, unsigned long, simdutf::base64_options, simdutf::last_chunk_handling_options)
PUBLIC 756d0 0 simdutf::arm64::(anonymous namespace)::compress_decode_base64<false, false, char16_t>(char*, char16_t const*, unsigned long, simdutf::base64_options, simdutf::last_chunk_handling_options)
PUBLIC 76088 0 simdutf::arm64::implementation::base64_to_binary_details(char16_t const*, unsigned long, char*, simdutf::base64_options, simdutf::last_chunk_handling_options) const
PUBLIC 760c8 0 simdutf::arm64::implementation::base64_length_from_binary(unsigned long, simdutf::base64_options) const
PUBLIC 76108 0 simdutf::arm64::implementation::binary_to_base64(char const*, unsigned long, char*, simdutf::base64_options) const
PUBLIC 76300 0 simdutf::implementation::name() const
PUBLIC 763b0 0 simdutf::implementation::description() const
PUBLIC 76460 0 simdutf::implementation::required_instruction_sets() const
PUBLIC 76468 0 simdutf::scalar::(anonymous namespace)::utf8::rewind_and_validate_with_errors(char const*, char const*, unsigned long)
PUBLIC 766e0 0 simdutf::scalar::(anonymous namespace)::utf8_to_latin1::rewind_and_convert_with_errors(unsigned long, char const*, unsigned long, char*)
PUBLIC 768dc 0 simdutf::scalar::(anonymous namespace)::utf8_to_utf32::rewind_and_convert_with_errors(unsigned long, char const*, unsigned long, char32_t*)
PUBLIC 76c68 0 simdutf::scalar::(anonymous namespace)::utf8_to_utf16::rewind_and_convert_with_errors<(simdutf::endianness)0>(unsigned long, char const*, unsigned long, char16_t*)
PUBLIC 76f74 0 simdutf::scalar::(anonymous namespace)::utf8_to_utf16::rewind_and_convert_with_errors<(simdutf::endianness)1>(unsigned long, char const*, unsigned long, char16_t*)
PUBLIC 772cc 0 simdutf::scalar::(anonymous namespace)::base64::base64_tail_decode<char>(char*, char const*, unsigned long, unsigned long, simdutf::base64_options, simdutf::last_chunk_handling_options)
PUBLIC 77670 0 simdutf::scalar::(anonymous namespace)::base64::base64_tail_decode<char16_t>(char*, char16_t const*, unsigned long, unsigned long, simdutf::base64_options, simdutf::last_chunk_handling_options)
PUBLIC 77a78 0 std::__ndk1::unordered_map<void*, bool, std::__ndk1::hash<void*>, std::__ndk1::equal_to<void*>, std::__ndk1::allocator<std::__ndk1::pair<void* const, bool> > >::~unordered_map[abi:ne190000]()
PUBLIC 77ac4 0 wrapFunction(unsigned long, tulip::hook::WrapperMetadata const&)
PUBLIC 77bf8 0 geode::impl::ResultData<void*, std::__ndk1::basic_string<char, std::__ndk1::char_traits<char>, std::__ndk1::allocator<char> > >::unwrapErr() &
PUBLIC 77c70 0 geode::impl::ResultData<void*, std::__ndk1::basic_string<char, std::__ndk1::char_traits<char>, std::__ndk1::allocator<char> > >::~ResultData()
PUBLIC 77ce4 0 tulip::hook::WrapperMetadata::~WrapperMetadata()
PUBLIC 77d48 0 cocos2d::CCObject::~CCObject()
PUBLIC 77d6c 0 cocos2d::CCNode::CCNode()
PUBLIC 77fc8 0 cocos2d::CCNode::~CCNode()
PUBLIC 77fec 0 cocos2d::CCNodeRGBA::CCNodeRGBA()
PUBLIC 78258 0 cocos2d::CCNodeRGBA::~CCNodeRGBA()
PUBLIC 7827c 0 {virtual override thunk({offset(-320)}, cocos2d::CCLayer::~CCLayer())}
PUBLIC 78284 0 cocos2d::CCLayer::~CCLayer()
PUBLIC 782a8 0 {virtual override thunk({offset(-320)}, cocos2d::CCLayer::~CCLayer())}
PUBLIC 782d0 0 cocos2d::CCLayerRGBA::~CCLayerRGBA()
PUBLIC 785d0 0 {virtual override thunk({offset(-320)}, cocos2d::CCLayerRGBA::~CCLayerRGBA())}
PUBLIC 785d8 0 cocos2d::CCLayerRGBA::~CCLayerRGBA()
PUBLIC 785fc 0 {virtual override thunk({offset(-320)}, cocos2d::CCLayerRGBA::~CCLayerRGBA())}
PUBLIC 78624 0 cocos2d::CCLayerColor::CCLayerColor()
PUBLIC 78888 0 {virtual override thunk({offset(-320)}, cocos2d::CCLayerColor::~CCLayerColor())}
PUBLIC 78890 0 cocos2d::CCLayerColor::~CCLayerColor()
PUBLIC 788b4 0 {virtual override thunk({offset(-320)}, cocos2d::CCLayerColor::~CCLayerColor())}
PUBLIC 788dc 0 cocos2d::CCTexture2D::~CCTexture2D()
PUBLIC 78b4c 0 cocos2d::CCTexture2D::~CCTexture2D()
PUBLIC 78b70 0 cocos2d::CCTexture2D::CCTexture2D()
PUBLIC 78d9c 0 cocos2d::CCImage::CCImage()
PUBLIC 78fc0 0 cocos2d::CCImage::~CCImage()
PUBLIC 79228 0 cocos2d::CCImage::~CCImage()
PUBLIC 7924c 0 FLAlertLayer::FLAlertLayer()
PUBLIC 792e8 0 {virtual override thunk({offset(-320)}, FLAlertLayer::~FLAlertLayer())}
PUBLIC 792f0 0 FLAlertLayer::~FLAlertLayer()
PUBLIC 79314 0 {virtual override thunk({offset(-320)}, FLAlertLayer::~FLAlertLayer())}
PUBLIC 7933c 0 cocos2d::CCNodeRGBA::~CCNodeRGBA()
PUBLIC 795f4 0 ButtonSprite::create(char const*)
PUBLIC 7961c 0 CCMenuItemSpriteExtra::create(cocos2d::CCNode*, cocos2d::CCObject*, void (cocos2d::CCObject::*)(cocos2d::CCObject*))
PUBLIC 79630 0 LevelEditorLayer::get()
PUBLIC 79648 0 cocos2d::CCObject::update(float)
PUBLIC 7964c 0 cocos2d::CCLayerColor::~CCLayerColor()
PUBLIC 79930 0 FLAlertLayer::~FLAlertLayer()
PUBLIC 79c14 0 cocos2d::CCNode::~CCNode()
PUBLIC 79eb4 0 cocos2d::CCLayer::~CCLayer()
PUBLIC 7a1a4 0 cocos2d::CCObject::~CCObject()
PUBLIC 7a698 0 _ZN5geode15UnwrapExceptionC2IRPvQsr4implE18IsStringStreamableIT_EEENS_4impl5OkTagEOS4_
PUBLIC 7a7ec 0 std::__ndk1::__variant_detail::__visitation::__base::__dispatcher<(unsigned long)0>::__dispatch[abi:ne190000]<std::__ndk1::__variant_detail::__dtor<std::__ndk1::__variant_detail::__traits<void*, std::__ndk1::basic_string<char, std::__ndk1::char_traits<char>, std::__ndk1::allocator<char> > >, (std::__ndk1::__variant_detail::_Trait)1>::__destroy[abi:ne190000]()::{lambda(auto:1&)#1}, std::__ndk1::__variant_detail::__base<(std::__ndk1::__variant_detail::__traits<void*, std::__ndk1::basic_string<char, std::__ndk1::char_traits<char>, std::__ndk1::allocator<char> > >)1, std::__ndk1::__variant_detail::__traits, std::__ndk1::allocator<char> >&>(std::__ndk1::__variant_detail::__dtor<std::__ndk1::__variant_detail::__traits<void*, std::__ndk1::basic_string<char, std::__ndk1::char_traits<char>, std::__ndk1::allocator<char> > >, (std::__ndk1::__variant_detail::_Trait)1>, std::__ndk1::__variant_detail::__base<(std::__ndk1::__variant_detail::__traits<void*, std::__ndk1::basic_string<char, std::__ndk1::char_traits<char>, std::__ndk1::allocator<char> > >)1, std::__ndk1::__variant_detail::__traits, std::__ndk1::allocator<char> >&)
PUBLIC 7a7f0 0 std::__ndk1::__variant_detail::__visitation::__base::__dispatcher<(unsigned long)1>::__dispatch[abi:ne190000]<std::__ndk1::__variant_detail::__dtor<std::__ndk1::__variant_detail::__traits<void*, std::__ndk1::basic_string<char, std::__ndk1::char_traits<char>, std::__ndk1::allocator<char> > >, (std::__ndk1::__variant_detail::_Trait)1>::__destroy[abi:ne190000]()::{lambda(auto:1&)#1}, std::__ndk1::__variant_detail::__base<(std::__ndk1::__variant_detail::__traits<void*, std::__ndk1::basic_string<char, std::__ndk1::char_traits<char>, std::__ndk1::allocator<char> > >)1, std::__ndk1::__variant_detail::__traits, std::__ndk1::allocator<char> >&>(std::__ndk1::__variant_detail::__dtor<std::__ndk1::__variant_detail::__traits<void*, std::__ndk1::basic_string<char, std::__ndk1::char_traits<char>, std::__ndk1::allocator<char> > >, (std::__ndk1::__variant_detail::_Trait)1>, std::__ndk1::__variant_detail::__base<(std::__ndk1::__variant_detail::__traits<void*, std::__ndk1::basic_string<char, std::__ndk1::char_traits<char>, std::__ndk1::allocator<char> > >)1, std::__ndk1::__variant_detail::__traits, std::__ndk1::allocator<char> >&)
PUBLIC 7a804 0 std::__ndk1::__hash_table<std::__ndk1::__hash_value_type<void*, bool>, std::__ndk1::__unordered_map_hasher<void*, std::__ndk1::__hash_value_type<void*, bool>, std::__ndk1::hash<void*>, std::__ndk1::equal_to<void*>, true>, std::__ndk1::__unordered_map_equal<void*, std::__ndk1::__hash_value_type<void*, bool>, std::__ndk1::equal_to<void*>, std::__ndk1::hash<void*>, true>, std::__ndk1::allocator<std::__ndk1::__hash_value_type<void*, bool> > >::__emplace_unique_key_args<void*, std::__ndk1::piecewise_construct_t const&, std::__ndk1::tuple<void* const&>, std::__ndk1::tuple<> >(void* const&, std::__ndk1::piecewise_construct_t const&, std::__ndk1::tuple<void* const&>, std::__ndk1::tuple<>)
PUBLIC 7ad10 0 __udivti3
PUBLIC 7ad1c 0 __udivmodti4
PUBLIC m 7af68 0 __eqtf2
PUBLIC 7b008 0 __unordtf2
PUBLIC 7b040 0 fmt::v11::detail::write_loc(fmt::v11::basic_appender<char>, fmt::v11::loc_value, fmt::v11::format_specs const&, fmt::v11::detail::locale_ref)
PUBLIC 7b2d4 0 fmt::v11::format_facet<std::__ndk1::locale>::~format_facet()
PUBLIC 7b350 0 fmt::v11::report_error(char const*)
PUBLIC 7b3a0 0 fmt::v11::format_error::runtime_error(char const*)
PUBLIC 7b3cc 0 fmt::v11::format_facet<std::__ndk1::locale>::do_put(fmt::v11::basic_appender<char>, fmt::v11::loc_value, fmt::v11::format_specs const&) const
PUBLIC 7bb8c 0 fmt::v11::detail::loc_writer<char>::~loc_writer()
PUBLIC 7bbf0 0 fmt::v11::vformat(fmt::v11::basic_string_view<char>, fmt::v11::basic_format_args<fmt::v11::context>)
PUBLIC 7bd3c 0 fmt::v11::detail::vformat_to<char>(fmt::v11::detail::buffer<char>&, fmt::v11::basic_string_view<char>, fmt::v11::detail::vformat_args<char>::type, fmt::v11::detail::locale_ref)
PUBLIC 7c2ac 0 fmt::v11::detail::is_printable(unsigned int)
PUBLIC 7c4d4 0 fmt::v11::detail::dragonbox::to_decimal<float>(float)
PUBLIC 7c7b0 0 fmt::v11::detail::dragonbox::to_decimal<double>(double)
PUBLIC 7ccec 0 fmt::v11::basic_memory_buffer<char, (unsigned long)500, std::__ndk1::allocator<char> >::grow(fmt::v11::detail::buffer<char>&, unsigned long)
PUBLIC 7cd64 0 fmt::v11::format_facet<std::__ndk1::locale>::~format_facet()
PUBLIC 7cdf0 0 fmt::v11::format_error::~format_error()
PUBLIC 7ce14 0 fmt::v11::detail::copy_noinline<char, char const*, fmt::v11::basic_appender<char> >(char const*, char const*, fmt::v11::basic_appender<char>)
PUBLIC 7cf64 0 fmt::v11::detail::default_arg_formatter<char>::operator()<bool>(bool)
PUBLIC 7cfcc 0 fmt::v11::detail::default_arg_formatter<char>::operator()<char>(char)
PUBLIC 7d05c 0 fmt::v11::detail::default_arg_formatter<char>::operator()<float>(float)
PUBLIC 7d148 0 fmt::v11::detail::default_arg_formatter<char>::operator()<double>(double)
PUBLIC 7d234 0 fmt::v11::detail::default_arg_formatter<char>::operator()<char const*>(char const*)
PUBLIC 7d27c 0 fmt::v11::detail::default_arg_formatter<char>::operator()<void const*>(void const*)
PUBLIC 7d314 0 _ZN3fmt3v116detail5writeIcNS0_14basic_appenderIcEEiTnNSt6__ndk19enable_ifIXaaaasr11is_integralIT1_EE5valuentsr3std7is_sameIS7_bEE5valuentsr3std7is_sameIS7_T_EE5valueEiE4typeELi0EEET0_SB_S7_
PUBLIC 7d574 0 fmt::v11::detail::copy_noinline<char, char*, fmt::v11::basic_appender<char> >(char*, char*, fmt::v11::basic_appender<char>)
PUBLIC 7d6c4 0 _ZN3fmt3v116detail5writeIcNS0_14basic_appenderIcEEjTnNSt6__ndk19enable_ifIXaaaasr11is_integralIT1_EE5valuentsr3std7is_sameIS7_bEE5valuentsr3std7is_sameIS7_T_EE5valueEiE4typeELi0EEET0_SB_S7_
PUBLIC 7d8a4 0 _ZN3fmt3v116detail5writeIcNS0_14basic_appenderIcEExTnNSt6__ndk19enable_ifIXaaaasr11is_integralIT1_EE5valuentsr3std7is_sameIS7_bEE5valuentsr3std7is_sameIS7_T_EE5valueEiE4typeELi0EEET0_SB_S7_
PUBLIC 7db28 0 _ZN3fmt3v116detail5writeIcNS0_14basic_appenderIcEEyTnNSt6__ndk19enable_ifIXaaaasr11is_integralIT1_EE5valuentsr3std7is_sameIS7_bEE5valuentsr3std7is_sameIS7_T_EE5valueEiE4typeELi0EEET0_SB_S7_
PUBLIC 7dd30 0 _ZN3fmt3v116detail5writeIcNS0_14basic_appenderIcEEnTnNSt6__ndk19enable_ifIXaaaasr11is_integralIT1_EE5valuentsr3std7is_sameIS7_bEE5valuentsr3std7is_sameIS7_T_EE5valueEiE4typeELi0EEET0_SB_S7_
PUBLIC 7e090 0 _ZN3fmt3v116detail5writeIcNS0_14basic_appenderIcEEoTnNSt6__ndk19enable_ifIXaaaasr11is_integralIT1_EE5valuentsr3std7is_sameIS7_bEE5valuentsr3std7is_sameIS7_T_EE5valueEiE4typeELi0EEET0_SB_S7_
PUBLIC 7e3a4 0 _ZN3fmt3v116detail5writeIcNS0_14basic_appenderIcEEbTnNSt6__ndk19enable_ifIXsr3std7is_sameIT1_bEE5valueEiE4typeELi0EEET0_SA_S7_RKNS0_12format_specsENS1_10locale_refE
PUBLIC 7e634 0 fmt::v11::detail::write_int_noinline<char, fmt::v11::basic_appender<char>, unsigned int>(fmt::v11::basic_appender<char>, fmt::v11::detail::write_int_arg<unsigned int>, fmt::v11::format_specs const&, fmt::v11::detail::locale_ref)
PUBLIC 7f3fc 0 fmt::v11::detail::fill<char, fmt::v11::basic_appender<char> >(fmt::v11::basic_appender<char>, unsigned long, fmt::v11::detail::fill_t const&)
PUBLIC 7f5cc 0 fmt::v11::detail::write_padded<char, (fmt::v11::align::type)1, fmt::v11::basic_appender<char>, fmt::v11::detail::write_char<char, fmt::v11::basic_appender<char> >(fmt::v11::basic_appender<char>, char, fmt::v11::format_specs const&)::{lambda(fmt::v11::basic_appender<char>&)#1}>(fmt::v11::basic_appender<char>, fmt::v11::format_specs const&, unsigned long, unsigned long, fmt::v11::detail::write_char<char, fmt::v11::basic_appender<char> >(fmt::v11::basic_appender<char>, char, fmt::v11::format_specs const&)::{lambda(fmt::v11::basic_appender<char>&)#1})
PUBLIC 7f808 0 fmt::v11::detail::write_escaped_cp<fmt::v11::basic_appender<char>, char>(fmt::v11::basic_appender<char>, fmt::v11::detail::find_escape_result<char> const&)
PUBLIC 7fb14 0 fmt::v11::detail::write_codepoint<(unsigned long)2, char, fmt::v11::basic_appender<char> >(fmt::v11::basic_appender<char>, char, unsigned int)
PUBLIC 7fc8c 0 fmt::v11::detail::write_codepoint<(unsigned long)8, char, fmt::v11::basic_appender<char> >(fmt::v11::basic_appender<char>, char, unsigned int)
PUBLIC 7fe04 0 fmt::v11::detail::write_padded<char, (fmt::v11::align::type)1, fmt::v11::basic_appender<char>, fmt::v11::detail::write_nonfinite<char, fmt::v11::basic_appender<char> >(fmt::v11::basic_appender<char>, bool, fmt::v11::format_specs, fmt::v11::sign::type)::{lambda(fmt::v11::basic_appender<char>&)#1}>(fmt::v11::basic_appender<char>, fmt::v11::format_specs const&, unsigned long, unsigned long, fmt::v11::detail::write_nonfinite<char, fmt::v11::basic_appender<char> >(fmt::v11::basic_appender<char>, bool, fmt::v11::format_specs, fmt::v11::sign::type)::{lambda(fmt::v11::basic_appender<char>&)#1})
PUBLIC 80044 0 fmt::v11::detail::do_write_float<char, fmt::v11::basic_appender<char>, fmt::v11::detail::dragonbox::decimal_fp<float>, fmt::v11::detail::digit_grouping<char> >(fmt::v11::basic_appender<char>, fmt::v11::detail::dragonbox::decimal_fp<float> const&, fmt::v11::format_specs const&, fmt::v11::detail::float_specs, fmt::v11::detail::locale_ref)
PUBLIC 80cb8 0 fmt::v11::detail::do_write_float<char, fmt::v11::basic_appender<char>, fmt::v11::detail::dragonbox::decimal_fp<float>, fmt::v11::detail::digit_grouping<char> >(fmt::v11::basic_appender<char>, fmt::v11::detail::dragonbox::decimal_fp<float> const&, fmt::v11::format_specs const&, fmt::v11::detail::float_specs, fmt::v11::detail::locale_ref)::{lambda(fmt::v11::basic_appender<char>(fmt::v11::basic_appender<char>))#1}::operator() const
PUBLIC 80e0c 0 fmt::v11::detail::digit_grouping<char>::digit_grouping(fmt::v11::detail::locale_ref, bool)
PUBLIC 81074 0 fmt::v11::detail::digit_grouping<char>::~digit_grouping()
PUBLIC 810b8 0 fmt::v11::detail::write_exponent<char, fmt::v11::basic_appender<char> >(int, fmt::v11::basic_appender<char>)
PUBLIC 81288 0 _ZN3fmt3v116detail17write_significandIcjTnNSt6__ndk19enable_ifIXsr3std11is_integralIT0_EE5valueEiE4typeELi0EEEPT_S9_S5_iiS8_
PUBLIC 81404 0 fmt::v11::detail::digit_grouping<char>::apply<fmt::v11::basic_appender<char>, char>(fmt::v11::basic_appender<char>, fmt::v11::basic_string_view<char>) const
PUBLIC 817bc 0 fmt::v11::basic_memory_buffer<int, (unsigned long)500, std::__ndk1::allocator<int> >::grow(fmt::v11::detail::buffer<int>&, unsigned long)
PUBLIC 8185c 0 fmt::v11::detail::do_write_float<char, fmt::v11::basic_appender<char>, fmt::v11::detail::dragonbox::decimal_fp<double>, fmt::v11::detail::digit_grouping<char> >(fmt::v11::basic_appender<char>, fmt::v11::detail::dragonbox::decimal_fp<double> const&, fmt::v11::format_specs const&, fmt::v11::detail::float_specs, fmt::v11::detail::locale_ref)
PUBLIC 8250c 0 fmt::v11::detail::do_write_float<char, fmt::v11::basic_appender<char>, fmt::v11::detail::dragonbox::decimal_fp<double>, fmt::v11::detail::digit_grouping<char> >(fmt::v11::basic_appender<char>, fmt::v11::detail::dragonbox::decimal_fp<double> const&, fmt::v11::format_specs const&, fmt::v11::detail::float_specs, fmt::v11::detail::locale_ref)::{lambda(fmt::v11::basic_appender<char>(fmt::v11::basic_appender<char>))#1}::operator() const
PUBLIC 82664 0 _ZN3fmt3v116detail17write_significandIcmTnNSt6__ndk19enable_ifIXsr3std11is_integralIT0_EE5valueEiE4typeELi0EEEPT_S9_S5_iiS8_
PUBLIC 827f4 0 fmt::v11::detail::write_float<char, fmt::v11::basic_appender<char>, long double>(fmt::v11::basic_appender<char>, long double, fmt::v11::format_specs, fmt::v11::detail::locale_ref)
PUBLIC 832d8 0 fmt::v11::detail::write_padded<char, (fmt::v11::align::type)2, fmt::v11::basic_appender<char>, fmt::v11::detail::write_bytes<char, (fmt::v11::align::type)2, fmt::v11::basic_appender<char> >(fmt::v11::basic_appender<char>, fmt::v11::basic_string_view<char>, fmt::v11::format_specs const&)::{lambda(fmt::v11::basic_appender<char>&)#1}>(fmt::v11::basic_appender<char>, fmt::v11::format_specs const&, unsigned long, unsigned long, fmt::v11::detail::write_bytes<char, (fmt::v11::align::type)2, fmt::v11::basic_appender<char> >(fmt::v11::basic_appender<char>, fmt::v11::basic_string_view<char>, fmt::v11::format_specs const&)::{lambda(fmt::v11::basic_appender<char>&)#1})
PUBLIC 834b4 0 fmt::v11::detail::format_dragon(fmt::v11::detail::basic_fp<unsigned __int128>, unsigned int, int, fmt::v11::detail::buffer<char>&, int&)
PUBLIC 848d8 0 fmt::v11::detail::bigint::operator<<=(int)
PUBLIC 849fc 0 fmt::v11::detail::bigint::assign_pow10(int)
PUBLIC 85158 0 fmt::v11::detail::bigint::divmod_assign(fmt::v11::detail::bigint const&)
PUBLIC 8547c 0 fmt::v11::basic_memory_buffer<unsigned int, (unsigned long)32, std::__ndk1::allocator<unsigned int> >::grow(fmt::v11::detail::buffer<unsigned int>&, unsigned long)
PUBLIC 8551c 0 fmt::v11::detail::do_write_float<char, fmt::v11::basic_appender<char>, fmt::v11::detail::big_decimal_fp, fmt::v11::detail::digit_grouping<char> >(fmt::v11::basic_appender<char>, fmt::v11::detail::big_decimal_fp const&, fmt::v11::format_specs const&, fmt::v11::detail::float_specs, fmt::v11::detail::locale_ref)
PUBLIC 863c8 0 fmt::v11::detail::do_write_float<char, fmt::v11::basic_appender<char>, fmt::v11::detail::big_decimal_fp, fmt::v11::detail::digit_grouping<char> >(fmt::v11::basic_appender<char>, fmt::v11::detail::big_decimal_fp const&, fmt::v11::format_specs const&, fmt::v11::detail::float_specs, fmt::v11::detail::locale_ref)::{lambda(fmt::v11::basic_appender<char>(fmt::v11::basic_appender<char>))#1}::operator() const
PUBLIC 86528 0 fmt::v11::detail::write_padded<char, (fmt::v11::align::type)2, fmt::v11::basic_appender<char>, fmt::v11::detail::write_ptr<char, fmt::v11::basic_appender<char>, unsigned long>(fmt::v11::basic_appender<char>, unsigned long, fmt::v11::format_specs const*)::{lambda(fmt::v11::basic_appender<char>&)#1}>(fmt::v11::basic_appender<char>, fmt::v11::format_specs const&, unsigned long, unsigned long, fmt::v11::detail::write_ptr<char, fmt::v11::basic_appender<char>, unsigned long>(fmt::v11::basic_appender<char>, unsigned long, fmt::v11::format_specs const*)::{lambda(fmt::v11::basic_appender<char>&)#1})
PUBLIC 8673c 0 fmt::v11::detail::parse_replacement_field<char, fmt::v11::detail::vformat_to<char>(fmt::v11::detail::buffer<char>&, fmt::v11::basic_string_view<char>, fmt::v11::detail::vformat_args<char>::type, fmt::v11::detail::locale_ref)::format_handler&>(char const*, char const*, fmt::v11::detail::vformat_to<char>(fmt::v11::detail::buffer<char>&, fmt::v11::basic_string_view<char>, fmt::v11::detail::vformat_args<char>::type, fmt::v11::detail::locale_ref)::format_handler&)
PUBLIC 883a0 0 fmt::v11::detail::parse_dynamic_spec<char>(char const*, char const*, int&, fmt::v11::detail::arg_ref<char>&, fmt::v11::basic_format_parse_context<char>&)
PUBLIC 88630 0 fmt::v11::basic_format_args<fmt::v11::context>::get<char>(fmt::v11::basic_string_view<char>) const
PUBLIC 88764 0 fmt::v11::detail::write_int_noinline<char, fmt::v11::basic_appender<char>, unsigned long>(fmt::v11::basic_appender<char>, fmt::v11::detail::write_int_arg<unsigned long>, fmt::v11::format_specs const&, fmt::v11::detail::locale_ref)
PUBLIC 895b0 0 fmt::v11::detail::write_int_noinline<char, fmt::v11::basic_appender<char>, unsigned __int128>(fmt::v11::basic_appender<char>, fmt::v11::detail::write_int_arg<unsigned __int128>, fmt::v11::format_specs const&, fmt::v11::detail::locale_ref)
PUBLIC 8a618 0 _ZN3fmt3v116detail15format_hexfloatIdTnNSt6__ndk19enable_ifIXntsr16is_double_doubleIT_EE5valueEiE4typeELi0EEEvS5_NS0_12format_specsERNS1_6bufferIcEE
PUBLIC 8ab38 0 fmt::v11::detail::format_float<double>(double, int, fmt::v11::detail::float_specs, fmt::v11::detail::buffer<char>&)
PUBLIC 8b584 0 fmt::v11::detail::write<char, fmt::v11::basic_appender<char> >(fmt::v11::basic_appender<char>, fmt::v11::basic_string_view<char>, fmt::v11::format_specs const&)
PUBLIC 8c860 0 fmt::v11::detail::for_each_codepoint<fmt::v11::detail::compute_width(fmt::v11::basic_string_view<char>)::count_code_points>(fmt::v11::basic_string_view<char>, fmt::v11::detail::compute_width(fmt::v11::basic_string_view<char>)::count_code_points)::{lambda(char const*, char const*)#1}::operator()(char const*, char const*) const
PUBLIC 8ca18 0 fmt::v11::detail::write_int<fmt::v11::basic_appender<char>, unsigned long, char>(fmt::v11::basic_appender<char>, unsigned long, unsigned int, fmt::v11::format_specs const&, fmt::v11::detail::digit_grouping<char> const&)
PUBLIC 8cf94 0 fmt::v11::detail::write_int<fmt::v11::basic_appender<char>, unsigned __int128, char>(fmt::v11::basic_appender<char>, unsigned __int128, unsigned int, fmt::v11::format_specs const&, fmt::v11::detail::digit_grouping<char> const&)
PUBLIC 8d610 0 <.plt ELF section in undefined0.editormusic.android64.so>
STACK CFI INIT 3ae00 10 .cfa: sp 0 +
STACK CFI INIT 3ae10 8 .cfa: sp 0 +
STACK CFI INIT 3ae18 8 .cfa: sp 0 +
STACK CFI INIT 3ae20 14 .cfa: sp 0 +
STACK CFI INIT 3ae34 1c .cfa: sp 0 +
STACK CFI INIT 3ae50 10 .cfa: sp 0 +
STACK CFI INIT 3ae60 134 .cfa: sp 0 +
STACK CFI INIT 3af94 84 .cfa: sp 0 +
STACK CFI INIT 3b018 f4 .cfa: sp 0 +
STACK CFI INIT 3b10c a8 .cfa: sp 0 +
STACK CFI INIT 3b1b4 7c .cfa: sp 0 +
STACK CFI INIT 3b230 14 .cfa: sp 0 +
STACK CFI INIT 3b244 40 .cfa: sp 0 +
STACK CFI INIT 3b284 28 .cfa: sp 0 +
STACK CFI INIT 3b2ac 190 .cfa: sp 0 +
STACK CFI INIT 3b43c 2c8 .cfa: sp 0 +
STACK CFI INIT 3b704 8 .cfa: sp 0 +
STACK CFI INIT 3b70c 8 .cfa: sp 0 +
STACK CFI INIT 3b714 44 .cfa: sp 0 +
STACK CFI INIT 3b758 e8 .cfa: sp 0 +
STACK CFI INIT 3b840 e8 .cfa: sp 0 +
STACK CFI INIT 3b928 14 .cfa: sp 0 +
STACK CFI INIT 3b93c 10 .cfa: sp 0 +
STACK CFI INIT 3b94c 10 .cfa: sp 0 +
STACK CFI INIT 3b95c f0 .cfa: sp 0 +
STACK CFI INIT 3ba4c 44 .cfa: sp 0 +
STACK CFI INIT 3ba90 c .cfa: sp 0 +
STACK CFI INIT 3ba9c c .cfa: sp 0 +
STACK CFI INIT 3baa8 2c .cfa: sp 0 +
STACK CFI INIT 3bad4 23c .cfa: sp 0 +
STACK CFI INIT 3bd10 c .cfa: sp 0 +
STACK CFI INIT 3bd1c 120 .cfa: sp 0 +
STACK CFI INIT 3be3c 494 .cfa: sp 0 +
STACK CFI INIT 3c2d0 b78 .cfa: sp 0 +
STACK CFI INIT 3ce48 134 .cfa: sp 0 +
STACK CFI INIT 3cf7c 210 .cfa: sp 0 +
STACK CFI INIT 3d18c 38c .cfa: sp 0 +
STACK CFI INIT 3d518 1c8 .cfa: sp 0 +
STACK CFI INIT 3d6e0 9c4 .cfa: sp 0 +
STACK CFI INIT 3e0a4 2d4 .cfa: sp 0 +
STACK CFI INIT 3e378 130 .cfa: sp 0 +
STACK CFI INIT 3e4a8 120 .cfa: sp 0 +
STACK CFI INIT 3e5c8 1c8 .cfa: sp 0 +
STACK CFI INIT 3e790 168 .cfa: sp 0 +
STACK CFI INIT 3e8f8 fc .cfa: sp 0 +
STACK CFI INIT 3e9f4 30 .cfa: sp 0 +
STACK CFI INIT 3eb50 30 .cfa: sp 0 +
STACK CFI INIT 3eb80 98 .cfa: sp 0 +
STACK CFI INIT 3ec18 2ac .cfa: sp 0 +
STACK CFI INIT 3eec4 8c .cfa: sp 0 +
STACK CFI INIT 3ef50 30 .cfa: sp 0 +
STACK CFI INIT 3f0d4 a8 .cfa: sp 0 +
STACK CFI 3f0d8 .cfa: sp 48 +
STACK CFI 3f0e4 .cfa: x29 48 + x19: .cfa -8 + ^ x20: .cfa -16 + ^ x21: .cfa -24 + ^ x22: .cfa -32 + ^ .ra: .cfa -40 + ^ x29: .cfa -48 + ^
STACK CFI 3f16c .cfa: sp 48 +
STACK CFI 3f178 .cfa: sp 0 +
STACK CFI INIT 3f320 a8 .cfa: sp 0 +
STACK CFI 3f324 .cfa: sp 48 +
STACK CFI 3f330 .cfa: x29 48 + x19: .cfa -8 + ^ x20: .cfa -16 + ^ x21: .cfa -24 + ^ x22: .cfa -32 + ^ .ra: .cfa -40 + ^ x29: .cfa -48 + ^
STACK CFI 3f350 .cfa: sp 48 +
STACK CFI 3f35c .cfa: sp 0 +
STACK CFI 3f360 .cfa: x29 48 +
STACK CFI 3f3a8 .cfa: sp 48 +
STACK CFI 3f3b4 .cfa: sp 0 +
STACK CFI 3f3b8 .cfa: sp 48 +
STACK CFI 3f3c4 .cfa: sp 0 +
STACK CFI INIT 3f3c8 1bc .cfa: sp 0 +
STACK CFI 3f3cc .cfa: sp 80 +
STACK CFI 3f3e0 .cfa: x29 80 + x19: .cfa -8 + ^ x20: .cfa -16 + ^ x21: .cfa -24 + ^ x22: .cfa -32 + ^ x23: .cfa -40 + ^ x24: .cfa -48 + ^ x25: .cfa -64 + ^ .ra: .cfa -72 + ^ x29: .cfa -80 + ^
STACK CFI 3f554 .cfa: sp 80 +
STACK CFI 3f568 .cfa: sp 0 +
STACK CFI 3f56c .cfa: sp 80 +
STACK CFI 3f580 .cfa: sp 0 +
STACK CFI INIT 3f584 38 .cfa: sp 0 +
STACK CFI 3f588 .cfa: sp 32 +
STACK CFI 3f590 .cfa: x29 32 + x19: .cfa -16 + ^ .ra: .cfa -24 + ^ x29: .cfa -32 + ^
STACK CFI 3f5b0 .cfa: sp 32 +
STACK CFI 3f5b8 .cfa: sp 0 +
STACK CFI INIT 41408 50 .cfa: sp 0 +
STACK CFI 4140c .cfa: sp 32 +
STACK CFI 41414 .cfa: x29 32 + x19: .cfa -16 + ^ .ra: .cfa -24 + ^ x29: .cfa -32 + ^
STACK CFI 4142c .cfa: sp 32 +
STACK CFI 41434 .cfa: sp 0 +
STACK CFI 41438 .cfa: x29 32 +
STACK CFI 4144c .cfa: sp 32 +
STACK CFI 41454 .cfa: sp 0 +
STACK CFI INIT 42f58 50 .cfa: sp 0 +
STACK CFI 42f5c .cfa: sp 32 +
STACK CFI 42f64 .cfa: x29 32 + x19: .cfa -16 + ^ .ra: .cfa -24 + ^ x29: .cfa -32 + ^
STACK CFI 42f7c .cfa: sp 32 +
STACK CFI 42f84 .cfa: sp 0 +
STACK CFI 42f88 .cfa: x29 32 +
STACK CFI 42f9c .cfa: sp 32 +
STACK CFI 42fa4 .cfa: sp 0 +
STACK CFI INIT 43104 44 .cfa: sp 0 +
STACK CFI 43108 .cfa: sp 32 +
STACK CFI 43110 .cfa: x29 32 + x19: .cfa -16 + ^ .ra: .cfa -24 + ^ x29: .cfa -32 + ^
STACK CFI 4312c .cfa: sp 32 +
STACK CFI 43134 .cfa: sp 0 +
STACK CFI 43138 .cfa: x29 32 +
STACK CFI 4313c .cfa: sp 32 +
STACK CFI 43144 .cfa: sp 0 +
STACK CFI INIT 444c0 60 .cfa: sp 0 +
STACK CFI 444c4 .cfa: sp 32 +
STACK CFI 444cc .cfa: x29 32 + x19: .cfa -8 + ^ x20: .cfa -16 + ^ .ra: .cfa -24 + ^ x29: .cfa -32 + ^
STACK CFI 444ec .cfa: sp 32 +
STACK CFI 444f4 .cfa: sp 0 +
STACK CFI 444f8 .cfa: x29 32 +
STACK CFI 44514 .cfa: sp 32 +
STACK CFI 4451c .cfa: sp 0 +
STACK CFI INIT 44810 3c .cfa: sp 0 +
STACK CFI INIT 4484c 60 .cfa: sp 0 +
STACK CFI 44880 .cfa: sp 16 +
STACK CFI 44884 .cfa: x29 16 + .ra: .cfa -8 + ^ x29: .cfa -16 + ^
STACK CFI 44890 .cfa: sp 16 +
STACK CFI 44894 .cfa: sp 0 +
STACK CFI INIT 4576c a8 .cfa: sp 0 +
STACK CFI 45770 .cfa: sp 48 +
STACK CFI 4577c .cfa: x29 32 + x19: .cfa -8 + ^ x20: .cfa -16 + ^ .ra: .cfa -24 + ^ x29: .cfa -32 + ^
STACK CFI 45800 .cfa: sp 48 +
STACK CFI 4580c .cfa: sp 0 +
STACK CFI 45810 .cfa: x29 32 +
STACK CFI INIT 45814 54 .cfa: sp 0 +
STACK CFI 45818 .cfa: sp 48 +
STACK CFI 45824 .cfa: x29 32 + x19: .cfa -16 + ^ .ra: .cfa -24 + ^ x29: .cfa -32 + ^
STACK CFI 45854 .cfa: sp 48 +
STACK CFI 45860 .cfa: sp 0 +
STACK CFI 45864 .cfa: x29 32 +
STACK CFI INIT 45868 144 .cfa: sp 0 +
STACK CFI 4586c .cfa: sp 80 +
STACK CFI 45880 .cfa: x29 64 + x19: .cfa -8 + ^ x20: .cfa -16 + ^ x21: .cfa -24 + ^ x22: .cfa -32 + ^ x23: .cfa -48 + ^ .ra: .cfa -56 + ^ x29: .cfa -64 + ^
STACK CFI 45990 .cfa: sp 80 +
STACK CFI 459a4 .cfa: sp 0 +
STACK CFI 459a8 .cfa: x29 64 +
STACK CFI INIT 459ac ac .cfa: sp 0 +
STACK CFI 459b0 .cfa: sp 32 +
STACK CFI 459b8 .cfa: x29 32 + x19: .cfa -8 + ^ x20: .cfa -16 + ^ .ra: .cfa -24 + ^ x29: .cfa -32 + ^
STACK CFI 45a04 .cfa: sp 32 +
STACK CFI 45a0c .cfa: sp 0 +
STACK CFI 45a10 .cfa: x29 32 +
STACK CFI 45a24 .cfa: sp 32 +
STACK CFI 45a2c .cfa: sp 0 +
STACK CFI 45a30 .cfa: x29 32 +
STACK CFI 45a4c .cfa: sp 32 +
STACK CFI 45a54 .cfa: sp 0 +
STACK CFI INIT 45a58 10 .cfa: sp 0 +
STACK CFI INIT 46594 2a8 .cfa: sp 0 +
STACK CFI 465a8 .cfa: sp 64 +
STACK CFI 465b8 .cfa: x29 64 + x19: .cfa -8 + ^ x20: .cfa -16 + ^ x21: .cfa -24 + ^ x22: .cfa -32 + ^ x23: .cfa -40 + ^ x24: .cfa -48 + ^ .ra: .cfa -56 + ^ x29: .cfa -64 + ^
STACK CFI 46828 .cfa: sp 64 +
STACK CFI 46838 .cfa: sp 0 +
STACK CFI INIT 46968 308 .cfa: sp 0 +
STACK CFI 4696c .cfa: sp 144 +
STACK CFI 46988 .cfa: x29 80 + x19: .cfa -8 + ^ x20: .cfa -16 + ^ x21: .cfa -24 + ^ x22: .cfa -32 + ^ x23: .cfa -40 + ^ x24: .cfa -48 + ^ x25: .cfa -64 + ^ .ra: .cfa -72 + ^ x29: .cfa -80 + ^ v8: .cfa -88 + ^ v9: .cfa -96 + ^
STACK CFI 46c20 .cfa: sp 144 +
STACK CFI 46c3c .cfa: sp 0 +
STACK CFI 46c40 .cfa: x29 80 +
STACK CFI INIT 46c70 b0 .cfa: sp 0 +
STACK CFI 46c74 .cfa: sp 64 +
STACK CFI 46c84 .cfa: x29 48 + x19: .cfa -8 + ^ x20: .cfa -16 + ^ x21: .cfa -32 + ^ .ra: .cfa -40 + ^ x29: .cfa -48 + ^
STACK CFI 46d08 .cfa: sp 64 +
STACK CFI 46d18 .cfa: sp 0 +
STACK CFI 46d1c .cfa: x29 48 +
STACK CFI INIT 46efc 14 .cfa: sp 0 +
STACK CFI 46f00 .cfa: sp 16 +
STACK CFI 46f04 .cfa: x29 16 + .ra: .cfa -8 + ^ x29: .cfa -16 + ^
STACK CFI INIT 46f60 30 .cfa: sp 0 +
STACK CFI 46f64 .cfa: sp 32 +
STACK CFI 46f6c .cfa: x29 32 + x19: .cfa -16 + ^ .ra: .cfa -24 + ^ x29: .cfa -32 + ^
STACK CFI 46f84 .cfa: sp 32 +
STACK CFI 46f8c .cfa: sp 0 +
STACK CFI INIT 46f90 34 .cfa: sp 0 +
STACK CFI 46f94 .cfa: sp 32 +
STACK CFI 46f9c .cfa: x29 32 + x19: .cfa -16 + ^ .ra: .cfa -24 + ^ x29: .cfa -32 + ^
STACK CFI INIT 46fc4 10 .cfa: sp 0 +
STACK CFI 46fc8 .cfa: sp 16 +
STACK CFI 46fcc .cfa: x29 16 + .ra: .cfa -8 + ^ x29: .cfa -16 + ^
STACK CFI INIT 46fd4 14 .cfa: sp 0 +
STACK CFI 46fd8 .cfa: sp 16 +
STACK CFI 46fdc .cfa: x29 16 + .ra: .cfa -8 + ^ x29: .cfa -16 + ^
STACK CFI INIT 46fe8 14 .cfa: sp 0 +
STACK CFI 46fec .cfa: sp 16 +
STACK CFI 46ff0 .cfa: x29 16 + .ra: .cfa -8 + ^ x29: .cfa -16 + ^
STACK CFI INIT 46ffc 94 .cfa: sp 0 +
STACK CFI 47000 .cfa: sp 48 +
STACK CFI 4700c .cfa: x29 48 + x19: .cfa -8 + ^ x20: .cfa -16 + ^ x21: .cfa -24 + ^ x22: .cfa -32 + ^ .ra: .cfa -40 + ^ x29: .cfa -48 + ^
STACK CFI 47024 .cfa: sp 48 +
STACK CFI 47030 .cfa: sp 0 +
STACK CFI 47034 .cfa: x29 48 +
STACK CFI 47078 .cfa: sp 48 +
STACK CFI 47084 .cfa: sp 0 +
STACK CFI 47088 .cfa: x29 48 +
STACK CFI INIT 47090 14 .cfa: sp 0 +
STACK CFI 47094 .cfa: sp 16 +
STACK CFI 47098 .cfa: x29 16 + .ra: .cfa -8 + ^ x29: .cfa -16 + ^
STACK CFI INIT 470f4 30 .cfa: sp 0 +
STACK CFI 470f8 .cfa: sp 32 +
STACK CFI 47100 .cfa: x29 32 + x19: .cfa -16 + ^ .ra: .cfa -24 + ^ x29: .cfa -32 + ^
STACK CFI 47118 .cfa: sp 32 +
STACK CFI 47120 .cfa: sp 0 +
STACK CFI INIT 47124 50 .cfa: sp 0 +
STACK CFI 47128 .cfa: sp 32 +
STACK CFI 47130 .cfa: x29 32 + x19: .cfa -16 + ^ .ra: .cfa -24 + ^ x29: .cfa -32 + ^
STACK CFI 47148 .cfa: sp 32 +
STACK CFI 47150 .cfa: sp 0 +
STACK CFI 47154 .cfa: x29 32 +
STACK CFI 47168 .cfa: sp 32 +
STACK CFI 47170 .cfa: sp 0 +
STACK CFI INIT 47174 14 .cfa: sp 0 +
STACK CFI 47178 .cfa: sp 16 +
STACK CFI 4717c .cfa: x29 16 + .ra: .cfa -8 + ^ x29: .cfa -16 + ^
STACK CFI INIT 47188 30 .cfa: sp 0 +
STACK CFI INIT 47b84 188 .cfa: sp 0 +
STACK CFI 47b88 .cfa: sp 80 +
STACK CFI 47b9c .cfa: x29 80 + x19: .cfa -8 + ^ x20: .cfa -16 + ^ x21: .cfa -24 + ^ x22: .cfa -32 + ^ x23: .cfa -40 + ^ x24: .cfa -48 + ^ x25: .cfa -64 + ^ .ra: .cfa -72 + ^ x29: .cfa -80 + ^
STACK CFI 47cf0 .cfa: sp 80 +
STACK CFI 47d04 .cfa: sp 0 +
STACK CFI 47d08 .cfa: x29 80 +
STACK CFI INIT 47d0c 18c .cfa: sp 0 +
STACK CFI 47d10 .cfa: sp 64 +
STACK CFI 47d20 .cfa: x29 64 + x19: .cfa -8 + ^ x20: .cfa -16 + ^ x21: .cfa -24 + ^ x22: .cfa -32 + ^ x23: .cfa -40 + ^ x24: .cfa -48 + ^ .ra: .cfa -56 + ^ x29: .cfa -64 + ^
STACK CFI 47e80 .cfa: sp 64 +
STACK CFI 47e90 .cfa: sp 0 +
STACK CFI 47e94 .cfa: x29 64 +
STACK CFI INIT 47f64 50 .cfa: sp 0 +
STACK CFI 47f68 .cfa: sp 32 +
STACK CFI 47f70 .cfa: x29 32 + x19: .cfa -8 + ^ x20: .cfa -16 + ^ .ra: .cfa -24 + ^ x29: .cfa -32 + ^
STACK CFI 47f9c .cfa: sp 32 +
STACK CFI 47fa4 .cfa: sp 0 +
STACK CFI 47fa8 .cfa: sp 32 +
STACK CFI 47fb0 .cfa: sp 0 +
STACK CFI INIT 47fb4 3c .cfa: sp 0 +
STACK CFI 47fb8 .cfa: sp 32 +
STACK CFI 47fc0 .cfa: x29 32 + x19: .cfa -16 + ^ .ra: .cfa -24 + ^ x29: .cfa -32 + ^
STACK CFI 47fd8 .cfa: sp 32 +
STACK CFI 47fe0 .cfa: sp 0 +
STACK CFI 47fe4 .cfa: sp 32 +
STACK CFI 47fec .cfa: sp 0 +
STACK CFI INIT 47ff0 50 .cfa: sp 0 +
STACK CFI 47ff4 .cfa: sp 32 +
STACK CFI 47ffc .cfa: x29 32 + x19: .cfa -16 + ^ .ra: .cfa -24 + ^ x29: .cfa -32 + ^
STACK CFI 48014 .cfa: sp 32 +
STACK CFI 4801c .cfa: sp 0 +
STACK CFI 48020 .cfa: x29 32 +
STACK CFI 48034 .cfa: sp 32 +
STACK CFI 4803c .cfa: sp 0 +
STACK CFI INIT 48040 104 .cfa: sp 0 +
STACK CFI 48044 .cfa: sp 64 +
STACK CFI 48054 .cfa: x29 64 + x19: .cfa -8 + ^ x20: .cfa -16 + ^ x21: .cfa -24 + ^ x22: .cfa -32 + ^ x23: .cfa -48 + ^ .ra: .cfa -56 + ^ x29: .cfa -64 + ^
STACK CFI 480b0 .cfa: sp 64 +
STACK CFI 480c0 .cfa: sp 0 +
STACK CFI 480c4 .cfa: x29 64 +
STACK CFI 480e0 .cfa: sp 64 +
STACK CFI 480f0 .cfa: sp 0 +
STACK CFI 480f4 .cfa: x29 64 +
STACK CFI 48130 .cfa: sp 64 +
STACK CFI 48140 .cfa: sp 0 +
STACK CFI INIT 48144 4 .cfa: sp 0 +
STACK CFI INIT 48148 4 .cfa: sp 0 +
STACK CFI INIT 4814c 34 .cfa: sp 0 +
STACK CFI 48150 .cfa: sp 32 +
STACK CFI 48158 .cfa: x29 32 + x19: .cfa -16 + ^ .ra: .cfa -24 + ^ x29: .cfa -32 + ^
STACK CFI 48174 .cfa: sp 32 +
STACK CFI 4817c .cfa: sp 0 +
STACK CFI INIT 48180 14 .cfa: sp 0 +
STACK CFI INIT 48194 4 .cfa: sp 0 +
STACK CFI INIT 48198 4 .cfa: sp 0 +
STACK CFI INIT 4819c 28 .cfa: sp 0 +
STACK CFI 481a0 .cfa: sp 32 +
STACK CFI 481a8 .cfa: x29 32 + x19: .cfa -16 + ^ .ra: .cfa -24 + ^ x29: .cfa -32 + ^
STACK CFI 481b8 .cfa: sp 32 +
STACK CFI 481c0 .cfa: sp 0 +
STACK CFI INIT 481c4 1c .cfa: sp 0 +
STACK CFI INIT 481e0 c .cfa: sp 0 +
STACK CFI INIT 481ec 24 .cfa: sp 0 +
STACK CFI 481f0 .cfa: sp 32 +
STACK CFI 481f8 .cfa: x29 32 + x19: .cfa -16 + ^ .ra: .cfa -24 + ^ x29: .cfa -32 + ^
STACK CFI 48204 .cfa: sp 32 +
STACK CFI 4820c .cfa: sp 0 +
STACK CFI INIT 48210 10 .cfa: sp 0 +
STACK CFI INIT 48220 30 .cfa: sp 0 +
STACK CFI 48224 .cfa: sp 32 +
STACK CFI 4822c .cfa: x29 32 + x19: .cfa -16 + ^ .ra: .cfa -24 + ^ x29: .cfa -32 + ^
STACK CFI 48244 .cfa: sp 32 +
STACK CFI 4824c .cfa: sp 0 +
STACK CFI INIT 48250 8 .cfa: sp 0 +
STACK CFI INIT 48258 4 .cfa: sp 0 +
STACK CFI INIT 4825c 5c .cfa: sp 0 +
STACK CFI 48260 .cfa: sp 32 +
STACK CFI 48268 .cfa: x29 32 + x19: .cfa -16 + ^ .ra: .cfa -24 + ^ x29: .cfa -32 + ^
STACK CFI 4828c .cfa: sp 32 +
STACK CFI 48294 .cfa: sp 0 +
STACK CFI 48298 .cfa: x29 32 +
STACK CFI 482ac .cfa: sp 32 +
STACK CFI 482b4 .cfa: sp 0 +
STACK CFI INIT 482b8 6c .cfa: sp 0 +
STACK CFI 482bc .cfa: sp 32 +
STACK CFI 482c4 .cfa: x29 32 + x19: .cfa -8 + ^ x20: .cfa -16 + ^ .ra: .cfa -24 + ^ x29: .cfa -32 + ^
STACK CFI 482f0 .cfa: sp 32 +
STACK CFI 482f8 .cfa: sp 0 +
STACK CFI 482fc .cfa: x29 32 +
STACK CFI 48318 .cfa: sp 32 +
STACK CFI 48320 .cfa: sp 0 +
STACK CFI INIT 48324 58 .cfa: sp 0 +
STACK CFI 48328 .cfa: sp 32 +
STACK CFI 48330 .cfa: x29 32 + x19: .cfa -16 + ^ .ra: .cfa -24 + ^ x29: .cfa -32 + ^
STACK CFI 48370 .cfa: sp 32 +
STACK CFI 48378 .cfa: sp 0 +
STACK CFI INIT 4837c 3c .cfa: sp 0 +
STACK CFI 483a0 .cfa: sp 16 +
STACK CFI 483a4 .cfa: x29 16 + .ra: .cfa -8 + ^ x29: .cfa -16 + ^
STACK CFI 483b0 .cfa: sp 16 +
STACK CFI 483b4 .cfa: sp 0 +
STACK CFI INIT 483b8 50 .cfa: sp 0 +
STACK CFI 483bc .cfa: sp 32 +
STACK CFI 483c4 .cfa: x29 32 + x19: .cfa -16 + ^ .ra: .cfa -24 + ^ x29: .cfa -32 + ^
STACK CFI 483dc .cfa: sp 32 +
STACK CFI 483e4 .cfa: sp 0 +
STACK CFI 483e8 .cfa: x29 32 +
STACK CFI 483fc .cfa: sp 32 +
STACK CFI 48404 .cfa: sp 0 +
STACK CFI INIT 48408 60 .cfa: sp 0 +
STACK CFI 4840c .cfa: sp 32 +
STACK CFI 48414 .cfa: x29 32 + x19: .cfa -8 + ^ x20: .cfa -16 + ^ .ra: .cfa -24 + ^ x29: .cfa -32 + ^
STACK CFI 48434 .cfa: sp 32 +
STACK CFI 4843c .cfa: sp 0 +
STACK CFI 48440 .cfa: x29 32 +
STACK CFI 4845c .cfa: sp 32 +
STACK CFI 48464 .cfa: sp 0 +
STACK CFI INIT 48524 1c .cfa: sp 0 +
STACK CFI INIT 48540 c .cfa: sp 0 +
STACK CFI INIT 4854c 5c .cfa: sp 0 +
STACK CFI 48550 .cfa: sp 32 +
STACK CFI 48558 .cfa: x29 32 + x19: .cfa -16 + ^ .ra: .cfa -24 + ^ x29: .cfa -32 + ^
STACK CFI 48590 .cfa: sp 32 +
STACK CFI 48598 .cfa: sp 0 +
STACK CFI 4859c .cfa: sp 32 +
STACK CFI 485a4 .cfa: sp 0 +
STACK CFI INIT 485a8 1a8 .cfa: sp 0 +
STACK CFI INIT 48750 70 .cfa: sp 0 +
STACK CFI 48758 .cfa: sp 32 +
STACK CFI 48760 .cfa: x29 32 + x19: .cfa -16 + ^ .ra: .cfa -24 + ^ x29: .cfa -32 + ^
STACK CFI 48788 .cfa: sp 32 +
STACK CFI 48790 .cfa: sp 0 +
STACK CFI 48798 .cfa: x29 32 +
STACK CFI 487b4 .cfa: sp 32 +
STACK CFI 487bc .cfa: sp 0 +
STACK CFI INIT 487c0 168 .cfa: sp 0 +
STACK CFI 487c4 .cfa: sp 80 +
STACK CFI 487d8 .cfa: x29 80 + x19: .cfa -8 + ^ x20: .cfa -16 + ^ x21: .cfa -24 + ^ x22: .cfa -32 + ^ x23: .cfa -40 + ^ x24: .cfa -48 + ^ x25: .cfa -56 + ^ x26: .cfa -64 + ^ .ra: .cfa -72 + ^ x29: .cfa -80 + ^
STACK CFI 48910 .cfa: sp 80 +
STACK CFI 48924 .cfa: sp 0 +
STACK CFI INIT 48928 5c .cfa: sp 0 +
STACK CFI 4892c .cfa: sp 32 +
STACK CFI 48934 .cfa: x29 32 + x19: .cfa -16 + ^ .ra: .cfa -24 + ^ x29: .cfa -32 + ^
STACK CFI 48958 .cfa: sp 32 +
STACK CFI 48960 .cfa: sp 0 +
STACK CFI 48964 .cfa: x29 32 +
STACK CFI 48978 .cfa: sp 32 +
STACK CFI 48980 .cfa: sp 0 +
STACK CFI INIT 48984 6c .cfa: sp 0 +
STACK CFI 48988 .cfa: sp 32 +
STACK CFI 48990 .cfa: x29 32 + x19: .cfa -8 + ^ x20: .cfa -16 + ^ .ra: .cfa -24 + ^ x29: .cfa -32 + ^
STACK CFI 489bc .cfa: sp 32 +
STACK CFI 489c4 .cfa: sp 0 +
STACK CFI 489c8 .cfa: x29 32 +
STACK CFI 489e4 .cfa: sp 32 +
STACK CFI 489ec .cfa: sp 0 +
STACK CFI INIT 489f0 58 .cfa: sp 0 +
STACK CFI 489f4 .cfa: sp 32 +
STACK CFI 489fc .cfa: x29 32 + x19: .cfa -8 + ^ x20: .cfa -16 + ^ .ra: .cfa -24 + ^ x29: .cfa -32 + ^
STACK CFI 48a3c .cfa: sp 32 +
STACK CFI 48a44 .cfa: sp 0 +
STACK CFI INIT 48a48 4c .cfa: sp 0 +
STACK CFI 48a4c .cfa: sp 32 +
STACK CFI 48a54 .cfa: x29 32 + x19: .cfa -8 + ^ x20: .cfa -16 + ^ .ra: .cfa -24 + ^ x29: .cfa -32 + ^
STACK CFI 48a88 .cfa: sp 32 +
STACK CFI 48a90 .cfa: sp 0 +
STACK CFI INIT 48a94 50 .cfa: sp 0 +
STACK CFI 48a98 .cfa: sp 32 +
STACK CFI 48aa0 .cfa: x29 32 + x19: .cfa -16 + ^ .ra: .cfa -24 + ^ x29: .cfa -32 + ^
STACK CFI 48ab8 .cfa: sp 32 +
STACK CFI 48ac0 .cfa: sp 0 +
STACK CFI 48ac4 .cfa: x29 32 +
STACK CFI 48ad8 .cfa: sp 32 +
STACK CFI 48ae0 .cfa: sp 0 +
STACK CFI INIT 48ae4 60 .cfa: sp 0 +
STACK CFI 48ae8 .cfa: sp 32 +
STACK CFI 48af0 .cfa: x29 32 + x19: .cfa -8 + ^ x20: .cfa -16 + ^ .ra: .cfa -24 + ^ x29: .cfa -32 + ^
STACK CFI 48b10 .cfa: sp 32 +
STACK CFI 48b18 .cfa: sp 0 +
STACK CFI 48b1c .cfa: x29 32 +
STACK CFI 48b38 .cfa: sp 32 +
STACK CFI 48b40 .cfa: sp 0 +
STACK CFI INIT 48d20 1c .cfa: sp 0 +
STACK CFI INIT 48d3c c .cfa: sp 0 +
STACK CFI INIT 49458 26c .cfa: sp 0 +
STACK CFI 4945c .cfa: sp 112 +
STACK CFI 49478 .cfa: x29 96 + x19: .cfa -8 + ^ x20: .cfa -16 + ^ x21: .cfa -24 + ^ x22: .cfa -32 + ^ x23: .cfa -40 + ^ x24: .cfa -48 + ^ x25: .cfa -56 + ^ x26: .cfa -64 + ^ x27: .cfa -72 + ^ x28: .cfa -80 + ^ .ra: .cfa -88 + ^ x29: .cfa -96 + ^
STACK CFI 496a4 .cfa: sp 112 +
STACK CFI 496c0 .cfa: sp 0 +
STACK CFI INIT 496c4 1a8 .cfa: sp 0 +
STACK CFI 496c8 .cfa: sp 64 +
STACK CFI 496d8 .cfa: x29 64 + x19: .cfa -8 + ^ x20: .cfa -16 + ^ x21: .cfa -24 + ^ x22: .cfa -32 + ^ x23: .cfa -48 + ^ .ra: .cfa -56 + ^ x29: .cfa -64 + ^
STACK CFI 4975c .cfa: sp 64 +
STACK CFI 4976c .cfa: sp 0 +
STACK CFI 49770 .cfa: x29 64 +
STACK CFI 49778 .cfa: sp 64 +
STACK CFI 49788 .cfa: sp 0 +
STACK CFI 4978c .cfa: x29 64 +
STACK CFI 49854 .cfa: sp 64 +
STACK CFI 49864 .cfa: sp 0 +
STACK CFI 49868 .cfa: x29 64 +
STACK CFI INIT 4986c 170 .cfa: sp 0 +
STACK CFI 49870 .cfa: sp 96 +
STACK CFI 49888 .cfa: x29 96 + x19: .cfa -8 + ^ x20: .cfa -16 + ^ x21: .cfa -24 + ^ x22: .cfa -32 + ^ x23: .cfa -40 + ^ x24: .cfa -48 + ^ x25: .cfa -56 + ^ x26: .cfa -64 + ^ x27: .cfa -80 + ^ .ra: .cfa -88 + ^ x29: .cfa -96 + ^
STACK CFI 499bc .cfa: sp 96 +
STACK CFI 499d4 .cfa: sp 0 +
STACK CFI 499d8 .cfa: x29 96 +
STACK CFI INIT 49a28 4 .cfa: sp 0 +
STACK CFI INIT 49a2c c .cfa: sp 0 +
STACK CFI INIT 49a38 4 .cfa: sp 0 +
STACK CFI INIT 49a3c 4 .cfa: sp 0 +
STACK CFI INIT 49a40 24 .cfa: sp 0 +
STACK CFI 49a44 .cfa: sp 32 +
STACK CFI 49a4c .cfa: x29 32 + x19: .cfa -16 + ^ .ra: .cfa -24 + ^ x29: .cfa -32 + ^
STACK CFI 49a58 .cfa: sp 32 +
STACK CFI 49a60 .cfa: sp 0 +
STACK CFI INIT 49a64 18 .cfa: sp 0 +
STACK CFI INIT 49a7c 1c .cfa: sp 0 +
STACK CFI INIT 49a98 4 .cfa: sp 0 +
STACK CFI INIT 49a9c 48 .cfa: sp 0 +
STACK CFI 49ab8 .cfa: sp 32 +
STACK CFI 49ac0 .cfa: x29 32 + x19: .cfa -16 + ^ .ra: .cfa -24 + ^ x29: .cfa -32 + ^
STACK CFI 49ad8 .cfa: sp 32 +
STACK CFI 49ae0 .cfa: sp 0 +
STACK CFI INIT 49ae4 14 .cfa: sp 0 +
STACK CFI INIT 49af8 48 .cfa: sp 0 +
STACK CFI 49b14 .cfa: sp 32 +
STACK CFI 49b1c .cfa: x29 32 + x19: .cfa -16 + ^ .ra: .cfa -24 + ^ x29: .cfa -32 + ^
STACK CFI 49b34 .cfa: sp 32 +
STACK CFI 49b3c .cfa: sp 0 +
STACK CFI INIT 4a4e8 3f4 .cfa: sp 0 +
STACK CFI 4a4ec .cfa: sp 32 +
STACK CFI 4a4f4 .cfa: x29 32 + x19: .cfa -16 + ^ .ra: .cfa -24 + ^ x29: .cfa -32 + ^
STACK CFI 4a640 .cfa: sp 32 +
STACK CFI 4a648 .cfa: sp 0 +
STACK CFI 4a64c .cfa: x29 32 +
STACK CFI 4a654 .cfa: sp 32 +
STACK CFI 4a65c .cfa: sp 0 +
STACK CFI 4a660 .cfa: x29 32 +
STACK CFI 4a69c .cfa: sp 32 +
STACK CFI 4a6a4 .cfa: sp 0 +
STACK CFI 4a6a8 .cfa: x29 32 +
STACK CFI 4a6e4 .cfa: sp 32 +
STACK CFI 4a6ec .cfa: sp 0 +
STACK CFI 4a6f0 .cfa: x29 32 +
STACK CFI 4a71c .cfa: sp 32 +
STACK CFI 4a724 .cfa: sp 0 +
STACK CFI 4a728 .cfa: x29 32 +
STACK CFI 4a744 .cfa: sp 32 +
STACK CFI 4a74c .cfa: sp 0 +
STACK CFI 4a750 .cfa: x29 32 +
STACK CFI 4a7b4 .cfa: sp 32 +
STACK CFI 4a7bc .cfa: sp 0 +
STACK CFI 4a7c0 .cfa: x29 32 +
STACK CFI 4a890 .cfa: sp 32 +
STACK CFI 4a898 .cfa: sp 0 +
STACK CFI 4a89c .cfa: x29 32 +
STACK CFI 4a8c8 .cfa: sp 32 +
STACK CFI 4a8d0 .cfa: sp 0 +
STACK CFI 4a8d4 .cfa: x29 32 +
STACK CFI INIT 4a948 b4 .cfa: sp 0 +
STACK CFI 4a94c .cfa: sp 64 +
STACK CFI 4a95c .cfa: x29 64 + x19: .cfa -8 + ^ x20: .cfa -16 + ^ x21: .cfa -24 + ^ x22: .cfa -32 + ^ x23: .cfa -48 + ^ .ra: .cfa -56 + ^ x29: .cfa -64 + ^
STACK CFI 4a9e8 .cfa: sp 64 +
STACK CFI 4a9f8 .cfa: sp 0 +
STACK CFI INIT 4aa48 48 .cfa: sp 0 +
STACK CFI 4aa64 .cfa: sp 32 +
STACK CFI 4aa6c .cfa: x29 32 + x19: .cfa -16 + ^ .ra: .cfa -24 + ^ x29: .cfa -32 + ^
STACK CFI 4aa84 .cfa: sp 32 +
STACK CFI 4aa8c .cfa: sp 0 +
STACK CFI INIT 4aa90 64 .cfa: sp 0 +
STACK CFI INIT 4aaf4 48 .cfa: sp 0 +
STACK CFI 4ab10 .cfa: sp 32 +
STACK CFI 4ab18 .cfa: x29 32 + x19: .cfa -16 + ^ .ra: .cfa -24 + ^ x29: .cfa -32 + ^
STACK CFI 4ab30 .cfa: sp 32 +
STACK CFI 4ab38 .cfa: sp 0 +
STACK CFI INIT 4ab3c 54 .cfa: sp 0 +
STACK CFI INIT 4ab90 5c .cfa: sp 0 +
STACK CFI 4ab94 .cfa: sp 32 +
STACK CFI 4ab9c .cfa: x29 32 + x19: .cfa -16 + ^ .ra: .cfa -24 + ^ x29: .cfa -32 + ^
STACK CFI 4abd4 .cfa: sp 32 +
STACK CFI 4abdc .cfa: sp 0 +
STACK CFI 4abe0 .cfa: sp 32 +
STACK CFI 4abe8 .cfa: sp 0 +
STACK CFI INIT 4abec 58 .cfa: sp 0 +
STACK CFI 4abf0 .cfa: sp 32 +
STACK CFI 4abf8 .cfa: x29 32 + x19: .cfa -16 + ^ .ra: .cfa -24 + ^ x29: .cfa -32 + ^
STACK CFI 4ac38 .cfa: sp 32 +
STACK CFI 4ac40 .cfa: sp 0 +
STACK CFI INIT 4ac44 110 .cfa: sp 0 +
STACK CFI INIT 4ad54 90 .cfa: sp 0 +
STACK CFI 4ad58 .cfa: sp 32 +
STACK CFI 4ad60 .cfa: x29 32 + x19: .cfa -8 + ^ x20: .cfa -16 + ^ .ra: .cfa -24 + ^ x29: .cfa -32 + ^
STACK CFI 4adcc .cfa: sp 32 +
STACK CFI 4add4 .cfa: sp 0 +
STACK CFI 4add8 .cfa: sp 32 +
STACK CFI 4ade0 .cfa: sp 0 +
STACK CFI INIT 4ade4 8c .cfa: sp 0 +
STACK CFI 4ade8 .cfa: sp 32 +
STACK CFI 4adf0 .cfa: x29 32 + x19: .cfa -8 + ^ x20: .cfa -16 + ^ .ra: .cfa -24 + ^ x29: .cfa -32 + ^
STACK CFI 4ae64 .cfa: sp 32 +
STACK CFI 4ae6c .cfa: sp 0 +
STACK CFI INIT 4b48c 1d0 .cfa: sp 0 +
STACK CFI 4b490 .cfa: sp 48 +
STACK CFI 4b49c .cfa: x29 48 + x19: .cfa -8 + ^ x20: .cfa -16 + ^ x21: .cfa -24 + ^ x22: .cfa -32 + ^ .ra: .cfa -40 + ^ x29: .cfa -48 + ^
STACK CFI 4b62c .cfa: sp 48 +
STACK CFI 4b638 .cfa: sp 0 +
STACK CFI 4b63c .cfa: x29 48 +
STACK CFI 4b648 .cfa: sp 48 +
STACK CFI 4b654 .cfa: sp 0 +
STACK CFI 4b658 .cfa: x29 48 +
STACK CFI INIT 4b65c 14 .cfa: sp 0 +
STACK CFI 4b660 .cfa: sp 16 +
STACK CFI 4b664 .cfa: x29 16 + .ra: .cfa -8 + ^ x29: .cfa -16 + ^
STACK CFI INIT 4b670 44 .cfa: sp 0 +
STACK CFI 4b674 .cfa: sp 32 +
STACK CFI 4b67c .cfa: x29 32 + x19: .cfa -16 + ^ .ra: .cfa -24 + ^ x29: .cfa -32 + ^
STACK CFI 4b69c .cfa: sp 32 +
STACK CFI 4b6a4 .cfa: sp 0 +
STACK CFI 4b6a8 .cfa: sp 32 +
STACK CFI 4b6b0 .cfa: sp 0 +
STACK CFI INIT 4b8bc 98 .cfa: sp 0 +
STACK CFI 4b8c0 .cfa: sp 48 +
STACK CFI 4b8cc .cfa: x29 48 + x19: .cfa -8 + ^ x20: .cfa -16 + ^ x21: .cfa -32 + ^ .ra: .cfa -40 + ^ x29: .cfa -48 + ^
STACK CFI 4b8ec .cfa: sp 48 +
STACK CFI 4b8f8 .cfa: sp 0 +
STACK CFI 4b8fc .cfa: x29 48 +
STACK CFI 4b934 .cfa: sp 48 +
STACK CFI 4b940 .cfa: sp 0 +
STACK CFI 4b944 .cfa: sp 48 +
STACK CFI 4b950 .cfa: sp 0 +
STACK CFI INIT 4b954 1cc .cfa: sp 0 +
STACK CFI 4b958 .cfa: sp 64 +
STACK CFI 4b968 .cfa: x29 64 + x19: .cfa -8 + ^ x20: .cfa -16 + ^ x21: .cfa -24 + ^ x22: .cfa -32 + ^ x23: .cfa -40 + ^ x24: .cfa -48 + ^ .ra: .cfa -56 + ^ x29: .cfa -64 + ^
STACK CFI 4bb04 .cfa: sp 64 +
STACK CFI 4bb14 .cfa: sp 0 +
STACK CFI 4bb18 .cfa: x29 64 +
STACK CFI INIT 4bb20 14 .cfa: sp 0 +
STACK CFI 4bb24 .cfa: sp 16 +
STACK CFI 4bb28 .cfa: x29 16 + .ra: .cfa -8 + ^ x29: .cfa -16 + ^
STACK CFI INIT 4bb34 188 .cfa: sp 0 +
STACK CFI 4bb38 .cfa: sp 64 +
STACK CFI 4bb48 .cfa: x29 64 + x19: .cfa -8 + ^ x20: .cfa -16 + ^ x21: .cfa -24 + ^ x22: .cfa -32 + ^ x23: .cfa -40 + ^ x24: .cfa -48 + ^ .ra: .cfa -56 + ^ x29: .cfa -64 + ^
STACK CFI 4bc8c .cfa: sp 64 +
STACK CFI 4bc9c .cfa: sp 0 +
STACK CFI 4bca0 .cfa: sp 64 +
STACK CFI 4bcb0 .cfa: sp 0 +
STACK CFI 4bcb4 .cfa: x29 64 +
STACK CFI INIT 4bcbc 128 .cfa: sp 0 +
STACK CFI 4bcc0 .cfa: sp 80 +
STACK CFI 4bcd4 .cfa: x29 80 + x19: .cfa -8 + ^ x20: .cfa -16 + ^ x21: .cfa -24 + ^ x22: .cfa -32 + ^ x23: .cfa -40 + ^ x24: .cfa -48 + ^ x25: .cfa -64 + ^ .ra: .cfa -72 + ^ x29: .cfa -80 + ^
STACK CFI 4bdac .cfa: sp 80 +
STACK CFI 4bdc0 .cfa: sp 0 +
STACK CFI 4bdc4 .cfa: sp 80 +
STACK CFI 4bdd8 .cfa: sp 0 +
STACK CFI 4bddc .cfa: x29 80 +
STACK CFI INIT 4bde4 14 .cfa: sp 0 +
STACK CFI 4bde8 .cfa: sp 16 +
STACK CFI 4bdec .cfa: x29 16 + .ra: .cfa -8 + ^ x29: .cfa -16 + ^
STACK CFI INIT 4cf58 48 .cfa: sp 0 +
STACK CFI 4cf74 .cfa: sp 32 +
STACK CFI 4cf7c .cfa: x29 32 + x19: .cfa -16 + ^ .ra: .cfa -24 + ^ x29: .cfa -32 + ^
STACK CFI 4cf94 .cfa: sp 32 +
STACK CFI 4cf9c .cfa: sp 0 +
STACK CFI INIT 4cfec 50c .cfa: sp 0 +
STACK CFI 4cff0 .cfa: sp 32 +
STACK CFI 4cff8 .cfa: x29 32 + x19: .cfa -16 + ^ .ra: .cfa -24 + ^ x29: .cfa -32 + ^
STACK CFI 4d140 .cfa: sp 32 +
STACK CFI 4d148 .cfa: sp 0 +
STACK CFI 4d14c .cfa: x29 32 +
STACK CFI 4d2bc .cfa: sp 32 +
STACK CFI 4d2c4 .cfa: sp 0 +
STACK CFI 4d2c8 .cfa: x29 32 +
STACK CFI 4d2e4 .cfa: sp 32 +
STACK CFI 4d2ec .cfa: sp 0 +
STACK CFI 4d2f0 .cfa: x29 32 +
STACK CFI 4d34c .cfa: sp 32 +
STACK CFI 4d354 .cfa: sp 0 +
STACK CFI 4d358 .cfa: x29 32 +
STACK CFI 4d374 .cfa: sp 32 +
STACK CFI 4d37c .cfa: sp 0 +
STACK CFI 4d380 .cfa: x29 32 +
STACK CFI 4d39c .cfa: sp 32 +
STACK CFI 4d3a4 .cfa: sp 0 +
STACK CFI 4d3a8 .cfa: x29 32 +
STACK CFI 4d3c4 .cfa: sp 32 +
STACK CFI 4d3cc .cfa: sp 0 +
STACK CFI 4d3d0 .cfa: x29 32 +
STACK CFI 4d3e8 .cfa: sp 32 +
STACK CFI 4d3f0 .cfa: sp 0 +
STACK CFI 4d3f4 .cfa: x29 32 +
STACK CFI 4d410 .cfa: sp 32 +
STACK CFI 4d418 .cfa: sp 0 +
STACK CFI 4d41c .cfa: x29 32 +
STACK CFI 4d438 .cfa: sp 32 +
STACK CFI 4d440 .cfa: sp 0 +
STACK CFI 4d444 .cfa: x29 32 +
STACK CFI 4d460 .cfa: sp 32 +
STACK CFI 4d468 .cfa: sp 0 +
STACK CFI 4d46c .cfa: x29 32 +
STACK CFI 4d4c0 .cfa: sp 32 +
STACK CFI 4d4c8 .cfa: sp 0 +
STACK CFI 4d4cc .cfa: x29 32 +
STACK CFI 4d4e8 .cfa: sp 32 +
STACK CFI 4d4f0 .cfa: sp 0 +
STACK CFI 4d4f4 .cfa: x29 32 +
STACK CFI INIT 4d684 c8 .cfa: sp 0 +
STACK CFI 4d688 .cfa: sp 48 +
STACK CFI 4d694 .cfa: x29 48 + x19: .cfa -8 + ^ x20: .cfa -16 + ^ x21: .cfa -32 + ^ .ra: .cfa -40 + ^ x29: .cfa -48 + ^
STACK CFI 4d73c .cfa: sp 48 +
STACK CFI 4d748 .cfa: sp 0 +
STACK CFI INIT 4d74c 5c .cfa: sp 0 +
STACK CFI 4d750 .cfa: sp 32 +
STACK CFI 4d758 .cfa: x29 32 + x19: .cfa -16 + ^ .ra: .cfa -24 + ^ x29: .cfa -32 + ^
STACK CFI 4d790 .cfa: sp 32 +
STACK CFI 4d798 .cfa: sp 0 +
STACK CFI 4d79c .cfa: sp 32 +
STACK CFI 4d7a4 .cfa: sp 0 +
STACK CFI INIT 4d7a8 58 .cfa: sp 0 +
STACK CFI 4d7ac .cfa: sp 32 +
STACK CFI 4d7b4 .cfa: x29 32 + x19: .cfa -16 + ^ .ra: .cfa -24 + ^ x29: .cfa -32 + ^
STACK CFI 4d7f4 .cfa: sp 32 +
STACK CFI 4d7fc .cfa: sp 0 +
STACK CFI INIT 4d800 80 .cfa: sp 0 +
STACK CFI 4d804 .cfa: sp 32 +
STACK CFI 4d80c .cfa: x29 32 + x19: .cfa -8 + ^ x20: .cfa -16 + ^ .ra: .cfa -24 + ^ x29: .cfa -32 + ^
STACK CFI 4d85c .cfa: sp 32 +
STACK CFI 4d864 .cfa: sp 0 +
STACK CFI 4d868 .cfa: x29 32 +
STACK CFI 4d874 .cfa: sp 32 +
STACK CFI 4d87c .cfa: sp 0 +
STACK CFI INIT 4d880 5c .cfa: sp 0 +
STACK CFI 4d884 .cfa: sp 32 +
STACK CFI 4d88c .cfa: x29 32 + x19: .cfa -16 + ^ .ra: .cfa -24 + ^ x29: .cfa -32 + ^
STACK CFI 4d8c4 .cfa: sp 32 +
STACK CFI 4d8cc .cfa: sp 0 +
STACK CFI 4d8d0 .cfa: sp 32 +
STACK CFI 4d8d8 .cfa: sp 0 +
STACK CFI INIT 4d8dc 58 .cfa: sp 0 +
STACK CFI 4d8e0 .cfa: sp 32 +
STACK CFI 4d8e8 .cfa: x29 32 + x19: .cfa -16 + ^ .ra: .cfa -24 + ^ x29: .cfa -32 + ^
STACK CFI 4d928 .cfa: sp 32 +
STACK CFI 4d930 .cfa: sp 0 +
STACK CFI INIT 4d934 48 .cfa: sp 0 +
STACK CFI INIT 4d97c 48 .cfa: sp 0 +
STACK CFI 4d998 .cfa: sp 32 +
STACK CFI 4d9a0 .cfa: x29 32 + x19: .cfa -16 + ^ .ra: .cfa -24 + ^ x29: .cfa -32 + ^
STACK CFI 4d9b8 .cfa: sp 32 +
STACK CFI 4d9c0 .cfa: sp 0 +
STACK CFI INIT 4d9c4 48 .cfa: sp 0 +
STACK CFI INIT 4da0c 5c .cfa: sp 0 +
STACK CFI 4da10 .cfa: sp 32 +
STACK CFI 4da18 .cfa: x29 32 + x19: .cfa -16 + ^ .ra: .cfa -24 + ^ x29: .cfa -32 + ^
STACK CFI 4da50 .cfa: sp 32 +
STACK CFI 4da58 .cfa: sp 0 +
STACK CFI 4da5c .cfa: sp 32 +
STACK CFI 4da64 .cfa: sp 0 +
STACK CFI INIT 4da68 58 .cfa: sp 0 +
STACK CFI 4da6c .cfa: sp 32 +
STACK CFI 4da74 .cfa: x29 32 + x19: .cfa -16 + ^ .ra: .cfa -24 + ^ x29: .cfa -32 + ^
STACK CFI 4dab4 .cfa: sp 32 +
STACK CFI 4dabc .cfa: sp 0 +
STACK CFI INIT 4dac0 f8 .cfa: sp 0 +
STACK CFI 4dac4 .cfa: sp 64 +
STACK CFI 4dad4 .cfa: x29 64 + x19: .cfa -8 + ^ x20: .cfa -16 + ^ x21: .cfa -24 + ^ x22: .cfa -32 + ^ x23: .cfa -40 + ^ x24: .cfa -48 + ^ .ra: .cfa -56 + ^ x29: .cfa -64 + ^
STACK CFI 4db18 .cfa: sp 64 +
STACK CFI 4db28 .cfa: sp 0 +
STACK CFI 4db2c .cfa: x29 64 +
STACK CFI 4dba4 .cfa: sp 64 +
STACK CFI 4dbb4 .cfa: sp 0 +
STACK CFI INIT 4dbb8 5c .cfa: sp 0 +
STACK CFI 4dbbc .cfa: sp 32 +
STACK CFI 4dbc4 .cfa: x29 32 + x19: .cfa -16 + ^ .ra: .cfa -24 + ^ x29: .cfa -32 + ^
STACK CFI 4dbfc .cfa: sp 32 +
STACK CFI 4dc04 .cfa: sp 0 +
STACK CFI 4dc08 .cfa: sp 32 +
STACK CFI 4dc10 .cfa: sp 0 +
STACK CFI INIT 4dc14 58 .cfa: sp 0 +
STACK CFI 4dc18 .cfa: sp 32 +
STACK CFI 4dc20 .cfa: x29 32 + x19: .cfa -16 + ^ .ra: .cfa -24 + ^ x29: .cfa -32 + ^
STACK CFI 4dc60 .cfa: sp 32 +
STACK CFI 4dc68 .cfa: sp 0 +
STACK CFI INIT 4dc6c 88 .cfa: sp 0 +
STACK CFI INIT 4dcf4 48 .cfa: sp 0 +
STACK CFI 4dd10 .cfa: sp 32 +
STACK CFI 4dd18 .cfa: x29 32 + x19: .cfa -16 + ^ .ra: .cfa -24 + ^ x29: .cfa -32 + ^
STACK CFI 4dd30 .cfa: sp 32 +
STACK CFI 4dd38 .cfa: sp 0 +
STACK CFI INIT 4dd3c c8 .cfa: sp 0 +
STACK CFI 4dd40 .cfa: sp 48 +
STACK CFI 4dd4c .cfa: x29 48 + x19: .cfa -8 + ^ x20: .cfa -16 + ^ x21: .cfa -24 + ^ x22: .cfa -32 + ^ .ra: .cfa -40 + ^ x29: .cfa -48 + ^
STACK CFI 4ddc8 .cfa: sp 48 +
STACK CFI 4ddd4 .cfa: sp 0 +
STACK CFI 4ddd8 .cfa: x29 48 +
STACK CFI 4ddf0 .cfa: sp 48 +
STACK CFI 4ddfc .cfa: sp 0 +
STACK CFI 4de00 .cfa: x29 48 +
STACK CFI INIT 4de04 184 .cfa: sp 0 +
STACK CFI 4de08 .cfa: sp 64 +
STACK CFI 4de18 .cfa: x29 64 + x19: .cfa -8 + ^ x20: .cfa -16 + ^ x21: .cfa -24 + ^ x22: .cfa -32 + ^ x23: .cfa -40 + ^ x24: .cfa -48 + ^ .ra: .cfa -56 + ^ x29: .cfa -64 + ^
STACK CFI 4de60 .cfa: sp 64 +
STACK CFI 4de70 .cfa: sp 0 +
STACK CFI 4de74 .cfa: x29 64 +
STACK CFI 4df58 .cfa: sp 64 +
STACK CFI 4df68 .cfa: sp 0 +
STACK CFI 4df6c .cfa: x29 64 +
STACK CFI 4df70 .cfa: sp 64 +
STACK CFI 4df80 .cfa: sp 0 +
STACK CFI 4df84 .cfa: x29 64 +
STACK CFI INIT 4e160 7c .cfa: sp 0 +
STACK CFI 4e164 .cfa: sp 48 +
STACK CFI 4e170 .cfa: x29 48 + x19: .cfa -8 + ^ x20: .cfa -16 + ^ x21: .cfa -32 + ^ .ra: .cfa -40 + ^ x29: .cfa -48 + ^
STACK CFI 4e1bc .cfa: sp 48 +
STACK CFI 4e1c8 .cfa: sp 0 +
STACK CFI 4e1cc .cfa: sp 48 +
STACK CFI 4e1d8 .cfa: sp 0 +
STACK CFI INIT 4e1dc ac .cfa: sp 0 +
STACK CFI 4e1e0 .cfa: sp 48 +
STACK CFI 4e1ec .cfa: x29 48 + x19: .cfa -8 + ^ x20: .cfa -16 + ^ x21: .cfa -24 + ^ x22: .cfa -32 + ^ .ra: .cfa -40 + ^ x29: .cfa -48 + ^
STACK CFI 4e20c .cfa: sp 48 +
STACK CFI 4e218 .cfa: sp 0 +
STACK CFI 4e21c .cfa: x29 48 +
STACK CFI 4e268 .cfa: sp 48 +
STACK CFI 4e274 .cfa: sp 0 +
STACK CFI 4e278 .cfa: sp 48 +
STACK CFI 4e284 .cfa: sp 0 +
STACK CFI INIT 4e288 154 .cfa: sp 0 +
STACK CFI 4e28c .cfa: sp 48 +
STACK CFI 4e298 .cfa: x29 48 + x19: .cfa -8 + ^ x20: .cfa -16 + ^ x21: .cfa -24 + ^ x22: .cfa -32 + ^ .ra: .cfa -40 + ^ x29: .cfa -48 + ^
STACK CFI 4e3bc .cfa: sp 48 +
STACK CFI 4e3c8 .cfa: sp 0 +
STACK CFI 4e3cc .cfa: sp 48 +
STACK CFI 4e3d8 .cfa: sp 0 +
STACK CFI INIT 4e3dc 24 .cfa: sp 0 +
STACK CFI 4e3e0 .cfa: sp 32 +
STACK CFI 4e3e8 .cfa: x29 32 + x19: .cfa -16 + ^ .ra: .cfa -24 + ^ x29: .cfa -32 + ^
STACK CFI 4e3f4 .cfa: sp 32 +
STACK CFI 4e3fc .cfa: sp 0 +
STACK CFI INIT 4f034 44 .cfa: sp 0 +
STACK CFI 4f038 .cfa: sp 32 +
STACK CFI 4f040 .cfa: x29 32 + x19: .cfa -16 + ^ .ra: .cfa -24 + ^ x29: .cfa -32 + ^
STACK CFI 4f05c .cfa: sp 32 +
STACK CFI 4f064 .cfa: sp 0 +
STACK CFI 4f068 .cfa: x29 32 +
STACK CFI 4f06c .cfa: sp 32 +
STACK CFI 4f074 .cfa: sp 0 +
STACK CFI INIT 4f078 ac .cfa: sp 0 +
STACK CFI 4f07c .cfa: sp 64 +
STACK CFI 4f08c .cfa: x29 64 + x19: .cfa -8 + ^ x20: .cfa -16 + ^ x21: .cfa -24 + ^ x22: .cfa -32 + ^ x23: .cfa -48 + ^ .ra: .cfa -56 + ^ x29: .cfa -64 + ^
STACK CFI 4f108 .cfa: sp 64 +
STACK CFI 4f118 .cfa: sp 0 +
STACK CFI 4f11c .cfa: x29 64 +
STACK CFI INIT 4f124 13c .cfa: sp 0 +
STACK CFI 4f128 .cfa: sp 64 +
STACK CFI 4f138 .cfa: x29 64 + x19: .cfa -8 + ^ x20: .cfa -16 + ^ x21: .cfa -24 + ^ x22: .cfa -32 + ^ x23: .cfa -40 + ^ x24: .cfa -48 + ^ .ra: .cfa -56 + ^ x29: .cfa -64 + ^
STACK CFI 4f218 .cfa: sp 64 +
STACK CFI 4f228 .cfa: sp 0 +
STACK CFI 4f22c .cfa: x29 64 +
STACK CFI INIT 4f434 14 .cfa: sp 0 +
STACK CFI 4f438 .cfa: sp 16 +
STACK CFI 4f43c .cfa: x29 16 + .ra: .cfa -8 + ^ x29: .cfa -16 + ^
STACK CFI INIT 4f494 310 .cfa: sp 0 +
STACK CFI 4f498 .cfa: sp 80 +
STACK CFI 4f4ac .cfa: x29 80 + x19: .cfa -8 + ^ x20: .cfa -16 + ^ x21: .cfa -24 + ^ x22: .cfa -32 + ^ x23: .cfa -40 + ^ x24: .cfa -48 + ^ x25: .cfa -64 + ^ .ra: .cfa -72 + ^ x29: .cfa -80 + ^
STACK CFI 4f594 .cfa: sp 80 +
STACK CFI 4f5a8 .cfa: sp 0 +
STACK CFI 4f5ac .cfa: x29 80 +
STACK CFI 4f600 .cfa: sp 80 +
STACK CFI 4f614 .cfa: sp 0 +
STACK CFI 4f618 .cfa: x29 80 +
STACK CFI 4f784 .cfa: sp 80 +
STACK CFI 4f798 .cfa: sp 0 +
STACK CFI 4f79c .cfa: x29 80 +
STACK CFI INIT 4f7a4 4c4 .cfa: sp 0 +
STACK CFI 4f7a8 .cfa: sp 32 +
STACK CFI 4f7b0 .cfa: x29 32 + x19: .cfa -16 + ^ .ra: .cfa -24 + ^ x29: .cfa -32 + ^
STACK CFI 4f804 .cfa: sp 32 +
STACK CFI 4f80c .cfa: sp 0 +
STACK CFI 4f810 .cfa: x29 32 +
STACK CFI 4f850 .cfa: sp 32 +
STACK CFI 4f858 .cfa: sp 0 +
STACK CFI 4f85c .cfa: x29 32 +
STACK CFI 4f88c .cfa: sp 32 +
STACK CFI 4f894 .cfa: sp 0 +
STACK CFI 4f898 .cfa: x29 32 +
STACK CFI 4f8c8 .cfa: sp 32 +
STACK CFI 4f8d0 .cfa: sp 0 +
STACK CFI 4f8d4 .cfa: x29 32 +
STACK CFI 4f8e4 .cfa: sp 32 +
STACK CFI 4f8ec .cfa: sp 0 +
STACK CFI 4f8f0 .cfa: x29 32 +
STACK CFI 4f910 .cfa: sp 32 +
STACK CFI 4f918 .cfa: sp 0 +
STACK CFI 4f91c .cfa: x29 32 +
STACK CFI 4f93c .cfa: sp 32 +
STACK CFI 4f944 .cfa: sp 0 +
STACK CFI 4f948 .cfa: x29 32 +
STACK CFI 4f968 .cfa: sp 32 +
STACK CFI 4f970 .cfa: sp 0 +
STACK CFI 4f974 .cfa: x29 32 +
STACK CFI 4f994 .cfa: sp 32 +
STACK CFI 4f99c .cfa: sp 0 +
STACK CFI 4f9a0 .cfa: x29 32 +
STACK CFI 4fa24 .cfa: sp 32 +
STACK CFI 4fa2c .cfa: sp 0 +
STACK CFI 4fa30 .cfa: x29 32 +
STACK CFI 4fa40 .cfa: sp 32 +
STACK CFI 4fa48 .cfa: sp 0 +
STACK CFI 4fa4c .cfa: x29 32 +
STACK CFI 4fa5c .cfa: sp 32 +
STACK CFI 4fa64 .cfa: sp 0 +
STACK CFI 4fa68 .cfa: x29 32 +
STACK CFI 4fa78 .cfa: sp 32 +
STACK CFI 4fa80 .cfa: sp 0 +
STACK CFI 4fa84 .cfa: x29 32 +
STACK CFI 4fa94 .cfa: sp 32 +
STACK CFI 4fa9c .cfa: sp 0 +
STACK CFI 4faa0 .cfa: x29 32 +
STACK CFI 4fab0 .cfa: sp 32 +
STACK CFI 4fab8 .cfa: sp 0 +
STACK CFI 4fabc .cfa: x29 32 +
STACK CFI 4facc .cfa: sp 32 +
STACK CFI 4fad4 .cfa: sp 0 +
STACK CFI 4fad8 .cfa: x29 32 +
STACK CFI 4fae8 .cfa: sp 32 +
STACK CFI 4faf0 .cfa: sp 0 +
STACK CFI 4faf4 .cfa: x29 32 +
STACK CFI 4fb18 .cfa: sp 32 +
STACK CFI 4fb20 .cfa: sp 0 +
STACK CFI 4fb24 .cfa: x29 32 +
STACK CFI 4fb3c .cfa: sp 32 +
STACK CFI 4fb44 .cfa: sp 0 +
STACK CFI 4fb48 .cfa: x29 32 +
STACK CFI 4fb60 .cfa: sp 32 +
STACK CFI 4fb68 .cfa: sp 0 +
STACK CFI 4fb6c .cfa: x29 32 +
STACK CFI 4fb84 .cfa: sp 32 +
STACK CFI 4fb8c .cfa: sp 0 +
STACK CFI 4fb90 .cfa: x29 32 +
STACK CFI 4fba8 .cfa: sp 32 +
STACK CFI 4fbb0 .cfa: sp 0 +
STACK CFI 4fbb4 .cfa: x29 32 +
STACK CFI 4fbcc .cfa: sp 32 +
STACK CFI 4fbd4 .cfa: sp 0 +
STACK CFI 4fbd8 .cfa: x29 32 +
STACK CFI 4fbf0 .cfa: sp 32 +
STACK CFI 4fbf8 .cfa: sp 0 +
STACK CFI 4fbfc .cfa: x29 32 +
STACK CFI 4fc14 .cfa: sp 32 +
STACK CFI 4fc1c .cfa: sp 0 +
STACK CFI 4fc20 .cfa: x29 32 +
STACK CFI 4fc38 .cfa: sp 32 +
STACK CFI 4fc40 .cfa: sp 0 +
STACK CFI 4fc44 .cfa: x29 32 +
STACK CFI 4fc58 .cfa: sp 32 +
STACK CFI 4fc60 .cfa: sp 0 +
STACK CFI 4fc64 .cfa: x29 32 +
STACK CFI INIT 4fc68 218 .cfa: sp 0 +
STACK CFI 4fc6c .cfa: sp 80 +
STACK CFI 4fc80 .cfa: x29 80 + x19: .cfa -8 + ^ x20: .cfa -16 + ^ x21: .cfa -24 + ^ x22: .cfa -32 + ^ x23: .cfa -40 + ^ x24: .cfa -48 + ^ x25: .cfa -64 + ^ .ra: .cfa -72 + ^ x29: .cfa -80 + ^
STACK CFI 4fdbc .cfa: sp 80 +
STACK CFI 4fdd0 .cfa: sp 0 +
STACK CFI 4fdd4 .cfa: x29 80 +
STACK CFI 4fe60 .cfa: sp 80 +
STACK CFI 4fe74 .cfa: sp 0 +
STACK CFI 4fe78 .cfa: x29 80 +
STACK CFI INIT 50344 68 .cfa: sp 0 +
STACK CFI 50348 .cfa: sp 32 +
STACK CFI 50350 .cfa: x29 32 + x19: .cfa -8 + ^ x20: .cfa -16 + ^ .ra: .cfa -24 + ^ x29: .cfa -32 + ^
STACK CFI 50368 .cfa: sp 32 +
STACK CFI 50370 .cfa: sp 0 +
STACK CFI 50374 .cfa: x29 32 +
STACK CFI 503a0 .cfa: sp 32 +
STACK CFI 503a8 .cfa: sp 0 +
STACK CFI INIT 503ac 14 .cfa: sp 0 +
STACK CFI 503b0 .cfa: sp 16 +
STACK CFI 503b4 .cfa: x29 16 + .ra: .cfa -8 + ^ x29: .cfa -16 + ^
STACK CFI INIT 5061c 1a8 .cfa: sp 0 +
STACK CFI 50620 .cfa: sp 64 +
STACK CFI 50630 .cfa: x29 64 + x19: .cfa -8 + ^ x20: .cfa -16 + ^ x21: .cfa -24 + ^ x22: .cfa -32 + ^ x23: .cfa -40 + ^ x24: .cfa -48 + ^ .ra: .cfa -56 + ^ x29: .cfa -64 + ^
STACK CFI 507a8 .cfa: sp 64 +
STACK CFI 507b8 .cfa: sp 0 +
STACK CFI 507bc .cfa: x29 64 +
STACK CFI INIT 507c4 14 .cfa: sp 0 +
STACK CFI 507c8 .cfa: sp 16 +
STACK CFI 507cc .cfa: x29 16 + .ra: .cfa -8 + ^ x29: .cfa -16 + ^
STACK CFI INIT 507d8 14 .cfa: sp 0 +
STACK CFI 507dc .cfa: sp 16 +
STACK CFI 507e0 .cfa: x29 16 + .ra: .cfa -8 + ^ x29: .cfa -16 + ^
STACK CFI INIT 507ec 48 .cfa: sp 0 +
STACK CFI 50808 .cfa: sp 32 +
STACK CFI 50810 .cfa: x29 32 + x19: .cfa -16 + ^ .ra: .cfa -24 + ^ x29: .cfa -32 + ^
STACK CFI 50828 .cfa: sp 32 +
STACK CFI 50830 .cfa: sp 0 +
STACK CFI INIT 50834 30 .cfa: sp 0 +
STACK CFI INIT 50864 48 .cfa: sp 0 +
STACK CFI 50880 .cfa: sp 32 +
STACK CFI 50888 .cfa: x29 32 + x19: .cfa -16 + ^ .ra: .cfa -24 + ^ x29: .cfa -32 + ^
STACK CFI 508a0 .cfa: sp 32 +
STACK CFI 508a8 .cfa: sp 0 +
STACK CFI INIT 508ac 38 .cfa: sp 0 +
STACK CFI INIT 50abc 68 .cfa: sp 0 +
STACK CFI 50ac0 .cfa: sp 32 +
STACK CFI 50ac8 .cfa: x29 32 + x19: .cfa -16 + ^ .ra: .cfa -24 + ^ x29: .cfa -32 + ^
STACK CFI 50b18 .cfa: sp 32 +
STACK CFI 50b20 .cfa: sp 0 +
STACK CFI INIT 50b24 1c4 .cfa: sp 0 +
STACK CFI INIT 50ce8 c4 .cfa: sp 0 +
STACK CFI INIT 50dac 68 .cfa: sp 0 +
STACK CFI 50db0 .cfa: sp 32 +
STACK CFI 50db8 .cfa: x29 32 + x19: .cfa -16 + ^ .ra: .cfa -24 + ^ x29: .cfa -32 + ^
STACK CFI 50e08 .cfa: sp 32 +
STACK CFI 50e10 .cfa: sp 0 +
STACK CFI INIT 50e14 4 .cfa: sp 0 +
STACK CFI INIT 50e18 14 .cfa: sp 0 +
STACK CFI INIT 50e2c 6c .cfa: sp 0 +
STACK CFI 50e30 .cfa: sp 32 +
STACK CFI 50e38 .cfa: x29 32 + x19: .cfa -16 + ^ .ra: .cfa -24 + ^ x29: .cfa -32 + ^
STACK CFI 50e80 .cfa: sp 32 +
STACK CFI 50e88 .cfa: sp 0 +
STACK CFI 50e8c .cfa: sp 32 +
STACK CFI 50e94 .cfa: sp 0 +
STACK CFI INIT 50e98 68 .cfa: sp 0 +
STACK CFI 50e9c .cfa: sp 32 +
STACK CFI 50ea4 .cfa: x29 32 + x19: .cfa -16 + ^ .ra: .cfa -24 + ^ x29: .cfa -32 + ^
STACK CFI 50ef4 .cfa: sp 32 +
STACK CFI 50efc .cfa: sp 0 +
STACK CFI INIT 50f00 c .cfa: sp 0 +
STACK CFI INIT 50f0c 24 .cfa: sp 0 +
STACK CFI INIT 50f30 4 .cfa: sp 0 +
STACK CFI INIT 50f34 4 .cfa: sp 0 +
STACK CFI INIT 50f38 14 .cfa: sp 0 +
STACK CFI INIT 50f98 2fc .cfa: sp 0 +
STACK CFI 50f9c .cfa: sp 64 +
STACK CFI 50fac .cfa: x29 64 + x19: .cfa -8 + ^ x20: .cfa -16 + ^ x21: .cfa -24 + ^ x22: .cfa -32 + ^ x23: .cfa -40 + ^ x24: .cfa -48 + ^ .ra: .cfa -56 + ^ x29: .cfa -64 + ^
STACK CFI 51128 .cfa: sp 64 +
STACK CFI 51138 .cfa: sp 0 +
STACK CFI 5113c .cfa: x29 64 +
STACK CFI 51180 .cfa: sp 64 +
STACK CFI 51190 .cfa: sp 0 +
STACK CFI 51194 .cfa: x29 64 +
STACK CFI 51264 .cfa: sp 64 +
STACK CFI 51274 .cfa: sp 0 +
STACK CFI 51278 .cfa: sp 64 +
STACK CFI 51288 .cfa: sp 0 +
STACK CFI 5128c .cfa: x29 64 +
STACK CFI INIT 51294 270 .cfa: sp 0 +
STACK CFI 51298 .cfa: sp 32 +
STACK CFI 512a0 .cfa: x29 32 + x19: .cfa -16 + ^ .ra: .cfa -24 + ^ x29: .cfa -32 + ^
STACK CFI 512d8 .cfa: sp 32 +
STACK CFI 512e0 .cfa: sp 0 +
STACK CFI 512e4 .cfa: x29 32 +
STACK CFI 5142c .cfa: sp 32 +
STACK CFI 51434 .cfa: sp 0 +
STACK CFI 51438 .cfa: x29 32 +
STACK CFI 51474 .cfa: sp 32 +
STACK CFI 5147c .cfa: sp 0 +
STACK CFI 51480 .cfa: x29 32 +
STACK CFI 514f4 .cfa: sp 32 +
STACK CFI 514fc .cfa: sp 0 +
STACK CFI 51500 .cfa: x29 32 +
STACK CFI INIT 51504 2c .cfa: sp 0 +
STACK CFI INIT 51530 48 .cfa: sp 0 +
STACK CFI 5154c .cfa: sp 32 +
STACK CFI 51554 .cfa: x29 32 + x19: .cfa -16 + ^ .ra: .cfa -24 + ^ x29: .cfa -32 + ^
STACK CFI 5156c .cfa: sp 32 +
STACK CFI 51574 .cfa: sp 0 +
STACK CFI INIT 51578 40 .cfa: sp 0 +
STACK CFI INIT 515b8 60 .cfa: sp 0 +
STACK CFI 515bc .cfa: sp 16 +
STACK CFI 515c0 .cfa: x29 16 + .ra: .cfa -8 + ^ x29: .cfa -16 + ^
STACK CFI 51600 .cfa: sp 16 +
STACK CFI 51604 .cfa: sp 0 +
STACK CFI 51608 .cfa: x29 16 +
STACK CFI 5160c .cfa: sp 16 +
STACK CFI 51610 .cfa: sp 0 +
STACK CFI 51614 .cfa: x29 16 +
STACK CFI INIT 51618 34c .cfa: sp 0 +
STACK CFI 5161c .cfa: sp 80 +
STACK CFI 51630 .cfa: x29 80 + x19: .cfa -8 + ^ x20: .cfa -16 + ^ x21: .cfa -24 + ^ x22: .cfa -32 + ^ x23: .cfa -40 + ^ x24: .cfa -48 + ^ x25: .cfa -64 + ^ .ra: .cfa -72 + ^ x29: .cfa -80 + ^
STACK CFI 5192c .cfa: sp 80 +
STACK CFI 51940 .cfa: sp 0 +
STACK CFI 51944 .cfa: x29 80 +
STACK CFI 51948 .cfa: sp 80 +
STACK CFI 5195c .cfa: sp 0 +
STACK CFI 51960 .cfa: x29 80 +
STACK CFI INIT 51964 308 .cfa: sp 0 +
STACK CFI 51968 .cfa: sp 80 +
STACK CFI 5197c .cfa: x29 80 + x19: .cfa -8 + ^ x20: .cfa -16 + ^ x21: .cfa -24 + ^ x22: .cfa -32 + ^ x23: .cfa -40 + ^ x24: .cfa -48 + ^ x25: .cfa -64 + ^ .ra: .cfa -72 + ^ x29: .cfa -80 + ^
STACK CFI 51bec .cfa: sp 80 +
STACK CFI 51c00 .cfa: sp 0 +
STACK CFI 51c04 .cfa: x29 80 +
STACK CFI 51c30 .cfa: sp 80 +
STACK CFI 51c44 .cfa: sp 0 +
STACK CFI 51c48 .cfa: x29 80 +
STACK CFI INIT 51c6c 2fc .cfa: sp 0 +
STACK CFI 51c70 .cfa: sp 112 +
STACK CFI 51c8c .cfa: x29 96 + x19: .cfa -8 + ^ x20: .cfa -16 + ^ x21: .cfa -24 + ^ x22: .cfa -32 + ^ x23: .cfa -40 + ^ x24: .cfa -48 + ^ x25: .cfa -56 + ^ x26: .cfa -64 + ^ x27: .cfa -72 + ^ x28: .cfa -80 + ^ .ra: .cfa -88 + ^ x29: .cfa -96 + ^
STACK CFI 51f40 .cfa: sp 112 +
STACK CFI 51f5c .cfa: sp 0 +
STACK CFI 51f60 .cfa: x29 96 +
STACK CFI INIT 53804 1c8 .cfa: sp 0 +
STACK CFI 53808 .cfa: sp 80 +
STACK CFI 5381c .cfa: x29 80 + x19: .cfa -8 + ^ x20: .cfa -16 + ^ x21: .cfa -24 + ^ x22: .cfa -32 + ^ x23: .cfa -40 + ^ x24: .cfa -48 + ^ x25: .cfa -64 + ^ .ra: .cfa -72 + ^ x29: .cfa -80 + ^
STACK CFI 5399c .cfa: sp 80 +
STACK CFI 539b0 .cfa: sp 0 +
STACK CFI 539b4 .cfa: sp 80 +
STACK CFI 539c8 .cfa: sp 0 +
STACK CFI INIT 53fa4 188 .cfa: sp 0 +
STACK CFI 53fa8 .cfa: sp 80 +
STACK CFI 53fbc .cfa: x29 80 + x19: .cfa -8 + ^ x20: .cfa -16 + ^ x21: .cfa -24 + ^ x22: .cfa -32 + ^ x23: .cfa -40 + ^ x24: .cfa -48 + ^ x25: .cfa -64 + ^ .ra: .cfa -72 + ^ x29: .cfa -80 + ^
STACK CFI 54110 .cfa: sp 80 +
STACK CFI 54124 .cfa: sp 0 +
STACK CFI 54128 .cfa: x29 80 +
STACK CFI INIT 5412c 18c .cfa: sp 0 +
STACK CFI 54130 .cfa: sp 64 +
STACK CFI 54140 .cfa: x29 64 + x19: .cfa -8 + ^ x20: .cfa -16 + ^ x21: .cfa -24 + ^ x22: .cfa -32 + ^ x23: .cfa -40 + ^ x24: .cfa -48 + ^ .ra: .cfa -56 + ^ x29: .cfa -64 + ^
STACK CFI 542a0 .cfa: sp 64 +
STACK CFI 542b0 .cfa: sp 0 +
STACK CFI 542b4 .cfa: x29 64 +
STACK CFI INIT 542b8 18c .cfa: sp 0 +
STACK CFI 542bc .cfa: sp 64 +
STACK CFI 542cc .cfa: x29 64 + x19: .cfa -8 + ^ x20: .cfa -16 + ^ x21: .cfa -24 + ^ x22: .cfa -32 + ^ x23: .cfa -40 + ^ x24: .cfa -48 + ^ .ra: .cfa -56 + ^ x29: .cfa -64 + ^
STACK CFI 5442c .cfa: sp 64 +
STACK CFI 5443c .cfa: sp 0 +
STACK CFI 54440 .cfa: x29 64 +
STACK CFI INIT 54444 14 .cfa: sp 0 +
STACK CFI 54448 .cfa: sp 16 +
STACK CFI 5444c .cfa: x29 16 + .ra: .cfa -8 + ^ x29: .cfa -16 + ^
STACK CFI INIT 54a30 18c .cfa: sp 0 +
STACK CFI 54a34 .cfa: sp 64 +
STACK CFI 54a44 .cfa: x29 64 + x19: .cfa -8 + ^ x20: .cfa -16 + ^ x21: .cfa -24 + ^ x22: .cfa -32 + ^ x23: .cfa -40 + ^ x24: .cfa -48 + ^ .ra: .cfa -56 + ^ x29: .cfa -64 + ^
STACK CFI 54ba4 .cfa: sp 64 +
STACK CFI 54bb4 .cfa: sp 0 +
STACK CFI 54bb8 .cfa: x29 64 +
STACK CFI INIT 54db8 34 .cfa: sp 0 +
STACK CFI 54dbc .cfa: sp 16 +
STACK CFI 54dc0 .cfa: x29 16 + .ra: .cfa -8 + ^ x29: .cfa -16 + ^
STACK CFI INIT 54dec 4 .cfa: sp 0 +
STACK CFI INIT 54df0 14 .cfa: sp 0 +
STACK CFI INIT 54e04 4 .cfa: sp 0 +
STACK CFI INIT 54e08 14 .cfa: sp 0 +
STACK CFI INIT 54f70 34 .cfa: sp 0 +
STACK CFI 54f7c .cfa: sp 32 +
STACK CFI 54f84 .cfa: x29 32 + x19: .cfa -16 + ^ .ra: .cfa -24 + ^ x29: .cfa -32 + ^
STACK CFI 54f98 .cfa: sp 32 +
STACK CFI 54fa0 .cfa: sp 0 +
STACK CFI INIT 54fa4 38 .cfa: sp 0 +
STACK CFI 54fa8 .cfa: sp 32 +
STACK CFI 54fb0 .cfa: x29 32 + x19: .cfa -16 + ^ .ra: .cfa -24 + ^ x29: .cfa -32 + ^
STACK CFI 54fd0 .cfa: sp 32 +
STACK CFI 54fd8 .cfa: sp 0 +
STACK CFI INIT 54fdc 8c .cfa: sp 0 +
STACK CFI 54fe0 .cfa: sp 32 +
STACK CFI 54fe8 .cfa: x29 32 + x19: .cfa -16 + ^ .ra: .cfa -24 + ^ x29: .cfa -32 + ^
STACK CFI 5505c .cfa: sp 32 +
STACK CFI 55064 .cfa: sp 0 +
STACK CFI INIT 553d4 140 .cfa: sp 0 +
STACK CFI 553d8 .cfa: sp 80 +
STACK CFI 553e4 .cfa: x29 32 + x19: .cfa -16 + ^ .ra: .cfa -24 + ^ x29: .cfa -32 + ^
STACK CFI 5546c .cfa: sp 80 +
STACK CFI 55478 .cfa: sp 0 +
STACK CFI 5547c .cfa: x29 32 +
STACK CFI 554d8 .cfa: sp 80 +
STACK CFI 554e4 .cfa: sp 0 +
STACK CFI 554e8 .cfa: x29 32 +
STACK CFI 55500 .cfa: sp 80 +
STACK CFI 5550c .cfa: sp 0 +
STACK CFI 55510 .cfa: x29 32 +
STACK CFI INIT 555e0 50 .cfa: sp 0 +
STACK CFI 555e4 .cfa: sp 32 +
STACK CFI 555ec .cfa: x29 32 + x19: .cfa -8 + ^ x20: .cfa -16 + ^ .ra: .cfa -24 + ^ x29: .cfa -32 + ^
STACK CFI 55618 .cfa: sp 32 +
STACK CFI 55620 .cfa: sp 0 +
STACK CFI 55624 .cfa: sp 32 +
STACK CFI 5562c .cfa: sp 0 +
STACK CFI INIT 55630 18 .cfa: sp 0 +
STACK CFI INIT 55648 c4 .cfa: sp 0 +
STACK CFI INIT 5570c 8 .cfa: sp 0 +
STACK CFI INIT 55b84 1c .cfa: sp 0 +
STACK CFI INIT 55f0c 50 .cfa: sp 0 +
STACK CFI 55f10 .cfa: sp 32 +
STACK CFI 55f18 .cfa: x29 32 + x19: .cfa -16 + ^ .ra: .cfa -24 + ^ x29: .cfa -32 + ^
STACK CFI 55f30 .cfa: sp 32 +
STACK CFI 55f38 .cfa: sp 0 +
STACK CFI 55f3c .cfa: x29 32 +
STACK CFI 55f50 .cfa: sp 32 +
STACK CFI 55f58 .cfa: sp 0 +
STACK CFI INIT 55fd0 4 .cfa: sp 0 +
STACK CFI INIT 5625c 80 .cfa: sp 0 +
STACK CFI 56260 .cfa: sp 48 +
STACK CFI 5626c .cfa: x29 48 + x19: .cfa -8 + ^ x20: .cfa -16 + ^ x21: .cfa -32 + ^ .ra: .cfa -40 + ^ x29: .cfa -48 + ^
STACK CFI 562cc .cfa: sp 48 +
STACK CFI 562d8 .cfa: sp 0 +
STACK CFI INIT 562dc 24 .cfa: sp 0 +
STACK CFI 562e0 .cfa: sp 32 +
STACK CFI 562e8 .cfa: x29 32 + x19: .cfa -16 + ^ .ra: .cfa -24 + ^ x29: .cfa -32 + ^
STACK CFI 562f4 .cfa: sp 32 +
STACK CFI 562fc .cfa: sp 0 +
STACK CFI INIT 56800 148 .cfa: sp 0 +
STACK CFI 56804 .cfa: sp 48 +
STACK CFI 56810 .cfa: x29 48 + x19: .cfa -8 + ^ x20: .cfa -16 + ^ x21: .cfa -32 + ^ .ra: .cfa -40 + ^ x29: .cfa -48 + ^
STACK CFI 56938 .cfa: sp 48 +
STACK CFI 56944 .cfa: sp 0 +
STACK CFI INIT 56948 88 .cfa: sp 0 +
STACK CFI 56950 .cfa: sp 48 +
STACK CFI 5695c .cfa: x29 48 + x19: .cfa -8 + ^ x20: .cfa -16 + ^ x21: .cfa -24 + ^ x22: .cfa -32 + ^ .ra: .cfa -40 + ^ x29: .cfa -48 + ^
STACK CFI 569c0 .cfa: sp 48 +
STACK CFI 569cc .cfa: sp 0 +
STACK CFI INIT 569d0 4 .cfa: sp 0 +
STACK CFI INIT 569d4 14 .cfa: sp 0 +
STACK CFI INIT 569e8 128 .cfa: sp 0 +
STACK CFI 569ec .cfa: sp 64 +
STACK CFI 569fc .cfa: x29 64 + x19: .cfa -8 + ^ x20: .cfa -16 + ^ x21: .cfa -24 + ^ x22: .cfa -32 + ^ x23: .cfa -40 + ^ x24: .cfa -48 + ^ .ra: .cfa -56 + ^ x29: .cfa -64 + ^
STACK CFI 56afc .cfa: sp 64 +
STACK CFI 56b0c .cfa: sp 0 +
STACK CFI INIT 56b10 d4 .cfa: sp 0 +
STACK CFI 56b14 .cfa: sp 48 +
STACK CFI 56b20 .cfa: x29 48 + x19: .cfa -8 + ^ x20: .cfa -16 + ^ x21: .cfa -32 + ^ .ra: .cfa -40 + ^ x29: .cfa -48 + ^
STACK CFI 56bb0 .cfa: sp 48 +
STACK CFI 56bbc .cfa: sp 0 +
STACK CFI 56bc0 .cfa: x29 48 +
STACK CFI INIT 56be4 3c8 .cfa: sp 0 +
STACK CFI INIT 56fac 8c .cfa: sp 0 +
STACK CFI 56fb4 .cfa: sp 32 +
STACK CFI 56fbc .cfa: x29 32 + x19: .cfa -8 + ^ x20: .cfa -16 + ^ .ra: .cfa -24 + ^ x29: .cfa -32 + ^
STACK CFI 57004 .cfa: sp 32 +
STACK CFI 5700c .cfa: sp 0 +
STACK CFI 57014 .cfa: x29 32 +
STACK CFI INIT 57038 28 .cfa: sp 0 +
STACK CFI 5703c .cfa: sp 32 +
STACK CFI 57044 .cfa: x29 16 + .ra: .cfa -8 + ^ x29: .cfa -16 + ^ v8: .cfa -32 + ^
STACK CFI 57054 .cfa: sp 32 +
STACK CFI 5705c .cfa: sp 0 +
STACK CFI INIT 57138 50 .cfa: sp 0 +
STACK CFI 5713c .cfa: sp 32 +
STACK CFI 57144 .cfa: x29 32 + x19: .cfa -16 + ^ .ra: .cfa -24 + ^ x29: .cfa -32 + ^
STACK CFI 5715c .cfa: sp 32 +
STACK CFI 57164 .cfa: sp 0 +
STACK CFI 57168 .cfa: x29 32 +
STACK CFI 5717c .cfa: sp 32 +
STACK CFI 57184 .cfa: sp 0 +
STACK CFI INIT 57188 64 .cfa: sp 0 +
STACK CFI 5718c .cfa: sp 32 +
STACK CFI 57194 .cfa: x29 32 + x19: .cfa -16 + ^ .ra: .cfa -24 + ^ x29: .cfa -32 + ^
STACK CFI 571c0 .cfa: sp 32 +
STACK CFI 571c8 .cfa: sp 0 +
STACK CFI 571cc .cfa: x29 32 +
STACK CFI 571e0 .cfa: sp 32 +
STACK CFI 571e8 .cfa: sp 0 +
STACK CFI INIT 571ec 178 .cfa: sp 0 +
STACK CFI 571f0 .cfa: sp 80 +
STACK CFI 57204 .cfa: x29 80 + x19: .cfa -8 + ^ x20: .cfa -16 + ^ x21: .cfa -24 + ^ x22: .cfa -32 + ^ x23: .cfa -40 + ^ x24: .cfa -48 + ^ x25: .cfa -56 + ^ x26: .cfa -64 + ^ .ra: .cfa -72 + ^ x29: .cfa -80 + ^
STACK CFI 5734c .cfa: sp 80 +
STACK CFI 57360 .cfa: sp 0 +
STACK CFI INIT 57d5c 1c .cfa: sp 0 +
STACK CFI INIT 586c0 4 .cfa: sp 0 +
STACK CFI INIT 587d4 7c .cfa: sp 0 +
STACK CFI 587d8 .cfa: sp 32 +
STACK CFI 587e0 .cfa: x29 32 + x19: .cfa -8 + ^ x20: .cfa -16 + ^ .ra: .cfa -24 + ^ x29: .cfa -32 + ^
STACK CFI 58838 .cfa: sp 32 +
STACK CFI 58840 .cfa: sp 0 +
STACK CFI 58844 .cfa: sp 32 +
STACK CFI 5884c .cfa: sp 0 +
STACK CFI INIT 589b8 4 .cfa: sp 0 +
STACK CFI INIT 589bc 4 .cfa: sp 0 +
STACK CFI INIT 589c0 38 .cfa: sp 0 +
STACK CFI 589c4 .cfa: sp 32 +
STACK CFI 589cc .cfa: x29 32 + x19: .cfa -16 + ^ .ra: .cfa -24 + ^ x29: .cfa -32 + ^
STACK CFI 589ec .cfa: sp 32 +
STACK CFI 589f4 .cfa: sp 0 +
STACK CFI INIT 589f8 18 .cfa: sp 0 +
STACK CFI INIT 58a10 4 .cfa: sp 0 +
STACK CFI INIT 58a14 4 .cfa: sp 0 +
STACK CFI INIT 58a18 8 .cfa: sp 0 +
STACK CFI INIT 58a20 1c .cfa: sp 0 +
STACK CFI INIT 58a3c c .cfa: sp 0 +
STACK CFI INIT 58a48 4 .cfa: sp 0 +
STACK CFI INIT 58bc0 5c .cfa: sp 0 +
STACK CFI 58bc4 .cfa: sp 32 +
STACK CFI 58bcc .cfa: x29 32 + x19: .cfa -16 + ^ .ra: .cfa -24 + ^ x29: .cfa -32 + ^
STACK CFI 58c10 .cfa: sp 32 +
STACK CFI 58c18 .cfa: sp 0 +
STACK CFI INIT 58c1c 64 .cfa: sp 0 +
STACK CFI 58c20 .cfa: sp 32 +
STACK CFI 58c28 .cfa: x29 32 + x19: .cfa -16 + ^ .ra: .cfa -24 + ^ x29: .cfa -32 + ^
STACK CFI 58c74 .cfa: sp 32 +
STACK CFI 58c7c .cfa: sp 0 +
STACK CFI INIT 58c80 4 .cfa: sp 0 +
STACK CFI INIT 58c84 14 .cfa: sp 0 +
STACK CFI INIT 58ff4 d0 .cfa: sp 0 +
STACK CFI 58ff8 .cfa: sp 80 +
STACK CFI 59008 .cfa: x29 48 + x19: .cfa -8 + ^ x20: .cfa -16 + ^ x21: .cfa -24 + ^ x22: .cfa -32 + ^ .ra: .cfa -40 + ^ x29: .cfa -48 + ^
STACK CFI 59088 .cfa: sp 80 +
STACK CFI 59098 .cfa: sp 0 +
STACK CFI 5909c .cfa: x29 48 +
STACK CFI INIT 590c4 d0 .cfa: sp 0 +
STACK CFI 590c8 .cfa: sp 80 +
STACK CFI 590d8 .cfa: x29 48 + x19: .cfa -8 + ^ x20: .cfa -16 + ^ x21: .cfa -24 + ^ x22: .cfa -32 + ^ .ra: .cfa -40 + ^ x29: .cfa -48 + ^
STACK CFI 59158 .cfa: sp 80 +
STACK CFI 59168 .cfa: sp 0 +
STACK CFI 5916c .cfa: x29 48 +
STACK CFI INIT 59194 d0 .cfa: sp 0 +
STACK CFI 59198 .cfa: sp 80 +
STACK CFI 591a8 .cfa: x29 48 + x19: .cfa -8 + ^ x20: .cfa -16 + ^ x21: .cfa -24 + ^ x22: .cfa -32 + ^ .ra: .cfa -40 + ^ x29: .cfa -48 + ^
STACK CFI 59228 .cfa: sp 80 +
STACK CFI 59238 .cfa: sp 0 +
STACK CFI 5923c .cfa: x29 48 +
STACK CFI INIT 59cbc 98 .cfa: sp 0 +
STACK CFI 59cc0 .cfa: sp 304 +
STACK CFI 59ccc .cfa: x29 32 + x19: .cfa -8 + ^ x28: .cfa -16 + ^ .ra: .cfa -24 + ^ x29: .cfa -32 + ^
STACK CFI 59d40 .cfa: sp 304 +
STACK CFI 59d4c .cfa: sp 0 +
STACK CFI 59d50 .cfa: x29 32 +
STACK CFI INIT 5a1c4 1c .cfa: sp 0 +
STACK CFI INIT 5a1e0 50 .cfa: sp 0 +
STACK CFI 5a1e4 .cfa: sp 32 +
STACK CFI 5a1ec .cfa: x29 32 + x19: .cfa -16 + ^ .ra: .cfa -24 + ^ x29: .cfa -32 + ^
STACK CFI 5a204 .cfa: sp 32 +
STACK CFI 5a20c .cfa: sp 0 +
STACK CFI 5a210 .cfa: x29 32 +
STACK CFI 5a224 .cfa: sp 32 +
STACK CFI 5a22c .cfa: sp 0 +
STACK CFI INIT 5a230 14 .cfa: sp 0 +
STACK CFI 5a234 .cfa: sp 16 +
STACK CFI 5a238 .cfa: x29 16 + .ra: .cfa -8 + ^ x29: .cfa -16 + ^
STACK CFI INIT 5a244 14 .cfa: sp 0 +
STACK CFI 5a248 .cfa: sp 16 +
STACK CFI 5a24c .cfa: x29 16 + .ra: .cfa -8 + ^ x29: .cfa -16 + ^
STACK CFI INIT 5a258 14 .cfa: sp 0 +
STACK CFI 5a25c .cfa: sp 16 +
STACK CFI 5a260 .cfa: x29 16 + .ra: .cfa -8 + ^ x29: .cfa -16 + ^
STACK CFI INIT 5a26c 14 .cfa: sp 0 +
STACK CFI 5a270 .cfa: sp 16 +
STACK CFI 5a274 .cfa: x29 16 + .ra: .cfa -8 + ^ x29: .cfa -16 + ^
STACK CFI INIT 5a280 4 .cfa: sp 0 +
STACK CFI INIT 5a284 4 .cfa: sp 0 +
STACK CFI INIT 5a288 38 .cfa: sp 0 +
STACK CFI 5a28c .cfa: sp 32 +
STACK CFI 5a294 .cfa: x29 32 + x19: .cfa -16 + ^ .ra: .cfa -24 + ^ x29: .cfa -32 + ^
STACK CFI 5a2b4 .cfa: sp 32 +
STACK CFI 5a2bc .cfa: sp 0 +
STACK CFI INIT 5a2c0 18 .cfa: sp 0 +
STACK CFI INIT 5a2d8 4 .cfa: sp 0 +
STACK CFI INIT 5a2dc 4 .cfa: sp 0 +
STACK CFI INIT 5a2e0 10 .cfa: sp 0 +
STACK CFI INIT 5a2f0 1c .cfa: sp 0 +
STACK CFI INIT 5a30c c .cfa: sp 0 +
STACK CFI INIT 5a97c 4 .cfa: sp 0 +
STACK CFI INIT 5b15c 4 .cfa: sp 0 +
STACK CFI INIT 5b2d4 6c .cfa: sp 0 +
STACK CFI 5b2d8 .cfa: sp 32 +
STACK CFI 5b2e0 .cfa: x29 32 + x19: .cfa -16 + ^ .ra: .cfa -24 + ^ x29: .cfa -32 + ^
STACK CFI 5b334 .cfa: sp 32 +
STACK CFI 5b33c .cfa: sp 0 +
STACK CFI INIT 5b340 74 .cfa: sp 0 +
STACK CFI 5b344 .cfa: sp 32 +
STACK CFI 5b34c .cfa: x29 32 + x19: .cfa -16 + ^ .ra: .cfa -24 + ^ x29: .cfa -32 + ^
STACK CFI 5b3a8 .cfa: sp 32 +
STACK CFI 5b3b0 .cfa: sp 0 +
STACK CFI INIT 5b3b4 4 .cfa: sp 0 +
STACK CFI INIT 5b3b8 24 .cfa: sp 0 +
STACK CFI 5b3bc .cfa: sp 16 +
STACK CFI 5b3c0 .cfa: x29 16 + .ra: .cfa -8 + ^ x29: .cfa -16 + ^
STACK CFI 5b3d4 .cfa: sp 16 +
STACK CFI 5b3d8 .cfa: sp 0 +
STACK CFI INIT 5b3dc 10 .cfa: sp 0 +
STACK CFI INIT 5b3ec 4 .cfa: sp 0 +
STACK CFI INIT 5b3f0 4 .cfa: sp 0 +
STACK CFI INIT 5b3f4 c0 .cfa: sp 0 +
STACK CFI 5b3f8 .cfa: sp 64 +
STACK CFI 5b404 .cfa: x29 32 + x19: .cfa -8 + ^ x20: .cfa -16 + ^ .ra: .cfa -24 + ^ x29: .cfa -32 + ^
STACK CFI 5b47c .cfa: sp 64 +
STACK CFI 5b488 .cfa: sp 0 +
STACK CFI 5b48c .cfa: x29 32 +
STACK CFI INIT 5b4b4 1c .cfa: sp 0 +
STACK CFI INIT 5b4d0 c .cfa: sp 0 +
STACK CFI INIT 5b4dc 4 .cfa: sp 0 +
STACK CFI INIT 5b4e0 24 .cfa: sp 0 +
STACK CFI 5b4e4 .cfa: sp 16 +
STACK CFI 5b4e8 .cfa: x29 16 + .ra: .cfa -8 + ^ x29: .cfa -16 + ^
STACK CFI 5b4fc .cfa: sp 16 +
STACK CFI 5b500 .cfa: sp 0 +
STACK CFI INIT 5b504 10 .cfa: sp 0 +
STACK CFI INIT 5b514 4 .cfa: sp 0 +
STACK CFI INIT 5b518 4 .cfa: sp 0 +
STACK CFI INIT 5b51c c0 .cfa: sp 0 +
STACK CFI 5b520 .cfa: sp 64 +
STACK CFI 5b52c .cfa: x29 32 + x19: .cfa -8 + ^ x20: .cfa -16 + ^ .ra: .cfa -24 + ^ x29: .cfa -32 + ^
STACK CFI 5b5a4 .cfa: sp 64 +
STACK CFI 5b5b0 .cfa: sp 0 +
STACK CFI 5b5b4 .cfa: x29 32 +
STACK CFI INIT 5b5dc 1c .cfa: sp 0 +
STACK CFI INIT 5b5f8 c .cfa: sp 0 +
STACK CFI INIT 5b604 4 .cfa: sp 0 +
STACK CFI INIT 5b608 4 .cfa: sp 0 +
STACK CFI INIT 5b60c 24 .cfa: sp 0 +
STACK CFI 5b610 .cfa: sp 16 +
STACK CFI 5b614 .cfa: x29 16 + .ra: .cfa -8 + ^ x29: .cfa -16 + ^
STACK CFI 5b628 .cfa: sp 16 +
STACK CFI 5b62c .cfa: sp 0 +
STACK CFI INIT 5b630 10 .cfa: sp 0 +
STACK CFI INIT 5b640 4 .cfa: sp 0 +
STACK CFI INIT 5b644 4 .cfa: sp 0 +
STACK CFI INIT 5b648 c0 .cfa: sp 0 +
STACK CFI 5b64c .cfa: sp 64 +
STACK CFI 5b658 .cfa: x29 32 + x19: .cfa -8 + ^ x20: .cfa -16 + ^ .ra: .cfa -24 + ^ x29: .cfa -32 + ^
STACK CFI 5b6d0 .cfa: sp 64 +
STACK CFI 5b6dc .cfa: sp 0 +
STACK CFI 5b6e0 .cfa: x29 32 +
STACK CFI INIT 5b708 1c .cfa: sp 0 +
STACK CFI INIT 5b724 c .cfa: sp 0 +
STACK CFI INIT 5bba0 1c .cfa: sp 0 +
STACK CFI INIT 5bf0c 4 .cfa: sp 0 +
STACK CFI INIT 5c010 4 .cfa: sp 0 +
STACK CFI INIT 5c014 24 .cfa: sp 0 +
STACK CFI 5c018 .cfa: sp 16 +
STACK CFI 5c01c .cfa: x29 16 + .ra: .cfa -8 + ^ x29: .cfa -16 + ^
STACK CFI 5c030 .cfa: sp 16 +
STACK CFI 5c034 .cfa: sp 0 +
STACK CFI INIT 5c038 10 .cfa: sp 0 +
STACK CFI INIT 5c048 4 .cfa: sp 0 +
STACK CFI INIT 5c04c 4 .cfa: sp 0 +
STACK CFI INIT 5c128 1c .cfa: sp 0 +
STACK CFI INIT 5c144 c .cfa: sp 0 +
STACK CFI INIT 5c150 4 .cfa: sp 0 +
STACK CFI INIT 5c154 24 .cfa: sp 0 +
STACK CFI 5c158 .cfa: sp 16 +
STACK CFI 5c15c .cfa: x29 16 + .ra: .cfa -8 + ^ x29: .cfa -16 + ^
STACK CFI 5c170 .cfa: sp 16 +
STACK CFI 5c174 .cfa: sp 0 +
STACK CFI INIT 5c178 10 .cfa: sp 0 +
STACK CFI INIT 5c188 4 .cfa: sp 0 +
STACK CFI INIT 5c18c 4 .cfa: sp 0 +
STACK CFI INIT 5c190 14 .cfa: sp 0 +
STACK CFI 5c194 .cfa: sp 16 +
STACK CFI 5c198 .cfa: x29 16 + .ra: .cfa -8 + ^ x29: .cfa -16 + ^
STACK CFI 5c19c .cfa: sp 16 +
STACK CFI 5c1a0 .cfa: sp 0 +
STACK CFI INIT 5c1a4 1c .cfa: sp 0 +
STACK CFI INIT 5c1c0 c .cfa: sp 0 +
STACK CFI INIT 5ce0c 4 .cfa: sp 0 +
STACK CFI INIT 5ce10 34 .cfa: sp 0 +
STACK CFI 5ce14 .cfa: sp 32 +
STACK CFI 5ce1c .cfa: x29 32 + x19: .cfa -16 + ^ .ra: .cfa -24 + ^ x29: .cfa -32 + ^
STACK CFI 5ce38 .cfa: sp 32 +
STACK CFI 5ce40 .cfa: sp 0 +
STACK CFI INIT 5ce44 14 .cfa: sp 0 +
STACK CFI INIT 5ce58 4 .cfa: sp 0 +
STACK CFI INIT 5ce5c 4 .cfa: sp 0 +
STACK CFI INIT 5ce60 10 .cfa: sp 0 +
STACK CFI INIT 5ce70 1c .cfa: sp 0 +
STACK CFI INIT 5ce8c c .cfa: sp 0 +
STACK CFI INIT 5d734 50 .cfa: sp 0 +
STACK CFI 5d738 .cfa: sp 32 +
STACK CFI 5d740 .cfa: x29 32 + x19: .cfa -16 + ^ .ra: .cfa -24 + ^ x29: .cfa -32 + ^
STACK CFI 5d758 .cfa: sp 32 +
STACK CFI 5d760 .cfa: sp 0 +
STACK CFI 5d764 .cfa: x29 32 +
STACK CFI 5d778 .cfa: sp 32 +
STACK CFI 5d780 .cfa: sp 0 +
STACK CFI INIT 5d784 4 .cfa: sp 0 +
STACK CFI INIT 5d788 38 .cfa: sp 0 +
STACK CFI 5d78c .cfa: sp 32 +
STACK CFI 5d794 .cfa: x29 32 + x19: .cfa -16 + ^ .ra: .cfa -24 + ^ x29: .cfa -32 + ^
STACK CFI 5d7b4 .cfa: sp 32 +
STACK CFI 5d7bc .cfa: sp 0 +
STACK CFI INIT 5d7c0 18 .cfa: sp 0 +
STACK CFI INIT 5d7d8 4 .cfa: sp 0 +
STACK CFI INIT 5d7dc 4 .cfa: sp 0 +
STACK CFI INIT 5d9f0 1c .cfa: sp 0 +
STACK CFI INIT 5da0c c .cfa: sp 0 +
STACK CFI INIT 5da18 50 .cfa: sp 0 +
STACK CFI 5da1c .cfa: sp 32 +
STACK CFI 5da24 .cfa: x29 32 + x19: .cfa -16 + ^ .ra: .cfa -24 + ^ x29: .cfa -32 + ^
STACK CFI 5da3c .cfa: sp 32 +
STACK CFI 5da44 .cfa: sp 0 +
STACK CFI 5da48 .cfa: x29 32 +
STACK CFI 5da5c .cfa: sp 32 +
STACK CFI 5da64 .cfa: sp 0 +
STACK CFI INIT 5da68 50 .cfa: sp 0 +
STACK CFI 5da6c .cfa: sp 32 +
STACK CFI 5da74 .cfa: x29 32 + x19: .cfa -16 + ^ .ra: .cfa -24 + ^ x29: .cfa -32 + ^
STACK CFI 5da8c .cfa: sp 32 +
STACK CFI 5da94 .cfa: sp 0 +
STACK CFI 5da98 .cfa: x29 32 +
STACK CFI 5daac .cfa: sp 32 +
STACK CFI 5dab4 .cfa: sp 0 +
STACK CFI INIT 5ddd8 19c .cfa: sp 0 +
STACK CFI 5dddc .cfa: sp 96 +
STACK CFI 5ddf4 .cfa: x29 96 + x19: .cfa -8 + ^ x20: .cfa -16 + ^ x21: .cfa -24 + ^ x22: .cfa -32 + ^ x23: .cfa -40 + ^ x24: .cfa -48 + ^ x25: .cfa -56 + ^ x26: .cfa -64 + ^ x27: .cfa -80 + ^ .ra: .cfa -88 + ^ x29: .cfa -96 + ^
STACK CFI 5df58 .cfa: sp 96 +
STACK CFI 5df70 .cfa: sp 0 +
STACK CFI INIT 5df74 c8 .cfa: sp 0 +
STACK CFI 5df78 .cfa: sp 64 +
STACK CFI 5df88 .cfa: x29 64 + x19: .cfa -8 + ^ x20: .cfa -16 + ^ x21: .cfa -24 + ^ x22: .cfa -32 + ^ x23: .cfa -48 + ^ .ra: .cfa -56 + ^ x29: .cfa -64 + ^
STACK CFI 5df90 .cfa: sp 64 +
STACK CFI 5dfa0 .cfa: sp 0 +
STACK CFI 5dfa4 .cfa: x29 64 +
STACK CFI 5dfc8 .cfa: sp 64 +
STACK CFI 5dfd8 .cfa: sp 0 +
STACK CFI 5dfdc .cfa: x29 64 +
STACK CFI 5e028 .cfa: sp 64 +
STACK CFI 5e038 .cfa: sp 0 +
STACK CFI INIT 5e03c 4 .cfa: sp 0 +
STACK CFI INIT 5e1b4 9c .cfa: sp 0 +
STACK CFI 5e1b8 .cfa: sp 32 +
STACK CFI 5e1c0 .cfa: x29 32 + x19: .cfa -8 + ^ x20: .cfa -16 + ^ .ra: .cfa -24 + ^ x29: .cfa -32 + ^
STACK CFI 5e244 .cfa: sp 32 +
STACK CFI 5e24c .cfa: sp 0 +
STACK CFI INIT 5e250 a4 .cfa: sp 0 +
STACK CFI 5e254 .cfa: sp 32 +
STACK CFI 5e25c .cfa: x29 32 + x19: .cfa -8 + ^ x20: .cfa -16 + ^ .ra: .cfa -24 + ^ x29: .cfa -32 + ^
STACK CFI 5e2e8 .cfa: sp 32 +
STACK CFI 5e2f0 .cfa: sp 0 +
STACK CFI INIT 5e2f4 4 .cfa: sp 0 +
STACK CFI INIT 5e2f8 38 .cfa: sp 0 +
STACK CFI 5e2fc .cfa: sp 32 +
STACK CFI 5e304 .cfa: x29 32 + x19: .cfa -16 + ^ .ra: .cfa -24 + ^ x29: .cfa -32 + ^
STACK CFI 5e324 .cfa: sp 32 +
STACK CFI 5e32c .cfa: sp 0 +
STACK CFI INIT 5e330 18 .cfa: sp 0 +
STACK CFI INIT 5e348 4 .cfa: sp 0 +
STACK CFI INIT 5e34c 4 .cfa: sp 0 +
STACK CFI INIT 5e4ec 1c .cfa: sp 0 +
STACK CFI INIT 5e508 c .cfa: sp 0 +
STACK CFI INIT 5e514 50 .cfa: sp 0 +
STACK CFI 5e518 .cfa: sp 32 +
STACK CFI 5e520 .cfa: x29 32 + x19: .cfa -16 + ^ .ra: .cfa -24 + ^ x29: .cfa -32 + ^
STACK CFI 5e538 .cfa: sp 32 +
STACK CFI 5e540 .cfa: sp 0 +
STACK CFI 5e544 .cfa: x29 32 +
STACK CFI 5e558 .cfa: sp 32 +
STACK CFI 5e560 .cfa: sp 0 +
STACK CFI INIT 5e564 4 .cfa: sp 0 +
STACK CFI INIT 5e568 38 .cfa: sp 0 +
STACK CFI 5e56c .cfa: sp 32 +
STACK CFI 5e574 .cfa: x29 32 + x19: .cfa -16 + ^ .ra: .cfa -24 + ^ x29: .cfa -32 + ^
STACK CFI 5e594 .cfa: sp 32 +
STACK CFI 5e59c .cfa: sp 0 +
STACK CFI INIT 5e5a0 18 .cfa: sp 0 +
STACK CFI INIT 5e5b8 4 .cfa: sp 0 +
STACK CFI INIT 5e5bc 4 .cfa: sp 0 +
STACK CFI INIT 5e75c 1c .cfa: sp 0 +
STACK CFI INIT 5e778 c .cfa: sp 0 +
STACK CFI INIT 5e784 4 .cfa: sp 0 +
STACK CFI INIT 5e788 4 .cfa: sp 0 +
STACK CFI INIT 5e78c 38 .cfa: sp 0 +
STACK CFI 5e790 .cfa: sp 32 +
STACK CFI 5e798 .cfa: x29 32 + x19: .cfa -16 + ^ .ra: .cfa -24 + ^ x29: .cfa -32 + ^
STACK CFI 5e7b8 .cfa: sp 32 +
STACK CFI 5e7c0 .cfa: sp 0 +
STACK CFI INIT 5e7c4 18 .cfa: sp 0 +
STACK CFI INIT 5e7dc 4 .cfa: sp 0 +
STACK CFI INIT 5e7e0 4 .cfa: sp 0 +
STACK CFI INIT 5e97c 1c .cfa: sp 0 +
STACK CFI INIT 5e998 c .cfa: sp 0 +
STACK CFI INIT 5e9a4 4 .cfa: sp 0 +
STACK CFI INIT 5e9a8 4 .cfa: sp 0 +
STACK CFI INIT 5e9ac 34 .cfa: sp 0 +
STACK CFI 5e9b0 .cfa: sp 32 +
STACK CFI 5e9b8 .cfa: x29 32 + x19: .cfa -16 + ^ .ra: .cfa -24 + ^ x29: .cfa -32 + ^
STACK CFI 5e9d4 .cfa: sp 32 +
STACK CFI 5e9dc .cfa: sp 0 +
STACK CFI INIT 5e9e0 14 .cfa: sp 0 +
STACK CFI INIT 5e9f4 4 .cfa: sp 0 +
STACK CFI INIT 5e9f8 4 .cfa: sp 0 +
STACK CFI INIT 5e9fc 14 .cfa: sp 0 +
STACK CFI INIT 5ea10 1c .cfa: sp 0 +
STACK CFI INIT 5ea2c c .cfa: sp 0 +
STACK CFI INIT 5edd8 50 .cfa: sp 0 +
STACK CFI 5eddc .cfa: sp 32 +
STACK CFI 5ede4 .cfa: x29 32 + x19: .cfa -16 + ^ .ra: .cfa -24 + ^ x29: .cfa -32 + ^
STACK CFI 5edfc .cfa: sp 32 +
STACK CFI 5ee04 .cfa: sp 0 +
STACK CFI 5ee08 .cfa: x29 32 +
STACK CFI 5ee1c .cfa: sp 32 +
STACK CFI 5ee24 .cfa: sp 0 +
STACK CFI INIT 5ee28 14 .cfa: sp 0 +
STACK CFI 5ee2c .cfa: sp 16 +
STACK CFI 5ee30 .cfa: x29 16 + .ra: .cfa -8 + ^ x29: .cfa -16 + ^
STACK CFI 5ee34 .cfa: sp 16 +
STACK CFI 5ee38 .cfa: sp 0 +
STACK CFI INIT 5ee3c 4 .cfa: sp 0 +
STACK CFI INIT 5ee40 4 .cfa: sp 0 +
STACK CFI INIT 5ee44 8 .cfa: sp 0 +
STACK CFI INIT 5ee4c 8 .cfa: sp 0 +
STACK CFI INIT 5ee54 70 .cfa: sp 0 +
STACK CFI 5ee58 .cfa: sp 32 +
STACK CFI 5ee60 .cfa: x29 32 + x19: .cfa -8 + ^ x20: .cfa -16 + ^ .ra: .cfa -24 + ^ x29: .cfa -32 + ^
STACK CFI 5ee90 .cfa: sp 32 +
STACK CFI 5ee98 .cfa: sp 0 +
STACK CFI 5ee9c .cfa: x29 32 +
STACK CFI 5eeb8 .cfa: sp 32 +
STACK CFI 5eec0 .cfa: sp 0 +
STACK CFI INIT 5eec4 80 .cfa: sp 0 +
STACK CFI 5eec8 .cfa: sp 32 +
STACK CFI 5eed0 .cfa: x29 32 + x19: .cfa -8 + ^ x20: .cfa -16 + ^ .ra: .cfa -24 + ^ x29: .cfa -32 + ^
STACK CFI 5ef08 .cfa: sp 32 +
STACK CFI 5ef10 .cfa: sp 0 +
STACK CFI 5ef14 .cfa: x29 32 +
STACK CFI 5ef38 .cfa: sp 32 +
STACK CFI 5ef40 .cfa: sp 0 +
STACK CFI INIT 5f2d0 8 .cfa: sp 0 +
STACK CFI INIT 5f2d8 8 .cfa: sp 0 +
STACK CFI INIT 5f2e0 8 .cfa: sp 0 +
STACK CFI INIT 5f2e8 4 .cfa: sp 0 +
STACK CFI INIT 5f410 24 .cfa: sp 0 +
STACK CFI 5f414 .cfa: sp 32 +
STACK CFI 5f41c .cfa: x29 32 + x19: .cfa -16 + ^ .ra: .cfa -24 + ^ x29: .cfa -32 + ^
STACK CFI 5f428 .cfa: sp 32 +
STACK CFI 5f430 .cfa: sp 0 +
STACK CFI INIT 5f434 10 .cfa: sp 0 +
STACK CFI INIT 5f444 30 .cfa: sp 0 +
STACK CFI 5f448 .cfa: sp 32 +
STACK CFI 5f450 .cfa: x29 32 + x19: .cfa -16 + ^ .ra: .cfa -24 + ^ x29: .cfa -32 + ^
STACK CFI 5f468 .cfa: sp 32 +
STACK CFI 5f470 .cfa: sp 0 +
STACK CFI INIT 5f474 c .cfa: sp 0 +
STACK CFI INIT 5f480 4 .cfa: sp 0 +
STACK CFI INIT 5f4f8 34 .cfa: sp 0 +
STACK CFI 5f4fc .cfa: sp 16 +
STACK CFI 5f500 .cfa: x29 16 + .ra: .cfa -8 + ^ x29: .cfa -16 + ^
STACK CFI INIT 6007c 6c .cfa: sp 0 +
STACK CFI 60080 .cfa: sp 32 +
STACK CFI 60088 .cfa: x29 32 + x19: .cfa -8 + ^ x20: .cfa -16 + ^ .ra: .cfa -24 + ^ x29: .cfa -32 + ^
STACK CFI 600b4 .cfa: sp 32 +
STACK CFI 600bc .cfa: sp 0 +
STACK CFI 600c0 .cfa: x29 32 +
STACK CFI 600dc .cfa: sp 32 +
STACK CFI 600e4 .cfa: sp 0 +
STACK CFI INIT 600e8 7c .cfa: sp 0 +
STACK CFI 600ec .cfa: sp 32 +
STACK CFI 600f4 .cfa: x29 32 + x19: .cfa -8 + ^ x20: .cfa -16 + ^ .ra: .cfa -24 + ^ x29: .cfa -32 + ^
STACK CFI 60128 .cfa: sp 32 +
STACK CFI 60130 .cfa: sp 0 +
STACK CFI 60134 .cfa: x29 32 +
STACK CFI 60158 .cfa: sp 32 +
STACK CFI 60160 .cfa: sp 0 +
STACK CFI INIT 60654 80 .cfa: sp 0 +
STACK CFI 60658 .cfa: sp 32 +
STACK CFI 60660 .cfa: x29 32 + x19: .cfa -8 + ^ x20: .cfa -16 + ^ .ra: .cfa -24 + ^ x29: .cfa -32 + ^
STACK CFI 606c8 .cfa: sp 32 +
STACK CFI 606d0 .cfa: sp 0 +
STACK CFI INIT 60a50 24 .cfa: sp 0 +
STACK CFI 60a54 .cfa: sp 32 +
STACK CFI 60a5c .cfa: x29 32 + x19: .cfa -16 + ^ .ra: .cfa -24 + ^ x29: .cfa -32 + ^
STACK CFI 60a68 .cfa: sp 32 +
STACK CFI 60a70 .cfa: sp 0 +
STACK CFI INIT 60a74 4 .cfa: sp 0 +
STACK CFI INIT 60a78 8 .cfa: sp 0 +
STACK CFI INIT 60a80 4 .cfa: sp 0 +
STACK CFI INIT 60a84 8 .cfa: sp 0 +
STACK CFI INIT 60f10 cc .cfa: sp 0 +
STACK CFI 60f14 .cfa: sp 96 +
STACK CFI 60f28 .cfa: x29 48 + x19: .cfa -8 + ^ x20: .cfa -16 + ^ x21: .cfa -32 + ^ .ra: .cfa -40 + ^ x29: .cfa -48 + ^ v8: .cfa -56 + ^ v9: .cfa -64 + ^
STACK CFI 60fc0 .cfa: sp 96 +
STACK CFI 60fd4 .cfa: sp 0 +
STACK CFI 60fd8 .cfa: x29 48 +
STACK CFI INIT 60fdc 24 .cfa: sp 0 +
STACK CFI 60fe0 .cfa: sp 32 +
STACK CFI 60fe8 .cfa: x29 32 + x19: .cfa -16 + ^ .ra: .cfa -24 + ^ x29: .cfa -32 + ^
STACK CFI 60ff4 .cfa: sp 32 +
STACK CFI 60ffc .cfa: sp 0 +
STACK CFI INIT 61120 cc .cfa: sp 0 +
STACK CFI 61124 .cfa: sp 48 +
STACK CFI 61130 .cfa: x29 48 + x19: .cfa -8 + ^ x20: .cfa -16 + ^ x21: .cfa -32 + ^ .ra: .cfa -40 + ^ x29: .cfa -48 + ^
STACK CFI 611c8 .cfa: sp 48 +
STACK CFI 611d4 .cfa: sp 0 +
STACK CFI 611d8 .cfa: x29 48 +
STACK CFI 611dc .cfa: sp 48 +
STACK CFI 611e8 .cfa: sp 0 +
STACK CFI INIT 62428 150 .cfa: sp 0 +
STACK CFI 6242c .cfa: sp 64 +
STACK CFI 62438 .cfa: x29 32 + x19: .cfa -8 + ^ x20: .cfa -16 + ^ .ra: .cfa -24 + ^ x29: .cfa -32 + ^
STACK CFI 62500 .cfa: sp 64 +
STACK CFI 6250c .cfa: sp 0 +
STACK CFI 62510 .cfa: x29 32 +
STACK CFI INIT 62578 38 .cfa: sp 0 +
STACK CFI 6257c .cfa: sp 32 +
STACK CFI 62584 .cfa: x29 32 + x19: .cfa -8 + ^ x20: .cfa -16 + ^ .ra: .cfa -24 + ^ x29: .cfa -32 + ^
STACK CFI 625a4 .cfa: sp 32 +
STACK CFI 625ac .cfa: sp 0 +
STACK CFI INIT 625b0 44 .cfa: sp 0 +
STACK CFI 625b4 .cfa: sp 32 +
STACK CFI 625bc .cfa: x29 32 + x19: .cfa -16 + ^ .ra: .cfa -24 + ^ x29: .cfa -32 + ^
STACK CFI 625cc .cfa: sp 32 +
STACK CFI 625d4 .cfa: sp 0 +
STACK CFI 625d8 .cfa: x29 32 +
STACK CFI 625e8 .cfa: sp 32 +
STACK CFI 625f0 .cfa: sp 0 +
STACK CFI INIT 625f4 14 .cfa: sp 0 +
STACK CFI 625f8 .cfa: sp 16 +
STACK CFI 625fc .cfa: x29 16 + .ra: .cfa -8 + ^ x29: .cfa -16 + ^
STACK CFI 62600 .cfa: sp 16 +
STACK CFI 62604 .cfa: sp 0 +
STACK CFI INIT 62608 14 .cfa: sp 0 +
STACK CFI 6260c .cfa: sp 16 +
STACK CFI 62610 .cfa: x29 16 + .ra: .cfa -8 + ^ x29: .cfa -16 + ^
STACK CFI 62614 .cfa: sp 16 +
STACK CFI 62618 .cfa: sp 0 +
STACK CFI INIT 6261c 14 .cfa: sp 0 +
STACK CFI 62620 .cfa: sp 16 +
STACK CFI 62624 .cfa: x29 16 + .ra: .cfa -8 + ^ x29: .cfa -16 + ^
STACK CFI 62628 .cfa: sp 16 +
STACK CFI 6262c .cfa: sp 0 +
STACK CFI INIT 62630 14 .cfa: sp 0 +
STACK CFI 62634 .cfa: sp 16 +
STACK CFI 62638 .cfa: x29 16 + .ra: .cfa -8 + ^ x29: .cfa -16 + ^
STACK CFI 6263c .cfa: sp 16 +
STACK CFI 62640 .cfa: sp 0 +
STACK CFI INIT 62644 14 .cfa: sp 0 +
STACK CFI 62648 .cfa: sp 16 +
STACK CFI 6264c .cfa: x29 16 + .ra: .cfa -8 + ^ x29: .cfa -16 + ^
STACK CFI 62650 .cfa: sp 16 +
STACK CFI 62654 .cfa: sp 0 +
STACK CFI INIT 6339c c4 .cfa: sp 0 +
STACK CFI 633a0 .cfa: sp 32 +
STACK CFI 633a8 .cfa: x29 32 + x19: .cfa -16 + ^ .ra: .cfa -24 + ^ x29: .cfa -32 + ^
STACK CFI 633e4 .cfa: sp 32 +
STACK CFI 633ec .cfa: sp 0 +
STACK CFI 633f0 .cfa: x29 32 +
STACK CFI 63454 .cfa: sp 32 +
STACK CFI 6345c .cfa: sp 0 +
STACK CFI INIT 63460 10 .cfa: sp 0 +
STACK CFI INIT 63628 2c .cfa: sp 0 +
STACK CFI 6362c .cfa: sp 32 +
STACK CFI 63634 .cfa: x29 32 + x19: .cfa -16 + ^ .ra: .cfa -24 + ^ x29: .cfa -32 + ^
STACK CFI 63648 .cfa: sp 32 +
STACK CFI 63650 .cfa: sp 0 +
STACK CFI INIT 63654 28 .cfa: sp 0 +
STACK CFI INIT 6367c 4 .cfa: sp 0 +
STACK CFI INIT 63680 8 .cfa: sp 0 +
STACK CFI INIT 6398c 2c .cfa: sp 0 +
STACK CFI INIT 639b8 4 .cfa: sp 0 +
STACK CFI INIT 639bc 4 .cfa: sp 0 +
STACK CFI INIT 639c0 4 .cfa: sp 0 +
STACK CFI INIT 639c4 4 .cfa: sp 0 +
STACK CFI INIT 639c8 4 .cfa: sp 0 +
STACK CFI INIT 639cc 8 .cfa: sp 0 +
STACK CFI INIT 63a40 4 .cfa: sp 0 +
STACK CFI INIT 63ab0 4 .cfa: sp 0 +
STACK CFI INIT 63ab4 304 .cfa: sp 0 +
STACK CFI 63ab8 .cfa: sp 128 +
STACK CFI 63ad0 .cfa: x29 64 + x19: .cfa -8 + ^ x20: .cfa -16 + ^ x21: .cfa -24 + ^ x22: .cfa -32 + ^ x23: .cfa -48 + ^ .ra: .cfa -56 + ^ x29: .cfa -64 + ^ v8: .cfa -72 + ^ v9: .cfa -80 + ^
STACK CFI 63d00 .cfa: sp 128 +
STACK CFI 63d18 .cfa: sp 0 +
STACK CFI 63d1c .cfa: x29 64 +
STACK CFI INIT 63db8 60 .cfa: sp 0 +
STACK CFI 63dbc .cfa: sp 32 +
STACK CFI 63dc4 .cfa: x29 32 + x19: .cfa -8 + ^ x20: .cfa -16 + ^ .ra: .cfa -24 + ^ x29: .cfa -32 + ^
STACK CFI 63de4 .cfa: sp 32 +
STACK CFI 63dec .cfa: sp 0 +
STACK CFI 63df0 .cfa: x29 32 +
STACK CFI 63e0c .cfa: sp 32 +
STACK CFI 63e14 .cfa: sp 0 +
STACK CFI INIT 63e18 70 .cfa: sp 0 +
STACK CFI 63e1c .cfa: sp 32 +
STACK CFI 63e24 .cfa: x29 32 + x19: .cfa -8 + ^ x20: .cfa -16 + ^ .ra: .cfa -24 + ^ x29: .cfa -32 + ^
STACK CFI 63e4c .cfa: sp 32 +
STACK CFI 63e54 .cfa: sp 0 +
STACK CFI 63e58 .cfa: x29 32 +
STACK CFI 63e7c .cfa: sp 32 +
STACK CFI 63e84 .cfa: sp 0 +
STACK CFI INIT 63e88 10 .cfa: sp 0 +
STACK CFI INIT 63e98 30 .cfa: sp 0 +
STACK CFI 63e9c .cfa: sp 32 +
STACK CFI 63ea4 .cfa: x29 32 + x19: .cfa -16 + ^ .ra: .cfa -24 + ^ x29: .cfa -32 + ^
STACK CFI 63ebc .cfa: sp 32 +
STACK CFI 63ec4 .cfa: sp 0 +
STACK CFI INIT 63ec8 4 .cfa: sp 0 +
STACK CFI INIT 63ecc 4 .cfa: sp 0 +
STACK CFI INIT 63ed0 d4 .cfa: sp 0 +
STACK CFI 63ed4 .cfa: sp 80 +
STACK CFI 63ee0 .cfa: x29 32 + x19: .cfa -16 + ^ .ra: .cfa -24 + ^ x29: .cfa -32 + ^
STACK CFI 63f64 .cfa: sp 80 +
STACK CFI 63f70 .cfa: sp 0 +
STACK CFI 63f74 .cfa: x29 32 +
STACK CFI INIT 64364 158 .cfa: sp 0 +
STACK CFI 64368 .cfa: sp 64 +
STACK CFI 64374 .cfa: x29 32 + x19: .cfa -8 + ^ x20: .cfa -16 + ^ .ra: .cfa -24 + ^ x29: .cfa -32 + ^
STACK CFI 6449c .cfa: sp 64 +
STACK CFI 644a8 .cfa: sp 0 +
STACK CFI 644ac .cfa: x29 32 +
STACK CFI INIT 644bc 140 .cfa: sp 0 +
STACK CFI 644c0 .cfa: sp 64 +
STACK CFI 644cc .cfa: x29 32 + x19: .cfa -8 + ^ x20: .cfa -16 + ^ .ra: .cfa -24 + ^ x29: .cfa -32 + ^
STACK CFI 645dc .cfa: sp 64 +
STACK CFI 645e8 .cfa: sp 0 +
STACK CFI 645ec .cfa: x29 32 +
STACK CFI INIT 645fc 70 .cfa: sp 0 +
STACK CFI 64600 .cfa: sp 48 +
STACK CFI 6460c .cfa: x29 48 + x19: .cfa -8 + ^ x20: .cfa -16 + ^ x21: .cfa -32 + ^ .ra: .cfa -40 + ^ x29: .cfa -48 + ^
STACK CFI 64624 .cfa: sp 48 +
STACK CFI 64630 .cfa: sp 0 +
STACK CFI 64634 .cfa: x29 48 +
STACK CFI 6465c .cfa: sp 48 +
STACK CFI 64668 .cfa: sp 0 +
STACK CFI INIT 64c84 50 .cfa: sp 0 +
STACK CFI 64ca8 .cfa: sp 32 +
STACK CFI 64cb0 .cfa: x29 32 + x19: .cfa -16 + ^ .ra: .cfa -24 + ^ x29: .cfa -32 + ^
STACK CFI 64cc4 .cfa: sp 32 +
STACK CFI 64ccc .cfa: sp 0 +
STACK CFI INIT 64cd4 458 .cfa: sp 0 +
STACK CFI INIT 6512c 3c .cfa: sp 0 +
STACK CFI 65130 .cfa: sp 32 +
STACK CFI 65138 .cfa: x29 32 + x19: .cfa -16 + ^ .ra: .cfa -24 + ^ x29: .cfa -32 + ^
STACK CFI 65144 .cfa: sp 32 +
STACK CFI 6514c .cfa: sp 0 +
STACK CFI 65150 .cfa: x29 32 +
STACK CFI 6515c .cfa: sp 32 +
STACK CFI 65164 .cfa: sp 0 +
STACK CFI INIT 65168 3c .cfa: sp 0 +
STACK CFI 6516c .cfa: sp 32 +
STACK CFI 65174 .cfa: x29 32 + x19: .cfa -16 + ^ .ra: .cfa -24 + ^ x29: .cfa -32 + ^
STACK CFI 65180 .cfa: sp 32 +
STACK CFI 65188 .cfa: sp 0 +
STACK CFI 6518c .cfa: x29 32 +
STACK CFI 65198 .cfa: sp 32 +
STACK CFI 651a0 .cfa: sp 0 +
STACK CFI INIT 651a4 190 .cfa: sp 0 +
STACK CFI 651a8 .cfa: sp 48 +
STACK CFI 651b4 .cfa: x29 48 + x19: .cfa -8 + ^ x20: .cfa -16 + ^ x21: .cfa -32 + ^ .ra: .cfa -40 + ^ x29: .cfa -48 + ^
STACK CFI 65248 .cfa: sp 48 +
STACK CFI 65254 .cfa: sp 0 +
STACK CFI 65258 .cfa: x29 48 +
STACK CFI 6525c .cfa: sp 48 +
STACK CFI 65268 .cfa: sp 0 +
STACK CFI 6526c .cfa: x29 48 +
STACK CFI 652a4 .cfa: sp 48 +
STACK CFI 652b0 .cfa: sp 0 +
STACK CFI 652b4 .cfa: x29 48 +
STACK CFI 652d8 .cfa: sp 48 +
STACK CFI 652e4 .cfa: sp 0 +
STACK CFI 652e8 .cfa: x29 48 +
STACK CFI 65310 .cfa: sp 48 +
STACK CFI 6531c .cfa: sp 0 +
STACK CFI 65320 .cfa: x29 48 +
STACK CFI 65324 .cfa: sp 48 +
STACK CFI 65330 .cfa: sp 0 +
STACK CFI INIT 65334 c8 .cfa: sp 0 +
STACK CFI 65338 .cfa: sp 48 +
STACK CFI 65340 .cfa: x29 16 + .ra: .cfa -8 + ^ x29: .cfa -16 + ^
STACK CFI 6536c .cfa: sp 48 +
STACK CFI 65374 .cfa: sp 0 +
STACK CFI 65378 .cfa: x29 16 +
STACK CFI 653f0 .cfa: sp 48 +
STACK CFI 653f8 .cfa: sp 0 +
STACK CFI INIT 653fc c8 .cfa: sp 0 +
STACK CFI 65400 .cfa: sp 48 +
STACK CFI 65408 .cfa: x29 16 + .ra: .cfa -8 + ^ x29: .cfa -16 + ^
STACK CFI 65434 .cfa: sp 48 +
STACK CFI 6543c .cfa: sp 0 +
STACK CFI 65440 .cfa: x29 16 +
STACK CFI 654b8 .cfa: sp 48 +
STACK CFI 654c0 .cfa: sp 0 +
STACK CFI INIT 654c4 374 .cfa: sp 0 +
STACK CFI 654c8 .cfa: sp 32 +
STACK CFI 654d0 .cfa: x29 32 + x19: .cfa -8 + ^ x20: .cfa -16 + ^ .ra: .cfa -24 + ^ x29: .cfa -32 + ^
STACK CFI 6551c .cfa: sp 32 +
STACK CFI 65524 .cfa: sp 0 +
STACK CFI 65528 .cfa: x29 32 +
STACK CFI 6556c .cfa: sp 32 +
STACK CFI 65574 .cfa: sp 0 +
STACK CFI 65578 .cfa: x29 32 +
STACK CFI 6557c .cfa: sp 32 +
STACK CFI 65584 .cfa: sp 0 +
STACK CFI 65588 .cfa: x29 32 +
STACK CFI 655a4 .cfa: sp 32 +
STACK CFI 655ac .cfa: sp 0 +
STACK CFI 655b0 .cfa: x29 32 +
STACK CFI 656a4 .cfa: sp 32 +
STACK CFI 656ac .cfa: sp 0 +
STACK CFI 656b0 .cfa: x29 32 +
STACK CFI 65740 .cfa: sp 32 +
STACK CFI 65748 .cfa: sp 0 +
STACK CFI 6574c .cfa: x29 32 +
STACK CFI 6581c .cfa: sp 32 +
STACK CFI 65824 .cfa: sp 0 +
STACK CFI 65828 .cfa: x29 32 +
STACK CFI 6582c .cfa: sp 32 +
STACK CFI 65834 .cfa: sp 0 +
STACK CFI INIT 65838 3e8 .cfa: sp 0 +
STACK CFI 6583c .cfa: sp 208 +
STACK CFI 65854 .cfa: x29 32 + x19: .cfa -16 + ^ .ra: .cfa -24 + ^ x29: .cfa -32 + ^ v8: .cfa -40 + ^ v9: .cfa -48 + ^ v10: .cfa -56 + ^ v11: .cfa -64 + ^ v12: .cfa -72 + ^ v13: .cfa -80 + ^
STACK CFI 65910 .cfa: sp 208 +
STACK CFI 65928 .cfa: sp 0 +
STACK CFI 6592c .cfa: x29 32 +
STACK CFI INIT 65c20 13c .cfa: sp 0 +
STACK CFI INIT 65d5c 104 .cfa: sp 0 +
STACK CFI INIT 65e60 470 .cfa: sp 0 +
STACK CFI 65e64 .cfa: sp 224 +
STACK CFI 65e80 .cfa: x29 48 + x19: .cfa -8 + ^ x20: .cfa -16 + ^ x21: .cfa -24 + ^ x22: .cfa -32 + ^ .ra: .cfa -40 + ^ x29: .cfa -48 + ^ v8: .cfa -56 + ^ v9: .cfa -64 + ^ v10: .cfa -72 + ^ v11: .cfa -80 + ^ v12: .cfa -88 + ^ v13: .cfa -96 + ^
STACK CFI 66140 .cfa: sp 224 +
STACK CFI 6615c .cfa: sp 0 +
STACK CFI 66160 .cfa: x29 48 +
STACK CFI INIT 662d0 108 .cfa: sp 0 +
STACK CFI 662d4 .cfa: sp 176 +
STACK CFI 662e0 .cfa: x29 32 + x19: .cfa -16 + ^ .ra: .cfa -24 + ^ x29: .cfa -32 + ^
STACK CFI 663c4 .cfa: sp 176 +
STACK CFI 663d0 .cfa: sp 0 +
STACK CFI 663d4 .cfa: x29 32 +
STACK CFI INIT 663d8 27c .cfa: sp 0 +
STACK CFI 663dc .cfa: sp 128 +
STACK CFI 663ec .cfa: x29 48 + x19: .cfa -8 + ^ x20: .cfa -16 + ^ x21: .cfa -24 + ^ x22: .cfa -32 + ^ .ra: .cfa -40 + ^ x29: .cfa -48 + ^
STACK CFI 6663c .cfa: sp 128 +
STACK CFI 6664c .cfa: sp 0 +
STACK CFI 66650 .cfa: x29 48 +
STACK CFI INIT 66654 14c .cfa: sp 0 +
STACK CFI INIT 667a0 16c .cfa: sp 0 +
STACK CFI INIT 6690c 17c .cfa: sp 0 +
STACK CFI INIT 66a88 164 .cfa: sp 0 +
STACK CFI INIT 66bec 2c8 .cfa: sp 0 +
STACK CFI 66bf0 .cfa: sp 176 +
STACK CFI 66c08 x19: .cfa -8 + ^ x20: .cfa -16 + ^ x21: .cfa -24 + ^ x22: .cfa -32 + ^ x23: .cfa -40 + ^ x24: .cfa -48 + ^ x25: .cfa -56 + ^ x26: .cfa -64 + ^ x27: .cfa -72 + ^ x28: .cfa -80 + ^ .ra: .cfa -88 + ^ x29: .cfa -96 + ^
STACK CFI 66eb0 .cfa: sp 0 +
STACK CFI INIT 66eb4 104 .cfa: sp 0 +
STACK CFI INIT 66fb8 110 .cfa: sp 0 +
STACK CFI INIT 670c8 154 .cfa: sp 0 +
STACK CFI INIT 6721c 444 .cfa: sp 0 +
STACK CFI 67254 .cfa: sp 64 +
STACK CFI 67260 x19: .cfa -8 + ^ x20: .cfa -16 + ^ x21: .cfa -24 + ^ x22: .cfa -32 + ^ x23: .cfa -40 + ^ x24: .cfa -48 + ^ x25: .cfa -64 + ^
STACK CFI 674ac .cfa: sp 0 +
STACK CFI 674b0 .cfa: sp 64 +
STACK CFI 67644 .cfa: sp 0 +
STACK CFI 67648 .cfa: sp 64 +
STACK CFI 6765c .cfa: sp 0 +
STACK CFI INIT 67660 340 .cfa: sp 0 +
STACK CFI 67664 .cfa: sp 64 +
STACK CFI 67674 .cfa: x29 48 + x19: .cfa -8 + ^ x20: .cfa -16 + ^ x21: .cfa -32 + ^ .ra: .cfa -40 + ^ x29: .cfa -48 + ^ v8: .cfa -56 + ^ v9: .cfa -64 + ^
STACK CFI 6790c .cfa: sp 64 +
STACK CFI 6791c .cfa: sp 0 +
STACK CFI 67920 .cfa: x29 48 +
STACK CFI 67944 .cfa: sp 64 +
STACK CFI 67954 .cfa: sp 0 +
STACK CFI 67958 .cfa: x29 48 +
STACK CFI 67960 .cfa: sp 64 +
STACK CFI 67970 .cfa: sp 0 +
STACK CFI 67974 .cfa: x29 48 +
STACK CFI 6797c .cfa: sp 64 +
STACK CFI 6798c .cfa: sp 0 +
STACK CFI 67990 .cfa: x29 48 +
STACK CFI INIT 679a0 310 .cfa: sp 0 +
STACK CFI 679d8 .cfa: sp 48 +
STACK CFI 679e0 x19: .cfa -8 + ^ x20: .cfa -16 + ^ x21: .cfa -24 + ^ x22: .cfa -32 + ^ x23: .cfa -40 + ^ x24: .cfa -48 + ^
STACK CFI 67cac .cfa: sp 0 +
STACK CFI INIT 67cb0 860 .cfa: sp 0 +
STACK CFI 67cb4 .cfa: sp 160 +
STACK CFI 67cd8 x19: .cfa -8 + ^ x20: .cfa -16 + ^ x21: .cfa -24 + ^ x22: .cfa -32 + ^ x23: .cfa -40 + ^ x24: .cfa -48 + ^ x25: .cfa -56 + ^ x26: .cfa -64 + ^ x27: .cfa -72 + ^ x28: .cfa -80 + ^ .ra: .cfa -88 + ^ x29: .cfa -96 + ^ v8: .cfa -104 + ^ v9: .cfa -112 + ^ v10: .cfa -120 + ^ v11: .cfa -128 + ^ v12: .cfa -136 + ^ v13: .cfa -144 + ^ v14: .cfa -152 + ^ v15: .cfa -160 + ^
STACK CFI 6850c .cfa: sp 0 +
STACK CFI INIT 68510 8c8 .cfa: sp 0 +
STACK CFI 68514 .cfa: sp 160 +
STACK CFI 68538 x19: .cfa -8 + ^ x20: .cfa -16 + ^ x21: .cfa -24 + ^ x22: .cfa -32 + ^ x23: .cfa -40 + ^ x24: .cfa -48 + ^ x25: .cfa -56 + ^ x26: .cfa -64 + ^ x27: .cfa -72 + ^ x28: .cfa -80 + ^ .ra: .cfa -88 + ^ x29: .cfa -96 + ^ v8: .cfa -104 + ^ v9: .cfa -112 + ^ v10: .cfa -120 + ^ v11: .cfa -128 + ^ v12: .cfa -136 + ^ v13: .cfa -144 + ^ v14: .cfa -152 + ^ v15: .cfa -160 + ^
STACK CFI 68dd4 .cfa: sp 0 +
STACK CFI INIT 68dd8 644 .cfa: sp 0 +
STACK CFI 68ddc .cfa: sp 160 +
STACK CFI 68dfc .cfa: x29 48 + x19: .cfa -8 + ^ x20: .cfa -16 + ^ x21: .cfa -32 + ^ .ra: .cfa -40 + ^ x29: .cfa -48 + ^ v8: .cfa -56 + ^ v9: .cfa -64 + ^ v10: .cfa -72 + ^ v11: .cfa -80 + ^ v12: .cfa -88 + ^ v13: .cfa -96 + ^ v14: .cfa -104 + ^ v15: .cfa -112 + ^
STACK CFI 693f8 .cfa: sp 160 +
STACK CFI 69418 .cfa: sp 0 +
STACK CFI INIT 6941c 65c .cfa: sp 0 +
STACK CFI 69420 .cfa: sp 160 +
STACK CFI 69440 .cfa: x29 48 + x19: .cfa -8 + ^ x20: .cfa -16 + ^ x21: .cfa -32 + ^ .ra: .cfa -40 + ^ x29: .cfa -48 + ^ v8: .cfa -56 + ^ v9: .cfa -64 + ^ v10: .cfa -72 + ^ v11: .cfa -80 + ^ v12: .cfa -88 + ^ v13: .cfa -96 + ^ v14: .cfa -104 + ^ v15: .cfa -112 + ^
STACK CFI 69a54 .cfa: sp 160 +
STACK CFI 69a74 .cfa: sp 0 +
STACK CFI INIT 69a78 5a4 .cfa: sp 0 +
STACK CFI 69a7c .cfa: sp 80 +
STACK CFI 69a8c x19: .cfa -8 + ^ x20: .cfa -16 + ^ v8: .cfa -24 + ^ v9: .cfa -32 + ^ v10: .cfa -40 + ^ v11: .cfa -48 + ^ v12: .cfa -56 + ^ v13: .cfa -64 + ^ v14: .cfa -80 + ^
STACK CFI 69ad0 .cfa: sp 0 +
STACK CFI 69ad4 .cfa: sp 80 +
STACK CFI INIT 6a01c 5f0 .cfa: sp 0 +
STACK CFI 6a020 .cfa: sp 80 +
STACK CFI 6a030 x19: .cfa -8 + ^ x20: .cfa -16 + ^ v8: .cfa -24 + ^ v9: .cfa -32 + ^ v10: .cfa -40 + ^ v11: .cfa -48 + ^ v12: .cfa -56 + ^ v13: .cfa -64 + ^ v14: .cfa -80 + ^
STACK CFI 6a074 .cfa: sp 0 +
STACK CFI 6a078 .cfa: sp 80 +
STACK CFI INIT 6a60c 790 .cfa: sp 0 +
STACK CFI 6a610 .cfa: sp 144 +
STACK CFI 6a630 x19: .cfa -8 + ^ x20: .cfa -16 + ^ x21: .cfa -24 + ^ x22: .cfa -32 + ^ x23: .cfa -40 + ^ x24: .cfa -48 + ^ x25: .cfa -56 + ^ x26: .cfa -64 + ^ x27: .cfa -80 + ^ v8: .cfa -88 + ^ v9: .cfa -96 + ^ v10: .cfa -104 + ^ v11: .cfa -112 + ^ v12: .cfa -120 + ^ v13: .cfa -128 + ^ v14: .cfa -136 + ^ v15: .cfa -144 + ^
STACK CFI 6ad98 .cfa: sp 0 +
STACK CFI INIT 6ad9c 5a4 .cfa: sp 0 +
STACK CFI 6ada0 .cfa: sp 160 +
STACK CFI 6adc0 .cfa: x29 48 + x19: .cfa -8 + ^ x20: .cfa -16 + ^ x21: .cfa -32 + ^ .ra: .cfa -40 + ^ x29: .cfa -48 + ^ v8: .cfa -56 + ^ v9: .cfa -64 + ^ v10: .cfa -72 + ^ v11: .cfa -80 + ^ v12: .cfa -88 + ^ v13: .cfa -96 + ^ v14: .cfa -104 + ^ v15: .cfa -112 + ^
STACK CFI 6b31c .cfa: sp 160 +
STACK CFI 6b33c .cfa: sp 0 +
STACK CFI INIT 6b340 4c0 .cfa: sp 0 +
STACK CFI 6b344 .cfa: sp 32 +
STACK CFI 6b348 v8: .cfa -8 + ^ v9: .cfa -16 + ^ v10: .cfa -24 + ^ v11: .cfa -32 + ^
STACK CFI 6b380 .cfa: sp 0 +
STACK CFI 6b384 .cfa: sp 32 +
STACK CFI 6b7fc .cfa: sp 0 +
STACK CFI INIT 6b800 164 .cfa: sp 0 +
STACK CFI INIT 6b964 180 .cfa: sp 0 +
STACK CFI INIT 6bae4 2c4 .cfa: sp 0 +
STACK CFI 6bae8 .cfa: sp 48 +
STACK CFI 6baf0 x19: .cfa -8 + ^ x20: .cfa -16 + ^ x21: .cfa -24 + ^ x22: .cfa -32 + ^ x23: .cfa -48 + ^
STACK CFI 6bbf8 .cfa: sp 0 +
STACK CFI 6bbfc .cfa: sp 48 +
STACK CFI 6bd54 .cfa: sp 0 +
STACK CFI 6bd58 .cfa: sp 48 +
STACK CFI 6bda4 .cfa: sp 0 +
STACK CFI INIT 6bda8 354 .cfa: sp 0 +
STACK CFI 6bdac .cfa: sp 48 +
STACK CFI 6bdb4 x19: .cfa -8 + ^ x20: .cfa -16 + ^ x21: .cfa -24 + ^ x22: .cfa -32 + ^ x23: .cfa -48 + ^
STACK CFI 6befc .cfa: sp 0 +
STACK CFI 6bf00 .cfa: sp 48 +
STACK CFI 6c0a8 .cfa: sp 0 +
STACK CFI 6c0ac .cfa: sp 48 +
STACK CFI 6c0f8 .cfa: sp 0 +
STACK CFI INIT 6c0fc 180 .cfa: sp 0 +
STACK CFI INIT 6c27c 164 .cfa: sp 0 +
STACK CFI INIT 6c3e0 4b0 .cfa: sp 0 +
STACK CFI 6c3e4 .cfa: sp 16 + x19: .cfa -8 + ^ x20: .cfa -16 + ^
STACK CFI 6c86c .cfa: sp 0 +
STACK CFI 6c870 .cfa: sp 16 +
STACK CFI 6c880 .cfa: sp 0 +
STACK CFI 6c884 .cfa: sp 16 +
STACK CFI 6c88c .cfa: sp 0 +
STACK CFI INIT 6c890 4ec .cfa: sp 0 +
STACK CFI 6c894 .cfa: sp 16 + x19: .cfa -8 + ^ x20: .cfa -16 + ^
STACK CFI 6cd58 .cfa: sp 0 +
STACK CFI 6cd5c .cfa: sp 16 +
STACK CFI 6cd6c .cfa: sp 0 +
STACK CFI 6cd70 .cfa: sp 16 +
STACK CFI 6cd78 .cfa: sp 0 +
STACK CFI INIT 6cd7c 4d8 .cfa: sp 0 +
STACK CFI 6cd80 .cfa: sp 16 + x19: .cfa -16 + ^
STACK CFI 6d0c0 .cfa: sp 0 +
STACK CFI 6d0c4 .cfa: sp 16 +
STACK CFI 6d240 .cfa: sp 0 +
STACK CFI 6d244 .cfa: sp 16 +
STACK CFI 6d250 .cfa: sp 0 +
STACK CFI INIT 6d254 514 .cfa: sp 0 +
STACK CFI 6d258 .cfa: sp 16 + x19: .cfa -16 + ^
STACK CFI 6d5b0 .cfa: sp 0 +
STACK CFI 6d5b4 .cfa: sp 16 +
STACK CFI 6d754 .cfa: sp 0 +
STACK CFI 6d758 .cfa: sp 16 +
STACK CFI 6d764 .cfa: sp 0 +
STACK CFI INIT 6d768 4 .cfa: sp 0 +
STACK CFI INIT 6d76c 4 .cfa: sp 0 +
STACK CFI INIT 6d770 488 .cfa: sp 0 +
STACK CFI 6d778 .cfa: sp 16 + x19: .cfa -16 + ^
STACK CFI 6dbd4 .cfa: sp 0 +
STACK CFI 6dbd8 .cfa: sp 16 +
STACK CFI 6dbe0 .cfa: sp 0 +
STACK CFI 6dbe4 .cfa: sp 16 +
STACK CFI 6dbec .cfa: sp 0 +
STACK CFI INIT 6dbf8 4c0 .cfa: sp 0 +
STACK CFI INIT 6e0b8 1b4 .cfa: sp 0 +
STACK CFI INIT 6e26c 1d0 .cfa: sp 0 +
STACK CFI INIT 6e43c 1c8 .cfa: sp 0 +
STACK CFI INIT 6e604 1e0 .cfa: sp 0 +
STACK CFI INIT 6e7e4 1ac .cfa: sp 0 +
STACK CFI INIT 6e990 204 .cfa: sp 0 +
STACK CFI INIT 6eb94 fc .cfa: sp 0 +
STACK CFI INIT 6ec90 4 .cfa: sp 0 +
STACK CFI INIT 6ec94 1b8 .cfa: sp 0 +
STACK CFI INIT 6ee4c 1e4 .cfa: sp 0 +
STACK CFI INIT 6f030 264 .cfa: sp 0 +
STACK CFI INIT 6f294 2b8 .cfa: sp 0 +
STACK CFI INIT 6f54c 4 .cfa: sp 0 +
STACK CFI INIT 6f550 4 .cfa: sp 0 +
STACK CFI INIT 6f554 4 .cfa: sp 0 +
STACK CFI INIT 6f558 4 .cfa: sp 0 +
STACK CFI INIT 6f55c e0 .cfa: sp 0 +
STACK CFI INIT 6f63c 200 .cfa: sp 0 +
STACK CFI INIT 6f83c 20c .cfa: sp 0 +
STACK CFI INIT 6fa48 35c .cfa: sp 0 +
STACK CFI 6fad4 .cfa: sp 32 +
STACK CFI 6fad8 v8: .cfa -8 + ^ v9: .cfa -16 + ^ v10: .cfa -32 + ^
STACK CFI 6faec .cfa: sp 0 +
STACK CFI 6faf0 .cfa: sp 32 +
STACK CFI 6fda0 .cfa: sp 0 +
STACK CFI INIT 6fda4 368 .cfa: sp 0 +
STACK CFI 6fdb8 .cfa: sp 32 +
STACK CFI 6fdbc v8: .cfa -8 + ^ v9: .cfa -16 + ^ v10: .cfa -32 + ^
STACK CFI 6fe5c .cfa: sp 0 + v8: v8 v9: v9 v10: v10
STACK CFI INIT 7010c 8 .cfa: sp 0 +
STACK CFI INIT 70114 8 .cfa: sp 0 +
STACK CFI INIT 7011c 58 .cfa: sp 0 +
STACK CFI INIT 70174 408 .cfa: sp 0 +
STACK CFI 70178 .cfa: sp 16 + v8: .cfa -16 + ^
STACK CFI 70578 .cfa: sp 0 +
STACK CFI INIT 7057c 42c .cfa: sp 0 +
STACK CFI 70580 .cfa: sp 16 + v8: .cfa -16 + ^
STACK CFI 709a4 .cfa: sp 0 +
STACK CFI INIT 709a8 8 .cfa: sp 0 +
STACK CFI INIT 709b0 8 .cfa: sp 0 +
STACK CFI INIT 709b8 200 .cfa: sp 0 +
STACK CFI INIT 70bb8 20c .cfa: sp 0 +
STACK CFI INIT 70dc4 39c .cfa: sp 0 +
STACK CFI INIT 71160 22c .cfa: sp 0 +
STACK CFI INIT 7138c 150 .cfa: sp 0 +
STACK CFI INIT 714dc 35c .cfa: sp 0 +
STACK CFI 71568 .cfa: sp 32 +
STACK CFI 7156c v8: .cfa -8 + ^ v9: .cfa -16 + ^ v10: .cfa -32 + ^
STACK CFI 71580 .cfa: sp 0 +
STACK CFI 71584 .cfa: sp 32 +
STACK CFI 71834 .cfa: sp 0 +
STACK CFI INIT 71838 60 .cfa: sp 0 +
STACK CFI INIT 71898 b8 .cfa: sp 0 +
STACK CFI 7189c .cfa: sp 64 +
STACK CFI 718a8 .cfa: x29 32 + x19: .cfa -8 + ^ x20: .cfa -16 + ^ .ra: .cfa -24 + ^ x29: .cfa -32 + ^
STACK CFI 7193c .cfa: sp 64 +
STACK CFI 71948 .cfa: sp 0 +
STACK CFI 7194c .cfa: x29 32 +
STACK CFI INIT 71950 7f0 .cfa: sp 0 +
STACK CFI 71954 .cfa: sp 112 +
STACK CFI 71970 .cfa: x29 96 + x19: .cfa -8 + ^ x20: .cfa -16 + ^ x21: .cfa -24 + ^ x22: .cfa -32 + ^ x23: .cfa -40 + ^ x24: .cfa -48 + ^ x25: .cfa -56 + ^ x26: .cfa -64 + ^ x27: .cfa -72 + ^ x28: .cfa -80 + ^ .ra: .cfa -88 + ^ x29: .cfa -96 + ^ v8: .cfa -104 + ^ v9: .cfa -112 + ^
STACK CFI 720bc .cfa: sp 112 +
STACK CFI 720d8 .cfa: sp 0 +
STACK CFI 720dc .cfa: x29 96 +
STACK CFI INIT 72140 958 .cfa: sp 0 +
STACK CFI 72144 .cfa: sp 112 +
STACK CFI 72160 .cfa: x29 96 + x19: .cfa -8 + ^ x20: .cfa -16 + ^ x21: .cfa -24 + ^ x22: .cfa -32 + ^ x23: .cfa -40 + ^ x24: .cfa -48 + ^ x25: .cfa -56 + ^ x26: .cfa -64 + ^ x27: .cfa -72 + ^ x28: .cfa -80 + ^ .ra: .cfa -88 + ^ x29: .cfa -96 + ^ v8: .cfa -104 + ^ v9: .cfa -112 + ^
STACK CFI 72988 .cfa: sp 112 +
STACK CFI 729a4 .cfa: sp 0 +
STACK CFI 729a8 .cfa: x29 96 +
STACK CFI INIT 72a98 7b4 .cfa: sp 0 +
STACK CFI 72a9c .cfa: sp 96 +
STACK CFI 72ab4 .cfa: x29 96 + x19: .cfa -8 + ^ x20: .cfa -16 + ^ x21: .cfa -24 + ^ x22: .cfa -32 + ^ x23: .cfa -40 + ^ x24: .cfa -48 + ^ x25: .cfa -56 + ^ x26: .cfa -64 + ^ x27: .cfa -72 + ^ x28: .cfa -80 + ^ .ra: .cfa -88 + ^ x29: .cfa -96 + ^
STACK CFI 731cc .cfa: sp 96 +
STACK CFI 731e4 .cfa: sp 0 +
STACK CFI 731e8 .cfa: x29 96 +
STACK CFI INIT 7324c 91c .cfa: sp 0 +
STACK CFI 73250 .cfa: sp 96 +
STACK CFI 73268 .cfa: x29 96 + x19: .cfa -8 + ^ x20: .cfa -16 + ^ x21: .cfa -24 + ^ x22: .cfa -32 + ^ x23: .cfa -40 + ^ x24: .cfa -48 + ^ x25: .cfa -56 + ^ x26: .cfa -64 + ^ x27: .cfa -72 + ^ x28: .cfa -80 + ^ .ra: .cfa -88 + ^ x29: .cfa -96 + ^
STACK CFI 73a5c .cfa: sp 96 +
STACK CFI 73a74 .cfa: sp 0 +
STACK CFI 73a78 .cfa: x29 96 +
STACK CFI INIT 73b68 40 .cfa: sp 0 +
STACK CFI INIT 73ba8 60 .cfa: sp 0 +
STACK CFI INIT 73c08 b8 .cfa: sp 0 +
STACK CFI 73c0c .cfa: sp 64 +
STACK CFI 73c18 .cfa: x29 32 + x19: .cfa -8 + ^ x20: .cfa -16 + ^ .ra: .cfa -24 + ^ x29: .cfa -32 + ^
STACK CFI 73cac .cfa: sp 64 +
STACK CFI 73cb8 .cfa: sp 0 +
STACK CFI 73cbc .cfa: x29 32 +
STACK CFI INIT 73cc0 828 .cfa: sp 0 +
STACK CFI 73cc4 .cfa: sp 112 +
STACK CFI 73ce0 .cfa: x29 96 + x19: .cfa -8 + ^ x20: .cfa -16 + ^ x21: .cfa -24 + ^ x22: .cfa -32 + ^ x23: .cfa -40 + ^ x24: .cfa -48 + ^ x25: .cfa -56 + ^ x26: .cfa -64 + ^ x27: .cfa -72 + ^ x28: .cfa -80 + ^ .ra: .cfa -88 + ^ x29: .cfa -96 + ^ v8: .cfa -104 + ^ v9: .cfa -112 + ^
STACK CFI 7446c .cfa: sp 112 +
STACK CFI 74488 .cfa: sp 0 +
STACK CFI 7448c .cfa: x29 96 +
STACK CFI INIT 744e8 9fc .cfa: sp 0 +
STACK CFI 744ec .cfa: sp 112 +
STACK CFI 74508 .cfa: x29 96 + x19: .cfa -8 + ^ x20: .cfa -16 + ^ x21: .cfa -24 + ^ x22: .cfa -32 + ^ x23: .cfa -40 + ^ x24: .cfa -48 + ^ x25: .cfa -56 + ^ x26: .cfa -64 + ^ x27: .cfa -72 + ^ x28: .cfa -80 + ^ .ra: .cfa -88 + ^ x29: .cfa -96 + ^ v8: .cfa -104 + ^ v9: .cfa -112 + ^
STACK CFI 74d74 .cfa: sp 112 +
STACK CFI 74d90 .cfa: sp 0 +
STACK CFI 74d94 .cfa: x29 96 +
STACK CFI INIT 74ee4 7ec .cfa: sp 0 +
STACK CFI 74ee8 .cfa: sp 96 +
STACK CFI 74f00 .cfa: x29 96 + x19: .cfa -8 + ^ x20: .cfa -16 + ^ x21: .cfa -24 + ^ x22: .cfa -32 + ^ x23: .cfa -40 + ^ x24: .cfa -48 + ^ x25: .cfa -56 + ^ x26: .cfa -64 + ^ x27: .cfa -72 + ^ x28: .cfa -80 + ^ .ra: .cfa -88 + ^ x29: .cfa -96 + ^
STACK CFI 75658 .cfa: sp 96 +
STACK CFI 75670 .cfa: sp 0 +
STACK CFI 75674 .cfa: x29 96 +
STACK CFI INIT 756d0 9b8 .cfa: sp 0 +
STACK CFI 756d4 .cfa: sp 96 +
STACK CFI 756ec .cfa: x29 96 + x19: .cfa -8 + ^ x20: .cfa -16 + ^ x21: .cfa -24 + ^ x22: .cfa -32 + ^ x23: .cfa -40 + ^ x24: .cfa -48 + ^ x25: .cfa -56 + ^ x26: .cfa -64 + ^ x27: .cfa -72 + ^ x28: .cfa -80 + ^ .ra: .cfa -88 + ^ x29: .cfa -96 + ^
STACK CFI 75f20 .cfa: sp 96 +
STACK CFI 75f38 .cfa: sp 0 +
STACK CFI 75f3c .cfa: x29 96 +
STACK CFI INIT 76088 40 .cfa: sp 0 +
STACK CFI INIT 760c8 40 .cfa: sp 0 +
STACK CFI INIT 76108 1f8 .cfa: sp 0 +
STACK CFI INIT 76300 b0 .cfa: sp 0 +
STACK CFI 76304 .cfa: sp 48 +
STACK CFI 76310 .cfa: x29 48 + x19: .cfa -8 + ^ x20: .cfa -16 + ^ x21: .cfa -24 + ^ x22: .cfa -32 + ^ .ra: .cfa -40 + ^ x29: .cfa -48 + ^
STACK CFI 76344 .cfa: sp 48 +
STACK CFI 76350 .cfa: sp 0 +
STACK CFI 76354 .cfa: x29 48 +
STACK CFI 76398 .cfa: sp 48 +
STACK CFI 763a4 .cfa: sp 0 +
STACK CFI 763a8 .cfa: x29 48 +
STACK CFI INIT 763b0 b0 .cfa: sp 0 +
STACK CFI 763b4 .cfa: sp 48 +
STACK CFI 763c0 .cfa: x29 48 + x19: .cfa -8 + ^ x20: .cfa -16 + ^ x21: .cfa -24 + ^ x22: .cfa -32 + ^ .ra: .cfa -40 + ^ x29: .cfa -48 + ^
STACK CFI 763f4 .cfa: sp 48 +
STACK CFI 76400 .cfa: sp 0 +
STACK CFI 76404 .cfa: x29 48 +
STACK CFI 76448 .cfa: sp 48 +
STACK CFI 76454 .cfa: sp 0 +
STACK CFI 76458 .cfa: x29 48 +
STACK CFI INIT 76460 8 .cfa: sp 0 +
STACK CFI INIT 76468 278 .cfa: sp 0 +
STACK CFI INIT 766e0 1fc .cfa: sp 0 +
STACK CFI INIT 768dc 38c .cfa: sp 0 +
STACK CFI 76958 .cfa: sp 80 +
STACK CFI 76968 x19: .cfa -8 + ^ x20: .cfa -16 + ^ x21: .cfa -24 + ^ x22: .cfa -32 + ^ x23: .cfa -40 + ^ x24: .cfa -48 + ^ x25: .cfa -56 + ^ x26: .cfa -64 + ^ x27: .cfa -72 + ^ x28: .cfa -80 + ^
STACK CFI 76be0 .cfa: sp 0 +
STACK CFI 76c24 .cfa: sp 80 +
STACK CFI 76c64 .cfa: sp 0 +
STACK CFI INIT 76c68 30c .cfa: sp 0 +
STACK CFI INIT 76f74 358 .cfa: sp 0 +
STACK CFI INIT 772cc 3a4 .cfa: sp 0 +
STACK CFI 772d0 .cfa: sp 64 +
STACK CFI 772e0 .cfa: x29 48 + x19: .cfa -8 + ^ x20: .cfa -16 + ^ x21: .cfa -24 + ^ x22: .cfa -32 + ^ .ra: .cfa -40 + ^ x29: .cfa -48 + ^
STACK CFI 77550 .cfa: sp 64 +
STACK CFI 77560 .cfa: sp 0 +
STACK CFI 77564 .cfa: x29 48 +
STACK CFI INIT 77670 408 .cfa: sp 0 +
STACK CFI 77674 .cfa: sp 96 +
STACK CFI 7768c .cfa: x29 80 + x19: .cfa -8 + ^ x20: .cfa -16 + ^ x21: .cfa -24 + ^ x22: .cfa -32 + ^ x23: .cfa -40 + ^ x24: .cfa -48 + ^ x25: .cfa -56 + ^ x26: .cfa -64 + ^ .ra: .cfa -72 + ^ x29: .cfa -80 + ^
STACK CFI 77a58 .cfa: sp 96 +
STACK CFI 77a70 .cfa: sp 0 +
STACK CFI 77a74 .cfa: x29 80 +
STACK CFI INIT 77a78 4c .cfa: sp 0 +
STACK CFI 77a7c .cfa: sp 32 +
STACK CFI 77a84 .cfa: x29 32 + x19: .cfa -8 + ^ x20: .cfa -16 + ^ .ra: .cfa -24 + ^ x29: .cfa -32 + ^
STACK CFI 77aac .cfa: sp 32 +
STACK CFI 77ab4 .cfa: sp 0 +
STACK CFI 77ab8 .cfa: sp 32 +
STACK CFI 77ac0 .cfa: sp 0 +
STACK CFI INIT 77ce4 64 .cfa: sp 0 +
STACK CFI 77ce8 .cfa: sp 32 +
STACK CFI 77cf0 .cfa: x29 32 + x19: .cfa -16 + ^ .ra: .cfa -24 + ^ x29: .cfa -32 + ^
STACK CFI 77d1c .cfa: sp 32 +
STACK CFI 77d24 .cfa: sp 0 +
STACK CFI 77d28 .cfa: x29 32 +
STACK CFI 77d3c .cfa: sp 32 +
STACK CFI 77d44 .cfa: sp 0 +
STACK CFI INIT 77d48 24 .cfa: sp 0 +
STACK CFI 77d4c .cfa: sp 32 +
STACK CFI 77d54 .cfa: x29 32 + x19: .cfa -16 + ^ .ra: .cfa -24 + ^ x29: .cfa -32 + ^
STACK CFI 77d60 .cfa: sp 32 +
STACK CFI 77d68 .cfa: sp 0 +
STACK CFI INIT 77fc8 24 .cfa: sp 0 +
STACK CFI 77fcc .cfa: sp 32 +
STACK CFI 77fd4 .cfa: x29 32 + x19: .cfa -16 + ^ .ra: .cfa -24 + ^ x29: .cfa -32 + ^
STACK CFI 77fe0 .cfa: sp 32 +
STACK CFI 77fe8 .cfa: sp 0 +
STACK CFI INIT 78258 24 .cfa: sp 0 +
STACK CFI 7825c .cfa: sp 32 +
STACK CFI 78264 .cfa: x29 32 + x19: .cfa -16 + ^ .ra: .cfa -24 + ^ x29: .cfa -32 + ^
STACK CFI 78270 .cfa: sp 32 +
STACK CFI 78278 .cfa: sp 0 +
STACK CFI INIT 7827c 8 .cfa: sp 0 +
STACK CFI INIT 78284 24 .cfa: sp 0 +
STACK CFI 78288 .cfa: sp 32 +
STACK CFI 78290 .cfa: x29 32 + x19: .cfa -16 + ^ .ra: .cfa -24 + ^ x29: .cfa -32 + ^
STACK CFI 7829c .cfa: sp 32 +
STACK CFI 782a4 .cfa: sp 0 +
STACK CFI INIT 782a8 28 .cfa: sp 0 +
STACK CFI 782ac .cfa: sp 32 +
STACK CFI 782b4 .cfa: x29 32 + x19: .cfa -16 + ^ .ra: .cfa -24 + ^ x29: .cfa -32 + ^
STACK CFI 782c4 .cfa: sp 32 +
STACK CFI 782cc .cfa: sp 0 +
STACK CFI INIT 785d0 8 .cfa: sp 0 +
STACK CFI INIT 785d8 24 .cfa: sp 0 +
STACK CFI 785dc .cfa: sp 32 +
STACK CFI 785e4 .cfa: x29 32 + x19: .cfa -16 + ^ .ra: .cfa -24 + ^ x29: .cfa -32 + ^
STACK CFI 785f0 .cfa: sp 32 +
STACK CFI 785f8 .cfa: sp 0 +
STACK CFI INIT 785fc 28 .cfa: sp 0 +
STACK CFI 78600 .cfa: sp 32 +
STACK CFI 78608 .cfa: x29 32 + x19: .cfa -16 + ^ .ra: .cfa -24 + ^ x29: .cfa -32 + ^
STACK CFI 78618 .cfa: sp 32 +
STACK CFI 78620 .cfa: sp 0 +
STACK CFI INIT 78888 8 .cfa: sp 0 +
STACK CFI INIT 78890 24 .cfa: sp 0 +
STACK CFI 78894 .cfa: sp 32 +
STACK CFI 7889c .cfa: x29 32 + x19: .cfa -16 + ^ .ra: .cfa -24 + ^ x29: .cfa -32 + ^
STACK CFI 788a8 .cfa: sp 32 +
STACK CFI 788b0 .cfa: sp 0 +
STACK CFI INIT 788b4 28 .cfa: sp 0 +
STACK CFI 788b8 .cfa: sp 32 +
STACK CFI 788c0 .cfa: x29 32 + x19: .cfa -16 + ^ .ra: .cfa -24 + ^ x29: .cfa -32 + ^
STACK CFI 788d0 .cfa: sp 32 +
STACK CFI 788d8 .cfa: sp 0 +
STACK CFI INIT 78b4c 24 .cfa: sp 0 +
STACK CFI 78b50 .cfa: sp 32 +
STACK CFI 78b58 .cfa: x29 32 + x19: .cfa -16 + ^ .ra: .cfa -24 + ^ x29: .cfa -32 + ^
STACK CFI 78b64 .cfa: sp 32 +
STACK CFI 78b6c .cfa: sp 0 +
STACK CFI INIT 79228 24 .cfa: sp 0 +
STACK CFI 7922c .cfa: sp 32 +
STACK CFI 79234 .cfa: x29 32 + x19: .cfa -16 + ^ .ra: .cfa -24 + ^ x29: .cfa -32 + ^
STACK CFI 79240 .cfa: sp 32 +
STACK CFI 79248 .cfa: sp 0 +
STACK CFI INIT 7924c 9c .cfa: sp 0 +
STACK CFI 79250 .cfa: sp 32 +
STACK CFI 79258 .cfa: x29 32 + x19: .cfa -16 + ^ .ra: .cfa -24 + ^ x29: .cfa -32 + ^
STACK CFI 792dc .cfa: sp 32 +
STACK CFI 792e4 .cfa: sp 0 +
STACK CFI INIT 792e8 8 .cfa: sp 0 +
STACK CFI INIT 792f0 24 .cfa: sp 0 +
STACK CFI 792f4 .cfa: sp 32 +
STACK CFI 792fc .cfa: x29 32 + x19: .cfa -16 + ^ .ra: .cfa -24 + ^ x29: .cfa -32 + ^
STACK CFI 79308 .cfa: sp 32 +
STACK CFI 79310 .cfa: sp 0 +
STACK CFI INIT 79314 28 .cfa: sp 0 +
STACK CFI 79318 .cfa: sp 32 +
STACK CFI 79320 .cfa: x29 32 + x19: .cfa -16 + ^ .ra: .cfa -24 + ^ x29: .cfa -32 + ^
STACK CFI 79330 .cfa: sp 32 +
STACK CFI 79338 .cfa: sp 0 +
STACK CFI INIT 795f4 28 .cfa: sp 0 +
STACK CFI INIT 7961c 14 .cfa: sp 0 +
STACK CFI INIT 79630 18 .cfa: sp 0 +
STACK CFI 79634 .cfa: sp 16 +
STACK CFI 79638 .cfa: x29 16 + .ra: .cfa -8 + ^ x29: .cfa -16 + ^
STACK CFI 79640 .cfa: sp 16 +
STACK CFI 79644 .cfa: sp 0 +
STACK CFI INIT 79648 4 .cfa: sp 0 +
STACK CFI INIT 7a7ec 4 .cfa: sp 0 +
STACK CFI INIT 7a7f0 14 .cfa: sp 0 +
STACK CFI INIT 7ad10 c .cfa: sp 0 +
STACK CFI INIT 7ad1c 24c .cfa: sp 0 +
STACK CFI INIT 7af68 a0 .cfa: sp 0 +
STACK CFI 7af74 .cfa: sp 32 +
STACK CFI 7afcc .cfa: sp 0 +
STACK CFI 7afd0 .cfa: sp 32 +
STACK CFI 7afd8 .cfa: sp 0 +
STACK CFI 7afdc .cfa: sp 32 +
STACK CFI 7aff0 .cfa: sp 0 +
STACK CFI 7aff4 .cfa: sp 32 +
STACK CFI 7b004 .cfa: sp 0 +
STACK CFI INIT 7b008 38 .cfa: sp 0 +
STACK CFI 7b014 .cfa: sp 32 +
STACK CFI 7b03c .cfa: sp 0 +
STACK CFI INIT 7b2d4 7c .cfa: sp 0 +
STACK CFI 7b2d8 .cfa: sp 32 +
STACK CFI 7b2e0 .cfa: x29 32 + x19: .cfa -16 + ^ .ra: .cfa -24 + ^ x29: .cfa -32 + ^
STACK CFI 7b30c .cfa: sp 32 +
STACK CFI 7b314 .cfa: sp 0 +
STACK CFI 7b318 .cfa: x29 32 +
STACK CFI 7b344 .cfa: sp 32 +
STACK CFI 7b34c .cfa: sp 0 +
STACK CFI INIT 7b3a0 2c .cfa: sp 0 +
STACK CFI 7b3a4 .cfa: sp 32 +
STACK CFI 7b3ac .cfa: x29 32 + x19: .cfa -16 + ^ .ra: .cfa -24 + ^ x29: .cfa -32 + ^
STACK CFI 7b3c0 .cfa: sp 32 +
STACK CFI 7b3c8 .cfa: sp 0 +
STACK CFI INIT 7bb8c 64 .cfa: sp 0 +
STACK CFI 7bb90 .cfa: sp 32 +
STACK CFI 7bb98 .cfa: x29 32 + x19: .cfa -16 + ^ .ra: .cfa -24 + ^ x29: .cfa -32 + ^
STACK CFI 7bbb4 .cfa: sp 32 +
STACK CFI 7bbbc .cfa: sp 0 +
STACK CFI 7bbc0 .cfa: x29 32 +
STACK CFI 7bbe4 .cfa: sp 32 +
STACK CFI 7bbec .cfa: sp 0 +
STACK CFI INIT 7bd3c 570 .cfa: sp 0 +
STACK CFI 7bd40 .cfa: sp 176 +
STACK CFI 7bd54 .cfa: x29 64 + x19: .cfa -8 + ^ x20: .cfa -16 + ^ x21: .cfa -24 + ^ x22: .cfa -32 + ^ x23: .cfa -40 + ^ x24: .cfa -48 + ^ .ra: .cfa -56 + ^ x29: .cfa -64 + ^
STACK CFI 7bf84 .cfa: sp 176 +
STACK CFI 7bf98 .cfa: sp 0 +
STACK CFI 7bf9c .cfa: x29 64 +
STACK CFI 7bfe8 .cfa: sp 176 +
STACK CFI 7bffc .cfa: sp 0 +
STACK CFI 7c000 .cfa: x29 64 +
STACK CFI 7c038 .cfa: sp 176 +
STACK CFI 7c04c .cfa: sp 0 +
STACK CFI 7c050 .cfa: x29 64 +
STACK CFI 7c068 .cfa: sp 176 +
STACK CFI 7c07c .cfa: sp 0 +
STACK CFI 7c080 .cfa: x29 64 +
STACK CFI 7c0a0 .cfa: sp 176 +
STACK CFI 7c0b4 .cfa: sp 0 +
STACK CFI 7c0b8 .cfa: x29 64 +
STACK CFI 7c0d0 .cfa: sp 176 +
STACK CFI 7c0e4 .cfa: sp 0 +
STACK CFI 7c0e8 .cfa: x29 64 +
STACK CFI 7c0fc .cfa: sp 176 +
STACK CFI 7c110 .cfa: sp 0 +
STACK CFI 7c114 .cfa: x29 64 +
STACK CFI 7c128 .cfa: sp 176 +
STACK CFI 7c13c .cfa: sp 0 +
STACK CFI 7c140 .cfa: x29 64 +
STACK CFI 7c150 .cfa: sp 176 +
STACK CFI 7c164 .cfa: sp 0 +
STACK CFI 7c168 .cfa: x29 64 +
STACK CFI 7c178 .cfa: sp 176 +
STACK CFI 7c18c .cfa: sp 0 +
STACK CFI 7c190 .cfa: x29 64 +
STACK CFI 7c1a8 .cfa: sp 176 +
STACK CFI 7c1bc .cfa: sp 0 +
STACK CFI 7c1c0 .cfa: x29 64 +
STACK CFI 7c1d4 .cfa: sp 176 +
STACK CFI 7c1e8 .cfa: sp 0 +
STACK CFI 7c1ec .cfa: x29 64 +
STACK CFI 7c204 .cfa: sp 176 +
STACK CFI 7c218 .cfa: sp 0 +
STACK CFI 7c21c .cfa: x29 64 +
STACK CFI 7c248 .cfa: sp 176 +
STACK CFI 7c25c .cfa: sp 0 +
STACK CFI 7c260 .cfa: x29 64 +
STACK CFI 7c274 .cfa: sp 176 +
STACK CFI 7c288 .cfa: sp 0 +
STACK CFI 7c28c .cfa: x29 64 +
STACK CFI INIT 7c2ac 228 .cfa: sp 0 +
STACK CFI INIT 7c4d4 2dc .cfa: sp 0 +
STACK CFI INIT 7c7b0 53c .cfa: sp 0 +
STACK CFI INIT 7ccec 78 .cfa: sp 0 +
STACK CFI 7ccf0 .cfa: sp 48 +
STACK CFI 7ccfc .cfa: x29 48 + x19: .cfa -8 + ^ x20: .cfa -16 + ^ x21: .cfa -24 + ^ x22: .cfa -32 + ^ .ra: .cfa -40 + ^ x29: .cfa -48 + ^
STACK CFI 7cd44 .cfa: sp 48 +
STACK CFI 7cd50 .cfa: sp 0 +
STACK CFI 7cd54 .cfa: sp 48 +
STACK CFI 7cd60 .cfa: sp 0 +
STACK CFI INIT 7cd64 8c .cfa: sp 0 +
STACK CFI 7cd68 .cfa: sp 32 +
STACK CFI 7cd70 .cfa: x29 32 + x19: .cfa -16 + ^ .ra: .cfa -24 + ^ x29: .cfa -32 + ^
STACK CFI 7cda4 .cfa: sp 32 +
STACK CFI 7cdac .cfa: sp 0 +
STACK CFI 7cdb0 .cfa: x29 32 +
STACK CFI 7cde4 .cfa: sp 32 +
STACK CFI 7cdec .cfa: sp 0 +
STACK CFI INIT 7cdf0 24 .cfa: sp 0 +
STACK CFI 7cdf4 .cfa: sp 32 +
STACK CFI 7cdfc .cfa: x29 32 + x19: .cfa -16 + ^ .ra: .cfa -24 + ^ x29: .cfa -32 + ^
STACK CFI 7ce08 .cfa: sp 32 +
STACK CFI 7ce10 .cfa: sp 0 +
STACK CFI INIT 7ce14 150 .cfa: sp 0 +
STACK CFI 7ce18 .cfa: sp 48 +
STACK CFI 7ce24 .cfa: x29 48 + x19: .cfa -8 + ^ x20: .cfa -16 + ^ x21: .cfa -24 + ^ x22: .cfa -32 + ^ .ra: .cfa -40 + ^ x29: .cfa -48 + ^
STACK CFI 7cf54 .cfa: sp 48 +
STACK CFI 7cf60 .cfa: sp 0 +
STACK CFI INIT 7cf64 68 .cfa: sp 0 +
STACK CFI 7cf68 .cfa: sp 64 +
STACK CFI 7cf74 .cfa: x29 32 + x19: .cfa -16 + ^ .ra: .cfa -24 + ^ x29: .cfa -32 + ^
STACK CFI 7cfb8 .cfa: sp 64 +
STACK CFI 7cfc4 .cfa: sp 0 +
STACK CFI 7cfc8 .cfa: x29 32 +
STACK CFI INIT 7cfcc 90 .cfa: sp 0 +
STACK CFI 7cfd0 .cfa: sp 32 +
STACK CFI 7cfd8 .cfa: x29 32 + x19: .cfa -8 + ^ x20: .cfa -16 + ^ .ra: .cfa -24 + ^ x29: .cfa -32 + ^
STACK CFI 7d004 .cfa: sp 32 +
STACK CFI 7d00c .cfa: sp 0 +
STACK CFI 7d010 .cfa: x29 32 +
STACK CFI 7d050 .cfa: sp 32 +
STACK CFI 7d058 .cfa: sp 0 +
STACK CFI INIT 7d05c ec .cfa: sp 0 +
STACK CFI 7d060 .cfa: sp 112 +
STACK CFI 7d070 .cfa: x29 48 + x19: .cfa -8 + ^ x20: .cfa -16 + ^ x21: .cfa -32 + ^ .ra: .cfa -40 + ^ x29: .cfa -48 + ^
STACK CFI 7d130 .cfa: sp 112 +
STACK CFI 7d140 .cfa: sp 0 +
STACK CFI 7d144 .cfa: x29 48 +
STACK CFI INIT 7d148 ec .cfa: sp 0 +
STACK CFI 7d14c .cfa: sp 112 +
STACK CFI 7d15c .cfa: x29 48 + x19: .cfa -8 + ^ x20: .cfa -16 + ^ x21: .cfa -32 + ^ .ra: .cfa -40 + ^ x29: .cfa -48 + ^
STACK CFI 7d21c .cfa: sp 112 +
STACK CFI 7d22c .cfa: sp 0 +
STACK CFI 7d230 .cfa: x29 48 +
STACK CFI INIT 7d234 48 .cfa: sp 0 +
STACK CFI 7d238 .cfa: sp 32 +
STACK CFI 7d240 .cfa: x29 32 + x19: .cfa -8 + ^ x20: .cfa -16 + ^ .ra: .cfa -24 + ^ x29: .cfa -32 + ^
STACK CFI 7d264 .cfa: sp 32 +
STACK CFI 7d26c .cfa: sp 0 +
STACK CFI 7d270 .cfa: x29 32 +
STACK CFI INIT 7d27c 98 .cfa: sp 0 +
STACK CFI 7d280 .cfa: sp 80 +
STACK CFI 7d28c .cfa: x29 32 + x19: .cfa -16 + ^ .ra: .cfa -24 + ^ x29: .cfa -32 + ^
STACK CFI 7d300 .cfa: sp 80 +
STACK CFI 7d30c .cfa: sp 0 +
STACK CFI 7d310 .cfa: x29 32 +
STACK CFI INIT 7d314 260 .cfa: sp 0 +
STACK CFI 7d318 .cfa: sp 112 +
STACK CFI 7d330 .cfa: x29 80 + x19: .cfa -8 + ^ x20: .cfa -16 + ^ x21: .cfa -24 + ^ x22: .cfa -32 + ^ x23: .cfa -40 + ^ x24: .cfa -48 + ^ x25: .cfa -64 + ^ .ra: .cfa -72 + ^ x29: .cfa -80 + ^
STACK CFI 7d514 .cfa: sp 112 +
STACK CFI 7d52c .cfa: sp 0 +
STACK CFI 7d530 .cfa: x29 80 +
STACK CFI INIT 7d574 150 .cfa: sp 0 +
STACK CFI 7d578 .cfa: sp 48 +
STACK CFI 7d584 .cfa: x29 48 + x19: .cfa -8 + ^ x20: .cfa -16 + ^ x21: .cfa -24 + ^ x22: .cfa -32 + ^ .ra: .cfa -40 + ^ x29: .cfa -48 + ^
STACK CFI 7d6b4 .cfa: sp 48 +
STACK CFI 7d6c0 .cfa: sp 0 +
STACK CFI INIT 7d6c4 1e0 .cfa: sp 0 +
STACK CFI 7d6c8 .cfa: sp 96 +
STACK CFI 7d6dc .cfa: x29 64 + x19: .cfa -8 + ^ x20: .cfa -16 + ^ x21: .cfa -24 + ^ x22: .cfa -32 + ^ x23: .cfa -40 + ^ x24: .cfa -48 + ^ .ra: .cfa -56 + ^ x29: .cfa -64 + ^
STACK CFI 7d85c .cfa: sp 96 +
STACK CFI 7d870 .cfa: sp 0 +
STACK CFI 7d874 .cfa: x29 64 +
STACK CFI INIT 7d8a4 284 .cfa: sp 0 +
STACK CFI 7d8a8 .cfa: sp 112 +
STACK CFI 7d8c0 .cfa: x29 80 + x19: .cfa -8 + ^ x20: .cfa -16 + ^ x21: .cfa -24 + ^ x22: .cfa -32 + ^ x23: .cfa -40 + ^ x24: .cfa -48 + ^ x25: .cfa -64 + ^ .ra: .cfa -72 + ^ x29: .cfa -80 + ^
STACK CFI 7dac8 .cfa: sp 112 +
STACK CFI 7dae0 .cfa: sp 0 +
STACK CFI 7dae4 .cfa: x29 80 +
STACK CFI INIT 7db28 208 .cfa: sp 0 +
STACK CFI 7db2c .cfa: sp 96 +
STACK CFI 7db40 .cfa: x29 64 + x19: .cfa -8 + ^ x20: .cfa -16 + ^ x21: .cfa -24 + ^ x22: .cfa -32 + ^ x23: .cfa -40 + ^ x24: .cfa -48 + ^ .ra: .cfa -56 + ^ x29: .cfa -64 + ^
STACK CFI 7dce8 .cfa: sp 96 +
STACK CFI 7dcfc .cfa: sp 0 +
STACK CFI 7dd00 .cfa: x29 64 +
STACK CFI INIT 7dd30 360 .cfa: sp 0 +
STACK CFI 7dd34 .cfa: sp 160 +
STACK CFI 7dd50 .cfa: x29 96 + x19: .cfa -8 + ^ x20: .cfa -16 + ^ x21: .cfa -24 + ^ x22: .cfa -32 + ^ x23: .cfa -40 + ^ x24: .cfa -48 + ^ x25: .cfa -56 + ^ x26: .cfa -64 + ^ x27: .cfa -72 + ^ x28: .cfa -80 + ^ .ra: .cfa -88 + ^ x29: .cfa -96 + ^
STACK CFI 7e01c .cfa: sp 160 +
STACK CFI 7e038 .cfa: sp 0 +
STACK CFI 7e03c .cfa: x29 96 +
STACK CFI INIT 7e090 314 .cfa: sp 0 +
STACK CFI 7e094 .cfa: sp 144 +
STACK CFI 7e0b0 .cfa: x29 96 + x19: .cfa -8 + ^ x20: .cfa -16 + ^ x21: .cfa -24 + ^ x22: .cfa -32 + ^ x23: .cfa -40 + ^ x24: .cfa -48 + ^ x25: .cfa -56 + ^ x26: .cfa -64 + ^ x27: .cfa -72 + ^ x28: .cfa -80 + ^ .ra: .cfa -88 + ^ x29: .cfa -96 + ^
STACK CFI 7e32c .cfa: sp 144 +
STACK CFI 7e348 .cfa: sp 0 +
STACK CFI 7e34c .cfa: x29 96 +
STACK CFI INIT 7e3a4 290 .cfa: sp 0 +
STACK CFI 7e3a8 .cfa: sp 128 +
STACK CFI 7e3c0 .cfa: x29 80 + x19: .cfa -8 + ^ x20: .cfa -16 + ^ x21: .cfa -24 + ^ x22: .cfa -32 + ^ x23: .cfa -40 + ^ x24: .cfa -48 + ^ x25: .cfa -56 + ^ x26: .cfa -64 + ^ .ra: .cfa -72 + ^ x29: .cfa -80 + ^
STACK CFI 7e614 .cfa: sp 128 +
STACK CFI 7e62c .cfa: sp 0 +
STACK CFI 7e630 .cfa: x29 80 +
STACK CFI INIT 7e634 dc8 .cfa: sp 0 +
STACK CFI 7e638 .cfa: sp 144 +
STACK CFI 7e654 .cfa: x29 96 + x19: .cfa -8 + ^ x20: .cfa -16 + ^ x21: .cfa -24 + ^ x22: .cfa -32 + ^ x23: .cfa -40 + ^ x24: .cfa -48 + ^ x25: .cfa -56 + ^ x26: .cfa -64 + ^ x27: .cfa -72 + ^ x28: .cfa -80 + ^ .ra: .cfa -88 + ^ x29: .cfa -96 + ^
STACK CFI 7f2d4 .cfa: sp 144 +
STACK CFI 7f2f0 .cfa: sp 0 +
STACK CFI 7f2f4 .cfa: x29 96 +
STACK CFI INIT 7f3fc 1d0 .cfa: sp 0 +
STACK CFI 7f400 .cfa: sp 80 +
STACK CFI 7f414 .cfa: x29 80 + x19: .cfa -8 + ^ x20: .cfa -16 + ^ x21: .cfa -24 + ^ x22: .cfa -32 + ^ x23: .cfa -40 + ^ x24: .cfa -48 + ^ x25: .cfa -64 + ^ .ra: .cfa -72 + ^ x29: .cfa -80 + ^
STACK CFI 7f5b4 .cfa: sp 80 +
STACK CFI 7f5c8 .cfa: sp 0 +
STACK CFI INIT 7f5cc 23c .cfa: sp 0 +
STACK CFI 7f5d0 .cfa: sp 112 +
STACK CFI 7f5e4 .cfa: x29 64 + x19: .cfa -8 + ^ x20: .cfa -16 + ^ x21: .cfa -24 + ^ x22: .cfa -32 + ^ x23: .cfa -40 + ^ x24: .cfa -48 + ^ .ra: .cfa -56 + ^ x29: .cfa -64 + ^
STACK CFI 7f7c0 .cfa: sp 112 +
STACK CFI 7f7d4 .cfa: sp 0 +
STACK CFI 7f7d8 .cfa: x29 64 +
STACK CFI INIT 7f808 30c .cfa: sp 0 +
STACK CFI 7f80c .cfa: sp 80 +
STACK CFI 7f820 .cfa: x29 64 + x19: .cfa -8 + ^ x20: .cfa -16 + ^ x21: .cfa -24 + ^ x22: .cfa -32 + ^ x23: .cfa -40 + ^ x24: .cfa -48 + ^ .ra: .cfa -56 + ^ x29: .cfa -64 + ^
STACK CFI 7f99c .cfa: sp 80 +
STACK CFI 7f9b0 .cfa: sp 0 +
STACK CFI 7f9b4 .cfa: x29 64 +
STACK CFI INIT 7fb14 178 .cfa: sp 0 +
STACK CFI 7fb18 .cfa: sp 80 +
STACK CFI 7fb2c .cfa: x29 64 + x19: .cfa -8 + ^ x20: .cfa -16 + ^ x21: .cfa -24 + ^ x22: .cfa -32 + ^ x23: .cfa -40 + ^ x24: .cfa -48 + ^ .ra: .cfa -56 + ^ x29: .cfa -64 + ^
STACK CFI 7fc70 .cfa: sp 80 +
STACK CFI 7fc84 .cfa: sp 0 +
STACK CFI 7fc88 .cfa: x29 64 +
STACK CFI INIT 7fc8c 178 .cfa: sp 0 +
STACK CFI 7fc90 .cfa: sp 80 +
STACK CFI 7fca4 .cfa: x29 64 + x19: .cfa -8 + ^ x20: .cfa -16 + ^ x21: .cfa -24 + ^ x22: .cfa -32 + ^ x23: .cfa -40 + ^ x24: .cfa -48 + ^ .ra: .cfa -56 + ^ x29: .cfa -64 + ^
STACK CFI 7fde8 .cfa: sp 80 +
STACK CFI 7fdfc .cfa: sp 0 +
STACK CFI 7fe00 .cfa: x29 64 +
STACK CFI INIT 7fe04 240 .cfa: sp 0 +
STACK CFI 7fe08 .cfa: sp 96 +
STACK CFI 7fe20 .cfa: x29 96 + x19: .cfa -8 + ^ x20: .cfa -16 + ^ x21: .cfa -24 + ^ x22: .cfa -32 + ^ x23: .cfa -40 + ^ x24: .cfa -48 + ^ x25: .cfa -56 + ^ x26: .cfa -64 + ^ x27: .cfa -72 + ^ x28: .cfa -80 + ^ .ra: .cfa -88 + ^ x29: .cfa -96 + ^
STACK CFI 80028 .cfa: sp 96 +
STACK CFI 80040 .cfa: sp 0 +
STACK CFI INIT 80cb8 154 .cfa: sp 0 +
STACK CFI 80cbc .cfa: sp 96 +
STACK CFI 80cd0 .cfa: x29 64 + x19: .cfa -8 + ^ x20: .cfa -16 + ^ x21: .cfa -24 + ^ x22: .cfa -32 + ^ x23: .cfa -48 + ^ .ra: .cfa -56 + ^ x29: .cfa -64 + ^
STACK CFI 80db0 .cfa: sp 96 +
STACK CFI 80dc4 .cfa: sp 0 +
STACK CFI 80dc8 .cfa: x29 64 +
STACK CFI INIT 81074 44 .cfa: sp 0 +
STACK CFI 81078 .cfa: sp 32 +
STACK CFI 81080 .cfa: x29 32 + x19: .cfa -16 + ^ .ra: .cfa -24 + ^ x29: .cfa -32 + ^
STACK CFI 8109c .cfa: sp 32 +
STACK CFI 810a4 .cfa: sp 0 +
STACK CFI 810a8 .cfa: x29 32 +
STACK CFI 810ac .cfa: sp 32 +
STACK CFI 810b4 .cfa: sp 0 +
STACK CFI INIT 810b8 1d0 .cfa: sp 0 +
STACK CFI 810bc .cfa: sp 64 +
STACK CFI 810cc .cfa: x29 64 + x19: .cfa -8 + ^ x20: .cfa -16 + ^ x21: .cfa -24 + ^ x22: .cfa -32 + ^ x23: .cfa -40 + ^ x24: .cfa -48 + ^ .ra: .cfa -56 + ^ x29: .cfa -64 + ^
STACK CFI 8118c .cfa: sp 64 +
STACK CFI 8119c .cfa: sp 0 +
STACK CFI 811a0 .cfa: x29 64 +
STACK CFI INIT 81288 17c .cfa: sp 0 +
STACK CFI INIT 817bc a0 .cfa: sp 0 +
STACK CFI 817c0 .cfa: sp 48 +
STACK CFI 817cc .cfa: x29 48 + x19: .cfa -8 + ^ x20: .cfa -16 + ^ x21: .cfa -24 + ^ x22: .cfa -32 + ^ .ra: .cfa -40 + ^ x29: .cfa -48 + ^
STACK CFI 81838 .cfa: sp 48 +
STACK CFI 81844 .cfa: sp 0 +
STACK CFI 81848 .cfa: sp 48 +
STACK CFI 81854 .cfa: sp 0 +
STACK CFI 81858 .cfa: x29 48 +
STACK CFI INIT 8250c 158 .cfa: sp 0 +
STACK CFI 82510 .cfa: sp 96 +
STACK CFI 82524 .cfa: x29 64 + x19: .cfa -8 + ^ x20: .cfa -16 + ^ x21: .cfa -24 + ^ x22: .cfa -32 + ^ x23: .cfa -48 + ^ .ra: .cfa -56 + ^ x29: .cfa -64 + ^
STACK CFI 82608 .cfa: sp 96 +
STACK CFI 8261c .cfa: sp 0 +
STACK CFI 82620 .cfa: x29 64 +
STACK CFI INIT 82664 190 .cfa: sp 0 +
STACK CFI INIT 832d8 1dc .cfa: sp 0 +
STACK CFI 832dc .cfa: sp 80 +
STACK CFI 832f0 .cfa: x29 80 + x19: .cfa -8 + ^ x20: .cfa -16 + ^ x21: .cfa -24 + ^ x22: .cfa -32 + ^ x23: .cfa -40 + ^ x24: .cfa -48 + ^ x25: .cfa -64 + ^ .ra: .cfa -72 + ^ x29: .cfa -80 + ^
STACK CFI 8349c .cfa: sp 80 +
STACK CFI 834b0 .cfa: sp 0 +
STACK CFI INIT 848d8 124 .cfa: sp 0 +
STACK CFI 84908 .cfa: sp 32 +
STACK CFI 84910 .cfa: x29 32 + x19: .cfa -8 + ^ x20: .cfa -16 + ^ .ra: .cfa -24 + ^ x29: .cfa -32 + ^
STACK CFI 849f0 .cfa: sp 32 +
STACK CFI 849f8 .cfa: sp 0 +
STACK CFI INIT 85158 324 .cfa: sp 0 +
STACK CFI 8515c .cfa: sp 64 +
STACK CFI 8516c .cfa: x29 64 + x19: .cfa -8 + ^ x20: .cfa -16 + ^ x21: .cfa -24 + ^ x22: .cfa -32 + ^ x23: .cfa -40 + ^ x24: .cfa -48 + ^ .ra: .cfa -56 + ^ x29: .cfa -64 + ^
STACK CFI 851e8 .cfa: sp 64 +
STACK CFI 851f8 .cfa: sp 0 +
STACK CFI 851fc .cfa: x29 64 +
STACK CFI 853d4 .cfa: sp 64 +
STACK CFI 853e4 .cfa: sp 0 +
STACK CFI 853e8 .cfa: x29 64 +
STACK CFI 853f8 .cfa: sp 64 +
STACK CFI 85408 .cfa: sp 0 +
STACK CFI 8540c .cfa: x29 64 +
STACK CFI INIT 8547c a0 .cfa: sp 0 +
STACK CFI 85480 .cfa: sp 48 +
STACK CFI 8548c .cfa: x29 48 + x19: .cfa -8 + ^ x20: .cfa -16 + ^ x21: .cfa -24 + ^ x22: .cfa -32 + ^ .ra: .cfa -40 + ^ x29: .cfa -48 + ^
STACK CFI 854f8 .cfa: sp 48 +
STACK CFI 85504 .cfa: sp 0 +
STACK CFI 85508 .cfa: sp 48 +
STACK CFI 85514 .cfa: sp 0 +
STACK CFI 85518 .cfa: x29 48 +
STACK CFI INIT 863c8 160 .cfa: sp 0 +
STACK CFI 863cc .cfa: sp 64 +
STACK CFI 863dc .cfa: x29 64 + x19: .cfa -8 + ^ x20: .cfa -16 + ^ x21: .cfa -24 + ^ x22: .cfa -32 + ^ x23: .cfa -48 + ^ .ra: .cfa -56 + ^ x29: .cfa -64 + ^
STACK CFI 864d4 .cfa: sp 64 +
STACK CFI 864e4 .cfa: sp 0 +
STACK CFI 864e8 .cfa: x29 64 +
STACK CFI INIT 86528 214 .cfa: sp 0 +
STACK CFI 8652c .cfa: sp 128 +
STACK CFI 86548 .cfa: x29 96 + x19: .cfa -8 + ^ x20: .cfa -16 + ^ x21: .cfa -24 + ^ x22: .cfa -32 + ^ x23: .cfa -40 + ^ x24: .cfa -48 + ^ x25: .cfa -56 + ^ x26: .cfa -64 + ^ x27: .cfa -80 + ^ .ra: .cfa -88 + ^ x29: .cfa -96 + ^
STACK CFI 866c4 .cfa: sp 128 +
STACK CFI 866e0 .cfa: sp 0 +
STACK CFI 866e4 .cfa: x29 96 +
STACK CFI INIT 883a0 290 .cfa: sp 0 +
STACK CFI 883a4 .cfa: sp 16 +
STACK CFI 883a8 .cfa: x29 16 + .ra: .cfa -8 + ^ x29: .cfa -16 + ^
STACK CFI 88434 .cfa: sp 16 +
STACK CFI 88438 .cfa: sp 0 +
STACK CFI 8843c .cfa: x29 16 +
STACK CFI 8848c .cfa: sp 16 +
STACK CFI 88490 .cfa: sp 0 +
STACK CFI 88494 .cfa: x29 16 +
STACK CFI 885f8 .cfa: sp 16 +
STACK CFI 885fc .cfa: sp 0 +
STACK CFI 88600 .cfa: x29 16 +
STACK CFI INIT 88630 134 .cfa: sp 0 +
STACK CFI 88634 .cfa: sp 96 +
STACK CFI 8864c .cfa: x29 96 + x19: .cfa -8 + ^ x20: .cfa -16 + ^ x21: .cfa -24 + ^ x22: .cfa -32 + ^ x23: .cfa -40 + ^ x24: .cfa -48 + ^ x25: .cfa -56 + ^ x26: .cfa -64 + ^ x27: .cfa -72 + ^ x28: .cfa -80 + ^ .ra: .cfa -88 + ^ x29: .cfa -96 + ^
STACK CFI 8871c .cfa: sp 96 +
STACK CFI 88720 .cfa: x29 96 +
STACK CFI 88724 .cfa: sp 96 +
STACK CFI 8873c .cfa: sp 0 +
STACK CFI 88740 .cfa: x29 96 +
STACK CFI 88760 .cfa: sp 96 +
STACK CFI INIT 88764 e4c .cfa: sp 0 +
STACK CFI 88768 .cfa: sp 192 +
STACK CFI 88784 .cfa: x29 96 + x19: .cfa -8 + ^ x20: .cfa -16 + ^ x21: .cfa -24 + ^ x22: .cfa -32 + ^ x23: .cfa -40 + ^ x24: .cfa -48 + ^ x25: .cfa -56 + ^ x26: .cfa -64 + ^ x27: .cfa -72 + ^ x28: .cfa -80 + ^ .ra: .cfa -88 + ^ x29: .cfa -96 + ^
STACK CFI 89498 .cfa: sp 192 +
STACK CFI 894b4 .cfa: sp 0 +
STACK CFI 894b8 .cfa: x29 96 +
STACK CFI INIT 895b0 1068 .cfa: sp 0 +
STACK CFI 895b4 .cfa: sp 288 +
STACK CFI 895d0 .cfa: x29 96 + x19: .cfa -8 + ^ x20: .cfa -16 + ^ x21: .cfa -24 + ^ x22: .cfa -32 + ^ x23: .cfa -40 + ^ x24: .cfa -48 + ^ x25: .cfa -56 + ^ x26: .cfa -64 + ^ x27: .cfa -72 + ^ x28: .cfa -80 + ^ .ra: .cfa -88 + ^ x29: .cfa -96 + ^
STACK CFI 8a360 .cfa: sp 288 +
STACK CFI 8a37c .cfa: sp 0 +
STACK CFI 8a380 .cfa: x29 96 +
STACK CFI INIT 8a618 520 .cfa: sp 0 +
STACK CFI 8a61c .cfa: sp 144 +
STACK CFI 8a638 .cfa: x29 96 + x19: .cfa -8 + ^ x20: .cfa -16 + ^ x21: .cfa -24 + ^ x22: .cfa -32 + ^ x23: .cfa -40 + ^ x24: .cfa -48 + ^ x25: .cfa -56 + ^ x26: .cfa -64 + ^ x27: .cfa -72 + ^ x28: .cfa -80 + ^ .ra: .cfa -88 + ^ x29: .cfa -96 + ^
STACK CFI 8ab14 .cfa: sp 144 +
STACK CFI 8ab30 .cfa: sp 0 +
STACK CFI 8ab34 .cfa: x29 96 +
STACK CFI INIT 8b584 12dc .cfa: sp 0 +
STACK CFI 8b588 .cfa: sp 208 +
STACK CFI 8b5a4 .cfa: x29 96 + x19: .cfa -8 + ^ x20: .cfa -16 + ^ x21: .cfa -24 + ^ x22: .cfa -32 + ^ x23: .cfa -40 + ^ x24: .cfa -48 + ^ x25: .cfa -56 + ^ x26: .cfa -64 + ^ x27: .cfa -72 + ^ x28: .cfa -80 + ^ .ra: .cfa -88 + ^ x29: .cfa -96 + ^
STACK CFI 8c83c .cfa: sp 208 +
STACK CFI 8c858 .cfa: sp 0 +
STACK CFI 8c85c .cfa: x29 96 +
STACK CFI INIT 8c860 1b8 .cfa: sp 0 +
STACK CFI INIT 3ef80 b4 .cfa: sp 0 +
STACK CFI 3ef84 .cfa: sp 32 +
STACK CFI 3ef8c .cfa: x29 32 + x19: .cfa -16 + ^ .ra: .cfa -24 + ^ x29: .cfa -32 + ^
STACK CFI 3f004 .cfa: sp 32 +
STACK CFI 3f00c .cfa: sp 0 +
STACK CFI 3f010 .cfa: sp 32 +
STACK CFI 3f018 .cfa: sp 0 +
STACK CFI 3f01c .cfa: x29 32 +
STACK CFI INIT 3f034 a0 .cfa: sp 0 +
STACK CFI 3f038 .cfa: sp 32 +
STACK CFI 3f040 .cfa: x29 32 + x19: .cfa -16 + ^ .ra: .cfa -24 + ^ x29: .cfa -32 + ^
STACK CFI 3f058 .cfa: sp 32 +
STACK CFI 3f060 .cfa: sp 0 +
STACK CFI 3f064 .cfa: x29 32 +
STACK CFI 3f0b0 .cfa: sp 32 +
STACK CFI 3f0b8 .cfa: sp 0 +
STACK CFI 3f0bc .cfa: x29 32 +
STACK CFI INIT 3f17c 1a4 .cfa: sp 0 +
STACK CFI 3f180 .cfa: sp 112 +
STACK CFI 3f194 .cfa: x29 64 + x19: .cfa -8 + ^ x20: .cfa -16 + ^ x21: .cfa -24 + ^ x22: .cfa -32 + ^ x23: .cfa -48 + ^ .ra: .cfa -56 + ^ x29: .cfa -64 + ^
STACK CFI 3f298 .cfa: sp 112 +
STACK CFI 3f2ac .cfa: sp 0 +
STACK CFI 3f2b0 .cfa: x29 64 +
STACK CFI INIT 3f5bc 408 .cfa: sp 0 +
STACK CFI 3f5c0 .cfa: sp 112 +
STACK CFI 3f5d8 .cfa: x29 80 + x19: .cfa -8 + ^ x20: .cfa -16 + ^ x21: .cfa -24 + ^ x22: .cfa -32 + ^ x23: .cfa -40 + ^ x24: .cfa -48 + ^ x25: .cfa -64 + ^ .ra: .cfa -72 + ^ x29: .cfa -80 + ^
STACK CFI 3f934 .cfa: sp 112 +
STACK CFI 3f94c .cfa: sp 0 +
STACK CFI 3f950 .cfa: x29 80 +
STACK CFI INIT 3f9c4 460 .cfa: sp 0 +
STACK CFI 3f9c8 .cfa: sp 240 +
STACK CFI 3f9d8 .cfa: x29 48 + x19: .cfa -8 + ^ x20: .cfa -16 + ^ x21: .cfa -24 + ^ x22: .cfa -32 + ^ .ra: .cfa -40 + ^ x29: .cfa -48 + ^
STACK CFI 3fd18 .cfa: sp 240 +
STACK CFI 3fd28 .cfa: sp 0 +
STACK CFI 3fd2c .cfa: x29 48 +
STACK CFI INIT 3fe24 3d4 .cfa: sp 0 +
STACK CFI 3fe28 .cfa: sp 208 +
STACK CFI 3fe3c .cfa: x29 64 + x19: .cfa -8 + ^ x20: .cfa -16 + ^ x21: .cfa -24 + ^ x22: .cfa -32 + ^ x23: .cfa -48 + ^ .ra: .cfa -56 + ^ x29: .cfa -64 + ^
STACK CFI 40124 .cfa: sp 208 +
STACK CFI 40138 .cfa: sp 0 +
STACK CFI 4013c .cfa: x29 64 +
STACK CFI INIT 401f8 1a4 .cfa: sp 0 +
STACK CFI 401fc .cfa: sp 96 +
STACK CFI 4020c .cfa: x29 48 + x19: .cfa -8 + ^ x20: .cfa -16 + ^ x21: .cfa -24 + ^ x22: .cfa -32 + ^ .ra: .cfa -40 + ^ x29: .cfa -48 + ^
STACK CFI 40318 .cfa: sp 96 +
STACK CFI 40328 .cfa: sp 0 +
STACK CFI 4032c .cfa: x29 48 +
STACK CFI INIT 4039c 730 .cfa: sp 0 +
STACK CFI 403a0 .cfa: sp 304 +
STACK CFI 403bc .cfa: x29 96 + x19: .cfa -8 + ^ x20: .cfa -16 + ^ x21: .cfa -24 + ^ x22: .cfa -32 + ^ x23: .cfa -40 + ^ x24: .cfa -48 + ^ x25: .cfa -56 + ^ x26: .cfa -64 + ^ x27: .cfa -72 + ^ x28: .cfa -80 + ^ .ra: .cfa -88 + ^ x29: .cfa -96 + ^
STACK CFI 40930 .cfa: sp 304 +
STACK CFI 4094c .cfa: sp 0 +
STACK CFI 40950 .cfa: x29 96 +
STACK CFI INIT 40acc 6bc .cfa: sp 0 +
STACK CFI 40ad0 .cfa: sp 160 +
STACK CFI 40aec .cfa: x29 96 + x19: .cfa -8 + ^ x20: .cfa -16 + ^ x21: .cfa -24 + ^ x22: .cfa -32 + ^ x23: .cfa -40 + ^ x24: .cfa -48 + ^ x25: .cfa -56 + ^ x26: .cfa -64 + ^ x27: .cfa -72 + ^ x28: .cfa -80 + ^ .ra: .cfa -88 + ^ x29: .cfa -96 + ^
STACK CFI 4113c .cfa: sp 160 +
STACK CFI 41158 .cfa: sp 0 +
STACK CFI 4115c .cfa: x29 96 +
STACK CFI INIT 41188 280 .cfa: sp 0 +
STACK CFI 4118c .cfa: sp 96 +
STACK CFI 411a0 .cfa: x29 64 + x19: .cfa -8 + ^ x20: .cfa -16 + ^ x21: .cfa -24 + ^ x22: .cfa -32 + ^ x23: .cfa -40 + ^ x24: .cfa -48 + ^ .ra: .cfa -56 + ^ x29: .cfa -64 + ^
STACK CFI 413a4 .cfa: sp 96 +
STACK CFI 413b8 .cfa: sp 0 +
STACK CFI 413bc .cfa: x29 64 +
STACK CFI INIT 41458 43c .cfa: sp 0 +
STACK CFI 4145c .cfa: sp 192 +
STACK CFI 41478 .cfa: x29 96 + x19: .cfa -8 + ^ x20: .cfa -16 + ^ x21: .cfa -24 + ^ x22: .cfa -32 + ^ x23: .cfa -40 + ^ x24: .cfa -48 + ^ x25: .cfa -56 + ^ x26: .cfa -64 + ^ x27: .cfa -72 + ^ x28: .cfa -80 + ^ .ra: .cfa -88 + ^ x29: .cfa -96 + ^
STACK CFI 417a8 .cfa: sp 192 +
STACK CFI 417c4 .cfa: sp 0 +
STACK CFI 417c8 .cfa: x29 96 +
STACK CFI INIT 41894 16c4 .cfa: sp 0 +
STACK CFI 41898 .cfa: sp 96 +
STACK CFI 418b0 .cfa: x29 96 + x19: .cfa -8 + ^ x20: .cfa -16 + ^ x21: .cfa -24 + ^ x22: .cfa -32 + ^ x23: .cfa -40 + ^ x24: .cfa -48 + ^ x25: .cfa -56 + ^ x26: .cfa -64 + ^ x27: .cfa -72 + ^ x28: .cfa -80 + ^ .ra: .cfa -88 + ^ x29: .cfa -96 + ^
STACK CFI 42c54 .cfa: sp 96 +
STACK CFI 42c6c .cfa: sp 0 +
STACK CFI 42c70 .cfa: x29 96 +
STACK CFI INIT 42fa8 15c .cfa: sp 0 +
STACK CFI 42fac .cfa: sp 64 +
STACK CFI 42fbc .cfa: x29 64 + x19: .cfa -8 + ^ x20: .cfa -16 + ^ x21: .cfa -24 + ^ x22: .cfa -32 + ^ x23: .cfa -40 + ^ x24: .cfa -48 + ^ .ra: .cfa -56 + ^ x29: .cfa -64 + ^
STACK CFI 4306c .cfa: sp 64 +
STACK CFI 4307c .cfa: sp 0 +
STACK CFI 43080 .cfa: x29 64 +
STACK CFI 430c4 .cfa: sp 64 +
STACK CFI 430d4 .cfa: sp 0 +
STACK CFI 430d8 .cfa: x29 64 +
STACK CFI INIT 43148 300 .cfa: sp 0 +
STACK CFI 4314c .cfa: sp 144 +
STACK CFI 43168 .cfa: x29 96 + x19: .cfa -8 + ^ x20: .cfa -16 + ^ x21: .cfa -24 + ^ x22: .cfa -32 + ^ x23: .cfa -40 + ^ x24: .cfa -48 + ^ x25: .cfa -56 + ^ x26: .cfa -64 + ^ x27: .cfa -72 + ^ x28: .cfa -80 + ^ .ra: .cfa -88 + ^ x29: .cfa -96 + ^
STACK CFI 433d0 .cfa: sp 144 +
STACK CFI 433ec .cfa: sp 0 +
STACK CFI 433f0 .cfa: x29 96 +
STACK CFI INIT 43448 1c0 .cfa: sp 0 +
STACK CFI 4344c .cfa: sp 128 +
STACK CFI 43460 .cfa: x29 64 + x19: .cfa -8 + ^ x20: .cfa -16 + ^ x21: .cfa -24 + ^ x22: .cfa -32 + ^ x23: .cfa -40 + ^ x24: .cfa -48 + ^ .ra: .cfa -56 + ^ x29: .cfa -64 + ^
STACK CFI 43580 .cfa: sp 128 +
STACK CFI 43594 .cfa: sp 0 +
STACK CFI 43598 .cfa: x29 64 +
STACK CFI INIT 43608 71c .cfa: sp 0 +
STACK CFI 4360c .cfa: sp 320 +
STACK CFI 43624 .cfa: x29 80 + x19: .cfa -8 + ^ x20: .cfa -16 + ^ x21: .cfa -24 + ^ x22: .cfa -32 + ^ x23: .cfa -40 + ^ x24: .cfa -48 + ^ x25: .cfa -56 + ^ x28: .cfa -64 + ^ .ra: .cfa -72 + ^ x29: .cfa -80 + ^
STACK CFI 43c10 .cfa: sp 320 +
STACK CFI 43c28 .cfa: sp 0 +
STACK CFI 43c2c .cfa: x29 80 +
STACK CFI INIT 43d24 778 .cfa: sp 0 +
STACK CFI 43d28 .cfa: sp 480 +
STACK CFI 43d44 .cfa: x29 96 + x19: .cfa -8 + ^ x20: .cfa -16 + ^ x21: .cfa -24 + ^ x22: .cfa -32 + ^ x23: .cfa -40 + ^ x24: .cfa -48 + ^ x25: .cfa -56 + ^ x26: .cfa -64 + ^ x27: .cfa -72 + ^ x28: .cfa -80 + ^ .ra: .cfa -88 + ^ x29: .cfa -96 + ^
STACK CFI 44358 .cfa: sp 480 +
STACK CFI 44374 .cfa: sp 0 +
STACK CFI 44378 .cfa: x29 96 +
STACK CFI INIT 4449c 24 .cfa: sp 0 +
STACK CFI 444a0 .cfa: sp 16 +
STACK CFI 444a4 .cfa: x29 16 + .ra: .cfa -8 + ^ x29: .cfa -16 + ^
STACK CFI 444b4 .cfa: sp 16 +
STACK CFI 444b8 .cfa: sp 0 +
STACK CFI 444bc .cfa: x29 16 +
STACK CFI INIT 44520 2f0 .cfa: sp 0 +
STACK CFI 44524 .cfa: sp 96 +
STACK CFI 44534 .cfa: x29 48 + x19: .cfa -8 + ^ x20: .cfa -16 + ^ x21: .cfa -24 + ^ x22: .cfa -32 + ^ .ra: .cfa -40 + ^ x29: .cfa -48 + ^
STACK CFI 447b0 .cfa: sp 96 +
STACK CFI 447c0 .cfa: sp 0 +
STACK CFI 447c4 .cfa: x29 48 +
STACK CFI INIT 448ac 818 .cfa: sp 0 +
STACK CFI 448b0 .cfa: sp 272 +
STACK CFI 448c8 .cfa: x29 80 + x19: .cfa -8 + ^ x20: .cfa -16 + ^ x21: .cfa -24 + ^ x22: .cfa -32 + ^ x23: .cfa -40 + ^ x24: .cfa -48 + ^ x25: .cfa -56 + ^ x28: .cfa -64 + ^ .ra: .cfa -72 + ^ x29: .cfa -80 + ^
STACK CFI 44ec8 .cfa: sp 272 +
STACK CFI 44ee0 .cfa: sp 0 +
STACK CFI 44ee4 .cfa: x29 80 +
STACK CFI INIT 450c4 6a8 .cfa: sp 0 +
STACK CFI 450c8 .cfa: sp 176 +
STACK CFI 450e4 .cfa: x29 96 + x19: .cfa -8 + ^ x20: .cfa -16 + ^ x21: .cfa -24 + ^ x22: .cfa -32 + ^ x23: .cfa -40 + ^ x24: .cfa -48 + ^ x25: .cfa -56 + ^ x26: .cfa -64 + ^ x27: .cfa -72 + ^ x28: .cfa -80 + ^ .ra: .cfa -88 + ^ x29: .cfa -96 + ^
STACK CFI 45544 .cfa: sp 176 +
STACK CFI 45560 .cfa: sp 0 +
STACK CFI 45564 .cfa: x29 96 +
STACK CFI INIT 45a68 110 .cfa: sp 0 +
STACK CFI 45a6c .cfa: sp 80 +
STACK CFI 45a80 .cfa: x29 64 + x19: .cfa -8 + ^ x20: .cfa -16 + ^ x21: .cfa -24 + ^ x22: .cfa -32 + ^ x23: .cfa -48 + ^ .ra: .cfa -56 + ^ x29: .cfa -64 + ^
STACK CFI 45b38 .cfa: sp 80 +
STACK CFI 45b4c .cfa: sp 0 +
STACK CFI 45b50 .cfa: x29 64 +
STACK CFI INIT 45b78 a1c .cfa: sp 0 +
STACK CFI 45b7c .cfa: sp 256 +
STACK CFI 45b9c .cfa: x29 96 + x19: .cfa -8 + ^ x20: .cfa -16 + ^ x21: .cfa -24 + ^ x22: .cfa -32 + ^ x23: .cfa -40 + ^ x24: .cfa -48 + ^ x25: .cfa -56 + ^ x26: .cfa -64 + ^ x27: .cfa -72 + ^ x28: .cfa -80 + ^ .ra: .cfa -88 + ^ x29: .cfa -96 + ^ v8: .cfa -112 + ^
STACK CFI 4640c .cfa: sp 256 +
STACK CFI 4642c .cfa: sp 0 +
STACK CFI 46430 .cfa: x29 96 +
STACK CFI INIT 4683c 12c .cfa: sp 0 +
STACK CFI 46840 .cfa: sp 80 +
STACK CFI 46850 .cfa: x29 48 + x19: .cfa -8 + ^ x20: .cfa -16 + ^ x21: .cfa -24 + ^ x22: .cfa -32 + ^ .ra: .cfa -40 + ^ x29: .cfa -48 + ^
STACK CFI 4694c .cfa: sp 80 +
STACK CFI 4695c .cfa: sp 0 +
STACK CFI 46960 .cfa: x29 48 +
STACK CFI INIT 46d20 1dc .cfa: sp 0 +
STACK CFI 46d24 .cfa: sp 208 +
STACK CFI 46d3c .cfa: x29 80 + x19: .cfa -8 + ^ x20: .cfa -16 + ^ x21: .cfa -24 + ^ x22: .cfa -32 + ^ x23: .cfa -40 + ^ x24: .cfa -48 + ^ x25: .cfa -64 + ^ .ra: .cfa -72 + ^ x29: .cfa -80 + ^
STACK CFI 46e88 .cfa: sp 208 +
STACK CFI 46ea0 .cfa: sp 0 +
STACK CFI 46ea4 .cfa: x29 80 +
STACK CFI INIT 46f10 50 .cfa: sp 0 +
STACK CFI 46f14 .cfa: sp 32 +
STACK CFI 46f1c .cfa: x29 32 + x19: .cfa -8 + ^ x20: .cfa -16 + ^ .ra: .cfa -24 + ^ x29: .cfa -32 + ^
STACK CFI INIT 470a4 50 .cfa: sp 0 +
STACK CFI 470a8 .cfa: sp 32 +
STACK CFI 470b0 .cfa: x29 32 + x19: .cfa -8 + ^ x20: .cfa -16 + ^ .ra: .cfa -24 + ^ x29: .cfa -32 + ^
STACK CFI INIT 471b8 9cc .cfa: sp 0 +
STACK CFI 471bc .cfa: sp 144 +
STACK CFI 471d8 .cfa: x29 96 + x19: .cfa -8 + ^ x20: .cfa -16 + ^ x21: .cfa -24 + ^ x22: .cfa -32 + ^ x23: .cfa -40 + ^ x24: .cfa -48 + ^ x25: .cfa -56 + ^ x26: .cfa -64 + ^ x27: .cfa -72 + ^ x28: .cfa -80 + ^ .ra: .cfa -88 + ^ x29: .cfa -96 + ^
STACK CFI 475e8 .cfa: sp 144 +
STACK CFI 47604 .cfa: sp 0 +
STACK CFI 47608 .cfa: x29 96 +
STACK CFI 47a74 .cfa: sp 144 +
STACK CFI 47a90 .cfa: sp 0 +
STACK CFI 47a94 .cfa: x29 96 +
STACK CFI INIT 47e98 cc .cfa: sp 0 +
STACK CFI 47e9c .cfa: sp 64 +
STACK CFI 47eac .cfa: x29 48 + x19: .cfa -8 + ^ x20: .cfa -16 + ^ x21: .cfa -32 + ^ .ra: .cfa -40 + ^ x29: .cfa -48 + ^
STACK CFI 47f28 .cfa: sp 64 +
STACK CFI 47f38 .cfa: sp 0 +
STACK CFI 47f3c .cfa: x29 48 +
STACK CFI INIT 48468 bc .cfa: sp 0 +
STACK CFI 4846c .cfa: sp 64 +
STACK CFI 48478 .cfa: x29 32 + x19: .cfa -8 + ^ x20: .cfa -16 + ^ .ra: .cfa -24 + ^ x29: .cfa -32 + ^
STACK CFI 484e4 .cfa: sp 64 +
STACK CFI 484f0 .cfa: sp 0 +
STACK CFI 484f4 .cfa: x29 32 +
STACK CFI INIT 48b44 1dc .cfa: sp 0 +
STACK CFI 48b48 .cfa: sp 96 +
STACK CFI 48b5c .cfa: x29 64 + x19: .cfa -8 + ^ x20: .cfa -16 + ^ x21: .cfa -24 + ^ x22: .cfa -32 + ^ x23: .cfa -48 + ^ .ra: .cfa -56 + ^ x29: .cfa -64 + ^
STACK CFI 48c98 .cfa: sp 96 +
STACK CFI 48cac .cfa: sp 0 +
STACK CFI 48cb0 .cfa: x29 64 +
STACK CFI INIT 48d48 6c4 .cfa: sp 0 +
STACK CFI 48d4c .cfa: sp 112 +
STACK CFI 48d68 .cfa: x29 96 + x19: .cfa -8 + ^ x20: .cfa -16 + ^ x21: .cfa -24 + ^ x22: .cfa -32 + ^ x23: .cfa -40 + ^ x24: .cfa -48 + ^ x25: .cfa -56 + ^ x26: .cfa -64 + ^ x27: .cfa -72 + ^ x28: .cfa -80 + ^ .ra: .cfa -88 + ^ x29: .cfa -96 + ^
STACK CFI 48eac .cfa: sp 112 +
STACK CFI 48ec8 .cfa: sp 0 +
STACK CFI 48ecc .cfa: x29 96 +
STACK CFI 48ed8 .cfa: sp 112 +
STACK CFI 48ef4 .cfa: sp 0 +
STACK CFI 48ef8 .cfa: x29 96 +
STACK CFI 49394 .cfa: sp 112 +
STACK CFI 493b0 .cfa: sp 0 +
STACK CFI 493b4 .cfa: x29 96 +
STACK CFI INIT 4940c 4c .cfa: sp 0 +
STACK CFI 49410 .cfa: sp 32 +
STACK CFI 49418 .cfa: x29 32 + x19: .cfa -8 + ^ x20: .cfa -16 + ^ .ra: .cfa -24 + ^ x29: .cfa -32 + ^
STACK CFI INIT 499dc 4c .cfa: sp 0 +
STACK CFI 499e0 .cfa: sp 32 +
STACK CFI 499e8 .cfa: x29 32 + x19: .cfa -8 + ^ x20: .cfa -16 + ^ .ra: .cfa -24 + ^ x29: .cfa -32 + ^
STACK CFI INIT 49b40 364 .cfa: sp 0 +
STACK CFI 49b44 .cfa: sp 144 +
STACK CFI 49b58 .cfa: x29 64 + x19: .cfa -8 + ^ x20: .cfa -16 + ^ x21: .cfa -24 + ^ x22: .cfa -32 + ^ x23: .cfa -48 + ^ .ra: .cfa -56 + ^ x29: .cfa -64 + ^
STACK CFI 49cec .cfa: sp 144 +
STACK CFI 49d00 .cfa: sp 0 +
STACK CFI 49d04 .cfa: x29 64 +
STACK CFI INIT 49ea4 644 .cfa: sp 0 +
STACK CFI 49ea8 .cfa: sp 64 +
STACK CFI 49eb8 .cfa: x29 64 + x19: .cfa -8 + ^ x20: .cfa -16 + ^ x21: .cfa -24 + ^ x22: .cfa -32 + ^ x23: .cfa -48 + ^ .ra: .cfa -56 + ^ x29: .cfa -64 + ^
STACK CFI 49f24 .cfa: sp 64 +
STACK CFI 49f34 .cfa: sp 0 +
STACK CFI 49f38 .cfa: x29 64 +
STACK CFI 49f88 .cfa: sp 64 +
STACK CFI 49f98 .cfa: sp 0 +
STACK CFI 49f9c .cfa: x29 64 +
STACK CFI 4a018 .cfa: sp 64 +
STACK CFI 4a028 .cfa: sp 0 +
STACK CFI 4a02c .cfa: x29 64 +
STACK CFI 4a11c .cfa: sp 64 +
STACK CFI 4a12c .cfa: sp 0 +
STACK CFI 4a130 .cfa: x29 64 +
STACK CFI 4a1c0 .cfa: sp 64 +
STACK CFI 4a1d0 .cfa: sp 0 +
STACK CFI 4a1d4 .cfa: x29 64 +
STACK CFI 4a1ec .cfa: sp 64 +
STACK CFI 4a1fc .cfa: sp 0 +
STACK CFI 4a200 .cfa: x29 64 +
STACK CFI 4a388 .cfa: sp 64 +
STACK CFI 4a398 .cfa: sp 0 +
STACK CFI 4a39c .cfa: x29 64 +
STACK CFI 4a3b0 .cfa: sp 64 +
STACK CFI 4a3c0 .cfa: sp 0 +
STACK CFI 4a3c4 .cfa: x29 64 +
STACK CFI 4a44c .cfa: sp 64 +
STACK CFI 4a45c .cfa: sp 0 +
STACK CFI 4a460 .cfa: x29 64 +
STACK CFI INIT 4a8dc 6c .cfa: sp 0 +
STACK CFI 4a8e0 .cfa: sp 32 +
STACK CFI 4a8e8 .cfa: x29 32 + x19: .cfa -8 + ^ x20: .cfa -16 + ^ .ra: .cfa -24 + ^ x29: .cfa -32 + ^
STACK CFI 4a928 .cfa: sp 32 +
STACK CFI 4a930 .cfa: sp 0 +
STACK CFI 4a934 .cfa: x29 32 +
STACK CFI INIT 4a9fc 4c .cfa: sp 0 +
STACK CFI 4aa00 .cfa: sp 32 +
STACK CFI 4aa08 .cfa: x29 32 + x19: .cfa -8 + ^ x20: .cfa -16 + ^ .ra: .cfa -24 + ^ x29: .cfa -32 + ^
STACK CFI INIT 4ae70 1d0 .cfa: sp 0 +
STACK CFI 4ae74 .cfa: sp 176 +
STACK CFI 4ae84 .cfa: x29 48 + x19: .cfa -8 + ^ x20: .cfa -16 + ^ x21: .cfa -24 + ^ x22: .cfa -32 + ^ .ra: .cfa -40 + ^ x29: .cfa -48 + ^
STACK CFI 4afd8 .cfa: sp 176 +
STACK CFI 4afe8 .cfa: sp 0 +
STACK CFI 4afec .cfa: x29 48 +
STACK CFI 4affc .cfa: sp 176 +
STACK CFI 4b00c .cfa: sp 0 +
STACK CFI 4b010 .cfa: x29 48 +
STACK CFI INIT 4b040 44c .cfa: sp 0 +
STACK CFI 4b044 .cfa: sp 256 +
STACK CFI 4b060 .cfa: x29 96 + x19: .cfa -8 + ^ x20: .cfa -16 + ^ x21: .cfa -24 + ^ x22: .cfa -32 + ^ x23: .cfa -40 + ^ x24: .cfa -48 + ^ x25: .cfa -56 + ^ x26: .cfa -64 + ^ x27: .cfa -72 + ^ x28: .cfa -80 + ^ .ra: .cfa -88 + ^ x29: .cfa -96 + ^
STACK CFI 4b390 .cfa: sp 256 +
STACK CFI 4b3ac .cfa: sp 0 +
STACK CFI 4b3b0 .cfa: x29 96 +
STACK CFI INIT 4b6b4 4c .cfa: sp 0 +
STACK CFI 4b6b8 .cfa: sp 32 +
STACK CFI 4b6c0 .cfa: x29 32 + x19: .cfa -8 + ^ x20: .cfa -16 + ^ .ra: .cfa -24 + ^ x29: .cfa -32 + ^
STACK CFI INIT 4b700 170 .cfa: sp 0 +
STACK CFI 4b704 .cfa: sp 80 +
STACK CFI 4b718 .cfa: x29 80 + x19: .cfa -8 + ^ x20: .cfa -16 + ^ x21: .cfa -24 + ^ x22: .cfa -32 + ^ x23: .cfa -40 + ^ x24: .cfa -48 + ^ x25: .cfa -64 + ^ .ra: .cfa -72 + ^ x29: .cfa -80 + ^
STACK CFI 4b80c .cfa: sp 80 +
STACK CFI 4b820 .cfa: sp 0 +
STACK CFI 4b824 .cfa: x29 80 +
STACK CFI INIT 4b870 4c .cfa: sp 0 +
STACK CFI 4b874 .cfa: sp 32 +
STACK CFI 4b87c .cfa: x29 32 + x19: .cfa -8 + ^ x20: .cfa -16 + ^ .ra: .cfa -24 + ^ x29: .cfa -32 + ^
STACK CFI INIT 4bdf8 1114 .cfa: sp 0 +
STACK CFI 4bdfc .cfa: sp 432 +
STACK CFI 4be18 .cfa: x29 96 + x19: .cfa -8 + ^ x20: .cfa -16 + ^ x21: .cfa -24 + ^ x22: .cfa -32 + ^ x23: .cfa -40 + ^ x24: .cfa -48 + ^ x25: .cfa -56 + ^ x26: .cfa -64 + ^ x27: .cfa -72 + ^ x28: .cfa -80 + ^ .ra: .cfa -88 + ^ x29: .cfa -96 + ^
STACK CFI 4cc20 .cfa: sp 432 +
STACK CFI 4cc3c .cfa: sp 0 +
STACK CFI 4cc40 .cfa: x29 96 +
STACK CFI INIT 4cf0c 4c .cfa: sp 0 +
STACK CFI 4cf10 .cfa: sp 32 +
STACK CFI 4cf18 .cfa: x29 32 + x19: .cfa -8 + ^ x20: .cfa -16 + ^ .ra: .cfa -24 + ^ x29: .cfa -32 + ^
STACK CFI INIT 4cfa0 4c .cfa: sp 0 +
STACK CFI 4cfa4 .cfa: sp 32 +
STACK CFI 4cfac .cfa: x29 32 + x19: .cfa -8 + ^ x20: .cfa -16 + ^ .ra: .cfa -24 + ^ x29: .cfa -32 + ^
STACK CFI INIT 4d4f8 140 .cfa: sp 0 +
STACK CFI 4d4fc .cfa: sp 48 +
STACK CFI 4d508 .cfa: x29 48 + x19: .cfa -8 + ^ x20: .cfa -16 + ^ x21: .cfa -32 + ^ .ra: .cfa -40 + ^ x29: .cfa -48 + ^
STACK CFI 4d5e8 .cfa: sp 48 +
STACK CFI 4d5f4 .cfa: sp 0 +
STACK CFI 4d5f8 .cfa: x29 48 +
STACK CFI INIT 4d638 4c .cfa: sp 0 +
STACK CFI 4d63c .cfa: sp 32 +
STACK CFI 4d644 .cfa: x29 32 + x19: .cfa -8 + ^ x20: .cfa -16 + ^ .ra: .cfa -24 + ^ x29: .cfa -32 + ^
STACK CFI INIT 4df88 1d8 .cfa: sp 0 +
STACK CFI 4df8c .cfa: sp 128 +
STACK CFI 4dfa4 .cfa: x29 80 + x19: .cfa -8 + ^ x20: .cfa -16 + ^ x21: .cfa -24 + ^ x22: .cfa -32 + ^ x23: .cfa -40 + ^ x24: .cfa -48 + ^ x25: .cfa -64 + ^ .ra: .cfa -72 + ^ x29: .cfa -80 + ^
STACK CFI 4e094 .cfa: sp 128 +
STACK CFI 4e0ac .cfa: sp 0 +
STACK CFI 4e0b0 .cfa: x29 80 +
STACK CFI INIT 4e400 c34 .cfa: sp 0 +
STACK CFI 4e404 .cfa: sp 256 +
STACK CFI 4e420 .cfa: x29 96 + x19: .cfa -8 + ^ x20: .cfa -16 + ^ x21: .cfa -24 + ^ x22: .cfa -32 + ^ x23: .cfa -40 + ^ x24: .cfa -48 + ^ x25: .cfa -56 + ^ x26: .cfa -64 + ^ x27: .cfa -72 + ^ x28: .cfa -80 + ^ .ra: .cfa -88 + ^ x29: .cfa -96 + ^
STACK CFI 4edb8 .cfa: sp 256 +
STACK CFI 4edd4 .cfa: sp 0 +
STACK CFI 4edd8 .cfa: x29 96 +
STACK CFI INIT 4f260 1d4 .cfa: sp 0 +
STACK CFI 4f264 .cfa: sp 112 +
STACK CFI 4f27c .cfa: x29 80 + x19: .cfa -8 + ^ x20: .cfa -16 + ^ x21: .cfa -24 + ^ x22: .cfa -32 + ^ x23: .cfa -40 + ^ x24: .cfa -48 + ^ x25: .cfa -56 + ^ x26: .cfa -64 + ^ .ra: .cfa -72 + ^ x29: .cfa -80 + ^
STACK CFI 4f3b8 .cfa: sp 112 +
STACK CFI 4f3d0 .cfa: sp 0 +
STACK CFI 4f3d4 .cfa: x29 80 +
STACK CFI INIT 4f448 4c .cfa: sp 0 +
STACK CFI 4f44c .cfa: sp 32 +
STACK CFI 4f454 .cfa: x29 32 + x19: .cfa -8 + ^ x20: .cfa -16 + ^ .ra: .cfa -24 + ^ x29: .cfa -32 + ^
STACK CFI INIT 4fe80 4c .cfa: sp 0 +
STACK CFI 4fe84 .cfa: sp 32 +
STACK CFI 4fe8c .cfa: x29 32 + x19: .cfa -8 + ^ x20: .cfa -16 + ^ .ra: .cfa -24 + ^ x29: .cfa -32 + ^
STACK CFI INIT 4fecc 2c8 .cfa: sp 0 +
STACK CFI 4fed0 .cfa: sp 144 +
STACK CFI 4fee8 .cfa: x29 80 + x19: .cfa -8 + ^ x20: .cfa -16 + ^ x21: .cfa -24 + ^ x22: .cfa -32 + ^ x23: .cfa -40 + ^ x24: .cfa -48 + ^ x25: .cfa -56 + ^ x26: .cfa -64 + ^ .ra: .cfa -72 + ^ x29: .cfa -80 + ^
STACK CFI 50100 .cfa: sp 144 +
STACK CFI 50118 .cfa: sp 0 +
STACK CFI 5011c .cfa: x29 80 +
STACK CFI INIT 50194 1b0 .cfa: sp 0 +
STACK CFI 50198 .cfa: sp 128 +
STACK CFI 501b0 .cfa: x29 80 + x19: .cfa -8 + ^ x20: .cfa -16 + ^ x21: .cfa -24 + ^ x22: .cfa -32 + ^ x23: .cfa -40 + ^ x24: .cfa -48 + ^ x25: .cfa -64 + ^ .ra: .cfa -72 + ^ x29: .cfa -80 + ^
STACK CFI 502d4 .cfa: sp 128 +
STACK CFI 502ec .cfa: sp 0 +
STACK CFI 502f0 .cfa: x29 80 +
STACK CFI INIT 503c0 4c .cfa: sp 0 +
STACK CFI 503c4 .cfa: sp 32 +
STACK CFI 503cc .cfa: x29 32 + x19: .cfa -8 + ^ x20: .cfa -16 + ^ .ra: .cfa -24 + ^ x29: .cfa -32 + ^
STACK CFI INIT 5040c 1c4 .cfa: sp 0 +
STACK CFI 50410 .cfa: sp 112 +
STACK CFI 50428 .cfa: x29 80 + x19: .cfa -8 + ^ x20: .cfa -16 + ^ x21: .cfa -24 + ^ x22: .cfa -32 + ^ x23: .cfa -40 + ^ x24: .cfa -48 + ^ x25: .cfa -64 + ^ .ra: .cfa -72 + ^ x29: .cfa -80 + ^
STACK CFI 5056c .cfa: sp 112 +
STACK CFI 50584 .cfa: sp 0 +
STACK CFI 50588 .cfa: x29 80 +
STACK CFI INIT 505d0 4c .cfa: sp 0 +
STACK CFI 505d4 .cfa: sp 32 +
STACK CFI 505dc .cfa: x29 32 + x19: .cfa -8 + ^ x20: .cfa -16 + ^ .ra: .cfa -24 + ^ x29: .cfa -32 + ^
STACK CFI INIT 508e4 140 .cfa: sp 0 +
STACK CFI 508e8 .cfa: sp 96 +
STACK CFI 50900 .cfa: x29 96 + x19: .cfa -8 + ^ x20: .cfa -16 + ^ x21: .cfa -24 + ^ x22: .cfa -32 + ^ x23: .cfa -40 + ^ x24: .cfa -48 + ^ x25: .cfa -56 + ^ x26: .cfa -64 + ^ x27: .cfa -72 + ^ x28: .cfa -80 + ^ .ra: .cfa -88 + ^ x29: .cfa -96 + ^
STACK CFI 509bc .cfa: sp 96 +
STACK CFI 509d4 .cfa: sp 0 +
STACK CFI 509d8 .cfa: x29 96 +
STACK CFI INIT 50a24 4c .cfa: sp 0 +
STACK CFI 50a28 .cfa: sp 32 +
STACK CFI 50a30 .cfa: x29 32 + x19: .cfa -8 + ^ x20: .cfa -16 + ^ .ra: .cfa -24 + ^ x29: .cfa -32 + ^
STACK CFI INIT 50a70 4c .cfa: sp 0 +
STACK CFI 50a74 .cfa: sp 32 +
STACK CFI 50a7c .cfa: x29 32 + x19: .cfa -8 + ^ x20: .cfa -16 + ^ .ra: .cfa -24 + ^ x29: .cfa -32 + ^
STACK CFI INIT 50f4c 4c .cfa: sp 0 +
STACK CFI 50f50 .cfa: sp 32 +
STACK CFI 50f58 .cfa: x29 32 + x19: .cfa -8 + ^ x20: .cfa -16 + ^ .ra: .cfa -24 + ^ x29: .cfa -32 + ^
STACK CFI INIT 51f68 eb4 .cfa: sp 0 +
STACK CFI 51f6c .cfa: sp 368 +
STACK CFI 51f88 .cfa: x29 96 + x19: .cfa -8 + ^ x20: .cfa -16 + ^ x21: .cfa -24 + ^ x22: .cfa -32 + ^ x23: .cfa -40 + ^ x24: .cfa -48 + ^ x25: .cfa -56 + ^ x26: .cfa -64 + ^ x27: .cfa -72 + ^ x28: .cfa -80 + ^ .ra: .cfa -88 + ^ x29: .cfa -96 + ^
STACK CFI 52d14 .cfa: sp 368 +
STACK CFI 52d30 .cfa: sp 0 +
STACK CFI 52d34 .cfa: x29 96 +
STACK CFI INIT 52e1c 9e8 .cfa: sp 0 +
STACK CFI 52e20 .cfa: sp 416 +
STACK CFI 52e3c .cfa: x29 96 + x19: .cfa -8 + ^ x20: .cfa -16 + ^ x21: .cfa -24 + ^ x22: .cfa -32 + ^ x23: .cfa -40 + ^ x24: .cfa -48 + ^ x25: .cfa -56 + ^ x26: .cfa -64 + ^ x27: .cfa -72 + ^ x28: .cfa -80 + ^ .ra: .cfa -88 + ^ x29: .cfa -96 + ^
STACK CFI 53728 .cfa: sp 416 +
STACK CFI 53744 .cfa: sp 0 +
STACK CFI 53748 .cfa: x29 96 +
STACK CFI INIT 539cc 5d8 .cfa: sp 0 +
STACK CFI 539d0 .cfa: sp 112 +
STACK CFI 539ec .cfa: x29 96 + x19: .cfa -8 + ^ x20: .cfa -16 + ^ x21: .cfa -24 + ^ x22: .cfa -32 + ^ x23: .cfa -40 + ^ x24: .cfa -48 + ^ x25: .cfa -56 + ^ x26: .cfa -64 + ^ x27: .cfa -80 + ^ .ra: .cfa -88 + ^ x29: .cfa -96 + ^
STACK CFI 53b44 .cfa: sp 112 +
STACK CFI 53b60 .cfa: sp 0 +
STACK CFI 53b64 .cfa: x29 96 +
STACK CFI 53e8c .cfa: sp 112 +
STACK CFI 53ea8 .cfa: sp 0 +
STACK CFI 53eac .cfa: x29 96 +
STACK CFI INIT 54458 5d8 .cfa: sp 0 +
STACK CFI 5445c .cfa: sp 112 +
STACK CFI 54478 .cfa: x29 96 + x19: .cfa -8 + ^ x20: .cfa -16 + ^ x21: .cfa -24 + ^ x22: .cfa -32 + ^ x23: .cfa -40 + ^ x24: .cfa -48 + ^ x25: .cfa -56 + ^ x26: .cfa -64 + ^ x27: .cfa -80 + ^ .ra: .cfa -88 + ^ x29: .cfa -96 + ^
STACK CFI 545d0 .cfa: sp 112 +
STACK CFI 545ec .cfa: sp 0 +
STACK CFI 545f0 .cfa: x29 96 +
STACK CFI 54918 .cfa: sp 112 +
STACK CFI 54934 .cfa: sp 0 +
STACK CFI 54938 .cfa: x29 96 +
STACK CFI INIT 54bbc 188 .cfa: sp 0 +
STACK CFI 54bc0 .cfa: sp 160 +
STACK CFI 54bd0 .cfa: x29 48 + x19: .cfa -8 + ^ x20: .cfa -16 + ^ x21: .cfa -32 + ^ .ra: .cfa -40 + ^ x29: .cfa -48 + ^
STACK CFI 54ce8 .cfa: sp 160 +
STACK CFI 54cf8 .cfa: sp 0 +
STACK CFI 54cfc .cfa: x29 48 +
STACK CFI INIT 54d44 74 .cfa: sp 0 +
STACK CFI 54d48 .cfa: sp 48 +
STACK CFI 54d54 .cfa: x29 32 + x19: .cfa -8 + ^ x20: .cfa -16 + ^ .ra: .cfa -24 + ^ x29: .cfa -32 + ^
STACK CFI 54da0 .cfa: sp 48 +
STACK CFI 54dac .cfa: sp 0 +
STACK CFI 54db0 .cfa: x29 32 +
STACK CFI INIT 54e1c 154 .cfa: sp 0 +
STACK CFI 54e20 .cfa: sp 144 +
STACK CFI 54e30 .cfa: x29 48 + x19: .cfa -8 + ^ x20: .cfa -16 + ^ x21: .cfa -32 + ^ .ra: .cfa -40 + ^ x29: .cfa -48 + ^
STACK CFI 54f14 .cfa: sp 144 +
STACK CFI 54f24 .cfa: sp 0 +
STACK CFI 54f28 .cfa: x29 48 +
STACK CFI INIT 55068 74 .cfa: sp 0 +
STACK CFI 5506c .cfa: sp 32 +
STACK CFI 55074 .cfa: x29 32 + x19: .cfa -16 + ^ .ra: .cfa -24 + ^ x29: .cfa -32 + ^
STACK CFI 5509c .cfa: sp 32 +
STACK CFI 550a4 .cfa: sp 0 +
STACK CFI 550a8 .cfa: x29 32 +
STACK CFI 550cc .cfa: sp 32 +
STACK CFI 550d4 .cfa: sp 0 +
STACK CFI 550d8 .cfa: x29 32 +
STACK CFI INIT 550dc 98 .cfa: sp 0 +
STACK CFI 550e0 .cfa: sp 80 +
STACK CFI 550ec .cfa: x29 32 + x19: .cfa -8 + ^ x20: .cfa -16 + ^ .ra: .cfa -24 + ^ x29: .cfa -32 + ^
STACK CFI 55138 .cfa: sp 80 +
STACK CFI 55144 .cfa: sp 0 +
STACK CFI 55148 .cfa: x29 32 +
STACK CFI INIT 55174 154 .cfa: sp 0 +
STACK CFI 55178 .cfa: sp 112 +
STACK CFI 55188 .cfa: x29 48 + x19: .cfa -8 + ^ x20: .cfa -16 + ^ x21: .cfa -32 + ^ .ra: .cfa -40 + ^ x29: .cfa -48 + ^
STACK CFI 55280 .cfa: sp 112 +
STACK CFI 55290 .cfa: sp 0 +
STACK CFI 55294 .cfa: x29 48 +
STACK CFI INIT 552c8 10c .cfa: sp 0 +
STACK CFI 552cc .cfa: sp 96 +
STACK CFI 552e0 .cfa: x29 64 + x19: .cfa -8 + ^ x20: .cfa -16 + ^ x21: .cfa -24 + ^ x22: .cfa -32 + ^ x23: .cfa -48 + ^ .ra: .cfa -56 + ^ x29: .cfa -64 + ^
STACK CFI 55358 .cfa: sp 96 +
STACK CFI 5536c .cfa: sp 0 +
STACK CFI 55370 .cfa: x29 64 +
STACK CFI INIT 55514 cc .cfa: sp 0 +
STACK CFI 55518 .cfa: sp 64 +
STACK CFI 55528 .cfa: x29 48 + x19: .cfa -8 + ^ x20: .cfa -16 + ^ x21: .cfa -32 + ^ .ra: .cfa -40 + ^ x29: .cfa -48 + ^
STACK CFI 555a4 .cfa: sp 64 +
STACK CFI 555b4 .cfa: sp 0 +
STACK CFI 555b8 .cfa: x29 48 +
STACK CFI INIT 55714 470 .cfa: sp 0 +
STACK CFI 55718 .cfa: sp 224 +
STACK CFI 55734 .cfa: x29 96 + x19: .cfa -8 + ^ x20: .cfa -16 + ^ x21: .cfa -24 + ^ x22: .cfa -32 + ^ x23: .cfa -40 + ^ x24: .cfa -48 + ^ x25: .cfa -56 + ^ x26: .cfa -64 + ^ x27: .cfa -80 + ^ .ra: .cfa -88 + ^ x29: .cfa -96 + ^
STACK CFI 55990 .cfa: sp 224 +
STACK CFI 559ac .cfa: sp 0 +
STACK CFI 559b0 .cfa: x29 96 +
STACK CFI 55a7c .cfa: sp 224 +
STACK CFI 55a98 .cfa: sp 0 +
STACK CFI 55a9c .cfa: x29 96 +
STACK CFI INIT 55ba0 36c .cfa: sp 0 +
STACK CFI 55ba4 .cfa: sp 240 +
STACK CFI 55bb8 .cfa: x29 64 + x19: .cfa -8 + ^ x20: .cfa -16 + ^ x21: .cfa -24 + ^ x22: .cfa -32 + ^ x23: .cfa -48 + ^ .ra: .cfa -56 + ^ x29: .cfa -64 + ^
STACK CFI 55de8 .cfa: sp 240 +
STACK CFI 55dfc .cfa: sp 0 +
STACK CFI 55e00 .cfa: x29 64 +
STACK CFI INIT 55f5c 74 .cfa: sp 0 +
STACK CFI 55f60 .cfa: sp 48 +
STACK CFI 55f6c .cfa: x29 32 + x19: .cfa -8 + ^ x20: .cfa -16 + ^ .ra: .cfa -24 + ^ x29: .cfa -32 + ^
STACK CFI 55fb8 .cfa: sp 48 +
STACK CFI 55fc4 .cfa: sp 0 +
STACK CFI 55fc8 .cfa: x29 32 +
STACK CFI INIT 55fd4 154 .cfa: sp 0 +
STACK CFI 55fd8 .cfa: sp 384 +
STACK CFI 55fec .cfa: x29 64 + x19: .cfa -8 + ^ x20: .cfa -16 + ^ x21: .cfa -24 + ^ x22: .cfa -32 + ^ x23: .cfa -40 + ^ x28: .cfa -48 + ^ .ra: .cfa -56 + ^ x29: .cfa -64 + ^
STACK CFI 560d0 .cfa: sp 384 +
STACK CFI 560e4 .cfa: sp 0 +
STACK CFI 560e8 .cfa: x29 64 +
STACK CFI INIT 56128 134 .cfa: sp 0 +
STACK CFI 5612c .cfa: sp 80 +
STACK CFI 56140 .cfa: x29 80 + x19: .cfa -8 + ^ x20: .cfa -16 + ^ x21: .cfa -24 + ^ x22: .cfa -32 + ^ x23: .cfa -40 + ^ x24: .cfa -48 + ^ x25: .cfa -56 + ^ x26: .cfa -64 + ^ .ra: .cfa -72 + ^ x29: .cfa -80 + ^
STACK CFI 56210 .cfa: sp 80 +
STACK CFI 56224 .cfa: sp 0 +
STACK CFI 56228 .cfa: x29 80 +
STACK CFI INIT 56300 1a4 .cfa: sp 0 +
STACK CFI 56304 .cfa: sp 112 +
STACK CFI 5631c .cfa: x29 80 + x19: .cfa -8 + ^ x20: .cfa -16 + ^ x21: .cfa -24 + ^ x22: .cfa -32 + ^ x23: .cfa -40 + ^ x24: .cfa -48 + ^ x25: .cfa -56 + ^ x26: .cfa -64 + ^ .ra: .cfa -72 + ^ x29: .cfa -80 + ^
STACK CFI 5640c .cfa: sp 112 +
STACK CFI 56424 .cfa: sp 0 +
STACK CFI 56428 .cfa: x29 80 +
STACK CFI INIT 564a4 1ec .cfa: sp 0 +
STACK CFI 564a8 .cfa: sp 128 +
STACK CFI 564c4 .cfa: x29 96 + x19: .cfa -8 + ^ x20: .cfa -16 + ^ x21: .cfa -24 + ^ x22: .cfa -32 + ^ x23: .cfa -40 + ^ x24: .cfa -48 + ^ x25: .cfa -56 + ^ x26: .cfa -64 + ^ x27: .cfa -80 + ^ .ra: .cfa -88 + ^ x29: .cfa -96 + ^
STACK CFI 56640 .cfa: sp 128 +
STACK CFI 5665c .cfa: sp 0 +
STACK CFI 56660 .cfa: x29 96 +
STACK CFI INIT 56690 170 .cfa: sp 0 +
STACK CFI 56694 .cfa: sp 48 +
STACK CFI 566a0 .cfa: x29 48 + x19: .cfa -8 + ^ x20: .cfa -16 + ^ x21: .cfa -32 + ^ .ra: .cfa -40 + ^ x29: .cfa -48 + ^
STACK CFI 567d4 .cfa: sp 48 +
STACK CFI 567e0 .cfa: sp 0 +
STACK CFI 567e4 .cfa: x29 48 +
STACK CFI INIT 57060 d8 .cfa: sp 0 +
STACK CFI 57064 .cfa: sp 32 +
STACK CFI 5706c .cfa: x29 32 + x19: .cfa -16 + ^ .ra: .cfa -24 + ^ x29: .cfa -32 + ^
STACK CFI 570a0 .cfa: sp 32 +
STACK CFI 570a8 .cfa: sp 0 +
STACK CFI 570ac .cfa: x29 32 +
STACK CFI 570b0 .cfa: sp 32 +
STACK CFI 570b8 .cfa: sp 0 +
STACK CFI 570bc .cfa: x29 32 +
STACK CFI INIT 57364 9f8 .cfa: sp 0 +
STACK CFI 57368 .cfa: sp 272 +
STACK CFI 57384 .cfa: x29 96 + x19: .cfa -8 + ^ x20: .cfa -16 + ^ x21: .cfa -24 + ^ x22: .cfa -32 + ^ x23: .cfa -40 + ^ x24: .cfa -48 + ^ x25: .cfa -56 + ^ x26: .cfa -64 + ^ x27: .cfa -72 + ^ x28: .cfa -80 + ^ .ra: .cfa -88 + ^ x29: .cfa -96 + ^
STACK CFI 5752c .cfa: sp 272 +
STACK CFI 57548 .cfa: sp 0 +
STACK CFI 5754c .cfa: x29 96 +
STACK CFI 57af4 .cfa: sp 272 +
STACK CFI 57b10 .cfa: sp 0 +
STACK CFI 57b14 .cfa: x29 96 +
STACK CFI INIT 57d78 948 .cfa: sp 0 +
STACK CFI 57d7c .cfa: sp 240 +
STACK CFI 57d94 .cfa: x29 80 + x19: .cfa -8 + ^ x20: .cfa -16 + ^ x21: .cfa -24 + ^ x22: .cfa -32 + ^ x23: .cfa -40 + ^ x24: .cfa -48 + ^ x25: .cfa -64 + ^ .ra: .cfa -72 + ^ x29: .cfa -80 + ^
STACK CFI 58400 .cfa: sp 240 +
STACK CFI 58418 .cfa: sp 0 +
STACK CFI 5841c .cfa: x29 80 +
STACK CFI INIT 586c4 110 .cfa: sp 0 +
STACK CFI 586c8 .cfa: sp 96 +
STACK CFI 586dc .cfa: x29 64 + x19: .cfa -8 + ^ x20: .cfa -16 + ^ x21: .cfa -24 + ^ x22: .cfa -32 + ^ x23: .cfa -40 + ^ x24: .cfa -48 + ^ .ra: .cfa -56 + ^ x29: .cfa -64 + ^
STACK CFI 58724 .cfa: sp 96 +
STACK CFI 58738 .cfa: sp 0 +
STACK CFI 5873c .cfa: x29 64 +
STACK CFI INIT 58850 168 .cfa: sp 0 +
STACK CFI 58854 .cfa: sp 384 +
STACK CFI 58868 .cfa: x29 64 + x19: .cfa -8 + ^ x20: .cfa -16 + ^ x21: .cfa -24 + ^ x22: .cfa -32 + ^ x23: .cfa -40 + ^ x28: .cfa -48 + ^ .ra: .cfa -56 + ^ x29: .cfa -64 + ^
STACK CFI 58960 .cfa: sp 384 +
STACK CFI 58974 .cfa: sp 0 +
STACK CFI 58978 .cfa: x29 64 +
STACK CFI INIT 58a4c 174 .cfa: sp 0 +
STACK CFI 58a50 .cfa: sp 112 +
STACK CFI 58a60 .cfa: x29 48 + x19: .cfa -8 + ^ x20: .cfa -16 + ^ x21: .cfa -32 + ^ .ra: .cfa -40 + ^ x29: .cfa -48 + ^
STACK CFI 58b5c .cfa: sp 112 +
STACK CFI 58b6c .cfa: sp 0 +
STACK CFI 58b70 .cfa: x29 48 +
STACK CFI INIT 58c98 1d8 .cfa: sp 0 +
STACK CFI 58c9c .cfa: sp 96 +
STACK CFI 58cb0 .cfa: x29 48 + x19: .cfa -8 + ^ x20: .cfa -16 + ^ x21: .cfa -24 + ^ x22: .cfa -32 + ^ .ra: .cfa -40 + ^ x29: .cfa -48 + ^ v8: .cfa -56 + ^ v9: .cfa -64 + ^
STACK CFI 58e28 .cfa: sp 96 +
STACK CFI 58e3c .cfa: sp 0 +
STACK CFI 58e40 .cfa: x29 48 +
STACK CFI INIT 58e70 184 .cfa: sp 0 +
STACK CFI 58e74 .cfa: sp 160 +
STACK CFI 58e8c .cfa: x29 80 + x19: .cfa -8 + ^ x20: .cfa -16 + ^ x21: .cfa -24 + ^ x22: .cfa -32 + ^ x23: .cfa -40 + ^ x24: .cfa -48 + ^ x25: .cfa -56 + ^ x26: .cfa -64 + ^ .ra: .cfa -72 + ^ x29: .cfa -80 + ^
STACK CFI 58f8c .cfa: sp 160 +
STACK CFI 58fa4 .cfa: sp 0 +
STACK CFI 58fa8 .cfa: x29 80 +
STACK CFI INIT 59264 5d4 .cfa: sp 0 +
STACK CFI 59268 .cfa: sp 224 +
STACK CFI 59284 .cfa: x29 96 + x19: .cfa -8 + ^ x20: .cfa -16 + ^ x21: .cfa -24 + ^ x22: .cfa -32 + ^ x23: .cfa -40 + ^ x24: .cfa -48 + ^ x25: .cfa -56 + ^ x26: .cfa -64 + ^ x27: .cfa -72 + ^ x28: .cfa -80 + ^ .ra: .cfa -88 + ^ x29: .cfa -96 + ^
STACK CFI 596c8 .cfa: sp 224 +
STACK CFI 596e4 .cfa: sp 0 +
STACK CFI 596e8 .cfa: x29 96 +
STACK CFI INIT 59838 484 .cfa: sp 0 +
STACK CFI 5983c .cfa: sp 288 +
STACK CFI 59854 .cfa: x29 80 + x19: .cfa -8 + ^ x20: .cfa -16 + ^ x21: .cfa -24 + ^ x22: .cfa -32 + ^ x23: .cfa -40 + ^ x24: .cfa -48 + ^ x25: .cfa -56 + ^ x28: .cfa -64 + ^ .ra: .cfa -72 + ^ x29: .cfa -80 + ^
STACK CFI 59ae0 .cfa: sp 288 +
STACK CFI 59af8 .cfa: sp 0 +
STACK CFI 59afc .cfa: x29 80 +
STACK CFI INIT 59d54 470 .cfa: sp 0 +
STACK CFI 59d58 .cfa: sp 224 +
STACK CFI 59d74 .cfa: x29 96 + x19: .cfa -8 + ^ x20: .cfa -16 + ^ x21: .cfa -24 + ^ x22: .cfa -32 + ^ x23: .cfa -40 + ^ x24: .cfa -48 + ^ x25: .cfa -56 + ^ x26: .cfa -64 + ^ x27: .cfa -80 + ^ .ra: .cfa -88 + ^ x29: .cfa -96 + ^
STACK CFI 59fd0 .cfa: sp 224 +
STACK CFI 59fec .cfa: sp 0 +
STACK CFI 59ff0 .cfa: x29 96 +
STACK CFI 5a0bc .cfa: sp 224 +
STACK CFI 5a0d8 .cfa: sp 0 +
STACK CFI 5a0dc .cfa: x29 96 +
STACK CFI INIT 5a318 664 .cfa: sp 0 +
STACK CFI 5a31c .cfa: sp 256 +
STACK CFI 5a334 .cfa: x29 80 + x19: .cfa -8 + ^ x20: .cfa -16 + ^ x21: .cfa -24 + ^ x22: .cfa -32 + ^ x23: .cfa -40 + ^ x24: .cfa -48 + ^ x25: .cfa -56 + ^ x26: .cfa -64 + ^ .ra: .cfa -72 + ^ x29: .cfa -80 + ^
STACK CFI 5a790 .cfa: sp 256 +
STACK CFI 5a7a8 .cfa: sp 0 +
STACK CFI 5a7ac .cfa: x29 80 +
STACK CFI INIT 5a980 4b0 .cfa: sp 0 +
STACK CFI 5a984 .cfa: sp 256 +
STACK CFI 5a99c .cfa: x29 64 + x19: .cfa -8 + ^ x20: .cfa -16 + ^ x21: .cfa -24 + ^ x22: .cfa -32 + ^ x23: .cfa -40 + ^ x24: .cfa -48 + ^ .ra: .cfa -56 + ^ x29: .cfa -64 + ^ v8: .cfa -80 + ^
STACK CFI 5ad50 .cfa: sp 256 +
STACK CFI 5ad68 .cfa: sp 0 +
STACK CFI 5ad6c .cfa: x29 64 +
STACK CFI INIT 5ae30 32c .cfa: sp 0 +
STACK CFI 5ae34 .cfa: sp 160 +
STACK CFI 5ae48 .cfa: x29 64 + x19: .cfa -8 + ^ x20: .cfa -16 + ^ x21: .cfa -24 + ^ x22: .cfa -32 + ^ x23: .cfa -48 + ^ .ra: .cfa -56 + ^ x29: .cfa -64 + ^
STACK CFI 5b0a0 .cfa: sp 160 +
STACK CFI 5b0b4 .cfa: sp 0 +
STACK CFI 5b0b8 .cfa: x29 64 +
STACK CFI INIT 5b160 174 .cfa: sp 0 +
STACK CFI 5b164 .cfa: sp 112 +
STACK CFI 5b174 .cfa: x29 48 + x19: .cfa -8 + ^ x20: .cfa -16 + ^ x21: .cfa -32 + ^ .ra: .cfa -40 + ^ x29: .cfa -48 + ^
STACK CFI 5b270 .cfa: sp 112 +
STACK CFI 5b280 .cfa: sp 0 +
STACK CFI 5b284 .cfa: x29 48 +
STACK CFI INIT 5b730 470 .cfa: sp 0 +
STACK CFI 5b734 .cfa: sp 224 +
STACK CFI 5b750 .cfa: x29 96 + x19: .cfa -8 + ^ x20: .cfa -16 + ^ x21: .cfa -24 + ^ x22: .cfa -32 + ^ x23: .cfa -40 + ^ x24: .cfa -48 + ^ x25: .cfa -56 + ^ x26: .cfa -64 + ^ x27: .cfa -80 + ^ .ra: .cfa -88 + ^ x29: .cfa -96 + ^
STACK CFI 5b9ac .cfa: sp 224 +
STACK CFI 5b9c8 .cfa: sp 0 +
STACK CFI 5b9cc .cfa: x29 96 +
STACK CFI 5ba98 .cfa: sp 224 +
STACK CFI 5bab4 .cfa: sp 0 +
STACK CFI 5bab8 .cfa: x29 96 +
STACK CFI INIT 5bbbc 350 .cfa: sp 0 +
STACK CFI 5bbc0 .cfa: sp 208 +
STACK CFI 5bbd4 .cfa: x29 64 + x19: .cfa -8 + ^ x20: .cfa -16 + ^ x21: .cfa -24 + ^ x22: .cfa -32 + ^ x23: .cfa -48 + ^ .ra: .cfa -56 + ^ x29: .cfa -64 + ^
STACK CFI 5bde8 .cfa: sp 208 +
STACK CFI 5bdfc .cfa: sp 0 +
STACK CFI 5be00 .cfa: x29 64 +
STACK CFI INIT 5bf10 100 .cfa: sp 0 +
STACK CFI 5bf14 .cfa: sp 112 +
STACK CFI 5bf24 .cfa: x29 48 + x19: .cfa -8 + ^ x20: .cfa -16 + ^ x21: .cfa -32 + ^ .ra: .cfa -40 + ^ x29: .cfa -48 + ^
STACK CFI 5bfac .cfa: sp 112 +
STACK CFI 5bfbc .cfa: sp 0 +
STACK CFI 5bfc0 .cfa: x29 48 +
STACK CFI INIT 5c050 d8 .cfa: sp 0 +
STACK CFI 5c054 .cfa: sp 96 +
STACK CFI 5c060 .cfa: x29 32 + x19: .cfa -8 + ^ x20: .cfa -16 + ^ .ra: .cfa -24 + ^ x29: .cfa -32 + ^
STACK CFI 5c0c8 .cfa: sp 96 +
STACK CFI 5c0d4 .cfa: sp 0 +
STACK CFI 5c0d8 .cfa: x29 32 +
STACK CFI INIT 5c1cc a00 .cfa: sp 0 +
STACK CFI 5c1d0 .cfa: sp 416 +
STACK CFI 5c1e8 .cfa: x29 80 + x19: .cfa -8 + ^ x20: .cfa -16 + ^ x21: .cfa -24 + ^ x22: .cfa -32 + ^ x23: .cfa -40 + ^ x24: .cfa -48 + ^ x28: .cfa -64 + ^ .ra: .cfa -72 + ^ x29: .cfa -80 + ^
STACK CFI 5ca68 .cfa: sp 416 +
STACK CFI 5ca80 .cfa: sp 0 +
STACK CFI 5ca84 .cfa: x29 80 +
STACK CFI INIT 5cbcc 1c .cfa: sp 0 +
STACK CFI 5cbd0 .cfa: sp 16 +
STACK CFI 5cbd4 .cfa: x29 16 + .ra: .cfa -8 + ^ x29: .cfa -16 + ^
STACK CFI 5cbdc .cfa: sp 16 +
STACK CFI 5cbe0 .cfa: sp 0 +
STACK CFI 5cbe4 .cfa: x29 16 +
STACK CFI INIT 5cbe8 c4 .cfa: sp 0 +
STACK CFI 5cbec .cfa: sp 48 +
STACK CFI 5cbf8 .cfa: x29 48 + x19: .cfa -8 + ^ x20: .cfa -16 + ^ x21: .cfa -32 + ^ .ra: .cfa -40 + ^ x29: .cfa -48 + ^
STACK CFI 5cc64 .cfa: sp 48 +
STACK CFI 5cc70 .cfa: sp 0 +
STACK CFI 5cc74 .cfa: x29 48 +
STACK CFI 5cc98 .cfa: sp 48 +
STACK CFI 5cca4 .cfa: sp 0 +
STACK CFI 5cca8 .cfa: x29 48 +
STACK CFI INIT 5ccac 84 .cfa: sp 0 +
STACK CFI 5ccb0 .cfa: sp 48 +
STACK CFI 5ccbc .cfa: x29 48 + x19: .cfa -8 + ^ x20: .cfa -16 + ^ x21: .cfa -32 + ^ .ra: .cfa -40 + ^ x29: .cfa -48 + ^
STACK CFI 5ccdc .cfa: sp 48 +
STACK CFI 5cce8 .cfa: sp 0 +
STACK CFI 5ccec .cfa: x29 48 +
STACK CFI 5cd0c .cfa: sp 48 +
STACK CFI 5cd18 .cfa: sp 0 +
STACK CFI 5cd1c .cfa: sp 48 +
STACK CFI 5cd28 .cfa: sp 0 +
STACK CFI 5cd2c .cfa: x29 48 +
STACK CFI INIT 5cd30 94 .cfa: sp 0 +
STACK CFI 5cd34 .cfa: sp 48 +
STACK CFI 5cd40 .cfa: x29 48 + x19: .cfa -8 + ^ x20: .cfa -16 + ^ x21: .cfa -24 + ^ x22: .cfa -32 + ^ .ra: .cfa -40 + ^ x29: .cfa -48 + ^
STACK CFI 5cd48 .cfa: sp 48 +
STACK CFI 5cd54 .cfa: sp 0 +
STACK CFI 5cd58 .cfa: x29 48 +
STACK CFI 5cd7c .cfa: sp 48 +
STACK CFI 5cd88 .cfa: sp 0 +
STACK CFI 5cd8c .cfa: x29 48 +
STACK CFI 5cdb0 .cfa: sp 48 +
STACK CFI 5cdbc .cfa: sp 0 +
STACK CFI 5cdc0 .cfa: x29 48 +
STACK CFI INIT 5cdc4 48 .cfa: sp 0 +
STACK CFI 5cdc8 .cfa: sp 32 +
STACK CFI 5cdd0 .cfa: x29 32 + x19: .cfa -8 + ^ x20: .cfa -16 + ^ .ra: .cfa -24 + ^ x29: .cfa -32 + ^
STACK CFI 5cdd8 .cfa: sp 32 +
STACK CFI 5cde0 .cfa: sp 0 +
STACK CFI 5cde4 .cfa: x29 32 +
STACK CFI INIT 5ce98 118 .cfa: sp 0 +
STACK CFI 5ce9c .cfa: sp 80 +
STACK CFI 5ceac .cfa: x29 48 + x19: .cfa -8 + ^ x20: .cfa -16 + ^ x21: .cfa -32 + ^ .ra: .cfa -40 + ^ x29: .cfa -48 + ^
STACK CFI 5cf30 .cfa: sp 80 +
STACK CFI 5cf40 .cfa: sp 0 +
STACK CFI 5cf44 .cfa: x29 48 +
STACK CFI INIT 5cfb0 68c .cfa: sp 0 +
STACK CFI 5cfb4 .cfa: sp 256 +
STACK CFI 5cfc4 .cfa: x29 48 + x19: .cfa -8 + ^ x20: .cfa -16 + ^ x21: .cfa -24 + ^ x22: .cfa -32 + ^ .ra: .cfa -40 + ^ x29: .cfa -48 + ^
STACK CFI 5d4e8 .cfa: sp 256 +
STACK CFI 5d4f8 .cfa: sp 0 +
STACK CFI 5d4fc .cfa: x29 48 +
STACK CFI INIT 5d63c f8 .cfa: sp 0 +
STACK CFI 5d640 .cfa: sp 48 +
STACK CFI 5d64c .cfa: x29 48 + x19: .cfa -8 + ^ x20: .cfa -16 + ^ x21: .cfa -32 + ^ .ra: .cfa -40 + ^ x29: .cfa -48 + ^
STACK CFI 5d6b8 .cfa: sp 48 +
STACK CFI 5d6c4 .cfa: sp 0 +
STACK CFI 5d6c8 .cfa: x29 48 +
STACK CFI INIT 5d7e0 210 .cfa: sp 0 +
STACK CFI 5d7e4 .cfa: sp 64 +
STACK CFI 5d7f4 .cfa: x29 64 + x19: .cfa -8 + ^ x20: .cfa -16 + ^ x21: .cfa -24 + ^ x22: .cfa -32 + ^ x23: .cfa -40 + ^ x28: .cfa -48 + ^ .ra: .cfa -56 + ^ x29: .cfa -64 + ^
STACK CFI 5d998 .cfa: sp 64 +
STACK CFI 5d9a8 .cfa: sp 0 +
STACK CFI 5d9ac .cfa: x29 64 +
STACK CFI INIT 5dab8 320 .cfa: sp 0 +
STACK CFI 5dabc .cfa: sp 128 +
STACK CFI 5dad8 .cfa: x29 96 + x19: .cfa -8 + ^ x20: .cfa -16 + ^ x21: .cfa -24 + ^ x22: .cfa -32 + ^ x23: .cfa -40 + ^ x24: .cfa -48 + ^ x25: .cfa -56 + ^ x26: .cfa -64 + ^ x27: .cfa -80 + ^ .ra: .cfa -88 + ^ x29: .cfa -96 + ^
STACK CFI 5dd0c .cfa: sp 128 +
STACK CFI 5dd28 .cfa: sp 0 +
STACK CFI 5dd2c .cfa: x29 96 +
STACK CFI INIT 5e040 174 .cfa: sp 0 +
STACK CFI 5e044 .cfa: sp 112 +
STACK CFI 5e054 .cfa: x29 48 + x19: .cfa -8 + ^ x20: .cfa -16 + ^ x21: .cfa -32 + ^ .ra: .cfa -40 + ^ x29: .cfa -48 + ^
STACK CFI 5e150 .cfa: sp 112 +
STACK CFI 5e160 .cfa: sp 0 +
STACK CFI 5e164 .cfa: x29 48 +
STACK CFI INIT 5e350 19c .cfa: sp 0 +
STACK CFI 5e354 .cfa: sp 112 +
STACK CFI 5e364 .cfa: x29 48 + x19: .cfa -8 + ^ x20: .cfa -16 + ^ x21: .cfa -32 + ^ .ra: .cfa -40 + ^ x29: .cfa -48 + ^
STACK CFI 5e48c .cfa: sp 112 +
STACK CFI 5e49c .cfa: sp 0 +
STACK CFI 5e4a0 .cfa: x29 48 +
STACK CFI INIT 5e5c0 19c .cfa: sp 0 +
STACK CFI 5e5c4 .cfa: sp 112 +
STACK CFI 5e5d4 .cfa: x29 48 + x19: .cfa -8 + ^ x20: .cfa -16 + ^ x21: .cfa -32 + ^ .ra: .cfa -40 + ^ x29: .cfa -48 + ^
STACK CFI 5e6fc .cfa: sp 112 +
STACK CFI 5e70c .cfa: sp 0 +
STACK CFI 5e710 .cfa: x29 48 +
STACK CFI INIT 5e7e4 198 .cfa: sp 0 +
STACK CFI 5e7e8 .cfa: sp 112 +
STACK CFI 5e7f8 .cfa: x29 48 + x19: .cfa -8 + ^ x20: .cfa -16 + ^ x21: .cfa -32 + ^ .ra: .cfa -40 + ^ x29: .cfa -48 + ^
STACK CFI 5e91c .cfa: sp 112 +
STACK CFI 5e92c .cfa: sp 0 +
STACK CFI 5e930 .cfa: x29 48 +
STACK CFI INIT 5ea38 118 .cfa: sp 0 +
STACK CFI 5ea3c .cfa: sp 80 +
STACK CFI 5ea4c .cfa: x29 48 + x19: .cfa -8 + ^ x20: .cfa -16 + ^ x21: .cfa -32 + ^ .ra: .cfa -40 + ^ x29: .cfa -48 + ^
STACK CFI 5ead0 .cfa: sp 80 +
STACK CFI 5eae0 .cfa: sp 0 +
STACK CFI 5eae4 .cfa: x29 48 +
STACK CFI INIT 5eb50 130 .cfa: sp 0 +
STACK CFI 5eb54 .cfa: sp 96 +
STACK CFI 5eb68 .cfa: x29 48 + x19: .cfa -8 + ^ x20: .cfa -16 + ^ x21: .cfa -24 + ^ x22: .cfa -32 + ^ .ra: .cfa -40 + ^ x29: .cfa -48 + ^ v8: .cfa -64 + ^
STACK CFI 5ec30 .cfa: sp 96 +
STACK CFI 5ec44 .cfa: sp 0 +
STACK CFI 5ec48 .cfa: x29 48 +
STACK CFI INIT 5ec80 158 .cfa: sp 0 +
STACK CFI 5ec84 .cfa: sp 96 +
STACK CFI 5ec98 .cfa: x29 48 + x19: .cfa -8 + ^ x20: .cfa -16 + ^ x21: .cfa -24 + ^ x22: .cfa -32 + ^ .ra: .cfa -40 + ^ x29: .cfa -48 + ^ v8: .cfa -64 + ^
STACK CFI 5ed78 .cfa: sp 96 +
STACK CFI 5ed8c .cfa: sp 0 +
STACK CFI 5ed90 .cfa: x29 48 +
STACK CFI INIT 5ef44 38c .cfa: sp 0 +
STACK CFI 5ef48 .cfa: sp 192 +
STACK CFI 5ef64 .cfa: x29 96 + x19: .cfa -8 + ^ x20: .cfa -16 + ^ x21: .cfa -24 + ^ x22: .cfa -32 + ^ x23: .cfa -40 + ^ x24: .cfa -48 + ^ x25: .cfa -56 + ^ x26: .cfa -64 + ^ x27: .cfa -80 + ^ .ra: .cfa -88 + ^ x29: .cfa -96 + ^
STACK CFI 5f19c .cfa: sp 192 +
STACK CFI 5f1b8 .cfa: sp 0 +
STACK CFI 5f1bc .cfa: x29 96 +
STACK CFI INIT 5f2ec 124 .cfa: sp 0 +
STACK CFI 5f2f0 .cfa: sp 96 +
STACK CFI 5f304 .cfa: x29 40 + x19: .cfa -8 + ^ x20: .cfa -16 + ^ x21: .cfa -24 + ^ .ra: .cfa -32 + ^ x29: .cfa -40 + ^ v8: .cfa -48 + ^
STACK CFI 5f3b4 .cfa: sp 96 +
STACK CFI 5f3c8 .cfa: sp 0 +
STACK CFI 5f3cc .cfa: x29 40 +
STACK CFI INIT 5f484 74 .cfa: sp 0 +
STACK CFI 5f488 .cfa: sp 48 +
STACK CFI 5f494 .cfa: x29 32 + x19: .cfa -8 + ^ x20: .cfa -16 + ^ .ra: .cfa -24 + ^ x29: .cfa -32 + ^
STACK CFI 5f4e0 .cfa: sp 48 +
STACK CFI 5f4ec .cfa: sp 0 +
STACK CFI 5f4f0 .cfa: x29 32 +
STACK CFI INIT 5f52c 88 .cfa: sp 0 +
STACK CFI 5f530 .cfa: sp 32 +
STACK CFI 5f538 .cfa: x29 32 + x19: .cfa -8 + ^ x20: .cfa -16 + ^ .ra: .cfa -24 + ^ x29: .cfa -32 + ^
STACK CFI 5f570 .cfa: sp 32 +
STACK CFI 5f578 .cfa: sp 0 +
STACK CFI 5f57c .cfa: x29 32 +
STACK CFI 5f594 .cfa: sp 32 +
STACK CFI 5f59c .cfa: sp 0 +
STACK CFI 5f5a0 .cfa: x29 32 +
STACK CFI INIT 5f5b4 594 .cfa: sp 0 +
STACK CFI 5f5b8 .cfa: sp 80 +
STACK CFI 5f5cc .cfa: x29 64 + x19: .cfa -8 + ^ x20: .cfa -16 + ^ x21: .cfa -24 + ^ x22: .cfa -32 + ^ x23: .cfa -40 + ^ x28: .cfa -48 + ^ .ra: .cfa -56 + ^ x29: .cfa -64 + ^ v8: .cfa -80 + ^
STACK CFI 5faa0 .cfa: sp 80 +
STACK CFI 5fab4 .cfa: sp 0 +
STACK CFI 5fab8 .cfa: x29 64 +
STACK CFI INIT 5fb48 108 .cfa: sp 0 +
STACK CFI 5fb4c .cfa: sp 80 +
STACK CFI 5fb60 .cfa: x29 64 + x19: .cfa -8 + ^ x20: .cfa -16 + ^ x21: .cfa -24 + ^ x22: .cfa -32 + ^ x23: .cfa -48 + ^ .ra: .cfa -56 + ^ x29: .cfa -64 + ^
STACK CFI 5fc10 .cfa: sp 80 +
STACK CFI 5fc24 .cfa: sp 0 +
STACK CFI 5fc28 .cfa: x29 64 +
STACK CFI INIT 5fc50 42c .cfa: sp 0 +
STACK CFI 5fc54 .cfa: sp 64 +
STACK CFI 5fc64 .cfa: x29 64 + x19: .cfa -8 + ^ x20: .cfa -16 + ^ x21: .cfa -24 + ^ x22: .cfa -32 + ^ x23: .cfa -40 + ^ x28: .cfa -48 + ^ .ra: .cfa -56 + ^ x29: .cfa -64 + ^
STACK CFI 5ffac .cfa: sp 64 +
STACK CFI 5ffbc .cfa: sp 0 +
STACK CFI 5ffc0 .cfa: x29 64 +
STACK CFI INIT 60164 90 .cfa: sp 0 +
STACK CFI 60168 .cfa: sp 32 +
STACK CFI 60170 .cfa: x29 32 + x19: .cfa -8 + ^ x20: .cfa -16 + ^ .ra: .cfa -24 + ^ x29: .cfa -32 + ^
STACK CFI 601b0 .cfa: sp 32 +
STACK CFI 601b8 .cfa: sp 0 +
STACK CFI 601bc .cfa: x29 32 +
STACK CFI 601d4 .cfa: sp 32 +
STACK CFI 601dc .cfa: sp 0 +
STACK CFI 601e0 .cfa: x29 32 +
STACK CFI INIT 601f4 460 .cfa: sp 0 +
STACK CFI 601f8 .cfa: sp 112 +
STACK CFI 60210 .cfa: x29 48 + x19: .cfa -8 + ^ x20: .cfa -16 + ^ x21: .cfa -24 + ^ x22: .cfa -32 + ^ .ra: .cfa -40 + ^ x29: .cfa -48 + ^ v8: .cfa -56 + ^ v9: .cfa -64 + ^ v10: .cfa -72 + ^ v11: .cfa -80 + ^
STACK CFI 605f4 .cfa: sp 112 +
STACK CFI 6060c .cfa: sp 0 +
STACK CFI 60610 .cfa: x29 48 +
STACK CFI INIT 606d4 144 .cfa: sp 0 +
STACK CFI 606d8 .cfa: sp 128 +
STACK CFI 606e8 .cfa: x29 48 + x19: .cfa -8 + ^ x20: .cfa -16 + ^ x21: .cfa -24 + ^ x22: .cfa -32 + ^ .ra: .cfa -40 + ^ x29: .cfa -48 + ^
STACK CFI 607d4 .cfa: sp 128 +
STACK CFI 607e4 .cfa: sp 0 +
STACK CFI 607e8 .cfa: x29 48 +
STACK CFI INIT 60818 238 .cfa: sp 0 +
STACK CFI 6081c .cfa: sp 144 +
STACK CFI 60830 .cfa: x29 64 + x19: .cfa -8 + ^ x20: .cfa -16 + ^ x21: .cfa -24 + ^ x22: .cfa -32 + ^ x23: .cfa -48 + ^ .ra: .cfa -56 + ^ x29: .cfa -64 + ^
STACK CFI 60a08 .cfa: sp 144 +
STACK CFI 60a1c .cfa: sp 0 +
STACK CFI 60a20 .cfa: x29 64 +
STACK CFI INIT 60a8c a0 .cfa: sp 0 +
STACK CFI 60a90 .cfa: sp 48 +
STACK CFI 60a9c .cfa: x29 32 + x19: .cfa -8 + ^ x20: .cfa -16 + ^ .ra: .cfa -24 + ^ x29: .cfa -32 + ^ v8: .cfa -48 + ^
STACK CFI 60ae0 .cfa: sp 48 +
STACK CFI 60aec .cfa: sp 0 +
STACK CFI 60af0 .cfa: x29 32 +
STACK CFI 60b08 .cfa: sp 48 +
STACK CFI 60b14 .cfa: sp 0 +
STACK CFI 60b18 .cfa: x29 32 +
STACK CFI INIT 60b2c 3e4 .cfa: sp 0 +
STACK CFI 60b30 .cfa: sp 128 +
STACK CFI 60b48 .cfa: x29 48 + x19: .cfa -8 + ^ x20: .cfa -16 + ^ x21: .cfa -24 + ^ x22: .cfa -32 + ^ .ra: .cfa -40 + ^ x29: .cfa -48 + ^ v8: .cfa -56 + ^ v9: .cfa -64 + ^ v10: .cfa -80 + ^
STACK CFI 60eb8 .cfa: sp 128 +
STACK CFI 60ed0 .cfa: sp 0 +
STACK CFI 60ed4 .cfa: x29 48 +
STACK CFI INIT 61000 120 .cfa: sp 0 +
STACK CFI 61004 .cfa: sp 64 +
STACK CFI 61010 .cfa: x29 32 + x19: .cfa -8 + ^ x20: .cfa -16 + ^ .ra: .cfa -24 + ^ x29: .cfa -32 + ^
STACK CFI 610e8 .cfa: sp 64 +
STACK CFI 610f4 .cfa: sp 0 +
STACK CFI 610f8 .cfa: x29 32 +
STACK CFI INIT 611ec 123c .cfa: sp 0 +
STACK CFI 611f0 .cfa: sp 80 +
STACK CFI 61204 .cfa: x29 64 + x19: .cfa -8 + ^ x20: .cfa -16 + ^ x21: .cfa -24 + ^ x22: .cfa -32 + ^ x23: .cfa -40 + ^ x28: .cfa -48 + ^ .ra: .cfa -56 + ^ x29: .cfa -64 + ^ v8: .cfa -80 + ^
STACK CFI 62224 .cfa: sp 80 +
STACK CFI 62238 .cfa: sp 0 +
STACK CFI 6223c .cfa: x29 64 +
STACK CFI INIT 62658 288 .cfa: sp 0 +
STACK CFI 6265c .cfa: sp 80 +
STACK CFI 62670 .cfa: x29 40 + x19: .cfa -8 + ^ x20: .cfa -16 + ^ x21: .cfa -24 + ^ .ra: .cfa -32 + ^ x29: .cfa -40 + ^ v8: .cfa -48 + ^
STACK CFI 62894 .cfa: sp 80 +
STACK CFI 628a8 .cfa: sp 0 +
STACK CFI 628ac .cfa: x29 40 +
STACK CFI INIT 628e0 92c .cfa: sp 0 +
STACK CFI 628e4 .cfa: sp 80 +
STACK CFI 628f8 .cfa: x29 64 + x19: .cfa -8 + ^ x20: .cfa -16 + ^ x21: .cfa -24 + ^ x22: .cfa -32 + ^ x23: .cfa -40 + ^ x28: .cfa -48 + ^ .ra: .cfa -56 + ^ x29: .cfa -64 + ^ v8: .cfa -80 + ^
STACK CFI 6309c .cfa: sp 80 +
STACK CFI 630b0 .cfa: sp 0 +
STACK CFI 630b4 .cfa: x29 64 +
STACK CFI INIT 6320c 190 .cfa: sp 0 +
STACK CFI 63210 .cfa: sp 96 +
STACK CFI 63220 .cfa: x29 48 + x19: .cfa -8 + ^ x20: .cfa -16 + ^ x21: .cfa -24 + ^ x22: .cfa -32 + ^ .ra: .cfa -40 + ^ x29: .cfa -48 + ^
STACK CFI 63318 .cfa: sp 96 +
STACK CFI 63328 .cfa: sp 0 +
STACK CFI 6332c .cfa: x29 48 +
STACK CFI INIT 63470 d8 .cfa: sp 0 +
STACK CFI 63474 .cfa: sp 32 +
STACK CFI 6347c .cfa: x29 32 + x19: .cfa -8 + ^ x20: .cfa -16 + ^ .ra: .cfa -24 + ^ x29: .cfa -32 + ^
STACK CFI 63538 .cfa: sp 32 +
STACK CFI 63540 .cfa: sp 0 +
STACK CFI 63544 .cfa: x29 32 +
STACK CFI INIT 63548 e0 .cfa: sp 0 +
STACK CFI 6354c .cfa: sp 32 +
STACK CFI 63554 .cfa: x29 32 + x19: .cfa -8 + ^ x20: .cfa -16 + ^ .ra: .cfa -24 + ^ x29: .cfa -32 + ^
STACK CFI 63618 .cfa: sp 32 +
STACK CFI 63620 .cfa: sp 0 +
STACK CFI 63624 .cfa: x29 32 +
STACK CFI INIT 63688 134 .cfa: sp 0 +
STACK CFI 6368c .cfa: sp 96 +
STACK CFI 6369c .cfa: x29 48 + x19: .cfa -8 + ^ x20: .cfa -16 + ^ x21: .cfa -32 + ^ .ra: .cfa -40 + ^ x29: .cfa -48 + ^
STACK CFI 63770 .cfa: sp 96 +
STACK CFI 63780 .cfa: sp 0 +
STACK CFI 63784 .cfa: x29 48 +
STACK CFI INIT 637bc e4 .cfa: sp 0 +
STACK CFI 637c0 .cfa: sp 48 +
STACK CFI 637cc .cfa: x29 48 + x19: .cfa -8 + ^ x20: .cfa -16 + ^ x21: .cfa -32 + ^ .ra: .cfa -40 + ^ x29: .cfa -48 + ^
STACK CFI 6388c .cfa: sp 48 +
STACK CFI 63898 .cfa: sp 0 +
STACK CFI 6389c .cfa: x29 48 +
STACK CFI INIT 638a0 ec .cfa: sp 0 +
STACK CFI 638a4 .cfa: sp 48 +
STACK CFI 638b0 .cfa: x29 48 + x19: .cfa -8 + ^ x20: .cfa -16 + ^ x21: .cfa -32 + ^ .ra: .cfa -40 + ^ x29: .cfa -48 + ^
STACK CFI 63978 .cfa: sp 48 +
STACK CFI 63984 .cfa: sp 0 +
STACK CFI 63988 .cfa: x29 48 +
STACK CFI INIT 639d4 6c .cfa: sp 0 +
STACK CFI 639d8 .cfa: sp 32 +
STACK CFI 639e0 .cfa: x29 32 + x19: .cfa -16 + ^ .ra: .cfa -24 + ^ x29: .cfa -32 + ^
STACK CFI 63a30 .cfa: sp 32 +
STACK CFI 63a38 .cfa: sp 0 +
STACK CFI 63a3c .cfa: x29 32 +
STACK CFI INIT 63a44 6c .cfa: sp 0 +
STACK CFI 63a48 .cfa: sp 32 +
STACK CFI 63a50 .cfa: x29 32 + x19: .cfa -16 + ^ .ra: .cfa -24 + ^ x29: .cfa -32 + ^
STACK CFI 63aa0 .cfa: sp 32 +
STACK CFI 63aa8 .cfa: sp 0 +
STACK CFI 63aac .cfa: x29 32 +
STACK CFI INIT 63fa4 3c0 .cfa: sp 0 +
STACK CFI 63fa8 .cfa: sp 304 +
STACK CFI 63fc4 .cfa: x29 96 + x19: .cfa -8 + ^ x20: .cfa -16 + ^ x21: .cfa -24 + ^ x22: .cfa -32 + ^ x23: .cfa -40 + ^ x24: .cfa -48 + ^ x25: .cfa -56 + ^ x26: .cfa -64 + ^ x28: .cfa -80 + ^ .ra: .cfa -88 + ^ x29: .cfa -96 + ^
STACK CFI 642e4 .cfa: sp 304 +
STACK CFI 64300 .cfa: sp 0 +
STACK CFI 64304 .cfa: x29 96 +
STACK CFI INIT 6466c 618 .cfa: sp 0 +
STACK CFI 64670 .cfa: sp 128 +
STACK CFI 6468c .cfa: x29 96 + x19: .cfa -8 + ^ x20: .cfa -16 + ^ x21: .cfa -24 + ^ x22: .cfa -32 + ^ x23: .cfa -40 + ^ x24: .cfa -48 + ^ x25: .cfa -56 + ^ x26: .cfa -64 + ^ x27: .cfa -72 + ^ x28: .cfa -80 + ^ .ra: .cfa -88 + ^ x29: .cfa -96 + ^
STACK CFI 64c24 .cfa: sp 128 +
STACK CFI 64c40 .cfa: sp 0 +
STACK CFI 64c44 .cfa: x29 96 +
STACK CFI INIT 77ac4 134 .cfa: sp 0 +
STACK CFI 77ac8 .cfa: sp 80 +
STACK CFI 77ad4 .cfa: x29 32 + x19: .cfa -8 + ^ x20: .cfa -16 + ^ .ra: .cfa -24 + ^ x29: .cfa -32 + ^
STACK CFI 77b04 .cfa: sp 80 +
STACK CFI 77b10 .cfa: sp 0 +
STACK CFI 77b14 .cfa: x29 32 +
STACK CFI INIT 77bf8 78 .cfa: sp 0 +
STACK CFI 77bfc .cfa: sp 32 +
STACK CFI 77c04 .cfa: x29 32 + x19: .cfa -8 + ^ x20: .cfa -16 + ^ .ra: .cfa -24 + ^ x29: .cfa -32 + ^
STACK CFI 77c10 .cfa: sp 32 +
STACK CFI 77c18 .cfa: sp 0 +
STACK CFI 77c1c .cfa: x29 32 +
STACK CFI INIT 77c70 74 .cfa: sp 0 +
STACK CFI 77c74 .cfa: sp 48 +
STACK CFI 77c80 .cfa: x29 32 + x19: .cfa -8 + ^ x20: .cfa -16 + ^ .ra: .cfa -24 + ^ x29: .cfa -32 + ^
STACK CFI 77ccc .cfa: sp 48 +
STACK CFI 77cd8 .cfa: sp 0 +
STACK CFI 77cdc .cfa: x29 32 +
STACK CFI INIT 77d6c 25c .cfa: sp 0 +
STACK CFI 77d70 .cfa: sp 128 +
STACK CFI 77d80 .cfa: x29 48 + x19: .cfa -8 + ^ x20: .cfa -16 + ^ x21: .cfa -32 + ^ .ra: .cfa -40 + ^ x29: .cfa -48 + ^
STACK CFI 77e68 .cfa: sp 128 +
STACK CFI 77e78 .cfa: sp 0 +
STACK CFI 77e7c .cfa: x29 48 +
STACK CFI INIT 77fec 26c .cfa: sp 0 +
STACK CFI 77ff0 .cfa: sp 128 +
STACK CFI 78000 .cfa: x29 48 + x19: .cfa -8 + ^ x20: .cfa -16 + ^ x21: .cfa -32 + ^ .ra: .cfa -40 + ^ x29: .cfa -48 + ^
STACK CFI 780f8 .cfa: sp 128 +
STACK CFI 78108 .cfa: sp 0 +
STACK CFI 7810c .cfa: x29 48 +
STACK CFI INIT 782d0 300 .cfa: sp 0 +
STACK CFI 782d4 .cfa: sp 144 +
STACK CFI 782e8 .cfa: x29 64 + x19: .cfa -8 + ^ x20: .cfa -16 + ^ x21: .cfa -24 + ^ x22: .cfa -32 + ^ x23: .cfa -48 + ^ .ra: .cfa -56 + ^ x29: .cfa -64 + ^
STACK CFI 7847c .cfa: sp 144 +
STACK CFI 78490 .cfa: sp 0 +
STACK CFI 78494 .cfa: x29 64 +
STACK CFI INIT 78624 264 .cfa: sp 0 +
STACK CFI 78628 .cfa: sp 128 +
STACK CFI 78638 .cfa: x29 48 + x19: .cfa -8 + ^ x20: .cfa -16 + ^ x21: .cfa -32 + ^ .ra: .cfa -40 + ^ x29: .cfa -48 + ^
STACK CFI 78730 .cfa: sp 128 +
STACK CFI 78740 .cfa: sp 0 +
STACK CFI 78744 .cfa: x29 48 +
STACK CFI INIT 788dc 270 .cfa: sp 0 +
STACK CFI 788e0 .cfa: sp 144 +
STACK CFI 788f4 .cfa: x29 64 + x19: .cfa -8 + ^ x20: .cfa -16 + ^ x21: .cfa -24 + ^ x22: .cfa -32 + ^ x23: .cfa -48 + ^ .ra: .cfa -56 + ^ x29: .cfa -64 + ^
STACK CFI 789f8 .cfa: sp 144 +
STACK CFI 78a0c .cfa: sp 0 +
STACK CFI 78a10 .cfa: x29 64 +
STACK CFI INIT 78b70 22c .cfa: sp 0 +
STACK CFI 78b74 .cfa: sp 128 +
STACK CFI 78b84 .cfa: x29 48 + x19: .cfa -8 + ^ x20: .cfa -16 + ^ x21: .cfa -32 + ^ .ra: .cfa -40 + ^ x29: .cfa -48 + ^
STACK CFI 78c3c .cfa: sp 128 +
STACK CFI 78c4c .cfa: sp 0 +
STACK CFI 78c50 .cfa: x29 48 +
STACK CFI INIT 78d9c 224 .cfa: sp 0 +
STACK CFI 78da0 .cfa: sp 128 +
STACK CFI 78db0 .cfa: x29 48 + x19: .cfa -8 + ^ x20: .cfa -16 + ^ x21: .cfa -32 + ^ .ra: .cfa -40 + ^ x29: .cfa -48 + ^
STACK CFI 78e60 .cfa: sp 128 +
STACK CFI 78e70 .cfa: sp 0 +
STACK CFI 78e74 .cfa: x29 48 +
STACK CFI INIT 78fc0 268 .cfa: sp 0 +
STACK CFI 78fc4 .cfa: sp 144 +
STACK CFI 78fd8 .cfa: x29 64 + x19: .cfa -8 + ^ x20: .cfa -16 + ^ x21: .cfa -24 + ^ x22: .cfa -32 + ^ x23: .cfa -48 + ^ .ra: .cfa -56 + ^ x29: .cfa -64 + ^
STACK CFI 790d4 .cfa: sp 144 +
STACK CFI 790e8 .cfa: sp 0 +
STACK CFI 790ec .cfa: x29 64 +
STACK CFI INIT 7933c 2b8 .cfa: sp 0 +
STACK CFI 79340 .cfa: sp 144 +
STACK CFI 79354 .cfa: x29 64 + x19: .cfa -8 + ^ x20: .cfa -16 + ^ x21: .cfa -24 + ^ x22: .cfa -32 + ^ x23: .cfa -48 + ^ .ra: .cfa -56 + ^ x29: .cfa -64 + ^
STACK CFI 794a0 .cfa: sp 144 +
STACK CFI 794b4 .cfa: sp 0 +
STACK CFI 794b8 .cfa: x29 64 +
STACK CFI INIT 7964c 2e4 .cfa: sp 0 +
STACK CFI 79650 .cfa: sp 144 +
STACK CFI 79664 .cfa: x29 64 + x19: .cfa -8 + ^ x20: .cfa -16 + ^ x21: .cfa -24 + ^ x22: .cfa -32 + ^ x23: .cfa -48 + ^ .ra: .cfa -56 + ^ x29: .cfa -64 + ^
STACK CFI 797dc .cfa: sp 144 +
STACK CFI 797f0 .cfa: sp 0 +
STACK CFI 797f4 .cfa: x29 64 +
STACK CFI INIT 79930 2e4 .cfa: sp 0 +
STACK CFI 79934 .cfa: sp 144 +
STACK CFI 79948 .cfa: x29 64 + x19: .cfa -8 + ^ x20: .cfa -16 + ^ x21: .cfa -24 + ^ x22: .cfa -32 + ^ x23: .cfa -48 + ^ .ra: .cfa -56 + ^ x29: .cfa -64 + ^
STACK CFI 79ac0 .cfa: sp 144 +
STACK CFI 79ad4 .cfa: sp 0 +
STACK CFI 79ad8 .cfa: x29 64 +
STACK CFI INIT 79c14 2a0 .cfa: sp 0 +
STACK CFI 79c18 .cfa: sp 144 +
STACK CFI 79c2c .cfa: x29 64 + x19: .cfa -8 + ^ x20: .cfa -16 + ^ x21: .cfa -24 + ^ x22: .cfa -32 + ^ x23: .cfa -48 + ^ .ra: .cfa -56 + ^ x29: .cfa -64 + ^
STACK CFI 79d60 .cfa: sp 144 +
STACK CFI 79d74 .cfa: sp 0 +
STACK CFI 79d78 .cfa: x29 64 +
STACK CFI INIT 79eb4 2f0 .cfa: sp 0 +
STACK CFI 79eb8 .cfa: sp 144 +
STACK CFI 79ecc .cfa: x29 64 + x19: .cfa -8 + ^ x20: .cfa -16 + ^ x21: .cfa -24 + ^ x22: .cfa -32 + ^ x23: .cfa -48 + ^ .ra: .cfa -56 + ^ x29: .cfa -64 + ^
STACK CFI 7a050 .cfa: sp 144 +
STACK CFI 7a064 .cfa: sp 0 +
STACK CFI 7a068 .cfa: x29 64 +
STACK CFI INIT 7a1a4 4f4 .cfa: sp 0 +
STACK CFI 7a1a8 .cfa: sp 144 +
STACK CFI 7a1bc .cfa: x29 64 + x19: .cfa -8 + ^ x20: .cfa -16 + ^ x21: .cfa -24 + ^ x22: .cfa -32 + ^ x23: .cfa -48 + ^ .ra: .cfa -56 + ^ x29: .cfa -64 + ^
STACK CFI 7a4f0 .cfa: sp 144 +
STACK CFI 7a504 .cfa: sp 0 +
STACK CFI 7a508 .cfa: x29 64 +
STACK CFI INIT 7a698 154 .cfa: sp 0 +
STACK CFI 7a69c .cfa: sp 384 +
STACK CFI 7a6b0 .cfa: x29 64 + x19: .cfa -8 + ^ x20: .cfa -16 + ^ x21: .cfa -24 + ^ x22: .cfa -32 + ^ x23: .cfa -40 + ^ x28: .cfa -48 + ^ .ra: .cfa -56 + ^ x29: .cfa -64 + ^
STACK CFI 7a794 .cfa: sp 384 +
STACK CFI 7a7a8 .cfa: sp 0 +
STACK CFI 7a7ac .cfa: x29 64 +
STACK CFI INIT 7a804 50c .cfa: sp 0 +
STACK CFI 7a808 .cfa: sp 64 +
STACK CFI 7a818 .cfa: x29 64 + x19: .cfa -8 + ^ x20: .cfa -16 + ^ x21: .cfa -24 + ^ x22: .cfa -32 + ^ x23: .cfa -40 + ^ x24: .cfa -48 + ^ .ra: .cfa -56 + ^ x29: .cfa -64 + ^
STACK CFI 7a938 .cfa: sp 64 +
STACK CFI 7a948 .cfa: sp 0 +
STACK CFI 7a94c .cfa: x29 64 +
STACK CFI 7ace4 .cfa: sp 64 +
STACK CFI 7acf4 .cfa: sp 0 +
STACK CFI 7acf8 .cfa: x29 64 +
STACK CFI INIT 7b040 294 .cfa: sp 0 +
STACK CFI 7b044 .cfa: sp 240 +
STACK CFI 7b05c .cfa: x29 80 + x19: .cfa -8 + ^ x20: .cfa -16 + ^ x21: .cfa -24 + ^ x22: .cfa -32 + ^ x23: .cfa -40 + ^ x24: .cfa -48 + ^ x25: .cfa -64 + ^ .ra: .cfa -72 + ^ x29: .cfa -80 + ^
STACK CFI 7b1fc .cfa: sp 240 +
STACK CFI 7b214 .cfa: sp 0 +
STACK CFI 7b218 .cfa: x29 80 +
STACK CFI INIT 7b350 50 .cfa: sp 0 +
STACK CFI 7b354 .cfa: sp 32 +
STACK CFI 7b35c .cfa: x29 32 + x19: .cfa -8 + ^ x20: .cfa -16 + ^ .ra: .cfa -24 + ^ x29: .cfa -32 + ^
STACK CFI INIT 7b3cc 7c0 .cfa: sp 0 +
STACK CFI 7b3d0 .cfa: sp 320 +
STACK CFI 7b3ec .cfa: x29 96 + x19: .cfa -8 + ^ x20: .cfa -16 + ^ x21: .cfa -24 + ^ x22: .cfa -32 + ^ x23: .cfa -40 + ^ x24: .cfa -48 + ^ x25: .cfa -56 + ^ x26: .cfa -64 + ^ x27: .cfa -72 + ^ x28: .cfa -80 + ^ .ra: .cfa -88 + ^ x29: .cfa -96 + ^
STACK CFI 7ba3c .cfa: sp 320 +
STACK CFI 7ba58 .cfa: sp 0 +
STACK CFI 7ba5c .cfa: x29 96 +
STACK CFI INIT 7bbf0 14c .cfa: sp 0 +
STACK CFI 7bbf4 .cfa: sp 80 +
STACK CFI 7bc08 .cfa: x29 80 + x19: .cfa -8 + ^ x20: .cfa -16 + ^ x21: .cfa -24 + ^ x22: .cfa -32 + ^ x23: .cfa -40 + ^ x24: .cfa -48 + ^ x28: .cfa -64 + ^ .ra: .cfa -72 + ^ x29: .cfa -80 + ^
STACK CFI 7bc9c .cfa: sp 80 +
STACK CFI 7bcb0 .cfa: sp 0 +
STACK CFI 7bcb4 .cfa: x29 80 +
STACK CFI INIT 80044 c74 .cfa: sp 0 +
STACK CFI 80048 .cfa: sp 96 +
STACK CFI 80060 .cfa: x29 96 + x19: .cfa -8 + ^ x20: .cfa -16 + ^ x21: .cfa -24 + ^ x22: .cfa -32 + ^ x23: .cfa -40 + ^ x24: .cfa -48 + ^ x25: .cfa -56 + ^ x26: .cfa -64 + ^ x27: .cfa -72 + ^ x28: .cfa -80 + ^ .ra: .cfa -88 + ^ x29: .cfa -96 + ^
STACK CFI 80ad4 .cfa: sp 96 +
STACK CFI 80aec .cfa: sp 0 +
STACK CFI 80af0 .cfa: x29 96 +
STACK CFI INIT 80e0c 268 .cfa: sp 0 +
STACK CFI 80e10 .cfa: sp 128 +
STACK CFI 80e20 .cfa: x29 48 + x19: .cfa -8 + ^ x20: .cfa -16 + ^ x21: .cfa -24 + ^ x22: .cfa -32 + ^ .ra: .cfa -40 + ^ x29: .cfa -48 + ^
STACK CFI 80fc0 .cfa: sp 128 +
STACK CFI 80fd0 .cfa: sp 0 +
STACK CFI 80fd4 .cfa: x29 48 +
STACK CFI INIT 81404 3b8 .cfa: sp 0 +
STACK CFI 81408 .cfa: sp 96 +
STACK CFI 81420 .cfa: x29 96 + x19: .cfa -8 + ^ x20: .cfa -16 + ^ x21: .cfa -24 + ^ x22: .cfa -32 + ^ x23: .cfa -40 + ^ x24: .cfa -48 + ^ x25: .cfa -56 + ^ x26: .cfa -64 + ^ x27: .cfa -72 + ^ x28: .cfa -80 + ^ .ra: .cfa -88 + ^ x29: .cfa -96 + ^
STACK CFI 8175c .cfa: sp 96 +
STACK CFI 81774 .cfa: sp 0 +
STACK CFI 81778 .cfa: x29 96 +
STACK CFI INIT 8185c cb0 .cfa: sp 0 +
STACK CFI 81860 .cfa: sp 96 +
STACK CFI 81878 .cfa: x29 96 + x19: .cfa -8 + ^ x20: .cfa -16 + ^ x21: .cfa -24 + ^ x22: .cfa -32 + ^ x23: .cfa -40 + ^ x24: .cfa -48 + ^ x25: .cfa -56 + ^ x26: .cfa -64 + ^ x27: .cfa -72 + ^ x28: .cfa -80 + ^ .ra: .cfa -88 + ^ x29: .cfa -96 + ^
STACK CFI 8231c .cfa: sp 96 +
STACK CFI 82334 .cfa: sp 0 +
STACK CFI 82338 .cfa: x29 96 +
STACK CFI INIT 827f4 ae4 .cfa: sp 0 +
STACK CFI 827f8 .cfa: sp 96 +
STACK CFI 82810 .cfa: x29 96 + x19: .cfa -8 + ^ x20: .cfa -16 + ^ x21: .cfa -24 + ^ x22: .cfa -32 + ^ x23: .cfa -40 + ^ x24: .cfa -48 + ^ x25: .cfa -56 + ^ x26: .cfa -64 + ^ x27: .cfa -72 + ^ x28: .cfa -80 + ^ .ra: .cfa -88 + ^ x29: .cfa -96 + ^
STACK CFI 8324c .cfa: sp 96 +
STACK CFI 83264 .cfa: sp 0 +
STACK CFI 83268 .cfa: x29 96 +
STACK CFI INIT 834b4 1424 .cfa: sp 0 +
STACK CFI 834b8 .cfa: sp 96 +
STACK CFI 834d0 .cfa: x29 96 + x19: .cfa -8 + ^ x20: .cfa -16 + ^ x21: .cfa -24 + ^ x22: .cfa -32 + ^ x23: .cfa -40 + ^ x24: .cfa -48 + ^ x25: .cfa -56 + ^ x26: .cfa -64 + ^ x27: .cfa -72 + ^ x28: .cfa -80 + ^ .ra: .cfa -88 + ^ x29: .cfa -96 + ^
STACK CFI 84768 .cfa: sp 96 +
STACK CFI 84780 .cfa: sp 0 +
STACK CFI 84784 .cfa: x29 96 +
STACK CFI INIT 849fc 75c .cfa: sp 0 +
STACK CFI 84a00 .cfa: sp 368 +
STACK CFI 84a1c .cfa: x29 96 + x19: .cfa -8 + ^ x20: .cfa -16 + ^ x21: .cfa -24 + ^ x22: .cfa -32 + ^ x23: .cfa -40 + ^ x24: .cfa -48 + ^ x25: .cfa -56 + ^ x26: .cfa -64 + ^ x27: .cfa -72 + ^ x28: .cfa -80 + ^ .ra: .cfa -88 + ^ x29: .cfa -96 + ^
STACK CFI 84ad0 .cfa: sp 368 +
STACK CFI 84aec .cfa: sp 0 +
STACK CFI 84af0 .cfa: x29 96 +
STACK CFI 84b44 .cfa: sp 368 +
STACK CFI 84b60 .cfa: sp 0 +
STACK CFI 84b64 .cfa: x29 96 +
STACK CFI INIT 8551c eac .cfa: sp 0 +
STACK CFI 85520 .cfa: sp 96 +
STACK CFI 85538 .cfa: x29 96 + x19: .cfa -8 + ^ x20: .cfa -16 + ^ x21: .cfa -24 + ^ x22: .cfa -32 + ^ x23: .cfa -40 + ^ x24: .cfa -48 + ^ x25: .cfa -56 + ^ x26: .cfa -64 + ^ x27: .cfa -72 + ^ x28: .cfa -80 + ^ .ra: .cfa -88 + ^ x29: .cfa -96 + ^
STACK CFI 861dc .cfa: sp 96 +
STACK CFI 861f4 .cfa: sp 0 +
STACK CFI 861f8 .cfa: x29 96 +
STACK CFI INIT 8673c 1c64 .cfa: sp 0 +
STACK CFI 86740 .cfa: sp 112 +
STACK CFI 8675c .cfa: x29 96 + x19: .cfa -8 + ^ x20: .cfa -16 + ^ x21: .cfa -24 + ^ x22: .cfa -32 + ^ x23: .cfa -40 + ^ x24: .cfa -48 + ^ x25: .cfa -56 + ^ x26: .cfa -64 + ^ x27: .cfa -72 + ^ x28: .cfa -80 + ^ .ra: .cfa -88 + ^ x29: .cfa -96 + ^ v8: .cfa -112 + ^
STACK CFI 86b30 .cfa: sp 112 +
STACK CFI 86b4c .cfa: sp 0 +
STACK CFI 86b50 .cfa: x29 96 +
STACK CFI INIT 8ab38 a4c .cfa: sp 0 +
STACK CFI 8ab3c .cfa: sp 144 +
STACK CFI 8ab54 .cfa: x29 80 + x19: .cfa -8 + ^ x20: .cfa -16 + ^ x21: .cfa -24 + ^ x22: .cfa -32 + ^ x23: .cfa -40 + ^ x24: .cfa -48 + ^ x25: .cfa -64 + ^ .ra: .cfa -72 + ^ x29: .cfa -80 + ^
STACK CFI 8b4dc .cfa: sp 144 +
STACK CFI 8b4f4 .cfa: sp 0 +
STACK CFI 8b4f8 .cfa: x29 80 +
STACK CFI INIT 8ca18 57c .cfa: sp 0 +
STACK CFI 8ca1c .cfa: sp 96 +
STACK CFI 8ca34 .cfa: x29 96 + x19: .cfa -8 + ^ x20: .cfa -16 + ^ x21: .cfa -24 + ^ x22: .cfa -32 + ^ x23: .cfa -40 + ^ x24: .cfa -48 + ^ x25: .cfa -56 + ^ x26: .cfa -64 + ^ x27: .cfa -72 + ^ x28: .cfa -80 + ^ .ra: .cfa -88 + ^ x29: .cfa -96 + ^
STACK CFI 8cef8 .cfa: sp 96 +
STACK CFI 8cf10 .cfa: sp 0 +
STACK CFI 8cf14 .cfa: x29 96 +
STACK CFI INIT 8cf94 67c .cfa: sp 0 +
STACK CFI 8cf98 .cfa: sp 96 +
STACK CFI 8cfb0 .cfa: x29 96 + x19: .cfa -8 + ^ x20: .cfa -16 + ^ x21: .cfa -24 + ^ x22: .cfa -32 + ^ x23: .cfa -40 + ^ x24: .cfa -48 + ^ x25: .cfa -56 + ^ x26: .cfa -64 + ^ x27: .cfa -72 + ^ x28: .cfa -80 + ^ .ra: .cfa -88 + ^ x29: .cfa -96 + ^
STACK CFI 8d574 .cfa: sp 96 +
STACK CFI 8d58c .cfa: sp 0 +
STACK CFI 8d590 .cfa: x29 96 +
