MODULE Linux arm64 9E0F041B7F7D88942014FFAF785241590 raydeeux.camerashadertoggles.android64.so
INFO CODE_ID 1B040F9E7D7F94882014FFAF7852415962E240E1
INFO GENERATOR mozilla/dump_syms 2.3.4
PUBLIC 3b30 0 __on_dlclose
PUBLIC 3b40 0 __emutls_unregister_key
PUBLIC 3b48 0 __on_dlclose_late
PUBLIC 3b50 0 __atexit_handler_wrapper
PUBLIC 3b64 0 atexit
PUBLIC 3b80 0 pthread_atfork
PUBLIC 3b90 0 __aarch64_ldadd8_relax
PUBLIC 3bc0 0 init_have_lse_atomics
PUBLIC 3c58 0 __init_cpu_features_constructor
PUBLIC 41f4 0 __init_cpu_features
PUBLIC 4280 0 __aarch64_ldadd8_acq_rel
PUBLIC 42b0 0 std::__ndk1::map<int, std::__ndk1::basic_string<char, std::__ndk1::char_traits<char>, std::__ndk1::allocator<char> >, std::__ndk1::less<int>, std::__ndk1::allocator<std::__ndk1::pair<int const, std::__ndk1::basic_string<char, std::__ndk1::char_traits<char>, std::__ndk1::allocator<char> > > > >::~map[abi:ne180000]()
PUBLIC 42b8 0 __cxx_global_var_init.27
PUBLIC 473c 0 geode::modifier::ModifyBase<geode::modifier::ModifyDerive<MyEffectGameObject, EffectGameObject> >::~ModifyBase()
PUBLIC 4754 0 __cxx_global_var_init.28
PUBLIC 4bd8 0 geode::modifier::ModifyBase<geode::modifier::ModifyDerive<MyCameraTriggerGameObject, CameraTriggerGameObject> >::~ModifyBase()
PUBLIC 4bf0 0 std::__ndk1::basic_string<char, std::__ndk1::char_traits<char>, std::__ndk1::allocator<char> >::__throw_length_error[abi:ne180000]() const
PUBLIC 4c04 0 std::__ndk1::__throw_length_error[abi:ne180000](char const*)
PUBLIC 4c54 0 std::length_error::length_error[abi:ne180000](char const*)
PUBLIC 4c84 0 std::__throw_bad_array_new_length([abi:ne180000], void)
PUBLIC 4cb8 0 __clang_call_terminate
PUBLIC 4cc8 0 std::__ndk1::__tree<std::__ndk1::__value_type<int, std::__ndk1::basic_string<char, std::__ndk1::char_traits<char>, std::__ndk1::allocator<char> > >, std::__ndk1::__map_value_compare<int, std::__ndk1::__value_type<int, std::__ndk1::basic_string<char, std::__ndk1::char_traits<char>, std::__ndk1::allocator<char> > >, std::__ndk1::less<int>, true>, std::__ndk1::allocator<std::__ndk1::__value_type<int, std::__ndk1::basic_string<char, std::__ndk1::char_traits<char>, std::__ndk1::allocator<char> > > > >::__emplace_hint_unique_key_args<int, std::__ndk1::pair<int const, std::__ndk1::basic_string<char, std::__ndk1::char_traits<char>, std::__ndk1::allocator<char> > > const&>(std::__ndk1::__tree_const_iterator<std::__ndk1::__value_type<int, std::__ndk1::basic_string<char, std::__ndk1::char_traits<char>, std::__ndk1::allocator<char> > >, std::__ndk1::__tree_node<std::__ndk1::__value_type<int, std::__ndk1::basic_string<char, std::__ndk1::char_traits<char>, std::__ndk1::allocator<char> > >, void*>*, long>, int const&, std::__ndk1::pair<int const, std::__ndk1::basic_string<char, std::__ndk1::char_traits<char>, std::__ndk1::allocator<char> > > const&)
PUBLIC 4f2c 0 std::__ndk1::unique_ptr<std::__ndk1::__tree_node<std::__ndk1::__value_type<int, std::__ndk1::basic_string<char, std::__ndk1::char_traits<char>, std::__ndk1::allocator<char> > >, void*>, std::__ndk1::__tree_node_destructor<std::__ndk1::allocator<std::__ndk1::__tree_node<std::__ndk1::__value_type<int, std::__ndk1::basic_string<char, std::__ndk1::char_traits<char>, std::__ndk1::allocator<char> > >, void*> > > >::~unique_ptr[abi:ne180000]()
PUBLIC 4f7c 0 std::__ndk1::basic_string<char, std::__ndk1::char_traits<char>, std::__ndk1::allocator<char> >::__init_copy_ctor_external(char const*, unsigned long)
PUBLIC 4ffc 0 std::__ndk1::__tree_balance_after_insert[abi:ne180000]<std::__ndk1::__tree_node_base<void*>*>(std::__ndk1::__tree_node_base<void*>*, std::__ndk1::__tree_node_base<void*>*)
PUBLIC 51ac 0 std::__ndk1::__tree<std::__ndk1::__value_type<int, std::__ndk1::basic_string<char, std::__ndk1::char_traits<char>, std::__ndk1::allocator<char> > >, std::__ndk1::__map_value_compare<int, std::__ndk1::__value_type<int, std::__ndk1::basic_string<char, std::__ndk1::char_traits<char>, std::__ndk1::allocator<char> > >, std::__ndk1::less<int>, true>, std::__ndk1::allocator<std::__ndk1::__value_type<int, std::__ndk1::basic_string<char, std::__ndk1::char_traits<char>, std::__ndk1::allocator<char> > > > >::destroy(std::__ndk1::__tree_node<std::__ndk1::__value_type<int, std::__ndk1::basic_string<char, std::__ndk1::char_traits<char>, std::__ndk1::allocator<char> > >, void*>*)
PUBLIC 51f4 0 geode::modifier::ModifyDerive<MyEffectGameObject, EffectGameObject>::apply()
PUBLIC 55c4 0 std::__ndk1::shared_ptr<geode::Hook>::~shared_ptr[abi:ne180000]()
PUBLIC 5614 0 geode::impl::ResultData<geode::Hook*, std::__ndk1::basic_string<char, std::__ndk1::char_traits<char>, std::__ndk1::allocator<char> > >::~ResultData()
PUBLIC 5688 0 std::__ndk1::vector<std::__ndk1::basic_string<char, std::__ndk1::char_traits<char>, std::__ndk1::allocator<char> >, std::__ndk1::allocator<std::__ndk1::basic_string<char, std::__ndk1::char_traits<char>, std::__ndk1::allocator<char> > > >::~vector[abi:ne180000]()
PUBLIC 5704 0 geode::modifier::ModifyBase<geode::modifier::ModifyDerive<MyEffectGameObject, EffectGameObject> >::apply()
PUBLIC 5708 0 _ZN5geode15UnwrapExceptionC2IRPNS_4HookEQsr4implE18IsStringStreamableIT_EEENS_4impl5OkTagEOS5_
PUBLIC 585c 0 std::__ndk1::__throw_bad_variant_access[abi:ne180000]()
PUBLIC 5890 0 std::__ndk1::basic_stringstream<char, std::__ndk1::char_traits<char>, std::__ndk1::allocator<char> >::basic_stringstream[abi:ne180000]()
PUBLIC m 59bc 0 std::__ndk1::basic_stringstream<char, std::__ndk1::char_traits<char>, std::__ndk1::allocator<char> >::~basic_stringstream()
PUBLIC 5a3c 0 geode::UnwrapException::~UnwrapException()
PUBLIC 5a60 0 std::__ndk1::__put_character_sequence[abi:ne180000]<char, std::__ndk1::char_traits<char> >(std::__ndk1::basic_ostream<char, std::__ndk1::char_traits<char> >, std::__ndk1::basic_ostream const*, unsigned long)
PUBLIC 5c04 0 std::__ndk1::__pad_and_output[abi:ne180000]<char, std::__ndk1::char_traits<char> >(std::__ndk1::char_traits<char>, std::__ndk1::ostreambuf_iterator const*, std::__ndk1::ostreambuf_iterator const, std::__ndk1::ostreambuf_iterator const, std::__ndk1::ios_base&, std::__ndk1::ostreambuf_iterator)
PUBLIC 5de0 0 std::__ndk1::basic_stringbuf<char, std::__ndk1::char_traits<char>, std::__ndk1::allocator<char> >::str[abi:ne180000]() &&
PUBLIC 5f58 0 std::__ndk1::basic_stringbuf<char, std::__ndk1::char_traits<char>, std::__ndk1::allocator<char> >::__init_buf_ptrs[abi:ne180000]()
PUBLIC 60a0 0 std::__ndk1::vector<std::__ndk1::basic_string<char, std::__ndk1::char_traits<char>, std::__ndk1::allocator<char> >, std::__ndk1::allocator<std::__ndk1::basic_string<char, std::__ndk1::char_traits<char>, std::__ndk1::allocator<char> > > >::__push_back_slow_path<std::__ndk1::basic_string<char, std::__ndk1::char_traits<char>, std::__ndk1::allocator<char> > const&>(std::__ndk1::basic_string<char, std::__ndk1::char_traits<char>, std::__ndk1::allocator<char> > const&)
PUBLIC 62c4 0 std::__ndk1::__split_buffer<std::__ndk1::basic_string<char, std::__ndk1::char_traits<char>, std::__ndk1::allocator<char> >, std::__ndk1::allocator<std::__ndk1::basic_string<char, std::__ndk1::char_traits<char>, std::__ndk1::allocator<char> > >&>::~__split_buffer()
PUBLIC 632c 0 std::__ndk1::vector<std::__ndk1::basic_string<char, std::__ndk1::char_traits<char>, std::__ndk1::allocator<char> >, std::__ndk1::allocator<std::__ndk1::basic_string<char, std::__ndk1::char_traits<char>, std::__ndk1::allocator<char> > > >::__throw_length_error[abi:ne180000]() const
PUBLIC 6340 0 std::__ndk1::__variant_detail::__visitation::__base::__dispatcher<(unsigned long)0>::__dispatch[abi:ne180000]<std::__ndk1::__variant_detail::__dtor<std::__ndk1::__variant_detail::__traits<geode::Hook*, std::__ndk1::basic_string<char, std::__ndk1::char_traits<char>, std::__ndk1::allocator<char> > >, (std::__ndk1::__variant_detail::_Trait)1>::__destroy[abi:ne180000]()::{lambda(auto:1&)#1}, std::__ndk1::__variant_detail::__base<(std::__ndk1::__variant_detail::__traits<geode::Hook*, std::__ndk1::basic_string<char, std::__ndk1::char_traits<char>, std::__ndk1::allocator<char> > >)1, geode::Hook, std::__ndk1::allocator<char> >&>(std::__ndk1::__variant_detail::__dtor<std::__ndk1::__variant_detail::__traits<geode::Hook*, std::__ndk1::basic_string<char, std::__ndk1::char_traits<char>, std::__ndk1::allocator<char> > >, (std::__ndk1::__variant_detail::_Trait)1>, std::__ndk1::__variant_detail::__base<(std::__ndk1::__variant_detail::__traits<geode::Hook*, std::__ndk1::basic_string<char, std::__ndk1::char_traits<char>, std::__ndk1::allocator<char> > >)1, geode::Hook, std::__ndk1::allocator<char> >&)
PUBLIC 6344 0 std::__ndk1::__variant_detail::__visitation::__base::__dispatcher<(unsigned long)1>::__dispatch[abi:ne180000]<std::__ndk1::__variant_detail::__dtor<std::__ndk1::__variant_detail::__traits<geode::Hook*, std::__ndk1::basic_string<char, std::__ndk1::char_traits<char>, std::__ndk1::allocator<char> > >, (std::__ndk1::__variant_detail::_Trait)1>::__destroy[abi:ne180000]()::{lambda(auto:1&)#1}, std::__ndk1::__variant_detail::__base<(std::__ndk1::__variant_detail::__traits<geode::Hook*, std::__ndk1::basic_string<char, std::__ndk1::char_traits<char>, std::__ndk1::allocator<char> > >)1, geode::Hook, std::__ndk1::allocator<char> >&>(std::__ndk1::__variant_detail::__dtor<std::__ndk1::__variant_detail::__traits<geode::Hook*, std::__ndk1::basic_string<char, std::__ndk1::char_traits<char>, std::__ndk1::allocator<char> > >, (std::__ndk1::__variant_detail::_Trait)1>, std::__ndk1::__variant_detail::__base<(std::__ndk1::__variant_detail::__traits<geode::Hook*, std::__ndk1::basic_string<char, std::__ndk1::char_traits<char>, std::__ndk1::allocator<char> > >)1, geode::Hook, std::__ndk1::allocator<char> >&)
PUBLIC 6358 0 std::__ndk1::__tree<std::__ndk1::__value_type<std::__ndk1::basic_string<char, std::__ndk1::char_traits<char>, std::__ndk1::allocator<char> >, std::__ndk1::shared_ptr<geode::Hook> >, std::__ndk1::__map_value_compare<std::__ndk1::basic_string<char, std::__ndk1::char_traits<char>, std::__ndk1::allocator<char> >, std::__ndk1::__value_type<std::__ndk1::basic_string<char, std::__ndk1::char_traits<char>, std::__ndk1::allocator<char> >, std::__ndk1::shared_ptr<geode::Hook> >, std::__ndk1::less<std::__ndk1::basic_string<char, std::__ndk1::char_traits<char>, std::__ndk1::allocator<char> > >, true>, std::__ndk1::allocator<std::__ndk1::__value_type<std::__ndk1::basic_string<char, std::__ndk1::char_traits<char>, std::__ndk1::allocator<char> >, std::__ndk1::shared_ptr<geode::Hook> > > >::find<std::__ndk1::basic_string<char, std::__ndk1::char_traits<char>, std::__ndk1::allocator<char> > >(std::__ndk1::basic_string<char, std::__ndk1::char_traits<char>, std::__ndk1::allocator<char> > const&)
PUBLIC 6478 0 std::__ndk1::__tree<std::__ndk1::__value_type<std::__ndk1::basic_string<char, std::__ndk1::char_traits<char>, std::__ndk1::allocator<char> >, std::__ndk1::shared_ptr<geode::Hook> >, std::__ndk1::__map_value_compare<std::__ndk1::basic_string<char, std::__ndk1::char_traits<char>, std::__ndk1::allocator<char> >, std::__ndk1::__value_type<std::__ndk1::basic_string<char, std::__ndk1::char_traits<char>, std::__ndk1::allocator<char> >, std::__ndk1::shared_ptr<geode::Hook> >, std::__ndk1::less<std::__ndk1::basic_string<char, std::__ndk1::char_traits<char>, std::__ndk1::allocator<char> > >, true>, std::__ndk1::allocator<std::__ndk1::__value_type<std::__ndk1::basic_string<char, std::__ndk1::char_traits<char>, std::__ndk1::allocator<char> >, std::__ndk1::shared_ptr<geode::Hook> > > >::erase(std::__ndk1::__tree_const_iterator<std::__ndk1::__value_type<std::__ndk1::basic_string<char, std::__ndk1::char_traits<char>, std::__ndk1::allocator<char> >, std::__ndk1::shared_ptr<geode::Hook> >, std::__ndk1::__tree_node<std::__ndk1::__value_type<std::__ndk1::basic_string<char, std::__ndk1::char_traits<char>, std::__ndk1::allocator<char> >, std::__ndk1::shared_ptr<geode::Hook> >, void*>*, long>)
PUBLIC 691c 0 std::__ndk1::__tree<std::__ndk1::__value_type<std::__ndk1::basic_string<char, std::__ndk1::char_traits<char>, std::__ndk1::allocator<char> >, std::__ndk1::shared_ptr<geode::Hook> >, std::__ndk1::__map_value_compare<std::__ndk1::basic_string<char, std::__ndk1::char_traits<char>, std::__ndk1::allocator<char> >, std::__ndk1::__value_type<std::__ndk1::basic_string<char, std::__ndk1::char_traits<char>, std::__ndk1::allocator<char> >, std::__ndk1::shared_ptr<geode::Hook> >, std::__ndk1::less<std::__ndk1::basic_string<char, std::__ndk1::char_traits<char>, std::__ndk1::allocator<char> > >, true>, std::__ndk1::allocator<std::__ndk1::__value_type<std::__ndk1::basic_string<char, std::__ndk1::char_traits<char>, std::__ndk1::allocator<char> >, std::__ndk1::shared_ptr<geode::Hook> > > >::destroy(std::__ndk1::__tree_node<std::__ndk1::__value_type<std::__ndk1::basic_string<char, std::__ndk1::char_traits<char>, std::__ndk1::allocator<char> >, std::__ndk1::shared_ptr<geode::Hook> >, void*>*)
PUBLIC 69a0 0 geode::modifier::AsStaticFunction_triggerObject<MyEffectGameObject, void (MyEffectGameObject::*)(GJBaseGameLayer*, int, gd::vector<int> const*)>::Impl<void (MyEffectGameObject::*)(GJBaseGameLayer*, int, gd::vector<int> const*)>::function(MyEffectGameObject*, GJBaseGameLayer*, int, gd::vector<int> const*)
PUBLIC 6c3c 0 std::__ndk1::shared_ptr<tulip::hook::CallingConvention>::~shared_ptr[abi:ne180000]()
PUBLIC 6c8c 0 tulip::hook::HandlerMetadata::~HandlerMetadata()
PUBLIC 6cf0 0 std::__ndk1::vector<tulip::hook::AbstractType, std::__ndk1::allocator<tulip::hook::AbstractType> >::__throw_length_error[abi:ne180000]() const
PUBLIC 6d04 0 geode::Mod::getSettingValue<bool>(std::__ndk1::basic_string_view<char, std::__ndk1::char_traits<char> >) const
PUBLIC 6e34 0 geode::cast::traverseTypeinfoFor(void*, geode::cast::ClassTypeinfoType const*, char const*)
PUBLIC 6f2c 0 std::__ndk1::__tree<std::__ndk1::__value_type<std::__ndk1::basic_string<char, std::__ndk1::char_traits<char>, std::__ndk1::allocator<char> >, std::__ndk1::shared_ptr<geode::Hook> >, std::__ndk1::__map_value_compare<std::__ndk1::basic_string<char, std::__ndk1::char_traits<char>, std::__ndk1::allocator<char> >, std::__ndk1::__value_type<std::__ndk1::basic_string<char, std::__ndk1::char_traits<char>, std::__ndk1::allocator<char> >, std::__ndk1::shared_ptr<geode::Hook> >, std::__ndk1::less<std::__ndk1::basic_string<char, std::__ndk1::char_traits<char>, std::__ndk1::allocator<char> > >, true>, std::__ndk1::allocator<std::__ndk1::__value_type<std::__ndk1::basic_string<char, std::__ndk1::char_traits<char>, std::__ndk1::allocator<char> >, std::__ndk1::shared_ptr<geode::Hook> > > >::__emplace_unique_key_args<std::__ndk1::basic_string<char, std::__ndk1::char_traits<char>, std::__ndk1::allocator<char> >, std::__ndk1::piecewise_construct_t const&, std::__ndk1::tuple<std::__ndk1::basic_string<char, std::__ndk1::char_traits<char>, std::__ndk1::allocator<char> >&&>, std::__ndk1::tuple<> >(std::__ndk1::basic_string<char, std::__ndk1::char_traits<char>, std::__ndk1::allocator<char> > const&, std::__ndk1::piecewise_construct_t const&, std::__ndk1::tuple<std::__ndk1::basic_string<char, std::__ndk1::char_traits<char>, std::__ndk1::allocator<char> >&&>, std::__ndk1::tuple<>)
PUBLIC 7094 0 geode::modifier::ModifyDerive<MyCameraTriggerGameObject, CameraTriggerGameObject>::apply()
PUBLIC 746c 0 geode::modifier::ModifyBase<geode::modifier::ModifyDerive<MyCameraTriggerGameObject, CameraTriggerGameObject> >::apply()
PUBLIC 7470 0 geode::modifier::AsStaticFunction_triggerObject<MyCameraTriggerGameObject, void (MyCameraTriggerGameObject::*)(GJBaseGameLayer*, int, gd::vector<int> const*)>::Impl<void (MyCameraTriggerGameObject::*)(GJBaseGameLayer*, int, gd::vector<int> const*)>::function(MyCameraTriggerGameObject*, GJBaseGameLayer*, int, gd::vector<int> const*)
PUBLIC 75f4 0 _GLOBAL__sub_I_main.cpp
PUBLIC m 8174 0 geodeImplicitEntry
PUBLIC 81b0 0 wrapFunction(unsigned long, tulip::hook::WrapperMetadata const&)
PUBLIC 82e4 0 geode::impl::ResultData<void*, std::__ndk1::basic_string<char, std::__ndk1::char_traits<char>, std::__ndk1::allocator<char> > >::unwrapErr() &
PUBLIC 835c 0 geode::impl::ResultData<void*, std::__ndk1::basic_string<char, std::__ndk1::char_traits<char>, std::__ndk1::allocator<char> > >::~ResultData()
PUBLIC 83d0 0 tulip::hook::WrapperMetadata::~WrapperMetadata()
PUBLIC 8434 0 EffectGameObject::triggerObject(GJBaseGameLayer*, int, gd::vector<int> const*)
PUBLIC 859c 0 tulip::hook::AbstractFunction::from<void, EffectGameObject*, GJBaseGameLayer*, int, gd::vector<int> const*>(void (*)(EffectGameObject*, GJBaseGameLayer*, int, gd::vector<int> const*))
PUBLIC 8870 0 CameraTriggerGameObject::triggerObject(GJBaseGameLayer*, int, gd::vector<int> const*)
PUBLIC 89d8 0 tulip::hook::AbstractFunction::from<void, CameraTriggerGameObject*, GJBaseGameLayer*, int, gd::vector<int> const*>(void (*)(CameraTriggerGameObject*, GJBaseGameLayer*, int, gd::vector<int> const*))
PUBLIC 8cac 0 _ZN5geode15UnwrapExceptionC2IRPvQsr4implE18IsStringStreamableIT_EEENS_4impl5OkTagEOS4_
PUBLIC 8e00 0 _ZN5geode15UnwrapExceptionC2IRNSt6__ndk112basic_stringIcNS2_11char_traitsIcEENS2_9allocatorIcEEEEQsr4implE18IsStringStreamableIT_EEENS_4impl6ErrTagEOSA_
PUBLIC 8f68 0 std::__ndk1::__variant_detail::__visitation::__base::__dispatcher<(unsigned long)0>::__dispatch[abi:ne180000]<std::__ndk1::__variant_detail::__dtor<std::__ndk1::__variant_detail::__traits<void*, std::__ndk1::basic_string<char, std::__ndk1::char_traits<char>, std::__ndk1::allocator<char> > >, (std::__ndk1::__variant_detail::_Trait)1>::__destroy[abi:ne180000]()::{lambda(auto:1&)#1}, std::__ndk1::__variant_detail::__base<(std::__ndk1::__variant_detail::__traits<void*, std::__ndk1::basic_string<char, std::__ndk1::char_traits<char>, std::__ndk1::allocator<char> > >)1, std::__ndk1::__variant_detail::__traits, std::__ndk1::allocator<char> >&>(std::__ndk1::__variant_detail::__dtor<std::__ndk1::__variant_detail::__traits<void*, std::__ndk1::basic_string<char, std::__ndk1::char_traits<char>, std::__ndk1::allocator<char> > >, (std::__ndk1::__variant_detail::_Trait)1>, std::__ndk1::__variant_detail::__base<(std::__ndk1::__variant_detail::__traits<void*, std::__ndk1::basic_string<char, std::__ndk1::char_traits<char>, std::__ndk1::allocator<char> > >)1, std::__ndk1::__variant_detail::__traits, std::__ndk1::allocator<char> >&)
PUBLIC 8f6c 0 std::__ndk1::__variant_detail::__visitation::__base::__dispatcher<(unsigned long)1>::__dispatch[abi:ne180000]<std::__ndk1::__variant_detail::__dtor<std::__ndk1::__variant_detail::__traits<void*, std::__ndk1::basic_string<char, std::__ndk1::char_traits<char>, std::__ndk1::allocator<char> > >, (std::__ndk1::__variant_detail::_Trait)1>::__destroy[abi:ne180000]()::{lambda(auto:1&)#1}, std::__ndk1::__variant_detail::__base<(std::__ndk1::__variant_detail::__traits<void*, std::__ndk1::basic_string<char, std::__ndk1::char_traits<char>, std::__ndk1::allocator<char> > >)1, std::__ndk1::__variant_detail::__traits, std::__ndk1::allocator<char> >&>(std::__ndk1::__variant_detail::__dtor<std::__ndk1::__variant_detail::__traits<void*, std::__ndk1::basic_string<char, std::__ndk1::char_traits<char>, std::__ndk1::allocator<char> > >, (std::__ndk1::__variant_detail::_Trait)1>, std::__ndk1::__variant_detail::__base<(std::__ndk1::__variant_detail::__traits<void*, std::__ndk1::basic_string<char, std::__ndk1::char_traits<char>, std::__ndk1::allocator<char> > >)1, std::__ndk1::__variant_detail::__traits, std::__ndk1::allocator<char> >&)
PUBLIC 8f80 0 <.plt ELF section in raydeeux.camerashadertoggles.android64.so>
STACK CFI INIT 3b30 10 .cfa: sp 0 +
STACK CFI INIT 3b40 8 .cfa: sp 0 +
STACK CFI INIT 3b48 8 .cfa: sp 0 +
STACK CFI INIT 3b50 14 .cfa: sp 0 +
STACK CFI INIT 3b64 1c .cfa: sp 0 +
STACK CFI INIT 3b80 10 .cfa: sp 0 +
STACK CFI INIT 3b90 30 .cfa: sp 0 +
STACK CFI INIT 3bc0 98 .cfa: sp 0 +
STACK CFI INIT 3c58 59c .cfa: sp 0 +
STACK CFI INIT 41f4 8c .cfa: sp 0 +
STACK CFI INIT 4280 30 .cfa: sp 0 +
STACK CFI INIT 42b0 8 .cfa: sp 0 +
STACK CFI INIT 473c 18 .cfa: sp 0 +
STACK CFI INIT 4bd8 18 .cfa: sp 0 +
STACK CFI INIT 4bf0 14 .cfa: sp 0 +
STACK CFI 4bf4 .cfa: sp 16 +
STACK CFI 4bf8 .cfa: x29 16 + .ra: .cfa -8 + ^ x29: .cfa -16 + ^
STACK CFI INIT 4c54 30 .cfa: sp 0 +
STACK CFI 4c58 .cfa: sp 32 +
STACK CFI 4c60 .cfa: x29 32 + x19: .cfa -16 + ^ .ra: .cfa -24 + ^ x29: .cfa -32 + ^
STACK CFI 4c78 .cfa: sp 32 +
STACK CFI 4c80 .cfa: sp 0 +
STACK CFI INIT 4c84 34 .cfa: sp 0 +
STACK CFI 4c88 .cfa: sp 32 +
STACK CFI 4c90 .cfa: x29 32 + x19: .cfa -16 + ^ .ra: .cfa -24 + ^ x29: .cfa -32 + ^
STACK CFI INIT 4cb8 10 .cfa: sp 0 +
STACK CFI 4cbc .cfa: sp 16 +
STACK CFI 4cc0 .cfa: x29 16 + .ra: .cfa -8 + ^ x29: .cfa -16 + ^
STACK CFI INIT 4f2c 50 .cfa: sp 0 +
STACK CFI 4f50 .cfa: sp 32 +
STACK CFI 4f58 .cfa: x29 32 + x19: .cfa -16 + ^ .ra: .cfa -24 + ^ x29: .cfa -32 + ^
STACK CFI 4f6c .cfa: sp 32 +
STACK CFI 4f74 .cfa: sp 0 +
STACK CFI INIT 4f7c 80 .cfa: sp 0 +
STACK CFI 4f80 .cfa: sp 48 +
STACK CFI 4f8c .cfa: x29 48 + x19: .cfa -8 + ^ x20: .cfa -16 + ^ x21: .cfa -24 + ^ x22: .cfa -32 + ^ .ra: .cfa -40 + ^ x29: .cfa -48 + ^
STACK CFI 4fa4 .cfa: sp 48 +
STACK CFI 4fb0 .cfa: sp 0 +
STACK CFI 4fb4 .cfa: x29 48 +
STACK CFI 4fe4 .cfa: sp 48 +
STACK CFI 4ff0 .cfa: sp 0 +
STACK CFI 4ff4 .cfa: x29 48 +
STACK CFI INIT 4ffc 1b0 .cfa: sp 0 +
STACK CFI INIT 51ac 48 .cfa: sp 0 +
STACK CFI 51b4 .cfa: sp 32 +
STACK CFI 51bc .cfa: x29 32 + x19: .cfa -16 + ^ .ra: .cfa -24 + ^ x29: .cfa -32 + ^
STACK CFI 51e4 .cfa: sp 32 +
STACK CFI 51ec .cfa: sp 0 +
STACK CFI INIT 55c4 50 .cfa: sp 0 +
STACK CFI 55c8 .cfa: sp 32 +
STACK CFI 55d0 .cfa: x29 32 + x19: .cfa -16 + ^ .ra: .cfa -24 + ^ x29: .cfa -32 + ^
STACK CFI 55e8 .cfa: sp 32 +
STACK CFI 55f0 .cfa: sp 0 +
STACK CFI 55f4 .cfa: x29 32 +
STACK CFI 5608 .cfa: sp 32 +
STACK CFI 5610 .cfa: sp 0 +
STACK CFI INIT 5688 7c .cfa: sp 0 +
STACK CFI 568c .cfa: sp 48 +
STACK CFI 5698 .cfa: x29 48 + x19: .cfa -8 + ^ x20: .cfa -16 + ^ x21: .cfa -32 + ^ .ra: .cfa -40 + ^ x29: .cfa -48 + ^
STACK CFI 56e4 .cfa: sp 48 +
STACK CFI 56f0 .cfa: sp 0 +
STACK CFI 56f4 .cfa: sp 48 +
STACK CFI 5700 .cfa: sp 0 +
STACK CFI INIT 5704 4 .cfa: sp 0 +
STACK CFI INIT 585c 34 .cfa: sp 0 +
STACK CFI 5860 .cfa: sp 16 +
STACK CFI 5864 .cfa: x29 16 + .ra: .cfa -8 + ^ x29: .cfa -16 + ^
STACK CFI INIT 59bc 80 .cfa: sp 0 +
STACK CFI 59c0 .cfa: sp 48 +
STACK CFI 59cc .cfa: x29 48 + x19: .cfa -8 + ^ x20: .cfa -16 + ^ x21: .cfa -32 + ^ .ra: .cfa -40 + ^ x29: .cfa -48 + ^
STACK CFI 5a2c .cfa: sp 48 +
STACK CFI 5a38 .cfa: sp 0 +
STACK CFI INIT 5a3c 24 .cfa: sp 0 +
STACK CFI 5a40 .cfa: sp 32 +
STACK CFI 5a48 .cfa: x29 32 + x19: .cfa -16 + ^ .ra: .cfa -24 + ^ x29: .cfa -32 + ^
STACK CFI 5a54 .cfa: sp 32 +
STACK CFI 5a5c .cfa: sp 0 +
STACK CFI INIT 5f58 148 .cfa: sp 0 +
STACK CFI 5f5c .cfa: sp 48 +
STACK CFI 5f68 .cfa: x29 48 + x19: .cfa -8 + ^ x20: .cfa -16 + ^ x21: .cfa -32 + ^ .ra: .cfa -40 + ^ x29: .cfa -48 + ^
STACK CFI 6090 .cfa: sp 48 +
STACK CFI 609c .cfa: sp 0 +
STACK CFI INIT 62c4 68 .cfa: sp 0 +
STACK CFI 62c8 .cfa: sp 32 +
STACK CFI 62d0 .cfa: x29 32 + x19: .cfa -8 + ^ x20: .cfa -16 + ^ .ra: .cfa -24 + ^ x29: .cfa -32 + ^
STACK CFI 62e8 .cfa: sp 32 +
STACK CFI 62f0 .cfa: sp 0 +
STACK CFI 62f4 .cfa: x29 32 +
STACK CFI 6320 .cfa: sp 32 +
STACK CFI 6328 .cfa: sp 0 +
STACK CFI INIT 632c 14 .cfa: sp 0 +
STACK CFI 6330 .cfa: sp 16 +
STACK CFI 6334 .cfa: x29 16 + .ra: .cfa -8 + ^ x29: .cfa -16 + ^
STACK CFI INIT 6340 4 .cfa: sp 0 +
STACK CFI INIT 6344 14 .cfa: sp 0 +
STACK CFI INIT 6358 120 .cfa: sp 0 +
STACK CFI 635c .cfa: sp 64 +
STACK CFI 636c .cfa: x29 64 + x19: .cfa -8 + ^ x20: .cfa -16 + ^ x21: .cfa -24 + ^ x22: .cfa -32 + ^ x23: .cfa -40 + ^ x24: .cfa -48 + ^ .ra: .cfa -56 + ^ x29: .cfa -64 + ^
STACK CFI 6464 .cfa: sp 64 +
STACK CFI 6474 .cfa: sp 0 +
STACK CFI INIT 6478 4a4 .cfa: sp 0 +
STACK CFI 647c .cfa: sp 32 +
STACK CFI 6484 .cfa: x29 32 + x19: .cfa -8 + ^ x20: .cfa -16 + ^ .ra: .cfa -24 + ^ x29: .cfa -32 + ^
STACK CFI 6864 .cfa: sp 32 +
STACK CFI 686c .cfa: sp 0 +
STACK CFI 6870 .cfa: x29 32 +
STACK CFI INIT 691c 84 .cfa: sp 0 +
STACK CFI 6924 .cfa: sp 32 +
STACK CFI 692c .cfa: x29 32 + x19: .cfa -8 + ^ x20: .cfa -16 + ^ .ra: .cfa -24 + ^ x29: .cfa -32 + ^
STACK CFI 696c .cfa: sp 32 +
STACK CFI 6974 .cfa: sp 0 +
STACK CFI 697c .cfa: x29 32 +
STACK CFI INIT 69a0 29c .cfa: sp 0 +
STACK CFI 69a4 .cfa: sp 80 +
STACK CFI 69b8 .cfa: x29 80 + x19: .cfa -8 + ^ x20: .cfa -16 + ^ x21: .cfa -24 + ^ x22: .cfa -32 + ^ x23: .cfa -40 + ^ x24: .cfa -48 + ^ x25: .cfa -56 + ^ x26: .cfa -64 + ^ .ra: .cfa -72 + ^ x29: .cfa -80 + ^
STACK CFI 6b84 .cfa: sp 80 +
STACK CFI 6b98 .cfa: sp 0 +
STACK CFI 6b9c .cfa: x29 80 +
STACK CFI 6c24 .cfa: sp 80 +
STACK CFI 6c38 .cfa: sp 0 +
STACK CFI INIT 6c3c 50 .cfa: sp 0 +
STACK CFI 6c40 .cfa: sp 32 +
STACK CFI 6c48 .cfa: x29 32 + x19: .cfa -16 + ^ .ra: .cfa -24 + ^ x29: .cfa -32 + ^
STACK CFI 6c60 .cfa: sp 32 +
STACK CFI 6c68 .cfa: sp 0 +
STACK CFI 6c6c .cfa: x29 32 +
STACK CFI 6c80 .cfa: sp 32 +
STACK CFI 6c88 .cfa: sp 0 +
STACK CFI INIT 6c8c 64 .cfa: sp 0 +
STACK CFI 6c90 .cfa: sp 32 +
STACK CFI 6c98 .cfa: x29 32 + x19: .cfa -16 + ^ .ra: .cfa -24 + ^ x29: .cfa -32 + ^
STACK CFI 6cc4 .cfa: sp 32 +
STACK CFI 6ccc .cfa: sp 0 +
STACK CFI 6cd0 .cfa: x29 32 +
STACK CFI 6ce4 .cfa: sp 32 +
STACK CFI 6cec .cfa: sp 0 +
STACK CFI INIT 6cf0 14 .cfa: sp 0 +
STACK CFI 6cf4 .cfa: sp 16 +
STACK CFI 6cf8 .cfa: x29 16 + .ra: .cfa -8 + ^ x29: .cfa -16 + ^
STACK CFI INIT 6d04 130 .cfa: sp 0 +
STACK CFI 6d08 .cfa: sp 80 +
STACK CFI 6d18 .cfa: x29 48 + x19: .cfa -8 + ^ x20: .cfa -16 + ^ x21: .cfa -24 + ^ x22: .cfa -32 + ^ .ra: .cfa -40 + ^ x29: .cfa -48 + ^
STACK CFI 6e1c .cfa: sp 80 +
STACK CFI 6e2c .cfa: sp 0 +
STACK CFI 6e30 .cfa: x29 48 +
STACK CFI INIT 6e34 f8 .cfa: sp 0 +
STACK CFI 6e38 .cfa: sp 64 +
STACK CFI 6e48 .cfa: x29 64 + x19: .cfa -8 + ^ x20: .cfa -16 + ^ x21: .cfa -24 + ^ x22: .cfa -32 + ^ x23: .cfa -48 + ^ .ra: .cfa -56 + ^ x29: .cfa -64 + ^
STACK CFI 6ea4 .cfa: sp 64 +
STACK CFI 6eb4 .cfa: sp 0 +
STACK CFI 6eb8 .cfa: x29 64 +
STACK CFI 6ed4 .cfa: sp 64 +
STACK CFI 6ee4 .cfa: sp 0 +
STACK CFI 6ee8 .cfa: x29 64 +
STACK CFI 6f18 .cfa: sp 64 +
STACK CFI 6f28 .cfa: sp 0 +
STACK CFI INIT 6f2c 168 .cfa: sp 0 +
STACK CFI 6f30 .cfa: sp 80 +
STACK CFI 6f44 .cfa: x29 80 + x19: .cfa -8 + ^ x20: .cfa -16 + ^ x21: .cfa -24 + ^ x22: .cfa -32 + ^ x23: .cfa -40 + ^ x24: .cfa -48 + ^ x25: .cfa -56 + ^ x26: .cfa -64 + ^ .ra: .cfa -72 + ^ x29: .cfa -80 + ^
STACK CFI 707c .cfa: sp 80 +
STACK CFI 7090 .cfa: sp 0 +
STACK CFI INIT 746c 4 .cfa: sp 0 +
STACK CFI INIT 7470 184 .cfa: sp 0 +
STACK CFI 7474 .cfa: sp 80 +
STACK CFI 7488 .cfa: x29 80 + x19: .cfa -8 + ^ x20: .cfa -16 + ^ x21: .cfa -24 + ^ x22: .cfa -32 + ^ x23: .cfa -40 + ^ x24: .cfa -48 + ^ x25: .cfa -64 + ^ .ra: .cfa -72 + ^ x29: .cfa -80 + ^
STACK CFI 75b4 .cfa: sp 80 +
STACK CFI 75c8 .cfa: sp 0 +
STACK CFI 75cc .cfa: x29 80 +
STACK CFI 75dc .cfa: sp 80 +
STACK CFI 75f0 .cfa: sp 0 +
STACK CFI INIT 8174 3c .cfa: sp 0 +
STACK CFI 8178 .cfa: sp 32 +
STACK CFI 8180 .cfa: x29 32 + x19: .cfa -16 + ^ .ra: .cfa -24 + ^ x29: .cfa -32 + ^
STACK CFI 818c .cfa: sp 32 +
STACK CFI 8194 .cfa: sp 0 +
STACK CFI 8198 .cfa: x29 32 +
STACK CFI 81a4 .cfa: sp 32 +
STACK CFI 81ac .cfa: sp 0 +
STACK CFI INIT 83d0 64 .cfa: sp 0 +
STACK CFI 83d4 .cfa: sp 32 +
STACK CFI 83dc .cfa: x29 32 + x19: .cfa -16 + ^ .ra: .cfa -24 + ^ x29: .cfa -32 + ^
STACK CFI 8408 .cfa: sp 32 +
STACK CFI 8410 .cfa: sp 0 +
STACK CFI 8414 .cfa: x29 32 +
STACK CFI 8428 .cfa: sp 32 +
STACK CFI 8430 .cfa: sp 0 +
STACK CFI INIT 8f68 4 .cfa: sp 0 +
STACK CFI INIT 8f6c 14 .cfa: sp 0 +
STACK CFI INIT 42b8 484 .cfa: sp 0 +
STACK CFI 42bc .cfa: sp 224 +
STACK CFI 42d8 .cfa: x29 96 + x19: .cfa -8 + ^ x20: .cfa -16 + ^ x21: .cfa -24 + ^ x22: .cfa -32 + ^ x23: .cfa -40 + ^ x24: .cfa -48 + ^ x25: .cfa -56 + ^ x26: .cfa -64 + ^ x27: .cfa -72 + ^ x28: .cfa -80 + ^ .ra: .cfa -88 + ^ x29: .cfa -96 + ^
STACK CFI 4548 .cfa: sp 224 +
STACK CFI 4564 .cfa: sp 0 +
STACK CFI 4568 .cfa: x29 96 +
STACK CFI 4634 .cfa: sp 224 +
STACK CFI 4650 .cfa: sp 0 +
STACK CFI 4654 .cfa: x29 96 +
STACK CFI INIT 4754 484 .cfa: sp 0 +
STACK CFI 4758 .cfa: sp 224 +
STACK CFI 4774 .cfa: x29 96 + x19: .cfa -8 + ^ x20: .cfa -16 + ^ x21: .cfa -24 + ^ x22: .cfa -32 + ^ x23: .cfa -40 + ^ x24: .cfa -48 + ^ x25: .cfa -56 + ^ x26: .cfa -64 + ^ x27: .cfa -72 + ^ x28: .cfa -80 + ^ .ra: .cfa -88 + ^ x29: .cfa -96 + ^
STACK CFI 49e4 .cfa: sp 224 +
STACK CFI 4a00 .cfa: sp 0 +
STACK CFI 4a04 .cfa: x29 96 +
STACK CFI 4ad0 .cfa: sp 224 +
STACK CFI 4aec .cfa: sp 0 +
STACK CFI 4af0 .cfa: x29 96 +
STACK CFI INIT 4c04 50 .cfa: sp 0 +
STACK CFI 4c08 .cfa: sp 32 +
STACK CFI 4c10 .cfa: x29 32 + x19: .cfa -8 + ^ x20: .cfa -16 + ^ .ra: .cfa -24 + ^ x29: .cfa -32 + ^
STACK CFI INIT 4cc8 264 .cfa: sp 0 +
STACK CFI 4ccc .cfa: sp 112 +
STACK CFI 4ce4 .cfa: x29 80 + x19: .cfa -8 + ^ x20: .cfa -16 + ^ x21: .cfa -24 + ^ x22: .cfa -32 + ^ x23: .cfa -40 + ^ x24: .cfa -48 + ^ x25: .cfa -64 + ^ .ra: .cfa -72 + ^ x29: .cfa -80 + ^
STACK CFI 4ee8 .cfa: sp 112 +
STACK CFI 4f00 .cfa: sp 0 +
STACK CFI 4f04 .cfa: x29 80 +
STACK CFI INIT 51f4 3d0 .cfa: sp 0 +
STACK CFI 51f8 .cfa: sp 256 +
STACK CFI 520c .cfa: x29 64 + x19: .cfa -8 + ^ x20: .cfa -16 + ^ x21: .cfa -24 + ^ x22: .cfa -32 + ^ x23: .cfa -40 + ^ x24: .cfa -48 + ^ .ra: .cfa -56 + ^ x29: .cfa -64 + ^
STACK CFI 547c .cfa: sp 256 +
STACK CFI 5490 .cfa: sp 0 +
STACK CFI 5494 .cfa: x29 64 +
STACK CFI INIT 5614 74 .cfa: sp 0 +
STACK CFI 5618 .cfa: sp 48 +
STACK CFI 5624 .cfa: x29 32 + x19: .cfa -8 + ^ x20: .cfa -16 + ^ .ra: .cfa -24 + ^ x29: .cfa -32 + ^
STACK CFI 5670 .cfa: sp 48 +
STACK CFI 567c .cfa: sp 0 +
STACK CFI 5680 .cfa: x29 32 +
STACK CFI INIT 5708 154 .cfa: sp 0 +
STACK CFI 570c .cfa: sp 384 +
STACK CFI 5720 .cfa: x29 64 + x19: .cfa -8 + ^ x20: .cfa -16 + ^ x21: .cfa -24 + ^ x22: .cfa -32 + ^ x23: .cfa -40 + ^ x28: .cfa -48 + ^ .ra: .cfa -56 + ^ x29: .cfa -64 + ^
STACK CFI 5804 .cfa: sp 384 +
STACK CFI 5818 .cfa: sp 0 +
STACK CFI 581c .cfa: x29 64 +
STACK CFI INIT 5890 12c .cfa: sp 0 +
STACK CFI 5894 .cfa: sp 80 +
STACK CFI 58a8 .cfa: x29 80 + x19: .cfa -8 + ^ x20: .cfa -16 + ^ x21: .cfa -24 + ^ x22: .cfa -32 + ^ x23: .cfa -40 + ^ x24: .cfa -48 + ^ x25: .cfa -56 + ^ x26: .cfa -64 + ^ .ra: .cfa -72 + ^ x29: .cfa -80 + ^
STACK CFI 5970 .cfa: sp 80 +
STACK CFI 5984 .cfa: sp 0 +
STACK CFI 5988 .cfa: x29 80 +
STACK CFI INIT 5a60 1a4 .cfa: sp 0 +
STACK CFI 5a64 .cfa: sp 112 +
STACK CFI 5a7c .cfa: x29 80 + x19: .cfa -8 + ^ x20: .cfa -16 + ^ x21: .cfa -24 + ^ x22: .cfa -32 + ^ x23: .cfa -40 + ^ x24: .cfa -48 + ^ x25: .cfa -56 + ^ x26: .cfa -64 + ^ .ra: .cfa -72 + ^ x29: .cfa -80 + ^
STACK CFI 5b6c .cfa: sp 112 +
STACK CFI 5b84 .cfa: sp 0 +
STACK CFI 5b88 .cfa: x29 80 +
STACK CFI INIT 5c04 1dc .cfa: sp 0 +
STACK CFI 5c08 .cfa: sp 128 +
STACK CFI 5c24 .cfa: x29 96 + x19: .cfa -8 + ^ x20: .cfa -16 + ^ x21: .cfa -24 + ^ x22: .cfa -32 + ^ x23: .cfa -40 + ^ x24: .cfa -48 + ^ x25: .cfa -56 + ^ x26: .cfa -64 + ^ x27: .cfa -80 + ^ .ra: .cfa -88 + ^ x29: .cfa -96 + ^
STACK CFI 5d90 .cfa: sp 128 +
STACK CFI 5dac .cfa: sp 0 +
STACK CFI 5db0 .cfa: x29 96 +
STACK CFI INIT 5de0 178 .cfa: sp 0 +
STACK CFI 5de4 .cfa: sp 80 +
STACK CFI 5df8 .cfa: x29 80 + x19: .cfa -8 + ^ x20: .cfa -16 + ^ x21: .cfa -24 + ^ x22: .cfa -32 + ^ x23: .cfa -40 + ^ x24: .cfa -48 + ^ x25: .cfa -64 + ^ .ra: .cfa -72 + ^ x29: .cfa -80 + ^
STACK CFI 5f24 .cfa: sp 80 +
STACK CFI 5f38 .cfa: sp 0 +
STACK CFI 5f3c .cfa: x29 80 +
STACK CFI INIT 60a0 224 .cfa: sp 0 +
STACK CFI 60a4 .cfa: sp 128 +
STACK CFI 60bc .cfa: x29 80 + x19: .cfa -8 + ^ x20: .cfa -16 + ^ x21: .cfa -24 + ^ x22: .cfa -32 + ^ x23: .cfa -40 + ^ x24: .cfa -48 + ^ x25: .cfa -64 + ^ .ra: .cfa -72 + ^ x29: .cfa -80 + ^
STACK CFI 6258 .cfa: sp 128 +
STACK CFI 6270 .cfa: sp 0 +
STACK CFI 6274 .cfa: x29 80 +
STACK CFI INIT 7094 3d8 .cfa: sp 0 +
STACK CFI 7098 .cfa: sp 272 +
STACK CFI 70b0 .cfa: x29 80 + x19: .cfa -8 + ^ x20: .cfa -16 + ^ x21: .cfa -24 + ^ x22: .cfa -32 + ^ x23: .cfa -40 + ^ x24: .cfa -48 + ^ x25: .cfa -56 + ^ x28: .cfa -64 + ^ .ra: .cfa -72 + ^ x29: .cfa -80 + ^
STACK CFI 7320 .cfa: sp 272 +
STACK CFI 7338 .cfa: sp 0 +
STACK CFI 733c .cfa: x29 80 +
STACK CFI INIT 75f4 b80 .cfa: sp 0 +
STACK CFI 75f8 .cfa: sp 48 +
STACK CFI 7604 .cfa: x29 48 + x19: .cfa -8 + ^ x20: .cfa -16 + ^ x21: .cfa -24 + ^ x28: .cfa -32 + ^ .ra: .cfa -40 + ^ x29: .cfa -48 + ^
STACK CFI 7f5c .cfa: sp 48 +
STACK CFI 7f68 .cfa: sp 0 +
STACK CFI 7f6c .cfa: x29 48 +
STACK CFI INIT 81b0 134 .cfa: sp 0 +
STACK CFI 81b4 .cfa: sp 80 +
STACK CFI 81c0 .cfa: x29 32 + x19: .cfa -8 + ^ x20: .cfa -16 + ^ .ra: .cfa -24 + ^ x29: .cfa -32 + ^
STACK CFI 81f0 .cfa: sp 80 +
STACK CFI 81fc .cfa: sp 0 +
STACK CFI 8200 .cfa: x29 32 +
STACK CFI INIT 82e4 78 .cfa: sp 0 +
STACK CFI 82e8 .cfa: sp 32 +
STACK CFI 82f0 .cfa: x29 32 + x19: .cfa -8 + ^ x20: .cfa -16 + ^ .ra: .cfa -24 + ^ x29: .cfa -32 + ^
STACK CFI 82fc .cfa: sp 32 +
STACK CFI 8304 .cfa: sp 0 +
STACK CFI 8308 .cfa: x29 32 +
STACK CFI INIT 835c 74 .cfa: sp 0 +
STACK CFI 8360 .cfa: sp 48 +
STACK CFI 836c .cfa: x29 32 + x19: .cfa -8 + ^ x20: .cfa -16 + ^ .ra: .cfa -24 + ^ x29: .cfa -32 + ^
STACK CFI 83b8 .cfa: sp 48 +
STACK CFI 83c4 .cfa: sp 0 +
STACK CFI 83c8 .cfa: x29 32 +
STACK CFI INIT 8434 168 .cfa: sp 0 +
STACK CFI 8438 .cfa: sp 144 +
STACK CFI 844c .cfa: x29 64 + x19: .cfa -8 + ^ x20: .cfa -16 + ^ x21: .cfa -24 + ^ x22: .cfa -32 + ^ x23: .cfa -40 + ^ x24: .cfa -48 + ^ .ra: .cfa -56 + ^ x29: .cfa -64 + ^
STACK CFI 84a4 .cfa: sp 144 +
STACK CFI 84b8 .cfa: sp 0 +
STACK CFI 84bc .cfa: x29 64 +
STACK CFI INIT 859c 2d4 .cfa: sp 0 +
STACK CFI 85a0 .cfa: sp 96 +
STACK CFI 85b8 .cfa: x29 80 + x19: .cfa -8 + ^ x20: .cfa -16 + ^ x21: .cfa -24 + ^ x22: .cfa -32 + ^ x23: .cfa -40 + ^ x24: .cfa -48 + ^ x25: .cfa -64 + ^ .ra: .cfa -72 + ^ x29: .cfa -80 + ^
STACK CFI 880c .cfa: sp 96 +
STACK CFI 8824 .cfa: sp 0 +
STACK CFI 8828 .cfa: x29 80 +
STACK CFI INIT 8870 168 .cfa: sp 0 +
STACK CFI 8874 .cfa: sp 144 +
STACK CFI 8888 .cfa: x29 64 + x19: .cfa -8 + ^ x20: .cfa -16 + ^ x21: .cfa -24 + ^ x22: .cfa -32 + ^ x23: .cfa -40 + ^ x24: .cfa -48 + ^ .ra: .cfa -56 + ^ x29: .cfa -64 + ^
STACK CFI 88e0 .cfa: sp 144 +
STACK CFI 88f4 .cfa: sp 0 +
STACK CFI 88f8 .cfa: x29 64 +
STACK CFI INIT 89d8 2d4 .cfa: sp 0 +
STACK CFI 89dc .cfa: sp 96 +
STACK CFI 89f4 .cfa: x29 80 + x19: .cfa -8 + ^ x20: .cfa -16 + ^ x21: .cfa -24 + ^ x22: .cfa -32 + ^ x23: .cfa -40 + ^ x24: .cfa -48 + ^ x25: .cfa -64 + ^ .ra: .cfa -72 + ^ x29: .cfa -80 + ^
STACK CFI 8c48 .cfa: sp 96 +
STACK CFI 8c60 .cfa: sp 0 +
STACK CFI 8c64 .cfa: x29 80 +
STACK CFI INIT 8cac 154 .cfa: sp 0 +
STACK CFI 8cb0 .cfa: sp 384 +
STACK CFI 8cc4 .cfa: x29 64 + x19: .cfa -8 + ^ x20: .cfa -16 + ^ x21: .cfa -24 + ^ x22: .cfa -32 + ^ x23: .cfa -40 + ^ x28: .cfa -48 + ^ .ra: .cfa -56 + ^ x29: .cfa -64 + ^
STACK CFI 8da8 .cfa: sp 384 +
STACK CFI 8dbc .cfa: sp 0 +
STACK CFI 8dc0 .cfa: x29 64 +
STACK CFI INIT 8e00 168 .cfa: sp 0 +
STACK CFI 8e04 .cfa: sp 384 +
STACK CFI 8e18 .cfa: x29 64 + x19: .cfa -8 + ^ x20: .cfa -16 + ^ x21: .cfa -24 + ^ x22: .cfa -32 + ^ x23: .cfa -40 + ^ x28: .cfa -48 + ^ .ra: .cfa -56 + ^ x29: .cfa -64 + ^
STACK CFI 8f10 .cfa: sp 384 +
STACK CFI 8f24 .cfa: sp 0 +
STACK CFI 8f28 .cfa: x29 64 +
