MODULE Linux arm64 6761D59F738FDAB94C71A582D2A91BF70 capeling.coloured-wave-trail.android64.so
INFO CODE_ID 9FD561678F73B9DA4C71A582D2A91BF7B708648A
INFO GENERATOR mozilla/dump_syms 2.3.4
PUBLIC 8750 0 __on_dlclose
PUBLIC 8760 0 __emutls_unregister_key
PUBLIC 8768 0 __on_dlclose_late
PUBLIC 8770 0 __atexit_handler_wrapper
PUBLIC 8784 0 atexit
PUBLIC 87a0 0 pthread_atfork
PUBLIC 87b0 0 __aarch64_ldadd8_relax
PUBLIC 87e0 0 init_have_lse_atomics
PUBLIC 8878 0 __init_cpu_features_constructor
PUBLIC 8e14 0 __init_cpu_features
PUBLIC 8ea0 0 __aarch64_ldadd8_acq_rel
PUBLIC 8ed0 0 __cxx_global_var_init
PUBLIC 930c 0 geode::modifier::ModifyBase<geode::modifier::ModifyDerive<hook8<(anonymous namespace)::hook8Parent>, PauseLayer> >::~ModifyBase()
PUBLIC 9328 0 geode::modifier::ModifyDerive<hook8<(anonymous namespace)::hook8Parent>, PauseLayer>::apply()
PUBLIC 9658 0 std::__ndk1::shared_ptr<geode::Hook>::~shared_ptr[abi:ne180000]()
PUBLIC 96a8 0 geode::impl::ResultData<geode::Hook*, std::__ndk1::basic_string<char, std::__ndk1::char_traits<char>, std::__ndk1::allocator<char> > >::~ResultData()
PUBLIC 971c 0 std::__ndk1::vector<std::__ndk1::basic_string<char, std::__ndk1::char_traits<char>, std::__ndk1::allocator<char> >, std::__ndk1::allocator<std::__ndk1::basic_string<char, std::__ndk1::char_traits<char>, std::__ndk1::allocator<char> > > >::~vector[abi:ne180000]()
PUBLIC 9798 0 geode::modifier::ModifyBase<geode::modifier::ModifyDerive<hook8<(anonymous namespace)::hook8Parent>, PauseLayer> >::apply()
PUBLIC 979c 0 __clang_call_terminate
PUBLIC 97ac 0 _ZN5geode15UnwrapExceptionC2IRPNS_4HookEQsr4implE18IsStringStreamableIT_EEENS_4impl5OkTagEOS5_
PUBLIC 9900 0 std::__ndk1::__throw_bad_variant_access[abi:ne180000]()
PUBLIC 9934 0 std::__ndk1::basic_stringstream<char, std::__ndk1::char_traits<char>, std::__ndk1::allocator<char> >::basic_stringstream[abi:ne180000]()
PUBLIC m 9a60 0 std::__ndk1::basic_stringstream<char, std::__ndk1::char_traits<char>, std::__ndk1::allocator<char> >::~basic_stringstream()
PUBLIC 9ae0 0 geode::UnwrapException::~UnwrapException()
PUBLIC 9b04 0 std::__ndk1::__put_character_sequence[abi:ne180000]<char, std::__ndk1::char_traits<char> >(std::__ndk1::basic_ostream<char, std::__ndk1::char_traits<char> >, std::__ndk1::basic_ostream const*, unsigned long)
PUBLIC 9ca8 0 std::__ndk1::__pad_and_output[abi:ne180000]<char, std::__ndk1::char_traits<char> >(std::__ndk1::char_traits<char>, std::__ndk1::ostreambuf_iterator const*, std::__ndk1::ostreambuf_iterator const, std::__ndk1::ostreambuf_iterator const, std::__ndk1::ios_base&, std::__ndk1::ostreambuf_iterator)
PUBLIC 9e84 0 std::__ndk1::basic_string<char, std::__ndk1::char_traits<char>, std::__ndk1::allocator<char> >::__throw_length_error[abi:ne180000]() const
PUBLIC 9e98 0 std::__ndk1::__throw_length_error[abi:ne180000](char const*)
PUBLIC 9ee8 0 std::length_error::length_error[abi:ne180000](char const*)
PUBLIC 9f18 0 std::__throw_bad_array_new_length([abi:ne180000], void)
PUBLIC 9f4c 0 std::__ndk1::basic_stringbuf<char, std::__ndk1::char_traits<char>, std::__ndk1::allocator<char> >::str[abi:ne180000]() &&
PUBLIC a0c4 0 std::__ndk1::basic_stringbuf<char, std::__ndk1::char_traits<char>, std::__ndk1::allocator<char> >::__init_buf_ptrs[abi:ne180000]()
PUBLIC a20c 0 std::__ndk1::vector<std::__ndk1::basic_string<char, std::__ndk1::char_traits<char>, std::__ndk1::allocator<char> >, std::__ndk1::allocator<std::__ndk1::basic_string<char, std::__ndk1::char_traits<char>, std::__ndk1::allocator<char> > > >::__push_back_slow_path<std::__ndk1::basic_string<char, std::__ndk1::char_traits<char>, std::__ndk1::allocator<char> > const&>(std::__ndk1::basic_string<char, std::__ndk1::char_traits<char>, std::__ndk1::allocator<char> > const&)
PUBLIC a434 0 std::__ndk1::basic_string<char, std::__ndk1::char_traits<char>, std::__ndk1::allocator<char> >::__init_copy_ctor_external(char const*, unsigned long)
PUBLIC a4b4 0 std::__ndk1::__split_buffer<std::__ndk1::basic_string<char, std::__ndk1::char_traits<char>, std::__ndk1::allocator<char> >, std::__ndk1::allocator<std::__ndk1::basic_string<char, std::__ndk1::char_traits<char>, std::__ndk1::allocator<char> > >&>::~__split_buffer()
PUBLIC a51c 0 std::__ndk1::vector<std::__ndk1::basic_string<char, std::__ndk1::char_traits<char>, std::__ndk1::allocator<char> >, std::__ndk1::allocator<std::__ndk1::basic_string<char, std::__ndk1::char_traits<char>, std::__ndk1::allocator<char> > > >::__throw_length_error[abi:ne180000]() const
PUBLIC a530 0 std::__ndk1::__variant_detail::__visitation::__base::__dispatcher<(unsigned long)0>::__dispatch[abi:ne180000]<std::__ndk1::__variant_detail::__dtor<std::__ndk1::__variant_detail::__traits<geode::Hook*, std::__ndk1::basic_string<char, std::__ndk1::char_traits<char>, std::__ndk1::allocator<char> > >, (std::__ndk1::__variant_detail::_Trait)1>::__destroy[abi:ne180000]()::{lambda(auto:1&)#1}, std::__ndk1::__variant_detail::__base<(std::__ndk1::__variant_detail::__traits<geode::Hook*, std::__ndk1::basic_string<char, std::__ndk1::char_traits<char>, std::__ndk1::allocator<char> > >)1, geode::Hook, std::__ndk1::allocator<char> >&>(std::__ndk1::__variant_detail::__dtor<std::__ndk1::__variant_detail::__traits<geode::Hook*, std::__ndk1::basic_string<char, std::__ndk1::char_traits<char>, std::__ndk1::allocator<char> > >, (std::__ndk1::__variant_detail::_Trait)1>, std::__ndk1::__variant_detail::__base<(std::__ndk1::__variant_detail::__traits<geode::Hook*, std::__ndk1::basic_string<char, std::__ndk1::char_traits<char>, std::__ndk1::allocator<char> > >)1, geode::Hook, std::__ndk1::allocator<char> >&)
PUBLIC a534 0 std::__ndk1::__variant_detail::__visitation::__base::__dispatcher<(unsigned long)1>::__dispatch[abi:ne180000]<std::__ndk1::__variant_detail::__dtor<std::__ndk1::__variant_detail::__traits<geode::Hook*, std::__ndk1::basic_string<char, std::__ndk1::char_traits<char>, std::__ndk1::allocator<char> > >, (std::__ndk1::__variant_detail::_Trait)1>::__destroy[abi:ne180000]()::{lambda(auto:1&)#1}, std::__ndk1::__variant_detail::__base<(std::__ndk1::__variant_detail::__traits<geode::Hook*, std::__ndk1::basic_string<char, std::__ndk1::char_traits<char>, std::__ndk1::allocator<char> > >)1, geode::Hook, std::__ndk1::allocator<char> >&>(std::__ndk1::__variant_detail::__dtor<std::__ndk1::__variant_detail::__traits<geode::Hook*, std::__ndk1::basic_string<char, std::__ndk1::char_traits<char>, std::__ndk1::allocator<char> > >, (std::__ndk1::__variant_detail::_Trait)1>, std::__ndk1::__variant_detail::__base<(std::__ndk1::__variant_detail::__traits<geode::Hook*, std::__ndk1::basic_string<char, std::__ndk1::char_traits<char>, std::__ndk1::allocator<char> > >)1, geode::Hook, std::__ndk1::allocator<char> >&)
PUBLIC a548 0 std::__ndk1::__tree<std::__ndk1::__value_type<std::__ndk1::basic_string<char, std::__ndk1::char_traits<char>, std::__ndk1::allocator<char> >, std::__ndk1::shared_ptr<geode::Hook> >, std::__ndk1::__map_value_compare<std::__ndk1::basic_string<char, std::__ndk1::char_traits<char>, std::__ndk1::allocator<char> >, std::__ndk1::__value_type<std::__ndk1::basic_string<char, std::__ndk1::char_traits<char>, std::__ndk1::allocator<char> >, std::__ndk1::shared_ptr<geode::Hook> >, std::__ndk1::less<std::__ndk1::basic_string<char, std::__ndk1::char_traits<char>, std::__ndk1::allocator<char> > >, true>, std::__ndk1::allocator<std::__ndk1::__value_type<std::__ndk1::basic_string<char, std::__ndk1::char_traits<char>, std::__ndk1::allocator<char> >, std::__ndk1::shared_ptr<geode::Hook> > > >::find<std::__ndk1::basic_string<char, std::__ndk1::char_traits<char>, std::__ndk1::allocator<char> > >(std::__ndk1::basic_string<char, std::__ndk1::char_traits<char>, std::__ndk1::allocator<char> > const&)
PUBLIC a668 0 std::__ndk1::__tree<std::__ndk1::__value_type<std::__ndk1::basic_string<char, std::__ndk1::char_traits<char>, std::__ndk1::allocator<char> >, std::__ndk1::shared_ptr<geode::Hook> >, std::__ndk1::__map_value_compare<std::__ndk1::basic_string<char, std::__ndk1::char_traits<char>, std::__ndk1::allocator<char> >, std::__ndk1::__value_type<std::__ndk1::basic_string<char, std::__ndk1::char_traits<char>, std::__ndk1::allocator<char> >, std::__ndk1::shared_ptr<geode::Hook> >, std::__ndk1::less<std::__ndk1::basic_string<char, std::__ndk1::char_traits<char>, std::__ndk1::allocator<char> > >, true>, std::__ndk1::allocator<std::__ndk1::__value_type<std::__ndk1::basic_string<char, std::__ndk1::char_traits<char>, std::__ndk1::allocator<char> >, std::__ndk1::shared_ptr<geode::Hook> > > >::erase(std::__ndk1::__tree_const_iterator<std::__ndk1::__value_type<std::__ndk1::basic_string<char, std::__ndk1::char_traits<char>, std::__ndk1::allocator<char> >, std::__ndk1::shared_ptr<geode::Hook> >, std::__ndk1::__tree_node<std::__ndk1::__value_type<std::__ndk1::basic_string<char, std::__ndk1::char_traits<char>, std::__ndk1::allocator<char> >, std::__ndk1::shared_ptr<geode::Hook> >, void*>*, long>)
PUBLIC a73c 0 std::__ndk1::__tree_remove[abi:ne180000]<std::__ndk1::__tree_node_base<void*>*>(std::__ndk1::__tree_node_base<void*>*, std::__ndk1::__tree_node_base<void*>*)
PUBLIC ab04 0 std::__ndk1::__tree<std::__ndk1::__value_type<std::__ndk1::basic_string<char, std::__ndk1::char_traits<char>, std::__ndk1::allocator<char> >, std::__ndk1::shared_ptr<geode::Hook> >, std::__ndk1::__map_value_compare<std::__ndk1::basic_string<char, std::__ndk1::char_traits<char>, std::__ndk1::allocator<char> >, std::__ndk1::__value_type<std::__ndk1::basic_string<char, std::__ndk1::char_traits<char>, std::__ndk1::allocator<char> >, std::__ndk1::shared_ptr<geode::Hook> >, std::__ndk1::less<std::__ndk1::basic_string<char, std::__ndk1::char_traits<char>, std::__ndk1::allocator<char> > >, true>, std::__ndk1::allocator<std::__ndk1::__value_type<std::__ndk1::basic_string<char, std::__ndk1::char_traits<char>, std::__ndk1::allocator<char> >, std::__ndk1::shared_ptr<geode::Hook> > > >::destroy(std::__ndk1::__tree_node<std::__ndk1::__value_type<std::__ndk1::basic_string<char, std::__ndk1::char_traits<char>, std::__ndk1::allocator<char> >, std::__ndk1::shared_ptr<geode::Hook> >, void*>*)
PUBLIC ab90 0 geode::modifier::AsStaticFunction_customSetup<hook8<(anonymous namespace)::hook8Parent>, void (hook8<(anonymous namespace)::hook8Parent>::*)()>::Impl<void (hook8<(anonymous namespace)::hook8Parent>::*)()>::function(hook8<(anonymous namespace)::hook8Parent>*)
PUBLIC b1ac 0 geode::addresser::Addresser::addressOfVirtual<void, PauseLayer, >(void (PauseLayer::*)())
PUBLIC b254 0 PauseLayer::PauseLayer(geode::ZeroConstructorType)
PUBLIC b2e0 0 cocos2d::CCCopying::copyWithZone(cocos2d::CCZone*)
PUBLIC b2e8 0 std::__ndk1::shared_ptr<tulip::hook::CallingConvention>::~shared_ptr[abi:ne180000]()
PUBLIC b338 0 tulip::hook::HandlerMetadata::~HandlerMetadata()
PUBLIC b39c 0 geode::cocos::CCMenuItemExt::LambdaCallback<CCMenuItemSpriteExtra>::execute(cocos2d::CCNode*)
PUBLIC b40c 0 geode::cocos::CCMenuItemExt::LambdaCallback<CCMenuItemSpriteExtra>::~LambdaCallback()
PUBLIC b468 0 geode::cocos::CCMenuItemExt::LambdaCallback<CCMenuItemSpriteExtra>::~LambdaCallback()
PUBLIC b4cc 0 cocos2d::CCObject::update(float)
PUBLIC b4d0 0 std::__ndk1::__throw_bad_function_call[abi:ne180000]()
PUBLIC b504 0 std::__ndk1::bad_function_call::~bad_function_call()
PUBLIC b528 0 std::__ndk1::__function::__base<void (CCMenuItemSpriteExtra*)>::~__base()
PUBLIC b52c 0 std::__ndk1::__function::__func<hook8<(anonymous namespace)::hook8Parent>::customSetup()::{lambda(cocos2d::CCObject*)#1}, std::__ndk1::allocator<hook8<(anonymous namespace)::hook8Parent>::customSetup()::{lambda(cocos2d::CCObject*)#1}>, void (CCMenuItemSpriteExtra*)>::~__func()
PUBLIC b530 0 std::__ndk1::__function::__func<hook8<(anonymous namespace)::hook8Parent>::customSetup()::{lambda(cocos2d::CCObject*)#1}, std::__ndk1::allocator<hook8<(anonymous namespace)::hook8Parent>::customSetup()::{lambda(cocos2d::CCObject*)#1}>, void (CCMenuItemSpriteExtra*)>::__clone() const
PUBLIC b554 0 std::__ndk1::__function::__func<hook8<(anonymous namespace)::hook8Parent>::customSetup()::{lambda(cocos2d::CCObject*)#1}, std::__ndk1::allocator<hook8<(anonymous namespace)::hook8Parent>::customSetup()::{lambda(cocos2d::CCObject*)#1}>, void (CCMenuItemSpriteExtra*)>::__clone(std::__ndk1::__function::__base<void (CCMenuItemSpriteExtra*)>*) const
PUBLIC b564 0 std::__ndk1::__function::__func<hook8<(anonymous namespace)::hook8Parent>::customSetup()::{lambda(cocos2d::CCObject*)#1}, std::__ndk1::allocator<hook8<(anonymous namespace)::hook8Parent>::customSetup()::{lambda(cocos2d::CCObject*)#1}>, void (CCMenuItemSpriteExtra*)>::destroy()
PUBLIC b568 0 std::__ndk1::__function::__func<hook8<(anonymous namespace)::hook8Parent>::customSetup()::{lambda(cocos2d::CCObject*)#1}, std::__ndk1::allocator<hook8<(anonymous namespace)::hook8Parent>::customSetup()::{lambda(cocos2d::CCObject*)#1}>, void (CCMenuItemSpriteExtra*)>::destroy_deallocate()
PUBLIC b56c 0 std::__ndk1::__function::__func<hook8<(anonymous namespace)::hook8Parent>::customSetup()::{lambda(cocos2d::CCObject*)#1}, std::__ndk1::allocator<hook8<(anonymous namespace)::hook8Parent>::customSetup()::{lambda(cocos2d::CCObject*)#1}>, void (CCMenuItemSpriteExtra*)>::operator()(CCMenuItemSpriteExtra*&&)
PUBLIC b5a8 0 std::__ndk1::__function::__func<hook8<(anonymous namespace)::hook8Parent>::customSetup()::{lambda(cocos2d::CCObject*)#1}, std::__ndk1::allocator<hook8<(anonymous namespace)::hook8Parent>::customSetup()::{lambda(cocos2d::CCObject*)#1}>, void (CCMenuItemSpriteExtra*)>::target(std::type_info const&) const
PUBLIC b5c4 0 std::__ndk1::__function::__func<hook8<(anonymous namespace)::hook8Parent>::customSetup()::{lambda(cocos2d::CCObject*)#1}, std::__ndk1::allocator<hook8<(anonymous namespace)::hook8Parent>::customSetup()::{lambda(cocos2d::CCObject*)#1}>, void (CCMenuItemSpriteExtra*)>::target_type() const
PUBLIC b5d0 0 std::__ndk1::__tree<std::__ndk1::__value_type<std::__ndk1::basic_string<char, std::__ndk1::char_traits<char>, std::__ndk1::allocator<char> >, std::__ndk1::shared_ptr<geode::Hook> >, std::__ndk1::__map_value_compare<std::__ndk1::basic_string<char, std::__ndk1::char_traits<char>, std::__ndk1::allocator<char> >, std::__ndk1::__value_type<std::__ndk1::basic_string<char, std::__ndk1::char_traits<char>, std::__ndk1::allocator<char> >, std::__ndk1::shared_ptr<geode::Hook> >, std::__ndk1::less<std::__ndk1::basic_string<char, std::__ndk1::char_traits<char>, std::__ndk1::allocator<char> > >, true>, std::__ndk1::allocator<std::__ndk1::__value_type<std::__ndk1::basic_string<char, std::__ndk1::char_traits<char>, std::__ndk1::allocator<char> >, std::__ndk1::shared_ptr<geode::Hook> > > >::__emplace_unique_key_args<std::__ndk1::basic_string<char, std::__ndk1::char_traits<char>, std::__ndk1::allocator<char> >, std::__ndk1::piecewise_construct_t const&, std::__ndk1::tuple<std::__ndk1::basic_string<char, std::__ndk1::char_traits<char>, std::__ndk1::allocator<char> >&&>, std::__ndk1::tuple<> >(std::__ndk1::basic_string<char, std::__ndk1::char_traits<char>, std::__ndk1::allocator<char> > const&, std::__ndk1::piecewise_construct_t const&, std::__ndk1::tuple<std::__ndk1::basic_string<char, std::__ndk1::char_traits<char>, std::__ndk1::allocator<char> >&&>, std::__ndk1::tuple<>)
PUBLIC b748 0 std::__ndk1::__tree_balance_after_insert[abi:ne180000]<std::__ndk1::__tree_node_base<void*>*>(std::__ndk1::__tree_node_base<void*>*, std::__ndk1::__tree_node_base<void*>*)
PUBLIC b8f8 0 geode::Mod::getSettingValue<cocos2d::_ccColor3B>(std::__ndk1::basic_string_view<char, std::__ndk1::char_traits<char> >) const
PUBLIC ba14 0 geode::Mod::getSettingValue<bool>(std::__ndk1::basic_string_view<char, std::__ndk1::char_traits<char> >) const
PUBLIC bb44 0 geodeExecFunction24<(anonymous namespace)::ExecFuncUnique24>(geode::ModStateEvent*)
PUBLIC c5c0 0 __cxx_global_var_init.7
PUBLIC c620 0 geode::modifier::ModifyBase<geode::modifier::ModifyDerive<HookPlayerObject, PlayerObject> >::~ModifyBase()
PUBLIC c63c 0 geode::modifier::ModifyBase<geode::modifier::ModifyDerive<HookPlayerObject, PlayerObject> >::ModifyBase()
PUBLIC ca38 0 geode::modifier::ModifyDerive<HookPlayerObject, PlayerObject>::apply()
PUBLIC ced4 0 geode::modifier::ModifyBase<geode::modifier::ModifyDerive<HookPlayerObject, PlayerObject> >::apply()
PUBLIC ced8 0 geode::Hook::create<void (*)(HookPlayerObject*)>(void*, void (*)(HookPlayerObject*), std::__ndk1::basic_string<char, std::__ndk1::char_traits<char>, std::__ndk1::allocator<char> > const&, tulip::hook::TulipConvention, tulip::hook::HookMetadata const&)
PUBLIC d00c 0 geode::modifier::AsStaticFunction_resetStreak<HookPlayerObject, void (HookPlayerObject::*)()>::Impl<void (HookPlayerObject::*)()>::function(HookPlayerObject*)
PUBLIC d030 0 geode::Hook::create<void (*)(HookPlayerObject*, bool, bool)>(void*, void (*)(HookPlayerObject*, bool, bool), std::__ndk1::basic_string<char, std::__ndk1::char_traits<char>, std::__ndk1::allocator<char> > const&, tulip::hook::TulipConvention, tulip::hook::HookMetadata const&)
PUBLIC d148 0 geode::modifier::AsStaticFunction_toggleDartMode<HookPlayerObject, void (HookPlayerObject::*)(bool, bool)>::Impl<void (HookPlayerObject::*)(bool, bool)>::function(HookPlayerObject*, bool, bool)
PUBLIC d198 0 tulip::hook::AbstractFunction::from<void, HookPlayerObject*, bool, bool>(void (*)(HookPlayerObject*, bool, bool))
PUBLIC d2a0 0 std::__ndk1::shared_ptr<geode::SettingV3>::~shared_ptr[abi:ne180000]()
PUBLIC d2f0 0 geode::cast::traverseTypeinfoFor(void*, geode::cast::ClassTypeinfoType const*, char const*)
PUBLIC d3e8 0 geode::EventListener<geode::SettingChangedFilterV3>::EventListener(std::__ndk1::function<void (std::__ndk1::shared_ptr<geode::SettingV3>)>, geode::SettingChangedFilterV3)
PUBLIC d4e0 0 geode::SettingChangedFilterV3::~SettingChangedFilterV3()
PUBLIC d530 0 std::__ndk1::__function::__func<geode::listenForSettingChangesV3<cocos2d::_ccColor3B, geodeExecFunction24<(anonymous namespace)::ExecFuncUnique24>(geode::ModStateEvent*)::{lambda(cocos2d::_ccColor3B)#1}>(std::__ndk1::basic_string_view<char, std::__ndk1::char_traits<char> >, geodeExecFunction24<(anonymous namespace)::ExecFuncUnique24>(geode::ModStateEvent*)::{lambda(cocos2d::_ccColor3B&&)#1}, geode::Mod*)::{lambda(std::__ndk1::shared_ptr<geode::SettingV3>)#1}, std::__ndk1::allocator<geode::listenForSettingChangesV3<cocos2d::_ccColor3B, geodeExecFunction24<(anonymous namespace)::ExecFuncUnique24>(geode::ModStateEvent*)::{lambda(cocos2d::_ccColor3B)#1}>(std::__ndk1::basic_string_view<char, std::__ndk1::char_traits<char> >, geodeExecFunction24<(anonymous namespace)::ExecFuncUnique24>(geode::ModStateEvent*)::{lambda(cocos2d::_ccColor3B&&)#1}, geode::Mod*)::{lambda(std::__ndk1::shared_ptr<geode::SettingV3>)#1}>, void (std::__ndk1::shared_ptr<geode::SettingV3>)>::~__func()
PUBLIC d534 0 std::__ndk1::__function::__func<geode::listenForSettingChangesV3<cocos2d::_ccColor3B, geodeExecFunction24<(anonymous namespace)::ExecFuncUnique24>(geode::ModStateEvent*)::{lambda(cocos2d::_ccColor3B)#1}>(std::__ndk1::basic_string_view<char, std::__ndk1::char_traits<char> >, geodeExecFunction24<(anonymous namespace)::ExecFuncUnique24>(geode::ModStateEvent*)::{lambda(cocos2d::_ccColor3B&&)#1}, geode::Mod*)::{lambda(std::__ndk1::shared_ptr<geode::SettingV3>)#1}, std::__ndk1::allocator<geode::listenForSettingChangesV3<cocos2d::_ccColor3B, geodeExecFunction24<(anonymous namespace)::ExecFuncUnique24>(geode::ModStateEvent*)::{lambda(cocos2d::_ccColor3B)#1}>(std::__ndk1::basic_string_view<char, std::__ndk1::char_traits<char> >, geodeExecFunction24<(anonymous namespace)::ExecFuncUnique24>(geode::ModStateEvent*)::{lambda(cocos2d::_ccColor3B&&)#1}, geode::Mod*)::{lambda(std::__ndk1::shared_ptr<geode::SettingV3>)#1}>, void (std::__ndk1::shared_ptr<geode::SettingV3>)>::__clone() const
PUBLIC d568 0 std::__ndk1::__function::__func<geode::listenForSettingChangesV3<cocos2d::_ccColor3B, geodeExecFunction24<(anonymous namespace)::ExecFuncUnique24>(geode::ModStateEvent*)::{lambda(cocos2d::_ccColor3B)#1}>(std::__ndk1::basic_string_view<char, std::__ndk1::char_traits<char> >, geodeExecFunction24<(anonymous namespace)::ExecFuncUnique24>(geode::ModStateEvent*)::{lambda(cocos2d::_ccColor3B&&)#1}, geode::Mod*)::{lambda(std::__ndk1::shared_ptr<geode::SettingV3>)#1}, std::__ndk1::allocator<geode::listenForSettingChangesV3<cocos2d::_ccColor3B, geodeExecFunction24<(anonymous namespace)::ExecFuncUnique24>(geode::ModStateEvent*)::{lambda(cocos2d::_ccColor3B)#1}>(std::__ndk1::basic_string_view<char, std::__ndk1::char_traits<char> >, geodeExecFunction24<(anonymous namespace)::ExecFuncUnique24>(geode::ModStateEvent*)::{lambda(cocos2d::_ccColor3B&&)#1}, geode::Mod*)::{lambda(std::__ndk1::shared_ptr<geode::SettingV3>)#1}>, void (std::__ndk1::shared_ptr<geode::SettingV3>)>::__clone(std::__ndk1::__function::__base<void (std::__ndk1::shared_ptr<geode::SettingV3>)>*) const
PUBLIC d57c 0 std::__ndk1::__function::__func<geode::listenForSettingChangesV3<cocos2d::_ccColor3B, geodeExecFunction24<(anonymous namespace)::ExecFuncUnique24>(geode::ModStateEvent*)::{lambda(cocos2d::_ccColor3B)#1}>(std::__ndk1::basic_string_view<char, std::__ndk1::char_traits<char> >, geodeExecFunction24<(anonymous namespace)::ExecFuncUnique24>(geode::ModStateEvent*)::{lambda(cocos2d::_ccColor3B&&)#1}, geode::Mod*)::{lambda(std::__ndk1::shared_ptr<geode::SettingV3>)#1}, std::__ndk1::allocator<geode::listenForSettingChangesV3<cocos2d::_ccColor3B, geodeExecFunction24<(anonymous namespace)::ExecFuncUnique24>(geode::ModStateEvent*)::{lambda(cocos2d::_ccColor3B)#1}>(std::__ndk1::basic_string_view<char, std::__ndk1::char_traits<char> >, geodeExecFunction24<(anonymous namespace)::ExecFuncUnique24>(geode::ModStateEvent*)::{lambda(cocos2d::_ccColor3B&&)#1}, geode::Mod*)::{lambda(std::__ndk1::shared_ptr<geode::SettingV3>)#1}>, void (std::__ndk1::shared_ptr<geode::SettingV3>)>::destroy()
PUBLIC d580 0 std::__ndk1::__function::__func<geode::listenForSettingChangesV3<cocos2d::_ccColor3B, geodeExecFunction24<(anonymous namespace)::ExecFuncUnique24>(geode::ModStateEvent*)::{lambda(cocos2d::_ccColor3B)#1}>(std::__ndk1::basic_string_view<char, std::__ndk1::char_traits<char> >, geodeExecFunction24<(anonymous namespace)::ExecFuncUnique24>(geode::ModStateEvent*)::{lambda(cocos2d::_ccColor3B&&)#1}, geode::Mod*)::{lambda(std::__ndk1::shared_ptr<geode::SettingV3>)#1}, std::__ndk1::allocator<geode::listenForSettingChangesV3<cocos2d::_ccColor3B, geodeExecFunction24<(anonymous namespace)::ExecFuncUnique24>(geode::ModStateEvent*)::{lambda(cocos2d::_ccColor3B)#1}>(std::__ndk1::basic_string_view<char, std::__ndk1::char_traits<char> >, geodeExecFunction24<(anonymous namespace)::ExecFuncUnique24>(geode::ModStateEvent*)::{lambda(cocos2d::_ccColor3B&&)#1}, geode::Mod*)::{lambda(std::__ndk1::shared_ptr<geode::SettingV3>)#1}>, void (std::__ndk1::shared_ptr<geode::SettingV3>)>::destroy_deallocate()
PUBLIC d584 0 std::__ndk1::__function::__func<geode::listenForSettingChangesV3<cocos2d::_ccColor3B, geodeExecFunction24<(anonymous namespace)::ExecFuncUnique24>(geode::ModStateEvent*)::{lambda(cocos2d::_ccColor3B)#1}>(std::__ndk1::basic_string_view<char, std::__ndk1::char_traits<char> >, geodeExecFunction24<(anonymous namespace)::ExecFuncUnique24>(geode::ModStateEvent*)::{lambda(cocos2d::_ccColor3B&&)#1}, geode::Mod*)::{lambda(std::__ndk1::shared_ptr<geode::SettingV3>)#1}, std::__ndk1::allocator<geode::listenForSettingChangesV3<cocos2d::_ccColor3B, geodeExecFunction24<(anonymous namespace)::ExecFuncUnique24>(geode::ModStateEvent*)::{lambda(cocos2d::_ccColor3B)#1}>(std::__ndk1::basic_string_view<char, std::__ndk1::char_traits<char> >, geodeExecFunction24<(anonymous namespace)::ExecFuncUnique24>(geode::ModStateEvent*)::{lambda(cocos2d::_ccColor3B&&)#1}, geode::Mod*)::{lambda(std::__ndk1::shared_ptr<geode::SettingV3>)#1}>, void (std::__ndk1::shared_ptr<geode::SettingV3>)>::operator()(std::__ndk1::shared_ptr<geode::SettingV3>&&)
PUBLIC d688 0 std::__ndk1::__function::__func<geode::listenForSettingChangesV3<cocos2d::_ccColor3B, geodeExecFunction24<(anonymous namespace)::ExecFuncUnique24>(geode::ModStateEvent*)::{lambda(cocos2d::_ccColor3B)#1}>(std::__ndk1::basic_string_view<char, std::__ndk1::char_traits<char> >, geodeExecFunction24<(anonymous namespace)::ExecFuncUnique24>(geode::ModStateEvent*)::{lambda(cocos2d::_ccColor3B&&)#1}, geode::Mod*)::{lambda(std::__ndk1::shared_ptr<geode::SettingV3>)#1}, std::__ndk1::allocator<geode::listenForSettingChangesV3<cocos2d::_ccColor3B, geodeExecFunction24<(anonymous namespace)::ExecFuncUnique24>(geode::ModStateEvent*)::{lambda(cocos2d::_ccColor3B)#1}>(std::__ndk1::basic_string_view<char, std::__ndk1::char_traits<char> >, geodeExecFunction24<(anonymous namespace)::ExecFuncUnique24>(geode::ModStateEvent*)::{lambda(cocos2d::_ccColor3B&&)#1}, geode::Mod*)::{lambda(std::__ndk1::shared_ptr<geode::SettingV3>)#1}>, void (std::__ndk1::shared_ptr<geode::SettingV3>)>::target(std::type_info const&) const
PUBLIC d6a4 0 std::__ndk1::__function::__func<geode::listenForSettingChangesV3<cocos2d::_ccColor3B, geodeExecFunction24<(anonymous namespace)::ExecFuncUnique24>(geode::ModStateEvent*)::{lambda(cocos2d::_ccColor3B)#1}>(std::__ndk1::basic_string_view<char, std::__ndk1::char_traits<char> >, geodeExecFunction24<(anonymous namespace)::ExecFuncUnique24>(geode::ModStateEvent*)::{lambda(cocos2d::_ccColor3B&&)#1}, geode::Mod*)::{lambda(std::__ndk1::shared_ptr<geode::SettingV3>)#1}, std::__ndk1::allocator<geode::listenForSettingChangesV3<cocos2d::_ccColor3B, geodeExecFunction24<(anonymous namespace)::ExecFuncUnique24>(geode::ModStateEvent*)::{lambda(cocos2d::_ccColor3B)#1}>(std::__ndk1::basic_string_view<char, std::__ndk1::char_traits<char> >, geodeExecFunction24<(anonymous namespace)::ExecFuncUnique24>(geode::ModStateEvent*)::{lambda(cocos2d::_ccColor3B&&)#1}, geode::Mod*)::{lambda(std::__ndk1::shared_ptr<geode::SettingV3>)#1}>, void (std::__ndk1::shared_ptr<geode::SettingV3>)>::target_type() const
PUBLIC d6b0 0 geode::EventListener<geode::SettingChangedFilterV3>::getPool() const
PUBLIC d6b4 0 geode::EventListener<geode::SettingChangedFilterV3>::handle(geode::Event*)
PUBLIC d818 0 geode::EventListener<geode::SettingChangedFilterV3>::~EventListener()
PUBLIC d8b4 0 geode::EventListener<geode::SettingChangedFilterV3>::~EventListener()
PUBLIC d958 0 std::__ndk1::__function::__func<geode::listenForSettingChangesV3<cocos2d::_ccColor3B, geodeExecFunction24<(anonymous namespace)::ExecFuncUnique24>(geode::ModStateEvent*)::{lambda(cocos2d::_ccColor3B)#2}>(std::__ndk1::basic_string_view<char, std::__ndk1::char_traits<char> >, geodeExecFunction24<(anonymous namespace)::ExecFuncUnique24>(geode::ModStateEvent*)::{lambda(cocos2d::_ccColor3B&&)#2}, geode::Mod*)::{lambda(std::__ndk1::shared_ptr<geode::SettingV3>)#1}, std::__ndk1::allocator<geode::listenForSettingChangesV3<cocos2d::_ccColor3B, geodeExecFunction24<(anonymous namespace)::ExecFuncUnique24>(geode::ModStateEvent*)::{lambda(cocos2d::_ccColor3B)#2}>(std::__ndk1::basic_string_view<char, std::__ndk1::char_traits<char> >, geodeExecFunction24<(anonymous namespace)::ExecFuncUnique24>(geode::ModStateEvent*)::{lambda(cocos2d::_ccColor3B&&)#2}, geode::Mod*)::{lambda(std::__ndk1::shared_ptr<geode::SettingV3>)#1}>, void (std::__ndk1::shared_ptr<geode::SettingV3>)>::~__func()
PUBLIC d95c 0 std::__ndk1::__function::__func<geode::listenForSettingChangesV3<cocos2d::_ccColor3B, geodeExecFunction24<(anonymous namespace)::ExecFuncUnique24>(geode::ModStateEvent*)::{lambda(cocos2d::_ccColor3B)#2}>(std::__ndk1::basic_string_view<char, std::__ndk1::char_traits<char> >, geodeExecFunction24<(anonymous namespace)::ExecFuncUnique24>(geode::ModStateEvent*)::{lambda(cocos2d::_ccColor3B&&)#2}, geode::Mod*)::{lambda(std::__ndk1::shared_ptr<geode::SettingV3>)#1}, std::__ndk1::allocator<geode::listenForSettingChangesV3<cocos2d::_ccColor3B, geodeExecFunction24<(anonymous namespace)::ExecFuncUnique24>(geode::ModStateEvent*)::{lambda(cocos2d::_ccColor3B)#2}>(std::__ndk1::basic_string_view<char, std::__ndk1::char_traits<char> >, geodeExecFunction24<(anonymous namespace)::ExecFuncUnique24>(geode::ModStateEvent*)::{lambda(cocos2d::_ccColor3B&&)#2}, geode::Mod*)::{lambda(std::__ndk1::shared_ptr<geode::SettingV3>)#1}>, void (std::__ndk1::shared_ptr<geode::SettingV3>)>::__clone() const
PUBLIC d990 0 std::__ndk1::__function::__func<geode::listenForSettingChangesV3<cocos2d::_ccColor3B, geodeExecFunction24<(anonymous namespace)::ExecFuncUnique24>(geode::ModStateEvent*)::{lambda(cocos2d::_ccColor3B)#2}>(std::__ndk1::basic_string_view<char, std::__ndk1::char_traits<char> >, geodeExecFunction24<(anonymous namespace)::ExecFuncUnique24>(geode::ModStateEvent*)::{lambda(cocos2d::_ccColor3B&&)#2}, geode::Mod*)::{lambda(std::__ndk1::shared_ptr<geode::SettingV3>)#1}, std::__ndk1::allocator<geode::listenForSettingChangesV3<cocos2d::_ccColor3B, geodeExecFunction24<(anonymous namespace)::ExecFuncUnique24>(geode::ModStateEvent*)::{lambda(cocos2d::_ccColor3B)#2}>(std::__ndk1::basic_string_view<char, std::__ndk1::char_traits<char> >, geodeExecFunction24<(anonymous namespace)::ExecFuncUnique24>(geode::ModStateEvent*)::{lambda(cocos2d::_ccColor3B&&)#2}, geode::Mod*)::{lambda(std::__ndk1::shared_ptr<geode::SettingV3>)#1}>, void (std::__ndk1::shared_ptr<geode::SettingV3>)>::__clone(std::__ndk1::__function::__base<void (std::__ndk1::shared_ptr<geode::SettingV3>)>*) const
PUBLIC d9a4 0 std::__ndk1::__function::__func<geode::listenForSettingChangesV3<cocos2d::_ccColor3B, geodeExecFunction24<(anonymous namespace)::ExecFuncUnique24>(geode::ModStateEvent*)::{lambda(cocos2d::_ccColor3B)#2}>(std::__ndk1::basic_string_view<char, std::__ndk1::char_traits<char> >, geodeExecFunction24<(anonymous namespace)::ExecFuncUnique24>(geode::ModStateEvent*)::{lambda(cocos2d::_ccColor3B&&)#2}, geode::Mod*)::{lambda(std::__ndk1::shared_ptr<geode::SettingV3>)#1}, std::__ndk1::allocator<geode::listenForSettingChangesV3<cocos2d::_ccColor3B, geodeExecFunction24<(anonymous namespace)::ExecFuncUnique24>(geode::ModStateEvent*)::{lambda(cocos2d::_ccColor3B)#2}>(std::__ndk1::basic_string_view<char, std::__ndk1::char_traits<char> >, geodeExecFunction24<(anonymous namespace)::ExecFuncUnique24>(geode::ModStateEvent*)::{lambda(cocos2d::_ccColor3B&&)#2}, geode::Mod*)::{lambda(std::__ndk1::shared_ptr<geode::SettingV3>)#1}>, void (std::__ndk1::shared_ptr<geode::SettingV3>)>::destroy()
PUBLIC d9a8 0 std::__ndk1::__function::__func<geode::listenForSettingChangesV3<cocos2d::_ccColor3B, geodeExecFunction24<(anonymous namespace)::ExecFuncUnique24>(geode::ModStateEvent*)::{lambda(cocos2d::_ccColor3B)#2}>(std::__ndk1::basic_string_view<char, std::__ndk1::char_traits<char> >, geodeExecFunction24<(anonymous namespace)::ExecFuncUnique24>(geode::ModStateEvent*)::{lambda(cocos2d::_ccColor3B&&)#2}, geode::Mod*)::{lambda(std::__ndk1::shared_ptr<geode::SettingV3>)#1}, std::__ndk1::allocator<geode::listenForSettingChangesV3<cocos2d::_ccColor3B, geodeExecFunction24<(anonymous namespace)::ExecFuncUnique24>(geode::ModStateEvent*)::{lambda(cocos2d::_ccColor3B)#2}>(std::__ndk1::basic_string_view<char, std::__ndk1::char_traits<char> >, geodeExecFunction24<(anonymous namespace)::ExecFuncUnique24>(geode::ModStateEvent*)::{lambda(cocos2d::_ccColor3B&&)#2}, geode::Mod*)::{lambda(std::__ndk1::shared_ptr<geode::SettingV3>)#1}>, void (std::__ndk1::shared_ptr<geode::SettingV3>)>::destroy_deallocate()
PUBLIC d9ac 0 std::__ndk1::__function::__func<geode::listenForSettingChangesV3<cocos2d::_ccColor3B, geodeExecFunction24<(anonymous namespace)::ExecFuncUnique24>(geode::ModStateEvent*)::{lambda(cocos2d::_ccColor3B)#2}>(std::__ndk1::basic_string_view<char, std::__ndk1::char_traits<char> >, geodeExecFunction24<(anonymous namespace)::ExecFuncUnique24>(geode::ModStateEvent*)::{lambda(cocos2d::_ccColor3B&&)#2}, geode::Mod*)::{lambda(std::__ndk1::shared_ptr<geode::SettingV3>)#1}, std::__ndk1::allocator<geode::listenForSettingChangesV3<cocos2d::_ccColor3B, geodeExecFunction24<(anonymous namespace)::ExecFuncUnique24>(geode::ModStateEvent*)::{lambda(cocos2d::_ccColor3B)#2}>(std::__ndk1::basic_string_view<char, std::__ndk1::char_traits<char> >, geodeExecFunction24<(anonymous namespace)::ExecFuncUnique24>(geode::ModStateEvent*)::{lambda(cocos2d::_ccColor3B&&)#2}, geode::Mod*)::{lambda(std::__ndk1::shared_ptr<geode::SettingV3>)#1}>, void (std::__ndk1::shared_ptr<geode::SettingV3>)>::operator()(std::__ndk1::shared_ptr<geode::SettingV3>&&)
PUBLIC dab0 0 std::__ndk1::__function::__func<geode::listenForSettingChangesV3<cocos2d::_ccColor3B, geodeExecFunction24<(anonymous namespace)::ExecFuncUnique24>(geode::ModStateEvent*)::{lambda(cocos2d::_ccColor3B)#2}>(std::__ndk1::basic_string_view<char, std::__ndk1::char_traits<char> >, geodeExecFunction24<(anonymous namespace)::ExecFuncUnique24>(geode::ModStateEvent*)::{lambda(cocos2d::_ccColor3B&&)#2}, geode::Mod*)::{lambda(std::__ndk1::shared_ptr<geode::SettingV3>)#1}, std::__ndk1::allocator<geode::listenForSettingChangesV3<cocos2d::_ccColor3B, geodeExecFunction24<(anonymous namespace)::ExecFuncUnique24>(geode::ModStateEvent*)::{lambda(cocos2d::_ccColor3B)#2}>(std::__ndk1::basic_string_view<char, std::__ndk1::char_traits<char> >, geodeExecFunction24<(anonymous namespace)::ExecFuncUnique24>(geode::ModStateEvent*)::{lambda(cocos2d::_ccColor3B&&)#2}, geode::Mod*)::{lambda(std::__ndk1::shared_ptr<geode::SettingV3>)#1}>, void (std::__ndk1::shared_ptr<geode::SettingV3>)>::target(std::type_info const&) const
PUBLIC dacc 0 std::__ndk1::__function::__func<geode::listenForSettingChangesV3<cocos2d::_ccColor3B, geodeExecFunction24<(anonymous namespace)::ExecFuncUnique24>(geode::ModStateEvent*)::{lambda(cocos2d::_ccColor3B)#2}>(std::__ndk1::basic_string_view<char, std::__ndk1::char_traits<char> >, geodeExecFunction24<(anonymous namespace)::ExecFuncUnique24>(geode::ModStateEvent*)::{lambda(cocos2d::_ccColor3B&&)#2}, geode::Mod*)::{lambda(std::__ndk1::shared_ptr<geode::SettingV3>)#1}, std::__ndk1::allocator<geode::listenForSettingChangesV3<cocos2d::_ccColor3B, geodeExecFunction24<(anonymous namespace)::ExecFuncUnique24>(geode::ModStateEvent*)::{lambda(cocos2d::_ccColor3B)#2}>(std::__ndk1::basic_string_view<char, std::__ndk1::char_traits<char> >, geodeExecFunction24<(anonymous namespace)::ExecFuncUnique24>(geode::ModStateEvent*)::{lambda(cocos2d::_ccColor3B&&)#2}, geode::Mod*)::{lambda(std::__ndk1::shared_ptr<geode::SettingV3>)#1}>, void (std::__ndk1::shared_ptr<geode::SettingV3>)>::target_type() const
PUBLIC dad8 0 std::__ndk1::__function::__func<geode::listenForSettingChangesV3<bool, geodeExecFunction24<(anonymous namespace)::ExecFuncUnique24>(geode::ModStateEvent*)::{lambda(bool)#1}>(std::__ndk1::basic_string_view<char, std::__ndk1::char_traits<char> >, geodeExecFunction24<(anonymous namespace)::ExecFuncUnique24>(geode::ModStateEvent*)::{lambda(bool)#1}&&, geode::Mod*)::{lambda(std::__ndk1::shared_ptr<geode::SettingV3>)#1}, std::__ndk1::allocator<geode::listenForSettingChangesV3<bool, geodeExecFunction24<(anonymous namespace)::ExecFuncUnique24>(geode::ModStateEvent*)::{lambda(bool)#1}>(std::__ndk1::basic_string_view<char, std::__ndk1::char_traits<char> >, geodeExecFunction24<(anonymous namespace)::ExecFuncUnique24>(geode::ModStateEvent*)::{lambda(bool)#1}&&, geode::Mod*)::{lambda(std::__ndk1::shared_ptr<geode::SettingV3>)#1}>, void (std::__ndk1::shared_ptr<geode::SettingV3>)>::~__func()
PUBLIC dadc 0 std::__ndk1::__function::__func<geode::listenForSettingChangesV3<bool, geodeExecFunction24<(anonymous namespace)::ExecFuncUnique24>(geode::ModStateEvent*)::{lambda(bool)#1}>(std::__ndk1::basic_string_view<char, std::__ndk1::char_traits<char> >, geodeExecFunction24<(anonymous namespace)::ExecFuncUnique24>(geode::ModStateEvent*)::{lambda(bool)#1}&&, geode::Mod*)::{lambda(std::__ndk1::shared_ptr<geode::SettingV3>)#1}, std::__ndk1::allocator<geode::listenForSettingChangesV3<bool, geodeExecFunction24<(anonymous namespace)::ExecFuncUnique24>(geode::ModStateEvent*)::{lambda(bool)#1}>(std::__ndk1::basic_string_view<char, std::__ndk1::char_traits<char> >, geodeExecFunction24<(anonymous namespace)::ExecFuncUnique24>(geode::ModStateEvent*)::{lambda(bool)#1}&&, geode::Mod*)::{lambda(std::__ndk1::shared_ptr<geode::SettingV3>)#1}>, void (std::__ndk1::shared_ptr<geode::SettingV3>)>::__clone() const
PUBLIC db10 0 std::__ndk1::__function::__func<geode::listenForSettingChangesV3<bool, geodeExecFunction24<(anonymous namespace)::ExecFuncUnique24>(geode::ModStateEvent*)::{lambda(bool)#1}>(std::__ndk1::basic_string_view<char, std::__ndk1::char_traits<char> >, geodeExecFunction24<(anonymous namespace)::ExecFuncUnique24>(geode::ModStateEvent*)::{lambda(bool)#1}&&, geode::Mod*)::{lambda(std::__ndk1::shared_ptr<geode::SettingV3>)#1}, std::__ndk1::allocator<geode::listenForSettingChangesV3<bool, geodeExecFunction24<(anonymous namespace)::ExecFuncUnique24>(geode::ModStateEvent*)::{lambda(bool)#1}>(std::__ndk1::basic_string_view<char, std::__ndk1::char_traits<char> >, geodeExecFunction24<(anonymous namespace)::ExecFuncUnique24>(geode::ModStateEvent*)::{lambda(bool)#1}&&, geode::Mod*)::{lambda(std::__ndk1::shared_ptr<geode::SettingV3>)#1}>, void (std::__ndk1::shared_ptr<geode::SettingV3>)>::__clone(std::__ndk1::__function::__base<void (std::__ndk1::shared_ptr<geode::SettingV3>)>*) const
PUBLIC db24 0 std::__ndk1::__function::__func<geode::listenForSettingChangesV3<bool, geodeExecFunction24<(anonymous namespace)::ExecFuncUnique24>(geode::ModStateEvent*)::{lambda(bool)#1}>(std::__ndk1::basic_string_view<char, std::__ndk1::char_traits<char> >, geodeExecFunction24<(anonymous namespace)::ExecFuncUnique24>(geode::ModStateEvent*)::{lambda(bool)#1}&&, geode::Mod*)::{lambda(std::__ndk1::shared_ptr<geode::SettingV3>)#1}, std::__ndk1::allocator<geode::listenForSettingChangesV3<bool, geodeExecFunction24<(anonymous namespace)::ExecFuncUnique24>(geode::ModStateEvent*)::{lambda(bool)#1}>(std::__ndk1::basic_string_view<char, std::__ndk1::char_traits<char> >, geodeExecFunction24<(anonymous namespace)::ExecFuncUnique24>(geode::ModStateEvent*)::{lambda(bool)#1}&&, geode::Mod*)::{lambda(std::__ndk1::shared_ptr<geode::SettingV3>)#1}>, void (std::__ndk1::shared_ptr<geode::SettingV3>)>::destroy()
PUBLIC db28 0 std::__ndk1::__function::__func<geode::listenForSettingChangesV3<bool, geodeExecFunction24<(anonymous namespace)::ExecFuncUnique24>(geode::ModStateEvent*)::{lambda(bool)#1}>(std::__ndk1::basic_string_view<char, std::__ndk1::char_traits<char> >, geodeExecFunction24<(anonymous namespace)::ExecFuncUnique24>(geode::ModStateEvent*)::{lambda(bool)#1}&&, geode::Mod*)::{lambda(std::__ndk1::shared_ptr<geode::SettingV3>)#1}, std::__ndk1::allocator<geode::listenForSettingChangesV3<bool, geodeExecFunction24<(anonymous namespace)::ExecFuncUnique24>(geode::ModStateEvent*)::{lambda(bool)#1}>(std::__ndk1::basic_string_view<char, std::__ndk1::char_traits<char> >, geodeExecFunction24<(anonymous namespace)::ExecFuncUnique24>(geode::ModStateEvent*)::{lambda(bool)#1}&&, geode::Mod*)::{lambda(std::__ndk1::shared_ptr<geode::SettingV3>)#1}>, void (std::__ndk1::shared_ptr<geode::SettingV3>)>::destroy_deallocate()
PUBLIC db2c 0 std::__ndk1::__function::__func<geode::listenForSettingChangesV3<bool, geodeExecFunction24<(anonymous namespace)::ExecFuncUnique24>(geode::ModStateEvent*)::{lambda(bool)#1}>(std::__ndk1::basic_string_view<char, std::__ndk1::char_traits<char> >, geodeExecFunction24<(anonymous namespace)::ExecFuncUnique24>(geode::ModStateEvent*)::{lambda(bool)#1}&&, geode::Mod*)::{lambda(std::__ndk1::shared_ptr<geode::SettingV3>)#1}, std::__ndk1::allocator<geode::listenForSettingChangesV3<bool, geodeExecFunction24<(anonymous namespace)::ExecFuncUnique24>(geode::ModStateEvent*)::{lambda(bool)#1}>(std::__ndk1::basic_string_view<char, std::__ndk1::char_traits<char> >, geodeExecFunction24<(anonymous namespace)::ExecFuncUnique24>(geode::ModStateEvent*)::{lambda(bool)#1}&&, geode::Mod*)::{lambda(std::__ndk1::shared_ptr<geode::SettingV3>)#1}>, void (std::__ndk1::shared_ptr<geode::SettingV3>)>::operator()(std::__ndk1::shared_ptr<geode::SettingV3>&&)
PUBLIC dc28 0 std::__ndk1::__function::__func<geode::listenForSettingChangesV3<bool, geodeExecFunction24<(anonymous namespace)::ExecFuncUnique24>(geode::ModStateEvent*)::{lambda(bool)#1}>(std::__ndk1::basic_string_view<char, std::__ndk1::char_traits<char> >, geodeExecFunction24<(anonymous namespace)::ExecFuncUnique24>(geode::ModStateEvent*)::{lambda(bool)#1}&&, geode::Mod*)::{lambda(std::__ndk1::shared_ptr<geode::SettingV3>)#1}, std::__ndk1::allocator<geode::listenForSettingChangesV3<bool, geodeExecFunction24<(anonymous namespace)::ExecFuncUnique24>(geode::ModStateEvent*)::{lambda(bool)#1}>(std::__ndk1::basic_string_view<char, std::__ndk1::char_traits<char> >, geodeExecFunction24<(anonymous namespace)::ExecFuncUnique24>(geode::ModStateEvent*)::{lambda(bool)#1}&&, geode::Mod*)::{lambda(std::__ndk1::shared_ptr<geode::SettingV3>)#1}>, void (std::__ndk1::shared_ptr<geode::SettingV3>)>::target(std::type_info const&) const
PUBLIC dc44 0 std::__ndk1::__function::__func<geode::listenForSettingChangesV3<bool, geodeExecFunction24<(anonymous namespace)::ExecFuncUnique24>(geode::ModStateEvent*)::{lambda(bool)#1}>(std::__ndk1::basic_string_view<char, std::__ndk1::char_traits<char> >, geodeExecFunction24<(anonymous namespace)::ExecFuncUnique24>(geode::ModStateEvent*)::{lambda(bool)#1}&&, geode::Mod*)::{lambda(std::__ndk1::shared_ptr<geode::SettingV3>)#1}, std::__ndk1::allocator<geode::listenForSettingChangesV3<bool, geodeExecFunction24<(anonymous namespace)::ExecFuncUnique24>(geode::ModStateEvent*)::{lambda(bool)#1}>(std::__ndk1::basic_string_view<char, std::__ndk1::char_traits<char> >, geodeExecFunction24<(anonymous namespace)::ExecFuncUnique24>(geode::ModStateEvent*)::{lambda(bool)#1}&&, geode::Mod*)::{lambda(std::__ndk1::shared_ptr<geode::SettingV3>)#1}>, void (std::__ndk1::shared_ptr<geode::SettingV3>)>::target_type() const
PUBLIC dc50 0 std::__ndk1::__function::__func<geode::listenForSettingChangesV3<bool, geodeExecFunction24<(anonymous namespace)::ExecFuncUnique24>(geode::ModStateEvent*)::{lambda(bool)#2}>(std::__ndk1::basic_string_view<char, std::__ndk1::char_traits<char> >, geodeExecFunction24<(anonymous namespace)::ExecFuncUnique24>(geode::ModStateEvent*)::{lambda(bool)#2}&&, geode::Mod*)::{lambda(std::__ndk1::shared_ptr<geode::SettingV3>)#1}, std::__ndk1::allocator<geode::listenForSettingChangesV3<bool, geodeExecFunction24<(anonymous namespace)::ExecFuncUnique24>(geode::ModStateEvent*)::{lambda(bool)#2}>(std::__ndk1::basic_string_view<char, std::__ndk1::char_traits<char> >, geodeExecFunction24<(anonymous namespace)::ExecFuncUnique24>(geode::ModStateEvent*)::{lambda(bool)#2}&&, geode::Mod*)::{lambda(std::__ndk1::shared_ptr<geode::SettingV3>)#1}>, void (std::__ndk1::shared_ptr<geode::SettingV3>)>::~__func()
PUBLIC dc54 0 std::__ndk1::__function::__func<geode::listenForSettingChangesV3<bool, geodeExecFunction24<(anonymous namespace)::ExecFuncUnique24>(geode::ModStateEvent*)::{lambda(bool)#2}>(std::__ndk1::basic_string_view<char, std::__ndk1::char_traits<char> >, geodeExecFunction24<(anonymous namespace)::ExecFuncUnique24>(geode::ModStateEvent*)::{lambda(bool)#2}&&, geode::Mod*)::{lambda(std::__ndk1::shared_ptr<geode::SettingV3>)#1}, std::__ndk1::allocator<geode::listenForSettingChangesV3<bool, geodeExecFunction24<(anonymous namespace)::ExecFuncUnique24>(geode::ModStateEvent*)::{lambda(bool)#2}>(std::__ndk1::basic_string_view<char, std::__ndk1::char_traits<char> >, geodeExecFunction24<(anonymous namespace)::ExecFuncUnique24>(geode::ModStateEvent*)::{lambda(bool)#2}&&, geode::Mod*)::{lambda(std::__ndk1::shared_ptr<geode::SettingV3>)#1}>, void (std::__ndk1::shared_ptr<geode::SettingV3>)>::__clone() const
PUBLIC dc88 0 std::__ndk1::__function::__func<geode::listenForSettingChangesV3<bool, geodeExecFunction24<(anonymous namespace)::ExecFuncUnique24>(geode::ModStateEvent*)::{lambda(bool)#2}>(std::__ndk1::basic_string_view<char, std::__ndk1::char_traits<char> >, geodeExecFunction24<(anonymous namespace)::ExecFuncUnique24>(geode::ModStateEvent*)::{lambda(bool)#2}&&, geode::Mod*)::{lambda(std::__ndk1::shared_ptr<geode::SettingV3>)#1}, std::__ndk1::allocator<geode::listenForSettingChangesV3<bool, geodeExecFunction24<(anonymous namespace)::ExecFuncUnique24>(geode::ModStateEvent*)::{lambda(bool)#2}>(std::__ndk1::basic_string_view<char, std::__ndk1::char_traits<char> >, geodeExecFunction24<(anonymous namespace)::ExecFuncUnique24>(geode::ModStateEvent*)::{lambda(bool)#2}&&, geode::Mod*)::{lambda(std::__ndk1::shared_ptr<geode::SettingV3>)#1}>, void (std::__ndk1::shared_ptr<geode::SettingV3>)>::__clone(std::__ndk1::__function::__base<void (std::__ndk1::shared_ptr<geode::SettingV3>)>*) const
PUBLIC dc9c 0 std::__ndk1::__function::__func<geode::listenForSettingChangesV3<bool, geodeExecFunction24<(anonymous namespace)::ExecFuncUnique24>(geode::ModStateEvent*)::{lambda(bool)#2}>(std::__ndk1::basic_string_view<char, std::__ndk1::char_traits<char> >, geodeExecFunction24<(anonymous namespace)::ExecFuncUnique24>(geode::ModStateEvent*)::{lambda(bool)#2}&&, geode::Mod*)::{lambda(std::__ndk1::shared_ptr<geode::SettingV3>)#1}, std::__ndk1::allocator<geode::listenForSettingChangesV3<bool, geodeExecFunction24<(anonymous namespace)::ExecFuncUnique24>(geode::ModStateEvent*)::{lambda(bool)#2}>(std::__ndk1::basic_string_view<char, std::__ndk1::char_traits<char> >, geodeExecFunction24<(anonymous namespace)::ExecFuncUnique24>(geode::ModStateEvent*)::{lambda(bool)#2}&&, geode::Mod*)::{lambda(std::__ndk1::shared_ptr<geode::SettingV3>)#1}>, void (std::__ndk1::shared_ptr<geode::SettingV3>)>::destroy()
PUBLIC dca0 0 std::__ndk1::__function::__func<geode::listenForSettingChangesV3<bool, geodeExecFunction24<(anonymous namespace)::ExecFuncUnique24>(geode::ModStateEvent*)::{lambda(bool)#2}>(std::__ndk1::basic_string_view<char, std::__ndk1::char_traits<char> >, geodeExecFunction24<(anonymous namespace)::ExecFuncUnique24>(geode::ModStateEvent*)::{lambda(bool)#2}&&, geode::Mod*)::{lambda(std::__ndk1::shared_ptr<geode::SettingV3>)#1}, std::__ndk1::allocator<geode::listenForSettingChangesV3<bool, geodeExecFunction24<(anonymous namespace)::ExecFuncUnique24>(geode::ModStateEvent*)::{lambda(bool)#2}>(std::__ndk1::basic_string_view<char, std::__ndk1::char_traits<char> >, geodeExecFunction24<(anonymous namespace)::ExecFuncUnique24>(geode::ModStateEvent*)::{lambda(bool)#2}&&, geode::Mod*)::{lambda(std::__ndk1::shared_ptr<geode::SettingV3>)#1}>, void (std::__ndk1::shared_ptr<geode::SettingV3>)>::destroy_deallocate()
PUBLIC dca4 0 std::__ndk1::__function::__func<geode::listenForSettingChangesV3<bool, geodeExecFunction24<(anonymous namespace)::ExecFuncUnique24>(geode::ModStateEvent*)::{lambda(bool)#2}>(std::__ndk1::basic_string_view<char, std::__ndk1::char_traits<char> >, geodeExecFunction24<(anonymous namespace)::ExecFuncUnique24>(geode::ModStateEvent*)::{lambda(bool)#2}&&, geode::Mod*)::{lambda(std::__ndk1::shared_ptr<geode::SettingV3>)#1}, std::__ndk1::allocator<geode::listenForSettingChangesV3<bool, geodeExecFunction24<(anonymous namespace)::ExecFuncUnique24>(geode::ModStateEvent*)::{lambda(bool)#2}>(std::__ndk1::basic_string_view<char, std::__ndk1::char_traits<char> >, geodeExecFunction24<(anonymous namespace)::ExecFuncUnique24>(geode::ModStateEvent*)::{lambda(bool)#2}&&, geode::Mod*)::{lambda(std::__ndk1::shared_ptr<geode::SettingV3>)#1}>, void (std::__ndk1::shared_ptr<geode::SettingV3>)>::operator()(std::__ndk1::shared_ptr<geode::SettingV3>&&)
PUBLIC dda0 0 std::__ndk1::__function::__func<geode::listenForSettingChangesV3<bool, geodeExecFunction24<(anonymous namespace)::ExecFuncUnique24>(geode::ModStateEvent*)::{lambda(bool)#2}>(std::__ndk1::basic_string_view<char, std::__ndk1::char_traits<char> >, geodeExecFunction24<(anonymous namespace)::ExecFuncUnique24>(geode::ModStateEvent*)::{lambda(bool)#2}&&, geode::Mod*)::{lambda(std::__ndk1::shared_ptr<geode::SettingV3>)#1}, std::__ndk1::allocator<geode::listenForSettingChangesV3<bool, geodeExecFunction24<(anonymous namespace)::ExecFuncUnique24>(geode::ModStateEvent*)::{lambda(bool)#2}>(std::__ndk1::basic_string_view<char, std::__ndk1::char_traits<char> >, geodeExecFunction24<(anonymous namespace)::ExecFuncUnique24>(geode::ModStateEvent*)::{lambda(bool)#2}&&, geode::Mod*)::{lambda(std::__ndk1::shared_ptr<geode::SettingV3>)#1}>, void (std::__ndk1::shared_ptr<geode::SettingV3>)>::target(std::type_info const&) const
PUBLIC ddbc 0 std::__ndk1::__function::__func<geode::listenForSettingChangesV3<bool, geodeExecFunction24<(anonymous namespace)::ExecFuncUnique24>(geode::ModStateEvent*)::{lambda(bool)#2}>(std::__ndk1::basic_string_view<char, std::__ndk1::char_traits<char> >, geodeExecFunction24<(anonymous namespace)::ExecFuncUnique24>(geode::ModStateEvent*)::{lambda(bool)#2}&&, geode::Mod*)::{lambda(std::__ndk1::shared_ptr<geode::SettingV3>)#1}, std::__ndk1::allocator<geode::listenForSettingChangesV3<bool, geodeExecFunction24<(anonymous namespace)::ExecFuncUnique24>(geode::ModStateEvent*)::{lambda(bool)#2}>(std::__ndk1::basic_string_view<char, std::__ndk1::char_traits<char> >, geodeExecFunction24<(anonymous namespace)::ExecFuncUnique24>(geode::ModStateEvent*)::{lambda(bool)#2}&&, geode::Mod*)::{lambda(std::__ndk1::shared_ptr<geode::SettingV3>)#1}>, void (std::__ndk1::shared_ptr<geode::SettingV3>)>::target_type() const
PUBLIC ddc8 0 std::__ndk1::__function::__func<geode::listenForSettingChangesV3<bool, geodeExecFunction24<(anonymous namespace)::ExecFuncUnique24>(geode::ModStateEvent*)::{lambda(bool)#3}>(std::__ndk1::basic_string_view<char, std::__ndk1::char_traits<char> >, geodeExecFunction24<(anonymous namespace)::ExecFuncUnique24>(geode::ModStateEvent*)::{lambda(bool)#3}&&, geode::Mod*)::{lambda(std::__ndk1::shared_ptr<geode::SettingV3>)#1}, std::__ndk1::allocator<geode::listenForSettingChangesV3<bool, geodeExecFunction24<(anonymous namespace)::ExecFuncUnique24>(geode::ModStateEvent*)::{lambda(bool)#3}>(std::__ndk1::basic_string_view<char, std::__ndk1::char_traits<char> >, geodeExecFunction24<(anonymous namespace)::ExecFuncUnique24>(geode::ModStateEvent*)::{lambda(bool)#3}&&, geode::Mod*)::{lambda(std::__ndk1::shared_ptr<geode::SettingV3>)#1}>, void (std::__ndk1::shared_ptr<geode::SettingV3>)>::~__func()
PUBLIC ddcc 0 std::__ndk1::__function::__func<geode::listenForSettingChangesV3<bool, geodeExecFunction24<(anonymous namespace)::ExecFuncUnique24>(geode::ModStateEvent*)::{lambda(bool)#3}>(std::__ndk1::basic_string_view<char, std::__ndk1::char_traits<char> >, geodeExecFunction24<(anonymous namespace)::ExecFuncUnique24>(geode::ModStateEvent*)::{lambda(bool)#3}&&, geode::Mod*)::{lambda(std::__ndk1::shared_ptr<geode::SettingV3>)#1}, std::__ndk1::allocator<geode::listenForSettingChangesV3<bool, geodeExecFunction24<(anonymous namespace)::ExecFuncUnique24>(geode::ModStateEvent*)::{lambda(bool)#3}>(std::__ndk1::basic_string_view<char, std::__ndk1::char_traits<char> >, geodeExecFunction24<(anonymous namespace)::ExecFuncUnique24>(geode::ModStateEvent*)::{lambda(bool)#3}&&, geode::Mod*)::{lambda(std::__ndk1::shared_ptr<geode::SettingV3>)#1}>, void (std::__ndk1::shared_ptr<geode::SettingV3>)>::__clone() const
PUBLIC de00 0 std::__ndk1::__function::__func<geode::listenForSettingChangesV3<bool, geodeExecFunction24<(anonymous namespace)::ExecFuncUnique24>(geode::ModStateEvent*)::{lambda(bool)#3}>(std::__ndk1::basic_string_view<char, std::__ndk1::char_traits<char> >, geodeExecFunction24<(anonymous namespace)::ExecFuncUnique24>(geode::ModStateEvent*)::{lambda(bool)#3}&&, geode::Mod*)::{lambda(std::__ndk1::shared_ptr<geode::SettingV3>)#1}, std::__ndk1::allocator<geode::listenForSettingChangesV3<bool, geodeExecFunction24<(anonymous namespace)::ExecFuncUnique24>(geode::ModStateEvent*)::{lambda(bool)#3}>(std::__ndk1::basic_string_view<char, std::__ndk1::char_traits<char> >, geodeExecFunction24<(anonymous namespace)::ExecFuncUnique24>(geode::ModStateEvent*)::{lambda(bool)#3}&&, geode::Mod*)::{lambda(std::__ndk1::shared_ptr<geode::SettingV3>)#1}>, void (std::__ndk1::shared_ptr<geode::SettingV3>)>::__clone(std::__ndk1::__function::__base<void (std::__ndk1::shared_ptr<geode::SettingV3>)>*) const
PUBLIC de14 0 std::__ndk1::__function::__func<geode::listenForSettingChangesV3<bool, geodeExecFunction24<(anonymous namespace)::ExecFuncUnique24>(geode::ModStateEvent*)::{lambda(bool)#3}>(std::__ndk1::basic_string_view<char, std::__ndk1::char_traits<char> >, geodeExecFunction24<(anonymous namespace)::ExecFuncUnique24>(geode::ModStateEvent*)::{lambda(bool)#3}&&, geode::Mod*)::{lambda(std::__ndk1::shared_ptr<geode::SettingV3>)#1}, std::__ndk1::allocator<geode::listenForSettingChangesV3<bool, geodeExecFunction24<(anonymous namespace)::ExecFuncUnique24>(geode::ModStateEvent*)::{lambda(bool)#3}>(std::__ndk1::basic_string_view<char, std::__ndk1::char_traits<char> >, geodeExecFunction24<(anonymous namespace)::ExecFuncUnique24>(geode::ModStateEvent*)::{lambda(bool)#3}&&, geode::Mod*)::{lambda(std::__ndk1::shared_ptr<geode::SettingV3>)#1}>, void (std::__ndk1::shared_ptr<geode::SettingV3>)>::destroy()
PUBLIC de18 0 std::__ndk1::__function::__func<geode::listenForSettingChangesV3<bool, geodeExecFunction24<(anonymous namespace)::ExecFuncUnique24>(geode::ModStateEvent*)::{lambda(bool)#3}>(std::__ndk1::basic_string_view<char, std::__ndk1::char_traits<char> >, geodeExecFunction24<(anonymous namespace)::ExecFuncUnique24>(geode::ModStateEvent*)::{lambda(bool)#3}&&, geode::Mod*)::{lambda(std::__ndk1::shared_ptr<geode::SettingV3>)#1}, std::__ndk1::allocator<geode::listenForSettingChangesV3<bool, geodeExecFunction24<(anonymous namespace)::ExecFuncUnique24>(geode::ModStateEvent*)::{lambda(bool)#3}>(std::__ndk1::basic_string_view<char, std::__ndk1::char_traits<char> >, geodeExecFunction24<(anonymous namespace)::ExecFuncUnique24>(geode::ModStateEvent*)::{lambda(bool)#3}&&, geode::Mod*)::{lambda(std::__ndk1::shared_ptr<geode::SettingV3>)#1}>, void (std::__ndk1::shared_ptr<geode::SettingV3>)>::destroy_deallocate()
PUBLIC de1c 0 std::__ndk1::__function::__func<geode::listenForSettingChangesV3<bool, geodeExecFunction24<(anonymous namespace)::ExecFuncUnique24>(geode::ModStateEvent*)::{lambda(bool)#3}>(std::__ndk1::basic_string_view<char, std::__ndk1::char_traits<char> >, geodeExecFunction24<(anonymous namespace)::ExecFuncUnique24>(geode::ModStateEvent*)::{lambda(bool)#3}&&, geode::Mod*)::{lambda(std::__ndk1::shared_ptr<geode::SettingV3>)#1}, std::__ndk1::allocator<geode::listenForSettingChangesV3<bool, geodeExecFunction24<(anonymous namespace)::ExecFuncUnique24>(geode::ModStateEvent*)::{lambda(bool)#3}>(std::__ndk1::basic_string_view<char, std::__ndk1::char_traits<char> >, geodeExecFunction24<(anonymous namespace)::ExecFuncUnique24>(geode::ModStateEvent*)::{lambda(bool)#3}&&, geode::Mod*)::{lambda(std::__ndk1::shared_ptr<geode::SettingV3>)#1}>, void (std::__ndk1::shared_ptr<geode::SettingV3>)>::operator()(std::__ndk1::shared_ptr<geode::SettingV3>&&)
PUBLIC df18 0 std::__ndk1::__function::__func<geode::listenForSettingChangesV3<bool, geodeExecFunction24<(anonymous namespace)::ExecFuncUnique24>(geode::ModStateEvent*)::{lambda(bool)#3}>(std::__ndk1::basic_string_view<char, std::__ndk1::char_traits<char> >, geodeExecFunction24<(anonymous namespace)::ExecFuncUnique24>(geode::ModStateEvent*)::{lambda(bool)#3}&&, geode::Mod*)::{lambda(std::__ndk1::shared_ptr<geode::SettingV3>)#1}, std::__ndk1::allocator<geode::listenForSettingChangesV3<bool, geodeExecFunction24<(anonymous namespace)::ExecFuncUnique24>(geode::ModStateEvent*)::{lambda(bool)#3}>(std::__ndk1::basic_string_view<char, std::__ndk1::char_traits<char> >, geodeExecFunction24<(anonymous namespace)::ExecFuncUnique24>(geode::ModStateEvent*)::{lambda(bool)#3}&&, geode::Mod*)::{lambda(std::__ndk1::shared_ptr<geode::SettingV3>)#1}>, void (std::__ndk1::shared_ptr<geode::SettingV3>)>::target(std::type_info const&) const
PUBLIC df34 0 std::__ndk1::__function::__func<geode::listenForSettingChangesV3<bool, geodeExecFunction24<(anonymous namespace)::ExecFuncUnique24>(geode::ModStateEvent*)::{lambda(bool)#3}>(std::__ndk1::basic_string_view<char, std::__ndk1::char_traits<char> >, geodeExecFunction24<(anonymous namespace)::ExecFuncUnique24>(geode::ModStateEvent*)::{lambda(bool)#3}&&, geode::Mod*)::{lambda(std::__ndk1::shared_ptr<geode::SettingV3>)#1}, std::__ndk1::allocator<geode::listenForSettingChangesV3<bool, geodeExecFunction24<(anonymous namespace)::ExecFuncUnique24>(geode::ModStateEvent*)::{lambda(bool)#3}>(std::__ndk1::basic_string_view<char, std::__ndk1::char_traits<char> >, geodeExecFunction24<(anonymous namespace)::ExecFuncUnique24>(geode::ModStateEvent*)::{lambda(bool)#3}&&, geode::Mod*)::{lambda(std::__ndk1::shared_ptr<geode::SettingV3>)#1}>, void (std::__ndk1::shared_ptr<geode::SettingV3>)>::target_type() const
PUBLIC df40 0 std::__ndk1::__function::__func<geode::listenForSettingChangesV3<bool, geodeExecFunction24<(anonymous namespace)::ExecFuncUnique24>(geode::ModStateEvent*)::{lambda(bool)#4}>(std::__ndk1::basic_string_view<char, std::__ndk1::char_traits<char> >, geodeExecFunction24<(anonymous namespace)::ExecFuncUnique24>(geode::ModStateEvent*)::{lambda(bool)#4}&&, geode::Mod*)::{lambda(std::__ndk1::shared_ptr<geode::SettingV3>)#1}, std::__ndk1::allocator<geode::listenForSettingChangesV3<bool, geodeExecFunction24<(anonymous namespace)::ExecFuncUnique24>(geode::ModStateEvent*)::{lambda(bool)#4}>(std::__ndk1::basic_string_view<char, std::__ndk1::char_traits<char> >, geodeExecFunction24<(anonymous namespace)::ExecFuncUnique24>(geode::ModStateEvent*)::{lambda(bool)#4}&&, geode::Mod*)::{lambda(std::__ndk1::shared_ptr<geode::SettingV3>)#1}>, void (std::__ndk1::shared_ptr<geode::SettingV3>)>::~__func()
PUBLIC df44 0 std::__ndk1::__function::__func<geode::listenForSettingChangesV3<bool, geodeExecFunction24<(anonymous namespace)::ExecFuncUnique24>(geode::ModStateEvent*)::{lambda(bool)#4}>(std::__ndk1::basic_string_view<char, std::__ndk1::char_traits<char> >, geodeExecFunction24<(anonymous namespace)::ExecFuncUnique24>(geode::ModStateEvent*)::{lambda(bool)#4}&&, geode::Mod*)::{lambda(std::__ndk1::shared_ptr<geode::SettingV3>)#1}, std::__ndk1::allocator<geode::listenForSettingChangesV3<bool, geodeExecFunction24<(anonymous namespace)::ExecFuncUnique24>(geode::ModStateEvent*)::{lambda(bool)#4}>(std::__ndk1::basic_string_view<char, std::__ndk1::char_traits<char> >, geodeExecFunction24<(anonymous namespace)::ExecFuncUnique24>(geode::ModStateEvent*)::{lambda(bool)#4}&&, geode::Mod*)::{lambda(std::__ndk1::shared_ptr<geode::SettingV3>)#1}>, void (std::__ndk1::shared_ptr<geode::SettingV3>)>::__clone() const
PUBLIC df78 0 std::__ndk1::__function::__func<geode::listenForSettingChangesV3<bool, geodeExecFunction24<(anonymous namespace)::ExecFuncUnique24>(geode::ModStateEvent*)::{lambda(bool)#4}>(std::__ndk1::basic_string_view<char, std::__ndk1::char_traits<char> >, geodeExecFunction24<(anonymous namespace)::ExecFuncUnique24>(geode::ModStateEvent*)::{lambda(bool)#4}&&, geode::Mod*)::{lambda(std::__ndk1::shared_ptr<geode::SettingV3>)#1}, std::__ndk1::allocator<geode::listenForSettingChangesV3<bool, geodeExecFunction24<(anonymous namespace)::ExecFuncUnique24>(geode::ModStateEvent*)::{lambda(bool)#4}>(std::__ndk1::basic_string_view<char, std::__ndk1::char_traits<char> >, geodeExecFunction24<(anonymous namespace)::ExecFuncUnique24>(geode::ModStateEvent*)::{lambda(bool)#4}&&, geode::Mod*)::{lambda(std::__ndk1::shared_ptr<geode::SettingV3>)#1}>, void (std::__ndk1::shared_ptr<geode::SettingV3>)>::__clone(std::__ndk1::__function::__base<void (std::__ndk1::shared_ptr<geode::SettingV3>)>*) const
PUBLIC df8c 0 std::__ndk1::__function::__func<geode::listenForSettingChangesV3<bool, geodeExecFunction24<(anonymous namespace)::ExecFuncUnique24>(geode::ModStateEvent*)::{lambda(bool)#4}>(std::__ndk1::basic_string_view<char, std::__ndk1::char_traits<char> >, geodeExecFunction24<(anonymous namespace)::ExecFuncUnique24>(geode::ModStateEvent*)::{lambda(bool)#4}&&, geode::Mod*)::{lambda(std::__ndk1::shared_ptr<geode::SettingV3>)#1}, std::__ndk1::allocator<geode::listenForSettingChangesV3<bool, geodeExecFunction24<(anonymous namespace)::ExecFuncUnique24>(geode::ModStateEvent*)::{lambda(bool)#4}>(std::__ndk1::basic_string_view<char, std::__ndk1::char_traits<char> >, geodeExecFunction24<(anonymous namespace)::ExecFuncUnique24>(geode::ModStateEvent*)::{lambda(bool)#4}&&, geode::Mod*)::{lambda(std::__ndk1::shared_ptr<geode::SettingV3>)#1}>, void (std::__ndk1::shared_ptr<geode::SettingV3>)>::destroy()
PUBLIC df90 0 std::__ndk1::__function::__func<geode::listenForSettingChangesV3<bool, geodeExecFunction24<(anonymous namespace)::ExecFuncUnique24>(geode::ModStateEvent*)::{lambda(bool)#4}>(std::__ndk1::basic_string_view<char, std::__ndk1::char_traits<char> >, geodeExecFunction24<(anonymous namespace)::ExecFuncUnique24>(geode::ModStateEvent*)::{lambda(bool)#4}&&, geode::Mod*)::{lambda(std::__ndk1::shared_ptr<geode::SettingV3>)#1}, std::__ndk1::allocator<geode::listenForSettingChangesV3<bool, geodeExecFunction24<(anonymous namespace)::ExecFuncUnique24>(geode::ModStateEvent*)::{lambda(bool)#4}>(std::__ndk1::basic_string_view<char, std::__ndk1::char_traits<char> >, geodeExecFunction24<(anonymous namespace)::ExecFuncUnique24>(geode::ModStateEvent*)::{lambda(bool)#4}&&, geode::Mod*)::{lambda(std::__ndk1::shared_ptr<geode::SettingV3>)#1}>, void (std::__ndk1::shared_ptr<geode::SettingV3>)>::destroy_deallocate()
PUBLIC df94 0 std::__ndk1::__function::__func<geode::listenForSettingChangesV3<bool, geodeExecFunction24<(anonymous namespace)::ExecFuncUnique24>(geode::ModStateEvent*)::{lambda(bool)#4}>(std::__ndk1::basic_string_view<char, std::__ndk1::char_traits<char> >, geodeExecFunction24<(anonymous namespace)::ExecFuncUnique24>(geode::ModStateEvent*)::{lambda(bool)#4}&&, geode::Mod*)::{lambda(std::__ndk1::shared_ptr<geode::SettingV3>)#1}, std::__ndk1::allocator<geode::listenForSettingChangesV3<bool, geodeExecFunction24<(anonymous namespace)::ExecFuncUnique24>(geode::ModStateEvent*)::{lambda(bool)#4}>(std::__ndk1::basic_string_view<char, std::__ndk1::char_traits<char> >, geodeExecFunction24<(anonymous namespace)::ExecFuncUnique24>(geode::ModStateEvent*)::{lambda(bool)#4}&&, geode::Mod*)::{lambda(std::__ndk1::shared_ptr<geode::SettingV3>)#1}>, void (std::__ndk1::shared_ptr<geode::SettingV3>)>::operator()(std::__ndk1::shared_ptr<geode::SettingV3>&&)
PUBLIC e090 0 std::__ndk1::__function::__func<geode::listenForSettingChangesV3<bool, geodeExecFunction24<(anonymous namespace)::ExecFuncUnique24>(geode::ModStateEvent*)::{lambda(bool)#4}>(std::__ndk1::basic_string_view<char, std::__ndk1::char_traits<char> >, geodeExecFunction24<(anonymous namespace)::ExecFuncUnique24>(geode::ModStateEvent*)::{lambda(bool)#4}&&, geode::Mod*)::{lambda(std::__ndk1::shared_ptr<geode::SettingV3>)#1}, std::__ndk1::allocator<geode::listenForSettingChangesV3<bool, geodeExecFunction24<(anonymous namespace)::ExecFuncUnique24>(geode::ModStateEvent*)::{lambda(bool)#4}>(std::__ndk1::basic_string_view<char, std::__ndk1::char_traits<char> >, geodeExecFunction24<(anonymous namespace)::ExecFuncUnique24>(geode::ModStateEvent*)::{lambda(bool)#4}&&, geode::Mod*)::{lambda(std::__ndk1::shared_ptr<geode::SettingV3>)#1}>, void (std::__ndk1::shared_ptr<geode::SettingV3>)>::target(std::type_info const&) const
PUBLIC e0ac 0 std::__ndk1::__function::__func<geode::listenForSettingChangesV3<bool, geodeExecFunction24<(anonymous namespace)::ExecFuncUnique24>(geode::ModStateEvent*)::{lambda(bool)#4}>(std::__ndk1::basic_string_view<char, std::__ndk1::char_traits<char> >, geodeExecFunction24<(anonymous namespace)::ExecFuncUnique24>(geode::ModStateEvent*)::{lambda(bool)#4}&&, geode::Mod*)::{lambda(std::__ndk1::shared_ptr<geode::SettingV3>)#1}, std::__ndk1::allocator<geode::listenForSettingChangesV3<bool, geodeExecFunction24<(anonymous namespace)::ExecFuncUnique24>(geode::ModStateEvent*)::{lambda(bool)#4}>(std::__ndk1::basic_string_view<char, std::__ndk1::char_traits<char> >, geodeExecFunction24<(anonymous namespace)::ExecFuncUnique24>(geode::ModStateEvent*)::{lambda(bool)#4}&&, geode::Mod*)::{lambda(std::__ndk1::shared_ptr<geode::SettingV3>)#1}>, void (std::__ndk1::shared_ptr<geode::SettingV3>)>::target_type() const
PUBLIC e0b8 0 std::__ndk1::__function::__func<geode::listenForSettingChangesV3<bool, geodeExecFunction24<(anonymous namespace)::ExecFuncUnique24>(geode::ModStateEvent*)::{lambda(bool)#5}>(std::__ndk1::basic_string_view<char, std::__ndk1::char_traits<char> >, geodeExecFunction24<(anonymous namespace)::ExecFuncUnique24>(geode::ModStateEvent*)::{lambda(bool)#5}&&, geode::Mod*)::{lambda(std::__ndk1::shared_ptr<geode::SettingV3>)#1}, std::__ndk1::allocator<geode::listenForSettingChangesV3<bool, geodeExecFunction24<(anonymous namespace)::ExecFuncUnique24>(geode::ModStateEvent*)::{lambda(bool)#5}>(std::__ndk1::basic_string_view<char, std::__ndk1::char_traits<char> >, geodeExecFunction24<(anonymous namespace)::ExecFuncUnique24>(geode::ModStateEvent*)::{lambda(bool)#5}&&, geode::Mod*)::{lambda(std::__ndk1::shared_ptr<geode::SettingV3>)#1}>, void (std::__ndk1::shared_ptr<geode::SettingV3>)>::~__func()
PUBLIC e0bc 0 std::__ndk1::__function::__func<geode::listenForSettingChangesV3<bool, geodeExecFunction24<(anonymous namespace)::ExecFuncUnique24>(geode::ModStateEvent*)::{lambda(bool)#5}>(std::__ndk1::basic_string_view<char, std::__ndk1::char_traits<char> >, geodeExecFunction24<(anonymous namespace)::ExecFuncUnique24>(geode::ModStateEvent*)::{lambda(bool)#5}&&, geode::Mod*)::{lambda(std::__ndk1::shared_ptr<geode::SettingV3>)#1}, std::__ndk1::allocator<geode::listenForSettingChangesV3<bool, geodeExecFunction24<(anonymous namespace)::ExecFuncUnique24>(geode::ModStateEvent*)::{lambda(bool)#5}>(std::__ndk1::basic_string_view<char, std::__ndk1::char_traits<char> >, geodeExecFunction24<(anonymous namespace)::ExecFuncUnique24>(geode::ModStateEvent*)::{lambda(bool)#5}&&, geode::Mod*)::{lambda(std::__ndk1::shared_ptr<geode::SettingV3>)#1}>, void (std::__ndk1::shared_ptr<geode::SettingV3>)>::__clone() const
PUBLIC e0f0 0 std::__ndk1::__function::__func<geode::listenForSettingChangesV3<bool, geodeExecFunction24<(anonymous namespace)::ExecFuncUnique24>(geode::ModStateEvent*)::{lambda(bool)#5}>(std::__ndk1::basic_string_view<char, std::__ndk1::char_traits<char> >, geodeExecFunction24<(anonymous namespace)::ExecFuncUnique24>(geode::ModStateEvent*)::{lambda(bool)#5}&&, geode::Mod*)::{lambda(std::__ndk1::shared_ptr<geode::SettingV3>)#1}, std::__ndk1::allocator<geode::listenForSettingChangesV3<bool, geodeExecFunction24<(anonymous namespace)::ExecFuncUnique24>(geode::ModStateEvent*)::{lambda(bool)#5}>(std::__ndk1::basic_string_view<char, std::__ndk1::char_traits<char> >, geodeExecFunction24<(anonymous namespace)::ExecFuncUnique24>(geode::ModStateEvent*)::{lambda(bool)#5}&&, geode::Mod*)::{lambda(std::__ndk1::shared_ptr<geode::SettingV3>)#1}>, void (std::__ndk1::shared_ptr<geode::SettingV3>)>::__clone(std::__ndk1::__function::__base<void (std::__ndk1::shared_ptr<geode::SettingV3>)>*) const
PUBLIC e104 0 std::__ndk1::__function::__func<geode::listenForSettingChangesV3<bool, geodeExecFunction24<(anonymous namespace)::ExecFuncUnique24>(geode::ModStateEvent*)::{lambda(bool)#5}>(std::__ndk1::basic_string_view<char, std::__ndk1::char_traits<char> >, geodeExecFunction24<(anonymous namespace)::ExecFuncUnique24>(geode::ModStateEvent*)::{lambda(bool)#5}&&, geode::Mod*)::{lambda(std::__ndk1::shared_ptr<geode::SettingV3>)#1}, std::__ndk1::allocator<geode::listenForSettingChangesV3<bool, geodeExecFunction24<(anonymous namespace)::ExecFuncUnique24>(geode::ModStateEvent*)::{lambda(bool)#5}>(std::__ndk1::basic_string_view<char, std::__ndk1::char_traits<char> >, geodeExecFunction24<(anonymous namespace)::ExecFuncUnique24>(geode::ModStateEvent*)::{lambda(bool)#5}&&, geode::Mod*)::{lambda(std::__ndk1::shared_ptr<geode::SettingV3>)#1}>, void (std::__ndk1::shared_ptr<geode::SettingV3>)>::destroy()
PUBLIC e108 0 std::__ndk1::__function::__func<geode::listenForSettingChangesV3<bool, geodeExecFunction24<(anonymous namespace)::ExecFuncUnique24>(geode::ModStateEvent*)::{lambda(bool)#5}>(std::__ndk1::basic_string_view<char, std::__ndk1::char_traits<char> >, geodeExecFunction24<(anonymous namespace)::ExecFuncUnique24>(geode::ModStateEvent*)::{lambda(bool)#5}&&, geode::Mod*)::{lambda(std::__ndk1::shared_ptr<geode::SettingV3>)#1}, std::__ndk1::allocator<geode::listenForSettingChangesV3<bool, geodeExecFunction24<(anonymous namespace)::ExecFuncUnique24>(geode::ModStateEvent*)::{lambda(bool)#5}>(std::__ndk1::basic_string_view<char, std::__ndk1::char_traits<char> >, geodeExecFunction24<(anonymous namespace)::ExecFuncUnique24>(geode::ModStateEvent*)::{lambda(bool)#5}&&, geode::Mod*)::{lambda(std::__ndk1::shared_ptr<geode::SettingV3>)#1}>, void (std::__ndk1::shared_ptr<geode::SettingV3>)>::destroy_deallocate()
PUBLIC e10c 0 std::__ndk1::__function::__func<geode::listenForSettingChangesV3<bool, geodeExecFunction24<(anonymous namespace)::ExecFuncUnique24>(geode::ModStateEvent*)::{lambda(bool)#5}>(std::__ndk1::basic_string_view<char, std::__ndk1::char_traits<char> >, geodeExecFunction24<(anonymous namespace)::ExecFuncUnique24>(geode::ModStateEvent*)::{lambda(bool)#5}&&, geode::Mod*)::{lambda(std::__ndk1::shared_ptr<geode::SettingV3>)#1}, std::__ndk1::allocator<geode::listenForSettingChangesV3<bool, geodeExecFunction24<(anonymous namespace)::ExecFuncUnique24>(geode::ModStateEvent*)::{lambda(bool)#5}>(std::__ndk1::basic_string_view<char, std::__ndk1::char_traits<char> >, geodeExecFunction24<(anonymous namespace)::ExecFuncUnique24>(geode::ModStateEvent*)::{lambda(bool)#5}&&, geode::Mod*)::{lambda(std::__ndk1::shared_ptr<geode::SettingV3>)#1}>, void (std::__ndk1::shared_ptr<geode::SettingV3>)>::operator()(std::__ndk1::shared_ptr<geode::SettingV3>&&)
PUBLIC e208 0 std::__ndk1::__function::__func<geode::listenForSettingChangesV3<bool, geodeExecFunction24<(anonymous namespace)::ExecFuncUnique24>(geode::ModStateEvent*)::{lambda(bool)#5}>(std::__ndk1::basic_string_view<char, std::__ndk1::char_traits<char> >, geodeExecFunction24<(anonymous namespace)::ExecFuncUnique24>(geode::ModStateEvent*)::{lambda(bool)#5}&&, geode::Mod*)::{lambda(std::__ndk1::shared_ptr<geode::SettingV3>)#1}, std::__ndk1::allocator<geode::listenForSettingChangesV3<bool, geodeExecFunction24<(anonymous namespace)::ExecFuncUnique24>(geode::ModStateEvent*)::{lambda(bool)#5}>(std::__ndk1::basic_string_view<char, std::__ndk1::char_traits<char> >, geodeExecFunction24<(anonymous namespace)::ExecFuncUnique24>(geode::ModStateEvent*)::{lambda(bool)#5}&&, geode::Mod*)::{lambda(std::__ndk1::shared_ptr<geode::SettingV3>)#1}>, void (std::__ndk1::shared_ptr<geode::SettingV3>)>::target(std::type_info const&) const
PUBLIC e224 0 std::__ndk1::__function::__func<geode::listenForSettingChangesV3<bool, geodeExecFunction24<(anonymous namespace)::ExecFuncUnique24>(geode::ModStateEvent*)::{lambda(bool)#5}>(std::__ndk1::basic_string_view<char, std::__ndk1::char_traits<char> >, geodeExecFunction24<(anonymous namespace)::ExecFuncUnique24>(geode::ModStateEvent*)::{lambda(bool)#5}&&, geode::Mod*)::{lambda(std::__ndk1::shared_ptr<geode::SettingV3>)#1}, std::__ndk1::allocator<geode::listenForSettingChangesV3<bool, geodeExecFunction24<(anonymous namespace)::ExecFuncUnique24>(geode::ModStateEvent*)::{lambda(bool)#5}>(std::__ndk1::basic_string_view<char, std::__ndk1::char_traits<char> >, geodeExecFunction24<(anonymous namespace)::ExecFuncUnique24>(geode::ModStateEvent*)::{lambda(bool)#5}&&, geode::Mod*)::{lambda(std::__ndk1::shared_ptr<geode::SettingV3>)#1}>, void (std::__ndk1::shared_ptr<geode::SettingV3>)>::target_type() const
PUBLIC e230 0 std::__ndk1::__function::__base<void (std::__ndk1::shared_ptr<geode::SettingV3>)>::~__base()
PUBLIC e234 0 std::__ndk1::__function::__func<geodeExecFunction24<(anonymous namespace)::ExecFuncUnique24>(geode::ModStateEvent*)::{lambda(std::__ndk1::shared_ptr<geode::SettingV3>)#1}, std::__ndk1::allocator<geodeExecFunction24<(anonymous namespace)::ExecFuncUnique24>(geode::ModStateEvent*)::{lambda(std::__ndk1::shared_ptr<geode::SettingV3>)#1}>, void (std::__ndk1::shared_ptr<geode::SettingV3>)>::~__func()
PUBLIC e238 0 std::__ndk1::__function::__func<geodeExecFunction24<(anonymous namespace)::ExecFuncUnique24>(geode::ModStateEvent*)::{lambda(std::__ndk1::shared_ptr<geode::SettingV3>)#1}, std::__ndk1::allocator<geodeExecFunction24<(anonymous namespace)::ExecFuncUnique24>(geode::ModStateEvent*)::{lambda(std::__ndk1::shared_ptr<geode::SettingV3>)#1}>, void (std::__ndk1::shared_ptr<geode::SettingV3>)>::__clone() const
PUBLIC e25c 0 std::__ndk1::__function::__func<geodeExecFunction24<(anonymous namespace)::ExecFuncUnique24>(geode::ModStateEvent*)::{lambda(std::__ndk1::shared_ptr<geode::SettingV3>)#1}, std::__ndk1::allocator<geodeExecFunction24<(anonymous namespace)::ExecFuncUnique24>(geode::ModStateEvent*)::{lambda(std::__ndk1::shared_ptr<geode::SettingV3>)#1}>, void (std::__ndk1::shared_ptr<geode::SettingV3>)>::__clone(std::__ndk1::__function::__base<void (std::__ndk1::shared_ptr<geode::SettingV3>)>*) const
PUBLIC e26c 0 std::__ndk1::__function::__func<geodeExecFunction24<(anonymous namespace)::ExecFuncUnique24>(geode::ModStateEvent*)::{lambda(std::__ndk1::shared_ptr<geode::SettingV3>)#1}, std::__ndk1::allocator<geodeExecFunction24<(anonymous namespace)::ExecFuncUnique24>(geode::ModStateEvent*)::{lambda(std::__ndk1::shared_ptr<geode::SettingV3>)#1}>, void (std::__ndk1::shared_ptr<geode::SettingV3>)>::destroy()
PUBLIC e270 0 std::__ndk1::__function::__func<geodeExecFunction24<(anonymous namespace)::ExecFuncUnique24>(geode::ModStateEvent*)::{lambda(std::__ndk1::shared_ptr<geode::SettingV3>)#1}, std::__ndk1::allocator<geodeExecFunction24<(anonymous namespace)::ExecFuncUnique24>(geode::ModStateEvent*)::{lambda(std::__ndk1::shared_ptr<geode::SettingV3>)#1}>, void (std::__ndk1::shared_ptr<geode::SettingV3>)>::destroy_deallocate()
PUBLIC e274 0 std::__ndk1::__function::__func<geodeExecFunction24<(anonymous namespace)::ExecFuncUnique24>(geode::ModStateEvent*)::{lambda(std::__ndk1::shared_ptr<geode::SettingV3>)#1}, std::__ndk1::allocator<geodeExecFunction24<(anonymous namespace)::ExecFuncUnique24>(geode::ModStateEvent*)::{lambda(std::__ndk1::shared_ptr<geode::SettingV3>)#1}>, void (std::__ndk1::shared_ptr<geode::SettingV3>)>::operator()(std::__ndk1::shared_ptr<geode::SettingV3>&&)
PUBLIC e324 0 std::__ndk1::__function::__func<geodeExecFunction24<(anonymous namespace)::ExecFuncUnique24>(geode::ModStateEvent*)::{lambda(std::__ndk1::shared_ptr<geode::SettingV3>)#1}, std::__ndk1::allocator<geodeExecFunction24<(anonymous namespace)::ExecFuncUnique24>(geode::ModStateEvent*)::{lambda(std::__ndk1::shared_ptr<geode::SettingV3>)#1}>, void (std::__ndk1::shared_ptr<geode::SettingV3>)>::target(std::type_info const&) const
PUBLIC e340 0 std::__ndk1::__function::__func<geodeExecFunction24<(anonymous namespace)::ExecFuncUnique24>(geode::ModStateEvent*)::{lambda(std::__ndk1::shared_ptr<geode::SettingV3>)#1}, std::__ndk1::allocator<geodeExecFunction24<(anonymous namespace)::ExecFuncUnique24>(geode::ModStateEvent*)::{lambda(std::__ndk1::shared_ptr<geode::SettingV3>)#1}>, void (std::__ndk1::shared_ptr<geode::SettingV3>)>::target_type() const
PUBLIC e34c 0 geode::EventListener<geode::ModStateFilter>::getPool() const
PUBLIC e350 0 geode::EventListener<geode::ModStateFilter>::handle(geode::Event*)
PUBLIC e4b4 0 geode::EventListener<geode::ModStateFilter>::~EventListener()
PUBLIC e510 0 geode::EventListener<geode::ModStateFilter>::~EventListener()
PUBLIC e574 0 std::__ndk1::__function::__base<void (geode::ModStateEvent*)>::~__base()
PUBLIC e578 0 std::__ndk1::__function::__func<void (*)(geode::ModStateEvent*), std::__ndk1::allocator<void (*)(geode::ModStateEvent*)>, void (geode::ModStateEvent*)>::~__func()
PUBLIC e57c 0 std::__ndk1::__function::__func<void (*)(geode::ModStateEvent*), std::__ndk1::allocator<void (*)(geode::ModStateEvent*)>, void (geode::ModStateEvent*)>::__clone() const
PUBLIC e5b0 0 std::__ndk1::__function::__func<void (*)(geode::ModStateEvent*), std::__ndk1::allocator<void (*)(geode::ModStateEvent*)>, void (geode::ModStateEvent*)>::__clone(std::__ndk1::__function::__base<void (geode::ModStateEvent*)>*) const
PUBLIC e5c4 0 std::__ndk1::__function::__func<void (*)(geode::ModStateEvent*), std::__ndk1::allocator<void (*)(geode::ModStateEvent*)>, void (geode::ModStateEvent*)>::destroy()
PUBLIC e5c8 0 std::__ndk1::__function::__func<void (*)(geode::ModStateEvent*), std::__ndk1::allocator<void (*)(geode::ModStateEvent*)>, void (geode::ModStateEvent*)>::destroy_deallocate()
PUBLIC e5cc 0 std::__ndk1::__function::__func<void (*)(geode::ModStateEvent*), std::__ndk1::allocator<void (*)(geode::ModStateEvent*)>, void (geode::ModStateEvent*)>::operator()(geode::ModStateEvent*&&)
PUBLIC e5dc 0 std::__ndk1::__function::__func<void (*)(geode::ModStateEvent*), std::__ndk1::allocator<void (*)(geode::ModStateEvent*)>, void (geode::ModStateEvent*)>::target(std::type_info const&) const
PUBLIC e5f8 0 std::__ndk1::__function::__func<void (*)(geode::ModStateEvent*), std::__ndk1::allocator<void (*)(geode::ModStateEvent*)>, void (geode::ModStateEvent*)>::target_type() const
PUBLIC e604 0 _GLOBAL__sub_I_ModManager.cpp
PUBLIC e730 0 HookPlayerObject::updateStreak()
PUBLIC m e8a0 0 geodeImplicitEntry
PUBLIC e8dc 0 std::__ndk1::unordered_map<void*, bool, std::__ndk1::hash<void*>, std::__ndk1::equal_to<void*>, std::__ndk1::allocator<std::__ndk1::pair<void* const, bool> > >::~unordered_map[abi:ne180000]()
PUBLIC e928 0 wrapFunction(unsigned long, tulip::hook::WrapperMetadata const&)
PUBLIC ea5c 0 geode::impl::ResultData<void*, std::__ndk1::basic_string<char, std::__ndk1::char_traits<char>, std::__ndk1::allocator<char> > >::unwrapErr() &
PUBLIC ead4 0 geode::impl::ResultData<void*, std::__ndk1::basic_string<char, std::__ndk1::char_traits<char>, std::__ndk1::allocator<char> > >::~ResultData()
PUBLIC eb48 0 tulip::hook::WrapperMetadata::~WrapperMetadata()
PUBLIC ebac 0 cocos2d::CCObject::CCObject()
PUBLIC edd0 0 cocos2d::CCObject::~CCObject()
PUBLIC edf4 0 cocos2d::CCObject::~CCObject()
PUBLIC f2e8 0 _ZN5geode15UnwrapExceptionC2IRPvQsr4implE18IsStringStreamableIT_EEENS_4impl5OkTagEOS4_
PUBLIC f43c 0 _ZN5geode15UnwrapExceptionC2IRNSt6__ndk112basic_stringIcNS2_11char_traitsIcEENS2_9allocatorIcEEEEQsr4implE18IsStringStreamableIT_EEENS_4impl6ErrTagEOSA_
PUBLIC f5a4 0 std::__ndk1::__variant_detail::__visitation::__base::__dispatcher<(unsigned long)0>::__dispatch[abi:ne180000]<std::__ndk1::__variant_detail::__dtor<std::__ndk1::__variant_detail::__traits<void*, std::__ndk1::basic_string<char, std::__ndk1::char_traits<char>, std::__ndk1::allocator<char> > >, (std::__ndk1::__variant_detail::_Trait)1>::__destroy[abi:ne180000]()::{lambda(auto:1&)#1}, std::__ndk1::__variant_detail::__base<(std::__ndk1::__variant_detail::__traits<void*, std::__ndk1::basic_string<char, std::__ndk1::char_traits<char>, std::__ndk1::allocator<char> > >)1, std::__ndk1::__variant_detail::__traits, std::__ndk1::allocator<char> >&>(std::__ndk1::__variant_detail::__dtor<std::__ndk1::__variant_detail::__traits<void*, std::__ndk1::basic_string<char, std::__ndk1::char_traits<char>, std::__ndk1::allocator<char> > >, (std::__ndk1::__variant_detail::_Trait)1>, std::__ndk1::__variant_detail::__base<(std::__ndk1::__variant_detail::__traits<void*, std::__ndk1::basic_string<char, std::__ndk1::char_traits<char>, std::__ndk1::allocator<char> > >)1, std::__ndk1::__variant_detail::__traits, std::__ndk1::allocator<char> >&)
PUBLIC f5a8 0 std::__ndk1::__variant_detail::__visitation::__base::__dispatcher<(unsigned long)1>::__dispatch[abi:ne180000]<std::__ndk1::__variant_detail::__dtor<std::__ndk1::__variant_detail::__traits<void*, std::__ndk1::basic_string<char, std::__ndk1::char_traits<char>, std::__ndk1::allocator<char> > >, (std::__ndk1::__variant_detail::_Trait)1>::__destroy[abi:ne180000]()::{lambda(auto:1&)#1}, std::__ndk1::__variant_detail::__base<(std::__ndk1::__variant_detail::__traits<void*, std::__ndk1::basic_string<char, std::__ndk1::char_traits<char>, std::__ndk1::allocator<char> > >)1, std::__ndk1::__variant_detail::__traits, std::__ndk1::allocator<char> >&>(std::__ndk1::__variant_detail::__dtor<std::__ndk1::__variant_detail::__traits<void*, std::__ndk1::basic_string<char, std::__ndk1::char_traits<char>, std::__ndk1::allocator<char> > >, (std::__ndk1::__variant_detail::_Trait)1>, std::__ndk1::__variant_detail::__base<(std::__ndk1::__variant_detail::__traits<void*, std::__ndk1::basic_string<char, std::__ndk1::char_traits<char>, std::__ndk1::allocator<char> > >)1, std::__ndk1::__variant_detail::__traits, std::__ndk1::allocator<char> >&)
PUBLIC f5bc 0 std::__ndk1::__hash_table<std::__ndk1::__hash_value_type<void*, bool>, std::__ndk1::__unordered_map_hasher<void*, std::__ndk1::__hash_value_type<void*, bool>, std::__ndk1::hash<void*>, std::__ndk1::equal_to<void*>, true>, std::__ndk1::__unordered_map_equal<void*, std::__ndk1::__hash_value_type<void*, bool>, std::__ndk1::equal_to<void*>, std::__ndk1::hash<void*>, true>, std::__ndk1::allocator<std::__ndk1::__hash_value_type<void*, bool> > >::__emplace_unique_key_args<void*, std::__ndk1::piecewise_construct_t const&, std::__ndk1::tuple<void* const&>, std::__ndk1::tuple<> >(void* const&, std::__ndk1::piecewise_construct_t const&, std::__ndk1::tuple<void* const&>, std::__ndk1::tuple<>)
PUBLIC fad0 0 <.plt ELF section in capeling.coloured-wave-trail.android64.so>
STACK CFI INIT 8750 10 .cfa: sp 0 +
STACK CFI INIT 8760 8 .cfa: sp 0 +
STACK CFI INIT 8768 8 .cfa: sp 0 +
STACK CFI INIT 8770 14 .cfa: sp 0 +
STACK CFI INIT 8784 1c .cfa: sp 0 +
STACK CFI INIT 87a0 10 .cfa: sp 0 +
STACK CFI INIT 87b0 30 .cfa: sp 0 +
STACK CFI INIT 87e0 98 .cfa: sp 0 +
STACK CFI INIT 8878 59c .cfa: sp 0 +
STACK CFI INIT 8e14 8c .cfa: sp 0 +
STACK CFI INIT 8ea0 30 .cfa: sp 0 +
STACK CFI INIT 930c 1c .cfa: sp 0 +
STACK CFI INIT 9658 50 .cfa: sp 0 +
STACK CFI 965c .cfa: sp 32 +
STACK CFI 9664 .cfa: x29 32 + x19: .cfa -16 + ^ .ra: .cfa -24 + ^ x29: .cfa -32 + ^
STACK CFI 967c .cfa: sp 32 +
STACK CFI 9684 .cfa: sp 0 +
STACK CFI 9688 .cfa: x29 32 +
STACK CFI 969c .cfa: sp 32 +
STACK CFI 96a4 .cfa: sp 0 +
STACK CFI INIT 971c 7c .cfa: sp 0 +
STACK CFI 9720 .cfa: sp 48 +
STACK CFI 972c .cfa: x29 48 + x19: .cfa -8 + ^ x20: .cfa -16 + ^ x21: .cfa -32 + ^ .ra: .cfa -40 + ^ x29: .cfa -48 + ^
STACK CFI 9778 .cfa: sp 48 +
STACK CFI 9784 .cfa: sp 0 +
STACK CFI 9788 .cfa: sp 48 +
STACK CFI 9794 .cfa: sp 0 +
STACK CFI INIT 9798 4 .cfa: sp 0 +
STACK CFI INIT 979c 10 .cfa: sp 0 +
STACK CFI 97a0 .cfa: sp 16 +
STACK CFI 97a4 .cfa: x29 16 + .ra: .cfa -8 + ^ x29: .cfa -16 + ^
STACK CFI INIT 9900 34 .cfa: sp 0 +
STACK CFI 9904 .cfa: sp 16 +
STACK CFI 9908 .cfa: x29 16 + .ra: .cfa -8 + ^ x29: .cfa -16 + ^
STACK CFI INIT 9a60 80 .cfa: sp 0 +
STACK CFI 9a64 .cfa: sp 48 +
STACK CFI 9a70 .cfa: x29 48 + x19: .cfa -8 + ^ x20: .cfa -16 + ^ x21: .cfa -32 + ^ .ra: .cfa -40 + ^ x29: .cfa -48 + ^
STACK CFI 9ad0 .cfa: sp 48 +
STACK CFI 9adc .cfa: sp 0 +
STACK CFI INIT 9ae0 24 .cfa: sp 0 +
STACK CFI 9ae4 .cfa: sp 32 +
STACK CFI 9aec .cfa: x29 32 + x19: .cfa -16 + ^ .ra: .cfa -24 + ^ x29: .cfa -32 + ^
STACK CFI 9af8 .cfa: sp 32 +
STACK CFI 9b00 .cfa: sp 0 +
STACK CFI INIT 9e84 14 .cfa: sp 0 +
STACK CFI 9e88 .cfa: sp 16 +
STACK CFI 9e8c .cfa: x29 16 + .ra: .cfa -8 + ^ x29: .cfa -16 + ^
STACK CFI INIT 9ee8 30 .cfa: sp 0 +
STACK CFI 9eec .cfa: sp 32 +
STACK CFI 9ef4 .cfa: x29 32 + x19: .cfa -16 + ^ .ra: .cfa -24 + ^ x29: .cfa -32 + ^
STACK CFI 9f0c .cfa: sp 32 +
STACK CFI 9f14 .cfa: sp 0 +
STACK CFI INIT 9f18 34 .cfa: sp 0 +
STACK CFI 9f1c .cfa: sp 32 +
STACK CFI 9f24 .cfa: x29 32 + x19: .cfa -16 + ^ .ra: .cfa -24 + ^ x29: .cfa -32 + ^
STACK CFI INIT a0c4 148 .cfa: sp 0 +
STACK CFI a0c8 .cfa: sp 48 +
STACK CFI a0d4 .cfa: x29 48 + x19: .cfa -8 + ^ x20: .cfa -16 + ^ x21: .cfa -32 + ^ .ra: .cfa -40 + ^ x29: .cfa -48 + ^
STACK CFI a1fc .cfa: sp 48 +
STACK CFI a208 .cfa: sp 0 +
STACK CFI INIT a434 80 .cfa: sp 0 +
STACK CFI a438 .cfa: sp 48 +
STACK CFI a444 .cfa: x29 48 + x19: .cfa -8 + ^ x20: .cfa -16 + ^ x21: .cfa -24 + ^ x22: .cfa -32 + ^ .ra: .cfa -40 + ^ x29: .cfa -48 + ^
STACK CFI a45c .cfa: sp 48 +
STACK CFI a468 .cfa: sp 0 +
STACK CFI a46c .cfa: x29 48 +
STACK CFI a49c .cfa: sp 48 +
STACK CFI a4a8 .cfa: sp 0 +
STACK CFI a4ac .cfa: x29 48 +
STACK CFI INIT a4b4 68 .cfa: sp 0 +
STACK CFI a4b8 .cfa: sp 32 +
STACK CFI a4c0 .cfa: x29 32 + x19: .cfa -8 + ^ x20: .cfa -16 + ^ .ra: .cfa -24 + ^ x29: .cfa -32 + ^
STACK CFI a4d8 .cfa: sp 32 +
STACK CFI a4e0 .cfa: sp 0 +
STACK CFI a4e4 .cfa: x29 32 +
STACK CFI a510 .cfa: sp 32 +
STACK CFI a518 .cfa: sp 0 +
STACK CFI INIT a51c 14 .cfa: sp 0 +
STACK CFI a520 .cfa: sp 16 +
STACK CFI a524 .cfa: x29 16 + .ra: .cfa -8 + ^ x29: .cfa -16 + ^
STACK CFI INIT a530 4 .cfa: sp 0 +
STACK CFI INIT a534 14 .cfa: sp 0 +
STACK CFI INIT a548 120 .cfa: sp 0 +
STACK CFI a54c .cfa: sp 64 +
STACK CFI a55c .cfa: x29 64 + x19: .cfa -8 + ^ x20: .cfa -16 + ^ x21: .cfa -24 + ^ x22: .cfa -32 + ^ x23: .cfa -40 + ^ x24: .cfa -48 + ^ .ra: .cfa -56 + ^ x29: .cfa -64 + ^
STACK CFI a654 .cfa: sp 64 +
STACK CFI a664 .cfa: sp 0 +
STACK CFI INIT a668 d4 .cfa: sp 0 +
STACK CFI a66c .cfa: sp 48 +
STACK CFI a678 .cfa: x29 48 + x19: .cfa -8 + ^ x20: .cfa -16 + ^ x21: .cfa -32 + ^ .ra: .cfa -40 + ^ x29: .cfa -48 + ^
STACK CFI a708 .cfa: sp 48 +
STACK CFI a714 .cfa: sp 0 +
STACK CFI a718 .cfa: x29 48 +
STACK CFI INIT a73c 3c8 .cfa: sp 0 +
STACK CFI INIT ab04 8c .cfa: sp 0 +
STACK CFI ab0c .cfa: sp 32 +
STACK CFI ab14 .cfa: x29 32 + x19: .cfa -8 + ^ x20: .cfa -16 + ^ .ra: .cfa -24 + ^ x29: .cfa -32 + ^
STACK CFI ab5c .cfa: sp 32 +
STACK CFI ab64 .cfa: sp 0 +
STACK CFI ab6c .cfa: x29 32 +
STACK CFI INIT b254 8c .cfa: sp 0 +
STACK CFI b258 .cfa: sp 32 +
STACK CFI b260 .cfa: x29 32 + x19: .cfa -16 + ^ .ra: .cfa -24 + ^ x29: .cfa -32 + ^
STACK CFI b2d4 .cfa: sp 32 +
STACK CFI b2dc .cfa: sp 0 +
STACK CFI INIT b2e0 8 .cfa: sp 0 +
STACK CFI INIT b2e8 50 .cfa: sp 0 +
STACK CFI b2ec .cfa: sp 32 +
STACK CFI b2f4 .cfa: x29 32 + x19: .cfa -16 + ^ .ra: .cfa -24 + ^ x29: .cfa -32 + ^
STACK CFI b30c .cfa: sp 32 +
STACK CFI b314 .cfa: sp 0 +
STACK CFI b318 .cfa: x29 32 +
STACK CFI b32c .cfa: sp 32 +
STACK CFI b334 .cfa: sp 0 +
STACK CFI INIT b338 64 .cfa: sp 0 +
STACK CFI b33c .cfa: sp 32 +
STACK CFI b344 .cfa: x29 32 + x19: .cfa -16 + ^ .ra: .cfa -24 + ^ x29: .cfa -32 + ^
STACK CFI b370 .cfa: sp 32 +
STACK CFI b378 .cfa: sp 0 +
STACK CFI b37c .cfa: x29 32 +
STACK CFI b390 .cfa: sp 32 +
STACK CFI b398 .cfa: sp 0 +
STACK CFI INIT b39c 70 .cfa: sp 0 +
STACK CFI b3a0 .cfa: sp 48 +
STACK CFI b3ac .cfa: x29 32 + x19: .cfa -16 + ^ .ra: .cfa -24 + ^ x29: .cfa -32 + ^
STACK CFI b3e4 .cfa: sp 48 +
STACK CFI b3f0 .cfa: sp 0 +
STACK CFI b3f4 .cfa: x29 32 +
STACK CFI INIT b40c 5c .cfa: sp 0 +
STACK CFI b410 .cfa: sp 32 +
STACK CFI b418 .cfa: x29 32 + x19: .cfa -16 + ^ .ra: .cfa -24 + ^ x29: .cfa -32 + ^
STACK CFI b45c .cfa: sp 32 +
STACK CFI b464 .cfa: sp 0 +
STACK CFI INIT b468 64 .cfa: sp 0 +
STACK CFI b46c .cfa: sp 32 +
STACK CFI b474 .cfa: x29 32 + x19: .cfa -16 + ^ .ra: .cfa -24 + ^ x29: .cfa -32 + ^
STACK CFI b4c0 .cfa: sp 32 +
STACK CFI b4c8 .cfa: sp 0 +
STACK CFI INIT b4cc 4 .cfa: sp 0 +
STACK CFI INIT b4d0 34 .cfa: sp 0 +
STACK CFI b4d4 .cfa: sp 16 +
STACK CFI b4d8 .cfa: x29 16 + .ra: .cfa -8 + ^ x29: .cfa -16 + ^
STACK CFI INIT b504 24 .cfa: sp 0 +
STACK CFI b508 .cfa: sp 32 +
STACK CFI b510 .cfa: x29 32 + x19: .cfa -16 + ^ .ra: .cfa -24 + ^ x29: .cfa -32 + ^
STACK CFI b51c .cfa: sp 32 +
STACK CFI b524 .cfa: sp 0 +
STACK CFI INIT b528 4 .cfa: sp 0 +
STACK CFI INIT b52c 4 .cfa: sp 0 +
STACK CFI INIT b530 24 .cfa: sp 0 +
STACK CFI b534 .cfa: sp 16 +
STACK CFI b538 .cfa: x29 16 + .ra: .cfa -8 + ^ x29: .cfa -16 + ^
STACK CFI b54c .cfa: sp 16 +
STACK CFI b550 .cfa: sp 0 +
STACK CFI INIT b554 10 .cfa: sp 0 +
STACK CFI INIT b564 4 .cfa: sp 0 +
STACK CFI INIT b568 4 .cfa: sp 0 +
STACK CFI INIT b56c 3c .cfa: sp 0 +
STACK CFI b570 .cfa: sp 32 +
STACK CFI b578 .cfa: x29 32 + x19: .cfa -16 + ^ .ra: .cfa -24 + ^ x29: .cfa -32 + ^
STACK CFI b584 .cfa: sp 32 +
STACK CFI b58c .cfa: sp 0 +
STACK CFI b590 .cfa: x29 32 +
STACK CFI b59c .cfa: sp 32 +
STACK CFI b5a4 .cfa: sp 0 +
STACK CFI INIT b5a8 1c .cfa: sp 0 +
STACK CFI INIT b5c4 c .cfa: sp 0 +
STACK CFI INIT b5d0 178 .cfa: sp 0 +
STACK CFI b5d4 .cfa: sp 80 +
STACK CFI b5e8 .cfa: x29 80 + x19: .cfa -8 + ^ x20: .cfa -16 + ^ x21: .cfa -24 + ^ x22: .cfa -32 + ^ x23: .cfa -40 + ^ x24: .cfa -48 + ^ x25: .cfa -56 + ^ x26: .cfa -64 + ^ .ra: .cfa -72 + ^ x29: .cfa -80 + ^
STACK CFI b730 .cfa: sp 80 +
STACK CFI b744 .cfa: sp 0 +
STACK CFI INIT b748 1b0 .cfa: sp 0 +
STACK CFI INIT b8f8 11c .cfa: sp 0 +
STACK CFI b8fc .cfa: sp 80 +
STACK CFI b90c .cfa: x29 48 + x19: .cfa -8 + ^ x20: .cfa -16 + ^ x21: .cfa -24 + ^ x22: .cfa -32 + ^ .ra: .cfa -40 + ^ x29: .cfa -48 + ^
STACK CFI b9fc .cfa: sp 80 +
STACK CFI ba0c .cfa: sp 0 +
STACK CFI ba10 .cfa: x29 48 +
STACK CFI INIT ba14 130 .cfa: sp 0 +
STACK CFI ba18 .cfa: sp 80 +
STACK CFI ba28 .cfa: x29 48 + x19: .cfa -8 + ^ x20: .cfa -16 + ^ x21: .cfa -24 + ^ x22: .cfa -32 + ^ .ra: .cfa -40 + ^ x29: .cfa -48 + ^
STACK CFI bb2c .cfa: sp 80 +
STACK CFI bb3c .cfa: sp 0 +
STACK CFI bb40 .cfa: x29 48 +
STACK CFI INIT c5c0 60 .cfa: sp 0 +
STACK CFI c5d0 .cfa: sp 32 +
STACK CFI c5d8 .cfa: x29 32 + x19: .cfa -16 + ^ .ra: .cfa -24 + ^ x29: .cfa -32 + ^
STACK CFI c610 .cfa: sp 32 +
STACK CFI c618 .cfa: sp 0 +
STACK CFI INIT c620 1c .cfa: sp 0 +
STACK CFI INIT ced4 4 .cfa: sp 0 +
STACK CFI INIT d00c 24 .cfa: sp 0 +
STACK CFI d010 .cfa: sp 32 +
STACK CFI d018 .cfa: x29 32 + x19: .cfa -16 + ^ .ra: .cfa -24 + ^ x29: .cfa -32 + ^
STACK CFI d024 .cfa: sp 32 +
STACK CFI d02c .cfa: sp 0 +
STACK CFI INIT d148 50 .cfa: sp 0 +
STACK CFI d14c .cfa: sp 32 +
STACK CFI d154 .cfa: x29 32 + x19: .cfa -8 + ^ x20: .cfa -16 + ^ .ra: .cfa -24 + ^ x29: .cfa -32 + ^
STACK CFI d18c .cfa: sp 32 +
STACK CFI d194 .cfa: sp 0 +
STACK CFI INIT d2a0 50 .cfa: sp 0 +
STACK CFI d2a4 .cfa: sp 32 +
STACK CFI d2ac .cfa: x29 32 + x19: .cfa -16 + ^ .ra: .cfa -24 + ^ x29: .cfa -32 + ^
STACK CFI d2c4 .cfa: sp 32 +
STACK CFI d2cc .cfa: sp 0 +
STACK CFI d2d0 .cfa: x29 32 +
STACK CFI d2e4 .cfa: sp 32 +
STACK CFI d2ec .cfa: sp 0 +
STACK CFI INIT d2f0 f8 .cfa: sp 0 +
STACK CFI d2f4 .cfa: sp 64 +
STACK CFI d304 .cfa: x29 64 + x19: .cfa -8 + ^ x20: .cfa -16 + ^ x21: .cfa -24 + ^ x22: .cfa -32 + ^ x23: .cfa -48 + ^ .ra: .cfa -56 + ^ x29: .cfa -64 + ^
STACK CFI d360 .cfa: sp 64 +
STACK CFI d370 .cfa: sp 0 +
STACK CFI d374 .cfa: x29 64 +
STACK CFI d390 .cfa: sp 64 +
STACK CFI d3a0 .cfa: sp 0 +
STACK CFI d3a4 .cfa: x29 64 +
STACK CFI d3d4 .cfa: sp 64 +
STACK CFI d3e4 .cfa: sp 0 +
STACK CFI INIT d4e0 50 .cfa: sp 0 +
STACK CFI d4e4 .cfa: sp 32 +
STACK CFI d4ec .cfa: x29 32 + x19: .cfa -16 + ^ .ra: .cfa -24 + ^ x29: .cfa -32 + ^
STACK CFI d504 .cfa: sp 32 +
STACK CFI d50c .cfa: sp 0 +
STACK CFI d510 .cfa: x29 32 +
STACK CFI d524 .cfa: sp 32 +
STACK CFI d52c .cfa: sp 0 +
STACK CFI INIT d530 4 .cfa: sp 0 +
STACK CFI INIT d534 34 .cfa: sp 0 +
STACK CFI d538 .cfa: sp 32 +
STACK CFI d540 .cfa: x29 32 + x19: .cfa -16 + ^ .ra: .cfa -24 + ^ x29: .cfa -32 + ^
STACK CFI d55c .cfa: sp 32 +
STACK CFI d564 .cfa: sp 0 +
STACK CFI INIT d568 14 .cfa: sp 0 +
STACK CFI INIT d57c 4 .cfa: sp 0 +
STACK CFI INIT d580 4 .cfa: sp 0 +
STACK CFI INIT d584 104 .cfa: sp 0 +
STACK CFI d588 .cfa: sp 48 +
STACK CFI d594 .cfa: x29 48 + x19: .cfa -8 + ^ x20: .cfa -16 + ^ x21: .cfa -32 + ^ .ra: .cfa -40 + ^ x29: .cfa -48 + ^
STACK CFI d620 .cfa: sp 48 +
STACK CFI d62c .cfa: sp 0 +
STACK CFI d630 .cfa: x29 48 +
STACK CFI d678 .cfa: sp 48 +
STACK CFI d684 .cfa: sp 0 +
STACK CFI INIT d688 1c .cfa: sp 0 +
STACK CFI INIT d6a4 c .cfa: sp 0 +
STACK CFI INIT d6b0 4 .cfa: sp 0 +
STACK CFI INIT d818 9c .cfa: sp 0 +
STACK CFI d81c .cfa: sp 32 +
STACK CFI d824 .cfa: x29 32 + x19: .cfa -8 + ^ x20: .cfa -16 + ^ .ra: .cfa -24 + ^ x29: .cfa -32 + ^
STACK CFI d8a8 .cfa: sp 32 +
STACK CFI d8b0 .cfa: sp 0 +
STACK CFI INIT d8b4 a4 .cfa: sp 0 +
STACK CFI d8b8 .cfa: sp 32 +
STACK CFI d8c0 .cfa: x29 32 + x19: .cfa -8 + ^ x20: .cfa -16 + ^ .ra: .cfa -24 + ^ x29: .cfa -32 + ^
STACK CFI d94c .cfa: sp 32 +
STACK CFI d954 .cfa: sp 0 +
STACK CFI INIT d958 4 .cfa: sp 0 +
STACK CFI INIT d95c 34 .cfa: sp 0 +
STACK CFI d960 .cfa: sp 32 +
STACK CFI d968 .cfa: x29 32 + x19: .cfa -16 + ^ .ra: .cfa -24 + ^ x29: .cfa -32 + ^
STACK CFI d984 .cfa: sp 32 +
STACK CFI d98c .cfa: sp 0 +
STACK CFI INIT d990 14 .cfa: sp 0 +
STACK CFI INIT d9a4 4 .cfa: sp 0 +
STACK CFI INIT d9a8 4 .cfa: sp 0 +
STACK CFI INIT d9ac 104 .cfa: sp 0 +
STACK CFI d9b0 .cfa: sp 48 +
STACK CFI d9bc .cfa: x29 48 + x19: .cfa -8 + ^ x20: .cfa -16 + ^ x21: .cfa -32 + ^ .ra: .cfa -40 + ^ x29: .cfa -48 + ^
STACK CFI da48 .cfa: sp 48 +
STACK CFI da54 .cfa: sp 0 +
STACK CFI da58 .cfa: x29 48 +
STACK CFI daa0 .cfa: sp 48 +
STACK CFI daac .cfa: sp 0 +
STACK CFI INIT dab0 1c .cfa: sp 0 +
STACK CFI INIT dacc c .cfa: sp 0 +
STACK CFI INIT dad8 4 .cfa: sp 0 +
STACK CFI INIT dadc 34 .cfa: sp 0 +
STACK CFI dae0 .cfa: sp 32 +
STACK CFI dae8 .cfa: x29 32 + x19: .cfa -16 + ^ .ra: .cfa -24 + ^ x29: .cfa -32 + ^
STACK CFI db04 .cfa: sp 32 +
STACK CFI db0c .cfa: sp 0 +
STACK CFI INIT db10 14 .cfa: sp 0 +
STACK CFI INIT db24 4 .cfa: sp 0 +
STACK CFI INIT db28 4 .cfa: sp 0 +
STACK CFI INIT db2c fc .cfa: sp 0 +
STACK CFI db30 .cfa: sp 48 +
STACK CFI db3c .cfa: x29 48 + x19: .cfa -8 + ^ x20: .cfa -16 + ^ x21: .cfa -32 + ^ .ra: .cfa -40 + ^ x29: .cfa -48 + ^
STACK CFI dbc0 .cfa: sp 48 +
STACK CFI dbcc .cfa: sp 0 +
STACK CFI dbd0 .cfa: x29 48 +
STACK CFI dc18 .cfa: sp 48 +
STACK CFI dc24 .cfa: sp 0 +
STACK CFI INIT dc28 1c .cfa: sp 0 +
STACK CFI INIT dc44 c .cfa: sp 0 +
STACK CFI INIT dc50 4 .cfa: sp 0 +
STACK CFI INIT dc54 34 .cfa: sp 0 +
STACK CFI dc58 .cfa: sp 32 +
STACK CFI dc60 .cfa: x29 32 + x19: .cfa -16 + ^ .ra: .cfa -24 + ^ x29: .cfa -32 + ^
STACK CFI dc7c .cfa: sp 32 +
STACK CFI dc84 .cfa: sp 0 +
STACK CFI INIT dc88 14 .cfa: sp 0 +
STACK CFI INIT dc9c 4 .cfa: sp 0 +
STACK CFI INIT dca0 4 .cfa: sp 0 +
STACK CFI INIT dca4 fc .cfa: sp 0 +
STACK CFI dca8 .cfa: sp 48 +
STACK CFI dcb4 .cfa: x29 48 + x19: .cfa -8 + ^ x20: .cfa -16 + ^ x21: .cfa -32 + ^ .ra: .cfa -40 + ^ x29: .cfa -48 + ^
STACK CFI dd38 .cfa: sp 48 +
STACK CFI dd44 .cfa: sp 0 +
STACK CFI dd48 .cfa: x29 48 +
STACK CFI dd90 .cfa: sp 48 +
STACK CFI dd9c .cfa: sp 0 +
STACK CFI INIT dda0 1c .cfa: sp 0 +
STACK CFI INIT ddbc c .cfa: sp 0 +
STACK CFI INIT ddc8 4 .cfa: sp 0 +
STACK CFI INIT ddcc 34 .cfa: sp 0 +
STACK CFI ddd0 .cfa: sp 32 +
STACK CFI ddd8 .cfa: x29 32 + x19: .cfa -16 + ^ .ra: .cfa -24 + ^ x29: .cfa -32 + ^
STACK CFI ddf4 .cfa: sp 32 +
STACK CFI ddfc .cfa: sp 0 +
STACK CFI INIT de00 14 .cfa: sp 0 +
STACK CFI INIT de14 4 .cfa: sp 0 +
STACK CFI INIT de18 4 .cfa: sp 0 +
STACK CFI INIT de1c fc .cfa: sp 0 +
STACK CFI de20 .cfa: sp 48 +
STACK CFI de2c .cfa: x29 48 + x19: .cfa -8 + ^ x20: .cfa -16 + ^ x21: .cfa -32 + ^ .ra: .cfa -40 + ^ x29: .cfa -48 + ^
STACK CFI deb0 .cfa: sp 48 +
STACK CFI debc .cfa: sp 0 +
STACK CFI dec0 .cfa: x29 48 +
STACK CFI df08 .cfa: sp 48 +
STACK CFI df14 .cfa: sp 0 +
STACK CFI INIT df18 1c .cfa: sp 0 +
STACK CFI INIT df34 c .cfa: sp 0 +
STACK CFI INIT df40 4 .cfa: sp 0 +
STACK CFI INIT df44 34 .cfa: sp 0 +
STACK CFI df48 .cfa: sp 32 +
STACK CFI df50 .cfa: x29 32 + x19: .cfa -16 + ^ .ra: .cfa -24 + ^ x29: .cfa -32 + ^
STACK CFI df6c .cfa: sp 32 +
STACK CFI df74 .cfa: sp 0 +
STACK CFI INIT df78 14 .cfa: sp 0 +
STACK CFI INIT df8c 4 .cfa: sp 0 +
STACK CFI INIT df90 4 .cfa: sp 0 +
STACK CFI INIT df94 fc .cfa: sp 0 +
STACK CFI df98 .cfa: sp 48 +
STACK CFI dfa4 .cfa: x29 48 + x19: .cfa -8 + ^ x20: .cfa -16 + ^ x21: .cfa -32 + ^ .ra: .cfa -40 + ^ x29: .cfa -48 + ^
STACK CFI e028 .cfa: sp 48 +
STACK CFI e034 .cfa: sp 0 +
STACK CFI e038 .cfa: x29 48 +
STACK CFI e080 .cfa: sp 48 +
STACK CFI e08c .cfa: sp 0 +
STACK CFI INIT e090 1c .cfa: sp 0 +
STACK CFI INIT e0ac c .cfa: sp 0 +
STACK CFI INIT e0b8 4 .cfa: sp 0 +
STACK CFI INIT e0bc 34 .cfa: sp 0 +
STACK CFI e0c0 .cfa: sp 32 +
STACK CFI e0c8 .cfa: x29 32 + x19: .cfa -16 + ^ .ra: .cfa -24 + ^ x29: .cfa -32 + ^
STACK CFI e0e4 .cfa: sp 32 +
STACK CFI e0ec .cfa: sp 0 +
STACK CFI INIT e0f0 14 .cfa: sp 0 +
STACK CFI INIT e104 4 .cfa: sp 0 +
STACK CFI INIT e108 4 .cfa: sp 0 +
STACK CFI INIT e10c fc .cfa: sp 0 +
STACK CFI e110 .cfa: sp 48 +
STACK CFI e11c .cfa: x29 48 + x19: .cfa -8 + ^ x20: .cfa -16 + ^ x21: .cfa -32 + ^ .ra: .cfa -40 + ^ x29: .cfa -48 + ^
STACK CFI e1a0 .cfa: sp 48 +
STACK CFI e1ac .cfa: sp 0 +
STACK CFI e1b0 .cfa: x29 48 +
STACK CFI e1f8 .cfa: sp 48 +
STACK CFI e204 .cfa: sp 0 +
STACK CFI INIT e208 1c .cfa: sp 0 +
STACK CFI INIT e224 c .cfa: sp 0 +
STACK CFI INIT e230 4 .cfa: sp 0 +
STACK CFI INIT e234 4 .cfa: sp 0 +
STACK CFI INIT e238 24 .cfa: sp 0 +
STACK CFI e23c .cfa: sp 16 +
STACK CFI e240 .cfa: x29 16 + .ra: .cfa -8 + ^ x29: .cfa -16 + ^
STACK CFI e254 .cfa: sp 16 +
STACK CFI e258 .cfa: sp 0 +
STACK CFI INIT e25c 10 .cfa: sp 0 +
STACK CFI INIT e26c 4 .cfa: sp 0 +
STACK CFI INIT e270 4 .cfa: sp 0 +
STACK CFI INIT e324 1c .cfa: sp 0 +
STACK CFI INIT e340 c .cfa: sp 0 +
STACK CFI INIT e34c 4 .cfa: sp 0 +
STACK CFI INIT e4b4 5c .cfa: sp 0 +
STACK CFI e4b8 .cfa: sp 32 +
STACK CFI e4c0 .cfa: x29 32 + x19: .cfa -16 + ^ .ra: .cfa -24 + ^ x29: .cfa -32 + ^
STACK CFI e504 .cfa: sp 32 +
STACK CFI e50c .cfa: sp 0 +
STACK CFI INIT e510 64 .cfa: sp 0 +
STACK CFI e514 .cfa: sp 32 +
STACK CFI e51c .cfa: x29 32 + x19: .cfa -16 + ^ .ra: .cfa -24 + ^ x29: .cfa -32 + ^
STACK CFI e568 .cfa: sp 32 +
STACK CFI e570 .cfa: sp 0 +
STACK CFI INIT e574 4 .cfa: sp 0 +
STACK CFI INIT e578 4 .cfa: sp 0 +
STACK CFI INIT e57c 34 .cfa: sp 0 +
STACK CFI e580 .cfa: sp 32 +
STACK CFI e588 .cfa: x29 32 + x19: .cfa -16 + ^ .ra: .cfa -24 + ^ x29: .cfa -32 + ^
STACK CFI e5a4 .cfa: sp 32 +
STACK CFI e5ac .cfa: sp 0 +
STACK CFI INIT e5b0 14 .cfa: sp 0 +
STACK CFI INIT e5c4 4 .cfa: sp 0 +
STACK CFI INIT e5c8 4 .cfa: sp 0 +
STACK CFI INIT e5cc 10 .cfa: sp 0 +
STACK CFI INIT e5dc 1c .cfa: sp 0 +
STACK CFI INIT e5f8 c .cfa: sp 0 +
STACK CFI INIT e730 170 .cfa: sp 0 +
STACK CFI e734 .cfa: sp 64 +
STACK CFI e744 .cfa: x29 48 + x19: .cfa -8 + ^ x20: .cfa -16 + ^ x21: .cfa -32 + ^ .ra: .cfa -40 + ^ x29: .cfa -48 + ^
STACK CFI e794 .cfa: sp 64 +
STACK CFI e7a4 .cfa: sp 0 +
STACK CFI e7a8 .cfa: x29 48 +
STACK CFI e888 .cfa: sp 64 +
STACK CFI e898 .cfa: sp 0 +
STACK CFI e89c .cfa: x29 48 +
STACK CFI INIT e8a0 3c .cfa: sp 0 +
STACK CFI e8a4 .cfa: sp 32 +
STACK CFI e8ac .cfa: x29 32 + x19: .cfa -16 + ^ .ra: .cfa -24 + ^ x29: .cfa -32 + ^
STACK CFI e8b8 .cfa: sp 32 +
STACK CFI e8c0 .cfa: sp 0 +
STACK CFI e8c4 .cfa: x29 32 +
STACK CFI e8d0 .cfa: sp 32 +
STACK CFI e8d8 .cfa: sp 0 +
STACK CFI INIT e8dc 4c .cfa: sp 0 +
STACK CFI e8e0 .cfa: sp 32 +
STACK CFI e8e8 .cfa: x29 32 + x19: .cfa -8 + ^ x20: .cfa -16 + ^ .ra: .cfa -24 + ^ x29: .cfa -32 + ^
STACK CFI e910 .cfa: sp 32 +
STACK CFI e918 .cfa: sp 0 +
STACK CFI e91c .cfa: sp 32 +
STACK CFI e924 .cfa: sp 0 +
STACK CFI INIT eb48 64 .cfa: sp 0 +
STACK CFI eb4c .cfa: sp 32 +
STACK CFI eb54 .cfa: x29 32 + x19: .cfa -16 + ^ .ra: .cfa -24 + ^ x29: .cfa -32 + ^
STACK CFI eb80 .cfa: sp 32 +
STACK CFI eb88 .cfa: sp 0 +
STACK CFI eb8c .cfa: x29 32 +
STACK CFI eba0 .cfa: sp 32 +
STACK CFI eba8 .cfa: sp 0 +
STACK CFI INIT edd0 24 .cfa: sp 0 +
STACK CFI edd4 .cfa: sp 32 +
STACK CFI eddc .cfa: x29 32 + x19: .cfa -16 + ^ .ra: .cfa -24 + ^ x29: .cfa -32 + ^
STACK CFI ede8 .cfa: sp 32 +
STACK CFI edf0 .cfa: sp 0 +
STACK CFI INIT f5a4 4 .cfa: sp 0 +
STACK CFI INIT f5a8 14 .cfa: sp 0 +
STACK CFI INIT 8ed0 43c .cfa: sp 0 +
STACK CFI 8ed4 .cfa: sp 224 +
STACK CFI 8ef0 .cfa: x29 96 + x19: .cfa -8 + ^ x20: .cfa -16 + ^ x21: .cfa -24 + ^ x22: .cfa -32 + ^ x23: .cfa -40 + ^ x24: .cfa -48 + ^ x25: .cfa -56 + ^ x26: .cfa -64 + ^ x27: .cfa -72 + ^ x28: .cfa -80 + ^ .ra: .cfa -88 + ^ x29: .cfa -96 + ^
STACK CFI 9204 .cfa: sp 224 +
STACK CFI 9220 .cfa: sp 0 +
STACK CFI 9224 .cfa: x29 96 +
STACK CFI INIT 9328 330 .cfa: sp 0 +
STACK CFI 932c .cfa: sp 224 +
STACK CFI 9340 .cfa: x29 64 + x19: .cfa -8 + ^ x20: .cfa -16 + ^ x21: .cfa -24 + ^ x22: .cfa -32 + ^ x23: .cfa -48 + ^ .ra: .cfa -56 + ^ x29: .cfa -64 + ^
STACK CFI 9548 .cfa: sp 224 +
STACK CFI 955c .cfa: sp 0 +
STACK CFI 9560 .cfa: x29 64 +
STACK CFI INIT 96a8 74 .cfa: sp 0 +
STACK CFI 96ac .cfa: sp 48 +
STACK CFI 96b8 .cfa: x29 32 + x19: .cfa -8 + ^ x20: .cfa -16 + ^ .ra: .cfa -24 + ^ x29: .cfa -32 + ^
STACK CFI 9704 .cfa: sp 48 +
STACK CFI 9710 .cfa: sp 0 +
STACK CFI 9714 .cfa: x29 32 +
STACK CFI INIT 97ac 154 .cfa: sp 0 +
STACK CFI 97b0 .cfa: sp 384 +
STACK CFI 97c4 .cfa: x29 64 + x19: .cfa -8 + ^ x20: .cfa -16 + ^ x21: .cfa -24 + ^ x22: .cfa -32 + ^ x23: .cfa -40 + ^ x28: .cfa -48 + ^ .ra: .cfa -56 + ^ x29: .cfa -64 + ^
STACK CFI 98a8 .cfa: sp 384 +
STACK CFI 98bc .cfa: sp 0 +
STACK CFI 98c0 .cfa: x29 64 +
STACK CFI INIT 9934 12c .cfa: sp 0 +
STACK CFI 9938 .cfa: sp 80 +
STACK CFI 994c .cfa: x29 80 + x19: .cfa -8 + ^ x20: .cfa -16 + ^ x21: .cfa -24 + ^ x22: .cfa -32 + ^ x23: .cfa -40 + ^ x24: .cfa -48 + ^ x25: .cfa -56 + ^ x26: .cfa -64 + ^ .ra: .cfa -72 + ^ x29: .cfa -80 + ^
STACK CFI 9a14 .cfa: sp 80 +
STACK CFI 9a28 .cfa: sp 0 +
STACK CFI 9a2c .cfa: x29 80 +
STACK CFI INIT 9b04 1a4 .cfa: sp 0 +
STACK CFI 9b08 .cfa: sp 112 +
STACK CFI 9b20 .cfa: x29 80 + x19: .cfa -8 + ^ x20: .cfa -16 + ^ x21: .cfa -24 + ^ x22: .cfa -32 + ^ x23: .cfa -40 + ^ x24: .cfa -48 + ^ x25: .cfa -56 + ^ x26: .cfa -64 + ^ .ra: .cfa -72 + ^ x29: .cfa -80 + ^
STACK CFI 9c10 .cfa: sp 112 +
STACK CFI 9c28 .cfa: sp 0 +
STACK CFI 9c2c .cfa: x29 80 +
STACK CFI INIT 9ca8 1dc .cfa: sp 0 +
STACK CFI 9cac .cfa: sp 128 +
STACK CFI 9cc8 .cfa: x29 96 + x19: .cfa -8 + ^ x20: .cfa -16 + ^ x21: .cfa -24 + ^ x22: .cfa -32 + ^ x23: .cfa -40 + ^ x24: .cfa -48 + ^ x25: .cfa -56 + ^ x26: .cfa -64 + ^ x27: .cfa -80 + ^ .ra: .cfa -88 + ^ x29: .cfa -96 + ^
STACK CFI 9e34 .cfa: sp 128 +
STACK CFI 9e50 .cfa: sp 0 +
STACK CFI 9e54 .cfa: x29 96 +
STACK CFI INIT 9e98 50 .cfa: sp 0 +
STACK CFI 9e9c .cfa: sp 32 +
STACK CFI 9ea4 .cfa: x29 32 + x19: .cfa -8 + ^ x20: .cfa -16 + ^ .ra: .cfa -24 + ^ x29: .cfa -32 + ^
STACK CFI INIT 9f4c 178 .cfa: sp 0 +
STACK CFI 9f50 .cfa: sp 80 +
STACK CFI 9f64 .cfa: x29 80 + x19: .cfa -8 + ^ x20: .cfa -16 + ^ x21: .cfa -24 + ^ x22: .cfa -32 + ^ x23: .cfa -40 + ^ x24: .cfa -48 + ^ x25: .cfa -64 + ^ .ra: .cfa -72 + ^ x29: .cfa -80 + ^
STACK CFI a090 .cfa: sp 80 +
STACK CFI a0a4 .cfa: sp 0 +
STACK CFI a0a8 .cfa: x29 80 +
STACK CFI INIT a20c 228 .cfa: sp 0 +
STACK CFI a210 .cfa: sp 128 +
STACK CFI a228 .cfa: x29 80 + x19: .cfa -8 + ^ x20: .cfa -16 + ^ x21: .cfa -24 + ^ x22: .cfa -32 + ^ x23: .cfa -40 + ^ x24: .cfa -48 + ^ x25: .cfa -64 + ^ .ra: .cfa -72 + ^ x29: .cfa -80 + ^
STACK CFI a3c4 .cfa: sp 128 +
STACK CFI a3dc .cfa: sp 0 +
STACK CFI a3e0 .cfa: x29 80 +
STACK CFI INIT ab90 61c .cfa: sp 0 +
STACK CFI ab94 .cfa: sp 336 +
STACK CFI abac .cfa: x29 80 + x19: .cfa -8 + ^ x20: .cfa -16 + ^ x21: .cfa -24 + ^ x22: .cfa -32 + ^ x23: .cfa -40 + ^ x24: .cfa -48 + ^ x28: .cfa -64 + ^ .ra: .cfa -72 + ^ x29: .cfa -80 + ^
STACK CFI b028 .cfa: sp 336 +
STACK CFI b040 .cfa: sp 0 +
STACK CFI b044 .cfa: x29 80 +
STACK CFI INIT b1ac a8 .cfa: sp 0 +
STACK CFI b1b0 .cfa: sp 32 +
STACK CFI b1b8 .cfa: x29 32 + x19: .cfa -16 + ^ .ra: .cfa -24 + ^ x29: .cfa -32 + ^
STACK CFI b1ec .cfa: sp 32 +
STACK CFI b1f4 .cfa: sp 0 +
STACK CFI b1f8 .cfa: x29 32 +
STACK CFI b1fc .cfa: sp 32 +
STACK CFI b204 .cfa: sp 0 +
STACK CFI b208 .cfa: x29 32 +
STACK CFI INIT bb44 a7c .cfa: sp 0 +
STACK CFI bb48 .cfa: sp 208 +
STACK CFI bb60 .cfa: x29 80 + x19: .cfa -8 + ^ x20: .cfa -16 + ^ x21: .cfa -24 + ^ x22: .cfa -32 + ^ x23: .cfa -40 + ^ x24: .cfa -48 + ^ x25: .cfa -56 + ^ x26: .cfa -64 + ^ .ra: .cfa -72 + ^ x29: .cfa -80 + ^
STACK CFI c3b4 .cfa: sp 208 +
STACK CFI c3cc .cfa: sp 0 +
STACK CFI c3d0 .cfa: x29 80 +
STACK CFI INIT c63c 3fc .cfa: sp 0 +
STACK CFI c640 .cfa: sp 224 +
STACK CFI c65c .cfa: x29 96 + x19: .cfa -8 + ^ x20: .cfa -16 + ^ x21: .cfa -24 + ^ x22: .cfa -32 + ^ x23: .cfa -40 + ^ x24: .cfa -48 + ^ x25: .cfa -56 + ^ x26: .cfa -64 + ^ x27: .cfa -72 + ^ x28: .cfa -80 + ^ .ra: .cfa -88 + ^ x29: .cfa -96 + ^
STACK CFI c934 .cfa: sp 224 +
STACK CFI c950 .cfa: sp 0 +
STACK CFI c954 .cfa: x29 96 +
STACK CFI INIT ca38 49c .cfa: sp 0 +
STACK CFI ca3c .cfa: sp 176 +
STACK CFI ca50 .cfa: x29 64 + x19: .cfa -8 + ^ x20: .cfa -16 + ^ x21: .cfa -24 + ^ x22: .cfa -32 + ^ x23: .cfa -40 + ^ x24: .cfa -48 + ^ .ra: .cfa -56 + ^ x29: .cfa -64 + ^
STACK CFI cd88 .cfa: sp 176 +
STACK CFI cd9c .cfa: sp 0 +
STACK CFI cda0 .cfa: x29 64 +
STACK CFI INIT ced8 134 .cfa: sp 0 +
STACK CFI cedc .cfa: sp 128 +
STACK CFI cef0 .cfa: x29 64 + x19: .cfa -8 + ^ x20: .cfa -16 + ^ x21: .cfa -24 + ^ x22: .cfa -32 + ^ x23: .cfa -40 + ^ x24: .cfa -48 + ^ .ra: .cfa -56 + ^ x29: .cfa -64 + ^
STACK CFI cfbc .cfa: sp 128 +
STACK CFI cfd0 .cfa: sp 0 +
STACK CFI cfd4 .cfa: x29 64 +
STACK CFI INIT d030 118 .cfa: sp 0 +
STACK CFI d034 .cfa: sp 144 +
STACK CFI d04c .cfa: x29 80 + x19: .cfa -8 + ^ x20: .cfa -16 + ^ x21: .cfa -24 + ^ x22: .cfa -32 + ^ x23: .cfa -40 + ^ x24: .cfa -48 + ^ x25: .cfa -64 + ^ .ra: .cfa -72 + ^ x29: .cfa -80 + ^
STACK CFI d0f4 .cfa: sp 144 +
STACK CFI d10c .cfa: sp 0 +
STACK CFI d110 .cfa: x29 80 +
STACK CFI INIT d198 108 .cfa: sp 0 +
STACK CFI d19c .cfa: sp 64 +
STACK CFI d1ac .cfa: x29 48 + x19: .cfa -8 + ^ x20: .cfa -16 + ^ x21: .cfa -24 + ^ x22: .cfa -32 + ^ .ra: .cfa -40 + ^ x29: .cfa -48 + ^
STACK CFI d258 .cfa: sp 64 +
STACK CFI d268 .cfa: sp 0 +
STACK CFI d26c .cfa: x29 48 +
STACK CFI INIT d3e8 f8 .cfa: sp 0 +
STACK CFI d3ec .cfa: sp 48 +
STACK CFI d3f8 .cfa: x29 48 + x19: .cfa -8 + ^ x20: .cfa -16 + ^ x21: .cfa -32 + ^ .ra: .cfa -40 + ^ x29: .cfa -48 + ^
STACK CFI d464 .cfa: sp 48 +
STACK CFI d470 .cfa: sp 0 +
STACK CFI d474 .cfa: x29 48 +
STACK CFI INIT d6b4 164 .cfa: sp 0 +
STACK CFI d6b8 .cfa: sp 112 +
STACK CFI d6c8 .cfa: x29 48 + x19: .cfa -8 + ^ x20: .cfa -16 + ^ x21: .cfa -24 + ^ x22: .cfa -32 + ^ .ra: .cfa -40 + ^ x29: .cfa -48 + ^
STACK CFI d7b4 .cfa: sp 112 +
STACK CFI d7c4 .cfa: sp 0 +
STACK CFI d7c8 .cfa: x29 48 +
STACK CFI INIT e274 b0 .cfa: sp 0 +
STACK CFI e278 .cfa: sp 48 +
STACK CFI e284 .cfa: x29 48 + x19: .cfa -8 + ^ x20: .cfa -16 + ^ x21: .cfa -32 + ^ .ra: .cfa -40 + ^ x29: .cfa -48 + ^
STACK CFI e2dc .cfa: sp 48 +
STACK CFI e2e8 .cfa: sp 0 +
STACK CFI e2ec .cfa: x29 48 +
STACK CFI e300 .cfa: sp 48 +
STACK CFI e30c .cfa: sp 0 +
STACK CFI e310 .cfa: x29 48 +
STACK CFI INIT e350 164 .cfa: sp 0 +
STACK CFI e354 .cfa: sp 112 +
STACK CFI e364 .cfa: x29 48 + x19: .cfa -8 + ^ x20: .cfa -16 + ^ x21: .cfa -24 + ^ x22: .cfa -32 + ^ .ra: .cfa -40 + ^ x29: .cfa -48 + ^
STACK CFI e450 .cfa: sp 112 +
STACK CFI e460 .cfa: sp 0 +
STACK CFI e464 .cfa: x29 48 +
STACK CFI INIT e604 12c .cfa: sp 0 +
STACK CFI e608 .cfa: sp 80 +
STACK CFI e618 .cfa: x29 48 + x19: .cfa -8 + ^ x20: .cfa -16 + ^ x21: .cfa -32 + ^ .ra: .cfa -40 + ^ x29: .cfa -48 + ^
STACK CFI e6b0 .cfa: sp 80 +
STACK CFI e6c0 .cfa: sp 0 +
STACK CFI e6c4 .cfa: x29 48 +
STACK CFI INIT e928 134 .cfa: sp 0 +
STACK CFI e92c .cfa: sp 80 +
STACK CFI e938 .cfa: x29 32 + x19: .cfa -8 + ^ x20: .cfa -16 + ^ .ra: .cfa -24 + ^ x29: .cfa -32 + ^
STACK CFI e968 .cfa: sp 80 +
STACK CFI e974 .cfa: sp 0 +
STACK CFI e978 .cfa: x29 32 +
STACK CFI INIT ea5c 78 .cfa: sp 0 +
STACK CFI ea60 .cfa: sp 32 +
STACK CFI ea68 .cfa: x29 32 + x19: .cfa -8 + ^ x20: .cfa -16 + ^ .ra: .cfa -24 + ^ x29: .cfa -32 + ^
STACK CFI ea74 .cfa: sp 32 +
STACK CFI ea7c .cfa: sp 0 +
STACK CFI ea80 .cfa: x29 32 +
STACK CFI INIT ead4 74 .cfa: sp 0 +
STACK CFI ead8 .cfa: sp 48 +
STACK CFI eae4 .cfa: x29 32 + x19: .cfa -8 + ^ x20: .cfa -16 + ^ .ra: .cfa -24 + ^ x29: .cfa -32 + ^
STACK CFI eb30 .cfa: sp 48 +
STACK CFI eb3c .cfa: sp 0 +
STACK CFI eb40 .cfa: x29 32 +
STACK CFI INIT ebac 224 .cfa: sp 0 +
STACK CFI ebb0 .cfa: sp 128 +
STACK CFI ebc0 .cfa: x29 48 + x19: .cfa -8 + ^ x20: .cfa -16 + ^ x21: .cfa -32 + ^ .ra: .cfa -40 + ^ x29: .cfa -48 + ^
STACK CFI ec70 .cfa: sp 128 +
STACK CFI ec80 .cfa: sp 0 +
STACK CFI ec84 .cfa: x29 48 +
STACK CFI INIT edf4 4f4 .cfa: sp 0 +
STACK CFI edf8 .cfa: sp 144 +
STACK CFI ee0c .cfa: x29 64 + x19: .cfa -8 + ^ x20: .cfa -16 + ^ x21: .cfa -24 + ^ x22: .cfa -32 + ^ x23: .cfa -48 + ^ .ra: .cfa -56 + ^ x29: .cfa -64 + ^
STACK CFI f140 .cfa: sp 144 +
STACK CFI f154 .cfa: sp 0 +
STACK CFI f158 .cfa: x29 64 +
STACK CFI INIT f2e8 154 .cfa: sp 0 +
STACK CFI f2ec .cfa: sp 384 +
STACK CFI f300 .cfa: x29 64 + x19: .cfa -8 + ^ x20: .cfa -16 + ^ x21: .cfa -24 + ^ x22: .cfa -32 + ^ x23: .cfa -40 + ^ x28: .cfa -48 + ^ .ra: .cfa -56 + ^ x29: .cfa -64 + ^
STACK CFI f3e4 .cfa: sp 384 +
STACK CFI f3f8 .cfa: sp 0 +
STACK CFI f3fc .cfa: x29 64 +
STACK CFI INIT f43c 168 .cfa: sp 0 +
STACK CFI f440 .cfa: sp 384 +
STACK CFI f454 .cfa: x29 64 + x19: .cfa -8 + ^ x20: .cfa -16 + ^ x21: .cfa -24 + ^ x22: .cfa -32 + ^ x23: .cfa -40 + ^ x28: .cfa -48 + ^ .ra: .cfa -56 + ^ x29: .cfa -64 + ^
STACK CFI f54c .cfa: sp 384 +
STACK CFI f560 .cfa: sp 0 +
STACK CFI f564 .cfa: x29 64 +
STACK CFI INIT f5bc 50c .cfa: sp 0 +
STACK CFI f5c0 .cfa: sp 64 +
STACK CFI f5d0 .cfa: x29 64 + x19: .cfa -8 + ^ x20: .cfa -16 + ^ x21: .cfa -24 + ^ x22: .cfa -32 + ^ x23: .cfa -40 + ^ x24: .cfa -48 + ^ .ra: .cfa -56 + ^ x29: .cfa -64 + ^
STACK CFI f6f0 .cfa: sp 64 +
STACK CFI f700 .cfa: sp 0 +
STACK CFI f704 .cfa: x29 64 +
STACK CFI fa9c .cfa: sp 64 +
STACK CFI faac .cfa: sp 0 +
STACK CFI fab0 .cfa: x29 64 +
