MODULE Linux arm64 B56F37067C9430E843292BDAF4327ADD0 sorkopiko.playlists.android64.so
INFO CODE_ID 06376FB5947CE83043292BDAF4327ADDF3EB150E
INFO GENERATOR mozilla/dump_syms 2.3.4
PUBLIC 7780 0 __on_dlclose
PUBLIC 7790 0 __emutls_unregister_key
PUBLIC 7798 0 __on_dlclose_late
PUBLIC 77a0 0 __atexit_handler_wrapper
PUBLIC 77b4 0 atexit
PUBLIC 77d0 0 pthread_atfork
PUBLIC 77e0 0 unwind_phase2
PUBLIC 7914 0 _Unwind_Resume
PUBLIC 7998 0 unwind_phase2_forced
PUBLIC m 7a8c 0 __unw_init_local
PUBLIC m 7b34 0 __unw_get_reg
PUBLIC 7bb0 0 __unw_step_stage2
PUBLIC m 7bc4 0 __unw_get_proc_info
PUBLIC m 7c04 0 __unw_resume
PUBLIC 7c2c 0 libunwind::CFI_Parser<libunwind::LocalAddressSpace>::decodeFDE(libunwind::LocalAddressSpace&, unsigned long, libunwind::CFI_Parser<libunwind::LocalAddressSpace>::FDE_Info*, libunwind::CFI_Parser<libunwind::LocalAddressSpace>::CIE_Info*, bool)
PUBLIC 7dbc 0 libunwind::CFI_Parser<libunwind::LocalAddressSpace>::parseCIE(libunwind::LocalAddressSpace&, unsigned long, libunwind::CFI_Parser<libunwind::LocalAddressSpace>::CIE_Info*)
PUBLIC 8084 0 libunwind::AbstractUnwindCursor::~AbstractUnwindCursor()
PUBLIC 808c 0 libunwind::UnwindCursor<libunwind::LocalAddressSpace, libunwind::Registers_arm64>::~UnwindCursor()
PUBLIC 8094 0 libunwind::UnwindCursor<libunwind::LocalAddressSpace, libunwind::Registers_arm64>::validReg(int)
PUBLIC 80d8 0 libunwind::UnwindCursor<libunwind::LocalAddressSpace, libunwind::Registers_arm64>::getReg(int)
PUBLIC 81c0 0 libunwind::UnwindCursor<libunwind::LocalAddressSpace, libunwind::Registers_arm64>::setReg(int, unsigned long)
PUBLIC 82a8 0 libunwind::UnwindCursor<libunwind::LocalAddressSpace, libunwind::Registers_arm64>::validFloatReg(int)
PUBLIC 82bc 0 libunwind::UnwindCursor<libunwind::LocalAddressSpace, libunwind::Registers_arm64>::getFloatReg(int)
PUBLIC 82cc 0 libunwind::UnwindCursor<libunwind::LocalAddressSpace, libunwind::Registers_arm64>::setFloatReg(int, double)
PUBLIC 82dc 0 libunwind::UnwindCursor<libunwind::LocalAddressSpace, libunwind::Registers_arm64>::step(bool)
PUBLIC 83cc 0 libunwind::UnwindCursor<libunwind::LocalAddressSpace, libunwind::Registers_arm64>::getInfo(unw_proc_info_t*)
PUBLIC 8410 0 libunwind::UnwindCursor<libunwind::LocalAddressSpace, libunwind::Registers_arm64>::jumpto()
PUBLIC 841c 0 libunwind::UnwindCursor<libunwind::LocalAddressSpace, libunwind::Registers_arm64>::isSignalFrame()
PUBLIC 8428 0 libunwind::UnwindCursor<libunwind::LocalAddressSpace, libunwind::Registers_arm64>::getFunctionName(char*, unsigned long, unsigned long*)
PUBLIC 8454 0 libunwind::UnwindCursor<libunwind::LocalAddressSpace, libunwind::Registers_arm64>::setInfoBasedOnIPRegister(bool)
PUBLIC 86d4 0 libunwind::UnwindCursor<libunwind::LocalAddressSpace, libunwind::Registers_arm64>::getRegisterName(int)
PUBLIC 86e0 0 libunwind::UnwindCursor<libunwind::LocalAddressSpace, libunwind::Registers_arm64>::stepThroughSigReturn(libunwind::Registers_arm64&)
PUBLIC 8800 0 libunwind::DwarfInstructions<libunwind::LocalAddressSpace, libunwind::Registers_arm64>::stepWithDwarf(libunwind::LocalAddressSpace&, unsigned long, unsigned long, libunwind::Registers_arm64&, bool&, bool)
PUBLIC 8c88 0 libunwind::CFI_Parser<libunwind::LocalAddressSpace>::parseFDEInstructions(libunwind::LocalAddressSpace&, libunwind::CFI_Parser<libunwind::LocalAddressSpace>::FDE_Info const&, libunwind::CFI_Parser<libunwind::LocalAddressSpace>::CIE_Info const&, unsigned long, int, libunwind::CFI_Parser<libunwind::LocalAddressSpace>::PrologInfo*)
PUBLIC 98d0 0 libunwind::DwarfInstructions<libunwind::LocalAddressSpace, libunwind::Registers_arm64>::getCFA(libunwind::LocalAddressSpace&, libunwind::CFI_Parser<libunwind::LocalAddressSpace>::PrologInfo const&, libunwind::Registers_arm64 const&)
PUBLIC 9a04 0 libunwind::DwarfInstructions<libunwind::LocalAddressSpace, libunwind::Registers_arm64>::getSavedRegister(libunwind::LocalAddressSpace&, libunwind::Registers_arm64 const&, unsigned long, libunwind::CFI_Parser<libunwind::LocalAddressSpace>::RegisterLocation const&)
PUBLIC 9c14 0 libunwind::LocalAddressSpace::getEncodedP(unsigned long&, unsigned long, unsigned char, unsigned long)
PUBLIC 9fa0 0 libunwind::LocalAddressSpace::getULEB128(unsigned long&, unsigned long)
PUBLIC a168 0 libunwind::DwarfInstructions<libunwind::LocalAddressSpace, libunwind::Registers_arm64>::evaluateExpression(unsigned long, libunwind::LocalAddressSpace&, libunwind::Registers_arm64 const&, unsigned long)
PUBLIC ab24 0 libunwind::UnwindCursor<libunwind::LocalAddressSpace, libunwind::Registers_arm64>::getInfoFromDwarfSection(unsigned long, libunwind::UnwindInfoSections const&, unsigned int)
PUBLIC adf8 0 libunwind::findUnwindSectionsByPhdr(dl_phdr_info*, unsigned long, void*)
PUBLIC af2c 0 libunwind::EHHeaderParser<libunwind::LocalAddressSpace>::decodeEHHdr(libunwind::LocalAddressSpace&, unsigned long, unsigned long, libunwind::EHHeaderParser<libunwind::LocalAddressSpace>::EHHeaderInfo&)
PUBLIC b04c 0 libunwind::CFI_Parser<libunwind::LocalAddressSpace>::findFDE(libunwind::LocalAddressSpace&, unsigned long, unsigned long, unsigned long, unsigned long, libunwind::CFI_Parser<libunwind::LocalAddressSpace>::FDE_Info*, libunwind::CFI_Parser<libunwind::LocalAddressSpace>::CIE_Info*)
PUBLIC b214 0 libunwind::EHHeaderParser<libunwind::LocalAddressSpace>::findFDE(libunwind::LocalAddressSpace&, unsigned long, unsigned long, unsigned int, libunwind::CFI_Parser<libunwind::LocalAddressSpace>::FDE_Info*, libunwind::CFI_Parser<libunwind::LocalAddressSpace>::CIE_Info*)
PUBLIC b37c 0 libunwind::EHHeaderParser<libunwind::LocalAddressSpace>::getTableEntrySize(unsigned char)
PUBLIC b478 0 libunwind::Registers_arm64::getRegisterName(int)
PUBLIC b4a8 0 __libunwind_Registers_arm64_jumpto
PUBLIC m b538 0 __unw_getcontext
PUBLIC b5d4 0 NextLevel::levelDownloadFinished(GJGameLevel*)
PUBLIC b650 0 NextLevel::levelDownloadFailed(int)
PUBLIC b6c8 0 std::__ndk1::__function::__value_func<void (GJGameLevel*, bool)>::swap[abi:ne180000](std::__ndk1::__function::__value_func<void (GJGameLevel*, bool)>&)
PUBLIC b860 0 __clang_call_terminate
PUBLIC b870 0 std::__ndk1::__throw_bad_function_call[abi:ne180000]()
PUBLIC b8a4 0 std::__ndk1::bad_function_call::~bad_function_call()
PUBLIC b8d0 0 __aarch64_ldadd8_relax
PUBLIC b900 0 init_have_lse_atomics
PUBLIC b998 0 __init_cpu_features_constructor
PUBLIC bf34 0 __init_cpu_features
PUBLIC bfc0 0 __aarch64_ldadd8_acq_rel
PUBLIC bff0 0 __cxx_global_var_init
PUBLIC c470 0 geode::modifier::ModifyBase<geode::modifier::ModifyDerive<PLGJDropDownLayer, GJDropDownLayer> >::~ModifyBase()
PUBLIC c48c 0 __cxx_global_var_init.1
PUBLIC c90c 0 geode::modifier::ModifyBase<geode::modifier::ModifyDerive<PLEndLevelLayer, EndLevelLayer> >::~ModifyBase()
PUBLIC c928 0 geode::modifier::ModifyDerive<PLGJDropDownLayer, GJDropDownLayer>::apply()
PUBLIC cca8 0 std::__ndk1::shared_ptr<geode::Hook>::~shared_ptr[abi:ne180000]()
PUBLIC ccf8 0 geode::impl::ResultData<geode::Hook*, std::__ndk1::basic_string<char, std::__ndk1::char_traits<char>, std::__ndk1::allocator<char> > >::~ResultData()
PUBLIC cd6c 0 std::__ndk1::vector<std::__ndk1::basic_string<char, std::__ndk1::char_traits<char>, std::__ndk1::allocator<char> >, std::__ndk1::allocator<std::__ndk1::basic_string<char, std::__ndk1::char_traits<char>, std::__ndk1::allocator<char> > > >::~vector[abi:ne180000]()
PUBLIC cde8 0 geode::modifier::ModifyBase<geode::modifier::ModifyDerive<PLGJDropDownLayer, GJDropDownLayer> >::apply()
PUBLIC cdec 0 _ZN5geode15UnwrapExceptionC2IRPNS_4HookEQsr4implE18IsStringStreamableIT_EEENS_4impl5OkTagEOS5_
PUBLIC cf40 0 std::__ndk1::__throw_bad_variant_access[abi:ne180000]()
PUBLIC cf74 0 std::__ndk1::basic_stringstream<char, std::__ndk1::char_traits<char>, std::__ndk1::allocator<char> >::basic_stringstream[abi:ne180000]()
PUBLIC m d0a0 0 std::__ndk1::basic_stringstream<char, std::__ndk1::char_traits<char>, std::__ndk1::allocator<char> >::~basic_stringstream()
PUBLIC d120 0 geode::UnwrapException::~UnwrapException()
PUBLIC d144 0 std::__ndk1::__put_character_sequence[abi:ne180000]<char, std::__ndk1::char_traits<char> >(std::__ndk1::basic_ostream<char, std::__ndk1::char_traits<char> >, std::__ndk1::basic_ostream const*, unsigned long)
PUBLIC d2e8 0 std::__ndk1::__pad_and_output[abi:ne180000]<char, std::__ndk1::char_traits<char> >(std::__ndk1::char_traits<char>, std::__ndk1::ostreambuf_iterator const*, std::__ndk1::ostreambuf_iterator const, std::__ndk1::ostreambuf_iterator const, std::__ndk1::ios_base&, std::__ndk1::ostreambuf_iterator)
PUBLIC d4c4 0 std::__ndk1::basic_string<char, std::__ndk1::char_traits<char>, std::__ndk1::allocator<char> >::__throw_length_error[abi:ne180000]() const
PUBLIC d4d8 0 std::__ndk1::__throw_length_error[abi:ne180000](char const*)
PUBLIC d528 0 std::length_error::length_error[abi:ne180000](char const*)
PUBLIC d558 0 std::__throw_bad_array_new_length([abi:ne180000], void)
PUBLIC d58c 0 std::__ndk1::basic_stringbuf<char, std::__ndk1::char_traits<char>, std::__ndk1::allocator<char> >::str[abi:ne180000]() &&
PUBLIC d704 0 std::__ndk1::basic_stringbuf<char, std::__ndk1::char_traits<char>, std::__ndk1::allocator<char> >::__init_buf_ptrs[abi:ne180000]()
PUBLIC d84c 0 std::__ndk1::vector<std::__ndk1::basic_string<char, std::__ndk1::char_traits<char>, std::__ndk1::allocator<char> >, std::__ndk1::allocator<std::__ndk1::basic_string<char, std::__ndk1::char_traits<char>, std::__ndk1::allocator<char> > > >::__push_back_slow_path<std::__ndk1::basic_string<char, std::__ndk1::char_traits<char>, std::__ndk1::allocator<char> > const&>(std::__ndk1::basic_string<char, std::__ndk1::char_traits<char>, std::__ndk1::allocator<char> > const&)
PUBLIC da74 0 std::__ndk1::basic_string<char, std::__ndk1::char_traits<char>, std::__ndk1::allocator<char> >::__init_copy_ctor_external(char const*, unsigned long)
PUBLIC daf4 0 std::__ndk1::__split_buffer<std::__ndk1::basic_string<char, std::__ndk1::char_traits<char>, std::__ndk1::allocator<char> >, std::__ndk1::allocator<std::__ndk1::basic_string<char, std::__ndk1::char_traits<char>, std::__ndk1::allocator<char> > >&>::~__split_buffer()
PUBLIC db5c 0 std::__ndk1::vector<std::__ndk1::basic_string<char, std::__ndk1::char_traits<char>, std::__ndk1::allocator<char> >, std::__ndk1::allocator<std::__ndk1::basic_string<char, std::__ndk1::char_traits<char>, std::__ndk1::allocator<char> > > >::__throw_length_error[abi:ne180000]() const
PUBLIC db70 0 std::__ndk1::__variant_detail::__visitation::__base::__dispatcher<(unsigned long)0>::__dispatch[abi:ne180000]<std::__ndk1::__variant_detail::__dtor<std::__ndk1::__variant_detail::__traits<geode::Hook*, std::__ndk1::basic_string<char, std::__ndk1::char_traits<char>, std::__ndk1::allocator<char> > >, (std::__ndk1::__variant_detail::_Trait)1>::__destroy[abi:ne180000]()::{lambda(auto:1&)#1}, std::__ndk1::__variant_detail::__base<(std::__ndk1::__variant_detail::__traits<geode::Hook*, std::__ndk1::basic_string<char, std::__ndk1::char_traits<char>, std::__ndk1::allocator<char> > >)1, geode::Hook, std::__ndk1::allocator<char> >&>(std::__ndk1::__variant_detail::__dtor<std::__ndk1::__variant_detail::__traits<geode::Hook*, std::__ndk1::basic_string<char, std::__ndk1::char_traits<char>, std::__ndk1::allocator<char> > >, (std::__ndk1::__variant_detail::_Trait)1>, std::__ndk1::__variant_detail::__base<(std::__ndk1::__variant_detail::__traits<geode::Hook*, std::__ndk1::basic_string<char, std::__ndk1::char_traits<char>, std::__ndk1::allocator<char> > >)1, geode::Hook, std::__ndk1::allocator<char> >&)
PUBLIC db74 0 std::__ndk1::__variant_detail::__visitation::__base::__dispatcher<(unsigned long)1>::__dispatch[abi:ne180000]<std::__ndk1::__variant_detail::__dtor<std::__ndk1::__variant_detail::__traits<geode::Hook*, std::__ndk1::basic_string<char, std::__ndk1::char_traits<char>, std::__ndk1::allocator<char> > >, (std::__ndk1::__variant_detail::_Trait)1>::__destroy[abi:ne180000]()::{lambda(auto:1&)#1}, std::__ndk1::__variant_detail::__base<(std::__ndk1::__variant_detail::__traits<geode::Hook*, std::__ndk1::basic_string<char, std::__ndk1::char_traits<char>, std::__ndk1::allocator<char> > >)1, geode::Hook, std::__ndk1::allocator<char> >&>(std::__ndk1::__variant_detail::__dtor<std::__ndk1::__variant_detail::__traits<geode::Hook*, std::__ndk1::basic_string<char, std::__ndk1::char_traits<char>, std::__ndk1::allocator<char> > >, (std::__ndk1::__variant_detail::_Trait)1>, std::__ndk1::__variant_detail::__base<(std::__ndk1::__variant_detail::__traits<geode::Hook*, std::__ndk1::basic_string<char, std::__ndk1::char_traits<char>, std::__ndk1::allocator<char> > >)1, geode::Hook, std::__ndk1::allocator<char> >&)
PUBLIC db88 0 std::__ndk1::__tree<std::__ndk1::__value_type<std::__ndk1::basic_string<char, std::__ndk1::char_traits<char>, std::__ndk1::allocator<char> >, std::__ndk1::shared_ptr<geode::Hook> >, std::__ndk1::__map_value_compare<std::__ndk1::basic_string<char, std::__ndk1::char_traits<char>, std::__ndk1::allocator<char> >, std::__ndk1::__value_type<std::__ndk1::basic_string<char, std::__ndk1::char_traits<char>, std::__ndk1::allocator<char> >, std::__ndk1::shared_ptr<geode::Hook> >, std::__ndk1::less<std::__ndk1::basic_string<char, std::__ndk1::char_traits<char>, std::__ndk1::allocator<char> > >, true>, std::__ndk1::allocator<std::__ndk1::__value_type<std::__ndk1::basic_string<char, std::__ndk1::char_traits<char>, std::__ndk1::allocator<char> >, std::__ndk1::shared_ptr<geode::Hook> > > >::find<std::__ndk1::basic_string<char, std::__ndk1::char_traits<char>, std::__ndk1::allocator<char> > >(std::__ndk1::basic_string<char, std::__ndk1::char_traits<char>, std::__ndk1::allocator<char> > const&)
PUBLIC dca8 0 std::__ndk1::__tree<std::__ndk1::__value_type<std::__ndk1::basic_string<char, std::__ndk1::char_traits<char>, std::__ndk1::allocator<char> >, std::__ndk1::shared_ptr<geode::Hook> >, std::__ndk1::__map_value_compare<std::__ndk1::basic_string<char, std::__ndk1::char_traits<char>, std::__ndk1::allocator<char> >, std::__ndk1::__value_type<std::__ndk1::basic_string<char, std::__ndk1::char_traits<char>, std::__ndk1::allocator<char> >, std::__ndk1::shared_ptr<geode::Hook> >, std::__ndk1::less<std::__ndk1::basic_string<char, std::__ndk1::char_traits<char>, std::__ndk1::allocator<char> > >, true>, std::__ndk1::allocator<std::__ndk1::__value_type<std::__ndk1::basic_string<char, std::__ndk1::char_traits<char>, std::__ndk1::allocator<char> >, std::__ndk1::shared_ptr<geode::Hook> > > >::erase(std::__ndk1::__tree_const_iterator<std::__ndk1::__value_type<std::__ndk1::basic_string<char, std::__ndk1::char_traits<char>, std::__ndk1::allocator<char> >, std::__ndk1::shared_ptr<geode::Hook> >, std::__ndk1::__tree_node<std::__ndk1::__value_type<std::__ndk1::basic_string<char, std::__ndk1::char_traits<char>, std::__ndk1::allocator<char> >, std::__ndk1::shared_ptr<geode::Hook> >, void*>*, long>)
PUBLIC dd7c 0 std::__ndk1::__tree_remove[abi:ne180000]<std::__ndk1::__tree_node_base<void*>*>(std::__ndk1::__tree_node_base<void*>*, std::__ndk1::__tree_node_base<void*>*)
PUBLIC e144 0 std::__ndk1::__tree<std::__ndk1::__value_type<std::__ndk1::basic_string<char, std::__ndk1::char_traits<char>, std::__ndk1::allocator<char> >, std::__ndk1::shared_ptr<geode::Hook> >, std::__ndk1::__map_value_compare<std::__ndk1::basic_string<char, std::__ndk1::char_traits<char>, std::__ndk1::allocator<char> >, std::__ndk1::__value_type<std::__ndk1::basic_string<char, std::__ndk1::char_traits<char>, std::__ndk1::allocator<char> >, std::__ndk1::shared_ptr<geode::Hook> >, std::__ndk1::less<std::__ndk1::basic_string<char, std::__ndk1::char_traits<char>, std::__ndk1::allocator<char> > >, true>, std::__ndk1::allocator<std::__ndk1::__value_type<std::__ndk1::basic_string<char, std::__ndk1::char_traits<char>, std::__ndk1::allocator<char> >, std::__ndk1::shared_ptr<geode::Hook> > > >::destroy(std::__ndk1::__tree_node<std::__ndk1::__value_type<std::__ndk1::basic_string<char, std::__ndk1::char_traits<char>, std::__ndk1::allocator<char> >, std::__ndk1::shared_ptr<geode::Hook> >, void*>*)
PUBLIC e1d0 0 geode::modifier::AsStaticFunction_exitLayer<PLGJDropDownLayer, void (PLGJDropDownLayer::*)(cocos2d::CCObject*)>::Impl<void (PLGJDropDownLayer::*)(cocos2d::CCObject*)>::function(PLGJDropDownLayer*, cocos2d::CCObject*)
PUBLIC e204 0 geode::addresser::Addresser::addressOfVirtual<void, GJDropDownLayer, cocos2d::CCObject*>(void (GJDropDownLayer::*)(cocos2d::CCObject*))
PUBLIC e2ac 0 GJDropDownLayer::GJDropDownLayer(geode::ZeroConstructorType)
PUBLIC e334 0 std::__ndk1::shared_ptr<tulip::hook::CallingConvention>::~shared_ptr[abi:ne180000]()
PUBLIC e384 0 tulip::hook::HandlerMetadata::~HandlerMetadata()
PUBLIC e3e8 0 std::__ndk1::__tree<std::__ndk1::__value_type<std::__ndk1::basic_string<char, std::__ndk1::char_traits<char>, std::__ndk1::allocator<char> >, std::__ndk1::shared_ptr<geode::Hook> >, std::__ndk1::__map_value_compare<std::__ndk1::basic_string<char, std::__ndk1::char_traits<char>, std::__ndk1::allocator<char> >, std::__ndk1::__value_type<std::__ndk1::basic_string<char, std::__ndk1::char_traits<char>, std::__ndk1::allocator<char> >, std::__ndk1::shared_ptr<geode::Hook> >, std::__ndk1::less<std::__ndk1::basic_string<char, std::__ndk1::char_traits<char>, std::__ndk1::allocator<char> > >, true>, std::__ndk1::allocator<std::__ndk1::__value_type<std::__ndk1::basic_string<char, std::__ndk1::char_traits<char>, std::__ndk1::allocator<char> >, std::__ndk1::shared_ptr<geode::Hook> > > >::__emplace_unique_key_args<std::__ndk1::basic_string<char, std::__ndk1::char_traits<char>, std::__ndk1::allocator<char> >, std::__ndk1::piecewise_construct_t const&, std::__ndk1::tuple<std::__ndk1::basic_string<char, std::__ndk1::char_traits<char>, std::__ndk1::allocator<char> >&&>, std::__ndk1::tuple<> >(std::__ndk1::basic_string<char, std::__ndk1::char_traits<char>, std::__ndk1::allocator<char> > const&, std::__ndk1::piecewise_construct_t const&, std::__ndk1::tuple<std::__ndk1::basic_string<char, std::__ndk1::char_traits<char>, std::__ndk1::allocator<char> >&&>, std::__ndk1::tuple<>)
PUBLIC e560 0 std::__ndk1::__tree_balance_after_insert[abi:ne180000]<std::__ndk1::__tree_node_base<void*>*>(std::__ndk1::__tree_node_base<void*>*, std::__ndk1::__tree_node_base<void*>*)
PUBLIC e710 0 geode::modifier::ModifyDerive<PLEndLevelLayer, EndLevelLayer>::apply()
PUBLIC ea48 0 geode::modifier::ModifyBase<geode::modifier::ModifyDerive<PLEndLevelLayer, EndLevelLayer> >::apply()
PUBLIC ea4c 0 geode::modifier::AsStaticFunction_customSetup<PLEndLevelLayer, void (PLEndLevelLayer::*)()>::Impl<void (PLEndLevelLayer::*)()>::function(PLEndLevelLayer*)
PUBLIC ed6c 0 geode::addresser::Addresser::addressOfVirtual<void, EndLevelLayer, >(void (EndLevelLayer::*)())
PUBLIC ee14 0 EndLevelLayer::EndLevelLayer(geode::ZeroConstructorType)
PUBLIC eea4 0 geode::modifier::FieldIntermediate<PLEndLevelLayer, EndLevelLayer>::self()
PUBLIC f048 0 geode::modifier::FieldContainer::getField(unsigned long)
PUBLIC f300 0 geode::modifier::FieldContainer::setField(unsigned long, unsigned long, std::__ndk1::function<void (void*)>)
PUBLIC f414 0 geode::modifier::FieldIntermediate<PLEndLevelLayer, EndLevelLayer>::fieldDestructor(void*)
PUBLIC f460 0 std::__ndk1::vector<void*, std::__ndk1::allocator<void*> >::__throw_length_error[abi:ne180000]() const
PUBLIC f474 0 std::__ndk1::vector<std::__ndk1::function<void (void*)>, std::__ndk1::allocator<std::__ndk1::function<void (void*)> > >::__push_back_slow_path<std::__ndk1::function<void (void*)> >(std::__ndk1::function<void (void*)>&&)
PUBLIC f6a0 0 std::__ndk1::vector<std::__ndk1::function<void (void*)>, std::__ndk1::allocator<std::__ndk1::function<void (void*)> > >::__throw_length_error[abi:ne180000]() const
PUBLIC f6b4 0 std::__ndk1::vector<void*, std::__ndk1::allocator<void*> >::__throw_out_of_range[abi:ne180000]() const
PUBLIC f6c8 0 std::__ndk1::__throw_out_of_range[abi:ne180000](char const*)
PUBLIC f718 0 std::out_of_range::out_of_range[abi:ne180000](char const*)
PUBLIC f748 0 std::__ndk1::vector<std::__ndk1::function<void (void*)>, std::__ndk1::allocator<std::__ndk1::function<void (void*)> > >::__throw_out_of_range[abi:ne180000]() const
PUBLIC f75c 0 std::__ndk1::__function::__base<void (void*)>::~__base()
PUBLIC f760 0 std::__ndk1::__function::__func<void (*)(void*), std::__ndk1::allocator<void (*)(void*)>, void (void*)>::~__func()
PUBLIC f764 0 std::__ndk1::__function::__func<void (*)(void*), std::__ndk1::allocator<void (*)(void*)>, void (void*)>::__clone() const
PUBLIC f79c 0 std::__ndk1::__function::__func<void (*)(void*), std::__ndk1::allocator<void (*)(void*)>, void (void*)>::__clone(std::__ndk1::__function::__base<void (void*)>*) const
PUBLIC f7b4 0 std::__ndk1::__function::__func<void (*)(void*), std::__ndk1::allocator<void (*)(void*)>, void (void*)>::destroy()
PUBLIC f7b8 0 std::__ndk1::__function::__func<void (*)(void*), std::__ndk1::allocator<void (*)(void*)>, void (void*)>::destroy_deallocate()
PUBLIC f7bc 0 std::__ndk1::__function::__func<void (*)(void*), std::__ndk1::allocator<void (*)(void*)>, void (void*)>::operator()(void*&&)
PUBLIC f7cc 0 std::__ndk1::__function::__func<void (*)(void*), std::__ndk1::allocator<void (*)(void*)>, void (void*)>::target(std::type_info const&) const
PUBLIC f7e8 0 std::__ndk1::__function::__func<void (*)(void*), std::__ndk1::allocator<void (*)(void*)>, void (void*)>::target_type() const
PUBLIC f7f4 0 std::__ndk1::__function::__base<void (GJGameLevel*, bool)>::~__base()
PUBLIC f7f8 0 std::__ndk1::__function::__func<PLEndLevelLayer::customSetup()::{lambda(GJGameLevel*, bool)#1}, std::__ndk1::allocator<PLEndLevelLayer::customSetup()::{lambda(GJGameLevel*, bool)#1}>, void (GJGameLevel*, bool)>::~__func()
PUBLIC f7fc 0 std::__ndk1::__function::__func<PLEndLevelLayer::customSetup()::{lambda(GJGameLevel*, bool)#1}, std::__ndk1::allocator<PLEndLevelLayer::customSetup()::{lambda(GJGameLevel*, bool)#1}>, void (GJGameLevel*, bool)>::__clone() const
PUBLIC f830 0 std::__ndk1::__function::__func<PLEndLevelLayer::customSetup()::{lambda(GJGameLevel*, bool)#1}, std::__ndk1::allocator<PLEndLevelLayer::customSetup()::{lambda(GJGameLevel*, bool)#1}>, void (GJGameLevel*, bool)>::__clone(std::__ndk1::__function::__base<void (GJGameLevel*, bool)>*) const
PUBLIC f844 0 std::__ndk1::__function::__func<PLEndLevelLayer::customSetup()::{lambda(GJGameLevel*, bool)#1}, std::__ndk1::allocator<PLEndLevelLayer::customSetup()::{lambda(GJGameLevel*, bool)#1}>, void (GJGameLevel*, bool)>::destroy()
PUBLIC f848 0 std::__ndk1::__function::__func<PLEndLevelLayer::customSetup()::{lambda(GJGameLevel*, bool)#1}, std::__ndk1::allocator<PLEndLevelLayer::customSetup()::{lambda(GJGameLevel*, bool)#1}>, void (GJGameLevel*, bool)>::destroy_deallocate()
PUBLIC f84c 0 std::__ndk1::__function::__func<PLEndLevelLayer::customSetup()::{lambda(GJGameLevel*, bool)#1}, std::__ndk1::allocator<PLEndLevelLayer::customSetup()::{lambda(GJGameLevel*, bool)#1}>, void (GJGameLevel*, bool)>::operator()(GJGameLevel*&&, bool&&)
PUBLIC f8f4 0 std::__ndk1::__function::__func<PLEndLevelLayer::customSetup()::{lambda(GJGameLevel*, bool)#1}, std::__ndk1::allocator<PLEndLevelLayer::customSetup()::{lambda(GJGameLevel*, bool)#1}>, void (GJGameLevel*, bool)>::target(std::type_info const&) const
PUBLIC f910 0 std::__ndk1::__function::__func<PLEndLevelLayer::customSetup()::{lambda(GJGameLevel*, bool)#1}, std::__ndk1::allocator<PLEndLevelLayer::customSetup()::{lambda(GJGameLevel*, bool)#1}>, void (GJGameLevel*, bool)>::target_type() const
PUBLIC f91c 0 geode::Mod::getSettingValue<bool>(std::__ndk1::basic_string_view<char, std::__ndk1::char_traits<char> >) const
PUBLIC fa50 0 geode::cast::traverseTypeinfoFor(void*, geode::cast::ClassTypeinfoType const*, char const*)
PUBLIC fb54 0 PLEndLevelLayer::nextLevel(cocos2d::CCObject*)
PUBLIC fbb0 0 __cxx_global_var_init
PUBLIC 10030 0 geode::modifier::ModifyBase<geode::modifier::ModifyDerive<PLLevelCell, LevelCell> >::~ModifyBase()
PUBLIC 1004c 0 geode::modifier::ModifyDerive<PLLevelCell, LevelCell>::apply()
PUBLIC 103b0 0 geode::modifier::ModifyBase<geode::modifier::ModifyDerive<PLLevelCell, LevelCell> >::apply()
PUBLIC 103b4 0 geode::modifier::AsStaticFunction_onClick<PLLevelCell, void (PLLevelCell::*)(cocos2d::CCObject*)>::Impl<void (PLLevelCell::*)(cocos2d::CCObject*)>::function(PLLevelCell*, cocos2d::CCObject*)
PUBLIC 1059c 0 std::__ndk1::vector<int, std::__ndk1::allocator<int> >::__throw_length_error[abi:ne180000]() const
PUBLIC 105b0 0 __cxx_global_var_init
PUBLIC 10a30 0 geode::modifier::ModifyBase<geode::modifier::ModifyDerive<PLPauseLayer, PauseLayer> >::~ModifyBase()
PUBLIC 10a4c 0 geode::modifier::ModifyDerive<PLPauseLayer, PauseLayer>::apply()
PUBLIC 10d7c 0 geode::modifier::ModifyBase<geode::modifier::ModifyDerive<PLPauseLayer, PauseLayer> >::apply()
PUBLIC 10d80 0 geode::modifier::AsStaticFunction_customSetup<PLPauseLayer, void (PLPauseLayer::*)()>::Impl<void (PLPauseLayer::*)()>::function(PLPauseLayer*)
PUBLIC 110a0 0 geode::addresser::Addresser::addressOfVirtual<void, PauseLayer, >(void (PauseLayer::*)())
PUBLIC 11148 0 PauseLayer::PauseLayer(geode::ZeroConstructorType)
PUBLIC 111d4 0 geode::modifier::FieldIntermediate<PLPauseLayer, PauseLayer>::self()
PUBLIC 11378 0 geode::modifier::FieldIntermediate<PLPauseLayer, PauseLayer>::fieldDestructor(void*)
PUBLIC 113c4 0 std::__ndk1::__function::__func<PLPauseLayer::customSetup()::{lambda(GJGameLevel*, bool)#1}, std::__ndk1::allocator<PLPauseLayer::customSetup()::{lambda(GJGameLevel*, bool)#1}>, void (GJGameLevel*, bool)>::~__func()
PUBLIC 113c8 0 std::__ndk1::__function::__func<PLPauseLayer::customSetup()::{lambda(GJGameLevel*, bool)#1}, std::__ndk1::allocator<PLPauseLayer::customSetup()::{lambda(GJGameLevel*, bool)#1}>, void (GJGameLevel*, bool)>::__clone() const
PUBLIC 113fc 0 std::__ndk1::__function::__func<PLPauseLayer::customSetup()::{lambda(GJGameLevel*, bool)#1}, std::__ndk1::allocator<PLPauseLayer::customSetup()::{lambda(GJGameLevel*, bool)#1}>, void (GJGameLevel*, bool)>::__clone(std::__ndk1::__function::__base<void (GJGameLevel*, bool)>*) const
PUBLIC 11410 0 std::__ndk1::__function::__func<PLPauseLayer::customSetup()::{lambda(GJGameLevel*, bool)#1}, std::__ndk1::allocator<PLPauseLayer::customSetup()::{lambda(GJGameLevel*, bool)#1}>, void (GJGameLevel*, bool)>::destroy()
PUBLIC 11414 0 std::__ndk1::__function::__func<PLPauseLayer::customSetup()::{lambda(GJGameLevel*, bool)#1}, std::__ndk1::allocator<PLPauseLayer::customSetup()::{lambda(GJGameLevel*, bool)#1}>, void (GJGameLevel*, bool)>::destroy_deallocate()
PUBLIC 11418 0 std::__ndk1::__function::__func<PLPauseLayer::customSetup()::{lambda(GJGameLevel*, bool)#1}, std::__ndk1::allocator<PLPauseLayer::customSetup()::{lambda(GJGameLevel*, bool)#1}>, void (GJGameLevel*, bool)>::operator()(GJGameLevel*&&, bool&&)
PUBLIC 114c0 0 std::__ndk1::__function::__func<PLPauseLayer::customSetup()::{lambda(GJGameLevel*, bool)#1}, std::__ndk1::allocator<PLPauseLayer::customSetup()::{lambda(GJGameLevel*, bool)#1}>, void (GJGameLevel*, bool)>::target(std::type_info const&) const
PUBLIC 114dc 0 std::__ndk1::__function::__func<PLPauseLayer::customSetup()::{lambda(GJGameLevel*, bool)#1}, std::__ndk1::allocator<PLPauseLayer::customSetup()::{lambda(GJGameLevel*, bool)#1}>, void (GJGameLevel*, bool)>::target_type() const
PUBLIC 114e8 0 PLPauseLayer::nextLevel(cocos2d::CCObject*)
PUBLIC 11544 0 std::__ndk1::vector<int, std::__ndk1::allocator<int> >::~vector[abi:ne180000]()
PUBLIC 1155c 0 std::__ndk1::vector<int, std::__ndk1::allocator<int> >::__assign_with_size[abi:ne180000]<int*, std::__ndk1::vector<int, std::__ndk1::allocator<int> >::__assign_with_size[abi:ne180000]>(int*, std::__ndk1::vector<int, std::__ndk1::allocator<int> >::__assign_with_size[abi:ne180000], long)
PUBLIC 1168c 0 _GLOBAL__sub_I_LastList.cpp
PUBLIC m 116a8 0 geodeImplicitEntry
PUBLIC 116f0 0 <.plt ELF section in sorkopiko.playlists.android64.so>
STACK CFI INIT 7780 10 .cfa: sp 0 +
STACK CFI INIT 7790 8 .cfa: sp 0 +
STACK CFI INIT 7798 8 .cfa: sp 0 +
STACK CFI INIT 77a0 14 .cfa: sp 0 +
STACK CFI INIT 77b4 1c .cfa: sp 0 +
STACK CFI INIT 77d0 10 .cfa: sp 0 +
STACK CFI INIT 77e0 134 .cfa: sp 0 +
STACK CFI INIT 7914 84 .cfa: sp 0 +
STACK CFI INIT 7998 f4 .cfa: sp 0 +
STACK CFI INIT 7a8c a8 .cfa: sp 0 +
STACK CFI INIT 7b34 7c .cfa: sp 0 +
STACK CFI INIT 7bb0 14 .cfa: sp 0 +
STACK CFI INIT 7bc4 40 .cfa: sp 0 +
STACK CFI INIT 7c04 28 .cfa: sp 0 +
STACK CFI INIT 7c2c 190 .cfa: sp 0 +
STACK CFI INIT 7dbc 2c8 .cfa: sp 0 +
STACK CFI INIT 8084 8 .cfa: sp 0 +
STACK CFI INIT 808c 8 .cfa: sp 0 +
STACK CFI INIT 8094 44 .cfa: sp 0 +
STACK CFI INIT 80d8 e8 .cfa: sp 0 +
STACK CFI INIT 81c0 e8 .cfa: sp 0 +
STACK CFI INIT 82a8 14 .cfa: sp 0 +
STACK CFI INIT 82bc 10 .cfa: sp 0 +
STACK CFI INIT 82cc 10 .cfa: sp 0 +
STACK CFI INIT 82dc f0 .cfa: sp 0 +
STACK CFI INIT 83cc 44 .cfa: sp 0 +
STACK CFI INIT 8410 c .cfa: sp 0 +
STACK CFI INIT 841c c .cfa: sp 0 +
STACK CFI INIT 8428 2c .cfa: sp 0 +
STACK CFI INIT 8454 280 .cfa: sp 0 +
STACK CFI INIT 86d4 c .cfa: sp 0 +
STACK CFI INIT 86e0 120 .cfa: sp 0 +
STACK CFI INIT 8800 488 .cfa: sp 0 +
STACK CFI INIT 8c88 c48 .cfa: sp 0 +
STACK CFI INIT 98d0 134 .cfa: sp 0 +
STACK CFI INIT 9a04 210 .cfa: sp 0 +
STACK CFI INIT 9c14 38c .cfa: sp 0 +
STACK CFI INIT 9fa0 1c8 .cfa: sp 0 +
STACK CFI INIT a168 9bc .cfa: sp 0 +
STACK CFI INIT ab24 2d4 .cfa: sp 0 +
STACK CFI INIT adf8 134 .cfa: sp 0 +
STACK CFI INIT af2c 120 .cfa: sp 0 +
STACK CFI INIT b04c 1c8 .cfa: sp 0 +
STACK CFI INIT b214 168 .cfa: sp 0 +
STACK CFI INIT b37c fc .cfa: sp 0 +
STACK CFI INIT b478 30 .cfa: sp 0 +
STACK CFI INIT b5d4 7c .cfa: sp 0 +
STACK CFI b5d8 .cfa: sp 64 +
STACK CFI b5e4 .cfa: x29 32 + x19: .cfa -16 + ^ .ra: .cfa -24 + ^ x29: .cfa -32 + ^
STACK CFI b628 .cfa: sp 64 +
STACK CFI b634 .cfa: sp 0 +
STACK CFI b638 .cfa: x29 32 +
STACK CFI INIT b650 78 .cfa: sp 0 +
STACK CFI b654 .cfa: sp 64 +
STACK CFI b660 .cfa: x29 32 + x19: .cfa -16 + ^ .ra: .cfa -24 + ^ x29: .cfa -32 + ^
STACK CFI b6a0 .cfa: sp 64 +
STACK CFI b6ac .cfa: sp 0 +
STACK CFI b6b0 .cfa: x29 32 +
STACK CFI INIT b860 10 .cfa: sp 0 +
STACK CFI b864 .cfa: sp 16 +
STACK CFI b868 .cfa: x29 16 + .ra: .cfa -8 + ^ x29: .cfa -16 + ^
STACK CFI INIT b870 34 .cfa: sp 0 +
STACK CFI b874 .cfa: sp 16 +
STACK CFI b878 .cfa: x29 16 + .ra: .cfa -8 + ^ x29: .cfa -16 + ^
STACK CFI INIT b8a4 24 .cfa: sp 0 +
STACK CFI b8a8 .cfa: sp 32 +
STACK CFI b8b0 .cfa: x29 32 + x19: .cfa -16 + ^ .ra: .cfa -24 + ^ x29: .cfa -32 + ^
STACK CFI b8bc .cfa: sp 32 +
STACK CFI b8c4 .cfa: sp 0 +
STACK CFI INIT b8d0 30 .cfa: sp 0 +
STACK CFI INIT b900 98 .cfa: sp 0 +
STACK CFI INIT b998 59c .cfa: sp 0 +
STACK CFI INIT bf34 8c .cfa: sp 0 +
STACK CFI INIT bfc0 30 .cfa: sp 0 +
STACK CFI INIT c470 1c .cfa: sp 0 +
STACK CFI INIT c90c 1c .cfa: sp 0 +
STACK CFI INIT cca8 50 .cfa: sp 0 +
STACK CFI ccac .cfa: sp 32 +
STACK CFI ccb4 .cfa: x29 32 + x19: .cfa -16 + ^ .ra: .cfa -24 + ^ x29: .cfa -32 + ^
STACK CFI cccc .cfa: sp 32 +
STACK CFI ccd4 .cfa: sp 0 +
STACK CFI ccd8 .cfa: x29 32 +
STACK CFI ccec .cfa: sp 32 +
STACK CFI ccf4 .cfa: sp 0 +
STACK CFI INIT cd6c 7c .cfa: sp 0 +
STACK CFI cd70 .cfa: sp 48 +
STACK CFI cd7c .cfa: x29 48 + x19: .cfa -8 + ^ x20: .cfa -16 + ^ x21: .cfa -32 + ^ .ra: .cfa -40 + ^ x29: .cfa -48 + ^
STACK CFI cdc8 .cfa: sp 48 +
STACK CFI cdd4 .cfa: sp 0 +
STACK CFI cdd8 .cfa: sp 48 +
STACK CFI cde4 .cfa: sp 0 +
STACK CFI INIT cde8 4 .cfa: sp 0 +
STACK CFI INIT cf40 34 .cfa: sp 0 +
STACK CFI cf44 .cfa: sp 16 +
STACK CFI cf48 .cfa: x29 16 + .ra: .cfa -8 + ^ x29: .cfa -16 + ^
STACK CFI INIT d0a0 80 .cfa: sp 0 +
STACK CFI d0a4 .cfa: sp 48 +
STACK CFI d0b0 .cfa: x29 48 + x19: .cfa -8 + ^ x20: .cfa -16 + ^ x21: .cfa -32 + ^ .ra: .cfa -40 + ^ x29: .cfa -48 + ^
STACK CFI d110 .cfa: sp 48 +
STACK CFI d11c .cfa: sp 0 +
STACK CFI INIT d120 24 .cfa: sp 0 +
STACK CFI d124 .cfa: sp 32 +
STACK CFI d12c .cfa: x29 32 + x19: .cfa -16 + ^ .ra: .cfa -24 + ^ x29: .cfa -32 + ^
STACK CFI d138 .cfa: sp 32 +
STACK CFI d140 .cfa: sp 0 +
STACK CFI INIT d4c4 14 .cfa: sp 0 +
STACK CFI d4c8 .cfa: sp 16 +
STACK CFI d4cc .cfa: x29 16 + .ra: .cfa -8 + ^ x29: .cfa -16 + ^
STACK CFI INIT d528 30 .cfa: sp 0 +
STACK CFI d52c .cfa: sp 32 +
STACK CFI d534 .cfa: x29 32 + x19: .cfa -16 + ^ .ra: .cfa -24 + ^ x29: .cfa -32 + ^
STACK CFI d54c .cfa: sp 32 +
STACK CFI d554 .cfa: sp 0 +
STACK CFI INIT d558 34 .cfa: sp 0 +
STACK CFI d55c .cfa: sp 32 +
STACK CFI d564 .cfa: x29 32 + x19: .cfa -16 + ^ .ra: .cfa -24 + ^ x29: .cfa -32 + ^
STACK CFI INIT d704 148 .cfa: sp 0 +
STACK CFI d708 .cfa: sp 48 +
STACK CFI d714 .cfa: x29 48 + x19: .cfa -8 + ^ x20: .cfa -16 + ^ x21: .cfa -32 + ^ .ra: .cfa -40 + ^ x29: .cfa -48 + ^
STACK CFI d83c .cfa: sp 48 +
STACK CFI d848 .cfa: sp 0 +
STACK CFI INIT da74 80 .cfa: sp 0 +
STACK CFI da78 .cfa: sp 48 +
STACK CFI da84 .cfa: x29 48 + x19: .cfa -8 + ^ x20: .cfa -16 + ^ x21: .cfa -24 + ^ x22: .cfa -32 + ^ .ra: .cfa -40 + ^ x29: .cfa -48 + ^
STACK CFI da9c .cfa: sp 48 +
STACK CFI daa8 .cfa: sp 0 +
STACK CFI daac .cfa: x29 48 +
STACK CFI dadc .cfa: sp 48 +
STACK CFI dae8 .cfa: sp 0 +
STACK CFI daec .cfa: x29 48 +
STACK CFI INIT daf4 68 .cfa: sp 0 +
STACK CFI daf8 .cfa: sp 32 +
STACK CFI db00 .cfa: x29 32 + x19: .cfa -8 + ^ x20: .cfa -16 + ^ .ra: .cfa -24 + ^ x29: .cfa -32 + ^
STACK CFI db18 .cfa: sp 32 +
STACK CFI db20 .cfa: sp 0 +
STACK CFI db24 .cfa: x29 32 +
STACK CFI db50 .cfa: sp 32 +
STACK CFI db58 .cfa: sp 0 +
STACK CFI INIT db5c 14 .cfa: sp 0 +
STACK CFI db60 .cfa: sp 16 +
STACK CFI db64 .cfa: x29 16 + .ra: .cfa -8 + ^ x29: .cfa -16 + ^
STACK CFI INIT db70 4 .cfa: sp 0 +
STACK CFI INIT db74 14 .cfa: sp 0 +
STACK CFI INIT db88 120 .cfa: sp 0 +
STACK CFI db8c .cfa: sp 64 +
STACK CFI db9c .cfa: x29 64 + x19: .cfa -8 + ^ x20: .cfa -16 + ^ x21: .cfa -24 + ^ x22: .cfa -32 + ^ x23: .cfa -40 + ^ x24: .cfa -48 + ^ .ra: .cfa -56 + ^ x29: .cfa -64 + ^
STACK CFI dc94 .cfa: sp 64 +
STACK CFI dca4 .cfa: sp 0 +
STACK CFI INIT dca8 d4 .cfa: sp 0 +
STACK CFI dcac .cfa: sp 48 +
STACK CFI dcb8 .cfa: x29 48 + x19: .cfa -8 + ^ x20: .cfa -16 + ^ x21: .cfa -32 + ^ .ra: .cfa -40 + ^ x29: .cfa -48 + ^
STACK CFI dd48 .cfa: sp 48 +
STACK CFI dd54 .cfa: sp 0 +
STACK CFI dd58 .cfa: x29 48 +
STACK CFI INIT dd7c 3c8 .cfa: sp 0 +
STACK CFI INIT e144 8c .cfa: sp 0 +
STACK CFI e14c .cfa: sp 32 +
STACK CFI e154 .cfa: x29 32 + x19: .cfa -8 + ^ x20: .cfa -16 + ^ .ra: .cfa -24 + ^ x29: .cfa -32 + ^
STACK CFI e19c .cfa: sp 32 +
STACK CFI e1a4 .cfa: sp 0 +
STACK CFI e1ac .cfa: x29 32 +
STACK CFI INIT e1d0 34 .cfa: sp 0 +
STACK CFI e1d4 .cfa: sp 32 +
STACK CFI e1dc .cfa: x29 32 + x19: .cfa -8 + ^ x20: .cfa -16 + ^ .ra: .cfa -24 + ^ x29: .cfa -32 + ^
STACK CFI e1f8 .cfa: sp 32 +
STACK CFI e200 .cfa: sp 0 +
STACK CFI INIT e2ac 88 .cfa: sp 0 +
STACK CFI e2b0 .cfa: sp 32 +
STACK CFI e2b8 .cfa: x29 32 + x19: .cfa -16 + ^ .ra: .cfa -24 + ^ x29: .cfa -32 + ^
STACK CFI e328 .cfa: sp 32 +
STACK CFI e330 .cfa: sp 0 +
STACK CFI INIT e334 50 .cfa: sp 0 +
STACK CFI e338 .cfa: sp 32 +
STACK CFI e340 .cfa: x29 32 + x19: .cfa -16 + ^ .ra: .cfa -24 + ^ x29: .cfa -32 + ^
STACK CFI e358 .cfa: sp 32 +
STACK CFI e360 .cfa: sp 0 +
STACK CFI e364 .cfa: x29 32 +
STACK CFI e378 .cfa: sp 32 +
STACK CFI e380 .cfa: sp 0 +
STACK CFI INIT e384 64 .cfa: sp 0 +
STACK CFI e388 .cfa: sp 32 +
STACK CFI e390 .cfa: x29 32 + x19: .cfa -16 + ^ .ra: .cfa -24 + ^ x29: .cfa -32 + ^
STACK CFI e3bc .cfa: sp 32 +
STACK CFI e3c4 .cfa: sp 0 +
STACK CFI e3c8 .cfa: x29 32 +
STACK CFI e3dc .cfa: sp 32 +
STACK CFI e3e4 .cfa: sp 0 +
STACK CFI INIT e3e8 178 .cfa: sp 0 +
STACK CFI e3ec .cfa: sp 80 +
STACK CFI e400 .cfa: x29 80 + x19: .cfa -8 + ^ x20: .cfa -16 + ^ x21: .cfa -24 + ^ x22: .cfa -32 + ^ x23: .cfa -40 + ^ x24: .cfa -48 + ^ x25: .cfa -56 + ^ x26: .cfa -64 + ^ .ra: .cfa -72 + ^ x29: .cfa -80 + ^
STACK CFI e548 .cfa: sp 80 +
STACK CFI e55c .cfa: sp 0 +
STACK CFI INIT e560 1b0 .cfa: sp 0 +
STACK CFI INIT ea48 4 .cfa: sp 0 +
STACK CFI INIT ee14 90 .cfa: sp 0 +
STACK CFI ee18 .cfa: sp 32 +
STACK CFI ee20 .cfa: x29 32 + x19: .cfa -16 + ^ .ra: .cfa -24 + ^ x29: .cfa -32 + ^
STACK CFI ee98 .cfa: sp 32 +
STACK CFI eea0 .cfa: sp 0 +
STACK CFI INIT f414 4c .cfa: sp 0 +
STACK CFI INIT f460 14 .cfa: sp 0 +
STACK CFI f464 .cfa: sp 16 +
STACK CFI f468 .cfa: x29 16 + .ra: .cfa -8 + ^ x29: .cfa -16 + ^
STACK CFI INIT f6a0 14 .cfa: sp 0 +
STACK CFI f6a4 .cfa: sp 16 +
STACK CFI f6a8 .cfa: x29 16 + .ra: .cfa -8 + ^ x29: .cfa -16 + ^
STACK CFI INIT f6b4 14 .cfa: sp 0 +
STACK CFI f6b8 .cfa: sp 16 +
STACK CFI f6bc .cfa: x29 16 + .ra: .cfa -8 + ^ x29: .cfa -16 + ^
STACK CFI INIT f718 30 .cfa: sp 0 +
STACK CFI f71c .cfa: sp 32 +
STACK CFI f724 .cfa: x29 32 + x19: .cfa -16 + ^ .ra: .cfa -24 + ^ x29: .cfa -32 + ^
STACK CFI f73c .cfa: sp 32 +
STACK CFI f744 .cfa: sp 0 +
STACK CFI INIT f748 14 .cfa: sp 0 +
STACK CFI f74c .cfa: sp 16 +
STACK CFI f750 .cfa: x29 16 + .ra: .cfa -8 + ^ x29: .cfa -16 + ^
STACK CFI INIT f75c 4 .cfa: sp 0 +
STACK CFI INIT f760 4 .cfa: sp 0 +
STACK CFI INIT f764 38 .cfa: sp 0 +
STACK CFI f768 .cfa: sp 32 +
STACK CFI f770 .cfa: x29 32 + x19: .cfa -16 + ^ .ra: .cfa -24 + ^ x29: .cfa -32 + ^
STACK CFI f790 .cfa: sp 32 +
STACK CFI f798 .cfa: sp 0 +
STACK CFI INIT f79c 18 .cfa: sp 0 +
STACK CFI INIT f7b4 4 .cfa: sp 0 +
STACK CFI INIT f7b8 4 .cfa: sp 0 +
STACK CFI INIT f7bc 10 .cfa: sp 0 +
STACK CFI INIT f7cc 1c .cfa: sp 0 +
STACK CFI INIT f7e8 c .cfa: sp 0 +
STACK CFI INIT f7f4 4 .cfa: sp 0 +
STACK CFI INIT f7f8 4 .cfa: sp 0 +
STACK CFI INIT f7fc 34 .cfa: sp 0 +
STACK CFI f800 .cfa: sp 32 +
STACK CFI f808 .cfa: x29 32 + x19: .cfa -16 + ^ .ra: .cfa -24 + ^ x29: .cfa -32 + ^
STACK CFI f824 .cfa: sp 32 +
STACK CFI f82c .cfa: sp 0 +
STACK CFI INIT f830 14 .cfa: sp 0 +
STACK CFI INIT f844 4 .cfa: sp 0 +
STACK CFI INIT f848 4 .cfa: sp 0 +
STACK CFI INIT f84c a8 .cfa: sp 0 +
STACK CFI f858 .cfa: sp 32 +
STACK CFI f860 .cfa: x29 32 + x19: .cfa -8 + ^ x20: .cfa -16 + ^ .ra: .cfa -24 + ^ x29: .cfa -32 + ^
STACK CFI f894 .cfa: sp 0 + x19: x19 x20: x20 .ra: x30 x29: x29
STACK CFI f898 .cfa: x29 32 + x19: .cfa -8 + ^ x20: .cfa -16 + ^ .ra: .cfa -24 + ^ x29: .cfa -32 + ^
STACK CFI f8e8 .cfa: sp 32 +
STACK CFI f8f0 .cfa: sp 0 +
STACK CFI INIT f8f4 1c .cfa: sp 0 +
STACK CFI INIT f910 c .cfa: sp 0 +
STACK CFI INIT fa50 104 .cfa: sp 0 +
STACK CFI fa54 .cfa: sp 64 +
STACK CFI fa64 .cfa: x29 64 + x19: .cfa -8 + ^ x20: .cfa -16 + ^ x21: .cfa -24 + ^ x22: .cfa -32 + ^ x23: .cfa -48 + ^ .ra: .cfa -56 + ^ x29: .cfa -64 + ^
STACK CFI fac0 .cfa: sp 64 +
STACK CFI fad0 .cfa: sp 0 +
STACK CFI fad4 .cfa: x29 64 +
STACK CFI faf0 .cfa: sp 64 +
STACK CFI fb00 .cfa: sp 0 +
STACK CFI fb04 .cfa: x29 64 +
STACK CFI fb40 .cfa: sp 64 +
STACK CFI fb50 .cfa: sp 0 +
STACK CFI INIT fb54 5c .cfa: sp 0 +
STACK CFI fb58 .cfa: sp 32 +
STACK CFI fb60 .cfa: x29 32 + x19: .cfa -8 + ^ x20: .cfa -16 + ^ .ra: .cfa -24 + ^ x29: .cfa -32 + ^
STACK CFI fb98 .cfa: sp 32 +
STACK CFI fba0 .cfa: sp 0 +
STACK CFI fba4 .cfa: sp 32 +
STACK CFI fbac .cfa: sp 0 +
STACK CFI INIT 10030 1c .cfa: sp 0 +
STACK CFI INIT 103b0 4 .cfa: sp 0 +
STACK CFI INIT 1059c 14 .cfa: sp 0 +
STACK CFI 105a0 .cfa: sp 16 +
STACK CFI 105a4 .cfa: x29 16 + .ra: .cfa -8 + ^ x29: .cfa -16 + ^
STACK CFI INIT 10a30 1c .cfa: sp 0 +
STACK CFI INIT 10d7c 4 .cfa: sp 0 +
STACK CFI INIT 11148 8c .cfa: sp 0 +
STACK CFI 1114c .cfa: sp 32 +
STACK CFI 11154 .cfa: x29 32 + x19: .cfa -16 + ^ .ra: .cfa -24 + ^ x29: .cfa -32 + ^
STACK CFI 111c8 .cfa: sp 32 +
STACK CFI 111d0 .cfa: sp 0 +
STACK CFI INIT 11378 4c .cfa: sp 0 +
STACK CFI INIT 113c4 4 .cfa: sp 0 +
STACK CFI INIT 113c8 34 .cfa: sp 0 +
STACK CFI 113cc .cfa: sp 32 +
STACK CFI 113d4 .cfa: x29 32 + x19: .cfa -16 + ^ .ra: .cfa -24 + ^ x29: .cfa -32 + ^
STACK CFI 113f0 .cfa: sp 32 +
STACK CFI 113f8 .cfa: sp 0 +
STACK CFI INIT 113fc 14 .cfa: sp 0 +
STACK CFI INIT 11410 4 .cfa: sp 0 +
STACK CFI INIT 11414 4 .cfa: sp 0 +
STACK CFI INIT 11418 a8 .cfa: sp 0 +
STACK CFI 11424 .cfa: sp 32 +
STACK CFI 1142c .cfa: x29 32 + x19: .cfa -8 + ^ x20: .cfa -16 + ^ .ra: .cfa -24 + ^ x29: .cfa -32 + ^
STACK CFI 11460 .cfa: sp 0 + x19: x19 x20: x20 .ra: x30 x29: x29
STACK CFI 11464 .cfa: x29 32 + x19: .cfa -8 + ^ x20: .cfa -16 + ^ .ra: .cfa -24 + ^ x29: .cfa -32 + ^
STACK CFI 114b4 .cfa: sp 32 +
STACK CFI 114bc .cfa: sp 0 +
STACK CFI INIT 114c0 1c .cfa: sp 0 +
STACK CFI INIT 114dc c .cfa: sp 0 +
STACK CFI INIT 114e8 5c .cfa: sp 0 +
STACK CFI 114ec .cfa: sp 32 +
STACK CFI 114f4 .cfa: x29 32 + x19: .cfa -8 + ^ x20: .cfa -16 + ^ .ra: .cfa -24 + ^ x29: .cfa -32 + ^
STACK CFI 1152c .cfa: sp 32 +
STACK CFI 11534 .cfa: sp 0 +
STACK CFI 11538 .cfa: sp 32 +
STACK CFI 11540 .cfa: sp 0 +
STACK CFI INIT 11544 18 .cfa: sp 0 +
STACK CFI INIT 1155c 130 .cfa: sp 0 +
STACK CFI 11560 .cfa: sp 64 +
STACK CFI 11570 .cfa: x29 64 + x19: .cfa -8 + ^ x20: .cfa -16 + ^ x21: .cfa -24 + ^ x22: .cfa -32 + ^ x23: .cfa -48 + ^ .ra: .cfa -56 + ^ x29: .cfa -64 + ^
STACK CFI 11670 .cfa: sp 64 +
STACK CFI 11680 .cfa: sp 0 +
STACK CFI 11684 .cfa: x29 64 +
STACK CFI INIT 1168c 1c .cfa: sp 0 +
STACK CFI INIT 116a8 3c .cfa: sp 0 +
STACK CFI 116ac .cfa: sp 32 +
STACK CFI 116b4 .cfa: x29 32 + x19: .cfa -16 + ^ .ra: .cfa -24 + ^ x29: .cfa -32 + ^
STACK CFI 116c0 .cfa: sp 32 +
STACK CFI 116c8 .cfa: sp 0 +
STACK CFI 116cc .cfa: x29 32 +
STACK CFI 116d8 .cfa: sp 32 +
STACK CFI 116e0 .cfa: sp 0 +
STACK CFI INIT b6c8 198 .cfa: sp 0 +
STACK CFI b6cc .cfa: sp 96 +
STACK CFI b6dc .cfa: x29 48 + x19: .cfa -8 + ^ x20: .cfa -16 + ^ x21: .cfa -32 + ^ .ra: .cfa -40 + ^ x29: .cfa -48 + ^
STACK CFI b7b8 .cfa: sp 96 +
STACK CFI b7c8 .cfa: sp 0 +
STACK CFI b7cc .cfa: x29 48 +
STACK CFI INIT bff0 480 .cfa: sp 0 +
STACK CFI bff4 .cfa: sp 224 +
STACK CFI c010 .cfa: x29 96 + x19: .cfa -8 + ^ x20: .cfa -16 + ^ x21: .cfa -24 + ^ x22: .cfa -32 + ^ x23: .cfa -40 + ^ x24: .cfa -48 + ^ x25: .cfa -56 + ^ x26: .cfa -64 + ^ x27: .cfa -80 + ^ .ra: .cfa -88 + ^ x29: .cfa -96 + ^
STACK CFI c27c .cfa: sp 224 +
STACK CFI c298 .cfa: sp 0 +
STACK CFI c29c .cfa: x29 96 +
STACK CFI c368 .cfa: sp 224 +
STACK CFI c384 .cfa: sp 0 +
STACK CFI c388 .cfa: x29 96 +
STACK CFI INIT c48c 480 .cfa: sp 0 +
STACK CFI c490 .cfa: sp 224 +
STACK CFI c4ac .cfa: x29 96 + x19: .cfa -8 + ^ x20: .cfa -16 + ^ x21: .cfa -24 + ^ x22: .cfa -32 + ^ x23: .cfa -40 + ^ x24: .cfa -48 + ^ x25: .cfa -56 + ^ x26: .cfa -64 + ^ x27: .cfa -80 + ^ .ra: .cfa -88 + ^ x29: .cfa -96 + ^
STACK CFI c718 .cfa: sp 224 +
STACK CFI c734 .cfa: sp 0 +
STACK CFI c738 .cfa: x29 96 +
STACK CFI c804 .cfa: sp 224 +
STACK CFI c820 .cfa: sp 0 +
STACK CFI c824 .cfa: x29 96 +
STACK CFI INIT c928 380 .cfa: sp 0 +
STACK CFI c92c .cfa: sp 256 +
STACK CFI c940 .cfa: x29 64 + x19: .cfa -8 + ^ x20: .cfa -16 + ^ x21: .cfa -24 + ^ x22: .cfa -32 + ^ x23: .cfa -48 + ^ .ra: .cfa -56 + ^ x29: .cfa -64 + ^
STACK CFI cb84 .cfa: sp 256 +
STACK CFI cb98 .cfa: sp 0 +
STACK CFI cb9c .cfa: x29 64 +
STACK CFI INIT ccf8 74 .cfa: sp 0 +
STACK CFI ccfc .cfa: sp 48 +
STACK CFI cd08 .cfa: x29 32 + x19: .cfa -8 + ^ x20: .cfa -16 + ^ .ra: .cfa -24 + ^ x29: .cfa -32 + ^
STACK CFI cd54 .cfa: sp 48 +
STACK CFI cd60 .cfa: sp 0 +
STACK CFI cd64 .cfa: x29 32 +
STACK CFI INIT cdec 154 .cfa: sp 0 +
STACK CFI cdf0 .cfa: sp 384 +
STACK CFI ce04 .cfa: x29 64 + x19: .cfa -8 + ^ x20: .cfa -16 + ^ x21: .cfa -24 + ^ x22: .cfa -32 + ^ x23: .cfa -40 + ^ x28: .cfa -48 + ^ .ra: .cfa -56 + ^ x29: .cfa -64 + ^
STACK CFI cee8 .cfa: sp 384 +
STACK CFI cefc .cfa: sp 0 +
STACK CFI cf00 .cfa: x29 64 +
STACK CFI INIT cf74 12c .cfa: sp 0 +
STACK CFI cf78 .cfa: sp 80 +
STACK CFI cf8c .cfa: x29 80 + x19: .cfa -8 + ^ x20: .cfa -16 + ^ x21: .cfa -24 + ^ x22: .cfa -32 + ^ x23: .cfa -40 + ^ x24: .cfa -48 + ^ x25: .cfa -56 + ^ x26: .cfa -64 + ^ .ra: .cfa -72 + ^ x29: .cfa -80 + ^
STACK CFI d054 .cfa: sp 80 +
STACK CFI d068 .cfa: sp 0 +
STACK CFI d06c .cfa: x29 80 +
STACK CFI INIT d144 1a4 .cfa: sp 0 +
STACK CFI d148 .cfa: sp 112 +
STACK CFI d160 .cfa: x29 80 + x19: .cfa -8 + ^ x20: .cfa -16 + ^ x21: .cfa -24 + ^ x22: .cfa -32 + ^ x23: .cfa -40 + ^ x24: .cfa -48 + ^ x25: .cfa -56 + ^ x26: .cfa -64 + ^ .ra: .cfa -72 + ^ x29: .cfa -80 + ^
STACK CFI d250 .cfa: sp 112 +
STACK CFI d268 .cfa: sp 0 +
STACK CFI d26c .cfa: x29 80 +
STACK CFI INIT d2e8 1dc .cfa: sp 0 +
STACK CFI d2ec .cfa: sp 128 +
STACK CFI d308 .cfa: x29 96 + x19: .cfa -8 + ^ x20: .cfa -16 + ^ x21: .cfa -24 + ^ x22: .cfa -32 + ^ x23: .cfa -40 + ^ x24: .cfa -48 + ^ x25: .cfa -56 + ^ x26: .cfa -64 + ^ x27: .cfa -80 + ^ .ra: .cfa -88 + ^ x29: .cfa -96 + ^
STACK CFI d474 .cfa: sp 128 +
STACK CFI d490 .cfa: sp 0 +
STACK CFI d494 .cfa: x29 96 +
STACK CFI INIT d4d8 50 .cfa: sp 0 +
STACK CFI d4dc .cfa: sp 32 +
STACK CFI d4e4 .cfa: x29 32 + x19: .cfa -8 + ^ x20: .cfa -16 + ^ .ra: .cfa -24 + ^ x29: .cfa -32 + ^
STACK CFI INIT d58c 178 .cfa: sp 0 +
STACK CFI d590 .cfa: sp 80 +
STACK CFI d5a4 .cfa: x29 80 + x19: .cfa -8 + ^ x20: .cfa -16 + ^ x21: .cfa -24 + ^ x22: .cfa -32 + ^ x23: .cfa -40 + ^ x24: .cfa -48 + ^ x25: .cfa -64 + ^ .ra: .cfa -72 + ^ x29: .cfa -80 + ^
STACK CFI d6d0 .cfa: sp 80 +
STACK CFI d6e4 .cfa: sp 0 +
STACK CFI d6e8 .cfa: x29 80 +
STACK CFI INIT d84c 228 .cfa: sp 0 +
STACK CFI d850 .cfa: sp 128 +
STACK CFI d868 .cfa: x29 80 + x19: .cfa -8 + ^ x20: .cfa -16 + ^ x21: .cfa -24 + ^ x22: .cfa -32 + ^ x23: .cfa -40 + ^ x24: .cfa -48 + ^ x25: .cfa -64 + ^ .ra: .cfa -72 + ^ x29: .cfa -80 + ^
STACK CFI da04 .cfa: sp 128 +
STACK CFI da1c .cfa: sp 0 +
STACK CFI da20 .cfa: x29 80 +
STACK CFI INIT e204 a8 .cfa: sp 0 +
STACK CFI e208 .cfa: sp 32 +
STACK CFI e210 .cfa: x29 32 + x19: .cfa -16 + ^ .ra: .cfa -24 + ^ x29: .cfa -32 + ^
STACK CFI e244 .cfa: sp 32 +
STACK CFI e24c .cfa: sp 0 +
STACK CFI e250 .cfa: x29 32 +
STACK CFI e254 .cfa: sp 32 +
STACK CFI e25c .cfa: sp 0 +
STACK CFI e260 .cfa: x29 32 +
STACK CFI INIT e710 338 .cfa: sp 0 +
STACK CFI e714 .cfa: sp 240 +
STACK CFI e728 .cfa: x29 64 + x19: .cfa -8 + ^ x20: .cfa -16 + ^ x21: .cfa -24 + ^ x22: .cfa -32 + ^ x23: .cfa -48 + ^ .ra: .cfa -56 + ^ x29: .cfa -64 + ^
STACK CFI e938 .cfa: sp 240 +
STACK CFI e94c .cfa: sp 0 +
STACK CFI e950 .cfa: x29 64 +
STACK CFI INIT ea4c 320 .cfa: sp 0 +
STACK CFI ea50 .cfa: sp 176 +
STACK CFI ea64 .cfa: x29 64 + x19: .cfa -8 + ^ x20: .cfa -16 + ^ x21: .cfa -24 + ^ x22: .cfa -32 + ^ x23: .cfa -48 + ^ .ra: .cfa -56 + ^ x29: .cfa -64 + ^
STACK CFI eaac .cfa: sp 176 +
STACK CFI eac0 .cfa: sp 0 +
STACK CFI eac4 .cfa: x29 64 +
STACK CFI INIT ed6c a8 .cfa: sp 0 +
STACK CFI ed70 .cfa: sp 32 +
STACK CFI ed78 .cfa: x29 32 + x19: .cfa -16 + ^ .ra: .cfa -24 + ^ x29: .cfa -32 + ^
STACK CFI edac .cfa: sp 32 +
STACK CFI edb4 .cfa: sp 0 +
STACK CFI edb8 .cfa: x29 32 +
STACK CFI edbc .cfa: sp 32 +
STACK CFI edc4 .cfa: sp 0 +
STACK CFI edc8 .cfa: x29 32 +
STACK CFI INIT eea4 1a4 .cfa: sp 0 +
STACK CFI eea8 .cfa: sp 112 +
STACK CFI eeb8 .cfa: x29 48 + x19: .cfa -8 + ^ x20: .cfa -16 + ^ x21: .cfa -32 + ^ .ra: .cfa -40 + ^ x29: .cfa -48 + ^
STACK CFI efa0 .cfa: sp 112 +
STACK CFI efb0 .cfa: sp 0 +
STACK CFI efb4 .cfa: x29 48 +
STACK CFI INIT f048 2b8 .cfa: sp 0 +
STACK CFI f04c .cfa: sp 160 +
STACK CFI f068 .cfa: x29 96 + x19: .cfa -8 + ^ x20: .cfa -16 + ^ x21: .cfa -24 + ^ x22: .cfa -32 + ^ x23: .cfa -40 + ^ x24: .cfa -48 + ^ x25: .cfa -56 + ^ x26: .cfa -64 + ^ x27: .cfa -72 + ^ x28: .cfa -80 + ^ .ra: .cfa -88 + ^ x29: .cfa -96 + ^
STACK CFI f0a0 .cfa: sp 160 +
STACK CFI f0bc .cfa: sp 0 +
STACK CFI f0c0 .cfa: x29 96 +
STACK CFI INIT f300 114 .cfa: sp 0 +
STACK CFI f304 .cfa: sp 64 +
STACK CFI f314 .cfa: x29 64 + x19: .cfa -8 + ^ x20: .cfa -16 + ^ x21: .cfa -24 + ^ x22: .cfa -32 + ^ x23: .cfa -48 + ^ .ra: .cfa -56 + ^ x29: .cfa -64 + ^
STACK CFI f3f0 .cfa: sp 64 +
STACK CFI f400 .cfa: sp 0 +
STACK CFI f404 .cfa: x29 64 +
STACK CFI INIT f474 22c .cfa: sp 0 +
STACK CFI f478 .cfa: sp 96 +
STACK CFI f490 .cfa: x29 96 + x19: .cfa -8 + ^ x20: .cfa -16 + ^ x21: .cfa -24 + ^ x22: .cfa -32 + ^ x23: .cfa -40 + ^ x24: .cfa -48 + ^ x25: .cfa -56 + ^ x26: .cfa -64 + ^ x27: .cfa -80 + ^ .ra: .cfa -88 + ^ x29: .cfa -96 + ^
STACK CFI f634 .cfa: sp 96 +
STACK CFI f64c .cfa: sp 0 +
STACK CFI f650 .cfa: x29 96 +
STACK CFI INIT f6c8 50 .cfa: sp 0 +
STACK CFI f6cc .cfa: sp 32 +
STACK CFI f6d4 .cfa: x29 32 + x19: .cfa -8 + ^ x20: .cfa -16 + ^ .ra: .cfa -24 + ^ x29: .cfa -32 + ^
STACK CFI INIT f91c 134 .cfa: sp 0 +
STACK CFI f920 .cfa: sp 80 +
STACK CFI f930 .cfa: x29 48 + x19: .cfa -8 + ^ x20: .cfa -16 + ^ x21: .cfa -24 + ^ x22: .cfa -32 + ^ .ra: .cfa -40 + ^ x29: .cfa -48 + ^
STACK CFI fa34 .cfa: sp 80 +
STACK CFI fa44 .cfa: sp 0 +
STACK CFI fa48 .cfa: x29 48 +
STACK CFI INIT fbb0 480 .cfa: sp 0 +
STACK CFI fbb4 .cfa: sp 224 +
STACK CFI fbd0 .cfa: x29 96 + x19: .cfa -8 + ^ x20: .cfa -16 + ^ x21: .cfa -24 + ^ x22: .cfa -32 + ^ x23: .cfa -40 + ^ x24: .cfa -48 + ^ x25: .cfa -56 + ^ x26: .cfa -64 + ^ x27: .cfa -80 + ^ .ra: .cfa -88 + ^ x29: .cfa -96 + ^
STACK CFI fe3c .cfa: sp 224 +
STACK CFI fe58 .cfa: sp 0 +
STACK CFI fe5c .cfa: x29 96 +
STACK CFI ff28 .cfa: sp 224 +
STACK CFI ff44 .cfa: sp 0 +
STACK CFI ff48 .cfa: x29 96 +
STACK CFI INIT 1004c 364 .cfa: sp 0 +
STACK CFI 10050 .cfa: sp 208 +
STACK CFI 10064 .cfa: x29 64 + x19: .cfa -8 + ^ x20: .cfa -16 + ^ x21: .cfa -24 + ^ x22: .cfa -32 + ^ x23: .cfa -48 + ^ .ra: .cfa -56 + ^ x29: .cfa -64 + ^
STACK CFI 1028c .cfa: sp 208 +
STACK CFI 102a0 .cfa: sp 0 +
STACK CFI 102a4 .cfa: x29 64 +
STACK CFI INIT 103b4 1e8 .cfa: sp 0 +
STACK CFI 103b8 .cfa: sp 112 +
STACK CFI 103d0 .cfa: x29 80 + x19: .cfa -8 + ^ x20: .cfa -16 + ^ x21: .cfa -24 + ^ x22: .cfa -32 + ^ x23: .cfa -40 + ^ x24: .cfa -48 + ^ x25: .cfa -56 + ^ x26: .cfa -64 + ^ .ra: .cfa -72 + ^ x29: .cfa -80 + ^
STACK CFI 10510 .cfa: sp 112 +
STACK CFI 10528 .cfa: sp 0 +
STACK CFI 1052c .cfa: x29 80 +
STACK CFI INIT 105b0 480 .cfa: sp 0 +
STACK CFI 105b4 .cfa: sp 224 +
STACK CFI 105d0 .cfa: x29 96 + x19: .cfa -8 + ^ x20: .cfa -16 + ^ x21: .cfa -24 + ^ x22: .cfa -32 + ^ x23: .cfa -40 + ^ x24: .cfa -48 + ^ x25: .cfa -56 + ^ x26: .cfa -64 + ^ x27: .cfa -80 + ^ .ra: .cfa -88 + ^ x29: .cfa -96 + ^
STACK CFI 1083c .cfa: sp 224 +
STACK CFI 10858 .cfa: sp 0 +
STACK CFI 1085c .cfa: x29 96 +
STACK CFI 10928 .cfa: sp 224 +
STACK CFI 10944 .cfa: sp 0 +
STACK CFI 10948 .cfa: x29 96 +
STACK CFI INIT 10a4c 330 .cfa: sp 0 +
STACK CFI 10a50 .cfa: sp 224 +
STACK CFI 10a64 .cfa: x29 64 + x19: .cfa -8 + ^ x20: .cfa -16 + ^ x21: .cfa -24 + ^ x22: .cfa -32 + ^ x23: .cfa -48 + ^ .ra: .cfa -56 + ^ x29: .cfa -64 + ^
STACK CFI 10c6c .cfa: sp 224 +
STACK CFI 10c80 .cfa: sp 0 +
STACK CFI 10c84 .cfa: x29 64 +
STACK CFI INIT 10d80 320 .cfa: sp 0 +
STACK CFI 10d84 .cfa: sp 176 +
STACK CFI 10d98 .cfa: x29 64 + x19: .cfa -8 + ^ x20: .cfa -16 + ^ x21: .cfa -24 + ^ x22: .cfa -32 + ^ x23: .cfa -48 + ^ .ra: .cfa -56 + ^ x29: .cfa -64 + ^
STACK CFI 10dfc .cfa: sp 176 +
STACK CFI 10e10 .cfa: sp 0 +
STACK CFI 10e14 .cfa: x29 64 +
STACK CFI INIT 110a0 a8 .cfa: sp 0 +
STACK CFI 110a4 .cfa: sp 32 +
STACK CFI 110ac .cfa: x29 32 + x19: .cfa -16 + ^ .ra: .cfa -24 + ^ x29: .cfa -32 + ^
STACK CFI 110e0 .cfa: sp 32 +
STACK CFI 110e8 .cfa: sp 0 +
STACK CFI 110ec .cfa: x29 32 +
STACK CFI 110f0 .cfa: sp 32 +
STACK CFI 110f8 .cfa: sp 0 +
STACK CFI 110fc .cfa: x29 32 +
STACK CFI INIT 111d4 1a4 .cfa: sp 0 +
STACK CFI 111d8 .cfa: sp 112 +
STACK CFI 111e8 .cfa: x29 48 + x19: .cfa -8 + ^ x20: .cfa -16 + ^ x21: .cfa -32 + ^ .ra: .cfa -40 + ^ x29: .cfa -48 + ^
STACK CFI 112d0 .cfa: sp 112 +
STACK CFI 112e0 .cfa: sp 0 +
STACK CFI 112e4 .cfa: x29 48 +
